; Listing generated by Microsoft (R) Optimizing Compiler Version 14.01.60511.01 

	TTL	C:\WINCE600\PLATFORM\COMMON\SRC\SOC\COMMON_TI_V1\COMMON_TI\PM\PMXPROXY\pmxproxy.cpp
	CODE32

  00000			 AREA	 |.drectve|, DRECTVE
	DCB	"-defaultlib:LIBCMT "
	DCB	"-defaultlib:OLDNAMES "

	EXPORT	|dpCurSettings| [ DATA ]

  00000			 AREA	 |.data|, DATA
|dpCurSettings| DCB "P", 0x0, "m", 0x0, "x", 0x0, "P", 0x0, "r", 0x0, "o", 0x0
	DCB	"x", 0x0, "y", 0x0, "D", 0x0, "r", 0x0, "i", 0x0, "v", 0x0
	DCB	"e", 0x0, "r", 0x0, 0x0, 0x0
	%	34
	DCB	"E", 0x0, "r", 0x0, "r", 0x0, "o", 0x0, "r", 0x0, "s", 0x0
	DCB	0x0, 0x0
	%	50
	DCB	"W", 0x0, "a", 0x0, "r", 0x0, "n", 0x0, "i", 0x0, "n", 0x0
	DCB	"g", 0x0, "s", 0x0, 0x0, 0x0
	%	46
	DCB	"F", 0x0, "u", 0x0, "n", 0x0, "c", 0x0, "t", 0x0, "i", 0x0
	DCB	"o", 0x0, "n", 0x0, 0x0, 0x0
	%	46
	DCB	"I", 0x0, "n", 0x0, "f", 0x0, "o", 0x0, 0x0, 0x0
	%	54
	DCB	"U", 0x0, "n", 0x0, "d", 0x0, "e", 0x0, "f", 0x0, "i", 0x0
	DCB	"n", 0x0, "e", 0x0, "d", 0x0, 0x0, 0x0
	%	44
	DCB	"U", 0x0, "n", 0x0, "d", 0x0, "e", 0x0, "f", 0x0, "i", 0x0
	DCB	"n", 0x0, "e", 0x0, "d", 0x0, 0x0, 0x0
	%	44
	DCB	"U", 0x0, "n", 0x0, "d", 0x0, "e", 0x0, "f", 0x0, "i", 0x0
	DCB	"n", 0x0, "e", 0x0, "d", 0x0, 0x0, 0x0
	%	44
	DCB	"U", 0x0, "n", 0x0, "d", 0x0, "e", 0x0, "f", 0x0, "i", 0x0
	DCB	"n", 0x0, "e", 0x0, "d", 0x0, 0x0, 0x0
	%	44
	DCB	"U", 0x0, "n", 0x0, "d", 0x0, "e", 0x0, "f", 0x0, "i", 0x0
	DCB	"n", 0x0, "e", 0x0, "d", 0x0, 0x0, 0x0
	%	44
	DCB	"U", 0x0, "n", 0x0, "d", 0x0, "e", 0x0, "f", 0x0, "i", 0x0
	DCB	"n", 0x0, "e", 0x0, "d", 0x0, 0x0, 0x0
	%	44
	DCB	"U", 0x0, "n", 0x0, "d", 0x0, "e", 0x0, "f", 0x0, "i", 0x0
	DCB	"n", 0x0, "e", 0x0, "d", 0x0, 0x0, 0x0
	%	44
	DCB	"U", 0x0, "n", 0x0, "d", 0x0, "e", 0x0, "f", 0x0, "i", 0x0
	DCB	"n", 0x0, "e", 0x0, "d", 0x0, 0x0, 0x0
	%	44
	DCB	"U", 0x0, "n", 0x0, "d", 0x0, "e", 0x0, "f", 0x0, "i", 0x0
	DCB	"n", 0x0, "e", 0x0, "d", 0x0, 0x0, 0x0
	%	44
	DCB	"U", 0x0, "n", 0x0, "d", 0x0, "e", 0x0, "f", 0x0, "i", 0x0
	DCB	"n", 0x0, "e", 0x0, "d", 0x0, 0x0, 0x0
	%	44
	DCB	"U", 0x0, "n", 0x0, "d", 0x0, "e", 0x0, "f", 0x0, "i", 0x0
	DCB	"n", 0x0, "e", 0x0, "d", 0x0, 0x0, 0x0
	%	44
	DCB	"U", 0x0, "n", 0x0, "d", 0x0, "e", 0x0, "f", 0x0, "i", 0x0
	DCB	"n", 0x0, "e", 0x0, "d", 0x0, 0x0, 0x0
	%	44
	DCD	0xb
	EXPORT	|?PMX_Init@@YAKPBGPBX@Z|		; PMX_Init

  00000			 AREA	 |.pdata|, PDATA
|$T36821| DCD	|$LN5@PMX_Init|
	DCD	0x40000b04
; Function compile flags: /Odtp
; File c:\wince600\platform\common\src\soc\common_ti_v1\common_ti\pm\pmxproxy\pmxproxy.cpp

  00000			 AREA	 |.text|, CODE, ARM

  00000		 |?PMX_Init@@YAKPBGPBX@Z| PROC		; PMX_Init

; 130  : {

  00000		 |$LN5@PMX_Init|
  00000	e1a0c00d	 mov         r12, sp
  00004	e92d0003	 stmdb       sp!, {r0, r1}
  00008	e92d5000	 stmdb       sp!, {r12, lr}
  0000c	e24dd004	 sub         sp, sp, #4
  00010		 |$M36818|

; 131  :     UNREFERENCED_PARAMETER(pBusContext);
; 132  :     UNREFERENCED_PARAMETER(szContext);
; 133  :     return PMX_DEVICE_COOKIE;

  00010	e59f3010	 ldr         r3, [pc, #0x10]
  00014	e58d3000	 str         r3, [sp]

; 134  : }

  00018	e59d0000	 ldr         r0, [sp]
  0001c	e28dd004	 add         sp, sp, #4
  00020	e89d6000	 ldmia       sp, {sp, lr}
  00024	e12fff1e	 bx          lr
  00028		 |$LN6@PMX_Init|
  00028		 |$LN7@PMX_Init|
  00028	706d7879	 DCD         0x706d7879
  0002c		 |$M36819|

			 ENDP  ; |?PMX_Init@@YAKPBGPBX@Z|, PMX_Init

	EXPORT	|?PMX_Deinit@@YAHK@Z|			; PMX_Deinit

  00008			 AREA	 |.pdata|, PDATA
|$T36831| DCD	|$LN7@PMX_Deinit|
	DCD	0x40001404
; Function compile flags: /Odtp

  0002c			 AREA	 |.text|, CODE, ARM

  0002c		 |?PMX_Deinit@@YAHK@Z| PROC		; PMX_Deinit

; 146  : {

  0002c		 |$LN7@PMX_Deinit|
  0002c	e1a0c00d	 mov         r12, sp
  00030	e92d0001	 stmdb       sp!, {r0}
  00034	e92d5000	 stmdb       sp!, {r12, lr}
  00038	e24dd008	 sub         sp, sp, #8
  0003c		 |$M36828|

; 147  :     return PMX_DEVICE_COOKIE == context;

  0003c	e59d2010	 ldr         r2, [sp, #0x10]
  00040	e59f3030	 ldr         r3, [pc, #0x30]
  00044	e1520003	 cmp         r2, r3
  00048	1a000002	 bne         |$LN3@PMX_Deinit|
  0004c	e3a03001	 mov         r3, #1
  00050	e58d3004	 str         r3, [sp, #4]
  00054	ea000001	 b           |$LN4@PMX_Deinit|
  00058		 |$LN3@PMX_Deinit|
  00058	e3a03000	 mov         r3, #0
  0005c	e58d3004	 str         r3, [sp, #4]
  00060		 |$LN4@PMX_Deinit|
  00060	e59d3004	 ldr         r3, [sp, #4]
  00064	e58d3000	 str         r3, [sp]

; 148  : }

  00068	e59d0000	 ldr         r0, [sp]
  0006c	e28dd008	 add         sp, sp, #8
  00070	e89d6000	 ldmia       sp, {sp, lr}
  00074	e12fff1e	 bx          lr
  00078		 |$LN8@PMX_Deinit|
  00078		 |$LN9@PMX_Deinit|
  00078	706d7879	 DCD         0x706d7879
  0007c		 |$M36829|

			 ENDP  ; |?PMX_Deinit@@YAHK@Z|, PMX_Deinit

	EXPORT	|??_C@_1FE@EIHDIJIG@?$AA?9?$AAP?$AAM?$AAX?$AA_?$AAO?$AAp?$AAe?$AAn?$AA?$CI?$AA0?$AAx?$AA?$CF?$AA0?$AA8?$AAx?$AA?0?$AA?5?$AA0?$AAx?$AA?$CF?$AA0?$AA8?$AAx?$AA?0?$AA?5?$AA0?$AAx?$AA?$CF?$AA0?$AA8?$AAx@| [ DATA ] ; `string'
	EXPORT	|??_C@_1HE@CBILKLCK@?$AAE?$AAR?$AAR?$AAO?$AAR?$AA?3?$AA?5?$AAP?$AAM?$AAX?$AA_?$AAO?$AAp?$AAe?$AAn?$AA?3?$AA?5?$AAF?$AAa?$AAi?$AAl?$AAe?$AAd?$AA?5?$AAa?$AAl?$AAl?$AAo?$AAc?$AAa?$AAt?$AAe@| [ DATA ] ; `string'
	EXPORT	|??_C@_1EI@NKBIAEGK@?$AA?$CL?$AAP?$AAM?$AAX?$AA_?$AAO?$AAp?$AAe?$AAn?$AA?$CI?$AA0?$AAx?$AA?$CF?$AA0?$AA8?$AAx?$AA?0?$AA?5?$AA0?$AAx?$AA?$CF?$AA0?$AA8?$AAx?$AA?0?$AA?5?$AA0?$AAx?$AA?$CF?$AA0?$AA8?$AAx@| [ DATA ] ; `string'
	EXPORT	|?PMX_Open@@YAKKKK@Z|			; PMX_Open
	IMPORT	|memset|
	IMPORT	|LocalAlloc|
	IMPORT	|NKDbgPrintfW|

  00010			 AREA	 |.pdata|, PDATA
|$T36846| DCD	|$LN13@PMX_Open|
	DCD	0x40004a04

  00000			 AREA	 |.rdata|, DATA, READONLY
|??_C@_1FE@EIHDIJIG@?$AA?9?$AAP?$AAM?$AAX?$AA_?$AAO?$AAp?$AAe?$AAn?$AA?$CI?$AA0?$AAx?$AA?$CF?$AA0?$AA8?$AAx?$AA?0?$AA?5?$AA0?$AAx?$AA?$CF?$AA0?$AA8?$AAx?$AA?0?$AA?5?$AA0?$AAx?$AA?$CF?$AA0?$AA8?$AAx@| DCB "-"
	DCB	0x0, "P", 0x0, "M", 0x0, "X", 0x0, "_", 0x0, "O", 0x0, "p"
	DCB	0x0, "e", 0x0, "n", 0x0, "(", 0x0, "0", 0x0, "x", 0x0, "%"
	DCB	0x0, "0", 0x0, "8", 0x0, "x", 0x0, ",", 0x0, " ", 0x0, "0"
	DCB	0x0, "x", 0x0, "%", 0x0, "0", 0x0, "8", 0x0, "x", 0x0, ","
	DCB	0x0, " ", 0x0, "0", 0x0, "x", 0x0, "%", 0x0, "0", 0x0, "8"
	DCB	0x0, "x", 0x0, ")", 0x0, " ", 0x0, "=", 0x0, "=", 0x0, " "
	DCB	0x0, "%", 0x0, "d", 0x0, 0xd, 0x0, 0xa, 0x0, 0x0, 0x0 ; `string'

  00000			 AREA	 |.rdata|, DATA, READONLY
|??_C@_1HE@CBILKLCK@?$AAE?$AAR?$AAR?$AAO?$AAR?$AA?3?$AA?5?$AAP?$AAM?$AAX?$AA_?$AAO?$AAp?$AAe?$AAn?$AA?3?$AA?5?$AAF?$AAa?$AAi?$AAl?$AAe?$AAd?$AA?5?$AAa?$AAl?$AAl?$AAo?$AAc?$AAa?$AAt?$AAe@| DCB "E"
	DCB	0x0, "R", 0x0, "R", 0x0, "O", 0x0, "R", 0x0, ":", 0x0, " "
	DCB	0x0, "P", 0x0, "M", 0x0, "X", 0x0, "_", 0x0, "O", 0x0, "p"
	DCB	0x0, "e", 0x0, "n", 0x0, ":", 0x0, " ", 0x0, "F", 0x0, "a"
	DCB	0x0, "i", 0x0, "l", 0x0, "e", 0x0, "d", 0x0, " ", 0x0, "a"
	DCB	0x0, "l", 0x0, "l", 0x0, "o", 0x0, "c", 0x0, "a", 0x0, "t"
	DCB	0x0, "e", 0x0, " ", 0x0, "P", 0x0, "r", 0x0, "o", 0x0, "x"
	DCB	0x0, "y", 0x0, " ", 0x0, "d", 0x0, "r", 0x0, "i", 0x0, "v"
	DCB	0x0, "e", 0x0, "r", 0x0, " ", 0x0, "s", 0x0, "t", 0x0, "r"
	DCB	0x0, "u", 0x0, "c", 0x0, "t", 0x0, "u", 0x0, "r", 0x0, "e"
	DCB	0x0, 0xd, 0x0, 0xa, 0x0, 0x0, 0x0	; `string'

  00000			 AREA	 |.rdata|, DATA, READONLY
|??_C@_1EI@NKBIAEGK@?$AA?$CL?$AAP?$AAM?$AAX?$AA_?$AAO?$AAp?$AAe?$AAn?$AA?$CI?$AA0?$AAx?$AA?$CF?$AA0?$AA8?$AAx?$AA?0?$AA?5?$AA0?$AAx?$AA?$CF?$AA0?$AA8?$AAx?$AA?0?$AA?5?$AA0?$AAx?$AA?$CF?$AA0?$AA8?$AAx@| DCB "+"
	DCB	0x0, "P", 0x0, "M", 0x0, "X", 0x0, "_", 0x0, "O", 0x0, "p"
	DCB	0x0, "e", 0x0, "n", 0x0, "(", 0x0, "0", 0x0, "x", 0x0, "%"
	DCB	0x0, "0", 0x0, "8", 0x0, "x", 0x0, ",", 0x0, " ", 0x0, "0"
	DCB	0x0, "x", 0x0, "%", 0x0, "0", 0x0, "8", 0x0, "x", 0x0, ","
	DCB	0x0, " ", 0x0, "0", 0x0, "x", 0x0, "%", 0x0, "0", 0x0, "8"
	DCB	0x0, "x", 0x0, ")", 0x0, 0xd, 0x0, 0xa, 0x0, 0x0, 0x0 ; `string'
; Function compile flags: /Odtp

  0007c			 AREA	 |.text|, CODE, ARM

  0007c		 |?PMX_Open@@YAKKKK@Z| PROC		; PMX_Open

; 162  : {

  0007c		 |$LN13@PMX_Open|
  0007c	e1a0c00d	 mov         r12, sp
  00080	e92d0007	 stmdb       sp!, {r0 - r2}
  00084	e92d5000	 stmdb       sp!, {r12, lr}
  00088	e24dd024	 sub         sp, sp, #0x24
  0008c		 |$M36843|

; 163  :     DWORD dw = 0;

  0008c	e3a03000	 mov         r3, #0
  00090	e58d3008	 str         r3, [sp, #8]

; 164  :     Instance_t *pInstance;
; 165  : 
; 166  : 	UNREFERENCED_PARAMETER(context);
; 167  : 	UNREFERENCED_PARAMETER(accessCode);
; 168  : 	UNREFERENCED_PARAMETER(shareMode);
; 169  : 
; 170  :     RETAILMSG(ZONE_FUNCTION, (L"+PMX_Open(0x%08x, 0x%08x, 0x%08x)\r\n",
; 171  :         context, accessCode, shareMode
; 172  :         ));

  00094	e59f30f8	 ldr         r3, [pc, #0xF8]
  00098	e5933440	 ldr         r3, [r3, #0x440]
  0009c	e3130004	 tst         r3, #4
  000a0	0a000007	 beq         |$LN5@PMX_Open|
  000a4	e59d3034	 ldr         r3, [sp, #0x34]
  000a8	e59d2030	 ldr         r2, [sp, #0x30]
  000ac	e59d102c	 ldr         r1, [sp, #0x2C]
  000b0	e59f00e8	 ldr         r0, [pc, #0xE8]
  000b4	eb000000	 bl          NKDbgPrintfW
  000b8	e3a03001	 mov         r3, #1
  000bc	e58d3014	 str         r3, [sp, #0x14]
  000c0	ea000001	 b           |$LN6@PMX_Open|
  000c4		 |$LN5@PMX_Open|
  000c4	e3a03000	 mov         r3, #0
  000c8	e58d3014	 str         r3, [sp, #0x14]
  000cc		 |$LN6@PMX_Open|

; 173  : 
; 174  :     // Create device structure
; 175  :     pInstance = (Instance_t *)LocalAlloc(LPTR, sizeof(Instance_t));

  000cc	e3a0100c	 mov         r1, #0xC
  000d0	e3a00040	 mov         r0, #0x40
  000d4	eb000000	 bl          LocalAlloc
  000d8	e58d0018	 str         r0, [sp, #0x18]
  000dc	e59d3018	 ldr         r3, [sp, #0x18]
  000e0	e58d3004	 str         r3, [sp, #4]

; 176  :     if (pInstance == NULL)

  000e4	e59d3004	 ldr         r3, [sp, #4]
  000e8	e3530000	 cmp         r3, #0
  000ec	1a000008	 bne         |$LN2@PMX_Open|

; 177  :         {
; 178  :         RETAILMSG(ZONE_ERROR, (L"ERROR: PMX_Open: "
; 179  :             L"Failed allocate Proxy driver structure\r\n"
; 180  :             ));

  000f0	e59f00a4	 ldr         r0, [pc, #0xA4]
  000f4	eb000000	 bl          NKDbgPrintfW
  000f8	e3a03001	 mov         r3, #1
  000fc	e58d301c	 str         r3, [sp, #0x1C]
  00100	ea000001	 b           |$LN8@PMX_Open|
  00104	e3a03000	 mov         r3, #0
  00108	e58d301c	 str         r3, [sp, #0x1C]
  0010c		 |$LN8@PMX_Open|

; 181  : 
; 182  :         goto cleanUp;

  0010c	ea000009	 b           |$LN1@PMX_Open|
  00110	ea000008	 b           |$cleanUp$36685|
  00114		 |$LN2@PMX_Open|

; 183  :         }
; 184  : 
; 185  :     memset(pInstance, 0, sizeof(Instance_t));

  00114	e3a0200c	 mov         r2, #0xC
  00118	e3a01000	 mov         r1, #0
  0011c	e59d0004	 ldr         r0, [sp, #4]
  00120	eb000000	 bl          memset

; 186  : 
; 187  :     // Set cookie
; 188  :     pInstance->cookie = PMX_DEVICE_COOKIE;

  00124	e59d2004	 ldr         r2, [sp, #4]
  00128	e59f3068	 ldr         r3, [pc, #0x68]
  0012c	e5823000	 str         r3, [r2]

; 189  : 
; 190  :     // Return non-null value
; 191  :     dw = (DWORD)pInstance;

  00130	e59d3004	 ldr         r3, [sp, #4]
  00134	e58d3008	 str         r3, [sp, #8]
  00138		 |$LN1@PMX_Open|
  00138		 |$cleanUp$36685|

; 192  : 
; 193  : cleanUp:
; 194  :     RETAILMSG(ZONE_FUNCTION, (L"-PMX_Open(0x%08x, 0x%08x, 0x%08x) == %d\r\n",
; 195  :         context, accessCode, shareMode, dw
; 196  :         ));

  00138	e59f3054	 ldr         r3, [pc, #0x54]
  0013c	e5933440	 ldr         r3, [r3, #0x440]
  00140	e3130004	 tst         r3, #4
  00144	0a000009	 beq         |$LN9@PMX_Open|
  00148	e59d3008	 ldr         r3, [sp, #8]
  0014c	e58d3000	 str         r3, [sp]
  00150	e59d3034	 ldr         r3, [sp, #0x34]
  00154	e59d2030	 ldr         r2, [sp, #0x30]
  00158	e59d102c	 ldr         r1, [sp, #0x2C]
  0015c	e59f002c	 ldr         r0, [pc, #0x2C]
  00160	eb000000	 bl          NKDbgPrintfW
  00164	e3a03001	 mov         r3, #1
  00168	e58d3020	 str         r3, [sp, #0x20]
  0016c	ea000001	 b           |$LN10@PMX_Open|
  00170		 |$LN9@PMX_Open|
  00170	e3a03000	 mov         r3, #0
  00174	e58d3020	 str         r3, [sp, #0x20]
  00178		 |$LN10@PMX_Open|

; 197  : 
; 198  :     return dw;

  00178	e59d3008	 ldr         r3, [sp, #8]
  0017c	e58d3010	 str         r3, [sp, #0x10]

; 199  : }

  00180	e59d0010	 ldr         r0, [sp, #0x10]
  00184	e28dd024	 add         sp, sp, #0x24
  00188	e89d6000	 ldmia       sp, {sp, lr}
  0018c	e12fff1e	 bx          lr
  00190		 |$LN14@PMX_Open|
  00190		 |$LN15@PMX_Open|
  00190	00000000	 DCD         |??_C@_1FE@EIHDIJIG@?$AA?9?$AAP?$AAM?$AAX?$AA_?$AAO?$AAp?$AAe?$AAn?$AA?$CI?$AA0?$AAx?$AA?$CF?$AA0?$AA8?$AAx?$AA?0?$AA?5?$AA0?$AAx?$AA?$CF?$AA0?$AA8?$AAx?$AA?0?$AA?5?$AA0?$AAx?$AA?$CF?$AA0?$AA8?$AAx@|
  00194		 |$LN16@PMX_Open|
  00194	00000000	 DCD         |dpCurSettings|
  00198		 |$LN17@PMX_Open|
  00198	706d7879	 DCD         0x706d7879
  0019c		 |$LN18@PMX_Open|
  0019c	00000000	 DCD         |??_C@_1HE@CBILKLCK@?$AAE?$AAR?$AAR?$AAO?$AAR?$AA?3?$AA?5?$AAP?$AAM?$AAX?$AA_?$AAO?$AAp?$AAe?$AAn?$AA?3?$AA?5?$AAF?$AAa?$AAi?$AAl?$AAe?$AAd?$AA?5?$AAa?$AAl?$AAl?$AAo?$AAc?$AAa?$AAt?$AAe@|
  001a0		 |$LN19@PMX_Open|
  001a0	00000000	 DCD         |??_C@_1EI@NKBIAEGK@?$AA?$CL?$AAP?$AAM?$AAX?$AA_?$AAO?$AAp?$AAe?$AAn?$AA?$CI?$AA0?$AAx?$AA?$CF?$AA0?$AA8?$AAx?$AA?0?$AA?5?$AA0?$AAx?$AA?$CF?$AA0?$AA8?$AAx?$AA?0?$AA?5?$AA0?$AAx?$AA?$CF?$AA0?$AA8?$AAx@|
  001a4		 |$M36844|

			 ENDP  ; |?PMX_Open@@YAKKKK@Z|, PMX_Open

	EXPORT	|??_C@_1CK@MKCKNGEE@?$AA?9?$AAP?$AAM?$AAX?$AA_?$AAC?$AAl?$AAo?$AAs?$AAe?$AA?$CI?$AA0?$AAx?$AA?$CF?$AA0?$AA8?$AAx?$AA?$CJ?$AA?$AN?$AA?6?$AA?$AA@| [ DATA ] ; `string'
	EXPORT	|??_C@_1GO@EILJHIPE@?$AAT?$AAL?$AAD?$AA?3?$AA?5?$AA?$CB?$AAE?$AAR?$AAR?$AAO?$AAR?$AA?$CI?$AAP?$AAM?$AAX?$AA_?$AAC?$AAl?$AAo?$AAs?$AAe?$AA?$CJ?$AA?5?$AA?9?$AA?5?$AAI?$AAn?$AAc?$AAo?$AAr?$AAr?$AAe@| [ DATA ] ; `string'
	EXPORT	|??_C@_1CK@LKFNMAKC@?$AA?$CL?$AAP?$AAM?$AAX?$AA_?$AAC?$AAl?$AAo?$AAs?$AAe?$AA?$CI?$AA0?$AAx?$AA?$CF?$AA0?$AA8?$AAx?$AA?$CJ?$AA?$AN?$AA?6?$AA?$AA@| [ DATA ] ; `string'
	EXPORT	|?PMX_Close@@YAHK@Z|			; PMX_Close
	IMPORT	|LocalFree|
	IMPORT	|PmxClosePolicy|
	IMPORT	|PmxReleaseConstraint|

  00018			 AREA	 |.pdata|, PDATA
|$T36864| DCD	|$LN15@PMX_Close|
	DCD	0x40004c04

  00000			 AREA	 |.rdata|, DATA, READONLY
|??_C@_1CK@MKCKNGEE@?$AA?9?$AAP?$AAM?$AAX?$AA_?$AAC?$AAl?$AAo?$AAs?$AAe?$AA?$CI?$AA0?$AAx?$AA?$CF?$AA0?$AA8?$AAx?$AA?$CJ?$AA?$AN?$AA?6?$AA?$AA@| DCB "-"
	DCB	0x0, "P", 0x0, "M", 0x0, "X", 0x0, "_", 0x0, "C", 0x0, "l"
	DCB	0x0, "o", 0x0, "s", 0x0, "e", 0x0, "(", 0x0, "0", 0x0, "x"
	DCB	0x0, "%", 0x0, "0", 0x0, "8", 0x0, "x", 0x0, ")", 0x0, 0xd
	DCB	0x0, 0xa, 0x0, 0x0, 0x0			; `string'

  00000			 AREA	 |.rdata|, DATA, READONLY
|??_C@_1GO@EILJHIPE@?$AAT?$AAL?$AAD?$AA?3?$AA?5?$AA?$CB?$AAE?$AAR?$AAR?$AAO?$AAR?$AA?$CI?$AAP?$AAM?$AAX?$AA_?$AAC?$AAl?$AAo?$AAs?$AAe?$AA?$CJ?$AA?5?$AA?9?$AA?5?$AAI?$AAn?$AAc?$AAo?$AAr?$AAr?$AAe@| DCB "T"
	DCB	0x0, "L", 0x0, "D", 0x0, ":", 0x0, " ", 0x0, "!", 0x0, "E"
	DCB	0x0, "R", 0x0, "R", 0x0, "O", 0x0, "R", 0x0, "(", 0x0, "P"
	DCB	0x0, "M", 0x0, "X", 0x0, "_", 0x0, "C", 0x0, "l", 0x0, "o"
	DCB	0x0, "s", 0x0, "e", 0x0, ")", 0x0, " ", 0x0, "-", 0x0, " "
	DCB	0x0, "I", 0x0, "n", 0x0, "c", 0x0, "o", 0x0, "r", 0x0, "r"
	DCB	0x0, "e", 0x0, "c", 0x0, "t", 0x0, " ", 0x0, "c", 0x0, "o"
	DCB	0x0, "n", 0x0, "t", 0x0, "e", 0x0, "x", 0x0, "t", 0x0, " "
	DCB	0x0, "p", 0x0, "a", 0x0, "r", 0x0, "a", 0x0, "m", 0x0, "e"
	DCB	0x0, "t", 0x0, "e", 0x0, "r", 0x0, 0xd, 0x0, 0xa, 0x0, 0x0
	DCB	0x0					; `string'

  00000			 AREA	 |.rdata|, DATA, READONLY
|??_C@_1CK@LKFNMAKC@?$AA?$CL?$AAP?$AAM?$AAX?$AA_?$AAC?$AAl?$AAo?$AAs?$AAe?$AA?$CI?$AA0?$AAx?$AA?$CF?$AA0?$AA8?$AAx?$AA?$CJ?$AA?$AN?$AA?6?$AA?$AA@| DCB "+"
	DCB	0x0, "P", 0x0, "M", 0x0, "X", 0x0, "_", 0x0, "C", 0x0, "l"
	DCB	0x0, "o", 0x0, "s", 0x0, "e", 0x0, "(", 0x0, "0", 0x0, "x"
	DCB	0x0, "%", 0x0, "0", 0x0, "8", 0x0, "x", 0x0, ")", 0x0, 0xd
	DCB	0x0, 0xa, 0x0, 0x0, 0x0			; `string'
; Function compile flags: /Odtp

  001a4			 AREA	 |.text|, CODE, ARM

  001a4		 |?PMX_Close@@YAHK@Z| PROC		; PMX_Close

; 211  : {

  001a4		 |$LN15@PMX_Close|
  001a4	e1a0c00d	 mov         r12, sp
  001a8	e92d0001	 stmdb       sp!, {r0}
  001ac	e92d5000	 stmdb       sp!, {r12, lr}
  001b0	e24dd018	 sub         sp, sp, #0x18
  001b4		 |$M36861|

; 212  :     BOOL rc = FALSE;

  001b4	e3a03000	 mov         r3, #0
  001b8	e58d3000	 str         r3, [sp]

; 213  :     Instance_t *pInstance = (Instance_t*)context;

  001bc	e59d3020	 ldr         r3, [sp, #0x20]
  001c0	e58d3004	 str         r3, [sp, #4]

; 214  : 
; 215  :     RETAILMSG(ZONE_FUNCTION, (L"+PMX_Close(0x%08x)\r\n",
; 216  :         context
; 217  :         ));

  001c4	e59f30fc	 ldr         r3, [pc, #0xFC]
  001c8	e5933440	 ldr         r3, [r3, #0x440]
  001cc	e3130004	 tst         r3, #4
  001d0	0a000005	 beq         |$LN7@PMX_Close|
  001d4	e59d1020	 ldr         r1, [sp, #0x20]
  001d8	e59f00f0	 ldr         r0, [pc, #0xF0]
  001dc	eb000000	 bl          NKDbgPrintfW
  001e0	e3a03001	 mov         r3, #1
  001e4	e58d300c	 str         r3, [sp, #0xC]
  001e8	ea000001	 b           |$LN8@PMX_Close|
  001ec		 |$LN7@PMX_Close|
  001ec	e3a03000	 mov         r3, #0
  001f0	e58d300c	 str         r3, [sp, #0xC]
  001f4		 |$LN8@PMX_Close|

; 218  : 
; 219  :     if ((pInstance == NULL))

  001f4	e59d3004	 ldr         r3, [sp, #4]
  001f8	e3530000	 cmp         r3, #0
  001fc	1a000008	 bne         |$LN4@PMX_Close|

; 220  :         {
; 221  :         RETAILMSG (ZONE_ERROR, (L"TLD: !ERROR(PMX_Close) - "
; 222  :             L"Incorrect context parameter\r\n"
; 223  :             ));

  00200	e59f00c4	 ldr         r0, [pc, #0xC4]
  00204	eb000000	 bl          NKDbgPrintfW
  00208	e3a03001	 mov         r3, #1
  0020c	e58d3010	 str         r3, [sp, #0x10]
  00210	ea000001	 b           |$LN10@PMX_Close|
  00214	e3a03000	 mov         r3, #0
  00218	e58d3010	 str         r3, [sp, #0x10]
  0021c		 |$LN10@PMX_Close|

; 224  :         goto cleanUp;

  0021c	ea000016	 b           |$LN3@PMX_Close|
  00220	ea000015	 b           |$cleanUp$36699|
  00224		 |$LN4@PMX_Close|

; 225  :         }
; 226  : 
; 227  :     // close constraint handles
; 228  :     if (pInstance->hPmxConstraint != NULL)

  00224	e59d3004	 ldr         r3, [sp, #4]
  00228	e2833004	 add         r3, r3, #4
  0022c	e5933000	 ldr         r3, [r3]
  00230	e3530000	 cmp         r3, #0
  00234	0a000003	 beq         |$LN2@PMX_Close|

; 229  :         {
; 230  :         PmxReleaseConstraint(pInstance->hPmxConstraint);

  00238	e59d3004	 ldr         r3, [sp, #4]
  0023c	e2833004	 add         r3, r3, #4
  00240	e5930000	 ldr         r0, [r3]
  00244	eb000000	 bl          PmxReleaseConstraint
  00248		 |$LN2@PMX_Close|

; 231  :         }
; 232  : 
; 233  :     if (pInstance->hPmxPolicy != NULL)

  00248	e59d3004	 ldr         r3, [sp, #4]
  0024c	e2833008	 add         r3, r3, #8
  00250	e5933000	 ldr         r3, [r3]
  00254	e3530000	 cmp         r3, #0
  00258	0a000003	 beq         |$LN1@PMX_Close|

; 234  :         {
; 235  :         PmxClosePolicy(pInstance->hPmxPolicy);

  0025c	e59d3004	 ldr         r3, [sp, #4]
  00260	e2833008	 add         r3, r3, #8
  00264	e5930000	 ldr         r0, [r3]
  00268	eb000000	 bl          PmxClosePolicy
  0026c		 |$LN1@PMX_Close|

; 236  :         }
; 237  : 
; 238  :     // Free device structure
; 239  :     LocalFree(pInstance);

  0026c	e59d0004	 ldr         r0, [sp, #4]
  00270	eb000000	 bl          LocalFree

; 240  : 
; 241  :     // Done
; 242  :     rc = TRUE;

  00274	e3a03001	 mov         r3, #1
  00278	e58d3000	 str         r3, [sp]
  0027c		 |$LN3@PMX_Close|
  0027c		 |$cleanUp$36699|

; 243  : 
; 244  : cleanUp:
; 245  :     RETAILMSG(ZONE_FUNCTION, (L"-PMX_Close(0x%08x)\r\n",
; 246  :         context
; 247  :         ));

  0027c	e59f3044	 ldr         r3, [pc, #0x44]
  00280	e5933440	 ldr         r3, [r3, #0x440]
  00284	e3130004	 tst         r3, #4
  00288	0a000005	 beq         |$LN11@PMX_Close|
  0028c	e59d1020	 ldr         r1, [sp, #0x20]
  00290	e59f002c	 ldr         r0, [pc, #0x2C]
  00294	eb000000	 bl          NKDbgPrintfW
  00298	e3a03001	 mov         r3, #1
  0029c	e58d3014	 str         r3, [sp, #0x14]
  002a0	ea000001	 b           |$LN12@PMX_Close|
  002a4		 |$LN11@PMX_Close|
  002a4	e3a03000	 mov         r3, #0
  002a8	e58d3014	 str         r3, [sp, #0x14]
  002ac		 |$LN12@PMX_Close|

; 248  : 
; 249  :     return rc;

  002ac	e59d3000	 ldr         r3, [sp]
  002b0	e58d3008	 str         r3, [sp, #8]

; 250  : }

  002b4	e59d0008	 ldr         r0, [sp, #8]
  002b8	e28dd018	 add         sp, sp, #0x18
  002bc	e89d6000	 ldmia       sp, {sp, lr}
  002c0	e12fff1e	 bx          lr
  002c4		 |$LN16@PMX_Close|
  002c4		 |$LN17@PMX_Close|
  002c4	00000000	 DCD         |??_C@_1CK@MKCKNGEE@?$AA?9?$AAP?$AAM?$AAX?$AA_?$AAC?$AAl?$AAo?$AAs?$AAe?$AA?$CI?$AA0?$AAx?$AA?$CF?$AA0?$AA8?$AAx?$AA?$CJ?$AA?$AN?$AA?6?$AA?$AA@|
  002c8		 |$LN18@PMX_Close|
  002c8	00000000	 DCD         |dpCurSettings|
  002cc		 |$LN19@PMX_Close|
  002cc	00000000	 DCD         |??_C@_1GO@EILJHIPE@?$AAT?$AAL?$AAD?$AA?3?$AA?5?$AA?$CB?$AAE?$AAR?$AAR?$AAO?$AAR?$AA?$CI?$AAP?$AAM?$AAX?$AA_?$AAC?$AAl?$AAo?$AAs?$AAe?$AA?$CJ?$AA?5?$AA?9?$AA?5?$AAI?$AAn?$AAc?$AAo?$AAr?$AAr?$AAe@|
  002d0		 |$LN20@PMX_Close|
  002d0	00000000	 DCD         |??_C@_1CK@LKFNMAKC@?$AA?$CL?$AAP?$AAM?$AAX?$AA_?$AAC?$AAl?$AAo?$AAs?$AAe?$AA?$CI?$AA0?$AAx?$AA?$CF?$AA0?$AA8?$AAx?$AA?$CJ?$AA?$AN?$AA?6?$AA?$AA@|
  002d4		 |$M36862|

			 ENDP  ; |?PMX_Close@@YAHK@Z|, PMX_Close

	EXPORT	|??_C@_1DE@LFMFHMDF@?$AA?9?$AAP?$AAM?$AAX?$AA_?$AAI?$AAO?$AAC?$AAo?$AAn?$AAt?$AAr?$AAo?$AAl?$AA?$CI?$AAr?$AAc?$AA?5?$AA?$DN?$AA?5?$AA?$CF?$AAd?$AA?$CJ?$AA?$AN?$AA?6?$AA?$AA@| [ DATA ] ; `string'
	EXPORT	|?MarshalDataPointerHelper@@YAPAXPAXKK@Z| ; MarshalDataPointerHelper
	EXPORT	|??_C@_1GI@MNPCBNEO@?$AAE?$AAR?$AAR?$AAO?$AAR?$AA?3?$AA?5?$AAP?$AAM?$AAX?$AA_?$AAI?$AAO?$AAC?$AAo?$AAn?$AAt?$AAr?$AAo?$AAl?$AA?3?$AA?5?$AAI?$AAn?$AAc?$AAo?$AAr?$AAr?$AAe?$AAc?$AAt?$AA?5@| [ DATA ] ; `string'
	EXPORT	|??_C@_1IC@JKHIBKFA@?$AA?$CL?$AAP?$AAM?$AAX?$AA_?$AAI?$AAO?$AAC?$AAo?$AAn?$AAt?$AAr?$AAo?$AAl?$AA?$CI?$AA0?$AAx?$AA?$CF?$AA0?$AA8?$AAx?$AA?0?$AA?5?$AA0?$AAx?$AA?$CF?$AA0?$AA8?$AAx?$AA?0?$AA?5?$AA0@| [ DATA ] ; `string'
	EXPORT	|?PMX_IOControl@@YAHKKPAXK0KPAK@Z|	; PMX_IOControl
	IMPORT	|PmxUpdateConstraint|
	IMPORT	|PmxSetConstraintById|
	IMPORT	|PmxLoadConstraint|
	IMPORT	|CeCloseCallerBuffer|
	IMPORT	|PmxNotifyPolicy|
	IMPORT	|PmxOpenPolicy|
	IMPORT	|PmxLoadPolicy|

  00020			 AREA	 |.pdata|, PDATA
|$T36924| DCD	|$LN76@PMX_IOCont|
	DCD	0x4001a004

  00000			 AREA	 |.rdata|, DATA, READONLY
|??_C@_1DE@LFMFHMDF@?$AA?9?$AAP?$AAM?$AAX?$AA_?$AAI?$AAO?$AAC?$AAo?$AAn?$AAt?$AAr?$AAo?$AAl?$AA?$CI?$AAr?$AAc?$AA?5?$AA?$DN?$AA?5?$AA?$CF?$AAd?$AA?$CJ?$AA?$AN?$AA?6?$AA?$AA@| DCB "-"
	DCB	0x0, "P", 0x0, "M", 0x0, "X", 0x0, "_", 0x0, "I", 0x0, "O"
	DCB	0x0, "C", 0x0, "o", 0x0, "n", 0x0, "t", 0x0, "r", 0x0, "o"
	DCB	0x0, "l", 0x0, "(", 0x0, "r", 0x0, "c", 0x0, " ", 0x0, "="
	DCB	0x0, " ", 0x0, "%", 0x0, "d", 0x0, ")", 0x0, 0xd, 0x0, 0xa
	DCB	0x0, 0x0, 0x0				; `string'

  00000			 AREA	 |.rdata|, DATA, READONLY
|??_C@_1GI@MNPCBNEO@?$AAE?$AAR?$AAR?$AAO?$AAR?$AA?3?$AA?5?$AAP?$AAM?$AAX?$AA_?$AAI?$AAO?$AAC?$AAo?$AAn?$AAt?$AAr?$AAo?$AAl?$AA?3?$AA?5?$AAI?$AAn?$AAc?$AAo?$AAr?$AAr?$AAe?$AAc?$AAt?$AA?5@| DCB "E"
	DCB	0x0, "R", 0x0, "R", 0x0, "O", 0x0, "R", 0x0, ":", 0x0, " "
	DCB	0x0, "P", 0x0, "M", 0x0, "X", 0x0, "_", 0x0, "I", 0x0, "O"
	DCB	0x0, "C", 0x0, "o", 0x0, "n", 0x0, "t", 0x0, "r", 0x0, "o"
	DCB	0x0, "l", 0x0, ":", 0x0, " ", 0x0, "I", 0x0, "n", 0x0, "c"
	DCB	0x0, "o", 0x0, "r", 0x0, "r", 0x0, "e", 0x0, "c", 0x0, "t"
	DCB	0x0, " ", 0x0, "c", 0x0, "o", 0x0, "n", 0x0, "t", 0x0, "e"
	DCB	0x0, "x", 0x0, "t", 0x0, " ", 0x0, "p", 0x0, "a", 0x0, "r"
	DCB	0x0, "a", 0x0, "m", 0x0, "e", 0x0, "t", 0x0, "e", 0x0, "r"
	DCB	0x0, 0xd, 0x0, 0xa, 0x0, 0x0, 0x0	; `string'

  00000			 AREA	 |.rdata|, DATA, READONLY
|??_C@_1IC@JKHIBKFA@?$AA?$CL?$AAP?$AAM?$AAX?$AA_?$AAI?$AAO?$AAC?$AAo?$AAn?$AAt?$AAr?$AAo?$AAl?$AA?$CI?$AA0?$AAx?$AA?$CF?$AA0?$AA8?$AAx?$AA?0?$AA?5?$AA0?$AAx?$AA?$CF?$AA0?$AA8?$AAx?$AA?0?$AA?5?$AA0@| DCB "+"
	DCB	0x0, "P", 0x0, "M", 0x0, "X", 0x0, "_", 0x0, "I", 0x0, "O"
	DCB	0x0, "C", 0x0, "o", 0x0, "n", 0x0, "t", 0x0, "r", 0x0, "o"
	DCB	0x0, "l", 0x0, "(", 0x0, "0", 0x0, "x", 0x0, "%", 0x0, "0"
	DCB	0x0, "8", 0x0, "x", 0x0, ",", 0x0, " ", 0x0, "0", 0x0, "x"
	DCB	0x0, "%", 0x0, "0", 0x0, "8", 0x0, "x", 0x0, ",", 0x0, " "
	DCB	0x0, "0", 0x0, "x", 0x0, "%", 0x0, "0", 0x0, "8", 0x0, "x"
	DCB	0x0, ",", 0x0, " ", 0x0, "%", 0x0, "d", 0x0, ",", 0x0, " "
	DCB	0x0, "0", 0x0, "x", 0x0, "%", 0x0, "0", 0x0, "8", 0x0, "x"
	DCB	0x0, ",", 0x0, " ", 0x0, "%", 0x0, "d", 0x0, ",", 0x0, " "
	DCB	0x0, "0", 0x0, "x", 0x0, "%", 0x0, "0", 0x0, "8", 0x0, "x"
	DCB	0x0, ")", 0x0, 0xd, 0x0, 0xa, 0x0, 0x0, 0x0 ; `string'
; Function compile flags: /Odtp

  002d4			 AREA	 |.text|, CODE, ARM

  002d4		 |?PMX_IOControl@@YAHKKPAXK0KPAK@Z| PROC ; PMX_IOControl

; 265  : {

  002d4		 |$LN76@PMX_IOCont|
  002d4	e1a0c00d	 mov         r12, sp
  002d8	e92d000f	 stmdb       sp!, {r0 - r3}
  002dc	e92d5000	 stmdb       sp!, {r12, lr}
  002e0	e24dd08c	 sub         sp, sp, #0x8C
  002e4		 |$M36921|

; 266  :     BOOL rc = FALSE;

  002e4	e3a03000	 mov         r3, #0
  002e8	e58d3010	 str         r3, [sp, #0x10]

; 267  :     Instance_t *pInstance = (Instance_t*)context;

  002ec	e59d3094	 ldr         r3, [sp, #0x94]
  002f0	e58d3018	 str         r3, [sp, #0x18]

; 268  :     IOCTL_PMX_PARAMETERS  tempPmxInfo;
; 269  :     IOCTL_PMX_PARAMETERS *pPmxInfo;
; 270  : 
; 271  : 	UNREFERENCED_PARAMETER(inSize);
; 272  : 	UNREFERENCED_PARAMETER(pOutBuffer);
; 273  : 	UNREFERENCED_PARAMETER(outSize);
; 274  : 	UNREFERENCED_PARAMETER(pOutSize);
; 275  : 
; 276  :     RETAILMSG(ZONE_FUNCTION, (
; 277  :         L"+PMX_IOControl(0x%08x, 0x%08x, 0x%08x, %d, 0x%08x, %d, 0x%08x)\r\n",
; 278  :         context, code, pInBuffer, inSize, pOutBuffer, outSize, pOutSize
; 279  :         ));

  002f4	e59f364c	 ldr         r3, [pc, #0x64C]
  002f8	e5933440	 ldr         r3, [r3, #0x440]
  002fc	e3130004	 tst         r3, #4
  00300	0a00000f	 beq         |$LN29@PMX_IOCont|
  00304	e59d30ac	 ldr         r3, [sp, #0xAC]
  00308	e58d300c	 str         r3, [sp, #0xC]
  0030c	e59d30a8	 ldr         r3, [sp, #0xA8]
  00310	e58d3008	 str         r3, [sp, #8]
  00314	e59d30a4	 ldr         r3, [sp, #0xA4]
  00318	e58d3004	 str         r3, [sp, #4]
  0031c	e59d30a0	 ldr         r3, [sp, #0xA0]
  00320	e58d3000	 str         r3, [sp]
  00324	e59d309c	 ldr         r3, [sp, #0x9C]
  00328	e59d2098	 ldr         r2, [sp, #0x98]
  0032c	e59d1094	 ldr         r1, [sp, #0x94]
  00330	e59f0618	 ldr         r0, [pc, #0x618]
  00334	eb000000	 bl          NKDbgPrintfW
  00338	e3a03001	 mov         r3, #1
  0033c	e58d3044	 str         r3, [sp, #0x44]
  00340	ea000001	 b           |$LN30@PMX_IOCont|
  00344		 |$LN29@PMX_IOCont|
  00344	e3a03000	 mov         r3, #0
  00348	e58d3044	 str         r3, [sp, #0x44]
  0034c		 |$LN30@PMX_IOCont|

; 280  : 
; 281  :     // Check if we get correct context
; 282  :     if ((pInstance == NULL))

  0034c	e59d3018	 ldr         r3, [sp, #0x18]
  00350	e3530000	 cmp         r3, #0
  00354	1a000008	 bne         |$LN26@PMX_IOCont|

; 283  :         {
; 284  :         RETAILMSG(ZONE_ERROR, (L"ERROR: PMX_IOControl: "
; 285  :             L"Incorrect context parameter\r\n"
; 286  :             ));

  00358	e59f05ec	 ldr         r0, [pc, #0x5EC]
  0035c	eb000000	 bl          NKDbgPrintfW
  00360	e3a03001	 mov         r3, #1
  00364	e58d3048	 str         r3, [sp, #0x48]
  00368	ea000001	 b           |$LN32@PMX_IOCont|
  0036c	e3a03000	 mov         r3, #0
  00370	e58d3048	 str         r3, [sp, #0x48]
  00374		 |$LN32@PMX_IOCont|

; 287  :         goto cleanUp;

  00374	ea000160	 b           |$LN25@PMX_IOCont|
  00378	ea00015f	 b           |$cleanUp$36721|
  0037c		 |$LN26@PMX_IOCont|

; 288  :         }
; 289  : 
; 290  :     switch (code)

  0037c	e59d3098	 ldr         r3, [sp, #0x98]
  00380	e58d304c	 str         r3, [sp, #0x4C]
  00384	e59d204c	 ldr         r2, [sp, #0x4C]
  00388	e3a0381e	 mov         r3, #0x1E, 16
  0038c	e3833f65	 orr         r3, r3, #0x65, 30
  00390	e0423003	 sub         r3, r2, r3
  00394	e58d304c	 str         r3, [sp, #0x4C]
  00398	e59d304c	 ldr         r3, [sp, #0x4C]
  0039c	e353001c	 cmp         r3, #0x1C
  003a0	8a000155	 bhi         |$LN23@PMX_IOCont|
  003a4	e59d204c	 ldr         r2, [sp, #0x4C]
  003a8	e1a03102	 mov         r3, r2, lsl #2
  003ac	e083300f	 add         r3, r3, pc
  003b0	e5933004	 ldr         r3, [r3, #4]
  003b4	e08ff003	 add         pc, pc, r3
  003b8		 |$LN44@PMX_IOCont|
  003b8		 |$LN43@PMX_IOCont|
  003b8		 |$LN45@PMX_IOCont|
  003b8	00000070	 DCD         0x70
  003bc		 |$LN46@PMX_IOCont|
  003bc	00000540	 DCD         0x540
  003c0		 |$LN47@PMX_IOCont|
  003c0	00000540	 DCD         0x540
  003c4		 |$LN48@PMX_IOCont|
  003c4	00000540	 DCD         0x540
  003c8		 |$LN49@PMX_IOCont|
  003c8	000000ec	 DCD         0xec
  003cc		 |$LN50@PMX_IOCont|
  003cc	00000540	 DCD         0x540
  003d0		 |$LN51@PMX_IOCont|
  003d0	00000540	 DCD         0x540
  003d4		 |$LN52@PMX_IOCont|
  003d4	00000540	 DCD         0x540
  003d8		 |$LN53@PMX_IOCont|
  003d8	00000168	 DCD         0x168
  003dc		 |$LN54@PMX_IOCont|
  003dc	00000540	 DCD         0x540
  003e0		 |$LN55@PMX_IOCont|
  003e0	00000540	 DCD         0x540
  003e4		 |$LN56@PMX_IOCont|
  003e4	00000540	 DCD         0x540
  003e8		 |$LN57@PMX_IOCont|
  003e8	000001b4	 DCD         0x1b4
  003ec		 |$LN58@PMX_IOCont|
  003ec	00000540	 DCD         0x540
  003f0		 |$LN59@PMX_IOCont|
  003f0	00000540	 DCD         0x540
  003f4		 |$LN60@PMX_IOCont|
  003f4	00000540	 DCD         0x540
  003f8		 |$LN61@PMX_IOCont|
  003f8	00000274	 DCD         0x274
  003fc		 |$LN62@PMX_IOCont|
  003fc	00000540	 DCD         0x540
  00400		 |$LN63@PMX_IOCont|
  00400	00000540	 DCD         0x540
  00404		 |$LN64@PMX_IOCont|
  00404	00000540	 DCD         0x540
  00408		 |$LN65@PMX_IOCont|
  00408	0000033c	 DCD         0x33c
  0040c		 |$LN66@PMX_IOCont|
  0040c	00000540	 DCD         0x540
  00410		 |$LN67@PMX_IOCont|
  00410	00000540	 DCD         0x540
  00414		 |$LN68@PMX_IOCont|
  00414	00000540	 DCD         0x540
  00418		 |$LN69@PMX_IOCont|
  00418	00000484	 DCD         0x484
  0041c		 |$LN70@PMX_IOCont|
  0041c	00000540	 DCD         0x540
  00420		 |$LN71@PMX_IOCont|
  00420	00000540	 DCD         0x540
  00424		 |$LN72@PMX_IOCont|
  00424	00000540	 DCD         0x540
  00428		 |$LN73@PMX_IOCont|
  00428	000002f0	 DCD         0x2f0
  0042c		 |$LN22@PMX_IOCont|

; 291  :         {
; 292  :         case IOCTL_PMX_LOADPOLICY:
; 293  :             if (pInstance->hPmxPolicy != NULL || pInBuffer == NULL) return FALSE;

  0042c	e59d3018	 ldr         r3, [sp, #0x18]
  00430	e2833008	 add         r3, r3, #8
  00434	e5933000	 ldr         r3, [r3]
  00438	e3530000	 cmp         r3, #0
  0043c	1a000002	 bne         |$LN20@PMX_IOCont|
  00440	e59d309c	 ldr         r3, [sp, #0x9C]
  00444	e3530000	 cmp         r3, #0
  00448	1a000002	 bne         |$LN21@PMX_IOCont|
  0044c		 |$LN20@PMX_IOCont|
  0044c	e3a03000	 mov         r3, #0
  00450	e58d3040	 str         r3, [sp, #0x40]
  00454	ea000136	 b           |$LN27@PMX_IOCont|
  00458		 |$LN21@PMX_IOCont|

; 294  :             pInstance->hPmxPolicy = PmxLoadPolicy(pInBuffer);

  00458	e59d009c	 ldr         r0, [sp, #0x9C]
  0045c	eb000000	 bl          PmxLoadPolicy
  00460	e58d0050	 str         r0, [sp, #0x50]
  00464	e59d3018	 ldr         r3, [sp, #0x18]
  00468	e2832008	 add         r2, r3, #8
  0046c	e59d3050	 ldr         r3, [sp, #0x50]
  00470	e5823000	 str         r3, [r2]

; 295  :             rc = pInstance->hPmxPolicy != NULL;

  00474	e59d3018	 ldr         r3, [sp, #0x18]
  00478	e2833008	 add         r3, r3, #8
  0047c	e5933000	 ldr         r3, [r3]
  00480	e3530000	 cmp         r3, #0
  00484	0a000002	 beq         |$LN33@PMX_IOCont|
  00488	e3a03001	 mov         r3, #1
  0048c	e58d3054	 str         r3, [sp, #0x54]
  00490	ea000001	 b           |$LN34@PMX_IOCont|
  00494		 |$LN33@PMX_IOCont|
  00494	e3a03000	 mov         r3, #0
  00498	e58d3054	 str         r3, [sp, #0x54]
  0049c		 |$LN34@PMX_IOCont|
  0049c	e59d3054	 ldr         r3, [sp, #0x54]
  004a0	e58d3010	 str         r3, [sp, #0x10]

; 296  :             break;

  004a4	ea000114	 b           |$LN23@PMX_IOCont|
  004a8		 |$LN19@PMX_IOCont|

; 297  : 
; 298  :         case IOCTL_PMX_OPENPOLICY:
; 299  :             if (pInstance->hPmxPolicy != NULL || pInBuffer == NULL) return FALSE;

  004a8	e59d3018	 ldr         r3, [sp, #0x18]
  004ac	e2833008	 add         r3, r3, #8
  004b0	e5933000	 ldr         r3, [r3]
  004b4	e3530000	 cmp         r3, #0
  004b8	1a000002	 bne         |$LN17@PMX_IOCont|
  004bc	e59d309c	 ldr         r3, [sp, #0x9C]
  004c0	e3530000	 cmp         r3, #0
  004c4	1a000002	 bne         |$LN18@PMX_IOCont|
  004c8		 |$LN17@PMX_IOCont|
  004c8	e3a03000	 mov         r3, #0
  004cc	e58d3040	 str         r3, [sp, #0x40]
  004d0	ea000117	 b           |$LN27@PMX_IOCont|
  004d4		 |$LN18@PMX_IOCont|

; 300  :             pInstance->hPmxPolicy = PmxOpenPolicy((LPCWSTR)pInBuffer);

  004d4	e59d009c	 ldr         r0, [sp, #0x9C]
  004d8	eb000000	 bl          PmxOpenPolicy
  004dc	e58d0058	 str         r0, [sp, #0x58]
  004e0	e59d3018	 ldr         r3, [sp, #0x18]
  004e4	e2832008	 add         r2, r3, #8
  004e8	e59d3058	 ldr         r3, [sp, #0x58]
  004ec	e5823000	 str         r3, [r2]

; 301  :             rc = pInstance->hPmxPolicy != NULL;

  004f0	e59d3018	 ldr         r3, [sp, #0x18]
  004f4	e2833008	 add         r3, r3, #8
  004f8	e5933000	 ldr         r3, [r3]
  004fc	e3530000	 cmp         r3, #0
  00500	0a000002	 beq         |$LN35@PMX_IOCont|
  00504	e3a03001	 mov         r3, #1
  00508	e58d305c	 str         r3, [sp, #0x5C]
  0050c	ea000001	 b           |$LN36@PMX_IOCont|
  00510		 |$LN35@PMX_IOCont|
  00510	e3a03000	 mov         r3, #0
  00514	e58d305c	 str         r3, [sp, #0x5C]
  00518		 |$LN36@PMX_IOCont|
  00518	e59d305c	 ldr         r3, [sp, #0x5C]
  0051c	e58d3010	 str         r3, [sp, #0x10]

; 302  :             break;

  00520	ea0000f5	 b           |$LN23@PMX_IOCont|
  00524		 |$LN16@PMX_IOCont|

; 303  : 
; 304  :         case IOCTL_PMX_CLOSEPOLICY:
; 305  :             if (pInstance->hPmxPolicy == NULL) return FALSE;

  00524	e59d3018	 ldr         r3, [sp, #0x18]
  00528	e2833008	 add         r3, r3, #8
  0052c	e5933000	 ldr         r3, [r3]
  00530	e3530000	 cmp         r3, #0
  00534	1a000002	 bne         |$LN15@PMX_IOCont|
  00538	e3a03000	 mov         r3, #0
  0053c	e58d3040	 str         r3, [sp, #0x40]
  00540	ea0000fb	 b           |$LN27@PMX_IOCont|
  00544		 |$LN15@PMX_IOCont|

; 306  :             PmxClosePolicy(pInstance->hPmxPolicy);

  00544	e59d3018	 ldr         r3, [sp, #0x18]
  00548	e2833008	 add         r3, r3, #8
  0054c	e5930000	 ldr         r0, [r3]
  00550	eb000000	 bl          PmxClosePolicy

; 307  :             pInstance->hPmxPolicy = NULL;

  00554	e59d3018	 ldr         r3, [sp, #0x18]
  00558	e2832008	 add         r2, r3, #8
  0055c	e3a03000	 mov         r3, #0
  00560	e5823000	 str         r3, [r2]

; 308  :             rc = TRUE;

  00564	e3a03001	 mov         r3, #1
  00568	e58d3010	 str         r3, [sp, #0x10]

; 309  :             break;

  0056c	ea0000e2	 b           |$LN23@PMX_IOCont|
  00570		 |$LN14@PMX_IOCont|

; 310  : 
; 311  :         case IOCTL_PMX_NOTIFYPOLICY:
; 312  :             if (pInstance->hPmxPolicy == NULL || pInBuffer == NULL) return FALSE;

  00570	e59d3018	 ldr         r3, [sp, #0x18]
  00574	e2833008	 add         r3, r3, #8
  00578	e5933000	 ldr         r3, [r3]
  0057c	e3530000	 cmp         r3, #0
  00580	0a000002	 beq         |$LN12@PMX_IOCont|
  00584	e59d309c	 ldr         r3, [sp, #0x9C]
  00588	e3530000	 cmp         r3, #0
  0058c	1a000002	 bne         |$LN13@PMX_IOCont|
  00590		 |$LN12@PMX_IOCont|
  00590	e3a03000	 mov         r3, #0
  00594	e58d3040	 str         r3, [sp, #0x40]
  00598	ea0000e5	 b           |$LN27@PMX_IOCont|
  0059c		 |$LN13@PMX_IOCont|

; 313  :             pPmxInfo = (IOCTL_PMX_PARAMETERS*)pInBuffer;

  0059c	e59d309c	 ldr         r3, [sp, #0x9C]
  005a0	e58d3014	 str         r3, [sp, #0x14]

; 314  :             tempPmxInfo.pvParam = MARSHAL_DATA_POINTER(pPmxInfo->pvParam,
; 315  :                                                        pPmxInfo->size,
; 316  :                                                        ARG_I_PTR
; 317  :                                                        );

  005a4	e3a02004	 mov         r2, #4
  005a8	e59d3014	 ldr         r3, [sp, #0x14]
  005ac	e2833010	 add         r3, r3, #0x10
  005b0	e5931000	 ldr         r1, [r3]
  005b4	e59d3014	 ldr         r3, [sp, #0x14]
  005b8	e283300c	 add         r3, r3, #0xC
  005bc	e5930000	 ldr         r0, [r3]
  005c0	eb000000	 bl          |?MarshalDataPointerHelper@@YAPAXPAXKK@Z|
  005c4	e58d0060	 str         r0, [sp, #0x60]
  005c8	e59d3060	 ldr         r3, [sp, #0x60]
  005cc	e58d3028	 str         r3, [sp, #0x28]

; 318  : 
; 319  :             rc = PmxNotifyPolicy(pInstance->hPmxPolicy,
; 320  :                                  pPmxInfo->msg,
; 321  :                                  tempPmxInfo.pvParam,
; 322  :                                  pPmxInfo->size
; 323  :                                  );

  005d0	e59d3014	 ldr         r3, [sp, #0x14]
  005d4	e2833010	 add         r3, r3, #0x10
  005d8	e5933000	 ldr         r3, [r3]
  005dc	e59d2028	 ldr         r2, [sp, #0x28]
  005e0	e59d1014	 ldr         r1, [sp, #0x14]
  005e4	e2811008	 add         r1, r1, #8
  005e8	e5911000	 ldr         r1, [r1]
  005ec	e59d0018	 ldr         r0, [sp, #0x18]
  005f0	e2800008	 add         r0, r0, #8
  005f4	e5900000	 ldr         r0, [r0]
  005f8	eb000000	 bl          PmxNotifyPolicy
  005fc	e58d0064	 str         r0, [sp, #0x64]
  00600	e59d3064	 ldr         r3, [sp, #0x64]
  00604	e58d3010	 str         r3, [sp, #0x10]

; 324  : 
; 325  :             UNMARSHAL_DATA_POINTER(tempPmxInfo.pvParam,
; 326  :                                    pPmxInfo->pvParam,
; 327  :                                    pPmxInfo->size,
; 328  :                                    ARG_I_PTR
; 329  :                                    );

  00608	e3a03004	 mov         r3, #4
  0060c	e59d2014	 ldr         r2, [sp, #0x14]
  00610	e2822010	 add         r2, r2, #0x10
  00614	e5922000	 ldr         r2, [r2]
  00618	e59d1014	 ldr         r1, [sp, #0x14]
  0061c	e281100c	 add         r1, r1, #0xC
  00620	e5911000	 ldr         r1, [r1]
  00624	e59d0028	 ldr         r0, [sp, #0x28]
  00628	eb000000	 bl          CeCloseCallerBuffer

; 330  :             break;

  0062c	ea0000b2	 b           |$LN23@PMX_IOCont|
  00630		 |$LN11@PMX_IOCont|

; 331  : 
; 332  :         case IOCTL_PMX_LOADCONSTRAINT:
; 333  :             if (pInstance->hPmxConstraint != NULL || pInBuffer == NULL) return FALSE;

  00630	e59d3018	 ldr         r3, [sp, #0x18]
  00634	e2833004	 add         r3, r3, #4
  00638	e5933000	 ldr         r3, [r3]
  0063c	e3530000	 cmp         r3, #0
  00640	1a000002	 bne         |$LN9@PMX_IOCont|
  00644	e59d309c	 ldr         r3, [sp, #0x9C]
  00648	e3530000	 cmp         r3, #0
  0064c	1a000002	 bne         |$LN10@PMX_IOCont|
  00650		 |$LN9@PMX_IOCont|
  00650	e3a03000	 mov         r3, #0
  00654	e58d3040	 str         r3, [sp, #0x40]
  00658	ea0000b5	 b           |$LN27@PMX_IOCont|
  0065c		 |$LN10@PMX_IOCont|

; 334  :             pInstance->hPmxConstraint = PmxLoadConstraint(pInBuffer);

  0065c	e59d009c	 ldr         r0, [sp, #0x9C]
  00660	eb000000	 bl          PmxLoadConstraint
  00664	e58d0068	 str         r0, [sp, #0x68]
  00668	e59d3018	 ldr         r3, [sp, #0x18]
  0066c	e2832004	 add         r2, r3, #4
  00670	e59d3068	 ldr         r3, [sp, #0x68]
  00674	e5823000	 str         r3, [r2]

; 335  :             rc = pInstance->hPmxConstraint != NULL;

  00678	e59d3018	 ldr         r3, [sp, #0x18]
  0067c	e2833004	 add         r3, r3, #4
  00680	e5933000	 ldr         r3, [r3]
  00684	e3530000	 cmp         r3, #0
  00688	0a000002	 beq         |$LN37@PMX_IOCont|
  0068c	e3a03001	 mov         r3, #1
  00690	e58d306c	 str         r3, [sp, #0x6C]
  00694	ea000001	 b           |$LN38@PMX_IOCont|
  00698		 |$LN37@PMX_IOCont|
  00698	e3a03000	 mov         r3, #0
  0069c	e58d306c	 str         r3, [sp, #0x6C]
  006a0		 |$LN38@PMX_IOCont|
  006a0	e59d306c	 ldr         r3, [sp, #0x6C]
  006a4	e58d3010	 str         r3, [sp, #0x10]

; 336  :             break;

  006a8	ea000093	 b           |$LN23@PMX_IOCont|
  006ac		 |$LN8@PMX_IOCont|

; 337  : 
; 338  :         case IOCTL_PMX_RELEASECONSTRAINT:
; 339  :             if (pInstance->hPmxConstraint == NULL) return FALSE;

  006ac	e59d3018	 ldr         r3, [sp, #0x18]
  006b0	e2833004	 add         r3, r3, #4
  006b4	e5933000	 ldr         r3, [r3]
  006b8	e3530000	 cmp         r3, #0
  006bc	1a000002	 bne         |$LN7@PMX_IOCont|
  006c0	e3a03000	 mov         r3, #0
  006c4	e58d3040	 str         r3, [sp, #0x40]
  006c8	ea000099	 b           |$LN27@PMX_IOCont|
  006cc		 |$LN7@PMX_IOCont|

; 340  :             PmxReleaseConstraint(pInstance->hPmxConstraint);

  006cc	e59d3018	 ldr         r3, [sp, #0x18]
  006d0	e2833004	 add         r3, r3, #4
  006d4	e5930000	 ldr         r0, [r3]
  006d8	eb000000	 bl          PmxReleaseConstraint

; 341  :             pInstance->hPmxConstraint = NULL;

  006dc	e59d3018	 ldr         r3, [sp, #0x18]
  006e0	e2832004	 add         r2, r3, #4
  006e4	e3a03000	 mov         r3, #0
  006e8	e5823000	 str         r3, [r2]

; 342  :             rc = TRUE;

  006ec	e3a03001	 mov         r3, #1
  006f0	e58d3010	 str         r3, [sp, #0x10]

; 343  :             break;

  006f4	ea000080	 b           |$LN23@PMX_IOCont|
  006f8		 |$LN6@PMX_IOCont|

; 344  : 
; 345  :         case IOCTL_PMX_SETCONSTRAINTBYID:
; 346  :             if (pInstance->hPmxConstraint != NULL || pInBuffer == NULL) return FALSE;

  006f8	e59d3018	 ldr         r3, [sp, #0x18]
  006fc	e2833004	 add         r3, r3, #4
  00700	e5933000	 ldr         r3, [r3]
  00704	e3530000	 cmp         r3, #0
  00708	1a000002	 bne         |$LN4@PMX_IOCont|
  0070c	e59d309c	 ldr         r3, [sp, #0x9C]
  00710	e3530000	 cmp         r3, #0
  00714	1a000002	 bne         |$LN5@PMX_IOCont|
  00718		 |$LN4@PMX_IOCont|
  00718	e3a03000	 mov         r3, #0
  0071c	e58d3040	 str         r3, [sp, #0x40]
  00720	ea000083	 b           |$LN27@PMX_IOCont|
  00724		 |$LN5@PMX_IOCont|

; 347  :             pPmxInfo = (IOCTL_PMX_PARAMETERS*)pInBuffer;

  00724	e59d309c	 ldr         r3, [sp, #0x9C]
  00728	e58d3014	 str         r3, [sp, #0x14]

; 348  :             tempPmxInfo.szId = (LPCWSTR)MARSHAL_DATA_POINTER(pPmxInfo->szId,
; 349  :                                                              (sizeof(WCHAR) * pPmxInfo->strlen),
; 350  :                                                              ARG_I_WSTR
; 351  :                                                              );

  0072c	e3a02005	 mov         r2, #5
  00730	e59d3014	 ldr         r3, [sp, #0x14]
  00734	e2833004	 add         r3, r3, #4
  00738	e5930000	 ldr         r0, [r3]
  0073c	e3a03002	 mov         r3, #2
  00740	e0010390	 mul         r1, r0, r3
  00744	e59d3014	 ldr         r3, [sp, #0x14]
  00748	e5930000	 ldr         r0, [r3]
  0074c	eb000000	 bl          |?MarshalDataPointerHelper@@YAPAXPAXKK@Z|
  00750	e58d0070	 str         r0, [sp, #0x70]
  00754	e59d3070	 ldr         r3, [sp, #0x70]
  00758	e58d301c	 str         r3, [sp, #0x1C]

; 352  : 
; 353  :             tempPmxInfo.pvParam = MARSHAL_DATA_POINTER(pPmxInfo->pvParam,
; 354  :                                                        pPmxInfo->size,
; 355  :                                                        ARG_I_PTR
; 356  :                                                        );

  0075c	e3a02004	 mov         r2, #4
  00760	e59d3014	 ldr         r3, [sp, #0x14]
  00764	e2833010	 add         r3, r3, #0x10
  00768	e5931000	 ldr         r1, [r3]
  0076c	e59d3014	 ldr         r3, [sp, #0x14]
  00770	e283300c	 add         r3, r3, #0xC
  00774	e5930000	 ldr         r0, [r3]
  00778	eb000000	 bl          |?MarshalDataPointerHelper@@YAPAXPAXKK@Z|
  0077c	e58d0074	 str         r0, [sp, #0x74]
  00780	e59d3074	 ldr         r3, [sp, #0x74]
  00784	e58d3028	 str         r3, [sp, #0x28]

; 357  : 
; 358  :             pInstance->hPmxConstraint = PmxSetConstraintById(tempPmxInfo.szId,
; 359  :                                                              pPmxInfo->msg,
; 360  :                                                              tempPmxInfo.pvParam,
; 361  :                                                              pPmxInfo->size
; 362  :                                                              );

  00788	e59d3014	 ldr         r3, [sp, #0x14]
  0078c	e2833010	 add         r3, r3, #0x10
  00790	e5933000	 ldr         r3, [r3]
  00794	e59d2028	 ldr         r2, [sp, #0x28]
  00798	e59d1014	 ldr         r1, [sp, #0x14]
  0079c	e2811008	 add         r1, r1, #8
  007a0	e5911000	 ldr         r1, [r1]
  007a4	e59d001c	 ldr         r0, [sp, #0x1C]
  007a8	eb000000	 bl          PmxSetConstraintById
  007ac	e58d0078	 str         r0, [sp, #0x78]
  007b0	e59d3018	 ldr         r3, [sp, #0x18]
  007b4	e2832004	 add         r2, r3, #4
  007b8	e59d3078	 ldr         r3, [sp, #0x78]
  007bc	e5823000	 str         r3, [r2]

; 363  :             UNMARSHAL_DATA_POINTER(tempPmxInfo.pvParam,
; 364  :                                    pPmxInfo->pvParam,
; 365  :                                    pPmxInfo->size,
; 366  :                                    ARG_I_PTR
; 367  :                                    );

  007c0	e3a03004	 mov         r3, #4
  007c4	e59d2014	 ldr         r2, [sp, #0x14]
  007c8	e2822010	 add         r2, r2, #0x10
  007cc	e5922000	 ldr         r2, [r2]
  007d0	e59d1014	 ldr         r1, [sp, #0x14]
  007d4	e281100c	 add         r1, r1, #0xC
  007d8	e5911000	 ldr         r1, [r1]
  007dc	e59d0028	 ldr         r0, [sp, #0x28]
  007e0	eb000000	 bl          CeCloseCallerBuffer

; 368  : 
; 369  :             UNMARSHAL_DATA_POINTER(tempPmxInfo.szId,
; 370  :                                    pPmxInfo->szId,
; 371  :                                    (sizeof(WCHAR) * pPmxInfo->strlen),
; 372  :                                    ARG_I_WSTR
; 373  :                                    );

  007e4	e3a03005	 mov         r3, #5
  007e8	e59d2014	 ldr         r2, [sp, #0x14]
  007ec	e2822004	 add         r2, r2, #4
  007f0	e5921000	 ldr         r1, [r2]
  007f4	e3a02002	 mov         r2, #2
  007f8	e0020291	 mul         r2, r1, r2
  007fc	e59d1014	 ldr         r1, [sp, #0x14]
  00800	e5911000	 ldr         r1, [r1]
  00804	e59d001c	 ldr         r0, [sp, #0x1C]
  00808	eb000000	 bl          CeCloseCallerBuffer

; 374  : 
; 375  :             rc = pInstance->hPmxConstraint != NULL;

  0080c	e59d3018	 ldr         r3, [sp, #0x18]
  00810	e2833004	 add         r3, r3, #4
  00814	e5933000	 ldr         r3, [r3]
  00818	e3530000	 cmp         r3, #0
  0081c	0a000002	 beq         |$LN39@PMX_IOCont|
  00820	e3a03001	 mov         r3, #1
  00824	e58d307c	 str         r3, [sp, #0x7C]
  00828	ea000001	 b           |$LN40@PMX_IOCont|
  0082c		 |$LN39@PMX_IOCont|
  0082c	e3a03000	 mov         r3, #0
  00830	e58d307c	 str         r3, [sp, #0x7C]
  00834		 |$LN40@PMX_IOCont|
  00834	e59d307c	 ldr         r3, [sp, #0x7C]
  00838	e58d3010	 str         r3, [sp, #0x10]

; 376  :             break;

  0083c	ea00002e	 b           |$LN23@PMX_IOCont|
  00840		 |$LN3@PMX_IOCont|

; 377  : 
; 378  :         case IOCTL_PMX_UPDATECONSTRAINT:
; 379  :             if (pInstance->hPmxConstraint == NULL || pInBuffer == NULL) return FALSE;

  00840	e59d3018	 ldr         r3, [sp, #0x18]
  00844	e2833004	 add         r3, r3, #4
  00848	e5933000	 ldr         r3, [r3]
  0084c	e3530000	 cmp         r3, #0
  00850	0a000002	 beq         |$LN1@PMX_IOCont|
  00854	e59d309c	 ldr         r3, [sp, #0x9C]
  00858	e3530000	 cmp         r3, #0
  0085c	1a000002	 bne         |$LN2@PMX_IOCont|
  00860		 |$LN1@PMX_IOCont|
  00860	e3a03000	 mov         r3, #0
  00864	e58d3040	 str         r3, [sp, #0x40]
  00868	ea000031	 b           |$LN27@PMX_IOCont|
  0086c		 |$LN2@PMX_IOCont|

; 380  :             pPmxInfo = (IOCTL_PMX_PARAMETERS*)pInBuffer;

  0086c	e59d309c	 ldr         r3, [sp, #0x9C]
  00870	e58d3014	 str         r3, [sp, #0x14]

; 381  : 
; 382  :             tempPmxInfo.pvParam = MARSHAL_DATA_POINTER(pPmxInfo->pvParam,
; 383  :                                                        pPmxInfo->size,
; 384  :                                                        ARG_I_PTR
; 385  :                                                        );

  00874	e3a02004	 mov         r2, #4
  00878	e59d3014	 ldr         r3, [sp, #0x14]
  0087c	e2833010	 add         r3, r3, #0x10
  00880	e5931000	 ldr         r1, [r3]
  00884	e59d3014	 ldr         r3, [sp, #0x14]
  00888	e283300c	 add         r3, r3, #0xC
  0088c	e5930000	 ldr         r0, [r3]
  00890	eb000000	 bl          |?MarshalDataPointerHelper@@YAPAXPAXKK@Z|
  00894	e58d0080	 str         r0, [sp, #0x80]
  00898	e59d3080	 ldr         r3, [sp, #0x80]
  0089c	e58d3028	 str         r3, [sp, #0x28]

; 386  :             rc = PmxUpdateConstraint(pInstance->hPmxConstraint,
; 387  :                                      pPmxInfo->msg,
; 388  :                                      tempPmxInfo.pvParam,
; 389  :                                      pPmxInfo->size);

  008a0	e59d3014	 ldr         r3, [sp, #0x14]
  008a4	e2833010	 add         r3, r3, #0x10
  008a8	e5933000	 ldr         r3, [r3]
  008ac	e59d2028	 ldr         r2, [sp, #0x28]
  008b0	e59d1014	 ldr         r1, [sp, #0x14]
  008b4	e2811008	 add         r1, r1, #8
  008b8	e5911000	 ldr         r1, [r1]
  008bc	e59d0018	 ldr         r0, [sp, #0x18]
  008c0	e2800004	 add         r0, r0, #4
  008c4	e5900000	 ldr         r0, [r0]
  008c8	eb000000	 bl          PmxUpdateConstraint
  008cc	e58d0084	 str         r0, [sp, #0x84]
  008d0	e59d3084	 ldr         r3, [sp, #0x84]
  008d4	e58d3010	 str         r3, [sp, #0x10]

; 390  : 
; 391  :             UNMARSHAL_DATA_POINTER(tempPmxInfo.pvParam,
; 392  :                                    pPmxInfo->pvParam,
; 393  :                                    pPmxInfo->size,
; 394  :                                    ARG_I_PTR
; 395  :                                    );

  008d8	e3a03004	 mov         r3, #4
  008dc	e59d2014	 ldr         r2, [sp, #0x14]
  008e0	e2822010	 add         r2, r2, #0x10
  008e4	e5922000	 ldr         r2, [r2]
  008e8	e59d1014	 ldr         r1, [sp, #0x14]
  008ec	e281100c	 add         r1, r1, #0xC
  008f0	e5911000	 ldr         r1, [r1]
  008f4	e59d0028	 ldr         r0, [sp, #0x28]
  008f8	eb000000	 bl          CeCloseCallerBuffer
  008fc		 |$LN23@PMX_IOCont|
  008fc		 |$LN25@PMX_IOCont|
  008fc		 |$cleanUp$36721|

; 396  :             break;
; 397  :         }
; 398  : 
; 399  : cleanUp:
; 400  : 
; 401  :     RETAILMSG(ZONE_FUNCTION, (L"-PMX_IOControl(rc = %d)\r\n", rc));

  008fc	e59f3044	 ldr         r3, [pc, #0x44]
  00900	e5933440	 ldr         r3, [r3, #0x440]
  00904	e3130004	 tst         r3, #4
  00908	0a000005	 beq         |$LN41@PMX_IOCont|
  0090c	e59d1010	 ldr         r1, [sp, #0x10]
  00910	e59f002c	 ldr         r0, [pc, #0x2C]
  00914	eb000000	 bl          NKDbgPrintfW
  00918	e3a03001	 mov         r3, #1
  0091c	e58d3088	 str         r3, [sp, #0x88]
  00920	ea000001	 b           |$LN42@PMX_IOCont|
  00924		 |$LN41@PMX_IOCont|
  00924	e3a03000	 mov         r3, #0
  00928	e58d3088	 str         r3, [sp, #0x88]
  0092c		 |$LN42@PMX_IOCont|

; 402  :     return rc;

  0092c	e59d3010	 ldr         r3, [sp, #0x10]
  00930	e58d3040	 str         r3, [sp, #0x40]
  00934		 |$LN27@PMX_IOCont|

; 403  : }

  00934	e59d0040	 ldr         r0, [sp, #0x40]
  00938	e28dd08c	 add         sp, sp, #0x8C
  0093c	e89d6000	 ldmia       sp, {sp, lr}
  00940	e12fff1e	 bx          lr
  00944		 |$LN77@PMX_IOCont|
  00944		 |$LN78@PMX_IOCont|
  00944	00000000	 DCD         |??_C@_1DE@LFMFHMDF@?$AA?9?$AAP?$AAM?$AAX?$AA_?$AAI?$AAO?$AAC?$AAo?$AAn?$AAt?$AAr?$AAo?$AAl?$AA?$CI?$AAr?$AAc?$AA?5?$AA?$DN?$AA?5?$AA?$CF?$AAd?$AA?$CJ?$AA?$AN?$AA?6?$AA?$AA@|
  00948		 |$LN79@PMX_IOCont|
  00948	00000000	 DCD         |dpCurSettings|
  0094c		 |$LN80@PMX_IOCont|
  0094c	00000000	 DCD         |??_C@_1GI@MNPCBNEO@?$AAE?$AAR?$AAR?$AAO?$AAR?$AA?3?$AA?5?$AAP?$AAM?$AAX?$AA_?$AAI?$AAO?$AAC?$AAo?$AAn?$AAt?$AAr?$AAo?$AAl?$AA?3?$AA?5?$AAI?$AAn?$AAc?$AAo?$AAr?$AAr?$AAe?$AAc?$AAt?$AA?5@|
  00950		 |$LN81@PMX_IOCont|
  00950	00000000	 DCD         |??_C@_1IC@JKHIBKFA@?$AA?$CL?$AAP?$AAM?$AAX?$AA_?$AAI?$AAO?$AAC?$AAo?$AAn?$AAt?$AAr?$AAo?$AAl?$AA?$CI?$AA0?$AAx?$AA?$CF?$AA0?$AA8?$AAx?$AA?0?$AA?5?$AA0?$AAx?$AA?$CF?$AA0?$AA8?$AAx?$AA?0?$AA?5?$AA0@|
  00954		 |$M36922|

			 ENDP  ; |?PMX_IOControl@@YAHKKPAXK0KPAK@Z|, PMX_IOControl

	IMPORT	|CeOpenCallerBuffer|

  00000			 AREA	 |.pdata|, PDATA
|$T36936| DCD	|$LN6@MarshalDat|
	DCD	0x40001a04
; Function compile flags: /Odtp

  00000			 AREA	 |.text|, CODE, ARM

  00000		 |?MarshalDataPointerHelper@@YAPAXPAXKK@Z| PROC ; MarshalDataPointerHelper

; 85   : {

  00000		 |$LN6@MarshalDat|
  00000	e1a0c00d	 mov         r12, sp
  00004	e92d0007	 stmdb       sp!, {r0 - r2}
  00008	e92d5000	 stmdb       sp!, {r12, lr}
  0000c	e24dd018	 sub         sp, sp, #0x18
  00010		 |$M36933|

; 86   :     HRESULT hr;
; 87   :     void* pDestMarshalled;
; 88   : 
; 89   :     hr = CeOpenCallerBuffer(&pDestMarshalled, pSrcUnmarshalled, cbSrc, desc, FALSE);

  00010	e3a03000	 mov         r3, #0
  00014	e58d3000	 str         r3, [sp]
  00018	e59d3028	 ldr         r3, [sp, #0x28]
  0001c	e59d2024	 ldr         r2, [sp, #0x24]
  00020	e59d1020	 ldr         r1, [sp, #0x20]
  00024	e28d0004	 add         r0, sp, #4
  00028	eb000000	 bl          CeOpenCallerBuffer
  0002c	e58d0014	 str         r0, [sp, #0x14]
  00030	e59d3014	 ldr         r3, [sp, #0x14]
  00034	e58d3008	 str         r3, [sp, #8]

; 90   :     if (FAILED(hr))

  00038	e59d3008	 ldr         r3, [sp, #8]
  0003c	e3530000	 cmp         r3, #0
  00040	aa000002	 bge         |$LN1@MarshalDat|

; 91   :         return NULL;

  00044	e3a03000	 mov         r3, #0
  00048	e58d3010	 str         r3, [sp, #0x10]
  0004c	ea000001	 b           |$LN2@MarshalDat|
  00050		 |$LN1@MarshalDat|

; 92   : 
; 93   :     return pDestMarshalled;

  00050	e59d3004	 ldr         r3, [sp, #4]
  00054	e58d3010	 str         r3, [sp, #0x10]
  00058		 |$LN2@MarshalDat|

; 94   : }

  00058	e59d0010	 ldr         r0, [sp, #0x10]
  0005c	e28dd018	 add         sp, sp, #0x18
  00060	e89d6000	 ldmia       sp, {sp, lr}
  00064	e12fff1e	 bx          lr
  00068		 |$M36934|

			 ENDP  ; |?MarshalDataPointerHelper@@YAPAXPAXKK@Z|, MarshalDataPointerHelper

	EXPORT	|DllMain|
	IMPORT	|DisableThreadLibraryCalls|
	IMPORT	|RegisterDbgZones|

  00028			 AREA	 |.pdata|, PDATA
|$T36944| DCD	|$LN8@DllMain|
	DCD	0x40001404
; Function compile flags: /Odtp

  00954			 AREA	 |.text|, CODE, ARM

  00954		 |DllMain| PROC

; 412  : {

  00954		 |$LN8@DllMain|
  00954	e1a0c00d	 mov         r12, sp
  00958	e92d0007	 stmdb       sp!, {r0 - r2}
  0095c	e92d5000	 stmdb       sp!, {r12, lr}
  00960	e24dd004	 sub         sp, sp, #4
  00964		 |$M36941|

; 413  :     UNREFERENCED_PARAMETER(Reserved);
; 414  :     switch(Reason)

  00964	e59d3010	 ldr         r3, [sp, #0x10]
  00968	e3530001	 cmp         r3, #1
  0096c	0a000000	 beq         |$LN1@DllMain|
  00970	ea000004	 b           |$LN2@DllMain|
  00974		 |$LN1@DllMain|

; 415  :         {
; 416  :         case DLL_PROCESS_ATTACH:
; 417  :             RETAILREGISTERZONES((HMODULE)hDLL);

  00974	e59f1024	 ldr         r1, [pc, #0x24]
  00978	e59d000c	 ldr         r0, [sp, #0xC]
  0097c	eb000000	 bl          RegisterDbgZones

; 418  :             DisableThreadLibraryCalls((HMODULE)hDLL);

  00980	e59d000c	 ldr         r0, [sp, #0xC]
  00984	eb000000	 bl          DisableThreadLibraryCalls
  00988		 |$LN2@DllMain|

; 419  :             break;
; 420  :         }
; 421  :     return TRUE;

  00988	e3a03001	 mov         r3, #1
  0098c	e58d3000	 str         r3, [sp]

; 422  : }

  00990	e59d0000	 ldr         r0, [sp]
  00994	e28dd004	 add         sp, sp, #4
  00998	e89d6000	 ldmia       sp, {sp, lr}
  0099c	e12fff1e	 bx          lr
  009a0		 |$LN9@DllMain|
  009a0		 |$LN10@DllMain|
  009a0	00000000	 DCD         |dpCurSettings|
  009a4		 |$M36942|

			 ENDP  ; |DllMain|

	END
