; Listing generated by Microsoft (R) Optimizing Compiler Version 14.01.60511.01 

	TTL	C:\WINCE600\PLATFORM\Z2170P\SRC\BOOTLOADER\DISPLAY\graphic_engine.cpp
	CODE32

  00000			 AREA	 |.drectve|, DRECTVE
	DCB	"-defaultlib:LIBCMT "
	DCB	"-defaultlib:OLDNAMES "

	EXPORT	|?PANEL_WIDTH@@3IA| [ DATA ]		; PANEL_WIDTH
	EXPORT	|?PANEL_HEIGHT@@3IA| [ DATA ]		; PANEL_HEIGHT

  00000			 AREA	 |.bss|, NOINIT
|g_nHeight| %	0x4
|g_nWidth| %	0x4
|g_nColMax| %	0x4
|g_nRowMax| %	0x4
|g_wBkColor| %	0x4
|g_dwFrameBuffer| % 0x4
|cur_row| %	0x4
|cur_col| %	0x4

  00000			 AREA	 |.rdata|, DATA, READONLY
|asciiFont| DCB	0x0
	DCB	0x0
	DCB	0x0
	DCB	0x0
	DCB	0x0
	DCB	0x0
	DCB	0x0
	DCB	0x0
	DCB	0x0
	DCB	0x0
	DCB	0x0
	DCB	0x0
	DCB	0x0
	DCB	0x0
	DCB	0x0
	DCB	0x0
	DCB	0x0
	DCB	0x0
	DCB	0x0
	DCB	0x0
	DCB	0x0
	DCB	0x0
	DCB	0x0
	DCB	0x0
	DCB	0x0
	DCB	0x0
	DCB	0x0
	DCB	0x0
	DCB	0x0
	DCB	0x0
	DCB	0x0
	DCB	0x0
	DCB	0x0
	DCB	0x0
	DCB	0x0
	DCB	0x0
	DCB	0x0
	DCB	0x0
	DCB	0x0
	DCB	0x0
	DCB	0x0
	DCB	0x0
	DCB	0x0
	DCB	0x0
	DCB	0x0
	DCB	0x0
	DCB	0x0
	DCB	0x0
	DCB	0x0
	DCB	0x0
	DCB	0x0
	DCB	0x0
	DCB	0x0
	DCB	0x0
	DCB	0x0
	DCB	0x0
	DCB	0x0
	DCB	0x0
	DCB	0x0
	DCB	0x0
	DCB	0x0
	DCB	0x0
	DCB	0x0
	DCB	0x0
	DCB	0x0
	DCB	0x0
	DCB	0x0
	DCB	0x0
	DCB	0x0
	DCB	0x0
	DCB	0x0
	DCB	0x0
	DCB	0x0
	DCB	0x0
	DCB	0x0
	DCB	0x0
	DCB	0x0
	DCB	0x0
	DCB	0x0
	DCB	0x0
	DCB	0x0
	DCB	0x0
	DCB	0x0
	DCB	0x0
	DCB	0x0
	DCB	0x0
	DCB	0x0
	DCB	0x0
	DCB	0x0
	DCB	0x0
	DCB	0x0
	DCB	0x0
	DCB	0x0
	DCB	0x0
	DCB	0x0
	DCB	0x0
	DCB	0x0
	DCB	0x0
	DCB	0x0
	DCB	0x0
	DCB	0x0
	DCB	0x0
	DCB	0x0
	DCB	0x0
	DCB	0x0
	DCB	0x0
	DCB	0x0
	DCB	0x0
	DCB	0x0
	DCB	0x0
	DCB	0x0
	DCB	0x0
	DCB	0x0
	DCB	0x0
	DCB	0x0
	DCB	0x0
	DCB	0x0
	DCB	0x0
	DCB	0x0
	DCB	0x0
	DCB	0x0
	DCB	0x0
	DCB	0x0
	DCB	0x0
	DCB	0x0
	DCB	0x0
	DCB	0x0
	DCB	0x0
	DCB	0x0
	DCB	0x0
	DCB	0x0
	DCB	0x0
	DCB	0x0
	DCB	0x0
	DCB	0x0
	DCB	0x0
	DCB	0x0
	DCB	0x0
	DCB	0x0
	DCB	0x0
	DCB	0x0
	DCB	0x0
	DCB	0x0
	DCB	0x0
	DCB	0x0
	DCB	0x0
	DCB	0x0
	DCB	0x0
	DCB	0x0
	DCB	0x0
	DCB	0x0
	DCB	0x0
	DCB	0x0
	DCB	0x0
	DCB	0x0
	DCB	0x0
	DCB	0x0
	DCB	0x0
	DCB	0x0
	DCB	0x0
	DCB	0x0
	DCB	0x0
	DCB	0x0
	DCB	0x0
	DCB	0x0
	DCB	0x0
	DCB	0x0
	DCB	0x0
	DCB	0x0
	DCB	0x0
	DCB	0x0
	DCB	0x0
	DCB	0x0
	DCB	0x0
	DCB	0x0
	DCB	0x0
	DCB	0x0
	DCB	0x0
	DCB	0x0
	DCB	0x0
	DCB	0x0
	DCB	0x0
	DCB	0x0
	DCB	0x0
	DCB	0x0
	DCB	0x0
	DCB	0x0
	DCB	0x0
	DCB	0x0
	DCB	0x0
	DCB	0x0
	DCB	0x0
	DCB	0x0
	DCB	0x0
	DCB	0x0
	DCB	0x0
	DCB	0x0
	DCB	0x0
	DCB	0x0
	DCB	0x0
	DCB	0x0
	DCB	0x0
	DCB	0x0
	DCB	0x0
	DCB	0x0
	DCB	0x0
	DCB	0x0
	DCB	0x0
	DCB	0x0
	DCB	0x0
	DCB	0x0
	DCB	0x0
	DCB	0x0
	DCB	0x0
	DCB	0x0
	DCB	0x0
	DCB	0x0
	DCB	0x0
	DCB	0x0
	DCB	0x0
	DCB	0x0
	DCB	0x0
	DCB	0x0
	DCB	0x0
	DCB	0x0
	DCB	0x0
	DCB	0x0
	DCB	0x0
	DCB	0x0
	DCB	0x0
	DCB	0x0
	DCB	0x0
	DCB	0x0
	DCB	0x0
	DCB	0x0
	DCB	0x0
	DCB	0x0
	DCB	0x0
	DCB	0x0
	DCB	0x0
	DCB	0x0
	DCB	0x0
	DCB	0x0
	DCB	0x0
	DCB	0x0
	DCB	0x0
	DCB	0x0
	DCB	0x0
	DCB	0x0
	DCB	0x0
	DCB	0x0
	DCB	0x0
	DCB	0x0
	DCB	0x0
	DCB	0x0
	DCB	0x0
	DCB	0x0
	DCB	0x0
	DCB	0x0
	DCB	0x0
	DCB	0x0
	DCB	0x0
	DCB	0x0
	DCB	0x0
	DCB	0x0
	DCB	0x0
	DCB	0x0
	DCB	0x0
	DCB	0x0
	DCB	0x0
	DCB	0x0
	DCB	0x0
	DCB	0x0
	DCB	0x0
	DCB	0x0
	DCB	0x0
	DCB	0x0
	DCB	0x0
	DCB	0x0
	DCB	0x0
	DCB	0x0
	DCB	0x0
	DCB	0x0
	DCB	0x0
	DCB	0x0
	DCB	0x0
	DCB	0x0
	DCB	0x0
	DCB	0x0
	DCB	0x0
	DCB	0x0
	DCB	0x0
	DCB	0x0
	DCB	0x0
	DCB	0x0
	DCB	0x0
	DCB	0x0
	DCB	0x0
	DCB	0x0
	DCB	0x0
	DCB	0x0
	DCB	0x0
	DCB	0x0
	DCB	0x0
	DCB	0x0
	DCB	0x0
	DCB	0x0
	DCB	0x0
	DCB	0x0
	DCB	0x0
	DCB	0x0
	DCB	0x0
	DCB	0x0
	DCB	0x0
	DCB	0x0
	DCB	0x0
	DCB	0x0
	DCB	0x0
	DCB	0x0
	DCB	0x0
	DCB	0x0
	DCB	0x0
	DCB	0x0
	DCB	0x0
	DCB	0x0
	DCB	0x0
	DCB	0x0
	DCB	0x0
	DCB	0x0
	DCB	0x0
	DCB	0x0
	DCB	0x0
	DCB	0x0
	DCB	0x0
	DCB	0x0
	DCB	0x0
	DCB	0x0
	DCB	0x0
	DCB	0x0
	DCB	0x0
	DCB	0x0
	DCB	0x0
	DCB	0x0
	DCB	0x0
	DCB	0x0
	DCB	0x0
	DCB	0x0
	DCB	0x0
	DCB	0x0
	DCB	0x0
	DCB	0x0
	DCB	0x0
	DCB	0x0
	DCB	0x0
	DCB	0x0
	DCB	0x0
	DCB	0x0
	DCB	0x0
	DCB	0x0
	DCB	0x0
	DCB	0x0
	DCB	0x0
	DCB	0x0
	DCB	0x0
	DCB	0x0
	DCB	0x0
	DCB	0x0
	DCB	0x0
	DCB	0x0
	DCB	0x0
	DCB	0x0
	DCB	0x0
	DCB	0x0
	DCB	0x0
	DCB	0x0
	DCB	0x0
	DCB	0x0
	DCB	0x0
	DCB	0x0
	DCB	0x0
	DCB	0x0
	DCB	0x0
	DCB	0x0
	DCB	0x0
	DCB	0x0
	DCB	0x0
	DCB	0x0
	DCB	0x0
	DCB	0x0
	DCB	0x0
	DCB	0x0
	DCB	0x0
	DCB	0x0
	DCB	0x0
	DCB	0x0
	DCB	0x0
	DCB	0x0
	DCB	0x0
	DCB	0x0
	DCB	0x0
	DCB	0x0
	DCB	0x0
	DCB	0x0
	DCB	0x0
	DCB	0x0
	DCB	0x0
	DCB	0x0
	DCB	0x0
	DCB	0x0
	DCB	0x0
	DCB	0x0
	DCB	0x0
	DCB	0x0
	DCB	0x0
	DCB	0x0
	DCB	0x0
	DCB	0x0
	DCB	0x0
	DCB	0x0
	DCB	0x0
	DCB	0x0
	DCB	0x0
	DCB	0x0
	DCB	0x0
	DCB	0x0
	DCB	0x0
	DCB	0x0
	DCB	0x0
	DCB	0x0
	DCB	0x0
	DCB	0x0
	DCB	0x0
	DCB	0x0
	DCB	0x0
	DCB	0x0
	DCB	0x0
	DCB	0x0
	DCB	0x0
	DCB	0x0
	DCB	0x0
	DCB	0x0
	DCB	0x0
	DCB	0x0
	DCB	0x0
	DCB	0x0
	DCB	0x0
	DCB	0x0
	DCB	0x0
	DCB	0x0
	DCB	0x0
	DCB	0x0
	DCB	0x0
	DCB	0x0
	DCB	0x0
	DCB	0x0
	DCB	0x0
	DCB	0x0
	DCB	0x0
	DCB	0x0
	DCB	0x0
	DCB	0x0
	DCB	0x0
	DCB	0x0
	DCB	0x0
	DCB	0x0
	DCB	0x0
	DCB	0x0
	DCB	0x0
	DCB	0x0
	DCB	0x0
	DCB	0x0
	DCB	0x0
	DCB	0x0
	DCB	0x0
	DCB	0x0
	DCB	0x0
	DCB	0x0
	DCB	0x0
	DCB	0x0
	DCB	0x0
	DCB	0x0
	DCB	0x0
	DCB	0x0
	DCB	0x0
	DCB	0x0
	DCB	0x0
	DCB	0x0
	DCB	0x0
	DCB	0x0
	DCB	0x0
	DCB	0x0
	DCB	0x0
	DCB	0x0
	DCB	0x0
	DCB	0x0
	DCB	0x0
	DCB	0x0
	DCB	0x0
	DCB	0x0
	DCB	0x0
	DCB	0x0
	DCB	0x0
	DCB	0x0
	DCB	0x0
	DCB	0x0
	DCB	0x0
	DCB	0x0
	DCB	0x0
	DCB	0x0
	DCB	0x0
	DCB	0x0
	DCB	0x0
	DCB	0x0
	DCB	0x0
	DCB	0x0
	DCB	0x0
	DCB	0x0
	DCB	0x0
	DCB	0x0
	DCB	0x0
	DCB	0x0
	DCB	0x0
	DCB	0x0
	DCB	0x0
	DCB	0x0
	DCB	0x0
	DCB	0x0
	DCB	0x0
	DCB	0x0
	DCB	0x0
	DCB	0x0
	DCB	0x18
	DCB	0x3c
	DCB	0x3c
	DCB	0x3c
	DCB	0x18
	DCB	0x18
	DCB	0x0
	DCB	0x18
	DCB	0x18
	DCB	0x0
	DCB	0x0
	DCB	0x0
	DCB	0x0
	DCB	0x0
	DCB	0x0
	DCB	0x0
	DCB	0x66
	DCB	0x66
	DCB	0x66
	DCB	0x0
	DCB	0x0
	DCB	0x0
	DCB	0x0
	DCB	0x0
	DCB	0x0
	DCB	0x0
	DCB	0x0
	DCB	0x0
	DCB	0x0
	DCB	0x0
	DCB	0x0
	DCB	0x0
	DCB	0x36
	DCB	0x36
	DCB	0x7f
	DCB	0x36
	DCB	0x36
	DCB	0x36
	DCB	0x7f
	DCB	0x36
	DCB	0x36
	DCB	0x0
	DCB	0x0
	DCB	0x0
	DCB	0x0
	DCB	0x0
	DCB	0x18
	DCB	0x18
	DCB	0x3c
	DCB	0x66
	DCB	0x60
	DCB	0x30
	DCB	0x18
	DCB	0xc
	DCB	0x6
	DCB	0x66
	DCB	0x3c
	DCB	0x18
	DCB	0x18
	DCB	0x0
	DCB	0x0
	DCB	0x0
	DCB	0x0
	DCB	0x70
	DCB	0xd8
	DCB	0xda
	DCB	0x76
	DCB	0xc
	DCB	0x18
	DCB	0x30
	DCB	0x6e
	DCB	0x5b
	DCB	0x1b
	DCB	0xe
	DCB	0x0
	DCB	0x0
	DCB	0x0
	DCB	0x0
	DCB	0x0
	DCB	0x70
	DCB	0xd0
	DCB	0xd0
	DCB	0x70
	DCB	0x0
	DCB	0x10
	DCB	0x30
	DCB	0x60
	DCB	0x50
	DCB	0x10
	DCB	0x0
	DCB	0x0
	DCB	0x0
	DCB	0x0
	DCB	0x0
	DCB	0x0
	DCB	0x0
	DCB	0x18
	DCB	0x18
	DCB	0x18
	DCB	0x0
	DCB	0x0
	DCB	0x0
	DCB	0x0
	DCB	0x0
	DCB	0x0
	DCB	0x0
	DCB	0x0
	DCB	0x0
	DCB	0x0
	DCB	0x0
	DCB	0x0
	DCB	0x0
	DCB	0xc
	DCB	0x18
	DCB	0x18
	DCB	0x30
	DCB	0x30
	DCB	0x30
	DCB	0x30
	DCB	0x30
	DCB	0x18
	DCB	0x18
	DCB	0xc
	DCB	0x0
	DCB	0x0
	DCB	0x0
	DCB	0x0
	DCB	0x0
	DCB	0x30
	DCB	0x18
	DCB	0x18
	DCB	0xc
	DCB	0xc
	DCB	0xc
	DCB	0xc
	DCB	0xc
	DCB	0x18
	DCB	0x18
	DCB	0x30
	DCB	0x0
	DCB	0x0
	DCB	0x0
	DCB	0x0
	DCB	0x0
	DCB	0x0
	DCB	0x0
	DCB	0x36
	DCB	0x1c
	DCB	0x7f
	DCB	0x1c
	DCB	0x36
	DCB	0x0
	DCB	0x0
	DCB	0x0
	DCB	0x0
	DCB	0x0
	DCB	0x0
	DCB	0x0
	DCB	0x0
	DCB	0x0
	DCB	0x0
	DCB	0x0
	DCB	0x18
	DCB	0x18
	DCB	0x7e
	DCB	0x18
	DCB	0x18
	DCB	0x0
	DCB	0x0
	DCB	0x0
	DCB	0x0
	DCB	0x0
	DCB	0x0
	DCB	0x0
	DCB	0x0
	DCB	0x0
	DCB	0x0
	DCB	0x0
	DCB	0x0
	DCB	0x0
	DCB	0x0
	DCB	0x0
	DCB	0x0
	DCB	0x1c
	DCB	0x1c
	DCB	0xc
	DCB	0x18
	DCB	0x0
	DCB	0x0
	DCB	0x0
	DCB	0x0
	DCB	0x0
	DCB	0x0
	DCB	0x0
	DCB	0x0
	DCB	0x0
	DCB	0x7e
	DCB	0x0
	DCB	0x0
	DCB	0x0
	DCB	0x0
	DCB	0x0
	DCB	0x0
	DCB	0x0
	DCB	0x0
	DCB	0x0
	DCB	0x0
	DCB	0x0
	DCB	0x0
	DCB	0x0
	DCB	0x0
	DCB	0x0
	DCB	0x0
	DCB	0x0
	DCB	0x0
	DCB	0x1c
	DCB	0x1c
	DCB	0x0
	DCB	0x0
	DCB	0x0
	DCB	0x0
	DCB	0x0
	DCB	0x0
	DCB	0x0
	DCB	0x6
	DCB	0x6
	DCB	0xc
	DCB	0xc
	DCB	0x18
	DCB	0x18
	DCB	0x30
	DCB	0x30
	DCB	0x60
	DCB	0x60
	DCB	0x0
	DCB	0x0
	DCB	0x0
	DCB	0x0
	DCB	0x0
	DCB	0x0
	DCB	0x1e
	DCB	0x33
	DCB	0x37
	DCB	0x37
	DCB	0x33
	DCB	0x3b
	DCB	0x3b
	DCB	0x33
	DCB	0x1e
	DCB	0x0
	DCB	0x0
	DCB	0x0
	DCB	0x0
	DCB	0x0
	DCB	0x0
	DCB	0x0
	DCB	0xc
	DCB	0x1c
	DCB	0x7c
	DCB	0xc
	DCB	0xc
	DCB	0xc
	DCB	0xc
	DCB	0xc
	DCB	0xc
	DCB	0x0
	DCB	0x0
	DCB	0x0
	DCB	0x0
	DCB	0x0
	DCB	0x0
	DCB	0x0
	DCB	0x3c
	DCB	0x66
	DCB	0x66
	DCB	0x6
	DCB	0xc
	DCB	0x18
	DCB	0x30
	DCB	0x60
	DCB	0x7e
	DCB	0x0
	DCB	0x0
	DCB	0x0
	DCB	0x0
	DCB	0x0
	DCB	0x0
	DCB	0x0
	DCB	0x3c
	DCB	0x66
	DCB	0x66
	DCB	0x6
	DCB	0x1c
	DCB	0x6
	DCB	0x66
	DCB	0x66
	DCB	0x3c
	DCB	0x0
	DCB	0x0
	DCB	0x0
	DCB	0x0
	DCB	0x0
	DCB	0x0
	DCB	0x0
	DCB	0x30
	DCB	0x30
	DCB	0x36
	DCB	0x36
	DCB	0x36
	DCB	0x66
	DCB	0x7f
	DCB	0x6
	DCB	0x6
	DCB	0x0
	DCB	0x0
	DCB	0x0
	DCB	0x0
	DCB	0x0
	DCB	0x0
	DCB	0x0
	DCB	0x7e
	DCB	0x60
	DCB	0x60
	DCB	0x60
	DCB	0x7c
	DCB	0x6
	DCB	0x6
	DCB	0xc
	DCB	0x78
	DCB	0x0
	DCB	0x0
	DCB	0x0
	DCB	0x0
	DCB	0x0
	DCB	0x0
	DCB	0x0
	DCB	0x1c
	DCB	0x18
	DCB	0x30
	DCB	0x7c
	DCB	0x66
	DCB	0x66
	DCB	0x66
	DCB	0x66
	DCB	0x3c
	DCB	0x0
	DCB	0x0
	DCB	0x0
	DCB	0x0
	DCB	0x0
	DCB	0x0
	DCB	0x0
	DCB	0x7e
	DCB	0x6
	DCB	0xc
	DCB	0xc
	DCB	0x18
	DCB	0x18
	DCB	0x30
	DCB	0x30
	DCB	0x30
	DCB	0x0
	DCB	0x0
	DCB	0x0
	DCB	0x0
	DCB	0x0
	DCB	0x0
	DCB	0x0
	DCB	0x3c
	DCB	0x66
	DCB	0x66
	DCB	0x76
	DCB	0x3c
	DCB	0x6e
	DCB	0x66
	DCB	0x66
	DCB	0x3c
	DCB	0x0
	DCB	0x0
	DCB	0x0
	DCB	0x0
	DCB	0x0
	DCB	0x0
	DCB	0x0
	DCB	0x3c
	DCB	0x66
	DCB	0x66
	DCB	0x66
	DCB	0x66
	DCB	0x3e
	DCB	0xc
	DCB	0x18
	DCB	0x38
	DCB	0x0
	DCB	0x0
	DCB	0x0
	DCB	0x0
	DCB	0x0
	DCB	0x0
	DCB	0x0
	DCB	0x0
	DCB	0x0
	DCB	0x1c
	DCB	0x1c
	DCB	0x0
	DCB	0x0
	DCB	0x0
	DCB	0x1c
	DCB	0x1c
	DCB	0x0
	DCB	0x0
	DCB	0x0
	DCB	0x0
	DCB	0x0
	DCB	0x0
	DCB	0x0
	DCB	0x0
	DCB	0x0
	DCB	0x1c
	DCB	0x1c
	DCB	0x0
	DCB	0x0
	DCB	0x0
	DCB	0x1c
	DCB	0x1c
	DCB	0xc
	DCB	0x18
	DCB	0x0
	DCB	0x0
	DCB	0x0
	DCB	0x0
	DCB	0x0
	DCB	0x6
	DCB	0xc
	DCB	0x18
	DCB	0x30
	DCB	0x60
	DCB	0x30
	DCB	0x18
	DCB	0xc
	DCB	0x6
	DCB	0x0
	DCB	0x0
	DCB	0x0
	DCB	0x0
	DCB	0x0
	DCB	0x0
	DCB	0x0
	DCB	0x0
	DCB	0x0
	DCB	0x0
	DCB	0x7e
	DCB	0x0
	DCB	0x7e
	DCB	0x0
	DCB	0x0
	DCB	0x0
	DCB	0x0
	DCB	0x0
	DCB	0x0
	DCB	0x0
	DCB	0x0
	DCB	0x0
	DCB	0x0
	DCB	0x60
	DCB	0x30
	DCB	0x18
	DCB	0xc
	DCB	0x6
	DCB	0xc
	DCB	0x18
	DCB	0x30
	DCB	0x60
	DCB	0x0
	DCB	0x0
	DCB	0x0
	DCB	0x0
	DCB	0x0
	DCB	0x0
	DCB	0x0
	DCB	0x3c
	DCB	0x66
	DCB	0x66
	DCB	0xc
	DCB	0x18
	DCB	0x18
	DCB	0x0
	DCB	0x18
	DCB	0x18
	DCB	0x0
	DCB	0x0
	DCB	0x0
	DCB	0x0
	DCB	0x0
	DCB	0x0
	DCB	0x0
	DCB	0x7e
	DCB	0xc3
	DCB	0xc3
	DCB	0xcf
	DCB	0xdb
	DCB	0xdb
	DCB	0xcf
	DCB	0xc0
	DCB	0x7f
	DCB	0x0
	DCB	0x0
	DCB	0x0
	DCB	0x0
	DCB	0x0
	DCB	0x0
	DCB	0x0
	DCB	0x18
	DCB	0x3c
	DCB	0x66
	DCB	0x66
	DCB	0x66
	DCB	0x7e
	DCB	0x66
	DCB	0x66
	DCB	0x66
	DCB	0x0
	DCB	0x0
	DCB	0x0
	DCB	0x0
	DCB	0x0
	DCB	0x0
	DCB	0x0
	DCB	0x7c
	DCB	0x66
	DCB	0x66
	DCB	0x66
	DCB	0x7c
	DCB	0x66
	DCB	0x66
	DCB	0x66
	DCB	0x7c
	DCB	0x0
	DCB	0x0
	DCB	0x0
	DCB	0x0
	DCB	0x0
	DCB	0x0
	DCB	0x0
	DCB	0x3c
	DCB	0x66
	DCB	0x66
	DCB	0x60
	DCB	0x60
	DCB	0x60
	DCB	0x66
	DCB	0x66
	DCB	0x3c
	DCB	0x0
	DCB	0x0
	DCB	0x0
	DCB	0x0
	DCB	0x0
	DCB	0x0
	DCB	0x0
	DCB	0x78
	DCB	0x6c
	DCB	0x66
	DCB	0x66
	DCB	0x66
	DCB	0x66
	DCB	0x66
	DCB	0x6c
	DCB	0x78
	DCB	0x0
	DCB	0x0
	DCB	0x0
	DCB	0x0
	DCB	0x0
	DCB	0x0
	DCB	0x0
	DCB	0x7e
	DCB	0x60
	DCB	0x60
	DCB	0x60
	DCB	0x7c
	DCB	0x60
	DCB	0x60
	DCB	0x60
	DCB	0x7e
	DCB	0x0
	DCB	0x0
	DCB	0x0
	DCB	0x0
	DCB	0x0
	DCB	0x0
	DCB	0x0
	DCB	0x7e
	DCB	0x60
	DCB	0x60
	DCB	0x60
	DCB	0x7c
	DCB	0x60
	DCB	0x60
	DCB	0x60
	DCB	0x60
	DCB	0x0
	DCB	0x0
	DCB	0x0
	DCB	0x0
	DCB	0x0
	DCB	0x0
	DCB	0x0
	DCB	0x3c
	DCB	0x66
	DCB	0x66
	DCB	0x60
	DCB	0x60
	DCB	0x6e
	DCB	0x66
	DCB	0x66
	DCB	0x3e
	DCB	0x0
	DCB	0x0
	DCB	0x0
	DCB	0x0
	DCB	0x0
	DCB	0x0
	DCB	0x0
	DCB	0x66
	DCB	0x66
	DCB	0x66
	DCB	0x66
	DCB	0x7e
	DCB	0x66
	DCB	0x66
	DCB	0x66
	DCB	0x66
	DCB	0x0
	DCB	0x0
	DCB	0x0
	DCB	0x0
	DCB	0x0
	DCB	0x0
	DCB	0x0
	DCB	0x3c
	DCB	0x18
	DCB	0x18
	DCB	0x18
	DCB	0x18
	DCB	0x18
	DCB	0x18
	DCB	0x18
	DCB	0x3c
	DCB	0x0
	DCB	0x0
	DCB	0x0
	DCB	0x0
	DCB	0x0
	DCB	0x0
	DCB	0x0
	DCB	0x6
	DCB	0x6
	DCB	0x6
	DCB	0x6
	DCB	0x6
	DCB	0x6
	DCB	0x66
	DCB	0x66
	DCB	0x3c
	DCB	0x0
	DCB	0x0
	DCB	0x0
	DCB	0x0
	DCB	0x0
	DCB	0x0
	DCB	0x0
	DCB	0x66
	DCB	0x66
	DCB	0x6c
	DCB	0x6c
	DCB	0x78
	DCB	0x6c
	DCB	0x6c
	DCB	0x66
	DCB	0x66
	DCB	0x0
	DCB	0x0
	DCB	0x0
	DCB	0x0
	DCB	0x0
	DCB	0x0
	DCB	0x0
	DCB	0x60
	DCB	0x60
	DCB	0x60
	DCB	0x60
	DCB	0x60
	DCB	0x60
	DCB	0x60
	DCB	0x60
	DCB	0x7e
	DCB	0x0
	DCB	0x0
	DCB	0x0
	DCB	0x0
	DCB	0x0
	DCB	0x0
	DCB	0x0
	DCB	0x63
	DCB	0x63
	DCB	0x77
	DCB	0x6b
	DCB	0x6b
	DCB	0x6b
	DCB	0x63
	DCB	0x63
	DCB	0x63
	DCB	0x0
	DCB	0x0
	DCB	0x0
	DCB	0x0
	DCB	0x0
	DCB	0x0
	DCB	0x0
	DCB	0x63
	DCB	0x63
	DCB	0x73
	DCB	0x7b
	DCB	0x6f
	DCB	0x67
	DCB	0x63
	DCB	0x63
	DCB	0x63
	DCB	0x0
	DCB	0x0
	DCB	0x0
	DCB	0x0
	DCB	0x0
	DCB	0x0
	DCB	0x0
	DCB	0x3c
	DCB	0x66
	DCB	0x66
	DCB	0x66
	DCB	0x66
	DCB	0x66
	DCB	0x66
	DCB	0x66
	DCB	0x3c
	DCB	0x0
	DCB	0x0
	DCB	0x0
	DCB	0x0
	DCB	0x0
	DCB	0x0
	DCB	0x0
	DCB	0x7c
	DCB	0x66
	DCB	0x66
	DCB	0x66
	DCB	0x7c
	DCB	0x60
	DCB	0x60
	DCB	0x60
	DCB	0x60
	DCB	0x0
	DCB	0x0
	DCB	0x0
	DCB	0x0
	DCB	0x0
	DCB	0x0
	DCB	0x0
	DCB	0x3c
	DCB	0x66
	DCB	0x66
	DCB	0x66
	DCB	0x66
	DCB	0x66
	DCB	0x66
	DCB	0x66
	DCB	0x3c
	DCB	0xc
	DCB	0x6
	DCB	0x0
	DCB	0x0
	DCB	0x0
	DCB	0x0
	DCB	0x0
	DCB	0x7c
	DCB	0x66
	DCB	0x66
	DCB	0x66
	DCB	0x7c
	DCB	0x6c
	DCB	0x66
	DCB	0x66
	DCB	0x66
	DCB	0x0
	DCB	0x0
	DCB	0x0
	DCB	0x0
	DCB	0x0
	DCB	0x0
	DCB	0x0
	DCB	0x3c
	DCB	0x66
	DCB	0x60
	DCB	0x30
	DCB	0x18
	DCB	0xc
	DCB	0x6
	DCB	0x66
	DCB	0x3c
	DCB	0x0
	DCB	0x0
	DCB	0x0
	DCB	0x0
	DCB	0x0
	DCB	0x0
	DCB	0x0
	DCB	0x7e
	DCB	0x18
	DCB	0x18
	DCB	0x18
	DCB	0x18
	DCB	0x18
	DCB	0x18
	DCB	0x18
	DCB	0x18
	DCB	0x0
	DCB	0x0
	DCB	0x0
	DCB	0x0
	DCB	0x0
	DCB	0x0
	DCB	0x0
	DCB	0x66
	DCB	0x66
	DCB	0x66
	DCB	0x66
	DCB	0x66
	DCB	0x66
	DCB	0x66
	DCB	0x66
	DCB	0x3c
	DCB	0x0
	DCB	0x0
	DCB	0x0
	DCB	0x0
	DCB	0x0
	DCB	0x0
	DCB	0x0
	DCB	0x66
	DCB	0x66
	DCB	0x66
	DCB	0x66
	DCB	0x66
	DCB	0x66
	DCB	0x66
	DCB	0x3c
	DCB	0x18
	DCB	0x0
	DCB	0x0
	DCB	0x0
	DCB	0x0
	DCB	0x0
	DCB	0x0
	DCB	0x0
	DCB	0x63
	DCB	0x63
	DCB	0x63
	DCB	0x6b
	DCB	0x6b
	DCB	0x6b
	DCB	0x36
	DCB	0x36
	DCB	0x36
	DCB	0x0
	DCB	0x0
	DCB	0x0
	DCB	0x0
	DCB	0x0
	DCB	0x0
	DCB	0x0
	DCB	0x66
	DCB	0x66
	DCB	0x34
	DCB	0x18
	DCB	0x18
	DCB	0x2c
	DCB	0x66
	DCB	0x66
	DCB	0x66
	DCB	0x0
	DCB	0x0
	DCB	0x0
	DCB	0x0
	DCB	0x0
	DCB	0x0
	DCB	0x0
	DCB	0x66
	DCB	0x66
	DCB	0x66
	DCB	0x66
	DCB	0x3c
	DCB	0x18
	DCB	0x18
	DCB	0x18
	DCB	0x18
	DCB	0x0
	DCB	0x0
	DCB	0x0
	DCB	0x0
	DCB	0x0
	DCB	0x0
	DCB	0x0
	DCB	0x7e
	DCB	0x6
	DCB	0x6
	DCB	0xc
	DCB	0x18
	DCB	0x30
	DCB	0x60
	DCB	0x60
	DCB	0x7e
	DCB	0x0
	DCB	0x0
	DCB	0x0
	DCB	0x0
	DCB	0x0
	DCB	0x0
	DCB	0x0
	DCB	0x3c
	DCB	0x30
	DCB	0x30
	DCB	0x30
	DCB	0x30
	DCB	0x30
	DCB	0x30
	DCB	0x30
	DCB	0x30
	DCB	0x30
	DCB	0x30
	DCB	0x3c
	DCB	0x3c
	DCB	0x0
	DCB	0x0
	DCB	0x0
	DCB	0x60
	DCB	0x60
	DCB	0x30
	DCB	0x30
	DCB	0x18
	DCB	0x18
	DCB	0xc
	DCB	0xc
	DCB	0x6
	DCB	0x6
	DCB	0x0
	DCB	0x0
	DCB	0x0
	DCB	0x0
	DCB	0x0
	DCB	0x0
	DCB	0x3c
	DCB	0xc
	DCB	0xc
	DCB	0xc
	DCB	0xc
	DCB	0xc
	DCB	0xc
	DCB	0xc
	DCB	0xc
	DCB	0xc
	DCB	0xc
	DCB	0x3c
	DCB	0x3c
	DCB	0x0
	DCB	0x18
	DCB	0x3c
	DCB	0x66
	DCB	0x0
	DCB	0x0
	DCB	0x0
	DCB	0x0
	DCB	0x0
	DCB	0x0
	DCB	0x0
	DCB	0x0
	DCB	0x0
	DCB	0x0
	DCB	0x0
	DCB	0x0
	DCB	0x0
	DCB	0x0
	DCB	0x0
	DCB	0x0
	DCB	0x0
	DCB	0x0
	DCB	0x0
	DCB	0x0
	DCB	0x0
	DCB	0x0
	DCB	0x0
	DCB	0x0
	DCB	0x0
	DCB	0x0
	DCB	0xff
	DCB	0xff
	DCB	0x0
	DCB	0x38
	DCB	0x18
	DCB	0xc
	DCB	0x0
	DCB	0x0
	DCB	0x0
	DCB	0x0
	DCB	0x0
	DCB	0x0
	DCB	0x0
	DCB	0x0
	DCB	0x0
	DCB	0x0
	DCB	0x0
	DCB	0x0
	DCB	0x0
	DCB	0x0
	DCB	0x0
	DCB	0x0
	DCB	0x0
	DCB	0x3c
	DCB	0x6
	DCB	0x6
	DCB	0x3e
	DCB	0x66
	DCB	0x66
	DCB	0x3e
	DCB	0x0
	DCB	0x0
	DCB	0x0
	DCB	0x0
	DCB	0x0
	DCB	0x0
	DCB	0x0
	DCB	0x60
	DCB	0x60
	DCB	0x7c
	DCB	0x66
	DCB	0x66
	DCB	0x66
	DCB	0x66
	DCB	0x66
	DCB	0x7c
	DCB	0x0
	DCB	0x0
	DCB	0x0
	DCB	0x0
	DCB	0x0
	DCB	0x0
	DCB	0x0
	DCB	0x0
	DCB	0x0
	DCB	0x3c
	DCB	0x66
	DCB	0x60
	DCB	0x60
	DCB	0x60
	DCB	0x66
	DCB	0x3c
	DCB	0x0
	DCB	0x0
	DCB	0x0
	DCB	0x0
	DCB	0x0
	DCB	0x0
	DCB	0x0
	DCB	0x6
	DCB	0x6
	DCB	0x3e
	DCB	0x66
	DCB	0x66
	DCB	0x66
	DCB	0x66
	DCB	0x66
	DCB	0x3e
	DCB	0x0
	DCB	0x0
	DCB	0x0
	DCB	0x0
	DCB	0x0
	DCB	0x0
	DCB	0x0
	DCB	0x0
	DCB	0x0
	DCB	0x3c
	DCB	0x66
	DCB	0x66
	DCB	0x7e
	DCB	0x60
	DCB	0x60
	DCB	0x3c
	DCB	0x0
	DCB	0x0
	DCB	0x0
	DCB	0x0
	DCB	0x0
	DCB	0x0
	DCB	0x0
	DCB	0x1e
	DCB	0x30
	DCB	0x30
	DCB	0x30
	DCB	0x7e
	DCB	0x30
	DCB	0x30
	DCB	0x30
	DCB	0x30
	DCB	0x0
	DCB	0x0
	DCB	0x0
	DCB	0x0
	DCB	0x0
	DCB	0x0
	DCB	0x0
	DCB	0x0
	DCB	0x0
	DCB	0x3e
	DCB	0x66
	DCB	0x66
	DCB	0x66
	DCB	0x66
	DCB	0x66
	DCB	0x3e
	DCB	0x6
	DCB	0x6
	DCB	0x7c
	DCB	0x7c
	DCB	0x0
	DCB	0x0
	DCB	0x0
	DCB	0x60
	DCB	0x60
	DCB	0x7c
	DCB	0x66
	DCB	0x66
	DCB	0x66
	DCB	0x66
	DCB	0x66
	DCB	0x66
	DCB	0x0
	DCB	0x0
	DCB	0x0
	DCB	0x0
	DCB	0x0
	DCB	0x0
	DCB	0x18
	DCB	0x18
	DCB	0x0
	DCB	0x78
	DCB	0x18
	DCB	0x18
	DCB	0x18
	DCB	0x18
	DCB	0x18
	DCB	0x7e
	DCB	0x0
	DCB	0x0
	DCB	0x0
	DCB	0x0
	DCB	0x0
	DCB	0x0
	DCB	0xc
	DCB	0xc
	DCB	0x0
	DCB	0x3c
	DCB	0xc
	DCB	0xc
	DCB	0xc
	DCB	0xc
	DCB	0xc
	DCB	0xc
	DCB	0xc
	DCB	0xc
	DCB	0x78
	DCB	0x78
	DCB	0x0
	DCB	0x0
	DCB	0x0
	DCB	0x60
	DCB	0x60
	DCB	0x66
	DCB	0x66
	DCB	0x6c
	DCB	0x78
	DCB	0x6c
	DCB	0x66
	DCB	0x66
	DCB	0x0
	DCB	0x0
	DCB	0x0
	DCB	0x0
	DCB	0x0
	DCB	0x0
	DCB	0x0
	DCB	0x78
	DCB	0x18
	DCB	0x18
	DCB	0x18
	DCB	0x18
	DCB	0x18
	DCB	0x18
	DCB	0x18
	DCB	0x7e
	DCB	0x0
	DCB	0x0
	DCB	0x0
	DCB	0x0
	DCB	0x0
	DCB	0x0
	DCB	0x0
	DCB	0x0
	DCB	0x0
	DCB	0x7e
	DCB	0x6b
	DCB	0x6b
	DCB	0x6b
	DCB	0x6b
	DCB	0x6b
	DCB	0x63
	DCB	0x0
	DCB	0x0
	DCB	0x0
	DCB	0x0
	DCB	0x0
	DCB	0x0
	DCB	0x0
	DCB	0x0
	DCB	0x0
	DCB	0x7c
	DCB	0x66
	DCB	0x66
	DCB	0x66
	DCB	0x66
	DCB	0x66
	DCB	0x66
	DCB	0x0
	DCB	0x0
	DCB	0x0
	DCB	0x0
	DCB	0x0
	DCB	0x0
	DCB	0x0
	DCB	0x0
	DCB	0x0
	DCB	0x3c
	DCB	0x66
	DCB	0x66
	DCB	0x66
	DCB	0x66
	DCB	0x66
	DCB	0x3c
	DCB	0x0
	DCB	0x0
	DCB	0x0
	DCB	0x0
	DCB	0x0
	DCB	0x0
	DCB	0x0
	DCB	0x0
	DCB	0x0
	DCB	0x7c
	DCB	0x66
	DCB	0x66
	DCB	0x66
	DCB	0x66
	DCB	0x66
	DCB	0x7c
	DCB	0x60
	DCB	0x60
	DCB	0x60
	DCB	0x60
	DCB	0x0
	DCB	0x0
	DCB	0x0
	DCB	0x0
	DCB	0x0
	DCB	0x3e
	DCB	0x66
	DCB	0x66
	DCB	0x66
	DCB	0x66
	DCB	0x66
	DCB	0x3e
	DCB	0x6
	DCB	0x6
	DCB	0x6
	DCB	0x6
	DCB	0x0
	DCB	0x0
	DCB	0x0
	DCB	0x0
	DCB	0x0
	DCB	0x66
	DCB	0x6e
	DCB	0x70
	DCB	0x60
	DCB	0x60
	DCB	0x60
	DCB	0x60
	DCB	0x0
	DCB	0x0
	DCB	0x0
	DCB	0x0
	DCB	0x0
	DCB	0x0
	DCB	0x0
	DCB	0x0
	DCB	0x0
	DCB	0x3e
	DCB	0x60
	DCB	0x60
	DCB	0x3c
	DCB	0x6
	DCB	0x6
	DCB	0x7c
	DCB	0x0
	DCB	0x0
	DCB	0x0
	DCB	0x0
	DCB	0x0
	DCB	0x0
	DCB	0x0
	DCB	0x30
	DCB	0x30
	DCB	0x7e
	DCB	0x30
	DCB	0x30
	DCB	0x30
	DCB	0x30
	DCB	0x30
	DCB	0x1e
	DCB	0x0
	DCB	0x0
	DCB	0x0
	DCB	0x0
	DCB	0x0
	DCB	0x0
	DCB	0x0
	DCB	0x0
	DCB	0x0
	DCB	0x66
	DCB	0x66
	DCB	0x66
	DCB	0x66
	DCB	0x66
	DCB	0x66
	DCB	0x3e
	DCB	0x0
	DCB	0x0
	DCB	0x0
	DCB	0x0
	DCB	0x0
	DCB	0x0
	DCB	0x0
	DCB	0x0
	DCB	0x0
	DCB	0x66
	DCB	0x66
	DCB	0x66
	DCB	0x66
	DCB	0x66
	DCB	0x3c
	DCB	0x18
	DCB	0x0
	DCB	0x0
	DCB	0x0
	DCB	0x0
	DCB	0x0
	DCB	0x0
	DCB	0x0
	DCB	0x0
	DCB	0x0
	DCB	0x63
	DCB	0x6b
	DCB	0x6b
	DCB	0x6b
	DCB	0x6b
	DCB	0x36
	DCB	0x36
	DCB	0x0
	DCB	0x0
	DCB	0x0
	DCB	0x0
	DCB	0x0
	DCB	0x0
	DCB	0x0
	DCB	0x0
	DCB	0x0
	DCB	0x66
	DCB	0x66
	DCB	0x3c
	DCB	0x18
	DCB	0x3c
	DCB	0x66
	DCB	0x66
	DCB	0x0
	DCB	0x0
	DCB	0x0
	DCB	0x0
	DCB	0x0
	DCB	0x0
	DCB	0x0
	DCB	0x0
	DCB	0x0
	DCB	0x66
	DCB	0x66
	DCB	0x66
	DCB	0x66
	DCB	0x66
	DCB	0x66
	DCB	0x3c
	DCB	0xc
	DCB	0x18
	DCB	0xf0
	DCB	0xf0
	DCB	0x0
	DCB	0x0
	DCB	0x0
	DCB	0x0
	DCB	0x0
	DCB	0x7e
	DCB	0x6
	DCB	0xc
	DCB	0x18
	DCB	0x30
	DCB	0x60
	DCB	0x7e
	DCB	0x0
	DCB	0x0
	DCB	0x0
	DCB	0x0
	DCB	0x0
	DCB	0x0
	DCB	0x0
	DCB	0xc
	DCB	0x18
	DCB	0x18
	DCB	0x18
	DCB	0x30
	DCB	0x60
	DCB	0x30
	DCB	0x18
	DCB	0x18
	DCB	0x18
	DCB	0xc
	DCB	0x0
	DCB	0x0
	DCB	0x0
	DCB	0x0
	DCB	0x0
	DCB	0x18
	DCB	0x18
	DCB	0x18
	DCB	0x18
	DCB	0x18
	DCB	0x18
	DCB	0x18
	DCB	0x18
	DCB	0x18
	DCB	0x18
	DCB	0x18
	DCB	0x18
	DCB	0x18
	DCB	0x0
	DCB	0x0
	DCB	0x0
	DCB	0x30
	DCB	0x18
	DCB	0x18
	DCB	0x18
	DCB	0xc
	DCB	0x6
	DCB	0xc
	DCB	0x18
	DCB	0x18
	DCB	0x18
	DCB	0x30
	DCB	0x0
	DCB	0x0
	DCB	0x0
	DCB	0x0
	DCB	0x0
	DCB	0x71
	DCB	0xdb
	DCB	0x8e
	DCB	0x0
	DCB	0x0
	DCB	0x0
	DCB	0x0
	DCB	0x0
	DCB	0x0
	DCB	0x0
	DCB	0x0
	DCB	0x0
	DCB	0x0
	DCB	0x0
	DCB	0x0
	DCB	0x0
	DCB	0x0
	DCB	0x0
	DCB	0x0
	DCB	0x0
	DCB	0x0
	DCB	0x0
	DCB	0x0
	DCB	0x0
	DCB	0x0
	DCB	0x0
	DCB	0x0
	DCB	0x0
	DCB	0x0
	DCB	0x0
	DCB	0x0
	DCB	0x0
	DCB	0x0
	DCB	0x0
	DCB	0x0
	DCB	0x0
	DCB	0x0
	DCB	0x0
	DCB	0x0
	DCB	0x0
	DCB	0x0
	DCB	0x0
	DCB	0x0
	DCB	0x0
	DCB	0x0
	DCB	0x0
	DCB	0x0
	DCB	0x0
	DCB	0x0
	DCB	0x0
	DCB	0x0
	DCB	0x0
	DCB	0x0
	DCB	0x0
	DCB	0x0
	DCB	0x0
	DCB	0x0
	DCB	0x0
	DCB	0x0
	DCB	0x0
	DCB	0x0
	DCB	0x0
	DCB	0x0
	DCB	0x0
	DCB	0x0
	DCB	0x0
	DCB	0x0
	DCB	0x0
	DCB	0x0
	DCB	0x0
	DCB	0x0
	DCB	0x0
	DCB	0x0
	DCB	0x0
	DCB	0x0
	DCB	0x0
	DCB	0x0
	DCB	0x0
	DCB	0x0
	DCB	0x0
	DCB	0x0
	DCB	0x0
	DCB	0x0
	DCB	0x0
	DCB	0x0
	DCB	0x0
	DCB	0x0
	DCB	0x0
	DCB	0x0
	DCB	0x0
	DCB	0x0
	DCB	0x0
	DCB	0x0
	DCB	0x0
	DCB	0x0
	DCB	0x0
	DCB	0x0
	DCB	0x0
	DCB	0x0
	DCB	0x0
	DCB	0x0
	DCB	0x0
	DCB	0x0
	DCB	0x0
	DCB	0x0
	DCB	0x0
	DCB	0x0
	DCB	0x0
	DCB	0x0
	DCB	0x0
	DCB	0x0
	DCB	0x0
	DCB	0x0
	DCB	0x0
	DCB	0x0
	DCB	0x0
	DCB	0x0
	DCB	0x0
	DCB	0x0
	DCB	0x0
	DCB	0x0
	DCB	0x0
	DCB	0x0
	DCB	0x0
	DCB	0x0
	DCB	0x0
	DCB	0x0
	DCB	0x0
	DCB	0x0
	DCB	0x0
	DCB	0x0
	DCB	0x0
	DCB	0x0
	DCB	0x0
	DCB	0x0
	DCB	0x0
	DCB	0x0
	DCB	0x0
	DCB	0x0
	DCB	0x0
	DCB	0x0
	DCB	0x0
	DCB	0x0
	DCB	0x0
	DCB	0x0
	DCB	0x0
	DCB	0x0
	DCB	0x0
	DCB	0x0
	DCB	0x0
	DCB	0x0
	DCB	0x0
	DCB	0x0
	DCB	0x0
	DCB	0x0
	DCB	0x0
	DCB	0x0
	DCB	0x0
	DCB	0x0
	DCB	0x0
	DCB	0x0
	DCB	0x0
	DCB	0x0
	DCB	0x0
	DCB	0x0
	DCB	0x0
	DCB	0x0
	DCB	0x0
	DCB	0x0
	DCB	0x0
	DCB	0x0
	DCB	0x0
	DCB	0x0
	DCB	0x0
	DCB	0x0
	DCB	0x0
	DCB	0x0
	DCB	0x0
	DCB	0x0
	DCB	0x0
	DCB	0x0
	DCB	0x0
	DCB	0x0
	DCB	0x0
	DCB	0x0
	DCB	0x0
	DCB	0x0
	DCB	0x0
	DCB	0x0
	DCB	0x0
	DCB	0x0
	DCB	0x0
	DCB	0x0
	DCB	0x0
	DCB	0x0
	DCB	0x0
	DCB	0x0
	DCB	0x0
	DCB	0x0
	DCB	0x0
	DCB	0x0
	DCB	0x0
	DCB	0x0
	DCB	0x0
	DCB	0x0
	DCB	0x0
	DCB	0x0
	DCB	0x0
	DCB	0x0
	DCB	0x0
	DCB	0x0
	DCB	0x0
	DCB	0x0
	DCB	0x0
	DCB	0x0
	DCB	0x0
	DCB	0x0
	DCB	0x0
	DCB	0x0
	DCB	0x0
	DCB	0x0
	DCB	0x0
	DCB	0x0
	DCB	0x0
	DCB	0x0
	DCB	0x0
	DCB	0x0
	DCB	0x0
	DCB	0x0
	DCB	0x0
	DCB	0x0
	DCB	0x0
	DCB	0x0
	DCB	0x0
	DCB	0x0
	DCB	0x0
	DCB	0x0
	DCB	0x0
	DCB	0x0
	DCB	0x0
	DCB	0x0
	DCB	0x0
	DCB	0x0
	DCB	0x0
	DCB	0x0
	DCB	0x0
	DCB	0x0
	DCB	0x0
	DCB	0x0
	DCB	0x0
	DCB	0x0
	DCB	0x0
	DCB	0x0
	DCB	0x0
	DCB	0x0
	DCB	0x0
	DCB	0x0
	DCB	0x0
	DCB	0x0
	DCB	0x0
	DCB	0x0
	DCB	0x0
	DCB	0x0
	DCB	0x0
	DCB	0x0
	DCB	0x0
	DCB	0x0
	DCB	0x0
	DCB	0x0
	DCB	0x0
	DCB	0x0
	DCB	0x0
	DCB	0x0
	DCB	0x0
	DCB	0x0
	DCB	0x0
	DCB	0x0
	DCB	0x0
	DCB	0x0
	DCB	0x0
	DCB	0x0
	DCB	0x0
	DCB	0x0
	DCB	0x0
	DCB	0x0
	DCB	0x0
	DCB	0x0
	DCB	0x0
	DCB	0x0
	DCB	0x0
	DCB	0x0
	DCB	0x0
	DCB	0x0
	DCB	0x0
	DCB	0x0
	DCB	0x0
	DCB	0x0
	DCB	0x0
	DCB	0x0
	DCB	0x0
	DCB	0x0
	DCB	0x0
	DCB	0x0
	DCB	0x0
	DCB	0x0
	DCB	0x0
	DCB	0x0
	DCB	0x0
	DCB	0x0
	DCB	0x0
	DCB	0x0
	DCB	0x0
	DCB	0x0
	DCB	0x0
	DCB	0x0
	DCB	0x0
	DCB	0x0
	DCB	0x0
	DCB	0x0
	DCB	0x0
	DCB	0x0
	DCB	0x0
	DCB	0x0
	DCB	0x0
	DCB	0x0
	DCB	0x0
	DCB	0x0
	DCB	0x0
	DCB	0x0
	DCB	0x0
	DCB	0x0
	DCB	0x0
	DCB	0x0
	DCB	0x0
	DCB	0x0
	DCB	0x0
	DCB	0x0
	DCB	0x0
	DCB	0x0
	DCB	0x0
	DCB	0x0
	DCB	0x0
	DCB	0x0
	DCB	0x0
	DCB	0x0
	DCB	0x0
	DCB	0x0
	DCB	0x0
	DCB	0x0
	DCB	0x0
	DCB	0x0
	DCB	0x0
	DCB	0x0
	DCB	0x0
	DCB	0x0
	DCB	0x0
	DCB	0x0
	DCB	0x0
	DCB	0x0
	DCB	0x0
	DCB	0x0
	DCB	0x0
	DCB	0x0
	DCB	0x0
	DCB	0x0
	DCB	0x0
	DCB	0x0
	DCB	0x0
	DCB	0x0
	DCB	0x0
	DCB	0x0
	DCB	0x0
	DCB	0x0
	DCB	0x0
	DCB	0x0
	DCB	0x0
	DCB	0x0
	DCB	0x0
	DCB	0x0
	DCB	0x0
	DCB	0x0
	DCB	0x0
	DCB	0x0
	DCB	0x0
	DCB	0x0
	DCB	0x0
	DCB	0x0
	DCB	0x0
	DCB	0x0
	DCB	0x0
	DCB	0x0
	DCB	0x0
	DCB	0x0
	DCB	0x0
	DCB	0x0
	DCB	0x0
	DCB	0x0
	DCB	0x0
	DCB	0x0
	DCB	0x0
	DCB	0x0
	DCB	0x0
	DCB	0x0
	DCB	0x0
	DCB	0x0
	DCB	0x0
	DCB	0x0
	DCB	0x0
	DCB	0x0
	DCB	0x0
	DCB	0x0
	DCB	0x0
	DCB	0x0
	DCB	0x0
	DCB	0x0
	DCB	0x0
	DCB	0x0
	DCB	0x0
	DCB	0x0
	DCB	0x0
	DCB	0x0
	DCB	0x0
	DCB	0x0
	DCB	0x0
	DCB	0x0
	DCB	0x0
	DCB	0x0
	DCB	0x0
	DCB	0x0
	DCB	0x0
	DCB	0x0
	DCB	0x0
	DCB	0x0
	DCB	0x0
	DCB	0x0
	DCB	0x0
	DCB	0x0
	DCB	0x0
	DCB	0x0
	DCB	0x0
	DCB	0x0
	DCB	0x0
	DCB	0x0
	DCB	0x0
	DCB	0x0
	DCB	0x0
	DCB	0x0
	DCB	0x0
	DCB	0x0
	DCB	0x0
	DCB	0x0
	DCB	0x0
	DCB	0x0
	DCB	0x0
	DCB	0x0
	DCB	0x0
	DCB	0x0
	DCB	0x0
	DCB	0x0
	DCB	0x0
	DCB	0x0
	DCB	0x0
	DCB	0x0
	DCB	0x0
	DCB	0x0
	DCB	0x0
	DCB	0x0
	DCB	0x0
	DCB	0x0
	DCB	0x0
	DCB	0x0
	DCB	0x0
	DCB	0x0
	DCB	0x0
	DCB	0x0
	DCB	0x0
	DCB	0x0
	DCB	0x0
	DCB	0x0
	DCB	0x0
	DCB	0x0
	DCB	0x0
	DCB	0x0
	DCB	0x0
	DCB	0x0
	DCB	0x0
	DCB	0x0
	DCB	0x0
	DCB	0x0
	DCB	0x0
	DCB	0x0
	DCB	0x0
	DCB	0x0
	DCB	0x0
	DCB	0x0
	DCB	0x0
	DCB	0x0
	DCB	0x0
	DCB	0x0
	DCB	0x0
	DCB	0x0
	DCB	0x0
	DCB	0x0
	DCB	0x0
	DCB	0x0
	DCB	0x0
	DCB	0x0
	DCB	0x0
	DCB	0x0
	DCB	0x0
	DCB	0x0
	DCB	0x0
	DCB	0x0
	DCB	0x0
	DCB	0x0
	DCB	0x0
	DCB	0x0
	DCB	0x0
	DCB	0x0
	DCB	0x0
	DCB	0x0
	DCB	0x0
	DCB	0x0
	DCB	0x0
	DCB	0x0
	DCB	0x0
	DCB	0x0
	DCB	0x0
	DCB	0x0
	DCB	0x0
	DCB	0x0
	DCB	0x0
	DCB	0x0
	DCB	0x0
	DCB	0x0
	DCB	0x0
	DCB	0x0
	DCB	0x0
	DCB	0x0
	DCB	0x0
	DCB	0x0
	DCB	0x0
	DCB	0x0
	DCB	0x0
	DCB	0x0
	DCB	0x0
	DCB	0x0
	DCB	0x0
	DCB	0x0
	DCB	0x0
	DCB	0x0
	DCB	0x0
	DCB	0x0
	DCB	0x0
	DCB	0x0
	DCB	0x0
	DCB	0x0
	DCB	0x0
	DCB	0x0
	DCB	0x0
	DCB	0x0
	DCB	0x0
	DCB	0x0
	DCB	0x0
	DCB	0x0
	DCB	0x0
	DCB	0x0
	DCB	0x0
	DCB	0x0
	DCB	0x0
	DCB	0x0
	DCB	0x0
	DCB	0x0
	DCB	0x0
	DCB	0x0
	DCB	0x0
	DCB	0x0
	DCB	0x0
	DCB	0x0
	DCB	0x0
	DCB	0x0
	DCB	0x0
	DCB	0x0
	DCB	0x0
	DCB	0x0
	DCB	0x0
	DCB	0x0
	DCB	0x0
	DCB	0x0
	DCB	0x0
	DCB	0x0
	DCB	0x0
	DCB	0x0
	DCB	0x0
	DCB	0x0
	DCB	0x0
	DCB	0x0
	DCB	0x0
	DCB	0x0
	DCB	0x0
	DCB	0x0
	DCB	0x0
	DCB	0x0
	DCB	0x0
	DCB	0x0
	DCB	0x0
	DCB	0x0
	DCB	0x0
	DCB	0x0
	DCB	0x0
	DCB	0x0
	DCB	0x0
	DCB	0x0
	DCB	0x0
	DCB	0x0
	DCB	0x0
	DCB	0x0
	DCB	0x0
	DCB	0x0
	DCB	0x0
	DCB	0x0
	DCB	0x0
	DCB	0x0
	DCB	0x0
	DCB	0x0
	DCB	0x0
	DCB	0x0
	DCB	0x0
	DCB	0x0
	DCB	0x0
	DCB	0x0
	DCB	0x0
	DCB	0x0
	DCB	0x0
	DCB	0x0
	DCB	0x0
	DCB	0x0
	DCB	0x0
	DCB	0x0
	DCB	0x0
	DCB	0x0
	DCB	0x0
	DCB	0x0
	DCB	0x0
	DCB	0x0
	DCB	0x0
	DCB	0x0
	DCB	0x0
	DCB	0x0
	DCB	0x0
	DCB	0x0
	DCB	0x0
	DCB	0x0
	DCB	0x0
	DCB	0x0
	DCB	0x0
	DCB	0x0
	DCB	0x0
	DCB	0x0
	DCB	0x0
	DCB	0x0
	DCB	0x0
	DCB	0x0
	DCB	0x0
	DCB	0x0
	DCB	0x0
	DCB	0x0
	DCB	0x0
	DCB	0x0
	DCB	0x0
	DCB	0x0
	DCB	0x0
	DCB	0x0
	DCB	0x0
	DCB	0x0
	DCB	0x0
	DCB	0x0
	DCB	0x0
	DCB	0x0
	DCB	0x0
	DCB	0x0
	DCB	0x0
	DCB	0x0
	DCB	0x0
	DCB	0x0
	DCB	0x0
	DCB	0x0
	DCB	0x0
	DCB	0x0
	DCB	0x0
	DCB	0x0
	DCB	0x0
	DCB	0x0
	DCB	0x0
	DCB	0x0
	DCB	0x0
	DCB	0x0
	DCB	0x0
	DCB	0x0
	DCB	0x0
	DCB	0x0
	DCB	0x0
	DCB	0x0
	DCB	0x0
	DCB	0x0
	DCB	0x0
	DCB	0x0
	DCB	0x0
	DCB	0x0
	DCB	0x0
	DCB	0x0
	DCB	0x0
	DCB	0x0
	DCB	0x0
	DCB	0x0
	DCB	0x0
	DCB	0x0
	DCB	0x0
	DCB	0x0
	DCB	0x0
	DCB	0x0
	DCB	0x0
	DCB	0x0
	DCB	0x0
	DCB	0x0
	DCB	0x0
	DCB	0x0
	DCB	0x0
	DCB	0x0
	DCB	0x0
	DCB	0x0
	DCB	0x0
	DCB	0x0
	DCB	0x0
	DCB	0x0
	DCB	0x0
	DCB	0x0
	DCB	0x0
	DCB	0x0
	DCB	0x0
	DCB	0x0
	DCB	0x0
	DCB	0x0
	DCB	0x0
	DCB	0x0
	DCB	0x0
	DCB	0x0
	DCB	0x0
	DCB	0x0
	DCB	0x0
	DCB	0x0
	DCB	0x0
	DCB	0x0
	DCB	0x0
	DCB	0x0
	DCB	0x0
	DCB	0x0
	DCB	0x0
	DCB	0x0
	DCB	0x0
	DCB	0x0
	DCB	0x0
	DCB	0x0
	DCB	0x0
	DCB	0x0
	DCB	0x0
	DCB	0x0
	DCB	0x0
	DCB	0x0
	DCB	0x0
	DCB	0x0
	DCB	0x0
	DCB	0x0
	DCB	0x0
	DCB	0x0
	DCB	0x0
	DCB	0x0
	DCB	0x0
	DCB	0x0
	DCB	0x0
	DCB	0x0
	DCB	0x0
	DCB	0x0
	DCB	0x0
	DCB	0x0
	DCB	0x0
	DCB	0x0
	DCB	0x0
	DCB	0x0
	DCB	0x0
	DCB	0x0
	DCB	0x0
	DCB	0x0
	DCB	0x0
	DCB	0x0
	DCB	0x0
	DCB	0x0
	DCB	0x0
	DCB	0x0
	DCB	0x0
	DCB	0x0
	DCB	0x0
	DCB	0x0
	DCB	0x0
	DCB	0x0
	DCB	0x0
	DCB	0x0
	DCB	0x0
	DCB	0x0
	DCB	0x0
	DCB	0x0
	DCB	0x0
	DCB	0x0
	DCB	0x0
	DCB	0x0
	DCB	0x0
	DCB	0x0
	DCB	0x0
	DCB	0x0
	DCB	0x0
	DCB	0x0
	DCB	0x0
	DCB	0x0
	DCB	0x0
	DCB	0x0
	DCB	0x0
	DCB	0x0
	DCB	0x0
	DCB	0x0
	DCB	0x0
	DCB	0x0
	DCB	0x0
	DCB	0x0
	DCB	0x0
	DCB	0x0
	DCB	0x0
	DCB	0x0
	DCB	0x0
	DCB	0x0
	DCB	0x0
	DCB	0x0
	DCB	0x0
	DCB	0x0
	DCB	0x0
	DCB	0x0
	DCB	0x0
	DCB	0x0
	DCB	0x0
	DCB	0x0
	DCB	0x0
	DCB	0x0
	DCB	0x0
	DCB	0x0
	DCB	0x0
	DCB	0x0
	DCB	0x0
	DCB	0x0
	DCB	0x0
	DCB	0x0
	DCB	0x0
	DCB	0x0
	DCB	0x0
	DCB	0x0
	DCB	0x0
	DCB	0x0
	DCB	0x0
	DCB	0x0
	DCB	0x0
	DCB	0x0
	DCB	0x0
	DCB	0x0
	DCB	0x0
	DCB	0x0
	DCB	0x0
	DCB	0x0
	DCB	0x0
	DCB	0x0
	DCB	0x0
	DCB	0x0
	DCB	0x0
	DCB	0x0
	DCB	0x0
	DCB	0x0
	DCB	0x0
	DCB	0x0
	DCB	0x0
	DCB	0x0
	DCB	0x0
	DCB	0x0
	DCB	0x0
	DCB	0x0
	DCB	0x0
	DCB	0x0
	DCB	0x0
	DCB	0x0
	DCB	0x0
	DCB	0x0
	DCB	0x0
	DCB	0x0
	DCB	0x0
	DCB	0x0
	DCB	0x0
	DCB	0x0
	DCB	0x0
	DCB	0x0
	DCB	0x0
	DCB	0x0
	DCB	0x0
	DCB	0x0
	DCB	0x0
	DCB	0x0
	DCB	0x0
	DCB	0x0
	DCB	0x0
	DCB	0x0
	DCB	0x0
	DCB	0x0
	DCB	0x0
	DCB	0x0
	DCB	0x0
	DCB	0x0
	DCB	0x0
	DCB	0x0
	DCB	0x0
	DCB	0x0
	DCB	0x0
	DCB	0x0
	DCB	0x0
	DCB	0x0
	DCB	0x0
	DCB	0x0
	DCB	0x0
	DCB	0x0
	DCB	0x0
	DCB	0x0
	DCB	0x0
	DCB	0x0
	DCB	0x0
	DCB	0x0
	DCB	0x0
	DCB	0x0
	DCB	0x0
	DCB	0x0
	DCB	0x0
	DCB	0x0
	DCB	0x0
	DCB	0x0
	DCB	0x0
	DCB	0x0
	DCB	0x0
	DCB	0x0
	DCB	0x0
	DCB	0x0
	DCB	0x0
	DCB	0x0
	DCB	0x0
	DCB	0x0
	DCB	0x0
	DCB	0x0
	DCB	0x0
	DCB	0x0
	DCB	0x0
	DCB	0x0
	DCB	0x0
	DCB	0x0
	DCB	0x0
	DCB	0x0
	DCB	0x0
	DCB	0x0
	DCB	0x0
	DCB	0x0
	DCB	0x0
	DCB	0x0
	DCB	0x0
	DCB	0x0
	DCB	0x0
	DCB	0x0
	DCB	0x0
	DCB	0x0
	DCB	0x0
	DCB	0x0
	DCB	0x0
	DCB	0x0
	DCB	0x0
	DCB	0x0
	DCB	0x0
	DCB	0x0
	DCB	0x0
	DCB	0x0
	DCB	0x0
	DCB	0x0
	DCB	0x0
	DCB	0x0
	DCB	0x0
	DCB	0x0
	DCB	0x0
	DCB	0x0
	DCB	0x0
	DCB	0x0
	DCB	0x0
	DCB	0x0
	DCB	0x0
	DCB	0x0
	DCB	0x0
	DCB	0x0
	DCB	0x0
	DCB	0x0
	DCB	0x0
	DCB	0x0
	DCB	0x0
	DCB	0x0
	DCB	0x0
	DCB	0x0
	DCB	0x0
	DCB	0x0
	DCB	0x0
	DCB	0x0
	DCB	0x0
	DCB	0x0
	DCB	0x0
	DCB	0x0
	DCB	0x0
	DCB	0x0
	DCB	0x0
	DCB	0x0
	DCB	0x0
	DCB	0x0
	DCB	0x0
	DCB	0x0
	DCB	0x0
	DCB	0x0
	DCB	0x0
	DCB	0x0
	DCB	0x0
	DCB	0x0
	DCB	0x0
	DCB	0x0
	DCB	0x0
	DCB	0x0
	DCB	0x0
	DCB	0x0
	DCB	0x0
	DCB	0x0
	DCB	0x0
	DCB	0x0
	DCB	0x0
	DCB	0x0
	DCB	0x0
	DCB	0x0
	DCB	0x0
	DCB	0x0
	DCB	0x0
	DCB	0x0
	DCB	0x0
	DCB	0x0
	DCB	0x0
	DCB	0x0
	DCB	0x0
	DCB	0x0
	DCB	0x0
	DCB	0x0
	DCB	0x0
	DCB	0x0
	DCB	0x0
	DCB	0x0
	DCB	0x0
	DCB	0x0
	DCB	0x0
	DCB	0x0
	DCB	0x0
	DCB	0x0
	DCB	0x0
	DCB	0x0
	DCB	0x0
	DCB	0x0
	DCB	0x0
	DCB	0x0
	DCB	0x0
	DCB	0x0
	DCB	0x0
	DCB	0x0
	DCB	0x0
	DCB	0x0
	DCB	0x0
	DCB	0x0
	DCB	0x0
	DCB	0x0
	DCB	0x0
	DCB	0x0
	DCB	0x0
	DCB	0x0
	DCB	0x0
	DCB	0x0
	DCB	0x0
	DCB	0x0
	DCB	0x0
	DCB	0x0
	DCB	0x0
	DCB	0x0
	DCB	0x0
	DCB	0x0
	DCB	0x0
	DCB	0x0
	DCB	0x0
	DCB	0x0
	DCB	0x0
	DCB	0x0
	DCB	0x0
	DCB	0x0
	DCB	0x0
	DCB	0x0
	DCB	0x0
	DCB	0x0
	DCB	0x0
	DCB	0x0
	DCB	0x0
	DCB	0x0
	DCB	0x0
	DCB	0x0
	DCB	0x0
	DCB	0x0
	DCB	0x0
	DCB	0x0
	DCB	0x0
	DCB	0x0
	DCB	0x0
	DCB	0x0
	DCB	0x0
	DCB	0x0
	DCB	0x0
	DCB	0x0
	DCB	0x0
	DCB	0x0
	DCB	0x0
	DCB	0x0
	DCB	0x0
	DCB	0x0
	DCB	0x0
	DCB	0x0
	DCB	0x0
	DCB	0x0
	DCB	0x0
	DCB	0x0
	DCB	0x0
	DCB	0x0
	DCB	0x0
	DCB	0x0
	DCB	0x0
	DCB	0x0
	DCB	0x0
	DCB	0x0
	DCB	0x0
	DCB	0x0
	DCB	0x0
	DCB	0x0
	DCB	0x0
	DCB	0x0
	DCB	0x0
	DCB	0x0
	DCB	0x0
	DCB	0x0
	DCB	0x0
	DCB	0x0
	DCB	0x0
	DCB	0x0
	DCB	0x0
	DCB	0x0
	DCB	0x0
	DCB	0x0
	DCB	0x0
	DCB	0x0
	DCB	0x0
	DCB	0x0
	DCB	0x0
	DCB	0x0
	DCB	0x0
	DCB	0x0
	DCB	0x0
	DCB	0x0
	DCB	0x0
	DCB	0x0
	DCB	0x0
	DCB	0x0
	DCB	0x0
	DCB	0x0
	DCB	0x0
	DCB	0x0
	DCB	0x0
	DCB	0x0
	DCB	0x0
	DCB	0x0
	DCB	0x0
	DCB	0x0
	DCB	0x0
	DCB	0x0
	DCB	0x0
	DCB	0x0
	DCB	0x0
	DCB	0x0
	DCB	0x0
	DCB	0x0
	DCB	0x0
	DCB	0x0
	DCB	0x0
	DCB	0x0
	DCB	0x0
	DCB	0x0
	DCB	0x0
	DCB	0x0
	DCB	0x0
	DCB	0x0
	DCB	0x0
	DCB	0x0
	DCB	0x0
	DCB	0x0
	DCB	0x0
	DCB	0x0
	DCB	0x0
	DCB	0x0
	DCB	0x0
	DCB	0x0
	DCB	0x0
	DCB	0x0
	DCB	0x0
	DCB	0x0
	DCB	0x0
	DCB	0x0
	DCB	0x0
	DCB	0x0
	DCB	0x0
	DCB	0x0
	DCB	0x0
	DCB	0x0
	DCB	0x0
	DCB	0x0
	DCB	0x0
	DCB	0x0
	DCB	0x0
	DCB	0x0
	DCB	0x0
	DCB	0x0
	DCB	0x0
	DCB	0x0
	DCB	0x0
	DCB	0x0
	DCB	0x0
	DCB	0x0
	DCB	0x0
	DCB	0x0
	DCB	0x0
	DCB	0x0
	DCB	0x0
	DCB	0x0
	DCB	0x0
	DCB	0x0
	DCB	0x0
	DCB	0x0
	DCB	0x0
	DCB	0x0
	DCB	0x0
	DCB	0x0
	DCB	0x0
	DCB	0x0
	DCB	0x0
	DCB	0x0
	DCB	0x0
	DCB	0x0
	DCB	0x0
	DCB	0x0
	DCB	0x0
	DCB	0x0
	DCB	0x0
	DCB	0x0
	DCB	0x0
	DCB	0x0
	DCB	0x0
	DCB	0x0
	DCB	0x0
	DCB	0x0
	DCB	0x0
	DCB	0x0
	DCB	0x0
	DCB	0x0
	DCB	0x0
	DCB	0x0
	DCB	0x0
	DCB	0x0
	DCB	0x0
	DCB	0x0
	DCB	0x0
	DCB	0x0
	DCB	0x0
	DCB	0x0
	DCB	0x0
	DCB	0x0
	DCB	0x0
	DCB	0x0
	DCB	0x0
	DCB	0x0
	DCB	0x0
	DCB	0x0
	DCB	0x0
	DCB	0x0
	DCB	0x0
	DCB	0x0
	DCB	0x0
	DCB	0x0
	DCB	0x0
	DCB	0x0
	DCB	0x0
	DCB	0x0
	DCB	0x0
	DCB	0x0
	DCB	0x0
	DCB	0x0
	DCB	0x0
	DCB	0x0
	DCB	0x0
	DCB	0x0
	DCB	0x0
	DCB	0x0
	DCB	0x0
	DCB	0x0
	DCB	0x0
	DCB	0x0
	DCB	0x0
	DCB	0x0
	DCB	0x0
	DCB	0x0
	DCB	0x0
	DCB	0x0
	DCB	0x0
	DCB	0x0
	DCB	0x0
	DCB	0x0
	DCB	0x0
	DCB	0x0
	DCB	0x0
	DCB	0x0
	DCB	0x0
	DCB	0x0
	DCB	0x0
	DCB	0x0
	DCB	0x0
	DCB	0x0
	DCB	0x0
	DCB	0x0
	DCB	0x0
	DCB	0x0
	DCB	0x0
	DCB	0x0
	DCB	0x0
	DCB	0x0
	DCB	0x0
	DCB	0x0
	DCB	0x0
	DCB	0x0
	DCB	0x0
	DCB	0x0
	DCB	0x0
	DCB	0x0
	DCB	0x0
	DCB	0x0
	DCB	0x0
	DCB	0x0
	DCB	0x0
	DCB	0x0
	DCB	0x0
	DCB	0x0
	DCB	0x0
	DCB	0x0
	DCB	0x0
	DCB	0x0
	DCB	0x0
	DCB	0x0
	DCB	0x0
	DCB	0x0
	DCB	0x0
	DCB	0x0
	DCB	0x0
	DCB	0x0
	DCB	0x0
	DCB	0x0
	DCB	0x0
	DCB	0x0
	DCB	0x0
	DCB	0x0
	DCB	0x0
	DCB	0x0
	DCB	0x0
	DCB	0x0
	DCB	0x0
	DCB	0x0
	DCB	0x0
	DCB	0x0
	DCB	0x0
	DCB	0x0
	DCB	0x0
	DCB	0x0
	DCB	0x0
	DCB	0x0
	DCB	0x0
	DCB	0x0
	DCB	0x0
	DCB	0x0
	DCB	0x0
	DCB	0x0
	DCB	0x0
	DCB	0x0
	DCB	0x0
	DCB	0x0
	DCB	0x0
	DCB	0x0
	DCB	0x0
	DCB	0x0
	DCB	0x0
	DCB	0x0
	DCB	0x0
	DCB	0x0
	DCB	0x0
	DCB	0x0
	DCB	0x0
	DCB	0x0
	DCB	0x0
	DCB	0x0
	DCB	0x0
	DCB	0x0
	DCB	0x0
	DCB	0x0
	DCB	0x0
	DCB	0x0
	DCB	0x0
	DCB	0x0
	DCB	0x0
	DCB	0x0
	DCB	0x0
	DCB	0x0
	DCB	0x0
	DCB	0x0
	DCB	0x0
	DCB	0x0
	DCB	0x0
	DCB	0x0
	DCB	0x0
	DCB	0x0
	DCB	0x0
	DCB	0x0
	DCB	0x0
	DCB	0x0
	DCB	0x0
	DCB	0x0
	DCB	0x0
	DCB	0x0
	DCB	0x0
	DCB	0x0
	DCB	0x0
	DCB	0x0
	DCB	0x0
	DCB	0x0
	DCB	0x0
	DCB	0x0
	DCB	0x0
	DCB	0x0
	DCB	0x0
	DCB	0x0
	DCB	0x0
	DCB	0x0
	DCB	0x0
	DCB	0x0
	DCB	0x0
	DCB	0x0
	DCB	0x0
	DCB	0x0
	DCB	0x0
	DCB	0x0
	DCB	0x0
	DCB	0x0
	DCB	0x0
	DCB	0x0
	DCB	0x0
	DCB	0x0
	DCB	0x0
	DCB	0x0
	DCB	0x0
	DCB	0x0
	DCB	0x0
	DCB	0x0
	DCB	0x0
	DCB	0x0
	DCB	0x0
	DCB	0x0
	DCB	0x0
	DCB	0x0
	DCB	0x0
	DCB	0x0
	DCB	0x0
	DCB	0x0
	DCB	0x0
	DCB	0x0
	DCB	0x0
	DCB	0x0
	DCB	0x0
	DCB	0x0
	DCB	0x0
	DCB	0x0
	DCB	0x0
	DCB	0x0
	DCB	0x0
	DCB	0x0
	DCB	0x0
	DCB	0x0
	DCB	0x0
	DCB	0x0
	DCB	0x0
	DCB	0x0
	DCB	0x0
	DCB	0x0
	DCB	0x0
	DCB	0x0
	DCB	0x0
	DCB	0x0
	DCB	0x0
	DCB	0x0
	DCB	0x0
	DCB	0x0
	DCB	0x0
	DCB	0x0
	DCB	0x0
	DCB	0x0
	DCB	0x0
	DCB	0x0
	DCB	0x0
	DCB	0x0
	DCB	0x0
	DCB	0x0
	DCB	0x0
	DCB	0x0
	DCB	0x0
	DCB	0x0
	DCB	0x0
	DCB	0x0
	DCB	0x0
	DCB	0x0
	DCB	0x0
	DCB	0x0
	DCB	0x0
	DCB	0x0
	DCB	0x0
	DCB	0x0
	DCB	0x0
	DCB	0x0
	DCB	0x0
	DCB	0x0
	DCB	0x0
	DCB	0x0
	DCB	0x0
	DCB	0x0
	DCB	0x0
	DCB	0x0
	DCB	0x0
	DCB	0x0
	DCB	0x0
	DCB	0x0
	DCB	0x0
	DCB	0x0
	DCB	0x0
	DCB	0x0
	DCB	0x0
	DCB	0x0
	DCB	0x0
	DCB	0x0
	DCB	0x0
	DCB	0x0
	DCB	0x0
	DCB	0x0
	DCB	0x0
	DCB	0x0
	DCB	0x0
	DCB	0x0
	DCB	0x0
	DCB	0x0
	DCB	0x0
	DCB	0x0
	DCB	0x0
	DCB	0x0
	DCB	0x0
	DCB	0x0
	DCB	0x0
	DCB	0x0
	DCB	0x0
	DCB	0x0
	DCB	0x0
	DCB	0x0
	DCB	0x0
	DCB	0x0
	DCB	0x0
	DCB	0x0
	DCB	0x0
	DCB	0x0
	DCB	0x0
	DCB	0x0
	DCB	0x0
	DCB	0x0
	DCB	0x0
	DCB	0x0
	DCB	0x0
	DCB	0x0
	DCB	0x0
	DCB	0x0
	DCB	0x0
	DCB	0x0
	DCB	0x0
	DCB	0x0
	DCB	0x0
	DCB	0x0
	DCB	0x0
	DCB	0x0
	DCB	0x0
	DCB	0x0
	DCB	0x0
	DCB	0x0
	DCB	0x0
	DCB	0x0
	DCB	0x0
	DCB	0x0
	DCB	0x0
	DCB	0x0
	DCB	0x0
	DCB	0x0
	DCB	0x0
	DCB	0x0
	DCB	0x0
	DCB	0x0
	DCB	0x0
	DCB	0x0
	DCB	0x0
	DCB	0x0
	DCB	0x0
	DCB	0x0
	DCB	0x0
	DCB	0x0
	DCB	0x0
	DCB	0x0
	DCB	0x0
	DCB	0x0
	DCB	0x0
	DCB	0x0
	DCB	0x0
	DCB	0x0
	DCB	0x0
	DCB	0x0
	DCB	0x0
	DCB	0x0
	DCB	0x0
	DCB	0x0
	DCB	0x0
	DCB	0x0
	DCB	0x0
	DCB	0x0
	DCB	0x0
	DCB	0x0
	DCB	0x0
	DCB	0x0
	DCB	0x0
	DCB	0x0
	DCB	0x0
	DCB	0x0
	DCB	0x0
	DCB	0x0
	DCB	0x0
	DCB	0x0
	DCB	0x0
	DCB	0x0
	DCB	0x0
	DCB	0x0
	DCB	0x0
	DCB	0x0
	DCB	0x0
	DCB	0x0
	DCB	0x0
	DCB	0x0
	DCB	0x0
	DCB	0x0
	DCB	0x0
	DCB	0x0
	DCB	0x0
	DCB	0x0
	DCB	0x0
	DCB	0x0
	DCB	0x0
	DCB	0x0
	DCB	0x0
	DCB	0x0
	DCB	0x0
	DCB	0x0
	DCB	0x0
	DCB	0x0
	DCB	0x0
	DCB	0x0
	DCB	0x0
	DCB	0x0
	DCB	0x0
	DCB	0x0
	DCB	0x0
	DCB	0x0
	DCB	0x0
	DCB	0x0
	DCB	0x0
	DCB	0x0
	DCB	0x0
	DCB	0x0
	DCB	0x0
	DCB	0x0
	DCB	0x0
	DCB	0x0
	DCB	0x0
	DCB	0x0
	DCB	0x0
	DCB	0x0
	DCB	0x0
	DCB	0x0
	DCB	0x0
	DCB	0x0
	DCB	0x0
	DCB	0x0
	DCB	0x0
	DCB	0x0
	DCB	0x0
	DCB	0x0
	DCB	0x0
	DCB	0x0
	DCB	0x0
	DCB	0x0
	DCB	0x0
	DCB	0x0
	DCB	0x0
	DCB	0x0
	DCB	0x0
	DCB	0x0
	DCB	0x0
	DCB	0x0
	DCB	0x0
	DCB	0x0
	DCB	0x0
	DCB	0x0
	DCB	0x0
	DCB	0x0
	DCB	0x0
	DCB	0x0
	DCB	0x0
	DCB	0x0
	DCB	0x0
	DCB	0x0
	DCB	0x0
	DCB	0x0
	DCB	0x0
	DCB	0x0
	DCB	0x0
	DCB	0x0
	DCB	0x0
	DCB	0x0
	DCB	0x0
	DCB	0x0
	DCB	0x0
	DCB	0x0
	DCB	0x0
	DCB	0x0
	DCB	0x0
	DCB	0x0
	DCB	0x0
	DCB	0x0
	DCB	0x0
	DCB	0x0
	DCB	0x0
	DCB	0x0
	DCB	0x0
	DCB	0x0
	DCB	0x0
	DCB	0x0
	DCB	0x0
	DCB	0x0
	DCB	0x0
	DCB	0x0
	DCB	0x0
	DCB	0x0
	DCB	0x0
	DCB	0x0
	DCB	0x0
	DCB	0x0
	DCB	0x0
	DCB	0x0
	DCB	0x0
	DCB	0x0
	DCB	0x0
	DCB	0x0
	DCB	0x0
	DCB	0x0
	DCB	0x0
	DCB	0x0
	DCB	0x0
	DCB	0x0
	DCB	0x0
	DCB	0x0
	DCB	0x0
	DCB	0x0
	DCB	0x0
	DCB	0x0
	DCB	0x0
	DCB	0x0
	DCB	0x0
	DCB	0x0
	DCB	0x0
	DCB	0x0
	DCB	0x0
	DCB	0x0
	DCB	0x0
	DCB	0x0
	DCB	0x0
	DCB	0x0
	DCB	0x0
	DCB	0x0
	DCB	0x0
	DCB	0x0
	DCB	0x0
	DCB	0x0
	DCB	0x0
	DCB	0x0
	DCB	0x0
	DCB	0x0
	DCB	0x0
	DCB	0x0
	DCB	0x0
	DCB	0x0
	DCB	0x0
	DCB	0x0
	DCB	0x0
	DCB	0x0
	DCB	0x0
	DCB	0x0
	DCB	0x0
	DCB	0x0
	DCB	0x0
	DCB	0x0
	DCB	0x0
	DCB	0x0
	DCB	0x0
	DCB	0x0
	DCB	0x0
	DCB	0x0
	DCB	0x0
	DCB	0x0
	DCB	0x0
	DCB	0x0
	DCB	0x0
	DCB	0x0
	DCB	0x0
	DCB	0x0
	DCB	0x0
	DCB	0x0
	DCB	0x0
	DCB	0x0
	DCB	0x0
	DCB	0x0
	DCB	0x0
	DCB	0x0
	DCB	0x0
	DCB	0x0
	DCB	0x0
	DCB	0x0
	DCB	0x0
	DCB	0x0
	DCB	0x0
	DCB	0x0
	DCB	0x0
	DCB	0x0
	DCB	0x0
	DCB	0x0
	DCB	0x0
	DCB	0x0
	DCB	0x0
	DCB	0x0
	DCB	0x0
	DCB	0x0
	DCB	0x0
	DCB	0x0
	DCB	0x0
	DCB	0x0
	DCB	0x0
	DCB	0x0
	DCB	0x0
	DCB	0x0
	DCB	0x0
	DCB	0x0
	DCB	0x0
	DCB	0x0
	DCB	0x0
	DCB	0x0
	DCB	0x0
	DCB	0x0
	DCB	0x0
	DCB	0x0
	DCB	0x0
	DCB	0x0
	DCB	0x0
	DCB	0x0
	DCB	0x0
	DCB	0x0
	DCB	0x0
	DCB	0x0
	DCB	0x0
	DCB	0x0
	DCB	0x0
	DCB	0x0
	DCB	0x0
	DCB	0x0
	DCB	0x0
	DCB	0x0
	DCB	0x0
	DCB	0x0
	DCB	0x0
	DCB	0x0
	DCB	0x0
	DCB	0x0
	DCB	0x0
	DCB	0x0
	DCB	0x0
	DCB	0x0
	DCB	0x0
	DCB	0x0
	DCB	0x0
	DCB	0x0
	DCB	0x0
	DCB	0x0
	DCB	0x0
	DCB	0x0
	DCB	0x0
	DCB	0x0
	DCB	0x0
	DCB	0x0
	DCB	0x0
	DCB	0x0
	DCB	0x0
	DCB	0x0
	DCB	0x0
	DCB	0x0
	DCB	0x0
	DCB	0x0
	DCB	0x0
	DCB	0x0
	DCB	0x0
	DCB	0x0
	DCB	0x0
	DCB	0x0
	DCB	0x0
	DCB	0x0
	DCB	0x0
	DCB	0x0
	DCB	0x0
	DCB	0x0
	DCB	0x0
	DCB	0x0
	DCB	0x0
	DCB	0x0
	DCB	0x0
	DCB	0x0
	DCB	0x0
	DCB	0x0
	DCB	0x0
	DCB	0x0
	DCB	0x0
	DCB	0x0
	DCB	0x0
	DCB	0x0
	DCB	0x0
	DCB	0x0
	DCB	0x0
	DCB	0x0
	DCB	0x0
	DCB	0x0
	DCB	0x0
	DCB	0x0
	DCB	0x0
	DCB	0x0
	DCB	0x0
	DCB	0x0
	DCB	0x0
	DCB	0x0
	DCB	0x0
	DCB	0x0
	DCB	0x0
	DCB	0x0
	DCB	0x0
	DCB	0x0
	DCB	0x0
	DCB	0x0
	DCB	0x0
	DCB	0x0
	DCB	0x0
	DCB	0x0
	DCB	0x0
	DCB	0x0
	DCB	0x0
	DCB	0x0
	DCB	0x0
	DCB	0x0
	DCB	0x0
	DCB	0x0
	DCB	0x0
	DCB	0x0
	DCB	0x0
	DCB	0x0
	DCB	0x0
	DCB	0x0
	DCB	0x0
	DCB	0x0
	DCB	0x0
	DCB	0x0
	DCB	0x0
	DCB	0x0
	DCB	0x0
	DCB	0x0
	DCB	0x0
	DCB	0x0
	DCB	0x0
	DCB	0x0
	DCB	0x0
	DCB	0x0
	DCB	0x0
	DCB	0x0
	DCB	0x0
	DCB	0x0
	DCB	0x0
	DCB	0x0
	DCB	0x0
	DCB	0x0
	DCB	0x0
	DCB	0x0
	DCB	0x0
	DCB	0x0
	DCB	0x0
	DCB	0x0
	DCB	0x0
	DCB	0x0
	DCB	0x0
	DCB	0x0
	DCB	0x0
	DCB	0x0
	DCB	0x0
	DCB	0x0
	DCB	0x0
	DCB	0x0
	DCB	0x0
	DCB	0x0
	DCB	0x0
	DCB	0x0
	DCB	0x0
	DCB	0x0
	DCB	0x0
	DCB	0x0
	DCB	0x0
	DCB	0x0
	DCB	0x0
	DCB	0x0
	DCB	0x0
	DCB	0x0
	DCB	0x0
	DCB	0x0
	DCB	0x0
	DCB	0x0
	DCB	0x0
	DCB	0x0
	DCB	0x0
	DCB	0x0
	DCB	0x0
	DCB	0x0
	DCB	0x0
	DCB	0x0

  00000			 AREA	 |.data|, DATA
|?PANEL_WIDTH@@3IA| DCD 0x140				; PANEL_WIDTH
|?PANEL_HEIGHT@@3IA| DCD 0xf0				; PANEL_HEIGHT
|g_wFontColor| DCD 0x8000
	EXPORT	|?InitGraphicsEngine@@YAHIIPAEK@Z|	; InitGraphicsEngine

  00020			 AREA	 |.bss|, NOINIT
|g_nBpp| %	0x4
|g_nBpp| %	0x4
; File c:\wince600\platform\z2170p\src\bootloader\display\graphic_engine.cpp

  00000			 AREA	 |.pdata|, PDATA
|$T41143| DCD	|$LN6@InitGraphi|
	DCD	0x40001401
; Function compile flags: /Ogspy

  00000			 AREA	 |.text|, CODE, ARM

  00000		 |?InitGraphicsEngine@@YAHIIPAEK@Z| PROC ; InitGraphicsEngine

; 564  : {

  00000		 |$LN6@InitGraphi|
  00000	e92d4030	 stmdb       sp!, {r4, r5, lr}
  00004		 |$M41140|
  00004	e1a04003	 mov         r4, r3
  00008	e1a0e001	 mov         lr, r1

; 565  : 	UINT checkbpp = 24;
; 566  : 	if(nBpp != (PUCHAR)checkbpp)

  0000c	e3520018	 cmp         r2, #0x18

; 567  : 		return FALSE;

  00010	13a00000	 movne       r0, #0

; 579  : }

  00014	18bd4030	 ldmneia     sp!, {r4, r5, lr}
  00018	112fff1e	 bxne        lr

; 568  : 
; 569  : 	g_nWidth  = nWidth;

  0001c	e59f1028	 ldr         r1, [pc, #0x28]

; 570  : 	g_nHeight = nHeight;
; 571  : 
; 572  : 	g_nColMax = g_nWidth  / FONT_WIDTH;

  00020	e1a031a0	 mov         r3, r0, lsr #3

; 573  : 	g_nRowMax = g_nHeight / FONT_HEIGHT;

  00024	e1a0222e	 mov         r2, lr, lsr #4

; 574  : 	
; 575  : 	g_nBpp = nBpp;  

  00028	e3a05018	 mov         r5, #0x18
  0002c	e281c008	 add         r12, r1, #8
  00030	e88c0009	 stmia       r12, {r0, r3}
  00034	e5812010	 str         r2, [r1, #0x10]
  00038	e8814020	 stmia       r1, {r5, lr}

; 576  : 	g_dwFrameBuffer = (volatile DWORD *) dwFrameBuffer;

  0003c	e5814018	 str         r4, [r1, #0x18]

; 577  : 	
; 578  : 	return TRUE;

  00040	e3a00001	 mov         r0, #1

; 579  : }

  00044	e8bd4030	 ldmia       sp!, {r4, r5, lr}
  00048	e12fff1e	 bx          lr
  0004c		 |$LN7@InitGraphi|
  0004c		 |$LN8@InitGraphi|
  0004c	00000000	 DCD         |g_nBpp|
  00050		 |$M41141|

			 ENDP  ; |?InitGraphicsEngine@@YAHIIPAEK@Z|, InitGraphicsEngine

	EXPORT	|?FillColorBar@@YAXHHHHK@Z|		; FillColorBar

  00000			 AREA	 |.pdata|, PDATA
|$T41164| DCD	|$LN17@FillColorB|
	DCD	0x40001d01
; Function compile flags: /Ogspy

  00000			 AREA	 |.text|, CODE, ARM

  00000		 |?FillColorBar@@YAXHHHHK@Z| PROC	; FillColorBar

; 582  : {

  00000		 |$LN17@FillColorB|
  00000	e92d40f0	 stmdb       sp!, {r4 - r7, lr}
  00004		 |$M41161|
  00004	e1a05003	 mov         r5, r3
  00008	e1a06002	 mov         r6, r2

; 583  : 	volatile DWORD *lpFBuffer = g_dwFrameBuffer + (PANEL_WIDTH*yPos) + xPos;

  0000c	e59f705c	 ldr         r7, [pc, #0x5C]
  00010	e59fe054	 ldr         lr, [pc, #0x54]

; 584  : 
; 585  : 	int y,x;
; 586  : 	DIRECT bounds;
; 587  : 
; 588  : 	bounds.left		= xPos;
; 589  : 	bounds.top		= yPos;
; 590  : 	bounds.right	= xPos + PANEL_WIDTH;
; 591  : 	bounds.bottom  	= yPos + dWidth;
; 592  : 
; 593  : 	for(y = 0; y < dHigh; y++)

  00014	e3550000	 cmp         r5, #0
  00018	e5974000	 ldr         r4, [r7]
  0001c	e59ee000	 ldr         lr, [lr]
  00020	e0210194	 mla         r1, r4, r1, r0
  00024	e08e1101	 add         r1, lr, r1, lsl #2
  00028	da00000d	 ble         |$LN4@FillColorB|
  0002c	e59d0014	 ldr         r0, [sp, #0x14]
  00030		 |$LL6@FillColorB|

; 594  : 	{
; 595  : 		for(x = 0; x < dWidth; x++){

  00030	e3560000	 cmp         r6, #0
  00034	da000007	 ble         |$LN14@FillColorB|
  00038	e1a03001	 mov         r3, r1
  0003c	e1b02006	 movs        r2, r6
  00040	0a000004	 beq         |$LN14@FillColorB|
  00044	e0812102	 add         r2, r1, r2, lsl #2
  00048		 |$LN13@FillColorB|
  00048	e4830004	 str         r0, [r3], #4
  0004c	e1530002	 cmp         r3, r2
  00050	1afffffc	 bne         |$LN13@FillColorB|
  00054	e5974000	 ldr         r4, [r7]
  00058		 |$LN14@FillColorB|

; 596  : 			*(DWORD *) (lpFBuffer+x) = wColor;
; 597  : 		}
; 598  : 		lpFBuffer += PANEL_WIDTH;

  00058	e0811104	 add         r1, r1, r4, lsl #2
  0005c	e2555001	 subs        r5, r5, #1
  00060	1afffff2	 bne         |$LL6@FillColorB|
  00064		 |$LN4@FillColorB|

; 599  : 	}
; 600  : 	
; 601  : 	//Fill24BitColorBuffer((PWORD)(g_dwFrameBuffer + (PANEL_WIDTH*yPos)) , 0, yPos, (PANEL_WIDTH*dHigh));	
; 602  : }

  00064	e8bd40f0	 ldmia       sp!, {r4 - r7, lr}
  00068	e12fff1e	 bx          lr
  0006c		 |$LN18@FillColorB|
  0006c		 |$LN19@FillColorB|
  0006c	00000000	 DCD         |g_dwFrameBuffer|
  00070		 |$LN20@FillColorB|
  00070	00000000	 DCD         |?PANEL_WIDTH@@3IA|
  00074		 |$M41162|

			 ENDP  ; |?FillColorBar@@YAXHHHHK@Z|, FillColorBar

	EXPORT	|?FillColor@@YAXK@Z|			; FillColor

  00000			 AREA	 |.pdata|, PDATA
|$T41179| DCD	|$LN10@FillColor|
	DCD	0x40000f01
; Function compile flags: /Ogspy

  00000			 AREA	 |.text|, CODE, ARM

  00000		 |?FillColor@@YAXK@Z| PROC		; FillColor

; 605  : {

  00000		 |$LN10@FillColor|
  00000	e52de004	 str         lr, [sp, #-4]!
  00004		 |$M41176|

; 606  : 	volatile DWORD *mem = g_dwFrameBuffer;

  00004	e59f202c	 ldr         r2, [pc, #0x2C]

; 607  : 	int i,size;
; 608  : 
; 609  : 	DIRECT bounds;
; 610  : 	g_wBkColor = wColor;
; 611  : 
; 612  : 	bounds.left   = 0;
; 613  : 	bounds.top    = 0;
; 614  : 	bounds.right  = PANEL_WIDTH;
; 615  : 	bounds.bottom = PANEL_HEIGHT;
; 616  : 
; 617  : 	size = g_nWidth * g_nHeight;

  00008	e5921000	 ldr         r1, [r2]
  0000c	e5923004	 ldr         r3, [r2, #4]
  00010	e592e014	 ldr         lr, [r2, #0x14]
  00014	e5820010	 str         r0, [r2, #0x10]
  00018	e0030391	 mul         r3, r1, r3

; 618  : 	for(i = 0; i < size; i ++) {

  0001c	e3530000	 cmp         r3, #0
  00020	da000002	 ble         |$LN1@FillColor|
  00024		 |$LL3@FillColor|

; 619  :         *mem = wColor;

  00024	e48e0004	 str         r0, [lr], #4
  00028	e2533001	 subs        r3, r3, #1
  0002c	1afffffc	 bne         |$LL3@FillColor|
  00030		 |$LN1@FillColor|

; 620  :         	mem++;
; 621  :     }
; 622  : 	//Fill24BitColorBuffer((PWORD)FRAME_BUFFER_PHYSICAL_ADDRESS, 0, 0, SCREEM_PIXEL);
; 623  : }

  00030	e49de004	 ldr         lr, [sp], #4
  00034	e12fff1e	 bx          lr
  00038		 |$LN11@FillColor|
  00038		 |$LN12@FillColor|
  00038	00000000	 DCD         |g_nHeight|
  0003c		 |$M41177|

			 ENDP  ; |?FillColor@@YAXK@Z|, FillColor

	EXPORT	|?FillASCII@@YAXHHE@Z|			; FillASCII

  00000			 AREA	 |.pdata|, PDATA
|$T41198| DCD	|$LN18@FillASCII|
	DCD	0x40002501
; Function compile flags: /Ogspy

  00000			 AREA	 |.text|, CODE, ARM

  00000		 |?FillASCII@@YAXHHE@Z| PROC		; FillASCII

; 626  : {

  00000		 |$LN18@FillASCII|
  00000	e92d43f0	 stmdb       sp!, {r4 - r9, lr}
  00004		 |$M41195|

; 627  :     volatile DWORD *mem = g_dwFrameBuffer;
; 628  :     int i, j;
; 629  : 	unsigned int ttbit;
; 630  :     int p = 8;

  00004	e59fe084	 ldr         lr, [pc, #0x84]
  00008	e59f507c	 ldr         r5, [pc, #0x7C]
  0000c	e59f4074	 ldr         r4, [pc, #0x74]
  00010	e59e7000	 ldr         r7, [lr]

; 631  :     unsigned long offset;
; 632  :     int offh, offw;
; 633  :     unsigned char bit;
; 634  : 
; 635  :     offw = FONT_WIDTH * Col;

  00014	e59e6010	 ldr         r6, [lr, #0x10]
  00018	e59e800c	 ldr         r8, [lr, #0xC]
  0001c	e0030097	 mul         r3, r7, r0
  00020	e1a01181	 mov         r1, r1, lsl #3
  00024	e5949000	 ldr         r9, [r4]
  00028	e0810203	 add         r0, r1, r3, lsl #4
  0002c	e085e202	 add         lr, r5, r2, lsl #4
  00030	e3a01008	 mov         r1, #8
  00034	e3a04010	 mov         r4, #0x10
  00038	e3a05001	 mov         r5, #1
  0003c		 |$LL9@FillASCII|

; 636  :     
; 637  :     for(i=0; i<16; i++) 
; 638  : 	{
; 639  :         offh = FONT_HEIGHT * Row + i;
; 640  :  		for (j=0; j<8; j++) 

  0003c	e3a02000	 mov         r2, #0
  00040		 |$LL6@FillASCII|

; 641  :         {
; 642  :             ttbit = 1 << j;
; 643  : 			bit = (unsigned char)ttbit;
; 644  :             bit &= asciiFont[c][i];
; 645  : 			offset = g_nWidth * offh + offw;
; 646  :             
; 647  :             if (!bit) {							//Non-zero is Running

  00040	e5de3000	 ldrb        r3, [lr]
  00044	e1130215	 tst         r3, r5, lsl r2

; 648  :         	  	mem[ p + offset ] = g_wBkColor;

  00048	e0803001	 add         r3, r0, r1
  0004c	e0863103	 add         r3, r6, r3, lsl #2
  00050	05838000	 streq       r8, [r3]

; 649  :                 p--;

  00054	e2411001	 sub         r1, r1, #1

; 650  :             }else {
; 651  :                 mem[ p + offset ] = g_wFontColor;

  00058	15839000	 strne       r9, [r3]

; 652  :                 p--;
; 653  :             }
; 654  :             
; 655  :             if(p == 0){

  0005c	e3510000	 cmp         r1, #0
  00060	e2822001	 add         r2, r2, #1

; 656  :                 p = 8;

  00064	03a01008	 moveq       r1, #8
  00068	e3520008	 cmp         r2, #8
  0006c	bafffff3	 blt         |$LL6@FillASCII|
  00070	e0800007	 add         r0, r0, r7
  00074	e28ee001	 add         lr, lr, #1
  00078	e2544001	 subs        r4, r4, #1
  0007c	1affffee	 bne         |$LL9@FillASCII|

; 657  :             }
; 658  :         }
; 659  :     }
; 660  : }

  00080	e8bd43f0	 ldmia       sp!, {r4 - r9, lr}
  00084	e12fff1e	 bx          lr
  00088		 |$LN19@FillASCII|
  00088		 |$LN20@FillASCII|
  00088	00000000	 DCD         |g_wFontColor|
  0008c		 |$LN21@FillASCII|
  0008c	00000000	 DCD         |asciiFont|
  00090		 |$LN22@FillASCII|
  00090	00000000	 DCD         |g_nWidth|
  00094		 |$M41196|

			 ENDP  ; |?FillASCII@@YAXHHE@Z|, FillASCII

	EXPORT	|?MoveLineUp@@YAXXZ|			; MoveLineUp
	IMPORT	|memcpy|

  00000			 AREA	 |.pdata|, PDATA
|$T41216| DCD	|$LN14@MoveLineUp|
	DCD	0x40001a01
; Function compile flags: /Ogspy

  00000			 AREA	 |.text|, CODE, ARM

  00000		 |?MoveLineUp@@YAXXZ| PROC		; MoveLineUp

; 663  : {

  00000		 |$LN14@MoveLineUp|
  00000	e92d41f0	 stmdb       sp!, {r4 - r8, lr}
  00004		 |$M41213|

; 664  :     DWORD sizeof_line = g_nWidth * FONT_HEIGHT;

  00004	e59f7058	 ldr         r7, [pc, #0x58]
  00008	e5973000	 ldr         r3, [r7]

; 665  :     volatile DWORD   *src;
; 666  :     volatile DWORD   *dest;
; 667  :     DWORD    i;
; 668  : 
; 669  :     dest = g_dwFrameBuffer;

  0000c	e5975010	 ldr         r5, [r7, #0x10]

; 670  :     src = dest + sizeof_line;
; 671  :     i = 0;
; 672  : 
; 673  :     while ( i < g_nRowMax - 1) 

  00010	e5972008	 ldr         r2, [r7, #8]
  00014	e1a04203	 mov         r4, r3, lsl #4
  00018	e0853104	 add         r3, r5, r4, lsl #2
  0001c	e2528001	 subs        r8, r2, #1
  00020	0a000007	 beq         |$LN4@MoveLineUp|
  00024	e0436005	 sub         r6, r3, r5
  00028		 |$LL5@MoveLineUp|

; 674  :     {
; 675  :         memcpy((PVOID) dest, (PVOID) src, sizeof_line * sizeof(DWORD));

  00028	e1a02104	 mov         r2, r4, lsl #2
  0002c	e0861005	 add         r1, r6, r5
  00030	e1a00005	 mov         r0, r5
  00034	eb000000	 bl          memcpy

; 676  : 
; 677  :         i++;
; 678  :         dest += sizeof_line;

  00038	e0855104	 add         r5, r5, r4, lsl #2
  0003c	e2588001	 subs        r8, r8, #1
  00040	1afffff8	 bne         |$LL5@MoveLineUp|
  00044		 |$LN4@MoveLineUp|

; 679  :         src  += sizeof_line;
; 680  :     }
; 681  : 
; 682  :     for (i = 0; i < sizeof_line; i ++)				

  00044	e3540000	 cmp         r4, #0
  00048	0a000003	 beq         |$LN1@MoveLineUp|
  0004c	e597300c	 ldr         r3, [r7, #0xC]
  00050		 |$LL3@MoveLineUp|

; 683  :         *dest = g_wBkColor;							//let it "g_wBkColor" value = *dest, until to "sizeof_line"  			

  00050	e5853000	 str         r3, [r5]
  00054	e2544001	 subs        r4, r4, #1
  00058	1afffffc	 bne         |$LL3@MoveLineUp|
  0005c		 |$LN1@MoveLineUp|

; 684  : }

  0005c	e8bd41f0	 ldmia       sp!, {r4 - r8, lr}
  00060	e12fff1e	 bx          lr
  00064		 |$LN15@MoveLineUp|
  00064		 |$LN16@MoveLineUp|
  00064	00000000	 DCD         |g_nWidth|
  00068		 |$M41214|

			 ENDP  ; |?MoveLineUp@@YAXXZ|, MoveLineUp

	EXPORT	|?SetFontColor@@YAXK@Z|			; SetFontColor

  00000			 AREA	 |.pdata|, PDATA
|$T41226| DCD	|$LN5@SetFontCol|
	DCD	0x40000400
; Function compile flags: /Ogspy

  00000			 AREA	 |.text|, CODE, ARM

  00000		 |?SetFontColor@@YAXK@Z| PROC		; SetFontColor

; 690  : {

  00000		 |$LN5@SetFontCol|
  00000		 |$M41223|

; 691  :     g_wFontColor = wColor;

  00000	e59f3004	 ldr         r3, [pc, #4]
  00004	e5830000	 str         r0, [r3]

; 692  : }

  00008	e12fff1e	 bx          lr
  0000c		 |$LN6@SetFontCol|
  0000c		 |$LN7@SetFontCol|
  0000c	00000000	 DCD         |g_wFontColor|
  00010		 |$M41224|

			 ENDP  ; |?SetFontColor@@YAXK@Z|, SetFontColor

	EXPORT	|?GL_SetBkColor@@YAXK@Z|		; GL_SetBkColor

  00000			 AREA	 |.pdata|, PDATA
|$T41236| DCD	|$LN5@GL_SetBkCo|
	DCD	0x40000400
; Function compile flags: /Ogspy

  00000			 AREA	 |.text|, CODE, ARM

  00000		 |?GL_SetBkColor@@YAXK@Z| PROC		; GL_SetBkColor

; 695  : {

  00000		 |$LN5@GL_SetBkCo|
  00000		 |$M41233|

; 696  :     g_wBkColor = bk;

  00000	e59f3004	 ldr         r3, [pc, #4]
  00004	e5830000	 str         r0, [r3]

; 697  : }

  00008	e12fff1e	 bx          lr
  0000c		 |$LN6@GL_SetBkCo|
  0000c		 |$LN7@GL_SetBkCo|
  0000c	00000000	 DCD         |g_wBkColor|
  00010		 |$M41234|

			 ENDP  ; |?GL_SetBkColor@@YAXK@Z|, GL_SetBkColor

	EXPORT	|?GL_SetCursor@@YAXHH@Z|		; GL_SetCursor

  00000			 AREA	 |.pdata|, PDATA
|$T41247| DCD	|$LN5@GL_SetCurs|
	DCD	0x40000500
; Function compile flags: /Ogspy

  00000			 AREA	 |.text|, CODE, ARM

  00000		 |?GL_SetCursor@@YAXHH@Z| PROC		; GL_SetCursor

; 700  : {

  00000		 |$LN5@GL_SetCurs|
  00000		 |$M41244|

; 701  :     cur_col = col;

  00000	e59f3008	 ldr         r3, [pc, #8]
  00004	e5830004	 str         r0, [r3, #4]

; 702  :     cur_row = row;

  00008	e5831000	 str         r1, [r3]

; 703  : }

  0000c	e12fff1e	 bx          lr
  00010		 |$LN6@GL_SetCurs|
  00010		 |$LN7@GL_SetCurs|
  00010	00000000	 DCD         |cur_row|
  00014		 |$M41245|

			 ENDP  ; |?GL_SetCursor@@YAXHH@Z|, GL_SetCursor

	EXPORT	|?PrintString@@YAXPAD@Z|		; PrintString

  00000			 AREA	 |.pdata|, PDATA
|$T41260| DCD	|$LN21@PrintStrin|
	DCD	0x40002b01
; Function compile flags: /Ogspy

  00000			 AREA	 |.text|, CODE, ARM

  00000		 |?PrintString@@YAXPAD@Z| PROC		; PrintString

; 706  : {

  00000		 |$LN21@PrintStrin|
  00000	e92d43f0	 stmdb       sp!, {r4 - r9, lr}
  00004		 |$M41257|
  00004	e1a07000	 mov         r7, r0

; 707  : 	DIRECT bounds;
; 708  : 
; 709  : 	bounds.left   = 0;
; 710  : 	bounds.top    = 0;
; 711  : 	bounds.right  = PANEL_WIDTH;
; 712  : 	bounds.bottom = PANEL_HEIGHT;
; 713  : 
; 714  : 	while(*s){

  00008	e1d710d0	 ldrsb       r1, [r7]
  0000c	e1b02001	 movs        r2, r1
  00010	0a000022	 beq         |$LN12@PrintStrin|
  00014	e59f508c	 ldr         r5, [pc, #0x8C]
  00018	e5953004	 ldr         r3, [r5, #4]
  0001c	e5958000	 ldr         r8, [r5]
  00020	e5954014	 ldr         r4, [r5, #0x14]
  00024	e5956010	 ldr         r6, [r5, #0x10]
  00028	e2439002	 sub         r9, r3, #2
  0002c		 |$LL13@PrintStrin|

; 715  : 		if(*s == '\n'){

  0002c	e352000a	 cmp         r2, #0xA

; 716  : 			cur_col = g_nColMax - 1;/* new line */

  00030	02484001	 subeq       r4, r8, #1
  00034	0a000009	 beq         |$LN4@PrintStrin|

; 717  :         }else if(*s == '\r'){

  00038	e352000d	 cmp         r2, #0xD

; 718  :         	cur_col = 0;

  0003c	03a04000	 moveq       r4, #0
  00040	0a000012	 beq         |$next_char$41048|

; 719  :             goto next_char;
; 720  :         }else if (*s == '\b'){

  00044	e3520008	 cmp         r2, #8

; 721  :         	cur_col --;

  00048	02444001	 subeq       r4, r4, #1
  0004c	0a00000e	 beq         |$LN18@PrintStrin|

; 722  :             goto next_char;
; 723  : 		}else{
; 724  : 			FillASCII(cur_row, cur_col, *s);

  00050	e20120ff	 and         r2, r1, #0xFF
  00054	e1a01004	 mov         r1, r4
  00058	e1a00006	 mov         r0, r6
  0005c	eb000000	 bl          |?FillASCII@@YAXHHE@Z|
  00060		 |$LN4@PrintStrin|

; 725  : 		}
; 726  : 	
; 727  : 		cur_col++;

  00060	e2844001	 add         r4, r4, #1
  00064	e5854014	 str         r4, [r5, #0x14]

; 728  :         if (cur_col == (int)g_nColMax) //MM

  00068	e1540008	 cmp         r4, r8
  0006c	1a000007	 bne         |$next_char$41048|

; 729  : 		{
; 730  :             if (cur_row == (int)g_nRowMax-2) //MM 

  00070	e1560009	 cmp         r6, r9
  00074	1a000001	 bne         |$LN2@PrintStrin|

; 731  : 			{
; 732  :                 MoveLineUp();

  00078	eb000000	 bl          |?MoveLineUp@@YAXXZ|

; 733  :             }else{

  0007c	ea000001	 b           |$LN1@PrintStrin|
  00080		 |$LN2@PrintStrin|

; 734  :                 cur_row++;

  00080	e2866001	 add         r6, r6, #1
  00084	e5856010	 str         r6, [r5, #0x10]
  00088		 |$LN1@PrintStrin|

; 735  :             }
; 736  :             cur_col = 0;

  00088	e3a04000	 mov         r4, #0
  0008c		 |$LN18@PrintStrin|
  0008c	e5854014	 str         r4, [r5, #0x14]
  00090		 |$next_char$41048|
  00090	e1f710d1	 ldrsb       r1, [r7, #1]!
  00094	e1b02001	 movs        r2, r1
  00098	1affffe3	 bne         |$LL13@PrintStrin|

; 718  :         	cur_col = 0;

  0009c	e5854014	 str         r4, [r5, #0x14]
  000a0		 |$LN12@PrintStrin|

; 737  :         }
; 738  : next_char:
; 739  :        s++;
; 740  : 	}
; 741  : }

  000a0	e8bd43f0	 ldmia       sp!, {r4 - r9, lr}
  000a4	e12fff1e	 bx          lr
  000a8		 |$LN22@PrintStrin|
  000a8		 |$LN23@PrintStrin|
  000a8	00000000	 DCD         |g_nColMax|
  000ac		 |$M41258|

			 ENDP  ; |?PrintString@@YAXPAD@Z|, PrintString

	EXPORT	|__$ArrayPad$| [ DATA ]
	EXPORT	|?MapToHex@@YAPADKH@Z|			; MapToHex
	IMPORT	|__GSHandlerCheck|
	IMPORT	|__security_cookie|
	IMPORT	|__security_check_cookie|

  00000			 AREA	 |.pdata|, PDATA
|$T41281| DCD	|$LN13@MapToHex|
	DCD	0xc0001a02

  00000			 AREA	 |.xdata|, DATA
|$T41277| DCD	0xfffffff8
; Function compile flags: /Ogspy

  00000			 AREA	 |.text|, CODE, ARM

  00000	00000000	 DCD         |__GSHandlerCheck|
  00004	00000000	 DCD         |$T41277|

  00008		 |?MapToHex@@YAPADKH@Z| PROC		; MapToHex

; 744  : {	

  00008		 |$LN13@MapToHex|
  00008	e52de004	 str         lr, [sp, #-4]!
  0000c	e24ddf42	 sub         sp, sp, #0x42, 30
  00010		 |$M41278|
  00010	e59f3054	 ldr         r3, [pc, #0x54]
  00014	e5933000	 ldr         r3, [r3]
  00018	e58d3104	 str         r3, [sp, #0x104]

; 745  :   char str[MAX_PATH];
; 746  :   int  index;
; 747  :   
; 748  :   	for(index = 0; index < Unit; index++)

  0001c	e3510000	 cmp         r1, #0
  00020	da00000b	 ble         |$LN3@MapToHex|
  00024	e28d3000	 add         r3, sp, #0
  00028	e0812003	 add         r2, r1, r3
  0002c		 |$LL5@MapToHex|

; 749  :   	{
; 750  :          if( (value & 0xf) < 10)

  0002c	e200300f	 and         r3, r0, #0xF
  00030	e353000a	 cmp         r3, #0xA

; 751  :             str[Unit-1 - index] = (char)( (value&0xf)+'0');         

  00034	32833030	 addcc       r3, r3, #0x30

; 752  :          else
; 753  :             str[Unit-1 - index] = (char)( (value&0xf-10)+'A');                 

  00038	22003005	 andcs       r3, r0, #5
  0003c	22833041	 addcs       r3, r3, #0x41
  00040	e5423001	 strb        r3, [r2, #-1]

; 754  :          
; 755  :          value = value>>4;

  00044	e2422001	 sub         r2, r2, #1
  00048	e1a00220	 mov         r0, r0, lsr #4
  0004c	e2511001	 subs        r1, r1, #1
  00050	1afffff5	 bne         |$LL5@MapToHex|
  00054		 |$LN3@MapToHex|

; 756  :     }          
; 757  :    return &str[0];

  00054	e59d0104	 ldr         r0, [sp, #0x104]
  00058	eb000000	 bl          __security_check_cookie
  0005c	e28d0000	 add         r0, sp, #0

; 758  : }

  00060	e28ddf42	 add         sp, sp, #0x42, 30
  00064	e49de004	 ldr         lr, [sp], #4
  00068	e12fff1e	 bx          lr
  0006c		 |$LN14@MapToHex|
  0006c		 |$LN15@MapToHex|
  0006c	00000000	 DCD         |__security_cookie|
  00070		 |$M41279|

			 ENDP  ; |?MapToHex@@YAPADKH@Z|, MapToHex

	EXPORT	|__$ArrayPad$| [ DATA ]
	EXPORT	|?MapToInt@@YAPADK@Z|			; MapToInt

  00000			 AREA	 |.pdata|, PDATA
|$T41302| DCD	|$LN14@MapToInt|
	DCD	0xc0002902

  00000			 AREA	 |.xdata|, DATA
|$T41298| DCD	0xfffffff0
; Function compile flags: /Ogspy

  00000			 AREA	 |.text|, CODE, ARM

  00000	00000000	 DCD         |__GSHandlerCheck|
  00004	00000000	 DCD         |$T41298|

  00008		 |?MapToInt@@YAPADK@Z| PROC		; MapToInt

; 761  : {

  00008		 |$LN14@MapToInt|
  00008	e92d4030	 stmdb       sp!, {r4, r5, lr}
  0000c	e24ddf83	 sub         sp, sp, #0x83, 30
  00010		 |$M41299|
  00010	e3500000	 cmp         r0, #0
  00014	e59f308c	 ldr         r3, [pc, #0x8C]
  00018	e5933000	 ldr         r3, [r3]
  0001c	e58d3208	 str         r3, [sp, #0x208]

; 762  : 	 char str[MAX_PATH];	
; 763  : 	 char StrInt[MAX_PATH];
; 764  : 	 char cINT;
; 765  : 	 int  num,index=0;	 

  00020	e3a0e000	 mov         lr, #0

; 766  : 	 while(value)

  00024	0a00000a	 beq         |$LN4@MapToInt|
  00028	e59f4074	 ldr         r4, [pc, #0x74]
  0002c	e28d5f41	 add         r5, sp, #0x41, 30
  00030		 |$LL5@MapToInt|

; 767  :      {        	
; 768  :       	cINT = (char)(value%10) + '0';                

  00030	e0832490	 umull       r2, r3, r0, r4
  00034	e1a011a3	 mov         r1, r3, lsr #3
  00038	e0813101	 add         r3, r1, r1, lsl #2

; 769  :          str[index] = cINT;

  0003c	e0403083	 sub         r3, r0, r3, lsl #1
  00040	e2833030	 add         r3, r3, #0x30
  00044	e7ce3005	 strb        r3, [lr, +r5]

; 770  :          value/=10;
; 771  :          index++;

  00048	e28ee001	 add         lr, lr, #1
  0004c	e1b00001	 movs        r0, r1
  00050	1afffff6	 bne         |$LL5@MapToInt|
  00054		 |$LN4@MapToInt|

; 772  :      }
; 773  :     	    
; 774  :    	for(num = 0; num<index; num++)

  00054	e3a02000	 mov         r2, #0
  00058	e35e0000	 cmp         lr, #0
  0005c	da000007	 ble         |$LN1@MapToInt|
  00060	e28d3f41	 add         r3, sp, #0x41, 30
  00064	e08e1003	 add         r1, lr, r3
  00068	e28d0000	 add         r0, sp, #0
  0006c		 |$LL3@MapToInt|

; 775  :     {      	
; 776  :        StrInt[num] = str[index-1 - num];

  0006c	e17130d1	 ldrsb       r3, [r1, #-1]!
  00070	e7c23000	 strb        r3, [r2, +r0]
  00074	e2822001	 add         r2, r2, #1
  00078	e152000e	 cmp         r2, lr
  0007c	bafffffa	 blt         |$LL3@MapToInt|
  00080		 |$LN1@MapToInt|

; 777  :     }   
; 778  :      	StrInt[index]='\0';         

  00080	e28d3000	 add         r3, sp, #0
  00084	e3a02000	 mov         r2, #0
  00088	e7ce2003	 strb        r2, [lr, +r3]

; 779  : 		return &StrInt[0];

  0008c	e59d0208	 ldr         r0, [sp, #0x208]
  00090	eb000000	 bl          __security_check_cookie
  00094	e28d0000	 add         r0, sp, #0

; 780  : }

  00098	e28ddf83	 add         sp, sp, #0x83, 30
  0009c	e8bd4030	 ldmia       sp!, {r4, r5, lr}
  000a0	e12fff1e	 bx          lr
  000a4		 |$LN15@MapToInt|
  000a4		 |$LN16@MapToInt|
  000a4	cccccccd	 DCD         0xcccccccd
  000a8		 |$LN17@MapToInt|
  000a8	00000000	 DCD         |__security_cookie|
  000ac		 |$M41300|

			 ENDP  ; |?MapToInt@@YAPADK@Z|, MapToInt

	END
