; Listing generated by Microsoft (R) Optimizing Compiler Version 14.01.60511.01 

	TTL	C:\WINCE600\PLATFORM\COMMON\SRC\SOC\COMMON_TI_V1\COMMON_TI\SERIAL\UART\pdd.c
	CODE32

  00000			 AREA	 |.drectve|, DRECTVE
	DCB	"-defaultlib:LIBCMT "
	DCB	"-defaultlib:OLDNAMES "

	EXPORT	|??_C@_1BK@ECILAKDK@?$AAR?$AAt?$AAs?$AAC?$AAt?$AAs?$AAE?$AAn?$AAa?$AAb?$AAl?$AAe?$AA?$AA@| [ DATA ] ; `string'
	EXPORT	|??_C@_1CG@DHJJPDED@?$AAR?$AAx?$AAF?$AAi?$AAf?$AAo?$AAT?$AAr?$AAi?$AAg?$AAg?$AAe?$AAr?$AAL?$AAe?$AAv?$AAe?$AAl?$AA?$AA@| [ DATA ] ; `string'
	EXPORT	|??_C@_1CC@FIFIMOFA@?$AAX?$AAc?$AAv?$AAr?$AAE?$AAn?$AAa?$AAb?$AAl?$AAe?$AAd?$AAL?$AAe?$AAv?$AAe?$AAl?$AA?$AA@| [ DATA ] ; `string'
	EXPORT	|??_C@_1BO@NNHFJINL@?$AAX?$AAc?$AAv?$AAr?$AAE?$AAn?$AAa?$AAb?$AAl?$AAe?$AAG?$AAp?$AAi?$AAo?$AA?$AA@| [ DATA ] ; `string'
	EXPORT	|??_C@_1CA@JOFPGGEL@?$AAR?$AAx?$AAD?$AAm?$AAa?$AAB?$AAu?$AAf?$AAf?$AAe?$AAr?$AAS?$AAi?$AAz?$AAe?$AA?$AA@| [ DATA ] ; `string'
	EXPORT	|??_C@_1BK@EAHGCAAM@?$AAR?$AAx?$AAD?$AAm?$AAa?$AAR?$AAe?$AAq?$AAu?$AAe?$AAs?$AAt?$AA?$AA@| [ DATA ] ; `string'
	EXPORT	|??_C@_1BM@EBCLBMAF@?$AAT?$AAX?$AAP?$AAa?$AAu?$AAs?$AAe?$AAT?$AAi?$AAm?$AAe?$AAM?$AAs?$AA?$AA@| [ DATA ] ; `string'
	EXPORT	|??_C@_1CA@NHBAHBHE@?$AAT?$AAx?$AAD?$AAm?$AAa?$AAB?$AAu?$AAf?$AAf?$AAe?$AAr?$AAS?$AAi?$AAz?$AAe?$AA?$AA@| [ DATA ] ; `string'
	EXPORT	|??_C@_1BK@HPKIPNLN@?$AAT?$AAx?$AAD?$AAm?$AAa?$AAR?$AAe?$AAq?$AAu?$AAe?$AAs?$AAt?$AA?$AA@| [ DATA ] ; `string'
	EXPORT	|??_C@_1BE@CEKAHLDM@?$AAH?$AAW?$AAT?$AAi?$AAm?$AAe?$AAo?$AAu?$AAt?$AA?$AA@| [ DATA ] ; `string'
	EXPORT	|??_C@_1BC@OKCHLFFC@?$AAR?$AAx?$AAB?$AAu?$AAf?$AAf?$AAe?$AAr?$AA?$AA@| [ DATA ] ; `string'
	EXPORT	|??_C@_1BC@HNMEBGCB@?$AAW?$AAa?$AAk?$AAe?$AAC?$AAh?$AAa?$AAr?$AA?$AA@| [ DATA ] ; `string'
	EXPORT	|??_C@_1BE@GPCELNGD@?$AAF?$AAr?$AAe?$AAq?$AAu?$AAe?$AAn?$AAc?$AAy?$AA?$AA@| [ DATA ] ; `string'
	EXPORT	|??_C@_1O@OJFFKIAG@?$AAH?$AAW?$AAM?$AAo?$AAd?$AAe?$AA?$AA@| [ DATA ] ; `string'
	EXPORT	|??_C@_1CC@KMPFMANC@?$AAD?$AAe?$AAv?$AAi?$AAc?$AAe?$AAA?$AAr?$AAr?$AAa?$AAy?$AAI?$AAn?$AAd?$AAe?$AAx?$AA?$AA@| [ DATA ] ; `string'

  00000			 AREA	 |.bss|, NOINIT
|GlobalSerialHeadNumber| % 0x4

  00000			 AREA	 |.rdata|, DATA, READONLY
|??_C@_1BK@ECILAKDK@?$AAR?$AAt?$AAs?$AAC?$AAt?$AAs?$AAE?$AAn?$AAa?$AAb?$AAl?$AAe?$AA?$AA@| DCB "R"
	DCB	0x0, "t", 0x0, "s", 0x0, "C", 0x0, "t", 0x0, "s", 0x0, "E"
	DCB	0x0, "n", 0x0, "a", 0x0, "b", 0x0, "l", 0x0, "e", 0x0, 0x0
	DCB	0x0					; `string'

  00000			 AREA	 |.rdata|, DATA, READONLY
|??_C@_1CG@DHJJPDED@?$AAR?$AAx?$AAF?$AAi?$AAf?$AAo?$AAT?$AAr?$AAi?$AAg?$AAg?$AAe?$AAr?$AAL?$AAe?$AAv?$AAe?$AAl?$AA?$AA@| DCB "R"
	DCB	0x0, "x", 0x0, "F", 0x0, "i", 0x0, "f", 0x0, "o", 0x0, "T"
	DCB	0x0, "r", 0x0, "i", 0x0, "g", 0x0, "g", 0x0, "e", 0x0, "r"
	DCB	0x0, "L", 0x0, "e", 0x0, "v", 0x0, "e", 0x0, "l", 0x0, 0x0
	DCB	0x0					; `string'

  00000			 AREA	 |.rdata|, DATA, READONLY
|??_C@_1CC@FIFIMOFA@?$AAX?$AAc?$AAv?$AAr?$AAE?$AAn?$AAa?$AAb?$AAl?$AAe?$AAd?$AAL?$AAe?$AAv?$AAe?$AAl?$AA?$AA@| DCB "X"
	DCB	0x0, "c", 0x0, "v", 0x0, "r", 0x0, "E", 0x0, "n", 0x0, "a"
	DCB	0x0, "b", 0x0, "l", 0x0, "e", 0x0, "d", 0x0, "L", 0x0, "e"
	DCB	0x0, "v", 0x0, "e", 0x0, "l", 0x0, 0x0, 0x0 ; `string'

  00000			 AREA	 |.rdata|, DATA, READONLY
|??_C@_1BO@NNHFJINL@?$AAX?$AAc?$AAv?$AAr?$AAE?$AAn?$AAa?$AAb?$AAl?$AAe?$AAG?$AAp?$AAi?$AAo?$AA?$AA@| DCB "X"
	DCB	0x0, "c", 0x0, "v", 0x0, "r", 0x0, "E", 0x0, "n", 0x0, "a"
	DCB	0x0, "b", 0x0, "l", 0x0, "e", 0x0, "G", 0x0, "p", 0x0, "i"
	DCB	0x0, "o", 0x0, 0x0, 0x0			; `string'

  00000			 AREA	 |.rdata|, DATA, READONLY
|??_C@_1CA@JOFPGGEL@?$AAR?$AAx?$AAD?$AAm?$AAa?$AAB?$AAu?$AAf?$AAf?$AAe?$AAr?$AAS?$AAi?$AAz?$AAe?$AA?$AA@| DCB "R"
	DCB	0x0, "x", 0x0, "D", 0x0, "m", 0x0, "a", 0x0, "B", 0x0, "u"
	DCB	0x0, "f", 0x0, "f", 0x0, "e", 0x0, "r", 0x0, "S", 0x0, "i"
	DCB	0x0, "z", 0x0, "e", 0x0, 0x0, 0x0	; `string'

  00000			 AREA	 |.rdata|, DATA, READONLY
|??_C@_1BK@EAHGCAAM@?$AAR?$AAx?$AAD?$AAm?$AAa?$AAR?$AAe?$AAq?$AAu?$AAe?$AAs?$AAt?$AA?$AA@| DCB "R"
	DCB	0x0, "x", 0x0, "D", 0x0, "m", 0x0, "a", 0x0, "R", 0x0, "e"
	DCB	0x0, "q", 0x0, "u", 0x0, "e", 0x0, "s", 0x0, "t", 0x0, 0x0
	DCB	0x0					; `string'

  00000			 AREA	 |.rdata|, DATA, READONLY
|??_C@_1BM@EBCLBMAF@?$AAT?$AAX?$AAP?$AAa?$AAu?$AAs?$AAe?$AAT?$AAi?$AAm?$AAe?$AAM?$AAs?$AA?$AA@| DCB "T"
	DCB	0x0, "X", 0x0, "P", 0x0, "a", 0x0, "u", 0x0, "s", 0x0, "e"
	DCB	0x0, "T", 0x0, "i", 0x0, "m", 0x0, "e", 0x0, "M", 0x0, "s"
	DCB	0x0, 0x0, 0x0				; `string'

  00000			 AREA	 |.rdata|, DATA, READONLY
|??_C@_1CA@NHBAHBHE@?$AAT?$AAx?$AAD?$AAm?$AAa?$AAB?$AAu?$AAf?$AAf?$AAe?$AAr?$AAS?$AAi?$AAz?$AAe?$AA?$AA@| DCB "T"
	DCB	0x0, "x", 0x0, "D", 0x0, "m", 0x0, "a", 0x0, "B", 0x0, "u"
	DCB	0x0, "f", 0x0, "f", 0x0, "e", 0x0, "r", 0x0, "S", 0x0, "i"
	DCB	0x0, "z", 0x0, "e", 0x0, 0x0, 0x0	; `string'

  00000			 AREA	 |.rdata|, DATA, READONLY
|??_C@_1BK@HPKIPNLN@?$AAT?$AAx?$AAD?$AAm?$AAa?$AAR?$AAe?$AAq?$AAu?$AAe?$AAs?$AAt?$AA?$AA@| DCB "T"
	DCB	0x0, "x", 0x0, "D", 0x0, "m", 0x0, "a", 0x0, "R", 0x0, "e"
	DCB	0x0, "q", 0x0, "u", 0x0, "e", 0x0, "s", 0x0, "t", 0x0, 0x0
	DCB	0x0					; `string'

  00000			 AREA	 |.rdata|, DATA, READONLY
|??_C@_1BE@CEKAHLDM@?$AAH?$AAW?$AAT?$AAi?$AAm?$AAe?$AAo?$AAu?$AAt?$AA?$AA@| DCB "H"
	DCB	0x0, "W", 0x0, "T", 0x0, "i", 0x0, "m", 0x0, "e", 0x0, "o"
	DCB	0x0, "u", 0x0, "t", 0x0, 0x0, 0x0	; `string'

  00000			 AREA	 |.rdata|, DATA, READONLY
|??_C@_1BC@OKCHLFFC@?$AAR?$AAx?$AAB?$AAu?$AAf?$AAf?$AAe?$AAr?$AA?$AA@| DCB "R"
	DCB	0x0, "x", 0x0, "B", 0x0, "u", 0x0, "f", 0x0, "f", 0x0, "e"
	DCB	0x0, "r", 0x0, 0x0, 0x0			; `string'

  00000			 AREA	 |.rdata|, DATA, READONLY
|??_C@_1BC@HNMEBGCB@?$AAW?$AAa?$AAk?$AAe?$AAC?$AAh?$AAa?$AAr?$AA?$AA@| DCB "W"
	DCB	0x0, "a", 0x0, "k", 0x0, "e", 0x0, "C", 0x0, "h", 0x0, "a"
	DCB	0x0, "r", 0x0, 0x0, 0x0			; `string'

  00000			 AREA	 |.rdata|, DATA, READONLY
|??_C@_1BE@GPCELNGD@?$AAF?$AAr?$AAe?$AAq?$AAu?$AAe?$AAn?$AAc?$AAy?$AA?$AA@| DCB "F"
	DCB	0x0, "r", 0x0, "e", 0x0, "q", 0x0, "u", 0x0, "e", 0x0, "n"
	DCB	0x0, "c", 0x0, "y", 0x0, 0x0, 0x0	; `string'

  00000			 AREA	 |.rdata|, DATA, READONLY
|??_C@_1O@OJFFKIAG@?$AAH?$AAW?$AAM?$AAo?$AAd?$AAe?$AA?$AA@| DCB "H", 0x0, "W"
	DCB	0x0, "M", 0x0, "o", 0x0, "d", 0x0, "e", 0x0, 0x0, 0x0 ; `string'

  00000			 AREA	 |.rdata|, DATA, READONLY
|??_C@_1CC@KMPFMANC@?$AAD?$AAe?$AAv?$AAi?$AAc?$AAe?$AAA?$AAr?$AAr?$AAa?$AAy?$AAI?$AAn?$AAd?$AAe?$AAx?$AA?$AA@| DCB "D"
	DCB	0x0, "e", 0x0, "v", 0x0, "i", 0x0, "c", 0x0, "e", 0x0, "A"
	DCB	0x0, "r", 0x0, "r", 0x0, "a", 0x0, "y", 0x0, "I", 0x0, "n"
	DCB	0x0, "d", 0x0, "e", 0x0, "x", 0x0, 0x0, 0x0 ; `string'

  00000			 AREA	 |.data|, DATA
|g_pddVTbl| DCD	|HWInit|
	DCD	|HWPostInit|
	DCD	|HWDeinit|
	DCD	|HWOpen|
	DCD	|HWClose|
	DCD	|HWGetInterruptType|
	DCD	|HWRxIntr|
	DCD	|HWTxIntr|
	DCD	|HWModemIntr|
	DCD	|HWLineIntr|
	DCD	|HWGetRxBufferSize|
	DCD	|HWPowerOff|
	DCD	|HWPowerOn|
	DCD	|HWClearDTR|
	DCD	|HWSetDTR|
	DCD	|HWClearRTS|
	DCD	|HWSetRTS|
	DCD	|HWEnableIR|
	DCD	|HWDisableIR|
	DCD	|HWClearBreak|
	DCD	|HWSetBreak|
	DCD	|HWXmitComChar|
	DCD	|HWGetStatus|
	DCD	|HWReset|
	DCD	|HWGetModemStatus|
	DCD	|HWGetCommProperties|
	DCD	|HWPurgeComm|
	DCD	|HWSetDCB|
	DCD	|HWSetCommTimeouts|
	DCD	|HWIOCtl|

  00000			 AREA	 |.rdata|, DATA, READONLY
|EdbgVendorIds| DCW 0x0
	DCW	0x0
	DCD	0x4033
	DCB	0x1
	DCB	"AD", 0x0
	DCW	0x1050
	DCW	0x940
	DCD	0x4005
	DCB	0x1
	DCB	"LS", 0x0
	DCW	0x1050
	DCW	0x940
	DCD	0x2078
	DCB	0x1
	DCB	"LS", 0x0
	DCW	0x10ec
	DCW	0x8029
	DCD	0xc0f0
	DCB	0x1
	DCB	"KS", 0x0
	DCW	0x10ec
	DCW	0x8129
	DCD	0x0
	DCB	0x4
	DCB	"RT", 0x0
	DCW	0x10ec
	DCW	0x8139
	DCD	0x900b
	DCB	0x4
	DCB	"RT", 0x0
	DCW	0x10ec
	DCW	0x8139
	DCD	0xd0c9
	DCB	0x4
	DCB	"RT", 0x0
	DCW	0x10ec
	DCW	0x8139
	DCD	0xe04c
	DCB	0x4
	DCB	"RT", 0x0
	DCW	0x1186
	DCW	0x1300
	DCD	0x50ba
	DCB	0x4
	DCB	"DL", 0x0
	DCW	0x100b
	DCW	0x20
	DCD	0xa0cc
	DCB	0x5
	DCB	"NG", 0x0
	DCW	0x10b7
	DCW	0x9050
	DCD	0x6008
	DCB	0x6
	DCB	"3C", 0x0
	DCW	0x10b7
	DCW	0x9200
	DCD	0x476
	DCB	0x6
	DCB	"3C", 0x0
|s_deviceRegParams| DCD |??_C@_1CC@KMPFMANC@?$AAD?$AAe?$AAv?$AAi?$AAc?$AAe?$AAA?$AAr?$AAr?$AAa?$AAy?$AAI?$AAn?$AAd?$AAe?$AAx?$AA?$AA@|
	DCD	0x1
	DCD	0x1
	DCD	0xc
	DCD	0x4
	DCD	0x0
	DCD	|??_C@_1O@OJFFKIAG@?$AAH?$AAW?$AAM?$AAo?$AAd?$AAe?$AA?$AA@|
	DCD	0x1
	DCD	0x0
	DCD	0x14
	DCD	0x4
	DCD	0x0
	DCD	|??_C@_1BE@GPCELNGD@?$AAF?$AAr?$AAe?$AAq?$AAu?$AAe?$AAn?$AAc?$AAy?$AA?$AA@|
	DCD	0x1
	DCD	0x0
	DCD	0x4c
	DCD	0x4
	DCD	0x2dc6c00
	DCD	|??_C@_1BC@HNMEBGCB@?$AAW?$AAa?$AAk?$AAe?$AAC?$AAh?$AAa?$AAr?$AA?$AA@|
	DCD	0x1
	DCD	0x0
	DCD	0x1c
	DCD	0x4
	DCD	0x32
	DCD	|??_C@_1BC@OKCHLFFC@?$AAR?$AAx?$AAB?$AAu?$AAf?$AAf?$AAe?$AAr?$AA?$AA@|
	DCD	0x1
	DCD	0x0
	DCD	0x18
	DCD	0x4
	DCD	0x2000
	DCD	|??_C@_1BE@CEKAHLDM@?$AAH?$AAW?$AAT?$AAi?$AAm?$AAe?$AAo?$AAu?$AAt?$AA?$AA@|
	DCD	0x1
	DCD	0x0
	DCD	0x20
	DCD	0x4
	DCD	0x3e8
	DCD	|??_C@_1BK@HPKIPNLN@?$AAT?$AAx?$AAD?$AAm?$AAa?$AAR?$AAe?$AAq?$AAu?$AAe?$AAs?$AAt?$AA?$AA@|
	DCD	0x1
	DCD	0x0
	DCD	0xf0
	DCD	0x4
	DCD	0xffffffff
	DCD	|??_C@_1CA@NHBAHBHE@?$AAT?$AAx?$AAD?$AAm?$AAa?$AAB?$AAu?$AAf?$AAf?$AAe?$AAr?$AAS?$AAi?$AAz?$AAe?$AA?$AA@|
	DCD	0x1
	DCD	0x0
	DCD	0xf4
	DCD	0x4
	DCD	0x2000
	DCD	|??_C@_1BM@EBCLBMAF@?$AAT?$AAX?$AAP?$AAa?$AAu?$AAs?$AAe?$AAT?$AAi?$AAm?$AAe?$AAM?$AAs?$AA?$AA@|
	DCD	0x1
	DCD	0x0
	DCD	0xec
	DCD	0x4
	DCD	0x25
	DCD	|??_C@_1BK@EAHGCAAM@?$AAR?$AAx?$AAD?$AAm?$AAa?$AAR?$AAe?$AAq?$AAu?$AAe?$AAs?$AAt?$AA?$AA@|
	DCD	0x1
	DCD	0x0
	DCD	0x10c
	DCD	0x4
	DCD	0xffffffff
	DCD	|??_C@_1CA@JOFPGGEL@?$AAR?$AAx?$AAD?$AAm?$AAa?$AAB?$AAu?$AAf?$AAf?$AAe?$AAr?$AAS?$AAi?$AAz?$AAe?$AA?$AA@|
	DCD	0x1
	DCD	0x0
	DCD	0x110
	DCD	0x4
	DCD	0x2000
	DCD	|??_C@_1BO@NNHFJINL@?$AAX?$AAc?$AAv?$AAr?$AAE?$AAn?$AAa?$AAb?$AAl?$AAe?$AAG?$AAp?$AAi?$AAo?$AA?$AA@|
	DCD	0x1
	DCD	0x0
	DCD	0x170
	DCD	0x4
	DCD	0xffff
	DCD	|??_C@_1CC@FIFIMOFA@?$AAX?$AAc?$AAv?$AAr?$AAE?$AAn?$AAa?$AAb?$AAl?$AAe?$AAd?$AAL?$AAe?$AAv?$AAe?$AAl?$AA?$AA@|
	DCD	0x1
	DCD	0x0
	DCD	0x174
	DCD	0x4
	DCD	0xffff
	DCD	|??_C@_1CG@DHJJPDED@?$AAR?$AAx?$AAF?$AAi?$AAf?$AAo?$AAT?$AAr?$AAi?$AAg?$AAg?$AAe?$AAr?$AAL?$AAe?$AAv?$AAe?$AAl?$AA?$AA@|
	DCD	0x1
	DCD	0x0
	DCD	0x154
	DCD	0x4
	DCD	0x20
	DCD	|??_C@_1BK@ECILAKDK@?$AAR?$AAt?$AAs?$AAC?$AAt?$AAs?$AAE?$AAn?$AAa?$AAb?$AAl?$AAe?$AA?$AA@|
	DCD	0x1
	DCD	0x0
	DCD	0x158
	DCD	0x4
	DCD	0x0
	EXPORT	|SetDeviceClockState|
	IMPORT	|EnableDeviceClocks|

  00000			 AREA	 |.pdata|, PDATA
|$T46603| DCD	|$LN17@SetDeviceC|
	DCD	0x40002104
; Function compile flags: /Odtp
; File c:\wince600\platform\common\src\soc\common_ti_v1\common_ti\serial\uart\pdd.c

  00000			 AREA	 |.text|, CODE, ARM

  00000		 |SetDeviceClockState| PROC

; 308  : {

  00000		 |$LN17@SetDeviceC|
  00000	e1a0c00d	 mov         r12, sp
  00004	e92d0003	 stmdb       sp!, {r0, r1}
  00008	e92d5000	 stmdb       sp!, {r12, lr}
  0000c	e24dd004	 sub         sp, sp, #4
  00010		 |$M46600|

; 309  : 	switch(dx)

  00010	e59d3010	 ldr         r3, [sp, #0x10]
  00014	e58d3000	 str         r3, [sp]
  00018	e59d3000	 ldr         r3, [sp]
  0001c	e3530004	 cmp         r3, #4
  00020	8a000014	 bhi         |$LN1@SetDeviceC|
  00024	e59d2000	 ldr         r2, [sp]
  00028	e1a03102	 mov         r3, r2, lsl #2
  0002c	e083300f	 add         r3, r3, pc
  00030	e5933004	 ldr         r3, [r3, #4]
  00034	e08ff003	 add         pc, pc, r3
  00038		 |$LN9@SetDeviceC|
  00038		 |$LN8@SetDeviceC|
  00038		 |$LN10@SetDeviceC|
  00038	00000010	 DCD         0x10
  0003c		 |$LN11@SetDeviceC|
  0003c	00000010	 DCD         0x10
  00040		 |$LN12@SetDeviceC|
  00040	00000010	 DCD         0x10
  00044		 |$LN13@SetDeviceC|
  00044	00000028	 DCD         0x28
  00048		 |$LN14@SetDeviceC|
  00048	00000028	 DCD         0x28
  0004c		 |$LN3@SetDeviceC|

; 310  : 	{
; 311  : 	case D0:
; 312  : 	case D1:
; 313  : 	case D2:
; 314  : 		EnableDeviceClocks(pPdd->DeviceID, TRUE);

  0004c	e3a01001	 mov         r1, #1
  00050	e59d300c	 ldr         r3, [sp, #0xC]
  00054	e2833010	 add         r3, r3, #0x10
  00058	e5930000	 ldr         r0, [r3]
  0005c	eb000000	 bl          EnableDeviceClocks

; 315  : 		break;

  00060	ea000004	 b           |$LN4@SetDeviceC|
  00064		 |$LN2@SetDeviceC|

; 316  : 	case D3:
; 317  : 	case D4:
; 318  : 		EnableDeviceClocks(pPdd->DeviceID, FALSE);

  00064	e3a01000	 mov         r1, #0
  00068	e59d300c	 ldr         r3, [sp, #0xC]
  0006c	e2833010	 add         r3, r3, #0x10
  00070	e5930000	 ldr         r0, [r3]
  00074	eb000000	 bl          EnableDeviceClocks
  00078		 |$LN1@SetDeviceC|
  00078		 |$LN4@SetDeviceC|

; 319  : 		break;
; 320  : 	default:
; 321  : 	break;
; 322  : 	}
; 323  : }

  00078	e28dd004	 add         sp, sp, #4
  0007c	e89d6000	 ldmia       sp, {sp, lr}
  00080	e12fff1e	 bx          lr
  00084		 |$M46601|

			 ENDP  ; |SetDeviceClockState|

	EXPORT	|DmaSetElementAndFrameCount|
	EXPORT	|DmaSetDstBuffer|
	EXPORT	|DmaGetLastWritePos|
	EXPORT	|IsDmaEnable|
	EXPORT	|UpdateDMARxPointer|
	IMPORT	|memcpy|
	IMPORT	|__rt_udiv|

  00008			 AREA	 |.pdata|, PDATA
|$T46612| DCD	|$LN18@UpdateDMAR|
	DCD	0x4000e904
; Function compile flags: /Odtp

  00084			 AREA	 |.text|, CODE, ARM

  00084		 |UpdateDMARxPointer| PROC

; 339  : {

  00084		 |$LN18@UpdateDMAR|
  00084	e1a0c00d	 mov         r12, sp
  00088	e92d0007	 stmdb       sp!, {r0 - r2}
  0008c	e92d5000	 stmdb       sp!, {r12, lr}
  00090	e24dd038	 sub         sp, sp, #0x38
  00094		 |$M46609|

; 340  :     BOOL        bRet = FALSE;

  00094	e3a03000	 mov         r3, #0
  00098	e58d3014	 str         r3, [sp, #0x14]

; 341  :     UINT32      nStartPos = 0;

  0009c	e3a03000	 mov         r3, #0
  000a0	e58d301c	 str         r3, [sp, #0x1C]

; 342  :     UINT32      nBufferSize = 0;

  000a4	e3a03000	 mov         r3, #0
  000a8	e58d3004	 str         r3, [sp, #4]

; 343  :     PHW_INDEP_INFO  pSerialHead = (PHW_INDEP_INFO)pPdd->pMdd;

  000ac	e59d3040	 ldr         r3, [sp, #0x40]
  000b0	e2833050	 add         r3, r3, #0x50
  000b4	e5933000	 ldr         r3, [r3]
  000b8	e58d3000	 str         r3, [sp]

; 344  :     UINT32      nMddRxPosHead = (UINT32)RxBuffRead(pSerialHead);

  000bc	e59d3000	 ldr         r3, [sp]
  000c0	e28320ac	 add         r2, r3, #0xAC
  000c4	e59d3000	 ldr         r3, [sp]
  000c8	e283309c	 add         r3, r3, #0x9C
  000cc	e5922000	 ldr         r2, [r2]
  000d0	e5933000	 ldr         r3, [r3]
  000d4	e0823003	 add         r3, r2, r3
  000d8	e58d3020	 str         r3, [sp, #0x20]

; 345  :     UINT32      nMddRxPosTail = (UINT32)RxBuffWrite(pSerialHead);

  000dc	e59d3000	 ldr         r3, [sp]
  000e0	e28320ac	 add         r2, r3, #0xAC
  000e4	e59d3000	 ldr         r3, [sp]
  000e8	e28330a0	 add         r3, r3, #0xA0
  000ec	e5922000	 ldr         r2, [r2]
  000f0	e5933000	 ldr         r3, [r3]
  000f4	e0823003	 add         r3, r2, r3
  000f8	e58d3010	 str         r3, [sp, #0x10]

; 346  :     UINT32      nRxDmaBuffer = (UINT32)pPdd->pRxDmaBuffer;

  000fc	e59d3040	 ldr         r3, [sp, #0x40]
  00100	e2833f45	 add         r3, r3, #0x45, 30
  00104	e5933000	 ldr         r3, [r3]
  00108	e58d3018	 str         r3, [sp, #0x18]

; 347  :     BOOL        bAllClear = (nMddRxPosHead == nMddRxPosTail);

  0010c	e59d2020	 ldr         r2, [sp, #0x20]
  00110	e59d3010	 ldr         r3, [sp, #0x10]
  00114	e1520003	 cmp         r2, r3
  00118	1a000002	 bne         |$LN14@UpdateDMAR|
  0011c	e3a03001	 mov         r3, #1
  00120	e58d302c	 str         r3, [sp, #0x2C]
  00124	ea000001	 b           |$LN15@UpdateDMAR|
  00128		 |$LN14@UpdateDMAR|
  00128	e3a03000	 mov         r3, #0
  0012c	e58d302c	 str         r3, [sp, #0x2C]
  00130		 |$LN15@UpdateDMAR|
  00130	e59d302c	 ldr         r3, [sp, #0x2C]
  00134	e58d300c	 str         r3, [sp, #0xC]

; 348  :     BOOL        bConfig = FALSE;

  00138	e3a03000	 mov         r3, #0
  0013c	e58d3008	 str         r3, [sp, #8]

; 349  : 
; 350  :     if(IsDmaEnable(pPdd->RxDmaInfo))

  00140	e59d3040	 ldr         r3, [sp, #0x40]
  00144	e2833f49	 add         r3, r3, #0x49, 30
  00148	e5930000	 ldr         r0, [r3]
  0014c	eb000000	 bl          IsDmaEnable
  00150	e58d0030	 str         r0, [sp, #0x30]
  00154	e59d3030	 ldr         r3, [sp, #0x30]
  00158	e3530000	 cmp         r3, #0
  0015c	0a000000	 beq         |$LN11@UpdateDMAR|

; 351  :     {
; 352  :         DEBUGMSG(TESTENABLE, (L"UpdateDMARxPointer: DMA Runing\r\n"));
; 353  :         goto cleanUp;

  00160	ea000070	 b           |$cleanUp$44784|
  00164		 |$LN11@UpdateDMAR|

; 354  :     }
; 355  : 
; 356  :     // If we are purging we set the last read pos equal to the last write pos
; 357  :     if(bPurge)

  00164	e59d3044	 ldr         r3, [sp, #0x44]
  00168	e3530000	 cmp         r3, #0
  0016c	0a000003	 beq         |$LN10@UpdateDMAR|

; 358  :     {
; 359  :        nMddRxPosHead = nMddRxPosTail;

  00170	e59d3010	 ldr         r3, [sp, #0x10]
  00174	e58d3020	 str         r3, [sp, #0x20]

; 360  :        bAllClear = TRUE;

  00178	e3a03001	 mov         r3, #1
  0017c	e58d300c	 str         r3, [sp, #0xC]
  00180		 |$LN10@UpdateDMAR|

; 361  :     }
; 362  : 
; 363  :     nStartPos = (UINT32)DmaGetLastWritePos(pPdd->RxDmaInfo) + dwOffSet;

  00180	e59d3040	 ldr         r3, [sp, #0x40]
  00184	e2833f49	 add         r3, r3, #0x49, 30
  00188	e5930000	 ldr         r0, [r3]
  0018c	eb000000	 bl          DmaGetLastWritePos
  00190	e58d0034	 str         r0, [sp, #0x34]
  00194	e59d2034	 ldr         r2, [sp, #0x34]
  00198	e59d3048	 ldr         r3, [sp, #0x48]
  0019c	e0823003	 add         r3, r2, r3
  001a0	e58d301c	 str         r3, [sp, #0x1C]

; 364  :     DEBUGMSG(TESTENABLE, (L"UpdateDMARxPointer: CurrentDMALocation = 0x%x"
; 365  :         L" nMddRxWIndex= 0x%x   nMddRxRIndex= 0x%x\r\n",
; 366  :         nStartPos, nMddRxPosTail, nMddRxPosHead));
; 367  : 
; 368  :     // Since we have to setup DMA to transfer multiple of frame size (or Rx Fifo's 
; 369  :     // trigger level) and we have to fill up the DMA buffer before wrap around, we 
; 370  :     // setup the DMA to fill few bytes more after the DMA buffer (yes, we did
; 371  :     // allocate that extra space, but just didn't tell MDD about that) at the end of
; 372  :     // this routine and we will have to copy the extra data to the beginning of the 
; 373  :     // DMA buffer when we are call to setup the DMA again.
; 374  :     if (nStartPos >= (nRxDmaBuffer + pPdd->RxDmaBufferSize))

  001a4	e59d3040	 ldr         r3, [sp, #0x40]
  001a8	e2833e11	 add         r3, r3, #0x11, 28
  001ac	e59d2018	 ldr         r2, [sp, #0x18]
  001b0	e5933000	 ldr         r3, [r3]
  001b4	e0822003	 add         r2, r2, r3
  001b8	e59d301c	 ldr         r3, [sp, #0x1C]
  001bc	e1530002	 cmp         r3, r2
  001c0	3a00001a	 bcc         |$LN9@UpdateDMAR|

; 375  :     {
; 376  :         DWORD   dwCount = nStartPos - (nRxDmaBuffer + pPdd->RxDmaBufferSize);

  001c4	e59d3040	 ldr         r3, [sp, #0x40]
  001c8	e2833e11	 add         r3, r3, #0x11, 28
  001cc	e59d2018	 ldr         r2, [sp, #0x18]
  001d0	e5933000	 ldr         r3, [r3]
  001d4	e0822003	 add         r2, r2, r3
  001d8	e59d301c	 ldr         r3, [sp, #0x1C]
  001dc	e0433002	 sub         r3, r3, r2
  001e0	e58d3024	 str         r3, [sp, #0x24]

; 377  :         DEBUGMSG(TESTENABLE,
; 378  :            (L"UpdateDMARxPointer: recv EndOfBlock DMA\r\n"));
; 379  :         if (dwCount > 0)

  001e4	e59d3024	 ldr         r3, [sp, #0x24]
  001e8	e3530000	 cmp         r3, #0
  001ec	9a00000b	 bls         |$LN8@UpdateDMAR|

; 380  :         {
; 381  :             pPdd->bRxWrapped   = TRUE;

  001f0	e59d3040	 ldr         r3, [sp, #0x40]
  001f4	e2832f52	 add         r2, r3, #0x52, 30
  001f8	e3a03001	 mov         r3, #1
  001fc	e5823000	 str         r3, [r2]

; 382  :             memcpy((BYTE*)nRxDmaBuffer, (BYTE*)(nRxDmaBuffer + pPdd->RxDmaBufferSize), dwCount);

  00200	e59d2024	 ldr         r2, [sp, #0x24]
  00204	e59d3040	 ldr         r3, [sp, #0x40]
  00208	e2833e11	 add         r3, r3, #0x11, 28
  0020c	e59d1018	 ldr         r1, [sp, #0x18]
  00210	e5933000	 ldr         r3, [r3]
  00214	e0811003	 add         r1, r1, r3
  00218	e59d0018	 ldr         r0, [sp, #0x18]
  0021c	eb000000	 bl          memcpy
  00220		 |$LN8@UpdateDMAR|

; 383  :     }
; 384  :         nStartPos = nRxDmaBuffer + dwCount;

  00220	e59d2018	 ldr         r2, [sp, #0x18]
  00224	e59d3024	 ldr         r3, [sp, #0x24]
  00228	e0823003	 add         r3, r2, r3
  0022c	e58d301c	 str         r3, [sp, #0x1C]
  00230		 |$LN9@UpdateDMAR|

; 385  :     }
; 386  : 
; 387  :     // check for start position if it is greater then MDD write position
; 388  :     if(/*(nStartPos >= nMddRxPosTail) && */
; 389  :         (nStartPos < (nRxDmaBuffer + pPdd->RxDmaBufferSize)) &&
; 390  :         (nStartPos > nMddRxPosHead))

  00230	e59d3040	 ldr         r3, [sp, #0x40]
  00234	e2833e11	 add         r3, r3, #0x11, 28
  00238	e59d2018	 ldr         r2, [sp, #0x18]
  0023c	e5933000	 ldr         r3, [r3]
  00240	e0822003	 add         r2, r2, r3
  00244	e59d301c	 ldr         r3, [sp, #0x1C]
  00248	e1530002	 cmp         r3, r2
  0024c	2a000010	 bcs         |$LN7@UpdateDMAR|
  00250	e59d201c	 ldr         r2, [sp, #0x1C]
  00254	e59d3020	 ldr         r3, [sp, #0x20]
  00258	e1520003	 cmp         r2, r3
  0025c	9a00000c	 bls         |$LN7@UpdateDMAR|

; 391  :     {
; 392  :         DEBUGMSG(TESTENABLE,
; 393  :             (L"(nStartPos < (nRxDmaBuffer + pPdd->RxDmaBufferSize))&&"
; 394  :             L"(nStartPos > nMddRxPosHead)\r\n"));
; 395  :         nStartPos = nStartPos;

  00260	e59d301c	 ldr         r3, [sp, #0x1C]
  00264	e58d301c	 str         r3, [sp, #0x1C]

; 396  :         nBufferSize = pPdd->RxDmaBufferSize - (nStartPos - nRxDmaBuffer);

  00268	e59d3040	 ldr         r3, [sp, #0x40]
  0026c	e2831e11	 add         r1, r3, #0x11, 28
  00270	e59d201c	 ldr         r2, [sp, #0x1C]
  00274	e59d3018	 ldr         r3, [sp, #0x18]
  00278	e0422003	 sub         r2, r2, r3
  0027c	e5913000	 ldr         r3, [r1]
  00280	e0433002	 sub         r3, r3, r2
  00284	e58d3004	 str         r3, [sp, #4]

; 397  :         bConfig = TRUE;

  00288	e3a03001	 mov         r3, #1
  0028c	e58d3008	 str         r3, [sp, #8]

; 398  :         goto cleanUp;

  00290	ea000024	 b           |$cleanUp$44784|
  00294		 |$LN7@UpdateDMAR|

; 399  :     }
; 400  :     // check for start position if less then MDD read position
; 401  :     if (nStartPos < nMddRxPosHead)

  00294	e59d201c	 ldr         r2, [sp, #0x1C]
  00298	e59d3020	 ldr         r3, [sp, #0x20]
  0029c	e1520003	 cmp         r2, r3
  002a0	2a000009	 bcs         |$LN6@UpdateDMAR|

; 402  :     {
; 403  :         DEBUGMSG(TESTENABLE, (L"(nStartPos < nMddRxPosHead)\r\n"));
; 404  :         // adjust the buffer length to only extend to the last read
; 405  :         // position of the mdd
; 406  :         nStartPos = nStartPos;

  002a4	e59d301c	 ldr         r3, [sp, #0x1C]
  002a8	e58d301c	 str         r3, [sp, #0x1C]

; 407  :         nBufferSize = (nMddRxPosHead - nStartPos) -1;

  002ac	e59d2020	 ldr         r2, [sp, #0x20]
  002b0	e59d301c	 ldr         r3, [sp, #0x1C]
  002b4	e0423003	 sub         r3, r2, r3
  002b8	e2433001	 sub         r3, r3, #1
  002bc	e58d3004	 str         r3, [sp, #4]

; 408  :         bConfig = TRUE;

  002c0	e3a03001	 mov         r3, #1
  002c4	e58d3008	 str         r3, [sp, #8]

; 409  :         goto cleanUp;

  002c8	ea000016	 b           |$cleanUp$44784|
  002cc		 |$LN6@UpdateDMAR|

; 410  :     }
; 411  :     if((bAllClear == TRUE) && (nStartPos == nMddRxPosHead))

  002cc	e59d300c	 ldr         r3, [sp, #0xC]
  002d0	e3530001	 cmp         r3, #1
  002d4	1a000013	 bne         |$LN5@UpdateDMAR|
  002d8	e59d201c	 ldr         r2, [sp, #0x1C]
  002dc	e59d3020	 ldr         r3, [sp, #0x20]
  002e0	e1520003	 cmp         r2, r3
  002e4	1a00000f	 bne         |$LN5@UpdateDMAR|

; 412  :     {
; 413  :         DEBUGMSG(TESTENABLE,
; 414  :             (L"(bAllClear == TRUE)&& (nMddRxPosHead = nRxDmaBuffer)\r\n"));
; 415  :         //check if it is not starting position then inc by 1
; 416  :         if(nStartPos != nRxDmaBuffer)

  002e8	e59d201c	 ldr         r2, [sp, #0x1C]
  002ec	e59d3018	 ldr         r3, [sp, #0x18]
  002f0	e1520003	 cmp         r2, r3
  002f4	0a000001	 beq         |$LN4@UpdateDMAR|

; 417  :             nStartPos =nStartPos;// + 1;

  002f8	e59d301c	 ldr         r3, [sp, #0x1C]
  002fc	e58d301c	 str         r3, [sp, #0x1C]
  00300		 |$LN4@UpdateDMAR|

; 418  :         nBufferSize = pPdd->RxDmaBufferSize - (nStartPos - nRxDmaBuffer);

  00300	e59d3040	 ldr         r3, [sp, #0x40]
  00304	e2831e11	 add         r1, r3, #0x11, 28
  00308	e59d201c	 ldr         r2, [sp, #0x1C]
  0030c	e59d3018	 ldr         r3, [sp, #0x18]
  00310	e0422003	 sub         r2, r2, r3
  00314	e5913000	 ldr         r3, [r1]
  00318	e0433002	 sub         r3, r3, r2
  0031c	e58d3004	 str         r3, [sp, #4]

; 419  :         bConfig = TRUE;

  00320	e3a03001	 mov         r3, #1
  00324	e58d3008	 str         r3, [sp, #8]
  00328		 |$LN5@UpdateDMAR|
  00328		 |$cleanUp$44784|

; 420  :         goto cleanUp;
; 421  :     }
; 422  : 
; 423  : cleanUp:
; 424  :     if(bConfig)

  00328	e59d3008	 ldr         r3, [sp, #8]
  0032c	e3530000	 cmp         r3, #0
  00330	0a000036	 beq         |$LN3@UpdateDMAR|

; 425  :     {
; 426  :         if ((nBufferSize <= 0) || (nBufferSize > pPdd->RxDmaBufferSize))

  00334	e59d3004	 ldr         r3, [sp, #4]
  00338	e3530000	 cmp         r3, #0
  0033c	9a000005	 bls         |$LN1@UpdateDMAR|
  00340	e59d3040	 ldr         r3, [sp, #0x40]
  00344	e2833e11	 add         r3, r3, #0x11, 28
  00348	e59d2004	 ldr         r2, [sp, #4]
  0034c	e5933000	 ldr         r3, [r3]
  00350	e1520003	 cmp         r2, r3
  00354	9a000004	 bls         |$LN2@UpdateDMAR|
  00358		 |$LN1@UpdateDMAR|

; 427  :             {
; 428  :                 bRet = FALSE;

  00358	e3a03000	 mov         r3, #0
  0035c	e58d3014	 str         r3, [sp, #0x14]

; 429  :                 return bRet;

  00360	e59d3014	 ldr         r3, [sp, #0x14]
  00364	e58d3028	 str         r3, [sp, #0x28]
  00368	ea00002a	 b           |$LN12@UpdateDMAR|
  0036c		 |$LN2@UpdateDMAR|

; 430  :             }
; 431  :         RETAILMSG(0,
; 432  :             (L"nBufferSize = 0x%x  nStartPos = 0x%x\r\n",
; 433  :             nBufferSize,
; 434  :             nStartPos));
; 435  : 
; 436  :         // update registers
; 437  :         DmaSetDstBuffer(pPdd->RxDmaInfo,
; 438  :             (UINT8*)nStartPos,
; 439  :             pPdd->paRxDmaBuffer + (nStartPos - nRxDmaBuffer));

  0036c	e59d3040	 ldr         r3, [sp, #0x40]
  00370	e2831f46	 add         r1, r3, #0x46, 30
  00374	e59d201c	 ldr         r2, [sp, #0x1C]
  00378	e59d3018	 ldr         r3, [sp, #0x18]
  0037c	e0422003	 sub         r2, r2, r3
  00380	e5913000	 ldr         r3, [r1]
  00384	e0832002	 add         r2, r3, r2
  00388	e59d101c	 ldr         r1, [sp, #0x1C]
  0038c	e59d3040	 ldr         r3, [sp, #0x40]
  00390	e2833f49	 add         r3, r3, #0x49, 30
  00394	e5930000	 ldr         r0, [r3]
  00398	eb000000	 bl          DmaSetDstBuffer

; 440  : 
; 441  :         // Since we have to setup DMA to transfer multiple of frame size (or Rx Fifo's 
; 442  :         // trigger level) and we have to fill up the DMA buffer before wrap around, we 
; 443  :         // will setup the DMA to fill few bytes more after the DMA buffer (yes, we did
; 444  :         // allocate that extra space, but just didn't tell MDD about that) here and we 
; 445  :         // will copy the extra data to the beginning of the DMA when we update the DMA 
; 446  :         // pointer next. See beginning of this routine.
; 447  :         nBufferSize += (pPdd->dwRxFifoTriggerLevel - 1);

  0039c	e59d3040	 ldr         r3, [sp, #0x40]
  003a0	e2833f55	 add         r3, r3, #0x55, 30
  003a4	e5933000	 ldr         r3, [r3]
  003a8	e2432001	 sub         r2, r3, #1
  003ac	e59d3004	 ldr         r3, [sp, #4]
  003b0	e0833002	 add         r3, r3, r2
  003b4	e58d3004	 str         r3, [sp, #4]

; 448  :         DmaSetElementAndFrameCount(pPdd->RxDmaInfo,
; 449  :             (UINT16)pPdd->dwRxFifoTriggerLevel, 
; 450  :             ((UINT16)(nBufferSize / pPdd->dwRxFifoTriggerLevel)));

  003b8	e59d3040	 ldr         r3, [sp, #0x40]
  003bc	e2833f55	 add         r3, r3, #0x55, 30
  003c0	e59d1004	 ldr         r1, [sp, #4]
  003c4	e5930000	 ldr         r0, [r3]
  003c8	eb000000	 bl          __rt_udiv
  003cc	e1a02800	 mov         r2, r0, lsl #16
  003d0	e1a02822	 mov         r2, r2, lsr #16
  003d4	e59d3040	 ldr         r3, [sp, #0x40]
  003d8	e2833f55	 add         r3, r3, #0x55, 30
  003dc	e5933000	 ldr         r3, [r3]
  003e0	e1a01803	 mov         r1, r3, lsl #16
  003e4	e1a01821	 mov         r1, r1, lsr #16
  003e8	e59d3040	 ldr         r3, [sp, #0x40]
  003ec	e2833f49	 add         r3, r3, #0x49, 30
  003f0	e5930000	 ldr         r0, [r3]
  003f4	eb000000	 bl          DmaSetElementAndFrameCount

; 451  : 
; 452  :         pPdd->pRxDMALastWrite = (VOID*)nStartPos;

  003f8	e59d3040	 ldr         r3, [sp, #0x40]
  003fc	e2832f53	 add         r2, r3, #0x53, 30
  00400	e59d301c	 ldr         r3, [sp, #0x1C]
  00404	e5823000	 str         r3, [r2]

; 453  : 
; 454  :         bRet = TRUE;

  00408	e3a03001	 mov         r3, #1
  0040c	e58d3014	 str         r3, [sp, #0x14]
  00410		 |$LN3@UpdateDMAR|

; 455  :     }
; 456  :     return bRet;

  00410	e59d3014	 ldr         r3, [sp, #0x14]
  00414	e58d3028	 str         r3, [sp, #0x28]
  00418		 |$LN12@UpdateDMAR|

; 457  : }

  00418	e59d0028	 ldr         r0, [sp, #0x28]
  0041c	e28dd038	 add         sp, sp, #0x38
  00420	e89d6000	 ldmia       sp, {sp, lr}
  00424	e12fff1e	 bx          lr
  00428		 |$M46610|

			 ENDP  ; |UpdateDMARxPointer|

; File c:\wince600\platform\common\src\soc\common_ti_v1\common_ti\inc\omap_sdma_utility.h

  00000			 AREA	 |.pdata|, PDATA
|$T46617| DCD	|$LN6@DmaSetDstB|
	DCD	0x40001e03
; Function compile flags: /Odtp

  00000			 AREA	 |.text|, CODE, ARM

  00000		 |DmaSetDstBuffer| PROC

; 330  : {

  00000		 |$LN6@DmaSetDstB|
  00000	e1a0c00d	 mov         r12, sp
  00004	e92d0007	 stmdb       sp!, {r0 - r2}
  00008	e92d5000	 stmdb       sp!, {r12, lr}
  0000c		 |$M46614|

; 331  :     // save values
; 332  :     //
; 333  :     pDataInfo->pDstBuffer = pBuffer;

  0000c	e59d3008	 ldr         r3, [sp, #8]
  00010	e2832004	 add         r2, r3, #4
  00014	e59d300c	 ldr         r3, [sp, #0xC]
  00018	e5823000	 str         r3, [r2]

; 334  :     pDataInfo->PhysAddrDstBuffer = PhysAddr;

  0001c	e59d3008	 ldr         r3, [sp, #8]
  00020	e283200c	 add         r2, r3, #0xC
  00024	e59d3010	 ldr         r3, [sp, #0x10]
  00028	e5823000	 str         r3, [r2]

; 335  : 
; 336  :     // set destination address
; 337  :     //
; 338  :     if (pDataInfo->pDmaLcReg != NULL)

  0002c	e59d3008	 ldr         r3, [sp, #8]
  00030	e2833014	 add         r3, r3, #0x14
  00034	e5933000	 ldr         r3, [r3]
  00038	e3530000	 cmp         r3, #0
  0003c	0a00000b	 beq         |$LN1@DmaSetDstB|

; 339  :         {
; 340  :         OUTREG32(&pDataInfo->pDmaLcReg->CDSA, PhysAddr);

  00040	e59d3008	 ldr         r3, [sp, #8]
  00044	e2833014	 add         r3, r3, #0x14
  00048	e5933000	 ldr         r3, [r3]
  0004c	e2832020	 add         r2, r3, #0x20
  00050	e59d3010	 ldr         r3, [sp, #0x10]
  00054	e5823000	 str         r3, [r2]

; 341  :         OUTREG32(&pDataInfo->pDmaLcReg->CDAC, PhysAddr);

  00058	e59d3008	 ldr         r3, [sp, #8]
  0005c	e2833014	 add         r3, r3, #0x14
  00060	e5933000	 ldr         r3, [r3]
  00064	e2832038	 add         r2, r3, #0x38
  00068	e59d3010	 ldr         r3, [sp, #0x10]
  0006c	e5823000	 str         r3, [r2]
  00070		 |$LN1@DmaSetDstB|

; 342  :         }
; 343  : }

  00070	e89d6000	 ldmia       sp, {sp, lr}
  00074	e12fff1e	 bx          lr
  00078		 |$M46615|

			 ENDP  ; |DmaSetDstBuffer|


  00000			 AREA	 |.pdata|, PDATA
|$T46624| DCD	|$LN5@DmaSetElem|
	DCD	0x40001103
; Function compile flags: /Odtp

  00000			 AREA	 |.text|, CODE, ARM

  00000		 |DmaSetElementAndFrameCount| PROC

; 386  : {

  00000		 |$LN5@DmaSetElem|
  00000	e1a0c00d	 mov         r12, sp
  00004	e92d0007	 stmdb       sp!, {r0 - r2}
  00008	e92d5000	 stmdb       sp!, {r12, lr}
  0000c		 |$M46621|

; 387  :     // setup frame and element count for destination side
; 388  :     //
; 389  :     OUTREG32(&pDataInfo->pDmaLcReg->CEN , countElements);

  0000c	e59d3008	 ldr         r3, [sp, #8]
  00010	e2833014	 add         r3, r3, #0x14
  00014	e5933000	 ldr         r3, [r3]
  00018	e2832014	 add         r2, r3, #0x14
  0001c	e59d300c	 ldr         r3, [sp, #0xC]
  00020	e5823000	 str         r3, [r2]

; 390  :     OUTREG32(&pDataInfo->pDmaLcReg->CFN , countFrames);

  00024	e1dd21b0	 ldrh        r2, [sp, #0x10]
  00028	e59d3008	 ldr         r3, [sp, #8]
  0002c	e2833014	 add         r3, r3, #0x14
  00030	e5933000	 ldr         r3, [r3]
  00034	e2833018	 add         r3, r3, #0x18
  00038	e5832000	 str         r2, [r3]

; 391  : }

  0003c	e89d6000	 ldmia       sp, {sp, lr}
  00040	e12fff1e	 bx          lr
  00044		 |$M46622|

			 ENDP  ; |DmaSetElementAndFrameCount|


  00000			 AREA	 |.pdata|, PDATA
|$T46632| DCD	|$LN8@IsDmaEnabl|
	DCD	0x40001c04
; Function compile flags: /Odtp

  00000			 AREA	 |.text|, CODE, ARM

  00000		 |IsDmaEnable| PROC

; 404  : {

  00000		 |$LN8@IsDmaEnabl|
  00000	e1a0c00d	 mov         r12, sp
  00004	e92d0001	 stmdb       sp!, {r0}
  00008	e92d5000	 stmdb       sp!, {r12, lr}
  0000c	e24dd008	 sub         sp, sp, #8
  00010		 |$M46629|

; 405  :     volatile ULONG ulCCR;
; 406  : 
; 407  :     if (NULL == pDataInfo)

  00010	e59d3010	 ldr         r3, [sp, #0x10]
  00014	e3530000	 cmp         r3, #0
  00018	1a000002	 bne         |$LN3@IsDmaEnabl|

; 408  :        return FALSE;

  0001c	e3a03000	 mov         r3, #0
  00020	e58d3004	 str         r3, [sp, #4]
  00024	ea00000d	 b           |$LN4@IsDmaEnabl|
  00028		 |$LN3@IsDmaEnabl|

; 409  : 
; 410  :     ulCCR = INREG32(&pDataInfo->pDmaLcReg->CCR);

  00028	e59d3010	 ldr         r3, [sp, #0x10]
  0002c	e2833014	 add         r3, r3, #0x14
  00030	e5933000	 ldr         r3, [r3]
  00034	e5933000	 ldr         r3, [r3]
  00038	e58d3000	 str         r3, [sp]

; 411  : 
; 412  :     if (ulCCR & DMA_CCR_ENABLE)

  0003c	e59d3000	 ldr         r3, [sp]
  00040	e3130080	 tst         r3, #0x80
  00044	0a000003	 beq         |$LN2@IsDmaEnabl|

; 413  :         return TRUE;

  00048	e3a03001	 mov         r3, #1
  0004c	e58d3004	 str         r3, [sp, #4]
  00050	ea000002	 b           |$LN4@IsDmaEnabl|

; 414  :     else

  00054	ea000001	 b           |$LN1@IsDmaEnabl|
  00058		 |$LN2@IsDmaEnabl|

; 415  :         return FALSE;

  00058	e3a03000	 mov         r3, #0
  0005c	e58d3004	 str         r3, [sp, #4]
  00060		 |$LN1@IsDmaEnabl|
  00060		 |$LN4@IsDmaEnabl|

; 416  : }

  00060	e59d0004	 ldr         r0, [sp, #4]
  00064	e28dd008	 add         sp, sp, #8
  00068	e89d6000	 ldmia       sp, {sp, lr}
  0006c	e12fff1e	 bx          lr
  00070		 |$M46630|

			 ENDP  ; |IsDmaEnable|


  00000			 AREA	 |.pdata|, PDATA
|$T46640| DCD	|$LN5@DmaGetLast|
	DCD	0x40001804
; Function compile flags: /Odtp

  00000			 AREA	 |.text|, CODE, ARM

  00000		 |DmaGetLastWritePos| PROC

; 504  : {

  00000		 |$LN5@DmaGetLast|
  00000	e1a0c00d	 mov         r12, sp
  00004	e92d0001	 stmdb       sp!, {r0}
  00008	e92d5000	 stmdb       sp!, {r12, lr}
  0000c	e24dd008	 sub         sp, sp, #8
  00010		 |$M46637|

; 505  :     UINT32  offset;
; 506  :     offset = INREG32(&pDataInfo->pDmaLcReg->CDAC) - pDataInfo->PhysAddrDstBuffer;

  00010	e59d3010	 ldr         r3, [sp, #0x10]
  00014	e2833014	 add         r3, r3, #0x14
  00018	e5933000	 ldr         r3, [r3]
  0001c	e2832038	 add         r2, r3, #0x38
  00020	e59d3010	 ldr         r3, [sp, #0x10]
  00024	e283300c	 add         r3, r3, #0xC
  00028	e5922000	 ldr         r2, [r2]
  0002c	e5933000	 ldr         r3, [r3]
  00030	e0423003	 sub         r3, r2, r3
  00034	e58d3000	 str         r3, [sp]

; 507  :     return ((UINT8*)pDataInfo->pDstBuffer + offset);

  00038	e59d3010	 ldr         r3, [sp, #0x10]
  0003c	e2833004	 add         r3, r3, #4
  00040	e5932000	 ldr         r2, [r3]
  00044	e59d3000	 ldr         r3, [sp]
  00048	e0823003	 add         r3, r2, r3
  0004c	e58d3004	 str         r3, [sp, #4]

; 508  : }

  00050	e59d0004	 ldr         r0, [sp, #4]
  00054	e28dd008	 add         sp, sp, #8
  00058	e89d6000	 ldmia       sp, {sp, lr}
  0005c	e12fff1e	 bx          lr
  00060		 |$M46638|

			 ENDP  ; |DmaGetLastWritePos|

	EXPORT	|DmaStart|
	EXPORT	|??_C@_1DM@LFDBCAED@?$AAU?$AAA?$AAR?$AAT?$AA?3?$AAS?$AAe?$AAt?$AAP?$AAo?$AAw?$AAe?$AAr?$AA?3?$AA?5?$AAS?$AAt?$AAa?$AAr?$AAt?$AAi?$AAn?$AAg?$AA?5?$AAD?$AAM?$AAA?$AA?$AN?$AA?6?$AA?$AA@| [ DATA ] ; `string'
	EXPORT	|??_C@_1DE@LHCPPEPC@?$AAU?$AAA?$AAR?$AAT?$AA?3?$AAS?$AAe?$AAt?$AAP?$AAo?$AAw?$AAe?$AAr?$AA?3?$AA?5?$AAs?$AAt?$AAo?$AAp?$AA?5?$AAD?$AAM?$AAA?$AA?$AN?$AA?6?$AA?$AA@| [ DATA ] ; `string'
	EXPORT	|SetEvent|
	EXPORT	|??_C@_1EC@OCKKHLOL@?$AAU?$AAA?$AAR?$AAT?$AA?3?$AAS?$AAe?$AAt?$AAP?$AAo?$AAw?$AAe?$AAr?$AA?3?$AA?5?$AAD?$AA?$CF?$AAd?$AA?5?$AA?$CI?$AAc?$AAu?$AAr?$AAD?$AAx?$AA?$DN?$AAD?$AA?$CF?$AAd?$AA?$CJ?$AA?$AN?$AA?6@| [ DATA ] ; `string'
	EXPORT	|SetPower|
	IMPORT	|LeaveCriticalSection|
	IMPORT	|SetDevicePowerState|
	IMPORT	|WaitForSingleObject|
	IMPORT	|Sleep|
	IMPORT	|GPIOSetBit|
	IMPORT	|GPIOClrBit|
	IMPORT	|EnterCriticalSection|
	IMPORT	|NKDbgPrintfW|
	IMPORT	|dpCurSettings|

  00010			 AREA	 |.pdata|, PDATA
|$T46654| DCD	|$LN37@SetPower|
	DCD	0x40015004
; File c:\wince600\platform\common\src\soc\common_ti_v1\common_ti\serial\uart\pdd.c

  00000			 AREA	 |.rdata|, DATA, READONLY
|??_C@_1DM@LFDBCAED@?$AAU?$AAA?$AAR?$AAT?$AA?3?$AAS?$AAe?$AAt?$AAP?$AAo?$AAw?$AAe?$AAr?$AA?3?$AA?5?$AAS?$AAt?$AAa?$AAr?$AAt?$AAi?$AAn?$AAg?$AA?5?$AAD?$AAM?$AAA?$AA?$AN?$AA?6?$AA?$AA@| DCB "U"
	DCB	0x0, "A", 0x0, "R", 0x0, "T", 0x0, ":", 0x0, "S", 0x0, "e"
	DCB	0x0, "t", 0x0, "P", 0x0, "o", 0x0, "w", 0x0, "e", 0x0, "r"
	DCB	0x0, ":", 0x0, " ", 0x0, "S", 0x0, "t", 0x0, "a", 0x0, "r"
	DCB	0x0, "t", 0x0, "i", 0x0, "n", 0x0, "g", 0x0, " ", 0x0, "D"
	DCB	0x0, "M", 0x0, "A", 0x0, 0xd, 0x0, 0xa, 0x0, 0x0, 0x0 ; `string'

  00000			 AREA	 |.rdata|, DATA, READONLY
|??_C@_1DE@LHCPPEPC@?$AAU?$AAA?$AAR?$AAT?$AA?3?$AAS?$AAe?$AAt?$AAP?$AAo?$AAw?$AAe?$AAr?$AA?3?$AA?5?$AAs?$AAt?$AAo?$AAp?$AA?5?$AAD?$AAM?$AAA?$AA?$AN?$AA?6?$AA?$AA@| DCB "U"
	DCB	0x0, "A", 0x0, "R", 0x0, "T", 0x0, ":", 0x0, "S", 0x0, "e"
	DCB	0x0, "t", 0x0, "P", 0x0, "o", 0x0, "w", 0x0, "e", 0x0, "r"
	DCB	0x0, ":", 0x0, " ", 0x0, "s", 0x0, "t", 0x0, "o", 0x0, "p"
	DCB	0x0, " ", 0x0, "D", 0x0, "M", 0x0, "A", 0x0, 0xd, 0x0, 0xa
	DCB	0x0, 0x0, 0x0				; `string'

  00000			 AREA	 |.rdata|, DATA, READONLY
|??_C@_1EC@OCKKHLOL@?$AAU?$AAA?$AAR?$AAT?$AA?3?$AAS?$AAe?$AAt?$AAP?$AAo?$AAw?$AAe?$AAr?$AA?3?$AA?5?$AAD?$AA?$CF?$AAd?$AA?5?$AA?$CI?$AAc?$AAu?$AAr?$AAD?$AAx?$AA?$DN?$AAD?$AA?$CF?$AAd?$AA?$CJ?$AA?$AN?$AA?6@| DCB "U"
	DCB	0x0, "A", 0x0, "R", 0x0, "T", 0x0, ":", 0x0, "S", 0x0, "e"
	DCB	0x0, "t", 0x0, "P", 0x0, "o", 0x0, "w", 0x0, "e", 0x0, "r"
	DCB	0x0, ":", 0x0, " ", 0x0, "D", 0x0, "%", 0x0, "d", 0x0, " "
	DCB	0x0, "(", 0x0, "c", 0x0, "u", 0x0, "r", 0x0, "D", 0x0, "x"
	DCB	0x0, "=", 0x0, "D", 0x0, "%", 0x0, "d", 0x0, ")", 0x0, 0xd
	DCB	0x0, 0xa, 0x0, 0x0, 0x0			; `string'
; Function compile flags: /Odtp

  00428			 AREA	 |.text|, CODE, ARM

  00428		 |SetPower| PROC

; 992  : {

  00428		 |$LN37@SetPower|
  00428	e1a0c00d	 mov         r12, sp
  0042c	e92d0003	 stmdb       sp!, {r0, r1}
  00430	e92d5000	 stmdb       sp!, {r12, lr}
  00434	e24dd020	 sub         sp, sp, #0x20
  00438		 |$M46651|

; 993  :     BOOL rc = FALSE;

  00438	e3a03000	 mov         r3, #0
  0043c	e58d3000	 str         r3, [sp]

; 994  :     int nTimeout = 1000;

  00440	e3a03ffa	 mov         r3, #0xFA, 30
  00444	e58d3004	 str         r3, [sp, #4]

; 995  :    
; 996  :     DEBUGMSG(ZONE_FUNCTION, (TEXT("UART:SetPower: D%d (curDx=D%d)\r\n"), dx, pPdd->currentDX));

  00448	e59f350c	 ldr         r3, [pc, #0x50C]
  0044c	e5933440	 ldr         r3, [r3, #0x440]
  00450	e3130a02	 tst         r3, #2, 20
  00454	0a000008	 beq         |$LN29@SetPower|
  00458	e59d3028	 ldr         r3, [sp, #0x28]
  0045c	e2833030	 add         r3, r3, #0x30
  00460	e5932000	 ldr         r2, [r3]
  00464	e59d102c	 ldr         r1, [sp, #0x2C]
  00468	e59f04f4	 ldr         r0, [pc, #0x4F4]
  0046c	eb000000	 bl          NKDbgPrintfW
  00470	e3a03001	 mov         r3, #1
  00474	e58d3010	 str         r3, [sp, #0x10]
  00478	ea000001	 b           |$LN30@SetPower|
  0047c		 |$LN29@SetPower|
  0047c	e3a03000	 mov         r3, #0
  00480	e58d3010	 str         r3, [sp, #0x10]
  00484		 |$LN30@SetPower|

; 997  : 
; 998  :     EnterCriticalSection(&pPdd->powerCS);

  00484	e59d3028	 ldr         r3, [sp, #0x28]
  00488	e2830038	 add         r0, r3, #0x38
  0048c	eb000000	 bl          EnterCriticalSection

; 999  : 	
; 1000 :     // Device can't be set to lower power state than external
; 1001 :     if (dx < pPdd->externalDX) 

  00490	e59d3028	 ldr         r3, [sp, #0x28]
  00494	e2833034	 add         r3, r3, #0x34
  00498	e59d202c	 ldr         r2, [sp, #0x2C]
  0049c	e5933000	 ldr         r3, [r3]
  004a0	e1520003	 cmp         r2, r3
  004a4	aa000003	 bge         |$LN26@SetPower|

; 1002 :         dx = pPdd->externalDX;

  004a8	e59d3028	 ldr         r3, [sp, #0x28]
  004ac	e2833034	 add         r3, r3, #0x34
  004b0	e5933000	 ldr         r3, [r3]
  004b4	e58d302c	 str         r3, [sp, #0x2C]
  004b8		 |$LN26@SetPower|

; 1003 : 
; 1004 :     // Update state only when it is different from actual
; 1005 :     if (pPdd->currentDX != dx)

  004b8	e59d3028	 ldr         r3, [sp, #0x28]
  004bc	e2833030	 add         r3, r3, #0x30
  004c0	e5932000	 ldr         r2, [r3]
  004c4	e59d302c	 ldr         r3, [sp, #0x2C]
  004c8	e1520003	 cmp         r2, r3
  004cc	0a000118	 beq         |$LN25@SetPower|

; 1006 :     {
; 1007 :         if (pPdd->currentDX <= D2 && dx >= D3)

  004d0	e59d3028	 ldr         r3, [sp, #0x28]
  004d4	e2833030	 add         r3, r3, #0x30
  004d8	e5933000	 ldr         r3, [r3]
  004dc	e3530002	 cmp         r3, #2
  004e0	ca000092	 bgt         |$LN24@SetPower|
  004e4	e59d302c	 ldr         r3, [sp, #0x2C]
  004e8	e3530003	 cmp         r3, #3
  004ec	ba00008f	 blt         |$LN24@SetPower|

; 1008 :         {
; 1009 :             // going from D0/D1/D2 to D3/D4
; 1010 :             
; 1011 :             // turn off transceiver
; 1012 :             if (pPdd->hGpio != NULL)

  004f0	e59d3028	 ldr         r3, [sp, #0x28]
  004f4	e2833f5b	 add         r3, r3, #0x5B, 30
  004f8	e5933000	 ldr         r3, [r3]
  004fc	e3530000	 cmp         r3, #0
  00500	0a000015	 beq         |$LN23@SetPower|

; 1013 :             {   
; 1014 :                 // turn off xcvr while UART is still in D0/D1/D2 state because xcvr state
; 1015 :                 // change can generate interrupts that need to be handled.
; 1016 :                 if (pPdd->XcvrEnabledLevel)

  00504	e59d3028	 ldr         r3, [sp, #0x28]
  00508	e2833f5d	 add         r3, r3, #0x5D, 30
  0050c	e5933000	 ldr         r3, [r3]
  00510	e3530000	 cmp         r3, #0
  00514	0a000007	 beq         |$LN22@SetPower|

; 1017 :                     GPIOClrBit(pPdd->hGpio, pPdd->XcvrEnableGpio);

  00518	e59d3028	 ldr         r3, [sp, #0x28]
  0051c	e2833e17	 add         r3, r3, #0x17, 28
  00520	e5931000	 ldr         r1, [r3]
  00524	e59d3028	 ldr         r3, [sp, #0x28]
  00528	e2833f5b	 add         r3, r3, #0x5B, 30
  0052c	e5930000	 ldr         r0, [r3]
  00530	eb000000	 bl          GPIOClrBit

; 1018 :                 else

  00534	ea000006	 b           |$LN21@SetPower|
  00538		 |$LN22@SetPower|

; 1019 :                     GPIOSetBit(pPdd->hGpio, pPdd->XcvrEnableGpio);

  00538	e59d3028	 ldr         r3, [sp, #0x28]
  0053c	e2833e17	 add         r3, r3, #0x17, 28
  00540	e5931000	 ldr         r1, [r3]
  00544	e59d3028	 ldr         r3, [sp, #0x28]
  00548	e2833f5b	 add         r3, r3, #0x5B, 30
  0054c	e5930000	 ldr         r0, [r3]
  00550	eb000000	 bl          GPIOSetBit
  00554		 |$LN21@SetPower|

; 1020 :                 // Delay to allow time for any interrupt processing due to change in xcvr state
; 1021 :                 Sleep(25);

  00554	e3a00019	 mov         r0, #0x19
  00558	eb000000	 bl          Sleep
  0055c		 |$LN23@SetPower|
  0055c		 |$LN20@SetPower|

; 1022 :             }
; 1023 : 
; 1024 :             while((INREG8(&pPdd->pUartRegs->LSR) & UART_LSR_RX_FIFO_E) != 0) 

  0055c	e59d3028	 ldr         r3, [sp, #0x28]
  00560	e2833024	 add         r3, r3, #0x24
  00564	e5933000	 ldr         r3, [r3]
  00568	e2833014	 add         r3, r3, #0x14
  0056c	e5d33000	 ldrb        r3, [r3]
  00570	e3130001	 tst         r3, #1
  00574	0a000010	 beq         |$LN19@SetPower|

; 1025 :             {
; 1026 :                 if(--nTimeout == 0) 

  00578	e59d3004	 ldr         r3, [sp, #4]
  0057c	e2433001	 sub         r3, r3, #1
  00580	e58d3004	 str         r3, [sp, #4]
  00584	e59d3004	 ldr         r3, [sp, #4]
  00588	e3530000	 cmp         r3, #0
  0058c	1a000009	 bne         |$LN18@SetPower|

; 1027 :                 {
; 1028 :                     // Timedout so just empty the fifo
; 1029 :                     OUTREG8(&pPdd->pUartRegs->FCR, pPdd->CurrentFCR | UART_FCR_RX_FIFO_CLEAR);

  00590	e59d3028	 ldr         r3, [sp, #0x28]
  00594	e2833089	 add         r3, r3, #0x89
  00598	e5d33000	 ldrb        r3, [r3]
  0059c	e3833002	 orr         r3, r3, #2
  005a0	e20320ff	 and         r2, r3, #0xFF
  005a4	e59d3028	 ldr         r3, [sp, #0x28]
  005a8	e2833024	 add         r3, r3, #0x24
  005ac	e5933000	 ldr         r3, [r3]
  005b0	e2833008	 add         r3, r3, #8
  005b4	e5c32000	 strb        r2, [r3]
  005b8		 |$LN18@SetPower|

; 1030 :                 }
; 1031 :             }

  005b8	eaffffe7	 b           |$LN20@SetPower|
  005bc		 |$LN19@SetPower|

; 1032 : 
; 1033 :             //set event on power thread and put uart into force Idle
; 1034 : 
; 1035 :             if ( pPdd->RxTxRefCount )

  005bc	e59d3028	 ldr         r3, [sp, #0x28]
  005c0	e2833d05	 add         r3, r3, #5, 26
  005c4	e5933000	 ldr         r3, [r3]
  005c8	e3530000	 cmp         r3, #0
  005cc	0a000003	 beq         |$LN17@SetPower|

; 1036 :                 pPdd->RxTxRefCount = 0;

  005d0	e59d3028	 ldr         r3, [sp, #0x28]
  005d4	e2832d05	 add         r2, r3, #5, 26
  005d8	e3a03000	 mov         r3, #0
  005dc	e5823000	 str         r3, [r2]
  005e0		 |$LN17@SetPower|

; 1037 : 
; 1038 :             pPdd->bDisableAutoIdle = TRUE;

  005e0	e59d3028	 ldr         r3, [sp, #0x28]
  005e4	e2832f5a	 add         r2, r3, #0x5A, 30
  005e8	e3a03001	 mov         r3, #1
  005ec	e5823000	 str         r3, [r2]

; 1039 : 
; 1040 :             // Update current power state before triggering the power thread because
; 1041 :             // the power thread will set the UART's idle mode according to the 
; 1042 :             // current DX
; 1043 :             // We changed power state
; 1044 :             pPdd->currentDX = dx;

  005f0	e59d3028	 ldr         r3, [sp, #0x28]
  005f4	e2832030	 add         r2, r3, #0x30
  005f8	e59d302c	 ldr         r3, [sp, #0x2C]
  005fc	e5823000	 str         r3, [r2]

; 1045 : 
; 1046 :             if (pPdd->hPowerThread != NULL)

  00600	e59d3028	 ldr         r3, [sp, #0x28]
  00604	e2833e16	 add         r3, r3, #0x16, 28
  00608	e5933000	 ldr         r3, [r3]
  0060c	e3530000	 cmp         r3, #0
  00610	0a00001a	 beq         |$LN16@SetPower|

; 1047 :             {
; 1048 :                 DWORD   dwCount = 0;

  00614	e3a03000	 mov         r3, #0
  00618	e58d3008	 str         r3, [sp, #8]

; 1049 : 
; 1050 :                 SetEvent(pPdd->hPowerEvent);

  0061c	e59d3028	 ldr         r3, [sp, #0x28]
  00620	e2833f57	 add         r3, r3, #0x57, 30
  00624	e5930000	 ldr         r0, [r3]
  00628	eb000000	 bl          SetEvent
  0062c		 |$LN15@SetPower|

; 1051 : 
; 1052 :                 // Under some condition, the power thread wouldn't run until few
; 1053 :                 // hundreds of ms after the event is set in which case the we ended
; 1054 :                 // up turning off the UART before the power thread access the UART 
; 1055 :                 // registers and causing the power thread to crash. To avoid the problem,
; 1056 :                 // we wait until the power thread actually woke up from the event.
; 1057 :                 do
; 1058 :                 {
; 1059 :                     Sleep(5);

  0062c	e3a00005	 mov         r0, #5
  00630	eb000000	 bl          Sleep

; 1060 :                 } while ((WaitForSingleObject(pPdd->hPowerEvent, 1) != WAIT_TIMEOUT) && (dwCount++ < 1000));

  00634	e3a01001	 mov         r1, #1
  00638	e59d3028	 ldr         r3, [sp, #0x28]
  0063c	e2833f57	 add         r3, r3, #0x57, 30
  00640	e5930000	 ldr         r0, [r3]
  00644	eb000000	 bl          WaitForSingleObject
  00648	e58d0014	 str         r0, [sp, #0x14]
  0064c	e59d2014	 ldr         r2, [sp, #0x14]
  00650	e3a03c01	 mov         r3, #1, 24
  00654	e3833002	 orr         r3, r3, #2
  00658	e1520003	 cmp         r2, r3
  0065c	0a000005	 beq         |$LN12@SetPower|
  00660	e59d3008	 ldr         r3, [sp, #8]
  00664	e3530ffa	 cmp         r3, #0xFA, 30
  00668	e59d3008	 ldr         r3, [sp, #8]
  0066c	e2833001	 add         r3, r3, #1
  00670	e58d3008	 str         r3, [sp, #8]
  00674	3affffec	 bcc         |$LN15@SetPower|
  00678		 |$LN12@SetPower|

; 1061 : 
; 1062 :                 // Now the power woke up from the event, but we still need to give it
; 1063 :                 // a chance to set the UART idle mode before we can turn off the power
; 1064 :                 // to the UART module, otherwise we will generate exception in the 
; 1065 :                 // power thread.
; 1066 :                 Sleep(10);

  00678	e3a0000a	 mov         r0, #0xA
  0067c	eb000000	 bl          Sleep
  00680		 |$LN16@SetPower|

; 1067 :             }
; 1068 : 
; 1069 :             if (pPdd->bDmaInitialize == TRUE)

  00680	e59d3028	 ldr         r3, [sp, #0x28]
  00684	e2833e15	 add         r3, r3, #0x15, 28
  00688	e5933000	 ldr         r3, [r3]
  0068c	e3530001	 cmp         r3, #1
  00690	1a00000d	 bne         |$LN11@SetPower|

; 1070 :             {
; 1071 :                 DEBUGMSG(ZONE_FUNCTION, (TEXT("UART:SetPower: stop DMA\r\n")));

  00694	e59f32c0	 ldr         r3, [pc, #0x2C0]
  00698	e5933440	 ldr         r3, [r3, #0x440]
  0069c	e3130a02	 tst         r3, #2, 20
  006a0	0a000004	 beq         |$LN31@SetPower|
  006a4	e59f02b4	 ldr         r0, [pc, #0x2B4]
  006a8	eb000000	 bl          NKDbgPrintfW
  006ac	e3a03001	 mov         r3, #1
  006b0	e58d3018	 str         r3, [sp, #0x18]
  006b4	ea000001	 b           |$LN32@SetPower|
  006b8		 |$LN31@SetPower|
  006b8	e3a03000	 mov         r3, #0
  006bc	e58d3018	 str         r3, [sp, #0x18]
  006c0		 |$LN32@SetPower|

; 1072 :                 RxDmaStop(pPdd, FALSE);

  006c0	e3a01000	 mov         r1, #0
  006c4	e59d0028	 ldr         r0, [sp, #0x28]
  006c8	eb000000	 bl          RxDmaStop
  006cc		 |$LN11@SetPower|

; 1073 :             }
; 1074 : 
; 1075 :             // If we are going to shut down the power (or clock?), we need to disable all 
; 1076 :             // interrupt before we do so otherwise the interrupt will keep kicking if there
; 1077 :             // is a pending interrupt because we wouldn't be able to mask the interrupt once
; 1078 :             // we turn off the power (or clock?).
; 1079 :             pPdd->savedIntrMask = pPdd->intrMask;

  006cc	e59d3028	 ldr         r3, [sp, #0x28]
  006d0	e2831088	 add         r1, r3, #0x88
  006d4	e59d3028	 ldr         r3, [sp, #0x28]
  006d8	e2832f5f	 add         r2, r3, #0x5F, 30
  006dc	e5d13000	 ldrb        r3, [r1]
  006e0	e5c23000	 strb        r3, [r2]

; 1080 :             pPdd->intrMask = 0;

  006e4	e59d3028	 ldr         r3, [sp, #0x28]
  006e8	e2832088	 add         r2, r3, #0x88
  006ec	e3a03000	 mov         r3, #0
  006f0	e5c23000	 strb        r3, [r2]

; 1081 :             OUTREG8(&pPdd->pUartRegs->IER, pPdd->intrMask);

  006f4	e59d3028	 ldr         r3, [sp, #0x28]
  006f8	e2831088	 add         r1, r3, #0x88
  006fc	e59d3028	 ldr         r3, [sp, #0x28]
  00700	e2833024	 add         r3, r3, #0x24
  00704	e5933000	 ldr         r3, [r3]
  00708	e2832004	 add         r2, r3, #4
  0070c	e5d13000	 ldrb        r3, [r1]
  00710	e5c23000	 strb        r3, [r2]

; 1082 : 
; 1083 :                 SetDevicePowerState(pPdd->hParentBus, dx, NULL);

  00714	e3a02000	 mov         r2, #0
  00718	e59d102c	 ldr         r1, [sp, #0x2C]
  0071c	e59d3028	 ldr         r3, [sp, #0x28]
  00720	e283302c	 add         r3, r3, #0x2C
  00724	e5930000	 ldr         r0, [r3]
  00728	eb000000	 bl          SetDevicePowerState
  0072c	ea00007e	 b           |$LN10@SetPower|
  00730		 |$LN24@SetPower|

; 1084 : 				
; 1085 :         }
; 1086 :         else if (pPdd->currentDX >= D3 && dx <= D2)

  00730	e59d3028	 ldr         r3, [sp, #0x28]
  00734	e2833030	 add         r3, r3, #0x30
  00738	e5933000	 ldr         r3, [r3]
  0073c	e3530003	 cmp         r3, #3
  00740	ba00005e	 blt         |$LN9@SetPower|
  00744	e59d302c	 ldr         r3, [sp, #0x2C]
  00748	e3530002	 cmp         r3, #2
  0074c	ca00005b	 bgt         |$LN9@SetPower|

; 1087 :         {
; 1088 :             // going from D3/D4 to D0/D1/D2
; 1089 :             /* force it to D0 so that we can program the registers and restore context */
; 1090 : 			/* once that is done, set the power state to requested level */
; 1091 :             SetDevicePowerState(pPdd->hParentBus, D0, NULL);

  00750	e3a02000	 mov         r2, #0
  00754	e3a01000	 mov         r1, #0
  00758	e59d3028	 ldr         r3, [sp, #0x28]
  0075c	e283302c	 add         r3, r3, #0x2C
  00760	e5930000	 ldr         r0, [r3]
  00764	eb000000	 bl          SetDevicePowerState

; 1092 : 
; 1093 :             pPdd->intrMask = pPdd->savedIntrMask;

  00768	e59d3028	 ldr         r3, [sp, #0x28]
  0076c	e2831f5f	 add         r1, r3, #0x5F, 30
  00770	e59d3028	 ldr         r3, [sp, #0x28]
  00774	e2832088	 add         r2, r3, #0x88
  00778	e5d13000	 ldrb        r3, [r1]
  0077c	e5c23000	 strb        r3, [r2]

; 1094 :             OUTREG8(&pPdd->pUartRegs->IER, pPdd->intrMask);

  00780	e59d3028	 ldr         r3, [sp, #0x28]
  00784	e2831088	 add         r1, r3, #0x88
  00788	e59d3028	 ldr         r3, [sp, #0x28]
  0078c	e2833024	 add         r3, r3, #0x24
  00790	e5933000	 ldr         r3, [r3]
  00794	e2832004	 add         r2, r3, #4
  00798	e5d13000	 ldrb        r3, [r1]
  0079c	e5c23000	 strb        r3, [r2]

; 1095 : 
; 1096 : 			/* dont know why we need the check dx != currentDX */
; 1097 :             if ((dx != pPdd->currentDX) && (pPdd->bDmaInitialize == TRUE))

  007a0	e59d3028	 ldr         r3, [sp, #0x28]
  007a4	e2833030	 add         r3, r3, #0x30
  007a8	e59d202c	 ldr         r2, [sp, #0x2C]
  007ac	e5933000	 ldr         r3, [r3]
  007b0	e1520003	 cmp         r2, r3
  007b4	0a00001a	 beq         |$LN8@SetPower|
  007b8	e59d3028	 ldr         r3, [sp, #0x28]
  007bc	e2833e15	 add         r3, r3, #0x15, 28
  007c0	e5933000	 ldr         r3, [r3]
  007c4	e3530001	 cmp         r3, #1
  007c8	1a000015	 bne         |$LN8@SetPower|

; 1098 :             {
; 1099 :                 DEBUGMSG(ZONE_FUNCTION, (L"UART:SetPower: Starting DMA\r\n"));

  007cc	e59f3188	 ldr         r3, [pc, #0x188]
  007d0	e5933440	 ldr         r3, [r3, #0x440]
  007d4	e3130a02	 tst         r3, #2, 20
  007d8	0a000004	 beq         |$LN33@SetPower|
  007dc	e59f0174	 ldr         r0, [pc, #0x174]
  007e0	eb000000	 bl          NKDbgPrintfW
  007e4	e3a03001	 mov         r3, #1
  007e8	e58d301c	 str         r3, [sp, #0x1C]
  007ec	ea000001	 b           |$LN34@SetPower|
  007f0		 |$LN33@SetPower|
  007f0	e3a03000	 mov         r3, #0
  007f4	e58d301c	 str         r3, [sp, #0x1C]
  007f8		 |$LN34@SetPower|

; 1100 :                 UpdateDMARxPointer(pPdd, FALSE, 0);

  007f8	e3a02000	 mov         r2, #0
  007fc	e3a01000	 mov         r1, #0
  00800	e59d0028	 ldr         r0, [sp, #0x28]
  00804	eb000000	 bl          UpdateDMARxPointer

; 1101 : 
; 1102 :                 SetAutoIdle(pPdd, TRUE);

  00808	e3a01001	 mov         r1, #1
  0080c	e59d0028	 ldr         r0, [sp, #0x28]
  00810	eb000000	 bl          SetAutoIdle

; 1103 :                 DmaStart(pPdd->RxDmaInfo);

  00814	e59d3028	 ldr         r3, [sp, #0x28]
  00818	e2833f49	 add         r3, r3, #0x49, 30
  0081c	e5930000	 ldr         r0, [r3]
  00820	eb000000	 bl          DmaStart
  00824		 |$LN8@SetPower|

; 1104 :             }
; 1105 : 			if (dx != D0)

  00824	e59d302c	 ldr         r3, [sp, #0x2C]
  00828	e3530000	 cmp         r3, #0
  0082c	0a000005	 beq         |$LN7@SetPower|

; 1106 : 				SetDevicePowerState(pPdd->hParentBus, dx, NULL);

  00830	e3a02000	 mov         r2, #0
  00834	e59d102c	 ldr         r1, [sp, #0x2C]
  00838	e59d3028	 ldr         r3, [sp, #0x28]
  0083c	e283302c	 add         r3, r3, #0x2C
  00840	e5930000	 ldr         r0, [r3]
  00844	eb000000	 bl          SetDevicePowerState
  00848		 |$LN7@SetPower|

; 1107 : 
; 1108 :             pPdd->currentDX = dx;

  00848	e59d3028	 ldr         r3, [sp, #0x28]
  0084c	e2832030	 add         r2, r3, #0x30
  00850	e59d302c	 ldr         r3, [sp, #0x2C]
  00854	e5823000	 str         r3, [r2]

; 1109 : 
; 1110 :             if (pPdd->hGpio != NULL)

  00858	e59d3028	 ldr         r3, [sp, #0x28]
  0085c	e2833f5b	 add         r3, r3, #0x5B, 30
  00860	e5933000	 ldr         r3, [r3]
  00864	e3530000	 cmp         r3, #0
  00868	0a000013	 beq         |$LN6@SetPower|

; 1111 :             {   
; 1112 :                 // Xcvr is off, power it on
; 1113 :                 if (pPdd->XcvrEnabledLevel)

  0086c	e59d3028	 ldr         r3, [sp, #0x28]
  00870	e2833f5d	 add         r3, r3, #0x5D, 30
  00874	e5933000	 ldr         r3, [r3]
  00878	e3530000	 cmp         r3, #0
  0087c	0a000007	 beq         |$LN5@SetPower|

; 1114 :                     GPIOSetBit(pPdd->hGpio, pPdd->XcvrEnableGpio);

  00880	e59d3028	 ldr         r3, [sp, #0x28]
  00884	e2833e17	 add         r3, r3, #0x17, 28
  00888	e5931000	 ldr         r1, [r3]
  0088c	e59d3028	 ldr         r3, [sp, #0x28]
  00890	e2833f5b	 add         r3, r3, #0x5B, 30
  00894	e5930000	 ldr         r0, [r3]
  00898	eb000000	 bl          GPIOSetBit

; 1115 :                 else

  0089c	ea000006	 b           |$LN4@SetPower|
  008a0		 |$LN5@SetPower|

; 1116 :                     GPIOClrBit(pPdd->hGpio, pPdd->XcvrEnableGpio);

  008a0	e59d3028	 ldr         r3, [sp, #0x28]
  008a4	e2833e17	 add         r3, r3, #0x17, 28
  008a8	e5931000	 ldr         r1, [r3]
  008ac	e59d3028	 ldr         r3, [sp, #0x28]
  008b0	e2833f5b	 add         r3, r3, #0x5B, 30
  008b4	e5930000	 ldr         r0, [r3]
  008b8	eb000000	 bl          GPIOClrBit
  008bc		 |$LN4@SetPower|
  008bc		 |$LN6@SetPower|

; 1117 :             }

  008bc	ea00001a	 b           |$LN3@SetPower|
  008c0		 |$LN9@SetPower|

; 1118 :         }
; 1119 :         else if (pPdd->currentDX > dx)

  008c0	e59d3028	 ldr         r3, [sp, #0x28]
  008c4	e2833030	 add         r3, r3, #0x30
  008c8	e5932000	 ldr         r2, [r3]
  008cc	e59d302c	 ldr         r3, [sp, #0x2C]
  008d0	e1520003	 cmp         r2, r3
  008d4	da00000a	 ble         |$LN2@SetPower|

; 1120 :         {
; 1121 :             // going from D4 to D3, D2 to D1, D1 to D0
; 1122 :             SetDevicePowerState(pPdd->hParentBus, dx, NULL);

  008d8	e3a02000	 mov         r2, #0
  008dc	e59d102c	 ldr         r1, [sp, #0x2C]
  008e0	e59d3028	 ldr         r3, [sp, #0x28]
  008e4	e283302c	 add         r3, r3, #0x2C
  008e8	e5930000	 ldr         r0, [r3]
  008ec	eb000000	 bl          SetDevicePowerState

; 1123 :             pPdd->currentDX = dx;

  008f0	e59d3028	 ldr         r3, [sp, #0x28]
  008f4	e2832030	 add         r2, r3, #0x30
  008f8	e59d302c	 ldr         r3, [sp, #0x2C]
  008fc	e5823000	 str         r3, [r2]

; 1124 :         }
; 1125 :         else

  00900	ea000009	 b           |$LN1@SetPower|
  00904		 |$LN2@SetPower|

; 1126 :         {
; 1127 :             // going from D3 to D4, D0 to D1, D1 to D2
; 1128 :             SetDevicePowerState(pPdd->hParentBus, dx, NULL);

  00904	e3a02000	 mov         r2, #0
  00908	e59d102c	 ldr         r1, [sp, #0x2C]
  0090c	e59d3028	 ldr         r3, [sp, #0x28]
  00910	e283302c	 add         r3, r3, #0x2C
  00914	e5930000	 ldr         r0, [r3]
  00918	eb000000	 bl          SetDevicePowerState

; 1129 :             pPdd->currentDX = dx;

  0091c	e59d3028	 ldr         r3, [sp, #0x28]
  00920	e2832030	 add         r2, r3, #0x30
  00924	e59d302c	 ldr         r3, [sp, #0x2C]
  00928	e5823000	 str         r3, [r2]
  0092c		 |$LN1@SetPower|
  0092c		 |$LN3@SetPower|
  0092c		 |$LN10@SetPower|

; 1130 :         }
; 1131 :         
; 1132 :         rc = TRUE;

  0092c	e3a03001	 mov         r3, #1
  00930	e58d3000	 str         r3, [sp]
  00934		 |$LN25@SetPower|

; 1133 :     }
; 1134 : 
; 1135 :     //RETAILMSG(1,(L"UART: -SetPower Device Power state D%d\r\n", pPdd->currentDX));
; 1136 :     LeaveCriticalSection(&pPdd->powerCS);

  00934	e59d3028	 ldr         r3, [sp, #0x28]
  00938	e2830038	 add         r0, r3, #0x38
  0093c	eb000000	 bl          LeaveCriticalSection

; 1137 :     return rc;

  00940	e59d3000	 ldr         r3, [sp]
  00944	e58d300c	 str         r3, [sp, #0xC]

; 1138 : }

  00948	e59d000c	 ldr         r0, [sp, #0xC]
  0094c	e28dd020	 add         sp, sp, #0x20
  00950	e89d6000	 ldmia       sp, {sp, lr}
  00954	e12fff1e	 bx          lr
  00958		 |$LN38@SetPower|
  00958		 |$LN39@SetPower|
  00958	00000000	 DCD         |??_C@_1DM@LFDBCAED@?$AAU?$AAA?$AAR?$AAT?$AA?3?$AAS?$AAe?$AAt?$AAP?$AAo?$AAw?$AAe?$AAr?$AA?3?$AA?5?$AAS?$AAt?$AAa?$AAr?$AAt?$AAi?$AAn?$AAg?$AA?5?$AAD?$AAM?$AAA?$AA?$AN?$AA?6?$AA?$AA@|
  0095c		 |$LN40@SetPower|
  0095c	00000000	 DCD         |dpCurSettings|
  00960		 |$LN41@SetPower|
  00960	00000000	 DCD         |??_C@_1DE@LHCPPEPC@?$AAU?$AAA?$AAR?$AAT?$AA?3?$AAS?$AAe?$AAt?$AAP?$AAo?$AAw?$AAe?$AAr?$AA?3?$AA?5?$AAs?$AAt?$AAo?$AAp?$AA?5?$AAD?$AAM?$AAA?$AA?$AN?$AA?6?$AA?$AA@|
  00964		 |$LN42@SetPower|
  00964	00000000	 DCD         |??_C@_1EC@OCKKHLOL@?$AAU?$AAA?$AAR?$AAT?$AA?3?$AAS?$AAe?$AAt?$AAP?$AAo?$AAw?$AAe?$AAr?$AA?3?$AA?5?$AAD?$AA?$CF?$AAd?$AA?5?$AA?$CI?$AAc?$AAu?$AAr?$AAD?$AAx?$AA?$DN?$AAD?$AA?$CF?$AAd?$AA?$CJ?$AA?$AN?$AA?6@|
  00968		 |$M46652|

			 ENDP  ; |SetPower|

	IMPORT	|EventModify|
; File c:\wince600\public\common\sdk\inc\kfuncs.h

  00000			 AREA	 |.pdata|, PDATA
|$T46665| DCD	|$LN5@SetEvent|
	DCD	0x40000e04
; Function compile flags: /Odtp

  00000			 AREA	 |.text|, CODE, ARM

  00000		 |SetEvent| PROC

; 235  : _inline BOOL SetEvent(HANDLE h) {

  00000		 |$LN5@SetEvent|
  00000	e1a0c00d	 mov         r12, sp
  00004	e92d0001	 stmdb       sp!, {r0}
  00008	e92d5000	 stmdb       sp!, {r12, lr}
  0000c	e24dd008	 sub         sp, sp, #8
  00010		 |$M46662|

; 236  : 	return EventModify(h,EVENT_SET);

  00010	e3a01003	 mov         r1, #3
  00014	e59d0010	 ldr         r0, [sp, #0x10]
  00018	eb000000	 bl          EventModify
  0001c	e58d0004	 str         r0, [sp, #4]
  00020	e59d3004	 ldr         r3, [sp, #4]
  00024	e58d3000	 str         r3, [sp]

; 237  : }

  00028	e59d0000	 ldr         r0, [sp]
  0002c	e28dd008	 add         sp, sp, #8
  00030	e89d6000	 ldmia       sp, {sp, lr}
  00034	e12fff1e	 bx          lr
  00038		 |$M46663|

			 ENDP  ; |SetEvent|

; File c:\wince600\platform\common\src\soc\common_ti_v1\common_ti\inc\omap_sdma_utility.h

  00000			 AREA	 |.pdata|, PDATA
|$T46672| DCD	|$LN5@DmaStart|
	DCD	0x40000e03
; Function compile flags: /Odtp

  00000			 AREA	 |.text|, CODE, ARM

  00000		 |DmaStart| PROC

; 487  : {

  00000		 |$LN5@DmaStart|
  00000	e1a0c00d	 mov         r12, sp
  00004	e92d0001	 stmdb       sp!, {r0}
  00008	e92d5000	 stmdb       sp!, {r12, lr}
  0000c		 |$M46669|

; 488  :     // enable the dma channel
; 489  :     //
; 490  :     SETREG32(&pDataInfo->pDmaLcReg->CCR , DMA_CCR_ENABLE);

  0000c	e59d3008	 ldr         r3, [sp, #8]
  00010	e2833014	 add         r3, r3, #0x14
  00014	e5933000	 ldr         r3, [r3]
  00018	e5933000	 ldr         r3, [r3]
  0001c	e3832080	 orr         r2, r3, #0x80
  00020	e59d3008	 ldr         r3, [sp, #8]
  00024	e2833014	 add         r3, r3, #0x14
  00028	e5933000	 ldr         r3, [r3]
  0002c	e5832000	 str         r2, [r3]

; 491  : }

  00030	e89d6000	 ldmia       sp, {sp, lr}
  00034	e12fff1e	 bx          lr
  00038		 |$M46670|

			 ENDP  ; |DmaStart|

	EXPORT	|??_C@_1HI@EFHNNLBF@?$AA?$CL?$AAH?$AAW?$AAG?$AAe?$AAt?$AAI?$AAn?$AAt?$AAe?$AAr?$AAr?$AAu?$AAp?$AAt?$AAT?$AAy?$AAp?$AAe?$AA?5?$AAP?$AAu?$AAl?$AAl?$AAe?$AAd?$AA?5?$AA?$CF?$AAd?$AA?5?$AAb?$AAy@| [ DATA ] ; `string'
	EXPORT	|DmaStop|

  00018			 AREA	 |.pdata|, PDATA
|$T46682| DCD	|$LN10@RxDmaStop|
	DCD	0x40004504
; File c:\wince600\platform\common\src\soc\common_ti_v1\common_ti\serial\uart\pdd.c

  00000			 AREA	 |.rdata|, DATA, READONLY
|??_C@_1HI@EFHNNLBF@?$AA?$CL?$AAH?$AAW?$AAG?$AAe?$AAt?$AAI?$AAn?$AAt?$AAe?$AAr?$AAr?$AAu?$AAp?$AAt?$AAT?$AAy?$AAp?$AAe?$AA?5?$AAP?$AAu?$AAl?$AAl?$AAe?$AAd?$AA?5?$AA?$CF?$AAd?$AA?5?$AAb?$AAy@| DCB "+"
	DCB	0x0, "H", 0x0, "W", 0x0, "G", 0x0, "e", 0x0, "t", 0x0, "I"
	DCB	0x0, "n", 0x0, "t", 0x0, "e", 0x0, "r", 0x0, "r", 0x0, "u"
	DCB	0x0, "p", 0x0, "t", 0x0, "T", 0x0, "y", 0x0, "p", 0x0, "e"
	DCB	0x0, " ", 0x0, "P", 0x0, "u", 0x0, "l", 0x0, "l", 0x0, "e"
	DCB	0x0, "d", 0x0, " ", 0x0, "%", 0x0, "d", 0x0, " ", 0x0, "b"
	DCB	0x0, "y", 0x0, "t", 0x0, "e", 0x0, "s", 0x0, ".", 0x0, " "
	DCB	0x0, "S", 0x0, "h", 0x0, "o", 0x0, "u", 0x0, "l", 0x0, "d"
	DCB	0x0, "n", 0x0, "'", 0x0, "t", 0x0, " ", 0x0, "b", 0x0, "e"
	DCB	0x0, " ", 0x0, "h", 0x0, "e", 0x0, "r", 0x0, "e", 0x0, "!"
	DCB	0x0, "!", 0x0, "!", 0x0, 0xd, 0x0, 0xa, 0x0, 0x0, 0x0 ; `string'
; Function compile flags: /Odtp

  00968			 AREA	 |.text|, CODE, ARM

  00968		 |RxDmaStop| PROC

; 469  : {

  00968		 |$LN10@RxDmaStop|
  00968	e1a0c00d	 mov         r12, sp
  0096c	e92d0003	 stmdb       sp!, {r0, r1}
  00970	e92d5000	 stmdb       sp!, {r12, lr}
  00974	e24dd018	 sub         sp, sp, #0x18
  00978		 |$M46679|

; 470  :     DWORD   dwCount     = 0;

  00978	e3a03000	 mov         r3, #0
  0097c	e58d3000	 str         r3, [sp]

; 471  :     BYTE*   pbDataPtr   = NULL;

  00980	e3a03000	 mov         r3, #0
  00984	e58d3004	 str         r3, [sp, #4]

; 472  : 
; 473  :     DmaStop(pPdd->RxDmaInfo);

  00988	e59d3020	 ldr         r3, [sp, #0x20]
  0098c	e2833f49	 add         r3, r3, #0x49, 30
  00990	e5930000	 ldr         r0, [r3]
  00994	eb000000	 bl          DmaStop

; 474  : 
; 475  :     pbDataPtr = DmaGetLastWritePos(pPdd->RxDmaInfo);

  00998	e59d3020	 ldr         r3, [sp, #0x20]
  0099c	e2833f49	 add         r3, r3, #0x49, 30
  009a0	e5930000	 ldr         r0, [r3]
  009a4	eb000000	 bl          DmaGetLastWritePos
  009a8	e58d000c	 str         r0, [sp, #0xC]
  009ac	e59d300c	 ldr         r3, [sp, #0xC]
  009b0	e58d3004	 str         r3, [sp, #4]
  009b4		 |$LN3@RxDmaStop|

; 476  :     while ((dwCount < MAX_RX_SERIALDMA_FRAMESIZE) && ((INREG8(&pPdd->pUartRegs->LSR) & UART_LSR_RX_FIFO_E) != 0))

  009b4	e59d3000	 ldr         r3, [sp]
  009b8	e353003f	 cmp         r3, #0x3F
  009bc	2a000012	 bcs         |$LN2@RxDmaStop|
  009c0	e59d3020	 ldr         r3, [sp, #0x20]
  009c4	e2833024	 add         r3, r3, #0x24
  009c8	e5933000	 ldr         r3, [r3]
  009cc	e2833014	 add         r3, r3, #0x14
  009d0	e5d33000	 ldrb        r3, [r3]
  009d4	e3130001	 tst         r3, #1
  009d8	0a00000b	 beq         |$LN2@RxDmaStop|

; 477  :     {
; 478  :         pbDataPtr[dwCount++] = INREG8(&pPdd->pUartRegs->RHR);

  009dc	e59d3020	 ldr         r3, [sp, #0x20]
  009e0	e2833024	 add         r3, r3, #0x24
  009e4	e5931000	 ldr         r1, [r3]
  009e8	e59d2004	 ldr         r2, [sp, #4]
  009ec	e59d3000	 ldr         r3, [sp]
  009f0	e0822003	 add         r2, r2, r3
  009f4	e5d13000	 ldrb        r3, [r1]
  009f8	e5c23000	 strb        r3, [r2]
  009fc	e59d3000	 ldr         r3, [sp]
  00a00	e2833001	 add         r3, r3, #1
  00a04	e58d3000	 str         r3, [sp]

; 479  :     }

  00a08	eaffffe9	 b           |$LN3@RxDmaStop|
  00a0c		 |$LN2@RxDmaStop|

; 480  :     
; 481  :     if (dwCount >= MAX_RX_SERIALDMA_FRAMESIZE)

  00a0c	e59d3000	 ldr         r3, [sp]
  00a10	e353003f	 cmp         r3, #0x3F
  00a14	3a00000b	 bcc         |$LN1@RxDmaStop|

; 482  :     {
; 483  :         DEBUGMSG(ZONE_ERROR, (L"+HWGetInterruptType Pulled %d bytes. Shouldn't be here!!!\r\n", dwCount));

  00a18	e59f3058	 ldr         r3, [pc, #0x58]
  00a1c	e5933440	 ldr         r3, [r3, #0x440]
  00a20	e3130902	 tst         r3, #2, 18
  00a24	0a000005	 beq         |$LN6@RxDmaStop|
  00a28	e59d1000	 ldr         r1, [sp]
  00a2c	e59f0040	 ldr         r0, [pc, #0x40]
  00a30	eb000000	 bl          NKDbgPrintfW
  00a34	e3a03001	 mov         r3, #1
  00a38	e58d3010	 str         r3, [sp, #0x10]
  00a3c	ea000001	 b           |$LN7@RxDmaStop|
  00a40		 |$LN6@RxDmaStop|
  00a40	e3a03000	 mov         r3, #0
  00a44	e58d3010	 str         r3, [sp, #0x10]
  00a48		 |$LN7@RxDmaStop|
  00a48		 |$LN1@RxDmaStop|

; 484  :         //UART_RegDump(pPdd);
; 485  :     }
; 486  : 
; 487  :     return UpdateDMARxPointer(pPdd, bPurge, dwCount);

  00a48	e59d2000	 ldr         r2, [sp]
  00a4c	e59d1024	 ldr         r1, [sp, #0x24]
  00a50	e59d0020	 ldr         r0, [sp, #0x20]
  00a54	eb000000	 bl          UpdateDMARxPointer
  00a58	e58d0014	 str         r0, [sp, #0x14]
  00a5c	e59d3014	 ldr         r3, [sp, #0x14]
  00a60	e58d3008	 str         r3, [sp, #8]

; 488  : }

  00a64	e59d0008	 ldr         r0, [sp, #8]
  00a68	e28dd018	 add         sp, sp, #0x18
  00a6c	e89d6000	 ldmia       sp, {sp, lr}
  00a70	e12fff1e	 bx          lr
  00a74		 |$LN11@RxDmaStop|
  00a74		 |$LN12@RxDmaStop|
  00a74	00000000	 DCD         |??_C@_1HI@EFHNNLBF@?$AA?$CL?$AAH?$AAW?$AAG?$AAe?$AAt?$AAI?$AAn?$AAt?$AAe?$AAr?$AAr?$AAu?$AAp?$AAt?$AAT?$AAy?$AAp?$AAe?$AA?5?$AAP?$AAu?$AAl?$AAl?$AAe?$AAd?$AA?5?$AA?$CF?$AAd?$AA?5?$AAb?$AAy@|
  00a78		 |$LN13@RxDmaStop|
  00a78	00000000	 DCD         |dpCurSettings|
  00a7c		 |$M46680|

			 ENDP  ; |RxDmaStop|

; File c:\wince600\platform\common\src\soc\common_ti_v1\common_ti\inc\omap_sdma_utility.h

  00000			 AREA	 |.pdata|, PDATA
|$T46691| DCD	|$LN11@DmaStop|
	DCD	0x40002604
; Function compile flags: /Odtp

  00000			 AREA	 |.text|, CODE, ARM

  00000		 |DmaStop| PROC

; 449  : {

  00000		 |$LN11@DmaStop|
  00000	e1a0c00d	 mov         r12, sp
  00004	e92d0001	 stmdb       sp!, {r0}
  00008	e92d5000	 stmdb       sp!, {r12, lr}
  0000c	e24dd008	 sub         sp, sp, #8
  00010		 |$M46688|

; 450  :     volatile ULONG ulCCR;
; 451  :     BOOL breakLoop = FALSE;

  00010	e3a03000	 mov         r3, #0
  00014	e58d3000	 str         r3, [sp]

; 452  : 
; 453  :     // disable standby in dma controller
; 454  :     //
; 455  :     CLRREG32(&pDataInfo->pDmaLcReg->CCR , DMA_CCR_ENABLE);

  00018	e59d3010	 ldr         r3, [sp, #0x10]
  0001c	e2833014	 add         r3, r3, #0x14
  00020	e5933000	 ldr         r3, [r3]
  00024	e5932000	 ldr         r2, [r3]
  00028	e3e03080	 mvn         r3, #0x80
  0002c	e0022003	 and         r2, r2, r3
  00030	e59d3010	 ldr         r3, [sp, #0x10]
  00034	e2833014	 add         r3, r3, #0x14
  00038	e5933000	 ldr         r3, [r3]
  0003c	e5832000	 str         r2, [r3]
  00040		 |$LN8@DmaStop|
  00040		 |$LN5@DmaStop|

; 456  : 
; 457  :     // ensure DMA transfer is completed by polling the active bits
; 458  :     //
; 459  :     while (breakLoop == FALSE)

  00040	e59d3000	 ldr         r3, [sp]
  00044	e3530000	 cmp         r3, #0
  00048	1a00000f	 bne         |$LN4@DmaStop|

; 460  :         {
; 461  :         ulCCR = INREG32(&pDataInfo->pDmaLcReg->CCR);

  0004c	e59d3010	 ldr         r3, [sp, #0x10]
  00050	e2833014	 add         r3, r3, #0x14
  00054	e5933000	 ldr         r3, [r3]
  00058	e5933000	 ldr         r3, [r3]
  0005c	e58d3004	 str         r3, [sp, #4]

; 462  :         if ((ulCCR & DMA_CCR_WR_ACTIVE) || (ulCCR & DMA_CCR_RD_ACTIVE))

  00060	e59d3004	 ldr         r3, [sp, #4]
  00064	e3130b01	 tst         r3, #1, 22
  00068	1a000002	 bne         |$LN2@DmaStop|
  0006c	e59d3004	 ldr         r3, [sp, #4]
  00070	e3130c02	 tst         r3, #2, 24
  00074	0a000001	 beq         |$LN3@DmaStop|
  00078		 |$LN2@DmaStop|

; 463  :             {
; 464  :             // fix this infinite loop
; 465  :             //
; 466  :             continue;

  00078	eafffff0	 b           |$LN5@DmaStop|

; 467  :             }
; 468  :         else

  0007c	ea000001	 b           |$LN1@DmaStop|
  00080		 |$LN3@DmaStop|

; 469  :             {
; 470  :             breakLoop = TRUE;

  00080	e3a03001	 mov         r3, #1
  00084	e58d3000	 str         r3, [sp]
  00088		 |$LN1@DmaStop|

; 471  :             }
; 472  :         }

  00088	eaffffec	 b           |$LN8@DmaStop|
  0008c		 |$LN4@DmaStop|

; 473  : 
; 474  : }

  0008c	e28dd008	 add         sp, sp, #8
  00090	e89d6000	 ldmia       sp, {sp, lr}
  00094	e12fff1e	 bx          lr
  00098		 |$M46689|

			 ENDP  ; |DmaStop|

	EXPORT	|??_C@_1CC@DHLFALGK@?$AA?9?$AAS?$AAe?$AAt?$AAA?$AAu?$AAt?$AAo?$AAI?$AAd?$AAl?$AAe?$AA?$CI?$AA?$CJ?$AA?$AN?$AA?6?$AA?$AA@| [ DATA ] ; `string'
	EXPORT	|??_C@_1CG@GODDPDIO@?$AA?$CL?$AAS?$AAe?$AAt?$AAA?$AAu?$AAt?$AAo?$AAI?$AAd?$AAl?$AAe?$AA?$CI?$AA?$CF?$AAd?$AA?$CJ?$AA?$AN?$AA?6?$AA?$AA@| [ DATA ] ; `string'
	IMPORT	|InterlockedDecrement|
	IMPORT	|InterlockedIncrement|

  00020			 AREA	 |.pdata|, PDATA
|$T46703| DCD	|$LN13@SetAutoIdl|
	DCD	0x40004e04
; File c:\wince600\platform\common\src\soc\common_ti_v1\common_ti\serial\uart\pdd.c

  00000			 AREA	 |.rdata|, DATA, READONLY
|??_C@_1CC@DHLFALGK@?$AA?9?$AAS?$AAe?$AAt?$AAA?$AAu?$AAt?$AAo?$AAI?$AAd?$AAl?$AAe?$AA?$CI?$AA?$CJ?$AA?$AN?$AA?6?$AA?$AA@| DCB "-"
	DCB	0x0, "S", 0x0, "e", 0x0, "t", 0x0, "A", 0x0, "u", 0x0, "t"
	DCB	0x0, "o", 0x0, "I", 0x0, "d", 0x0, "l", 0x0, "e", 0x0, "("
	DCB	0x0, ")", 0x0, 0xd, 0x0, 0xa, 0x0, 0x0, 0x0 ; `string'

  00000			 AREA	 |.rdata|, DATA, READONLY
|??_C@_1CG@GODDPDIO@?$AA?$CL?$AAS?$AAe?$AAt?$AAA?$AAu?$AAt?$AAo?$AAI?$AAd?$AAl?$AAe?$AA?$CI?$AA?$CF?$AAd?$AA?$CJ?$AA?$AN?$AA?6?$AA?$AA@| DCB "+"
	DCB	0x0, "S", 0x0, "e", 0x0, "t", 0x0, "A", 0x0, "u", 0x0, "t"
	DCB	0x0, "o", 0x0, "I", 0x0, "d", 0x0, "l", 0x0, "e", 0x0, "("
	DCB	0x0, "%", 0x0, "d", 0x0, ")", 0x0, 0xd, 0x0, 0xa, 0x0, 0x0
	DCB	0x0					; `string'
; Function compile flags: /Odtp

  00a7c			 AREA	 |.text|, CODE, ARM

  00a7c		 |SetAutoIdle| PROC

; 532  : {

  00a7c		 |$LN13@SetAutoIdl|
  00a7c	e1a0c00d	 mov         r12, sp
  00a80	e92d0003	 stmdb       sp!, {r0, r1}
  00a84	e92d5000	 stmdb       sp!, {r12, lr}
  00a88	e24dd010	 sub         sp, sp, #0x10
  00a8c		 |$M46700|

; 533  :     OMAP_UART_REGS *pUartRegs = pPdd->pUartRegs;

  00a8c	e59d3018	 ldr         r3, [sp, #0x18]
  00a90	e2833024	 add         r3, r3, #0x24
  00a94	e5933000	 ldr         r3, [r3]
  00a98	e58d3000	 str         r3, [sp]

; 534  : 
; 535  :     DEBUGMSG(ZONE_FUNCTION, (L"+SetAutoIdle(%d)\r\n", enable));

  00a9c	e59f3108	 ldr         r3, [pc, #0x108]
  00aa0	e5933440	 ldr         r3, [r3, #0x440]
  00aa4	e3130a02	 tst         r3, #2, 20
  00aa8	0a000005	 beq         |$LN7@SetAutoIdl|
  00aac	e59d101c	 ldr         r1, [sp, #0x1C]
  00ab0	e59f00f8	 ldr         r0, [pc, #0xF8]
  00ab4	eb000000	 bl          NKDbgPrintfW
  00ab8	e3a03001	 mov         r3, #1
  00abc	e58d3008	 str         r3, [sp, #8]
  00ac0	ea000001	 b           |$LN8@SetAutoIdl|
  00ac4		 |$LN7@SetAutoIdl|
  00ac4	e3a03000	 mov         r3, #0
  00ac8	e58d3008	 str         r3, [sp, #8]
  00acc		 |$LN8@SetAutoIdl|

; 536  : 
; 537  :     EnterCriticalSection(&pPdd->hwCS);

  00acc	e59d3018	 ldr         r3, [sp, #0x18]
  00ad0	e2830098	 add         r0, r3, #0x98
  00ad4	eb000000	 bl          EnterCriticalSection

; 538  : 
; 539  :     // Enable/disable hardware auto Idle
; 540  :     if (enable)

  00ad8	e59d301c	 ldr         r3, [sp, #0x1C]
  00adc	e3530000	 cmp         r3, #0
  00ae0	0a000010	 beq         |$LN4@SetAutoIdl|

; 541  :     {
; 542  :         if(!pPdd->RxTxRefCount)

  00ae4	e59d3018	 ldr         r3, [sp, #0x18]
  00ae8	e2833d05	 add         r3, r3, #5, 26
  00aec	e5933000	 ldr         r3, [r3]
  00af0	e3530000	 cmp         r3, #0
  00af4	1a000003	 bne         |$LN3@SetAutoIdl|

; 543  :             {
; 544  :                 OUTREG8(
; 545  :                 &pUartRegs->SYSC,
; 546  :                 // Disable force idle, to avoid data corruption
; 547  :                 UART_SYSC_IDLE_DISABLED|UART_SYSC_WAKEUP_ENABLE
; 548  :                 );

  00af8	e59d3000	 ldr         r3, [sp]
  00afc	e2832054	 add         r2, r3, #0x54
  00b00	e3a0300c	 mov         r3, #0xC
  00b04	e5c23000	 strb        r3, [r2]
  00b08		 |$LN3@SetAutoIdl|

; 549  :             }
; 550  :         pPdd->bDisableAutoIdle = FALSE;

  00b08	e59d3018	 ldr         r3, [sp, #0x18]
  00b0c	e2832f5a	 add         r2, r3, #0x5A, 30
  00b10	e3a03000	 mov         r3, #0
  00b14	e5823000	 str         r3, [r2]

; 551  :         InterlockedIncrement((LONG*) &pPdd->RxTxRefCount);

  00b18	e59d3018	 ldr         r3, [sp, #0x18]
  00b1c	e2830d05	 add         r0, r3, #5, 26
  00b20	eb000000	 bl          InterlockedIncrement

; 552  :     }
; 553  :     else

  00b24	ea00000b	 b           |$LN2@SetAutoIdl|
  00b28		 |$LN4@SetAutoIdl|

; 554  :     {
; 555  :         InterlockedDecrement((LONG*) &pPdd->RxTxRefCount);

  00b28	e59d3018	 ldr         r3, [sp, #0x18]
  00b2c	e2830d05	 add         r0, r3, #5, 26
  00b30	eb000000	 bl          InterlockedDecrement

; 556  :         if(!pPdd->RxTxRefCount) 

  00b34	e59d3018	 ldr         r3, [sp, #0x18]
  00b38	e2833d05	 add         r3, r3, #5, 26
  00b3c	e5933000	 ldr         r3, [r3]
  00b40	e3530000	 cmp         r3, #0
  00b44	1a000003	 bne         |$LN1@SetAutoIdl|

; 557  :             SetEvent(pPdd->hPowerEvent);

  00b48	e59d3018	 ldr         r3, [sp, #0x18]
  00b4c	e2833f57	 add         r3, r3, #0x57, 30
  00b50	e5930000	 ldr         r0, [r3]
  00b54	eb000000	 bl          SetEvent
  00b58		 |$LN1@SetAutoIdl|
  00b58		 |$LN2@SetAutoIdl|

; 558  :     }
; 559  : 
; 560  :     LeaveCriticalSection(&pPdd->hwCS);

  00b58	e59d3018	 ldr         r3, [sp, #0x18]
  00b5c	e2830098	 add         r0, r3, #0x98
  00b60	eb000000	 bl          LeaveCriticalSection

; 561  : 
; 562  :     DEBUGMSG(ZONE_FUNCTION, (L"-SetAutoIdle()\r\n"));

  00b64	e59f3040	 ldr         r3, [pc, #0x40]
  00b68	e5933440	 ldr         r3, [r3, #0x440]
  00b6c	e3130a02	 tst         r3, #2, 20
  00b70	0a000004	 beq         |$LN9@SetAutoIdl|
  00b74	e59f002c	 ldr         r0, [pc, #0x2C]
  00b78	eb000000	 bl          NKDbgPrintfW
  00b7c	e3a03001	 mov         r3, #1
  00b80	e58d300c	 str         r3, [sp, #0xC]
  00b84	ea000001	 b           |$LN10@SetAutoIdl|
  00b88		 |$LN9@SetAutoIdl|
  00b88	e3a03000	 mov         r3, #0
  00b8c	e58d300c	 str         r3, [sp, #0xC]
  00b90		 |$LN10@SetAutoIdl|

; 563  :     return TRUE;

  00b90	e3a03001	 mov         r3, #1
  00b94	e58d3004	 str         r3, [sp, #4]

; 564  : }

  00b98	e59d0004	 ldr         r0, [sp, #4]
  00b9c	e28dd010	 add         sp, sp, #0x10
  00ba0	e89d6000	 ldmia       sp, {sp, lr}
  00ba4	e12fff1e	 bx          lr
  00ba8		 |$LN14@SetAutoIdl|
  00ba8		 |$LN15@SetAutoIdl|
  00ba8	00000000	 DCD         |??_C@_1CC@DHLFALGK@?$AA?9?$AAS?$AAe?$AAt?$AAA?$AAu?$AAt?$AAo?$AAI?$AAd?$AAl?$AAe?$AA?$CI?$AA?$CJ?$AA?$AN?$AA?6?$AA?$AA@|
  00bac		 |$LN16@SetAutoIdl|
  00bac	00000000	 DCD         |dpCurSettings|
  00bb0		 |$LN17@SetAutoIdl|
  00bb0	00000000	 DCD         |??_C@_1CG@GODDPDIO@?$AA?$CL?$AAS?$AAe?$AAt?$AAA?$AAu?$AAt?$AAo?$AAI?$AAd?$AAl?$AAe?$AA?$CI?$AA?$CF?$AAd?$AA?$CJ?$AA?$AN?$AA?6?$AA?$AA@|
  00bb4		 |$M46701|

			 ENDP  ; |SetAutoIdle|

	EXPORT	|??_C@_1DE@BMFKMGAF@?$AA?9?$AAG?$AAe?$AAt?$AAS?$AAe?$AAr?$AAi?$AAa?$AAl?$AAO?$AAb?$AAj?$AAe?$AAc?$AAt?$AA?$CI?$AA?$CJ?$AA?$DN?$AA0?$AAx?$AA?$CF?$AAx?$AA?$AN?$AA?6?$AA?$AA@| [ DATA ] ; `string'
	EXPORT	|??_C@_1CO@HBJOKJPN@?$AA?$CL?$AAG?$AAe?$AAt?$AAS?$AAe?$AAr?$AAi?$AAa?$AAl?$AAO?$AAb?$AAj?$AAe?$AAc?$AAt?$AA?$CI?$AA?$CF?$AAd?$AA?$CJ?$AA?$AN?$AA?6?$AA?$AA@| [ DATA ] ; `string'
	EXPORT	|GetSerialObject|
	IMPORT	|malloc|

  00028			 AREA	 |.pdata|, PDATA
|$T46717| DCD	|$LN10@GetSerialO|
	DCD	0x40003a04

  00000			 AREA	 |.rdata|, DATA, READONLY
|??_C@_1DE@BMFKMGAF@?$AA?9?$AAG?$AAe?$AAt?$AAS?$AAe?$AAr?$AAi?$AAa?$AAl?$AAO?$AAb?$AAj?$AAe?$AAc?$AAt?$AA?$CI?$AA?$CJ?$AA?$DN?$AA0?$AAx?$AA?$CF?$AAx?$AA?$AN?$AA?6?$AA?$AA@| DCB "-"
	DCB	0x0, "G", 0x0, "e", 0x0, "t", 0x0, "S", 0x0, "e", 0x0, "r"
	DCB	0x0, "i", 0x0, "a", 0x0, "l", 0x0, "O", 0x0, "b", 0x0, "j"
	DCB	0x0, "e", 0x0, "c", 0x0, "t", 0x0, "(", 0x0, ")", 0x0, "="
	DCB	0x0, "0", 0x0, "x", 0x0, "%", 0x0, "x", 0x0, 0xd, 0x0, 0xa
	DCB	0x0, 0x0, 0x0				; `string'

  00000			 AREA	 |.rdata|, DATA, READONLY
|??_C@_1CO@HBJOKJPN@?$AA?$CL?$AAG?$AAe?$AAt?$AAS?$AAe?$AAr?$AAi?$AAa?$AAl?$AAO?$AAb?$AAj?$AAe?$AAc?$AAt?$AA?$CI?$AA?$CF?$AAd?$AA?$CJ?$AA?$AN?$AA?6?$AA?$AA@| DCB "+"
	DCB	0x0, "G", 0x0, "e", 0x0, "t", 0x0, "S", 0x0, "e", 0x0, "r"
	DCB	0x0, "i", 0x0, "a", 0x0, "l", 0x0, "O", 0x0, "b", 0x0, "j"
	DCB	0x0, "e", 0x0, "c", 0x0, "t", 0x0, "(", 0x0, "%", 0x0, "d"
	DCB	0x0, ")", 0x0, 0xd, 0x0, 0xa, 0x0, 0x0, 0x0 ; `string'
; Function compile flags: /Odtp

  00bb4			 AREA	 |.text|, CODE, ARM

  00bb4		 |GetSerialObject| PROC

; 1152 : {

  00bb4		 |$LN10@GetSerialO|
  00bb4	e1a0c00d	 mov         r12, sp
  00bb8	e92d0001	 stmdb       sp!, {r0}
  00bbc	e92d5000	 stmdb       sp!, {r12, lr}
  00bc0	e24dd014	 sub         sp, sp, #0x14
  00bc4		 |$M46714|

; 1153 :     PHWOBJ pHWObj;
; 1154 : 
; 1155 :     UNREFERENCED_PARAMETER(index);
; 1156 :     DEBUGMSG(ZONE_FUNCTION, (L"+GetSerialObject(%d)\r\n", index));

  00bc4	e59f30c4	 ldr         r3, [pc, #0xC4]
  00bc8	e5933440	 ldr         r3, [r3, #0x440]
  00bcc	e3130a02	 tst         r3, #2, 20
  00bd0	0a000005	 beq         |$LN4@GetSerialO|
  00bd4	e59d101c	 ldr         r1, [sp, #0x1C]
  00bd8	e59f00b8	 ldr         r0, [pc, #0xB8]
  00bdc	eb000000	 bl          NKDbgPrintfW
  00be0	e3a03001	 mov         r3, #1
  00be4	e58d3008	 str         r3, [sp, #8]
  00be8	ea000001	 b           |$LN5@GetSerialO|
  00bec		 |$LN4@GetSerialO|
  00bec	e3a03000	 mov         r3, #0
  00bf0	e58d3008	 str         r3, [sp, #8]
  00bf4		 |$LN5@GetSerialO|

; 1157 : 
; 1158 :     // Allocate space for the HWOBJ.
; 1159 :     pHWObj = malloc(sizeof(HWOBJ));

  00bf4	e3a0000c	 mov         r0, #0xC
  00bf8	eb000000	 bl          malloc
  00bfc	e58d000c	 str         r0, [sp, #0xC]
  00c00	e59d300c	 ldr         r3, [sp, #0xC]
  00c04	e58d3000	 str         r3, [sp]

; 1160 :     if (pHWObj == NULL) goto cleanUp;

  00c08	e59d3000	 ldr         r3, [sp]
  00c0c	e3530000	 cmp         r3, #0
  00c10	1a000000	 bne         |$LN1@GetSerialO|
  00c14	ea00000a	 b           |$cleanUp$45116|
  00c18		 |$LN1@GetSerialO|

; 1161 : 
; 1162 :     // Fill in the HWObj structure
; 1163 :     pHWObj->BindFlags = THREAD_AT_OPEN;

  00c18	e59d2000	 ldr         r2, [sp]
  00c1c	e3a03002	 mov         r3, #2
  00c20	e5823000	 str         r3, [r2]

; 1164 :     pHWObj->dwIntID = 0;

  00c24	e59d3000	 ldr         r3, [sp]
  00c28	e2832004	 add         r2, r3, #4
  00c2c	e3a03000	 mov         r3, #0
  00c30	e5823000	 str         r3, [r2]

; 1165 :     pHWObj->pFuncTbl = &g_pddVTbl;

  00c34	e59d3000	 ldr         r3, [sp]
  00c38	e2832008	 add         r2, r3, #8
  00c3c	e59f3050	 ldr         r3, [pc, #0x50]
  00c40	e5823000	 str         r3, [r2]
  00c44		 |$cleanUp$45116|

; 1166 : 
; 1167 : cleanUp:
; 1168 :     DEBUGMSG(ZONE_FUNCTION, (L"-GetSerialObject()=0x%x\r\n", pHWObj));

  00c44	e59f3044	 ldr         r3, [pc, #0x44]
  00c48	e5933440	 ldr         r3, [r3, #0x440]
  00c4c	e3130a02	 tst         r3, #2, 20
  00c50	0a000005	 beq         |$LN6@GetSerialO|
  00c54	e59d1000	 ldr         r1, [sp]
  00c58	e59f002c	 ldr         r0, [pc, #0x2C]
  00c5c	eb000000	 bl          NKDbgPrintfW
  00c60	e3a03001	 mov         r3, #1
  00c64	e58d3010	 str         r3, [sp, #0x10]
  00c68	ea000001	 b           |$LN7@GetSerialO|
  00c6c		 |$LN6@GetSerialO|
  00c6c	e3a03000	 mov         r3, #0
  00c70	e58d3010	 str         r3, [sp, #0x10]
  00c74		 |$LN7@GetSerialO|

; 1169 :     return pHWObj;

  00c74	e59d3000	 ldr         r3, [sp]
  00c78	e58d3004	 str         r3, [sp, #4]

; 1170 : }

  00c7c	e59d0004	 ldr         r0, [sp, #4]
  00c80	e28dd014	 add         sp, sp, #0x14
  00c84	e89d6000	 ldmia       sp, {sp, lr}
  00c88	e12fff1e	 bx          lr
  00c8c		 |$LN11@GetSerialO|
  00c8c		 |$LN12@GetSerialO|
  00c8c	00000000	 DCD         |??_C@_1DE@BMFKMGAF@?$AA?9?$AAG?$AAe?$AAt?$AAS?$AAe?$AAr?$AAi?$AAa?$AAl?$AAO?$AAb?$AAj?$AAe?$AAc?$AAt?$AA?$CI?$AA?$CJ?$AA?$DN?$AA0?$AAx?$AA?$CF?$AAx?$AA?$AN?$AA?6?$AA?$AA@|
  00c90		 |$LN13@GetSerialO|
  00c90	00000000	 DCD         |dpCurSettings|
  00c94		 |$LN14@GetSerialO|
  00c94	00000000	 DCD         |g_pddVTbl|
  00c98		 |$LN15@GetSerialO|
  00c98	00000000	 DCD         |??_C@_1CO@HBJOKJPN@?$AA?$CL?$AAG?$AAe?$AAt?$AAS?$AAe?$AAr?$AAi?$AAa?$AAl?$AAO?$AAb?$AAj?$AAe?$AAc?$AAt?$AA?$CI?$AA?$CF?$AAd?$AA?$CJ?$AA?$AN?$AA?6?$AA?$AA@|
  00c9c		 |$M46715|

			 ENDP  ; |GetSerialObject|

	EXPORT	|??_C@_1BM@MIDMIFLO@?$AA?9?$AAI?$AAS?$AAT?$AA_?$AAR?$AAX?$AAD?$AAM?$AAA?$AA?3?$AA?$AN?$AA?6?$AA?$AA@| [ DATA ] ; `string'
	EXPORT	|??_C@_1FK@GIEFHHLM@?$AAE?$AAr?$AAr?$AAo?$AAr?$AA?3?$AA?5?$AAI?$AAS?$AAT?$AA_?$AAR?$AAx?$AAD?$AAM?$AAA?$AA?3?$AA?5?$AAS?$AAh?$AAo?$AAu?$AAl?$AAd?$AAn?$AA?8?$AAt?$AA?5?$AAg?$AAe?$AAt?$AA?5@| [ DATA ] ; `string'
	EXPORT	|??_C@_1FO@PBHPNCNC@?$AAI?$AAS?$AAT?$AA_?$AAR?$AAx?$AAD?$AAM?$AAA?$AA?3?$AA?5?$AAG?$AAo?$AAt?$AA?5?$AAE?$AAn?$AAd?$AA?5?$AAo?$AAf?$AA?5?$AAb?$AAl?$AAo?$AAc?$AAk?$AA?5?$AAI?$AAn?$AAt?$AA?5@| [ DATA ] ; `string'
	EXPORT	|??_C@_1IC@JDKHDJNB@?$AAE?$AAR?$AAR?$AAO?$AAR?$AA?3?$AA?5?$AAI?$AAS?$AAT?$AA_?$AAR?$AAx?$AAD?$AAM?$AAA?$AA?3?$AA?5?$AAF?$AAa?$AAi?$AAl?$AAe?$AAd?$AA?5?$AAt?$AAo?$AA?5?$AAS?$AAi?$AAg?$AAn@| [ DATA ] ; `string'
	EXPORT	|DmaClearStatus|
	EXPORT	|DmaGetStatus|
	EXPORT	|??_C@_1GM@GPONIMLM@?$AAE?$AAR?$AAR?$AAO?$AAR?$AA?3?$AA?5?$AAI?$AAS?$AAT?$AA_?$AAR?$AAx?$AAD?$AAM?$AAA?$AA?3?$AA?5?$AAF?$AAa?$AAi?$AAl?$AAe?$AAd?$AA?5?$AAt?$AAo?$AA?5?$AAe?$AAn?$AAa?$AAb@| [ DATA ] ; `string'
	EXPORT	|GetCurrentThread|
	EXPORT	|IST_RxDMA|
	IMPORT	|DmaInterruptDone|
	IMPORT	|DmaEnableInterrupts|
	IMPORT	|CeSetThreadPriority|

  00030			 AREA	 |.pdata|, PDATA
|$T46739| DCD	|$LN31@IST_RxDMA|
	DCD	0x4000d604

  00000			 AREA	 |.rdata|, DATA, READONLY
|??_C@_1BM@MIDMIFLO@?$AA?9?$AAI?$AAS?$AAT?$AA_?$AAR?$AAX?$AAD?$AAM?$AAA?$AA?3?$AA?$AN?$AA?6?$AA?$AA@| DCB "-"
	DCB	0x0, "I", 0x0, "S", 0x0, "T", 0x0, "_", 0x0, "R", 0x0, "X"
	DCB	0x0, "D", 0x0, "M", 0x0, "A", 0x0, ":", 0x0, 0xd, 0x0, 0xa
	DCB	0x0, 0x0, 0x0				; `string'

  00000			 AREA	 |.rdata|, DATA, READONLY
|??_C@_1FK@GIEFHHLM@?$AAE?$AAr?$AAr?$AAo?$AAr?$AA?3?$AA?5?$AAI?$AAS?$AAT?$AA_?$AAR?$AAx?$AAD?$AAM?$AAA?$AA?3?$AA?5?$AAS?$AAh?$AAo?$AAu?$AAl?$AAd?$AAn?$AA?8?$AAt?$AA?5?$AAg?$AAe?$AAt?$AA?5@| DCB "E"
	DCB	0x0, "r", 0x0, "r", 0x0, "o", 0x0, "r", 0x0, ":", 0x0, " "
	DCB	0x0, "I", 0x0, "S", 0x0, "T", 0x0, "_", 0x0, "R", 0x0, "x"
	DCB	0x0, "D", 0x0, "M", 0x0, "A", 0x0, ":", 0x0, " ", 0x0, "S"
	DCB	0x0, "h", 0x0, "o", 0x0, "u", 0x0, "l", 0x0, "d", 0x0, "n"
	DCB	0x0, "'", 0x0, "t", 0x0, " ", 0x0, "g", 0x0, "e", 0x0, "t"
	DCB	0x0, " ", 0x0, "t", 0x0, "o", 0x0, " ", 0x0, "h", 0x0, "e"
	DCB	0x0, "r", 0x0, "e", 0x0, "!", 0x0, "!", 0x0, "!", 0x0, 0xd
	DCB	0x0, 0xa, 0x0, 0x0, 0x0			; `string'

  00000			 AREA	 |.rdata|, DATA, READONLY
|??_C@_1FO@PBHPNCNC@?$AAI?$AAS?$AAT?$AA_?$AAR?$AAx?$AAD?$AAM?$AAA?$AA?3?$AA?5?$AAG?$AAo?$AAt?$AA?5?$AAE?$AAn?$AAd?$AA?5?$AAo?$AAf?$AA?5?$AAb?$AAl?$AAo?$AAc?$AAk?$AA?5?$AAI?$AAn?$AAt?$AA?5@| DCB "I"
	DCB	0x0, "S", 0x0, "T", 0x0, "_", 0x0, "R", 0x0, "x", 0x0, "D"
	DCB	0x0, "M", 0x0, "A", 0x0, ":", 0x0, " ", 0x0, "G", 0x0, "o"
	DCB	0x0, "t", 0x0, " ", 0x0, "E", 0x0, "n", 0x0, "d", 0x0, " "
	DCB	0x0, "o", 0x0, "f", 0x0, " ", 0x0, "b", 0x0, "l", 0x0, "o"
	DCB	0x0, "c", 0x0, "k", 0x0, " ", 0x0, "I", 0x0, "n", 0x0, "t"
	DCB	0x0, " ", 0x0, "s", 0x0, "t", 0x0, "o", 0x0, "p", 0x0, "p"
	DCB	0x0, "i", 0x0, "n", 0x0, "g", 0x0, " ", 0x0, "D", 0x0, "M"
	DCB	0x0, "A", 0x0, 0xd, 0x0, 0xa, 0x0, 0x0, 0x0 ; `string'

  00000			 AREA	 |.rdata|, DATA, READONLY
|??_C@_1IC@JDKHDJNB@?$AAE?$AAR?$AAR?$AAO?$AAR?$AA?3?$AA?5?$AAI?$AAS?$AAT?$AA_?$AAR?$AAx?$AAD?$AAM?$AAA?$AA?3?$AA?5?$AAF?$AAa?$AAi?$AAl?$AAe?$AAd?$AA?5?$AAt?$AAo?$AA?5?$AAS?$AAi?$AAg?$AAn@| DCB "E"
	DCB	0x0, "R", 0x0, "R", 0x0, "O", 0x0, "R", 0x0, ":", 0x0, " "
	DCB	0x0, "I", 0x0, "S", 0x0, "T", 0x0, "_", 0x0, "R", 0x0, "x"
	DCB	0x0, "D", 0x0, "M", 0x0, "A", 0x0, ":", 0x0, " ", 0x0, "F"
	DCB	0x0, "a", 0x0, "i", 0x0, "l", 0x0, "e", 0x0, "d", 0x0, " "
	DCB	0x0, "t", 0x0, "o", 0x0, " ", 0x0, "S", 0x0, "i", 0x0, "g"
	DCB	0x0, "n", 0x0, "a", 0x0, "l", 0x0, " ", 0x0, "D", 0x0, "M"
	DCB	0x0, "A", 0x0, " ", 0x0, "R", 0x0, "X", 0x0, " ", 0x0, "i"
	DCB	0x0, "n", 0x0, "t", 0x0, "e", 0x0, "r", 0x0, "r", 0x0, "u"
	DCB	0x0, "p", 0x0, "t", 0x0, " ", 0x0, "c", 0x0, "o", 0x0, "m"
	DCB	0x0, "p", 0x0, "l", 0x0, "e", 0x0, "t", 0x0, "i", 0x0, "o"
	DCB	0x0, "n", 0x0, 0xd, 0x0, 0xa, 0x0, 0x0, 0x0 ; `string'

  00000			 AREA	 |.rdata|, DATA, READONLY
|??_C@_1GM@GPONIMLM@?$AAE?$AAR?$AAR?$AAO?$AAR?$AA?3?$AA?5?$AAI?$AAS?$AAT?$AA_?$AAR?$AAx?$AAD?$AAM?$AAA?$AA?3?$AA?5?$AAF?$AAa?$AAi?$AAl?$AAe?$AAd?$AA?5?$AAt?$AAo?$AA?5?$AAe?$AAn?$AAa?$AAb@| DCB "E"
	DCB	0x0, "R", 0x0, "R", 0x0, "O", 0x0, "R", 0x0, ":", 0x0, " "
	DCB	0x0, "I", 0x0, "S", 0x0, "T", 0x0, "_", 0x0, "R", 0x0, "x"
	DCB	0x0, "D", 0x0, "M", 0x0, "A", 0x0, ":", 0x0, " ", 0x0, "F"
	DCB	0x0, "a", 0x0, "i", 0x0, "l", 0x0, "e", 0x0, "d", 0x0, " "
	DCB	0x0, "t", 0x0, "o", 0x0, " ", 0x0, "e", 0x0, "n", 0x0, "a"
	DCB	0x0, "b", 0x0, "l", 0x0, "e", 0x0, " ", 0x0, "D", 0x0, "M"
	DCB	0x0, "A", 0x0, " ", 0x0, "R", 0x0, "X", 0x0, " ", 0x0, "i"
	DCB	0x0, "n", 0x0, "t", 0x0, "e", 0x0, "r", 0x0, "r", 0x0, "u"
	DCB	0x0, "p", 0x0, "t", 0x0, 0xd, 0x0, 0xa, 0x0, 0x0, 0x0 ; `string'
; Function compile flags: /Odtp

  00c9c			 AREA	 |.text|, CODE, ARM

  00c9c		 |IST_RxDMA| PROC

; 1179 : {

  00c9c		 |$LN31@IST_RxDMA|
  00c9c	e1a0c00d	 mov         r12, sp
  00ca0	e92d0001	 stmdb       sp!, {r0}
  00ca4	e92d5000	 stmdb       sp!, {r12, lr}
  00ca8	e24dd044	 sub         sp, sp, #0x44
  00cac		 |$M46736|

; 1180 :     UINT32 status;
; 1181 :     UARTPDD *pPdd = (UARTPDD *)pParam;

  00cac	e59d304c	 ldr         r3, [sp, #0x4C]
  00cb0	e58d3004	 str         r3, [sp, #4]

; 1182 : 
; 1183 :     //SetProcPermissions(0xFFFFFFFF);
; 1184 :     CeSetThreadPriority(GetCurrentThread(), 100);

  00cb4	eb000000	 bl          GetCurrentThread
  00cb8	e58d0010	 str         r0, [sp, #0x10]
  00cbc	e3a01064	 mov         r1, #0x64
  00cc0	e59d0010	 ldr         r0, [sp, #0x10]
  00cc4	eb000000	 bl          CeSetThreadPriority

; 1185 : 
; 1186 :     // register dma for interrupts
; 1187 :     if (DmaEnableInterrupts(pPdd->hRxDmaChannel, pPdd->hEventRxIstDma) == FALSE)

  00cc8	e59d3004	 ldr         r3, [sp, #4]
  00ccc	e2833f4a	 add         r3, r3, #0x4A, 30
  00cd0	e5931000	 ldr         r1, [r3]
  00cd4	e59d3004	 ldr         r3, [sp, #4]
  00cd8	e2833f4b	 add         r3, r3, #0x4B, 30
  00cdc	e5930000	 ldr         r0, [r3]
  00ce0	eb000000	 bl          DmaEnableInterrupts
  00ce4	e58d0014	 str         r0, [sp, #0x14]
  00ce8	e59d3014	 ldr         r3, [sp, #0x14]
  00cec	e3530000	 cmp         r3, #0
  00cf0	1a00000b	 bne         |$LN15@IST_RxDMA|

; 1188 :     {
; 1189 :         DEBUGMSG(ZONE_ERROR, (L"ERROR: IST_RxDMA: "
; 1190 :             L"Failed to enable DMA RX interrupt\r\n"
; 1191 :             ));

  00cf4	e59f32e4	 ldr         r3, [pc, #0x2E4]
  00cf8	e5933440	 ldr         r3, [r3, #0x440]
  00cfc	e3130902	 tst         r3, #2, 18
  00d00	0a000004	 beq         |$LN18@IST_RxDMA|
  00d04	e59f02e4	 ldr         r0, [pc, #0x2E4]
  00d08	eb000000	 bl          NKDbgPrintfW
  00d0c	e3a03001	 mov         r3, #1
  00d10	e58d3018	 str         r3, [sp, #0x18]
  00d14	ea000001	 b           |$LN19@IST_RxDMA|
  00d18		 |$LN18@IST_RxDMA|
  00d18	e3a03000	 mov         r3, #0
  00d1c	e58d3018	 str         r3, [sp, #0x18]
  00d20		 |$LN19@IST_RxDMA|

; 1192 :         goto cleanUp;

  00d20	ea00009c	 b           |$cleanUp$45129|
  00d24		 |$LN15@IST_RxDMA|
  00d24		 |$LN28@IST_RxDMA|
  00d24		 |$LN14@IST_RxDMA|

; 1193 :     }
; 1194 :     for(;;)
; 1195 :     {
; 1196 :         if (WaitForSingleObject(pPdd->hEventRxIstDma, INFINITE) == WAIT_OBJECT_0)

  00d24	e3e01000	 mvn         r1, #0
  00d28	e59d3004	 ldr         r3, [sp, #4]
  00d2c	e2833f4a	 add         r3, r3, #0x4A, 30
  00d30	e5930000	 ldr         r0, [r3]
  00d34	eb000000	 bl          WaitForSingleObject
  00d38	e58d001c	 str         r0, [sp, #0x1C]
  00d3c	e59d301c	 ldr         r3, [sp, #0x1C]
  00d40	e3530000	 cmp         r3, #0
  00d44	1a000092	 bne         |$LN12@IST_RxDMA|

; 1197 :         {
; 1198 :             // Check if this thread is to shutdown
; 1199 :             if (pPdd->bExitThread == TRUE) goto cleanUp;

  00d48	e59d3004	 ldr         r3, [sp, #4]
  00d4c	e2833f4e	 add         r3, r3, #0x4E, 30
  00d50	e5933000	 ldr         r3, [r3]
  00d54	e3530001	 cmp         r3, #1
  00d58	1a000000	 bne         |$LN11@IST_RxDMA|
  00d5c	ea00008d	 b           |$cleanUp$45129|
  00d60		 |$LN11@IST_RxDMA|

; 1200 :             // get cause of wake-up
; 1201 :             status = DmaGetStatus(pPdd->RxDmaInfo);

  00d60	e59d3004	 ldr         r3, [sp, #4]
  00d64	e2833f49	 add         r3, r3, #0x49, 30
  00d68	e5930000	 ldr         r0, [r3]
  00d6c	eb000000	 bl          DmaGetStatus
  00d70	e58d0020	 str         r0, [sp, #0x20]
  00d74	e59d3020	 ldr         r3, [sp, #0x20]
  00d78	e58d3000	 str         r3, [sp]

; 1202 :             if (status != 0)

  00d7c	e59d3000	 ldr         r3, [sp]
  00d80	e3530000	 cmp         r3, #0
  00d84	0a000082	 beq         |$LN10@IST_RxDMA|

; 1203 :             {
; 1204 :                 if (status & (DMA_CICR_BLOCK_IE | DMA_CICR_FRAME_IE))

  00d88	e59d3000	 ldr         r3, [sp]
  00d8c	e3130028	 tst         r3, #0x28
  00d90	0a00007f	 beq         |$LN9@IST_RxDMA|

; 1205 :                 {
; 1206 :                     // clear dma interrupts
; 1207 :                     DmaClearStatus(pPdd->RxDmaInfo, status);

  00d94	e59d1000	 ldr         r1, [sp]
  00d98	e59d3004	 ldr         r3, [sp, #4]
  00d9c	e2833f49	 add         r3, r3, #0x49, 30
  00da0	e5930000	 ldr         r0, [r3]
  00da4	eb000000	 bl          DmaClearStatus

; 1208 :                     if (DmaInterruptDone(pPdd->hRxDmaChannel) == FALSE)

  00da8	e59d3004	 ldr         r3, [sp, #4]
  00dac	e2833f4b	 add         r3, r3, #0x4B, 30
  00db0	e5930000	 ldr         r0, [r3]
  00db4	eb000000	 bl          DmaInterruptDone
  00db8	e58d0024	 str         r0, [sp, #0x24]
  00dbc	e59d3024	 ldr         r3, [sp, #0x24]
  00dc0	e3530000	 cmp         r3, #0
  00dc4	1a00000b	 bne         |$LN8@IST_RxDMA|

; 1209 :                     {
; 1210 :                         DEBUGMSG(ZONE_ERROR, (L"ERROR: IST_RxDMA: "
; 1211 :                             L"Failed to Signal DMA RX interrupt completion\r\n"
; 1212 :                             ));

  00dc8	e59f3210	 ldr         r3, [pc, #0x210]
  00dcc	e5933440	 ldr         r3, [r3, #0x440]
  00dd0	e3130902	 tst         r3, #2, 18
  00dd4	0a000004	 beq         |$LN20@IST_RxDMA|
  00dd8	e59f020c	 ldr         r0, [pc, #0x20C]
  00ddc	eb000000	 bl          NKDbgPrintfW
  00de0	e3a03001	 mov         r3, #1
  00de4	e58d3028	 str         r3, [sp, #0x28]
  00de8	ea000001	 b           |$LN21@IST_RxDMA|
  00dec		 |$LN20@IST_RxDMA|
  00dec	e3a03000	 mov         r3, #0
  00df0	e58d3028	 str         r3, [sp, #0x28]
  00df4		 |$LN21@IST_RxDMA|

; 1213 :                         goto cleanUp;

  00df4	ea000067	 b           |$cleanUp$45129|
  00df8		 |$LN8@IST_RxDMA|

; 1214 :                     }
; 1215 : 
; 1216 :                     if ((status & (DMA_CICR_BLOCK_IE | DMA_CICR_FRAME_IE)) == 0)

  00df8	e59d3000	 ldr         r3, [sp]
  00dfc	e3130028	 tst         r3, #0x28
  00e00	1a000000	 bne         |$LN7@IST_RxDMA|

; 1217 :                     {
; 1218 :                         continue;

  00e04	eaffffc6	 b           |$LN14@IST_RxDMA|
  00e08		 |$LN7@IST_RxDMA|

; 1219 :                     }
; 1220 : 
; 1221 :                     EnterCriticalSection(&pPdd->RxUpdatePtrCS);

  00e08	e59d3004	 ldr         r3, [sp, #4]
  00e0c	e28300c0	 add         r0, r3, #0xC0
  00e10	eb000000	 bl          EnterCriticalSection

; 1222 : 
; 1223 :                     if (status & DMA_CICR_BLOCK_IE )

  00e14	e59d3000	 ldr         r3, [sp]
  00e18	e3130020	 tst         r3, #0x20
  00e1c	0a00003a	 beq         |$LN6@IST_RxDMA|

; 1224 :                     {
; 1225 :                         SetAutoIdle(pPdd, FALSE);

  00e20	e3a01000	 mov         r1, #0
  00e24	e59d0004	 ldr         r0, [sp, #4]
  00e28	eb000000	 bl          SetAutoIdle

; 1226 : 
; 1227 :                         if (IsDmaEnable(pPdd->RxDmaInfo))

  00e2c	e59d3004	 ldr         r3, [sp, #4]
  00e30	e2833f49	 add         r3, r3, #0x49, 30
  00e34	e5930000	 ldr         r0, [r3]
  00e38	eb000000	 bl          IsDmaEnable
  00e3c	e58d002c	 str         r0, [sp, #0x2C]
  00e40	e59d302c	 ldr         r3, [sp, #0x2C]
  00e44	e3530000	 cmp         r3, #0
  00e48	0a00000e	 beq         |$LN5@IST_RxDMA|

; 1228 :                         {
; 1229 :                             DEBUGMSG(ZONE_FUNCTION, (L"IST_RxDMA: Got End of block Int stopping DMA\r\n"));

  00e4c	e59f318c	 ldr         r3, [pc, #0x18C]
  00e50	e5933440	 ldr         r3, [r3, #0x440]
  00e54	e3130a02	 tst         r3, #2, 20
  00e58	0a000004	 beq         |$LN22@IST_RxDMA|
  00e5c	e59f0184	 ldr         r0, [pc, #0x184]
  00e60	eb000000	 bl          NKDbgPrintfW
  00e64	e3a03001	 mov         r3, #1
  00e68	e58d3030	 str         r3, [sp, #0x30]
  00e6c	ea000001	 b           |$LN23@IST_RxDMA|
  00e70		 |$LN22@IST_RxDMA|
  00e70	e3a03000	 mov         r3, #0
  00e74	e58d3030	 str         r3, [sp, #0x30]
  00e78		 |$LN23@IST_RxDMA|

; 1230 :                             DmaStop(pPdd->RxDmaInfo);

  00e78	e59d3004	 ldr         r3, [sp, #4]
  00e7c	e2833f49	 add         r3, r3, #0x49, 30
  00e80	e5930000	 ldr         r0, [r3]
  00e84	eb000000	 bl          DmaStop
  00e88		 |$LN5@IST_RxDMA|

; 1231 :                         }
; 1232 : 
; 1233 :                         if((UpdateDMARxPointer(pPdd, FALSE, 0) == TRUE) && (pPdd->open == TRUE))

  00e88	e3a02000	 mov         r2, #0
  00e8c	e3a01000	 mov         r1, #0
  00e90	e59d0004	 ldr         r0, [sp, #4]
  00e94	eb000000	 bl          UpdateDMARxPointer
  00e98	e58d0034	 str         r0, [sp, #0x34]
  00e9c	e59d3034	 ldr         r3, [sp, #0x34]
  00ea0	e3530001	 cmp         r3, #1
  00ea4	1a00000c	 bne         |$LN4@IST_RxDMA|
  00ea8	e59d3004	 ldr         r3, [sp, #4]
  00eac	e2833054	 add         r3, r3, #0x54
  00eb0	e5933000	 ldr         r3, [r3]
  00eb4	e3530001	 cmp         r3, #1
  00eb8	1a000007	 bne         |$LN4@IST_RxDMA|

; 1234 :                         {
; 1235 :                             SetAutoIdle(pPdd, TRUE);

  00ebc	e3a01001	 mov         r1, #1
  00ec0	e59d0004	 ldr         r0, [sp, #4]
  00ec4	eb000000	 bl          SetAutoIdle

; 1236 :                             DmaStart(pPdd->RxDmaInfo);

  00ec8	e59d3004	 ldr         r3, [sp, #4]
  00ecc	e2833f49	 add         r3, r3, #0x49, 30
  00ed0	e5930000	 ldr         r0, [r3]
  00ed4	eb000000	 bl          DmaStart

; 1237 :                             DEBUGMSG(TESTENABLE, (L"IST_RxDMA: End of block DMA Start\r\n"));
; 1238 :                         }
; 1239 :                         else

  00ed8	ea00000a	 b           |$LN3@IST_RxDMA|
  00edc		 |$LN4@IST_RxDMA|

; 1240 :                         {
; 1241 :                             DEBUGMSG(ZONE_ERROR, (L"Error: IST_RxDMA: Shouldn't get to here!!!\r\n"));

  00edc	e59f30fc	 ldr         r3, [pc, #0xFC]
  00ee0	e5933440	 ldr         r3, [r3, #0x440]
  00ee4	e3130902	 tst         r3, #2, 18
  00ee8	0a000004	 beq         |$LN24@IST_RxDMA|
  00eec	e59f00f0	 ldr         r0, [pc, #0xF0]
  00ef0	eb000000	 bl          NKDbgPrintfW
  00ef4	e3a03001	 mov         r3, #1
  00ef8	e58d3038	 str         r3, [sp, #0x38]
  00efc	ea000001	 b           |$LN25@IST_RxDMA|
  00f00		 |$LN24@IST_RxDMA|
  00f00	e3a03000	 mov         r3, #0
  00f04	e58d3038	 str         r3, [sp, #0x38]
  00f08		 |$LN25@IST_RxDMA|
  00f08		 |$LN3@IST_RxDMA|

; 1242 :                         }
; 1243 :                     }
; 1244 :                     else

  00f08	ea000014	 b           |$LN2@IST_RxDMA|
  00f0c		 |$LN6@IST_RxDMA|

; 1245 :                     {
; 1246 :                         DWORD   dwLastDMAWrite = (DWORD)DmaGetLastWritePos(pPdd->RxDmaInfo);

  00f0c	e59d3004	 ldr         r3, [sp, #4]
  00f10	e2833f49	 add         r3, r3, #0x49, 30
  00f14	e5930000	 ldr         r0, [r3]
  00f18	eb000000	 bl          DmaGetLastWritePos
  00f1c	e58d003c	 str         r0, [sp, #0x3C]
  00f20	e59d303c	 ldr         r3, [sp, #0x3C]
  00f24	e58d3008	 str         r3, [sp, #8]

; 1247 : 
; 1248 :                         if (dwLastDMAWrite < ((DWORD)pPdd->pRxDmaBuffer + pPdd->RxDmaBufferSize))

  00f28	e59d3004	 ldr         r3, [sp, #4]
  00f2c	e2832f45	 add         r2, r3, #0x45, 30
  00f30	e59d3004	 ldr         r3, [sp, #4]
  00f34	e2833e11	 add         r3, r3, #0x11, 28
  00f38	e5922000	 ldr         r2, [r2]
  00f3c	e5933000	 ldr         r3, [r3]
  00f40	e0822003	 add         r2, r2, r3
  00f44	e59d3008	 ldr         r3, [sp, #8]
  00f48	e1530002	 cmp         r3, r2
  00f4c	2a000003	 bcs         |$LN1@IST_RxDMA|

; 1249 :                         {
; 1250 :                             pPdd->pRxDMALastWrite = (VOID*)dwLastDMAWrite;

  00f50	e59d3004	 ldr         r3, [sp, #4]
  00f54	e2832f53	 add         r2, r3, #0x53, 30
  00f58	e59d3008	 ldr         r3, [sp, #8]
  00f5c	e5823000	 str         r3, [r2]
  00f60		 |$LN1@IST_RxDMA|
  00f60		 |$LN2@IST_RxDMA|

; 1251 :                         }
; 1252 :                     }
; 1253 : 
; 1254 :                     pPdd->bRxDMASignaled = 1;

  00f60	e59d3004	 ldr         r3, [sp, #4]
  00f64	e2832f51	 add         r2, r3, #0x51, 30
  00f68	e3a03001	 mov         r3, #1
  00f6c	e5823000	 str         r3, [r2]

; 1255 :                     SetEvent( ((PHW_INDEP_INFO)pPdd->pMdd)->hSerialEvent);

  00f70	e59d3004	 ldr         r3, [sp, #4]
  00f74	e2833050	 add         r3, r3, #0x50
  00f78	e5933000	 ldr         r3, [r3]
  00f7c	e2833030	 add         r3, r3, #0x30
  00f80	e5930000	 ldr         r0, [r3]
  00f84	eb000000	 bl          SetEvent

; 1256 : 
; 1257 :                     LeaveCriticalSection(&pPdd->RxUpdatePtrCS);

  00f88	e59d3004	 ldr         r3, [sp, #4]
  00f8c	e28300c0	 add         r0, r3, #0xC0
  00f90	eb000000	 bl          LeaveCriticalSection
  00f94		 |$LN9@IST_RxDMA|
  00f94		 |$LN10@IST_RxDMA|
  00f94		 |$LN12@IST_RxDMA|

; 1258 :                 }
; 1259 :             }
; 1260 :         }
; 1261 :     }

  00f94	eaffff62	 b           |$LN28@IST_RxDMA|
  00f98		 |$cleanUp$45129|

; 1262 : 
; 1263 : cleanUp:
; 1264 :     DEBUGMSG(ZONE_FUNCTION, (L"-IST_RXDMA:\r\n"));

  00f98	e59f3040	 ldr         r3, [pc, #0x40]
  00f9c	e5933440	 ldr         r3, [r3, #0x440]
  00fa0	e3130a02	 tst         r3, #2, 20
  00fa4	0a000004	 beq         |$LN26@IST_RxDMA|
  00fa8	e59f002c	 ldr         r0, [pc, #0x2C]
  00fac	eb000000	 bl          NKDbgPrintfW
  00fb0	e3a03001	 mov         r3, #1
  00fb4	e58d3040	 str         r3, [sp, #0x40]
  00fb8	ea000001	 b           |$LN27@IST_RxDMA|
  00fbc		 |$LN26@IST_RxDMA|
  00fbc	e3a03000	 mov         r3, #0
  00fc0	e58d3040	 str         r3, [sp, #0x40]
  00fc4		 |$LN27@IST_RxDMA|

; 1265 :     return 1;

  00fc4	e3a03001	 mov         r3, #1
  00fc8	e58d300c	 str         r3, [sp, #0xC]

; 1266 : }

  00fcc	e59d000c	 ldr         r0, [sp, #0xC]
  00fd0	e28dd044	 add         sp, sp, #0x44
  00fd4	e89d6000	 ldmia       sp, {sp, lr}
  00fd8	e12fff1e	 bx          lr
  00fdc		 |$LN32@IST_RxDMA|
  00fdc		 |$LN33@IST_RxDMA|
  00fdc	00000000	 DCD         |??_C@_1BM@MIDMIFLO@?$AA?9?$AAI?$AAS?$AAT?$AA_?$AAR?$AAX?$AAD?$AAM?$AAA?$AA?3?$AA?$AN?$AA?6?$AA?$AA@|
  00fe0		 |$LN34@IST_RxDMA|
  00fe0	00000000	 DCD         |dpCurSettings|
  00fe4		 |$LN35@IST_RxDMA|
  00fe4	00000000	 DCD         |??_C@_1FK@GIEFHHLM@?$AAE?$AAr?$AAr?$AAo?$AAr?$AA?3?$AA?5?$AAI?$AAS?$AAT?$AA_?$AAR?$AAx?$AAD?$AAM?$AAA?$AA?3?$AA?5?$AAS?$AAh?$AAo?$AAu?$AAl?$AAd?$AAn?$AA?8?$AAt?$AA?5?$AAg?$AAe?$AAt?$AA?5@|
  00fe8		 |$LN36@IST_RxDMA|
  00fe8	00000000	 DCD         |??_C@_1FO@PBHPNCNC@?$AAI?$AAS?$AAT?$AA_?$AAR?$AAx?$AAD?$AAM?$AAA?$AA?3?$AA?5?$AAG?$AAo?$AAt?$AA?5?$AAE?$AAn?$AAd?$AA?5?$AAo?$AAf?$AA?5?$AAb?$AAl?$AAo?$AAc?$AAk?$AA?5?$AAI?$AAn?$AAt?$AA?5@|
  00fec		 |$LN37@IST_RxDMA|
  00fec	00000000	 DCD         |??_C@_1IC@JDKHDJNB@?$AAE?$AAR?$AAR?$AAO?$AAR?$AA?3?$AA?5?$AAI?$AAS?$AAT?$AA_?$AAR?$AAx?$AAD?$AAM?$AAA?$AA?3?$AA?5?$AAF?$AAa?$AAi?$AAl?$AAe?$AAd?$AA?5?$AAt?$AAo?$AA?5?$AAS?$AAi?$AAg?$AAn@|
  00ff0		 |$LN38@IST_RxDMA|
  00ff0	00000000	 DCD         |??_C@_1GM@GPONIMLM@?$AAE?$AAR?$AAR?$AAO?$AAR?$AA?3?$AA?5?$AAI?$AAS?$AAT?$AA_?$AAR?$AAx?$AAD?$AAM?$AAA?$AA?3?$AA?5?$AAF?$AAa?$AAi?$AAl?$AAe?$AAd?$AA?5?$AAt?$AAo?$AA?5?$AAe?$AAn?$AAa?$AAb@|
  00ff4		 |$M46737|

			 ENDP  ; |IST_RxDMA|

; File c:\wince600\public\common\sdk\inc\kfuncs.h

  00000			 AREA	 |.pdata|, PDATA
|$T46752| DCD	|$LN5@GetCurrent|
	DCD	0x40000601
; Function compile flags: /Odtp

  00000			 AREA	 |.text|, CODE, ARM

  00000		 |GetCurrentThread| PROC

; 351  : _inline HANDLE GetCurrentThread(void) {

  00000		 |$LN5@GetCurrent|
  00000	e24dd004	 sub         sp, sp, #4
  00004		 |$M46749|

; 352  : 	return ((HANDLE)(SH_CURTHREAD+SYS_HANDLE_BASE));

  00004	e3a03041	 mov         r3, #0x41
  00008	e58d3000	 str         r3, [sp]

; 353  : }

  0000c	e59d0000	 ldr         r0, [sp]
  00010	e28dd004	 add         sp, sp, #4
  00014	e12fff1e	 bx          lr
  00018		 |$M46750|

			 ENDP  ; |GetCurrentThread|

; File c:\wince600\platform\common\src\soc\common_ti_v1\common_ti\inc\omap_sdma_utility.h

  00000			 AREA	 |.pdata|, PDATA
|$T46760| DCD	|$LN5@DmaGetStat|
	DCD	0x40000e04
; Function compile flags: /Odtp

  00000			 AREA	 |.text|, CODE, ARM

  00000		 |DmaGetStatus| PROC

; 559  : {

  00000		 |$LN5@DmaGetStat|
  00000	e1a0c00d	 mov         r12, sp
  00004	e92d0001	 stmdb       sp!, {r0}
  00008	e92d5000	 stmdb       sp!, {r12, lr}
  0000c	e24dd004	 sub         sp, sp, #4
  00010		 |$M46757|

; 560  :     return INREG32(&pDataInfo->pDmaLcReg->CSR);

  00010	e59d300c	 ldr         r3, [sp, #0xC]
  00014	e2833014	 add         r3, r3, #0x14
  00018	e5933000	 ldr         r3, [r3]
  0001c	e283300c	 add         r3, r3, #0xC
  00020	e5933000	 ldr         r3, [r3]
  00024	e58d3000	 str         r3, [sp]

; 561  : }

  00028	e59d0000	 ldr         r0, [sp]
  0002c	e28dd004	 add         sp, sp, #4
  00030	e89d6000	 ldmia       sp, {sp, lr}
  00034	e12fff1e	 bx          lr
  00038		 |$M46758|

			 ENDP  ; |DmaGetStatus|


  00000			 AREA	 |.pdata|, PDATA
|$T46767| DCD	|$LN5@DmaClearSt|
	DCD	0x40000b03
; Function compile flags: /Odtp

  00000			 AREA	 |.text|, CODE, ARM

  00000		 |DmaClearStatus| PROC

; 575  : {

  00000		 |$LN5@DmaClearSt|
  00000	e1a0c00d	 mov         r12, sp
  00004	e92d0003	 stmdb       sp!, {r0, r1}
  00008	e92d5000	 stmdb       sp!, {r12, lr}
  0000c		 |$M46764|

; 576  :     OUTREG32(&pDataInfo->pDmaLcReg->CSR, dwStatus);

  0000c	e59d3008	 ldr         r3, [sp, #8]
  00010	e2833014	 add         r3, r3, #0x14
  00014	e5933000	 ldr         r3, [r3]
  00018	e283200c	 add         r2, r3, #0xC
  0001c	e59d300c	 ldr         r3, [sp, #0xC]
  00020	e5823000	 str         r3, [r2]

; 577  : }

  00024	e89d6000	 ldmia       sp, {sp, lr}
  00028	e12fff1e	 bx          lr
  0002c		 |$M46765|

			 ENDP  ; |DmaClearStatus|

	EXPORT	|??_C@_1DC@JGFCNLHE@?$AA?9?$AAH?$AAW?$AAI?$AAn?$AAi?$AAt?$AA?$CI?$AAp?$AAP?$AAd?$AAd?$AA?5?$AA?$DN?$AA?5?$AA0?$AAx?$AA?$CF?$AA0?$AA8?$AAx?$AA?$CJ?$AA?$AN?$AA?6?$AA?$AA@| [ DATA ] ; `string'
	EXPORT	|??_C@_1EG@OEGIILDN@?$AAH?$AAW?$AAI?$AAn?$AAi?$AAt?$AA?5?$AAF?$AAa?$AAi?$AAl?$AAe?$AAd?$AA?$CB?$AA?$CB?$AA?5?$AAC?$AAa?$AAl?$AAl?$AAi?$AAn?$AAg?$AA?5?$AAH?$AAW?$AAD?$AAe?$AAi?$AAn?$AAi?$AAt@| [ DATA ] ; `string'
	EXPORT	|??_C@_1EG@ICLGMIEH@?$AAH?$AAW?$AAI?$AAn?$AAi?$AAt?$AA?3?$AA?5?$AAI?$AAn?$AAi?$AAt?$AAi?$AAa?$AAl?$AAi?$AAz?$AAa?$AAt?$AAi?$AAo?$AAn?$AA?5?$AAs?$AAu?$AAc?$AAc?$AAe?$AAe?$AAd?$AAe?$AAd@| [ DATA ] ; `string'
	EXPORT	|??_C@_1EK@FHJCOLEM@?$AAE?$AAR?$AAR?$AAO?$AAR?$AA?3?$AA?5?$AAH?$AAW?$AAI?$AAn?$AAi?$AAt?$AA?3?$AA?5?$AAF?$AAa?$AAi?$AAl?$AAe?$AAd?$AA?5?$AAc?$AAr?$AAe?$AAa?$AAt?$AAe?$AA?5?$AAe?$AAv?$AAe@| [ DATA ] ; `string'
	EXPORT	|??_C@_1GE@PPGCIJJA@?$AAE?$AAR?$AAR?$AAO?$AAR?$AA?3?$AA?5?$AAH?$AAW?$AAI?$AAn?$AAi?$AAt?$AA?3?$AA?5?$AAF?$AAa?$AAi?$AAl?$AAe?$AAd?$AA?5?$AAo?$AAb?$AAt?$AAa?$AAi?$AAn?$AA?5?$AAS?$AAY?$AAS@| [ DATA ] ; `string'
	EXPORT	|??_C@_1GA@FAAEJOHA@?$AAE?$AAR?$AAR?$AAO?$AAR?$AA?3?$AA?5?$AAH?$AAW?$AAI?$AAn?$AAi?$AAt?$AA?3?$AA?5?$AAF?$AAa?$AAi?$AAl?$AAe?$AAd?$AA?5?$AAt?$AAo?$AA?5?$AAc?$AAr?$AAe?$AAa?$AAt?$AAe?$AA?5@| [ DATA ] ; `string'
	EXPORT	|??_C@_1EE@FMEIFNEG@?$AAO?$AAM?$AAA?$AAP?$AA3?$AA5?$AAX?$AAX?$AA?5?$AAR?$AAX?$AA?5?$AAD?$AAM?$AAA?$AA?5?$AAb?$AAu?$AAf?$AAf?$AAe?$AAr?$AA?5?$AAa?$AAl?$AAl?$AAo?$AAc?$AAa?$AAt?$AAe?$AAd@| [ DATA ] ; `string'
	EXPORT	|??_C@_1HK@BBLDLPBP@?$AAE?$AAR?$AAR?$AAO?$AAR?$AA?3?$AA?5?$AAH?$AAW?$AAI?$AAn?$AAi?$AAt?$AA?3?$AA?5?$AAF?$AAa?$AAi?$AAl?$AAe?$AAd?$AA?5?$AAa?$AAl?$AAl?$AAo?$AAc?$AAa?$AAt?$AAi?$AAn?$AAg@| [ DATA ] ; `string'
	EXPORT	|??_C@_1MA@JDGKAMEC@?$AAH?$AAW?$AAI?$AAn?$AAi?$AAt?$AA?3?$AA?5?$AAR?$AAx?$AAF?$AAi?$AAf?$AAo?$AAT?$AAr?$AAi?$AAg?$AAg?$AAe?$AAr?$AAL?$AAe?$AAv?$AAe?$AAl?$AA?5?$AAm?$AAu?$AAs?$AAt?$AA?5@| [ DATA ] ; `string'
	EXPORT	|??_C@_1HG@BHIHOLB@?$AAE?$AAR?$AAR?$AAO?$AAR?$AA?3?$AA?5?$AAH?$AAW?$AAI?$AAn?$AAi?$AAt?$AA?3?$AA?5?$AAR?$AAx?$AAD?$AAm?$AAa?$AAB?$AAu?$AAf?$AAf?$AAe?$AAr?$AAS?$AAi?$AAz?$AAe?$AA?5?$AAm@| [ DATA ] ; `string'
	EXPORT	|??_C@_1FG@KHBPHCHG@?$AAE?$AAR?$AAR?$AAO?$AAR?$AA?3?$AA?5?$AAH?$AAW?$AAI?$AAn?$AAi?$AAt?$AA?3?$AA?5?$AAC?$AAa?$AAn?$AAn?$AAo?$AAt?$AA?5?$AAa?$AAl?$AAl?$AAo?$AAc?$AAa?$AAt?$AAe?$AA?5?$AAD@| [ DATA ] ; `string'
	EXPORT	|??_C@_1DE@CGCFDINI@?$AAH?$AAW?$AAI?$AAn?$AAi?$AAt?$AA?3?$AA?5?$AAR?$AAx?$AAD?$AAm?$AAa?$AAR?$AAe?$AAq?$AAu?$AAe?$AAs?$AAt?$AA?$DN?$AA?5?$AA?$CF?$AAd?$AA?6?$AA?$AA@| [ DATA ] ; `string'
	EXPORT	|??_C@_1EC@EEIOMCNH@?$AAO?$AAM?$AAA?$AAP?$AA3?$AA5?$AAX?$AAX?$AA?5?$AAT?$AAX?$AA?5?$AAD?$AAM?$AAA?$AA?5?$AAi?$AAn?$AAi?$AAt?$AA?5?$AAc?$AAo?$AAm?$AAp?$AAl?$AAe?$AAt?$AAe?$AAd?$AA?$AN?$AA?6@| [ DATA ] ; `string'
	EXPORT	|??_C@_1FE@MELLBIFK@?$AAE?$AAR?$AAR?$AAO?$AAR?$AA?3?$AAF?$AAa?$AAi?$AAl?$AAe?$AAd?$AA?5?$AAt?$AAo?$AA?5?$AAe?$AAn?$AAa?$AAb?$AAl?$AAe?$AA?5?$AAD?$AAM?$AAA?$AA?5?$AAT?$AAX?$AA?5?$AAi?$AAn@| [ DATA ] ; `string'
	EXPORT	|??_C@_1EG@GOJKEHDB@?$AAO?$AAM?$AAA?$AAP?$AA3?$AA5?$AAX?$AAX?$AA?5?$AAT?$AAX?$AA?5?$AAD?$AAM?$AAA?$AA?5?$AAb?$AAu?$AAf?$AAf?$AAe?$AAr?$AA?5?$AAa?$AAl?$AAl?$AAo?$AAc?$AAa?$AAt?$AAe?$AAd@| [ DATA ] ; `string'
	EXPORT	|??_C@_1GO@JHKBGJGP@?$AAE?$AAR?$AAR?$AAO?$AAR?$AA?3?$AA?5?$AAH?$AAW?$AAI?$AAn?$AAi?$AAt?$AA?3?$AA?5?$AAF?$AAa?$AAi?$AAl?$AAe?$AAd?$AA?5?$AAa?$AAl?$AAl?$AAo?$AAc?$AAa?$AAt?$AAi?$AAn?$AAg@| [ DATA ] ; `string'
	EXPORT	|??_C@_1HG@CKJGMIKG@?$AAE?$AAR?$AAR?$AAO?$AAR?$AA?3?$AA?5?$AAH?$AAW?$AAI?$AAn?$AAi?$AAt?$AA?3?$AA?5?$AAT?$AAx?$AAD?$AAm?$AAa?$AAB?$AAu?$AAf?$AAf?$AAe?$AAr?$AAS?$AAi?$AAz?$AAe?$AA?5?$AAm@| [ DATA ] ; `string'
	EXPORT	|??_C@_1FG@KKABACDB@?$AAE?$AAR?$AAR?$AAO?$AAR?$AA?3?$AA?5?$AAH?$AAW?$AAI?$AAn?$AAi?$AAt?$AA?3?$AA?5?$AAC?$AAa?$AAn?$AAn?$AAo?$AAt?$AA?5?$AAa?$AAl?$AAl?$AAo?$AAc?$AAa?$AAt?$AAe?$AA?5?$AAD@| [ DATA ] ; `string'
	EXPORT	|??_C@_1DE@PLCFDKBA@?$AAO?$AAM?$AAA?$AAP?$AA3?$AA5?$AAX?$AAX?$AA?5?$AAT?$AAX?$AA?5?$AAD?$AAM?$AAA?$AA?5?$AAe?$AAn?$AAa?$AAb?$AAl?$AAe?$AAd?$AA?$AN?$AA?6?$AA?$AA@| [ DATA ] ; `string'
	EXPORT	|??_C@_1DE@OPOFMPCE@?$AAH?$AAW?$AAI?$AAn?$AAi?$AAt?$AA?3?$AA?5?$AAT?$AAx?$AAD?$AAm?$AAa?$AAR?$AAe?$AAq?$AAu?$AAe?$AAs?$AAt?$AA?$DN?$AA?5?$AA?$CF?$AAd?$AA?6?$AA?$AA@| [ DATA ] ; `string'
	EXPORT	|??_C@_1FK@EBCJFPMH@?$AAE?$AAR?$AAR?$AAO?$AAR?$AA?3?$AA?5?$AAH?$AAW?$AAI?$AAn?$AAi?$AAt?$AA?3?$AA?5?$AAF?$AAa?$AAi?$AAl?$AAe?$AAd?$AA?5?$AAt?$AAo?$AA?5?$AAo?$AAp?$AAe?$AAn?$AA?5?$AAg?$AAp@| [ DATA ] ; `string'
	EXPORT	|??_C@_1GM@KEAJOIJP@?$AAH?$AAW?$AAI?$AAn?$AAi?$AAt?$AA?3?$AA?5?$AAE?$AAx?$AAt?$AAe?$AAr?$AAn?$AAa?$AAl?$AA?5?$AAt?$AAr?$AAa?$AAn?$AAs?$AAc?$AAe?$AAi?$AAv?$AAe?$AAr?$AA?5?$AAc?$AAo?$AAn@| [ DATA ] ; `string'
	EXPORT	|??_C@_1GG@EBBCDMFK@?$AAE?$AAR?$AAR?$AAO?$AAR?$AA?3?$AA?5?$AAH?$AAW?$AAI?$AAn?$AAi?$AAt?$AA?3?$AA?5?$AAF?$AAa?$AAi?$AAl?$AAe?$AAd?$AA?5?$AAm?$AAa?$AAp?$AA?5?$AAp?$AAh?$AAy?$AAs?$AAi?$AAc@| [ DATA ] ; `string'
	EXPORT	|??_C@_1DM@CGNHFLML@?$AAH?$AAW?$AAI?$AAn?$AAi?$AAt?$AA?3?$AA?5?$AAM?$AAm?$AAM?$AAa?$AAp?$AAI?$AAo?$AAS?$AAp?$AAa?$AAc?$AAe?$AA?3?$AA?5?$AA0?$AAx?$AA?$CF?$AA0?$AA8?$AAx?$AA?6?$AA?$AA@| [ DATA ] ; `string'
	EXPORT	|??_C@_1FA@IMOKAIMA@?$AAE?$AAR?$AAR?$AAO?$AAR?$AA?3?$AA?5?$AAH?$AAW?$AAI?$AAn?$AAi?$AAt?$AA?3?$AA?5?$AAF?$AAa?$AAi?$AAl?$AAe?$AAd?$AA?5?$AAt?$AAo?$AA?5?$AAr?$AAe?$AAq?$AAu?$AAe?$AAs?$AAt@| [ DATA ] ; `string'
	EXPORT	|??_C@_1IE@GEGDCGKO@?$AAE?$AAR?$AAR?$AAO?$AAR?$AA?3?$AA?5?$AAH?$AAW?$AAI?$AAn?$AAi?$AAt?$AA?3?$AA?5?$AAF?$AAa?$AAi?$AAl?$AAe?$AAd?$AA?5?$AAt?$AAo?$AA?5?$AAr?$AAe?$AAt?$AAr?$AAi?$AAe?$AAv@| [ DATA ] ; `string'
	EXPORT	|??_C@_1FO@HLLDLLCK@?$AAE?$AAR?$AAR?$AAO?$AAR?$AA?3?$AA?5?$AAH?$AAW?$AAI?$AAn?$AAi?$AAt?$AA?3?$AA?5?$AAF?$AAa?$AAi?$AAl?$AAe?$AAd?$AA?5?$AAo?$AAp?$AAe?$AAn?$AA?5?$AAp?$AAa?$AAr?$AAe?$AAn@| [ DATA ] ; `string'
	EXPORT	|??_C@_1HA@GDAKBEMI@?$AAE?$AAR?$AAR?$AAO?$AAR?$AA?3?$AA?5?$AAH?$AAW?$AAI?$AAn?$AAi?$AAt?$AA?3?$AA?5?$AAF?$AAa?$AAi?$AAl?$AAe?$AAd?$AA?5?$AAr?$AAe?$AAa?$AAd?$AA?5?$AAd?$AAr?$AAi?$AAv?$AAe@| [ DATA ] ; `string'
	EXPORT	|??_C@_1DK@GEEEGFBF@?$AA?$CL?$AAH?$AAW?$AAI?$AAn?$AAi?$AAt?$AA?$CI?$AA?$CF?$AAs?$AA?0?$AA?5?$AA0?$AAx?$AA?$CF?$AA0?$AA8?$AAx?$AA?0?$AA?5?$AA0?$AAx?$AA?$CF?$AA0?$AA8?$AAx?$AA?$AN?$AA?6?$AA?$AA@| [ DATA ] ; `string'
	IMPORT	|InitializeCriticalSection|
	IMPORT	|KernelIoControl|
	IMPORT	|CreateThread|
	IMPORT	|FreePhysMem|
	IMPORT	|CreateEventW|
	IMPORT	|AllocPhysMem|
	IMPORT	|LocalFree|
	IMPORT	|DmaAllocateChannel|
	IMPORT	|GPIOOpen|
	IMPORT	|MmMapIoSpace|
	IMPORT	|GetIrqByDevice|
	IMPORT	|GetAddressByDevice|
	IMPORT	|RequestDevicePads|
	IMPORT	|SOCGetUartDeviceByIndex|
	IMPORT	|CreateBusAccessHandle|
	IMPORT	|GetDeviceRegistryParams|
	IMPORT	|memset|
	IMPORT	|LocalAlloc|

  00038			 AREA	 |.pdata|, PDATA
|$T46835| DCD	|$LN84@HWInit|
	DCD	0x40039c04
; File c:\wince600\platform\common\src\soc\common_ti_v1\common_ti\serial\uart\pdd.c

  00000			 AREA	 |.rdata|, DATA, READONLY
|??_C@_1DC@JGFCNLHE@?$AA?9?$AAH?$AAW?$AAI?$AAn?$AAi?$AAt?$AA?$CI?$AAp?$AAP?$AAd?$AAd?$AA?5?$AA?$DN?$AA?5?$AA0?$AAx?$AA?$CF?$AA0?$AA8?$AAx?$AA?$CJ?$AA?$AN?$AA?6?$AA?$AA@| DCB "-"
	DCB	0x0, "H", 0x0, "W", 0x0, "I", 0x0, "n", 0x0, "i", 0x0, "t"
	DCB	0x0, "(", 0x0, "p", 0x0, "P", 0x0, "d", 0x0, "d", 0x0, " "
	DCB	0x0, "=", 0x0, " ", 0x0, "0", 0x0, "x", 0x0, "%", 0x0, "0"
	DCB	0x0, "8", 0x0, "x", 0x0, ")", 0x0, 0xd, 0x0, 0xa, 0x0, 0x0
	DCB	0x0					; `string'

  00000			 AREA	 |.rdata|, DATA, READONLY
|??_C@_1EG@OEGIILDN@?$AAH?$AAW?$AAI?$AAn?$AAi?$AAt?$AA?5?$AAF?$AAa?$AAi?$AAl?$AAe?$AAd?$AA?$CB?$AA?$CB?$AA?5?$AAC?$AAa?$AAl?$AAl?$AAi?$AAn?$AAg?$AA?5?$AAH?$AAW?$AAD?$AAe?$AAi?$AAn?$AAi?$AAt@| DCB "H"
	DCB	0x0, "W", 0x0, "I", 0x0, "n", 0x0, "i", 0x0, "t", 0x0, " "
	DCB	0x0, "F", 0x0, "a", 0x0, "i", 0x0, "l", 0x0, "e", 0x0, "d"
	DCB	0x0, "!", 0x0, "!", 0x0, " ", 0x0, "C", 0x0, "a", 0x0, "l"
	DCB	0x0, "l", 0x0, "i", 0x0, "n", 0x0, "g", 0x0, " ", 0x0, "H"
	DCB	0x0, "W", 0x0, "D", 0x0, "e", 0x0, "i", 0x0, "n", 0x0, "i"
	DCB	0x0, "t", 0x0, 0xd, 0x0, 0xa, 0x0, 0x0, 0x0 ; `string'

  00000			 AREA	 |.rdata|, DATA, READONLY
|??_C@_1EG@ICLGMIEH@?$AAH?$AAW?$AAI?$AAn?$AAi?$AAt?$AA?3?$AA?5?$AAI?$AAn?$AAi?$AAt?$AAi?$AAa?$AAl?$AAi?$AAz?$AAa?$AAt?$AAi?$AAo?$AAn?$AA?5?$AAs?$AAu?$AAc?$AAc?$AAe?$AAe?$AAd?$AAe?$AAd@| DCB "H"
	DCB	0x0, "W", 0x0, "I", 0x0, "n", 0x0, "i", 0x0, "t", 0x0, ":"
	DCB	0x0, " ", 0x0, "I", 0x0, "n", 0x0, "i", 0x0, "t", 0x0, "i"
	DCB	0x0, "a", 0x0, "l", 0x0, "i", 0x0, "z", 0x0, "a", 0x0, "t"
	DCB	0x0, "i", 0x0, "o", 0x0, "n", 0x0, " ", 0x0, "s", 0x0, "u"
	DCB	0x0, "c", 0x0, "c", 0x0, "e", 0x0, "e", 0x0, "d", 0x0, "e"
	DCB	0x0, "d", 0x0, 0xd, 0x0, 0xa, 0x0, 0x0, 0x0 ; `string'

  00000			 AREA	 |.rdata|, DATA, READONLY
|??_C@_1EK@FHJCOLEM@?$AAE?$AAR?$AAR?$AAO?$AAR?$AA?3?$AA?5?$AAH?$AAW?$AAI?$AAn?$AAi?$AAt?$AA?3?$AA?5?$AAF?$AAa?$AAi?$AAl?$AAe?$AAd?$AA?5?$AAc?$AAr?$AAe?$AAa?$AAt?$AAe?$AA?5?$AAe?$AAv?$AAe@| DCB "E"
	DCB	0x0, "R", 0x0, "R", 0x0, "O", 0x0, "R", 0x0, ":", 0x0, " "
	DCB	0x0, "H", 0x0, "W", 0x0, "I", 0x0, "n", 0x0, "i", 0x0, "t"
	DCB	0x0, ":", 0x0, " ", 0x0, "F", 0x0, "a", 0x0, "i", 0x0, "l"
	DCB	0x0, "e", 0x0, "d", 0x0, " ", 0x0, "c", 0x0, "r", 0x0, "e"
	DCB	0x0, "a", 0x0, "t", 0x0, "e", 0x0, " ", 0x0, "e", 0x0, "v"
	DCB	0x0, "e", 0x0, "n", 0x0, "t", 0x0, 0xd, 0x0, 0xa, 0x0, 0x0
	DCB	0x0					; `string'

  00000			 AREA	 |.rdata|, DATA, READONLY
|??_C@_1GE@PPGCIJJA@?$AAE?$AAR?$AAR?$AAO?$AAR?$AA?3?$AA?5?$AAH?$AAW?$AAI?$AAn?$AAi?$AAt?$AA?3?$AA?5?$AAF?$AAa?$AAi?$AAl?$AAe?$AAd?$AA?5?$AAo?$AAb?$AAt?$AAa?$AAi?$AAn?$AA?5?$AAS?$AAY?$AAS@| DCB "E"
	DCB	0x0, "R", 0x0, "R", 0x0, "O", 0x0, "R", 0x0, ":", 0x0, " "
	DCB	0x0, "H", 0x0, "W", 0x0, "I", 0x0, "n", 0x0, "i", 0x0, "t"
	DCB	0x0, ":", 0x0, " ", 0x0, "F", 0x0, "a", 0x0, "i", 0x0, "l"
	DCB	0x0, "e", 0x0, "d", 0x0, " ", 0x0, "o", 0x0, "b", 0x0, "t"
	DCB	0x0, "a", 0x0, "i", 0x0, "n", 0x0, " ", 0x0, "S", 0x0, "Y"
	DCB	0x0, "S", 0x0, "I", 0x0, "N", 0x0, "T", 0x0, "R", 0x0, " "
	DCB	0x0, "f", 0x0, "o", 0x0, "r", 0x0, " ", 0x0, "I", 0x0, "R"
	DCB	0x0, "Q", 0x0, " ", 0x0, "%", 0x0, "d", 0x0, 0xd, 0x0, 0xa
	DCB	0x0, 0x0, 0x0				; `string'

  00000			 AREA	 |.rdata|, DATA, READONLY
|??_C@_1GA@FAAEJOHA@?$AAE?$AAR?$AAR?$AAO?$AAR?$AA?3?$AA?5?$AAH?$AAW?$AAI?$AAn?$AAi?$AAt?$AA?3?$AA?5?$AAF?$AAa?$AAi?$AAl?$AAe?$AAd?$AA?5?$AAt?$AAo?$AA?5?$AAc?$AAr?$AAe?$AAa?$AAt?$AAe?$AA?5@| DCB "E"
	DCB	0x0, "R", 0x0, "R", 0x0, "O", 0x0, "R", 0x0, ":", 0x0, " "
	DCB	0x0, "H", 0x0, "W", 0x0, "I", 0x0, "n", 0x0, "i", 0x0, "t"
	DCB	0x0, ":", 0x0, " ", 0x0, "F", 0x0, "a", 0x0, "i", 0x0, "l"
	DCB	0x0, "e", 0x0, "d", 0x0, " ", 0x0, "t", 0x0, "o", 0x0, " "
	DCB	0x0, "c", 0x0, "r", 0x0, "e", 0x0, "a", 0x0, "t", 0x0, "e"
	DCB	0x0, " ", 0x0, "D", 0x0, "M", 0x0, "A", 0x0, " ", 0x0, "R"
	DCB	0x0, "X", 0x0, " ", 0x0, "t", 0x0, "h", 0x0, "r", 0x0, "e"
	DCB	0x0, "a", 0x0, "d", 0x0, 0xd, 0x0, 0xa, 0x0, 0x0, 0x0 ; `string'

  00000			 AREA	 |.rdata|, DATA, READONLY
|??_C@_1EE@FMEIFNEG@?$AAO?$AAM?$AAA?$AAP?$AA3?$AA5?$AAX?$AAX?$AA?5?$AAR?$AAX?$AA?5?$AAD?$AAM?$AAA?$AA?5?$AAb?$AAu?$AAf?$AAf?$AAe?$AAr?$AA?5?$AAa?$AAl?$AAl?$AAo?$AAc?$AAa?$AAt?$AAe?$AAd@| DCB "O"
	DCB	0x0, "M", 0x0, "A", 0x0, "P", 0x0, "3", 0x0, "5", 0x0, "X"
	DCB	0x0, "X", 0x0, " ", 0x0, "R", 0x0, "X", 0x0, " ", 0x0, "D"
	DCB	0x0, "M", 0x0, "A", 0x0, " ", 0x0, "b", 0x0, "u", 0x0, "f"
	DCB	0x0, "f", 0x0, "e", 0x0, "r", 0x0, " ", 0x0, "a", 0x0, "l"
	DCB	0x0, "l", 0x0, "o", 0x0, "c", 0x0, "a", 0x0, "t", 0x0, "e"
	DCB	0x0, "d", 0x0, 0xa, 0x0, 0x0, 0x0	; `string'

  00000			 AREA	 |.rdata|, DATA, READONLY
|??_C@_1HK@BBLDLPBP@?$AAE?$AAR?$AAR?$AAO?$AAR?$AA?3?$AA?5?$AAH?$AAW?$AAI?$AAn?$AAi?$AAt?$AA?3?$AA?5?$AAF?$AAa?$AAi?$AAl?$AAe?$AAd?$AA?5?$AAa?$AAl?$AAl?$AAo?$AAc?$AAa?$AAt?$AAi?$AAn?$AAg@| DCB "E"
	DCB	0x0, "R", 0x0, "R", 0x0, "O", 0x0, "R", 0x0, ":", 0x0, " "
	DCB	0x0, "H", 0x0, "W", 0x0, "I", 0x0, "n", 0x0, "i", 0x0, "t"
	DCB	0x0, ":", 0x0, " ", 0x0, "F", 0x0, "a", 0x0, "i", 0x0, "l"
	DCB	0x0, "e", 0x0, "d", 0x0, " ", 0x0, "a", 0x0, "l", 0x0, "l"
	DCB	0x0, "o", 0x0, "c", 0x0, "a", 0x0, "t", 0x0, "i", 0x0, "n"
	DCB	0x0, "g", 0x0, " ", 0x0, "t", 0x0, "r", 0x0, "a", 0x0, "n"
	DCB	0x0, "s", 0x0, "f", 0x0, "e", 0x0, "r", 0x0, " ", 0x0, "b"
	DCB	0x0, "u", 0x0, "f", 0x0, "f", 0x0, "e", 0x0, "r", 0x0, " "
	DCB	0x0, "(", 0x0, "s", 0x0, "i", 0x0, "z", 0x0, "e", 0x0, " "
	DCB	0x0, "%", 0x0, "u", 0x0, ")", 0x0, 0xd, 0x0, 0xa, 0x0, 0x0
	DCB	0x0					; `string'

  00000			 AREA	 |.rdata|, DATA, READONLY
|??_C@_1MA@JDGKAMEC@?$AAH?$AAW?$AAI?$AAn?$AAi?$AAt?$AA?3?$AA?5?$AAR?$AAx?$AAF?$AAi?$AAf?$AAo?$AAT?$AAr?$AAi?$AAg?$AAg?$AAe?$AAr?$AAL?$AAe?$AAv?$AAe?$AAl?$AA?5?$AAm?$AAu?$AAs?$AAt?$AA?5@| DCB "H"
	DCB	0x0, "W", 0x0, "I", 0x0, "n", 0x0, "i", 0x0, "t", 0x0, ":"
	DCB	0x0, " ", 0x0, "R", 0x0, "x", 0x0, "F", 0x0, "i", 0x0, "f"
	DCB	0x0, "o", 0x0, "T", 0x0, "r", 0x0, "i", 0x0, "g", 0x0, "g"
	DCB	0x0, "e", 0x0, "r", 0x0, "L", 0x0, "e", 0x0, "v", 0x0, "e"
	DCB	0x0, "l", 0x0, " ", 0x0, "m", 0x0, "u", 0x0, "s", 0x0, "t"
	DCB	0x0, " ", 0x0, "b", 0x0, "e", 0x0, " ", 0x0, "l", 0x0, "e"
	DCB	0x0, "s", 0x0, "s", 0x0, " ", 0x0, "t", 0x0, "h", 0x0, "e"
	DCB	0x0, "n", 0x0, " ", 0x0, "F", 0x0, "I", 0x0, "F", 0x0, "O"
	DCB	0x0, " ", 0x0, "s", 0x0, "i", 0x0, "z", 0x0, "e", 0x0, " "
	DCB	0x0, "%", 0x0, "d", 0x0, ".", 0x0, " ", 0x0, "R", 0x0, "e"
	DCB	0x0, "s", 0x0, "e", 0x0, "t", 0x0, " ", 0x0, "t", 0x0, "o"
	DCB	0x0, " ", 0x0, "d", 0x0, "e", 0x0, "f", 0x0, "a", 0x0, "u"
	DCB	0x0, "l", 0x0, "t", 0x0, " ", 0x0, "t", 0x0, "r", 0x0, "i"
	DCB	0x0, "g", 0x0, "g", 0x0, "e", 0x0, "r", 0x0, " ", 0x0, "l"
	DCB	0x0, "e", 0x0, "v", 0x0, "e", 0x0, "l", 0x0, " ", 0x0, "%"
	DCB	0x0, "d", 0x0, ".", 0x0, 0xd, 0x0, 0xa, 0x0, 0x0, 0x0 ; `string'

  00000			 AREA	 |.rdata|, DATA, READONLY
|??_C@_1HG@BHIHOLB@?$AAE?$AAR?$AAR?$AAO?$AAR?$AA?3?$AA?5?$AAH?$AAW?$AAI?$AAn?$AAi?$AAt?$AA?3?$AA?5?$AAR?$AAx?$AAD?$AAm?$AAa?$AAB?$AAu?$AAf?$AAf?$AAe?$AAr?$AAS?$AAi?$AAz?$AAe?$AA?5?$AAm@| DCB "E"
	DCB	0x0, "R", 0x0, "R", 0x0, "O", 0x0, "R", 0x0, ":", 0x0, " "
	DCB	0x0, "H", 0x0, "W", 0x0, "I", 0x0, "n", 0x0, "i", 0x0, "t"
	DCB	0x0, ":", 0x0, " ", 0x0, "R", 0x0, "x", 0x0, "D", 0x0, "m"
	DCB	0x0, "a", 0x0, "B", 0x0, "u", 0x0, "f", 0x0, "f", 0x0, "e"
	DCB	0x0, "r", 0x0, "S", 0x0, "i", 0x0, "z", 0x0, "e", 0x0, " "
	DCB	0x0, "m", 0x0, "u", 0x0, "s", 0x0, "t", 0x0, " ", 0x0, "b"
	DCB	0x0, "e", 0x0, " ", 0x0, "a", 0x0, "t", 0x0, " ", 0x0, "l"
	DCB	0x0, "e", 0x0, "a", 0x0, "s", 0x0, "t", 0x0, " ", 0x0, "%"
	DCB	0x0, "u", 0x0, " ", 0x0, "b", 0x0, "y", 0x0, "t", 0x0, "e"
	DCB	0x0, "s", 0x0, 0xd, 0x0, 0xa, 0x0, 0x0, 0x0 ; `string'

  00000			 AREA	 |.rdata|, DATA, READONLY
|??_C@_1FG@KHBPHCHG@?$AAE?$AAR?$AAR?$AAO?$AAR?$AA?3?$AA?5?$AAH?$AAW?$AAI?$AAn?$AAi?$AAt?$AA?3?$AA?5?$AAC?$AAa?$AAn?$AAn?$AAo?$AAt?$AA?5?$AAa?$AAl?$AAl?$AAo?$AAc?$AAa?$AAt?$AAe?$AA?5?$AAD@| DCB "E"
	DCB	0x0, "R", 0x0, "R", 0x0, "O", 0x0, "R", 0x0, ":", 0x0, " "
	DCB	0x0, "H", 0x0, "W", 0x0, "I", 0x0, "n", 0x0, "i", 0x0, "t"
	DCB	0x0, ":", 0x0, " ", 0x0, "C", 0x0, "a", 0x0, "n", 0x0, "n"
	DCB	0x0, "o", 0x0, "t", 0x0, " ", 0x0, "a", 0x0, "l", 0x0, "l"
	DCB	0x0, "o", 0x0, "c", 0x0, "a", 0x0, "t", 0x0, "e", 0x0, " "
	DCB	0x0, "D", 0x0, "M", 0x0, "A", 0x0, " ", 0x0, "o", 0x0, "n"
	DCB	0x0, " ", 0x0, "R", 0x0, "X", 0x0, 0xd, 0x0, 0xa, 0x0, 0x0
	DCB	0x0					; `string'

  00000			 AREA	 |.rdata|, DATA, READONLY
|??_C@_1DE@CGCFDINI@?$AAH?$AAW?$AAI?$AAn?$AAi?$AAt?$AA?3?$AA?5?$AAR?$AAx?$AAD?$AAm?$AAa?$AAR?$AAe?$AAq?$AAu?$AAe?$AAs?$AAt?$AA?$DN?$AA?5?$AA?$CF?$AAd?$AA?6?$AA?$AA@| DCB "H"
	DCB	0x0, "W", 0x0, "I", 0x0, "n", 0x0, "i", 0x0, "t", 0x0, ":"
	DCB	0x0, " ", 0x0, "R", 0x0, "x", 0x0, "D", 0x0, "m", 0x0, "a"
	DCB	0x0, "R", 0x0, "e", 0x0, "q", 0x0, "u", 0x0, "e", 0x0, "s"
	DCB	0x0, "t", 0x0, "=", 0x0, " ", 0x0, "%", 0x0, "d", 0x0, 0xa
	DCB	0x0, 0x0, 0x0				; `string'

  00000			 AREA	 |.rdata|, DATA, READONLY
|??_C@_1EC@EEIOMCNH@?$AAO?$AAM?$AAA?$AAP?$AA3?$AA5?$AAX?$AAX?$AA?5?$AAT?$AAX?$AA?5?$AAD?$AAM?$AAA?$AA?5?$AAi?$AAn?$AAi?$AAt?$AA?5?$AAc?$AAo?$AAm?$AAp?$AAl?$AAe?$AAt?$AAe?$AAd?$AA?$AN?$AA?6@| DCB "O"
	DCB	0x0, "M", 0x0, "A", 0x0, "P", 0x0, "3", 0x0, "5", 0x0, "X"
	DCB	0x0, "X", 0x0, " ", 0x0, "T", 0x0, "X", 0x0, " ", 0x0, "D"
	DCB	0x0, "M", 0x0, "A", 0x0, " ", 0x0, "i", 0x0, "n", 0x0, "i"
	DCB	0x0, "t", 0x0, " ", 0x0, "c", 0x0, "o", 0x0, "m", 0x0, "p"
	DCB	0x0, "l", 0x0, "e", 0x0, "t", 0x0, "e", 0x0, "d", 0x0, 0xd
	DCB	0x0, 0xa, 0x0, 0x0, 0x0			; `string'

  00000			 AREA	 |.rdata|, DATA, READONLY
|??_C@_1FE@MELLBIFK@?$AAE?$AAR?$AAR?$AAO?$AAR?$AA?3?$AAF?$AAa?$AAi?$AAl?$AAe?$AAd?$AA?5?$AAt?$AAo?$AA?5?$AAe?$AAn?$AAa?$AAb?$AAl?$AAe?$AA?5?$AAD?$AAM?$AAA?$AA?5?$AAT?$AAX?$AA?5?$AAi?$AAn@| DCB "E"
	DCB	0x0, "R", 0x0, "R", 0x0, "O", 0x0, "R", 0x0, ":", 0x0, "F"
	DCB	0x0, "a", 0x0, "i", 0x0, "l", 0x0, "e", 0x0, "d", 0x0, " "
	DCB	0x0, "t", 0x0, "o", 0x0, " ", 0x0, "e", 0x0, "n", 0x0, "a"
	DCB	0x0, "b", 0x0, "l", 0x0, "e", 0x0, " ", 0x0, "D", 0x0, "M"
	DCB	0x0, "A", 0x0, " ", 0x0, "T", 0x0, "X", 0x0, " ", 0x0, "i"
	DCB	0x0, "n", 0x0, "t", 0x0, "e", 0x0, "r", 0x0, "r", 0x0, "u"
	DCB	0x0, "p", 0x0, "t", 0x0, 0xd, 0x0, 0xa, 0x0, 0x0, 0x0 ; `string'

  00000			 AREA	 |.rdata|, DATA, READONLY
|??_C@_1EG@GOJKEHDB@?$AAO?$AAM?$AAA?$AAP?$AA3?$AA5?$AAX?$AAX?$AA?5?$AAT?$AAX?$AA?5?$AAD?$AAM?$AAA?$AA?5?$AAb?$AAu?$AAf?$AAf?$AAe?$AAr?$AA?5?$AAa?$AAl?$AAl?$AAo?$AAc?$AAa?$AAt?$AAe?$AAd@| DCB "O"
	DCB	0x0, "M", 0x0, "A", 0x0, "P", 0x0, "3", 0x0, "5", 0x0, "X"
	DCB	0x0, "X", 0x0, " ", 0x0, "T", 0x0, "X", 0x0, " ", 0x0, "D"
	DCB	0x0, "M", 0x0, "A", 0x0, " ", 0x0, "b", 0x0, "u", 0x0, "f"
	DCB	0x0, "f", 0x0, "e", 0x0, "r", 0x0, " ", 0x0, "a", 0x0, "l"
	DCB	0x0, "l", 0x0, "o", 0x0, "c", 0x0, "a", 0x0, "t", 0x0, "e"
	DCB	0x0, "d", 0x0, 0xd, 0x0, 0xa, 0x0, 0x0, 0x0 ; `string'

  00000			 AREA	 |.rdata|, DATA, READONLY
|??_C@_1GO@JHKBGJGP@?$AAE?$AAR?$AAR?$AAO?$AAR?$AA?3?$AA?5?$AAH?$AAW?$AAI?$AAn?$AAi?$AAt?$AA?3?$AA?5?$AAF?$AAa?$AAi?$AAl?$AAe?$AAd?$AA?5?$AAa?$AAl?$AAl?$AAo?$AAc?$AAa?$AAt?$AAi?$AAn?$AAg@| DCB "E"
	DCB	0x0, "R", 0x0, "R", 0x0, "O", 0x0, "R", 0x0, ":", 0x0, " "
	DCB	0x0, "H", 0x0, "W", 0x0, "I", 0x0, "n", 0x0, "i", 0x0, "t"
	DCB	0x0, ":", 0x0, " ", 0x0, "F", 0x0, "a", 0x0, "i", 0x0, "l"
	DCB	0x0, "e", 0x0, "d", 0x0, " ", 0x0, "a", 0x0, "l", 0x0, "l"
	DCB	0x0, "o", 0x0, "c", 0x0, "a", 0x0, "t", 0x0, "i", 0x0, "n"
	DCB	0x0, "g", 0x0, " ", 0x0, "T", 0x0, "X", 0x0, " ", 0x0, "b"
	DCB	0x0, "u", 0x0, "f", 0x0, "f", 0x0, "e", 0x0, "r", 0x0, " "
	DCB	0x0, "(", 0x0, "s", 0x0, "i", 0x0, "z", 0x0, "e", 0x0, " "
	DCB	0x0, "%", 0x0, "u", 0x0, ")", 0x0, 0xd, 0x0, 0xa, 0x0, 0x0
	DCB	0x0					; `string'

  00000			 AREA	 |.rdata|, DATA, READONLY
|??_C@_1HG@CKJGMIKG@?$AAE?$AAR?$AAR?$AAO?$AAR?$AA?3?$AA?5?$AAH?$AAW?$AAI?$AAn?$AAi?$AAt?$AA?3?$AA?5?$AAT?$AAx?$AAD?$AAm?$AAa?$AAB?$AAu?$AAf?$AAf?$AAe?$AAr?$AAS?$AAi?$AAz?$AAe?$AA?5?$AAm@| DCB "E"
	DCB	0x0, "R", 0x0, "R", 0x0, "O", 0x0, "R", 0x0, ":", 0x0, " "
	DCB	0x0, "H", 0x0, "W", 0x0, "I", 0x0, "n", 0x0, "i", 0x0, "t"
	DCB	0x0, ":", 0x0, " ", 0x0, "T", 0x0, "x", 0x0, "D", 0x0, "m"
	DCB	0x0, "a", 0x0, "B", 0x0, "u", 0x0, "f", 0x0, "f", 0x0, "e"
	DCB	0x0, "r", 0x0, "S", 0x0, "i", 0x0, "z", 0x0, "e", 0x0, " "
	DCB	0x0, "m", 0x0, "u", 0x0, "s", 0x0, "t", 0x0, " ", 0x0, "b"
	DCB	0x0, "e", 0x0, " ", 0x0, "a", 0x0, "t", 0x0, " ", 0x0, "l"
	DCB	0x0, "e", 0x0, "a", 0x0, "s", 0x0, "t", 0x0, " ", 0x0, "%"
	DCB	0x0, "u", 0x0, " ", 0x0, "b", 0x0, "y", 0x0, "t", 0x0, "e"
	DCB	0x0, "s", 0x0, 0xd, 0x0, 0xa, 0x0, 0x0, 0x0 ; `string'

  00000			 AREA	 |.rdata|, DATA, READONLY
|??_C@_1FG@KKABACDB@?$AAE?$AAR?$AAR?$AAO?$AAR?$AA?3?$AA?5?$AAH?$AAW?$AAI?$AAn?$AAi?$AAt?$AA?3?$AA?5?$AAC?$AAa?$AAn?$AAn?$AAo?$AAt?$AA?5?$AAa?$AAl?$AAl?$AAo?$AAc?$AAa?$AAt?$AAe?$AA?5?$AAD@| DCB "E"
	DCB	0x0, "R", 0x0, "R", 0x0, "O", 0x0, "R", 0x0, ":", 0x0, " "
	DCB	0x0, "H", 0x0, "W", 0x0, "I", 0x0, "n", 0x0, "i", 0x0, "t"
	DCB	0x0, ":", 0x0, " ", 0x0, "C", 0x0, "a", 0x0, "n", 0x0, "n"
	DCB	0x0, "o", 0x0, "t", 0x0, " ", 0x0, "a", 0x0, "l", 0x0, "l"
	DCB	0x0, "o", 0x0, "c", 0x0, "a", 0x0, "t", 0x0, "e", 0x0, " "
	DCB	0x0, "D", 0x0, "M", 0x0, "A", 0x0, " ", 0x0, "o", 0x0, "n"
	DCB	0x0, " ", 0x0, "T", 0x0, "X", 0x0, 0xd, 0x0, 0xa, 0x0, 0x0
	DCB	0x0					; `string'

  00000			 AREA	 |.rdata|, DATA, READONLY
|??_C@_1DE@PLCFDKBA@?$AAO?$AAM?$AAA?$AAP?$AA3?$AA5?$AAX?$AAX?$AA?5?$AAT?$AAX?$AA?5?$AAD?$AAM?$AAA?$AA?5?$AAe?$AAn?$AAa?$AAb?$AAl?$AAe?$AAd?$AA?$AN?$AA?6?$AA?$AA@| DCB "O"
	DCB	0x0, "M", 0x0, "A", 0x0, "P", 0x0, "3", 0x0, "5", 0x0, "X"
	DCB	0x0, "X", 0x0, " ", 0x0, "T", 0x0, "X", 0x0, " ", 0x0, "D"
	DCB	0x0, "M", 0x0, "A", 0x0, " ", 0x0, "e", 0x0, "n", 0x0, "a"
	DCB	0x0, "b", 0x0, "l", 0x0, "e", 0x0, "d", 0x0, 0xd, 0x0, 0xa
	DCB	0x0, 0x0, 0x0				; `string'

  00000			 AREA	 |.rdata|, DATA, READONLY
|??_C@_1DE@OPOFMPCE@?$AAH?$AAW?$AAI?$AAn?$AAi?$AAt?$AA?3?$AA?5?$AAT?$AAx?$AAD?$AAm?$AAa?$AAR?$AAe?$AAq?$AAu?$AAe?$AAs?$AAt?$AA?$DN?$AA?5?$AA?$CF?$AAd?$AA?6?$AA?$AA@| DCB "H"
	DCB	0x0, "W", 0x0, "I", 0x0, "n", 0x0, "i", 0x0, "t", 0x0, ":"
	DCB	0x0, " ", 0x0, "T", 0x0, "x", 0x0, "D", 0x0, "m", 0x0, "a"
	DCB	0x0, "R", 0x0, "e", 0x0, "q", 0x0, "u", 0x0, "e", 0x0, "s"
	DCB	0x0, "t", 0x0, "=", 0x0, " ", 0x0, "%", 0x0, "d", 0x0, 0xa
	DCB	0x0, 0x0, 0x0				; `string'

  00000			 AREA	 |.rdata|, DATA, READONLY
|??_C@_1FK@EBCJFPMH@?$AAE?$AAR?$AAR?$AAO?$AAR?$AA?3?$AA?5?$AAH?$AAW?$AAI?$AAn?$AAi?$AAt?$AA?3?$AA?5?$AAF?$AAa?$AAi?$AAl?$AAe?$AAd?$AA?5?$AAt?$AAo?$AA?5?$AAo?$AAp?$AAe?$AAn?$AA?5?$AAg?$AAp@| DCB "E"
	DCB	0x0, "R", 0x0, "R", 0x0, "O", 0x0, "R", 0x0, ":", 0x0, " "
	DCB	0x0, "H", 0x0, "W", 0x0, "I", 0x0, "n", 0x0, "i", 0x0, "t"
	DCB	0x0, ":", 0x0, " ", 0x0, "F", 0x0, "a", 0x0, "i", 0x0, "l"
	DCB	0x0, "e", 0x0, "d", 0x0, " ", 0x0, "t", 0x0, "o", 0x0, " "
	DCB	0x0, "o", 0x0, "p", 0x0, "e", 0x0, "n", 0x0, " ", 0x0, "g"
	DCB	0x0, "p", 0x0, "i", 0x0, "o", 0x0, " ", 0x0, "d", 0x0, "r"
	DCB	0x0, "i", 0x0, "v", 0x0, "e", 0x0, "r", 0x0, "!", 0x0, 0xd
	DCB	0x0, 0xa, 0x0, 0x0, 0x0			; `string'

  00000			 AREA	 |.rdata|, DATA, READONLY
|??_C@_1GM@KEAJOIJP@?$AAH?$AAW?$AAI?$AAn?$AAi?$AAt?$AA?3?$AA?5?$AAE?$AAx?$AAt?$AAe?$AAr?$AAn?$AAa?$AAl?$AA?5?$AAt?$AAr?$AAa?$AAn?$AAs?$AAc?$AAe?$AAi?$AAv?$AAe?$AAr?$AA?5?$AAc?$AAo?$AAn@| DCB "H"
	DCB	0x0, "W", 0x0, "I", 0x0, "n", 0x0, "i", 0x0, "t", 0x0, ":"
	DCB	0x0, " ", 0x0, "E", 0x0, "x", 0x0, "t", 0x0, "e", 0x0, "r"
	DCB	0x0, "n", 0x0, "a", 0x0, "l", 0x0, " ", 0x0, "t", 0x0, "r"
	DCB	0x0, "a", 0x0, "n", 0x0, "s", 0x0, "c", 0x0, "e", 0x0, "i"
	DCB	0x0, "v", 0x0, "e", 0x0, "r", 0x0, " ", 0x0, "c", 0x0, "o"
	DCB	0x0, "n", 0x0, "t", 0x0, "r", 0x0, "o", 0x0, "l", 0x0, "l"
	DCB	0x0, "e", 0x0, "d", 0x0, " ", 0x0, "w", 0x0, "i", 0x0, "t"
	DCB	0x0, "h", 0x0, " ", 0x0, "g", 0x0, "p", 0x0, "i", 0x0, "o"
	DCB	0x0, " ", 0x0, "%", 0x0, "d", 0x0, 0xa, 0x0, 0x0, 0x0 ; `string'

  00000			 AREA	 |.rdata|, DATA, READONLY
|??_C@_1GG@EBBCDMFK@?$AAE?$AAR?$AAR?$AAO?$AAR?$AA?3?$AA?5?$AAH?$AAW?$AAI?$AAn?$AAi?$AAt?$AA?3?$AA?5?$AAF?$AAa?$AAi?$AAl?$AAe?$AAd?$AA?5?$AAm?$AAa?$AAp?$AA?5?$AAp?$AAh?$AAy?$AAs?$AAi?$AAc@| DCB "E"
	DCB	0x0, "R", 0x0, "R", 0x0, "O", 0x0, "R", 0x0, ":", 0x0, " "
	DCB	0x0, "H", 0x0, "W", 0x0, "I", 0x0, "n", 0x0, "i", 0x0, "t"
	DCB	0x0, ":", 0x0, " ", 0x0, "F", 0x0, "a", 0x0, "i", 0x0, "l"
	DCB	0x0, "e", 0x0, "d", 0x0, " ", 0x0, "m", 0x0, "a", 0x0, "p"
	DCB	0x0, " ", 0x0, "p", 0x0, "h", 0x0, "y", 0x0, "s", 0x0, "i"
	DCB	0x0, "c", 0x0, "a", 0x0, "l", 0x0, " ", 0x0, "m", 0x0, "e"
	DCB	0x0, "m", 0x0, "o", 0x0, "r", 0x0, "y", 0x0, " ", 0x0, "0"
	DCB	0x0, "x", 0x0, "%", 0x0, "0", 0x0, "8", 0x0, "x", 0x0, 0xd
	DCB	0x0, 0xa, 0x0, 0x0, 0x0			; `string'

  00000			 AREA	 |.rdata|, DATA, READONLY
|??_C@_1DM@CGNHFLML@?$AAH?$AAW?$AAI?$AAn?$AAi?$AAt?$AA?3?$AA?5?$AAM?$AAm?$AAM?$AAa?$AAp?$AAI?$AAo?$AAS?$AAp?$AAa?$AAc?$AAe?$AA?3?$AA?5?$AA0?$AAx?$AA?$CF?$AA0?$AA8?$AAx?$AA?6?$AA?$AA@| DCB "H"
	DCB	0x0, "W", 0x0, "I", 0x0, "n", 0x0, "i", 0x0, "t", 0x0, ":"
	DCB	0x0, " ", 0x0, "M", 0x0, "m", 0x0, "M", 0x0, "a", 0x0, "p"
	DCB	0x0, "I", 0x0, "o", 0x0, "S", 0x0, "p", 0x0, "a", 0x0, "c"
	DCB	0x0, "e", 0x0, ":", 0x0, " ", 0x0, "0", 0x0, "x", 0x0, "%"
	DCB	0x0, "0", 0x0, "8", 0x0, "x", 0x0, 0xa, 0x0, 0x0, 0x0 ; `string'

  00000			 AREA	 |.rdata|, DATA, READONLY
|??_C@_1FA@IMOKAIMA@?$AAE?$AAR?$AAR?$AAO?$AAR?$AA?3?$AA?5?$AAH?$AAW?$AAI?$AAn?$AAi?$AAt?$AA?3?$AA?5?$AAF?$AAa?$AAi?$AAl?$AAe?$AAd?$AA?5?$AAt?$AAo?$AA?5?$AAr?$AAe?$AAq?$AAu?$AAe?$AAs?$AAt@| DCB "E"
	DCB	0x0, "R", 0x0, "R", 0x0, "O", 0x0, "R", 0x0, ":", 0x0, " "
	DCB	0x0, "H", 0x0, "W", 0x0, "I", 0x0, "n", 0x0, "i", 0x0, "t"
	DCB	0x0, ":", 0x0, " ", 0x0, "F", 0x0, "a", 0x0, "i", 0x0, "l"
	DCB	0x0, "e", 0x0, "d", 0x0, " ", 0x0, "t", 0x0, "o", 0x0, " "
	DCB	0x0, "r", 0x0, "e", 0x0, "q", 0x0, "u", 0x0, "e", 0x0, "s"
	DCB	0x0, "t", 0x0, " ", 0x0, "p", 0x0, "a", 0x0, "d", 0x0, "s"
	DCB	0x0, 0xd, 0x0, 0xa, 0x0, 0x0, 0x0	; `string'

  00000			 AREA	 |.rdata|, DATA, READONLY
|??_C@_1IE@GEGDCGKO@?$AAE?$AAR?$AAR?$AAO?$AAR?$AA?3?$AA?5?$AAH?$AAW?$AAI?$AAn?$AAi?$AAt?$AA?3?$AA?5?$AAF?$AAa?$AAi?$AAl?$AAe?$AAd?$AA?5?$AAt?$AAo?$AA?5?$AAr?$AAe?$AAt?$AAr?$AAi?$AAe?$AAv@| DCB "E"
	DCB	0x0, "R", 0x0, "R", 0x0, "O", 0x0, "R", 0x0, ":", 0x0, " "
	DCB	0x0, "H", 0x0, "W", 0x0, "I", 0x0, "n", 0x0, "i", 0x0, "t"
	DCB	0x0, ":", 0x0, " ", 0x0, "F", 0x0, "a", 0x0, "i", 0x0, "l"
	DCB	0x0, "e", 0x0, "d", 0x0, " ", 0x0, "t", 0x0, "o", 0x0, " "
	DCB	0x0, "r", 0x0, "e", 0x0, "t", 0x0, "r", 0x0, "i", 0x0, "e"
	DCB	0x0, "v", 0x0, "e", 0x0, " ", 0x0, "v", 0x0, "a", 0x0, "l"
	DCB	0x0, "i", 0x0, "d", 0x0, " ", 0x0, "d", 0x0, "e", 0x0, "v"
	DCB	0x0, "i", 0x0, "c", 0x0, "e", 0x0, " ", 0x0, "I", 0x0, "D"
	DCB	0x0, " ", 0x0, "f", 0x0, "o", 0x0, "r", 0x0, " ", 0x0, "t"
	DCB	0x0, "h", 0x0, "i", 0x0, "s", 0x0, " ", 0x0, "U", 0x0, "A"
	DCB	0x0, "R", 0x0, "T", 0x0, 0xd, 0x0, 0xa, 0x0, 0x0, 0x0 ; `string'

  00000			 AREA	 |.rdata|, DATA, READONLY
|??_C@_1FO@HLLDLLCK@?$AAE?$AAR?$AAR?$AAO?$AAR?$AA?3?$AA?5?$AAH?$AAW?$AAI?$AAn?$AAi?$AAt?$AA?3?$AA?5?$AAF?$AAa?$AAi?$AAl?$AAe?$AAd?$AA?5?$AAo?$AAp?$AAe?$AAn?$AA?5?$AAp?$AAa?$AAr?$AAe?$AAn@| DCB "E"
	DCB	0x0, "R", 0x0, "R", 0x0, "O", 0x0, "R", 0x0, ":", 0x0, " "
	DCB	0x0, "H", 0x0, "W", 0x0, "I", 0x0, "n", 0x0, "i", 0x0, "t"
	DCB	0x0, ":", 0x0, " ", 0x0, "F", 0x0, "a", 0x0, "i", 0x0, "l"
	DCB	0x0, "e", 0x0, "d", 0x0, " ", 0x0, "o", 0x0, "p", 0x0, "e"
	DCB	0x0, "n", 0x0, " ", 0x0, "p", 0x0, "a", 0x0, "r", 0x0, "e"
	DCB	0x0, "n", 0x0, "t", 0x0, " ", 0x0, "b", 0x0, "u", 0x0, "s"
	DCB	0x0, " ", 0x0, "d", 0x0, "r", 0x0, "i", 0x0, "v", 0x0, "e"
	DCB	0x0, "r", 0x0, 0xd, 0x0, 0xa, 0x0, 0x0, 0x0 ; `string'

  00000			 AREA	 |.rdata|, DATA, READONLY
|??_C@_1HA@GDAKBEMI@?$AAE?$AAR?$AAR?$AAO?$AAR?$AA?3?$AA?5?$AAH?$AAW?$AAI?$AAn?$AAi?$AAt?$AA?3?$AA?5?$AAF?$AAa?$AAi?$AAl?$AAe?$AAd?$AA?5?$AAr?$AAe?$AAa?$AAd?$AA?5?$AAd?$AAr?$AAi?$AAv?$AAe@| DCB "E"
	DCB	0x0, "R", 0x0, "R", 0x0, "O", 0x0, "R", 0x0, ":", 0x0, " "
	DCB	0x0, "H", 0x0, "W", 0x0, "I", 0x0, "n", 0x0, "i", 0x0, "t"
	DCB	0x0, ":", 0x0, " ", 0x0, "F", 0x0, "a", 0x0, "i", 0x0, "l"
	DCB	0x0, "e", 0x0, "d", 0x0, " ", 0x0, "r", 0x0, "e", 0x0, "a"
	DCB	0x0, "d", 0x0, " ", 0x0, "d", 0x0, "r", 0x0, "i", 0x0, "v"
	DCB	0x0, "e", 0x0, "r", 0x0, " ", 0x0, "r", 0x0, "e", 0x0, "g"
	DCB	0x0, "i", 0x0, "s", 0x0, "t", 0x0, "r", 0x0, "y", 0x0, " "
	DCB	0x0, "p", 0x0, "a", 0x0, "r", 0x0, "a", 0x0, "m", 0x0, "e"
	DCB	0x0, "t", 0x0, "e", 0x0, "r", 0x0, "s", 0x0, 0xd, 0x0, 0xa
	DCB	0x0, 0x0, 0x0				; `string'

  00000			 AREA	 |.rdata|, DATA, READONLY
|??_C@_1DK@GEEEGFBF@?$AA?$CL?$AAH?$AAW?$AAI?$AAn?$AAi?$AAt?$AA?$CI?$AA?$CF?$AAs?$AA?0?$AA?5?$AA0?$AAx?$AA?$CF?$AA0?$AA8?$AAx?$AA?0?$AA?5?$AA0?$AAx?$AA?$CF?$AA0?$AA8?$AAx?$AA?$AN?$AA?6?$AA?$AA@| DCB "+"
	DCB	0x0, "H", 0x0, "W", 0x0, "I", 0x0, "n", 0x0, "i", 0x0, "t"
	DCB	0x0, "(", 0x0, "%", 0x0, "s", 0x0, ",", 0x0, " ", 0x0, "0"
	DCB	0x0, "x", 0x0, "%", 0x0, "0", 0x0, "8", 0x0, "x", 0x0, ","
	DCB	0x0, " ", 0x0, "0", 0x0, "x", 0x0, "%", 0x0, "0", 0x0, "8"
	DCB	0x0, "x", 0x0, 0xd, 0x0, 0xa, 0x0, 0x0, 0x0 ; `string'
; Function compile flags: /Odtp

  00ff4			 AREA	 |.text|, CODE, ARM

  00ff4		 |HWInit| PROC

; 1614 : {

  00ff4		 |$LN84@HWInit|
  00ff4	e1a0c00d	 mov         r12, sp
  00ff8	e92d0007	 stmdb       sp!, {r0 - r2}
  00ffc	e92d5000	 stmdb       sp!, {r12, lr}
  01000	e24dd0fc	 sub         sp, sp, #0xFC
  01004		 |$M46832|

; 1615 :     BOOL rc = FALSE;

  01004	e3a03000	 mov         r3, #0
  01008	e58d3008	 str         r3, [sp, #8]

; 1616 :     UARTPDD *pPdd = NULL;

  0100c	e3a03000	 mov         r3, #0
  01010	e58d3018	 str         r3, [sp, #0x18]

; 1617 :     PHYSICAL_ADDRESS pa;
; 1618 :     OMAP_UART_REGS *pUartRegs;
; 1619 : 
; 1620 :     DEBUGMSG(ZONE_OPEN||ZONE_FUNCTION, (
; 1621 :         L"+HWInit(%s, 0x%08x, 0x%08x\r\n", context, pMdd, pHWObj
; 1622 :         ));

  01014	e59f3dc8	 ldr         r3, [pc, #0xDC8]
  01018	e5933440	 ldr         r3, [r3, #0x440]
  0101c	e3130002	 tst         r3, #2
  01020	1a000006	 bne         |$LN28@HWInit|
  01024	e59f3db8	 ldr         r3, [pc, #0xDB8]
  01028	e5933440	 ldr         r3, [r3, #0x440]
  0102c	e3130a02	 tst         r3, #2, 20
  01030	1a000002	 bne         |$LN28@HWInit|
  01034	e3a03000	 mov         r3, #0
  01038	e58d3038	 str         r3, [sp, #0x38]
  0103c	ea000006	 b           |$LN29@HWInit|
  01040		 |$LN28@HWInit|
  01040	e59d310c	 ldr         r3, [sp, #0x10C]
  01044	e59d2108	 ldr         r2, [sp, #0x108]
  01048	e59d1104	 ldr         r1, [sp, #0x104]
  0104c	e59f0e0c	 ldr         r0, [pc, #0xE0C]
  01050	eb000000	 bl          NKDbgPrintfW
  01054	e3a03001	 mov         r3, #1
  01058	e58d3038	 str         r3, [sp, #0x38]
  0105c		 |$LN29@HWInit|

; 1623 : 
; 1624 : 
; 1625 :     // Allocate SER_INFO structure
; 1626 :     pPdd = LocalAlloc(LPTR, sizeof(UARTPDD));

  0105c	e3a01d06	 mov         r1, #6, 26
  01060	e3a00040	 mov         r0, #0x40
  01064	eb000000	 bl          LocalAlloc
  01068	e58d003c	 str         r0, [sp, #0x3C]
  0106c	e59d303c	 ldr         r3, [sp, #0x3C]
  01070	e58d3018	 str         r3, [sp, #0x18]

; 1627 :     if (pPdd == NULL) goto cleanUp;

  01074	e59d3018	 ldr         r3, [sp, #0x18]
  01078	e3530000	 cmp         r3, #0
  0107c	1a000000	 bne         |$LN25@HWInit|
  01080	ea000334	 b           |$cleanUp$45342|
  01084		 |$LN25@HWInit|

; 1628 : 
; 1629 :     memset(pPdd, 0x00, sizeof(UARTPDD));

  01084	e3a02d06	 mov         r2, #6, 26
  01088	e3a01000	 mov         r1, #0
  0108c	e59d0018	 ldr         r0, [sp, #0x18]
  01090	eb000000	 bl          memset

; 1630 : 
; 1631 :     // Read device parameters
; 1632 :     if (GetDeviceRegistryParams(
; 1633 :         (LPCWSTR)context, pPdd, dimof(s_deviceRegParams), s_deviceRegParams
; 1634 :         ) != ERROR_SUCCESS)

  01094	e59f3dc0	 ldr         r3, [pc, #0xDC0]
  01098	e3a0200f	 mov         r2, #0xF
  0109c	e59d1018	 ldr         r1, [sp, #0x18]
  010a0	e59d0104	 ldr         r0, [sp, #0x104]
  010a4	eb000000	 bl          GetDeviceRegistryParams
  010a8	e58d0040	 str         r0, [sp, #0x40]
  010ac	e59d3040	 ldr         r3, [sp, #0x40]
  010b0	e3530000	 cmp         r3, #0
  010b4	0a00000b	 beq         |$LN24@HWInit|

; 1635 : 
; 1636 :     {
; 1637 :         DEBUGMSG(ZONE_ERROR, (L"ERROR: HWInit: "
; 1638 :             L"Failed read driver registry parameters\r\n"
; 1639 :             ));

  010b8	e59f3d24	 ldr         r3, [pc, #0xD24]
  010bc	e5933440	 ldr         r3, [r3, #0x440]
  010c0	e3130902	 tst         r3, #2, 18
  010c4	0a000004	 beq         |$LN30@HWInit|
  010c8	e59f0d88	 ldr         r0, [pc, #0xD88]
  010cc	eb000000	 bl          NKDbgPrintfW
  010d0	e3a03001	 mov         r3, #1
  010d4	e58d3044	 str         r3, [sp, #0x44]
  010d8	ea000001	 b           |$LN31@HWInit|
  010dc		 |$LN30@HWInit|
  010dc	e3a03000	 mov         r3, #0
  010e0	e58d3044	 str         r3, [sp, #0x44]
  010e4		 |$LN31@HWInit|

; 1640 :         goto cleanUp;

  010e4	ea00031b	 b           |$cleanUp$45342|
  010e8		 |$LN24@HWInit|

; 1641 :     }
; 1642 : 
; 1643 : 
; 1644 :     // Open parent bus
; 1645 :     pPdd->hParentBus = CreateBusAccessHandle((LPCWSTR)context);

  010e8	e59d0104	 ldr         r0, [sp, #0x104]
  010ec	eb000000	 bl          CreateBusAccessHandle
  010f0	e58d0048	 str         r0, [sp, #0x48]
  010f4	e59d3018	 ldr         r3, [sp, #0x18]
  010f8	e283202c	 add         r2, r3, #0x2C
  010fc	e59d3048	 ldr         r3, [sp, #0x48]
  01100	e5823000	 str         r3, [r2]

; 1646 :     if (pPdd->hParentBus == NULL)

  01104	e59d3018	 ldr         r3, [sp, #0x18]
  01108	e283302c	 add         r3, r3, #0x2C
  0110c	e5933000	 ldr         r3, [r3]
  01110	e3530000	 cmp         r3, #0
  01114	1a00000b	 bne         |$LN23@HWInit|

; 1647 :     {
; 1648 :         DEBUGMSG(ZONE_ERROR, (L"ERROR: HWInit: "
; 1649 :             L"Failed open parent bus driver\r\n"
; 1650 :             ));

  01118	e59f3cc4	 ldr         r3, [pc, #0xCC4]
  0111c	e5933440	 ldr         r3, [r3, #0x440]
  01120	e3130902	 tst         r3, #2, 18
  01124	0a000004	 beq         |$LN32@HWInit|
  01128	e59f0d24	 ldr         r0, [pc, #0xD24]
  0112c	eb000000	 bl          NKDbgPrintfW
  01130	e3a03001	 mov         r3, #1
  01134	e58d304c	 str         r3, [sp, #0x4C]
  01138	ea000001	 b           |$LN33@HWInit|
  0113c		 |$LN32@HWInit|
  0113c	e3a03000	 mov         r3, #0
  01140	e58d304c	 str         r3, [sp, #0x4C]
  01144		 |$LN33@HWInit|

; 1651 :         goto cleanUp;

  01144	ea000303	 b           |$cleanUp$45342|
  01148		 |$LN23@HWInit|

; 1652 :     }
; 1653 : 	// Retrieve device index
; 1654 : 	pPdd->DeviceID = SOCGetUartDeviceByIndex(pPdd->UARTIndex);

  01148	e59d3018	 ldr         r3, [sp, #0x18]
  0114c	e283300c	 add         r3, r3, #0xC
  01150	e5930000	 ldr         r0, [r3]
  01154	eb000000	 bl          SOCGetUartDeviceByIndex
  01158	e58d0050	 str         r0, [sp, #0x50]
  0115c	e59d3018	 ldr         r3, [sp, #0x18]
  01160	e2832010	 add         r2, r3, #0x10
  01164	e59d3050	 ldr         r3, [sp, #0x50]
  01168	e5823000	 str         r3, [r2]

; 1655 : 
; 1656 : 	if (pPdd->DeviceID == OMAP_DEVICE_NONE)

  0116c	e59d3018	 ldr         r3, [sp, #0x18]
  01170	e2833010	 add         r3, r3, #0x10
  01174	e5933000	 ldr         r3, [r3]
  01178	e3730001	 cmn         r3, #1
  0117c	1a00000b	 bne         |$LN22@HWInit|

; 1657 : 	{
; 1658 :         DEBUGMSG(ZONE_ERROR, (L"ERROR: HWInit: "
; 1659 :             L"Failed to retrieve valid device ID for this UART\r\n"
; 1660 :             ));

  01180	e59f3c5c	 ldr         r3, [pc, #0xC5C]
  01184	e5933440	 ldr         r3, [r3, #0x440]
  01188	e3130902	 tst         r3, #2, 18
  0118c	0a000004	 beq         |$LN34@HWInit|
  01190	e59f0cb8	 ldr         r0, [pc, #0xCB8]
  01194	eb000000	 bl          NKDbgPrintfW
  01198	e3a03001	 mov         r3, #1
  0119c	e58d3054	 str         r3, [sp, #0x54]
  011a0	ea000001	 b           |$LN35@HWInit|
  011a4		 |$LN34@HWInit|
  011a4	e3a03000	 mov         r3, #0
  011a8	e58d3054	 str         r3, [sp, #0x54]
  011ac		 |$LN35@HWInit|

; 1661 :         goto cleanUp;

  011ac	ea0002e9	 b           |$cleanUp$45342|
  011b0		 |$LN22@HWInit|

; 1662 : 	}
; 1663 : 
; 1664 : 	// Perform pads configuration
; 1665 : 	if (!RequestDevicePads(pPdd->DeviceID))

  011b0	e59d3018	 ldr         r3, [sp, #0x18]
  011b4	e2833010	 add         r3, r3, #0x10
  011b8	e5930000	 ldr         r0, [r3]
  011bc	eb000000	 bl          RequestDevicePads
  011c0	e58d0058	 str         r0, [sp, #0x58]
  011c4	e59d3058	 ldr         r3, [sp, #0x58]
  011c8	e3530000	 cmp         r3, #0
  011cc	1a00000b	 bne         |$LN21@HWInit|

; 1666 : 	{
; 1667 :         DEBUGMSG(ZONE_ERROR, (L"ERROR: HWInit: "
; 1668 :             L"Failed to request pads\r\n"
; 1669 :             ));

  011d0	e59f3c0c	 ldr         r3, [pc, #0xC0C]
  011d4	e5933440	 ldr         r3, [r3, #0x440]
  011d8	e3130902	 tst         r3, #2, 18
  011dc	0a000004	 beq         |$LN36@HWInit|
  011e0	e59f0c64	 ldr         r0, [pc, #0xC64]
  011e4	eb000000	 bl          NKDbgPrintfW
  011e8	e3a03001	 mov         r3, #1
  011ec	e58d305c	 str         r3, [sp, #0x5C]
  011f0	ea000001	 b           |$LN37@HWInit|
  011f4		 |$LN36@HWInit|
  011f4	e3a03000	 mov         r3, #0
  011f8	e58d305c	 str         r3, [sp, #0x5C]
  011fc		 |$LN37@HWInit|

; 1670 :         goto cleanUp;

  011fc	ea0002d5	 b           |$cleanUp$45342|
  01200		 |$LN21@HWInit|

; 1671 : 	}
; 1672 : 
; 1673 :     // Map physical memory
; 1674 :     DEBUGMSG(ZONE_INIT, (L"HWInit: MmMapIoSpace: 0x%08x\n", pPdd->memBase[0]));

  01200	e59f3bdc	 ldr         r3, [pc, #0xBDC]
  01204	e5933440	 ldr         r3, [r3, #0x440]
  01208	e3130001	 tst         r3, #1
  0120c	0a000006	 beq         |$LN38@HWInit|
  01210	e59d3018	 ldr         r3, [sp, #0x18]
  01214	e5931000	 ldr         r1, [r3]
  01218	e59f0c28	 ldr         r0, [pc, #0xC28]
  0121c	eb000000	 bl          NKDbgPrintfW
  01220	e3a03001	 mov         r3, #1
  01224	e58d3060	 str         r3, [sp, #0x60]
  01228	ea000001	 b           |$LN39@HWInit|
  0122c		 |$LN38@HWInit|
  0122c	e3a03000	 mov         r3, #0
  01230	e58d3060	 str         r3, [sp, #0x60]
  01234		 |$LN39@HWInit|

; 1675 :     
; 1676 :     pPdd->memBase[0] = GetAddressByDevice(pPdd->DeviceID);

  01234	e59d3018	 ldr         r3, [sp, #0x18]
  01238	e2833010	 add         r3, r3, #0x10
  0123c	e5930000	 ldr         r0, [r3]
  01240	eb000000	 bl          GetAddressByDevice
  01244	e58d0064	 str         r0, [sp, #0x64]
  01248	e59d2064	 ldr         r2, [sp, #0x64]
  0124c	e59d3018	 ldr         r3, [sp, #0x18]
  01250	e5832000	 str         r2, [r3]

; 1677 :     pPdd->memLen[0] = sizeof(OMAP_UART_REGS);

  01254	e59d3018	 ldr         r3, [sp, #0x18]
  01258	e2832004	 add         r2, r3, #4
  0125c	e3a03061	 mov         r3, #0x61
  01260	e5823000	 str         r3, [r2]

; 1678 :     pPdd->irq = GetIrqByDevice(SOCGetUartDeviceByIndex(pPdd->UARTIndex),NULL);

  01264	e59d3018	 ldr         r3, [sp, #0x18]
  01268	e283300c	 add         r3, r3, #0xC
  0126c	e5930000	 ldr         r0, [r3]
  01270	eb000000	 bl          SOCGetUartDeviceByIndex
  01274	e58d0068	 str         r0, [sp, #0x68]
  01278	e3a01000	 mov         r1, #0
  0127c	e59d0068	 ldr         r0, [sp, #0x68]
  01280	eb000000	 bl          GetIrqByDevice
  01284	e58d006c	 str         r0, [sp, #0x6C]
  01288	e59d3018	 ldr         r3, [sp, #0x18]
  0128c	e2832008	 add         r2, r3, #8
  01290	e59d306c	 ldr         r3, [sp, #0x6C]
  01294	e5823000	 str         r3, [r2]

; 1679 :     // UART registers
; 1680 :     pa.QuadPart = pPdd->memBase[0];

  01298	e59d3018	 ldr         r3, [sp, #0x18]
  0129c	e5933000	 ldr         r3, [r3]
  012a0	e58d3010	 str         r3, [sp, #0x10]
  012a4	e3a03000	 mov         r3, #0
  012a8	e58d3014	 str         r3, [sp, #0x14]

; 1681 :     pUartRegs = MmMapIoSpace(pa, pPdd->memLen[0], FALSE);

  012ac	e3a03000	 mov         r3, #0
  012b0	e59d2018	 ldr         r2, [sp, #0x18]
  012b4	e2822004	 add         r2, r2, #4
  012b8	e5922000	 ldr         r2, [r2]
  012bc	e59d0010	 ldr         r0, [sp, #0x10]
  012c0	e59d1014	 ldr         r1, [sp, #0x14]
  012c4	eb000000	 bl          MmMapIoSpace
  012c8	e58d0070	 str         r0, [sp, #0x70]
  012cc	e59d3070	 ldr         r3, [sp, #0x70]
  012d0	e58d300c	 str         r3, [sp, #0xC]

; 1682 :     if (pUartRegs == NULL)

  012d4	e59d300c	 ldr         r3, [sp, #0xC]
  012d8	e3530000	 cmp         r3, #0
  012dc	1a00000c	 bne         |$LN20@HWInit|

; 1683 :     {
; 1684 :         DEBUGMSG(ZONE_ERROR, (L"ERROR: HWInit: "
; 1685 :             L"Failed map physical memory 0x%08x\r\n", pa.LowPart
; 1686 :             ));

  012e0	e59f3afc	 ldr         r3, [pc, #0xAFC]
  012e4	e5933440	 ldr         r3, [r3, #0x440]
  012e8	e3130902	 tst         r3, #2, 18
  012ec	0a000005	 beq         |$LN40@HWInit|
  012f0	e59d1010	 ldr         r1, [sp, #0x10]
  012f4	e59f0b48	 ldr         r0, [pc, #0xB48]
  012f8	eb000000	 bl          NKDbgPrintfW
  012fc	e3a03001	 mov         r3, #1
  01300	e58d3074	 str         r3, [sp, #0x74]
  01304	ea000001	 b           |$LN41@HWInit|
  01308		 |$LN40@HWInit|
  01308	e3a03000	 mov         r3, #0
  0130c	e58d3074	 str         r3, [sp, #0x74]
  01310		 |$LN41@HWInit|

; 1687 :         goto cleanUp;

  01310	ea000290	 b           |$cleanUp$45342|
  01314		 |$LN20@HWInit|

; 1688 :     }
; 1689 :     pPdd->pUartRegs = pUartRegs;

  01314	e59d3018	 ldr         r3, [sp, #0x18]
  01318	e2832024	 add         r2, r3, #0x24
  0131c	e59d300c	 ldr         r3, [sp, #0xC]
  01320	e5823000	 str         r3, [r2]

; 1690 : 
; 1691 :     if ((pPdd->XcvrEnableGpio != 0xFFFF) && ((pPdd->XcvrEnabledLevel == 0) || (pPdd->XcvrEnabledLevel == 1)))

  01324	e59d3018	 ldr         r3, [sp, #0x18]
  01328	e2833e17	 add         r3, r3, #0x17, 28
  0132c	e5932000	 ldr         r2, [r3]
  01330	e3a03cff	 mov         r3, #0xFF, 24
  01334	e38330ff	 orr         r3, r3, #0xFF
  01338	e1520003	 cmp         r2, r3
  0133c	0a000032	 beq         |$LN19@HWInit|
  01340	e59d3018	 ldr         r3, [sp, #0x18]
  01344	e2833f5d	 add         r3, r3, #0x5D, 30
  01348	e5933000	 ldr         r3, [r3]
  0134c	e3530000	 cmp         r3, #0
  01350	0a000004	 beq         |$LN18@HWInit|
  01354	e59d3018	 ldr         r3, [sp, #0x18]
  01358	e2833f5d	 add         r3, r3, #0x5D, 30
  0135c	e5933000	 ldr         r3, [r3]
  01360	e3530001	 cmp         r3, #1
  01364	1a000028	 bne         |$LN19@HWInit|
  01368		 |$LN18@HWInit|

; 1692 :     {
; 1693 :         DEBUGMSG(ZONE_INIT, (L"HWInit: External transceiver controlled with gpio %d\n", pPdd->XcvrEnableGpio));

  01368	e59f3a74	 ldr         r3, [pc, #0xA74]
  0136c	e5933440	 ldr         r3, [r3, #0x440]
  01370	e3130001	 tst         r3, #1
  01374	0a000007	 beq         |$LN42@HWInit|
  01378	e59d3018	 ldr         r3, [sp, #0x18]
  0137c	e2833e17	 add         r3, r3, #0x17, 28
  01380	e5931000	 ldr         r1, [r3]
  01384	e59f0ab4	 ldr         r0, [pc, #0xAB4]
  01388	eb000000	 bl          NKDbgPrintfW
  0138c	e3a03001	 mov         r3, #1
  01390	e58d3078	 str         r3, [sp, #0x78]
  01394	ea000001	 b           |$LN43@HWInit|
  01398		 |$LN42@HWInit|
  01398	e3a03000	 mov         r3, #0
  0139c	e58d3078	 str         r3, [sp, #0x78]
  013a0		 |$LN43@HWInit|

; 1694 :         // GPIO used to control external transceiver
; 1695 :         pPdd->hGpio = GPIOOpen();

  013a0	eb000000	 bl          GPIOOpen
  013a4	e58d007c	 str         r0, [sp, #0x7C]
  013a8	e59d3018	 ldr         r3, [sp, #0x18]
  013ac	e2832f5b	 add         r2, r3, #0x5B, 30
  013b0	e59d307c	 ldr         r3, [sp, #0x7C]
  013b4	e5823000	 str         r3, [r2]

; 1696 :         if (pPdd->hGpio == INVALID_HANDLE_VALUE)

  013b8	e59d3018	 ldr         r3, [sp, #0x18]
  013bc	e2833f5b	 add         r3, r3, #0x5B, 30
  013c0	e5933000	 ldr         r3, [r3]
  013c4	e3730001	 cmn         r3, #1
  013c8	1a00000f	 bne         |$LN17@HWInit|

; 1697 :         {
; 1698 :             pPdd->hGpio = NULL;

  013cc	e59d3018	 ldr         r3, [sp, #0x18]
  013d0	e2832f5b	 add         r2, r3, #0x5B, 30
  013d4	e3a03000	 mov         r3, #0
  013d8	e5823000	 str         r3, [r2]

; 1699 :      
; 1700 :             DEBUGMSG(ZONE_ERROR, (L"ERROR: HWInit: "
; 1701 :                 L"Failed to open gpio driver!\r\n"
; 1702 :                 ));

  013dc	e59f3a00	 ldr         r3, [pc, #0xA00]
  013e0	e5933440	 ldr         r3, [r3, #0x440]
  013e4	e3130902	 tst         r3, #2, 18
  013e8	0a000004	 beq         |$LN44@HWInit|
  013ec	e59f0a48	 ldr         r0, [pc, #0xA48]
  013f0	eb000000	 bl          NKDbgPrintfW
  013f4	e3a03001	 mov         r3, #1
  013f8	e58d3080	 str         r3, [sp, #0x80]
  013fc	ea000001	 b           |$LN45@HWInit|
  01400		 |$LN44@HWInit|
  01400	e3a03000	 mov         r3, #0
  01404	e58d3080	 str         r3, [sp, #0x80]
  01408		 |$LN45@HWInit|

; 1703 :             goto cleanUp;

  01408	ea000252	 b           |$cleanUp$45342|
  0140c		 |$LN17@HWInit|
  0140c		 |$LN19@HWInit|

; 1704 :         }
; 1705 :     }
; 1706 :             
; 1707 :         
; 1708 :     pPdd->bHWXmitComCharWaiting = FALSE;

  0140c	e59d3018	 ldr         r3, [sp, #0x18]
  01410	e2832e13	 add         r2, r3, #0x13, 28
  01414	e3a03000	 mov         r3, #0
  01418	e5823000	 str         r3, [r2]

; 1709 : 
; 1710 :     DEBUGMSG(ZONE_INIT, (L"HWInit: TxDmaRequest= %d\n", pPdd->TxDmaRequest));

  0141c	e59f39c0	 ldr         r3, [pc, #0x9C0]
  01420	e5933440	 ldr         r3, [r3, #0x440]
  01424	e3130001	 tst         r3, #1
  01428	0a000007	 beq         |$LN46@HWInit|
  0142c	e59d3018	 ldr         r3, [sp, #0x18]
  01430	e28330f0	 add         r3, r3, #0xF0
  01434	e5931000	 ldr         r1, [r3]
  01438	e59f09f8	 ldr         r0, [pc, #0x9F8]
  0143c	eb000000	 bl          NKDbgPrintfW
  01440	e3a03001	 mov         r3, #1
  01444	e58d3084	 str         r3, [sp, #0x84]
  01448	ea000001	 b           |$LN47@HWInit|
  0144c		 |$LN46@HWInit|
  0144c	e3a03000	 mov         r3, #0
  01450	e58d3084	 str         r3, [sp, #0x84]
  01454		 |$LN47@HWInit|

; 1711 : 
; 1712 :     pPdd->TxDmaInfo = NULL;     // init TX DMA as not used

  01454	e59d3018	 ldr         r3, [sp, #0x18]
  01458	e2832c01	 add         r2, r3, #1, 24
  0145c	e3a03000	 mov         r3, #0
  01460	e5823000	 str         r3, [r2]

; 1713 : 
; 1714 :     // Should driver use DMA for TX?
; 1715 :     if (pPdd->TxDmaRequest == -1)

  01464	e59d3018	 ldr         r3, [sp, #0x18]
  01468	e28330f0	 add         r3, r3, #0xF0
  0146c	e5933000	 ldr         r3, [r3]
  01470	e3730001	 cmn         r3, #1
  01474	1a000000	 bne         |$LN16@HWInit|

; 1716 :         {
; 1717 :             RETAILMSG(FALSE, (L"TX - DMA Disabled \r\n"));
; 1718 :             goto skipTXDMA;         // use FIFO, not DMA for TX.

  01478	ea0000d7	 b           |$skipTXDMA$45381|
  0147c		 |$LN16@HWInit|

; 1719 :         }
; 1720 : 
; 1721 :     // allocate dma channel
; 1722 :     pPdd->hTxDmaChannel = DmaAllocateChannel(DMA_TYPE_SYSTEM);

  0147c	e3a00000	 mov         r0, #0
  01480	eb000000	 bl          DmaAllocateChannel
  01484	e58d0088	 str         r0, [sp, #0x88]
  01488	e59d3018	 ldr         r3, [sp, #0x18]
  0148c	e2832f41	 add         r2, r3, #0x41, 30
  01490	e59d3088	 ldr         r3, [sp, #0x88]
  01494	e5823000	 str         r3, [r2]

; 1723 :     if (pPdd->hTxDmaChannel != NULL)

  01498	e59d3018	 ldr         r3, [sp, #0x18]
  0149c	e2833f41	 add         r3, r3, #0x41, 30
  014a0	e5933000	 ldr         r3, [r3]
  014a4	e3530000	 cmp         r3, #0
  014a8	0a0000cb	 beq         |$LN15@HWInit|

; 1724 :     {
; 1725 :         DEBUGMSG(ZONE_INIT, (L"OMAP35XX TX DMA enabled\r\n"));

  014ac	e59f3930	 ldr         r3, [pc, #0x930]
  014b0	e5933440	 ldr         r3, [r3, #0x440]
  014b4	e3130001	 tst         r3, #1
  014b8	0a000004	 beq         |$LN48@HWInit|
  014bc	e59f0970	 ldr         r0, [pc, #0x970]
  014c0	eb000000	 bl          NKDbgPrintfW
  014c4	e3a03001	 mov         r3, #1
  014c8	e58d308c	 str         r3, [sp, #0x8C]
  014cc	ea000001	 b           |$LN49@HWInit|
  014d0		 |$LN48@HWInit|
  014d0	e3a03000	 mov         r3, #0
  014d4	e58d308c	 str         r3, [sp, #0x8C]
  014d8		 |$LN49@HWInit|

; 1726 : 
; 1727 :         pPdd->TxDmaInfo = LocalAlloc(LMEM_ZEROINIT,sizeof(DmaDataInfo_t));

  014d8	e3a01018	 mov         r1, #0x18
  014dc	e3a00040	 mov         r0, #0x40
  014e0	eb000000	 bl          LocalAlloc
  014e4	e58d0090	 str         r0, [sp, #0x90]
  014e8	e59d3018	 ldr         r3, [sp, #0x18]
  014ec	e2832c01	 add         r2, r3, #1, 24
  014f0	e59d3090	 ldr         r3, [sp, #0x90]
  014f4	e5823000	 str         r3, [r2]

; 1728 :         if(!pPdd->TxDmaInfo)

  014f8	e59d3018	 ldr         r3, [sp, #0x18]
  014fc	e2833c01	 add         r3, r3, #1, 24
  01500	e5933000	 ldr         r3, [r3]
  01504	e3530000	 cmp         r3, #0
  01508	1a00000b	 bne         |$LN14@HWInit|

; 1729 :         {
; 1730 :             DEBUGMSG(ZONE_ERROR, (L"ERROR: HWInit: "
; 1731 :                 L"Cannot allocate DMA on TX\r\n"
; 1732 :                 ));

  0150c	e59f38d0	 ldr         r3, [pc, #0x8D0]
  01510	e5933440	 ldr         r3, [r3, #0x440]
  01514	e3130902	 tst         r3, #2, 18
  01518	0a000004	 beq         |$LN50@HWInit|
  0151c	e59f090c	 ldr         r0, [pc, #0x90C]
  01520	eb000000	 bl          NKDbgPrintfW
  01524	e3a03001	 mov         r3, #1
  01528	e58d3094	 str         r3, [sp, #0x94]
  0152c	ea000001	 b           |$LN51@HWInit|
  01530		 |$LN50@HWInit|
  01530	e3a03000	 mov         r3, #0
  01534	e58d3094	 str         r3, [sp, #0x94]
  01538		 |$LN51@HWInit|

; 1733 :             goto skipTXDMA;

  01538	ea0000a7	 b           |$skipTXDMA$45381|
  0153c		 |$LN14@HWInit|

; 1734 :         }
; 1735 :         if (pPdd->TxDmaBufferSize < MAX_TX_SERIALDMA_FRAMESIZE)

  0153c	e59d3018	 ldr         r3, [sp, #0x18]
  01540	e28330f4	 add         r3, r3, #0xF4
  01544	e5933000	 ldr         r3, [r3]
  01548	e353003f	 cmp         r3, #0x3F
  0154c	2a000014	 bcs         |$LN13@HWInit|

; 1736 :         {
; 1737 :             DEBUGMSG(ZONE_ERROR, (L"ERROR: HWInit: "
; 1738 :                 L"TxDmaBufferSize must be at least %u bytes\r\n",
; 1739 :                 MAX_TX_SERIALDMA_FRAMESIZE
; 1740 :                 ));

  01550	e59f388c	 ldr         r3, [pc, #0x88C]
  01554	e5933440	 ldr         r3, [r3, #0x440]
  01558	e3130902	 tst         r3, #2, 18
  0155c	0a000005	 beq         |$LN52@HWInit|
  01560	e3a0103f	 mov         r1, #0x3F
  01564	e59f08c0	 ldr         r0, [pc, #0x8C0]
  01568	eb000000	 bl          NKDbgPrintfW
  0156c	e3a03001	 mov         r3, #1
  01570	e58d3098	 str         r3, [sp, #0x98]
  01574	ea000001	 b           |$LN53@HWInit|
  01578		 |$LN52@HWInit|
  01578	e3a03000	 mov         r3, #0
  0157c	e58d3098	 str         r3, [sp, #0x98]
  01580		 |$LN53@HWInit|

; 1741 : 
; 1742 :             LocalFree(pPdd->TxDmaInfo);

  01580	e59d3018	 ldr         r3, [sp, #0x18]
  01584	e2833c01	 add         r3, r3, #1, 24
  01588	e5930000	 ldr         r0, [r3]
  0158c	eb000000	 bl          LocalFree

; 1743 :             pPdd->TxDmaInfo = NULL;

  01590	e59d3018	 ldr         r3, [sp, #0x18]
  01594	e2832c01	 add         r2, r3, #1, 24
  01598	e3a03000	 mov         r3, #0
  0159c	e5823000	 str         r3, [r2]

; 1744 :             goto skipTXDMA;

  015a0	ea00008d	 b           |$skipTXDMA$45381|
  015a4		 |$LN13@HWInit|

; 1745 :         }
; 1746 : 
; 1747 :         // Allocate DMA transfer buffer
; 1748 :         pPdd->pTxDmaBuffer = AllocPhysMem(
; 1749 :             pPdd->TxDmaBufferSize, PAGE_READWRITE|PAGE_NOCACHE, 0, 0, &pPdd->paTxDmaBuffer
; 1750 :             );

  015a4	e59d3018	 ldr         r3, [sp, #0x18]
  015a8	e28330fc	 add         r3, r3, #0xFC
  015ac	e58d3000	 str         r3, [sp]
  015b0	e3a03000	 mov         r3, #0
  015b4	e3a02000	 mov         r2, #0
  015b8	e3a01f81	 mov         r1, #0x81, 30
  015bc	e59d0018	 ldr         r0, [sp, #0x18]
  015c0	e28000f4	 add         r0, r0, #0xF4
  015c4	e5900000	 ldr         r0, [r0]
  015c8	eb000000	 bl          AllocPhysMem
  015cc	e58d009c	 str         r0, [sp, #0x9C]
  015d0	e59d3018	 ldr         r3, [sp, #0x18]
  015d4	e28320f8	 add         r2, r3, #0xF8
  015d8	e59d309c	 ldr         r3, [sp, #0x9C]
  015dc	e5823000	 str         r3, [r2]

; 1751 : 
; 1752 :         if (pPdd->pTxDmaBuffer == NULL)

  015e0	e59d3018	 ldr         r3, [sp, #0x18]
  015e4	e28330f8	 add         r3, r3, #0xF8
  015e8	e5933000	 ldr         r3, [r3]
  015ec	e3530000	 cmp         r3, #0
  015f0	1a000016	 bne         |$LN12@HWInit|

; 1753 :         {
; 1754 :             DEBUGMSG(ZONE_ERROR, (L"ERROR: HWInit: "
; 1755 :                 L"Failed allocating TX buffer (size %u)\r\n", pPdd->TxDmaBufferSize
; 1756 :                 ));

  015f4	e59f37e8	 ldr         r3, [pc, #0x7E8]
  015f8	e5933440	 ldr         r3, [r3, #0x440]
  015fc	e3130902	 tst         r3, #2, 18
  01600	0a000007	 beq         |$LN54@HWInit|
  01604	e59d3018	 ldr         r3, [sp, #0x18]
  01608	e28330f4	 add         r3, r3, #0xF4
  0160c	e5931000	 ldr         r1, [r3]
  01610	e59f0810	 ldr         r0, [pc, #0x810]
  01614	eb000000	 bl          NKDbgPrintfW
  01618	e3a03001	 mov         r3, #1
  0161c	e58d30a0	 str         r3, [sp, #0xA0]
  01620	ea000001	 b           |$LN55@HWInit|
  01624		 |$LN54@HWInit|
  01624	e3a03000	 mov         r3, #0
  01628	e58d30a0	 str         r3, [sp, #0xA0]
  0162c		 |$LN55@HWInit|

; 1757 :             LocalFree(pPdd->TxDmaInfo);

  0162c	e59d3018	 ldr         r3, [sp, #0x18]
  01630	e2833c01	 add         r3, r3, #1, 24
  01634	e5930000	 ldr         r0, [r3]
  01638	eb000000	 bl          LocalFree

; 1758 :             pPdd->TxDmaInfo = NULL;

  0163c	e59d3018	 ldr         r3, [sp, #0x18]
  01640	e2832c01	 add         r2, r3, #1, 24
  01644	e3a03000	 mov         r3, #0
  01648	e5823000	 str         r3, [r2]

; 1759 :             goto skipTXDMA;

  0164c	ea000062	 b           |$skipTXDMA$45381|
  01650		 |$LN12@HWInit|

; 1760 :         }
; 1761 :         DEBUGMSG(ZONE_INIT, (L"OMAP35XX TX DMA buffer allocated\r\n"));

  01650	e59f378c	 ldr         r3, [pc, #0x78C]
  01654	e5933440	 ldr         r3, [r3, #0x440]
  01658	e3130001	 tst         r3, #1
  0165c	0a000004	 beq         |$LN56@HWInit|
  01660	e59f07bc	 ldr         r0, [pc, #0x7BC]
  01664	eb000000	 bl          NKDbgPrintfW
  01668	e3a03001	 mov         r3, #1
  0166c	e58d30a4	 str         r3, [sp, #0xA4]
  01670	ea000001	 b           |$LN57@HWInit|
  01674		 |$LN56@HWInit|
  01674	e3a03000	 mov         r3, #0
  01678	e58d30a4	 str         r3, [sp, #0xA4]
  0167c		 |$LN57@HWInit|

; 1762 : 
; 1763 :         pPdd->TxDmaInfo->pSrcBuffer = NULL;

  0167c	e59d3018	 ldr         r3, [sp, #0x18]
  01680	e2833c01	 add         r3, r3, #1, 24
  01684	e5932000	 ldr         r2, [r3]
  01688	e3a03000	 mov         r3, #0
  0168c	e5823000	 str         r3, [r2]

; 1764 :         pPdd->TxDmaInfo->pDstBuffer = NULL;

  01690	e59d3018	 ldr         r3, [sp, #0x18]
  01694	e2833c01	 add         r3, r3, #1, 24
  01698	e5933000	 ldr         r3, [r3]
  0169c	e2832004	 add         r2, r3, #4
  016a0	e3a03000	 mov         r3, #0
  016a4	e5823000	 str         r3, [r2]

; 1765 :         pPdd->TxDmaInfo->PhysAddrSrcBuffer = 0;

  016a8	e59d3018	 ldr         r3, [sp, #0x18]
  016ac	e2833c01	 add         r3, r3, #1, 24
  016b0	e5933000	 ldr         r3, [r3]
  016b4	e2832008	 add         r2, r3, #8
  016b8	e3a03000	 mov         r3, #0
  016bc	e5823000	 str         r3, [r2]

; 1766 :         pPdd->TxDmaInfo->PhysAddrDstBuffer = 0;

  016c0	e59d3018	 ldr         r3, [sp, #0x18]
  016c4	e2833c01	 add         r3, r3, #1, 24
  016c8	e5933000	 ldr         r3, [r3]
  016cc	e283200c	 add         r2, r3, #0xC
  016d0	e3a03000	 mov         r3, #0
  016d4	e5823000	 str         r3, [r2]

; 1767 :         pPdd->bExitThread = FALSE;

  016d8	e59d3018	 ldr         r3, [sp, #0x18]
  016dc	e2832f4e	 add         r2, r3, #0x4E, 30
  016e0	e3a03000	 mov         r3, #0
  016e4	e5823000	 str         r3, [r2]

; 1768 :         pPdd->bSendSignal = FALSE;

  016e8	e59d3018	 ldr         r3, [sp, #0x18]
  016ec	e2832f4d	 add         r2, r3, #0x4D, 30
  016f0	e3a03000	 mov         r3, #0
  016f4	e5823000	 str         r3, [r2]

; 1769 :         pPdd->bRxBreak = FALSE;

  016f8	e59d3018	 ldr         r3, [sp, #0x18]
  016fc	e2832f5e	 add         r2, r3, #0x5E, 30
  01700	e3a03000	 mov         r3, #0
  01704	e5823000	 str         r3, [r2]

; 1770 :         
; 1771 :         //Event for Tx DMA Endofblock
; 1772 :         pPdd->hEventTxIstDma = CreateEvent(NULL, FALSE, FALSE, NULL);

  01708	e3a03000	 mov         r3, #0
  0170c	e3a02000	 mov         r2, #0
  01710	e3a01000	 mov         r1, #0
  01714	e3a00000	 mov         r0, #0
  01718	eb000000	 bl          CreateEventW
  0171c	e58d00a8	 str         r0, [sp, #0xA8]
  01720	e59d3018	 ldr         r3, [sp, #0x18]
  01724	e2832f42	 add         r2, r3, #0x42, 30
  01728	e59d30a8	 ldr         r3, [sp, #0xA8]
  0172c	e5823000	 str         r3, [r2]

; 1773 : 
; 1774 :         // register dma for interrupts
; 1775 :         if (DmaEnableInterrupts(pPdd->hTxDmaChannel, pPdd->hEventTxIstDma) == FALSE)

  01730	e59d3018	 ldr         r3, [sp, #0x18]
  01734	e2833f42	 add         r3, r3, #0x42, 30
  01738	e5931000	 ldr         r1, [r3]
  0173c	e59d3018	 ldr         r3, [sp, #0x18]
  01740	e2833f41	 add         r3, r3, #0x41, 30
  01744	e5930000	 ldr         r0, [r3]
  01748	eb000000	 bl          DmaEnableInterrupts
  0174c	e58d00ac	 str         r0, [sp, #0xAC]
  01750	e59d30ac	 ldr         r3, [sp, #0xAC]
  01754	e3530000	 cmp         r3, #0
  01758	1a000012	 bne         |$LN11@HWInit|

; 1776 :         {
; 1777 :             RETAILMSG(1,(TEXT("ERROR:Failed to enable DMA TX interrupt\r\n")));

  0175c	e59f06bc	 ldr         r0, [pc, #0x6BC]
  01760	eb000000	 bl          NKDbgPrintfW

; 1778 :             FreePhysMem( pPdd->pTxDmaBuffer );

  01764	e59d3018	 ldr         r3, [sp, #0x18]
  01768	e28330f8	 add         r3, r3, #0xF8
  0176c	e5930000	 ldr         r0, [r3]
  01770	eb000000	 bl          FreePhysMem

; 1779 :             pPdd->pTxDmaBuffer = NULL;

  01774	e59d3018	 ldr         r3, [sp, #0x18]
  01778	e28320f8	 add         r2, r3, #0xF8
  0177c	e3a03000	 mov         r3, #0
  01780	e5823000	 str         r3, [r2]

; 1780 :             LocalFree(pPdd->TxDmaInfo);

  01784	e59d3018	 ldr         r3, [sp, #0x18]
  01788	e2833c01	 add         r3, r3, #1, 24
  0178c	e5930000	 ldr         r0, [r3]
  01790	eb000000	 bl          LocalFree

; 1781 :             pPdd->TxDmaInfo = NULL;

  01794	e59d3018	 ldr         r3, [sp, #0x18]
  01798	e2832c01	 add         r2, r3, #1, 24
  0179c	e3a03000	 mov         r3, #0
  017a0	e5823000	 str         r3, [r2]

; 1782 :             goto skipTXDMA;

  017a4	ea00000c	 b           |$skipTXDMA$45381|
  017a8		 |$LN11@HWInit|

; 1783 :         }
; 1784 :         // Tx DMA configuration settings
; 1785 : 
; 1786 :         InitializeTxDMA(pPdd);

  017a8	e59d0018	 ldr         r0, [sp, #0x18]
  017ac	eb000000	 bl          InitializeTxDMA

; 1787 : 
; 1788 :         DEBUGMSG(ZONE_INIT, (L"OMAP35XX TX DMA init completed\r\n"));

  017b0	e59f362c	 ldr         r3, [pc, #0x62C]
  017b4	e5933440	 ldr         r3, [r3, #0x440]
  017b8	e3130001	 tst         r3, #1
  017bc	0a000004	 beq         |$LN58@HWInit|
  017c0	e59f0654	 ldr         r0, [pc, #0x654]
  017c4	eb000000	 bl          NKDbgPrintfW
  017c8	e3a03001	 mov         r3, #1
  017cc	e58d30b0	 str         r3, [sp, #0xB0]
  017d0	ea000001	 b           |$LN59@HWInit|
  017d4		 |$LN58@HWInit|
  017d4	e3a03000	 mov         r3, #0
  017d8	e58d30b0	 str         r3, [sp, #0xB0]
  017dc		 |$LN59@HWInit|
  017dc		 |$LN15@HWInit|
  017dc		 |$skipTXDMA$45381|

; 1789 : 
; 1790 :     }
; 1791 : skipTXDMA:
; 1792 : 
; 1793 :     pPdd->RxDmaInfo = NULL; // init RX DMA not used

  017dc	e59d3018	 ldr         r3, [sp, #0x18]
  017e0	e2832f49	 add         r2, r3, #0x49, 30
  017e4	e3a03000	 mov         r3, #0
  017e8	e5823000	 str         r3, [r2]

; 1794 :     pPdd->hRxDmaChannel = NULL;

  017ec	e59d3018	 ldr         r3, [sp, #0x18]
  017f0	e2832f4b	 add         r2, r3, #0x4B, 30
  017f4	e3a03000	 mov         r3, #0
  017f8	e5823000	 str         r3, [r2]

; 1795 : 
; 1796 :     DEBUGMSG(ZONE_INIT, (L"HWInit: RxDmaRequest= %d\n", pPdd->RxDmaRequest));

  017fc	e59f35e0	 ldr         r3, [pc, #0x5E0]
  01800	e5933440	 ldr         r3, [r3, #0x440]
  01804	e3130001	 tst         r3, #1
  01808	0a000007	 beq         |$LN60@HWInit|
  0180c	e59d3018	 ldr         r3, [sp, #0x18]
  01810	e2833f43	 add         r3, r3, #0x43, 30
  01814	e5931000	 ldr         r1, [r3]
  01818	e59f05f8	 ldr         r0, [pc, #0x5F8]
  0181c	eb000000	 bl          NKDbgPrintfW
  01820	e3a03001	 mov         r3, #1
  01824	e58d30b4	 str         r3, [sp, #0xB4]
  01828	ea000001	 b           |$LN61@HWInit|
  0182c		 |$LN60@HWInit|
  0182c	e3a03000	 mov         r3, #0
  01830	e58d30b4	 str         r3, [sp, #0xB4]
  01834		 |$LN61@HWInit|

; 1797 : 
; 1798 :     // Should driver use DMA for RX?
; 1799 :     if (pPdd->RxDmaRequest == -1)

  01834	e59d3018	 ldr         r3, [sp, #0x18]
  01838	e2833f43	 add         r3, r3, #0x43, 30
  0183c	e5933000	 ldr         r3, [r3]
  01840	e3730001	 cmn         r3, #1
  01844	1a000000	 bne         |$LN10@HWInit|

; 1800 :         {
; 1801 :             RETAILMSG(FALSE, (L"RX - DMA Disabled\r\n"));
; 1802 :             goto skipRXDMA; // use FIFO, not DMA for RX.

  01848	ea0000b6	 b           |$skipRXDMA$45416|
  0184c		 |$LN10@HWInit|

; 1803 :         }
; 1804 : 
; 1805 :     // allocate dma channel
; 1806 :     pPdd->hRxDmaChannel = DmaAllocateChannel(DMA_TYPE_SYSTEM);

  0184c	e3a00000	 mov         r0, #0
  01850	eb000000	 bl          DmaAllocateChannel
  01854	e58d00b8	 str         r0, [sp, #0xB8]
  01858	e59d3018	 ldr         r3, [sp, #0x18]
  0185c	e2832f4b	 add         r2, r3, #0x4B, 30
  01860	e59d30b8	 ldr         r3, [sp, #0xB8]
  01864	e5823000	 str         r3, [r2]

; 1807 :     if (pPdd->hRxDmaChannel != NULL)

  01868	e59d3018	 ldr         r3, [sp, #0x18]
  0186c	e2833f4b	 add         r3, r3, #0x4B, 30
  01870	e5933000	 ldr         r3, [r3]
  01874	e3530000	 cmp         r3, #0
  01878	0a0000aa	 beq         |$LN9@HWInit|

; 1808 :     {
; 1809 : 
; 1810 :         pPdd->RxDmaInfo = LocalAlloc(LMEM_ZEROINIT,sizeof(DmaDataInfo_t));

  0187c	e3a01018	 mov         r1, #0x18
  01880	e3a00040	 mov         r0, #0x40
  01884	eb000000	 bl          LocalAlloc
  01888	e58d00bc	 str         r0, [sp, #0xBC]
  0188c	e59d3018	 ldr         r3, [sp, #0x18]
  01890	e2832f49	 add         r2, r3, #0x49, 30
  01894	e59d30bc	 ldr         r3, [sp, #0xBC]
  01898	e5823000	 str         r3, [r2]

; 1811 :         if(!pPdd->RxDmaInfo)

  0189c	e59d3018	 ldr         r3, [sp, #0x18]
  018a0	e2833f49	 add         r3, r3, #0x49, 30
  018a4	e5933000	 ldr         r3, [r3]
  018a8	e3530000	 cmp         r3, #0
  018ac	1a00000b	 bne         |$LN8@HWInit|

; 1812 :         {
; 1813 :             DEBUGMSG(ZONE_ERROR, (L"ERROR: HWInit: "
; 1814 :                 L"Cannot allocate DMA on RX\r\n"
; 1815 :                 ));

  018b0	e59f352c	 ldr         r3, [pc, #0x52C]
  018b4	e5933440	 ldr         r3, [r3, #0x440]
  018b8	e3130902	 tst         r3, #2, 18
  018bc	0a000004	 beq         |$LN62@HWInit|
  018c0	e59f054c	 ldr         r0, [pc, #0x54C]
  018c4	eb000000	 bl          NKDbgPrintfW
  018c8	e3a03001	 mov         r3, #1
  018cc	e58d30c0	 str         r3, [sp, #0xC0]
  018d0	ea000001	 b           |$LN63@HWInit|
  018d4		 |$LN62@HWInit|
  018d4	e3a03000	 mov         r3, #0
  018d8	e58d30c0	 str         r3, [sp, #0xC0]
  018dc		 |$LN63@HWInit|

; 1816 :             goto skipRXDMA;

  018dc	ea000091	 b           |$skipRXDMA$45416|
  018e0		 |$LN8@HWInit|

; 1817 :         }
; 1818 : 
; 1819 :         if (pPdd->RxDmaBufferSize < MAX_RX_SERIALDMA_FRAMESIZE)

  018e0	e59d3018	 ldr         r3, [sp, #0x18]
  018e4	e2833e11	 add         r3, r3, #0x11, 28
  018e8	e5933000	 ldr         r3, [r3]
  018ec	e353003f	 cmp         r3, #0x3F
  018f0	2a000014	 bcs         |$LN7@HWInit|

; 1820 :         {
; 1821 :             DEBUGMSG(ZONE_ERROR, (L"ERROR: HWInit: "
; 1822 :                 L"RxDmaBufferSize must be at least %u bytes\r\n",
; 1823 :                 MAX_TX_SERIALDMA_FRAMESIZE
; 1824 :                 ));

  018f4	e59f34e8	 ldr         r3, [pc, #0x4E8]
  018f8	e5933440	 ldr         r3, [r3, #0x440]
  018fc	e3130902	 tst         r3, #2, 18
  01900	0a000005	 beq         |$LN64@HWInit|
  01904	e3a0103f	 mov         r1, #0x3F
  01908	e59f0500	 ldr         r0, [pc, #0x500]
  0190c	eb000000	 bl          NKDbgPrintfW
  01910	e3a03001	 mov         r3, #1
  01914	e58d30c4	 str         r3, [sp, #0xC4]
  01918	ea000001	 b           |$LN65@HWInit|
  0191c		 |$LN64@HWInit|
  0191c	e3a03000	 mov         r3, #0
  01920	e58d30c4	 str         r3, [sp, #0xC4]
  01924		 |$LN65@HWInit|

; 1825 :             LocalFree(pPdd->RxDmaInfo);

  01924	e59d3018	 ldr         r3, [sp, #0x18]
  01928	e2833f49	 add         r3, r3, #0x49, 30
  0192c	e5930000	 ldr         r0, [r3]
  01930	eb000000	 bl          LocalFree

; 1826 :             pPdd->RxDmaInfo = NULL;

  01934	e59d3018	 ldr         r3, [sp, #0x18]
  01938	e2832f49	 add         r2, r3, #0x49, 30
  0193c	e3a03000	 mov         r3, #0
  01940	e5823000	 str         r3, [r2]

; 1827 :             goto skipRXDMA;

  01944	ea000077	 b           |$skipRXDMA$45416|
  01948		 |$LN7@HWInit|

; 1828 :         }
; 1829 : 
; 1830 :         if (pPdd->dwRxFifoTriggerLevel > UART_FIFO_SIZE)

  01948	e59d3018	 ldr         r3, [sp, #0x18]
  0194c	e2833f55	 add         r3, r3, #0x55, 30
  01950	e5933000	 ldr         r3, [r3]
  01954	e3530040	 cmp         r3, #0x40
  01958	9a000010	 bls         |$LN6@HWInit|

; 1831 :         {
; 1832 :             DEBUGMSG(ZONE_INIT, (L"HWInit: "
; 1833 :                 L"RxFifoTriggerLevel must be less then FIFO size %d. Reset to default trigger level %d.\r\n",
; 1834 :                 UART_FIFO_SIZE, DEFAULT_RX_FIFO_TRIGGER_LEVEL
; 1835 :                 ));

  0195c	e59f3480	 ldr         r3, [pc, #0x480]
  01960	e5933440	 ldr         r3, [r3, #0x440]
  01964	e3130001	 tst         r3, #1
  01968	0a000006	 beq         |$LN66@HWInit|
  0196c	e3a02020	 mov         r2, #0x20
  01970	e3a01040	 mov         r1, #0x40
  01974	e59f0490	 ldr         r0, [pc, #0x490]
  01978	eb000000	 bl          NKDbgPrintfW
  0197c	e3a03001	 mov         r3, #1
  01980	e58d30c8	 str         r3, [sp, #0xC8]
  01984	ea000001	 b           |$LN67@HWInit|
  01988		 |$LN66@HWInit|
  01988	e3a03000	 mov         r3, #0
  0198c	e58d30c8	 str         r3, [sp, #0xC8]
  01990		 |$LN67@HWInit|

; 1836 :             pPdd->dwRxFifoTriggerLevel = DEFAULT_RX_FIFO_TRIGGER_LEVEL;

  01990	e59d3018	 ldr         r3, [sp, #0x18]
  01994	e2832f55	 add         r2, r3, #0x55, 30
  01998	e3a03020	 mov         r3, #0x20
  0199c	e5823000	 str         r3, [r2]
  019a0		 |$LN6@HWInit|

; 1837 :         }
; 1838 : 
; 1839 :         // Allocate DMA receive buffer. We need to allocate a few bytes more than we should
; 1840 :         // because the total number of bytes in a DMA transfer must be equal to mutliple of
; 1841 :         // frame size. In our case, the frame size is never greater than the FIFO size, so 
; 1842 :         // we simply allocate extra 64 byte (FIFO size) for the DMA buffer.
; 1843 :         pPdd->pRxDmaBuffer = AllocPhysMem(
; 1844 :             pPdd->RxDmaBufferSize + UART_FIFO_SIZE, PAGE_READWRITE|PAGE_NOCACHE, 0, 0,
; 1845 :             &pPdd->paRxDmaBuffer
; 1846 :             );

  019a0	e59d3018	 ldr         r3, [sp, #0x18]
  019a4	e2833f46	 add         r3, r3, #0x46, 30
  019a8	e58d3000	 str         r3, [sp]
  019ac	e3a03000	 mov         r3, #0
  019b0	e3a02000	 mov         r2, #0
  019b4	e3a01f81	 mov         r1, #0x81, 30
  019b8	e59d0018	 ldr         r0, [sp, #0x18]
  019bc	e2800e11	 add         r0, r0, #0x11, 28
  019c0	e5900000	 ldr         r0, [r0]
  019c4	e2800040	 add         r0, r0, #0x40
  019c8	eb000000	 bl          AllocPhysMem
  019cc	e58d00cc	 str         r0, [sp, #0xCC]
  019d0	e59d3018	 ldr         r3, [sp, #0x18]
  019d4	e2832f45	 add         r2, r3, #0x45, 30
  019d8	e59d30cc	 ldr         r3, [sp, #0xCC]
  019dc	e5823000	 str         r3, [r2]

; 1847 : 
; 1848 :         if (pPdd->pRxDmaBuffer == NULL)

  019e0	e59d3018	 ldr         r3, [sp, #0x18]
  019e4	e2833f45	 add         r3, r3, #0x45, 30
  019e8	e5933000	 ldr         r3, [r3]
  019ec	e3530000	 cmp         r3, #0
  019f0	1a000016	 bne         |$LN5@HWInit|

; 1849 :         {
; 1850 :             DEBUGMSG(ZONE_ERROR, (L"ERROR: HWInit: "
; 1851 :                 L"Failed allocating transfer buffer (size %u)\r\n",
; 1852 :                 pPdd->RxDmaBufferSize
; 1853 :                 ));

  019f4	e59f33e8	 ldr         r3, [pc, #0x3E8]
  019f8	e5933440	 ldr         r3, [r3, #0x440]
  019fc	e3130902	 tst         r3, #2, 18
  01a00	0a000007	 beq         |$LN68@HWInit|
  01a04	e59d3018	 ldr         r3, [sp, #0x18]
  01a08	e2833e11	 add         r3, r3, #0x11, 28
  01a0c	e5931000	 ldr         r1, [r3]
  01a10	e59f03f0	 ldr         r0, [pc, #0x3F0]
  01a14	eb000000	 bl          NKDbgPrintfW
  01a18	e3a03001	 mov         r3, #1
  01a1c	e58d30d0	 str         r3, [sp, #0xD0]
  01a20	ea000001	 b           |$LN69@HWInit|
  01a24		 |$LN68@HWInit|
  01a24	e3a03000	 mov         r3, #0
  01a28	e58d30d0	 str         r3, [sp, #0xD0]
  01a2c		 |$LN69@HWInit|

; 1854 :             LocalFree(pPdd->RxDmaInfo);

  01a2c	e59d3018	 ldr         r3, [sp, #0x18]
  01a30	e2833f49	 add         r3, r3, #0x49, 30
  01a34	e5930000	 ldr         r0, [r3]
  01a38	eb000000	 bl          LocalFree

; 1855 :             pPdd->RxDmaInfo = NULL;

  01a3c	e59d3018	 ldr         r3, [sp, #0x18]
  01a40	e2832f49	 add         r2, r3, #0x49, 30
  01a44	e3a03000	 mov         r3, #0
  01a48	e5823000	 str         r3, [r2]

; 1856 :             goto skipRXDMA;

  01a4c	ea000035	 b           |$skipRXDMA$45416|
  01a50		 |$LN5@HWInit|

; 1857 :         }
; 1858 :         DEBUGMSG(ZONE_INIT, (L"OMAP35XX RX DMA buffer allocated\n"));

  01a50	e59f338c	 ldr         r3, [pc, #0x38C]
  01a54	e5933440	 ldr         r3, [r3, #0x440]
  01a58	e3130001	 tst         r3, #1
  01a5c	0a000004	 beq         |$LN70@HWInit|
  01a60	e59f039c	 ldr         r0, [pc, #0x39C]
  01a64	eb000000	 bl          NKDbgPrintfW
  01a68	e3a03001	 mov         r3, #1
  01a6c	e58d30d4	 str         r3, [sp, #0xD4]
  01a70	ea000001	 b           |$LN71@HWInit|
  01a74		 |$LN70@HWInit|
  01a74	e3a03000	 mov         r3, #0
  01a78	e58d30d4	 str         r3, [sp, #0xD4]
  01a7c		 |$LN71@HWInit|

; 1859 :         //Rx Event to get End of Block/Frame
; 1860 :         pPdd->hEventRxIstDma = CreateEvent(NULL, FALSE, FALSE, NULL);

  01a7c	e3a03000	 mov         r3, #0
  01a80	e3a02000	 mov         r2, #0
  01a84	e3a01000	 mov         r1, #0
  01a88	e3a00000	 mov         r0, #0
  01a8c	eb000000	 bl          CreateEventW
  01a90	e58d00d8	 str         r0, [sp, #0xD8]
  01a94	e59d3018	 ldr         r3, [sp, #0x18]
  01a98	e2832f4a	 add         r2, r3, #0x4A, 30
  01a9c	e59d30d8	 ldr         r3, [sp, #0xD8]
  01aa0	e5823000	 str         r3, [r2]

; 1861 : 
; 1862 :         // registering for system interrupt is deferred to the IST thread
; 1863 :         // spawn thread
; 1864 :         pPdd->hRxThread = CreateThread(NULL, 0, IST_RxDMA, pPdd, 0, NULL);

  01aa4	e3a03000	 mov         r3, #0
  01aa8	e58d3004	 str         r3, [sp, #4]
  01aac	e3a03000	 mov         r3, #0
  01ab0	e58d3000	 str         r3, [sp]
  01ab4	e59d3018	 ldr         r3, [sp, #0x18]
  01ab8	e59f2340	 ldr         r2, [pc, #0x340]
  01abc	e3a01000	 mov         r1, #0
  01ac0	e3a00000	 mov         r0, #0
  01ac4	eb000000	 bl          CreateThread
  01ac8	e58d00dc	 str         r0, [sp, #0xDC]
  01acc	e59d3018	 ldr         r3, [sp, #0x18]
  01ad0	e2832f4f	 add         r2, r3, #0x4F, 30
  01ad4	e59d30dc	 ldr         r3, [sp, #0xDC]
  01ad8	e5823000	 str         r3, [r2]

; 1865 :         if (pPdd->hRxThread == NULL)

  01adc	e59d3018	 ldr         r3, [sp, #0x18]
  01ae0	e2833f4f	 add         r3, r3, #0x4F, 30
  01ae4	e5933000	 ldr         r3, [r3]
  01ae8	e3530000	 cmp         r3, #0
  01aec	1a00000b	 bne         |$LN4@HWInit|

; 1866 :         {
; 1867 :             DEBUGMSG(ZONE_ERROR, (L"ERROR: HWInit: "
; 1868 :                 L"Failed to create DMA RX thread\r\n"
; 1869 :                 ));

  01af0	e59f32ec	 ldr         r3, [pc, #0x2EC]
  01af4	e5933440	 ldr         r3, [r3, #0x440]
  01af8	e3130902	 tst         r3, #2, 18
  01afc	0a000004	 beq         |$LN72@HWInit|
  01b00	e59f02f4	 ldr         r0, [pc, #0x2F4]
  01b04	eb000000	 bl          NKDbgPrintfW
  01b08	e3a03001	 mov         r3, #1
  01b0c	e58d30e0	 str         r3, [sp, #0xE0]
  01b10	ea000001	 b           |$LN73@HWInit|
  01b14		 |$LN72@HWInit|
  01b14	e3a03000	 mov         r3, #0
  01b18	e58d30e0	 str         r3, [sp, #0xE0]
  01b1c		 |$LN73@HWInit|

; 1870 :             goto cleanUp;

  01b1c	ea00008d	 b           |$cleanUp$45342|
  01b20		 |$LN4@HWInit|

; 1871 :         }
; 1872 :         // Rx DMA configuration settings
; 1873 :         InitializeRxDMA(pPdd);

  01b20	e59d0018	 ldr         r0, [sp, #0x18]
  01b24	eb000000	 bl          InitializeRxDMA
  01b28		 |$LN9@HWInit|
  01b28		 |$skipRXDMA$45416|

; 1874 :     }
; 1875 : skipRXDMA:
; 1876 :     // Map interrupt
; 1877 :     if (!KernelIoControl(
; 1878 :         IOCTL_HAL_REQUEST_SYSINTR, &(pPdd->irq), sizeof(pPdd->irq), &pPdd->sysIntr,
; 1879 :         sizeof(pPdd->sysIntr), NULL
; 1880 :         )) {

  01b28	e3a03000	 mov         r3, #0
  01b2c	e58d3004	 str         r3, [sp, #4]
  01b30	e3a03004	 mov         r3, #4
  01b34	e58d3000	 str         r3, [sp]
  01b38	e59d3018	 ldr         r3, [sp, #0x18]
  01b3c	e2833028	 add         r3, r3, #0x28
  01b40	e3a02004	 mov         r2, #4
  01b44	e59d1018	 ldr         r1, [sp, #0x18]
  01b48	e2811008	 add         r1, r1, #8
  01b4c	e59f02a4	 ldr         r0, [pc, #0x2A4]
  01b50	eb000000	 bl          KernelIoControl
  01b54	e58d00e4	 str         r0, [sp, #0xE4]
  01b58	e59d30e4	 ldr         r3, [sp, #0xE4]
  01b5c	e3530000	 cmp         r3, #0
  01b60	1a00000e	 bne         |$LN3@HWInit|

; 1881 :             DEBUGMSG(ZONE_ERROR, (L"ERROR: HWInit: "
; 1882 :                 L"Failed obtain SYSINTR for IRQ %d\r\n", pPdd->irq
; 1883 :                 ));

  01b64	e59f3278	 ldr         r3, [pc, #0x278]
  01b68	e5933440	 ldr         r3, [r3, #0x440]
  01b6c	e3130902	 tst         r3, #2, 18
  01b70	0a000007	 beq         |$LN74@HWInit|
  01b74	e59d3018	 ldr         r3, [sp, #0x18]
  01b78	e2833008	 add         r3, r3, #8
  01b7c	e5931000	 ldr         r1, [r3]
  01b80	e59f026c	 ldr         r0, [pc, #0x26C]
  01b84	eb000000	 bl          NKDbgPrintfW
  01b88	e3a03001	 mov         r3, #1
  01b8c	e58d30e8	 str         r3, [sp, #0xE8]
  01b90	ea000001	 b           |$LN75@HWInit|
  01b94		 |$LN74@HWInit|
  01b94	e3a03000	 mov         r3, #0
  01b98	e58d30e8	 str         r3, [sp, #0xE8]
  01b9c		 |$LN75@HWInit|

; 1884 :             goto cleanUp;

  01b9c	ea00006d	 b           |$cleanUp$45342|
  01ba0		 |$LN3@HWInit|

; 1885 :     }
; 1886 : 
; 1887 :     // Save it to HW object
; 1888 :     pHWObj->dwIntID = pPdd->sysIntr;

  01ba0	e59d3018	 ldr         r3, [sp, #0x18]
  01ba4	e2831028	 add         r1, r3, #0x28
  01ba8	e59d310c	 ldr         r3, [sp, #0x10C]
  01bac	e2832004	 add         r2, r3, #4
  01bb0	e5913000	 ldr         r3, [r1]
  01bb4	e5823000	 str         r3, [r2]

; 1889 : 
; 1890 :     // Create sync objects
; 1891 :     InitializeCriticalSection(&pPdd->hwCS);

  01bb8	e59d3018	 ldr         r3, [sp, #0x18]
  01bbc	e2830098	 add         r0, r3, #0x98
  01bc0	eb000000	 bl          InitializeCriticalSection

; 1892 :     InitializeCriticalSection(&pPdd->txCS);

  01bc4	e59d3018	 ldr         r3, [sp, #0x18]
  01bc8	e28300ac	 add         r0, r3, #0xAC
  01bcc	eb000000	 bl          InitializeCriticalSection

; 1893 :     InitializeCriticalSection(&pPdd->RxUpdatePtrCS);

  01bd0	e59d3018	 ldr         r3, [sp, #0x18]
  01bd4	e28300c0	 add         r0, r3, #0xC0
  01bd8	eb000000	 bl          InitializeCriticalSection

; 1894 :     InitializeCriticalSection(&pPdd->powerCS);

  01bdc	e59d3018	 ldr         r3, [sp, #0x18]
  01be0	e2830038	 add         r0, r3, #0x38
  01be4	eb000000	 bl          InitializeCriticalSection

; 1895 :     
; 1896 :     pPdd->txEvent = CreateEvent(0, FALSE, FALSE, NULL);

  01be8	e3a03000	 mov         r3, #0
  01bec	e3a02000	 mov         r2, #0
  01bf0	e3a01000	 mov         r1, #0
  01bf4	e3a00000	 mov         r0, #0
  01bf8	eb000000	 bl          CreateEventW
  01bfc	e58d00ec	 str         r0, [sp, #0xEC]
  01c00	e59d3018	 ldr         r3, [sp, #0x18]
  01c04	e28320d4	 add         r2, r3, #0xD4
  01c08	e59d30ec	 ldr         r3, [sp, #0xEC]
  01c0c	e5823000	 str         r3, [r2]

; 1897 :     if (pPdd->txEvent == NULL)

  01c10	e59d3018	 ldr         r3, [sp, #0x18]
  01c14	e28330d4	 add         r3, r3, #0xD4
  01c18	e5933000	 ldr         r3, [r3]
  01c1c	e3530000	 cmp         r3, #0
  01c20	1a00000b	 bne         |$LN2@HWInit|

; 1898 :     {
; 1899 :         DEBUGMSG(ZONE_ERROR, (L"ERROR: HWInit: "
; 1900 :             L"Failed create event\r\n"
; 1901 :             ));

  01c24	e59f31b8	 ldr         r3, [pc, #0x1B8]
  01c28	e5933440	 ldr         r3, [r3, #0x440]
  01c2c	e3130902	 tst         r3, #2, 18
  01c30	0a000004	 beq         |$LN76@HWInit|
  01c34	e59f01b4	 ldr         r0, [pc, #0x1B4]
  01c38	eb000000	 bl          NKDbgPrintfW
  01c3c	e3a03001	 mov         r3, #1
  01c40	e58d30f0	 str         r3, [sp, #0xF0]
  01c44	ea000001	 b           |$LN77@HWInit|
  01c48		 |$LN76@HWInit|
  01c48	e3a03000	 mov         r3, #0
  01c4c	e58d30f0	 str         r3, [sp, #0xF0]
  01c50		 |$LN77@HWInit|

; 1902 :         goto cleanUp;

  01c50	ea000040	 b           |$cleanUp$45342|
  01c54		 |$LN2@HWInit|

; 1903 :     }
; 1904 : 
; 1905 :     // Device is initially closed
; 1906 :     pPdd->open = FALSE;

  01c54	e59d3018	 ldr         r3, [sp, #0x18]
  01c58	e2832054	 add         r2, r3, #0x54
  01c5c	e3a03000	 mov         r3, #0
  01c60	e5823000	 str         r3, [r2]

; 1907 :     SetDefaultDCB(pPdd);

  01c64	e59d0018	 ldr         r0, [sp, #0x18]
  01c68	eb000000	 bl          SetDefaultDCB

; 1908 : 
; 1909 :     // Initialize device power state
; 1910 :     pPdd->externalDX = D0;

  01c6c	e59d3018	 ldr         r3, [sp, #0x18]
  01c70	e2832034	 add         r2, r3, #0x34
  01c74	e3a03000	 mov         r3, #0
  01c78	e5823000	 str         r3, [r2]

; 1911 :     pPdd->currentDX = D4;

  01c7c	e59d3018	 ldr         r3, [sp, #0x18]
  01c80	e2832030	 add         r2, r3, #0x30
  01c84	e3a03004	 mov         r3, #4
  01c88	e5823000	 str         r3, [r2]

; 1912 :     SetPower(pPdd, D0);

  01c8c	e3a01000	 mov         r1, #0
  01c90	e59d0018	 ldr         r0, [sp, #0x18]
  01c94	eb000000	 bl          SetPower

; 1913 : 
; 1914 :     EnterCriticalSection(&pPdd->hwCS);

  01c98	e59d3018	 ldr         r3, [sp, #0x18]
  01c9c	e2830098	 add         r0, r3, #0x98
  01ca0	eb000000	 bl          EnterCriticalSection

; 1915 : 
; 1916 :     pPdd->bRxDMASignaled = 0;

  01ca4	e59d3018	 ldr         r3, [sp, #0x18]
  01ca8	e2832f51	 add         r2, r3, #0x51, 30
  01cac	e3a03000	 mov         r3, #0
  01cb0	e5823000	 str         r3, [r2]

; 1917 :     pPdd->bRxWrapped     = FALSE;

  01cb4	e59d3018	 ldr         r3, [sp, #0x18]
  01cb8	e2832f52	 add         r2, r3, #0x52, 30
  01cbc	e3a03000	 mov         r3, #0
  01cc0	e5823000	 str         r3, [r2]

; 1918 :     pPdd->pRxDMALastWrite = 0;

  01cc4	e59d3018	 ldr         r3, [sp, #0x18]
  01cc8	e2832f53	 add         r2, r3, #0x53, 30
  01ccc	e3a03000	 mov         r3, #0
  01cd0	e5823000	 str         r3, [r2]

; 1919 :     pPdd->bDmaInitialize = FALSE;

  01cd4	e59d3018	 ldr         r3, [sp, #0x18]
  01cd8	e2832e15	 add         r2, r3, #0x15, 28
  01cdc	e3a03000	 mov         r3, #0
  01ce0	e5823000	 str         r3, [r2]

; 1920 : 
; 1921 :     InitializeUART(pPdd);

  01ce4	e59d0018	 ldr         r0, [sp, #0x18]
  01ce8	eb000000	 bl          InitializeUART

; 1922 : 
; 1923 :     LeaveCriticalSection(&pPdd->hwCS);

  01cec	e59d3018	 ldr         r3, [sp, #0x18]
  01cf0	e2830098	 add         r0, r3, #0x98
  01cf4	eb000000	 bl          LeaveCriticalSection

; 1924 : 
; 1925 :     // Set device to D3
; 1926 :     pPdd->externalDX = D3;

  01cf8	e59d3018	 ldr         r3, [sp, #0x18]
  01cfc	e2832034	 add         r2, r3, #0x34
  01d00	e3a03003	 mov         r3, #3
  01d04	e5823000	 str         r3, [r2]

; 1927 :     SetPower(pPdd, D3);

  01d08	e3a01003	 mov         r1, #3
  01d0c	e59d0018	 ldr         r0, [sp, #0x18]
  01d10	eb000000	 bl          SetPower

; 1928 : 
; 1929 :     // Save MDD context for callback
; 1930 :     pPdd->pMdd = pMdd;

  01d14	e59d3018	 ldr         r3, [sp, #0x18]
  01d18	e2832050	 add         r2, r3, #0x50
  01d1c	e59d3108	 ldr         r3, [sp, #0x108]
  01d20	e5823000	 str         r3, [r2]

; 1931 : 
; 1932 :     // Initialization succeeded
; 1933 :     rc = TRUE;

  01d24	e3a03001	 mov         r3, #1
  01d28	e58d3008	 str         r3, [sp, #8]

; 1934 :     DEBUGMSG(ZONE_INIT, (L"HWInit: Initialization succeeded\r\n"));

  01d2c	e59f30b0	 ldr         r3, [pc, #0xB0]
  01d30	e5933440	 ldr         r3, [r3, #0x440]
  01d34	e3130001	 tst         r3, #1
  01d38	0a000004	 beq         |$LN78@HWInit|
  01d3c	e59f00a8	 ldr         r0, [pc, #0xA8]
  01d40	eb000000	 bl          NKDbgPrintfW
  01d44	e3a03001	 mov         r3, #1
  01d48	e58d30f4	 str         r3, [sp, #0xF4]
  01d4c	ea000001	 b           |$LN79@HWInit|
  01d50		 |$LN78@HWInit|
  01d50	e3a03000	 mov         r3, #0
  01d54	e58d30f4	 str         r3, [sp, #0xF4]
  01d58		 |$LN79@HWInit|
  01d58		 |$cleanUp$45342|

; 1935 : 
; 1936 : cleanUp:
; 1937 :     if (!rc && (pPdd != NULL))

  01d58	e59d3008	 ldr         r3, [sp, #8]
  01d5c	e3530000	 cmp         r3, #0
  01d60	1a000008	 bne         |$LN1@HWInit|
  01d64	e59d3018	 ldr         r3, [sp, #0x18]
  01d68	e3530000	 cmp         r3, #0
  01d6c	0a000005	 beq         |$LN1@HWInit|

; 1938 :     {
; 1939 :         RETAILMSG(1,(TEXT("HWInit Failed!! Calling HWDeinit\r\n")));

  01d70	e59f0070	 ldr         r0, [pc, #0x70]
  01d74	eb000000	 bl          NKDbgPrintfW

; 1940 :         HWDeinit(pPdd);

  01d78	e59d0018	 ldr         r0, [sp, #0x18]
  01d7c	eb000000	 bl          HWDeinit

; 1941 :         pPdd = NULL;

  01d80	e3a03000	 mov         r3, #0
  01d84	e58d3018	 str         r3, [sp, #0x18]
  01d88		 |$LN1@HWInit|

; 1942 :     }
; 1943 :     DEBUGMSG(ZONE_OPEN||ZONE_FUNCTION, (L"-HWInit(pPdd = 0x%08x)\r\n", pPdd));

  01d88	e59f3054	 ldr         r3, [pc, #0x54]
  01d8c	e5933440	 ldr         r3, [r3, #0x440]
  01d90	e3130002	 tst         r3, #2
  01d94	1a000006	 bne         |$LN80@HWInit|
  01d98	e59f3044	 ldr         r3, [pc, #0x44]
  01d9c	e5933440	 ldr         r3, [r3, #0x440]
  01da0	e3130a02	 tst         r3, #2, 20
  01da4	1a000002	 bne         |$LN80@HWInit|
  01da8	e3a03000	 mov         r3, #0
  01dac	e58d30f8	 str         r3, [sp, #0xF8]
  01db0	ea000004	 b           |$LN81@HWInit|
  01db4		 |$LN80@HWInit|
  01db4	e59d1018	 ldr         r1, [sp, #0x18]
  01db8	e59f0020	 ldr         r0, [pc, #0x20]
  01dbc	eb000000	 bl          NKDbgPrintfW
  01dc0	e3a03001	 mov         r3, #1
  01dc4	e58d30f8	 str         r3, [sp, #0xF8]
  01dc8		 |$LN81@HWInit|

; 1944 : 
; 1945 :     return pPdd;

  01dc8	e59d3018	 ldr         r3, [sp, #0x18]
  01dcc	e58d3034	 str         r3, [sp, #0x34]

; 1946 : }

  01dd0	e59d0034	 ldr         r0, [sp, #0x34]
  01dd4	e28dd0fc	 add         sp, sp, #0xFC
  01dd8	e89d6000	 ldmia       sp, {sp, lr}
  01ddc	e12fff1e	 bx          lr
  01de0		 |$LN85@HWInit|
  01de0		 |$LN86@HWInit|
  01de0	00000000	 DCD         |??_C@_1DC@JGFCNLHE@?$AA?9?$AAH?$AAW?$AAI?$AAn?$AAi?$AAt?$AA?$CI?$AAp?$AAP?$AAd?$AAd?$AA?5?$AA?$DN?$AA?5?$AA0?$AAx?$AA?$CF?$AA0?$AA8?$AAx?$AA?$CJ?$AA?$AN?$AA?6?$AA?$AA@|
  01de4		 |$LN87@HWInit|
  01de4	00000000	 DCD         |dpCurSettings|
  01de8		 |$LN88@HWInit|
  01de8	00000000	 DCD         |??_C@_1EG@OEGIILDN@?$AAH?$AAW?$AAI?$AAn?$AAi?$AAt?$AA?5?$AAF?$AAa?$AAi?$AAl?$AAe?$AAd?$AA?$CB?$AA?$CB?$AA?5?$AAC?$AAa?$AAl?$AAl?$AAi?$AAn?$AAg?$AA?5?$AAH?$AAW?$AAD?$AAe?$AAi?$AAn?$AAi?$AAt@|
  01dec		 |$LN89@HWInit|
  01dec	00000000	 DCD         |??_C@_1EG@ICLGMIEH@?$AAH?$AAW?$AAI?$AAn?$AAi?$AAt?$AA?3?$AA?5?$AAI?$AAn?$AAi?$AAt?$AAi?$AAa?$AAl?$AAi?$AAz?$AAa?$AAt?$AAi?$AAo?$AAn?$AA?5?$AAs?$AAu?$AAc?$AAc?$AAe?$AAe?$AAd?$AAe?$AAd@|
  01df0		 |$LN90@HWInit|
  01df0	00000000	 DCD         |??_C@_1EK@FHJCOLEM@?$AAE?$AAR?$AAR?$AAO?$AAR?$AA?3?$AA?5?$AAH?$AAW?$AAI?$AAn?$AAi?$AAt?$AA?3?$AA?5?$AAF?$AAa?$AAi?$AAl?$AAe?$AAd?$AA?5?$AAc?$AAr?$AAe?$AAa?$AAt?$AAe?$AA?5?$AAe?$AAv?$AAe@|
  01df4		 |$LN91@HWInit|
  01df4	00000000	 DCD         |??_C@_1GE@PPGCIJJA@?$AAE?$AAR?$AAR?$AAO?$AAR?$AA?3?$AA?5?$AAH?$AAW?$AAI?$AAn?$AAi?$AAt?$AA?3?$AA?5?$AAF?$AAa?$AAi?$AAl?$AAe?$AAd?$AA?5?$AAo?$AAb?$AAt?$AAa?$AAi?$AAn?$AA?5?$AAS?$AAY?$AAS@|
  01df8		 |$LN92@HWInit|
  01df8	01010098	 DCD         0x1010098
  01dfc		 |$LN93@HWInit|
  01dfc	00000000	 DCD         |??_C@_1GA@FAAEJOHA@?$AAE?$AAR?$AAR?$AAO?$AAR?$AA?3?$AA?5?$AAH?$AAW?$AAI?$AAn?$AAi?$AAt?$AA?3?$AA?5?$AAF?$AAa?$AAi?$AAl?$AAe?$AAd?$AA?5?$AAt?$AAo?$AA?5?$AAc?$AAr?$AAe?$AAa?$AAt?$AAe?$AA?5@|
  01e00		 |$LN94@HWInit|
  01e00	00000000	 DCD         |IST_RxDMA|
  01e04		 |$LN95@HWInit|
  01e04	00000000	 DCD         |??_C@_1EE@FMEIFNEG@?$AAO?$AAM?$AAA?$AAP?$AA3?$AA5?$AAX?$AAX?$AA?5?$AAR?$AAX?$AA?5?$AAD?$AAM?$AAA?$AA?5?$AAb?$AAu?$AAf?$AAf?$AAe?$AAr?$AA?5?$AAa?$AAl?$AAl?$AAo?$AAc?$AAa?$AAt?$AAe?$AAd@|
  01e08		 |$LN96@HWInit|
  01e08	00000000	 DCD         |??_C@_1HK@BBLDLPBP@?$AAE?$AAR?$AAR?$AAO?$AAR?$AA?3?$AA?5?$AAH?$AAW?$AAI?$AAn?$AAi?$AAt?$AA?3?$AA?5?$AAF?$AAa?$AAi?$AAl?$AAe?$AAd?$AA?5?$AAa?$AAl?$AAl?$AAo?$AAc?$AAa?$AAt?$AAi?$AAn?$AAg@|
  01e0c		 |$LN97@HWInit|
  01e0c	00000000	 DCD         |??_C@_1MA@JDGKAMEC@?$AAH?$AAW?$AAI?$AAn?$AAi?$AAt?$AA?3?$AA?5?$AAR?$AAx?$AAF?$AAi?$AAf?$AAo?$AAT?$AAr?$AAi?$AAg?$AAg?$AAe?$AAr?$AAL?$AAe?$AAv?$AAe?$AAl?$AA?5?$AAm?$AAu?$AAs?$AAt?$AA?5@|
  01e10		 |$LN98@HWInit|
  01e10	00000000	 DCD         |??_C@_1HG@BHIHOLB@?$AAE?$AAR?$AAR?$AAO?$AAR?$AA?3?$AA?5?$AAH?$AAW?$AAI?$AAn?$AAi?$AAt?$AA?3?$AA?5?$AAR?$AAx?$AAD?$AAm?$AAa?$AAB?$AAu?$AAf?$AAf?$AAe?$AAr?$AAS?$AAi?$AAz?$AAe?$AA?5?$AAm@|
  01e14		 |$LN99@HWInit|
  01e14	00000000	 DCD         |??_C@_1FG@KHBPHCHG@?$AAE?$AAR?$AAR?$AAO?$AAR?$AA?3?$AA?5?$AAH?$AAW?$AAI?$AAn?$AAi?$AAt?$AA?3?$AA?5?$AAC?$AAa?$AAn?$AAn?$AAo?$AAt?$AA?5?$AAa?$AAl?$AAl?$AAo?$AAc?$AAa?$AAt?$AAe?$AA?5?$AAD@|
  01e18		 |$LN100@HWInit|
  01e18	00000000	 DCD         |??_C@_1DE@CGCFDINI@?$AAH?$AAW?$AAI?$AAn?$AAi?$AAt?$AA?3?$AA?5?$AAR?$AAx?$AAD?$AAm?$AAa?$AAR?$AAe?$AAq?$AAu?$AAe?$AAs?$AAt?$AA?$DN?$AA?5?$AA?$CF?$AAd?$AA?6?$AA?$AA@|
  01e1c		 |$LN101@HWInit|
  01e1c	00000000	 DCD         |??_C@_1EC@EEIOMCNH@?$AAO?$AAM?$AAA?$AAP?$AA3?$AA5?$AAX?$AAX?$AA?5?$AAT?$AAX?$AA?5?$AAD?$AAM?$AAA?$AA?5?$AAi?$AAn?$AAi?$AAt?$AA?5?$AAc?$AAo?$AAm?$AAp?$AAl?$AAe?$AAt?$AAe?$AAd?$AA?$AN?$AA?6@|
  01e20		 |$LN102@HWInit|
  01e20	00000000	 DCD         |??_C@_1FE@MELLBIFK@?$AAE?$AAR?$AAR?$AAO?$AAR?$AA?3?$AAF?$AAa?$AAi?$AAl?$AAe?$AAd?$AA?5?$AAt?$AAo?$AA?5?$AAe?$AAn?$AAa?$AAb?$AAl?$AAe?$AA?5?$AAD?$AAM?$AAA?$AA?5?$AAT?$AAX?$AA?5?$AAi?$AAn@|
  01e24		 |$LN103@HWInit|
  01e24	00000000	 DCD         |??_C@_1EG@GOJKEHDB@?$AAO?$AAM?$AAA?$AAP?$AA3?$AA5?$AAX?$AAX?$AA?5?$AAT?$AAX?$AA?5?$AAD?$AAM?$AAA?$AA?5?$AAb?$AAu?$AAf?$AAf?$AAe?$AAr?$AA?5?$AAa?$AAl?$AAl?$AAo?$AAc?$AAa?$AAt?$AAe?$AAd@|
  01e28		 |$LN104@HWInit|
  01e28	00000000	 DCD         |??_C@_1GO@JHKBGJGP@?$AAE?$AAR?$AAR?$AAO?$AAR?$AA?3?$AA?5?$AAH?$AAW?$AAI?$AAn?$AAi?$AAt?$AA?3?$AA?5?$AAF?$AAa?$AAi?$AAl?$AAe?$AAd?$AA?5?$AAa?$AAl?$AAl?$AAo?$AAc?$AAa?$AAt?$AAi?$AAn?$AAg@|
  01e2c		 |$LN105@HWInit|
  01e2c	00000000	 DCD         |??_C@_1HG@CKJGMIKG@?$AAE?$AAR?$AAR?$AAO?$AAR?$AA?3?$AA?5?$AAH?$AAW?$AAI?$AAn?$AAi?$AAt?$AA?3?$AA?5?$AAT?$AAx?$AAD?$AAm?$AAa?$AAB?$AAu?$AAf?$AAf?$AAe?$AAr?$AAS?$AAi?$AAz?$AAe?$AA?5?$AAm@|
  01e30		 |$LN106@HWInit|
  01e30	00000000	 DCD         |??_C@_1FG@KKABACDB@?$AAE?$AAR?$AAR?$AAO?$AAR?$AA?3?$AA?5?$AAH?$AAW?$AAI?$AAn?$AAi?$AAt?$AA?3?$AA?5?$AAC?$AAa?$AAn?$AAn?$AAo?$AAt?$AA?5?$AAa?$AAl?$AAl?$AAo?$AAc?$AAa?$AAt?$AAe?$AA?5?$AAD@|
  01e34		 |$LN107@HWInit|
  01e34	00000000	 DCD         |??_C@_1DE@PLCFDKBA@?$AAO?$AAM?$AAA?$AAP?$AA3?$AA5?$AAX?$AAX?$AA?5?$AAT?$AAX?$AA?5?$AAD?$AAM?$AAA?$AA?5?$AAe?$AAn?$AAa?$AAb?$AAl?$AAe?$AAd?$AA?$AN?$AA?6?$AA?$AA@|
  01e38		 |$LN108@HWInit|
  01e38	00000000	 DCD         |??_C@_1DE@OPOFMPCE@?$AAH?$AAW?$AAI?$AAn?$AAi?$AAt?$AA?3?$AA?5?$AAT?$AAx?$AAD?$AAm?$AAa?$AAR?$AAe?$AAq?$AAu?$AAe?$AAs?$AAt?$AA?$DN?$AA?5?$AA?$CF?$AAd?$AA?6?$AA?$AA@|
  01e3c		 |$LN109@HWInit|
  01e3c	00000000	 DCD         |??_C@_1FK@EBCJFPMH@?$AAE?$AAR?$AAR?$AAO?$AAR?$AA?3?$AA?5?$AAH?$AAW?$AAI?$AAn?$AAi?$AAt?$AA?3?$AA?5?$AAF?$AAa?$AAi?$AAl?$AAe?$AAd?$AA?5?$AAt?$AAo?$AA?5?$AAo?$AAp?$AAe?$AAn?$AA?5?$AAg?$AAp@|
  01e40		 |$LN110@HWInit|
  01e40	00000000	 DCD         |??_C@_1GM@KEAJOIJP@?$AAH?$AAW?$AAI?$AAn?$AAi?$AAt?$AA?3?$AA?5?$AAE?$AAx?$AAt?$AAe?$AAr?$AAn?$AAa?$AAl?$AA?5?$AAt?$AAr?$AAa?$AAn?$AAs?$AAc?$AAe?$AAi?$AAv?$AAe?$AAr?$AA?5?$AAc?$AAo?$AAn@|
  01e44		 |$LN111@HWInit|
  01e44	00000000	 DCD         |??_C@_1GG@EBBCDMFK@?$AAE?$AAR?$AAR?$AAO?$AAR?$AA?3?$AA?5?$AAH?$AAW?$AAI?$AAn?$AAi?$AAt?$AA?3?$AA?5?$AAF?$AAa?$AAi?$AAl?$AAe?$AAd?$AA?5?$AAm?$AAa?$AAp?$AA?5?$AAp?$AAh?$AAy?$AAs?$AAi?$AAc@|
  01e48		 |$LN112@HWInit|
  01e48	00000000	 DCD         |??_C@_1DM@CGNHFLML@?$AAH?$AAW?$AAI?$AAn?$AAi?$AAt?$AA?3?$AA?5?$AAM?$AAm?$AAM?$AAa?$AAp?$AAI?$AAo?$AAS?$AAp?$AAa?$AAc?$AAe?$AA?3?$AA?5?$AA0?$AAx?$AA?$CF?$AA0?$AA8?$AAx?$AA?6?$AA?$AA@|
  01e4c		 |$LN113@HWInit|
  01e4c	00000000	 DCD         |??_C@_1FA@IMOKAIMA@?$AAE?$AAR?$AAR?$AAO?$AAR?$AA?3?$AA?5?$AAH?$AAW?$AAI?$AAn?$AAi?$AAt?$AA?3?$AA?5?$AAF?$AAa?$AAi?$AAl?$AAe?$AAd?$AA?5?$AAt?$AAo?$AA?5?$AAr?$AAe?$AAq?$AAu?$AAe?$AAs?$AAt@|
  01e50		 |$LN114@HWInit|
  01e50	00000000	 DCD         |??_C@_1IE@GEGDCGKO@?$AAE?$AAR?$AAR?$AAO?$AAR?$AA?3?$AA?5?$AAH?$AAW?$AAI?$AAn?$AAi?$AAt?$AA?3?$AA?5?$AAF?$AAa?$AAi?$AAl?$AAe?$AAd?$AA?5?$AAt?$AAo?$AA?5?$AAr?$AAe?$AAt?$AAr?$AAi?$AAe?$AAv@|
  01e54		 |$LN115@HWInit|
  01e54	00000000	 DCD         |??_C@_1FO@HLLDLLCK@?$AAE?$AAR?$AAR?$AAO?$AAR?$AA?3?$AA?5?$AAH?$AAW?$AAI?$AAn?$AAi?$AAt?$AA?3?$AA?5?$AAF?$AAa?$AAi?$AAl?$AAe?$AAd?$AA?5?$AAo?$AAp?$AAe?$AAn?$AA?5?$AAp?$AAa?$AAr?$AAe?$AAn@|
  01e58		 |$LN116@HWInit|
  01e58	00000000	 DCD         |??_C@_1HA@GDAKBEMI@?$AAE?$AAR?$AAR?$AAO?$AAR?$AA?3?$AA?5?$AAH?$AAW?$AAI?$AAn?$AAi?$AAt?$AA?3?$AA?5?$AAF?$AAa?$AAi?$AAl?$AAe?$AAd?$AA?5?$AAr?$AAe?$AAa?$AAd?$AA?5?$AAd?$AAr?$AAi?$AAv?$AAe@|
  01e5c		 |$LN117@HWInit|
  01e5c	00000000	 DCD         |s_deviceRegParams|
  01e60		 |$LN118@HWInit|
  01e60	00000000	 DCD         |??_C@_1DK@GEEEGFBF@?$AA?$CL?$AAH?$AAW?$AAI?$AAn?$AAi?$AAt?$AA?$CI?$AA?$CF?$AAs?$AA?0?$AA?5?$AA0?$AAx?$AA?$CF?$AA0?$AA8?$AAx?$AA?0?$AA?5?$AA0?$AAx?$AA?$CF?$AA0?$AA8?$AAx?$AA?$AN?$AA?6?$AA?$AA@|
  01e64		 |$M46833|

			 ENDP  ; |HWInit|


  00040			 AREA	 |.pdata|, PDATA
|$T46874| DCD	|$LN5@SetDefault|
	DCD	0x40005203
; Function compile flags: /Odtp

  01e64			 AREA	 |.text|, CODE, ARM

  01e64		 |SetDefaultDCB| PROC

; 502  : {

  01e64		 |$LN5@SetDefault|
  01e64	e1a0c00d	 mov         r12, sp
  01e68	e92d0001	 stmdb       sp!, {r0}
  01e6c	e92d5000	 stmdb       sp!, {r12, lr}
  01e70		 |$M46871|

; 503  : 
; 504  :     // Initialize Default DCB
; 505  :     pPdd->dcb.DCBlength = sizeof(pPdd->dcb);

  01e70	e59d3008	 ldr         r3, [sp, #8]
  01e74	e2832058	 add         r2, r3, #0x58
  01e78	e3a0301c	 mov         r3, #0x1C
  01e7c	e5823000	 str         r3, [r2]

; 506  :     pPdd->dcb.BaudRate = 9600;

  01e80	e59d3008	 ldr         r3, [sp, #8]
  01e84	e283205c	 add         r2, r3, #0x5C
  01e88	e3a03d96	 mov         r3, #0x96, 26
  01e8c	e5823000	 str         r3, [r2]

; 507  :     pPdd->dcb.fBinary = TRUE;

  01e90	e59d3008	 ldr         r3, [sp, #8]
  01e94	e2833060	 add         r3, r3, #0x60
  01e98	e5933000	 ldr         r3, [r3]
  01e9c	e3832001	 orr         r2, r3, #1
  01ea0	e59d3008	 ldr         r3, [sp, #8]
  01ea4	e2833060	 add         r3, r3, #0x60
  01ea8	e5832000	 str         r2, [r3]

; 508  :     pPdd->dcb.fParity = FALSE;

  01eac	e59d3008	 ldr         r3, [sp, #8]
  01eb0	e2833060	 add         r3, r3, #0x60
  01eb4	e5932000	 ldr         r2, [r3]
  01eb8	e3e03002	 mvn         r3, #2
  01ebc	e0022003	 and         r2, r2, r3
  01ec0	e59d3008	 ldr         r3, [sp, #8]
  01ec4	e2833060	 add         r3, r3, #0x60
  01ec8	e5832000	 str         r2, [r3]

; 509  :     pPdd->dcb.fOutxCtsFlow = FALSE;

  01ecc	e59d3008	 ldr         r3, [sp, #8]
  01ed0	e2833060	 add         r3, r3, #0x60
  01ed4	e5932000	 ldr         r2, [r3]
  01ed8	e3e03004	 mvn         r3, #4
  01edc	e0022003	 and         r2, r2, r3
  01ee0	e59d3008	 ldr         r3, [sp, #8]
  01ee4	e2833060	 add         r3, r3, #0x60
  01ee8	e5832000	 str         r2, [r3]

; 510  :     pPdd->dcb.fOutxDsrFlow = FALSE;

  01eec	e59d3008	 ldr         r3, [sp, #8]
  01ef0	e2833060	 add         r3, r3, #0x60
  01ef4	e5932000	 ldr         r2, [r3]
  01ef8	e3e03008	 mvn         r3, #8
  01efc	e0022003	 and         r2, r2, r3
  01f00	e59d3008	 ldr         r3, [sp, #8]
  01f04	e2833060	 add         r3, r3, #0x60
  01f08	e5832000	 str         r2, [r3]

; 511  :     pPdd->dcb.fDtrControl = DTR_CONTROL_ENABLE;

  01f0c	e59d3008	 ldr         r3, [sp, #8]
  01f10	e2833060	 add         r3, r3, #0x60
  01f14	e5932000	 ldr         r2, [r3]
  01f18	e3e03030	 mvn         r3, #0x30
  01f1c	e0023003	 and         r3, r2, r3
  01f20	e3832010	 orr         r2, r3, #0x10
  01f24	e59d3008	 ldr         r3, [sp, #8]
  01f28	e2833060	 add         r3, r3, #0x60
  01f2c	e5832000	 str         r2, [r3]

; 512  :     pPdd->dcb.fDsrSensitivity = FALSE;

  01f30	e59d3008	 ldr         r3, [sp, #8]
  01f34	e2833060	 add         r3, r3, #0x60
  01f38	e5932000	 ldr         r2, [r3]
  01f3c	e3e03040	 mvn         r3, #0x40
  01f40	e0022003	 and         r2, r2, r3
  01f44	e59d3008	 ldr         r3, [sp, #8]
  01f48	e2833060	 add         r3, r3, #0x60
  01f4c	e5832000	 str         r2, [r3]

; 513  :     pPdd->dcb.fRtsControl = RTS_CONTROL_ENABLE;

  01f50	e59d3008	 ldr         r3, [sp, #8]
  01f54	e2833060	 add         r3, r3, #0x60
  01f58	e5932000	 ldr         r2, [r3]
  01f5c	e3e03a03	 mvn         r3, #3, 20
  01f60	e0023003	 and         r3, r2, r3
  01f64	e3832a01	 orr         r2, r3, #1, 20
  01f68	e59d3008	 ldr         r3, [sp, #8]
  01f6c	e2833060	 add         r3, r3, #0x60
  01f70	e5832000	 str         r2, [r3]

; 514  :     pPdd->dcb.ByteSize = 8;

  01f74	e59d3008	 ldr         r3, [sp, #8]
  01f78	e283206a	 add         r2, r3, #0x6A
  01f7c	e3a03008	 mov         r3, #8
  01f80	e5c23000	 strb        r3, [r2]

; 515  :     pPdd->dcb.Parity = 0;

  01f84	e59d3008	 ldr         r3, [sp, #8]
  01f88	e283206b	 add         r2, r3, #0x6B
  01f8c	e3a03000	 mov         r3, #0
  01f90	e5c23000	 strb        r3, [r2]

; 516  :     pPdd->dcb.StopBits = 1;

  01f94	e59d3008	 ldr         r3, [sp, #8]
  01f98	e283206c	 add         r2, r3, #0x6C
  01f9c	e3a03001	 mov         r3, #1
  01fa0	e5c23000	 strb        r3, [r2]

; 517  : 
; 518  : }

  01fa4	e89d6000	 ldmia       sp, {sp, lr}
  01fa8	e12fff1e	 bx          lr
  01fac		 |$M46872|

			 ENDP  ; |SetDefaultDCB|


  00048			 AREA	 |.pdata|, PDATA
|$T46879| DCD	|$LN13@Initialize|
	DCD	0x4000d404
; Function compile flags: /Odtp

  01fac			 AREA	 |.text|, CODE, ARM

  01fac		 |InitializeUART| PROC

; 1275 : {

  01fac		 |$LN13@Initialize|
  01fac	e1a0c00d	 mov         r12, sp
  01fb0	e92d0001	 stmdb       sp!, {r0}
  01fb4	e92d5000	 stmdb       sp!, {r12, lr}
  01fb8	e24dd008	 sub         sp, sp, #8
  01fbc		 |$M46876|

; 1276 :     OMAP_UART_REGS *pUartRegs = pPdd->pUartRegs;

  01fbc	e59d3010	 ldr         r3, [sp, #0x10]
  01fc0	e2833024	 add         r3, r3, #0x24
  01fc4	e5933000	 ldr         r3, [r3]
  01fc8	e58d3000	 str         r3, [sp]

; 1277 : 
; 1278 :     // Reset UART & wait until it completes
; 1279 :     OUTREG8(&pUartRegs->SYSC, UART_SYSC_RST);

  01fcc	e59d3000	 ldr         r3, [sp]
  01fd0	e2832054	 add         r2, r3, #0x54
  01fd4	e3a03002	 mov         r3, #2
  01fd8	e5c23000	 strb        r3, [r2]
  01fdc		 |$LN8@Initialize|

; 1280 :     while ((INREG8(&pUartRegs->SYSS) & UART_SYSS_RST_DONE) == 0);

  01fdc	e59d3000	 ldr         r3, [sp]
  01fe0	e2833058	 add         r3, r3, #0x58
  01fe4	e5d33000	 ldrb        r3, [r3]
  01fe8	e3130001	 tst         r3, #1
  01fec	1a000000	 bne         |$LN7@Initialize|
  01ff0	eafffff9	 b           |$LN8@Initialize|
  01ff4		 |$LN7@Initialize|

; 1281 : 
; 1282 :     // Enable wakeup
; 1283 :     // REG: turning off Auto Idle and turning on Smart Idle
; 1284 :     OUTREG8(
; 1285 :     &pUartRegs->SYSC,
; 1286 :     // Try turn on force idle, smart idle or turn on no idle
; 1287 :     // Lets configure force idle here we will change this in HWopen.
; 1288 :     UART_SYSC_IDLE_FORCE|UART_SYSC_WAKEUP_ENABLE|UART_SYSC_AUTOIDLE
; 1289 :     );

  01ff4	e59d3000	 ldr         r3, [sp]
  01ff8	e2832054	 add         r2, r3, #0x54
  01ffc	e3a03005	 mov         r3, #5
  02000	e5c23000	 strb        r3, [r2]

; 1290 : 
; 1291 :     // Ensure baud rate generator is off
; 1292 :     OUTREG8(&pUartRegs->LCR, UART_LCR_DLAB);

  02004	e59d3000	 ldr         r3, [sp]
  02008	e283200c	 add         r2, r3, #0xC
  0200c	e3a03080	 mov         r3, #0x80
  02010	e5c23000	 strb        r3, [r2]

; 1293 :     OUTREG8(&pUartRegs->DLL, 0);

  02014	e59d2000	 ldr         r2, [sp]
  02018	e3a03000	 mov         r3, #0
  0201c	e5c23000	 strb        r3, [r2]

; 1294 :     OUTREG8(&pUartRegs->DLH, 0);

  02020	e59d3000	 ldr         r3, [sp]
  02024	e2832004	 add         r2, r3, #4
  02028	e3a03000	 mov         r3, #0
  0202c	e5c23000	 strb        r3, [r2]

; 1295 : 
; 1296 :     // Select UART mode
; 1297 :     OUTREG8(&pUartRegs->MDR1, UART_MDR1_UART16);

  02030	e59d3000	 ldr         r3, [sp]
  02034	e2832020	 add         r2, r3, #0x20
  02038	e3a03000	 mov         r3, #0
  0203c	e5c23000	 strb        r3, [r2]

; 1298 : 
; 1299 : 
; 1300 :     // Line control: configuration mode B
; 1301 :     OUTREG8(&pUartRegs->LCR, UART_LCR_MODE_CONFIG_B);

  02040	e59d3000	 ldr         r3, [sp]
  02044	e283200c	 add         r2, r3, #0xC
  02048	e3a030bf	 mov         r3, #0xBF
  0204c	e5c23000	 strb        r3, [r2]

; 1302 :     // Enable access to IER bits 4-7, FCR bits 4-5 and MCR bits 5-7
; 1303 :     SETREG8(&pUartRegs->EFR, UART_EFR_ENHANCED_EN);

  02050	e59d3000	 ldr         r3, [sp]
  02054	e2833008	 add         r3, r3, #8
  02058	e5d33000	 ldrb        r3, [r3]
  0205c	e3833010	 orr         r3, r3, #0x10
  02060	e20320ff	 and         r2, r3, #0xFF
  02064	e59d3000	 ldr         r3, [sp]
  02068	e2833008	 add         r3, r3, #8
  0206c	e5c32000	 strb        r2, [r3]

; 1304 : 
; 1305 :     // Line control: operational mode
; 1306 :     OUTREG8(&pUartRegs->LCR, UART_LCR_MODE_OPERATIONAL);

  02070	e59d3000	 ldr         r3, [sp]
  02074	e283200c	 add         r2, r3, #0xC
  02078	e3a03000	 mov         r3, #0
  0207c	e5c23000	 strb        r3, [r2]

; 1307 : 
; 1308 :     // Enable sleep mode
; 1309 :     // Do not enable sleep mode hardware flow control will have problem
; 1310 :    // OUTREG8(&pUartRegs->IER, UART_IER_SLEEP_MODE);
; 1311 : 
; 1312 :     // Enable access to TCR and TLR
; 1313 :     SETREG8(&pUartRegs->MCR, UART_MCR_TCR_TLR);

  02080	e59d3000	 ldr         r3, [sp]
  02084	e2833010	 add         r3, r3, #0x10
  02088	e5d33000	 ldrb        r3, [r3]
  0208c	e3833040	 orr         r3, r3, #0x40
  02090	e20320ff	 and         r2, r3, #0xFF
  02094	e59d3000	 ldr         r3, [sp]
  02098	e2833010	 add         r3, r3, #0x10
  0209c	e5c32000	 strb        r2, [r3]

; 1314 :     // Start receive when 32 bytes in FIFO, halt when 60 byte in FIFO
; 1315 :     OUTREG8(
; 1316 :         &pUartRegs->TCR,
; 1317 :         UART_TCR_RX_FIFO_TRIG_START_24|UART_TCR_RX_FIFO_TRIG_HALT_40
; 1318 :         );

  020a0	e59d3000	 ldr         r3, [sp]
  020a4	e2832018	 add         r2, r3, #0x18
  020a8	e3a0306a	 mov         r3, #0x6A
  020ac	e5c23000	 strb        r3, [r2]

; 1319 : 
; 1320 :     // This will create a space of 60 bytes in the FIFO for TX
; 1321 :     // Later we set FCR[4:5] so that the space is 63 bytes
; 1322 :     // we adjusted the TX DMA frame size to be 63 so we don't overrun our fifo
; 1323 :     if(pPdd->RxDmaInfo)

  020b0	e59d3010	 ldr         r3, [sp, #0x10]
  020b4	e2833f49	 add         r3, r3, #0x49, 30
  020b8	e5933000	 ldr         r3, [r3]
  020bc	e3530000	 cmp         r3, #0
  020c0	0a00000b	 beq         |$LN6@Initialize|

; 1324 :     {
; 1325 :         // if RxDMA is enabled, set up the MSBs of RX_FIFO_TRIG according
; 1326 :         // to the value in pPdd->dwRxFifoTriggerLevel
; 1327 :         BYTE    bRxTrigDMA = (BYTE)((pPdd->dwRxFifoTriggerLevel >> 2) << 4);

  020c4	e59d3010	 ldr         r3, [sp, #0x10]
  020c8	e2833f55	 add         r3, r3, #0x55, 30
  020cc	e5933000	 ldr         r3, [r3]
  020d0	e1a03123	 mov         r3, r3, lsr #2
  020d4	e1a03203	 mov         r3, r3, lsl #4
  020d8	e20330ff	 and         r3, r3, #0xFF
  020dc	e5cd3004	 strb        r3, [sp, #4]

; 1328 : 
; 1329 :         OUTREG8(&pUartRegs->TLR, UART_TLR_TX_FIFO_TRIG_DMA_0 | bRxTrigDMA);

  020e0	e59d3000	 ldr         r3, [sp]
  020e4	e283201c	 add         r2, r3, #0x1C
  020e8	e5dd3004	 ldrb        r3, [sp, #4]
  020ec	e5c23000	 strb        r3, [r2]

; 1330 :     }
; 1331 :     else

  020f0	ea000003	 b           |$LN5@Initialize|
  020f4		 |$LN6@Initialize|

; 1332 :     {
; 1333 :         OUTREG8(&pUartRegs->TLR, UART_TLR_TX_FIFO_TRIG_DMA_0);

  020f4	e59d3000	 ldr         r3, [sp]
  020f8	e283201c	 add         r2, r3, #0x1C
  020fc	e3a03000	 mov         r3, #0
  02100	e5c23000	 strb        r3, [r2]
  02104		 |$LN5@Initialize|

; 1334 :     }
; 1335 : 
; 1336 :     // Disable access to TCR and TLR
; 1337 :     CLRREG8(&pUartRegs->MCR, UART_MCR_TCR_TLR);

  02104	e59d3000	 ldr         r3, [sp]
  02108	e2833010	 add         r3, r3, #0x10
  0210c	e5d33000	 ldrb        r3, [r3]
  02110	e1a02003	 mov         r2, r3
  02114	e3e03040	 mvn         r3, #0x40
  02118	e0023003	 and         r3, r2, r3
  0211c	e20320ff	 and         r2, r3, #0xFF
  02120	e59d3000	 ldr         r3, [sp]
  02124	e2833010	 add         r3, r3, #0x10
  02128	e5c32000	 strb        r2, [r3]

; 1338 : 
; 1339 :     pPdd->CurrentSCR = UART_SCR_TX_TRIG_GRANU1 | UART_SCR_RX_TRIG_GRANU1;

  0212c	e59d3010	 ldr         r3, [sp, #0x10]
  02130	e283208a	 add         r2, r3, #0x8A
  02134	e3a030c0	 mov         r3, #0xC0
  02138	e5c23000	 strb        r3, [r2]

; 1340 :     pPdd->CurrentFCR = 0;

  0213c	e59d3010	 ldr         r3, [sp, #0x10]
  02140	e2832089	 add         r2, r3, #0x89
  02144	e3a03000	 mov         r3, #0
  02148	e5c23000	 strb        r3, [r2]

; 1341 : 
; 1342 :     if(pPdd->RxDmaInfo || pPdd->TxDmaInfo)

  0214c	e59d3010	 ldr         r3, [sp, #0x10]
  02150	e2833f49	 add         r3, r3, #0x49, 30
  02154	e5933000	 ldr         r3, [r3]
  02158	e3530000	 cmp         r3, #0
  0215c	1a000004	 bne         |$LN3@Initialize|
  02160	e59d3010	 ldr         r3, [sp, #0x10]
  02164	e2833c01	 add         r3, r3, #1, 24
  02168	e5933000	 ldr         r3, [r3]
  0216c	e3530000	 cmp         r3, #0
  02170	0a00000f	 beq         |$LN4@Initialize|
  02174		 |$LN3@Initialize|

; 1343 :     {
; 1344 :         //pPdd->CurrentSCR |= UART_SCR_DMA_MODE_CTL;
; 1345 :         pPdd->CurrentSCR |=
; 1346 :                             UART_SCR_DMA_MODE_CTL |
; 1347 :                             UART_SCR_DMA_MODE_2_MODE1 |
; 1348 :                             UART_SCR_TX_EMPTY_CTL;

  02174	e59d3010	 ldr         r3, [sp, #0x10]
  02178	e283308a	 add         r3, r3, #0x8A
  0217c	e5d33000	 ldrb        r3, [r3]
  02180	e383100b	 orr         r1, r3, #0xB
  02184	e59d3010	 ldr         r3, [sp, #0x10]
  02188	e283208a	 add         r2, r3, #0x8A
  0218c	e20130ff	 and         r3, r1, #0xFF
  02190	e5c23000	 strb        r3, [r2]

; 1349 :         pPdd->CurrentFCR |= UART_FCR_DMA_MODE;

  02194	e59d3010	 ldr         r3, [sp, #0x10]
  02198	e2833089	 add         r3, r3, #0x89
  0219c	e5d33000	 ldrb        r3, [r3]
  021a0	e3831008	 orr         r1, r3, #8
  021a4	e59d3010	 ldr         r3, [sp, #0x10]
  021a8	e2832089	 add         r2, r3, #0x89
  021ac	e20130ff	 and         r3, r1, #0xFF
  021b0	e5c23000	 strb        r3, [r2]
  021b4		 |$LN4@Initialize|

; 1350 :     }
; 1351 : 
; 1352 :     OUTREG8(&pPdd->pUartRegs->SCR, pPdd->CurrentSCR);

  021b4	e59d3010	 ldr         r3, [sp, #0x10]
  021b8	e283108a	 add         r1, r3, #0x8A
  021bc	e59d3010	 ldr         r3, [sp, #0x10]
  021c0	e2833024	 add         r3, r3, #0x24
  021c4	e5933000	 ldr         r3, [r3]
  021c8	e2832040	 add         r2, r3, #0x40
  021cc	e5d13000	 ldrb        r3, [r1]
  021d0	e5c23000	 strb        r3, [r2]

; 1353 : 
; 1354 :     pPdd->intrMask = UART_IER_RHR;

  021d4	e59d3010	 ldr         r3, [sp, #0x10]
  021d8	e2832088	 add         r2, r3, #0x88
  021dc	e3a03001	 mov         r3, #1
  021e0	e5c23000	 strb        r3, [r2]

; 1355 :     pPdd->CurrentFCR |= 
; 1356 :                         UART_FCR_TX_FIFO_LSB_1 |
; 1357 :                         UART_FCR_FIFO_EN;

  021e4	e59d3010	 ldr         r3, [sp, #0x10]
  021e8	e2833089	 add         r3, r3, #0x89
  021ec	e5d33000	 ldrb        r3, [r3]
  021f0	e3831011	 orr         r1, r3, #0x11
  021f4	e59d3010	 ldr         r3, [sp, #0x10]
  021f8	e2832089	 add         r2, r3, #0x89
  021fc	e20130ff	 and         r3, r1, #0xFF
  02200	e5c23000	 strb        r3, [r2]

; 1358 :     if (pPdd->RxDmaInfo == NULL)

  02204	e59d3010	 ldr         r3, [sp, #0x10]
  02208	e2833f49	 add         r3, r3, #0x49, 30
  0220c	e5933000	 ldr         r3, [r3]
  02210	e3530000	 cmp         r3, #0
  02214	1a000008	 bne         |$LN2@Initialize|

; 1359 :     {
; 1360 :         pPdd->CurrentFCR |= UART_FCR_RX_FIFO_LSB_1;

  02218	e59d3010	 ldr         r3, [sp, #0x10]
  0221c	e2833089	 add         r3, r3, #0x89
  02220	e5d33000	 ldrb        r3, [r3]
  02224	e3831040	 orr         r1, r3, #0x40
  02228	e59d3010	 ldr         r3, [sp, #0x10]
  0222c	e2832089	 add         r2, r3, #0x89
  02230	e20130ff	 and         r3, r1, #0xFF
  02234	e5c23000	 strb        r3, [r2]

; 1361 :     }
; 1362 :     else

  02238	ea00000c	 b           |$LN1@Initialize|
  0223c		 |$LN2@Initialize|

; 1363 :     {
; 1364 :         // if RxDMA is enabled, set up the LSBs of RX_FIFO_TRG according
; 1365 :         // to the value in pPdd->dwRxFifoTriggerLevel
; 1366 :         pPdd->CurrentFCR |= ((pPdd->dwRxFifoTriggerLevel & 0x03) << 6);

  0223c	e59d3010	 ldr         r3, [sp, #0x10]
  02240	e2831089	 add         r1, r3, #0x89
  02244	e59d3010	 ldr         r3, [sp, #0x10]
  02248	e2833f55	 add         r3, r3, #0x55, 30
  0224c	e5933000	 ldr         r3, [r3]
  02250	e2033003	 and         r3, r3, #3
  02254	e1a02303	 mov         r2, r3, lsl #6
  02258	e5d13000	 ldrb        r3, [r1]
  0225c	e1831002	 orr         r1, r3, r2
  02260	e59d3010	 ldr         r3, [sp, #0x10]
  02264	e2832089	 add         r2, r3, #0x89
  02268	e20130ff	 and         r3, r1, #0xFF
  0226c	e5c23000	 strb        r3, [r2]
  02270		 |$LN1@Initialize|

; 1367 :     }
; 1368 : 
; 1369 : 
; 1370 :     OUTREG8(&pUartRegs->FCR, pPdd->CurrentFCR);

  02270	e59d3010	 ldr         r3, [sp, #0x10]
  02274	e2831089	 add         r1, r3, #0x89
  02278	e59d3000	 ldr         r3, [sp]
  0227c	e2832008	 add         r2, r3, #8
  02280	e5d13000	 ldrb        r3, [r1]
  02284	e5c23000	 strb        r3, [r2]

; 1371 : 
; 1372 :     // Line control: configuration mode B
; 1373 :     OUTREG8(&pUartRegs->LCR, UART_LCR_MODE_CONFIG_B);

  02288	e59d3000	 ldr         r3, [sp]
  0228c	e283200c	 add         r2, r3, #0xC
  02290	e3a030bf	 mov         r3, #0xBF
  02294	e5c23000	 strb        r3, [r2]

; 1374 :     // Disable access to IER bits 4-7, FCR bits 4-5 and MCR bits 5-7
; 1375 :     CLRREG8(&pUartRegs->EFR, UART_EFR_ENHANCED_EN);

  02298	e59d3000	 ldr         r3, [sp]
  0229c	e2833008	 add         r3, r3, #8
  022a0	e5d33000	 ldrb        r3, [r3]
  022a4	e1a02003	 mov         r2, r3
  022a8	e3e03010	 mvn         r3, #0x10
  022ac	e0023003	 and         r3, r2, r3
  022b0	e20320ff	 and         r2, r3, #0xFF
  022b4	e59d3000	 ldr         r3, [sp]
  022b8	e2833008	 add         r3, r3, #8
  022bc	e5c32000	 strb        r2, [r3]

; 1376 :     // Line control: operational mode
; 1377 :     OUTREG8(&pUartRegs->LCR, UART_LCR_MODE_OPERATIONAL);

  022c0	e59d3000	 ldr         r3, [sp]
  022c4	e283200c	 add         r2, r3, #0xC
  022c8	e3a03000	 mov         r3, #0
  022cc	e5c23000	 strb        r3, [r2]

; 1378 : 
; 1379 :     // Set default LCR 8 bits, 1 stop, no parity
; 1380 :     SETREG8(&pUartRegs->LCR, UART_LCR_CHAR_LENGTH_8BIT);

  022d0	e59d3000	 ldr         r3, [sp]
  022d4	e283300c	 add         r3, r3, #0xC
  022d8	e5d33000	 ldrb        r3, [r3]
  022dc	e3833003	 orr         r3, r3, #3
  022e0	e20320ff	 and         r2, r3, #0xFF
  022e4	e59d3000	 ldr         r3, [sp]
  022e8	e283300c	 add         r3, r3, #0xC
  022ec	e5c32000	 strb        r2, [r3]

; 1381 : }

  022f0	e28dd008	 add         sp, sp, #8
  022f4	e89d6000	 ldmia       sp, {sp, lr}
  022f8	e12fff1e	 bx          lr
  022fc		 |$M46877|

			 ENDP  ; |InitializeUART|

	EXPORT	|DmaSetSrcBuffer|
	EXPORT	|DmaConfigure|
	IMPORT	|TxDmaSettings|

  00050			 AREA	 |.pdata|, PDATA
|$T46885| DCD	|$LN5@Initialize@2|
	DCD	0x40002b04
; Function compile flags: /Odtp

  022fc			 AREA	 |.text|, CODE, ARM

  022fc		 |InitializeTxDMA| PROC

; 1390 : {

  022fc		 |$LN5@Initialize@2|
  022fc	e1a0c00d	 mov         r12, sp
  02300	e92d0001	 stmdb       sp!, {r0}
  02304	e92d5000	 stmdb       sp!, {r12, lr}
  02308	e24dd008	 sub         sp, sp, #8
  0230c		 |$M46882|

; 1391 :     BOOL rc = TRUE;

  0230c	e3a03001	 mov         r3, #1
  02310	e58d3000	 str         r3, [sp]

; 1392 : 
; 1393 :     // Tx DMA configuration settings
; 1394 :     DmaConfigure (pPdd->hTxDmaChannel,
; 1395 :         &TxDmaSettings, pPdd->TxDmaRequest, pPdd->TxDmaInfo);

  02314	e59d3010	 ldr         r3, [sp, #0x10]
  02318	e2833c01	 add         r3, r3, #1, 24
  0231c	e5933000	 ldr         r3, [r3]
  02320	e59d2010	 ldr         r2, [sp, #0x10]
  02324	e28220f0	 add         r2, r2, #0xF0
  02328	e5922000	 ldr         r2, [r2]
  0232c	e59f1070	 ldr         r1, [pc, #0x70]
  02330	e59d0010	 ldr         r0, [sp, #0x10]
  02334	e2800f41	 add         r0, r0, #0x41, 30
  02338	e5900000	 ldr         r0, [r0]
  0233c	eb000000	 bl          DmaConfigure

; 1396 : 
; 1397 :     DmaSetSrcBuffer (pPdd->TxDmaInfo,
; 1398 :         pPdd->pTxDmaBuffer,
; 1399 :         pPdd->paTxDmaBuffer);

  02340	e59d3010	 ldr         r3, [sp, #0x10]
  02344	e28330fc	 add         r3, r3, #0xFC
  02348	e5932000	 ldr         r2, [r3]
  0234c	e59d3010	 ldr         r3, [sp, #0x10]
  02350	e28330f8	 add         r3, r3, #0xF8
  02354	e5931000	 ldr         r1, [r3]
  02358	e59d3010	 ldr         r3, [sp, #0x10]
  0235c	e2833c01	 add         r3, r3, #1, 24
  02360	e5930000	 ldr         r0, [r3]
  02364	eb000000	 bl          DmaSetSrcBuffer

; 1400 : 
; 1401 :     DmaSetDstBuffer(pPdd->TxDmaInfo,
; 1402 :         (UINT8 *)&(pPdd->pUartRegs->THR),
; 1403 :         pPdd->memBase[0] + offset(OMAP_UART_REGS, THR));

  02368	e59d3010	 ldr         r3, [sp, #0x10]
  0236c	e5932000	 ldr         r2, [r3]
  02370	e59d3010	 ldr         r3, [sp, #0x10]
  02374	e2833024	 add         r3, r3, #0x24
  02378	e5931000	 ldr         r1, [r3]
  0237c	e59d3010	 ldr         r3, [sp, #0x10]
  02380	e2833c01	 add         r3, r3, #1, 24
  02384	e5930000	 ldr         r0, [r3]
  02388	eb000000	 bl          DmaSetDstBuffer

; 1404 : 
; 1405 :     return rc;

  0238c	e59d3000	 ldr         r3, [sp]
  02390	e58d3004	 str         r3, [sp, #4]

; 1406 : }

  02394	e59d0004	 ldr         r0, [sp, #4]
  02398	e28dd008	 add         sp, sp, #8
  0239c	e89d6000	 ldmia       sp, {sp, lr}
  023a0	e12fff1e	 bx          lr
  023a4		 |$LN6@Initialize@2|
  023a4		 |$LN7@Initialize@2|
  023a4	00000000	 DCD         |TxDmaSettings|
  023a8		 |$M46883|

			 ENDP  ; |InitializeTxDMA|

	IMPORT	|DmaGetLogicalChannel|
; File c:\wince600\platform\common\src\soc\common_ti_v1\common_ti\inc\omap_sdma_utility.h

  00000			 AREA	 |.pdata|, PDATA
|$T46893| DCD	|$LN8@DmaConfigu|
	DCD	0x40007d04
; Function compile flags: /Odtp

  00000			 AREA	 |.text|, CODE, ARM

  00000		 |DmaConfigure| PROC

; 166  : {

  00000		 |$LN8@DmaConfigu|
  00000	e1a0c00d	 mov         r12, sp
  00004	e92d000f	 stmdb       sp!, {r0 - r3}
  00008	e92d5000	 stmdb       sp!, {r12, lr}
  0000c	e24dd010	 sub         sp, sp, #0x10
  00010		 |$M46890|

; 167  :     BOOL rc = FALSE;

  00010	e3a03000	 mov         r3, #0
  00014	e58d3004	 str         r3, [sp, #4]

; 168  :     OMAP_DMA_LC_REGS *pDmaLcReg = (OMAP_DMA_LC_REGS*)DmaGetLogicalChannel(hDmaChannel);

  00018	e59d0018	 ldr         r0, [sp, #0x18]
  0001c	eb000000	 bl          DmaGetLogicalChannel
  00020	e58d000c	 str         r0, [sp, #0xC]
  00024	e59d300c	 ldr         r3, [sp, #0xC]
  00028	e58d3000	 str         r3, [sp]

; 169  :     if (pDmaLcReg == NULL || pConfigInfo == NULL)

  0002c	e59d3000	 ldr         r3, [sp]
  00030	e3530000	 cmp         r3, #0
  00034	0a000002	 beq         |$LN2@DmaConfigu|
  00038	e59d301c	 ldr         r3, [sp, #0x1C]
  0003c	e3530000	 cmp         r3, #0
  00040	1a000000	 bne         |$LN3@DmaConfigu|
  00044		 |$LN2@DmaConfigu|

; 170  :         {
; 171  :         goto cleanUp;

  00044	ea000064	 b           |$cleanUp$43798|
  00048		 |$LN3@DmaConfigu|

; 172  :         }
; 173  : 
; 174  :     // initialize dma DataInfo if necessary
; 175  :     if (pDataInfo != NULL)

  00048	e59d3024	 ldr         r3, [sp, #0x24]
  0004c	e3530000	 cmp         r3, #0
  00050	0a00000b	 beq         |$LN1@DmaConfigu|

; 176  :         {
; 177  :         memset(pDataInfo, 0, sizeof(DmaDataInfo_t));

  00054	e3a02018	 mov         r2, #0x18
  00058	e3a01000	 mov         r1, #0
  0005c	e59d0024	 ldr         r0, [sp, #0x24]
  00060	eb000000	 bl          memset

; 178  :         pDataInfo->hDmaChannel = hDmaChannel;

  00064	e59d3024	 ldr         r3, [sp, #0x24]
  00068	e2832010	 add         r2, r3, #0x10
  0006c	e59d3018	 ldr         r3, [sp, #0x18]
  00070	e5823000	 str         r3, [r2]

; 179  :         pDataInfo->pDmaLcReg = pDmaLcReg;

  00074	e59d3024	 ldr         r3, [sp, #0x24]
  00078	e2832014	 add         r2, r3, #0x14
  0007c	e59d3000	 ldr         r3, [sp]
  00080	e5823000	 str         r3, [r2]
  00084		 |$LN1@DmaConfigu|

; 180  :         }
; 181  : 
; 182  :     // Disable the DMA in case it is running
; 183  :     CLRREG32(&pDmaLcReg->CCR, DMA_CCR_ENABLE);

  00084	e59d3000	 ldr         r3, [sp]
  00088	e5932000	 ldr         r2, [r3]
  0008c	e3e03080	 mvn         r3, #0x80
  00090	e0022003	 and         r2, r2, r3
  00094	e59d3000	 ldr         r3, [sp]
  00098	e5832000	 str         r2, [r3]

; 184  : 
; 185  :     // update syncmap
; 186  :     pConfigInfo->syncMap = syncMap;

  0009c	e59d301c	 ldr         r3, [sp, #0x1C]
  000a0	e283202c	 add         r2, r3, #0x2C
  000a4	e59d3020	 ldr         r3, [sp, #0x20]
  000a8	e5823000	 str         r3, [r2]

; 187  : 
; 188  :     // Initialize logical channel registers
; 189  :     //
; 190  :     OUTREG32(&pDmaLcReg->CCR, 0);

  000ac	e59d2000	 ldr         r2, [sp]
  000b0	e3a03000	 mov         r3, #0
  000b4	e5823000	 str         r3, [r2]

; 191  :     OUTREG32(&pDmaLcReg->CLNK_CTRL, 0);

  000b8	e59d3000	 ldr         r3, [sp]
  000bc	e2832004	 add         r2, r3, #4
  000c0	e3a03000	 mov         r3, #0
  000c4	e5823000	 str         r3, [r2]

; 192  :     OUTREG32(&pDmaLcReg->COLOR, 0);

  000c8	e59d3000	 ldr         r3, [sp]
  000cc	e2832044	 add         r2, r3, #0x44
  000d0	e3a03000	 mov         r3, #0
  000d4	e5823000	 str         r3, [r2]

; 193  : 
; 194  :     // update CSDP
; 195  :     //  DATA_TYPE
; 196  :     //  DST
; 197  :     //  SRC
; 198  :     OUTREG32(&pDmaLcReg->CSDP, pConfigInfo->elemSize);

  000d8	e59d3000	 ldr         r3, [sp]
  000dc	e2832010	 add         r2, r3, #0x10
  000e0	e59d301c	 ldr         r3, [sp, #0x1C]
  000e4	e5933000	 ldr         r3, [r3]
  000e8	e5823000	 str         r3, [r2]

; 199  : 
; 200  :     // update CCR
; 201  :     //  DST_MODE
; 202  :     //  SRC_MODE
; 203  :     //  PRIO
; 204  :     //  SYNC
; 205  :     //
; 206  :     OUTREG32(&pDmaLcReg->CCR, pConfigInfo->srcAddrMode |
; 207  :         pConfigInfo->dstAddrMode | pConfigInfo->dmaPrio |
; 208  :         DMA_CCR_SYNC(syncMap) | pConfigInfo->synchTrigger |
; 209  :         pConfigInfo->synchMode
; 210  :         );

  000ec	e59d301c	 ldr         r3, [sp, #0x1C]
  000f0	e283200c	 add         r2, r3, #0xC
  000f4	e59d301c	 ldr         r3, [sp, #0x1C]
  000f8	e2833018	 add         r3, r3, #0x18
  000fc	e5922000	 ldr         r2, [r2]
  00100	e5933000	 ldr         r3, [r3]
  00104	e1822003	 orr         r2, r2, r3
  00108	e59d301c	 ldr         r3, [sp, #0x1C]
  0010c	e283301c	 add         r3, r3, #0x1C
  00110	e5933000	 ldr         r3, [r3]
  00114	e1821003	 orr         r1, r2, r3
  00118	e59d3020	 ldr         r3, [sp, #0x20]
  0011c	e203201f	 and         r2, r3, #0x1F
  00120	e59d3020	 ldr         r3, [sp, #0x20]
  00124	e2033060	 and         r3, r3, #0x60
  00128	e1a03703	 mov         r3, r3, lsl #14
  0012c	e1823003	 orr         r3, r2, r3
  00130	e1812003	 orr         r2, r1, r3
  00134	e59d301c	 ldr         r3, [sp, #0x1C]
  00138	e2833020	 add         r3, r3, #0x20
  0013c	e5933000	 ldr         r3, [r3]
  00140	e1822003	 orr         r2, r2, r3
  00144	e59d301c	 ldr         r3, [sp, #0x1C]
  00148	e2833024	 add         r3, r3, #0x24
  0014c	e5933000	 ldr         r3, [r3]
  00150	e1822003	 orr         r2, r2, r3
  00154	e59d3000	 ldr         r3, [sp]
  00158	e5832000	 str         r2, [r3]

; 211  : 
; 212  :     // update CSEI
; 213  :     //
; 214  :     OUTREG32(&pDmaLcReg->CSEI, pConfigInfo->srcElemIndex);

  0015c	e59d301c	 ldr         r3, [sp, #0x1C]
  00160	e2831004	 add         r1, r3, #4
  00164	e59d3000	 ldr         r3, [sp]
  00168	e2832024	 add         r2, r3, #0x24
  0016c	e5913000	 ldr         r3, [r1]
  00170	e5823000	 str         r3, [r2]

; 215  : 
; 216  :     // update CDEI
; 217  :     //
; 218  :     OUTREG32(&pDmaLcReg->CDEI, pConfigInfo->dstElemIndex);

  00174	e59d301c	 ldr         r3, [sp, #0x1C]
  00178	e2831010	 add         r1, r3, #0x10
  0017c	e59d3000	 ldr         r3, [sp]
  00180	e283202c	 add         r2, r3, #0x2C
  00184	e5913000	 ldr         r3, [r1]
  00188	e5823000	 str         r3, [r2]

; 219  : 
; 220  :     // update CSFI
; 221  :     //
; 222  :     OUTREG32(&pDmaLcReg->CSFI, pConfigInfo->srcFrameIndex);

  0018c	e59d301c	 ldr         r3, [sp, #0x1C]
  00190	e2831008	 add         r1, r3, #8
  00194	e59d3000	 ldr         r3, [sp]
  00198	e2832028	 add         r2, r3, #0x28
  0019c	e5913000	 ldr         r3, [r1]
  001a0	e5823000	 str         r3, [r2]

; 223  : 
; 224  :     // update CDFI
; 225  :     //
; 226  :     OUTREG32(&pDmaLcReg->CDFI, pConfigInfo->dstFrameIndex);

  001a4	e59d301c	 ldr         r3, [sp, #0x1C]
  001a8	e2831014	 add         r1, r3, #0x14
  001ac	e59d3000	 ldr         r3, [sp]
  001b0	e2832030	 add         r2, r3, #0x30
  001b4	e5913000	 ldr         r3, [r1]
  001b8	e5823000	 str         r3, [r2]

; 227  : 
; 228  :     // update CICR
; 229  :     //
; 230  :     OUTREG32(&pDmaLcReg->CICR , pConfigInfo->interrupts);

  001bc	e59d301c	 ldr         r3, [sp, #0x1C]
  001c0	e2831028	 add         r1, r3, #0x28
  001c4	e59d3000	 ldr         r3, [sp]
  001c8	e2832008	 add         r2, r3, #8
  001cc	e5913000	 ldr         r3, [r1]
  001d0	e5823000	 str         r3, [r2]

; 231  :     
; 232  :     rc = TRUE;

  001d4	e3a03001	 mov         r3, #1
  001d8	e58d3004	 str         r3, [sp, #4]
  001dc		 |$cleanUp$43798|

; 233  : 
; 234  : cleanUp:
; 235  :     return rc;

  001dc	e59d3004	 ldr         r3, [sp, #4]
  001e0	e58d3008	 str         r3, [sp, #8]

; 236  : }

  001e4	e59d0008	 ldr         r0, [sp, #8]
  001e8	e28dd010	 add         sp, sp, #0x10
  001ec	e89d6000	 ldmia       sp, {sp, lr}
  001f0	e12fff1e	 bx          lr
  001f4		 |$M46891|

			 ENDP  ; |DmaConfigure|


  00000			 AREA	 |.pdata|, PDATA
|$T46900| DCD	|$LN6@DmaSetSrcB|
	DCD	0x40001d03
; Function compile flags: /Odtp

  00000			 AREA	 |.text|, CODE, ARM

  00000		 |DmaSetSrcBuffer| PROC

; 358  : {

  00000		 |$LN6@DmaSetSrcB|
  00000	e1a0c00d	 mov         r12, sp
  00004	e92d0007	 stmdb       sp!, {r0 - r2}
  00008	e92d5000	 stmdb       sp!, {r12, lr}
  0000c		 |$M46897|

; 359  :     // save values
; 360  :     //
; 361  :     pDataInfo->pSrcBuffer = pBuffer;

  0000c	e59d200c	 ldr         r2, [sp, #0xC]
  00010	e59d3008	 ldr         r3, [sp, #8]
  00014	e5832000	 str         r2, [r3]

; 362  :     pDataInfo->PhysAddrSrcBuffer = PhysAddr;

  00018	e59d3008	 ldr         r3, [sp, #8]
  0001c	e2832008	 add         r2, r3, #8
  00020	e59d3010	 ldr         r3, [sp, #0x10]
  00024	e5823000	 str         r3, [r2]

; 363  : 
; 364  :     // set source address
; 365  :     //
; 366  :     if (pDataInfo->pDmaLcReg != NULL)

  00028	e59d3008	 ldr         r3, [sp, #8]
  0002c	e2833014	 add         r3, r3, #0x14
  00030	e5933000	 ldr         r3, [r3]
  00034	e3530000	 cmp         r3, #0
  00038	0a00000b	 beq         |$LN1@DmaSetSrcB|

; 367  :         {
; 368  :         OUTREG32(&pDataInfo->pDmaLcReg->CSSA, PhysAddr);

  0003c	e59d3008	 ldr         r3, [sp, #8]
  00040	e2833014	 add         r3, r3, #0x14
  00044	e5933000	 ldr         r3, [r3]
  00048	e283201c	 add         r2, r3, #0x1C
  0004c	e59d3010	 ldr         r3, [sp, #0x10]
  00050	e5823000	 str         r3, [r2]

; 369  :         OUTREG32(&pDataInfo->pDmaLcReg->CSAC, PhysAddr);

  00054	e59d3008	 ldr         r3, [sp, #8]
  00058	e2833014	 add         r3, r3, #0x14
  0005c	e5933000	 ldr         r3, [r3]
  00060	e2832034	 add         r2, r3, #0x34
  00064	e59d3010	 ldr         r3, [sp, #0x10]
  00068	e5823000	 str         r3, [r2]
  0006c		 |$LN1@DmaSetSrcB|

; 370  :         }
; 371  : }

  0006c	e89d6000	 ldmia       sp, {sp, lr}
  00070	e12fff1e	 bx          lr
  00074		 |$M46898|

			 ENDP  ; |DmaSetSrcBuffer|

	IMPORT	|RxDmaSettings|

  00058			 AREA	 |.pdata|, PDATA
|$T46908| DCD	|$LN5@Initialize@3|
	DCD	0x40004d04
; Function compile flags: /Odtp
; File c:\wince600\platform\common\src\soc\common_ti_v1\common_ti\serial\uart\pdd.c

  023a8			 AREA	 |.text|, CODE, ARM

  023a8		 |InitializeRxDMA| PROC

; 1415 : {

  023a8		 |$LN5@Initialize@3|
  023a8	e1a0c00d	 mov         r12, sp
  023ac	e92d0001	 stmdb       sp!, {r0}
  023b0	e92d5000	 stmdb       sp!, {r12, lr}
  023b4	e24dd00c	 sub         sp, sp, #0xC
  023b8		 |$M46905|

; 1416 :     OMAP_DMA_LC_REGS *pDmaLcReg;
; 1417 : 
; 1418 :     DmaConfigure (pPdd->hRxDmaChannel,
; 1419 :         &RxDmaSettings, pPdd->RxDmaRequest, pPdd->RxDmaInfo);

  023b8	e59d3014	 ldr         r3, [sp, #0x14]
  023bc	e2833f49	 add         r3, r3, #0x49, 30
  023c0	e5933000	 ldr         r3, [r3]
  023c4	e59d2014	 ldr         r2, [sp, #0x14]
  023c8	e2822f43	 add         r2, r2, #0x43, 30
  023cc	e5922000	 ldr         r2, [r2]
  023d0	e59f1100	 ldr         r1, [pc, #0x100]
  023d4	e59d0014	 ldr         r0, [sp, #0x14]
  023d8	e2800f4b	 add         r0, r0, #0x4B, 30
  023dc	e5900000	 ldr         r0, [r0]
  023e0	eb000000	 bl          DmaConfigure

; 1420 : 
; 1421 :     pDmaLcReg = (OMAP_DMA_LC_REGS*)DmaGetLogicalChannel(pPdd->hRxDmaChannel);

  023e4	e59d3014	 ldr         r3, [sp, #0x14]
  023e8	e2833f4b	 add         r3, r3, #0x4B, 30
  023ec	e5930000	 ldr         r0, [r3]
  023f0	eb000000	 bl          DmaGetLogicalChannel
  023f4	e58d0008	 str         r0, [sp, #8]
  023f8	e59d3008	 ldr         r3, [sp, #8]
  023fc	e58d3000	 str         r3, [sp]

; 1422 :     OUTREG32(&pDmaLcReg->CDAC, pPdd->paRxDmaBuffer);

  02400	e59d3014	 ldr         r3, [sp, #0x14]
  02404	e2831f46	 add         r1, r3, #0x46, 30
  02408	e59d3000	 ldr         r3, [sp]
  0240c	e2832038	 add         r2, r3, #0x38
  02410	e5913000	 ldr         r3, [r1]
  02414	e5823000	 str         r3, [r2]

; 1423 : 
; 1424 :     // set up for Rx buffer as single frame with Max DMA buffer. Must be multiple of
; 1425 :     // frame size
; 1426 :     DmaSetElementAndFrameCount (pPdd->RxDmaInfo,
; 1427 :         (UINT16)pPdd->dwRxFifoTriggerLevel, 
; 1428 :         (UINT16)((pPdd->RxDmaBufferSize + pPdd->dwRxFifoTriggerLevel - 1) / pPdd->dwRxFifoTriggerLevel));

  02418	e59d3014	 ldr         r3, [sp, #0x14]
  0241c	e2832e11	 add         r2, r3, #0x11, 28
  02420	e59d3014	 ldr         r3, [sp, #0x14]
  02424	e2833f55	 add         r3, r3, #0x55, 30
  02428	e5922000	 ldr         r2, [r2]
  0242c	e5933000	 ldr         r3, [r3]
  02430	e0823003	 add         r3, r2, r3
  02434	e2431001	 sub         r1, r3, #1
  02438	e59d3014	 ldr         r3, [sp, #0x14]
  0243c	e2833f55	 add         r3, r3, #0x55, 30
  02440	e5930000	 ldr         r0, [r3]
  02444	eb000000	 bl          __rt_udiv
  02448	e1a02800	 mov         r2, r0, lsl #16
  0244c	e1a02822	 mov         r2, r2, lsr #16
  02450	e59d3014	 ldr         r3, [sp, #0x14]
  02454	e2833f55	 add         r3, r3, #0x55, 30
  02458	e5933000	 ldr         r3, [r3]
  0245c	e1a01803	 mov         r1, r3, lsl #16
  02460	e1a01821	 mov         r1, r1, lsr #16
  02464	e59d3014	 ldr         r3, [sp, #0x14]
  02468	e2833f49	 add         r3, r3, #0x49, 30
  0246c	e5930000	 ldr         r0, [r3]
  02470	eb000000	 bl          DmaSetElementAndFrameCount

; 1429 :     DmaSetDstBuffer (pPdd->RxDmaInfo,
; 1430 :         pPdd->pRxDmaBuffer,
; 1431 :         pPdd->paRxDmaBuffer);

  02474	e59d3014	 ldr         r3, [sp, #0x14]
  02478	e2833f46	 add         r3, r3, #0x46, 30
  0247c	e5932000	 ldr         r2, [r3]
  02480	e59d3014	 ldr         r3, [sp, #0x14]
  02484	e2833f45	 add         r3, r3, #0x45, 30
  02488	e5931000	 ldr         r1, [r3]
  0248c	e59d3014	 ldr         r3, [sp, #0x14]
  02490	e2833f49	 add         r3, r3, #0x49, 30
  02494	e5930000	 ldr         r0, [r3]
  02498	eb000000	 bl          DmaSetDstBuffer

; 1432 :     DmaSetSrcBuffer(pPdd->RxDmaInfo,
; 1433 :         (UINT8 *)&(pPdd->pUartRegs->RHR),
; 1434 :         pPdd->memBase[0] + offset(OMAP_UART_REGS, RHR));

  0249c	e59d3014	 ldr         r3, [sp, #0x14]
  024a0	e5932000	 ldr         r2, [r3]
  024a4	e59d3014	 ldr         r3, [sp, #0x14]
  024a8	e2833024	 add         r3, r3, #0x24
  024ac	e5931000	 ldr         r1, [r3]
  024b0	e59d3014	 ldr         r3, [sp, #0x14]
  024b4	e2833f49	 add         r3, r3, #0x49, 30
  024b8	e5930000	 ldr         r0, [r3]
  024bc	eb000000	 bl          DmaSetSrcBuffer

; 1435 : 
; 1436 :     return TRUE;

  024c0	e3a03001	 mov         r3, #1
  024c4	e58d3004	 str         r3, [sp, #4]

; 1437 : }

  024c8	e59d0004	 ldr         r0, [sp, #4]
  024cc	e28dd00c	 add         sp, sp, #0xC
  024d0	e89d6000	 ldmia       sp, {sp, lr}
  024d4	e12fff1e	 bx          lr
  024d8		 |$LN6@Initialize@3|
  024d8		 |$LN7@Initialize@3|
  024d8	00000000	 DCD         |RxDmaSettings|
  024dc		 |$M46906|

			 ENDP  ; |InitializeRxDMA|

	EXPORT	|??_C@_1BM@CKPHFPOP@?$AAb?$AAu?$AAf?$AAf?$AAe?$AAr?$AA?5?$AA?$CF?$AAx?$AA?5?$AA?$CF?$AAd?$AA?5?$AA?$AA@| [ DATA ] ; `string'

  00060			 AREA	 |.pdata|, PDATA
|$T46918| DCD	|$LN8@HWPostInit|
	DCD	0x40003e04

  00000			 AREA	 |.rdata|, DATA, READONLY
|??_C@_1BM@CKPHFPOP@?$AAb?$AAu?$AAf?$AAf?$AAe?$AAr?$AA?5?$AA?$CF?$AAx?$AA?5?$AA?$CF?$AAd?$AA?5?$AA?$AA@| DCB "b"
	DCB	0x0, "u", 0x0, "f", 0x0, "f", 0x0, "e", 0x0, "r", 0x0, " "
	DCB	0x0, "%", 0x0, "x", 0x0, " ", 0x0, "%", 0x0, "d", 0x0, " "
	DCB	0x0, 0x0, 0x0				; `string'
; Function compile flags: /Odtp

  024dc			 AREA	 |.text|, CODE, ARM

  024dc		 |HWPostInit| PROC

; 1960 : {

  024dc		 |$LN8@HWPostInit|
  024dc	e1a0c00d	 mov         r12, sp
  024e0	e92d0001	 stmdb       sp!, {r0}
  024e4	e92d5000	 stmdb       sp!, {r12, lr}
  024e8	e24dd010	 sub         sp, sp, #0x10
  024ec		 |$M46915|

; 1961 :     UARTPDD *pPdd = (UARTPDD *)pvContext;

  024ec	e59d3018	 ldr         r3, [sp, #0x18]
  024f0	e58d3004	 str         r3, [sp, #4]

; 1962 :     PHW_INDEP_INFO  pSerialHead = (PHW_INDEP_INFO)pPdd->pMdd;

  024f4	e59d3004	 ldr         r3, [sp, #4]
  024f8	e2833050	 add         r3, r3, #0x50
  024fc	e5933000	 ldr         r3, [r3]
  02500	e58d3000	 str         r3, [sp]

; 1963 : 
; 1964 :     // if Rx DMA is enabled override the mdd rxbuffer with DMA buffer
; 1965 :     if (pPdd->RxDmaInfo)

  02504	e59d3004	 ldr         r3, [sp, #4]
  02508	e2833f49	 add         r3, r3, #0x49, 30
  0250c	e5933000	 ldr         r3, [r3]
  02510	e3530000	 cmp         r3, #0
  02514	0a000026	 beq         |$LN1@HWPostInit|

; 1966 :     {
; 1967 :         pSerialHead->RxBufferInfo.RxCharBuffer = pPdd->pRxDmaBuffer;

  02518	e59d3004	 ldr         r3, [sp, #4]
  0251c	e2831f45	 add         r1, r3, #0x45, 30
  02520	e59d3000	 ldr         r3, [sp]
  02524	e28320ac	 add         r2, r3, #0xAC
  02528	e5913000	 ldr         r3, [r1]
  0252c	e5823000	 str         r3, [r2]

; 1968 :         pSerialHead->RxBufferInfo.Length = pPdd->RxDmaBufferSize;

  02530	e59d3004	 ldr         r3, [sp, #4]
  02534	e2831e11	 add         r1, r3, #0x11, 28
  02538	e59d3000	 ldr         r3, [sp]
  0253c	e28320a4	 add         r2, r3, #0xA4
  02540	e5913000	 ldr         r3, [r1]
  02544	e5823000	 str         r3, [r2]

; 1969 :         pPdd->rxBufferSize = pPdd->RxDmaBufferSize;

  02548	e59d3004	 ldr         r3, [sp, #4]
  0254c	e2831e11	 add         r1, r3, #0x11, 28
  02550	e59d3004	 ldr         r3, [sp, #4]
  02554	e2832018	 add         r2, r3, #0x18
  02558	e5913000	 ldr         r3, [r1]
  0255c	e5823000	 str         r3, [r2]

; 1970 : 
; 1971 :         DEBUGMSG(ZONE_OPEN||ZONE_FUNCTION,
; 1972 :             (TEXT("buffer %x %d "),pPdd->pRxDmaBuffer,pPdd->RxDmaBufferSize));

  02560	e59f3068	 ldr         r3, [pc, #0x68]
  02564	e5933440	 ldr         r3, [r3, #0x440]
  02568	e3130002	 tst         r3, #2
  0256c	1a000006	 bne         |$LN4@HWPostInit|
  02570	e59f3058	 ldr         r3, [pc, #0x58]
  02574	e5933440	 ldr         r3, [r3, #0x440]
  02578	e3130a02	 tst         r3, #2, 20
  0257c	1a000002	 bne         |$LN4@HWPostInit|
  02580	e3a03000	 mov         r3, #0
  02584	e58d300c	 str         r3, [sp, #0xC]
  02588	ea000009	 b           |$LN5@HWPostInit|
  0258c		 |$LN4@HWPostInit|
  0258c	e59d3004	 ldr         r3, [sp, #4]
  02590	e2833e11	 add         r3, r3, #0x11, 28
  02594	e5932000	 ldr         r2, [r3]
  02598	e59d3004	 ldr         r3, [sp, #4]
  0259c	e2833f45	 add         r3, r3, #0x45, 30
  025a0	e5931000	 ldr         r1, [r3]
  025a4	e59f0020	 ldr         r0, [pc, #0x20]
  025a8	eb000000	 bl          NKDbgPrintfW
  025ac	e3a03001	 mov         r3, #1
  025b0	e58d300c	 str         r3, [sp, #0xC]
  025b4		 |$LN5@HWPostInit|
  025b4		 |$LN1@HWPostInit|

; 1973 : 
; 1974 :     }
; 1975 : 
; 1976 : 
; 1977 : 
; 1978 :     return TRUE;

  025b4	e3a03001	 mov         r3, #1
  025b8	e58d3008	 str         r3, [sp, #8]

; 1979 : }

  025bc	e59d0008	 ldr         r0, [sp, #8]
  025c0	e28dd010	 add         sp, sp, #0x10
  025c4	e89d6000	 ldmia       sp, {sp, lr}
  025c8	e12fff1e	 bx          lr
  025cc		 |$LN9@HWPostInit|
  025cc		 |$LN10@HWPostInit|
  025cc	00000000	 DCD         |??_C@_1BM@CKPHFPOP@?$AAb?$AAu?$AAf?$AAf?$AAe?$AAr?$AA?5?$AA?$CF?$AAx?$AA?5?$AA?$CF?$AAd?$AA?5?$AA?$AA@|
  025d0		 |$LN11@HWPostInit|
  025d0	00000000	 DCD         |dpCurSettings|
  025d4		 |$M46916|

			 ENDP  ; |HWPostInit|

	EXPORT	|??_C@_1BI@BIKPNPOG@?$AA?9?$AAH?$AAW?$AAD?$AAe?$AAi?$AAn?$AAi?$AAt?$AA?$AN?$AA?6?$AA?$AA@| [ DATA ] ; `string'
	EXPORT	|??_C@_1FG@LMAMANNM@?$AAU?$AAA?$AAR?$AAT?$AA?3?$AAH?$AAW?$AAD?$AAe?$AAi?$AAn?$AAi?$AAt?$AA?3?$AAD?$AAm?$AAa?$AAE?$AAn?$AAa?$AAb?$AAl?$AAe?$AAI?$AAn?$AAt?$AAe?$AAr?$AAr?$AAu?$AAp?$AAt@| [ DATA ] ; `string'
	EXPORT	|??_C@_1CI@LFFEAADB@?$AA?$CL?$AAH?$AAW?$AAD?$AAe?$AAi?$AAn?$AAi?$AAt?$AA?$CI?$AA0?$AAx?$AA?$CF?$AA0?$AA8?$AAx?$AA?$CJ?$AA?$AN?$AA?6?$AA?$AA@| [ DATA ] ; `string'
	IMPORT	|ReleaseDevicePads|
	IMPORT	|DeleteCriticalSection|
	IMPORT	|CloseBusAccessHandle|
	IMPORT	|GPIOClose|
	IMPORT	|MmUnmapIoSpace|
	IMPORT	|CloseHandle|

  00068			 AREA	 |.pdata|, PDATA
|$T46933| DCD	|$LN21@HWDeinit|
	DCD	0x4000de04

  00000			 AREA	 |.rdata|, DATA, READONLY
|??_C@_1BI@BIKPNPOG@?$AA?9?$AAH?$AAW?$AAD?$AAe?$AAi?$AAn?$AAi?$AAt?$AA?$AN?$AA?6?$AA?$AA@| DCB "-"
	DCB	0x0, "H", 0x0, "W", 0x0, "D", 0x0, "e", 0x0, "i", 0x0, "n"
	DCB	0x0, "i", 0x0, "t", 0x0, 0xd, 0x0, 0xa, 0x0, 0x0, 0x0 ; `string'

  00000			 AREA	 |.rdata|, DATA, READONLY
|??_C@_1FG@LMAMANNM@?$AAU?$AAA?$AAR?$AAT?$AA?3?$AAH?$AAW?$AAD?$AAe?$AAi?$AAn?$AAi?$AAt?$AA?3?$AAD?$AAm?$AAa?$AAE?$AAn?$AAa?$AAb?$AAl?$AAe?$AAI?$AAn?$AAt?$AAe?$AAr?$AAr?$AAu?$AAp?$AAt@| DCB "U"
	DCB	0x0, "A", 0x0, "R", 0x0, "T", 0x0, ":", 0x0, "H", 0x0, "W"
	DCB	0x0, "D", 0x0, "e", 0x0, "i", 0x0, "n", 0x0, "i", 0x0, "t"
	DCB	0x0, ":", 0x0, "D", 0x0, "m", 0x0, "a", 0x0, "E", 0x0, "n"
	DCB	0x0, "a", 0x0, "b", 0x0, "l", 0x0, "e", 0x0, "I", 0x0, "n"
	DCB	0x0, "t", 0x0, "e", 0x0, "r", 0x0, "r", 0x0, "u", 0x0, "p"
	DCB	0x0, "t", 0x0, "s", 0x0, " ", 0x0, "f", 0x0, "a", 0x0, "i"
	DCB	0x0, "l", 0x0, "e", 0x0, "d", 0x0, 0xd, 0x0, 0xa, 0x0, 0x0
	DCB	0x0					; `string'

  00000			 AREA	 |.rdata|, DATA, READONLY
|??_C@_1CI@LFFEAADB@?$AA?$CL?$AAH?$AAW?$AAD?$AAe?$AAi?$AAn?$AAi?$AAt?$AA?$CI?$AA0?$AAx?$AA?$CF?$AA0?$AA8?$AAx?$AA?$CJ?$AA?$AN?$AA?6?$AA?$AA@| DCB "+"
	DCB	0x0, "H", 0x0, "W", 0x0, "D", 0x0, "e", 0x0, "i", 0x0, "n"
	DCB	0x0, "i", 0x0, "t", 0x0, "(", 0x0, "0", 0x0, "x", 0x0, "%"
	DCB	0x0, "0", 0x0, "8", 0x0, "x", 0x0, ")", 0x0, 0xd, 0x0, 0xa
	DCB	0x0, 0x0, 0x0				; `string'
; Function compile flags: /Odtp

  025d4			 AREA	 |.text|, CODE, ARM

  025d4		 |HWDeinit| PROC

; 1993 : {

  025d4		 |$LN21@HWDeinit|
  025d4	e1a0c00d	 mov         r12, sp
  025d8	e92d0001	 stmdb       sp!, {r0}
  025dc	e92d5000	 stmdb       sp!, {r12, lr}
  025e0	e24dd024	 sub         sp, sp, #0x24
  025e4		 |$M46930|

; 1994 :     UARTPDD *pPdd = (UARTPDD*)pvContext;

  025e4	e59d302c	 ldr         r3, [sp, #0x2C]
  025e8	e58d3008	 str         r3, [sp, #8]

; 1995 :     DEBUGMSG(ZONE_CLOSE||ZONE_FUNCTION, (L"+HWDeinit(0x%08x)\r\n", pvContext));

  025ec	e59f3348	 ldr         r3, [pc, #0x348]
  025f0	e5933440	 ldr         r3, [r3, #0x440]
  025f4	e3130010	 tst         r3, #0x10
  025f8	1a000006	 bne         |$LN15@HWDeinit|
  025fc	e59f3338	 ldr         r3, [pc, #0x338]
  02600	e5933440	 ldr         r3, [r3, #0x440]
  02604	e3130a02	 tst         r3, #2, 20
  02608	1a000002	 bne         |$LN15@HWDeinit|
  0260c	e3a03000	 mov         r3, #0
  02610	e58d3018	 str         r3, [sp, #0x18]
  02614	ea000004	 b           |$LN16@HWDeinit|
  02618		 |$LN15@HWDeinit|
  02618	e59d102c	 ldr         r1, [sp, #0x2C]
  0261c	e59f0324	 ldr         r0, [pc, #0x324]
  02620	eb000000	 bl          NKDbgPrintfW
  02624	e3a03001	 mov         r3, #1
  02628	e58d3018	 str         r3, [sp, #0x18]
  0262c		 |$LN16@HWDeinit|

; 1996 : 
; 1997 :     // stop rx thread
; 1998 :     if (pPdd->hRxThread != NULL)

  0262c	e59d3008	 ldr         r3, [sp, #8]
  02630	e2833f4f	 add         r3, r3, #0x4F, 30
  02634	e5933000	 ldr         r3, [r3]
  02638	e3530000	 cmp         r3, #0
  0263c	0a000014	 beq         |$LN12@HWDeinit|

; 1999 :     {
; 2000 :         pPdd->bExitThread = TRUE;

  02640	e59d3008	 ldr         r3, [sp, #8]
  02644	e2832f4e	 add         r2, r3, #0x4E, 30
  02648	e3a03001	 mov         r3, #1
  0264c	e5823000	 str         r3, [r2]

; 2001 :         SetEvent(pPdd->hRxThread);

  02650	e59d3008	 ldr         r3, [sp, #8]
  02654	e2833f4f	 add         r3, r3, #0x4F, 30
  02658	e5930000	 ldr         r0, [r3]
  0265c	eb000000	 bl          SetEvent

; 2002 :         WaitForSingleObject(pPdd->hRxThread, INFINITE);

  02660	e3e01000	 mvn         r1, #0
  02664	e59d3008	 ldr         r3, [sp, #8]
  02668	e2833f4f	 add         r3, r3, #0x4F, 30
  0266c	e5930000	 ldr         r0, [r3]
  02670	eb000000	 bl          WaitForSingleObject

; 2003 :         CloseHandle(pPdd->hRxThread);

  02674	e59d3008	 ldr         r3, [sp, #8]
  02678	e2833f4f	 add         r3, r3, #0x4F, 30
  0267c	e5930000	 ldr         r0, [r3]
  02680	eb000000	 bl          CloseHandle

; 2004 :         pPdd->hRxThread = NULL;

  02684	e59d3008	 ldr         r3, [sp, #8]
  02688	e2832f4f	 add         r2, r3, #0x4F, 30
  0268c	e3a03000	 mov         r3, #0
  02690	e5823000	 str         r3, [r2]
  02694		 |$LN12@HWDeinit|

; 2005 :     }
; 2006 : 
; 2007 :     if (pPdd->hEventRxIstDma != NULL)

  02694	e59d3008	 ldr         r3, [sp, #8]
  02698	e2833f4a	 add         r3, r3, #0x4A, 30
  0269c	e5933000	 ldr         r3, [r3]
  026a0	e3530000	 cmp         r3, #0
  026a4	0a000007	 beq         |$LN11@HWDeinit|

; 2008 :     {
; 2009 :         CloseHandle(pPdd->hEventRxIstDma);

  026a8	e59d3008	 ldr         r3, [sp, #8]
  026ac	e2833f4a	 add         r3, r3, #0x4A, 30
  026b0	e5930000	 ldr         r0, [r3]
  026b4	eb000000	 bl          CloseHandle

; 2010 :         pPdd->hEventRxIstDma = NULL;

  026b8	e59d3008	 ldr         r3, [sp, #8]
  026bc	e2832f4a	 add         r2, r3, #0x4A, 30
  026c0	e3a03000	 mov         r3, #0
  026c4	e5823000	 str         r3, [r2]
  026c8		 |$LN11@HWDeinit|

; 2011 :     }
; 2012 :     // Unmap UART registers
; 2013 :     if (pPdd->pUartRegs != NULL)

  026c8	e59d3008	 ldr         r3, [sp, #8]
  026cc	e2833024	 add         r3, r3, #0x24
  026d0	e5933000	 ldr         r3, [r3]
  026d4	e3530000	 cmp         r3, #0
  026d8	0a000006	 beq         |$LN10@HWDeinit|

; 2014 :     {
; 2015 :         MmUnmapIoSpace((VOID*)pPdd->pUartRegs, pPdd->memLen[0]);

  026dc	e59d3008	 ldr         r3, [sp, #8]
  026e0	e2833004	 add         r3, r3, #4
  026e4	e5931000	 ldr         r1, [r3]
  026e8	e59d3008	 ldr         r3, [sp, #8]
  026ec	e2833024	 add         r3, r3, #0x24
  026f0	e5930000	 ldr         r0, [r3]
  026f4	eb000000	 bl          MmUnmapIoSpace
  026f8		 |$LN10@HWDeinit|

; 2016 :     }
; 2017 : 
; 2018 :     if (pPdd->hGpio)

  026f8	e59d3008	 ldr         r3, [sp, #8]
  026fc	e2833f5b	 add         r3, r3, #0x5B, 30
  02700	e5933000	 ldr         r3, [r3]
  02704	e3530000	 cmp         r3, #0
  02708	0a000007	 beq         |$LN9@HWDeinit|

; 2019 :     {
; 2020 :         GPIOClose(pPdd->hGpio);

  0270c	e59d3008	 ldr         r3, [sp, #8]
  02710	e2833f5b	 add         r3, r3, #0x5B, 30
  02714	e5930000	 ldr         r0, [r3]
  02718	eb000000	 bl          GPIOClose

; 2021 :         pPdd->hGpio = NULL;

  0271c	e59d3008	 ldr         r3, [sp, #8]
  02720	e2832f5b	 add         r2, r3, #0x5B, 30
  02724	e3a03000	 mov         r3, #0
  02728	e5823000	 str         r3, [r2]
  0272c		 |$LN9@HWDeinit|

; 2022 :     }
; 2023 : 
; 2024 :     // Disconnect the interrupt
; 2025 :     if (pPdd->sysIntr != 0)

  0272c	e59d3008	 ldr         r3, [sp, #8]
  02730	e2833028	 add         r3, r3, #0x28
  02734	e5933000	 ldr         r3, [r3]
  02738	e3530000	 cmp         r3, #0
  0273c	0a000009	 beq         |$LN8@HWDeinit|

; 2026 :     {
; 2027 :         KernelIoControl(
; 2028 :             IOCTL_HAL_RELEASE_SYSINTR, &pPdd->sysIntr, sizeof(&pPdd->sysIntr),
; 2029 :             NULL, 0, NULL
; 2030 :             );

  02740	e3a03000	 mov         r3, #0
  02744	e58d3004	 str         r3, [sp, #4]
  02748	e3a03000	 mov         r3, #0
  0274c	e58d3000	 str         r3, [sp]
  02750	e3a03000	 mov         r3, #0
  02754	e3a02004	 mov         r2, #4
  02758	e59d1008	 ldr         r1, [sp, #8]
  0275c	e2811028	 add         r1, r1, #0x28
  02760	e59f01dc	 ldr         r0, [pc, #0x1DC]
  02764	eb000000	 bl          KernelIoControl
  02768		 |$LN8@HWDeinit|

; 2031 :     }
; 2032 : 
; 2033 :     // Disable all clocks
; 2034 :     if (pPdd->hParentBus != NULL)

  02768	e59d3008	 ldr         r3, [sp, #8]
  0276c	e283302c	 add         r3, r3, #0x2C
  02770	e5933000	 ldr         r3, [r3]
  02774	e3530000	 cmp         r3, #0
  02778	0a00000a	 beq         |$LN7@HWDeinit|

; 2035 :     {
; 2036 :         pPdd->externalDX = D3;

  0277c	e59d3008	 ldr         r3, [sp, #8]
  02780	e2832034	 add         r2, r3, #0x34
  02784	e3a03003	 mov         r3, #3
  02788	e5823000	 str         r3, [r2]

; 2037 :         SetPower(pPdd, D3);

  0278c	e3a01003	 mov         r1, #3
  02790	e59d0008	 ldr         r0, [sp, #8]
  02794	eb000000	 bl          SetPower

; 2038 :         CloseBusAccessHandle(pPdd->hParentBus);

  02798	e59d3008	 ldr         r3, [sp, #8]
  0279c	e283302c	 add         r3, r3, #0x2C
  027a0	e5930000	 ldr         r0, [r3]
  027a4	eb000000	 bl          CloseBusAccessHandle
  027a8		 |$LN7@HWDeinit|

; 2039 :     }
; 2040 : 
; 2041 :     // Delete sync objects
; 2042 :     DeleteCriticalSection(&pPdd->hwCS);

  027a8	e59d3008	 ldr         r3, [sp, #8]
  027ac	e2830098	 add         r0, r3, #0x98
  027b0	eb000000	 bl          DeleteCriticalSection

; 2043 :     DeleteCriticalSection(&pPdd->txCS);

  027b4	e59d3008	 ldr         r3, [sp, #8]
  027b8	e28300ac	 add         r0, r3, #0xAC
  027bc	eb000000	 bl          DeleteCriticalSection

; 2044 :     DeleteCriticalSection(&pPdd->RxUpdatePtrCS);

  027c0	e59d3008	 ldr         r3, [sp, #8]
  027c4	e28300c0	 add         r0, r3, #0xC0
  027c8	eb000000	 bl          DeleteCriticalSection

; 2045 : 
; 2046 :     if (pPdd->txEvent != NULL) CloseHandle(pPdd->txEvent);

  027cc	e59d3008	 ldr         r3, [sp, #8]
  027d0	e28330d4	 add         r3, r3, #0xD4
  027d4	e5933000	 ldr         r3, [r3]
  027d8	e3530000	 cmp         r3, #0
  027dc	0a000003	 beq         |$LN6@HWDeinit|
  027e0	e59d3008	 ldr         r3, [sp, #8]
  027e4	e28330d4	 add         r3, r3, #0xD4
  027e8	e5930000	 ldr         r0, [r3]
  027ec	eb000000	 bl          CloseHandle
  027f0		 |$LN6@HWDeinit|

; 2047 : 
; 2048 :     if (pPdd->RxDmaInfo)

  027f0	e59d3008	 ldr         r3, [sp, #8]
  027f4	e2833f49	 add         r3, r3, #0x49, 30
  027f8	e5933000	 ldr         r3, [r3]
  027fc	e3530000	 cmp         r3, #0
  02800	0a000012	 beq         |$LN5@HWDeinit|

; 2049 :     {
; 2050 :         DmaStop(pPdd->RxDmaInfo);

  02804	e59d3008	 ldr         r3, [sp, #8]
  02808	e2833f49	 add         r3, r3, #0x49, 30
  0280c	e5930000	 ldr         r0, [r3]
  02810	eb000000	 bl          DmaStop

; 2051 : 
; 2052 :         if(!DmaEnableInterrupts(pPdd->hRxDmaChannel, NULL))

  02814	e3a01000	 mov         r1, #0
  02818	e59d3008	 ldr         r3, [sp, #8]
  0281c	e2833f4b	 add         r3, r3, #0x4B, 30
  02820	e5930000	 ldr         r0, [r3]
  02824	eb000000	 bl          DmaEnableInterrupts
  02828	e58d001c	 str         r0, [sp, #0x1C]
  0282c	e59d301c	 ldr         r3, [sp, #0x1C]
  02830	e3530000	 cmp         r3, #0
  02834	1a000001	 bne         |$LN4@HWDeinit|

; 2053 :         {
; 2054 :             RETAILMSG(1, (L"UART:HWDeinit:DmaEnableInterrupts failed\r\n"));

  02838	e59f0100	 ldr         r0, [pc, #0x100]
  0283c	eb000000	 bl          NKDbgPrintfW
  02840		 |$LN4@HWDeinit|

; 2055 :         }
; 2056 :         LocalFree(pPdd->RxDmaInfo);

  02840	e59d3008	 ldr         r3, [sp, #8]
  02844	e2833f49	 add         r3, r3, #0x49, 30
  02848	e5930000	 ldr         r0, [r3]
  0284c	eb000000	 bl          LocalFree
  02850		 |$LN5@HWDeinit|

; 2057 :     }
; 2058 :     if (pPdd->TxDmaInfo)

  02850	e59d3008	 ldr         r3, [sp, #8]
  02854	e2833c01	 add         r3, r3, #1, 24
  02858	e5933000	 ldr         r3, [r3]
  0285c	e3530000	 cmp         r3, #0
  02860	0a000007	 beq         |$LN3@HWDeinit|

; 2059 :     {
; 2060 :         DmaStop(pPdd->TxDmaInfo);

  02864	e59d3008	 ldr         r3, [sp, #8]
  02868	e2833c01	 add         r3, r3, #1, 24
  0286c	e5930000	 ldr         r0, [r3]
  02870	eb000000	 bl          DmaStop

; 2061 :         LocalFree(pPdd->TxDmaInfo);

  02874	e59d3008	 ldr         r3, [sp, #8]
  02878	e2833c01	 add         r3, r3, #1, 24
  0287c	e5930000	 ldr         r0, [r3]
  02880	eb000000	 bl          LocalFree
  02884		 |$LN3@HWDeinit|

; 2062 :     }
; 2063 : 
; 2064 :     // Free any allocated physical memory
; 2065 :     if (pPdd->pTxDmaBuffer)

  02884	e59d3008	 ldr         r3, [sp, #8]
