; Listing generated by Microsoft (R) Optimizing Compiler Version 14.01.60511.01 

	TTL	C:\WINCE600\PLATFORM\COMMON\SRC\SOC\COMMON_TI_V1\COMMON_TI\DSS\DSSAI\dssai_debug.cpp
	CODE32

  00000			 AREA	 |.drectve|, DRECTVE
	DCB	"-defaultlib:LIBCMT "
	DCB	"-defaultlib:OLDNAMES "

	EXPORT	|??_C@_15JNBOKNOG@?$AA?$AN?$AA?6?$AA?$AA@| [ DATA ] ; `string'
	EXPORT	|??_C@_1EC@FEGGENGL@?$AA?5?$AA?5?$AA?5?$AAD?$AAS?$AAS?$AA_?$AAS?$AAD?$AAI?$AA_?$AAS?$AAT?$AAA?$AAT?$AAU?$AAS?$AA?5?$AA?5?$AA?5?$AA?5?$AA?5?$AA?$DN?$AA?5?$AA0?$AAx?$AA?$CF?$AA0?$AA8?$AAx?$AA?$AN?$AA?6@| [ DATA ] ; `string'
	EXPORT	|??_C@_1EC@HLAGFNNE@?$AA?5?$AA?5?$AA?5?$AAD?$AAS?$AAS?$AA_?$AAP?$AAL?$AAL?$AA_?$AAC?$AAO?$AAN?$AAT?$AAR?$AAO?$AAL?$AA?5?$AA?5?$AA?5?$AA?5?$AA?$DN?$AA?5?$AA0?$AAx?$AA?$CF?$AA0?$AA8?$AAx?$AA?$AN?$AA?6@| [ DATA ] ; `string'
	EXPORT	|??_C@_1EC@PAILNMGB@?$AA?5?$AA?5?$AA?5?$AAD?$AAS?$AAS?$AA_?$AAS?$AAD?$AAI?$AA_?$AAC?$AAO?$AAN?$AAT?$AAR?$AAO?$AAL?$AA?5?$AA?5?$AA?5?$AA?5?$AA?$DN?$AA?5?$AA0?$AAx?$AA?$CF?$AA0?$AA8?$AAx?$AA?$AN?$AA?6@| [ DATA ] ; `string'
	EXPORT	|??_C@_1EC@LAMGBPBK@?$AA?5?$AA?5?$AA?5?$AAD?$AAS?$AAS?$AA_?$AAC?$AAO?$AAN?$AAT?$AAR?$AAO?$AAL?$AA?5?$AA?5?$AA?5?$AA?5?$AA?5?$AA?5?$AA?5?$AA?5?$AA?$DN?$AA?5?$AA0?$AAx?$AA?$CF?$AA0?$AA8?$AAx?$AA?$AN?$AA?6@| [ DATA ] ; `string'
	EXPORT	|??_C@_1EC@OCFGKLBM@?$AA?5?$AA?5?$AA?5?$AAD?$AAS?$AAS?$AA_?$AAS?$AAY?$AAS?$AAS?$AAT?$AAA?$AAT?$AAU?$AAS?$AA?5?$AA?5?$AA?5?$AA?5?$AA?5?$AA?5?$AA?$DN?$AA?5?$AA0?$AAx?$AA?$CF?$AA0?$AA8?$AAx?$AA?$AN?$AA?6@| [ DATA ] ; `string'
	EXPORT	|??_C@_1EC@GBOLEDMJ@?$AA?5?$AA?5?$AA?5?$AAD?$AAS?$AAS?$AA_?$AAS?$AAY?$AAS?$AAC?$AAO?$AAN?$AAF?$AAI?$AAG?$AA?5?$AA?5?$AA?5?$AA?5?$AA?5?$AA?5?$AA?$DN?$AA?5?$AA0?$AAx?$AA?$CF?$AA0?$AA8?$AAx?$AA?$AN?$AA?6@| [ DATA ] ; `string'
	EXPORT	|??_C@_1EC@IMLPMFGJ@?$AA?5?$AA?5?$AA?5?$AAD?$AAS?$AAS?$AA_?$AAR?$AAE?$AAV?$AAI?$AAS?$AAI?$AAO?$AAN?$AAN?$AAU?$AAM?$AAB?$AAE?$AAR?$AA?5?$AA?$DN?$AA?5?$AA0?$AAx?$AA?$CF?$AA0?$AA8?$AAx?$AA?$AN?$AA?6@| [ DATA ] ; `string'
	EXPORT	|??_C@_1CC@IIPCPAKB@?$AAD?$AAS?$AAS?$AA?5?$AAR?$AAe?$AAg?$AAi?$AAs?$AAt?$AAe?$AAr?$AAs?$AA?3?$AA?$AN?$AA?6?$AA?$AA@| [ DATA ] ; `string'
	EXPORT	|?Dump_DSS@@YAXPAUOMAP_DSS_REGS@@@Z|	; Dump_DSS
	IMPORT	|NKDbgPrintfW|

  00000			 AREA	 |.pdata|, PDATA
|$T36078| DCD	|$LN23@Dump_DSS|
	DCD	0x40006304
; File c:\wince600\platform\common\src\soc\common_ti_v1\common_ti\dss\dssai\dssai_debug.cpp

  00000			 AREA	 |.rdata|, DATA, READONLY
|??_C@_15JNBOKNOG@?$AA?$AN?$AA?6?$AA?$AA@| DCB 0xd, 0x0, 0xa, 0x0, 0x0, 0x0 ; `string'

  00000			 AREA	 |.rdata|, DATA, READONLY
|??_C@_1EC@FEGGENGL@?$AA?5?$AA?5?$AA?5?$AAD?$AAS?$AAS?$AA_?$AAS?$AAD?$AAI?$AA_?$AAS?$AAT?$AAA?$AAT?$AAU?$AAS?$AA?5?$AA?5?$AA?5?$AA?5?$AA?5?$AA?$DN?$AA?5?$AA0?$AAx?$AA?$CF?$AA0?$AA8?$AAx?$AA?$AN?$AA?6@| DCB " "
	DCB	0x0, " ", 0x0, " ", 0x0, "D", 0x0, "S", 0x0, "S", 0x0, "_"
	DCB	0x0, "S", 0x0, "D", 0x0, "I", 0x0, "_", 0x0, "S", 0x0, "T"
	DCB	0x0, "A", 0x0, "T", 0x0, "U", 0x0, "S", 0x0, " ", 0x0, " "
	DCB	0x0, " ", 0x0, " ", 0x0, " ", 0x0, "=", 0x0, " ", 0x0, "0"
	DCB	0x0, "x", 0x0, "%", 0x0, "0", 0x0, "8", 0x0, "x", 0x0, 0xd
	DCB	0x0, 0xa, 0x0, 0x0, 0x0			; `string'

  00000			 AREA	 |.rdata|, DATA, READONLY
|??_C@_1EC@HLAGFNNE@?$AA?5?$AA?5?$AA?5?$AAD?$AAS?$AAS?$AA_?$AAP?$AAL?$AAL?$AA_?$AAC?$AAO?$AAN?$AAT?$AAR?$AAO?$AAL?$AA?5?$AA?5?$AA?5?$AA?5?$AA?$DN?$AA?5?$AA0?$AAx?$AA?$CF?$AA0?$AA8?$AAx?$AA?$AN?$AA?6@| DCB " "
	DCB	0x0, " ", 0x0, " ", 0x0, "D", 0x0, "S", 0x0, "S", 0x0, "_"
	DCB	0x0, "P", 0x0, "L", 0x0, "L", 0x0, "_", 0x0, "C", 0x0, "O"
	DCB	0x0, "N", 0x0, "T", 0x0, "R", 0x0, "O", 0x0, "L", 0x0, " "
	DCB	0x0, " ", 0x0, " ", 0x0, " ", 0x0, "=", 0x0, " ", 0x0, "0"
	DCB	0x0, "x", 0x0, "%", 0x0, "0", 0x0, "8", 0x0, "x", 0x0, 0xd
	DCB	0x0, 0xa, 0x0, 0x0, 0x0			; `string'

  00000			 AREA	 |.rdata|, DATA, READONLY
|??_C@_1EC@PAILNMGB@?$AA?5?$AA?5?$AA?5?$AAD?$AAS?$AAS?$AA_?$AAS?$AAD?$AAI?$AA_?$AAC?$AAO?$AAN?$AAT?$AAR?$AAO?$AAL?$AA?5?$AA?5?$AA?5?$AA?5?$AA?$DN?$AA?5?$AA0?$AAx?$AA?$CF?$AA0?$AA8?$AAx?$AA?$AN?$AA?6@| DCB " "
	DCB	0x0, " ", 0x0, " ", 0x0, "D", 0x0, "S", 0x0, "S", 0x0, "_"
	DCB	0x0, "S", 0x0, "D", 0x0, "I", 0x0, "_", 0x0, "C", 0x0, "O"
	DCB	0x0, "N", 0x0, "T", 0x0, "R", 0x0, "O", 0x0, "L", 0x0, " "
	DCB	0x0, " ", 0x0, " ", 0x0, " ", 0x0, "=", 0x0, " ", 0x0, "0"
	DCB	0x0, "x", 0x0, "%", 0x0, "0", 0x0, "8", 0x0, "x", 0x0, 0xd
	DCB	0x0, 0xa, 0x0, 0x0, 0x0			; `string'

  00000			 AREA	 |.rdata|, DATA, READONLY
|??_C@_1EC@LAMGBPBK@?$AA?5?$AA?5?$AA?5?$AAD?$AAS?$AAS?$AA_?$AAC?$AAO?$AAN?$AAT?$AAR?$AAO?$AAL?$AA?5?$AA?5?$AA?5?$AA?5?$AA?5?$AA?5?$AA?5?$AA?5?$AA?$DN?$AA?5?$AA0?$AAx?$AA?$CF?$AA0?$AA8?$AAx?$AA?$AN?$AA?6@| DCB " "
	DCB	0x0, " ", 0x0, " ", 0x0, "D", 0x0, "S", 0x0, "S", 0x0, "_"
	DCB	0x0, "C", 0x0, "O", 0x0, "N", 0x0, "T", 0x0, "R", 0x0, "O"
	DCB	0x0, "L", 0x0, " ", 0x0, " ", 0x0, " ", 0x0, " ", 0x0, " "
	DCB	0x0, " ", 0x0, " ", 0x0, " ", 0x0, "=", 0x0, " ", 0x0, "0"
	DCB	0x0, "x", 0x0, "%", 0x0, "0", 0x0, "8", 0x0, "x", 0x0, 0xd
	DCB	0x0, 0xa, 0x0, 0x0, 0x0			; `string'

  00000			 AREA	 |.rdata|, DATA, READONLY
|??_C@_1EC@OCFGKLBM@?$AA?5?$AA?5?$AA?5?$AAD?$AAS?$AAS?$AA_?$AAS?$AAY?$AAS?$AAS?$AAT?$AAA?$AAT?$AAU?$AAS?$AA?5?$AA?5?$AA?5?$AA?5?$AA?5?$AA?5?$AA?$DN?$AA?5?$AA0?$AAx?$AA?$CF?$AA0?$AA8?$AAx?$AA?$AN?$AA?6@| DCB " "
	DCB	0x0, " ", 0x0, " ", 0x0, "D", 0x0, "S", 0x0, "S", 0x0, "_"
	DCB	0x0, "S", 0x0, "Y", 0x0, "S", 0x0, "S", 0x0, "T", 0x0, "A"
	DCB	0x0, "T", 0x0, "U", 0x0, "S", 0x0, " ", 0x0, " ", 0x0, " "
	DCB	0x0, " ", 0x0, " ", 0x0, " ", 0x0, "=", 0x0, " ", 0x0, "0"
	DCB	0x0, "x", 0x0, "%", 0x0, "0", 0x0, "8", 0x0, "x", 0x0, 0xd
	DCB	0x0, 0xa, 0x0, 0x0, 0x0			; `string'

  00000			 AREA	 |.rdata|, DATA, READONLY
|??_C@_1EC@GBOLEDMJ@?$AA?5?$AA?5?$AA?5?$AAD?$AAS?$AAS?$AA_?$AAS?$AAY?$AAS?$AAC?$AAO?$AAN?$AAF?$AAI?$AAG?$AA?5?$AA?5?$AA?5?$AA?5?$AA?5?$AA?5?$AA?$DN?$AA?5?$AA0?$AAx?$AA?$CF?$AA0?$AA8?$AAx?$AA?$AN?$AA?6@| DCB " "
	DCB	0x0, " ", 0x0, " ", 0x0, "D", 0x0, "S", 0x0, "S", 0x0, "_"
	DCB	0x0, "S", 0x0, "Y", 0x0, "S", 0x0, "C", 0x0, "O", 0x0, "N"
	DCB	0x0, "F", 0x0, "I", 0x0, "G", 0x0, " ", 0x0, " ", 0x0, " "
	DCB	0x0, " ", 0x0, " ", 0x0, " ", 0x0, "=", 0x0, " ", 0x0, "0"
	DCB	0x0, "x", 0x0, "%", 0x0, "0", 0x0, "8", 0x0, "x", 0x0, 0xd
	DCB	0x0, 0xa, 0x0, 0x0, 0x0			; `string'

  00000			 AREA	 |.rdata|, DATA, READONLY
|??_C@_1EC@IMLPMFGJ@?$AA?5?$AA?5?$AA?5?$AAD?$AAS?$AAS?$AA_?$AAR?$AAE?$AAV?$AAI?$AAS?$AAI?$AAO?$AAN?$AAN?$AAU?$AAM?$AAB?$AAE?$AAR?$AA?5?$AA?$DN?$AA?5?$AA0?$AAx?$AA?$CF?$AA0?$AA8?$AAx?$AA?$AN?$AA?6@| DCB " "
	DCB	0x0, " ", 0x0, " ", 0x0, "D", 0x0, "S", 0x0, "S", 0x0, "_"
	DCB	0x0, "R", 0x0, "E", 0x0, "V", 0x0, "I", 0x0, "S", 0x0, "I"
	DCB	0x0, "O", 0x0, "N", 0x0, "N", 0x0, "U", 0x0, "M", 0x0, "B"
	DCB	0x0, "E", 0x0, "R", 0x0, " ", 0x0, "=", 0x0, " ", 0x0, "0"
	DCB	0x0, "x", 0x0, "%", 0x0, "0", 0x0, "8", 0x0, "x", 0x0, 0xd
	DCB	0x0, 0xa, 0x0, 0x0, 0x0			; `string'

  00000			 AREA	 |.rdata|, DATA, READONLY
|??_C@_1CC@IIPCPAKB@?$AAD?$AAS?$AAS?$AA?5?$AAR?$AAe?$AAg?$AAi?$AAs?$AAt?$AAe?$AAr?$AAs?$AA?3?$AA?$AN?$AA?6?$AA?$AA@| DCB "D"
	DCB	0x0, "S", 0x0, "S", 0x0, " ", 0x0, "R", 0x0, "e", 0x0, "g"
	DCB	0x0, "i", 0x0, "s", 0x0, "t", 0x0, "e", 0x0, "r", 0x0, "s"
	DCB	0x0, ":", 0x0, 0xd, 0x0, 0xa, 0x0, 0x0, 0x0 ; `string'
; Function compile flags: /Odtp

  00000			 AREA	 |.text|, CODE, ARM

  00000		 |?Dump_DSS@@YAXPAUOMAP_DSS_REGS@@@Z| PROC ; Dump_DSS

; 25   : {

  00000		 |$LN23@Dump_DSS|
  00000	e1a0c00d	 mov         r12, sp
  00004	e92d0001	 stmdb       sp!, {r0}
  00008	e92d5000	 stmdb       sp!, {r12, lr}
  0000c	e24dd024	 sub         sp, sp, #0x24
  00010		 |$M36075|

; 26   :     DEBUGMSG(DUMP_DSS, (L"DSS Registers:\r\n"));

  00010	e59f0170	 ldr         r0, [pc, #0x170]
  00014	eb000000	 bl          NKDbgPrintfW
  00018	e3a03001	 mov         r3, #1
  0001c	e58d3000	 str         r3, [sp]
  00020	ea000001	 b           |$LN4@Dump_DSS|
  00024	e3a03000	 mov         r3, #0
  00028	e58d3000	 str         r3, [sp]
  0002c		 |$LN4@Dump_DSS|

; 27   :     DEBUGMSG(DUMP_DSS, (L"   DSS_REVISIONNUMBER = 0x%08x\r\n", INREG32(&pRegs->DSS_REVISIONNUMBER)));

  0002c	e59d302c	 ldr         r3, [sp, #0x2C]
  00030	e5931000	 ldr         r1, [r3]
  00034	e59f0148	 ldr         r0, [pc, #0x148]
  00038	eb000000	 bl          NKDbgPrintfW
  0003c	e3a03001	 mov         r3, #1
  00040	e58d3004	 str         r3, [sp, #4]
  00044	ea000001	 b           |$LN6@Dump_DSS|
  00048	e3a03000	 mov         r3, #0
  0004c	e58d3004	 str         r3, [sp, #4]
  00050		 |$LN6@Dump_DSS|

; 28   :     DEBUGMSG(DUMP_DSS, (L"   DSS_SYSCONFIG      = 0x%08x\r\n", INREG32(&pRegs->DSS_SYSCONFIG)));

  00050	e59d302c	 ldr         r3, [sp, #0x2C]
  00054	e2833010	 add         r3, r3, #0x10
  00058	e5931000	 ldr         r1, [r3]
  0005c	e59f011c	 ldr         r0, [pc, #0x11C]
  00060	eb000000	 bl          NKDbgPrintfW
  00064	e3a03001	 mov         r3, #1
  00068	e58d3008	 str         r3, [sp, #8]
  0006c	ea000001	 b           |$LN8@Dump_DSS|
  00070	e3a03000	 mov         r3, #0
  00074	e58d3008	 str         r3, [sp, #8]
  00078		 |$LN8@Dump_DSS|

; 29   :     DEBUGMSG(DUMP_DSS, (L"   DSS_SYSSTATUS      = 0x%08x\r\n", INREG32(&pRegs->DSS_SYSSTATUS)));

  00078	e59d302c	 ldr         r3, [sp, #0x2C]
  0007c	e2833014	 add         r3, r3, #0x14
  00080	e5931000	 ldr         r1, [r3]
  00084	e59f00f0	 ldr         r0, [pc, #0xF0]
  00088	eb000000	 bl          NKDbgPrintfW
  0008c	e3a03001	 mov         r3, #1
  00090	e58d300c	 str         r3, [sp, #0xC]
  00094	ea000001	 b           |$LN10@Dump_DSS|
  00098	e3a03000	 mov         r3, #0
  0009c	e58d300c	 str         r3, [sp, #0xC]
  000a0		 |$LN10@Dump_DSS|

; 30   :     DEBUGMSG(DUMP_DSS, (L"   DSS_CONTROL        = 0x%08x\r\n", INREG32(&pRegs->DSS_CONTROL)));

  000a0	e59d302c	 ldr         r3, [sp, #0x2C]
  000a4	e2833040	 add         r3, r3, #0x40
  000a8	e5931000	 ldr         r1, [r3]
  000ac	e59f00c4	 ldr         r0, [pc, #0xC4]
  000b0	eb000000	 bl          NKDbgPrintfW
  000b4	e3a03001	 mov         r3, #1
  000b8	e58d3010	 str         r3, [sp, #0x10]
  000bc	ea000001	 b           |$LN12@Dump_DSS|
  000c0	e3a03000	 mov         r3, #0
  000c4	e58d3010	 str         r3, [sp, #0x10]
  000c8		 |$LN12@Dump_DSS|

; 31   :     DEBUGMSG(DUMP_DSS, (L"   DSS_SDI_CONTROL    = 0x%08x\r\n", INREG32(&pRegs->DSS_SDI_CONTROL)));

  000c8	e59d302c	 ldr         r3, [sp, #0x2C]
  000cc	e2833044	 add         r3, r3, #0x44
  000d0	e5931000	 ldr         r1, [r3]
  000d4	e59f0098	 ldr         r0, [pc, #0x98]
  000d8	eb000000	 bl          NKDbgPrintfW
  000dc	e3a03001	 mov         r3, #1
  000e0	e58d3014	 str         r3, [sp, #0x14]
  000e4	ea000001	 b           |$LN14@Dump_DSS|
  000e8	e3a03000	 mov         r3, #0
  000ec	e58d3014	 str         r3, [sp, #0x14]
  000f0		 |$LN14@Dump_DSS|

; 32   :     DEBUGMSG(DUMP_DSS, (L"   DSS_PLL_CONTROL    = 0x%08x\r\n", INREG32(&pRegs->DSS_PLL_CONTROL)));

  000f0	e59d302c	 ldr         r3, [sp, #0x2C]
  000f4	e2833048	 add         r3, r3, #0x48
  000f8	e5931000	 ldr         r1, [r3]
  000fc	e59f006c	 ldr         r0, [pc, #0x6C]
  00100	eb000000	 bl          NKDbgPrintfW
  00104	e3a03001	 mov         r3, #1
  00108	e58d3018	 str         r3, [sp, #0x18]
  0010c	ea000001	 b           |$LN16@Dump_DSS|
  00110	e3a03000	 mov         r3, #0
  00114	e58d3018	 str         r3, [sp, #0x18]
  00118		 |$LN16@Dump_DSS|

; 33   :     DEBUGMSG(DUMP_DSS, (L"   DSS_SDI_STATUS     = 0x%08x\r\n", INREG32(&pRegs->DSS_SDI_STATUS)));

  00118	e59d302c	 ldr         r3, [sp, #0x2C]
  0011c	e283305c	 add         r3, r3, #0x5C
  00120	e5931000	 ldr         r1, [r3]
  00124	e59f0040	 ldr         r0, [pc, #0x40]
  00128	eb000000	 bl          NKDbgPrintfW
  0012c	e3a03001	 mov         r3, #1
  00130	e58d301c	 str         r3, [sp, #0x1C]
  00134	ea000001	 b           |$LN18@Dump_DSS|
  00138	e3a03000	 mov         r3, #0
  0013c	e58d301c	 str         r3, [sp, #0x1C]
  00140		 |$LN18@Dump_DSS|

; 34   :     DEBUGMSG(DUMP_DSS, (L"\r\n"));

  00140	e59f0020	 ldr         r0, [pc, #0x20]
  00144	eb000000	 bl          NKDbgPrintfW
  00148	e3a03001	 mov         r3, #1
  0014c	e58d3020	 str         r3, [sp, #0x20]
  00150	ea000001	 b           |$LN20@Dump_DSS|
  00154	e3a03000	 mov         r3, #0
  00158	e58d3020	 str         r3, [sp, #0x20]
  0015c		 |$LN20@Dump_DSS|

; 35   : }

  0015c	e28dd024	 add         sp, sp, #0x24
  00160	e89d6000	 ldmia       sp, {sp, lr}
  00164	e12fff1e	 bx          lr
  00168		 |$LN24@Dump_DSS|
  00168		 |$LN25@Dump_DSS|
  00168	00000000	 DCD         |??_C@_15JNBOKNOG@?$AA?$AN?$AA?6?$AA?$AA@|
  0016c		 |$LN26@Dump_DSS|
  0016c	00000000	 DCD         |??_C@_1EC@FEGGENGL@?$AA?5?$AA?5?$AA?5?$AAD?$AAS?$AAS?$AA_?$AAS?$AAD?$AAI?$AA_?$AAS?$AAT?$AAA?$AAT?$AAU?$AAS?$AA?5?$AA?5?$AA?5?$AA?5?$AA?5?$AA?$DN?$AA?5?$AA0?$AAx?$AA?$CF?$AA0?$AA8?$AAx?$AA?$AN?$AA?6@|
  00170		 |$LN27@Dump_DSS|
  00170	00000000	 DCD         |??_C@_1EC@HLAGFNNE@?$AA?5?$AA?5?$AA?5?$AAD?$AAS?$AAS?$AA_?$AAP?$AAL?$AAL?$AA_?$AAC?$AAO?$AAN?$AAT?$AAR?$AAO?$AAL?$AA?5?$AA?5?$AA?5?$AA?5?$AA?$DN?$AA?5?$AA0?$AAx?$AA?$CF?$AA0?$AA8?$AAx?$AA?$AN?$AA?6@|
  00174		 |$LN28@Dump_DSS|
  00174	00000000	 DCD         |??_C@_1EC@PAILNMGB@?$AA?5?$AA?5?$AA?5?$AAD?$AAS?$AAS?$AA_?$AAS?$AAD?$AAI?$AA_?$AAC?$AAO?$AAN?$AAT?$AAR?$AAO?$AAL?$AA?5?$AA?5?$AA?5?$AA?5?$AA?$DN?$AA?5?$AA0?$AAx?$AA?$CF?$AA0?$AA8?$AAx?$AA?$AN?$AA?6@|
  00178		 |$LN29@Dump_DSS|
  00178	00000000	 DCD         |??_C@_1EC@LAMGBPBK@?$AA?5?$AA?5?$AA?5?$AAD?$AAS?$AAS?$AA_?$AAC?$AAO?$AAN?$AAT?$AAR?$AAO?$AAL?$AA?5?$AA?5?$AA?5?$AA?5?$AA?5?$AA?5?$AA?5?$AA?5?$AA?$DN?$AA?5?$AA0?$AAx?$AA?$CF?$AA0?$AA8?$AAx?$AA?$AN?$AA?6@|
  0017c		 |$LN30@Dump_DSS|
  0017c	00000000	 DCD         |??_C@_1EC@OCFGKLBM@?$AA?5?$AA?5?$AA?5?$AAD?$AAS?$AAS?$AA_?$AAS?$AAY?$AAS?$AAS?$AAT?$AAA?$AAT?$AAU?$AAS?$AA?5?$AA?5?$AA?5?$AA?5?$AA?5?$AA?5?$AA?$DN?$AA?5?$AA0?$AAx?$AA?$CF?$AA0?$AA8?$AAx?$AA?$AN?$AA?6@|
  00180		 |$LN31@Dump_DSS|
  00180	00000000	 DCD         |??_C@_1EC@GBOLEDMJ@?$AA?5?$AA?5?$AA?5?$AAD?$AAS?$AAS?$AA_?$AAS?$AAY?$AAS?$AAC?$AAO?$AAN?$AAF?$AAI?$AAG?$AA?5?$AA?5?$AA?5?$AA?5?$AA?5?$AA?5?$AA?$DN?$AA?5?$AA0?$AAx?$AA?$CF?$AA0?$AA8?$AAx?$AA?$AN?$AA?6@|
  00184		 |$LN32@Dump_DSS|
  00184	00000000	 DCD         |??_C@_1EC@IMLPMFGJ@?$AA?5?$AA?5?$AA?5?$AAD?$AAS?$AAS?$AA_?$AAR?$AAE?$AAV?$AAI?$AAS?$AAI?$AAO?$AAN?$AAN?$AAU?$AAM?$AAB?$AAE?$AAR?$AA?5?$AA?$DN?$AA?5?$AA0?$AAx?$AA?$CF?$AA0?$AA8?$AAx?$AA?$AN?$AA?6@|
  00188		 |$LN33@Dump_DSS|
  00188	00000000	 DCD         |??_C@_1CC@IIPCPAKB@?$AAD?$AAS?$AAS?$AA?5?$AAR?$AAe?$AAg?$AAi?$AAs?$AAt?$AAe?$AAr?$AAs?$AA?3?$AA?$AN?$AA?6?$AA?$AA@|
  0018c		 |$M36076|

			 ENDP  ; |?Dump_DSS@@YAXPAUOMAP_DSS_REGS@@@Z|, Dump_DSS

	EXPORT	|??_C@_1EC@GMBNGEDJ@?$AA?5?$AA?5?$AA?5?$AAD?$AAI?$AAS?$AAP?$AAC?$AA_?$AAI?$AAR?$AAQ?$AAE?$AAN?$AAA?$AAB?$AAL?$AAE?$AA?5?$AA?5?$AA?5?$AA?5?$AA?$DN?$AA?5?$AA0?$AAx?$AA?$CF?$AA0?$AA8?$AAx?$AA?$AN?$AA?6@| [ DATA ] ; `string'
	EXPORT	|??_C@_1EC@IGPAJAGN@?$AA?5?$AA?5?$AA?5?$AAD?$AAI?$AAS?$AAP?$AAC?$AA_?$AAI?$AAR?$AAQ?$AAS?$AAT?$AAA?$AAT?$AAU?$AAS?$AA?5?$AA?5?$AA?5?$AA?5?$AA?$DN?$AA?5?$AA0?$AAx?$AA?$CF?$AA0?$AA8?$AAx?$AA?$AN?$AA?6@| [ DATA ] ; `string'
	EXPORT	|??_C@_1EC@DKDFOEFN@?$AA?5?$AA?5?$AA?5?$AAD?$AAI?$AAS?$AAP?$AAC?$AA_?$AAS?$AAY?$AAS?$AAS?$AAT?$AAA?$AAT?$AAU?$AAS?$AA?5?$AA?5?$AA?5?$AA?5?$AA?$DN?$AA?5?$AA0?$AAx?$AA?$CF?$AA0?$AA8?$AAx?$AA?$AN?$AA?6@| [ DATA ] ; `string'
	EXPORT	|??_C@_1EC@BIMMNDHO@?$AA?5?$AA?5?$AA?5?$AAD?$AAI?$AAS?$AAP?$AAC?$AA_?$AAS?$AAY?$AAS?$AAC?$AAO?$AAN?$AAF?$AAI?$AAG?$AA?5?$AA?5?$AA?5?$AA?5?$AA?$DN?$AA?5?$AA0?$AAx?$AA?$CF?$AA0?$AA8?$AAx?$AA?$AN?$AA?6@| [ DATA ] ; `string'
	EXPORT	|??_C@_1EC@GPJIFPGJ@?$AA?5?$AA?5?$AA?5?$AAD?$AAI?$AAS?$AAP?$AAC?$AA_?$AAR?$AAE?$AAV?$AAI?$AAS?$AAI?$AAO?$AAN?$AA?5?$AA?5?$AA?5?$AA?5?$AA?5?$AA?$DN?$AA?5?$AA0?$AAx?$AA?$CF?$AA0?$AA8?$AAx?$AA?$AN?$AA?6@| [ DATA ] ; `string'
	EXPORT	|??_C@_1CG@EGPEHNB@?$AAD?$AAI?$AAS?$AAP?$AAC?$AA?5?$AAR?$AAe?$AAg?$AAi?$AAs?$AAt?$AAe?$AAr?$AAs?$AA?3?$AA?$AN?$AA?6?$AA?$AA@| [ DATA ] ; `string'
	EXPORT	|?Dump_DISPC@@YAXPAUOMAP_DISPC_REGS@@@Z| ; Dump_DISPC

  00008			 AREA	 |.pdata|, PDATA
|$T36107| DCD	|$LN19@Dump_DISPC|
	DCD	0x40004d04

  00000			 AREA	 |.rdata|, DATA, READONLY
|??_C@_1EC@GMBNGEDJ@?$AA?5?$AA?5?$AA?5?$AAD?$AAI?$AAS?$AAP?$AAC?$AA_?$AAI?$AAR?$AAQ?$AAE?$AAN?$AAA?$AAB?$AAL?$AAE?$AA?5?$AA?5?$AA?5?$AA?5?$AA?$DN?$AA?5?$AA0?$AAx?$AA?$CF?$AA0?$AA8?$AAx?$AA?$AN?$AA?6@| DCB " "
	DCB	0x0, " ", 0x0, " ", 0x0, "D", 0x0, "I", 0x0, "S", 0x0, "P"
	DCB	0x0, "C", 0x0, "_", 0x0, "I", 0x0, "R", 0x0, "Q", 0x0, "E"
	DCB	0x0, "N", 0x0, "A", 0x0, "B", 0x0, "L", 0x0, "E", 0x0, " "
	DCB	0x0, " ", 0x0, " ", 0x0, " ", 0x0, "=", 0x0, " ", 0x0, "0"
	DCB	0x0, "x", 0x0, "%", 0x0, "0", 0x0, "8", 0x0, "x", 0x0, 0xd
	DCB	0x0, 0xa, 0x0, 0x0, 0x0			; `string'

  00000			 AREA	 |.rdata|, DATA, READONLY
|??_C@_1EC@IGPAJAGN@?$AA?5?$AA?5?$AA?5?$AAD?$AAI?$AAS?$AAP?$AAC?$AA_?$AAI?$AAR?$AAQ?$AAS?$AAT?$AAA?$AAT?$AAU?$AAS?$AA?5?$AA?5?$AA?5?$AA?5?$AA?$DN?$AA?5?$AA0?$AAx?$AA?$CF?$AA0?$AA8?$AAx?$AA?$AN?$AA?6@| DCB " "
	DCB	0x0, " ", 0x0, " ", 0x0, "D", 0x0, "I", 0x0, "S", 0x0, "P"
	DCB	0x0, "C", 0x0, "_", 0x0, "I", 0x0, "R", 0x0, "Q", 0x0, "S"
	DCB	0x0, "T", 0x0, "A", 0x0, "T", 0x0, "U", 0x0, "S", 0x0, " "
	DCB	0x0, " ", 0x0, " ", 0x0, " ", 0x0, "=", 0x0, " ", 0x0, "0"
	DCB	0x0, "x", 0x0, "%", 0x0, "0", 0x0, "8", 0x0, "x", 0x0, 0xd
	DCB	0x0, 0xa, 0x0, 0x0, 0x0			; `string'

  00000			 AREA	 |.rdata|, DATA, READONLY
|??_C@_1EC@DKDFOEFN@?$AA?5?$AA?5?$AA?5?$AAD?$AAI?$AAS?$AAP?$AAC?$AA_?$AAS?$AAY?$AAS?$AAS?$AAT?$AAA?$AAT?$AAU?$AAS?$AA?5?$AA?5?$AA?5?$AA?5?$AA?$DN?$AA?5?$AA0?$AAx?$AA?$CF?$AA0?$AA8?$AAx?$AA?$AN?$AA?6@| DCB " "
	DCB	0x0, " ", 0x0, " ", 0x0, "D", 0x0, "I", 0x0, "S", 0x0, "P"
	DCB	0x0, "C", 0x0, "_", 0x0, "S", 0x0, "Y", 0x0, "S", 0x0, "S"
	DCB	0x0, "T", 0x0, "A", 0x0, "T", 0x0, "U", 0x0, "S", 0x0, " "
	DCB	0x0, " ", 0x0, " ", 0x0, " ", 0x0, "=", 0x0, " ", 0x0, "0"
	DCB	0x0, "x", 0x0, "%", 0x0, "0", 0x0, "8", 0x0, "x", 0x0, 0xd
	DCB	0x0, 0xa, 0x0, 0x0, 0x0			; `string'

  00000			 AREA	 |.rdata|, DATA, READONLY
|??_C@_1EC@BIMMNDHO@?$AA?5?$AA?5?$AA?5?$AAD?$AAI?$AAS?$AAP?$AAC?$AA_?$AAS?$AAY?$AAS?$AAC?$AAO?$AAN?$AAF?$AAI?$AAG?$AA?5?$AA?5?$AA?5?$AA?5?$AA?$DN?$AA?5?$AA0?$AAx?$AA?$CF?$AA0?$AA8?$AAx?$AA?$AN?$AA?6@| DCB " "
	DCB	0x0, " ", 0x0, " ", 0x0, "D", 0x0, "I", 0x0, "S", 0x0, "P"
	DCB	0x0, "C", 0x0, "_", 0x0, "S", 0x0, "Y", 0x0, "S", 0x0, "C"
	DCB	0x0, "O", 0x0, "N", 0x0, "F", 0x0, "I", 0x0, "G", 0x0, " "
	DCB	0x0, " ", 0x0, " ", 0x0, " ", 0x0, "=", 0x0, " ", 0x0, "0"
	DCB	0x0, "x", 0x0, "%", 0x0, "0", 0x0, "8", 0x0, "x", 0x0, 0xd
	DCB	0x0, 0xa, 0x0, 0x0, 0x0			; `string'

  00000			 AREA	 |.rdata|, DATA, READONLY
|??_C@_1EC@GPJIFPGJ@?$AA?5?$AA?5?$AA?5?$AAD?$AAI?$AAS?$AAP?$AAC?$AA_?$AAR?$AAE?$AAV?$AAI?$AAS?$AAI?$AAO?$AAN?$AA?5?$AA?5?$AA?5?$AA?5?$AA?5?$AA?$DN?$AA?5?$AA0?$AAx?$AA?$CF?$AA0?$AA8?$AAx?$AA?$AN?$AA?6@| DCB " "
	DCB	0x0, " ", 0x0, " ", 0x0, "D", 0x0, "I", 0x0, "S", 0x0, "P"
	DCB	0x0, "C", 0x0, "_", 0x0, "R", 0x0, "E", 0x0, "V", 0x0, "I"
	DCB	0x0, "S", 0x0, "I", 0x0, "O", 0x0, "N", 0x0, " ", 0x0, " "
	DCB	0x0, " ", 0x0, " ", 0x0, " ", 0x0, "=", 0x0, " ", 0x0, "0"
	DCB	0x0, "x", 0x0, "%", 0x0, "0", 0x0, "8", 0x0, "x", 0x0, 0xd
	DCB	0x0, 0xa, 0x0, 0x0, 0x0			; `string'

  00000			 AREA	 |.rdata|, DATA, READONLY
|??_C@_1CG@EGPEHNB@?$AAD?$AAI?$AAS?$AAP?$AAC?$AA?5?$AAR?$AAe?$AAg?$AAi?$AAs?$AAt?$AAe?$AAr?$AAs?$AA?3?$AA?$AN?$AA?6?$AA?$AA@| DCB "D"
	DCB	0x0, "I", 0x0, "S", 0x0, "P", 0x0, "C", 0x0, " ", 0x0, "R"
	DCB	0x0, "e", 0x0, "g", 0x0, "i", 0x0, "s", 0x0, "t", 0x0, "e"
	DCB	0x0, "r", 0x0, "s", 0x0, ":", 0x0, 0xd, 0x0, 0xa, 0x0, 0x0
	DCB	0x0					; `string'
; Function compile flags: /Odtp

  0018c			 AREA	 |.text|, CODE, ARM

  0018c		 |?Dump_DISPC@@YAXPAUOMAP_DISPC_REGS@@@Z| PROC ; Dump_DISPC

; 42   : {

  0018c		 |$LN19@Dump_DISPC|
  0018c	e1a0c00d	 mov         r12, sp
  00190	e92d0001	 stmdb       sp!, {r0}
  00194	e92d5000	 stmdb       sp!, {r12, lr}
  00198	e24dd01c	 sub         sp, sp, #0x1C
  0019c		 |$M36104|

; 43   :     DEBUGMSG(DUMP_DISPC, (L"DISPC Registers:\r\n"));

  0019c	e59f0118	 ldr         r0, [pc, #0x118]
  001a0	eb000000	 bl          NKDbgPrintfW
  001a4	e3a03001	 mov         r3, #1
  001a8	e58d3000	 str         r3, [sp]
  001ac	ea000001	 b           |$LN4@Dump_DISPC|
  001b0	e3a03000	 mov         r3, #0
  001b4	e58d3000	 str         r3, [sp]
  001b8		 |$LN4@Dump_DISPC|

; 44   :     DEBUGMSG(DUMP_DISPC, (L"   DISPC_REVISION     = 0x%08x\r\n", INREG32(&pRegs->DISPC_REVISION)));

  001b8	e59d3024	 ldr         r3, [sp, #0x24]
  001bc	e5931000	 ldr         r1, [r3]
  001c0	e59f00f0	 ldr         r0, [pc, #0xF0]
  001c4	eb000000	 bl          NKDbgPrintfW
  001c8	e3a03001	 mov         r3, #1
  001cc	e58d3004	 str         r3, [sp, #4]
  001d0	ea000001	 b           |$LN6@Dump_DISPC|
  001d4	e3a03000	 mov         r3, #0
  001d8	e58d3004	 str         r3, [sp, #4]
  001dc		 |$LN6@Dump_DISPC|

; 45   :     DEBUGMSG(DUMP_DISPC, (L"   DISPC_SYSCONFIG    = 0x%08x\r\n", INREG32(&pRegs->DISPC_SYSCONFIG)));

  001dc	e59d3024	 ldr         r3, [sp, #0x24]
  001e0	e2833010	 add         r3, r3, #0x10
  001e4	e5931000	 ldr         r1, [r3]
  001e8	e59f00c4	 ldr         r0, [pc, #0xC4]
  001ec	eb000000	 bl          NKDbgPrintfW
  001f0	e3a03001	 mov         r3, #1
  001f4	e58d3008	 str         r3, [sp, #8]
  001f8	ea000001	 b           |$LN8@Dump_DISPC|
  001fc	e3a03000	 mov         r3, #0
  00200	e58d3008	 str         r3, [sp, #8]
  00204		 |$LN8@Dump_DISPC|

; 46   :     DEBUGMSG(DUMP_DISPC, (L"   DISPC_SYSSTATUS    = 0x%08x\r\n", INREG32(&pRegs->DISPC_SYSSTATUS)));

  00204	e59d3024	 ldr         r3, [sp, #0x24]
  00208	e2833014	 add         r3, r3, #0x14
  0020c	e5931000	 ldr         r1, [r3]
  00210	e59f0098	 ldr         r0, [pc, #0x98]
  00214	eb000000	 bl          NKDbgPrintfW
  00218	e3a03001	 mov         r3, #1
  0021c	e58d300c	 str         r3, [sp, #0xC]
  00220	ea000001	 b           |$LN10@Dump_DISPC|
  00224	e3a03000	 mov         r3, #0
  00228	e58d300c	 str         r3, [sp, #0xC]
  0022c		 |$LN10@Dump_DISPC|

; 47   :     DEBUGMSG(DUMP_DISPC, (L"   DISPC_IRQSTATUS    = 0x%08x\r\n", INREG32(&pRegs->DISPC_IRQSTATUS)));

  0022c	e59d3024	 ldr         r3, [sp, #0x24]
  00230	e2833018	 add         r3, r3, #0x18
  00234	e5931000	 ldr         r1, [r3]
  00238	e59f006c	 ldr         r0, [pc, #0x6C]
  0023c	eb000000	 bl          NKDbgPrintfW
  00240	e3a03001	 mov         r3, #1
  00244	e58d3010	 str         r3, [sp, #0x10]
  00248	ea000001	 b           |$LN12@Dump_DISPC|
  0024c	e3a03000	 mov         r3, #0
  00250	e58d3010	 str         r3, [sp, #0x10]
  00254		 |$LN12@Dump_DISPC|

; 48   :     DEBUGMSG(DUMP_DISPC, (L"   DISPC_IRQENABLE    = 0x%08x\r\n", INREG32(&pRegs->DISPC_IRQENABLE)));

  00254	e59d3024	 ldr         r3, [sp, #0x24]
  00258	e283301c	 add         r3, r3, #0x1C
  0025c	e5931000	 ldr         r1, [r3]
  00260	e59f0040	 ldr         r0, [pc, #0x40]
  00264	eb000000	 bl          NKDbgPrintfW
  00268	e3a03001	 mov         r3, #1
  0026c	e58d3014	 str         r3, [sp, #0x14]
  00270	ea000001	 b           |$LN14@Dump_DISPC|
  00274	e3a03000	 mov         r3, #0
  00278	e58d3014	 str         r3, [sp, #0x14]
  0027c		 |$LN14@Dump_DISPC|

; 49   :     DEBUGMSG(DUMP_DISPC, (L"\r\n"));

  0027c	e59f0020	 ldr         r0, [pc, #0x20]
  00280	eb000000	 bl          NKDbgPrintfW
  00284	e3a03001	 mov         r3, #1
  00288	e58d3018	 str         r3, [sp, #0x18]
  0028c	ea000001	 b           |$LN16@Dump_DISPC|
  00290	e3a03000	 mov         r3, #0
  00294	e58d3018	 str         r3, [sp, #0x18]
  00298		 |$LN16@Dump_DISPC|

; 50   : }

  00298	e28dd01c	 add         sp, sp, #0x1C
  0029c	e89d6000	 ldmia       sp, {sp, lr}
  002a0	e12fff1e	 bx          lr
  002a4		 |$LN20@Dump_DISPC|
  002a4		 |$LN21@Dump_DISPC|
  002a4	00000000	 DCD         |??_C@_15JNBOKNOG@?$AA?$AN?$AA?6?$AA?$AA@|
  002a8		 |$LN22@Dump_DISPC|
  002a8	00000000	 DCD         |??_C@_1EC@GMBNGEDJ@?$AA?5?$AA?5?$AA?5?$AAD?$AAI?$AAS?$AAP?$AAC?$AA_?$AAI?$AAR?$AAQ?$AAE?$AAN?$AAA?$AAB?$AAL?$AAE?$AA?5?$AA?5?$AA?5?$AA?5?$AA?$DN?$AA?5?$AA0?$AAx?$AA?$CF?$AA0?$AA8?$AAx?$AA?$AN?$AA?6@|
  002ac		 |$LN23@Dump_DISPC|
  002ac	00000000	 DCD         |??_C@_1EC@IGPAJAGN@?$AA?5?$AA?5?$AA?5?$AAD?$AAI?$AAS?$AAP?$AAC?$AA_?$AAI?$AAR?$AAQ?$AAS?$AAT?$AAA?$AAT?$AAU?$AAS?$AA?5?$AA?5?$AA?5?$AA?5?$AA?$DN?$AA?5?$AA0?$AAx?$AA?$CF?$AA0?$AA8?$AAx?$AA?$AN?$AA?6@|
  002b0		 |$LN24@Dump_DISPC|
  002b0	00000000	 DCD         |??_C@_1EC@DKDFOEFN@?$AA?5?$AA?5?$AA?5?$AAD?$AAI?$AAS?$AAP?$AAC?$AA_?$AAS?$AAY?$AAS?$AAS?$AAT?$AAA?$AAT?$AAU?$AAS?$AA?5?$AA?5?$AA?5?$AA?5?$AA?$DN?$AA?5?$AA0?$AAx?$AA?$CF?$AA0?$AA8?$AAx?$AA?$AN?$AA?6@|
  002b4		 |$LN25@Dump_DISPC|
  002b4	00000000	 DCD         |??_C@_1EC@BIMMNDHO@?$AA?5?$AA?5?$AA?5?$AAD?$AAI?$AAS?$AAP?$AAC?$AA_?$AAS?$AAY?$AAS?$AAC?$AAO?$AAN?$AAF?$AAI?$AAG?$AA?5?$AA?5?$AA?5?$AA?5?$AA?$DN?$AA?5?$AA0?$AAx?$AA?$CF?$AA0?$AA8?$AAx?$AA?$AN?$AA?6@|
  002b8		 |$LN26@Dump_DISPC|
  002b8	00000000	 DCD         |??_C@_1EC@GPJIFPGJ@?$AA?5?$AA?5?$AA?5?$AAD?$AAI?$AAS?$AAP?$AAC?$AA_?$AAR?$AAE?$AAV?$AAI?$AAS?$AAI?$AAO?$AAN?$AA?5?$AA?5?$AA?5?$AA?5?$AA?5?$AA?$DN?$AA?5?$AA0?$AAx?$AA?$CF?$AA0?$AA8?$AAx?$AA?$AN?$AA?6@|
  002bc		 |$LN27@Dump_DISPC|
  002bc	00000000	 DCD         |??_C@_1CG@EGPEHNB@?$AAD?$AAI?$AAS?$AAP?$AAC?$AA?5?$AAR?$AAe?$AAg?$AAi?$AAs?$AAt?$AAe?$AAr?$AAs?$AA?3?$AA?$AN?$AA?6?$AA?$AA@|
  002c0		 |$M36105|

			 ENDP  ; |?Dump_DISPC@@YAXPAUOMAP_DISPC_REGS@@@Z|, Dump_DISPC

	EXPORT	|??_C@_1EG@BDPDFAD@?$AA?5?$AA?5?$AA?5?$AAD?$AAI?$AAS?$AAP?$AAC?$AA_?$AAT?$AAR?$AAA?$AAN?$AAS?$AA_?$AAC?$AAO?$AAL?$AAO?$AAR?$AA1?$AA?5?$AA?5?$AA?5?$AA?$DN?$AA?5?$AA0?$AAx?$AA?$CF?$AA0?$AA8?$AAx@| [ DATA ] ; `string'
	EXPORT	|??_C@_1EG@DNFPNGAL@?$AA?5?$AA?5?$AA?5?$AAD?$AAI?$AAS?$AAP?$AAC?$AA_?$AAT?$AAR?$AAA?$AAN?$AAS?$AA_?$AAC?$AAO?$AAL?$AAO?$AAR?$AA0?$AA?5?$AA?5?$AA?5?$AA?$DN?$AA?5?$AA0?$AAx?$AA?$CF?$AA0?$AA8?$AAx@| [ DATA ] ; `string'
	EXPORT	|??_C@_1EG@LCFHPAOD@?$AA?5?$AA?5?$AA?5?$AAD?$AAI?$AAS?$AAP?$AAC?$AA_?$AAD?$AAE?$AAF?$AAA?$AAU?$AAL?$AAT?$AA_?$AAC?$AAO?$AAL?$AAO?$AAR?$AA1?$AA?5?$AA?$DN?$AA?5?$AA0?$AAx?$AA?$CF?$AA0?$AA8?$AAx@| [ DATA ] ; `string'
	EXPORT	|??_C@_1EG@FFEKFGHE@?$AA?5?$AA?5?$AA?5?$AAD?$AAI?$AAS?$AAP?$AAC?$AA_?$AAD?$AAE?$AAF?$AAA?$AAU?$AAL?$AAT?$AA_?$AAC?$AAO?$AAL?$AAO?$AAR?$AA0?$AA?5?$AA?$DN?$AA?5?$AA0?$AAx?$AA?$CF?$AA0?$AA8?$AAx@| [ DATA ] ; `string'
	EXPORT	|??_C@_1EG@IAPALBJG@?$AA?5?$AA?5?$AA?5?$AAD?$AAI?$AAS?$AAP?$AAC?$AA_?$AAC?$AAA?$AAP?$AAA?$AAB?$AAL?$AAE?$AA?5?$AA?5?$AA?5?$AA?5?$AA?5?$AA?5?$AA?5?$AA?5?$AA?$DN?$AA?5?$AA0?$AAx?$AA?$CF?$AA0?$AA8?$AAx@| [ DATA ] ; `string'
	EXPORT	|??_C@_1EG@ELFNNNMD@?$AA?5?$AA?5?$AA?5?$AAD?$AAI?$AAS?$AAP?$AAC?$AA_?$AAC?$AAO?$AAN?$AAF?$AAI?$AAG?$AA?5?$AA?5?$AA?5?$AA?5?$AA?5?$AA?5?$AA?5?$AA?5?$AA?5?$AA?$DN?$AA?5?$AA0?$AAx?$AA?$CF?$AA0?$AA8?$AAx@| [ DATA ] ; `string'
	EXPORT	|??_C@_1EG@OKGDLPJF@?$AA?5?$AA?5?$AA?5?$AAD?$AAI?$AAS?$AAP?$AAC?$AA_?$AAC?$AAO?$AAN?$AAT?$AAR?$AAO?$AAL?$AA?5?$AA?5?$AA?5?$AA?5?$AA?5?$AA?5?$AA?5?$AA?5?$AA?$DN?$AA?5?$AA0?$AAx?$AA?$CF?$AA0?$AA8?$AAx@| [ DATA ] ; `string'
	EXPORT	|??_C@_1DK@CNNHPFFC@?$AAD?$AAI?$AAS?$AAP?$AAC?$AA?5?$AAR?$AAe?$AAg?$AAi?$AAs?$AAt?$AAe?$AAr?$AAs?$AA?5?$AA?$CI?$AAC?$AAo?$AAn?$AAt?$AAr?$AAo?$AAl?$AA?$CJ?$AA?3?$AA?$AN?$AA?6?$AA?$AA@| [ DATA ] ; `string'
	EXPORT	|?Dump_DISPC_Control@@YAXPAUOMAP_DISPC_REGS@@@Z| ; Dump_DISPC_Control

  00010			 AREA	 |.pdata|, PDATA
|$T36138| DCD	|$LN23@Dump_DISPC@2|
	DCD	0x40006404

  00000			 AREA	 |.rdata|, DATA, READONLY
|??_C@_1EG@BDPDFAD@?$AA?5?$AA?5?$AA?5?$AAD?$AAI?$AAS?$AAP?$AAC?$AA_?$AAT?$AAR?$AAA?$AAN?$AAS?$AA_?$AAC?$AAO?$AAL?$AAO?$AAR?$AA1?$AA?5?$AA?5?$AA?5?$AA?$DN?$AA?5?$AA0?$AAx?$AA?$CF?$AA0?$AA8?$AAx@| DCB " "
	DCB	0x0, " ", 0x0, " ", 0x0, "D", 0x0, "I", 0x0, "S", 0x0, "P"
	DCB	0x0, "C", 0x0, "_", 0x0, "T", 0x0, "R", 0x0, "A", 0x0, "N"
	DCB	0x0, "S", 0x0, "_", 0x0, "C", 0x0, "O", 0x0, "L", 0x0, "O"
	DCB	0x0, "R", 0x0, "1", 0x0, " ", 0x0, " ", 0x0, " ", 0x0, "="
	DCB	0x0, " ", 0x0, "0", 0x0, "x", 0x0, "%", 0x0, "0", 0x0, "8"
	DCB	0x0, "x", 0x0, 0xd, 0x0, 0xa, 0x0, 0x0, 0x0 ; `string'

  00000			 AREA	 |.rdata|, DATA, READONLY
|??_C@_1EG@DNFPNGAL@?$AA?5?$AA?5?$AA?5?$AAD?$AAI?$AAS?$AAP?$AAC?$AA_?$AAT?$AAR?$AAA?$AAN?$AAS?$AA_?$AAC?$AAO?$AAL?$AAO?$AAR?$AA0?$AA?5?$AA?5?$AA?5?$AA?$DN?$AA?5?$AA0?$AAx?$AA?$CF?$AA0?$AA8?$AAx@| DCB " "
	DCB	0x0, " ", 0x0, " ", 0x0, "D", 0x0, "I", 0x0, "S", 0x0, "P"
	DCB	0x0, "C", 0x0, "_", 0x0, "T", 0x0, "R", 0x0, "A", 0x0, "N"
	DCB	0x0, "S", 0x0, "_", 0x0, "C", 0x0, "O", 0x0, "L", 0x0, "O"
	DCB	0x0, "R", 0x0, "0", 0x0, " ", 0x0, " ", 0x0, " ", 0x0, "="
	DCB	0x0, " ", 0x0, "0", 0x0, "x", 0x0, "%", 0x0, "0", 0x0, "8"
	DCB	0x0, "x", 0x0, 0xd, 0x0, 0xa, 0x0, 0x0, 0x0 ; `string'

  00000			 AREA	 |.rdata|, DATA, READONLY
|??_C@_1EG@LCFHPAOD@?$AA?5?$AA?5?$AA?5?$AAD?$AAI?$AAS?$AAP?$AAC?$AA_?$AAD?$AAE?$AAF?$AAA?$AAU?$AAL?$AAT?$AA_?$AAC?$AAO?$AAL?$AAO?$AAR?$AA1?$AA?5?$AA?$DN?$AA?5?$AA0?$AAx?$AA?$CF?$AA0?$AA8?$AAx@| DCB " "
	DCB	0x0, " ", 0x0, " ", 0x0, "D", 0x0, "I", 0x0, "S", 0x0, "P"
	DCB	0x0, "C", 0x0, "_", 0x0, "D", 0x0, "E", 0x0, "F", 0x0, "A"
	DCB	0x0, "U", 0x0, "L", 0x0, "T", 0x0, "_", 0x0, "C", 0x0, "O"
	DCB	0x0, "L", 0x0, "O", 0x0, "R", 0x0, "1", 0x0, " ", 0x0, "="
	DCB	0x0, " ", 0x0, "0", 0x0, "x", 0x0, "%", 0x0, "0", 0x0, "8"
	DCB	0x0, "x", 0x0, 0xd, 0x0, 0xa, 0x0, 0x0, 0x0 ; `string'

  00000			 AREA	 |.rdata|, DATA, READONLY
|??_C@_1EG@FFEKFGHE@?$AA?5?$AA?5?$AA?5?$AAD?$AAI?$AAS?$AAP?$AAC?$AA_?$AAD?$AAE?$AAF?$AAA?$AAU?$AAL?$AAT?$AA_?$AAC?$AAO?$AAL?$AAO?$AAR?$AA0?$AA?5?$AA?$DN?$AA?5?$AA0?$AAx?$AA?$CF?$AA0?$AA8?$AAx@| DCB " "
	DCB	0x0, " ", 0x0, " ", 0x0, "D", 0x0, "I", 0x0, "S", 0x0, "P"
	DCB	0x0, "C", 0x0, "_", 0x0, "D", 0x0, "E", 0x0, "F", 0x0, "A"
	DCB	0x0, "U", 0x0, "L", 0x0, "T", 0x0, "_", 0x0, "C", 0x0, "O"
	DCB	0x0, "L", 0x0, "O", 0x0, "R", 0x0, "0", 0x0, " ", 0x0, "="
	DCB	0x0, " ", 0x0, "0", 0x0, "x", 0x0, "%", 0x0, "0", 0x0, "8"
	DCB	0x0, "x", 0x0, 0xd, 0x0, 0xa, 0x0, 0x0, 0x0 ; `string'

  00000			 AREA	 |.rdata|, DATA, READONLY
|??_C@_1EG@IAPALBJG@?$AA?5?$AA?5?$AA?5?$AAD?$AAI?$AAS?$AAP?$AAC?$AA_?$AAC?$AAA?$AAP?$AAA?$AAB?$AAL?$AAE?$AA?5?$AA?5?$AA?5?$AA?5?$AA?5?$AA?5?$AA?5?$AA?5?$AA?$DN?$AA?5?$AA0?$AAx?$AA?$CF?$AA0?$AA8?$AAx@| DCB " "
	DCB	0x0, " ", 0x0, " ", 0x0, "D", 0x0, "I", 0x0, "S", 0x0, "P"
	DCB	0x0, "C", 0x0, "_", 0x0, "C", 0x0, "A", 0x0, "P", 0x0, "A"
	DCB	0x0, "B", 0x0, "L", 0x0, "E", 0x0, " ", 0x0, " ", 0x0, " "
	DCB	0x0, " ", 0x0, " ", 0x0, " ", 0x0, " ", 0x0, " ", 0x0, "="
	DCB	0x0, " ", 0x0, "0", 0x0, "x", 0x0, "%", 0x0, "0", 0x0, "8"
	DCB	0x0, "x", 0x0, 0xd, 0x0, 0xa, 0x0, 0x0, 0x0 ; `string'

  00000			 AREA	 |.rdata|, DATA, READONLY
|??_C@_1EG@ELFNNNMD@?$AA?5?$AA?5?$AA?5?$AAD?$AAI?$AAS?$AAP?$AAC?$AA_?$AAC?$AAO?$AAN?$AAF?$AAI?$AAG?$AA?5?$AA?5?$AA?5?$AA?5?$AA?5?$AA?5?$AA?5?$AA?5?$AA?5?$AA?$DN?$AA?5?$AA0?$AAx?$AA?$CF?$AA0?$AA8?$AAx@| DCB " "
	DCB	0x0, " ", 0x0, " ", 0x0, "D", 0x0, "I", 0x0, "S", 0x0, "P"
	DCB	0x0, "C", 0x0, "_", 0x0, "C", 0x0, "O", 0x0, "N", 0x0, "F"
	DCB	0x0, "I", 0x0, "G", 0x0, " ", 0x0, " ", 0x0, " ", 0x0, " "
	DCB	0x0, " ", 0x0, " ", 0x0, " ", 0x0, " ", 0x0, " ", 0x0, "="
	DCB	0x0, " ", 0x0, "0", 0x0, "x", 0x0, "%", 0x0, "0", 0x0, "8"
	DCB	0x0, "x", 0x0, 0xd, 0x0, 0xa, 0x0, 0x0, 0x0 ; `string'

  00000			 AREA	 |.rdata|, DATA, READONLY
|??_C@_1EG@OKGDLPJF@?$AA?5?$AA?5?$AA?5?$AAD?$AAI?$AAS?$AAP?$AAC?$AA_?$AAC?$AAO?$AAN?$AAT?$AAR?$AAO?$AAL?$AA?5?$AA?5?$AA?5?$AA?5?$AA?5?$AA?5?$AA?5?$AA?5?$AA?$DN?$AA?5?$AA0?$AAx?$AA?$CF?$AA0?$AA8?$AAx@| DCB " "
	DCB	0x0, " ", 0x0, " ", 0x0, "D", 0x0, "I", 0x0, "S", 0x0, "P"
	DCB	0x0, "C", 0x0, "_", 0x0, "C", 0x0, "O", 0x0, "N", 0x0, "T"
	DCB	0x0, "R", 0x0, "O", 0x0, "L", 0x0, " ", 0x0, " ", 0x0, " "
	DCB	0x0, " ", 0x0, " ", 0x0, " ", 0x0, " ", 0x0, " ", 0x0, "="
	DCB	0x0, " ", 0x0, "0", 0x0, "x", 0x0, "%", 0x0, "0", 0x0, "8"
	DCB	0x0, "x", 0x0, 0xd, 0x0, 0xa, 0x0, 0x0, 0x0 ; `string'

  00000			 AREA	 |.rdata|, DATA, READONLY
|??_C@_1DK@CNNHPFFC@?$AAD?$AAI?$AAS?$AAP?$AAC?$AA?5?$AAR?$AAe?$AAg?$AAi?$AAs?$AAt?$AAe?$AAr?$AAs?$AA?5?$AA?$CI?$AAC?$AAo?$AAn?$AAt?$AAr?$AAo?$AAl?$AA?$CJ?$AA?3?$AA?$AN?$AA?6?$AA?$AA@| DCB "D"
	DCB	0x0, "I", 0x0, "S", 0x0, "P", 0x0, "C", 0x0, " ", 0x0, "R"
	DCB	0x0, "e", 0x0, "g", 0x0, "i", 0x0, "s", 0x0, "t", 0x0, "e"
	DCB	0x0, "r", 0x0, "s", 0x0, " ", 0x0, "(", 0x0, "C", 0x0, "o"
	DCB	0x0, "n", 0x0, "t", 0x0, "r", 0x0, "o", 0x0, "l", 0x0, ")"
	DCB	0x0, ":", 0x0, 0xd, 0x0, 0xa, 0x0, 0x0, 0x0 ; `string'
; Function compile flags: /Odtp

  002c0			 AREA	 |.text|, CODE, ARM

  002c0		 |?Dump_DISPC_Control@@YAXPAUOMAP_DISPC_REGS@@@Z| PROC ; Dump_DISPC_Control

; 57   : {

  002c0		 |$LN23@Dump_DISPC@2|
  002c0	e1a0c00d	 mov         r12, sp
  002c4	e92d0001	 stmdb       sp!, {r0}
  002c8	e92d5000	 stmdb       sp!, {r12, lr}
  002cc	e24dd024	 sub         sp, sp, #0x24
  002d0		 |$M36135|

; 58   :     DEBUGMSG(DUMP_DISPC, (L"DISPC Registers (Control):\r\n"));

  002d0	e59f0174	 ldr         r0, [pc, #0x174]
  002d4	eb000000	 bl          NKDbgPrintfW
  002d8	e3a03001	 mov         r3, #1
  002dc	e58d3000	 str         r3, [sp]
  002e0	ea000001	 b           |$LN4@Dump_DISPC@2|
  002e4	e3a03000	 mov         r3, #0
  002e8	e58d3000	 str         r3, [sp]
  002ec		 |$LN4@Dump_DISPC@2|

; 59   :     DEBUGMSG(DUMP_DISPC, (L"   DISPC_CONTROL        = 0x%08x\r\n", INREG32(&pRegs->DISPC_CONTROL)));

  002ec	e59d302c	 ldr         r3, [sp, #0x2C]
  002f0	e2833040	 add         r3, r3, #0x40
  002f4	e5931000	 ldr         r1, [r3]
  002f8	e59f0148	 ldr         r0, [pc, #0x148]
  002fc	eb000000	 bl          NKDbgPrintfW
  00300	e3a03001	 mov         r3, #1
  00304	e58d3004	 str         r3, [sp, #4]
  00308	ea000001	 b           |$LN6@Dump_DISPC@2|
  0030c	e3a03000	 mov         r3, #0
  00310	e58d3004	 str         r3, [sp, #4]
  00314		 |$LN6@Dump_DISPC@2|

; 60   :     DEBUGMSG(DUMP_DISPC, (L"   DISPC_CONFIG         = 0x%08x\r\n", INREG32(&pRegs->DISPC_CONFIG)));

  00314	e59d302c	 ldr         r3, [sp, #0x2C]
  00318	e2833044	 add         r3, r3, #0x44
  0031c	e5931000	 ldr         r1, [r3]
  00320	e59f011c	 ldr         r0, [pc, #0x11C]
  00324	eb000000	 bl          NKDbgPrintfW
  00328	e3a03001	 mov         r3, #1
  0032c	e58d3008	 str         r3, [sp, #8]
  00330	ea000001	 b           |$LN8@Dump_DISPC@2|
  00334	e3a03000	 mov         r3, #0
  00338	e58d3008	 str         r3, [sp, #8]
  0033c		 |$LN8@Dump_DISPC@2|

; 61   :     DEBUGMSG(DUMP_DISPC, (L"   DISPC_CAPABLE        = 0x%08x\r\n", INREG32(&pRegs->DISPC_CAPABLE)));

  0033c	e59d302c	 ldr         r3, [sp, #0x2C]
  00340	e2833048	 add         r3, r3, #0x48
  00344	e5931000	 ldr         r1, [r3]
  00348	e59f00f0	 ldr         r0, [pc, #0xF0]
  0034c	eb000000	 bl          NKDbgPrintfW
  00350	e3a03001	 mov         r3, #1
  00354	e58d300c	 str         r3, [sp, #0xC]
  00358	ea000001	 b           |$LN10@Dump_DISPC@2|
  0035c	e3a03000	 mov         r3, #0
  00360	e58d300c	 str         r3, [sp, #0xC]
  00364		 |$LN10@Dump_DISPC@2|

; 62   :     DEBUGMSG(DUMP_DISPC, (L"   DISPC_DEFAULT_COLOR0 = 0x%08x\r\n", INREG32(&pRegs->DISPC_DEFAULT_COLOR0)));

  00364	e59d302c	 ldr         r3, [sp, #0x2C]
  00368	e283304c	 add         r3, r3, #0x4C
  0036c	e5931000	 ldr         r1, [r3]
  00370	e59f00c4	 ldr         r0, [pc, #0xC4]
  00374	eb000000	 bl          NKDbgPrintfW
  00378	e3a03001	 mov         r3, #1
  0037c	e58d3010	 str         r3, [sp, #0x10]
  00380	ea000001	 b           |$LN12@Dump_DISPC@2|
  00384	e3a03000	 mov         r3, #0
  00388	e58d3010	 str         r3, [sp, #0x10]
  0038c		 |$LN12@Dump_DISPC@2|

; 63   :     DEBUGMSG(DUMP_DISPC, (L"   DISPC_DEFAULT_COLOR1 = 0x%08x\r\n", INREG32(&pRegs->DISPC_DEFAULT_COLOR1)));

  0038c	e59d302c	 ldr         r3, [sp, #0x2C]
  00390	e2833050	 add         r3, r3, #0x50
  00394	e5931000	 ldr         r1, [r3]
  00398	e59f0098	 ldr         r0, [pc, #0x98]
  0039c	eb000000	 bl          NKDbgPrintfW
  003a0	e3a03001	 mov         r3, #1
  003a4	e58d3014	 str         r3, [sp, #0x14]
  003a8	ea000001	 b           |$LN14@Dump_DISPC@2|
  003ac	e3a03000	 mov         r3, #0
  003b0	e58d3014	 str         r3, [sp, #0x14]
  003b4		 |$LN14@Dump_DISPC@2|

; 64   :     DEBUGMSG(DUMP_DISPC, (L"   DISPC_TRANS_COLOR0   = 0x%08x\r\n", INREG32(&pRegs->DISPC_TRANS_COLOR0)));

  003b4	e59d302c	 ldr         r3, [sp, #0x2C]
  003b8	e2833054	 add         r3, r3, #0x54
  003bc	e5931000	 ldr         r1, [r3]
  003c0	e59f006c	 ldr         r0, [pc, #0x6C]
  003c4	eb000000	 bl          NKDbgPrintfW
  003c8	e3a03001	 mov         r3, #1
  003cc	e58d3018	 str         r3, [sp, #0x18]
  003d0	ea000001	 b           |$LN16@Dump_DISPC@2|
  003d4	e3a03000	 mov         r3, #0
  003d8	e58d3018	 str         r3, [sp, #0x18]
  003dc		 |$LN16@Dump_DISPC@2|

; 65   :     DEBUGMSG(DUMP_DISPC, (L"   DISPC_TRANS_COLOR1   = 0x%08x\r\n", INREG32(&pRegs->DISPC_TRANS_COLOR1)));

  003dc	e59d302c	 ldr         r3, [sp, #0x2C]
  003e0	e2833058	 add         r3, r3, #0x58
  003e4	e5931000	 ldr         r1, [r3]
  003e8	e59f0040	 ldr         r0, [pc, #0x40]
  003ec	eb000000	 bl          NKDbgPrintfW
  003f0	e3a03001	 mov         r3, #1
  003f4	e58d301c	 str         r3, [sp, #0x1C]
  003f8	ea000001	 b           |$LN18@Dump_DISPC@2|
  003fc	e3a03000	 mov         r3, #0
  00400	e58d301c	 str         r3, [sp, #0x1C]
  00404		 |$LN18@Dump_DISPC@2|

; 66   :     DEBUGMSG(DUMP_DISPC, (L"\r\n"));

  00404	e59f0020	 ldr         r0, [pc, #0x20]
  00408	eb000000	 bl          NKDbgPrintfW
  0040c	e3a03001	 mov         r3, #1
  00410	e58d3020	 str         r3, [sp, #0x20]
  00414	ea000001	 b           |$LN20@Dump_DISPC@2|
  00418	e3a03000	 mov         r3, #0
  0041c	e58d3020	 str         r3, [sp, #0x20]
  00420		 |$LN20@Dump_DISPC@2|

; 67   : }

  00420	e28dd024	 add         sp, sp, #0x24
  00424	e89d6000	 ldmia       sp, {sp, lr}
  00428	e12fff1e	 bx          lr
  0042c		 |$LN24@Dump_DISPC@2|
  0042c		 |$LN25@Dump_DISPC@2|
  0042c	00000000	 DCD         |??_C@_15JNBOKNOG@?$AA?$AN?$AA?6?$AA?$AA@|
  00430		 |$LN26@Dump_DISPC@2|
  00430	00000000	 DCD         |??_C@_1EG@BDPDFAD@?$AA?5?$AA?5?$AA?5?$AAD?$AAI?$AAS?$AAP?$AAC?$AA_?$AAT?$AAR?$AAA?$AAN?$AAS?$AA_?$AAC?$AAO?$AAL?$AAO?$AAR?$AA1?$AA?5?$AA?5?$AA?5?$AA?$DN?$AA?5?$AA0?$AAx?$AA?$CF?$AA0?$AA8?$AAx@|
  00434		 |$LN27@Dump_DISPC@2|
  00434	00000000	 DCD         |??_C@_1EG@DNFPNGAL@?$AA?5?$AA?5?$AA?5?$AAD?$AAI?$AAS?$AAP?$AAC?$AA_?$AAT?$AAR?$AAA?$AAN?$AAS?$AA_?$AAC?$AAO?$AAL?$AAO?$AAR?$AA0?$AA?5?$AA?5?$AA?5?$AA?$DN?$AA?5?$AA0?$AAx?$AA?$CF?$AA0?$AA8?$AAx@|
  00438		 |$LN28@Dump_DISPC@2|
  00438	00000000	 DCD         |??_C@_1EG@LCFHPAOD@?$AA?5?$AA?5?$AA?5?$AAD?$AAI?$AAS?$AAP?$AAC?$AA_?$AAD?$AAE?$AAF?$AAA?$AAU?$AAL?$AAT?$AA_?$AAC?$AAO?$AAL?$AAO?$AAR?$AA1?$AA?5?$AA?$DN?$AA?5?$AA0?$AAx?$AA?$CF?$AA0?$AA8?$AAx@|
  0043c		 |$LN29@Dump_DISPC@2|
  0043c	00000000	 DCD         |??_C@_1EG@FFEKFGHE@?$AA?5?$AA?5?$AA?5?$AAD?$AAI?$AAS?$AAP?$AAC?$AA_?$AAD?$AAE?$AAF?$AAA?$AAU?$AAL?$AAT?$AA_?$AAC?$AAO?$AAL?$AAO?$AAR?$AA0?$AA?5?$AA?$DN?$AA?5?$AA0?$AAx?$AA?$CF?$AA0?$AA8?$AAx@|
  00440		 |$LN30@Dump_DISPC@2|
  00440	00000000	 DCD         |??_C@_1EG@IAPALBJG@?$AA?5?$AA?5?$AA?5?$AAD?$AAI?$AAS?$AAP?$AAC?$AA_?$AAC?$AAA?$AAP?$AAA?$AAB?$AAL?$AAE?$AA?5?$AA?5?$AA?5?$AA?5?$AA?5?$AA?5?$AA?5?$AA?5?$AA?$DN?$AA?5?$AA0?$AAx?$AA?$CF?$AA0?$AA8?$AAx@|
  00444		 |$LN31@Dump_DISPC@2|
  00444	00000000	 DCD         |??_C@_1EG@ELFNNNMD@?$AA?5?$AA?5?$AA?5?$AAD?$AAI?$AAS?$AAP?$AAC?$AA_?$AAC?$AAO?$AAN?$AAF?$AAI?$AAG?$AA?5?$AA?5?$AA?5?$AA?5?$AA?5?$AA?5?$AA?5?$AA?5?$AA?5?$AA?$DN?$AA?5?$AA0?$AAx?$AA?$CF?$AA0?$AA8?$AAx@|
  00448		 |$LN32@Dump_DISPC@2|
  00448	00000000	 DCD         |??_C@_1EG@OKGDLPJF@?$AA?5?$AA?5?$AA?5?$AAD?$AAI?$AAS?$AAP?$AAC?$AA_?$AAC?$AAO?$AAN?$AAT?$AAR?$AAO?$AAL?$AA?5?$AA?5?$AA?5?$AA?5?$AA?5?$AA?5?$AA?5?$AA?5?$AA?$DN?$AA?5?$AA0?$AAx?$AA?$CF?$AA0?$AA8?$AAx@|
  0044c		 |$LN33@Dump_DISPC@2|
  0044c	00000000	 DCD         |??_C@_1DK@CNNHPFFC@?$AAD?$AAI?$AAS?$AAP?$AAC?$AA?5?$AAR?$AAe?$AAg?$AAi?$AAs?$AAt?$AAe?$AAr?$AAs?$AA?5?$AA?$CI?$AAC?$AAo?$AAn?$AAt?$AAr?$AAo?$AAl?$AA?$CJ?$AA?3?$AA?$AN?$AA?6?$AA?$AA@|
  00450		 |$M36136|

			 ENDP  ; |?Dump_DISPC_Control@@YAXPAUOMAP_DISPC_REGS@@@Z|, Dump_DISPC_Control

	EXPORT	|??_C@_1EG@PLMDEOPG@?$AA?5?$AA?5?$AA?5?$AAD?$AAI?$AAS?$AAP?$AAC?$AA_?$AAS?$AAI?$AAZ?$AAE?$AA_?$AAL?$AAC?$AAD?$AA?5?$AA?5?$AA?5?$AA?5?$AA?5?$AA?5?$AA?5?$AA?$DN?$AA?5?$AA0?$AAx?$AA?$CF?$AA0?$AA8?$AAx@| [ DATA ] ; `string'
	EXPORT	|??_C@_1EG@EADLNJBG@?$AA?5?$AA?5?$AA?5?$AAD?$AAI?$AAS?$AAP?$AAC?$AA_?$AAS?$AAI?$AAZ?$AAE?$AA_?$AAD?$AAI?$AAG?$AA?5?$AA?5?$AA?5?$AA?5?$AA?5?$AA?5?$AA?5?$AA?$DN?$AA?5?$AA0?$AAx?$AA?$CF?$AA0?$AA8?$AAx@| [ DATA ] ; `string'
	EXPORT	|??_C@_1EG@KKJKOMHD@?$AA?5?$AA?5?$AA?5?$AAD?$AAI?$AAS?$AAP?$AAC?$AA_?$AAD?$AAI?$AAV?$AAI?$AAS?$AAO?$AAR?$AA?5?$AA?5?$AA?5?$AA?5?$AA?5?$AA?5?$AA?5?$AA?5?$AA?$DN?$AA?5?$AA0?$AAx?$AA?$CF?$AA0?$AA8?$AAx@| [ DATA ] ; `string'
	EXPORT	|??_C@_1EG@BKMLFGPM@?$AA?5?$AA?5?$AA?5?$AAD?$AAI?$AAS?$AAP?$AAC?$AA_?$AAP?$AAO?$AAL?$AA_?$AAF?$AAR?$AAE?$AAQ?$AA?5?$AA?5?$AA?5?$AA?5?$AA?5?$AA?5?$AA?5?$AA?$DN?$AA?5?$AA0?$AAx?$AA?$CF?$AA0?$AA8?$AAx@| [ DATA ] ; `string'
	EXPORT	|??_C@_1EG@HDJLIHKG@?$AA?5?$AA?5?$AA?5?$AAD?$AAI?$AAS?$AAP?$AAC?$AA_?$AAT?$AAI?$AAM?$AAI?$AAN?$AAG?$AA_?$AAV?$AA?5?$AA?5?$AA?5?$AA?5?$AA?5?$AA?5?$AA?5?$AA?$DN?$AA?5?$AA0?$AAx?$AA?$CF?$AA0?$AA8?$AAx@| [ DATA ] ; `string'
	EXPORT	|??_C@_1EG@OKJIIOJD@?$AA?5?$AA?5?$AA?5?$AAD?$AAI?$AAS?$AAP?$AAC?$AA_?$AAT?$AAI?$AAM?$AAI?$AAN?$AAG?$AA_?$AAH?$AA?5?$AA?5?$AA?5?$AA?5?$AA?5?$AA?5?$AA?5?$AA?$DN?$AA?5?$AA0?$AAx?$AA?$CF?$AA0?$AA8?$AAx@| [ DATA ] ; `string'
	EXPORT	|??_C@_1EG@KMJFDKBA@?$AA?5?$AA?5?$AA?5?$AAD?$AAI?$AAS?$AAP?$AAC?$AA_?$AAL?$AAI?$AAN?$AAE?$AA_?$AAN?$AAU?$AAM?$AAB?$AAE?$AAR?$AA?5?$AA?5?$AA?5?$AA?5?$AA?$DN?$AA?5?$AA0?$AAx?$AA?$CF?$AA0?$AA8?$AAx@| [ DATA ] ; `string'
	EXPORT	|??_C@_1EG@EBAMOGGP@?$AA?5?$AA?5?$AA?5?$AAD?$AAI?$AAS?$AAP?$AAC?$AA_?$AAL?$AAI?$AAN?$AAE?$AA_?$AAS?$AAT?$AAA?$AAT?$AAU?$AAS?$AA?5?$AA?5?$AA?5?$AA?5?$AA?$DN?$AA?5?$AA0?$AAx?$AA?$CF?$AA0?$AA8?$AAx@| [ DATA ] ; `string'
	EXPORT	|??_C@_1DC@EMDBPMHM@?$AAD?$AAI?$AAS?$AAP?$AAC?$AA?5?$AAR?$AAe?$AAg?$AAi?$AAs?$AAt?$AAe?$AAr?$AAs?$AA?5?$AA?$CI?$AAL?$AAC?$AAD?$AA?$CJ?$AA?3?$AA?$AN?$AA?6?$AA?$AA@| [ DATA ] ; `string'
	EXPORT	|?Dump_DISPC_LCD@@YAXPAUOMAP_DISPC_REGS@@@Z| ; Dump_DISPC_LCD

  00018			 AREA	 |.pdata|, PDATA
|$T36173| DCD	|$LN25@Dump_DISPC@3|
	DCD	0x40006f04

  00000			 AREA	 |.rdata|, DATA, READONLY
|??_C@_1EG@PLMDEOPG@?$AA?5?$AA?5?$AA?5?$AAD?$AAI?$AAS?$AAP?$AAC?$AA_?$AAS?$AAI?$AAZ?$AAE?$AA_?$AAL?$AAC?$AAD?$AA?5?$AA?5?$AA?5?$AA?5?$AA?5?$AA?5?$AA?5?$AA?$DN?$AA?5?$AA0?$AAx?$AA?$CF?$AA0?$AA8?$AAx@| DCB " "
	DCB	0x0, " ", 0x0, " ", 0x0, "D", 0x0, "I", 0x0, "S", 0x0, "P"
	DCB	0x0, "C", 0x0, "_", 0x0, "S", 0x0, "I", 0x0, "Z", 0x0, "E"
	DCB	0x0, "_", 0x0, "L", 0x0, "C", 0x0, "D", 0x0, " ", 0x0, " "
	DCB	0x0, " ", 0x0, " ", 0x0, " ", 0x0, " ", 0x0, " ", 0x0, "="
	DCB	0x0, " ", 0x0, "0", 0x0, "x", 0x0, "%", 0x0, "0", 0x0, "8"
	DCB	0x0, "x", 0x0, 0xd, 0x0, 0xa, 0x0, 0x0, 0x0 ; `string'

  00000			 AREA	 |.rdata|, DATA, READONLY
|??_C@_1EG@EADLNJBG@?$AA?5?$AA?5?$AA?5?$AAD?$AAI?$AAS?$AAP?$AAC?$AA_?$AAS?$AAI?$AAZ?$AAE?$AA_?$AAD?$AAI?$AAG?$AA?5?$AA?5?$AA?5?$AA?5?$AA?5?$AA?5?$AA?5?$AA?$DN?$AA?5?$AA0?$AAx?$AA?$CF?$AA0?$AA8?$AAx@| DCB " "
	DCB	0x0, " ", 0x0, " ", 0x0, "D", 0x0, "I", 0x0, "S", 0x0, "P"
	DCB	0x0, "C", 0x0, "_", 0x0, "S", 0x0, "I", 0x0, "Z", 0x0, "E"
	DCB	0x0, "_", 0x0, "D", 0x0, "I", 0x0, "G", 0x0, " ", 0x0, " "
	DCB	0x0, " ", 0x0, " ", 0x0, " ", 0x0, " ", 0x0, " ", 0x0, "="
	DCB	0x0, " ", 0x0, "0", 0x0, "x", 0x0, "%", 0x0, "0", 0x0, "8"
	DCB	0x0, "x", 0x0, 0xd, 0x0, 0xa, 0x0, 0x0, 0x0 ; `string'

  00000			 AREA	 |.rdata|, DATA, READONLY
|??_C@_1EG@KKJKOMHD@?$AA?5?$AA?5?$AA?5?$AAD?$AAI?$AAS?$AAP?$AAC?$AA_?$AAD?$AAI?$AAV?$AAI?$AAS?$AAO?$AAR?$AA?5?$AA?5?$AA?5?$AA?5?$AA?5?$AA?5?$AA?5?$AA?5?$AA?$DN?$AA?5?$AA0?$AAx?$AA?$CF?$AA0?$AA8?$AAx@| DCB " "
	DCB	0x0, " ", 0x0, " ", 0x0, "D", 0x0, "I", 0x0, "S", 0x0, "P"
	DCB	0x0, "C", 0x0, "_", 0x0, "D", 0x0, "I", 0x0, "V", 0x0, "I"
	DCB	0x0, "S", 0x0, "O", 0x0, "R", 0x0, " ", 0x0, " ", 0x0, " "
	DCB	0x0, " ", 0x0, " ", 0x0, " ", 0x0, " ", 0x0, " ", 0x0, "="
	DCB	0x0, " ", 0x0, "0", 0x0, "x", 0x0, "%", 0x0, "0", 0x0, "8"
	DCB	0x0, "x", 0x0, 0xd, 0x0, 0xa, 0x0, 0x0, 0x0 ; `string'

  00000			 AREA	 |.rdata|, DATA, READONLY
|??_C@_1EG@BKMLFGPM@?$AA?5?$AA?5?$AA?5?$AAD?$AAI?$AAS?$AAP?$AAC?$AA_?$AAP?$AAO?$AAL?$AA_?$AAF?$AAR?$AAE?$AAQ?$AA?5?$AA?5?$AA?5?$AA?5?$AA?5?$AA?5?$AA?5?$AA?$DN?$AA?5?$AA0?$AAx?$AA?$CF?$AA0?$AA8?$AAx@| DCB " "
	DCB	0x0, " ", 0x0, " ", 0x0, "D", 0x0, "I", 0x0, "S", 0x0, "P"
	DCB	0x0, "C", 0x0, "_", 0x0, "P", 0x0, "O", 0x0, "L", 0x0, "_"
	DCB	0x0, "F", 0x0, "R", 0x0, "E", 0x0, "Q", 0x0, " ", 0x0, " "
	DCB	0x0, " ", 0x0, " ", 0x0, " ", 0x0, " ", 0x0, " ", 0x0, "="
	DCB	0x0, " ", 0x0, "0", 0x0, "x", 0x0, "%", 0x0, "0", 0x0, "8"
	DCB	0x0, "x", 0x0, 0xd, 0x0, 0xa, 0x0, 0x0, 0x0 ; `string'

  00000			 AREA	 |.rdata|, DATA, READONLY
|??_C@_1EG@HDJLIHKG@?$AA?5?$AA?5?$AA?5?$AAD?$AAI?$AAS?$AAP?$AAC?$AA_?$AAT?$AAI?$AAM?$AAI?$AAN?$AAG?$AA_?$AAV?$AA?5?$AA?5?$AA?5?$AA?5?$AA?5?$AA?5?$AA?5?$AA?$DN?$AA?5?$AA0?$AAx?$AA?$CF?$AA0?$AA8?$AAx@| DCB " "
	DCB	0x0, " ", 0x0, " ", 0x0, "D", 0x0, "I", 0x0, "S", 0x0, "P"
	DCB	0x0, "C", 0x0, "_", 0x0, "T", 0x0, "I", 0x0, "M", 0x0, "I"
	DCB	0x0, "N", 0x0, "G", 0x0, "_", 0x0, "V", 0x0, " ", 0x0, " "
	DCB	0x0, " ", 0x0, " ", 0x0, " ", 0x0, " ", 0x0, " ", 0x0, "="
	DCB	0x0, " ", 0x0, "0", 0x0, "x", 0x0, "%", 0x0, "0", 0x0, "8"
	DCB	0x0, "x", 0x0, 0xd, 0x0, 0xa, 0x0, 0x0, 0x0 ; `string'

  00000			 AREA	 |.rdata|, DATA, READONLY
|??_C@_1EG@OKJIIOJD@?$AA?5?$AA?5?$AA?5?$AAD?$AAI?$AAS?$AAP?$AAC?$AA_?$AAT?$AAI?$AAM?$AAI?$AAN?$AAG?$AA_?$AAH?$AA?5?$AA?5?$AA?5?$AA?5?$AA?5?$AA?5?$AA?5?$AA?$DN?$AA?5?$AA0?$AAx?$AA?$CF?$AA0?$AA8?$AAx@| DCB " "
	DCB	0x0, " ", 0x0, " ", 0x0, "D", 0x0, "I", 0x0, "S", 0x0, "P"
	DCB	0x0, "C", 0x0, "_", 0x0, "T", 0x0, "I", 0x0, "M", 0x0, "I"
	DCB	0x0, "N", 0x0, "G", 0x0, "_", 0x0, "H", 0x0, " ", 0x0, " "
	DCB	0x0, " ", 0x0, " ", 0x0, " ", 0x0, " ", 0x0, " ", 0x0, "="
	DCB	0x0, " ", 0x0, "0", 0x0, "x", 0x0, "%", 0x0, "0", 0x0, "8"
	DCB	0x0, "x", 0x0, 0xd, 0x0, 0xa, 0x0, 0x0, 0x0 ; `string'

  00000			 AREA	 |.rdata|, DATA, READONLY
|??_C@_1EG@KMJFDKBA@?$AA?5?$AA?5?$AA?5?$AAD?$AAI?$AAS?$AAP?$AAC?$AA_?$AAL?$AAI?$AAN?$AAE?$AA_?$AAN?$AAU?$AAM?$AAB?$AAE?$AAR?$AA?5?$AA?5?$AA?5?$AA?5?$AA?$DN?$AA?5?$AA0?$AAx?$AA?$CF?$AA0?$AA8?$AAx@| DCB " "
	DCB	0x0, " ", 0x0, " ", 0x0, "D", 0x0, "I", 0x0, "S", 0x0, "P"
	DCB	0x0, "C", 0x0, "_", 0x0, "L", 0x0, "I", 0x0, "N", 0x0, "E"
	DCB	0x0, "_", 0x0, "N", 0x0, "U", 0x0, "M", 0x0, "B", 0x0, "E"
	DCB	0x0, "R", 0x0, " ", 0x0, " ", 0x0, " ", 0x0, " ", 0x0, "="
	DCB	0x0, " ", 0x0, "0", 0x0, "x", 0x0, "%", 0x0, "0", 0x0, "8"
	DCB	0x0, "x", 0x0, 0xd, 0x0, 0xa, 0x0, 0x0, 0x0 ; `string'

  00000			 AREA	 |.rdata|, DATA, READONLY
|??_C@_1EG@EBAMOGGP@?$AA?5?$AA?5?$AA?5?$AAD?$AAI?$AAS?$AAP?$AAC?$AA_?$AAL?$AAI?$AAN?$AAE?$AA_?$AAS?$AAT?$AAA?$AAT?$AAU?$AAS?$AA?5?$AA?5?$AA?5?$AA?5?$AA?$DN?$AA?5?$AA0?$AAx?$AA?$CF?$AA0?$AA8?$AAx@| DCB " "
	DCB	0x0, " ", 0x0, " ", 0x0, "D", 0x0, "I", 0x0, "S", 0x0, "P"
	DCB	0x0, "C", 0x0, "_", 0x0, "L", 0x0, "I", 0x0, "N", 0x0, "E"
	DCB	0x0, "_", 0x0, "S", 0x0, "T", 0x0, "A", 0x0, "T", 0x0, "U"
	DCB	0x0, "S", 0x0, " ", 0x0, " ", 0x0, " ", 0x0, " ", 0x0, "="
	DCB	0x0, " ", 0x0, "0", 0x0, "x", 0x0, "%", 0x0, "0", 0x0, "8"
	DCB	0x0, "x", 0x0, 0xd, 0x0, 0xa, 0x0, 0x0, 0x0 ; `string'

  00000			 AREA	 |.rdata|, DATA, READONLY
|??_C@_1DC@EMDBPMHM@?$AAD?$AAI?$AAS?$AAP?$AAC?$AA?5?$AAR?$AAe?$AAg?$AAi?$AAs?$AAt?$AAe?$AAr?$AAs?$AA?5?$AA?$CI?$AAL?$AAC?$AAD?$AA?$CJ?$AA?3?$AA?$AN?$AA?6?$AA?$AA@| DCB "D"
	DCB	0x0, "I", 0x0, "S", 0x0, "P", 0x0, "C", 0x0, " ", 0x0, "R"
	DCB	0x0, "e", 0x0, "g", 0x0, "i", 0x0, "s", 0x0, "t", 0x0, "e"
	DCB	0x0, "r", 0x0, "s", 0x0, " ", 0x0, "(", 0x0, "L", 0x0, "C"
	DCB	0x0, "D", 0x0, ")", 0x0, ":", 0x0, 0xd, 0x0, 0xa, 0x0, 0x0
	DCB	0x0					; `string'
; Function compile flags: /Odtp

  00450			 AREA	 |.text|, CODE, ARM

  00450		 |?Dump_DISPC_LCD@@YAXPAUOMAP_DISPC_REGS@@@Z| PROC ; Dump_DISPC_LCD

; 74   : {

  00450		 |$LN25@Dump_DISPC@3|
  00450	e1a0c00d	 mov         r12, sp
  00454	e92d0001	 stmdb       sp!, {r0}
  00458	e92d5000	 stmdb       sp!, {r12, lr}
  0045c	e24dd028	 sub         sp, sp, #0x28
  00460		 |$M36170|

; 75   :     DEBUGMSG(DUMP_DISPC_LCD, (L"DISPC Registers (LCD):\r\n"));

  00460	e59f01a0	 ldr         r0, [pc, #0x1A0]
  00464	eb000000	 bl          NKDbgPrintfW
  00468	e3a03001	 mov         r3, #1
  0046c	e58d3000	 str         r3, [sp]
  00470	ea000001	 b           |$LN4@Dump_DISPC@3|
  00474	e3a03000	 mov         r3, #0
  00478	e58d3000	 str         r3, [sp]
  0047c		 |$LN4@Dump_DISPC@3|

; 76   :     DEBUGMSG(DUMP_DISPC_LCD, (L"   DISPC_LINE_STATUS    = 0x%08x\r\n", INREG32(&pRegs->DISPC_LINE_STATUS)));

  0047c	e59d3030	 ldr         r3, [sp, #0x30]
  00480	e283305c	 add         r3, r3, #0x5C
  00484	e5931000	 ldr         r1, [r3]
  00488	e59f0174	 ldr         r0, [pc, #0x174]
  0048c	eb000000	 bl          NKDbgPrintfW
  00490	e3a03001	 mov         r3, #1
  00494	e58d3004	 str         r3, [sp, #4]
  00498	ea000001	 b           |$LN6@Dump_DISPC@3|
  0049c	e3a03000	 mov         r3, #0
  004a0	e58d3004	 str         r3, [sp, #4]
  004a4		 |$LN6@Dump_DISPC@3|

; 77   :     DEBUGMSG(DUMP_DISPC_LCD, (L"   DISPC_LINE_NUMBER    = 0x%08x\r\n", INREG32(&pRegs->DISPC_LINE_NUMBER)));

  004a4	e59d3030	 ldr         r3, [sp, #0x30]
  004a8	e2833060	 add         r3, r3, #0x60
  004ac	e5931000	 ldr         r1, [r3]
  004b0	e59f0148	 ldr         r0, [pc, #0x148]
  004b4	eb000000	 bl          NKDbgPrintfW
  004b8	e3a03001	 mov         r3, #1
  004bc	e58d3008	 str         r3, [sp, #8]
  004c0	ea000001	 b           |$LN8@Dump_DISPC@3|
  004c4	e3a03000	 mov         r3, #0
  004c8	e58d3008	 str         r3, [sp, #8]
  004cc		 |$LN8@Dump_DISPC@3|

; 78   :     DEBUGMSG(DUMP_DISPC_LCD, (L"   DISPC_TIMING_H       = 0x%08x\r\n", INREG32(&pRegs->DISPC_TIMING_H)));

  004cc	e59d3030	 ldr         r3, [sp, #0x30]
  004d0	e2833064	 add         r3, r3, #0x64
  004d4	e5931000	 ldr         r1, [r3]
  004d8	e59f011c	 ldr         r0, [pc, #0x11C]
  004dc	eb000000	 bl          NKDbgPrintfW
  004e0	e3a03001	 mov         r3, #1
  004e4	e58d300c	 str         r3, [sp, #0xC]
  004e8	ea000001	 b           |$LN10@Dump_DISPC@3|
  004ec	e3a03000	 mov         r3, #0
  004f0	e58d300c	 str         r3, [sp, #0xC]
  004f4		 |$LN10@Dump_DISPC@3|

; 79   :     DEBUGMSG(DUMP_DISPC_LCD, (L"   DISPC_TIMING_V       = 0x%08x\r\n", INREG32(&pRegs->DISPC_TIMING_V)));

  004f4	e59d3030	 ldr         r3, [sp, #0x30]
  004f8	e2833068	 add         r3, r3, #0x68
  004fc	e5931000	 ldr         r1, [r3]
  00500	e59f00f0	 ldr         r0, [pc, #0xF0]
  00504	eb000000	 bl          NKDbgPrintfW
  00508	e3a03001	 mov         r3, #1
  0050c	e58d3010	 str         r3, [sp, #0x10]
  00510	ea000001	 b           |$LN12@Dump_DISPC@3|
  00514	e3a03000	 mov         r3, #0
  00518	e58d3010	 str         r3, [sp, #0x10]
  0051c		 |$LN12@Dump_DISPC@3|

; 80   :     DEBUGMSG(DUMP_DISPC_LCD, (L"   DISPC_POL_FREQ       = 0x%08x\r\n", INREG32(&pRegs->DISPC_POL_FREQ)));

  0051c	e59d3030	 ldr         r3, [sp, #0x30]
  00520	e283306c	 add         r3, r3, #0x6C
  00524	e5931000	 ldr         r1, [r3]
  00528	e59f00c4	 ldr         r0, [pc, #0xC4]
  0052c	eb000000	 bl          NKDbgPrintfW
  00530	e3a03001	 mov         r3, #1
  00534	e58d3014	 str         r3, [sp, #0x14]
  00538	ea000001	 b           |$LN14@Dump_DISPC@3|
  0053c	e3a03000	 mov         r3, #0
  00540	e58d3014	 str         r3, [sp, #0x14]
  00544		 |$LN14@Dump_DISPC@3|

; 81   :     DEBUGMSG(DUMP_DISPC_LCD, (L"   DISPC_DIVISOR        = 0x%08x\r\n", INREG32(&pRegs->DISPC_DIVISOR)));

  00544	e59d3030	 ldr         r3, [sp, #0x30]
  00548	e2833070	 add         r3, r3, #0x70
  0054c	e5931000	 ldr         r1, [r3]
  00550	e59f0098	 ldr         r0, [pc, #0x98]
  00554	eb000000	 bl          NKDbgPrintfW
  00558	e3a03001	 mov         r3, #1
  0055c	e58d3018	 str         r3, [sp, #0x18]
  00560	ea000001	 b           |$LN16@Dump_DISPC@3|
  00564	e3a03000	 mov         r3, #0
  00568	e58d3018	 str         r3, [sp, #0x18]
  0056c		 |$LN16@Dump_DISPC@3|

; 82   :     DEBUGMSG(DUMP_DISPC_LCD, (L"   DISPC_SIZE_DIG       = 0x%08x\r\n", INREG32(&pRegs->DISPC_SIZE_DIG)));

  0056c	e59d3030	 ldr         r3, [sp, #0x30]
  00570	e2833078	 add         r3, r3, #0x78
  00574	e5931000	 ldr         r1, [r3]
  00578	e59f006c	 ldr         r0, [pc, #0x6C]
  0057c	eb000000	 bl          NKDbgPrintfW
  00580	e3a03001	 mov         r3, #1
  00584	e58d301c	 str         r3, [sp, #0x1C]
  00588	ea000001	 b           |$LN18@Dump_DISPC@3|
  0058c	e3a03000	 mov         r3, #0
  00590	e58d301c	 str         r3, [sp, #0x1C]
  00594		 |$LN18@Dump_DISPC@3|

; 83   :     DEBUGMSG(DUMP_DISPC_LCD, (L"   DISPC_SIZE_LCD       = 0x%08x\r\n", INREG32(&pRegs->DISPC_SIZE_LCD)));

  00594	e59d3030	 ldr         r3, [sp, #0x30]
  00598	e283307c	 add         r3, r3, #0x7C
  0059c	e5931000	 ldr         r1, [r3]
  005a0	e59f0040	 ldr         r0, [pc, #0x40]
  005a4	eb000000	 bl          NKDbgPrintfW
  005a8	e3a03001	 mov         r3, #1
  005ac	e58d3020	 str         r3, [sp, #0x20]
  005b0	ea000001	 b           |$LN20@Dump_DISPC@3|
  005b4	e3a03000	 mov         r3, #0
  005b8	e58d3020	 str         r3, [sp, #0x20]
  005bc		 |$LN20@Dump_DISPC@3|

; 84   :     DEBUGMSG(DUMP_DISPC_LCD, (L"\r\n"));

  005bc	e59f0020	 ldr         r0, [pc, #0x20]
  005c0	eb000000	 bl          NKDbgPrintfW
  005c4	e3a03001	 mov         r3, #1
  005c8	e58d3024	 str         r3, [sp, #0x24]
  005cc	ea000001	 b           |$LN22@Dump_DISPC@3|
  005d0	e3a03000	 mov         r3, #0
  005d4	e58d3024	 str         r3, [sp, #0x24]
  005d8		 |$LN22@Dump_DISPC@3|

; 85   : }

  005d8	e28dd028	 add         sp, sp, #0x28
  005dc	e89d6000	 ldmia       sp, {sp, lr}
  005e0	e12fff1e	 bx          lr
  005e4		 |$LN26@Dump_DISPC@3|
  005e4		 |$LN27@Dump_DISPC@3|
  005e4	00000000	 DCD         |??_C@_15JNBOKNOG@?$AA?$AN?$AA?6?$AA?$AA@|
  005e8		 |$LN28@Dump_DISPC@3|
  005e8	00000000	 DCD         |??_C@_1EG@PLMDEOPG@?$AA?5?$AA?5?$AA?5?$AAD?$AAI?$AAS?$AAP?$AAC?$AA_?$AAS?$AAI?$AAZ?$AAE?$AA_?$AAL?$AAC?$AAD?$AA?5?$AA?5?$AA?5?$AA?5?$AA?5?$AA?5?$AA?5?$AA?$DN?$AA?5?$AA0?$AAx?$AA?$CF?$AA0?$AA8?$AAx@|
  005ec		 |$LN29@Dump_DISPC@3|
  005ec	00000000	 DCD         |??_C@_1EG@EADLNJBG@?$AA?5?$AA?5?$AA?5?$AAD?$AAI?$AAS?$AAP?$AAC?$AA_?$AAS?$AAI?$AAZ?$AAE?$AA_?$AAD?$AAI?$AAG?$AA?5?$AA?5?$AA?5?$AA?5?$AA?5?$AA?5?$AA?5?$AA?$DN?$AA?5?$AA0?$AAx?$AA?$CF?$AA0?$AA8?$AAx@|
  005f0		 |$LN30@Dump_DISPC@3|
  005f0	00000000	 DCD         |??_C@_1EG@KKJKOMHD@?$AA?5?$AA?5?$AA?5?$AAD?$AAI?$AAS?$AAP?$AAC?$AA_?$AAD?$AAI?$AAV?$AAI?$AAS?$AAO?$AAR?$AA?5?$AA?5?$AA?5?$AA?5?$AA?5?$AA?5?$AA?5?$AA?5?$AA?$DN?$AA?5?$AA0?$AAx?$AA?$CF?$AA0?$AA8?$AAx@|
  005f4		 |$LN31@Dump_DISPC@3|
  005f4	00000000	 DCD         |??_C@_1EG@BKMLFGPM@?$AA?5?$AA?5?$AA?5?$AAD?$AAI?$AAS?$AAP?$AAC?$AA_?$AAP?$AAO?$AAL?$AA_?$AAF?$AAR?$AAE?$AAQ?$AA?5?$AA?5?$AA?5?$AA?5?$AA?5?$AA?5?$AA?5?$AA?$DN?$AA?5?$AA0?$AAx?$AA?$CF?$AA0?$AA8?$AAx@|
  005f8		 |$LN32@Dump_DISPC@3|
  005f8	00000000	 DCD         |??_C@_1EG@HDJLIHKG@?$AA?5?$AA?5?$AA?5?$AAD?$AAI?$AAS?$AAP?$AAC?$AA_?$AAT?$AAI?$AAM?$AAI?$AAN?$AAG?$AA_?$AAV?$AA?5?$AA?5?$AA?5?$AA?5?$AA?5?$AA?5?$AA?5?$AA?$DN?$AA?5?$AA0?$AAx?$AA?$CF?$AA0?$AA8?$AAx@|
  005fc		 |$LN33@Dump_DISPC@3|
  005fc	00000000	 DCD         |??_C@_1EG@OKJIIOJD@?$AA?5?$AA?5?$AA?5?$AAD?$AAI?$AAS?$AAP?$AAC?$AA_?$AAT?$AAI?$AAM?$AAI?$AAN?$AAG?$AA_?$AAH?$AA?5?$AA?5?$AA?5?$AA?5?$AA?5?$AA?5?$AA?5?$AA?$DN?$AA?5?$AA0?$AAx?$AA?$CF?$AA0?$AA8?$AAx@|
  00600		 |$LN34@Dump_DISPC@3|
  00600	00000000	 DCD         |??_C@_1EG@KMJFDKBA@?$AA?5?$AA?5?$AA?5?$AAD?$AAI?$AAS?$AAP?$AAC?$AA_?$AAL?$AAI?$AAN?$AAE?$AA_?$AAN?$AAU?$AAM?$AAB?$AAE?$AAR?$AA?5?$AA?5?$AA?5?$AA?5?$AA?$DN?$AA?5?$AA0?$AAx?$AA?$CF?$AA0?$AA8?$AAx@|
  00604		 |$LN35@Dump_DISPC@3|
  00604	00000000	 DCD         |??_C@_1EG@EBAMOGGP@?$AA?5?$AA?5?$AA?5?$AAD?$AAI?$AAS?$AAP?$AAC?$AA_?$AAL?$AAI?$AAN?$AAE?$AA_?$AAS?$AAT?$AAA?$AAT?$AAU?$AAS?$AA?5?$AA?5?$AA?5?$AA?5?$AA?$DN?$AA?5?$AA0?$AAx?$AA?$CF?$AA0?$AA8?$AAx@|
  00608		 |$LN36@Dump_DISPC@3|
  00608	00000000	 DCD         |??_C@_1DC@EMDBPMHM@?$AAD?$AAI?$AAS?$AAP?$AAC?$AA?5?$AAR?$AAe?$AAg?$AAi?$AAs?$AAt?$AAe?$AAr?$AAs?$AA?5?$AA?$CI?$AAL?$AAC?$AAD?$AA?$CJ?$AA?3?$AA?$AN?$AA?6?$AA?$AA@|
  0060c		 |$M36171|

			 ENDP  ; |?Dump_DISPC_LCD@@YAXPAUOMAP_DISPC_REGS@@@Z|, Dump_DISPC_LCD

	EXPORT	|??_C@_1FC@KDPNLDMN@?$AA?5?$AA?5?$AA?5?$AAD?$AAI?$AAS?$AAP?$AAC?$AA_?$AAG?$AAF?$AAX?$AA_?$AAT?$AAA?$AAB?$AAL?$AAE?$AA_?$AAB?$AAA?$AA?5?$AA?5?$AA?5?$AA?5?$AA?5?$AA?5?$AA?5?$AA?5?$AA?5?$AA?$DN?$AA?5@| [ DATA ] ; `string'
	EXPORT	|??_C@_1FC@EDFHKDEC@?$AA?5?$AA?5?$AA?5?$AAD?$AAI?$AAS?$AAP?$AAC?$AA_?$AAG?$AAF?$AAX?$AA_?$AAW?$AAI?$AAN?$AAD?$AAO?$AAW?$AA_?$AAS?$AAK?$AAI?$AAP?$AA?5?$AA?5?$AA?5?$AA?5?$AA?5?$AA?5?$AA?$DN?$AA?5@| [ DATA ] ; `string'
	EXPORT	|??_C@_1FC@PNNCKMMB@?$AA?5?$AA?5?$AA?5?$AAD?$AAI?$AAS?$AAP?$AAC?$AA_?$AAG?$AAF?$AAX?$AA_?$AAP?$AAI?$AAX?$AAE?$AAL?$AA_?$AAI?$AAN?$AAC?$AA?5?$AA?5?$AA?5?$AA?5?$AA?5?$AA?5?$AA?5?$AA?5?$AA?$DN?$AA?5@| [ DATA ] ; `string'
	EXPORT	|??_C@_1FC@GPIAALEH@?$AA?5?$AA?5?$AA?5?$AAD?$AAI?$AAS?$AAP?$AAC?$AA_?$AAG?$AAF?$AAX?$AA_?$AAR?$AAO?$AAW?$AA_?$AAI?$AAN?$AAC?$AA?5?$AA?5?$AA?5?$AA?5?$AA?5?$AA?5?$AA?5?$AA?5?$AA?5?$AA?5?$AA?$DN?$AA?5@| [ DATA ] ; `string'
	EXPORT	|??_C@_1FC@EGANPFFA@?$AA?5?$AA?5?$AA?5?$AAD?$AAI?$AAS?$AAP?$AAC?$AA_?$AAG?$AAF?$AAX?$AA_?$AAF?$AAI?$AAF?$AAO?$AA_?$AAS?$AAI?$AAZ?$AAE?$AA_?$AAS?$AAT?$AAA?$AAT?$AAU?$AAS?$AA?5?$AA?$DN?$AA?5@| [ DATA ] ; `string'
	EXPORT	|??_C@_1FC@CIGPLNPJ@?$AA?5?$AA?5?$AA?5?$AAD?$AAI?$AAS?$AAP?$AAC?$AA_?$AAG?$AAF?$AAX?$AA_?$AAF?$AAI?$AAF?$AAO?$AA_?$AAT?$AAH?$AAR?$AAE?$AAS?$AAH?$AAO?$AAL?$AAD?$AA?5?$AA?5?$AA?5?$AA?$DN?$AA?5@| [ DATA ] ; `string'
	EXPORT	|??_C@_1FC@PDOGCHJK@?$AA?5?$AA?5?$AA?5?$AAD?$AAI?$AAS?$AAP?$AAC?$AA_?$AAG?$AAF?$AAX?$AA_?$AAA?$AAT?$AAT?$AAR?$AAI?$AAB?$AAU?$AAT?$AAE?$AAS?$AA?5?$AA?5?$AA?5?$AA?5?$AA?5?$AA?5?$AA?5?$AA?$DN?$AA?5@| [ DATA ] ; `string'
	EXPORT	|??_C@_1FC@NCKLHANC@?$AA?5?$AA?5?$AA?5?$AAD?$AAI?$AAS?$AAP?$AAC?$AA_?$AAG?$AAF?$AAX?$AA_?$AAS?$AAI?$AAZ?$AAE?$AA?5?$AA?5?$AA?5?$AA?5?$AA?5?$AA?5?$AA?5?$AA?5?$AA?5?$AA?5?$AA?5?$AA?5?$AA?5?$AA?$DN?$AA?5@| [ DATA ] ; `string'
	EXPORT	|??_C@_1FC@KNDAHLHO@?$AA?5?$AA?5?$AA?5?$AAD?$AAI?$AAS?$AAP?$AAC?$AA_?$AAG?$AAF?$AAX?$AA_?$AAP?$AAO?$AAS?$AAI?$AAT?$AAI?$AAO?$AAN?$AA?5?$AA?5?$AA?5?$AA?5?$AA?5?$AA?5?$AA?5?$AA?5?$AA?5?$AA?$DN?$AA?5@| [ DATA ] ; `string'
	EXPORT	|??_C@_1FC@GCHAOFDP@?$AA?5?$AA?5?$AA?5?$AAD?$AAI?$AAS?$AAP?$AAC?$AA_?$AAG?$AAF?$AAX?$AA_?$AAB?$AAA?$AA1?$AA?5?$AA?5?$AA?5?$AA?5?$AA?5?$AA?5?$AA?5?$AA?5?$AA?5?$AA?5?$AA?5?$AA?5?$AA?5?$AA?5?$AA?$DN?$AA?5@| [ DATA ] ; `string'
	EXPORT	|??_C@_1FC@LLMBJDC@?$AA?5?$AA?5?$AA?5?$AAD?$AAI?$AAS?$AAP?$AAC?$AA_?$AAG?$AAF?$AAX?$AA_?$AAB?$AAA?$AA0?$AA?5?$AA?5?$AA?5?$AA?5?$AA?5?$AA?5?$AA?5?$AA?5?$AA?5?$AA?5?$AA?5?$AA?5?$AA?5?$AA?5?$AA?$DN?$AA?5@| [ DATA ] ; `string'
	EXPORT	|??_C@_1DC@JLFLBJNB@?$AAD?$AAI?$AAS?$AAP?$AAC?$AA?5?$AAR?$AAe?$AAg?$AAi?$AAs?$AAt?$AAe?$AAr?$AAs?$AA?5?$AA?$CI?$AAG?$AAF?$AAX?$AA?$CJ?$AA?3?$AA?$AN?$AA?6?$AA?$AA@| [ DATA ] ; `string'
	EXPORT	|?Dump_DISPC_GFX@@YAXPAUOMAP_DISPC_REGS@@@Z| ; Dump_DISPC_GFX

  00020			 AREA	 |.pdata|, PDATA
|$T36215| DCD	|$LN31@Dump_DISPC@4|
	DCD	0x40009004

  00000			 AREA	 |.rdata|, DATA, READONLY
|??_C@_1FC@KDPNLDMN@?$AA?5?$AA?5?$AA?5?$AAD?$AAI?$AAS?$AAP?$AAC?$AA_?$AAG?$AAF?$AAX?$AA_?$AAT?$AAA?$AAB?$AAL?$AAE?$AA_?$AAB?$AAA?$AA?5?$AA?5?$AA?5?$AA?5?$AA?5?$AA?5?$AA?5?$AA?5?$AA?5?$AA?$DN?$AA?5@| DCB " "
	DCB	0x0, " ", 0x0, " ", 0x0, "D", 0x0, "I", 0x0, "S", 0x0, "P"
	DCB	0x0, "C", 0x0, "_", 0x0, "G", 0x0, "F", 0x0, "X", 0x0, "_"
	DCB	0x0, "T", 0x0, "A", 0x0, "B", 0x0, "L", 0x0, "E", 0x0, "_"
	DCB	0x0, "B", 0x0, "A", 0x0, " ", 0x0, " ", 0x0, " ", 0x0, " "
	DCB	0x0, " ", 0x0, " ", 0x0, " ", 0x0, " ", 0x0, " ", 0x0, "="
	DCB	0x0, " ", 0x0, "0", 0x0, "x", 0x0, "%", 0x0, "0", 0x0, "8"
	DCB	0x0, "x", 0x0, 0xd, 0x0, 0xa, 0x0, 0x0, 0x0 ; `string'

  00000			 AREA	 |.rdata|, DATA, READONLY
|??_C@_1FC@EDFHKDEC@?$AA?5?$AA?5?$AA?5?$AAD?$AAI?$AAS?$AAP?$AAC?$AA_?$AAG?$AAF?$AAX?$AA_?$AAW?$AAI?$AAN?$AAD?$AAO?$AAW?$AA_?$AAS?$AAK?$AAI?$AAP?$AA?5?$AA?5?$AA?5?$AA?5?$AA?5?$AA?5?$AA?$DN?$AA?5@| DCB " "
	DCB	0x0, " ", 0x0, " ", 0x0, "D", 0x0, "I", 0x0, "S", 0x0, "P"
	DCB	0x0, "C", 0x0, "_", 0x0, "G", 0x0, "F", 0x0, "X", 0x0, "_"
	DCB	0x0, "W", 0x0, "I", 0x0, "N", 0x0, "D", 0x0, "O", 0x0, "W"
	DCB	0x0, "_", 0x0, "S", 0x0, "K", 0x0, "I", 0x0, "P", 0x0, " "
	DCB	0x0, " ", 0x0, " ", 0x0, " ", 0x0, " ", 0x0, " ", 0x0, "="
	DCB	0x0, " ", 0x0, "0", 0x0, "x", 0x0, "%", 0x0, "0", 0x0, "8"
	DCB	0x0, "x", 0x0, 0xd, 0x0, 0xa, 0x0, 0x0, 0x0 ; `string'

  00000			 AREA	 |.rdata|, DATA, READONLY
|??_C@_1FC@PNNCKMMB@?$AA?5?$AA?5?$AA?5?$AAD?$AAI?$AAS?$AAP?$AAC?$AA_?$AAG?$AAF?$AAX?$AA_?$AAP?$AAI?$AAX?$AAE?$AAL?$AA_?$AAI?$AAN?$AAC?$AA?5?$AA?5?$AA?5?$AA?5?$AA?5?$AA?5?$AA?5?$AA?5?$AA?$DN?$AA?5@| DCB " "
	DCB	0x0, " ", 0x0, " ", 0x0, "D", 0x0, "I", 0x0, "S", 0x0, "P"
	DCB	0x0, "C", 0x0, "_", 0x0, "G", 0x0, "F", 0x0, "X", 0x0, "_"
	DCB	0x0, "P", 0x0, "I", 0x0, "X", 0x0, "E", 0x0, "L", 0x0, "_"
	DCB	0x0, "I", 0x0, "N", 0x0, "C", 0x0, " ", 0x0, " ", 0x0, " "
	DCB	0x0, " ", 0x0, " ", 0x0, " ", 0x0, " ", 0x0, " ", 0x0, "="
	DCB	0x0, " ", 0x0, "0", 0x0, "x", 0x0, "%", 0x0, "0", 0x0, "8"
	DCB	0x0, "x", 0x0, 0xd, 0x0, 0xa, 0x0, 0x0, 0x0 ; `string'

  00000			 AREA	 |.rdata|, DATA, READONLY
|??_C@_1FC@GPIAALEH@?$AA?5?$AA?5?$AA?5?$AAD?$AAI?$AAS?$AAP?$AAC?$AA_?$AAG?$AAF?$AAX?$AA_?$AAR?$AAO?$AAW?$AA_?$AAI?$AAN?$AAC?$AA?5?$AA?5?$AA?5?$AA?5?$AA?5?$AA?5?$AA?5?$AA?5?$AA?5?$AA?5?$AA?$DN?$AA?5@| DCB " "
	DCB	0x0, " ", 0x0, " ", 0x0, "D", 0x0, "I", 0x0, "S", 0x0, "P"
	DCB	0x0, "C", 0x0, "_", 0x0, "G", 0x0, "F", 0x0, "X", 0x0, "_"
	DCB	0x0, "R", 0x0, "O", 0x0, "W", 0x0, "_", 0x0, "I", 0x0, "N"
	DCB	0x0, "C", 0x0, " ", 0x0, " ", 0x0, " ", 0x0, " ", 0x0, " "
	DCB	0x0, " ", 0x0, " ", 0x0, " ", 0x0, " ", 0x0, " ", 0x0, "="
	DCB	0x0, " ", 0x0, "0", 0x0, "x", 0x0, "%", 0x0, "0", 0x0, "8"
	DCB	0x0, "x", 0x0, 0xd, 0x0, 0xa, 0x0, 0x0, 0x0 ; `string'

  00000			 AREA	 |.rdata|, DATA, READONLY
|??_C@_1FC@EGANPFFA@?$AA?5?$AA?5?$AA?5?$AAD?$AAI?$AAS?$AAP?$AAC?$AA_?$AAG?$AAF?$AAX?$AA_?$AAF?$AAI?$AAF?$AAO?$AA_?$AAS?$AAI?$AAZ?$AAE?$AA_?$AAS?$AAT?$AAA?$AAT?$AAU?$AAS?$AA?5?$AA?$DN?$AA?5@| DCB " "
	DCB	0x0, " ", 0x0, " ", 0x0, "D", 0x0, "I", 0x0, "S", 0x0, "P"
	DCB	0x0, "C", 0x0, "_", 0x0, "G", 0x0, "F", 0x0, "X", 0x0, "_"
	DCB	0x0, "F", 0x0, "I", 0x0, "F", 0x0, "O", 0x0, "_", 0x0, "S"
	DCB	0x0, "I", 0x0, "Z", 0x0, "E", 0x0, "_", 0x0, "S", 0x0, "T"
	DCB	0x0, "A", 0x0, "T", 0x0, "U", 0x0, "S", 0x0, " ", 0x0, "="
	DCB	0x0, " ", 0x0, "0", 0x0, "x", 0x0, "%", 0x0, "0", 0x0, "8"
	DCB	0x0, "x", 0x0, 0xd, 0x0, 0xa, 0x0, 0x0, 0x0 ; `string'

  00000			 AREA	 |.rdata|, DATA, READONLY
|??_C@_1FC@CIGPLNPJ@?$AA?5?$AA?5?$AA?5?$AAD?$AAI?$AAS?$AAP?$AAC?$AA_?$AAG?$AAF?$AAX?$AA_?$AAF?$AAI?$AAF?$AAO?$AA_?$AAT?$AAH?$AAR?$AAE?$AAS?$AAH?$AAO?$AAL?$AAD?$AA?5?$AA?5?$AA?5?$AA?$DN?$AA?5@| DCB " "
	DCB	0x0, " ", 0x0, " ", 0x0, "D", 0x0, "I", 0x0, "S", 0x0, "P"
	DCB	0x0, "C", 0x0, "_", 0x0, "G", 0x0, "F", 0x0, "X", 0x0, "_"
	DCB	0x0, "F", 0x0, "I", 0x0, "F", 0x0, "O", 0x0, "_", 0x0, "T"
	DCB	0x0, "H", 0x0, "R", 0x0, "E", 0x0, "S", 0x0, "H", 0x0, "O"
	DCB	0x0, "L", 0x0, "D", 0x0, " ", 0x0, " ", 0x0, " ", 0x0, "="
	DCB	0x0, " ", 0x0, "0", 0x0, "x", 0x0, "%", 0x0, "0", 0x0, "8"
	DCB	0x0, "x", 0x0, 0xd, 0x0, 0xa, 0x0, 0x0, 0x0 ; `string'

  00000			 AREA	 |.rdata|, DATA, READONLY
|??_C@_1FC@PDOGCHJK@?$AA?5?$AA?5?$AA?5?$AAD?$AAI?$AAS?$AAP?$AAC?$AA_?$AAG?$AAF?$AAX?$AA_?$AAA?$AAT?$AAT?$AAR?$AAI?$AAB?$AAU?$AAT?$AAE?$AAS?$AA?5?$AA?5?$AA?5?$AA?5?$AA?5?$AA?5?$AA?5?$AA?$DN?$AA?5@| DCB " "
	DCB	0x0, " ", 0x0, " ", 0x0, "D", 0x0, "I", 0x0, "S", 0x0, "P"
	DCB	0x0, "C", 0x0, "_", 0x0, "G", 0x0, "F", 0x0, "X", 0x0, "_"
	DCB	0x0, "A", 0x0, "T", 0x0, "T", 0x0, "R", 0x0, "I", 0x0, "B"
	DCB	0x0, "U", 0x0, "T", 0x0, "E", 0x0, "S", 0x0, " ", 0x0, " "
	DCB	0x0, " ", 0x0, " ", 0x0, " ", 0x0, " ", 0x0, " ", 0x0, "="
	DCB	0x0, " ", 0x0, "0", 0x0, "x", 0x0, "%", 0x0, "0", 0x0, "8"
	DCB	0x0, "x", 0x0, 0xd, 0x0, 0xa, 0x0, 0x0, 0x0 ; `string'

  00000			 AREA	 |.rdata|, DATA, READONLY
|??_C@_1FC@NCKLHANC@?$AA?5?$AA?5?$AA?5?$AAD?$AAI?$AAS?$AAP?$AAC?$AA_?$AAG?$AAF?$AAX?$AA_?$AAS?$AAI?$AAZ?$AAE?$AA?5?$AA?5?$AA?5?$AA?5?$AA?5?$AA?5?$AA?5?$AA?5?$AA?5?$AA?5?$AA?5?$AA?5?$AA?5?$AA?$DN?$AA?5@| DCB " "
	DCB	0x0, " ", 0x0, " ", 0x0, "D", 0x0, "I", 0x0, "S", 0x0, "P"
	DCB	0x0, "C", 0x0, "_", 0x0, "G", 0x0, "F", 0x0, "X", 0x0, "_"
	DCB	0x0, "S", 0x0, "I", 0x0, "Z", 0x0, "E", 0x0, " ", 0x0, " "
	DCB	0x0, " ", 0x0, " ", 0x0, " ", 0x0, " ", 0x0, " ", 0x0, " "
	DCB	0x0, " ", 0x0, " ", 0x0, " ", 0x0, " ", 0x0, " ", 0x0, "="
	DCB	0x0, " ", 0x0, "0", 0x0, "x", 0x0, "%", 0x0, "0", 0x0, "8"
	DCB	0x0, "x", 0x0, 0xd, 0x0, 0xa, 0x0, 0x0, 0x0 ; `string'

  00000			 AREA	 |.rdata|, DATA, READONLY
|??_C@_1FC@KNDAHLHO@?$AA?5?$AA?5?$AA?5?$AAD?$AAI?$AAS?$AAP?$AAC?$AA_?$AAG?$AAF?$AAX?$AA_?$AAP?$AAO?$AAS?$AAI?$AAT?$AAI?$AAO?$AAN?$AA?5?$AA?5?$AA?5?$AA?5?$AA?5?$AA?5?$AA?5?$AA?5?$AA?5?$AA?$DN?$AA?5@| DCB " "
	DCB	0x0, " ", 0x0, " ", 0x0, "D", 0x0, "I", 0x0, "S", 0x0, "P"
	DCB	0x0, "C", 0x0, "_", 0x0, "G", 0x0, "F", 0x0, "X", 0x0, "_"
	DCB	0x0, "P", 0x0, "O", 0x0, "S", 0x0, "I", 0x0, "T", 0x0, "I"
	DCB	0x0, "O", 0x0, "N", 0x0, " ", 0x0, " ", 0x0, " ", 0x0, " "
	DCB	0x0, " ", 0x0, " ", 0x0, " ", 0x0, " ", 0x0, " ", 0x0, "="
	DCB	0x0, " ", 0x0, "0", 0x0, "x", 0x0, "%", 0x0, "0", 0x0, "8"
	DCB	0x0, "x", 0x0, 0xd, 0x0, 0xa, 0x0, 0x0, 0x0 ; `string'

  00000			 AREA	 |.rdata|, DATA, READONLY
|??_C@_1FC@GCHAOFDP@?$AA?5?$AA?5?$AA?5?$AAD?$AAI?$AAS?$AAP?$AAC?$AA_?$AAG?$AAF?$AAX?$AA_?$AAB?$AAA?$AA1?$AA?5?$AA?5?$AA?5?$AA?5?$AA?5?$AA?5?$AA?5?$AA?5?$AA?5?$AA?5?$AA?5?$AA?5?$AA?5?$AA?5?$AA?$DN?$AA?5@| DCB " "
	DCB	0x0, " ", 0x0, " ", 0x0, "D", 0x0, "I", 0x0, "S", 0x0, "P"
	DCB	0x0, "C", 0x0, "_", 0x0, "G", 0x0, "F", 0x0, "X", 0x0, "_"
	DCB	0x0, "B", 0x0, "A", 0x0, "1", 0x0, " ", 0x0, " ", 0x0, " "
	DCB	0x0, " ", 0x0, " ", 0x0, " ", 0x0, " ", 0x0, " ", 0x0, " "
	DCB	0x0, " ", 0x0, " ", 0x0, " ", 0x0, " ", 0x0, " ", 0x0, "="
	DCB	0x0, " ", 0x0, "0", 0x0, "x", 0x0, "%", 0x0, "0", 0x0, "8"
	DCB	0x0, "x", 0x0, 0xd, 0x0, 0xa, 0x0, 0x0, 0x0 ; `string'

  00000			 AREA	 |.rdata|, DATA, READONLY
|??_C@_1FC@LLMBJDC@?$AA?5?$AA?5?$AA?5?$AAD?$AAI?$AAS?$AAP?$AAC?$AA_?$AAG?$AAF?$AAX?$AA_?$AAB?$AAA?$AA0?$AA?5?$AA?5?$AA?5?$AA?5?$AA?5?$AA?5?$AA?5?$AA?5?$AA?5?$AA?5?$AA?5?$AA?5?$AA?5?$AA?5?$AA?$DN?$AA?5@| DCB " "
	DCB	0x0, " ", 0x0, " ", 0x0, "D", 0x0, "I", 0x0, "S", 0x0, "P"
	DCB	0x0, "C", 0x0, "_", 0x0, "G", 0x0, "F", 0x0, "X", 0x0, "_"
	DCB	0x0, "B", 0x0, "A", 0x0, "0", 0x0, " ", 0x0, " ", 0x0, " "
	DCB	0x0, " ", 0x0, " ", 0x0, " ", 0x0, " ", 0x0, " ", 0x0, " "
	DCB	0x0, " ", 0x0, " ", 0x0, " ", 0x0, " ", 0x0, " ", 0x0, "="
	DCB	0x0, " ", 0x0, "0", 0x0, "x", 0x0, "%", 0x0, "0", 0x0, "8"
	DCB	0x0, "x", 0x0, 0xd, 0x0, 0xa, 0x0, 0x0, 0x0 ; `string'

  00000			 AREA	 |.rdata|, DATA, READONLY
|??_C@_1DC@JLFLBJNB@?$AAD?$AAI?$AAS?$AAP?$AAC?$AA?5?$AAR?$AAe?$AAg?$AAi?$AAs?$AAt?$AAe?$AAr?$AAs?$AA?5?$AA?$CI?$AAG?$AAF?$AAX?$AA?$CJ?$AA?3?$AA?$AN?$AA?6?$AA?$AA@| DCB "D"
	DCB	0x0, "I", 0x0, "S", 0x0, "P", 0x0, "C", 0x0, " ", 0x0, "R"
	DCB	0x0, "e", 0x0, "g", 0x0, "i", 0x0, "s", 0x0, "t", 0x0, "e"
	DCB	0x0, "r", 0x0, "s", 0x0, " ", 0x0, "(", 0x0, "G", 0x0, "F"
	DCB	0x0, "X", 0x0, ")", 0x0, ":", 0x0, 0xd, 0x0, 0xa, 0x0, 0x0
	DCB	0x0					; `string'
; Function compile flags: /Odtp

  0060c			 AREA	 |.text|, CODE, ARM

  0060c		 |?Dump_DISPC_GFX@@YAXPAUOMAP_DISPC_REGS@@@Z| PROC ; Dump_DISPC_GFX

; 92   : {

  0060c		 |$LN31@Dump_DISPC@4|
  0060c	e1a0c00d	 mov         r12, sp
  00610	e92d0001	 stmdb       sp!, {r0}
  00614	e92d5000	 stmdb       sp!, {r12, lr}
  00618	e24dd034	 sub         sp, sp, #0x34
  0061c		 |$M36212|

; 93   :     DEBUGMSG(DUMP_DISPC_GFX, (L"DISPC Registers (GFX):\r\n"));

  0061c	e59f0224	 ldr         r0, [pc, #0x224]
  00620	eb000000	 bl          NKDbgPrintfW
  00624	e3a03001	 mov         r3, #1
  00628	e58d3000	 str         r3, [sp]
  0062c	ea000001	 b           |$LN4@Dump_DISPC@4|
  00630	e3a03000	 mov         r3, #0
  00634	e58d3000	 str         r3, [sp]
  00638		 |$LN4@Dump_DISPC@4|

; 94   :     DEBUGMSG(DUMP_DISPC_GFX, (L"   DISPC_GFX_BA0              = 0x%08x\r\n", INREG32(&pRegs->DISPC_GFX_BA0)));

  00638	e59d303c	 ldr         r3, [sp, #0x3C]
  0063c	e2833080	 add         r3, r3, #0x80
  00640	e5931000	 ldr         r1, [r3]
  00644	e59f01f8	 ldr         r0, [pc, #0x1F8]
  00648	eb000000	 bl          NKDbgPrintfW
  0064c	e3a03001	 mov         r3, #1
  00650	e58d3004	 str         r3, [sp, #4]
  00654	ea000001	 b           |$LN6@Dump_DISPC@4|
  00658	e3a03000	 mov         r3, #0
  0065c	e58d3004	 str         r3, [sp, #4]
  00660		 |$LN6@Dump_DISPC@4|

; 95   :     DEBUGMSG(DUMP_DISPC_GFX, (L"   DISPC_GFX_BA1              = 0x%08x\r\n", INREG32(&pRegs->DISPC_GFX_BA1)));

  00660	e59d303c	 ldr         r3, [sp, #0x3C]
  00664	e2833084	 add         r3, r3, #0x84
  00668	e5931000	 ldr         r1, [r3]
  0066c	e59f01cc	 ldr         r0, [pc, #0x1CC]
  00670	eb000000	 bl          NKDbgPrintfW
  00674	e3a03001	 mov         r3, #1
  00678	e58d3008	 str         r3, [sp, #8]
  0067c	ea000001	 b           |$LN8@Dump_DISPC@4|
  00680	e3a03000	 mov         r3, #0
  00684	e58d3008	 str         r3, [sp, #8]
  00688		 |$LN8@Dump_DISPC@4|

; 96   :     DEBUGMSG(DUMP_DISPC_GFX, (L"   DISPC_GFX_POSITION         = 0x%08x\r\n", INREG32(&pRegs->DISPC_GFX_POSITION)));

  00688	e59d303c	 ldr         r3, [sp, #0x3C]
  0068c	e2833088	 add         r3, r3, #0x88
  00690	e5931000	 ldr         r1, [r3]
  00694	e59f01a0	 ldr         r0, [pc, #0x1A0]
  00698	eb000000	 bl          NKDbgPrintfW
  0069c	e3a03001	 mov         r3, #1
  006a0	e58d300c	 str         r3, [sp, #0xC]
  006a4	ea000001	 b           |$LN10@Dump_DISPC@4|
  006a8	e3a03000	 mov         r3, #0
  006ac	e58d300c	 str         r3, [sp, #0xC]
  006b0		 |$LN10@Dump_DISPC@4|

; 97   :     DEBUGMSG(DUMP_DISPC_GFX, (L"   DISPC_GFX_SIZE             = 0x%08x\r\n", INREG32(&pRegs->DISPC_GFX_SIZE)));

  006b0	e59d303c	 ldr         r3, [sp, #0x3C]
  006b4	e283308c	 add         r3, r3, #0x8C
  006b8	e5931000	 ldr         r1, [r3]
  006bc	e59f0174	 ldr         r0, [pc, #0x174]
  006c0	eb000000	 bl          NKDbgPrintfW
  006c4	e3a03001	 mov         r3, #1
  006c8	e58d3010	 str         r3, [sp, #0x10]
  006cc	ea000001	 b           |$LN12@Dump_DISPC@4|
  006d0	e3a03000	 mov         r3, #0
  006d4	e58d3010	 str         r3, [sp, #0x10]
  006d8		 |$LN12@Dump_DISPC@4|

; 98   :     DEBUGMSG(DUMP_DISPC_GFX, (L"   DISPC_GFX_ATTRIBUTES       = 0x%08x\r\n", INREG32(&pRegs->DISPC_GFX_ATTRIBUTES)));

  006d8	e59d303c	 ldr         r3, [sp, #0x3C]
  006dc	e28330a0	 add         r3, r3, #0xA0
  006e0	e5931000	 ldr         r1, [r3]
  006e4	e59f0148	 ldr         r0, [pc, #0x148]
  006e8	eb000000	 bl          NKDbgPrintfW
  006ec	e3a03001	 mov         r3, #1
  006f0	e58d3014	 str         r3, [sp, #0x14]
  006f4	ea000001	 b           |$LN14@Dump_DISPC@4|
  006f8	e3a03000	 mov         r3, #0
  006fc	e58d3014	 str         r3, [sp, #0x14]
  00700		 |$LN14@Dump_DISPC@4|

; 99   :     DEBUGMSG(DUMP_DISPC_GFX, (L"   DISPC_GFX_FIFO_THRESHOLD   = 0x%08x\r\n", INREG32(&pRegs->DISPC_GFX_FIFO_THRESHOLD)));

  00700	e59d303c	 ldr         r3, [sp, #0x3C]
  00704	e28330a4	 add         r3, r3, #0xA4
  00708	e5931000	 ldr         r1, [r3]
  0070c	e59f011c	 ldr         r0, [pc, #0x11C]
  00710	eb000000	 bl          NKDbgPrintfW
  00714	e3a03001	 mov         r3, #1
  00718	e58d3018	 str         r3, [sp, #0x18]
  0071c	ea000001	 b           |$LN16@Dump_DISPC@4|
  00720	e3a03000	 mov         r3, #0
  00724	e58d3018	 str         r3, [sp, #0x18]
  00728		 |$LN16@Dump_DISPC@4|

; 100  :     DEBUGMSG(DUMP_DISPC_GFX, (L"   DISPC_GFX_FIFO_SIZE_STATUS = 0x%08x\r\n", INREG32(&pRegs->DISPC_GFX_FIFO_SIZE_STATUS)));

  00728	e59d303c	 ldr         r3, [sp, #0x3C]
  0072c	e28330a8	 add         r3, r3, #0xA8
  00730	e5931000	 ldr         r1, [r3]
  00734	e59f00f0	 ldr         r0, [pc, #0xF0]
  00738	eb000000	 bl          NKDbgPrintfW
  0073c	e3a03001	 mov         r3, #1
  00740	e58d301c	 str         r3, [sp, #0x1C]
  00744	ea000001	 b           |$LN18@Dump_DISPC@4|
  00748	e3a03000	 mov         r3, #0
  0074c	e58d301c	 str         r3, [sp, #0x1C]
  00750		 |$LN18@Dump_DISPC@4|

; 101  :     DEBUGMSG(DUMP_DISPC_GFX, (L"   DISPC_GFX_ROW_INC          = 0x%08x\r\n", INREG32(&pRegs->DISPC_GFX_ROW_INC)));

  00750	e59d303c	 ldr         r3, [sp, #0x3C]
  00754	e28330ac	 add         r3, r3, #0xAC
  00758	e5931000	 ldr         r1, [r3]
  0075c	e59f00c4	 ldr         r0, [pc, #0xC4]
  00760	eb000000	 bl          NKDbgPrintfW
  00764	e3a03001	 mov         r3, #1
  00768	e58d3020	 str         r3, [sp, #0x20]
  0076c	ea000001	 b           |$LN20@Dump_DISPC@4|
  00770	e3a03000	 mov         r3, #0
  00774	e58d3020	 str         r3, [sp, #0x20]
  00778		 |$LN20@Dump_DISPC@4|

; 102  :     DEBUGMSG(DUMP_DISPC_GFX, (L"   DISPC_GFX_PIXEL_INC        = 0x%08x\r\n", INREG32(&pRegs->DISPC_GFX_PIXEL_INC)));

  00778	e59d303c	 ldr         r3, [sp, #0x3C]
  0077c	e28330b0	 add         r3, r3, #0xB0
  00780	e5931000	 ldr         r1, [r3]
  00784	e59f0098	 ldr         r0, [pc, #0x98]
  00788	eb000000	 bl          NKDbgPrintfW
  0078c	e3a03001	 mov         r3, #1
  00790	e58d3024	 str         r3, [sp, #0x24]
  00794	ea000001	 b           |$LN22@Dump_DISPC@4|
  00798	e3a03000	 mov         r3, #0
  0079c	e58d3024	 str         r3, [sp, #0x24]
  007a0		 |$LN22@Dump_DISPC@4|

; 103  :     DEBUGMSG(DUMP_DISPC_GFX, (L"   DISPC_GFX_WINDOW_SKIP      = 0x%08x\r\n", INREG32(&pRegs->DISPC_GFX_WINDOW_SKIP)));

  007a0	e59d303c	 ldr         r3, [sp, #0x3C]
  007a4	e28330b4	 add         r3, r3, #0xB4
  007a8	e5931000	 ldr         r1, [r3]
  007ac	e59f006c	 ldr         r0, [pc, #0x6C]
  007b0	eb000000	 bl          NKDbgPrintfW
  007b4	e3a03001	 mov         r3, #1
  007b8	e58d3028	 str         r3, [sp, #0x28]
  007bc	ea000001	 b           |$LN24@Dump_DISPC@4|
  007c0	e3a03000	 mov         r3, #0
  007c4	e58d3028	 str         r3, [sp, #0x28]
  007c8		 |$LN24@Dump_DISPC@4|

; 104  :     DEBUGMSG(DUMP_DISPC_GFX, (L"   DISPC_GFX_TABLE_BA         = 0x%08x\r\n", INREG32(&pRegs->DISPC_GFX_TABLE_BA)));

  007c8	e59d303c	 ldr         r3, [sp, #0x3C]
  007cc	e28330b8	 add         r3, r3, #0xB8
  007d0	e5931000	 ldr         r1, [r3]
  007d4	e59f0040	 ldr         r0, [pc, #0x40]
  007d8	eb000000	 bl          NKDbgPrintfW
  007dc	e3a03001	 mov         r3, #1
  007e0	e58d302c	 str         r3, [sp, #0x2C]
  007e4	ea000001	 b           |$LN26@Dump_DISPC@4|
  007e8	e3a03000	 mov         r3, #0
  007ec	e58d302c	 str         r3, [sp, #0x2C]
  007f0		 |$LN26@Dump_DISPC@4|

; 105  :     DEBUGMSG(DUMP_DISPC_GFX, (L"\r\n"));

  007f0	e59f0020	 ldr         r0, [pc, #0x20]
  007f4	eb000000	 bl          NKDbgPrintfW
  007f8	e3a03001	 mov         r3, #1
  007fc	e58d3030	 str         r3, [sp, #0x30]
  00800	ea000001	 b           |$LN28@Dump_DISPC@4|
  00804	e3a03000	 mov         r3, #0
  00808	e58d3030	 str         r3, [sp, #0x30]
  0080c		 |$LN28@Dump_DISPC@4|

; 106  : }

  0080c	e28dd034	 add         sp, sp, #0x34
  00810	e89d6000	 ldmia       sp, {sp, lr}
  00814	e12fff1e	 bx          lr
  00818		 |$LN32@Dump_DISPC@4|
  00818		 |$LN33@Dump_DISPC@4|
  00818	00000000	 DCD         |??_C@_15JNBOKNOG@?$AA?$AN?$AA?6?$AA?$AA@|
  0081c		 |$LN34@Dump_DISPC@4|
  0081c	00000000	 DCD         |??_C@_1FC@KDPNLDMN@?$AA?5?$AA?5?$AA?5?$AAD?$AAI?$AAS?$AAP?$AAC?$AA_?$AAG?$AAF?$AAX?$AA_?$AAT?$AAA?$AAB?$AAL?$AAE?$AA_?$AAB?$AAA?$AA?5?$AA?5?$AA?5?$AA?5?$AA?5?$AA?5?$AA?5?$AA?5?$AA?5?$AA?$DN?$AA?5@|
  00820		 |$LN35@Dump_DISPC@4|
  00820	00000000	 DCD         |??_C@_1FC@EDFHKDEC@?$AA?5?$AA?5?$AA?5?$AAD?$AAI?$AAS?$AAP?$AAC?$AA_?$AAG?$AAF?$AAX?$AA_?$AAW?$AAI?$AAN?$AAD?$AAO?$AAW?$AA_?$AAS?$AAK?$AAI?$AAP?$AA?5?$AA?5?$AA?5?$AA?5?$AA?5?$AA?5?$AA?$DN?$AA?5@|
  00824		 |$LN36@Dump_DISPC@4|
  00824	00000000	 DCD         |??_C@_1FC@PNNCKMMB@?$AA?5?$AA?5?$AA?5?$AAD?$AAI?$AAS?$AAP?$AAC?$AA_?$AAG?$AAF?$AAX?$AA_?$AAP?$AAI?$AAX?$AAE?$AAL?$AA_?$AAI?$AAN?$AAC?$AA?5?$AA?5?$AA?5?$AA?5?$AA?5?$AA?5?$AA?5?$AA?5?$AA?$DN?$AA?5@|
  00828		 |$LN37@Dump_DISPC@4|
  00828	00000000	 DCD         |??_C@_1FC@GPIAALEH@?$AA?5?$AA?5?$AA?5?$AAD?$AAI?$AAS?$AAP?$AAC?$AA_?$AAG?$AAF?$AAX?$AA_?$AAR?$AAO?$AAW?$AA_?$AAI?$AAN?$AAC?$AA?5?$AA?5?$AA?5?$AA?5?$AA?5?$AA?5?$AA?5?$AA?5?$AA?5?$AA?5?$AA?$DN?$AA?5@|
  0082c		 |$LN38@Dump_DISPC@4|
  0082c	00000000	 DCD         |??_C@_1FC@EGANPFFA@?$AA?5?$AA?5?$AA?5?$AAD?$AAI?$AAS?$AAP?$AAC?$AA_?$AAG?$AAF?$AAX?$AA_?$AAF?$AAI?$AAF?$AAO?$AA_?$AAS?$AAI?$AAZ?$AAE?$AA_?$AAS?$AAT?$AAA?$AAT?$AAU?$AAS?$AA?5?$AA?$DN?$AA?5@|
  00830		 |$LN39@Dump_DISPC@4|
  00830	00000000	 DCD         |??_C@_1FC@CIGPLNPJ@?$AA?5?$AA?5?$AA?5?$AAD?$AAI?$AAS?$AAP?$AAC?$AA_?$AAG?$AAF?$AAX?$AA_?$AAF?$AAI?$AAF?$AAO?$AA_?$AAT?$AAH?$AAR?$AAE?$AAS?$AAH?$AAO?$AAL?$AAD?$AA?5?$AA?5?$AA?5?$AA?$DN?$AA?5@|
  00834		 |$LN40@Dump_DISPC@4|
  00834	00000000	 DCD         |??_C@_1FC@PDOGCHJK@?$AA?5?$AA?5?$AA?5?$AAD?$AAI?$AAS?$AAP?$AAC?$AA_?$AAG?$AAF?$AAX?$AA_?$AAA?$AAT?$AAT?$AAR?$AAI?$AAB?$AAU?$AAT?$AAE?$AAS?$AA?5?$AA?5?$AA?5?$AA?5?$AA?5?$AA?5?$AA?5?$AA?$DN?$AA?5@|
  00838		 |$LN41@Dump_DISPC@4|
  00838	00000000	 DCD         |??_C@_1FC@NCKLHANC@?$AA?5?$AA?5?$AA?5?$AAD?$AAI?$AAS?$AAP?$AAC?$AA_?$AAG?$AAF?$AAX?$AA_?$AAS?$AAI?$AAZ?$AAE?$AA?5?$AA?5?$AA?5?$AA?5?$AA?5?$AA?5?$AA?5?$AA?5?$AA?5?$AA?5?$AA?5?$AA?5?$AA?5?$AA?$DN?$AA?5@|
  0083c		 |$LN42@Dump_DISPC@4|
  0083c	00000000	 DCD         |??_C@_1FC@KNDAHLHO@?$AA?5?$AA?5?$AA?5?$AAD?$AAI?$AAS?$AAP?$AAC?$AA_?$AAG?$AAF?$AAX?$AA_?$AAP?$AAO?$AAS?$AAI?$AAT?$AAI?$AAO?$AAN?$AA?5?$AA?5?$AA?5?$AA?5?$AA?5?$AA?5?$AA?5?$AA?5?$AA?5?$AA?$DN?$AA?5@|
  00840		 |$LN43@Dump_DISPC@4|
  00840	00000000	 DCD         |??_C@_1FC@GCHAOFDP@?$AA?5?$AA?5?$AA?5?$AAD?$AAI?$AAS?$AAP?$AAC?$AA_?$AAG?$AAF?$AAX?$AA_?$AAB?$AAA?$AA1?$AA?5?$AA?5?$AA?5?$AA?5?$AA?5?$AA?5?$AA?5?$AA?5?$AA?5?$AA?5?$AA?5?$AA?5?$AA?5?$AA?5?$AA?$DN?$AA?5@|
  00844		 |$LN44@Dump_DISPC@4|
  00844	00000000	 DCD         |??_C@_1FC@LLMBJDC@?$AA?5?$AA?5?$AA?5?$AAD?$AAI?$AAS?$AAP?$AAC?$AA_?$AAG?$AAF?$AAX?$AA_?$AAB?$AAA?$AA0?$AA?5?$AA?5?$AA?5?$AA?5?$AA?5?$AA?5?$AA?5?$AA?5?$AA?5?$AA?5?$AA?5?$AA?5?$AA?5?$AA?5?$AA?$DN?$AA?5@|
  00848		 |$LN45@Dump_DISPC@4|
  00848	00000000	 DCD         |??_C@_1DC@JLFLBJNB@?$AAD?$AAI?$AAS?$AAP?$AAC?$AA?5?$AAR?$AAe?$AAg?$AAi?$AAs?$AAt?$AAe?$AAr?$AAs?$AA?5?$AA?$CI?$AAG?$AAF?$AAX?$AA?$CJ?$AA?3?$AA?$AN?$AA?6?$AA?$AA@|
  0084c		 |$M36213|

			 ENDP  ; |?Dump_DISPC_GFX@@YAXPAUOMAP_DISPC_REGS@@@Z|, Dump_DISPC_GFX

	EXPORT	|??_C@_1FE@HPIOKND@?$AA?5?$AA?5?$AA?5?$AAD?$AAI?$AAS?$AAP?$AAC?$AA_?$AAV?$AAI?$AAD?$AAn?$AA_?$AAC?$AAO?$AAN?$AAV?$AA_?$AAC?$AAO?$AAE?$AAF?$AA4?$AA?5?$AA?5?$AA?5?$AA?5?$AA?5?$AA?5?$AA?5?$AA?$DN@| [ DATA ] ; `string'
	EXPORT	|??_C@_1FE@BBKABHPP@?$AA?5?$AA?5?$AA?5?$AAD?$AAI?$AAS?$AAP?$AAC?$AA_?$AAV?$AAI?$AAD?$AAn?$AA_?$AAC?$AAO?$AAN?$AAV?$AA_?$AAC?$AAO?$AAE?$AAF?$AA3?$AA?5?$AA?5?$AA?5?$AA?5?$AA?5?$AA?5?$AA?5?$AA?$DN@| [ DATA ] ; `string'
	EXPORT	|??_C@_1FE@JMCIOKBN@?$AA?5?$AA?5?$AA?5?$AAD?$AAI?$AAS?$AAP?$AAC?$AA_?$AAV?$AAI?$AAD?$AAn?$AA_?$AAC?$AAO?$AAN?$AAV?$AA_?$AAC?$AAO?$AAE?$AAF?$AA2?$AA?5?$AA?5?$AA?5?$AA?5?$AA?5?$AA?5?$AA?5?$AA?$DN@| [ DATA ] ; `string'
	EXPORT	|??_C@_1FE@NBMAOKHK@?$AA?5?$AA?5?$AA?5?$AAD?$AAI?$AAS?$AAP?$AAC?$AA_?$AAV?$AAI?$AAD?$AAn?$AA_?$AAC?$AAO?$AAN?$AAV?$AA_?$AAC?$AAO?$AAE?$AAF?$AA1?$AA?5?$AA?5?$AA?5?$AA?5?$AA?5?$AA?5?$AA?5?$AA?$DN@| [ DATA ] ; `string'
	EXPORT	|??_C@_1FE@FMEIBHJI@?$AA?5?$AA?5?$AA?5?$AAD?$AAI?$AAS?$AAP?$AAC?$AA_?$AAV?$AAI?$AAD?$AAn?$AA_?$AAC?$AAO?$AAN?$AAV?$AA_?$AAC?$AAO?$AAE?$AAF?$AA0?$AA?5?$AA?5?$AA?5?$AA?5?$AA?5?$AA?5?$AA?5?$AA?$DN@| [ DATA ] ; `string'
	EXPORT	|??_C@_1GC@OGFMGGFC@?$AA?5?$AA?5?$AA?5?$AA?5?$AA?5?$AA?$CF?$AAd?$AA?3?$AA?5?$AAH?$AA?5?$AA?$DN?$AA?5?$AA0?$AAx?$AA?$CF?$AA0?$AA8?$AAx?$AA?5?$AA?5?$AA?5?$AAH?$AAV?$AA?5?$AA?$DN?$AA?5?$AA0?$AAx?$AA?$CF?$AA0?$AA8@| [ DATA ] ; `string'
	EXPORT	|??_C@_1EM@FKPLDECL@?$AA?5?$AA?5?$AA?5?$AAD?$AAI?$AAS?$AAP?$AAC?$AA_?$AAV?$AAI?$AAD?$AAn?$AA_?$AAF?$AAI?$AAR?$AA_?$AAC?$AAO?$AAE?$AAF?$AA_?$AAH?$AAi?$AA?5?$AA_?$AAH?$AAV?$AAi?$AA?5?$AA_@| [ DATA ] ; `string'
	EXPORT	|??_C@_1FE@INEPMMAI@?$AA?5?$AA?5?$AA?5?$AAD?$AAI?$AAS?$AAP?$AAC?$AA_?$AAV?$AAI?$AAD?$AAn?$AA_?$AAA?$AAC?$AAC?$AAU?$AA1?$AA?5?$AA?5?$AA?5?$AA?5?$AA?5?$AA?5?$AA?5?$AA?5?$AA?5?$AA?5?$AA?5?$AA?5?$AA?$DN@| [ DATA ] ; `string'
	EXPORT	|??_C@_1FE@LAPOCANE@?$AA?5?$AA?5?$AA?5?$AAD?$AAI?$AAS?$AAP?$AAC?$AA_?$AAV?$AAI?$AAD?$AAn?$AA_?$AAA?$AAC?$AAC?$AAU?$AA0?$AA?5?$AA?5?$AA?5?$AA?5?$AA?5?$AA?5?$AA?5?$AA?5?$AA?5?$AA?5?$AA?5?$AA?5?$AA?$DN@| [ DATA ] ; `string'
	EXPORT	|??_C@_1FE@JDLLCBJP@?$AA?5?$AA?5?$AA?5?$AAD?$AAI?$AAS?$AAP?$AAC?$AA_?$AAV?$AAI?$AAD?$AAn?$AA_?$AAP?$AAI?$AAC?$AAT?$AAU?$AAR?$AAE?$AA_?$AAS?$AAI?$AAZ?$AAE?$AA?5?$AA?5?$AA?5?$AA?5?$AA?5?$AA?$DN@| [ DATA ] ; `string'
	EXPORT	|??_C@_1FE@PDJIMMJC@?$AA?5?$AA?5?$AA?5?$AAD?$AAI?$AAS?$AAP?$AAC?$AA_?$AAV?$AAI?$AAD?$AAn?$AA_?$AAF?$AAI?$AAR?$AA?5?$AA?5?$AA?5?$AA?5?$AA?5?$AA?5?$AA?5?$AA?5?$AA?5?$AA?5?$AA?5?$AA?5?$AA?5?$AA?5?$AA?$DN@| [ DATA ] ; `string'
	EXPORT	|??_C@_1FE@FAAIECOJ@?$AA?5?$AA?5?$AA?5?$AAD?$AAI?$AAS?$AAP?$AAC?$AA_?$AAV?$AAI?$AAD?$AAn?$AA_?$AAP?$AAI?$AAX?$AAE?$AAL?$AA_?$AAI?$AAN?$AAC?$AA?5?$AA?5?$AA?5?$AA?5?$AA?5?$AA?5?$AA?5?$AA?5?$AA?$DN@| [ DATA ] ; `string'
	EXPORT	|??_C@_1FE@MCFKOFGP@?$AA?5?$AA?5?$AA?5?$AAD?$AAI?$AAS?$AAP?$AAC?$AA_?$AAV?$AAI?$AAD?$AAn?$AA_?$AAR?$AAO?$AAW?$AA_?$AAI?$AAN?$AAC?$AA?5?$AA?5?$AA?5?$AA?5?$AA?5?$AA?5?$AA?5?$AA?5?$AA?5?$AA?5?$AA?$DN@| [ DATA ] ; `string'
	EXPORT	|??_C@_1FE@OLNHBLHI@?$AA?5?$AA?5?$AA?5?$AAD?$AAI?$AAS?$AAP?$AAC?$AA_?$AAV?$AAI?$AAD?$AAn?$AA_?$AAF?$AAI?$AAF?$AAO?$AA_?$AAS?$AAI?$AAZ?$AAE?$AA_?$AAS?$AAT?$AAA?$AAT?$AAU?$AAS?$AA?5?$AA?$DN@| [ DATA ] ; `string'
	EXPORT	|??_C@_1FE@IFLFFDNB@?$AA?5?$AA?5?$AA?5?$AAD?$AAI?$AAS?$AAP?$AAC?$AA_?$AAV?$AAI?$AAD?$AAn?$AA_?$AAF?$AAI?$AAF?$AAO?$AA_?$AAT?$AAH?$AAR?$AAE?$AAS?$AAH?$AAO?$AAL?$AAD?$AA?5?$AA?5?$AA?5?$AA?$DN@| [ DATA ] ; `string'
	EXPORT	|??_C@_1FE@FODMMJLC@?$AA?5?$AA?5?$AA?5?$AAD?$AAI?$AAS?$AAP?$AAC?$AA_?$AAV?$AAI?$AAD?$AAn?$AA_?$AAA?$AAT?$AAT?$AAR?$AAI?$AAB?$AAU?$AAT?$AAE?$AAS?$AA?5?$AA?5?$AA?5?$AA?5?$AA?5?$AA?5?$AA?5?$AA?$DN@| [ DATA ] ; `string'
	EXPORT	|??_C@_1FE@HPHBJOPK@?$AA?5?$AA?5?$AA?5?$AAD?$AAI?$AAS?$AAP?$AAC?$AA_?$AAV?$AAI?$AAD?$AAn?$AA_?$AAS?$AAI?$AAZ?$AAE?$AA?5?$AA?5?$AA?5?$AA?5?$AA?5?$AA?5?$AA?5?$AA?5?$AA?5?$AA?5?$AA?5?$AA?5?$AA?5?$AA?$DN@| [ DATA ] ; `string'
	EXPORT	|??_C@_1FE@OKJFFG@?$AA?5?$AA?5?$AA?5?$AAD?$AAI?$AAS?$AAP?$AAC?$AA_?$AAV?$AAI?$AAD?$AAn?$AA_?$AAP?$AAO?$AAS?$AAI?$AAT?$AAI?$AAO?$AAN?$AA?5?$AA?5?$AA?5?$AA?5?$AA?5?$AA?5?$AA?5?$AA?5?$AA?5?$AA?$DN@| [ DATA ] ; `string'
	EXPORT	|??_C@_1FE@MPKKALBH@?$AA?5?$AA?5?$AA?5?$AAD?$AAI?$AAS?$AAP?$AAC?$AA_?$AAV?$AAI?$AAD?$AAn?$AA_?$AAB?$AAA?$AA1?$AA?5?$AA?5?$AA?5?$AA?5?$AA?5?$AA?5?$AA?5?$AA?5?$AA?5?$AA?5?$AA?5?$AA?5?$AA?5?$AA?5?$AA?$DN@| [ DATA ] ; `string'
	EXPORT	|??_C@_1FE@KGGGPHBK@?$AA?5?$AA?5?$AA?5?$AAD?$AAI?$AAS?$AAP?$AAC?$AA_?$AAV?$AAI?$AAD?$AAn?$AA_?$AAB?$AAA?$AA0?$AA?5?$AA?5?$AA?5?$AA?5?$AA?5?$AA?5?$AA?5?$AA?5?$AA?5?$AA?5?$AA?5?$AA?5?$AA?5?$AA?5?$AA?$DN@| [ DATA ] ; `string'
	EXPORT	|??_C@_1DI@JCCAEKHI@?$AAD?$AAI?$AAS?$AAP?$AAC?$AA?5?$AAR?$AAe?$AAg?$AAi?$AAs?$AAt?$AAe?$AAr?$AAs?$AA?5?$AA?$CI?$AAV?$AAI?$AAD?$AA?5?$AA?$CF?$AAd?$AA?$CJ?$AA?3?$AA?$AN?$AA?6?$AA?$AA@| [ DATA ] ; `string'
	EXPORT	|?Dump_DISPC_VID@@YAXPAUOMAP_VID_REGS@@PAIK@Z| ; Dump_DISPC_VID

  00028			 AREA	 |.pdata|, PDATA
|$T36279| DCD	|$LN52@Dump_DISPC@5|
	DCD	0x40010e04

  00000			 AREA	 |.rdata|, DATA, READONLY
|??_C@_1FE@HPIOKND@?$AA?5?$AA?5?$AA?5?$AAD?$AAI?$AAS?$AAP?$AAC?$AA_?$AAV?$AAI?$AAD?$AAn?$AA_?$AAC?$AAO?$AAN?$AAV?$AA_?$AAC?$AAO?$AAE?$AAF?$AA4?$AA?5?$AA?5?$AA?5?$AA?5?$AA?5?$AA?5?$AA?5?$AA?$DN@| DCB " "
	DCB	0x0, " ", 0x0, " ", 0x0, "D", 0x0, "I", 0x0, "S", 0x0, "P"
	DCB	0x0, "C", 0x0, "_", 0x0, "V", 0x0, "I", 0x0, "D", 0x0, "n"
	DCB	0x0, "_", 0x0, "C", 0x0, "O", 0x0, "N", 0x0, "V", 0x0, "_"
	DCB	0x0, "C", 0x0, "O", 0x0, "E", 0x0, "F", 0x0, "4", 0x0, " "
	DCB	0x0, " ", 0x0, " ", 0x0, " ", 0x0, " ", 0x0, " ", 0x0, " "
	DCB	0x0, "=", 0x0, " ", 0x0, "0", 0x0, "x", 0x0, "%", 0x0, "0"
	DCB	0x0, "8", 0x0, "x", 0x0, 0xd, 0x0, 0xa, 0x0, 0x0, 0x0 ; `string'

  00000			 AREA	 |.rdata|, DATA, READONLY
|??_C@_1FE@BBKABHPP@?$AA?5?$AA?5?$AA?5?$AAD?$AAI?$AAS?$AAP?$AAC?$AA_?$AAV?$AAI?$AAD?$AAn?$AA_?$AAC?$AAO?$AAN?$AAV?$AA_?$AAC?$AAO?$AAE?$AAF?$AA3?$AA?5?$AA?5?$AA?5?$AA?5?$AA?5?$AA?5?$AA?5?$AA?$DN@| DCB " "
	DCB	0x0, " ", 0x0, " ", 0x0, "D", 0x0, "I", 0x0, "S", 0x0, "P"
	DCB	0x0, "C", 0x0, "_", 0x0, "V", 0x0, "I", 0x0, "D", 0x0, "n"
	DCB	0x0, "_", 0x0, "C", 0x0, "O", 0x0, "N", 0x0, "V", 0x0, "_"
	DCB	0x0, "C", 0x0, "O", 0x0, "E", 0x0, "F", 0x0, "3", 0x0, " "
	DCB	0x0, " ", 0x0, " ", 0x0, " ", 0x0, " ", 0x0, " ", 0x0, " "
	DCB	0x0, "=", 0x0, " ", 0x0, "0", 0x0, "x", 0x0, "%", 0x0, "0"
	DCB	0x0, "8", 0x0, "x", 0x0, 0xd, 0x0, 0xa, 0x0, 0x0, 0x0 ; `string'

  00000			 AREA	 |.rdata|, DATA, READONLY
|??_C@_1FE@JMCIOKBN@?$AA?5?$AA?5?$AA?5?$AAD?$AAI?$AAS?$AAP?$AAC?$AA_?$AAV?$AAI?$AAD?$AAn?$AA_?$AAC?$AAO?$AAN?$AAV?$AA_?$AAC?$AAO?$AAE?$AAF?$AA2?$AA?5?$AA?5?$AA?5?$AA?5?$AA?5?$AA?5?$AA?5?$AA?$DN@| DCB " "
	DCB	0x0, " ", 0x0, " ", 0x0, "D", 0x0, "I", 0x0, "S", 0x0, "P"
	DCB	0x0, "C", 0x0, "_", 0x0, "V", 0x0, "I", 0x0, "D", 0x0, "n"
	DCB	0x0, "_", 0x0, "C", 0x0, "O", 0x0, "N", 0x0, "V", 0x0, "_"
	DCB	0x0, "C", 0x0, "O", 0x0, "E", 0x0, "F", 0x0, "2", 0x0, " "
	DCB	0x0, " ", 0x0, " ", 0x0, " ", 0x0, " ", 0x0, " ", 0x0, " "
	DCB	0x0, "=", 0x0, " ", 0x0, "0", 0x0, "x", 0x0, "%", 0x0, "0"
	DCB	0x0, "8", 0x0, "x", 0x0, 0xd, 0x0, 0xa, 0x0, 0x0, 0x0 ; `string'

  00000			 AREA	 |.rdata|, DATA, READONLY
|??_C@_1FE@NBMAOKHK@?$AA?5?$AA?5?$AA?5?$AAD?$AAI?$AAS?$AAP?$AAC?$AA_?$AAV?$AAI?$AAD?$AAn?$AA_?$AAC?$AAO?$AAN?$AAV?$AA_?$AAC?$AAO?$AAE?$AAF?$AA1?$AA?5?$AA?5?$AA?5?$AA?5?$AA?5?$AA?5?$AA?5?$AA?$DN@| DCB " "
	DCB	0x0, " ", 0x0, " ", 0x0, "D", 0x0, "I", 0x0, "S", 0x0, "P"
	DCB	0x0, "C", 0x0, "_", 0x0, "V", 0x0, "I", 0x0, "D", 0x0, "n"
	DCB	0x0, "_", 0x0, "C", 0x0, "O", 0x0, "N", 0x0, "V", 0x0, "_"
	DCB	0x0, "C", 0x0, "O", 0x0, "E", 0x0, "F", 0x0, "1", 0x0, " "
	DCB	0x0, " ", 0x0, " ", 0x0, " ", 0x0, " ", 0x0, " ", 0x0, " "
	DCB	0x0, "=", 0x0, " ", 0x0, "0", 0x0, "x", 0x0, "%", 0x0, "0"
	DCB	0x0, "8", 0x0, "x", 0x0, 0xd, 0x0, 0xa, 0x0, 0x0, 0x0 ; `string'

  00000			 AREA	 |.rdata|, DATA, READONLY
|??_C@_1FE@FMEIBHJI@?$AA?5?$AA?5?$AA?5?$AAD?$AAI?$AAS?$AAP?$AAC?$AA_?$AAV?$AAI?$AAD?$AAn?$AA_?$AAC?$AAO?$AAN?$AAV?$AA_?$AAC?$AAO?$AAE?$AAF?$AA0?$AA?5?$AA?5?$AA?5?$AA?5?$AA?5?$AA?5?$AA?5?$AA?$DN@| DCB " "
	DCB	0x0, " ", 0x0, " ", 0x0, "D", 0x0, "I", 0x0, "S", 0x0, "P"
	DCB	0x0, "C", 0x0, "_", 0x0, "V", 0x0, "I", 0x0, "D", 0x0, "n"
	DCB	0x0, "_", 0x0, "C", 0x0, "O", 0x0, "N", 0x0, "V", 0x0, "_"
	DCB	0x0, "C", 0x0, "O", 0x0, "E", 0x0, "F", 0x0, "0", 0x0, " "
	DCB	0x0, " ", 0x0, " ", 0x0, " ", 0x0, " ", 0x0, " ", 0x0, " "
	DCB	0x0, "=", 0x0, " ", 0x0, "0", 0x0, "x", 0x0, "%", 0x0, "0"
	DCB	0x0, "8", 0x0, "x", 0x0, 0xd, 0x0, 0xa, 0x0, 0x0, 0x0 ; `string'

  00000			 AREA	 |.rdata|, DATA, READONLY
|??_C@_1GC@OGFMGGFC@?$AA?5?$AA?5?$AA?5?$AA?5?$AA?5?$AA?$CF?$AAd?$AA?3?$AA?5?$AAH?$AA?5?$AA?$DN?$AA?5?$AA0?$AAx?$AA?$CF?$AA0?$AA8?$AAx?$AA?5?$AA?5?$AA?5?$AAH?$AAV?$AA?5?$AA?$DN?$AA?5?$AA0?$AAx?$AA?$CF?$AA0?$AA8@| DCB " "
	DCB	0x0, " ", 0x0, " ", 0x0, " ", 0x0, " ", 0x0, "%", 0x0, "d"
	DCB	0x0, ":", 0x0, " ", 0x0, "H", 0x0, " ", 0x0, "=", 0x0, " "
	DCB	0x0, "0", 0x0, "x", 0x0, "%", 0x0, "0", 0x0, "8", 0x0, "x"
	DCB	0x0, " ", 0x0, " ", 0x0, " ", 0x0, "H", 0x0, "V", 0x0, " "
	DCB	0x0, "=", 0x0, " ", 0x0, "0", 0x0, "x", 0x0, "%", 0x0, "0"
	DCB	0x0, "8", 0x0, "x", 0x0, " ", 0x0, " ", 0x0, " ", 0x0, "V"
	DCB	0x0, " ", 0x0, "=", 0x0, " ", 0x0, "0", 0x0, "x", 0x0, "%"
	DCB	0x0, "0", 0x0, "8", 0x0, "x", 0x0, 0xd, 0x0, 0xa, 0x0, 0x0
	DCB	0x0					; `string'

  00000			 AREA	 |.rdata|, DATA, READONLY
|??_C@_1EM@FKPLDECL@?$AA?5?$AA?5?$AA?5?$AAD?$AAI?$AAS?$AAP?$AAC?$AA_?$AAV?$AAI?$AAD?$AAn?$AA_?$AAF?$AAI?$AAR?$AA_?$AAC?$AAO?$AAE?$AAF?$AA_?$AAH?$AAi?$AA?5?$AA_?$AAH?$AAV?$AAi?$AA?5?$AA_@| DCB " "
	DCB	0x0, " ", 0x0, " ", 0x0, "D", 0x0, "I", 0x0, "S", 0x0, "P"
	DCB	0x0, "C", 0x0, "_", 0x0, "V", 0x0, "I", 0x0, "D", 0x0, "n"
	DCB	0x0, "_", 0x0, "F", 0x0, "I", 0x0, "R", 0x0, "_", 0x0, "C"
	DCB	0x0, "O", 0x0, "E", 0x0, "F", 0x0, "_", 0x0, "H", 0x0, "i"
	DCB	0x0, " ", 0x0, "_", 0x0, "H", 0x0, "V", 0x0, "i", 0x0, " "
	DCB	0x0, "_", 0x0, "V", 0x0, "i", 0x0, ":", 0x0, 0xd, 0x0, 0xa
	DCB	0x0, 0x0, 0x0				; `string'

  00000			 AREA	 |.rdata|, DATA, READONLY
|??_C@_1FE@INEPMMAI@?$AA?5?$AA?5?$AA?5?$AAD?$AAI?$AAS?$AAP?$AAC?$AA_?$AAV?$AAI?$AAD?$AAn?$AA_?$AAA?$AAC?$AAC?$AAU?$AA1?$AA?5?$AA?5?$AA?5?$AA?5?$AA?5?$AA?5?$AA?5?$AA?5?$AA?5?$AA?5?$AA?5?$AA?5?$AA?$DN@| DCB " "
	DCB	0x0, " ", 0x0, " ", 0x0, "D", 0x0, "I", 0x0, "S", 0x0, "P"
	DCB	0x0, "C", 0x0, "_", 0x0, "V", 0x0, "I", 0x0, "D", 0x0, "n"
	DCB	0x0, "_", 0x0, "A", 0x0, "C", 0x0, "C", 0x0, "U", 0x0, "1"
	DCB	0x0, " ", 0x0, " ", 0x0, " ", 0x0, " ", 0x0, " ", 0x0, " "
	DCB	0x0, " ", 0x0, " ", 0x0, " ", 0x0, " ", 0x0, " ", 0x0, " "
	DCB	0x0, "=", 0x0, " ", 0x0, "0", 0x0, "x", 0x0, "%", 0x0, "0"
	DCB	0x0, "8", 0x0, "x", 0x0, 0xd, 0x0, 0xa, 0x0, 0x0, 0x0 ; `string'

  00000			 AREA	 |.rdata|, DATA, READONLY
|??_C@_1FE@LAPOCANE@?$AA?5?$AA?5?$AA?5?$AAD?$AAI?$AAS?$AAP?$AAC?$AA_?$AAV?$AAI?$AAD?$AAn?$AA_?$AAA?$AAC?$AAC?$AAU?$AA0?$AA?5?$AA?5?$AA?5?$AA?5?$AA?5?$AA?5?$AA?5?$AA?5?$AA?5?$AA?5?$AA?5?$AA?5?$AA?$DN@| DCB " "
	DCB	0x0, " ", 0x0, " ", 0x0, "D", 0x0, "I", 0x0, "S", 0x0, "P"
	DCB	0x0, "C", 0x0, "_", 0x0, "V", 0x0, "I", 0x0, "D", 0x0, "n"
	DCB	0x0, "_", 0x0, "A", 0x0, "C", 0x0, "C", 0x0, "U", 0x0, "0"
	DCB	0x0, " ", 0x0, " ", 0x0, " ", 0x0, " ", 0x0, " ", 0x0, " "
	DCB	0x0, " ", 0x0, " ", 0x0, " ", 0x0, " ", 0x0, " ", 0x0, " "
	DCB	0x0, "=", 0x0, " ", 0x0, "0", 0x0, "x", 0x0, "%", 0x0, "0"
	DCB	0x0, "8", 0x0, "x", 0x0, 0xd, 0x0, 0xa, 0x0, 0x0, 0x0 ; `string'

  00000			 AREA	 |.rdata|, DATA, READONLY
|??_C@_1FE@JDLLCBJP@?$AA?5?$AA?5?$AA?5?$AAD?$AAI?$AAS?$AAP?$AAC?$AA_?$AAV?$AAI?$AAD?$AAn?$AA_?$AAP?$AAI?$AAC?$AAT?$AAU?$AAR?$AAE?$AA_?$AAS?$AAI?$AAZ?$AAE?$AA?5?$AA?5?$AA?5?$AA?5?$AA?5?$AA?$DN@| DCB " "
	DCB	0x0, " ", 0x0, " ", 0x0, "D", 0x0, "I", 0x0, "S", 0x0, "P"
	DCB	0x0, "C", 0x0, "_", 0x0, "V", 0x0, "I", 0x0, "D", 0x0, "n"
	DCB	0x0, "_", 0x0, "P", 0x0, "I", 0x0, "C", 0x0, "T", 0x0, "U"
	DCB	0x0, "R", 0x0, "E", 0x0, "_", 0x0, "S", 0x0, "I", 0x0, "Z"
	DCB	0x0, "E", 0x0, " ", 0x0, " ", 0x0, " ", 0x0, " ", 0x0, " "
	DCB	0x0, "=", 0x0, " ", 0x0, "0", 0x0, "x", 0x0, "%", 0x0, "0"
	DCB	0x0, "8", 0x0, "x", 0x0, 0xd, 0x0, 0xa, 0x0, 0x0, 0x0 ; `string'

  00000			 AREA	 |.rdata|, DATA, READONLY
|??_C@_1FE@PDJIMMJC@?$AA?5?$AA?5?$AA?5?$AAD?$AAI?$AAS?$AAP?$AAC?$AA_?$AAV?$AAI?$AAD?$AAn?$AA_?$AAF?$AAI?$AAR?$AA?5?$AA?5?$AA?5?$AA?5?$AA?5?$AA?5?$AA?5?$AA?5?$AA?5?$AA?5?$AA?5?$AA?5?$AA?5?$AA?5?$AA?$DN@| DCB " "
	DCB	0x0, " ", 0x0, " ", 0x0, "D", 0x0, "I", 0x0, "S", 0x0, "P"
	DCB	0x0, "C", 0x0, "_", 0x0, "V", 0x0, "I", 0x0, "D", 0x0, "n"
	DCB	0x0, "_", 0x0, "F", 0x0, "I", 0x0, "R", 0x0, " ", 0x0, " "
	DCB	0x0, " ", 0x0, " ", 0x0, " ", 0x0, " ", 0x0, " ", 0x0, " "
	DCB	0x0, " ", 0x0, " ", 0x0, " ", 0x0, " ", 0x0, " ", 0x0, " "
	DCB	0x0, "=", 0x0, " ", 0x0, "0", 0x0, "x", 0x0, "%", 0x0, "0"
	DCB	0x0, "8", 0x0, "x", 0x0, 0xd, 0x0, 0xa, 0x0, 0x0, 0x0 ; `string'

  00000			 AREA	 |.rdata|, DATA, READONLY
|??_C@_1FE@FAAIECOJ@?$AA?5?$AA?5?$AA?5?$AAD?$AAI?$AAS?$AAP?$AAC?$AA_?$AAV?$AAI?$AAD?$AAn?$AA_?$AAP?$AAI?$AAX?$AAE?$AAL?$AA_?$AAI?$AAN?$AAC?$AA?5?$AA?5?$AA?5?$AA?5?$AA?5?$AA?5?$AA?5?$AA?5?$AA?$DN@| DCB " "
	DCB	0x0, " ", 0x0, " ", 0x0, "D", 0x0, "I", 0x0, "S", 0x0, "P"
	DCB	0x0, "C", 0x0, "_", 0x0, "V", 0x0, "I", 0x0, "D", 0x0, "n"
	DCB	0x0, "_", 0x0, "P", 0x0, "I", 0x0, "X", 0x0, "E", 0x0, "L"
	DCB	0x0, "_", 0x0, "I", 0x0, "N", 0x0, "C", 0x0, " ", 0x0, " "
	DCB	0x0, " ", 0x0, " ", 0x0, " ", 0x0, " ", 0x0, " ", 0x0, " "
	DCB	0x0, "=", 0x0, " ", 0x0, "0", 0x0, "x", 0x0, "%", 0x0, "0"
	DCB	0x0, "8", 0x0, "x", 0x0, 0xd, 0x0, 0xa, 0x0, 0x0, 0x0 ; `string'

  00000			 AREA	 |.rdata|, DATA, READONLY
|??_C@_1FE@MCFKOFGP@?$AA?5?$AA?5?$AA?5?$AAD?$AAI?$AAS?$AAP?$AAC?$AA_?$AAV?$AAI?$AAD?$AAn?$AA_?$AAR?$AAO?$AAW?$AA_?$AAI?$AAN?$AAC?$AA?5?$AA?5?$AA?5?$AA?5?$AA?5?$AA?5?$AA?5?$AA?5?$AA?5?$AA?5?$AA?$DN@| DCB " "
	DCB	0x0, " ", 0x0, " ", 0x0, "D", 0x0, "I", 0x0, "S", 0x0, "P"
	DCB	0x0, "C", 0x0, "_", 0x0, "V", 0x0, "I", 0x0, "D", 0x0, "n"
	DCB	0x0, "_", 0x0, "R", 0x0, "O", 0x0, "W", 0x0, "_", 0x0, "I"
	DCB	0x0, "N", 0x0, "C", 0x0, " ", 0x0, " ", 0x0, " ", 0x0, " "
	DCB	0x0, " ", 0x0, " ", 0x0, " ", 0x0, " ", 0x0, " ", 0x0, " "
	DCB	0x0, "=", 0x0, " ", 0x0, "0", 0x0, "x", 0x0, "%", 0x0, "0"
	DCB	0x0, "8", 0x0, "x", 0x0, 0xd, 0x0, 0xa, 0x0, 0x0, 0x0 ; `string'

  00000			 AREA	 |.rdata|, DATA, READONLY
|??_C@_1FE@OLNHBLHI@?$AA?5?$AA?5?$AA?5?$AAD?$AAI?$AAS?$AAP?$AAC?$AA_?$AAV?$AAI?$AAD?$AAn?$AA_?$AAF?$AAI?$AAF?$AAO?$AA_?$AAS?$AAI?$AAZ?$AAE?$AA_?$AAS?$AAT?$AAA?$AAT?$AAU?$AAS?$AA?5?$AA?$DN@| DCB " "
	DCB	0x0, " ", 0x0, " ", 0x0, "D", 0x0, "I", 0x0, "S", 0x0, "P"
	DCB	0x0, "C", 0x0, "_", 0x0, "V", 0x0, "I", 0x0, "D", 0x0, "n"
	DCB	0x0, "_", 0x0, "F", 0x0, "I", 0x0, "F", 0x0, "O", 0x0, "_"
	DCB	0x0, "S", 0x0, "I", 0x0, "Z", 0x0, "E", 0x0, "_", 0x0, "S"
	DCB	0x0, "T", 0x0, "A", 0x0, "T", 0x0, "U", 0x0, "S", 0x0, " "
	DCB	0x0, "=", 0x0, " ", 0x0, "0", 0x0, "x", 0x0, "%", 0x0, "0"
	DCB	0x0, "8", 0x0, "x", 0x0, 0xd, 0x0, 0xa, 0x0, 0x0, 0x0 ; `string'

  00000			 AREA	 |.rdata|, DATA, READONLY
|??_C@_1FE@IFLFFDNB@?$AA?5?$AA?5?$AA?5?$AAD?$AAI?$AAS?$AAP?$AAC?$AA_?$AAV?$AAI?$AAD?$AAn?$AA_?$AAF?$AAI?$AAF?$AAO?$AA_?$AAT?$AAH?$AAR?$AAE?$AAS?$AAH?$AAO?$AAL?$AAD?$AA?5?$AA?5?$AA?5?$AA?$DN@| DCB " "
	DCB	0x0, " ", 0x0, " ", 0x0, "D", 0x0, "I", 0x0, "S", 0x0, "P"
	DCB	0x0, "C", 0x0, "_", 0x0, "V", 0x0, "I", 0x0, "D", 0x0, "n"
	DCB	0x0, "_", 0x0, "F", 0x0, "I", 0x0, "F", 0x0, "O", 0x0, "_"
	DCB	0x0, "T", 0x0, "H", 0x0, "R", 0x0, "E", 0x0, "S", 0x0, "H"
	DCB	0x0, "O", 0x0, "L", 0x0, "D", 0x0, " ", 0x0, " ", 0x0, " "
	DCB	0x0, "=", 0x0, " ", 0x0, "0", 0x0, "x", 0x0, "%", 0x0, "0"
	DCB	0x0, "8", 0x0, "x", 0x0, 0xd, 0x0, 0xa, 0x0, 0x0, 0x0 ; `string'

  00000			 AREA	 |.rdata|, DATA, READONLY
|??_C@_1FE@FODMMJLC@?$AA?5?$AA?5?$AA?5?$AAD?$AAI?$AAS?$AAP?$AAC?$AA_?$AAV?$AAI?$AAD?$AAn?$AA_?$AAA?$AAT?$AAT?$AAR?$AAI?$AAB?$AAU?$AAT?$AAE?$AAS?$AA?5?$AA?5?$AA?5?$AA?5?$AA?5?$AA?5?$AA?5?$AA?$DN@| DCB " "
	DCB	0x0, " ", 0x0, " ", 0x0, "D", 0x0, "I", 0x0, "S", 0x0, "P"
	DCB	0x0, "C", 0x0, "_", 0x0, "V", 0x0, "I", 0x0, "D", 0x0, "n"
	DCB	0x0, "_", 0x0, "A", 0x0, "T", 0x0, "T", 0x0, "R", 0x0, "I"
	DCB	0x0, "B", 0x0, "U", 0x0, "T", 0x0, "E", 0x0, "S", 0x0, " "
	DCB	0x0, " ", 0x0, " ", 0x0, " ", 0x0, " ", 0x0, " ", 0x0, " "
	DCB	0x0, "=", 0x0, " ", 0x0, "0", 0x0, "x", 0x0, "%", 0x0, "0"
	DCB	0x0, "8", 0x0, "x", 0x0, 0xd, 0x0, 0xa, 0x0, 0x0, 0x0 ; `string'

  00000			 AREA	 |.rdata|, DATA, READONLY
|??_C@_1FE@HPHBJOPK@?$AA?5?$AA?5?$AA?5?$AAD?$AAI?$AAS?$AAP?$AAC?$AA_?$AAV?$AAI?$AAD?$AAn?$AA_?$AAS?$AAI?$AAZ?$AAE?$AA?5?$AA?5?$AA?5?$AA?5?$AA?5?$AA?5?$AA?5?$AA?5?$AA?5?$AA?5?$AA?5?$AA?5?$AA?5?$AA?$DN@| DCB " "
	DCB	0x0, " ", 0x0, " ", 0x0, "D", 0x0, "I", 0x0, "S", 0x0, "P"
	DCB	0x0, "C", 0x0, "_", 0x0, "V", 0x0, "I", 0x0, "D", 0x0, "n"
	DCB	0x0, "_", 0x0, "S", 0x0, "I", 0x0, "Z", 0x0, "E", 0x0, " "
	DCB	0x0, " ", 0x0, " ", 0x0, " ", 0x0, " ", 0x0, " ", 0x0, " "
	DCB	0x0, " ", 0x0, " ", 0x0, " ", 0x0, " ", 0x0, " ", 0x0, " "
	DCB	0x0, "=", 0x0, " ", 0x0, "0", 0x0, "x", 0x0, "%", 0x0, "0"
	DCB	0x0, "8", 0x0, "x", 0x0, 0xd, 0x0, 0xa, 0x0, 0x0, 0x0 ; `string'

  00000			 AREA	 |.rdata|, DATA, READONLY
|??_C@_1FE@OKJFFG@?$AA?5?$AA?5?$AA?5?$AAD?$AAI?$AAS?$AAP?$AAC?$AA_?$AAV?$AAI?$AAD?$AAn?$AA_?$AAP?$AAO?$AAS?$AAI?$AAT?$AAI?$AAO?$AAN?$AA?5?$AA?5?$AA?5?$AA?5?$AA?5?$AA?5?$AA?5?$AA?5?$AA?5?$AA?$DN@| DCB " "
	DCB	0x0, " ", 0x0, " ", 0x0, "D", 0x0, "I", 0x0, "S", 0x0, "P"
	DCB	0x0, "C", 0x0, "_", 0x0, "V", 0x0, "I", 0x0, "D", 0x0, "n"
	DCB	0x0, "_", 0x0, "P", 0x0, "O", 0x0, "S", 0x0, "I", 0x0, "T"
	DCB	0x0, "I", 0x0, "O", 0x0, "N", 0x0, " ", 0x0, " ", 0x0, " "
	DCB	0x0, " ", 0x0, " ", 0x0, " ", 0x0, " ", 0x0, " ", 0x0, " "
	DCB	0x0, "=", 0x0, " ", 0x0, "0", 0x0, "x", 0x0, "%", 0x0, "0"
	DCB	0x0, "8", 0x0, "x", 0x0, 0xd, 0x0, 0xa, 0x0, 0x0, 0x0 ; `string'

  00000			 AREA	 |.rdata|, DATA, READONLY
|??_C@_1FE@MPKKALBH@?$AA?5?$AA?5?$AA?5?$AAD?$AAI?$AAS?$AAP?$AAC?$AA_?$AAV?$AAI?$AAD?$AAn?$AA_?$AAB?$AAA?$AA1?$AA?5?$AA?5?$AA?5?$AA?5?$AA?5?$AA?5?$AA?5?$AA?5?$AA?5?$AA?5?$AA?5?$AA?5?$AA?5?$AA?5?$AA?$DN@| DCB " "
	DCB	0x0, " ", 0x0, " ", 0x0, "D", 0x0, "I", 0x0, "S", 0x0, "P"
	DCB	0x0, "C", 0x0, "_", 0x0, "V", 0x0, "I", 0x0, "D", 0x0, "n"
	DCB	0x0, "_", 0x0, "B", 0x0, "A", 0x0, "1", 0x0, " ", 0x0, " "
	DCB	0x0, " ", 0x0, " ", 0x0, " ", 0x0, " ", 0x0, " ", 0x0, " "
	DCB	0x0, " ", 0x0, " ", 0x0, " ", 0x0, " ", 0x0, " ", 0x0, " "
	DCB	0x0, "=", 0x0, " ", 0x0, "0", 0x0, "x", 0x0, "%", 0x0, "0"
	DCB	0x0, "8", 0x0, "x", 0x0, 0xd, 0x0, 0xa, 0x0, 0x0, 0x0 ; `string'

  00000			 AREA	 |.rdata|, DATA, READONLY
|??_C@_1FE@KGGGPHBK@?$AA?5?$AA?5?$AA?5?$AAD?$AAI?$AAS?$AAP?$AAC?$AA_?$AAV?$AAI?$AAD?$AAn?$AA_?$AAB?$AAA?$AA0?$AA?5?$AA?5?$AA?5?$AA?5?$AA?5?$AA?5?$AA?5?$AA?5?$AA?5?$AA?5?$AA?5?$AA?5?$AA?5?$AA?5?$AA?$DN@| DCB " "
	DCB	0x0, " ", 0x0, " ", 0x0, "D", 0x0, "I", 0x0, "S", 0x0, "P"
	DCB	0x0, "C", 0x0, "_", 0x0, "V", 0x0, "I", 0x0, "D", 0x0, "n"
	DCB	0x0, "_", 0x0, "B", 0x0, "A", 0x0, "0", 0x0, " ", 0x0, " "
	DCB	0x0, " ", 0x0, " ", 0x0, " ", 0x0, " ", 0x0, " ", 0x0, " "
	DCB	0x0, " ", 0x0, " ", 0x0, " ", 0x0, " ", 0x0, " ", 0x0, " "
	DCB	0x0, "=", 0x0, " ", 0x0, "0", 0x0, "x", 0x0, "%", 0x0, "0"
	DCB	0x0, "8", 0x0, "x", 0x0, 0xd, 0x0, 0xa, 0x0, 0x0, 0x0 ; `string'

  00000			 AREA	 |.rdata|, DATA, READONLY
|??_C@_1DI@JCCAEKHI@?$AAD?$AAI?$AAS?$AAP?$AAC?$AA?5?$AAR?$AAe?$AAg?$AAi?$AAs?$AAt?$AAe?$AAr?$AAs?$AA?5?$AA?$CI?$AAV?$AAI?$AAD?$AA?5?$AA?$CF?$AAd?$AA?$CJ?$AA?3?$AA?$AN?$AA?6?$AA?$AA@| DCB "D"
	DCB	0x0, "I", 0x0, "S", 0x0, "P", 0x0, "C", 0x0, " ", 0x0, "R"
	DCB	0x0, "e", 0x0, "g", 0x0, "i", 0x0, "s", 0x0, "t", 0x0, "e"
	DCB	0x0, "r", 0x0, "s", 0x0, " ", 0x0, "(", 0x0, "V", 0x0, "I"
	DCB	0x0, "D", 0x0, " ", 0x0, "%", 0x0, "d", 0x0, ")", 0x0, ":"
	DCB	0x0, 0xd, 0x0, 0xa, 0x0, 0x0, 0x0	; `string'
; Function compile flags: /Odtp

  0084c			 AREA	 |.text|, CODE, ARM

  0084c		 |?Dump_DISPC_VID@@YAXPAUOMAP_VID_REGS@@PAIK@Z| PROC ; Dump_DISPC_VID

; 115  : {

  0084c		 |$LN52@Dump_DISPC@5|
  0084c	e1a0c00d	 mov         r12, sp
  00850	e92d0007	 stmdb       sp!, {r0 - r2}
  00854	e92d5000	 stmdb       sp!, {r12, lr}
  00858	e24dd064	 sub         sp, sp, #0x64
  0085c		 |$M36276|

; 116  :     DWORD   i;
; 117  :     
; 118  :     DEBUGMSG(DUMP_DISPC_VID, (L"DISPC Registers (VID %d):\r\n", x));

  0085c	e59d1074	 ldr         r1, [sp, #0x74]
  00860	e59f0418	 ldr         r0, [pc, #0x418]
  00864	eb000000	 bl          NKDbgPrintfW
  00868	e3a03001	 mov         r3, #1
  0086c	e58d300c	 str         r3, [sp, #0xC]
  00870	ea000001	 b           |$LN7@Dump_DISPC@5|
  00874	e3a03000	 mov         r3, #0
  00878	e58d300c	 str         r3, [sp, #0xC]
  0087c		 |$LN7@Dump_DISPC@5|

; 119  :     DEBUGMSG(DUMP_DISPC_VID, (L"   DISPC_VIDn_BA0              = 0x%08x\r\n", INREG32(&pRegs->BA0)));

  0087c	e59d306c	 ldr         r3, [sp, #0x6C]
  00880	e5931000	 ldr         r1, [r3]
  00884	e59f03f0	 ldr         r0, [pc, #0x3F0]
  00888	eb000000	 bl          NKDbgPrintfW
  0088c	e3a03001	 mov         r3, #1
  00890	e58d3010	 str         r3, [sp, #0x10]
  00894	ea000001	 b           |$LN9@Dump_DISPC@5|
  00898	e3a03000	 mov         r3, #0
  0089c	e58d3010	 str         r3, [sp, #0x10]
  008a0		 |$LN9@Dump_DISPC@5|

; 120  :     DEBUGMSG(DUMP_DISPC_VID, (L"   DISPC_VIDn_BA1              = 0x%08x\r\n", INREG32(&pRegs->BA1)));

  008a0	e59d306c	 ldr         r3, [sp, #0x6C]
  008a4	e2833004	 add         r3, r3, #4
  008a8	e5931000	 ldr         r1, [r3]
  008ac	e59f03c4	 ldr         r0, [pc, #0x3C4]
  008b0	eb000000	 bl          NKDbgPrintfW
  008b4	e3a03001	 mov         r3, #1
  008b8	e58d3014	 str         r3, [sp, #0x14]
  008bc	ea000001	 b           |$LN11@Dump_DISPC@5|
  008c0	e3a03000	 mov         r3, #0
  008c4	e58d3014	 str         r3, [sp, #0x14]
  008c8		 |$LN11@Dump_DISPC@5|

; 121  :     DEBUGMSG(DUMP_DISPC_VID, (L"   DISPC_VIDn_POSITION         = 0x%08x\r\n", INREG32(&pRegs->POSITION)));

  008c8	e59d306c	 ldr         r3, [sp, #0x6C]
  008cc	e2833008	 add         r3, r3, #8
  008d0	e5931000	 ldr         r1, [r3]
  008d4	e59f0398	 ldr         r0, [pc, #0x398]
  008d8	eb000000	 bl          NKDbgPrintfW
  008dc	e3a03001	 mov         r3, #1
  008e0	e58d3018	 str         r3, [sp, #0x18]
  008e4	ea000001	 b           |$LN13@Dump_DISPC@5|
  008e8	e3a03000	 mov         r3, #0
  008ec	e58d3018	 str         r3, [sp, #0x18]
  008f0		 |$LN13@Dump_DISPC@5|

; 122  :     DEBUGMSG(DUMP_DISPC_VID, (L"   DISPC_VIDn_SIZE             = 0x%08x\r\n", INREG32(&pRegs->SIZE)));

  008f0	e59d306c	 ldr         r3, [sp, #0x6C]
  008f4	e283300c	 add         r3, r3, #0xC
  008f8	e5931000	 ldr         r1, [r3]
  008fc	e59f036c	 ldr         r0, [pc, #0x36C]
  00900	eb000000	 bl          NKDbgPrintfW
  00904	e3a03001	 mov         r3, #1
  00908	e58d301c	 str         r3, [sp, #0x1C]
  0090c	ea000001	 b           |$LN15@Dump_DISPC@5|
  00910	e3a03000	 mov         r3, #0
  00914	e58d301c	 str         r3, [sp, #0x1C]
  00918		 |$LN15@Dump_DISPC@5|

; 123  :     DEBUGMSG(DUMP_DISPC_VID, (L"   DISPC_VIDn_ATTRIBUTES       = 0x%08x\r\n", INREG32(&pRegs->ATTRIBUTES)));

  00918	e59d306c	 ldr         r3, [sp, #0x6C]
  0091c	e2833010	 add         r3, r3, #0x10
  00920	e5931000	 ldr         r1, [r3]
  00924	e59f0340	 ldr         r0, [pc, #0x340]
  00928	eb000000	 bl          NKDbgPrintfW
  0092c	e3a03001	 mov         r3, #1
  00930	e58d3020	 str         r3, [sp, #0x20]
  00934	ea000001	 b           |$LN17@Dump_DISPC@5|
  00938	e3a03000	 mov         r3, #0
  0093c	e58d3020	 str         r3, [sp, #0x20]
  00940		 |$LN17@Dump_DISPC@5|

; 124  :     DEBUGMSG(DUMP_DISPC_VID, (L"   DISPC_VIDn_FIFO_THRESHOLD   = 0x%08x\r\n", INREG32(&pRegs->FIFO_THRESHOLD)));

  00940	e59d306c	 ldr         r3, [sp, #0x6C]
  00944	e2833014	 add         r3, r3, #0x14
  00948	e5931000	 ldr         r1, [r3]
  0094c	e59f0314	 ldr         r0, [pc, #0x314]
  00950	eb000000	 bl          NKDbgPrintfW
  00954	e3a03001	 mov         r3, #1
  00958	e58d3024	 str         r3, [sp, #0x24]
  0095c	ea000001	 b           |$LN19@Dump_DISPC@5|
  00960	e3a03000	 mov         r3, #0
  00964	e58d3024	 str         r3, [sp, #0x24]
  00968		 |$LN19@Dump_DISPC@5|

; 125  :     DEBUGMSG(DUMP_DISPC_VID, (L"   DISPC_VIDn_FIFO_SIZE_STATUS = 0x%08x\r\n", INREG32(&pRegs->FIFO_SIZE_STATUS)));

  00968	e59d306c	 ldr         r3, [sp, #0x6C]
  0096c	e2833018	 add         r3, r3, #0x18
  00970	e5931000	 ldr         r1, [r3]
  00974	e59f02e8	 ldr         r0, [pc, #0x2E8]
  00978	eb000000	 bl          NKDbgPrintfW
  0097c	e3a03001	 mov         r3, #1
  00980	e58d3028	 str         r3, [sp, #0x28]
  00984	ea000001	 b           |$LN21@Dump_DISPC@5|
  00988	e3a03000	 mov         r3, #0
  0098c	e58d3028	 str         r3, [sp, #0x28]
  00990		 |$LN21@Dump_DISPC@5|

; 126  :     DEBUGMSG(DUMP_DISPC_VID, (L"   DISPC_VIDn_ROW_INC          = 0x%08x\r\n", INREG32(&pRegs->ROW_INC)));

  00990	e59d306c	 ldr         r3, [sp, #0x6C]
  00994	e283301c	 add         r3, r3, #0x1C
  00998	e5931000	 ldr         r1, [r3]
  0099c	e59f02bc	 ldr         r0, [pc, #0x2BC]
  009a0	eb000000	 bl          NKDbgPrintfW
  009a4	e3a03001	 mov         r3, #1
  009a8	e58d302c	 str         r3, [sp, #0x2C]
  009ac	ea000001	 b           |$LN23@Dump_DISPC@5|
  009b0	e3a03000	 mov         r3, #0
  009b4	e58d302c	 str         r3, [sp, #0x2C]
  009b8		 |$LN23@Dump_DISPC@5|

; 127  :     DEBUGMSG(DUMP_DISPC_VID, (L"   DISPC_VIDn_PIXEL_INC        = 0x%08x\r\n", INREG32(&pRegs->PIXEL_INC)));

  009b8	e59d306c	 ldr         r3, [sp, #0x6C]
  009bc	e2833020	 add         r3, r3, #0x20
  009c0	e5931000	 ldr         r1, [r3]
  009c4	e59f0290	 ldr         r0, [pc, #0x290]
  009c8	eb000000	 bl          NKDbgPrintfW
  009cc	e3a03001	 mov         r3, #1
  009d0	e58d3030	 str         r3, [sp, #0x30]
  009d4	ea000001	 b           |$LN25@Dump_DISPC@5|
  009d8	e3a03000	 mov         r3, #0
  009dc	e58d3030	 str         r3, [sp, #0x30]
  009e0		 |$LN25@Dump_DISPC@5|

; 128  :     DEBUGMSG(DUMP_DISPC_VID, (L"   DISPC_VIDn_FIR              = 0x%08x\r\n", INREG32(&pRegs->FIR)));

  009e0	e59d306c	 ldr         r3, [sp, #0x6C]
  009e4	e2833024	 add         r3, r3, #0x24
  009e8	e5931000	 ldr         r1, [r3]
  009ec	e59f0264	 ldr         r0, [pc, #0x264]
  009f0	eb000000	 bl          NKDbgPrintfW
  009f4	e3a03001	 mov         r3, #1
  009f8	e58d3034	 str         r3, [sp, #0x34]
  009fc	ea000001	 b           |$LN27@Dump_DISPC@5|
  00a00	e3a03000	 mov         r3, #0
  00a04	e58d3034	 str         r3, [sp, #0x34]
  00a08		 |$LN27@Dump_DISPC@5|

; 129  :     DEBUGMSG(DUMP_DISPC_VID, (L"   DISPC_VIDn_PICTURE_SIZE     = 0x%08x\r\n", INREG32(&pRegs->PICTURE_SIZE)));

  00a08	e59d306c	 ldr         r3, [sp, #0x6C]
  00a0c	e2833028	 add         r3, r3, #0x28
  00a10	e5931000	 ldr         r1, [r3]
  00a14	e59f0238	 ldr         r0, [pc, #0x238]
  00a18	eb000000	 bl          NKDbgPrintfW
  00a1c	e3a03001	 mov         r3, #1
  00a20	e58d3038	 str         r3, [sp, #0x38]
  00a24	ea000001	 b           |$LN29@Dump_DISPC@5|
  00a28	e3a03000	 mov         r3, #0
  00a2c	e58d3038	 str         r3, [sp, #0x38]
  00a30		 |$LN29@Dump_DISPC@5|

; 130  :     DEBUGMSG(DUMP_DISPC_VID, (L"   DISPC_VIDn_ACCU0            = 0x%08x\r\n", INREG32(&pRegs->ACCU0)));

  00a30	e59d306c	 ldr         r3, [sp, #0x6C]
  00a34	e283302c	 add         r3, r3, #0x2C
  00a38	e5931000	 ldr         r1, [r3]
  00a3c	e59f020c	 ldr         r0, [pc, #0x20C]
  00a40	eb000000	 bl          NKDbgPrintfW
  00a44	e3a03001	 mov         r3, #1
  00a48	e58d303c	 str         r3, [sp, #0x3C]
  00a4c	ea000001	 b           |$LN31@Dump_DISPC@5|
  00a50	e3a03000	 mov         r3, #0
  00a54	e58d303c	 str         r3, [sp, #0x3C]
  00a58		 |$LN31@Dump_DISPC@5|

; 131  :     DEBUGMSG(DUMP_DISPC_VID, (L"   DISPC_VIDn_ACCU1            = 0x%08x\r\n", INREG32(&pRegs->ACCU1)));

  00a58	e59d306c	 ldr         r3, [sp, #0x6C]
  00a5c	e2833030	 add         r3, r3, #0x30
  00a60	e5931000	 ldr         r1, [r3]
  00a64	e59f01e0	 ldr         r0, [pc, #0x1E0]
  00a68	eb000000	 bl          NKDbgPrintfW
  00a6c	e3a03001	 mov         r3, #1
  00a70	e58d3040	 str         r3, [sp, #0x40]
  00a74	ea000001	 b           |$LN33@Dump_DISPC@5|
  00a78	e3a03000	 mov         r3, #0
  00a7c	e58d3040	 str         r3, [sp, #0x40]
  00a80		 |$LN33@Dump_DISPC@5|

; 132  : 
; 133  :     DEBUGMSG(DUMP_DISPC_VID, (L"   DISPC_VIDn_FIR_COEF_Hi _HVi _Vi:\r\n"));

  00a80	e59f01c0	 ldr         r0, [pc, #0x1C0]
  00a84	eb000000	 bl          NKDbgPrintfW
  00a88	e3a03001	 mov         r3, #1
  00a8c	e58d3044	 str         r3, [sp, #0x44]
  00a90	ea000001	 b           |$LN35@Dump_DISPC@5|
  00a94	e3a03000	 mov         r3, #0
  00a98	e58d3044	 str         r3, [sp, #0x44]
  00a9c		 |$LN35@Dump_DISPC@5|

; 134  :     for( i = 0; i < 8; i++ )

  00a9c	e3a03000	 mov         r3, #0
  00aa0	e58d3004	 str         r3, [sp, #4]
  00aa4	ea000002	 b           |$LN3@Dump_DISPC@5|
  00aa8		 |$LN2@Dump_DISPC@5|
  00aa8	e59d3004	 ldr         r3, [sp, #4]
  00aac	e2833001	 add         r3, r3, #1
  00ab0	e58d3004	 str         r3, [sp, #4]
  00ab4		 |$LN3@Dump_DISPC@5|
  00ab4	e59d3004	 ldr         r3, [sp, #4]
  00ab8	e3530008	 cmp         r3, #8
  00abc	2a00001e	 bcs         |$LN1@Dump_DISPC@5|

; 135  :     {
; 136  :         DEBUGMSG(DUMP_DISPC_VID, (L"     %d: H = 0x%08x   HV = 0x%08x   V = 0x%08x\r\n", i, INREG32(&pRegs->aFIR_COEF[i].ulH), INREG32(&pRegs->aFIR_COEF[i].ulHV), INREG32(&pVidCoeffVRegs[i])));

  00ac0	e59d1004	 ldr         r1, [sp, #4]
  00ac4	e3a03004	 mov         r3, #4
  00ac8	e0020391	 mul         r2, r1, r3
  00acc	e59d3070	 ldr         r3, [sp, #0x70]
  00ad0	e0833002	 add         r3, r3, r2
  00ad4	e5933000	 ldr         r3, [r3]
  00ad8	e58d3000	 str         r3, [sp]
  00adc	e59d306c	 ldr         r3, [sp, #0x6C]
  00ae0	e2831034	 add         r1, r3, #0x34
  00ae4	e59d2004	 ldr         r2, [sp, #4]
  00ae8	e3a03008	 mov         r3, #8
  00aec	e0030392	 mul         r3, r2, r3
  00af0	e0813003	 add         r3, r1, r3
  00af4	e2833004	 add         r3, r3, #4
  00af8	e5933000	 ldr         r3, [r3]
  00afc	e59d206c	 ldr         r2, [sp, #0x6C]
  00b00	e2820034	 add         r0, r2, #0x34
  00b04	e59d1004	 ldr         r1, [sp, #4]
  00b08	e3a02008	 mov         r2, #8
  00b0c	e0020291	 mul         r2, r1, r2
  00b10	e0802002	 add         r2, r0, r2
  00b14	e5922000	 ldr         r2, [r2]
  00b18	e59d1004	 ldr         r1, [sp, #4]
  00b1c	e59f0120	 ldr         r0, [pc, #0x120]
  00b20	eb000000	 bl          NKDbgPrintfW
  00b24	e3a03001	 mov         r3, #1
  00b28	e58d3048	 str         r3, [sp, #0x48]
  00b2c	ea000001	 b           |$LN37@Dump_DISPC@5|
  00b30	e3a03000	 mov         r3, #0
  00b34	e58d3048	 str         r3, [sp, #0x48]
  00b38		 |$LN37@Dump_DISPC@5|

; 137  :     }

  00b38	eaffffda	 b           |$LN2@Dump_DISPC@5|
  00b3c		 |$LN1@Dump_DISPC@5|

; 138  :     
; 139  :     DEBUGMSG(DUMP_DISPC_VID, (L"   DISPC_VIDn_CONV_COEF0       = 0x%08x\r\n", INREG32(&pRegs->CONV_COEF0)));

  00b3c	e59d306c	 ldr         r3, [sp, #0x6C]
  00b40	e2833074	 add         r3, r3, #0x74
  00b44	e5931000	 ldr         r1, [r3]
  00b48	e59f00f0	 ldr         r0, [pc, #0xF0]
  00b4c	eb000000	 bl          NKDbgPrintfW
  00b50	e3a03001	 mov         r3, #1
  00b54	e58d304c	 str         r3, [sp, #0x4C]
  00b58	ea000001	 b           |$LN39@Dump_DISPC@5|
  00b5c	e3a03000	 mov         r3, #0
  00b60	e58d304c	 str         r3, [sp, #0x4C]
  00b64		 |$LN39@Dump_DISPC@5|

; 140  :     DEBUGMSG(DUMP_DISPC_VID, (L"   DISPC_VIDn_CONV_COEF1       = 0x%08x\r\n", INREG32(&pRegs->CONV_COEF1)));

  00b64	e59d306c	 ldr         r3, [sp, #0x6C]
  00b68	e2833078	 add         r3, r3, #0x78
  00b6c	e5931000	 ldr         r1, [r3]
  00b70	e59f00c4	 ldr         r0, [pc, #0xC4]
  00b74	eb000000	 bl          NKDbgPrintfW
  00b78	e3a03001	 mov         r3, #1
  00b7c	e58d3050	 str         r3, [sp, #0x50]
  00b80	ea000001	 b           |$LN41@Dump_DISPC@5|
  00b84	e3a03000	 mov         r3, #0
  00b88	e58d3050	 str         r3, [sp, #0x50]
  00b8c		 |$LN41@Dump_DISPC@5|

; 141  :     DEBUGMSG(DUMP_DISPC_VID, (L"   DISPC_VIDn_CONV_COEF2       = 0x%08x\r\n", INREG32(&pRegs->CONV_COEF2)));

  00b8c	e59d306c	 ldr         r3, [sp, #0x6C]
  00b90	e283307c	 add         r3, r3, #0x7C
  00b94	e5931000	 ldr         r1, [r3]
  00b98	e59f0098	 ldr         r0, [pc, #0x98]
  00b9c	eb000000	 bl          NKDbgPrintfW
  00ba0	e3a03001	 mov         r3, #1
  00ba4	e58d3054	 str         r3, [sp, #0x54]
  00ba8	ea000001	 b           |$LN43@Dump_DISPC@5|
  00bac	e3a03000	 mov         r3, #0
  00bb0	e58d3054	 str         r3, [sp, #0x54]
  00bb4		 |$LN43@Dump_DISPC@5|

; 142  :     DEBUGMSG(DUMP_DISPC_VID, (L"   DISPC_VIDn_CONV_COEF3       = 0x%08x\r\n", INREG32(&pRegs->CONV_COEF3)));

  00bb4	e59d306c	 ldr         r3, [sp, #0x6C]
  00bb8	e2833080	 add         r3, r3, #0x80
  00bbc	e5931000	 ldr         r1, [r3]
  00bc0	e59f006c	 ldr         r0, [pc, #0x6C]
  00bc4	eb000000	 bl          NKDbgPrintfW
  00bc8	e3a03001	 mov         r3, #1
  00bcc	e58d3058	 str         r3, [sp, #0x58]
  00bd0	ea000001	 b           |$LN45@Dump_DISPC@5|
  00bd4	e3a03000	 mov         r3, #0
  00bd8	e58d3058	 str         r3, [sp, #0x58]
  00bdc		 |$LN45@Dump_DISPC@5|

; 143  :     DEBUGMSG(DUMP_DISPC_VID, (L"   DISPC_VIDn_CONV_COEF4       = 0x%08x\r\n", INREG32(&pRegs->CONV_COEF4)));

  00bdc	e59d306c	 ldr         r3, [sp, #0x6C]
  00be0	e2833084	 add         r3, r3, #0x84
  00be4	e5931000	 ldr         r1, [r3]
  00be8	e59f0040	 ldr         r0, [pc, #0x40]
  00bec	eb000000	 bl          NKDbgPrintfW
  00bf0	e3a03001	 mov         r3, #1
  00bf4	e58d305c	 str         r3, [sp, #0x5C]
  00bf8	ea000001	 b           |$LN47@Dump_DISPC@5|
  00bfc	e3a03000	 mov         r3, #0
  00c00	e58d305c	 str         r3, [sp, #0x5C]
  00c04		 |$LN47@Dump_DISPC@5|

; 144  : 
; 145  :     DEBUGMSG(DUMP_DISPC_VID, (L"\r\n"));

  00c04	e59f0020	 ldr         r0, [pc, #0x20]
  00c08	eb000000	 bl          NKDbgPrintfW
  00c0c	e3a03001	 mov         r3, #1
  00c10	e58d3060	 str         r3, [sp, #0x60]
  00c14	ea000001	 b           |$LN49@Dump_DISPC@5|
  00c18	e3a03000	 mov         r3, #0
  00c1c	e58d3060	 str         r3, [sp, #0x60]
  00c20		 |$LN49@Dump_DISPC@5|

; 146  : }

  00c20	e28dd064	 add         sp, sp, #0x64
  00c24	e89d6000	 ldmia       sp, {sp, lr}
  00c28	e12fff1e	 bx          lr
  00c2c		 |$LN53@Dump_DISPC@5|
  00c2c		 |$LN54@Dump_DISPC@5|
  00c2c	00000000	 DCD         |??_C@_15JNBOKNOG@?$AA?$AN?$AA?6?$AA?$AA@|
  00c30		 |$LN55@Dump_DISPC@5|
  00c30	00000000	 DCD         |??_C@_1FE@HPIOKND@?$AA?5?$AA?5?$AA?5?$AAD?$AAI?$AAS?$AAP?$AAC?$AA_?$AAV?$AAI?$AAD?$AAn?$AA_?$AAC?$AAO?$AAN?$AAV?$AA_?$AAC?$AAO?$AAE?$AAF?$AA4?$AA?5?$AA?5?$AA?5?$AA?5?$AA?5?$AA?5?$AA?5?$AA?$DN@|
  00c34		 |$LN56@Dump_DISPC@5|
  00c34	00000000	 DCD         |??_C@_1FE@BBKABHPP@?$AA?5?$AA?5?$AA?5?$AAD?$AAI?$AAS?$AAP?$AAC?$AA_?$AAV?$AAI?$AAD?$AAn?$AA_?$AAC?$AAO?$AAN?$AAV?$AA_?$AAC?$AAO?$AAE?$AAF?$AA3?$AA?5?$AA?5?$AA?5?$AA?5?$AA?5?$AA?5?$AA?5?$AA?$DN@|
  00c38		 |$LN57@Dump_DISPC@5|
  00c38	00000000	 DCD         |??_C@_1FE@JMCIOKBN@?$AA?5?$AA?5?$AA?5?$AAD?$AAI?$AAS?$AAP?$AAC?$AA_?$AAV?$AAI?$AAD?$AAn?$AA_?$AAC?$AAO?$AAN?$AAV?$AA_?$AAC?$AAO?$AAE?$AAF?$AA2?$AA?5?$AA?5?$AA?5?$AA?5?$AA?5?$AA?5?$AA?5?$AA?$DN@|
  00c3c		 |$LN58@Dump_DISPC@5|
  00c3c	00000000	 DCD         |??_C@_1FE@NBMAOKHK@?$AA?5?$AA?5?$AA?5?$AAD?$AAI?$AAS?$AAP?$AAC?$AA_?$AAV?$AAI?$AAD?$AAn?$AA_?$AAC?$AAO?$AAN?$AAV?$AA_?$AAC?$AAO?$AAE?$AAF?$AA1?$AA?5?$AA?5?$AA?5?$AA?5?$AA?5?$AA?5?$AA?5?$AA?$DN@|
  00c40		 |$LN59@Dump_DISPC@5|
  00c40	00000000	 DCD         |??_C@_1FE@FMEIBHJI@?$AA?5?$AA?5?$AA?5?$AAD?$AAI?$AAS?$AAP?$AAC?$AA_?$AAV?$AAI?$AAD?$AAn?$AA_?$AAC?$AAO?$AAN?$AAV?$AA_?$AAC?$AAO?$AAE?$AAF?$AA0?$AA?5?$AA?5?$AA?5?$AA?5?$AA?5?$AA?5?$AA?5?$AA?$DN@|
  00c44		 |$LN60@Dump_DISPC@5|
  00c44	00000000	 DCD         |??_C@_1GC@OGFMGGFC@?$AA?5?$AA?5?$AA?5?$AA?5?$AA?5?$AA?$CF?$AAd?$AA?3?$AA?5?$AAH?$AA?5?$AA?$DN?$AA?5?$AA0?$AAx?$AA?$CF?$AA0?$AA8?$AAx?$AA?5?$AA?5?$AA?5?$AAH?$AAV?$AA?5?$AA?$DN?$AA?5?$AA0?$AAx?$AA?$CF?$AA0?$AA8@|
  00c48		 |$LN61@Dump_DISPC@5|
  00c48	00000000	 DCD         |??_C@_1EM@FKPLDECL@?$AA?5?$AA?5?$AA?5?$AAD?$AAI?$AAS?$AAP?$AAC?$AA_?$AAV?$AAI?$AAD?$AAn?$AA_?$AAF?$AAI?$AAR?$AA_?$AAC?$AAO?$AAE?$AAF?$AA_?$AAH?$AAi?$AA?5?$AA_?$AAH?$AAV?$AAi?$AA?5?$AA_@|
  00c4c		 |$LN62@Dump_DISPC@5|
  00c4c	00000000	 DCD         |??_C@_1FE@INEPMMAI@?$AA?5?$AA?5?$AA?5?$AAD?$AAI?$AAS?$AAP?$AAC?$AA_?$AAV?$AAI?$AAD?$AAn?$AA_?$AAA?$AAC?$AAC?$AAU?$AA1?$AA?5?$AA?5?$AA?5?$AA?5?$AA?5?$AA?5?$AA?5?$AA?5?$AA?5?$AA?5?$AA?5?$AA?5?$AA?$DN@|
  00c50		 |$LN63@Dump_DISPC@5|
  00c50	00000000	 DCD         |??_C@_1FE@LAPOCANE@?$AA?5?$AA?5?$AA?5?$AAD?$AAI?$AAS?$AAP?$AAC?$AA_?$AAV?$AAI?$AAD?$AAn?$AA_?$AAA?$AAC?$AAC?$AAU?$AA0?$AA?5?$AA?5?$AA?5?$AA?5?$AA?5?$AA?5?$AA?5?$AA?5?$AA?5?$AA?5?$AA?5?$AA?5?$AA?$DN@|
  00c54		 |$LN64@Dump_DISPC@5|
  00c54	00000000	 DCD         |??_C@_1FE@JDLLCBJP@?$AA?5?$AA?5?$AA?5?$AAD?$AAI?$AAS?$AAP?$AAC?$AA_?$AAV?$AAI?$AAD?$AAn?$AA_?$AAP?$AAI?$AAC?$AAT?$AAU?$AAR?$AAE?$AA_?$AAS?$AAI?$AAZ?$AAE?$AA?5?$AA?5?$AA?5?$AA?5?$AA?5?$AA?$DN@|
  00c58		 |$LN65@Dump_DISPC@5|
  00c58	00000000	 DCD         |??_C@_1FE@PDJIMMJC@?$AA?5?$AA?5?$AA?5?$AAD?$AAI?$AAS?$AAP?$AAC?$AA_?$AAV?$AAI?$AAD?$AAn?$AA_?$AAF?$AAI?$AAR?$AA?5?$AA?5?$AA?5?$AA?5?$AA?5?$AA?5?$AA?5?$AA?5?$AA?5?$AA?5?$AA?5?$AA?5?$AA?5?$AA?5?$AA?$DN@|
  00c5c		 |$LN66@Dump_DISPC@5|
  00c5c	00000000	 DCD         |??_C@_1FE@FAAIECOJ@?$AA?5?$AA?5?$AA?5?$AAD?$AAI?$AAS?$AAP?$AAC?$AA_?$AAV?$AAI?$AAD?$AAn?$AA_?$AAP?$AAI?$AAX?$AAE?$AAL?$AA_?$AAI?$AAN?$AAC?$AA?5?$AA?5?$AA?5?$AA?5?$AA?5?$AA?5?$AA?5?$AA?5?$AA?$DN@|
  00c60		 |$LN67@Dump_DISPC@5|
  00c60	00000000	 DCD         |??_C@_1FE@MCFKOFGP@?$AA?5?$AA?5?$AA?5?$AAD?$AAI?$AAS?$AAP?$AAC?$AA_?$AAV?$AAI?$AAD?$AAn?$AA_?$AAR?$AAO?$AAW?$AA_?$AAI?$AAN?$AAC?$AA?5?$AA?5?$AA?5?$AA?5?$AA?5?$AA?5?$AA?5?$AA?5?$AA?5?$AA?5?$AA?$DN@|
  00c64		 |$LN68@Dump_DISPC@5|
  00c64	00000000	 DCD         |??_C@_1FE@OLNHBLHI@?$AA?5?$AA?5?$AA?5?$AAD?$AAI?$AAS?$AAP?$AAC?$AA_?$AAV?$AAI?$AAD?$AAn?$AA_?$AAF?$AAI?$AAF?$AAO?$AA_?$AAS?$AAI?$AAZ?$AAE?$AA_?$AAS?$AAT?$AAA?$AAT?$AAU?$AAS?$AA?5?$AA?$DN@|
  00c68		 |$LN69@Dump_DISPC@5|
  00c68	00000000	 DCD         |??_C@_1FE@IFLFFDNB@?$AA?5?$AA?5?$AA?5?$AAD?$AAI?$AAS?$AAP?$AAC?$AA_?$AAV?$AAI?$AAD?$AAn?$AA_?$AAF?$AAI?$AAF?$AAO?$AA_?$AAT?$AAH?$AAR?$AAE?$AAS?$AAH?$AAO?$AAL?$AAD?$AA?5?$AA?5?$AA?5?$AA?$DN@|
  00c6c		 |$LN70@Dump_DISPC@5|
  00c6c	00000000	 DCD         |??_C@_1FE@FODMMJLC@?$AA?5?$AA?5?$AA?5?$AAD?$AAI?$AAS?$AAP?$AAC?$AA_?$AAV?$AAI?$AAD?$AAn?$AA_?$AAA?$AAT?$AAT?$AAR?$AAI?$AAB?$AAU?$AAT?$AAE?$AAS?$AA?5?$AA?5?$AA?5?$AA?5?$AA?5?$AA?5?$AA?5?$AA?$DN@|
  00c70		 |$LN71@Dump_DISPC@5|
  00c70	00000000	 DCD         |??_C@_1FE@HPHBJOPK@?$AA?5?$AA?5?$AA?5?$AAD?$AAI?$AAS?$AAP?$AAC?$AA_?$AAV?$AAI?$AAD?$AAn?$AA_?$AAS?$AAI?$AAZ?$AAE?$AA?5?$AA?5?$AA?5?$AA?5?$AA?5?$AA?5?$AA?5?$AA?5?$AA?5?$AA?5?$AA?5?$AA?5?$AA?5?$AA?$DN@|
  00c74		 |$LN72@Dump_DISPC@5|
  00c74	00000000	 DCD         |??_C@_1FE@OKJFFG@?$AA?5?$AA?5?$AA?5?$AAD?$AAI?$AAS?$AAP?$AAC?$AA_?$AAV?$AAI?$AAD?$AAn?$AA_?$AAP?$AAO?$AAS?$AAI?$AAT?$AAI?$AAO?$AAN?$AA?5?$AA?5?$AA?5?$AA?5?$AA?5?$AA?5?$AA?5?$AA?5?$AA?5?$AA?$DN@|
  00c78		 |$LN73@Dump_DISPC@5|
  00c78	00000000	 DCD         |??_C@_1FE@MPKKALBH@?$AA?5?$AA?5?$AA?5?$AAD?$AAI?$AAS?$AAP?$AAC?$AA_?$AAV?$AAI?$AAD?$AAn?$AA_?$AAB?$AAA?$AA1?$AA?5?$AA?5?$AA?5?$AA?5?$AA?5?$AA?5?$AA?5?$AA?5?$AA?5?$AA?5?$AA?5?$AA?5?$AA?5?$AA?5?$AA?$DN@|
  00c7c		 |$LN74@Dump_DISPC@5|
  00c7c	00000000	 DCD         |??_C@_1FE@KGGGPHBK@?$AA?5?$AA?5?$AA?5?$AAD?$AAI?$AAS?$AAP?$AAC?$AA_?$AAV?$AAI?$AAD?$AAn?$AA_?$AAB?$AAA?$AA0?$AA?5?$AA?5?$AA?5?$AA?5?$AA?5?$AA?5?$AA?5?$AA?5?$AA?5?$AA?5?$AA?5?$AA?5?$AA?5?$AA?5?$AA?$DN@|
  00c80		 |$LN75@Dump_DISPC@5|
  00c80	00000000	 DCD         |??_C@_1DI@JCCAEKHI@?$AAD?$AAI?$AAS?$AAP?$AAC?$AA?5?$AAR?$AAe?$AAg?$AAi?$AAs?$AAt?$AAe?$AAr?$AAs?$AA?5?$AA?$CI?$AAV?$AAI?$AAD?$AA?5?$AA?$CF?$AAd?$AA?$CJ?$AA?3?$AA?$AN?$AA?6?$AA?$AA@|
  00c84		 |$M36277|

			 ENDP  ; |?Dump_DISPC_VID@@YAXPAUOMAP_VID_REGS@@PAIK@Z|, Dump_DISPC_VID

	END
