; Listing generated by Microsoft (R) Optimizing Compiler Version 14.01.60511.01 

	TTL	C:\WINCE600\PLATFORM\COMMON\SRC\SOC\COMMON_TI_V1\OMAP3530\MUSB\MUSBHCD\MUSBMHDRC\cmhcd.cpp
	CODE32

  00000			 AREA	 |.drectve|, DRECTVE
	DCB	"-defaultlib:LIBCMT "
	DCB	"-defaultlib:OLDNAMES "

	EXPORT	|??_C@_1DK@JPBDFEOB@?$AAD?$AAE?$AAV?$AAI?$AAC?$AAE?$AA_?$AAC?$AAO?$AAN?$AAF?$AAI?$AAG?$AA_?$AAS?$AAT?$AAA?$AAT?$AAU?$AAS?$AA_?$AAI?$AAN?$AAV?$AAA?$AAL?$AAI?$AAD?$AA?$AA@| [ DATA ] ; `string'
	EXPORT	|??_C@_1DE@IMCKALLA@?$AAD?$AAE?$AAV?$AAI?$AAC?$AAE?$AA_?$AAC?$AAO?$AAN?$AAF?$AAI?$AAG?$AA_?$AAS?$AAT?$AAA?$AAT?$AAU?$AAS?$AA_?$AAD?$AAO?$AAN?$AAE?$AA?$AA@| [ DATA ] ; `string'
	EXPORT	|??_C@_1DI@CEGNOBAM@?$AAD?$AAE?$AAV?$AAI?$AAC?$AAE?$AA_?$AAC?$AAO?$AAN?$AAF?$AAI?$AAG?$AA_?$AAS?$AAT?$AAA?$AAT?$AAU?$AAS?$AA_?$AAF?$AAA?$AAI?$AAL?$AAE?$AAD?$AA?$AA@| [ DATA ] ; `string'
	EXPORT	|??_C@_1HO@PGHDEMEK@?$AAD?$AAE?$AAV?$AAI?$AAC?$AAE?$AA_?$AAC?$AAO?$AAN?$AAF?$AAI?$AAG?$AA_?$AAS?$AAT?$AAA?$AAT?$AAU?$AAS?$AA_?$AAS?$AAI?$AAG?$AAN?$AAA?$AAL?$AA_?$AAN?$AAE?$AAW?$AA_@| [ DATA ] ; `string'
	EXPORT	|??_C@_1II@FBBOBKGN@?$AAD?$AAE?$AAV?$AAI?$AAC?$AAE?$AA_?$AAC?$AAO?$AAN?$AAF?$AAI?$AAG?$AA_?$AAS?$AAT?$AAA?$AAT?$AAU?$AAS?$AA_?$AAI?$AAN?$AAS?$AAE?$AAR?$AAT?$AA_?$AAN?$AAE?$AAW?$AA_@| [ DATA ] ; `string'
	EXPORT	|??_C@_1FC@LCLFDJDO@?$AAD?$AAE?$AAV?$AAI?$AAC?$AAE?$AA_?$AAC?$AAO?$AAN?$AAF?$AAI?$AAG?$AA_?$AAS?$AAT?$AAA?$AAT?$AAU?$AAS?$AA_?$AAC?$AAR?$AAE?$AAA?$AAT?$AAE?$AA_?$AAN?$AAE?$AAW?$AA_@| [ DATA ] ; `string'
	EXPORT	|??_C@_1EI@COKEBMOE@?$AAD?$AAE?$AAV?$AAI?$AAC?$AAE?$AA_?$AAC?$AAO?$AAN?$AAF?$AAI?$AAG?$AA_?$AAS?$AAT?$AAA?$AAT?$AAU?$AAS?$AA_?$AAC?$AAR?$AAE?$AAA?$AAT?$AAE?$AA_?$AAN?$AAE?$AAW?$AA_@| [ DATA ] ; `string'
	EXPORT	|??_C@_1GG@HPGGGHKI@?$AAD?$AAE?$AAV?$AAI?$AAC?$AAE?$AA_?$AAC?$AAO?$AAN?$AAF?$AAI?$AAG?$AA_?$AAS?$AAT?$AAA?$AAT?$AAU?$AAS?$AA_?$AAS?$AAC?$AAH?$AAE?$AAD?$AAU?$AAL?$AAI?$AAN?$AAG?$AA_@| [ DATA ] ; `string'
	EXPORT	|??_C@_1HG@KPBCOGEF@?$AAD?$AAE?$AAV?$AAI?$AAC?$AAE?$AA_?$AAC?$AAO?$AAN?$AAF?$AAI?$AAG?$AA_?$AAS?$AAT?$AAA?$AAT?$AAU?$AAS?$AA_?$AAS?$AAC?$AAH?$AAE?$AAD?$AAU?$AAL?$AAI?$AAN?$AAG?$AA_@| [ DATA ] ; `string'
	EXPORT	|??_C@_1FG@CFFAAPDL@?$AAD?$AAE?$AAV?$AAI?$AAC?$AAE?$AA_?$AAC?$AAO?$AAN?$AAF?$AAI?$AAG?$AA_?$AAS?$AAT?$AAA?$AAT?$AAU?$AAS?$AA_?$AAS?$AAC?$AAH?$AAE?$AAD?$AAU?$AAL?$AAI?$AAN?$AAG?$AA_@| [ DATA ] ; `string'
	EXPORT	|??_C@_1GA@NDHJOKMM@?$AAD?$AAE?$AAV?$AAI?$AAC?$AAE?$AA_?$AAC?$AAO?$AAN?$AAF?$AAI?$AAG?$AA_?$AAS?$AAT?$AAA?$AAT?$AAU?$AAS?$AA_?$AAD?$AAE?$AAT?$AAE?$AAR?$AAM?$AAI?$AAN?$AAE?$AA_?$AAC@| [ DATA ] ; `string'
	EXPORT	|??_C@_1GM@JADKDKDC@?$AAD?$AAE?$AAV?$AAI?$AAC?$AAE?$AA_?$AAC?$AAO?$AAN?$AAF?$AAI?$AAG?$AA_?$AAS?$AAT?$AAA?$AAT?$AAU?$AAS?$AA_?$AAS?$AAC?$AAH?$AAE?$AAD?$AAU?$AAL?$AAI?$AAN?$AAG?$AA_@| [ DATA ] ; `string'
	EXPORT	|??_C@_1HM@NPLCKJLH@?$AAD?$AAE?$AAV?$AAI?$AAC?$AAE?$AA_?$AAC?$AAO?$AAN?$AAF?$AAI?$AAG?$AA_?$AAS?$AAT?$AAA?$AAT?$AAU?$AAS?$AA_?$AAS?$AAC?$AAH?$AAE?$AAD?$AAU?$AAL?$AAI?$AAN?$AAG?$AA_@| [ DATA ] ; `string'
	EXPORT	|??_C@_1HE@MEMGEMJJ@?$AAD?$AAE?$AAV?$AAI?$AAC?$AAE?$AA_?$AAC?$AAO?$AAN?$AAF?$AAI?$AAG?$AA_?$AAS?$AAT?$AAA?$AAT?$AAU?$AAS?$AA_?$AAS?$AAE?$AAT?$AAU?$AAP?$AA_?$AAC?$AAO?$AAN?$AAF?$AAI@| [ DATA ] ; `string'
	EXPORT	|??_C@_1GM@BCHKIAPP@?$AAD?$AAE?$AAV?$AAI?$AAC?$AAE?$AA_?$AAC?$AAO?$AAN?$AAF?$AAI?$AAG?$AA_?$AAS?$AAT?$AAA?$AAT?$AAU?$AAS?$AA_?$AAS?$AAC?$AAH?$AAE?$AAD?$AAU?$AAL?$AAI?$AAN?$AAG?$AA_@| [ DATA ] ; `string'
	EXPORT	|??_C@_1HM@FNPCBDHK@?$AAD?$AAE?$AAV?$AAI?$AAC?$AAE?$AA_?$AAC?$AAO?$AAN?$AAF?$AAI?$AAG?$AA_?$AAS?$AAT?$AAA?$AAT?$AAU?$AAS?$AA_?$AAS?$AAC?$AAH?$AAE?$AAD?$AAU?$AAL?$AAI?$AAN?$AAG?$AA_@| [ DATA ] ; `string'
	EXPORT	|??_C@_1EI@BBOOKHNN@?$AAD?$AAE?$AAV?$AAI?$AAC?$AAE?$AA_?$AAC?$AAO?$AAN?$AAF?$AAI?$AAG?$AA_?$AAS?$AAT?$AAA?$AAT?$AAU?$AAS?$AA_?$AAL?$AAE?$AAA?$AAV?$AAE?$AA_?$AAA?$AAD?$AAD?$AAR?$AAE@| [ DATA ] ; `string'
	EXPORT	|??_C@_1FI@LGLHPFAK@?$AAD?$AAE?$AAV?$AAI?$AAC?$AAE?$AA_?$AAC?$AAO?$AAN?$AAF?$AAI?$AAG?$AA_?$AAS?$AAT?$AAA?$AAT?$AAU?$AAS?$AA_?$AAS?$AAC?$AAH?$AAE?$AAD?$AAU?$AAL?$AAI?$AAN?$AAG?$AA_@| [ DATA ] ; `string'
	EXPORT	|??_C@_1HG@BLNLBKIO@?$AAD?$AAE?$AAV?$AAI?$AAC?$AAE?$AA_?$AAC?$AAO?$AAN?$AAF?$AAI?$AAG?$AA_?$AAS?$AAT?$AAA?$AAT?$AAU?$AAS?$AA_?$AAS?$AAC?$AAH?$AAE?$AAD?$AAU?$AAL?$AAI?$AAN?$AAG?$AA_@| [ DATA ] ; `string'
	EXPORT	|??_C@_1FG@NMCKCJLL@?$AAD?$AAE?$AAV?$AAI?$AAC?$AAE?$AA_?$AAC?$AAO?$AAN?$AAF?$AAI?$AAG?$AA_?$AAS?$AAT?$AAA?$AAT?$AAU?$AAS?$AA_?$AAR?$AAE?$AAS?$AAE?$AAT?$AA_?$AAA?$AAN?$AAD?$AA_?$AAE@| [ DATA ] ; `string'
	EXPORT	|??_C@_1EI@KNOIBOPH@?$AAD?$AAE?$AAV?$AAI?$AAC?$AAE?$AA_?$AAC?$AAO?$AAN?$AAF?$AAI?$AAG?$AA_?$AAS?$AAT?$AAA?$AAT?$AAU?$AAS?$AA_?$AAU?$AAS?$AAI?$AAN?$AAG?$AA_?$AAA?$AAD?$AAD?$AAR?$AAE@| [ DATA ] ; `string'
	EXPORT	|??_C@_1FI@COMJHLEF@?$AAD?$AAE?$AAV?$AAI?$AAC?$AAE?$AA_?$AAC?$AAO?$AAN?$AAF?$AAI?$AAG?$AA_?$AAS?$AAT?$AAA?$AAT?$AAU?$AAS?$AA_?$AAO?$AAP?$AAE?$AAN?$AAI?$AAN?$AAG?$AA_?$AAE?$AAN?$AAD@| [ DATA ] ; `string'

  00000			 AREA	 |.data|, DATA
|cszCfgStateStrings| DCD |??_C@_1FI@COMJHLEF@?$AAD?$AAE?$AAV?$AAI?$AAC?$AAE?$AA_?$AAC?$AAO?$AAN?$AAF?$AAI?$AAG?$AA_?$AAS?$AAT?$AAA?$AAT?$AAU?$AAS?$AA_?$AAO?$AAP?$AAE?$AAN?$AAI?$AAN?$AAG?$AA_?$AAE?$AAN?$AAD@|
	DCD	|??_C@_1EI@KNOIBOPH@?$AAD?$AAE?$AAV?$AAI?$AAC?$AAE?$AA_?$AAC?$AAO?$AAN?$AAF?$AAI?$AAG?$AA_?$AAS?$AAT?$AAA?$AAT?$AAU?$AAS?$AA_?$AAU?$AAS?$AAI?$AAN?$AAG?$AA_?$AAA?$AAD?$AAD?$AAR?$AAE@|
	DCD	|??_C@_1FG@NMCKCJLL@?$AAD?$AAE?$AAV?$AAI?$AAC?$AAE?$AA_?$AAC?$AAO?$AAN?$AAF?$AAI?$AAG?$AA_?$AAS?$AAT?$AAA?$AAT?$AAU?$AAS?$AA_?$AAR?$AAE?$AAS?$AAE?$AAT?$AA_?$AAA?$AAN?$AAD?$AA_?$AAE@|
	DCD	|??_C@_1HG@BLNLBKIO@?$AAD?$AAE?$AAV?$AAI?$AAC?$AAE?$AA_?$AAC?$AAO?$AAN?$AAF?$AAI?$AAG?$AA_?$AAS?$AAT?$AAA?$AAT?$AAU?$AAS?$AA_?$AAS?$AAC?$AAH?$AAE?$AAD?$AAU?$AAL?$AAI?$AAN?$AAG?$AA_@|
	DCD	|??_C@_1FI@LGLHPFAK@?$AAD?$AAE?$AAV?$AAI?$AAC?$AAE?$AA_?$AAC?$AAO?$AAN?$AAF?$AAI?$AAG?$AA_?$AAS?$AAT?$AAA?$AAT?$AAU?$AAS?$AA_?$AAS?$AAC?$AAH?$AAE?$AAD?$AAU?$AAL?$AAI?$AAN?$AAG?$AA_@|
	DCD	|??_C@_1EI@BBOOKHNN@?$AAD?$AAE?$AAV?$AAI?$AAC?$AAE?$AA_?$AAC?$AAO?$AAN?$AAF?$AAI?$AAG?$AA_?$AAS?$AAT?$AAA?$AAT?$AAU?$AAS?$AA_?$AAL?$AAE?$AAA?$AAV?$AAE?$AA_?$AAA?$AAD?$AAD?$AAR?$AAE@|
	DCD	|??_C@_1HM@FNPCBDHK@?$AAD?$AAE?$AAV?$AAI?$AAC?$AAE?$AA_?$AAC?$AAO?$AAN?$AAF?$AAI?$AAG?$AA_?$AAS?$AAT?$AAA?$AAT?$AAU?$AAS?$AA_?$AAS?$AAC?$AAH?$AAE?$AAD?$AAU?$AAL?$AAI?$AAN?$AAG?$AA_@|
	DCD	|??_C@_1GM@BCHKIAPP@?$AAD?$AAE?$AAV?$AAI?$AAC?$AAE?$AA_?$AAC?$AAO?$AAN?$AAF?$AAI?$AAG?$AA_?$AAS?$AAT?$AAA?$AAT?$AAU?$AAS?$AA_?$AAS?$AAC?$AAH?$AAE?$AAD?$AAU?$AAL?$AAI?$AAN?$AAG?$AA_@|
	DCD	|??_C@_1HE@MEMGEMJJ@?$AAD?$AAE?$AAV?$AAI?$AAC?$AAE?$AA_?$AAC?$AAO?$AAN?$AAF?$AAI?$AAG?$AA_?$AAS?$AAT?$AAA?$AAT?$AAU?$AAS?$AA_?$AAS?$AAE?$AAT?$AAU?$AAP?$AA_?$AAC?$AAO?$AAN?$AAF?$AAI@|
	DCD	|??_C@_1HM@NPLCKJLH@?$AAD?$AAE?$AAV?$AAI?$AAC?$AAE?$AA_?$AAC?$AAO?$AAN?$AAF?$AAI?$AAG?$AA_?$AAS?$AAT?$AAA?$AAT?$AAU?$AAS?$AA_?$AAS?$AAC?$AAH?$AAE?$AAD?$AAU?$AAL?$AAI?$AAN?$AAG?$AA_@|
	DCD	|??_C@_1GM@JADKDKDC@?$AAD?$AAE?$AAV?$AAI?$AAC?$AAE?$AA_?$AAC?$AAO?$AAN?$AAF?$AAI?$AAG?$AA_?$AAS?$AAT?$AAA?$AAT?$AAU?$AAS?$AA_?$AAS?$AAC?$AAH?$AAE?$AAD?$AAU?$AAL?$AAI?$AAN?$AAG?$AA_@|
	DCD	|??_C@_1GA@NDHJOKMM@?$AAD?$AAE?$AAV?$AAI?$AAC?$AAE?$AA_?$AAC?$AAO?$AAN?$AAF?$AAI?$AAG?$AA_?$AAS?$AAT?$AAA?$AAT?$AAU?$AAS?$AA_?$AAD?$AAE?$AAT?$AAE?$AAR?$AAM?$AAI?$AAN?$AAE?$AA_?$AAC@|
	DCD	|??_C@_1FG@CFFAAPDL@?$AAD?$AAE?$AAV?$AAI?$AAC?$AAE?$AA_?$AAC?$AAO?$AAN?$AAF?$AAI?$AAG?$AA_?$AAS?$AAT?$AAA?$AAT?$AAU?$AAS?$AA_?$AAS?$AAC?$AAH?$AAE?$AAD?$AAU?$AAL?$AAI?$AAN?$AAG?$AA_@|
	DCD	|??_C@_1HG@KPBCOGEF@?$AAD?$AAE?$AAV?$AAI?$AAC?$AAE?$AA_?$AAC?$AAO?$AAN?$AAF?$AAI?$AAG?$AA_?$AAS?$AAT?$AAA?$AAT?$AAU?$AAS?$AA_?$AAS?$AAC?$AAH?$AAE?$AAD?$AAU?$AAL?$AAI?$AAN?$AAG?$AA_@|
	DCD	|??_C@_1GG@HPGGGHKI@?$AAD?$AAE?$AAV?$AAI?$AAC?$AAE?$AA_?$AAC?$AAO?$AAN?$AAF?$AAI?$AAG?$AA_?$AAS?$AAT?$AAA?$AAT?$AAU?$AAS?$AA_?$AAS?$AAC?$AAH?$AAE?$AAD?$AAU?$AAL?$AAI?$AAN?$AAG?$AA_@|
	DCD	|??_C@_1EI@COKEBMOE@?$AAD?$AAE?$AAV?$AAI?$AAC?$AAE?$AA_?$AAC?$AAO?$AAN?$AAF?$AAI?$AAG?$AA_?$AAS?$AAT?$AAA?$AAT?$AAU?$AAS?$AA_?$AAC?$AAR?$AAE?$AAA?$AAT?$AAE?$AA_?$AAN?$AAE?$AAW?$AA_@|
	DCD	|??_C@_1FC@LCLFDJDO@?$AAD?$AAE?$AAV?$AAI?$AAC?$AAE?$AA_?$AAC?$AAO?$AAN?$AAF?$AAI?$AAG?$AA_?$AAS?$AAT?$AAA?$AAT?$AAU?$AAS?$AA_?$AAC?$AAR?$AAE?$AAA?$AAT?$AAE?$AA_?$AAN?$AAE?$AAW?$AA_@|
	DCD	|??_C@_1II@FBBOBKGN@?$AAD?$AAE?$AAV?$AAI?$AAC?$AAE?$AA_?$AAC?$AAO?$AAN?$AAF?$AAI?$AAG?$AA_?$AAS?$AAT?$AAA?$AAT?$AAU?$AAS?$AA_?$AAI?$AAN?$AAS?$AAE?$AAR?$AAT?$AA_?$AAN?$AAE?$AAW?$AA_@|
	DCD	|??_C@_1HO@PGHDEMEK@?$AAD?$AAE?$AAV?$AAI?$AAC?$AAE?$AA_?$AAC?$AAO?$AAN?$AAF?$AAI?$AAG?$AA_?$AAS?$AAT?$AAA?$AAT?$AAU?$AAS?$AA_?$AAS?$AAI?$AAG?$AAN?$AAA?$AAL?$AA_?$AAN?$AAE?$AAW?$AA_@|
	DCD	|??_C@_1DI@CEGNOBAM@?$AAD?$AAE?$AAV?$AAI?$AAC?$AAE?$AA_?$AAC?$AAO?$AAN?$AAF?$AAI?$AAG?$AA_?$AAS?$AAT?$AAA?$AAT?$AAU?$AAS?$AA_?$AAF?$AAA?$AAI?$AAL?$AAE?$AAD?$AA?$AA@|
	DCD	|??_C@_1DE@IMCKALLA@?$AAD?$AAE?$AAV?$AAI?$AAC?$AAE?$AA_?$AAC?$AAO?$AAN?$AAF?$AAI?$AAG?$AA_?$AAS?$AAT?$AAA?$AAT?$AAU?$AAS?$AA_?$AAD?$AAO?$AAN?$AAE?$AA?$AA@|
	DCD	|??_C@_1DK@JPBDFEOB@?$AAD?$AAE?$AAV?$AAI?$AAC?$AAE?$AA_?$AAC?$AAO?$AAN?$AAF?$AAI?$AAG?$AA_?$AAS?$AAT?$AAA?$AAT?$AAU?$AAS?$AA_?$AAI?$AAN?$AAV?$AAA?$AAL?$AAI?$AAD?$AA?$AA@|

  00000			 AREA	 |.rdata|, DATA, READONLY
|??_C@_1DK@JPBDFEOB@?$AAD?$AAE?$AAV?$AAI?$AAC?$AAE?$AA_?$AAC?$AAO?$AAN?$AAF?$AAI?$AAG?$AA_?$AAS?$AAT?$AAA?$AAT?$AAU?$AAS?$AA_?$AAI?$AAN?$AAV?$AAA?$AAL?$AAI?$AAD?$AA?$AA@| DCB "D"
	DCB	0x0, "E", 0x0, "V", 0x0, "I", 0x0, "C", 0x0, "E", 0x0, "_"
	DCB	0x0, "C", 0x0, "O", 0x0, "N", 0x0, "F", 0x0, "I", 0x0, "G"
	DCB	0x0, "_", 0x0, "S", 0x0, "T", 0x0, "A", 0x0, "T", 0x0, "U"
	DCB	0x0, "S", 0x0, "_", 0x0, "I", 0x0, "N", 0x0, "V", 0x0, "A"
	DCB	0x0, "L", 0x0, "I", 0x0, "D", 0x0, 0x0, 0x0 ; `string'

  00000			 AREA	 |.rdata|, DATA, READONLY
|??_C@_1DE@IMCKALLA@?$AAD?$AAE?$AAV?$AAI?$AAC?$AAE?$AA_?$AAC?$AAO?$AAN?$AAF?$AAI?$AAG?$AA_?$AAS?$AAT?$AAA?$AAT?$AAU?$AAS?$AA_?$AAD?$AAO?$AAN?$AAE?$AA?$AA@| DCB "D"
	DCB	0x0, "E", 0x0, "V", 0x0, "I", 0x0, "C", 0x0, "E", 0x0, "_"
	DCB	0x0, "C", 0x0, "O", 0x0, "N", 0x0, "F", 0x0, "I", 0x0, "G"
	DCB	0x0, "_", 0x0, "S", 0x0, "T", 0x0, "A", 0x0, "T", 0x0, "U"
	DCB	0x0, "S", 0x0, "_", 0x0, "D", 0x0, "O", 0x0, "N", 0x0, "E"
	DCB	0x0, 0x0, 0x0				; `string'

  00000			 AREA	 |.rdata|, DATA, READONLY
|??_C@_1DI@CEGNOBAM@?$AAD?$AAE?$AAV?$AAI?$AAC?$AAE?$AA_?$AAC?$AAO?$AAN?$AAF?$AAI?$AAG?$AA_?$AAS?$AAT?$AAA?$AAT?$AAU?$AAS?$AA_?$AAF?$AAA?$AAI?$AAL?$AAE?$AAD?$AA?$AA@| DCB "D"
	DCB	0x0, "E", 0x0, "V", 0x0, "I", 0x0, "C", 0x0, "E", 0x0, "_"
	DCB	0x0, "C", 0x0, "O", 0x0, "N", 0x0, "F", 0x0, "I", 0x0, "G"
	DCB	0x0, "_", 0x0, "S", 0x0, "T", 0x0, "A", 0x0, "T", 0x0, "U"
	DCB	0x0, "S", 0x0, "_", 0x0, "F", 0x0, "A", 0x0, "I", 0x0, "L"
	DCB	0x0, "E", 0x0, "D", 0x0, 0x0, 0x0	; `string'

  00000			 AREA	 |.rdata|, DATA, READONLY
|??_C@_1HO@PGHDEMEK@?$AAD?$AAE?$AAV?$AAI?$AAC?$AAE?$AA_?$AAC?$AAO?$AAN?$AAF?$AAI?$AAG?$AA_?$AAS?$AAT?$AAA?$AAT?$AAU?$AAS?$AA_?$AAS?$AAI?$AAG?$AAN?$AAA?$AAL?$AA_?$AAN?$AAE?$AAW?$AA_@| DCB "D"
	DCB	0x0, "E", 0x0, "V", 0x0, "I", 0x0, "C", 0x0, "E", 0x0, "_"
	DCB	0x0, "C", 0x0, "O", 0x0, "N", 0x0, "F", 0x0, "I", 0x0, "G"
	DCB	0x0, "_", 0x0, "S", 0x0, "T", 0x0, "A", 0x0, "T", 0x0, "U"
	DCB	0x0, "S", 0x0, "_", 0x0, "S", 0x0, "I", 0x0, "G", 0x0, "N"
	DCB	0x0, "A", 0x0, "L", 0x0, "_", 0x0, "N", 0x0, "E", 0x0, "W"
	DCB	0x0, "_", 0x0, "D", 0x0, "E", 0x0, "V", 0x0, "I", 0x0, "C"
	DCB	0x0, "E", 0x0, "_", 0x0, "E", 0x0, "N", 0x0, "T", 0x0, "E"
	DCB	0x0, "R", 0x0, "_", 0x0, "O", 0x0, "P", 0x0, "E", 0x0, "R"
	DCB	0x0, "A", 0x0, "T", 0x0, "I", 0x0, "O", 0x0, "N", 0x0, "A"
	DCB	0x0, "L", 0x0, "_", 0x0, "S", 0x0, "T", 0x0, "A", 0x0, "T"
	DCB	0x0, "E", 0x0, 0x0, 0x0			; `string'

  00000			 AREA	 |.rdata|, DATA, READONLY
|??_C@_1II@FBBOBKGN@?$AAD?$AAE?$AAV?$AAI?$AAC?$AAE?$AA_?$AAC?$AAO?$AAN?$AAF?$AAI?$AAG?$AA_?$AAS?$AAT?$AAA?$AAT?$AAU?$AAS?$AA_?$AAI?$AAN?$AAS?$AAE?$AAR?$AAT?$AA_?$AAN?$AAE?$AAW?$AA_@| DCB "D"
	DCB	0x0, "E", 0x0, "V", 0x0, "I", 0x0, "C", 0x0, "E", 0x0, "_"
	DCB	0x0, "C", 0x0, "O", 0x0, "N", 0x0, "F", 0x0, "I", 0x0, "G"
	DCB	0x0, "_", 0x0, "S", 0x0, "T", 0x0, "A", 0x0, "T", 0x0, "U"
	DCB	0x0, "S", 0x0, "_", 0x0, "I", 0x0, "N", 0x0, "S", 0x0, "E"
	DCB	0x0, "R", 0x0, "T", 0x0, "_", 0x0, "N", 0x0, "E", 0x0, "W"
	DCB	0x0, "_", 0x0, "D", 0x0, "E", 0x0, "V", 0x0, "I", 0x0, "C"
	DCB	0x0, "E", 0x0, "_", 0x0, "I", 0x0, "N", 0x0, "T", 0x0, "O"
	DCB	0x0, "_", 0x0, "U", 0x0, "P", 0x0, "S", 0x0, "T", 0x0, "R"
	DCB	0x0, "E", 0x0, "A", 0x0, "M", 0x0, "_", 0x0, "H", 0x0, "U"
	DCB	0x0, "B", 0x0, "_", 0x0, "P", 0x0, "O", 0x0, "R", 0x0, "T"
	DCB	0x0, "_", 0x0, "A", 0x0, "R", 0x0, "R", 0x0, "A", 0x0, "Y"
	DCB	0x0, 0x0, 0x0				; `string'

  00000			 AREA	 |.rdata|, DATA, READONLY
|??_C@_1FC@LCLFDJDO@?$AAD?$AAE?$AAV?$AAI?$AAC?$AAE?$AA_?$AAC?$AAO?$AAN?$AAF?$AAI?$AAG?$AA_?$AAS?$AAT?$AAA?$AAT?$AAU?$AAS?$AA_?$AAC?$AAR?$AAE?$AAA?$AAT?$AAE?$AA_?$AAN?$AAE?$AAW?$AA_@| DCB "D"
	DCB	0x0, "E", 0x0, "V", 0x0, "I", 0x0, "C", 0x0, "E", 0x0, "_"
	DCB	0x0, "C", 0x0, "O", 0x0, "N", 0x0, "F", 0x0, "I", 0x0, "G"
	DCB	0x0, "_", 0x0, "S", 0x0, "T", 0x0, "A", 0x0, "T", 0x0, "U"
	DCB	0x0, "S", 0x0, "_", 0x0, "C", 0x0, "R", 0x0, "E", 0x0, "A"
	DCB	0x0, "T", 0x0, "E", 0x0, "_", 0x0, "N", 0x0, "E", 0x0, "W"
	DCB	0x0, "_", 0x0, "F", 0x0, "U", 0x0, "N", 0x0, "C", 0x0, "T"
	DCB	0x0, "I", 0x0, "O", 0x0, "N", 0x0, 0x0, 0x0 ; `string'

  00000			 AREA	 |.rdata|, DATA, READONLY
|??_C@_1EI@COKEBMOE@?$AAD?$AAE?$AAV?$AAI?$AAC?$AAE?$AA_?$AAC?$AAO?$AAN?$AAF?$AAI?$AAG?$AA_?$AAS?$AAT?$AAA?$AAT?$AAU?$AAS?$AA_?$AAC?$AAR?$AAE?$AAA?$AAT?$AAE?$AA_?$AAN?$AAE?$AAW?$AA_@| DCB "D"
	DCB	0x0, "E", 0x0, "V", 0x0, "I", 0x0, "C", 0x0, "E", 0x0, "_"
	DCB	0x0, "C", 0x0, "O", 0x0, "N", 0x0, "F", 0x0, "I", 0x0, "G"
	DCB	0x0, "_", 0x0, "S", 0x0, "T", 0x0, "A", 0x0, "T", 0x0, "U"
	DCB	0x0, "S", 0x0, "_", 0x0, "C", 0x0, "R", 0x0, "E", 0x0, "A"
	DCB	0x0, "T", 0x0, "E", 0x0, "_", 0x0, "N", 0x0, "E", 0x0, "W"
	DCB	0x0, "_", 0x0, "H", 0x0, "U", 0x0, "B", 0x0, 0x0, 0x0 ; `string'

  00000			 AREA	 |.rdata|, DATA, READONLY
|??_C@_1GG@HPGGGHKI@?$AAD?$AAE?$AAV?$AAI?$AAC?$AAE?$AA_?$AAC?$AAO?$AAN?$AAF?$AAI?$AAG?$AA_?$AAS?$AAT?$AAA?$AAT?$AAU?$AAS?$AA_?$AAS?$AAC?$AAH?$AAE?$AAD?$AAU?$AAL?$AAI?$AAN?$AAG?$AA_@| DCB "D"
	DCB	0x0, "E", 0x0, "V", 0x0, "I", 0x0, "C", 0x0, "E", 0x0, "_"
	DCB	0x0, "C", 0x0, "O", 0x0, "N", 0x0, "F", 0x0, "I", 0x0, "G"
	DCB	0x0, "_", 0x0, "S", 0x0, "T", 0x0, "A", 0x0, "T", 0x0, "U"
	DCB	0x0, "S", 0x0, "_", 0x0, "S", 0x0, "C", 0x0, "H", 0x0, "E"
	DCB	0x0, "D", 0x0, "U", 0x0, "L", 0x0, "I", 0x0, "N", 0x0, "G"
	DCB	0x0, "_", 0x0, "G", 0x0, "E", 0x0, "T", 0x0, "_", 0x0, "H"
	DCB	0x0, "U", 0x0, "B", 0x0, "_", 0x0, "D", 0x0, "E", 0x0, "S"
	DCB	0x0, "C", 0x0, "R", 0x0, "I", 0x0, "P", 0x0, "T", 0x0, "O"
	DCB	0x0, "R", 0x0, 0x0, 0x0			; `string'

  00000			 AREA	 |.rdata|, DATA, READONLY
|??_C@_1HG@KPBCOGEF@?$AAD?$AAE?$AAV?$AAI?$AAC?$AAE?$AA_?$AAC?$AAO?$AAN?$AAF?$AAI?$AAG?$AA_?$AAS?$AAT?$AAA?$AAT?$AAU?$AAS?$AA_?$AAS?$AAC?$AAH?$AAE?$AAD?$AAU?$AAL?$AAI?$AAN?$AAG?$AA_@| DCB "D"
	DCB	0x0, "E", 0x0, "V", 0x0, "I", 0x0, "C", 0x0, "E", 0x0, "_"
	DCB	0x0, "C", 0x0, "O", 0x0, "N", 0x0, "F", 0x0, "I", 0x0, "G"
	DCB	0x0, "_", 0x0, "S", 0x0, "T", 0x0, "A", 0x0, "T", 0x0, "U"
	DCB	0x0, "S", 0x0, "_", 0x0, "S", 0x0, "C", 0x0, "H", 0x0, "E"
	DCB	0x0, "D", 0x0, "U", 0x0, "L", 0x0, "I", 0x0, "N", 0x0, "G"
	DCB	0x0, "_", 0x0, "G", 0x0, "E", 0x0, "T", 0x0, "_", 0x0, "I"
	DCB	0x0, "N", 0x0, "I", 0x0, "T", 0x0, "I", 0x0, "A", 0x0, "L"
	DCB	0x0, "_", 0x0, "H", 0x0, "U", 0x0, "B", 0x0, "_", 0x0, "D"
	DCB	0x0, "E", 0x0, "S", 0x0, "C", 0x0, "R", 0x0, "I", 0x0, "P"
	DCB	0x0, "T", 0x0, "O", 0x0, "R", 0x0, 0x0, 0x0 ; `string'

  00000			 AREA	 |.rdata|, DATA, READONLY
|??_C@_1FG@CFFAAPDL@?$AAD?$AAE?$AAV?$AAI?$AAC?$AAE?$AA_?$AAC?$AAO?$AAN?$AAF?$AAI?$AAG?$AA_?$AAS?$AAT?$AAA?$AAT?$AAU?$AAS?$AA_?$AAS?$AAC?$AAH?$AAE?$AAD?$AAU?$AAL?$AAI?$AAN?$AAG?$AA_@| DCB "D"
	DCB	0x0, "E", 0x0, "V", 0x0, "I", 0x0, "C", 0x0, "E", 0x0, "_"
	DCB	0x0, "C", 0x0, "O", 0x0, "N", 0x0, "F", 0x0, "I", 0x0, "G"
	DCB	0x0, "_", 0x0, "S", 0x0, "T", 0x0, "A", 0x0, "T", 0x0, "U"
	DCB	0x0, "S", 0x0, "_", 0x0, "S", 0x0, "C", 0x0, "H", 0x0, "E"
	DCB	0x0, "D", 0x0, "U", 0x0, "L", 0x0, "I", 0x0, "N", 0x0, "G"
	DCB	0x0, "_", 0x0, "S", 0x0, "E", 0x0, "T", 0x0, "_", 0x0, "C"
	DCB	0x0, "O", 0x0, "N", 0x0, "F", 0x0, "I", 0x0, "G", 0x0, 0x0
	DCB	0x0					; `string'

  00000			 AREA	 |.rdata|, DATA, READONLY
|??_C@_1GA@NDHJOKMM@?$AAD?$AAE?$AAV?$AAI?$AAC?$AAE?$AA_?$AAC?$AAO?$AAN?$AAF?$AAI?$AAG?$AA_?$AAS?$AAT?$AAA?$AAT?$AAU?$AAS?$AA_?$AAD?$AAE?$AAT?$AAE?$AAR?$AAM?$AAI?$AAN?$AAE?$AA_?$AAC@| DCB "D"
	DCB	0x0, "E", 0x0, "V", 0x0, "I", 0x0, "C", 0x0, "E", 0x0, "_"
	DCB	0x0, "C", 0x0, "O", 0x0, "N", 0x0, "F", 0x0, "I", 0x0, "G"
	DCB	0x0, "_", 0x0, "S", 0x0, "T", 0x0, "A", 0x0, "T", 0x0, "U"
	DCB	0x0, "S", 0x0, "_", 0x0, "D", 0x0, "E", 0x0, "T", 0x0, "E"
	DCB	0x0, "R", 0x0, "M", 0x0, "I", 0x0, "N", 0x0, "E", 0x0, "_"
	DCB	0x0, "C", 0x0, "O", 0x0, "N", 0x0, "F", 0x0, "I", 0x0, "G"
	DCB	0x0, "_", 0x0, "T", 0x0, "O", 0x0, "_", 0x0, "C", 0x0, "H"
	DCB	0x0, "O", 0x0, "O", 0x0, "S", 0x0, "E", 0x0, 0x0, 0x0 ; `string'

  00000			 AREA	 |.rdata|, DATA, READONLY
|??_C@_1GM@JADKDKDC@?$AAD?$AAE?$AAV?$AAI?$AAC?$AAE?$AA_?$AAC?$AAO?$AAN?$AAF?$AAI?$AAG?$AA_?$AAS?$AAT?$AAA?$AAT?$AAU?$AAS?$AA_?$AAS?$AAC?$AAH?$AAE?$AAD?$AAU?$AAL?$AAI?$AAN?$AAG?$AA_@| DCB "D"
	DCB	0x0, "E", 0x0, "V", 0x0, "I", 0x0, "C", 0x0, "E", 0x0, "_"
	DCB	0x0, "C", 0x0, "O", 0x0, "N", 0x0, "F", 0x0, "I", 0x0, "G"
	DCB	0x0, "_", 0x0, "S", 0x0, "T", 0x0, "A", 0x0, "T", 0x0, "U"
	DCB	0x0, "S", 0x0, "_", 0x0, "S", 0x0, "C", 0x0, "H", 0x0, "E"
	DCB	0x0, "D", 0x0, "U", 0x0, "L", 0x0, "I", 0x0, "N", 0x0, "G"
	DCB	0x0, "_", 0x0, "G", 0x0, "E", 0x0, "T", 0x0, "_", 0x0, "C"
	DCB	0x0, "O", 0x0, "N", 0x0, "F", 0x0, "I", 0x0, "G", 0x0, "_"
	DCB	0x0, "D", 0x0, "E", 0x0, "S", 0x0, "C", 0x0, "R", 0x0, "I"
	DCB	0x0, "P", 0x0, "T", 0x0, "O", 0x0, "R", 0x0, 0x0, 0x0 ; `string'

  00000			 AREA	 |.rdata|, DATA, READONLY
|??_C@_1HM@NPLCKJLH@?$AAD?$AAE?$AAV?$AAI?$AAC?$AAE?$AA_?$AAC?$AAO?$AAN?$AAF?$AAI?$AAG?$AA_?$AAS?$AAT?$AAA?$AAT?$AAU?$AAS?$AA_?$AAS?$AAC?$AAH?$AAE?$AAD?$AAU?$AAL?$AAI?$AAN?$AAG?$AA_@| DCB "D"
	DCB	0x0, "E", 0x0, "V", 0x0, "I", 0x0, "C", 0x0, "E", 0x0, "_"
	DCB	0x0, "C", 0x0, "O", 0x0, "N", 0x0, "F", 0x0, "I", 0x0, "G"
	DCB	0x0, "_", 0x0, "S", 0x0, "T", 0x0, "A", 0x0, "T", 0x0, "U"
	DCB	0x0, "S", 0x0, "_", 0x0, "S", 0x0, "C", 0x0, "H", 0x0, "E"
	DCB	0x0, "D", 0x0, "U", 0x0, "L", 0x0, "I", 0x0, "N", 0x0, "G"
	DCB	0x0, "_", 0x0, "G", 0x0, "E", 0x0, "T", 0x0, "_", 0x0, "I"
	DCB	0x0, "N", 0x0, "I", 0x0, "T", 0x0, "I", 0x0, "A", 0x0, "L"
	DCB	0x0, "_", 0x0, "C", 0x0, "O", 0x0, "N", 0x0, "F", 0x0, "I"
	DCB	0x0, "G", 0x0, "_", 0x0, "D", 0x0, "E", 0x0, "S", 0x0, "C"
	DCB	0x0, "R", 0x0, "I", 0x0, "P", 0x0, "T", 0x0, "O", 0x0, "R"
	DCB	0x0, 0x0, 0x0				; `string'

  00000			 AREA	 |.rdata|, DATA, READONLY
|??_C@_1HE@MEMGEMJJ@?$AAD?$AAE?$AAV?$AAI?$AAC?$AAE?$AA_?$AAC?$AAO?$AAN?$AAF?$AAI?$AAG?$AA_?$AAS?$AAT?$AAA?$AAT?$AAU?$AAS?$AA_?$AAS?$AAE?$AAT?$AAU?$AAP?$AA_?$AAC?$AAO?$AAN?$AAF?$AAI@| DCB "D"
	DCB	0x0, "E", 0x0, "V", 0x0, "I", 0x0, "C", 0x0, "E", 0x0, "_"
	DCB	0x0, "C", 0x0, "O", 0x0, "N", 0x0, "F", 0x0, "I", 0x0, "G"
	DCB	0x0, "_", 0x0, "S", 0x0, "T", 0x0, "A", 0x0, "T", 0x0, "U"
	DCB	0x0, "S", 0x0, "_", 0x0, "S", 0x0, "E", 0x0, "T", 0x0, "U"
	DCB	0x0, "P", 0x0, "_", 0x0, "C", 0x0, "O", 0x0, "N", 0x0, "F"
	DCB	0x0, "I", 0x0, "G", 0x0, "U", 0x0, "R", 0x0, "A", 0x0, "T"
	DCB	0x0, "I", 0x0, "O", 0x0, "N", 0x0, "_", 0x0, "D", 0x0, "E"
	DCB	0x0, "S", 0x0, "C", 0x0, "R", 0x0, "I", 0x0, "P", 0x0, "T"
	DCB	0x0, "O", 0x0, "R", 0x0, "_", 0x0, "A", 0x0, "R", 0x0, "R"
	DCB	0x0, "A", 0x0, "Y", 0x0, 0x0, 0x0	; `string'

  00000			 AREA	 |.rdata|, DATA, READONLY
|??_C@_1GM@BCHKIAPP@?$AAD?$AAE?$AAV?$AAI?$AAC?$AAE?$AA_?$AAC?$AAO?$AAN?$AAF?$AAI?$AAG?$AA_?$AAS?$AAT?$AAA?$AAT?$AAU?$AAS?$AA_?$AAS?$AAC?$AAH?$AAE?$AAD?$AAU?$AAL?$AAI?$AAN?$AAG?$AA_@| DCB "D"
	DCB	0x0, "E", 0x0, "V", 0x0, "I", 0x0, "C", 0x0, "E", 0x0, "_"
	DCB	0x0, "C", 0x0, "O", 0x0, "N", 0x0, "F", 0x0, "I", 0x0, "G"
	DCB	0x0, "_", 0x0, "S", 0x0, "T", 0x0, "A", 0x0, "T", 0x0, "U"
	DCB	0x0, "S", 0x0, "_", 0x0, "S", 0x0, "C", 0x0, "H", 0x0, "E"
	DCB	0x0, "D", 0x0, "U", 0x0, "L", 0x0, "I", 0x0, "N", 0x0, "G"
	DCB	0x0, "_", 0x0, "G", 0x0, "E", 0x0, "T", 0x0, "_", 0x0, "D"
	DCB	0x0, "E", 0x0, "V", 0x0, "I", 0x0, "C", 0x0, "E", 0x0, "_"
	DCB	0x0, "D", 0x0, "E", 0x0, "S", 0x0, "C", 0x0, "R", 0x0, "I"
	DCB	0x0, "P", 0x0, "T", 0x0, "O", 0x0, "R", 0x0, 0x0, 0x0 ; `string'

  00000			 AREA	 |.rdata|, DATA, READONLY
|??_C@_1HM@FNPCBDHK@?$AAD?$AAE?$AAV?$AAI?$AAC?$AAE?$AA_?$AAC?$AAO?$AAN?$AAF?$AAI?$AAG?$AA_?$AAS?$AAT?$AAA?$AAT?$AAU?$AAS?$AA_?$AAS?$AAC?$AAH?$AAE?$AAD?$AAU?$AAL?$AAI?$AAN?$AAG?$AA_@| DCB "D"
	DCB	0x0, "E", 0x0, "V", 0x0, "I", 0x0, "C", 0x0, "E", 0x0, "_"
	DCB	0x0, "C", 0x0, "O", 0x0, "N", 0x0, "F", 0x0, "I", 0x0, "G"
	DCB	0x0, "_", 0x0, "S", 0x0, "T", 0x0, "A", 0x0, "T", 0x0, "U"
	DCB	0x0, "S", 0x0, "_", 0x0, "S", 0x0, "C", 0x0, "H", 0x0, "E"
	DCB	0x0, "D", 0x0, "U", 0x0, "L", 0x0, "I", 0x0, "N", 0x0, "G"
	DCB	0x0, "_", 0x0, "G", 0x0, "E", 0x0, "T", 0x0, "_", 0x0, "I"
	DCB	0x0, "N", 0x0, "I", 0x0, "T", 0x0, "I", 0x0, "A", 0x0, "L"
	DCB	0x0, "_", 0x0, "D", 0x0, "E", 0x0, "V", 0x0, "I", 0x0, "C"
	DCB	0x0, "E", 0x0, "_", 0x0, "D", 0x0, "E", 0x0, "S", 0x0, "C"
	DCB	0x0, "R", 0x0, "I", 0x0, "P", 0x0, "T", 0x0, "O", 0x0, "R"
	DCB	0x0, 0x0, 0x0				; `string'

  00000			 AREA	 |.rdata|, DATA, READONLY
|??_C@_1EI@BBOOKHNN@?$AAD?$AAE?$AAV?$AAI?$AAC?$AAE?$AA_?$AAC?$AAO?$AAN?$AAF?$AAI?$AAG?$AA_?$AAS?$AAT?$AAA?$AAT?$AAU?$AAS?$AA_?$AAL?$AAE?$AAA?$AAV?$AAE?$AA_?$AAA?$AAD?$AAD?$AAR?$AAE@| DCB "D"
	DCB	0x0, "E", 0x0, "V", 0x0, "I", 0x0, "C", 0x0, "E", 0x0, "_"
	DCB	0x0, "C", 0x0, "O", 0x0, "N", 0x0, "F", 0x0, "I", 0x0, "G"
	DCB	0x0, "_", 0x0, "S", 0x0, "T", 0x0, "A", 0x0, "T", 0x0, "U"
	DCB	0x0, "S", 0x0, "_", 0x0, "L", 0x0, "E", 0x0, "A", 0x0, "V"
	DCB	0x0, "E", 0x0, "_", 0x0, "A", 0x0, "D", 0x0, "D", 0x0, "R"
	DCB	0x0, "E", 0x0, "S", 0x0, "S", 0x0, "0", 0x0, 0x0, 0x0 ; `string'

  00000			 AREA	 |.rdata|, DATA, READONLY
|??_C@_1FI@LGLHPFAK@?$AAD?$AAE?$AAV?$AAI?$AAC?$AAE?$AA_?$AAC?$AAO?$AAN?$AAF?$AAI?$AAG?$AA_?$AAS?$AAT?$AAA?$AAT?$AAU?$AAS?$AA_?$AAS?$AAC?$AAH?$AAE?$AAD?$AAU?$AAL?$AAI?$AAN?$AAG?$AA_@| DCB "D"
	DCB	0x0, "E", 0x0, "V", 0x0, "I", 0x0, "C", 0x0, "E", 0x0, "_"
	DCB	0x0, "C", 0x0, "O", 0x0, "N", 0x0, "F", 0x0, "I", 0x0, "G"
	DCB	0x0, "_", 0x0, "S", 0x0, "T", 0x0, "A", 0x0, "T", 0x0, "U"
	DCB	0x0, "S", 0x0, "_", 0x0, "S", 0x0, "C", 0x0, "H", 0x0, "E"
	DCB	0x0, "D", 0x0, "U", 0x0, "L", 0x0, "I", 0x0, "N", 0x0, "G"
	DCB	0x0, "_", 0x0, "S", 0x0, "E", 0x0, "T", 0x0, "_", 0x0, "A"
	DCB	0x0, "D", 0x0, "D", 0x0, "R", 0x0, "E", 0x0, "S", 0x0, "S"
	DCB	0x0, 0x0, 0x0				; `string'

  00000			 AREA	 |.rdata|, DATA, READONLY
|??_C@_1HG@BLNLBKIO@?$AAD?$AAE?$AAV?$AAI?$AAC?$AAE?$AA_?$AAC?$AAO?$AAN?$AAF?$AAI?$AAG?$AA_?$AAS?$AAT?$AAA?$AAT?$AAU?$AAS?$AA_?$AAS?$AAC?$AAH?$AAE?$AAD?$AAU?$AAL?$AAI?$AAN?$AAG?$AA_@| DCB "D"
	DCB	0x0, "E", 0x0, "V", 0x0, "I", 0x0, "C", 0x0, "E", 0x0, "_"
	DCB	0x0, "C", 0x0, "O", 0x0, "N", 0x0, "F", 0x0, "I", 0x0, "G"
	DCB	0x0, "_", 0x0, "S", 0x0, "T", 0x0, "A", 0x0, "T", 0x0, "U"
	DCB	0x0, "S", 0x0, "_", 0x0, "S", 0x0, "C", 0x0, "H", 0x0, "E"
	DCB	0x0, "D", 0x0, "U", 0x0, "L", 0x0, "I", 0x0, "N", 0x0, "G"
	DCB	0x0, "_", 0x0, "G", 0x0, "E", 0x0, "T", 0x0, "_", 0x0, "D"
	DCB	0x0, "E", 0x0, "V", 0x0, "I", 0x0, "C", 0x0, "E", 0x0, "_"
	DCB	0x0, "D", 0x0, "E", 0x0, "S", 0x0, "C", 0x0, "R", 0x0, "I"
	DCB	0x0, "P", 0x0, "T", 0x0, "O", 0x0, "R", 0x0, "_", 0x0, "T"
	DCB	0x0, "E", 0x0, "S", 0x0, "T", 0x0, 0x0, 0x0 ; `string'

  00000			 AREA	 |.rdata|, DATA, READONLY
|??_C@_1FG@NMCKCJLL@?$AAD?$AAE?$AAV?$AAI?$AAC?$AAE?$AA_?$AAC?$AAO?$AAN?$AAF?$AAI?$AAG?$AA_?$AAS?$AAT?$AAA?$AAT?$AAU?$AAS?$AA_?$AAR?$AAE?$AAS?$AAE?$AAT?$AA_?$AAA?$AAN?$AAD?$AA_?$AAE@| DCB "D"
	DCB	0x0, "E", 0x0, "V", 0x0, "I", 0x0, "C", 0x0, "E", 0x0, "_"
	DCB	0x0, "C", 0x0, "O", 0x0, "N", 0x0, "F", 0x0, "I", 0x0, "G"
	DCB	0x0, "_", 0x0, "S", 0x0, "T", 0x0, "A", 0x0, "T", 0x0, "U"
	DCB	0x0, "S", 0x0, "_", 0x0, "R", 0x0, "E", 0x0, "S", 0x0, "E"
	DCB	0x0, "T", 0x0, "_", 0x0, "A", 0x0, "N", 0x0, "D", 0x0, "_"
	DCB	0x0, "E", 0x0, "N", 0x0, "A", 0x0, "B", 0x0, "L", 0x0, "E"
	DCB	0x0, "_", 0x0, "P", 0x0, "O", 0x0, "R", 0x0, "T", 0x0, 0x0
	DCB	0x0					; `string'

  00000			 AREA	 |.rdata|, DATA, READONLY
|??_C@_1EI@KNOIBOPH@?$AAD?$AAE?$AAV?$AAI?$AAC?$AAE?$AA_?$AAC?$AAO?$AAN?$AAF?$AAI?$AAG?$AA_?$AAS?$AAT?$AAA?$AAT?$AAU?$AAS?$AA_?$AAU?$AAS?$AAI?$AAN?$AAG?$AA_?$AAA?$AAD?$AAD?$AAR?$AAE@| DCB "D"
	DCB	0x0, "E", 0x0, "V", 0x0, "I", 0x0, "C", 0x0, "E", 0x0, "_"
	DCB	0x0, "C", 0x0, "O", 0x0, "N", 0x0, "F", 0x0, "I", 0x0, "G"
	DCB	0x0, "_", 0x0, "S", 0x0, "T", 0x0, "A", 0x0, "T", 0x0, "U"
	DCB	0x0, "S", 0x0, "_", 0x0, "U", 0x0, "S", 0x0, "I", 0x0, "N"
	DCB	0x0, "G", 0x0, "_", 0x0, "A", 0x0, "D", 0x0, "D", 0x0, "R"
	DCB	0x0, "E", 0x0, "S", 0x0, "S", 0x0, "0", 0x0, 0x0, 0x0 ; `string'

  00000			 AREA	 |.rdata|, DATA, READONLY
|??_C@_1FI@COMJHLEF@?$AAD?$AAE?$AAV?$AAI?$AAC?$AAE?$AA_?$AAC?$AAO?$AAN?$AAF?$AAI?$AAG?$AA_?$AAS?$AAT?$AAA?$AAT?$AAU?$AAS?$AA_?$AAO?$AAP?$AAE?$AAN?$AAI?$AAN?$AAG?$AA_?$AAE?$AAN?$AAD@| DCB "D"
	DCB	0x0, "E", 0x0, "V", 0x0, "I", 0x0, "C", 0x0, "E", 0x0, "_"
	DCB	0x0, "C", 0x0, "O", 0x0, "N", 0x0, "F", 0x0, "I", 0x0, "G"
	DCB	0x0, "_", 0x0, "S", 0x0, "T", 0x0, "A", 0x0, "T", 0x0, "U"
	DCB	0x0, "S", 0x0, "_", 0x0, "O", 0x0, "P", 0x0, "E", 0x0, "N"
	DCB	0x0, "I", 0x0, "N", 0x0, "G", 0x0, "_", 0x0, "E", 0x0, "N"
	DCB	0x0, "D", 0x0, "P", 0x0, "O", 0x0, "I", 0x0, "N", 0x0, "T"
	DCB	0x0, "0", 0x0, "_", 0x0, "P", 0x0, "I", 0x0, "P", 0x0, "E"
	DCB	0x0, 0x0, 0x0				; `string'
	EXPORT	|??_C@_1BO@MFMGCEN@?$AA?9?$AAC?$AAE?$AAh?$AAc?$AAd?$AA?3?$AA?3?$AAC?$AAE?$AAh?$AAc?$AAd?$AA?6?$AA?$AA@| [ DATA ] ; `string'
	EXPORT	|??_C@_1BO@IFBOCIHN@?$AA?$CL?$AAC?$AAE?$AAh?$AAc?$AAd?$AA?3?$AA?3?$AAC?$AAE?$AAh?$AAc?$AAd?$AA?6?$AA?$AA@| [ DATA ] ; `string'
	EXPORT	|??_7CMhcd@@6B@| [ DATA ]		; CMhcd::`vftable'
	EXPORT	|??0CMhcd@@QAA@PAXPAVCPhysMem@@PBGRAEK@Z| ; CMhcd::CMhcd
	EXPORT	|?AddedTt@CMhcd@@UAAHEE@Z|		; CMhcd::AddedTt
	EXPORT	|?DeleteTt@CMhcd@@UAAHEEH@Z|		; CMhcd::DeleteTt
	EXPORT	|?DeviceInitialize@CMhcd@@UAAHXZ|	; CMhcd::DeviceInitialize
	EXPORT	|?DeviceDeInitialize@CMhcd@@UAAXXZ|	; CMhcd::DeviceDeInitialize
	EXPORT	|?SignalHubChangeEvent@CMhcd@@UAAHH@Z|	; CMhcd::SignalHubChangeEvent
	EXPORT	|?SuspendHC@CHcd@@UAAHXZ|		; CHcd::SuspendHC
	EXPORT	|?SetSignalDisconnectACK@CMhcd@@UAAXH@Z| ; CMhcd::SetSignalDisconnectACK
	EXPORT	|?SignalHubStatusChange@CHcd@@UAAXXZ|	; CHcd::SignalHubStatusChange
	EXPORT	|?ResumeNotification@CHcd@@MAAHXZ|	; CHcd::ResumeNotification
	EXPORT	|?SignalCheckForDoneTransfers@CHW@@UAAXEE@Z| ; CHW::SignalCheckForDoneTransfers
	EXPORT	|?SignalCheckForDoneDMA@CHW@@UAAXE@Z|	; CHW::SignalCheckForDoneDMA
	IMPORT	|NKDbgPrintfW|
	IMPORT	|dpCurSettings|
	IMPORT	|??0USB2lib@@QAA@XZ|			; USB2lib::USB2lib
	IMPORT	|??0CHW@@QAA@QAVCPhysMem@@PAXK@Z|	; CHW::CHW
	IMPORT	|??_ECMhcd@@UAAPAXI@Z|, WEAK |??_GCMhcd@@UAAPAXI@Z| ; CMhcd::`vector deleting destructor', CMhcd::`scalar deleting destructor'
	IMPORT	|?PowerMgmtCallback@CHW@@UAAXH@Z|	; CHW::PowerMgmtCallback
	IMPORT	|?DisableDevice@CHcd@@UAAHIH@Z|		; CHcd::DisableDevice
	IMPORT	|?SuspendResume@CHcd@@UAAHIH@Z|		; CHcd::SuspendResume
	IMPORT	|?DidPortStatusChange@CHW@@UAAHE@Z|	; CHW::DidPortStatusChange
	IMPORT	|?GetPortStatus@CHW@@UAAHEAAU_USB_HUB_AND_PORT_STATUS@@@Z| ; CHW::GetPortStatus
	IMPORT	|?RootHubFeature@CHW@@UAAHEEG@Z|	; CHW::RootHubFeature
	IMPORT	|?ResetAndEnablePort@CHW@@UAAHE@Z|	; CHW::ResetAndEnablePort
	IMPORT	|?DisablePort@CHW@@UAAXE@Z|		; CHW::DisablePort
	IMPORT	|?WaitForPortStatusChange@CHW@@UAAHPAX@Z| ; CHW::WaitForPortStatusChange
	IMPORT	|?InitFIFO@CHW@@UAAHQAVCPipe@@@Z|	; CHW::InitFIFO
	IMPORT	|?UpdateDataToggle@CHW@@UAAHQAVCPipe@@HH@Z| ; CHW::UpdateDataToggle
	IMPORT	|?ConfigEP@CHW@@UAAHQBU_USB_ENDPOINT_DESCRIPTOR@@EEEEHEH@Z| ; CHW::ConfigEP
	IMPORT	|?ProcessTD@CHW@@UAAHEPAX@Z|		; CHW::ProcessTD
	IMPORT	|?SendOutDMA@CHW@@UAAHEPAX@Z|		; CHW::SendOutDMA
	IMPORT	|?WriteFIFO@CHW@@UAAHPAXE0K@Z|		; CHW::WriteFIFO
	IMPORT	|?ReadFIFO@CHW@@UAAKPAXE0KPAH@Z|	; CHW::ReadFIFO
	IMPORT	|?WriteDMA@CHW@@UAAHPAXEE0KK0@Z|	; CHW::WriteDMA
	IMPORT	|?SetDeviceAddress@CHW@@UAAXEEEEE@Z|	; CHW::SetDeviceAddress
	IMPORT	|?IsHostConnect@CHW@@UAAHXZ|		; CHW::IsHostConnect
	IMPORT	|?IsDMASupport@CHW@@UAAHXZ|		; CHW::IsDMASupport
	IMPORT	|?GetDMAMode@CHW@@UAAKXZ|		; CHW::GetDMAMode
	IMPORT	|?LockEP0@CHW@@UAAHE@Z|			; CHW::LockEP0
	IMPORT	|?UnlockEP0@CHW@@UAAXE@Z|		; CHW::UnlockEP0
	IMPORT	|?IsDeviceLockEP0@CHW@@UAAHE@Z|		; CHW::IsDeviceLockEP0
	IMPORT	|?GetFrameNumber@CHW@@UAAHPAK@Z|	; CHW::GetFrameNumber
	IMPORT	|?GetFrameLength@CHW@@UAAHPAG@Z|	; CHW::GetFrameLength
	IMPORT	|?SetFrameLength@CHW@@UAAHPAXG@Z|	; CHW::SetFrameLength
	IMPORT	|?StopAdjustingFrame@CHW@@UAAHXZ|	; CHW::StopAdjustingFrame
	IMPORT	|?Initialize@CHW@@UAAHXZ|		; CHW::Initialize
	IMPORT	|?DeInitialize@CHW@@UAAXXZ|		; CHW::DeInitialize

  00000			 AREA	 |.pdata|, PDATA
|$T36701| DCD	|$LN9@CMhcd|
	DCD	0x40004c04
; File c:\wince600\platform\common\src\soc\common_ti_v1\omap3530\musb\musbhcd\musbmhdrc\cmhcd.cpp

  00000			 AREA	 |.rdata|, DATA, READONLY
|??_C@_1BO@MFMGCEN@?$AA?9?$AAC?$AAE?$AAh?$AAc?$AAd?$AA?3?$AA?3?$AAC?$AAE?$AAh?$AAc?$AAd?$AA?6?$AA?$AA@| DCB "-"
	DCB	0x0, "C", 0x0, "E", 0x0, "h", 0x0, "c", 0x0, "d", 0x0, ":"
	DCB	0x0, ":", 0x0, "C", 0x0, "E", 0x0, "h", 0x0, "c", 0x0, "d"
	DCB	0x0, 0xa, 0x0, 0x0, 0x0			; `string'

  00000			 AREA	 |.rdata|, DATA, READONLY
|??_C@_1BO@IFBOCIHN@?$AA?$CL?$AAC?$AAE?$AAh?$AAc?$AAd?$AA?3?$AA?3?$AAC?$AAE?$AAh?$AAc?$AAd?$AA?6?$AA?$AA@| DCB "+"
	DCB	0x0, "C", 0x0, "E", 0x0, "h", 0x0, "c", 0x0, "d", 0x0, ":"
	DCB	0x0, ":", 0x0, "C", 0x0, "E", 0x0, "h", 0x0, "c", 0x0, "d"
	DCB	0x0, 0xa, 0x0, 0x0, 0x0			; `string'

  00000			 AREA	 |.rdata|, DATA, READONLY
|??_7CMhcd@@6B@| DCD |?AddedTt@CMhcd@@UAAHEE@Z|		; CMhcd::`vftable'
	DCD	|?DeleteTt@CMhcd@@UAAHEEH@Z|
	DCD	|??_ECMhcd@@UAAPAXI@Z|
	DCD	|?DeviceInitialize@CMhcd@@UAAHXZ|
	DCD	|?DeviceDeInitialize@CMhcd@@UAAXXZ|
	DCD	|?SignalHubChangeEvent@CMhcd@@UAAHH@Z|
	DCD	|?PowerMgmtCallback@CHW@@UAAXH@Z|
	DCD	|?DisableDevice@CHcd@@UAAHIH@Z|
	DCD	|?SuspendResume@CHcd@@UAAHIH@Z|
	DCD	|?DidPortStatusChange@CHW@@UAAHE@Z|
	DCD	|?GetPortStatus@CHW@@UAAHEAAU_USB_HUB_AND_PORT_STATUS@@@Z|
	DCD	|?RootHubFeature@CHW@@UAAHEEG@Z|
	DCD	|?ResetAndEnablePort@CHW@@UAAHE@Z|
	DCD	|?DisablePort@CHW@@UAAXE@Z|
	DCD	|?WaitForPortStatusChange@CHW@@UAAHPAX@Z|
	DCD	|?SuspendHC@CHcd@@UAAHXZ|
	DCD	|?InitFIFO@CHW@@UAAHQAVCPipe@@@Z|
	DCD	|?UpdateDataToggle@CHW@@UAAHQAVCPipe@@HH@Z|
	DCD	|?SetSignalDisconnectACK@CMhcd@@UAAXH@Z|
	DCD	|?ConfigEP@CHW@@UAAHQBU_USB_ENDPOINT_DESCRIPTOR@@EEEEHEH@Z|
	DCD	|?ProcessTD@CHW@@UAAHEPAX@Z|
	DCD	|?SendOutDMA@CHW@@UAAHEPAX@Z|
	DCD	|?WriteFIFO@CHW@@UAAHPAXE0K@Z|
	DCD	|?ReadFIFO@CHW@@UAAKPAXE0KPAH@Z|
	DCD	|?WriteDMA@CHW@@UAAHPAXEE0KK0@Z|
	DCD	|?SetDeviceAddress@CHW@@UAAXEEEEE@Z|
	DCD	|?IsHostConnect@CHW@@UAAHXZ|
	DCD	|?IsDMASupport@CHW@@UAAHXZ|
	DCD	|?GetDMAMode@CHW@@UAAKXZ|
	DCD	|?LockEP0@CHW@@UAAHE@Z|
	DCD	|?UnlockEP0@CHW@@UAAXE@Z|
	DCD	|?IsDeviceLockEP0@CHW@@UAAHE@Z|
	DCD	|?GetFrameNumber@CHW@@UAAHPAK@Z|
	DCD	|?GetFrameLength@CHW@@UAAHPAG@Z|
	DCD	|?SetFrameLength@CHW@@UAAHPAXG@Z|
	DCD	|?StopAdjustingFrame@CHW@@UAAHXZ|
	DCD	|?SignalHubStatusChange@CHcd@@UAAXXZ|
	DCD	|?ResumeNotification@CHcd@@MAAHXZ|
	DCD	|?Initialize@CHW@@UAAHXZ|
	DCD	|?DeInitialize@CHW@@UAAXXZ|
	DCD	|?SignalCheckForDoneTransfers@CHW@@UAAXEE@Z|
	DCD	|?SignalCheckForDoneDMA@CHW@@UAAXE@Z|
; Function compile flags: /Odtp

  00000			 AREA	 |.text|, CODE, ARM

  00000		 |??0CMhcd@@QAA@PAXPAVCPhysMem@@PBGRAEK@Z| PROC ; CMhcd::CMhcd

; 56   : {

  00000		 |$LN9@CMhcd|
  00000	e1a0c00d	 mov         r12, sp
  00004	e92d000f	 stmdb       sp!, {r0 - r3}
  00008	e92d5000	 stmdb       sp!, {r12, lr}
  0000c	e24dd014	 sub         sp, sp, #0x14
  00010		 |$M36698|
  00010	e59d3030	 ldr         r3, [sp, #0x30]
  00014	e59d2020	 ldr         r2, [sp, #0x20]
  00018	e59d1024	 ldr         r1, [sp, #0x24]
  0001c	e59d001c	 ldr         r0, [sp, #0x1C]
  00020	eb000000	 bl          |??0CHW@@QAA@QAVCPhysMem@@PAXK@Z|
  00024	e58d0004	 str         r0, [sp, #4]
  00028	e59d301c	 ldr         r3, [sp, #0x1C]
  0002c	e2830fab	 add         r0, r3, #0xAB, 30
  00030	eb000000	 bl          |??0USB2lib@@QAA@XZ|
  00034	e58d0008	 str         r0, [sp, #8]
  00038	e59f20ec	 ldr         r2, [pc, #0xEC]
  0003c	e59d301c	 ldr         r3, [sp, #0x1C]
  00040	e5832000	 str         r2, [r3]
  00044	e59d301c	 ldr         r3, [sp, #0x1C]
  00048	e2832e6d	 add         r2, r3, #0x6D, 28
  0004c	e59d3024	 ldr         r3, [sp, #0x24]
  00050	e5823000	 str         r3, [r2]

; 57   :     DEBUGMSG(ZONE_UHCD && ZONE_VERBOSE, (TEXT("+CEhcd::CEhcd\n")));

  00054	e59f30c8	 ldr         r3, [pc, #0xC8]
  00058	e5933440	 ldr         r3, [r3, #0x440]
  0005c	e3130001	 tst         r3, #1
  00060	0a000008	 beq         |$LN3@CMhcd|
  00064	e59f30b8	 ldr         r3, [pc, #0xB8]
  00068	e5933440	 ldr         r3, [r3, #0x440]
  0006c	e3130a01	 tst         r3, #1, 20
  00070	0a000004	 beq         |$LN3@CMhcd|
  00074	e59f00ac	 ldr         r0, [pc, #0xAC]
  00078	eb000000	 bl          NKDbgPrintfW
  0007c	e3a03001	 mov         r3, #1
  00080	e58d300c	 str         r3, [sp, #0xC]
  00084	ea000001	 b           |$LN4@CMhcd|
  00088		 |$LN3@CMhcd|
  00088	e3a03000	 mov         r3, #0
  0008c	e58d300c	 str         r3, [sp, #0xC]
  00090		 |$LN4@CMhcd|

; 58   :     m_dwSysIntr = dwSysIntr;

  00090	e59d301c	 ldr         r3, [sp, #0x1C]
  00094	e2833c06	 add         r3, r3, #6, 24
  00098	e28320d4	 add         r2, r3, #0xD4
  0009c	e59d3030	 ldr         r3, [sp, #0x30]
  000a0	e5823000	 str         r3, [r2]

; 59   :     m_portBase = portBase;

  000a4	e59d301c	 ldr         r3, [sp, #0x1C]
  000a8	e2833c06	 add         r3, r3, #6, 24
  000ac	e28320d8	 add         r2, r3, #0xD8
  000b0	e59d302c	 ldr         r3, [sp, #0x2C]
  000b4	e5823000	 str         r3, [r2]

; 60   :     m_lpRegPath = lpRegPath;

  000b8	e59d301c	 ldr         r3, [sp, #0x1C]
  000bc	e2833c06	 add         r3, r3, #6, 24
  000c0	e28320dc	 add         r2, r3, #0xDC
  000c4	e59d3028	 ldr         r3, [sp, #0x28]
  000c8	e5823000	 str         r3, [r2]

; 61   :     DEBUGMSG(ZONE_UHCD && ZONE_VERBOSE, (TEXT("-CEhcd::CEhcd\n")));

  000cc	e59f3050	 ldr         r3, [pc, #0x50]
  000d0	e5933440	 ldr         r3, [r3, #0x440]
  000d4	e3130001	 tst         r3, #1
  000d8	0a000008	 beq         |$LN5@CMhcd|
  000dc	e59f3040	 ldr         r3, [pc, #0x40]
  000e0	e5933440	 ldr         r3, [r3, #0x440]
  000e4	e3130a01	 tst         r3, #1, 20
  000e8	0a000004	 beq         |$LN5@CMhcd|
  000ec	e59f002c	 ldr         r0, [pc, #0x2C]
  000f0	eb000000	 bl          NKDbgPrintfW
  000f4	e3a03001	 mov         r3, #1
  000f8	e58d3010	 str         r3, [sp, #0x10]
  000fc	ea000001	 b           |$LN6@CMhcd|
  00100		 |$LN5@CMhcd|
  00100	e3a03000	 mov         r3, #0
  00104	e58d3010	 str         r3, [sp, #0x10]
  00108		 |$LN6@CMhcd|

; 62   : }

  00108	e59d301c	 ldr         r3, [sp, #0x1C]
  0010c	e58d3000	 str         r3, [sp]
  00110	e59d0000	 ldr         r0, [sp]
  00114	e28dd014	 add         sp, sp, #0x14
  00118	e89d6000	 ldmia       sp, {sp, lr}
  0011c	e12fff1e	 bx          lr
  00120		 |$LN10@CMhcd|
  00120		 |$LN11@CMhcd|
  00120	00000000	 DCD         |??_C@_1BO@MFMGCEN@?$AA?9?$AAC?$AAE?$AAh?$AAc?$AAd?$AA?3?$AA?3?$AAC?$AAE?$AAh?$AAc?$AAd?$AA?6?$AA?$AA@|
  00124		 |$LN12@CMhcd|
  00124	00000000	 DCD         |dpCurSettings|
  00128		 |$LN13@CMhcd|
  00128	00000000	 DCD         |??_C@_1BO@IFBOCIHN@?$AA?$CL?$AAC?$AAE?$AAh?$AAc?$AAd?$AA?3?$AA?3?$AAC?$AAE?$AAh?$AAc?$AAd?$AA?6?$AA?$AA@|
  0012c		 |$LN14@CMhcd|
  0012c	00000000	 DCD         |??_7CMhcd@@6B@|
  00130		 |$M36699|

			 ENDP  ; |??0CMhcd@@QAA@PAXPAVCPhysMem@@PBGRAEK@Z|, CMhcd::CMhcd

; File c:\wince600\platform\common\src\soc\common_ti_v1\omap3530\musb\musbhcd\usb2com\hcd.hpp

  00000			 AREA	 |.pdata|, PDATA
|$T36712| DCD	|$LN5@SuspendHC|
	DCD	0x40000a04
; Function compile flags: /Odtp

  00000			 AREA	 |.text|, CODE, ARM

  00000		 |?SuspendHC@CHcd@@UAAHXZ| PROC		; CHcd::SuspendHC

; 118  :     virtual BOOL    SuspendHC() { return FALSE; }; // Default does not support it function.

  00000		 |$LN5@SuspendHC|
  00000	e1a0c00d	 mov         r12, sp
  00004	e92d0001	 stmdb       sp!, {r0}
  00008	e92d5000	 stmdb       sp!, {r12, lr}
  0000c	e24dd004	 sub         sp, sp, #4
  00010		 |$M36709|
  00010	e3a03000	 mov         r3, #0
  00014	e58d3000	 str         r3, [sp]
  00018	e59d0000	 ldr         r0, [sp]
  0001c	e28dd004	 add         sp, sp, #4
  00020	e89d6000	 ldmia       sp, {sp, lr}
  00024	e12fff1e	 bx          lr
  00028		 |$M36710|

			 ENDP  ; |?SuspendHC@CHcd@@UAAHXZ|, CHcd::SuspendHC


  00000			 AREA	 |.pdata|, PDATA
|$T36719| DCD	|$LN6@SignalHubS|
	DCD	0x40001503
; Function compile flags: /Odtp

  00000			 AREA	 |.text|, CODE, ARM

  00000		 |?SignalHubStatusChange@CHcd@@UAAXXZ| PROC ; CHcd::SignalHubStatusChange

; 159  :     virtual void SignalHubStatusChange() {

  00000		 |$LN6@SignalHubS|
  00000	e1a0c00d	 mov         r12, sp
  00004	e92d0001	 stmdb       sp!, {r0}
  00008	e92d5000	 stmdb       sp!, {r12, lr}
  0000c		 |$M36716|

; 160  :         if (m_pCRootHub!=NULL)

  0000c	e59d3008	 ldr         r3, [sp, #8]
  00010	e28330b0	 add         r3, r3, #0xB0
  00014	e5933000	 ldr         r3, [r3]
  00018	e3530000	 cmp         r3, #0
  0001c	0a00000a	 beq         |$LN1@SignalHubS|

; 161  :             m_pCRootHub->SignalHubStatusChange();

  00020	e59d3008	 ldr         r3, [sp, #8]
  00024	e28330b0	 add         r3, r3, #0xB0
  00028	e5932000	 ldr         r2, [r3]
  0002c	e59d3008	 ldr         r3, [sp, #8]
  00030	e28330b0	 add         r3, r3, #0xB0
  00034	e5930000	 ldr         r0, [r3]
  00038	e5923000	 ldr         r3, [r2]
  0003c	e2833044	 add         r3, r3, #0x44
  00040	e5933000	 ldr         r3, [r3]
  00044	e1a0e00f	 mov         lr, pc
  00048	e12fff13	 bx          r3
  0004c		 |$LN1@SignalHubS|

; 162  :     }

  0004c	e89d6000	 ldmia       sp, {sp, lr}
  00050	e12fff1e	 bx          lr
  00054		 |$M36717|

			 ENDP  ; |?SignalHubStatusChange@CHcd@@UAAXXZ|, CHcd::SignalHubStatusChange

	EXPORT	|?Unlock@LockObject@@QAAXXZ|		; LockObject::Unlock
	EXPORT	|?Lock@LockObject@@QAAXXZ|		; LockObject::Lock

  00000			 AREA	 |.pdata|, PDATA
|$T36727| DCD	|$LN6@ResumeNoti|
	DCD	0x40003d04
; Function compile flags: /Odtp

  00000			 AREA	 |.text|, CODE, ARM

  00000		 |?ResumeNotification@CHcd@@MAAHXZ| PROC ; CHcd::ResumeNotification

; 167  :     virtual BOOL ResumeNotification ()  {

  00000		 |$LN6@ResumeNoti|
  00000	e1a0c00d	 mov         r12, sp
  00004	e92d0001	 stmdb       sp!, {r0}
  00008	e92d5000	 stmdb       sp!, {r12, lr}
  0000c	e24dd00c	 sub         sp, sp, #0xC
  00010		 |$M36724|

; 168  :         Lock();

  00010	e59d3014	 ldr         r3, [sp, #0x14]
  00014	e2830090	 add         r0, r3, #0x90
  00018	eb000000	 bl          |?Lock@LockObject@@QAAXXZ|

; 169  :         BOOL fReturn = FALSE;

  0001c	e3a03000	 mov         r3, #0
  00020	e58d3000	 str         r3, [sp]

; 170  :         if (m_pCRootHub) {

  00024	e59d3014	 ldr         r3, [sp, #0x14]
  00028	e28330b0	 add         r3, r3, #0xB0
  0002c	e5933000	 ldr         r3, [r3]
  00030	e3530000	 cmp         r3, #0
  00034	0a000025	 beq         |$LN1@ResumeNoti|

; 171  :             fReturn = m_pCRootHub->ResumeNotification();

  00038	e59d3014	 ldr         r3, [sp, #0x14]
  0003c	e28330b0	 add         r3, r3, #0xB0
  00040	e5932000	 ldr         r2, [r3]
  00044	e59d3014	 ldr         r3, [sp, #0x14]
  00048	e28330b0	 add         r3, r3, #0xB0
  0004c	e5930000	 ldr         r0, [r3]
  00050	e5923000	 ldr         r3, [r2]
  00054	e2833028	 add         r3, r3, #0x28
  00058	e5933000	 ldr         r3, [r3]
  0005c	e1a0e00f	 mov         lr, pc
  00060	e12fff13	 bx          r3
  00064	e58d0008	 str         r0, [sp, #8]
  00068	e59d3008	 ldr         r3, [sp, #8]
  0006c	e58d3000	 str         r3, [sp]

; 172  :             m_pCRootHub->NotifyOnSuspendedResumed(FALSE);

  00070	e3a01000	 mov         r1, #0
  00074	e59d3014	 ldr         r3, [sp, #0x14]
  00078	e28330b0	 add         r3, r3, #0xB0
  0007c	e5932000	 ldr         r2, [r3]
  00080	e59d3014	 ldr         r3, [sp, #0x14]
  00084	e28330b0	 add         r3, r3, #0xB0
  00088	e5930000	 ldr         r0, [r3]
  0008c	e5923000	 ldr         r3, [r2]
  00090	e283302c	 add         r3, r3, #0x2C
  00094	e5933000	 ldr         r3, [r3]
  00098	e1a0e00f	 mov         lr, pc
  0009c	e12fff13	 bx          r3

; 173  :             m_pCRootHub->NotifyOnSuspendedResumed(TRUE);

  000a0	e3a01001	 mov         r1, #1
  000a4	e59d3014	 ldr         r3, [sp, #0x14]
  000a8	e28330b0	 add         r3, r3, #0xB0
  000ac	e5932000	 ldr         r2, [r3]
  000b0	e59d3014	 ldr         r3, [sp, #0x14]
  000b4	e28330b0	 add         r3, r3, #0xB0
  000b8	e5930000	 ldr         r0, [r3]
  000bc	e5923000	 ldr         r3, [r2]
  000c0	e283302c	 add         r3, r3, #0x2C
  000c4	e5933000	 ldr         r3, [r3]
  000c8	e1a0e00f	 mov         lr, pc
  000cc	e12fff13	 bx          r3
  000d0		 |$LN1@ResumeNoti|

; 174  :         }
; 175  :         Unlock();

  000d0	e59d3014	 ldr         r3, [sp, #0x14]
  000d4	e2830090	 add         r0, r3, #0x90
  000d8	eb000000	 bl          |?Unlock@LockObject@@QAAXXZ|

; 176  :         return fReturn;

  000dc	e59d3000	 ldr         r3, [sp]
  000e0	e58d3004	 str         r3, [sp, #4]

; 177  :     }

  000e4	e59d0004	 ldr         r0, [sp, #4]
  000e8	e28dd00c	 add         sp, sp, #0xC
  000ec	e89d6000	 ldmia       sp, {sp, lr}
  000f0	e12fff1e	 bx          lr
  000f4		 |$M36725|

			 ENDP  ; |?ResumeNotification@CHcd@@MAAHXZ|, CHcd::ResumeNotification

	IMPORT	|EnterCriticalSection|
; File c:\wince600\platform\common\src\soc\common_ti_v1\omap3530\musb\musbhcd\usb2com\sync.hpp

  00000			 AREA	 |.pdata|, PDATA
|$T36734| DCD	|$LN5@Lock|
	DCD	0x40000703
; Function compile flags: /Odtp

  00000			 AREA	 |.text|, CODE, ARM

  00000		 |?Lock@LockObject@@QAAXXZ| PROC	; LockObject::Lock

; 73   :     void Lock(void) { EnterCriticalSection(&m_CSection); };

  00000		 |$LN5@Lock|
  00000	e1a0c00d	 mov         r12, sp
  00004	e92d0001	 stmdb       sp!, {r0}
  00008	e92d5000	 stmdb       sp!, {r12, lr}
  0000c		 |$M36731|
  0000c	e59d0008	 ldr         r0, [sp, #8]
  00010	eb000000	 bl          EnterCriticalSection
  00014	e89d6000	 ldmia       sp, {sp, lr}
  00018	e12fff1e	 bx          lr
  0001c		 |$M36732|

			 ENDP  ; |?Lock@LockObject@@QAAXXZ|, LockObject::Lock

	IMPORT	|LeaveCriticalSection|

  00000			 AREA	 |.pdata|, PDATA
|$T36741| DCD	|$LN5@Unlock|
	DCD	0x40000703
; Function compile flags: /Odtp

  00000			 AREA	 |.text|, CODE, ARM

  00000		 |?Unlock@LockObject@@QAAXXZ| PROC	; LockObject::Unlock

; 74   :     void Unlock(void) {LeaveCriticalSection( &m_CSection); };

  00000		 |$LN5@Unlock|
  00000	e1a0c00d	 mov         r12, sp
  00004	e92d0001	 stmdb       sp!, {r0}
  00008	e92d5000	 stmdb       sp!, {r12, lr}
  0000c		 |$M36738|
  0000c	e59d0008	 ldr         r0, [sp, #8]
  00010	eb000000	 bl          LeaveCriticalSection
  00014	e89d6000	 ldmia       sp, {sp, lr}
  00018	e12fff1e	 bx          lr
  0001c		 |$M36739|

			 ENDP  ; |?Unlock@LockObject@@QAAXXZ|, LockObject::Unlock

	IMPORT	|?SignalCheckForDoneTransfers@CBusyPipeList@@QAAXEE@Z| ; CBusyPipeList::SignalCheckForDoneTransfers
; File c:\wince600\platform\common\src\soc\common_ti_v1\omap3530\musb\musbhcd\musbmhdrc\chw.h

  00000			 AREA	 |.pdata|, PDATA
|$T36748| DCD	|$LN5@SignalChec|
	DCD	0x40000a03
; Function compile flags: /Odtp

  00000			 AREA	 |.text|, CODE, ARM

  00000		 |?SignalCheckForDoneTransfers@CHW@@UAAXEE@Z| PROC ; CHW::SignalCheckForDoneTransfers

; 233  :     virtual void    SignalCheckForDoneTransfers( IN const UCHAR endpoint, IN const UCHAR ucIsOut ) { 

  00000		 |$LN5@SignalChec|
  00000	e1a0c00d	 mov         r12, sp
  00004	e92d0007	 stmdb       sp!, {r0 - r2}
  00008	e92d5000	 stmdb       sp!, {r12, lr}
  0000c		 |$M36745|

; 234  :             m_cBusyPipeList.SignalCheckForDoneTransfers(endpoint, ucIsOut);

  0000c	e5dd2010	 ldrb        r2, [sp, #0x10]
  00010	e5dd100c	 ldrb        r1, [sp, #0xC]
  00014	e59d3008	 ldr         r3, [sp, #8]
  00018	e28300c4	 add         r0, r3, #0xC4
  0001c	eb000000	 bl          |?SignalCheckForDoneTransfers@CBusyPipeList@@QAAXEE@Z|

; 235  :         };

  00020	e89d6000	 ldmia       sp, {sp, lr}
  00024	e12fff1e	 bx          lr
  00028		 |$M36746|

			 ENDP  ; |?SignalCheckForDoneTransfers@CHW@@UAAXEE@Z|, CHW::SignalCheckForDoneTransfers

	IMPORT	|?SignalCheckForDoneDMA@CBusyPipeList@@QAAHE@Z| ; CBusyPipeList::SignalCheckForDoneDMA

  00000			 AREA	 |.pdata|, PDATA
|$T36755| DCD	|$LN5@SignalChec@2|
	DCD	0x40000903
; Function compile flags: /Odtp

  00000			 AREA	 |.text|, CODE, ARM

  00000		 |?SignalCheckForDoneDMA@CHW@@UAAXE@Z| PROC ; CHW::SignalCheckForDoneDMA

; 237  :     virtual void    SignalCheckForDoneDMA( IN const UCHAR channel ) { 

  00000		 |$LN5@SignalChec@2|
  00000	e1a0c00d	 mov         r12, sp
  00004	e92d0003	 stmdb       sp!, {r0, r1}
  00008	e92d5000	 stmdb       sp!, {r12, lr}
  0000c		 |$M36752|

; 238  :             m_cBusyPipeList.SignalCheckForDoneDMA(channel);

  0000c	e5dd100c	 ldrb        r1, [sp, #0xC]
  00010	e59d3008	 ldr         r3, [sp, #8]
  00014	e28300c4	 add         r0, r3, #0xC4
  00018	eb000000	 bl          |?SignalCheckForDoneDMA@CBusyPipeList@@QAAHE@Z|

; 239  :         };

  0001c	e89d6000	 ldmia       sp, {sp, lr}
  00020	e12fff1e	 bx          lr
  00024		 |$M36753|

			 ENDP  ; |?SignalCheckForDoneDMA@CHW@@UAAXE@Z|, CHW::SignalCheckForDoneDMA

	IMPORT	|?AddedTt@USB2lib@@QAAHEE@Z|		; USB2lib::AddedTt
; File c:\wince600\platform\common\src\soc\common_ti_v1\omap3530\musb\musbhcd\musbmhdrc\cmhcd.h

  00000			 AREA	 |.pdata|, PDATA
|$T36763| DCD	|$LN5@AddedTt|
	DCD	0x40001004
; Function compile flags: /Odtp

  00000			 AREA	 |.text|, CODE, ARM

  00000		 |?AddedTt@CMhcd@@UAAHEE@Z| PROC	; CMhcd::AddedTt

; 59   :     virtual BOOL    AddedTt( UCHAR uHubAddress,UCHAR uPort) { return USB2lib::AddedTt( uHubAddress,uPort); };

  00000		 |$LN5@AddedTt|
  00000	e1a0c00d	 mov         r12, sp
  00004	e92d0007	 stmdb       sp!, {r0 - r2}
  00008	e92d5000	 stmdb       sp!, {r12, lr}
  0000c	e24dd008	 sub         sp, sp, #8
  00010		 |$M36760|
  00010	e5dd2018	 ldrb        r2, [sp, #0x18]
  00014	e5dd1014	 ldrb        r1, [sp, #0x14]
  00018	e59d3010	 ldr         r3, [sp, #0x10]
  0001c	e2830fab	 add         r0, r3, #0xAB, 30
  00020	eb000000	 bl          |?AddedTt@USB2lib@@QAAHEE@Z|
  00024	e58d0004	 str         r0, [sp, #4]
  00028	e59d3004	 ldr         r3, [sp, #4]
  0002c	e58d3000	 str         r3, [sp]
  00030	e59d0000	 ldr         r0, [sp]
  00034	e28dd008	 add         sp, sp, #8
  00038	e89d6000	 ldmia       sp, {sp, lr}
  0003c	e12fff1e	 bx          lr
  00040		 |$M36761|

			 ENDP  ; |?AddedTt@CMhcd@@UAAHEE@Z|, CMhcd::AddedTt

	IMPORT	|?DeleteTt@USB2lib@@QAAHEEH@Z|		; USB2lib::DeleteTt

  00000			 AREA	 |.pdata|, PDATA
|$T36771| DCD	|$LN5@DeleteTt|
	DCD	0x40001104
; Function compile flags: /Odtp

  00000			 AREA	 |.text|, CODE, ARM

  00000		 |?DeleteTt@CMhcd@@UAAHEEH@Z| PROC	; CMhcd::DeleteTt

; 60   :     virtual BOOL    DeleteTt( UCHAR uHubAddress,UCHAR uPort,BOOL ttContext) { return USB2lib::DeleteTt( uHubAddress,uPort,ttContext); };

  00000		 |$LN5@DeleteTt|
  00000	e1a0c00d	 mov         r12, sp
  00004	e92d000f	 stmdb       sp!, {r0 - r3}
  00008	e92d5000	 stmdb       sp!, {r12, lr}
  0000c	e24dd008	 sub         sp, sp, #8
  00010		 |$M36768|
  00010	e59d301c	 ldr         r3, [sp, #0x1C]
  00014	e5dd2018	 ldrb        r2, [sp, #0x18]
  00018	e5dd1014	 ldrb        r1, [sp, #0x14]
  0001c	e59d0010	 ldr         r0, [sp, #0x10]
  00020	e2800fab	 add         r0, r0, #0xAB, 30
  00024	eb000000	 bl          |?DeleteTt@USB2lib@@QAAHEEH@Z|
  00028	e58d0004	 str         r0, [sp, #4]
  0002c	e59d3004	 ldr         r3, [sp, #4]
  00030	e58d3000	 str         r3, [sp]
  00034	e59d0000	 ldr         r0, [sp]
  00038	e28dd008	 add         sp, sp, #8
  0003c	e89d6000	 ldmia       sp, {sp, lr}
  00040	e12fff1e	 bx          lr
  00044		 |$M36769|

			 ENDP  ; |?DeleteTt@CMhcd@@UAAHEEH@Z|, CMhcd::DeleteTt

	EXPORT	|?SetSignalDisconnectACK@CHW@@UAAXH@Z|	; CHW::SetSignalDisconnectACK

  00000			 AREA	 |.pdata|, PDATA
|$T36778| DCD	|$LN5@SetSignalD|
	DCD	0x40000803
; Function compile flags: /Odtp

  00000			 AREA	 |.text|, CODE, ARM

  00000		 |?SetSignalDisconnectACK@CMhcd@@UAAXH@Z| PROC ; CMhcd::SetSignalDisconnectACK

; 63   :     virtual void    SetSignalDisconnectACK(BOOL fAck) { CHW::SetSignalDisconnectACK(fAck);};

  00000		 |$LN5@SetSignalD|
  00000	e1a0c00d	 mov         r12, sp
  00004	e92d0003	 stmdb       sp!, {r0, r1}
  00008	e92d5000	 stmdb       sp!, {r12, lr}
  0000c		 |$M36775|
  0000c	e59d100c	 ldr         r1, [sp, #0xC]
  00010	e59d0008	 ldr         r0, [sp, #8]
  00014	eb000000	 bl          |?SetSignalDisconnectACK@CHW@@UAAXH@Z|
  00018	e89d6000	 ldmia       sp, {sp, lr}
  0001c	e12fff1e	 bx          lr
  00020		 |$M36776|

			 ENDP  ; |?SetSignalDisconnectACK@CMhcd@@UAAXH@Z|, CMhcd::SetSignalDisconnectACK

	EXPORT	|?SetSignalDisconnectACK@CBusyPipeList@@QAAXH@Z| ; CBusyPipeList::SetSignalDisconnectACK
; File c:\wince600\platform\common\src\soc\common_ti_v1\omap3530\musb\musbhcd\musbmhdrc\chw.h

  00000			 AREA	 |.pdata|, PDATA
|$T36785| DCD	|$LN5@SetSignalD@2|
	DCD	0x40000903
; Function compile flags: /Odtp

  00000			 AREA	 |.text|, CODE, ARM

  00000		 |?SetSignalDisconnectACK@CHW@@UAAXH@Z| PROC ; CHW::SetSignalDisconnectACK

; 367  :     void    SetSignalDisconnectACK(BOOL fAck) { m_cBusyPipeList.SetSignalDisconnectACK(fAck); };

  00000		 |$LN5@SetSignalD@2|
  00000	e1a0c00d	 mov         r12, sp
  00004	e92d0003	 stmdb       sp!, {r0, r1}
  00008	e92d5000	 stmdb       sp!, {r12, lr}
  0000c		 |$M36782|
  0000c	e59d100c	 ldr         r1, [sp, #0xC]
  00010	e59d3008	 ldr         r3, [sp, #8]
  00014	e28300c4	 add         r0, r3, #0xC4
  00018	eb000000	 bl          |?SetSignalDisconnectACK@CBusyPipeList@@QAAXH@Z|
  0001c	e89d6000	 ldmia       sp, {sp, lr}
  00020	e12fff1e	 bx          lr
  00024		 |$M36783|

			 ENDP  ; |?SetSignalDisconnectACK@CHW@@UAAXH@Z|, CHW::SetSignalDisconnectACK


  00000			 AREA	 |.pdata|, PDATA
|$T36792| DCD	|$LN5@SetSignalD@3|
	DCD	0x40000903
; Function compile flags: /Odtp

  00000			 AREA	 |.text|, CODE, ARM

  00000		 |?SetSignalDisconnectACK@CBusyPipeList@@QAAXH@Z| PROC ; CBusyPipeList::SetSignalDisconnectACK

; 190  :     void    SetSignalDisconnectACK(BOOL fAck) { m_SignalDisconnectACK = fAck;};

  00000		 |$LN5@SetSignalD@3|
  00000	e1a0c00d	 mov         r12, sp
  00004	e92d0003	 stmdb       sp!, {r0, r1}
  00008	e92d5000	 stmdb       sp!, {r12, lr}
  0000c		 |$M36789|
  0000c	e59d3008	 ldr         r3, [sp, #8]
  00010	e28320d0	 add         r2, r3, #0xD0
  00014	e59d300c	 ldr         r3, [sp, #0xC]
  00018	e5823000	 str         r3, [r2]
  0001c	e89d6000	 ldmia       sp, {sp, lr}
  00020	e12fff1e	 bx          lr
  00024		 |$M36790|

			 ENDP  ; |?SetSignalDisconnectACK@CBusyPipeList@@QAAXH@Z|, CBusyPipeList::SetSignalDisconnectACK

	EXPORT	|??1CMhcd@@UAA@XZ|			; CMhcd::~CMhcd
	IMPORT	|??3@YAXPAX@Z|				; operator delete

  00000			 AREA	 |.pdata|, PDATA
|$T36800| DCD	|$LN6@scalar|
	DCD	0x40001104
; Function compile flags: /Odtp

  00000			 AREA	 |.text|, CODE, ARM

  00000		 |??_GCMhcd@@UAAPAXI@Z| PROC		; CMhcd::`scalar deleting destructor'
  00000		 |$LN6@scalar|
  00000	e1a0c00d	 mov         r12, sp
  00004	e92d0003	 stmdb       sp!, {r0, r1}
  00008	e92d5000	 stmdb       sp!, {r12, lr}
  0000c	e24dd004	 sub         sp, sp, #4
  00010		 |$M36797|
  00010	e59d000c	 ldr         r0, [sp, #0xC]
  00014	eb000000	 bl          |??1CMhcd@@UAA@XZ|
  00018	e59d3010	 ldr         r3, [sp, #0x10]
  0001c	e3130001	 tst         r3, #1
  00020	0a000001	 beq         |$LN1@scalar|
  00024	e59d000c	 ldr         r0, [sp, #0xC]
  00028	eb000000	 bl          |??3@YAXPAX@Z|
  0002c		 |$LN1@scalar|
  0002c	e59d300c	 ldr         r3, [sp, #0xC]
  00030	e58d3000	 str         r3, [sp]
  00034	e59d0000	 ldr         r0, [sp]
  00038	e28dd004	 add         sp, sp, #4
  0003c	e89d6000	 ldmia       sp, {sp, lr}
  00040	e12fff1e	 bx          lr
  00044		 |$M36798|

			 ENDP  ; |??_GCMhcd@@UAAPAXI@Z|, CMhcd::`scalar deleting destructor'

	EXPORT	|??_C@_1CA@MEKAEJMM@?$AA?9?$AAC?$AAM?$AAh?$AAc?$AAd?$AA?3?$AA?3?$AA?$HO?$AAC?$AAM?$AAh?$AAc?$AAd?$AA?6?$AA?$AA@| [ DATA ] ; `string'
	EXPORT	|??_C@_1CA@INOPFOPD@?$AA?$CL?$AAC?$AAM?$AAh?$AAc?$AAd?$AA?3?$AA?3?$AA?$HO?$AAC?$AAM?$AAh?$AAc?$AAd?$AA?6?$AA?$AA@| [ DATA ] ; `string'
	IMPORT	|??1CHW@@UAA@XZ|			; CHW::~CHW
	IMPORT	|??1USB2lib@@QAA@XZ|			; USB2lib::~USB2lib
	IMPORT	|?SetRootHub@CHcd@@QAAPAVCRootHub@@PAV2@@Z| ; CHcd::SetRootHub

  00008			 AREA	 |.pdata|, PDATA
|$T36817| DCD	|$LN14@CMhcd@2|
	DCD	0x40005d04
; File c:\wince600\platform\common\src\soc\common_ti_v1\omap3530\musb\musbhcd\musbmhdrc\cmhcd.cpp

  00000			 AREA	 |.rdata|, DATA, READONLY
|??_C@_1CA@MEKAEJMM@?$AA?9?$AAC?$AAM?$AAh?$AAc?$AAd?$AA?3?$AA?3?$AA?$HO?$AAC?$AAM?$AAh?$AAc?$AAd?$AA?6?$AA?$AA@| DCB "-"
	DCB	0x0, "C", 0x0, "M", 0x0, "h", 0x0, "c", 0x0, "d", 0x0, ":"
	DCB	0x0, ":", 0x0, "~", 0x0, "C", 0x0, "M", 0x0, "h", 0x0, "c"
	DCB	0x0, "d", 0x0, 0xa, 0x0, 0x0, 0x0	; `string'

  00000			 AREA	 |.rdata|, DATA, READONLY
|??_C@_1CA@INOPFOPD@?$AA?$CL?$AAC?$AAM?$AAh?$AAc?$AAd?$AA?3?$AA?3?$AA?$HO?$AAC?$AAM?$AAh?$AAc?$AAd?$AA?6?$AA?$AA@| DCB "+"
	DCB	0x0, "C", 0x0, "M", 0x0, "h", 0x0, "c", 0x0, "d", 0x0, ":"
	DCB	0x0, ":", 0x0, "~", 0x0, "C", 0x0, "M", 0x0, "h", 0x0, "c"
	DCB	0x0, "d", 0x0, 0xa, 0x0, 0x0, 0x0	; `string'
; Function compile flags: /Odtp

  00130			 AREA	 |.text|, CODE, ARM

  00130		 |??1CMhcd@@UAA@XZ| PROC		; CMhcd::~CMhcd

; 75   : {

  00130		 |$LN14@CMhcd@2|
  00130	e1a0c00d	 mov         r12, sp
  00134	e92d0001	 stmdb       sp!, {r0}
  00138	e92d5000	 stmdb       sp!, {r12, lr}
  0013c	e24dd024	 sub         sp, sp, #0x24
  00140		 |$M36814|
  00140	e59f2158	 ldr         r2, [pc, #0x158]
  00144	e59d302c	 ldr         r3, [sp, #0x2C]
  00148	e5832000	 str         r2, [r3]

; 76   :     DEBUGMSG(ZONE_UHCD && ZONE_VERBOSE, (TEXT("+CMhcd::~CMhcd\n")));

  0014c	e59f3144	 ldr         r3, [pc, #0x144]
  00150	e5933440	 ldr         r3, [r3, #0x440]
  00154	e3130001	 tst         r3, #1
  00158	0a000008	 beq         |$LN6@CMhcd@2|
  0015c	e59f3134	 ldr         r3, [pc, #0x134]
  00160	e5933440	 ldr         r3, [r3, #0x440]
  00164	e3130a01	 tst         r3, #1, 20
  00168	0a000004	 beq         |$LN6@CMhcd@2|
  0016c	e59f0128	 ldr         r0, [pc, #0x128]
  00170	eb000000	 bl          NKDbgPrintfW
  00174	e3a03001	 mov         r3, #1
  00178	e58d300c	 str         r3, [sp, #0xC]
  0017c	ea000001	 b           |$LN7@CMhcd@2|
  00180		 |$LN6@CMhcd@2|
  00180	e3a03000	 mov         r3, #0
  00184	e58d300c	 str         r3, [sp, #0xC]
  00188		 |$LN7@CMhcd@2|

; 77   : 
; 78   :     // make the API set inaccessible
; 79   :     CRootHub *pRoot = SetRootHub(NULL);

  00188	e3a01000	 mov         r1, #0
  0018c	e59d002c	 ldr         r0, [sp, #0x2C]
  00190	eb000000	 bl          |?SetRootHub@CHcd@@QAAPAVCRootHub@@PAV2@@Z|
  00194	e58d0010	 str         r0, [sp, #0x10]
  00198	e59d3010	 ldr         r3, [sp, #0x10]
  0019c	e58d3000	 str         r3, [sp]

; 80   :     // signal root hub to close
; 81   :     if ( pRoot ) {

  001a0	e59d3000	 ldr         r3, [sp]
  001a4	e3530000	 cmp         r3, #0
  001a8	0a00001a	 beq         |$LN1@CMhcd@2|

; 82   :         pRoot->HandleDetach();

  001ac	e59d3000	 ldr         r3, [sp]
  001b0	e5933000	 ldr         r3, [r3]
  001b4	e2833030	 add         r3, r3, #0x30
  001b8	e59d0000	 ldr         r0, [sp]
  001bc	e5933000	 ldr         r3, [r3]
  001c0	e1a0e00f	 mov         lr, pc
  001c4	e12fff13	 bx          r3

; 83   :         delete pRoot;

  001c8	e59d3000	 ldr         r3, [sp]
  001cc	e58d3008	 str         r3, [sp, #8]
  001d0	e59d3008	 ldr         r3, [sp, #8]
  001d4	e58d3004	 str         r3, [sp, #4]
  001d8	e59d3004	 ldr         r3, [sp, #4]
  001dc	e3530000	 cmp         r3, #0
  001e0	0a00000a	 beq         |$LN8@CMhcd@2|
  001e4	e3a01001	 mov         r1, #1
  001e8	e59d3004	 ldr         r3, [sp, #4]
  001ec	e5933000	 ldr         r3, [r3]
  001f0	e59d0004	 ldr         r0, [sp, #4]
  001f4	e5933000	 ldr         r3, [r3]
  001f8	e1a0e00f	 mov         lr, pc
  001fc	e12fff13	 bx          r3
  00200	e58d0014	 str         r0, [sp, #0x14]
  00204	e59d3014	 ldr         r3, [sp, #0x14]
  00208	e58d3018	 str         r3, [sp, #0x18]
  0020c	ea000001	 b           |$LN9@CMhcd@2|
  00210		 |$LN8@CMhcd@2|
  00210	e3a03000	 mov         r3, #0
  00214	e58d3018	 str         r3, [sp, #0x18]
  00218		 |$LN9@CMhcd@2|
  00218		 |$LN1@CMhcd@2|

; 84   :     }
; 85   : 
; 86   :     DEBUGMSG(ZONE_UHCD && ZONE_VERBOSE, (TEXT("-CMhcd::~CMhcd\n")));

  00218	e59f3078	 ldr         r3, [pc, #0x78]
  0021c	e5933440	 ldr         r3, [r3, #0x440]
  00220	e3130001	 tst         r3, #1
  00224	0a000008	 beq         |$LN10@CMhcd@2|
  00228	e59f3068	 ldr         r3, [pc, #0x68]
  0022c	e5933440	 ldr         r3, [r3, #0x440]
  00230	e3130a01	 tst         r3, #1, 20
  00234	0a000004	 beq         |$LN10@CMhcd@2|
  00238	e59f0054	 ldr         r0, [pc, #0x54]
  0023c	eb000000	 bl          NKDbgPrintfW
  00240	e3a03001	 mov         r3, #1
  00244	e58d301c	 str         r3, [sp, #0x1C]
  00248	ea000001	 b           |$LN11@CMhcd@2|
  0024c		 |$LN10@CMhcd@2|
  0024c	e3a03000	 mov         r3, #0
  00250	e58d301c	 str         r3, [sp, #0x1C]
  00254		 |$LN11@CMhcd@2|

; 87   : }

  00254	e59d302c	 ldr         r3, [sp, #0x2C]
  00258	e3530000	 cmp         r3, #0
  0025c	0a000003	 beq         |$LN4@CMhcd@2|
  00260	e59d302c	 ldr         r3, [sp, #0x2C]
  00264	e2833fab	 add         r3, r3, #0xAB, 30
  00268	e58d3020	 str         r3, [sp, #0x20]
  0026c	ea000001	 b           |$LN5@CMhcd@2|
  00270		 |$LN4@CMhcd@2|
  00270	e3a03000	 mov         r3, #0
  00274	e58d3020	 str         r3, [sp, #0x20]
  00278		 |$LN5@CMhcd@2|
  00278	e59d0020	 ldr         r0, [sp, #0x20]
  0027c	eb000000	 bl          |??1USB2lib@@QAA@XZ|
  00280	e59d002c	 ldr         r0, [sp, #0x2C]
  00284	eb000000	 bl          |??1CHW@@UAA@XZ|
  00288	e28dd024	 add         sp, sp, #0x24
  0028c	e89d6000	 ldmia       sp, {sp, lr}
  00290	e12fff1e	 bx          lr
  00294		 |$LN15@CMhcd@2|
  00294		 |$LN16@CMhcd@2|
  00294	00000000	 DCD         |??_C@_1CA@MEKAEJMM@?$AA?9?$AAC?$AAM?$AAh?$AAc?$AAd?$AA?3?$AA?3?$AA?$HO?$AAC?$AAM?$AAh?$AAc?$AAd?$AA?6?$AA?$AA@|
  00298		 |$LN17@CMhcd@2|
  00298	00000000	 DCD         |dpCurSettings|
  0029c		 |$LN18@CMhcd@2|
  0029c	00000000	 DCD         |??_C@_1CA@INOPFOPD@?$AA?$CL?$AAC?$AAM?$AAh?$AAc?$AAd?$AA?3?$AA?3?$AA?$HO?$AAC?$AAM?$AAh?$AAc?$AAd?$AA?6?$AA?$AA@|
  002a0		 |$LN19@CMhcd@2|
  002a0	00000000	 DCD         |??_7CMhcd@@6B@|
  002a4		 |$M36815|

			 ENDP  ; |??1CMhcd@@UAA@XZ|, CMhcd::~CMhcd

	EXPORT	|??_C@_1CM@DECAPEAG@?$AA?9?$AAC?$AAE?$AAh?$AAc?$AAd?$AA?3?$AA?3?$AAD?$AAe?$AAI?$AAn?$AAi?$AAt?$AAi?$AAa?$AAl?$AAi?$AAz?$AAe?$AA?6?$AA?$AA@| [ DATA ] ; `string'
	EXPORT	|??_C@_1CM@MINAGFEK@?$AA?$CL?$AAC?$AAE?$AAh?$AAc?$AAd?$AA?3?$AA?3?$AAD?$AAe?$AAI?$AAn?$AAi?$AAt?$AAi?$AAa?$AAl?$AAi?$AAz?$AAe?$AA?6?$AA?$AA@| [ DATA ] ; `string'
	IMPORT	|?DeInitialize@CDeviceGlobal@@QAAXXZ|	; CDeviceGlobal::DeInitialize

  00010			 AREA	 |.pdata|, PDATA
|$T36835| DCD	|$LN12@DeviceDeIn|
	DCD	0x40005004

  00000			 AREA	 |.rdata|, DATA, READONLY
|??_C@_1CM@DECAPEAG@?$AA?9?$AAC?$AAE?$AAh?$AAc?$AAd?$AA?3?$AA?3?$AAD?$AAe?$AAI?$AAn?$AAi?$AAt?$AAi?$AAa?$AAl?$AAi?$AAz?$AAe?$AA?6?$AA?$AA@| DCB "-"
	DCB	0x0, "C", 0x0, "E", 0x0, "h", 0x0, "c", 0x0, "d", 0x0, ":"
	DCB	0x0, ":", 0x0, "D", 0x0, "e", 0x0, "I", 0x0, "n", 0x0, "i"
	DCB	0x0, "t", 0x0, "i", 0x0, "a", 0x0, "l", 0x0, "i", 0x0, "z"
	DCB	0x0, "e", 0x0, 0xa, 0x0, 0x0, 0x0	; `string'

  00000			 AREA	 |.rdata|, DATA, READONLY
|??_C@_1CM@MINAGFEK@?$AA?$CL?$AAC?$AAE?$AAh?$AAc?$AAd?$AA?3?$AA?3?$AAD?$AAe?$AAI?$AAn?$AAi?$AAt?$AAi?$AAa?$AAl?$AAi?$AAz?$AAe?$AA?6?$AA?$AA@| DCB "+"
	DCB	0x0, "C", 0x0, "E", 0x0, "h", 0x0, "c", 0x0, "d", 0x0, ":"
	DCB	0x0, ":", 0x0, "D", 0x0, "e", 0x0, "I", 0x0, "n", 0x0, "i"
	DCB	0x0, "t", 0x0, "i", 0x0, "a", 0x0, "l", 0x0, "i", 0x0, "z"
	DCB	0x0, "e", 0x0, 0xa, 0x0, 0x0, 0x0	; `string'
; Function compile flags: /Odtp

  002a4			 AREA	 |.text|, CODE, ARM

  002a4		 |?DeviceDeInitialize@CMhcd@@UAAXXZ| PROC ; CMhcd::DeviceDeInitialize

; 89   : {

  002a4		 |$LN12@DeviceDeIn|
  002a4	e1a0c00d	 mov         r12, sp
  002a8	e92d0001	 stmdb       sp!, {r0}
  002ac	e92d5000	 stmdb       sp!, {r12, lr}
  002b0	e24dd020	 sub         sp, sp, #0x20
  002b4		 |$M36832|

; 90   :     DEBUGMSG(ZONE_UHCD && ZONE_VERBOSE, (TEXT("+CEhcd::DeInitialize\n")));

  002b4	e59f3120	 ldr         r3, [pc, #0x120]
  002b8	e5933440	 ldr         r3, [r3, #0x440]
  002bc	e3130001	 tst         r3, #1
  002c0	0a000008	 beq         |$LN4@DeviceDeIn|
  002c4	e59f3110	 ldr         r3, [pc, #0x110]
  002c8	e5933440	 ldr         r3, [r3, #0x440]
  002cc	e3130a01	 tst         r3, #1, 20
  002d0	0a000004	 beq         |$LN4@DeviceDeIn|
  002d4	e59f0104	 ldr         r0, [pc, #0x104]
  002d8	eb000000	 bl          NKDbgPrintfW
  002dc	e3a03001	 mov         r3, #1
  002e0	e58d300c	 str         r3, [sp, #0xC]
  002e4	ea000001	 b           |$LN5@DeviceDeIn|
  002e8		 |$LN4@DeviceDeIn|
  002e8	e3a03000	 mov         r3, #0
  002ec	e58d300c	 str         r3, [sp, #0xC]
  002f0		 |$LN5@DeviceDeIn|

; 91   : 
; 92   :     // make the API set inaccessible
; 93   :     CRootHub *pRoot = SetRootHub(NULL);

  002f0	e3a01000	 mov         r1, #0
  002f4	e59d0028	 ldr         r0, [sp, #0x28]
  002f8	eb000000	 bl          |?SetRootHub@CHcd@@QAAPAVCRootHub@@PAV2@@Z|
  002fc	e58d0010	 str         r0, [sp, #0x10]
  00300	e59d3010	 ldr         r3, [sp, #0x10]
  00304	e58d3000	 str         r3, [sp]

; 94   :     // signal root hub to close
; 95   :     if ( pRoot ) {

  00308	e59d3000	 ldr         r3, [sp]
  0030c	e3530000	 cmp         r3, #0
  00310	0a00001a	 beq         |$LN1@DeviceDeIn|

; 96   :         pRoot->HandleDetach();

  00314	e59d3000	 ldr         r3, [sp]
  00318	e5933000	 ldr         r3, [r3]
  0031c	e2833030	 add         r3, r3, #0x30
  00320	e59d0000	 ldr         r0, [sp]
  00324	e5933000	 ldr         r3, [r3]
  00328	e1a0e00f	 mov         lr, pc
  0032c	e12fff13	 bx          r3

; 97   :         delete pRoot;

  00330	e59d3000	 ldr         r3, [sp]
  00334	e58d3008	 str         r3, [sp, #8]
  00338	e59d3008	 ldr         r3, [sp, #8]
  0033c	e58d3004	 str         r3, [sp, #4]
  00340	e59d3004	 ldr         r3, [sp, #4]
  00344	e3530000	 cmp         r3, #0
  00348	0a00000a	 beq         |$LN6@DeviceDeIn|
  0034c	e3a01001	 mov         r1, #1
  00350	e59d3004	 ldr         r3, [sp, #4]
  00354	e5933000	 ldr         r3, [r3]
  00358	e59d0004	 ldr         r0, [sp, #4]
  0035c	e5933000	 ldr         r3, [r3]
  00360	e1a0e00f	 mov         lr, pc
  00364	e12fff13	 bx          r3
  00368	e58d0014	 str         r0, [sp, #0x14]
  0036c	e59d3014	 ldr         r3, [sp, #0x14]
  00370	e58d3018	 str         r3, [sp, #0x18]
  00374	ea000001	 b           |$LN7@DeviceDeIn|
  00378		 |$LN6@DeviceDeIn|
  00378	e3a03000	 mov         r3, #0
  0037c	e58d3018	 str         r3, [sp, #0x18]
  00380		 |$LN7@DeviceDeIn|
  00380		 |$LN1@DeviceDeIn|

; 98   :     }
; 99   :     // this is safe because by now all clients have been unloaded
; 100  :     //DeleteCriticalSection ( &m_csHCLock );
; 101  : 
; 102  :     CHW::DeInitialize();

  00380	e59d0028	 ldr         r0, [sp, #0x28]
  00384	eb000000	 bl          |?DeInitialize@CHW@@UAAXXZ|

; 103  :     CDeviceGlobal::DeInitialize();

  00388	e59d0028	 ldr         r0, [sp, #0x28]
  0038c	eb000000	 bl          |?DeInitialize@CDeviceGlobal@@QAAXXZ|

; 104  : 
; 105  :     DEBUGMSG(ZONE_UHCD && ZONE_VERBOSE, (TEXT("-CEhcd::DeInitialize\n")));

  00390	e59f3044	 ldr         r3, [pc, #0x44]
  00394	e5933440	 ldr         r3, [r3, #0x440]
  00398	e3130001	 tst         r3, #1
  0039c	0a000008	 beq         |$LN8@DeviceDeIn|
  003a0	e59f3034	 ldr         r3, [pc, #0x34]
  003a4	e5933440	 ldr         r3, [r3, #0x440]
  003a8	e3130a01	 tst         r3, #1, 20
  003ac	0a000004	 beq         |$LN8@DeviceDeIn|
  003b0	e59f0020	 ldr         r0, [pc, #0x20]
  003b4	eb000000	 bl          NKDbgPrintfW
  003b8	e3a03001	 mov         r3, #1
  003bc	e58d301c	 str         r3, [sp, #0x1C]
  003c0	ea000001	 b           |$LN9@DeviceDeIn|
  003c4		 |$LN8@DeviceDeIn|
  003c4	e3a03000	 mov         r3, #0
  003c8	e58d301c	 str         r3, [sp, #0x1C]
  003cc		 |$LN9@DeviceDeIn|

; 106  : 
; 107  : }

  003cc	e28dd020	 add         sp, sp, #0x20
  003d0	e89d6000	 ldmia       sp, {sp, lr}
  003d4	e12fff1e	 bx          lr
  003d8		 |$LN13@DeviceDeIn|
  003d8		 |$LN14@DeviceDeIn|
  003d8	00000000	 DCD         |??_C@_1CM@DECAPEAG@?$AA?9?$AAC?$AAE?$AAh?$AAc?$AAd?$AA?3?$AA?3?$AAD?$AAe?$AAI?$AAn?$AAi?$AAt?$AAi?$AAa?$AAl?$AAi?$AAz?$AAe?$AA?6?$AA?$AA@|
  003dc		 |$LN15@DeviceDeIn|
  003dc	00000000	 DCD         |dpCurSettings|
  003e0		 |$LN16@DeviceDeIn|
  003e0	00000000	 DCD         |??_C@_1CM@MINAGFEK@?$AA?$CL?$AAC?$AAE?$AAh?$AAc?$AAd?$AA?3?$AA?3?$AAD?$AAe?$AAI?$AAn?$AAi?$AAt?$AAi?$AAa?$AAl?$AAi?$AAz?$AAe?$AA?6?$AA?$AA@|
  003e4		 |$M36833|

			 ENDP  ; |?DeviceDeInitialize@CMhcd@@UAAXXZ|, CMhcd::DeviceDeInitialize

	EXPORT	|??_C@_1EA@LJHOICNN@?$AA?9?$AAC?$AAM?$AAh?$AAc?$AAd?$AA?3?$AA?3?$AAI?$AAn?$AAi?$AAt?$AAi?$AAa?$AAl?$AAi?$AAz?$AAe?$AA?4?$AA?5?$AAS?$AAu?$AAc?$AAc?$AAe?$AAs?$AAs?$AA?$CB?$AA?$CB?$AA?$AN?$AA?6?$AA?$AA@| [ DATA ] ; `string'
	EXPORT	|??_C@_1GC@CLFDOADC@?$AA?9?$AAC?$AAE?$AAh?$AAc?$AAd?$AA?3?$AA?3?$AAI?$AAn?$AAi?$AAt?$AAi?$AAa?$AAl?$AAi?$AAz?$AAe?$AA?4?$AA?5?$AAE?$AAr?$AAr?$AAo?$AAr?$AA?5?$AAi?$AAn?$AAi?$AAt?$AAi?$AAa@| [ DATA ] ; `string'
	EXPORT	|??_C@_1GO@GBFMIMON@?$AA?9?$AAC?$AAM?$AAh?$AAc?$AAd?$AA?3?$AA?3?$AAI?$AAn?$AAi?$AAt?$AAi?$AAa?$AAl?$AAi?$AAz?$AAe?$AA?5?$AA?9?$AA?5?$AAu?$AAn?$AAa?$AAb?$AAl?$AAe?$AA?5?$AAt?$AAo?$AA?5?$AAc@| [ DATA ] ; `string'
	EXPORT	|?GetRootHub@CHcd@@QAAPAVCRootHub@@XZ|	; CHcd::GetRootHub
	EXPORT	|?GetNumberOfPort@CHW@@QAAKXZ|		; CHW::GetNumberOfPort
	EXPORT	|??_C@_1FK@FNONLNGN@?$AA?$CF?$AAs?$AA?3?$AA?5?$AAD?$AAE?$AAB?$AAU?$AAG?$AAC?$AAH?$AAK?$AA?5?$AAf?$AAa?$AAi?$AAl?$AAe?$AAd?$AA?5?$AAi?$AAn?$AA?5?$AAf?$AAi?$AAl?$AAe?$AA?5?$AA?$CF?$AAs?$AA?5?$AAa@| [ DATA ] ; `string'
	EXPORT	|??_C@_1BA@LEPJIIOK@?$AAU?$AAn?$AAk?$AAn?$AAo?$AAw?$AAn?$AA?$AA@| [ DATA ] ; `string'
	EXPORT	|??_C@_1LK@EOOFLNBK@?$AAC?$AA?3?$AA?2?$AAW?$AAI?$AAN?$AAC?$AAE?$AA6?$AA0?$AA0?$AA?2?$AAP?$AAL?$AAA?$AAT?$AAF?$AAO?$AAR?$AAM?$AA?2?$AAC?$AAO?$AAM?$AAM?$AAO?$AAN?$AA?2?$AAS?$AAR?$AAC?$AA?2@| [ DATA ] ; `string'
	EXPORT	|??_C@_1JC@CPGBLJL@?$AA?9?$AAC?$AAE?$AAh?$AAc?$AAd?$AA?3?$AA?3?$AAI?$AAn?$AAi?$AAt?$AAi?$AAa?$AAl?$AAi?$AAz?$AAe?$AA?4?$AA?5?$AAE?$AAr?$AAr?$AAo?$AAr?$AA?5?$AA?9?$AA?5?$AAc?$AAo?$AAu?$AAl@| [ DATA ] ; `string'
	EXPORT	|??_C@_1DI@IAIONEJK@?$AA?$CL?$AAC?$AAE?$AAh?$AAc?$AAd?$AA?3?$AA?3?$AAI?$AAn?$AAi?$AAt?$AAi?$AAa?$AAl?$AAi?$AAz?$AAe?$AA?4?$AA?5?$AAE?$AAn?$AAt?$AAr?$AAy?$AA?$AN?$AA?6?$AA?$AA@| [ DATA ] ; `string'
	EXPORT	|__$ArrayPad$| [ DATA ]
	IMPORT	|?EnterOperationalState@CHW@@QAAXXZ|	; CHW::EnterOperationalState
	IMPORT	|??0CRootHub@@QAA@ABU_USB_DEVICE_INFO@@HHABU_USB_HUB_DESCRIPTOR@@QAVCHcd@@@Z| ; CRootHub::CRootHub
	IMPORT	|??2@YAPAXI@Z|				; operator new
	IMPORT	|?Initialize@CDeviceGlobal@@QAAHPAX@Z|	; CDeviceGlobal::Initialize
	IMPORT	|?ReInit@CPhysMem@@QAAXXZ|		; CPhysMem::ReInit
	IMPORT	|__security_cookie|
	IMPORT	|__GSHandlerCheck|
	IMPORT	|__security_check_cookie|

  00018			 AREA	 |.pdata|, PDATA
|$T36869| DCD	|$LN25@DeviceInit|
	DCD	0xc000ed04

  00000			 AREA	 |.rdata|, DATA, READONLY
|??_C@_1EA@LJHOICNN@?$AA?9?$AAC?$AAM?$AAh?$AAc?$AAd?$AA?3?$AA?3?$AAI?$AAn?$AAi?$AAt?$AAi?$AAa?$AAl?$AAi?$AAz?$AAe?$AA?4?$AA?5?$AAS?$AAu?$AAc?$AAc?$AAe?$AAs?$AAs?$AA?$CB?$AA?$CB?$AA?$AN?$AA?6?$AA?$AA@| DCB "-"
	DCB	0x0, "C", 0x0, "M", 0x0, "h", 0x0, "c", 0x0, "d", 0x0, ":"
	DCB	0x0, ":", 0x0, "I", 0x0, "n", 0x0, "i", 0x0, "t", 0x0, "i"
	DCB	0x0, "a", 0x0, "l", 0x0, "i", 0x0, "z", 0x0, "e", 0x0, "."
	DCB	0x0, " ", 0x0, "S", 0x0, "u", 0x0, "c", 0x0, "c", 0x0, "e"
	DCB	0x0, "s", 0x0, "s", 0x0, "!", 0x0, "!", 0x0, 0xd, 0x0, 0xa
	DCB	0x0, 0x0, 0x0				; `string'

  00000			 AREA	 |.rdata|, DATA, READONLY
|??_C@_1GC@CLFDOADC@?$AA?9?$AAC?$AAE?$AAh?$AAc?$AAd?$AA?3?$AA?3?$AAI?$AAn?$AAi?$AAt?$AAi?$AAa?$AAl?$AAi?$AAz?$AAe?$AA?4?$AA?5?$AAE?$AAr?$AAr?$AAo?$AAr?$AA?5?$AAi?$AAn?$AAi?$AAt?$AAi?$AAa@| DCB "-"
	DCB	0x0, "C", 0x0, "E", 0x0, "h", 0x0, "c", 0x0, "d", 0x0, ":"
	DCB	0x0, ":", 0x0, "I", 0x0, "n", 0x0, "i", 0x0, "t", 0x0, "i"
	DCB	0x0, "a", 0x0, "l", 0x0, "i", 0x0, "z", 0x0, "e", 0x0, "."
	DCB	0x0, " ", 0x0, "E", 0x0, "r", 0x0, "r", 0x0, "o", 0x0, "r"
	DCB	0x0, " ", 0x0, "i", 0x0, "n", 0x0, "i", 0x0, "t", 0x0, "i"
	DCB	0x0, "a", 0x0, "l", 0x0, "i", 0x0, "z", 0x0, "i", 0x0, "n"
	DCB	0x0, "g", 0x0, " ", 0x0, "r", 0x0, "o", 0x0, "o", 0x0, "t"
	DCB	0x0, " ", 0x0, "h", 0x0, "u", 0x0, "b", 0x0, 0xa, 0x0, 0x0
	DCB	0x0					; `string'

  00000			 AREA	 |.rdata|, DATA, READONLY
|??_C@_1GO@GBFMIMON@?$AA?9?$AAC?$AAM?$AAh?$AAc?$AAd?$AA?3?$AA?3?$AAI?$AAn?$AAi?$AAt?$AAi?$AAa?$AAl?$AAi?$AAz?$AAe?$AA?5?$AA?9?$AA?5?$AAu?$AAn?$AAa?$AAb?$AAl?$AAe?$AA?5?$AAt?$AAo?$AA?5?$AAc@| DCB "-"
	DCB	0x0, "C", 0x0, "M", 0x0, "h", 0x0, "c", 0x0, "d", 0x0, ":"
	DCB	0x0, ":", 0x0, "I", 0x0, "n", 0x0, "i", 0x0, "t", 0x0, "i"
	DCB	0x0, "a", 0x0, "l", 0x0, "i", 0x0, "z", 0x0, "e", 0x0, " "
	DCB	0x0, "-", 0x0, " ", 0x0, "u", 0x0, "n", 0x0, "a", 0x0, "b"
	DCB	0x0, "l", 0x0, "e", 0x0, " ", 0x0, "t", 0x0, "o", 0x0, " "
	DCB	0x0, "c", 0x0, "r", 0x0, "e", 0x0, "a", 0x0, "t", 0x0, "e"
	DCB	0x0, " ", 0x0, "r", 0x0, "o", 0x0, "o", 0x0, "t", 0x0, " "
	DCB	0x0, "h", 0x0, "u", 0x0, "b", 0x0, " ", 0x0, "o", 0x0, "b"
	DCB	0x0, "j", 0x0, "e", 0x0, "c", 0x0, "t", 0x0, 0xa, 0x0, 0x0
	DCB	0x0					; `string'

  00000			 AREA	 |.rdata|, DATA, READONLY
|??_C@_1FK@FNONLNGN@?$AA?$CF?$AAs?$AA?3?$AA?5?$AAD?$AAE?$AAB?$AAU?$AAG?$AAC?$AAH?$AAK?$AA?5?$AAf?$AAa?$AAi?$AAl?$AAe?$AAd?$AA?5?$AAi?$AAn?$AA?5?$AAf?$AAi?$AAl?$AAe?$AA?5?$AA?$CF?$AAs?$AA?5?$AAa@| DCB "%"
	DCB	0x0, "s", 0x0, ":", 0x0, " ", 0x0, "D", 0x0, "E", 0x0, "B"
	DCB	0x0, "U", 0x0, "G", 0x0, "C", 0x0, "H", 0x0, "K", 0x0, " "
	DCB	0x0, "f", 0x0, "a", 0x0, "i", 0x0, "l", 0x0, "e", 0x0, "d"
	DCB	0x0, " ", 0x0, "i", 0x0, "n", 0x0, " ", 0x0, "f", 0x0, "i"
	DCB	0x0, "l", 0x0, "e", 0x0, " ", 0x0, "%", 0x0, "s", 0x0, " "
	DCB	0x0, "a", 0x0, "t", 0x0, " ", 0x0, "l", 0x0, "i", 0x0, "n"
	DCB	0x0, "e", 0x0, " ", 0x0, "%", 0x0, "d", 0x0, " ", 0x0, 0xd
	DCB	0x0, 0xa, 0x0, 0x0, 0x0			; `string'

  00000			 AREA	 |.rdata|, DATA, READONLY
|??_C@_1BA@LEPJIIOK@?$AAU?$AAn?$AAk?$AAn?$AAo?$AAw?$AAn?$AA?$AA@| DCB "U", 0x0
	DCB	"n", 0x0, "k", 0x0, "n", 0x0, "o", 0x0, "w", 0x0, "n", 0x0
	DCB	0x0, 0x0				; `string'

  00000			 AREA	 |.rdata|, DATA, READONLY
|??_C@_1LK@EOOFLNBK@?$AAC?$AA?3?$AA?2?$AAW?$AAI?$AAN?$AAC?$AAE?$AA6?$AA0?$AA0?$AA?2?$AAP?$AAL?$AAA?$AAT?$AAF?$AAO?$AAR?$AAM?$AA?2?$AAC?$AAO?$AAM?$AAM?$AAO?$AAN?$AA?2?$AAS?$AAR?$AAC?$AA?2@| DCB "C"
	DCB	0x0, ":", 0x0, "\\", 0x0, "W", 0x0, "I", 0x0, "N", 0x0, "C"
	DCB	0x0, "E", 0x0, "6", 0x0, "0", 0x0, "0", 0x0, "\\", 0x0, "P"
	DCB	0x0, "L", 0x0, "A", 0x0, "T", 0x0, "F", 0x0, "O", 0x0, "R"
	DCB	0x0, "M", 0x0, "\\", 0x0, "C", 0x0, "O", 0x0, "M", 0x0, "M"
	DCB	0x0, "O", 0x0, "N", 0x0, "\\", 0x0, "S", 0x0, "R", 0x0, "C"
	DCB	0x0, "\\", 0x0, "S", 0x0, "O", 0x0, "C", 0x0, "\\", 0x0, "C"
	DCB	0x0, "O", 0x0, "M", 0x0, "M", 0x0, "O", 0x0, "N", 0x0, "_"
	DCB	0x0, "T", 0x0, "I", 0x0, "_", 0x0, "V", 0x0, "1", 0x0, "\\"
	DCB	0x0, "O", 0x0, "M", 0x0, "A", 0x0, "P", 0x0, "3", 0x0, "5"
	DCB	0x0, "3", 0x0, "0", 0x0, "\\", 0x0, "M", 0x0, "U", 0x0, "S"
	DCB	0x0, "B", 0x0, "\\", 0x0, "M", 0x0, "U", 0x0, "S", 0x0, "B"
	DCB	0x0, "H", 0x0, "C", 0x0, "D", 0x0, "\\", 0x0, "M", 0x0, "U"
	DCB	0x0, "S", 0x0, "B", 0x0, "M", 0x0, "H", 0x0, "D", 0x0, "R"
	DCB	0x0, "C", 0x0, "\\", 0x0, ".", 0x0, "\\", 0x0, "c", 0x0, "m"
	DCB	0x0, "h", 0x0, "c", 0x0, "d", 0x0, ".", 0x0, "c", 0x0, "p"
	DCB	0x0, "p", 0x0, 0x0, 0x0			; `string'

  00000			 AREA	 |.rdata|, DATA, READONLY
|??_C@_1JC@CPGBLJL@?$AA?9?$AAC?$AAE?$AAh?$AAc?$AAd?$AA?3?$AA?3?$AAI?$AAn?$AAi?$AAt?$AAi?$AAa?$AAl?$AAi?$AAz?$AAe?$AA?4?$AA?5?$AAE?$AAr?$AAr?$AAo?$AAr?$AA?5?$AA?9?$AA?5?$AAc?$AAo?$AAu?$AAl@| DCB "-"
	DCB	0x0, "C", 0x0, "E", 0x0, "h", 0x0, "c", 0x0, "d", 0x0, ":"
	DCB	0x0, ":", 0x0, "I", 0x0, "n", 0x0, "i", 0x0, "t", 0x0, "i"
	DCB	0x0, "a", 0x0, "l", 0x0, "i", 0x0, "z", 0x0, "e", 0x0, "."
	DCB	0x0, " ", 0x0, "E", 0x0, "r", 0x0, "r", 0x0, "o", 0x0, "r"
	DCB	0x0, " ", 0x0, "-", 0x0, " ", 0x0, "c", 0x0, "o", 0x0, "u"
	DCB	0x0, "l", 0x0, "d", 0x0, " ", 0x0, "n", 0x0, "o", 0x0, "t"
	DCB	0x0, " ", 0x0, "i", 0x0, "n", 0x0, "i", 0x0, "t", 0x0, "i"
	DCB	0x0, "a", 0x0, "l", 0x0, "i", 0x0, "z", 0x0, "e", 0x0, " "
	DCB	0x0, "d", 0x0, "e", 0x0, "v", 0x0, "i", 0x0, "c", 0x0, "e"
	DCB	0x0, "/", 0x0, "p", 0x0, "i", 0x0, "p", 0x0, "e", 0x0, "/"
	DCB	0x0, "h", 0x0, "w", 0x0, " ", 0x0, "c", 0x0, "l", 0x0, "a"
	DCB	0x0, "s", 0x0, "s", 0x0, "e", 0x0, "s", 0x0, 0xa, 0x0, 0x0
	DCB	0x0					; `string'

  00000			 AREA	 |.rdata|, DATA, READONLY
|??_C@_1DI@IAIONEJK@?$AA?$CL?$AAC?$AAE?$AAh?$AAc?$AAd?$AA?3?$AA?3?$AAI?$AAn?$AAi?$AAt?$AAi?$AAa?$AAl?$AAi?$AAz?$AAe?$AA?4?$AA?5?$AAE?$AAn?$AAt?$AAr?$AAy?$AA?$AN?$AA?6?$AA?$AA@| DCB "+"
	DCB	0x0, "C", 0x0, "E", 0x0, "h", 0x0, "c", 0x0, "d", 0x0, ":"
	DCB	0x0, ":", 0x0, "I", 0x0, "n", 0x0, "i", 0x0, "t", 0x0, "i"
	DCB	0x0, "a", 0x0, "l", 0x0, "i", 0x0, "z", 0x0, "e", 0x0, "."
	DCB	0x0, " ", 0x0, "E", 0x0, "n", 0x0, "t", 0x0, "r", 0x0, "y"
	DCB	0x0, 0xd, 0x0, 0xa, 0x0, 0x0, 0x0	; `string'

  00000			 AREA	 |.xdata|, DATA
|$T36865| DCD	0xffffffa0
; Function compile flags: /Odtp

  003e4			 AREA	 |.text|, CODE, ARM

  003e4	00000000	 DCD         |__GSHandlerCheck|
  003e8	00000000	 DCD         |$T36865|

  003ec		 |?DeviceInitialize@CMhcd@@UAAHXZ| PROC	; CMhcd::DeviceInitialize

; 134  : {

  003ec		 |$LN25@DeviceInit|
  003ec	e1a0c00d	 mov         r12, sp
  003f0	e92d0001	 stmdb       sp!, {r0}
  003f4	e92d5000	 stmdb       sp!, {r12, lr}
  003f8	e24dd0d0	 sub         sp, sp, #0xD0
  003fc		 |$M36866|
  003fc	e59f3398	 ldr         r3, [pc, #0x398]
  00400	e5933000	 ldr         r3, [r3]
  00404	e58d307c	 str         r3, [sp, #0x7C]

; 135  :     DEBUGMSG(ZONE_INIT,(TEXT("+CEhcd::Initialize. Entry\r\n")));

  00408	e59f336c	 ldr         r3, [pc, #0x36C]
  0040c	e5933440	 ldr         r3, [r3, #0x440]
  00410	e3130002	 tst         r3, #2
  00414	0a000004	 beq         |$LN7@DeviceInit|
  00418	e59f0378	 ldr         r0, [pc, #0x378]
  0041c	eb000000	 bl          NKDbgPrintfW
  00420	e3a03001	 mov         r3, #1
  00424	e58d308c	 str         r3, [sp, #0x8C]
  00428	ea000001	 b           |$LN8@DeviceInit|
  0042c		 |$LN7@DeviceInit|
  0042c	e3a03000	 mov         r3, #0
  00430	e58d308c	 str         r3, [sp, #0x8C]
  00434		 |$LN8@DeviceInit|

; 136  : 
; 137  :     
; 138  :     // All Initialize routines must be called, so we can't write
; 139  :     // if ( !CDevice::Initialize() || !CPipe::Initialize() etc )
; 140  :     // due to short circuit eval.
; 141  :     {
; 142  :         m_pMem ->ReInit();

  00434	e59d30d8	 ldr         r3, [sp, #0xD8]
  00438	e2833e6d	 add         r3, r3, #0x6D, 28
  0043c	e5930000	 ldr         r0, [r3]
  00440	eb000000	 bl          |?ReInit@CPhysMem@@QAAXXZ|

; 143  :         BOOL fCDeviceInitOK = CDeviceGlobal::Initialize(this);

  00444	e59d10d8	 ldr         r1, [sp, #0xD8]
  00448	e59d00d8	 ldr         r0, [sp, #0xD8]
  0044c	eb000000	 bl          |?Initialize@CDeviceGlobal@@QAAHPAX@Z|
  00450	e58d0090	 str         r0, [sp, #0x90]
  00454	e59d3090	 ldr         r3, [sp, #0x90]
  00458	e58d300c	 str         r3, [sp, #0xC]

; 144  :         BOOL fCHWInitOK = CHW::Initialize( );

  0045c	e59d00d8	 ldr         r0, [sp, #0xD8]
  00460	eb000000	 bl          |?Initialize@CHW@@UAAHXZ|
  00464	e58d0094	 str         r0, [sp, #0x94]
  00468	e59d3094	 ldr         r3, [sp, #0x94]
  0046c	e58d3008	 str         r3, [sp, #8]

; 145  : 
; 146  :         if ( !fCDeviceInitOK || !fCHWInitOK ) {

  00470	e59d300c	 ldr         r3, [sp, #0xC]
  00474	e3530000	 cmp         r3, #0
  00478	0a000002	 beq         |$LN3@DeviceInit|
  0047c	e59d3008	 ldr         r3, [sp, #8]
  00480	e3530000	 cmp         r3, #0
  00484	1a00001b	 bne         |$LN4@DeviceInit|
  00488		 |$LN3@DeviceInit|

; 147  :             DEBUGMSG(ZONE_ERROR, (TEXT("-CEhcd::Initialize. Error - could not initialize device/pipe/hw classes\n")));

  00488	e59f32ec	 ldr         r3, [pc, #0x2EC]
  0048c	e5933440	 ldr         r3, [r3, #0x440]
  00490	e3130901	 tst         r3, #1, 18
  00494	0a000004	 beq         |$LN9@DeviceInit|
  00498	e59f02f4	 ldr         r0, [pc, #0x2F4]
  0049c	eb000000	 bl          NKDbgPrintfW
  004a0	e3a03001	 mov         r3, #1
  004a4	e58d3098	 str         r3, [sp, #0x98]
  004a8	ea000001	 b           |$LN10@DeviceInit|
  004ac		 |$LN9@DeviceInit|
  004ac	e3a03000	 mov         r3, #0
  004b0	e58d3098	 str         r3, [sp, #0x98]
  004b4		 |$LN10@DeviceInit|

; 148  :             ASSERT(FALSE);

  004b4	ea000002	 b           |$LN11@DeviceInit|
  004b8	e3a03001	 mov         r3, #1
  004bc	e58d309c	 str         r3, [sp, #0x9C]
  004c0	ea000007	 b           |$LN12@DeviceInit|
  004c4		 |$LN11@DeviceInit|
  004c4	e3a03094	 mov         r3, #0x94
  004c8	e59f22bc	 ldr         r2, [pc, #0x2BC]
  004cc	e59f12bc	 ldr         r1, [pc, #0x2BC]
  004d0	e59f02b0	 ldr         r0, [pc, #0x2B0]
  004d4	eb000000	 bl          NKDbgPrintfW
  004d8	e6000010	 __debugbreak_ce
  004dc	e3a03000	 mov         r3, #0
  004e0	e58d309c	 str         r3, [sp, #0x9C]
  004e4		 |$LN12@DeviceInit|

; 149  :             return FALSE;

  004e4	e59d007c	 ldr         r0, [sp, #0x7C]
  004e8	eb000000	 bl          __security_check_cookie
  004ec	e3a03000	 mov         r3, #0
  004f0	e58d3080	 str         r3, [sp, #0x80]
  004f4	ea00009b	 b           |$LN5@DeviceInit|
  004f8		 |$LN4@DeviceInit|

; 150  :         }
; 151  :     }
; 152  : 
; 153  :     // set up the root hub object
; 154  :     {
; 155  :         USB_DEVICE_INFO deviceInfo;
; 156  :         USB_HUB_DESCRIPTOR usbHubDescriptor;
; 157  : 
; 158  :         deviceInfo.dwCount = sizeof( USB_DEVICE_INFO );

  004f8	e3a03020	 mov         r3, #0x20
  004fc	e58d3010	 str         r3, [sp, #0x10]

; 159  :         deviceInfo.lpConfigs = NULL;

  00500	e3a03000	 mov         r3, #0
  00504	e58d3028	 str         r3, [sp, #0x28]

; 160  :         deviceInfo.lpActiveConfig = NULL;

  00508	e3a03000	 mov         r3, #0
  0050c	e58d302c	 str         r3, [sp, #0x2C]

; 161  :         deviceInfo.Descriptor.bLength = sizeof( USB_DEVICE_DESCRIPTOR );

  00510	e3a03012	 mov         r3, #0x12
  00514	e5cd3014	 strb        r3, [sp, #0x14]

; 162  :         deviceInfo.Descriptor.bDescriptorType = USB_DEVICE_DESCRIPTOR_TYPE;

  00518	e3a03001	 mov         r3, #1
  0051c	e5cd3015	 strb        r3, [sp, #0x15]

; 163  :         deviceInfo.Descriptor.bcdUSB = 0x200; // USB spec 200

  00520	e3a03c02	 mov         r3, #2, 24
  00524	e1cd31b6	 strh        r3, [sp, #0x16]

; 164  :         deviceInfo.Descriptor.bDeviceClass = USB_DEVICE_CLASS_HUB;

  00528	e3a03009	 mov         r3, #9
  0052c	e5cd3018	 strb        r3, [sp, #0x18]

; 165  :         deviceInfo.Descriptor.bDeviceSubClass = 0xff;

  00530	e3a030ff	 mov         r3, #0xFF
  00534	e5cd3019	 strb        r3, [sp, #0x19]

; 166  :         deviceInfo.Descriptor.bDeviceProtocol = 0xff;

  00538	e3a030ff	 mov         r3, #0xFF
  0053c	e5cd301a	 strb        r3, [sp, #0x1A]

; 167  :         deviceInfo.Descriptor.bMaxPacketSize0 = 0;

  00540	e3a03000	 mov         r3, #0
  00544	e5cd301b	 strb        r3, [sp, #0x1B]

; 168  :         deviceInfo.Descriptor.bNumConfigurations = 0;

  00548	e3a03000	 mov         r3, #0
  0054c	e5cd3025	 strb        r3, [sp, #0x25]

; 169  : 
; 170  :         usbHubDescriptor.bDescriptorType = USB_HUB_DESCRIPTOR_TYPE;

  00550	e3a03029	 mov         r3, #0x29
  00554	e5cd3031	 strb        r3, [sp, #0x31]

; 171  :         usbHubDescriptor.bDescriptorLength = USB_HUB_DESCRIPTOR_MINIMUM_SIZE;

  00558	e3a03009	 mov         r3, #9
  0055c	e5cd3030	 strb        r3, [sp, #0x30]

; 172  :         usbHubDescriptor.bNumberOfPorts = (BYTE)GetNumberOfPort();

  00560	e59d00d8	 ldr         r0, [sp, #0xD8]
  00564	eb000000	 bl          |?GetNumberOfPort@CHW@@QAAKXZ|
  00568	e58d00a0	 str         r0, [sp, #0xA0]
  0056c	e59d30a0	 ldr         r3, [sp, #0xA0]
  00570	e20330ff	 and         r3, r3, #0xFF
  00574	e5cd3032	 strb        r3, [sp, #0x32]

; 173  :         usbHubDescriptor.wHubCharacteristics = USB_HUB_CHARACTERISTIC_NO_POWER_SWITCHING |
; 174  :                                                USB_HUB_CHARACTERISTIC_NOT_PART_OF_COMPOUND_DEVICE |
; 175  :                                                USB_HUB_CHARACTERISTIC_NO_OVER_CURRENT_PROTECTION;

  00578	e3a03012	 mov         r3, #0x12
  0057c	e5cd3033	 strb        r3, [sp, #0x33]
  00580	e1a03423	 mov         r3, r3, lsr #8
  00584	e5cd3034	 strb        r3, [sp, #0x34]

; 176  :         usbHubDescriptor.bPowerOnToPowerGood = 0;

  00588	e3a03000	 mov         r3, #0
  0058c	e5cd3035	 strb        r3, [sp, #0x35]

; 177  :         usbHubDescriptor.bHubControlCurrent = 0;

  00590	e3a03000	 mov         r3, #0
  00594	e5cd3036	 strb        r3, [sp, #0x36]

; 178  :         DEBUGCHK( usbHubDescriptor.bNumberOfPorts <= 8 );

  00598	e5dd3032	 ldrb        r3, [sp, #0x32]
  0059c	e3530008	 cmp         r3, #8
  005a0	ca000002	 bgt         |$LN13@DeviceInit|
  005a4	e3a03001	 mov         r3, #1
  005a8	e58d30a4	 str         r3, [sp, #0xA4]
  005ac	ea000007	 b           |$LN14@DeviceInit|
  005b0		 |$LN13@DeviceInit|
  005b0	e3a030b2	 mov         r3, #0xB2
  005b4	e59f21d0	 ldr         r2, [pc, #0x1D0]
  005b8	e59f11bc	 ldr         r1, [pc, #0x1BC]
  005bc	e59f01c4	 ldr         r0, [pc, #0x1C4]
  005c0	eb000000	 bl          NKDbgPrintfW
  005c4	e6000010	 __debugbreak_ce
  005c8	e3a03000	 mov         r3, #0
  005cc	e58d30a4	 str         r3, [sp, #0xA4]
  005d0		 |$LN14@DeviceInit|

; 179  :         usbHubDescriptor.bRemoveAndPowerMask[0] = 0; // all devices on hub are removable

  005d0	e3a03000	 mov         r3, #0
  005d4	e5cd3037	 strb        r3, [sp, #0x37]

; 180  :         usbHubDescriptor.bRemoveAndPowerMask[1] = 0xFF; // must be 0xFF, USB spec 1.1, table 11-8

  005d8	e3a030ff	 mov         r3, #0xFF
  005dc	e5cd3038	 strb        r3, [sp, #0x38]

; 181  : 
; 182  :         // FALSE indicates root hub is not low speed
; 183  :         // (though, this is ignored for hubs anyway)
; 184  :         SetRootHub( new CRootHub( deviceInfo, FALSE,TRUE, usbHubDescriptor,this ));

  005e0	e3a000cc	 mov         r0, #0xCC
  005e4	eb000000	 bl          |??2@YAPAXI@Z|
  005e8	e58d00a8	 str         r0, [sp, #0xA8]
  005ec	e59d30a8	 ldr         r3, [sp, #0xA8]
  005f0	e58d3078	 str         r3, [sp, #0x78]
  005f4	e59d3078	 ldr         r3, [sp, #0x78]
  005f8	e3530000	 cmp         r3, #0
  005fc	0a00000c	 beq         |$LN15@DeviceInit|
  00600	e59d30d8	 ldr         r3, [sp, #0xD8]
  00604	e58d3004	 str         r3, [sp, #4]
  00608	e28d3030	 add         r3, sp, #0x30
  0060c	e58d3000	 str         r3, [sp]
  00610	e3a03001	 mov         r3, #1
  00614	e3a02000	 mov         r2, #0
  00618	e28d1010	 add         r1, sp, #0x10
  0061c	e59d0078	 ldr         r0, [sp, #0x78]
  00620	eb000000	 bl          |??0CRootHub@@QAA@ABU_USB_DEVICE_INFO@@HHABU_USB_HUB_DESCRIPTOR@@QAVCHcd@@@Z|
  00624	e58d00ac	 str         r0, [sp, #0xAC]
  00628	e59d30ac	 ldr         r3, [sp, #0xAC]
  0062c	e58d30b0	 str         r3, [sp, #0xB0]
  00630	ea000001	 b           |$LN16@DeviceInit|
  00634		 |$LN15@DeviceInit|
  00634	e3a03000	 mov         r3, #0
  00638	e58d30b0	 str         r3, [sp, #0xB0]
  0063c		 |$LN16@DeviceInit|
  0063c	e59d10b0	 ldr         r1, [sp, #0xB0]
  00640	e59d00d8	 ldr         r0, [sp, #0xD8]
  00644	eb000000	 bl          |?SetRootHub@CHcd@@QAAPAVCRootHub@@PAV2@@Z|

; 185  :     }
; 186  :     if ( !GetRootHub() ) {

  00648	e59d00d8	 ldr         r0, [sp, #0xD8]
  0064c	eb000000	 bl          |?GetRootHub@CHcd@@QAAPAVCRootHub@@XZ|
  00650	e58d00b4	 str         r0, [sp, #0xB4]
  00654	e59d30b4	 ldr         r3, [sp, #0xB4]
  00658	e3530000	 cmp         r3, #0
  0065c	1a00000f	 bne         |$LN2@DeviceInit|

; 187  :         DEBUGMSG( ZONE_ERROR, (TEXT("-CMhcd::Initialize - unable to create root hub object\n")) );

  00660	e59f3114	 ldr         r3, [pc, #0x114]
  00664	e5933440	 ldr         r3, [r3, #0x440]
  00668	e3130901	 tst         r3, #1, 18
  0066c	0a000004	 beq         |$LN17@DeviceInit|
  00670	e59f010c	 ldr         r0, [pc, #0x10C]
  00674	eb000000	 bl          NKDbgPrintfW
  00678	e3a03001	 mov         r3, #1
  0067c	e58d30b8	 str         r3, [sp, #0xB8]
  00680	ea000001	 b           |$LN18@DeviceInit|
  00684		 |$LN17@DeviceInit|
  00684	e3a03000	 mov         r3, #0
  00688	e58d30b8	 str         r3, [sp, #0xB8]
  0068c		 |$LN18@DeviceInit|

; 188  :         return FALSE;

  0068c	e59d007c	 ldr         r0, [sp, #0x7C]
  00690	eb000000	 bl          __security_check_cookie
  00694	e3a03000	 mov         r3, #0
  00698	e58d3080	 str         r3, [sp, #0x80]
  0069c	ea000031	 b           |$LN5@DeviceInit|
  006a0		 |$LN2@DeviceInit|

; 189  :     }
; 190  : 
; 191  :     // Signal root hub to start processing port changes
; 192  :     // The root hub doesn't have any pipes, so we pass NULL as the
; 193  :     // endpoint0 pipe
; 194  :     if ( !GetRootHub()->EnterOperationalState( NULL ) ) {

  006a0	e59d00d8	 ldr         r0, [sp, #0xD8]
  006a4	eb000000	 bl          |?GetRootHub@CHcd@@QAAPAVCRootHub@@XZ|
  006a8	e58d00bc	 str         r0, [sp, #0xBC]
  006ac	e59d30bc	 ldr         r3, [sp, #0xBC]
  006b0	e58d30c0	 str         r3, [sp, #0xC0]
  006b4	e3a01000	 mov         r1, #0
  006b8	e59d00c0	 ldr         r0, [sp, #0xC0]
  006bc	e59d30c0	 ldr         r3, [sp, #0xC0]
  006c0	e5933000	 ldr         r3, [r3]
  006c4	e2833004	 add         r3, r3, #4
  006c8	e5933000	 ldr         r3, [r3]
  006cc	e1a0e00f	 mov         lr, pc
  006d0	e12fff13	 bx          r3
  006d4	e58d00c4	 str         r0, [sp, #0xC4]
  006d8	e59d30c4	 ldr         r3, [sp, #0xC4]
  006dc	e3530000	 cmp         r3, #0
  006e0	1a00000f	 bne         |$LN1@DeviceInit|

; 195  :         DEBUGMSG(ZONE_ERROR, (TEXT("-CEhcd::Initialize. Error initializing root hub\n")));

  006e4	e59f3090	 ldr         r3, [pc, #0x90]
  006e8	e5933440	 ldr         r3, [r3, #0x440]
  006ec	e3130901	 tst         r3, #1, 18
  006f0	0a000004	 beq         |$LN19@DeviceInit|
  006f4	e59f0084	 ldr         r0, [pc, #0x84]
  006f8	eb000000	 bl          NKDbgPrintfW
  006fc	e3a03001	 mov         r3, #1
  00700	e58d30c8	 str         r3, [sp, #0xC8]
  00704	ea000001	 b           |$LN20@DeviceInit|
  00708		 |$LN19@DeviceInit|
  00708	e3a03000	 mov         r3, #0
  0070c	e58d30c8	 str         r3, [sp, #0xC8]
  00710		 |$LN20@DeviceInit|

; 196  :         return FALSE;

  00710	e59d007c	 ldr         r0, [sp, #0x7C]
  00714	eb000000	 bl          __security_check_cookie
  00718	e3a03000	 mov         r3, #0
  0071c	e58d3080	 str         r3, [sp, #0x80]
  00720	ea000010	 b           |$LN5@DeviceInit|
  00724		 |$LN1@DeviceInit|

; 197  :     }
; 198  :     // Start processing frames
; 199  :     CHW::EnterOperationalState();

  00724	e59d00d8	 ldr         r0, [sp, #0xD8]
  00728	eb000000	 bl          |?EnterOperationalState@CHW@@QAAXXZ|

; 200  : 
; 201  :     DEBUGMSG(ZONE_INIT,(TEXT("-CMhcd::Initialize. Success!!\r\n")));    

  0072c	e59f3048	 ldr         r3, [pc, #0x48]
  00730	e5933440	 ldr         r3, [r3, #0x440]
  00734	e3130002	 tst         r3, #2
  00738	0a000004	 beq         |$LN21@DeviceInit|
  0073c	e59f0034	 ldr         r0, [pc, #0x34]
  00740	eb000000	 bl          NKDbgPrintfW
  00744	e3a03001	 mov         r3, #1
  00748	e58d30cc	 str         r3, [sp, #0xCC]
  0074c	ea000001	 b           |$LN22@DeviceInit|
  00750		 |$LN21@DeviceInit|
  00750	e3a03000	 mov         r3, #0
  00754	e58d30cc	 str         r3, [sp, #0xCC]
  00758		 |$LN22@DeviceInit|

; 202  :     return TRUE;

  00758	e59d007c	 ldr         r0, [sp, #0x7C]
  0075c	eb000000	 bl          __security_check_cookie
  00760	e3a03001	 mov         r3, #1
  00764	e58d3080	 str         r3, [sp, #0x80]
  00768		 |$LN5@DeviceInit|

; 203  : }

  00768	e59d0080	 ldr         r0, [sp, #0x80]
  0076c	e28dd0d0	 add         sp, sp, #0xD0
  00770	e89d6000	 ldmia       sp, {sp, lr}
  00774	e12fff1e	 bx          lr
  00778		 |$LN26@DeviceInit|
  00778		 |$LN27@DeviceInit|
  00778	00000000	 DCD         |??_C@_1EA@LJHOICNN@?$AA?9?$AAC?$AAM?$AAh?$AAc?$AAd?$AA?3?$AA?3?$AAI?$AAn?$AAi?$AAt?$AAi?$AAa?$AAl?$AAi?$AAz?$AAe?$AA?4?$AA?5?$AAS?$AAu?$AAc?$AAc?$AAe?$AAs?$AAs?$AA?$CB?$AA?$CB?$AA?$AN?$AA?6?$AA?$AA@|
  0077c		 |$LN28@DeviceInit|
  0077c	00000000	 DCD         |dpCurSettings|
  00780		 |$LN29@DeviceInit|
  00780	00000000	 DCD         |??_C@_1GC@CLFDOADC@?$AA?9?$AAC?$AAE?$AAh?$AAc?$AAd?$AA?3?$AA?3?$AAI?$AAn?$AAi?$AAt?$AAi?$AAa?$AAl?$AAi?$AAz?$AAe?$AA?4?$AA?5?$AAE?$AAr?$AAr?$AAo?$AAr?$AA?5?$AAi?$AAn?$AAi?$AAt?$AAi?$AAa@|
  00784		 |$LN30@DeviceInit|
  00784	00000000	 DCD         |??_C@_1GO@GBFMIMON@?$AA?9?$AAC?$AAM?$AAh?$AAc?$AAd?$AA?3?$AA?3?$AAI?$AAn?$AAi?$AAt?$AAi?$AAa?$AAl?$AAi?$AAz?$AAe?$AA?5?$AA?9?$AA?5?$AAu?$AAn?$AAa?$AAb?$AAl?$AAe?$AA?5?$AAt?$AAo?$AA?5?$AAc@|
  00788		 |$LN31@DeviceInit|
  00788	00000000	 DCD         |??_C@_1FK@FNONLNGN@?$AA?$CF?$AAs?$AA?3?$AA?5?$AAD?$AAE?$AAB?$AAU?$AAG?$AAC?$AAH?$AAK?$AA?5?$AAf?$AAa?$AAi?$AAl?$AAe?$AAd?$AA?5?$AAi?$AAn?$AA?5?$AAf?$AAi?$AAl?$AAe?$AA?5?$AA?$CF?$AAs?$AA?5?$AAa@|
  0078c		 |$LN32@DeviceInit|
  0078c	00000000	 DCD         |??_C@_1LK@EOOFLNBK@?$AAC?$AA?3?$AA?2?$AAW?$AAI?$AAN?$AAC?$AAE?$AA6?$AA0?$AA0?$AA?2?$AAP?$AAL?$AAA?$AAT?$AAF?$AAO?$AAR?$AAM?$AA?2?$AAC?$AAO?$AAM?$AAM?$AAO?$AAN?$AA?2?$AAS?$AAR?$AAC?$AA?2@|
  00790		 |$LN33@DeviceInit|
  00790	00000000	 DCD         |??_C@_1BA@LEPJIIOK@?$AAU?$AAn?$AAk?$AAn?$AAo?$AAw?$AAn?$AA?$AA@|
  00794		 |$LN34@DeviceInit|
  00794	00000000	 DCD         |??_C@_1JC@CPGBLJL@?$AA?9?$AAC?$AAE?$AAh?$AAc?$AAd?$AA?3?$AA?3?$AAI?$AAn?$AAi?$AAt?$AAi?$AAa?$AAl?$AAi?$AAz?$AAe?$AA?4?$AA?5?$AAE?$AAr?$AAr?$AAo?$AAr?$AA?5?$AA?9?$AA?5?$AAc?$AAo?$AAu?$AAl@|
  00798		 |$LN35@DeviceInit|
  00798	00000000	 DCD         |??_C@_1DI@IAIONEJK@?$AA?$CL?$AAC?$AAE?$AAh?$AAc?$AAd?$AA?3?$AA?3?$AAI?$AAn?$AAi?$AAt?$AAi?$AAa?$AAl?$AAi?$AAz?$AAe?$AA?4?$AA?5?$AAE?$AAn?$AAt?$AAr?$AAy?$AA?$AN?$AA?6?$AA?$AA@|
  0079c		 |$LN36@DeviceInit|
  0079c	00000000	 DCD         |__security_cookie|
  007a0		 |$M36867|

			 ENDP  ; |?DeviceInitialize@CMhcd@@UAAHXZ|, CMhcd::DeviceInitialize

; File c:\wince600\platform\common\src\soc\common_ti_v1\omap3530\musb\musbhcd\usb2com\hcd.hpp

  00000			 AREA	 |.pdata|, PDATA
|$T36886| DCD	|$LN5@GetRootHub|
	DCD	0x40000c04
; Function compile flags: /Odtp

  00000			 AREA	 |.text|, CODE, ARM

  00000		 |?GetRootHub@CHcd@@QAAPAVCRootHub@@XZ| PROC ; CHcd::GetRootHub

; 100  :     CRootHub* GetRootHub() { return m_pCRootHub;};

  00000		 |$LN5@GetRootHub|
  00000	e1a0c00d	 mov         r12, sp
  00004	e92d0001	 stmdb       sp!, {r0}
  00008	e92d5000	 stmdb       sp!, {r12, lr}
  0000c	e24dd004	 sub         sp, sp, #4
  00010		 |$M36883|
  00010	e59d300c	 ldr         r3, [sp, #0xC]
  00014	e28330b0	 add         r3, r3, #0xB0
  00018	e5933000	 ldr         r3, [r3]
  0001c	e58d3000	 str         r3, [sp]
  00020	e59d0000	 ldr         r0, [sp]
  00024	e28dd004	 add         sp, sp, #4
  00028	e89d6000	 ldmia       sp, {sp, lr}
  0002c	e12fff1e	 bx          lr
  00030		 |$M36884|

			 ENDP  ; |?GetRootHub@CHcd@@QAAPAVCRootHub@@XZ|, CHcd::GetRootHub

; File c:\wince600\platform\common\src\soc\common_ti_v1\omap3530\musb\musbhcd\musbmhdrc\chw.h

  00000			 AREA	 |.pdata|, PDATA
|$T36894| DCD	|$LN5@GetNumberO|
	DCD	0x40000c04
; Function compile flags: /Odtp

  00000			 AREA	 |.text|, CODE, ARM

  00000		 |?GetNumberOfPort@CHW@@QAAKXZ| PROC	; CHW::GetNumberOfPort

; 382  :     DWORD GetNumberOfPort() { return m_NumOfPort; };

  00000		 |$LN5@GetNumberO|
  00000	e1a0c00d	 mov         r12, sp
  00004	e92d0001	 stmdb       sp!, {r0}
  00008	e92d5000	 stmdb       sp!, {r12, lr}
  0000c	e24dd004	 sub         sp, sp, #4
  00010		 |$M36891|
  00010	e59d300c	 ldr         r3, [sp, #0xC]
  00014	e28330c0	 add         r3, r3, #0xC0
  00018	e5933000	 ldr         r3, [r3]
  0001c	e58d3000	 str         r3, [sp]
  00020	e59d0000	 ldr         r0, [sp]
  00024	e28dd004	 add         sp, sp, #4
  00028	e89d6000	 ldmia       sp, {sp, lr}
  0002c	e12fff1e	 bx          lr
  00030		 |$M36892|

			 ENDP  ; |?GetNumberOfPort@CHW@@QAAKXZ|, CHW::GetNumberOfPort

	IMPORT	|?SignalHubChangeEvent@CHW@@UAAHH@Z|	; CHW::SignalHubChangeEvent

  00020			 AREA	 |.pdata|, PDATA
|$T36902| DCD	|$LN5@SignalHubC|
	DCD	0x40000e04
; Function compile flags: /Odtp
; File c:\wince600\platform\common\src\soc\common_ti_v1\omap3530\musb\musbhcd\musbmhdrc\cmhcd.cpp

  007a0			 AREA	 |.text|, CODE, ARM

  007a0		 |?SignalHubChangeEvent@CMhcd@@UAAHH@Z| PROC ; CMhcd::SignalHubChangeEvent

; 205  : {    

  007a0		 |$LN5@SignalHubC|
  007a0	e1a0c00d	 mov         r12, sp
  007a4	e92d0003	 stmdb       sp!, {r0, r1}
  007a8	e92d5000	 stmdb       sp!, {r12, lr}
  007ac	e24dd008	 sub         sp, sp, #8
  007b0		 |$M36899|

; 206  :     return CHW::SignalHubChangeEvent(fConnect); 

  007b0	e59d1014	 ldr         r1, [sp, #0x14]
  007b4	e59d0010	 ldr         r0, [sp, #0x10]
  007b8	eb000000	 bl          |?SignalHubChangeEvent@CHW@@UAAHH@Z|
  007bc	e58d0004	 str         r0, [sp, #4]
  007c0	e59d3004	 ldr         r3, [sp, #4]
  007c4	e58d3000	 str         r3, [sp]

; 207  : }

  007c8	e59d0000	 ldr         r0, [sp]
  007cc	e28dd008	 add         sp, sp, #8
  007d0	e89d6000	 ldmia       sp, {sp, lr}
  007d4	e12fff1e	 bx          lr
  007d8		 |$M36900|

			 ENDP  ; |?SignalHubChangeEvent@CMhcd@@UAAHH@Z|, CMhcd::SignalHubChangeEvent

	EXPORT	|?CreateHCDObject@@YAPAVCHcd@@PAXPAVCPhysMem@@PBGRAEK@Z| ; CreateHCDObject

  00028			 AREA	 |.pdata|, PDATA
|$T36913| DCD	|$LN7@CreateHCDO|
	DCD	0x40002104
; Function compile flags: /Odtp

  007d8			 AREA	 |.text|, CODE, ARM

  007d8		 |?CreateHCDObject@@YAPAVCHcd@@PAXPAVCPhysMem@@PBGRAEK@Z| PROC ; CreateHCDObject

; 214  : {    

  007d8		 |$LN7@CreateHCDO|
  007d8	e1a0c00d	 mov         r12, sp
  007dc	e92d000f	 stmdb       sp!, {r0 - r3}
  007e0	e92d5000	 stmdb       sp!, {r12, lr}
  007e4	e24dd024	 sub         sp, sp, #0x24
  007e8		 |$M36910|

; 215  :     return new CMhcd (pvUhcdPddObject, pCPhysMem,szDriverRegistryKey,portBase,dwSysIntr);

  007e8	e3a00e6e	 mov         r0, #0x6E, 28
  007ec	eb000000	 bl          |??2@YAPAXI@Z|
  007f0	e58d0018	 str         r0, [sp, #0x18]
  007f4	e59d3018	 ldr         r3, [sp, #0x18]
  007f8	e58d3008	 str         r3, [sp, #8]
  007fc	e59d3008	 ldr         r3, [sp, #8]
  00800	e3530000	 cmp         r3, #0
  00804	0a00000c	 beq         |$LN3@CreateHCDO|
  00808	e59d303c	 ldr         r3, [sp, #0x3C]
  0080c	e58d3004	 str         r3, [sp, #4]
  00810	e59d3038	 ldr         r3, [sp, #0x38]
  00814	e58d3000	 str         r3, [sp]
  00818	e59d3034	 ldr         r3, [sp, #0x34]
  0081c	e59d2030	 ldr         r2, [sp, #0x30]
  00820	e59d102c	 ldr         r1, [sp, #0x2C]
  00824	e59d0008	 ldr         r0, [sp, #8]
  00828	eb000000	 bl          |??0CMhcd@@QAA@PAXPAVCPhysMem@@PBGRAEK@Z|
  0082c	e58d001c	 str         r0, [sp, #0x1C]
  00830	e59d301c	 ldr         r3, [sp, #0x1C]
  00834	e58d3020	 str         r3, [sp, #0x20]
  00838	ea000001	 b           |$LN4@CreateHCDO|
  0083c		 |$LN3@CreateHCDO|
  0083c	e3a03000	 mov         r3, #0
  00840	e58d3020	 str         r3, [sp, #0x20]
  00844		 |$LN4@CreateHCDO|
  00844	e59d3020	 ldr         r3, [sp, #0x20]
  00848	e58d3014	 str         r3, [sp, #0x14]

; 216  : }

  0084c	e59d0014	 ldr         r0, [sp, #0x14]
  00850	e28dd024	 add         sp, sp, #0x24
  00854	e89d6000	 ldmia       sp, {sp, lr}
  00858	e12fff1e	 bx          lr
  0085c		 |$M36911|

			 ENDP  ; |?CreateHCDObject@@YAPAVCHcd@@PAXPAVCPhysMem@@PBGRAEK@Z|, CreateHCDObject

	END
