; Listing generated by Microsoft (R) Optimizing Compiler Version 14.01.60511.01 

	TTL	C:\WINCE600\PLATFORM\COMMON\SRC\SOC\COMMON_TI_V1\OMAP3530\MUSB\MUSBHCD\MUSBMHDRC\cpipe.cpp
	CODE32

  00000			 AREA	 |.drectve|, DRECTVE
	DCB	"-defaultlib:LIBCMT "
	DCB	"-defaultlib:OLDNAMES "

	EXPORT	|??_C@_1DK@JPBDFEOB@?$AAD?$AAE?$AAV?$AAI?$AAC?$AAE?$AA_?$AAC?$AAO?$AAN?$AAF?$AAI?$AAG?$AA_?$AAS?$AAT?$AAA?$AAT?$AAU?$AAS?$AA_?$AAI?$AAN?$AAV?$AAA?$AAL?$AAI?$AAD?$AA?$AA@| [ DATA ] ; `string'
	EXPORT	|??_C@_1DE@IMCKALLA@?$AAD?$AAE?$AAV?$AAI?$AAC?$AAE?$AA_?$AAC?$AAO?$AAN?$AAF?$AAI?$AAG?$AA_?$AAS?$AAT?$AAA?$AAT?$AAU?$AAS?$AA_?$AAD?$AAO?$AAN?$AAE?$AA?$AA@| [ DATA ] ; `string'
	EXPORT	|??_C@_1DI@CEGNOBAM@?$AAD?$AAE?$AAV?$AAI?$AAC?$AAE?$AA_?$AAC?$AAO?$AAN?$AAF?$AAI?$AAG?$AA_?$AAS?$AAT?$AAA?$AAT?$AAU?$AAS?$AA_?$AAF?$AAA?$AAI?$AAL?$AAE?$AAD?$AA?$AA@| [ DATA ] ; `string'
	EXPORT	|??_C@_1HO@PGHDEMEK@?$AAD?$AAE?$AAV?$AAI?$AAC?$AAE?$AA_?$AAC?$AAO?$AAN?$AAF?$AAI?$AAG?$AA_?$AAS?$AAT?$AAA?$AAT?$AAU?$AAS?$AA_?$AAS?$AAI?$AAG?$AAN?$AAA?$AAL?$AA_?$AAN?$AAE?$AAW?$AA_@| [ DATA ] ; `string'
	EXPORT	|??_C@_1II@FBBOBKGN@?$AAD?$AAE?$AAV?$AAI?$AAC?$AAE?$AA_?$AAC?$AAO?$AAN?$AAF?$AAI?$AAG?$AA_?$AAS?$AAT?$AAA?$AAT?$AAU?$AAS?$AA_?$AAI?$AAN?$AAS?$AAE?$AAR?$AAT?$AA_?$AAN?$AAE?$AAW?$AA_@| [ DATA ] ; `string'
	EXPORT	|??_C@_1FC@LCLFDJDO@?$AAD?$AAE?$AAV?$AAI?$AAC?$AAE?$AA_?$AAC?$AAO?$AAN?$AAF?$AAI?$AAG?$AA_?$AAS?$AAT?$AAA?$AAT?$AAU?$AAS?$AA_?$AAC?$AAR?$AAE?$AAA?$AAT?$AAE?$AA_?$AAN?$AAE?$AAW?$AA_@| [ DATA ] ; `string'
	EXPORT	|??_C@_1EI@COKEBMOE@?$AAD?$AAE?$AAV?$AAI?$AAC?$AAE?$AA_?$AAC?$AAO?$AAN?$AAF?$AAI?$AAG?$AA_?$AAS?$AAT?$AAA?$AAT?$AAU?$AAS?$AA_?$AAC?$AAR?$AAE?$AAA?$AAT?$AAE?$AA_?$AAN?$AAE?$AAW?$AA_@| [ DATA ] ; `string'
	EXPORT	|??_C@_1GG@HPGGGHKI@?$AAD?$AAE?$AAV?$AAI?$AAC?$AAE?$AA_?$AAC?$AAO?$AAN?$AAF?$AAI?$AAG?$AA_?$AAS?$AAT?$AAA?$AAT?$AAU?$AAS?$AA_?$AAS?$AAC?$AAH?$AAE?$AAD?$AAU?$AAL?$AAI?$AAN?$AAG?$AA_@| [ DATA ] ; `string'
	EXPORT	|??_C@_1HG@KPBCOGEF@?$AAD?$AAE?$AAV?$AAI?$AAC?$AAE?$AA_?$AAC?$AAO?$AAN?$AAF?$AAI?$AAG?$AA_?$AAS?$AAT?$AAA?$AAT?$AAU?$AAS?$AA_?$AAS?$AAC?$AAH?$AAE?$AAD?$AAU?$AAL?$AAI?$AAN?$AAG?$AA_@| [ DATA ] ; `string'
	EXPORT	|??_C@_1FG@CFFAAPDL@?$AAD?$AAE?$AAV?$AAI?$AAC?$AAE?$AA_?$AAC?$AAO?$AAN?$AAF?$AAI?$AAG?$AA_?$AAS?$AAT?$AAA?$AAT?$AAU?$AAS?$AA_?$AAS?$AAC?$AAH?$AAE?$AAD?$AAU?$AAL?$AAI?$AAN?$AAG?$AA_@| [ DATA ] ; `string'
	EXPORT	|??_C@_1GA@NDHJOKMM@?$AAD?$AAE?$AAV?$AAI?$AAC?$AAE?$AA_?$AAC?$AAO?$AAN?$AAF?$AAI?$AAG?$AA_?$AAS?$AAT?$AAA?$AAT?$AAU?$AAS?$AA_?$AAD?$AAE?$AAT?$AAE?$AAR?$AAM?$AAI?$AAN?$AAE?$AA_?$AAC@| [ DATA ] ; `string'
	EXPORT	|??_C@_1GM@JADKDKDC@?$AAD?$AAE?$AAV?$AAI?$AAC?$AAE?$AA_?$AAC?$AAO?$AAN?$AAF?$AAI?$AAG?$AA_?$AAS?$AAT?$AAA?$AAT?$AAU?$AAS?$AA_?$AAS?$AAC?$AAH?$AAE?$AAD?$AAU?$AAL?$AAI?$AAN?$AAG?$AA_@| [ DATA ] ; `string'
	EXPORT	|??_C@_1HM@NPLCKJLH@?$AAD?$AAE?$AAV?$AAI?$AAC?$AAE?$AA_?$AAC?$AAO?$AAN?$AAF?$AAI?$AAG?$AA_?$AAS?$AAT?$AAA?$AAT?$AAU?$AAS?$AA_?$AAS?$AAC?$AAH?$AAE?$AAD?$AAU?$AAL?$AAI?$AAN?$AAG?$AA_@| [ DATA ] ; `string'
	EXPORT	|??_C@_1HE@MEMGEMJJ@?$AAD?$AAE?$AAV?$AAI?$AAC?$AAE?$AA_?$AAC?$AAO?$AAN?$AAF?$AAI?$AAG?$AA_?$AAS?$AAT?$AAA?$AAT?$AAU?$AAS?$AA_?$AAS?$AAE?$AAT?$AAU?$AAP?$AA_?$AAC?$AAO?$AAN?$AAF?$AAI@| [ DATA ] ; `string'
	EXPORT	|??_C@_1GM@BCHKIAPP@?$AAD?$AAE?$AAV?$AAI?$AAC?$AAE?$AA_?$AAC?$AAO?$AAN?$AAF?$AAI?$AAG?$AA_?$AAS?$AAT?$AAA?$AAT?$AAU?$AAS?$AA_?$AAS?$AAC?$AAH?$AAE?$AAD?$AAU?$AAL?$AAI?$AAN?$AAG?$AA_@| [ DATA ] ; `string'
	EXPORT	|??_C@_1HM@FNPCBDHK@?$AAD?$AAE?$AAV?$AAI?$AAC?$AAE?$AA_?$AAC?$AAO?$AAN?$AAF?$AAI?$AAG?$AA_?$AAS?$AAT?$AAA?$AAT?$AAU?$AAS?$AA_?$AAS?$AAC?$AAH?$AAE?$AAD?$AAU?$AAL?$AAI?$AAN?$AAG?$AA_@| [ DATA ] ; `string'
	EXPORT	|??_C@_1EI@BBOOKHNN@?$AAD?$AAE?$AAV?$AAI?$AAC?$AAE?$AA_?$AAC?$AAO?$AAN?$AAF?$AAI?$AAG?$AA_?$AAS?$AAT?$AAA?$AAT?$AAU?$AAS?$AA_?$AAL?$AAE?$AAA?$AAV?$AAE?$AA_?$AAA?$AAD?$AAD?$AAR?$AAE@| [ DATA ] ; `string'
	EXPORT	|??_C@_1FI@LGLHPFAK@?$AAD?$AAE?$AAV?$AAI?$AAC?$AAE?$AA_?$AAC?$AAO?$AAN?$AAF?$AAI?$AAG?$AA_?$AAS?$AAT?$AAA?$AAT?$AAU?$AAS?$AA_?$AAS?$AAC?$AAH?$AAE?$AAD?$AAU?$AAL?$AAI?$AAN?$AAG?$AA_@| [ DATA ] ; `string'
	EXPORT	|??_C@_1HG@BLNLBKIO@?$AAD?$AAE?$AAV?$AAI?$AAC?$AAE?$AA_?$AAC?$AAO?$AAN?$AAF?$AAI?$AAG?$AA_?$AAS?$AAT?$AAA?$AAT?$AAU?$AAS?$AA_?$AAS?$AAC?$AAH?$AAE?$AAD?$AAU?$AAL?$AAI?$AAN?$AAG?$AA_@| [ DATA ] ; `string'
	EXPORT	|??_C@_1FG@NMCKCJLL@?$AAD?$AAE?$AAV?$AAI?$AAC?$AAE?$AA_?$AAC?$AAO?$AAN?$AAF?$AAI?$AAG?$AA_?$AAS?$AAT?$AAA?$AAT?$AAU?$AAS?$AA_?$AAR?$AAE?$AAS?$AAE?$AAT?$AA_?$AAA?$AAN?$AAD?$AA_?$AAE@| [ DATA ] ; `string'
	EXPORT	|??_C@_1EI@KNOIBOPH@?$AAD?$AAE?$AAV?$AAI?$AAC?$AAE?$AA_?$AAC?$AAO?$AAN?$AAF?$AAI?$AAG?$AA_?$AAS?$AAT?$AAA?$AAT?$AAU?$AAS?$AA_?$AAU?$AAS?$AAI?$AAN?$AAG?$AA_?$AAA?$AAD?$AAD?$AAR?$AAE@| [ DATA ] ; `string'
	EXPORT	|??_C@_1FI@COMJHLEF@?$AAD?$AAE?$AAV?$AAI?$AAC?$AAE?$AA_?$AAC?$AAO?$AAN?$AAF?$AAI?$AAG?$AA_?$AAS?$AAT?$AAA?$AAT?$AAU?$AAS?$AA_?$AAO?$AAP?$AAE?$AAN?$AAI?$AAN?$AAG?$AA_?$AAE?$AAN?$AAD@| [ DATA ] ; `string'

  00000			 AREA	 |.data|, DATA
|cszCfgStateStrings| DCD |??_C@_1FI@COMJHLEF@?$AAD?$AAE?$AAV?$AAI?$AAC?$AAE?$AA_?$AAC?$AAO?$AAN?$AAF?$AAI?$AAG?$AA_?$AAS?$AAT?$AAA?$AAT?$AAU?$AAS?$AA_?$AAO?$AAP?$AAE?$AAN?$AAI?$AAN?$AAG?$AA_?$AAE?$AAN?$AAD@|
	DCD	|??_C@_1EI@KNOIBOPH@?$AAD?$AAE?$AAV?$AAI?$AAC?$AAE?$AA_?$AAC?$AAO?$AAN?$AAF?$AAI?$AAG?$AA_?$AAS?$AAT?$AAA?$AAT?$AAU?$AAS?$AA_?$AAU?$AAS?$AAI?$AAN?$AAG?$AA_?$AAA?$AAD?$AAD?$AAR?$AAE@|
	DCD	|??_C@_1FG@NMCKCJLL@?$AAD?$AAE?$AAV?$AAI?$AAC?$AAE?$AA_?$AAC?$AAO?$AAN?$AAF?$AAI?$AAG?$AA_?$AAS?$AAT?$AAA?$AAT?$AAU?$AAS?$AA_?$AAR?$AAE?$AAS?$AAE?$AAT?$AA_?$AAA?$AAN?$AAD?$AA_?$AAE@|
	DCD	|??_C@_1HG@BLNLBKIO@?$AAD?$AAE?$AAV?$AAI?$AAC?$AAE?$AA_?$AAC?$AAO?$AAN?$AAF?$AAI?$AAG?$AA_?$AAS?$AAT?$AAA?$AAT?$AAU?$AAS?$AA_?$AAS?$AAC?$AAH?$AAE?$AAD?$AAU?$AAL?$AAI?$AAN?$AAG?$AA_@|
	DCD	|??_C@_1FI@LGLHPFAK@?$AAD?$AAE?$AAV?$AAI?$AAC?$AAE?$AA_?$AAC?$AAO?$AAN?$AAF?$AAI?$AAG?$AA_?$AAS?$AAT?$AAA?$AAT?$AAU?$AAS?$AA_?$AAS?$AAC?$AAH?$AAE?$AAD?$AAU?$AAL?$AAI?$AAN?$AAG?$AA_@|
	DCD	|??_C@_1EI@BBOOKHNN@?$AAD?$AAE?$AAV?$AAI?$AAC?$AAE?$AA_?$AAC?$AAO?$AAN?$AAF?$AAI?$AAG?$AA_?$AAS?$AAT?$AAA?$AAT?$AAU?$AAS?$AA_?$AAL?$AAE?$AAA?$AAV?$AAE?$AA_?$AAA?$AAD?$AAD?$AAR?$AAE@|
	DCD	|??_C@_1HM@FNPCBDHK@?$AAD?$AAE?$AAV?$AAI?$AAC?$AAE?$AA_?$AAC?$AAO?$AAN?$AAF?$AAI?$AAG?$AA_?$AAS?$AAT?$AAA?$AAT?$AAU?$AAS?$AA_?$AAS?$AAC?$AAH?$AAE?$AAD?$AAU?$AAL?$AAI?$AAN?$AAG?$AA_@|
	DCD	|??_C@_1GM@BCHKIAPP@?$AAD?$AAE?$AAV?$AAI?$AAC?$AAE?$AA_?$AAC?$AAO?$AAN?$AAF?$AAI?$AAG?$AA_?$AAS?$AAT?$AAA?$AAT?$AAU?$AAS?$AA_?$AAS?$AAC?$AAH?$AAE?$AAD?$AAU?$AAL?$AAI?$AAN?$AAG?$AA_@|
	DCD	|??_C@_1HE@MEMGEMJJ@?$AAD?$AAE?$AAV?$AAI?$AAC?$AAE?$AA_?$AAC?$AAO?$AAN?$AAF?$AAI?$AAG?$AA_?$AAS?$AAT?$AAA?$AAT?$AAU?$AAS?$AA_?$AAS?$AAE?$AAT?$AAU?$AAP?$AA_?$AAC?$AAO?$AAN?$AAF?$AAI@|
	DCD	|??_C@_1HM@NPLCKJLH@?$AAD?$AAE?$AAV?$AAI?$AAC?$AAE?$AA_?$AAC?$AAO?$AAN?$AAF?$AAI?$AAG?$AA_?$AAS?$AAT?$AAA?$AAT?$AAU?$AAS?$AA_?$AAS?$AAC?$AAH?$AAE?$AAD?$AAU?$AAL?$AAI?$AAN?$AAG?$AA_@|
	DCD	|??_C@_1GM@JADKDKDC@?$AAD?$AAE?$AAV?$AAI?$AAC?$AAE?$AA_?$AAC?$AAO?$AAN?$AAF?$AAI?$AAG?$AA_?$AAS?$AAT?$AAA?$AAT?$AAU?$AAS?$AA_?$AAS?$AAC?$AAH?$AAE?$AAD?$AAU?$AAL?$AAI?$AAN?$AAG?$AA_@|
	DCD	|??_C@_1GA@NDHJOKMM@?$AAD?$AAE?$AAV?$AAI?$AAC?$AAE?$AA_?$AAC?$AAO?$AAN?$AAF?$AAI?$AAG?$AA_?$AAS?$AAT?$AAA?$AAT?$AAU?$AAS?$AA_?$AAD?$AAE?$AAT?$AAE?$AAR?$AAM?$AAI?$AAN?$AAE?$AA_?$AAC@|
	DCD	|??_C@_1FG@CFFAAPDL@?$AAD?$AAE?$AAV?$AAI?$AAC?$AAE?$AA_?$AAC?$AAO?$AAN?$AAF?$AAI?$AAG?$AA_?$AAS?$AAT?$AAA?$AAT?$AAU?$AAS?$AA_?$AAS?$AAC?$AAH?$AAE?$AAD?$AAU?$AAL?$AAI?$AAN?$AAG?$AA_@|
	DCD	|??_C@_1HG@KPBCOGEF@?$AAD?$AAE?$AAV?$AAI?$AAC?$AAE?$AA_?$AAC?$AAO?$AAN?$AAF?$AAI?$AAG?$AA_?$AAS?$AAT?$AAA?$AAT?$AAU?$AAS?$AA_?$AAS?$AAC?$AAH?$AAE?$AAD?$AAU?$AAL?$AAI?$AAN?$AAG?$AA_@|
	DCD	|??_C@_1GG@HPGGGHKI@?$AAD?$AAE?$AAV?$AAI?$AAC?$AAE?$AA_?$AAC?$AAO?$AAN?$AAF?$AAI?$AAG?$AA_?$AAS?$AAT?$AAA?$AAT?$AAU?$AAS?$AA_?$AAS?$AAC?$AAH?$AAE?$AAD?$AAU?$AAL?$AAI?$AAN?$AAG?$AA_@|
	DCD	|??_C@_1EI@COKEBMOE@?$AAD?$AAE?$AAV?$AAI?$AAC?$AAE?$AA_?$AAC?$AAO?$AAN?$AAF?$AAI?$AAG?$AA_?$AAS?$AAT?$AAA?$AAT?$AAU?$AAS?$AA_?$AAC?$AAR?$AAE?$AAA?$AAT?$AAE?$AA_?$AAN?$AAE?$AAW?$AA_@|
	DCD	|??_C@_1FC@LCLFDJDO@?$AAD?$AAE?$AAV?$AAI?$AAC?$AAE?$AA_?$AAC?$AAO?$AAN?$AAF?$AAI?$AAG?$AA_?$AAS?$AAT?$AAA?$AAT?$AAU?$AAS?$AA_?$AAC?$AAR?$AAE?$AAA?$AAT?$AAE?$AA_?$AAN?$AAE?$AAW?$AA_@|
	DCD	|??_C@_1II@FBBOBKGN@?$AAD?$AAE?$AAV?$AAI?$AAC?$AAE?$AA_?$AAC?$AAO?$AAN?$AAF?$AAI?$AAG?$AA_?$AAS?$AAT?$AAA?$AAT?$AAU?$AAS?$AA_?$AAI?$AAN?$AAS?$AAE?$AAR?$AAT?$AA_?$AAN?$AAE?$AAW?$AA_@|
	DCD	|??_C@_1HO@PGHDEMEK@?$AAD?$AAE?$AAV?$AAI?$AAC?$AAE?$AA_?$AAC?$AAO?$AAN?$AAF?$AAI?$AAG?$AA_?$AAS?$AAT?$AAA?$AAT?$AAU?$AAS?$AA_?$AAS?$AAI?$AAG?$AAN?$AAA?$AAL?$AA_?$AAN?$AAE?$AAW?$AA_@|
	DCD	|??_C@_1DI@CEGNOBAM@?$AAD?$AAE?$AAV?$AAI?$AAC?$AAE?$AA_?$AAC?$AAO?$AAN?$AAF?$AAI?$AAG?$AA_?$AAS?$AAT?$AAA?$AAT?$AAU?$AAS?$AA_?$AAF?$AAA?$AAI?$AAL?$AAE?$AAD?$AA?$AA@|
	DCD	|??_C@_1DE@IMCKALLA@?$AAD?$AAE?$AAV?$AAI?$AAC?$AAE?$AA_?$AAC?$AAO?$AAN?$AAF?$AAI?$AAG?$AA_?$AAS?$AAT?$AAA?$AAT?$AAU?$AAS?$AA_?$AAD?$AAO?$AAN?$AAE?$AA?$AA@|
	DCD	|??_C@_1DK@JPBDFEOB@?$AAD?$AAE?$AAV?$AAI?$AAC?$AAE?$AA_?$AAC?$AAO?$AAN?$AAF?$AAI?$AAG?$AA_?$AAS?$AAT?$AAA?$AAT?$AAU?$AAS?$AA_?$AAI?$AAN?$AAV?$AAA?$AAL?$AAI?$AAD?$AA?$AA@|

  00000			 AREA	 |.rdata|, DATA, READONLY
|??_C@_1DK@JPBDFEOB@?$AAD?$AAE?$AAV?$AAI?$AAC?$AAE?$AA_?$AAC?$AAO?$AAN?$AAF?$AAI?$AAG?$AA_?$AAS?$AAT?$AAA?$AAT?$AAU?$AAS?$AA_?$AAI?$AAN?$AAV?$AAA?$AAL?$AAI?$AAD?$AA?$AA@| DCB "D"
	DCB	0x0, "E", 0x0, "V", 0x0, "I", 0x0, "C", 0x0, "E", 0x0, "_"
	DCB	0x0, "C", 0x0, "O", 0x0, "N", 0x0, "F", 0x0, "I", 0x0, "G"
	DCB	0x0, "_", 0x0, "S", 0x0, "T", 0x0, "A", 0x0, "T", 0x0, "U"
	DCB	0x0, "S", 0x0, "_", 0x0, "I", 0x0, "N", 0x0, "V", 0x0, "A"
	DCB	0x0, "L", 0x0, "I", 0x0, "D", 0x0, 0x0, 0x0 ; `string'

  00000			 AREA	 |.rdata|, DATA, READONLY
|??_C@_1DE@IMCKALLA@?$AAD?$AAE?$AAV?$AAI?$AAC?$AAE?$AA_?$AAC?$AAO?$AAN?$AAF?$AAI?$AAG?$AA_?$AAS?$AAT?$AAA?$AAT?$AAU?$AAS?$AA_?$AAD?$AAO?$AAN?$AAE?$AA?$AA@| DCB "D"
	DCB	0x0, "E", 0x0, "V", 0x0, "I", 0x0, "C", 0x0, "E", 0x0, "_"
	DCB	0x0, "C", 0x0, "O", 0x0, "N", 0x0, "F", 0x0, "I", 0x0, "G"
	DCB	0x0, "_", 0x0, "S", 0x0, "T", 0x0, "A", 0x0, "T", 0x0, "U"
	DCB	0x0, "S", 0x0, "_", 0x0, "D", 0x0, "O", 0x0, "N", 0x0, "E"
	DCB	0x0, 0x0, 0x0				; `string'

  00000			 AREA	 |.rdata|, DATA, READONLY
|??_C@_1DI@CEGNOBAM@?$AAD?$AAE?$AAV?$AAI?$AAC?$AAE?$AA_?$AAC?$AAO?$AAN?$AAF?$AAI?$AAG?$AA_?$AAS?$AAT?$AAA?$AAT?$AAU?$AAS?$AA_?$AAF?$AAA?$AAI?$AAL?$AAE?$AAD?$AA?$AA@| DCB "D"
	DCB	0x0, "E", 0x0, "V", 0x0, "I", 0x0, "C", 0x0, "E", 0x0, "_"
	DCB	0x0, "C", 0x0, "O", 0x0, "N", 0x0, "F", 0x0, "I", 0x0, "G"
	DCB	0x0, "_", 0x0, "S", 0x0, "T", 0x0, "A", 0x0, "T", 0x0, "U"
	DCB	0x0, "S", 0x0, "_", 0x0, "F", 0x0, "A", 0x0, "I", 0x0, "L"
	DCB	0x0, "E", 0x0, "D", 0x0, 0x0, 0x0	; `string'

  00000			 AREA	 |.rdata|, DATA, READONLY
|??_C@_1HO@PGHDEMEK@?$AAD?$AAE?$AAV?$AAI?$AAC?$AAE?$AA_?$AAC?$AAO?$AAN?$AAF?$AAI?$AAG?$AA_?$AAS?$AAT?$AAA?$AAT?$AAU?$AAS?$AA_?$AAS?$AAI?$AAG?$AAN?$AAA?$AAL?$AA_?$AAN?$AAE?$AAW?$AA_@| DCB "D"
	DCB	0x0, "E", 0x0, "V", 0x0, "I", 0x0, "C", 0x0, "E", 0x0, "_"
	DCB	0x0, "C", 0x0, "O", 0x0, "N", 0x0, "F", 0x0, "I", 0x0, "G"
	DCB	0x0, "_", 0x0, "S", 0x0, "T", 0x0, "A", 0x0, "T", 0x0, "U"
	DCB	0x0, "S", 0x0, "_", 0x0, "S", 0x0, "I", 0x0, "G", 0x0, "N"
	DCB	0x0, "A", 0x0, "L", 0x0, "_", 0x0, "N", 0x0, "E", 0x0, "W"
	DCB	0x0, "_", 0x0, "D", 0x0, "E", 0x0, "V", 0x0, "I", 0x0, "C"
	DCB	0x0, "E", 0x0, "_", 0x0, "E", 0x0, "N", 0x0, "T", 0x0, "E"
	DCB	0x0, "R", 0x0, "_", 0x0, "O", 0x0, "P", 0x0, "E", 0x0, "R"
	DCB	0x0, "A", 0x0, "T", 0x0, "I", 0x0, "O", 0x0, "N", 0x0, "A"
	DCB	0x0, "L", 0x0, "_", 0x0, "S", 0x0, "T", 0x0, "A", 0x0, "T"
	DCB	0x0, "E", 0x0, 0x0, 0x0			; `string'

  00000			 AREA	 |.rdata|, DATA, READONLY
|??_C@_1II@FBBOBKGN@?$AAD?$AAE?$AAV?$AAI?$AAC?$AAE?$AA_?$AAC?$AAO?$AAN?$AAF?$AAI?$AAG?$AA_?$AAS?$AAT?$AAA?$AAT?$AAU?$AAS?$AA_?$AAI?$AAN?$AAS?$AAE?$AAR?$AAT?$AA_?$AAN?$AAE?$AAW?$AA_@| DCB "D"
	DCB	0x0, "E", 0x0, "V", 0x0, "I", 0x0, "C", 0x0, "E", 0x0, "_"
	DCB	0x0, "C", 0x0, "O", 0x0, "N", 0x0, "F", 0x0, "I", 0x0, "G"
	DCB	0x0, "_", 0x0, "S", 0x0, "T", 0x0, "A", 0x0, "T", 0x0, "U"
	DCB	0x0, "S", 0x0, "_", 0x0, "I", 0x0, "N", 0x0, "S", 0x0, "E"
	DCB	0x0, "R", 0x0, "T", 0x0, "_", 0x0, "N", 0x0, "E", 0x0, "W"
	DCB	0x0, "_", 0x0, "D", 0x0, "E", 0x0, "V", 0x0, "I", 0x0, "C"
	DCB	0x0, "E", 0x0, "_", 0x0, "I", 0x0, "N", 0x0, "T", 0x0, "O"
	DCB	0x0, "_", 0x0, "U", 0x0, "P", 0x0, "S", 0x0, "T", 0x0, "R"
	DCB	0x0, "E", 0x0, "A", 0x0, "M", 0x0, "_", 0x0, "H", 0x0, "U"
	DCB	0x0, "B", 0x0, "_", 0x0, "P", 0x0, "O", 0x0, "R", 0x0, "T"
	DCB	0x0, "_", 0x0, "A", 0x0, "R", 0x0, "R", 0x0, "A", 0x0, "Y"
	DCB	0x0, 0x0, 0x0				; `string'

  00000			 AREA	 |.rdata|, DATA, READONLY
|??_C@_1FC@LCLFDJDO@?$AAD?$AAE?$AAV?$AAI?$AAC?$AAE?$AA_?$AAC?$AAO?$AAN?$AAF?$AAI?$AAG?$AA_?$AAS?$AAT?$AAA?$AAT?$AAU?$AAS?$AA_?$AAC?$AAR?$AAE?$AAA?$AAT?$AAE?$AA_?$AAN?$AAE?$AAW?$AA_@| DCB "D"
	DCB	0x0, "E", 0x0, "V", 0x0, "I", 0x0, "C", 0x0, "E", 0x0, "_"
	DCB	0x0, "C", 0x0, "O", 0x0, "N", 0x0, "F", 0x0, "I", 0x0, "G"
	DCB	0x0, "_", 0x0, "S", 0x0, "T", 0x0, "A", 0x0, "T", 0x0, "U"
	DCB	0x0, "S", 0x0, "_", 0x0, "C", 0x0, "R", 0x0, "E", 0x0, "A"
	DCB	0x0, "T", 0x0, "E", 0x0, "_", 0x0, "N", 0x0, "E", 0x0, "W"
	DCB	0x0, "_", 0x0, "F", 0x0, "U", 0x0, "N", 0x0, "C", 0x0, "T"
	DCB	0x0, "I", 0x0, "O", 0x0, "N", 0x0, 0x0, 0x0 ; `string'

  00000			 AREA	 |.rdata|, DATA, READONLY
|??_C@_1EI@COKEBMOE@?$AAD?$AAE?$AAV?$AAI?$AAC?$AAE?$AA_?$AAC?$AAO?$AAN?$AAF?$AAI?$AAG?$AA_?$AAS?$AAT?$AAA?$AAT?$AAU?$AAS?$AA_?$AAC?$AAR?$AAE?$AAA?$AAT?$AAE?$AA_?$AAN?$AAE?$AAW?$AA_@| DCB "D"
	DCB	0x0, "E", 0x0, "V", 0x0, "I", 0x0, "C", 0x0, "E", 0x0, "_"
	DCB	0x0, "C", 0x0, "O", 0x0, "N", 0x0, "F", 0x0, "I", 0x0, "G"
	DCB	0x0, "_", 0x0, "S", 0x0, "T", 0x0, "A", 0x0, "T", 0x0, "U"
	DCB	0x0, "S", 0x0, "_", 0x0, "C", 0x0, "R", 0x0, "E", 0x0, "A"
	DCB	0x0, "T", 0x0, "E", 0x0, "_", 0x0, "N", 0x0, "E", 0x0, "W"
	DCB	0x0, "_", 0x0, "H", 0x0, "U", 0x0, "B", 0x0, 0x0, 0x0 ; `string'

  00000			 AREA	 |.rdata|, DATA, READONLY
|??_C@_1GG@HPGGGHKI@?$AAD?$AAE?$AAV?$AAI?$AAC?$AAE?$AA_?$AAC?$AAO?$AAN?$AAF?$AAI?$AAG?$AA_?$AAS?$AAT?$AAA?$AAT?$AAU?$AAS?$AA_?$AAS?$AAC?$AAH?$AAE?$AAD?$AAU?$AAL?$AAI?$AAN?$AAG?$AA_@| DCB "D"
	DCB	0x0, "E", 0x0, "V", 0x0, "I", 0x0, "C", 0x0, "E", 0x0, "_"
	DCB	0x0, "C", 0x0, "O", 0x0, "N", 0x0, "F", 0x0, "I", 0x0, "G"
	DCB	0x0, "_", 0x0, "S", 0x0, "T", 0x0, "A", 0x0, "T", 0x0, "U"
	DCB	0x0, "S", 0x0, "_", 0x0, "S", 0x0, "C", 0x0, "H", 0x0, "E"
	DCB	0x0, "D", 0x0, "U", 0x0, "L", 0x0, "I", 0x0, "N", 0x0, "G"
	DCB	0x0, "_", 0x0, "G", 0x0, "E", 0x0, "T", 0x0, "_", 0x0, "H"
	DCB	0x0, "U", 0x0, "B", 0x0, "_", 0x0, "D", 0x0, "E", 0x0, "S"
	DCB	0x0, "C", 0x0, "R", 0x0, "I", 0x0, "P", 0x0, "T", 0x0, "O"
	DCB	0x0, "R", 0x0, 0x0, 0x0			; `string'

  00000			 AREA	 |.rdata|, DATA, READONLY
|??_C@_1HG@KPBCOGEF@?$AAD?$AAE?$AAV?$AAI?$AAC?$AAE?$AA_?$AAC?$AAO?$AAN?$AAF?$AAI?$AAG?$AA_?$AAS?$AAT?$AAA?$AAT?$AAU?$AAS?$AA_?$AAS?$AAC?$AAH?$AAE?$AAD?$AAU?$AAL?$AAI?$AAN?$AAG?$AA_@| DCB "D"
	DCB	0x0, "E", 0x0, "V", 0x0, "I", 0x0, "C", 0x0, "E", 0x0, "_"
	DCB	0x0, "C", 0x0, "O", 0x0, "N", 0x0, "F", 0x0, "I", 0x0, "G"
	DCB	0x0, "_", 0x0, "S", 0x0, "T", 0x0, "A", 0x0, "T", 0x0, "U"
	DCB	0x0, "S", 0x0, "_", 0x0, "S", 0x0, "C", 0x0, "H", 0x0, "E"
	DCB	0x0, "D", 0x0, "U", 0x0, "L", 0x0, "I", 0x0, "N", 0x0, "G"
	DCB	0x0, "_", 0x0, "G", 0x0, "E", 0x0, "T", 0x0, "_", 0x0, "I"
	DCB	0x0, "N", 0x0, "I", 0x0, "T", 0x0, "I", 0x0, "A", 0x0, "L"
	DCB	0x0, "_", 0x0, "H", 0x0, "U", 0x0, "B", 0x0, "_", 0x0, "D"
	DCB	0x0, "E", 0x0, "S", 0x0, "C", 0x0, "R", 0x0, "I", 0x0, "P"
	DCB	0x0, "T", 0x0, "O", 0x0, "R", 0x0, 0x0, 0x0 ; `string'

  00000			 AREA	 |.rdata|, DATA, READONLY
|??_C@_1FG@CFFAAPDL@?$AAD?$AAE?$AAV?$AAI?$AAC?$AAE?$AA_?$AAC?$AAO?$AAN?$AAF?$AAI?$AAG?$AA_?$AAS?$AAT?$AAA?$AAT?$AAU?$AAS?$AA_?$AAS?$AAC?$AAH?$AAE?$AAD?$AAU?$AAL?$AAI?$AAN?$AAG?$AA_@| DCB "D"
	DCB	0x0, "E", 0x0, "V", 0x0, "I", 0x0, "C", 0x0, "E", 0x0, "_"
	DCB	0x0, "C", 0x0, "O", 0x0, "N", 0x0, "F", 0x0, "I", 0x0, "G"
	DCB	0x0, "_", 0x0, "S", 0x0, "T", 0x0, "A", 0x0, "T", 0x0, "U"
	DCB	0x0, "S", 0x0, "_", 0x0, "S", 0x0, "C", 0x0, "H", 0x0, "E"
	DCB	0x0, "D", 0x0, "U", 0x0, "L", 0x0, "I", 0x0, "N", 0x0, "G"
	DCB	0x0, "_", 0x0, "S", 0x0, "E", 0x0, "T", 0x0, "_", 0x0, "C"
	DCB	0x0, "O", 0x0, "N", 0x0, "F", 0x0, "I", 0x0, "G", 0x0, 0x0
	DCB	0x0					; `string'

  00000			 AREA	 |.rdata|, DATA, READONLY
|??_C@_1GA@NDHJOKMM@?$AAD?$AAE?$AAV?$AAI?$AAC?$AAE?$AA_?$AAC?$AAO?$AAN?$AAF?$AAI?$AAG?$AA_?$AAS?$AAT?$AAA?$AAT?$AAU?$AAS?$AA_?$AAD?$AAE?$AAT?$AAE?$AAR?$AAM?$AAI?$AAN?$AAE?$AA_?$AAC@| DCB "D"
	DCB	0x0, "E", 0x0, "V", 0x0, "I", 0x0, "C", 0x0, "E", 0x0, "_"
	DCB	0x0, "C", 0x0, "O", 0x0, "N", 0x0, "F", 0x0, "I", 0x0, "G"
	DCB	0x0, "_", 0x0, "S", 0x0, "T", 0x0, "A", 0x0, "T", 0x0, "U"
	DCB	0x0, "S", 0x0, "_", 0x0, "D", 0x0, "E", 0x0, "T", 0x0, "E"
	DCB	0x0, "R", 0x0, "M", 0x0, "I", 0x0, "N", 0x0, "E", 0x0, "_"
	DCB	0x0, "C", 0x0, "O", 0x0, "N", 0x0, "F", 0x0, "I", 0x0, "G"
	DCB	0x0, "_", 0x0, "T", 0x0, "O", 0x0, "_", 0x0, "C", 0x0, "H"
	DCB	0x0, "O", 0x0, "O", 0x0, "S", 0x0, "E", 0x0, 0x0, 0x0 ; `string'

  00000			 AREA	 |.rdata|, DATA, READONLY
|??_C@_1GM@JADKDKDC@?$AAD?$AAE?$AAV?$AAI?$AAC?$AAE?$AA_?$AAC?$AAO?$AAN?$AAF?$AAI?$AAG?$AA_?$AAS?$AAT?$AAA?$AAT?$AAU?$AAS?$AA_?$AAS?$AAC?$AAH?$AAE?$AAD?$AAU?$AAL?$AAI?$AAN?$AAG?$AA_@| DCB "D"
	DCB	0x0, "E", 0x0, "V", 0x0, "I", 0x0, "C", 0x0, "E", 0x0, "_"
	DCB	0x0, "C", 0x0, "O", 0x0, "N", 0x0, "F", 0x0, "I", 0x0, "G"
	DCB	0x0, "_", 0x0, "S", 0x0, "T", 0x0, "A", 0x0, "T", 0x0, "U"
	DCB	0x0, "S", 0x0, "_", 0x0, "S", 0x0, "C", 0x0, "H", 0x0, "E"
	DCB	0x0, "D", 0x0, "U", 0x0, "L", 0x0, "I", 0x0, "N", 0x0, "G"
	DCB	0x0, "_", 0x0, "G", 0x0, "E", 0x0, "T", 0x0, "_", 0x0, "C"
	DCB	0x0, "O", 0x0, "N", 0x0, "F", 0x0, "I", 0x0, "G", 0x0, "_"
	DCB	0x0, "D", 0x0, "E", 0x0, "S", 0x0, "C", 0x0, "R", 0x0, "I"
	DCB	0x0, "P", 0x0, "T", 0x0, "O", 0x0, "R", 0x0, 0x0, 0x0 ; `string'

  00000			 AREA	 |.rdata|, DATA, READONLY
|??_C@_1HM@NPLCKJLH@?$AAD?$AAE?$AAV?$AAI?$AAC?$AAE?$AA_?$AAC?$AAO?$AAN?$AAF?$AAI?$AAG?$AA_?$AAS?$AAT?$AAA?$AAT?$AAU?$AAS?$AA_?$AAS?$AAC?$AAH?$AAE?$AAD?$AAU?$AAL?$AAI?$AAN?$AAG?$AA_@| DCB "D"
	DCB	0x0, "E", 0x0, "V", 0x0, "I", 0x0, "C", 0x0, "E", 0x0, "_"
	DCB	0x0, "C", 0x0, "O", 0x0, "N", 0x0, "F", 0x0, "I", 0x0, "G"
	DCB	0x0, "_", 0x0, "S", 0x0, "T", 0x0, "A", 0x0, "T", 0x0, "U"
	DCB	0x0, "S", 0x0, "_", 0x0, "S", 0x0, "C", 0x0, "H", 0x0, "E"
	DCB	0x0, "D", 0x0, "U", 0x0, "L", 0x0, "I", 0x0, "N", 0x0, "G"
	DCB	0x0, "_", 0x0, "G", 0x0, "E", 0x0, "T", 0x0, "_", 0x0, "I"
	DCB	0x0, "N", 0x0, "I", 0x0, "T", 0x0, "I", 0x0, "A", 0x0, "L"
	DCB	0x0, "_", 0x0, "C", 0x0, "O", 0x0, "N", 0x0, "F", 0x0, "I"
	DCB	0x0, "G", 0x0, "_", 0x0, "D", 0x0, "E", 0x0, "S", 0x0, "C"
	DCB	0x0, "R", 0x0, "I", 0x0, "P", 0x0, "T", 0x0, "O", 0x0, "R"
	DCB	0x0, 0x0, 0x0				; `string'

  00000			 AREA	 |.rdata|, DATA, READONLY
|??_C@_1HE@MEMGEMJJ@?$AAD?$AAE?$AAV?$AAI?$AAC?$AAE?$AA_?$AAC?$AAO?$AAN?$AAF?$AAI?$AAG?$AA_?$AAS?$AAT?$AAA?$AAT?$AAU?$AAS?$AA_?$AAS?$AAE?$AAT?$AAU?$AAP?$AA_?$AAC?$AAO?$AAN?$AAF?$AAI@| DCB "D"
	DCB	0x0, "E", 0x0, "V", 0x0, "I", 0x0, "C", 0x0, "E", 0x0, "_"
	DCB	0x0, "C", 0x0, "O", 0x0, "N", 0x0, "F", 0x0, "I", 0x0, "G"
	DCB	0x0, "_", 0x0, "S", 0x0, "T", 0x0, "A", 0x0, "T", 0x0, "U"
	DCB	0x0, "S", 0x0, "_", 0x0, "S", 0x0, "E", 0x0, "T", 0x0, "U"
	DCB	0x0, "P", 0x0, "_", 0x0, "C", 0x0, "O", 0x0, "N", 0x0, "F"
	DCB	0x0, "I", 0x0, "G", 0x0, "U", 0x0, "R", 0x0, "A", 0x0, "T"
	DCB	0x0, "I", 0x0, "O", 0x0, "N", 0x0, "_", 0x0, "D", 0x0, "E"
	DCB	0x0, "S", 0x0, "C", 0x0, "R", 0x0, "I", 0x0, "P", 0x0, "T"
	DCB	0x0, "O", 0x0, "R", 0x0, "_", 0x0, "A", 0x0, "R", 0x0, "R"
	DCB	0x0, "A", 0x0, "Y", 0x0, 0x0, 0x0	; `string'

  00000			 AREA	 |.rdata|, DATA, READONLY
|??_C@_1GM@BCHKIAPP@?$AAD?$AAE?$AAV?$AAI?$AAC?$AAE?$AA_?$AAC?$AAO?$AAN?$AAF?$AAI?$AAG?$AA_?$AAS?$AAT?$AAA?$AAT?$AAU?$AAS?$AA_?$AAS?$AAC?$AAH?$AAE?$AAD?$AAU?$AAL?$AAI?$AAN?$AAG?$AA_@| DCB "D"
	DCB	0x0, "E", 0x0, "V", 0x0, "I", 0x0, "C", 0x0, "E", 0x0, "_"
	DCB	0x0, "C", 0x0, "O", 0x0, "N", 0x0, "F", 0x0, "I", 0x0, "G"
	DCB	0x0, "_", 0x0, "S", 0x0, "T", 0x0, "A", 0x0, "T", 0x0, "U"
	DCB	0x0, "S", 0x0, "_", 0x0, "S", 0x0, "C", 0x0, "H", 0x0, "E"
	DCB	0x0, "D", 0x0, "U", 0x0, "L", 0x0, "I", 0x0, "N", 0x0, "G"
	DCB	0x0, "_", 0x0, "G", 0x0, "E", 0x0, "T", 0x0, "_", 0x0, "D"
	DCB	0x0, "E", 0x0, "V", 0x0, "I", 0x0, "C", 0x0, "E", 0x0, "_"
	DCB	0x0, "D", 0x0, "E", 0x0, "S", 0x0, "C", 0x0, "R", 0x0, "I"
	DCB	0x0, "P", 0x0, "T", 0x0, "O", 0x0, "R", 0x0, 0x0, 0x0 ; `string'

  00000			 AREA	 |.rdata|, DATA, READONLY
|??_C@_1HM@FNPCBDHK@?$AAD?$AAE?$AAV?$AAI?$AAC?$AAE?$AA_?$AAC?$AAO?$AAN?$AAF?$AAI?$AAG?$AA_?$AAS?$AAT?$AAA?$AAT?$AAU?$AAS?$AA_?$AAS?$AAC?$AAH?$AAE?$AAD?$AAU?$AAL?$AAI?$AAN?$AAG?$AA_@| DCB "D"
	DCB	0x0, "E", 0x0, "V", 0x0, "I", 0x0, "C", 0x0, "E", 0x0, "_"
	DCB	0x0, "C", 0x0, "O", 0x0, "N", 0x0, "F", 0x0, "I", 0x0, "G"
	DCB	0x0, "_", 0x0, "S", 0x0, "T", 0x0, "A", 0x0, "T", 0x0, "U"
	DCB	0x0, "S", 0x0, "_", 0x0, "S", 0x0, "C", 0x0, "H", 0x0, "E"
	DCB	0x0, "D", 0x0, "U", 0x0, "L", 0x0, "I", 0x0, "N", 0x0, "G"
	DCB	0x0, "_", 0x0, "G", 0x0, "E", 0x0, "T", 0x0, "_", 0x0, "I"
	DCB	0x0, "N", 0x0, "I", 0x0, "T", 0x0, "I", 0x0, "A", 0x0, "L"
	DCB	0x0, "_", 0x0, "D", 0x0, "E", 0x0, "V", 0x0, "I", 0x0, "C"
	DCB	0x0, "E", 0x0, "_", 0x0, "D", 0x0, "E", 0x0, "S", 0x0, "C"
	DCB	0x0, "R", 0x0, "I", 0x0, "P", 0x0, "T", 0x0, "O", 0x0, "R"
	DCB	0x0, 0x0, 0x0				; `string'

  00000			 AREA	 |.rdata|, DATA, READONLY
|??_C@_1EI@BBOOKHNN@?$AAD?$AAE?$AAV?$AAI?$AAC?$AAE?$AA_?$AAC?$AAO?$AAN?$AAF?$AAI?$AAG?$AA_?$AAS?$AAT?$AAA?$AAT?$AAU?$AAS?$AA_?$AAL?$AAE?$AAA?$AAV?$AAE?$AA_?$AAA?$AAD?$AAD?$AAR?$AAE@| DCB "D"
	DCB	0x0, "E", 0x0, "V", 0x0, "I", 0x0, "C", 0x0, "E", 0x0, "_"
	DCB	0x0, "C", 0x0, "O", 0x0, "N", 0x0, "F", 0x0, "I", 0x0, "G"
	DCB	0x0, "_", 0x0, "S", 0x0, "T", 0x0, "A", 0x0, "T", 0x0, "U"
	DCB	0x0, "S", 0x0, "_", 0x0, "L", 0x0, "E", 0x0, "A", 0x0, "V"
	DCB	0x0, "E", 0x0, "_", 0x0, "A", 0x0, "D", 0x0, "D", 0x0, "R"
	DCB	0x0, "E", 0x0, "S", 0x0, "S", 0x0, "0", 0x0, 0x0, 0x0 ; `string'

  00000			 AREA	 |.rdata|, DATA, READONLY
|??_C@_1FI@LGLHPFAK@?$AAD?$AAE?$AAV?$AAI?$AAC?$AAE?$AA_?$AAC?$AAO?$AAN?$AAF?$AAI?$AAG?$AA_?$AAS?$AAT?$AAA?$AAT?$AAU?$AAS?$AA_?$AAS?$AAC?$AAH?$AAE?$AAD?$AAU?$AAL?$AAI?$AAN?$AAG?$AA_@| DCB "D"
	DCB	0x0, "E", 0x0, "V", 0x0, "I", 0x0, "C", 0x0, "E", 0x0, "_"
	DCB	0x0, "C", 0x0, "O", 0x0, "N", 0x0, "F", 0x0, "I", 0x0, "G"
	DCB	0x0, "_", 0x0, "S", 0x0, "T", 0x0, "A", 0x0, "T", 0x0, "U"
	DCB	0x0, "S", 0x0, "_", 0x0, "S", 0x0, "C", 0x0, "H", 0x0, "E"
	DCB	0x0, "D", 0x0, "U", 0x0, "L", 0x0, "I", 0x0, "N", 0x0, "G"
	DCB	0x0, "_", 0x0, "S", 0x0, "E", 0x0, "T", 0x0, "_", 0x0, "A"
	DCB	0x0, "D", 0x0, "D", 0x0, "R", 0x0, "E", 0x0, "S", 0x0, "S"
	DCB	0x0, 0x0, 0x0				; `string'

  00000			 AREA	 |.rdata|, DATA, READONLY
|??_C@_1HG@BLNLBKIO@?$AAD?$AAE?$AAV?$AAI?$AAC?$AAE?$AA_?$AAC?$AAO?$AAN?$AAF?$AAI?$AAG?$AA_?$AAS?$AAT?$AAA?$AAT?$AAU?$AAS?$AA_?$AAS?$AAC?$AAH?$AAE?$AAD?$AAU?$AAL?$AAI?$AAN?$AAG?$AA_@| DCB "D"
	DCB	0x0, "E", 0x0, "V", 0x0, "I", 0x0, "C", 0x0, "E", 0x0, "_"
	DCB	0x0, "C", 0x0, "O", 0x0, "N", 0x0, "F", 0x0, "I", 0x0, "G"
	DCB	0x0, "_", 0x0, "S", 0x0, "T", 0x0, "A", 0x0, "T", 0x0, "U"
	DCB	0x0, "S", 0x0, "_", 0x0, "S", 0x0, "C", 0x0, "H", 0x0, "E"
	DCB	0x0, "D", 0x0, "U", 0x0, "L", 0x0, "I", 0x0, "N", 0x0, "G"
	DCB	0x0, "_", 0x0, "G", 0x0, "E", 0x0, "T", 0x0, "_", 0x0, "D"
	DCB	0x0, "E", 0x0, "V", 0x0, "I", 0x0, "C", 0x0, "E", 0x0, "_"
	DCB	0x0, "D", 0x0, "E", 0x0, "S", 0x0, "C", 0x0, "R", 0x0, "I"
	DCB	0x0, "P", 0x0, "T", 0x0, "O", 0x0, "R", 0x0, "_", 0x0, "T"
	DCB	0x0, "E", 0x0, "S", 0x0, "T", 0x0, 0x0, 0x0 ; `string'

  00000			 AREA	 |.rdata|, DATA, READONLY
|??_C@_1FG@NMCKCJLL@?$AAD?$AAE?$AAV?$AAI?$AAC?$AAE?$AA_?$AAC?$AAO?$AAN?$AAF?$AAI?$AAG?$AA_?$AAS?$AAT?$AAA?$AAT?$AAU?$AAS?$AA_?$AAR?$AAE?$AAS?$AAE?$AAT?$AA_?$AAA?$AAN?$AAD?$AA_?$AAE@| DCB "D"
	DCB	0x0, "E", 0x0, "V", 0x0, "I", 0x0, "C", 0x0, "E", 0x0, "_"
	DCB	0x0, "C", 0x0, "O", 0x0, "N", 0x0, "F", 0x0, "I", 0x0, "G"
	DCB	0x0, "_", 0x0, "S", 0x0, "T", 0x0, "A", 0x0, "T", 0x0, "U"
	DCB	0x0, "S", 0x0, "_", 0x0, "R", 0x0, "E", 0x0, "S", 0x0, "E"
	DCB	0x0, "T", 0x0, "_", 0x0, "A", 0x0, "N", 0x0, "D", 0x0, "_"
	DCB	0x0, "E", 0x0, "N", 0x0, "A", 0x0, "B", 0x0, "L", 0x0, "E"
	DCB	0x0, "_", 0x0, "P", 0x0, "O", 0x0, "R", 0x0, "T", 0x0, 0x0
	DCB	0x0					; `string'

  00000			 AREA	 |.rdata|, DATA, READONLY
|??_C@_1EI@KNOIBOPH@?$AAD?$AAE?$AAV?$AAI?$AAC?$AAE?$AA_?$AAC?$AAO?$AAN?$AAF?$AAI?$AAG?$AA_?$AAS?$AAT?$AAA?$AAT?$AAU?$AAS?$AA_?$AAU?$AAS?$AAI?$AAN?$AAG?$AA_?$AAA?$AAD?$AAD?$AAR?$AAE@| DCB "D"
	DCB	0x0, "E", 0x0, "V", 0x0, "I", 0x0, "C", 0x0, "E", 0x0, "_"
	DCB	0x0, "C", 0x0, "O", 0x0, "N", 0x0, "F", 0x0, "I", 0x0, "G"
	DCB	0x0, "_", 0x0, "S", 0x0, "T", 0x0, "A", 0x0, "T", 0x0, "U"
	DCB	0x0, "S", 0x0, "_", 0x0, "U", 0x0, "S", 0x0, "I", 0x0, "N"
	DCB	0x0, "G", 0x0, "_", 0x0, "A", 0x0, "D", 0x0, "D", 0x0, "R"
	DCB	0x0, "E", 0x0, "S", 0x0, "S", 0x0, "0", 0x0, 0x0, 0x0 ; `string'

  00000			 AREA	 |.rdata|, DATA, READONLY
|??_C@_1FI@COMJHLEF@?$AAD?$AAE?$AAV?$AAI?$AAC?$AAE?$AA_?$AAC?$AAO?$AAN?$AAF?$AAI?$AAG?$AA_?$AAS?$AAT?$AAA?$AAT?$AAU?$AAS?$AA_?$AAO?$AAP?$AAE?$AAN?$AAI?$AAN?$AAG?$AA_?$AAE?$AAN?$AAD@| DCB "D"
	DCB	0x0, "E", 0x0, "V", 0x0, "I", 0x0, "C", 0x0, "E", 0x0, "_"
	DCB	0x0, "C", 0x0, "O", 0x0, "N", 0x0, "F", 0x0, "I", 0x0, "G"
	DCB	0x0, "_", 0x0, "S", 0x0, "T", 0x0, "A", 0x0, "T", 0x0, "U"
	DCB	0x0, "S", 0x0, "_", 0x0, "O", 0x0, "P", 0x0, "E", 0x0, "N"
	DCB	0x0, "I", 0x0, "N", 0x0, "G", 0x0, "_", 0x0, "E", 0x0, "N"
	DCB	0x0, "D", 0x0, "P", 0x0, "O", 0x0, "I", 0x0, "N", 0x0, "T"
	DCB	0x0, "0", 0x0, "_", 0x0, "P", 0x0, "I", 0x0, "P", 0x0, "E"
	DCB	0x0, 0x0, 0x0				; `string'
	EXPORT	|??_C@_1BO@FNFLKEKD@?$AA?9?$AAC?$AAP?$AAi?$AAp?$AAe?$AA?3?$AA?3?$AAC?$AAP?$AAi?$AAp?$AAe?$AA?6?$AA?$AA@| [ DATA ] ; `string'
	EXPORT	|?SetTransferMode@CPipe@@QAAXE@Z|	; CPipe::SetTransferMode
	EXPORT	|??_C@_1CG@GHHCCPKE@?$AA?$CF?$AAs?$AA?3?$AA?5?$AA?$CL?$AAC?$AAP?$AAi?$AAp?$AAe?$AA?3?$AA?3?$AAC?$AAP?$AAi?$AAp?$AAe?$AA?6?$AA?$AA@| [ DATA ] ; `string'
	EXPORT	|?GetControllerName@CPipe@@QBAPBGXZ|	; CPipe::GetControllerName
	EXPORT	|??_7CPipe@@6B@| [ DATA ]		; CPipe::`vftable'
	EXPORT	|??0CPipeAbs@@QAA@E@Z|			; CPipeAbs::CPipeAbs
	EXPORT	|??0CPipe@@QAA@QBU_USB_ENDPOINT_DESCRIPTOR@@HHEEEHQAVCMhcd@@@Z| ; CPipe::CPipe
	EXPORT	|?IsPipeHalted@CPipe@@UAA?AW4HCD_REQUEST_STATUS@@QAH@Z| ; CPipe::IsPipeHalted
	EXPORT	|?ClearHaltedFlag@CPipe@@UAAXXZ|	; CPipe::ClearHaltedFlag
	EXPORT	|?ResetEndPoint@CPipe@@UAAXXZ|		; CPipe::ResetEndPoint
	EXPORT	|?ChangeMaxPacketSize@CPipeAbs@@UAAXG@Z| ; CPipeAbs::ChangeMaxPacketSize
	EXPORT	|?SetReservedDeviceAddr@CPipe@@UAAHE@Z|	; CPipe::SetReservedDeviceAddr
	EXPORT	|?GetReservedDeviceAddr@CPipe@@UAAEXZ|	; CPipe::GetReservedDeviceAddr
	EXPORT	|?GetCPhysMem@CPipe@@UAAPAVCPhysMem@@XZ| ; CPipe::GetCPhysMem
	IMPORT	|CreateEventW|
	IMPORT	|InitializeCriticalSection|
	IMPORT	|NKDbgPrintfW|
	IMPORT	|dpCurSettings|
	IMPORT	|memcpy|
	IMPORT	|??_ECPipe@@UAAPAXI@Z|, WEAK |??_GCPipe@@UAAPAXI@Z| ; CPipe::`vector deleting destructor', CPipe::`scalar deleting destructor'
	IMPORT	|_purecall|

  00000			 AREA	 |.pdata|, PDATA
|$T37513| DCD	|$LN17@CPipe|
	DCD	0x4000ce04
; File c:\wince600\platform\common\src\soc\common_ti_v1\omap3530\musb\musbhcd\musbmhdrc\cpipe.cpp

  00000			 AREA	 |.rdata|, DATA, READONLY
|??_C@_1BO@FNFLKEKD@?$AA?9?$AAC?$AAP?$AAi?$AAp?$AAe?$AA?3?$AA?3?$AAC?$AAP?$AAi?$AAp?$AAe?$AA?6?$AA?$AA@| DCB "-"
	DCB	0x0, "C", 0x0, "P", 0x0, "i", 0x0, "p", 0x0, "e", 0x0, ":"
	DCB	0x0, ":", 0x0, "C", 0x0, "P", 0x0, "i", 0x0, "p", 0x0, "e"
	DCB	0x0, 0xa, 0x0, 0x0, 0x0			; `string'

  00000			 AREA	 |.rdata|, DATA, READONLY
|??_C@_1CG@GHHCCPKE@?$AA?$CF?$AAs?$AA?3?$AA?5?$AA?$CL?$AAC?$AAP?$AAi?$AAp?$AAe?$AA?3?$AA?3?$AAC?$AAP?$AAi?$AAp?$AAe?$AA?6?$AA?$AA@| DCB "%"
	DCB	0x0, "s", 0x0, ":", 0x0, " ", 0x0, "+", 0x0, "C", 0x0, "P"
	DCB	0x0, "i", 0x0, "p", 0x0, "e", 0x0, ":", 0x0, ":", 0x0, "C"
	DCB	0x0, "P", 0x0, "i", 0x0, "p", 0x0, "e", 0x0, 0xa, 0x0, 0x0
	DCB	0x0					; `string'

  00000			 AREA	 |.rdata|, DATA, READONLY
|??_7CPipe@@6B@| DCD |??_ECPipe@@UAAPAXI@Z|		; CPipe::`vftable'
	DCD	|_purecall|
	DCD	|_purecall|
	DCD	|_purecall|
	DCD	|_purecall|
	DCD	|?IsPipeHalted@CPipe@@UAA?AW4HCD_REQUEST_STATUS@@QAH@Z|
	DCD	|?ClearHaltedFlag@CPipe@@UAAXXZ|
	DCD	|?ResetEndPoint@CPipe@@UAAXXZ|
	DCD	|?ChangeMaxPacketSize@CPipeAbs@@UAAXG@Z|
	DCD	|?SetReservedDeviceAddr@CPipe@@UAAHE@Z|
	DCD	|?GetReservedDeviceAddr@CPipe@@UAAEXZ|
	DCD	|?GetCPhysMem@CPipe@@UAAPAVCPhysMem@@XZ|
	DCD	|_purecall|
	DCD	|_purecall|
	DCD	|_purecall|
	DCD	|_purecall|
	DCD	|_purecall|
	DCD	|_purecall|
	DCD	|_purecall|
; Function compile flags: /Odtp

  00000			 AREA	 |.text|, CODE, ARM

  00000		 |??0CPipe@@QAA@QBU_USB_ENDPOINT_DESCRIPTOR@@HHEEEHQAVCMhcd@@@Z| PROC ; CPipe::CPipe

; 93   : {

  00000		 |$LN17@CPipe|
  00000	e1a0c00d	 mov         r12, sp
  00004	e92d000f	 stmdb       sp!, {r0 - r3}
  00008	e92d5000	 stmdb       sp!, {r12, lr}
  0000c	e24dd028	 sub         sp, sp, #0x28
  00010		 |$M37510|
  00010	e59d3034	 ldr         r3, [sp, #0x34]
  00014	e2833002	 add         r3, r3, #2
  00018	e5d31000	 ldrb        r1, [r3]
  0001c	e59d0030	 ldr         r0, [sp, #0x30]
  00020	eb000000	 bl          |??0CPipeAbs@@QAA@E@Z|
  00024	e58d0004	 str         r0, [sp, #4]
  00028	e59f2304	 ldr         r2, [pc, #0x304]
  0002c	e59d3030	 ldr         r3, [sp, #0x30]
  00030	e5832000	 str         r2, [r3]
  00034	e59d3030	 ldr         r3, [sp, #0x30]
  00038	e2832008	 add         r2, r3, #8
  0003c	e5dd3044	 ldrb        r3, [sp, #0x44]
  00040	e5c23000	 strb        r3, [r2]
  00044	e59d3030	 ldr         r3, [sp, #0x30]
  00048	e2832009	 add         r2, r3, #9
  0004c	e5dd3048	 ldrb        r3, [sp, #0x48]
  00050	e5c23000	 strb        r3, [r2]
  00054	e59d3030	 ldr         r3, [sp, #0x30]
  00058	e283200c	 add         r2, r3, #0xC
  0005c	e59d3050	 ldr         r3, [sp, #0x50]
  00060	e5823000	 str         r3, [r2]
  00064	e59d3030	 ldr         r3, [sp, #0x30]
  00068	e2832010	 add         r2, r3, #0x10
  0006c	e59d304c	 ldr         r3, [sp, #0x4C]
  00070	e5823000	 str         r3, [r2]
  00074	e59d1034	 ldr         r1, [sp, #0x34]
  00078	e59d3030	 ldr         r3, [sp, #0x30]
  0007c	e2830034	 add         r0, r3, #0x34
  00080	e3a02007	 mov         r2, #7
  00084	eb000000	 bl          memcpy
  00088	e59d3030	 ldr         r3, [sp, #0x30]
  0008c	e283203b	 add         r2, r3, #0x3B
  00090	e5dd3040	 ldrb        r3, [sp, #0x40]
  00094	e5c23000	 strb        r3, [r2]
  00098	e59d3038	 ldr         r3, [sp, #0x38]
  0009c	e3530000	 cmp         r3, #0
  000a0	0a000002	 beq         |$LN7@CPipe|
  000a4	e3a03001	 mov         r3, #1
  000a8	e58d3008	 str         r3, [sp, #8]
  000ac	ea000001	 b           |$LN8@CPipe|
  000b0		 |$LN7@CPipe|
  000b0	e3a03000	 mov         r3, #0
  000b4	e58d3008	 str         r3, [sp, #8]
  000b8		 |$LN8@CPipe|
  000b8	e59d3030	 ldr         r3, [sp, #0x30]
  000bc	e283203c	 add         r2, r3, #0x3C
  000c0	e59d3008	 ldr         r3, [sp, #8]
  000c4	e5823000	 str         r3, [r2]
  000c8	e59d303c	 ldr         r3, [sp, #0x3C]
  000cc	e3530000	 cmp         r3, #0
  000d0	0a000002	 beq         |$LN9@CPipe|
  000d4	e3a03001	 mov         r3, #1
  000d8	e58d300c	 str         r3, [sp, #0xC]
  000dc	ea000001	 b           |$LN10@CPipe|
  000e0		 |$LN9@CPipe|
  000e0	e3a03000	 mov         r3, #0
  000e4	e58d300c	 str         r3, [sp, #0xC]
  000e8		 |$LN10@CPipe|
  000e8	e59d3030	 ldr         r3, [sp, #0x30]
  000ec	e2832040	 add         r2, r3, #0x40
  000f0	e59d300c	 ldr         r3, [sp, #0xC]
  000f4	e5823000	 str         r3, [r2]
  000f8	e59d3030	 ldr         r3, [sp, #0x30]
  000fc	e2832044	 add         r2, r3, #0x44
  00100	e3a03000	 mov         r3, #0
  00104	e5823000	 str         r3, [r2]

; 94   :     DEBUGMSG( ZONE_PIPE && ZONE_VERBOSE, (TEXT("%s: +CPipe::CPipe\n"),GetControllerName()) );

  00108	e59f321c	 ldr         r3, [pc, #0x21C]
  0010c	e5933440	 ldr         r3, [r3, #0x440]
  00110	e3130080	 tst         r3, #0x80
  00114	0a00000c	 beq         |$LN11@CPipe|
  00118	e59f320c	 ldr         r3, [pc, #0x20C]
  0011c	e5933440	 ldr         r3, [r3, #0x440]
  00120	e3130a01	 tst         r3, #1, 20
  00124	0a000008	 beq         |$LN11@CPipe|
  00128	e59d0030	 ldr         r0, [sp, #0x30]
  0012c	eb000000	 bl          |?GetControllerName@CPipe@@QBAPBGXZ|
  00130	e58d0010	 str         r0, [sp, #0x10]
  00134	e59d1010	 ldr         r1, [sp, #0x10]
  00138	e59f01f0	 ldr         r0, [pc, #0x1F0]
  0013c	eb000000	 bl          NKDbgPrintfW
  00140	e3a03001	 mov         r3, #1
  00144	e58d3014	 str         r3, [sp, #0x14]
  00148	ea000001	 b           |$LN12@CPipe|
  0014c		 |$LN11@CPipe|
  0014c	e3a03000	 mov         r3, #0
  00150	e58d3014	 str         r3, [sp, #0x14]
  00154		 |$LN12@CPipe|

; 95   :     // CPipe::Initialize should already have been called by now
; 96   :     // to set up the schedule and init static variables
; 97   :     //DEBUGCHK( pUHCIFrame->m_debug_fInitializeAlreadyCalled );
; 98   : 
; 99   :     InitializeCriticalSection( &m_csPipeLock );

  00154	e59d3030	 ldr         r3, [sp, #0x30]
  00158	e2830020	 add         r0, r3, #0x20
  0015c	eb000000	 bl          InitializeCriticalSection

; 100  :     m_fIsHalted = FALSE;

  00160	e59d3030	 ldr         r3, [sp, #0x30]
  00164	e2832044	 add         r2, r3, #0x44
  00168	e3a03000	 mov         r3, #0
  0016c	e5823000	 str         r3, [r2]

; 101  :     // Assume it is Async. If it is not It should be ovewrited.
; 102  :     m_bFrameSMask =  0;

  00170	e59d3030	 ldr         r3, [sp, #0x30]
  00174	e283201d	 add         r2, r3, #0x1D
  00178	e3a03000	 mov         r3, #0
  0017c	e5c23000	 strb        r3, [r2]

; 103  :     m_bFrameCMask =  0;

  00180	e59d3030	 ldr         r3, [sp, #0x30]
  00184	e283201e	 add         r2, r3, #0x1E
  00188	e3a03000	 mov         r3, #0
  0018c	e5c23000	 strb        r3, [r2]

; 104  : 
; 105  :     m_tx_fifo_size = 0;

  00190	e59d3030	 ldr         r3, [sp, #0x30]
  00194	e2832050	 add         r2, r3, #0x50
  00198	e3a03000	 mov         r3, #0
  0019c	e5823000	 str         r3, [r2]

; 106  :     m_tx_fifo_addr = 0;

  001a0	e59d3030	 ldr         r3, [sp, #0x30]
  001a4	e2832048	 add         r2, r3, #0x48
  001a8	e3a03000	 mov         r3, #0
  001ac	e5823000	 str         r3, [r2]

; 107  :     m_rx_fifo_size = 0;

  001b0	e59d3030	 ldr         r3, [sp, #0x30]
  001b4	e2832054	 add         r2, r3, #0x54
  001b8	e3a03000	 mov         r3, #0
  001bc	e5823000	 str         r3, [r2]

; 108  :     m_rx_fifo_addr = 0;

  001c0	e59d3030	 ldr         r3, [sp, #0x30]
  001c4	e283204c	 add         r2, r3, #0x4C
  001c8	e3a03000	 mov         r3, #0
  001cc	e5823000	 str         r3, [r2]

; 109  : 
; 110  :     m_ucDataToggle = 0;

  001d0	e59d3030	 ldr         r3, [sp, #0x30]
  001d4	e2832015	 add         r2, r3, #0x15
  001d8	e3a03000	 mov         r3, #0
  001dc	e5c23000	 strb        r3, [r2]

; 111  :     m_bProcessDataToggle = TRUE;

  001e0	e59d3030	 ldr         r3, [sp, #0x30]
  001e4	e2832018	 add         r2, r3, #0x18
  001e8	e3a03001	 mov         r3, #1
  001ec	e5823000	 str         r3, [r2]

; 112  : 
; 113  :     // Set Transfer Mode by default
; 114  :     SetTransferMode(TRANSFER_FIFO);

  001f0	e3a01000	 mov         r1, #0
  001f4	e59d0030	 ldr         r0, [sp, #0x30]
  001f8	eb000000	 bl          |?SetTransferMode@CPipe@@QAAXE@Z|

; 115  : 
; 116  :     // Control EndPoint
; 117  :     if (USB_ENDPOINT(lpEndpointDescriptor->bEndpointAddress) == 0)

  001fc	e59d3034	 ldr         r3, [sp, #0x34]
  00200	e2833002	 add         r3, r3, #2
  00204	e5d33000	 ldrb        r3, [r3]
  00208	e313000f	 tst         r3, #0xF
  0020c	1a000008	 bne         |$LN4@CPipe|

; 118  :     {
; 119  :         m_hEPTransferEvent = NULL;

  00210	e59d3030	 ldr         r3, [sp, #0x30]
  00214	e283205c	 add         r2, r3, #0x5C
  00218	e3a03000	 mov         r3, #0
  0021c	e5823000	 str         r3, [r2]

; 120  :         m_hDMATransferEvent = NULL;

  00220	e59d3030	 ldr         r3, [sp, #0x30]
  00224	e2832060	 add         r2, r3, #0x60
  00228	e3a03000	 mov         r3, #0
  0022c	e5823000	 str         r3, [r2]

; 121  :     }
; 122  :     else

  00230	ea000027	 b           |$LN3@CPipe|
  00234		 |$LN4@CPipe|

; 123  :     {
; 124  :         m_hEPTransferEvent = CreateEvent(NULL, FALSE, FALSE, NULL);

  00234	e3a03000	 mov         r3, #0
  00238	e3a02000	 mov         r2, #0
  0023c	e3a01000	 mov         r1, #0
  00240	e3a00000	 mov         r0, #0
  00244	eb000000	 bl          CreateEventW
  00248	e58d0018	 str         r0, [sp, #0x18]
  0024c	e59d3030	 ldr         r3, [sp, #0x30]
  00250	e283205c	 add         r2, r3, #0x5C
  00254	e59d3018	 ldr         r3, [sp, #0x18]
  00258	e5823000	 str         r3, [r2]

; 125  :         if (m_pCMhcd->IsDMASupport())

  0025c	e59d3030	 ldr         r3, [sp, #0x30]
  00260	e283300c	 add         r3, r3, #0xC
  00264	e5932000	 ldr         r2, [r3]
  00268	e59d3030	 ldr         r3, [sp, #0x30]
  0026c	e283300c	 add         r3, r3, #0xC
  00270	e5930000	 ldr         r0, [r3]
  00274	e5923000	 ldr         r3, [r2]
  00278	e283306c	 add         r3, r3, #0x6C
  0027c	e5933000	 ldr         r3, [r3]
  00280	e1a0e00f	 mov         lr, pc
  00284	e12fff13	 bx          r3
  00288	e58d001c	 str         r0, [sp, #0x1C]
  0028c	e59d301c	 ldr         r3, [sp, #0x1C]
  00290	e3530000	 cmp         r3, #0
  00294	0a00000a	 beq         |$LN2@CPipe|

; 126  :             m_hDMATransferEvent = CreateEvent(NULL, FALSE, FALSE, NULL);

  00298	e3a03000	 mov         r3, #0
  0029c	e3a02000	 mov         r2, #0
  002a0	e3a01000	 mov         r1, #0
  002a4	e3a00000	 mov         r0, #0
  002a8	eb000000	 bl          CreateEventW
  002ac	e58d0020	 str         r0, [sp, #0x20]
  002b0	e59d3030	 ldr         r3, [sp, #0x30]
  002b4	e2832060	 add         r2, r3, #0x60
  002b8	e59d3020	 ldr         r3, [sp, #0x20]
  002bc	e5823000	 str         r3, [r2]

; 127  :         else

  002c0	ea000003	 b           |$LN1@CPipe|
  002c4		 |$LN2@CPipe|

; 128  :             m_hDMATransferEvent = NULL;

  002c4	e59d3030	 ldr         r3, [sp, #0x30]
  002c8	e2832060	 add         r2, r3, #0x60
  002cc	e3a03000	 mov         r3, #0
  002d0	e5823000	 str         r3, [r2]
  002d4		 |$LN1@CPipe|
  002d4		 |$LN3@CPipe|

; 129  :     }
; 130  :     // 
; 131  :     
; 132  :     DEBUGMSG( ZONE_PIPE && ZONE_VERBOSE, (TEXT("-CPipe::CPipe\n")) );

  002d4	e59f3050	 ldr         r3, [pc, #0x50]
  002d8	e5933440	 ldr         r3, [r3, #0x440]
  002dc	e3130080	 tst         r3, #0x80
  002e0	0a000008	 beq         |$LN13@CPipe|
  002e4	e59f3040	 ldr         r3, [pc, #0x40]
  002e8	e5933440	 ldr         r3, [r3, #0x440]
  002ec	e3130a01	 tst         r3, #1, 20
  002f0	0a000004	 beq         |$LN13@CPipe|
  002f4	e59f002c	 ldr         r0, [pc, #0x2C]
  002f8	eb000000	 bl          NKDbgPrintfW
  002fc	e3a03001	 mov         r3, #1
  00300	e58d3024	 str         r3, [sp, #0x24]
  00304	ea000001	 b           |$LN14@CPipe|
  00308		 |$LN13@CPipe|
  00308	e3a03000	 mov         r3, #0
  0030c	e58d3024	 str         r3, [sp, #0x24]
  00310		 |$LN14@CPipe|

; 133  : }

  00310	e59d3030	 ldr         r3, [sp, #0x30]
  00314	e58d3000	 str         r3, [sp]
  00318	e59d0000	 ldr         r0, [sp]
  0031c	e28dd028	 add         sp, sp, #0x28
  00320	e89d6000	 ldmia       sp, {sp, lr}
  00324	e12fff1e	 bx          lr
  00328		 |$LN18@CPipe|
  00328		 |$LN19@CPipe|
  00328	00000000	 DCD         |??_C@_1BO@FNFLKEKD@?$AA?9?$AAC?$AAP?$AAi?$AAp?$AAe?$AA?3?$AA?3?$AAC?$AAP?$AAi?$AAp?$AAe?$AA?6?$AA?$AA@|
  0032c		 |$LN20@CPipe|
  0032c	00000000	 DCD         |dpCurSettings|
  00330		 |$LN21@CPipe|
  00330	00000000	 DCD         |??_C@_1CG@GHHCCPKE@?$AA?$CF?$AAs?$AA?3?$AA?5?$AA?$CL?$AAC?$AAP?$AAi?$AAp?$AAe?$AA?3?$AA?3?$AAC?$AAP?$AAi?$AAp?$AAe?$AA?6?$AA?$AA@|
  00334		 |$LN22@CPipe|
  00334	00000000	 DCD         |??_7CPipe@@6B@|
  00338		 |$M37511|

			 ENDP  ; |??0CPipe@@QAA@QBU_USB_ENDPOINT_DESCRIPTOR@@HHEEEHQAVCMhcd@@@Z|, CPipe::CPipe

	EXPORT	|??_7CPipeAbs@@6B@| [ DATA ]		; CPipeAbs::`vftable'
	IMPORT	|??_ECPipeAbs@@UAAPAXI@Z|, WEAK |??_GCPipeAbs@@UAAPAXI@Z| ; CPipeAbs::`vector deleting destructor', CPipeAbs::`scalar deleting destructor'
; File c:\wince600\platform\common\src\soc\common_ti_v1\omap3530\musb\musbhcd\usb2com\pipeabs.hpp

  00000			 AREA	 |.pdata|, PDATA
|$T37524| DCD	|$LN5@CPipeAbs|
	DCD	0x40001204

  00000			 AREA	 |.rdata|, DATA, READONLY
|??_7CPipeAbs@@6B@| DCD |??_ECPipeAbs@@UAAPAXI@Z|	; CPipeAbs::`vftable'
	DCD	|_purecall|
	DCD	|_purecall|
	DCD	|_purecall|
	DCD	|_purecall|
	DCD	|_purecall|
	DCD	|_purecall|
	DCD	|_purecall|
	DCD	|?ChangeMaxPacketSize@CPipeAbs@@UAAXG@Z|
	DCD	|_purecall|
	DCD	|_purecall|
; Function compile flags: /Odtp

  00000			 AREA	 |.text|, CODE, ARM

  00000		 |??0CPipeAbs@@QAA@E@Z| PROC		; CPipeAbs::CPipeAbs

; 26   :     CPipeAbs(UCHAR const bEndpointAddress):m_bEndpointAddress(bEndpointAddress) {;};

  00000		 |$LN5@CPipeAbs|
  00000	e1a0c00d	 mov         r12, sp
  00004	e92d0003	 stmdb       sp!, {r0, r1}
  00008	e92d5000	 stmdb       sp!, {r12, lr}
  0000c	e24dd004	 sub         sp, sp, #4
  00010		 |$M37521|
  00010	e59f202c	 ldr         r2, [pc, #0x2C]
  00014	e59d300c	 ldr         r3, [sp, #0xC]
  00018	e5832000	 str         r2, [r3]
  0001c	e59d300c	 ldr         r3, [sp, #0xC]
  00020	e2832004	 add         r2, r3, #4
  00024	e5dd3010	 ldrb        r3, [sp, #0x10]
  00028	e5c23000	 strb        r3, [r2]
  0002c	e59d300c	 ldr         r3, [sp, #0xC]
  00030	e58d3000	 str         r3, [sp]
  00034	e59d0000	 ldr         r0, [sp]
  00038	e28dd004	 add         sp, sp, #4
  0003c	e89d6000	 ldmia       sp, {sp, lr}
  00040	e12fff1e	 bx          lr
  00044		 |$LN6@CPipeAbs|
  00044		 |$LN7@CPipeAbs|
  00044	00000000	 DCD         |??_7CPipeAbs@@6B@|
  00048		 |$M37522|

			 ENDP  ; |??0CPipeAbs@@QAA@E@Z|, CPipeAbs::CPipeAbs

	EXPORT	|??_C@_1FK@FNONLNGN@?$AA?$CF?$AAs?$AA?3?$AA?5?$AAD?$AAE?$AAB?$AAU?$AAG?$AAC?$AAH?$AAK?$AA?5?$AAf?$AAa?$AAi?$AAl?$AAe?$AAd?$AA?5?$AAi?$AAn?$AA?5?$AAf?$AAi?$AAl?$AAe?$AA?5?$AA?$CF?$AAs?$AA?5?$AAa@| [ DATA ] ; `string'
	EXPORT	|??_C@_1BA@LEPJIIOK@?$AAU?$AAn?$AAk?$AAn?$AAo?$AAw?$AAn?$AA?$AA@| [ DATA ] ; `string'
	EXPORT	|??_C@_1LG@KDGDMGLF@?$AAC?$AA?3?$AA?2?$AAW?$AAI?$AAN?$AAC?$AAE?$AA6?$AA0?$AA0?$AA?2?$AAp?$AAl?$AAa?$AAt?$AAf?$AAo?$AAr?$AAm?$AA?2?$AAC?$AAO?$AAM?$AAM?$AAO?$AAN?$AA?2?$AAS?$AAR?$AAC?$AA?2@| [ DATA ] ; `string'

  00000			 AREA	 |.pdata|, PDATA
|$T37535| DCD	|$LN7@ChangeMaxP|
	DCD	0x40001604

  00000			 AREA	 |.rdata|, DATA, READONLY
|??_C@_1FK@FNONLNGN@?$AA?$CF?$AAs?$AA?3?$AA?5?$AAD?$AAE?$AAB?$AAU?$AAG?$AAC?$AAH?$AAK?$AA?5?$AAf?$AAa?$AAi?$AAl?$AAe?$AAd?$AA?5?$AAi?$AAn?$AA?5?$AAf?$AAi?$AAl?$AAe?$AA?5?$AA?$CF?$AAs?$AA?5?$AAa@| DCB "%"
	DCB	0x0, "s", 0x0, ":", 0x0, " ", 0x0, "D", 0x0, "E", 0x0, "B"
	DCB	0x0, "U", 0x0, "G", 0x0, "C", 0x0, "H", 0x0, "K", 0x0, " "
	DCB	0x0, "f", 0x0, "a", 0x0, "i", 0x0, "l", 0x0, "e", 0x0, "d"
	DCB	0x0, " ", 0x0, "i", 0x0, "n", 0x0, " ", 0x0, "f", 0x0, "i"
	DCB	0x0, "l", 0x0, "e", 0x0, " ", 0x0, "%", 0x0, "s", 0x0, " "
	DCB	0x0, "a", 0x0, "t", 0x0, " ", 0x0, "l", 0x0, "i", 0x0, "n"
	DCB	0x0, "e", 0x0, " ", 0x0, "%", 0x0, "d", 0x0, " ", 0x0, 0xd
	DCB	0x0, 0xa, 0x0, 0x0, 0x0			; `string'

  00000			 AREA	 |.rdata|, DATA, READONLY
|??_C@_1BA@LEPJIIOK@?$AAU?$AAn?$AAk?$AAn?$AAo?$AAw?$AAn?$AA?$AA@| DCB "U", 0x0
	DCB	"n", 0x0, "k", 0x0, "n", 0x0, "o", 0x0, "w", 0x0, "n", 0x0
	DCB	0x0, 0x0				; `string'

  00000			 AREA	 |.rdata|, DATA, READONLY
|??_C@_1LG@KDGDMGLF@?$AAC?$AA?3?$AA?2?$AAW?$AAI?$AAN?$AAC?$AAE?$AA6?$AA0?$AA0?$AA?2?$AAp?$AAl?$AAa?$AAt?$AAf?$AAo?$AAr?$AAm?$AA?2?$AAC?$AAO?$AAM?$AAM?$AAO?$AAN?$AA?2?$AAS?$AAR?$AAC?$AA?2@| DCB "C"
	DCB	0x0, ":", 0x0, "\\", 0x0, "W", 0x0, "I", 0x0, "N", 0x0, "C"
	DCB	0x0, "E", 0x0, "6", 0x0, "0", 0x0, "0", 0x0, "\\", 0x0, "p"
	DCB	0x0, "l", 0x0, "a", 0x0, "t", 0x0, "f", 0x0, "o", 0x0, "r"
	DCB	0x0, "m", 0x0, "\\", 0x0, "C", 0x0, "O", 0x0, "M", 0x0, "M"
	DCB	0x0, "O", 0x0, "N", 0x0, "\\", 0x0, "S", 0x0, "R", 0x0, "C"
	DCB	0x0, "\\", 0x0, "S", 0x0, "O", 0x0, "C", 0x0, "\\", 0x0, "C"
	DCB	0x0, "O", 0x0, "M", 0x0, "M", 0x0, "O", 0x0, "N", 0x0, "_"
	DCB	0x0, "T", 0x0, "I", 0x0, "_", 0x0, "V", 0x0, "1", 0x0, "\\"
	DCB	0x0, "O", 0x0, "M", 0x0, "A", 0x0, "P", 0x0, "3", 0x0, "5"
	DCB	0x0, "3", 0x0, "0", 0x0, "\\", 0x0, "M", 0x0, "U", 0x0, "S"
	DCB	0x0, "B", 0x0, "\\", 0x0, "M", 0x0, "U", 0x0, "S", 0x0, "B"
	DCB	0x0, "H", 0x0, "C", 0x0, "D", 0x0, "\\", 0x0, "U", 0x0, "S"
	DCB	0x0, "B", 0x0, "2", 0x0, "C", 0x0, "O", 0x0, "M", 0x0, "\\"
	DCB	0x0, "p", 0x0, "i", 0x0, "p", 0x0, "e", 0x0, "a", 0x0, "b"
	DCB	0x0, "s", 0x0, ".", 0x0, "h", 0x0, "p", 0x0, "p", 0x0, 0x0
	DCB	0x0					; `string'
; Function compile flags: /Odtp

  00000			 AREA	 |.text|, CODE, ARM

  00000		 |?ChangeMaxPacketSize@CPipeAbs@@UAAXG@Z| PROC ; CPipeAbs::ChangeMaxPacketSize

; 61   :     virtual void ChangeMaxPacketSize( IN const USHORT ) {ASSERT(FALSE);}; // only available for Controller endpoint

  00000		 |$LN7@ChangeMaxP|
  00000	e1a0c00d	 mov         r12, sp
  00004	e92d0003	 stmdb       sp!, {r0, r1}
  00008	e92d5000	 stmdb       sp!, {r12, lr}
  0000c	e24dd004	 sub         sp, sp, #4
  00010		 |$M37532|
  00010	ea000002	 b           |$LN3@ChangeMaxP|
  00014	e3a03001	 mov         r3, #1
  00018	e58d3000	 str         r3, [sp]
  0001c	ea000007	 b           |$LN4@ChangeMaxP|
  00020		 |$LN3@ChangeMaxP|
  00020	e3a0303d	 mov         r3, #0x3D
  00024	e59f2028	 ldr         r2, [pc, #0x28]
  00028	e59f1020	 ldr         r1, [pc, #0x20]
  0002c	e59f0018	 ldr         r0, [pc, #0x18]
  00030	eb000000	 bl          NKDbgPrintfW
  00034	e6000010	 __debugbreak_ce
  00038	e3a03000	 mov         r3, #0
  0003c	e58d3000	 str         r3, [sp]
  00040		 |$LN4@ChangeMaxP|
  00040	e28dd004	 add         sp, sp, #4
  00044	e89d6000	 ldmia       sp, {sp, lr}
  00048	e12fff1e	 bx          lr
  0004c		 |$LN8@ChangeMaxP|
  0004c		 |$LN9@ChangeMaxP|
  0004c	00000000	 DCD         |??_C@_1FK@FNONLNGN@?$AA?$CF?$AAs?$AA?3?$AA?5?$AAD?$AAE?$AAB?$AAU?$AAG?$AAC?$AAH?$AAK?$AA?5?$AAf?$AAa?$AAi?$AAl?$AAe?$AAd?$AA?5?$AAi?$AAn?$AA?5?$AAf?$AAi?$AAl?$AAe?$AA?5?$AA?$CF?$AAs?$AA?5?$AAa@|
  00050		 |$LN10@ChangeMaxP|
  00050	00000000	 DCD         |??_C@_1BA@LEPJIIOK@?$AAU?$AAn?$AAk?$AAn?$AAo?$AAw?$AAn?$AA?$AA@|
  00054		 |$LN11@ChangeMaxP|
  00054	00000000	 DCD         |??_C@_1LG@KDGDMGLF@?$AAC?$AA?3?$AA?2?$AAW?$AAI?$AAN?$AAC?$AAE?$AA6?$AA0?$AA0?$AA?2?$AAp?$AAl?$AAa?$AAt?$AAf?$AAo?$AAr?$AAm?$AA?2?$AAC?$AAO?$AAM?$AAM?$AAO?$AAN?$AA?2?$AAS?$AAR?$AAC?$AA?2@|
  00058		 |$M37533|

			 ENDP  ; |?ChangeMaxPacketSize@CPipeAbs@@UAAXG@Z|, CPipeAbs::ChangeMaxPacketSize

	EXPORT	|??1CPipeAbs@@UAA@XZ|			; CPipeAbs::~CPipeAbs
	IMPORT	|??3@YAXPAX@Z|				; operator delete

  00000			 AREA	 |.pdata|, PDATA
|$T37547| DCD	|$LN6@scalar|
	DCD	0x40001104
; Function compile flags: /Odtp

  00000			 AREA	 |.text|, CODE, ARM

  00000		 |??_GCPipeAbs@@UAAPAXI@Z| PROC		; CPipeAbs::`scalar deleting destructor'
  00000		 |$LN6@scalar|
  00000	e1a0c00d	 mov         r12, sp
  00004	e92d0003	 stmdb       sp!, {r0, r1}
  00008	e92d5000	 stmdb       sp!, {r12, lr}
  0000c	e24dd004	 sub         sp, sp, #4
  00010		 |$M37544|
  00010	e59d000c	 ldr         r0, [sp, #0xC]
  00014	eb000000	 bl          |??1CPipeAbs@@UAA@XZ|
  00018	e59d3010	 ldr         r3, [sp, #0x10]
  0001c	e3130001	 tst         r3, #1
  00020	0a000001	 beq         |$LN1@scalar|
  00024	e59d000c	 ldr         r0, [sp, #0xC]
  00028	eb000000	 bl          |??3@YAXPAX@Z|
  0002c		 |$LN1@scalar|
  0002c	e59d300c	 ldr         r3, [sp, #0xC]
  00030	e58d3000	 str         r3, [sp]
  00034	e59d0000	 ldr         r0, [sp]
  00038	e28dd004	 add         sp, sp, #4
  0003c	e89d6000	 ldmia       sp, {sp, lr}
  00040	e12fff1e	 bx          lr
  00044		 |$M37545|

			 ENDP  ; |??_GCPipeAbs@@UAAPAXI@Z|, CPipeAbs::`scalar deleting destructor'


  00000			 AREA	 |.pdata|, PDATA
|$T37554| DCD	|$LN5@CPipeAbs@2|
	DCD	0x40000903
; Function compile flags: /Odtp

  00000			 AREA	 |.text|, CODE, ARM

  00000		 |??1CPipeAbs@@UAA@XZ| PROC		; CPipeAbs::~CPipeAbs

; 27   :     virtual ~CPipeAbs() {;};

  00000		 |$LN5@CPipeAbs@2|
  00000	e1a0c00d	 mov         r12, sp
  00004	e92d0001	 stmdb       sp!, {r0}
  00008	e92d5000	 stmdb       sp!, {r12, lr}
  0000c		 |$M37551|
  0000c	e59f200c	 ldr         r2, [pc, #0xC]
  00010	e59d3008	 ldr         r3, [sp, #8]
  00014	e5832000	 str         r2, [r3]
  00018	e89d6000	 ldmia       sp, {sp, lr}
  0001c	e12fff1e	 bx          lr
  00020		 |$LN6@CPipeAbs@2|
  00020		 |$LN7@CPipeAbs@2|
  00020	00000000	 DCD         |??_7CPipeAbs@@6B@|
  00024		 |$M37552|

			 ENDP  ; |??1CPipeAbs@@UAA@XZ|, CPipeAbs::~CPipeAbs

; File c:\wince600\platform\common\src\soc\common_ti_v1\omap3530\musb\musbhcd\musbmhdrc\cpipe.h

  00000			 AREA	 |.pdata|, PDATA
|$T37564| DCD	|$LN5@SetReserve|
	DCD	0x40000e04
; Function compile flags: /Odtp

  00000			 AREA	 |.text|, CODE, ARM

  00000		 |?SetReservedDeviceAddr@CPipe@@UAAHE@Z| PROC ; CPipe::SetReservedDeviceAddr

; 99   :     BOOL  SetReservedDeviceAddr(UCHAR bReservedDeviceAddr) { m_bReservedDeviceAddr = bReservedDeviceAddr; return TRUE;};

  00000		 |$LN5@SetReserve|
  00000	e1a0c00d	 mov         r12, sp
  00004	e92d0003	 stmdb       sp!, {r0, r1}
  00008	e92d5000	 stmdb       sp!, {r12, lr}
  0000c	e24dd004	 sub         sp, sp, #4
  00010		 |$M37561|
  00010	e59d300c	 ldr         r3, [sp, #0xC]
  00014	e283201c	 add         r2, r3, #0x1C
  00018	e5dd3010	 ldrb        r3, [sp, #0x10]
  0001c	e5c23000	 strb        r3, [r2]
  00020	e3a03001	 mov         r3, #1
  00024	e58d3000	 str         r3, [sp]
  00028	e59d0000	 ldr         r0, [sp]
  0002c	e28dd004	 add         sp, sp, #4
  00030	e89d6000	 ldmia       sp, {sp, lr}
  00034	e12fff1e	 bx          lr
  00038		 |$M37562|

			 ENDP  ; |?SetReservedDeviceAddr@CPipe@@UAAHE@Z|, CPipe::SetReservedDeviceAddr


  00000			 AREA	 |.pdata|, PDATA
|$T37572| DCD	|$LN5@GetReserve|
	DCD	0x40000c04
; Function compile flags: /Odtp

  00000			 AREA	 |.text|, CODE, ARM

  00000		 |?GetReservedDeviceAddr@CPipe@@UAAEXZ| PROC ; CPipe::GetReservedDeviceAddr

; 100  :     UCHAR GetReservedDeviceAddr() { return m_bReservedDeviceAddr;};

  00000		 |$LN5@GetReserve|
  00000	e1a0c00d	 mov         r12, sp
  00004	e92d0001	 stmdb       sp!, {r0}
  00008	e92d5000	 stmdb       sp!, {r12, lr}
  0000c	e24dd004	 sub         sp, sp, #4
  00010		 |$M37569|
  00010	e59d300c	 ldr         r3, [sp, #0xC]
  00014	e283301c	 add         r3, r3, #0x1C
  00018	e5d33000	 ldrb        r3, [r3]
  0001c	e5cd3000	 strb        r3, [sp]
  00020	e5dd0000	 ldrb        r0, [sp]
  00024	e28dd004	 add         sp, sp, #4
  00028	e89d6000	 ldmia       sp, {sp, lr}
  0002c	e12fff1e	 bx          lr
  00030		 |$M37570|

			 ENDP  ; |?GetReservedDeviceAddr@CPipe@@UAAEXZ|, CPipe::GetReservedDeviceAddr


  00000			 AREA	 |.pdata|, PDATA
|$T37579| DCD	|$LN5@SetTransfe|
	DCD	0x40000903
; Function compile flags: /Odtp

  00000			 AREA	 |.text|, CODE, ARM

  00000		 |?SetTransferMode@CPipe@@QAAXE@Z| PROC	; CPipe::SetTransferMode

; 111  :     void    SetTransferMode(UCHAR mode) { m_ucTransferMode = mode;};

  00000		 |$LN5@SetTransfe|
  00000	e1a0c00d	 mov         r12, sp
  00004	e92d0003	 stmdb       sp!, {r0, r1}
  00008	e92d5000	 stmdb       sp!, {r12, lr}
  0000c		 |$M37576|
  0000c	e59d3008	 ldr         r3, [sp, #8]
  00010	e2832014	 add         r2, r3, #0x14
  00014	e5dd300c	 ldrb        r3, [sp, #0xC]
  00018	e5c23000	 strb        r3, [r2]
  0001c	e89d6000	 ldmia       sp, {sp, lr}
  00020	e12fff1e	 bx          lr
  00024		 |$M37577|

			 ENDP  ; |?SetTransferMode@CPipe@@QAAXE@Z|, CPipe::SetTransferMode

	EXPORT	|?cszDeviceType@?1??GetControllerName@CPipe@@QBAPBGXZ@4PBGB| [ DATA ] ; `CPipe::GetControllerName'::`2'::cszDeviceType
	EXPORT	|??_C@_19NBPAAMNE@?$AAM?$AAU?$AAS?$AAB?$AA?$AA@| [ DATA ] ; `string'

  00000			 AREA	 |.pdata|, PDATA
|$T37587| DCD	|$LN5@GetControl|
	DCD	0x40000c04

  00000			 AREA	 |.rdata|, DATA, READONLY
|??_C@_19NBPAAMNE@?$AAM?$AAU?$AAS?$AAB?$AA?$AA@| DCB "M", 0x0, "U", 0x0, "S"
	DCB	0x0, "B", 0x0, 0x0, 0x0			; `string'

  00000			 AREA	 |.data|, DATA
|?cszDeviceType@?1??GetControllerName@CPipe@@QBAPBGXZ@4PBGB| DCD |??_C@_19NBPAAMNE@?$AAM?$AAU?$AAS?$AAB?$AA?$AA@| ; `CPipe::GetControllerName'::`2'::cszDeviceType
; Function compile flags: /Odtp

  00000			 AREA	 |.text|, CODE, ARM

  00000		 |?GetControllerName@CPipe@@QBAPBGXZ| PROC ; CPipe::GetControllerName

; 117  :     {

  00000		 |$LN5@GetControl|
  00000	e1a0c00d	 mov         r12, sp
  00004	e92d0001	 stmdb       sp!, {r0}
  00008	e92d5000	 stmdb       sp!, {r12, lr}
  0000c	e24dd004	 sub         sp, sp, #4
  00010		 |$M37584|

; 118  :         static const TCHAR* cszDeviceType = TEXT("MUSB");
; 119  :         return cszDeviceType; 

  00010	e59f3014	 ldr         r3, [pc, #0x14]
  00014	e5933000	 ldr         r3, [r3]
  00018	e58d3000	 str         r3, [sp]

; 120  :     }

  0001c	e59d0000	 ldr         r0, [sp]
  00020	e28dd004	 add         sp, sp, #4
  00024	e89d6000	 ldmia       sp, {sp, lr}
  00028	e12fff1e	 bx          lr
  0002c		 |$LN6@GetControl|
  0002c		 |$LN7@GetControl|
  0002c	00000000	 DCD         |?cszDeviceType@?1??GetControllerName@CPipe@@QBAPBGXZ@4PBGB|
  00030		 |$M37585|

			 ENDP  ; |?GetControllerName@CPipe@@QBAPBGXZ|, CPipe::GetControllerName

	EXPORT	|??1CPipe@@UAA@XZ|			; CPipe::~CPipe

  00000			 AREA	 |.pdata|, PDATA
|$T37597| DCD	|$LN6@scalar@2|
	DCD	0x40001104
; Function compile flags: /Odtp

  00000			 AREA	 |.text|, CODE, ARM

  00000		 |??_GCPipe@@UAAPAXI@Z| PROC		; CPipe::`scalar deleting destructor'
  00000		 |$LN6@scalar@2|
  00000	e1a0c00d	 mov         r12, sp
  00004	e92d0003	 stmdb       sp!, {r0, r1}
  00008	e92d5000	 stmdb       sp!, {r12, lr}
  0000c	e24dd004	 sub         sp, sp, #4
  00010		 |$M37594|
  00010	e59d000c	 ldr         r0, [sp, #0xC]
  00014	eb000000	 bl          |??1CPipe@@UAA@XZ|
  00018	e59d3010	 ldr         r3, [sp, #0x10]
  0001c	e3130001	 tst         r3, #1
  00020	0a000001	 beq         |$LN1@scalar@2|
  00024	e59d000c	 ldr         r0, [sp, #0xC]
  00028	eb000000	 bl          |??3@YAXPAX@Z|
  0002c		 |$LN1@scalar@2|
  0002c	e59d300c	 ldr         r3, [sp, #0xC]
  00030	e58d3000	 str         r3, [sp]
  00034	e59d0000	 ldr         r0, [sp]
  00038	e28dd004	 add         sp, sp, #4
  0003c	e89d6000	 ldmia       sp, {sp, lr}
  00040	e12fff1e	 bx          lr
  00044		 |$M37595|

			 ENDP  ; |??_GCPipe@@UAAPAXI@Z|, CPipe::`scalar deleting destructor'

	EXPORT	|?GetDataToggle@CPipe@@QAAEXZ|		; CPipe::GetDataToggle

  00008			 AREA	 |.pdata|, PDATA
|$T37605| DCD	|$LN5@GetDataTog|
	DCD	0x40000c04
; Function compile flags: /Odtp
; File c:\wince600\platform\common\src\soc\common_ti_v1\omap3530\musb\musbhcd\musbmhdrc\cpipe.cpp

  00338			 AREA	 |.text|, CODE, ARM

  00338		 |?GetDataToggle@CPipe@@QAAEXZ| PROC	; CPipe::GetDataToggle

; 137  : {

  00338		 |$LN5@GetDataTog|
  00338	e1a0c00d	 mov         r12, sp
  0033c	e92d0001	 stmdb       sp!, {r0}
  00340	e92d5000	 stmdb       sp!, {r12, lr}
  00344	e24dd004	 sub         sp, sp, #4
  00348		 |$M37602|

; 138  :     return m_ucDataToggle;

  00348	e59d300c	 ldr         r3, [sp, #0xC]
  0034c	e2833015	 add         r3, r3, #0x15
  00350	e5d33000	 ldrb        r3, [r3]
  00354	e5cd3000	 strb        r3, [sp]

; 139  : }

  00358	e5dd0000	 ldrb        r0, [sp]
  0035c	e28dd004	 add         sp, sp, #4
  00360	e89d6000	 ldmia       sp, {sp, lr}
  00364	e12fff1e	 bx          lr
  00368		 |$M37603|

			 ENDP  ; |?GetDataToggle@CPipe@@QAAEXZ|, CPipe::GetDataToggle

	EXPORT	|??_C@_1IA@FPPOKFJ@?$AAS?$AAe?$AAt?$AAD?$AAa?$AAt?$AAa?$AAT?$AAo?$AAg?$AAg?$AAl?$AAe?$AA?5?$AAt?$AAo?$AA?5?$AA?$CF?$AAd?$AA?5?$AAf?$AAo?$AAr?$AA?5?$AAE?$AAP?$AA?5?$AA0?$AAx?$AA?$CF?$AAx?$AA?5@| [ DATA ] ; `string'
	EXPORT	|?GetMappedEndPoint@CPipe@@QAAEXZ|	; CPipe::GetMappedEndPoint
	EXPORT	|?SetDataToggle@CPipe@@QAAXE@Z|		; CPipe::SetDataToggle

  00010			 AREA	 |.pdata|, PDATA
|$T37616| DCD	|$LN9@SetDataTog|
	DCD	0x40003604

  00000			 AREA	 |.rdata|, DATA, READONLY
|??_C@_1IA@FPPOKFJ@?$AAS?$AAe?$AAt?$AAD?$AAa?$AAt?$AAa?$AAT?$AAo?$AAg?$AAg?$AAl?$AAe?$AA?5?$AAt?$AAo?$AA?5?$AA?$CF?$AAd?$AA?5?$AAf?$AAo?$AAr?$AA?5?$AAE?$AAP?$AA?5?$AA0?$AAx?$AA?$CF?$AAx?$AA?5@| DCB "S"
	DCB	0x0, "e", 0x0, "t", 0x0, "D", 0x0, "a", 0x0, "t", 0x0, "a"
	DCB	0x0, "T", 0x0, "o", 0x0, "g", 0x0, "g", 0x0, "l", 0x0, "e"
	DCB	0x0, " ", 0x0, "t", 0x0, "o", 0x0, " ", 0x0, "%", 0x0, "d"
	DCB	0x0, " ", 0x0, "f", 0x0, "o", 0x0, "r", 0x0, " ", 0x0, "E"
	DCB	0x0, "P", 0x0, " ", 0x0, "0", 0x0, "x", 0x0, "%", 0x0, "x"
	DCB	0x0, " ", 0x0, "(", 0x0, "m", 0x0, "a", 0x0, "p", 0x0, "p"
	DCB	0x0, "e", 0x0, "d", 0x0, " ", 0x0, "%", 0x0, "d", 0x0, ")"
	DCB	0x0, " ", 0x0, "D", 0x0, "e", 0x0, "v", 0x0, "A", 0x0, "d"
	DCB	0x0, "d", 0x0, "r", 0x0, " ", 0x0, "%", 0x0, "d", 0x0, " "
	DCB	0x0, "O", 0x0, "U", 0x0, "T", 0x0, " ", 0x0, "%", 0x0, "d"
	DCB	0x0, 0xd, 0x0, 0xa, 0x0, 0x0, 0x0	; `string'
; Function compile flags: /Odtp

  00368			 AREA	 |.text|, CODE, ARM

  00368		 |?SetDataToggle@CPipe@@QAAXE@Z| PROC	; CPipe::SetDataToggle

; 143  : {

  00368		 |$LN9@SetDataTog|
  00368	e1a0c00d	 mov         r12, sp
  0036c	e92d0003	 stmdb       sp!, {r0, r1}
  00370	e92d5000	 stmdb       sp!, {r12, lr}
  00374	e24dd01c	 sub         sp, sp, #0x1C
  00378		 |$M37613|

; 144  :     RETAILMSG(0, (TEXT("SetDataToggle to %d for EP 0x%x (mapped %d) DevAddr %d OUT %d\r\n"),
; 145  :         dataToggle, m_usbEndpointDescriptor.bEndpointAddress, GetMappedEndPoint(), 
; 146  :         GetReservedDeviceAddr(), USB_ENDPOINT_DIRECTION_OUT(m_usbEndpointDescriptor.bEndpointAddress)));

  00378	ea000022	 b           |$LN5@SetDataTog|
  0037c	e59d3024	 ldr         r3, [sp, #0x24]
  00380	e2833036	 add         r3, r3, #0x36
  00384	e5d33000	 ldrb        r3, [r3]
  00388	e3130080	 tst         r3, #0x80
  0038c	1a000002	 bne         |$LN3@SetDataTog|
  00390	e3a03001	 mov         r3, #1
  00394	e58d3010	 str         r3, [sp, #0x10]
  00398	ea000001	 b           |$LN4@SetDataTog|
  0039c		 |$LN3@SetDataTog|
  0039c	e3a03000	 mov         r3, #0
  003a0	e58d3010	 str         r3, [sp, #0x10]
  003a4		 |$LN4@SetDataTog|
  003a4	e59d3024	 ldr         r3, [sp, #0x24]
  003a8	e5933000	 ldr         r3, [r3]
  003ac	e2833028	 add         r3, r3, #0x28
  003b0	e59d0024	 ldr         r0, [sp, #0x24]
  003b4	e5933000	 ldr         r3, [r3]
  003b8	e1a0e00f	 mov         lr, pc
  003bc	e12fff13	 bx          r3
  003c0	e5cd0014	 strb        r0, [sp, #0x14]
  003c4	e59d0024	 ldr         r0, [sp, #0x24]
  003c8	eb000000	 bl          |?GetMappedEndPoint@CPipe@@QAAEXZ|
  003cc	e5cd0015	 strb        r0, [sp, #0x15]
  003d0	e59d3010	 ldr         r3, [sp, #0x10]
  003d4	e58d3004	 str         r3, [sp, #4]
  003d8	e5dd3014	 ldrb        r3, [sp, #0x14]
  003dc	e58d3000	 str         r3, [sp]
  003e0	e5dd3015	 ldrb        r3, [sp, #0x15]
  003e4	e59d2024	 ldr         r2, [sp, #0x24]
  003e8	e2822036	 add         r2, r2, #0x36
  003ec	e5d22000	 ldrb        r2, [r2]
  003f0	e5dd1028	 ldrb        r1, [sp, #0x28]
  003f4	e59f0040	 ldr         r0, [pc, #0x40]
  003f8	eb000000	 bl          NKDbgPrintfW
  003fc	e3a03001	 mov         r3, #1
  00400	e58d3018	 str         r3, [sp, #0x18]
  00404	ea000001	 b           |$LN6@SetDataTog|
  00408		 |$LN5@SetDataTog|
  00408	e3a03000	 mov         r3, #0
  0040c	e58d3018	 str         r3, [sp, #0x18]
  00410		 |$LN6@SetDataTog|

; 147  :     m_ucDataToggle = dataToggle;

  00410	e59d3024	 ldr         r3, [sp, #0x24]
  00414	e2832015	 add         r2, r3, #0x15
  00418	e5dd3028	 ldrb        r3, [sp, #0x28]
  0041c	e5c23000	 strb        r3, [r2]

; 148  :     m_bProcessDataToggle = TRUE;

  00420	e59d3024	 ldr         r3, [sp, #0x24]
  00424	e2832018	 add         r2, r3, #0x18
  00428	e3a03001	 mov         r3, #1
  0042c	e5823000	 str         r3, [r2]

; 149  : }

  00430	e28dd01c	 add         sp, sp, #0x1C
  00434	e89d6000	 ldmia       sp, {sp, lr}
  00438	e12fff1e	 bx          lr
  0043c		 |$LN10@SetDataTog|
  0043c		 |$LN11@SetDataTog|
  0043c	00000000	 DCD         |??_C@_1IA@FPPOKFJ@?$AAS?$AAe?$AAt?$AAD?$AAa?$AAt?$AAa?$AAT?$AAo?$AAg?$AAg?$AAl?$AAe?$AA?5?$AAt?$AAo?$AA?5?$AA?$CF?$AAd?$AA?5?$AAf?$AAo?$AAr?$AA?5?$AAE?$AAP?$AA?5?$AA0?$AAx?$AA?$CF?$AAx?$AA?5@|
  00440		 |$M37614|

			 ENDP  ; |?SetDataToggle@CPipe@@QAAXE@Z|, CPipe::SetDataToggle

; File c:\wince600\platform\common\src\soc\common_ti_v1\omap3530\musb\musbhcd\musbmhdrc\cpipe.h

  00000			 AREA	 |.pdata|, PDATA
|$T37624| DCD	|$LN5@GetMappedE|
	DCD	0x40000c04
; Function compile flags: /Odtp

  00000			 AREA	 |.text|, CODE, ARM

  00000		 |?GetMappedEndPoint@CPipe@@QAAEXZ| PROC ; CPipe::GetMappedEndPoint

; 103  :     UCHAR   GetMappedEndPoint(void) { return m_mappedEndpoint; };

  00000		 |$LN5@GetMappedE|
  00000	e1a0c00d	 mov         r12, sp
  00004	e92d0001	 stmdb       sp!, {r0}
  00008	e92d5000	 stmdb       sp!, {r12, lr}
  0000c	e24dd004	 sub         sp, sp, #4
  00010		 |$M37621|
  00010	e59d300c	 ldr         r3, [sp, #0xC]
  00014	e2833058	 add         r3, r3, #0x58
  00018	e5d33000	 ldrb        r3, [r3]
  0001c	e5cd3000	 strb        r3, [sp]
  00020	e5dd0000	 ldrb        r0, [sp]
  00024	e28dd004	 add         sp, sp, #4
  00028	e89d6000	 ldmia       sp, {sp, lr}
  0002c	e12fff1e	 bx          lr
  00030		 |$M37622|

			 ENDP  ; |?GetMappedEndPoint@CPipe@@QAAEXZ|, CPipe::GetMappedEndPoint

	EXPORT	|??_C@_1IG@CLMMCFLE@?$AAI?$AAs?$AAD?$AAa?$AAt?$AAa?$AAT?$AAo?$AAg?$AAg?$AAl?$AAe?$AA?5?$AAf?$AAo?$AAr?$AA?5?$AAE?$AAP?$AA?5?$AA0?$AAx?$AA?$CF?$AAx?$AA?5?$AA?$CI?$AAm?$AAa?$AAp?$AAp?$AAe?$AAd@| [ DATA ] ; `string'
	EXPORT	|?IsDataToggle@CPipe@@QAAHXZ|		; CPipe::IsDataToggle

  00018			 AREA	 |.pdata|, PDATA
|$T37638| DCD	|$LN10@IsDataTogg|
	DCD	0x40003f04
; File c:\wince600\platform\common\src\soc\common_ti_v1\omap3530\musb\musbhcd\musbmhdrc\cpipe.cpp

  00000			 AREA	 |.rdata|, DATA, READONLY
|??_C@_1IG@CLMMCFLE@?$AAI?$AAs?$AAD?$AAa?$AAt?$AAa?$AAT?$AAo?$AAg?$AAg?$AAl?$AAe?$AA?5?$AAf?$AAo?$AAr?$AA?5?$AAE?$AAP?$AA?5?$AA0?$AAx?$AA?$CF?$AAx?$AA?5?$AA?$CI?$AAm?$AAa?$AAp?$AAp?$AAe?$AAd@| DCB "I"
	DCB	0x0, "s", 0x0, "D", 0x0, "a", 0x0, "t", 0x0, "a", 0x0, "T"
	DCB	0x0, "o", 0x0, "g", 0x0, "g", 0x0, "l", 0x0, "e", 0x0, " "
	DCB	0x0, "f", 0x0, "o", 0x0, "r", 0x0, " ", 0x0, "E", 0x0, "P"
	DCB	0x0, " ", 0x0, "0", 0x0, "x", 0x0, "%", 0x0, "x", 0x0, " "
	DCB	0x0, "(", 0x0, "m", 0x0, "a", 0x0, "p", 0x0, "p", 0x0, "e"
	DCB	0x0, "d", 0x0, " ", 0x0, "%", 0x0, "d", 0x0, ")", 0x0, " "
	DCB	0x0, "D", 0x0, "e", 0x0, "v", 0x0, "A", 0x0, "d", 0x0, "d"
	DCB	0x0, "r", 0x0, " ", 0x0, "%", 0x0, "d", 0x0, " ", 0x0, "O"
	DCB	0x0, "U", 0x0, "T", 0x0, " ", 0x0, "%", 0x0, "d", 0x0, " "
	DCB	0x0, "r", 0x0, "e", 0x0, "t", 0x0, "u", 0x0, "r", 0x0, "n"
	DCB	0x0, " ", 0x0, "%", 0x0, "d", 0x0, 0xd, 0x0, 0xa, 0x0, 0x0
	DCB	0x0					; `string'
; Function compile flags: /Odtp

  00440			 AREA	 |.text|, CODE, ARM

  00440		 |?IsDataToggle@CPipe@@QAAHXZ| PROC	; CPipe::IsDataToggle

; 152  : {

  00440		 |$LN10@IsDataTogg|
  00440	e1a0c00d	 mov         r12, sp
  00444	e92d0001	 stmdb       sp!, {r0}
  00448	e92d5000	 stmdb       sp!, {r12, lr}
  0044c	e24dd020	 sub         sp, sp, #0x20
  00450		 |$M37635|

; 153  :     RETAILMSG(0, (TEXT("IsDataToggle for EP 0x%x (mapped %d) DevAddr %d OUT %d return %d\r\n"),
; 154  :         m_usbEndpointDescriptor.bEndpointAddress, GetMappedEndPoint(), 
; 155  :         GetReservedDeviceAddr(), USB_ENDPOINT_DIRECTION_OUT(m_usbEndpointDescriptor.bEndpointAddress), m_bProcessDataToggle));

  00450	ea000024	 b           |$LN6@IsDataTogg|
  00454	e59d3028	 ldr         r3, [sp, #0x28]
  00458	e2833036	 add         r3, r3, #0x36
  0045c	e5d33000	 ldrb        r3, [r3]
  00460	e3130080	 tst         r3, #0x80
  00464	1a000002	 bne         |$LN4@IsDataTogg|
  00468	e3a03001	 mov         r3, #1
  0046c	e58d3014	 str         r3, [sp, #0x14]
  00470	ea000001	 b           |$LN5@IsDataTogg|
  00474		 |$LN4@IsDataTogg|
  00474	e3a03000	 mov         r3, #0
  00478	e58d3014	 str         r3, [sp, #0x14]
  0047c		 |$LN5@IsDataTogg|
  0047c	e59d3028	 ldr         r3, [sp, #0x28]
  00480	e5933000	 ldr         r3, [r3]
  00484	e2833028	 add         r3, r3, #0x28
  00488	e59d0028	 ldr         r0, [sp, #0x28]
  0048c	e5933000	 ldr         r3, [r3]
  00490	e1a0e00f	 mov         lr, pc
  00494	e12fff13	 bx          r3
  00498	e5cd0018	 strb        r0, [sp, #0x18]
  0049c	e59d0028	 ldr         r0, [sp, #0x28]
  004a0	eb000000	 bl          |?GetMappedEndPoint@CPipe@@QAAEXZ|
  004a4	e5cd0019	 strb        r0, [sp, #0x19]
  004a8	e59d3028	 ldr         r3, [sp, #0x28]
  004ac	e2833018	 add         r3, r3, #0x18
  004b0	e5933000	 ldr         r3, [r3]
  004b4	e58d3004	 str         r3, [sp, #4]
  004b8	e59d3014	 ldr         r3, [sp, #0x14]
  004bc	e58d3000	 str         r3, [sp]
  004c0	e5dd3018	 ldrb        r3, [sp, #0x18]
  004c4	e5dd2019	 ldrb        r2, [sp, #0x19]
  004c8	e59d1028	 ldr         r1, [sp, #0x28]
  004cc	e2811036	 add         r1, r1, #0x36
  004d0	e5d11000	 ldrb        r1, [r1]
  004d4	e59f005c	 ldr         r0, [pc, #0x5C]
  004d8	eb000000	 bl          NKDbgPrintfW
  004dc	e3a03001	 mov         r3, #1
  004e0	e58d301c	 str         r3, [sp, #0x1C]
  004e4	ea000001	 b           |$LN7@IsDataTogg|
  004e8		 |$LN6@IsDataTogg|
  004e8	e3a03000	 mov         r3, #0
  004ec	e58d301c	 str         r3, [sp, #0x1C]
  004f0		 |$LN7@IsDataTogg|

; 156  : 
; 157  :     if (m_bProcessDataToggle)

  004f0	e59d3028	 ldr         r3, [sp, #0x28]
  004f4	e2833018	 add         r3, r3, #0x18
  004f8	e5933000	 ldr         r3, [r3]
  004fc	e3530000	 cmp         r3, #0
  00500	0a000006	 beq         |$LN1@IsDataTogg|

; 158  :     {
; 159  :         m_bProcessDataToggle = FALSE;

  00504	e59d3028	 ldr         r3, [sp, #0x28]
  00508	e2832018	 add         r2, r3, #0x18
  0050c	e3a03000	 mov         r3, #0
  00510	e5823000	 str         r3, [r2]

; 160  :         return TRUE;

  00514	e3a03001	 mov         r3, #1
  00518	e58d3010	 str         r3, [sp, #0x10]
  0051c	ea000001	 b           |$LN2@IsDataTogg|
  00520		 |$LN1@IsDataTogg|

; 161  :     }
; 162  :     return FALSE;

  00520	e3a03000	 mov         r3, #0
  00524	e58d3010	 str         r3, [sp, #0x10]
  00528		 |$LN2@IsDataTogg|

; 163  : }

  00528	e59d0010	 ldr         r0, [sp, #0x10]
  0052c	e28dd020	 add         sp, sp, #0x20
  00530	e89d6000	 ldmia       sp, {sp, lr}
  00534	e12fff1e	 bx          lr
  00538		 |$LN11@IsDataTogg|
  00538		 |$LN12@IsDataTogg|
  00538	00000000	 DCD         |??_C@_1IG@CLMMCFLE@?$AAI?$AAs?$AAD?$AAa?$AAt?$AAa?$AAT?$AAo?$AAg?$AAg?$AAl?$AAe?$AA?5?$AAf?$AAo?$AAr?$AA?5?$AAE?$AAP?$AA?5?$AA0?$AAx?$AA?$CF?$AAx?$AA?5?$AA?$CI?$AAm?$AAa?$AAp?$AAp?$AAe?$AAd@|
  0053c		 |$M37636|

			 ENDP  ; |?IsDataToggle@CPipe@@QAAHXZ|, CPipe::IsDataToggle

	EXPORT	|??_C@_1CA@EGGPAPJO@?$AA?9?$AAC?$AAP?$AAi?$AAp?$AAe?$AA?3?$AA?3?$AA?$HO?$AAC?$AAP?$AAi?$AAp?$AAe?$AA?6?$AA?$AA@| [ DATA ] ; `string'
	EXPORT	|??_C@_1CI@HDEEPJNI@?$AA?$CF?$AAs?$AA?3?$AA?5?$AA?$CL?$AAC?$AAP?$AAi?$AAp?$AAe?$AA?3?$AA?3?$AA?$HO?$AAC?$AAP?$AAi?$AAp?$AAe?$AA?6?$AA?$AA@| [ DATA ] ; `string'
	IMPORT	|CloseHandle|
	IMPORT	|DeleteCriticalSection|

  00020			 AREA	 |.pdata|, PDATA
|$T37649| DCD	|$LN11@CPipe@2|
	DCD	0x40004f04

  00000			 AREA	 |.rdata|, DATA, READONLY
|??_C@_1CA@EGGPAPJO@?$AA?9?$AAC?$AAP?$AAi?$AAp?$AAe?$AA?3?$AA?3?$AA?$HO?$AAC?$AAP?$AAi?$AAp?$AAe?$AA?6?$AA?$AA@| DCB "-"
	DCB	0x0, "C", 0x0, "P", 0x0, "i", 0x0, "p", 0x0, "e", 0x0, ":"
	DCB	0x0, ":", 0x0, "~", 0x0, "C", 0x0, "P", 0x0, "i", 0x0, "p"
	DCB	0x0, "e", 0x0, 0xa, 0x0, 0x0, 0x0	; `string'

  00000			 AREA	 |.rdata|, DATA, READONLY
|??_C@_1CI@HDEEPJNI@?$AA?$CF?$AAs?$AA?3?$AA?5?$AA?$CL?$AAC?$AAP?$AAi?$AAp?$AAe?$AA?3?$AA?3?$AA?$HO?$AAC?$AAP?$AAi?$AAp?$AAe?$AA?6?$AA?$AA@| DCB "%"
	DCB	0x0, "s", 0x0, ":", 0x0, " ", 0x0, "+", 0x0, "C", 0x0, "P"
	DCB	0x0, "i", 0x0, "p", 0x0, "e", 0x0, ":", 0x0, ":", 0x0, "~"
	DCB	0x0, "C", 0x0, "P", 0x0, "i", 0x0, "p", 0x0, "e", 0x0, 0xa
	DCB	0x0, 0x0, 0x0				; `string'
; Function compile flags: /Odtp

  0053c			 AREA	 |.text|, CODE, ARM

  0053c		 |??1CPipe@@UAA@XZ| PROC		; CPipe::~CPipe

; 236  : {

  0053c		 |$LN11@CPipe@2|
  0053c	e1a0c00d	 mov         r12, sp
  00540	e92d0001	 stmdb       sp!, {r0}
  00544	e92d5000	 stmdb       sp!, {r12, lr}
  00548	e24dd00c	 sub         sp, sp, #0xC
  0054c		 |$M37646|
  0054c	e59f2120	 ldr         r2, [pc, #0x120]
  00550	e59d3014	 ldr         r3, [sp, #0x14]
  00554	e5832000	 str         r2, [r3]

; 237  :     DEBUGMSG( ZONE_PIPE && ZONE_VERBOSE, (TEXT("%s: +CPipe::~CPipe\n"),GetControllerName()) );

  00558	e59f310c	 ldr         r3, [pc, #0x10C]
  0055c	e5933440	 ldr         r3, [r3, #0x440]
  00560	e3130080	 tst         r3, #0x80
  00564	0a00000c	 beq         |$LN5@CPipe@2|
  00568	e59f30fc	 ldr         r3, [pc, #0xFC]
  0056c	e5933440	 ldr         r3, [r3, #0x440]
  00570	e3130a01	 tst         r3, #1, 20
  00574	0a000008	 beq         |$LN5@CPipe@2|
  00578	e59d0014	 ldr         r0, [sp, #0x14]
  0057c	eb000000	 bl          |?GetControllerName@CPipe@@QBAPBGXZ|
  00580	e58d0000	 str         r0, [sp]
  00584	e59d1000	 ldr         r1, [sp]
  00588	e59f00e0	 ldr         r0, [pc, #0xE0]
  0058c	eb000000	 bl          NKDbgPrintfW
  00590	e3a03001	 mov         r3, #1
  00594	e58d3004	 str         r3, [sp, #4]
  00598	ea000001	 b           |$LN6@CPipe@2|
  0059c		 |$LN5@CPipe@2|
  0059c	e3a03000	 mov         r3, #0
  005a0	e58d3004	 str         r3, [sp, #4]
  005a4		 |$LN6@CPipe@2|

; 238  :     // transfers should be aborted or closed before deleting object
; 239  :     DeleteCriticalSection( &m_csPipeLock );    

  005a4	e59d3014	 ldr         r3, [sp, #0x14]
  005a8	e2830020	 add         r0, r3, #0x20
  005ac	eb000000	 bl          DeleteCriticalSection

; 240  :     if (m_hEPTransferEvent)

  005b0	e59d3014	 ldr         r3, [sp, #0x14]
  005b4	e283305c	 add         r3, r3, #0x5C
  005b8	e5933000	 ldr         r3, [r3]
  005bc	e3530000	 cmp         r3, #0
  005c0	0a000003	 beq         |$LN2@CPipe@2|

; 241  :         CloseHandle(m_hEPTransferEvent);

  005c4	e59d3014	 ldr         r3, [sp, #0x14]
  005c8	e283305c	 add         r3, r3, #0x5C
  005cc	e5930000	 ldr         r0, [r3]
  005d0	eb000000	 bl          CloseHandle
  005d4		 |$LN2@CPipe@2|

; 242  :     if (m_hDMATransferEvent)

  005d4	e59d3014	 ldr         r3, [sp, #0x14]
  005d8	e2833060	 add         r3, r3, #0x60
  005dc	e5933000	 ldr         r3, [r3]
  005e0	e3530000	 cmp         r3, #0
  005e4	0a000003	 beq         |$LN1@CPipe@2|

; 243  :         CloseHandle(m_hDMATransferEvent);

  005e8	e59d3014	 ldr         r3, [sp, #0x14]
  005ec	e2833060	 add         r3, r3, #0x60
  005f0	e5930000	 ldr         r0, [r3]
  005f4	eb000000	 bl          CloseHandle
  005f8		 |$LN1@CPipe@2|

; 244  :     m_hEPTransferEvent = NULL;

  005f8	e59d3014	 ldr         r3, [sp, #0x14]
  005fc	e283205c	 add         r2, r3, #0x5C
  00600	e3a03000	 mov         r3, #0
  00604	e5823000	 str         r3, [r2]

; 245  :     m_hDMATransferEvent = NULL;

  00608	e59d3014	 ldr         r3, [sp, #0x14]
  0060c	e2832060	 add         r2, r3, #0x60
  00610	e3a03000	 mov         r3, #0
  00614	e5823000	 str         r3, [r2]

; 246  :     DEBUGMSG( ZONE_PIPE && ZONE_VERBOSE, (TEXT("-CPipe::~CPipe\n")) );

  00618	e59f304c	 ldr         r3, [pc, #0x4C]
  0061c	e5933440	 ldr         r3, [r3, #0x440]
  00620	e3130080	 tst         r3, #0x80
  00624	0a000008	 beq         |$LN7@CPipe@2|
  00628	e59f303c	 ldr         r3, [pc, #0x3C]
  0062c	e5933440	 ldr         r3, [r3, #0x440]
  00630	e3130a01	 tst         r3, #1, 20
  00634	0a000004	 beq         |$LN7@CPipe@2|
  00638	e59f0028	 ldr         r0, [pc, #0x28]
  0063c	eb000000	 bl          NKDbgPrintfW
  00640	e3a03001	 mov         r3, #1
  00644	e58d3008	 str         r3, [sp, #8]
  00648	ea000001	 b           |$LN8@CPipe@2|
  0064c		 |$LN7@CPipe@2|
  0064c	e3a03000	 mov         r3, #0
  00650	e58d3008	 str         r3, [sp, #8]
  00654		 |$LN8@CPipe@2|

; 247  : }

  00654	e59d0014	 ldr         r0, [sp, #0x14]
  00658	eb000000	 bl          |??1CPipeAbs@@UAA@XZ|
  0065c	e28dd00c	 add         sp, sp, #0xC
  00660	e89d6000	 ldmia       sp, {sp, lr}
  00664	e12fff1e	 bx          lr
  00668		 |$LN12@CPipe@2|
  00668		 |$LN13@CPipe@2|
  00668	00000000	 DCD         |??_C@_1CA@EGGPAPJO@?$AA?9?$AAC?$AAP?$AAi?$AAp?$AAe?$AA?3?$AA?3?$AA?$HO?$AAC?$AAP?$AAi?$AAp?$AAe?$AA?6?$AA?$AA@|
  0066c		 |$LN14@CPipe@2|
  0066c	00000000	 DCD         |dpCurSettings|
  00670		 |$LN15@CPipe@2|
  00670	00000000	 DCD         |??_C@_1CI@HDEEPJNI@?$AA?$CF?$AAs?$AA?3?$AA?5?$AA?$CL?$AAC?$AAP?$AAi?$AAp?$AAe?$AA?3?$AA?3?$AA?$HO?$AAC?$AAP?$AAi?$AAp?$AAe?$AA?6?$AA?$AA@|
  00674		 |$LN16@CPipe@2|
  00674	00000000	 DCD         |??_7CPipe@@6B@|
  00678		 |$M37647|

			 ENDP  ; |??1CPipe@@UAA@XZ|, CPipe::~CPipe

	EXPORT	|?GetPhysMem@CHW@@QAAPAVCPhysMem@@XZ|	; CHW::GetPhysMem

  00028			 AREA	 |.pdata|, PDATA
|$T37660| DCD	|$LN5@GetCPhysMe|
	DCD	0x40000f04
; Function compile flags: /Odtp

  00678			 AREA	 |.text|, CODE, ARM

  00678		 |?GetCPhysMem@CPipe@@UAAPAVCPhysMem@@XZ| PROC ; CPipe::GetCPhysMem

; 249  : {

  00678		 |$LN5@GetCPhysMe|
  00678	e1a0c00d	 mov         r12, sp
  0067c	e92d0001	 stmdb       sp!, {r0}
  00680	e92d5000	 stmdb       sp!, {r12, lr}
  00684	e24dd008	 sub         sp, sp, #8
  00688		 |$M37657|

; 250  :      return m_pCMhcd->GetPhysMem();

  00688	e59d3010	 ldr         r3, [sp, #0x10]
  0068c	e283300c	 add         r3, r3, #0xC
  00690	e5930000	 ldr         r0, [r3]
  00694	eb000000	 bl          |?GetPhysMem@CHW@@QAAPAVCPhysMem@@XZ|
  00698	e58d0004	 str         r0, [sp, #4]
  0069c	e59d3004	 ldr         r3, [sp, #4]
  006a0	e58d3000	 str         r3, [sp]

; 251  : }

  006a4	e59d0000	 ldr         r0, [sp]
  006a8	e28dd008	 add         sp, sp, #8
  006ac	e89d6000	 ldmia       sp, {sp, lr}
  006b0	e12fff1e	 bx          lr
  006b4		 |$M37658|

			 ENDP  ; |?GetCPhysMem@CPipe@@UAAPAVCPhysMem@@XZ|, CPipe::GetCPhysMem

; File c:\wince600\platform\common\src\soc\common_ti_v1\omap3530\musb\musbhcd\musbmhdrc\chw.h

  00000			 AREA	 |.pdata|, PDATA
|$T37666| DCD	|$LN5@GetPhysMem|
	DCD	0x40000c04
; Function compile flags: /Odtp

  00000			 AREA	 |.text|, CODE, ARM

  00000		 |?GetPhysMem@CHW@@QAAPAVCPhysMem@@XZ| PROC ; CHW::GetPhysMem

; 381  :     CPhysMem * GetPhysMem() { return m_pMem; };

  00000		 |$LN5@GetPhysMem|
  00000	e1a0c00d	 mov         r12, sp
  00004	e92d0001	 stmdb       sp!, {r0}
  00008	e92d5000	 stmdb       sp!, {r12, lr}
  0000c	e24dd004	 sub         sp, sp, #4
  00010		 |$M37663|
  00010	e59d300c	 ldr         r3, [sp, #0xC]
  00014	e2833fa7	 add         r3, r3, #0xA7, 30
  00018	e5933000	 ldr         r3, [r3]
  0001c	e58d3000	 str         r3, [sp]
  00020	e59d0000	 ldr         r0, [sp]
  00024	e28dd004	 add         sp, sp, #4
  00028	e89d6000	 ldmia       sp, {sp, lr}
  0002c	e12fff1e	 bx          lr
  00030		 |$M37664|

			 ENDP  ; |?GetPhysMem@CHW@@QAAPAVCPhysMem@@XZ|, CHW::GetPhysMem

	EXPORT	|??_C@_1KA@DOAAPBLH@?$AA?$CF?$AAs?$AA?3?$AA?5?$AA?9?$AAC?$AAP?$AAi?$AAp?$AAe?$AA?$CI?$AA?$CF?$AAs?$AA?$CJ?$AA?3?$AA?3?$AAI?$AAs?$AAP?$AAi?$AAp?$AAe?$AAH?$AAa?$AAl?$AAt?$AAe?$AAd?$AA?0?$AA?5?$AA?$CK?$AAl@| [ DATA ] ; `string'
	EXPORT	|??_C@_1LK@LMPDOKKA@?$AAC?$AA?3?$AA?2?$AAW?$AAI?$AAN?$AAC?$AAE?$AA6?$AA0?$AA0?$AA?2?$AAP?$AAL?$AAA?$AAT?$AAF?$AAO?$AAR?$AAM?$AA?2?$AAC?$AAO?$AAM?$AAM?$AAO?$AAN?$AA?2?$AAS?$AAR?$AAC?$AA?2@| [ DATA ] ; `string'
	EXPORT	|??_C@_1DM@MOOGPODG@?$AA?$CF?$AAs?$AA?3?$AA?5?$AA?$CL?$AAC?$AAP?$AAi?$AAp?$AAe?$AA?$CI?$AA?$CF?$AAs?$AA?$CJ?$AA?3?$AA?3?$AAI?$AAs?$AAP?$AAi?$AAp?$AAe?$AAH?$AAa?$AAl?$AAt?$AAe?$AAd?$AA?6?$AA?$AA@| [ DATA ] ; `string'
	IMPORT	|LeaveCriticalSection|
	IMPORT	|EnterCriticalSection|

  00030			 AREA	 |.pdata|, PDATA
|$T37681| DCD	|$LN12@IsPipeHalt|
	DCD	0x40006704
; File c:\wince600\platform\common\src\soc\common_ti_v1\omap3530\musb\musbhcd\musbmhdrc\cpipe.cpp

  00000			 AREA	 |.rdata|, DATA, READONLY
|??_C@_1KA@DOAAPBLH@?$AA?$CF?$AAs?$AA?3?$AA?5?$AA?9?$AAC?$AAP?$AAi?$AAp?$AAe?$AA?$CI?$AA?$CF?$AAs?$AA?$CJ?$AA?3?$AA?3?$AAI?$AAs?$AAP?$AAi?$AAp?$AAe?$AAH?$AAa?$AAl?$AAt?$AAe?$AAd?$AA?0?$AA?5?$AA?$CK?$AAl@| DCB "%"
	DCB	0x0, "s", 0x0, ":", 0x0, " ", 0x0, "-", 0x0, "C", 0x0, "P"
	DCB	0x0, "i", 0x0, "p", 0x0, "e", 0x0, "(", 0x0, "%", 0x0, "s"
	DCB	0x0, ")", 0x0, ":", 0x0, ":", 0x0, "I", 0x0, "s", 0x0, "P"
	DCB	0x0, "i", 0x0, "p", 0x0, "e", 0x0, "H", 0x0, "a", 0x0, "l"
	DCB	0x0, "t", 0x0, "e", 0x0, "d", 0x0, ",", 0x0, " ", 0x0, "*"
	DCB	0x0, "l", 0x0, "p", 0x0, "b", 0x0, "H", 0x0, "a", 0x0, "l"
	DCB	0x0, "t", 0x0, "e", 0x0, "d", 0x0, " ", 0x0, "=", 0x0, " "
	DCB	0x0, "%", 0x0, "d", 0x0, ",", 0x0, " ", 0x0, "r", 0x0, "e"
	DCB	0x0, "t", 0x0, "u", 0x0, "r", 0x0, "n", 0x0, "i", 0x0, "n"
	DCB	0x0, "g", 0x0, " ", 0x0, "H", 0x0, "C", 0x0, "D", 0x0, "_"
	DCB	0x0, "R", 0x0, "E", 0x0, "Q", 0x0, "U", 0x0, "E", 0x0, "S"
	DCB	0x0, "T", 0x0, "_", 0x0, "S", 0x0, "T", 0x0, "A", 0x0, "T"
	DCB	0x0, "U", 0x0, "S", 0x0, " ", 0x0, "%", 0x0, "d", 0x0, 0xa
	DCB	0x0, 0x0, 0x0				; `string'

  00000			 AREA	 |.rdata|, DATA, READONLY
|??_C@_1LK@LMPDOKKA@?$AAC?$AA?3?$AA?2?$AAW?$AAI?$AAN?$AAC?$AAE?$AA6?$AA0?$AA0?$AA?2?$AAP?$AAL?$AAA?$AAT?$AAF?$AAO?$AAR?$AAM?$AA?2?$AAC?$AAO?$AAM?$AAM?$AAO?$AAN?$AA?2?$AAS?$AAR?$AAC?$AA?2@| DCB "C"
	DCB	0x0, ":", 0x0, "\\", 0x0, "W", 0x0, "I", 0x0, "N", 0x0, "C"
	DCB	0x0, "E", 0x0, "6", 0x0, "0", 0x0, "0", 0x0, "\\", 0x0, "P"
	DCB	0x0, "L", 0x0, "A", 0x0, "T", 0x0, "F", 0x0, "O", 0x0, "R"
	DCB	0x0, "M", 0x0, "\\", 0x0, "C", 0x0, "O", 0x0, "M", 0x0, "M"
	DCB	0x0, "O", 0x0, "N", 0x0, "\\", 0x0, "S", 0x0, "R", 0x0, "C"
	DCB	0x0, "\\", 0x0, "S", 0x0, "O", 0x0, "C", 0x0, "\\", 0x0, "C"
	DCB	0x0, "O", 0x0, "M", 0x0, "M", 0x0, "O", 0x0, "N", 0x0, "_"
	DCB	0x0, "T", 0x0, "I", 0x0, "_", 0x0, "V", 0x0, "1", 0x0, "\\"
	DCB	0x0, "O", 0x0, "M", 0x0, "A", 0x0, "P", 0x0, "3", 0x0, "5"
	DCB	0x0, "3", 0x0, "0", 0x0, "\\", 0x0, "M", 0x0, "U", 0x0, "S"
	DCB	0x0, "B", 0x0, "\\", 0x0, "M", 0x0, "U", 0x0, "S", 0x0, "B"
	DCB	0x0, "H", 0x0, "C", 0x0, "D", 0x0, "\\", 0x0, "M", 0x0, "U"
	DCB	0x0, "S", 0x0, "B", 0x0, "M", 0x0, "H", 0x0, "D", 0x0, "R"
	DCB	0x0, "C", 0x0, "\\", 0x0, ".", 0x0, "\\", 0x0, "c", 0x0, "p"
	DCB	0x0, "i", 0x0, "p", 0x0, "e", 0x0, ".", 0x0, "c", 0x0, "p"
	DCB	0x0, "p", 0x0, 0x0, 0x0			; `string'

  00000			 AREA	 |.rdata|, DATA, READONLY
|??_C@_1DM@MOOGPODG@?$AA?$CF?$AAs?$AA?3?$AA?5?$AA?$CL?$AAC?$AAP?$AAi?$AAp?$AAe?$AA?$CI?$AA?$CF?$AAs?$AA?$CJ?$AA?3?$AA?3?$AAI?$AAs?$AAP?$AAi?$AAp?$AAe?$AAH?$AAa?$AAl?$AAt?$AAe?$AAd?$AA?6?$AA?$AA@| DCB "%"
	DCB	0x0, "s", 0x0, ":", 0x0, " ", 0x0, "+", 0x0, "C", 0x0, "P"
	DCB	0x0, "i", 0x0, "p", 0x0, "e", 0x0, "(", 0x0, "%", 0x0, "s"
	DCB	0x0, ")", 0x0, ":", 0x0, ":", 0x0, "I", 0x0, "s", 0x0, "P"
	DCB	0x0, "i", 0x0, "p", 0x0, "e", 0x0, "H", 0x0, "a", 0x0, "l"
	DCB	0x0, "t", 0x0, "e", 0x0, "d", 0x0, 0xa, 0x0, 0x0, 0x0 ; `string'
; Function compile flags: /Odtp

  006b4			 AREA	 |.text|, CODE, ARM

  006b4		 |?IsPipeHalted@CPipe@@UAA?AW4HCD_REQUEST_STATUS@@QAH@Z| PROC ; CPipe::IsPipeHalted

; 265  : {

  006b4		 |$LN12@IsPipeHalt|
  006b4	e1a0c00d	 mov         r12, sp
  006b8	e92d0003	 stmdb       sp!, {r0, r1}
  006bc	e92d5000	 stmdb       sp!, {r12, lr}
  006c0	e24dd028	 sub         sp, sp, #0x28
  006c4		 |$M37678|

; 266  :     DEBUGMSG( ZONE_PIPE && ZONE_VERBOSE, (TEXT("%s: +CPipe(%s)::IsPipeHalted\n"),GetControllerName(), GetPipeType()) );

  006c4	e59f3174	 ldr         r3, [pc, #0x174]
  006c8	e5933440	 ldr         r3, [r3, #0x440]
  006cc	e3130080	 tst         r3, #0x80
  006d0	0a000015	 beq         |$LN4@IsPipeHalt|
  006d4	e59f3164	 ldr         r3, [pc, #0x164]
  006d8	e5933440	 ldr         r3, [r3, #0x440]
  006dc	e3130a01	 tst         r3, #1, 20
  006e0	0a000011	 beq         |$LN4@IsPipeHalt|
  006e4	e59d3030	 ldr         r3, [sp, #0x30]
  006e8	e5933000	 ldr         r3, [r3]
  006ec	e2833040	 add         r3, r3, #0x40
  006f0	e59d0030	 ldr         r0, [sp, #0x30]
  006f4	e5933000	 ldr         r3, [r3]
  006f8	e1a0e00f	 mov         lr, pc
  006fc	e12fff13	 bx          r3
  00700	e58d000c	 str         r0, [sp, #0xC]
  00704	e59d0030	 ldr         r0, [sp, #0x30]
  00708	eb000000	 bl          |?GetControllerName@CPipe@@QBAPBGXZ|
  0070c	e58d0010	 str         r0, [sp, #0x10]
  00710	e59d200c	 ldr         r2, [sp, #0xC]
  00714	e59d1010	 ldr         r1, [sp, #0x10]
  00718	e59f012c	 ldr         r0, [pc, #0x12C]
  0071c	eb000000	 bl          NKDbgPrintfW
  00720	e3a03001	 mov         r3, #1
  00724	e58d3014	 str         r3, [sp, #0x14]
  00728	ea000001	 b           |$LN5@IsPipeHalt|
  0072c		 |$LN4@IsPipeHalt|
  0072c	e3a03000	 mov         r3, #0
  00730	e58d3014	 str         r3, [sp, #0x14]
  00734		 |$LN5@IsPipeHalt|

; 267  : 
; 268  :     DEBUGCHK( lpbHalted ); // should be checked by CUhcd

  00734	e59d3034	 ldr         r3, [sp, #0x34]
  00738	e3530000	 cmp         r3, #0
  0073c	0a000002	 beq         |$LN6@IsPipeHalt|
  00740	e3a03001	 mov         r3, #1
  00744	e58d3018	 str         r3, [sp, #0x18]
  00748	ea000007	 b           |$LN7@IsPipeHalt|
  0074c		 |$LN6@IsPipeHalt|
  0074c	e3a03f43	 mov         r3, #0x43, 30
  00750	e59f20f0	 ldr         r2, [pc, #0xF0]
  00754	e59f10e4	 ldr         r1, [pc, #0xE4]
  00758	e59f00e4	 ldr         r0, [pc, #0xE4]
  0075c	eb000000	 bl          NKDbgPrintfW
  00760	e6000010	 __debugbreak_ce
  00764	e3a03000	 mov         r3, #0
  00768	e58d3018	 str         r3, [sp, #0x18]
  0076c		 |$LN7@IsPipeHalt|

; 269  : 
; 270  :     EnterCriticalSection( &m_csPipeLock );

  0076c	e59d3030	 ldr         r3, [sp, #0x30]
  00770	e2830020	 add         r0, r3, #0x20
  00774	eb000000	 bl          EnterCriticalSection

; 271  :     if (lpbHalted)

  00778	e59d3034	 ldr         r3, [sp, #0x34]
  0077c	e3530000	 cmp         r3, #0
  00780	0a000004	 beq         |$LN1@IsPipeHalt|

; 272  :         *lpbHalted = m_fIsHalted;

  00784	e59d3030	 ldr         r3, [sp, #0x30]
  00788	e2833044	 add         r3, r3, #0x44
  0078c	e5932000	 ldr         r2, [r3]
  00790	e59d3034	 ldr         r3, [sp, #0x34]
  00794	e5832000	 str         r2, [r3]
  00798		 |$LN1@IsPipeHalt|

; 273  :     LeaveCriticalSection( &m_csPipeLock );

  00798	e59d3030	 ldr         r3, [sp, #0x30]
  0079c	e2830020	 add         r0, r3, #0x20
  007a0	eb000000	 bl          LeaveCriticalSection

; 274  : 
; 275  :     DEBUGMSG( ZONE_PIPE && ZONE_VERBOSE, (TEXT("%s: -CPipe(%s)::IsPipeHalted, *lpbHalted = %d, returning HCD_REQUEST_STATUS %d\n"),GetControllerName(), GetPipeType(), *lpbHalted, requestOK) );

  007a4	e59f3094	 ldr         r3, [pc, #0x94]
  007a8	e5933440	 ldr         r3, [r3, #0x440]
  007ac	e3130080	 tst         r3, #0x80
  007b0	0a000019	 beq         |$LN8@IsPipeHalt|
  007b4	e59f3084	 ldr         r3, [pc, #0x84]
  007b8	e5933440	 ldr         r3, [r3, #0x440]
  007bc	e3130a01	 tst         r3, #1, 20
  007c0	0a000015	 beq         |$LN8@IsPipeHalt|
  007c4	e59d3030	 ldr         r3, [sp, #0x30]
  007c8	e5933000	 ldr         r3, [r3]
  007cc	e2833040	 add         r3, r3, #0x40
  007d0	e59d0030	 ldr         r0, [sp, #0x30]
  007d4	e5933000	 ldr         r3, [r3]
  007d8	e1a0e00f	 mov         lr, pc
  007dc	e12fff13	 bx          r3
  007e0	e58d001c	 str         r0, [sp, #0x1C]
  007e4	e59d0030	 ldr         r0, [sp, #0x30]
  007e8	eb000000	 bl          |?GetControllerName@CPipe@@QBAPBGXZ|
  007ec	e58d0020	 str         r0, [sp, #0x20]
  007f0	e3a03001	 mov         r3, #1
  007f4	e58d3000	 str         r3, [sp]
  007f8	e59d3034	 ldr         r3, [sp, #0x34]
  007fc	e5933000	 ldr         r3, [r3]
  00800	e59d201c	 ldr         r2, [sp, #0x1C]
  00804	e59d1020	 ldr         r1, [sp, #0x20]
  00808	e59f002c	 ldr         r0, [pc, #0x2C]
  0080c	eb000000	 bl          NKDbgPrintfW
  00810	e3a03001	 mov         r3, #1
  00814	e58d3024	 str         r3, [sp, #0x24]
  00818	ea000001	 b           |$LN9@IsPipeHalt|
  0081c		 |$LN8@IsPipeHalt|
  0081c	e3a03000	 mov         r3, #0
  00820	e58d3024	 str         r3, [sp, #0x24]
  00824		 |$LN9@IsPipeHalt|

; 276  :     return requestOK;

  00824	e3a03001	 mov         r3, #1
  00828	e58d3008	 str         r3, [sp, #8]

; 277  : }

  0082c	e59d0008	 ldr         r0, [sp, #8]
  00830	e28dd028	 add         sp, sp, #0x28
  00834	e89d6000	 ldmia       sp, {sp, lr}
  00838	e12fff1e	 bx          lr
  0083c		 |$LN13@IsPipeHalt|
  0083c		 |$LN14@IsPipeHalt|
  0083c	00000000	 DCD         |??_C@_1KA@DOAAPBLH@?$AA?$CF?$AAs?$AA?3?$AA?5?$AA?9?$AAC?$AAP?$AAi?$AAp?$AAe?$AA?$CI?$AA?$CF?$AAs?$AA?$CJ?$AA?3?$AA?3?$AAI?$AAs?$AAP?$AAi?$AAp?$AAe?$AAH?$AAa?$AAl?$AAt?$AAe?$AAd?$AA?0?$AA?5?$AA?$CK?$AAl@|
  00840		 |$LN15@IsPipeHalt|
  00840	00000000	 DCD         |dpCurSettings|
  00844		 |$LN16@IsPipeHalt|
  00844	00000000	 DCD         |??_C@_1FK@FNONLNGN@?$AA?$CF?$AAs?$AA?3?$AA?5?$AAD?$AAE?$AAB?$AAU?$AAG?$AAC?$AAH?$AAK?$AA?5?$AAf?$AAa?$AAi?$AAl?$AAe?$AAd?$AA?5?$AAi?$AAn?$AA?5?$AAf?$AAi?$AAl?$AAe?$AA?5?$AA?$CF?$AAs?$AA?5?$AAa@|
  00848		 |$LN17@IsPipeHalt|
  00848	00000000	 DCD         |??_C@_1LK@LMPDOKKA@?$AAC?$AA?3?$AA?2?$AAW?$AAI?$AAN?$AAC?$AAE?$AA6?$AA0?$AA0?$AA?2?$AAP?$AAL?$AAA?$AAT?$AAF?$AAO?$AAR?$AAM?$AA?2?$AAC?$AAO?$AAM?$AAM?$AAO?$AAN?$AA?2?$AAS?$AAR?$AAC?$AA?2@|
  0084c		 |$LN18@IsPipeHalt|
  0084c	00000000	 DCD         |??_C@_1DM@MOOGPODG@?$AA?$CF?$AAs?$AA?3?$AA?5?$AA?$CL?$AAC?$AAP?$AAi?$AAp?$AAe?$AA?$CI?$AA?$CF?$AAs?$AA?$CJ?$AA?3?$AA?3?$AAI?$AAs?$AAP?$AAi?$AAp?$AAe?$AAH?$AAa?$AAl?$AAt?$AAe?$AAd?$AA?6?$AA?$AA@|
  00850		 |$M37679|

			 ENDP  ; |?IsPipeHalted@CPipe@@UAA?AW4HCD_REQUEST_STATUS@@QAH@Z|, CPipe::IsPipeHalted

	EXPORT	|??_C@_1EC@GKHNHIJJ@?$AA?$CF?$AAs?$AA?3?$AA?5?$AA?9?$AAC?$AAP?$AAi?$AAp?$AAe?$AA?$CI?$AA?$CF?$AAs?$AA?$CJ?$AA?3?$AA?3?$AAC?$AAl?$AAe?$AAa?$AAr?$AAH?$AAa?$AAl?$AAt?$AAe?$AAd?$AAF?$AAl?$AAa?$AAg?$AA?6@| [ DATA ] ; `string'
	EXPORT	|??_C@_1IM@NKPHGHDL@?$AA?$CF?$AAs?$AA?3?$AA?5?$AAC?$AAP?$AAi?$AAp?$AAe?$AA?$CI?$AA?$CF?$AAs?$AA?$CJ?$AA?3?$AA?3?$AAC?$AAl?$AAe?$AAa?$AAr?$AAH?$AAa?$AAl?$AAt?$AAe?$AAd?$AAF?$AAl?$AAa?$AAg?$AA?5?$AA?9@| [ DATA ] ; `string'
	EXPORT	|??_C@_1EC@PJOFPLC@?$AA?$CF?$AAs?$AA?3?$AA?5?$AA?$CL?$AAC?$AAP?$AAi?$AAp?$AAe?$AA?$CI?$AA?$CF?$AAs?$AA?$CJ?$AA?3?$AA?3?$AAC?$AAl?$AAe?$AAa?$AAr?$AAH?$AAa?$AAl?$AAt?$AAe?$AAd?$AAF?$AAl?$AAa?$AAg?$AA?6@| [ DATA ] ; `string'

  00038			 AREA	 |.pdata|, PDATA
|$T37698| DCD	|$LN11@ClearHalte|
	DCD	0x40006a04

  00000			 AREA	 |.rdata|, DATA, READONLY
|??_C@_1EC@GKHNHIJJ@?$AA?$CF?$AAs?$AA?3?$AA?5?$AA?9?$AAC?$AAP?$AAi?$AAp?$AAe?$AA?$CI?$AA?$CF?$AAs?$AA?$CJ?$AA?3?$AA?3?$AAC?$AAl?$AAe?$AAa?$AAr?$AAH?$AAa?$AAl?$AAt?$AAe?$AAd?$AAF?$AAl?$AAa?$AAg?$AA?6@| DCB "%"
	DCB	0x0, "s", 0x0, ":", 0x0, " ", 0x0, "-", 0x0, "C", 0x0, "P"
	DCB	0x0, "i", 0x0, "p", 0x0, "e", 0x0, "(", 0x0, "%", 0x0, "s"
	DCB	0x0, ")", 0x0, ":", 0x0, ":", 0x0, "C", 0x0, "l", 0x0, "e"
	DCB	0x0, "a", 0x0, "r", 0x0, "H", 0x0, "a", 0x0, "l", 0x0, "t"
	DCB	0x0, "e", 0x0, "d", 0x0, "F", 0x0, "l", 0x0, "a", 0x0, "g"
	DCB	0x0, 0xa, 0x0, 0x0, 0x0			; `string'

  00000			 AREA	 |.rdata|, DATA, READONLY
|??_C@_1IM@NKPHGHDL@?$AA?$CF?$AAs?$AA?3?$AA?5?$AAC?$AAP?$AAi?$AAp?$AAe?$AA?$CI?$AA?$CF?$AAs?$AA?$CJ?$AA?3?$AA?3?$AAC?$AAl?$AAe?$AAa?$AAr?$AAH?$AAa?$AAl?$AAt?$AAe?$AAd?$AAF?$AAl?$AAa?$AAg?$AA?5?$AA?9@| DCB "%"
	DCB	0x0, "s", 0x0, ":", 0x0, " ", 0x0, "C", 0x0, "P", 0x0, "i"
	DCB	0x0, "p", 0x0, "e", 0x0, "(", 0x0, "%", 0x0, "s", 0x0, ")"
	DCB	0x0, ":", 0x0, ":", 0x0, "C", 0x0, "l", 0x0, "e", 0x0, "a"
	DCB	0x0, "r", 0x0, "H", 0x0, "a", 0x0, "l", 0x0, "t", 0x0, "e"
	DCB	0x0, "d", 0x0, "F", 0x0, "l", 0x0, "a", 0x0, "g", 0x0, " "
	DCB	0x0, "-", 0x0, " ", 0x0, "w", 0x0, "a", 0x0, "r", 0x0, "n"
	DCB	0x0, "i", 0x0, "n", 0x0, "g", 0x0, "!", 0x0, " ", 0x0, "C"
	DCB	0x0, "a", 0x0, "l", 0x0, "l", 0x0, "e", 0x0, "d", 0x0, " "
	DCB	0x0, "o", 0x0, "n", 0x0, " ", 0x0, "n", 0x0, "o", 0x0, "n"
	DCB	0x0, "-", 0x0, "s", 0x0, "t", 0x0, "a", 0x0, "l", 0x0, "l"
	DCB	0x0, "e", 0x0, "d", 0x0, " ", 0x0, "p", 0x0, "i", 0x0, "p"
	DCB	0x0, "e", 0x0, 0xa, 0x0, 0x0, 0x0	; `string'

  00000			 AREA	 |.rdata|, DATA, READONLY
|??_C@_1EC@PJOFPLC@?$AA?$CF?$AAs?$AA?3?$AA?5?$AA?$CL?$AAC?$AAP?$AAi?$AAp?$AAe?$AA?$CI?$AA?$CF?$AAs?$AA?$CJ?$AA?3?$AA?3?$AAC?$AAl?$AAe?$AAa?$AAr?$AAH?$AAa?$AAl?$AAt?$AAe?$AAd?$AAF?$AAl?$AAa?$AAg?$AA?6@| DCB "%"
	DCB	0x0, "s", 0x0, ":", 0x0, " ", 0x0, "+", 0x0, "C", 0x0, "P"
	DCB	0x0, "i", 0x0, "p", 0x0, "e", 0x0, "(", 0x0, "%", 0x0, "s"
	DCB	0x0, ")", 0x0, ":", 0x0, ":", 0x0, "C", 0x0, "l", 0x0, "e"
	DCB	0x0, "a", 0x0, "r", 0x0, "H", 0x0, "a", 0x0, "l", 0x0, "t"
	DCB	0x0, "e", 0x0, "d", 0x0, "F", 0x0, "l", 0x0, "a", 0x0, "g"
	DCB	0x0, 0xa, 0x0, 0x0, 0x0			; `string'
; Function compile flags: /Odtp

  00850			 AREA	 |.text|, CODE, ARM

  00850		 |?ClearHaltedFlag@CPipe@@UAAXXZ| PROC	; CPipe::ClearHaltedFlag

; 288  : {

  00850		 |$LN11@ClearHalte|
  00850	e1a0c00d	 mov         r12, sp
  00854	e92d0001	 stmdb       sp!, {r0}
  00858	e92d5000	 stmdb       sp!, {r12, lr}
  0085c	e24dd024	 sub         sp, sp, #0x24
  00860		 |$M37695|

; 289  :     DEBUGMSG( ZONE_PIPE && ZONE_VERBOSE, (TEXT("%s: +CPipe(%s)::ClearHaltedFlag\n"),GetControllerName(), GetPipeType() ) );

  00860	e59f3184	 ldr         r3, [pc, #0x184]
  00864	e5933440	 ldr         r3, [r3, #0x440]
  00868	e3130080	 tst         r3, #0x80
  0086c	0a000015	 beq         |$LN3@ClearHalte|
  00870	e59f3174	 ldr         r3, [pc, #0x174]
  00874	e5933440	 ldr         r3, [r3, #0x440]
  00878	e3130a01	 tst         r3, #1, 20
  0087c	0a000011	 beq         |$LN3@ClearHalte|
  00880	e59d302c	 ldr         r3, [sp, #0x2C]
  00884	e5933000	 ldr         r3, [r3]
  00888	e2833040	 add         r3, r3, #0x40
  0088c	e59d002c	 ldr         r0, [sp, #0x2C]
  00890	e5933000	 ldr         r3, [r3]
  00894	e1a0e00f	 mov         lr, pc
  00898	e12fff13	 bx          r3
  0089c	e58d0000	 str         r0, [sp]
  008a0	e59d002c	 ldr         r0, [sp, #0x2C]
  008a4	eb000000	 bl          |?GetControllerName@CPipe@@QBAPBGXZ|
  008a8	e58d0004	 str         r0, [sp, #4]
  008ac	e59d2000	 ldr         r2, [sp]
  008b0	e59d1004	 ldr         r1, [sp, #4]
  008b4	e59f0138	 ldr         r0, [pc, #0x138]
  008b8	eb000000	 bl          NKDbgPrintfW
  008bc	e3a03001	 mov         r3, #1
  008c0	e58d3008	 str         r3, [sp, #8]
  008c4	ea000001	 b           |$LN4@ClearHalte|
  008c8		 |$LN3@ClearHalte|
  008c8	e3a03000	 mov         r3, #0
  008cc	e58d3008	 str         r3, [sp, #8]
  008d0		 |$LN4@ClearHalte|

; 290  : 
; 291  :     EnterCriticalSection( &m_csPipeLock );

  008d0	e59d302c	 ldr         r3, [sp, #0x2C]
  008d4	e2830020	 add         r0, r3, #0x20
  008d8	eb000000	 bl          EnterCriticalSection

; 292  :     DEBUGMSG( ZONE_WARNING && !m_fIsHalted, (TEXT("%s: CPipe(%s)::ClearHaltedFlag - warning! Called on non-stalled pipe\n"),GetControllerName(), GetPipeType()) );

  008dc	e59f3108	 ldr         r3, [pc, #0x108]
  008e0	e5933440	 ldr         r3, [r3, #0x440]
  008e4	e3130a02	 tst         r3, #2, 20
  008e8	0a000016	 beq         |$LN5@ClearHalte|
  008ec	e59d302c	 ldr         r3, [sp, #0x2C]
  008f0	e2833044	 add         r3, r3, #0x44
  008f4	e5933000	 ldr         r3, [r3]
  008f8	e3530000	 cmp         r3, #0
  008fc	1a000011	 bne         |$LN5@ClearHalte|
  00900	e59d302c	 ldr         r3, [sp, #0x2C]
  00904	e5933000	 ldr         r3, [r3]
  00908	e2833040	 add         r3, r3, #0x40
  0090c	e59d002c	 ldr         r0, [sp, #0x2C]
  00910	e5933000	 ldr         r3, [r3]
  00914	e1a0e00f	 mov         lr, pc
  00918	e12fff13	 bx          r3
  0091c	e58d000c	 str         r0, [sp, #0xC]
  00920	e59d002c	 ldr         r0, [sp, #0x2C]
  00924	eb000000	 bl          |?GetControllerName@CPipe@@QBAPBGXZ|
  00928	e58d0010	 str         r0, [sp, #0x10]
  0092c	e59d200c	 ldr         r2, [sp, #0xC]
  00930	e59d1010	 ldr         r1, [sp, #0x10]
  00934	e59f00b4	 ldr         r0, [pc, #0xB4]
  00938	eb000000	 bl          NKDbgPrintfW
  0093c	e3a03001	 mov         r3, #1
  00940	e58d3014	 str         r3, [sp, #0x14]
  00944	ea000001	 b           |$LN6@ClearHalte|
  00948		 |$LN5@ClearHalte|
  00948	e3a03000	 mov         r3, #0
  0094c	e58d3014	 str         r3, [sp, #0x14]
  00950		 |$LN6@ClearHalte|

; 293  :     m_fIsHalted = FALSE;

  00950	e59d302c	 ldr         r3, [sp, #0x2C]
  00954	e2832044	 add         r2, r3, #0x44
  00958	e3a03000	 mov         r3, #0
  0095c	e5823000	 str         r3, [r2]

; 294  :     LeaveCriticalSection( &m_csPipeLock );

  00960	e59d302c	 ldr         r3, [sp, #0x2C]
  00964	e2830020	 add         r0, r3, #0x20
  00968	eb000000	 bl          LeaveCriticalSection

; 295  : 
; 296  :     DEBUGMSG( ZONE_PIPE && ZONE_VERBOSE, (TEXT("%s: -CPipe(%s)::ClearHaltedFlag\n"),GetControllerName(), GetPipeType()) );

  0096c	e59f3078	 ldr         r3, [pc, #0x78]
  00970	e5933440	 ldr         r3, [r3, #0x440]
  00974	e3130080	 tst         r3, #0x80
  00978	0a000015	 beq         |$LN7@ClearHalte|
  0097c	e59f3068	 ldr         r3, [pc, #0x68]
  00980	e5933440	 ldr         r3, [r3, #0x440]
  00984	e3130a01	 tst         r3, #1, 20
  00988	0a000011	 beq         |$LN7@ClearHalte|
  0098c	e59d302c	 ldr         r3, [sp, #0x2C]
  00990	e5933000	 ldr         r3, [r3]
  00994	e2833040	 add         r3, r3, #0x40
  00998	e59d002c	 ldr         r0, [sp, #0x2C]
  0099c	e5933000	 ldr         r3, [r3]
  009a0	e1a0e00f	 mov         lr, pc
  009a4	e12fff13	 bx          r3
  009a8	e58d0018	 str         r0, [sp, #0x18]
  009ac	e59d002c	 ldr         r0, [sp, #0x2C]
  009b0	eb000000	 bl          |?GetControllerName@CPipe@@QBAPBGXZ|
  009b4	e58d001c	 str         r0, [sp, #0x1C]
  009b8	e59d2018	 ldr         r2, [sp, #0x18]
  009bc	e59d101c	 ldr         r1, [sp, #0x1C]
  009c0	e59f0020	 ldr         r0, [pc, #0x20]
  009c4	eb000000	 bl          NKDbgPrintfW
  009c8	e3a03001	 mov         r3, #1
  009cc	e58d3020	 str         r3, [sp, #0x20]
  009d0	ea000001	 b           |$LN8@ClearHalte|
  009d4		 |$LN7@ClearHalte|
  009d4	e3a03000	 mov         r3, #0
  009d8	e58d3020	 str         r3, [sp, #0x20]
  009dc		 |$LN8@ClearHalte|

; 297  : }

  009dc	e28dd024	 add         sp, sp, #0x24
  009e0	e89d6000	 ldmia       sp, {sp, lr}
  009e4	e12fff1e	 bx          lr
  009e8		 |$LN12@ClearHalte|
  009e8		 |$LN13@ClearHalte|
  009e8	00000000	 DCD         |??_C@_1EC@GKHNHIJJ@?$AA?$CF?$AAs?$AA?3?$AA?5?$AA?9?$AAC?$AAP?$AAi?$AAp?$AAe?$AA?$CI?$AA?$CF?$AAs?$AA?$CJ?$AA?3?$AA?3?$AAC?$AAl?$AAe?$AAa?$AAr?$AAH?$AAa?$AAl?$AAt?$AAe?$AAd?$AAF?$AAl?$AAa?$AAg?$AA?6@|
  009ec		 |$LN14@ClearHalte|
  009ec	00000000	 DCD         |dpCurSettings|
  009f0		 |$LN15@ClearHalte|
  009f0	00000000	 DCD         |??_C@_1IM@NKPHGHDL@?$AA?$CF?$AAs?$AA?3?$AA?5?$AAC?$AAP?$AAi?$AAp?$AAe?$AA?$CI?$AA?$CF?$AAs?$AA?$CJ?$AA?3?$AA?3?$AAC?$AAl?$AAe?$AAa?$AAr?$AAH?$AAa?$AAl?$AAt?$AAe?$AAd?$AAF?$AAl?$AAa?$AAg?$AA?5?$AA?9@|
  009f4		 |$LN16@ClearHalte|
  009f4	00000000	 DCD         |??_C@_1EC@PJOFPLC@?$AA?$CF?$AAs?$AA?3?$AA?5?$AA?$CL?$AAC?$AAP?$AAi?$AAp?$AAe?$AA?$CI?$AA?$CF?$AAs?$AA?$CJ?$AA?3?$AA?3?$AAC?$AAl?$AAe?$AAa?$AAr?$AAH?$AAa?$AAl?$AAt?$AAe?$AAd?$AAF?$AAl?$AAa?$AAg?$AA?6@|
  009f8		 |$M37696|

			 ENDP  ; |?ClearHaltedFlag@CPipe@@UAAXXZ|, CPipe::ClearHaltedFlag

	EXPORT	|??_C@_1EC@HHJLHFCG@?$AAR?$AAe?$AAs?$AAe?$AAt?$AAE?$AAn?$AAd?$AAP?$AAo?$AAi?$AAn?$AAt?$AA?5?$AAa?$AAt?$AA?5?$AAe?$AAn?$AAd?$AAp?$AAo?$AAi?$AAn?$AAt?$AA?5?$AA0?$AAx?$AA?$CF?$AAx?$AA?$AN?$AA?6@| [ DATA ] ; `string'
	IMPORT	|?ResetEndPoint@CHW@@QAAXE@Z|		; CHW::ResetEndPoint

  00040			 AREA	 |.pdata|, PDATA
|$T37710| DCD	|$LN7@ResetEndPo|
	DCD	0x40002004

  00000			 AREA	 |.rdata|, DATA, READONLY
|??_C@_1EC@HHJLHFCG@?$AAR?$AAe?$AAs?$AAe?$AAt?$AAE?$AAn?$AAd?$AAP?$AAo?$AAi?$AAn?$AAt?$AA?5?$AAa?$AAt?$AA?5?$AAe?$AAn?$AAd?$AAp?$AAo?$AAi?$AAn?$AAt?$AA?5?$AA0?$AAx?$AA?$CF?$AAx?$AA?$AN?$AA?6@| DCB "R"
	DCB	0x0, "e", 0x0, "s", 0x0, "e", 0x0, "t", 0x0, "E", 0x0, "n"
	DCB	0x0, "d", 0x0, "P", 0x0, "o", 0x0, "i", 0x0, "n", 0x0, "t"
	DCB	0x0, " ", 0x0, "a", 0x0, "t", 0x0, " ", 0x0, "e", 0x0, "n"
	DCB	0x0, "d", 0x0, "p", 0x0, "o", 0x0, "i", 0x0, "n", 0x0, "t"
	DCB	0x0, " ", 0x0, "0", 0x0, "x", 0x0, "%", 0x0, "x", 0x0, 0xd
	DCB	0x0, 0xa, 0x0, 0x0, 0x0			; `string'
; Function compile flags: /Odtp

  009f8			 AREA	 |.text|, CODE, ARM

  009f8		 |?ResetEndPoint@CPipe@@UAAXXZ| PROC	; CPipe::ResetEndPoint

; 300  : {

  009f8		 |$LN7@ResetEndPo|
  009f8	e1a0c00d	 mov         r12, sp
  009fc	e92d0001	 stmdb       sp!, {r0}
  00a00	e92d5000	 stmdb       sp!, {r12, lr}
  00a04	e24dd004	 sub         sp, sp, #4
  00a08		 |$M37707|

; 301  :     EnterCriticalSection(&m_csPipeLock);

  00a08	e59d300c	 ldr         r3, [sp, #0xC]
  00a0c	e2830020	 add         r0, r3, #0x20
  00a10	eb000000	 bl          EnterCriticalSection

; 302  :     RETAILMSG(1, (TEXT("ResetEndPoint at endpoint 0x%x\r\n"), m_bEndpointAddress));

  00a14	e59d300c	 ldr         r3, [sp, #0xC]
  00a18	e2833004	 add         r3, r3, #4
  00a1c	e5d33000	 ldrb        r3, [r3]
  00a20	e1a01003	 mov         r1, r3
  00a24	e59f0048	 ldr         r0, [pc, #0x48]
  00a28	eb000000	 bl          NKDbgPrintfW
  00a2c	e3a03001	 mov         r3, #1
  00a30	e58d3000	 str         r3, [sp]
  00a34	ea000001	 b           |$LN4@ResetEndPo|
  00a38	e3a03000	 mov         r3, #0
  00a3c	e58d3000	 str         r3, [sp]
  00a40		 |$LN4@ResetEndPo|

; 303  :     m_pCMhcd->ResetEndPoint(m_bEndpointAddress);

  00a40	e59d300c	 ldr         r3, [sp, #0xC]
  00a44	e2833004	 add         r3, r3, #4
  00a48	e5d31000	 ldrb        r1, [r3]
  00a4c	e59d300c	 ldr         r3, [sp, #0xC]
  00a50	e283300c	 add         r3, r3, #0xC
  00a54	e5930000	 ldr         r0, [r3]
  00a58	eb000000	 bl          |?ResetEndPoint@CHW@@QAAXE@Z|

; 304  :     LeaveCriticalSection(&m_csPipeLock);

  00a5c	e59d300c	 ldr         r3, [sp, #0xC]
  00a60	e2830020	 add         r0, r3, #0x20
  00a64	eb000000	 bl          LeaveCriticalSection

; 305  : }

  00a68	e28dd004	 add         sp, sp, #4
  00a6c	e89d6000	 ldmia       sp, {sp, lr}
  00a70	e12fff1e	 bx          lr
  00a74		 |$LN8@ResetEndPo|
  00a74		 |$LN9@ResetEndPo|
  00a74	00000000	 DCD         |??_C@_1EC@HHJLHFCG@?$AAR?$AAe?$AAs?$AAe?$AAt?$AAE?$AAn?$AAd?$AAP?$AAo?$AAi?$AAn?$AAt?$AA?5?$AAa?$AAt?$AA?5?$AAe?$AAn?$AAd?$AAp?$AAo?$AAi?$AAn?$AAt?$AA?5?$AA0?$AAx?$AA?$CF?$AAx?$AA?$AN?$AA?6@|
  00a78		 |$M37708|

			 ENDP  ; |?ResetEndPoint@CPipe@@UAAXXZ|, CPipe::ResetEndPoint

	EXPORT	|??_C@_1DO@EAAMDDJ@?$AA?$CF?$AAs?$AA?3?$AA?5?$AA?9?$AAC?$AAQ?$AAu?$AAe?$AAu?$AAe?$AAd?$AAP?$AAi?$AAp?$AAe?$AA?3?$AA?3?$AAC?$AAQ?$AAu?$AAe?$AAu?$AAe?$AAd?$AAP?$AAi?$AAp?$AAe?$AA?6?$AA?$AA@| [ DATA ] ; `string'
	EXPORT	|??_C@_1DO@BNNDGIN@?$AA?$CF?$AAs?$AA?3?$AA?5?$AA?$CL?$AAC?$AAQ?$AAu?$AAe?$AAu?$AAe?$AAd?$AAP?$AAi?$AAp?$AAe?$AA?3?$AA?3?$AAC?$AAQ?$AAu?$AAe?$AAu?$AAe?$AAd?$AAP?$AAi?$AAp?$AAe?$AA?6?$AA?$AA@| [ DATA ] ; `string'
	EXPORT	|??_7CQueuedPipe@@6B@| [ DATA ]		; CQueuedPipe::`vftable'
	EXPORT	|??0CQueuedPipe@@QAA@QBU_USB_ENDPOINT_DESCRIPTOR@@HHEEEHQAVCMhcd@@@Z| ; CQueuedPipe::CQueuedPipe
	EXPORT	|?IssueTransfer@CQueuedPipe@@UAA?AW4HCD_REQUEST_STATUS@@EQ6AKPAX@ZQAXKQBXKKQBKK2K3QAK5QAH55@Z| ; CQueuedPipe::IssueTransfer
	EXPORT	|?AbortTransfer@CQueuedPipe@@UAA?AW4HCD_REQUEST_STATUS@@Q6AKPAX@ZQAXPBX@Z| ; CQueuedPipe::AbortTransfer
	EXPORT	|?ClearHaltedFlag@CQueuedPipe@@UAAXXZ|	; CQueuedPipe::ClearHaltedFlag
	EXPORT	|?ScheduleTransfer@CQueuedPipe@@UAA?AW4HCD_REQUEST_STATUS@@XZ| ; CQueuedPipe::ScheduleTransfer
	EXPORT	|?CheckForDoneTransfers@CQueuedPipe@@UAAHXZ| ; CQueuedPipe::CheckForDoneTransfers
	EXPORT	|?ProcessEP@CQueuedPipe@@UAAHKH@Z|	; CQueuedPipe::ProcessEP
	EXPORT	|?GetQHead@CQueuedPipe@@UAAPAVCQH@@XZ|	; CQueuedPipe::GetQHead
	IMPORT	|??_ECQueuedPipe@@UAAPAXI@Z|, WEAK |??_GCQueuedPipe@@UAAPAXI@Z| ; CQueuedPipe::`vector deleting destructor', CQueuedPipe::`scalar deleting destructor'

  00048			 AREA	 |.pdata|, PDATA
|$T37727| DCD	|$LN9@CQueuedPip|
	DCD	0x40005304

  00000			 AREA	 |.rdata|, DATA, READONLY
|??_C@_1DO@EAAMDDJ@?$AA?$CF?$AAs?$AA?3?$AA?5?$AA?9?$AAC?$AAQ?$AAu?$AAe?$AAu?$AAe?$AAd?$AAP?$AAi?$AAp?$AAe?$AA?3?$AA?3?$AAC?$AAQ?$AAu?$AAe?$AAu?$AAe?$AAd?$AAP?$AAi?$AAp?$AAe?$AA?6?$AA?$AA@| DCB "%"
	DCB	0x0, "s", 0x0, ":", 0x0, " ", 0x0, "-", 0x0, "C", 0x0, "Q"
	DCB	0x0, "u", 0x0, "e", 0x0, "u", 0x0, "e", 0x0, "d", 0x0, "P"
	DCB	0x0, "i", 0x0, "p", 0x0, "e", 0x0, ":", 0x0, ":", 0x0, "C"
	DCB	0x0, "Q", 0x0, "u", 0x0, "e", 0x0, "u", 0x0, "e", 0x0, "d"
	DCB	0x0, "P", 0x0, "i", 0x0, "p", 0x0, "e", 0x0, 0xa, 0x0, 0x0
	DCB	0x0					; `string'

  00000			 AREA	 |.rdata|, DATA, READONLY
|??_C@_1DO@BNNDGIN@?$AA?$CF?$AAs?$AA?3?$AA?5?$AA?$CL?$AAC?$AAQ?$AAu?$AAe?$AAu?$AAe?$AAd?$AAP?$AAi?$AAp?$AAe?$AA?3?$AA?3?$AAC?$AAQ?$AAu?$AAe?$AAu?$AAe?$AAd?$AAP?$AAi?$AAp?$AAe?$AA?6?$AA?$AA@| DCB "%"
	DCB	0x0, "s", 0x0, ":", 0x0, " ", 0x0, "+", 0x0, "C", 0x0, "Q"
	DCB	0x0, "u", 0x0, "e", 0x0, "u", 0x0, "e", 0x0, "d", 0x0, "P"
	DCB	0x0, "i", 0x0, "p", 0x0, "e", 0x0, ":", 0x0, ":", 0x0, "C"
	DCB	0x0, "Q", 0x0, "u", 0x0, "e", 0x0, "u", 0x0, "e", 0x0, "d"
	DCB	0x0, "P", 0x0, "i", 0x0, "p", 0x0, "e", 0x0, 0xa, 0x0, 0x0
	DCB	0x0					; `string'

  00000			 AREA	 |.rdata|, DATA, READONLY
|??_7CQueuedPipe@@6B@| DCD |??_ECQueuedPipe@@UAAPAXI@Z|	; CQueuedPipe::`vftable'
	DCD	|_purecall|
	DCD	|_purecall|
	DCD	|?IssueTransfer@CQueuedPipe@@UAA?AW4HCD_REQUEST_STATUS@@EQ6AKPAX@ZQAXKQBXKKQBKK2K3QAK5QAH55@Z|
	DCD	|?AbortTransfer@CQueuedPipe@@UAA?AW4HCD_REQUEST_STATUS@@Q6AKPAX@ZQAXPBX@Z|
	DCD	|?IsPipeHalted@CPipe@@UAA?AW4HCD_REQUEST_STATUS@@QAH@Z|
	DCD	|?ClearHaltedFlag@CQueuedPipe@@UAAXXZ|
	DCD	|?ResetEndPoint@CPipe@@UAAXXZ|
	DCD	|?ChangeMaxPacketSize@CPipeAbs@@UAAXG@Z|
	DCD	|?SetReservedDeviceAddr@CPipe@@UAAHE@Z|
	DCD	|?GetReservedDeviceAddr@CPipe@@UAAEXZ|
	DCD	|?GetCPhysMem@CPipe@@UAAPAVCPhysMem@@XZ|
	DCD	|?ScheduleTransfer@CQueuedPipe@@UAA?AW4HCD_REQUEST_STATUS@@XZ|
	DCD	|?CheckForDoneTransfers@CQueuedPipe@@UAAHXZ|
	DCD	|?ProcessEP@CQueuedPipe@@UAAHKH@Z|
	DCD	|_purecall|
	DCD	|_purecall|
	DCD	|?GetQHead@CQueuedPipe@@UAAPAVCQH@@XZ|
	DCD	|_purecall|
; Function compile flags: /Odtp

  00a78			 AREA	 |.text|, CODE, ARM

  00a78		 |??0CQueuedPipe@@QAA@QBU_USB_ENDPOINT_DESCRIPTOR@@HHEEEHQAVCMhcd@@@Z| PROC ; CQueuedPipe::CQueuedPipe

; 323  : {

  00a78		 |$LN9@CQueuedPip|
  00a78	e1a0c00d	 mov         r12, sp
  00a7c	e92d000f	 stmdb       sp!, {r0 - r3}
  00a80	e92d5000	 stmdb       sp!, {r12, lr}
  00a84	e24dd040	 sub         sp, sp, #0x40
  00a88		 |$M37724|
  00a88	e59d3068	 ldr         r3, [sp, #0x68]
  00a8c	e58d3010	 str         r3, [sp, #0x10]
  00a90	e59d3064	 ldr         r3, [sp, #0x64]
  00a94	e58d300c	 str         r3, [sp, #0xC]
  00a98	e5dd3060	 ldrb        r3, [sp, #0x60]
  00a9c	e58d3008	 str         r3, [sp, #8]
  00aa0	e5dd305c	 ldrb        r3, [sp, #0x5C]
  00aa4	e58d3004	 str         r3, [sp, #4]
  00aa8	e5dd3058	 ldrb        r3, [sp, #0x58]
  00aac	e58d3000	 str         r3, [sp]
  00ab0	e59d3054	 ldr         r3, [sp, #0x54]
  00ab4	e59d2050	 ldr         r2, [sp, #0x50]
  00ab8	e59d104c	 ldr         r1, [sp, #0x4C]
  00abc	e59d0048	 ldr         r0, [sp, #0x48]
  00ac0	eb000000	 bl          |??0CPipe@@QAA@QBU_USB_ENDPOINT_DESCRIPTOR@@HHEEEHQAVCMhcd@@@Z|
  00ac4	e58d002c	 str         r0, [sp, #0x2C]
  00ac8	e59f20f0	 ldr         r2, [pc, #0xF0]
  00acc	e59d3048	 ldr         r3, [sp, #0x48]
  00ad0	e5832000	 str         r2, [r3]

; 324  :     DEBUGMSG( ZONE_PIPE && ZONE_VERBOSE, (TEXT("%s: +CQueuedPipe::CQueuedPipe\n"),GetControllerName()) );

  00ad4	e59f30dc	 ldr         r3, [pc, #0xDC]
  00ad8	e5933440	 ldr         r3, [r3, #0x440]
  00adc	e3130080	 tst         r3, #0x80
  00ae0	0a00000c	 beq         |$LN3@CQueuedPip|
  00ae4	e59f30cc	 ldr         r3, [pc, #0xCC]
  00ae8	e5933440	 ldr         r3, [r3, #0x440]
  00aec	e3130a01	 tst         r3, #1, 20
  00af0	0a000008	 beq         |$LN3@CQueuedPip|
  00af4	e59d0048	 ldr         r0, [sp, #0x48]
  00af8	eb000000	 bl          |?GetControllerName@CPipe@@QBAPBGXZ|
  00afc	e58d0030	 str         r0, [sp, #0x30]
  00b00	e59d1030	 ldr         r1, [sp, #0x30]
  00b04	e59f00b0	 ldr         r0, [pc, #0xB0]
  00b08	eb000000	 bl          NKDbgPrintfW
  00b0c	e3a03001	 mov         r3, #1
  00b10	e58d3034	 str         r3, [sp, #0x34]
  00b14	ea000001	 b           |$LN4@CQueuedPip|
  00b18		 |$LN3@CQueuedPip|
  00b18	e3a03000	 mov         r3, #0
  00b1c	e58d3034	 str         r3, [sp, #0x34]
  00b20		 |$LN4@CQueuedPip|

; 325  :     m_pPipeQHead = NULL;

  00b20	e59d3048	 ldr         r3, [sp, #0x48]
  00b24	e2832064	 add         r2, r3, #0x64
  00b28	e3a03000	 mov         r3, #0
  00b2c	e5823000	 str         r3, [r2]

; 326  :     m_pUnQueuedTransfer=NULL;      // ptr to last transfer in queue

  00b30	e59d3048	 ldr         r3, [sp, #0x48]
  00b34	e2832068	 add         r2, r3, #0x68
  00b38	e3a03000	 mov         r3, #0
  00b3c	e5823000	 str         r3, [r2]

; 327  :     m_pQueuedTransfer=NULL;

  00b40	e59d3048	 ldr         r3, [sp, #0x48]
  00b44	e283206c	 add         r2, r3, #0x6C
  00b48	e3a03000	 mov         r3, #0
  00b4c	e5823000	 str         r3, [r2]

; 328  :     DEBUGMSG( ZONE_PIPE && ZONE_VERBOSE, (TEXT("%s: -CQueuedPipe::CQueuedPipe\n"),GetControllerName()) );

  00b50	e59f3060	 ldr         r3, [pc, #0x60]
  00b54	e5933440	 ldr         r3, [r3, #0x440]
  00b58	e3130080	 tst         r3, #0x80
  00b5c	0a00000c	 beq         |$LN5@CQueuedPip|
  00b60	e59f3050	 ldr         r3, [pc, #0x50]
  00b64	e5933440	 ldr         r3, [r3, #0x440]
  00b68	e3130a01	 tst         r3, #1, 20
  00b6c	0a000008	 beq         |$LN5@CQueuedPip|
  00b70	e59d0048	 ldr         r0, [sp, #0x48]
  00b74	eb000000	 bl          |?GetControllerName@CPipe@@QBAPBGXZ|
  00b78	e58d0038	 str         r0, [sp, #0x38]
  00b7c	e59d1038	 ldr         r1, [sp, #0x38]
  00b80	e59f002c	 ldr         r0, [pc, #0x2C]
  00b84	eb000000	 bl          NKDbgPrintfW
  00b88	e3a03001	 mov         r3, #1
  00b8c	e58d303c	 str         r3, [sp, #0x3C]
  00b90	ea000001	 b           |$LN6@CQueuedPip|
  00b94		 |$LN5@CQueuedPip|
  00b94	e3a03000	 mov         r3, #0
  00b98	e58d303c	 str         r3, [sp, #0x3C]
  00b9c		 |$LN6@CQueuedPip|

; 329  : }

  00b9c	e59d3048	 ldr         r3, [sp, #0x48]
  00ba0	e58d3028	 str         r3, [sp, #0x28]
  00ba4	e59d0028	 ldr         r0, [sp, #0x28]
  00ba8	e28dd040	 add         sp, sp, #0x40
  00bac	e89d6000	 ldmia       sp, {sp, lr}
  00bb0	e12fff1e	 bx          lr
  00bb4		 |$LN10@CQueuedPip|
  00bb4		 |$LN11@CQueuedPip|
  00bb4	00000000	 DCD         |??_C@_1DO@EAAMDDJ@?$AA?$CF?$AAs?$AA?3?$AA?5?$AA?9?$AAC?$AAQ?$AAu?$AAe?$AAu?$AAe?$AAd?$AAP?$AAi?$AAp?$AAe?$AA?3?$AA?3?$AAC?$AAQ?$AAu?$AAe?$AAu?$AAe?$AAd?$AAP?$AAi?$AAp?$AAe?$AA?6?$AA?$AA@|
  00bb8		 |$LN12@CQueuedPip|
  00bb8	00000000	 DCD         |dpCurSettings|
  00bbc		 |$LN13@CQueuedPip|
  00bbc	00000000	 DCD         |??_C@_1DO@BNNDGIN@?$AA?$CF?$AAs?$AA?3?$AA?5?$AA?$CL?$AAC?$AAQ?$AAu?$AAe?$AAu?$AAe?$AAd?$AAP?$AAi?$AAp?$AAe?$AA?3?$AA?3?$AAC?$AAQ?$AAu?$AAe?$AAu?$AAe?$AAd?$AAP?$AAi?$AAp?$AAe?$AA?6?$AA?$AA@|
  00bc0		 |$LN14@CQueuedPip|
  00bc0	00000000	 DCD         |??_7CQueuedPipe@@6B@|
  00bc4		 |$M37725|

			 ENDP  ; |??0CQueuedPipe@@QAA@QBU_USB_ENDPOINT_DESCRIPTOR@@HHEEEHQAVCMhcd@@@Z|, CQueuedPipe::CQueuedPipe

; File c:\wince600\platform\common\src\soc\common_ti_v1\omap3530\musb\musbhcd\musbmhdrc\cpipe.h

  00000			 AREA	 |.pdata|, PDATA
|$T37738| DCD	|$LN5@GetQHead|
	DCD	0x40000c04
; Function compile flags: /Odtp

  00000			 AREA	 |.text|, CODE, ARM

  00000		 |?GetQHead@CQueuedPipe@@UAAPAVCQH@@XZ| PROC ; CQueuedPipe::GetQHead

; 208  :     CQH *  GetQHead() { return m_pPipeQHead; };

  00000		 |$LN5@GetQHead|
  00000	e1a0c00d	 mov         r12, sp
  00004	e92d0001	 stmdb       sp!, {r0}
  00008	e92d5000	 stmdb       sp!, {r12, lr}
  0000c	e24dd004	 sub         sp, sp, #4
  00010		 |$M37735|
  00010	e59d300c	 ldr         r3, [sp, #0xC]
  00014	e2833064	 add         r3, r3, #0x64
  00018	e5933000	 ldr         r3, [r3]
  0001c	e58d3000	 str         r3, [sp]
  00020	e59d0000	 ldr         r0, [sp]
  00024	e28dd004	 add         sp, sp, #4
  00028	e89d6000	 ldmia       sp, {sp, lr}
  0002c	e12fff1e	 bx          lr
  00030		 |$M37736|

			 ENDP  ; |?GetQHead@CQueuedPipe@@UAAPAVCQH@@XZ|, CQueuedPipe::GetQHead

	EXPORT	|??1CQueuedPipe@@UAA@XZ|		; CQueuedPipe::~CQueuedPipe

  00000			 AREA	 |.pdata|, PDATA
|$T37746| DCD	|$LN6@scalar@3|
	DCD	0x40001104
; Function compile flags: /Odtp

  00000			 AREA	 |.text|, CODE, ARM

  00000		 |??_GCQueuedPipe@@UAAPAXI@Z| PROC	; CQueuedPipe::`scalar deleting destructor'
  00000		 |$LN6@scalar@3|
  00000	e1a0c00d	 mov         r12, sp
  00004	e92d0003	 stmdb       sp!, {r0, r1}
  00008	e92d5000	 stmdb       sp!, {r12, lr}
  0000c	e24dd004	 sub         sp, sp, #4
  00010		 |$M37743|
  00010	e59d000c	 ldr         r0, [sp, #0xC]
  00014	eb000000	 bl          |??1CQueuedPipe@@UAA@XZ|
  00018	e59d3010	 ldr         r3, [sp, #0x10]
  0001c	e3130001	 tst         r3, #1
  00020	0a000001	 beq         |$LN1@scalar@3|
  00024	e59d000c	 ldr         r0, [sp, #0xC]
  00028	eb000000	 bl          |??3@YAXPAX@Z|
  0002c		 |$LN1@scalar@3|
  0002c	e59d300c	 ldr         r3, [sp, #0xC]
  00030	e58d3000	 str         r3, [sp]
  00034	e59d0000	 ldr         r0, [sp]
  00038	e28dd004	 add         sp, sp, #4
  0003c	e89d6000	 ldmia       sp, {sp, lr}
  00040	e12fff1e	 bx          lr
  00044		 |$M37744|

			 ENDP  ; |??_GCQueuedPipe@@UAAPAXI@Z|, CQueuedPipe::`scalar deleting destructor'

	EXPORT	|??_C@_1EA@IIPDNKCC@?$AA?$CF?$AAs?$AA?3?$AA?5?$AA?9?$AAC?$AAQ?$AAu?$AAe?$AAu?$AAe?$AAd?$AAP?$AAi?$AAp?$AAe?$AA?3?$AA?3?$AA?$HO?$AAC?$AAQ?$AAu?$AAe?$AAu?$AAe?$AAd?$AAP?$AAi?$AAp?$AAe?$AA?6?$AA?$AA@| [ DATA ] ; `string'
	EXPORT	|??_C@_1EA@MFINLCNA@?$AA?$CF?$AAs?$AA?3?$AA?5?$AA?$CL?$AAC?$AAQ?$AAu?$AAe?$AAu?$AAe?$AAd?$AAP?$AAi?$AAp?$AAe?$AA?3?$AA?3?$AA?$HO?$AAC?$AAQ?$AAu?$AAe?$AAu?$AAe?$AAd?$AAP?$AAi?$AAp?$AAe?$AA?6?$AA?$AA@| [ DATA ] ; `string'

  00050			 AREA	 |.pdata|, PDATA
|$T37763| DCD	|$LN15@CQueuedPip@2|
	DCD	0x40007104
; File c:\wince600\platform\common\src\soc\common_ti_v1\omap3530\musb\musbhcd\musbmhdrc\cpipe.cpp

  00000			 AREA	 |.rdata|, DATA, READONLY
|??_C@_1EA@IIPDNKCC@?$AA?$CF?$AAs?$AA?3?$AA?5?$AA?9?$AAC?$AAQ?$AAu?$AAe?$AAu?$AAe?$AAd?$AAP?$AAi?$AAp?$AAe?$AA?3?$AA?3?$AA?$HO?$AAC?$AAQ?$AAu?$AAe?$AAu?$AAe?$AAd?$AAP?$AAi?$AAp?$AAe?$AA?6?$AA?$AA@| DCB "%"
	DCB	0x0, "s", 0x0, ":", 0x0, " ", 0x0, "-", 0x0, "C", 0x0, "Q"
	DCB	0x0, "u", 0x0, "e", 0x0, "u", 0x0, "e", 0x0, "d", 0x0, "P"
	DCB	0x0, "i", 0x0, "p", 0x0, "e", 0x0, ":", 0x0, ":", 0x0, "~"
	DCB	0x0, "C", 0x0, "Q", 0x0, "u", 0x0, "e", 0x0, "u", 0x0, "e"
	DCB	0x0, "d", 0x0, "P", 0x0, "i", 0x0, "p", 0x0, "e", 0x0, 0xa
	DCB	0x0, 0x0, 0x0				; `string'

  00000			 AREA	 |.rdata|, DATA, READONLY
|??_C@_1EA@MFINLCNA@?$AA?$CF?$AAs?$AA?3?$AA?5?$AA?$CL?$AAC?$AAQ?$AAu?$AAe?$AAu?$AAe?$AAd?$AAP?$AAi?$AAp?$AAe?$AA?3?$AA?3?$AA?$HO?$AAC?$AAQ?$AAu?$AAe?$AAu?$AAe?$AAd?$AAP?$AAi?$AAp?$AAe?$AA?6?$AA?$AA@| DCB "%"
	DCB	0x0, "s", 0x0, ":", 0x0, " ", 0x0, "+", 0x0, "C", 0x0, "Q"
	DCB	0x0, "u", 0x0, "e", 0x0, "u", 0x0, "e", 0x0, "d", 0x0, "P"
	DCB	0x0, "i", 0x0, "p", 0x0, "e", 0x0, ":", 0x0, ":", 0x0, "~"
	DCB	0x0, "C", 0x0, "Q", 0x0, "u", 0x0, "e", 0x0, "u", 0x0, "e"
	DCB	0x0, "d", 0x0, "P", 0x0, "i", 0x0, "p", 0x0, "e", 0x0, 0xa
	DCB	0x0, 0x0, 0x0				; `string'
; Function compile flags: /Odtp

  00bc4			 AREA	 |.text|, CODE, ARM

  00bc4		 |??1CQueuedPipe@@UAA@XZ| PROC		; CQueuedPipe::~CQueuedPipe

; 343  : {

  00bc4		 |$LN15@CQueuedPip@2|
  00bc4	e1a0c00d	 mov         r12, sp
  00bc8	e92d0001	 stmdb       sp!, {r0}
  00bcc	e92d5000	 stmdb       sp!, {r12, lr}
  00bd0	e24dd01c	 sub         sp, sp, #0x1C
  00bd4		 |$M37760|
  00bd4	e59f21a8	 ldr         r2, [pc, #0x1A8]
  00bd8	e59d3024	 ldr         r3, [sp, #0x24]
  00bdc	e5832000	 str         r2, [r3]

; 344  :     DEBUGMSG( ZONE_PIPE && ZONE_VERBOSE, (TEXT("%s: +CQueuedPipe::~CQueuedPipe\n"),GetControllerName()) );

  00be0	e59f3188	 ldr         r3, [pc, #0x188]
  00be4	e5933440	 ldr         r3, [r3, #0x440]
  00be8	e3130080	 tst         r3, #0x80
  00bec	0a00000c	 beq         |$LN3@CQueuedPip@2|
  00bf0	e59f3178	 ldr         r3, [pc, #0x178]
  00bf4	e5933440	 ldr         r3, [r3, #0x440]
  00bf8	e3130a01	 tst         r3, #1, 20
  00bfc	0a000008	 beq         |$LN3@CQueuedPip@2|
  00c00	e59d0024	 ldr         r0, [sp, #0x24]
  00c04	eb000000	 bl          |?GetControllerName@CPipe@@QBAPBGXZ|
  00c08	e58d0000	 str         r0, [sp]
  00c0c	e59d1000	 ldr         r1, [sp]
  00c10	e59f0168	 ldr         r0, [pc, #0x168]
  00c14	eb000000	 bl          NKDbgPrintfW
  00c18	e3a03001	 mov         r3, #1
  00c1c	e58d3004	 str         r3, [sp, #4]
  00c20	ea000001	 b           |$LN4@CQueuedPip@2|
  00c24		 |$LN3@CQueuedPip@2|
  00c24	e3a03000	 mov         r3, #0
  00c28	e58d3004	 str         r3, [sp, #4]
  00c2c		 |$LN4@CQueuedPip@2|

; 345  :     // queue should be freed via ClosePipe before calling destructor
; 346  :     EnterCriticalSection( &m_csPipeLock );

  00c2c	e59d3024	 ldr         r3, [sp, #0x24]
  00c30	e2830020	 add         r0, r3, #0x20
  00c34	eb000000	 bl          EnterCriticalSection

; 347  :     ASSERT(m_pPipeQHead == NULL);

  00c38	e59d3024	 ldr         r3, [sp, #0x24]
  00c3c	e2833064	 add         r3, r3, #0x64
  00c40	e5933000	 ldr         r3, [r3]
  00c44	e3530000	 cmp         r3, #0
  00c48	1a000002	 bne         |$LN5@CQueuedPip@2|
  00c4c	e3a03001	 mov         r3, #1
  00c50	e58d3008	 str         r3, [sp, #8]
  00c54	ea000008	 b           |$LN6@CQueuedPip@2|
  00c58		 |$LN5@CQueuedPip@2|
  00c58	e3a03c01	 mov         r3, #1, 24
  00c5c	e383305b	 orr         r3, r3, #0x5B
  00c60	e59f2114	 ldr         r2, [pc, #0x114]
  00c64	e59f110c	 ldr         r1, [pc, #0x10C]
  00c68	e59f0104	 ldr         r0, [pc, #0x104]
  00c6c	eb000000	 bl          NKDbgPrintfW
  00c70	e6000010	 __debugbreak_ce
  00c74	e3a03000	 mov         r3, #0
  00c78	e58d3008	 str         r3, [sp, #8]
  00c7c		 |$LN6@CQueuedPip@2|

; 348  :     ASSERT(m_pUnQueuedTransfer==NULL);      // ptr to last transfer in queue

  00c7c	e59d3024	 ldr         r3, [sp, #0x24]
  00c80	e2833068	 add         r3, r3, #0x68
  00c84	e5933000	 ldr         r3, [r3]
  00c88	e3530000	 cmp         r3, #0
  00c8c	1a000002	 bne         |$LN7@CQueuedPip@2|
  00c90	e3a03001	 mov         r3, #1
  00c94	e58d300c	 str         r3, [sp, #0xC]
  00c98	ea000007	 b           |$LN8@CQueuedPip@2|
  00c9c		 |$LN7@CQueuedPip@2|
  00c9c	e3a03f57	 mov         r3, #0x57, 30
  00ca0	e59f20d4	 ldr         r2, [pc, #0xD4]
  00ca4	e59f10cc	 ldr         r1, [pc, #0xCC]
  00ca8	e59f00c4	 ldr         r0, [pc, #0xC4]
  00cac	eb000000	 bl          NKDbgPrintfW
  00cb0	e6000010	 __debugbreak_ce
  00cb4	e3a03000	 mov         r3, #0
  00cb8	e58d300c	 str         r3, [sp, #0xC]
  00cbc		 |$LN8@CQueuedPip@2|

; 349  :     ASSERT(m_pQueuedTransfer==NULL);

  00cbc	e59d3024	 ldr         r3, [sp, #0x24]
  00cc0	e283306c	 add         r3, r3, #0x6C
  00cc4	e5933000	 ldr         r3, [r3]
  00cc8	e3530000	 cmp         r3, #0
  00ccc	1a000002	 bne         |$LN9@CQueuedPip@2|
  00cd0	e3a03001	 mov         r3, #1
  00cd4	e58d3010	 str         r3, [sp, #0x10]
  00cd8	ea000008	 b           |$LN10@CQueuedPip@2|
  00cdc		 |$LN9@CQueuedPip@2|
  00cdc	e3a03c01	 mov         r3, #1, 24
  00ce0	e383305d	 orr         r3, r3, #0x5D
  00ce4	e59f2090	 ldr         r2, [pc, #0x90]
  00ce8	e59f1088	 ldr         r1, [pc, #0x88]
  00cec	e59f0080	 ldr         r0, [pc, #0x80]
  00cf0	eb000000	 bl          NKDbgPrintfW
  00cf4	e6000010	 __debugbreak_ce
  00cf8	e3a03000	 mov         r3, #0
  00cfc	e58d3010	 str         r3, [sp, #0x10]
  00d00		 |$LN10@CQueuedPip@2|

; 350  :     LeaveCriticalSection( &m_csPipeLock );

  00d00	e59d3024	 ldr         r3, [sp, #0x24]
  00d04	e2830020	 add         r0, r3, #0x20
  00d08	eb000000	 bl          LeaveCriticalSection

; 351  :     DEBUGMSG( ZONE_PIPE && ZONE_VERBOSE, (TEXT("%s: -CQueuedPipe::~CQueuedPipe\n"),GetControllerName()) );

  00d0c	e59f305c	 ldr         r3, [pc, #0x5C]
  00d10	e5933440	 ldr         r3, [r3, #0x440]
  00d14	e3130080	 tst         r3, #0x80
  00d18	0a00000c	 beq         |$LN11@CQueuedPip@2|
  00d1c	e59f304c	 ldr         r3, [pc, #0x4C]
  00d20	e5933440	 ldr         r3, [r3, #0x440]
  00d24	e3130a01	 tst         r3, #1, 20
  00d28	0a000008	 beq         |$LN11@CQueuedPip@2|
  00d2c	e59d0024	 ldr         r0, [sp, #0x24]
  00d30	eb000000	 bl          |?GetControllerName@CPipe@@QBAPBGXZ|
  00d34	e58d0014	 str         r0, [sp, #0x14]
  00d38	e59d1014	 ldr         r1, [sp, #0x14]
  00d3c	e59f0028	 ldr         r0, [pc, #0x28]
  00d40	eb000000	 bl          NKDbgPrintfW
  00d44	e3a03001	 mov         r3, #1
  00d48	e58d3018	 str         r3, [sp, #0x18]
  00d4c	ea000001	 b           |$LN12@CQueuedPip@2|
  00d50		 |$LN11@CQueuedPip@2|
  00d50	e3a03000	 mov         r3, #0
  00d54	e58d3018	 str         r3, [sp, #0x18]
  00d58		 |$LN12@CQueuedPip@2|

; 352  : }

  00d58	e59d0024	 ldr         r0, [sp, #0x24]
  00d5c	eb000000	 bl          |??1CPipe@@UAA@XZ|
  00d60	e28dd01c	 add         sp, sp, #0x1C
  00d64	e89d6000	 ldmia       sp, {sp, lr}
  00d68	e12fff1e	 bx          lr
  00d6c		 |$LN16@CQueuedPip@2|
  00d6c		 |$LN17@CQueuedPip@2|
  00d6c	00000000	 DCD         |??_C@_1EA@IIPDNKCC@?$AA?$CF?$AAs?$AA?3?$AA?5?$AA?9?$AAC?$AAQ?$AAu?$AAe?$AAu?$AAe?$AAd?$AAP?$AAi?$AAp?$AAe?$AA?3?$AA?3?$AA?$HO?$AAC?$AAQ?$AAu?$AAe?$AAu?$AAe?$AAd?$AAP?$AAi?$AAp?$AAe?$AA?6?$AA?$AA@|
  00d70		 |$LN18@CQueuedPip@2|
  00d70	00000000	 DCD         |dpCurSettings|
  00d74		 |$LN19@CQueuedPip@2|
  00d74	00000000	 DCD         |??_C@_1FK@FNONLNGN@?$AA?$CF?$AAs?$AA?3?$AA?5?$AAD?$AAE?$AAB?$AAU?$AAG?$AAC?$AAH?$AAK?$AA?5?$AAf?$AAa?$AAi?$AAl?$AAe?$AAd?$AA?5?$AAi?$AAn?$AA?5?$AAf?$AAi?$AAl?$AAe?$AA?5?$AA?$CF?$AAs?$AA?5?$AAa@|
  00d78		 |$LN20@CQueuedPip@2|
  00d78	00000000	 DCD         |??_C@_1BA@LEPJIIOK@?$AAU?$AAn?$AAk?$AAn?$AAo?$AAw?$AAn?$AA?$AA@|
  00d7c		 |$LN21@CQueuedPip@2|
  00d7c	00000000	 DCD         |??_C@_1LK@LMPDOKKA@?$AAC?$AA?3?$AA?2?$AAW?$AAI?$AAN?$AAC?$AAE?$AA6?$AA0?$AA0?$AA?2?$AAP?$AAL?$AAA?$AAT?$AAF?$AAO?$AAR?$AAM?$AA?2?$AAC?$AAO?$AAM?$AAM?$AAO?$AAN?$AA?2?$AAS?$AAR?$AAC?$AA?2@|
  00d80		 |$LN22@CQueuedPip@2|
  00d80	00000000	 DCD         |??_C@_1EA@MFINLCNA@?$AA?$CF?$AAs?$AA?3?$AA?5?$AA?$CL?$AAC?$AAQ?$AAu?$AAe?$AAu?$AAe?$AAd?$AAP?$AAi?$AAp?$AAe?$AA?3?$AA?3?$AA?$HO?$AAC?$AAQ?$AAu?$AAe?$AAu?$AAe?$AAd?$AAP?$AAi?$AAp?$AAe?$AA?6?$AA?$AA@|
  00d84		 |$LN23@CQueuedPip@2|
  00d84	00000000	 DCD         |??_7CQueuedPipe@@6B@|
  00d88		 |$M37761|

			 ENDP  ; |??1CQueuedPipe@@UAA@XZ|, CQueuedPipe::~CQueuedPipe

	EXPORT	|??_C@_1KO@FHDEKCOL@?$AA?9?$AAC?$AAQ?$AAu?$AAe?$AAu?$AAe?$AAd?$AAP?$AAi?$AAp?$AAe?$AA?$CI?$AA?$CF?$AAs?$AA?$CJ?$AA?3?$AA?3?$AAA?$AAb?$AAo?$AAr?$AAt?$AAT?$AAr?$AAa?$AAn?$AAs?$AAf?$AAe?$AAr?$AA?5@| [ DATA ] ; `string'
	EXPORT	|??_C@_1KK@MJOJEDBO@?$AA?$CF?$AAs?$AA?3?$AA?5?$AAC?$AAQ?$AAu?$AAe?$AAu?$AAe?$AAd?$AAP?$AAi?$AAp?$AAe?$AA?3?$AA?3?$AAA?$AAb?$AAo?$AAr?$AAt?$AAT?$AAr?$AAa?$AAn?$AAs?$AAf?$AAe?$AAr?$AA?5?$AA?9@| [ DATA ] ; `string'
	EXPORT	|?ClearTDList@CQH@@QAAXXZ|		; CQH::ClearTDList
	EXPORT	|?InvalidNextTD@CQH@@QAAXXZ|		; CQH::InvalidNextTD
	EXPORT	|?SetNextTransfer@CTransfer@@QAAXPAV1@@Z| ; CTransfer::SetNextTransfer
	EXPORT	|?GetNextTransfer@CTransfer@@QAAPAV1@XZ| ; CTransfer::GetNextTransfer
	EXPORT	|?GetSTransfer@CTransfer@@QAA?AUSTRANSFER@@XZ| ; CTransfer::GetSTransfer
	EXPORT	|??_C@_1HE@CKKPODL@?$AA?$CF?$AAs?$AA?3?$AA?5?$AA?$CL?$AAC?$AAQ?$AAu?$AAe?$AAu?$AAe?$AAd?$AAP?$AAi?$AAp?$AAe?$AA?$CI?$AA?$CF?$AAs?$AA?$CJ?$AA?3?$AA?3?$AAA?$AAb?$AAo?$AAr?$AAt?$AAT?$AAr?$AAa?$AAn?$AAs@| [ DATA ] ; `string'
	IMPORT	|?DoneTransfer@CQTransfer@@QAAHXZ|	; CQTransfer::DoneTransfer
	IMPORT	|Sleep|
	IMPORT	|?AbortTransfer@CQTransfer@@QAAHXZ|	; CQTransfer::AbortTransfer
	IMPORT	|__C_specific_handler|

  00058			 AREA	 |.pdata|, PDATA
|$T37802| DCD	|$LN36@AbortTrans|
	DCD	0xc000fa05
|$T37804| DCD	|$LN26@AbortTrans|
	DCD	0x40000a01

  00000			 AREA	 |.rdata|, DATA, READONLY
|??_C@_1KO@FHDEKCOL@?$AA?9?$AAC?$AAQ?$AAu?$AAe?$AAu?$AAe?$AAd?$AAP?$AAi?$AAp?$AAe?$AA?$CI?$AA?$CF?$AAs?$AA?$CJ?$AA?3?$AA?3?$AAA?$AAb?$AAo?$AAr?$AAt?$AAT?$AAr?$AAa?$AAn?$AAs?$AAf?$AAe?$AAr?$AA?5@| DCB "-"
	DCB	0x0, "C", 0x0, "Q", 0x0, "u", 0x0, "e", 0x0, "u", 0x0, "e"
	DCB	0x0, "d", 0x0, "P", 0x0, "i", 0x0, "p", 0x0, "e", 0x0, "("
	DCB	0x0, "%", 0x0, "s", 0x0, ")", 0x0, ":", 0x0, ":", 0x0, "A"
	DCB	0x0, "b", 0x0, "o", 0x0, "r", 0x0, "t", 0x0, "T", 0x0, "r"
	DCB	0x0, "a", 0x0, "n", 0x0, "s", 0x0, "f", 0x0, "e", 0x0, "r"
	DCB	0x0, " ", 0x0, "-", 0x0, " ", 0x0, "l", 0x0, "p", 0x0, "v"
	DCB	0x0, "C", 0x0, "a", 0x0, "n", 0x0, "c", 0x0, "e", 0x0, "l"
	DCB	0x0, "I", 0x0, "d", 0x0, " ", 0x0, "=", 0x0, " ", 0x0, "0"
	DCB	0x0, "x", 0x0, "%", 0x0, "x", 0x0, ",", 0x0, " ", 0x0, "r"
	DCB	0x0, "e", 0x0, "t", 0x0, "u", 0x0, "r", 0x0, "n", 0x0, "i"
	DCB	0x0, "n", 0x0, "g", 0x0, " ", 0x0, "H", 0x0, "C", 0x0, "D"
	DCB	0x0, "_", 0x0, "R", 0x0, "E", 0x0, "Q", 0x0, "U", 0x0, "E"
	DCB	0x0, "S", 0x0, "T", 0x0, "_", 0x0, "S", 0x0, "T", 0x0, "A"
	DCB	0x0, "T", 0x0, "U", 0x0, "S", 0x0, " ", 0x0, "%", 0x0, "d"
	DCB	0x0, 0xa, 0x0, 0x0, 0x0			; `string'

  00000			 AREA	 |.rdata|, DATA, READONLY
|??_C@_1KK@MJOJEDBO@?$AA?$CF?$AAs?$AA?3?$AA?5?$AAC?$AAQ?$AAu?$AAe?$AAu?$AAe?$AAd?$AAP?$AAi?$AAp?$AAe?$AA?3?$AA?3?$AAA?$AAb?$AAo?$AAr?$AAt?$AAT?$AAr?$AAa?$AAn?$AAs?$AAf?$AAe?$AAr?$AA?5?$AA?9@| DCB "%"
	DCB	0x0, "s", 0x0, ":", 0x0, " ", 0x0, "C", 0x0, "Q", 0x0, "u"
	DCB	0x0, "e", 0x0, "u", 0x0, "e", 0x0, "d", 0x0, "P", 0x0, "i"
	DCB	0x0, "p", 0x0, "e", 0x0, ":", 0x0, ":", 0x0, "A", 0x0, "b"
	DCB	0x0, "o", 0x0, "r", 0x0, "t", 0x0, "T", 0x0, "r", 0x0, "a"
	DCB	0x0, "n", 0x0, "s", 0x0, "f", 0x0, "e", 0x0, "r", 0x0, " "
	DCB	0x0, "-", 0x0, " ", 0x0, "e", 0x0, "x", 0x0, "c", 0x0, "e"
	DCB	0x0, "p", 0x0, "t", 0x0, "i", 0x0, "o", 0x0, "n", 0x0, " "
	DCB	0x0, "e", 0x0, "x", 0x0, "e", 0x0, "c", 0x0, "u", 0x0, "t"
	DCB	0x0, "i", 0x0, "n", 0x0, "g", 0x0, " ", 0x0, "c", 0x0, "a"
	DCB	0x0, "n", 0x0, "c", 0x0, "e", 0x0, "l", 0x0, "l", 0x0, "a"
	DCB	0x0, "t", 0x0, "i", 0x0, "o", 0x0, "n", 0x0, " ", 0x0, "c"
	DCB	0x0, "a", 0x0, "l", 0x0, "l", 0x0, "b", 0x0, "a", 0x0, "c"
	DCB	0x0, "k", 0x0, " ", 0x0, "f", 0x0, "u", 0x0, "n", 0x0, "c"
	DCB	0x0, "t", 0x0, "i", 0x0, "o", 0x0, "n", 0x0, 0xa, 0x0, 0x0
	DCB	0x0					; `string'

  00000			 AREA	 |.rdata|, DATA, READONLY
|??_C@_1HE@CKKPODL@?$AA?$CF?$AAs?$AA?3?$AA?5?$AA?$CL?$AAC?$AAQ?$AAu?$AAe?$AAu?$AAe?$AAd?$AAP?$AAi?$AAp?$AAe?$AA?$CI?$AA?$CF?$AAs?$AA?$CJ?$AA?3?$AA?3?$AAA?$AAb?$AAo?$AAr?$AAt?$AAT?$AAr?$AAa?$AAn?$AAs@| DCB "%"
	DCB	0x0, "s", 0x0, ":", 0x0, " ", 0x0, "+", 0x0, "C", 0x0, "Q"
	DCB	0x0, "u", 0x0, "e", 0x0, "u", 0x0, "e", 0x0, "d", 0x0, "P"
	DCB	0x0, "i", 0x0, "p", 0x0, "e", 0x0, "(", 0x0, "%", 0x0, "s"
	DCB	0x0, ")", 0x0, ":", 0x0, ":", 0x0, "A", 0x0, "b", 0x0, "o"
	DCB	0x0, "r", 0x0, "t", 0x0, "T", 0x0, "r", 0x0, "a", 0x0, "n"
	DCB	0x0, "s", 0x0, "f", 0x0, "e", 0x0, "r", 0x0, " ", 0x0, "-"
	DCB	0x0, " ", 0x0, "l", 0x0, "p", 0x0, "v", 0x0, "C", 0x0, "a"
	DCB	0x0, "n", 0x0, "c", 0x0, "e", 0x0, "l", 0x0, "I", 0x0, "d"
	DCB	0x0, " ", 0x0, "=", 0x0, " ", 0x0, "0", 0x0, "x", 0x0, "%"
	DCB	0x0, "x", 0x0, 0xa, 0x0, 0x0, 0x0	; `string'

  00000			 AREA	 |.xdata|, DATA
|$T37800| DCD	0x1
	DCD	|$LN30@AbortTrans|
	DCD	|$LN31@AbortTrans|
	DCD	|$LN26@AbortTrans|
	DCD	|$LN27@AbortTrans|
; Function compile flags: /Odtp

  00d88			 AREA	 |.text|, CODE, ARM

  00d88	00000000	 DCD         |__C_specific_handler|
  00d8c	00000000	 DCD         |$T37800|

  00d90		 |?AbortTransfer@CQueuedPipe@@UAA?AW4HCD_REQUEST_STATUS@@Q6AKPAX@ZQAXPBX@Z| PROC ; CQueuedPipe::AbortTransfer

; 375  : {

  00d90		 |$LN36@AbortTrans|
  00d90	e1a0c00d	 mov         r12, sp
  00d94	e92d000f	 stmdb       sp!, {r0 - r3}
  00d98	e92d5800	 stmdb       sp!, {r11, r12, lr}
  00d9c	e28db00c	 add         r11, sp, #0xC
  00da0	e24dd0e0	 sub         sp, sp, #0xE0
  00da4		 |$LN34@AbortTrans|

; 376  :     DEBUGMSG( ZONE_TRANSFER, (TEXT("%s: +CQueuedPipe(%s)::AbortTransfer - lpvCancelId = 0x%x\n"),GetControllerName(), GetPipeType(), lpvCancelId) );

  00da4	e59f33dc	 ldr         r3, [pc, #0x3DC]
  00da8	e5933440	 ldr         r3, [r3, #0x440]
  00dac	e3130c01	 tst         r3, #1, 24
  00db0	0a000012	 beq         |$LN15@AbortTrans|
  00db4	e59b3000	 ldr         r3, [r11]
  00db8	e5933000	 ldr         r3, [r3]
  00dbc	e2833040	 add         r3, r3, #0x40
  00dc0	e59b0000	 ldr         r0, [r11]
  00dc4	e5933000	 ldr         r3, [r3]
  00dc8	e1a0e00f	 mov         lr, pc
  00dcc	e12fff13	 bx          r3
  00dd0	e50b0050	 str         r0, [r11, #-0x50]
  00dd4	e59b0000	 ldr         r0, [r11]
  00dd8	eb000000	 bl          |?GetControllerName@CPipe@@QBAPBGXZ|
  00ddc	e50b004c	 str         r0, [r11, #-0x4C]
  00de0	e59b300c	 ldr         r3, [r11, #0xC]
  00de4	e51b2050	 ldr         r2, [r11, #-0x50]
  00de8	e51b104c	 ldr         r1, [r11, #-0x4C]
  00dec	e59f03a8	 ldr         r0, [pc, #0x3A8]
  00df0	eb000000	 bl          NKDbgPrintfW
  00df4	e3a03001	 mov         r3, #1
  00df8	e50b3048	 str         r3, [r11, #-0x48]
  00dfc	ea000001	 b           |$LN16@AbortTrans|
  00e00		 |$LN15@AbortTrans|
  00e00	e3a03000	 mov         r3, #0
  00e04	e50b3048	 str         r3, [r11, #-0x48]
  00e08		 |$LN16@AbortTrans|

; 377  : 
; 378  :     HCD_REQUEST_STATUS status = requestFailed;

  00e08	e3a03000	 mov         r3, #0
  00e0c	e50b30e4	 str         r3, [r11, #-0xE4]

; 379  :     BOOL fCheckSchedule = FALSE;

  00e10	e3a03000	 mov         r3, #0
  00e14	e50b30e8	 str         r3, [r11, #-0xE8]

; 380  : 
; 381  :     EnterCriticalSection( &m_csPipeLock );

  00e18	e59b3000	 ldr         r3, [r11]
  00e1c	e2830020	 add         r0, r3, #0x20
  00e20	eb000000	 bl          EnterCriticalSection

; 382  :     CQTransfer * pCurTransfer = m_pUnQueuedTransfer;

  00e24	e59b3000	 ldr         r3, [r11]
  00e28	e2833068	 add         r3, r3, #0x68
  00e2c	e5933000	 ldr         r3, [r3]
  00e30	e50b30ec	 str         r3, [r11, #-0xEC]

; 383  :     CQTransfer * pPrevTransfer= NULL;

  00e34	e3a03000	 mov         r3, #0
  00e38	e50b30e0	 str         r3, [r11, #-0xE0]
  00e3c		 |$LN12@AbortTrans|

; 384  :     while (pCurTransfer && pCurTransfer->GetSTransfer().lpvCancelId !=  lpvCancelId ) {

  00e3c	e51b30ec	 ldr         r3, [r11, #-0xEC]
  00e40	e3530000	 cmp         r3, #0
  00e44	0a000011	 beq         |$LN11@AbortTrans|
  00e48	e24b10dc	 sub         r1, r11, #0xDC
  00e4c	e51b00ec	 ldr         r0, [r11, #-0xEC]
  00e50	eb000000	 bl          |?GetSTransfer@CTransfer@@QAA?AUSTRANSFER@@XZ|
  00e54	e50b0044	 str         r0, [r11, #-0x44]
  00e58	e51b3044	 ldr         r3, [r11, #-0x44]
  00e5c	e2833028	 add         r3, r3, #0x28
  00e60	e5932000	 ldr         r2, [r3]
  00e64	e59b300c	 ldr         r3, [r11, #0xC]
  00e68	e1520003	 cmp         r2, r3
  00e6c	0a000007	 beq         |$LN11@AbortTrans|

; 385  :         pPrevTransfer = pCurTransfer;

  00e70	e51b30ec	 ldr         r3, [r11, #-0xEC]
  00e74	e50b30e0	 str         r3, [r11, #-0xE0]

; 386  :         pCurTransfer= ( CQTransfer *)pCurTransfer->GetNextTransfer();

  00e78	e51b00ec	 ldr         r0, [r11, #-0xEC]
  00e7c	eb000000	 bl          |?GetNextTransfer@CTransfer@@QAAPAV1@XZ|
  00e80	e50b0040	 str         r0, [r11, #-0x40]
  00e84	e51b3040	 ldr         r3, [r11, #-0x40]
  00e88	e50b30ec	 str         r3, [r11, #-0xEC]

; 387  :         
; 388  :     };

  00e8c	eaffffea	 b           |$LN12@AbortTrans|
  00e90		 |$LN11@AbortTrans|

; 389  :     if (pCurTransfer) { // Found Transfer that not queue yet.

  00e90	e51b30ec	 ldr         r3, [r11, #-0xEC]
  00e94	e3530000	 cmp         r3, #0
  00e98	0a000013	 beq         |$LN10@AbortTrans|

; 390  :         pCurTransfer->AbortTransfer();

  00e9c	e51b00ec	 ldr         r0, [r11, #-0xEC]
  00ea0	eb000000	 bl          |?AbortTransfer@CQTransfer@@QAAHXZ|

; 391  :         if (pPrevTransfer)

  00ea4	e51b30e0	 ldr         r3, [r11, #-0xE0]
  00ea8	e3530000	 cmp         r3, #0
  00eac	0a000006	 beq         |$LN9@AbortTrans|

; 392  :             pPrevTransfer->SetNextTransfer(pCurTransfer->GetNextTransfer());

  00eb0	e51b00ec	 ldr         r0, [r11, #-0xEC]
  00eb4	eb000000	 bl          |?GetNextTransfer@CTransfer@@QAAPAV1@XZ|
  00eb8	e50b003c	 str         r0, [r11, #-0x3C]
  00ebc	e51b103c	 ldr         r1, [r11, #-0x3C]
  00ec0	e51b00e0	 ldr         r0, [r11, #-0xE0]
  00ec4	eb000000	 bl          |?SetNextTransfer@CTransfer@@QAAXPAV1@@Z|

; 393  :         else

  00ec8	ea000006	 b           |$LN8@AbortTrans|
  00ecc		 |$LN9@AbortTrans|

; 394  :             m_pUnQueuedTransfer = ( CQTransfer *)pCurTransfer->GetNextTransfer();

  00ecc	e51b00ec	 ldr         r0, [r11, #-0xEC]
  00ed0	eb000000	 bl          |?GetNextTransfer@CTransfer@@QAAPAV1@XZ|
  00ed4	e50b0038	 str         r0, [r11, #-0x38]
  00ed8	e59b3000	 ldr         r3, [r11]
  00edc	e2832068	 add         r2, r3, #0x68
  00ee0	e51b3038	 ldr         r3, [r11, #-0x38]
  00ee4	e5823000	 str         r3, [r2]
  00ee8		 |$LN8@AbortTrans|

; 395  :     }
; 396  :     else {

  00ee8	ea00003f	 b           |$LN7@AbortTrans|
  00eec		 |$LN10@AbortTrans|

; 397  :         if (m_pQueuedTransfer!=NULL &&  m_pQueuedTransfer->GetSTransfer().lpvCancelId ==  lpvCancelId ) {

  00eec	e59b3000	 ldr         r3, [r11]
  00ef0	e283306c	 add         r3, r3, #0x6C
  00ef4	e5933000	 ldr         r3, [r3]
  00ef8	e3530000	 cmp         r3, #0
  00efc	0a00002e	 beq         |$LN6@AbortTrans|
  00f00	e24b109c	 sub         r1, r11, #0x9C
  00f04	e59b3000	 ldr         r3, [r11]
  00f08	e283306c	 add         r3, r3, #0x6C
  00f0c	e5930000	 ldr         r0, [r3]
  00f10	eb000000	 bl          |?GetSTransfer@CTransfer@@QAA?AUSTRANSFER@@XZ|
  00f14	e50b0034	 str         r0, [r11, #-0x34]
  00f18	e51b3034	 ldr         r3, [r11, #-0x34]
  00f1c	e2833028	 add         r3, r3, #0x28
  00f20	e5932000	 ldr         r2, [r3]
  00f24	e59b300c	 ldr         r3, [r11, #0xC]
  00f28	e1520003	 cmp         r2, r3
  00f2c	1a000022	 bne         |$LN6@AbortTrans|

; 398  :             // This is one in the schdeule
; 399  :             // Not sure if it needs to do something here.
; 400  :             m_pQueuedTransfer->AbortTransfer();           

  00f30	e59b3000	 ldr         r3, [r11]
  00f34	e283306c	 add         r3, r3, #0x6C
  00f38	e5930000	 ldr         r0, [r3]
  00f3c	eb000000	 bl          |?AbortTransfer@CQTransfer@@QAAHXZ|

; 401  :             GetQHead()->InvalidNextTD(); 

  00f40	e59b3000	 ldr         r3, [r11]
  00f44	e5933000	 ldr         r3, [r3]
  00f48	e2833044	 add         r3, r3, #0x44
  00f4c	e59b0000	 ldr         r0, [r11]
  00f50	e5933000	 ldr         r3, [r3]
  00f54	e1a0e00f	 mov         lr, pc
  00f58	e12fff13	 bx          r3
  00f5c	e50b0030	 str         r0, [r11, #-0x30]
  00f60	e51b0030	 ldr         r0, [r11, #-0x30]
  00f64	eb000000	 bl          |?InvalidNextTD@CQH@@QAAXXZ|

; 402  :             Sleep(2);// this sleep is for Interrupt Pipe;

  00f68	e3a00002	 mov         r0, #2
  00f6c	eb000000	 bl          Sleep

; 403  :             pCurTransfer = m_pQueuedTransfer;

  00f70	e59b3000	 ldr         r3, [r11]
  00f74	e283306c	 add         r3, r3, #0x6C
  00f78	e5933000	 ldr         r3, [r3]
  00f7c	e50b30ec	 str         r3, [r11, #-0xEC]

; 404  :             m_pQueuedTransfer = NULL;            

  00f80	e59b3000	 ldr         r3, [r11]
  00f84	e283206c	 add         r2, r3, #0x6C
  00f88	e3a03000	 mov         r3, #0
  00f8c	e5823000	 str         r3, [r2]

; 405  :             GetQHead()->ClearTDList();

  00f90	e59b3000	 ldr         r3, [r11]
  00f94	e5933000	 ldr         r3, [r3]
  00f98	e2833044	 add         r3, r3, #0x44
  00f9c	e59b0000	 ldr         r0, [r11]
  00fa0	e5933000	 ldr         r3, [r3]
  00fa4	e1a0e00f	 mov         lr, pc
  00fa8	e12fff13	 bx          r3
  00fac	e50b002c	 str         r0, [r11, #-0x2C]
  00fb0	e51b002c	 ldr         r0, [r11, #-0x2C]
  00fb4	eb000000	 bl          |?ClearTDList@CQH@@QAAXXZ|

; 406  :         }
; 407  :         else 

  00fb8	ea00000b	 b           |$LN5@AbortTrans|
  00fbc		 |$LN6@AbortTrans|

; 408  :             ASSERT(FALSE);        

  00fbc	ea000002	 b           |$LN17@AbortTrans|
  00fc0	e3a03001	 mov         r3, #1
  00fc4	e50b3028	 str         r3, [r11, #-0x28]
  00fc8	ea000007	 b           |$LN18@AbortTrans|
  00fcc		 |$LN17@AbortTrans|
  00fcc	e3a03f66	 mov         r3, #0x66, 30
  00fd0	e59f21c0	 ldr         r2, [pc, #0x1C0]
  00fd4	e59f11b8	 ldr         r1, [pc, #0x1B8]
  00fd8	e59f01b0	 ldr         r0, [pc, #0x1B0]
  00fdc	eb000000	 bl          NKDbgPrintfW
  00fe0	e6000010	 __debugbreak_ce
  00fe4	e3a03000	 mov         r3, #0
  00fe8	e50b3028	 str         r3, [r11, #-0x28]
  00fec		 |$LN18@AbortTrans|
  00fec		 |$LN5@AbortTrans|
  00fec		 |$LN7@AbortTrans|

; 409  :     };
; 410  :     if (pCurTransfer) {

  00fec	e51b30ec	 ldr         r3, [r11, #-0xEC]
  00ff0	e3530000	 cmp         r3, #0
  00ff4	0a000031	 beq         |$LN4@AbortTrans|

; 411  :         pCurTransfer->DoneTransfer();

  00ff8	e51b00ec	 ldr         r0, [r11, #-0xEC]
  00ffc	eb000000	 bl          |?DoneTransfer@CQTransfer@@QAAHXZ|

; 412  :         if ( lpCancelAddress ) {

  01000	e59b3004	 ldr         r3, [r11, #4]
  01004	e3530000	 cmp         r3, #0
  01008	0a000014	 beq         |$LN3@AbortTrans|
  0100c		 |$LN30@AbortTrans|

; 413  :             __try { // calling the Cancel function
; 414  :                 ( *lpCancelAddress )( lpvNotifyParameter );

  0100c	e59b0008	 ldr         r0, [r11, #8]
  01010	e59b3004	 ldr         r3, [r11, #4]
  01014	e1a0e00f	 mov         lr, pc
  01018	e12fff13	 bx          r3
  0101c		 |$LN31@AbortTrans|
  0101c	ea00000f	 b           |$LN32@AbortTrans|
  01020		 |$LN27@AbortTrans|

; 416  :                   DEBUGMSG( ZONE_ERROR, (TEXT("%s: CQueuedPipe::AbortTransfer - exception executing cancellation callback function\n"),GetControllerName()) );

  01020	e59f3160	 ldr         r3, [pc, #0x160]
  01024	e5933440	 ldr         r3, [r3, #0x440]
  01028	e3130901	 tst         r3, #1, 18
  0102c	0a000008	 beq         |$LN19@AbortTrans|
  01030	e59b0000	 ldr         r0, [r11]
  01034	eb000000	 bl          |?GetControllerName@CPipe@@QBAPBGXZ|
  01038	e50b0024	 str         r0, [r11, #-0x24]
  0103c	e51b1024	 ldr         r1, [r11, #-0x24]
  01040	e59f0144	 ldr         r0, [pc, #0x144]
  01044	eb000000	 bl          NKDbgPrintfW
  01048	e3a03001	 mov         r3, #1
  0104c	e50b3020	 str         r3, [r11, #-0x20]
  01050	ea000001	 b           |$LN20@AbortTrans|
  01054		 |$LN19@AbortTrans|
  01054	e3a03000	 mov         r3, #0
  01058	e50b3020	 str         r3, [r11, #-0x20]
  0105c		 |$LN20@AbortTrans|
  0105c	eaffffff	 b           |$LN32@AbortTrans|
  01060		 |$LN32@AbortTrans|
  01060		 |$LN3@AbortTrans|

; 417  :             }
; 418  :         }
; 419  :         status = requestOK;

  01060	e3a03001	 mov         r3, #1
  01064	e50b30e4	 str         r3, [r11, #-0xE4]

; 420  :         delete pCurTransfer;

  01068	e51b30ec	 ldr         r3, [r11, #-0xEC]
  0106c	e50b3058	 str         r3, [r11, #-0x58]
  01070	e51b3058	 ldr         r3, [r11, #-0x58]
  01074	e50b305c	 str         r3, [r11, #-0x5C]
  01078	e51b305c	 ldr         r3, [r11, #-0x5C]
  0107c	e3530000	 cmp         r3, #0
  01080	0a00000a	 beq         |$LN21@AbortTrans|
  01084	e3a01001	 mov         r1, #1
  01088	e51b305c	 ldr         r3, [r11, #-0x5C]
  0108c	e5933000	 ldr         r3, [r3]
  01090	e51b005c	 ldr         r0, [r11, #-0x5C]
  01094	e5933000	 ldr         r3, [r3]
  01098	e1a0e00f	 mov         lr, pc
  0109c	e12fff13	 bx          r3
  010a0	e50b001c	 str         r0, [r11, #-0x1C]
  010a4	e51b301c	 ldr         r3, [r11, #-0x1C]
  010a8	e50b3018	 str         r3, [r11, #-0x18]
  010ac	ea000001	 b           |$LN22@AbortTrans|
  010b0		 |$LN21@AbortTrans|
  010b0	e3a03000	 mov         r3, #0
  010b4	e50b3018	 str         r3, [r11, #-0x18]
  010b8		 |$LN22@AbortTrans|

; 421  :         fCheckSchedule = TRUE;

  010b8	e3a03001	 mov         r3, #1
  010bc	e50b30e8	 str         r3, [r11, #-0xE8]
  010c0		 |$LN4@AbortTrans|

; 422  :     }
; 423  :     LeaveCriticalSection( &m_csPipeLock );

  010c0	e59b3000	 ldr         r3, [r11]
  010c4	e2830020	 add         r0, r3, #0x20
  010c8	eb000000	 bl          LeaveCriticalSection

; 424  :     if (fCheckSchedule && (m_pQueuedTransfer == NULL) ) { // This queue is no longer active. re-activate it.

  010cc	e51b30e8	 ldr         r3, [r11, #-0xE8]
  010d0	e3530000	 cmp         r3, #0
  010d4	0a00000b	 beq         |$LN1@AbortTrans|
  010d8	e59b3000	 ldr         r3, [r11]
  010dc	e283306c	 add         r3, r3, #0x6C
  010e0	e5933000	 ldr         r3, [r3]
  010e4	e3530000	 cmp         r3, #0
  010e8	1a000006	 bne         |$LN1@AbortTrans|

; 425  :             ScheduleTransfer();

  010ec	e59b3000	 ldr         r3, [r11]
  010f0	e5933000	 ldr         r3, [r3]
  010f4	e2833030	 add         r3, r3, #0x30
  010f8	e59b0000	 ldr         r0, [r11]
  010fc	e5933000	 ldr         r3, [r3]
  01100	e1a0e00f	 mov         lr, pc
  01104	e12fff13	 bx          r3
  01108		 |$LN1@AbortTrans|

; 426  :     }
; 427  : 
; 428  :     DEBUGMSG( ZONE_TRANSFER, (TEXT("-CQueuedPipe(%s)::AbortTransfer - lpvCancelId = 0x%x, returning HCD_REQUEST_STATUS %d\n"), GetPipeType(), lpvCancelId, status) );

  01108	e59f3078	 ldr         r3, [pc, #0x78]
  0110c	e5933440	 ldr         r3, [r3, #0x440]
  01110	e3130c01	 tst         r3, #1, 24
  01114	0a00000f	 beq         |$LN23@AbortTrans|
  01118	e59b3000	 ldr         r3, [r11]
  0111c	e5933000	 ldr         r3, [r3]
  01120	e2833040	 add         r3, r3, #0x40
  01124	e59b0000	 ldr         r0, [r11]
  01128	e5933000	 ldr         r3, [r3]
  0112c	e1a0e00f	 mov         lr, pc
  01130	e12fff13	 bx          r3
  01134	e50b0014	 str         r0, [r11, #-0x14]
  01138	e51b30e4	 ldr         r3, [r11, #-0xE4]
  0113c	e59b200c	 ldr         r2, [r11, #0xC]
  01140	e51b1014	 ldr         r1, [r11, #-0x14]
  01144	e59f0038	 ldr         r0, [pc, #0x38]
  01148	eb000000	 bl          NKDbgPrintfW
  0114c	e3a03001	 mov         r3, #1
  01150	e50b3010	 str         r3, [r11, #-0x10]
  01154	ea000001	 b           |$LN24@AbortTrans|
  01158		 |$LN23@AbortTrans|
  01158	e3a03000	 mov         r3, #0
  0115c	e50b3010	 str         r3, [r11, #-0x10]
  01160		 |$LN24@AbortTrans|

; 429  :     return status;

  01160	e51b30e4	 ldr         r3, [r11, #-0xE4]
  01164	e50b3054	 str         r3, [r11, #-0x54]
  01168		 |$LN25@AbortTrans|

; 430  : }

  01168	e51b0054	 ldr         r0, [r11, #-0x54]
  0116c	e24bd00c	 sub         sp, r11, #0xC
  01170	e89d6800	 ldmia       sp, {r11, sp, lr}
  01174	e12fff1e	 bx          lr

			 ENDP  ; |?AbortTransfer@CQueuedPipe@@UAA?AW4HCD_REQUEST_STATUS@@Q6AKPAX@ZQAXPBX@Z|, CQueuedPipe::AbortTransfer

  01178		 |$LN26@AbortTrans|
  01178		 |$LN35@AbortTrans|

; 415  :             } __except( EXCEPTION_EXECUTE_HANDLER ) {

  01178	e52de004	 str         lr, [sp, #-4]!
  0117c		 |$LN29@AbortTrans|
  0117c		 |$LN38@AbortTrans|
  0117c	e3a00001	 mov         r0, #1
  01180		 |$LN28@AbortTrans|
  01180	e49df004	 ldr         pc, [sp], #4
  01184		 |$LN40@AbortTrans|
  01184		 |$LN41@AbortTrans|
  01184	00000000	 DCD         |??_C@_1KO@FHDEKCOL@?$AA?9?$AAC?$AAQ?$AAu?$AAe?$AAu?$AAe?$AAd?$AAP?$AAi?$AAp?$AAe?$AA?$CI?$AA?$CF?$AAs?$AA?$CJ?$AA?3?$AA?3?$AAA?$AAb?$AAo?$AAr?$AAt?$AAT?$AAr?$AAa?$AAn?$AAs?$AAf?$AAe?$AAr?$AA?5@|
  01188		 |$LN42@AbortTrans|
  01188	00000000	 DCD         |dpCurSettings|
  0118c		 |$LN43@AbortTrans|
  0118c	00000000	 DCD         |??_C@_1KK@MJOJEDBO@?$AA?$CF?$AAs?$AA?3?$AA?5?$AAC?$AAQ?$AAu?$AAe?$AAu?$AAe?$AAd?$AAP?$AAi?$AAp?$AAe?$AA?3?$AA?3?$AAA?$AAb?$AAo?$AAr?$AAt?$AAT?$AAr?$AAa?$AAn?$AAs?$AAf?$AAe?$AAr?$AA?5?$AA?9@|
  01190		 |$LN44@AbortTrans|
  01190	00000000	 DCD         |??_C@_1FK@FNONLNGN@?$AA?$CF?$AAs?$AA?3?$AA?5?$AAD?$AAE?$AAB?$AAU?$AAG?$AAC?$AAH?$AAK?$AA?5?$AAf?$AAa?$AAi?$AAl?$AAe?$AAd?$AA?5?$AAi?$AAn?$AA?5?$AAf?$AAi?$AAl?$AAe?$AA?5?$AA?$CF?$AAs?$AA?5?$AAa@|
  01194		 |$LN45@AbortTrans|
  01194	00000000	 DCD         |??_C@_1BA@LEPJIIOK@?$AAU?$AAn?$AAk?$AAn?$AAo?$AAw?$AAn?$AA?$AA@|
  01198		 |$LN46@AbortTrans|
  01198	00000000	 DCD         |??_C@_1LK@LMPDOKKA@?$AAC?$AA?3?$AA?2?$AAW?$AAI?$AAN?$AAC?$AAE?$AA6?$AA0?$AA0?$AA?2?$AAP?$AAL?$AAA?$AAT?$AAF?$AAO?$AAR?$AAM?$AA?2?$AAC?$AAO?$AAM?$AAM?$AAO?$AAN?$AA?2?$AAS?$AAR?$AAC?$AA?2@|
  0119c		 |$LN47@AbortTrans|
  0119c	00000000	 DCD         |??_C@_1HE@CKKPODL@?$AA?$CF?$AAs?$AA?3?$AA?5?$AA?$CL?$AAC?$AAQ?$AAu?$AAe?$AAu?$AAe?$AAd?$AAP?$AAi?$AAp?$AAe?$AA?$CI?$AA?$CF?$AAs?$AA?$CJ?$AA?3?$AA?3?$AAA?$AAb?$AAo?$AAr?$AAt?$AAT?$AAr?$AAa?$AAn?$AAs@|
  011a0		 |$LN39@AbortTrans|
  011a0		 |$LN37@AbortTrans|
; File c:\wince600\platform\common\src\soc\common_ti_v1\omap3530\musb\musbhcd\musbmhdrc\ctd.h

  00000			 AREA	 |.pdata|, PDATA
|$T37819| DCD	|$LN5@InvalidNex|
	DCD	0x40000503
; Function compile flags: /Odtp

  00000			 AREA	 |.text|, CODE, ARM

  00000		 |?InvalidNextTD@CQH@@QAAXXZ| PROC	; CQH::InvalidNextTD

; 148  :     void InvalidNextTD() {;};

  00000		 |$LN5@InvalidNex|
  00000	e1a0c00d	 mov         r12, sp
  00004	e92d0001	 stmdb       sp!, {r0}
  00008	e92d5000	 stmdb       sp!, {r12, lr}
  0000c		 |$M37816|
  0000c	e89d6000	 ldmia       sp, {sp, lr}
  00010	e12fff1e	 bx          lr
  00014		 |$M37817|

			 ENDP  ; |?InvalidNextTD@CQH@@QAAXXZ|, CQH::InvalidNextTD


  00000			 AREA	 |.pdata|, PDATA
|$T37826| DCD	|$LN5@ClearTDLis|
	DCD	0x40000903
; Function compile flags: /Odtp

  00000			 AREA	 |.text|, CODE, ARM

  00000		 |?ClearTDList@CQH@@QAAXXZ| PROC	; CQH::ClearTDList

; 157  :     void ClearTDList() { m_pCQHTDList = NULL;};

  00000		 |$LN5@ClearTDLis|
  00000	e1a0c00d	 mov         r12, sp
  00004	e92d0001	 stmdb       sp!, {r0}
  00008	e92d5000	 stmdb       sp!, {r12, lr}
  0000c		 |$M37823|
  0000c	e59d3008	 ldr         r3, [sp, #8]
  00010	e2832004	 add         r2, r3, #4
  00014	e3a03000	 mov         r3, #0
  00018	e5823000	 str         r3, [r2]
  0001c	e89d6000	 ldmia       sp, {sp, lr}
  00020	e12fff1e	 bx          lr
  00024		 |$M37824|

			 ENDP  ; |?ClearTDList@CQH@@QAAXXZ|, CQH::ClearTDList

; File c:\wince600\platform\common\src\soc\common_ti_v1\omap3530\musb\musbhcd\musbmhdrc\trans.h

  00000			 AREA	 |.pdata|, PDATA
|$T37834| DCD	|$LN5@GetNextTra|
	DCD	0x40000c04
; Function compile flags: /Odtp

  00000			 AREA	 |.text|, CODE, ARM

  00000		 |?GetNextTransfer@CTransfer@@QAAPAV1@XZ| PROC ; CTransfer::GetNextTransfer

; 58   :     CTransfer * GetNextTransfer(void) { return  m_pNextTransfer; };

  00000		 |$LN5@GetNextTra|
  00000	e1a0c00d	 mov         r12, sp
  00004	e92d0001	 stmdb       sp!, {r0}
  00008	e92d5000	 stmdb       sp!, {r12, lr}
  0000c	e24dd004	 sub         sp, sp, #4
  00010		 |$M37831|
  00010	e59d300c	 ldr         r3, [sp, #0xC]
  00014	e283300c	 add         r3, r3, #0xC
  00018	e5933000	 ldr         r3, [r3]
  0001c	e58d3000	 str         r3, [sp]
  00020	e59d0000	 ldr         r0, [sp]
  00024	e28dd004	 add         sp, sp, #4
  00028	e89d6000	 ldmia       sp, {sp, lr}
  0002c	e12fff1e	 bx          lr
  00030		 |$M37832|

			 ENDP  ; |?GetNextTransfer@CTransfer@@QAAPAV1@XZ|, CTransfer::GetNextTransfer


  00000			 AREA	 |.pdata|, PDATA
|$T37841| DCD	|$LN5@SetNextTra|
	DCD	0x40000903
; Function compile flags: /Odtp

  00000			 AREA	 |.text|, CODE, ARM

  00000		 |?SetNextTransfer@CTransfer@@QAAXPAV1@@Z| PROC ; CTransfer::SetNextTransfer

; 59   :     void SetNextTransfer(CTransfer * pNext) {  m_pNextTransfer= pNext; };

  00000		 |$LN5@SetNextTra|
  00000	e1a0c00d	 mov         r12, sp
  00004	e92d0003	 stmdb       sp!, {r0, r1}
  00008	e92d5000	 stmdb       sp!, {r12, lr}
  0000c		 |$M37838|
  0000c	e59d3008	 ldr         r3, [sp, #8]
  00010	e283200c	 add         r2, r3, #0xC
  00014	e59d300c	 ldr         r3, [sp, #0xC]
  00018	e5823000	 str         r3, [r2]
  0001c	e89d6000	 ldmia       sp, {sp, lr}
  00020	e12fff1e	 bx          lr
  00024		 |$M37839|

			 ENDP  ; |?SetNextTransfer@CTransfer@@QAAXPAV1@@Z|, CTransfer::SetNextTransfer


  00000			 AREA	 |.pdata|, PDATA
|$T37849| DCD	|$LN5@GetSTransf|
	DCD	0x40000f04
; Function compile flags: /Odtp

  00000			 AREA	 |.text|, CODE, ARM

  00000		 |?GetSTransfer@CTransfer@@QAA?AUSTRANSFER@@XZ| PROC ; CTransfer::GetSTransfer

; 62   :     STransfer GetSTransfer () { return m_sTransfer; };

  00000		 |$LN5@GetSTransf|
  00000	e1a0c00d	 mov         r12, sp
  00004	e92d0003	 stmdb       sp!, {r0, r1}
  00008	e92d5000	 stmdb       sp!, {r12, lr}
  0000c	e24dd004	 sub         sp, sp, #4
  00010		 |$M37846|
  00010	e59d300c	 ldr         r3, [sp, #0xC]
  00014	e283101c	 add         r1, r3, #0x1C
  00018	e59d0010	 ldr         r0, [sp, #0x10]
  0001c	e3a02040	 mov         r2, #0x40
  00020	eb000000	 bl          memcpy
  00024	e59d3010	 ldr         r3, [sp, #0x10]
  00028	e58d3000	 str         r3, [sp]
  0002c	e59d0000	 ldr         r0, [sp]
  00030	e28dd004	 add         sp, sp, #4
  00034	e89d6000	 ldmia       sp, {sp, lr}
  00038	e12fff1e	 bx          lr
  0003c		 |$M37847|

			 ENDP  ; |?GetSTransfer@CTransfer@@QAA?AUSTRANSFER@@XZ|, CTransfer::GetSTransfer

	EXPORT	|??_C@_1EO@PECCOKKN@?$AA?$CF?$AAs?$AA?3?$AA?5?$AA?9?$AAC?$AAQ?$AAu?$AAe?$AAu?$AAe?$AAd?$AAP?$AAi?$AAp?$AAe?$AA?$CI?$AA?$CF?$AAs?$AA?$CJ?$AA?3?$AA?3?$AAC?$AAl?$AAe?$AAa?$AAr?$AAH?$AAa?$AAl?$AAt?$AAe@| [ DATA ] ; `string'
	EXPORT	|??_C@_1JI@BHBKMHCH@?$AA?$CF?$AAs?$AA?3?$AA?5?$AAC?$AAQ?$AAu?$AAe?$AAu?$AAe?$AAd?$AAP?$AAi?$AAp?$AAe?$AA?$CI?$AA?$CF?$AAs?$AA?$CJ?$AA?3?$AA?3?$AAC?$AAl?$AAe?$AAa?$AAr?$AAH?$AAa?$AAl?$AAt?$AAe?$AAd@| [ DATA ] ; `string'
	EXPORT	|??_C@_1EO@PIAHHNJG@?$AA?$CF?$AAs?$AA?3?$AA?5?$AA?$CL?$AAC?$AAQ?$AAu?$AAe?$AAu?$AAe?$AAd?$AAP?$AAi?$AAp?$AAe?$AA?$CI?$AA?$CF?$AAs?$AA?$CJ?$AA?3?$AA?3?$AAC?$AAl?$AAe?$AAa?$AAr?$AAH?$AAa?$AAl?$AAt?$AAe@| [ DATA ] ; `string'

  00068			 AREA	 |.pdata|, PDATA
|$T37862| DCD	|$LN11@ClearHalte@2|
	DCD	0x40006a04
; File c:\wince600\platform\common\src\soc\common_ti_v1\omap3530\musb\musbhcd\musbmhdrc\cpipe.cpp

  00000			 AREA	 |.rdata|, DATA, READONLY
|??_C@_1EO@PECCOKKN@?$AA?$CF?$AAs?$AA?3?$AA?5?$AA?9?$AAC?$AAQ?$AAu?$AAe?$AAu?$AAe?$AAd?$AAP?$AAi?$AAp?$AAe?$AA?$CI?$AA?$CF?$AAs?$AA?$CJ?$AA?3?$AA?3?$AAC?$AAl?$AAe?$AAa?$AAr?$AAH?$AAa?$AAl?$AAt?$AAe@| DCB "%"
	DCB	0x0, "s", 0x0, ":", 0x0, " ", 0x0, "-", 0x0, "C", 0x0, "Q"
	DCB	0x0, "u", 0x0, "e", 0x0, "u", 0x0, "e", 0x0, "d", 0x0, "P"
	DCB	0x0, "i", 0x0, "p", 0x0, "e", 0x0, "(", 0x0, "%", 0x0, "s"
	DCB	0x0, ")", 0x0, ":", 0x0, ":", 0x0, "C", 0x0, "l", 0x0, "e"
	DCB	0x0, "a", 0x0, "r", 0x0, "H", 0x0, "a", 0x0, "l", 0x0, "t"
	DCB	0x0, "e", 0x0, "d", 0x0, "F", 0x0, "l", 0x0, "a", 0x0, "g"
	DCB	0x0, 0xa, 0x0, 0x0, 0x0			; `string'

  00000			 AREA	 |.rdata|, DATA, READONLY
|??_C@_1JI@BHBKMHCH@?$AA?$CF?$AAs?$AA?3?$AA?5?$AAC?$AAQ?$AAu?$AAe?$AAu?$AAe?$AAd?$AAP?$AAi?$AAp?$AAe?$AA?$CI?$AA?$CF?$AAs?$AA?$CJ?$AA?3?$AA?3?$AAC?$AAl?$AAe?$AAa?$AAr?$AAH?$AAa?$AAl?$AAt?$AAe?$AAd@| DCB "%"
	DCB	0x0, "s", 0x0, ":", 0x0, " ", 0x0, "C", 0x0, "Q", 0x0, "u"
	DCB	0x0, "e", 0x0, "u", 0x0, "e", 0x0, "d", 0x0, "P", 0x0, "i"
	DCB	0x0, "p", 0x0, "e", 0x0, "(", 0x0, "%", 0x0, "s", 0x0, ")"
	DCB	0x0, ":", 0x0, ":", 0x0, "C", 0x0, "l", 0x0, "e", 0x0, "a"
	DCB	0x0, "r", 0x0, "H", 0x0, "a", 0x0, "l", 0x0, "t", 0x0, "e"
	DCB	0x0, "d", 0x0, "F", 0x0, "l", 0x0, "a", 0x0, "g", 0x0, " "
	DCB	0x0, "-", 0x0, " ", 0x0, "w", 0x0, "a", 0x0, "r", 0x0, "n"
	DCB	0x0, "i", 0x0, "n", 0x0, "g", 0x0, "!", 0x0, " ", 0x0, "C"
	DCB	0x0, "a", 0x0, "l", 0x0, "l", 0x0, "e", 0x0, "d", 0x0, " "
	DCB	0x0, "o", 0x0, "n", 0x0, " ", 0x0, "n", 0x0, "o", 0x0, "n"
	DCB	0x0, "-", 0x0, "s", 0x0, "t", 0x0, "a", 0x0, "l", 0x0, "l"
	DCB	0x0, "e", 0x0, "d", 0x0, " ", 0x0, "p", 0x0, "i", 0x0, "p"
	DCB	0x0, "e", 0x0, 0xa, 0x0, 0x0, 0x0	; `string'

  00000			 AREA	 |.rdata|, DATA, READONLY
|??_C@_1EO@PIAHHNJG@?$AA?$CF?$AAs?$AA?3?$AA?5?$AA?$CL?$AAC?$AAQ?$AAu?$AAe?$AAu?$AAe?$AAd?$AAP?$AAi?$AAp?$AAe?$AA?$CI?$AA?$CF?$AAs?$AA?$CJ?$AA?3?$AA?3?$AAC?$AAl?$AAe?$AAa?$AAr?$AAH?$AAa?$AAl?$AAt?$AAe@| DCB "%"
	DCB	0x0, "s", 0x0, ":", 0x0, " ", 0x0, "+", 0x0, "C", 0x0, "Q"
	DCB	0x0, "u", 0x0, "e", 0x0, "u", 0x0, "e", 0x0, "d", 0x0, "P"
	DCB	0x0, "i", 0x0, "p", 0x0, "e", 0x0, "(", 0x0, "%", 0x0, "s"
	DCB	0x0, ")", 0x0, ":", 0x0, ":", 0x0, "C", 0x0, "l", 0x0, "e"
	DCB	0x0, "a", 0x0, "r", 0x0, "H", 0x0, "a", 0x0, "l", 0x0, "t"
	DCB	0x0, "e", 0x0, "d", 0x0, "F", 0x0, "l", 0x0, "a", 0x0, "g"
	DCB	0x0, 0xa, 0x0, 0x0, 0x0			; `string'
; Function compile flags: /Odtp

  011a0			 AREA	 |.text|, CODE, ARM

  011a0		 |?ClearHaltedFlag@CQueuedPipe@@UAAXXZ| PROC ; CQueuedPipe::ClearHaltedFlag

; 441  : {

  011a0		 |$LN11@ClearHalte@2|
  011a0	e1a0c00d	 mov         r12, sp
  011a4	e92d0001	 stmdb       sp!, {r0}
  011a8	e92d5000	 stmdb       sp!, {r12, lr}
  011ac	e24dd024	 sub         sp, sp, #0x24
  011b0		 |$M37859|

; 442  :     DEBUGMSG( ZONE_PIPE && ZONE_VERBOSE, (TEXT("%s: +CQueuedPipe(%s)::ClearHaltedFlag\n"),GetControllerName(), GetPipeType() ) );

  011b0	e59f3184	 ldr         r3, [pc, #0x184]
  011b4	e5933440	 ldr         r3, [r3, #0x440]
  011b8	e3130080	 tst         r3, #0x80
  011bc	0a000015	 beq         |$LN3@ClearHalte@2|
  011c0	e59f3174	 ldr         r3, [pc, #0x174]
  011c4	e5933440	 ldr         r3, [r3, #0x440]
  011c8	e3130a01	 tst         r3, #1, 20
  011cc	0a000011	 beq         |$LN3@ClearHalte@2|
  011d0	e59d302c	 ldr         r3, [sp, #0x2C]
  011d4	e5933000	 ldr         r3, [r3]
  011d8	e2833040	 add         r3, r3, #0x40
  011dc	e59d002c	 ldr         r0, [sp, #0x2C]
  011e0	e5933000	 ldr         r3, [r3]
  011e4	e1a0e00f	 mov         lr, pc
  011e8	e12fff13	 bx          r3
  011ec	e58d0000	 str         r0, [sp]
  011f0	e59d002c	 ldr         r0, [sp, #0x2C]
  011f4	eb000000	 bl          |?GetControllerName@CPipe@@QBAPBGXZ|
  011f8	e58d0004	 str         r0, [sp, #4]
  011fc	e59d2000	 ldr         r2, [sp]
  01200	e59d1004	 ldr         r1, [sp, #4]
  01204	e59f0138	 ldr         r0, [pc, #0x138]
  01208	eb000000	 bl          NKDbgPrintfW
  0120c	e3a03001	 mov         r3, #1
  01210	e58d3008	 str         r3, [sp, #8]
  01214	ea000001	 b           |$LN4@ClearHalte@2|
  01218		 |$LN3@ClearHalte@2|
  01218	e3a03000	 mov         r3, #0
  0121c	e58d3008	 str         r3, [sp, #8]
  01220		 |$LN4@ClearHalte@2|

; 443  : 
; 444  :     EnterCriticalSection( &m_csPipeLock );

  01220	e59d302c	 ldr         r3, [sp, #0x2C]
  01224	e2830020	 add         r0, r3, #0x20
  01228	eb000000	 bl          EnterCriticalSection

; 445  :     DEBUGMSG( ZONE_WARNING && !m_fIsHalted, (TEXT("%s: CQueuedPipe(%s)::ClearHaltedFlag - warning! Called on non-stalled pipe\n"),GetControllerName(), GetPipeType()) );

  0122c	e59f3108	 ldr         r3, [pc, #0x108]
  01230	e5933440	 ldr         r3, [r3, #0x440]
  01234	e3130a02	 tst         r3, #2, 20
  01238	0a000016	 beq         |$LN5@ClearHalte@2|
  0123c	e59d302c	 ldr         r3, [sp, #0x2C]
  01240	e2833044	 add         r3, r3, #0x44
  01244	e5933000	 ldr         r3, [r3]
  01248	e3530000	 cmp         r3, #0
  0124c	1a000011	 bne         |$LN5@ClearHalte@2|
  01250	e59d302c	 ldr         r3, [sp, #0x2C]
  01254	e5933000	 ldr         r3, [r3]
  01258	e2833040	 add         r3, r3, #0x40
  0125c	e59d002c	 ldr         r0, [sp, #0x2C]
  01260	e5933000	 ldr         r3, [r3]
  01264	e1a0e00f	 mov         lr, pc
  01268	e12fff13	 bx          r3
  0126c	e58d000c	 str         r0, [sp, #0xC]
  01270	e59d002c	 ldr         r0, [sp, #0x2C]
  01274	eb000000	 bl          |?GetControllerName@CPipe@@QBAPBGXZ|
  01278	e58d0010	 str         r0, [sp, #0x10]
  0127c	e59d200c	 ldr         r2, [sp, #0xC]
  01280	e59d1010	 ldr         r1, [sp, #0x10]
  01284	e59f00b4	 ldr         r0, [pc, #0xB4]
  01288	eb000000	 bl          NKDbgPrintfW
  0128c	e3a03001	 mov         r3, #1
  01290	e58d3014	 str         r3, [sp, #0x14]
  01294	ea000001	 b           |$LN6@ClearHalte@2|
  01298		 |$LN5@ClearHalte@2|
  01298	e3a03000	 mov         r3, #0
  0129c	e58d3014	 str         r3, [sp, #0x14]
  012a0		 |$LN6@ClearHalte@2|

; 446  :     m_fIsHalted = FALSE;

  012a0	e59d302c	 ldr         r3, [sp, #0x2C]
  012a4	e2832044	 add         r2, r3, #0x44
  012a8	e3a03000	 mov         r3, #0
  012ac	e5823000	 str         r3, [r2]

; 447  :     
; 448  :     LeaveCriticalSection( &m_csPipeLock );

  012b0	e59d302c	 ldr         r3, [sp, #0x2C]
  012b4	e2830020	 add         r0, r3, #0x20
  012b8	eb000000	 bl          LeaveCriticalSection

; 449  : 
; 450  :     DEBUGMSG( ZONE_PIPE && ZONE_VERBOSE, (TEXT("%s: -CQueuedPipe(%s)::ClearHaltedFlag\n"),GetControllerName(), GetPipeType()) );

  012bc	e59f3078	 ldr         r3, [pc, #0x78]
  012c0	e5933440	 ldr         r3, [r3, #0x440]
  012c4	e3130080	 tst         r3, #0x80
  012c8	0a000015	 beq         |$LN7@ClearHalte@2|
  012cc	e59f3068	 ldr         r3, [pc, #0x68]
  012d0	e5933440	 ldr         r3, [r3, #0x440]
  012d4	e3130a01	 tst         r3, #1, 20
  012d8	0a000011	 beq         |$LN7@ClearHalte@2|
  012dc	e59d302c	 ldr         r3, [sp, #0x2C]
  012e0	e5933000	 ldr         r3, [r3]
  012e4	e2833040	 add         r3, r3, #0x40
  012e8	e59d002c	 ldr         r0, [sp, #0x2C]
  012ec	e5933000	 ldr         r3, [r3]
  012f0	e1a0e00f	 mov         lr, pc
  012f4	e12fff13	 bx          r3
  012f8	e58d0018	 str         r0, [sp, #0x18]
  012fc	e59d002c	 ldr         r0, [sp, #0x2C]
  01300	eb000000	 bl          |?GetControllerName@CPipe@@QBAPBGXZ|
  01304	e58d001c	 str         r0, [sp, #0x1C]
  01308	e59d2018	 ldr         r2, [sp, #0x18]
  0130c	e59d101c	 ldr         r1, [sp, #0x1C]
  01310	e59f0020	 ldr         r0, [pc, #0x20]
  01314	eb000000	 bl          NKDbgPrintfW
  01318	e3a03001	 mov         r3, #1
  0131c	e58d3020	 str         r3, [sp, #0x20]
  01320	ea000001	 b           |$LN8@ClearHalte@2|
  01324		 |$LN7@ClearHalte@2|
  01324	e3a03000	 mov         r3, #0
  01328	e58d3020	 str         r3, [sp, #0x20]
  0132c		 |$LN8@ClearHalte@2|

; 451  : }

  0132c	e28dd024	 add         sp, sp, #0x24
  01330	e89d6000	 ldmia       sp, {sp, lr}
  01334	e12fff1e	 bx          lr
  01338		 |$LN12@ClearHalte@2|
  01338		 |$LN13@ClearHalte@2|
  01338	00000000	 DCD         |??_C@_1EO@PECCOKKN@?$AA?$CF?$AAs?$AA?3?$AA?5?$AA?9?$AAC?$AAQ?$AAu?$AAe?$AAu?$AAe?$AAd?$AAP?$AAi?$AAp?$AAe?$AA?$CI?$AA?$CF?$AAs?$AA?$CJ?$AA?3?$AA?3?$AAC?$AAl?$AAe?$AAa?$AAr?$AAH?$AAa?$AAl?$AAt?$AAe@|
  0133c		 |$LN14@ClearHalte@2|
  0133c	00000000	 DCD         |dpCurSettings|
  01340		 |$LN15@ClearHalte@2|
  01340	00000000	 DCD         |??_C@_1JI@BHBKMHCH@?$AA?$CF?$AAs?$AA?3?$AA?5?$AAC?$AAQ?$AAu?$AAe?$AAu?$AAe?$AAd?$AAP?$AAi?$AAp?$AAe?$AA?$CI?$AA?$CF?$AAs?$AA?$CJ?$AA?3?$AA?3?$AAC?$AAl?$AAe?$AAa?$AAr?$AAH?$AAa?$AAl?$AAt?$AAe?$AAd@|
  01344		 |$LN16@ClearHalte@2|
  01344	00000000	 DCD         |??_C@_1EO@PIAHHNJG@?$AA?$CF?$AAs?$AA?3?$AA?5?$AA?$CL?$AAC?$AAQ?$AAu?$AAe?$AAu?$AAe?$AAd?$AAP?$AAi?$AAp?$AAe?$AA?$CI?$AA?$CF?$AAs?$AA?$CJ?$AA?3?$AA?3?$AAC?$AAl?$AAe?$AAa?$AAr?$AAH?$AAa?$AAl?$AAt?$AAe@|
  01348		 |$M37860|

			 ENDP  ; |?ClearHaltedFlag@CQueuedPipe@@UAAXXZ|, CQueuedPipe::ClearHaltedFlag

	EXPORT	|??_C@_1EO@BBHOPFHG@?$AA?$CF?$AAs?$AA?3?$AA?5?$AA?9?$AAC?$AAQ?$AAu?$AAe?$AAu?$AAe?$AAd?$AAP?$AAi?$AAp?$AAe?$AA?$CI?$AA?$CF?$AAs?$AA?$CJ?$AA?3?$AA?3?$AAA?$AAb?$AAo?$AAr?$AAt?$AAQ?$AAu?$AAe?$AAu?$AAe@| [ DATA ] ; `string'
	EXPORT	|??_C@_1BK@MICGADHL@?$AAA?$AAb?$AAo?$AAr?$AAt?$AAQ?$AAu?$AAe?$AAu?$AAe?$AA?$AN?$AA?6?$AA?$AA@| [ DATA ] ; `string'
	EXPORT	|??_C@_1EG@MLMOFGFI@?$AA?$CF?$AAs?$AA?3?$AA?5?$AA?$CL?$AAC?$AAQ?$AAu?$AAe?$AAu?$AAe?$AAd?$AAP?$AAi?$AAp?$AAe?$AA?$CI?$AA?$CF?$AAs?$AA?$CJ?$AA?3?$AA?3?$AAA?$AAb?$AAo?$AAr?$AAt?$AAQ?$AAu?$AAe?$AAu?$AAe@| [ DATA ] ; `string'
	EXPORT	|?AbortQueue@CQueuedPipe@@IAAXXZ|	; CQueuedPipe::AbortQueue

  00070			 AREA	 |.pdata|, PDATA
|$T37890| DCD	|$LN23@AbortQueue|
	DCD	0x4000e104

  00000			 AREA	 |.rdata|, DATA, READONLY
|??_C@_1EO@BBHOPFHG@?$AA?$CF?$AAs?$AA?3?$AA?5?$AA?9?$AAC?$AAQ?$AAu?$AAe?$AAu?$AAe?$AAd?$AAP?$AAi?$AAp?$AAe?$AA?$CI?$AA?$CF?$AAs?$AA?$CJ?$AA?3?$AA?3?$AAA?$AAb?$AAo?$AAr?$AAt?$AAQ?$AAu?$AAe?$AAu?$AAe@| DCB "%"
	DCB	0x0, "s", 0x0, ":", 0x0, " ", 0x0, "-", 0x0, "C", 0x0, "Q"
	DCB	0x0, "u", 0x0, "e", 0x0, "u", 0x0, "e", 0x0, "d", 0x0, "P"
	DCB	0x0, "i", 0x0, "p", 0x0, "e", 0x0, "(", 0x0, "%", 0x0, "s"
	DCB	0x0, ")", 0x0, ":", 0x0, ":", 0x0, "A", 0x0, "b", 0x0, "o"
	DCB	0x0, "r", 0x0, "t", 0x0, "Q", 0x0, "u", 0x0, "e", 0x0, "u"
	DCB	0x0, "e", 0x0, " ", 0x0, "-", 0x0, " ", 0x0, "%", 0x0, "d"
	DCB	0x0, 0xa, 0x0, 0x0, 0x0			; `string'

  00000			 AREA	 |.rdata|, DATA, READONLY
|??_C@_1BK@MICGADHL@?$AAA?$AAb?$AAo?$AAr?$AAt?$AAQ?$AAu?$AAe?$AAu?$AAe?$AA?$AN?$AA?6?$AA?$AA@| DCB "A"
	DCB	0x0, "b", 0x0, "o", 0x0, "r", 0x0, "t", 0x0, "Q", 0x0, "u"
	DCB	0x0, "e", 0x0, "u", 0x0, "e", 0x0, 0xd, 0x0, 0xa, 0x0, 0x0
	DCB	0x0					; `string'

  00000			 AREA	 |.rdata|, DATA, READONLY
|??_C@_1EG@MLMOFGFI@?$AA?$CF?$AAs?$AA?3?$AA?5?$AA?$CL?$AAC?$AAQ?$AAu?$AAe?$AAu?$AAe?$AAd?$AAP?$AAi?$AAp?$AAe?$AA?$CI?$AA?$CF?$AAs?$AA?$CJ?$AA?3?$AA?3?$AAA?$AAb?$AAo?$AAr?$AAt?$AAQ?$AAu?$AAe?$AAu?$AAe@| DCB "%"
	DCB	0x0, "s", 0x0, ":", 0x0, " ", 0x0, "+", 0x0, "C", 0x0, "Q"
	DCB	0x0, "u", 0x0, "e", 0x0, "u", 0x0, "e", 0x0, "d", 0x0, "P"
	DCB	0x0, "i", 0x0, "p", 0x0, "e", 0x0, "(", 0x0, "%", 0x0, "s"
	DCB	0x0, ")", 0x0, ":", 0x0, ":", 0x0, "A", 0x0, "b", 0x0, "o"
	DCB	0x0, "r", 0x0, "t", 0x0, "Q", 0x0, "u", 0x0, "e", 0x0, "u"
	DCB	0x0, "e", 0x0, " ", 0x0, 0xa, 0x0, 0x0, 0x0 ; `string'
; Function compile flags: /Odtp

  01348			 AREA	 |.text|, CODE, ARM

  01348		 |?AbortQueue@CQueuedPipe@@IAAXXZ| PROC	; CQueuedPipe::AbortQueue

; 464  : {

  01348		 |$LN23@AbortQueue|
  01348	e1a0c00d	 mov         r12, sp
  0134c	e92d0001	 stmdb       sp!, {r0}
  01350	e92d5000	 stmdb       sp!, {r12, lr}
  01354	e24dd054	 sub         sp, sp, #0x54
  01358		 |$M37887|

; 465  :     DEBUGMSG( ZONE_TRANSFER, (TEXT("%s: +CQueuedPipe(%s)::AbortQueue \n"),GetControllerName(), GetPipeType()) );

  01358	e59f3354	 ldr         r3, [pc, #0x354]
  0135c	e5933440	 ldr         r3, [r3, #0x440]
  01360	e3130c01	 tst         r3, #1, 24
  01364	0a000011	 beq         |$LN7@AbortQueue|
  01368	e59d305c	 ldr         r3, [sp, #0x5C]
  0136c	e5933000	 ldr         r3, [r3]
  01370	e2833040	 add         r3, r3, #0x40
  01374	e59d005c	 ldr         r0, [sp, #0x5C]
  01378	e5933000	 ldr         r3, [r3]
  0137c	e1a0e00f	 mov         lr, pc
  01380	e12fff13	 bx          r3
  01384	e58d0014	 str         r0, [sp, #0x14]
  01388	e59d005c	 ldr         r0, [sp, #0x5C]
  0138c	eb000000	 bl          |?GetControllerName@CPipe@@QBAPBGXZ|
  01390	e58d0018	 str         r0, [sp, #0x18]
  01394	e59d2014	 ldr         r2, [sp, #0x14]
  01398	e59d1018	 ldr         r1, [sp, #0x18]
  0139c	e59f0324	 ldr         r0, [pc, #0x324]
  013a0	eb000000	 bl          NKDbgPrintfW
  013a4	e3a03001	 mov         r3, #1
  013a8	e58d301c	 str         r3, [sp, #0x1C]
  013ac	ea000001	 b           |$LN8@AbortQueue|
  013b0		 |$LN7@AbortQueue|
  013b0	e3a03000	 mov         r3, #0
  013b4	e58d301c	 str         r3, [sp, #0x1C]
  013b8		 |$LN8@AbortQueue|

; 466  :     EnterCriticalSection( &m_csPipeLock );

  013b8	e59d305c	 ldr         r3, [sp, #0x5C]
  013bc	e2830020	 add         r0, r3, #0x20
  013c0	eb000000	 bl          EnterCriticalSection

; 467  :     if ( m_pUnQueuedTransfer) {      // ptr to last transfer in queue

  013c4	e59d305c	 ldr         r3, [sp, #0x5C]
  013c8	e2833068	 add         r3, r3, #0x68
  013cc	e5933000	 ldr         r3, [r3]
  013d0	e3530000	 cmp         r3, #0
  013d4	0a00002e	 beq         |$LN4@AbortQueue|
  013d8		 |$LN3@AbortQueue|

; 468  :         while ( m_pUnQueuedTransfer) {

  013d8	e59d305c	 ldr         r3, [sp, #0x5C]
  013dc	e2833068	 add         r3, r3, #0x68
  013e0	e5933000	 ldr         r3, [r3]
  013e4	e3530000	 cmp         r3, #0
  013e8	0a000029	 beq         |$LN2@AbortQueue|

; 469  :             m_pUnQueuedTransfer ->AbortTransfer();

  013ec	e59d305c	 ldr         r3, [sp, #0x5C]
  013f0	e2833068	 add         r3, r3, #0x68
  013f4	e5930000	 ldr         r0, [r3]
  013f8	eb000000	 bl          |?AbortTransfer@CQTransfer@@QAAHXZ|

; 470  :             m_pUnQueuedTransfer ->DoneTransfer();

  013fc	e59d305c	 ldr         r3, [sp, #0x5C]
  01400	e2833068	 add         r3, r3, #0x68
  01404	e5930000	 ldr         r0, [r3]
  01408	eb000000	 bl          |?DoneTransfer@CQTransfer@@QAAHXZ|

; 471  :             CQTransfer * pCurTransfer= (CQTransfer *) m_pUnQueuedTransfer->GetNextTransfer();

  0140c	e59d305c	 ldr         r3, [sp, #0x5C]
  01410	e2833068	 add         r3, r3, #0x68
  01414	e5930000	 ldr         r0, [r3]
  01418	eb000000	 bl          |?GetNextTransfer@CTransfer@@QAAPAV1@XZ|
  0141c	e58d0020	 str         r0, [sp, #0x20]
  01420	e59d3020	 ldr         r3, [sp, #0x20]
  01424	e58d3000	 str         r3, [sp]

; 472  :             delete m_pUnQueuedTransfer;

  01428	e59d305c	 ldr         r3, [sp, #0x5C]
  0142c	e2833068	 add         r3, r3, #0x68
  01430	e5933000	 ldr         r3, [r3]
  01434	e58d3008	 str         r3, [sp, #8]
  01438	e59d3008	 ldr         r3, [sp, #8]
  0143c	e58d3004	 str         r3, [sp, #4]
  01440	e59d3004	 ldr         r3, [sp, #4]
  01444	e3530000	 cmp         r3, #0
  01448	0a00000a	 beq         |$LN9@AbortQueue|
  0144c	e3a01001	 mov         r1, #1
  01450	e59d3004	 ldr         r3, [sp, #4]
  01454	e5933000	 ldr         r3, [r3]
  01458	e59d0004	 ldr         r0, [sp, #4]
  0145c	e5933000	 ldr         r3, [r3]
  01460	e1a0e00f	 mov         lr, pc
  01464	e12fff13	 bx          r3
  01468	e58d0024	 str         r0, [sp, #0x24]
  0146c	e59d3024	 ldr         r3, [sp, #0x24]
  01470	e58d3028	 str         r3, [sp, #0x28]
  01474	ea000001	 b           |$LN10@AbortQueue|
  01478		 |$LN9@AbortQueue|
  01478	e3a03000	 mov         r3, #0
  0147c	e58d3028	 str         r3, [sp, #0x28]
  01480		 |$LN10@AbortQueue|

; 473  :             m_pUnQueuedTransfer = pCurTransfer;

  01480	e59d305c	 ldr         r3, [sp, #0x5C]
  01484	e2832068	 add         r2, r3, #0x68
  01488	e59d3000	 ldr         r3, [sp]
  0148c	e5823000	 str         r3, [r2]

; 474  :         }       

  01490	eaffffd0	 b           |$LN3@AbortQueue|
  01494		 |$LN2@AbortQueue|
  01494		 |$LN4@AbortQueue|

; 475  :     }
; 476  :     ASSERT( m_pUnQueuedTransfer == NULL);

  01494	e59d305c	 ldr         r3, [sp, #0x5C]
  01498	e2833068	 add         r3, r3, #0x68
  0149c	e5933000	 ldr         r3, [r3]
  014a0	e3530000	 cmp         r3, #0
  014a4	1a000002	 bne         |$LN11@AbortQueue|
  014a8	e3a03001	 mov         r3, #1
  014ac	e58d302c	 str         r3, [sp, #0x2C]
  014b0	ea000007	 b           |$LN12@AbortQueue|
  014b4		 |$LN11@AbortQueue|
  014b4	e3a03f77	 mov         r3, #0x77, 30
  014b8	e59f2200	 ldr         r2, [pc, #0x200]
  014bc	e59f11f8	 ldr         r1, [pc, #0x1F8]
  014c0	e59f01f0	 ldr         r0, [pc, #0x1F0]
  014c4	eb000000	 bl          NKDbgPrintfW
  014c8	e6000010	 __debugbreak_ce
  014cc	e3a03000	 mov         r3, #0
  014d0	e58d302c	 str         r3, [sp, #0x2C]
  014d4		 |$LN12@AbortQueue|

; 477  :     if (m_pQueuedTransfer) {

  014d4	e59d305c	 ldr         r3, [sp, #0x5C]
  014d8	e283306c	 add         r3, r3, #0x6C
  014dc	e5933000	 ldr         r3, [r3]
  014e0	e3530000	 cmp         r3, #0
  014e4	0a000042	 beq         |$LN1@AbortQueue|

; 478  :         RETAILMSG(1, (TEXT("AbortQueue\r\n")));

  014e8	e59f01d4	 ldr         r0, [pc, #0x1D4]
  014ec	eb000000	 bl          NKDbgPrintfW
  014f0	e3a03001	 mov         r3, #1
  014f4	e58d3030	 str         r3, [sp, #0x30]
  014f8	ea000001	 b           |$LN14@AbortQueue|
  014fc	e3a03000	 mov         r3, #0
  01500	e58d3030	 str         r3, [sp, #0x30]
  01504		 |$LN14@AbortQueue|

; 479  :         m_pQueuedTransfer;
; 480  :         m_pQueuedTransfer ->AbortTransfer();

  01504	e59d305c	 ldr         r3, [sp, #0x5C]
  01508	e283306c	 add         r3, r3, #0x6C
  0150c	e5930000	 ldr         r0, [r3]
  01510	eb000000	 bl          |?AbortTransfer@CQTransfer@@QAAHXZ|

; 481  :         GetQHead()->InvalidNextTD();  

  01514	e59d305c	 ldr         r3, [sp, #0x5C]
  01518	e5933000	 ldr         r3, [r3]
  0151c	e2833044	 add         r3, r3, #0x44
  01520	e59d005c	 ldr         r0, [sp, #0x5C]
  01524	e5933000	 ldr         r3, [r3]
  01528	e1a0e00f	 mov         lr, pc
  0152c	e12fff13	 bx          r3
  01530	e58d0034	 str         r0, [sp, #0x34]
  01534	e59d0034	 ldr         r0, [sp, #0x34]
  01538	eb000000	 bl          |?InvalidNextTD@CQH@@QAAXXZ|

; 482  :         Sleep(2);// this sleep is for Interrupt Pipe;

  0153c	e3a00002	 mov         r0, #2
  01540	eb000000	 bl          Sleep

; 483  :         m_pQueuedTransfer->DoneTransfer();

  01544	e59d305c	 ldr         r3, [sp, #0x5C]
  01548	e283306c	 add         r3, r3, #0x6C
  0154c	e5930000	 ldr         r0, [r3]
  01550	eb000000	 bl          |?DoneTransfer@CQTransfer@@QAAHXZ|

; 484  :         m_pQueuedTransfer =  NULL;

  01554	e59d305c	 ldr         r3, [sp, #0x5C]
  01558	e283206c	 add         r2, r3, #0x6C
  0155c	e3a03000	 mov         r3, #0
  01560	e5823000	 str         r3, [r2]

; 485  :         delete m_pQueuedTransfer;

  01564	e59d305c	 ldr         r3, [sp, #0x5C]
  01568	e283306c	 add         r3, r3, #0x6C
  0156c	e5933000	 ldr         r3, [r3]
  01570	e58d3010	 str         r3, [sp, #0x10]
  01574	e59d3010	 ldr         r3, [sp, #0x10]
  01578	e58d300c	 str         r3, [sp, #0xC]
  0157c	e59d300c	 ldr         r3, [sp, #0xC]
  01580	e3530000	 cmp         r3, #0
  01584	0a00000a	 beq         |$LN15@AbortQueue|
  01588	e3a01001	 mov         r1, #1
  0158c	e59d300c	 ldr         r3, [sp, #0xC]
  01590	e5933000	 ldr         r3, [r3]
  01594	e59d000c	 ldr         r0, [sp, #0xC]
  01598	e5933000	 ldr         r3, [r3]
  0159c	e1a0e00f	 mov         lr, pc
  015a0	e12fff13	 bx          r3
  015a4	e58d0038	 str         r0, [sp, #0x38]
  015a8	e59d3038	 ldr         r3, [sp, #0x38]
  015ac	e58d303c	 str         r3, [sp, #0x3C]
  015b0	ea000001	 b           |$LN16@AbortQueue|
  015b4		 |$LN15@AbortQueue|
  015b4	e3a03000	 mov         r3, #0
  015b8	e58d303c	 str         r3, [sp, #0x3C]
  015bc		 |$LN16@AbortQueue|

; 486  :         m_pQueuedTransfer = NULL;        

  015bc	e59d305c	 ldr         r3, [sp, #0x5C]
  015c0	e283206c	 add         r2, r3, #0x6C
  015c4	e3a03000	 mov         r3, #0
  015c8	e5823000	 str         r3, [r2]

; 487  :         GetQHead()->ClearTDList();

  015cc	e59d305c	 ldr         r3, [sp, #0x5C]
  015d0	e5933000	 ldr         r3, [r3]
  015d4	e2833044	 add         r3, r3, #0x44
  015d8	e59d005c	 ldr         r0, [sp, #0x5C]
  015dc	e5933000	 ldr         r3, [r3]
  015e0	e1a0e00f	 mov         lr, pc
  015e4	e12fff13	 bx          r3
  015e8	e58d0040	 str         r0, [sp, #0x40]
  015ec	e59d0040	 ldr         r0, [sp, #0x40]
  015f0	eb000000	 bl          |?ClearTDList@CQH@@QAAXXZ|
  015f4		 |$LN1@AbortQueue|

; 488  :     }
; 489  :     ASSERT(m_pQueuedTransfer == NULL);

  015f4	e59d305c	 ldr         r3, [sp, #0x5C]
  015f8	e283306c	 add         r3, r3, #0x6C
  015fc	e5933000	 ldr         r3, [r3]
  01600	e3530000	 cmp         r3, #0
  01604	1a000002	 bne         |$LN17@AbortQueue|
  01608	e3a03001	 mov         r3, #1
  0160c	e58d3044	 str         r3, [sp, #0x44]
  01610	ea000008	 b           |$LN18@AbortQueue|
  01614		 |$LN17@AbortQueue|
  01614	e3a03c01	 mov         r3, #1, 24
  01618	e38330e9	 orr         r3, r3, #0xE9
  0161c	e59f209c	 ldr         r2, [pc, #0x9C]
  01620	e59f1094	 ldr         r1, [pc, #0x94]
  01624	e59f008c	 ldr         r0, [pc, #0x8C]
  01628	eb000000	 bl          NKDbgPrintfW
  0162c	e6000010	 __debugbreak_ce
  01630	e3a03000	 mov         r3, #0
  01634	e58d3044	 str         r3, [sp, #0x44]
  01638		 |$LN18@AbortQueue|

; 490  : 
; 491  :     LeaveCriticalSection( &m_csPipeLock );

  01638	e59d305c	 ldr         r3, [sp, #0x5C]
  0163c	e2830020	 add         r0, r3, #0x20
  01640	eb000000	 bl          LeaveCriticalSection

; 492  :     DEBUGMSG( ZONE_TRANSFER, (TEXT("%s: -CQueuedPipe(%s)::AbortQueue - %d\n"),GetControllerName(), GetPipeType()) );

  01644	e59f3068	 ldr         r3, [pc, #0x68]
  01648	e5933440	 ldr         r3, [r3, #0x440]
  0164c	e3130c01	 tst         r3, #1, 24
  01650	0a000011	 beq         |$LN19@AbortQueue|
  01654	e59d305c	 ldr         r3, [sp, #0x5C]
  01658	e5933000	 ldr         r3, [r3]
  0165c	e2833040	 add         r3, r3, #0x40
  01660	e59d005c	 ldr         r0, [sp, #0x5C]
  01664	e5933000	 ldr         r3, [r3]
  01668	e1a0e00f	 mov         lr, pc
  0166c	e12fff13	 bx          r3
  01670	e58d0048	 str         r0, [sp, #0x48]
  01674	e59d005c	 ldr         r0, [sp, #0x5C]
  01678	eb000000	 bl          |?GetControllerName@CPipe@@QBAPBGXZ|
  0167c	e58d004c	 str         r0, [sp, #0x4C]
  01680	e59d2048	 ldr         r2, [sp, #0x48]
  01684	e59d104c	 ldr         r1, [sp, #0x4C]
  01688	e59f0020	 ldr         r0, [pc, #0x20]
  0168c	eb000000	 bl          NKDbgPrintfW
  01690	e3a03001	 mov         r3, #1
  01694	e58d3050	 str         r3, [sp, #0x50]
  01698	ea000001	 b           |$LN20@AbortQueue|
  0169c		 |$LN19@AbortQueue|
  0169c	e3a03000	 mov         r3, #0
  016a0	e58d3050	 str         r3, [sp, #0x50]
  016a4		 |$LN20@AbortQueue|

; 493  : }

  016a4	e28dd054	 add         sp, sp, #0x54
  016a8	e89d6000	 ldmia       sp, {sp, lr}
  016ac	e12fff1e	 bx          lr
  016b0		 |$LN24@AbortQueue|
  016b0		 |$LN25@AbortQueue|
  016b0	00000000	 DCD         |??_C@_1EO@BBHOPFHG@?$AA?$CF?$AAs?$AA?3?$AA?5?$AA?9?$AAC?$AAQ?$AAu?$AAe?$AAu?$AAe?$AAd?$AAP?$AAi?$AAp?$AAe?$AA?$CI?$AA?$CF?$AAs?$AA?$CJ?$AA?3?$AA?3?$AAA?$AAb?$AAo?$AAr?$AAt?$AAQ?$AAu?$AAe?$AAu?$AAe@|
  016b4		 |$LN26@AbortQueue|
  016b4	00000000	 DCD         |dpCurSettings|
  016b8		 |$LN27@AbortQueue|
  016b8	00000000	 DCD         |??_C@_1FK@FNONLNGN@?$AA?$CF?$AAs?$AA?3?$AA?5?$AAD?$AAE?$AAB?$AAU?$AAG?$AAC?$AAH?$AAK?$AA?5?$AAf?$AAa?$AAi?$AAl?$AAe?$AAd?$AA?5?$AAi?$AAn?$AA?5?$AAf?$AAi?$AAl?$AAe?$AA?5?$AA?$CF?$AAs?$AA?5?$AAa@|
  016bc		 |$LN28@AbortQueue|
  016bc	00000000	 DCD         |??_C@_1BA@LEPJIIOK@?$AAU?$AAn?$AAk?$AAn?$AAo?$AAw?$AAn?$AA?$AA@|
  016c0		 |$LN29@AbortQueue|
  016c0	00000000	 DCD         |??_C@_1LK@LMPDOKKA@?$AAC?$AA?3?$AA?2?$AAW?$AAI?$AAN?$AAC?$AAE?$AA6?$AA0?$AA0?$AA?2?$AAP?$AAL?$AAA?$AAT?$AAF?$AAO?$AAR?$AAM?$AA?2?$AAC?$AAO?$AAM?$AAM?$AAO?$AAN?$AA?2?$AAS?$AAR?$AAC?$AA?2@|
  016c4		 |$LN30@AbortQueue|
  016c4	00000000	 DCD         |??_C@_1BK@MICGADHL@?$AAA?$AAb?$AAo?$AAr?$AAt?$AAQ?$AAu?$AAe?$AAu?$AAe?$AA?$AN?$AA?6?$AA?$AA@|
  016c8		 |$LN31@AbortQueue|
  016c8	00000000	 DCD         |??_C@_1EG@MLMOFGFI@?$AA?$CF?$AAs?$AA?3?$AA?5?$AA?$CL?$AAC?$AAQ?$AAu?$AAe?$AAu?$AAe?$AAd?$AAP?$AAi?$AAp?$AAe?$AA?$CI?$AA?$CF?$AAs?$AA?$CJ?$AA?3?$AA?3?$AAA?$AAb?$AAo?$AAr?$AAt?$AAQ?$AAu?$AAe?$AAu?$AAe@|
  016cc		 |$M37888|

			 ENDP  ; |?AbortQueue@CQueuedPipe@@IAAXXZ|, CQueuedPipe::AbortQueue

	EXPORT	|??_C@_1JM@HCMJHHKO@?$AA?$CF?$AAs?$AA?3?$AA?5?$AA?9?$AAC?$AAP?$AAi?$AAp?$AAe?$AA?$CI?$AA?$CF?$AAs?$AA?$CJ?$AA?3?$AA?3?$AAI?$AAs?$AAs?$AAu?$AAe?$AAT?$AAr?$AAa?$AAn?$AAs?$AAf?$AAe?$AAr?$AA?5?$AA?9?$AA?5@| [ DATA ] ; `string'
	EXPORT	|?DoNotCallBack@CTransfer@@QAAXXZ|	; CTransfer::DoNotCallBack
	EXPORT	|??0CQTransfer@@QAA@QAVCPipe@@QAVCPhysMem@@USTRANSFER@@@Z| ; CQTransfer::CQTransfer
	EXPORT	|??_C@_1FE@ONKDEIGN@?$AAC?$AAQ?$AAu?$AAe?$AAu?$AAe?$AAd?$AAP?$AAi?$AAp?$AAe?$AA?3?$AA?3?$AAI?$AAs?$AAs?$AAu?$AAe?$AAT?$AAr?$AAa?$AAn?$AAs?$AAf?$AAe?$AAr?$AA?3?$AA?3?$AA?5?$AAD?$AAi?$AAs@| [ DATA ] ; `string'
	EXPORT	|??_C@_1FK@BPNHMPHA@?$AA?$CF?$AAs?$AA?3?$AA?5?$AA?$CL?$AAC?$AAP?$AAi?$AAp?$AAe?$AA?$CI?$AA?$CF?$AAs?$AA?$CJ?$AA?3?$AA?3?$AAI?$AAs?$AAs?$AAu?$AAe?$AAT?$AAr?$AAa?$AAn?$AAs?$AAf?$AAe?$AAr?$AA?0?$AA?5?$AAa@| [ DATA ] ; `string'
	IMPORT	|??2@YAPAXI@Z|				; operator new

  00078			 AREA	 |.pdata|, PDATA
|$T37930| DCD	|$LN37@IssueTrans|
	DCD	0xc0012605
|$T37932| DCD	|$LN27@IssueTrans|
	DCD	0x40000c02

  00000			 AREA	 |.rdata|, DATA, READONLY
|??_C@_1JM@HCMJHHKO@?$AA?$CF?$AAs?$AA?3?$AA?5?$AA?9?$AAC?$AAP?$AAi?$AAp?$AAe?$AA?$CI?$AA?$CF?$AAs?$AA?$CJ?$AA?3?$AA?3?$AAI?$AAs?$AAs?$AAu?$AAe?$AAT?$AAr?$AAa?$AAn?$AAs?$AAf?$AAe?$AAr?$AA?5?$AA?9?$AA?5@| DCB "%"
	DCB	0x0, "s", 0x0, ":", 0x0, " ", 0x0, "-", 0x0, "C", 0x0, "P"
	DCB	0x0, "i", 0x0, "p", 0x0, "e", 0x0, "(", 0x0, "%", 0x0, "s"
	DCB	0x0, ")", 0x0, ":", 0x0, ":", 0x0, "I", 0x0, "s", 0x0, "s"
	DCB	0x0, "u", 0x0, "e", 0x0, "T", 0x0, "r", 0x0, "a", 0x0, "n"
	DCB	0x0, "s", 0x0, "f", 0x0, "e", 0x0, "r", 0x0, " ", 0x0, "-"
	DCB	0x0, " ", 0x0, "a", 0x0, "d", 0x0, "d", 0x0, "r", 0x0, "e"
	DCB	0x0, "s", 0x0, "s", 0x0, " ", 0x0, "=", 0x0, " ", 0x0, "%"
	DCB	0x0, "d", 0x0, ",", 0x0, " ", 0x0, "r", 0x0, "e", 0x0, "t"
	DCB	0x0, "u", 0x0, "r", 0x0, "i", 0x0, "n", 0x0, "g", 0x0, " "
	DCB	0x0, "H", 0x0, "C", 0x0, "D", 0x0, "_", 0x0, "R", 0x0, "E"
	DCB	0x0, "Q", 0x0, "U", 0x0, "E", 0x0, "S", 0x0, "T", 0x0, "_"
	DCB	0x0, "S", 0x0, "T", 0x0, "A", 0x0, "T", 0x0, "U", 0x0, "S"
	DCB	0x0, " ", 0x0, "%", 0x0, "d", 0x0, 0xa, 0x0, 0x0, 0x0 ; `string'

  00000			 AREA	 |.rdata|, DATA, READONLY
|??_C@_1FE@ONKDEIGN@?$AAC?$AAQ?$AAu?$AAe?$AAu?$AAe?$AAd?$AAP?$AAi?$AAp?$AAe?$AA?3?$AA?3?$AAI?$AAs?$AAs?$AAu?$AAe?$AAT?$AAr?$AAa?$AAn?$AAs?$AAf?$AAe?$AAr?$AA?3?$AA?3?$AA?5?$AAD?$AAi?$AAs@| DCB "C"
	DCB	0x0, "Q", 0x0, "u", 0x0, "e", 0x0, "u", 0x0, "e", 0x0, "d"
	DCB	0x0, "P", 0x0, "i", 0x0, "p", 0x0, "e", 0x0, ":", 0x0, ":"
	DCB	0x0, "I", 0x0, "s", 0x0, "s", 0x0, "u", 0x0, "e", 0x0, "T"
	DCB	0x0, "r", 0x0, "a", 0x0, "n", 0x0, "s", 0x0, "f", 0x0, "e"
	DCB	0x0, "r", 0x0, ":", 0x0, ":", 0x0, " ", 0x0, "D", 0x0, "i"
	DCB	0x0, "s", 0x0, "c", 0x0, "o", 0x0, "n", 0x0, "n", 0x0, "e"
	DCB	0x0, "c", 0x0, "t", 0x0, 0xd, 0x0, 0xa, 0x0, 0x0, 0x0 ; `string'

  00000			 AREA	 |.rdata|, DATA, READONLY
|??_C@_1FK@BPNHMPHA@?$AA?$CF?$AAs?$AA?3?$AA?5?$AA?$CL?$AAC?$AAP?$AAi?$AAp?$AAe?$AA?$CI?$AA?$CF?$AAs?$AA?$CJ?$AA?3?$AA?3?$AAI?$AAs?$AAs?$AAu?$AAe?$AAT?$AAr?$AAa?$AAn?$AAs?$AAf?$AAe?$AAr?$AA?0?$AA?5?$AAa@| DCB "%"
	DCB	0x0, "s", 0x0, ":", 0x0, " ", 0x0, "+", 0x0, "C", 0x0, "P"
	DCB	0x0, "i", 0x0, "p", 0x0, "e", 0x0, "(", 0x0, "%", 0x0, "s"
	DCB	0x0, ")", 0x0, ":", 0x0, ":", 0x0, "I", 0x0, "s", 0x0, "s"
	DCB	0x0, "u", 0x0, "e", 0x0, "T", 0x0, "r", 0x0, "a", 0x0, "n"
	DCB	0x0, "s", 0x0, "f", 0x0, "e", 0x0, "r", 0x0, ",", 0x0, " "
	DCB	0x0, "a", 0x0, "d", 0x0, "d", 0x0, "r", 0x0, "e", 0x0, "s"
	DCB	0x0, "s", 0x0, " ", 0x0, "=", 0x0, " ", 0x0, "%", 0x0, "d"
	DCB	0x0, 0xa, 0x0, 0x0, 0x0			; `string'

  00014			 AREA	 |.xdata|, DATA
|$T37928| DCD	0x1
	DCD	|$LN31@IssueTrans|
	DCD	|$LN32@IssueTrans|
	DCD	|$LN27@IssueTrans|
	DCD	|$LN28@IssueTrans|
; Function compile flags: /Odtp

  016cc			 AREA	 |.text|, CODE, ARM

  016cc	00000000	 DCD         |__C_specific_handler|
  016d0	00000000	 DCD         |$T37928|

  016d4		 |?IssueTransfer@CQueuedPipe@@UAA?AW4HCD_REQUEST_STATUS@@EQ6AKPAX@ZQAXKQBXKKQBKK2K3QAK5QAH55@Z| PROC ; CQueuedPipe::IssueTransfer

; 526  : {

  016d4		 |$LN37@IssueTrans|
  016d4	e1a0c00d	 mov         r12, sp
  016d8	e92d000f	 stmdb       sp!, {r0 - r3}
  016dc	e92d5800	 stmdb       sp!, {r11, r12, lr}
  016e0	e28db00c	 add         r11, sp, #0xC
  016e4	e24dd0ec	 sub         sp, sp, #0xEC
  016e8		 |$LN35@IssueTrans|

; 527  :     DEBUGMSG( ZONE_TRANSFER, (TEXT("%s: +CPipe(%s)::IssueTransfer, address = %d\n"),GetControllerName(), GetPipeType(), address) );

  016e8	e59f3494	 ldr         r3, [pc, #0x494]
  016ec	e5933440	 ldr         r3, [r3, #0x440]
  016f0	e3130c01	 tst         r3, #1, 24
  016f4	0a000012	 beq         |$LN14@IssueTrans|
  016f8	e59b3000	 ldr         r3, [r11]
  016fc	e5933000	 ldr         r3, [r3]
  01700	e2833040	 add         r3, r3, #0x40
  01704	e59b0000	 ldr         r0, [r11]
  01708	e5933000	 ldr         r3, [r3]
  0170c	e1a0e00f	 mov         lr, pc
  01710	e12fff13	 bx          r3
  01714	e50b005c	 str         r0, [r11, #-0x5C]
  01718	e59b0000	 ldr         r0, [r11]
  0171c	eb000000	 bl          |?GetControllerName@CPipe@@QBAPBGXZ|
  01720	e50b0058	 str         r0, [r11, #-0x58]
  01724	e5db3004	 ldrb        r3, [r11, #4]
  01728	e51b205c	 ldr         r2, [r11, #-0x5C]
  0172c	e51b1058	 ldr         r1, [r11, #-0x58]
  01730	e59f0460	 ldr         r0, [pc, #0x460]
  01734	eb000000	 bl          NKDbgPrintfW
  01738	e3a03001	 mov         r3, #1
  0173c	e50b3054	 str         r3, [r11, #-0x54]
  01740	ea000001	 b           |$LN15@IssueTrans|
  01744		 |$LN14@IssueTrans|
  01744	e3a03000	 mov         r3, #0
  01748	e50b3054	 str         r3, [r11, #-0x54]
  0174c		 |$LN15@IssueTrans|

; 528  :  
; 529  :     //m_pPipeQHead ->SetDeviceAddress(m_bDeviceAddress, USB_ENDPOINT_DIRECTION_OUT(m_usbEndpointDescriptor.bEndpointAddress));
; 530  :     // Check if it is connected first
; 531  :     if(m_pCMhcd->IsHostConnect() == FALSE)

  0174c	e59b3000	 ldr         r3, [r11]
  01750	e283300c	 add         r3, r3, #0xC
  01754	e5932000	 ldr         r2, [r3]
  01758	e59b3000	 ldr         r3, [r11]
  0175c	e283300c	 add         r3, r3, #0xC
  01760	e5930000	 ldr         r0, [r3]
  01764	e5923000	 ldr         r3, [r2]
  01768	e2833068	 add         r3, r3, #0x68
  0176c	e5933000	 ldr         r3, [r3]
  01770	e1a0e00f	 mov         lr, pc
  01774	e12fff13	 bx          r3
  01778	e50b0050	 str         r0, [r11, #-0x50]
  0177c	e51b3050	 ldr         r3, [r11, #-0x50]
  01780	e3530000	 cmp         r3, #0
  01784	1a00000d	 bne         |$LN11@IssueTrans|

; 532  :     {
; 533  :         DEBUGMSG(ZONE_WARNING, (TEXT("CQueuedPipe::IssueTransfer:: Disconnect\r\n")));

  01788	e59f33f4	 ldr         r3, [pc, #0x3F4]
  0178c	e5933440	 ldr         r3, [r3, #0x440]
  01790	e3130a02	 tst         r3, #2, 20
  01794	0a000004	 beq         |$LN16@IssueTrans|
  01798	e59f03f4	 ldr         r0, [pc, #0x3F4]
  0179c	eb000000	 bl          NKDbgPrintfW
  017a0	e3a03001	 mov         r3, #1
  017a4	e50b304c	 str         r3, [r11, #-0x4C]
  017a8	ea000001	 b           |$LN17@IssueTrans|
  017ac		 |$LN16@IssueTrans|
  017ac	e3a03000	 mov         r3, #0
  017b0	e50b304c	 str         r3, [r11, #-0x4C]
  017b4		 |$LN17@IssueTrans|

; 534  :         return requestFailed;

  017b4	e3a03000	 mov         r3, #0
  017b8	e50b3064	 str         r3, [r11, #-0x64]
  017bc	ea0000e6	 b           |$LN12@IssueTrans|
  017c0		 |$LN11@IssueTrans|

; 535  :     }
; 536  : 
; 537  : 
; 538  :     
; 539  : 
; 540  :     STransfer sTransfer = {
; 541  :     // These are the IssueTransfer parameters
; 542  :         lpStartAddress,lpvNotifyParameter, dwFlags,lpvControlHeader, dwStartingFrame,dwFrames,

  017c0	e59b3008	 ldr         r3, [r11, #8]
  017c4	e50b30bc	 str         r3, [r11, #-0xBC]
  017c8	e59b300c	 ldr         r3, [r11, #0xC]
  017cc	e50b30b8	 str         r3, [r11, #-0xB8]
  017d0	e59b3010	 ldr         r3, [r11, #0x10]
  017d4	e50b30b4	 str         r3, [r11, #-0xB4]
  017d8	e59b3014	 ldr         r3, [r11, #0x14]
  017dc	e50b30b0	 str         r3, [r11, #-0xB0]
  017e0	e59b3018	 ldr         r3, [r11, #0x18]
  017e4	e50b30ac	 str         r3, [r11, #-0xAC]
  017e8	e59b301c	 ldr         r3, [r11, #0x1C]
  017ec	e50b30a8	 str         r3, [r11, #-0xA8]

; 543  :         aLengths,dwBufferSize,lpvClientBuffer,paBuffer,lpvCancelId,adwIsochErrors, adwIsochLengths,

  017f0	e59b3020	 ldr         r3, [r11, #0x20]
  017f4	e50b30a4	 str         r3, [r11, #-0xA4]
  017f8	e59b3024	 ldr         r3, [r11, #0x24]
  017fc	e50b30a0	 str         r3, [r11, #-0xA0]
  01800	e59b3028	 ldr         r3, [r11, #0x28]
  01804	e50b309c	 str         r3, [r11, #-0x9C]
  01808	e59b302c	 ldr         r3, [r11, #0x2C]
  0180c	e50b3098	 str         r3, [r11, #-0x98]
  01810	e59b3030	 ldr         r3, [r11, #0x30]
  01814	e50b3094	 str         r3, [r11, #-0x94]
  01818	e59b3034	 ldr         r3, [r11, #0x34]
  0181c	e50b3090	 str         r3, [r11, #-0x90]
  01820	e59b3038	 ldr         r3, [r11, #0x38]
  01824	e50b308c	 str         r3, [r11, #-0x8C]

; 544  :         lpfComplete,lpdwBytesTransferred,lpdwError};

  01828	e59b303c	 ldr         r3, [r11, #0x3C]
  0182c	e50b3088	 str         r3, [r11, #-0x88]
  01830	e59b3040	 ldr         r3, [r11, #0x40]
  01834	e50b3084	 str         r3, [r11, #-0x84]
  01838	e59b3044	 ldr         r3, [r11, #0x44]
  0183c	e50b3080	 str         r3, [r11, #-0x80]

; 545  :     HCD_REQUEST_STATUS  status = requestFailed;

  01840	e3a03000	 mov         r3, #0
  01844	e50b307c	 str         r3, [r11, #-0x7C]

; 546  :     if (AreTransferParametersValid(&sTransfer) && GetQHead() && m_bDeviceAddress == address ) {

  01848	e24b10bc	 sub         r1, r11, #0xBC
  0184c	e59b3000	 ldr         r3, [r11]
  01850	e5933000	 ldr         r3, [r3]
  01854	e2833048	 add         r3, r3, #0x48
  01858	e59b0000	 ldr         r0, [r11]
  0185c	e5933000	 ldr         r3, [r3]
  01860	e1a0e00f	 mov         lr, pc
  01864	e12fff13	 bx          r3
  01868	e50b0048	 str         r0, [r11, #-0x48]
  0186c	e51b3048	 ldr         r3, [r11, #-0x48]
  01870	e3530000	 cmp         r3, #0
  01874	0a00008e	 beq         |$LN10@IssueTrans|
  01878	e59b3000	 ldr         r3, [r11]
  0187c	e5933000	 ldr         r3, [r3]
  01880	e2833044	 add         r3, r3, #0x44
  01884	e59b0000	 ldr         r0, [r11]
  01888	e5933000	 ldr         r3, [r3]
  0188c	e1a0e00f	 mov         lr, pc
  01890	e12fff13	 bx          r3
  01894	e50b0044	 str         r0, [r11, #-0x44]
  01898	e51b3044	 ldr         r3, [r11, #-0x44]
  0189c	e3530000	 cmp         r3, #0
  018a0	0a000083	 beq         |$LN10@IssueTrans|
  018a4	e59b3000	 ldr         r3, [r11]
  018a8	e283303b	 add         r3, r3, #0x3B
  018ac	e5d33000	 ldrb        r3, [r3]
  018b0	e1a02003	 mov         r2, r3
  018b4	e5db3004	 ldrb        r3, [r11, #4]
  018b8	e1520003	 cmp         r2, r3
  018bc	1a00007c	 bne         |$LN10@IssueTrans|

; 547  :         EnterCriticalSection( &m_csPipeLock );

  018c0	e59b3000	 ldr         r3, [r11]
  018c4	e2830020	 add         r0, r3, #0x20
  018c8	eb000000	 bl          EnterCriticalSection
  018cc		 |$LN31@IssueTrans|

; 548  : #pragma prefast(disable: 322, "Recover gracefully from hardware failure")
; 549  :         __try { // initializing transfer status parameters
; 550  :             *sTransfer.lpfComplete = FALSE;

  018cc	e51b2088	 ldr         r2, [r11, #-0x88]
  018d0	e3a03000	 mov         r3, #0
  018d4	e5823000	 str         r3, [r2]

; 551  :             *sTransfer.lpdwBytesTransferred = 0;

  018d8	e51b2084	 ldr         r2, [r11, #-0x84]
  018dc	e3a03000	 mov         r3, #0
  018e0	e5823000	 str         r3, [r2]

; 552  :             *sTransfer.lpdwError = USB_NOT_COMPLETE_ERROR;

  018e4	e51b2080	 ldr         r2, [r11, #-0x80]
  018e8	e3a03c01	 mov         r3, #1, 24
  018ec	e3833003	 orr         r3, r3, #3
  018f0	e5823000	 str         r3, [r2]

; 553  :             CQTransfer * pTransfer = new CQTransfer(this,m_pCMhcd->GetPhysMem(),sTransfer);

  018f4	e3a0006c	 mov         r0, #0x6C
  018f8	eb000000	 bl          |??2@YAPAXI@Z|
  018fc	e50b0040	 str         r0, [r11, #-0x40]
  01900	e51b3040	 ldr         r3, [r11, #-0x40]
  01904	e50b3070	 str         r3, [r11, #-0x70]
  01908	e51b3070	 ldr         r3, [r11, #-0x70]
  0190c	e3530000	 cmp         r3, #0
  01910	0a000011	 beq         |$LN18@IssueTrans|
  01914	e59b3000	 ldr         r3, [r11]
  01918	e283300c	 add         r3, r3, #0xC
  0191c	e5930000	 ldr         r0, [r3]
  01920	eb000000	 bl          |?GetPhysMem@CHW@@QAAPAVCPhysMem@@XZ|
  01924	e50b003c	 str         r0, [r11, #-0x3C]
  01928	e28d0000	 add         r0, sp, #0
  0192c	e24b10b8	 sub         r1, r11, #0xB8
  01930	e3a0203c	 mov         r2, #0x3C
  01934	eb000000	 bl          memcpy
  01938	e51b30bc	 ldr         r3, [r11, #-0xBC]
  0193c	e51b203c	 ldr         r2, [r11, #-0x3C]
  01940	e59b1000	 ldr         r1, [r11]
  01944	e51b0070	 ldr         r0, [r11, #-0x70]
  01948	eb000000	 bl          |??0CQTransfer@@QAA@QAVCPipe@@QAVCPhysMem@@USTRANSFER@@@Z|
  0194c	e50b0038	 str         r0, [r11, #-0x38]
  01950	e51b3038	 ldr         r3, [r11, #-0x38]
  01954	e50b3034	 str         r3, [r11, #-0x34]
  01958	ea000001	 b           |$LN19@IssueTrans|
  0195c		 |$LN18@IssueTrans|
  0195c	e3a03000	 mov         r3, #0
  01960	e50b3034	 str         r3, [r11, #-0x34]
  01964		 |$LN19@IssueTrans|
  01964	e51b3034	 ldr         r3, [r11, #-0x34]
  01968	e50b3078	 str         r3, [r11, #-0x78]

; 554  :             if (pTransfer && pTransfer->Init()) {

  0196c	e51b3078	 ldr         r3, [r11, #-0x78]
  01970	e3530000	 cmp         r3, #0
  01974	0a000028	 beq         |$LN8@IssueTrans|
  01978	e51b3078	 ldr         r3, [r11, #-0x78]
  0197c	e5933000	 ldr         r3, [r3]
  01980	e2833004	 add         r3, r3, #4
  01984	e51b0078	 ldr         r0, [r11, #-0x78]
  01988	e5933000	 ldr         r3, [r3]
  0198c	e1a0e00f	 mov         lr, pc
  01990	e12fff13	 bx          r3
  01994	e50b0030	 str         r0, [r11, #-0x30]
  01998	e51b3030	 ldr         r3, [r11, #-0x30]
  0199c	e3530000	 cmp         r3, #0
  019a0	0a00001d	 beq         |$LN8@IssueTrans|

; 555  :                 CQTransfer * pCur = m_pUnQueuedTransfer;

  019a4	e59b3000	 ldr         r3, [r11]
  019a8	e2833068	 add         r3, r3, #0x68
  019ac	e5933000	 ldr         r3, [r3]
  019b0	e50b3074	 str         r3, [r11, #-0x74]

; 556  :                 if (pCur) {

  019b4	e51b3074	 ldr         r3, [r11, #-0x74]
  019b8	e3530000	 cmp         r3, #0
  019bc	0a00000f	 beq         |$LN7@IssueTrans|
  019c0		 |$LN6@IssueTrans|

; 557  :                     while (pCur->GetNextTransfer()!=NULL)

  019c0	e51b0074	 ldr         r0, [r11, #-0x74]
  019c4	eb000000	 bl          |?GetNextTransfer@CTransfer@@QAAPAV1@XZ|
  019c8	e50b002c	 str         r0, [r11, #-0x2C]
  019cc	e51b302c	 ldr         r3, [r11, #-0x2C]
  019d0	e3530000	 cmp         r3, #0
  019d4	0a000005	 beq         |$LN5@IssueTrans|

; 558  :                          pCur = (CQTransfer * )pCur->GetNextTransfer();

  019d8	e51b0074	 ldr         r0, [r11, #-0x74]
  019dc	eb000000	 bl          |?GetNextTransfer@CTransfer@@QAAPAV1@XZ|
  019e0	e50b0028	 str         r0, [r11, #-0x28]
  019e4	e51b3028	 ldr         r3, [r11, #-0x28]
  019e8	e50b3074	 str         r3, [r11, #-0x74]
  019ec	eafffff3	 b           |$LN6@IssueTrans|
  019f0		 |$LN5@IssueTrans|

; 559  :                     pCur->SetNextTransfer( pTransfer);

  019f0	e51b1078	 ldr         r1, [r11, #-0x78]
  019f4	e51b0074	 ldr         r0, [r11, #-0x74]
  019f8	eb000000	 bl          |?SetNextTransfer@CTransfer@@QAAXPAV1@@Z|

; 560  :                 }
; 561  :                 else

  019fc	ea000003	 b           |$LN4@IssueTrans|
  01a00		 |$LN7@IssueTrans|

; 562  :                     m_pUnQueuedTransfer=pTransfer;

  01a00	e59b3000	 ldr         r3, [r11]
  01a04	e2832068	 add         r2, r3, #0x68
  01a08	e51b3078	 ldr         r3, [r11, #-0x78]
  01a0c	e5823000	 str         r3, [r2]
  01a10		 |$LN4@IssueTrans|

; 563  :                 status=requestOK ;

  01a10	e3a03001	 mov         r3, #1
  01a14	e50b307c	 str         r3, [r11, #-0x7C]

; 564  :             }
; 565  :             else

  01a18	ea000018	 b           |$LN3@IssueTrans|
  01a1c		 |$LN8@IssueTrans|

; 566  :                 if (pTransfer) { // We return fails here so do not need callback;

  01a1c	e51b3078	 ldr         r3, [r11, #-0x78]
  01a20	e3530000	 cmp         r3, #0
  01a24	0a000015	 beq         |$LN2@IssueTrans|

; 567  :                     pTransfer->DoNotCallBack() ;

  01a28	e51b0078	 ldr         r0, [r11, #-0x78]
  01a2c	eb000000	 bl          |?DoNotCallBack@CTransfer@@QAAXXZ|

; 568  :                     delete pTransfer;    

  01a30	e51b3078	 ldr         r3, [r11, #-0x78]
  01a34	e50b3068	 str         r3, [r11, #-0x68]
  01a38	e51b3068	 ldr         r3, [r11, #-0x68]
  01a3c	e50b306c	 str         r3, [r11, #-0x6C]
  01a40	e51b306c	 ldr         r3, [r11, #-0x6C]
  01a44	e3530000	 cmp         r3, #0
  01a48	0a00000a	 beq         |$LN20@IssueTrans|
  01a4c	e3a01001	 mov         r1, #1
  01a50	e51b306c	 ldr         r3, [r11, #-0x6C]
  01a54	e5933000	 ldr         r3, [r3]
  01a58	e51b006c	 ldr         r0, [r11, #-0x6C]
  01a5c	e5933000	 ldr         r3, [r3]
  01a60	e1a0e00f	 mov         lr, pc
  01a64	e12fff13	 bx          r3
  01a68	e50b0024	 str         r0, [r11, #-0x24]
  01a6c	e51b3024	 ldr         r3, [r11, #-0x24]
  01a70	e50b3020	 str         r3, [r11, #-0x20]
  01a74	ea000001	 b           |$LN21@IssueTrans|
  01a78		 |$LN20@IssueTrans|
  01a78	e3a03000	 mov         r3, #0
  01a7c	e50b3020	 str         r3, [r11, #-0x20]
  01a80		 |$LN21@IssueTrans|
  01a80		 |$LN2@IssueTrans|
  01a80		 |$LN3@IssueTrans|
  01a80		 |$LN32@IssueTrans|

; 569  :                 }

  01a80	ea000000	 b           |$LN33@IssueTrans|
  01a84		 |$LN28@IssueTrans|
  01a84	eaffffff	 b           |$LN33@IssueTrans|
  01a88		 |$LN33@IssueTrans|

; 571  :         }
; 572  : #pragma prefast(pop)
; 573  :         LeaveCriticalSection( &m_csPipeLock );

  01a88	e59b3000	 ldr         r3, [r11]
  01a8c	e2830020	 add         r0, r3, #0x20
  01a90	eb000000	 bl          LeaveCriticalSection

; 574  :         ScheduleTransfer( );

  01a94	e59b3000	 ldr         r3, [r11]
  01a98	e5933000	 ldr         r3, [r3]
  01a9c	e2833030	 add         r3, r3, #0x30
  01aa0	e59b0000	 ldr         r0, [r11]
  01aa4	e5933000	 ldr         r3, [r3]
  01aa8	e1a0e00f	 mov         lr, pc
  01aac	e12fff13	 bx          r3

; 575  :     }
; 576  :     else

  01ab0	ea00000c	 b           |$LN1@IssueTrans|
  01ab4		 |$LN10@IssueTrans|

; 577  :         ASSERT(FALSE);

  01ab4	ea000002	 b           |$LN22@IssueTrans|
  01ab8	e3a03001	 mov         r3, #1
  01abc	e50b301c	 str         r3, [r11, #-0x1C]
  01ac0	ea000008	 b           |$LN23@IssueTrans|
  01ac4		 |$LN22@IssueTrans|
  01ac4	e3a03c02	 mov         r3, #2, 24
  01ac8	e3833041	 orr         r3, r3, #0x41
  01acc	e59f20bc	 ldr         r2, [pc, #0xBC]
  01ad0	e59f10b4	 ldr         r1, [pc, #0xB4]
  01ad4	e59f00ac	 ldr         r0, [pc, #0xAC]
  01ad8	eb000000	 bl          NKDbgPrintfW
  01adc	e6000010	 __debugbreak_ce
  01ae0	e3a03000	 mov         r3, #0
  01ae4	e50b301c	 str         r3, [r11, #-0x1C]
  01ae8		 |$LN23@IssueTrans|
  01ae8		 |$LN1@IssueTrans|

; 578  :     DEBUGMSG( ZONE_TRANSFER, (TEXT("%s: -CPipe(%s)::IssueTransfer - address = %d, returing HCD_REQUEST_STATUS %d\n"),GetControllerName(), GetPipeType(), address, status) );

  01ae8	e59f3094	 ldr         r3, [pc, #0x94]
  01aec	e5933440	 ldr         r3, [r3, #0x440]
  01af0	e3130c01	 tst         r3, #1, 24
  01af4	0a000014	 beq         |$LN24@IssueTrans|
  01af8	e59b3000	 ldr         r3, [r11]
  01afc	e5933000	 ldr         r3, [r3]
  01b00	e2833040	 add         r3, r3, #0x40
  01b04	e59b0000	 ldr         r0, [r11]
  01b08	e5933000	 ldr         r3, [r3]
  01b0c	e1a0e00f	 mov         lr, pc
  01b10	e12fff13	 bx          r3
  01b14	e50b0018	 str         r0, [r11, #-0x18]
  01b18	e59b0000	 ldr         r0, [r11]
  01b1c	eb000000	 bl          |?GetControllerName@CPipe@@QBAPBGXZ|
  01b20	e50b0014	 str         r0, [r11, #-0x14]
  01b24	e51b307c	 ldr         r3, [r11, #-0x7C]
  01b28	e58d3000	 str         r3, [sp]
  01b2c	e5db3004	 ldrb        r3, [r11, #4]
  01b30	e51b2018	 ldr         r2, [r11, #-0x18]
  01b34	e51b1014	 ldr         r1, [r11, #-0x14]
  01b38	e59f0040	 ldr         r0, [pc, #0x40]
  01b3c	eb000000	 bl          NKDbgPrintfW
  01b40	e3a03001	 mov         r3, #1
  01b44	e50b3010	 str         r3, [r11, #-0x10]
  01b48	ea000001	 b           |$LN25@IssueTrans|
  01b4c		 |$LN24@IssueTrans|
  01b4c	e3a03000	 mov         r3, #0
  01b50	e50b3010	 str         r3, [r11, #-0x10]
  01b54		 |$LN25@IssueTrans|

; 579  :     return status;

  01b54	e51b307c	 ldr         r3, [r11, #-0x7C]
  01b58	e50b3064	 str         r3, [r11, #-0x64]
  01b5c		 |$LN12@IssueTrans|
  01b5c		 |$LN26@IssueTrans|

; 580  : }

  01b5c	e51b0064	 ldr         r0, [r11, #-0x64]
  01b60	e24bd00c	 sub         sp, r11, #0xC
  01b64	e89d6800	 ldmia       sp, {r11, sp, lr}
  01b68	e12fff1e	 bx          lr

			 ENDP  ; |?IssueTransfer@CQueuedPipe@@UAA?AW4HCD_REQUEST_STATUS@@EQ6AKPAX@ZQAXKQBXKKQBKK2K3QAK5QAH55@Z|, CQueuedPipe::IssueTransfer

  01b6c		 |$LN27@IssueTrans|
  01b6c		 |$LN36@IssueTrans|

; 570  :         } __except( EXCEPTION_EXECUTE_HANDLER ) {

  01b6c	e52de004	 str         lr, [sp, #-4]!
  01b70	e24dd03c	 sub         sp, sp, #0x3C
  01b74		 |$LN30@IssueTrans|
  01b74		 |$LN39@IssueTrans|
  01b74	e3a00001	 mov         r0, #1
  01b78		 |$LN29@IssueTrans|
  01b78	e28dd03c	 add         sp, sp, #0x3C
  01b7c	e49df004	 ldr         pc, [sp], #4
  01b80		 |$LN41@IssueTrans|
  01b80		 |$LN42@IssueTrans|
  01b80	00000000	 DCD         |??_C@_1JM@HCMJHHKO@?$AA?$CF?$AAs?$AA?3?$AA?5?$AA?9?$AAC?$AAP?$AAi?$AAp?$AAe?$AA?$CI?$AA?$CF?$AAs?$AA?$CJ?$AA?3?$AA?3?$AAI?$AAs?$AAs?$AAu?$AAe?$AAT?$AAr?$AAa?$AAn?$AAs?$AAf?$AAe?$AAr?$AA?5?$AA?9?$AA?5@|
  01b84		 |$LN43@IssueTrans|
  01b84	00000000	 DCD         |dpCurSettings|
  01b88		 |$LN44@IssueTrans|
  01b88	00000000	 DCD         |??_C@_1FK@FNONLNGN@?$AA?$CF?$AAs?$AA?3?$AA?5?$AAD?$AAE?$AAB?$AAU?$AAG?$AAC?$AAH?$AAK?$AA?5?$AAf?$AAa?$AAi?$AAl?$AAe?$AAd?$AA?5?$AAi?$AAn?$AA?5?$AAf?$AAi?$AAl?$AAe?$AA?5?$AA?$CF?$AAs?$AA?5?$AAa@|
  01b8c		 |$LN45@IssueTrans|
  01b8c	00000000	 DCD         |??_C@_1BA@LEPJIIOK@?$AAU?$AAn?$AAk?$AAn?$AAo?$AAw?$AAn?$AA?$AA@|
  01b90		 |$LN46@IssueTrans|
  01b90	00000000	 DCD         |??_C@_1LK@LMPDOKKA@?$AAC?$AA?3?$AA?2?$AAW?$AAI?$AAN?$AAC?$AAE?$AA6?$AA0?$AA0?$AA?2?$AAP?$AAL?$AAA?$AAT?$AAF?$AAO?$AAR?$AAM?$AA?2?$AAC?$AAO?$AAM?$AAM?$AAO?$AAN?$AA?2?$AAS?$AAR?$AAC?$AA?2@|
  01b94		 |$LN47@IssueTrans|
  01b94	00000000	 DCD         |??_C@_1FE@ONKDEIGN@?$AAC?$AAQ?$AAu?$AAe?$AAu?$AAe?$AAd?$AAP?$AAi?$AAp?$AAe?$AA?3?$AA?3?$AAI?$AAs?$AAs?$AAu?$AAe?$AAT?$AAr?$AAa?$AAn?$AAs?$AAf?$AAe?$AAr?$AA?3?$AA?3?$AA?5?$AAD?$AAi?$AAs@|
  01b98		 |$LN48@IssueTrans|
  01b98	00000000	 DCD         |??_C@_1FK@BPNHMPHA@?$AA?$CF?$AAs?$AA?3?$AA?5?$AA?$CL?$AAC?$AAP?$AAi?$AAp?$AAe?$AA?$CI?$AA?$CF?$AAs?$AA?$CJ?$AA?3?$AA?3?$AAI?$AAs?$AAs?$AAu?$AAe?$AAT?$AAr?$AAa?$AAn?$AAs?$AAf?$AAe?$AAr?$AA?0?$AA?5?$AAa@|
  01b9c		 |$LN40@IssueTrans|
  01b9c		 |$LN38@IssueTrans|
; File c:\wince600\platform\common\src\soc\common_ti_v1\omap3530\musb\musbhcd\musbmhdrc\trans.h

  00000			 AREA	 |.pdata|, PDATA
|$T37947| DCD	|$LN5@DoNotCallB|
	DCD	0x40001503
; Function compile flags: /Odtp

  00000			 AREA	 |.text|, CODE, ARM

  00000		 |?DoNotCallBack@CTransfer@@QAAXXZ| PROC ; CTransfer::DoNotCallBack

; 64   :     void  DoNotCallBack() {

  00000		 |$LN5@DoNotCallB|
  00000	e1a0c00d	 mov         r12, sp
  00004	e92d0001	 stmdb       sp!, {r0}
  00008	e92d5000	 stmdb       sp!, {r12, lr}
  0000c		 |$M37944|

; 65   :         m_sTransfer.lpfComplete = NULL;

  0000c	e59d3008	 ldr         r3, [sp, #8]
  00010	e2832050	 add         r2, r3, #0x50
  00014	e3a03000	 mov         r3, #0
  00018	e5823000	 str         r3, [r2]

; 66   :         m_sTransfer.lpdwError = NULL;

  0001c	e59d3008	 ldr         r3, [sp, #8]
  00020	e2832058	 add         r2, r3, #0x58
  00024	e3a03000	 mov         r3, #0
  00028	e5823000	 str         r3, [r2]

; 67   :         m_sTransfer.lpdwBytesTransferred = NULL;

  0002c	e59d3008	 ldr         r3, [sp, #8]
  00030	e2832054	 add         r2, r3, #0x54
  00034	e3a03000	 mov         r3, #0
  00038	e5823000	 str         r3, [r2]

; 68   :         m_sTransfer.lpStartAddress = NULL;

  0003c	e59d3008	 ldr         r3, [sp, #8]
  00040	e283201c	 add         r2, r3, #0x1C
  00044	e3a03000	 mov         r3, #0
  00048	e5823000	 str         r3, [r2]

; 69   :     }

  0004c	e89d6000	 ldmia       sp, {sp, lr}
  00050	e12fff1e	 bx          lr
  00054		 |$M37945|

			 ENDP  ; |?DoNotCallBack@CTransfer@@QAAXXZ|, CTransfer::DoNotCallBack

	EXPORT	|??_7CQTransfer@@6B@| [ DATA ]		; CQTransfer::`vftable'
	IMPORT	|??0CTransfer@@QAA@QAVCPipe@@QAVCPhysMem@@USTRANSFER@@@Z| ; CTransfer::CTransfer
	IMPORT	|??_ECQTransfer@@UAAPAXI@Z|, WEAK |??_GCQTransfer@@UAAPAXI@Z| ; CQTransfer::`vector deleting destructor', CQTransfer::`scalar deleting destructor'
	IMPORT	|?Init@CTransfer@@UAAHXZ|		; CTransfer::Init
	IMPORT	|?AddTransfer@CQTransfer@@UAAHXZ|	; CQTransfer::AddTransfer

  00000			 AREA	 |.pdata|, PDATA
|$T37955| DCD	|$LN5@CQTransfer@2|
	DCD	0x40001c04

  00000			 AREA	 |.rdata|, DATA, READONLY
|??_7CQTransfer@@6B@| DCD |??_ECQTransfer@@UAAPAXI@Z|	; CQTransfer::`vftable'
	DCD	|?Init@CTransfer@@UAAHXZ|
	DCD	|?AddTransfer@CQTransfer@@UAAHXZ|
; Function compile flags: /Odtp

  00000			 AREA	 |.text|, CODE, ARM

  00000		 |??0CQTransfer@@QAA@QAVCPipe@@QAVCPhysMem@@USTRANSFER@@@Z| PROC ; CQTransfer::CQTransfer

; 86   :     {   m_pCQTDList=NULL;   };

  00000		 |$LN5@CQTransfer@2|
  00000	e1a0c00d	 mov         r12, sp
  00004	e92d000f	 stmdb       sp!, {r0 - r3}
  00008	e92d5000	 stmdb       sp!, {r12, lr}
  0000c	e24dd044	 sub         sp, sp, #0x44
  00010		 |$M37952|
  00010	e28d0000	 add         r0, sp, #0
  00014	e28d105c	 add         r1, sp, #0x5C
  00018	e3a0203c	 mov         r2, #0x3C
  0001c	eb000000	 bl          memcpy
  00020	e59d3058	 ldr         r3, [sp, #0x58]
  00024	e59d2054	 ldr         r2, [sp, #0x54]
  00028	e59d1050	 ldr         r1, [sp, #0x50]
  0002c	e59d004c	 ldr         r0, [sp, #0x4C]
  00030	eb000000	 bl          |??0CTransfer@@QAA@QAVCPipe@@QAVCPhysMem@@USTRANSFER@@@Z|
  00034	e58d0040	 str         r0, [sp, #0x40]
  00038	e59f202c	 ldr         r2, [pc, #0x2C]
  0003c	e59d304c	 ldr         r3, [sp, #0x4C]
  00040	e5832000	 str         r2, [r3]
  00044	e59d304c	 ldr         r3, [sp, #0x4C]
  00048	e2832068	 add         r2, r3, #0x68
  0004c	e3a03000	 mov         r3, #0
  00050	e5823000	 str         r3, [r2]
  00054	e59d304c	 ldr         r3, [sp, #0x4C]
  00058	e58d303c	 str         r3, [sp, #0x3C]
  0005c	e59d003c	 ldr         r0, [sp, #0x3C]
  00060	e28dd044	 add         sp, sp, #0x44
  00064	e89d6000	 ldmia       sp, {sp, lr}
  00068	e12fff1e	 bx          lr
  0006c		 |$LN6@CQTransfer@2|
  0006c		 |$LN7@CQTransfer@2|
  0006c	00000000	 DCD         |??_7CQTransfer@@6B@|
  00070		 |$M37953|

			 ENDP  ; |??0CQTransfer@@QAA@QAVCPipe@@QAVCPhysMem@@USTRANSFER@@@Z|, CQTransfer::CQTransfer

	IMPORT	|??1CQTransfer@@UAA@XZ|			; CQTransfer::~CQTransfer

  00000			 AREA	 |.pdata|, PDATA
|$T37965| DCD	|$LN6@scalar@4|
	DCD	0x40001104
; Function compile flags: /Odtp

  00000			 AREA	 |.text|, CODE, ARM

  00000		 |??_GCQTransfer@@UAAPAXI@Z| PROC	; CQTransfer::`scalar deleting destructor'
  00000		 |$LN6@scalar@4|
  00000	e1a0c00d	 mov         r12, sp
  00004	e92d0003	 stmdb       sp!, {r0, r1}
  00008	e92d5000	 stmdb       sp!, {r12, lr}
  0000c	e24dd004	 sub         sp, sp, #4
  00010		 |$M37962|
  00010	e59d000c	 ldr         r0, [sp, #0xC]
  00014	eb000000	 bl          |??1CQTransfer@@UAA@XZ|
  00018	e59d3010	 ldr         r3, [sp, #0x10]
  0001c	e3130001	 tst         r3, #1
  00020	0a000001	 beq         |$LN1@scalar@4|
  00024	e59d000c	 ldr         r0, [sp, #0xC]
  00028	eb000000	 bl          |??3@YAXPAX@Z|
  0002c		 |$LN1@scalar@4|
  0002c	e59d300c	 ldr         r3, [sp, #0xC]
  00030	e58d3000	 str         r3, [sp]
  00034	e59d0000	 ldr         r0, [sp]
  00038	e28dd004	 add         sp, sp, #4
  0003c	e89d6000	 ldmia       sp, {sp, lr}
  00040	e12fff1e	 bx          lr
  00044		 |$M37963|

			 ENDP  ; |??_GCQTransfer@@UAAPAXI@Z|, CQTransfer::`scalar deleting destructor'

	EXPORT	|??_C@_1LG@LENACAKG@?$AA?9?$AAC?$AAP?$AAi?$AAp?$AAe?$AA?$CI?$AA?$CF?$AAs?$AA?$CJ?$AA?3?$AA?3?$AAS?$AAc?$AAh?$AAe?$AAd?$AAu?$AAl?$AAe?$AAT?$AAr?$AAa?$AAn?$AAs?$AAf?$AAe?$AAr?$AA?5?$AA?9?$AA?5?$AAS@| [ DATA ] ; `string'
	EXPORT	|??_C@_1DE@HBNHEJMM@?$AAS?$AAc?$AAh?$AAe?$AAd?$AAu?$AAl?$AAe?$AAT?$AAr?$AAa?$AAn?$AAs?$AAf?$AAe?$AAr?$AA?5?$AAf?$AAa?$AAi?$AAl?$AAe?$AAd?$AA?$AN?$AA?6?$AA?$AA@| [ DATA ] ; `string'
	EXPORT	|?GetTransfer@CQTD@@QAAPAVCQTransfer@@XZ| ; CQTD::GetTransfer
	EXPORT	|?GetCQTDList@CQTransfer@@QAAPAVCQTD@@XZ| ; CQTransfer::GetCQTDList
	EXPORT	|??_C@_1FG@FKIMPLIC@?$AAS?$AAc?$AAh?$AAe?$AAd?$AAu?$AAl?$AAe?$AAT?$AAr?$AAa?$AAn?$AAs?$AAf?$AAe?$AAr?$AA?5?$AAf?$AAa?$AAi?$AAl?$AAe?$AAd?$AA?5?$AAt?$AAo?$AA?5?$AAa?$AAc?$AAq?$AAu?$AAi@| [ DATA ] ; `string'
	EXPORT	|??_C@_1HK@IENAOMCM@?$AAS?$AAT?$AA?5?$AAo?$AAn?$AA?5?$AAE?$AAP?$AA?5?$AA0?$AAx?$AA?$CF?$AAx?$AA?0?$AA?5?$AAQ?$AAT?$AA?$CI?$AA0?$AAx?$AA?$CF?$AAx?$AA?$CJ?$AA?0?$AA?5?$AAU?$AAQ?$AAT?$AA?$CI?$AA0?$AAx?$AA?$CF@| [ DATA ] ; `string'
	IMPORT	|?IssueTransfer@CQH@@QAAKPAVCQTD@@@Z|	; CQH::IssueTransfer
	IMPORT	|?AcquirePhysicalEndPoint@CHW@@QAAEPAVCPipe@@@Z| ; CHW::AcquirePhysicalEndPoint
	IMPORT	|?IsActive@CQH@@QAAHXZ|			; CQH::IsActive

  00088			 AREA	 |.pdata|, PDATA
|$T37991| DCD	|$LN29@ScheduleTr|
	DCD	0x40011b04
; File c:\wince600\platform\common\src\soc\common_ti_v1\omap3530\musb\musbhcd\musbmhdrc\cpipe.cpp

  00000			 AREA	 |.rdata|, DATA, READONLY
|??_C@_1LG@LENACAKG@?$AA?9?$AAC?$AAP?$AAi?$AAp?$AAe?$AA?$CI?$AA?$CF?$AAs?$AA?$CJ?$AA?3?$AA?3?$AAS?$AAc?$AAh?$AAe?$AAd?$AAu?$AAl?$AAe?$AAT?$AAr?$AAa?$AAn?$AAs?$AAf?$AAe?$AAr?$AA?5?$AA?9?$AA?5?$AAS@| DCB "-"
	DCB	0x0, "C", 0x0, "P", 0x0, "i", 0x0, "p", 0x0, "e", 0x0, "("
	DCB	0x0, "%", 0x0, "s", 0x0, ")", 0x0, ":", 0x0, ":", 0x0, "S"
	DCB	0x0, "c", 0x0, "h", 0x0, "e", 0x0, "d", 0x0, "u", 0x0, "l"
	DCB	0x0, "e", 0x0, "T", 0x0, "r", 0x0, "a", 0x0, "n", 0x0, "s"
	DCB	0x0, "f", 0x0, "e", 0x0, "r", 0x0, " ", 0x0, "-", 0x0, " "
	DCB	0x0, "S", 0x0, "c", 0x0, "h", 0x0, "e", 0x0, "d", 0x0, "u"
	DCB	0x0, "l", 0x0, "e", 0x0, " ", 0x0, "c", 0x0, "a", 0x0, "l"
	DCB	0x0, "l", 0x0, "e", 0x0, "d", 0x0, " ", 0x0, "d", 0x0, "u"
	DCB	0x0, "r", 0x0, "i", 0x0, "n", 0x0, "g", 0x0, " ", 0x0, "Q"
	DCB	0x0, "H", 0x0, "e", 0x0, "a", 0x0, "d", 0x0, " ", 0x0, "B"
	DCB	0x0, "u", 0x0, "s", 0x0, "y", 0x0, " ", 0x0, "o", 0x0, "r"
	DCB	0x0, " ", 0x0, "n", 0x0, "o", 0x0, "t", 0x0, "h", 0x0, "i"
	DCB	0x0, "n", 0x0, "g", 0x0, " ", 0x0, "t", 0x0, "o", 0x0, " "
	DCB	0x0, "s", 0x0, "c", 0x0, "h", 0x0, "e", 0x0, "d", 0x0, "u"
	DCB	0x0, "l", 0x0, "e", 0x0, "!", 0x0, " ", 0x0, 0xa, 0x0, 0x0
	DCB	0x0					; `string'

  00000			 AREA	 |.rdata|, DATA, READONLY
|??_C@_1DE@HBNHEJMM@?$AAS?$AAc?$AAh?$AAe?$AAd?$AAu?$AAl?$AAe?$AAT?$AAr?$AAa?$AAn?$AAs?$AAf?$AAe?$AAr?$AA?5?$AAf?$AAa?$AAi?$AAl?$AAe?$AAd?$AA?$AN?$AA?6?$AA?$AA@| DCB "S"
	DCB	0x0, "c", 0x0, "h", 0x0, "e", 0x0, "d", 0x0, "u", 0x0, "l"
	DCB	0x0, "e", 0x0, "T", 0x0, "r", 0x0, "a", 0x0, "n", 0x0, "s"
	DCB	0x0, "f", 0x0, "e", 0x0, "r", 0x0, " ", 0x0, "f", 0x0, "a"
	DCB	0x0, "i", 0x0, "l", 0x0, "e", 0x0, "d", 0x0, 0xd, 0x0, 0xa
	DCB	0x0, 0x0, 0x0				; `string'

  00000			 AREA	 |.rdata|, DATA, READONLY
|??_C@_1FG@FKIMPLIC@?$AAS?$AAc?$AAh?$AAe?$AAd?$AAu?$AAl?$AAe?$AAT?$AAr?$AAa?$AAn?$AAs?$AAf?$AAe?$AAr?$AA?5?$AAf?$AAa?$AAi?$AAl?$AAe?$AAd?$AA?5?$AAt?$AAo?$AA?5?$AAa?$AAc?$AAq?$AAu?$AAi@| DCB "S"
	DCB	0x0, "c", 0x0, "h", 0x0, "e", 0x0, "d", 0x0, "u", 0x0, "l"
	DCB	0x0, "e", 0x0, "T", 0x0, "r", 0x0, "a", 0x0, "n", 0x0, "s"
	DCB	0x0, "f", 0x0, "e", 0x0, "r", 0x0, " ", 0x0, "f", 0x0, "a"
	DCB	0x0, "i", 0x0, "l", 0x0, "e", 0x0, "d", 0x0, " ", 0x0, "t"
	DCB	0x0, "o", 0x0, " ", 0x0, "a", 0x0, "c", 0x0, "q", 0x0, "u"
	DCB	0x0, "i", 0x0, "r", 0x0, "e", 0x0, " ", 0x0, "e", 0x0, "p"
	DCB	0x0, " ", 0x0, "%", 0x0, "d", 0x0, 0xd, 0x0, 0xa, 0x0, 0x0
	DCB	0x0					; `string'

  00000			 AREA	 |.rdata|, DATA, READONLY
|??_C@_1HK@IENAOMCM@?$AAS?$AAT?$AA?5?$AAo?$AAn?$AA?5?$AAE?$AAP?$AA?5?$AA0?$AAx?$AA?$CF?$AAx?$AA?0?$AA?5?$AAQ?$AAT?$AA?$CI?$AA0?$AAx?$AA?$CF?$AAx?$AA?$CJ?$AA?0?$AA?5?$AAU?$AAQ?$AAT?$AA?$CI?$AA0?$AAx?$AA?$CF@| DCB "S"
	DCB	0x0, "T", 0x0, " ", 0x0, "o", 0x0, "n", 0x0, " ", 0x0, "E"
	DCB	0x0, "P", 0x0, " ", 0x0, "0", 0x0, "x", 0x0, "%", 0x0, "x"
	DCB	0x0, ",", 0x0, " ", 0x0, "Q", 0x0, "T", 0x0, "(", 0x0, "0"
	DCB	0x0, "x", 0x0, "%", 0x0, "x", 0x0, ")", 0x0, ",", 0x0, " "
	DCB	0x0, "U", 0x0, "Q", 0x0, "T", 0x0, "(", 0x0, "0", 0x0, "x"
	DCB	0x0, "%", 0x0, "x", 0x0, ")", 0x0, ",", 0x0, " ", 0x0, "Q"
	DCB	0x0, "H", 0x0, "(", 0x0, "0", 0x0, "x", 0x0, "%", 0x0, "x"
	DCB	0x0, ")", 0x0, ",", 0x0, " ", 0x0, "A", 0x0, "c", 0x0, "t"
	DCB	0x0, "i", 0x0, "v", 0x0, "e", 0x0, "(", 0x0, "0", 0x0, "x"
	DCB	0x0, "%", 0x0, "x", 0x0, ")", 0x0, 0xd, 0x0, 0xa, 0x0, 0x0
	DCB	0x0					; `string'
; Function compile flags: /Odtp

  01b9c			 AREA	 |.text|, CODE, ARM

  01b9c		 |?ScheduleTransfer@CQueuedPipe@@UAA?AW4HCD_REQUEST_STATUS@@XZ| PROC ; CQueuedPipe::ScheduleTransfer

; 591  : {

  01b9c		 |$LN29@ScheduleTr|
  01b9c	e1a0c00d	 mov         r12, sp
  01ba0	e92d0001	 stmdb       sp!, {r0}
  01ba4	e92d5000	 stmdb       sp!, {r12, lr}
  01ba8	e24dd074	 sub         sp, sp, #0x74
  01bac		 |$M37988|

; 592  :     HCD_REQUEST_STATUS  status = requestFailed;

  01bac	e3a03000	 mov         r3, #0
  01bb0	e58d300c	 str         r3, [sp, #0xC]

; 593  :     BOOL bGetLock = TRUE;

  01bb4	e3a03001	 mov         r3, #1
  01bb8	e58d3008	 str         r3, [sp, #8]

; 594  :     DEBUGMSG(ZONE_TRANSFER, (TEXT("ST on EP 0x%x, QT(0x%x), UQT(0x%x), QH(0x%x), Active(0x%x)\r\n"), 
; 595  :         m_usbEndpointDescriptor.bEndpointAddress, m_pQueuedTransfer, m_pUnQueuedTransfer, m_pPipeQHead,
; 596  :         m_pPipeQHead->IsActive()));

  01bbc	e59f3428	 ldr         r3, [pc, #0x428]
  01bc0	e5933440	 ldr         r3, [r3, #0x440]
  01bc4	e3130c01	 tst         r3, #1, 24
  01bc8	0a000018	 beq         |$LN11@ScheduleTr|
  01bcc	e59d307c	 ldr         r3, [sp, #0x7C]
  01bd0	e2833064	 add         r3, r3, #0x64
  01bd4	e5930000	 ldr         r0, [r3]
  01bd8	eb000000	 bl          |?IsActive@CQH@@QAAHXZ|
  01bdc	e58d0024	 str         r0, [sp, #0x24]
  01be0	e59d3024	 ldr         r3, [sp, #0x24]
  01be4	e58d3004	 str         r3, [sp, #4]
  01be8	e59d307c	 ldr         r3, [sp, #0x7C]
  01bec	e2833064	 add         r3, r3, #0x64
  01bf0	e5933000	 ldr         r3, [r3]
  01bf4	e58d3000	 str         r3, [sp]
  01bf8	e59d307c	 ldr         r3, [sp, #0x7C]
  01bfc	e2833068	 add         r3, r3, #0x68
  01c00	e5933000	 ldr         r3, [r3]
  01c04	e59d207c	 ldr         r2, [sp, #0x7C]
  01c08	e282206c	 add         r2, r2, #0x6C
  01c0c	e5922000	 ldr         r2, [r2]
  01c10	e59d107c	 ldr         r1, [sp, #0x7C]
  01c14	e2811036	 add         r1, r1, #0x36
  01c18	e5d11000	 ldrb        r1, [r1]
  01c1c	e59f03e0	 ldr         r0, [pc, #0x3E0]
  01c20	eb000000	 bl          NKDbgPrintfW
  01c24	e3a03001	 mov         r3, #1
  01c28	e58d3028	 str         r3, [sp, #0x28]
  01c2c	ea000001	 b           |$LN12@ScheduleTr|
  01c30		 |$LN11@ScheduleTr|
  01c30	e3a03000	 mov         r3, #0
  01c34	e58d3028	 str         r3, [sp, #0x28]
  01c38		 |$LN12@ScheduleTr|

; 597  :     EnterCriticalSection( &m_csPipeLock );

  01c38	e59d307c	 ldr         r3, [sp, #0x7C]
  01c3c	e2830020	 add         r0, r3, #0x20
  01c40	eb000000	 bl          EnterCriticalSection

; 598  :     if ( m_pQueuedTransfer == NULL && m_pUnQueuedTransfer!=NULL  && 
; 599  :             m_pPipeQHead && m_pPipeQHead->IsActive()==FALSE)

  01c44	e59d307c	 ldr         r3, [sp, #0x7C]
  01c48	e283306c	 add         r3, r3, #0x6C
  01c4c	e5933000	 ldr         r3, [r3]
  01c50	e3530000	 cmp         r3, #0
  01c54	1a0000c6	 bne         |$LN8@ScheduleTr|
  01c58	e59d307c	 ldr         r3, [sp, #0x7C]
  01c5c	e2833068	 add         r3, r3, #0x68
  01c60	e5933000	 ldr         r3, [r3]
  01c64	e3530000	 cmp         r3, #0
  01c68	0a0000c1	 beq         |$LN8@ScheduleTr|
  01c6c	e59d307c	 ldr         r3, [sp, #0x7C]
  01c70	e2833064	 add         r3, r3, #0x64
  01c74	e5933000	 ldr         r3, [r3]
  01c78	e3530000	 cmp         r3, #0
  01c7c	0a0000bc	 beq         |$LN8@ScheduleTr|
  01c80	e59d307c	 ldr         r3, [sp, #0x7C]
  01c84	e2833064	 add         r3, r3, #0x64
  01c88	e5930000	 ldr         r0, [r3]
  01c8c	eb000000	 bl          |?IsActive@CQH@@QAAHXZ|
  01c90	e58d002c	 str         r0, [sp, #0x2C]
  01c94	e59d302c	 ldr         r3, [sp, #0x2C]
  01c98	e3530000	 cmp         r3, #0
  01c9c	1a0000b4	 bne         |$LN8@ScheduleTr|

; 600  :     { // We need cqueue new Transfer.        
; 601  :         CQTransfer * pCurTransfer = m_pUnQueuedTransfer;        

  01ca0	e59d307c	 ldr         r3, [sp, #0x7C]
  01ca4	e2833068	 add         r3, r3, #0x68
  01ca8	e5933000	 ldr         r3, [r3]
  01cac	e58d3010	 str         r3, [sp, #0x10]

; 602  :         ASSERT(pCurTransfer!=NULL);

  01cb0	e59d3010	 ldr         r3, [sp, #0x10]
  01cb4	e3530000	 cmp         r3, #0
  01cb8	0a000002	 beq         |$LN13@ScheduleTr|
  01cbc	e3a03001	 mov         r3, #1
  01cc0	e58d3030	 str         r3, [sp, #0x30]
  01cc4	ea000008	 b           |$LN14@ScheduleTr|
  01cc8		 |$LN13@ScheduleTr|
  01cc8	e3a03c02	 mov         r3, #2, 24
  01ccc	e383305a	 orr         r3, r3, #0x5A
  01cd0	e59f2324	 ldr         r2, [pc, #0x324]
  01cd4	e59f131c	 ldr         r1, [pc, #0x31C]
  01cd8	e59f0314	 ldr         r0, [pc, #0x314]
  01cdc	eb000000	 bl          NKDbgPrintfW
  01ce0	e6000010	 __debugbreak_ce
  01ce4	e3a03000	 mov         r3, #0
  01ce8	e58d3030	 str         r3, [sp, #0x30]
  01cec		 |$LN14@ScheduleTr|

; 603  :         m_pUnQueuedTransfer = (CQTransfer * )pCurTransfer->GetNextTransfer();

  01cec	e59d0010	 ldr         r0, [sp, #0x10]
  01cf0	eb000000	 bl          |?GetNextTransfer@CTransfer@@QAAPAV1@XZ|
  01cf4	e58d0034	 str         r0, [sp, #0x34]
  01cf8	e59d307c	 ldr         r3, [sp, #0x7C]
  01cfc	e2832068	 add         r2, r3, #0x68
  01d00	e59d3034	 ldr         r3, [sp, #0x34]
  01d04	e5823000	 str         r3, [r2]

; 604  :         pCurTransfer->SetNextTransfer(NULL);

  01d08	e3a01000	 mov         r1, #0
  01d0c	e59d0010	 ldr         r0, [sp, #0x10]
  01d10	eb000000	 bl          |?SetNextTransfer@CTransfer@@QAAXPAV1@@Z|

; 605  :         m_pQueuedTransfer = pCurTransfer;            

  01d14	e59d307c	 ldr         r3, [sp, #0x7C]
  01d18	e283206c	 add         r2, r3, #0x6C
  01d1c	e59d3010	 ldr         r3, [sp, #0x10]
  01d20	e5823000	 str         r3, [r2]

; 606  : 
; 607  :         // Acquire the Phyical EndPoint now    
; 608  :         if(USB_ENDPOINT(m_usbEndpointDescriptor.bEndpointAddress) == 0)

  01d24	e59d307c	 ldr         r3, [sp, #0x7C]
  01d28	e2833036	 add         r3, r3, #0x36
  01d2c	e5d33000	 ldrb        r3, [r3]
  01d30	e313000f	 tst         r3, #0xF
  01d34	1a000017	 bne         |$LN7@ScheduleTr|

; 609  :             bGetLock = m_pCMhcd->LockEP0(GetReservedDeviceAddr());

  01d38	e59d307c	 ldr         r3, [sp, #0x7C]
  01d3c	e5933000	 ldr         r3, [r3]
  01d40	e2833028	 add         r3, r3, #0x28
  01d44	e59d007c	 ldr         r0, [sp, #0x7C]
  01d48	e5933000	 ldr         r3, [r3]
  01d4c	e1a0e00f	 mov         lr, pc
  01d50	e12fff13	 bx          r3
  01d54	e5cd0038	 strb        r0, [sp, #0x38]
  01d58	e5dd1038	 ldrb        r1, [sp, #0x38]
  01d5c	e59d307c	 ldr         r3, [sp, #0x7C]
  01d60	e283300c	 add         r3, r3, #0xC
  01d64	e5932000	 ldr         r2, [r3]
  01d68	e59d307c	 ldr         r3, [sp, #0x7C]
  01d6c	e283300c	 add         r3, r3, #0xC
  01d70	e5930000	 ldr         r0, [r3]
  01d74	e5923000	 ldr         r3, [r2]
  01d78	e2833074	 add         r3, r3, #0x74
  01d7c	e5933000	 ldr         r3, [r3]
  01d80	e1a0e00f	 mov         lr, pc
  01d84	e12fff13	 bx          r3
  01d88	e58d003c	 str         r0, [sp, #0x3C]
  01d8c	e59d303c	 ldr         r3, [sp, #0x3C]
  01d90	e58d3008	 str         r3, [sp, #8]

; 610  :         else

  01d94	ea000011	 b           |$LN6@ScheduleTr|
  01d98		 |$LN7@ScheduleTr|

; 611  :         {
; 612  :             UCHAR ep = m_pCMhcd->AcquirePhysicalEndPoint(this);        

  01d98	e59d107c	 ldr         r1, [sp, #0x7C]
  01d9c	e59d307c	 ldr         r3, [sp, #0x7C]
  01da0	e283300c	 add         r3, r3, #0xC
  01da4	e5930000	 ldr         r0, [r3]
  01da8	eb000000	 bl          |?AcquirePhysicalEndPoint@CHW@@QAAEPAVCPipe@@@Z|
  01dac	e5cd0040	 strb        r0, [sp, #0x40]
  01db0	e5dd3040	 ldrb        r3, [sp, #0x40]
  01db4	e5cd3014	 strb        r3, [sp, #0x14]

; 613  :             bGetLock = (ep == 0xff)? FALSE: TRUE;

  01db8	e5dd3014	 ldrb        r3, [sp, #0x14]
  01dbc	e35300ff	 cmp         r3, #0xFF
  01dc0	1a000002	 bne         |$LN15@ScheduleTr|
  01dc4	e3a03000	 mov         r3, #0
  01dc8	e58d3044	 str         r3, [sp, #0x44]
  01dcc	ea000001	 b           |$LN16@ScheduleTr|
  01dd0		 |$LN15@ScheduleTr|
  01dd0	e3a03001	 mov         r3, #1
  01dd4	e58d3044	 str         r3, [sp, #0x44]
  01dd8		 |$LN16@ScheduleTr|
  01dd8	e59d3044	 ldr         r3, [sp, #0x44]
  01ddc	e58d3008	 str         r3, [sp, #8]
  01de0		 |$LN6@ScheduleTr|

; 614  :         }
; 615  : 
; 616  :         if (bGetLock == FALSE)

  01de0	e59d3008	 ldr         r3, [sp, #8]
  01de4	e3530000	 cmp         r3, #0
  01de8	1a000012	 bne         |$LN5@ScheduleTr|

; 617  :         {
; 618  :             status = requestFailed;

  01dec	e3a03000	 mov         r3, #0
  01df0	e58d300c	 str         r3, [sp, #0xC]

; 619  :             m_pQueuedTransfer = NULL;

  01df4	e59d307c	 ldr         r3, [sp, #0x7C]
  01df8	e283206c	 add         r2, r3, #0x6C
  01dfc	e3a03000	 mov         r3, #0
  01e00	e5823000	 str         r3, [r2]

; 620  :             RETAILMSG(1, (TEXT("ScheduleTransfer failed to acquire ep %d\r\n"), 
; 621  :                 m_usbEndpointDescriptor.bEndpointAddress));

  01e04	e59d307c	 ldr         r3, [sp, #0x7C]
  01e08	e2833036	 add         r3, r3, #0x36
  01e0c	e5d33000	 ldrb        r3, [r3]
  01e10	e1a01003	 mov         r1, r3
  01e14	e59f01e4	 ldr         r0, [pc, #0x1E4]
  01e18	eb000000	 bl          NKDbgPrintfW
  01e1c	e3a03001	 mov         r3, #1
  01e20	e58d3048	 str         r3, [sp, #0x48]
  01e24	ea000001	 b           |$LN18@ScheduleTr|
  01e28	e3a03000	 mov         r3, #0
  01e2c	e58d3048	 str         r3, [sp, #0x48]
  01e30		 |$LN18@ScheduleTr|

; 622  :             goto SCHEDULE_TRANSFER_EXIT;

  01e30	ea000063	 b           |$LN4@ScheduleTr|
  01e34	ea000062	 b           |$SCHEDULE_TRANSFER_EXIT$36767|
  01e38		 |$LN5@ScheduleTr|

; 623  :         }
; 624  :         
; 625  :         if (GetQHead()->IssueTransfer(pCurTransfer->GetCQTDList())==ERROR_SUCCESS) {

  01e38	e59d0010	 ldr         r0, [sp, #0x10]
  01e3c	eb000000	 bl          |?GetCQTDList@CQTransfer@@QAAPAVCQTD@@XZ|
  01e40	e58d004c	 str         r0, [sp, #0x4C]
  01e44	e59d307c	 ldr         r3, [sp, #0x7C]
  01e48	e5933000	 ldr         r3, [r3]
  01e4c	e2833044	 add         r3, r3, #0x44
  01e50	e59d007c	 ldr         r0, [sp, #0x7C]
  01e54	e5933000	 ldr         r3, [r3]
  01e58	e1a0e00f	 mov         lr, pc
  01e5c	e12fff13	 bx          r3
  01e60	e58d0050	 str         r0, [sp, #0x50]
  01e64	e59d104c	 ldr         r1, [sp, #0x4C]
  01e68	e59d0050	 ldr         r0, [sp, #0x50]
  01e6c	eb000000	 bl          |?IssueTransfer@CQH@@QAAKPAVCQTD@@@Z|
  01e70	e58d0054	 str         r0, [sp, #0x54]
  01e74	e59d3054	 ldr         r3, [sp, #0x54]
  01e78	e3530000	 cmp         r3, #0
  01e7c	1a000018	 bne         |$LN3@ScheduleTr|

; 626  :             ASSERT(pCurTransfer->GetCQTDList()->GetTransfer()== pCurTransfer);

  01e80	e59d0010	 ldr         r0, [sp, #0x10]
  01e84	eb000000	 bl          |?GetCQTDList@CQTransfer@@QAAPAVCQTD@@XZ|
  01e88	e58d0058	 str         r0, [sp, #0x58]
  01e8c	e59d0058	 ldr         r0, [sp, #0x58]
  01e90	eb000000	 bl          |?GetTransfer@CQTD@@QAAPAVCQTransfer@@XZ|
  01e94	e58d005c	 str         r0, [sp, #0x5C]
  01e98	e59d205c	 ldr         r2, [sp, #0x5C]
  01e9c	e59d3010	 ldr         r3, [sp, #0x10]
  01ea0	e1520003	 cmp         r2, r3
  01ea4	1a000002	 bne         |$LN19@ScheduleTr|
  01ea8	e3a03001	 mov         r3, #1
  01eac	e58d3060	 str         r3, [sp, #0x60]
  01eb0	ea000008	 b           |$LN20@ScheduleTr|
  01eb4		 |$LN19@ScheduleTr|
  01eb4	e3a03c02	 mov         r3, #2, 24
  01eb8	e3833072	 orr         r3, r3, #0x72
  01ebc	e59f2138	 ldr         r2, [pc, #0x138]
  01ec0	e59f1130	 ldr         r1, [pc, #0x130]
  01ec4	e59f0128	 ldr         r0, [pc, #0x128]
  01ec8	eb000000	 bl          NKDbgPrintfW
  01ecc	e6000010	 __debugbreak_ce
  01ed0	e3a03000	 mov         r3, #0
  01ed4	e58d3060	 str         r3, [sp, #0x60]
  01ed8		 |$LN20@ScheduleTr|

; 627  :             status=requestOK ;

  01ed8	e3a03001	 mov         r3, #1
  01edc	e58d300c	 str         r3, [sp, #0xC]

; 628  :         }
; 629  :         else {

  01ee0	ea000022	 b           |$LN2@ScheduleTr|
  01ee4		 |$LN3@ScheduleTr|

; 630  :             ASSERT(FALSE);

  01ee4	ea000002	 b           |$LN21@ScheduleTr|
  01ee8	e3a03001	 mov         r3, #1
  01eec	e58d3064	 str         r3, [sp, #0x64]
  01ef0	ea000008	 b           |$LN22@ScheduleTr|
  01ef4		 |$LN21@ScheduleTr|
  01ef4	e3a03c02	 mov         r3, #2, 24
  01ef8	e3833076	 orr         r3, r3, #0x76
  01efc	e59f20f8	 ldr         r2, [pc, #0xF8]
  01f00	e59f10f0	 ldr         r1, [pc, #0xF0]
  01f04	e59f00e8	 ldr         r0, [pc, #0xE8]
  01f08	eb000000	 bl          NKDbgPrintfW
  01f0c	e6000010	 __debugbreak_ce
  01f10	e3a03000	 mov         r3, #0
  01f14	e58d3064	 str         r3, [sp, #0x64]
  01f18		 |$LN22@ScheduleTr|

; 631  :             // Can not Queue. 
; 632  :             RETAILMSG(1, (TEXT("ScheduleTransfer failed\r\n")));

  01f18	e59f00d0	 ldr         r0, [pc, #0xD0]
  01f1c	eb000000	 bl          NKDbgPrintfW
  01f20	e3a03001	 mov         r3, #1
  01f24	e58d3068	 str         r3, [sp, #0x68]
  01f28	ea000001	 b           |$LN24@ScheduleTr|
  01f2c	e3a03000	 mov         r3, #0
  01f30	e58d3068	 str         r3, [sp, #0x68]
  01f34		 |$LN24@ScheduleTr|

; 633  :             m_fIsHalted = TRUE;            

  01f34	e59d307c	 ldr         r3, [sp, #0x7C]
  01f38	e2832044	 add         r2, r3, #0x44
  01f3c	e3a03001	 mov         r3, #1
  01f40	e5823000	 str         r3, [r2]

; 634  :             m_pQueuedTransfer ->AbortTransfer();

  01f44	e59d307c	 ldr         r3, [sp, #0x7C]
  01f48	e283306c	 add         r3, r3, #0x6C
  01f4c	e5930000	 ldr         r0, [r3]
  01f50	eb000000	 bl          |?AbortTransfer@CQTransfer@@QAAHXZ|

; 635  :             //ProcessEP(STATUS_PROCESS_ABORT);
; 636  :             // we should not use ProcessEP, but global abort instead
; 637  :             CheckForDoneTransfers();

  01f54	e59d307c	 ldr         r3, [sp, #0x7C]
  01f58	e5933000	 ldr         r3, [r3]
  01f5c	e2833034	 add         r3, r3, #0x34
  01f60	e59d007c	 ldr         r0, [sp, #0x7C]
  01f64	e5933000	 ldr         r3, [r3]
  01f68	e1a0e00f	 mov         lr, pc
  01f6c	e12fff13	 bx          r3
  01f70		 |$LN2@ScheduleTr|

; 638  :         }
; 639  :     }
; 640  :     else 

  01f70	ea000013	 b           |$LN1@ScheduleTr|
  01f74		 |$LN8@ScheduleTr|

; 641  :         DEBUGMSG( ZONE_TRANSFER, (TEXT("-CPipe(%s)::ScheduleTransfer - Schedule called during QHead Busy or nothing to schedule! \n"), GetPipeType()) );

  01f74	e59f3070	 ldr         r3, [pc, #0x70]
  01f78	e5933440	 ldr         r3, [r3, #0x440]
  01f7c	e3130c01	 tst         r3, #1, 24
  01f80	0a00000d	 beq         |$LN25@ScheduleTr|
  01f84	e59d307c	 ldr         r3, [sp, #0x7C]
  01f88	e5933000	 ldr         r3, [r3]
  01f8c	e2833040	 add         r3, r3, #0x40
  01f90	e59d007c	 ldr         r0, [sp, #0x7C]
  01f94	e5933000	 ldr         r3, [r3]
  01f98	e1a0e00f	 mov         lr, pc
  01f9c	e12fff13	 bx          r3
  01fa0	e58d006c	 str         r0, [sp, #0x6C]
  01fa4	e59d106c	 ldr         r1, [sp, #0x6C]
  01fa8	e59f0038	 ldr         r0, [pc, #0x38]
  01fac	eb000000	 bl          NKDbgPrintfW
  01fb0	e3a03001	 mov         r3, #1
  01fb4	e58d3070	 str         r3, [sp, #0x70]
  01fb8	ea000001	 b           |$LN26@ScheduleTr|
  01fbc		 |$LN25@ScheduleTr|
  01fbc	e3a03000	 mov         r3, #0
  01fc0	e58d3070	 str         r3, [sp, #0x70]
  01fc4		 |$LN26@ScheduleTr|
  01fc4		 |$LN1@ScheduleTr|
  01fc4		 |$LN4@ScheduleTr|
  01fc4		 |$SCHEDULE_TRANSFER_EXIT$36767|

; 642  : 
; 643  : SCHEDULE_TRANSFER_EXIT:
; 644  :     LeaveCriticalSection( &m_csPipeLock );

  01fc4	e59d307c	 ldr         r3, [sp, #0x7C]
  01fc8	e2830020	 add         r0, r3, #0x20
  01fcc	eb000000	 bl          LeaveCriticalSection

; 645  :     return status;

  01fd0	e59d300c	 ldr         r3, [sp, #0xC]
  01fd4	e58d3020	 str         r3, [sp, #0x20]

; 646  : }

  01fd8	e59d0020	 ldr         r0, [sp, #0x20]
  01fdc	e28dd074	 add         sp, sp, #0x74
  01fe0	e89d6000	 ldmia       sp, {sp, lr}
  01fe4	e12fff1e	 bx          lr
  01fe8		 |$LN30@ScheduleTr|
  01fe8		 |$LN31@ScheduleTr|
  01fe8	00000000	 DCD         |??_C@_1LG@LENACAKG@?$AA?9?$AAC?$AAP?$AAi?$AAp?$AAe?$AA?$CI?$AA?$CF?$AAs?$AA?$CJ?$AA?3?$AA?3?$AAS?$AAc?$AAh?$AAe?$AAd?$AAu?$AAl?$AAe?$AAT?$AAr?$AAa?$AAn?$AAs?$AAf?$AAe?$AAr?$AA?5?$AA?9?$AA?5?$AAS@|
  01fec		 |$LN32@ScheduleTr|
  01fec	00000000	 DCD         |dpCurSettings|
  01ff0		 |$LN33@ScheduleTr|
  01ff0	00000000	 DCD         |??_C@_1DE@HBNHEJMM@?$AAS?$AAc?$AAh?$AAe?$AAd?$AAu?$AAl?$AAe?$AAT?$AAr?$AAa?$AAn?$AAs?$AAf?$AAe?$AAr?$AA?5?$AAf?$AAa?$AAi?$AAl?$AAe?$AAd?$AA?$AN?$AA?6?$AA?$AA@|
  01ff4		 |$LN34@ScheduleTr|
  01ff4	00000000	 DCD         |??_C@_1FK@FNONLNGN@?$AA?$CF?$AAs?$AA?3?$AA?5?$AAD?$AAE?$AAB?$AAU?$AAG?$AAC?$AAH?$AAK?$AA?5?$AAf?$AAa?$AAi?$AAl?$AAe?$AAd?$AA?5?$AAi?$AAn?$AA?5?$AAf?$AAi?$AAl?$AAe?$AA?5?$AA?$CF?$AAs?$AA?5?$AAa@|
  01ff8		 |$LN35@ScheduleTr|
  01ff8	00000000	 DCD         |??_C@_1BA@LEPJIIOK@?$AAU?$AAn?$AAk?$AAn?$AAo?$AAw?$AAn?$AA?$AA@|
  01ffc		 |$LN36@ScheduleTr|
  01ffc	00000000	 DCD         |??_C@_1LK@LMPDOKKA@?$AAC?$AA?3?$AA?2?$AAW?$AAI?$AAN?$AAC?$AAE?$AA6?$AA0?$AA0?$AA?2?$AAP?$AAL?$AAA?$AAT?$AAF?$AAO?$AAR?$AAM?$AA?2?$AAC?$AAO?$AAM?$AAM?$AAO?$AAN?$AA?2?$AAS?$AAR?$AAC?$AA?2@|
  02000		 |$LN37@ScheduleTr|
  02000	00000000	 DCD         |??_C@_1FG@FKIMPLIC@?$AAS?$AAc?$AAh?$AAe?$AAd?$AAu?$AAl?$AAe?$AAT?$AAr?$AAa?$AAn?$AAs?$AAf?$AAe?$AAr?$AA?5?$AAf?$AAa?$AAi?$AAl?$AAe?$AAd?$AA?5?$AAt?$AAo?$AA?5?$AAa?$AAc?$AAq?$AAu?$AAi@|
  02004		 |$LN38@ScheduleTr|
  02004	00000000	 DCD         |??_C@_1HK@IENAOMCM@?$AAS?$AAT?$AA?5?$AAo?$AAn?$AA?5?$AAE?$AAP?$AA?5?$AA0?$AAx?$AA?$CF?$AAx?$AA?0?$AA?5?$AAQ?$AAT?$AA?$CI?$AA0?$AAx?$AA?$CF?$AAx?$AA?$CJ?$AA?0?$AA?5?$AAU?$AAQ?$AAT?$AA?$CI?$AA0?$AAx?$AA?$CF@|
  02008		 |$M37989|

			 ENDP  ; |?ScheduleTransfer@CQueuedPipe@@UAA?AW4HCD_REQUEST_STATUS@@XZ|, CQueuedPipe::ScheduleTransfer

; File c:\wince600\platform\common\src\soc\common_ti_v1\omap3530\musb\musbhcd\musbmhdrc\ctd.h

  00000			 AREA	 |.pdata|, PDATA
|$T38006| DCD	|$LN5@GetTransfe|
	DCD	0x40000b04
; Function compile flags: /Odtp

  00000			 AREA	 |.text|, CODE, ARM

  00000		 |?GetTransfer@CQTD@@QAAPAVCQTransfer@@XZ| PROC ; CQTD::GetTransfer

; 81   :     CQTransfer * GetTransfer() {return m_pTrans; };

  00000		 |$LN5@GetTransfe|
  00000	e1a0c00d	 mov         r12, sp
  00004	e92d0001	 stmdb       sp!, {r0}
  00008	e92d5000	 stmdb       sp!, {r12, lr}
  0000c	e24dd004	 sub         sp, sp, #4
  00010		 |$M38003|
  00010	e59d300c	 ldr         r3, [sp, #0xC]
  00014	e5933000	 ldr         r3, [r3]
  00018	e58d3000	 str         r3, [sp]
  0001c	e59d0000	 ldr         r0, [sp]
  00020	e28dd004	 add         sp, sp, #4
  00024	e89d6000	 ldmia       sp, {sp, lr}
  00028	e12fff1e	 bx          lr
  0002c		 |$M38004|

			 ENDP  ; |?GetTransfer@CQTD@@QAAPAVCQTransfer@@XZ|, CQTD::GetTransfer

; File c:\wince600\platform\common\src\soc\common_ti_v1\omap3530\musb\musbhcd\musbmhdrc\trans.h

  00000			 AREA	 |.pdata|, PDATA
|$T38014| DCD	|$LN5@GetCQTDLis|
	DCD	0x40000c04
; Function compile flags: /Odtp

  00000			 AREA	 |.text|, CODE, ARM

  00000		 |?GetCQTDList@CQTransfer@@QAAPAVCQTD@@XZ| PROC ; CQTransfer::GetCQTDList

; 94   :     CQTD *GetCQTDList() { return m_pCQTDList; };

  00000		 |$LN5@GetCQTDLis|
  00000	e1a0c00d	 mov         r12, sp
  00004	e92d0001	 stmdb       sp!, {r0}
  00008	e92d5000	 stmdb       sp!, {r12, lr}
  0000c	e24dd004	 sub         sp, sp, #4
  00010		 |$M38011|
  00010	e59d300c	 ldr         r3, [sp, #0xC]
  00014	e2833068	 add         r3, r3, #0x68
  00018	e5933000	 ldr         r3, [r3]
  0001c	e58d3000	 str         r3, [sp]
  00020	e59d0000	 ldr         r0, [sp]
  00024	e28dd004	 add         sp, sp, #4
  00028	e89d6000	 ldmia       sp, {sp, lr}
  0002c	e12fff1e	 bx          lr
  00030		 |$M38012|

			 ENDP  ; |?GetCQTDList@CQTransfer@@QAAPAVCQTD@@XZ|, CQTransfer::GetCQTDList

	EXPORT	|??_C@_1HM@MEDIMPJF@?$AAP?$AAr?$AAo?$AAc?$AAe?$AAs?$AAs?$AAE?$AAP?$AA?5?$AAe?$AAm?$AAp?$AAt?$AAy?$AA?5?$AAm?$AA_?$AAp?$AAQ?$AAu?$AAe?$AAu?$AAe?$AAd?$AAT?$AAr?$AAa?$AAn?$AAs?$AAf?$AAe@| [ DATA ] ; `string'
	IMPORT	|?ProcessEP@CQTransfer@@QAAHKH@Z|	; CQTransfer::ProcessEP

  00090			 AREA	 |.pdata|, PDATA
|$T38024| DCD	|$LN9@ProcessEP|
	DCD	0x40003b04
; File c:\wince600\platform\common\src\soc\common_ti_v1\omap3530\musb\musbhcd\musbmhdrc\cpipe.cpp

  00000			 AREA	 |.rdata|, DATA, READONLY
|??_C@_1HM@MEDIMPJF@?$AAP?$AAr?$AAo?$AAc?$AAe?$AAs?$AAs?$AAE?$AAP?$AA?5?$AAe?$AAm?$AAp?$AAt?$AAy?$AA?5?$AAm?$AA_?$AAp?$AAQ?$AAu?$AAe?$AAu?$AAe?$AAd?$AAT?$AAr?$AAa?$AAn?$AAs?$AAf?$AAe@| DCB "P"
	DCB	0x0, "r", 0x0, "o", 0x0, "c", 0x0, "e", 0x0, "s", 0x0, "s"
	DCB	0x0, "E", 0x0, "P", 0x0, " ", 0x0, "e", 0x0, "m", 0x0, "p"
	DCB	0x0, "t", 0x0, "y", 0x0, " ", 0x0, "m", 0x0, "_", 0x0, "p"
	DCB	0x0, "Q", 0x0, "u", 0x0, "e", 0x0, "u", 0x0, "e", 0x0, "d"
	DCB	0x0, "T", 0x0, "r", 0x0, "a", 0x0, "n", 0x0, "s", 0x0, "f"
	DCB	0x0, "e", 0x0, "r", 0x0, "(", 0x0, "0", 0x0, "x", 0x0, "%"
	DCB	0x0, "x", 0x0, ")", 0x0, ",", 0x0, " ", 0x0, "m", 0x0, "_"
	DCB	0x0, "p", 0x0, "P", 0x0, "i", 0x0, "p", 0x0, "e", 0x0, "Q"
	DCB	0x0, "H", 0x0, "e", 0x0, "a", 0x0, "d", 0x0, "(", 0x0, "0"
	DCB	0x0, "x", 0x0, "%", 0x0, "x", 0x0, ")", 0x0, 0xd, 0x0, 0xa
	DCB	0x0, 0x0, 0x0				; `string'
; Function compile flags: /Odtp

  02008			 AREA	 |.text|, CODE, ARM

  02008		 |?ProcessEP@CQueuedPipe@@UAAHKH@Z| PROC ; CQueuedPipe::ProcessEP

; 658  : {

  02008		 |$LN9@ProcessEP|
  02008	e1a0c00d	 mov         r12, sp
  0200c	e92d0007	 stmdb       sp!, {r0 - r2}
  02010	e92d5000	 stmdb       sp!, {r12, lr}
  02014	e24dd014	 sub         sp, sp, #0x14
  02018		 |$M38021|

; 659  :     BOOL bReturn = FALSE;

  02018	e3a03000	 mov         r3, #0
  0201c	e58d3000	 str         r3, [sp]

; 660  :     EnterCriticalSection( &m_csPipeLock );

  02020	e59d301c	 ldr         r3, [sp, #0x1C]
  02024	e2830020	 add         r0, r3, #0x20
  02028	eb000000	 bl          EnterCriticalSection

; 661  :     
; 662  :     if (m_pQueuedTransfer!=NULL && m_pPipeQHead!=NULL) {

  0202c	e59d301c	 ldr         r3, [sp, #0x1C]
  02030	e283306c	 add         r3, r3, #0x6C
  02034	e5933000	 ldr         r3, [r3]
  02038	e3530000	 cmp         r3, #0
  0203c	0a000010	 beq         |$LN2@ProcessEP|
  02040	e59d301c	 ldr         r3, [sp, #0x1C]
  02044	e2833064	 add         r3, r3, #0x64
  02048	e5933000	 ldr         r3, [r3]
  0204c	e3530000	 cmp         r3, #0
  02050	0a00000b	 beq         |$LN2@ProcessEP|

; 663  :         // Check All the transfer done or not.
; 664  :         CQTransfer * pCurTransfer = m_pQueuedTransfer;                        

  02054	e59d301c	 ldr         r3, [sp, #0x1C]
  02058	e283306c	 add         r3, r3, #0x6C
  0205c	e5933000	 ldr         r3, [r3]
  02060	e58d3004	 str         r3, [sp, #4]

; 665  :         bReturn = pCurTransfer->ProcessEP(dwStatus, isDMA);

  02064	e59d2024	 ldr         r2, [sp, #0x24]
  02068	e59d1020	 ldr         r1, [sp, #0x20]
  0206c	e59d0004	 ldr         r0, [sp, #4]
  02070	eb000000	 bl          |?ProcessEP@CQTransfer@@QAAHKH@Z|
  02074	e58d000c	 str         r0, [sp, #0xC]
  02078	e59d300c	 ldr         r3, [sp, #0xC]
  0207c	e58d3000	 str         r3, [sp]

; 666  :     }
; 667  :     else

  02080	ea000010	 b           |$LN1@ProcessEP|
  02084		 |$LN2@ProcessEP|

; 668  :         DEBUGMSG(ZONE_TRANSFER, (TEXT("ProcessEP empty m_pQueuedTransfer(0x%x), m_pPipeQHead(0x%x)\r\n"),
; 669  :             m_pQueuedTransfer, m_pPipeQHead));

  02084	e59f3064	 ldr         r3, [pc, #0x64]
  02088	e5933440	 ldr         r3, [r3, #0x440]
  0208c	e3130c01	 tst         r3, #1, 24
  02090	0a00000a	 beq         |$LN5@ProcessEP|
  02094	e59d301c	 ldr         r3, [sp, #0x1C]
  02098	e2833064	 add         r3, r3, #0x64
  0209c	e5932000	 ldr         r2, [r3]
  020a0	e59d301c	 ldr         r3, [sp, #0x1C]
  020a4	e283306c	 add         r3, r3, #0x6C
  020a8	e5931000	 ldr         r1, [r3]
  020ac	e59f0038	 ldr         r0, [pc, #0x38]
  020b0	eb000000	 bl          NKDbgPrintfW
  020b4	e3a03001	 mov         r3, #1
  020b8	e58d3010	 str         r3, [sp, #0x10]
  020bc	ea000001	 b           |$LN6@ProcessEP|
  020c0		 |$LN5@ProcessEP|
  020c0	e3a03000	 mov         r3, #0
  020c4	e58d3010	 str         r3, [sp, #0x10]
  020c8		 |$LN6@ProcessEP|
  020c8		 |$LN1@ProcessEP|

; 670  :     LeaveCriticalSection( &m_csPipeLock );

  020c8	e59d301c	 ldr         r3, [sp, #0x1C]
  020cc	e2830020	 add         r0, r3, #0x20
  020d0	eb000000	 bl          LeaveCriticalSection

; 671  :     return bReturn;   

  020d4	e59d3000	 ldr         r3, [sp]
  020d8	e58d3008	 str         r3, [sp, #8]

; 672  : 
; 673  : 
; 674  : }

  020dc	e59d0008	 ldr         r0, [sp, #8]
  020e0	e28dd014	 add         sp, sp, #0x14
  020e4	e89d6000	 ldmia       sp, {sp, lr}
  020e8	e12fff1e	 bx          lr
  020ec		 |$LN10@ProcessEP|
  020ec		 |$LN11@ProcessEP|
  020ec	00000000	 DCD         |??_C@_1HM@MEDIMPJF@?$AAP?$AAr?$AAo?$AAc?$AAe?$AAs?$AAs?$AAE?$AAP?$AA?5?$AAe?$AAm?$AAp?$AAt?$AAy?$AA?5?$AAm?$AA_?$AAp?$AAQ?$AAu?$AAe?$AAu?$AAe?$AAd?$AAT?$AAr?$AAa?$AAn?$AAs?$AAf?$AAe@|
  020f0		 |$LN12@ProcessEP|
  020f0	00000000	 DCD         |dpCurSettings|
  020f4		 |$M38022|

			 ENDP  ; |?ProcessEP@CQueuedPipe@@UAAHKH@Z|, CQueuedPipe::ProcessEP

	EXPORT	|??_C@_1EO@MPJDFLCG@?$AAH?$AAa?$AAl?$AAt?$AA?5?$AAa?$AAn?$AAd?$AA?5?$AAn?$AAe?$AAe?$AAd?$AA?5?$AAt?$AAo?$AA?5?$AAd?$AAo?$AA?5?$AAs?$AAo?$AAm?$AAe?$AA?5?$AAd?$AAa?$AAt?$AAa?$AA?5?$AAt?$AAo@| [ DATA ] ; `string'
	IMPORT	|?IsTransferDone@CQTransfer@@QAAHXZ|	; CQTransfer::IsTransferDone

  00098			 AREA	 |.pdata|, PDATA
|$T38043| DCD	|$LN18@CheckForDo|
	DCD	0x40009504

  00000			 AREA	 |.rdata|, DATA, READONLY
|??_C@_1EO@MPJDFLCG@?$AAH?$AAa?$AAl?$AAt?$AA?5?$AAa?$AAn?$AAd?$AA?5?$AAn?$AAe?$AAe?$AAd?$AA?5?$AAt?$AAo?$AA?5?$AAd?$AAo?$AA?5?$AAs?$AAo?$AAm?$AAe?$AA?5?$AAd?$AAa?$AAt?$AAa?$AA?5?$AAt?$AAo@| DCB "H"
	DCB	0x0, "a", 0x0, "l", 0x0, "t", 0x0, " ", 0x0, "a", 0x0, "n"
	DCB	0x0, "d", 0x0, " ", 0x0, "n", 0x0, "e", 0x0, "e", 0x0, "d"
	DCB	0x0, " ", 0x0, "t", 0x0, "o", 0x0, " ", 0x0, "d", 0x0, "o"
	DCB	0x0, " ", 0x0, "s", 0x0, "o", 0x0, "m", 0x0, "e", 0x0, " "
	DCB	0x0, "d", 0x0, "a", 0x0, "t", 0x0, "a", 0x0, " ", 0x0, "t"
	DCB	0x0, "o", 0x0, "g", 0x0, "g", 0x0, "l", 0x0, "e", 0x0, 0xd
	DCB	0x0, 0xa, 0x0, 0x0, 0x0			; `string'
; Function compile flags: /Odtp

  020f4			 AREA	 |.text|, CODE, ARM

  020f4		 |?CheckForDoneTransfers@CQueuedPipe@@UAAHXZ| PROC ; CQueuedPipe::CheckForDoneTransfers

; 689  : {

  020f4		 |$LN18@CheckForDo|
  020f4	e1a0c00d	 mov         r12, sp
  020f8	e92d0001	 stmdb       sp!, {r0}
  020fc	e92d5000	 stmdb       sp!, {r12, lr}
  02100	e24dd038	 sub         sp, sp, #0x38
  02104		 |$M38040|

; 690  :     BOOL bReturn = FALSE;

  02104	e3a03000	 mov         r3, #0
  02108	e58d3000	 str         r3, [sp]

; 691  :     EnterCriticalSection( &m_csPipeLock );

  0210c	e59d3040	 ldr         r3, [sp, #0x40]
  02110	e2830020	 add         r0, r3, #0x20
  02114	eb000000	 bl          EnterCriticalSection

; 692  :     
; 693  :     if (m_pQueuedTransfer!=NULL && m_pPipeQHead!=NULL) {

  02118	e59d3040	 ldr         r3, [sp, #0x40]
  0211c	e283306c	 add         r3, r3, #0x6C
  02120	e5933000	 ldr         r3, [r3]
  02124	e3530000	 cmp         r3, #0
  02128	0a00006c	 beq         |$LN5@CheckForDo|
  0212c	e59d3040	 ldr         r3, [sp, #0x40]
  02130	e2833064	 add         r3, r3, #0x64
  02134	e5933000	 ldr         r3, [r3]
  02138	e3530000	 cmp         r3, #0
  0213c	0a000067	 beq         |$LN5@CheckForDo|

; 694  :         // Check All the transfer done or not.
; 695  :         CQTransfer * pCurTransfer = m_pQueuedTransfer;                        

  02140	e59d3040	 ldr         r3, [sp, #0x40]
  02144	e283306c	 add         r3, r3, #0x6C
  02148	e5933000	 ldr         r3, [r3]
  0214c	e58d3004	 str         r3, [sp, #4]

; 696  :         if (pCurTransfer->IsTransferDone() == TRUE) {           

  02150	e59d0004	 ldr         r0, [sp, #4]
  02154	eb000000	 bl          |?IsTransferDone@CQTransfer@@QAAHXZ|
  02158	e58d0014	 str         r0, [sp, #0x14]
  0215c	e59d3014	 ldr         r3, [sp, #0x14]
  02160	e3530001	 cmp         r3, #1
  02164	1a000055	 bne         |$LN4@CheckForDo|

; 697  :             ASSERT(m_pPipeQHead->IsActive() == FALSE) ;// Pipe Stopped.            

  02168	e59d3040	 ldr         r3, [sp, #0x40]
  0216c	e2833064	 add         r3, r3, #0x64
  02170	e5930000	 ldr         r0, [r3]
  02174	eb000000	 bl          |?IsActive@CQH@@QAAHXZ|
  02178	e58d0018	 str         r0, [sp, #0x18]
  0217c	e59d3018	 ldr         r3, [sp, #0x18]
  02180	e3530000	 cmp         r3, #0
  02184	1a000002	 bne         |$LN8@CheckForDo|
  02188	e3a03001	 mov         r3, #1
  0218c	e58d301c	 str         r3, [sp, #0x1C]
  02190	ea000008	 b           |$LN9@CheckForDo|
  02194		 |$LN8@CheckForDo|
  02194	e3a03c02	 mov         r3, #2, 24
  02198	e38330b9	 orr         r3, r3, #0xB9
  0219c	e59f21a0	 ldr         r2, [pc, #0x1A0]
  021a0	e59f1198	 ldr         r1, [pc, #0x198]
  021a4	e59f0190	 ldr         r0, [pc, #0x190]
  021a8	eb000000	 bl          NKDbgPrintfW
  021ac	e6000010	 __debugbreak_ce
  021b0	e3a03000	 mov         r3, #0
  021b4	e58d301c	 str         r3, [sp, #0x1C]
  021b8		 |$LN9@CheckForDo|

; 698  :             m_fIsHalted = (pCurTransfer->DoneTransfer()!=TRUE);

  021b8	e59d0004	 ldr         r0, [sp, #4]
  021bc	eb000000	 bl          |?DoneTransfer@CQTransfer@@QAAHXZ|
  021c0	e58d0020	 str         r0, [sp, #0x20]
  021c4	e59d3020	 ldr         r3, [sp, #0x20]
  021c8	e3530001	 cmp         r3, #1
  021cc	0a000002	 beq         |$LN10@CheckForDo|
  021d0	e3a03001	 mov         r3, #1
  021d4	e58d3024	 str         r3, [sp, #0x24]
  021d8	ea000001	 b           |$LN11@CheckForDo|
  021dc		 |$LN10@CheckForDo|
  021dc	e3a03000	 mov         r3, #0
  021e0	e58d3024	 str         r3, [sp, #0x24]
  021e4		 |$LN11@CheckForDo|
  021e4	e59d3040	 ldr         r3, [sp, #0x40]
  021e8	e2832044	 add         r2, r3, #0x44
  021ec	e59d3024	 ldr         r3, [sp, #0x24]
  021f0	e5823000	 str         r3, [r2]

; 699  :             // Put it into done Queue.
; 700  :             delete pCurTransfer;

  021f4	e59d3004	 ldr         r3, [sp, #4]
  021f8	e58d300c	 str         r3, [sp, #0xC]
  021fc	e59d300c	 ldr         r3, [sp, #0xC]
  02200	e58d3008	 str         r3, [sp, #8]
  02204	e59d3008	 ldr         r3, [sp, #8]
  02208	e3530000	 cmp         r3, #0
  0220c	0a00000a	 beq         |$LN12@CheckForDo|
  02210	e3a01001	 mov         r1, #1
  02214	e59d3008	 ldr         r3, [sp, #8]
  02218	e5933000	 ldr         r3, [r3]
  0221c	e59d0008	 ldr         r0, [sp, #8]
  02220	e5933000	 ldr         r3, [r3]
  02224	e1a0e00f	 mov         lr, pc
  02228	e12fff13	 bx          r3
  0222c	e58d0028	 str         r0, [sp, #0x28]
  02230	e59d3028	 ldr         r3, [sp, #0x28]
  02234	e58d302c	 str         r3, [sp, #0x2C]
  02238	ea000001	 b           |$LN13@CheckForDo|
  0223c		 |$LN12@CheckForDo|
  0223c	e3a03000	 mov         r3, #0
  02240	e58d302c	 str         r3, [sp, #0x2C]
  02244		 |$LN13@CheckForDo|

; 701  :             if (m_fIsHalted)

  02244	e59d3040	 ldr         r3, [sp, #0x40]
  02248	e2833044	 add         r3, r3, #0x44
  0224c	e5933000	 ldr         r3, [r3]
  02250	e3530000	 cmp         r3, #0
  02254	0a00000a	 beq         |$LN3@CheckForDo|

; 702  :             {
; 703  :                 DEBUGMSG(ZONE_ERROR, (TEXT("Halt and need to do some data toggle\r\n")));

  02258	e59f30d8	 ldr         r3, [pc, #0xD8]
  0225c	e5933440	 ldr         r3, [r3, #0x440]
  02260	e3130901	 tst         r3, #1, 18
  02264	0a000004	 beq         |$LN14@CheckForDo|
  02268	e59f00c4	 ldr         r0, [pc, #0xC4]
  0226c	eb000000	 bl          NKDbgPrintfW
  02270	e3a03001	 mov         r3, #1
  02274	e58d3030	 str         r3, [sp, #0x30]
  02278	ea000001	 b           |$LN15@CheckForDo|
  0227c		 |$LN14@CheckForDo|
  0227c	e3a03000	 mov         r3, #0
  02280	e58d3030	 str         r3, [sp, #0x30]
  02284		 |$LN15@CheckForDo|
  02284		 |$LN3@CheckForDo|

; 704  :             }
; 705  :             // Excute Next one if there is any.
; 706  :             m_pQueuedTransfer =NULL;

  02284	e59d3040	 ldr         r3, [sp, #0x40]
  02288	e283206c	 add         r2, r3, #0x6C
  0228c	e3a03000	 mov         r3, #0
  02290	e5823000	 str         r3, [r2]

; 707  :             m_pPipeQHead->InvalidNextTD();

  02294	e59d3040	 ldr         r3, [sp, #0x40]
  02298	e2833064	 add         r3, r3, #0x64
  0229c	e5930000	 ldr         r0, [r3]
  022a0	eb000000	 bl          |?InvalidNextTD@CQH@@QAAXXZ|

; 708  :             m_pPipeQHead->ClearTDList();

  022a4	e59d3040	 ldr         r3, [sp, #0x40]
  022a8	e2833064	 add         r3, r3, #0x64
  022ac	e5930000	 ldr         r0, [r3]
  022b0	eb000000	 bl          |?ClearTDList@CQH@@QAAXXZ|

; 709  :             bReturn = TRUE;

  022b4	e3a03001	 mov         r3, #1
  022b8	e58d3000	 str         r3, [sp]

; 710  :         }
; 711  :         else

  022bc	ea000007	 b           |$LN2@CheckForDo|
  022c0		 |$LN4@CheckForDo|

; 712  :         {  // Process the next one                       
; 713  :            m_pPipeQHead->IssueTransfer(pCurTransfer->GetCQTDList());                        

  022c0	e59d0004	 ldr         r0, [sp, #4]
  022c4	eb000000	 bl          |?GetCQTDList@CQTransfer@@QAAPAVCQTD@@XZ|
  022c8	e58d0034	 str         r0, [sp, #0x34]
  022cc	e59d1034	 ldr         r1, [sp, #0x34]
  022d0	e59d3040	 ldr         r3, [sp, #0x40]
  022d4	e2833064	 add         r3, r3, #0x64
  022d8	e5930000	 ldr         r0, [r3]
  022dc	eb000000	 bl          |?IssueTransfer@CQH@@QAAKPAVCQTD@@@Z|
  022e0		 |$LN2@CheckForDo|
  022e0		 |$LN5@CheckForDo|

; 714  :         }
; 715  : 
; 716  :     }
; 717  :     LeaveCriticalSection( &m_csPipeLock );

  022e0	e59d3040	 ldr         r3, [sp, #0x40]
  022e4	e2830020	 add         r0, r3, #0x20
  022e8	eb000000	 bl          LeaveCriticalSection

; 718  :     if (m_pQueuedTransfer==NULL)

  022ec	e59d3040	 ldr         r3, [sp, #0x40]
  022f0	e283306c	 add         r3, r3, #0x6C
  022f4	e5933000	 ldr         r3, [r3]
  022f8	e3530000	 cmp         r3, #0
  022fc	1a000006	 bne         |$LN1@CheckForDo|

; 719  :     {
; 720  :         ScheduleTransfer();        

  02300	e59d3040	 ldr         r3, [sp, #0x40]
  02304	e5933000	 ldr         r3, [r3]
  02308	e2833030	 add         r3, r3, #0x30
  0230c	e59d0040	 ldr         r0, [sp, #0x40]
  02310	e5933000	 ldr         r3, [r3]
  02314	e1a0e00f	 mov         lr, pc
  02318	e12fff13	 bx          r3
  0231c		 |$LN1@CheckForDo|

; 721  :     }
; 722  : 
; 723  :     return bReturn;   

  0231c	e59d3000	 ldr         r3, [sp]
  02320	e58d3010	 str         r3, [sp, #0x10]

; 724  : }

  02324	e59d0010	 ldr         r0, [sp, #0x10]
  02328	e28dd038	 add         sp, sp, #0x38
  0232c	e89d6000	 ldmia       sp, {sp, lr}
  02330	e12fff1e	 bx          lr
  02334		 |$LN19@CheckForDo|
  02334		 |$LN20@CheckForDo|
  02334	00000000	 DCD         |??_C@_1EO@MPJDFLCG@?$AAH?$AAa?$AAl?$AAt?$AA?5?$AAa?$AAn?$AAd?$AA?5?$AAn?$AAe?$AAe?$AAd?$AA?5?$AAt?$AAo?$AA?5?$AAd?$AAo?$AA?5?$AAs?$AAo?$AAm?$AAe?$AA?5?$AAd?$AAa?$AAt?$AAa?$AA?5?$AAt?$AAo@|
  02338		 |$LN21@CheckForDo|
  02338	00000000	 DCD         |dpCurSettings|
  0233c		 |$LN22@CheckForDo|
  0233c	00000000	 DCD         |??_C@_1FK@FNONLNGN@?$AA?$CF?$AAs?$AA?3?$AA?5?$AAD?$AAE?$AAB?$AAU?$AAG?$AAC?$AAH?$AAK?$AA?5?$AAf?$AAa?$AAi?$AAl?$AAe?$AAd?$AA?5?$AAi?$AAn?$AA?5?$AAf?$AAi?$AAl?$AAe?$AA?5?$AA?$CF?$AAs?$AA?5?$AAa@|
  02340		 |$LN23@CheckForDo|
  02340	00000000	 DCD         |??_C@_1BA@LEPJIIOK@?$AAU?$AAn?$AAk?$AAn?$AAo?$AAw?$AAn?$AA?$AA@|
  02344		 |$LN24@CheckForDo|
  02344	00000000	 DCD         |??_C@_1LK@LMPDOKKA@?$AAC?$AA?3?$AA?2?$AAW?$AAI?$AAN?$AAC?$AAE?$AA6?$AA0?$AA0?$AA?2?$AAP?$AAL?$AAA?$AAT?$AAF?$AAO?$AAR?$AAM?$AA?2?$AAC?$AAO?$AAM?$AAM?$AAO?$AAN?$AA?2?$AAS?$AAR?$AAC?$AA?2@|
  02348		 |$M38041|

			 ENDP  ; |?CheckForDoneTransfers@CQueuedPipe@@UAAHXZ|, CQueuedPipe::CheckForDoneTransfers

	EXPORT	|??_C@_1DG@PIAPJJOK@?$AA?$CF?$AAs?$AA?3?$AA?5?$AA?9?$AAC?$AAB?$AAu?$AAl?$AAk?$AAP?$AAi?$AAp?$AAe?$AA?3?$AA?3?$AAC?$AAB?$AAu?$AAl?$AAk?$AAP?$AAi?$AAp?$AAe?$AA?6?$AA?$AA@| [ DATA ] ; `string'
	EXPORT	|??_C@_1DG@CDMLMGMB@?$AA?$CF?$AAs?$AA?3?$AA?5?$AA?$CL?$AAC?$AAB?$AAu?$AAl?$AAk?$AAP?$AAi?$AAp?$AAe?$AA?3?$AA?3?$AAC?$AAB?$AAu?$AAl?$AAk?$AAP?$AAi?$AAp?$AAe?$AA?6?$AA?$AA@| [ DATA ] ; `string'
	EXPORT	|??_7CBulkPipe@@6B@| [ DATA ]		; CBulkPipe::`vftable'
	EXPORT	|??0CBulkPipe@@QAA@QBU_USB_ENDPOINT_DESCRIPTOR@@HHEEEHQAVCMhcd@@@Z| ; CBulkPipe::CBulkPipe
	EXPORT	|?OpenPipe@CBulkPipe@@UAA?AW4HCD_REQUEST_STATUS@@XZ| ; CBulkPipe::OpenPipe
	EXPORT	|?ClosePipe@CBulkPipe@@UAA?AW4HCD_REQUEST_STATUS@@XZ| ; CBulkPipe::ClosePipe
	EXPORT	|?GetTransferType@CBulkPipe@@UBA?BKXZ|	; CBulkPipe::GetTransferType
	EXPORT	|?GetPipeType@CBulkPipe@@UBAPBGXZ|	; CBulkPipe::GetPipeType
	EXPORT	|?AreTransferParametersValid@CBulkPipe@@EBAHPBUSTRANSFER@@@Z| ; CBulkPipe::AreTransferParametersValid
	IMPORT	|??_ECBulkPipe@@UAAPAXI@Z|, WEAK |??_GCBulkPipe@@UAAPAXI@Z| ; CBulkPipe::`vector deleting destructor', CBulkPipe::`scalar deleting destructor'

  000a0			 AREA	 |.pdata|, PDATA
|$T38068| DCD	|$LN13@CBulkPipe|
	DCD	0x40007404

  00000			 AREA	 |.rdata|, DATA, READONLY
|??_C@_1DG@PIAPJJOK@?$AA?$CF?$AAs?$AA?3?$AA?5?$AA?9?$AAC?$AAB?$AAu?$AAl?$AAk?$AAP?$AAi?$AAp?$AAe?$AA?3?$AA?3?$AAC?$AAB?$AAu?$AAl?$AAk?$AAP?$AAi?$AAp?$AAe?$AA?6?$AA?$AA@| DCB "%"
	DCB	0x0, "s", 0x0, ":", 0x0, " ", 0x0, "-", 0x0, "C", 0x0, "B"
	DCB	0x0, "u", 0x0, "l", 0x0, "k", 0x0, "P", 0x0, "i", 0x0, "p"
	DCB	0x0, "e", 0x0, ":", 0x0, ":", 0x0, "C", 0x0, "B", 0x0, "u"
	DCB	0x0, "l", 0x0, "k", 0x0, "P", 0x0, "i", 0x0, "p", 0x0, "e"
	DCB	0x0, 0xa, 0x0, 0x0, 0x0			; `string'

  00000			 AREA	 |.rdata|, DATA, READONLY
|??_C@_1DG@CDMLMGMB@?$AA?$CF?$AAs?$AA?3?$AA?5?$AA?$CL?$AAC?$AAB?$AAu?$AAl?$AAk?$AAP?$AAi?$AAp?$AAe?$AA?3?$AA?3?$AAC?$AAB?$AAu?$AAl?$AAk?$AAP?$AAi?$AAp?$AAe?$AA?6?$AA?$AA@| DCB "%"
	DCB	0x0, "s", 0x0, ":", 0x0, " ", 0x0, "+", 0x0, "C", 0x0, "B"
	DCB	0x0, "u", 0x0, "l", 0x0, "k", 0x0, "P", 0x0, "i", 0x0, "p"
	DCB	0x0, "e", 0x0, ":", 0x0, ":", 0x0, "C", 0x0, "B", 0x0, "u"
	DCB	0x0, "l", 0x0, "k", 0x0, "P", 0x0, "i", 0x0, "p", 0x0, "e"
	DCB	0x0, 0xa, 0x0, 0x0, 0x0			; `string'

  00000			 AREA	 |.rdata|, DATA, READONLY
|??_7CBulkPipe@@6B@| DCD |??_ECBulkPipe@@UAAPAXI@Z|	; CBulkPipe::`vftable'
	DCD	|?OpenPipe@CBulkPipe@@UAA?AW4HCD_REQUEST_STATUS@@XZ|
	DCD	|?ClosePipe@CBulkPipe@@UAA?AW4HCD_REQUEST_STATUS@@XZ|
	DCD	|?IssueTransfer@CQueuedPipe@@UAA?AW4HCD_REQUEST_STATUS@@EQ6AKPAX@ZQAXKQBXKKQBKK2K3QAK5QAH55@Z|
	DCD	|?AbortTransfer@CQueuedPipe@@UAA?AW4HCD_REQUEST_STATUS@@Q6AKPAX@ZQAXPBX@Z|
	DCD	|?IsPipeHalted@CPipe@@UAA?AW4HCD_REQUEST_STATUS@@QAH@Z|
	DCD	|?ClearHaltedFlag@CQueuedPipe@@UAAXXZ|
	DCD	|?ResetEndPoint@CPipe@@UAAXXZ|
	DCD	|?ChangeMaxPacketSize@CPipeAbs@@UAAXG@Z|
	DCD	|?SetReservedDeviceAddr@CPipe@@UAAHE@Z|
	DCD	|?GetReservedDeviceAddr@CPipe@@UAAEXZ|
	DCD	|?GetCPhysMem@CPipe@@UAAPAVCPhysMem@@XZ|
	DCD	|?ScheduleTransfer@CQueuedPipe@@UAA?AW4HCD_REQUEST_STATUS@@XZ|
	DCD	|?CheckForDoneTransfers@CQueuedPipe@@UAAHXZ|
	DCD	|?ProcessEP@CQueuedPipe@@UAAHKH@Z|
	DCD	|?GetTransferType@CBulkPipe@@UBA?BKXZ|
	DCD	|?GetPipeType@CBulkPipe@@UBAPBGXZ|
	DCD	|?GetQHead@CQueuedPipe@@UAAPAVCQH@@XZ|
	DCD	|?AreTransferParametersValid@CBulkPipe@@EBAHPBUSTRANSFER@@@Z|
; Function compile flags: /Odtp

  02348			 AREA	 |.text|, CODE, ARM

  02348		 |??0CBulkPipe@@QAA@QBU_USB_ENDPOINT_DESCRIPTOR@@HHEEEHQAVCMhcd@@@Z| PROC ; CBulkPipe::CBulkPipe

; 743  : {

  02348		 |$LN13@CBulkPipe|
  02348	e1a0c00d	 mov         r12, sp
  0234c	e92d000f	 stmdb       sp!, {r0 - r3}
  02350	e92d5000	 stmdb       sp!, {r12, lr}
  02354	e24dd048	 sub         sp, sp, #0x48
  02358		 |$M38065|
  02358	e59d3070	 ldr         r3, [sp, #0x70]
  0235c	e58d3010	 str         r3, [sp, #0x10]
  02360	e59d306c	 ldr         r3, [sp, #0x6C]
  02364	e58d300c	 str         r3, [sp, #0xC]
  02368	e5dd3068	 ldrb        r3, [sp, #0x68]
  0236c	e58d3008	 str         r3, [sp, #8]
  02370	e5dd3064	 ldrb        r3, [sp, #0x64]
  02374	e58d3004	 str         r3, [sp, #4]
  02378	e5dd3060	 ldrb        r3, [sp, #0x60]
  0237c	e58d3000	 str         r3, [sp]
  02380	e59d305c	 ldr         r3, [sp, #0x5C]
  02384	e59d2058	 ldr         r2, [sp, #0x58]
  02388	e59d1054	 ldr         r1, [sp, #0x54]
  0238c	e59d0050	 ldr         r0, [sp, #0x50]
  02390	eb000000	 bl          |??0CQueuedPipe@@QAA@QBU_USB_ENDPOINT_DESCRIPTOR@@HHEEEHQAVCMhcd@@@Z|
  02394	e58d002c	 str         r0, [sp, #0x2C]
  02398	e59f2174	 ldr         r2, [pc, #0x174]
  0239c	e59d3050	 ldr         r3, [sp, #0x50]
  023a0	e5832000	 str         r2, [r3]

; 744  :     DEBUGMSG( ZONE_PIPE && ZONE_VERBOSE, (TEXT("%s: +CBulkPipe::CBulkPipe\n"),GetControllerName()) );

  023a4	e59f3158	 ldr         r3, [pc, #0x158]
  023a8	e5933440	 ldr         r3, [r3, #0x440]
  023ac	e3130080	 tst         r3, #0x80
  023b0	0a00000c	 beq         |$LN3@CBulkPipe|
  023b4	e59f3148	 ldr         r3, [pc, #0x148]
  023b8	e5933440	 ldr         r3, [r3, #0x440]
  023bc	e3130a01	 tst         r3, #1, 20
  023c0	0a000008	 beq         |$LN3@CBulkPipe|
  023c4	e59d0050	 ldr         r0, [sp, #0x50]
  023c8	eb000000	 bl          |?GetControllerName@CPipe@@QBAPBGXZ|
  023cc	e58d0030	 str         r0, [sp, #0x30]
  023d0	e59d1030	 ldr         r1, [sp, #0x30]
  023d4	e59f0134	 ldr         r0, [pc, #0x134]
  023d8	eb000000	 bl          NKDbgPrintfW
  023dc	e3a03001	 mov         r3, #1
  023e0	e58d3034	 str         r3, [sp, #0x34]
  023e4	ea000001	 b           |$LN4@CBulkPipe|
  023e8		 |$LN3@CBulkPipe|
  023e8	e3a03000	 mov         r3, #0
  023ec	e58d3034	 str         r3, [sp, #0x34]
  023f0		 |$LN4@CBulkPipe|

; 745  :     DEBUGCHK( m_usbEndpointDescriptor.bDescriptorType == USB_ENDPOINT_DESCRIPTOR_TYPE &&
; 746  :               m_usbEndpointDescriptor.bLength >= sizeof( USB_ENDPOINT_DESCRIPTOR ) &&
; 747  :               (m_usbEndpointDescriptor.bmAttributes & USB_ENDPOINT_TYPE_MASK) == USB_ENDPOINT_TYPE_BULK );

  023f0	e59d3050	 ldr         r3, [sp, #0x50]
  023f4	e2833035	 add         r3, r3, #0x35
  023f8	e5d33000	 ldrb        r3, [r3]
  023fc	e3530005	 cmp         r3, #5
  02400	1a00000d	 bne         |$LN5@CBulkPipe|
  02404	e59d3050	 ldr         r3, [sp, #0x50]
  02408	e2833034	 add         r3, r3, #0x34
  0240c	e5d33000	 ldrb        r3, [r3]
  02410	e3530007	 cmp         r3, #7
  02414	3a000008	 bcc         |$LN5@CBulkPipe|
  02418	e59d3050	 ldr         r3, [sp, #0x50]
  0241c	e2833037	 add         r3, r3, #0x37
  02420	e5d33000	 ldrb        r3, [r3]
  02424	e2033003	 and         r3, r3, #3
  02428	e3530002	 cmp         r3, #2
  0242c	1a000002	 bne         |$LN5@CBulkPipe|
  02430	e3a03001	 mov         r3, #1
  02434	e58d3038	 str         r3, [sp, #0x38]
  02438	ea000008	 b           |$LN6@CBulkPipe|
  0243c		 |$LN5@CBulkPipe|
  0243c	e3a03c02	 mov         r3, #2, 24
  02440	e38330eb	 orr         r3, r3, #0xEB
  02444	e59f20c0	 ldr         r2, [pc, #0xC0]
  02448	e59f10b4	 ldr         r1, [pc, #0xB4]
  0244c	e59f00b4	 ldr         r0, [pc, #0xB4]
  02450	eb000000	 bl          NKDbgPrintfW
  02454	e6000010	 __debugbreak_ce
  02458	e3a03000	 mov         r3, #0
  0245c	e58d3038	 str         r3, [sp, #0x38]
  02460		 |$LN6@CBulkPipe|

; 748  : 
; 749  :     DEBUGCHK( !fIsLowSpeed ); // bulk pipe must be high speed

  02460	e59d3058	 ldr         r3, [sp, #0x58]
  02464	e3530000	 cmp         r3, #0
  02468	1a000002	 bne         |$LN7@CBulkPipe|
  0246c	e3a03001	 mov         r3, #1
  02470	e58d303c	 str         r3, [sp, #0x3C]
  02474	ea000008	 b           |$LN8@CBulkPipe|
  02478		 |$LN7@CBulkPipe|
  02478	e3a03c02	 mov         r3, #2, 24
  0247c	e38330ed	 orr         r3, r3, #0xED
  02480	e59f2084	 ldr         r2, [pc, #0x84]
  02484	e59f1078	 ldr         r1, [pc, #0x78]
  02488	e59f0078	 ldr         r0, [pc, #0x78]
  0248c	eb000000	 bl          NKDbgPrintfW
  02490	e6000010	 __debugbreak_ce
  02494	e3a03000	 mov         r3, #0
  02498	e58d303c	 str         r3, [sp, #0x3C]
  0249c		 |$LN8@CBulkPipe|

; 750  : 
; 751  :     DEBUGMSG( ZONE_PIPE && ZONE_VERBOSE, (TEXT("%s: -CBulkPipe::CBulkPipe\n"),GetControllerName()) );

  0249c	e59f3060	 ldr         r3, [pc, #0x60]
  024a0	e5933440	 ldr         r3, [r3, #0x440]
  024a4	e3130080	 tst         r3, #0x80
  024a8	0a00000c	 beq         |$LN9@CBulkPipe|
  024ac	e59f3050	 ldr         r3, [pc, #0x50]
  024b0	e5933440	 ldr         r3, [r3, #0x440]
  024b4	e3130a01	 tst         r3, #1, 20
  024b8	0a000008	 beq         |$LN9@CBulkPipe|
  024bc	e59d0050	 ldr         r0, [sp, #0x50]
  024c0	eb000000	 bl          |?GetControllerName@CPipe@@QBAPBGXZ|
  024c4	e58d0040	 str         r0, [sp, #0x40]
  024c8	e59d1040	 ldr         r1, [sp, #0x40]
  024cc	e59f002c	 ldr         r0, [pc, #0x2C]
  024d0	eb000000	 bl          NKDbgPrintfW
  024d4	e3a03001	 mov         r3, #1
  024d8	e58d3044	 str         r3, [sp, #0x44]
  024dc	ea000001	 b           |$LN10@CBulkPipe|
  024e0		 |$LN9@CBulkPipe|
  024e0	e3a03000	 mov         r3, #0
  024e4	e58d3044	 str         r3, [sp, #0x44]
  024e8		 |$LN10@CBulkPipe|

; 752  : }

  024e8	e59d3050	 ldr         r3, [sp, #0x50]
  024ec	e58d3028	 str         r3, [sp, #0x28]
  024f0	e59d0028	 ldr         r0, [sp, #0x28]
  024f4	e28dd048	 add         sp, sp, #0x48
  024f8	e89d6000	 ldmia       sp, {sp, lr}
  024fc	e12fff1e	 bx          lr
  02500		 |$LN14@CBulkPipe|
  02500		 |$LN15@CBulkPipe|
  02500	00000000	 DCD         |??_C@_1DG@PIAPJJOK@?$AA?$CF?$AAs?$AA?3?$AA?5?$AA?9?$AAC?$AAB?$AAu?$AAl?$AAk?$AAP?$AAi?$AAp?$AAe?$AA?3?$AA?3?$AAC?$AAB?$AAu?$AAl?$AAk?$AAP?$AAi?$AAp?$AAe?$AA?6?$AA?$AA@|
  02504		 |$LN16@CBulkPipe|
  02504	00000000	 DCD         |dpCurSettings|
  02508		 |$LN17@CBulkPipe|
  02508	00000000	 DCD         |??_C@_1FK@FNONLNGN@?$AA?$CF?$AAs?$AA?3?$AA?5?$AAD?$AAE?$AAB?$AAU?$AAG?$AAC?$AAH?$AAK?$AA?5?$AAf?$AAa?$AAi?$AAl?$AAe?$AAd?$AA?5?$AAi?$AAn?$AA?5?$AAf?$AAi?$AAl?$AAe?$AA?5?$AA?$CF?$AAs?$AA?5?$AAa@|
  0250c		 |$LN18@CBulkPipe|
  0250c	00000000	 DCD         |??_C@_1LK@LMPDOKKA@?$AAC?$AA?3?$AA?2?$AAW?$AAI?$AAN?$AAC?$AAE?$AA6?$AA0?$AA0?$AA?2?$AAP?$AAL?$AAA?$AAT?$AAF?$AAO?$AAR?$AAM?$AA?2?$AAC?$AAO?$AAM?$AAM?$AAO?$AAN?$AA?2?$AAS?$AAR?$AAC?$AA?2@|
  02510		 |$LN19@CBulkPipe|
  02510	00000000	 DCD         |??_C@_1DG@CDMLMGMB@?$AA?$CF?$AAs?$AA?3?$AA?5?$AA?$CL?$AAC?$AAB?$AAu?$AAl?$AAk?$AAP?$AAi?$AAp?$AAe?$AA?3?$AA?3?$AAC?$AAB?$AAu?$AAl?$AAk?$AAP?$AAi?$AAp?$AAe?$AA?6?$AA?$AA@|
  02514		 |$LN20@CBulkPipe|
  02514	00000000	 DCD         |??_7CBulkPipe@@6B@|
  02518		 |$M38066|

			 ENDP  ; |??0CBulkPipe@@QAA@QBU_USB_ENDPOINT_DESCRIPTOR@@HHEEEHQAVCMhcd@@@Z|, CBulkPipe::CBulkPipe

; File c:\wince600\platform\common\src\soc\common_ti_v1\omap3530\musb\musbhcd\musbmhdrc\cpipe.h

  00000			 AREA	 |.pdata|, PDATA
|$T38081| DCD	|$LN5@GetTransfe@2|
	DCD	0x40000a04
; Function compile flags: /Odtp

  00000			 AREA	 |.text|, CODE, ARM

  00000		 |?GetTransferType@CBulkPipe@@UBA?BKXZ| PROC ; CBulkPipe::GetTransferType

; 263  :     {

  00000		 |$LN5@GetTransfe@2|
  00000	e1a0c00d	 mov         r12, sp
  00004	e92d0001	 stmdb       sp!, {r0}
  00008	e92d5000	 stmdb       sp!, {r12, lr}
  0000c	e24dd004	 sub         sp, sp, #4
  00010		 |$M38078|

; 264  :         return USB_ENDPOINT_TYPE_BULK;

  00010	e3a03002	 mov         r3, #2
  00014	e58d3000	 str         r3, [sp]

; 265  :     }

  00018	e59d0000	 ldr         r0, [sp]
  0001c	e28dd004	 add         sp, sp, #4
  00020	e89d6000	 ldmia       sp, {sp, lr}
  00024	e12fff1e	 bx          lr
  00028		 |$M38079|

			 ENDP  ; |?GetTransferType@CBulkPipe@@UBA?BKXZ|, CBulkPipe::GetTransferType

	EXPORT	|??_C@_19PBJLGAMD@?$AAB?$AAu?$AAl?$AAk?$AA?$AA@| [ DATA ] ; `string'

  00000			 AREA	 |.pdata|, PDATA
|$T38089| DCD	|$LN5@GetPipeTyp|
	DCD	0x40000b04

  00000			 AREA	 |.rdata|, DATA, READONLY
|??_C@_19PBJLGAMD@?$AAB?$AAu?$AAl?$AAk?$AA?$AA@| DCB "B", 0x0, "u", 0x0, "l"
	DCB	0x0, "k", 0x0, 0x0, 0x0			; `string'
; Function compile flags: /Odtp

  00000			 AREA	 |.text|, CODE, ARM

  00000		 |?GetPipeType@CBulkPipe@@UBAPBGXZ| PROC ; CBulkPipe::GetPipeType

; 268  :     {

  00000		 |$LN5@GetPipeTyp|
  00000	e1a0c00d	 mov         r12, sp
  00004	e92d0001	 stmdb       sp!, {r0}
  00008	e92d5000	 stmdb       sp!, {r12, lr}
  0000c	e24dd004	 sub         sp, sp, #4
  00010		 |$M38086|

; 269  :         return TEXT("Bulk");

  00010	e59f3010	 ldr         r3, [pc, #0x10]
  00014	e58d3000	 str         r3, [sp]

; 270  :     }

  00018	e59d0000	 ldr         r0, [sp]
  0001c	e28dd004	 add         sp, sp, #4
  00020	e89d6000	 ldmia       sp, {sp, lr}
  00024	e12fff1e	 bx          lr
  00028		 |$LN6@GetPipeTyp|
  00028		 |$LN7@GetPipeTyp|
  00028	00000000	 DCD         |??_C@_19PBJLGAMD@?$AAB?$AAu?$AAl?$AAk?$AA?$AA@|
  0002c		 |$M38087|

			 ENDP  ; |?GetPipeType@CBulkPipe@@UBAPBGXZ|, CBulkPipe::GetPipeType

	EXPORT	|??1CBulkPipe@@UAA@XZ|			; CBulkPipe::~CBulkPipe

  00000			 AREA	 |.pdata|, PDATA
|$T38099| DCD	|$LN6@scalar@5|
	DCD	0x40001104
; Function compile flags: /Odtp

  00000			 AREA	 |.text|, CODE, ARM

  00000		 |??_GCBulkPipe@@UAAPAXI@Z| PROC	; CBulkPipe::`scalar deleting destructor'
  00000		 |$LN6@scalar@5|
  00000	e1a0c00d	 mov         r12, sp
  00004	e92d0003	 stmdb       sp!, {r0, r1}
  00008	e92d5000	 stmdb       sp!, {r12, lr}
  0000c	e24dd004	 sub         sp, sp, #4
  00010		 |$M38096|
  00010	e59d000c	 ldr         r0, [sp, #0xC]
  00014	eb000000	 bl          |??1CBulkPipe@@UAA@XZ|
  00018	e59d3010	 ldr         r3, [sp, #0x10]
  0001c	e3130001	 tst         r3, #1
  00020	0a000001	 beq         |$LN1@scalar@5|
  00024	e59d000c	 ldr         r0, [sp, #0xC]
  00028	eb000000	 bl          |??3@YAXPAX@Z|
  0002c		 |$LN1@scalar@5|
  0002c	e59d300c	 ldr         r3, [sp, #0xC]
  00030	e58d3000	 str         r3, [sp]
  00034	e59d0000	 ldr         r0, [sp]
  00038	e28dd004	 add         sp, sp, #4
  0003c	e89d6000	 ldmia       sp, {sp, lr}
  00040	e12fff1e	 bx          lr
  00044		 |$M38097|

			 ENDP  ; |??_GCBulkPipe@@UAAPAXI@Z|, CBulkPipe::`scalar deleting destructor'

	EXPORT	|??_C@_1DI@KFEPLALP@?$AA?$CF?$AAs?$AA?3?$AA?5?$AA?9?$AAC?$AAB?$AAu?$AAl?$AAk?$AAP?$AAi?$AAp?$AAe?$AA?3?$AA?3?$AA?$HO?$AAC?$AAB?$AAu?$AAl?$AAk?$AAP?$AAi?$AAp?$AAe?$AA?6?$AA?$AA@| [ DATA ] ; `string'
	EXPORT	|??_C@_1DI@CIOLNKHH@?$AA?$CF?$AAs?$AA?3?$AA?5?$AA?$CL?$AAC?$AAB?$AAu?$AAl?$AAk?$AAP?$AAi?$AAp?$AAe?$AA?3?$AA?3?$AA?$HO?$AAC?$AAB?$AAu?$AAl?$AAk?$AAP?$AAi?$AAp?$AAe?$AA?6?$AA?$AA@| [ DATA ] ; `string'

  000a8			 AREA	 |.pdata|, PDATA
|$T38110| DCD	|$LN9@CBulkPipe@2|
	DCD	0x40003804
; File c:\wince600\platform\common\src\soc\common_ti_v1\omap3530\musb\musbhcd\musbmhdrc\cpipe.cpp

  00000			 AREA	 |.rdata|, DATA, READONLY
|??_C@_1DI@KFEPLALP@?$AA?$CF?$AAs?$AA?3?$AA?5?$AA?9?$AAC?$AAB?$AAu?$AAl?$AAk?$AAP?$AAi?$AAp?$AAe?$AA?3?$AA?3?$AA?$HO?$AAC?$AAB?$AAu?$AAl?$AAk?$AAP?$AAi?$AAp?$AAe?$AA?6?$AA?$AA@| DCB "%"
	DCB	0x0, "s", 0x0, ":", 0x0, " ", 0x0, "-", 0x0, "C", 0x0, "B"
	DCB	0x0, "u", 0x0, "l", 0x0, "k", 0x0, "P", 0x0, "i", 0x0, "p"
	DCB	0x0, "e", 0x0, ":", 0x0, ":", 0x0, "~", 0x0, "C", 0x0, "B"
	DCB	0x0, "u", 0x0, "l", 0x0, "k", 0x0, "P", 0x0, "i", 0x0, "p"
	DCB	0x0, "e", 0x0, 0xa, 0x0, 0x0, 0x0	; `string'

  00000			 AREA	 |.rdata|, DATA, READONLY
|??_C@_1DI@CIOLNKHH@?$AA?$CF?$AAs?$AA?3?$AA?5?$AA?$CL?$AAC?$AAB?$AAu?$AAl?$AAk?$AAP?$AAi?$AAp?$AAe?$AA?3?$AA?3?$AA?$HO?$AAC?$AAB?$AAu?$AAl?$AAk?$AAP?$AAi?$AAp?$AAe?$AA?6?$AA?$AA@| DCB "%"
	DCB	0x0, "s", 0x0, ":", 0x0, " ", 0x0, "+", 0x0, "C", 0x0, "B"
	DCB	0x0, "u", 0x0, "l", 0x0, "k", 0x0, "P", 0x0, "i", 0x0, "p"
	DCB	0x0, "e", 0x0, ":", 0x0, ":", 0x0, "~", 0x0, "C", 0x0, "B"
	DCB	0x0, "u", 0x0, "l", 0x0, "k", 0x0, "P", 0x0, "i", 0x0, "p"
	DCB	0x0, "e", 0x0, 0xa, 0x0, 0x0, 0x0	; `string'
; Function compile flags: /Odtp

  02518			 AREA	 |.text|, CODE, ARM

  02518		 |??1CBulkPipe@@UAA@XZ| PROC		; CBulkPipe::~CBulkPipe

; 766  : {

  02518		 |$LN9@CBulkPipe@2|
  02518	e1a0c00d	 mov         r12, sp
  0251c	e92d0001	 stmdb       sp!, {r0}
  02520	e92d5000	 stmdb       sp!, {r12, lr}
  02524	e24dd010	 sub         sp, sp, #0x10
  02528		 |$M38107|
  02528	e59f20c4	 ldr         r2, [pc, #0xC4]
  0252c	e59d3018	 ldr         r3, [sp, #0x18]
  02530	e5832000	 str         r2, [r3]

; 767  :     DEBUGMSG( ZONE_PIPE && ZONE_VERBOSE, (TEXT("%s: +CBulkPipe::~CBulkPipe\n"),GetControllerName()) );

  02534	e59f30b0	 ldr         r3, [pc, #0xB0]
  02538	e5933440	 ldr         r3, [r3, #0x440]
  0253c	e3130080	 tst         r3, #0x80
  02540	0a00000c	 beq         |$LN3@CBulkPipe@2|
  02544	e59f30a0	 ldr         r3, [pc, #0xA0]
  02548	e5933440	 ldr         r3, [r3, #0x440]
  0254c	e3130a01	 tst         r3, #1, 20
  02550	0a000008	 beq         |$LN3@CBulkPipe@2|
  02554	e59d0018	 ldr         r0, [sp, #0x18]
  02558	eb000000	 bl          |?GetControllerName@CPipe@@QBAPBGXZ|
  0255c	e58d0000	 str         r0, [sp]
  02560	e59d1000	 ldr         r1, [sp]
  02564	e59f0084	 ldr         r0, [pc, #0x84]
  02568	eb000000	 bl          NKDbgPrintfW
  0256c	e3a03001	 mov         r3, #1
  02570	e58d3004	 str         r3, [sp, #4]
  02574	ea000001	 b           |$LN4@CBulkPipe@2|
  02578		 |$LN3@CBulkPipe@2|
  02578	e3a03000	 mov         r3, #0
  0257c	e58d3004	 str         r3, [sp, #4]
  02580		 |$LN4@CBulkPipe@2|

; 768  :     ClosePipe();

  02580	e59d0018	 ldr         r0, [sp, #0x18]
  02584	eb000000	 bl          |?ClosePipe@CBulkPipe@@UAA?AW4HCD_REQUEST_STATUS@@XZ|

; 769  :     DEBUGMSG( ZONE_PIPE && ZONE_VERBOSE, (TEXT("%s: -CBulkPipe::~CBulkPipe\n"),GetControllerName()) );

  02588	e59f305c	 ldr         r3, [pc, #0x5C]
  0258c	e5933440	 ldr         r3, [r3, #0x440]
  02590	e3130080	 tst         r3, #0x80
  02594	0a00000c	 beq         |$LN5@CBulkPipe@2|
  02598	e59f304c	 ldr         r3, [pc, #0x4C]
  0259c	e5933440	 ldr         r3, [r3, #0x440]
  025a0	e3130a01	 tst         r3, #1, 20
  025a4	0a000008	 beq         |$LN5@CBulkPipe@2|
  025a8	e59d0018	 ldr         r0, [sp, #0x18]
  025ac	eb000000	 bl          |?GetControllerName@CPipe@@QBAPBGXZ|
  025b0	e58d0008	 str         r0, [sp, #8]
  025b4	e59d1008	 ldr         r1, [sp, #8]
  025b8	e59f0028	 ldr         r0, [pc, #0x28]
  025bc	eb000000	 bl          NKDbgPrintfW
  025c0	e3a03001	 mov         r3, #1
  025c4	e58d300c	 str         r3, [sp, #0xC]
  025c8	ea000001	 b           |$LN6@CBulkPipe@2|
  025cc		 |$LN5@CBulkPipe@2|
  025cc	e3a03000	 mov         r3, #0
  025d0	e58d300c	 str         r3, [sp, #0xC]
  025d4		 |$LN6@CBulkPipe@2|

; 770  : }

  025d4	e59d0018	 ldr         r0, [sp, #0x18]
  025d8	eb000000	 bl          |??1CQueuedPipe@@UAA@XZ|
  025dc	e28dd010	 add         sp, sp, #0x10
  025e0	e89d6000	 ldmia       sp, {sp, lr}
  025e4	e12fff1e	 bx          lr
  025e8		 |$LN10@CBulkPipe@2|
  025e8		 |$LN11@CBulkPipe@2|
  025e8	00000000	 DCD         |??_C@_1DI@KFEPLALP@?$AA?$CF?$AAs?$AA?3?$AA?5?$AA?9?$AAC?$AAB?$AAu?$AAl?$AAk?$AAP?$AAi?$AAp?$AAe?$AA?3?$AA?3?$AA?$HO?$AAC?$AAB?$AAu?$AAl?$AAk?$AAP?$AAi?$AAp?$AAe?$AA?6?$AA?$AA@|
  025ec		 |$LN12@CBulkPipe@2|
  025ec	00000000	 DCD         |dpCurSettings|
  025f0		 |$LN13@CBulkPipe@2|
  025f0	00000000	 DCD         |??_C@_1DI@CIOLNKHH@?$AA?$CF?$AAs?$AA?3?$AA?5?$AA?$CL?$AAC?$AAB?$AAu?$AAl?$AAk?$AAP?$AAi?$AAp?$AAe?$AA?3?$AA?3?$AA?$HO?$AAC?$AAB?$AAu?$AAl?$AAk?$AAP?$AAi?$AAp?$AAe?$AA?6?$AA?$AA@|
  025f4		 |$LN14@CBulkPipe@2|
  025f4	00000000	 DCD         |??_7CBulkPipe@@6B@|
  025f8		 |$M38108|

			 ENDP  ; |??1CBulkPipe@@UAA@XZ|, CBulkPipe::~CBulkPipe

	EXPORT	|??_C@_1GO@DDNGLOEL@?$AA?9?$AAC?$AAB?$AAu?$AAl?$AAk?$AAP?$AAi?$AAp?$AAe?$AA?3?$AA?3?$AAO?$AAp?$AAe?$AAn?$AAP?$AAi?$AAp?$AAe?$AA?0?$AA?5?$AAr?$AAe?$AAt?$AAu?$AAr?$AAn?$AAi?$AAn?$AAg?$AA?5@| [ DATA ] ; `string'
	EXPORT	|?AddToBusyPipeList@CHW@@QAAHQAVCPipe@@H@Z| ; CHW::AddToBusyPipeList
	EXPORT	|??_C@_1IA@CCAOPDIB@?$AAM?$AAU?$AAS?$AAB?$AAM?$AAH?$AAD?$AAR?$AAC?$AA?5?$AAi?$AAs?$AAs?$AAu?$AAe?$AA?5?$AA?9?$AA?5?$AAB?$AAU?$AAL?$AAK?$AA?5?$AAO?$AAU?$AAT?$AA?5?$AAp?$AAi?$AAp?$AAe?$AA?5@| [ DATA ] ; `string'
	EXPORT	|?GetSpeed@CPipe@@QAAEXZ|		; CPipe::GetSpeed
	EXPORT	|?GetTransferMode@CPipe@@QAAEXZ|	; CPipe::GetTransferMode
	EXPORT	|??_C@_1DE@OMMBGCCF@?$AA?$CF?$AAs?$AA?3?$AA?5?$AA?$CL?$AAC?$AAB?$AAu?$AAl?$AAk?$AAP?$AAi?$AAp?$AAe?$AA?3?$AA?3?$AAO?$AAp?$AAe?$AAn?$AAP?$AAi?$AAp?$AAe?$AA?6?$AA?$AA@| [ DATA ] ; `string'
	IMPORT	|??0CQH@@QAA@PAVCPipe@@@Z|		; CQH::CQH

  000b0			 AREA	 |.pdata|, PDATA
|$T38144| DCD	|$LN36@OpenPipe|
	DCD	0x40011e04

  00000			 AREA	 |.rdata|, DATA, READONLY
|??_C@_1GO@DDNGLOEL@?$AA?9?$AAC?$AAB?$AAu?$AAl?$AAk?$AAP?$AAi?$AAp?$AAe?$AA?3?$AA?3?$AAO?$AAp?$AAe?$AAn?$AAP?$AAi?$AAp?$AAe?$AA?0?$AA?5?$AAr?$AAe?$AAt?$AAu?$AAr?$AAn?$AAi?$AAn?$AAg?$AA?5@| DCB "-"
	DCB	0x0, "C", 0x0, "B", 0x0, "u", 0x0, "l", 0x0, "k", 0x0, "P"
	DCB	0x0, "i", 0x0, "p", 0x0, "e", 0x0, ":", 0x0, ":", 0x0, "O"
	DCB	0x0, "p", 0x0, "e", 0x0, "n", 0x0, "P", 0x0, "i", 0x0, "p"
	DCB	0x0, "e", 0x0, ",", 0x0, " ", 0x0, "r", 0x0, "e", 0x0, "t"
	DCB	0x0, "u", 0x0, "r", 0x0, "n", 0x0, "i", 0x0, "n", 0x0, "g"
	DCB	0x0, " ", 0x0, "H", 0x0, "C", 0x0, "D", 0x0, "_", 0x0, "R"
	DCB	0x0, "E", 0x0, "Q", 0x0, "U", 0x0, "E", 0x0, "S", 0x0, "T"
	DCB	0x0, "_", 0x0, "S", 0x0, "T", 0x0, "A", 0x0, "T", 0x0, "U"
	DCB	0x0, "S", 0x0, " ", 0x0, "%", 0x0, "d", 0x0, 0xa, 0x0, 0x0
	DCB	0x0					; `string'

  00000			 AREA	 |.rdata|, DATA, READONLY
|??_C@_1IA@CCAOPDIB@?$AAM?$AAU?$AAS?$AAB?$AAM?$AAH?$AAD?$AAR?$AAC?$AA?5?$AAi?$AAs?$AAs?$AAu?$AAe?$AA?5?$AA?9?$AA?5?$AAB?$AAU?$AAL?$AAK?$AA?5?$AAO?$AAU?$AAT?$AA?5?$AAp?$AAi?$AAp?$AAe?$AA?5@| DCB "M"
	DCB	0x0, "U", 0x0, "S", 0x0, "B", 0x0, "M", 0x0, "H", 0x0, "D"
	DCB	0x0, "R", 0x0, "C", 0x0, " ", 0x0, "i", 0x0, "s", 0x0, "s"
	DCB	0x0, "u", 0x0, "e", 0x0, " ", 0x0, "-", 0x0, " ", 0x0, "B"
	DCB	0x0, "U", 0x0, "L", 0x0, "K", 0x0, " ", 0x0, "O", 0x0, "U"
	DCB	0x0, "T", 0x0, " ", 0x0, "p", 0x0, "i", 0x0, "p", 0x0, "e"
	DCB	0x0, " ", 0x0, "n", 0x0, "e", 0x0, "e", 0x0, "d", 0x0, " "
	DCB	0x0, "t", 0x0, "o", 0x0, " ", 0x0, "f", 0x0, "o", 0x0, "r"
	DCB	0x0, "c", 0x0, "e", 0x0, " ", 0x0, "t", 0x0, "o", 0x0, " "
	DCB	0x0, "r", 0x0, "u", 0x0, "n", 0x0, " ", 0x0, "a", 0x0, "t"
	DCB	0x0, " ", 0x0, "D", 0x0, "M", 0x0, "A", 0x0, " ", 0x0, "0"
	DCB	0x0, 0xd, 0x0, 0xa, 0x0, 0x0, 0x0	; `string'

  00000			 AREA	 |.rdata|, DATA, READONLY
|??_C@_1DE@OMMBGCCF@?$AA?$CF?$AAs?$AA?3?$AA?5?$AA?$CL?$AAC?$AAB?$AAu?$AAl?$AAk?$AAP?$AAi?$AAp?$AAe?$AA?3?$AA?3?$AAO?$AAp?$AAe?$AAn?$AAP?$AAi?$AAp?$AAe?$AA?6?$AA?$AA@| DCB "%"
	DCB	0x0, "s", 0x0, ":", 0x0, " ", 0x0, "+", 0x0, "C", 0x0, "B"
	DCB	0x0, "u", 0x0, "l", 0x0, "k", 0x0, "P", 0x0, "i", 0x0, "p"
	DCB	0x0, "e", 0x0, ":", 0x0, ":", 0x0, "O", 0x0, "p", 0x0, "e"
	DCB	0x0, "n", 0x0, "P", 0x0, "i", 0x0, "p", 0x0, "e", 0x0, 0xa
	DCB	0x0, 0x0, 0x0				; `string'
; Function compile flags: /Odtp

  025f8			 AREA	 |.text|, CODE, ARM

  025f8		 |?OpenPipe@CBulkPipe@@UAA?AW4HCD_REQUEST_STATUS@@XZ| PROC ; CBulkPipe::OpenPipe

; 786  : {

  025f8		 |$LN36@OpenPipe|
  025f8	e1a0c00d	 mov         r12, sp
  025fc	e92d0001	 stmdb       sp!, {r0}
  02600	e92d5000	 stmdb       sp!, {r12, lr}
  02604	e24dd058	 sub         sp, sp, #0x58
  02608		 |$M38141|

; 787  :     DEBUGMSG( ZONE_PIPE, (TEXT("%s: +CBulkPipe::OpenPipe\n"),GetControllerName() ) );

  02608	e59f3448	 ldr         r3, [pc, #0x448]
  0260c	e5933440	 ldr         r3, [r3, #0x440]
  02610	e3130080	 tst         r3, #0x80
  02614	0a000008	 beq         |$LN12@OpenPipe|
  02618	e59d0060	 ldr         r0, [sp, #0x60]
  0261c	eb000000	 bl          |?GetControllerName@CPipe@@QBAPBGXZ|
  02620	e58d0010	 str         r0, [sp, #0x10]
  02624	e59d1010	 ldr         r1, [sp, #0x10]
  02628	e59f043c	 ldr         r0, [pc, #0x43C]
  0262c	eb000000	 bl          NKDbgPrintfW
  02630	e3a03001	 mov         r3, #1
  02634	e58d3014	 str         r3, [sp, #0x14]
  02638	ea000001	 b           |$LN13@OpenPipe|
  0263c		 |$LN12@OpenPipe|
  0263c	e3a03000	 mov         r3, #0
  02640	e58d3014	 str         r3, [sp, #0x14]
  02644		 |$LN13@OpenPipe|

; 788  :     
; 789  :     HCD_REQUEST_STATUS status = requestFailed;

  02644	e3a03000	 mov         r3, #0
  02648	e58d3000	 str         r3, [sp]

; 790  :     m_pUnQueuedTransfer=NULL;      // ptr to last transfer in queue

  0264c	e59d3060	 ldr         r3, [sp, #0x60]
  02650	e2832068	 add         r2, r3, #0x68
  02654	e3a03000	 mov         r3, #0
  02658	e5823000	 str         r3, [r2]

; 791  :     m_pQueuedTransfer=NULL;

  0265c	e59d3060	 ldr         r3, [sp, #0x60]
  02660	e283206c	 add         r2, r3, #0x6C
  02664	e3a03000	 mov         r3, #0
  02668	e5823000	 str         r3, [r2]

; 792  :     PREFAST_DEBUGCHK( m_pCMhcd!=NULL );

  0266c	e59d3060	 ldr         r3, [sp, #0x60]
  02670	e283300c	 add         r3, r3, #0xC
  02674	e5933000	 ldr         r3, [r3]
  02678	e3530000	 cmp         r3, #0
  0267c	0a000002	 beq         |$LN14@OpenPipe|
  02680	e3a03001	 mov         r3, #1
  02684	e58d3018	 str         r3, [sp, #0x18]
  02688	ea000007	 b           |$LN15@OpenPipe|
  0268c		 |$LN14@OpenPipe|
  0268c	e3a03fc6	 mov         r3, #0xC6, 30
  02690	e59f23cc	 ldr         r2, [pc, #0x3CC]
  02694	e59f13bc	 ldr         r1, [pc, #0x3BC]
  02698	e59f03bc	 ldr         r0, [pc, #0x3BC]
  0269c	eb000000	 bl          NKDbgPrintfW
  026a0	e6000010	 __debugbreak_ce
  026a4	e3a03000	 mov         r3, #0
  026a8	e58d3018	 str         r3, [sp, #0x18]
  026ac		 |$LN15@OpenPipe|

; 793  :     EnterCriticalSection( &m_csPipeLock );

  026ac	e59d3060	 ldr         r3, [sp, #0x60]
  026b0	e2830020	 add         r0, r3, #0x20
  026b4	eb000000	 bl          EnterCriticalSection

; 794  : 
; 795  :     // if this fails, someone is trying to open
; 796  :     // an already opened pipe
; 797  :     DEBUGCHK( m_pPipeQHead  == NULL );

  026b8	e59d3060	 ldr         r3, [sp, #0x60]
  026bc	e2833064	 add         r3, r3, #0x64
  026c0	e5933000	 ldr         r3, [r3]
  026c4	e3530000	 cmp         r3, #0
  026c8	1a000002	 bne         |$LN16@OpenPipe|
  026cc	e3a03001	 mov         r3, #1
  026d0	e58d301c	 str         r3, [sp, #0x1C]
  026d4	ea000008	 b           |$LN17@OpenPipe|
  026d8		 |$LN16@OpenPipe|
  026d8	e3a03c03	 mov         r3, #3, 24
  026dc	e383301d	 orr         r3, r3, #0x1D
  026e0	e59f237c	 ldr         r2, [pc, #0x37C]
  026e4	e59f136c	 ldr         r1, [pc, #0x36C]
  026e8	e59f036c	 ldr         r0, [pc, #0x36C]
  026ec	eb000000	 bl          NKDbgPrintfW
  026f0	e6000010	 __debugbreak_ce
  026f4	e3a03000	 mov         r3, #0
  026f8	e58d301c	 str         r3, [sp, #0x1C]
  026fc		 |$LN17@OpenPipe|

; 798  :     ASSERT(m_pCMhcd !=NULL);

  026fc	e59d3060	 ldr         r3, [sp, #0x60]
  02700	e283300c	 add         r3, r3, #0xC
  02704	e5933000	 ldr         r3, [r3]
  02708	e3530000	 cmp         r3, #0
  0270c	0a000002	 beq         |$LN18@OpenPipe|
  02710	e3a03001	 mov         r3, #1
  02714	e58d3020	 str         r3, [sp, #0x20]
  02718	ea000008	 b           |$LN19@OpenPipe|
  0271c		 |$LN18@OpenPipe|
  0271c	e3a03c03	 mov         r3, #3, 24
  02720	e383301e	 orr         r3, r3, #0x1E
  02724	e59f2338	 ldr         r2, [pc, #0x338]
  02728	e59f1330	 ldr         r1, [pc, #0x330]
  0272c	e59f0328	 ldr         r0, [pc, #0x328]
  02730	eb000000	 bl          NKDbgPrintfW
  02734	e6000010	 __debugbreak_ce
  02738	e3a03000	 mov         r3, #0
  0273c	e58d3020	 str         r3, [sp, #0x20]
  02740		 |$LN19@OpenPipe|

; 799  :     DEBUGCHK( !m_fIsLowSpeed );

  02740	e59d3060	 ldr         r3, [sp, #0x60]
  02744	e283303c	 add         r3, r3, #0x3C
  02748	e5933000	 ldr         r3, [r3]
  0274c	e3530000	 cmp         r3, #0
  02750	1a000002	 bne         |$LN20@OpenPipe|
  02754	e3a03001	 mov         r3, #1
  02758	e58d3024	 str         r3, [sp, #0x24]
  0275c	ea000008	 b           |$LN21@OpenPipe|
  02760		 |$LN20@OpenPipe|
  02760	e3a03c03	 mov         r3, #3, 24
  02764	e383301f	 orr         r3, r3, #0x1F
  02768	e59f22f4	 ldr         r2, [pc, #0x2F4]
  0276c	e59f12e4	 ldr         r1, [pc, #0x2E4]
  02770	e59f02e4	 ldr         r0, [pc, #0x2E4]
  02774	eb000000	 bl          NKDbgPrintfW
  02778	e6000010	 __debugbreak_ce
  0277c	e3a03000	 mov         r3, #0
  02780	e58d3024	 str         r3, [sp, #0x24]
  02784		 |$LN21@OpenPipe|

; 800  :     // In MUSBMHDRC, we don't need to have queue head allocate by CPhysMem anymore
; 801  :     // it is now turn into internal use.
; 802  :     if (m_pPipeQHead == NULL ) {

  02784	e59d3060	 ldr         r3, [sp, #0x60]
  02788	e2833064	 add         r3, r3, #0x64
  0278c	e5933000	 ldr         r3, [r3]
  02790	e3530000	 cmp         r3, #0
  02794	1a000029	 bne         |$LN9@OpenPipe|

; 803  :         m_pPipeQHead = new CQH(this);

  02798	e3a00020	 mov         r0, #0x20
  0279c	eb000000	 bl          |??2@YAPAXI@Z|
  027a0	e58d0028	 str         r0, [sp, #0x28]
  027a4	e59d3028	 ldr         r3, [sp, #0x28]
  027a8	e58d3008	 str         r3, [sp, #8]
  027ac	e59d3008	 ldr         r3, [sp, #8]
  027b0	e3530000	 cmp         r3, #0
  027b4	0a000006	 beq         |$LN22@OpenPipe|
  027b8	e59d1060	 ldr         r1, [sp, #0x60]
  027bc	e59d0008	 ldr         r0, [sp, #8]
  027c0	eb000000	 bl          |??0CQH@@QAA@PAVCPipe@@@Z|
  027c4	e58d002c	 str         r0, [sp, #0x2C]
  027c8	e59d302c	 ldr         r3, [sp, #0x2C]
  027cc	e58d3030	 str         r3, [sp, #0x30]
  027d0	ea000001	 b           |$LN23@OpenPipe|
  027d4		 |$LN22@OpenPipe|
  027d4	e3a03000	 mov         r3, #0
  027d8	e58d3030	 str         r3, [sp, #0x30]
  027dc		 |$LN23@OpenPipe|
  027dc	e59d3060	 ldr         r3, [sp, #0x60]
  027e0	e2832064	 add         r2, r3, #0x64
  027e4	e59d3030	 ldr         r3, [sp, #0x30]
  027e8	e5823000	 str         r3, [r2]

; 804  :         if (m_pPipeQHead)             

  027ec	e59d3060	 ldr         r3, [sp, #0x60]
  027f0	e2833064	 add         r3, r3, #0x64
  027f4	e5933000	 ldr         r3, [r3]
  027f8	e3530000	 cmp         r3, #0
  027fc	0a000002	 beq         |$LN8@OpenPipe|

; 805  :             status = requestOK;

  02800	e3a03001	 mov         r3, #1
  02804	e58d3000	 str         r3, [sp]

; 806  :         else 

  02808	ea00000c	 b           |$LN7@OpenPipe|
  0280c		 |$LN8@OpenPipe|

; 807  :             ASSERT(FALSE);

  0280c	ea000002	 b           |$LN24@OpenPipe|
  02810	e3a03001	 mov         r3, #1
  02814	e58d3034	 str         r3, [sp, #0x34]
  02818	ea000008	 b           |$LN25@OpenPipe|
  0281c		 |$LN24@OpenPipe|
  0281c	e3a03c03	 mov         r3, #3, 24
  02820	e3833027	 orr         r3, r3, #0x27
  02824	e59f2238	 ldr         r2, [pc, #0x238]
  02828	e59f1230	 ldr         r1, [pc, #0x230]
  0282c	e59f0228	 ldr         r0, [pc, #0x228]
  02830	eb000000	 bl          NKDbgPrintfW
  02834	e6000010	 __debugbreak_ce
  02838	e3a03000	 mov         r3, #0
  0283c	e58d3034	 str         r3, [sp, #0x34]
  02840		 |$LN25@OpenPipe|
  02840		 |$LN7@OpenPipe|
  02840		 |$LN9@OpenPipe|

; 808  :     }
; 809  :         
; 810  :     LeaveCriticalSection( &m_csPipeLock );

  02840	e59d3060	 ldr         r3, [sp, #0x60]
  02844	e2830020	 add         r0, r3, #0x20
  02848	eb000000	 bl          LeaveCriticalSection

; 811  :     ASSERT(m_pPipeQHead  != NULL);

  0284c	e59d3060	 ldr         r3, [sp, #0x60]
  02850	e2833064	 add         r3, r3, #0x64
  02854	e5933000	 ldr         r3, [r3]
  02858	e3530000	 cmp         r3, #0
  0285c	0a000002	 beq         |$LN26@OpenPipe|
  02860	e3a03001	 mov         r3, #1
  02864	e58d3038	 str         r3, [sp, #0x38]
  02868	ea000008	 b           |$LN27@OpenPipe|
  0286c		 |$LN26@OpenPipe|
  0286c	e3a03c03	 mov         r3, #3, 24
  02870	e383302b	 orr         r3, r3, #0x2B
  02874	e59f21e8	 ldr         r2, [pc, #0x1E8]
  02878	e59f11e0	 ldr         r1, [pc, #0x1E0]
  0287c	e59f01d8	 ldr         r0, [pc, #0x1D8]
  02880	eb000000	 bl          NKDbgPrintfW
  02884	e6000010	 __debugbreak_ce
  02888	e3a03000	 mov         r3, #0
  0288c	e58d3038	 str         r3, [sp, #0x38]
  02890		 |$LN27@OpenPipe|

; 812  :     if (status == requestOK) {

  02890	e59d3000	 ldr         r3, [sp]
  02894	e3530001	 cmp         r3, #1
  02898	1a00005b	 bne         |$LN6@OpenPipe|

; 813  :         if (m_pCMhcd->IsDMASupport())

  0289c	e59d3060	 ldr         r3, [sp, #0x60]
  028a0	e283300c	 add         r3, r3, #0xC
  028a4	e5932000	 ldr         r2, [r3]
  028a8	e59d3060	 ldr         r3, [sp, #0x60]
  028ac	e283300c	 add         r3, r3, #0xC
  028b0	e5930000	 ldr         r0, [r3]
  028b4	e5923000	 ldr         r3, [r2]
  028b8	e283306c	 add         r3, r3, #0x6C
  028bc	e5933000	 ldr         r3, [r3]
  028c0	e1a0e00f	 mov         lr, pc
  028c4	e12fff13	 bx          r3
  028c8	e58d003c	 str         r0, [sp, #0x3C]
  028cc	e59d303c	 ldr         r3, [sp, #0x3C]
  028d0	e3530000	 cmp         r3, #0
  028d4	0a000031	 beq         |$LN5@OpenPipe|

; 814  :         {
; 815  :             if (m_pCMhcd->GetDMAMode())

  028d8	e59d3060	 ldr         r3, [sp, #0x60]
  028dc	e283300c	 add         r3, r3, #0xC
  028e0	e5932000	 ldr         r2, [r3]
  028e4	e59d3060	 ldr         r3, [sp, #0x60]
  028e8	e283300c	 add         r3, r3, #0xC
  028ec	e5930000	 ldr         r0, [r3]
  028f0	e5923000	 ldr         r3, [r2]
  028f4	e2833070	 add         r3, r3, #0x70
  028f8	e5933000	 ldr         r3, [r3]
  028fc	e1a0e00f	 mov         lr, pc
  02900	e12fff13	 bx          r3
  02904	e58d0040	 str         r0, [sp, #0x40]
  02908	e59d3040	 ldr         r3, [sp, #0x40]
  0290c	e3530000	 cmp         r3, #0
  02910	0a000003	 beq         |$LN4@OpenPipe|

; 816  :                 SetTransferMode(TRANSFER_DMA1);

  02914	e3a01002	 mov         r1, #2
  02918	e59d0060	 ldr         r0, [sp, #0x60]
  0291c	eb000000	 bl          |?SetTransferMode@CPipe@@QAAXE@Z|

; 817  :             else

  02920	ea000002	 b           |$LN3@OpenPipe|
  02924		 |$LN4@OpenPipe|

; 818  :                 SetTransferMode(TRANSFER_DMA0);

  02924	e3a01001	 mov         r1, #1
  02928	e59d0060	 ldr         r0, [sp, #0x60]
  0292c	eb000000	 bl          |?SetTransferMode@CPipe@@QAAXE@Z|
  02930		 |$LN3@OpenPipe|

; 819  : 
; 820  :             // Special handling for bug in MUSBMHDRC
; 821  :             if ((GetTransferMode() == TRANSFER_DMA1) && (GetSpeed() == FULL_SPEED)
; 822  :                 && (USB_ENDPOINT_DIRECTION_OUT(m_usbEndpointDescriptor.bEndpointAddress)))

  02930	e59d0060	 ldr         r0, [sp, #0x60]
  02934	eb000000	 bl          |?GetTransferMode@CPipe@@QAAEXZ|
  02938	e5cd0044	 strb        r0, [sp, #0x44]
  0293c	e5dd3044	 ldrb        r3, [sp, #0x44]
  02940	e3530002	 cmp         r3, #2
  02944	1a000014	 bne         |$LN2@OpenPipe|
  02948	e59d0060	 ldr         r0, [sp, #0x60]
  0294c	eb000000	 bl          |?GetSpeed@CPipe@@QAAEXZ|
  02950	e5cd0045	 strb        r0, [sp, #0x45]
  02954	e5dd3045	 ldrb        r3, [sp, #0x45]
  02958	e3530002	 cmp         r3, #2
  0295c	1a00000e	 bne         |$LN2@OpenPipe|
  02960	e59d3060	 ldr         r3, [sp, #0x60]
  02964	e2833036	 add         r3, r3, #0x36
  02968	e5d33000	 ldrb        r3, [r3]
  0296c	e3130080	 tst         r3, #0x80
  02970	1a000009	 bne         |$LN2@OpenPipe|

; 823  :             {
; 824  :                 RETAILMSG(1, (TEXT("MUSBMHDRC issue - BULK OUT pipe need to force to run at DMA 0\r\n")));

  02974	e59f00ec	 ldr         r0, [pc, #0xEC]
  02978	eb000000	 bl          NKDbgPrintfW
  0297c	e3a03001	 mov         r3, #1
  02980	e58d3048	 str         r3, [sp, #0x48]
  02984	ea000001	 b           |$LN29@OpenPipe|
  02988	e3a03000	 mov         r3, #0
  0298c	e58d3048	 str         r3, [sp, #0x48]
  02990		 |$LN29@OpenPipe|

; 825  :                 SetTransferMode(TRANSFER_DMA0);

  02990	e3a01001	 mov         r1, #1
  02994	e59d0060	 ldr         r0, [sp, #0x60]
  02998	eb000000	 bl          |?SetTransferMode@CPipe@@QAAXE@Z|
  0299c		 |$LN2@OpenPipe|

; 826  :             }
; 827  :         }
; 828  :         else

  0299c	ea000002	 b           |$LN1@OpenPipe|
  029a0		 |$LN5@OpenPipe|

; 829  :             SetTransferMode(TRANSFER_FIFO);

  029a0	e3a01000	 mov         r1, #0
  029a4	e59d0060	 ldr         r0, [sp, #0x60]
  029a8	eb000000	 bl          |?SetTransferMode@CPipe@@QAAXE@Z|
  029ac		 |$LN1@OpenPipe|

; 830  :         // Add this pipe into busy pipe list
; 831  : #ifdef DEBUG
; 832  :         BOOL bReturn = m_pCMhcd->AddToBusyPipeList(this, FALSE);

  029ac	e3a02000	 mov         r2, #0
  029b0	e59d1060	 ldr         r1, [sp, #0x60]
  029b4	e59d3060	 ldr         r3, [sp, #0x60]
  029b8	e283300c	 add         r3, r3, #0xC
  029bc	e5930000	 ldr         r0, [r3]
  029c0	eb000000	 bl          |?AddToBusyPipeList@CHW@@QAAHQAVCPipe@@H@Z|
  029c4	e58d004c	 str         r0, [sp, #0x4C]
  029c8	e59d304c	 ldr         r3, [sp, #0x4C]
  029cc	e58d3004	 str         r3, [sp, #4]

; 833  :         ASSERT(bReturn == TRUE);

  029d0	e59d3004	 ldr         r3, [sp, #4]
  029d4	e3530001	 cmp         r3, #1
  029d8	1a000002	 bne         |$LN30@OpenPipe|
  029dc	e3a03001	 mov         r3, #1
  029e0	e58d3050	 str         r3, [sp, #0x50]
  029e4	ea000008	 b           |$LN31@OpenPipe|
  029e8		 |$LN30@OpenPipe|
  029e8	e3a03c03	 mov         r3, #3, 24
  029ec	e3833041	 orr         r3, r3, #0x41
  029f0	e59f206c	 ldr         r2, [pc, #0x6C]
  029f4	e59f1064	 ldr         r1, [pc, #0x64]
  029f8	e59f005c	 ldr         r0, [pc, #0x5C]
  029fc	eb000000	 bl          NKDbgPrintfW
  02a00	e6000010	 __debugbreak_ce
  02a04	e3a03000	 mov         r3, #0
  02a08	e58d3050	 str         r3, [sp, #0x50]
  02a0c		 |$LN31@OpenPipe|
  02a0c		 |$LN6@OpenPipe|

; 834  : #else
; 835  : 		m_pCMhcd->AddToBusyPipeList(this, FALSE);
; 836  : #endif
; 837  :     }
; 838  : 
; 839  :         
; 840  :     DEBUGMSG( ZONE_PIPE, (TEXT("-CBulkPipe::OpenPipe, returning HCD_REQUEST_STATUS %d\n"), status) );

  02a0c	e59f3044	 ldr         r3, [pc, #0x44]
  02a10	e5933440	 ldr         r3, [r3, #0x440]
  02a14	e3130080	 tst         r3, #0x80
  02a18	0a000005	 beq         |$LN32@OpenPipe|
  02a1c	e59d1000	 ldr         r1, [sp]
  02a20	e59f002c	 ldr         r0, [pc, #0x2C]
  02a24	eb000000	 bl          NKDbgPrintfW
  02a28	e3a03001	 mov         r3, #1
  02a2c	e58d3054	 str         r3, [sp, #0x54]
  02a30	ea000001	 b           |$LN33@OpenPipe|
  02a34		 |$LN32@OpenPipe|
  02a34	e3a03000	 mov         r3, #0
  02a38	e58d3054	 str         r3, [sp, #0x54]
  02a3c		 |$LN33@OpenPipe|

; 841  :     
; 842  :     return status;

  02a3c	e59d3000	 ldr         r3, [sp]
  02a40	e58d300c	 str         r3, [sp, #0xC]

; 843  : }

  02a44	e59d000c	 ldr         r0, [sp, #0xC]
  02a48	e28dd058	 add         sp, sp, #0x58
  02a4c	e89d6000	 ldmia       sp, {sp, lr}
  02a50	e12fff1e	 bx          lr
  02a54		 |$LN37@OpenPipe|
  02a54		 |$LN38@OpenPipe|
  02a54	00000000	 DCD         |??_C@_1GO@DDNGLOEL@?$AA?9?$AAC?$AAB?$AAu?$AAl?$AAk?$AAP?$AAi?$AAp?$AAe?$AA?3?$AA?3?$AAO?$AAp?$AAe?$AAn?$AAP?$AAi?$AAp?$AAe?$AA?0?$AA?5?$AAr?$AAe?$AAt?$AAu?$AAr?$AAn?$AAi?$AAn?$AAg?$AA?5@|
  02a58		 |$LN39@OpenPipe|
  02a58	00000000	 DCD         |dpCurSettings|
  02a5c		 |$LN40@OpenPipe|
  02a5c	00000000	 DCD         |??_C@_1FK@FNONLNGN@?$AA?$CF?$AAs?$AA?3?$AA?5?$AAD?$AAE?$AAB?$AAU?$AAG?$AAC?$AAH?$AAK?$AA?5?$AAf?$AAa?$AAi?$AAl?$AAe?$AAd?$AA?5?$AAi?$AAn?$AA?5?$AAf?$AAi?$AAl?$AAe?$AA?5?$AA?$CF?$AAs?$AA?5?$AAa@|
  02a60		 |$LN41@OpenPipe|
  02a60	00000000	 DCD         |??_C@_1BA@LEPJIIOK@?$AAU?$AAn?$AAk?$AAn?$AAo?$AAw?$AAn?$AA?$AA@|
  02a64		 |$LN42@OpenPipe|
  02a64	00000000	 DCD         |??_C@_1LK@LMPDOKKA@?$AAC?$AA?3?$AA?2?$AAW?$AAI?$AAN?$AAC?$AAE?$AA6?$AA0?$AA0?$AA?2?$AAP?$AAL?$AAA?$AAT?$AAF?$AAO?$AAR?$AAM?$AA?2?$AAC?$AAO?$AAM?$AAM?$AAO?$AAN?$AA?2?$AAS?$AAR?$AAC?$AA?2@|
  02a68		 |$LN43@OpenPipe|
  02a68	00000000	 DCD         |??_C@_1IA@CCAOPDIB@?$AAM?$AAU?$AAS?$AAB?$AAM?$AAH?$AAD?$AAR?$AAC?$AA?5?$AAi?$AAs?$AAs?$AAu?$AAe?$AA?5?$AA?9?$AA?5?$AAB?$AAU?$AAL?$AAK?$AA?5?$AAO?$AAU?$AAT?$AA?5?$AAp?$AAi?$AAp?$AAe?$AA?5@|
  02a6c		 |$LN44@OpenPipe|
  02a6c	00000000	 DCD         |??_C@_1DE@OMMBGCCF@?$AA?$CF?$AAs?$AA?3?$AA?5?$AA?$CL?$AAC?$AAB?$AAu?$AAl?$AAk?$AAP?$AAi?$AAp?$AAe?$AA?3?$AA?3?$AAO?$AAp?$AAe?$AAn?$AAP?$AAi?$AAp?$AAe?$AA?6?$AA?$AA@|
  02a70		 |$M38142|

			 ENDP  ; |?OpenPipe@CBulkPipe@@UAA?AW4HCD_REQUEST_STATUS@@XZ|, CBulkPipe::OpenPipe

; File c:\wince600\platform\common\src\soc\common_ti_v1\omap3530\musb\musbhcd\musbmhdrc\cpipe.h

  00000			 AREA	 |.pdata|, PDATA
|$T38162| DCD	|$LN9@GetSpeed|
	DCD	0x40001f04
; Function compile flags: /Odtp

  00000			 AREA	 |.text|, CODE, ARM

  00000		 |?GetSpeed@CPipe@@QAAEXZ| PROC		; CPipe::GetSpeed

; 98   :     UCHAR GetSpeed() {return (UCHAR)(m_fIsHighSpeed? HIGH_SPEED : (m_fIsLowSpeed? LOW_SPEED: FULL_SPEED));};

  00000		 |$LN9@GetSpeed|
  00000	e1a0c00d	 mov         r12, sp
  00004	e92d0001	 stmdb       sp!, {r0}
  00008	e92d5000	 stmdb       sp!, {r12, lr}
  0000c	e24dd00c	 sub         sp, sp, #0xC
  00010		 |$M38159|
  00010	e59d3014	 ldr         r3, [sp, #0x14]
  00014	e2833040	 add         r3, r3, #0x40
  00018	e5933000	 ldr         r3, [r3]
  0001c	e3530000	 cmp         r3, #0
  00020	0a000002	 beq         |$LN5@GetSpeed|
  00024	e3a03001	 mov         r3, #1
  00028	e58d3004	 str         r3, [sp, #4]
  0002c	ea00000b	 b           |$LN6@GetSpeed|
  00030		 |$LN5@GetSpeed|
  00030	e59d3014	 ldr         r3, [sp, #0x14]
  00034	e283303c	 add         r3, r3, #0x3C
  00038	e5933000	 ldr         r3, [r3]
  0003c	e3530000	 cmp         r3, #0
  00040	0a000002	 beq         |$LN3@GetSpeed|
  00044	e3a03003	 mov         r3, #3
  00048	e58d3008	 str         r3, [sp, #8]
  0004c	ea000001	 b           |$LN4@GetSpeed|
  00050		 |$LN3@GetSpeed|
  00050	e3a03002	 mov         r3, #2
  00054	e58d3008	 str         r3, [sp, #8]
  00058		 |$LN4@GetSpeed|
  00058	e59d3008	 ldr         r3, [sp, #8]
  0005c	e58d3004	 str         r3, [sp, #4]
  00060		 |$LN6@GetSpeed|
  00060	e59d3004	 ldr         r3, [sp, #4]
  00064	e20330ff	 and         r3, r3, #0xFF
  00068	e5cd3000	 strb        r3, [sp]
  0006c	e5dd0000	 ldrb        r0, [sp]
  00070	e28dd00c	 add         sp, sp, #0xC
  00074	e89d6000	 ldmia       sp, {sp, lr}
  00078	e12fff1e	 bx          lr
  0007c		 |$M38160|

			 ENDP  ; |?GetSpeed@CPipe@@QAAEXZ|, CPipe::GetSpeed


  00000			 AREA	 |.pdata|, PDATA
|$T38170| DCD	|$LN5@GetTransfe@3|
	DCD	0x40000c04
; Function compile flags: /Odtp

  00000			 AREA	 |.text|, CODE, ARM

  00000		 |?GetTransferMode@CPipe@@QAAEXZ| PROC	; CPipe::GetTransferMode

; 110  :     UCHAR   GetTransferMode(void) { return m_ucTransferMode;};

  00000		 |$LN5@GetTransfe@3|
  00000	e1a0c00d	 mov         r12, sp
  00004	e92d0001	 stmdb       sp!, {r0}
  00008	e92d5000	 stmdb       sp!, {r12, lr}
  0000c	e24dd004	 sub         sp, sp, #4
  00010		 |$M38167|
  00010	e59d300c	 ldr         r3, [sp, #0xC]
  00014	e2833014	 add         r3, r3, #0x14
  00018	e5d33000	 ldrb        r3, [r3]
  0001c	e5cd3000	 strb        r3, [sp]
  00020	e5dd0000	 ldrb        r0, [sp]
  00024	e28dd004	 add         sp, sp, #4
  00028	e89d6000	 ldmia       sp, {sp, lr}
  0002c	e12fff1e	 bx          lr
  00030		 |$M38168|

			 ENDP  ; |?GetTransferMode@CPipe@@QAAEXZ|, CPipe::GetTransferMode

	IMPORT	|?AddToBusyPipeList@CBusyPipeList@@QAAHQAVCPipe@@H@Z| ; CBusyPipeList::AddToBusyPipeList
; File c:\wince600\platform\common\src\soc\common_ti_v1\omap3530\musb\musbhcd\musbmhdrc\chw.h

  00000			 AREA	 |.pdata|, PDATA
|$T38178| DCD	|$LN5@AddToBusyP|
	DCD	0x40001004
; Function compile flags: /Odtp

  00000			 AREA	 |.text|, CODE, ARM

  00000		 |?AddToBusyPipeList@CHW@@QAAHQAVCPipe@@H@Z| PROC ; CHW::AddToBusyPipeList

; 384  :     BOOL AddToBusyPipeList( IN CPipe * const pPipe, IN const BOOL fHighPriority ) {  return m_cBusyPipeList.AddToBusyPipeList(pPipe,fHighPriority);};

  00000		 |$LN5@AddToBusyP|
  00000	e1a0c00d	 mov         r12, sp
  00004	e92d0007	 stmdb       sp!, {r0 - r2}
  00008	e92d5000	 stmdb       sp!, {r12, lr}
  0000c	e24dd008	 sub         sp, sp, #8
  00010		 |$M38175|
  00010	e59d2018	 ldr         r2, [sp, #0x18]
  00014	e59d1014	 ldr         r1, [sp, #0x14]
  00018	e59d3010	 ldr         r3, [sp, #0x10]
  0001c	e28300c4	 add         r0, r3, #0xC4
  00020	eb000000	 bl          |?AddToBusyPipeList@CBusyPipeList@@QAAHQAVCPipe@@H@Z|
  00024	e58d0004	 str         r0, [sp, #4]
  00028	e59d3004	 ldr         r3, [sp, #4]
  0002c	e58d3000	 str         r3, [sp]
  00030	e59d0000	 ldr         r0, [sp]
  00034	e28dd008	 add         sp, sp, #8
  00038	e89d6000	 ldmia       sp, {sp, lr}
  0003c	e12fff1e	 bx          lr
  00040		 |$M38176|

			 ENDP  ; |?AddToBusyPipeList@CHW@@QAAHQAVCPipe@@H@Z|, CHW::AddToBusyPipeList

	EXPORT	|??_GCQH@@QAAPAXI@Z|			; CQH::`scalar deleting destructor'
	EXPORT	|?RemoveFromBusyPipeList@CHW@@QAAXQAVCPipe@@@Z| ; CHW::RemoveFromBusyPipeList
	EXPORT	|??_C@_1DO@PENEAEKP@?$AA?$CF?$AAs?$AA?3?$AA?5?$AA?$CL?$AAC?$AAB?$AAu?$AAl?$AAk?$AAP?$AAi?$AAp?$AAe?$AA?$CI?$AA?$CF?$AAs?$AA?$CJ?$AA?3?$AA?3?$AAC?$AAl?$AAo?$AAs?$AAe?$AAP?$AAi?$AAp?$AAe?$AA?6?$AA?$AA@| [ DATA ] ; `string'

  000b8			 AREA	 |.pdata|, PDATA
|$T38192| DCD	|$LN10@ClosePipe|
	DCD	0x40005504
; File c:\wince600\platform\common\src\soc\common_ti_v1\omap3530\musb\musbhcd\musbmhdrc\cpipe.cpp

  00000			 AREA	 |.rdata|, DATA, READONLY
|??_C@_1DO@PENEAEKP@?$AA?$CF?$AAs?$AA?3?$AA?5?$AA?$CL?$AAC?$AAB?$AAu?$AAl?$AAk?$AAP?$AAi?$AAp?$AAe?$AA?$CI?$AA?$CF?$AAs?$AA?$CJ?$AA?3?$AA?3?$AAC?$AAl?$AAo?$AAs?$AAe?$AAP?$AAi?$AAp?$AAe?$AA?6?$AA?$AA@| DCB "%"
	DCB	0x0, "s", 0x0, ":", 0x0, " ", 0x0, "+", 0x0, "C", 0x0, "B"
	DCB	0x0, "u", 0x0, "l", 0x0, "k", 0x0, "P", 0x0, "i", 0x0, "p"
	DCB	0x0, "e", 0x0, "(", 0x0, "%", 0x0, "s", 0x0, ")", 0x0, ":"
	DCB	0x0, ":", 0x0, "C", 0x0, "l", 0x0, "o", 0x0, "s", 0x0, "e"
	DCB	0x0, "P", 0x0, "i", 0x0, "p", 0x0, "e", 0x0, 0xa, 0x0, 0x0
	DCB	0x0					; `string'
; Function compile flags: /Odtp

  02a70			 AREA	 |.text|, CODE, ARM

  02a70		 |?ClosePipe@CBulkPipe@@UAA?AW4HCD_REQUEST_STATUS@@XZ| PROC ; CBulkPipe::ClosePipe

; 857  : {

  02a70		 |$LN10@ClosePipe|
  02a70	e1a0c00d	 mov         r12, sp
  02a74	e92d0001	 stmdb       sp!, {r0}
  02a78	e92d5000	 stmdb       sp!, {r12, lr}
  02a7c	e24dd024	 sub         sp, sp, #0x24
  02a80		 |$M38189|

; 858  :     DEBUGMSG( ZONE_PIPE, (TEXT("%s: +CBulkPipe(%s)::ClosePipe\n"),GetControllerName(), GetPipeType() ) );

  02a80	e59f3138	 ldr         r3, [pc, #0x138]
  02a84	e5933440	 ldr         r3, [r3, #0x440]
  02a88	e3130080	 tst         r3, #0x80
  02a8c	0a000011	 beq         |$LN4@ClosePipe|
  02a90	e59d302c	 ldr         r3, [sp, #0x2C]
  02a94	e5933000	 ldr         r3, [r3]
  02a98	e2833040	 add         r3, r3, #0x40
  02a9c	e59d002c	 ldr         r0, [sp, #0x2C]
  02aa0	e5933000	 ldr         r3, [r3]
  02aa4	e1a0e00f	 mov         lr, pc
  02aa8	e12fff13	 bx          r3
  02aac	e58d0010	 str         r0, [sp, #0x10]
  02ab0	e59d002c	 ldr         r0, [sp, #0x2C]
  02ab4	eb000000	 bl          |?GetControllerName@CPipe@@QBAPBGXZ|
  02ab8	e58d0014	 str         r0, [sp, #0x14]
  02abc	e59d2010	 ldr         r2, [sp, #0x10]
  02ac0	e59d1014	 ldr         r1, [sp, #0x14]
  02ac4	e59f00f0	 ldr         r0, [pc, #0xF0]
  02ac8	eb000000	 bl          NKDbgPrintfW
  02acc	e3a03001	 mov         r3, #1
  02ad0	e58d3018	 str         r3, [sp, #0x18]
  02ad4	ea000001	 b           |$LN5@ClosePipe|
  02ad8		 |$LN4@ClosePipe|
  02ad8	e3a03000	 mov         r3, #0
  02adc	e58d3018	 str         r3, [sp, #0x18]
  02ae0		 |$LN5@ClosePipe|

; 859  :     HCD_REQUEST_STATUS status = requestFailed;

  02ae0	e3a03000	 mov         r3, #0
  02ae4	e58d3000	 str         r3, [sp]

; 860  :     m_pCMhcd->RemoveFromBusyPipeList(this );

  02ae8	e59d102c	 ldr         r1, [sp, #0x2C]
  02aec	e59d302c	 ldr         r3, [sp, #0x2C]
  02af0	e283300c	 add         r3, r3, #0xC
  02af4	e5930000	 ldr         r0, [r3]
  02af8	eb000000	 bl          |?RemoveFromBusyPipeList@CHW@@QAAXQAVCPipe@@@Z|

; 861  :     EnterCriticalSection( &m_csPipeLock );

  02afc	e59d302c	 ldr         r3, [sp, #0x2C]
  02b00	e2830020	 add         r0, r3, #0x20
  02b04	eb000000	 bl          EnterCriticalSection

; 862  :     if ( m_pPipeQHead) {

  02b08	e59d302c	 ldr         r3, [sp, #0x2C]
  02b0c	e2833064	 add         r3, r3, #0x64
  02b10	e5933000	 ldr         r3, [r3]
  02b14	e3530000	 cmp         r3, #0
  02b18	0a00001e	 beq         |$LN1@ClosePipe|

; 863  :         
; 864  :         AbortQueue();                

  02b1c	e59d002c	 ldr         r0, [sp, #0x2C]
  02b20	eb000000	 bl          |?AbortQueue@CQueuedPipe@@IAAXXZ|

; 865  :         m_pPipeQHead->~CQH();

  02b24	e3a01000	 mov         r1, #0
  02b28	e59d302c	 ldr         r3, [sp, #0x2C]
  02b2c	e2833064	 add         r3, r3, #0x64
  02b30	e5930000	 ldr         r0, [r3]
  02b34	eb000000	 bl          |??_GCQH@@QAAPAXI@Z|

; 866  :         delete m_pPipeQHead;

  02b38	e59d302c	 ldr         r3, [sp, #0x2C]
  02b3c	e2833064	 add         r3, r3, #0x64
  02b40	e5933000	 ldr         r3, [r3]
  02b44	e58d3008	 str         r3, [sp, #8]
  02b48	e59d3008	 ldr         r3, [sp, #8]
  02b4c	e58d3004	 str         r3, [sp, #4]
  02b50	e59d3004	 ldr         r3, [sp, #4]
  02b54	e3530000	 cmp         r3, #0
  02b58	0a000006	 beq         |$LN6@ClosePipe|
  02b5c	e3a01001	 mov         r1, #1
  02b60	e59d0004	 ldr         r0, [sp, #4]
  02b64	eb000000	 bl          |??_GCQH@@QAAPAXI@Z|
  02b68	e58d001c	 str         r0, [sp, #0x1C]
  02b6c	e59d301c	 ldr         r3, [sp, #0x1C]
  02b70	e58d3020	 str         r3, [sp, #0x20]
  02b74	ea000001	 b           |$LN7@ClosePipe|
  02b78		 |$LN6@ClosePipe|
  02b78	e3a03000	 mov         r3, #0
  02b7c	e58d3020	 str         r3, [sp, #0x20]
  02b80		 |$LN7@ClosePipe|

; 867  :         m_pPipeQHead = NULL;

  02b80	e59d302c	 ldr         r3, [sp, #0x2C]
  02b84	e2832064	 add         r2, r3, #0x64
  02b88	e3a03000	 mov         r3, #0
  02b8c	e5823000	 str         r3, [r2]

; 868  :         status = requestOK;

  02b90	e3a03001	 mov         r3, #1
  02b94	e58d3000	 str         r3, [sp]
  02b98		 |$LN1@ClosePipe|

; 869  :     }
; 870  :     LeaveCriticalSection( &m_csPipeLock );

  02b98	e59d302c	 ldr         r3, [sp, #0x2C]
  02b9c	e2830020	 add         r0, r3, #0x20
  02ba0	eb000000	 bl          LeaveCriticalSection

; 871  :     return status;

  02ba4	e59d3000	 ldr         r3, [sp]
  02ba8	e58d300c	 str         r3, [sp, #0xC]

; 872  : }

  02bac	e59d000c	 ldr         r0, [sp, #0xC]
  02bb0	e28dd024	 add         sp, sp, #0x24
  02bb4	e89d6000	 ldmia       sp, {sp, lr}
  02bb8	e12fff1e	 bx          lr
  02bbc		 |$LN11@ClosePipe|
  02bbc		 |$LN12@ClosePipe|
  02bbc	00000000	 DCD         |??_C@_1DO@PENEAEKP@?$AA?$CF?$AAs?$AA?3?$AA?5?$AA?$CL?$AAC?$AAB?$AAu?$AAl?$AAk?$AAP?$AAi?$AAp?$AAe?$AA?$CI?$AA?$CF?$AAs?$AA?$CJ?$AA?3?$AA?3?$AAC?$AAl?$AAo?$AAs?$AAe?$AAP?$AAi?$AAp?$AAe?$AA?6?$AA?$AA@|
  02bc0		 |$LN13@ClosePipe|
  02bc0	00000000	 DCD         |dpCurSettings|
  02bc4		 |$M38190|

			 ENDP  ; |?ClosePipe@CBulkPipe@@UAA?AW4HCD_REQUEST_STATUS@@XZ|, CBulkPipe::ClosePipe

	IMPORT	|?RemoveFromBusyPipeList@CBusyPipeList@@QAAXQAVCPipe@@@Z| ; CBusyPipeList::RemoveFromBusyPipeList
; File c:\wince600\platform\common\src\soc\common_ti_v1\omap3530\musb\musbhcd\musbmhdrc\chw.h

  00000			 AREA	 |.pdata|, PDATA
|$T38200| DCD	|$LN5@RemoveFrom|
	DCD	0x40000903
; Function compile flags: /Odtp

  00000			 AREA	 |.text|, CODE, ARM

  00000		 |?RemoveFromBusyPipeList@CHW@@QAAXQAVCPipe@@@Z| PROC ; CHW::RemoveFromBusyPipeList

; 385  :     void RemoveFromBusyPipeList( IN CPipe * const pPipe ) { m_cBusyPipeList.RemoveFromBusyPipeList(pPipe); };           

  00000		 |$LN5@RemoveFrom|
  00000	e1a0c00d	 mov         r12, sp
  00004	e92d0003	 stmdb       sp!, {r0, r1}
  00008	e92d5000	 stmdb       sp!, {r12, lr}
  0000c		 |$M38197|
  0000c	e59d100c	 ldr         r1, [sp, #0xC]
  00010	e59d3008	 ldr         r3, [sp, #8]
  00014	e28300c4	 add         r0, r3, #0xC4
  00018	eb000000	 bl          |?RemoveFromBusyPipeList@CBusyPipeList@@QAAXQAVCPipe@@@Z|
  0001c	e89d6000	 ldmia       sp, {sp, lr}
  00020	e12fff1e	 bx          lr
  00024		 |$M38198|

			 ENDP  ; |?RemoveFromBusyPipeList@CHW@@QAAXQAVCPipe@@@Z|, CHW::RemoveFromBusyPipeList

	EXPORT	|??1CQH@@QAA@XZ|			; CQH::~CQH

  00000			 AREA	 |.pdata|, PDATA
|$T38208| DCD	|$LN6@scalar@6|
	DCD	0x40001104
; Function compile flags: /Odtp

  00000			 AREA	 |.text|, CODE, ARM

  00000		 |??_GCQH@@QAAPAXI@Z| PROC		; CQH::`scalar deleting destructor'
  00000		 |$LN6@scalar@6|
  00000	e1a0c00d	 mov         r12, sp
  00004	e92d0003	 stmdb       sp!, {r0, r1}
  00008	e92d5000	 stmdb       sp!, {r12, lr}
  0000c	e24dd004	 sub         sp, sp, #4
  00010		 |$M38205|
  00010	e59d000c	 ldr         r0, [sp, #0xC]
  00014	eb000000	 bl          |??1CQH@@QAA@XZ|
  00018	e59d3010	 ldr         r3, [sp, #0x10]
  0001c	e3130001	 tst         r3, #1
  00020	0a000001	 beq         |$LN1@scalar@6|
  00024	e59d000c	 ldr         r0, [sp, #0xC]
  00028	eb000000	 bl          |??3@YAXPAX@Z|
  0002c		 |$LN1@scalar@6|
  0002c	e59d300c	 ldr         r3, [sp, #0xC]
  00030	e58d3000	 str         r3, [sp]
  00034	e59d0000	 ldr         r0, [sp]
  00038	e28dd004	 add         sp, sp, #4
  0003c	e89d6000	 ldmia       sp, {sp, lr}
  00040	e12fff1e	 bx          lr
  00044		 |$M38206|

			 ENDP  ; |??_GCQH@@QAAPAXI@Z|, CQH::`scalar deleting destructor'

; File c:\wince600\platform\common\src\soc\common_ti_v1\omap3530\musb\musbhcd\musbmhdrc\ctd.h

  00000			 AREA	 |.pdata|, PDATA
|$T38215| DCD	|$LN5@CQH|
	DCD	0x40000803
; Function compile flags: /Odtp

  00000			 AREA	 |.text|, CODE, ARM

  00000		 |??1CQH@@QAA@XZ| PROC			; CQH::~CQH

; 138  :     ~CQH() { DeleteCriticalSection(&m_csCQTD); };

  00000		 |$LN5@CQH|
  00000	e1a0c00d	 mov         r12, sp
  00004	e92d0001	 stmdb       sp!, {r0}
  00008	e92d5000	 stmdb       sp!, {r12, lr}
  0000c		 |$M38212|
  0000c	e59d3008	 ldr         r3, [sp, #8]
  00010	e283000c	 add         r0, r3, #0xC
  00014	eb000000	 bl          DeleteCriticalSection
  00018	e89d6000	 ldmia       sp, {sp, lr}
  0001c	e12fff1e	 bx          lr
  00020		 |$M38213|

			 ENDP  ; |??1CQH@@QAA@XZ|, CQH::~CQH

	EXPORT	|??_C@_1HO@BLKOFEEL@?$AA?$CF?$AAs?$AA?3?$AA?5?$AA?$CB?$AAC?$AAB?$AAu?$AAl?$AAk?$AAP?$AAi?$AAp?$AAe?$AA?3?$AA?3?$AAA?$AAr?$AAe?$AAT?$AAr?$AAa?$AAn?$AAs?$AAf?$AAe?$AAr?$AAP?$AAa?$AAr?$AAa?$AAm@| [ DATA ] ; `string'

  000c0			 AREA	 |.pdata|, PDATA
|$T38236| DCD	|$LN19@AreTransfe|
	DCD	0x4000aa04
; File c:\wince600\platform\common\src\soc\common_ti_v1\omap3530\musb\musbhcd\musbmhdrc\cpipe.cpp

  00000			 AREA	 |.rdata|, DATA, READONLY
|??_C@_1HO@BLKOFEEL@?$AA?$CF?$AAs?$AA?3?$AA?5?$AA?$CB?$AAC?$AAB?$AAu?$AAl?$AAk?$AAP?$AAi?$AAp?$AAe?$AA?3?$AA?3?$AAA?$AAr?$AAe?$AAT?$AAr?$AAa?$AAn?$AAs?$AAf?$AAe?$AAr?$AAP?$AAa?$AAr?$AAa?$AAm@| DCB "%"
	DCB	0x0, "s", 0x0, ":", 0x0, " ", 0x0, "!", 0x0, "C", 0x0, "B"
	DCB	0x0, "u", 0x0, "l", 0x0, "k", 0x0, "P", 0x0, "i", 0x0, "p"
	DCB	0x0, "e", 0x0, ":", 0x0, ":", 0x0, "A", 0x0, "r", 0x0, "e"
	DCB	0x0, "T", 0x0, "r", 0x0, "a", 0x0, "n", 0x0, "s", 0x0, "f"
	DCB	0x0, "e", 0x0, "r", 0x0, "P", 0x0, "a", 0x0, "r", 0x0, "a"
	DCB	0x0, "m", 0x0, "e", 0x0, "t", 0x0, "e", 0x0, "r", 0x0, "s"
	DCB	0x0, "V", 0x0, "a", 0x0, "l", 0x0, "i", 0x0, "d", 0x0, ","
	DCB	0x0, " ", 0x0, "r", 0x0, "e", 0x0, "t", 0x0, "u", 0x0, "r"
	DCB	0x0, "n", 0x0, "i", 0x0, "n", 0x0, "g", 0x0, " ", 0x0, "B"
	DCB	0x0, "O", 0x0, "O", 0x0, "L", 0x0, " ", 0x0, "%", 0x0, "d"
	DCB	0x0, 0xa, 0x0, 0x0, 0x0			; `string'
; Function compile flags: /Odtp

  02bc4			 AREA	 |.text|, CODE, ARM

  02bc4		 |?AreTransferParametersValid@CBulkPipe@@EBAHPBUSTRANSFER@@@Z| PROC ; CBulkPipe::AreTransferParametersValid

; 886  : {

  02bc4		 |$LN19@AreTransfe|
  02bc4	e1a0c00d	 mov         r12, sp
  02bc8	e92d0003	 stmdb       sp!, {r0, r1}
  02bcc	e92d5000	 stmdb       sp!, {r12, lr}
  02bd0	e24dd024	 sub         sp, sp, #0x24
  02bd4		 |$M38233|

; 887  :     if (pTransfer == NULL) {

  02bd4	e59d3030	 ldr         r3, [sp, #0x30]
  02bd8	e3530000	 cmp         r3, #0
  02bdc	1a00000e	 bne         |$LN1@AreTransfe|

; 888  :         ASSERT(FALSE);

  02be0	ea000002	 b           |$LN4@AreTransfe|
  02be4	e3a03001	 mov         r3, #1
  02be8	e58d3008	 str         r3, [sp, #8]
  02bec	ea000007	 b           |$LN5@AreTransfe|
  02bf0		 |$LN4@AreTransfe|
  02bf0	e3a03fde	 mov         r3, #0xDE, 30
  02bf4	e59f2264	 ldr         r2, [pc, #0x264]
  02bf8	e59f125c	 ldr         r1, [pc, #0x25C]
  02bfc	e59f0254	 ldr         r0, [pc, #0x254]
  02c00	eb000000	 bl          NKDbgPrintfW
  02c04	e6000010	 __debugbreak_ce
  02c08	e3a03000	 mov         r3, #0
  02c0c	e58d3008	 str         r3, [sp, #8]
  02c10		 |$LN5@AreTransfe|

; 889  :         return FALSE;

  02c10	e3a03000	 mov         r3, #0
  02c14	e58d3004	 str         r3, [sp, #4]
  02c18	ea00008a	 b           |$LN2@AreTransfe|
  02c1c		 |$LN1@AreTransfe|

; 890  :     }
; 891  :         
; 892  :     
; 893  :     //DEBUGMSG( ZONE_TRANSFER && ZONE_VERBOSE, (TEXT("+CBulkPipe::AreTransferParametersValid\n")) );
; 894  : 
; 895  :     // these parameters aren't used by CBulkPipe, so if they are non NULL,
; 896  :     // it doesn't present a serious problem. But, they shouldn't have been
; 897  :     // passed in as non-NULL by the calling driver.
; 898  :     DEBUGCHK( pTransfer->adwIsochErrors == NULL && // ISOCH
; 899  :               pTransfer->adwIsochLengths == NULL && // ISOCH
; 900  :               pTransfer->aLengths == NULL && // ISOCH
; 901  :               pTransfer->lpvControlHeader == NULL ); // CONTROL

  02c1c	e59d3030	 ldr         r3, [sp, #0x30]
  02c20	e283302c	 add         r3, r3, #0x2C
  02c24	e5933000	 ldr         r3, [r3]
  02c28	e3530000	 cmp         r3, #0
  02c2c	1a000011	 bne         |$LN6@AreTransfe|
  02c30	e59d3030	 ldr         r3, [sp, #0x30]
  02c34	e2833030	 add         r3, r3, #0x30
  02c38	e5933000	 ldr         r3, [r3]
  02c3c	e3530000	 cmp         r3, #0
  02c40	1a00000c	 bne         |$LN6@AreTransfe|
  02c44	e59d3030	 ldr         r3, [sp, #0x30]
  02c48	e2833018	 add         r3, r3, #0x18
  02c4c	e5933000	 ldr         r3, [r3]
  02c50	e3530000	 cmp         r3, #0
  02c54	1a000007	 bne         |$LN6@AreTransfe|
  02c58	e59d3030	 ldr         r3, [sp, #0x30]
  02c5c	e283300c	 add         r3, r3, #0xC
  02c60	e5933000	 ldr         r3, [r3]
  02c64	e3530000	 cmp         r3, #0
  02c68	1a000002	 bne         |$LN6@AreTransfe|
  02c6c	e3a03001	 mov         r3, #1
  02c70	e58d300c	 str         r3, [sp, #0xC]
  02c74	ea000008	 b           |$LN7@AreTransfe|
  02c78		 |$LN6@AreTransfe|
  02c78	e3a03c03	 mov         r3, #3, 24
  02c7c	e3833085	 orr         r3, r3, #0x85
  02c80	e59f21d8	 ldr         r2, [pc, #0x1D8]
  02c84	e59f11dc	 ldr         r1, [pc, #0x1DC]
  02c88	e59f01c8	 ldr         r0, [pc, #0x1C8]
  02c8c	eb000000	 bl          NKDbgPrintfW
  02c90	e6000010	 __debugbreak_ce
  02c94	e3a03000	 mov         r3, #0
  02c98	e58d300c	 str         r3, [sp, #0xC]
  02c9c		 |$LN7@AreTransfe|

; 902  :     // this is also not a serious problem, but shouldn't happen in normal
; 903  :     // circumstances. It would indicate a logic error in the calling driver.
; 904  :     DEBUGCHK( !(pTransfer->lpStartAddress == NULL && pTransfer->lpvNotifyParameter != NULL) );

  02c9c	e59d3030	 ldr         r3, [sp, #0x30]
  02ca0	e5933000	 ldr         r3, [r3]
  02ca4	e3530000	 cmp         r3, #0
  02ca8	1a00000d	 bne         |$LN8@AreTransfe|
  02cac	e59d3030	 ldr         r3, [sp, #0x30]
  02cb0	e2833004	 add         r3, r3, #4
  02cb4	e5933000	 ldr         r3, [r3]
  02cb8	e3530000	 cmp         r3, #0
  02cbc	0a000008	 beq         |$LN8@AreTransfe|
  02cc0	e3a03fe2	 mov         r3, #0xE2, 30
  02cc4	e59f2194	 ldr         r2, [pc, #0x194]
  02cc8	e59f1198	 ldr         r1, [pc, #0x198]
  02ccc	e59f0184	 ldr         r0, [pc, #0x184]
  02cd0	eb000000	 bl          NKDbgPrintfW
  02cd4	e6000010	 __debugbreak_ce
  02cd8	e3a03000	 mov         r3, #0
  02cdc	e58d3010	 str         r3, [sp, #0x10]
  02ce0	ea000001	 b           |$LN9@AreTransfe|
  02ce4		 |$LN8@AreTransfe|
  02ce4	e3a03001	 mov         r3, #1
  02ce8	e58d3010	 str         r3, [sp, #0x10]
  02cec		 |$LN9@AreTransfe|

; 905  :     // DWORD                     pTransfer->dwStartingFrame (ignored - ISOCH)
; 906  :     // DWORD                     pTransfer->dwFrames (ignored - ISOCH)
; 907  : 
; 908  :     BOOL fValid = ( m_pPipeQHead!=NULL &&
; 909  :                     (pTransfer->lpvBuffer != NULL || pTransfer->dwBufferSize == 0) &&
; 910  :                     // paClientBuffer could be 0 or !0
; 911  :                     m_bDeviceAddress > 0 && m_bDeviceAddress <= USB_MAX_ADDRESS &&
; 912  :                     pTransfer->lpfComplete != NULL &&
; 913  :                     pTransfer->lpdwBytesTransferred != NULL &&
; 914  :                     pTransfer->lpdwError != NULL );

  02cec	e59d302c	 ldr         r3, [sp, #0x2C]
  02cf0	e2833064	 add         r3, r3, #0x64
  02cf4	e5933000	 ldr         r3, [r3]
  02cf8	e3530000	 cmp         r3, #0
  02cfc	0a000025	 beq         |$LN11@AreTransfe|
  02d00	e59d3030	 ldr         r3, [sp, #0x30]
  02d04	e2833020	 add         r3, r3, #0x20
  02d08	e5933000	 ldr         r3, [r3]
  02d0c	e3530000	 cmp         r3, #0
  02d10	1a000004	 bne         |$LN10@AreTransfe|
  02d14	e59d3030	 ldr         r3, [sp, #0x30]
  02d18	e283301c	 add         r3, r3, #0x1C
  02d1c	e5933000	 ldr         r3, [r3]
  02d20	e3530000	 cmp         r3, #0
  02d24	1a00001b	 bne         |$LN11@AreTransfe|
  02d28		 |$LN10@AreTransfe|
  02d28	e59d302c	 ldr         r3, [sp, #0x2C]
  02d2c	e283303b	 add         r3, r3, #0x3B
  02d30	e5d33000	 ldrb        r3, [r3]
  02d34	e3530000	 cmp         r3, #0
  02d38	da000016	 ble         |$LN11@AreTransfe|
  02d3c	e59d302c	 ldr         r3, [sp, #0x2C]
  02d40	e283303b	 add         r3, r3, #0x3B
  02d44	e5d33000	 ldrb        r3, [r3]
  02d48	e353007f	 cmp         r3, #0x7F
  02d4c	ca000011	 bgt         |$LN11@AreTransfe|
  02d50	e59d3030	 ldr         r3, [sp, #0x30]
  02d54	e2833034	 add         r3, r3, #0x34
  02d58	e5933000	 ldr         r3, [r3]
  02d5c	e3530000	 cmp         r3, #0
  02d60	0a00000c	 beq         |$LN11@AreTransfe|
  02d64	e59d3030	 ldr         r3, [sp, #0x30]
  02d68	e2833038	 add         r3, r3, #0x38
  02d6c	e5933000	 ldr         r3, [r3]
  02d70	e3530000	 cmp         r3, #0
  02d74	0a000007	 beq         |$LN11@AreTransfe|
  02d78	e59d3030	 ldr         r3, [sp, #0x30]
  02d7c	e283303c	 add         r3, r3, #0x3C
  02d80	e5933000	 ldr         r3, [r3]
  02d84	e3530000	 cmp         r3, #0
  02d88	0a000002	 beq         |$LN11@AreTransfe|
  02d8c	e3a03001	 mov         r3, #1
  02d90	e58d3014	 str         r3, [sp, #0x14]
  02d94	ea000001	 b           |$LN12@AreTransfe|
  02d98		 |$LN11@AreTransfe|
  02d98	e3a03000	 mov         r3, #0
  02d9c	e58d3014	 str         r3, [sp, #0x14]
  02da0		 |$LN12@AreTransfe|
  02da0	e59d3014	 ldr         r3, [sp, #0x14]
  02da4	e58d3000	 str         r3, [sp]

; 915  : 
; 916  :     DEBUGMSG( ZONE_TRANSFER && ZONE_VERBOSE && !fValid, (TEXT("%s: !CBulkPipe::AreTransferParametersValid, returning BOOL %d\n"),GetControllerName(), fValid) );

  02da8	e59f30b8	 ldr         r3, [pc, #0xB8]
  02dac	e5933440	 ldr         r3, [r3, #0x440]
  02db0	e3130c01	 tst         r3, #1, 24
  02db4	0a000010	 beq         |$LN13@AreTransfe|
  02db8	e59f30a8	 ldr         r3, [pc, #0xA8]
  02dbc	e5933440	 ldr         r3, [r3, #0x440]
  02dc0	e3130a01	 tst         r3, #1, 20
  02dc4	0a00000c	 beq         |$LN13@AreTransfe|
  02dc8	e59d3000	 ldr         r3, [sp]
  02dcc	e3530000	 cmp         r3, #0
  02dd0	1a000009	 bne         |$LN13@AreTransfe|
  02dd4	e59d002c	 ldr         r0, [sp, #0x2C]
  02dd8	eb000000	 bl          |?GetControllerName@CPipe@@QBAPBGXZ|
  02ddc	e58d0018	 str         r0, [sp, #0x18]
  02de0	e59d2000	 ldr         r2, [sp]
  02de4	e59d1018	 ldr         r1, [sp, #0x18]
  02de8	e59f0074	 ldr         r0, [pc, #0x74]
  02dec	eb000000	 bl          NKDbgPrintfW
  02df0	e3a03001	 mov         r3, #1
  02df4	e58d301c	 str         r3, [sp, #0x1C]
  02df8	ea000001	 b           |$LN14@AreTransfe|
  02dfc		 |$LN13@AreTransfe|
  02dfc	e3a03000	 mov         r3, #0
  02e00	e58d301c	 str         r3, [sp, #0x1C]
  02e04		 |$LN14@AreTransfe|

; 917  :     ASSERT(fValid);

  02e04	e59d3000	 ldr         r3, [sp]
  02e08	e3530000	 cmp         r3, #0
  02e0c	0a000002	 beq         |$LN15@AreTransfe|
  02e10	e3a03001	 mov         r3, #1
  02e14	e58d3020	 str         r3, [sp, #0x20]
  02e18	ea000008	 b           |$LN16@AreTransfe|
  02e1c		 |$LN15@AreTransfe|
  02e1c	e3a03c03	 mov         r3, #3, 24
  02e20	e3833095	 orr         r3, r3, #0x95
  02e24	e59f2034	 ldr         r2, [pc, #0x34]
  02e28	e59f102c	 ldr         r1, [pc, #0x2C]
  02e2c	e59f0024	 ldr         r0, [pc, #0x24]
  02e30	eb000000	 bl          NKDbgPrintfW
  02e34	e6000010	 __debugbreak_ce
  02e38	e3a03000	 mov         r3, #0
  02e3c	e58d3020	 str         r3, [sp, #0x20]
  02e40		 |$LN16@AreTransfe|

; 918  :     return fValid;

  02e40	e59d3000	 ldr         r3, [sp]
  02e44	e58d3004	 str         r3, [sp, #4]
  02e48		 |$LN2@AreTransfe|

; 919  : }

  02e48	e59d0004	 ldr         r0, [sp, #4]
  02e4c	e28dd024	 add         sp, sp, #0x24
  02e50	e89d6000	 ldmia       sp, {sp, lr}
  02e54	e12fff1e	 bx          lr
  02e58		 |$LN20@AreTransfe|
  02e58		 |$LN21@AreTransfe|
  02e58	00000000	 DCD         |??_C@_1FK@FNONLNGN@?$AA?$CF?$AAs?$AA?3?$AA?5?$AAD?$AAE?$AAB?$AAU?$AAG?$AAC?$AAH?$AAK?$AA?5?$AAf?$AAa?$AAi?$AAl?$AAe?$AAd?$AA?5?$AAi?$AAn?$AA?5?$AAf?$AAi?$AAl?$AAe?$AA?5?$AA?$CF?$AAs?$AA?5?$AAa@|
  02e5c		 |$LN22@AreTransfe|
  02e5c	00000000	 DCD         |??_C@_1BA@LEPJIIOK@?$AAU?$AAn?$AAk?$AAn?$AAo?$AAw?$AAn?$AA?$AA@|
  02e60		 |$LN23@AreTransfe|
  02e60	00000000	 DCD         |??_C@_1LK@LMPDOKKA@?$AAC?$AA?3?$AA?2?$AAW?$AAI?$AAN?$AAC?$AAE?$AA6?$AA0?$AA0?$AA?2?$AAP?$AAL?$AAA?$AAT?$AAF?$AAO?$AAR?$AAM?$AA?2?$AAC?$AAO?$AAM?$AAM?$AAO?$AAN?$AA?2?$AAS?$AAR?$AAC?$AA?2@|
  02e64		 |$LN24@AreTransfe|
  02e64	00000000	 DCD         |??_C@_1HO@BLKOFEEL@?$AA?$CF?$AAs?$AA?3?$AA?5?$AA?$CB?$AAC?$AAB?$AAu?$AAl?$AAk?$AAP?$AAi?$AAp?$AAe?$AA?3?$AA?3?$AAA?$AAr?$AAe?$AAT?$AAr?$AAa?$AAn?$AAs?$AAf?$AAe?$AAr?$AAP?$AAa?$AAr?$AAa?$AAm@|
  02e68		 |$LN25@AreTransfe|
  02e68	00000000	 DCD         |dpCurSettings|
  02e6c		 |$M38234|

			 ENDP  ; |?AreTransferParametersValid@CBulkPipe@@EBAHPBUSTRANSFER@@@Z|, CBulkPipe::AreTransferParametersValid

	EXPORT	|??_C@_1EC@BNNEOGKK@?$AA?$CF?$AAs?$AA?3?$AA?5?$AA?9?$AAC?$AAC?$AAo?$AAn?$AAt?$AAr?$AAo?$AAl?$AAP?$AAi?$AAp?$AAe?$AA?3?$AA?3?$AAC?$AAC?$AAo?$AAn?$AAt?$AAr?$AAo?$AAl?$AAP?$AAi?$AAp?$AAe?$AA?6@| [ DATA ] ; `string'
	EXPORT	|??_C@_1EC@HIDHMBIB@?$AA?$CF?$AAs?$AA?3?$AA?5?$AA?$CL?$AAC?$AAC?$AAo?$AAn?$AAt?$AAr?$AAo?$AAl?$AAP?$AAi?$AAp?$AAe?$AA?3?$AA?3?$AAC?$AAC?$AAo?$AAn?$AAt?$AAr?$AAo?$AAl?$AAP?$AAi?$AAp?$AAe?$AA?6@| [ DATA ] ; `string'
	EXPORT	|??_7CControlPipe@@6B@| [ DATA ]	; CControlPipe::`vftable'
	EXPORT	|??0CControlPipe@@QAA@QBU_USB_ENDPOINT_DESCRIPTOR@@HHEEEHQAVCMhcd@@@Z| ; CControlPipe::CControlPipe
	EXPORT	|?OpenPipe@CControlPipe@@UAA?AW4HCD_REQUEST_STATUS@@XZ| ; CControlPipe::OpenPipe
	EXPORT	|?ClosePipe@CControlPipe@@UAA?AW4HCD_REQUEST_STATUS@@XZ| ; CControlPipe::ClosePipe
	EXPORT	|?IssueTransfer@CControlPipe@@UAA?AW4HCD_REQUEST_STATUS@@EQ6AKPAX@ZQAXKQBXKKQBKK2K3QAK5QAH55@Z| ; CControlPipe::IssueTransfer
	EXPORT	|?ChangeMaxPacketSize@CControlPipe@@UAAXG@Z| ; CControlPipe::ChangeMaxPacketSize
	EXPORT	|?GetTransferType@CControlPipe@@UBA?BKXZ| ; CControlPipe::GetTransferType
	EXPORT	|?GetPipeType@CControlPipe@@UBAPBGXZ|	; CControlPipe::GetPipeType
	EXPORT	|?AreTransferParametersValid@CControlPipe@@EBAHPBUSTRANSFER@@@Z| ; CControlPipe::AreTransferParametersValid
	IMPORT	|??_ECControlPipe@@UAAPAXI@Z|, WEAK |??_GCControlPipe@@UAAPAXI@Z| ; CControlPipe::`vector deleting destructor', CControlPipe::`scalar deleting destructor'

  000c8			 AREA	 |.pdata|, PDATA
|$T38259| DCD	|$LN11@CControlPi|
	DCD	0x40006404

  00000			 AREA	 |.rdata|, DATA, READONLY
|??_C@_1EC@BNNEOGKK@?$AA?$CF?$AAs?$AA?3?$AA?5?$AA?9?$AAC?$AAC?$AAo?$AAn?$AAt?$AAr?$AAo?$AAl?$AAP?$AAi?$AAp?$AAe?$AA?3?$AA?3?$AAC?$AAC?$AAo?$AAn?$AAt?$AAr?$AAo?$AAl?$AAP?$AAi?$AAp?$AAe?$AA?6@| DCB "%"
	DCB	0x0, "s", 0x0, ":", 0x0, " ", 0x0, "-", 0x0, "C", 0x0, "C"
	DCB	0x0, "o", 0x0, "n", 0x0, "t", 0x0, "r", 0x0, "o", 0x0, "l"
	DCB	0x0, "P", 0x0, "i", 0x0, "p", 0x0, "e", 0x0, ":", 0x0, ":"
	DCB	0x0, "C", 0x0, "C", 0x0, "o", 0x0, "n", 0x0, "t", 0x0, "r"
	DCB	0x0, "o", 0x0, "l", 0x0, "P", 0x0, "i", 0x0, "p", 0x0, "e"
	DCB	0x0, 0xa, 0x0, 0x0, 0x0			; `string'

  00000			 AREA	 |.rdata|, DATA, READONLY
|??_C@_1EC@HIDHMBIB@?$AA?$CF?$AAs?$AA?3?$AA?5?$AA?$CL?$AAC?$AAC?$AAo?$AAn?$AAt?$AAr?$AAo?$AAl?$AAP?$AAi?$AAp?$AAe?$AA?3?$AA?3?$AAC?$AAC?$AAo?$AAn?$AAt?$AAr?$AAo?$AAl?$AAP?$AAi?$AAp?$AAe?$AA?6@| DCB "%"
	DCB	0x0, "s", 0x0, ":", 0x0, " ", 0x0, "+", 0x0, "C", 0x0, "C"
	DCB	0x0, "o", 0x0, "n", 0x0, "t", 0x0, "r", 0x0, "o", 0x0, "l"
	DCB	0x0, "P", 0x0, "i", 0x0, "p", 0x0, "e", 0x0, ":", 0x0, ":"
	DCB	0x0, "C", 0x0, "C", 0x0, "o", 0x0, "n", 0x0, "t", 0x0, "r"
	DCB	0x0, "o", 0x0, "l", 0x0, "P", 0x0, "i", 0x0, "p", 0x0, "e"
	DCB	0x0, 0xa, 0x0, 0x0, 0x0			; `string'

  00000			 AREA	 |.rdata|, DATA, READONLY
|??_7CControlPipe@@6B@| DCD |??_ECControlPipe@@UAAPAXI@Z| ; CControlPipe::`vftable'
	DCD	|?OpenPipe@CControlPipe@@UAA?AW4HCD_REQUEST_STATUS@@XZ|
	DCD	|?ClosePipe@CControlPipe@@UAA?AW4HCD_REQUEST_STATUS@@XZ|
	DCD	|?IssueTransfer@CControlPipe@@UAA?AW4HCD_REQUEST_STATUS@@EQ6AKPAX@ZQAXKQBXKKQBKK2K3QAK5QAH55@Z|
	DCD	|?AbortTransfer@CQueuedPipe@@UAA?AW4HCD_REQUEST_STATUS@@Q6AKPAX@ZQAXPBX@Z|
	DCD	|?IsPipeHalted@CPipe@@UAA?AW4HCD_REQUEST_STATUS@@QAH@Z|
	DCD	|?ClearHaltedFlag@CQueuedPipe@@UAAXXZ|
	DCD	|?ResetEndPoint@CPipe@@UAAXXZ|
	DCD	|?ChangeMaxPacketSize@CControlPipe@@UAAXG@Z|
	DCD	|?SetReservedDeviceAddr@CPipe@@UAAHE@Z|
	DCD	|?GetReservedDeviceAddr@CPipe@@UAAEXZ|
	DCD	|?GetCPhysMem@CPipe@@UAAPAVCPhysMem@@XZ|
	DCD	|?ScheduleTransfer@CQueuedPipe@@UAA?AW4HCD_REQUEST_STATUS@@XZ|
	DCD	|?CheckForDoneTransfers@CQueuedPipe@@UAAHXZ|
	DCD	|?ProcessEP@CQueuedPipe@@UAAHKH@Z|
	DCD	|?GetTransferType@CControlPipe@@UBA?BKXZ|
	DCD	|?GetPipeType@CControlPipe@@UBAPBGXZ|
	DCD	|?GetQHead@CQueuedPipe@@UAAPAVCQH@@XZ|
	DCD	|?AreTransferParametersValid@CControlPipe@@EBAHPBUSTRANSFER@@@Z|
; Function compile flags: /Odtp

  02e6c			 AREA	 |.text|, CODE, ARM

  02e6c		 |??0CControlPipe@@QAA@QBU_USB_ENDPOINT_DESCRIPTOR@@HHEEEHQAVCMhcd@@@Z| PROC ; CControlPipe::CControlPipe

; 938  : {

  02e6c		 |$LN11@CControlPi|
  02e6c	e1a0c00d	 mov         r12, sp
  02e70	e92d000f	 stmdb       sp!, {r0 - r3}
  02e74	e92d5000	 stmdb       sp!, {r12, lr}
  02e78	e24dd044	 sub         sp, sp, #0x44
  02e7c		 |$M38256|
  02e7c	e59d306c	 ldr         r3, [sp, #0x6C]
  02e80	e58d3010	 str         r3, [sp, #0x10]
  02e84	e59d3068	 ldr         r3, [sp, #0x68]
  02e88	e58d300c	 str         r3, [sp, #0xC]
  02e8c	e5dd3064	 ldrb        r3, [sp, #0x64]
  02e90	e58d3008	 str         r3, [sp, #8]
  02e94	e5dd3060	 ldrb        r3, [sp, #0x60]
  02e98	e58d3004	 str         r3, [sp, #4]
  02e9c	e5dd305c	 ldrb        r3, [sp, #0x5C]
  02ea0	e58d3000	 str         r3, [sp]
  02ea4	e59d3058	 ldr         r3, [sp, #0x58]
  02ea8	e59d2054	 ldr         r2, [sp, #0x54]
  02eac	e59d1050	 ldr         r1, [sp, #0x50]
  02eb0	e59d004c	 ldr         r0, [sp, #0x4C]
  02eb4	eb000000	 bl          |??0CQueuedPipe@@QAA@QBU_USB_ENDPOINT_DESCRIPTOR@@HHEEEHQAVCMhcd@@@Z|
  02eb8	e58d002c	 str         r0, [sp, #0x2C]
  02ebc	e59f2134	 ldr         r2, [pc, #0x134]
  02ec0	e59d304c	 ldr         r3, [sp, #0x4C]
  02ec4	e5832000	 str         r2, [r3]

; 939  :     DEBUGMSG( ZONE_PIPE && ZONE_VERBOSE, (TEXT("%s: +CControlPipe::CControlPipe\n"),GetControllerName()) );

  02ec8	e59f3118	 ldr         r3, [pc, #0x118]
  02ecc	e5933440	 ldr         r3, [r3, #0x440]
  02ed0	e3130080	 tst         r3, #0x80
  02ed4	0a00000c	 beq         |$LN3@CControlPi|
  02ed8	e59f3108	 ldr         r3, [pc, #0x108]
  02edc	e5933440	 ldr         r3, [r3, #0x440]
  02ee0	e3130a01	 tst         r3, #1, 20
  02ee4	0a000008	 beq         |$LN3@CControlPi|
  02ee8	e59d004c	 ldr         r0, [sp, #0x4C]
  02eec	eb000000	 bl          |?GetControllerName@CPipe@@QBAPBGXZ|
  02ef0	e58d0030	 str         r0, [sp, #0x30]
  02ef4	e59d1030	 ldr         r1, [sp, #0x30]
  02ef8	e59f00f4	 ldr         r0, [pc, #0xF4]
  02efc	eb000000	 bl          NKDbgPrintfW
  02f00	e3a03001	 mov         r3, #1
  02f04	e58d3034	 str         r3, [sp, #0x34]
  02f08	ea000001	 b           |$LN4@CControlPi|
  02f0c		 |$LN3@CControlPi|
  02f0c	e3a03000	 mov         r3, #0
  02f10	e58d3034	 str         r3, [sp, #0x34]
  02f14		 |$LN4@CControlPi|

; 940  :     DEBUGCHK( m_usbEndpointDescriptor.bDescriptorType == USB_ENDPOINT_DESCRIPTOR_TYPE &&
; 941  :               m_usbEndpointDescriptor.bLength >= sizeof( USB_ENDPOINT_DESCRIPTOR ) &&
; 942  :               (m_usbEndpointDescriptor.bmAttributes & USB_ENDPOINT_TYPE_MASK) == USB_ENDPOINT_TYPE_CONTROL );

  02f14	e59d304c	 ldr         r3, [sp, #0x4C]
  02f18	e2833035	 add         r3, r3, #0x35
  02f1c	e5d33000	 ldrb        r3, [r3]
  02f20	e3530005	 cmp         r3, #5
  02f24	1a00000c	 bne         |$LN5@CControlPi|
  02f28	e59d304c	 ldr         r3, [sp, #0x4C]
  02f2c	e2833034	 add         r3, r3, #0x34
  02f30	e5d33000	 ldrb        r3, [r3]
  02f34	e3530007	 cmp         r3, #7
  02f38	3a000007	 bcc         |$LN5@CControlPi|
  02f3c	e59d304c	 ldr         r3, [sp, #0x4C]
  02f40	e2833037	 add         r3, r3, #0x37
  02f44	e5d33000	 ldrb        r3, [r3]
  02f48	e3130003	 tst         r3, #3
  02f4c	1a000002	 bne         |$LN5@CControlPi|
  02f50	e3a03001	 mov         r3, #1
  02f54	e58d3038	 str         r3, [sp, #0x38]
  02f58	ea000008	 b           |$LN6@CControlPi|
  02f5c		 |$LN5@CControlPi|
  02f5c	e3a03c03	 mov         r3, #3, 24
  02f60	e38330ae	 orr         r3, r3, #0xAE
  02f64	e59f2084	 ldr         r2, [pc, #0x84]
  02f68	e59f1078	 ldr         r1, [pc, #0x78]
  02f6c	e59f0078	 ldr         r0, [pc, #0x78]
  02f70	eb000000	 bl          NKDbgPrintfW
  02f74	e6000010	 __debugbreak_ce
  02f78	e3a03000	 mov         r3, #0
  02f7c	e58d3038	 str         r3, [sp, #0x38]
  02f80		 |$LN6@CControlPi|

; 943  : 
; 944  :     DEBUGMSG( ZONE_PIPE && ZONE_VERBOSE, (TEXT("%s: -CControlPipe::CControlPipe\n"),GetControllerName()) );

  02f80	e59f3060	 ldr         r3, [pc, #0x60]
  02f84	e5933440	 ldr         r3, [r3, #0x440]
  02f88	e3130080	 tst         r3, #0x80
  02f8c	0a00000c	 beq         |$LN7@CControlPi|
  02f90	e59f3050	 ldr         r3, [pc, #0x50]
  02f94	e5933440	 ldr         r3, [r3, #0x440]
  02f98	e3130a01	 tst         r3, #1, 20
  02f9c	0a000008	 beq         |$LN7@CControlPi|
  02fa0	e59d004c	 ldr         r0, [sp, #0x4C]
  02fa4	eb000000	 bl          |?GetControllerName@CPipe@@QBAPBGXZ|
  02fa8	e58d003c	 str         r0, [sp, #0x3C]
  02fac	e59d103c	 ldr         r1, [sp, #0x3C]
  02fb0	e59f002c	 ldr         r0, [pc, #0x2C]
  02fb4	eb000000	 bl          NKDbgPrintfW
  02fb8	e3a03001	 mov         r3, #1
  02fbc	e58d3040	 str         r3, [sp, #0x40]
  02fc0	ea000001	 b           |$LN8@CControlPi|
  02fc4		 |$LN7@CControlPi|
  02fc4	e3a03000	 mov         r3, #0
  02fc8	e58d3040	 str         r3, [sp, #0x40]
  02fcc		 |$LN8@CControlPi|

; 945  : }

  02fcc	e59d304c	 ldr         r3, [sp, #0x4C]
  02fd0	e58d3028	 str         r3, [sp, #0x28]
  02fd4	e59d0028	 ldr         r0, [sp, #0x28]
  02fd8	e28dd044	 add         sp, sp, #0x44
  02fdc	e89d6000	 ldmia       sp, {sp, lr}
  02fe0	e12fff1e	 bx          lr
  02fe4		 |$LN12@CControlPi|
  02fe4		 |$LN13@CControlPi|
  02fe4	00000000	 DCD         |??_C@_1EC@BNNEOGKK@?$AA?$CF?$AAs?$AA?3?$AA?5?$AA?9?$AAC?$AAC?$AAo?$AAn?$AAt?$AAr?$AAo?$AAl?$AAP?$AAi?$AAp?$AAe?$AA?3?$AA?3?$AAC?$AAC?$AAo?$AAn?$AAt?$AAr?$AAo?$AAl?$AAP?$AAi?$AAp?$AAe?$AA?6@|
  02fe8		 |$LN14@CControlPi|
  02fe8	00000000	 DCD         |dpCurSettings|
  02fec		 |$LN15@CControlPi|
  02fec	00000000	 DCD         |??_C@_1FK@FNONLNGN@?$AA?$CF?$AAs?$AA?3?$AA?5?$AAD?$AAE?$AAB?$AAU?$AAG?$AAC?$AAH?$AAK?$AA?5?$AAf?$AAa?$AAi?$AAl?$AAe?$AAd?$AA?5?$AAi?$AAn?$AA?5?$AAf?$AAi?$AAl?$AAe?$AA?5?$AA?$CF?$AAs?$AA?5?$AAa@|
  02ff0		 |$LN16@CControlPi|
  02ff0	00000000	 DCD         |??_C@_1LK@LMPDOKKA@?$AAC?$AA?3?$AA?2?$AAW?$AAI?$AAN?$AAC?$AAE?$AA6?$AA0?$AA0?$AA?2?$AAP?$AAL?$AAA?$AAT?$AAF?$AAO?$AAR?$AAM?$AA?2?$AAC?$AAO?$AAM?$AAM?$AAO?$AAN?$AA?2?$AAS?$AAR?$AAC?$AA?2@|
  02ff4		 |$LN17@CControlPi|
  02ff4	00000000	 DCD         |??_C@_1EC@HIDHMBIB@?$AA?$CF?$AAs?$AA?3?$AA?5?$AA?$CL?$AAC?$AAC?$AAo?$AAn?$AAt?$AAr?$AAo?$AAl?$AAP?$AAi?$AAp?$AAe?$AA?3?$AA?3?$AAC?$AAC?$AAo?$AAn?$AAt?$AAr?$AAo?$AAl?$AAP?$AAi?$AAp?$AAe?$AA?6@|
  02ff8		 |$LN18@CControlPi|
  02ff8	00000000	 DCD         |??_7CControlPipe@@6B@|
  02ffc		 |$M38257|

			 ENDP  ; |??0CControlPipe@@QAA@QBU_USB_ENDPOINT_DESCRIPTOR@@HHEEEHQAVCMhcd@@@Z|, CControlPipe::CControlPipe

; File c:\wince600\platform\common\src\soc\common_ti_v1\omap3530\musb\musbhcd\musbmhdrc\cpipe.h

  00000			 AREA	 |.pdata|, PDATA
|$T38272| DCD	|$LN5@GetTransfe@4|
	DCD	0x40000a04
; Function compile flags: /Odtp

  00000			 AREA	 |.text|, CODE, ARM

  00000		 |?GetTransferType@CControlPipe@@UBA?BKXZ| PROC ; CControlPipe::GetTransferType

; 302  :     {

  00000		 |$LN5@GetTransfe@4|
  00000	e1a0c00d	 mov         r12, sp
  00004	e92d0001	 stmdb       sp!, {r0}
  00008	e92d5000	 stmdb       sp!, {r12, lr}
  0000c	e24dd004	 sub         sp, sp, #4
  00010		 |$M38269|

; 303  :         return USB_ENDPOINT_TYPE_CONTROL;

  00010	e3a03000	 mov         r3, #0
  00014	e58d3000	 str         r3, [sp]

; 304  :     }

  00018	e59d0000	 ldr         r0, [sp]
  0001c	e28dd004	 add         sp, sp, #4
  00020	e89d6000	 ldmia       sp, {sp, lr}
  00024	e12fff1e	 bx          lr
  00028		 |$M38270|

			 ENDP  ; |?GetTransferType@CControlPipe@@UBA?BKXZ|, CControlPipe::GetTransferType

	EXPORT	|??_C@_1BA@JGFNDEFA@?$AAC?$AAo?$AAn?$AAt?$AAr?$AAo?$AAl?$AA?$AA@| [ DATA ] ; `string'

  00000			 AREA	 |.pdata|, PDATA
|$T38280| DCD	|$LN5@GetPipeTyp@2|
	DCD	0x40000b04

  00000			 AREA	 |.rdata|, DATA, READONLY
|??_C@_1BA@JGFNDEFA@?$AAC?$AAo?$AAn?$AAt?$AAr?$AAo?$AAl?$AA?$AA@| DCB "C", 0x0
	DCB	"o", 0x0, "n", 0x0, "t", 0x0, "r", 0x0, "o", 0x0, "l", 0x0
	DCB	0x0, 0x0				; `string'
; Function compile flags: /Odtp

  00000			 AREA	 |.text|, CODE, ARM

  00000		 |?GetPipeType@CControlPipe@@UBAPBGXZ| PROC ; CControlPipe::GetPipeType

; 308  :     {

  00000		 |$LN5@GetPipeTyp@2|
  00000	e1a0c00d	 mov         r12, sp
  00004	e92d0001	 stmdb       sp!, {r0}
  00008	e92d5000	 stmdb       sp!, {r12, lr}
  0000c	e24dd004	 sub         sp, sp, #4
  00010		 |$M38277|

; 309  :         return TEXT("Control");

  00010	e59f3010	 ldr         r3, [pc, #0x10]
  00014	e58d3000	 str         r3, [sp]

; 310  :     }

  00018	e59d0000	 ldr         r0, [sp]
  0001c	e28dd004	 add         sp, sp, #4
  00020	e89d6000	 ldmia       sp, {sp, lr}
  00024	e12fff1e	 bx          lr
  00028		 |$LN6@GetPipeTyp@2|
  00028		 |$LN7@GetPipeTyp@2|
  00028	00000000	 DCD         |??_C@_1BA@JGFNDEFA@?$AAC?$AAo?$AAn?$AAt?$AAr?$AAo?$AAl?$AA?$AA@|
  0002c		 |$M38278|

			 ENDP  ; |?GetPipeType@CControlPipe@@UBAPBGXZ|, CControlPipe::GetPipeType

	EXPORT	|??1CControlPipe@@UAA@XZ|		; CControlPipe::~CControlPipe

  00000			 AREA	 |.pdata|, PDATA
|$T38290| DCD	|$LN6@scalar@7|
	DCD	0x40001104
; Function compile flags: /Odtp

  00000			 AREA	 |.text|, CODE, ARM

  00000		 |??_GCControlPipe@@UAAPAXI@Z| PROC	; CControlPipe::`scalar deleting destructor'
  00000		 |$LN6@scalar@7|
  00000	e1a0c00d	 mov         r12, sp
  00004	e92d0003	 stmdb       sp!, {r0, r1}
  00008	e92d5000	 stmdb       sp!, {r12, lr}
  0000c	e24dd004	 sub         sp, sp, #4
  00010		 |$M38287|
  00010	e59d000c	 ldr         r0, [sp, #0xC]
  00014	eb000000	 bl          |??1CControlPipe@@UAA@XZ|
  00018	e59d3010	 ldr         r3, [sp, #0x10]
  0001c	e3130001	 tst         r3, #1
  00020	0a000001	 beq         |$LN1@scalar@7|
  00024	e59d000c	 ldr         r0, [sp, #0xC]
  00028	eb000000	 bl          |??3@YAXPAX@Z|
  0002c		 |$LN1@scalar@7|
  0002c	e59d300c	 ldr         r3, [sp, #0xC]
  00030	e58d3000	 str         r3, [sp]
  00034	e59d0000	 ldr         r0, [sp]
  00038	e28dd004	 add         sp, sp, #4
  0003c	e89d6000	 ldmia       sp, {sp, lr}
  00040	e12fff1e	 bx          lr
  00044		 |$M38288|

			 ENDP  ; |??_GCControlPipe@@UAAPAXI@Z|, CControlPipe::`scalar deleting destructor'

	EXPORT	|??_C@_1EE@DHDGFLLO@?$AA?$CF?$AAs?$AA?3?$AA?5?$AA?9?$AAC?$AAC?$AAo?$AAn?$AAt?$AAr?$AAo?$AAl?$AAP?$AAi?$AAp?$AAe?$AA?3?$AA?3?$AA?$HO?$AAC?$AAC?$AAo?$AAn?$AAt?$AAr?$AAo?$AAl?$AAP?$AAi?$AAp?$AAe@| [ DATA ] ; `string'
	EXPORT	|??_C@_1EE@OEEMHGFP@?$AA?$CF?$AAs?$AA?3?$AA?5?$AA?$CL?$AAC?$AAC?$AAo?$AAn?$AAt?$AAr?$AAo?$AAl?$AAP?$AAi?$AAp?$AAe?$AA?3?$AA?3?$AA?$HO?$AAC?$AAC?$AAo?$AAn?$AAt?$AAr?$AAo?$AAl?$AAP?$AAi?$AAp?$AAe@| [ DATA ] ; `string'

  000d0			 AREA	 |.pdata|, PDATA
|$T38301| DCD	|$LN9@CControlPi@2|
	DCD	0x40003804
; File c:\wince600\platform\common\src\soc\common_ti_v1\omap3530\musb\musbhcd\musbmhdrc\cpipe.cpp

  00000			 AREA	 |.rdata|, DATA, READONLY
|??_C@_1EE@DHDGFLLO@?$AA?$CF?$AAs?$AA?3?$AA?5?$AA?9?$AAC?$AAC?$AAo?$AAn?$AAt?$AAr?$AAo?$AAl?$AAP?$AAi?$AAp?$AAe?$AA?3?$AA?3?$AA?$HO?$AAC?$AAC?$AAo?$AAn?$AAt?$AAr?$AAo?$AAl?$AAP?$AAi?$AAp?$AAe@| DCB "%"
	DCB	0x0, "s", 0x0, ":", 0x0, " ", 0x0, "-", 0x0, "C", 0x0, "C"
	DCB	0x0, "o", 0x0, "n", 0x0, "t", 0x0, "r", 0x0, "o", 0x0, "l"
	DCB	0x0, "P", 0x0, "i", 0x0, "p", 0x0, "e", 0x0, ":", 0x0, ":"
	DCB	0x0, "~", 0x0, "C", 0x0, "C", 0x0, "o", 0x0, "n", 0x0, "t"
	DCB	0x0, "r", 0x0, "o", 0x0, "l", 0x0, "P", 0x0, "i", 0x0, "p"
	DCB	0x0, "e", 0x0, 0xa, 0x0, 0x0, 0x0	; `string'

  00000			 AREA	 |.rdata|, DATA, READONLY
|??_C@_1EE@OEEMHGFP@?$AA?$CF?$AAs?$AA?3?$AA?5?$AA?$CL?$AAC?$AAC?$AAo?$AAn?$AAt?$AAr?$AAo?$AAl?$AAP?$AAi?$AAp?$AAe?$AA?3?$AA?3?$AA?$HO?$AAC?$AAC?$AAo?$AAn?$AAt?$AAr?$AAo?$AAl?$AAP?$AAi?$AAp?$AAe@| DCB "%"
	DCB	0x0, "s", 0x0, ":", 0x0, " ", 0x0, "+", 0x0, "C", 0x0, "C"
	DCB	0x0, "o", 0x0, "n", 0x0, "t", 0x0, "r", 0x0, "o", 0x0, "l"
	DCB	0x0, "P", 0x0, "i", 0x0, "p", 0x0, "e", 0x0, ":", 0x0, ":"
	DCB	0x0, "~", 0x0, "C", 0x0, "C", 0x0, "o", 0x0, "n", 0x0, "t"
	DCB	0x0, "r", 0x0, "o", 0x0, "l", 0x0, "P", 0x0, "i", 0x0, "p"
	DCB	0x0, "e", 0x0, 0xa, 0x0, 0x0, 0x0	; `string'
; Function compile flags: /Odtp

  02ffc			 AREA	 |.text|, CODE, ARM

  02ffc		 |??1CControlPipe@@UAA@XZ| PROC		; CControlPipe::~CControlPipe

; 959  : {

  02ffc		 |$LN9@CControlPi@2|
  02ffc	e1a0c00d	 mov         r12, sp
  03000	e92d0001	 stmdb       sp!, {r0}
  03004	e92d5000	 stmdb       sp!, {r12, lr}
  03008	e24dd010	 sub         sp, sp, #0x10
  0300c		 |$M38298|
  0300c	e59f20c4	 ldr         r2, [pc, #0xC4]
  03010	e59d3018	 ldr         r3, [sp, #0x18]
  03014	e5832000	 str         r2, [r3]

; 960  :     DEBUGMSG( ZONE_PIPE && ZONE_VERBOSE, (TEXT("%s: +CControlPipe::~CControlPipe\n"),GetControllerName()) );

  03018	e59f30b0	 ldr         r3, [pc, #0xB0]
  0301c	e5933440	 ldr         r3, [r3, #0x440]
  03020	e3130080	 tst         r3, #0x80
  03024	0a00000c	 beq         |$LN3@CControlPi@2|
  03028	e59f30a0	 ldr         r3, [pc, #0xA0]
  0302c	e5933440	 ldr         r3, [r3, #0x440]
  03030	e3130a01	 tst         r3, #1, 20
  03034	0a000008	 beq         |$LN3@CControlPi@2|
  03038	e59d0018	 ldr         r0, [sp, #0x18]
  0303c	eb000000	 bl          |?GetControllerName@CPipe@@QBAPBGXZ|
  03040	e58d0000	 str         r0, [sp]
  03044	e59d1000	 ldr         r1, [sp]
  03048	e59f0084	 ldr         r0, [pc, #0x84]
  0304c	eb000000	 bl          NKDbgPrintfW
  03050	e3a03001	 mov         r3, #1
  03054	e58d3004	 str         r3, [sp, #4]
  03058	ea000001	 b           |$LN4@CControlPi@2|
  0305c		 |$LN3@CControlPi@2|
  0305c	e3a03000	 mov         r3, #0
  03060	e58d3004	 str         r3, [sp, #4]
  03064		 |$LN4@CControlPi@2|

; 961  :     ClosePipe();

  03064	e59d0018	 ldr         r0, [sp, #0x18]
  03068	eb000000	 bl          |?ClosePipe@CControlPipe@@UAA?AW4HCD_REQUEST_STATUS@@XZ|

; 962  :     DEBUGMSG( ZONE_PIPE && ZONE_VERBOSE, (TEXT("%s: -CControlPipe::~CControlPipe\n"),GetControllerName()) );

  0306c	e59f305c	 ldr         r3, [pc, #0x5C]
  03070	e5933440	 ldr         r3, [r3, #0x440]
  03074	e3130080	 tst         r3, #0x80
  03078	0a00000c	 beq         |$LN5@CControlPi@2|
  0307c	e59f304c	 ldr         r3, [pc, #0x4C]
  03080	e5933440	 ldr         r3, [r3, #0x440]
  03084	e3130a01	 tst         r3, #1, 20
  03088	0a000008	 beq         |$LN5@CControlPi@2|
  0308c	e59d0018	 ldr         r0, [sp, #0x18]
  03090	eb000000	 bl          |?GetControllerName@CPipe@@QBAPBGXZ|
  03094	e58d0008	 str         r0, [sp, #8]
  03098	e59d1008	 ldr         r1, [sp, #8]
  0309c	e59f0028	 ldr         r0, [pc, #0x28]
  030a0	eb000000	 bl          NKDbgPrintfW
  030a4	e3a03001	 mov         r3, #1
  030a8	e58d300c	 str         r3, [sp, #0xC]
  030ac	ea000001	 b           |$LN6@CControlPi@2|
  030b0		 |$LN5@CControlPi@2|
  030b0	e3a03000	 mov         r3, #0
  030b4	e58d300c	 str         r3, [sp, #0xC]
  030b8		 |$LN6@CControlPi@2|

; 963  : }

  030b8	e59d0018	 ldr         r0, [sp, #0x18]
  030bc	eb000000	 bl          |??1CQueuedPipe@@UAA@XZ|
  030c0	e28dd010	 add         sp, sp, #0x10
  030c4	e89d6000	 ldmia       sp, {sp, lr}
  030c8	e12fff1e	 bx          lr
  030cc		 |$LN10@CControlPi@2|
  030cc		 |$LN11@CControlPi@2|
  030cc	00000000	 DCD         |??_C@_1EE@DHDGFLLO@?$AA?$CF?$AAs?$AA?3?$AA?5?$AA?9?$AAC?$AAC?$AAo?$AAn?$AAt?$AAr?$AAo?$AAl?$AAP?$AAi?$AAp?$AAe?$AA?3?$AA?3?$AA?$HO?$AAC?$AAC?$AAo?$AAn?$AAt?$AAr?$AAo?$AAl?$AAP?$AAi?$AAp?$AAe@|
  030d0		 |$LN12@CControlPi@2|
  030d0	00000000	 DCD         |dpCurSettings|
  030d4		 |$LN13@CControlPi@2|
  030d4	00000000	 DCD         |??_C@_1EE@OEEMHGFP@?$AA?$CF?$AAs?$AA?3?$AA?5?$AA?$CL?$AAC?$AAC?$AAo?$AAn?$AAt?$AAr?$AAo?$AAl?$AAP?$AAi?$AAp?$AAe?$AA?3?$AA?3?$AA?$HO?$AAC?$AAC?$AAo?$AAn?$AAt?$AAr?$AAo?$AAl?$AAP?$AAi?$AAp?$AAe@|
  030d8		 |$LN14@CControlPi@2|
  030d8	00000000	 DCD         |??_7CControlPipe@@6B@|
  030dc		 |$M38299|

			 ENDP  ; |??1CControlPipe@@UAA@XZ|, CControlPipe::~CControlPipe

	EXPORT	|??_C@_1DC@GHHCAGFM@?$AA?9?$AAC?$AAC?$AAo?$AAn?$AAt?$AAr?$AAo?$AAl?$AAP?$AAi?$AAp?$AAe?$AA?3?$AA?3?$AAO?$AAp?$AAe?$AAn?$AAP?$AAi?$AAp?$AAe?$AA?6?$AA?$AA@| [ DATA ] ; `string'
	EXPORT	|??_C@_1DK@BIELDHLA@?$AA?$CF?$AAs?$AA?3?$AA?5?$AA?$CL?$AAC?$AAC?$AAo?$AAn?$AAt?$AAr?$AAo?$AAl?$AAP?$AAi?$AAp?$AAe?$AA?3?$AA?3?$AAO?$AAp?$AAe?$AAn?$AAP?$AAi?$AAp?$AAe?$AA?6?$AA?$AA@| [ DATA ] ; `string'

  000d8			 AREA	 |.pdata|, PDATA
|$T38329| DCD	|$LN25@OpenPipe@2|
	DCD	0x4000b704

  00000			 AREA	 |.rdata|, DATA, READONLY
|??_C@_1DC@GHHCAGFM@?$AA?9?$AAC?$AAC?$AAo?$AAn?$AAt?$AAr?$AAo?$AAl?$AAP?$AAi?$AAp?$AAe?$AA?3?$AA?3?$AAO?$AAp?$AAe?$AAn?$AAP?$AAi?$AAp?$AAe?$AA?6?$AA?$AA@| DCB "-"
	DCB	0x0, "C", 0x0, "C", 0x0, "o", 0x0, "n", 0x0, "t", 0x0, "r"
	DCB	0x0, "o", 0x0, "l", 0x0, "P", 0x0, "i", 0x0, "p", 0x0, "e"
	DCB	0x0, ":", 0x0, ":", 0x0, "O", 0x0, "p", 0x0, "e", 0x0, "n"
	DCB	0x0, "P", 0x0, "i", 0x0, "p", 0x0, "e", 0x0, 0xa, 0x0, 0x0
	DCB	0x0					; `string'

  00000			 AREA	 |.rdata|, DATA, READONLY
|??_C@_1DK@BIELDHLA@?$AA?$CF?$AAs?$AA?3?$AA?5?$AA?$CL?$AAC?$AAC?$AAo?$AAn?$AAt?$AAr?$AAo?$AAl?$AAP?$AAi?$AAp?$AAe?$AA?3?$AA?3?$AAO?$AAp?$AAe?$AAn?$AAP?$AAi?$AAp?$AAe?$AA?6?$AA?$AA@| DCB "%"
	DCB	0x0, "s", 0x0, ":", 0x0, " ", 0x0, "+", 0x0, "C", 0x0, "C"
	DCB	0x0, "o", 0x0, "n", 0x0, "t", 0x0, "r", 0x0, "o", 0x0, "l"
	DCB	0x0, "P", 0x0, "i", 0x0, "p", 0x0, "e", 0x0, ":", 0x0, ":"
	DCB	0x0, "O", 0x0, "p", 0x0, "e", 0x0, "n", 0x0, "P", 0x0, "i"
	DCB	0x0, "p", 0x0, "e", 0x0, 0xa, 0x0, 0x0, 0x0 ; `string'
; Function compile flags: /Odtp

  030dc			 AREA	 |.text|, CODE, ARM

  030dc		 |?OpenPipe@CControlPipe@@UAA?AW4HCD_REQUEST_STATUS@@XZ| PROC ; CControlPipe::OpenPipe

; 980  : {

  030dc		 |$LN25@OpenPipe@2|
  030dc	e1a0c00d	 mov         r12, sp
  030e0	e92d0001	 stmdb       sp!, {r0}
  030e4	e92d5000	 stmdb       sp!, {r12, lr}
  030e8	e24dd040	 sub         sp, sp, #0x40
  030ec		 |$M38326|

; 981  :     DEBUGMSG( ZONE_PIPE, (TEXT("%s: +CControlPipe::OpenPipe\n"),GetControllerName() ) );

  030ec	e59f32b0	 ldr         r3, [pc, #0x2B0]
  030f0	e5933440	 ldr         r3, [r3, #0x440]
  030f4	e3130080	 tst         r3, #0x80
  030f8	0a000008	 beq         |$LN7@OpenPipe@2|
  030fc	e59d0048	 ldr         r0, [sp, #0x48]
  03100	eb000000	 bl          |?GetControllerName@CPipe@@QBAPBGXZ|
  03104	e58d0010	 str         r0, [sp, #0x10]
  03108	e59d1010	 ldr         r1, [sp, #0x10]
  0310c	e59f02a0	 ldr         r0, [pc, #0x2A0]
  03110	eb000000	 bl          NKDbgPrintfW
  03114	e3a03001	 mov         r3, #1
  03118	e58d3014	 str         r3, [sp, #0x14]
  0311c	ea000001	 b           |$LN8@OpenPipe@2|
  03120		 |$LN7@OpenPipe@2|
  03120	e3a03000	 mov         r3, #0
  03124	e58d3014	 str         r3, [sp, #0x14]
  03128		 |$LN8@OpenPipe@2|

; 982  :     HCD_REQUEST_STATUS status = requestFailed;

  03128	e3a03000	 mov         r3, #0
  0312c	e58d3000	 str         r3, [sp]

; 983  :     m_pUnQueuedTransfer=NULL;      // ptr to last transfer in queue

  03130	e59d3048	 ldr         r3, [sp, #0x48]
  03134	e2832068	 add         r2, r3, #0x68
  03138	e3a03000	 mov         r3, #0
  0313c	e5823000	 str         r3, [r2]

; 984  :     m_pQueuedTransfer=NULL;

  03140	e59d3048	 ldr         r3, [sp, #0x48]
  03144	e283206c	 add         r2, r3, #0x6C
  03148	e3a03000	 mov         r3, #0
  0314c	e5823000	 str         r3, [r2]

; 985  :     PREFAST_DEBUGCHK( m_pCMhcd!=NULL );

  03150	e59d3048	 ldr         r3, [sp, #0x48]
  03154	e283300c	 add         r3, r3, #0xC
  03158	e5933000	 ldr         r3, [r3]
  0315c	e3530000	 cmp         r3, #0
  03160	0a000002	 beq         |$LN9@OpenPipe@2|
  03164	e3a03001	 mov         r3, #1
  03168	e58d3018	 str         r3, [sp, #0x18]
  0316c	ea000008	 b           |$LN10@OpenPipe@2|
  03170		 |$LN9@OpenPipe@2|
  03170	e3a03c03	 mov         r3, #3, 24
  03174	e38330d9	 orr         r3, r3, #0xD9
  03178	e59f2230	 ldr         r2, [pc, #0x230]
  0317c	e59f1220	 ldr         r1, [pc, #0x220]
  03180	e59f0220	 ldr         r0, [pc, #0x220]
  03184	eb000000	 bl          NKDbgPrintfW
  03188	e6000010	 __debugbreak_ce
  0318c	e3a03000	 mov         r3, #0
  03190	e58d3018	 str         r3, [sp, #0x18]
  03194		 |$LN10@OpenPipe@2|

; 986  :     EnterCriticalSection( &m_csPipeLock );

  03194	e59d3048	 ldr         r3, [sp, #0x48]
  03198	e2830020	 add         r0, r3, #0x20
  0319c	eb000000	 bl          EnterCriticalSection

; 987  :     // if this fails, someone is trying to open
; 988  :     // an already opened pipe
; 989  :     DEBUGCHK( m_pPipeQHead  == NULL );

  031a0	e59d3048	 ldr         r3, [sp, #0x48]
  031a4	e2833064	 add         r3, r3, #0x64
  031a8	e5933000	 ldr         r3, [r3]
  031ac	e3530000	 cmp         r3, #0
  031b0	1a000002	 bne         |$LN11@OpenPipe@2|
  031b4	e3a03001	 mov         r3, #1
  031b8	e58d301c	 str         r3, [sp, #0x1C]
  031bc	ea000008	 b           |$LN12@OpenPipe@2|
  031c0		 |$LN11@OpenPipe@2|
  031c0	e3a03c03	 mov         r3, #3, 24
  031c4	e38330dd	 orr         r3, r3, #0xDD
  031c8	e59f21e0	 ldr         r2, [pc, #0x1E0]
  031cc	e59f11d0	 ldr         r1, [pc, #0x1D0]
  031d0	e59f01d0	 ldr         r0, [pc, #0x1D0]
  031d4	eb000000	 bl          NKDbgPrintfW
  031d8	e6000010	 __debugbreak_ce
  031dc	e3a03000	 mov         r3, #0
  031e0	e58d301c	 str         r3, [sp, #0x1C]
  031e4		 |$LN12@OpenPipe@2|

; 990  :     ASSERT(m_pCMhcd !=NULL);

  031e4	e59d3048	 ldr         r3, [sp, #0x48]
  031e8	e283300c	 add         r3, r3, #0xC
  031ec	e5933000	 ldr         r3, [r3]
  031f0	e3530000	 cmp         r3, #0
  031f4	0a000002	 beq         |$LN13@OpenPipe@2|
  031f8	e3a03001	 mov         r3, #1
  031fc	e58d3020	 str         r3, [sp, #0x20]
  03200	ea000008	 b           |$LN14@OpenPipe@2|
  03204		 |$LN13@OpenPipe@2|
  03204	e3a03c03	 mov         r3, #3, 24
  03208	e38330de	 orr         r3, r3, #0xDE
  0320c	e59f219c	 ldr         r2, [pc, #0x19C]
  03210	e59f1194	 ldr         r1, [pc, #0x194]
  03214	e59f018c	 ldr         r0, [pc, #0x18C]
  03218	eb000000	 bl          NKDbgPrintfW
  0321c	e6000010	 __debugbreak_ce
  03220	e3a03000	 mov         r3, #0
  03224	e58d3020	 str         r3, [sp, #0x20]
  03228		 |$LN14@OpenPipe@2|

; 991  :     // if this fails, we have a low speed Bulk device
; 992  :     // which is not allowed by the UHCI spec (sec 1.3)
; 993  :     if (m_pPipeQHead == NULL ) {

  03228	e59d3048	 ldr         r3, [sp, #0x48]
  0322c	e2833064	 add         r3, r3, #0x64
  03230	e5933000	 ldr         r3, [r3]
  03234	e3530000	 cmp         r3, #0
  03238	1a000029	 bne         |$LN4@OpenPipe@2|

; 994  :         m_pPipeQHead = new CQH (this);

  0323c	e3a00020	 mov         r0, #0x20
  03240	eb000000	 bl          |??2@YAPAXI@Z|
  03244	e58d0024	 str         r0, [sp, #0x24]
  03248	e59d3024	 ldr         r3, [sp, #0x24]
  0324c	e58d3008	 str         r3, [sp, #8]
  03250	e59d3008	 ldr         r3, [sp, #8]
  03254	e3530000	 cmp         r3, #0
  03258	0a000006	 beq         |$LN15@OpenPipe@2|
  0325c	e59d1048	 ldr         r1, [sp, #0x48]
  03260	e59d0008	 ldr         r0, [sp, #8]
  03264	eb000000	 bl          |??0CQH@@QAA@PAVCPipe@@@Z|
  03268	e58d0028	 str         r0, [sp, #0x28]
  0326c	e59d3028	 ldr         r3, [sp, #0x28]
  03270	e58d302c	 str         r3, [sp, #0x2C]
  03274	ea000001	 b           |$LN16@OpenPipe@2|
  03278		 |$LN15@OpenPipe@2|
  03278	e3a03000	 mov         r3, #0
  0327c	e58d302c	 str         r3, [sp, #0x2C]
  03280		 |$LN16@OpenPipe@2|
  03280	e59d3048	 ldr         r3, [sp, #0x48]
  03284	e2832064	 add         r2, r3, #0x64
  03288	e59d302c	 ldr         r3, [sp, #0x2C]
  0328c	e5823000	 str         r3, [r2]

; 995  :         if (m_pPipeQHead ) {            

  03290	e59d3048	 ldr         r3, [sp, #0x48]
  03294	e2833064	 add         r3, r3, #0x64
  03298	e5933000	 ldr         r3, [r3]
  0329c	e3530000	 cmp         r3, #0
  032a0	0a000002	 beq         |$LN3@OpenPipe@2|

; 996  :             status = requestOK;               

  032a4	e3a03001	 mov         r3, #1
  032a8	e58d3000	 str         r3, [sp]

; 997  :         }
; 998  :         else {

  032ac	ea00000c	 b           |$LN2@OpenPipe@2|
  032b0		 |$LN3@OpenPipe@2|

; 999  :             ASSERT(FALSE);

  032b0	ea000002	 b           |$LN17@OpenPipe@2|
  032b4	e3a03001	 mov         r3, #1
  032b8	e58d3030	 str         r3, [sp, #0x30]
  032bc	ea000008	 b           |$LN18@OpenPipe@2|
  032c0		 |$LN17@OpenPipe@2|
  032c0	e3a03c03	 mov         r3, #3, 24
  032c4	e38330e7	 orr         r3, r3, #0xE7
  032c8	e59f20e0	 ldr         r2, [pc, #0xE0]
  032cc	e59f10d8	 ldr         r1, [pc, #0xD8]
  032d0	e59f00d0	 ldr         r0, [pc, #0xD0]
  032d4	eb000000	 bl          NKDbgPrintfW
  032d8	e6000010	 __debugbreak_ce
  032dc	e3a03000	 mov         r3, #0
  032e0	e58d3030	 str         r3, [sp, #0x30]
  032e4		 |$LN18@OpenPipe@2|
  032e4		 |$LN2@OpenPipe@2|
  032e4		 |$LN4@OpenPipe@2|

; 1000 :         }
; 1001 :     }    
; 1002 :     LeaveCriticalSection( &m_csPipeLock );

  032e4	e59d3048	 ldr         r3, [sp, #0x48]
  032e8	e2830020	 add         r0, r3, #0x20
  032ec	eb000000	 bl          LeaveCriticalSection

; 1003 : 
; 1004 :     if (status == requestOK) {

  032f0	e59d3000	 ldr         r3, [sp]
  032f4	e3530001	 cmp         r3, #1
  032f8	1a000017	 bne         |$LN1@OpenPipe@2|

; 1005 : #ifdef DEBUG
; 1006 :         BOOL bReturn = m_pCMhcd->AddToBusyPipeList(this, FALSE);

  032fc	e3a02000	 mov         r2, #0
  03300	e59d1048	 ldr         r1, [sp, #0x48]
  03304	e59d3048	 ldr         r3, [sp, #0x48]
  03308	e283300c	 add         r3, r3, #0xC
  0330c	e5930000	 ldr         r0, [r3]
  03310	eb000000	 bl          |?AddToBusyPipeList@CHW@@QAAHQAVCPipe@@H@Z|
  03314	e58d0034	 str         r0, [sp, #0x34]
  03318	e59d3034	 ldr         r3, [sp, #0x34]
  0331c	e58d3004	 str         r3, [sp, #4]

; 1007 :         ASSERT(bReturn == TRUE);

  03320	e59d3004	 ldr         r3, [sp, #4]
  03324	e3530001	 cmp         r3, #1
  03328	1a000002	 bne         |$LN19@OpenPipe@2|
  0332c	e3a03001	 mov         r3, #1
  03330	e58d3038	 str         r3, [sp, #0x38]
  03334	ea000008	 b           |$LN20@OpenPipe@2|
  03338		 |$LN19@OpenPipe@2|
  03338	e3a03c03	 mov         r3, #3, 24
  0333c	e38330ef	 orr         r3, r3, #0xEF
  03340	e59f2068	 ldr         r2, [pc, #0x68]
  03344	e59f1060	 ldr         r1, [pc, #0x60]
  03348	e59f0058	 ldr         r0, [pc, #0x58]
  0334c	eb000000	 bl          NKDbgPrintfW
  03350	e6000010	 __debugbreak_ce
  03354	e3a03000	 mov         r3, #0
  03358	e58d3038	 str         r3, [sp, #0x38]
  0335c		 |$LN20@OpenPipe@2|
  0335c		 |$LN1@OpenPipe@2|

; 1008 : #else
; 1009 : 		m_pCMhcd->AddToBusyPipeList(this, FALSE);
; 1010 : #endif
; 1011 :     }
; 1012 :     DEBUGMSG( ZONE_PIPE, (TEXT("-CControlPipe::OpenPipe\n") ) );

  0335c	e59f3040	 ldr         r3, [pc, #0x40]
  03360	e5933440	 ldr         r3, [r3, #0x440]
  03364	e3130080	 tst         r3, #0x80
  03368	0a000004	 beq         |$LN21@OpenPipe@2|
  0336c	e59f002c	 ldr         r0, [pc, #0x2C]
  03370	eb000000	 bl          NKDbgPrintfW
  03374	e3a03001	 mov         r3, #1
  03378	e58d303c	 str         r3, [sp, #0x3C]
  0337c	ea000001	 b           |$LN22@OpenPipe@2|
  03380		 |$LN21@OpenPipe@2|
  03380	e3a03000	 mov         r3, #0
  03384	e58d303c	 str         r3, [sp, #0x3C]
  03388		 |$LN22@OpenPipe@2|

; 1013 :        
; 1014 :     return status;

  03388	e59d3000	 ldr         r3, [sp]
  0338c	e58d300c	 str         r3, [sp, #0xC]

; 1015 : }

  03390	e59d000c	 ldr         r0, [sp, #0xC]
  03394	e28dd040	 add         sp, sp, #0x40
  03398	e89d6000	 ldmia       sp, {sp, lr}
  0339c	e12fff1e	 bx          lr
  033a0		 |$LN26@OpenPipe@2|
  033a0		 |$LN27@OpenPipe@2|
  033a0	00000000	 DCD         |??_C@_1DC@GHHCAGFM@?$AA?9?$AAC?$AAC?$AAo?$AAn?$AAt?$AAr?$AAo?$AAl?$AAP?$AAi?$AAp?$AAe?$AA?3?$AA?3?$AAO?$AAp?$AAe?$AAn?$AAP?$AAi?$AAp?$AAe?$AA?6?$AA?$AA@|
  033a4		 |$LN28@OpenPipe@2|
  033a4	00000000	 DCD         |dpCurSettings|
  033a8		 |$LN29@OpenPipe@2|
  033a8	00000000	 DCD         |??_C@_1FK@FNONLNGN@?$AA?$CF?$AAs?$AA?3?$AA?5?$AAD?$AAE?$AAB?$AAU?$AAG?$AAC?$AAH?$AAK?$AA?5?$AAf?$AAa?$AAi?$AAl?$AAe?$AAd?$AA?5?$AAi?$AAn?$AA?5?$AAf?$AAi?$AAl?$AAe?$AA?5?$AA?$CF?$AAs?$AA?5?$AAa@|
  033ac		 |$LN30@OpenPipe@2|
  033ac	00000000	 DCD         |??_C@_1BA@LEPJIIOK@?$AAU?$AAn?$AAk?$AAn?$AAo?$AAw?$AAn?$AA?$AA@|
  033b0		 |$LN31@OpenPipe@2|
  033b0	00000000	 DCD         |??_C@_1LK@LMPDOKKA@?$AAC?$AA?3?$AA?2?$AAW?$AAI?$AAN?$AAC?$AAE?$AA6?$AA0?$AA0?$AA?2?$AAP?$AAL?$AAA?$AAT?$AAF?$AAO?$AAR?$AAM?$AA?2?$AAC?$AAO?$AAM?$AAM?$AAO?$AAN?$AA?2?$AAS?$AAR?$AAC?$AA?2@|
  033b4		 |$LN32@OpenPipe@2|
  033b4	00000000	 DCD         |??_C@_1DK@BIELDHLA@?$AA?$CF?$AAs?$AA?3?$AA?5?$AA?$CL?$AAC?$AAC?$AAo?$AAn?$AAt?$AAr?$AAo?$AAl?$AAP?$AAi?$AAp?$AAe?$AA?3?$AA?3?$AAO?$AAp?$AAe?$AAn?$AAP?$AAi?$AAp?$AAe?$AA?6?$AA?$AA@|
  033b8		 |$M38327|

			 ENDP  ; |?OpenPipe@CControlPipe@@UAA?AW4HCD_REQUEST_STATUS@@XZ|, CControlPipe::OpenPipe


  000e0			 AREA	 |.pdata|, PDATA
|$T38348| DCD	|$LN10@ClosePipe@2|
	DCD	0x40005504
; Function compile flags: /Odtp

  033b8			 AREA	 |.text|, CODE, ARM

  033b8		 |?ClosePipe@CControlPipe@@UAA?AW4HCD_REQUEST_STATUS@@XZ| PROC ; CControlPipe::ClosePipe

; 1029 : {

  033b8		 |$LN10@ClosePipe@2|
  033b8	e1a0c00d	 mov         r12, sp
  033bc	e92d0001	 stmdb       sp!, {r0}
  033c0	e92d5000	 stmdb       sp!, {r12, lr}
  033c4	e24dd024	 sub         sp, sp, #0x24
  033c8		 |$M38345|

; 1030 :     DEBUGMSG( ZONE_PIPE, (TEXT("%s: +CBulkPipe(%s)::ClosePipe\n"),GetControllerName(), GetPipeType() ) );

  033c8	e59f3138	 ldr         r3, [pc, #0x138]
  033cc	e5933440	 ldr         r3, [r3, #0x440]
  033d0	e3130080	 tst         r3, #0x80
  033d4	0a000011	 beq         |$LN4@ClosePipe@2|
  033d8	e59d302c	 ldr         r3, [sp, #0x2C]
  033dc	e5933000	 ldr         r3, [r3]
  033e0	e2833040	 add         r3, r3, #0x40
  033e4	e59d002c	 ldr         r0, [sp, #0x2C]
  033e8	e5933000	 ldr         r3, [r3]
  033ec	e1a0e00f	 mov         lr, pc
  033f0	e12fff13	 bx          r3
  033f4	e58d0010	 str         r0, [sp, #0x10]
  033f8	e59d002c	 ldr         r0, [sp, #0x2C]
  033fc	eb000000	 bl          |?GetControllerName@CPipe@@QBAPBGXZ|
  03400	e58d0014	 str         r0, [sp, #0x14]
  03404	e59d2010	 ldr         r2, [sp, #0x10]
  03408	e59d1014	 ldr         r1, [sp, #0x14]
  0340c	e59f00f0	 ldr         r0, [pc, #0xF0]
  03410	eb000000	 bl          NKDbgPrintfW
  03414	e3a03001	 mov         r3, #1
  03418	e58d3018	 str         r3, [sp, #0x18]
  0341c	ea000001	 b           |$LN5@ClosePipe@2|
  03420		 |$LN4@ClosePipe@2|
  03420	e3a03000	 mov         r3, #0
  03424	e58d3018	 str         r3, [sp, #0x18]
  03428		 |$LN5@ClosePipe@2|

; 1031 :     HCD_REQUEST_STATUS status = requestFailed;

  03428	e3a03000	 mov         r3, #0
  0342c	e58d3000	 str         r3, [sp]

; 1032 :     m_pCMhcd->RemoveFromBusyPipeList(this );

  03430	e59d102c	 ldr         r1, [sp, #0x2C]
  03434	e59d302c	 ldr         r3, [sp, #0x2C]
  03438	e283300c	 add         r3, r3, #0xC
  0343c	e5930000	 ldr         r0, [r3]
  03440	eb000000	 bl          |?RemoveFromBusyPipeList@CHW@@QAAXQAVCPipe@@@Z|

; 1033 :     EnterCriticalSection( &m_csPipeLock );

  03444	e59d302c	 ldr         r3, [sp, #0x2C]
  03448	e2830020	 add         r0, r3, #0x20
  0344c	eb000000	 bl          EnterCriticalSection

; 1034 :     if ( m_pPipeQHead) {        

  03450	e59d302c	 ldr         r3, [sp, #0x2C]
  03454	e2833064	 add         r3, r3, #0x64
  03458	e5933000	 ldr         r3, [r3]
  0345c	e3530000	 cmp         r3, #0
  03460	0a00001e	 beq         |$LN1@ClosePipe@2|

; 1035 :         AbortQueue();

  03464	e59d002c	 ldr         r0, [sp, #0x2C]
  03468	eb000000	 bl          |?AbortQueue@CQueuedPipe@@IAAXXZ|

; 1036 :         //delete m_pPipeQHead;
; 1037 :         m_pPipeQHead->~CQH();

  0346c	e3a01000	 mov         r1, #0
  03470	e59d302c	 ldr         r3, [sp, #0x2C]
  03474	e2833064	 add         r3, r3, #0x64
  03478	e5930000	 ldr         r0, [r3]
  0347c	eb000000	 bl          |??_GCQH@@QAAPAXI@Z|

; 1038 :         delete m_pPipeQHead;        

  03480	e59d302c	 ldr         r3, [sp, #0x2C]
  03484	e2833064	 add         r3, r3, #0x64
  03488	e5933000	 ldr         r3, [r3]
  0348c	e58d3008	 str         r3, [sp, #8]
  03490	e59d3008	 ldr         r3, [sp, #8]
  03494	e58d3004	 str         r3, [sp, #4]
  03498	e59d3004	 ldr         r3, [sp, #4]
  0349c	e3530000	 cmp         r3, #0
  034a0	0a000006	 beq         |$LN6@ClosePipe@2|
  034a4	e3a01001	 mov         r1, #1
  034a8	e59d0004	 ldr         r0, [sp, #4]
  034ac	eb000000	 bl          |??_GCQH@@QAAPAXI@Z|
  034b0	e58d001c	 str         r0, [sp, #0x1C]
  034b4	e59d301c	 ldr         r3, [sp, #0x1C]
  034b8	e58d3020	 str         r3, [sp, #0x20]
  034bc	ea000001	 b           |$LN7@ClosePipe@2|
  034c0		 |$LN6@ClosePipe@2|
  034c0	e3a03000	 mov         r3, #0
  034c4	e58d3020	 str         r3, [sp, #0x20]
  034c8		 |$LN7@ClosePipe@2|

; 1039 :         m_pPipeQHead = NULL;

  034c8	e59d302c	 ldr         r3, [sp, #0x2C]
  034cc	e2832064	 add         r2, r3, #0x64
  034d0	e3a03000	 mov         r3, #0
  034d4	e5823000	 str         r3, [r2]

; 1040 :         status = requestOK;

  034d8	e3a03001	 mov         r3, #1
  034dc	e58d3000	 str         r3, [sp]
  034e0		 |$LN1@ClosePipe@2|

; 1041 :     }
; 1042 :     LeaveCriticalSection( &m_csPipeLock );

  034e0	e59d302c	 ldr         r3, [sp, #0x2C]
  034e4	e2830020	 add         r0, r3, #0x20
  034e8	eb000000	 bl          LeaveCriticalSection

; 1043 :     return status;

  034ec	e59d3000	 ldr         r3, [sp]
  034f0	e58d300c	 str         r3, [sp, #0xC]

; 1044 : }

  034f4	e59d000c	 ldr         r0, [sp, #0xC]
  034f8	e28dd024	 add         sp, sp, #0x24
  034fc	e89d6000	 ldmia       sp, {sp, lr}
  03500	e12fff1e	 bx          lr
  03504		 |$LN11@ClosePipe@2|
  03504		 |$LN12@ClosePipe@2|
  03504	00000000	 DCD         |??_C@_1DO@PENEAEKP@?$AA?$CF?$AAs?$AA?3?$AA?5?$AA?$CL?$AAC?$AAB?$AAu?$AAl?$AAk?$AAP?$AAi?$AAp?$AAe?$AA?$CI?$AA?$CF?$AAs?$AA?$CJ?$AA?3?$AA?3?$AAC?$AAl?$AAo?$AAs?$AAe?$AAP?$AAi?$AAp?$AAe?$AA?6?$AA?$AA@|
  03508		 |$LN13@ClosePipe@2|
  03508	00000000	 DCD         |dpCurSettings|
  0350c		 |$M38346|

			 ENDP  ; |?ClosePipe@CControlPipe@@UAA?AW4HCD_REQUEST_STATUS@@XZ|, CControlPipe::ClosePipe

	EXPORT	|??_C@_1KG@OFKOKKEG@?$AA?$CF?$AAs?$AA?3?$AA?5?$AA?9?$AAC?$AAC?$AAo?$AAn?$AAt?$AAr?$AAo?$AAl?$AAP?$AAi?$AAp?$AAe?$AA?3?$AA?3?$AA?3?$AA?3?$AAI?$AAs?$AAs?$AAu?$AAe?$AAT?$AAr?$AAa?$AAn?$AAs?$AAf@| [ DATA ] ; `string'
	EXPORT	|??_C@_1HM@PHCJKLLH@?$AAC?$AAC?$AAo?$AAn?$AAt?$AAr?$AAo?$AAl?$AAP?$AAi?$AAp?$AAe?$AA?3?$AA?3?$AAI?$AAs?$AAs?$AAu?$AAe?$AAT?$AAr?$AAa?$AAn?$AAs?$AAf?$AAe?$AAr?$AA?5?$AAc?$AAo?$AAn?$AAf@| [ DATA ] ; `string'
	EXPORT	|??_C@_1GA@FHPLKEA@?$AA?$CF?$AAs?$AA?3?$AA?5?$AA?$CL?$AAC?$AAC?$AAo?$AAn?$AAt?$AAr?$AAo?$AAl?$AAP?$AAi?$AAp?$AAe?$AA?3?$AA?3?$AAI?$AAs?$AAs?$AAu?$AAe?$AAT?$AAr?$AAa?$AAn?$AAs?$AAf?$AAe?$AAr@| [ DATA ] ; `string'

  000e8			 AREA	 |.pdata|, PDATA
|$T38379| DCD	|$LN16@IssueTrans@2|
	DCD	0x40009404

  00000			 AREA	 |.rdata|, DATA, READONLY
|??_C@_1KG@OFKOKKEG@?$AA?$CF?$AAs?$AA?3?$AA?5?$AA?9?$AAC?$AAC?$AAo?$AAn?$AAt?$AAr?$AAo?$AAl?$AAP?$AAi?$AAp?$AAe?$AA?3?$AA?3?$AA?3?$AA?3?$AAI?$AAs?$AAs?$AAu?$AAe?$AAT?$AAr?$AAa?$AAn?$AAs?$AAf@| DCB "%"
	DCB	0x0, "s", 0x0, ":", 0x0, " ", 0x0, "-", 0x0, "C", 0x0, "C"
	DCB	0x0, "o", 0x0, "n", 0x0, "t", 0x0, "r", 0x0, "o", 0x0, "l"
	DCB	0x0, "P", 0x0, "i", 0x0, "p", 0x0, "e", 0x0, ":", 0x0, ":"
	DCB	0x0, ":", 0x0, ":", 0x0, "I", 0x0, "s", 0x0, "s", 0x0, "u"
	DCB	0x0, "e", 0x0, "T", 0x0, "r", 0x0, "a", 0x0, "n", 0x0, "s"
	DCB	0x0, "f", 0x0, "e", 0x0, "r", 0x0, " ", 0x0, "-", 0x0, " "
	DCB	0x0, "a", 0x0, "d", 0x0, "d", 0x0, "r", 0x0, "e", 0x0, "s"
	DCB	0x0, "s", 0x0, " ", 0x0, "=", 0x0, " ", 0x0, "%", 0x0, "d"
	DCB	0x0, ",", 0x0, " ", 0x0, "r", 0x0, "e", 0x0, "t", 0x0, "u"
	DCB	0x0, "r", 0x0, "i", 0x0, "n", 0x0, "g", 0x0, " ", 0x0, "H"
	DCB	0x0, "C", 0x0, "D", 0x0, "_", 0x0, "R", 0x0, "E", 0x0, "Q"
	DCB	0x0, "U", 0x0, "E", 0x0, "S", 0x0, "T", 0x0, "_", 0x0, "S"
	DCB	0x0, "T", 0x0, "A", 0x0, "T", 0x0, "U", 0x0, "S", 0x0, " "
	DCB	0x0, "%", 0x0, "d", 0x0, 0xa, 0x0, 0x0, 0x0 ; `string'

  00000			 AREA	 |.rdata|, DATA, READONLY
|??_C@_1HM@PHCJKLLH@?$AAC?$AAC?$AAo?$AAn?$AAt?$AAr?$AAo?$AAl?$AAP?$AAi?$AAp?$AAe?$AA?3?$AA?3?$AAI?$AAs?$AAs?$AAu?$AAe?$AAT?$AAr?$AAa?$AAn?$AAs?$AAf?$AAe?$AAr?$AA?5?$AAc?$AAo?$AAn?$AAf@| DCB "C"
	DCB	0x0, "C", 0x0, "o", 0x0, "n", 0x0, "t", 0x0, "r", 0x0, "o"
	DCB	0x0, "l", 0x0, "P", 0x0, "i", 0x0, "p", 0x0, "e", 0x0, ":"
	DCB	0x0, ":", 0x0, "I", 0x0, "s", 0x0, "s", 0x0, "u", 0x0, "e"
	DCB	0x0, "T", 0x0, "r", 0x0, "a", 0x0, "n", 0x0, "s", 0x0, "f"
	DCB	0x0, "e", 0x0, "r", 0x0, " ", 0x0, "c", 0x0, "o", 0x0, "n"
	DCB	0x0, "f", 0x0, "i", 0x0, "g", 0x0, "u", 0x0, "r", 0x0, "e"
	DCB	0x0, " ", 0x0, "m", 0x0, "_", 0x0, "b", 0x0, "D", 0x0, "e"
	DCB	0x0, "v", 0x0, "i", 0x0, "c", 0x0, "e", 0x0, "A", 0x0, "d"
	DCB	0x0, "d", 0x0, "r", 0x0, "e", 0x0, "s", 0x0, "s", 0x0, " "
	DCB	0x0, "=", 0x0, " ", 0x0, "%", 0x0, "d", 0x0, 0xd, 0x0, 0xa
	DCB	0x0, 0x0, 0x0				; `string'

  00000			 AREA	 |.rdata|, DATA, READONLY
|??_C@_1GA@FHPLKEA@?$AA?$CF?$AAs?$AA?3?$AA?5?$AA?$CL?$AAC?$AAC?$AAo?$AAn?$AAt?$AAr?$AAo?$AAl?$AAP?$AAi?$AAp?$AAe?$AA?3?$AA?3?$AAI?$AAs?$AAs?$AAu?$AAe?$AAT?$AAr?$AAa?$AAn?$AAs?$AAf?$AAe?$AAr@| DCB "%"
	DCB	0x0, "s", 0x0, ":", 0x0, " ", 0x0, "+", 0x0, "C", 0x0, "C"
	DCB	0x0, "o", 0x0, "n", 0x0, "t", 0x0, "r", 0x0, "o", 0x0, "l"
	DCB	0x0, "P", 0x0, "i", 0x0, "p", 0x0, "e", 0x0, ":", 0x0, ":"
	DCB	0x0, "I", 0x0, "s", 0x0, "s", 0x0, "u", 0x0, "e", 0x0, "T"
	DCB	0x0, "r", 0x0, "a", 0x0, "n", 0x0, "s", 0x0, "f", 0x0, "e"
	DCB	0x0, "r", 0x0, ",", 0x0, " ", 0x0, "a", 0x0, "d", 0x0, "d"
	DCB	0x0, "r", 0x0, "e", 0x0, "s", 0x0, "s", 0x0, " ", 0x0, "="
	DCB	0x0, " ", 0x0, "%", 0x0, "d", 0x0, 0xa, 0x0, 0x0, 0x0 ; `string'
; Function compile flags: /Odtp

  0350c			 AREA	 |.text|, CODE, ARM

  0350c		 |?IssueTransfer@CControlPipe@@UAA?AW4HCD_REQUEST_STATUS@@EQ6AKPAX@ZQAXKQBXKKQBKK2K3QAK5QAH55@Z| PROC ; CControlPipe::IssueTransfer

; 1076 : {

  0350c		 |$LN16@IssueTrans@2|
  0350c	e1a0c00d	 mov         r12, sp
  03510	e92d000f	 stmdb       sp!, {r0 - r3}
  03514	e92d5000	 stmdb       sp!, {r12, lr}
  03518	e24dd098	 sub         sp, sp, #0x98
  0351c		 |$M38376|

; 1077 :     DEBUGMSG( ZONE_TRANSFER, (TEXT("%s: +CControlPipe::IssueTransfer, address = %d\n"),GetControllerName(), address) );

  0351c	e59f3220	 ldr         r3, [pc, #0x220]
  03520	e5933440	 ldr         r3, [r3, #0x440]
  03524	e3130c01	 tst         r3, #1, 24
  03528	0a00000a	 beq         |$LN6@IssueTrans@2|
  0352c	e59d00a0	 ldr         r0, [sp, #0xA0]
  03530	eb000000	 bl          |?GetControllerName@CPipe@@QBAPBGXZ|
  03534	e58d0078	 str         r0, [sp, #0x78]
  03538	e5dd30a4	 ldrb        r3, [sp, #0xA4]
  0353c	e1a02003	 mov         r2, r3
  03540	e59d1078	 ldr         r1, [sp, #0x78]
  03544	e59f020c	 ldr         r0, [pc, #0x20C]
  03548	eb000000	 bl          NKDbgPrintfW
  0354c	e3a03001	 mov         r3, #1
  03550	e58d307c	 str         r3, [sp, #0x7C]
  03554	ea000001	 b           |$LN7@IssueTrans@2|
  03558		 |$LN6@IssueTrans@2|
  03558	e3a03000	 mov         r3, #0
  0355c	e58d307c	 str         r3, [sp, #0x7C]
  03560		 |$LN7@IssueTrans@2|

; 1078 : 
; 1079 :     // We can store the device address per pipe since the pipe is based on each device connection now.
; 1080 :     // In other words, the pipe is created per device connection if HUB is involved.
; 1081 :     // However, we cannot configEP here since it may be processed by other at this point.
; 1082 :     if (m_bDeviceAddress != address) { // Address Changed.

  03560	e59d30a0	 ldr         r3, [sp, #0xA0]
  03564	e283303b	 add         r3, r3, #0x3B
  03568	e5d33000	 ldrb        r3, [r3]
  0356c	e1a02003	 mov         r2, r3
  03570	e5dd30a4	 ldrb        r3, [sp, #0xA4]
  03574	e1520003	 cmp         r2, r3
  03578	0a000035	 beq         |$LN3@IssueTrans@2|

; 1083 :         if ( m_pQueuedTransfer == NULL &&  m_pPipeQHead && m_pPipeQHead->IsActive()==FALSE) { // We need cqueue new Transfer.

  0357c	e59d30a0	 ldr         r3, [sp, #0xA0]
  03580	e283306c	 add         r3, r3, #0x6C
  03584	e5933000	 ldr         r3, [r3]
  03588	e3530000	 cmp         r3, #0
  0358c	1a000020	 bne         |$LN2@IssueTrans@2|
  03590	e59d30a0	 ldr         r3, [sp, #0xA0]
  03594	e2833064	 add         r3, r3, #0x64
  03598	e5933000	 ldr         r3, [r3]
  0359c	e3530000	 cmp         r3, #0
  035a0	0a00001b	 beq         |$LN2@IssueTrans@2|
  035a4	e59d30a0	 ldr         r3, [sp, #0xA0]
  035a8	e2833064	 add         r3, r3, #0x64
  035ac	e5930000	 ldr         r0, [r3]
  035b0	eb000000	 bl          |?IsActive@CQH@@QAAHXZ|
  035b4	e58d0080	 str         r0, [sp, #0x80]
  035b8	e59d3080	 ldr         r3, [sp, #0x80]
  035bc	e3530000	 cmp         r3, #0
  035c0	1a000013	 bne         |$LN2@IssueTrans@2|

; 1084 :             m_bDeviceAddress = address;

  035c4	e59d30a0	 ldr         r3, [sp, #0xA0]
  035c8	e283203b	 add         r2, r3, #0x3B
  035cc	e5dd30a4	 ldrb        r3, [sp, #0xA4]
  035d0	e5c23000	 strb        r3, [r2]

; 1085 :             DEBUGMSG(ZONE_TRANSFER|0, (TEXT("CControlPipe::IssueTransfer configure m_bDeviceAddress = %d\r\n"),
; 1086 :                 m_bDeviceAddress));

  035d4	e59f3168	 ldr         r3, [pc, #0x168]
  035d8	e5933440	 ldr         r3, [r3, #0x440]
  035dc	e3130c01	 tst         r3, #1, 24
  035e0	0a000008	 beq         |$LN8@IssueTrans@2|
  035e4	e59d30a0	 ldr         r3, [sp, #0xA0]
  035e8	e283303b	 add         r3, r3, #0x3B
  035ec	e5d33000	 ldrb        r3, [r3]
  035f0	e1a01003	 mov         r1, r3
  035f4	e59f0158	 ldr         r0, [pc, #0x158]
  035f8	eb000000	 bl          NKDbgPrintfW
  035fc	e3a03001	 mov         r3, #1
  03600	e58d3084	 str         r3, [sp, #0x84]
  03604	ea000001	 b           |$LN9@IssueTrans@2|
  03608		 |$LN8@IssueTrans@2|
  03608	e3a03000	 mov         r3, #0
  0360c	e58d3084	 str         r3, [sp, #0x84]
  03610		 |$LN9@IssueTrans@2|

; 1087 :         }
; 1088 :         else {

  03610	ea00000f	 b           |$LN1@IssueTrans@2|
  03614		 |$LN2@IssueTrans@2|

; 1089 :             ASSERT(FALSE);

  03614	ea000002	 b           |$LN10@IssueTrans@2|
  03618	e3a03001	 mov         r3, #1
  0361c	e58d3088	 str         r3, [sp, #0x88]
  03620	ea000008	 b           |$LN11@IssueTrans@2|
  03624		 |$LN10@IssueTrans@2|
  03624	e3a03b01	 mov         r3, #1, 22
  03628	e3833041	 orr         r3, r3, #0x41
  0362c	e59f211c	 ldr         r2, [pc, #0x11C]
  03630	e59f1114	 ldr         r1, [pc, #0x114]
  03634	e59f010c	 ldr         r0, [pc, #0x10C]
  03638	eb000000	 bl          NKDbgPrintfW
  0363c	e6000010	 __debugbreak_ce
  03640	e3a03000	 mov         r3, #0
  03644	e58d3088	 str         r3, [sp, #0x88]
  03648		 |$LN11@IssueTrans@2|

; 1090 :             return requestFailed;

  03648	e3a03000	 mov         r3, #0
  0364c	e58d303c	 str         r3, [sp, #0x3C]
  03650	ea000036	 b           |$LN4@IssueTrans@2|
  03654		 |$LN1@IssueTrans@2|
  03654		 |$LN3@IssueTrans@2|

; 1091 :         }
; 1092 :     }
; 1093 : 
; 1094 :     HCD_REQUEST_STATUS status = CQueuedPipe::IssueTransfer( address, lpStartAddress,lpvNotifyParameter,
; 1095 :             dwFlags,lpvControlHeader, dwStartingFrame, dwFrames, aLengths, dwBufferSize, lpvClientBuffer,
; 1096 :             paBuffer, lpvCancelId, adwIsochErrors, adwIsochLengths, lpfComplete, lpdwBytesTransferred, lpdwError );

  03654	e59d30e4	 ldr         r3, [sp, #0xE4]
  03658	e58d3034	 str         r3, [sp, #0x34]
  0365c	e59d30e0	 ldr         r3, [sp, #0xE0]
  03660	e58d3030	 str         r3, [sp, #0x30]
  03664	e59d30dc	 ldr         r3, [sp, #0xDC]
  03668	e58d302c	 str         r3, [sp, #0x2C]
  0366c	e59d30d8	 ldr         r3, [sp, #0xD8]
  03670	e58d3028	 str         r3, [sp, #0x28]
  03674	e59d30d4	 ldr         r3, [sp, #0xD4]
  03678	e58d3024	 str         r3, [sp, #0x24]
  0367c	e59d30d0	 ldr         r3, [sp, #0xD0]
  03680	e58d3020	 str         r3, [sp, #0x20]
  03684	e59d30cc	 ldr         r3, [sp, #0xCC]
  03688	e58d301c	 str         r3, [sp, #0x1C]
  0368c	e59d30c8	 ldr         r3, [sp, #0xC8]
  03690	e58d3018	 str         r3, [sp, #0x18]
  03694	e59d30c4	 ldr         r3, [sp, #0xC4]
  03698	e58d3014	 str         r3, [sp, #0x14]
  0369c	e59d30c0	 ldr         r3, [sp, #0xC0]
  036a0	e58d3010	 str         r3, [sp, #0x10]
  036a4	e59d30bc	 ldr         r3, [sp, #0xBC]
  036a8	e58d300c	 str         r3, [sp, #0xC]
  036ac	e59d30b8	 ldr         r3, [sp, #0xB8]
  036b0	e58d3008	 str         r3, [sp, #8]
  036b4	e59d30b4	 ldr         r3, [sp, #0xB4]
  036b8	e58d3004	 str         r3, [sp, #4]
  036bc	e59d30b0	 ldr         r3, [sp, #0xB0]
  036c0	e58d3000	 str         r3, [sp]
  036c4	e59d30ac	 ldr         r3, [sp, #0xAC]
  036c8	e59d20a8	 ldr         r2, [sp, #0xA8]
  036cc	e5dd10a4	 ldrb        r1, [sp, #0xA4]
  036d0	e59d00a0	 ldr         r0, [sp, #0xA0]
  036d4	eb000000	 bl          |?IssueTransfer@CQueuedPipe@@UAA?AW4HCD_REQUEST_STATUS@@EQ6AKPAX@ZQAXKQBXKKQBKK2K3QAK5QAH55@Z|
  036d8	e58d008c	 str         r0, [sp, #0x8C]
  036dc	e59d308c	 ldr         r3, [sp, #0x8C]
  036e0	e58d3038	 str         r3, [sp, #0x38]

; 1097 :     DEBUGMSG( ZONE_TRANSFER, (TEXT("%s: -CControlPipe::::IssueTransfer - address = %d, returing HCD_REQUEST_STATUS %d\n"),GetControllerName(), address, status) );

  036e4	e59f3058	 ldr         r3, [pc, #0x58]
  036e8	e5933440	 ldr         r3, [r3, #0x440]
  036ec	e3130c01	 tst         r3, #1, 24
  036f0	0a00000a	 beq         |$LN12@IssueTrans@2|
  036f4	e59d00a0	 ldr         r0, [sp, #0xA0]
  036f8	eb000000	 bl          |?GetControllerName@CPipe@@QBAPBGXZ|
  036fc	e58d0090	 str         r0, [sp, #0x90]
  03700	e59d3038	 ldr         r3, [sp, #0x38]
  03704	e5dd20a4	 ldrb        r2, [sp, #0xA4]
  03708	e59d1090	 ldr         r1, [sp, #0x90]
  0370c	e59f002c	 ldr         r0, [pc, #0x2C]
  03710	eb000000	 bl          NKDbgPrintfW
  03714	e3a03001	 mov         r3, #1
  03718	e58d3094	 str         r3, [sp, #0x94]
  0371c	ea000001	 b           |$LN13@IssueTrans@2|
  03720		 |$LN12@IssueTrans@2|
  03720	e3a03000	 mov         r3, #0
  03724	e58d3094	 str         r3, [sp, #0x94]
  03728		 |$LN13@IssueTrans@2|

; 1098 :     return status;

  03728	e59d3038	 ldr         r3, [sp, #0x38]
  0372c	e58d303c	 str         r3, [sp, #0x3C]
  03730		 |$LN4@IssueTrans@2|

; 1099 : };

  03730	e59d003c	 ldr         r0, [sp, #0x3C]
  03734	e28dd098	 add         sp, sp, #0x98
  03738	e89d6000	 ldmia       sp, {sp, lr}
  0373c	e12fff1e	 bx          lr
  03740		 |$LN17@IssueTrans@2|
  03740		 |$LN18@IssueTrans@2|
  03740	00000000	 DCD         |??_C@_1KG@OFKOKKEG@?$AA?$CF?$AAs?$AA?3?$AA?5?$AA?9?$AAC?$AAC?$AAo?$AAn?$AAt?$AAr?$AAo?$AAl?$AAP?$AAi?$AAp?$AAe?$AA?3?$AA?3?$AA?3?$AA?3?$AAI?$AAs?$AAs?$AAu?$AAe?$AAT?$AAr?$AAa?$AAn?$AAs?$AAf@|
  03744		 |$LN19@IssueTrans@2|
  03744	00000000	 DCD         |dpCurSettings|
  03748		 |$LN20@IssueTrans@2|
  03748	00000000	 DCD         |??_C@_1FK@FNONLNGN@?$AA?$CF?$AAs?$AA?3?$AA?5?$AAD?$AAE?$AAB?$AAU?$AAG?$AAC?$AAH?$AAK?$AA?5?$AAf?$AAa?$AAi?$AAl?$AAe?$AAd?$AA?5?$AAi?$AAn?$AA?5?$AAf?$AAi?$AAl?$AAe?$AA?5?$AA?$CF?$AAs?$AA?5?$AAa@|
  0374c		 |$LN21@IssueTrans@2|
  0374c	00000000	 DCD         |??_C@_1BA@LEPJIIOK@?$AAU?$AAn?$AAk?$AAn?$AAo?$AAw?$AAn?$AA?$AA@|
  03750		 |$LN22@IssueTrans@2|
  03750	00000000	 DCD         |??_C@_1LK@LMPDOKKA@?$AAC?$AA?3?$AA?2?$AAW?$AAI?$AAN?$AAC?$AAE?$AA6?$AA0?$AA0?$AA?2?$AAP?$AAL?$AAA?$AAT?$AAF?$AAO?$AAR?$AAM?$AA?2?$AAC?$AAO?$AAM?$AAM?$AAO?$AAN?$AA?2?$AAS?$AAR?$AAC?$AA?2@|
  03754		 |$LN23@IssueTrans@2|
  03754	00000000	 DCD         |??_C@_1HM@PHCJKLLH@?$AAC?$AAC?$AAo?$AAn?$AAt?$AAr?$AAo?$AAl?$AAP?$AAi?$AAp?$AAe?$AA?3?$AA?3?$AAI?$AAs?$AAs?$AAu?$AAe?$AAT?$AAr?$AAa?$AAn?$AAs?$AAf?$AAe?$AAr?$AA?5?$AAc?$AAo?$AAn?$AAf@|
  03758		 |$LN24@IssueTrans@2|
  03758	00000000	 DCD         |??_C@_1GA@FHPLKEA@?$AA?$CF?$AAs?$AA?3?$AA?5?$AA?$CL?$AAC?$AAC?$AAo?$AAn?$AAt?$AAr?$AAo?$AAl?$AAP?$AAi?$AAp?$AAe?$AA?3?$AA?3?$AAI?$AAs?$AAs?$AAu?$AAe?$AAT?$AAr?$AAa?$AAn?$AAs?$AAf?$AAe?$AAr@|
  0375c		 |$M38377|

			 ENDP  ; |?IssueTransfer@CControlPipe@@UAA?AW4HCD_REQUEST_STATUS@@EQ6AKPAX@ZQAXKQBXKKQBKK2K3QAK5QAH55@Z|, CControlPipe::IssueTransfer

	EXPORT	|??_C@_1IE@GONFHHO@?$AA?$CF?$AAs?$AA?3?$AA?5?$AA?9?$AAC?$AAC?$AAo?$AAn?$AAt?$AAr?$AAo?$AAl?$AAP?$AAi?$AAp?$AAe?$AA?3?$AA?3?$AAC?$AAh?$AAa?$AAn?$AAg?$AAe?$AAM?$AAa?$AAx?$AAP?$AAa?$AAc?$AAk@| [ DATA ] ; `string'
	EXPORT	|??_C@_1IE@OFIKEOEB@?$AA?$CF?$AAs?$AA?3?$AA?5?$AA?$CL?$AAC?$AAC?$AAo?$AAn?$AAt?$AAr?$AAo?$AAl?$AAP?$AAi?$AAp?$AAe?$AA?3?$AA?3?$AAC?$AAh?$AAa?$AAn?$AAg?$AAe?$AAM?$AAa?$AAx?$AAP?$AAa?$AAc?$AAk@| [ DATA ] ; `string'
	IMPORT	|?SetMaxPacketLength@CQH@@QAAXK@Z|	; CQH::SetMaxPacketLength

  000f0			 AREA	 |.pdata|, PDATA
|$T38405| DCD	|$LN20@ChangeMaxP@2|
	DCD	0x4000ac04

  00000			 AREA	 |.rdata|, DATA, READONLY
|??_C@_1IE@GONFHHO@?$AA?$CF?$AAs?$AA?3?$AA?5?$AA?9?$AAC?$AAC?$AAo?$AAn?$AAt?$AAr?$AAo?$AAl?$AAP?$AAi?$AAp?$AAe?$AA?3?$AA?3?$AAC?$AAh?$AAa?$AAn?$AAg?$AAe?$AAM?$AAa?$AAx?$AAP?$AAa?$AAc?$AAk@| DCB "%"
	DCB	0x0, "s", 0x0, ":", 0x0, " ", 0x0, "-", 0x0, "C", 0x0, "C"
	DCB	0x0, "o", 0x0, "n", 0x0, "t", 0x0, "r", 0x0, "o", 0x0, "l"
	DCB	0x0, "P", 0x0, "i", 0x0, "p", 0x0, "e", 0x0, ":", 0x0, ":"
	DCB	0x0, "C", 0x0, "h", 0x0, "a", 0x0, "n", 0x0, "g", 0x0, "e"
	DCB	0x0, "M", 0x0, "a", 0x0, "x", 0x0, "P", 0x0, "a", 0x0, "c"
	DCB	0x0, "k", 0x0, "e", 0x0, "t", 0x0, "S", 0x0, "i", 0x0, "z"
	DCB	0x0, "e", 0x0, " ", 0x0, "-", 0x0, " ", 0x0, "n", 0x0, "e"
	DCB	0x0, "w", 0x0, " ", 0x0, "w", 0x0, "M", 0x0, "a", 0x0, "x"
	DCB	0x0, "P", 0x0, "a", 0x0, "c", 0x0, "k", 0x0, "e", 0x0, "t"
	DCB	0x0, "S", 0x0, "i", 0x0, "z", 0x0, "e", 0x0, " ", 0x0, "="
	DCB	0x0, " ", 0x0, "%", 0x0, "d", 0x0, 0xa, 0x0, 0x0, 0x0 ; `string'

  00000			 AREA	 |.rdata|, DATA, READONLY
|??_C@_1IE@OFIKEOEB@?$AA?$CF?$AAs?$AA?3?$AA?5?$AA?$CL?$AAC?$AAC?$AAo?$AAn?$AAt?$AAr?$AAo?$AAl?$AAP?$AAi?$AAp?$AAe?$AA?3?$AA?3?$AAC?$AAh?$AAa?$AAn?$AAg?$AAe?$AAM?$AAa?$AAx?$AAP?$AAa?$AAc?$AAk@| DCB "%"
	DCB	0x0, "s", 0x0, ":", 0x0, " ", 0x0, "+", 0x0, "C", 0x0, "C"
	DCB	0x0, "o", 0x0, "n", 0x0, "t", 0x0, "r", 0x0, "o", 0x0, "l"
	DCB	0x0, "P", 0x0, "i", 0x0, "p", 0x0, "e", 0x0, ":", 0x0, ":"
	DCB	0x0, "C", 0x0, "h", 0x0, "a", 0x0, "n", 0x0, "g", 0x0, "e"
	DCB	0x0, "M", 0x0, "a", 0x0, "x", 0x0, "P", 0x0, "a", 0x0, "c"
	DCB	0x0, "k", 0x0, "e", 0x0, "t", 0x0, "S", 0x0, "i", 0x0, "z"
	DCB	0x0, "e", 0x0, " ", 0x0, "-", 0x0, " ", 0x0, "n", 0x0, "e"
	DCB	0x0, "w", 0x0, " ", 0x0, "w", 0x0, "M", 0x0, "a", 0x0, "x"
	DCB	0x0, "P", 0x0, "a", 0x0, "c", 0x0, "k", 0x0, "e", 0x0, "t"
	DCB	0x0, "S", 0x0, "i", 0x0, "z", 0x0, "e", 0x0, " ", 0x0, "="
	DCB	0x0, " ", 0x0, "%", 0x0, "d", 0x0, 0xa, 0x0, 0x0, 0x0 ; `string'
; Function compile flags: /Odtp

  0375c			 AREA	 |.text|, CODE, ARM

  0375c		 |?ChangeMaxPacketSize@CControlPipe@@UAAXG@Z| PROC ; CControlPipe::ChangeMaxPacketSize

; 1117 : {

  0375c		 |$LN20@ChangeMaxP@2|
  0375c	e1a0c00d	 mov         r12, sp
  03760	e92d0003	 stmdb       sp!, {r0, r1}
  03764	e92d5000	 stmdb       sp!, {r12, lr}
  03768	e24dd024	 sub         sp, sp, #0x24
  0376c		 |$M38402|

; 1118 :     DEBUGMSG( ZONE_PIPE && ZONE_VERBOSE, (TEXT("%s: +CControlPipe::ChangeMaxPacketSize - new wMaxPacketSize = %d\n"),GetControllerName(), wMaxPacketSize) );

  0376c	e59f3284	 ldr         r3, [pc, #0x284]
  03770	e5933440	 ldr         r3, [r3, #0x440]
  03774	e3130080	 tst         r3, #0x80
  03778	0a00000e	 beq         |$LN5@ChangeMaxP@2|
  0377c	e59f3274	 ldr         r3, [pc, #0x274]
  03780	e5933440	 ldr         r3, [r3, #0x440]
  03784	e3130a01	 tst         r3, #1, 20
  03788	0a00000a	 beq         |$LN5@ChangeMaxP@2|
  0378c	e59d002c	 ldr         r0, [sp, #0x2C]
  03790	eb000000	 bl          |?GetControllerName@CPipe@@QBAPBGXZ|
  03794	e58d0000	 str         r0, [sp]
  03798	e1dd33b0	 ldrh        r3, [sp, #0x30]
  0379c	e1a02003	 mov         r2, r3
  037a0	e59d1000	 ldr         r1, [sp]
  037a4	e59f025c	 ldr         r0, [pc, #0x25C]
  037a8	eb000000	 bl          NKDbgPrintfW
  037ac	e3a03001	 mov         r3, #1
  037b0	e58d3004	 str         r3, [sp, #4]
  037b4	ea000001	 b           |$LN6@ChangeMaxP@2|
  037b8		 |$LN5@ChangeMaxP@2|
  037b8	e3a03000	 mov         r3, #0
  037bc	e58d3004	 str         r3, [sp, #4]
  037c0		 |$LN6@ChangeMaxP@2|

; 1119 :     
; 1120 :     EnterCriticalSection( &m_csPipeLock );

  037c0	e59d302c	 ldr         r3, [sp, #0x2C]
  037c4	e2830020	 add         r0, r3, #0x20
  037c8	eb000000	 bl          EnterCriticalSection

; 1121 : 
; 1122 :     // this pipe should be for endpoint 0, control pipe
; 1123 :     DEBUGCHK( (m_usbEndpointDescriptor.bmAttributes & USB_ENDPOINT_TYPE_MASK) == USB_ENDPOINT_TYPE_CONTROL &&
; 1124 :               (m_usbEndpointDescriptor.bEndpointAddress & TD_ENDPOINT_MASK) == 0 );

  037cc	e59d302c	 ldr         r3, [sp, #0x2C]
  037d0	e2833037	 add         r3, r3, #0x37
  037d4	e5d33000	 ldrb        r3, [r3]
  037d8	e3130003	 tst         r3, #3
  037dc	1a000007	 bne         |$LN7@ChangeMaxP@2|
  037e0	e59d302c	 ldr         r3, [sp, #0x2C]
  037e4	e2833036	 add         r3, r3, #0x36
  037e8	e5d33000	 ldrb        r3, [r3]
  037ec	e313000f	 tst         r3, #0xF
  037f0	1a000002	 bne         |$LN7@ChangeMaxP@2|
  037f4	e3a03001	 mov         r3, #1
  037f8	e58d3008	 str         r3, [sp, #8]
  037fc	ea000008	 b           |$LN8@ChangeMaxP@2|
  03800		 |$LN7@ChangeMaxP@2|
  03800	e3a03b01	 mov         r3, #1, 22
  03804	e3833064	 orr         r3, r3, #0x64
  03808	e59f21f4	 ldr         r2, [pc, #0x1F4]
  0380c	e59f11e4	 ldr         r1, [pc, #0x1E4]
  03810	e59f01e4	 ldr         r0, [pc, #0x1E4]
  03814	eb000000	 bl          NKDbgPrintfW
  03818	e6000010	 __debugbreak_ce
  0381c	e3a03000	 mov         r3, #0
  03820	e58d3008	 str         r3, [sp, #8]
  03824		 |$LN8@ChangeMaxP@2|

; 1125 :     // update should only be called if the old address was ENDPOINT_ZERO_MIN_MAXPACKET_SIZE
; 1126 :     DEBUGCHK( m_usbEndpointDescriptor.wMaxPacketSize == ENDPOINT_ZERO_MIN_MAXPACKET_SIZE );

  03824	e59d302c	 ldr         r3, [sp, #0x2C]
  03828	e2831038	 add         r1, r3, #0x38
  0382c	e5d13001	 ldrb        r3, [r1, #1]
  03830	e1a03403	 mov         r3, r3, lsl #8
  03834	e1a02803	 mov         r2, r3, lsl #16
  03838	e1a02822	 mov         r2, r2, lsr #16
  0383c	e5d13000	 ldrb        r3, [r1]
  03840	e1833002	 orr         r3, r3, r2
  03844	e3530008	 cmp         r3, #8
  03848	1a000002	 bne         |$LN9@ChangeMaxP@2|
  0384c	e3a03001	 mov         r3, #1
  03850	e58d300c	 str         r3, [sp, #0xC]
  03854	ea000008	 b           |$LN10@ChangeMaxP@2|
  03858		 |$LN9@ChangeMaxP@2|
  03858	e3a03b01	 mov         r3, #1, 22
  0385c	e3833066	 orr         r3, r3, #0x66
  03860	e59f219c	 ldr         r2, [pc, #0x19C]
  03864	e59f118c	 ldr         r1, [pc, #0x18C]
  03868	e59f018c	 ldr         r0, [pc, #0x18C]
  0386c	eb000000	 bl          NKDbgPrintfW
  03870	e6000010	 __debugbreak_ce
  03874	e3a03000	 mov         r3, #0
  03878	e58d300c	 str         r3, [sp, #0xC]
  0387c		 |$LN10@ChangeMaxP@2|

; 1127 :     // this function should only be called if we are increasing the max packet size.
; 1128 :     // in addition, the USB spec 1.0 section 9.6.1 states only the following
; 1129 :     // wMaxPacketSize are allowed for endpoint 0
; 1130 :     DEBUGCHK( wMaxPacketSize > ENDPOINT_ZERO_MIN_MAXPACKET_SIZE &&
; 1131 :               (wMaxPacketSize == 16 ||
; 1132 :                wMaxPacketSize == 32 ||
; 1133 :                wMaxPacketSize == 64) );

  0387c	e1dd33b0	 ldrh        r3, [sp, #0x30]
  03880	e3530008	 cmp         r3, #8
  03884	da00000b	 ble         |$LN12@ChangeMaxP@2|
  03888	e1dd33b0	 ldrh        r3, [sp, #0x30]
  0388c	e3530010	 cmp         r3, #0x10
  03890	0a000005	 beq         |$LN11@ChangeMaxP@2|
  03894	e1dd33b0	 ldrh        r3, [sp, #0x30]
  03898	e3530020	 cmp         r3, #0x20
  0389c	0a000002	 beq         |$LN11@ChangeMaxP@2|
  038a0	e1dd33b0	 ldrh        r3, [sp, #0x30]
  038a4	e3530040	 cmp         r3, #0x40
  038a8	1a000002	 bne         |$LN12@ChangeMaxP@2|
  038ac		 |$LN11@ChangeMaxP@2|
  038ac	e3a03001	 mov         r3, #1
  038b0	e58d3010	 str         r3, [sp, #0x10]
  038b4	ea000008	 b           |$LN13@ChangeMaxP@2|
  038b8		 |$LN12@ChangeMaxP@2|
  038b8	e3a03b01	 mov         r3, #1, 22
  038bc	e383306d	 orr         r3, r3, #0x6D
  038c0	e59f213c	 ldr         r2, [pc, #0x13C]
  038c4	e59f112c	 ldr         r1, [pc, #0x12C]
  038c8	e59f012c	 ldr         r0, [pc, #0x12C]
  038cc	eb000000	 bl          NKDbgPrintfW
  038d0	e6000010	 __debugbreak_ce
  038d4	e3a03000	 mov         r3, #0
  038d8	e58d3010	 str         r3, [sp, #0x10]
  038dc		 |$LN13@ChangeMaxP@2|

; 1134 :     
; 1135 :     m_usbEndpointDescriptor.wMaxPacketSize = wMaxPacketSize;

  038dc	e59d302c	 ldr         r3, [sp, #0x2C]
  038e0	e2832038	 add         r2, r3, #0x38
  038e4	e1dd33b0	 ldrh        r3, [sp, #0x30]
  038e8	e5c23000	 strb        r3, [r2]
  038ec	e1a03423	 mov         r3, r3, lsr #8
  038f0	e5c23001	 strb        r3, [r2, #1]

; 1136 :     if ( m_pQueuedTransfer == NULL &&  m_pPipeQHead && m_pPipeQHead->IsActive()==FALSE) { // We need cqueue new Transfer.

  038f4	e59d302c	 ldr         r3, [sp, #0x2C]
  038f8	e283306c	 add         r3, r3, #0x6C
  038fc	e5933000	 ldr         r3, [r3]
  03900	e3530000	 cmp         r3, #0
  03904	1a000012	 bne         |$LN2@ChangeMaxP@2|
  03908	e59d302c	 ldr         r3, [sp, #0x2C]
  0390c	e2833064	 add         r3, r3, #0x64
  03910	e5933000	 ldr         r3, [r3]
  03914	e3530000	 cmp         r3, #0
  03918	0a00000d	 beq         |$LN2@ChangeMaxP@2|
  0391c	e59d302c	 ldr         r3, [sp, #0x2C]
  03920	e2833064	 add         r3, r3, #0x64
  03924	e5930000	 ldr         r0, [r3]
  03928	eb000000	 bl          |?IsActive@CQH@@QAAHXZ|
  0392c	e58d0014	 str         r0, [sp, #0x14]
  03930	e59d3014	 ldr         r3, [sp, #0x14]
  03934	e3530000	 cmp         r3, #0
  03938	1a000005	 bne         |$LN2@ChangeMaxP@2|

; 1137 :         m_pPipeQHead ->SetMaxPacketLength(wMaxPacketSize);

  0393c	e1dd13b0	 ldrh        r1, [sp, #0x30]
  03940	e59d302c	 ldr         r3, [sp, #0x2C]
  03944	e2833064	 add         r3, r3, #0x64
  03948	e5930000	 ldr         r0, [r3]
  0394c	eb000000	 bl          |?SetMaxPacketLength@CQH@@QAAXK@Z|

; 1138 :     }
; 1139 :     else {

  03950	ea00000c	 b           |$LN1@ChangeMaxP@2|
  03954		 |$LN2@ChangeMaxP@2|

; 1140 :         ASSERT(FALSE);

  03954	ea000002	 b           |$LN14@ChangeMaxP@2|
  03958	e3a03001	 mov         r3, #1
  0395c	e58d3018	 str         r3, [sp, #0x18]
  03960	ea000008	 b           |$LN15@ChangeMaxP@2|
  03964		 |$LN14@ChangeMaxP@2|
  03964	e3a03b01	 mov         r3, #1, 22
  03968	e3833074	 orr         r3, r3, #0x74
  0396c	e59f2090	 ldr         r2, [pc, #0x90]
  03970	e59f1088	 ldr         r1, [pc, #0x88]
  03974	e59f0080	 ldr         r0, [pc, #0x80]
  03978	eb000000	 bl          NKDbgPrintfW
  0397c	e6000010	 __debugbreak_ce
  03980	e3a03000	 mov         r3, #0
  03984	e58d3018	 str         r3, [sp, #0x18]
  03988		 |$LN15@ChangeMaxP@2|
  03988		 |$LN1@ChangeMaxP@2|

; 1141 :     } 
; 1142 : 
; 1143 :     LeaveCriticalSection( &m_csPipeLock );

  03988	e59d302c	 ldr         r3, [sp, #0x2C]
  0398c	e2830020	 add         r0, r3, #0x20
  03990	eb000000	 bl          LeaveCriticalSection

; 1144 : 
; 1145 :     DEBUGMSG( ZONE_PIPE && ZONE_VERBOSE, (TEXT("%s: -CControlPipe::ChangeMaxPacketSize - new wMaxPacketSize = %d\n"),GetControllerName(), wMaxPacketSize) );

  03994	e59f305c	 ldr         r3, [pc, #0x5C]
  03998	e5933440	 ldr         r3, [r3, #0x440]
  0399c	e3130080	 tst         r3, #0x80
  039a0	0a00000e	 beq         |$LN16@ChangeMaxP@2|
  039a4	e59f304c	 ldr         r3, [pc, #0x4C]
  039a8	e5933440	 ldr         r3, [r3, #0x440]
  039ac	e3130a01	 tst         r3, #1, 20
  039b0	0a00000a	 beq         |$LN16@ChangeMaxP@2|
  039b4	e59d002c	 ldr         r0, [sp, #0x2C]
  039b8	eb000000	 bl          |?GetControllerName@CPipe@@QBAPBGXZ|
  039bc	e58d001c	 str         r0, [sp, #0x1C]
  039c0	e1dd33b0	 ldrh        r3, [sp, #0x30]
  039c4	e1a02003	 mov         r2, r3
  039c8	e59d101c	 ldr         r1, [sp, #0x1C]
  039cc	e59f0020	 ldr         r0, [pc, #0x20]
  039d0	eb000000	 bl          NKDbgPrintfW
  039d4	e3a03001	 mov         r3, #1
  039d8	e58d3020	 str         r3, [sp, #0x20]
  039dc	ea000001	 b           |$LN17@ChangeMaxP@2|
  039e0		 |$LN16@ChangeMaxP@2|
  039e0	e3a03000	 mov         r3, #0
  039e4	e58d3020	 str         r3, [sp, #0x20]
  039e8		 |$LN17@ChangeMaxP@2|

; 1146 : }

  039e8	e28dd024	 add         sp, sp, #0x24
  039ec	e89d6000	 ldmia       sp, {sp, lr}
  039f0	e12fff1e	 bx          lr
  039f4		 |$LN21@ChangeMaxP@2|
  039f4		 |$LN22@ChangeMaxP@2|
  039f4	00000000	 DCD         |??_C@_1IE@GONFHHO@?$AA?$CF?$AAs?$AA?3?$AA?5?$AA?9?$AAC?$AAC?$AAo?$AAn?$AAt?$AAr?$AAo?$AAl?$AAP?$AAi?$AAp?$AAe?$AA?3?$AA?3?$AAC?$AAh?$AAa?$AAn?$AAg?$AAe?$AAM?$AAa?$AAx?$AAP?$AAa?$AAc?$AAk@|
  039f8		 |$LN23@ChangeMaxP@2|
  039f8	00000000	 DCD         |dpCurSettings|
  039fc		 |$LN24@ChangeMaxP@2|
  039fc	00000000	 DCD         |??_C@_1FK@FNONLNGN@?$AA?$CF?$AAs?$AA?3?$AA?5?$AAD?$AAE?$AAB?$AAU?$AAG?$AAC?$AAH?$AAK?$AA?5?$AAf?$AAa?$AAi?$AAl?$AAe?$AAd?$AA?5?$AAi?$AAn?$AA?5?$AAf?$AAi?$AAl?$AAe?$AA?5?$AA?$CF?$AAs?$AA?5?$AAa@|
  03a00		 |$LN25@ChangeMaxP@2|
  03a00	00000000	 DCD         |??_C@_1BA@LEPJIIOK@?$AAU?$AAn?$AAk?$AAn?$AAo?$AAw?$AAn?$AA?$AA@|
  03a04		 |$LN26@ChangeMaxP@2|
  03a04	00000000	 DCD         |??_C@_1LK@LMPDOKKA@?$AAC?$AA?3?$AA?2?$AAW?$AAI?$AAN?$AAC?$AAE?$AA6?$AA0?$AA0?$AA?2?$AAP?$AAL?$AAA?$AAT?$AAF?$AAO?$AAR?$AAM?$AA?2?$AAC?$AAO?$AAM?$AAM?$AAO?$AAN?$AA?2?$AAS?$AAR?$AAC?$AA?2@|
  03a08		 |$LN27@ChangeMaxP@2|
  03a08	00000000	 DCD         |??_C@_1IE@OFIKEOEB@?$AA?$CF?$AAs?$AA?3?$AA?5?$AA?$CL?$AAC?$AAC?$AAo?$AAn?$AAt?$AAr?$AAo?$AAl?$AAP?$AAi?$AAp?$AAe?$AA?3?$AA?3?$AAC?$AAh?$AAa?$AAn?$AAg?$AAe?$AAM?$AAa?$AAx?$AAP?$AAa?$AAc?$AAk@|
  03a0c		 |$M38403|

			 ENDP  ; |?ChangeMaxPacketSize@CControlPipe@@UAAXG@Z|, CControlPipe::ChangeMaxPacketSize

	EXPORT	|??_C@_1IE@IFGPKBNF@?$AA?$CF?$AAs?$AA?3?$AA?5?$AA?9?$AAC?$AAC?$AAo?$AAn?$AAt?$AAr?$AAo?$AAl?$AAP?$AAi?$AAp?$AAe?$AA?3?$AA?3?$AAA?$AAr?$AAe?$AAT?$AAr?$AAa?$AAn?$AAs?$AAf?$AAe?$AAr?$AAP?$AAa@| [ DATA ] ; `string'
	EXPORT	|??_C@_1FO@HEHNOJCF@?$AA?$CF?$AAs?$AA?3?$AA?5?$AA?$CL?$AAC?$AAC?$AAo?$AAn?$AAt?$AAr?$AAo?$AAl?$AAP?$AAi?$AAp?$AAe?$AA?3?$AA?3?$AAA?$AAr?$AAe?$AAT?$AAr?$AAa?$AAn?$AAs?$AAf?$AAe?$AAr?$AAP?$AAa@| [ DATA ] ; `string'

  000f8			 AREA	 |.pdata|, PDATA
|$T38436| DCD	|$LN27@AreTransfe@2|
	DCD	0x4000db04

  00000			 AREA	 |.rdata|, DATA, READONLY
|??_C@_1IE@IFGPKBNF@?$AA?$CF?$AAs?$AA?3?$AA?5?$AA?9?$AAC?$AAC?$AAo?$AAn?$AAt?$AAr?$AAo?$AAl?$AAP?$AAi?$AAp?$AAe?$AA?3?$AA?3?$AAA?$AAr?$AAe?$AAT?$AAr?$AAa?$AAn?$AAs?$AAf?$AAe?$AAr?$AAP?$AAa@| DCB "%"
	DCB	0x0, "s", 0x0, ":", 0x0, " ", 0x0, "-", 0x0, "C", 0x0, "C"
	DCB	0x0, "o", 0x0, "n", 0x0, "t", 0x0, "r", 0x0, "o", 0x0, "l"
	DCB	0x0, "P", 0x0, "i", 0x0, "p", 0x0, "e", 0x0, ":", 0x0, ":"
	DCB	0x0, "A", 0x0, "r", 0x0, "e", 0x0, "T", 0x0, "r", 0x0, "a"
	DCB	0x0, "n", 0x0, "s", 0x0, "f", 0x0, "e", 0x0, "r", 0x0, "P"
	DCB	0x0, "a", 0x0, "r", 0x0, "a", 0x0, "m", 0x0, "e", 0x0, "t"
	DCB	0x0, "e", 0x0, "r", 0x0, "s", 0x0, "V", 0x0, "a", 0x0, "l"
	DCB	0x0, "i", 0x0, "d", 0x0, ",", 0x0, " ", 0x0, "r", 0x0, "e"
	DCB	0x0, "t", 0x0, "u", 0x0, "r", 0x0, "n", 0x0, "i", 0x0, "n"
	DCB	0x0, "g", 0x0, " ", 0x0, "B", 0x0, "O", 0x0, "O", 0x0, "L"
	DCB	0x0, " ", 0x0, "%", 0x0, "d", 0x0, 0xa, 0x0, 0x0, 0x0 ; `string'

  00000			 AREA	 |.rdata|, DATA, READONLY
|??_C@_1FO@HEHNOJCF@?$AA?$CF?$AAs?$AA?3?$AA?5?$AA?$CL?$AAC?$AAC?$AAo?$AAn?$AAt?$AAr?$AAo?$AAl?$AAP?$AAi?$AAp?$AAe?$AA?3?$AA?3?$AAA?$AAr?$AAe?$AAT?$AAr?$AAa?$AAn?$AAs?$AAf?$AAe?$AAr?$AAP?$AAa@| DCB "%"
	DCB	0x0, "s", 0x0, ":", 0x0, " ", 0x0, "+", 0x0, "C", 0x0, "C"
	DCB	0x0, "o", 0x0, "n", 0x0, "t", 0x0, "r", 0x0, "o", 0x0, "l"
	DCB	0x0, "P", 0x0, "i", 0x0, "p", 0x0, "e", 0x0, ":", 0x0, ":"
	DCB	0x0, "A", 0x0, "r", 0x0, "e", 0x0, "T", 0x0, "r", 0x0, "a"
	DCB	0x0, "n", 0x0, "s", 0x0, "f", 0x0, "e", 0x0, "r", 0x0, "P"
	DCB	0x0, "a", 0x0, "r", 0x0, "a", 0x0, "m", 0x0, "e", 0x0, "t"
	DCB	0x0, "e", 0x0, "r", 0x0, "s", 0x0, "V", 0x0, "a", 0x0, "l"
	DCB	0x0, "i", 0x0, "d", 0x0, 0xa, 0x0, 0x0, 0x0 ; `string'
; Function compile flags: /Odtp

  03a0c			 AREA	 |.text|, CODE, ARM

  03a0c		 |?AreTransferParametersValid@CControlPipe@@EBAHPBUSTRANSFER@@@Z| PROC ; CControlPipe::AreTransferParametersValid

; 1160 : {

  03a0c		 |$LN27@AreTransfe@2|
  03a0c	e1a0c00d	 mov         r12, sp
  03a10	e92d0003	 stmdb       sp!, {r0, r1}
  03a14	e92d5000	 stmdb       sp!, {r12, lr}
  03a18	e24dd030	 sub         sp, sp, #0x30
  03a1c		 |$M38433|

; 1161 :     if (pTransfer == NULL)

  03a1c	e59d303c	 ldr         r3, [sp, #0x3C]
  03a20	e3530000	 cmp         r3, #0
  03a24	1a000002	 bne         |$LN4@AreTransfe@2|

; 1162 :         return FALSE;    

  03a28	e3a03000	 mov         r3, #0
  03a2c	e58d3004	 str         r3, [sp, #4]
  03a30	ea0000c6	 b           |$LN5@AreTransfe@2|
  03a34		 |$LN4@AreTransfe@2|

; 1163 :     DEBUGMSG( ZONE_TRANSFER && ZONE_VERBOSE, (TEXT("%s: +CControlPipe::AreTransferParametersValid\n"),GetControllerName()) );

  03a34	e59f3328	 ldr         r3, [pc, #0x328]
  03a38	e5933440	 ldr         r3, [r3, #0x440]
  03a3c	e3130c01	 tst         r3, #1, 24
  03a40	0a00000c	 beq         |$LN7@AreTransfe@2|
  03a44	e59f3318	 ldr         r3, [pc, #0x318]
  03a48	e5933440	 ldr         r3, [r3, #0x440]
  03a4c	e3130a01	 tst         r3, #1, 20
  03a50	0a000008	 beq         |$LN7@AreTransfe@2|
  03a54	e59d0038	 ldr         r0, [sp, #0x38]
  03a58	eb000000	 bl          |?GetControllerName@CPipe@@QBAPBGXZ|
  03a5c	e58d0008	 str         r0, [sp, #8]
  03a60	e59d1008	 ldr         r1, [sp, #8]
  03a64	e59f0308	 ldr         r0, [pc, #0x308]
  03a68	eb000000	 bl          NKDbgPrintfW
  03a6c	e3a03001	 mov         r3, #1
  03a70	e58d300c	 str         r3, [sp, #0xC]
  03a74	ea000001	 b           |$LN8@AreTransfe@2|
  03a78		 |$LN7@AreTransfe@2|
  03a78	e3a03000	 mov         r3, #0
  03a7c	e58d300c	 str         r3, [sp, #0xC]
  03a80		 |$LN8@AreTransfe@2|

; 1164 : 
; 1165 :     // these parameters aren't used by CControlPipe, so if they are non NULL,
; 1166 :     // it doesn't present a serious problem. But, they shouldn't have been
; 1167 :     // passed in as non-NULL by the calling driver.
; 1168 :     DEBUGCHK( pTransfer->adwIsochErrors == NULL && // ISOCH
; 1169 :               pTransfer->adwIsochLengths == NULL && // ISOCH
; 1170 :               pTransfer->aLengths == NULL ); // ISOCH

  03a80	e59d303c	 ldr         r3, [sp, #0x3C]
  03a84	e283302c	 add         r3, r3, #0x2C
  03a88	e5933000	 ldr         r3, [r3]
  03a8c	e3530000	 cmp         r3, #0
  03a90	1a00000c	 bne         |$LN9@AreTransfe@2|
  03a94	e59d303c	 ldr         r3, [sp, #0x3C]
  03a98	e2833030	 add         r3, r3, #0x30
  03a9c	e5933000	 ldr         r3, [r3]
  03aa0	e3530000	 cmp         r3, #0
  03aa4	1a000007	 bne         |$LN9@AreTransfe@2|
  03aa8	e59d303c	 ldr         r3, [sp, #0x3C]
  03aac	e2833018	 add         r3, r3, #0x18
  03ab0	e5933000	 ldr         r3, [r3]
  03ab4	e3530000	 cmp         r3, #0
  03ab8	1a000002	 bne         |$LN9@AreTransfe@2|
  03abc	e3a03001	 mov         r3, #1
  03ac0	e58d3010	 str         r3, [sp, #0x10]
  03ac4	ea000008	 b           |$LN10@AreTransfe@2|
  03ac8		 |$LN9@AreTransfe@2|
  03ac8	e3a03b01	 mov         r3, #1, 22
  03acc	e3833092	 orr         r3, r3, #0x92
  03ad0	e59f2298	 ldr         r2, [pc, #0x298]
  03ad4	e59f1288	 ldr         r1, [pc, #0x288]
  03ad8	e59f0288	 ldr         r0, [pc, #0x288]
  03adc	eb000000	 bl          NKDbgPrintfW
  03ae0	e6000010	 __debugbreak_ce
  03ae4	e3a03000	 mov         r3, #0
  03ae8	e58d3010	 str         r3, [sp, #0x10]
  03aec		 |$LN10@AreTransfe@2|

; 1171 :     // this is also not a serious problem, but shouldn't happen in normal
; 1172 :     // circumstances. It would indicate a logic error in the calling driver.
; 1173 :     DEBUGCHK( !(pTransfer->lpStartAddress == NULL && pTransfer->lpvNotifyParameter != NULL) );

  03aec	e59d303c	 ldr         r3, [sp, #0x3C]
  03af0	e5933000	 ldr         r3, [r3]
  03af4	e3530000	 cmp         r3, #0
  03af8	1a00000e	 bne         |$LN11@AreTransfe@2|
  03afc	e59d303c	 ldr         r3, [sp, #0x3C]
  03b00	e2833004	 add         r3, r3, #4
  03b04	e5933000	 ldr         r3, [r3]
  03b08	e3530000	 cmp         r3, #0
  03b0c	0a000009	 beq         |$LN11@AreTransfe@2|
  03b10	e3a03b01	 mov         r3, #1, 22
  03b14	e3833095	 orr         r3, r3, #0x95
  03b18	e59f2250	 ldr         r2, [pc, #0x250]
  03b1c	e59f1240	 ldr         r1, [pc, #0x240]
  03b20	e59f0240	 ldr         r0, [pc, #0x240]
  03b24	eb000000	 bl          NKDbgPrintfW
  03b28	e6000010	 __debugbreak_ce
  03b2c	e3a03000	 mov         r3, #0
  03b30	e58d3014	 str         r3, [sp, #0x14]
  03b34	ea000001	 b           |$LN12@AreTransfe@2|
  03b38		 |$LN11@AreTransfe@2|
  03b38	e3a03001	 mov         r3, #1
  03b3c	e58d3014	 str         r3, [sp, #0x14]
  03b40		 |$LN12@AreTransfe@2|

; 1174 :     // DWORD                     pTransfer->dwStartingFrame; (ignored - ISOCH)
; 1175 :     // DWORD                     pTransfer->dwFrames; (ignored - ISOCH)
; 1176 : 
; 1177 :     BOOL fValid = ( m_pPipeQHead != NULL &&
; 1178 :                     m_bDeviceAddress <= USB_MAX_ADDRESS &&
; 1179 :                     pTransfer->lpvControlHeader != NULL &&
; 1180 :                     pTransfer->lpfComplete != NULL &&
; 1181 :                     pTransfer->lpdwBytesTransferred != NULL &&
; 1182 :                     pTransfer->lpdwError != NULL );

  03b40	e59d3038	 ldr         r3, [sp, #0x38]
  03b44	e2833064	 add         r3, r3, #0x64
  03b48	e5933000	 ldr         r3, [r3]
  03b4c	e3530000	 cmp         r3, #0
  03b50	0a00001b	 beq         |$LN13@AreTransfe@2|
  03b54	e59d3038	 ldr         r3, [sp, #0x38]
  03b58	e283303b	 add         r3, r3, #0x3B
  03b5c	e5d33000	 ldrb        r3, [r3]
  03b60	e353007f	 cmp         r3, #0x7F
  03b64	ca000016	 bgt         |$LN13@AreTransfe@2|
  03b68	e59d303c	 ldr         r3, [sp, #0x3C]
  03b6c	e283300c	 add         r3, r3, #0xC
  03b70	e5933000	 ldr         r3, [r3]
  03b74	e3530000	 cmp         r3, #0
  03b78	0a000011	 beq         |$LN13@AreTransfe@2|
  03b7c	e59d303c	 ldr         r3, [sp, #0x3C]
  03b80	e2833034	 add         r3, r3, #0x34
  03b84	e5933000	 ldr         r3, [r3]
  03b88	e3530000	 cmp         r3, #0
  03b8c	0a00000c	 beq         |$LN13@AreTransfe@2|
  03b90	e59d303c	 ldr         r3, [sp, #0x3C]
  03b94	e2833038	 add         r3, r3, #0x38
  03b98	e5933000	 ldr         r3, [r3]
  03b9c	e3530000	 cmp         r3, #0
  03ba0	0a000007	 beq         |$LN13@AreTransfe@2|
  03ba4	e59d303c	 ldr         r3, [sp, #0x3C]
  03ba8	e283303c	 add         r3, r3, #0x3C
  03bac	e5933000	 ldr         r3, [r3]
  03bb0	e3530000	 cmp         r3, #0
  03bb4	0a000002	 beq         |$LN13@AreTransfe@2|
  03bb8	e3a03001	 mov         r3, #1
  03bbc	e58d3018	 str         r3, [sp, #0x18]
  03bc0	ea000001	 b           |$LN14@AreTransfe@2|
  03bc4		 |$LN13@AreTransfe@2|
  03bc4	e3a03000	 mov         r3, #0
  03bc8	e58d3018	 str         r3, [sp, #0x18]
  03bcc		 |$LN14@AreTransfe@2|
  03bcc	e59d3018	 ldr         r3, [sp, #0x18]
  03bd0	e58d3000	 str         r3, [sp]

; 1183 :     if ( fValid ) {

  03bd4	e59d3000	 ldr         r3, [sp]
  03bd8	e3530000	 cmp         r3, #0
  03bdc	0a000036	 beq         |$LN3@AreTransfe@2|

; 1184 :         if ( pTransfer->dwFlags & USB_IN_TRANSFER ) {

  03be0	e59d303c	 ldr         r3, [sp, #0x3C]
  03be4	e2833008	 add         r3, r3, #8
  03be8	e5933000	 ldr         r3, [r3]
  03bec	e3130080	 tst         r3, #0x80
  03bf0	0a000011	 beq         |$LN2@AreTransfe@2|

; 1185 :             fValid = (pTransfer->lpvBuffer != NULL &&
; 1186 :                       // paClientBuffer could be 0 or !0
; 1187 :                       pTransfer->dwBufferSize > 0);

  03bf4	e59d303c	 ldr         r3, [sp, #0x3C]
  03bf8	e2833020	 add         r3, r3, #0x20
  03bfc	e5933000	 ldr         r3, [r3]
  03c00	e3530000	 cmp         r3, #0
  03c04	0a000007	 beq         |$LN15@AreTransfe@2|
  03c08	e59d303c	 ldr         r3, [sp, #0x3C]
  03c0c	e283301c	 add         r3, r3, #0x1C
  03c10	e5933000	 ldr         r3, [r3]
  03c14	e3530000	 cmp         r3, #0
  03c18	9a000002	 bls         |$LN15@AreTransfe@2|
  03c1c	e3a03001	 mov         r3, #1
  03c20	e58d301c	 str         r3, [sp, #0x1C]
  03c24	ea000001	 b           |$LN16@AreTransfe@2|
  03c28		 |$LN15@AreTransfe@2|
  03c28	e3a03000	 mov         r3, #0
  03c2c	e58d301c	 str         r3, [sp, #0x1C]
  03c30		 |$LN16@AreTransfe@2|
  03c30	e59d301c	 ldr         r3, [sp, #0x1C]
  03c34	e58d3000	 str         r3, [sp]

; 1188 :         } else {

  03c38	ea00001f	 b           |$LN1@AreTransfe@2|
  03c3c		 |$LN2@AreTransfe@2|

; 1189 :             fValid = ( (pTransfer->lpvBuffer == NULL && 
; 1190 :                         pTransfer->paBuffer == 0 &&
; 1191 :                         pTransfer->dwBufferSize == 0) ||
; 1192 :                        (pTransfer->lpvBuffer != NULL &&
; 1193 :                         // paClientBuffer could be 0 or !0
; 1194 :                         pTransfer->dwBufferSize > 0) );

  03c3c	e59d303c	 ldr         r3, [sp, #0x3C]
  03c40	e2833020	 add         r3, r3, #0x20
  03c44	e5933000	 ldr         r3, [r3]
  03c48	e3530000	 cmp         r3, #0
  03c4c	1a000009	 bne         |$LN17@AreTransfe@2|
  03c50	e59d303c	 ldr         r3, [sp, #0x3C]
  03c54	e2833024	 add         r3, r3, #0x24
  03c58	e5933000	 ldr         r3, [r3]
  03c5c	e3530000	 cmp         r3, #0
  03c60	1a000004	 bne         |$LN17@AreTransfe@2|
  03c64	e59d303c	 ldr         r3, [sp, #0x3C]
  03c68	e283301c	 add         r3, r3, #0x1C
  03c6c	e5933000	 ldr         r3, [r3]
  03c70	e3530000	 cmp         r3, #0
  03c74	0a00000c	 beq         |$LN19@AreTransfe@2|
  03c78		 |$LN17@AreTransfe@2|
  03c78	e59d303c	 ldr         r3, [sp, #0x3C]
  03c7c	e2833020	 add         r3, r3, #0x20
  03c80	e5933000	 ldr         r3, [r3]
  03c84	e3530000	 cmp         r3, #0
  03c88	0a000004	 beq         |$LN18@AreTransfe@2|
  03c8c	e59d303c	 ldr         r3, [sp, #0x3C]
  03c90	e283301c	 add         r3, r3, #0x1C
  03c94	e5933000	 ldr         r3, [r3]
  03c98	e3530000	 cmp         r3, #0
  03c9c	8a000002	 bhi         |$LN19@AreTransfe@2|
  03ca0		 |$LN18@AreTransfe@2|
  03ca0	e3a03000	 mov         r3, #0
  03ca4	e58d3020	 str         r3, [sp, #0x20]
  03ca8	ea000001	 b           |$LN20@AreTransfe@2|
  03cac		 |$LN19@AreTransfe@2|
  03cac	e3a03001	 mov         r3, #1
  03cb0	e58d3020	 str         r3, [sp, #0x20]
  03cb4		 |$LN20@AreTransfe@2|
  03cb4	e59d3020	 ldr         r3, [sp, #0x20]
  03cb8	e58d3000	 str         r3, [sp]
  03cbc		 |$LN1@AreTransfe@2|
  03cbc		 |$LN3@AreTransfe@2|

; 1195 :         }
; 1196 :     }
; 1197 : 
; 1198 :     ASSERT(fValid);

  03cbc	e59d3000	 ldr         r3, [sp]
  03cc0	e3530000	 cmp         r3, #0
  03cc4	0a000002	 beq         |$LN21@AreTransfe@2|
  03cc8	e3a03001	 mov         r3, #1
  03ccc	e58d3024	 str         r3, [sp, #0x24]
  03cd0	ea000008	 b           |$LN22@AreTransfe@2|
  03cd4		 |$LN21@AreTransfe@2|
  03cd4	e3a03b01	 mov         r3, #1, 22
  03cd8	e38330ae	 orr         r3, r3, #0xAE
  03cdc	e59f208c	 ldr         r2, [pc, #0x8C]
  03ce0	e59f1084	 ldr         r1, [pc, #0x84]
  03ce4	e59f007c	 ldr         r0, [pc, #0x7C]
  03ce8	eb000000	 bl          NKDbgPrintfW
  03cec	e6000010	 __debugbreak_ce
  03cf0	e3a03000	 mov         r3, #0
  03cf4	e58d3024	 str         r3, [sp, #0x24]
  03cf8		 |$LN22@AreTransfe@2|

; 1199 :     DEBUGMSG( ZONE_TRANSFER && ZONE_VERBOSE, (TEXT("%s: -CControlPipe::AreTransferParametersValid, returning BOOL %d\n"),GetControllerName(), fValid) );

  03cf8	e59f3064	 ldr         r3, [pc, #0x64]
  03cfc	e5933440	 ldr         r3, [r3, #0x440]
  03d00	e3130c01	 tst         r3, #1, 24
  03d04	0a00000d	 beq         |$LN23@AreTransfe@2|
  03d08	e59f3054	 ldr         r3, [pc, #0x54]
  03d0c	e5933440	 ldr         r3, [r3, #0x440]
  03d10	e3130a01	 tst         r3, #1, 20
  03d14	0a000009	 beq         |$LN23@AreTransfe@2|
  03d18	e59d0038	 ldr         r0, [sp, #0x38]
  03d1c	eb000000	 bl          |?GetControllerName@CPipe@@QBAPBGXZ|
  03d20	e58d0028	 str         r0, [sp, #0x28]
  03d24	e59d2000	 ldr         r2, [sp]
  03d28	e59d1028	 ldr         r1, [sp, #0x28]
  03d2c	e59f002c	 ldr         r0, [pc, #0x2C]
  03d30	eb000000	 bl          NKDbgPrintfW
  03d34	e3a03001	 mov         r3, #1
  03d38	e58d302c	 str         r3, [sp, #0x2C]
  03d3c	ea000001	 b           |$LN24@AreTransfe@2|
  03d40		 |$LN23@AreTransfe@2|
  03d40	e3a03000	 mov         r3, #0
  03d44	e58d302c	 str         r3, [sp, #0x2C]
  03d48		 |$LN24@AreTransfe@2|

; 1200 :     return fValid;

  03d48	e59d3000	 ldr         r3, [sp]
  03d4c	e58d3004	 str         r3, [sp, #4]
  03d50		 |$LN5@AreTransfe@2|

; 1201 : }

  03d50	e59d0004	 ldr         r0, [sp, #4]
  03d54	e28dd030	 add         sp, sp, #0x30
  03d58	e89d6000	 ldmia       sp, {sp, lr}
  03d5c	e12fff1e	 bx          lr
  03d60		 |$LN28@AreTransfe@2|
  03d60		 |$LN29@AreTransfe@2|
  03d60	00000000	 DCD         |??_C@_1IE@IFGPKBNF@?$AA?$CF?$AAs?$AA?3?$AA?5?$AA?9?$AAC?$AAC?$AAo?$AAn?$AAt?$AAr?$AAo?$AAl?$AAP?$AAi?$AAp?$AAe?$AA?3?$AA?3?$AAA?$AAr?$AAe?$AAT?$AAr?$AAa?$AAn?$AAs?$AAf?$AAe?$AAr?$AAP?$AAa@|
  03d64		 |$LN30@AreTransfe@2|
  03d64	00000000	 DCD         |dpCurSettings|
  03d68		 |$LN31@AreTransfe@2|
  03d68	00000000	 DCD         |??_C@_1FK@FNONLNGN@?$AA?$CF?$AAs?$AA?3?$AA?5?$AAD?$AAE?$AAB?$AAU?$AAG?$AAC?$AAH?$AAK?$AA?5?$AAf?$AAa?$AAi?$AAl?$AAe?$AAd?$AA?5?$AAi?$AAn?$AA?5?$AAf?$AAi?$AAl?$AAe?$AA?5?$AA?$CF?$AAs?$AA?5?$AAa@|
  03d6c		 |$LN32@AreTransfe@2|
  03d6c	00000000	 DCD         |??_C@_1BA@LEPJIIOK@?$AAU?$AAn?$AAk?$AAn?$AAo?$AAw?$AAn?$AA?$AA@|
  03d70		 |$LN33@AreTransfe@2|
  03d70	00000000	 DCD         |??_C@_1LK@LMPDOKKA@?$AAC?$AA?3?$AA?2?$AAW?$AAI?$AAN?$AAC?$AAE?$AA6?$AA0?$AA0?$AA?2?$AAP?$AAL?$AAA?$AAT?$AAF?$AAO?$AAR?$AAM?$AA?2?$AAC?$AAO?$AAM?$AAM?$AAO?$AAN?$AA?2?$AAS?$AAR?$AAC?$AA?2@|
  03d74		 |$LN34@AreTransfe@2|
  03d74	00000000	 DCD         |??_C@_1FO@HEHNOJCF@?$AA?$CF?$AAs?$AA?3?$AA?5?$AA?$CL?$AAC?$AAC?$AAo?$AAn?$AAt?$AAr?$AAo?$AAl?$AAP?$AAi?$AAp?$AAe?$AA?3?$AA?3?$AAA?$AAr?$AAe?$AAT?$AAr?$AAa?$AAn?$AAs?$AAf?$AAe?$AAr?$AAP?$AAa@|
  03d78		 |$M38434|

			 ENDP  ; |?AreTransferParametersValid@CControlPipe@@EBAHPBUSTRANSFER@@@Z|, CControlPipe::AreTransferParametersValid

	EXPORT	|??_C@_1EK@NEAOPMED@?$AA?$CF?$AAs?$AA?3?$AA?5?$AA?9?$AAC?$AAI?$AAn?$AAt?$AAe?$AAr?$AAr?$AAu?$AAp?$AAt?$AAP?$AAi?$AAp?$AAe?$AA?3?$AA?3?$AAC?$AAI?$AAn?$AAt?$AAe?$AAr?$AAr?$AAu?$AAp?$AAt?$AAP@| [ DATA ] ; `string'
	EXPORT	|??_C@_1EK@LLAKBEEA@?$AA?$CF?$AAs?$AA?3?$AA?5?$AA?$CL?$AAC?$AAI?$AAn?$AAt?$AAe?$AAr?$AAr?$AAu?$AAp?$AAt?$AAP?$AAi?$AAp?$AAe?$AA?3?$AA?3?$AAC?$AAI?$AAn?$AAt?$AAe?$AAr?$AAr?$AAu?$AAp?$AAt?$AAP@| [ DATA ] ; `string'
	EXPORT	|??_7CInterruptPipe@@6B@| [ DATA ]	; CInterruptPipe::`vftable'
	EXPORT	|??0CInterruptPipe@@QAA@QBU_USB_ENDPOINT_DESCRIPTOR@@HHEEEHQAVCMhcd@@@Z| ; CInterruptPipe::CInterruptPipe
	EXPORT	|?OpenPipe@CInterruptPipe@@UAA?AW4HCD_REQUEST_STATUS@@XZ| ; CInterruptPipe::OpenPipe
	EXPORT	|?ClosePipe@CInterruptPipe@@UAA?AW4HCD_REQUEST_STATUS@@XZ| ; CInterruptPipe::ClosePipe
	EXPORT	|?GetTransferType@CInterruptPipe@@UBA?BKXZ| ; CInterruptPipe::GetTransferType
	EXPORT	|?GetPipeType@CInterruptPipe@@UBAPBGXZ|	; CInterruptPipe::GetPipeType
	EXPORT	|?AreTransferParametersValid@CInterruptPipe@@EBAHPBUSTRANSFER@@@Z| ; CInterruptPipe::AreTransferParametersValid
	IMPORT	|?GetCMASK@USB2lib@@QAAEPAU_EndpointBuget@@@Z| ; USB2lib::GetCMASK
	IMPORT	|?GetSMASK@USB2lib@@QAAEPAU_EndpointBuget@@@Z| ; USB2lib::GetSMASK
	IMPORT	|?AllocUsb2BusTime@USB2lib@@QAAHEEHPAU_EndpointBuget@@@Z| ; USB2lib::AllocUsb2BusTime
	IMPORT	|memset|
	IMPORT	|??_ECInterruptPipe@@UAAPAXI@Z|, WEAK |??_GCInterruptPipe@@UAAPAXI@Z| ; CInterruptPipe::`vector deleting destructor', CInterruptPipe::`scalar deleting destructor'

  00100			 AREA	 |.pdata|, PDATA
|$T38473| DCD	|$LN34@CInterrupt|
	DCD	0x40015404

  00000			 AREA	 |.rdata|, DATA, READONLY
|??_C@_1EK@NEAOPMED@?$AA?$CF?$AAs?$AA?3?$AA?5?$AA?9?$AAC?$AAI?$AAn?$AAt?$AAe?$AAr?$AAr?$AAu?$AAp?$AAt?$AAP?$AAi?$AAp?$AAe?$AA?3?$AA?3?$AAC?$AAI?$AAn?$AAt?$AAe?$AAr?$AAr?$AAu?$AAp?$AAt?$AAP@| DCB "%"
	DCB	0x0, "s", 0x0, ":", 0x0, " ", 0x0, "-", 0x0, "C", 0x0, "I"
	DCB	0x0, "n", 0x0, "t", 0x0, "e", 0x0, "r", 0x0, "r", 0x0, "u"
	DCB	0x0, "p", 0x0, "t", 0x0, "P", 0x0, "i", 0x0, "p", 0x0, "e"
	DCB	0x0, ":", 0x0, ":", 0x0, "C", 0x0, "I", 0x0, "n", 0x0, "t"
	DCB	0x0, "e", 0x0, "r", 0x0, "r", 0x0, "u", 0x0, "p", 0x0, "t"
	DCB	0x0, "P", 0x0, "i", 0x0, "p", 0x0, "e", 0x0, 0xa, 0x0, 0x0
	DCB	0x0					; `string'

  00000			 AREA	 |.rdata|, DATA, READONLY
|??_C@_1EK@LLAKBEEA@?$AA?$CF?$AAs?$AA?3?$AA?5?$AA?$CL?$AAC?$AAI?$AAn?$AAt?$AAe?$AAr?$AAr?$AAu?$AAp?$AAt?$AAP?$AAi?$AAp?$AAe?$AA?3?$AA?3?$AAC?$AAI?$AAn?$AAt?$AAe?$AAr?$AAr?$AAu?$AAp?$AAt?$AAP@| DCB "%"
	DCB	0x0, "s", 0x0, ":", 0x0, " ", 0x0, "+", 0x0, "C", 0x0, "I"
	DCB	0x0, "n", 0x0, "t", 0x0, "e", 0x0, "r", 0x0, "r", 0x0, "u"
	DCB	0x0, "p", 0x0, "t", 0x0, "P", 0x0, "i", 0x0, "p", 0x0, "e"
	DCB	0x0, ":", 0x0, ":", 0x0, "C", 0x0, "I", 0x0, "n", 0x0, "t"
	DCB	0x0, "e", 0x0, "r", 0x0, "r", 0x0, "u", 0x0, "p", 0x0, "t"
	DCB	0x0, "P", 0x0, "i", 0x0, "p", 0x0, "e", 0x0, 0xa, 0x0, 0x0
	DCB	0x0					; `string'

  00000			 AREA	 |.rdata|, DATA, READONLY
|??_7CInterruptPipe@@6B@| DCD |??_ECInterruptPipe@@UAAPAXI@Z| ; CInterruptPipe::`vftable'
	DCD	|?OpenPipe@CInterruptPipe@@UAA?AW4HCD_REQUEST_STATUS@@XZ|
	DCD	|?ClosePipe@CInterruptPipe@@UAA?AW4HCD_REQUEST_STATUS@@XZ|
	DCD	|?IssueTransfer@CQueuedPipe@@UAA?AW4HCD_REQUEST_STATUS@@EQ6AKPAX@ZQAXKQBXKKQBKK2K3QAK5QAH55@Z|
	DCD	|?AbortTransfer@CQueuedPipe@@UAA?AW4HCD_REQUEST_STATUS@@Q6AKPAX@ZQAXPBX@Z|
	DCD	|?IsPipeHalted@CPipe@@UAA?AW4HCD_REQUEST_STATUS@@QAH@Z|
	DCD	|?ClearHaltedFlag@CQueuedPipe@@UAAXXZ|
	DCD	|?ResetEndPoint@CPipe@@UAAXXZ|
	DCD	|?ChangeMaxPacketSize@CPipeAbs@@UAAXG@Z|
	DCD	|?SetReservedDeviceAddr@CPipe@@UAAHE@Z|
	DCD	|?GetReservedDeviceAddr@CPipe@@UAAEXZ|
	DCD	|?GetCPhysMem@CPipe@@UAAPAVCPhysMem@@XZ|
	DCD	|?ScheduleTransfer@CQueuedPipe@@UAA?AW4HCD_REQUEST_STATUS@@XZ|
	DCD	|?CheckForDoneTransfers@CQueuedPipe@@UAAHXZ|
	DCD	|?ProcessEP@CQueuedPipe@@UAAHKH@Z|
	DCD	|?GetTransferType@CInterruptPipe@@UBA?BKXZ|
	DCD	|?GetPipeType@CInterruptPipe@@UBAPBGXZ|
	DCD	|?GetQHead@CQueuedPipe@@UAAPAVCQH@@XZ|
	DCD	|?AreTransferParametersValid@CInterruptPipe@@EBAHPBUSTRANSFER@@@Z|
; Function compile flags: /Odtp

  03d78			 AREA	 |.text|, CODE, ARM

  03d78		 |??0CInterruptPipe@@QAA@QBU_USB_ENDPOINT_DESCRIPTOR@@HHEEEHQAVCMhcd@@@Z| PROC ; CInterruptPipe::CInterruptPipe

; 1219 : {

  03d78		 |$LN34@CInterrupt|
  03d78	e1a0c00d	 mov         r12, sp
  03d7c	e92d000f	 stmdb       sp!, {r0 - r3}
  03d80	e92d5000	 stmdb       sp!, {r12, lr}
  03d84	e24dd06c	 sub         sp, sp, #0x6C
  03d88		 |$M38470|
  03d88	e59d3094	 ldr         r3, [sp, #0x94]
  03d8c	e58d3010	 str         r3, [sp, #0x10]
  03d90	e59d3090	 ldr         r3, [sp, #0x90]
  03d94	e58d300c	 str         r3, [sp, #0xC]
  03d98	e5dd308c	 ldrb        r3, [sp, #0x8C]
  03d9c	e58d3008	 str         r3, [sp, #8]
  03da0	e5dd3088	 ldrb        r3, [sp, #0x88]
  03da4	e58d3004	 str         r3, [sp, #4]
  03da8	e5dd3084	 ldrb        r3, [sp, #0x84]
  03dac	e58d3000	 str         r3, [sp]
  03db0	e59d3080	 ldr         r3, [sp, #0x80]
  03db4	e59d207c	 ldr         r2, [sp, #0x7C]
  03db8	e59d1078	 ldr         r1, [sp, #0x78]
  03dbc	e59d0074	 ldr         r0, [sp, #0x74]
  03dc0	eb000000	 bl          |??0CQueuedPipe@@QAA@QBU_USB_ENDPOINT_DESCRIPTOR@@HHEEEHQAVCMhcd@@@Z|
  03dc4	e58d0034	 str         r0, [sp, #0x34]
  03dc8	e59f24f4	 ldr         r2, [pc, #0x4F4]
  03dcc	e59d3074	 ldr         r3, [sp, #0x74]
  03dd0	e5832000	 str         r2, [r3]

; 1220 :     DEBUGMSG( ZONE_PIPE && ZONE_VERBOSE, (TEXT("%s: +CInterruptPipe::CInterruptPipe\n"),GetControllerName()) );

  03dd4	e59f34d4	 ldr         r3, [pc, #0x4D4]
  03dd8	e5933440	 ldr         r3, [r3, #0x440]
  03ddc	e3130080	 tst         r3, #0x80
  03de0	0a00000c	 beq         |$LN14@CInterrupt|
  03de4	e59f34c4	 ldr         r3, [pc, #0x4C4]
  03de8	e5933440	 ldr         r3, [r3, #0x440]
  03dec	e3130a01	 tst         r3, #1, 20
  03df0	0a000008	 beq         |$LN14@CInterrupt|
  03df4	e59d0074	 ldr         r0, [sp, #0x74]
  03df8	eb000000	 bl          |?GetControllerName@CPipe@@QBAPBGXZ|
  03dfc	e58d0038	 str         r0, [sp, #0x38]
  03e00	e59d1038	 ldr         r1, [sp, #0x38]
  03e04	e59f04b4	 ldr         r0, [pc, #0x4B4]
  03e08	eb000000	 bl          NKDbgPrintfW
  03e0c	e3a03001	 mov         r3, #1
  03e10	e58d303c	 str         r3, [sp, #0x3C]
  03e14	ea000001	 b           |$LN15@CInterrupt|
  03e18		 |$LN14@CInterrupt|
  03e18	e3a03000	 mov         r3, #0
  03e1c	e58d303c	 str         r3, [sp, #0x3C]
  03e20		 |$LN15@CInterrupt|

; 1221 :     DEBUGCHK( m_usbEndpointDescriptor.bDescriptorType == USB_ENDPOINT_DESCRIPTOR_TYPE &&
; 1222 :               m_usbEndpointDescriptor.bLength >= sizeof( USB_ENDPOINT_DESCRIPTOR ) &&
; 1223 :               (m_usbEndpointDescriptor.bmAttributes & USB_ENDPOINT_TYPE_MASK) == USB_ENDPOINT_TYPE_INTERRUPT );

  03e20	e59d3074	 ldr         r3, [sp, #0x74]
  03e24	e2833035	 add         r3, r3, #0x35
  03e28	e5d33000	 ldrb        r3, [r3]
  03e2c	e3530005	 cmp         r3, #5
  03e30	1a00000d	 bne         |$LN16@CInterrupt|
  03e34	e59d3074	 ldr         r3, [sp, #0x74]
  03e38	e2833034	 add         r3, r3, #0x34
  03e3c	e5d33000	 ldrb        r3, [r3]
  03e40	e3530007	 cmp         r3, #7
  03e44	3a000008	 bcc         |$LN16@CInterrupt|
  03e48	e59d3074	 ldr         r3, [sp, #0x74]
  03e4c	e2833037	 add         r3, r3, #0x37
  03e50	e5d33000	 ldrb        r3, [r3]
  03e54	e2033003	 and         r3, r3, #3
  03e58	e3530003	 cmp         r3, #3
  03e5c	1a000002	 bne         |$LN16@CInterrupt|
  03e60	e3a03001	 mov         r3, #1
  03e64	e58d3040	 str         r3, [sp, #0x40]
  03e68	ea000008	 b           |$LN17@CInterrupt|
  03e6c		 |$LN16@CInterrupt|
  03e6c	e3a03b01	 mov         r3, #1, 22
  03e70	e38330c7	 orr         r3, r3, #0xC7
  03e74	e59f2440	 ldr         r2, [pc, #0x440]
  03e78	e59f1430	 ldr         r1, [pc, #0x430]
  03e7c	e59f0430	 ldr         r0, [pc, #0x430]
  03e80	eb000000	 bl          NKDbgPrintfW
  03e84	e6000010	 __debugbreak_ce
  03e88	e3a03000	 mov         r3, #0
  03e8c	e58d3040	 str         r3, [sp, #0x40]
  03e90		 |$LN17@CInterrupt|

; 1224 :     // Note: Need Get S-MASK and C-MASK...
; 1225 :     
; 1226 :     memset(&m_EndptBuget,0,sizeof(m_EndptBuget));

  03e90	e3a02018	 mov         r2, #0x18
  03e94	e3a01000	 mov         r1, #0
  03e98	e59d3074	 ldr         r3, [sp, #0x74]
  03e9c	e2830070	 add         r0, r3, #0x70
  03ea0	eb000000	 bl          memset

; 1227 :     m_EndptBuget.max_packet= lpEndpointDescriptor->wMaxPacketSize & 0x7ff;

  03ea4	e59d3078	 ldr         r3, [sp, #0x78]
  03ea8	e2831004	 add         r1, r3, #4
  03eac	e5d13001	 ldrb        r3, [r1, #1]
  03eb0	e1a03403	 mov         r3, r3, lsl #8
  03eb4	e1a02803	 mov         r2, r3, lsl #16
  03eb8	e1a02822	 mov         r2, r2, lsr #16
  03ebc	e5d13000	 ldrb        r3, [r1]
  03ec0	e1833002	 orr         r3, r3, r2
  03ec4	e1a02003	 mov         r2, r3
  03ec8	e3a03c07	 mov         r3, #7, 24
  03ecc	e38330ff	 orr         r3, r3, #0xFF
  03ed0	e0023003	 and         r3, r2, r3
  03ed4	e1a02803	 mov         r2, r3, lsl #16
  03ed8	e1a02822	 mov         r2, r2, lsr #16
  03edc	e59d3074	 ldr         r3, [sp, #0x74]
  03ee0	e2833070	 add         r3, r3, #0x70
  03ee4	e1c320b0	 strh        r2, [r3]

; 1228 :     BYTE bInterval=lpEndpointDescriptor->bInterval;

  03ee8	e59d3078	 ldr         r3, [sp, #0x78]
  03eec	e2833006	 add         r3, r3, #6
  03ef0	e5d33000	 ldrb        r3, [r3]
  03ef4	e5cd3014	 strb        r3, [sp, #0x14]

; 1229 :     if (bInterval==0)

  03ef8	e5dd3014	 ldrb        r3, [sp, #0x14]
  03efc	e3530000	 cmp         r3, #0
  03f00	1a000001	 bne         |$LN11@CInterrupt|

; 1230 :         bInterval=1;

  03f04	e3a03001	 mov         r3, #1
  03f08	e5cd3014	 strb        r3, [sp, #0x14]
  03f0c		 |$LN11@CInterrupt|

; 1231 :     if (fIsHighSpeed) { // Table 9-13

  03f0c	e59d3080	 ldr         r3, [sp, #0x80]
  03f10	e3530000	 cmp         r3, #0
  03f14	0a00001d	 beq         |$LN10@CInterrupt|

; 1232 :         m_EndptBuget.max_packet *=(((lpEndpointDescriptor->wMaxPacketSize >>11) & 3)+1);

  03f18	e59d3074	 ldr         r3, [sp, #0x74]
  03f1c	e2830070	 add         r0, r3, #0x70
  03f20	e59d3078	 ldr         r3, [sp, #0x78]
  03f24	e2831004	 add         r1, r3, #4
  03f28	e5d13001	 ldrb        r3, [r1, #1]
  03f2c	e1a03403	 mov         r3, r3, lsl #8
  03f30	e1a02803	 mov         r2, r3, lsl #16
  03f34	e1a02822	 mov         r2, r2, lsr #16
  03f38	e5d13000	 ldrb        r3, [r1]
  03f3c	e1833002	 orr         r3, r3, r2
  03f40	e1a035c3	 mov         r3, r3, asr #11
  03f44	e2033003	 and         r3, r3, #3
  03f48	e2832001	 add         r2, r3, #1
  03f4c	e1d030b0	 ldrh        r3, [r0]
  03f50	e0010293	 mul         r1, r3, r2
  03f54	e59d3074	 ldr         r3, [sp, #0x74]
  03f58	e2832070	 add         r2, r3, #0x70
  03f5c	e1a03801	 mov         r3, r1, lsl #16
  03f60	e1a03823	 mov         r3, r3, lsr #16
  03f64	e1c230b0	 strh        r3, [r2]

; 1233 :         m_EndptBuget.period = (1<< (bInterval-1));

  03f68	e5dd3014	 ldrb        r3, [sp, #0x14]
  03f6c	e2432001	 sub         r2, r3, #1
  03f70	e3a03001	 mov         r3, #1
  03f74	e1a03213	 mov         r3, r3, lsl r2
  03f78	e1a02803	 mov         r2, r3, lsl #16
  03f7c	e1a02822	 mov         r2, r2, lsr #16
  03f80	e59d3074	 ldr         r3, [sp, #0x74]
  03f84	e2833072	 add         r3, r3, #0x72
  03f88	e1c320b0	 strh        r2, [r3]

; 1234 :     }
; 1235 :     else {

  03f8c	ea00001a	 b           |$LN9@CInterrupt|
  03f90		 |$LN10@CInterrupt|

; 1236 :         m_EndptBuget.period = bInterval;

  03f90	e5dd2014	 ldrb        r2, [sp, #0x14]
  03f94	e59d3074	 ldr         r3, [sp, #0x74]
  03f98	e2833072	 add         r3, r3, #0x72
  03f9c	e1c320b0	 strh        r2, [r3]

; 1237 :         for (UCHAR uBit=0x80;uBit!=0;uBit>>=1) {

  03fa0	e3a03080	 mov         r3, #0x80
  03fa4	e5cd3015	 strb        r3, [sp, #0x15]
  03fa8	ea000003	 b           |$LN8@CInterrupt|
  03fac		 |$LN7@CInterrupt|
  03fac	e5dd3015	 ldrb        r3, [sp, #0x15]
  03fb0	e1a030a3	 mov         r3, r3, lsr #1
  03fb4	e20330ff	 and         r3, r3, #0xFF
  03fb8	e5cd3015	 strb        r3, [sp, #0x15]
  03fbc		 |$LN8@CInterrupt|
  03fbc	e5dd3015	 ldrb        r3, [sp, #0x15]
  03fc0	e3530000	 cmp         r3, #0
  03fc4	0a00000c	 beq         |$LN6@CInterrupt|

; 1238 :             if ((m_EndptBuget.period & uBit)!=0) {

  03fc8	e59d3074	 ldr         r3, [sp, #0x74]
  03fcc	e2833072	 add         r3, r3, #0x72
  03fd0	e1d330b0	 ldrh        r3, [r3]
  03fd4	e1a02003	 mov         r2, r3
  03fd8	e5dd3015	 ldrb        r3, [sp, #0x15]
  03fdc	e1120003	 tst         r2, r3
  03fe0	0a000004	 beq         |$LN5@CInterrupt|

; 1239 :                 m_EndptBuget.period = uBit;

  03fe4	e5dd2015	 ldrb        r2, [sp, #0x15]
  03fe8	e59d3074	 ldr         r3, [sp, #0x74]
  03fec	e2833072	 add         r3, r3, #0x72
  03ff0	e1c320b0	 strh        r2, [r3]

; 1240 :                 break;

  03ff4	ea000000	 b           |$LN6@CInterrupt|
  03ff8		 |$LN5@CInterrupt|

; 1241 :             }
; 1242 :         }

  03ff8	eaffffeb	 b           |$LN7@CInterrupt|
  03ffc		 |$LN6@CInterrupt|
  03ffc		 |$LN9@CInterrupt|

; 1243 :     }
; 1244 :     ASSERT(m_EndptBuget.period!=0);

  03ffc	e59d3074	 ldr         r3, [sp, #0x74]
  04000	e2833072	 add         r3, r3, #0x72
  04004	e1d330b0	 ldrh        r3, [r3]
  04008	e3530000	 cmp         r3, #0
  0400c	0a000002	 beq         |$LN18@CInterrupt|
  04010	e3a03001	 mov         r3, #1
  04014	e58d3044	 str         r3, [sp, #0x44]
  04018	ea000008	 b           |$LN19@CInterrupt|
  0401c		 |$LN18@CInterrupt|
  0401c	e3a03b01	 mov         r3, #1, 22
  04020	e38330dc	 orr         r3, r3, #0xDC
  04024	e59f2290	 ldr         r2, [pc, #0x290]
  04028	e59f1288	 ldr         r1, [pc, #0x288]
  0402c	e59f0280	 ldr         r0, [pc, #0x280]
  04030	eb000000	 bl          NKDbgPrintfW
  04034	e6000010	 __debugbreak_ce
  04038	e3a03000	 mov         r3, #0
  0403c	e58d3044	 str         r3, [sp, #0x44]
  04040		 |$LN19@CInterrupt|

; 1245 :     m_EndptBuget.ep_type = interrupt ;

  04040	e59d3074	 ldr         r3, [sp, #0x74]
  04044	e2832074	 add         r2, r3, #0x74
  04048	e3a03002	 mov         r3, #2
  0404c	e5823000	 str         r3, [r2]

; 1246 :     m_EndptBuget.type= lpEndpointDescriptor->bDescriptorType;

  04050	e59d3078	 ldr         r3, [sp, #0x78]
  04054	e2831001	 add         r1, r3, #1
  04058	e59d3074	 ldr         r3, [sp, #0x74]
  0405c	e2832078	 add         r2, r3, #0x78
  04060	e5d13000	 ldrb        r3, [r1]
  04064	e5c23000	 strb        r3, [r2]

; 1247 :     m_EndptBuget.direction =  (USB_ENDPOINT_DIRECTION_OUT(lpEndpointDescriptor->bEndpointAddress)?OUTDIR:INDIR);

  04068	e59d3078	 ldr         r3, [sp, #0x78]
  0406c	e2833002	 add         r3, r3, #2
  04070	e5d33000	 ldrb        r3, [r3]
  04074	e3130080	 tst         r3, #0x80
  04078	1a000002	 bne         |$LN20@CInterrupt|
  0407c	e3a03001	 mov         r3, #1
  04080	e58d3048	 str         r3, [sp, #0x48]
  04084	ea000001	 b           |$LN21@CInterrupt|
  04088		 |$LN20@CInterrupt|
  04088	e3a03000	 mov         r3, #0
  0408c	e58d3048	 str         r3, [sp, #0x48]
  04090		 |$LN21@CInterrupt|
  04090	e59d3048	 ldr         r3, [sp, #0x48]
  04094	e20320ff	 and         r2, r3, #0xFF
  04098	e59d3074	 ldr         r3, [sp, #0x74]
  0409c	e2833079	 add         r3, r3, #0x79
  040a0	e5c32000	 strb        r2, [r3]

; 1248 :     m_EndptBuget.speed=(fIsHighSpeed?HSSPEED:(fIsLowSpeed?LSSPEED:FSSPEED));

  040a4	e59d3080	 ldr         r3, [sp, #0x80]
  040a8	e3530000	 cmp         r3, #0
  040ac	0a000002	 beq         |$LN24@CInterrupt|
  040b0	e3a03002	 mov         r3, #2
  040b4	e58d304c	 str         r3, [sp, #0x4C]
  040b8	ea000009	 b           |$LN25@CInterrupt|
  040bc		 |$LN24@CInterrupt|
  040bc	e59d307c	 ldr         r3, [sp, #0x7C]
  040c0	e3530000	 cmp         r3, #0
  040c4	0a000002	 beq         |$LN22@CInterrupt|
  040c8	e3a03000	 mov         r3, #0
  040cc	e58d3050	 str         r3, [sp, #0x50]
  040d0	ea000001	 b           |$LN23@CInterrupt|
  040d4		 |$LN22@CInterrupt|
  040d4	e3a03001	 mov         r3, #1
  040d8	e58d3050	 str         r3, [sp, #0x50]
  040dc		 |$LN23@CInterrupt|
  040dc	e59d3050	 ldr         r3, [sp, #0x50]
  040e0	e58d304c	 str         r3, [sp, #0x4C]
  040e4		 |$LN25@CInterrupt|
  040e4	e59d304c	 ldr         r3, [sp, #0x4C]
  040e8	e20320ff	 and         r2, r3, #0xFF
  040ec	e59d3074	 ldr         r3, [sp, #0x74]
  040f0	e283307a	 add         r3, r3, #0x7A
  040f4	e5c32000	 strb        r2, [r3]

; 1249 : 
; 1250 :     m_bSuccess= pCMhcd->AllocUsb2BusTime(bHubAddress,bHubPort,m_TTContext,&m_EndptBuget);

  040f8	e59d3074	 ldr         r3, [sp, #0x74]
  040fc	e2833070	 add         r3, r3, #0x70
  04100	e58d3000	 str         r3, [sp]
  04104	e59d3074	 ldr         r3, [sp, #0x74]
  04108	e2833010	 add         r3, r3, #0x10
  0410c	e5933000	 ldr         r3, [r3]
  04110	e5dd208c	 ldrb        r2, [sp, #0x8C]
  04114	e5dd1088	 ldrb        r1, [sp, #0x88]
  04118	e59d0094	 ldr         r0, [sp, #0x94]
  0411c	e2800fab	 add         r0, r0, #0xAB, 30
  04120	eb000000	 bl          |?AllocUsb2BusTime@USB2lib@@QAAHEEHPAU_EndpointBuget@@@Z|
  04124	e58d0054	 str         r0, [sp, #0x54]
  04128	e59d3074	 ldr         r3, [sp, #0x74]
  0412c	e2832088	 add         r2, r3, #0x88
  04130	e59d3054	 ldr         r3, [sp, #0x54]
  04134	e5823000	 str         r3, [r2]

; 1251 :     ASSERT(m_bSuccess);

  04138	e59d3074	 ldr         r3, [sp, #0x74]
  0413c	e2833088	 add         r3, r3, #0x88
  04140	e5933000	 ldr         r3, [r3]
  04144	e3530000	 cmp         r3, #0
  04148	0a000002	 beq         |$LN26@CInterrupt|
  0414c	e3a03001	 mov         r3, #1
  04150	e58d3058	 str         r3, [sp, #0x58]
  04154	ea000008	 b           |$LN27@CInterrupt|
  04158		 |$LN26@CInterrupt|
  04158	e3a03b01	 mov         r3, #1, 22
  0415c	e38330e3	 orr         r3, r3, #0xE3
  04160	e59f2154	 ldr         r2, [pc, #0x154]
  04164	e59f114c	 ldr         r1, [pc, #0x14C]
  04168	e59f0144	 ldr         r0, [pc, #0x144]
  0416c	eb000000	 bl          NKDbgPrintfW
  04170	e6000010	 __debugbreak_ce
  04174	e3a03000	 mov         r3, #0
  04178	e58d3058	 str         r3, [sp, #0x58]
  0417c		 |$LN27@CInterrupt|

; 1252 :     if (m_bSuccess ) {

  0417c	e59d3074	 ldr         r3, [sp, #0x74]
  04180	e2833088	 add         r3, r3, #0x88
  04184	e5933000	 ldr         r3, [r3]
  04188	e3530000	 cmp         r3, #0
  0418c	0a000020	 beq         |$LN4@CInterrupt|

; 1253 :         if (fIsHighSpeed) { // Update SMask and CMask for Slit Interrupt Endpoitt

  04190	e59d3080	 ldr         r3, [sp, #0x80]
  04194	e3530000	 cmp         r3, #0
  04198	0a000008	 beq         |$LN3@CInterrupt|

; 1254 :             m_bFrameSMask = 0xff;

  0419c	e59d3074	 ldr         r3, [sp, #0x74]
  041a0	e283201d	 add         r2, r3, #0x1D
  041a4	e3a030ff	 mov         r3, #0xFF
  041a8	e5c23000	 strb        r3, [r2]

; 1255 :             m_bFrameCMask = 0;

  041ac	e59d3074	 ldr         r3, [sp, #0x74]
  041b0	e283201e	 add         r2, r3, #0x1E
  041b4	e3a03000	 mov         r3, #0
  041b8	e5c23000	 strb        r3, [r2]

; 1256 :         }
; 1257 :         else {

  041bc	ea000013	 b           |$LN2@CInterrupt|
  041c0		 |$LN3@CInterrupt|

; 1258 :             m_bFrameSMask=pCMhcd->GetSMASK(&m_EndptBuget);

  041c0	e59d3074	 ldr         r3, [sp, #0x74]
  041c4	e2831070	 add         r1, r3, #0x70
  041c8	e59d3094	 ldr         r3, [sp, #0x94]
  041cc	e2830fab	 add         r0, r3, #0xAB, 30
  041d0	eb000000	 bl          |?GetSMASK@USB2lib@@QAAEPAU_EndpointBuget@@@Z|
  041d4	e5cd005c	 strb        r0, [sp, #0x5C]
  041d8	e59d3074	 ldr         r3, [sp, #0x74]
  041dc	e283201d	 add         r2, r3, #0x1D
  041e0	e5dd305c	 ldrb        r3, [sp, #0x5C]
  041e4	e5c23000	 strb        r3, [r2]

; 1259 :             m_bFrameCMask=pCMhcd->GetCMASK(&m_EndptBuget);

  041e8	e59d3074	 ldr         r3, [sp, #0x74]
  041ec	e2831070	 add         r1, r3, #0x70
  041f0	e59d3094	 ldr         r3, [sp, #0x94]
  041f4	e2830fab	 add         r0, r3, #0xAB, 30
  041f8	eb000000	 bl          |?GetCMASK@USB2lib@@QAAEPAU_EndpointBuget@@@Z|
  041fc	e5cd005d	 strb        r0, [sp, #0x5D]
  04200	e59d3074	 ldr         r3, [sp, #0x74]
  04204	e283201e	 add         r2, r3, #0x1E
  04208	e5dd305d	 ldrb        r3, [sp, #0x5D]
  0420c	e5c23000	 strb        r3, [r2]
  04210		 |$LN2@CInterrupt|

; 1260 :         }
; 1261 :     }
; 1262 :     else {

  04210	ea00000c	 b           |$LN1@CInterrupt|
  04214		 |$LN4@CInterrupt|

; 1263 :         ASSERT(FALSE);

  04214	ea000002	 b           |$LN28@CInterrupt|
  04218	e3a03001	 mov         r3, #1
  0421c	e58d3060	 str         r3, [sp, #0x60]
  04220	ea000008	 b           |$LN29@CInterrupt|
  04224		 |$LN28@CInterrupt|
  04224	e3a03b01	 mov         r3, #1, 22
  04228	e38330ef	 orr         r3, r3, #0xEF
  0422c	e59f2088	 ldr         r2, [pc, #0x88]
  04230	e59f1080	 ldr         r1, [pc, #0x80]
  04234	e59f0078	 ldr         r0, [pc, #0x78]
  04238	eb000000	 bl          NKDbgPrintfW
  0423c	e6000010	 __debugbreak_ce
  04240	e3a03000	 mov         r3, #0
  04244	e58d3060	 str         r3, [sp, #0x60]
  04248		 |$LN29@CInterrupt|
  04248		 |$LN1@CInterrupt|

; 1264 :     }
; 1265 : 
; 1266 :     DEBUGMSG( ZONE_PIPE && ZONE_VERBOSE, (TEXT("%s: -CInterruptPipe::CInterruptPipe\n"),GetControllerName()) );

  04248	e59f3060	 ldr         r3, [pc, #0x60]
  0424c	e5933440	 ldr         r3, [r3, #0x440]
  04250	e3130080	 tst         r3, #0x80
  04254	0a00000c	 beq         |$LN30@CInterrupt|
  04258	e59f3050	 ldr         r3, [pc, #0x50]
  0425c	e5933440	 ldr         r3, [r3, #0x440]
  04260	e3130a01	 tst         r3, #1, 20
  04264	0a000008	 beq         |$LN30@CInterrupt|
  04268	e59d0074	 ldr         r0, [sp, #0x74]
  0426c	eb000000	 bl          |?GetControllerName@CPipe@@QBAPBGXZ|
  04270	e58d0064	 str         r0, [sp, #0x64]
  04274	e59d1064	 ldr         r1, [sp, #0x64]
  04278	e59f002c	 ldr         r0, [pc, #0x2C]
  0427c	eb000000	 bl          NKDbgPrintfW
  04280	e3a03001	 mov         r3, #1
  04284	e58d3068	 str         r3, [sp, #0x68]
  04288	ea000001	 b           |$LN31@CInterrupt|
  0428c		 |$LN30@CInterrupt|
  0428c	e3a03000	 mov         r3, #0
  04290	e58d3068	 str         r3, [sp, #0x68]
  04294		 |$LN31@CInterrupt|

; 1267 : }

  04294	e59d3074	 ldr         r3, [sp, #0x74]
  04298	e58d3030	 str         r3, [sp, #0x30]
  0429c	e59d0030	 ldr         r0, [sp, #0x30]
  042a0	e28dd06c	 add         sp, sp, #0x6C
  042a4	e89d6000	 ldmia       sp, {sp, lr}
  042a8	e12fff1e	 bx          lr
  042ac		 |$LN35@CInterrupt|
  042ac		 |$LN36@CInterrupt|
  042ac	00000000	 DCD         |??_C@_1EK@NEAOPMED@?$AA?$CF?$AAs?$AA?3?$AA?5?$AA?9?$AAC?$AAI?$AAn?$AAt?$AAe?$AAr?$AAr?$AAu?$AAp?$AAt?$AAP?$AAi?$AAp?$AAe?$AA?3?$AA?3?$AAC?$AAI?$AAn?$AAt?$AAe?$AAr?$AAr?$AAu?$AAp?$AAt?$AAP@|
  042b0		 |$LN37@CInterrupt|
  042b0	00000000	 DCD         |dpCurSettings|
  042b4		 |$LN38@CInterrupt|
  042b4	00000000	 DCD         |??_C@_1FK@FNONLNGN@?$AA?$CF?$AAs?$AA?3?$AA?5?$AAD?$AAE?$AAB?$AAU?$AAG?$AAC?$AAH?$AAK?$AA?5?$AAf?$AAa?$AAi?$AAl?$AAe?$AAd?$AA?5?$AAi?$AAn?$AA?5?$AAf?$AAi?$AAl?$AAe?$AA?5?$AA?$CF?$AAs?$AA?5?$AAa@|
  042b8		 |$LN39@CInterrupt|
  042b8	00000000	 DCD         |??_C@_1BA@LEPJIIOK@?$AAU?$AAn?$AAk?$AAn?$AAo?$AAw?$AAn?$AA?$AA@|
  042bc		 |$LN40@CInterrupt|
  042bc	00000000	 DCD         |??_C@_1LK@LMPDOKKA@?$AAC?$AA?3?$AA?2?$AAW?$AAI?$AAN?$AAC?$AAE?$AA6?$AA0?$AA0?$AA?2?$AAP?$AAL?$AAA?$AAT?$AAF?$AAO?$AAR?$AAM?$AA?2?$AAC?$AAO?$AAM?$AAM?$AAO?$AAN?$AA?2?$AAS?$AAR?$AAC?$AA?2@|
  042c0		 |$LN41@CInterrupt|
  042c0	00000000	 DCD         |??_C@_1EK@LLAKBEEA@?$AA?$CF?$AAs?$AA?3?$AA?5?$AA?$CL?$AAC?$AAI?$AAn?$AAt?$AAe?$AAr?$AAr?$AAu?$AAp?$AAt?$AAP?$AAi?$AAp?$AAe?$AA?3?$AA?3?$AAC?$AAI?$AAn?$AAt?$AAe?$AAr?$AAr?$AAu?$AAp?$AAt?$AAP@|
  042c4		 |$LN42@CInterrupt|
  042c4	00000000	 DCD         |??_7CInterruptPipe@@6B@|
  042c8		 |$M38471|

			 ENDP  ; |??0CInterruptPipe@@QAA@QBU_USB_ENDPOINT_DESCRIPTOR@@HHEEEHQAVCMhcd@@@Z|, CInterruptPipe::CInterruptPipe

; File c:\wince600\platform\common\src\soc\common_ti_v1\omap3530\musb\musbhcd\musbmhdrc\cpipe.h

  00000			 AREA	 |.pdata|, PDATA
|$T38487| DCD	|$LN5@GetTransfe@5|
	DCD	0x40000a04
; Function compile flags: /Odtp

  00000			 AREA	 |.text|, CODE, ARM

  00000		 |?GetTransferType@CInterruptPipe@@UBA?BKXZ| PROC ; CInterruptPipe::GetTransferType

; 358  :     {

  00000		 |$LN5@GetTransfe@5|
  00000	e1a0c00d	 mov         r12, sp
  00004	e92d0001	 stmdb       sp!, {r0}
  00008	e92d5000	 stmdb       sp!, {r12, lr}
  0000c	e24dd004	 sub         sp, sp, #4
  00010		 |$M38484|

; 359  :         return USB_ENDPOINT_TYPE_INTERRUPT;

  00010	e3a03003	 mov         r3, #3
  00014	e58d3000	 str         r3, [sp]

; 360  :     }

  00018	e59d0000	 ldr         r0, [sp]
  0001c	e28dd004	 add         sp, sp, #4
  00020	e89d6000	 ldmia       sp, {sp, lr}
  00024	e12fff1e	 bx          lr
  00028		 |$M38485|

			 ENDP  ; |?GetTransferType@CInterruptPipe@@UBA?BKXZ|, CInterruptPipe::GetTransferType

	EXPORT	|?cszPipeType@?1??GetPipeType@CInterruptPipe@@UBAPBGXZ@4PBGB| [ DATA ] ; `CInterruptPipe::GetPipeType'::`2'::cszPipeType
	EXPORT	|??_C@_1BE@PBKDACKD@?$AAI?$AAn?$AAt?$AAe?$AAr?$AAr?$AAu?$AAp?$AAt?$AA?$AA@| [ DATA ] ; `string'

  00000			 AREA	 |.pdata|, PDATA
|$T38495| DCD	|$LN5@GetPipeTyp@3|
	DCD	0x40000c04

  00000			 AREA	 |.rdata|, DATA, READONLY
|??_C@_1BE@PBKDACKD@?$AAI?$AAn?$AAt?$AAe?$AAr?$AAr?$AAu?$AAp?$AAt?$AA?$AA@| DCB "I"
	DCB	0x0, "n", 0x0, "t", 0x0, "e", 0x0, "r", 0x0, "r", 0x0, "u"
	DCB	0x0, "p", 0x0, "t", 0x0, 0x0, 0x0	; `string'

  00000			 AREA	 |.data|, DATA
|?cszPipeType@?1??GetPipeType@CInterruptPipe@@UBAPBGXZ@4PBGB| DCD |??_C@_1BE@PBKDACKD@?$AAI?$AAn?$AAt?$AAe?$AAr?$AAr?$AAu?$AAp?$AAt?$AA?$AA@| ; `CInterruptPipe::GetPipeType'::`2'::cszPipeType
; Function compile flags: /Odtp

  00000			 AREA	 |.text|, CODE, ARM

  00000		 |?GetPipeType@CInterruptPipe@@UBAPBGXZ| PROC ; CInterruptPipe::GetPipeType

; 364  :     {

  00000		 |$LN5@GetPipeTyp@3|
  00000	e1a0c00d	 mov         r12, sp
  00004	e92d0001	 stmdb       sp!, {r0}
  00008	e92d5000	 stmdb       sp!, {r12, lr}
  0000c	e24dd004	 sub         sp, sp, #4
  00010		 |$M38492|

; 365  :         static const TCHAR* cszPipeType = TEXT("Interrupt");
; 366  :         return cszPipeType;

  00010	e59f3014	 ldr         r3, [pc, #0x14]
  00014	e5933000	 ldr         r3, [r3]
  00018	e58d3000	 str         r3, [sp]

; 367  :     }

  0001c	e59d0000	 ldr         r0, [sp]
  00020	e28dd004	 add         sp, sp, #4
  00024	e89d6000	 ldmia       sp, {sp, lr}
  00028	e12fff1e	 bx          lr
  0002c		 |$LN6@GetPipeTyp@3|
  0002c		 |$LN7@GetPipeTyp@3|
  0002c	00000000	 DCD         |?cszPipeType@?1??GetPipeType@CInterruptPipe@@UBAPBGXZ@4PBGB|
  00030		 |$M38493|

			 ENDP  ; |?GetPipeType@CInterruptPipe@@UBAPBGXZ|, CInterruptPipe::GetPipeType

	EXPORT	|??1CInterruptPipe@@UAA@XZ|		; CInterruptPipe::~CInterruptPipe

  00000			 AREA	 |.pdata|, PDATA
|$T38505| DCD	|$LN6@scalar@8|
	DCD	0x40001104
; Function compile flags: /Odtp

  00000			 AREA	 |.text|, CODE, ARM

  00000		 |??_GCInterruptPipe@@UAAPAXI@Z| PROC	; CInterruptPipe::`scalar deleting destructor'
  00000		 |$LN6@scalar@8|
  00000	e1a0c00d	 mov         r12, sp
  00004	e92d0003	 stmdb       sp!, {r0, r1}
  00008	e92d5000	 stmdb       sp!, {r12, lr}
  0000c	e24dd004	 sub         sp, sp, #4
  00010		 |$M38502|
  00010	e59d000c	 ldr         r0, [sp, #0xC]
  00014	eb000000	 bl          |??1CInterruptPipe@@UAA@XZ|
  00018	e59d3010	 ldr         r3, [sp, #0x10]
  0001c	e3130001	 tst         r3, #1
  00020	0a000001	 beq         |$LN1@scalar@8|
  00024	e59d000c	 ldr         r0, [sp, #0xC]
  00028	eb000000	 bl          |??3@YAXPAX@Z|
  0002c		 |$LN1@scalar@8|
  0002c	e59d300c	 ldr         r3, [sp, #0xC]
  00030	e58d3000	 str         r3, [sp]
  00034	e59d0000	 ldr         r0, [sp]
  00038	e28dd004	 add         sp, sp, #4
  0003c	e89d6000	 ldmia       sp, {sp, lr}
  00040	e12fff1e	 bx          lr
  00044		 |$M38503|

			 ENDP  ; |??_GCInterruptPipe@@UAAPAXI@Z|, CInterruptPipe::`scalar deleting destructor'

	EXPORT	|??_C@_1EM@CENJOAPM@?$AA?$CF?$AAs?$AA?3?$AA?5?$AA?9?$AAC?$AAI?$AAn?$AAt?$AAe?$AAr?$AAr?$AAu?$AAp?$AAt?$AAP?$AAi?$AAp?$AAe?$AA?3?$AA?3?$AA?$HO?$AAC?$AAI?$AAn?$AAt?$AAe?$AAr?$AAr?$AAu?$AAp?$AAt@| [ DATA ] ; `string'
	EXPORT	|??_C@_1FA@DJJFLGBI@?$AAC?$AAI?$AAn?$AAt?$AAe?$AAr?$AAr?$AAu?$AAp?$AAt?$AAP?$AAi?$AAp?$AAe?$AA?3?$AA?3?$AA?$HO?$AAC?$AAI?$AAn?$AAt?$AAe?$AAr?$AAr?$AAu?$AAp?$AAt?$AAP?$AAi?$AAp?$AAe?$AA?5@| [ DATA ] ; `string'
	EXPORT	|??_C@_1EM@KBCFLGHB@?$AA?$CF?$AAs?$AA?3?$AA?5?$AA?$CL?$AAC?$AAI?$AAn?$AAt?$AAe?$AAr?$AAr?$AAu?$AAp?$AAt?$AAP?$AAi?$AAp?$AAe?$AA?3?$AA?3?$AA?$HO?$AAC?$AAI?$AAn?$AAt?$AAe?$AAr?$AAr?$AAu?$AAp?$AAt@| [ DATA ] ; `string'
	IMPORT	|?FreeUsb2BusTime@USB2lib@@QAAXEEHPAU_EndpointBuget@@@Z| ; USB2lib::FreeUsb2BusTime

  00108			 AREA	 |.pdata|, PDATA
|$T38519| DCD	|$LN12@CInterrupt@2|
	DCD	0x40005a04
; File c:\wince600\platform\common\src\soc\common_ti_v1\omap3530\musb\musbhcd\musbmhdrc\cpipe.cpp

  00000			 AREA	 |.rdata|, DATA, READONLY
|??_C@_1EM@CENJOAPM@?$AA?$CF?$AAs?$AA?3?$AA?5?$AA?9?$AAC?$AAI?$AAn?$AAt?$AAe?$AAr?$AAr?$AAu?$AAp?$AAt?$AAP?$AAi?$AAp?$AAe?$AA?3?$AA?3?$AA?$HO?$AAC?$AAI?$AAn?$AAt?$AAe?$AAr?$AAr?$AAu?$AAp?$AAt@| DCB "%"
	DCB	0x0, "s", 0x0, ":", 0x0, " ", 0x0, "-", 0x0, "C", 0x0, "I"
	DCB	0x0, "n", 0x0, "t", 0x0, "e", 0x0, "r", 0x0, "r", 0x0, "u"
	DCB	0x0, "p", 0x0, "t", 0x0, "P", 0x0, "i", 0x0, "p", 0x0, "e"
	DCB	0x0, ":", 0x0, ":", 0x0, "~", 0x0, "C", 0x0, "I", 0x0, "n"
	DCB	0x0, "t", 0x0, "e", 0x0, "r", 0x0, "r", 0x0, "u", 0x0, "p"
	DCB	0x0, "t", 0x0, "P", 0x0, "i", 0x0, "p", 0x0, "e", 0x0, 0xa
	DCB	0x0, 0x0, 0x0				; `string'

  00000			 AREA	 |.rdata|, DATA, READONLY
|??_C@_1FA@DJJFLGBI@?$AAC?$AAI?$AAn?$AAt?$AAe?$AAr?$AAr?$AAu?$AAp?$AAt?$AAP?$AAi?$AAp?$AAe?$AA?3?$AA?3?$AA?$HO?$AAC?$AAI?$AAn?$AAt?$AAe?$AAr?$AAr?$AAu?$AAp?$AAt?$AAP?$AAi?$AAp?$AAe?$AA?5@| DCB "C"
	DCB	0x0, "I", 0x0, "n", 0x0, "t", 0x0, "e", 0x0, "r", 0x0, "r"
	DCB	0x0, "u", 0x0, "p", 0x0, "t", 0x0, "P", 0x0, "i", 0x0, "p"
	DCB	0x0, "e", 0x0, ":", 0x0, ":", 0x0, "~", 0x0, "C", 0x0, "I"
	DCB	0x0, "n", 0x0, "t", 0x0, "e", 0x0, "r", 0x0, "r", 0x0, "u"
	DCB	0x0, "p", 0x0, "t", 0x0, "P", 0x0, "i", 0x0, "p", 0x0, "e"
	DCB	0x0, " ", 0x0, "c", 0x0, "l", 0x0, "o", 0x0, "s", 0x0, "e"
	DCB	0x0, 0xd, 0x0, 0xa, 0x0, 0x0, 0x0	; `string'

  00000			 AREA	 |.rdata|, DATA, READONLY
|??_C@_1EM@KBCFLGHB@?$AA?$CF?$AAs?$AA?3?$AA?5?$AA?$CL?$AAC?$AAI?$AAn?$AAt?$AAe?$AAr?$AAr?$AAu?$AAp?$AAt?$AAP?$AAi?$AAp?$AAe?$AA?3?$AA?3?$AA?$HO?$AAC?$AAI?$AAn?$AAt?$AAe?$AAr?$AAr?$AAu?$AAp?$AAt@| DCB "%"
	DCB	0x0, "s", 0x0, ":", 0x0, " ", 0x0, "+", 0x0, "C", 0x0, "I"
	DCB	0x0, "n", 0x0, "t", 0x0, "e", 0x0, "r", 0x0, "r", 0x0, "u"
	DCB	0x0, "p", 0x0, "t", 0x0, "P", 0x0, "i", 0x0, "p", 0x0, "e"
	DCB	0x0, ":", 0x0, ":", 0x0, "~", 0x0, "C", 0x0, "I", 0x0, "n"
	DCB	0x0, "t", 0x0, "e", 0x0, "r", 0x0, "r", 0x0, "u", 0x0, "p"
	DCB	0x0, "t", 0x0, "P", 0x0, "i", 0x0, "p", 0x0, "e", 0x0, 0xa
	DCB	0x0, 0x0, 0x0				; `string'
; Function compile flags: /Odtp

  042c8			 AREA	 |.text|, CODE, ARM

  042c8		 |??1CInterruptPipe@@UAA@XZ| PROC	; CInterruptPipe::~CInterruptPipe

; 1281 : {

  042c8		 |$LN12@CInterrupt@2|
  042c8	e1a0c00d	 mov         r12, sp
  042cc	e92d0001	 stmdb       sp!, {r0}
  042d0	e92d5000	 stmdb       sp!, {r12, lr}
  042d4	e24dd01c	 sub         sp, sp, #0x1C
  042d8		 |$M38516|
  042d8	e59f214c	 ldr         r2, [pc, #0x14C]
  042dc	e59d3024	 ldr         r3, [sp, #0x24]
  042e0	e5832000	 str         r2, [r3]

; 1282 :     DEBUGMSG( ZONE_PIPE && ZONE_VERBOSE, (TEXT("%s: +CInterruptPipe::~CInterruptPipe\n"),GetControllerName()) );

  042e4	e59f3134	 ldr         r3, [pc, #0x134]
  042e8	e5933440	 ldr         r3, [r3, #0x440]
  042ec	e3130080	 tst         r3, #0x80
  042f0	0a00000c	 beq         |$LN4@CInterrupt@2|
  042f4	e59f3124	 ldr         r3, [pc, #0x124]
  042f8	e5933440	 ldr         r3, [r3, #0x440]
  042fc	e3130a01	 tst         r3, #1, 20
  04300	0a000008	 beq         |$LN4@CInterrupt@2|
  04304	e59d0024	 ldr         r0, [sp, #0x24]
  04308	eb000000	 bl          |?GetControllerName@CPipe@@QBAPBGXZ|
  0430c	e58d0008	 str         r0, [sp, #8]
  04310	e59d1008	 ldr         r1, [sp, #8]
  04314	e59f010c	 ldr         r0, [pc, #0x10C]
  04318	eb000000	 bl          NKDbgPrintfW
  0431c	e3a03001	 mov         r3, #1
  04320	e58d300c	 str         r3, [sp, #0xC]
  04324	ea000001	 b           |$LN5@CInterrupt@2|
  04328		 |$LN4@CInterrupt@2|
  04328	e3a03000	 mov         r3, #0
  0432c	e58d300c	 str         r3, [sp, #0xC]
  04330		 |$LN5@CInterrupt@2|

; 1283 :     if (m_bSuccess)

  04330	e59d3024	 ldr         r3, [sp, #0x24]
  04334	e2833088	 add         r3, r3, #0x88
  04338	e5933000	 ldr         r3, [r3]
  0433c	e3530000	 cmp         r3, #0
  04340	0a000010	 beq         |$LN1@CInterrupt@2|

; 1284 :         m_pCMhcd->FreeUsb2BusTime( m_bHubAddress, m_bHubPort,m_TTContext,&m_EndptBuget);

  04344	e59d3024	 ldr         r3, [sp, #0x24]
  04348	e2833070	 add         r3, r3, #0x70
  0434c	e58d3000	 str         r3, [sp]
  04350	e59d3024	 ldr         r3, [sp, #0x24]
  04354	e2833010	 add         r3, r3, #0x10
  04358	e5933000	 ldr         r3, [r3]
  0435c	e59d2024	 ldr         r2, [sp, #0x24]
  04360	e2822009	 add         r2, r2, #9
  04364	e5d22000	 ldrb        r2, [r2]
  04368	e59d1024	 ldr         r1, [sp, #0x24]
  0436c	e2811008	 add         r1, r1, #8
  04370	e5d11000	 ldrb        r1, [r1]
  04374	e59d0024	 ldr         r0, [sp, #0x24]
  04378	e280000c	 add         r0, r0, #0xC
  0437c	e5900000	 ldr         r0, [r0]
  04380	e2800fab	 add         r0, r0, #0xAB, 30
  04384	eb000000	 bl          |?FreeUsb2BusTime@USB2lib@@QAAXEEHPAU_EndpointBuget@@@Z|
  04388		 |$LN1@CInterrupt@2|

; 1285 :     DEBUGMSG( ZONE_PIPE|ZONE_DEBUG, (TEXT("CInterruptPipe::~CInterruptPipe close\r\n")));

  04388	e59f3090	 ldr         r3, [pc, #0x90]
  0438c	e5933440	 ldr         r3, [r3, #0x440]
  04390	e3130080	 tst         r3, #0x80
  04394	0a000004	 beq         |$LN6@CInterrupt@2|
  04398	e59f0084	 ldr         r0, [pc, #0x84]
  0439c	eb000000	 bl          NKDbgPrintfW
  043a0	e3a03001	 mov         r3, #1
  043a4	e58d3010	 str         r3, [sp, #0x10]
  043a8	ea000001	 b           |$LN7@CInterrupt@2|
  043ac		 |$LN6@CInterrupt@2|
  043ac	e3a03000	 mov         r3, #0
  043b0	e58d3010	 str         r3, [sp, #0x10]
  043b4		 |$LN7@CInterrupt@2|

; 1286 :     ClosePipe();

  043b4	e59d0024	 ldr         r0, [sp, #0x24]
  043b8	eb000000	 bl          |?ClosePipe@CInterruptPipe@@UAA?AW4HCD_REQUEST_STATUS@@XZ|

; 1287 :     DEBUGMSG( ZONE_PIPE && ZONE_VERBOSE, (TEXT("%s: -CInterruptPipe::~CInterruptPipe\n"),GetControllerName()) );

  043bc	e59f305c	 ldr         r3, [pc, #0x5C]
  043c0	e5933440	 ldr         r3, [r3, #0x440]
  043c4	e3130080	 tst         r3, #0x80
  043c8	0a00000c	 beq         |$LN8@CInterrupt@2|
  043cc	e59f304c	 ldr         r3, [pc, #0x4C]
  043d0	e5933440	 ldr         r3, [r3, #0x440]
  043d4	e3130a01	 tst         r3, #1, 20
  043d8	0a000008	 beq         |$LN8@CInterrupt@2|
  043dc	e59d0024	 ldr         r0, [sp, #0x24]
  043e0	eb000000	 bl          |?GetControllerName@CPipe@@QBAPBGXZ|
  043e4	e58d0014	 str         r0, [sp, #0x14]
  043e8	e59d1014	 ldr         r1, [sp, #0x14]
  043ec	e59f0028	 ldr         r0, [pc, #0x28]
  043f0	eb000000	 bl          NKDbgPrintfW
  043f4	e3a03001	 mov         r3, #1
  043f8	e58d3018	 str         r3, [sp, #0x18]
  043fc	ea000001	 b           |$LN9@CInterrupt@2|
  04400		 |$LN8@CInterrupt@2|
  04400	e3a03000	 mov         r3, #0
  04404	e58d3018	 str         r3, [sp, #0x18]
  04408		 |$LN9@CInterrupt@2|

; 1288 : }

  04408	e59d0024	 ldr         r0, [sp, #0x24]
  0440c	eb000000	 bl          |??1CQueuedPipe@@UAA@XZ|
  04410	e28dd01c	 add         sp, sp, #0x1C
  04414	e89d6000	 ldmia       sp, {sp, lr}
  04418	e12fff1e	 bx          lr
  0441c		 |$LN13@CInterrupt@2|
  0441c		 |$LN14@CInterrupt@2|
  0441c	00000000	 DCD         |??_C@_1EM@CENJOAPM@?$AA?$CF?$AAs?$AA?3?$AA?5?$AA?9?$AAC?$AAI?$AAn?$AAt?$AAe?$AAr?$AAr?$AAu?$AAp?$AAt?$AAP?$AAi?$AAp?$AAe?$AA?3?$AA?3?$AA?$HO?$AAC?$AAI?$AAn?$AAt?$AAe?$AAr?$AAr?$AAu?$AAp?$AAt@|
  04420		 |$LN15@CInterrupt@2|
  04420	00000000	 DCD         |dpCurSettings|
  04424		 |$LN16@CInterrupt@2|
  04424	00000000	 DCD         |??_C@_1FA@DJJFLGBI@?$AAC?$AAI?$AAn?$AAt?$AAe?$AAr?$AAr?$AAu?$AAp?$AAt?$AAP?$AAi?$AAp?$AAe?$AA?3?$AA?3?$AA?$HO?$AAC?$AAI?$AAn?$AAt?$AAe?$AAr?$AAr?$AAu?$AAp?$AAt?$AAP?$AAi?$AAp?$AAe?$AA?5@|
  04428		 |$LN17@CInterrupt@2|
  04428	00000000	 DCD         |??_C@_1EM@KBCFLGHB@?$AA?$CF?$AAs?$AA?3?$AA?5?$AA?$CL?$AAC?$AAI?$AAn?$AAt?$AAe?$AAr?$AAr?$AAu?$AAp?$AAt?$AAP?$AAi?$AAp?$AAe?$AA?3?$AA?3?$AA?$HO?$AAC?$AAI?$AAn?$AAt?$AAe?$AAr?$AAr?$AAu?$AAp?$AAt@|
  0442c		 |$LN18@CInterrupt@2|
  0442c	00000000	 DCD         |??_7CInterruptPipe@@6B@|
  04430		 |$M38517|

			 ENDP  ; |??1CInterruptPipe@@UAA@XZ|, CInterruptPipe::~CInterruptPipe

	EXPORT	|??_C@_1IA@JOKFOOIO@?$AA?$CF?$AAs?$AA?3?$AA?5?$AA?9?$AAC?$AAI?$AAn?$AAt?$AAe?$AAr?$AAr?$AAu?$AAp?$AAt?$AAP?$AAi?$AAp?$AAe?$AA?3?$AA?3?$AAO?$AAp?$AAe?$AAn?$AAP?$AAi?$AAp?$AAe?$AA?0?$AA?5?$AAr@| [ DATA ] ; `string'
	EXPORT	|??_C@_1HG@EJKGBDMK@?$AAM?$AAU?$AAS?$AAB?$AAM?$AAH?$AAD?$AAR?$AAC?$AA?5?$AAi?$AAs?$AAs?$AAu?$AAe?$AA?5?$AA?9?$AA?5?$AAI?$AAN?$AAT?$AAE?$AAR?$AAR?$AAU?$AAP?$AAT?$AA?5?$AAO?$AAU?$AAT?$AA?5@| [ DATA ] ; `string'
	EXPORT	|??_C@_1DO@BNDHNNHF@?$AA?$CF?$AAs?$AA?3?$AA?5?$AA?$CL?$AAC?$AAI?$AAn?$AAt?$AAe?$AAr?$AAr?$AAu?$AAp?$AAt?$AAP?$AAi?$AAp?$AAe?$AA?3?$AA?3?$AAO?$AAp?$AAe?$AAn?$AAP?$AAi?$AAp?$AAe?$AA?6?$AA?$AA@| [ DATA ] ; `string'

  00110			 AREA	 |.pdata|, PDATA
|$T38544| DCD	|$LN26@OpenPipe@3|
	DCD	0x4000d904

  00000			 AREA	 |.rdata|, DATA, READONLY
|??_C@_1IA@JOKFOOIO@?$AA?$CF?$AAs?$AA?3?$AA?5?$AA?9?$AAC?$AAI?$AAn?$AAt?$AAe?$AAr?$AAr?$AAu?$AAp?$AAt?$AAP?$AAi?$AAp?$AAe?$AA?3?$AA?3?$AAO?$AAp?$AAe?$AAn?$AAP?$AAi?$AAp?$AAe?$AA?0?$AA?5?$AAr@| DCB "%"
	DCB	0x0, "s", 0x0, ":", 0x0, " ", 0x0, "-", 0x0, "C", 0x0, "I"
	DCB	0x0, "n", 0x0, "t", 0x0, "e", 0x0, "r", 0x0, "r", 0x0, "u"
	DCB	0x0, "p", 0x0, "t", 0x0, "P", 0x0, "i", 0x0, "p", 0x0, "e"
	DCB	0x0, ":", 0x0, ":", 0x0, "O", 0x0, "p", 0x0, "e", 0x0, "n"
	DCB	0x0, "P", 0x0, "i", 0x0, "p", 0x0, "e", 0x0, ",", 0x0, " "
	DCB	0x0, "r", 0x0, "e", 0x0, "t", 0x0, "u", 0x0, "r", 0x0, "n"
	DCB	0x0, "i", 0x0, "n", 0x0, "g", 0x0, " ", 0x0, "H", 0x0, "C"
	DCB	0x0, "D", 0x0, "_", 0x0, "R", 0x0, "E", 0x0, "Q", 0x0, "U"
	DCB	0x0, "E", 0x0, "S", 0x0, "T", 0x0, "_", 0x0, "S", 0x0, "T"
	DCB	0x0, "A", 0x0, "T", 0x0, "U", 0x0, "S", 0x0, " ", 0x0, "%"
	DCB	0x0, "d", 0x0, 0xa, 0x0, 0x0, 0x0	; `string'

  00000			 AREA	 |.rdata|, DATA, READONLY
|??_C@_1HG@EJKGBDMK@?$AAM?$AAU?$AAS?$AAB?$AAM?$AAH?$AAD?$AAR?$AAC?$AA?5?$AAi?$AAs?$AAs?$AAu?$AAe?$AA?5?$AA?9?$AA?5?$AAI?$AAN?$AAT?$AAE?$AAR?$AAR?$AAU?$AAP?$AAT?$AA?5?$AAO?$AAU?$AAT?$AA?5@| DCB "M"
	DCB	0x0, "U", 0x0, "S", 0x0, "B", 0x0, "M", 0x0, "H", 0x0, "D"
	DCB	0x0, "R", 0x0, "C", 0x0, " ", 0x0, "i", 0x0, "s", 0x0, "s"
	DCB	0x0, "u", 0x0, "e", 0x0, " ", 0x0, "-", 0x0, " ", 0x0, "I"
	DCB	0x0, "N", 0x0, "T", 0x0, "E", 0x0, "R", 0x0, "R", 0x0, "U"
	DCB	0x0, "P", 0x0, "T", 0x0, " ", 0x0, "O", 0x0, "U", 0x0, "T"
	DCB	0x0, " ", 0x0, "n", 0x0, "e", 0x0, "e", 0x0, "d", 0x0, " "
	DCB	0x0, "t", 0x0, "o", 0x0, " ", 0x0, "o", 0x0, "p", 0x0, "e"
	DCB	0x0, "r", 0x0, "a", 0x0, "t", 0x0, "e", 0x0, " ", 0x0, "a"
	DCB	0x0, "t", 0x0, " ", 0x0, "D", 0x0, "M", 0x0, "A", 0x0, " "
	DCB	0x0, "0", 0x0, 0xd, 0x0, 0xa, 0x0, 0x0, 0x0 ; `string'

  00000			 AREA	 |.rdata|, DATA, READONLY
|??_C@_1DO@BNDHNNHF@?$AA?$CF?$AAs?$AA?3?$AA?5?$AA?$CL?$AAC?$AAI?$AAn?$AAt?$AAe?$AAr?$AAr?$AAu?$AAp?$AAt?$AAP?$AAi?$AAp?$AAe?$AA?3?$AA?3?$AAO?$AAp?$AAe?$AAn?$AAP?$AAi?$AAp?$AAe?$AA?6?$AA?$AA@| DCB "%"
	DCB	0x0, "s", 0x0, ":", 0x0, " ", 0x0, "+", 0x0, "C", 0x0, "I"
	DCB	0x0, "n", 0x0, "t", 0x0, "e", 0x0, "r", 0x0, "r", 0x0, "u"
	DCB	0x0, "p", 0x0, "t", 0x0, "P", 0x0, "i", 0x0, "p", 0x0, "e"
	DCB	0x0, ":", 0x0, ":", 0x0, "O", 0x0, "p", 0x0, "e", 0x0, "n"
	DCB	0x0, "P", 0x0, "i", 0x0, "p", 0x0, "e", 0x0, 0xa, 0x0, 0x0
	DCB	0x0					; `string'
; Function compile flags: /Odtp

  04430			 AREA	 |.text|, CODE, ARM

  04430		 |?OpenPipe@CInterruptPipe@@UAA?AW4HCD_REQUEST_STATUS@@XZ| PROC ; CInterruptPipe::OpenPipe

; 1304 : {

  04430		 |$LN26@OpenPipe@3|
  04430	e1a0c00d	 mov         r12, sp
  04434	e92d0001	 stmdb       sp!, {r0}
  04438	e92d5000	 stmdb       sp!, {r12, lr}
  0443c	e24dd048	 sub         sp, sp, #0x48
  04440		 |$M38541|

; 1305 :     DEBUGMSG( ZONE_PIPE, (TEXT("%s: +CInterruptPipe::OpenPipe\n"),GetControllerName() ) );

  04440	e59f3334	 ldr         r3, [pc, #0x334]
  04444	e5933440	 ldr         r3, [r3, #0x440]
  04448	e3130080	 tst         r3, #0x80
  0444c	0a000008	 beq         |$LN12@OpenPipe@3|
  04450	e59d0050	 ldr         r0, [sp, #0x50]
  04454	eb000000	 bl          |?GetControllerName@CPipe@@QBAPBGXZ|
  04458	e58d0010	 str         r0, [sp, #0x10]
  0445c	e59d1010	 ldr         r1, [sp, #0x10]
  04460	e59f0328	 ldr         r0, [pc, #0x328]
  04464	eb000000	 bl          NKDbgPrintfW
  04468	e3a03001	 mov         r3, #1
  0446c	e58d3014	 str         r3, [sp, #0x14]
  04470	ea000001	 b           |$LN13@OpenPipe@3|
  04474		 |$LN12@OpenPipe@3|
  04474	e3a03000	 mov         r3, #0
  04478	e58d3014	 str         r3, [sp, #0x14]
  0447c		 |$LN13@OpenPipe@3|

; 1306 : 
; 1307 :     HCD_REQUEST_STATUS status = requestFailed;

  0447c	e3a03000	 mov         r3, #0
  04480	e58d3000	 str         r3, [sp]

; 1308 :     m_pUnQueuedTransfer=NULL;      // ptr to last transfer in queue

  04484	e59d3050	 ldr         r3, [sp, #0x50]
  04488	e2832068	 add         r2, r3, #0x68
  0448c	e3a03000	 mov         r3, #0
  04490	e5823000	 str         r3, [r2]

; 1309 :     m_pQueuedTransfer=NULL;

  04494	e59d3050	 ldr         r3, [sp, #0x50]
  04498	e283206c	 add         r2, r3, #0x6C
  0449c	e3a03000	 mov         r3, #0
  044a0	e5823000	 str         r3, [r2]

; 1310 :     if (!m_bSuccess)

  044a4	e59d3050	 ldr         r3, [sp, #0x50]
  044a8	e2833088	 add         r3, r3, #0x88
  044ac	e5933000	 ldr         r3, [r3]
  044b0	e3530000	 cmp         r3, #0
  044b4	1a000002	 bne         |$LN9@OpenPipe@3|

; 1311 :         return status;

  044b8	e59d3000	 ldr         r3, [sp]
  044bc	e58d300c	 str         r3, [sp, #0xC]
  044c0	ea0000a8	 b           |$LN10@OpenPipe@3|
  044c4		 |$LN9@OpenPipe@3|

; 1312 :     EnterCriticalSection( &m_csPipeLock );

  044c4	e59d3050	 ldr         r3, [sp, #0x50]
  044c8	e2830020	 add         r0, r3, #0x20
  044cc	eb000000	 bl          EnterCriticalSection

; 1313 : 
; 1314 :     // if this fails, someone is trying to open
; 1315 :     // an already opened pipe
; 1316 :     DEBUGCHK(m_pPipeQHead == NULL );

  044d0	e59d3050	 ldr         r3, [sp, #0x50]
  044d4	e2833064	 add         r3, r3, #0x64
  044d8	e5933000	 ldr         r3, [r3]
  044dc	e3530000	 cmp         r3, #0
  044e0	1a000002	 bne         |$LN14@OpenPipe@3|
  044e4	e3a03001	 mov         r3, #1
  044e8	e58d3018	 str         r3, [sp, #0x18]
  044ec	ea000008	 b           |$LN15@OpenPipe@3|
  044f0		 |$LN14@OpenPipe@3|
  044f0	e3a03c05	 mov         r3, #5, 24
  044f4	e3833024	 orr         r3, r3, #0x24
  044f8	e59f2288	 ldr         r2, [pc, #0x288]
  044fc	e59f1278	 ldr         r1, [pc, #0x278]
  04500	e59f0278	 ldr         r0, [pc, #0x278]
  04504	eb000000	 bl          NKDbgPrintfW
  04508	e6000010	 __debugbreak_ce
  0450c	e3a03000	 mov         r3, #0
  04510	e58d3018	 str         r3, [sp, #0x18]
  04514		 |$LN15@OpenPipe@3|

; 1317 :     if ( m_pPipeQHead == NULL )

  04514	e59d3050	 ldr         r3, [sp, #0x50]
  04518	e2833064	 add         r3, r3, #0x64
  0451c	e5933000	 ldr         r3, [r3]
  04520	e3530000	 cmp         r3, #0
  04524	1a000014	 bne         |$LN8@OpenPipe@3|

; 1318 :         m_pPipeQHead =  new CQH(this);

  04528	e3a00020	 mov         r0, #0x20
  0452c	eb000000	 bl          |??2@YAPAXI@Z|
  04530	e58d001c	 str         r0, [sp, #0x1C]
  04534	e59d301c	 ldr         r3, [sp, #0x1C]
  04538	e58d3008	 str         r3, [sp, #8]
  0453c	e59d3008	 ldr         r3, [sp, #8]
  04540	e3530000	 cmp         r3, #0
  04544	0a000006	 beq         |$LN16@OpenPipe@3|
  04548	e59d1050	 ldr         r1, [sp, #0x50]
  0454c	e59d0008	 ldr         r0, [sp, #8]
  04550	eb000000	 bl          |??0CQH@@QAA@PAVCPipe@@@Z|
  04554	e58d0020	 str         r0, [sp, #0x20]
  04558	e59d3020	 ldr         r3, [sp, #0x20]
  0455c	e58d3024	 str         r3, [sp, #0x24]
  04560	ea000001	 b           |$LN17@OpenPipe@3|
  04564		 |$LN16@OpenPipe@3|
  04564	e3a03000	 mov         r3, #0
  04568	e58d3024	 str         r3, [sp, #0x24]
  0456c		 |$LN17@OpenPipe@3|
  0456c	e59d3050	 ldr         r3, [sp, #0x50]
  04570	e2832064	 add         r2, r3, #0x64
  04574	e59d3024	 ldr         r3, [sp, #0x24]
  04578	e5823000	 str         r3, [r2]
  0457c		 |$LN8@OpenPipe@3|

; 1319 :     if (m_pPipeQHead) {        

  0457c	e59d3050	 ldr         r3, [sp, #0x50]
  04580	e2833064	 add         r3, r3, #0x64
  04584	e5933000	 ldr         r3, [r3]
  04588	e3530000	 cmp         r3, #0
  0458c	0a000001	 beq         |$LN7@OpenPipe@3|

; 1320 :         // Interrupt QHs are a bit complicated. See comment
; 1321 :         // in Initialize() routine as well.
; 1322 :         //        
; 1323 :         status = requestOK;

  04590	e3a03001	 mov         r3, #1
  04594	e58d3000	 str         r3, [sp]
  04598		 |$LN7@OpenPipe@3|

; 1324 :     }
; 1325 :     LeaveCriticalSection( &m_csPipeLock );

  04598	e59d3050	 ldr         r3, [sp, #0x50]
  0459c	e2830020	 add         r0, r3, #0x20
  045a0	eb000000	 bl          LeaveCriticalSection

; 1326 :    
; 1327 :     if (status == requestOK) {

  045a4	e59d3000	 ldr         r3, [sp]
  045a8	e3530001	 cmp         r3, #1
  045ac	1a00005b	 bne         |$LN6@OpenPipe@3|

; 1328 :         if (m_pCMhcd->IsDMASupport())

  045b0	e59d3050	 ldr         r3, [sp, #0x50]
  045b4	e283300c	 add         r3, r3, #0xC
  045b8	e5932000	 ldr         r2, [r3]
  045bc	e59d3050	 ldr         r3, [sp, #0x50]
  045c0	e283300c	 add         r3, r3, #0xC
  045c4	e5930000	 ldr         r0, [r3]
  045c8	e5923000	 ldr         r3, [r2]
  045cc	e283306c	 add         r3, r3, #0x6C
  045d0	e5933000	 ldr         r3, [r3]
  045d4	e1a0e00f	 mov         lr, pc
  045d8	e12fff13	 bx          r3
  045dc	e58d0028	 str         r0, [sp, #0x28]
  045e0	e59d3028	 ldr         r3, [sp, #0x28]
  045e4	e3530000	 cmp         r3, #0
  045e8	0a000031	 beq         |$LN5@OpenPipe@3|

; 1329 :         {
; 1330 :             // We can only set the transfer DMA mode 0 for Interrupt pipe
; 1331 :              if (m_pCMhcd->GetDMAMode())

  045ec	e59d3050	 ldr         r3, [sp, #0x50]
  045f0	e283300c	 add         r3, r3, #0xC
  045f4	e5932000	 ldr         r2, [r3]
  045f8	e59d3050	 ldr         r3, [sp, #0x50]
  045fc	e283300c	 add         r3, r3, #0xC
  04600	e5930000	 ldr         r0, [r3]
  04604	e5923000	 ldr         r3, [r2]
  04608	e2833070	 add         r3, r3, #0x70
  0460c	e5933000	 ldr         r3, [r3]
  04610	e1a0e00f	 mov         lr, pc
  04614	e12fff13	 bx          r3
  04618	e58d002c	 str         r0, [sp, #0x2C]
  0461c	e59d302c	 ldr         r3, [sp, #0x2C]
  04620	e3530000	 cmp         r3, #0
  04624	0a000003	 beq         |$LN4@OpenPipe@3|

; 1332 :                 SetTransferMode(TRANSFER_DMA1);

  04628	e3a01002	 mov         r1, #2
  0462c	e59d0050	 ldr         r0, [sp, #0x50]
  04630	eb000000	 bl          |?SetTransferMode@CPipe@@QAAXE@Z|

; 1333 :             else

  04634	ea000002	 b           |$LN3@OpenPipe@3|
  04638		 |$LN4@OpenPipe@3|

; 1334 :                 SetTransferMode(TRANSFER_DMA0);

  04638	e3a01001	 mov         r1, #1
  0463c	e59d0050	 ldr         r0, [sp, #0x50]
  04640	eb000000	 bl          |?SetTransferMode@CPipe@@QAAXE@Z|
  04644		 |$LN3@OpenPipe@3|

; 1335 : 
; 1336 :             // Special handling for bug in MUSBMHDRC
; 1337 :             if ((GetTransferMode() == TRANSFER_DMA1) && (GetSpeed() == FULL_SPEED)
; 1338 :                 && (USB_ENDPOINT_DIRECTION_OUT(m_usbEndpointDescriptor.bEndpointAddress)))

  04644	e59d0050	 ldr         r0, [sp, #0x50]
  04648	eb000000	 bl          |?GetTransferMode@CPipe@@QAAEXZ|
  0464c	e5cd0030	 strb        r0, [sp, #0x30]
  04650	e5dd3030	 ldrb        r3, [sp, #0x30]
  04654	e3530002	 cmp         r3, #2
  04658	1a000014	 bne         |$LN2@OpenPipe@3|
  0465c	e59d0050	 ldr         r0, [sp, #0x50]
  04660	eb000000	 bl          |?GetSpeed@CPipe@@QAAEXZ|
  04664	e5cd0031	 strb        r0, [sp, #0x31]
  04668	e5dd3031	 ldrb        r3, [sp, #0x31]
  0466c	e3530002	 cmp         r3, #2
  04670	1a00000e	 bne         |$LN2@OpenPipe@3|
  04674	e59d3050	 ldr         r3, [sp, #0x50]
  04678	e2833036	 add         r3, r3, #0x36
  0467c	e5d33000	 ldrb        r3, [r3]
  04680	e3130080	 tst         r3, #0x80
  04684	1a000009	 bne         |$LN2@OpenPipe@3|

; 1339 :             {
; 1340 :                 RETAILMSG(1, (TEXT("MUSBMHDRC issue - INTERRUPT OUT need to operate at DMA 0\r\n")));

  04688	e59f00fc	 ldr         r0, [pc, #0xFC]
  0468c	eb000000	 bl          NKDbgPrintfW
  04690	e3a03001	 mov         r3, #1
  04694	e58d3034	 str         r3, [sp, #0x34]
  04698	ea000001	 b           |$LN19@OpenPipe@3|
  0469c	e3a03000	 mov         r3, #0
  046a0	e58d3034	 str         r3, [sp, #0x34]
  046a4		 |$LN19@OpenPipe@3|

; 1341 :                 SetTransferMode(TRANSFER_DMA0);

  046a4	e3a01001	 mov         r1, #1
  046a8	e59d0050	 ldr         r0, [sp, #0x50]
  046ac	eb000000	 bl          |?SetTransferMode@CPipe@@QAAXE@Z|
  046b0		 |$LN2@OpenPipe@3|

; 1342 :             }
; 1343 :         }
; 1344 :         else

  046b0	ea000002	 b           |$LN1@OpenPipe@3|
  046b4		 |$LN5@OpenPipe@3|

; 1345 :             SetTransferMode(TRANSFER_FIFO);

  046b4	e3a01000	 mov         r1, #0
  046b8	e59d0050	 ldr         r0, [sp, #0x50]
  046bc	eb000000	 bl          |?SetTransferMode@CPipe@@QAAXE@Z|
  046c0		 |$LN1@OpenPipe@3|

; 1346 : 
; 1347 : #ifdef DEBUG
; 1348 :         BOOL bReturn = m_pCMhcd->AddToBusyPipeList(this, FALSE);

  046c0	e3a02000	 mov         r2, #0
  046c4	e59d1050	 ldr         r1, [sp, #0x50]
  046c8	e59d3050	 ldr         r3, [sp, #0x50]
  046cc	e283300c	 add         r3, r3, #0xC
  046d0	e5930000	 ldr         r0, [r3]
  046d4	eb000000	 bl          |?AddToBusyPipeList@CHW@@QAAHQAVCPipe@@H@Z|
  046d8	e58d0038	 str         r0, [sp, #0x38]
  046dc	e59d3038	 ldr         r3, [sp, #0x38]
  046e0	e58d3004	 str         r3, [sp, #4]

; 1349 :         ASSERT(bReturn == TRUE);

  046e4	e59d3004	 ldr         r3, [sp, #4]
  046e8	e3530001	 cmp         r3, #1
  046ec	1a000002	 bne         |$LN20@OpenPipe@3|
  046f0	e3a03001	 mov         r3, #1
  046f4	e58d303c	 str         r3, [sp, #0x3C]
  046f8	ea000008	 b           |$LN21@OpenPipe@3|
  046fc		 |$LN20@OpenPipe@3|
  046fc	e3a03c05	 mov         r3, #5, 24
  04700	e3833045	 orr         r3, r3, #0x45
  04704	e59f207c	 ldr         r2, [pc, #0x7C]
  04708	e59f1074	 ldr         r1, [pc, #0x74]
  0470c	e59f006c	 ldr         r0, [pc, #0x6C]
  04710	eb000000	 bl          NKDbgPrintfW
  04714	e6000010	 __debugbreak_ce
  04718	e3a03000	 mov         r3, #0
  0471c	e58d303c	 str         r3, [sp, #0x3C]
  04720		 |$LN21@OpenPipe@3|
  04720		 |$LN6@OpenPipe@3|

; 1350 : #else
; 1351 : 		m_pCMhcd->AddToBusyPipeList(this, FALSE);
; 1352 : #endif
; 1353 :     }
; 1354 :     DEBUGMSG( ZONE_PIPE, (TEXT("%s: -CInterruptPipe::OpenPipe, returning HCD_REQUEST_STATUS %d\n"),GetControllerName(), status) );

  04720	e59f3054	 ldr         r3, [pc, #0x54]
  04724	e5933440	 ldr         r3, [r3, #0x440]
  04728	e3130080	 tst         r3, #0x80
  0472c	0a000009	 beq         |$LN22@OpenPipe@3|
  04730	e59d0050	 ldr         r0, [sp, #0x50]
  04734	eb000000	 bl          |?GetControllerName@CPipe@@QBAPBGXZ|
  04738	e58d0040	 str         r0, [sp, #0x40]
  0473c	e59d2000	 ldr         r2, [sp]
  04740	e59d1040	 ldr         r1, [sp, #0x40]
  04744	e59f002c	 ldr         r0, [pc, #0x2C]
  04748	eb000000	 bl          NKDbgPrintfW
  0474c	e3a03001	 mov         r3, #1
  04750	e58d3044	 str         r3, [sp, #0x44]
  04754	ea000001	 b           |$LN23@OpenPipe@3|
  04758		 |$LN22@OpenPipe@3|
  04758	e3a03000	 mov         r3, #0
  0475c	e58d3044	 str         r3, [sp, #0x44]
  04760		 |$LN23@OpenPipe@3|

; 1355 :     return status;

  04760	e59d3000	 ldr         r3, [sp]
  04764	e58d300c	 str         r3, [sp, #0xC]
  04768		 |$LN10@OpenPipe@3|

; 1356 : }

  04768	e59d000c	 ldr         r0, [sp, #0xC]
  0476c	e28dd048	 add         sp, sp, #0x48
  04770	e89d6000	 ldmia       sp, {sp, lr}
  04774	e12fff1e	 bx          lr
  04778		 |$LN27@OpenPipe@3|
  04778		 |$LN28@OpenPipe@3|
  04778	00000000	 DCD         |??_C@_1IA@JOKFOOIO@?$AA?$CF?$AAs?$AA?3?$AA?5?$AA?9?$AAC?$AAI?$AAn?$AAt?$AAe?$AAr?$AAr?$AAu?$AAp?$AAt?$AAP?$AAi?$AAp?$AAe?$AA?3?$AA?3?$AAO?$AAp?$AAe?$AAn?$AAP?$AAi?$AAp?$AAe?$AA?0?$AA?5?$AAr@|
  0477c		 |$LN29@OpenPipe@3|
  0477c	00000000	 DCD         |dpCurSettings|
  04780		 |$LN30@OpenPipe@3|
  04780	00000000	 DCD         |??_C@_1FK@FNONLNGN@?$AA?$CF?$AAs?$AA?3?$AA?5?$AAD?$AAE?$AAB?$AAU?$AAG?$AAC?$AAH?$AAK?$AA?5?$AAf?$AAa?$AAi?$AAl?$AAe?$AAd?$AA?5?$AAi?$AAn?$AA?5?$AAf?$AAi?$AAl?$AAe?$AA?5?$AA?$CF?$AAs?$AA?5?$AAa@|
  04784		 |$LN31@OpenPipe@3|
  04784	00000000	 DCD         |??_C@_1BA@LEPJIIOK@?$AAU?$AAn?$AAk?$AAn?$AAo?$AAw?$AAn?$AA?$AA@|
  04788		 |$LN32@OpenPipe@3|
  04788	00000000	 DCD         |??_C@_1LK@LMPDOKKA@?$AAC?$AA?3?$AA?2?$AAW?$AAI?$AAN?$AAC?$AAE?$AA6?$AA0?$AA0?$AA?2?$AAP?$AAL?$AAA?$AAT?$AAF?$AAO?$AAR?$AAM?$AA?2?$AAC?$AAO?$AAM?$AAM?$AAO?$AAN?$AA?2?$AAS?$AAR?$AAC?$AA?2@|
  0478c		 |$LN33@OpenPipe@3|
  0478c	00000000	 DCD         |??_C@_1HG@EJKGBDMK@?$AAM?$AAU?$AAS?$AAB?$AAM?$AAH?$AAD?$AAR?$AAC?$AA?5?$AAi?$AAs?$AAs?$AAu?$AAe?$AA?5?$AA?9?$AA?5?$AAI?$AAN?$AAT?$AAE?$AAR?$AAR?$AAU?$AAP?$AAT?$AA?5?$AAO?$AAU?$AAT?$AA?5@|
  04790		 |$LN34@OpenPipe@3|
  04790	00000000	 DCD         |??_C@_1DO@BNDHNNHF@?$AA?$CF?$AAs?$AA?3?$AA?5?$AA?$CL?$AAC?$AAI?$AAn?$AAt?$AAe?$AAr?$AAr?$AAu?$AAp?$AAt?$AAP?$AAi?$AAp?$AAe?$AA?3?$AA?3?$AAO?$AAp?$AAe?$AAn?$AAP?$AAi?$AAp?$AAe?$AA?6?$AA?$AA@|
  04794		 |$M38542|

			 ENDP  ; |?OpenPipe@CInterruptPipe@@UAA?AW4HCD_REQUEST_STATUS@@XZ|, CInterruptPipe::OpenPipe


  00118			 AREA	 |.pdata|, PDATA
|$T38564| DCD	|$LN10@ClosePipe@3|
	DCD	0x40005504
; Function compile flags: /Odtp

  04794			 AREA	 |.text|, CODE, ARM

  04794		 |?ClosePipe@CInterruptPipe@@UAA?AW4HCD_REQUEST_STATUS@@XZ| PROC ; CInterruptPipe::ClosePipe

; 1370 : {

  04794		 |$LN10@ClosePipe@3|
  04794	e1a0c00d	 mov         r12, sp
  04798	e92d0001	 stmdb       sp!, {r0}
  0479c	e92d5000	 stmdb       sp!, {r12, lr}
  047a0	e24dd024	 sub         sp, sp, #0x24
  047a4		 |$M38561|

; 1371 :     DEBUGMSG( ZONE_PIPE, (TEXT("%s: +CBulkPipe(%s)::ClosePipe\n"),GetControllerName(), GetPipeType() ) );

  047a4	e59f3138	 ldr         r3, [pc, #0x138]
  047a8	e5933440	 ldr         r3, [r3, #0x440]
  047ac	e3130080	 tst         r3, #0x80
  047b0	0a000011	 beq         |$LN4@ClosePipe@3|
  047b4	e59d302c	 ldr         r3, [sp, #0x2C]
  047b8	e5933000	 ldr         r3, [r3]
  047bc	e2833040	 add         r3, r3, #0x40
  047c0	e59d002c	 ldr         r0, [sp, #0x2C]
  047c4	e5933000	 ldr         r3, [r3]
  047c8	e1a0e00f	 mov         lr, pc
  047cc	e12fff13	 bx          r3
  047d0	e58d0010	 str         r0, [sp, #0x10]
  047d4	e59d002c	 ldr         r0, [sp, #0x2C]
  047d8	eb000000	 bl          |?GetControllerName@CPipe@@QBAPBGXZ|
  047dc	e58d0014	 str         r0, [sp, #0x14]
  047e0	e59d2010	 ldr         r2, [sp, #0x10]
  047e4	e59d1014	 ldr         r1, [sp, #0x14]
  047e8	e59f00f0	 ldr         r0, [pc, #0xF0]
  047ec	eb000000	 bl          NKDbgPrintfW
  047f0	e3a03001	 mov         r3, #1
  047f4	e58d3018	 str         r3, [sp, #0x18]
  047f8	ea000001	 b           |$LN5@ClosePipe@3|
  047fc		 |$LN4@ClosePipe@3|
  047fc	e3a03000	 mov         r3, #0
  04800	e58d3018	 str         r3, [sp, #0x18]
  04804		 |$LN5@ClosePipe@3|

; 1372 :     HCD_REQUEST_STATUS status = requestFailed;

  04804	e3a03000	 mov         r3, #0
  04808	e58d3000	 str         r3, [sp]

; 1373 :     m_pCMhcd->RemoveFromBusyPipeList(this );

  0480c	e59d102c	 ldr         r1, [sp, #0x2C]
  04810	e59d302c	 ldr         r3, [sp, #0x2C]
  04814	e283300c	 add         r3, r3, #0xC
  04818	e5930000	 ldr         r0, [r3]
  0481c	eb000000	 bl          |?RemoveFromBusyPipeList@CHW@@QAAXQAVCPipe@@@Z|

; 1374 :     EnterCriticalSection( &m_csPipeLock );

  04820	e59d302c	 ldr         r3, [sp, #0x2C]
  04824	e2830020	 add         r0, r3, #0x20
  04828	eb000000	 bl          EnterCriticalSection

; 1375 :     if ( m_pPipeQHead) {        

  0482c	e59d302c	 ldr         r3, [sp, #0x2C]
  04830	e2833064	 add         r3, r3, #0x64
  04834	e5933000	 ldr         r3, [r3]
  04838	e3530000	 cmp         r3, #0
  0483c	0a00001e	 beq         |$LN1@ClosePipe@3|

; 1376 :         AbortQueue( );

  04840	e59d002c	 ldr         r0, [sp, #0x2C]
  04844	eb000000	 bl          |?AbortQueue@CQueuedPipe@@IAAXXZ|

; 1377 :         //delete m_pPipeQHead;        
; 1378 :         m_pPipeQHead->~CQH();

  04848	e3a01000	 mov         r1, #0
  0484c	e59d302c	 ldr         r3, [sp, #0x2C]
  04850	e2833064	 add         r3, r3, #0x64
  04854	e5930000	 ldr         r0, [r3]
  04858	eb000000	 bl          |??_GCQH@@QAAPAXI@Z|

; 1379 :         delete m_pPipeQHead;        

  0485c	e59d302c	 ldr         r3, [sp, #0x2C]
  04860	e2833064	 add         r3, r3, #0x64
  04864	e5933000	 ldr         r3, [r3]
  04868	e58d3008	 str         r3, [sp, #8]
  0486c	e59d3008	 ldr         r3, [sp, #8]
  04870	e58d3004	 str         r3, [sp, #4]
  04874	e59d3004	 ldr         r3, [sp, #4]
  04878	e3530000	 cmp         r3, #0
  0487c	0a000006	 beq         |$LN6@ClosePipe@3|
  04880	e3a01001	 mov         r1, #1
  04884	e59d0004	 ldr         r0, [sp, #4]
  04888	eb000000	 bl          |??_GCQH@@QAAPAXI@Z|
  0488c	e58d001c	 str         r0, [sp, #0x1C]
  04890	e59d301c	 ldr         r3, [sp, #0x1C]
  04894	e58d3020	 str         r3, [sp, #0x20]
  04898	ea000001	 b           |$LN7@ClosePipe@3|
  0489c		 |$LN6@ClosePipe@3|
  0489c	e3a03000	 mov         r3, #0
  048a0	e58d3020	 str         r3, [sp, #0x20]
  048a4		 |$LN7@ClosePipe@3|

; 1380 :         m_pPipeQHead = NULL;

  048a4	e59d302c	 ldr         r3, [sp, #0x2C]
  048a8	e2832064	 add         r2, r3, #0x64
  048ac	e3a03000	 mov         r3, #0
  048b0	e5823000	 str         r3, [r2]

; 1381 :         status = requestOK;

  048b4	e3a03001	 mov         r3, #1
  048b8	e58d3000	 str         r3, [sp]
  048bc		 |$LN1@ClosePipe@3|

; 1382 :     }
; 1383 :     LeaveCriticalSection( &m_csPipeLock );

  048bc	e59d302c	 ldr         r3, [sp, #0x2C]
  048c0	e2830020	 add         r0, r3, #0x20
  048c4	eb000000	 bl          LeaveCriticalSection

; 1384 :     return status;

  048c8	e59d3000	 ldr         r3, [sp]
  048cc	e58d300c	 str         r3, [sp, #0xC]

; 1385 : }

  048d0	e59d000c	 ldr         r0, [sp, #0xC]
  048d4	e28dd024	 add         sp, sp, #0x24
  048d8	e89d6000	 ldmia       sp, {sp, lr}
  048dc	e12fff1e	 bx          lr
  048e0		 |$LN11@ClosePipe@3|
  048e0		 |$LN12@ClosePipe@3|
  048e0	00000000	 DCD         |??_C@_1DO@PENEAEKP@?$AA?$CF?$AAs?$AA?3?$AA?5?$AA?$CL?$AAC?$AAB?$AAu?$AAl?$AAk?$AAP?$AAi?$AAp?$AAe?$AA?$CI?$AA?$CF?$AAs?$AA?$CJ?$AA?3?$AA?3?$AAC?$AAl?$AAo?$AAs?$AAe?$AAP?$AAi?$AAp?$AAe?$AA?6?$AA?$AA@|
  048e4		 |$LN13@ClosePipe@3|
  048e4	00000000	 DCD         |dpCurSettings|
  048e8		 |$M38562|

			 ENDP  ; |?ClosePipe@CInterruptPipe@@UAA?AW4HCD_REQUEST_STATUS@@XZ|, CInterruptPipe::ClosePipe

	EXPORT	|??_C@_1II@KGNLLHBC@?$AA?$CF?$AAs?$AA?3?$AA?5?$AA?9?$AAC?$AAI?$AAn?$AAt?$AAe?$AAr?$AAr?$AAu?$AAp?$AAt?$AAP?$AAi?$AAp?$AAe?$AA?3?$AA?3?$AAA?$AAr?$AAe?$AAT?$AAr?$AAa?$AAn?$AAs?$AAf?$AAe?$AAr@| [ DATA ] ; `string'
	EXPORT	|??_C@_1GC@BCAAIAPK@?$AA?$CF?$AAs?$AA?3?$AA?5?$AA?$CL?$AAC?$AAI?$AAn?$AAt?$AAe?$AAr?$AAr?$AAu?$AAp?$AAt?$AAP?$AAi?$AAp?$AAe?$AA?3?$AA?3?$AAA?$AAr?$AAe?$AAT?$AAr?$AAa?$AAn?$AAs?$AAf?$AAe?$AAr@| [ DATA ] ; `string'

  00120			 AREA	 |.pdata|, PDATA
|$T38584| DCD	|$LN17@AreTransfe@3|
	DCD	0x4000a004

  00000			 AREA	 |.rdata|, DATA, READONLY
|??_C@_1II@KGNLLHBC@?$AA?$CF?$AAs?$AA?3?$AA?5?$AA?9?$AAC?$AAI?$AAn?$AAt?$AAe?$AAr?$AAr?$AAu?$AAp?$AAt?$AAP?$AAi?$AAp?$AAe?$AA?3?$AA?3?$AAA?$AAr?$AAe?$AAT?$AAr?$AAa?$AAn?$AAs?$AAf?$AAe?$AAr@| DCB "%"
	DCB	0x0, "s", 0x0, ":", 0x0, " ", 0x0, "-", 0x0, "C", 0x0, "I"
	DCB	0x0, "n", 0x0, "t", 0x0, "e", 0x0, "r", 0x0, "r", 0x0, "u"
	DCB	0x0, "p", 0x0, "t", 0x0, "P", 0x0, "i", 0x0, "p", 0x0, "e"
	DCB	0x0, ":", 0x0, ":", 0x0, "A", 0x0, "r", 0x0, "e", 0x0, "T"
	DCB	0x0, "r", 0x0, "a", 0x0, "n", 0x0, "s", 0x0, "f", 0x0, "e"
	DCB	0x0, "r", 0x0, "P", 0x0, "a", 0x0, "r", 0x0, "a", 0x0, "m"
	DCB	0x0, "e", 0x0, "t", 0x0, "e", 0x0, "r", 0x0, "s", 0x0, "V"
	DCB	0x0, "a", 0x0, "l", 0x0, "i", 0x0, "d", 0x0, ",", 0x0, " "
	DCB	0x0, "r", 0x0, "e", 0x0, "t", 0x0, "u", 0x0, "r", 0x0, "n"
	DCB	0x0, "i", 0x0, "n", 0x0, "g", 0x0, " ", 0x0, "B", 0x0, "O"
	DCB	0x0, "O", 0x0, "L", 0x0, " ", 0x0, "%", 0x0, "d", 0x0, 0xa
	DCB	0x0, 0x0, 0x0				; `string'

  00000			 AREA	 |.rdata|, DATA, READONLY
|??_C@_1GC@BCAAIAPK@?$AA?$CF?$AAs?$AA?3?$AA?5?$AA?$CL?$AAC?$AAI?$AAn?$AAt?$AAe?$AAr?$AAr?$AAu?$AAp?$AAt?$AAP?$AAi?$AAp?$AAe?$AA?3?$AA?3?$AAA?$AAr?$AAe?$AAT?$AAr?$AAa?$AAn?$AAs?$AAf?$AAe?$AAr@| DCB "%"
	DCB	0x0, "s", 0x0, ":", 0x0, " ", 0x0, "+", 0x0, "C", 0x0, "I"
	DCB	0x0, "n", 0x0, "t", 0x0, "e", 0x0, "r", 0x0, "r", 0x0, "u"
	DCB	0x0, "p", 0x0, "t", 0x0, "P", 0x0, "i", 0x0, "p", 0x0, "e"
	DCB	0x0, ":", 0x0, ":", 0x0, "A", 0x0, "r", 0x0, "e", 0x0, "T"
	DCB	0x0, "r", 0x0, "a", 0x0, "n", 0x0, "s", 0x0, "f", 0x0, "e"
	DCB	0x0, "r", 0x0, "P", 0x0, "a", 0x0, "r", 0x0, "a", 0x0, "m"
	DCB	0x0, "e", 0x0, "t", 0x0, "e", 0x0, "r", 0x0, "s", 0x0, "V"
	DCB	0x0, "a", 0x0, "l", 0x0, "i", 0x0, "d", 0x0, 0xa, 0x0, 0x0
	DCB	0x0					; `string'
; Function compile flags: /Odtp

  048e8			 AREA	 |.text|, CODE, ARM

  048e8		 |?AreTransferParametersValid@CInterruptPipe@@EBAHPBUSTRANSFER@@@Z| PROC ; CInterruptPipe::AreTransferParametersValid

; 1399 : {

  048e8		 |$LN17@AreTransfe@3|
  048e8	e1a0c00d	 mov         r12, sp
  048ec	e92d0003	 stmdb       sp!, {r0, r1}
  048f0	e92d5000	 stmdb       sp!, {r12, lr}
  048f4	e24dd024	 sub         sp, sp, #0x24
  048f8		 |$M38581|

; 1400 :     if (pTransfer == NULL)

  048f8	e59d3030	 ldr         r3, [sp, #0x30]
  048fc	e3530000	 cmp         r3, #0
  04900	1a000002	 bne         |$LN1@AreTransfe@3|

; 1401 :         return FALSE;

  04904	e3a03000	 mov         r3, #0
  04908	e58d3004	 str         r3, [sp, #4]
  0490c	ea00008c	 b           |$LN2@AreTransfe@3|
  04910		 |$LN1@AreTransfe@3|

; 1402 :     
; 1403 :     DEBUGMSG( ZONE_TRANSFER && ZONE_VERBOSE, (TEXT("%s: +CInterruptPipe::AreTransferParametersValid\n"),GetControllerName()) );

  04910	e59f3240	 ldr         r3, [pc, #0x240]
  04914	e5933440	 ldr         r3, [r3, #0x440]
  04918	e3130c01	 tst         r3, #1, 24
  0491c	0a00000c	 beq         |$LN4@AreTransfe@3|
  04920	e59f3230	 ldr         r3, [pc, #0x230]
  04924	e5933440	 ldr         r3, [r3, #0x440]
  04928	e3130a01	 tst         r3, #1, 20
  0492c	0a000008	 beq         |$LN4@AreTransfe@3|
  04930	e59d002c	 ldr         r0, [sp, #0x2C]
  04934	eb000000	 bl          |?GetControllerName@CPipe@@QBAPBGXZ|
  04938	e58d0008	 str         r0, [sp, #8]
  0493c	e59d1008	 ldr         r1, [sp, #8]
  04940	e59f021c	 ldr         r0, [pc, #0x21C]
  04944	eb000000	 bl          NKDbgPrintfW
  04948	e3a03001	 mov         r3, #1
  0494c	e58d300c	 str         r3, [sp, #0xC]
  04950	ea000001	 b           |$LN5@AreTransfe@3|
  04954		 |$LN4@AreTransfe@3|
  04954	e3a03000	 mov         r3, #0
  04958	e58d300c	 str         r3, [sp, #0xC]
  0495c		 |$LN5@AreTransfe@3|

; 1404 : 
; 1405 :     // these parameters aren't used by CInterruptPipe, so if they are non NULL,
; 1406 :     // it doesn't present a serious problem. But, they shouldn't have been
; 1407 :     // passed in as non-NULL by the calling driver.
; 1408 :     DEBUGCHK( pTransfer->adwIsochErrors == NULL && // ISOCH
; 1409 :               pTransfer->adwIsochLengths == NULL && // ISOCH
; 1410 :               pTransfer->aLengths == NULL && // ISOCH
; 1411 :               pTransfer->lpvControlHeader == NULL ); // CONTROL

  0495c	e59d3030	 ldr         r3, [sp, #0x30]
  04960	e283302c	 add         r3, r3, #0x2C
  04964	e5933000	 ldr         r3, [r3]
  04968	e3530000	 cmp         r3, #0
  0496c	1a000011	 bne         |$LN6@AreTransfe@3|
  04970	e59d3030	 ldr         r3, [sp, #0x30]
  04974	e2833030	 add         r3, r3, #0x30
  04978	e5933000	 ldr         r3, [r3]
  0497c	e3530000	 cmp         r3, #0
  04980	1a00000c	 bne         |$LN6@AreTransfe@3|
  04984	e59d3030	 ldr         r3, [sp, #0x30]
  04988	e2833018	 add         r3, r3, #0x18
  0498c	e5933000	 ldr         r3, [r3]
  04990	e3530000	 cmp         r3, #0
  04994	1a000007	 bne         |$LN6@AreTransfe@3|
  04998	e59d3030	 ldr         r3, [sp, #0x30]
  0499c	e283300c	 add         r3, r3, #0xC
  049a0	e5933000	 ldr         r3, [r3]
  049a4	e3530000	 cmp         r3, #0
  049a8	1a000002	 bne         |$LN6@AreTransfe@3|
  049ac	e3a03001	 mov         r3, #1
  049b0	e58d3010	 str         r3, [sp, #0x10]
  049b4	ea000008	 b           |$LN7@AreTransfe@3|
  049b8		 |$LN6@AreTransfe@3|
  049b8	e3a03c05	 mov         r3, #5, 24
  049bc	e3833083	 orr         r3, r3, #0x83
  049c0	e59f2198	 ldr         r2, [pc, #0x198]
  049c4	e59f118c	 ldr         r1, [pc, #0x18C]
  049c8	e59f018c	 ldr         r0, [pc, #0x18C]
  049cc	eb000000	 bl          NKDbgPrintfW
  049d0	e6000010	 __debugbreak_ce
  049d4	e3a03000	 mov         r3, #0
  049d8	e58d3010	 str         r3, [sp, #0x10]
  049dc		 |$LN7@AreTransfe@3|

; 1412 :     // this is also not a serious problem, but shouldn't happen in normal
; 1413 :     // circumstances. It would indicate a logic error in the calling driver.
; 1414 :     DEBUGCHK( !(pTransfer->lpStartAddress  == NULL && pTransfer->lpvNotifyParameter  != NULL) );

  049dc	e59d3030	 ldr         r3, [sp, #0x30]
  049e0	e5933000	 ldr         r3, [r3]
  049e4	e3530000	 cmp         r3, #0
  049e8	1a00000e	 bne         |$LN8@AreTransfe@3|
  049ec	e59d3030	 ldr         r3, [sp, #0x30]
  049f0	e2833004	 add         r3, r3, #4
  049f4	e5933000	 ldr         r3, [r3]
  049f8	e3530000	 cmp         r3, #0
  049fc	0a000009	 beq         |$LN8@AreTransfe@3|
  04a00	e3a03c05	 mov         r3, #5, 24
  04a04	e3833086	 orr         r3, r3, #0x86
  04a08	e59f2150	 ldr         r2, [pc, #0x150]
  04a0c	e59f1144	 ldr         r1, [pc, #0x144]
  04a10	e59f0144	 ldr         r0, [pc, #0x144]
  04a14	eb000000	 bl          NKDbgPrintfW
  04a18	e6000010	 __debugbreak_ce
  04a1c	e3a03000	 mov         r3, #0
  04a20	e58d3014	 str         r3, [sp, #0x14]
  04a24	ea000001	 b           |$LN9@AreTransfe@3|
  04a28		 |$LN8@AreTransfe@3|
  04a28	e3a03001	 mov         r3, #1
  04a2c	e58d3014	 str         r3, [sp, #0x14]
  04a30		 |$LN9@AreTransfe@3|

; 1415 :     // DWORD                     pTransfer->dwStartingFrame (ignored - ISOCH)
; 1416 :     // DWORD                     pTransfer->dwFrames (ignored - ISOCH)
; 1417 : 
; 1418 :     BOOL fValid = (  m_pPipeQHead!= NULL &&
; 1419 :                     m_bDeviceAddress > 0 && m_bDeviceAddress <= USB_MAX_ADDRESS &&
; 1420 :                     (pTransfer->lpvBuffer != NULL || pTransfer->dwBufferSize == 0) &&
; 1421 :                     // paClientBuffer could be 0 or !0
; 1422 :                     pTransfer->lpfComplete != NULL &&
; 1423 :                     pTransfer->lpdwBytesTransferred != NULL &&
; 1424 :                     pTransfer->lpdwError != NULL );

  04a30	e59d302c	 ldr         r3, [sp, #0x2C]
  04a34	e2833064	 add         r3, r3, #0x64
  04a38	e5933000	 ldr         r3, [r3]
  04a3c	e3530000	 cmp         r3, #0
  04a40	0a000025	 beq         |$LN10@AreTransfe@3|
  04a44	e59d302c	 ldr         r3, [sp, #0x2C]
  04a48	e283303b	 add         r3, r3, #0x3B
  04a4c	e5d33000	 ldrb        r3, [r3]
  04a50	e3530000	 cmp         r3, #0
  04a54	da000020	 ble         |$LN10@AreTransfe@3|
  04a58	e59d302c	 ldr         r3, [sp, #0x2C]
  04a5c	e283303b	 add         r3, r3, #0x3B
  04a60	e5d33000	 ldrb        r3, [r3]
  04a64	e353007f	 cmp         r3, #0x7F
  04a68	ca00001b	 bgt         |$LN10@AreTransfe@3|
  04a6c	e59d3030	 ldr         r3, [sp, #0x30]
  04a70	e2833020	 add         r3, r3, #0x20
  04a74	e5933000	 ldr         r3, [r3]
  04a78	e3530000	 cmp         r3, #0
  04a7c	1a000004	 bne         |$LN11@AreTransfe@3|
  04a80	e59d3030	 ldr         r3, [sp, #0x30]
  04a84	e283301c	 add         r3, r3, #0x1C
  04a88	e5933000	 ldr         r3, [r3]
  04a8c	e3530000	 cmp         r3, #0
  04a90	1a000011	 bne         |$LN10@AreTransfe@3|
  04a94		 |$LN11@AreTransfe@3|
  04a94	e59d3030	 ldr         r3, [sp, #0x30]
  04a98	e2833034	 add         r3, r3, #0x34
  04a9c	e5933000	 ldr         r3, [r3]
  04aa0	e3530000	 cmp         r3, #0
  04aa4	0a00000c	 beq         |$LN10@AreTransfe@3|
  04aa8	e59d3030	 ldr         r3, [sp, #0x30]
  04aac	e2833038	 add         r3, r3, #0x38
  04ab0	e5933000	 ldr         r3, [r3]
  04ab4	e3530000	 cmp         r3, #0
  04ab8	0a000007	 beq         |$LN10@AreTransfe@3|
  04abc	e59d3030	 ldr         r3, [sp, #0x30]
  04ac0	e283303c	 add         r3, r3, #0x3C
  04ac4	e5933000	 ldr         r3, [r3]
  04ac8	e3530000	 cmp         r3, #0
  04acc	0a000002	 beq         |$LN10@AreTransfe@3|
  04ad0	e3a03001	 mov         r3, #1
  04ad4	e58d3018	 str         r3, [sp, #0x18]
  04ad8	ea000001	 b           |$LN12@AreTransfe@3|
  04adc		 |$LN10@AreTransfe@3|
  04adc	e3a03000	 mov         r3, #0
  04ae0	e58d3018	 str         r3, [sp, #0x18]
  04ae4		 |$LN12@AreTransfe@3|
  04ae4	e59d3018	 ldr         r3, [sp, #0x18]
  04ae8	e58d3000	 str         r3, [sp]

; 1425 : 
; 1426 :     DEBUGMSG( ZONE_TRANSFER && ZONE_VERBOSE, (TEXT("%s: -CInterruptPipe::AreTransferParametersValid, returning BOOL %d\n"),GetControllerName(), fValid) );

  04aec	e59f3064	 ldr         r3, [pc, #0x64]
  04af0	e5933440	 ldr         r3, [r3, #0x440]
  04af4	e3130c01	 tst         r3, #1, 24
  04af8	0a00000d	 beq         |$LN13@AreTransfe@3|
  04afc	e59f3054	 ldr         r3, [pc, #0x54]
  04b00	e5933440	 ldr         r3, [r3, #0x440]
  04b04	e3130a01	 tst         r3, #1, 20
  04b08	0a000009	 beq         |$LN13@AreTransfe@3|
  04b0c	e59d002c	 ldr         r0, [sp, #0x2C]
  04b10	eb000000	 bl          |?GetControllerName@CPipe@@QBAPBGXZ|
  04b14	e58d001c	 str         r0, [sp, #0x1C]
  04b18	e59d2000	 ldr         r2, [sp]
  04b1c	e59d101c	 ldr         r1, [sp, #0x1C]
  04b20	e59f002c	 ldr         r0, [pc, #0x2C]
  04b24	eb000000	 bl          NKDbgPrintfW
  04b28	e3a03001	 mov         r3, #1
  04b2c	e58d3020	 str         r3, [sp, #0x20]
  04b30	ea000001	 b           |$LN14@AreTransfe@3|
  04b34		 |$LN13@AreTransfe@3|
  04b34	e3a03000	 mov         r3, #0
  04b38	e58d3020	 str         r3, [sp, #0x20]
  04b3c		 |$LN14@AreTransfe@3|

; 1427 :     return fValid;

  04b3c	e59d3000	 ldr         r3, [sp]
  04b40	e58d3004	 str         r3, [sp, #4]
  04b44		 |$LN2@AreTransfe@3|

; 1428 : }

  04b44	e59d0004	 ldr         r0, [sp, #4]
  04b48	e28dd024	 add         sp, sp, #0x24
  04b4c	e89d6000	 ldmia       sp, {sp, lr}
  04b50	e12fff1e	 bx          lr
  04b54		 |$LN18@AreTransfe@3|
  04b54		 |$LN19@AreTransfe@3|
  04b54	00000000	 DCD         |??_C@_1II@KGNLLHBC@?$AA?$CF?$AAs?$AA?3?$AA?5?$AA?9?$AAC?$AAI?$AAn?$AAt?$AAe?$AAr?$AAr?$AAu?$AAp?$AAt?$AAP?$AAi?$AAp?$AAe?$AA?3?$AA?3?$AAA?$AAr?$AAe?$AAT?$AAr?$AAa?$AAn?$AAs?$AAf?$AAe?$AAr@|
  04b58		 |$LN20@AreTransfe@3|
  04b58	00000000	 DCD         |dpCurSettings|
  04b5c		 |$LN21@AreTransfe@3|
  04b5c	00000000	 DCD         |??_C@_1FK@FNONLNGN@?$AA?$CF?$AAs?$AA?3?$AA?5?$AAD?$AAE?$AAB?$AAU?$AAG?$AAC?$AAH?$AAK?$AA?5?$AAf?$AAa?$AAi?$AAl?$AAe?$AAd?$AA?5?$AAi?$AAn?$AA?5?$AAf?$AAi?$AAl?$AAe?$AA?5?$AA?$CF?$AAs?$AA?5?$AAa@|
  04b60		 |$LN22@AreTransfe@3|
  04b60	00000000	 DCD         |??_C@_1LK@LMPDOKKA@?$AAC?$AA?3?$AA?2?$AAW?$AAI?$AAN?$AAC?$AAE?$AA6?$AA0?$AA0?$AA?2?$AAP?$AAL?$AAA?$AAT?$AAF?$AAO?$AAR?$AAM?$AA?2?$AAC?$AAO?$AAM?$AAM?$AAO?$AAN?$AA?2?$AAS?$AAR?$AAC?$AA?2@|
  04b64		 |$LN23@AreTransfe@3|
  04b64	00000000	 DCD         |??_C@_1GC@BCAAIAPK@?$AA?$CF?$AAs?$AA?3?$AA?5?$AA?$CL?$AAC?$AAI?$AAn?$AAt?$AAe?$AAr?$AAr?$AAu?$AAp?$AAt?$AAP?$AAi?$AAp?$AAe?$AA?3?$AA?3?$AAA?$AAr?$AAe?$AAT?$AAr?$AAa?$AAn?$AAs?$AAf?$AAe?$AAr@|
  04b68		 |$M38582|

			 ENDP  ; |?AreTransferParametersValid@CInterruptPipe@@EBAHPBUSTRANSFER@@@Z|, CInterruptPipe::AreTransferParametersValid

	EXPORT	|?CreateBulkPipe@@YAPAVCPipeAbs@@QBU_USB_ENDPOINT_DESCRIPTOR@@HHEEEHQAVCHcd@@@Z| ; CreateBulkPipe

  00128			 AREA	 |.pdata|, PDATA
|$T38604| DCD	|$LN7@CreateBulk|
	DCD	0x40002704
; Function compile flags: /Odtp

  04b68			 AREA	 |.text|, CODE, ARM

  04b68		 |?CreateBulkPipe@@YAPAVCPipeAbs@@QBU_USB_ENDPOINT_DESCRIPTOR@@HHEEEHQAVCHcd@@@Z| PROC ; CreateBulkPipe

; 1436 : {    

  04b68		 |$LN7@CreateBulk|
  04b68	e1a0c00d	 mov         r12, sp
  04b6c	e92d000f	 stmdb       sp!, {r0 - r3}
  04b70	e92d5000	 stmdb       sp!, {r12, lr}
  04b74	e24dd03c	 sub         sp, sp, #0x3C
  04b78		 |$M38601|

; 1437 :     return new CBulkPipe(lpEndpointDescriptor,fIsLowSpeed,fIsHighSpeed,bDeviceAddress,bHubAddress,bHubPort,ttContext,(CMhcd * const)pChcd);

  04b78	e3a00070	 mov         r0, #0x70
  04b7c	eb000000	 bl          |??2@YAPAXI@Z|
  04b80	e58d0030	 str         r0, [sp, #0x30]
  04b84	e59d3030	 ldr         r3, [sp, #0x30]
  04b88	e58d3014	 str         r3, [sp, #0x14]
  04b8c	e59d3014	 ldr         r3, [sp, #0x14]
  04b90	e3530000	 cmp         r3, #0
  04b94	0a000012	 beq         |$LN3@CreateBulk|
  04b98	e59d3060	 ldr         r3, [sp, #0x60]
  04b9c	e58d3010	 str         r3, [sp, #0x10]
  04ba0	e59d305c	 ldr         r3, [sp, #0x5C]
  04ba4	e58d300c	 str         r3, [sp, #0xC]
  04ba8	e5dd3058	 ldrb        r3, [sp, #0x58]
  04bac	e58d3008	 str         r3, [sp, #8]
  04bb0	e5dd3054	 ldrb        r3, [sp, #0x54]
  04bb4	e58d3004	 str         r3, [sp, #4]
  04bb8	e5dd3050	 ldrb        r3, [sp, #0x50]
  04bbc	e58d3000	 str         r3, [sp]
  04bc0	e59d304c	 ldr         r3, [sp, #0x4C]
  04bc4	e59d2048	 ldr         r2, [sp, #0x48]
  04bc8	e59d1044	 ldr         r1, [sp, #0x44]
  04bcc	e59d0014	 ldr         r0, [sp, #0x14]
  04bd0	eb000000	 bl          |??0CBulkPipe@@QAA@QBU_USB_ENDPOINT_DESCRIPTOR@@HHEEEHQAVCMhcd@@@Z|
  04bd4	e58d0034	 str         r0, [sp, #0x34]
  04bd8	e59d3034	 ldr         r3, [sp, #0x34]
  04bdc	e58d3038	 str         r3, [sp, #0x38]
  04be0	ea000001	 b           |$LN4@CreateBulk|
  04be4		 |$LN3@CreateBulk|
  04be4	e3a03000	 mov         r3, #0
  04be8	e58d3038	 str         r3, [sp, #0x38]
  04bec		 |$LN4@CreateBulk|
  04bec	e59d3038	 ldr         r3, [sp, #0x38]
  04bf0	e58d302c	 str         r3, [sp, #0x2C]

; 1438 : }

  04bf4	e59d002c	 ldr         r0, [sp, #0x2C]
  04bf8	e28dd03c	 add         sp, sp, #0x3C
  04bfc	e89d6000	 ldmia       sp, {sp, lr}
  04c00	e12fff1e	 bx          lr
  04c04		 |$M38602|

			 ENDP  ; |?CreateBulkPipe@@YAPAVCPipeAbs@@QBU_USB_ENDPOINT_DESCRIPTOR@@HHEEEHQAVCHcd@@@Z|, CreateBulkPipe

	EXPORT	|?CreateControlPipe@@YAPAVCPipeAbs@@QBU_USB_ENDPOINT_DESCRIPTOR@@HHEEEHQAVCHcd@@@Z| ; CreateControlPipe

  00130			 AREA	 |.pdata|, PDATA
|$T38618| DCD	|$LN7@CreateCont|
	DCD	0x40002704
; Function compile flags: /Odtp

  04c04			 AREA	 |.text|, CODE, ARM

  04c04		 |?CreateControlPipe@@YAPAVCPipeAbs@@QBU_USB_ENDPOINT_DESCRIPTOR@@HHEEEHQAVCHcd@@@Z| PROC ; CreateControlPipe

; 1444 : {     

  04c04		 |$LN7@CreateCont|
  04c04	e1a0c00d	 mov         r12, sp
  04c08	e92d000f	 stmdb       sp!, {r0 - r3}
  04c0c	e92d5000	 stmdb       sp!, {r12, lr}
  04c10	e24dd03c	 sub         sp, sp, #0x3C
  04c14		 |$M38615|

; 1445 :     return new CControlPipe(lpEndpointDescriptor,fIsLowSpeed,fIsHighSpeed,bDeviceAddress,bHubAddress,bHubPort,ttContext,(CMhcd * const)pChcd);

  04c14	e3a00070	 mov         r0, #0x70
  04c18	eb000000	 bl          |??2@YAPAXI@Z|
  04c1c	e58d0030	 str         r0, [sp, #0x30]
  04c20	e59d3030	 ldr         r3, [sp, #0x30]
  04c24	e58d3014	 str         r3, [sp, #0x14]
  04c28	e59d3014	 ldr         r3, [sp, #0x14]
  04c2c	e3530000	 cmp         r3, #0
  04c30	0a000012	 beq         |$LN3@CreateCont|
  04c34	e59d3060	 ldr         r3, [sp, #0x60]
  04c38	e58d3010	 str         r3, [sp, #0x10]
  04c3c	e59d305c	 ldr         r3, [sp, #0x5C]
  04c40	e58d300c	 str         r3, [sp, #0xC]
  04c44	e5dd3058	 ldrb        r3, [sp, #0x58]
  04c48	e58d3008	 str         r3, [sp, #8]
  04c4c	e5dd3054	 ldrb        r3, [sp, #0x54]
  04c50	e58d3004	 str         r3, [sp, #4]
  04c54	e5dd3050	 ldrb        r3, [sp, #0x50]
  04c58	e58d3000	 str         r3, [sp]
  04c5c	e59d304c	 ldr         r3, [sp, #0x4C]
  04c60	e59d2048	 ldr         r2, [sp, #0x48]
  04c64	e59d1044	 ldr         r1, [sp, #0x44]
  04c68	e59d0014	 ldr         r0, [sp, #0x14]
  04c6c	eb000000	 bl          |??0CControlPipe@@QAA@QBU_USB_ENDPOINT_DESCRIPTOR@@HHEEEHQAVCMhcd@@@Z|
  04c70	e58d0034	 str         r0, [sp, #0x34]
  04c74	e59d3034	 ldr         r3, [sp, #0x34]
  04c78	e58d3038	 str         r3, [sp, #0x38]
  04c7c	ea000001	 b           |$LN4@CreateCont|
  04c80		 |$LN3@CreateCont|
  04c80	e3a03000	 mov         r3, #0
  04c84	e58d3038	 str         r3, [sp, #0x38]
  04c88		 |$LN4@CreateCont|
  04c88	e59d3038	 ldr         r3, [sp, #0x38]
  04c8c	e58d302c	 str         r3, [sp, #0x2C]

; 1446 : }

  04c90	e59d002c	 ldr         r0, [sp, #0x2C]
  04c94	e28dd03c	 add         sp, sp, #0x3C
  04c98	e89d6000	 ldmia       sp, {sp, lr}
  04c9c	e12fff1e	 bx          lr
  04ca0		 |$M38616|

			 ENDP  ; |?CreateControlPipe@@YAPAVCPipeAbs@@QBU_USB_ENDPOINT_DESCRIPTOR@@HHEEEHQAVCHcd@@@Z|, CreateControlPipe

	EXPORT	|?CreateInterruptPipe@@YAPAVCPipeAbs@@QBU_USB_ENDPOINT_DESCRIPTOR@@HHEEEHQAVCHcd@@@Z| ; CreateInterruptPipe

  00138			 AREA	 |.pdata|, PDATA
|$T38632| DCD	|$LN7@CreateInte|
	DCD	0x40002704
; Function compile flags: /Odtp

  04ca0			 AREA	 |.text|, CODE, ARM

  04ca0		 |?CreateInterruptPipe@@YAPAVCPipeAbs@@QBU_USB_ENDPOINT_DESCRIPTOR@@HHEEEHQAVCHcd@@@Z| PROC ; CreateInterruptPipe

; 1453 : {     

  04ca0		 |$LN7@CreateInte|
  04ca0	e1a0c00d	 mov         r12, sp
  04ca4	e92d000f	 stmdb       sp!, {r0 - r3}
  04ca8	e92d5000	 stmdb       sp!, {r12, lr}
  04cac	e24dd03c	 sub         sp, sp, #0x3C
  04cb0		 |$M38629|

; 1454 :     return new CInterruptPipe(lpEndpointDescriptor,fIsLowSpeed,fIsHighSpeed,bDeviceAddress,bHubAddress,bHubPort,ttContext,(CMhcd * const)pChcd);

  04cb0	e3a0008c	 mov         r0, #0x8C
  04cb4	eb000000	 bl          |??2@YAPAXI@Z|
  04cb8	e58d0030	 str         r0, [sp, #0x30]
  04cbc	e59d3030	 ldr         r3, [sp, #0x30]
  04cc0	e58d3014	 str         r3, [sp, #0x14]
  04cc4	e59d3014	 ldr         r3, [sp, #0x14]
  04cc8	e3530000	 cmp         r3, #0
  04ccc	0a000012	 beq         |$LN3@CreateInte|
  04cd0	e59d3060	 ldr         r3, [sp, #0x60]
  04cd4	e58d3010	 str         r3, [sp, #0x10]
  04cd8	e59d305c	 ldr         r3, [sp, #0x5C]
  04cdc	e58d300c	 str         r3, [sp, #0xC]
  04ce0	e5dd3058	 ldrb        r3, [sp, #0x58]
  04ce4	e58d3008	 str         r3, [sp, #8]
  04ce8	e5dd3054	 ldrb        r3, [sp, #0x54]
  04cec	e58d3004	 str         r3, [sp, #4]
  04cf0	e5dd3050	 ldrb        r3, [sp, #0x50]
  04cf4	e58d3000	 str         r3, [sp]
  04cf8	e59d304c	 ldr         r3, [sp, #0x4C]
  04cfc	e59d2048	 ldr         r2, [sp, #0x48]
  04d00	e59d1044	 ldr         r1, [sp, #0x44]
  04d04	e59d0014	 ldr         r0, [sp, #0x14]
  04d08	eb000000	 bl          |??0CInterruptPipe@@QAA@QBU_USB_ENDPOINT_DESCRIPTOR@@HHEEEHQAVCMhcd@@@Z|
  04d0c	e58d0034	 str         r0, [sp, #0x34]
  04d10	e59d3034	 ldr         r3, [sp, #0x34]
  04d14	e58d3038	 str         r3, [sp, #0x38]
  04d18	ea000001	 b           |$LN4@CreateInte|
  04d1c		 |$LN3@CreateInte|
  04d1c	e3a03000	 mov         r3, #0
  04d20	e58d3038	 str         r3, [sp, #0x38]
  04d24		 |$LN4@CreateInte|
  04d24	e59d3038	 ldr         r3, [sp, #0x38]
  04d28	e58d302c	 str         r3, [sp, #0x2C]

; 1455 : }

  04d2c	e59d002c	 ldr         r0, [sp, #0x2C]
  04d30	e28dd03c	 add         sp, sp, #0x3C
  04d34	e89d6000	 ldmia       sp, {sp, lr}
  04d38	e12fff1e	 bx          lr
  04d3c		 |$M38630|

			 ENDP  ; |?CreateInterruptPipe@@YAPAVCPipeAbs@@QBU_USB_ENDPOINT_DESCRIPTOR@@HHEEEHQAVCHcd@@@Z|, CreateInterruptPipe

	END
