; Listing generated by Microsoft (R) Optimizing Compiler Version 14.01.60511.01 

	TTL	C:\WINCE600\PLATFORM\COMMON\SRC\SOC\COMMON_TI_V1\OMAP3530\MUSB\MUSBHCD\MUSBMHDRC\cpipe.cpp
	CODE32

  00000			 AREA	 |.drectve|, DRECTVE
	DCB	"-defaultlib:LIBCMT "
	DCB	"-defaultlib:OLDNAMES "

	EXPORT	|??_C@_1DK@JPBDFEOB@?$AAD?$AAE?$AAV?$AAI?$AAC?$AAE?$AA_?$AAC?$AAO?$AAN?$AAF?$AAI?$AAG?$AA_?$AAS?$AAT?$AAA?$AAT?$AAU?$AAS?$AA_?$AAI?$AAN?$AAV?$AAA?$AAL?$AAI?$AAD?$AA?$AA@| [ DATA ] ; `string'
	EXPORT	|??_C@_1DE@IMCKALLA@?$AAD?$AAE?$AAV?$AAI?$AAC?$AAE?$AA_?$AAC?$AAO?$AAN?$AAF?$AAI?$AAG?$AA_?$AAS?$AAT?$AAA?$AAT?$AAU?$AAS?$AA_?$AAD?$AAO?$AAN?$AAE?$AA?$AA@| [ DATA ] ; `string'
	EXPORT	|??_C@_1DI@CEGNOBAM@?$AAD?$AAE?$AAV?$AAI?$AAC?$AAE?$AA_?$AAC?$AAO?$AAN?$AAF?$AAI?$AAG?$AA_?$AAS?$AAT?$AAA?$AAT?$AAU?$AAS?$AA_?$AAF?$AAA?$AAI?$AAL?$AAE?$AAD?$AA?$AA@| [ DATA ] ; `string'
	EXPORT	|??_C@_1HO@PGHDEMEK@?$AAD?$AAE?$AAV?$AAI?$AAC?$AAE?$AA_?$AAC?$AAO?$AAN?$AAF?$AAI?$AAG?$AA_?$AAS?$AAT?$AAA?$AAT?$AAU?$AAS?$AA_?$AAS?$AAI?$AAG?$AAN?$AAA?$AAL?$AA_?$AAN?$AAE?$AAW?$AA_@| [ DATA ] ; `string'
	EXPORT	|??_C@_1II@FBBOBKGN@?$AAD?$AAE?$AAV?$AAI?$AAC?$AAE?$AA_?$AAC?$AAO?$AAN?$AAF?$AAI?$AAG?$AA_?$AAS?$AAT?$AAA?$AAT?$AAU?$AAS?$AA_?$AAI?$AAN?$AAS?$AAE?$AAR?$AAT?$AA_?$AAN?$AAE?$AAW?$AA_@| [ DATA ] ; `string'
	EXPORT	|??_C@_1FC@LCLFDJDO@?$AAD?$AAE?$AAV?$AAI?$AAC?$AAE?$AA_?$AAC?$AAO?$AAN?$AAF?$AAI?$AAG?$AA_?$AAS?$AAT?$AAA?$AAT?$AAU?$AAS?$AA_?$AAC?$AAR?$AAE?$AAA?$AAT?$AAE?$AA_?$AAN?$AAE?$AAW?$AA_@| [ DATA ] ; `string'
	EXPORT	|??_C@_1EI@COKEBMOE@?$AAD?$AAE?$AAV?$AAI?$AAC?$AAE?$AA_?$AAC?$AAO?$AAN?$AAF?$AAI?$AAG?$AA_?$AAS?$AAT?$AAA?$AAT?$AAU?$AAS?$AA_?$AAC?$AAR?$AAE?$AAA?$AAT?$AAE?$AA_?$AAN?$AAE?$AAW?$AA_@| [ DATA ] ; `string'
	EXPORT	|??_C@_1GG@HPGGGHKI@?$AAD?$AAE?$AAV?$AAI?$AAC?$AAE?$AA_?$AAC?$AAO?$AAN?$AAF?$AAI?$AAG?$AA_?$AAS?$AAT?$AAA?$AAT?$AAU?$AAS?$AA_?$AAS?$AAC?$AAH?$AAE?$AAD?$AAU?$AAL?$AAI?$AAN?$AAG?$AA_@| [ DATA ] ; `string'
	EXPORT	|??_C@_1HG@KPBCOGEF@?$AAD?$AAE?$AAV?$AAI?$AAC?$AAE?$AA_?$AAC?$AAO?$AAN?$AAF?$AAI?$AAG?$AA_?$AAS?$AAT?$AAA?$AAT?$AAU?$AAS?$AA_?$AAS?$AAC?$AAH?$AAE?$AAD?$AAU?$AAL?$AAI?$AAN?$AAG?$AA_@| [ DATA ] ; `string'
	EXPORT	|??_C@_1FG@CFFAAPDL@?$AAD?$AAE?$AAV?$AAI?$AAC?$AAE?$AA_?$AAC?$AAO?$AAN?$AAF?$AAI?$AAG?$AA_?$AAS?$AAT?$AAA?$AAT?$AAU?$AAS?$AA_?$AAS?$AAC?$AAH?$AAE?$AAD?$AAU?$AAL?$AAI?$AAN?$AAG?$AA_@| [ DATA ] ; `string'
	EXPORT	|??_C@_1GA@NDHJOKMM@?$AAD?$AAE?$AAV?$AAI?$AAC?$AAE?$AA_?$AAC?$AAO?$AAN?$AAF?$AAI?$AAG?$AA_?$AAS?$AAT?$AAA?$AAT?$AAU?$AAS?$AA_?$AAD?$AAE?$AAT?$AAE?$AAR?$AAM?$AAI?$AAN?$AAE?$AA_?$AAC@| [ DATA ] ; `string'
	EXPORT	|??_C@_1GM@JADKDKDC@?$AAD?$AAE?$AAV?$AAI?$AAC?$AAE?$AA_?$AAC?$AAO?$AAN?$AAF?$AAI?$AAG?$AA_?$AAS?$AAT?$AAA?$AAT?$AAU?$AAS?$AA_?$AAS?$AAC?$AAH?$AAE?$AAD?$AAU?$AAL?$AAI?$AAN?$AAG?$AA_@| [ DATA ] ; `string'
	EXPORT	|??_C@_1HM@NPLCKJLH@?$AAD?$AAE?$AAV?$AAI?$AAC?$AAE?$AA_?$AAC?$AAO?$AAN?$AAF?$AAI?$AAG?$AA_?$AAS?$AAT?$AAA?$AAT?$AAU?$AAS?$AA_?$AAS?$AAC?$AAH?$AAE?$AAD?$AAU?$AAL?$AAI?$AAN?$AAG?$AA_@| [ DATA ] ; `string'
	EXPORT	|??_C@_1HE@MEMGEMJJ@?$AAD?$AAE?$AAV?$AAI?$AAC?$AAE?$AA_?$AAC?$AAO?$AAN?$AAF?$AAI?$AAG?$AA_?$AAS?$AAT?$AAA?$AAT?$AAU?$AAS?$AA_?$AAS?$AAE?$AAT?$AAU?$AAP?$AA_?$AAC?$AAO?$AAN?$AAF?$AAI@| [ DATA ] ; `string'
	EXPORT	|??_C@_1GM@BCHKIAPP@?$AAD?$AAE?$AAV?$AAI?$AAC?$AAE?$AA_?$AAC?$AAO?$AAN?$AAF?$AAI?$AAG?$AA_?$AAS?$AAT?$AAA?$AAT?$AAU?$AAS?$AA_?$AAS?$AAC?$AAH?$AAE?$AAD?$AAU?$AAL?$AAI?$AAN?$AAG?$AA_@| [ DATA ] ; `string'
	EXPORT	|??_C@_1HM@FNPCBDHK@?$AAD?$AAE?$AAV?$AAI?$AAC?$AAE?$AA_?$AAC?$AAO?$AAN?$AAF?$AAI?$AAG?$AA_?$AAS?$AAT?$AAA?$AAT?$AAU?$AAS?$AA_?$AAS?$AAC?$AAH?$AAE?$AAD?$AAU?$AAL?$AAI?$AAN?$AAG?$AA_@| [ DATA ] ; `string'
	EXPORT	|??_C@_1EI@BBOOKHNN@?$AAD?$AAE?$AAV?$AAI?$AAC?$AAE?$AA_?$AAC?$AAO?$AAN?$AAF?$AAI?$AAG?$AA_?$AAS?$AAT?$AAA?$AAT?$AAU?$AAS?$AA_?$AAL?$AAE?$AAA?$AAV?$AAE?$AA_?$AAA?$AAD?$AAD?$AAR?$AAE@| [ DATA ] ; `string'
	EXPORT	|??_C@_1FI@LGLHPFAK@?$AAD?$AAE?$AAV?$AAI?$AAC?$AAE?$AA_?$AAC?$AAO?$AAN?$AAF?$AAI?$AAG?$AA_?$AAS?$AAT?$AAA?$AAT?$AAU?$AAS?$AA_?$AAS?$AAC?$AAH?$AAE?$AAD?$AAU?$AAL?$AAI?$AAN?$AAG?$AA_@| [ DATA ] ; `string'
	EXPORT	|??_C@_1HG@BLNLBKIO@?$AAD?$AAE?$AAV?$AAI?$AAC?$AAE?$AA_?$AAC?$AAO?$AAN?$AAF?$AAI?$AAG?$AA_?$AAS?$AAT?$AAA?$AAT?$AAU?$AAS?$AA_?$AAS?$AAC?$AAH?$AAE?$AAD?$AAU?$AAL?$AAI?$AAN?$AAG?$AA_@| [ DATA ] ; `string'
	EXPORT	|??_C@_1FG@NMCKCJLL@?$AAD?$AAE?$AAV?$AAI?$AAC?$AAE?$AA_?$AAC?$AAO?$AAN?$AAF?$AAI?$AAG?$AA_?$AAS?$AAT?$AAA?$AAT?$AAU?$AAS?$AA_?$AAR?$AAE?$AAS?$AAE?$AAT?$AA_?$AAA?$AAN?$AAD?$AA_?$AAE@| [ DATA ] ; `string'
	EXPORT	|??_C@_1EI@KNOIBOPH@?$AAD?$AAE?$AAV?$AAI?$AAC?$AAE?$AA_?$AAC?$AAO?$AAN?$AAF?$AAI?$AAG?$AA_?$AAS?$AAT?$AAA?$AAT?$AAU?$AAS?$AA_?$AAU?$AAS?$AAI?$AAN?$AAG?$AA_?$AAA?$AAD?$AAD?$AAR?$AAE@| [ DATA ] ; `string'
	EXPORT	|??_C@_1FI@COMJHLEF@?$AAD?$AAE?$AAV?$AAI?$AAC?$AAE?$AA_?$AAC?$AAO?$AAN?$AAF?$AAI?$AAG?$AA_?$AAS?$AAT?$AAA?$AAT?$AAU?$AAS?$AA_?$AAO?$AAP?$AAE?$AAN?$AAI?$AAN?$AAG?$AA_?$AAE?$AAN?$AAD@| [ DATA ] ; `string'

  00000			 AREA	 |.data|, DATA
|cszCfgStateStrings| DCD |??_C@_1FI@COMJHLEF@?$AAD?$AAE?$AAV?$AAI?$AAC?$AAE?$AA_?$AAC?$AAO?$AAN?$AAF?$AAI?$AAG?$AA_?$AAS?$AAT?$AAA?$AAT?$AAU?$AAS?$AA_?$AAO?$AAP?$AAE?$AAN?$AAI?$AAN?$AAG?$AA_?$AAE?$AAN?$AAD@|
	DCD	|??_C@_1EI@KNOIBOPH@?$AAD?$AAE?$AAV?$AAI?$AAC?$AAE?$AA_?$AAC?$AAO?$AAN?$AAF?$AAI?$AAG?$AA_?$AAS?$AAT?$AAA?$AAT?$AAU?$AAS?$AA_?$AAU?$AAS?$AAI?$AAN?$AAG?$AA_?$AAA?$AAD?$AAD?$AAR?$AAE@|
	DCD	|??_C@_1FG@NMCKCJLL@?$AAD?$AAE?$AAV?$AAI?$AAC?$AAE?$AA_?$AAC?$AAO?$AAN?$AAF?$AAI?$AAG?$AA_?$AAS?$AAT?$AAA?$AAT?$AAU?$AAS?$AA_?$AAR?$AAE?$AAS?$AAE?$AAT?$AA_?$AAA?$AAN?$AAD?$AA_?$AAE@|
	DCD	|??_C@_1HG@BLNLBKIO@?$AAD?$AAE?$AAV?$AAI?$AAC?$AAE?$AA_?$AAC?$AAO?$AAN?$AAF?$AAI?$AAG?$AA_?$AAS?$AAT?$AAA?$AAT?$AAU?$AAS?$AA_?$AAS?$AAC?$AAH?$AAE?$AAD?$AAU?$AAL?$AAI?$AAN?$AAG?$AA_@|
	DCD	|??_C@_1FI@LGLHPFAK@?$AAD?$AAE?$AAV?$AAI?$AAC?$AAE?$AA_?$AAC?$AAO?$AAN?$AAF?$AAI?$AAG?$AA_?$AAS?$AAT?$AAA?$AAT?$AAU?$AAS?$AA_?$AAS?$AAC?$AAH?$AAE?$AAD?$AAU?$AAL?$AAI?$AAN?$AAG?$AA_@|
	DCD	|??_C@_1EI@BBOOKHNN@?$AAD?$AAE?$AAV?$AAI?$AAC?$AAE?$AA_?$AAC?$AAO?$AAN?$AAF?$AAI?$AAG?$AA_?$AAS?$AAT?$AAA?$AAT?$AAU?$AAS?$AA_?$AAL?$AAE?$AAA?$AAV?$AAE?$AA_?$AAA?$AAD?$AAD?$AAR?$AAE@|
	DCD	|??_C@_1HM@FNPCBDHK@?$AAD?$AAE?$AAV?$AAI?$AAC?$AAE?$AA_?$AAC?$AAO?$AAN?$AAF?$AAI?$AAG?$AA_?$AAS?$AAT?$AAA?$AAT?$AAU?$AAS?$AA_?$AAS?$AAC?$AAH?$AAE?$AAD?$AAU?$AAL?$AAI?$AAN?$AAG?$AA_@|
	DCD	|??_C@_1GM@BCHKIAPP@?$AAD?$AAE?$AAV?$AAI?$AAC?$AAE?$AA_?$AAC?$AAO?$AAN?$AAF?$AAI?$AAG?$AA_?$AAS?$AAT?$AAA?$AAT?$AAU?$AAS?$AA_?$AAS?$AAC?$AAH?$AAE?$AAD?$AAU?$AAL?$AAI?$AAN?$AAG?$AA_@|
	DCD	|??_C@_1HE@MEMGEMJJ@?$AAD?$AAE?$AAV?$AAI?$AAC?$AAE?$AA_?$AAC?$AAO?$AAN?$AAF?$AAI?$AAG?$AA_?$AAS?$AAT?$AAA?$AAT?$AAU?$AAS?$AA_?$AAS?$AAE?$AAT?$AAU?$AAP?$AA_?$AAC?$AAO?$AAN?$AAF?$AAI@|
	DCD	|??_C@_1HM@NPLCKJLH@?$AAD?$AAE?$AAV?$AAI?$AAC?$AAE?$AA_?$AAC?$AAO?$AAN?$AAF?$AAI?$AAG?$AA_?$AAS?$AAT?$AAA?$AAT?$AAU?$AAS?$AA_?$AAS?$AAC?$AAH?$AAE?$AAD?$AAU?$AAL?$AAI?$AAN?$AAG?$AA_@|
	DCD	|??_C@_1GM@JADKDKDC@?$AAD?$AAE?$AAV?$AAI?$AAC?$AAE?$AA_?$AAC?$AAO?$AAN?$AAF?$AAI?$AAG?$AA_?$AAS?$AAT?$AAA?$AAT?$AAU?$AAS?$AA_?$AAS?$AAC?$AAH?$AAE?$AAD?$AAU?$AAL?$AAI?$AAN?$AAG?$AA_@|
	DCD	|??_C@_1GA@NDHJOKMM@?$AAD?$AAE?$AAV?$AAI?$AAC?$AAE?$AA_?$AAC?$AAO?$AAN?$AAF?$AAI?$AAG?$AA_?$AAS?$AAT?$AAA?$AAT?$AAU?$AAS?$AA_?$AAD?$AAE?$AAT?$AAE?$AAR?$AAM?$AAI?$AAN?$AAE?$AA_?$AAC@|
	DCD	|??_C@_1FG@CFFAAPDL@?$AAD?$AAE?$AAV?$AAI?$AAC?$AAE?$AA_?$AAC?$AAO?$AAN?$AAF?$AAI?$AAG?$AA_?$AAS?$AAT?$AAA?$AAT?$AAU?$AAS?$AA_?$AAS?$AAC?$AAH?$AAE?$AAD?$AAU?$AAL?$AAI?$AAN?$AAG?$AA_@|
	DCD	|??_C@_1HG@KPBCOGEF@?$AAD?$AAE?$AAV?$AAI?$AAC?$AAE?$AA_?$AAC?$AAO?$AAN?$AAF?$AAI?$AAG?$AA_?$AAS?$AAT?$AAA?$AAT?$AAU?$AAS?$AA_?$AAS?$AAC?$AAH?$AAE?$AAD?$AAU?$AAL?$AAI?$AAN?$AAG?$AA_@|
	DCD	|??_C@_1GG@HPGGGHKI@?$AAD?$AAE?$AAV?$AAI?$AAC?$AAE?$AA_?$AAC?$AAO?$AAN?$AAF?$AAI?$AAG?$AA_?$AAS?$AAT?$AAA?$AAT?$AAU?$AAS?$AA_?$AAS?$AAC?$AAH?$AAE?$AAD?$AAU?$AAL?$AAI?$AAN?$AAG?$AA_@|
	DCD	|??_C@_1EI@COKEBMOE@?$AAD?$AAE?$AAV?$AAI?$AAC?$AAE?$AA_?$AAC?$AAO?$AAN?$AAF?$AAI?$AAG?$AA_?$AAS?$AAT?$AAA?$AAT?$AAU?$AAS?$AA_?$AAC?$AAR?$AAE?$AAA?$AAT?$AAE?$AA_?$AAN?$AAE?$AAW?$AA_@|
	DCD	|??_C@_1FC@LCLFDJDO@?$AAD?$AAE?$AAV?$AAI?$AAC?$AAE?$AA_?$AAC?$AAO?$AAN?$AAF?$AAI?$AAG?$AA_?$AAS?$AAT?$AAA?$AAT?$AAU?$AAS?$AA_?$AAC?$AAR?$AAE?$AAA?$AAT?$AAE?$AA_?$AAN?$AAE?$AAW?$AA_@|
	DCD	|??_C@_1II@FBBOBKGN@?$AAD?$AAE?$AAV?$AAI?$AAC?$AAE?$AA_?$AAC?$AAO?$AAN?$AAF?$AAI?$AAG?$AA_?$AAS?$AAT?$AAA?$AAT?$AAU?$AAS?$AA_?$AAI?$AAN?$AAS?$AAE?$AAR?$AAT?$AA_?$AAN?$AAE?$AAW?$AA_@|
	DCD	|??_C@_1HO@PGHDEMEK@?$AAD?$AAE?$AAV?$AAI?$AAC?$AAE?$AA_?$AAC?$AAO?$AAN?$AAF?$AAI?$AAG?$AA_?$AAS?$AAT?$AAA?$AAT?$AAU?$AAS?$AA_?$AAS?$AAI?$AAG?$AAN?$AAA?$AAL?$AA_?$AAN?$AAE?$AAW?$AA_@|
	DCD	|??_C@_1DI@CEGNOBAM@?$AAD?$AAE?$AAV?$AAI?$AAC?$AAE?$AA_?$AAC?$AAO?$AAN?$AAF?$AAI?$AAG?$AA_?$AAS?$AAT?$AAA?$AAT?$AAU?$AAS?$AA_?$AAF?$AAA?$AAI?$AAL?$AAE?$AAD?$AA?$AA@|
	DCD	|??_C@_1DE@IMCKALLA@?$AAD?$AAE?$AAV?$AAI?$AAC?$AAE?$AA_?$AAC?$AAO?$AAN?$AAF?$AAI?$AAG?$AA_?$AAS?$AAT?$AAA?$AAT?$AAU?$AAS?$AA_?$AAD?$AAO?$AAN?$AAE?$AA?$AA@|
	DCD	|??_C@_1DK@JPBDFEOB@?$AAD?$AAE?$AAV?$AAI?$AAC?$AAE?$AA_?$AAC?$AAO?$AAN?$AAF?$AAI?$AAG?$AA_?$AAS?$AAT?$AAA?$AAT?$AAU?$AAS?$AA_?$AAI?$AAN?$AAV?$AAA?$AAL?$AAI?$AAD?$AA?$AA@|

  00000			 AREA	 |.rdata|, DATA, READONLY
|??_C@_1DK@JPBDFEOB@?$AAD?$AAE?$AAV?$AAI?$AAC?$AAE?$AA_?$AAC?$AAO?$AAN?$AAF?$AAI?$AAG?$AA_?$AAS?$AAT?$AAA?$AAT?$AAU?$AAS?$AA_?$AAI?$AAN?$AAV?$AAA?$AAL?$AAI?$AAD?$AA?$AA@| DCB "D"
	DCB	0x0, "E", 0x0, "V", 0x0, "I", 0x0, "C", 0x0, "E", 0x0, "_"
	DCB	0x0, "C", 0x0, "O", 0x0, "N", 0x0, "F", 0x0, "I", 0x0, "G"
	DCB	0x0, "_", 0x0, "S", 0x0, "T", 0x0, "A", 0x0, "T", 0x0, "U"
	DCB	0x0, "S", 0x0, "_", 0x0, "I", 0x0, "N", 0x0, "V", 0x0, "A"
	DCB	0x0, "L", 0x0, "I", 0x0, "D", 0x0, 0x0, 0x0 ; `string'

  00000			 AREA	 |.rdata|, DATA, READONLY
|??_C@_1DE@IMCKALLA@?$AAD?$AAE?$AAV?$AAI?$AAC?$AAE?$AA_?$AAC?$AAO?$AAN?$AAF?$AAI?$AAG?$AA_?$AAS?$AAT?$AAA?$AAT?$AAU?$AAS?$AA_?$AAD?$AAO?$AAN?$AAE?$AA?$AA@| DCB "D"
	DCB	0x0, "E", 0x0, "V", 0x0, "I", 0x0, "C", 0x0, "E", 0x0, "_"
	DCB	0x0, "C", 0x0, "O", 0x0, "N", 0x0, "F", 0x0, "I", 0x0, "G"
	DCB	0x0, "_", 0x0, "S", 0x0, "T", 0x0, "A", 0x0, "T", 0x0, "U"
	DCB	0x0, "S", 0x0, "_", 0x0, "D", 0x0, "O", 0x0, "N", 0x0, "E"
	DCB	0x0, 0x0, 0x0				; `string'

  00000			 AREA	 |.rdata|, DATA, READONLY
|??_C@_1DI@CEGNOBAM@?$AAD?$AAE?$AAV?$AAI?$AAC?$AAE?$AA_?$AAC?$AAO?$AAN?$AAF?$AAI?$AAG?$AA_?$AAS?$AAT?$AAA?$AAT?$AAU?$AAS?$AA_?$AAF?$AAA?$AAI?$AAL?$AAE?$AAD?$AA?$AA@| DCB "D"
	DCB	0x0, "E", 0x0, "V", 0x0, "I", 0x0, "C", 0x0, "E", 0x0, "_"
	DCB	0x0, "C", 0x0, "O", 0x0, "N", 0x0, "F", 0x0, "I", 0x0, "G"
	DCB	0x0, "_", 0x0, "S", 0x0, "T", 0x0, "A", 0x0, "T", 0x0, "U"
	DCB	0x0, "S", 0x0, "_", 0x0, "F", 0x0, "A", 0x0, "I", 0x0, "L"
	DCB	0x0, "E", 0x0, "D", 0x0, 0x0, 0x0	; `string'

  00000			 AREA	 |.rdata|, DATA, READONLY
|??_C@_1HO@PGHDEMEK@?$AAD?$AAE?$AAV?$AAI?$AAC?$AAE?$AA_?$AAC?$AAO?$AAN?$AAF?$AAI?$AAG?$AA_?$AAS?$AAT?$AAA?$AAT?$AAU?$AAS?$AA_?$AAS?$AAI?$AAG?$AAN?$AAA?$AAL?$AA_?$AAN?$AAE?$AAW?$AA_@| DCB "D"
	DCB	0x0, "E", 0x0, "V", 0x0, "I", 0x0, "C", 0x0, "E", 0x0, "_"
	DCB	0x0, "C", 0x0, "O", 0x0, "N", 0x0, "F", 0x0, "I", 0x0, "G"
	DCB	0x0, "_", 0x0, "S", 0x0, "T", 0x0, "A", 0x0, "T", 0x0, "U"
	DCB	0x0, "S", 0x0, "_", 0x0, "S", 0x0, "I", 0x0, "G", 0x0, "N"
	DCB	0x0, "A", 0x0, "L", 0x0, "_", 0x0, "N", 0x0, "E", 0x0, "W"
	DCB	0x0, "_", 0x0, "D", 0x0, "E", 0x0, "V", 0x0, "I", 0x0, "C"
	DCB	0x0, "E", 0x0, "_", 0x0, "E", 0x0, "N", 0x0, "T", 0x0, "E"
	DCB	0x0, "R", 0x0, "_", 0x0, "O", 0x0, "P", 0x0, "E", 0x0, "R"
	DCB	0x0, "A", 0x0, "T", 0x0, "I", 0x0, "O", 0x0, "N", 0x0, "A"
	DCB	0x0, "L", 0x0, "_", 0x0, "S", 0x0, "T", 0x0, "A", 0x0, "T"
	DCB	0x0, "E", 0x0, 0x0, 0x0			; `string'

  00000			 AREA	 |.rdata|, DATA, READONLY
|??_C@_1II@FBBOBKGN@?$AAD?$AAE?$AAV?$AAI?$AAC?$AAE?$AA_?$AAC?$AAO?$AAN?$AAF?$AAI?$AAG?$AA_?$AAS?$AAT?$AAA?$AAT?$AAU?$AAS?$AA_?$AAI?$AAN?$AAS?$AAE?$AAR?$AAT?$AA_?$AAN?$AAE?$AAW?$AA_@| DCB "D"
	DCB	0x0, "E", 0x0, "V", 0x0, "I", 0x0, "C", 0x0, "E", 0x0, "_"
	DCB	0x0, "C", 0x0, "O", 0x0, "N", 0x0, "F", 0x0, "I", 0x0, "G"
	DCB	0x0, "_", 0x0, "S", 0x0, "T", 0x0, "A", 0x0, "T", 0x0, "U"
	DCB	0x0, "S", 0x0, "_", 0x0, "I", 0x0, "N", 0x0, "S", 0x0, "E"
	DCB	0x0, "R", 0x0, "T", 0x0, "_", 0x0, "N", 0x0, "E", 0x0, "W"
	DCB	0x0, "_", 0x0, "D", 0x0, "E", 0x0, "V", 0x0, "I", 0x0, "C"
	DCB	0x0, "E", 0x0, "_", 0x0, "I", 0x0, "N", 0x0, "T", 0x0, "O"
	DCB	0x0, "_", 0x0, "U", 0x0, "P", 0x0, "S", 0x0, "T", 0x0, "R"
	DCB	0x0, "E", 0x0, "A", 0x0, "M", 0x0, "_", 0x0, "H", 0x0, "U"
	DCB	0x0, "B", 0x0, "_", 0x0, "P", 0x0, "O", 0x0, "R", 0x0, "T"
	DCB	0x0, "_", 0x0, "A", 0x0, "R", 0x0, "R", 0x0, "A", 0x0, "Y"
	DCB	0x0, 0x0, 0x0				; `string'

  00000			 AREA	 |.rdata|, DATA, READONLY
|??_C@_1FC@LCLFDJDO@?$AAD?$AAE?$AAV?$AAI?$AAC?$AAE?$AA_?$AAC?$AAO?$AAN?$AAF?$AAI?$AAG?$AA_?$AAS?$AAT?$AAA?$AAT?$AAU?$AAS?$AA_?$AAC?$AAR?$AAE?$AAA?$AAT?$AAE?$AA_?$AAN?$AAE?$AAW?$AA_@| DCB "D"
	DCB	0x0, "E", 0x0, "V", 0x0, "I", 0x0, "C", 0x0, "E", 0x0, "_"
	DCB	0x0, "C", 0x0, "O", 0x0, "N", 0x0, "F", 0x0, "I", 0x0, "G"
	DCB	0x0, "_", 0x0, "S", 0x0, "T", 0x0, "A", 0x0, "T", 0x0, "U"
	DCB	0x0, "S", 0x0, "_", 0x0, "C", 0x0, "R", 0x0, "E", 0x0, "A"
	DCB	0x0, "T", 0x0, "E", 0x0, "_", 0x0, "N", 0x0, "E", 0x0, "W"
	DCB	0x0, "_", 0x0, "F", 0x0, "U", 0x0, "N", 0x0, "C", 0x0, "T"
	DCB	0x0, "I", 0x0, "O", 0x0, "N", 0x0, 0x0, 0x0 ; `string'

  00000			 AREA	 |.rdata|, DATA, READONLY
|??_C@_1EI@COKEBMOE@?$AAD?$AAE?$AAV?$AAI?$AAC?$AAE?$AA_?$AAC?$AAO?$AAN?$AAF?$AAI?$AAG?$AA_?$AAS?$AAT?$AAA?$AAT?$AAU?$AAS?$AA_?$AAC?$AAR?$AAE?$AAA?$AAT?$AAE?$AA_?$AAN?$AAE?$AAW?$AA_@| DCB "D"
	DCB	0x0, "E", 0x0, "V", 0x0, "I", 0x0, "C", 0x0, "E", 0x0, "_"
	DCB	0x0, "C", 0x0, "O", 0x0, "N", 0x0, "F", 0x0, "I", 0x0, "G"
	DCB	0x0, "_", 0x0, "S", 0x0, "T", 0x0, "A", 0x0, "T", 0x0, "U"
	DCB	0x0, "S", 0x0, "_", 0x0, "C", 0x0, "R", 0x0, "E", 0x0, "A"
	DCB	0x0, "T", 0x0, "E", 0x0, "_", 0x0, "N", 0x0, "E", 0x0, "W"
	DCB	0x0, "_", 0x0, "H", 0x0, "U", 0x0, "B", 0x0, 0x0, 0x0 ; `string'

  00000			 AREA	 |.rdata|, DATA, READONLY
|??_C@_1GG@HPGGGHKI@?$AAD?$AAE?$AAV?$AAI?$AAC?$AAE?$AA_?$AAC?$AAO?$AAN?$AAF?$AAI?$AAG?$AA_?$AAS?$AAT?$AAA?$AAT?$AAU?$AAS?$AA_?$AAS?$AAC?$AAH?$AAE?$AAD?$AAU?$AAL?$AAI?$AAN?$AAG?$AA_@| DCB "D"
	DCB	0x0, "E", 0x0, "V", 0x0, "I", 0x0, "C", 0x0, "E", 0x0, "_"
	DCB	0x0, "C", 0x0, "O", 0x0, "N", 0x0, "F", 0x0, "I", 0x0, "G"
	DCB	0x0, "_", 0x0, "S", 0x0, "T", 0x0, "A", 0x0, "T", 0x0, "U"
	DCB	0x0, "S", 0x0, "_", 0x0, "S", 0x0, "C", 0x0, "H", 0x0, "E"
	DCB	0x0, "D", 0x0, "U", 0x0, "L", 0x0, "I", 0x0, "N", 0x0, "G"
	DCB	0x0, "_", 0x0, "G", 0x0, "E", 0x0, "T", 0x0, "_", 0x0, "H"
	DCB	0x0, "U", 0x0, "B", 0x0, "_", 0x0, "D", 0x0, "E", 0x0, "S"
	DCB	0x0, "C", 0x0, "R", 0x0, "I", 0x0, "P", 0x0, "T", 0x0, "O"
	DCB	0x0, "R", 0x0, 0x0, 0x0			; `string'

  00000			 AREA	 |.rdata|, DATA, READONLY
|??_C@_1HG@KPBCOGEF@?$AAD?$AAE?$AAV?$AAI?$AAC?$AAE?$AA_?$AAC?$AAO?$AAN?$AAF?$AAI?$AAG?$AA_?$AAS?$AAT?$AAA?$AAT?$AAU?$AAS?$AA_?$AAS?$AAC?$AAH?$AAE?$AAD?$AAU?$AAL?$AAI?$AAN?$AAG?$AA_@| DCB "D"
	DCB	0x0, "E", 0x0, "V", 0x0, "I", 0x0, "C", 0x0, "E", 0x0, "_"
	DCB	0x0, "C", 0x0, "O", 0x0, "N", 0x0, "F", 0x0, "I", 0x0, "G"
	DCB	0x0, "_", 0x0, "S", 0x0, "T", 0x0, "A", 0x0, "T", 0x0, "U"
	DCB	0x0, "S", 0x0, "_", 0x0, "S", 0x0, "C", 0x0, "H", 0x0, "E"
	DCB	0x0, "D", 0x0, "U", 0x0, "L", 0x0, "I", 0x0, "N", 0x0, "G"
	DCB	0x0, "_", 0x0, "G", 0x0, "E", 0x0, "T", 0x0, "_", 0x0, "I"
	DCB	0x0, "N", 0x0, "I", 0x0, "T", 0x0, "I", 0x0, "A", 0x0, "L"
	DCB	0x0, "_", 0x0, "H", 0x0, "U", 0x0, "B", 0x0, "_", 0x0, "D"
	DCB	0x0, "E", 0x0, "S", 0x0, "C", 0x0, "R", 0x0, "I", 0x0, "P"
	DCB	0x0, "T", 0x0, "O", 0x0, "R", 0x0, 0x0, 0x0 ; `string'

  00000			 AREA	 |.rdata|, DATA, READONLY
|??_C@_1FG@CFFAAPDL@?$AAD?$AAE?$AAV?$AAI?$AAC?$AAE?$AA_?$AAC?$AAO?$AAN?$AAF?$AAI?$AAG?$AA_?$AAS?$AAT?$AAA?$AAT?$AAU?$AAS?$AA_?$AAS?$AAC?$AAH?$AAE?$AAD?$AAU?$AAL?$AAI?$AAN?$AAG?$AA_@| DCB "D"
	DCB	0x0, "E", 0x0, "V", 0x0, "I", 0x0, "C", 0x0, "E", 0x0, "_"
	DCB	0x0, "C", 0x0, "O", 0x0, "N", 0x0, "F", 0x0, "I", 0x0, "G"
	DCB	0x0, "_", 0x0, "S", 0x0, "T", 0x0, "A", 0x0, "T", 0x0, "U"
	DCB	0x0, "S", 0x0, "_", 0x0, "S", 0x0, "C", 0x0, "H", 0x0, "E"
	DCB	0x0, "D", 0x0, "U", 0x0, "L", 0x0, "I", 0x0, "N", 0x0, "G"
	DCB	0x0, "_", 0x0, "S", 0x0, "E", 0x0, "T", 0x0, "_", 0x0, "C"
	DCB	0x0, "O", 0x0, "N", 0x0, "F", 0x0, "I", 0x0, "G", 0x0, 0x0
	DCB	0x0					; `string'

  00000			 AREA	 |.rdata|, DATA, READONLY
|??_C@_1GA@NDHJOKMM@?$AAD?$AAE?$AAV?$AAI?$AAC?$AAE?$AA_?$AAC?$AAO?$AAN?$AAF?$AAI?$AAG?$AA_?$AAS?$AAT?$AAA?$AAT?$AAU?$AAS?$AA_?$AAD?$AAE?$AAT?$AAE?$AAR?$AAM?$AAI?$AAN?$AAE?$AA_?$AAC@| DCB "D"
	DCB	0x0, "E", 0x0, "V", 0x0, "I", 0x0, "C", 0x0, "E", 0x0, "_"
	DCB	0x0, "C", 0x0, "O", 0x0, "N", 0x0, "F", 0x0, "I", 0x0, "G"
	DCB	0x0, "_", 0x0, "S", 0x0, "T", 0x0, "A", 0x0, "T", 0x0, "U"
	DCB	0x0, "S", 0x0, "_", 0x0, "D", 0x0, "E", 0x0, "T", 0x0, "E"
	DCB	0x0, "R", 0x0, "M", 0x0, "I", 0x0, "N", 0x0, "E", 0x0, "_"
	DCB	0x0, "C", 0x0, "O", 0x0, "N", 0x0, "F", 0x0, "I", 0x0, "G"
	DCB	0x0, "_", 0x0, "T", 0x0, "O", 0x0, "_", 0x0, "C", 0x0, "H"
	DCB	0x0, "O", 0x0, "O", 0x0, "S", 0x0, "E", 0x0, 0x0, 0x0 ; `string'

  00000			 AREA	 |.rdata|, DATA, READONLY
|??_C@_1GM@JADKDKDC@?$AAD?$AAE?$AAV?$AAI?$AAC?$AAE?$AA_?$AAC?$AAO?$AAN?$AAF?$AAI?$AAG?$AA_?$AAS?$AAT?$AAA?$AAT?$AAU?$AAS?$AA_?$AAS?$AAC?$AAH?$AAE?$AAD?$AAU?$AAL?$AAI?$AAN?$AAG?$AA_@| DCB "D"
	DCB	0x0, "E", 0x0, "V", 0x0, "I", 0x0, "C", 0x0, "E", 0x0, "_"
	DCB	0x0, "C", 0x0, "O", 0x0, "N", 0x0, "F", 0x0, "I", 0x0, "G"
	DCB	0x0, "_", 0x0, "S", 0x0, "T", 0x0, "A", 0x0, "T", 0x0, "U"
	DCB	0x0, "S", 0x0, "_", 0x0, "S", 0x0, "C", 0x0, "H", 0x0, "E"
	DCB	0x0, "D", 0x0, "U", 0x0, "L", 0x0, "I", 0x0, "N", 0x0, "G"
	DCB	0x0, "_", 0x0, "G", 0x0, "E", 0x0, "T", 0x0, "_", 0x0, "C"
	DCB	0x0, "O", 0x0, "N", 0x0, "F", 0x0, "I", 0x0, "G", 0x0, "_"
	DCB	0x0, "D", 0x0, "E", 0x0, "S", 0x0, "C", 0x0, "R", 0x0, "I"
	DCB	0x0, "P", 0x0, "T", 0x0, "O", 0x0, "R", 0x0, 0x0, 0x0 ; `string'

  00000			 AREA	 |.rdata|, DATA, READONLY
|??_C@_1HM@NPLCKJLH@?$AAD?$AAE?$AAV?$AAI?$AAC?$AAE?$AA_?$AAC?$AAO?$AAN?$AAF?$AAI?$AAG?$AA_?$AAS?$AAT?$AAA?$AAT?$AAU?$AAS?$AA_?$AAS?$AAC?$AAH?$AAE?$AAD?$AAU?$AAL?$AAI?$AAN?$AAG?$AA_@| DCB "D"
	DCB	0x0, "E", 0x0, "V", 0x0, "I", 0x0, "C", 0x0, "E", 0x0, "_"
	DCB	0x0, "C", 0x0, "O", 0x0, "N", 0x0, "F", 0x0, "I", 0x0, "G"
	DCB	0x0, "_", 0x0, "S", 0x0, "T", 0x0, "A", 0x0, "T", 0x0, "U"
	DCB	0x0, "S", 0x0, "_", 0x0, "S", 0x0, "C", 0x0, "H", 0x0, "E"
	DCB	0x0, "D", 0x0, "U", 0x0, "L", 0x0, "I", 0x0, "N", 0x0, "G"
	DCB	0x0, "_", 0x0, "G", 0x0, "E", 0x0, "T", 0x0, "_", 0x0, "I"
	DCB	0x0, "N", 0x0, "I", 0x0, "T", 0x0, "I", 0x0, "A", 0x0, "L"
	DCB	0x0, "_", 0x0, "C", 0x0, "O", 0x0, "N", 0x0, "F", 0x0, "I"
	DCB	0x0, "G", 0x0, "_", 0x0, "D", 0x0, "E", 0x0, "S", 0x0, "C"
	DCB	0x0, "R", 0x0, "I", 0x0, "P", 0x0, "T", 0x0, "O", 0x0, "R"
	DCB	0x0, 0x0, 0x0				; `string'

  00000			 AREA	 |.rdata|, DATA, READONLY
|??_C@_1HE@MEMGEMJJ@?$AAD?$AAE?$AAV?$AAI?$AAC?$AAE?$AA_?$AAC?$AAO?$AAN?$AAF?$AAI?$AAG?$AA_?$AAS?$AAT?$AAA?$AAT?$AAU?$AAS?$AA_?$AAS?$AAE?$AAT?$AAU?$AAP?$AA_?$AAC?$AAO?$AAN?$AAF?$AAI@| DCB "D"
	DCB	0x0, "E", 0x0, "V", 0x0, "I", 0x0, "C", 0x0, "E", 0x0, "_"
	DCB	0x0, "C", 0x0, "O", 0x0, "N", 0x0, "F", 0x0, "I", 0x0, "G"
	DCB	0x0, "_", 0x0, "S", 0x0, "T", 0x0, "A", 0x0, "T", 0x0, "U"
	DCB	0x0, "S", 0x0, "_", 0x0, "S", 0x0, "E", 0x0, "T", 0x0, "U"
	DCB	0x0, "P", 0x0, "_", 0x0, "C", 0x0, "O", 0x0, "N", 0x0, "F"
	DCB	0x0, "I", 0x0, "G", 0x0, "U", 0x0, "R", 0x0, "A", 0x0, "T"
	DCB	0x0, "I", 0x0, "O", 0x0, "N", 0x0, "_", 0x0, "D", 0x0, "E"
	DCB	0x0, "S", 0x0, "C", 0x0, "R", 0x0, "I", 0x0, "P", 0x0, "T"
	DCB	0x0, "O", 0x0, "R", 0x0, "_", 0x0, "A", 0x0, "R", 0x0, "R"
	DCB	0x0, "A", 0x0, "Y", 0x0, 0x0, 0x0	; `string'

  00000			 AREA	 |.rdata|, DATA, READONLY
|??_C@_1GM@BCHKIAPP@?$AAD?$AAE?$AAV?$AAI?$AAC?$AAE?$AA_?$AAC?$AAO?$AAN?$AAF?$AAI?$AAG?$AA_?$AAS?$AAT?$AAA?$AAT?$AAU?$AAS?$AA_?$AAS?$AAC?$AAH?$AAE?$AAD?$AAU?$AAL?$AAI?$AAN?$AAG?$AA_@| DCB "D"
	DCB	0x0, "E", 0x0, "V", 0x0, "I", 0x0, "C", 0x0, "E", 0x0, "_"
	DCB	0x0, "C", 0x0, "O", 0x0, "N", 0x0, "F", 0x0, "I", 0x0, "G"
	DCB	0x0, "_", 0x0, "S", 0x0, "T", 0x0, "A", 0x0, "T", 0x0, "U"
	DCB	0x0, "S", 0x0, "_", 0x0, "S", 0x0, "C", 0x0, "H", 0x0, "E"
	DCB	0x0, "D", 0x0, "U", 0x0, "L", 0x0, "I", 0x0, "N", 0x0, "G"
	DCB	0x0, "_", 0x0, "G", 0x0, "E", 0x0, "T", 0x0, "_", 0x0, "D"
	DCB	0x0, "E", 0x0, "V", 0x0, "I", 0x0, "C", 0x0, "E", 0x0, "_"
	DCB	0x0, "D", 0x0, "E", 0x0, "S", 0x0, "C", 0x0, "R", 0x0, "I"
	DCB	0x0, "P", 0x0, "T", 0x0, "O", 0x0, "R", 0x0, 0x0, 0x0 ; `string'

  00000			 AREA	 |.rdata|, DATA, READONLY
|??_C@_1HM@FNPCBDHK@?$AAD?$AAE?$AAV?$AAI?$AAC?$AAE?$AA_?$AAC?$AAO?$AAN?$AAF?$AAI?$AAG?$AA_?$AAS?$AAT?$AAA?$AAT?$AAU?$AAS?$AA_?$AAS?$AAC?$AAH?$AAE?$AAD?$AAU?$AAL?$AAI?$AAN?$AAG?$AA_@| DCB "D"
	DCB	0x0, "E", 0x0, "V", 0x0, "I", 0x0, "C", 0x0, "E", 0x0, "_"
	DCB	0x0, "C", 0x0, "O", 0x0, "N", 0x0, "F", 0x0, "I", 0x0, "G"
	DCB	0x0, "_", 0x0, "S", 0x0, "T", 0x0, "A", 0x0, "T", 0x0, "U"
	DCB	0x0, "S", 0x0, "_", 0x0, "S", 0x0, "C", 0x0, "H", 0x0, "E"
	DCB	0x0, "D", 0x0, "U", 0x0, "L", 0x0, "I", 0x0, "N", 0x0, "G"
	DCB	0x0, "_", 0x0, "G", 0x0, "E", 0x0, "T", 0x0, "_", 0x0, "I"
	DCB	0x0, "N", 0x0, "I", 0x0, "T", 0x0, "I", 0x0, "A", 0x0, "L"
	DCB	0x0, "_", 0x0, "D", 0x0, "E", 0x0, "V", 0x0, "I", 0x0, "C"
	DCB	0x0, "E", 0x0, "_", 0x0, "D", 0x0, "E", 0x0, "S", 0x0, "C"
	DCB	0x0, "R", 0x0, "I", 0x0, "P", 0x0, "T", 0x0, "O", 0x0, "R"
	DCB	0x0, 0x0, 0x0				; `string'

  00000			 AREA	 |.rdata|, DATA, READONLY
|??_C@_1EI@BBOOKHNN@?$AAD?$AAE?$AAV?$AAI?$AAC?$AAE?$AA_?$AAC?$AAO?$AAN?$AAF?$AAI?$AAG?$AA_?$AAS?$AAT?$AAA?$AAT?$AAU?$AAS?$AA_?$AAL?$AAE?$AAA?$AAV?$AAE?$AA_?$AAA?$AAD?$AAD?$AAR?$AAE@| DCB "D"
	DCB	0x0, "E", 0x0, "V", 0x0, "I", 0x0, "C", 0x0, "E", 0x0, "_"
	DCB	0x0, "C", 0x0, "O", 0x0, "N", 0x0, "F", 0x0, "I", 0x0, "G"
	DCB	0x0, "_", 0x0, "S", 0x0, "T", 0x0, "A", 0x0, "T", 0x0, "U"
	DCB	0x0, "S", 0x0, "_", 0x0, "L", 0x0, "E", 0x0, "A", 0x0, "V"
	DCB	0x0, "E", 0x0, "_", 0x0, "A", 0x0, "D", 0x0, "D", 0x0, "R"
	DCB	0x0, "E", 0x0, "S", 0x0, "S", 0x0, "0", 0x0, 0x0, 0x0 ; `string'

  00000			 AREA	 |.rdata|, DATA, READONLY
|??_C@_1FI@LGLHPFAK@?$AAD?$AAE?$AAV?$AAI?$AAC?$AAE?$AA_?$AAC?$AAO?$AAN?$AAF?$AAI?$AAG?$AA_?$AAS?$AAT?$AAA?$AAT?$AAU?$AAS?$AA_?$AAS?$AAC?$AAH?$AAE?$AAD?$AAU?$AAL?$AAI?$AAN?$AAG?$AA_@| DCB "D"
	DCB	0x0, "E", 0x0, "V", 0x0, "I", 0x0, "C", 0x0, "E", 0x0, "_"
	DCB	0x0, "C", 0x0, "O", 0x0, "N", 0x0, "F", 0x0, "I", 0x0, "G"
	DCB	0x0, "_", 0x0, "S", 0x0, "T", 0x0, "A", 0x0, "T", 0x0, "U"
	DCB	0x0, "S", 0x0, "_", 0x0, "S", 0x0, "C", 0x0, "H", 0x0, "E"
	DCB	0x0, "D", 0x0, "U", 0x0, "L", 0x0, "I", 0x0, "N", 0x0, "G"
	DCB	0x0, "_", 0x0, "S", 0x0, "E", 0x0, "T", 0x0, "_", 0x0, "A"
	DCB	0x0, "D", 0x0, "D", 0x0, "R", 0x0, "E", 0x0, "S", 0x0, "S"
	DCB	0x0, 0x0, 0x0				; `string'

  00000			 AREA	 |.rdata|, DATA, READONLY
|??_C@_1HG@BLNLBKIO@?$AAD?$AAE?$AAV?$AAI?$AAC?$AAE?$AA_?$AAC?$AAO?$AAN?$AAF?$AAI?$AAG?$AA_?$AAS?$AAT?$AAA?$AAT?$AAU?$AAS?$AA_?$AAS?$AAC?$AAH?$AAE?$AAD?$AAU?$AAL?$AAI?$AAN?$AAG?$AA_@| DCB "D"
	DCB	0x0, "E", 0x0, "V", 0x0, "I", 0x0, "C", 0x0, "E", 0x0, "_"
	DCB	0x0, "C", 0x0, "O", 0x0, "N", 0x0, "F", 0x0, "I", 0x0, "G"
	DCB	0x0, "_", 0x0, "S", 0x0, "T", 0x0, "A", 0x0, "T", 0x0, "U"
	DCB	0x0, "S", 0x0, "_", 0x0, "S", 0x0, "C", 0x0, "H", 0x0, "E"
	DCB	0x0, "D", 0x0, "U", 0x0, "L", 0x0, "I", 0x0, "N", 0x0, "G"
	DCB	0x0, "_", 0x0, "G", 0x0, "E", 0x0, "T", 0x0, "_", 0x0, "D"
	DCB	0x0, "E", 0x0, "V", 0x0, "I", 0x0, "C", 0x0, "E", 0x0, "_"
	DCB	0x0, "D", 0x0, "E", 0x0, "S", 0x0, "C", 0x0, "R", 0x0, "I"
	DCB	0x0, "P", 0x0, "T", 0x0, "O", 0x0, "R", 0x0, "_", 0x0, "T"
	DCB	0x0, "E", 0x0, "S", 0x0, "T", 0x0, 0x0, 0x0 ; `string'

  00000			 AREA	 |.rdata|, DATA, READONLY
|??_C@_1FG@NMCKCJLL@?$AAD?$AAE?$AAV?$AAI?$AAC?$AAE?$AA_?$AAC?$AAO?$AAN?$AAF?$AAI?$AAG?$AA_?$AAS?$AAT?$AAA?$AAT?$AAU?$AAS?$AA_?$AAR?$AAE?$AAS?$AAE?$AAT?$AA_?$AAA?$AAN?$AAD?$AA_?$AAE@| DCB "D"
	DCB	0x0, "E", 0x0, "V", 0x0, "I", 0x0, "C", 0x0, "E", 0x0, "_"
	DCB	0x0, "C", 0x0, "O", 0x0, "N", 0x0, "F", 0x0, "I", 0x0, "G"
	DCB	0x0, "_", 0x0, "S", 0x0, "T", 0x0, "A", 0x0, "T", 0x0, "U"
	DCB	0x0, "S", 0x0, "_", 0x0, "R", 0x0, "E", 0x0, "S", 0x0, "E"
	DCB	0x0, "T", 0x0, "_", 0x0, "A", 0x0, "N", 0x0, "D", 0x0, "_"
	DCB	0x0, "E", 0x0, "N", 0x0, "A", 0x0, "B", 0x0, "L", 0x0, "E"
	DCB	0x0, "_", 0x0, "P", 0x0, "O", 0x0, "R", 0x0, "T", 0x0, 0x0
	DCB	0x0					; `string'

  00000			 AREA	 |.rdata|, DATA, READONLY
|??_C@_1EI@KNOIBOPH@?$AAD?$AAE?$AAV?$AAI?$AAC?$AAE?$AA_?$AAC?$AAO?$AAN?$AAF?$AAI?$AAG?$AA_?$AAS?$AAT?$AAA?$AAT?$AAU?$AAS?$AA_?$AAU?$AAS?$AAI?$AAN?$AAG?$AA_?$AAA?$AAD?$AAD?$AAR?$AAE@| DCB "D"
	DCB	0x0, "E", 0x0, "V", 0x0, "I", 0x0, "C", 0x0, "E", 0x0, "_"
	DCB	0x0, "C", 0x0, "O", 0x0, "N", 0x0, "F", 0x0, "I", 0x0, "G"
	DCB	0x0, "_", 0x0, "S", 0x0, "T", 0x0, "A", 0x0, "T", 0x0, "U"
	DCB	0x0, "S", 0x0, "_", 0x0, "U", 0x0, "S", 0x0, "I", 0x0, "N"
	DCB	0x0, "G", 0x0, "_", 0x0, "A", 0x0, "D", 0x0, "D", 0x0, "R"
	DCB	0x0, "E", 0x0, "S", 0x0, "S", 0x0, "0", 0x0, 0x0, 0x0 ; `string'

  00000			 AREA	 |.rdata|, DATA, READONLY
|??_C@_1FI@COMJHLEF@?$AAD?$AAE?$AAV?$AAI?$AAC?$AAE?$AA_?$AAC?$AAO?$AAN?$AAF?$AAI?$AAG?$AA_?$AAS?$AAT?$AAA?$AAT?$AAU?$AAS?$AA_?$AAO?$AAP?$AAE?$AAN?$AAI?$AAN?$AAG?$AA_?$AAE?$AAN?$AAD@| DCB "D"
	DCB	0x0, "E", 0x0, "V", 0x0, "I", 0x0, "C", 0x0, "E", 0x0, "_"
	DCB	0x0, "C", 0x0, "O", 0x0, "N", 0x0, "F", 0x0, "I", 0x0, "G"
	DCB	0x0, "_", 0x0, "S", 0x0, "T", 0x0, "A", 0x0, "T", 0x0, "U"
	DCB	0x0, "S", 0x0, "_", 0x0, "O", 0x0, "P", 0x0, "E", 0x0, "N"
	DCB	0x0, "I", 0x0, "N", 0x0, "G", 0x0, "_", 0x0, "E", 0x0, "N"
	DCB	0x0, "D", 0x0, "P", 0x0, "O", 0x0, "I", 0x0, "N", 0x0, "T"
	DCB	0x0, "0", 0x0, "_", 0x0, "P", 0x0, "I", 0x0, "P", 0x0, "E"
	DCB	0x0, 0x0, 0x0				; `string'
	EXPORT	|??_C@_1BO@FNFLKEKD@?$AA?9?$AAC?$AAP?$AAi?$AAp?$AAe?$AA?3?$AA?3?$AAC?$AAP?$AAi?$AAp?$AAe?$AA?6?$AA?$AA@| [ DATA ] ; `string'
	EXPORT	|?SetTransferMode@CPipe@@QAAXE@Z|	; CPipe::SetTransferMode
	EXPORT	|??_C@_1CG@GHHCCPKE@?$AA?$CF?$AAs?$AA?3?$AA?5?$AA?$CL?$AAC?$AAP?$AAi?$AAp?$AAe?$AA?3?$AA?3?$AAC?$AAP?$AAi?$AAp?$AAe?$AA?6?$AA?$AA@| [ DATA ] ; `string'
	EXPORT	|?GetControllerName@CPipe@@QBAPBGXZ|	; CPipe::GetControllerName
	EXPORT	|??_7CPipe@@6B@| [ DATA ]		; CPipe::`vftable'
	EXPORT	|??0CPipeAbs@@QAA@E@Z|			; CPipeAbs::CPipeAbs
	EXPORT	|??0CPipe@@QAA@QBU_USB_ENDPOINT_DESCRIPTOR@@HHEEEHQAVCMhcd@@@Z| ; CPipe::CPipe
	EXPORT	|?IsPipeHalted@CPipe@@UAA?AW4HCD_REQUEST_STATUS@@QAH@Z| ; CPipe::IsPipeHalted
	EXPORT	|?ClearHaltedFlag@CPipe@@UAAXXZ|	; CPipe::ClearHaltedFlag
	EXPORT	|?ResetEndPoint@CPipe@@UAAXXZ|		; CPipe::ResetEndPoint
	EXPORT	|?ChangeMaxPacketSize@CPipeAbs@@UAAXG@Z| ; CPipeAbs::ChangeMaxPacketSize
	EXPORT	|?SetReservedDeviceAddr@CPipe@@UAAHE@Z|	; CPipe::SetReservedDeviceAddr
	EXPORT	|?GetReservedDeviceAddr@CPipe@@UAAEXZ|	; CPipe::GetReservedDeviceAddr
	EXPORT	|?GetCPhysMem@CPipe@@UAAPAVCPhysMem@@XZ| ; CPipe::GetCPhysMem
	IMPORT	|CreateEventW|
	IMPORT	|InitializeCriticalSection|
	IMPORT	|NKDbgPrintfW|
	IMPORT	|dpCurSettings|
	IMPORT	|memcpy|
	IMPORT	|??_ECPipe@@UAAPAXI@Z|, WEAK |??_GCPipe@@UAAPAXI@Z| ; CPipe::`vector deleting destructor', CPipe::`scalar deleting destructor'
	IMPORT	|_purecall|

  00000			 AREA	 |.pdata|, PDATA
|$T37513| DCD	|$LN17@CPipe|
	DCD	0x4000ce04
; File c:\wince600\platform\common\src\soc\common_ti_v1\omap3530\musb\musbhcd\musbmhdrc\cpipe.cpp

  00000			 AREA	 |.rdata|, DATA, READONLY
|??_C@_1BO@FNFLKEKD@?$AA?9?$AAC?$AAP?$AAi?$AAp?$AAe?$AA?3?$AA?3?$AAC?$AAP?$AAi?$AAp?$AAe?$AA?6?$AA?$AA@| DCB "-"
	DCB	0x0, "C", 0x0, "P", 0x0, "i", 0x0, "p", 0x0, "e", 0x0, ":"
	DCB	0x0, ":", 0x0, "C", 0x0, "P", 0x0, "i", 0x0, "p", 0x0, "e"
	DCB	0x0, 0xa, 0x0, 0x0, 0x0			; `string'

  00000			 AREA	 |.rdata|, DATA, READONLY
|??_C@_1CG@GHHCCPKE@?$AA?$CF?$AAs?$AA?3?$AA?5?$AA?$CL?$AAC?$AAP?$AAi?$AAp?$AAe?$AA?3?$AA?3?$AAC?$AAP?$AAi?$AAp?$AAe?$AA?6?$AA?$AA@| DCB "%"
	DCB	0x0, "s", 0x0, ":", 0x0, " ", 0x0, "+", 0x0, "C", 0x0, "P"
	DCB	0x0, "i", 0x0, "p", 0x0, "e", 0x0, ":", 0x0, ":", 0x0, "C"
	DCB	0x0, "P", 0x0, "i", 0x0, "p", 0x0, "e", 0x0, 0xa, 0x0, 0x0
	DCB	0x0					; `string'

  00000			 AREA	 |.rdata|, DATA, READONLY
|??_7CPipe@@6B@| DCD |??_ECPipe@@UAAPAXI@Z|		; CPipe::`vftable'
	DCD	|_purecall|
	DCD	|_purecall|
	DCD	|_purecall|
	DCD	|_purecall|
	DCD	|?IsPipeHalted@CPipe@@UAA?AW4HCD_REQUEST_STATUS@@QAH@Z|
	DCD	|?ClearHaltedFlag@CPipe@@UAAXXZ|
	DCD	|?ResetEndPoint@CPipe@@UAAXXZ|
	DCD	|?ChangeMaxPacketSize@CPipeAbs@@UAAXG@Z|
	DCD	|?SetReservedDeviceAddr@CPipe@@UAAHE@Z|
	DCD	|?GetReservedDeviceAddr@CPipe@@UAAEXZ|
	DCD	|?GetCPhysMem@CPipe@@UAAPAVCPhysMem@@XZ|
	DCD	|_purecall|
	DCD	|_purecall|
	DCD	|_purecall|
	DCD	|_purecall|
	DCD	|_purecall|
	DCD	|_purecall|
	DCD	|_purecall|
; Function compile flags: /Odtp

  00000			 AREA	 |.text|, CODE, ARM

  00000		 |??0CPipe@@QAA@QBU_USB_ENDPOINT_DESCRIPTOR@@HHEEEHQAVCMhcd@@@Z| PROC ; CPipe::CPipe

; 93   : {

  00000		 |$LN17@CPipe|
  00000	e1a0c00d	 mov         r12, sp
  00004	e92d000f	 stmdb       sp!, {r0 - r3}
  00008	e92d5000	 stmdb       sp!, {r12, lr}
  0000c	e24dd028	 sub         sp, sp, #0x28
  00010		 |$M37510|
  00010	e59d3034	 ldr         r3, [sp, #0x34]
  00014	e2833002	 add         r3, r3, #2
  00018	e5d31000	 ldrb        r1, [r3]
  0001c	e59d0030	 ldr         r0, [sp, #0x30]
  00020	eb000000	 bl          |??0CPipeAbs@@QAA@E@Z|
  00024	e58d0004	 str         r0, [sp, #4]
  00028	e59f2304	 ldr         r2, [pc, #0x304]
  0002c	e59d3030	 ldr         r3, [sp, #0x30]
  00030	e5832000	 str         r2, [r3]
  00034	e59d3030	 ldr         r3, [sp, #0x30]
  00038	e2832008	 add         r2, r3, #8
  0003c	e5dd3044	 ldrb        r3, [sp, #0x44]
  00040	e5c23000	 strb        r3, [r2]
  00044	e59d3030	 ldr         r3, [sp, #0x30]
  00048	e2832009	 add         r2, r3, #9
  0004c	e5dd3048	 ldrb        r3, [sp, #0x48]
  00050	e5c23000	 strb        r3, [r2]
  00054	e59d3030	 ldr         r3, [sp, #0x30]
  00058	e283200c	 add         r2, r3, #0xC
  0005c	e59d3050	 ldr         r3, [sp, #0x50]
  00060	e5823000	 str         r3, [r2]
  00064	e59d3030	 ldr         r3, [sp, #0x30]
  00068	e2832010	 add         r2, r3, #0x10
  0006c	e59d304c	 ldr         r3, [sp, #0x4C]
  00070	e5823000	 str         r3, [r2]
  00074	e59d1034	 ldr         r1, [sp, #0x34]
  00078	e59d3030	 ldr         r3, [sp, #0x30]
  0007c	e2830034	 add         r0, r3, #0x34
  00080	e3a02007	 mov         r2, #7
  00084	eb000000	 bl          memcpy
  00088	e59d3030	 ldr         r3, [sp, #0x30]
  0008c	e283203b	 add         r2, r3, #0x3B
  00090	e5dd3040	 ldrb        r3, [sp, #0x40]
  00094	e5c23000	 strb        r3, [r2]
  00098	e59d3038	 ldr         r3, [sp, #0x38]
  0009c	e3530000	 cmp         r3, #0
  000a0	0a000002	 beq         |$LN7@CPipe|
  000a4	e3a03001	 mov         r3, #1
  000a8	e58d3008	 str         r3, [sp, #8]
  000ac	ea000001	 b           |$LN8@CPipe|
  000b0		 |$LN7@CPipe|
  000b0	e3a03000	 mov         r3, #0
  000b4	e58d3008	 str         r3, [sp, #8]
  000b8		 |$LN8@CPipe|
  000b8	e59d3030	 ldr         r3, [sp, #0x30]
  000bc	e283203c	 add         r2, r3, #0x3C
  000c0	e59d3008	 ldr         r3, [sp, #8]
  000c4	e5823000	 str         r3, [r2]
  000c8	e59d303c	 ldr         r3, [sp, #0x3C]
  000cc	e3530000	 cmp         r3, #0
  000d0	0a000002	 beq         |$LN9@CPipe|
  000d4	e3a03001	 mov         r3, #1
  000d8	e58d300c	 str         r3, [sp, #0xC]
  000dc	ea000001	 b           |$LN10@CPipe|
  000e0		 |$LN9@CPipe|
  000e0	e3a03000	 mov         r3, #0
  000e4	e58d300c	 str         r3, [sp, #0xC]
  000e8		 |$LN10@CPipe|
  000e8	e59d3030	 ldr         r3, [sp, #0x30]
  000ec	e2832040	 add         r2, r3, #0x40
  000f0	e59d300c	 ldr         r3, [sp, #0xC]
  000f4	e5823000	 str         r3, [r2]
  000f8	e59d3030	 ldr         r3, [sp, #0x30]
  000fc	e2832044	 add         r2, r3, #0x44
  00100	e3a03000	 mov         r3, #0
  00104	e5823000	 str         r3, [r2]

; 94   :     DEBUGMSG( ZONE_PIPE && ZONE_VERBOSE, (TEXT("%s: +CPipe::CPipe\n"),GetControllerName()) );

  00108	e59f321c	 ldr         r3, [pc, #0x21C]
  0010c	e5933440	 ldr         r3, [r3, #0x440]
  00110	e3130080	 tst         r3, #0x80
  00114	0a00000c	 beq         |$LN11@CPipe|
  00118	e59f320c	 ldr         r3, [pc, #0x20C]
  0011c	e5933440	 ldr         r3, [r3, #0x440]
  00120	e3130a01	 tst         r3, #1, 20
  00124	0a000008	 beq         |$LN11@CPipe|
  00128	e59d0030	 ldr         r0, [sp, #0x30]
  0012c	eb000000	 bl          |?GetControllerName@CPipe@@QBAPBGXZ|
  00130	e58d0010	 str         r0, [sp, #0x10]
  00134	e59d1010	 ldr         r1, [sp, #0x10]
  00138	e59f01f0	 ldr         r0, [pc, #0x1F0]
  0013c	eb000000	 bl          NKDbgPrintfW
  00140	e3a03001	 mov         r3, #1
  00144	e58d3014	 str         r3, [sp, #0x14]
  00148	ea000001	 b           |$LN12@CPipe|
  0014c		 |$LN11@CPipe|
  0014c	e3a03000	 mov         r3, #0
  00150	e58d3014	 str         r3, [sp, #0x14]
  00154		 |$LN12@CPipe|

; 95   :     // CPipe::Initialize should already have been called by now
; 96   :     // to set up the schedule and init static variables
; 97   :     //DEBUGCHK( pUHCIFrame->m_debug_fInitializeAlreadyCalled );
; 98   : 
; 99   :     InitializeCriticalSection( &m_csPipeLock );

  00154	e59d3030	 ldr         r3, [sp, #0x30]
  00158	e2830020	 add         r0, r3, #0x20
  0015c	eb000000	 bl          InitializeCriticalSection

; 100  :     m_fIsHalted = FALSE;

  00160	e59d3030	 ldr         r3, [sp, #0x30]
  00164	e2832044	 add         r2, r3, #0x44
  00168	e3a03000	 mov         r3, #0
  0016c	e5823000	 str         r3, [r2]

; 101  :     // Assume it is Async. If it is not It should be ovewrited.
; 102  :     m_bFrameSMask =  0;

  00170	e59d3030	 ldr         r3, [sp, #0x30]
  00174	e283201d	 add         r2, r3, #0x1D
  00178	e3a03000	 mov         r3, #0
  0017c	e5c23000	 strb        r3, [r2]

; 103  :     m_bFrameCMask =  0;

  00180	e59d3030	 ldr         r3, [sp, #0x30]
  00184	e283201e	 add         r2, r3, #0x1E
  00188	e3a03000	 mov         r3, #0
  0018c	e5c23000	 strb        r3, [r2]

; 104  : 
; 105  :     m_tx_fifo_size = 0;

  00190	e59d3030	 ldr         r3, [sp, #0x30]
  00194	e2832050	 add         r2, r3, #0x50
  00198	e3a03000	 mov         r3, #0
  0019c	e5823000	 str         r3, [r2]

; 106  :     m_tx_fifo_addr = 0;

  001a0	e59d3030	 ldr         r3, [sp, #0x30]
  001a4	e2832048	 add         r2, r3, #0x48
  001a8	e3a03000	 mov         r3, #0
  001ac	e5823000	 str         r3, [r2]

; 107  :     m_rx_fifo_size = 0;

  001b0	e59d3030	 ldr         r3, [sp, #0x30]
  001b4	e2832054	 add         r2, r3, #0x54
  001b8	e3a03000	 mov         r3, #0
  001bc	e5823000	 str         r3, [r2]

; 108  :     m_rx_fifo_addr = 0;

  001c0	e59d3030	 ldr         r3, [sp, #0x30]
  001c4	e283204c	 add         r2, r3, #0x4C
  001c8	e3a03000	 mov         r3, #0
  001cc	e5823000	 str         r3, [r2]

; 109  : 
; 110  :     m_ucDataToggle = 0;

  001d0	e59d3030	 ldr         r3, [sp, #0x30]
  001d4	e2832015	 add         r2, r3, #0x15
  001d8	e3a03000	 mov         r3, #0
  001dc	e5c23000	 strb        r3, [r2]

; 111  :     m_bProcessDataToggle = TRUE;

  001e0	e59d3030	 ldr         r3, [sp, #0x30]
  001e4	e2832018	 add         r2, r3, #0x18
  001e8	e3a03001	 mov         r3, #1
  001ec	e5823000	 str         r3, [r2]

; 112  : 
; 113  :     // Set Transfer Mode by default
; 114  :     SetTransferMode(TRANSFER_FIFO);

  001f0	e3a01000	 mov         r1, #0
  001f4	e59d0030	 ldr         r0, [sp, #0x30]
  001f8	eb000000	 bl          |?SetTransferMode@CPipe@@QAAXE@Z|

; 115  : 
; 116  :     // Control EndPoint
; 117  :     if (USB_ENDPOINT(lpEndpointDescriptor->bEndpointAddress) == 0)

  001fc	e59d3034	 ldr         r3, [sp, #0x34]
  00200	e2833002	 add         r3, r3, #2
  00204	e5d33000	 ldrb        r3, [r3]
  00208	e313000f	 tst         r3, #0xF
  0020c	1a000008	 bne         |$LN4@CPipe|

; 118  :     {
; 119  :         m_hEPTransferEvent = NULL;

  00210	e59d3030	 ldr         r3, [sp, #0x30]
  00214	e283205c	 add         r2, r3, #0x5C
  00218	e3a03000	 mov         r3, #0
  0021c	e5823000	 str         r3, [r2]

; 120  :         m_hDMATransferEvent = NULL;

  00220	e59d3030	 ldr         r3, [sp, #0x30]
  00224	e2832060	 add         r2, r3, #0x60
  00228	e3a03000	 mov         r3, #0
  0022c	e5823000	 str         r3, [r2]

; 121  :     }
; 122  :     else

  00230	ea000027	 b           |$LN3@CPipe|
  00234		 |$LN4@CPipe|

; 123  :     {
; 124  :         m_hEPTransferEvent = CreateEvent(NULL, FALSE, FALSE, NULL);

  00234	e3a03000	 mov         r3, #0
  00238	e3a02000	 mov         r2, #0
  0023c	e3a01000	 mov         r1, #0
  00240	e3a00000	 mov         r0, #0
  00244	eb000000	 bl          CreateEventW
  00248	e58d0018	 str         r0, [sp, #0x18]
  0024c	e59d3030	 ldr         r3, [sp, #0x30]
  00250	e283205c	 add         r2, r3, #0x5C
  00254	e59d3018	 ldr         r3, [sp, #0x18]
  00258	e5823000	 str         r3, [r2]

; 125  :         if (m_pCMhcd->IsDMASupport())

  0025c	e59d3030	 ldr         r3, [sp, #0x30]
  00260	e283300c	 add         r3, r3, #0xC
  00264	e5932000	 ldr         r2, [r3]
  00268	e59d3030	 ldr         r3, [sp, #0x30]
  0026c	e283300c	 add         r3, r3, #0xC
  00270	e5930000	 ldr         r0, [r3]
  00274	e5923000	 ldr         r3, [r2]
  00278	e283306c	 add         r3, r3, #0x6C
  0027c	e5933000	 ldr         r3, [r3]
  00280	e1a0e00f	 mov         lr, pc
  00284	e12fff13	 bx          r3
  00288	e58d001c	 str         r0, [sp, #0x1C]
  0028c	e59d301c	 ldr         r3, [sp, #0x1C]
  00290	e3530000	 cmp         r3, #0
  00294	0a00000a	 beq         |$LN2@CPipe|

; 126  :             m_hDMATransferEvent = CreateEvent(NULL, FALSE, FALSE, NULL);

  00298	e3a03000	 mov         r3, #0
  0029c	e3a02000	 mov         r2, #0
  002a0	e3a01000	 mov         r1, #0
  002a4	e3a00000	 mov         r0, #0
  002a8	eb000000	 bl          CreateEventW
  002ac	e58d0020	 str         r0, [sp, #0x20]
  002b0	e59d3030	 ldr         r3, [sp, #0x30]
  002b4	e2832060	 add         r2, r3, #0x60
  002b8	e59d3020	 ldr         r3, [sp, #0x20]
  002bc	e5823000	 str         r3, [r2]

; 127  :         else

  002c0	ea000003	 b           |$LN1@CPipe|
  002c4		 |$LN2@CPipe|

; 128  :             m_hDMATransferEvent = NULL;

  002c4	e59d3030	 ldr         r3, [sp, #0x30]
  002c8	e2832060	 add         r2, r3, #0x60
  002cc	e3a03000	 mov         r3, #0
  002d0	e5823000	 str         r3, [r2]
  002d4		 |$LN1@CPipe|
  002d4		 |$LN3@CPipe|

; 129  :     }
; 130  :     // 
; 131  :     
; 132  :     DEBUGMSG( ZONE_PIPE && ZONE_VERBOSE, (TEXT("-CPipe::CPipe\n")) );

  002d4	e59f3050	 ldr         r3, [pc, #0x50]
  002d8	e5933440	 ldr         r3, [r3, #0x440]
  002dc	e3130080	 tst         r3, #0x80
  002e0	0a000008	 beq         |$LN13@CPipe|
  002e4	e59f3040	 ldr         r3, [pc, #0x40]
  002e8	e5933440	 ldr         r3, [r3, #0x440]
  002ec	e3130a01	 tst         r3, #1, 20
  002f0	0a000004	 beq         |$LN13@CPipe|
  002f4	e59f002c	 ldr         r0, [pc, #0x2C]
  002f8	eb000000	 bl          NKDbgPrintfW
  002fc	e3a03001	 mov         r3, #1
  00300	e58d3024	 str         r3, [sp, #0x24]
  00304	ea000001	 b           |$LN14@CPipe|
  00308		 |$LN13@CPipe|
  00308	e3a03000	 mov         r3, #0
  0030c	e58d3024	 str         r3, [sp, #0x24]
  00310		 |$LN14@CPipe|

; 133  : }

  00310	e59d3030	 ldr         r3, [sp, #0x30]
  00314	e58d3000	 str         r3, [sp]
  00318	e59d0000	 ldr         r0, [sp]
  0031c	e28dd028	 add         sp, sp, #0x28
  00320	e89d6000	 ldmia       sp, {sp, lr}
  00324	e12fff1e	 bx          lr
  00328		 |$LN18@CPipe|
  00328		 |$LN19@CPipe|
  00328	00000000	 DCD         |??_C@_1BO@FNFLKEKD@?$AA?9?$AAC?$AAP?$AAi?$AAp?$AAe?$AA?3?$AA?3?$AAC?$AAP?$AAi?$AAp?$AAe?$AA?6?$AA?$AA@|
  0032c		 |$LN20@CPipe|
  0032c	00000000	 DCD         |dpCurSettings|
  00330		 |$LN21@CPipe|
  00330	00000000	 DCD         |??_C@_1CG@GHHCCPKE@?$AA?$CF?$AAs?$AA?3?$AA?5?$AA?$CL?$AAC?$AAP?$AAi?$AAp?$AAe?$AA?3?$AA?3?$AAC?$AAP?$AAi?$AAp?$AAe?$AA?6?$AA?$AA@|
  00334		 |$LN22@CPipe|
  00334	00000000	 DCD         |??_7CPipe@@6B@|
  00338		 |$M37511|

			 ENDP  ; |??0CPipe@@QAA@QBU_USB_ENDPOINT_DESCRIPTOR@@HHEEEHQAVCMhcd@@@Z|, CPipe::CPipe

	EXPORT	|??_7CPipeAbs@@6B@| [ DATA ]		; CPipeAbs::`vftable'
	IMPORT	|??_ECPipeAbs@@UAAPAXI@Z|, WEAK |??_GCPipeAbs@@UAAPAXI@Z| ; CPipeAbs::`vector deleting destructor', CPipeAbs::`scalar deleting destructor'
; File c:\wince600\platform\common\src\soc\common_ti_v1\omap3530\musb\musbhcd\usb2com\pipeabs.hpp

  00000			 AREA	 |.pdata|, PDATA
|$T37524| DCD	|$LN5@CPipeAbs|
	DCD	0x40001204

  00000			 AREA	 |.rdata|, DATA, READONLY
|??_7CPipeAbs@@6B@| DCD |??_ECPipeAbs@@UAAPAXI@Z|	; CPipeAbs::`vftable'
	DCD	|_purecall|
	DCD	|_purecall|
	DCD	|_purecall|
	DCD	|_purecall|
	DCD	|_purecall|
	DCD	|_purecall|
	DCD	|_purecall|
	DCD	|?ChangeMaxPacketSize@CPipeAbs@@UAAXG@Z|
	DCD	|_purecall|
	DCD	|_purecall|
; Function compile flags: /Odtp

  00000			 AREA	 |.text|, CODE, ARM

  00000		 |??0CPipeAbs@@QAA@E@Z| PROC		; CPipeAbs::CPipeAbs

; 26   :     CPipeAbs(UCHAR const bEndpointAddress):m_bEndpointAddress(bEndpointAddress) {;};

  00000		 |$LN5@CPipeAbs|
  00000	e1a0c00d	 mov         r12, sp
  00004	e92d0003	 stmdb       sp!, {r0, r1}
  00008	e92d5000	 stmdb       sp!, {r12, lr}
  0000c	e24dd004	 sub         sp, sp, #4
  00010		 |$M37521|
  00010	e59f202c	 ldr         r2, [pc, #0x2C]
  00014	e59d300c	 ldr         r3, [sp, #0xC]
  00018	e5832000	 str         r2, [r3]
  0001c	e59d300c	 ldr         r3, [sp, #0xC]
  00020	e2832004	 add         r2, r3, #4
  00024	e5dd3010	 ldrb        r3, [sp, #0x10]
  00028	e5c23000	 strb        r3, [r2]
  0002c	e59d300c	 ldr         r3, [sp, #0xC]
  00030	e58d3000	 str         r3, [sp]
  00034	e59d0000	 ldr         r0, [sp]
  00038	e28dd004	 add         sp, sp, #4
  0003c	e89d6000	 ldmia       sp, {sp, lr}
  00040	e12fff1e	 bx          lr
  00044		 |$LN6@CPipeAbs|
  00044		 |$LN7@CPipeAbs|
  00044	00000000	 DCD         |??_7CPipeAbs@@6B@|
  00048		 |$M37522|

			 ENDP  ; |??0CPipeAbs@@QAA@E@Z|, CPipeAbs::CPipeAbs

	EXPORT	|??_C@_1FK@FNONLNGN@?$AA?$CF?$AAs?$AA?3?$AA?5?$AAD?$AAE?$AAB?$AAU?$AAG?$AAC?$AAH?$AAK?$AA?5?$AAf?$AAa?$AAi?$AAl?$AAe?$AAd?$AA?5?$AAi?$AAn?$AA?5?$AAf?$AAi?$AAl?$AAe?$AA?5?$AA?$CF?$AAs?$AA?5?$AAa@| [ DATA ] ; `string'
	EXPORT	|??_C@_1BA@LEPJIIOK@?$AAU?$AAn?$AAk?$AAn?$AAo?$AAw?$AAn?$AA?$AA@| [ DATA ] ; `string'
	EXPORT	|??_C@_1LG@KDGDMGLF@?$AAC?$AA?3?$AA?2?$AAW?$AAI?$AAN?$AAC?$AAE?$AA6?$AA0?$AA0?$AA?2?$AAp?$AAl?$AAa?$AAt?$AAf?$AAo?$AAr?$AAm?$AA?2?$AAC?$AAO?$AAM?$AAM?$AAO?$AAN?$AA?2?$AAS?$AAR?$AAC?$AA?2@| [ DATA ] ; `string'

  00000			 AREA	 |.pdata|, PDATA
|$T37535| DCD	|$LN7@ChangeMaxP|
	DCD	0x40001604

  00000			 AREA	 |.rdata|, DATA, READONLY
|??_C@_1FK@FNONLNGN@?$AA?$CF?$AAs?$AA?3?$AA?5?$AAD?$AAE?$AAB?$AAU?$AAG?$AAC?$AAH?$AAK?$AA?5?$AAf?$AAa?$AAi?$AAl?$AAe?$AAd?$AA?5?$AAi?$AAn?$AA?5?$AAf?$AAi?$AAl?$AAe?$AA?5?$AA?$CF?$AAs?$AA?5?$AAa@| DCB "%"
	DCB	0x0, "s", 0x0, ":", 0x0, " ", 0x0, "D", 0x0, "E", 0x0, "B"
	DCB	0x0, "U", 0x0, "G", 0x0, "C", 0x0, "H", 0x0, "K", 0x0, " "
	DCB	0x0, "f", 0x0, "a", 0x0, "i", 0x0, "l", 0x0, "e", 0x0, "d"
	DCB	0x0, " ", 0x0, "i", 0x0, "n", 0x0, " ", 0x0, "f", 0x0, "i"
	DCB	0x0, "l", 0x0, "e", 0x0, " ", 0x0, "%", 0x0, "s", 0x0, " "
	DCB	0x0, "a", 0x0, "t", 0x0, " ", 0x0, "l", 0x0, "i", 0x0, "n"
	DCB	0x0, "e", 0x0, " ", 0x0, "%", 0x0, "d", 0x0, " ", 0x0, 0xd
	DCB	0x0, 0xa, 0x0, 0x0, 0x0			; `string'

  00000			 AREA	 |.rdata|, DATA, READONLY
|??_C@_1BA@LEPJIIOK@?$AAU?$AAn?$AAk?$AAn?$AAo?$AAw?$AAn?$AA?$AA@| DCB "U", 0x0
	DCB	"n", 0x0, "k", 0x0, "n", 0x0, "o", 0x0, "w", 0x0, "n", 0x0
	DCB	0x0, 0x0				; `string'

  00000			 AREA	 |.rdata|, DATA, READONLY
|??_C@_1LG@KDGDMGLF@?$AAC?$AA?3?$AA?2?$AAW?$AAI?$AAN?$AAC?$AAE?$AA6?$AA0?$AA0?$AA?2?$AAp?$AAl?$AAa?$AAt?$AAf?$AAo?$AAr?$AAm?$AA?2?$AAC?$AAO?$AAM?$AAM?$AAO?$AAN?$AA?2?$AAS?$AAR?$AAC?$AA?2@| DCB "C"
	DCB	0x0, ":", 0x0, "\\", 0x0, "W", 0x0, "I", 0x0, "N", 0x0, "C"
	DCB	0x0, "E", 0x0, "6", 0x0, "0", 0x0, "0", 0x0, "\\", 0x0, "p"
	DCB	0x0, "l", 0x0, "a", 0x0, "t", 0x0, "f", 0x0, "o", 0x0, "r"
	DCB	0x0, "m", 0x0, "\\", 0x0, "C", 0x0, "O", 0x0, "M", 0x0, "M"
	DCB	0x0, "O", 0x0, "N", 0x0, "\\", 0x0, "S", 0x0, "R", 0x0, "C"
	DCB	0x0, "\\", 0x0, "S", 0x0, "O", 0x0, "C", 0x0, "\\", 0x0, "C"
	DCB	0x0, "O", 0x0, "M", 0x0, "M", 0x0, "O", 0x0, "N", 0x0, "_"
	DCB	0x0, "T", 0x0, "I", 0x0, "_", 0x0, "V", 0x0, "1", 0x0, "\\"
	DCB	0x0, "O", 0x0, "M", 0x0, "A", 0x0, "P", 0x0, "3", 0x0, "5"
	DCB	0x0, "3", 0x0, "0", 0x0, "\\", 0x0, "M", 0x0, "U", 0x0, "S"
	DCB	0x0, "B", 0x0, "\\", 0x0, "M", 0x0, "U", 0x0, "S", 0x0, "B"
	DCB	0x0, "H", 0x0, "C", 0x0, "D", 0x0, "\\", 0x0, "U", 0x0, "S"
	DCB	0x0, "B", 0x0, "2", 0x0, "C", 0x0, "O", 0x0, "M", 0x0, "\\"
	DCB	0x0, "p", 0x0, "i", 0x0, "p", 0x0, "e", 0x0, "a", 0x0, "b"
	DCB	0x0, "s", 0x0, ".", 0x0, "h", 0x0, "p", 0x0, "p", 0x0, 0x0
	DCB	0x0					; `string'
; Function compile flags: /Odtp

  00000			 AREA	 |.text|, CODE, ARM

  00000		 |?ChangeMaxPacketSize@CPipeAbs@@UAAXG@Z| PROC ; CPipeAbs::ChangeMaxPacketSize

; 61   :     virtual void ChangeMaxPacketSize( IN const USHORT ) {ASSERT(FALSE);}; // only available for Controller endpoint

  00000		 |$LN7@ChangeMaxP|
  00000	e1a0c00d	 mov         r12, sp
  00004	e92d0003	 stmdb       sp!, {r0, r1}
  00008	e92d5000	 stmdb       sp!, {r12, lr}
  0000c	e24dd004	 sub         sp, sp, #4
  00010		 |$M37532|
  00010	ea000002	 b           |$LN3@ChangeMaxP|
  00014	e3a03001	 mov         r3, #1
  00018	e58d3000	 str         r3, [sp]
  0001c	ea000007	 b           |$LN4@ChangeMaxP|
  00020		 |$LN3@ChangeMaxP|
  00020	e3a0303d	 mov         r3, #0x3D
  00024	e59f2028	 ldr         r2, [pc, #0x28]
  00028	e59f1020	 ldr         r1, [pc, #0x20]
  0002c	e59f0018	 ldr         r0, [pc, #0x18]
  00030	eb000000	 bl          NKDbgPrintfW
  00034	e6000010	 __debugbreak_ce
  00038	e3a03000	 mov         r3, #0
  0003c	e58d3000	 str         r3, [sp]
  00040		 |$LN4@ChangeMaxP|
  00040	e28dd004	 add         sp, sp, #4
  00044	e89d6000	 ldmia       sp, {sp, lr}
  00048	e12fff1e	 bx          lr
  0004c		 |$LN8@ChangeMaxP|
  0004c		 |$LN9@ChangeMaxP|
  0004c	00000000	 DCD         |??_C@_1FK@FNONLNGN@?$AA?$CF?$AAs?$AA?3?$AA?5?$AAD?$AAE?$AAB?$AAU?$AAG?$AAC?$AAH?$AAK?$AA?5?$AAf?$AAa?$AAi?$AAl?$AAe?$AAd?$AA?5?$AAi?$AAn?$AA?5?$AAf?$AAi?$AAl?$AAe?$AA?5?$AA?$CF?$AAs?$AA?5?$AAa@|
  00050		 |$LN10@ChangeMaxP|
  00050	00000000	 DCD         |??_C@_1BA@LEPJIIOK@?$AAU?$AAn?$AAk?$AAn?$AAo?$AAw?$AAn?$AA?$AA@|
  00054		 |$LN11@ChangeMaxP|
  00054	00000000	 DCD         |??_C@_1LG@KDGDMGLF@?$AAC?$AA?3?$AA?2?$AAW?$AAI?$AAN?$AAC?$AAE?$AA6?$AA0?$AA0?$AA?2?$AAp?$AAl?$AAa?$AAt?$AAf?$AAo?$AAr?$AAm?$AA?2?$AAC?$AAO?$AAM?$AAM?$AAO?$AAN?$AA?2?$AAS?$AAR?$AAC?$AA?2@|
  00058		 |$M37533|

			 ENDP  ; |?ChangeMaxPacketSize@CPipeAbs@@UAAXG@Z|, CPipeAbs::ChangeMaxPacketSize

	EXPORT	|??1CPipeAbs@@UAA@XZ|			; CPipeAbs::~CPipeAbs
	IMPORT	|??3@YAXPAX@Z|				; operator delete

  00000			 AREA	 |.pdata|, PDATA
|$T37547| DCD	|$LN6@scalar|
	DCD	0x40001104
; Function compile flags: /Odtp

  00000			 AREA	 |.text|, CODE, ARM

  00000		 |??_GCPipeAbs@@UAAPAXI@Z| PROC		; CPipeAbs::`scalar deleting destructor'
  00000		 |$LN6@scalar|
  00000	e1a0c00d	 mov         r12, sp
  00004	e92d0003	 stmdb       sp!, {r0, r1}
  00008	e92d5000	 stmdb       sp!, {r12, lr}
  0000c	e24dd004	 sub         sp, sp, #4
  00010		 |$M37544|
  00010	e59d000c	 ldr         r0, [sp, #0xC]
  00014	eb000000	 bl          |??1CPipeAbs@@UAA@XZ|
  00018	e59d3010	 ldr         r3, [sp, #0x10]
  0001c	e3130001	 tst         r3, #1
  00020	0a000001	 beq         |$LN1@scalar|
  00024	e59d000c	 ldr         r0, [sp, #0xC]
  00028	eb000000	 bl          |??3@YAXPAX@Z|
  0002c		 |$LN1@scalar|
  0002c	e59d300c	 ldr         r3, [sp, #0xC]
  00030	e58d3000	 str         r3, [sp]
  00034	e59d0000	 ldr         r0, [sp]
  00038	e28dd004	 add         sp, sp, #4
  0003c	e89d6000	 ldmia       sp, {sp, lr}
  00040	e12fff1e	 bx          lr
  00044		 |$M37545|

			 ENDP  ; |??_GCPipeAbs@@UAAPAXI@Z|, CPipeAbs::`scalar deleting destructor'


  00000			 AREA	 |.pdata|, PDATA
|$T37554| DCD	|$LN5@CPipeAbs@2|
	DCD	0x40000903
; Function compile flags: /Odtp

  00000			 AREA	 |.text|, CODE, ARM

  00000		 |??1CPipeAbs@@UAA@XZ| PROC		; CPipeAbs::~CPipeAbs

; 27   :     virtual ~CPipeAbs() {;};

  00000		 |$LN5@CPipeAbs@2|
  00000	e1a0c00d	 mov         r12, sp
  00004	e92d0001	 stmdb       sp!, {r0}
  00008	e92d5000	 stmdb       sp!, {r12, lr}
  0000c		 |$M37551|
  0000c	e59f200c	 ldr         r2, [pc, #0xC]
  00010	e59d3008	 ldr         r3, [sp, #8]
  00014	e5832000	 str         r2, [r3]
  00018	e89d6000	 ldmia       sp, {sp, lr}
  0001c	e12fff1e	 bx          lr
  00020		 |$LN6@CPipeAbs@2|
  00020		 |$LN7@CPipeAbs@2|
  00020	00000000	 DCD         |??_7CPipeAbs@@6B@|
  00024		 |$M37552|

			 ENDP  ; |??1CPipeAbs@@UAA@XZ|, CPipeAbs::~CPipeAbs

; File c:\wince600\platform\common\src\soc\common_ti_v1\omap3530\musb\musbhcd\musbmhdrc\cpipe.h

  00000			 AREA	 |.pdata|, PDATA
|$T37564| DCD	|$LN5@SetReserve|
	DCD	0x40000e04
; Function compile flags: /Odtp

  00000			 AREA	 |.text|, CODE, ARM

  00000		 |?SetReservedDeviceAddr@CPipe@@UAAHE@Z| PROC ; CPipe::SetReservedDeviceAddr

; 99   :     BOOL  SetReservedDeviceAddr(UCHAR bReservedDeviceAddr) { m_bReservedDeviceAddr = bReservedDeviceAddr; return TRUE;};

  00000		 |$LN5@SetReserve|
  00000	e1a0c00d	 mov         r12, sp
  00004	e92d0003	 stmdb       sp!, {r0, r1}
  00008	e92d5000	 stmdb       sp!, {r12, lr}
  0000c	e24dd004	 sub         sp, sp, #4
  00010		 |$M37561|
  00010	e59d300c	 ldr         r3, [sp, #0xC]
  00014	e283201c	 add         r2, r3, #0x1C
  00018	e5dd3010	 ldrb        r3, [sp, #0x10]
  0001c	e5c23000	 strb        r3, [r2]
  00020	e3a03001	 mov         r3, #1
  00024	e58d3000	 str         r3, [sp]
  00028	e59d0000	 ldr         r0, [sp]
  0002c	e28dd004	 add         sp, sp, #4
  00030	e89d6000	 ldmia       sp, {sp, lr}
  00034	e12fff1e	 bx          lr
  00038		 |$M37562|

			 ENDP  ; |?SetReservedDeviceAddr@CPipe@@UAAHE@Z|, CPipe::SetReservedDeviceAddr


  00000			 AREA	 |.pdata|, PDATA
|$T37572| DCD	|$LN5@GetReserve|
	DCD	0x40000c04
; Function compile flags: /Odtp

  00000			 AREA	 |.text|, CODE, ARM

  00000		 |?GetReservedDeviceAddr@CPipe@@UAAEXZ| PROC ; CPipe::GetReservedDeviceAddr

; 100  :     UCHAR GetReservedDeviceAddr() { return m_bReservedDeviceAddr;};

  00000		 |$LN5@GetReserve|
  00000	e1a0c00d	 mov         r12, sp
  00004	e92d0001	 stmdb       sp!, {r0}
  00008	e92d5000	 stmdb       sp!, {r12, lr}
  0000c	e24dd004	 sub         sp, sp, #4
  00010		 |$M37569|
  00010	e59d300c	 ldr         r3, [sp, #0xC]
  00014	e283301c	 add         r3, r3, #0x1C
  00018	e5d33000	 ldrb        r3, [r3]
  0001c	e5cd3000	 strb        r3, [sp]
  00020	e5dd0000	 ldrb        r0, [sp]
  00024	e28dd004	 add         sp, sp, #4
  00028	e89d6000	 ldmia       sp, {sp, lr}
  0002c	e12fff1e	 bx          lr
  00030		 |$M37570|

			 ENDP  ; |?GetReservedDeviceAddr@CPipe@@UAAEXZ|, CPipe::GetReservedDeviceAddr


  00000			 AREA	 |.pdata|, PDATA
|$T37579| DCD	|$LN5@SetTransfe|
	DCD	0x40000903
; Function compile flags: /Odtp

  00000			 AREA	 |.text|, CODE, ARM

  00000		 |?SetTransferMode@CPipe@@QAAXE@Z| PROC	; CPipe::SetTransferMode

; 111  :     void    SetTransferMode(UCHAR mode) { m_ucTransferMode = mode;};

  00000		 |$LN5@SetTransfe|
  00000	e1a0c00d	 mov         r12, sp
  00004	e92d0003	 stmdb       sp!, {r0, r1}
  00008	e92d5000	 stmdb       sp!, {r12, lr}
  0000c		 |$M37576|
  0000c	e59d3008	 ldr         r3, [sp, #8]
  00010	e2832014	 add         r2, r3, #0x14
  00014	e5dd300c	 ldrb        r3, [sp, #0xC]
  00018	e5c23000	 strb        r3, [r2]
  0001c	e89d6000	 ldmia       sp, {sp, lr}
  00020	e12fff1e	 bx          lr
  00024		 |$M37577|

			 ENDP  ; |?SetTransferMode@CPipe@@QAAXE@Z|, CPipe::SetTransferMode

	EXPORT	|?cszDeviceType@?1??GetControllerName@CPipe@@QBAPBGXZ@4PBGB| [ DATA ] ; `CPipe::GetControllerName'::`2'::cszDeviceType
	EXPORT	|??_C@_19NBPAAMNE@?$AAM?$AAU?$AAS?$AAB?$AA?$AA@| [ DATA ] ; `string'

  00000			 AREA	 |.pdata|, PDATA
|$T37587| DCD	|$LN5@GetControl|
	DCD	0x40000c04

  00000			 AREA	 |.rdata|, DATA, READONLY
|??_C@_19NBPAAMNE@?$AAM?$AAU?$AAS?$AAB?$AA?$AA@| DCB "M", 0x0, "U", 0x0, "S"
	DCB	0x0, "B", 0x0, 0x0, 0x0			; `string'

  00000			 AREA	 |.data|, DATA
|?cszDeviceType@?1??GetControllerName@CPipe@@QBAPBGXZ@4PBGB| DCD |??_C@_19NBPAAMNE@?$AAM?$AAU?$AAS?$AAB?$AA?$AA@| ; `CPipe::GetControllerName'::`2'::cszDeviceType
; Function compile flags: /Odtp

  00000			 AREA	 |.text|, CODE, ARM

  00000		 |?GetControllerName@CPipe@@QBAPBGXZ| PROC ; CPipe::GetControllerName

; 117  :     {

  00000		 |$LN5@GetControl|
  00000	e1a0c00d	 mov         r12, sp
  00004	e92d0001	 stmdb       sp!, {r0}
  00008	e92d5000	 stmdb       sp!, {r12, lr}
  0000c	e24dd004	 sub         sp, sp, #4
  00010		 |$M37584|

; 118  :         static const TCHAR* cszDeviceType = TEXT("MUSB");
; 119  :         return cszDeviceType; 

  00010	e59f3014	 ldr         r3, [pc, #0x14]
  00014	e5933000	 ldr         r3, [r3]
  00018	e58d3000	 str         r3, [sp]

; 120  :     }

  0001c	e59d0000	 ldr         r0, [sp]
  00020	e28dd004	 add         sp, sp, #4
  00024	e89d6000	 ldmia       sp, {sp, lr}
  00028	e12fff1e	 bx          lr
  0002c		 |$LN6@GetControl|
  0002c		 |$LN7@GetControl|
  0002c	00000000	 DCD         |?cszDeviceType@?1??GetControllerName@CPipe@@QBAPBGXZ@4PBGB|
  00030		 |$M37585|

			 ENDP  ; |?GetControllerName@CPipe@@QBAPBGXZ|, CPipe::GetControllerName

	EXPORT	|??1CPipe@@UAA@XZ|			; CPipe::~CPipe

  00000			 AREA	 |.pdata|, PDATA
|$T37597| DCD	|$LN6@scalar@2|
	DCD	0x40001104
; Function compile flags: /Odtp

  00000			 AREA	 |.text|, CODE, ARM

  00000		 |??_GCPipe@@UAAPAXI@Z| PROC		; CPipe::`scalar deleting destructor'
  00000		 |$LN6@scalar@2|
  00000	e1a0c00d	 mov         r12, sp
  00004	e92d0003	 stmdb       sp!, {r0, r1}
  00008	e92d5000	 stmdb       sp!, {r12, lr}
  0000c	e24dd004	 sub         sp, sp, #4
  00010		 |$M37594|
  00010	e59d000c	 ldr         r0, [sp, #0xC]
  00014	eb000000	 bl          |??1CPipe@@UAA@XZ|
  00018	e59d3010	 ldr         r3, [sp, #0x10]
  0001c	e3130001	 tst         r3, #1
  00020	0a000001	 beq         |$LN1@scalar@2|
  00024	e59d000c	 ldr         r0, [sp, #0xC]
  00028	eb000000	 bl          |??3@YAXPAX@Z|
  0002c		 |$LN1@scalar@2|
  0002c	e59d300c	 ldr         r3, [sp, #0xC]
  00030	e58d3000	 str         r3, [sp]
  00034	e59d0000	 ldr         r0, [sp]
  00038	e28dd004	 add         sp, sp, #4
  0003c	e89d6000	 ldmia       sp, {sp, lr}
  00040	e12fff1e	 bx          lr
  00044		 |$M37595|

			 ENDP  ; |??_GCPipe@@UAAPAXI@Z|, CPipe::`scalar deleting destructor'

	EXPORT	|?GetDataToggle@CPipe@@QAAEXZ|		; CPipe::GetDataToggle

  00008			 AREA	 |.pdata|, PDATA
|$T37605| DCD	|$LN5@GetDataTog|
	DCD	0x40000c04
; Function compile flags: /Odtp
; File c:\wince600\platform\common\src\soc\common_ti_v1\omap3530\musb\musbhcd\musbmhdrc\cpipe.cpp

  00338			 AREA	 |.text|, CODE, ARM

  00338		 |?GetDataToggle@CPipe@@QAAEXZ| PROC	; CPipe::GetDataToggle

; 137  : {

  00338		 |$LN5@GetDataTog|
  00338	e1a0c00d	 mov         r12, sp
  0033c	e92d0001	 stmdb       sp!, {r0}
  00340	e92d5000	 stmdb       sp!, {r12, lr}
  00344	e24dd004	 sub         sp, sp, #4
  00348		 |$M37602|

; 138  :     return m_ucDataToggle;

  00348	e59d300c	 ldr         r3, [sp, #0xC]
  0034c	e2833015	 add         r3, r3, #0x15
  00350	e5d33000	 ldrb        r3, [r3]
  00354	e5cd3000	 strb        r3, [sp]

; 139  : }

  00358	e5dd0000	 ldrb        r0, [sp]
  0035c	e28dd004	 add         sp, sp, #4
  00360	e89d6000	 ldmia       sp, {sp, lr}
  00364	e12fff1e	 bx          lr
  00368		 |$M37603|

			 ENDP  ; |?GetDataToggle@CPipe@@QAAEXZ|, CPipe::GetDataToggle

	EXPORT	|??_C@_1IA@FPPOKFJ@?$AAS?$AAe?$AAt?$AAD?$AAa?$AAt?$AAa?$AAT?$AAo?$AAg?$AAg?$AAl?$AAe?$AA?5?$AAt?$AAo?$AA?5?$AA?$CF?$AAd?$AA?5?$AAf?$AAo?$AAr?$AA?5?$AAE?$AAP?$AA?5?$AA0?$AAx?$AA?$CF?$AAx?$AA?5@| [ DATA ] ; `string'
	EXPORT	|?GetMappedEndPoint@CPipe@@QAAEXZ|	; CPipe::GetMappedEndPoint
	EXPORT	|?SetDataToggle@CPipe@@QAAXE@Z|		; CPipe::SetDataToggle

  00010			 AREA	 |.pdata|, PDATA
|$T37616| DCD	|$LN9@SetDataTog|
	DCD	0x40003604

  00000			 AREA	 |.rdata|, DATA, READONLY
|??_C@_1IA@FPPOKFJ@?$AAS?$AAe?$AAt?$AAD?$AAa?$AAt?$AAa?$AAT?$AAo?$AAg?$AAg?$AAl?$AAe?$AA?5?$AAt?$AAo?$AA?5?$AA?$CF?$AAd?$AA?5?$AAf?$AAo?$AAr?$AA?5?$AAE?$AAP?$AA?5?$AA0?$AAx?$AA?$CF?$AAx?$AA?5@| DCB "S"
	DCB	0x0, "e", 0x0, "t", 0x0, "D", 0x0, "a", 0x0, "t", 0x0, "a"
	DCB	0x0, "T", 0x0, "o", 0x0, "g", 0x0, "g", 0x0, "l", 0x0, "e"
	DCB	0x0, " ", 0x0, "t", 0x0, "o", 0x0, " ", 0x0, "%", 0x0, "d"
	DCB	0x0, " ", 0x0, "f", 0x0, "o", 0x0, "r", 0x0, " ", 0x0, "E"
	DCB	0x0, "P", 0x0, " ", 0x0, "0", 0x0, "x", 0x0, "%", 0x0, "x"
	DCB	0x0, " ", 0x0, "(", 0x0, "m", 0x0, "a", 0x0, "p", 0x0, "p"
	DCB	0x0, "e", 0x0, "d", 0x0, " ", 0x0, "%", 0x0, "d", 0x0, ")"
	DCB	0x0, " ", 0x0, "D", 0x0, "e", 0x0, "v", 0x0, "A", 0x0, "d"
	DCB	0x0, "d", 0x0, "r", 0x0, " ", 0x0, "%", 0x0, "d", 0x0, " "
	DCB	0x0, "O", 0x0, "U", 0x0, "T", 0x0, " ", 0x0, "%", 0x0, "d"
	DCB	0x0, 0xd, 0x0, 0xa, 0x0, 0x0, 0x0	; `string'
; Function compile flags: /Odtp

  00368			 AREA	 |.text|, CODE, ARM

  00368		 |?SetDataToggle@CPipe@@QAAXE@Z| PROC	; CPipe::SetDataToggle

; 143  : {

  00368		 |$LN9@SetDataTog|
  00368	e1a0c00d	 mov         r12, sp
  0036c	e92d0003	 stmdb       sp!, {r0, r1}
  00370	e92d5000	 stmdb       sp!, {r12, lr}
  00374	e24dd01c	 sub         sp, sp, #0x1C
  00378		 |$M37613|

; 144  :     RETAILMSG(0, (TEXT("SetDataToggle to %d for EP 0x%x (mapped %d) DevAddr %d OUT %d\r\n"),
; 145  :         dataToggle, m_usbEndpointDescriptor.bEndpointAddress, GetMappedEndPoint(), 
; 146  :         GetReservedDeviceAddr(), USB_ENDPOINT_DIRECTION_OUT(m_usbEndpointDescriptor.bEndpointAddress)));

  00378	ea000022	 b           |$LN5@SetDataTog|
  0037c	e59d3024	 ldr         r3, [sp, #0x24]
  00380	e2833036	 add         r3, r3, #0x36
  00384	e5d33000	 ldrb        r3, [r3]
  00388	e3130080	 tst         r3, #0x80
  0038c	1a000002	 bne         |$LN3@SetDataTog|
  00390	e3a03001	 mov         r3, #1
  00394	e58d3010	 str         r3, [sp, #0x10]
  00398	ea000001	 b           |$LN4@SetDataTog|
  0039c		 |$LN3@SetDataTog|
  0039c	e3a03000	 mov         r3, #0
  003a0	e58d3010	 str         r3, [sp, #0x10]
  003a4		 |$LN4@SetDataTog|
  003a4	e59d3024	 ldr         r3, [sp, #0x24]
  003a8	e5933000	 ldr         r3, [r3]
  003ac	e2833028	 add         r3, r3, #0x28
  003b0	e59d0024	 ldr         r0, [sp, #0x24]
  003b4	e5933000	 ldr         r3, [r3]
  003b8	e1a0e00f	 mov         lr, pc
  003bc	e12fff13	 bx          r3
  003c0	e5cd0014	 strb        r0, [sp, #0x14]
  003c4	e59d0024	 ldr         r0, [sp, #0x24]
  003c8	eb000000	 bl          |?GetMappedEndPoint@CPipe@@QAAEXZ|
  003cc	e5cd0015	 strb        r0, [sp, #0x15]
  003d0	e59d3010	 ldr         r3, [sp, #0x10]
  003d4	e58d3004	 str         r3, [sp, #4]
  003d8	e5dd3014	 ldrb        r3, [sp, #0x14]
  003dc	e58d3000	 str         r3, [sp]
  003e0	e5dd3015	 ldrb        r3, [sp, #0x15]
  003e4	e59d2024	 ldr         r2, [sp, #0x24]
  003e8	e2822036	 add         r2, r2, #0x36
  003ec	e5d22000	 ldrb        r2, [r2]
  003f0	e5dd1028	 ldrb        r1, [sp, #0x28]
  003f4	e59f0040	 ldr         r0, [pc, #0x40]
  003f8	eb000000	 bl          NKDbgPrintfW
  003fc	e3a03001	 mov         r3, #1
  00400	e58d3018	 str         r3, [sp, #0x18]
  00404	ea000001	 b           |$LN6@SetDataTog|
  00408		 |$LN5@SetDataTog|
  00408	e3a03000	 mov         r3, #0
  0040c	e58d3018	 str         r3, [sp, #0x18]
  00410		 |$LN6@SetDataTog|

; 147  :     m_ucDataToggle = dataToggle;

  00410	e59d3024	 ldr         r3, [sp, #0x24]
  00414	e2832015	 add         r2, r3, #0x15
  00418	e5dd3028	 ldrb        r3, [sp, #0x28]
  0041c	e5c23000	 strb        r3, [r2]

; 148  :     m_bProcessDataToggle = TRUE;

  00420	e59d3024	 ldr         r3, [sp, #0x24]
  00424	e2832018	 add         r2, r3, #0x18
  00428	e3a03001	 mov         r3, #1
  0042c	e5823000	 str         r3, [r2]

; 149  : }

  00430	e28dd01c	 add         sp, sp, #0x1C
  00434	e89d6000	 ldmia       sp, {sp, lr}
  00438	e12fff1e	 bx          lr
  0043c		 |$LN10@SetDataTog|
  0043c		 |$LN11@SetDataTog|
  0043c	00000000	 DCD         |??_C@_1IA@FPPOKFJ@?$AAS?$AAe?$AAt?$AAD?$AAa?$AAt?$AAa?$AAT?$AAo?$AAg?$AAg?$AAl?$AAe?$AA?5?$AAt?$AAo?$AA?5?$AA?$CF?$AAd?$AA?5?$AAf?$AAo?$AAr?$AA?5?$AAE?$AAP?$AA?5?$AA0?$AAx?$AA?$CF?$AAx?$AA?5@|
  00440		 |$M37614|

			 ENDP  ; |?SetDataToggle@CPipe@@QAAXE@Z|, CPipe::SetDataToggle

; File c:\wince600\platform\common\src\soc\common_ti_v1\omap3530\musb\musbhcd\musbmhdrc\cpipe.h

  00000			 AREA	 |.pdata|, PDATA
|$T37624| DCD	|$LN5@GetMappedE|
	DCD	0x40000c04
; Function compile flags: /Odtp

  00000			 AREA	 |.text|, CODE, ARM

  00000		 |?GetMappedEndPoint@CPipe@@QAAEXZ| PROC ; CPipe::GetMappedEndPoint

; 103  :     UCHAR   GetMappedEndPoint(void) { return m_mappedEndpoint; };

  00000		 |$LN5@GetMappedE|
  00000	e1a0c00d	 mov         r12, sp
  00004	e92d0001	 stmdb       sp!, {r0}
  00008	e92d5000	 stmdb       sp!, {r12, lr}
  0000c	e24dd004	 sub         sp, sp, #4
  00010		 |$M37621|
  00010	e59d300c	 ldr         r3, [sp, #0xC]
  00014	e2833058	 add         r3, r3, #0x58
  00018	e5d33000	 ldrb        r3, [r3]
  0001c	e5cd3000	 strb        r3, [sp]
  00020	e5dd0000	 ldrb        r0, [sp]
  00024	e28dd004	 add         sp, sp, #4
  00028	e89d6000	 ldmia       sp, {sp, lr}
  0002c	e12fff1e	 bx          lr
  00030		 |$M37622|

			 ENDP  ; |?GetMappedEndPoint@CPipe@@QAAEXZ|, CPipe::GetMappedEndPoint

	EXPORT	|??_C@_1IG@CLMMCFLE@?$AAI?$AAs?$AAD?$AAa?$AAt?$AAa?$AAT?$AAo?$AAg?$AAg?$AAl?$AAe?$AA?5?$AAf?$AAo?$AAr?$AA?5?$AAE?$AAP?$AA?5?$AA0?$AAx?$AA?$CF?$AAx?$AA?5?$AA?$CI?$AAm?$AAa?$AAp?$AAp?$AAe?$AAd@| [ DATA ] ; `string'
	EXPORT	|?IsDataToggle@CPipe@@QAAHXZ|		; CPipe::IsDataToggle

  00018			 AREA	 |.pdata|, PDATA
|$T37638| DCD	|$LN10@IsDataTogg|
	DCD	0x40003f04
; File c:\wince600\platform\common\src\soc\common_ti_v1\omap3530\musb\musbhcd\musbmhdrc\cpipe.cpp

  00000			 AREA	 |.rdata|, DATA, READONLY
|??_C@_1IG@CLMMCFLE@?$AAI?$AAs?$AAD?$AAa?$AAt?$AAa?$AAT?$AAo?$AAg?$AAg?$AAl?$AAe?$AA?5?$AAf?$AAo?$AAr?$AA?5?$AAE?$AAP?$AA?5?$AA0?$AAx?$AA?$CF?$AAx?$AA?5?$AA?$CI?$AAm?$AAa?$AAp?$AAp?$AAe?$AAd@| DCB "I"
	DCB	0x0, "s", 0x0, "D", 0x0, "a", 0x0, "t", 0x0, "a", 0x0, "T"
	DCB	0x0, "o", 0x0, "g", 0x0, "g", 0x0, "l", 0x0, "e", 0x0, " "
	DCB	0x0, "f", 0x0, "o", 0x0, "r", 0x0, " ", 0x0, "E", 0x0, "P"
	DCB	0x0, " ", 0x0, "0", 0x0, "x", 0x0, "%", 0x0, "x", 0x0, " "
	DCB	0x0, "(", 0x0, "m", 0x0, "a", 0x0, "p", 0x0, "p", 0x0, "e"
	DCB	0x0, "d", 0x0, " ", 0x0, "%", 0x0, "d", 0x0, ")", 0x0, " "
	DCB	0x0, "D", 0x0, "e", 0x0, "v", 0x0, "A", 0x0, "d", 0x0, "d"
	DCB	0x0, "r", 0x0, " ", 0x0, "%", 0x0, "d", 0x0, " ", 0x0, "O"
	DCB	0x0, "U", 0x0, "T", 0x0, " ", 0x0, "%", 0x0, "d", 0x0, " "
	DCB	0x0, "r", 0x0, "e", 0x0, "t", 0x0, "u", 0x0, "r", 0x0, "n"
	DCB	0x0, " ", 0x0, "%", 0x0, "d", 0x0, 0xd, 0x0, 0xa, 0x0, 0x0
	DCB	0x0					; `string'
; Function compile flags: /Odtp

  00440			 AREA	 |.text|, CODE, ARM

  00440		 |?IsDataToggle@CPipe@@QAAHXZ| PROC	; CPipe::IsDataToggle

; 152  : {

  00440		 |$LN10@IsDataTogg|
  00440	e1a0c00d	 mov         r12, sp
  00444	e92d0001	 stmdb       sp!, {r0}
  00448	e92d5000	 stmdb       sp!, {r12, lr}
  0044c	e24dd020	 sub         sp, sp, #0x20
  00450		 |$M37635|

; 153  :     RETAILMSG(0, (TEXT("IsDataToggle for EP 0x%x (mapped %d) DevAddr %d OUT %d return %d\r\n"),
; 154  :         m_usbEndpointDescriptor.bEndpointAddress, GetMappedEndPoint(), 
; 155  :         GetReservedDeviceAddr(), USB_ENDPOINT_DIRECTION_OUT(m_usbEndpointDescriptor.bEndpointAddress), m_bProcessDataToggle));

  00450	ea000024	 b           |$LN6@IsDataTogg|
  00454	e59d3028	 ldr         r3, [sp, #0x28]
  00458	e2833036	 add         r3, r3, #0x36
  0045c	e5d33000	 ldrb        r3, [r3]
  00460	e3130080	 tst         r3, #0x80
  00464	1a000002	 bne         |$LN4@IsDataTogg|
  00468	e3a03001	 mov         r3, #1
  0046c	e58d3014	 str         r3, [sp, #0x14]
  00470	ea000001	 b           |$LN5@IsDataTogg|
  00474		 |$LN4@IsDataTogg|
  00474	e3a03000	 mov         r3, #0
  00478	e58d3014	 str         r3, [sp, #0x14]
  0047c		 |$LN5@IsDataTogg|
  0047c	e59d3028	 ldr         r3, [sp, #0x28]
  00480	e5933000	 ldr         r3, [r3]
  00484	e2833028	 add         r3, r3, #0x28
  00488	e59d0028	 ldr         r0, [sp, #0x28]
  0048c	e5933000	 ldr         r3, [r3]
  00490	e1a0e00f	 mov         lr, pc
  00494	e12fff13	 bx          r3
  00498	e5cd0018	 strb        r0, [sp, #0x18]
  0049c	e59d0028	 ldr         r0, [sp, #0x28]
  004a0	eb000000	 bl          |?GetMappedEndPoint@CPipe@@QAAEXZ|
  004a4	e5cd0019	 strb        r0, [sp, #0x19]
  004a8	e59d3028	 ldr         r3, [sp, #0x28]
  004ac	e2833018	 add         r3, r3, #0x18
  004b0	e5933000	 ldr         r3, [r3]
  004b4	e58d3004	 str         r3, [sp, #4]
  004b8	e59d3014	 ldr         r3, [sp, #0x14]
  004bc	e58d3000	 str         r3, [sp]
  004c0	e5dd3018	 ldrb        r3, [sp, #0x18]
  004c4	e5dd2019	 ldrb        r2, [sp, #0x19]
  004c8	e59d1028	 ldr         r1, [sp, #0x28]
  004cc	e2811036	 add         r1, r1, #0x36
  004d0	e5d11000	 ldrb        r1, [r1]
  004d4	e59f005c	 ldr         r0, [pc, #0x5C]
  004d8	eb000000	 bl          NKDbgPrintfW
  004dc	e3a03001	 mov         r3, #1
  004e0	e58d301c	 str         r3, [sp, #0x1C]
  004e4	ea000001	 b           |$LN7@IsDataTogg|
  004e8		 |$LN6@IsDataTogg|
  004e8	e3a03000	 mov         r3, #0
  004ec	e58d301c	 str         r3, [sp, #0x1C]
  004f0		 |$LN7@IsDataTogg|

; 156  : 
; 157  :     if (m_bProcessDataToggle)

  004f0	e59d3028	 ldr         r3, [sp, #0x28]
  004f4	e2833018	 add         r3, r3, #0x18
  004f8	e5933000	 ldr         r3, [r3]
  004fc	e3530000	 cmp         r3, #0
  00500	0a000006	 beq         |$LN1@IsDataTogg|

; 158  :     {
; 159  :         m_bProcessDataToggle = FALSE;

  00504	e59d3028	 ldr         r3, [sp, #0x28]
  00508	e2832018	 add         r2, r3, #0x18
  0050c	e3a03000	 mov         r3, #0
  00510	e5823000	 str         r3, [r2]

; 160  :         return TRUE;

  00514	e3a03001	 mov         r3, #1
  00518	e58d3010	 str         r3, [sp, #0x10]
  0051c	ea000001	 b           |$LN2@IsDataTogg|
  00520		 |$LN1@IsDataTogg|

; 161  :     }
; 162  :     return FALSE;

  00520	e3a03000	 mov         r3, #0
  00524	e58d3010	 str         r3, [sp, #0x10]
  00528		 |$LN2@IsDataTogg|

; 163  : }

  00528	e59d0010	 ldr         r0, [sp, #0x10]
  0052c	e28dd020	 add         sp, sp, #0x20
  00530	e89d6000	 ldmia       sp, {sp, lr}
  00534	e12fff1e	 bx          lr
  00538		 |$LN11@IsDataTogg|
  00538		 |$LN12@IsDataTogg|
  00538	00000000	 DCD         |??_C@_1IG@CLMMCFLE@?$AAI?$AAs?$AAD?$AAa?$AAt?$AAa?$AAT?$AAo?$AAg?$AAg?$AAl?$AAe?$AA?5?$AAf?$AAo?$AAr?$AA?5?$AAE?$AAP?$AA?5?$AA0?$AAx?$AA?$CF?$AAx?$AA?5?$AA?$CI?$AAm?$AAa?$AAp?$AAp?$AAe?$AAd@|
  0053c		 |$M37636|

			 ENDP  ; |?IsDataToggle@CPipe@@QAAHXZ|, CPipe::IsDataToggle

	EXPORT	|??_C@_1CA@EGGPAPJO@?$AA?9?$AAC?$AAP?$AAi?$AAp?$AAe?$AA?3?$AA?3?$AA?$HO?$AAC?$AAP?$AAi?$AAp?$AAe?$AA?6?$AA?$AA@| [ DATA ] ; `string'
	EXPORT	|??_C@_1CI@HDEEPJNI@?$AA?$CF?$AAs?$AA?3?$AA?5?$AA?$CL?$AAC?$AAP?$AAi?$AAp?$AAe?$AA?3?$AA?3?$AA?$HO?$AAC?$AAP?$AAi?$AAp?$AAe?$AA?6?$AA?$AA@| [ DATA ] ; `string'
	IMPORT	|CloseHandle|
	IMPORT	|DeleteCriticalSection|

  00020			 AREA	 |.pdata|, PDATA
|$T37649| DCD	|$LN11@CPipe@2|
	DCD	0x40004f04

  00000			 AREA	 |.rdata|, DATA, READONLY
|??_C@_1CA@EGGPAPJO@?$AA?9?$AAC?$AAP?$AAi?$AAp?$AAe?$AA?3?$AA?3?$AA?$HO?$AAC?$AAP?$AAi?$AAp?$AAe?$AA?6?$AA?$AA@| DCB "-"
	DCB	0x0, "C", 0x0, "P", 0x0, "i", 0x0, "p", 0x0, "e", 0x0, ":"
	DCB	0x0, ":", 0x0, "~", 0x0, "C", 0x0, "P", 0x0, "i", 0x0, "p"
	DCB	0x0, "e", 0x0, 0xa, 0x0, 0x0, 0x0	; `string'

  00000			 AREA	 |.rdata|, DATA, READONLY
|??_C@_1CI@HDEEPJNI@?$AA?$CF?$AAs?$AA?3?$AA?5?$AA?$CL?$AAC?$AAP?$AAi?$AAp?$AAe?$AA?3?$AA?3?$AA?$HO?$AAC?$AAP?$AAi?$AAp?$AAe?$AA?6?$AA?$AA@| DCB "%"
	DCB	0x0, "s", 0x0, ":", 0x0, " ", 0x0, "+", 0x0, "C", 0x0, "P"
	DCB	0x0, "i", 0x0, "p", 0x0, "e", 0x0, ":", 0x0, ":", 0x0, "~"
	DCB	0x0, "C", 0x0, "P", 0x0, "i", 0x0, "p", 0x0, "e", 0x0, 0xa
	DCB	0x0, 0x0, 0x0				; `string'
; Function compile flags: /Odtp

  0053c			 AREA	 |.text|, CODE, ARM

  0053c		 |??1CPipe@@UAA@XZ| PROC		; CPipe::~CPipe

; 236  : {

  0053c		 |$LN11@CPipe@2|
  0053c	e1a0c00d	 mov         r12, sp
  00540	e92d0001	 stmdb       sp!, {r0}
  00544	e92d5000	 stmdb       sp!, {r12, lr}
  00548	e24dd00c	 sub         sp, sp, #0xC
  0054c		 |$M37646|
  0054c	e59f2120	 ldr         r2, [pc, #0x120]
  00550	e59d3014	 ldr         r3, [sp, #0x14]
  00554	e5832000	 str         r2, [r3]

; 237  :     DEBUGMSG( ZONE_PIPE && ZONE_VERBOSE, (TEXT("%s: +CPipe::~CPipe\n"),GetControllerName()) );

  00558	e59f310c	 ldr         r3, [pc, #0x10C]
  0055c	e5933440	 ldr         r3, [r3, #0x440]
  00560	e3130080	 tst         r3, #0x80
  00564	0a00000c	 beq         |$LN5@CPipe@2|
  00568	e59f30fc	 ldr         r3, [pc, #0xFC]
  0056c	e5933440	 ldr         r3, [r3, #0x440]
  00570	e3130a01	 tst         r3, #1, 20
  00574	0a000008	 beq         |$LN5@CPipe@2|
  00578	e59d0014	 ldr         r0, [sp, #0x14]
  0057c	eb000000	 bl          |?GetControllerName@CPipe@@QBAPBGXZ|
  00580	e58d0000	 str         r0, [sp]
  00584	e59d1000	 ldr         r1, [sp]
  00588	e59f00e0	 ldr         r0, [pc, #0xE0]
  0058c	eb000000	 bl          NKDbgPrintfW
  00590	e3a03001	 mov         r3, #1
  00594	e58d3004	 str         r3, [sp, #4]
  00598	ea000001	 b           |$LN6@CPipe@2|
  0059c		 |$LN5@CPipe@2|
  0059c	e3a03000	 mov         r3, #0
  005a0	e58d3004	 str         r3, [sp, #4]
  005a4		 |$LN6@CPipe@2|

; 238  :     // transfers should be aborted or closed before deleting object
; 239  :     DeleteCriticalSection( &m_csPipeLock );    

  005a4	e59d3014	 ldr         r3, [sp, #0x14]
  005a8	e2830020	 add         r0, r3, #0x20
  005ac	eb000000	 bl          DeleteCriticalSection

; 240  :     if (m_hEPTransferEvent)

  005b0	e59d3014	 ldr         r3, [sp, #0x14]
  005b4	e283305c	 add         r3, r3, #0x5C
  005b8	e5933000	 ldr         r3, [r3]
  005bc	e3530000	 cmp         r3, #0
  005c0	0a000003	 beq         |$LN2@CPipe@2|

; 241  :         CloseHandle(m_hEPTransferEvent);

  005c4	e59d3014	 ldr         r3, [sp, #0x14]
  005c8	e283305c	 add         r3, r3, #0x5C
  005cc	e5930000	 ldr         r0, [r3]
  005d0	eb000000	 bl          CloseHandle
  005d4		 |$LN2@CPipe@2|

; 242  :     if (m_hDMATransferEvent)

  005d4	e59d3014	 ldr         r3, [sp, #0x14]
  005d8	e2833060	 add         r3, r3, #0x60
  005dc	e5933000	 ldr         r3, [r3]
  005e0	e3530000	 cmp         r3, #0
  005e4	0a000003	 beq         |$LN1@CPipe@2|

; 243  :         CloseHandle(m_hDMATransferEvent);

  005e8	e59d3014	 ldr         r3, [sp, #0x14]
  005ec	e2833060	 add         r3, r3, #0x60
  005f0	e5930000	 ldr         r0, [r3]
  005f4	eb000000	 bl          CloseHandle
  005f8		 |$LN1@CPipe@2|

; 244  :     m_hEPTransferEvent = NULL;

  005f8	e59d3014	 ldr         r3, [sp, #0x14]
  005fc	e283205c	 add         r2, r3, #0x5C
  00600	e3a03000	 mov         r3, #0
  00604	e5823000	 str         r3, [r2]

; 245  :     m_hDMATransferEvent = NULL;

  00608	e59d3014	 ldr         r3, [sp, #0x14]
  0060c	e2832060	 add         r2, r3, #0x60
  00610	e3a03000	 mov         r3, #0
  00614	e5823000	 str         r3, [r2]

; 246  :     DEBUGMSG( ZONE_PIPE && ZONE_VERBOSE, (TEXT("-CPipe::~CPipe\n")) );

  00618	e59f304c	 ldr         r3, [pc, #0x4C]
  0061c	e5933440	 ldr         r3, [r3, #0x440]
  00620	e3130080	 tst         r3, #0x80
  00624	0a000008	 beq         |$LN7@CPipe@2|
  00628	e59f303c	 ldr         r3, [pc, #0x3C]
  0062c	e5933440	 ldr         r3, [r3, #0x440]
  00630	e3130a01	 tst         r3, #1, 20
  00634	0a000004	 beq         |$LN7@CPipe@2|
  00638	e59f0028	 ldr         r0, [pc, #0x28]
  0063c	eb000000	 bl          NKDbgPrintfW
  00640	e3a03001	 mov         r3, #1
  00644	e58d3008	 str         r3, [sp, #8]
  00648	ea000001	 b           |$LN8@CPipe@2|
  0064c		 |$LN7@CPipe@2|
  0064c	e3a03000	 mov         r3, #0
  00650	e58d3008	 str         r3, [sp, #8]
  00654		 |$LN8@CPipe@2|

; 247  : }

  00654	e59d0014	 ldr         r0, [sp, #0x14]
  00658	eb000000	 bl          |??1CPipeAbs@@UAA@XZ|
  0065c	e28dd00c	 add         sp, sp, #0xC
  00660	e89d6000	 ldmia       sp, {sp, lr}
  00664	e12fff1e	 bx          lr
  00668		 |$LN12@CPipe@2|
  00668		 |$LN13@CPipe@2|
  00668	00000000	 DCD         |??_C@_1CA@EGGPAPJO@?$AA?9?$AAC?$AAP?$AAi?$AAp?$AAe?$AA?3?$AA?3?$AA?$HO?$AAC?$AAP?$AAi?$AAp?$AAe?$AA?6?$AA?$AA@|
  0066c		 |$LN14@CPipe@2|
  0066c	00000000	 DCD         |dpCurSettings|
  00670		 |$LN15@CPipe@2|
  00670	00000000	 DCD         |??_C@_1CI@HDEEPJNI@?$AA?$CF?$AAs?$AA?3?$AA?5?$AA?$CL?$AAC?$AAP?$AAi?$AAp?$AAe?$AA?3?$AA?3?$AA?$HO?$AAC?$AAP?$AAi?$AAp?$AAe?$AA?6?$AA?$AA@|
  00674		 |$LN16@CPipe@2|
  00674	00000000	 DCD         |??_7CPipe@@6B@|
  00678		 |$M37647|

			 ENDP  ; |??1CPipe@@UAA@XZ|, CPipe::~CPipe

	EXPORT	|?GetPhysMem@CHW@@QAAPAVCPhysMem@@XZ|	; CHW::GetPhysMem

  00028			 AREA	 |.pdata|, PDATA
|$T37660| DCD	|$LN5@GetCPhysMe|
	DCD	0x40000f04
; Function compile flags: /Odtp

  00678			 AREA	 |.text|, CODE, ARM

  00678		 |?GetCPhysMem@CPipe@@UAAPAVCPhysMem@@XZ| PROC ; CPipe::GetCPhysMem

; 249  : {

  00678		 |$LN5@GetCPhysMe|
  00678	e1a0c00d	 mov         r12, sp
  0067c	e92d0001	 stmdb       sp!, {r0}
  00680	e92d5000	 stmdb       sp!, {r12, lr}
  00684	e24dd008	 sub         sp, sp, #8
  00688		 |$M37657|

; 250  :      return m_pCMhcd->GetPhysMem();

  00688	e59d3010	 ldr         r3, [sp, #0x10]
  0068c	e283300c	 add         r3, r3, #0xC
  00690	e5930000	 ldr         r0, [r3]
  00694	eb000000	 bl          |?GetPhysMem@CHW@@QAAPAVCPhysMem@@XZ|
  00698	e58d0004	 str         r0, [sp, #4]
  0069c	e59d3004	 ldr         r3, [sp, #4]
  006a0	e58d3000	 str         r3, [sp]

; 251  : }

  006a4	e59d0000	 ldr         r0, [sp]
  006a8	e28dd008	 add         sp, sp, #8
  006ac	e89d6000	 ldmia       sp, {sp, lr}
  006b0	e12fff1e	 bx          lr
  006b4		 |$M37658|

			 ENDP  ; |?GetCPhysMem@CPipe@@UAAPAVCPhysMem@@XZ|, CPipe::GetCPhysMem

; File c:\wince600\platform\common\src\soc\common_ti_v1\omap3530\musb\musbhcd\musbmhdrc\chw.h

  00000			 AREA	 |.pdata|, PDATA
|$T37666| DCD	|$LN5@GetPhysMem|
	DCD	0x40000c04
; Function compile flags: /Odtp

  00000			 AREA	 |.text|, CODE, ARM

  00000		 |?GetPhysMem@CHW@@QAAPAVCPhysMem@@XZ| PROC ; CHW::GetPhysMem

; 381  :     CPhysMem * GetPhysMem() { return m_pMem; };

  00000		 |$LN5@GetPhysMem|
  00000	e1a0c00d	 mov         r12, sp
  00004	e92d0001	 stmdb       sp!, {r0}
  00008	e92d5000	 stmdb       sp!, {r12, lr}
  0000c	e24dd004	 sub         sp, sp, #4
  00010		 |$M37663|
  00010	e59d300c	 ldr         r3, [sp, #0xC]
  00014	e2833fa7	 add         r3, r3, #0xA7, 30
  00018	e5933000	 ldr         r3, [r3]
  0001c	e58d3000	 str         r3, [sp]
  00020	e59d0000	 ldr         r0, [sp]
  00024	e28dd004	 add         sp, sp, #4
  00028	e89d6000	 ldmia       sp, {sp, lr}
  0002c	e12fff1e	 bx          lr
  00030		 |$M37664|

			 ENDP  ; |?GetPhysMem@CHW@@QAAPAVCPhysMem@@XZ|, CHW::GetPhysMem

	EXPORT	|??_C@_1KA@DOAAPBLH@?$AA?$CF?$AAs?$AA?3?$AA?5?$AA?9?$AAC?$AAP?$AAi?$AAp?$AAe?$AA?$CI?$AA?$CF?$AAs?$AA?$CJ?$AA?3?$AA?3?$AAI?$AAs?$AAP?$AAi?$AAp?$AAe?$AAH?$AAa?$AAl?$AAt?$AAe?$AAd?$AA?0?$AA?5?$AA?$CK?$AAl@| [ DATA ] ; `string'
	EXPORT	|??_C@_1LK@LMPDOKKA@?$AAC?$AA?3?$AA?2?$AAW?$AAI?$AAN?$AAC?$AAE?$AA6?$AA0?$AA0?$AA?2?$AAP?$AAL?$AAA?$AAT?$AAF?$AAO?$AAR?$AAM?$AA?2?$AAC?$AAO?$AAM?$AAM?$AAO?$AAN?$AA?2?$AAS?$AAR?$AAC?$AA?2@| [ DATA ] ; `string'
	EXPORT	|??_C@_1DM@MOOGPODG@?$AA?$CF?$AAs?$AA?3?$AA?5?$AA?$CL?$AAC?$AAP?$AAi?$AAp?$AAe?$AA?$CI?$AA?$CF?$AAs?$AA?$CJ?$AA?3?$AA?3?$AAI?$AAs?$AAP?$AAi?$AAp?$AAe?$AAH?$AAa?$AAl?$AAt?$AAe?$AAd?$AA?6?$AA?$AA@| [ DATA ] ; `string'
	IMPORT	|LeaveCriticalSection|
	IMPORT	|EnterCriticalSection|

  00030			 AREA	 |.pdata|, PDATA
|$T37681| DCD	|$LN12@IsPipeHalt|
	DCD	0x40006704
; File c:\wince600\platform\common\src\soc\common_ti_v1\omap3530\musb\musbhcd\musbmhdrc\cpipe.cpp

  00000			 AREA	 |.rdata|, DATA, READONLY
|??_C@_1KA@DOAAPBLH@?$AA?$CF?$AAs?$AA?3?$AA?5?$AA?9?$AAC?$AAP?$AAi?$AAp?$AAe?$AA?$CI?$AA?$CF?$AAs?$AA?$CJ?$AA?3?$AA?3?$AAI?$AAs?$AAP?$AAi?$AAp?$AAe?$AAH?$AAa?$AAl?$AAt?$AAe?$AAd?$AA?0?$AA?5?$AA?$CK?$AAl@| DCB "%"
	DCB	0x0, "s", 0x0, ":", 0x0, " ", 0x0, "-", 0x0, "C", 0x0, "P"
	DCB	0x0, "i", 0x0, "p", 0x0, "e", 0x0, "(", 0x0, "%", 0x0, "s"
	DCB	0x0, ")", 0x0, ":", 0x0, ":", 0x0, "I", 0x0, "s", 0x0, "P"
	DCB	0x0, "i", 0x0, "p", 0x0, "e", 0x0, "H", 0x0, "a", 0x0, "l"
	DCB	0x0, "t", 0x0, "e", 0x0, "d", 0x0, ",", 0x0, " ", 0x0, "*"
	DCB	0x0, "l", 0x0, "p", 0x0, "b", 0x0, "H", 0x0, "a", 0x0, "l"
	DCB	0x0, "t", 0x0, "e", 0x0, "d", 0x0, " ", 0x0, "=", 0x0, " "
	DCB	0x0, "%", 0x0, "d", 0x0, ",", 0x0, " ", 0x0, "r", 0x0, "e"
	DCB	0x0, "t", 0x0, "u", 0x0, "r", 0x0, "n", 0x0, "i", 0x0, "n"
	DCB	0x0, "g", 0x0, " ", 0x0, "H", 0x0, "C", 0x0, "D", 0x0, "_"
	DCB	0x0, "R", 0x0, "E", 0x0, "Q", 0x0, "U", 0x0, "E", 0x0, "S"
	DCB	0x0, "T", 0x0, "_", 0x0, "S", 0x0, "T", 0x0, "A", 0x0, "T"
	DCB	0x0, "U", 0x0, "S", 0x0, " ", 0x0, "%", 0x0, "d", 0x0, 0xa
	DCB	0x0, 0x0, 0x0				; `string'

  00000			 AREA	 |.rdata|, DATA, READONLY
|??_C@_1LK@LMPDOKKA@?$AAC?$AA?3?$AA?2?$AAW?$AAI?$AAN?$AAC?$AAE?$AA6?$AA0?$AA0?$AA?2?$AAP?$AAL?$AAA?$AAT?$AAF?$AAO?$AAR?$AAM?$AA?2?$AAC?$AAO?$AAM?$AAM?$AAO?$AAN?$AA?2?$AAS?$AAR?$AAC?$AA?2@| DCB "C"
	DCB	0x0, ":", 0x0, "\\", 0x0, "W", 0x0, "I", 0x0, "N", 0x0, "C"
	DCB	0x0, "E", 0x0, "6", 0x0, "0", 0x0, "0", 0x0, "\\", 0x0, "P"
	DCB	0x0, "L", 0x0, "A", 0x0, "T", 0x0, "F", 0x0, "O", 0x0, "R"
	DCB	0x0, "M", 0x0, "\\", 0x0, "C", 0x0, "O", 0x0, "M", 0x0, "M"
	DCB	0x0, "O", 0x0, "N", 0x0, "\\", 0x0, "S", 0x0, "R", 0x0, "C"
	DCB	0x0, "\\", 0x0, "S", 0x0, "O", 0x0, "C", 0x0, "\\", 0x0, "C"
	DCB	0x0, "O", 0x0, "M", 0x0, "M", 0x0, "O", 0x0, "N", 0x0, "_"
	DCB	0x0, "T", 0x0, "I", 0x0, "_", 0x0, "V", 0x0, "1", 0x0, "\\"
	DCB	0x0, "O", 0x0, "M", 0x0, "A", 0x0, "P", 0x0, "3", 0x0, "5"
	DCB	0x0, "3", 0x0, "0", 0x0, "\\", 0x0, "M", 0x0, "U", 0x0, "S"
	DCB	0x0, "B", 0x0, "\\", 0x0, "M", 0x0, "U", 0x0, "S", 0x0, "B"
	DCB	0x0, "H", 0x0, "C", 0x0, "D", 0x0, "\\", 0x0, "M", 0x0, "U"
	DCB	0x0, "S", 0x0, "B", 0x0, "M", 0x0, "H", 0x0, "D", 0x0, "R"
	DCB	0x0, "C", 0x0, "\\", 0x0, ".", 0x0, "\\", 0x0, "c", 0x0, "p"
	DCB	0x0, "i", 0x0, "p", 0x0, "e", 0x0, ".", 0x0, "c", 0x0, "p"
	DCB	0x0, "p", 0x0, 0x0, 0x0			; `string'

  00000			 AREA	 |.rdata|, DATA, READONLY
|??_C@_1DM@MOOGPODG@?$AA?$CF?$AAs?$AA?3?$AA?5?$AA?$CL?$AAC?$AAP?$AAi?$AAp?$AAe?$AA?$CI?$AA?$CF?$AAs?$AA?$CJ?$AA?3?$AA?3?$AAI?$AAs?$AAP?$AAi?$AAp?$AAe?$AAH?$AAa?$AAl?$AAt?$AAe?$AAd?$AA?6?$AA?$AA@| DCB "%"
	DCB	0x0, "s", 0x0, ":", 0x0, " ", 0x0, "+", 0x0, "C", 0x0, "P"
	DCB	0x0, "i", 0x0, "p", 0x0, "e", 0x0, "(", 0x0, "%", 0x0, "s"
	DCB	0x0, ")", 0x0, ":", 0x0, ":", 0x0, "I", 0x0, "s", 0x0, "P"
	DCB	0x0, "i", 0x0, "p", 0x0, "e", 0x0, "H", 0x0, "a", 0x0, "l"
	DCB	0x0, "t", 0x0, "e", 0x0, "d", 0x0, 0xa, 0x0, 0x0, 0x0 ; `string'
; Function compile flags: /Odtp

  006b4			 AREA	 |.text|, CODE, ARM

  006b4		 |?IsPipeHalted@CPipe@@UAA?AW4HCD_REQUEST_STATUS@@QAH@Z| PROC ; CPipe::IsPipeHalted

; 265  : {

  006b4		 |$LN12@IsPipeHalt|
  006b4	e1a0c00d	 mov         r12, sp
  006b8	e92d0003	 stmdb       sp!, {r0, r1}
  006bc	e92d5000	 stmdb       sp!, {r12, lr}
  006c0	e24dd028	 sub         sp, sp, #0x28
  006c4		 |$M37678|

; 266  :     DEBUGMSG( ZONE_PIPE && ZONE_VERBOSE, (TEXT("%s: +CPipe(%s)::IsPipeHalted\n"),GetControllerName(), GetPipeType()) );

  006c4	e59f3174	 ldr         r3, [pc, #0x174]
  006c8	e5933440	 ldr         r3, [r3, #0x440]
  006cc	e3130080	 tst         r3, #0x80
  006d0	0a000015	 beq         |$LN4@IsPipeHalt|
  006d4	e59f3164	 ldr         r3, [pc, #0x164]
  006d8	e5933440	 ldr         r3, [r3, #0x440]
  006dc	e3130a01	 tst         r3, #1, 20
  006e0	0a000011	 beq         |$LN4@IsPipeHalt|
  006e4	e59d3030	 ldr         r3, [sp, #0x30]
  006e8	e5933000	 ldr         r3, [r3]
  006ec	e2833040	 add         r3, r3, #0x40
  006f0	e59d0030	 ldr         r0, [sp, #0x30]
  006f4	e5933000	 ldr         r3, [r3]
  006f8	e1a0e00f	 mov         lr, pc
  006fc	e12fff13	 bx          r3
  00700	e58d000c	 str         r0, [sp, #0xC]
  00704	e59d0030	 ldr         r0, [sp, #0x30]
  00708	eb000000	 bl          |?GetControllerName@CPipe@@QBAPBGXZ|
  0070c	e58d0010	 str         r0, [sp, #0x10]
  00710	e59d200c	 ldr         r2, [sp, #0xC]
  00714	e59d1010	 ldr         r1, [sp, #0x10]
  00718	e59f012c	 ldr         r0, [pc, #0x12C]
  0071c	eb000000	 bl          NKDbgPrintfW
  00720	e3a03001	 mov         r3, #1
  00724	e58d3014	 str         r3, [sp, #0x14]
  00728	ea000001	 b           |$LN5@IsPipeHalt|
  0072c		 |$LN4@IsPipeHalt|
  0072c	e3a03000	 mov         r3, #0
  00730	e58d3014	 str         r3, [sp, #0x14]
  00734		 |$LN5@IsPipeHalt|

; 267  : 
; 268  :     DEBUGCHK( lpbHalted ); // should be checked by CUhcd

  00734	e59d3034	 ldr         r3, [sp, #0x34]
  00738	e3530000	 cmp         r3, #0
  0073c	0a000002	 beq         |$LN6@IsPipeHalt|
  00740	e3a03001	 mov         r3, #1
  00744	e58d3018	 str         r3, [sp, #0x18]
  00748	ea000007	 b           |$LN7@IsPipeHalt|
  0074c		 |$LN6@IsPipeHalt|
  0074c	e3a03f43	 mov         r3, #0x43, 30
  00750	e59f20f0	 ldr         r2, [pc, #0xF0]
  00754	e59f10e4	 ldr         r1, [pc, #0xE4]
  00758	e59f00e4	 ldr         r0, [pc, #0xE4]
  0075c	eb000000	 bl          NKDbgPrintfW
  00760	e6000010	 __debugbreak_ce
  00764	e3a03000	 mov         r3, #0
  00768	e58d3018	 str         r3, [sp, #0x18]
  0076c		 |$LN7@IsPipeHalt|

; 269  : 
; 270  :     EnterCriticalSection( &m_csPipeLock );

  0076c	e59d3030	 ldr         r3, [sp, #0x30]
  00770	e2830020	 add         r0, r3, #0x20
  00774	eb000000	 bl          EnterCriticalSection

; 271  :     if (lpbHalted)

  00778	e59d3034	 ldr         r3, [sp, #0x34]
  0077c	e3530000	 cmp         r3, #0
  00780	0a000004	 beq         |$LN1@IsPipeHalt|

; 272  :         *lpbHalted = m_fIsHalted;

  00784	e59d3030	 ldr         r3, [sp, #0x30]
  00788	e2833044	 add         r3, r3, #0x44
  0078c	e5932000	 ldr         r2, [r3]
  00790	e59d3034	 ldr         r3, [sp, #0x34]
  00794	e5832000	 str         r2, [r3]
  00798		 |$LN1@IsPipeHalt|

; 273  :     LeaveCriticalSection( &m_csPipeLock );

  00798	e59d3030	 ldr         r3, [sp, #0x30]
  0079c	e2830020	 add         r0, r3, #0x20
  007a0	eb000000	 bl          LeaveCriticalSection

; 274  : 
; 275  :     DEBUGMSG( ZONE_PIPE && ZONE_VERBOSE, (TEXT("%s: -CPipe(%s)::IsPipeHalted, *lpbHalted = %d, returning HCD_REQUEST_STATUS %d\n"),GetControllerName(), GetPipeType(), *lpbHalted, requestOK) );

  007a4	e59f3094	 ldr         r3, [pc, #0x94]
  007a8	e5933440	 ldr         r3, [r3, #0x440]
  007ac	e3130080	 tst         r3, #0x80
  007b0	0a000019	 beq         |$LN8@IsPipeHalt|
  007b4	e59f3084	 ldr         r3, [pc, #0x84]
  007b8	e5933440	 ldr         r3, [r3, #0x440]
  007bc	e3130a01	 tst         r3, #1, 20
  007c0	0a000015	 beq         |$LN8@IsPipeHalt|
  007c4	e59d3030	 ldr         r3, [sp, #0x30]
  007c8	e5933000	 ldr         r3, [r3]
  007cc	e2833040	 add         r3, r3, #0x40
  007d0	e59d0030	 ldr         r0, [sp, #0x30]
  007d4	e5933000	 ldr         r3, [r3]
  007d8	e1a0e00f	 mov         lr, pc
  007dc	e12fff13	 bx          r3
  007e0	e58d001c	 str         r0, [sp, #0x1C]
  007e4	e59d0030	 ldr         r0, [sp, #0x30]
  007e8	eb000000	 bl          |?GetControllerName@CPipe@@QBAPBGXZ|
  007ec	e58d0020	 str         r0, [sp, #0x20]
  007f0	e3a03001	 mov         r3, #1
  007f4	e58d3000	 str         r3, [sp]
  007f8	e59d3034	 ldr         r3, [sp, #0x34]
  007fc	e5933000	 ldr         r3, [r3]
  00800	e59d201c	 ldr         r2, [sp, #0x1C]
  00804	e59d1020	 ldr         r1, [sp, #0x20]
  00808	e59f002c	 ldr         r0, [pc, #0x2C]
  0080c	eb000000	 bl          NKDbgPrintfW
  00810	e3a03001	 mov         r3, #1
  00814	e58d3024	 str         r3, [sp, #0x24]
  00818	ea000001	 b           |$LN9@IsPipeHalt|
  0081c		 |$LN8@IsPipeHalt|
  0081c	e3a03000	 mov         r3, #0
  00820	e58d3024	 str         r3, [sp, #0x24]
  00824		 |$LN9@IsPipeHalt|

; 276  :     return requestOK;

  00824	e3a03001	 mov         r3, #1
  00828	e58d3008	 str         r3, [sp, #8]

; 277  : }

  0082c	e59d0008	 ldr         r0, [sp, #8]
  00830	e28dd028	 add         sp, sp, #0x28
  00834	e89d6000	 ldmia       sp, {sp, lr}
  00838	e12fff1e	 bx          lr
  0083c		 |$LN13@IsPipeHalt|
  0083c		 |$LN14@IsPipeHalt|
  0083c	00000000	 DCD         |??_C@_1KA@DOAAPBLH@?$AA?$CF?$AAs?$AA?3?$AA?5?$AA?9?$AAC?$AAP?$AAi?$AAp?$AAe?$AA?$CI?$AA?$CF?$AAs?$AA?$CJ?$AA?3?$AA?3?$AAI?$AAs?$AAP?$AAi?$AAp?$AAe?$AAH?$AAa?$AAl?$AAt?$AAe?$AAd?$AA?0?$AA?5?$AA?$CK?$AAl@|
  00840		 |$LN15@IsPipeHalt|
  00840	00000000	 DCD         |dpCurSettings|
  00844		 |$LN16@IsPipeHalt|
  00844	00000000	 DCD         |??_C@_1FK@FNONLNGN@?$AA?$CF?$AAs?$AA?3?$AA?5?$AAD?$AAE?$AAB?$AAU?$AAG?$AAC?$AAH?$AAK?$AA?5?$AAf?$AAa?$AAi?$AAl?$AAe?$AAd?$AA?5?$AAi?$AAn?$AA?5?$AAf?$AAi?$AAl?$AAe?$AA?5?$AA?$CF?$AAs?$AA?5?$AAa@|
  00848		 |$LN17@IsPipeHalt|
  00848	00000000	 DCD         |??_C@_1LK@LMPDOKKA@?$AAC?$AA?3?$AA?2?$AAW?$AAI?$AAN?$AAC?$AAE?$AA6?$AA0?$AA0?$AA?2?$AAP?$AAL?$AAA?$AAT?$AAF?$AAO?$AAR?$AAM?$AA?2?$AAC?$AAO?$AAM?$AAM?$AAO?$AAN?$AA?2?$AAS?$AAR?$AAC?$AA?2@|
  0084c		 |$LN18@IsPipeHalt|
  0084c	00000000	 DCD         |??_C@_1DM@MOOGPODG@?$AA?$CF?$AAs?$AA?3?$AA?5?$AA?$CL?$AAC?$AAP?$AAi?$AAp?$AAe?$AA?$CI?$AA?$CF?$AAs?$AA?$CJ?$AA?3?$AA?3?$AAI?$AAs?$AAP?$AAi?$AAp?$AAe?$AAH?$AAa?$AAl?$AAt?$AAe?$AAd?$AA?6?$AA?$AA@|
  00850		 |$M37679|

			 ENDP  ; |?IsPipeHalted@CPipe@@UAA?AW4HCD_REQUEST_STATUS@@QAH@Z|, CPipe::IsPipeHalted

	EXPORT	|??_C@_1EC@GKHNHIJJ@?$AA?$CF?$AAs?$AA?3?$AA?5?$AA?9?$AAC?$AAP?$AAi?$AAp?$AAe?$AA?$CI?$AA?$CF?$AAs?$AA?$CJ?$AA?3?$AA?3?$AAC?$AAl?$AAe?$AAa?$AAr?$AAH?$AAa?$AAl?$AAt?$AAe?$AAd?$AAF?$AAl?$AAa?$AAg?$AA?6@| [ DATA ] ; `string'
	EXPORT	|??_C@_1IM@NKPHGHDL@?$AA?$CF?$AAs?$AA?3?$AA?5?$AAC?$AAP?$AAi?$AAp?$AAe?$AA?$CI?$AA?$CF?$AAs?$AA?$CJ?$AA?3?$AA?3?$AAC?$AAl?$AAe?$AAa?$AAr?$AAH?$AAa?$AAl?$AAt?$AAe?$AAd?$AAF?$AAl?$AAa?$AAg?$AA?5?$AA?9@| [ DATA ] ; `string'
	EXPORT	|??_C@_1EC@PJOFPLC@?$AA?$CF?$AAs?$AA?3?$AA?5?$AA?$CL?$AAC?$AAP?$AAi?$AAp?$AAe?$AA?$CI?$AA?$CF?$AAs?$AA?$CJ?$AA?3?$AA?3?$AAC?$AAl?$AAe?$AAa?$AAr?$AAH?$AAa?$AAl?$AAt?$AAe?$AAd?$AAF?$AAl?$AAa?$AAg?$AA?6@| [ DATA ] ; `string'

  00038			 AREA	 |.pdata|, PDATA
|$T37698| DCD	|$LN11@ClearHalte|
	DCD	0x40006a04

  00000			 AREA	 |.rdata|, DATA, READONLY
|??_C@_1EC@GKHNHIJJ@?$AA?$CF?$AAs?$AA?3?$AA?5?$AA?9?$AAC?$AAP?$AAi?$AAp?$AAe?$AA?$CI?$AA?$CF?$AAs?$AA?$CJ?$AA?3?$AA?3?$AAC?$AAl?$AAe?$AAa?$AAr?$AAH?$AAa?$AAl?$AAt?$AAe?$AAd?$AAF?$AAl?$AAa?$AAg?$AA?6@| DCB "%"
	DCB	0x0, "s", 0x0, ":", 0x0, " ", 0x0, "-", 0x0, "C", 0x0, "P"
	DCB	0x0, "i", 0x0, "p", 0x0, "e", 0x0, "(", 0x0, "%", 0x0, "s"
	DCB	0x0, ")", 0x0, ":", 0x0, ":", 0x0, "C", 0x0, "l", 0x0, "e"
	DCB	0x0, "a", 0x0, "r", 0x0, "H", 0x0, "a", 0x0, "l", 0x0, "t"
	DCB	0x0, "e", 0x0, "d", 0x0, "F", 0x0, "l", 0x0, "a", 0x0, "g"
	DCB	0x0, 0xa, 0x0, 0x0, 0x0			; `string'

  00000			 AREA	 |.rdata|, DATA, READONLY
|??_C@_1IM@NKPHGHDL@?$AA?$CF?$AAs?$AA?3?$AA?5?$AAC?$AAP?$AAi?$AAp?$AAe?$AA?$CI?$AA?$CF?$AAs?$AA?$CJ?$AA?3?$AA?3?$AAC?$AAl?$AAe?$AAa?$AAr?$AAH?$AAa?$AAl?$AAt?$AAe?$AAd?$AAF?$AAl?$AAa?$AAg?$AA?5?$AA?9@| DCB "%"
	DCB	0x0, "s", 0x0, ":", 0x0, " ", 0x0, "C", 0x0, "P", 0x0, "i"
	DCB	0x0, "p", 0x0, "e", 0x0, "(", 0x0, "%", 0x0, "s", 0x0, ")"
	DCB	0x0, ":", 0x0, ":", 0x0, "C", 0x0, "l", 0x0, "e", 0x0, "a"
	DCB	0x0, "r", 0x0, "H", 0x0, "a", 0x0, "l", 0x0, "t", 0x0, "e"
	DCB	0x0, "d", 0x0, "F", 0x0, "l", 0x0, "a", 0x0, "g", 0x0, " "
	DCB	0x0, "-", 0x0, " ", 0x0, "w", 0x0, "a", 0x0, "r", 0x0, "n"
	DCB	0x0, "i", 0x0, "n", 0x0, "g", 0x0, "!", 0x0, " ", 0x0, "C"
	DCB	0x0, "a", 0x0, "l", 0x0, "l", 0x0, "e", 0x0, "d", 0x0, " "
	DCB	0x0, "o", 0x0, "n", 0x0, " ", 0x0, "n", 0x0, "o", 0x0, "n"
	DCB	0x0, "-", 0x0, "s", 0x0, "t", 0x0, "a", 0x0, "l", 0x0, "l"
	DCB	0x0, "e", 0x0, "d", 0x0, " ", 0x0, "p", 0x0, "i", 0x0, "p"
	DCB	0x0, "e", 0x0, 0xa, 0x0, 0x0, 0x0	; `string'

  00000			 AREA	 |.rdata|, DATA, READONLY
|??_C@_1EC@PJOFPLC@?$AA?$CF?$AAs?$AA?3?$AA?5?$AA?$CL?$AAC?$AAP?$AAi?$AAp?$AAe?$AA?$CI?$AA?$CF?$AAs?$AA?$CJ?$AA?3?$AA?3?$AAC?$AAl?$AAe?$AAa?$AAr?$AAH?$AAa?$AAl?$AAt?$AAe?$AAd?$AAF?$AAl?$AAa?$AAg?$AA?6@| DCB "%"
	DCB	0x0, "s", 0x0, ":", 0x0, " ", 0x0, "+", 0x0, "C", 0x0, "P"
	DCB	0x0, "i", 0x0, "p", 0x0, "e", 0x0, "(", 0x0, "%", 0x0, "s"
	DCB	0x0, ")", 0x0, ":", 0x0, ":", 0x0, "C", 0x0, "l", 0x0, "e"
	DCB	0x0, "a", 0x0, "r", 0x0, "H", 0x0, "a", 0x0, "l", 0x0, "t"
	DCB	0x0, "e", 0x0, "d", 0x0, "F", 0x0, "l", 0x0, "a", 0x0, "g"
	DCB	0x0, 0xa, 0x0, 0x0, 0x0			; `string'
; Function compile flags: /Odtp

  00850			 AREA	 |.text|, CODE, ARM

  00850		 |?ClearHaltedFlag@CPipe@@UAAXXZ| PROC	; CPipe::ClearHaltedFlag

; 288  : {

  00850		 |$LN11@ClearHalte|
  00850	e1a0c00d	 mov         r12, sp
  00854	e92d0001	 stmdb       sp!, {r0}
  00858	e92d5000	 stmdb       sp!, {r12, lr}
  0085c	e24dd024	 sub         sp, sp, #0x24
  00860		 |$M37695|

; 289  :     DEBUGMSG( ZONE_PIPE && ZONE_VERBOSE, (TEXT("%s: +CPipe(%s)::ClearHaltedFlag\n"),GetControllerName(), GetPipeType() ) );

  00860	e59f3184	 ldr         r3, [pc, #0x184]
  00864	e5933440	 ldr         r3, [r3, #0x440]
  00868	e3130080	 tst         r3, #0x80
  0086c	0a000015	 beq         |$LN3@ClearHalte|
  00870	e59f3174	 ldr         r3, [pc, #0x174]
  00874	e5933440	 ldr         r3, [r3, #0x440]
  00878	e3130a01	 tst         r3, #1, 20
  0087c	0a000011	 beq         |$LN3@ClearHalte|
  00880	e59d302c	 ldr         r3, [sp, #0x2C]
  00884	e5933000	 ldr         r3, [r3]
  00888	e2833040	 add         r3, r3, #0x40
  0088c	e59d002c	 ldr         r0, [sp, #0x2C]
  00890	e5933000	 ldr         r3, [r3]
  00894	e1a0e00f	 mov         lr, pc
  00898	e12fff13	 bx          r3
  0089c	e58d0000	 str         r0, [sp]
  008a0	e59d002c	 ldr         r0, [sp, #0x2C]
  008a4	eb000000	 bl          |?GetControllerName@CPipe@@QBAPBGXZ|
  008a8	e58d0004	 str         r0, [sp, #4]
  008ac	e59d2000	 ldr         r2, [sp]
  008b0	e59d1004	 ldr         r1, [sp, #4]
  008b4	e59f0138	 ldr         r0, [pc, #0x138]
  008b8	eb000000	 bl          NKDbgPrintfW
  008bc	e3a03001	 mov         r3, #1
  008c0	e58d3008	 str         r3, [sp, #8]
  008c4	ea000001	 b           |$LN4@ClearHalte|
  008c8		 |$LN3@ClearHalte|
  008c8	e3a03000	 mov         r3, #0
  008cc	e58d3008	 str         r3, [sp, #8]
  008d0		 |$LN4@ClearHalte|

; 290  : 
; 291  :     EnterCriticalSection( &m_csPipeLock );

  008d0	e59d302c	 ldr         r3, [sp, #0x2C]
  008d4	e2830020	 add         r0, r3, #0x20
  008d8	eb000000	 bl          EnterCriticalSection

; 292  :     DEBUGMSG( ZONE_WARNING && !m_fIsHalted, (TEXT("%s: CPipe(%s)::ClearHaltedFlag - warning! Called on non-stalled pipe\n"),GetControllerName(), GetPipeType()) );

  008dc	e59f3108	 ldr         r3, [pc, #0x108]
  008e0	e5933440	 ldr         r3, [r3, #0x440]
  008e4	e3130a02	 tst         r3, #2, 20
  008e8	0a000016	 beq         |$LN5@ClearHalte|
  008ec	e59d302c	 ldr         r3, [sp, #0x2C]
  008f0	e2833044	 add         r3, r3, #0x44
  008f4	e5933000	 ldr         r3, [r3]
  008f8	e3530000	 cmp         r3, #0
  008fc	1a000011	 bne         |$LN5@ClearHalte|
  00900	e59d302c	 ldr         r3, [sp, #0x2C]
  00904	e5933000	 ldr         r3, [r3]
  00908	e2833040	 add         r3, r3, #0x40
  0090c	e59d002c	 ldr         r0, [sp, #0x2C]
  00910	e5933000	 ldr         r3, [r3]
  00914	e1a0e00f	 mov         lr, pc
  00918	e12fff13	 bx          r3
  0091c	e58d000c	 str         r0, [sp, #0xC]
  00920	e59d002c	 ldr         r0, [sp, #0x2C]
  00924	eb000000	 bl          |?GetControllerName@CPipe@@QBAPBGXZ|
  00928	e58d0010	 str         r0, [sp, #0x10]
  0092c	e59d200c	 ldr         r2, [sp, #0xC]
  00930	e59d1010	 ldr         r1, [sp, #0x10]
  00934	e59f00b4	 ldr         r0, [pc, #0xB4]
  00938	eb000000	 bl          NKDbgPrintfW
  0093c	e3a03001	 mov         r3, #1
  00940	e58d3014	 str         r3, [sp, #0x14]
  00944	ea000001	 b           |$LN6@ClearHalte|
  00948		 |$LN5@ClearHalte|
  00948	e3a03000	 mov         r3, #0
  0094c	e58d3014	 str         r3, [sp, #0x14]
  00950		 |$LN6@ClearHalte|

; 293  :     m_fIsHalted = FALSE;

  00950	e59d302c	 ldr         r3, [sp, #0x2C]
  00954	e2832044	 add         r2, r3, #0x44
  00958	e3a03000	 mov         r3, #0
  0095c	e5823000	 str         r3, [r2]

; 294  :     LeaveCriticalSection( &m_csPipeLock );

  00960	e59d302c	 ldr         r3, [sp, #0x2C]
  00964	e2830020	 add         r0, r3, #0x20
  00968	eb000000	 bl          LeaveCriticalSection

; 295  : 
; 296  :     DEBUGMSG( ZONE_PIPE && ZONE_VERBOSE, (TEXT("%s: -CPipe(%s)::ClearHaltedFlag\n"),GetControllerName(), GetPipeType()) );

  0096c	e59f3078	 ldr         r3, [pc, #0x78]
  00970	e5933440	 ldr         r3, [r3, #0x440]
  00974	e3130080	 tst         r3, #0x80
  00978	0a000015	 beq         |$LN7@ClearHalte|
  0097c	e59f3068	 ldr         r3, [pc, #0x68]
  00980	e5933440	 ldr         r3, [r3, #0x440]
  00984	e3130a01	 tst         r3, #1, 20
  00988	0a000011	 beq         |$LN7@ClearHalte|
  0098c	e59d302c	 ldr         r3, [sp, #0x2C]
  00990	e5933000	 ldr         r3, [r3]
  00994	e2833040	 add         r3, r3, #0x40
  00998	e59d002c	 ldr         r0, [sp, #0x2C]
  0099c	e5933000	 ldr         r3, [r3]
  009a0	e1a0e00f	 mov         lr, pc
  009a4	e12fff13	 bx          r3
  009a8	e58d0018	 str         r0, [sp, #0x18]
  009ac	e59d002c	 ldr         r0, [sp, #0x2C]
  009b0	eb000000	 bl          |?GetControllerName@CPipe@@QBAPBGXZ|
  009b4	e58d001c	 str         r0, [sp, #0x1C]
  009b8	e59d2018	 ldr         r2, [sp, #0x18]
  009bc	e59d101c	 ldr         r1, [sp, #0x1C]
  009c0	e59f0020	 ldr         r0, [pc, #0x20]
  009c4	eb000000	 bl          NKDbgPrintfW
  009c8	e3a03001	 mov         r3, #1
  009cc	e58d3020	 str         r3, [sp, #0x20]
  009d0	ea000001	 b           |$LN8@ClearHalte|
  009d4		 |$LN7@ClearHalte|
  009d4	e3a03000	 mov         r3, #0
  009d8	e58d3020	 str         r3, [sp, #0x20]
  009dc		 |$LN8@ClearHalte|

; 297  : }

  009dc	e28dd024	 add         sp, sp, #0x24
  009e0	e89d6000	 ldmia       sp, {sp, lr}
  009e4	e12fff1e	 bx          lr
  009e8		 |$LN12@ClearHalte|
  009e8		 |$LN13@ClearHalte|
  009e8	00000000	 DCD         |??_C@_1EC@GKHNHIJJ@?$AA?$CF?$AAs?$AA?3?$AA?5?$AA?9?$AAC?$AAP?$AAi?$AAp?$AAe?$AA?$CI?$AA?$CF?$AAs?$AA?$CJ?$AA?3?$AA?3?$AAC?$AAl?$AAe?$AAa?$AAr?$AAH?$AAa?$AAl?$AAt?$AAe?$AAd?$AAF?$AAl?$AAa?$AAg?$AA?6@|
  009ec		 |$LN14@ClearHalte|
  009ec	00000000	 DCD         |dpCurSettings|
  009f0		 |$LN15@ClearHalte|
  009f0	00000000	 DCD         |??_C@_1IM@NKPHGHDL@?$AA?$CF?$AAs?$AA?3?$AA?5?$AAC?$AAP?$AAi?$AAp?$AAe?$AA?$CI?$AA?$CF?$AAs?$AA?$CJ?$AA?3?$AA?3?$AAC?$AAl?$AAe?$AAa?$AAr?$AAH?$AAa?$AAl?$AAt?$AAe?$AAd?$AAF?$AAl?$AAa?$AAg?$AA?5?$AA?9@|
  009f4		 |$LN16@ClearHalte|
  009f4	00000000	 DCD         |??_C@_1EC@PJOFPLC@?$AA?$CF?$AAs?$AA?3?$AA?5?$AA?$CL?$AAC?$AAP?$AAi?$AAp?$AAe?$AA?$CI?$AA?$CF?$AAs?$AA?$CJ?$AA?3?$AA?3?$AAC?$AAl?$AAe?$AAa?$AAr?$AAH?$AAa?$AAl?$AAt?$AAe?$AAd?$AAF?$AAl?$AAa?$AAg?$AA?6@|
  009f8		 |$M37696|

			 ENDP  ; |?ClearHaltedFlag@CPipe@@UAAXXZ|, CPipe::ClearHaltedFlag

	EXPORT	|??_C@_1EC@HHJLHFCG@?$AAR?$AAe?$AAs?$AAe?$AAt?$AAE?$AAn?$AAd?$AAP?$AAo?$AAi?$AAn?$AAt?$AA?5?$AAa?$AAt?$AA?5?$AAe?$AAn?$AAd?$AAp?$AAo?$AAi?$AAn?$AAt?$AA?5?$AA0?$AAx?$AA?$CF?$AAx?$AA?$AN?$AA?6@| [ DATA ] ; `string'
	IMPORT	|?ResetEndPoint@CHW@@QAAXE@Z|		; CHW::ResetEndPoint

  00040			 AREA	 |.pdata|, PDATA
|$T37710| DCD	|$LN7@ResetEndPo|
	DCD	0x40002004

  00000			 AREA	 |.rdata|, DATA, READONLY
|??_C@_1EC@HHJLHFCG@?$AAR?$AAe?$AAs?$AAe?$AAt?$AAE?$AAn?$AAd?$AAP?$AAo?$AAi?$AAn?$AAt?$AA?5?$AAa?$AAt?$AA?5?$AAe?$AAn?$AAd?$AAp?$AAo?$AAi?$AAn?$AAt?$AA?5?$AA0?$AAx?$AA?$CF?$AAx?$AA?$AN?$AA?6@| DCB "R"
	DCB	0x0, "e", 0x0, "s", 0x0, "e", 0x0, "t", 0x0, "E", 0x0, "n"
	DCB	0x0, "d", 0x0, "P", 0x0, "o", 0x0, "i", 0x0, "n", 0x0, "t"
	DCB	0x0, " ", 0x0, "a", 0x0, "t", 0x0, " ", 0x0, "e", 0x0, "n"
	DCB	0x0, "d", 0x0, "p", 0x0, "o", 0x0, "i", 0x0, "n", 0x0, "t"
	DCB	0x0, " ", 0x0, "0", 0x0, "x", 0x0, "%", 0x0, "x", 0x0, 0xd
	DCB	0x0, 0xa, 0x0, 0x0, 0x0			; `string'
; Function compile flags: /Odtp

  009f8			 AREA	 |.text|, CODE, ARM

  009f8		 |?ResetEndPoint@CPipe@@UAAXXZ| PROC	; CPipe::ResetEndPoint

; 300  : {

  009f8		 |$LN7@ResetEndPo|
  009f8	e1a0c00d	 mov         r12, sp
  009fc	e92d0001	 stmdb       sp!, {r0}
  00a00	e92d5000	 stmdb       sp!, {r12, lr}
  00a04	e24dd004	 sub         sp, sp, #4
  00a08		 |$M37707|

; 301  :     EnterCriticalSection(&m_csPipeLock);

  00a08	e59d300c	 ldr         r3, [sp, #0xC]
  00a0c	e2830020	 add         r0, r3, #0x20
  00a10	eb000000	 bl          EnterCriticalSection

; 302  :     RETAILMSG(1, (TEXT("ResetEndPoint at endpoint 0x%x\r\n"), m_bEndpointAddress));

  00a14	e59d300c	 ldr         r3, [sp, #0xC]
  00a18	e2833004	 add         r3, r3, #4
  00a1c	e5d33000	 ldrb        r3, [r3]
  00a20	e1a01003	 mov         r1, r3
  00a24	e59f0048	 ldr         r0, [pc, #0x48]
  00a28	eb000000	 bl          NKDbgPrintfW
  00a2c	e3a03001	 mov         r3, #1
  00a30	e58d3000	 str         r3, [sp]
  00a34	ea000001	 b           |$LN4@ResetEndPo|
  00a38	e3a03000	 mov         r3, #0
  00a3c	e58d3000	 str         r3, [sp]
  00a40		 |$LN4@ResetEndPo|

; 303  :     m_pCMhcd->ResetEndPoint(m_bEndpointAddress);

  00a40	e59d300c	 ldr         r3, [sp, #0xC]
  00a44	e2833004	 add         r3, r3, #4
  00a48	e5d31000	 ldrb        r1, [r3]
  00a4c	e59d300c	 ldr         r3, [sp, #0xC]
  00a50	e283300c	 add         r3, r3, #0xC
  00a54	e5930000	 ldr         r0, [r3]
  00a58	eb000000	 bl          |?ResetEndPoint@CHW@@QAAXE@Z|

; 304  :     LeaveCriticalSection(&m_csPipeLock);

  00a5c	e59d300c	 ldr         r3, [sp, #0xC]
  00a60	e2830020	 add         r0, r3, #0x20
  00a64	eb000000	 bl          LeaveCriticalSection

; 305  : }

  00a68	e28dd004	 add         sp, sp, #4
  00a6c	e89d6000	 ldmia       sp, {sp, lr}
  00a70	e12fff1e	 bx          lr
  00a74		 |$LN8@ResetEndPo|
  00a74		 |$LN9@ResetEndPo|
  00a74	00000000	 DCD         |??_C@_1EC@HHJLHFCG@?$AAR?$AAe?$AAs?$AAe?$AAt?$AAE?$AAn?$AAd?$AAP?$AAo?$AAi?$AAn?$AAt?$AA?5?$AAa?$AAt?$AA?5?$AAe?$AAn?$AAd?$AAp?$AAo?$AAi?$AAn?$AAt?$AA?5?$AA0?$AAx?$AA?$CF?$AAx?$AA?$AN?$AA?6@|
  00a78		 |$M37708|

			 ENDP  ; |?ResetEndPoint@CPipe@@UAAXXZ|, CPipe::ResetEndPoint

	EXPORT	|??_C@_1DO@EAAMDDJ@?$AA?$CF?$AAs?$AA?3?$AA?5?$AA?9?$AAC?$AAQ?$AAu?$AAe?$AAu?$AAe?$AAd?$AAP?$AAi?$AAp?$AAe?$AA?3?$AA?3?$AAC?$AAQ?$AAu?$AAe?$AAu?$AAe?$AAd?$AAP?$AAi?$AAp?$AAe?$AA?6?$AA?$AA@| [ DATA ] ; `string'
	EXPORT	|??_C@_1DO@BNNDGIN@?$AA?$CF?$AAs?$AA?3?$AA?5?$AA?$CL?$AAC?$AAQ?$AAu?$AAe?$AAu?$AAe?$AAd?$AAP?$AAi?$AAp?$AAe?$AA?3?$AA?3?$AAC?$AAQ?$AAu?$AAe?$AAu?$AAe?$AAd?$AAP?$AAi?$AAp?$AAe?$AA?6?$AA?$AA@| [ DATA ] ; `string'
	EXPORT	|??_7CQueuedPipe@@6B@| [ DATA ]		; CQueuedPipe::`vftable'
	EXPORT	|??0CQueuedPipe@@QAA@QBU_USB_ENDPOINT_DESCRIPTOR@@HHEEEHQAVCMhcd@@@Z| ; CQueuedPipe::CQueuedPipe
	EXPORT	|?IssueTransfer@CQueuedPipe@@UAA?AW4HCD_REQUEST_STATUS@@EQ6AKPAX@ZQAXKQBXKKQBKK2K3QAK5QAH55@Z| ; CQueuedPipe::IssueTransfer
	EXPORT	|?AbortTransfer@CQueuedPipe@@UAA?AW4HCD_REQUEST_STATUS@@Q6AKPAX@ZQAXPBX@Z| ; CQueuedPipe::AbortTransfer
	EXPORT	|?ClearHaltedFlag@CQueuedPipe@@UAAXXZ|	; CQueuedPipe::ClearHaltedFlag
	EXPORT	|?ScheduleTransfer@CQueuedPipe@@UAA?AW4HCD_REQUEST_STATUS@@XZ| ; CQueuedPipe::ScheduleTransfer
	EXPORT	|?CheckForDoneTransfers@CQueuedPipe@@UAAHXZ| ; CQueuedPipe::CheckForDoneTransfers
	EXPORT	|?ProcessEP@CQueuedPipe@@UAAHKH@Z|	; CQueuedPipe::ProcessEP
	EXPORT	|?GetQHead@CQueuedPipe@@UAAPAVCQH@@XZ|	; CQueuedPipe::GetQHead
	IMPORT	|??_ECQueuedPipe@@UAAPAXI@Z|, WEAK |??_GCQueuedPipe@@UAAPAXI@Z| ; CQueuedPipe::`vector deleting destructor', CQueuedPipe::`scalar deleting destructor'

  00048			 AREA	 |.pdata|, PDATA
|$T37727| DCD	|$LN9@CQueuedPip|
	DCD	0x40005304

  00000			 AREA	 |.rdata|, DATA, READONLY
|??_C@_1DO@EAAMDDJ@?$AA?$CF?$AAs?$AA?3?$AA?5?$AA?9?$AAC?$AAQ?$AAu?$AAe?$AAu?$AAe?$AAd?$AAP?$AAi?$AAp?$AAe?$AA?3?$AA?3?$AAC?$AAQ?$AAu?$AAe?$AAu?$AAe?$AAd?$AAP?$AAi?$AAp?$AAe?$AA?6?$AA?$AA@| DCB "%"
	DCB	0x0, "s", 0x0, ":", 0x0, " ", 0x0, "-", 0x0, "C", 0x0, "Q"
	DCB	0x0, "u", 0x0, "e", 0x0, "u", 0x0, "e", 0x0, "d", 0x0, "P"
	DCB	0x0, "i", 0x0, "p", 0x0, "e", 0x0, ":", 0x0, ":", 0x0, "C"
	DCB	0x0, "Q", 0x0, "u", 0x0, "e", 0x0, "u", 0x0, "e", 0x0, "d"
	DCB	0x0, "P", 0x0, "i", 0x0, "p", 0x0, "e", 0x0, 0xa, 0x0, 0x0
	DCB	0x0					; `string'

  00000			 AREA	 |.rdata|, DATA, READONLY
|??_C@_1DO@BNNDGIN@?$AA?$CF?$AAs?$AA?3?$AA?5?$AA?$CL?$AAC?$AAQ?$AAu?$AAe?$AAu?$AAe?$AAd?$AAP?$AAi?$AAp?$AAe?$AA?3?$AA?3?$AAC?$AAQ?$AAu?$AAe?$AAu?$AAe?$AAd?$AAP?$AAi?$AAp?$AAe?$AA?6?$AA?$AA@| DCB "%"
	DCB	0x0, "s", 0x0, ":", 0x0, " ", 0x0, "+", 0x0, "C", 0x0, "Q"
	DCB	0x0, "u", 0x0, "e", 0x0, "u", 0x0, "e", 0x0, "d", 0x0, "P"
	DCB	0x0, "i", 0x0, "p", 0x0, "e", 0x0, ":", 0x0, ":", 0x0, "C"
	DCB	0x0, "Q", 0x0, "u", 0x0, "e", 0x0, "u", 0x0, "e", 0x0, "d"
	DCB	0x0, "P", 0x0, "i", 0x0, "p", 0x0, "e", 0x0, 0xa, 0x0, 0x0
	DCB	0x0					; `string'

  00000			 AREA	 |.rdata|, DATA, READONLY
|??_7CQueuedPipe@@6B@| DCD |??_ECQueuedPipe@@UAAPAXI@Z|	; CQueuedPipe::`vftable'
	DCD	|_purecall|
	DCD	|_purecall|
	DCD	|?IssueTransfer@CQueuedPipe@@UAA?AW4HCD_REQUEST_STATUS@@EQ6AKPAX@ZQAXKQBXKKQBKK2K3QAK5QAH55@Z|
	DCD	|?AbortTransfer@CQueuedPipe@@UAA?AW4HCD_REQUEST_STATUS@@Q6AKPAX@ZQAXPBX@Z|
	DCD	|?IsPipeHalted@CPipe@@UAA?AW4HCD_REQUEST_STATUS@@QAH@Z|
	DCD	|?ClearHaltedFlag@CQueuedPipe@@UAAXXZ|
	DCD	|?ResetEndPoint@CPipe@@UAAXXZ|
	DCD	|?ChangeMaxPacketSize@CPipeAbs@@UAAXG@Z|
	DCD	|?SetReservedDeviceAddr@CPipe@@UAAHE@Z|
	DCD	|?GetReservedDeviceAddr@CPipe@@UAAEXZ|
	DCD	|?GetCPhysMem@CPipe@@UAAPAVCPhysMem@@XZ|
	DCD	|?ScheduleTransfer@CQueuedPipe@@UAA?AW4HCD_REQUEST_STATUS@@XZ|
	DCD	|?CheckForDoneTransfers@CQueuedPipe@@UAAHXZ|
	DCD	|?ProcessEP@CQueuedPipe@@UAAHKH@Z|
	DCD	|_purecall|
	DCD	|_purecall|
	DCD	|?GetQHead@CQueuedPipe@@UAAPAVCQH@@XZ|
	DCD	|_purecall|
; Function compile flags: /Odtp

  00a78			 AREA	 |.text|, CODE, ARM

  00a78		 |??0CQueuedPipe@@QAA@QBU_USB_ENDPOINT_DESCRIPTOR@@HHEEEHQAVCMhcd@@@Z| PROC ; CQueuedPipe::CQueuedPipe

; 323  : {

  00a78		 |$LN9@CQueuedPip|
  00a78	e1a0c00d	 mov         r12, sp
  00a7c	e92d000f	 stmdb       sp!, {r0 - r3}
  00a80	e92d5000	 stmdb       sp!, {r12, lr}
  00a84	e24dd040	 sub         sp, sp, #0x40
  00a88		 |$M37724|
  00a88	e59d3068	 ldr         r3, [sp, #0x68]
  00a8c	e58d3010	 str         r3, [sp, #0x10]
  00a90	e59d3064	 ldr         r3, [sp, #0x64]
  00a94	e58d300c	 str         r3, [sp, #0xC]
  00a98	e5dd3060	 ldrb        r3, [sp, #0x60]
  00a9c	e58d3008	 str         r3, [sp, #8]
  00aa0	e5dd305c	 ldrb        r3, [sp, #0x5C]
  00aa4	e58d3004	 str         r3, [sp, #4]
  00aa8	e5dd3058	 ldrb        r3, [sp, #0x58]
  00aac	e58d3000	 str         r3, [sp]
  00ab0	e59d3054	 ldr         r3, [sp, #0x54]
  00ab4	e59d2050	 ldr         r2, [sp, #0x50]
  00ab8	e59d104c	 ldr         r1, [sp, #0x4C]
  00abc	e59d0048	 ldr         r0, [sp, #0x48]
  00ac0	eb000000	 bl          |??0CPipe@@QAA@QBU_USB_ENDPOINT_DESCRIPTOR@@HHEEEHQAVCMhcd@@@Z|
  00ac4	e58d002c	 str         r0, [sp, #0x2C]
  00ac8	e59f20f0	 ldr         r2, [pc, #0xF0]
  00acc	e59d3048	 ldr         r3, [sp, #0x48]
  00ad0	e5832000	 str         r2, [r3]

; 324  :     DEBUGMSG( ZONE_PIPE && ZONE_VERBOSE, (TEXT("%s: +CQueuedPipe::CQueuedPipe\n"),GetControllerName()) );

  00ad4	e59f30dc	 ldr         r3, [pc, #0xDC]
  00ad8	e5933440	 ldr         r3, [r3, #0x440]
  00adc	e3130080	 tst         r3, #0x80
  00ae0	0a00000c	 beq         |$LN3@CQueuedPip|
  00ae4	e59f30cc	 ldr         r3, [pc, #0xCC]
  00ae8	e5933440	 ldr         r3, [r3, #0x440]
  00aec	e3130a01	 tst         r3, #1, 20
  00af0	0a000008	 beq         |$LN3@CQueuedPip|
  00af4	e59d0048	 ldr         r0, [sp, #0x48]
  00af8	eb000000	 bl          |?GetControllerName@CPipe@@QBAPBGXZ|
  00afc	e58d0030	 str         r0, [sp, #0x30]
  00b00	e59d1030	 ldr         r1, [sp, #0x30]
  00b04	e59f00b0	 ldr         r0, [pc, #0xB0]
  00b08	eb000000	 bl          NKDbgPrintfW
  00b0c	e3a03001	 mov         r3, #1
  00b10	e58d3034	 str         r3, [sp, #0x34]
  00b14	ea000001	 b           |$LN4@CQueuedPip|
  00b18		 |$LN3@CQueuedPip|
  00b18	e3a03000	 mov         r3, #0
  00b1c	e58d3034	 str         r3, [sp, #0x34]
  00b20		 |$LN4@CQueuedPip|

; 325  :     m_pPipeQHead = NULL;

  00b20	e59d3048	 ldr         r3, [sp, #0x48]
  00b24	e2832064	 add         r2, r3, #0x64
  00b28	e3a03000	 mov         r3, #0
  00b2c	e5823000	 str         r3, [r2]

; 326  :     m_pUnQueuedTransfer=NULL;      // ptr to last transfer in queue

  00b30	e59d3048	 ldr         r3, [sp, #0x48]
  00b34	e2832068	 add         r2, r3, #0x68
  00b38	e3a03000	 mov         r3, #0
  00b3c	e5823000	 str         r3, [r2]

; 327  :     m_pQueuedTransfer=NULL;

  00b40	e59d3048	 ldr         r3, [sp, #0x48]
  00b44	e283206c	 add         r2, r3, #0x6C
  00b48	e3a03000	 mov         r3, #0
  00b4c	e5823000	 str         r3, [r2]

; 328  :     DEBUGMSG( ZONE_PIPE && ZONE_VERBOSE, (TEXT("%s: -CQueuedPipe::CQueuedPipe\n"),GetControllerName()) );

  00b50	e59f3060	 ldr         r3, [pc, #0x60]
  00b54	e5933440	 ldr         r3, [r3, #0x440]
  00b58	e3130080	 tst         r3, #0x80
  00b5c	0a00000c	 beq         |$LN5@CQueuedPip|
  00b60	e59f3050	 ldr         r3, [pc, #0x50]
  00b64	e5933440	 ldr         r3, [r3, #0x440]
  00b68	e3130a01	 tst         r3, #1, 20
  00b6c	0a000008	 beq         |$LN5@CQueuedPip|
  00b70	e59d0048	 ldr         r0, [sp, #0x48]
  00b74	eb000000	 bl          |?GetControllerName@CPipe@@QBAPBGXZ|
  00b78	e58d0038	 str         r0, [sp, #0x38]
  00b7c	e59d1038	 ldr         r1, [sp, #0x38]
  00b80	e59f002c	 ldr         r0, [pc, #0x2C]
  00b84	eb000000	 bl          NKDbgPrintfW
  00b88	e3a03001	 mov         r3, #1
  00b8c	e58d303c	 str         r3, [sp, #0x3C]
  00b90	ea000001	 b           |$LN6@CQueuedPip|
  00b94		 |$LN5@CQueuedPip|
  00b94	e3a03000	 mov         r3, #0
  00b98	e58d303c	 str         r3, [sp, #0x3C]
  00b9c		 |$LN6@CQueuedPip|

; 329  : }

  00b9c	e59d3048	 ldr         r3, [sp, #0x48]
  00ba0	e58d3028	 str         r3, [sp, #0x28]
  00ba4	e59d0028	 ldr         r0, [sp, #0x28]
  00ba8	e28dd040	 add         sp, sp, #0x40
  00bac	e89d6000	 ldmia       sp, {sp, lr}
  00bb0	e12fff1e	 bx          lr
  00bb4		 |$LN10@CQueuedPip|
  00bb4		 |$LN11@CQueuedPip|
  00bb4	00000000	 DCD         |??_C@_1DO@EAAMDDJ@?$AA?$CF?$AAs?$AA?3?$AA?5?$AA?9?$AAC?$AAQ?$AAu?$AAe?$AAu?$AAe?$AAd?$AAP?$AAi?$AAp?$AAe?$AA?3?$AA?3?$AAC?$AAQ?$AAu?$AAe?$AAu?$AAe?$AAd?$AAP?$AAi?$AAp?$AAe?$AA?6?$AA?$AA@|
  00bb8		 |$LN12@CQueuedPip|
  00bb8	00000000	 DCD         |dpCurSettings|
  00bbc		 |$LN13@CQueuedPip|
  00bbc	00000000	 DCD         |??_C@_1DO@BNNDGIN@?$AA?$CF?$AAs?$AA?3?$AA?5?$AA?$CL?$AAC?$AAQ?$AAu?$AAe?$AAu?$AAe?$AAd?$AAP?$AAi?$AAp?$AAe?$AA?3?$AA?3?$AAC?$AAQ?$AAu?$AAe?$AAu?$AAe?$AAd?$AAP?$AAi?$AAp?$AAe?$AA?6?$AA?$AA@|
  00bc0		 |$LN14@CQueuedPip|
  00bc0	00000000	 DCD         |??_7CQueuedPipe@@6B@|
  00bc4		 |$M37725|

			 ENDP  ; |??0CQueuedPipe@@QAA@QBU_USB_ENDPOINT_DESCRIPTOR@@HHEEEHQAVCMhcd@@@Z|, CQueuedPipe::CQueuedPipe

; File c:\wince600\platform\common\src\soc\common_ti_v1\omap3530\musb\musbhcd\musbmhdrc\cpipe.h

  00000			 AREA	 |.pdata|, PDATA
|$T37738| DCD	|$LN5@GetQHead|
	DCD	0x40000c04
; Function compile flags: /Odtp

  00000			 AREA	 |.text|, CODE, ARM

  00000		 |?GetQHead@CQueuedPipe@@UAAPAVCQH@@XZ| PROC ; CQueuedPipe::GetQHead

; 208  :     CQH *  GetQHead() { return m_pPipeQHead; };

  00000		 |$LN5@GetQHead|
  00000	e1a0c00d	 mov         r12, sp
  00004	e92d0001	 stmdb       sp!, {r0}
  00008	e92d5000	 stmdb       sp!, {r12, lr}
  0000c	e24dd004	 sub         sp, sp, #4
  00010		 |$M37735|
  00010	e59d300c	 ldr         r3, [sp, #0xC]
  00014	e2833064	 add         r3, r3, #0x64
  00018	e5933000	 ldr         r3, [r3]
  0001c	e58d3000	 str         r3, [sp]
  00020	e59d0000	 ldr         r0, [sp]
  00024	e28dd004	 add         sp, sp, #4
  00028	e89d6000	 ldmia       sp, {sp, lr}
  0002c	e12fff1e	 bx          lr
  00030		 |$M37736|

			 ENDP  ; |?GetQHead@CQueuedPipe@@UAAPAVCQH@@XZ|, CQueuedPipe::GetQHead

	EXPORT	|??1CQueuedPipe@@UAA@XZ|		; CQueuedPipe::~CQueuedPipe

  00000			 AREA	 |.pdata|, PDATA
|$T37746| DCD	|$LN6@scalar@3|
	DCD	0x40001104
; Function compile flags: /Odtp

  00000			 AREA	 |.text|, CODE, ARM

  00000		 |??_GCQueuedPipe@@UAAPAXI@Z| PROC	; CQueuedPipe::`scalar deleting destructor'
  00000		 |$LN6@scalar@3|
  00000	e1a0c00d	 mov         r12, sp
  00004	e92d0003	 stmdb       sp!, {r0, r1}
  00008	e92d5000	 stmdb       sp!, {r12, lr}
  0000c	e24dd004	 sub         sp, sp, #4
  00010		 |$M37743|
  00010	e59d000c	 ldr         r0, [sp, #0xC]
  00014	eb000000	 bl          |??1CQueuedPipe@@UAA@XZ|
  00018	e59d3010	 ldr         r3, [sp, #0x10]
  0001c	e3130001	 tst         r3, #1
  00020	0a000001	 beq         |$LN1@scalar@3|
  00024	e59d000c	 ldr         r0, [sp, #0xC]
  00028	eb000000	 bl          |??3@YAXPAX@Z|
  0002c		 |$LN1@scalar@3|
  0002c	e59d300c	 ldr         r3, [sp, #0xC]
  00030	e58d3000	 str         r3, [sp]
  00034	e59d0000	 ldr         r0, [sp]
  00038	e28dd004	 add         sp, sp, #4
  0003c	e89d6000	 ldmia       sp, {sp, lr}
  00040	e12fff1e	 bx          lr
  00044		 |$M37744|

			 ENDP  ; |??_GCQueuedPipe@@UAAPAXI@Z|, CQueuedPipe::`scalar deleting destructor'

	EXPORT	|??_C@_1EA@IIPDNKCC@?$AA?$CF?$AAs?$AA?3?$AA?5?$AA?9?$AAC?$AAQ?$AAu?$AAe?$AAu?$AAe?$AAd?$AAP?$AAi?$AAp?$AAe?$AA?3?$AA?3?$AA?$HO?$AAC?$AAQ?$AAu?$AAe?$AAu?$AAe?$AAd?$AAP?$AAi?$AAp?$AAe?$AA?6?$AA?$AA@| [ DATA ] ; `string'
	EXPORT	|??_C@_1EA@MFINLCNA@?$AA?$CF?$AAs?$AA?3?$AA?5?$AA?$CL?$AAC?$AAQ?$AAu?$AAe?$AAu?$AAe?$AAd?$AAP?$AAi?$AAp?$AAe?$AA?3?$AA?3?$AA?$HO?$AAC?$AAQ?$AAu?$AAe?$AAu?$AAe?$AAd?$AAP?$AAi?$AAp?$AAe?$AA?6?$AA?$AA@| [ DATA ] ; `string'

  00050			 AREA	 |.pdata|, PDATA
|$T37763| DCD	|$LN15@CQueuedPip@2|
	DCD	0x40007104
; File c:\wince600\platform\common\src\soc\common_ti_v1\omap3530\musb\musbhcd\musbmhdrc\cpipe.cpp

  00000			 AREA	 |.rdata|, DATA, READONLY
|??_C@_1EA@IIPDNKCC@?$AA?$CF?$AAs?$AA?3?$AA?5?$AA?9?$AAC?$AAQ?$AAu?$AAe?$AAu?$AAe?$AAd?$AAP?$AAi?$AAp?$AAe?$AA?3?$AA?3?$AA?$HO?$AAC?$AAQ?$AAu?$AAe?$AAu?$AAe?$AAd?$AAP?$AAi?$AAp?$AAe?$AA?6?$AA?$AA@| DCB "%"
	DCB	0x0, "s", 0x0, ":", 0x0, " ", 0x0, "-", 0x0, "C", 0x0, "Q"
	DCB	0x0, "u", 0x0, "e", 0x0, "u", 0x0, "e", 0x0, "d", 0x0, "P"
	DCB	0x0, "i", 0x0, "p", 0x0, "e", 0x0, ":", 0x0, ":", 0x0, "~"
	DCB	0x0, "C", 0x0, "Q", 0x0, "u", 0x0, "e", 0x0, "u", 0x0, "e"
	DCB	0x0, "d", 0x0, "P", 0x0, "i", 0x0, "p", 0x0, "e", 0x0, 0xa
	DCB	0x0, 0x0, 0x0				; `string'

  00000			 AREA	 |.rdata|, DATA, READONLY
|??_C@_1EA@MFINLCNA@?$AA?$CF?$AAs?$AA?3?$AA?5?$AA?$CL?$AAC?$AAQ?$AAu?$AAe?$AAu?$AAe?$AAd?$AAP?$AAi?$AAp?$AAe?$AA?3?$AA?3?$AA?$HO?$AAC?$AAQ?$AAu?$AAe?$AAu?$AAe?$AAd?$AAP?$AAi?$AAp?$AAe?$AA?6?$AA?$AA@| DCB "%"
	DCB	0x0, "s", 0x0, ":", 0x0, " ", 0x0, "+", 0x0, "C", 0x0, "Q"
	DCB	0x0, "u", 0x0, "e", 0x0, "u", 0x0, "e", 0x0, "d", 0x0, "P"
	DCB	0x0, "i", 0x0, "p", 0x0, "e", 0x0, ":", 0x0, ":", 0x0, "~"
	DCB	0x0, "C", 0x0, "Q", 0x0, "u", 0x0, "e", 0x0, "u", 0x0, "e"
	DCB	0x0, "d", 0x0, "P", 0x0, "i", 0x0, "p", 0x0, "e", 0x0, 0xa
	DCB	0x0, 0x0, 0x0				; `string'
; Function compile flags: /Odtp

  00bc4			 AREA	 |.text|, CODE, ARM

  00bc4		 |??1CQueuedPipe@@UAA@XZ| PROC		; CQueuedPipe::~CQueuedPipe

; 343  : {

  00bc4		 |$LN15@CQueuedPip@2|
  00bc4	e1a0c00d	 mov         r12, sp
  00bc8	e92d0001	 stmdb       sp!, {r0}
  00bcc	e92d5000	 stmdb       sp!, {r12, lr}
  00bd0	e24dd01c	 sub         sp, sp, #0x1C
  00bd4		 |$M37760|
  00bd4	e59f21a8	 ldr         r2, [pc, #0x1A8]
  00bd8	e59d3024	 ldr         r3, [sp, #0x24]
  00bdc	e5832000	 str         r2, [r3]

; 344  :     DEBUGMSG( ZONE_PIPE && ZONE_VERBOSE, (TEXT("%s: +CQueuedPipe::~CQueuedPipe\n"),GetControllerName()) );

  00be0	e59f3188	 ldr         r3, [pc, #0x188]
  00be4	e5933440	 ldr         r3, [r3, #0x440]
  00be8	e3130080	 tst         r3, #0x80
  00bec	0a00000c	 beq         |$LN3@CQueuedPip@2|
  00bf0	e59f3178	 ldr         r3, [pc, #0x178]
  00bf4	e5933440	 ldr         r3, [r3, #0x440]
  00bf8	e3130a01	 tst         r3, #1, 20
  00bfc	0a000008	 beq         |$LN3@CQueuedPip@2|
  00c00	e59d0024	 ldr         r0, [sp, #0x24]
  00c04	eb000000	 bl          |?GetControllerName@CPipe@@QBAPBGXZ|
  00c08	e58d0000	 str         r0, [sp]
  00c0c	e59d1000	 ldr         r1, [sp]
  00c10	e59f0168	 ldr         r0, [pc, #0x168]
  00c14	eb000000	 bl          NKDbgPrintfW
  00c18	e3a03001	 mov         r3, #1
  00c1c	e58d3004	 str         r3, [sp, #4]
  00c20	ea000001	 b           |$LN4@CQueuedPip@2|
  00c24		 |$LN3@CQueuedPip@2|
  00c24	e3a03000	 mov         r3, #0
  00c28	e58d3004	 str         r3, [sp, #4]
  00c2c		 |$LN4@CQueuedPip@2|

; 345  :     // queue should be freed via ClosePipe before calling destructor
; 346  :     EnterCriticalSection( &m_csPipeLock );

  00c2c	e59d3024	 ldr         r3, [sp, #0x24]
  00c30	e2830020	 add         r0, r3, #0x20
  00c34	eb000000	 bl          EnterCriticalSection

; 347  :     ASSERT(m_pPipeQHead == NULL);

  00c38	e59d3024	 ldr         r3, [sp, #0x24]
  00c3c	e2833064	 add         r3, r3, #0x64
  00c40	e5933000	 ldr         r3, [r3]
  00c44	e3530000	 cmp         r3, #0
  00c48	1a000002	 bne         |$LN5@CQueuedPip@2|
  00c4c	e3a03001	 mov         r3, #1
  00c50	e58d3008	 str         r3, [sp, #8]
  00c54	ea000008	 b           |$LN6@CQueuedPip@2|
  00c58		 |$LN5@CQueuedPip@2|
  00c58	e3a03c01	 mov         r3, #1, 24
  00c5c	e383305b	 orr         r3, r3, #0x5B
  00c60	e59f2114	 ldr         r2, [pc, #0x114]
  00c64	e59f110c	 ldr         r1, [pc, #0x10C]
  00c68	e59f0104	 ldr         r0, [pc, #0x104]
  00c6c	eb000000	 bl          NKDbgPrintfW
  00c70	e6000010	 __debugbreak_ce
  00c74	e3a03000	 mov         r3, #0
  00c78	e58d3008	 str         r3, [sp, #8]
  00c7c		 |$LN6@CQueuedPip@2|

; 348  :     ASSERT(m_pUnQueuedTransfer==NULL);      // ptr to last transfer in queue

  00c7c	e59d3024	 ldr         r3, [sp, #0x24]
  00c80	e2833068	 add         r3, r3, #0x68
  00c84	e5933000	 ldr         r3, [r3]
  00c88	e3530000	 cmp         r3, #0
  00c8c	1a000002	 bne         |$LN7@CQueuedPip@2|
  00c90	e3a03001	 mov         r3, #1
  00c94	e58d300c	 str         r3, [sp, #0xC]
  00c98	ea000007	 b           |$LN8@CQueuedPip@2|
  00c9c		 |$LN7@CQueuedPip@2|
  00c9c	e3a03f57	 mov         r3, #0x57, 30
  00ca0	e59f20d4	 ldr         r2, [pc, #0xD4]
  00ca4	e59f10cc	 ldr         r1, [pc, #0xCC]
  00ca8	e59f00c4	 ldr         r0, [pc, #0xC4]
  00cac	eb000000	 bl          NKDbgPrintfW
  00cb0	e6000010	 __debugbreak_ce
  00cb4	e3a03000	 mov         r3, #0
  00cb8	e58d300c	 str         r3, [sp, #0xC]
  00cbc		 |$LN8@CQueuedPip@2|

; 349  :     ASSERT(m_pQueuedTransfer==NULL);

  00cbc	e59d3024	 ldr         r3, [sp, #0x24]
  00cc0	e283306c	 add         r3, r3, #0x6C
  00cc4	e5933000	 ldr         r3, [r3]
  00cc8	e3530000	 cmp         r3, #0
  00ccc	1a000002	 bne         |$LN9@CQueuedPip@2|
  00cd0	e3a03001	 mov         r3, #1
  00cd4	e58d3010	 str         r3, [sp, #0x10]
  00cd8	ea000008	 b           |$LN10@CQueuedPip@2|
  00cdc		 |$LN9@CQueuedPip@2|
  00cdc	e3a03c01	 mov         r3, #1, 24
  00ce0	e383305d	 orr         r3, r3, #0x5D
  00ce4	e59f2090	 ldr         r2, [pc, #0x90]
  00ce8	e59f1088	 ldr         r1, [pc, #0x88]
  00cec	e59f0080	 ldr         r0, [pc, #0x80]
  00cf0	eb000000	 bl          NKDbgPrintfW
  00cf4	e6000010	 __debugbreak_ce
  00cf8	e3a03000	 mov         r3, #0
  00cfc	e58d3010	 str         r3, [sp, #0x10]
  00d00		 |$LN10@CQueuedPip@2|

; 350  :     LeaveCriticalSection( &m_csPipeLock );

  00d00	e59d3024	 ldr         r3, [sp, #0x24]
  00d04	e2830020	 add         r0, r3, #0x20
  00d08	eb000000	 bl          LeaveCriticalSection

; 351  :     DEBUGMSG( ZONE_PIPE && ZONE_VERBOSE, (TEXT("%s: -CQueuedPipe::~CQueuedPipe\n"),GetControllerName()) );

  00d0c	e59f305c	 ldr         r3, [pc, #0x5C]
  00d10	e5933440	 ldr         r3, [r3, #0x440]
  00d14	e3130080	 tst         r3, #0x80
  00d18	0a00000c	 beq         |$LN11@CQueuedPip@2|
  00d1c	e59f304c	 ldr         r3, [pc, #0x4C]
  00d20	e5933440	 ldr         r3, [r3, #0x440]
  00d24	e3130a01	 tst         r3, #1, 20
  00d28	0a000008	 beq         |$LN11@CQueuedPip@2|
  00d2c	e59d0024	 ldr         r0, [sp, #0x24]
  00d30	eb000000	 bl          |?GetControllerName@CPipe@@QBAPBGXZ|
  00d34	e58d0014	 str         r0, [sp, #0x14]
  00d38	e59d1014	 ldr         r1, [sp, #0x14]
  00d3c	e59f0028	 ldr         r0, [pc, #0x28]
  00d40	eb000000	 bl          NKDbgPrintfW
  00d44	e3a03001	 mov         r3, #1
  00d48	e58d3018	 str         r3, [sp, #0x18]
  00d4c	ea000001	 b           |$LN12@CQueuedPip@2|
  00d50		 |$LN11@CQueuedPip@2|
  00d50	e3a03000	 mov         r3, #0
  00d54	e58d3018	 str         r3, [sp, #0x18]
  00d58		 |$LN12@CQueuedPip@2|

; 352  : }

  00d58	e59d0024	 ldr         r0, [sp, #0x24]
  00d5c	eb000000	 bl          |??1CPipe@@UAA@XZ|
  00d60	e28dd01c	 add         sp, sp, #0x1C
  00d64	e89d6000	 ldmia       sp, {sp, lr}
  00d68	e12fff1e	 bx          lr
  00d6c		 |$LN16@CQueuedPip@2|
  00d6c		 |$LN17@CQueuedPip@2|
  00d6c	00000000	 DCD         |??_C@_1EA@IIPDNKCC@?$AA?$CF?$AAs?$AA?3?$AA?5?$AA?9?$AAC?$AAQ?$AAu?$AAe?$AAu?$AAe?$AAd?$AAP?$AAi?$AAp?$AAe?$AA?3?$AA?3?$AA?$HO?$AAC?$AAQ?$AAu?$AAe?$AAu?$AAe?$AAd?$AAP?$AAi?$AAp?$AAe?$AA?6?$AA?$AA@|
  00d70		 |$LN18@CQueuedPip@2|
  00d70	00000000	 DCD         |dpCurSettings|
  00d74		 |$LN19@CQueuedPip@2|
  00d74	00000000	 DCD         |??_C@_1FK@FNONLNGN@?$AA?$CF?$AAs?$AA?3?$AA?5?$AAD?$AAE?$AAB?$AAU?$AAG?$AAC?$AAH?$AAK?$AA?5?$AAf?$AAa?$AAi?$AAl?$AAe?$AAd?$AA?5?$AAi?$AAn?$AA?5?$AAf?$AAi?$AAl?$AAe?$AA?5?$AA?$CF?$AAs?$AA?5?$AAa@|
  00d78		 |$LN20@CQueuedPip@2|
  00d78	00000000	 DCD         |??_C@_1BA@LEPJIIOK@?$AAU?$AAn?$AAk?$AAn?$AAo?$AAw?$AAn?$AA?$AA@|
  00d7c		 |$LN21@CQueuedPip@2|
  00d7c	00000000	 DCD         |??_C@_1LK@LMPDOKKA@?$AAC?$AA?3?$AA?2?$AAW?$AAI?$AAN?$AAC?$AAE?$AA6?$AA0?$AA0?$AA?2?$AAP?$AAL?$AAA?$AAT?$AAF?$AAO?$AAR?$AAM?$AA?2?$AAC?$AAO?$AAM?$AAM?$AAO?$AAN?$AA?2?$AAS?$AAR?$AAC?$AA?2@|
  00d80		 |$LN22@CQueuedPip@2|
  00d80	00000000	 DCD         |??_C@_1EA@MFINLCNA@?$AA?$CF?$AAs?$AA?3?$AA?5?$AA?$CL?$AAC?$AAQ?$AAu?$AAe?$AAu?$AAe?$AAd?$AAP?$AAi?$AAp?$AAe?$AA?3?$AA?3?$AA?$HO?$AAC?$AAQ?$AAu?$AAe?$AAu?$AAe?$AAd?$AAP?$AAi?$AAp?$AAe?$AA?6?$AA?$AA@|
  00d84		 |$LN23@CQueuedPip@2|
  00d84	00000000	 DCD         |??_7CQueuedPipe@@6B@|
  00d88		 |$M37761|

			 ENDP  ; |??1CQueuedPipe@@UAA@XZ|, CQueuedPipe::~CQueuedPipe

	EXPORT	|??_C@_1KO@FHDEKCOL@?$AA?9?$AAC?$AAQ?$AAu?$AAe?$AAu?$AAe?$AAd?$AAP?$AAi?$AAp?$AAe?$AA?$CI?$AA?$CF?$AAs?$AA?$CJ?$AA?3?$AA?3?$AAA?$AAb?$AAo?$AAr?$AAt?$AAT?$AAr?$AAa?$AAn?$AAs?$AAf?$AAe?$AAr?$AA?5@| [ DATA ] ; `string'
	EXPORT	|??_C@_1KK@MJOJEDBO@?$AA?$CF?$AAs?$AA?3?$AA?5?$AAC?$AAQ?$AAu?$AAe?$AAu?$AAe?$AAd?$AAP?$AAi?$AAp?$AAe?$AA?3?$AA?3?$AAA?$AAb?$AAo?$AAr?$AAt?$AAT?$AAr?$AAa?$AAn?$AAs?$AAf?$AAe?$AAr?$AA?5?$AA?9@| [ DATA ] ; `string'
	EXPORT	|?ClearTDList@CQH@@QAAXXZ|		; CQH::ClearTDList
	EXPORT	|?InvalidNextTD@CQH@@QAAXXZ|		; CQH::InvalidNextTD
	EXPORT	|?SetNextTransfer@CTransfer@@QAAXPAV1@@Z| ; CTransfer::SetNextTransfer
	EXPORT	|?GetNextTransfer@CTransfer@@QAAPAV1@XZ| ; CTransfer::GetNextTransfer
	EXPORT	|?GetSTransfer@CTransfer@@QAA?AUSTRANSFER@@XZ| ; CTransfer::GetSTransfer
	EXPORT	|??_C@_1HE@CKKPODL@?$AA?$CF?$AAs?$AA?3?$AA?5?$AA?$CL?$AAC?$AAQ?$AAu?$AAe?$AAu?$AAe?$AAd?$AAP?$AAi?$AAp?$AAe?$AA?$CI?$AA?$CF?$AAs?$AA?$CJ?$AA?3?$AA?3?$AAA?$AAb?$AAo?$AAr?$AAt?$AAT?$AAr?$AAa?$AAn?$AAs@| [ DATA ] ; `string'
	IMPORT	|?DoneTransfer@CQTransfer@@QAAHXZ|	; CQTransfer::DoneTransfer
	IMPORT	|Sleep|
	IMPORT	|?AbortTransfer@CQTransfer@@QAAHXZ|	; CQTransfer::AbortTransfer
	IMPORT	|__C_specific_handler|

  00058			 AREA	 |.pdata|, PDATA
|$T37802| DCD	|$LN36@AbortTrans|
	DCD	0xc000fa05
|$T37804| DCD	|$LN26@AbortTrans|
	DCD	0x40000a01

  00000			 AREA	 |.rdata|, DATA, READONLY
|??_C@_1KO@FHDEKCOL@?$AA?9?$AAC?$AAQ?$AAu?$AAe?$AAu?$AAe?$AAd?$AAP?$AAi?$AAp?$AAe?$AA?$CI?$AA?$CF?$AAs?$AA?$CJ?$AA?3?$AA?3?$AAA?$AAb?$AAo?$AAr?$AAt?$AAT?$AAr?$AAa?$AAn?$AAs?$AAf?$AAe?$AAr?$AA?5@| DCB "-"
	DCB	0x0, "C", 0x0, "Q", 0x0, "u", 0x0, "e", 0x0, "u", 0x0, "e"
	DCB	0x0, "d", 0x0, "P", 0x0, "i", 0x0, "p", 0x0, "e", 0x0, "("
	DCB	0x0, "%", 0x0, "s", 0x0, ")", 0x0, ":", 0x0, ":", 0x0, "A"
	DCB	0x0, "b", 0x0, "o", 0x0, "r", 0x0, "t", 0x0, "T", 0x0, "r"
	DCB	0x0, "a", 0x0, "n", 0x0, "s", 0x0, "f", 0x0, "e", 0x0, "r"
	DCB	0x0, " ", 0x0, "-", 0x0, " ", 0x0, "l", 0x0, "p", 0x0, "v"
	DCB	0x0, "C", 0x0, "a", 0x0, "n", 0x0, "c", 0x0, "e", 0x0, "l"
	DCB	0x0, "I", 0x0, "d", 0x0, " ", 0x0, "=", 0x0, " ", 0x0, "0"
	DCB	0x0, "x", 0x0, "%", 0x0, "x", 0x0, ",", 0x0, " ", 0x0, "r"
	DCB	0x0, "e", 0x0, "t", 0x0, "u", 0x0, "r", 0x0, "n", 0x0, "i"
	DCB	0x0, "n", 0x0, "g", 0x0, " ", 0x0, "H", 0x0, "C", 0x0, "D"
	DCB	0x0, "_", 0x0, "R", 0x0, "E", 0x0, "Q", 0x0, "U", 0x0, "E"
	DCB	0x0, "S", 0x0, "T", 0x0, "_", 0x0, "S", 0x0, "T", 0x0, "A"
	DCB	0x0, "T", 0x0, "U", 0x0, "S", 0x0, " ", 0x0, "%", 0x0, "d"
	DCB	0x0, 0xa, 0x0, 0x0, 0x0			; `string'

  00000			 AREA	 |.rdata|, DATA, READONLY
|??_C@_1KK@MJOJEDBO@?$AA?$CF?$AAs?$AA?3?$AA?5?$AAC?$AAQ?$AAu?$AAe?$AAu?$AAe?$AAd?$AAP?$AAi?$AAp?$AAe?$AA?3?$AA?3?$AAA?$AAb?$AAo?$AAr?$AAt?$AAT?$AAr?$AAa?$AAn?$AAs?$AAf?$AAe?$AAr?$AA?5?$AA?9@| DCB "%"
	DCB	0x0, "s", 0x0, ":", 0x0, " ", 0x0, "C", 0x0, "Q", 0x0, "u"
	DCB	0x0, "e", 0x0, "u", 0x0, "e", 0x0, "d", 0x0, "P", 0x0, "i"
	DCB	0x0, "p", 0x0, "e", 0x0, ":", 0x0, ":", 0x0, "A", 0x0, "b"
	DCB	0x0, "o", 0x0, "r", 0x0, "t", 0x0, "T", 0x0, "r", 0x0, "a"
	DCB	0x0, "n", 0x0, "s", 0x0, "f", 0x0, "e", 0x0, "r", 0x0, " "
	DCB	0x0, "-", 0x0, " ", 0x0, "e", 0x0, "x", 0x0, "c", 0x0, "e"
	DCB	0x0, "p", 0x0, "t", 0x0, "i", 0x0, "o", 0x0, "n", 0x0, " "
	DCB	0x0, "e", 0x0, "x", 0x0, "e", 0x0, "c", 0x0, "u", 0x0, "t"
	DCB	0x0, "i", 0x0, "n", 0x0, "g", 0x0, " ", 0x0, "c", 0x0, "a"
	DCB	0x0, "n", 0x0, "c", 0x0, "e", 0x0, "l", 0x0, "l", 0x0, "a"
	DCB	0x0, "t", 0x0, "i", 0x0, "o", 0x0, "n", 0x0, " ", 0x0, "c"
	DCB	0x0, "a", 0x0, "l", 0x0, "l", 0x0, "b", 0x0, "a", 0x0, "c"
	DCB	0x0, "k", 0x0, " ", 0x0, "f", 0x0, "u", 0x0, "n", 0x0, "c"
	DCB	0x0, "t", 0x0, "i", 0x0, "o", 0x0, "n", 0x0, 0xa, 0x0, 0x0
	DCB	0x0					; `string'

  00000			 AREA	 |.rdata|, DATA, READONLY
|??_C@_1HE@CKKPODL@?$AA?$CF?$AAs?$AA?3?$AA?5?$AA?$CL?$AAC?$AAQ?$AAu?$AAe?$AAu?$AAe?$AAd?$AAP?$AAi?$AAp?$AAe?$AA?$CI?$AA?$CF?$AAs?$AA?$CJ?$AA?3?$AA?3?$AAA?$AAb?$AAo?$AAr?$AAt?$AAT?$AAr?$AAa?$AAn?$AAs@| DCB "%"
	DCB	0x0, "s", 0x0, ":", 0x0, " ", 0x0, "+", 0x0, "C", 0x0, "Q"
	DCB	0x0, "u", 0x0, "e", 0x0, "u", 0x0, "e", 0x0, "d", 0x0, "P"
	DCB	0x0, "i", 0x0, "p", 0x0, "e", 0x0, "(", 0x0, "%", 0x0, "s"
	DCB	0x0, ")", 0x0, ":", 0x0, ":", 0x0, "A", 0x0, "b", 0x0, "o"
	DCB	0x0, "r", 0x0, "t", 0x0, "T", 0x0, "r", 0x0, "a", 0x0, "n"
	DCB	0x0, "s", 0x0, "f", 0x0, "e", 0x0, "r", 0x0, " ", 0x0, "-"
	DCB	0x0, " ", 0x0, "l", 0x0, "p", 0x0, "v", 0x0, "C", 0x0, "a"
	DCB	0x0, "n", 0x0, "c", 0x0, "e", 0x0, "l", 0x0, "I", 0x0, "d"
	DCB	0x0, " ", 0x0, "=", 0x0, " ", 0x0, "0", 0x0, "x", 0x0, "%"
	DCB	0x0, "x", 0x0, 0xa, 0x0, 0x0, 0x0	; `string'

  00000			 AREA	 |.xdata|, DATA
|$T37800| DCD	0x1
	DCD	|$LN30@AbortTrans|
	DCD	|$LN31@AbortTrans|
	DCD	|$LN26@AbortTrans|
	DCD	|$LN27@AbortTrans|
; Function compile flags: /Odtp

  00d88			 AREA	 |.text|, CODE, ARM

  00d88	00000000	 DCD         |__C_specific_handler|
  00d8c	00000000	 DCD         |$T37800|

  00d90		 |?AbortTransfer@CQueuedPipe@@UAA?AW4HCD_REQUEST_STATUS@@Q6AKPAX@ZQAXPBX@Z| PROC ; CQueuedPipe::AbortTransfer

; 375  : {

  00d90		 |$LN36@AbortTrans|
  00d90	e1a0c00d	 mov         r12, sp
  00d94	e92d000f	 stmdb       sp!, {r0 - r3}
  00d98	e92d5800	 stmdb       sp!, {r11, r12, lr}
  00d9c	e28db00c	 add         r11, sp, #0xC
  00da0	e24dd0e0	 sub         sp, sp, #0xE0
  00da4		 |$LN34@AbortTrans|

; 376  :     DEBUGMSG( ZONE_TRANSFER, (TEXT("%s: +CQueuedPipe(%s)::AbortTransfer - lpvCancelId = 0x%x\n"),GetControllerName(), GetPipeType(), lpvCancelId) );

  00da4	e59f33dc	 ldr         r3, [pc, #0x3DC]
  00da8	e5933440	 ldr         r3, [r3, #0x440]
  00dac	e3130c01	 tst         r3, #1, 24
  00db0	0a000012	 beq         |$LN15@AbortTrans|
  00db4	e59b3000	 ldr         r3, [r11]
  00db8	e5933000	 ldr         r3, [r3]
  00dbc	e2833040	 add         r3, r3, #0x40
  00dc0	e59b0000	 ldr         r0, [r11]
  00dc4	e5933000	 ldr         r3, [r3]
  00dc8	e1a0e00f	 mov         lr, pc
  00dcc	e12fff13	 bx          r3
  00dd0	e50b0050	 str         r0, [r11, #-0x50]
  00dd4	e59b0000	 ldr         r0, [r11]
  00dd8	eb000000	 bl          |?GetControllerName@CPipe@@QBAPBGXZ|
  00ddc	e50b004c	 str         r0, [r11, #-0x4C]
  00de0	e59b300c	 ldr         r3, [r11, #0xC]
  00de4	e51b2050	 ldr         r2, [r11, #-0x50]
  00de8	e51b104c	 ldr         r1, [r11, #-0x4C]
  00dec	e59f03a8	 ldr         r0, [pc, #0x3A8]
  00df0	eb000000	 bl          NKDbgPrintfW
  00df4	e3a03001	 mov         r3, #1
  00df8	e50b3048	 str         r3, [r11, #-0x48]
  00dfc	ea000001	 b           |$LN16@AbortTrans|
  00e00		 |$LN15@AbortTrans|
  00e00	e3a03000	 mov         r3, #0
  00e04	e50b3048	 str         r3, [r11, #-0x48]
  00e08		 |$LN16@AbortTrans|

; 377  : 
; 378  :     HCD_REQUEST_STATUS status = requestFailed;

  00e08	e3a03000	 mov         r3, #0
  00e0c	e50b30e4	 str         r3, [r11, #-0xE4]

; 379  :     BOOL fCheckSchedule = FALSE;

  00e10	e3a03000	 mov         r3, #0
  00e14	e50b30e8	 str         r3, [r11, #-0xE8]

; 380  : 
; 381  :     EnterCriticalSection( &m_csPipeLock );

  00e18	e59b3000	 ldr         r3, [r11]
  00e1c	e2830020	 add         r0, r3, #0x20
  00e20	eb000000	 bl          EnterCriticalSection

; 382  :     CQTransfer * pCurTransfer = m_pUnQueuedTransfer;

  00e24	e59b3000	 ldr         r3, [r11]
  00e28	e2833068	 add         r3, r3, #0x68
  00e2c	e5933000	 ldr         r3, [r3]
  00e30	e50b30ec	 str         r3, [r11, #-0xEC]

; 383  :     CQTransfer * pPrevTransfer= NULL;

  00e34	e3a03000	 mov         r3, #0
  00e38	e50b30e0	 str         r3, [r11, #-0xE0]
  00e3c		 |$LN12@AbortTrans|

; 384  :     while (pCurTransfer && pCurTransfer->GetSTransfer().lpvCancelId !=  lpvCancelId ) {

  00e3c	e51b30ec	 ldr         r3, [r11, #-0xEC]
  00e40	e3530000	 cmp         r3, #0
  00e44	0a000011	 beq         |$LN11@AbortTrans|
  00e48	e24b10dc	 sub         r1, r11, #0xDC
  00e4c	e51b00ec	 ldr         r0, [r11, #-0xEC]
  00e50	eb000000	 bl          |?GetSTransfer@CTransfer@@QAA?AUSTRANSFER@@XZ|
  00e54	e50b0044	 str         r0, [r11, #-0x44]
  00e58	e51b3044	 ldr         r3, [r11, #-0x44]
  00e5c	e2833028	 add         r3, r3, #0x28
  00e60	e5932000	 ldr         r2, [r3]
  00e64	e59b300c	 ldr         r3, [r11, #0xC]
  00e68	e1520003	 cmp         r2, r3
  00e6c	0a000007	 beq         |$LN11@AbortTrans|

; 385  :         pPrevTransfer = pCurTransfer;

  00e70	e51b30ec	 ldr         r3, [r11, #-0xEC]
  00e74	e50b30e0	 str         r3, [r11, #-0xE0]

; 386  :         pCurTransfer= ( CQTransfer *)pCurTransfer->GetNextTransfer();

  00e78	e51b00ec	 ldr         r0, [r11, #-0xEC]
  00e7c	eb000000	 bl          |?GetNextTransfer@CTransfer@@QAAPAV1@XZ|
  00e80	e50b0040	 str         r0, [r11, #-0x40]
  00e84	e51b3040	 ldr         r3, [r11, #-0x40]
  00e88	e50b30ec	 str         r3, [r11, #-0xEC]

; 387  :         
; 388  :     };

  00e8c	eaffffea	 b           |$LN12@AbortTrans|
  00e90		 |$LN11@AbortTrans|

; 389  :     if (pCurTransfer) { // Found Transfer that not queue yet.

  00e90	e51b30ec	 ldr         r3, [r11, #-0xEC]
  00e94	e3530000	 cmp         r3, #0
  00e98	0a000013	 beq         |$LN10@AbortTrans|

; 390  :         pCurTransfer->AbortTransfer();

  00e9c	e51b00ec	 ldr         r0, [r11, #-0xEC]
  00ea0	eb000000	 bl          |?AbortTransfer@CQTransfer@@QAAHXZ|

; 391  :         if (pPrevTransfer)

  00ea4	e51b30e0	 ldr         r3, [r11, #-0xE0]
  00ea8	e3530000	 cmp         r3, #0
  00eac	0a000006	 beq         |$LN9@AbortTrans|

; 392  :             pPrevTransfer->SetNextTransfer(pCurTransfer->GetNextTransfer());

  00eb0	e51b00ec	 ldr         r0, [r11, #-0xEC]
  00eb4	eb000000	 bl          |?GetNextTransfer@CTransfer@@QAAPAV1@XZ|
  00eb8	e50b003c	 str         r0, [r11, #-0x3C]
  00ebc	e51b103c	 ldr         r1, [r11, #-0x3C]
  00ec0	e51b00e0	 ldr         r0, [r11, #-0xE0]
  00ec4	eb000000	 bl          |?SetNextTransfer@CTransfer@@QAAXPAV1@@Z|

; 393  :         else

  00ec8	ea000006	 b           |$LN8@AbortTrans|
  00ecc		 |$LN9@AbortTrans|

; 394  :             m_pUnQueuedTransfer = ( CQTransfer *)pCurTransfer->GetNextTransfer();

  00ecc	e51b00ec	 ldr         r0, [r11, #-0xEC]
  00ed0	eb000000	 bl          |?GetNextTransfer@CTransfer@@QAAPAV1@XZ|
  00ed4	e50b0038	 str         r0, [r11, #-0x38]
  00ed8	e59b3000	 ldr         r3, [r11]
  00edc	e2832068	 add         r2, r3, #0x68
  00ee0	e51b3038	 ldr         r3, [r11, #-0x38]
  00ee4	e5823000	 str         r3, [r2]
  00ee8		 |$LN8@AbortTrans|

; 395  :     }
; 396  :     else {

  00ee8	ea00003f	 b           |$LN7@AbortTrans|
  00eec		 |$LN10@AbortTrans|

; 397  :         if (m_pQueuedTransfer!=NULL &&  m_pQueuedTransfer->GetSTransfer().lpvCancelId ==  lpvCancelId ) {

  00eec	e59b3000	 ldr         r3, [r11]
  00ef0	e283306c	 add         r3, r3, #0x6C
  00ef4	e5933000	 ldr         r3, [r3]
  00ef8	e3530000	 cmp         r3, #0
  00efc	0a00002e	 beq         |$LN6@AbortTrans|
  00f00	e24b109c	 sub         r1, r11, #0x9C
  00f04	e59b3000	 ldr         r3, [r11]
  00f08	e283306c	 add         r3, r3, #0x6C
  00f0c	e5930000	 ldr         r0, [r3]
  00f10	eb000000	 bl          |?GetSTransfer@CTransfer@@QAA?AUSTRANSFER@@XZ|
  00f14	e50b0034	 str         r0, [r11, #-0x34]
  00f18	e51b3034	 ldr         r3, [r11, #-0x34]
  00f1c	e2833028	 add         r3, r3, #0x28
  00f20	e5932000	 ldr         r2, [r3]
  00f24	e59b300c	 ldr         r3, [r11, #0xC]
  00f28	e1520003	 cmp         r2, r3
  00f2c	1a000022	 bne         |$LN6@AbortTrans|

; 398  :             // This is one in the schdeule
; 399  :             // Not sure if it needs to do something here.
; 400  :             m_pQueuedTransfer->AbortTransfer();           

  00f30	e59b3000	 ldr         r3, [r11]
  00f34	e283306c	 add         r3, r3, #0x6C
  00f38	e5930000	 ldr         r0, [r3]
  00f3c	eb000000	 bl          |?AbortTransfer@CQTransfer@@QAAHXZ|

; 401  :             GetQHead()->InvalidNextTD(); 

  00f40	e59b3000	 ldr         r3, [r11]
  00f44	e5933000	 ldr         r3, [r3]
  00f48	e2833044	 add         r3, r3, #0x44
  00f4c	e59b0000	 ldr         r0, [r11]
  00f50	e5933000	 ldr         r3, [r3]
  00f54	e1a0e00f	 mov         lr, pc
  00f58	e12fff13	 bx          r3
  00f5c	e50b0030	 str         r0, [r11, #-0x30]
  00f60	e51b0030	 ldr         r0, [r11, #-0x30]
  00f64	eb000000	 bl          |?InvalidNextTD@CQH@@QAAXXZ|

; 402  :             Sleep(2);// this sleep is for Interrupt Pipe;

  00f68	e3a00002	 mov         r0, #2
  00f6c	eb000000	 bl          Sleep

; 403  :             pCurTransfer = m_pQueuedTransfer;

  00f70	e59b3000	 ldr         r3, [r11]
  00f74	e283306c	 add         r3, r3, #0x6C
  00f78	e5933000	 ldr         r3, [r3]
  00f7c	e50b30ec	 str         r3, [r11, #-0xEC]

; 404  :             m_pQueuedTransfer = NULL;            

  00f80	e59b3000	 ldr         r3, [r11]
  00f84	e283206c	 add         r2, r3, #0x6C
  00f88	e3a03000	 mov         r3, #0
  00f8c	e5823000	 str         r3, [r2]

; 405  :             GetQHead()->ClearTDList();

  00f90	e59b3000	 ldr         r3, [r11]
  00f94	e5933000	 ldr         r3, [r3]
  00f98	e2833044	 add         r3, r3, #0x44
  00f9c	e59b0000	 ldr         r0, [r11]
  00fa0	e5933000	 ldr         r3, [r3]
  00fa4	e1a0e00f	 mov         lr, pc
  00fa8	e12fff13	 bx          r3
  00fac	e50b002c	 str         r0, [r11, #-0x2C]
  00fb0	e51b002c	 ldr         r0, [r11, #-0x2C]
  00fb4	eb000000	 bl          |?ClearTDList@CQH@@QAAXXZ|

; 406  :         }
; 407  :         else 

  00fb8	ea00000b	 b           |$LN5@AbortTrans|
  00fbc		 |$LN6@AbortTrans|

; 408  :             ASSERT(FALSE);        

  00fbc	ea000002	 b           |$LN17@AbortTrans|
  00fc0	e3a03001	 mov         r3, #1
  00fc4	e50b3028	 str         r3, [r11, #-0x28]
  00fc8	ea000007	 b           |$LN18@AbortTrans|
  00fcc		 |$LN17@AbortTrans|
  00fcc	e3a03f66	 mov         r3, #0x66, 30
  00fd0	e59f21c0	 ldr         r2, [pc, #0x1C0]
  00fd4	e59f11b8	 ldr         r1, [pc, #0x1B8]
  00fd8	e59f01b0	 ldr         r0, [pc, #0x1B0]
  00fdc	eb000000	 bl          NKDbgPrintfW
  00fe0	e6000010	 __debugbreak_ce
  00fe4	e3a03000	 mov         r3, #0
  00fe8	e50b3028	 str         r3, [r11, #-0x28]
  00fec		 |$LN18@AbortTrans|
  00fec		 |$LN5@AbortTrans|
  00fec		 |$LN7@AbortTrans|

; 409  :     };
; 410  :     if (pCurTransfer) {

  00fec	e51b30ec	 ldr         r3, [r11, #-0xEC]
  00ff0	e3530000	 cmp         r3, #0
  00ff4	0a000031	 beq         |$LN4@AbortTrans|

; 411  :         pCurTransfer->DoneTransfer();

  00ff8	e51b00ec	 ldr         r0, [r11, #-0xEC]
  00ffc	eb000000	 bl          |?DoneTransfer@CQTransfer@@QAAHXZ|

; 412  :         if ( lpCancelAddress ) {

  01000	e59b3004	 ldr         r3, [r11, #4]
  01004	e3530000	 cmp         r3, #0
  01008	0a000014	 beq         |$LN3@AbortTrans|
  0100c		 |$LN30@AbortTrans|

; 413  :             __try { // calling the Cancel function
; 414  :                 ( *lpCancelAddress )( lpvNotifyParameter );

  0100c	e59b0008	 ldr         r0, [r11, #8]
  01010	e59b3004	 ldr         r3, [r11, #4]
  01014	e1a0e00f	 mov         lr, pc
  01018	e12fff13	 bx          r3
  0101c		 |$LN31@AbortTrans|
  0101c	ea00000f	 b           |$LN32@AbortTrans|
  01020		 |$LN27@AbortTrans|

; 416  :                   DEBUGMSG( ZONE_ERROR, (TEXT("%s: CQueuedPipe::AbortTransfer - exception executing cancellation callback function\n"),GetControllerName()) );

  01020	e59f3160	 ldr         r3, [pc, #0x160]
  01024	e5933440	 ldr         r3, [r3, #0x440]
  01028	e3130901	 tst         r3, #1, 18
  0102c	0a000008	 beq         |$LN19@AbortTrans|
  01030	e59b0000	 ldr         r0, [r11]
  01034	eb000000	 bl          |?GetControllerName@CPipe@@QBAPBGXZ|
  01038	e50b0024	 str         r0, [r11, #-0x24]
  0103c	e51b1024	 ldr         r1, [r11, #-0x24]
  01040	e59f0144	 ldr         r0, [pc, #0x144]
  01044	eb000000	 bl          NKDbgPrintfW
  01048	e3a03001	 mov         r3, #1
  0104c	e50b3020	 str         r3, [r11, #-0x20]
  01050	ea000001	 b           |$LN20@AbortTrans|
  01054		 |$LN19@AbortTrans|
  01054	e3a03000	 mov         r3, #0
  01058	e50b3020	 str         r3, [r11, #-0x20]
  0105c		 |$LN20@AbortTrans|
  0105c	eaffffff	 b           |$LN32@AbortTrans|
  01060		 |$LN32@AbortTrans|
  01060		 |$LN3@AbortTrans|

; 417  :             }
; 418  :         }
; 419  :         status = requestOK;

  01060	e3a03001	 mov         r3, #1
  01064	e50b30e4	 str         r3, [r11, #-0xE4]

; 420  :         delete pCurTransfer;

  01068	e51b30ec	 ldr         r3, [r11, #-0xEC]
  0106c	e50b3058	 str         r3, [r11, #-0x58]
  01070	e51b3058	 ldr         r3, [r11, #-0x58]
  01074	e50b305c	 str         r3, [r11, #-0x5C]
  01078	e51b305c	 ldr         r3, [r11, #-0x5C]
  0107c	e3530000	 cmp         r3, #0
  01080	0a00000a	 beq         |$LN21@AbortTrans|
  01084	e3a01001	 mov         r1, #1
  01088	e51b305c	 ldr         r3, [r11, #-0x5C]
  0108c	e5933000	 ldr         r3, [r3]
  01090	e51b005c	 ldr         r0, [r11, #-0x5C]
  01094	e5933000	 ldr         r3, [r3]
  01098	e1a0e00f	 mov         lr, pc
  0109c	e12fff13	 bx          r3
  010a0	e50b001c	 str         r0, [r11, #-0x1C]
  010a4	e51b301c	 ldr         r3, [r11, #-0x1C]
  010a8	e50b3018	 str         r3, [r11, #-0x18]
  010ac	ea000001	 b           |$LN22@AbortTrans|
  010b0		 |$LN21@AbortTrans|
  010b0	e3a03000	 mov         r3, #0
  010b4	e50b3018	 str         r3, [r11, #-0x18]
  010b8		 |$LN22@AbortTrans|

; 421  :         fCheckSchedule = TRUE;

  010b8	e3a03001	 mov         r3, #1
  010bc	e50b30e8	 str         r3, [r11, #-0xE8]
  010c0		 |$LN4@AbortTrans|

; 422  :     }
; 423  :     LeaveCriticalSection( &m_csPipeLock );

  010c0	e59b3000	 ldr         r3, [r11]
  010c4	e2830020	 add         r0, r3, #0x20
  010c8	eb000000	 bl          LeaveCriticalSection

; 424  :     if (fCheckSchedule && (m_pQueuedTransfer == NULL) ) { // This queue is no longer active. re-activate it.

  010cc	e51b30e8	 ldr         r3, [r11, #-0xE8]
  010d0	e3530000	 cmp         r3, #0
  010d4	0a00000b	 beq         |$LN1@AbortTrans|
  010d8	e59b3000	 ldr         r3, [r11]
  010dc	e283306c	 add         r3, r3, #0x6C
  010e0	e5933000	 ldr         r3, [r3]
  010e4	e3530000	 cmp         r3, #0
  010e8	1a000006	 bne         |$LN1@AbortTrans|

; 425  :             ScheduleTransfer();

  010ec	e59b3000	 ldr         r3, [r11]
  010f0	e5933000	 ldr         r3, [r3]
  010f4	e2833030	 add         r3, r3, #0x30
  010f8	e59b0000	 ldr         r0, [r11]
  010fc	e5933000	 ldr         r3, [r3]
  01100	e1a0e00f	 mov         lr, pc
  01104	e12fff13	 bx          r3
  01108		 |$LN1@AbortTrans|

; 426  :     }
; 427  : 
; 428  :     DEBUGMSG( ZONE_TRANSFER, (TEXT("-CQueuedPipe(%s)::AbortTransfer - lpvCancelId = 0x%x, returning HCD_REQUEST_STATUS %d\n"), GetPipeType(), lpvCancelId, status) );

  01108	e59f3078	 ldr         r3, [pc, #0x78]
  0110c	e5933440	 ldr         r3, [r3, #0x440]
  01110	e3130c01	 tst         r3, #1, 24
  01114	0a00000f	 beq         |$LN23@AbortTrans|
  01118	e59b3000	 ldr         r3, [r11]
  0111c	e5933000	 ldr         r3, [r3]
  01120	e2833040	 add         r3, r3, #0x40
  01124	e59b0000	 ldr         r0, [r11]
  01128	e5933000	 ldr         r3, [r3]
  0112c	e1a0e00f	 mov         lr, pc
  01130	e12fff13	 bx          r3
  01134	e50b0014	 str         r0, [r11, #-0x14]
  01138	e51b30e4	 ldr         r3, [r11, #-0xE4]
  0113c	e59b200c	 ldr         r2, [r11, #0xC]
  01140	e51b1014	 ldr         r1, [r11, #-0x14]
  01144	e59f0038	 ldr         r0, [pc, #0x38]
  01148	eb000000	 bl          NKDbgPrintfW
  0114c	e3a03001	 mov         r3, #1
  01150	e50b3010	 str         r3, [r11, #-0x10]
  01154	ea000001	 b           |$LN24@AbortTrans|
  01158		 |$LN23@AbortTrans|
  01158	e3a03000	 mov         r3, #0
  0115c	e50b3010	 str         r3, [r11, #-0x10]
  01160		 |$LN24@AbortTrans|

; 429  :     return status;

  01160	e51b30e4	 ldr         r3, [r11, #-0xE4]
  01164	e50b3054	 str         r3, [r11, #-0x54]
  01168		 |$LN25@AbortTrans|

; 430  : }

  01168	e51b0054	 ldr         r0, [r11, #-0x54]
  0116c	e24bd00c	 sub         sp, r11, #0xC
  01170	e89d6800	 ldmia       sp, {r11, sp, lr}
  01174	e12fff1e	 bx          lr

			 ENDP  ; |?AbortTransfer@CQueuedPipe@@UAA?AW4HCD_REQUEST_STATUS@@Q6AKPAX@ZQAXPBX@Z|, CQueuedPipe::AbortTransfer

  01178		 |$LN26@AbortTrans|
  01178		 |$LN35@AbortTrans|

; 415  :             } __except( EXCEPTION_EXECUTE_HANDLER ) {

  01178	e52de004	 str         lr, [sp, #-4]!
  0117c		 |$LN29@AbortTrans|
  0117c		 |$LN38@AbortTrans|
  0117c	e3a00001	 mov         r0, #1
  01180		 |$LN28@AbortTrans|
  01180	e49df004	 ldr         pc, [sp], #4
  01184		 |$LN40@AbortTrans|
  01184		 |$LN41@AbortTrans|
  01184	00000000	 DCD         |??_C@_1KO@FHDEKCOL@?$AA?9?$AAC?$AAQ?$AAu?$AAe?$AAu?$AAe?$AAd?$AAP?$AAi?$AAp?$AAe?$AA?$CI?$AA?$CF?$AAs?$AA?$CJ?$AA?3?$AA?3?$AAA?$AAb?$AAo?$AAr?$AAt?$AAT?$AAr?$AAa?$AAn?$AAs?$AAf?$AAe?$AAr?$AA?5@|
  01188		 |$LN42@AbortTrans|
  01188	00000000	 DCD         |dpCurSettings|
  0118c		 |$LN43@AbortTrans|
  0118c	00000000	 DCD         |??_C@_1KK@MJOJEDBO@?$AA?$CF?$AAs?$AA?3?$AA?5?$AAC?$AAQ?$AAu?$AAe?$AAu?$AAe?$AAd?$AAP?$AAi?$AAp?$AAe?$AA?3?$AA?3?$AAA?$AAb?$AAo?$AAr?$AAt?$AAT?$AAr?$AAa?$AAn?$AAs?$AAf?$AAe?$AAr?$AA?5?$AA?9@|
  01190		 |$LN44@AbortTrans|
  01190	00000000	 DCD         |??_C@_1FK@FNONLNGN@?$AA?$CF?$AAs?$AA?3?$AA?5?$AAD?$AAE?$AAB?$AAU?$AAG?$AAC?$AAH?$AAK?$AA?5?$AAf?$AAa?$AAi?$AAl?$AAe?$AAd?$AA?5?$AAi?$AAn?$AA?5?$AAf?$AAi?$AAl?$AAe?$AA?5?$AA?$CF?$AAs?$AA?5?$AAa@|
  01194		 |$LN45@AbortTrans|
  01194	00000000	 DCD         |??_C@_1BA@LEPJIIOK@?$AAU?$AAn?$AAk?$AAn?$AAo?$AAw?$AAn?$AA?$AA@|
  01198		 |$LN46@AbortTrans|
  01198	00000000	 DCD         |??_C@_1LK@LMPDOKKA@?$AAC?$AA?3?$AA?2?$AAW?$AAI?$AAN?$AAC?$AAE?$AA6?$AA0?$AA0?$AA?2?$AAP?$AAL?$AAA?$AAT?$AAF?$AAO?$AAR?$AAM?$AA?2?$AAC?$AAO?$AAM?$AAM?$AAO?$AAN?$AA?2?$AAS?$AAR?$AAC?$AA?2@|
  0119c		 |$LN47@AbortTrans|
  0119c	00000000	 DCD         |??_C@_1HE@CKKPODL@?$AA?$CF?$AAs?$AA?3?$AA?5?$AA?$CL?$AAC?$AAQ?$AAu?$AAe?$AAu?$AAe?$AAd?$AAP?$AAi?$AAp?$AAe?$AA?$CI?$AA?$CF?$AAs?$AA?$CJ?$AA?3?$AA?3?$AAA?$AAb?$AAo?$AAr?$AAt?$AAT?$AAr?$AAa?$AAn?$AAs@|
  011a0		 |$LN39@AbortTrans|
  011a0		 |$LN37@AbortTrans|
; File c:\wince600\platform\common\src\soc\common_ti_v1\omap3530\musb\musbhcd\musbmhdrc\ctd.h

  00000			 AREA	 |.pdata|, PDATA
|$T37819| DCD	|$LN5@InvalidNex|
	DCD	0x40000503
; Function compile flags: /Odtp

  00000			 AREA	 |.text|, CODE, ARM

  00000		 |?InvalidNextTD@CQH@@QAAXXZ| PROC	; CQH::InvalidNextTD

; 148  :     void InvalidNextTD() {;};

  00000		 |$LN5@InvalidNex|
  00000	e1a0c00d	 mov         r12, sp
  00004	e92d0001	 stmdb       sp!, {r0}
  00008	e92d5000	 stmdb       sp!, {r12, lr}
  0000c		 |$M37816|
  0000c	e89d6000	 ldmia       sp, {sp, lr}
  00010	e12fff1e	 bx          lr
  00014		 |$M37817|

			 ENDP  ; |?InvalidNextTD@CQH@@QAAXXZ|, CQH::InvalidNextTD


  00000			 AREA	 |.pdata|, PDATA
|$T37826| DCD	|$LN5@ClearTDLis|
	DCD	0x40000903
; Function compile flags: /Odtp

  00000			 AREA	 |.text|, CODE, ARM

  00000		 |?ClearTDList@CQH@@QAAXXZ| PROC	; CQH::ClearTDList

; 157  :     void ClearTDList() { m_pCQHTDList = NULL;};

  00000		 |$LN5@ClearTDLis|
  00000	e1a0c00d	 mov         r12, sp
  00004	e92d0001	 stmdb       sp!, {r0}
  00008	e92d5000	 stmdb       sp!, {r12, lr}
  0000c		 |$M37823|
  0000c	e59d3008	 ldr         r3, [sp, #8]
  00010	e2832004	 add         r2, r3, #4
  00014	e3a03000	 mov         r3, #0
  00018	e5823000	 str         r3, [r2]
  0001c	e89d6000	 ldmia       sp, {sp, lr}
  00020	e12fff1e	 bx          lr
  00024		 |$M37824|

			 ENDP  ; |?ClearTDList@CQH@@QAAXXZ|, CQH::ClearTDList

; File c:\wince600\platform\common\src\soc\common_ti_v1\omap3530\musb\musbhcd\musbmhdrc\trans.h

  00000			 AREA	 |.pdata|, PDATA
|$T37834| DCD	|$LN5@GetNextTra|
	DCD	0x40000c04
; Function compile flags: /Odtp

  00000			 AREA	 |.text|, CODE, ARM

  00000		 |?GetNextTransfer@CTransfer@@QAAPAV1@XZ| PROC ; CTransfer::GetNextTransfer

; 58   :     CTransfer * GetNextTransfer(void) { return  m_pNextTransfer; };

  00000		 |$LN5@GetNextTra|
  00000	e1a0c00d	 mov         r12, sp
  00004	e92d0001	 stmdb       sp!, {r0}
  00008	e92d5000	 stmdb       sp!, {r12, lr}
  0000c	e24dd004	 sub         sp, sp, #4
  00010		 |$M37831|
  00010	e59d300c	 ldr         r3, [sp, #0xC]
  00014	e283300c	 add         r3, r3, #0xC
  00018	e5933000	 ldr         r3, [r3]
  0001c	e58d3000	 str         r3, [sp]
  00020	e59d0000	 ldr         r0, [sp]
  00024	e28dd004	 add         sp, sp, #4
  00028	e89d6000	 ldmia       sp, {sp, lr}
  0002c	e12fff1e	 bx          lr
  00030		 |$M37832|

			 ENDP  ; |?GetNextTransfer@CTransfer@@QAAPAV1@XZ|, CTransfer::GetNextTransfer


  00000			 AREA	 |.pdata|, PDATA
|$T37841| DCD	|$LN5@SetNextTra|
	DCD	0x40000903
; Function compile flags: /Odtp

  00000			 AREA	 |.text|, CODE, ARM

  00000		 |?SetNextTransfer@CTransfer@@QAAXPAV1@@Z| PROC ; CTransfer::SetNextTransfer

; 59   :     void SetNextTransfer(CTransfer * pNext) {  m_pNextTransfer= pNext; };

  00000		 |$LN5@SetNextTra|
  00000	e1a0c00d	 mov         r12, sp
  00004	e92d0003	 stmdb       sp!, {r0, r1}
  00008	e92d5000	 stmdb       sp!, {r12, lr}
  0000c		 |$M37838|
  0000c	e59d3008	 ldr         r3, [sp, #8]
  00010	e283200c	 add         r2, r3, #0xC
  00014	e59d300c	 ldr         r3, [sp, #0xC]
  00018	e5823000	 str         r3, [r2]
  0001c	e89d6000	 ldmia       sp, {sp, lr}
  00020	e12fff1e	 bx          lr
  00024		 |$M37839|

			 ENDP  ; |?SetNextTransfer@CTransfer@@QAAXPAV1@@Z|, CTransfer::SetNextTransfer


  00000			 AREA	 |.pdata|, PDATA
|$T37849| DCD	|$LN5@GetSTransf|
	DCD	0x40000f04
; Function compile flags: /Odtp

  00000			 AREA	 |.text|, CODE, ARM

  00000		 |?GetSTransfer@CTransfer@@QAA?AUSTRANSFER@@XZ| PROC ; CTransfer::GetSTransfer

; 62   :     STransfer GetSTransfer () { return m_sTransfer; };

  00000		 |$LN5@GetSTransf|
  00000	e1a0c00d	 mov         r12, sp
  00004	e92d0003	 stmdb       sp!, {r0, r1}
  00008	e92d5000	 stmdb       sp!, {r12, lr}
  0000c	e24dd004	 sub         sp, sp, #4
  00010		 |$M37846|
  00010	e59d300c	 ldr         r3, [sp, #0xC]
  00014	e283101c	 add         r1, r3, #0x1C
  00018	e59d0010	 ldr         r0, [sp, #0x10]
  0001c	e3a02040	 mov         r2, #0x40
  00020	eb000000	 bl          memcpy
  00024	e59d3010	 ldr         r3, [sp, #0x10]
  00028	e58d3000	 str         r3, [sp]
  0002c	e59d0000	 ldr         r0, [sp]
  00030	e28dd004	 add         sp, sp, #4
  00034	e89d6000	 ldmia       sp, {sp, lr}
  00038	e12fff1e	 bx          lr
  0003c		 |$M37847|

			 ENDP  ; |?GetSTransfer@CTransfer@@QAA?AUSTRANSFER@@XZ|, CTransfer::GetSTransfer

	EXPORT	|??_C@_1EO@PECCOKKN@?$AA?$CF?$AAs?$AA?3?$AA?5?$AA?9?$AAC?$AAQ?$AAu?$AAe?$AAu?$AAe?$AAd?$AAP?$AAi?$AAp?$AAe?$AA?$CI?$AA?$CF?$AAs?$AA?$CJ?$AA?3?$AA?3?$AAC?$AAl?$AAe?$AAa?$AAr?$AAH?$AAa?$AAl?$AAt?$AAe@| [ DATA ] ; `string'
	EXPORT	|??_C@_1JI@BHBKMHCH@?$AA?$CF?$AAs?$AA?3?$AA?5?$AAC?$AAQ?$AAu?$AAe?$AAu?$AAe?$AAd?$AAP?$AAi?$AAp?$AAe?$AA?$CI?$AA?$CF?$AAs?$AA?$CJ?$AA?3?$AA?3?$AAC?$AAl?$AAe?$AAa?$AAr?$AAH?$AAa?$AAl?$AAt?$AAe?$AAd@| [ DATA ] ; `string'
	EXPORT	|??_C@_1EO@PIAHHNJG@?$AA?$CF?$AAs?$AA?3?$AA?5?$AA?$CL?$AAC?$AAQ?$AAu?$AAe?$AAu?$AAe?$AAd?$AAP?$AAi?$AAp?$AAe?$AA?$CI?$AA?$CF?$AAs?$AA?$CJ?$AA?3?$AA?3?$AAC?$AAl?$AAe?$AAa?$AAr?$AAH?$AAa?$AAl?$AAt?$AAe@| [ DATA ] ; `string'

  00068			 AREA	 |.pdata|, PDATA
|$T37862| DCD	|$LN11@ClearHalte@2|
	DCD	0x40006a04
; File c:\wince600\platform\common\src\soc\common_ti_v1\omap3530\musb\musbhcd\musbmhdrc\cpipe.cpp

  00000			 AREA	 |.rdata|, DATA, READONLY
|??_C@_1EO@PECCOKKN@?$AA?$CF?$AAs?$AA?3?$AA?5?$AA?9?$AAC?$AAQ?$AAu?$AAe?$AAu?$AAe?$AAd?$AAP?$AAi?$AAp?$AAe?$AA?$CI?$AA?$CF?$AAs?$AA?$CJ?$AA?3?$AA?3?$AAC?$AAl?$AAe?$AAa?$AAr?$AAH?$AAa?$AAl?$AAt?$AAe@| DCB "%"
	DCB	0x0, "s", 0x0, ":", 0x0, " ", 0x0, "-", 0x0, "C", 0x0, "Q"
	DCB	0x0, "u", 0x0, "e", 0x0, "u", 0x0, "e", 0x0, "d", 0x0, "P"
	DCB	0x0, "i", 0x0, "p", 0x0, "e", 0x0, "(", 0x0, "%", 0x0, "s"
	DCB	0x0, ")", 0x0, ":", 0x0, ":", 0x0, "C", 0x0, "l", 0x0, "e"
	DCB	0x0, "a", 0x0, "r", 0x0, "H", 0x0, "a", 0x0, "l", 0x0, "t"
	DCB	0x0, "e", 0x0, "d", 0x0, "F", 0x0, "l", 0x0, "a", 0x0, "g"
	DCB	0x0, 0xa, 0x0, 0x0, 0x0			; `string'

  00000			 AREA	 |.rdata|, DATA, READONLY
|??_C@_1JI@BHBKMHCH@?$AA?$CF?$AAs?$AA?3?$AA?5?$AAC?$AAQ?$AAu?$AAe?$AAu?$AAe?$AAd?$AAP?$AAi?$AAp?$AAe?$AA?$CI?$AA?$CF?$AAs?$AA?$CJ?$AA?3?$AA?3?$AAC?$AAl?$AAe?$AAa?$AAr?$AAH?$AAa?$AAl?$AAt?$AAe?$AAd@| DCB "%"
	DCB	0x0, "s", 0x0, ":", 0x0, " ", 0x0, "C", 0x0, "Q", 0x0, "u"
	DCB	0x0, "e", 0x0, "u", 0x0, "e", 0x0, "d", 0x0, "P", 0x0, "i"
	DCB	0x0, "p", 0x0, "e", 0x0, "(", 0x0, "%", 0x0, "s", 0x0, ")"
	DCB	0x0, ":", 0x0, ":", 0x0, "C", 0x0, "l", 0x0, "e", 0x0, "a"
	DCB	0x0, "r", 0x0, "H", 0x0, "a", 0x0, "l", 0x0, "t", 0x0, "e"
	DCB	0x0, "d", 0x0, "F", 0x0, "l", 0x0, "a", 0x0, "g", 0x0, " "
	DCB	0x0, "-", 0x0, " ", 0x0, "w", 0x0, "a", 0x0, "r", 0x0, "n"
	DCB	0x0, "i", 0x0, "n", 0x0, "g", 0x0, "!", 0x0, " ", 0x0, "C"
	DCB	0x0, "a", 0x0, "l", 0x0, "l", 0x0, "e", 0x0, "d", 0x0, " "
	DCB	0x0, "o", 0x0, "n", 0x0, " ", 0x0, "n", 0x0, "o", 0x0, "n"
	DCB	0x0, "-", 0x0, "s", 0x0, "t", 0x0, "a", 0x0, "l", 0x0, "l"
	DCB	0x0, "e", 0x0, "d", 0x0, " ", 0x0, "p", 0x0, "i", 0x0, "p"
	DCB	0x0, "e", 0x0, 0xa, 0x0, 0x0, 0x0	; `string'

  00000			 AREA	 |.rdata|, DATA, READONLY
|??_C@_1EO@PIAHHNJG@?$AA?$CF?$AAs?$AA?3?$AA?5?$AA?$CL?$AAC?$AAQ?$AAu?$AAe?$AAu?$AAe?$AAd?$AAP?$AAi?$AAp?$AAe?$AA?$CI?$AA?$CF?$AAs?$AA?$CJ?$AA?3?$AA?3?$AAC?$AAl?$AAe?$AAa?$AAr?$AAH?$AAa?$AAl?$AAt?$AAe@| DCB "%"
	DCB	0x0, "s", 0x0, ":", 0x0, " ", 0x0, "+", 0x0, "C", 0x0, "Q"
	DCB	0x0, "u", 0x0, "e", 0x0, "u", 0x0, "e", 0x0, "d", 0x0, "P"
	DCB	0x0, "i", 0x0, "p", 0x0, "e", 0x0, "(", 0x0, "%", 0x0, "s"
	DCB	0x0, ")", 0x0, ":", 0x0, ":", 0x0, "C", 0x0, "l", 0x0, "e"
	DCB	0x0, "a", 0x0, "r", 0x0, "H", 0x0, "a", 0x0, "l", 0x0, "t"
	DCB	0x0, "e", 0x0, "d", 0x0, "F", 0x0, "l", 0x0, "a", 0x0, "g"
	DCB	0x0, 0xa, 0x0, 0x0, 0x0			; `string'
; Function compile flags: /Odtp

  011a0			 AREA	 |.text|, CODE, ARM

  011a0		 |?ClearHaltedFlag@CQueuedPipe@@UAAXXZ| PROC ; CQueuedPipe::ClearHaltedFlag

; 441  : {

  011a0		 |$LN11@ClearHalte@2|
  011a0	e1a0c00d	 mov         r12, sp
  011a4	e92d0001	 stmdb       sp!, {r0}
  011a8	e92d5000	 stmdb       sp!, {r12, lr}
  011ac	e24dd024	 sub         sp, sp, #0x24
  011b0		 |$M37859|

; 442  :     DEBUGMSG( ZONE_PIPE && ZONE_VERBOSE, (TEXT("%s: +CQueuedPipe(%s)::ClearHaltedFlag\n"),GetControllerName(), GetPipeType() ) );

  011b0	e59f3184	 ldr         r3, [pc, #0x184]
  011b4	e5933440	 ldr         r3, [r3, #0x440]
  011b8	e3130080	 tst         r3, #0x80
  011bc	0a000015	 beq         |$LN3@ClearHalte@2|
  011c0	e59f3174	 ldr         r3, [pc, #0x174]
  011c4	e5933440	 ldr         r3, [r3, #0x440]
  011c8	e3130a01	 tst         r3, #1, 20
  011cc	0a000011	 beq         |$LN3@ClearHalte@2|
  011d0	e59d302c	 ldr         r3, [sp, #0x2C]
  011d4	e5933000	 ldr         r3, [r3]
  011d8	e2833040	 add         r3, r3, #0x40
  011dc	e59d002c	 ldr         r0, [sp, #0x2C]
  011e0	e5933000	 ldr         r3, [r3]
  011e4	e1a0e00f	 mov         lr, pc
  011e8	e12fff13	 bx          r3
  011ec	e58d0000	 str         r0, [sp]
  011f0	e59d002c	 ldr         r0, [sp, #0x2C]
  011f4	eb000000	 bl          |?GetControllerName@CPipe@@QBAPBGXZ|
  011f8	e58d0004	 str         r0, [sp, #4]
  011fc	e59d2000	 ldr         r2, [sp]
  01200	e59d1004	 ldr         r1, [sp, #4]
  01204	e59f0138	 ldr         r0, [pc, #0x138]
  01208	eb000000	 bl          NKDbgPrintfW
  0120c	e3a03001	 mov         r3, #1
  01210	e58d3008	 str         r3, [sp, #8]
  01214	ea000001	 b           |$LN4@ClearHalte@2|
  01218		 |$LN3@ClearHalte@2|
  01218	e3a03000	 mov         r3, #0
  0121c	e58d3008	 str         r3, [sp, #8]
  01220		 |$LN4@ClearHalte@2|

; 443  : 
; 444  :     EnterCriticalSection( &m_csPipeLock );

  01220	e59d302c	 ldr         r3, [sp, #0x2C]
  01224	e2830020	 add         r0, r3, #0x20
  01228	eb000000	 bl          EnterCriticalSection

; 445  :     DEBUGMSG( ZONE_WARNING && !m_fIsHalted, (TEXT("%s: CQueuedPipe(%s)::ClearHaltedFlag - warning! Called on non-stalled pipe\n"),GetControllerName(), GetPipeType()) );

  0122c	e59f3108	 ldr         r3, [pc, #0x108]
  01230	e5933440	 ldr         r3, [r3, #0x440]
  01234	e3130a02	 tst         r3, #2, 20
  01238	0a000016	 beq         |$LN5@ClearHalte@2|
  0123c	e59d302c	 ldr         r3, [sp, #0x2C]
  01240	e2833044	 add         r3, r3, #0x44
  01244	e5933000	 ldr         r3, [r3]
  01248	e3530000	 cmp         r3, #0
  0124c	1a000011	 bne         |$LN5@ClearHalte@2|
  01250	e59d302c	 ldr         r3, [sp, #0x2C]
  01254	e5933000	 ldr         r3, [r3]
  01258	e2833040	 add         r3, r3, #0x40
  0125c	e59d002c	 ldr         r0, [sp, #0x2C]
  01260	e5933000	 ldr         r3, [r3]
  01264	e1a0e00f	 mov         lr, pc
  01268	e12fff13	 bx          r3
  0126c	e58d000c	 str         r0, [sp, #0xC]
  01270	e59d002c	 ldr         r0, [sp, #0x2C]
  01274	eb000000	 bl          |?GetControllerName@CPipe@@QBAPBGXZ|
  01278	e58d0010	 str         r0, [sp, #0x10]
  0127c	e59d200c	 ldr         r2, [sp, #0xC]
  01280	e59d1010	 ldr         r1, [sp, #0x10]
  01284	e59f00b4	 ldr         r0, [pc, #0xB4]
  01288	eb000000	 bl          NKDbgPrintfW
  0128c	e3a03001	 mov         r3, #1
  01290	e58d3014	 str         r3, [sp, #0x14]
  01294	ea000001	 b           |$LN6@ClearHalte@2|
  01298		 |$LN5@ClearHalte@2|
  01298	e3a03000	 mov         r3, #0
  0129c	e58d3014	 str         r3, [sp, #0x14]
  012a0		 |$LN6@ClearHalte@2|

; 446  :     m_fIsHalted = FALSE;

  012a0	e59d302c	 ldr         r3, [sp, #0x2C]
  012a4	e2832044	 add         r2, r3, #0x44
  012a8	e3a03000	 mov         r3, #0
  012ac	e5823000	 str         r3, [r2]

; 447  :     
; 448  :     LeaveCriticalSection( &m_csPipeLock );

  012b0	e59d302c	 ldr         r3, [sp, #0x2C]
  012b4	e2830020	 add         r0, r3, #0x20
  012b8	eb000000	 bl          LeaveCriticalSection

; 449  : 
; 450  :     DEBUGMSG( ZONE_PIPE && ZONE_VERBOSE, (TEXT("%s: -CQueuedPipe(%s)::ClearHaltedFlag\n"),GetControllerName(), GetPipeType()) );

  012bc	e59f3078	 ldr         r3, [pc, #0x78]
  012c0	e5933440	 ldr         r3, [r3, #0x440]
  012c4	e3130080	 tst         r3, #0x80
  012c8	0a000015	 beq         |$LN7@ClearHalte@2|
  012cc	e59f3068	 ldr         r3, [pc, #0x68]
  012d0	e5933440	 ldr         r3, [r3, #0x440]
  012d4	e3130a01	 tst         r3, #1, 20
  012d8	0a000011	 beq         |$LN7@ClearHalte@2|
  012dc	e59d302c	 ldr         r3, [sp, #0x2C]
  012e0	e5933000	 ldr         r3, [r3]
  012e4	e2833040	 add         r3, r3, #0x40
  012e8	e59d002c	 ldr         r0, [sp, #0x2C]
  012ec	e5933000	 ldr         r3, [r3]
  012f0	e1a0e00f	 mov         lr, pc
  012f4	e12fff13	 bx          r3
  012f8	e58d0018	 str         r0, [sp, #0x18]
  012fc	e59d002c	 ldr         r0, [sp, #0x2C]
  01300	eb000000	 bl          |?GetControllerName@CPipe@@QBAPBGXZ|
  01304	e58d001c	 str         r0, [sp, #0x1C]
  01308	e59d2018	 ldr         r2, [sp, #0x18]
  0130c	e59d101c	 ldr         r1, [sp, #0x1C]
  01310	e59f0020	 ldr         r0, [pc, #0x20]
  01314	eb000000	 bl          NKDbgPrintfW
  01318	e3a03001	 mov         r3, #1
  0131c	e58d3020	 str         r3, [sp, #0x20]
  01320	ea000001	 b           |$LN8@ClearHalte@2|
  01324		 |$LN7@ClearHalte@2|
  01324	e3a03000	 mov         r3, #0
  01328	e58d3020	 str         r3, [sp, #0x20]
  0132c		 |$LN8@ClearHalte@2|

; 451  : }

  0132c	e28dd024	 add         sp, sp, #0x24
  01330	e89d6000	 ldmia       sp, {sp, lr}
  01334	e12fff1e	 bx          lr
  01338		 |$LN12@ClearHalte@2|
  01338		 |$LN13@ClearHalte@2|
  01338	00000000	 DCD         |??_C@_1EO@PECCOKKN@?$AA?$CF?$AAs?$AA?3?$AA?5?$AA?9?$AAC?$AAQ?$AAu?$AAe?$AAu?$AAe?$AAd?$AAP?$AAi?$AAp?$AAe?$AA?$CI?$AA?$CF?$AAs?$AA?$CJ?$AA?3?$AA?3?$AAC?$AAl?$AAe?$AAa?$AAr?$AAH?$AAa?$AAl?$AAt?$AAe@|
  0133c		 |$LN14@ClearHalte@2|
  0133c	00000000	 DCD         |dpCurSettings|
  01340		 |$LN15@ClearHalte@2|
  01340	00000000	 DCD         |??_C@_1JI@BHBKMHCH@?$AA?$CF?$AAs?$AA?3?$AA?5?$AAC?$AAQ?$AAu?$AAe?$AAu?$AAe?$AAd?$AAP?$AAi?$AAp?$AAe?$AA?$CI?$AA?$CF?$AAs?$AA?$CJ?$AA?3?$AA?3?$AAC?$AAl?$AAe?$AAa?$AAr?$AAH?$AAa?$AAl?$AAt?$AAe?$AAd@|
  01344		 |$LN16@ClearHalte@2|
  01344	00000000	 DCD         |??_C@_1EO@PIAHHNJG@?$AA?$CF?$AAs?$AA?3?$AA?5?$AA?$CL?$AAC?$AAQ?$AAu?$AAe?$AAu?$AAe?$AAd?$AAP?$AAi?$AAp?$AAe?$AA?$CI?$AA?$CF?$AAs?$AA?$CJ?$AA?3?$AA?3?$AAC?$AAl?$AAe?$AAa?$AAr?$AAH?$AAa?$AAl?$AAt?$AAe@|
  01348		 |$M37860|

			 ENDP  ; |?ClearHaltedFlag@CQueuedPipe@@UAAXXZ|, CQueuedPipe::ClearHaltedFlag

	EXPORT	|??_C@_1EO@BBHOPFHG@?$AA?$CF?$AAs?$AA?3?$AA?5?$AA?9?$AAC?$AAQ?$AAu?$AAe?$AAu?$AAe?$AAd?$AAP?$AAi?$AAp?$AAe?$AA?$CI?$AA?$CF?$AAs?$AA?$CJ?$AA?3?$AA?3?$AAA?$AAb?$AAo?$AAr?$AAt?$AAQ?$AAu?$AAe?$AAu?$AAe@| [ DATA ] ; `string'
	EXPORT	|??_C@_1BK@MICGADHL@?$AAA?$AAb?$AAo?$AAr?$AAt?$AAQ?$AAu?$AAe?$AAu?$AAe?$AA?$AN?$AA?6?$AA?$AA@| [ DATA ] ; `string'
	EXPORT	|??_C@_1EG@MLMOFGFI@?$AA?$CF?$AAs?$AA?3?$AA?5?$AA?$CL?$AAC?$AAQ?$AAu?$AAe?$AAu?$AAe?$AAd?$AAP?$AAi?$AAp?$AAe?$AA?$CI?$AA?$CF?$AAs?$AA?$CJ?$AA?3?$AA?3?$AAA?$AAb?$AAo?$AAr?$AAt?$AAQ?$AAu?$AAe?$AAu?$AAe@| [ DATA ] ; `string'
	EXPORT	|?AbortQueue@CQueuedPipe@@IAAXXZ|	; CQueuedPipe::AbortQueue

  00070			 AREA	 |.pdata|, PDATA
|$T37890| DCD	|$LN23@AbortQueue|
	DCD	0x4000e104

  00000			 AREA	 |.rdata|, DATA, READONLY
|??_C@_1EO@BBHOPFHG@?$AA?$CF?$AAs?$AA?3?$AA?5?$AA?9?$AAC?$AAQ?$AAu?$AAe?$AAu?$AAe?$AAd?$AAP?$AAi?$AAp?$AAe?$AA?$CI?$AA?$CF?$AAs?$AA?$CJ?$AA?3?$AA?3?$AAA?$AAb?$AAo?$AAr?$AAt?$AAQ?$AAu?$AAe?$AAu?$AAe@| DCB "%"
	DCB	0x0, "s", 0x0, ":", 0x0, " ", 0x0, "-", 0x0, "C", 0x0, "Q"
	DCB	0x0, "u", 0x0, "e", 0x0, "u", 0x0, "e", 0x0, "d", 0x0, "P"
	DCB	0x0, "i", 0x0, "p", 0x0, "e", 0x0, "(", 0x0, "%", 0x0, "s"
	DCB	0x0, ")", 0x0, ":", 0x0, ":", 0x0, "A", 0x0, "b", 0x0, "o"
	DCB	0x0, "r", 0x0, "t", 0x0, "Q", 0x0, "u", 0x0, "e", 0x0, "u"
	DCB	0x0, "e", 0x0, " ", 0x0, "-", 0x0, " ", 0x0, "%", 0x0, "d"
	DCB	0x0, 0xa, 0x0, 0x0, 0x0			; `string'

  00000			 AREA	 |.rdata|, DATA, READONLY
|??_C@_1BK@MICGADHL@?$AAA?$AAb?$AAo?$AAr?$AAt?$AAQ?$AAu?$AAe?$AAu?$AAe?$AA?$AN?$AA?6?$AA?$AA@| DCB "A"
	DCB	0x0, "b", 0x0, "o", 0x0, "r", 0x0, "t", 0x0, "Q", 0x0, "u"
	DCB	0x0, "e", 0x0, "u", 0x0, "e", 0x0, 0xd, 0x0, 0xa, 0x0, 0x0
	DCB	0x0					; `string'

  00000			 AREA	 |.rdata|, DATA, READONLY
|??_C@_1EG@MLMOFGFI@?$AA?$CF?$AAs?$AA?3?$AA?5?$AA?$CL?$AAC?$AAQ?$AAu?$AAe?$AAu?$AAe?$AAd?$AAP?$AAi?$AAp?$AAe?$AA?$CI?$AA?$CF?$AAs?$AA?$CJ?$AA?3?$AA?3?$AAA?$AAb?$AAo?$AAr?$AAt?$AAQ?$AAu?$AAe?$AAu?$AAe@| DCB "%"
	DCB	0x0, "s", 0x0, ":", 0x0, " ", 0x0, "+", 0x0, "C", 0x0, "Q"
	DCB	0x0, "u", 0x0, "e", 0x0, "u", 0x0, "e", 0x0, "d", 0x0, "P"
	DCB	0x0, "i", 0x0, "p", 0x0, "e", 0x0, "(", 0x0, "%", 0x0, "s"
	DCB	0x0, ")", 0x0, ":", 0x0, ":", 0x0, "A", 0x0, "b", 0x0, "o"
	DCB	0x0, "r", 0x0, "t", 0x0, "Q", 0x0, "u", 0x0, "e", 0x0, "u"
	DCB	0x0, "e", 0x0, " ", 0x0, 0xa, 0x0, 0x0, 0x0 ; `string'
; Function compile flags: /Odtp

  01348			 AREA	 |.text|, CODE, ARM

  01348		 |?AbortQueue@CQueuedPipe@@IAAXXZ| PROC	; CQueuedPipe::AbortQueue

; 464  : {

  01348		 |$LN23@AbortQueue|
  01348	e1a0c00d	 mov         r12, sp
  0134c	e92d0001	 stmdb       sp!, {r0}
  01350	e92d5000	 stmdb       sp!, {r12, lr}
  01354	e24dd054	 sub         sp, sp, #0x54
  01358		 |$M37887|

; 465  :     DEBUGMSG( ZONE_TRANSFER, (TEXT("%s: +CQueuedPipe(%s)::AbortQueue \n"),GetControllerName(), GetPipeType()) );

  01358	e59f3354	 ldr         r3, [pc, #0x354]
  0135c	e5933440	 ldr         r3, [r3, #0x440]
  01360	e3130c01	 tst         r3, #1, 24
  01364	0a000011	 beq         |$LN7@AbortQueue|
  01368	e59d305c	 ldr         r3, [sp, #0x5C]
  0136c	e5933000	 ldr         r3, [r3]
  01370	e2833040	 add         r3, r3, #0x40
  01374	e59d005c	 ldr         r0, [sp, #0x5C]
  01378	e5933000	 ldr         r3, [r3]
  0137c	e1a0e00f	 mov         lr, pc
  01380	e12fff13	 bx          r3
  01384	e58d0014	 str         r0, [sp, #0x14]
  01388	e59d005c	 ldr         r0, [sp, #0x5C]
  0138c	eb000000	 bl          |?GetControllerName@CPipe@@QBAPBGXZ|
  01390	e58d0018	 str         r0, [sp, #0x18]
  01394	e59d2014	 ldr         r2, [sp, #0x14]
  01398	e59d1018	 ldr         r1, [sp, #0x18]
  0139c	e59f0324	 ldr         r0, [pc, #0x324]
  013a0	eb000000	 bl          NKDbgPrintfW
  013a4	e3a03001	 mov         r3, #1
  013a8	e58d301c	 str         r3, [sp, #0x1C]
  013ac	ea000001	 b           |$LN8@AbortQueue|
  013b0		 |$LN7@AbortQueue|
  013b0	e3a03000	 mov         r3, #0
  013b4	e58d301c	 str         r3, [sp, #0x1C]
  013b8		 |$LN8@AbortQueue|

; 466  :     EnterCriticalSection( &m_csPipeLock );

  013b8	e59d305c	 ldr         r3, [sp, #0x5C]
  013bc	e2830020	 add         r0, r3, #0x20
  013c0	eb000000	 bl          EnterCriticalSection

; 467  :     if ( m_pUnQueuedTransfer) {      // ptr to last transfer in queue

  013c4	e59d305c	 ldr         r3, [sp, #0x5C]
  013c8	e2833068	 add         r3, r3, #0x68
  013cc	e5933000	 ldr         r3, [r3]
  013d0	e3530000	 cmp         r3, #0
  013d4	0a00002e	 beq         |$LN4@AbortQueue|
  013d8		 |$LN3@AbortQueue|

; 468  :         while ( m_pUnQueuedTransfer) {

  013d8	e59d305c	 ldr         r3, [sp, #0x5C]
  013dc	e2833068	 add         r3, r3, #0x68
  013e0	e5933000	 ldr         r3, [r3]
  013e4	e3530000	 cmp         r3, #0
  013e8	0a000029	 beq         |$LN2@AbortQueue|

; 469  :             m_pUnQueuedTransfer ->AbortTransfer();

  013ec	e59d305c	 ldr         r3, [sp, #0x5C]
  013f0	e2833068	 add         r3, r3, #0x68
  013f4	e5930000	 ldr         r0, [r3]
  013f8	eb000000	 bl          |?AbortTransfer@CQTransfer@@QAAHXZ|

; 470  :             m_pUnQueuedTransfer ->DoneTransfer();

  013fc	e59d305c	 ldr         r3, [sp, #0x5C]
  01400	e2833068	 add         r3, r3, #0x68
  01404	e5930000	 ldr         r0, [r3]
  01408	eb000000	 bl          |?DoneTransfer@CQTransfer@@QAAHXZ|

; 471  :             CQTransfer * pCurTransfer= (CQTransfer *) m_pUnQueuedTransfer->GetNextTransfer();

  0140c	e59d305c	 ldr         r3, [sp, #0x5C]
  01410	e2833068	 add         r3, r3, #0x68
  01414	e5930000	 ldr         r0, [r3]
  01418	eb000000	 bl          |?GetNextTransfer@CTransfer@@QAAPAV1@XZ|
  0141c	e58d0020	 str         r0, [sp, #0x20]
  01420	e59d3020	 ldr         r3, [sp, #0x20]
  01424	e58d3000	 str         r3, [sp]

; 472  :             delete m_pUnQueuedTransfer;

  01428	e59d305c	 ldr         r3, [sp, #0x5C]
  0142c	e2833068	 add         r3, r3, #0x68
  01430	e5933000	 ldr         r3, [r3]
  01434	e58d3008	 str         r3, [sp, #8]
  01438	e59d3008	 ldr         r3, [sp, #8]
  0143c	e58d3004	 str         r3, [sp, #4]
  01440	e59d3004	 ldr         r3, [sp, #4]
  01444	e3530000	 cmp         r3, #0
  01448	0a00000a	 beq         |$LN9@AbortQueue|
  0144c	e3a01001	 mov         r1, #1
  01450	e59d3004	 ldr         r3, [sp, #4]
  01454	e5933000	 ldr         r3, [r3]
  01458	e59d0004	 ldr         r0, [sp, #4]
  0145c	e5933000	 ldr         r3, [r3]
  01460	e1a0e00f	 mov         lr, pc
  01464	e12fff13	 bx          r3
  01468	e58d0024	 str         r0, [sp, #0x24]
  0146c	e59d3024	 ldr         r3, [sp, #0x24]
  01470	e58d3028	 str         r3, [sp, #0x28]
  01474	ea000001	 b           |$LN10@AbortQueue|
  01478		 |$LN9@AbortQueue|
  01478	e3a03000	 mov         r3, #0
  0147c	e58d3028	 str         r3, [sp, #0x28]
  01480		 |$LN10@AbortQueue|

; 473  :             m_pUnQueuedTransfer = pCurTransfer;

  01480	e59d305c	 ldr         r3, [sp, #0x5C]
  01484	e2832068	 add         r2, r3, #0x68
  01488	e59d3000	 ldr         r3, [sp]
  0148c	e5823000	 str         r3, [r2]

; 474  :         }       

  01490	eaffffd0	 b           |$LN3@AbortQueue|
  01494		 |$LN2@AbortQueue|
  01494		 |$LN4@AbortQueue|

; 475  :     }
; 476  :     ASSERT( m_pUnQueuedTransfer == NULL);

  01494	e59d305c	 ldr         r3, [sp, #0x5C]
  01498	e2833068	 add         r3, r3, #0x68
  0149c	e5933000	 ldr         r3, [r3]
  014a0	e3530000	 cmp         r3, #0
  014a4	1a000002	 bne         |$LN11@AbortQueue|
  014a8	e3a03001	 mov         r3, #1
  014ac	e58d302c	 str         r3, [sp, #0x2C]
  014b0	ea000007	 b           |$LN12@AbortQueue|
  014b4		 |$LN11@AbortQueue|
  014b4	e3a03f77	 mov         r3, #0x77, 30
  014b8	e59f2200	 ldr         r2, [pc, #0x200]
  014bc	e59f11f8	 ldr         r1, [pc, #0x1F8]
  014c0	e59f01f0	 ldr         r0, [pc, #0x1F0]
  014c4	eb000000	 bl          NKDbgPrintfW
  014c8	e6000010	 __debugbreak_ce
  014cc	e3a03000	 mov         r3, #0
  014d0	e58d302c	 str         r3, [sp, #0x2C]
  014d4		 |$LN12@AbortQueue|

; 477  :     if (m_pQueuedTransfer) {

  014d4	e59d305c	 ldr         r3, [sp, #0x5C]
  014d8	e283306c	 add         r3, r3, #0x6C
  014dc	e5933000	 ldr         r3, [r3]
  014e0	e3530000	 cmp         r3, #0
  014e4	0a000042	 beq         |$LN1@AbortQueue|

; 478  :         RETAILMSG(1, (TEXT("AbortQueue\r\n")));

  014e8	e59f01d4	 ldr         r0, [pc, #0x1D4]
  014ec	eb000000	 bl          NKDbgPrintfW
  014f0	e3a03001	 mov         r3, #1
  014f4	e58d3030	 str         r3, [sp, #0x30]
  014f8	ea000001	 b           |$LN14@AbortQueue|
  014fc	e3a03000	 mov         r3, #0
  01500	e58d3030	 str         r3, [sp, #0x30]
  01504		 |$LN14@AbortQueue|

; 479  :         m_pQueuedTransfer;
; 480  :         m_pQueuedTransfer ->AbortTransfer();

  01504	e59d305c	 ldr         r3, [sp, #0x5C]
  01508	e283306c	 add         r3, r3, #0x6C
  0150c	e5930000	 ldr         r0, [r3]
  01510	eb000000	 bl          |?AbortTransfer@CQTransfer@@QAAHXZ|

; 481  :         GetQHead()->InvalidNextTD();  

  01514	e59d305c	 ldr         r3, [sp, #0x5C]
  01518	e5933000	 ldr         r3, [r3]
  0151c	e2833044	 add         r3, r3, #0x44
  01520	e59d005c	 ldr         r0, [sp, #0x5C]
  01524	e5933000	 ldr         r3, [r3]
  01528	e1a0e00f	 mov         lr, pc
  0152c	e12fff13	 bx          r3
  01530	e58d0034	 str         r0, [sp, #0x34]
  01534	e59d0034	 ldr         r0, [sp, #0x34]
  01538	eb000000	 bl          |?InvalidNextTD@CQH@@QAAXXZ|

; 482  :         Sleep(2);// this sleep is for Interrupt Pipe;

  0153c	e3a00002	 mov         r0, #2
  01540	eb000000	 bl          Sleep

; 483  :         m_pQueuedTransfer->DoneTransfer();

  01544	e59d305c	 ldr         r3, [sp, #0x5C]
  01548	e283306c	 add         r3, r3, #0x6C
  0154c	e5930000	 ldr         r0, [r3]
  01550	eb000000	 bl          |?DoneTransfer@CQTransfer@@QAAHXZ|

; 484  :         m_pQueuedTransfer =  NULL;

  01554	e59d305c	 ldr         r3, [sp, #0x5C]
  01558	e283206c	 add         r2, r3, #0x6C
  0155c	e3a03000	 mov         r3, #0
  01560	e5823000	 str         r3, [r2]

; 485  :         delete m_pQueuedTransfer;

  01564	e59d305c	 ldr         r3, [sp, #0x5C]
  01568	e283306c	 add         r3, r3, #0x6C
  0156c	e5933000	 ldr         r3, [r3]
  01570	e58d3010	 str         r3, [sp, #0x10]
  01574	e59d3010	 ldr         r3, [sp, #0x10]
  01578	e58d300c	 str         r3, [sp, #0xC]
  0157c	e59d300c	 ldr         r3, [sp, #0xC]
  01580	e3530000	 cmp         r3, #0
  01584	0a00000a	 beq         |$LN15@AbortQueue|
  01588	e3a01001	 mov         r1, #1
  0158c	e59d300c	 ldr         r3, [sp, #0xC]
  01590	e5933000	 ldr         r3, [r3]
  01594	e59d000c	 ldr         r0, [sp, #0xC]
  01598	e5933000	 ldr         r3, [r3]
  0159c	e1a0e00f	 mov         lr, pc
  015a0	e12fff13	 bx          r3
  015a4	e58d0038	 str         r0, [sp, #0x38]
  015a8	e59d3038	 ldr         r3, [sp, #0x38]
  015ac	e58d303c	 str         r3, [sp, #0x3C]
  015b0	ea000001	 b           |$LN16@AbortQueue|
  015b4		 |$LN15@AbortQueue|
  015b4	e3a03000	 mov         r3, #0
  015b8	e58d303c	 str         r3, [sp, #0x3C]
  015bc		 |$LN16@AbortQueue|

; 486  :         m_pQueuedTransfer = NULL;        

  015bc	e59d305c	 ldr         r3, [sp, #0x5C]
  015c0	e283206c	 add         r2, r3, #0x6C
  015c4	e3a03000	 mov         r3, #0
  015c8	e5823000	 str         r3, [r2]

; 487  :         GetQHead()->ClearTDList();

  015cc	e59d305c	 ldr         r3, [sp, #0x5C]
  015d0	e5933000	 ldr         r3, [r3]
  015d4	e2833044	 add         r3, r3, #0x44
  015d8	e59d005c	 ldr         r0, [sp, #0x5C]
  015dc	e5933000	 ldr         r3, [r3]
  015e0	e1a0e00f	 mov         lr, pc
  015e4	e12fff13	 bx          r3
  015e8	e58d0040	 str         r0, [sp, #0x40]
  015ec	e59d0040	 ldr         r0, [sp, #0x40]
  015f0	eb000000	 bl          |?ClearTDList@CQH@@QAAXXZ|
  015f4		 |$LN1@AbortQueue|

; 488  :     }
; 489  :     ASSERT(m_pQueuedTransfer == NULL);

  015f4	e59d305c	 ldr         r3, [sp, #0x5C]
  015f8	e283306c	 add         r3, r3, #0x6C
  015fc	e5933000	 ldr         r3, [r3]
  01600	e3530000	 cmp         r3, #0
  01604	1a000002	 bne         |$LN17@AbortQueue|
  01608	e3a03001	 mov         r3, #1
  0160c	e58d3044	 str         r3, [sp, #0x44]
  01610	ea000008	 b           |$LN18@AbortQueue|
  01614		 |$LN17@AbortQueue|
  01614	e3a03c01	 mov         r3, #1, 24
  01618	e38330e9	 orr         r3, r3, #0xE9
  0161c	e59f209c	 ldr         r2, [pc, #0x9C]
  01620	e59f1094	 ldr         r1, [pc, #0x94]
  01624	e59f008c	 ldr         r0, [pc, #0x8C]
  01628	eb000000	 bl          NKDbgPrintfW
  0162c	e6000010	 __debugbreak_ce
  01630	e3a03000	 mov         r3, #0
  01634	e58d3044	 str         r3, [sp, #0x44]
  01638		 |$LN18@AbortQueue|

; 490  : 
; 491  :     LeaveCriticalSection( &m_csPipeLock );

  01638	e59d305c	 ldr         r3, [sp, #0x5C]
  0163c	e2830020	 add         r0, r3, #0x20
  01640	eb000000	 bl          LeaveCriticalSection

; 492  :     DEBUGMSG( ZONE_TRANSFER, (TEXT("%s: -CQueuedPipe(%s)::AbortQueue - %d\n"),GetControllerName(), GetPipeType()) );

  01644	e59f3068	 ldr         r3, [pc, #0x68]
  01648	e5933440	 ldr         r3, [r3, #0x440]
  0164c	e3130c01	 tst         r3, #1, 24
  01650	0a000011	 beq         |$LN19@AbortQueue|
  01654	e59d305c	 ldr         r3, [sp, #0x5C]
  01658	e5933000	 ldr         r3, [r3]
  0165c	e2833040	 add         r3, r3, #0x40
  01660	e59d005c	 ldr         r0, [sp, #0x5C]
  01664	e5933000	 ldr         r3, [r3]
  01668	e1a0e00f	 mov         lr, pc
  0166c	e12fff13	 bx          r3
  01670	e58d0048	 str         r0, [sp, #0x48]
  01674	e59d005c	 ldr         r0, [sp, #0x5C]
  01678	eb000000	 bl          |?GetControllerName@CPipe@@QBAPBGXZ|
  0167c	e58d004c	 str         r0, [sp, #0x4C]
  01680	e59d2048	 ldr         r2, [sp, #0x48]
  01684	e59d104c	 ldr         r1, [sp, #0x4C]
  01688	e59f0020	 ldr         r0, [pc, #0x20]
  0168c	eb000000	 bl          NKDbgPrintfW
  01690	e3a03001	 mov         r3, #1
  01694	e58d3050	 str         r3, [sp, #0x50]
  01698	ea000001	 b           |$LN20@AbortQueue|
  0169c		 |$LN19@AbortQueue|
  0169c	e3a03000	 mov         r3, #0
  016a0	e58d3050	 str         r3, [sp, #0x50]
  016a4		 |$LN20@AbortQueue|

; 493  : }

  016a4	e28dd054	 add         sp, sp, #0x54
  016a8	e89d6000	 ldmia       sp, {sp, lr}
  016ac	e12fff1e	 bx          lr
  016b0		 |$LN24@AbortQueue|
  016b0		 |$LN25@AbortQueue|
  016b0	00000000	 DCD         |??_C@_1EO@BBHOPFHG@?$AA?$CF?$AAs?$AA?3?$AA?5?$AA?9?$AAC?$AAQ?$AAu?$AAe?$AAu?$AAe?$AAd?$AAP?$AAi?$AAp?$AAe?$AA?$CI?$AA?$CF?$AAs?$AA?$CJ?$AA?3?$AA?3?$AAA?$AAb?$AAo?$AAr?$AAt?$AAQ?$AAu?$AAe?$AAu?$AAe@|
  016b4		 |$LN26@AbortQueue|
  016b4	00000000	 DCD         |dpCurSettings|
  016b8		 |$LN27@AbortQueue|
  016b8	00000000	 DCD         |??_C@_1FK@FNONLNGN@?$AA?$CF?$AAs?$AA?3?$AA?5?$AAD?$AAE?$AAB?$AAU?$AAG?$AAC?$AAH?$AAK?$AA?5?$AAf?$AAa?$AAi?$AAl?$AAe?$AAd?$AA?5?$AAi?$AAn?$AA?5?$AAf?$AAi?$AAl?$AAe?$AA?5?$AA?$CF?$AAs?$AA?5?$AAa@|
  016bc		 |$LN28@AbortQueue|
  016bc	00000000	 DCD         |??_C@_1BA@LEPJIIOK@?$AAU?$AAn?$AAk?$AAn?$AAo?$AAw?$AAn?$AA?$AA@|
  016c0		 |$LN29@AbortQueue|
  016c0	00000000	 DCD         |??_C@_1LK@LMPDOKKA@?$AAC?$AA?3?$AA?2?$AAW?$AAI?$AAN?$AAC?$AAE?$AA6?$AA0?$AA0?$AA?2?$AAP?$AAL?$AAA?$AAT?$AAF?$AAO?$AAR?$AAM?$AA?2?$AAC?$AAO?$AAM?$AAM?$AAO?$AAN?$AA?2?$AAS?$AAR?$AAC?$AA?2@|
  016c4		 |$LN30@AbortQueue|
  016c4	00000000	 DCD         |??_C@_1BK@MICGADHL@?$AAA?$AAb?$AAo?$AAr?$AAt?$AAQ?$AAu?$AAe?$AAu?$AAe?$AA?$AN?$AA?6?$AA?$AA@|
  016c8		 |$LN31@AbortQueue|
  016c8	00000000	 DCD         |??_C@_1EG@MLMOFGFI@?$AA?$CF?$AAs?$AA?3?$AA?5?$AA?$CL?$AAC?$AAQ?$AAu?$AAe?$AAu?$AAe?$AAd?$AAP?$AAi?$AAp?$AAe?$AA?$CI?$AA?$CF?$AAs?$AA?$CJ?$AA?3?$AA?3?$AAA?$AAb?$AAo?$AAr?$AAt?$AAQ?$AAu?$AAe?$AAu?$AAe@|
  016cc		 |$M37888|

			 ENDP  ; |?AbortQueue@CQueuedPipe@@IAAXXZ|, CQueuedPipe::AbortQueue

	EXPORT	|??_C@_1JM@HCMJHHKO@?$AA?$CF?$AAs?$AA?3?$AA?5?$AA?9?$AAC?$AAP?$AAi?$AAp?$AAe?$AA?$CI?$AA?$CF?$AAs?$AA?$CJ?$AA?3?$AA?3?$AAI?$AAs?$AAs?$AAu?$AAe?$AAT?$AAr?$AAa?$AAn?$AAs?$AAf?$AAe?$AAr?$AA?5?$AA?9?$AA?5@| [ DATA ] ; `string'
	EXPORT	|?DoNotCallBack@CTransfer@@QAAXXZ|	; CTransfer::DoNotCallBack
	EXPORT	|??0CQTransfer@@QAA@QAVCPipe@@QAVCPhysMem@@USTRANSFER@@@Z| ; CQTransfer::CQTransfer
	EXPORT	|??_C@_1FE@ONKDEIGN@?$AAC?$AAQ?$AAu?$AAe?$AAu?$AAe?$AAd?$AAP?$AAi?$AAp?$AAe?$AA?3?$AA?3?$AAI?$AAs?$AAs?$AAu?$AAe?$AAT?$AAr?$AAa?$AAn?$AAs?$AAf?$AAe?$AAr?$AA?3?$AA?3?$AA?5?$AAD?$AAi?$AAs@| [ DATA ] ; `string'
	EXPORT	|??_C@_1FK@BPNHMPHA@?$AA?$CF?$AAs?$AA?3?$AA?5?$AA?$CL?$AAC?$AAP?$AAi?$AAp?$AAe?$AA?$CI?$AA?$CF?$AAs?$AA?$CJ?$AA?3?$AA?3?$AAI?$AAs?$AAs?$AAu?$AAe?$AAT?$AAr?$AAa?$AAn?$AAs?$AAf?$AAe?$AAr?$AA?0?$AA?5?$AAa@| [ DATA ] ; `string'
	IMPORT	|??2@YAPAXI@Z|				; operator new

  00078			 AREA	 |.pdata|, PDATA
|$T37930| DCD	|$LN37@IssueTrans|
	DCD	0xc0012605
|$T37932| DCD	|$LN27@IssueTrans|
	DCD	0x40000c02

  00000			 AREA	 |.rdata|, DATA, READONLY
|??_C@_1JM@HCMJHHKO@?$AA?$CF?$AAs?$AA?3?$AA?5?$AA?9?$AAC?$AAP?$AAi?$AAp?$AAe?$AA?$CI?$AA?$CF?$AAs?$AA?$CJ?$AA?3?$AA?3?$AAI?$AAs?$AAs?$AAu?$AAe?$AAT?$AAr?$AAa?$AAn?$AAs?$AAf?$AAe?$AAr?$AA?5?$AA?9?$AA?5@| DCB "%"
	DCB	0x0, "s", 0x0, ":", 0x0, " ", 0x0, "-", 0x0, "C", 0x0, "P"
	DCB	0x0, "i", 0x0, "p", 0x0, "e", 0x0, "(", 0x0, "%", 0x0, "s"
	DCB	0x0, ")", 0x0, ":", 0x0, ":", 0x0, "I", 0x0, "s", 0x0, "s"
	DCB	0x0, "u", 0x0, "e", 0x0, "T", 0x0, "r", 0x0, "a", 0x0, "n"
	DCB	0x0, "s", 0x0, "f", 0x0, "e", 0x0, "r", 0x0, " ", 0x0, "-"
	DCB	0x0, " ", 0x0, "a", 0x0, "d", 0x0, "d", 0x0, "r", 0x0, "e"
	DCB	0x0, "s", 0x0, "s", 0x0, " ", 0x0, "=", 0x0, " ", 0x0, "%"
	DCB	0x0, "d", 0x0, ",", 0x0, " ", 0x0, "r", 0x0, "e", 0x0, "t"
	DCB	0x0, "u", 0x0, "r", 0x0, "i", 0x0, "n", 0x0, "g", 0x0, " "
	DCB	0x0, "H", 0x0, "C", 0x0, "D", 0x0, "_", 0x0, "R", 0x0, "E"
	DCB	0x0, "Q", 0x0, "U", 0x0, "E", 0x0, "S", 0x0, "T", 0x0, "_"
	DCB	0x0, "S", 0x0, "T", 0x0, "A", 0x0, "T", 0x0, "U", 0x0, "S"
	DCB	0x0, " ", 0x0, "%", 0x0, "d", 0x0, 0xa, 0x0, 0x0, 0x0 ; `string'

  00000			 AREA	 |.rdata|, DATA, READONLY
|??_C@_1FE@ONKDEIGN@?$AAC?$AAQ?$AAu?$AAe?$AAu?$AAe?$AAd?$AAP?$AAi?$AAp?$AAe?$AA?3?$AA?3?$AAI?$AAs?$AAs?$AAu?$AAe?$AAT?$AAr?$AAa?$AAn?$AAs?$AAf?$AAe?$AAr?$AA?3?$AA?3?$AA?5?$AAD?$AAi?$AAs@| DCB "C"
	DCB	0x0, "Q", 0x0, "u", 0x0, "e", 0x0, "u", 0x0, "e", 0x0, "d"
	DCB	0x0, "P", 0x0, "i", 0x0, "p", 0x0, "e", 0x0, ":", 0x0, ":"
	DCB	0x0, "I", 0x0, "s", 0x0, "s", 0x0, "u", 0x0, "e", 0x0, "T"
	DCB	0x0, "r", 0x0, "a", 0x0, "n", 0x0, "s", 0x0, "f", 0x0, "e"
	DCB	0x0, "r", 0x0, ":", 0x0, ":", 0x0, " ", 0x0, "D", 0x0, "i"
	DCB	0x0, "s", 0x0, "c", 0x0, "o", 0x0, "n", 0x0, "n", 0x0, "e"
	DCB	0x0, "c", 0x0, "t", 0x0, 0xd, 0x0, 0xa, 0x0, 0x0, 0x0 ; `string'

  00000			 AREA	 |.rdata|, DATA, READONLY
|??_C@_1FK@BPNHMPHA@?$AA?$CF?$AAs?$AA?3?$AA?5?$AA?$CL?$AAC?$AAP?$AAi?$AAp?$AAe?$AA?$CI?$AA?$CF?$AAs?$AA?$CJ?$AA?3?$AA?3?$AAI?$AAs?$AAs?$AAu?$AAe?$AAT?$AAr?$AAa?$AAn?$AAs?$AAf?$AAe?$AAr?$AA?0?$AA?5?$AAa@| DCB "%"
	DCB	0x0, "s", 0x0, ":", 0x0, " ", 0x0, "+", 0x0, "C", 0x0, "P"
	DCB	0x0, "i", 0x0, "p", 0x0, "e", 0x0, "(", 0x0, "%", 0x0, "s"
	DCB	0x0, ")", 0x0, ":", 0x0, ":", 0x0, "I", 0x0, "s", 0x0, "s"
	DCB	0x0, "u", 0x0, "e", 0x0, "T", 0x0, "r", 0x0, "a", 0x0, "n"
	DCB	0x0, "s", 0x0, "f", 0x0, "e", 0x0, "r", 0x0, ",", 0x0, " "
	DCB	0x0, "a", 0x0, "d", 0x0, "d", 0x0, "r", 0x0, "e", 0x0, "s"
	DCB	0x0, "s", 0x0, " ", 0x0, "=", 0x0, " ", 0x0, "%", 0x0, "d"
	DCB	0x0, 0xa, 0x0, 0x0, 0x0			; `string'

  00014			 AREA	 |.xdata|, DATA
|$T37928| DCD	0x1
	DCD	|$LN31@IssueTrans|
	DCD	|$LN32@IssueTrans|
	DCD	|$LN27@IssueTrans|
	DCD	|$LN28@IssueTrans|
; Function compile flags: /Odtp

  016cc			 AREA	 |.text|, CODE, ARM

  016cc	00000000	 DCD         |__C_specific_handler|
  016d0	00000000	 DCD         |$T37928|

  016d4		 |?IssueTransfer@CQueuedPipe@@UAA?AW4HCD_REQUEST_STATUS@@EQ6AKPAX@ZQAXKQBXKKQBKK2K3QAK5QAH55@Z| PROC ; CQueuedPipe::IssueTransfer

; 526  : {

  016d4		 |$LN37@IssueTrans|
  016d4	e1a0c00d	 mov         r12, sp
  016d8	e92d000f	 stmdb       sp!, {r0 - r3}
  016dc	e92d5800	 stmdb       sp!, {r11, r12, lr}
  016e0	e28db00c	 add         r11, sp, #0xC
  016e4	e24dd0ec	 sub         sp, sp, #0xEC
  016e8		 |$LN35@IssueTrans|

; 527  :     DEBUGMSG( ZONE_TRANSFER, (TEXT("%s: +CPipe(%s)::IssueTransfer, address = %d\n"),GetControllerName(), GetPipeType(), address) );

  016e8	e59f3494	 ldr         r3, [pc, #0x494]
  016ec	e5933440	 ldr         r3, [r3, #0x440]
  016f0	e3130c01	 tst         r3, #1, 24
  016f4	0a000012	 beq         |$LN14@IssueTrans|
  016f8	e59b3000	 ldr         r3, [r11]
  016fc	e5933000	 ldr         r3, [r3]
  01700	e2833040	 add         r3, r3, #0x40
  01704	e59b0000	 ldr         r0, [r11]
  01708	e5933000	 ldr         r3, [r3]
  0170c	e1a0e00f	 mov         lr, pc
  01710	e12fff13	 bx          r3
  01714	e50b005c	 str         r0, [r11, #-0x5C]
  01718	e59b0000	 ldr         r0, [r11]
  0171c	eb000000	 bl          |?GetControllerName@CPipe@@QBAPBGXZ|
  01720	e50b0058	 str         r0, [r11, #-0x58]
  01724	e5db3004	 ldrb        r3, [r11, #4]
  01728	e51b205c	 ldr         r2, [r11, #-0x5C]
  0172c	e51b1058	 ldr         r1, [r11, #-0x58]
  01730	e59f0460	 ldr         r0, [pc, #0x460]
  01734	eb000000	 bl          NKDbgPrintfW
  01738	e3a03001	 mov         r3, #1
  0173c	e50b3054	 str         r3, [r11, #-0x54]
  01740	ea000001	 b           |$LN15@IssueTrans|
  01744		 |$LN14@IssueTrans|
  01744	e3a03000	 mov         r3, #0
  01748	e50b3054	 str         r3, [r11, #-0x54]
  0174c		 |$LN15@IssueTrans|

; 528  :  
; 529  :     //m_pPipeQHead ->SetDeviceAddress(m_bDeviceAddress, USB_ENDPOINT_DIRECTION_OUT(m_usbEndpointDescriptor.bEndpointAddress));
; 530  :     // Check if it is connected first
; 531  :     if(m_pCMhcd->IsHostConnect() == FALSE)

  0174c	e59b3000	 ldr         r3, [r11]
  01750	e283300c	 add         r3, r3, #0xC
  01754	e5932000	 ldr         r2, [r3]
  01758	e59b3000	 ldr         r3, [r11]
  0175c	e283300c	 add         r3, r3, #0xC
  01760	e5930000	 ldr         r0, [r3]
  01764	e5923000	 ldr         r3, [r2]
  01768	e2833068	 add         r3, r3, #0x68
  0176c	e5933000	 ldr         r3, [r3]
  01770	e1a0e00f	 mov         lr, pc
  01774	e12fff13	 bx          r3
  01778	e50b0050	 str         r0, [r11, #-0x50]
  0177c	e51b3050	 ldr         r3, [r11, #-0x50]
  01780	e3530000	 cmp         r3, #0
  01784	1a00000d	 bne         |$LN11@IssueTrans|

; 532  :     {
; 533  :         DEBUGMSG(ZONE_WARNING, (TEXT("CQueuedPipe::IssueTransfer:: Disconnect\r\n")));

  01788	e59f33f4	 ldr         r3, [pc, #0x3F4]
  0178c	e5933440	 ldr         r3, [r3, #0x440]
  01790	e3130a02	 tst         r3, #2, 20
  01794	0a000004	 beq         |$LN16@IssueTrans|
  01798	e59f03f4	 ldr         r0, [pc, #0x3F4]
  0179c	eb000000	 bl          NKDbgPrintfW
  017a0	e3a03001	 mov         r3, #1
  017a4	e50b304c	 str         r3, [r11, #-0x4C]
  017a8	ea000001	 b           |$LN17@IssueTrans|
  017ac		 |$LN16@IssueTrans|
  017ac	e3a03000	 mov         r3, #0
  017b0	e50b304c	 str         r3, [r11, #-0x4C]
  017b4		 |$LN17@IssueTrans|

; 534  :         return requestFailed;

  017b4	e3a03000	 mov         r3, #0
  017b8	e50b3064	 str         r3, [r11, #-0x64]
  017bc	ea0000e6	 b           |$LN12@IssueTrans|
  017c0		 |$LN11@IssueTrans|

; 535  :     }
; 536  : 
; 537  : 
; 538  :     
; 539  : 
; 540  :     STransfer sTransfer = {
; 541  :     // These are the IssueTransfer parameters
; 542  :         lpStartAddress,lpvNotifyParameter, dwFlags,lpvControlHeader, dwStartingFrame,dwFrames,

  017c0	e59b3008	 ldr         r3, [r11, #8]
  017c4	e50b30bc	 str         r3, [r11, #-0xBC]
  017c8	e59b300c	 ldr         r3, [r11, #0xC]
  017cc	e50b30b8	 str         r3, [r11, #-0xB8]
  017d0	e59b3010	 ldr         r3, [r11, #0x10]
  017d4	e50b30b4	 str         r3, [r11, #-0xB4]
  017d8	e59b3014	 ldr         r3, [r11, #0x14]
  017dc	e50b30b0	 str         r3, [r11, #-0xB0]
  017e0	e59b3018	 ldr         r3, [r11, #0x18]
  017e4	e50b30ac	 str         r3, [r11, #-0xAC]
  017e8	e59b301c	 ldr         r3, [r11, #0x1C]
  017ec	e50b30a8	 str         r3, [r11, #-0xA8]

; 543  :         aLengths,dwBufferSize,lpvClientBuffer,paBuffer,lpvCancelId,adwIsochErrors, adwIsochLengths,

  017f0	e59b3020	 ldr         r3, [r11, #0x20]
  017f4	e50b30a4	 str         r3, [r11, #-0xA4]
  017f8	e59b3024	 ldr         r3, [r11, #0x24]
  017fc	e50b30a0	 str         r3, [r11, #-0xA0]
  01800	e59b3028	 ldr         r3, [r11, #0x28]
  01804	e50b309c	 str         r3, [r11, #-0x9C]
  01808	e59b302c	 ldr         r3, [r11, #0x2C]
  0180c	e50b3098	 str         r3, [r11, #-0x98]
  01810	e59b3030	 ldr         r3, [r11, #0x30]
  01814	e50b3094	 str         r3, [r11, #-0x94]
  01818	e59b3034	 ldr         r3, [r11, #0x34]
  0181c	e50b3090	 str         r3, [r11, #-0x90]
  01820	e59b3038	 ldr         r3, [r11, #0x38]
  01824	e50b308c	 str         r3, [r11, #-0x8C]

; 544  :         lpfComplete,lpdwBytesTransferred,lpdwError};

  01828	e59b303c	 ldr         r3, [r11, #0x3C]
  0182c	e50b3088	 str         r3, [r11, #-0x88]
  01830	e59b3040	 ldr         r3, [r11, #0x40]
  01834	e50b3084	 str         r3, [r11, #-0x84]
  01838	e59b3044	 ldr         r3, [r11, #0x44]
  0183c	e50b3080	 str         r3, [r11, #-0x80]

; 545  :     HCD_REQUEST_STATUS  status = requestFailed;

  01840	e3a03000	 mov         r3, #0
  01844	e50b307c	 str         r3, [r11, #-0x7C]

; 546  :     if (AreTransferParametersValid(&sTransfer) && GetQHead() && m_bDeviceAddress == address ) {

  01848	e24b10bc	 sub         r1, r11, #0xBC
  0184c	e59b3000	 ldr         r3, [r11]
  01850	e5933000	 ldr         r3, [r3]
  01854	e2833048	 add         r3, r3, #0x48
  01858	e59b0000	 ldr         r0, [r11]
  0185c	e5933000	 ldr         r3, [r3]
  01860	e1a0e00f	 mov         lr, pc
  01864	e12fff13	 bx          r3
  01868	e50b0048	 str         r0, [r11, #-0x48]
  0186c	e51b3048	 ldr         r3, [r11, #-0x48]
  01870	e3530000	 cmp         r3, #0
  01874	0a00008e	 beq         |$LN10@IssueTrans|
  01878	e59b3000	 ldr         r3, [r11]
  0187c	e5933000	 ldr         r3, [r3]
  01880	e2833044	 add         r3, r3, #0x44
  01884	e59b0000	 ldr         r0, [r11]
  01888	e5933000	 ldr         r3, [r3]
  0188c	e1a0e00f	 mov         lr, pc
  01890	e12fff13	 bx          r3
  01894	e50b0044	 str         r0, [r11, #-0x44]
  01898	e51b3044	 ldr         r3, [r11, #-0x44]
  0189c	e3530000	 cmp         r3, #0
  018a0	0a000083	 beq         |$LN10@IssueTrans|
  018a4	e59b3000	 ldr         r3, [r11]
  018a8	e283303b	 add         r3, r3, #0x3B
  018ac	e5d33000	 ldrb        r3, [r3]
  018b0	e1a02003	 mov         r2, r3
  018b4	e5db3004	 ldrb        r3, [r11, #4]
  018b8	e1520003	 cmp         r2, r3
  018bc	1a00007c	 bne         |$LN10@IssueTrans|

; 547  :         EnterCriticalSection( &m_csPipeLock );

  018c0	e59b3000	 ldr         r3, [r11]
  018c4	e2830020	 add         r0, r3, #0x20
  018c8	eb000000	 bl          EnterCriticalSection
  018cc		 |$LN31@IssueTrans|

; 548  : #pragma prefast(disable: 322, "Recover gracefully from hardware failure")
; 549  :         __try { // initializing transfer status parameters
; 550  :             *sTransfer.lpfComplete = FALSE;

  018cc	e51b2088	 ldr         r2, [r11, #-0x88]
  018d0	e3a03000	 mov         r3, #0
  018d4	e5823000	 str         r3, [r2]

; 551  :             *sTransfer.lpdwBytesTransferred = 0;

  018d8	e51b2084	 ldr         r2, [r11, #-0x84]
  018dc	e3a03000	 mov         r3, #0
  018e0	e5823000	 str         r3, [r2]

; 552  :             *sTransfer.lpdwError = USB_NOT_COMPLETE_ERROR;

  018e4	e51b2080	 ldr         r2, [r11, #-0x80]
  018e8	e3a03c01	 mov         r3, #1, 24
  018ec	e3833003	 orr         r3, r3, #3
  018f0	e5823000	 str         r3, [r2]

; 553  :             CQTransfer * pTransfer = new CQTransfer(this,m_pCMhcd->GetPhysMem(),sTransfer);

  018f4	e3a0006c	 mov         r0, #0x6C
  018f8	eb000000	 bl          |??2@YAPAXI@Z|
  018fc	e50b0040	 str         r0, [r11, #-0x40]
  01900	e51b3040	 ldr         r3, [r11, #-0x40]
  01904	e50b3070	 str         r3, [r11, #-0x70]
  01908	e51b3070	 ldr         r3, [r11, #-0x70]
  0190c	e3530000	 cmp         r3, #0
  01910	0a000011	 beq         |$LN18@IssueTrans|
  01914	e59b3000	 ldr         r3, [r11]
  01918	e283300c	 add         r3, r3, #0xC
  0191c	e5930000	 ldr         r0, [r3]
  01920	eb000000	 bl          |?GetPhysMem@CHW@@QAAPAVCPhysMem@@XZ|
  01924	e50b003c	 str         r0, [r11, #-0x3C]
  01928	e28d0000	 add         r0, sp, #0
  0192c	e24b10b8	 sub         r1, r11, #0xB8
  01930	e3a0203c	 mov         r2, #0x3C
  01934	eb000000	 bl          memcpy
  01938	e51b30bc	 ldr         r3, [r11, #-0xBC]
  0193c	e51b203c	 ldr         r2, [r11, #-0x3C]
  01940	e59b1000	 ldr         r1, [r11]
  01944	e51b0070	 ldr         r0, [r11, #-0x70]
  01948	eb000000	 bl          |??0CQTransfer@@QAA@QAVCPipe@@QAVCPhysMem@@USTRANSFER@@@Z|
  0194c	e50b0038	 str         r0, [r11, #-0x38]
  01950	e51b3038	 ldr         r3, [r11, #-0x38]
  01954	e50b3034	 str         r3, [r11, #-0x34]
  01958	ea000001	 b           |$LN19@IssueTrans|
  0195c		 |$LN18@IssueTrans|
  0195c	e3a03000	 mov         r3, #0
  01960	e50b3034	 str         r3, [r11, #-0x34]
  01964		 |$LN19@IssueTrans|
  01964	e51b3034	 ldr         r3, [r11, #-0x34]
  01968	e50b3078	 str         r3, [r11, #-0x78]

; 554  :             if (pTransfer && pTransfer->Init()) {

  0196c	e51b3078	 ldr         r3, [r11, #-0x78]
  01970	e3530000	 cmp         r3, #0
  01974	0a000028	 beq         |$LN8@IssueTrans|
  01978	e51b3078	 ldr         r3, [r11, #-0x78]
  0197c	e5933000	 ldr         r3, [r3]
  01980	e2833004	 add         r3, r3, #4
  01984	e51b0078	 ldr         r0, [r11, #-0x78]
  01988	e5933000	 ldr         r3, [r3]
  0198c	e1a0e00f	 mov         lr, pc
  01990	e12fff13	 bx          r3
  01994	e50b0030	 str         r0, [r11, #-0x30]
  01998	e51b3030	 ldr         r3, [r11, #-0x30]
  0199c	e3530000	 cmp         r3, #0
  019a0	0a00001d	 beq         |$LN8@IssueTrans|

; 555  :                 CQTransfer * pCur = m_pUnQueuedTransfer;

  019a4	e59b3000	 ldr         r3, [r11]
  019a8	e2833068	 add         r3, r3, #0x68
  019ac	e5933000	 ldr         r3, [r3]
  019b0	e50b3074	 str         r3, [r11, #-0x74]

; 556  :                 if (pCur) {

  019b4	e51b3074	 ldr         r3, [r11, #-0x74]
  019b8	e3530000	 cmp         r3, #0
  019bc	0a00000f	 beq         |$LN7@IssueTrans|
  019c0		 |$LN6@IssueTrans|

; 557  :                     while (pCur->GetNextTransfer()!=NULL)

  019c0	e51b0074	 ldr         r0, [r11, #-0x74]
  019c4	eb000000	 bl          |?GetNextTransfer@CTransfer@@QAAPAV1@XZ|
  019c8	e50b002c	 str         r0, [r11, #-0x2C]
  019cc	e51b302c	 ldr         r3, [r11, #-0x2C]
  019d0	e3530000	 cmp         r3, #0
  019d4	0a000005	 beq         |$LN5@IssueTrans|

; 558  :                          pCur = (CQTransfer * )pCur->GetNextTransfer();

  019d8	e51b0074	 ldr         r0, [r11, #-0x74]
  019dc	eb000000	 bl          |?GetNextTransfer@CTransfer@@QAAPAV1@XZ|
  019e0	e50b0028	 str         r0, [r11, #-0x28]
  019e4	e51b3028	 ldr         r3, [r11, #-0x28]
  019e8	e50b3074	 str         r3, [r11, #-0x74]
  019ec	eafffff3	 b           |$LN6@IssueTrans|
  019f0		 |$LN5@IssueTrans|

; 559  :                     pCur->SetNextTransfer( pTransfer);

  019f0	e51b1078	 ldr         r1, [r11, #-0x78]
  019f4	e51b0074	 ldr         r0, [r11, #-0x74]
  019f8	eb000000	 bl          |?SetNextTransfer@CTransfer@@QAAXPAV1@@Z|

; 560  :                 }
; 561  :                 else

  019fc	ea000003	 b           |$LN4@IssueTrans|
  01a00		 |$LN7@IssueTrans|

; 562  :                     m_pUnQueuedTransfer=pTransfer;

  01a00	e59b3000	 ldr         r3, [r11]
  01a04	e2832068	 add         r2, r3, #0x68
  01a08	e51b3078	 ldr         r3, [r11, #-0x78]
  01a0c	e5823000	 str         r3, [r2]
  01a10		 |$LN4@IssueTrans|

; 563  :                 status=requestOK ;

  01a10	e3a03001	 mov         r3, #1
  01a14	e50b307c	 str         r3, [r11, #-0x7C]

; 564  :             }
; 565  :             else

  01a18	ea000018	 b           |$LN3@IssueTrans|
  01a1c		 |$LN8@IssueTrans|

; 566  :                 if (pTransfer) { // We return fails here so do not need callback;

  01a1c	e51b3078	 ldr         r3, [r11, #-0x78]
  01a20	e3530000	 cmp         r3, #0
  01a24	0a000015	 beq         |$LN2@IssueTrans|

; 567  :                     pTransfer->DoNotCallBack() ;

  01a28	e51b0078	 ldr         r0, [r11, #-0x78]
  01a2c	eb000000	 bl          |?DoNotCallBack@CTransfer@@QAAXXZ|

; 568  :                     delete pTransfer;    

  01a30	e51b3078	 ldr         r3, [r11, #-0x78]
  01a34	e50b3068	 str         r3, [r11, #-0x68]
  01a38	e51b3068	 ldr         r3, [r11, #-0x68]
  01a3c	e50b306c	 str         r3, [r11, #-0x6C]
  01a40	e51b306c	 ldr         r3, [r11, #-0x6C]
  01a44	e3530000	 cmp         r3, #0
  01a48	0a00000a	 beq         |$LN20@IssueTrans|
  01a4c	e3a01001	 mov         r1, #1
  01a50	e51b306c	 ldr         r3, [r11, #-0x6C]
  01a54	e5933000	 ldr         r3, [r3]
  01a58	e51b006c	 ldr         r0, [r11, #-0x6C]
  01a5c	e5933000	 ldr         r3, [r3]
  01a60	e1a0e00f	 mov         lr, pc
  01a64	e12fff13	 bx          r3
  01a68	e50b0024	 str         r0, [r11, #-0x24]
  01a6c	e51b3024	 ldr         r3, [r11, #-0x24]
  01a70	e50b3020	 str         r3, [r11, #-0x20]
  01a74	ea000001	 b           |$LN21@IssueTrans|
  01a78		 |$LN20@IssueTrans|
  01a78	e3a03000	 mov         r3, #0
  01a7c	e50b3020	 str         r3, [r11, #-0x20]
  01a80		 |$LN21@IssueTrans|
  01a80		 |$LN2@IssueTrans|
  01a80		 |$LN3@IssueTrans|
  01a80		 |$LN32@IssueTrans|

; 569  :                 }

  01a80	ea000000	 b           |$LN33@IssueTrans|
  01a84		 |$LN28@IssueTrans|
  01a84	eaffffff	 b           |$LN33@IssueTrans|
  01a88		 |$LN33@IssueTrans|

; 571  :         }
; 572  : #pragma prefast(pop)
; 573  :         LeaveCriticalSection( &m_csPipeLock );

  01a88	e59b3000	 ldr         r3, [r11]
  01a8c	e2830020	 add         r0, r3, #0x20
  01a90	eb000000	 bl          LeaveCriticalSection

; 574  :         ScheduleTransfer( );

  01a94	e59b3000	 ldr         r3, [r11]
  01a98	e5933000	 ldr         r3, [r3]
  01a9c	e2833030	 add         r3, r3, #0x30
  01aa0	e59b0000	 ldr         r0, [r11]
  01aa4	e5933000	 ldr         r3, [r3]
  01aa8	e1a0e00f	 mov         lr, pc
  01aac	e12fff13	 bx          r3

; 575  :     }
; 576  :     else

  01ab0	ea00000c	 b           |$LN1@IssueTrans|
  01ab4		 |$LN10@IssueTrans|

; 577  :         ASSERT(FALSE);

  01ab4	ea000002	 b           |$LN22@IssueTrans|
  01ab8	e3a03001	 mov         r3, #1
  01abc	e50b301c	 str         r3, [r11, #-0x1C]
  01ac0	ea000008	 b           |$LN23@IssueTrans|
  01ac4		 |$LN22@IssueTrans|
  01ac4	e3a03c02	 mov         r3, #2, 24
  01ac8	e3833041	 orr         r3, r3, #0x41
  01acc	e59f20bc	 ldr         r2, [pc, #0xBC]
  01ad0	e59f10b4	 ldr         r1, [pc, #0xB4]
  01ad4	e59f00ac	 ldr         r0, [pc, #0xAC]
  01ad8	eb000000	 bl          NKDbgPrintfW
  01adc	e6000010	 __debugbreak_ce
  01ae0	e3a03000	 mov         r3, #0
  01ae4	e50b301c	 str         r3, [r11, #-0x1C]
  01ae8		 |$LN23@IssueTrans|
  01ae8		 |$LN1@IssueTrans|

; 578  :     DEBUGMSG( ZONE_TRANSFER, (TEXT("%s: -CPipe(%s)::IssueTransfer - address = %d, returing HCD_REQUEST_STATUS %d\n"),GetControllerName(), GetPipeType(), address, status) );

  01ae8	e59f3094	 ldr         r3, [pc, #0x94]
  01aec	e5933440	 ldr         r3, [r3, #0x440]
  01af0	e3130c01	 tst         r3, #1, 24
  01af4	0a000014	 beq         |$LN24@IssueTrans|
  01af8	e59b3000	 ldr         r3, [r11]
  01afc	e5933000	 ldr         r3, [r3]
  01b00	e2833040	 add         r3, r3, #0x40
  01b04	e59b0000	 ldr         r0, [r11]
  01b08	e5933000	 ldr         r3, [r3]
  01b0c	e1a0e00f	 mov         lr, pc
  01b10	e12fff13	 bx          r3
  01b14	e50b0018	 str         r0, [r11, #-0x18]
  01b18	e59b0000	 ldr         r0, [r11]
  01b1c	eb000000	 bl          |?GetControllerName@CPipe@@QBAPBGXZ|
  01b20	e50b0014	 str         r0, [r11, #-0x14]
  01b24	e51b307c	 ldr         r3, [r11, #-0x7C]
  01b28	e58d3000	 str         r3, [sp]
  01b2c	e5db3004	 ldrb        r3, [r11, #4]
  01b30	e51b2018	 ldr         r2, [r11, #-0x18]
  01b34	e51b1014	 ldr         r1, [r11, #-0x14]
  01b38	e59f0040	 ldr         r0, [pc, #0x40]
  01b3c	eb000000	 bl          NKDbgPrintfW
  01b40	e3a03001	 mov         r3, #1
  01b44	e50b3010	 str         r3, [r11, #-0x10]
  01b48	ea000001	 b           |$LN25@IssueTrans|
  01b4c		 |$LN24@IssueTrans|
  01b4c	e3a03000	 mov         r3, #0
  01b50	e50b3010	 str         r3, [r11, #-0x10]
  01b54		 |$LN25@IssueTrans|

; 579  :     return status;

  01b54	e51b307c	 ldr         r3, [r11, #-0x7C]
  01b58	e50b3064	 str         r3, [r11, #-0x64]
  01b5c		 |$LN12@IssueTrans|
  01b5c		 |$LN26@IssueTrans|

; 580  : }

  01b5c	e51b0064	 ldr         r0, [r11, #-0x64]
  01b60	e24bd00c	 sub         sp, r11, #0xC
  01b64	e89d6800	 ldmia       sp, {r11, sp, lr}
  01b68	e12fff1e	 bx          lr

			 ENDP  ; |?IssueTransfer@CQueuedPipe@@UAA?AW4HCD_REQUEST_STATUS@@EQ6AKPAX@ZQAXKQBXKKQBKK2K3QAK5QAH55@Z|, CQueuedPipe::IssueTransfer

  01b6c		 |$LN27@IssueTrans|
  01b6c		 |$LN36@IssueTrans|

; 570  :         } __except( EXCEPTION_EXECUTE_HANDLER ) {

  01b6c	e52de004	 str         lr, [sp, #-4]!
  01b70	e24dd03c	 sub         sp, sp, #0x3C
  01b74		 |$LN30@IssueTrans|
  01b74		 |$LN39@IssueTrans|
  01b74	e3a00001	 mov         r0, #1
  01b78		 |$LN29@IssueTrans|
  01b78	e28dd03c	 add         sp, sp, #0x3C
  01b7c	e49df004	 ldr         pc, [sp], #4
  01b80		 |$LN41@IssueTrans|
  01b80		 |$LN42@IssueTrans|
  01b80	00000000	 DCD         |??_C@_1JM@HCMJHHKO@?$AA?$CF?$AAs?$AA?3?$AA?5?$AA?9?$AAC?$AAP?$AAi?$AAp?$AAe?$AA?$CI?$AA?$CF?$AAs?$AA?$CJ?$AA?3?$AA?3?$AAI?$AAs?$AAs?$AAu?$AAe?$AAT?$AAr?$AAa?$AAn?$AAs?$AAf?$AAe?$AAr?$AA?5?$AA?9?$AA?5@|
  01b84		 |$LN43@IssueTrans|
  01b84	00000000	 DCD         |dpCurSettings|
  01b88		 |$LN44@IssueTrans|
  01b88	00000000	 DCD         |??_C@_1FK@FNONLNGN@?$AA?$CF?$AAs?$AA?3?$AA?5?$AAD?$AAE?$AAB?$AAU?$AAG?$AAC?$AAH?$AAK?$AA?5?$AAf?$AAa?$AAi?$AAl?$AAe?$AAd?$AA?5?$AAi?$AAn?$AA?5?$AAf?$AAi?$AAl?$AAe?$AA?5?$AA?$CF?$AAs?$AA?5?$AAa@|
  01b8c		 |$LN45@IssueTrans|
  01b8c	00000000	 DCD         |??_C@_1BA@LEPJIIOK@?$AAU?$AAn?$AAk?$AAn?$AAo?$AAw?$AAn?$AA?$AA@|
  01b90		 |$LN46@IssueTrans|
  01b90	00000000	 DCD         |??_C@_1LK@LMPDOKKA@?$AAC?$AA?3?$AA?2?$AAW?$AAI?$AAN?$AAC?$AAE?$AA6?$AA0?$AA0?$AA?2?$AAP?$AAL?$AAA?$AAT?$AAF?$AAO?$AAR?$AAM?$AA?2?$AAC?$AAO?$AAM?$AAM?$AAO?$AAN?$AA?2?$AAS?$AAR?$AAC?$AA?2@|
  01b94		 |$LN47@IssueTrans|
  01b94	00000000	 DCD         |??_C@_1FE@ONKDEIGN@?$AAC?$AAQ?$AAu?$AAe?$AAu?$AAe?$AAd?$AAP?$AAi?$AAp?$AAe?$AA?3?$AA?3?$AAI?$AAs?$AAs?$AAu?$AAe?$AAT?$AAr?$AAa?$AAn?$AAs?$AAf?$AAe?$AAr?$AA?3?$AA?3?$AA?5?$AAD?$AAi?$AAs@|
  01b98		 |$LN48@IssueTrans|
  01b98	00000000	 DCD         |??_C@_1FK@BPNHMPHA@?$AA?$CF?$AAs?$AA?3?$AA?5?$AA?$CL?$AAC?$AAP?$AAi?$AAp?$AAe?$AA?$CI?$AA?$CF?$AAs?$AA?$CJ?$AA?3?$AA?3?$AAI?$AAs?$AAs?$AAu?$AAe?$AAT?$AAr?$AAa?$AAn?$AAs?$AAf?$AAe?$AAr?$AA?0?$AA?5?$AAa@|
  01b9c		 |$LN40@IssueTrans|
  01b9c		 |$LN38@IssueTrans|
; File c:\wince600\platform\common\src\soc\common_ti_v1\omap3530\musb\musbhcd\musbmhdrc\trans.h

  00000			 AREA	 |.pdata|, PDATA
|$T37947| DCD	|$LN5@DoNotCallB|
	DCD	0x40001503
; Function compile flags: /Odtp

  00000			 AREA	 |.text|, CODE, ARM

  00000		 |?DoNotCallBack@CTransfer@@QAAXXZ| PROC ; CTransfer::DoNotCallBack

; 64   :     void  DoNotCallBack() {

  00000		 |$LN5@DoNotCallB|
  00000	e1a0c00d	 mov         r12, sp
  00004	e92d0001	 stmdb       sp!, {r0}
  00008	e92d5000	 stmdb       sp!, {r12, lr}
  0000c		 |$M37944|

; 65   :         m_sTransfer.lpfComplete = NULL;

  0000c	e59d3008	 ldr         r3, [sp, #8]
  00010	e2832050	 add         r2, r3, #0x50
  00014	e3a03000	 mov         r3, #0
  00018	e5823000	 str         r3, [r2]

; 66   :         m_sTransfer.lpdwError = NULL;

  0001c	e59d3008	 ldr         r3, [sp, #8]
  00020	e2832058	 add         r2, r3, #0x58
  00024	e3a03000	 mov         r3, #0
  00028	e5823000	 str         r3, [r2]

; 67   :         m_sTransfer.lpdwBytesTransferred = NULL;

  0002c	e59d3008	 ldr         r3, [sp, #8]
  00030	e2832054	 add         r2, r3, #0x54
  00034	e3a03000	 mov         r3, #0
  00038	e5823000	 str         r3, [r2]

; 68   :         m_sTransfer.lpStartAddress = NULL;

  0003c	e59d3008	 ldr         r3, [sp, #8]
  00040	e283201c	 add         r2, r3, #0x1C
  00044	e3a03000	 mov         r3, #0
  00048	e5823000	 str         r3, [r2]

; 69   :     }

  0004c	e89d6000	 ldmia       sp, {sp, lr}
  00050	e12fff1e	 bx          lr
  00054		 |$M37945|

			 ENDP  ; |?DoNotCallBack@CTransfer@@QAAXXZ|, CTransfer::DoNotCallBack

	EXPORT	|??_7CQTransfer@@6B@| [ DATA ]		; CQTransfer::`vftable'
	IMPORT	|??0CTransfer@@QAA@QAVCPipe@@QAVCPhysMem@@USTRANSFER@@@Z| ; CTransfer::CTransfer
	IMPORT	|??_ECQTransfer@@UAAPAXI@Z|, WEAK |??_GCQTransfer@@UAAPAXI@Z| ; CQTransfer::`vector deleting destructor', CQTransfer::`scalar deleting destructor'
	IMPORT	|?Init@CTransfer@@UAAHXZ|		; CTransfer::Init
	IMPORT	|?AddTransfer@CQTransfer@@UAAHXZ|	; CQTransfer::AddTransfer

  00000			 AREA	 |.pdata|, PDATA
|$T37955| DCD	|$LN5@CQTransfer@2|
	DCD	0x40001c04

  00000			 AREA	 |.rdata|, DATA, READONLY
|??_7CQTransfer@@6B@| DCD |??_ECQTransfer@@UAAPAXI@Z|	; CQTransfer::`vftable'
	DCD	|?Init@CTransfer@@UAAHXZ|
	DCD	|?AddTransfer@CQTransfer@@UAAHXZ|
; Function compile flags: /Odtp

  00000			 AREA	 |.text|, CODE, ARM

  00000		 |??0CQTransfer@@QAA@QAVCPipe@@QAVCPhysMem@@USTRANSFER@@@Z| PROC ; CQTransfer::CQTransfer

; 86   :     {   m_pCQTDList=NULL;   };

  00000		 |$LN5@CQTransfer@2|
  00000	e1a0c00d	 mov         r12, sp
  00004	e92d000f	 stmdb       sp!, {r0 - r3}
  00008	e92d5000	 stmdb       sp!, {r12, lr}
  0000c	e24dd044	 sub         sp, sp, #0x44
  00010		 |$M37952|
  00010	e28d0000	 add         r0, sp, #0
  00014	e28d105c	 add         r1, sp, #0x5C
  00018	e3a0203c	 mov         r2, #0x3C
  0001c	eb000000	 bl          memcpy
  00020	e59d3058	 ldr         r3, [sp, #0x58]
  00024	e59d2054	 ldr         r2, [sp, #0x54]
  00028	e59d1050	 ldr         r1, [sp, #0x50]
  0002c	e59d004c	 ldr         r0, [sp, #0x4C]
  00030	eb000000	 bl          |??0CTransfer@@QAA@QAVCPipe@@QAVCPhysMem@@USTRANSFER@@@Z|
  00034	e58d0040	 str         r0, [sp, #0x40]
  00038	e59f202c	 ldr         r2, [pc, #0x2C]
  0003c	e59d304c	 ldr         r3, [sp, #0x4C]
  00040	e5832000	 str         r2, [r3]
  00044	e59d304c	 ldr         r3, [sp, #0x4C]
  00048	e2832068	 add         r2, r3, #0x68
  0004c	e3a03000	 mov         r3, #0
  00050	e5823000	 str         r3, [r2]
  00054	e59d304c	 ldr         r3, [sp, #0x4C]
  00058	e58d303c	 str         r3, [sp, #0x3C]
  0005c	e59d003c	 ldr         r0, [sp, #0x3C]
  00060	e28dd044	 add         sp, sp, #0x44
  00064	e89d6000	 ldmia       sp, {sp, lr}
  00068	e12fff1e	 bx          lr
  0006c		 |$LN6@CQTransfer@2|
  0006c		 |$LN7@CQTransfer@2|
  0006c	00000000	 DCD         |??_7CQTransfer@@6B@|
  00070		 |$M37953|

			 ENDP  ; |??0CQTransfer@@QAA@QAVCPipe@@QAVCPhysMem@@USTRANSFER@@@Z|, CQTransfer::CQTransfer

	IMPORT	|??1CQTransfer@@UAA@XZ|			; CQTransfer::~CQTransfer

  00000			 AREA	 |.pdata|, PDATA
|$T37965| DCD	|$LN6@scalar@4|
	DCD	0x40001104
; Function compile flags: /Odtp

  00000			 AREA	 |.text|, CODE, ARM

  00000		 |??_GCQTransfer@@UAAPAXI@Z| PROC	; CQTransfer::`scalar deleting destructor'
  00000		 |$LN6@scalar@4|
  00000	e1a0c00d	 mov         r12, sp
  00004	e92d0003	 stmdb       sp!, {r0, r1}
  00008	e92d5000	 stmdb       sp!, {r12, lr}
  0000c	e24dd004	 sub         sp, sp, #4
  00010		 |$M37962|
  00010	e59d000c	 ldr         r0, [sp, #0xC]
  00014	eb000000	 bl          |??1CQTransfer@@UAA@XZ|
  00018	e59d3010	 ldr         r3, [sp, #0x10]
  0001c	e3130001	 tst         r3, #1
  00020	0a000001	 beq         |$LN1@scalar@4|
  00024	e59d000c	 ldr         r0, [sp, #0xC]
  00028	eb000000	 bl          |??3@YAXPAX@Z|
  0002c		 |$LN1@scalar@4|
  0002c	e59d300c	 ldr         r3, [sp, #0xC]
  00030	e58d3000	 str         r3, [sp]
  00034	e59d0000	 ldr         r0, [sp]
  00038	e28dd004	 add         sp, sp, #4
  0003c	e89d6000	 ldmia       sp, {sp, lr}
  00040	e12fff1e	 bx          lr
  00044		 |$M37963|

			 ENDP  ; |??_GCQTransfer@@UAAPAXI@Z|, CQTransfer::`scalar deleting destructor'

	EXPORT	|??_C@_1LG@LENACAKG@?$AA?9?$AAC?$AAP?$AAi?$AAp?$AAe?$AA?$CI?$AA?$CF?$AAs?$AA?$CJ?$AA?3?$AA?3?$AAS?$AAc?$AAh?$AAe?$AAd?$AAu?$AAl?$AAe?$AAT?$AAr?$AAa?$AAn?$AAs?$AAf?$AAe?$AAr?$AA?5?$AA?9?$AA?5?$AAS@| [ DATA ] ; `string'
	EXPORT	|??_C@_1DE@HBNHEJMM@?$AAS?$AAc?$AAh?$AAe?$AAd?$AAu?$AAl?$AAe?$AAT?$AAr?$AAa?$AAn?$AAs?$AAf?$AAe?$AAr?$AA?5?$AAf?$AAa?$AAi?$AAl?$AAe?$AAd?$AA?$AN?$AA?6?$AA?$AA@| [ DATA ] ; `string'
	EXPORT	|?GetTransfer@CQTD@@QAAPAVCQTransfer@@XZ| ; CQTD::GetTransfer
	EXPORT	|?GetCQTDList@CQTransfer@@QAAPAVCQTD@@XZ| ; CQTransfer::GetCQTDList
	EXPORT	|??_C@_1FG@FKIMPLIC@?$AAS?$AAc?$AAh?$AAe?$AAd?$AAu?$AAl?$AAe?$AAT?$AAr?$AAa?$AAn?$AAs?$AAf?$AAe?$AAr?$AA?5?$AAf?$AAa?$AAi?$AAl?$AAe?$AAd?$AA?5?$AAt?$AAo?$AA?5?$AAa?$AAc?$AAq?$AAu?$AAi@| [ DATA ] ; `string'
	EXPORT	|??_C@_1HK@IENAOMCM@?$AAS?$AAT?$AA?5?$AAo?$AAn?$AA?5?$AAE?$AAP?$AA?5?$AA0?$AAx?$AA?$CF?$AAx?$AA?0?$AA?5?$AAQ?$AAT?$AA?$CI?$AA0?$AAx?$AA?$CF?$AAx?$AA?$CJ?$AA?0?$AA?5?$AAU?$AAQ?$AAT?$AA?$CI?$AA0?$AAx?$AA?$CF@| [ DATA ] ; `string'
	IMPORT	|?IssueTransfer@CQH@@QAAKPAVCQTD@@@Z|	; CQH::IssueTransfer
	IMPORT	|?AcquirePhysicalEndPoint@CHW@@QAAEPAVCPipe@@@Z| ; CHW::AcquirePhysicalEndPoint
	IMPORT	|?IsActive@CQH@@QAAHXZ|			; CQH::IsActive

  00088			 AREA	 |.pdata|, PDATA
|$T37991| DCD	|$LN29@ScheduleTr|
	DCD	0x40011b04
; File c:\wince600\platform\common\src\soc\common_ti_v1\omap3530\musb\musbhcd\musbmhdrc\cpipe.cpp

  00000			 AREA	 |.rdata|, DATA, READONLY
|??_C@_1LG@LENACAKG@?$AA?9?$AAC?$AAP?$AAi?$AAp?$AAe?$AA?$CI?$AA?$CF?$AAs?$AA?$CJ?$AA?3?$AA?3?$AAS?$AAc?$AAh?$AAe?$AAd?$AAu?$AAl?$AAe?$AAT?$AAr?$AAa?$AAn?$AAs?$AAf?$AAe?$AAr?$AA?5?$AA?9?$AA?5?$AAS@| DCB "-"
	DCB	0x0, "C", 0x0, "P", 0x0, "i", 0x0, "p", 0x0, "e", 0x0, "("
	DCB	0x0, "%", 0x0, "s", 0x0, ")", 0x0, ":", 0x0, ":", 0x0, "S"
	DCB	0x0, "c", 0x0, "h", 0x0, "e", 0x0, "d", 0x0, "u", 0x0, "l"
	DCB	0x0, "e", 0x0, "T", 0x0, "r", 0x0, "a", 0x0, "n", 0x0, "s"
	DCB	0x0, "f", 0x0, "e", 0x0, "r", 0x0, " ", 0x0, "-", 0x0, " "
	DCB	0x0, "S", 0x0, "c", 0x0, "h", 0x0, "e", 0x0, "d", 0x0, "u"
	DCB	0x0, "l", 0x0, "e", 0x0, " ", 0x0, "c", 0x0, "a", 0x0, "l"
	DCB	0x0, "l", 0x0, "e", 0x0, "d", 0x0, " ", 0x0, "d", 0x0, "u"
	DCB	0x0, "r", 0x0, "i", 0x0, "n", 0x0, "g", 0x0, " ", 0x0, "Q"
	DCB	0x0, "H", 0x0, "e", 0x0, "a", 0x0, "d", 0x0, " ", 0x0, "B"
	DCB	0x0, "u", 0x0, "s", 0x0, "y", 0x0, " ", 0x0, "o", 0x0, "r"
	DCB	0x0, " ", 0x0, "n", 0x0, "o", 0x0, "t", 0x0, "h", 0x0, "i"
	DCB	0x0, "n", 0x0, "g", 0x0, " ", 0x0, "t", 0x0, "o", 0x0, " "
	DCB	0x0, "s", 0x0, "c", 0x0, "h", 0x0, "e", 0x0, "d", 0x0, "u"
	DCB	0x0, "l", 0x0, "e", 0x0, "!", 0x0, " ", 0x0, 0xa, 0x0, 0x0
	DCB	0x0					; `string'

  00000			 AREA	 |.rdata|, DATA, READONLY
|??_C@_1DE@HBNHEJMM@?$AAS?$AAc?$AAh?$AAe?$AAd?$AAu?$AAl?$AAe?$AAT?$AAr?$AAa?$AAn?$AAs?$AAf?$AAe?$AAr?$AA?5?$AAf?$AAa?$AAi?$AAl?$AAe?$AAd?$AA?$AN?$AA?6?$AA?$AA@| DCB "S"
	DCB	0x0, "c", 0x0, "h", 0x0, "e", 0x0, "d", 0x0, "u", 0x0, "l"
	DCB	0x0, "e", 0x0, "T", 0x0, "r", 0x0, "a", 0x0, "n", 0x0, "s"
	DCB	0x0, "f", 0x0, "e", 0x0, "r", 0x0, " ", 0x0, "f", 0x0, "a"
	DCB	0x0, "i", 0x0, "l", 0x0, "e", 0x0, "d", 0x0, 0xd, 0x0, 0xa
	DCB	0x0, 0x0, 0x0				; `string'

  00000			 AREA	 |.rdata|, DATA, READONLY
|??_C@_1FG@FKIMPLIC@?$AAS?$AAc?$AAh?$AAe?$AAd?$AAu?$AAl?$AAe?$AAT?$AAr?$AAa?$AAn?$AAs?$AAf?$AAe?$AAr?$AA?5?$AAf?$AAa?$AAi?$AAl?$AAe?$AAd?$AA?5?$AAt?$AAo?$AA?5?$AAa?$AAc?$AAq?$AAu?$AAi@| DCB "S"
	DCB	0x0, "c", 0x0, "h", 0x0, "e", 0x0, "d", 0x0, "u", 0x0, "l"
	DCB	0x0, "e", 0x0, "T", 0x0, "r", 0x0, "a", 0x0, "n", 0x0, "s"
	DCB	0x0, "f", 0x0, "e", 0x0, "r", 0x0, " ", 0x0, "f", 0x0, "a"
	DCB	0x0, "i", 0x0, "l", 0x0, "e", 0x0, "d", 0x0, " ", 0x0, "t"
	DCB	0x0, "o", 0x0, " ", 0x0, "a", 0x0, "c", 0x0, "q", 0x0, "u"
	DCB	0x0, "i", 0x0, "r", 0x0, "e", 0x0, " ", 0x0, "e", 0x0, "p"
	DCB	0x0, " ", 0x0, "%", 0x0, "d", 0x0, 0xd, 0x0, 0xa, 0x0, 0x0
	DCB	0x0					; `string'

  00000			 AREA	 |.rdata|, DATA, READONLY
|??_C@_1HK@IENAOMCM@?$AAS?$AAT?$AA?5?$AAo?$AAn?$AA?5?$AAE?$AAP?$AA?5?$AA0?$AAx?$AA?$CF?$AAx?$AA?0?$AA?5?$AAQ?$AAT?$AA?$CI?$AA0?$AAx?$AA?$CF?$AAx?$AA?$CJ?$AA?0?$AA?5?$AAU?$AAQ?$AAT?$AA?$CI?$AA0?$AAx?$AA?$CF@| DCB "S"
	DCB	0x0, "T", 0x0, " ", 0x0, "o", 0x0, "n", 0x0, " ", 0x0, "E"
	DCB	0x0, "P", 0x0, " ", 0x0, "0", 0x0, "x", 0x0, "%", 0x0, "x"
	DCB	0x0, ",", 0x0, " ", 0x0, "Q", 0x0, "T", 0x0, "(", 0x0, "0"
	DCB	0x0, "x", 0x0, "%", 0x0, "x", 0x0, ")", 0x0, ",", 0x0, " "
	DCB	0x0, "U", 0x0, "Q", 0x0, "T", 0x0, "(", 0x0, "0", 0x0, "x"
	DCB	0x0, "%", 0x0, "x", 0x0, ")", 0x0, ",", 0x0, " ", 0x0, "Q"
	DCB	0x0, "H", 0x0, "(", 0x0, "0", 0x0, "x", 0x0, "%", 0x0, "x"
	DCB	0x0, ")", 0x0, ",", 0x0, " ", 0x0, "A", 0x0, "c", 0x0, "t"
	DCB	0x0, "i", 0x0, "v", 0x0, "e", 0x0, "(", 0x0, "0", 0x0, "x"
	DCB	0x0, "%", 0x0, "x", 0x0, ")", 0x0, 0xd, 0x0, 0xa, 0x0, 0x0
	DCB	0x0					; `string'
; Function compile flags: /Odtp

  01b9c			 AREA	 |.text|, CODE, ARM

  01b9c		 |?ScheduleTransfer@CQueuedPipe@@UAA?AW4HCD_REQUEST_STATUS@@XZ| PROC ; CQueuedPipe::ScheduleTransfer

; 591  : {

  01b9c		 |$LN29@ScheduleTr|
  01b9c	e1a0c00d	 mov         r12, sp
  01ba0	e92d0001	 stmdb       sp!, {r0}
  01ba4	e92d5000	 stmdb       sp!, {r12, lr}
  01ba8	e24dd074	 sub         sp, sp, #0x74
  01bac		 |$M37988|

; 592  :     HCD_REQUEST_STATUS  status = requestFailed;

  01bac	e3a03000	 mov         r3, #0
  01bb0	e58d300c	 str         r3, [sp, #0xC]

; 593  :     BOOL bGetLock = TRUE;

  01bb4	e3a03001	 mov         r3, #1
  01bb8	e58d3008	 str         r3, [sp, #8]

; 594  :     DEBUGMSG(ZONE_TRANSFER, (TEXT("ST on EP 0x%x, QT(0x%x), UQT(0x%x), QH(0x%x), Active(0x%x)\r\n"), 
; 595  :         m_usbEndpointDescriptor.bEndpointAddress, m_pQueuedTransfer, m_pUnQueuedTransfer, m_pPipeQHead,
; 596  :         m_pPipeQHead->IsActive()));

  01bbc	e59f3428	 ldr         r3, [pc, #0x428]
  01bc0	e5933440	 ldr         r3, [r3, #0x440]
  01bc4	e3130c01	 tst         r3, #1, 24
  01bc8	0a000018	 beq         |$LN11@ScheduleTr|
  01bcc	e59d307c	 ldr         r3, [sp, #0x7C]
  01bd0	e2833064	 add         r3, r3, #0x64
  01bd4	e5930000	 ldr         r0, [r3]
  01bd8	eb000000	 bl          |?IsActive@CQH@@QAAHXZ|
  01bdc	e58d0024	 str         r0, [sp, #0x24]
  01be0	e59d3024	 ldr         r3, [sp, #0x24]
  01be4	e58d3004	 str         r3, [sp, #4]
  01be8	e59d307c	 ldr         r3, [sp, #0x7C]
  01bec	e2833064	 add         r3, r3, #0x64
  01bf0	e5933000	 ldr         r3, [r3]
  01bf4	e58d3000	 str         r3, [sp]
  01bf8	e59d307c	 ldr         r3, [sp, #0x7C]
  01bfc	e2833068	 add         r3, r3, #0x68
  01c00	e5933000	 ldr         r3, [r3]
  01c04	e59d207c	 ldr         r2, [sp, #0x7C]
  01c08	e282206c	 add         r2, r2, #0x6C
  01c0c	e5922000	 ldr         r2, [r2]
  01c10	e59d107c	 ldr         r1, [sp, #0x7C]
  01c14	e2811036	 add         r1, r1, #0x36
  01c18	e5d11000	 ldrb        r1, [r1]
  01c1c	e59f03e0	 ldr         r0, [pc, #0x3E0]
  01c20	eb000000	 bl          NKDbgPrintfW
  01c24	e3a03001	 mov         r3, #1
  01c28	e58d3028	 str         r3, [sp, #0x28]
  01c2c	ea000001	 b           |$LN12@ScheduleTr|
  01c30		 |$LN11@ScheduleTr|
  01c30	e3a03000	 mov         r3, #0
  01c34	e58d3028	 str         r3, [sp, #0x28]
  01c38		 |$LN12@ScheduleTr|

; 597  :     EnterCriticalSection( &m_csPipeLock );

  01c38	e59d307c	 ldr         r3, [sp, #0x7C]
  01c3c	e2830020	 add         r0, r3, #0x20
  01c40	eb000000	 bl          EnterCriticalSection

; 598  :     if ( m_pQueuedTransfer == NULL && m_pUnQueuedTransfer!=NULL  && 
; 599  :             m_pPipeQHead && m_pPipeQHead->IsActive()==FALSE)

  01c44	e59d307c	 ldr         r3, [sp, #0x7C]
  01c48	e283306c	 add         r3, r3, #0x6C
  01c4c	e5933000	 ldr         r3, [r3]
  01c50	e3530000	 cmp         r3, #0
  01c54	1a0000c6	 bne         |$LN8@ScheduleTr|
  01c58	e59d307c	 ldr         r3, [sp, #0x7C]
  01c5c	e2833068	 add         r3, r3, #0x68
  01c60	e5933000	 ldr         r3, [r3]
  01c64	e3530000	 cmp         r3, #0
  01c68	0a0000c1	 beq         |$LN8@ScheduleTr|
  01c6c	e59d307c	 ldr         r3, [sp, #0x7C]
  01c70	e2833064	 add         r3, r3, #0x64
  01c74	e5933000	 ldr         r3, [r3]
  01c78	e3530000	 cmp         r3, #0
  01c7c	0a0000bc	 beq         |$LN8@ScheduleTr|
  01c80	e59d307c	 ldr         r3, [sp, #0x7C]
  01c84	e2833064	 add         r3, r3, #0x64
  01c88	e5930000	 ldr         r0, [r3]
  01c8c	eb000000	 bl          |?IsActive@CQH@@QAAHXZ|
  01c90	e58d002c	 str         r0, [sp, #0x2C]
  01c94	e59d302c	 ldr         r3, [sp, #0x2C]
  01c98	e3530000	 cmp         r3, #0
  01c9c	1a0000b4	 bne         |$LN8@ScheduleTr|

; 600  :     { // We need cqueue new Transfer.        
; 601  :         CQTransfer * pCurTransfer = m_pUnQueuedTransfer;        

  01ca0	e59d307c	 ldr         r3, [sp, #0x7C]
  01ca4	e2833068	 add         r3, r3, #0x68
  01ca8	e5933000	 ldr         r3, [r3]
  01cac	e58d3010	 str         r3, [sp, #0x10]

; 602  :         ASSERT(pCurTransfer!=NULL);

  01cb0	e59d3010	 ldr         r3, [sp, #0x10]
  01cb4	e3530000	 cmp         r3, #0
  01cb8	0a000002	 beq         |$LN13@ScheduleTr|
  01cbc	e3a03001	 mov         r3, #1
  01cc0	e58d3030	 str         r3, [sp, #0x30]
  01cc4	ea000008	 b           |$LN14@ScheduleTr|
  01cc8		 |$LN13@ScheduleTr|
  01cc8	e3a03c02	 mov         r3, #2, 24
  01ccc	e383305a	 orr         r3, r3, #0x5A
  01cd0	e59f2324	 ldr         r2, [pc, #0x324]
  01cd4	e59f131c	 ldr         r1, [pc, #0x31C]
  01cd8	e59f0314	 ldr         r0, [pc, #0x314]
  01cdc	eb000000	 bl          NKDbgPrintfW
  01ce0	e6000010	 __debugbreak_ce
  01ce4	e3a03000	 mov         r3, #0
  01ce8	e58d3030	 str         r3, [sp, #0x30]
  01cec		 |$LN14@ScheduleTr|

; 603  :         m_pUnQueuedTransfer = (CQTransfer * )pCurTransfer->GetNextTransfer();

  01cec	e59d0010	 ldr         r0, [sp, #0x10]
  01cf0	eb000000	 bl          |?GetNextTransfer@CTransfer@@QAAPAV1@XZ|
  01cf4	e58d0034	 str         r0, [sp, #0x34]
  01cf8	e59d307c	 ldr         r3, [sp, #0x7C]
  01cfc	e2832068	 add         r2, r3, #0x68
  01d00	e59d3034	 ldr         r3, [sp, #0x34]
  01d04	e5823000	 str         r3, [r2]

; 604  :         pCurTransfer->SetNextTransfer(NULL);

  01d08	e3a01000	 mov         r1, #0
  01d0c	e59d0010	 ldr         r0, [sp, #0x10]
  01d10	eb000000	 bl          |?SetNextTransfer@CTransfer@@QAAXPAV1@@Z|

; 605  :         m_pQueuedTransfer = pCurTransfer;            

  01d14	e59d307c	 ldr         r3, [sp, #0x7C]
  01d18	e283206c	 add         r2, r3, #0x6C
  01d1c	e59d3010	 ldr         r3, [sp, #0x10]
  01d20	e5823000	 str         r3, [r2]

; 606  : 
; 607  :         // Acquire the Phyical EndPoint now    
; 608  :         if(USB_ENDPOINT(m_usbEndpointDescriptor.bEndpointAddress) == 0)

  01d24	e59d307c	 ldr         r3, [sp, #0x7C]
  01d28	e2833036	 add         r3, r3, #0x36
  01d2c	e5d33000	 ldrb        r3, [r3]
  01d30	e313000f	 tst         r3, #0xF
  01d34	1a000017	 bne         |$LN7@ScheduleTr|

; 609  :             bGetLock = m_pCMhcd->LockEP0(GetReservedDeviceAddr());

  01d38	e59d307c	 ldr         r3, [sp, #0x7C]
  01d3c	e5933000	 ldr         r3, [r3]
  01d40	e2833028	 add         r3, r3, #0x28
  01d44	e59d007c	 ldr         r0, [sp, #0x7C]
  01d48	e5933000	 ldr         r3, [r3]
  01d4c	e1a0e00f	 mov         lr, pc
  01d50	e12fff13	 bx          r3
  01d54	e5cd0038	 strb        r0, [sp, #0x38]
  01d58	e5dd1038	 ldrb        r1, [sp, #0x38]
  01d5c	e59d307c	 ldr         r3, [sp, #0x7C]
  01d60	e283300c	 add         r3, r3, #0xC
  01d64	e5932000	 ldr         r2, [r3]
  01d68	e59d307c	 ldr         r3, [sp, #0x7C]
  01d6c	e283300c	 add         r3, r3, #0xC
  01d70	e5930000	 ldr         r0, [r3]
  01d74	e5923000	 ldr         r3, [r2]
  01d78	e2833074	 add         r3, r3, #0x74
  01d7c	e5933000	 ldr         r3, [r3]
  01d80	e1a0e00f	 mov         lr, pc
  01d84	e12fff13	 bx          r3
  01d88	e58d003c	 str         r0, [sp, #0x3C]
  01d8c	e59d303c	 ldr         r3, [sp, #0x3C]
  01d90	e58d3008	 str         r3, [sp, #8]

; 610  :         else

  01d94	ea000011	 b           |$LN6@ScheduleTr|
  01d98		 |$LN7@ScheduleTr|

; 611  :         {
; 612  :             UCHAR ep = m_pCMhcd->AcquirePhysicalEndPoint(this);        

  01d98	e59d107c	 ldr         r1, [sp, #0x7C]
  01d9c	e59d307c	 ldr         r3, [sp, #0x7C]
  01da0	e283300c	 add         r3, r3, #0xC
  01da4	e5930000	 ldr         r0, [r3]
  01da8	eb000000	 bl          |?AcquirePhysicalEndPoint@CHW@@QAAEPAVCPipe@@@Z|
  01dac	e5cd0040	 strb        r0, [sp, #0x40]
  01db0	e5dd3040	 ldrb        r3, [sp, #0x40]
  01db4	e5cd3014	 strb        r3, [sp, #0x14]

; 613  :             bGetLock = (ep == 0xff)? FALSE: TRUE;

  01db8	e5dd3014	 ldrb        r3, [sp, #0x14]
  01dbc	e35300ff	 cmp         r3, #0xFF
  01dc0	1a000002	 bne         |$LN15@ScheduleTr|
  01dc4	e3a03000	 mov         r3, #0
  01dc8	e58d3044	 str         r3, [sp, #0x44]
  01dcc	ea000001	 b           |$LN16@ScheduleTr|
  01dd0		 |$LN15@ScheduleTr|
  01dd0	e3a03001	 mov         r3, #1
  01dd4	e58d3044	 str         r3, [sp, #0x44]
  01dd8		 |$LN16@ScheduleTr|
  01dd8	e59d3044	 ldr         r3, [sp, #0x44]
  01ddc	e58d3008	 str         r3, [sp, #8]
  01de0		 |$LN6@ScheduleTr|

; 614  :         }
; 615  : 
; 616  :         if (bGetLock == FALSE)

  01de0	e59d3008	 ldr         r3, [sp, #8]
  01de4	e3530000	 cmp         r3, #0
  01de8	1a000012	 bne         |$LN5@ScheduleTr|

; 617  :         {
; 618  :             status = requestFailed;

  01dec	e3a03000	 mov         r3, #0
  01df0	e58d300c	 str         r3, [sp, #0xC]

; 619  :             m_pQueuedTransfer = NULL;

  01df4	e59d307c	 ldr         r3, [sp, #0x7C]
  01df8	e283206c	 add         r2, r3, #0x6C
  01dfc	e3a03000	 mov         r3, #0
  01e00	e5823000	 str         r3, [r2]

; 620  :             RETAILMSG(1, (TEXT("ScheduleTransfer failed to acquire ep %d\r\n"), 
; 621  :                 m_usbEndpointDescriptor.bEndpointAddress));

  01e04	e59d307c	 ldr         r3, [sp, #0x7C]
  01e08	e2833036	 add         r3, r3, #0x36
  01e0c	e5d33000	 ldrb        r3, [r3]
  01e10	e1a01003	 mov         r1, r3
  01e14	e59f01e4	 ldr         r0, [pc, #0x1E4]
  01e18	eb000000	 bl          NKDbgPrintfW
  01e1c	e3a03001	 mov         r3, #1
  01e20	e58d3048	 str         r3, [sp, #0x48]
  01e24	ea000001	 b           |$LN18@ScheduleTr|
  01e28	e3a03000	 mov         r3, #0
  01e2c	e58d3048	 str         r3, [sp, #0x48]
  01e30		 |$LN18@ScheduleTr|

; 622  :             goto SCHEDULE_TRANSFER_EXIT;

  01e30	ea000063	 b           |$LN4@ScheduleTr|
  01e34	ea000062	 b           |$SCHEDULE_TRANSFER_EXIT$36767|
  01e38		 |$LN5@ScheduleTr|

; 623  :         }
; 624  :         
; 625  :         if (GetQHead()->IssueTransfer(pCurTransfer->GetCQTDList())==ERROR_SUCCESS) {

  01e38	e59d0010	 ldr         r0, [sp, #0x10]
  01e3c	eb000000	 bl          |?GetCQTDList@CQTransfer@@QAAPAVCQTD@@XZ|
  01e40	e58d004c	 str         r0, [sp, #0x4C]
  01e44	e59d307c	 ldr         r3, [sp, #0x7C]
  01e48	e5933000	 ldr         r3, [r3]
  01e4c	e2833044	 add         r3, r3, #0x44
  01e50	e59d007c	 ldr         r0, [sp, #0x7C]
  01e54	e5933000	 ldr         r3, [r3]
  01e58	e1a0e00f	 mov         lr, pc
  01e5c	e12fff13	 bx          r3
  01e60	e58d0050	 str         r0, [sp, #0x50]
  01e64	e59d104c	 ldr         r1, [sp, #0x4C]
  01e68	e59d0050	 ldr         r0, [sp, #0x50]
  01e6c	eb000000	 bl          |?IssueTransfer@CQH@@QAAKPAVCQTD@@@Z|
  01e70	e58d0054	 str         r0, [sp, #0x54]
  01e74	e59d3054	 ldr         r3, [sp, #0x54]
  01e78	e3530000	 cmp         r3, #0
  01e7c	1a000018	 bne         |$LN3@ScheduleTr|

; 626  :             ASSERT(pCurTransfer->GetCQTDList()->GetTransfer()== pCurTransfer);

  01e80	e59d0010	 ldr         r0, [sp, #0x10]
  01e84	eb000000	 bl          |?GetCQTDList@CQTransfer@@QAAPAVCQTD@@XZ|
  01e88	e58d0058	 str         r0, [sp, #0x58]
  01e8c	e59d0058	 ldr         r0, [sp, #0x58]
  01e90	eb000000	 bl          |?GetTransfer@CQTD@@QAAPAVCQTransfer@@XZ|
  01e94	e58d005c	 str         r0, [sp, #0x5C]
  01e98	e59d205c	 ldr         r2, [sp, #0x5C]
  01e9c	e59d3010	 ldr         r3, [sp, #0x10]
  01ea0	e1520003	 cmp         r2, r3
  01ea4	1a000002	 bne         |$LN19@ScheduleTr|
  01ea8	e3a03001	 mov         r3, #1
  01eac	e58d3060	 str         r3, [sp, #0x60]
  01eb0	ea000008	 b           |$LN20@ScheduleTr|
  01eb4		 |$LN19@ScheduleTr|
  01eb4	e3a03c02	 mov         r3, #2, 24
  01eb8	e3833072	 orr         r3, r3, #0x72
  01ebc	e59f2138	 ldr         r2, [pc, #0x138]
  01ec0	e59f1130	 ldr         r1, [pc, #0x130]
  01ec4	e59f0128	 ldr         r0, [pc, #0x128]
  01ec8	eb000000	 bl          NKDbgPrintfW
  01ecc	e6000010	 __debugbreak_ce
  01ed0	e3a03000	 mov         r3, #0
  01ed4	e58d3060	 str         r3, [sp, #0x60]
  01ed8		 |$LN20@ScheduleTr|

; 627  :             status=requestOK ;

  01ed8	e3a03001	 mov         r3, #1
  01edc	e58d300c	 str         r3, [sp, #0xC]

; 628  :         }
; 629  :         else {

  01ee0	ea000022	 b           |$LN2@ScheduleTr|
  01ee4		 |$LN3@ScheduleTr|

; 630  :             ASSERT(FALSE);

  01ee4	ea000002	 b           |$LN21@ScheduleTr|
  01ee8	e3a03001	 mov         r3, #1
  01eec	e58d3064	 str         r3, [sp, #0x64]
  01ef0	ea000008	 b           |$LN22@ScheduleTr|
  01ef4		 |$LN21@ScheduleTr|
  01ef4	e3a03c02	 mov         r3, #2, 24
  01ef8	e3833076	 orr         r3, r3, #0x76
  01efc	e59f20f8	 ldr         r2, [pc, #0xF8]
  01f00	e59f10f0	 ldr         r1, [pc, #0xF0]
  01f04	e59f00e8	 ldr         r0, [pc, #0xE8]
  01f08	eb000000	 bl          NKDbgPrintfW
  01f0c	e6000010	 __debugbreak_ce
  01f10	e3a03000	 mov         r3, #0
  01f14	e58d3064	 str         r3, [sp, #0x64]
  01f18		 |$LN22@ScheduleTr|

; 631  :             // Can not Queue. 
; 632  :             RETAILMSG(1, (TEXT("ScheduleTransfer failed\r\n")));

  01f18	e59f00d0	 ldr         r0, [pc, #0xD0]
  01f1c	eb000000	 bl          NKDbgPrintfW
  01f20	e3a03001	 mov         r3, #1
  01f24	e58d3068	 str         r3, [sp, #0x68]
  01f28	ea000001	 b           |$LN24@ScheduleTr|
  01f2c	e3a03000	 mov         r3, #0
  01f30	e58d3068	 str         r3, [sp, #0x68]
  01f34		 |$LN24@ScheduleTr|

; 633  :             m_fIsHalted = TRUE;            

  01f34	e59d307c	 ldr         r3, [sp, #0x7C]
  01f38	e2832044	 add         r2, r3, #0x44
  01f3c	e3a03001	 mov         r3, #1
  01f40	e5823000	 str         r3, [r2]

; 634  :             m_pQueuedTransfer ->AbortTransfer();

  01f44	e59d307c	 ldr         r3, [sp, #0x7C]
  01f48	e283306c	 add         r3, r3, #0x6C
  01f4c	e5930000	 ldr         r0, [r3]
  01f50	eb000000	 bl          |?AbortTransfer@CQTransfer@@QAAHXZ|

; 635  :             //ProcessEP(STATUS_PROCESS_ABORT);
; 636  :             // we should not use ProcessEP, but global abort instead
; 637  :             CheckForDoneTransfers();

  01f54	e59d307c	 ldr         r3, [sp, #0x7C]
  01f58	e5933000	 ldr         r3, [r3]
  01f5c	e2833034	 add         r3, r3, #0x34
  01f60	e59d007c	 ldr         r0, [sp, #0x7C]
  01f64	e5933000	 ldr         r3, [r3]
  01f68	e1a0e00f	 mov         lr, pc
  01f6c	e12fff13	 bx          r3
  01f70		 |$LN2@ScheduleTr|

; 638  :         }
; 639  :     }
; 640  :     else 

  01f70	ea000013	 b           |$LN1@ScheduleTr|
  01f74		 |$LN8@ScheduleTr|

; 641  :         DEBUGMSG( ZONE_TRANSFER, (TEXT("-CPipe(%s)::ScheduleTransfer - Schedule called during QHead Busy or nothing to schedule! \n"), GetPipeType()) );

  01f74	e59f3070	 ldr         r3, [pc, #0x70]
  01f78	e5933440	 ldr         r3, [r3, #0x440]
  01f7c	e3130c01	 tst         r3, #1, 24
  01f80	0a00000d	 beq         |$LN25@ScheduleTr|
  01f84	e59d307c	 ldr         r3, [sp, #0x7C]
  01f88	e5933000	 ldr         r3, [r3]
  01f8c	e2833040	 add         r3, r3, #0x40
  01f90	e59d007c	 ldr         r0, [sp, #0x7C]
  01f94	e5933000	 ldr         r3, [r3]
  01f98	e1a0e00f	 mov         lr, pc
  01f9c	e12fff13	 bx          r3
  01fa0	e58d006c	 str         r0, [sp, #0x6C]
  01fa4	e59d106c	 ldr         r1, [sp, #0x6C]
  01fa8	e59f0038	 ldr         r0, [pc, #0x38]
  01fac	eb000000	 bl          NKDbgPrintfW
  01fb0	e3a03001	 mov         r3, #1
  01fb4	e58d3070	 str         r3, [sp, #0x70]
  01fb8	ea000001	 b           |$LN26@ScheduleTr|
  01fbc		 |$LN25@ScheduleTr|
  01fbc	e3a03000	 mov         r3, #0
  01fc0	e58d3070	 str         r3, [sp, #0x70]
  01fc4		 |$LN26@ScheduleTr|
  01fc4		 |$LN1@ScheduleTr|
  01fc4		 |$LN4@ScheduleTr|
  01fc4		 |$SCHEDULE_TRANSFER_EXIT$36767|

; 642  : 
; 643  : SCHEDULE_TRANSFER_EXIT:
; 644  :     LeaveCriticalSection( &m_csPipeLock );

  01fc4	e59d307c	 ldr         r3, [sp, #0x7C]
  01fc8	e2830020	 add         r0, r3, #0x20
  01fcc	eb000000	 bl          LeaveCriticalSection

; 645  :     return status;

  01fd0	e59d300c	 ldr         r3, [sp, #0xC]
  01fd4	e58d3020	 str         r3, [sp, #0x20]

; 646  : }

  01fd8	e59d0020	 ldr         r0, [sp, #0x20]
  01fdc	e28dd074	 add         sp, sp, #0x74
  01fe0	e89d6000	 ldmia       sp, {sp, lr}
  01fe4	e12fff1e	 bx          lr
  01fe8		 |$LN30@ScheduleTr|
  01fe8		 |$LN31@ScheduleTr|
  01fe8	00000000	 DCD         |??_C@_1LG@LENACAKG@?$AA?9?$AAC?$AAP?$AAi?$AAp?$AAe?$AA?$CI?$AA?$CF?$AAs?$AA?$CJ?$AA?3?$AA?3?$AAS?$AAc?$AAh?$AAe?$AAd?$AAu?$AAl?$AAe?$AAT?$AAr?$AAa?$AAn?$AAs?$AAf?$AAe?$AAr?$AA?5?$AA?9?$AA?5?$AAS@|
  01fec		 |$LN32@ScheduleTr|
  01fec	00000000	 DCD         |dpCurSettings|
  01ff0		 |$LN33@ScheduleTr|
  01ff0	00000000	 DCD         |??_C@_1DE@HBNHEJMM@?$AAS?$AAc?$AAh?$AAe?$AAd?$AAu?$AAl?$AAe?$AAT?$AAr?$AAa?$AAn?$AAs?$AAf?$AAe?$AAr?$AA?5?$AAf?$AAa?$AAi?$AAl?$AAe?$AAd?$AA?$AN?$AA?6?$AA?$AA@|
  01ff4		 |$LN34@ScheduleTr|
  01ff4	00000000	 DCD         |??_C@_1FK@FNONLNGN@?$AA?$CF?$AAs?$AA?3?$AA?5?$AAD?$AAE?$AAB?$AAU?$AAG?$AAC?$AAH?$AAK?$AA?5?$AAf?$AAa?$AAi?$AAl?$AAe?$AAd?$AA?5?$AAi?$AAn?$AA?5?$AAf?$AAi?$AAl?$AAe?$AA?5?$AA?$CF?$AAs?$AA?5?$AAa@|
  01ff8		 |$LN35@ScheduleTr|
  01ff8	00000000	 DCD         |??_C@_1BA@LEPJIIOK@?$AAU?$AAn?$AAk?$AAn?$AAo?$AAw?$AAn?$AA?$AA@|
  01ffc		 |$LN36@ScheduleTr|
  01ffc	00000000	 DCD         |??_C@_1LK@LMPDOKKA@?$AAC?$AA?3?$AA?2?$AAW?$AAI?$AAN?$AAC?$AAE?$AA6?$AA0?$AA0?$AA?2?$AAP?$AAL?$AAA?$AAT?$AAF?$AAO?$AAR?$AAM?$AA?2?$AAC?$AAO?$AAM?$AAM?$AAO?$AAN?$AA?2?$AAS?$AAR?$AAC?$AA?2@|
  02000		 |$LN37@ScheduleTr|
  02000	00000000	 DCD         |??_C@_1FG@FKIMPLIC@?$AAS?$AAc?$AAh?$AAe?$AAd?$AAu?$AAl?$AAe?$AAT?$AAr?$AAa?$AAn?$AAs?$AAf?$AAe?$AAr?$AA?5?$AAf?$AAa?$AAi?$AAl?$AAe?$AAd?$AA?5?$AAt?$AAo?$AA?5?$AAa?$AAc?$AAq?$AAu?$AAi@|
  02004		 |$LN38@ScheduleTr|
  02004	00000000	 DCD         |??_C@_1HK@IENAOMCM@?$AAS?$AAT?$AA?5?$AAo?$AAn?$AA?5?$AAE?$AAP?$AA?5?$AA0?$AAx?$AA?$CF?$AAx?$AA?0?$AA?5?$AAQ?$AAT?$AA?$CI?$AA0?$AAx?$AA?$CF?$AAx?$AA?$CJ?$AA?0?$AA?5?$AAU?$AAQ?$AAT?$AA?$CI?$AA0?$AAx?$AA?$CF@|
  02008		 |$M37989|

			 ENDP  ; |?ScheduleTransfer@CQueuedPipe@@UAA?AW4HCD_REQUEST_STATUS@@XZ|, CQueuedPipe::ScheduleTransfer

; File c:\wince600\platform\common\src\soc\common_ti_v1\omap3530\musb\musbhcd\musbmhdrc\ctd.h

  00000			 AREA	 |.pdata|, PDATA
|$T38006| DCD	|$LN5@GetTransfe|
	DCD	0x40000b04
; Function compile flags: /Odtp

  00000			 AREA	 |.text|, CODE, ARM

  00000		 |?GetTransfer@CQTD@@QAAPAVCQTransfer@@XZ| PROC ; CQTD::GetTransfer

; 81   :     CQTransfer * GetTransfer() {return m_pTrans; };

  00000		 |$LN5@GetTransfe|
  00000	e1a0c00d	 mov         r12, sp
  00004	e92d0001	 stmdb       sp!, {r0}
  00008	e92d5000	 stmdb       sp!, {r12, lr}
  0000c	e24dd004	 sub         sp, sp, #4
  00010		 |$M38003|
  00010	e59d300c	 ldr         r3, [sp, #0xC]
  00014	e5933000	 ldr         r3, [r3]
  00018	e58d3000	 str         r3, [sp]
  0001c	e59d0000	 ldr         r0, [sp]
  00020	e28dd004	 add         sp, sp, #4
  00024	e89d6000	 ldmia       sp, {sp, lr}
  00028	e12fff1e	 bx          lr
  0002c		 |$M38004|

			 ENDP  ; |?GetTransfer@CQTD@@QAAPAVCQTransfer@@XZ|, CQTD::GetTransfer

; File c:\wince600\platform\common\src\soc\common_ti_v1\omap3530\musb\musbhcd\musbmhdrc\trans.h

  00000			 AREA	 |.pdata|, PDATA
|$T38014| DCD	|$LN5@GetCQTDLis|
	DCD	0x40000c04
; Function compile flags: /Odtp

  00000			 AREA	 |.text|, CODE, ARM

  00000		 |?GetCQTDList@CQTransfer@@QAAPAVCQTD@@XZ| PROC ; CQTransfer::GetCQTDList

; 94   :     CQTD *GetCQTDList() { return m_pCQTDList; };

  00000		 |$LN5@GetCQTDLis|
  00000	e1a0c00d	 mov         r12, sp
  00004	e92d0001	 stmdb       sp!, {r0}
  00008	e92d5000	 stmdb       sp!, {r12, lr}
  0000c	e24dd004	 sub         sp, sp, #4
  00010		 |$M38011|
  00010	e59d300c	 ldr         r3, [sp, #0xC]
  00014	e2833068	 add         r3, r3, #0x68
  00018	e5933000	 ldr         r3, [r3]
  0001c	e58d3000	 str         r3, [sp]
  00020	e59d0000	 ldr         r0, [sp]
  00024	e28dd004	 add         sp, sp, #4
  00028	e89d6000	 ldmia       sp, {sp, lr}
  0002c	e12fff1e	 bx          lr
  00030		 |$M38012|

			 ENDP  ; |?GetCQTDList@CQTransfer@@QAAPAVCQTD@@XZ|, CQTransfer::GetCQTDList

	EXPORT	|??_C@_1HM@MEDIMPJF@?$AAP?$AAr?$AAo?$AAc?$AAe?$AAs?$AAs?$AAE?$AAP?$AA?5?$AAe?$AAm?$AAp?$AAt?$AAy?$AA?5?$AAm?$AA_?$AAp?$AAQ?$AAu?$AAe?$AAu?$AAe?$AAd?$AAT?$AAr?$AAa?$AAn?$AAs?$AAf?$AAe@| [ DATA ] ; `string'
	IMPORT	|?ProcessEP@CQTransfer@@QAAHKH@Z|	; CQTransfer::ProcessEP

  00090			 AREA	 |.pdata|, PDATA
|$T38024| DCD	|$LN9@ProcessEP|
	DCD	0x40003b04
; File c:\wince600\platform\common\src\soc\common_ti_v1\omap3530\musb\musbhcd\musbmhdrc\cpipe.cpp

  00000			 AREA	 |.rdata|, DATA, READONLY
|??_C@_1HM@MEDIMPJF@?$AAP?$AAr?$AAo?$AAc?$AAe?$AAs?$AAs?$AAE?$AAP?$AA?5?$AAe?$AAm?$AAp?$AAt?$AAy?$AA?5?$AAm?$AA_?$AAp?$AAQ?$AAu?$AAe?$AAu?$AAe?$AAd?$AAT?$AAr?$AAa?$AAn?$AAs?$AAf?$AAe@| DCB "P"
	DCB	0x0, "r", 0x0, "o", 0x0, "c", 0x0, "e", 0x0, "s", 0x0, "s"
	DCB	0x0, "E", 0x0, "P", 0x0, " ", 0x0, "e", 0x0, "m", 0x0, "p"
	DCB	0x0, "t", 0x0, "y", 0x0, " ", 0x0, "m", 0x0, "_", 0x0, "p"
	DCB	0x0, "Q", 0x0, "u", 0x0, "e", 0x0, "u", 0x0, "e", 0x0, "d"
	DCB	0x0, "T", 0x0, "r", 0x0, "a", 0x0, "n", 0x0, "s", 0x0, "f"
	DCB	0x0, "e", 0x0, "r", 0x0, "(", 0x0, "0", 0x0, "x", 0x0, "%"
	DCB	0x0, "x", 0x0, ")", 0x0, ",", 0x0, " ", 0x0, "m", 0x0, "_"
	DCB	0x0, "p", 0x0, "P", 0x0, "i", 0x0, "p", 0x0, "e", 0x0, "Q"
	DCB	0x0, "H", 0x0, "e", 0x0, "a", 0x0, "d", 0x0, "(", 0x0, "0"
	DCB	0x0, "x", 0x0, "%", 0x0, "x", 0x0, ")", 0x0, 0xd, 0x0, 0xa
	DCB	0x0, 0x0, 0x0				; `string'
; Function compile flags: /Odtp

  02008			 AREA	 |.text|, CODE, ARM

  02008		 |?ProcessEP@CQueuedPipe@@UAAHKH@Z| PROC ; CQueuedPipe::ProcessEP

; 658  : {

  02008		 |$LN9@ProcessEP|
  02008	e1a0c00d	 mov         r12, sp
  0200c	e92d0007	 stmdb       sp!, {r0 - r2}
  02010	e92d5000	 stmdb       sp!, {r12, lr}
  02014	e24dd014	 sub         sp, sp, #0x14
  02018		 |$M38021|

; 659  :     BOOL bReturn = FALSE;

  02018	e3a03000	 mov         r3, #0
  0201c	e58d3000	 str         r3, [sp]

; 660  :     EnterCriticalSection( &m_csPipeLock );

  02020	e59d301c	 ldr         r3, [sp, #0x1C]
  02024	e2830020	 add         r0, r3, #0x20
  02028	eb000000	 bl          EnterCriticalSection

; 661  :     
; 662  :     if (m_pQueuedTransfer!=NULL && m_pPipeQHead!=NULL) {

  0202c	e59d301c	 ldr         r3, [sp, #0x1C]
  02030	e283306c	 add         r3, r3, #0x6C
  02034	e5933000	 ldr         r3, [r3]
  02038	e3530000	 cmp         r3, #0
  0203c	0a000010	 beq         |$LN2@ProcessEP|
  02040	e59d301c	 ldr         r3, [sp, #0x1C]
  02044	e2833064	 add         r3, r3, #0x64
  02048	e5933000	 ldr         r3, [r3]
  0204c	e3530000	 cmp         r3, #0
  02050	0a00000b	 beq         |$LN2@ProcessEP|

; 663  :         // Check All the transfer done or not.
; 664  :         CQTransfer * pCurTransfer = m_pQueuedTransfer;                        

  02054	e59d301c	 ldr         r3, [sp, #0x1C]
  02058	e283306c	 add         r3, r3, #0x6C
  0205c	e5933000	 ldr         r3, [r3]
  02060	e58d3004	 str         r3, [sp, #4]

; 665  :         bReturn = pCurTransfer->ProcessEP(dwStatus, isDMA);

  02064	e59d2024	 ldr         r2, [sp, #0x24]
  02068	e59d1020	 ldr         r1, [sp, #0x20]
  0206c	e59d0004	 ldr         r0, [sp, #4]
  02070	eb000000	 bl          |?ProcessEP@CQTransfer@@QAAHKH@Z|
  02074	e58d000c	 str         r0, [sp, #0xC]
  02078	e59d300c	 ldr         r3, [sp, #0xC]
  0207c	e58d3000	 str         r3, [sp]

; 666  :     }
; 667  :     else

  02080	ea000010	 b           |$LN1@ProcessEP|
  02084		 |$LN2@ProcessEP|

; 668  :         DEBUGMSG(ZONE_TRANSFER, (TEXT("ProcessEP empty m_pQueuedTransfer(0x%x), m_pPipeQHead(0x%x)\r\n"),
; 669  :             m_pQueuedTransfer, m_pPipeQHead));

  02084	e59f3064	 ldr         r3, [pc, #0x64]
  02088	e5933440	 ldr         r3, [r3, #0x440]
  0208c	e3130c01	 tst         r3, #1, 24
  02090	0a00000a	 beq         |$LN5@ProcessEP|
  02094	e59d301c	 ldr         r3, [sp, #0x1C]
  02098	e2833064	 add         r3, r3, #0x64
  0209c	e5932000	 ldr         r2, [r3]
  020a0	e59d301c	 ldr         r3, [sp, #0x1C]
  020a4	e283306c	 add         r3, r3, #0x6C
  020a8	e5931000	 ldr         r1, [r3]
  020ac	e59f0038	 ldr         r0, [pc, #0x38]
  020b0	eb000000	 bl          NKDbgPrintfW
  020b4	e3a03001	 mov         r3, #1
  020b8	e58d3010	 str         r3, [sp, #0x10]
  020bc	ea000001	 b           |$LN6@ProcessEP|
  020c0		 |$LN5@ProcessEP|
  020c0	e3a03000	 mov         r3, #0
  020c4	e58d3010	 str         r3, [sp, #0x10]
  020c8		 |$LN6@ProcessEP|
  020c8		 |$LN1@ProcessEP|

; 670  :     LeaveCriticalSection( &m_csPipeLock );

  020c8	e59d301c	 ldr         r3, [sp, #0x1C]
  020cc	e2830020	 add         r0, r3, #0x20
  020d0	eb000000	 bl          LeaveCriticalSection

; 671  :     return bReturn;   

  020d4	e59d3000	 ldr         r3, [sp]
  020d8	e58d3008	 str         r3, [sp, #8]

; 672  : 
; 673  : 
; 674  : }

  020dc	e59d0008	 ldr         r0, [sp, #8]
  020e0	e28dd014	 add         sp, sp, #0x14
  020e4	e89d6000	 ldmia       sp, {sp, lr}
  020e8	e12fff1e	 bx          lr
  020ec		 |$LN10@ProcessEP|
  020ec		 |$LN11@ProcessEP|
  020ec	00000000	 DCD         |??_C@_1HM@MEDIMPJF@?$AAP?$AAr?$AAo?$AAc?$AAe?$AAs?$AAs?$AAE?$AAP?$AA?5?$AAe?$AAm?$AAp?$AAt?$AAy?$AA?5?$AAm?$AA_?$AAp?$AAQ?$AAu?$AAe?$AAu?$AAe?$AAd?$AAT?$AAr?$AAa?$AAn?$AAs?$AAf?$AAe@|
  020f0		 |$LN12@ProcessEP|
  020f0	00000000	 DCD         |dpCurSettings|
  020f4		 |$M38022|

			 ENDP  ; |?ProcessEP@CQueuedPipe@@UAAHKH@Z|, CQueuedPipe::ProcessEP

	EXPORT	|??_C@_1EO@MPJDFLCG@?$AAH?$AAa?$AAl?$AAt?$AA?5?$AAa?$AAn?$AAd?$AA?5?$AAn?$AAe?$AAe?$AAd?$AA?5?$AAt?$AAo?$AA?5?$AAd?$AAo?$AA?5?$AAs?$AAo?$AAm?$AAe?$AA?5?$AAd?$AAa?$AAt?$AAa?$AA?5?$AAt?$AAo@| [ DATA ] ; `string'
	IMPORT	|?IsTransferDone@CQTransfer@@QAAHXZ|	; CQTransfer::IsTransferDone

  00098			 AREA	 |.pdata|, PDATA
|$T38043| DCD	|$LN18@CheckForDo|
	DCD	0x40009504

  00000			 AREA	 |.rdata|, DATA, READONLY
|??_C@_1EO@MPJDFLCG@?$AAH?$AAa?$AAl?$AAt?$AA?5?$AAa?$AAn?$AAd?$AA?5?$AAn?$AAe?$AAe?$AAd?$AA?5?$AAt?$AAo?$AA?5?$AAd?$AAo?$AA?5?$AAs?$AAo?$AAm?$AAe?$AA?5?$AAd?$AAa?$AAt?$AAa?$AA?5?$AAt?$AAo@| DCB "H"
	DCB	0x0, "a", 0x0, "l", 0x0, "t", 0x0, " ", 0x0, "a", 0x0, "n"
	DCB	0x0, "d", 0x0, " ", 0x0, "n", 0x0, "e", 0x0, "e", 0x0, "d"
	DCB	0x0, " ", 0x0, "t", 0x0, "o", 0x0, " ", 0x0, "d", 0x0, "o"
	DCB	0x0, " ", 0x0, "s", 0x0, "o", 0x0, "m", 0x0, "e", 0x0, " "
	DCB	0x0, "d", 0x0, "a", 0x0, "t", 0x0, "a", 0x0, " ", 0x0, "t"
	DCB	0x0, "o", 0x0, "g", 0x0, "g", 0x0, "l", 0x0, "e", 0x0, 0xd
	DCB	0x0, 0xa, 0x0, 0x0, 0x0			; `string'
; Function compile flags: /Odtp

  020f4			 AREA	 |.text|, CODE, ARM

  020f4		 |?CheckForDoneTransfers@CQueuedPipe@@UAAHXZ| PROC ; CQueuedPipe::CheckForDoneTransfers

; 689  : {

  020f4		 |$LN18@CheckForDo|
  020f4	e1a0c00d	 mov         r12, sp
  020f8	e92d0001	 stmdb       sp!, {r0}
  020fc	e92d5000	 stmdb       sp!, {r12, lr}
  02100	e24dd038	 sub         sp, sp, #0x38
  02104		 |$M38040|

; 690  :     BOOL bReturn = FALSE;

  02104	e3a03000	 mov         r3, #0
  02108	e58d3000	 str         r3, [sp]

; 691  :     EnterCriticalSection( &m_csPipeLock );

  0210c	e59d3040	 ldr         r3, [sp, #0x40]
  02110	e2830020	 add         r0, r3, #0x20
  02114	eb000000	 bl          EnterCriticalSection

; 692  :     
; 693  :     if (m_pQueuedTransfer!=NULL && m_pPipeQHead!=NULL) {

  02118	e59d3040	 ldr         r3, [sp, #0x40]
  0211c	e283306c	 add         r3, r3, #0x6C
  02120	e5933000	 ldr         r3, [r3]
  02124	e3530000	 cmp         r3, #0
  02128	0a00006c	 beq         |$LN5@CheckForDo|
  0212c	e59d3040	 ldr         r3, [sp, #0x40]
  02130	e2833064	 add         r3, r3, #0x64
  02134	e5933000	 ldr         r3, [r3]
  02138	e3530000	 cmp         r3, #0
  0213c	0a000067	 beq         |$LN5@CheckForDo|

; 694  :         // Check All the transfer done or not.
; 695  :         CQTransfer * pCurTransfer = m_pQueuedTransfer;                        

  02140	e59d3040	 ldr         r3, [sp, #0x40]
  02144	e283306c	 add         r3, r3, #0x6C
  02148	e5933000	 ldr         r3, [r3]
  0214c	e58d3004	 str         r3, [sp, #4]

; 696  :         if (pCurTransfer->IsTransferDone() == TRUE) {           

  02150	e59d0004	 ldr         r0, [sp, #4]
  02154	eb000000	 bl          |?IsTransferDone@CQTransfer@@QAAHXZ|
  02158	e58d0014	 str         r0, [sp, #0x14]
  0215c	e59d3014	 ldr         r3, [sp, #0x14]
  02160	e3530001	 cmp         r3, #1
  02164	1a000055	 bne         |$LN4@CheckForDo|

; 697  :             ASSERT(m_pPipeQHead->IsActive() == FALSE) ;// Pipe Stopped.            

  02168	e59d3040	 ldr         r3, [sp, #0x40]
  0216c	e2833064	 add         r3, r3, #0x64
  02170	e5930000	 ldr         r0, [r3]
  02174	eb000000	 bl          |?IsActive@CQH@@QAAHXZ|
  02178	e58d0018	 str         r0, [sp, #0x18]
  0217c	e59d3018	 ldr         r3, [sp, #0x18]
  02180	e3530000	 cmp         r3, #0
  02184	1a000002	 bne         |$LN8@CheckForDo|
  02188	e3a03001	 mov         r3, #1
  0218c	e58d301c	 str         r3, [sp, #0x1C]
  02190	ea000008	 b           |$LN9@CheckForDo|
  02194		 |$LN8@CheckForDo|
  02194	e3a03c02	 mov         r3, #2, 24
  02198	e38330b9	 orr         r3, r3, #0xB9
  0219c	e59f21a0	 ldr         r2, [pc, #0x1A0]
  021a0	e59f1198	 ldr         r1, [pc, #0x198]
  021a4	e59f0190	 ldr         r0, [pc, #0x190]
  021a8	eb000000	 bl          NKDbgPrintfW
  021ac	e6000010	 __debugbreak_ce
  021b0	e3a03000	 mov         r3, #0
  021b4	e58d301c	 str         r3, [sp, #0x1C]
  021b8		 |$LN9@CheckForDo|

; 698  :             m_fIsHalted = (pCurTransfer->DoneTransfer()!=TRUE);

  021b8	e59d0004	 ldr         r0, [sp, #4]
  021bc	eb000000	 bl          |?DoneTransfer@CQTransfer@@QAAHXZ|
  021c0	e58d0020	 str         r0, [sp, #0x20]
  021c4	e59d3020	 ldr         r3, [sp, #0x20]
  021c8	e3530001	 cmp         r3, #1
  021cc	0a000002	 beq         |$LN10@CheckForDo|
  021d0	e3a03001	 mov         r3, #1
  021d4	e58d3024	 str         r3, [sp, #0x24]
  021d8	ea000001	 b           |$LN11@CheckForDo|
  021dc		 |$LN10@CheckForDo|
  021dc	e3a03000	 mov         r3, #0
  021e0	e58d3024	 str         r3, [sp, #0x24]
  021e4		 |$LN11@CheckForDo|
  021e4	e59d3040	 ldr         r3, [sp, #0x40]
  021e8	e2832044	 add         r2, r3, #0x44
  021ec	e59d3024	 ldr         r3, [sp, #0x24]
  021f0	e5823000	 str         r3, [r2]

; 699  :             // Put it into done Queue.
; 700  :             delete pCurTransfer;

  021f4	e59d3004	 ldr         r3, [sp, #4]
  021f8	e58d300c	 str         r3, [sp, #0xC]
  021fc	e59d300c	 ldr         r3, [sp, #0xC]
  02200	e58d3008	 str         r3, [sp, #8]
  02204	e59d3008	 ldr         r3, [sp, #8]
  02208	e3530000	 cmp         r3, #0
  0220c	0a00000a	 beq         |$LN12@CheckForDo|
  02210	e3a01001	 mov         r1, #1
  02214	e59d3008	 ldr         r3, [sp, #8]
  02218	e5933000	 ldr         r3, [r3]
  0221c	e59d0008	 ldr         r0, [sp, #8]
  02220	e5933000	 ldr         r3, [r3]
  02224	e1a0e00f	 mov         lr, pc
  02228	e12fff13	 bx          r3
  0222c	e58d0028	 str         r0, [sp, #0x28]
  02230	e59d3028	 ldr         r3, [sp, #0x28]
  02234	e58d302c	 str         r3, [sp, #0x2C]
  02238	ea000001	 b           |$LN13@CheckForDo|
  0223c		 |$LN12@CheckForDo|
  0223c	e3a03000	 mov         r3, #0
  02240	e58d302c	 str         r3, [sp, #0x2C]
  02244		 |$LN13@CheckForDo|

; 701  :             if (m_fIsHalted)

  02244	e59d3040	 ldr         r3, [sp, #0x40]
  02248	e2833044	 add         r3, r3, #0x44
  0224c	e5933000	 ldr         r3, [r3]
  02250	e3530000	 cmp         r3, #0
  02254	0a00000a	 beq         |$LN3@CheckForDo|

; 702  :             {
; 703  :                 DEBUGMSG(ZONE_ERROR, (TEXT("Halt and need to do some data toggle\r\n")));

  02258	e59f30d8	 ldr         r3, [pc, #0xD8]
  0225c	e5933440	 ldr         r3, [r3, #0x440]
  02260	e3130901	 tst         r3, #1, 18
  02264	0a000004	 beq         |$LN14@CheckForDo|
  02268	e59f00c4	 ldr         r0, [pc, #0xC4]
  0226c	eb000000	 bl          NKDbgPrintfW
  02270	e3a03001	 mov         r3, #1
  02274	e58d3030	 str         r3, [sp, #0x30]
  02278	ea000001	 b           |$LN15@CheckForDo|
  0227c		 |$LN14@CheckForDo|
  0227c	e3a03000	 mov         r3, #0
  02280	e58d3030	 str         r3, [sp, #0x30]
  02284		 |$LN15@CheckForDo|
  02284		 |$LN3@CheckForDo|

; 704  :             }
; 705  :             // Excute Next one if there is any.
; 706  :             m_pQueuedTransfer =NULL;

  02284	e59d3040	 ldr         r3, [sp, #0x40]
  02288	e283206c	 add         r2, r3, #0x6C
  0228c	e3a03000	 mov         r3, #0
  02290	e5823000	 str         r3, [r2]

; 707  :             m_pPipeQHead->InvalidNextTD();

  02294	e59d3040	 ldr         r3, [sp, #0x40]
  02298	e2833064	 add         r3, r3, #0x64
  0229c	e5930000	 ldr         r0, [r3]
  022a0	eb000000	 bl          |?InvalidNextTD@CQH@@QAAXXZ|

; 708  :             m_pPipeQHead->ClearTDList();

  022a4	e59d3040	 ldr         r3, [sp, #0x40]
  022a8	e2833064	 add         r3, r3, #0x64
  022ac	e5930000	 ldr         r0, [r3]
  022b0	eb000000	 bl          |?ClearTDList@CQH@@QAAXXZ|

; 709  :             bReturn = TRUE;

  022b4	e3a03001	 mov         r3, #1
  022b8	e58d3000	 str         r3, [sp]

; 710  :         }
; 711  :         else

  022bc	ea000007	 b           |$LN2@CheckForDo|
  022c0		 |$LN4@CheckForDo|

; 712  :         {  // Process the next one                       
; 713  :            m_pPipeQHead->IssueTransfer(pCurTransfer->GetCQTDList());                        

  022c0	e59d0004	 ldr         r0, [sp, #4]
  022c4	eb000000	 bl          |?GetCQTDList@CQTransfer@@QAAPAVCQTD@@XZ|
  022c8	e58d0034	 str         r0, [sp, #0x34]
  022cc	e59d1034	 ldr         r1, [sp, #0x34]
  022d0	e59d3040	 ldr         r3, [sp, #0x40]
  022d4	e2833064	 add         r3, r3, #0x64
  022d8	e5930000	 ldr         r0, [r3]
  022dc	eb000000	 bl          |?IssueTransfer@CQH@@QAAKPAVCQTD@@@Z|
  022e0		 |$LN2@CheckForDo|
  022e0		 |$LN5@CheckForDo|

; 714  :         }
; 715  : 
; 716  :     }
; 717  :     LeaveCriticalSection( &m_csPipeLock );

  022e0	e59d3040	 ldr         r3, [sp, #0x40]
  022e4	e2830020	 add         r0, r3, #0x20
  022e8	eb000000	 bl          LeaveCriticalSection

; 718  :     if (m_pQueuedTransfer==NULL)

  022ec	e59d3040	 ldr         r3, [sp, #0x40]
  022f0	e283306c	 add         r3, r3, #0x6C
  022f4	e5933000	 ldr         r3, [r3]
  022f8	e3530000	 cmp         r3, #0
  022fc	1a000006	 bne         |$LN1@CheckForDo|

; 719  :     {
; 720  :         ScheduleTransfer();        

  02300	e59d3040	 ldr         r3, [sp, #0x40]
  02304	e5933000	 ldr         r3, [r3]
  02308	e2833030	 add         r3, r3, #0x30
  0230c	e59d0040	 ldr         r0, [sp, #0x40]
  02310	e5933000	 ldr         r3, [r3]
  02314	e1a0e00f	 mov         lr, pc
  02318	e12fff13	 bx          r3
  0231c		 |$LN1@CheckForDo|

; 721  :     }
; 722  : 
; 723  :     return bReturn;   

  0231c	e59d3000	 ldr         r3, [sp]
  02320	e58d3010	 str         r3, [sp, #0x10]

; 724  : }

  02324	e59d0010	 ldr         r0, [sp, #0x10]
  02328	e28dd038	 add         sp, sp, #0x38
  0232c	e89d6000	 ldmia       sp, {sp, lr}
  02330	e12fff1e	 bx          lr
  02334		 |$LN19@CheckForDo|
  02334		 |$LN20@CheckForDo|
  02334	00000000	 DCD         |??_C@_1EO@MPJDFLCG@?$AAH?$AAa?$AAl?$AAt?$AA?5?$AAa?$AAn?$AAd?$AA?5?$AAn?$AAe?$AAe?$AAd?$AA?5?$AAt?$AAo?$AA?5?$AAd?$AAo?$AA?5?$AAs?$AAo?$AAm?$AAe?$AA?5?$AAd?$AAa?$AAt?$AAa?$AA?5?$AAt?$AAo@|
  02338		 |$LN21@CheckForDo|
  02338	00000000	 DCD         |dpCurSettings|
  0233c		 |$LN22@CheckForDo|
  0233c	00000000	 DCD         |??_C@_1FK@FNONLNGN@?$AA?$CF?$AAs?$AA?3?$AA?5?$AAD?$AAE?$AAB?$AAU?$AAG?$AAC?$AAH?$AAK?$AA?5?$AAf?$AAa?$AAi?$AAl?$AAe?$AAd?$AA?5?$AAi?$AAn?$AA?5?$AAf?$AAi?$AAl?$AAe?$AA?5?$AA?$CF?$AAs?$AA?5?$AAa@|
  02340		 |$LN23@CheckForDo|
  02340	00000000	 DCD         |??_C@_1BA@LEPJIIOK@?$AAU?$AAn?$AAk?$AAn?$AAo?$AAw?$AAn?$AA?$AA@|
  02344		 |$LN24@CheckForDo|
  02344	00000000	 DCD         |??_C@_1LK@LMPDOKKA@?$AAC?$AA?3?$AA?2?$AAW?$AAI?$AAN?$AAC?$AAE?$AA6?$AA0?$AA0?$AA?2?$AAP?$AAL?$AAA?$AAT?$AAF?$AAO?$AAR?$AAM?$AA?2?$AAC?$AAO?$AAM?$AAM?$AAO?$AAN?$AA?2?$AAS?$AAR?$AAC?$AA?2@|
  02348		 |$M38041|

			 ENDP  ; |?CheckForDoneTransfers@CQueuedPipe@@UAAHXZ|, CQueuedPipe::CheckForDoneTransfers

	EXPORT	|??_C@_1DG@PIAPJJOK@?$AA?$CF?$AAs?$AA?3?$AA?5?$AA?9?$AAC?$AAB?$AAu?$AAl?$AAk?$AAP?$AAi?$AAp?$AAe?$AA?3?$AA?3?$AAC?$AAB?$AAu?$AAl?$AAk?$AAP?$AAi?$AAp?$AAe?$AA?6?$AA?$AA@| [ DATA ] ; `string'
	EXPORT	|??_C@_1DG@CDMLMGMB@?$AA?$CF?$AAs?$AA?3?$AA?5?$AA?$CL?$AAC?$AAB?$AAu?$AAl?$AAk?$AAP?$AAi?$AAp?$AAe?$AA?3?$AA?3?$AAC?$AAB?$AAu?$AAl?$AAk?$AAP?$AAi?$AAp?$AAe?$AA?6?$AA?$AA@| [ DATA ] ; `string'
	EXPORT	|??_7CBulkPipe@@6B@| [ DATA ]		; CBulkPipe::`vftable'
	EXPORT	|??0CBulkPipe@@QAA@QBU_USB_ENDPOINT_DESCRIPTOR@@HHEEEHQAVCMhcd@@@Z| ; CBulkPipe::CBulkPipe
	EXPORT	|?OpenPipe@CBulkPipe@@UAA?AW4HCD_REQUEST_STATUS@@XZ| ; CBulkPipe::OpenPipe
	EXPORT	|?ClosePipe@CBulkPipe@@UAA?AW4HCD_REQUEST_STATUS@@XZ| ; CBulkPipe::ClosePipe
	EXPORT	|?GetTransferType@CBulkPipe@@UBA?BKXZ|	; CBulkPipe::GetTransferType
	EXPORT	|?GetPipeType@CBulkPipe@@UBAPBGXZ|	; CBulkPipe::GetPipeType
	EXPORT	|?AreTransferParametersValid@CBulkPipe@@EBAHPBUSTRANSFER@@@Z| ; CBulkPipe::AreTransferParametersValid
	IMPORT	|??_ECBulkPipe@@UAAPAXI@Z|, WEAK |??_GCBulkPipe@@UAAPAXI@Z| ; CBulkPipe::`vector deleting destructor', CBulkPipe::`scalar deleting destructor'

  000a0			 AREA	 |.pdata|, PDATA
|$T38068| DCD	|$LN13@CBulkPipe|
	DCD	0x40007404

  00000			 AREA	 |.rdata|, DATA, READONLY
|??_C@_1DG@PIAPJJOK@?$AA?$CF?$AAs?$AA?3?$AA?5?$AA?9?$AAC?$AAB?$AAu?$AAl?$AAk?$AAP?$AAi?$AAp?$AAe?$AA?3?$AA?3?$AAC?$AAB?$AAu?$AAl?$AAk?$AAP?$AAi?$AAp?$AAe?$AA?6?$AA?$AA@| DCB "%"
	DCB	0x0, "s", 0x0, ":", 0x0, " ", 0x0, "-", 0x0, "C", 0x0, "B"
	DCB	0x0, "u", 0x0, "l", 0x0, "k", 0x0, "P", 0x0, "i", 0x0, "p"
	DCB	0x0, "e", 0x0, ":", 0x0, ":", 0x0, "C", 0x0, "B", 0x0, "u"
	DCB	0x0, "l", 0x0, "k", 0x0, "P", 0x0, "i", 0x0, "p", 0x0, "e"
	DCB	0x0, 0xa, 0x0, 0x0, 0x0			; `string'

  00000			 AREA	 |.rdata|, DATA, READONLY
|??_C@_1DG@CDMLMGMB@?$AA?$CF?$AAs?$AA?3?$AA?5?$AA?$CL?$AAC?$AAB?$AAu?$AAl?$AAk?$AAP?$AAi?$AAp?$AAe?$AA?3?$AA?3?$AAC?$AAB?$AAu?$AAl?$AAk?$AAP?$AAi?$AAp?$AAe?$AA?6?$AA?$AA@| DCB "%"
	DCB	0x0, "s", 0x0, ":", 0x0, " ", 0x0, "+", 0x0, "C", 0x0, "B"
	DCB	0x0, "u", 0x0, "l", 0x0, "k", 0x0, "P", 0x0, "i", 0x0, "p"
	DCB	0x0, "e", 0x0, ":", 0x0, ":", 0x0, "C", 0x0, "B", 0x0, "u"
	DCB	0x0, "l", 0x0, "k", 0x0, "P", 0x0, "i", 0x0, "p", 0x0, "e"
	DCB	0x0, 0xa, 0x0, 0x0, 0x0			; `string'

  00000			 AREA	 |.rdata|, DATA, READONLY
|??_7CBulkPipe@@6B@| DCD |??_ECBulkPipe@@UAAPAXI@Z|	; CBulkPipe::`vftable'
	DCD	|?OpenPipe@CBulkPipe@@UAA?AW4HCD_REQUEST_STATUS@@XZ|
	DCD	|?ClosePipe@CBulkPipe@@UAA?AW4HCD_REQUEST_STATUS@@XZ|
	DCD	|?IssueTransfer@CQueuedPipe@@UAA?AW4HCD_REQUEST_STATUS@@EQ6AKPAX@ZQAXKQBXKKQBKK2K3QAK5QAH55@Z|
	DCD	|?AbortTransfer@CQueuedPipe@@UAA?AW4HCD_REQUEST_STATUS@@Q6AKPAX@ZQAXPBX@Z|
	DCD	|?IsPipeHalted@CPipe@@UAA?AW4HCD_REQUEST_STATUS@@QAH@Z|
	DCD	|?ClearHaltedFlag@CQueuedPipe@@UAAXXZ|
	DCD	|?ResetEndPoint@CPipe@@UAAXXZ|
	DCD	|?ChangeMaxPacketSize@CPipeAbs@@UAAXG@Z|
	DCD	|?SetReservedDeviceAddr@CPipe@@UAAHE@Z|
	DCD	|?GetReservedDeviceAddr@CPipe@@UAAEXZ|
	DCD	|?GetCPhysMem@CPipe@@UAAPAVCPhysMem@@XZ|
	DCD	|?ScheduleTransfer@CQueuedPipe@@UAA?AW4HCD_REQUEST_STATUS@@XZ|
	DCD	|?CheckForDoneTransfers@CQueuedPipe@@UAAHXZ|
	DCD	|?ProcessEP@CQueuedPipe@@UAAHKH@Z|
	DCD	|?GetTransferType@CBulkPipe@@UBA?BKXZ|
	DCD	|?GetPipeType@CBulkPipe@@UBAPBGXZ|
	DCD	|?GetQHead@CQueuedPipe@@UAAPAVCQH@@XZ|
	DCD	|?AreTransferParametersValid@CBulkPipe@@EBAHPBUSTRANSFER@@@Z|
; Function compile flags: /Odtp

  02348			 AREA	 |.text|, CODE, ARM

  02348		 |??0CBulkPipe@@QAA@QBU_USB_ENDPOINT_DESCRIPTOR@@HHEEEHQAVCMhcd@@@Z| PROC ; CBulkPipe::CBulkPipe

; 743  : {

  02348		 |$LN13@CBulkPipe|
  02348	e1a0c00d	 mov         r12, sp
  0234c	e92d000f	 stmdb       sp!, {r0 - r3}
  02350	e92d5000	 stmdb       sp!, {r12, lr}
  02354	e24dd048	 sub         sp, sp, #0x48
  02358		 |$M38065|
  02358	e59d3070	 ldr         r3, [sp, #0x70]
  0235c	e58d3010	 str         r3, [sp, #0x10]
  02360	e59d306c	 ldr         r3, [sp, #0x6C]
  02364	e58d300c	 str         r3, [sp, #0xC]
  02368	e5dd3068	 ldrb        r3, [sp, #0x68]
  0236c	e58d3008	 str         r3, [sp, #8]
  02370	e5dd3064	 ldrb        r3, [sp, #0x64]
  02374	e58d3004	 str         r3, [sp, #4]
  02378	e5dd3060	 ldrb        r3, [sp, #0x60]
  0237c	e58d3000	 str         r3, [sp]
  02380	e59d305c	 ldr         r3, [sp, #0x5C]
  02384	e59d2058	 ldr         r2, [sp, #0x58]
  02388	e59d1054	 ldr         r1, [sp, #0x54]
  0238c	e59d0050	 ldr         r0, [sp, #0x50]
  02390	eb000000	 bl          |??0CQueuedPipe@@QAA@QBU_USB_ENDPOINT_DESCRIPTOR@@HHEEEHQAVCMhcd@@@Z|
  02394	e58d002c	 str         r0, [sp, #0x2C]
  02398	e59f2174	 ldr         r2, [pc, #0x174]
  0239c	e59d3050	 ldr         r3, [sp, #0x50]
  023a0	e5832000	 str         r2, [r3]

; 744  :     DEBUGMSG( ZONE_PIPE && ZONE_VERBOSE, (TEXT("%s: +CBulkPipe::CBulkPipe\n"),GetControllerName()) );

  023a4	e59f3158	 ldr         r3, [pc, #0x158]
  023a8	e5933440	 ldr         r3, [r3, #0x440]
  023ac	e3130080	 tst         r3, #0x80
  023b0	0a00000c	 beq         |$LN3@CBulkPipe|
  023b4	e59f3148	 ldr         r3, [pc, #0x148]
  023b8	e5933440	 ldr         r3, [r3, #0x440]
  023bc	e3130a01	 tst         r3, #1, 20
  023c0	0a000008	 beq         |$LN3@CBulkPipe|
  023c4	e59d0050	 ldr         r0, [sp, #0x50]
  023c8	eb000000	 bl          |?GetControllerName@CPipe@@QBAPBGXZ|
  023cc	e58d0030	 str         r0, [sp, #0x30]
  023d0	e59d1030	 ldr         r1, [sp, #0x30]
  023d4	e59f0134	 ldr         r0, [pc, #0x134]
  023d8	eb000000	 bl          NKDbgPrintfW
  023dc	e3a03001	 mov         r3, #1
  023e0	e58d3034	 str         r3, [sp, #0x34]
  023e4	ea000001	 b           |$LN4@CBulkPipe|
  023e8		 |$LN3@CBulkPipe|
  023e8	e3a03000	 mov         r3, #0
  023ec	e58d3034	 str         r3, [sp, #0x34]
  023f0		 |$LN4@CBulkPipe|

; 745  :     DEBUGCHK( m_usbEndpointDescriptor.bDescriptorType == USB_ENDPOINT_DESCRIPTOR_TYPE &&
; 746  :               m_usbEndpointDescriptor.bLength >= sizeof( USB_ENDPOINT_DESCRIPTOR ) &&
; 747  :               (m_usbEndpointDescriptor.bmAttributes & USB_ENDPOINT_TYPE_MASK) == USB_ENDPOINT_TYPE_BULK );

  023f0	e59d3050	 ldr         r3, [sp, #0x50]
  023f4	e2833035	 add         r3, r3, #0x35
  023f8	e5d33000	 ldrb        r3, [r3]
  023fc	e3530005	 cmp         r3, #5
  02400	1a00000d	 bne         |$LN5@CBulkPipe|
  02404	e59d3050	 ldr         r3, [sp, #0x50]
  02408	e2833034	 add         r3, r3, #0x34
  0240c	e5d33000	 ldrb        r3, [r3]
  02410	e3530007	 cmp         r3, #7
  02414	3a000008	 bcc         |$LN5@CBulkPipe|
  02418	e59d3050	 ldr         r3, [sp, #0x50]
  0241c	e2833037	 add         r3, r3, #0x37
  02420	e5d33000	 ldrb        r3, [r3]
  02424	e2033003	 and         r3, r3, #3
  02428	e3530002	 cmp         r3, #2
  0242c	1a000002	 bne         |$LN5@CBulkPipe|
  02430	e3a03001	 mov         r3, #1
  02434	e58d3038	 str         r3, [sp, #0x38]
  02438	ea000008	 b           |$LN6@CBulkPipe|
  0243c		 |$LN5@CBulkPipe|
  0243c	e3a03c02	 mov         r3, #2, 24
  02440	e38330eb	 orr         r3, r3, #0xEB
  02444	e59f20c0	 ldr         r2, [pc, #0xC0]
  02448	e59f10b4	 ldr         r1, [pc, #0xB4]
  0244c	e59f00b4	 ldr         r0, [pc, #0xB4]
  02450	eb000000	 bl          NKDbgPrintfW
  02454	e6000010	 __debugbreak_ce
  02458	e3a03000	 mov         r3, #0
  0245c	e58d3038	 str         r3, [sp, #0x38]
  02460		 |$LN6@CBulkPipe|

; 748  : 
; 749  :     DEBUGCHK( !fIsLowSpeed ); // bulk pipe must be high speed

  02460	e59d3058	 ldr         r3, [sp, #0x58]
  02464	e3530000	 cmp         r3, #0
  02468	1a000002	 bne         |$LN7@CBulkPipe|
  0246c	e3a03001	 mov         r3, #1
  02470	e58d303c	 str         r3, [sp, #0x3C]
  02474	ea000008	 b           |$LN8@CBulkPipe|
  02478		 |$LN7@CBulkPipe|
  02478	e3a03c02	 mov         r3, #2, 24
  0247c	e38330ed	 orr         r3, r3, #0xED
  02480	e59f2084	 ldr         r2, [pc, #0x84]
  02484	e59f1078	 ldr         r1, [pc, #0x78]
  02488	e59f0078	 ldr         r0, [pc, #0x78]
  0248c	eb000000	 bl          NKDbgPrintfW
  02490	e6000010	 __debugbreak_ce
  02494	e3a03000	 mov         r3, #0
  02498	e58d303c	 str         r3, [sp, #0x3C]
  0249c		 |$LN8@CBulkPipe|

; 750  : 
; 751  :     DEBUGMSG( ZONE_PIPE && ZONE_VERBOSE, (TEXT("%s: -CBulkPipe::CBulkPipe\n"),GetControllerName()) );

  0249c	e59f3060	 ldr         r3, [pc, #0x60]
  024a0	e5933440	 ldr         r3, [r3, #0x440]
  024a4	e3130080	 tst         r3, #0x80
  024a8	0a00000c	 beq         |$LN9@CBulkPipe|
  024ac	e59f3050	 ldr         r3, [pc, #0x50]
  024b0	e5933440	 ldr         r3, [r3, #0x440]
  024b4	e3130a01	 tst         r3, #1, 20
  024b8	0a000008	 beq         |$LN9@CBulkPipe|
  024bc	e59d0050	 ldr         r0, [sp, #0x50]
  024c0	eb000000	 bl          |?GetControllerName@CPipe@@QBAPBGXZ|
  024c4	e58d0040	 str         r0, [sp, #0x40]
  024c8	e59d1040	 ldr         r1, [sp, #0x40]
  024cc	e59f002c	 ldr         r0, [pc, #0x2C]
  024d0	eb000000	 bl          NKDbgPrintfW
  024d4	e3a03001	 mov         r3, #1
  024d8	e58d3044	 str         r3, [sp, #0x44]
  024dc	ea000001	 b           |$LN10@CBulkPipe|
  024e0		 |$LN9@CBulkPipe|
  024e0	e3a03000	 mov         r3, #0
  024e4	e58d3044	 str         r3, [sp, #0x44]
  024e8		 |$LN10@CBulkPipe|

; 752  : }

  024e8	e59d3050	 ldr         r3, [sp, #0x50]
  024ec	e58d3028	 str         r3, [sp, #0x28]
  024f0	e59d0028	 ldr         r0, [sp, #0x28]
  024f4	e28dd048	 add         sp, sp, #0x48
  024f8	e89d6000	 ldmia       sp, {sp, lr}
  024fc	e12fff1e	 bx          lr
  02500		 |$LN14@CBulkPipe|
  02500		 |$LN15@CBulkPipe|
  02500	00000000	 DCD         |??_C@_1DG@PIAPJJOK@?$AA?$CF?$AAs?$AA?3?$AA?5?$AA?9?$AAC?$AAB?$AAu?$AAl?$AAk?$AAP?$AAi?$AAp?$AAe?$AA?3?$AA?3?$AAC?$AAB?$AAu?$AAl?$AAk?$AAP?$AAi?$AAp?$AAe?$AA?6?$AA?$AA@|
  02504		 |$LN16@CBulkPipe|
  02504	00000000	 DCD         |dpCurSettings|
  02508		 |$LN17@CBulkPipe|
  02508	00000000	 DCD         |??_C@_1FK@FNONLNGN@?$AA?$CF?$AAs?$AA?3?$AA?5?$AAD?$AAE?$AAB?$AAU?$AAG?$AAC?$AAH?$AAK?$AA?5?$AAf?$AAa?$AAi?$AAl?$AAe?$AAd?$AA?5?$AAi?$AAn?$AA?5?$AAf?$AAi?$AAl?$AAe?$AA?5?$AA?$CF?$AAs?$AA?5?$AAa@|
  0250c		 |$LN18@CBulkPipe|
  0250c	00000000	 DCD         |??_C@_1LK@LMPDOKKA@?$AAC?$AA?3?$AA?2?$AAW?$AAI?$AAN?$AAC?$AAE?$AA6?$AA0?$AA0?$AA?2?$AAP?$AAL?$AAA?$AAT?$AAF?$AAO?$AAR?$AAM?$AA?2?$AAC?$AAO?$AAM?$AAM?$AAO?$AAN?$AA?2?$AAS?$AAR?$AAC?$AA?2@|
  02510		 |$LN19@CBulkPipe|
  02510	00000000	 DCD         |??_C@_1DG@CDMLMGMB@?$AA?$CF?$AAs?$AA?3?$AA?5?$AA?$CL?$AAC?$AAB?$AAu?$AAl?$AAk?$AAP?$AAi?$AAp?$AAe?$AA?3?$AA?3?$AAC?$AAB?$AAu?$AAl?$AAk?$AAP?$AAi?$AAp?$AAe?$AA?6?$AA?$AA@|
  02514		 |$LN20@CBulkPipe|
  02514	00000000	 DCD         |??_7CBulkPipe@@6B@|
  02518		 |$M38066|

			 ENDP  ; |??0CBulkPipe@@QAA@QBU_USB_ENDPOINT_DESCRIPTOR@@HHEEEHQAVCMhcd@@@Z|, CBulkPipe::CBulkPipe

; File c:\wince600\platform\common\src\soc\common_ti_v1\omap3530\musb\musbhcd\musbmhdrc\cpipe.h

  00000			 AREA	 |.pdata|, PDATA
|$T38081| DCD	|$LN5@GetTransfe@2|
	DCD	0x40000a04
; Function compile flags: /Odtp

  00000			 AREA	 |.text|, CODE, ARM

  00000		 |?GetTransferType@CBulkPipe@@UBA?BKXZ| PROC ; CBulkPipe::GetTransferType

; 263  :     {

  00000		 |$LN5@GetTransfe@2|
  00000	e1a0c00d	 mov         r12, sp
  00004	e92d0001	 stmdb       sp!, {r0}
  00008	e92d5000	 stmdb       sp!, {r12, lr}
  0000c	e24dd004	 sub         sp, sp, #4
  00010		 |$M38078|

; 264  :         return USB_ENDPOINT_TYPE_BULK;

  00010	e3a03002	 mov         r3, #2
  00014	e58d3000	 str         r3, [sp]

; 265  :     }

  00018	e59d0000	 ldr         r0, [sp]
  0001c	e28dd004	 add         sp, sp, #4
  00020	e89d6000	 ldmia       sp, {sp, lr}
  00024	e12fff1e	 bx          lr
  00028		 |$M38079|

			 ENDP  ; |?GetTransferType@CBulkPipe@@UBA?BKXZ|, CBulkPipe::GetTransferType

	EXPORT	|??_C@_19PBJLGAMD@?$AAB?$AAu?$AAl?$AAk?$AA?$AA@| [ DATA ] ; `string'

  00000			 AREA	 |.pdata|, PDATA
|$T38089| DCD	|$LN5@GetPipeTyp|
	DCD	0x40000b04

  00000			 AREA	 |.rdata|, DATA, READONLY
