 kitl

 Timestamp is 522e705a (Tue Sep 10 09:05:30 2013)

 Preferred load address is 10000000

 Start         Length     Name                   Class
 0001:00000000 00005600H .rdata                  CODE
 0001:00005600 00000021H .rdata$debug            CODE
 0001:00005624 0000e958H .text                   CODE
 0001:00013f7c 0000004cH .xdata                  CODE
 0001:00013fd0 00000031H .edata                  CODE
 0002:00000000 00000617H .data                   DATA
 0002:00000620 00048e88H .bss                    DATA
 0003:00000000 00000818H .pdata                  DATA

  Address         Publics by Value              Rva+Base       Lib:Object

 0000:00000000       ___safe_se_handler_table   00000000     <absolute>
 0000:00000000       ___safe_se_handler_count   00000000     <absolute>
 0001:000000b0       ??_C@_0BI@KCIPJAAG@?9OALKitlInit?$CIrc?5?$DN?5?$CFd?$CJ?$AN?6?$AA@ 100010b0     kitl.obj
 0001:000000c8       ??_C@_0CG@NCCHEHBN@ERROR?3?5OALKitlInit?3?5KitlInit?5fai@ 100010c8     kitl.obj
 0001:000000f0       ??_C@_0FE@CMGNHMCB@ERROR?3?5OALKitlInit?3?5No?5supported@ 100010f0     kitl.obj
 0001:00000144       ??_C@_0CD@KFHIJAFP@WARN?3?5OALKitlInit?3?5KITL?5Disabled@ 10001144     kitl.obj
 0001:00000168       ??_C@_0CB@ICNOHDED@pDevice?9?$DOpDriver?4?4?4?4?4?4?4?4?4?50x?$CFx?$AN?6@ 10001168     kitl.obj
 0001:0000018c       ??_C@_0BP@LAJLJKFE@pDevice?9?$DOtype?4?4?4?4?4?4?4?4?4?4?4?4?5?$CFd?$AN?6?$AA@ 1000118c     kitl.obj
 0001:000001ac       ??_C@_0BP@OJPECLKF@pDevice?9?$DOresource?4?4?4?4?4?4?4?4?5?$CFd?$AN?6?$AA@ 100011ac     kitl.obj
 0001:000001cc       ??_C@_0CB@JAOILBKH@pDevice?9?$DOid?4?4?4?4?4?4?4?4?4?4?4?4?4?4?50x?$CFx?$AN?6@ 100011cc     kitl.obj
 0001:000001f0       ??_C@_0BP@ELIKEIPK@pDevice?9?$DOifcType?4?4?4?4?4?4?4?4?4?5?$CFd?$AN?6?$AA@ 100011f0     kitl.obj
 0001:00000210       ??_C@_0CA@MADPCADD@pDevice?9?$DOName?4?4?4?4?4?4?4?4?4?4?4?4?5?$CFhs?$AN?6?$AA@ 10001210     kitl.obj
 0001:00000230       ??_C@_0CL@PIBLEJAN@pArgs?9?$DOmac?4?4?4?4?4?4?4?4?4?4?4?4?4?4?4?50x?$CFx?50@ 10001230     kitl.obj
 0001:0000025c       ??_C@_0BP@GCIAPLEP@pArgs?9?$DOip4address?4?4?4?4?4?4?4?4?5?$CFs?$AN?6?$AA@ 1000125c     kitl.obj
 0001:0000027c       ??_C@_0BP@EDAFLEND@pArgs?9?$DOdevLoc?4Pin?4?4?4?4?4?4?4?4?5?$CFd?$AN?6?$AA@ 1000127c     kitl.obj
 0001:0000029c       ??_C@_0CB@ELNIEECP@pArgs?9?$DOdevLoc?4PhysicalLoc?50x?$CFx?$AN?6@ 1000129c     kitl.obj
 0001:000002c0       ??_C@_0CB@OOHPGPEK@pArgs?9?$DOdevLoc?4LogicalLoc?4?50x?$CFx?$AN?6@ 100012c0     kitl.obj
 0001:000002e4       ??_C@_0BP@CLIEPDAL@pArgs?9?$DOdevLoc?4IfcType?4?4?4?4?5?$CFd?$AN?6?$AA@ 100012e4     kitl.obj
 0001:00000304       ??_C@_0CB@LJCIEGGC@pArgs?9?$DOflags?4?4?4?4?4?4?4?4?4?4?4?4?4?50x?$CFx?$AN?6@ 10001304     kitl.obj
 0001:00000328       ??_C@_0BP@HJJCJHBD@DeviceId?4?4?4?4?4?4?4?4?4?4?4?4?4?4?4?4?4?5?$CFs?$AN?6?$AA@ 10001328     kitl.obj
 0001:00000348       ??_C@_0DF@BBIFGKFF@?$CLOALKitlInit?$CI?8?$CFhs?8?0?50x?$CF08x?5?9?5?$CFd?1@ 10001348     kitl.obj
 0001:00000380       ??_C@_0BD@GBONLPAN@?9OALKitlPowerOff?$AN?6?$AA@ 10001380     kitl.obj
 0001:00000394       ??_C@_0BD@PMDBLEBO@?$CLOALKitlPowerOff?$AN?6?$AA@ 10001394     kitl.obj
 0001:000003a8       ??_C@_0BC@KIOCKNCJ@?9OALKitlPowerOn?$AN?6?$AA@ 100013a8     kitl.obj
 0001:000003bc       ??_C@_0BC@KGJOBBKM@?$CLOALKitlPowerOn?$AN?6?$AA@ 100013bc     kitl.obj
 0001:000003d0       ??_C@_0BI@GBPEIAJI@?9OEMKitlInit?$CIrc?5?$DN?5?$CFd?$CJ?$AN?6?$AA@ 100013d0     kitl.obj
 0001:000003e8       ??_C@_0BH@DJPAMHLI@?$CLOEMKitlInit?$CI0x?$CF08x?$CJ?$AN?6?$AA@ 100013e8     kitl.obj
 0001:00000400       ??_C@_1BK@NKDLNHPK@?$AAU?$AAS?$AAB?$AAF?$AAn?$AA?5?$AAR?$AAN?$AAD?$AAI?$AAS?$AA?5?$AA?$AA@ 10001400     oemkitl.obj
 0001:0000041c       ??_C@_1BI@OOCKPHGK@?$AAL?$AAA?$AAN?$AA9?$AA1?$AA1?$AA5?$AA?5?$AAM?$AAA?$AAC?$AA?$AA@ 1000141c     oemkitl.obj
 0001:000004c8       ??_C@_0BJ@OKHENJGB@?9OALKitlStart?$CIrc?5?$DN?5?$CFd?$CJ?$AN?6?$AA@ 100014c8     oemkitl.obj
 0001:000004e4       ??_C@_08DGJGOJCE@EVM3530?9?$AA@ 100014e4     oemkitl.obj
 0001:000004f0       ??_C@_0CP@HIPALHGN@WARN?3?5Boot?5arguments?5not?5found?0?5@ 100014f0     oemkitl.obj
 0001:00000520       ??_C@_0BA@IBJBKNBD@?$CLOALKitlStart?$AN?6?$AA@ 10001520     oemkitl.obj
 0001:000005c0       ??_C@_1EG@GCJBAFHN@?$AAE?$AAr?$AAr?$AAo?$AAr?$AA?5?$AAt?$AAr?$AAa?$AAn?$AAs?$AAm?$AAi?$AAt?$AAt?$AAi?$AAn?$AAg?$AA?5?$AAb?$AAu?$AAf?$AAf?$AAe?$AAr?$AA?$CB?$AA?5?$AA?5?$AA0?$AAx?$AA?$CF?$AAx@ 100015c0     common_ti_ethdrv_lan911x:lan911x.obj
 0001:00000608       ??_C@_1DM@CALKBHOJ@?$AAN?$AAo?$AAt?$AA?5?$AAe?$AAn?$AAo?$AAu?$AAg?$AAh?$AA?5?$AAr?$AAo?$AAo?$AAm?$AA?5?$AAi?$AAn?$AA?5?$AAT?$AAX?$AA?5?$AAF?$AAI?$AAF?$AAO?$AA?$CB?$AA?$AN?$AA?6?$AA?$AA@ 10001608     common_ti_ethdrv_lan911x:lan911x.obj
 0001:00000648       ??_C@_1EC@CDIADGHO@?$AAR?$AAX?$AA?5?$AAb?$AAu?$AAf?$AAf?$AAe?$AAr?$AA?5?$AAn?$AAo?$AAt?$AA?5?$AAD?$AAW?$AAO?$AAR?$AAD?$AA?5?$AAa?$AAl?$AAi?$AAg?$AAn?$AAe?$AAd?$AA?4?$AA?4?$AA?4?$AA?$AN?$AA?6@ 10001648     common_ti_ethdrv_lan911x:lan911x.obj
 0001:0000068c       ??_C@_1DE@NFIEPIMK@?$AAI?$AAn?$AAp?$AAu?$AAt?$AA?5?$AAb?$AAu?$AAf?$AAf?$AAe?$AAr?$AA?5?$AAt?$AAo?$AAo?$AA?5?$AAs?$AAm?$AAa?$AAl?$AAl?$AA?$CB?$AA?$AN?$AA?6?$AA?$AA@ 1000168c     common_ti_ethdrv_lan911x:lan911x.obj
 0001:000006c0       ??_C@_1EE@DJPMDJBC@?$AAE?$AAr?$AAr?$AAo?$AAr?$AA?5?$AAi?$AAn?$AA?5?$AAr?$AAe?$AAc?$AAe?$AAi?$AAv?$AAe?$AAd?$AA?5?$AAp?$AAa?$AAc?$AAk?$AAe?$AAt?$AA?$CB?$AA?5?$AA?5?$AA0?$AAx?$AA?$CF?$AAx?$AA?$AN@ 100016c0     common_ti_ethdrv_lan911x:lan911x.obj
 0001:00000708       ??_C@_1KI@DMEFCEJ@?$AAC?$AA?3?$AA?2?$AAW?$AAI?$AAN?$AAC?$AAE?$AA6?$AA0?$AA0?$AA?2?$AAP?$AAL?$AAA?$AAT?$AAF?$AAO?$AAR?$AAM?$AA?2?$AAC?$AAO?$AAM?$AAM?$AAO?$AAN?$AA?2?$AAS?$AAR?$AAC?$AA?2@ 10001708     common_ti_ethdrv_lan911x:lan911x.obj
 0001:000007b0       ??_C@_1CI@OHCJFJPM@?$AAE?$AAR?$AAR?$AAO?$AAR?$AA?3?$AA?5?$AA?$CF?$AAs?$AA?5?$AAl?$AAi?$AAn?$AAe?$AA?5?$AA?$CF?$AAd?$AA?3?$AA?5?$AA?$AA@ 100017b0     common_ti_ethdrv_lan911x:lan911x.obj
 0001:000007d8       ??_C@_1EG@KGEACGLH@?$AAI?$AAn?$AAv?$AAa?$AAl?$AAi?$AAd?$AA?5?$AAE?$AAt?$AAh?$AAe?$AAr?$AAn?$AAe?$AAt?$AA?5?$AAc?$AAh?$AAi?$AAp?$AA?5?$AAI?$AAD?$AA?5?$AA?$CI?$AA0?$AAx?$AA?$CF?$AAx?$AA?$CJ?$AA?$CB@ 100017d8     common_ti_ethdrv_lan911x:lan911x.obj
 0001:00000820       ??_C@_1IE@KFEKGLKJ@?$AA?9?$AAL?$AAA?$AAN?$AA9?$AA1?$AA1?$AAX?$AAI?$AAn?$AAi?$AAt?$AA?$CI?$AAm?$AAa?$AAc?$AA?5?$AA?$DN?$AA?5?$AA?$CF?$AA0?$AA2?$AAx?$AA?3?$AA?$CF?$AA0?$AA2?$AAx?$AA?3?$AA?$CF?$AA0?$AA2@ 10001820     common_ti_ethdrv_lan911x:lan911x.obj
 0001:000008a4       ??_C@_1CM@JIECDPON@?$AA1?$AA0?$AAM?$AAb?$AAp?$AAs?$AA?0?$AA?5?$AAH?$AAa?$AAl?$AAf?$AA?5?$AAD?$AAu?$AAp?$AAl?$AAe?$AAx?$AA?$AN?$AA?6?$AA?$AA@ 100018a4     common_ti_ethdrv_lan911x:lan911x.obj
 0001:000008d0       ??_C@_1CO@CFGPBEPG@?$AA1?$AA0?$AA0?$AAM?$AAb?$AAp?$AAs?$AA?0?$AA?5?$AAH?$AAa?$AAl?$AAf?$AA?5?$AAD?$AAu?$AAp?$AAl?$AAe?$AAx?$AA?$AN?$AA?6?$AA?$AA@ 100018d0     common_ti_ethdrv_lan911x:lan911x.obj
 0001:00000900       ??_C@_1CM@IHIEPLGN@?$AA1?$AA0?$AAM?$AAb?$AAp?$AAs?$AA?0?$AA?5?$AAF?$AAu?$AAl?$AAl?$AA?5?$AAD?$AAu?$AAp?$AAl?$AAe?$AAx?$AA?$AN?$AA?6?$AA?$AA@ 10001900     common_ti_ethdrv_lan911x:lan911x.obj
 0001:0000092c       ??_C@_1CO@DKKJNAHG@?$AA1?$AA0?$AA0?$AAM?$AAb?$AAp?$AAs?$AA?0?$AA?5?$AAF?$AAu?$AAl?$AAl?$AA?5?$AAD?$AAu?$AAp?$AAl?$AAe?$AAx?$AA?$AN?$AA?6?$AA?$AA@ 1000192c     common_ti_ethdrv_lan911x:lan911x.obj
 0001:0000095c       ??_C@_1DC@ECEBOIGE@?$AAI?$AAn?$AAv?$AAa?$AAl?$AAi?$AAd?$AA?5?$AAm?$AAo?$AAd?$AAe?$AA?5?$AAs?$AAe?$AAt?$AAt?$AAi?$AAn?$AAg?$AA?$CB?$AA?$CB?$AA?$AN?$AA?6?$AA?$AA@ 1000195c     common_ti_ethdrv_lan911x:lan911x.obj
 0001:00000990       ??_C@_1CG@EEDCFFGI@?$AAL?$AAi?$AAn?$AAk?$AA?5?$AAE?$AAs?$AAt?$AAa?$AAb?$AAl?$AAi?$AAs?$AAh?$AAe?$AAd?$AA?3?$AA?5?$AA?$AA@ 10001990     common_ti_ethdrv_lan911x:lan911x.obj
 0001:000009b8       ??_C@_1EA@FBJAOFLG@?$AAL?$AAi?$AAn?$AAk?$AA?5?$AAn?$AAo?$AAt?$AA?5?$AAd?$AAe?$AAt?$AAe?$AAc?$AAt?$AAe?$AAd?$AA?$CB?$AA?$CB?$AA?5?$AA?5?$AAA?$AAb?$AAo?$AAr?$AAt?$AAi?$AAn?$AAg?$AA?$AN?$AA?6?$AA?$AA@ 100019b8     common_ti_ethdrv_lan911x:lan911x.obj
 0001:000009f8       ??_C@_1JK@NKCKLILE@?$AAM?$AAA?$AAC?$AA?5?$AAa?$AAd?$AAd?$AAr?$AAe?$AAs?$AAs?$AA?5?$AAn?$AAo?$AAt?$AA?5?$AAf?$AAo?$AAu?$AAn?$AAd?$AA?5?$AAi?$AAn?$AA?5?$AAE?$AAE?$AAP?$AAR?$AAO?$AAM?$AA?$CB@ 100019f8     common_ti_ethdrv_lan911x:lan911x.obj
 0001:00000a98       ??_C@_1GG@FCBDMEID@?$AAS?$AAo?$AAf?$AAt?$AA?5?$AAr?$AAe?$AAs?$AAe?$AAt?$AA?5?$AAt?$AAi?$AAm?$AAe?$AAo?$AAu?$AAt?$AA?$CB?$AA?$CB?$AA?5?$AA?$CI?$AAH?$AAW?$AA_?$AAC?$AAF?$AAG?$AA?5?$AA?$DN?$AA?5?$AA0@ 10001a98     common_ti_ethdrv_lan911x:lan911x.obj
 0001:00000b00       ??_C@_1EO@ELGKCHGO@?$AA?$CL?$AAL?$AAA?$AAN?$AA9?$AA1?$AA1?$AAX?$AAI?$AAn?$AAi?$AAt?$AA?$CI?$AA0?$AAx?$AA?$CF?$AA0?$AA8?$AAx?$AA?0?$AA?5?$AA0?$AAx?$AA?$CF?$AA0?$AA8?$AAx?$AA?0?$AA?5?$AA0?$AAx?$AA?$CF@ 10001b00     common_ti_ethdrv_lan911x:lan911x.obj
 0001:00000be0       ??_C@_1EA@DJGHLELP@?$AA?9?$AAO?$AAA?$AAL?$AAA?$AAr?$AAg?$AAs?$AAQ?$AAu?$AAe?$AAr?$AAy?$AA?$CI?$AAp?$AAD?$AAa?$AAt?$AAa?$AA?5?$AA?$DN?$AA?5?$AA0?$AAx?$AA?$CF?$AA0?$AA8?$AAx?$AA?$CJ?$AA?$AN?$AA?6?$AA?$AA@ 10001be0     bsp_args:args.obj
 0001:00000c20       ??_C@_1CI@CLMEBIJE@?$AA?$CL?$AAO?$AAA?$AAL?$AAA?$AAr?$AAg?$AAs?$AAQ?$AAu?$AAe?$AAr?$AAy?$AA?$CI?$AA?$CF?$AAd?$AA?$CJ?$AA?$AN?$AA?6?$AA?$AA@ 10001c20     bsp_args:args.obj
 0001:00000cd8       ??_C@_1M@LHGLMLD@?$AAG?$AAr?$AAo?$AAu?$AAp?$AA?$AA@ 10001cd8     bsp_kitl_reg:kitlreg.obj
 0001:00000ce4       ??_C@_1M@OAJFFPML@?$AAF?$AAl?$AAa?$AAg?$AAs?$AA?$AA@ 10001ce4     bsp_kitl_reg:kitlreg.obj
 0001:00000cf0       ??_C@_11LOCGONAA@?$AA?$AA@ 10001cf0     bsp_kitl_reg:kitlreg.obj
 0001:00000cf4       ??_C@_19MADOJHGF@?$AAN?$AAD?$AAI?$AAS?$AA?$AA@ 10001cf4     bsp_kitl_reg:kitlreg.obj
 0001:00000d00       ??_C@_1BM@OAMPOMME@?$AAC?$AAo?$AAm?$AAm?$AA?2?$AAS?$AAM?$AAS?$AAC?$AA9?$AA1?$AA1?$AA8?$AA?$AA@ 10001d00     bsp_kitl_reg:kitlreg.obj
 0001:00000d1c       ??_C@_1DA@NDPGDIHO@?$AAD?$AAr?$AAi?$AAv?$AAe?$AAr?$AAs?$AA?2?$AAB?$AAu?$AAi?$AAl?$AAt?$AAI?$AAn?$AA?2?$AAM?$AAU?$AAs?$AAb?$AAO?$AAt?$AAg?$AA?$AA@ 10001d1c     bsp_kitl_reg:kitlreg.obj
 0001:00000d4c       ??_C@_1DI@EMLMDFCE@?$AAD?$AAr?$AAi?$AAv?$AAe?$AAr?$AAs?$AA?2?$AAB?$AAu?$AAi?$AAl?$AAt?$AAI?$AAn?$AA?2?$AAM?$AAU?$AAs?$AAb?$AAO?$AAt?$AAg?$AA?2?$AAH?$AAc?$AAd?$AA?$AA@ 10001d4c     bsp_kitl_reg:kitlreg.obj
 0001:00000d84       ??_C@_1DM@ELGEPOCB@?$AAD?$AAr?$AAi?$AAv?$AAe?$AAr?$AAs?$AA?2?$AAB?$AAu?$AAi?$AAl?$AAt?$AAI?$AAn?$AA?2?$AAM?$AAU?$AAs?$AAb?$AAO?$AAt?$AAg?$AA?2?$AAU?$AAs?$AAb?$AAF?$AAn?$AA?$AA@ 10001d84     bsp_kitl_reg:kitlreg.obj
 0001:00000e50       ??_C@_0EB@BGCKLDE@?9OALKitlFindDevice?$CIpDevice?5?$DN?50x?$CF@ 10001e50     oal_kitl:device.obj
 0001:00000e94       ??_C@_0CJ@GPDFFIKB@?$CLOALKitlFindDevice?$CI?$CFd?1?$CFd?1?$CF08x?0?50@ 10001e94     oal_kitl:device.obj
 0001:00000f50       ??_C@_1BI@FCMLLAGN@?$AA?$CF?$AAd?$AA?4?$AA?$CF?$AAd?$AA?4?$AA?$CF?$AAd?$AA?4?$AA?$CF?$AAd?$AA?$AA@ 10001f50     oal_kitl:format.obj
 0001:00000ffc       ??_C@_0BG@PDHAIEPB@?9SerialSend?$CIrc?5?$DN?51?$CJ?$AN?6?$AA@ 10001ffc     oal_kitl:kitlserial.obj
 0001:00001014       ??_C@_0BK@FJBKAKDG@?$CLSerialSend?$CI0x?$CF08x?0?5?$CFd?$CJ?$AN?6?$AA@ 10002014     oal_kitl:kitlserial.obj
 0001:00001030       ??_C@_0BN@FOGKPFOM@?9SerialRecv?$CI?$CKpLength?5?$DN?5?$CFd?$CJ?$AN?6?$AA@ 10002030     oal_kitl:kitlserial.obj
 0001:00001050       ??_C@_0DN@FPKOAPOO@ERROR?3?5SerialRecv?3?5Received?5pack@ 10002050     oal_kitl:kitlserial.obj
 0001:00001090       ??_C@_0DI@FBKFFAPI@WARN?3?5SerialRecv?3?5Packet?5checksu@ 10002090     oal_kitl:kitlserial.obj
 0001:000010c8       ??_C@_0FC@OLAMHMJA@WARN?3?5SerialRecv?3?5payload?5size?5e@ 100020c8     oal_kitl:kitlserial.obj
 0001:00001120       ??_C@_0FE@EPOLMELO@WARN?3?5SerialRecv?3?5Packet?5type?5wr@ 10002120     oal_kitl:kitlserial.obj
 0001:00001178       ??_C@_0FH@COFDJCJM@WARN?3?5SerialRecv?3?5Header?5checksu@ 10002178     oal_kitl:kitlserial.obj
 0001:000011d0       ??_C@_0BK@PNMBDCIB@?$CLSerialRecv?$CI0x?$CF08x?0?5?$CFd?$CJ?$AN?6?$AA@ 100021d0     oal_kitl:kitlserial.obj
 0001:000011ec       ??_C@_0BO@KPIGKMGK@?9OALKitlSerialInit?$CIrc?5?$DN?5?$CFd?$CJ?$AN?6?$AA@ 100021ec     oal_kitl:kitlserial.obj
 0001:0000120c       ??_C@_0CG@IJDAEBCE@WARN?3?5KITL?5will?5run?5in?5polling?5m@ 1000220c     oal_kitl:kitlserial.obj
 0001:00001234       ??_C@_0CN@MENCFIED@WARN?3?5KITL?5can?8t?5obtain?5SYSINTR?5@ 10002234     oal_kitl:kitlserial.obj
 0001:00001264       ??_C@_0CO@BPFMIJNH@WARN?3?5KITL?5can?8t?5obtain?5IRQ?5for?5@ 10002264     oal_kitl:kitlserial.obj
 0001:00001294       ??_C@_0CF@GMMNDEHJ@ERROR?3?5KITL?5call?5to?5pfnInit?5fail@ 10002294     oal_kitl:kitlserial.obj
 0001:000012bc       ??_C@_0CE@LGCGCDLA@ERROR?3?5KITL?5device?5driver?5is?5NUL@ 100022bc     oal_kitl:kitlserial.obj
 0001:000012e0       ??_C@_0DB@NNJFABKG@?$CLOALKitlSerialInit?$CI?8?$CFS?8?0?5?8?$CFs?8?0?50@ 100022e0     oal_kitl:kitlserial.obj
 0001:000013a8       ??_C@_0CB@GFLGAKPJ@KITL?3?5Start?5DHCP?5RENEW?5process?$AN?6@ 100023a8     oal_kitl:kitleth.obj
 0001:000013cc       ??_C@_0CJ@OFEHEAMD@KITL?3?5Connected?5host?5?5IP?3?5?$CFs?5?5Po@ 100023cc     oal_kitl:kitleth.obj
 0001:000013f8       ??_C@_0CO@LIMJACDF@?9KitlEthDecode?$CIpData?5?$DN?50x?$CF08x?0?5l@ 100023f8     oal_kitl:kitleth.obj
 0001:00001428       ??_C@_0CF@DCHGBGAP@?$CLKitlEthDecode?$CI0x?$CF08x?0?50x?$CF08x?9?$DO?$CF@ 10002428     oal_kitl:kitleth.obj
 0001:00001450       ??_C@_0BJ@BAFHPAIJ@?9KitlEthEncode?$CIrc?5?$DN?51?$CJ?$AN?6?$AA@ 10002450     oal_kitl:kitleth.obj
 0001:0000146c       ??_C@_0BL@NHDADPAH@?$CLKitlEthEncode?$CI?$CF08x?0?5?$CFd?$CJ?$AN?6?$AA@ 1000246c     oal_kitl:kitleth.obj
 0001:00001488       ??_C@_0BN@OHPDCAJH@?9KitlEthGetDevCfg?$CIrc?5?$DN?5?$CFd?$CJ?$AN?6?$AA@ 10002488     oal_kitl:kitleth.obj
 0001:000014a8       ??_C@_0CI@LLEHHLED@?$CLKitlEthGetDevCfg?$CI0x?$CF08x?0?50x?$CF08x@ 100024a8     oal_kitl:kitleth.obj
 0001:000014d0       ??_C@_0BI@DJIGCCGG@?9KitlEthSend?$CIrc?5?$DN?5?$CFd?$CJ?$AN?6?$AA@ 100024d0     oal_kitl:kitleth.obj
 0001:000014e8       ??_C@_0CA@ELPHLPBP@?$CBDriver?5Send?5failure?0?5retry?5?$CFu?6?$AA@ 100024e8     oal_kitl:kitleth.obj
 0001:00001508       ??_C@_0BL@MJDALEMH@?$CLKitlEthSend?$CI0x?$CF08x?0?5?$CFd?$CJ?$AN?6?$AA@ 10002508     oal_kitl:kitleth.obj
 0001:00001524       ??_C@_0BI@PEEPNADN@?9KitlEthRecv?$CIrc?5?$DN?5?$CFd?$CJ?$AN?6?$AA@ 10002524     oal_kitl:kitleth.obj
 0001:0000153c       ??_C@_0CD@HNBDALDE@?$CLKitlEthRecv?$CI0x?$CF08x?0?50x?$CF08x?9?$DO?$CFd?$CJ@ 1000253c     oal_kitl:kitleth.obj
 0001:00001560       ??_C@_0BE@NDAHGBJL@?9KitlEthEnableInt?$AN?6?$AA@ 10002560     oal_kitl:kitleth.obj
 0001:00001574       ??_C@_0BI@OLDCGLHD@?$CLKitlEthEnableInt?$CI?$CFd?$CJ?$AN?6?$AA@ 10002574     oal_kitl:kitleth.obj
 0001:0000158c       ??_C@_0BM@FALEIOIG@?9OALIoCtlVBridge?$CIrc?5?$DN?5?$CFd?$CJ?$AN?6?$AA@ 1000258c     oal_kitl:kitleth.obj
 0001:000015a8       ??_C@_0BP@BIAFCCDM@?$CLOALIoCtlVBridge?$CI0x?$CF08x?0?4?4?4?$CJ?$AN?6?$AA@ 100025a8     oal_kitl:kitleth.obj
 0001:000015c8       ??_C@_0CF@CNPGAGEH@KITL?3?5DHCP?5get?1renew?5device?5IP?3?5@ 100025c8     oal_kitl:kitleth.obj
 0001:000015f0       ??_C@_0BL@OCIIDPCB@?9OALKitlEthInit?$CIrc?5?$DN?5?$CFd?$CJ?$AN?6?$AA@ 100025f0     oal_kitl:kitleth.obj
 0001:0000160c       ??_C@_0BL@EIDMIDBA@KITL?3?5using?5sysintr?50x?$CFx?$AN?6?$AA@ 1000260c     oal_kitl:kitleth.obj
 0001:00001628       ??_C@_0BP@ILGKAKAA@KITL?3?5?$CK?$CK?$CK?5Device?5Name?5?$CFs?5?$CK?$CK?$CK?$AN?6?$AA@ 10002628     oal_kitl:kitleth.obj
 0001:00001648       ??_C@_0CO@PDOCGCJP@ERROR?3?5KITL?5call?5to?5pfnInitDmaBu@ 10002648     oal_kitl:kitleth.obj
 0001:00001678       ??_C@_0CO@HIMCOMKP@?$CLOALKitlEthInit?$CI?8?$CFS?8?0?5?8?$CFs?8?0?50x?$CF0@ 10002678     oal_kitl:kitleth.obj
 0001:00001738       ??_C@_0CG@IHIMJOIA@?9OALKitlCreateName?$CIpBuffer?5?$DN?5?8?$CFh@ 10002738     oal_kitl:name.obj
 0001:00001760       ??_C@_0CM@BCMDHFLI@?$CLOALKitlCreateName?$CI?8?$CFhs?8?0?50x?$CF04x@ 10002760     oal_kitl:name.obj
 0001:000018b0       ??_C@_1DE@DAHNLBLJ@?$AA?9?$AAO?$AAA?$AAL?$AAP?$AAA?$AAt?$AAo?$AAV?$AAA?$AA?$CI?$AAv?$AAa?$AA?5?$AA?$DN?$AA?5?$AA0?$AAx?$AA?$CF?$AA0?$AA8?$AAx?$AA?$CJ?$AA?$AN?$AA?6?$AA?$AA@ 100028b0     oal_memory_arm:memory.obj
 0001:000018e4       ??_C@_1CO@JEIJEAKF@?$AA?$CL?$AAO?$AAA?$AAL?$AAP?$AAA?$AAt?$AAo?$AAV?$AAA?$AA?$CI?$AA0?$AAx?$AA?$CF?$AAx?$AA?0?$AA?5?$AA?$CF?$AAd?$AA?$CJ?$AA?$AN?$AA?6?$AA?$AA@ 100028e4     oal_memory_arm:memory.obj
 0001:00001914       ??_C@_1DA@BBOHBBNH@?$AA?9?$AAO?$AAA?$AAL?$AAV?$AAA?$AAt?$AAo?$AAP?$AAA?$AA?$CI?$AAp?$AAa?$AA?5?$AA?$DN?$AA?5?$AA0?$AAx?$AA?$CF?$AAx?$AA?$CJ?$AA?$AN?$AA?6?$AA?$AA@ 10002914     oal_memory_arm:memory.obj
 0001:00001944       ??_C@_1CK@LKNIEAFP@?$AA?$CL?$AAO?$AAA?$AAL?$AAV?$AAA?$AAt?$AAo?$AAP?$AAA?$AA?$CI?$AA0?$AAx?$AA?$CF?$AA0?$AA8?$AAx?$AA?$CJ?$AA?$AN?$AA?6?$AA?$AA@ 10002944     oal_memory_arm:memory.obj
 0001:00001a00       ??_C@_0BK@FGOBGFEM@RNDISMINI?5?9?9?9?5RESET?5?9?9?9?$AN?6?$AA@ 10002a00     rne_mdd:rndis.obj
 0001:00001a1c       ??_C@_0CK@HCFNMAPL@RNdis?3?3?5Too?5much?5outgoing?0?5baili@ 10002a1c     rne_mdd:rndis.obj
 0001:00001a48       ??_C@_0DK@LOJODLJL@ASSERT?$CB?5Rndis?3?3MddSendRndisMessa@ 10002a48     rne_mdd:rndis.obj
 0001:00001a84       ??_C@_0DI@ELIDGGNF@ASSERT?5Fail?5at?5uiMessageSize?$CI?$CFd?$CJ@ 10002a84     rne_mdd:rndis.obj
 0001:00001abc       ??_C@_0CK@BEACHKGH@RNdis?3?3?5No?5mem?5for?5INITIALIZE_CO@ 10002abc     rne_mdd:rndis.obj
 0001:00001ae8       ??_C@_0BN@MJFOLLBM@RNdis?3?3?5Should?5not?5happen?$CB?$AN?6?$AA@ 10002ae8     rne_mdd:rndis.obj
 0001:00001b08       ??_C@_0CO@JHJMPDCG@RNDISMINI?5Err?$CB?$CB?5unsupported?5RNDI@ 10002b08     rne_mdd:rndis.obj
 0001:00001b38       ??_C@_0CP@HEPIJLKK@RndisMdd?3?3?5PDD?8s?5max?5RX?5buffer?5?$DN@ 10002b38     rne_mdd:rndis.obj
 0001:00001b68       ??_C@_0CK@JCOPOCLM@ERROR?$CB?5RndisInitialize?5msg?5recei@ 10002b68     rne_mdd:rndis.obj
 0001:00001b94       ??_C@_0DB@NGCDHJGD@RndisMini?5recv?5REMOTE_NDIS_HALT_@ 10002b94     rne_mdd:rndis.obj
 0001:00001bc8       ??_C@_09JBPNJICM@rndis?4cpp?$AA@ 10002bc8     rne_mdd:rndis.obj
 0001:00001bd4       ??_C@_0BP@HHOMIKAO@ASSERT?5at?5File?$CI?$CFs?$CJ?5line?5?$CI?$CFd?$CJ?$AN?6?$AA@ 10002bd4     rne_mdd:rndis.obj
 0001:00001bf4       ??_C@_0DB@PAFHLFPB@RndisMini?5rcv?5REMOTE_NDIS_RESET_@ 10002bf4     rne_mdd:rndis.obj
 0001:00001c28       ??_C@_0DA@CMCBBBCA@RNdis?3?3?5Unknown?5RNDIS?5msg?0?5buff?$FL@ 10002c28     rne_mdd:rndis.obj
 0001:00001c58       ??_C@_0P@BDJJIKDL@Overrun?$DN0x?$CFx?6?$AN?$AA@ 10002c58     rne_mdd:rndis.obj
 0001:00001c68       ??_C@_0BJ@IJMDONAK@Buffer?5is?5too?5big?50x?$CFx?6?$AN?$AA@ 10002c68     rne_mdd:rndis.obj
 0001:00001c84       ??_C@_0CK@LKMHPIGI@Wrong?5Data?5DataLength?5Msg?$DN0x?$CFx?0P@ 10002c84     rne_mdd:rndis.obj
 0001:00001cb0       ??_C@_0CN@OHNGADLJ@RNdis?3?3?5Invalid?5RndisPacket?5l?$FL?$CFd@ 10002cb0     rne_mdd:rndis.obj
 0001:00001ce0       ??_C@_0BH@HBKBIINO@Wrong?5Data?5Type?50x?$CFx?$AN?6?$AA@ 10002ce0     rne_mdd:rndis.obj
 0001:00001cf8       ??_C@_0CA@IBGOHNCO@Rndis?3?3?5initialization?3?5Fail?$CB?$AN?6?$AA@ 10002cf8     rne_mdd:rndis.obj
 0001:00001d18       ??_C@_0CC@EELLDCCI@Rndis?3?3?5initialization?3?5Success?$AN@ 10002d18     rne_mdd:rndis.obj
 0001:00001d3c       ??_C@_0CD@EOFHIDOL@Rndis?3?3?5Get?5MAC?5address?5?$CFx?0?$CFx?0?$CFx@ 10002d3c     rne_mdd:rndis.obj
 0001:00001d60       ??_C@_0CM@KLOLOCDD@Rndis?3?3?5Err?5no?5MAC?5address?5read?5@ 10002d60     rne_mdd:rndis.obj
 0001:00001d8c       ??_C@_0BL@EINAHMEI@Rndis?3?3?5PDDInit?5Success?$CB?$AN?6?$AA@ 10002d8c     rne_mdd:rndis.obj
 0001:00001da8       ??_C@_0BK@BFGGBGMH@Rndis?3?3?5initialization?$CB?$AN?6?$AA@ 10002da8     rne_mdd:rndis.obj
 0001:00001dc4       ??_C@_0CI@PFDJABBD@Rndis?3?3?5Address?5static?5map?5to?5ad@ 10002dc4     rne_mdd:rndis.obj
 0001:00001dec       ??_C@_0CH@LBCKJEJO@Rndis?3?3?5initialization?3?5with?5add@ 10002dec     rne_mdd:rndis.obj
 0001:00001ea8       ??_C@_0BP@JDIDIKNB@OID?$FL?$CFx?$FN?5not?5yet?5implemented?$CB?$AN?6?$AA@ 10002ea8     rne_mdd:hostmini.obj
 0001:00001ec8       ??_C@_0CP@MKNOHPIM@HostMini?3?3?5New?5filter?5set?3?5?$FL0x?$CFx@ 10002ec8     rne_mdd:hostmini.obj
 0001:00001ef8       ??_C@_0BE@LPGPNKBH@HostMiniInit?3?3?5?$CB?$CB?$AN?6?$AA@ 10002ef8     rne_mdd:hostmini.obj
 0001:00001fa0       ??_C@_1O@NJEHEHHO@?$AAu?$AAt?$AAi?$AAl?$AA?4?$AAc?$AA?$AA@ 10002fa0     rne_mdd:util.obj
 0001:00002040       ??_C@_0EH@OHHLEIM@VBridge?3?5Error?$CB?5ProduceBufferDon@ 10003040     vbridge:vbridge.obj
 0001:00002088       ??_C@_0ED@LALCLDGC@VBridge?3?5Error?$CB?5ConsumeBuffer?$CI?$CJ?5@ 10003088     vbridge:vbridge.obj
 0001:000020d0       ??_C@_0EH@PDMAJMNN@VBridge?3?5Error?$CB?5ConsumeBufferDon@ 100030d0     vbridge:vbridge.obj
 0001:00002118       ??_C@_0GA@BIIJJCHI@VBridge?3?5Error?$CB?5ConsumeBufferDon@ 10003118     vbridge:vbridge.obj
 0001:00002178       ??_C@_08BCKMEILL@19?328?311?$AA@ 10003178     vbridge:vbridge.obj
 0001:00002184       ??_C@_0M@CJCABMIH@Sep?5?56?52006?$AA@ 10003184     vbridge:vbridge.obj
 0001:00002190       ??_C@_0CE@JNBGKBJC@VBridge?3?3?5built?5on?5?$FL?$CFs?$FN?5time?5?$FL?$CFs@ 10003190     vbridge:vbridge.obj
 0001:000021b4       ??_C@_0DF@FKGFCLPJ@VBridgeInit?$CI?$CJ?4?4?4TX?5?$DN?5?$FL?$CFd?$FN?5bytes?5@ 100031b4     vbridge:vbridge.obj
 0001:000021ec       ??_C@_0BO@IKIKAINA@Tx?5buffer?5?$FL0x?$CFx?$FN?5to?5?$FL0x?$CFx?$FN?4?$AN?6?$AA@ 100031ec     vbridge:vbridge.obj
 0001:0000220c       ??_C@_0BO@DMIECOA@Rx?5buffer?5?$FL0x?$CFx?$FN?5to?5?$FL0x?$CFx?$FN?4?$AN?6?$AA@ 1000320c     vbridge:vbridge.obj
 0001:0000222c       ??_C@_0CO@ILLJABOE@VBridgeKGetOneTxBuffer?$CI?$CJ?5Err?$CB?5?$FL0@ 1000322c     vbridge:vbridge.obj
 0001:0000225c       ??_C@_0DE@LOPBMMHM@VBridgeKGetOneTxBufferComplete?$CI?$CJ@ 1000325c     vbridge:vbridge.obj
 0001:00002290       ??_C@_0DJ@LKNKOIHJ@VBridgeKIndicateOneRxBuffer?$CI?$CJ?5Er@ 10003290     vbridge:vbridge.obj
 0001:000022cc       ??_C@_0DI@HEJDFJBF@?$CK?$CK?5WARNING?$CB?$CB?$CB?5?$CK?$CK?5Device?5MAC?5addr@ 100032cc     vbridge:vbridge.obj
 0001:00002304       ??_C@_0CM@PJABNFGI@VBridge?3?3?5NK?5add?5MAC?3?5?$FL?$CFx?9?$CFx?9?$CFx?9@ 10003304     vbridge:vbridge.obj
 0001:00002330       ??_C@_0DJ@JPHIEPAD@VBridgeKSetLocalMacAddress?$CI?$CJ?5Err@ 10003330     vbridge:vbridge.obj
 0001:0000236c       ??_C@_0DA@BNPLKEKM@VBridgeUGetOneTxPacket?$CI?$CJ?5Err?$CB?$CB?5?$FL@ 1000336c     vbridge:vbridge.obj
 0001:0000239c       ??_C@_0DI@MDDGKNHB@VBridgeUGetOneTxPacketComplete?$CI?$CJ@ 1000339c     vbridge:vbridge.obj
 0001:000023d4       ??_C@_0DA@MGPGECBI@VBridgeUGetOneRxPacket?$CI?$CJ?5Err?$CB?$CB?5?$FL@ 100033d4     vbridge:vbridge.obj
 0001:00002404       ??_C@_0DA@KIINIKAM@VBridgeUGetOneRxPacketComplete?$CI?$CJ@ 10003404     vbridge:vbridge.obj
 0001:00002434       ??_C@_0CD@KPODIJAL@VBridge?3?3?5RESET_BUFFER?5received?4@ 10003434     vbridge:vbridge.obj
 0001:00002458       ??_C@_0CI@BDPMFOMO@VBridge?3?3?5VB_INITIALIZED?5returns@ 10003458     vbridge:vbridge.obj
 0001:00002480       ??_C@_0DB@IMBKLANK@VBridgeUGetEDBGMac?$CI?$CJ?0?5ERR?$CB?5NULL?5@ 10003480     vbridge:vbridge.obj
 0001:000024b4       ??_C@_0DB@BMKDFNPB@VBridge?3?3?5Current?5VMini?5packet?5f@ 100034b4     vbridge:vbridge.obj
 0001:000024e8       ??_C@_0DG@MKNLPBLF@VBridgeUCurrentPacketFilter?$CI?$CJ?0?5E@ 100034e8     vbridge:vbridge.obj
 0001:00002520       ??_C@_0CA@NGKEKANM@Closing?5Handle?5of?5Timer?5Thread?6?$AA@ 10003520     kitlcore:ethdbg.obj
 0001:00002540       ??_C@_0BN@FPKBKHBK@Error?5creating?5timer?5thread?6?$AA@ 10003540     kitlcore:ethdbg.obj
 0001:00002560       ??_C@_0CF@GGNNPHKD@Connecting?5to?5Desktop?5?4?4?5resendi@ 10003560     kitlcore:ethdbg.obj
 0001:00002588       ??_C@_0BI@OFAMBHJH@Connecting?5to?5Desktop?$AN?6?$AA@ 10003588     kitlcore:ethdbg.obj
 0001:000025a0       ??_C@_0EO@CEOOKDBM@?$CBKITL?5Interrupt?5thread?5got?5error@ 100035a0     kitlcore:ethdbg.obj
 0001:000025f0       ??_C@_0CB@PCGPHMPD@KITL?5InterruptInitialize?5failed?6@ 100035f0     kitlcore:ethdbg.obj
 0001:00002614       ??_C@_0BK@HDMNDFBA@KITL?5CreateEvent?5failed?$CB?6?$AA@ 10003614     kitlcore:ethdbg.obj
 0001:00002630       ??_C@_1BK@PPDMEPMD@?$AAE?$AAd?$AAb?$AAg?$AAI?$AAn?$AAt?$AAE?$AAv?$AAe?$AAn?$AAt?$AA?$AA@ 10003630     kitlcore:ethdbg.obj
 0001:0000264c       ??_C@_0CK@GNMBECNI@?$CBDoRegisterClient?$CI?$CFs?$CJ?3?5Invalid?5p@ 1000364c     kitlcore:ethdbg.obj
 0001:00002678       ??_C@_04HIBGFPH@NULL?$AA@  10003678     kitlcore:ethdbg.obj
 0001:00002680       ??_C@_0CP@LFECMIMJ@?$CBDoRegisterClient?$CI?$CFs?$CJ?3?5Invalid?5w@ 10003680     kitlcore:ethdbg.obj
 0001:000026b0       ??_C@_0DN@GDEGDLCL@?$CBKITLRegisterClient?$CI?$CFs?$CJ?3?5Client?5@ 100036b0     kitlcore:ethdbg.obj
 0001:000026f0       ??_C@_0DG@FHPIAJCD@?$CBKITLRegisterClient?$CI?$CFs?$CJ?3?5No?5avai@ 100036f0     kitlcore:ethdbg.obj
 0001:00002728       ??_C@_0DO@NHOEDOMO@?$CBDoRegisterClient?$CI?$CFs?$CJ?3?5Need?5to?5s@ 10003728     kitlcore:ethdbg.obj
 0001:00002768       ??_C@_0CB@GFDDAGEF@Error?5creating?5interrupt?5thread?6@ 10003768     kitlcore:ethdbg.obj
 0001:0000278c       ??_C@_0CE@FKCJJLLC@KITL?3?5Leaving?5polling?5mode?4?4?4?50x@ 1000378c     kitlcore:ethdbg.obj
 0001:000027b0       ??_C@_0DC@LLJMBDFH@?$CBKITLRegisterDfltClient?3?5Fail?5to@ 100037b0     kitlcore:ethdbg.obj
 0001:000027e4       ??_C@_0DH@MFOCECCL@?$AN?6?$CBUnable?5to?5establish?5KITL?5conn@ 100037e4     kitlcore:ethdbg.obj
 0001:0000281c       ??_C@_0DN@NDJFLFHF@?$AN?6?$CBKitl?5buffer?5specified?5by?5OAL?5@ 1000381c     kitlcore:ethdbg.obj
 0001:0000285c       ??_C@_06MCCIJHBO@DBGMSG?$AA@ 1000385c     kitlcore:ethdbg.obj
 0001:00002864       ??_C@_04JMJJJNGP@PPSH?$AA@ 10003864     kitlcore:ethdbg.obj
 0001:0000286c       ??_C@_04MOKOCOLM@KDBG?$AA@ 1000386c     kitlcore:ethdbg.obj
 0001:00002874       ??_C@_0CE@HDEHCBNJ@KITL?5Error?5allocating?5timer?5memo@ 10003874     kitlcore:timer.obj
 0001:00002898       ??_C@_0DM@HHCOAHOB@?$CBKitlSendFrame?3?5transport?5failed@ 10003898     kitlcore:edbgprot.obj
 0001:000028d4       ??_C@_0CF@ELFKFCIB@?$CBSendConfig?3?5Error?5in?5KitlSendFr@ 100038d4     kitlcore:edbgprot.obj
 0001:000028fc       ??_C@_0BO@OHFCENNA@?$CBSendConfig?3?5Stack?5overflow?$AN?6?$AA@ 100038fc     kitlcore:edbgprot.obj
 0001:0000291c       ??_C@_0CM@CLKKFLBC@?$CBRetransmitFrame?3?5Error?5in?5KitlS@ 1000391c     kitlcore:edbgprot.obj
 0001:00002948       ??_C@_0CH@PDOCBOKH@?$CBKITL?3?5Error?5in?5KitlSendFrame?5fo@ 10003948     kitlcore:edbgprot.obj
 0001:00002970       ??_C@_0BP@EJOKEGGJ@?$CBSendAckNack?3?5Stack?5overflow?$AN?6?$AA@ 10003970     kitlcore:edbgprot.obj
 0001:00002990       ??_C@_0BJ@HLKLCDLN@KITL?3?5Got?5RESET?5command?6?$AA@ 10003990     kitlcore:edbgprot.obj
 0001:000029ac       ??_C@_0DH@FAHMLBID@KITL?3?5IOCTL_HAL_REBOOT?5not?5suppo@ 100039ac     kitlcore:edbgprot.obj
 0001:000029e4       ??_C@_0CM@CCHLHCID@?$CBHost?5config?5message?5size?5mismat@ 100039e4     kitlcore:edbgprot.obj
 0001:00002a10       ??_C@_0CB@MCDILJMK@?$CBKITLPollData?3?5STACK?5OVERFLOW?$CB?$AN?6@ 10003a10     kitlcore:edbgprot.obj
 0001:00002a34       ??_C@_0DA@KOJGDENJ@?$CBExchangeConfig?3?5WaitForMultiple@ 10003a34     kitlcore:edbgprot.obj
 0001:00002a64       ??_C@_0CD@CLDOKAPO@?$CBKITLSend?3?5Error?5in?5KitlSendFram@ 10003a64     kitlcore:edbgprot.obj
 0001:00002a88       ??_C@_0FD@BAMAHPPH@0x?$CFx?5?$CI0x?$CFx?$CJ?3?5KITLSend?$CI?$CFu?$CJ?3?5Timed@ 10003a88     kitlcore:edbgprot.obj
 0001:00002adc       ??_C@_02DKCKIIND@?$CFs?$AA@ 10003adc     kitlcore:edbgprot.obj
 0001:00002ae0       ??_C@_0DD@OOGFOEID@?$CBKITLSend?$CIDBGMSG?$CJ?3?5Reentrant?5cal@ 10003ae0     kitlcore:edbgprot.obj
 0001:00002b14       ??_C@_03OFAPEBGM@?$CFs?6?$AA@ 10003b14     kitlcore:edbgprot.obj
 0001:00002b18       ??_C@_0DK@DPCAMIHE@?$CBKITLSend?3?5Data?5to?5be?5send?5overl@ 10003b18     kitlcore:edbgprot.obj
 0001:00002b54       ??_C@_0CJ@KPACHCHO@?$AN?6?$CBKITLRecv?3?5Invalid?5client?5ID?5?$CF@ 10003b54     kitlcore:edbgprot.obj
 0001:00002b80       ??_C@_0DJ@KKFBBHCF@?$CBKITLRecv?3?5Receive?5buffer?5overla@ 10003b80     kitlcore:edbgprot.obj
 0001:00002c54       DigitTable                 10003c54     common_ti_ethdrv_rndis:rndis.obj
 0001:00002ed8       ??_C@_1DM@FCMMONGE@?$AA?$CK?$AA?$CK?$AA?$CK?$AA?5?$AAU?$AAn?$AAk?$AAn?$AAo?$AAw?$AAn?$AA?5?$AAS?$AAT?$AAR?$AAI?$AAN?$AAG?$AA?5?$AAi?$AAn?$AAd?$AAe?$AAx?$AA?5?$AA?$CF?$AAd?$AA?$AN?$AA?6?$AA?$AA@ 10003ed8     common_ti_ethdrv_rndis:rndis.obj
 0001:00002f18       ??_C@_1FE@MMFBADFF@?$AA?$CK?$AA?$CK?$AA?$CK?$AA?5?$AAU?$AAn?$AAk?$AAn?$AAo?$AAw?$AAn?$AA?5?$AAG?$AAE?$AAT?$AA_?$AAD?$AAE?$AAS?$AAC?$AAR?$AAI?$AAP?$AAT?$AAO?$AAR?$AA?5?$AAr?$AAe?$AAq?$AAu?$AAe@ 10003f18     common_ti_ethdrv_rndis:rndis.obj
 0001:00002f6c       ??_C@_1CK@OLHEFDLK@?$AAN?$AAo?$AA?5?$AAm?$AAe?$AAm?$AA?5?$AAf?$AAo?$AAr?$AA?5?$AAR?$AAX?$AA?5?$AAd?$AAa?$AAt?$AAa?$AA?$AN?$AA?6?$AA?$AA@ 10003f6c     common_ti_ethdrv_rndis:rndis.obj
 0001:00002f98       ??_C@_1DI@FELDACDH@?$AAN?$AAo?$AA?5?$AAm?$AAe?$AAm?$AA?5?$AAf?$AAo?$AAr?$AA?5?$AAR?$AAX?$AA?5?$AAD?$AAa?$AAt?$AAa?$AAW?$AAr?$AAa?$AAp?$AAp?$AAe?$AAr?$AA?$AN?$AA?6?$AA?$AA@ 10003f98     common_ti_ethdrv_rndis:rndis.obj
 0001:00002fd0       ??_C@_1CK@OFGGHINF@?$AA?9?$AAH?$AAa?$AAn?$AAd?$AAl?$AAe?$AAS?$AAe?$AAt?$AAu?$AAp?$AAP?$AAa?$AAc?$AAk?$AAe?$AAt?$AA?$AN?$AA?6?$AA?$AA@ 10003fd0     common_ti_ethdrv_rndis:rndis.obj
 0001:00002ffc       ??_C@_1DG@HDGBABFG@?$AA?$CK?$AA?$CK?$AA?$CK?$AA?5?$AAU?$AAn?$AAk?$AAn?$AAo?$AAw?$AAn?$AA?5?$AAr?$AAe?$AAq?$AAu?$AAe?$AAs?$AAt?$AA?5?$AA0?$AAx?$AA?$CF?$AAx?$AA?$AN?$AA?6?$AA?$AA@ 10003ffc     common_ti_ethdrv_rndis:rndis.obj
 0001:00003038       ??_C@_1FI@GLILKAEG@?$AA?$CK?$AA?$CK?$AA?$CK?$AA?5?$AAU?$AAn?$AAH?$AAa?$AAn?$AAd?$AAl?$AAe?$AAd?$AA?5?$AAG?$AAE?$AAT?$AA_?$AAD?$AAE?$AAS?$AAC?$AAR?$AAI?$AAP?$AAT?$AAO?$AAR?$AA?5?$AAr?$AAe?$AAq@ 10004038     common_ti_ethdrv_rndis:rndis.obj
 0001:00003090       ??_C@_1CO@NANJHOKH@?$AA?$CK?$AA?$CK?$AA?$CK?$AAR?$AAe?$AAq?$AAu?$AAe?$AAs?$AAt?$AAT?$AAy?$AAp?$AAe?$AA?$DN?$AA?$DN?$AA0?$AAx?$AA0?$AA2?$AA?$AN?$AA?6?$AA?$AA@ 10004090     common_ti_ethdrv_rndis:rndis.obj
 0001:000030c0       ??_C@_1CO@MDAODOFD@?$AA?$CK?$AA?$CK?$AA?$CK?$AAR?$AAe?$AAq?$AAu?$AAe?$AAs?$AAt?$AAT?$AAy?$AAp?$AAe?$AA?$DN?$AA?$DN?$AA0?$AAx?$AA8?$AA2?$AA?$AN?$AA?6?$AA?$AA@ 100040c0     common_ti_ethdrv_rndis:rndis.obj
 0001:000030f0       ??_C@_1EM@PLFMLLKO@?$AA?$CK?$AA?$CK?$AA?$CK?$AA?$CK?$AA?5?$AAU?$AAn?$AAh?$AAa?$AAn?$AAd?$AAl?$AAe?$AAd?$AA?5?$AAv?$AAe?$AAr?$AAn?$AAd?$AAo?$AAr?$AA?5?$AAc?$AAo?$AAm?$AAm?$AAa?$AAn?$AAd?$AA?5?$AA0@ 100040f0     common_ti_ethdrv_rndis:rndis.obj
 0001:0000313c       ??_C@_1CK@JFBBGODD@?$AA?$CL?$AAH?$AAa?$AAn?$AAd?$AAl?$AAe?$AAS?$AAe?$AAt?$AAu?$AAp?$AAP?$AAa?$AAc?$AAk?$AAe?$AAt?$AA?$AN?$AA?6?$AA?$AA@ 1000413c     common_ti_ethdrv_rndis:rndis.obj
 0001:00003168       ??_C@_1O@KIJBGEAN@?$AAD?$AAo?$AAn?$AAe?$AA?$AN?$AA?6?$AA?$AA@ 10004168     common_ti_ethdrv_rndis:rndis.obj
 0001:00003178       ??_C@_1FG@LFHLPLMG@?$AAS?$AAe?$AAn?$AAd?$AAP?$AAa?$AAc?$AAk?$AAe?$AAt?$AA?5?$AAr?$AAe?$AAq?$AAu?$AAe?$AAs?$AAt?$AA?5?$AAc?$AAo?$AAm?$AAp?$AAl?$AAe?$AAt?$AAe?$AAd?$AA?$CB?$AA?5?$AA?$FL?$AA?$CF@ 10004178     common_ti_ethdrv_rndis:rndis.obj
 0001:000031d0       ??_C@_1CC@IOLIBBDB@?$AA?9?$AAN?$AAo?$AAt?$AAi?$AAf?$AAy?$AAH?$AAa?$AAn?$AAd?$AAl?$AAe?$AAr?$AA?$AN?$AA?6?$AA?$AA@ 100041d0     common_ti_ethdrv_rndis:rndis.obj
 0001:000031f8       ??_C@_1FM@FDJOONCJ@?$AAG?$AAo?$AAt?$AA?5?$AAS?$AAE?$AAT?$AAU?$AAP?$AA?5?$AA?$DM?$AAN?$AAO?$AA?5?$AAD?$AAA?$AAT?$AAA?$AA?3?$AA?5?$AA?$CF?$AAx?$AA?5?$AA?$CF?$AAx?$AA?5?$AA?$CF?$AAx?$AA?5?$AA?$CF?$AAx?$AA?5@ 100041f8     common_ti_ethdrv_rndis:rndis.obj
 0001:00003254       ??_C@_1DA@MJLPENBD@?$AAG?$AAo?$AAt?$AA?5?$AAS?$AAE?$AAT?$AAU?$AAP?$AA?5?$AAO?$AAU?$AAT?$AA?5?$AAp?$AAa?$AAc?$AAk?$AAe?$AAt?$AA?4?$AA?$AN?$AA?6?$AA?$AA@ 10004254     common_ti_ethdrv_rndis:rndis.obj
 0001:00003284       ??_C@_1CM@NHNGDKFM@?$AAG?$AAo?$AAt?$AA?5?$AAS?$AAE?$AAT?$AAU?$AAP?$AA?5?$AAI?$AAN?$AA?5?$AAp?$AAa?$AAc?$AAk?$AAe?$AAt?$AA?$AN?$AA?6?$AA?$AA@ 10004284     common_ti_ethdrv_rndis:rndis.obj
 0001:000032b0       ??_C@_1DK@CJOHLCDF@?$AAE?$AAR?$AAR?$AAO?$AAR?$AA?5?$AAP?$AAA?$AAR?$AAS?$AAI?$AAN?$AAG?$AA?5?$AAS?$AAE?$AAT?$AAU?$AAP?$AA?5?$AAP?$AAA?$AAC?$AAK?$AAE?$AAT?$AA?$AN?$AA?6?$AA?$AA@ 100042b0     common_ti_ethdrv_rndis:rndis.obj
 0001:000032ec       ??_C@_1CI@KCINNAAK@?$AAI?$AAN?$AAV?$AAA?$AAL?$AAI?$AAD?$AA?5?$AAT?$AAR?$AAA?$AAN?$AAS?$AAF?$AAE?$AAR?$AA?$CB?$AA?$AN?$AA?6?$AA?$AA@ 100042ec     common_ti_ethdrv_rndis:rndis.obj
 0001:00003318       ??_C@_1EG@NBFJCBDP@?$AAE?$AAP?$AA3?$AA?5?$AAI?$AAn?$AAt?$AAe?$AAr?$AAr?$AAu?$AAp?$AAt?$AA?5?$AAs?$AAu?$AAc?$AAc?$AAe?$AAs?$AAs?$AAf?$AAu?$AAl?$AAl?$AAy?$AA?5?$AAs?$AAe?$AAn?$AAt?$AA?$CB@ 10004318     common_ti_ethdrv_rndis:rndis.obj
 0001:00003360       ??_C@_1DO@PFNPIHHC@?$AAU?$AAn?$AAe?$AAx?$AAp?$AAe?$AAc?$AAt?$AAe?$AAd?$AA?5?$AAE?$AAP?$AA2?$AA?5?$AAt?$AAr?$AAa?$AAn?$AAs?$AAf?$AAe?$AAr?$AA?5?$AAs?$AAt?$AAa?$AAt?$AAe?$AA?$CB?$AA?$AA@ 10004360     common_ti_ethdrv_rndis:rndis.obj
 0001:000033a0       ??_C@_1EG@NEPEKMDB@?$AAS?$AAe?$AAn?$AAd?$AAP?$AAa?$AAc?$AAk?$AAe?$AAt?$AA?5?$AAN?$AAU?$AAL?$AAL?$AA?5?$AAt?$AAe?$AAr?$AAm?$AAi?$AAn?$AAa?$AAt?$AAo?$AAr?$AA?5?$AAs?$AAe?$AAn?$AAt?$AA?$CB@ 100043a0     common_ti_ethdrv_rndis:rndis.obj
 0001:000033e8       ??_C@_1FI@KOMJGPLF@?$AAS?$AAe?$AAn?$AAd?$AAi?$AAn?$AAg?$AA?5?$AAN?$AAU?$AAL?$AAL?$AA?5?$AAt?$AAe?$AAr?$AAm?$AAi?$AAn?$AAa?$AAt?$AAo?$AAr?$AA?5?$AAf?$AAo?$AAr?$AA?5?$AAt?$AAh?$AAe?$AA?5@ 100043e8     common_ti_ethdrv_rndis:rndis.obj
 0001:00003440       ??_C@_1EA@ODINLGJJ@?$AAR?$AAe?$AAc?$AAe?$AAi?$AAv?$AAe?$AAd?$AA?5?$AAa?$AA?5?$AAp?$AAa?$AAc?$AAk?$AAe?$AAt?$AA?5?$AA?$FL?$AA?$CF?$AAd?$AA?5?$AAb?$AAy?$AAt?$AAe?$AAs?$AA?$FN?$AA?$CB?$AA?$AN?$AA?6?$AA?$AA@ 10004440     common_ti_ethdrv_rndis:rndis.obj
 0001:00003480       ??_C@_1CM@FNJKEBIB@?$AAR?$AAe?$AAc?$AAe?$AAi?$AAv?$AAe?$AAd?$AA?5?$AAa?$AA?5?$AAm?$AAe?$AAs?$AAs?$AAa?$AAg?$AAe?$AA?$CB?$AA?$AN?$AA?6?$AA?$AA@ 10004480     common_ti_ethdrv_rndis:rndis.obj
 0001:000034ac       ??_C@_1CO@MJKBFNNP@?$AAD?$AAo?$AAn?$AAe?$AA?5?$AAr?$AAe?$AAc?$AAe?$AAi?$AAv?$AAi?$AAn?$AAg?$AA?5?$AAd?$AAa?$AAt?$AAa?$AA?4?$AA?$AN?$AA?6?$AA?$AA@ 100044ac     common_ti_ethdrv_rndis:rndis.obj
 0001:000034e0       ??_C@_1EC@LJDGALBJ@?$AAS?$AAe?$AAn?$AAd?$AAM?$AAe?$AAs?$AAs?$AAa?$AAg?$AAe?$AA?5?$AAr?$AAe?$AAq?$AAu?$AAe?$AAs?$AAt?$AA?5?$AAc?$AAo?$AAm?$AAp?$AAl?$AAe?$AAt?$AAe?$AAd?$AA?$CB?$AA?$AN?$AA?6@ 100044e0     common_ti_ethdrv_rndis:rndis.obj
 0001:00003524       ??_C@_1CK@FEGGBLDE@?$AAD?$AAo?$AAn?$AAe?$AA?5?$AAs?$AAe?$AAn?$AAd?$AAi?$AAn?$AAg?$AA?5?$AAd?$AAa?$AAt?$AAa?$AA?4?$AA?$AN?$AA?6?$AA?$AA@ 10004524     common_ti_ethdrv_rndis:rndis.obj
 0001:00003550       ??_C@_1CC@FFLFPHIF@?$AA?$CL?$AAN?$AAo?$AAt?$AAi?$AAf?$AAy?$AAH?$AAa?$AAn?$AAd?$AAl?$AAe?$AAr?$AA?$AN?$AA?6?$AA?$AA@ 10004550     common_ti_ethdrv_rndis:rndis.obj
 0001:00003578       ??_C@_1EI@ONHOMNHJ@?$AA?9?$AAR?$AAN?$AAD?$AAI?$AAS?$AA_?$AAU?$AAS?$AAB?$AAF?$AAN?$AA_?$AAP?$AAD?$AAD?$AA_?$AAS?$AAe?$AAn?$AAd?$AAR?$AAn?$AAd?$AAi?$AAs?$AAM?$AAe?$AAs?$AAs?$AAa?$AAg@ 10004578     common_ti_ethdrv_rndis:rndis.obj
 0001:000035c0       ??_C@_1HE@PDJOEOPK@?$AA?$CL?$AAR?$AAN?$AAD?$AAI?$AAS?$AA_?$AAU?$AAS?$AAB?$AAF?$AAN?$AA_?$AAP?$AAD?$AAD?$AA_?$AAS?$AAe?$AAn?$AAd?$AAR?$AAn?$AAd?$AAi?$AAs?$AAM?$AAe?$AAs?$AAs?$AAa?$AAg@ 100045c0     common_ti_ethdrv_rndis:rndis.obj
 0001:00003638       ??_C@_1GK@OCDDHLML@?$AA?$CL?$AAR?$AAN?$AAD?$AAI?$AAS?$AA_?$AAU?$AAS?$AAB?$AAF?$AAN?$AA_?$AAP?$AAD?$AAD?$AA_?$AAS?$AAe?$AAn?$AAd?$AAR?$AAn?$AAd?$AAi?$AAs?$AAM?$AAe?$AAs?$AAs?$AAa?$AAg@ 10004638     common_ti_ethdrv_rndis:rndis.obj
 0001:000036a8       ??_C@_1EI@LPKHCIID@?$AA?$CL?$AAR?$AAN?$AAD?$AAI?$AAS?$AA_?$AAU?$AAS?$AAB?$AAF?$AAN?$AA_?$AAP?$AAD?$AAD?$AA_?$AAS?$AAe?$AAn?$AAd?$AAR?$AAn?$AAd?$AAi?$AAs?$AAM?$AAe?$AAs?$AAs?$AAa?$AAg@ 100046a8     common_ti_ethdrv_rndis:rndis.obj
 0001:000036f0       ??_C@_1EG@FPFPIBJG@?$AA?9?$AAR?$AAN?$AAD?$AAI?$AAS?$AA_?$AAU?$AAS?$AAB?$AAF?$AAN?$AA_?$AAP?$AAD?$AAD?$AA_?$AAS?$AAe?$AAn?$AAd?$AAR?$AAn?$AAd?$AAi?$AAs?$AAP?$AAa?$AAc?$AAk?$AAe?$AAt@ 100046f0     common_ti_ethdrv_rndis:rndis.obj
 0001:00003738       ??_C@_1FG@MIKLDILD@?$AA?$CK?$AA?$CK?$AA?$CK?$AA?$CK?$AAM?$AAu?$AAl?$AAt?$AAi?$AAp?$AAl?$AAe?$AA?5?$AAp?$AAe?$AAn?$AAd?$AAi?$AAn?$AAg?$AA?5?$AAs?$AAe?$AAn?$AAd?$AA?5?$AAr?$AAn?$AAd?$AAi?$AAs?$AA?5@ 10004738     common_ti_ethdrv_rndis:rndis.obj
 0001:00003790       ??_C@_1EI@PJCOBAOE@?$AAG?$AAo?$AAt?$AA?5?$AAS?$AAe?$AAn?$AAd?$AAP?$AAa?$AAc?$AAk?$AAe?$AAt?$AA?5?$AAR?$AAe?$AAq?$AAu?$AAe?$AAs?$AAt?$AA?5?$AA?$FL?$AA?$CF?$AAd?$AA?5?$AAb?$AAy?$AAt?$AAe?$AAs@ 10004790     common_ti_ethdrv_rndis:rndis.obj
 0001:000037d8       ??_C@_1EG@FDHKBGKN@?$AA?$CL?$AAR?$AAN?$AAD?$AAI?$AAS?$AA_?$AAU?$AAS?$AAB?$AAF?$AAN?$AA_?$AAP?$AAD?$AAD?$AA_?$AAS?$AAe?$AAn?$AAd?$AAR?$AAn?$AAd?$AAi?$AAs?$AAP?$AAa?$AAc?$AAk?$AAe?$AAt@ 100047d8     common_ti_ethdrv_rndis:rndis.obj
 0001:00003820       ??_C@_1CO@MBMDAIGD@?$AA?9?$AAR?$AAN?$AAD?$AAI?$AAS?$AA_?$AAU?$AAS?$AAB?$AAF?$AAN?$AA_?$AAP?$AAD?$AAD?$AA_?$AAS?$AAe?$AAt?$AA?$AN?$AA?6?$AA?$AA@ 10004820     common_ti_ethdrv_rndis:rndis.obj
 0001:00003850       ??_C@_1DI@LPFOEPEC@?$AAP?$AAD?$AAD?$AA_?$AAS?$AAe?$AAt?$AA?3?$AAR?$AAE?$AAQ?$AA_?$AAI?$AAD?$AA_?$AAH?$AAA?$AAR?$AAD?$AA_?$AAR?$AAE?$AAS?$AAE?$AAT?$AA?$AN?$AA?6?$AA?$AA@ 10004850     common_ti_ethdrv_rndis:rndis.obj
 0001:00003888       ??_C@_1DI@MFNCMIPE@?$AAP?$AAD?$AAD?$AA_?$AAS?$AAe?$AAt?$AA?3?$AAR?$AAE?$AAQ?$AA_?$AAI?$AAD?$AA_?$AAS?$AAO?$AAF?$AAT?$AA_?$AAR?$AAE?$AAS?$AAE?$AAT?$AA?$AN?$AA?6?$AA?$AA@ 10004888     common_ti_ethdrv_rndis:rndis.obj
 0001:000038c0       ??_C@_1DI@KFPGHMKG@?$AAP?$AAD?$AAD?$AA_?$AAS?$AAe?$AAt?$AA?3?$AAR?$AAE?$AAQ?$AA_?$AAI?$AAD?$AA_?$AAE?$AAN?$AAA?$AAB?$AAL?$AAE?$AA_?$AAI?$AAN?$AAT?$AA?$AN?$AA?6?$AA?$AA@ 100048c0     common_ti_ethdrv_rndis:rndis.obj
 0001:000038f8       ??_C@_1DK@PGGKHLLK@?$AAP?$AAD?$AAD?$AA_?$AAS?$AAe?$AAt?$AA?3?$AAR?$AAE?$AAQ?$AA_?$AAI?$AAD?$AA_?$AAD?$AAI?$AAS?$AAA?$AAB?$AAL?$AAE?$AA_?$AAI?$AAN?$AAT?$AA?$AN?$AA?6?$AA?$AA@ 100048f8     common_ti_ethdrv_rndis:rndis.obj
 0001:00003934       ??_C@_1DO@PIKCPFME@?$AAP?$AAD?$AAD?$AA_?$AAS?$AAe?$AAt?$AA?3?$AAU?$AAn?$AAk?$AAn?$AAo?$AAw?$AAn?$AA?5?$AAr?$AAe?$AAq?$AAu?$AAe?$AAs?$AAt?$AA?3?$AA0?$AAx?$AA?$CF?$AAx?$AA?$AN?$AA?6?$AA?$AA@ 10004934     common_ti_ethdrv_rndis:rndis.obj
 0001:00003974       ??_C@_1CO@BKAHFHEI@?$AA?$CL?$AAR?$AAN?$AAD?$AAI?$AAS?$AA_?$AAU?$AAS?$AAB?$AAF?$AAN?$AA_?$AAP?$AAD?$AAD?$AA_?$AAS?$AAe?$AAt?$AA?$AN?$AA?6?$AA?$AA@ 10004974     common_ti_ethdrv_rndis:rndis.obj
 0001:000039a4       ??_C@_1CO@MONNNOOA@?$AA?9?$AAR?$AAN?$AAD?$AAI?$AAS?$AA_?$AAU?$AAS?$AAB?$AAF?$AAN?$AA_?$AAP?$AAD?$AAD?$AA_?$AAG?$AAe?$AAt?$AA?$AN?$AA?6?$AA?$AA@ 100049a4     common_ti_ethdrv_rndis:rndis.obj
 0001:000039d8       ??_C@_1EC@FCCAEHJA@?$AA?9?$AAP?$AAD?$AAD?$AA_?$AAG?$AAe?$AAt?$AA?3?$AA?5?$AAu?$AAn?$AAk?$AAn?$AAo?$AAw?$AAn?$AA?5?$AAr?$AAe?$AAq?$AAu?$AAe?$AAs?$AAt?$AA?5?$AA0?$AAx?$AA?$CF?$AAx?$AA?$AN?$AA?6@ 100049d8     common_ti_ethdrv_rndis:rndis.obj
 0001:00003a1c       ??_C@_1CO@BFBJIBML@?$AA?$CL?$AAR?$AAN?$AAD?$AAI?$AAS?$AA_?$AAU?$AAS?$AAB?$AAF?$AAN?$AA_?$AAP?$AAD?$AAD?$AA_?$AAG?$AAe?$AAt?$AA?$AN?$AA?6?$AA?$AA@ 10004a1c     common_ti_ethdrv_rndis:rndis.obj
 0001:00003a50       ??_C@_1FO@HIPGBBGN@?$AA?9?$AAR?$AAN?$AAD?$AAI?$AAS?$AA_?$AAU?$AAS?$AAB?$AAF?$AAN?$AA_?$AAP?$AAD?$AAD?$AA_?$AAI?$AAn?$AAd?$AAi?$AAc?$AAa?$AAt?$AAe?$AAR?$AAn?$AAd?$AAi?$AAs?$AAP?$AAa@ 10004a50     common_ti_ethdrv_rndis:rndis.obj
 0001:00003ab0       ??_C@_1FO@PLBKEBPA@?$AA?$CL?$AAR?$AAN?$AAD?$AAI?$AAS?$AA_?$AAU?$AAS?$AAB?$AAF?$AAN?$AA_?$AAP?$AAD?$AAD?$AA_?$AAI?$AAn?$AAd?$AAi?$AAc?$AAa?$AAt?$AAe?$AAR?$AAn?$AAd?$AAi?$AAs?$AAP?$AAa@ 10004ab0     common_ti_ethdrv_rndis:rndis.obj
 0001:00003b10       ??_C@_1DG@LOIHLLKG@?$AAR?$AAN?$AAD?$AAI?$AAS?$AA?5?$AAS?$AAe?$AAr?$AAi?$AAa?$AAl?$AA?5?$AAN?$AAu?$AAm?$AAb?$AAe?$AAr?$AA?$DN?$AA?$FL?$AA?$CF?$AAs?$AA?$FN?$AA?$AN?$AA?6?$AA?$AA@ 10004b10     common_ti_ethdrv_rndis:rndis.obj
 0001:00003b48       ??_C@_1CO@MPAJKINN@?$AA?9?$AAR?$AAN?$AAD?$AAI?$AAS?$AA_?$AAU?$AAS?$AAB?$AAF?$AAN?$AA_?$AAP?$AAD?$AAD?$AAI?$AAn?$AAi?$AAt?$AA?$AN?$AA?6?$AA?$AA@ 10004b48     common_ti_ethdrv_rndis:rndis.obj
 0001:00003b78       ??_C@_1GC@COEDNCDC@?$AA?5?$AAR?$AAN?$AAD?$AAI?$AAS?$AA_?$AAU?$AAS?$AAB?$AAF?$AAN?$AA_?$AAP?$AAD?$AAD?$AAI?$AAn?$AAi?$AAt?$AA?3?$AA?5?$AAi?$AAn?$AAi?$AAt?$AAi?$AAa?$AAl?$AAi?$AAz?$AAa@ 10004b78     common_ti_ethdrv_rndis:rndis.obj
 0001:00003bdc       ??_C@_1CI@OLENNHLD@?$AAU?$AAf?$AAn?$AAP?$AAd?$AAd?$AA_?$AAI?$AAn?$AAi?$AAt?$AA?5?$AAf?$AAa?$AAi?$AAl?$AAe?$AAd?$AA?$CB?$AA?$AA@ 10004bdc     common_ti_ethdrv_rndis:rndis.obj
 0001:00003c04       ??_C@_1CO@BEMNPHPG@?$AA?$CL?$AAR?$AAN?$AAD?$AAI?$AAS?$AA_?$AAU?$AAS?$AAB?$AAF?$AAN?$AA_?$AAP?$AAD?$AAD?$AAI?$AAn?$AAi?$AAt?$AA?$AN?$AA?6?$AA?$AA@ 10004c04     common_ti_ethdrv_rndis:rndis.obj
 0001:00003cc8       KERNEL_DEVCLKMGMT_GUID     10004cc8     bsp_kitl_ethdrv_usbfn:trans.obj
 0001:00003cd8       KERNEL_DEVAUTOIDLE_GUID    10004cd8     bsp_kitl_ethdrv_usbfn:trans.obj
 0001:00003ce8       KERNEL_SYSPOWERUPDATE_GUID 10004ce8     bsp_kitl_ethdrv_usbfn:trans.obj
 0001:00003cf8       KERNEL_OPMODE_GUID         10004cf8     bsp_kitl_ethdrv_usbfn:trans.obj
 0001:00003d08       KERNEL_DPLLMODE_GUID       10004d08     bsp_kitl_ethdrv_usbfn:trans.obj
 0001:00003d18       KERNEL_CALIBRATEDLLTIMINGS_GUID 10004d18     bsp_kitl_ethdrv_usbfn:trans.obj
 0001:00003d28       KERNEL_SYSTEMIDLEMODE_GUID 10004d28     bsp_kitl_ethdrv_usbfn:trans.obj
 0001:00003d38       KERNEL_FREQUENCYMODE_GUID  10004d38     bsp_kitl_ethdrv_usbfn:trans.obj
 0001:00003d48       KERNEL_DOMAINPOWERMODE_GUID 10004d48     bsp_kitl_ethdrv_usbfn:trans.obj
 0001:00003d58       KERNEL_DOMAINIDLEMODE_GUID 10004d58     bsp_kitl_ethdrv_usbfn:trans.obj
 0001:00003d68       ??_C@_1EA@IINJFEEO@?$AA?9?$AAI?$AAn?$AAi?$AAt?$AAi?$AAa?$AAl?$AAi?$AAz?$AAe?$AAH?$AAa?$AAr?$AAd?$AAw?$AAa?$AAr?$AAe?$AA?5?$AA?9?$AA?5?$AAr?$AAc?$AA?5?$AA?$DN?$AA?5?$AA?$CF?$AAd?$AA?$AN?$AA?6?$AA?$AA@ 10004d68     bsp_kitl_ethdrv_usbfn:trans.obj
 0001:00003da8       ??_C@_1JC@OCMNNEJP@?$AAE?$AAR?$AAR?$AAO?$AAR?$AA?3?$AA?5?$AAK?$AAI?$AAT?$AAL?$AA?5?$AAU?$AAf?$AAn?$AAP?$AAd?$AAd?$AA_?$AAI?$AAn?$AAi?$AAt?$AA?3?$AA?5?$AAF?$AAa?$AAi?$AAl?$AAe?$AAd?$AA?5@ 10004da8     bsp_kitl_ethdrv_usbfn:trans.obj
 0001:00003e3c       ??_C@_1CM@EAMJHAFB@?$AA?$CL?$AAI?$AAn?$AAi?$AAt?$AAi?$AAa?$AAl?$AAi?$AAz?$AAe?$AAH?$AAa?$AAr?$AAd?$AAw?$AAa?$AAr?$AAe?$AA?$AN?$AA?6?$AA?$AA@ 10004e3c     bsp_kitl_ethdrv_usbfn:trans.obj
 0001:00003e68       ??_C@_1CG@CHELIBAH@?$AA?9?$AAC?$AAo?$AAn?$AAn?$AAe?$AAc?$AAt?$AAH?$AAa?$AAr?$AAd?$AAw?$AAa?$AAr?$AAe?$AA?$AN?$AA?6?$AA?$AA@ 10004e68     bsp_kitl_ethdrv_usbfn:trans.obj
 0001:00003e90       ??_C@_1CG@LMJLIBMJ@?$AA?$CL?$AAC?$AAo?$AAn?$AAn?$AAe?$AAc?$AAt?$AAH?$AAa?$AAr?$AAd?$AAw?$AAa?$AAr?$AAe?$AA?$AN?$AA?6?$AA?$AA@ 10004e90     bsp_kitl_ethdrv_usbfn:trans.obj
 0001:00003eb8       ??_C@_1CM@GNIMNOJD@?$AA?9?$AAD?$AAi?$AAs?$AAc?$AAo?$AAn?$AAn?$AAe?$AAc?$AAt?$AAH?$AAa?$AAr?$AAd?$AAw?$AAa?$AAr?$AAe?$AA?$AN?$AA?6?$AA?$AA@ 10004eb8     bsp_kitl_ethdrv_usbfn:trans.obj
 0001:00003ee4       ??_C@_1CM@JBHMEPNP@?$AA?$CL?$AAD?$AAi?$AAs?$AAc?$AAo?$AAn?$AAn?$AAe?$AAc?$AAt?$AAH?$AAa?$AAr?$AAd?$AAw?$AAa?$AAr?$AAe?$AA?$AN?$AA?6?$AA?$AA@ 10004ee4     bsp_kitl_ethdrv_usbfn:trans.obj
 0001:00003f10       ??_C@_1CG@LPMIPPDJ@?$AA?9?$AAE?$AAn?$AAa?$AAb?$AAl?$AAe?$AAU?$AAS?$AAB?$AAC?$AAl?$AAo?$AAc?$AAk?$AAs?$AA?$AN?$AA?6?$AA?$AA@ 10004f10     bsp_kitl_ethdrv_usbfn:trans.obj
 0001:00003f38       ??_C@_1CG@CEBIPPPH@?$AA?$CL?$AAE?$AAn?$AAa?$AAb?$AAl?$AAe?$AAU?$AAS?$AAB?$AAC?$AAl?$AAo?$AAc?$AAk?$AAs?$AA?$AN?$AA?6?$AA?$AA@ 10004f38     bsp_kitl_ethdrv_usbfn:trans.obj
 0001:00003ff0       ??_C@_1CK@CPIFLPMI@?$AAu?$AAn?$AAa?$AAl?$AAi?$AAg?$AAn?$AAe?$AAd?$AA?5?$AAr?$AAe?$AAa?$AAd?$AAf?$AAi?$AAf?$AAo?$AA?$AN?$AA?6?$AA?$AA@ 10004ff0     common_ti_ethdrv_usbfn:pdd.obj
 0001:0000401c       ??_C@_1BK@BIFEAHLP@?$AA?9?$AAW?$AAr?$AAi?$AAt?$AAe?$AAF?$AAI?$AAF?$AAO?$AA?$AN?$AA?6?$AA?$AA@ 1000501c     common_ti_ethdrv_usbfn:pdd.obj
 0001:00004038       ??_C@_1DC@GIDDBHNC@?$AA?$CL?$AAW?$AAr?$AAi?$AAt?$AAe?$AAF?$AAI?$AAF?$AAO?$AA?3?$AA?5?$AAs?$AAi?$AAz?$AAe?$AA?$CI?$AA0?$AAx?$AA?$CF?$AAx?$AA?$CJ?$AA?$AN?$AA?6?$AA?$AA@ 10005038     common_ti_ethdrv_usbfn:pdd.obj
 0001:0000406c       ??_C@_1DO@OPAMNHLJ@?$AA?9?$AAU?$AAs?$AAb?$AAF?$AAn?$AAP?$AAd?$AAd?$AA?$CB?$AAC?$AAo?$AAn?$AAt?$AAi?$AAn?$AAu?$AAe?$AAT?$AAx?$AAT?$AAr?$AAa?$AAn?$AAs?$AAf?$AAe?$AAr?$AA?$AN?$AA?6?$AA?$AA@ 1000506c     common_ti_ethdrv_usbfn:pdd.obj
 0001:000040b0       ??_C@_1FM@OBLLBJJA@?$AAS?$AAe?$AAt?$AA?5?$AAO?$AAU?$AAT?$AA?5?$AAM?$AAs?$AAg?$AA?5?$AA?$DN?$AA?$DO?$AA?5?$AAe?$AAp?$AA0?$AAS?$AAt?$AAa?$AAt?$AAe?$AA?5?$AA?$DN?$AA?5?$AAE?$AAP?$AA0?$AA_?$AAS?$AAT@ 100050b0     common_ti_ethdrv_usbfn:pdd.obj
 0001:0000410c       ??_C@_1BM@LMLHKPJF@?$AAD?$AAA?$AAT?$AAA?$AAE?$AAN?$AAD?$AA?5?$AAa?$AAd?$AAd?$AA?$AN?$AA?6?$AA?$AA@ 1000510c     common_ti_ethdrv_usbfn:pdd.obj
 0001:00004128       ??_C@_1CK@EOKGALAH@?$AAT?$AAx?$AA?5?$AAp?$AAa?$AAc?$AAk?$AAe?$AAt?$AA?5?$AAs?$AAi?$AAz?$AAe?$AA?3?$AA?5?$AA?$CF?$AAd?$AA?$AN?$AA?6?$AA?$AA@ 10005128     common_ti_ethdrv_usbfn:pdd.obj
 0001:00004158       ??_C@_1GE@JLPAIEOM@?$AAE?$AAP?$AA0?$AA_?$AAS?$AAT?$AA_?$AAD?$AAA?$AAT?$AAA?$AA_?$AAT?$AAX?$AA?5?$AAs?$AAp?$AAa?$AAc?$AAe?$AA_?$AAl?$AAe?$AAf?$AAt?$AA_?$AAt?$AAo?$AA_?$AAs?$AAe?$AAn@ 10005158     common_ti_ethdrv_usbfn:pdd.obj
 0001:000041bc       ??_C@_1CK@HGADPGKD@?$AAI?$AAn?$AAv?$AAa?$AAl?$AAi?$AAd?$AA?5?$AAS?$AAt?$AAa?$AAt?$AAe?$AA?5?$AA?$DN?$AA?5?$AA?$CF?$AAd?$AA?$AN?$AA?6?$AA?$AA@ 100051bc     common_ti_ethdrv_usbfn:pdd.obj
 0001:000041e8       ??_C@_1DG@GAFCGMNC@?$AAW?$AAr?$AAi?$AAt?$AAe?$AAF?$AAI?$AAF?$AAO?$AA?5?$AAE?$AAP?$AA?5?$AA?$CF?$AAd?$AA?0?$AA?5?$AAS?$AAi?$AAz?$AAe?$AA?5?$AA?$CF?$AAd?$AA?$AN?$AA?6?$AA?$AA@ 100051e8     common_ti_ethdrv_usbfn:pdd.obj
 0001:00004220       ??_C@_1DC@IJMAINHK@?$AAT?$AAX?$AAP?$AAK?$AAT?$AAR?$AAd?$AAy?$AA?5?$AAb?$AAi?$AAt?$AA?5?$AAi?$AAs?$AA?5?$AAs?$AAe?$AAt?$AA?5?$AA?4?$AA?4?$AA?$AN?$AA?6?$AA?$AA@ 10005220     common_ti_ethdrv_usbfn:pdd.obj
 0001:00004258       ??_C@_1FM@NNMILMFN@?$AAe?$AAn?$AAd?$AAp?$AAo?$AAi?$AAn?$AAt?$AA?$CI?$AA?$CF?$AAd?$AA?$CJ?$AA?5?$AAc?$AAb?$AAB?$AAu?$AAf?$AAf?$AAe?$AAr?$AA?$CI?$AA?$CF?$AAd?$AA?$CJ?$AA?5?$AAc?$AAb?$AAT?$AAr?$AAa?$AAn@ 10005258     common_ti_ethdrv_usbfn:pdd.obj
 0001:000042b4       ??_C@_1DG@KJCFCKAI@?$AAE?$AAr?$AAr?$AAo?$AAr?$AA?$CB?$AA?5?$AAp?$AAT?$AAr?$AAa?$AAn?$AAs?$AAf?$AAe?$AAr?$AA?5?$AAi?$AAs?$AA?5?$AAN?$AAU?$AAL?$AAL?$AA?$AN?$AA?6?$AA?$AA@ 100052b4     common_ti_ethdrv_usbfn:pdd.obj
 0001:000042f0       ??_C@_1II@PBHEPHNB@?$AA?$CL?$AAU?$AAs?$AAb?$AAF?$AAn?$AAP?$AAd?$AAd?$AA?$CB?$AAC?$AAo?$AAn?$AAt?$AAi?$AAn?$AAu?$AAe?$AAT?$AAx?$AAT?$AAr?$AAa?$AAn?$AAs?$AAf?$AAe?$AAr?$AA?3?$AA?5?$AAE?$AAP@ 100052f0     common_ti_ethdrv_usbfn:pdd.obj
 0001:00004378       ??_C@_1CG@BNGOCLAM@?$AA?9?$AAS?$AAt?$AAa?$AAr?$AAt?$AAR?$AAx?$AAT?$AAr?$AAa?$AAn?$AAs?$AAf?$AAe?$AAr?$AA?$AN?$AA?6?$AA?$AA@ 10005378     common_ti_ethdrv_usbfn:pdd.obj
 0001:000043a0       ??_C@_1EM@HPHMIFBK@?$AAE?$AAP?$AA?5?$AA?$CF?$AAd?$AA?5?$AAI?$AAs?$AAs?$AAu?$AAe?$AAT?$AAr?$AAa?$AAn?$AAs?$AAf?$AAe?$AAr?$AA?$CI?$AAO?$AAU?$AAT?$AA?$CJ?$AA?5?$AAR?$AAx?$AAC?$AAS?$AAR?$AA?$DN?$AA0@ 100053a0     common_ti_ethdrv_usbfn:pdd.obj
 0001:000043f0       ??_C@_1EC@GEEDPLJM@?$AAA?$AAC?$AAK?$AA?3?$AA?5?$AAS?$AAt?$AAa?$AAr?$AAt?$AAR?$AAx?$AAT?$AAr?$AAa?$AAn?$AAs?$AAf?$AAe?$AAr?$AA?5?$AAf?$AAo?$AAr?$AA?5?$AAE?$AAP?$AA?5?$AA?$CF?$AAd?$AA?$AN?$AA?6@ 100053f0     common_ti_ethdrv_usbfn:pdd.obj
 0001:00004434       ??_C@_1BI@PDCFGEL@?$AAR?$AAe?$AAc?$AAe?$AAi?$AAv?$AAe?$AAd?$AA?3?$AA?$AN?$AA?6?$AA?$AA@ 10005434     common_ti_ethdrv_usbfn:pdd.obj
 0001:00004450       ??_C@_1FI@DIOGIKJI@?$AAS?$AAt?$AAa?$AAr?$AAt?$AAR?$AAx?$AAT?$AAr?$AAa?$AAn?$AAs?$AAf?$AAe?$AAr?$AA?3?$AA?5?$AA?5?$AAe?$AAr?$AAr?$AAo?$AAr?$AA?5?$AAp?$AAT?$AAr?$AAa?$AAn?$AAs?$AAf?$AAe@ 10005450     common_ti_ethdrv_usbfn:pdd.obj
 0001:000044a8       ??_C@_1IA@FHPKIPM@?$AAU?$AAs?$AAb?$AAF?$AAn?$AAP?$AAd?$AAd?$AA?$CB?$AAS?$AAt?$AAa?$AAr?$AAt?$AAR?$AAx?$AAT?$AAr?$AAa?$AAn?$AAs?$AAf?$AAe?$AAr?$AA?3?$AA?5?$AAE?$AAP?$AA?5?$AA?$CF?$AAd?$AA?5@ 100054a8     common_ti_ethdrv_usbfn:pdd.obj
 0001:00004528       ??_C@_1FE@IACJAPMH@?$AAS?$AAt?$AAa?$AAr?$AAt?$AAU?$AAS?$AAB?$AAC?$AAl?$AAo?$AAc?$AAk?$AA?5?$AA?3?$AA?5?$AAF?$AAa?$AAi?$AAl?$AAe?$AAd?$AA?5?$AAt?$AAo?$AA?5?$AAe?$AAn?$AAa?$AAb?$AAl?$AAe@ 10005528     common_ti_ethdrv_usbfn:pdd.obj
 0001:0000457c       ??_C@_1CA@CNHBOOBH@?$AAS?$AAt?$AAa?$AAr?$AAt?$AAU?$AAS?$AAB?$AAC?$AAl?$AAo?$AAc?$AAk?$AA?$AN?$AA?6?$AA?$AA@ 1000557c     common_ti_ethdrv_usbfn:pdd.obj
 0001:0000459c       ??_C@_1DG@LHNIEBLN@?$AA?$CL?$AAU?$AAS?$AAB?$AAF?$AAN?$AA?3?$AA?3?$AAD?$AAe?$AAv?$AAi?$AAc?$AAe?$AA?5?$AAI?$AAD?$AA?5?$AA?$DN?$AA?5?$AA0?$AAx?$AA?$CF?$AAx?$AA?$AN?$AA?6?$AA?$AA@ 1000559c     common_ti_ethdrv_usbfn:pdd.obj
 0001:000045d4       ??_C@_1CI@LOFKLMPA@?$AAD?$AAe?$AAv?$AAi?$AAc?$AAe?$AA_?$AAD?$AAi?$AAs?$AAc?$AAo?$AAn?$AAn?$AAe?$AAc?$AAt?$AA?$AN?$AA?6?$AA?$AA@ 100055d4     common_ti_ethdrv_usbfn:pdd.obj
 0001:000045fc       ??_C@_1CG@NFOBHLAH@?$AA?9?$AAD?$AAe?$AAv?$AAi?$AAc?$AAe?$AA_?$AAR?$AAe?$AAs?$AAe?$AAt?$AAI?$AAR?$AAQ?$AA?$AN?$AA?6?$AA?$AA@ 100055fc     common_ti_ethdrv_usbfn:pdd.obj
 0001:00004624       ??_C@_1CA@HBMBLNHB@?$AAB?$AAS?$AA_?$AAF?$AAU?$AAL?$AAL?$AA_?$AAS?$AAP?$AAE?$AAE?$AAD?$AA?$AN?$AA?6?$AA?$AA@ 10005624     common_ti_ethdrv_usbfn:pdd.obj
 0001:00004644       ??_C@_1CA@BBIAPALJ@?$AAB?$AAS?$AA_?$AAH?$AAI?$AAG?$AAH?$AA_?$AAS?$AAP?$AAE?$AAE?$AAD?$AA?$AN?$AA?6?$AA?$AA@ 10005644     common_ti_ethdrv_usbfn:pdd.obj
 0001:00004664       ??_C@_1CG@EODBHLMJ@?$AA?$CL?$AAD?$AAe?$AAv?$AAi?$AAc?$AAe?$AA_?$AAR?$AAe?$AAs?$AAe?$AAt?$AAI?$AAR?$AAQ?$AA?$AN?$AA?6?$AA?$AA@ 10005664     common_ti_ethdrv_usbfn:pdd.obj
 0001:0000468c       ??_C@_1CK@PHELNBKD@?$AA?9?$AAD?$AAe?$AAv?$AAi?$AAc?$AAe?$AA_?$AAP?$AAr?$AAo?$AAc?$AAe?$AAs?$AAs?$AAE?$AAP?$AA0?$AA?$AN?$AA?6?$AA?$AA@ 1000568c     common_ti_ethdrv_usbfn:pdd.obj
 0001:000046b8       ??_C@_1EE@LDJOACEP@?$AAE?$AAP?$AA0?$AA_?$AAS?$AAT?$AA_?$AAS?$AAE?$AAT?$AAU?$AAP?$AA?5?$AAr?$AAe?$AAc?$AAe?$AAi?$AAv?$AAe?$AAs?$AA?5?$AA0?$AAx?$AA?$CF?$AAx?$AA?5?$AA0?$AAx?$AA?$CF?$AAx?$AA?$AN@ 100056b8     common_ti_ethdrv_usbfn:pdd.obj
 0001:00004700       ??_C@_1EA@FFLGMHM@?$AAE?$AAP?$AA0?$AA_?$AAS?$AAT?$AA_?$AAS?$AAT?$AAA?$AAT?$AAU?$AAS?$AA_?$AAI?$AAN?$AA?5?$AA?$DN?$AA?$DO?$AA?5?$AAE?$AAP?$AA0?$AA?5?$AAS?$AAE?$AAT?$AAU?$AAP?$AA?$AN?$AA?6?$AA?$AA@ 10005700     common_ti_ethdrv_usbfn:pdd.obj
 0001:00004740       ??_C@_1GE@CGEACPAE@?$AAD?$AAe?$AAv?$AAi?$AAc?$AAe?$AA_?$AAP?$AAr?$AAo?$AAc?$AAe?$AAs?$AAs?$AAE?$AAP?$AA0?$AA?3?$AA?5?$AAE?$AAP?$AA0?$AA_?$AAS?$AAT?$AA_?$AAD?$AAA?$AAT?$AAA?$AA_?$AAR@ 10005740     common_ti_ethdrv_usbfn:pdd.obj
 0001:000047a8       ??_C@_1HK@NCIOKFCA@?$AAD?$AAe?$AAv?$AAi?$AAc?$AAe?$AA_?$AAP?$AAr?$AAo?$AAc?$AAe?$AAs?$AAs?$AAE?$AAP?$AA0?$AA?3?$AA?5?$AA?5?$AAe?$AAr?$AAr?$AAo?$AAr?$AA?5?$AAE?$AAP?$AA0?$AA_?$AAS?$AAT@ 100057a8     common_ti_ethdrv_usbfn:pdd.obj
 0001:00004828       ??_C@_1FA@LBDLDOFO@?$AA2?$AA?4?$AA?5?$AAD?$AAe?$AAv?$AAi?$AAc?$AAe?$AA_?$AAP?$AAr?$AAo?$AAc?$AAe?$AAs?$AAs?$AAE?$AAP?$AA0?$AA?5?$AAS?$AAe?$AAt?$AA?5?$AAT?$AAx?$AAP?$AAk?$AAt?$AAR?$AAd@ 10005828     common_ti_ethdrv_usbfn:pdd.obj
 0001:00004878       ??_C@_1HE@CCMNMCIH@?$AAD?$AAe?$AAv?$AAi?$AAc?$AAe?$AA_?$AAP?$AAr?$AAo?$AAc?$AAe?$AAs?$AAs?$AA0?$AA?3?$AA?5?$AAf?$AAi?$AAn?$AAa?$AAl?$AA?5?$AAc?$AAo?$AAp?$AAy?$AA?5?$AAN?$AAo?$AAt?$AAi@ 10005878     common_ti_ethdrv_usbfn:pdd.obj
 0001:000048f0       ??_C@_1IK@IEONPHHN@?$AAD?$AAe?$AAv?$AAi?$AAc?$AAe?$AA_?$AAP?$AAr?$AAo?$AAc?$AAe?$AAs?$AAs?$AAE?$AAP?$AA0?$AA?3?$AA?5?$AAE?$AAP?$AA0?$AA_?$AAS?$AAT?$AA_?$AAD?$AAA?$AAT?$AAA?$AA_?$AAT@ 100058f0     common_ti_ethdrv_usbfn:pdd.obj
 0001:00004980       ??_C@_1HK@JEKPKAL@?$AAD?$AAe?$AAv?$AAi?$AAc?$AAe?$AA_?$AAP?$AAr?$AAo?$AAc?$AAe?$AAs?$AAs?$AAE?$AAP?$AA0?$AA?3?$AA?5?$AA?5?$AAe?$AAr?$AAr?$AAo?$AAr?$AA?5?$AAE?$AAP?$AA0?$AA_?$AAS?$AAT@ 10005980     common_ti_ethdrv_usbfn:pdd.obj
 0001:000049fc       ??_C@_1BG@BNAGFJMA@?$AAS?$AAT?$AA_?$AAE?$AAR?$AAR?$AAO?$AAR?$AA?$AN?$AA?6?$AA?$AA@ 100059fc     common_ti_ethdrv_usbfn:pdd.obj
 0001:00004a14       ??_C@_1BM@CMOKIKNH@?$AAC?$AAS?$AAR?$AA0?$AA?5?$AA?$DN?$AA?5?$AA0?$AAx?$AA?$CF?$AAx?$AA?$AN?$AA?6?$AA?$AA@ 10005a14     common_ti_ethdrv_usbfn:pdd.obj
 0001:00004a30       ??_C@_1CA@HLDCJJFC@?$AAS?$AAe?$AAt?$AAA?$AAd?$AAd?$AAr?$AAe?$AAs?$AAs?$AA?$DN?$AA?$CF?$AAd?$AA?$AN?$AA?6?$AA?$AA@ 10005a30     common_ti_ethdrv_usbfn:pdd.obj
 0001:00004a50       ??_C@_1BG@GEGFJNAH@?$AAS?$AAe?$AAt?$AAu?$AAp?$AAE?$AAn?$AAd?$AA?$AN?$AA?6?$AA?$AA@ 10005a50     common_ti_ethdrv_usbfn:pdd.obj
 0001:00004a68       ??_C@_1BA@CNFNHGLF@?$AAS?$AAt?$AAa?$AAl?$AAl?$AA?$AN?$AA?6?$AA?$AA@ 10005a68     common_ti_ethdrv_usbfn:pdd.obj
 0001:00004a78       ??_C@_1GK@GDOLHGDC@?$AAI?$AAn?$AAt?$AAe?$AAr?$AAr?$AAu?$AAp?$AAt?$AA?5?$AAr?$AAe?$AAc?$AAe?$AAi?$AAv?$AAe?$AA?5?$AAw?$AAi?$AAt?$AAh?$AA?5?$AAC?$AAS?$AAR?$AA0?$AA?5?$AA?$DN?$AA?5?$AA0?$AAx@ 10005a78     common_ti_ethdrv_usbfn:pdd.obj
 0001:00004ae4       ??_C@_1CK@IHDMMHEF@?$AA?$CL?$AAD?$AAe?$AAv?$AAi?$AAc?$AAe?$AA_?$AAP?$AAr?$AAo?$AAc?$AAe?$AAs?$AAs?$AAE?$AAP?$AA0?$AA?$AN?$AA?6?$AA?$AA@ 10005ae4     common_ti_ethdrv_usbfn:pdd.obj
 0001:00004b10       ??_C@_1DA@IKAAHPOB@?$AA?9?$AAD?$AAe?$AAv?$AAi?$AAc?$AAe?$AA_?$AAP?$AAr?$AAo?$AAc?$AAe?$AAs?$AAs?$AAE?$AAP?$AAx?$AA_?$AAR?$AAX?$AA?$AN?$AA?6?$AA?$AA@ 10005b10     common_ti_ethdrv_usbfn:pdd.obj
 0001:00004b40       ??_C@_1HE@CCBEIKEM@?$AAD?$AAe?$AAv?$AAi?$AAc?$AAe?$AA_?$AAP?$AAr?$AAo?$AAc?$AAe?$AAs?$AAs?$AAE?$AAP?$AAx?$AA_?$AAR?$AAX?$AA?3?$AA?5?$AAc?$AAa?$AAl?$AAl?$AA?5?$AAp?$AAf?$AAn?$AAN?$AAo@ 10005b40     common_ti_ethdrv_usbfn:pdd.obj
 0001:00004bb8       ??_C@_1FO@DJGBGNGE@?$AA?$CB?$AA?$CB?$AA?$CB?$AA?5?$AAD?$AAe?$AAv?$AAi?$AAc?$AAe?$AA_?$AAP?$AAr?$AAo?$AAc?$AAe?$AAs?$AAs?$AAE?$AAP?$AAx?$AA_?$AAR?$AAX?$AA?3?$AA?5?$AA?5?$AAp?$AAT?$AAr?$AAa?$AAn@ 10005bb8     common_ti_ethdrv_usbfn:pdd.obj
 0001:00004c18       ??_C@_1BE@PIBDKLHF@?$AAO?$AAv?$AAe?$AAr?$AAr?$AAu?$AAn?$AA?$AN?$AA?6?$AA?$AA@ 10005c18     common_ti_ethdrv_usbfn:pdd.obj
 0001:00004c30       ??_C@_1EK@IMFCNEOO@?$AA?$CL?$AAD?$AAe?$AAv?$AAi?$AAc?$AAe?$AA_?$AAP?$AAr?$AAo?$AAc?$AAe?$AAs?$AAs?$AAE?$AAP?$AAx?$AA_?$AAR?$AAX?$AA?3?$AA?5?$AAe?$AAn?$AAd?$AAp?$AAo?$AAi?$AAn?$AAt?$AA?$DN@ 10005c30     common_ti_ethdrv_usbfn:pdd.obj
 0001:00004c7c       ??_C@_1DA@IHBOAPKG@?$AA?9?$AAD?$AAe?$AAv?$AAi?$AAc?$AAe?$AA_?$AAP?$AAr?$AAo?$AAc?$AAe?$AAs?$AAs?$AAE?$AAP?$AAx?$AA_?$AAT?$AAX?$AA?$AN?$AA?6?$AA?$AA@ 10005c7c     common_ti_ethdrv_usbfn:pdd.obj
 0001:00004cb0       ??_C@_1HC@IGCMDKEF@?$AAD?$AAe?$AAv?$AAi?$AAc?$AAe?$AA_?$AAP?$AAr?$AAo?$AAc?$AAe?$AAs?$AAs?$AAE?$AAP?$AAx?$AA_?$AAT?$AAX?$AA?3?$AA?5?$AAb?$AAy?$AAt?$AAe?$AAs?$AA_?$AAl?$AAe?$AAf?$AAt@ 10005cb0     common_ti_ethdrv_usbfn:pdd.obj
 0001:00004d28       ??_C@_1FG@FBIKOCJK@?$AAD?$AAe?$AAv?$AAi?$AAc?$AAe?$AA_?$AAP?$AAr?$AAo?$AAc?$AAe?$AAs?$AAs?$AAE?$AAP?$AAx?$AA_?$AAT?$AAX?$AA?3?$AA?5?$AA?5?$AAp?$AAT?$AAr?$AAa?$AAn?$AAs?$AAf?$AAe?$AAr@ 10005d28     common_ti_ethdrv_usbfn:pdd.obj
 0001:00004d80       ??_C@_1CG@GONGKHD@?$AAT?$AAX?$AAC?$AAS?$AAR?$AA_?$AAP?$AA_?$AAT?$AAX?$AAP?$AAK?$AAT?$AAR?$AAD?$AAY?$AA?$AN?$AA?6?$AA?$AA@ 10005d80     common_ti_ethdrv_usbfn:pdd.obj
 0001:00004da8       ??_C@_1BG@CDDDEDII@?$AAU?$AAn?$AAd?$AAe?$AAr?$AAr?$AAu?$AAn?$AA?$AN?$AA?6?$AA?$AA@ 10005da8     common_ti_ethdrv_usbfn:pdd.obj
 0001:00004dc0       ??_C@_1EK@EFJCCDBC@?$AA?$CL?$AAD?$AAe?$AAv?$AAi?$AAc?$AAe?$AA_?$AAP?$AAr?$AAo?$AAc?$AAe?$AAs?$AAs?$AAE?$AAP?$AAx?$AA_?$AAT?$AAX?$AA?3?$AA?5?$AAe?$AAn?$AAd?$AAp?$AAo?$AAi?$AAn?$AAt?$AA?$DN@ 10005dc0     common_ti_ethdrv_usbfn:pdd.obj
 0001:00004e10       ??_C@_1LE@ICJADCP@?$AAU?$AAs?$AAb?$AAF?$AAn?$AAP?$AAd?$AAd?$AA?$CB?$AAI?$AAn?$AAt?$AAe?$AAr?$AAr?$AAu?$AAp?$AAt?$AAT?$AAh?$AAr?$AAe?$AAa?$AAd?$AA?3?$AA?5?$AAI?$AAn?$AAt?$AAe?$AAr?$AAr@ 10005e10     common_ti_ethdrv_usbfn:pdd.obj
 0001:00004ec4       ??_C@_1DA@NCOAFPN@?$AA?9?$AAU?$AAf?$AAn?$AAP?$AAd?$AAd?$AA_?$AAI?$AAs?$AAs?$AAu?$AAe?$AAT?$AAr?$AAa?$AAn?$AAs?$AAf?$AAe?$AAr?$AA?$AN?$AA?6?$AA?$AA@ 10005ec4     common_ti_ethdrv_usbfn:pdd.obj
 0001:00004ef8       ??_C@_1GC@NGNENNDF@?$AAU?$AAf?$AAn?$AAP?$AAd?$AAd?$AA_?$AAI?$AAs?$AAs?$AAu?$AAe?$AAT?$AAr?$AAa?$AAn?$AAs?$AAf?$AAe?$AAr?$AA?3?$AA?5?$AA?5?$AAe?$AAr?$AAr?$AAo?$AAr?$AA?5?$AAp?$AAT?$AAr@ 10005ef8     common_ti_ethdrv_usbfn:pdd.obj
 0001:00004f5c       ??_C@_1DA@IAIKGPDF@?$AA?$CL?$AAU?$AAf?$AAn?$AAP?$AAd?$AAd?$AA_?$AAI?$AAs?$AAs?$AAu?$AAe?$AAT?$AAr?$AAa?$AAn?$AAs?$AAf?$AAe?$AAr?$AA?$AN?$AA?6?$AA?$AA@ 10005f5c     common_ti_ethdrv_usbfn:pdd.obj
 0001:00004f90       ??_C@_1EC@JLHOICLC@?$AAU?$AAf?$AAn?$AAP?$AAd?$AAd?$AA_?$AAA?$AAb?$AAo?$AAr?$AAt?$AAT?$AAr?$AAa?$AAn?$AAs?$AAf?$AAe?$AAr?$AA?5?$AAf?$AAo?$AAr?$AA?5?$AAE?$AAP?$AA?5?$AA?$CF?$AAd?$AA?$AN?$AA?6@ 10005f90     common_ti_ethdrv_usbfn:pdd.obj
 0001:00004fd4       ??_C@_1DK@IJNOMNLM@?$AAU?$AAf?$AAn?$AAP?$AAd?$AAd?$AA_?$AAA?$AAb?$AAo?$AAr?$AAt?$AAT?$AAr?$AAa?$AAn?$AAs?$AAf?$AAe?$AAr?$AA?5?$AAe?$AAp?$AA?5?$AA?$CF?$AAd?$AA?$AN?$AA?6?$AA?$AA@ 10005fd4     common_ti_ethdrv_usbfn:pdd.obj
 0001:00005010       ??_C@_1CO@FFFEIOGH@?$AAU?$AAf?$AAn?$AAP?$AAd?$AAd?$AA_?$AAS?$AAt?$AAa?$AAl?$AAl?$AAE?$AAn?$AAd?$AAp?$AAo?$AAi?$AAn?$AAt?$AA?$AN?$AA?6?$AA?$AA@ 10006010     common_ti_ethdrv_usbfn:pdd.obj
 0001:00005040       ??_C@_1EM@DEDHGOEH@?$AAU?$AAf?$AAn?$AAP?$AAd?$AAd?$AA_?$AAC?$AAl?$AAe?$AAa?$AAr?$AAE?$AAn?$AAd?$AAp?$AAo?$AAi?$AAn?$AAt?$AAS?$AAt?$AAa?$AAl?$AAl?$AA?5?$AAf?$AAo?$AAr?$AA?5?$AAE?$AAP@ 10006040     common_ti_ethdrv_usbfn:pdd.obj
 0001:0000508c       ??_C@_1DE@ECDCBICE@?$AAU?$AAf?$AAn?$AAP?$AAd?$AAd?$AA_?$AAI?$AAs?$AAE?$AAn?$AAd?$AAp?$AAo?$AAi?$AAn?$AAt?$AAH?$AAa?$AAl?$AAt?$AAe?$AAd?$AA?$AN?$AA?6?$AA?$AA@ 1000608c     common_ti_ethdrv_usbfn:pdd.obj
 0001:000050c0       ??_C@_1EK@FBCADDCM@?$AA?9?$AAU?$AAf?$AAn?$AAP?$AAd?$AAd?$AA_?$AAS?$AAe?$AAn?$AAd?$AAC?$AAo?$AAn?$AAt?$AAr?$AAo?$AAl?$AAS?$AAt?$AAa?$AAt?$AAu?$AAs?$AAH?$AAa?$AAn?$AAd?$AAs?$AAh?$AAa@ 100060c0     common_ti_ethdrv_usbfn:pdd.obj
 0001:00005110       ??_C@_1IC@BLPLCJAE@?$AA?7?$AA?$CB?$AA?$CB?$AA?$CB?$AA?5?$AAU?$AAf?$AAn?$AAP?$AAd?$AAd?$AA_?$AAS?$AAe?$AAn?$AAd?$AAC?$AAo?$AAn?$AAt?$AAr?$AAo?$AAl?$AAS?$AAt?$AAa?$AAt?$AAu?$AAs?$AAH?$AAa?$AAn@ 10006110     common_ti_ethdrv_usbfn:pdd.obj
 0001:00005198       ??_C@_1EK@IJELKIMG@?$AA?7?$AAE?$AAP?$AA0?$AA_?$AAS?$AAT?$AA_?$AAS?$AAT?$AAA?$AAT?$AAU?$AAS?$AA_?$AAO?$AAU?$AAT?$AA?5?$AA?$DN?$AA?$DO?$AA?5?$AAE?$AAP?$AA0?$AA_?$AAS?$AAT?$AA_?$AAS?$AAE?$AAT@ 10006198     common_ti_ethdrv_usbfn:pdd.obj
 0001:000051e8       ??_C@_1FM@CCEMDGJE@?$AA?7?$AAE?$AAP?$AA0?$AA_?$AAS?$AAT?$AA_?$AAS?$AAE?$AAT?$AAU?$AAP?$AA_?$AAP?$AAR?$AAO?$AAC?$AAE?$AAS?$AAS?$AAE?$AAD?$AA?5?$AA?$DN?$AA?$DO?$AA?5?$AAE?$AAP?$AA0?$AA_?$AAS@ 100061e8     common_ti_ethdrv_usbfn:pdd.obj
 0001:00005248       ??_C@_1EK@GPBDHODF@?$AA?$CL?$AAU?$AAf?$AAn?$AAP?$AAd?$AAd?$AA_?$AAS?$AAe?$AAn?$AAd?$AAC?$AAo?$AAn?$AAt?$AAr?$AAo?$AAl?$AAS?$AAt?$AAa?$AAt?$AAu?$AAs?$AAH?$AAa?$AAn?$AAd?$AAs?$AAh?$AAa@ 10006248     common_ti_ethdrv_usbfn:pdd.obj
 0001:00005298       ??_C@_1EA@KNMJPPBI@?$AAU?$AAs?$AAb?$AAF?$AAn?$AAP?$AAd?$AAd?$AA_?$AAI?$AAn?$AAi?$AAt?$AAi?$AAa?$AAt?$AAe?$AAR?$AAe?$AAm?$AAo?$AAt?$AAe?$AAW?$AAa?$AAk?$AAe?$AAu?$AAp?$AA?$AN?$AA?6?$AA?$AA@ 10006298     common_ti_ethdrv_usbfn:pdd.obj
 0001:000052d8       ??_C@_1FG@KMPMJHMD@?$AAS?$AAt?$AAa?$AAr?$AAt?$AAU?$AAS?$AAB?$AAC?$AAl?$AAo?$AAc?$AAk?$AA?5?$AA?3?$AA?5?$AAF?$AAa?$AAi?$AAl?$AAe?$AAd?$AA?5?$AAt?$AAo?$AA?5?$AAd?$AAi?$AAs?$AAa?$AAb?$AAl@ 100062d8     common_ti_ethdrv_usbfn:pdd.obj
 0001:00005330       ??_C@_1BM@ELBPNMDN@?$AAU?$AAf?$AAn?$AAP?$AAd?$AAd?$AA_?$AAS?$AAt?$AAo?$AAp?$AA?$AN?$AA?6?$AA?$AA@ 10006330     common_ti_ethdrv_usbfn:pdd.obj
 0001:0000534c       ??_C@_1DE@EDFIEPML@?$AAU?$AAf?$AAn?$AAP?$AAd?$AAd?$AA_?$AAS?$AAe?$AAt?$AAA?$AAd?$AAd?$AAr?$AAe?$AAs?$AAs?$AA?3?$AA?5?$AA?$CI?$AA?$CF?$AAd?$AA?$CJ?$AA?$AN?$AA?6?$AA?$AA@ 1000634c     common_ti_ethdrv_usbfn:pdd.obj
 0001:00005380       ??_C@_1DA@KAOBCNKD@?$AA?$CL?$AAU?$AAS?$AAB?$AAF?$AAN?$AA?3?$AA?3?$AA?5?$AAU?$AAf?$AAn?$AAP?$AAd?$AAd?$AA_?$AAS?$AAt?$AAa?$AAr?$AAt?$AA?$AN?$AA?6?$AA?$AA@ 10006380     common_ti_ethdrv_usbfn:pdd.obj
 0001:000053b0       ??_C@_1HI@CEIMIMOL@?$AAU?$AAf?$AAn?$AAP?$AAd?$AAd?$AA_?$AAR?$AAe?$AAg?$AAi?$AAs?$AAt?$AAe?$AAr?$AAD?$AAe?$AAv?$AAi?$AAc?$AAe?$AA?3?$AA?5?$AAU?$AAn?$AAs?$AAu?$AAp?$AAp?$AAo?$AAr?$AAt@ 100063b0     common_ti_ethdrv_usbfn:pdd.obj
 0001:00005428       ??_C@_1DE@BDGEJFPP@?$AAU?$AAs?$AAb?$AAF?$AAn?$AAP?$AAd?$AAd?$AA_?$AAR?$AAe?$AAg?$AAi?$AAs?$AAt?$AAe?$AAr?$AAD?$AAe?$AAv?$AAi?$AAc?$AAe?$AA?$AN?$AA?6?$AA?$AA@ 10006428     common_ti_ethdrv_usbfn:pdd.obj
 0001:00005460       ??_C@_1EI@OOOAJGFK@?$AAU?$AAf?$AAn?$AAP?$AAd?$AAd?$AA_?$AAI?$AAs?$AAC?$AAo?$AAn?$AAf?$AAi?$AAg?$AAu?$AAr?$AAa?$AAt?$AAi?$AAo?$AAn?$AAS?$AAu?$AAp?$AAp?$AAo?$AAr?$AAt?$AAa?$AAb?$AAl@ 10006460     common_ti_ethdrv_usbfn:pdd.obj
 0001:000054a8       ??_C@_1CI@PLGKOIKJ@?$AA?9?$AAU?$AAS?$AAB?$AAF?$AAN?$AA?3?$AA?3?$AA?5?$AAP?$AAD?$AAD?$AA?5?$AAI?$AAn?$AAi?$AAt?$AA?$AN?$AA?6?$AA?$AA@ 100064a8     common_ti_ethdrv_usbfn:pdd.obj
 0001:000054d0       ??_C@_1HE@JFIJHLAK@?$AAE?$AAR?$AAR?$AAO?$AAR?$AA?3?$AA?5?$AAU?$AAf?$AAn?$AAP?$AAd?$AAd?$AA_?$AAI?$AAn?$AAi?$AAt?$AA?3?$AA?5?$AAC?$AAo?$AAn?$AAt?$AAr?$AAo?$AAl?$AAl?$AAe?$AAr?$AA?5?$AAr@ 100064d0     common_ti_ethdrv_usbfn:pdd.obj
 0001:00005544       ??_C@_1CI@KOBDIJLJ@?$AA?$CL?$AAU?$AAS?$AAB?$AAF?$AAN?$AA?3?$AA?3?$AA?5?$AAP?$AAD?$AAD?$AA?5?$AAI?$AAn?$AAi?$AAt?$AA?$AN?$AA?6?$AA?$AA@ 10006544     common_ti_ethdrv_usbfn:pdd.obj
 0001:00005624       OALKitlGetDevLoc           10006624 f   kitl.obj
 0001:0000565c       OALKitlInit                1000665c f   kitl.obj
 0001:00005914       OALKitlPowerOff            10006914 f   kitl.obj
 0001:000059b4       OALKitlPowerOn             100069b4 f   kitl.obj
 0001:00005a48       OEMKitlInit                10006a48 f   kitl.obj
 0001:00005b00       OALKitlInitRegistry        10006b00 f   oemkitl.obj
 0001:00005b6c       OEMKitlEnable              10006b6c f   oemkitl.obj
 0001:00005b88       OALGetTickCount            10006b88 f   oemkitl.obj
 0001:00005bac       OEMKitlIoctl               10006bac f   oemkitl.obj
 0001:00005c08       OEMKitlStartup             10006c08 f   oemkitl.obj
 0001:00005d44       OEMKitlGetSecs             10006d44 f   oemkitl.obj
 0001:00005e38       LAN911XSendFrame           10006e38 f   common_ti_ethdrv_lan911x:lan911x.obj
 0001:00005f28       LAN911XGetFrame            10006f28 f   common_ti_ethdrv_lan911x:lan911x.obj
 0001:000060fc       LAN911XEnableInts          100070fc f   common_ti_ethdrv_lan911x:lan911x.obj
 0001:00006114       LAN911XDisableInts         10007114 f   common_ti_ethdrv_lan911x:lan911x.obj
 0001:0000612c       LAN911XCurrentPacketFilter 1000712c f   common_ti_ethdrv_lan911x:lan911x.obj
 0001:00006130       LAN911XMulticastList       10007130 f   common_ti_ethdrv_lan911x:lan911x.obj
 0001:00006138       LAN911XFindController      10007138 f   common_ti_ethdrv_lan911x:lan911x.obj
 0001:00006200       LAN911XGetMacAddress       10007200 f   common_ti_ethdrv_lan911x:lan911x.obj
 0001:0000634c       LAN911XInit                1000734c f   common_ti_ethdrv_lan911x:lan911x.obj
 0001:00006754       OALArgsQuery               10007754 f   bsp_args:args.obj
 0001:000069ac       OALStall                   100079ac f   bsp_stall:stall.obj
 0001:00006b00       OEMEthernetDriverEnable    10007b00 f   bsp_kitl_reg:kitlreg.obj
 0001:00006b2c       OEMUsbDriverEnable         10007b2c f   bsp_kitl_reg:kitlreg.obj
 0001:00006b8c       OALKitlFindDevice          10007b8c f   oal_kitl:device.obj
 0001:00006d24       OALKitlIPtoString          10007d24 f   oal_kitl:format.obj
 0001:000072b4       OALKitlSerialInit          100082b4 f   oal_kitl:kitlserial.obj
 0001:0000809c       DecodeIP                   1000909c f   oal_kitl:kitleth.obj
 0001:00008798       OALIoCtlVBridge            10009798 f   oal_kitl:kitleth.obj
 0001:00008be4       OALKitlEthInit             10009be4 f   oal_kitl:kitleth.obj
 0001:00009000       OALKitlCreateName          1000a000 f   oal_kitl:name.obj
 0001:00009140       OALLogSerial               1000a140 f   kitl_log:log.obj
 0001:00009194       OALLogPrintf               1000a194 f   kitl_log:log.obj
 0001:000091c0       OALPAtoVA                  1000a1c0 f   oal_memory_arm:memory.obj
 0001:00009244       OALVAtoPA                  1000a244 f   oal_memory_arm:memory.obj
 0001:000092c0       RndisRestart               1000a2c0 f   rne_mdd:rndis.obj
 0001:00009328       RndisPrepareRndisPacket    1000a328 f   rne_mdd:rndis.obj
 0001:000093d0       MddSendRndisPacketComplete 1000a3d0 f   rne_mdd:rndis.obj
 0001:000093e4       RndisEDbgSendFrame         1000a3e4 f   rne_mdd:rndis.obj
 0001:0000952c       MddSendRndisMessageComplete 1000a52c f   rne_mdd:rndis.obj
 0001:00009558       RndisSendRndisMessage      1000a558 f   rne_mdd:rndis.obj
 0001:0000977c       RndisProcessMessage        1000a77c f   rne_mdd:rndis.obj
 0001:00009b18       RndisEDbgGetFrame          1000ab18 f   rne_mdd:rndis.obj
 0001:00009c68       RndisProcessPacket         1000ac68 f   rne_mdd:rndis.obj
 0001:00009db4       RndisInit                  1000adb4 f   rne_mdd:rndis.obj
 0001:00009fcc       RndisCurrentPacketFilter   1000afcc f   rne_mdd:rndis.obj
 0001:00009fd0       RndisMulticastList         1000afd0 f   rne_mdd:rndis.obj
 0001:00009fd8       RndisEnableInts            1000afd8 f   rne_mdd:rndis.obj
 0001:0000a004       RndisDisableInts           1000b004 f   rne_mdd:rndis.obj
 0001:0000a030       HostMiniQueryInformation   1000b030 f   rne_mdd:hostmini.obj
 0001:0000a320       HostMiniSetInformation     1000b320 f   rne_mdd:hostmini.obj
 0001:0000a46c       MddIndicateRndisMessage    1000b46c f   rne_mdd:hostmini.obj
 0001:0000a47c       MddIndicateRndisPacket     1000b47c f   rne_mdd:hostmini.obj
 0001:0000a49c       MDDAllocDataWrapper        1000b49c f   rne_mdd:hostmini.obj
 0001:0000a4c4       MDDAllocMem                1000b4c4 f   rne_mdd:hostmini.obj
 0001:0000a4d0       MDDFreeMem                 1000b4d0 f   rne_mdd:hostmini.obj
 0001:0000a4d4       MDDFreeDataWrapper         1000b4d4 f   rne_mdd:hostmini.obj
 0001:0000a4e8       HostMiniInit               1000b4e8 f   rne_mdd:hostmini.obj
 0001:0000a52c       InitBuffer                 1000b52c f   rne_mdd:util.obj
 0001:0000a5c8       AvaiableBufferSize         1000b5c8 f   rne_mdd:util.obj
 0001:0000a604       AllocBuffer                1000b604 f   rne_mdd:util.obj
 0001:0000a6f4       FreeBuffer                 1000b6f4 f   rne_mdd:util.obj
 0001:0000a834       GetFirstUsedBuffer         1000b834 f   rne_mdd:util.obj
 0001:0000a8c0       ProduceBuffer              1000b8c0 f   vbridge:vbridge.obj
 0001:0000a9d8       ProduceBufferDone          1000b9d8 f   vbridge:vbridge.obj
 0001:0000aa18       ConsumeBuffer              1000ba18 f   vbridge:vbridge.obj
 0001:0000aadc       ConsumeBufferDone          1000badc f   vbridge:vbridge.obj
 0001:0000ab6c       VBridgeInit                1000bb6c f   vbridge:vbridge.obj
 0001:0000ac80       VBridgeKGetOneTxBuffer     1000bc80 f   vbridge:vbridge.obj
 0001:0000acf4       VBridgeKGetOneTxBufferComplete 1000bcf4 f   vbridge:vbridge.obj
 0001:0000ad40       VBridgeKIndicateOneRxBuffer 1000bd40 f   vbridge:vbridge.obj
 0001:0000ae30       VBridgeKSetLocalMacAddress 1000be30 f   vbridge:vbridge.obj
 0001:0000aeb0       VBridgeUGetOneTxPacket     1000beb0 f   vbridge:vbridge.obj
 0001:0000af0c       VBridgeUGetOneTxPacketComplete 1000bf0c f   vbridge:vbridge.obj
 0001:0000af50       VBridgeUGetOneRxPacket     1000bf50 f   vbridge:vbridge.obj
 0001:0000afa4       VBridgeUGetOneRxPacketComplete 1000bfa4 f   vbridge:vbridge.obj
 0001:0000afe0       VBridgeUWildCard           1000bfe0 f   vbridge:vbridge.obj
 0001:0000b074       VBridgeUGetEDBGMac         1000c074 f   vbridge:vbridge.obj
 0001:0000b0bc       VBridgeUCurrentPacketFilter 1000c0bc f   vbridge:vbridge.obj
 0001:0000b104       memcpy                     1000c104 f   fulllibc:memcpy.obj
 0001:0000b4b0       memcpybigblk               1000c4b0 f   fulllibc:memcpy.obj
 0001:0000be64       __GSHandlerCheckCommon     1000ce64 f   fulllibc:gshandler.obj
 0001:0000bea0       __GSHandlerCheck           1000cea0 f   fulllibc:gshandler.obj
 0001:0000bec4       memset                     1000cec4 f   fulllibc:memset.obj
 0001:0000bf4c       __security_check_cookie    1000cf4c f   fulllibc:armsecgs.obj
 0001:0000bf60       __gsfailure                1000cf60 f   fulllibc:armsecgs.obj
 0001:0000bfa4       strlen                     1000cfa4 f   fulllibc:mdsstrlen.obj
 0001:0000c008       wcslen                     1000d008 f   fulllibc:wcslen.obj
 0001:0000c028       memcmp                     1000d028 f   fulllibc:memcmp.obj
 0001:0000c0f4       __rt_sdiv                  1000d0f4 f   fulllibc:__div.obj
 0001:0000c1d0       __raise_int_divide_by_zero 1000d1d0 f   fulllibc:diverr.obj
 0001:0000c1f4       __crtRaiseException        1000d1f4 f   fulllibc:raiseexc.obj
 0001:0000c210       KITLSetDebug               1000d210 f   kitlcore:ethdbg.obj
 0001:0000c214       IsDesktopDbgrExist         1000d214 f   kitlcore:ethdbg.obj
 0001:0000c2d0       ChkDfltSvc                 1000d2d0 f   kitlcore:ethdbg.obj
 0001:0000c520       KITLDeregisterClient       1000d520 f   kitlcore:ethdbg.obj
 0001:0000c7d8       KITLWriteDebugString       1000d7d8 f   kitlcore:ethdbg.obj
 0001:0000cd10       KITLInitializeInterrupt    1000dd10 f   kitlcore:ethdbg.obj
 0001:0000ce88       KITLRegisterDfltClient     1000de88 f   kitlcore:ethdbg.obj
 0001:0000d19c       KitlInit                   1000e19c f   kitlcore:ethdbg.obj
 0001:0000d1f8       KITLRegisterClient         1000e1f8 f   kitlcore:ethdbg.obj
 0001:0000d41c       ExtKITLIoctl               1000e41c f   kitlcore:ethdbg.obj
 0001:0000d7b8       KITLIoctl                  1000e7b8 f   kitlcore:ethdbg.obj
 0001:0000da34       KitlDllMain                1000ea34 f   kitlcore:ethdbg.obj
 0001:0000dd60       KITLOutputDebugString      1000ed60 f   kitlcore:debug.obj
 0001:0000ddfc       InitTimerList              1000edfc f   kitlcore:timer.obj
 0001:0000de38       FreeTimerEntry             1000ee38 f   kitlcore:timer.obj
 0001:0000de90       TimerCallback              1000ee90 f   kitlcore:timer.obj
 0001:0000e060       TimerStart                 1000f060 f   kitlcore:timer.obj
 0001:0000e144       TimerStop                  1000f144 f   kitlcore:timer.obj
 0001:0000e23c       CancelTimersForClient      1000f23c f   kitlcore:timer.obj
 0001:0000e28c       KitlSetTimerCallback       1000f28c f   kitlcore:timer.obj
 0001:0000e338       TimerThread                1000f338 f   kitlcore:timer.obj
 0001:0000e4d0       DoDebugBreak               1000f4d0 f   kitlcore:edbgprot.obj
 0001:0000e4d8       ResetClientState           1000f4d8 f   kitlcore:edbgprot.obj
 0001:0000e594       KitlSendRawData            1000f594 f   kitlcore:edbgprot.obj
 0001:0000e65c       KitlSendFrame              1000f65c f   kitlcore:edbgprot.obj
 0001:0000e6cc       SendConfig                 1000f6cc f   kitlcore:edbgprot.obj
 0001:0000e80c       RetransmitFrame            1000f80c f   kitlcore:edbgprot.obj
 0001:0000f270       HandleRecvInterrupt        10010270 f   kitlcore:edbgprot.obj
 0001:0000f3f0       KITLPollResponse           100103f0 f   kitlcore:edbgprot.obj
 0001:0000f550       ExchangeConfig             10010550 f   kitlcore:edbgprot.obj
 0001:0000f654       KITLSend                   10010654 f   kitlcore:edbgprot.obj
 0001:0000fc70       KITLRecv                   10010c70 f   kitlcore:edbgprot.obj
 0001:00010024       NKDbgPrintfW               10011024 f   nkstub:nkstub.obj
 0001:00010058       NKwvsprintfW               10011058 f   nkstub:nkstub.obj
 0001:0001007c       NKSetLastError             1001107c f   nkstub:nkstub.obj
 0001:000100a0       NKGetLastError             100110a0 f   nkstub:nkstub.obj
 0001:000100c4       EnterCriticalSection       100110c4 f   nkstub:nkstub.obj
 0001:000100e8       LeaveCriticalSection       100110e8 f   nkstub:nkstub.obj
 0001:0001010c       InitializeCriticalSection  1001110c f   nkstub:nkstub.obj
 0001:00010130       DeleteCriticalSection      10011130 f   nkstub:nkstub.obj
 0001:00010154       INTERRUPTS_OFF             10011154 f   nkstub:nkstub.obj
 0001:00010178       NKSetInterruptEvent        10011178 f   nkstub:nkstub.obj
 0001:0001019c       NKSleep                    1001119c f   nkstub:nkstub.obj
 0001:000101c0       NKCreateStaticMapping      100111c0 f   nkstub:nkstub.obj
 0001:000101e4       NKRegCloseKey              100111e4 f   nkstub:nkstub.obj
 0001:00010208       NKRegCreateKeyExW          10011208 f   nkstub:nkstub.obj
 0001:0001025c       NKRegSetValueExW           1001125c f   nkstub:nkstub.obj
 0001:00010298       NKForceCleanBoot           10011298 f   nkstub:nkstub.obj
 0001:000102bc       NKUnicodeToAscii           100112bc f   nkstub:nkstub.obj
 0001:000102e0       NKPhysToVirt               100112e0 f   nkstub:nkstub.obj
 0001:00010304       NKVirtToPhys               10011304 f   nkstub:nkstub.obj
 0001:00010328       __report_gsfailure         10011328 f   nkstub:nkstub.obj
 0001:0001034c       OEMWriteDebugByte          1001134c f   oemstub:oemstub.obj
 0001:00010370       OEMWriteDebugString        10011370 f   oemstub:oemstub.obj
 0001:00010394       OEMGetTickCount            10011394 f   oemstub:oemstub.obj
 0001:000103b8       OEMInterruptEnable         100113b8 f   oemstub:oemstub.obj
 0001:000103dc       OEMIoControl               100113dc f   oemstub:oemstub.obj
 0001:00010498       PDD_GetDescriptor          10011498 f   common_ti_ethdrv_rndis:rndis.obj
 0001:000105f0       PDD_DoVendorCommand        100115f0 f   common_ti_ethdrv_rndis:rndis.obj
 0001:0001070c       SetupEP1Transfer           1001170c f   common_ti_ethdrv_rndis:rndis.obj
 0001:0001081c       HandleSetupPacket          1001181c f   common_ti_ethdrv_rndis:rndis.obj
 0001:000109e8       TxComplete                 100119e8 f   common_ti_ethdrv_rndis:rndis.obj
 0001:00010a50       NotifyHandler              10011a50 f   common_ti_ethdrv_rndis:rndis.obj
 0001:00010fd8       RegisterUSBDevice          10011fd8 f   common_ti_ethdrv_rndis:rndis.obj
 0001:000110a4       PDD_SendRndisMessage       100120a4 f   common_ti_ethdrv_rndis:rndis.obj
 0001:000111ac       PDD_SendRndisPacket        100121ac f   common_ti_ethdrv_rndis:rndis.obj
 0001:000112c4       PDD_Set                    100122c4 f   common_ti_ethdrv_rndis:rndis.obj
 0001:000113dc       PDD_Get                    100123dc f   common_ti_ethdrv_rndis:rndis.obj
 0001:000114fc       PDD_ISR                    100124fc f   common_ti_ethdrv_rndis:rndis.obj
 0001:0001151c       PDD_IndicateRndisPacketComplete 1001251c f   common_ti_ethdrv_rndis:rndis.obj
 0001:00011574       SetRNDISMACAddress         10012574 f   common_ti_ethdrv_rndis:rndis.obj
 0001:000115a8       SetRNDISSerialNumber       100125a8 f   common_ti_ethdrv_rndis:rndis.obj
 0001:00011658       PDDInit                    10012658 f   common_ti_ethdrv_rndis:rndis.obj
 0001:000118d8       InitializeHardware         100128d8 f   bsp_kitl_ethdrv_usbfn:trans.obj
 0001:0001197c       ResetHardware              1001297c f   bsp_kitl_ethdrv_usbfn:trans.obj
 0001:00011980       ConnectHardware            10012980 f   bsp_kitl_ethdrv_usbfn:trans.obj
 0001:000119cc       DisconnectHardware         100129cc f   bsp_kitl_ethdrv_usbfn:trans.obj
 0001:00011a18       EnableUSBClocks            10012a18 f   bsp_kitl_ethdrv_usbfn:trans.obj
 0001:00011a9c       strcpy                     10012a9c f   fulllibc:strcpy.obj
 0001:00011b20       strcmp                     10012b20 f   fulllibc:mdsstrcmp.obj
 0001:00011c10       __C_specific_handler       10012c10 f   fulllibc:chandler.obj
 0001:00011d5c       __GSHandlerCheck_SEH       10012d5c f   fulllibc:gshandlerseh.obj
 0001:00011dac       __C_ExecuteTerminationHandler 10012dac f   fulllibc:jmpuwind.obj
 0001:00011dac       __C_ExecuteExceptionFilter 10012dac f   fulllibc:jmpuwind.obj
 0001:00011dec       ReadFIFO                   10012dec f   common_ti_ethdrv_usbfn:pdd.obj
 0001:00011e94       WriteFIFO                  10012e94 f   common_ti_ethdrv_usbfn:pdd.obj
 0001:0001258c       GetUniqueDeviceID          1001358c f   common_ti_ethdrv_usbfn:pdd.obj
 0001:000125d0       Device_Disconnect          100135d0 f   common_ti_ethdrv_usbfn:pdd.obj
 0001:00012628       Device_ResetIRQ            10013628 f   common_ti_ethdrv_usbfn:pdd.obj
 0001:00012758       Device_ProcessEP0          10013758 f   common_ti_ethdrv_usbfn:pdd.obj
 0001:00012bd0       Device_ProcessEPx_RX       10013bd0 f   common_ti_ethdrv_usbfn:pdd.obj
 0001:00012dd4       Device_ProcessEPx_TX       10013dd4 f   common_ti_ethdrv_usbfn:pdd.obj
 0001:00012fd4       InterruptThread            10013fd4 f   common_ti_ethdrv_usbfn:pdd.obj
 0001:000130f4       UfnPdd_IssueTransfer       100140f4 f   common_ti_ethdrv_usbfn:pdd.obj
 0001:000131f4       UfnPdd_AbortTransfer       100141f4 f   common_ti_ethdrv_usbfn:pdd.obj
 0001:000132cc       UfnPdd_StallEndpoint       100142cc f   common_ti_ethdrv_usbfn:pdd.obj
 0001:00013344       UfnPdd_ClearEndpointStall  10014344 f   common_ti_ethdrv_usbfn:pdd.obj
 0001:000133d0       UfnPdd_IsEndpointHalted    100143d0 f   common_ti_ethdrv_usbfn:pdd.obj
 0001:00013444       UfnPdd_SendControlStatusHandshake 10014444 f   common_ti_ethdrv_usbfn:pdd.obj
 0001:00013548       UfnPdd_InitiateRemoteWakeup 10014548 f   common_ti_ethdrv_usbfn:pdd.obj
 0001:00013578       UfnPdd_PowerDown           10014578 f   common_ti_ethdrv_usbfn:pdd.obj
 0001:000135b0       UfnPdd_PowerUp             100145b0 f   common_ti_ethdrv_usbfn:pdd.obj
 0001:000135e8       UfnPdd_IOControl           100145e8 f   common_ti_ethdrv_usbfn:pdd.obj
 0001:00013634       UfnPdd_Deinit              10014634 f   common_ti_ethdrv_usbfn:pdd.obj
 0001:00013664       UfnPdd_DeregisterDevice    10014664 f   common_ti_ethdrv_usbfn:pdd.obj
 0001:0001366c       UfnPdd_Stop                1001466c f   common_ti_ethdrv_usbfn:pdd.obj
 0001:000136d0       UfnPdd_DeinitEndpoint      100146d0 f   common_ti_ethdrv_usbfn:pdd.obj
 0001:000136d8       UfnPdd_InitEndpoint        100146d8 f   common_ti_ethdrv_usbfn:pdd.obj
 0001:000136e0       UfnPdd_SetAddress          100146e0 f   common_ti_ethdrv_usbfn:pdd.obj
 0001:00013724       UfnPdd_Start               10014724 f   common_ti_ethdrv_usbfn:pdd.obj
 0001:000137e4       UfnPdd_RegisterDevice      100147e4 f   common_ti_ethdrv_usbfn:pdd.obj
 0001:00013b30       UfnPdd_IsEndpointSupportable 10014b30 f   common_ti_ethdrv_usbfn:pdd.obj
 0001:00013b4c       UfnPdd_IsConfigurationSupportable 10014b4c f   common_ti_ethdrv_usbfn:pdd.obj
 0001:00013c38       UfnPdd_Init                10014c38 f   common_ti_ethdrv_usbfn:pdd.obj
 0001:00013ea0       SOCGetUSBOTGAddress        10014ea0 f   OMAP3530_soccfg:soccfg.obj
 0001:00013eac       SOCGetIDCodeAddress        10014eac f   OMAP3530_soccfg:soccfg.obj
 0001:00013eb8       __rt_udiv                  10014eb8 f   fulllibc:__udiv.obj
 0002:00000000       g_kitlEthLan911x           10016000     oemkitl.obj
 0002:0000002c       g_kitlUsbRndis             1001602c     oemkitl.obj
 0002:00000058       g_kitlDevices              10016058     oemkitl.obj
 0002:000000b8       dpCurSettings              100160b8     kitl_log:debug.obj
 0002:000004fc       bRndisSendPacketEmpty      100164fc     rne_mdd:rndis.obj
 0002:00000530       RNdisMddSupportedOids      10016530     rne_mdd:hostmini.obj
 0002:000005c0       g_dwKITLThreadPriority     100165c0     kitlcore:ethdbg.obj
 0002:000005c4       g_dwKITLTimerThreadPriority 100165c4     kitlcore:ethdbg.obj
 0002:000005c8       __security_cookie          100165c8     nkstub:nkstub.obj
 0002:000005cc       __security_cookie_complement 100165cc     nkstub:nkstub.obj
 0002:000005d0       g_InterruptData            100165d0     common_ti_ethdrv_rndis:rndis.obj
 0002:0000b200       dwCurrentPacketFilter      10021200     vbridge:vbridge.obj
 0002:0000b204       bValidAddress              10021204     vbridge:vbridge.obj
 0002:0000b208       bWarnNoMacDone             10021208     vbridge:vbridge.obj
 0002:0000b20c       g_bResetBuffer             1002120c     vbridge:vbridge.obj
 0002:0000b210       g_bUOpened                 10021210     vbridge:vbridge.obj
 0002:0002fe80       g_pEP1DataWrapper          10045e80     common_ti_ethdrv_rndis:rndis.obj
 0002:0002fe84       g_devState                 10045e84     common_ti_ethdrv_rndis:rndis.obj
 0002:0002fe88       g_EP0TransferState         10045e88     common_ti_ethdrv_rndis:rndis.obj
 0002:0002fe8c       g_EP1TransferState         10045e8c     common_ti_ethdrv_rndis:rndis.obj
 0002:0002fe90       g_EP2TransferState         10045e90     common_ti_ethdrv_rndis:rndis.obj
 0002:0002fe94       g_EP3TransferState         10045e94     common_ti_ethdrv_rndis:rndis.obj
 0002:0002fec0       g_oalKitlBuffer            10045ec0     <common>
 0002:0003fec0       g_usbfnpdd                 10055ec0     <common>
 0002:00040040       g_EP0DataWrapper           10056040     <common>
 0002:00040050       MDDZONE5                   10056050     <common>
 0002:00040058       g_mddInterface             10056058     <common>
 0002:00040060       g_EP1Transfer              10056060     <common>
 0002:00040080       g_RndisKitlDev             10056080     <common>
 0002:000404c8       g_udr                      100564c8     <common>
 0002:000404d0       MDDZONE4                   100564d0     <common>
 0002:000404d4       PDDZONE                    100564d4     <common>
 0002:000404e0       g_EP3Transfer              100564e0     <common>
 0002:00040500       g_pddInterface             10056500     <common>
 0002:00040560       MDDZONE3                   10056560     <common>
 0002:00040580       g_EP2Transfer              10056580     <common>
 0002:000405a0       PDDZONE0                   100565a0     <common>
 0002:000405c0       g_EP0Transfer              100565c0     <common>
 0002:000405e0       MDDZONE0                   100565e0     <common>
 0002:000405e4       MDDZONE                    100565e4     <common>
 0002:000405e8       MDDZONE2                   100565e8     <common>
 0002:00040600       RndisMdd                   10056600     <common>
 0002:000406c8       pucRxMax                   100566c8     <common>
 0002:000406cc       pucTxConsumer              100566cc     <common>
 0002:000406d0       pucTxMin                   100566d0     <common>
 0002:000406e0       TxBuffers                  100566e0     <common>
 0002:000446e4       pucRxProducer              1005a6e4     <common>
 0002:000446e8       EDBGMacAddress             1005a6e8     <common>
 0002:000446f0       pucTxMax                   1005a6f0     <common>
 0002:000446f4       pucRxMin                   1005a6f4     <common>
 0002:000446f8       pucTxProducer              1005a6f8     <common>
 0002:000446fc       pucRxConsumer              1005a6fc     <common>
 0002:00044700       RxBuffers                  1005a700     <common>
 0002:00048704       g_KitlInterval             1005e704     <common>
 0002:00048720       preallocent                1005e720     <common>
 0002:000489b4       g_pprcNK                   1005e9b4     <common>
 0002:000489c0       DfltClnts                  1005e9c0     <common>
 0002:00048b60       g_kpriv                    1005eb60     <common>
 0002:00048bc0       TimerListCS                1005ebc0     <common>
 0002:00048bd4       KITLGlobalState            1005ebd4     <common>
 0002:00048be0       SendFmtBuf                 1005ebe0     <common>
 0002:000491e0       KITLcs                     1005f1e0     <common>
 0002:000491f4       g_pKData                   1005f1f4     <common>
 0002:00049200       KITLODScs                  1005f200     <common>
 0002:00049220       KITLKCallcs                1005f220     <common>
 0002:00049240       Kitl                       1005f240     <common>
 0002:000492a0       KITLClients                1005f2a0     <common>
 0002:000494a0       g_pNKGlobal                1005f4a0     <common>
 0002:000494a4       g_pOemGlobal               1005f4a4     <common>

 entry point at        0001:0000da34

 Static symbols

 0001:00005d78       ReadPhy                    10006d78 f   common_ti_ethdrv_lan911x:lan911x.obj
 0001:000069c4       SetDeviceGroup             100079c4 f   bsp_kitl_reg:kitlreg.obj
 0001:00006a64       SetDeviceDriverFlags       10007a64 f   bsp_kitl_reg:kitlreg.obj
 0001:00006d7c       SerialSend                 10007d7c f   oal_kitl:kitlserial.obj
 0001:00006e4c       SerialRecv                 10007e4c f   oal_kitl:kitlserial.obj
 0001:00007194       SerialEncode               10008194 f   oal_kitl:kitlserial.obj
 0001:00007244       SerialDecode               10008244 f   oal_kitl:kitlserial.obj
 0001:0000725c       SerialEnableInt            1000825c f   oal_kitl:kitlserial.obj
 0001:0000729c       SerialGetDevCfg            1000829c f   oal_kitl:kitlserial.obj
 0001:000072ac       SerialSetHostCfg           100082ac f   oal_kitl:kitlserial.obj
 0001:00007580       Sum                        10008580 f   oal_kitl:kitleth.obj
 0001:000075e8       SendARP                    100085e8 f   oal_kitl:kitleth.obj
 0001:000076b0       EncodeIP                   100086b0 f   oal_kitl:kitleth.obj
 0001:00007814       EncodeUDP                  10008814 f   oal_kitl:kitleth.obj
 0001:00007900       SendDHCP                   10008900 f   oal_kitl:kitleth.obj
 0001:00007af0       RenewDHCP                  10008af0 f   oal_kitl:kitleth.obj
 0001:00007b48       DecodeDHCP                 10008b48 f   oal_kitl:kitleth.obj
 0001:00007d8c       DecodeICMP                 10008d8c f   oal_kitl:kitleth.obj
 0001:00007ebc       DecodeUDP                  10008ebc f   oal_kitl:kitleth.obj
 0001:00008170       KitlEthDecode              10009170 f   oal_kitl:kitleth.obj
 0001:000082e0       KitlEthEncode              100092e0 f   oal_kitl:kitleth.obj
 0001:00008370       KitlEthSetHostCfg          10009370 f   oal_kitl:kitleth.obj
 0001:00008378       KitlEthGetDevCfg           10009378 f   oal_kitl:kitleth.obj
 0001:00008468       KitlEthSend                10009468 f   oal_kitl:kitleth.obj
 0001:000085dc       KitlEthRecv                100095dc f   oal_kitl:kitleth.obj
 0001:00008724       KitlEthEnableInt           10009724 f   oal_kitl:kitleth.obj
 0001:00008964       GetAddressDHCP             10009964 f   oal_kitl:kitleth.obj
 0001:0000c228       NewClient                  1000d228 f   kitlcore:ethdbg.obj
 0001:0000c318       RegisterClientPart2        1000d318 f   kitlcore:ethdbg.obj
 0001:0000c664       ChkCnxDsktp                1000d664 f   kitlcore:ethdbg.obj
 0001:0000c678       TranCnxDsktp               1000d678 f   kitlcore:ethdbg.obj
 0001:0000c6a8       KITLConnectToDesktop       1000d6a8 f   kitlcore:ethdbg.obj
 0001:0000c86c       MemCopyUserPtr             1000d86c f   kitlcore:ethdbg.obj
 0001:0000c908       KITLInterruptThread        1000d908 f   kitlcore:ethdbg.obj
 0001:0000cac4       DoRegisterClient           1000dac4 f   kitlcore:ethdbg.obj
 0001:0000cfe4       StartKitl                  1000dfe4 f   kitlcore:ethdbg.obj
 0001:0000dae4       pOutputByte                1000eae4 f   kitlcore:debug.obj
 0001:0000db14       pOutputNumHex              1000eb14 f   kitlcore:debug.obj
 0001:0000db5c       pOutputNumDecimal          1000eb5c f   kitlcore:debug.obj
 0001:0000dba0       vOutputFormatString        1000eba0 f   kitlcore:debug.obj
 0001:0000dfac       TimerListInsert            1000efac f   kitlcore:timer.obj
 0001:0000e568       CheckCfg                   1000f568 f   kitlcore:edbgprot.obj
 0001:0000e57c       ChkAck                     1000f57c f   kitlcore:edbgprot.obj
 0001:0000e900       SendAckNack                1000f900 f   kitlcore:edbgprot.obj
 0001:0000ea00       ProcessAdminMsg            1000fa00 f   kitlcore:edbgprot.obj
 0001:0000ed64       RetransmitCfg              1000fd64 f   kitlcore:edbgprot.obj
 0001:0000ed78       TranAck                    1000fd78 f   kitlcore:edbgprot.obj
 0001:0000ede4       ProcessRecvFrame           1000fde4 f   kitlcore:edbgprot.obj
 0001:0000f35c       KITLPollData               1001035c f   kitlcore:edbgprot.obj
 0001:00010434       PDD_SendNotification       10011434 f   common_ti_ethdrv_rndis:rndis.obj
 0001:00010460       PDD_RecvNotification       10011460 f   common_ti_ethdrv_rndis:rndis.obj
 0001:00011f70       ContinueTxTransfer         10012f70 f   common_ti_ethdrv_usbfn:pdd.obj
 0001:000122a0       StartRxTransfer            100132a0 f   common_ti_ethdrv_usbfn:pdd.obj
