 oal

 Timestamp is 522e705c (Tue Sep 10 09:05:32 2013)

 Preferred load address is 00010000

 Start         Length     Name                   Class
 0001:00000000 0000f2d8H .rdata                  CODE
 0001:0000f2d8 00000020H .rdata$debug            CODE
 0001:0000f2f8 00019e74H .text                   CODE
 0001:0002916c 0000001cH .xdata                  CODE
 0001:00029188 00000000H .edata                  CODE
 0002:00000000 00006000H .KDATA                  DATA
 0003:00000000 00005590H .data                   DATA
 0003:000055a0 000044f0H .bss                    DATA
 0004:00000000 00000f90H .pdata                  DATA

  Address         Publics by Value              Rva+Base       Lib:Object

 0000:00000000       ___safe_se_handler_table   00000000     <absolute>
 0000:00000000       ___safe_se_handler_count   00000000     <absolute>
 0001:000000b0       dwOEMDrWatsonSize          000110b0     oal:init.obj
 0001:000000b4       dwOEMHighSecurity          000110b4     oal:init.obj
 0001:000000b8       dwBank1Enabled             000110b8     oal:init.obj
 0001:000000bc       dwCMemDSPEnabled           000110bc     oal:init.obj
 0001:000000c0       dwDSP720pEnabled           000110c0     oal:init.obj
 0001:000000c4       dwOEMPRCMCLKSSetupTime     000110c4     oal:init.obj
 0001:000000c8       dwOEMMPUContextRestore     000110c8     oal:init.obj
 0001:00000150       ??_C@_1BG@OFOAIMMC@?$AA?9?$AAO?$AAE?$AAM?$AAI?$AAn?$AAi?$AAt?$AA?$AN?$AA?6?$AA?$AA@ 00011150     oal:init.obj
 0001:00000168       ??_C@_1GC@DDKEAEKM@?$AAE?$AAR?$AAR?$AAO?$AAR?$AA?3?$AA?5?$AAO?$AAE?$AAM?$AAI?$AAn?$AAi?$AAt?$AA?3?$AA?5?$AAC?$AAP?$AAU?$AA?5?$AAf?$AAa?$AAm?$AAi?$AAl?$AAy?$AA?5?$AA?$CF?$AAd?$AA?5?$AAi?$AAs@ 00011168     oal:init.obj
 0001:000001d0       ??_C@_1EO@POAKKMOD@?$AAF?$AAa?$AAi?$AAl?$AAe?$AAd?$AA?5?$AAt?$AAo?$AA?5?$AAr?$AAe?$AAq?$AAu?$AAe?$AAs?$AAt?$AA?5?$AAp?$AAa?$AAd?$AAs?$AA?5?$AAf?$AAo?$AAr?$AA?5?$AAt?$AAh?$AAe?$AA?5?$AAG@ 000111d0     oal:init.obj
 0001:00000220       ??_C@_1EE@PJJENIL@?$AAF?$AAa?$AAi?$AAl?$AAe?$AAd?$AA?5?$AAt?$AAo?$AA?5?$AAr?$AAe?$AAq?$AAu?$AAe?$AAs?$AAt?$AA?5?$AAp?$AAa?$AAd?$AAs?$AA?5?$AAf?$AAo?$AAr?$AA?5?$AAI?$AA2?$AAC?$AA3?$AA?$AN@ 00011220     oal:init.obj
 0001:00000268       ??_C@_1EE@MDDDENBF@?$AAF?$AAa?$AAi?$AAl?$AAe?$AAd?$AA?5?$AAt?$AAo?$AA?5?$AAr?$AAe?$AAq?$AAu?$AAe?$AAs?$AAt?$AA?5?$AAp?$AAa?$AAd?$AAs?$AA?5?$AAf?$AAo?$AAr?$AA?5?$AAI?$AA2?$AAC?$AA2?$AA?$AN@ 00011268     oal:init.obj
 0001:000002b0       ??_C@_1EE@ENLMEKPG@?$AAF?$AAa?$AAi?$AAl?$AAe?$AAd?$AA?5?$AAt?$AAo?$AA?5?$AAr?$AAe?$AAq?$AAu?$AAe?$AAs?$AAt?$AA?5?$AAp?$AAa?$AAd?$AAs?$AA?5?$AAf?$AAo?$AAr?$AA?5?$AAI?$AA2?$AAC?$AA1?$AA?$AN@ 000112b0     oal:init.obj
 0001:000002f8       ??_C@_1EE@LCPCELLP@?$AAF?$AAa?$AAi?$AAl?$AAe?$AAd?$AA?5?$AAt?$AAo?$AA?5?$AAr?$AAe?$AAq?$AAu?$AAe?$AAs?$AAt?$AA?5?$AAp?$AAa?$AAd?$AAs?$AA?5?$AAf?$AAo?$AAr?$AA?5?$AAG?$AAP?$AAM?$AAC?$AA?$AN@ 000112f8     oal:init.obj
 0001:00000340       ??_C@_1GI@LGFJGPEK@?$AAE?$AAR?$AAR?$AAO?$AAR?$AA?3?$AA?5?$AAO?$AAE?$AAM?$AAI?$AAn?$AAi?$AAt?$AA?3?$AA?5?$AAF?$AAa?$AAi?$AAl?$AAe?$AAd?$AA?5?$AAt?$AAo?$AA?5?$AAi?$AAn?$AAi?$AAt?$AAi?$AAa@ 00011340     oal:init.obj
 0001:000003a8       ??_C@_1GE@OIDINFAG@?$AAE?$AAR?$AAR?$AAO?$AAR?$AA?3?$AA?5?$AAO?$AAE?$AAM?$AAI?$AAn?$AAi?$AAt?$AA?3?$AA?5?$AAf?$AAa?$AAi?$AAl?$AAe?$AAd?$AA?5?$AAt?$AAo?$AA?5?$AAi?$AAn?$AAi?$AAt?$AAi?$AAa@ 000113a8     oal:init.obj
 0001:00000410       ??_C@_1EA@GGPFFMPF@?$AAO?$AAA?$AAL?$AA?3?$AA?5?$AAC?$AAP?$AAU?$AA?5?$AAL?$AA2?$AA?5?$AAA?$AAu?$AAx?$AA?5?$AAr?$AAe?$AAg?$AAi?$AAs?$AAt?$AAe?$AAr?$AA?5?$AA0?$AAx?$AA?$CF?$AAx?$AA?$AN?$AA?6?$AA?$AA@ 00011410     oal:init.obj
 0001:00000450       ??_C@_1DI@EKICDEND@?$AAO?$AAA?$AAL?$AA?3?$AA?5?$AAC?$AAP?$AAU?$AA?5?$AAr?$AAe?$AAv?$AAi?$AAs?$AAi?$AAo?$AAn?$AA?5?$AA0?$AAx?$AA?$CF?$AAx?$AA?3?$AA?$CF?$AAs?$AA?$AN?$AA?6?$AA?$AA@ 00011450     oal:init.obj
 0001:00000488       ??_C@_17EIAJIHBF@?$AAE?$AAV?$AAM?$AA?$AA@ 00011488     oal:init.obj
 0001:00000490       ??_C@_1M@KGLOAAMK@?$AAO?$AAM?$AAA?$AAP?$AA3?$AA?$AA@ 00011490     oal:init.obj
 0001:0000049c       ??_C@_04BPMAMLNJ@EVM?9?$AA@ 0001149c     oal:init.obj
 0001:000004a8       ??_C@_1EA@KPKHFCLF@?$AAO?$AAE?$AAM?$AAI?$AAn?$AAi?$AAt?$AA?3?$AA?5?$AAu?$AAn?$AAk?$AAn?$AAo?$AAw?$AA?5?$AAC?$AAP?$AAU?$AA?5?$AAF?$AAa?$AAm?$AAi?$AAl?$AAy?$AA?5?$AA?$CF?$AAd?$AA?$AN?$AA?6?$AA?$AA@ 000114a8     oal:init.obj
 0001:000004e8       ??_C@_1BA@KEKEAPD@?$AAE?$AAV?$AAM?$AA3?$AA5?$AA3?$AA0?$AA?$AA@ 000114e8     oal:init.obj
 0001:000004f8       ??_C@_1BC@CPMDPFBC@?$AAO?$AAM?$AAA?$AAP?$AA3?$AA5?$AA3?$AA0?$AA?$AA@ 000114f8     oal:init.obj
 0001:0000050c       ??_C@_08DGJGOJCE@EVM3530?9?$AA@ 0001150c     oal:init.obj
 0001:00000518       ??_C@_1BA@EIGPEHIO@?$AAE?$AAV?$AAM?$AA3?$AA7?$AA3?$AA0?$AA?$AA@ 00011518     oal:init.obj
 0001:00000528       ??_C@_1O@KGJEKGDB@?$AAD?$AAM?$AA3?$AA7?$AA3?$AA0?$AA?$AA@ 00011528     oal:init.obj
 0001:00000538       ??_C@_08EMFGLKEE@EVM3730?9?$AA@ 00011538     oal:init.obj
 0001:00000544       ??_C@_1BG@JHBBNGEC@?$AA?$CL?$AAO?$AAE?$AAM?$AAI?$AAn?$AAi?$AAt?$AA?$AN?$AA?6?$AA?$AA@ 00011544     oal:init.obj
 0001:000005f0       ??_C@_1FM@LBIPKPNP@?$AA?9?$AAO?$AAA?$AAL?$AAI?$AAo?$AAC?$AAt?$AAl?$AAP?$AAr?$AAc?$AAm?$AAD?$AAe?$AAv?$AAi?$AAc?$AAe?$AAG?$AAe?$AAt?$AAD?$AAe?$AAv?$AAi?$AAc?$AAe?$AAS?$AAt?$AAa?$AAt@ 000115f0     oal:oem_pm.obj
 0001:00000650       ??_C@_1EK@IDKGDIPB@?$AA?$CL?$AAO?$AAA?$AAL?$AAI?$AAo?$AAC?$AAt?$AAl?$AAP?$AAr?$AAc?$AAm?$AAD?$AAe?$AAv?$AAi?$AAc?$AAe?$AAG?$AAe?$AAt?$AAD?$AAe?$AAv?$AAi?$AAc?$AAe?$AAS?$AAt?$AAa?$AAt@ 00011650     oal:oem_pm.obj
 0001:000006a0       ??_C@_1GC@PIMMNGGL@?$AA?9?$AAO?$AAA?$AAL?$AAI?$AAo?$AAC?$AAt?$AAl?$AAP?$AAr?$AAc?$AAm?$AAD?$AAe?$AAv?$AAi?$AAc?$AAe?$AAG?$AAe?$AAt?$AAS?$AAo?$AAu?$AAr?$AAc?$AAe?$AAC?$AAl?$AAo?$AAc@ 000116a0     oal:oem_pm.obj
 0001:00000708       ??_C@_1FA@ECEPPKCB@?$AA?$CL?$AAO?$AAA?$AAL?$AAI?$AAo?$AAC?$AAt?$AAl?$AAP?$AAr?$AAc?$AAm?$AAD?$AAe?$AAv?$AAi?$AAc?$AAe?$AAG?$AAe?$AAt?$AAS?$AAo?$AAu?$AAr?$AAc?$AAe?$AAC?$AAl?$AAo?$AAc@ 00011708     oal:oem_pm.obj
 0001:00000758       ??_C@_1GA@NDMNMIPM@?$AA?9?$AAO?$AAA?$AAL?$AAI?$AAo?$AAC?$AAt?$AAl?$AAP?$AAr?$AAc?$AAm?$AAC?$AAl?$AAo?$AAc?$AAk?$AAG?$AAe?$AAt?$AAS?$AAo?$AAu?$AAr?$AAc?$AAe?$AAC?$AAl?$AAo?$AAc?$AAk@ 00011758     oal:oem_pm.obj
 0001:000007b8       ??_C@_1EO@HHGONEEA@?$AA?$CL?$AAO?$AAA?$AAL?$AAI?$AAo?$AAC?$AAt?$AAl?$AAP?$AAr?$AAc?$AAm?$AAC?$AAl?$AAo?$AAc?$AAk?$AAG?$AAe?$AAt?$AAS?$AAo?$AAu?$AAr?$AAc?$AAe?$AAC?$AAl?$AAo?$AAc?$AAk@ 000117b8     oal:oem_pm.obj
 0001:00000808       ??_C@_1FI@LHKECLHF@?$AA?9?$AAO?$AAA?$AAL?$AAI?$AAo?$AAC?$AAt?$AAl?$AAP?$AAr?$AAc?$AAm?$AAC?$AAl?$AAo?$AAc?$AAk?$AAS?$AAe?$AAt?$AAS?$AAo?$AAu?$AAr?$AAc?$AAe?$AAC?$AAl?$AAo?$AAc?$AAk@ 00011808     oal:oem_pm.obj
 0001:00000860       ??_C@_1EG@GJHFLHDM@?$AA?$CL?$AAO?$AAA?$AAL?$AAI?$AAo?$AAC?$AAt?$AAl?$AAP?$AAr?$AAc?$AAm?$AAC?$AAl?$AAo?$AAc?$AAk?$AAS?$AAe?$AAt?$AAS?$AAo?$AAu?$AAr?$AAc?$AAe?$AAC?$AAl?$AAo?$AAc?$AAk@ 00011860     oal:oem_pm.obj
 0001:000008a8       ??_C@_1GG@PFIOPLFN@?$AA?9?$AAO?$AAA?$AAL?$AAI?$AAo?$AAC?$AAt?$AAl?$AAP?$AAr?$AAc?$AAm?$AAC?$AAl?$AAo?$AAc?$AAk?$AAS?$AAe?$AAt?$AAS?$AAo?$AAu?$AAr?$AAc?$AAe?$AAC?$AAl?$AAo?$AAc?$AAk@ 000118a8     oal:oem_pm.obj
 0001:00000910       ??_C@_1FE@OMCINOEK@?$AA?$CL?$AAO?$AAA?$AAL?$AAI?$AAo?$AAC?$AAt?$AAl?$AAP?$AAr?$AAc?$AAm?$AAC?$AAl?$AAo?$AAc?$AAk?$AAS?$AAe?$AAt?$AAS?$AAo?$AAu?$AAr?$AAc?$AAe?$AAC?$AAl?$AAo?$AAc?$AAk@ 00011910     oal:oem_pm.obj
 0001:00000968       ??_C@_1FE@GNONCHJN@?$AA?9?$AAO?$AAA?$AAL?$AAI?$AAo?$AAC?$AAt?$AAl?$AAP?$AAr?$AAc?$AAm?$AAC?$AAl?$AAo?$AAc?$AAk?$AAS?$AAe?$AAt?$AAD?$AAp?$AAl?$AAl?$AAS?$AAt?$AAa?$AAt?$AAe?$AA?$CI?$AAr@ 00011968     oal:oem_pm.obj
 0001:000009c0       ??_C@_1EC@CIFBIGJI@?$AA?$CL?$AAO?$AAA?$AAL?$AAI?$AAo?$AAC?$AAt?$AAl?$AAP?$AAr?$AAc?$AAm?$AAC?$AAl?$AAo?$AAc?$AAk?$AAS?$AAe?$AAt?$AAD?$AAp?$AAl?$AAl?$AAS?$AAt?$AAa?$AAt?$AAe?$AA?$AN?$AA?6@ 000119c0     oal:oem_pm.obj
 0001:00000a08       ??_C@_1GE@IAGKICDJ@?$AA?9?$AAO?$AAA?$AAL?$AAI?$AAo?$AAC?$AAt?$AAl?$AAP?$AAr?$AAc?$AAm?$AAD?$AAo?$AAm?$AAa?$AAi?$AAn?$AAS?$AAe?$AAt?$AAW?$AAa?$AAk?$AAe?$AAu?$AAp?$AAD?$AAe?$AAp?$AAe@ 00011a08     oal:oem_pm.obj
 0001:00000a70       ??_C@_1FC@IFJLFJMC@?$AA?$CL?$AAO?$AAA?$AAL?$AAI?$AAo?$AAC?$AAt?$AAl?$AAP?$AAr?$AAc?$AAm?$AAD?$AAo?$AAm?$AAa?$AAi?$AAn?$AAS?$AAe?$AAt?$AAW?$AAa?$AAk?$AAe?$AAu?$AAp?$AAD?$AAe?$AAp?$AAe@ 00011a70     oal:oem_pm.obj
 0001:00000ac8       ??_C@_1GC@OENIKAAG@?$AA?9?$AAO?$AAA?$AAL?$AAI?$AAo?$AAC?$AAt?$AAl?$AAP?$AAr?$AAc?$AAm?$AAD?$AAo?$AAm?$AAa?$AAi?$AAn?$AAS?$AAe?$AAt?$AAS?$AAl?$AAe?$AAe?$AAp?$AAD?$AAe?$AAp?$AAe?$AAn@ 00011ac8     oal:oem_pm.obj
 0001:00000b30       ??_C@_1FA@DCKFFJGO@?$AA?$CL?$AAO?$AAA?$AAL?$AAI?$AAo?$AAC?$AAt?$AAl?$AAP?$AAr?$AAc?$AAm?$AAD?$AAo?$AAm?$AAa?$AAi?$AAn?$AAS?$AAe?$AAt?$AAS?$AAl?$AAe?$AAe?$AAp?$AAD?$AAe?$AAp?$AAe?$AAn@ 00011b30     oal:oem_pm.obj
 0001:00000b80       ??_C@_1FI@HLFNCHGP@?$AA?9?$AAO?$AAA?$AAL?$AAI?$AAo?$AAC?$AAt?$AAl?$AAP?$AAr?$AAc?$AAm?$AAD?$AAo?$AAm?$AAa?$AAi?$AAn?$AAS?$AAe?$AAt?$AAP?$AAo?$AAw?$AAe?$AAr?$AAS?$AAt?$AAa?$AAt?$AAe@ 00011b80     oal:oem_pm.obj
 0001:00000bd8       ??_C@_1EG@FCCADHII@?$AA?$CL?$AAO?$AAA?$AAL?$AAI?$AAo?$AAC?$AAt?$AAl?$AAP?$AAr?$AAc?$AAm?$AAD?$AAo?$AAm?$AAa?$AAi?$AAn?$AAS?$AAe?$AAt?$AAP?$AAo?$AAw?$AAe?$AAr?$AAS?$AAt?$AAa?$AAt?$AAe@ 00011bd8     oal:oem_pm.obj
 0001:00000c20       ??_C@_1FA@LOEOCPDH@?$AA?9?$AAO?$AAA?$AAL?$AAI?$AAo?$AAC?$AAt?$AAl?$AAP?$AAr?$AAc?$AAm?$AAS?$AAe?$AAt?$AAS?$AAu?$AAs?$AAp?$AAe?$AAn?$AAd?$AAS?$AAt?$AAa?$AAt?$AAe?$AA?$CI?$AAr?$AAc?$AA?5@ 00011c20     oal:oem_pm.obj
 0001:00000c70       ??_C@_1DO@DKNNCPML@?$AA?$CL?$AAO?$AAA?$AAL?$AAI?$AAo?$AAC?$AAt?$AAl?$AAP?$AAr?$AAc?$AAm?$AAS?$AAe?$AAt?$AAS?$AAu?$AAs?$AAp?$AAe?$AAn?$AAd?$AAS?$AAt?$AAa?$AAt?$AAe?$AA?$AN?$AA?6?$AA?$AA@ 00011c70     oal:oem_pm.obj
 0001:00000cb0       ??_C@_1DO@PHDKNHBH@?$AA?9?$AAO?$AAA?$AAL?$AAI?$AAo?$AAC?$AAt?$AAl?$AAO?$AAp?$AAp?$AAR?$AAe?$AAq?$AAu?$AAe?$AAs?$AAt?$AA?$CI?$AAr?$AAc?$AA?5?$AA?$DN?$AA?5?$AA?$CF?$AAd?$AA?$CJ?$AA?$AN?$AA?6?$AA?$AA@ 00011cb0     oal:oem_pm.obj
 0001:00000cf0       ??_C@_1CM@LGFHCAO@?$AA?$CL?$AAO?$AAA?$AAL?$AAI?$AAo?$AAC?$AAt?$AAl?$AAO?$AAp?$AAp?$AAR?$AAe?$AAq?$AAu?$AAe?$AAs?$AAt?$AA?$AN?$AA?6?$AA?$AA@ 00011cf0     oal:oem_pm.obj
 0001:00000d20       ??_C@_1EO@KHFBABJJ@?$AA?9?$AAO?$AAA?$AAL?$AAI?$AAo?$AAC?$AAt?$AAl?$AAS?$AAm?$AAa?$AAr?$AAt?$AAR?$AAe?$AAf?$AAl?$AAe?$AAx?$AAC?$AAo?$AAn?$AAt?$AAr?$AAo?$AAl?$AA?$CI?$AAr?$AAc?$AA?5?$AA?$DN@ 00011d20     oal:oem_pm.obj
 0001:00000d70       ??_C@_1DM@DBFHMFOM@?$AA?$CL?$AAO?$AAA?$AAL?$AAI?$AAo?$AAC?$AAt?$AAl?$AAS?$AAm?$AAa?$AAr?$AAt?$AAR?$AAe?$AAf?$AAl?$AAe?$AAx?$AAC?$AAo?$AAn?$AAt?$AAr?$AAo?$AAl?$AA?$AN?$AA?6?$AA?$AA@ 00011d70     oal:oem_pm.obj
 0001:00000db0       ??_C@_1FI@NIAMEIGG@?$AA?9?$AAO?$AAA?$AAL?$AAI?$AAo?$AAC?$AAt?$AAl?$AAU?$AAp?$AAd?$AAa?$AAt?$AAe?$AAR?$AAe?$AAt?$AAe?$AAn?$AAt?$AAi?$AAo?$AAn?$AAV?$AAo?$AAl?$AAt?$AAa?$AAg?$AAe?$AAs@ 00011db0     oal:oem_pm.obj
 0001:00000e08       ??_C@_1EG@LLINCBJK@?$AA?$CL?$AAO?$AAA?$AAL?$AAI?$AAo?$AAC?$AAt?$AAl?$AAU?$AAp?$AAd?$AAa?$AAt?$AAe?$AAR?$AAe?$AAt?$AAe?$AAn?$AAt?$AAi?$AAo?$AAn?$AAV?$AAo?$AAl?$AAt?$AAa?$AAg?$AAe?$AAs@ 00011e08     oal:oem_pm.obj
 0001:00000e50       ??_C@_1FI@JNLFHLFE@?$AA?9?$AAO?$AAA?$AAL?$AAI?$AAo?$AAC?$AAt?$AAl?$AAH?$AAa?$AAl?$AAC?$AAo?$AAn?$AAt?$AAe?$AAx?$AAt?$AAS?$AAa?$AAv?$AAe?$AAG?$AAe?$AAt?$AAB?$AAu?$AAf?$AAf?$AAe?$AAr@ 00011e50     oal:oem_pm.obj
 0001:00000ea8       ??_C@_1EG@NGBNIFNG@?$AA?$CL?$AAO?$AAA?$AAL?$AAI?$AAo?$AAC?$AAt?$AAl?$AAH?$AAa?$AAl?$AAC?$AAo?$AAn?$AAt?$AAe?$AAx?$AAt?$AAS?$AAa?$AAv?$AAe?$AAG?$AAe?$AAt?$AAB?$AAu?$AAf?$AAf?$AAe?$AAr@ 00011ea8     oal:oem_pm.obj
 0001:00000ef0       ??_C@_1FK@FIFKBPFK@?$AAE?$AAr?$AAr?$AAo?$AAr?$AA?3?$AA?5?$AAI?$AAV?$AAA?$AA2?$AA?5?$AAp?$AAo?$AAw?$AAe?$AAr?$AA?5?$AAd?$AAo?$AAm?$AAa?$AAi?$AAn?$AA?5?$AAf?$AAu?$AAn?$AAc?$AAa?$AAt?$AAi@ 00011ef0     oal:oem_pm.obj
 0001:00000f50       ??_C@_1EM@HMFNDBFB@?$AAE?$AAr?$AAr?$AAo?$AAr?$AA?3?$AA?5?$AAI?$AAV?$AAA?$AA2?$AA?5?$AAp?$AAo?$AAw?$AAe?$AAr?$AA?5?$AAd?$AAo?$AAm?$AAa?$AAi?$AAn?$AA?5?$AAn?$AAo?$AAt?$AA?5?$AAO?$AAF?$AAF@ 00011f50     oal:oem_pm.obj
 0001:00000fa0       ??_C@_1GE@ELNCGKNN@?$AAl?$AAp?$AAm?$AA?4?$AAk?$AAo?$AA?3?$AA?5?$AAE?$AAr?$AAr?$AAo?$AAr?$AA?3?$AA?5?$AAI?$AAV?$AAA?$AA2?$AA_?$AAR?$AAS?$AAT?$AA1?$AA?5?$AAs?$AAi?$AAg?$AAn?$AAa?$AAl?$AA?5@ 00011fa0     oal:oem_pm.obj
 0001:00001008       ??_C@_1FG@PFIDHFBP@?$AAl?$AAp?$AAm?$AA?4?$AAk?$AAo?$AA?3?$AA?5?$AAE?$AAr?$AAr?$AAo?$AAr?$AA?3?$AA?5?$AAI?$AAV?$AAA?$AA2?$AA?5?$AAd?$AAi?$AAd?$AA?5?$AAn?$AAo?$AAt?$AA?5?$AAb?$AAe?$AAc?$AAo@ 00012008     oal:oem_pm.obj
 0001:00001060       ??_C@_1FG@ENJPGDMG@?$AAE?$AAr?$AAr?$AAo?$AAr?$AA?3?$AA?5?$AAI?$AAV?$AAA?$AA2?$AA?5?$AAp?$AAo?$AAw?$AAe?$AAr?$AA?5?$AAd?$AAo?$AAm?$AAa?$AAi?$AAn?$AA?5?$AAn?$AAo?$AAt?$AA?5?$AAO?$AAN?$AA?5@ 00012060     oal:oem_pm.obj
 0001:000010b8       ??_C@_1CM@JBCMAKOK@?$AA?9?$AAO?$AAA?$AAL?$AAP?$AAr?$AAc?$AAm?$AAI?$AAn?$AAt?$AAr?$AAH?$AAa?$AAn?$AAd?$AAl?$AAe?$AAr?$AA?$AN?$AA?6?$AA?$AA@ 000120b8     oal:oem_pm.obj
 0001:000010e4       ??_C@_1CM@GNNMJLKG@?$AA?$CL?$AAO?$AAA?$AAL?$AAP?$AAr?$AAc?$AAm?$AAI?$AAn?$AAt?$AAr?$AAH?$AAa?$AAn?$AAd?$AAl?$AAe?$AAr?$AA?$AN?$AA?6?$AA?$AA@ 000120e4     oal:oem_pm.obj
 0001:00001110       ??_C@_1CO@OILFLAEL@?$AA?9?$AAO?$AAA?$AAL?$AAS?$AAm?$AAa?$AAr?$AAt?$AAR?$AAe?$AAf?$AAl?$AAe?$AAx?$AA1?$AAI?$AAn?$AAt?$AAr?$AA?$AN?$AA?6?$AA?$AA@ 00012110     oal:oem_pm.obj
 0001:00001140       ??_C@_1FA@BPEDMOIJ@?$AAO?$AAA?$AAL?$AAS?$AAm?$AAa?$AAr?$AAt?$AAR?$AAe?$AAf?$AAl?$AAe?$AAx?$AA1?$AAI?$AAn?$AAt?$AAr?$AA?5?$AAi?$AAn?$AAt?$AAr?$AAS?$AAt?$AAa?$AAt?$AAu?$AAs?$AA?$DN?$AA0@ 00012140     oal:oem_pm.obj
 0001:00001190       ??_C@_1CO@DDHBOPGA@?$AA?$CL?$AAO?$AAA?$AAL?$AAS?$AAm?$AAa?$AAr?$AAt?$AAR?$AAe?$AAf?$AAl?$AAe?$AAx?$AA1?$AAI?$AAn?$AAt?$AAr?$AA?$AN?$AA?6?$AA?$AA@ 00012190     oal:oem_pm.obj
 0001:000011c0       ??_C@_1CO@MBHNAELJ@?$AA?9?$AAO?$AAA?$AAL?$AAS?$AAm?$AAa?$AAr?$AAt?$AAR?$AAe?$AAf?$AAl?$AAe?$AAx?$AA2?$AAI?$AAn?$AAt?$AAr?$AA?$AN?$AA?6?$AA?$AA@ 000121c0     oal:oem_pm.obj
 0001:000011f0       ??_C@_1FA@KFBGMKJO@?$AAO?$AAA?$AAL?$AAS?$AAm?$AAa?$AAr?$AAt?$AAR?$AAe?$AAf?$AAl?$AAe?$AAx?$AA2?$AAI?$AAn?$AAt?$AAr?$AA?5?$AAi?$AAn?$AAt?$AAr?$AAS?$AAt?$AAa?$AAt?$AAu?$AAs?$AA?$DN?$AA0@ 000121f0     oal:oem_pm.obj
 0001:00001240       ??_C@_1CO@BKLJFLJC@?$AA?$CL?$AAO?$AAA?$AAL?$AAS?$AAm?$AAa?$AAr?$AAt?$AAR?$AAe?$AAf?$AAl?$AAe?$AAx?$AA2?$AAI?$AAn?$AAt?$AAr?$AA?$AN?$AA?6?$AA?$AA@ 00012240     oal:oem_pm.obj
 0001:00001270       ??_C@_1CE@IPHHBGKL@?$AA?9?$AAO?$AAA?$AAL?$AAP?$AAo?$AAw?$AAe?$AAr?$AAI?$AAn?$AAi?$AAt?$AA?$CI?$AA?$CJ?$AA?$AN?$AA?6?$AA?$AA@ 00012270     oal:oem_pm.obj
 0001:00001298       ??_C@_1EE@NIHPAAL@?$AA?5?$AAS?$AAe?$AAr?$AAi?$AAa?$AAl?$AA?5?$AAd?$AAe?$AAb?$AAu?$AAg?$AA?5?$AAm?$AAe?$AAs?$AAs?$AAa?$AAg?$AAe?$AAs?$AA?5?$AAr?$AAe?$AAn?$AAa?$AAb?$AAl?$AAe?$AAd?$AA?$AN@ 00012298     oal:oem_pm.obj
 0001:000012e0       ??_C@_1HM@BHHHHBMP@?$AA?5?$AAD?$AAi?$AAs?$AAa?$AAb?$AAl?$AAe?$AA?5?$AAs?$AAe?$AAr?$AAi?$AAa?$AAl?$AA?5?$AAd?$AAe?$AAb?$AAu?$AAg?$AA?5?$AAm?$AAe?$AAs?$AAs?$AAa?$AAg?$AAe?$AAs?$AA?5?$AAd@ 000122e0     oal:oem_pm.obj
 0001:0000135c       ??_C@_1CE@EGLHOBFH@?$AA?$CL?$AAO?$AAA?$AAL?$AAP?$AAo?$AAw?$AAe?$AAr?$AAI?$AAn?$AAi?$AAt?$AA?$CI?$AA?$CJ?$AA?$AN?$AA?6?$AA?$AA@ 0001235c     oal:oem_pm.obj
 0001:00001380       ??_C@_1CI@CGLJHOCE@?$AA?9?$AAO?$AAA?$AAL?$AAP?$AAo?$AAw?$AAe?$AAr?$AAP?$AAo?$AAs?$AAt?$AAI?$AAn?$AAi?$AAt?$AA?$AN?$AA?6?$AA?$AA@ 00012380     oal:oem_pm.obj
 0001:000013a8       ??_C@_1EG@KBFDMENB@?$AAC?$AAP?$AAU?$AA?5?$AAf?$AAa?$AAm?$AAi?$AAl?$AAy?$AA?$CI?$AA?$CF?$AAd?$AA?$CJ?$AA?5?$AAi?$AAs?$AA?5?$AAn?$AAo?$AAt?$AA?5?$AAS?$AAu?$AAp?$AAp?$AAo?$AAr?$AAt?$AAe?$AAd?$AA?4@ 000123a8     oal:oem_pm.obj
 0001:000013f0       ??_C@_1CI@HDMABPDE@?$AA?$CL?$AAO?$AAA?$AAL?$AAP?$AAo?$AAw?$AAe?$AAr?$AAP?$AAo?$AAs?$AAt?$AAI?$AAn?$AAi?$AAt?$AA?$AN?$AA?6?$AA?$AA@ 000123f0     oal:oem_pm.obj
 0001:00001418       ??_C@_1BE@BGENOPMG@?$AAC?$AAo?$AAr?$AAt?$AAe?$AAx?$AA?9?$AAA?$AA8?$AA?$AA@ 00012418     oal:ioctl.obj
 0001:0000142c       ??_C@_1BK@BOKKCMKO@?$AAE?$AAV?$AAM?$AA?5?$AAO?$AAM?$AAA?$AAP?$AA3?$AA5?$AAx?$AAx?$AA?$AA@ 0001242c     oal:ioctl.obj
 0001:00001448       ??_C@_1CE@GIKKEBKH@?$AAT?$AAe?$AAx?$AAa?$AAs?$AA?5?$AAI?$AAn?$AAs?$AAt?$AAr?$AAu?$AAm?$AAe?$AAn?$AAt?$AAs?$AA?$AA@ 00012448     oal:ioctl.obj
 0001:0000146c       ??_C@_1BC@BEPMHPGP@?$AAO?$AAM?$AAA?$AAP?$AA3?$AA5?$AAx?$AAx?$AA?$AA@ 0001246c     oal:ioctl.obj
 0001:00001510       g_oalIoCtlTable            00012510     oal:ioctl.obj
 0001:000017d8       ??_C@_1EK@JCLHBELH@?$AA?9?$AAO?$AAA?$AAL?$AAI?$AAo?$AAC?$AAt?$AAl?$AAH?$AAa?$AAl?$AAD?$AAu?$AAm?$AAp?$AAR?$AAe?$AAg?$AAi?$AAs?$AAt?$AAe?$AAr?$AAs?$AA?$CI?$AAr?$AAc?$AA?5?$AA?$DN?$AA?5?$AA?$CF@ 000127d8     oal:ioctl.obj
 0001:00001824       ??_C@_1DI@KDMFLNNO@?$AA?$CL?$AAO?$AAA?$AAL?$AAI?$AAo?$AAC?$AAt?$AAl?$AAH?$AAa?$AAl?$AAD?$AAu?$AAm?$AAp?$AAR?$AAe?$AAg?$AAi?$AAs?$AAt?$AAe?$AAr?$AAs?$AA?$AN?$AA?6?$AA?$AA@ 00012824     oal:ioctl.obj
 0001:00001860       ??_C@_1EK@GKGINFBN@?$AA?9?$AAO?$AAA?$AAL?$AAI?$AAo?$AAC?$AAt?$AAl?$AAH?$AAa?$AAl?$AAG?$AAe?$AAt?$AAB?$AAs?$AAp?$AAV?$AAe?$AAr?$AAs?$AAi?$AAo?$AAn?$AA?$CI?$AAr?$AAc?$AA?5?$AA?$DN?$AA?5?$AA?$CF@ 00012860     oal:ioctl.obj
 0001:000018b0       ??_C@_1HC@CCPGBKDI@?$AAW?$AAA?$AAR?$AAN?$AA?3?$AA?5?$AAI?$AAO?$AAC?$AAT?$AAL?$AA_?$AAH?$AAA?$AAL?$AA_?$AAG?$AAE?$AAT?$AA_?$AAB?$AAS?$AAP?$AA_?$AAV?$AAE?$AAR?$AAS?$AAI?$AAO?$AAN?$AA_@ 000128b0     oal:ioctl.obj
 0001:00001924       ??_C@_1DI@NINGCKCM@?$AA?$CL?$AAO?$AAA?$AAL?$AAI?$AAo?$AAC?$AAt?$AAl?$AAH?$AAa?$AAl?$AAG?$AAe?$AAt?$AAB?$AAs?$AAp?$AAV?$AAe?$AAr?$AAs?$AAi?$AAo?$AAn?$AA?$AN?$AA?6?$AA?$AA@ 00012924     oal:ioctl.obj
 0001:000019f0       k32khzFrequency            000129f0     oal:oem_latency.obj
 0001:000019f8       ??_C@_1BBK@MCBACDBJ@?$AAo?$AAp?$AAm?$AA?$CF?$AAd?$AA?3?$AA?5?$AAc?$AAh?$AAi?$AAp?$AAO?$AAf?$AAf?$AAO?$AAf?$AAf?$AAs?$AAe?$AAt?$AA?3?$AA?$CF?$AAd?$AA?0?$AA?$CF?$AAd?$AA?5?$AAc?$AAh?$AAi?$AAp?$AAO@ 000129f8     oal:oem_latency.obj
 0001:00001b18       ??_C@_1FO@DPCMIAE@?$AA?9?$AAO?$AAA?$AAL?$AAI?$AAo?$AAC?$AAt?$AAl?$AAI?$AAn?$AAt?$AAe?$AAr?$AAr?$AAu?$AAp?$AAt?$AAL?$AAa?$AAt?$AAe?$AAn?$AAc?$AAy?$AAC?$AAo?$AAn?$AAs?$AAt?$AAr?$AAa@ 00012b18     oal:oem_latency.obj
 0001:00001b78       ??_C@_1EM@HALJGOAC@?$AA?$CL?$AAO?$AAA?$AAL?$AAI?$AAo?$AAC?$AAt?$AAl?$AAI?$AAn?$AAt?$AAe?$AAr?$AAr?$AAu?$AAp?$AAt?$AAL?$AAa?$AAt?$AAe?$AAn?$AAc?$AAy?$AAC?$AAo?$AAn?$AAs?$AAt?$AAr?$AAa@ 00012b78     oal:oem_latency.obj
 0001:00001c58       ??_C@_1IA@BDMNHBLK@?$AAC?$AAo?$AAm?$AAp?$AAe?$AAn?$AAs?$AAa?$AAt?$AAi?$AAn?$AAg?$AA?5?$AAO?$AAP?$AAP?$AA?$CF?$AAd?$AA?5?$AAf?$AAo?$AAr?$AA?5?$AA?$CF?$AAd?$AAm?$AAV?$AA?5?$AAO?$AAr?$AAi?$AAg@ 00012c58     oal:opp_map.obj
 0001:00001cd8       ??_C@_1FG@JEKJNIJ@?$AAU?$AAp?$AAd?$AAa?$AAt?$AAe?$AAR?$AAe?$AAt?$AAe?$AAn?$AAt?$AAi?$AAo?$AAn?$AAV?$AAo?$AAl?$AAt?$AAa?$AAg?$AAe?$AAs?$AA?3?$AA?5?$AAV?$AAD?$AAD?$AA?$CF?$AAd?$AA?5?$AA?$CF@ 00012cd8     oal:opp_map.obj
 0001:00001d30       ??_C@_1CE@DELMDCMO@?$AAV?$AAD?$AAD?$AA?$CF?$AAd?$AA?5?$AA?$CF?$AAd?$AA?4?$AA?$CF?$AA0?$AA4?$AAd?$AAV?$AA?5?$AA?$AN?$AA?6?$AA?$AA@ 00012d30     oal:opp_map.obj
 0001:00001d54       ??_C@_1BO@NNGOGLGP@?$AAV?$AAd?$AAd?$AA?$CF?$AAd?$AA?$DN?$AA0?$AAx?$AA?$CF?$AA0?$AA2?$AAX?$AA?$AN?$AA?6?$AA?$AA@ 00012d54     oal:opp_map.obj
 0001:00001d74       ??_C@_1CA@OACLPOKB@?$AAS?$AAe?$AAt?$AAO?$AAp?$AAp?$AA?5?$AAt?$AAo?$AA?5?$AA?$CF?$AAd?$AA?5?$AA?$AN?$AA?6?$AA?$AA@ 00012d74     oal:opp_map.obj
 0001:00001d98       ??_C@_1HM@FDKIOMPF@?$AA?$AN?$AA?6?$AAS?$AAm?$AAa?$AAr?$AAt?$AAR?$AAe?$AAf?$AAl?$AAe?$AAx?$AA_?$AAI?$AAn?$AAi?$AAt?$AAi?$AAa?$AAl?$AAi?$AAz?$AAe?$AA?3?$AA?5?$AAN?$AAU?$AAL?$AAL?$AA?5?$AAS@ 00012d98     oal:opp_map.obj
 0001:00001ea8       ??_C@_1EA@KOAOAACA@?$AA?9?$AAO?$AAA?$AAL?$AAI?$AAo?$AAC?$AAt?$AAl?$AAH?$AAA?$AAL?$AAP?$AAr?$AAo?$AAf?$AAi?$AAl?$AAe?$AAr?$AA?$CI?$AAr?$AAc?$AA?5?$AA?$DN?$AA?5?$AA?$CF?$AAd?$AA?$CJ?$AA?$AN?$AA?6?$AA?$AA@ 00012ea8     oal:oem_prof.obj
 0001:00001ee8       ??_C@_1CO@JAMDPBAN@?$AA?$CL?$AAO?$AAA?$AAL?$AAI?$AAo?$AAC?$AAt?$AAl?$AAH?$AAA?$AAL?$AAP?$AAr?$AAo?$AAf?$AAi?$AAl?$AAe?$AAr?$AA?$AN?$AA?6?$AA?$AA@ 00012ee8     oal:oem_prof.obj
 0001:00002038       ??_C@_1DO@JHJONFOE@?$AA?9?$AAO?$AAA?$AAL?$AAI?$AAo?$AAC?$AAt?$AAl?$AAH?$AAa?$AAl?$AAD?$AAd?$AAk?$AAC?$AAa?$AAl?$AAl?$AA?$CI?$AAr?$AAc?$AA?5?$AA?$DN?$AA?5?$AA?$CF?$AAd?$AA?$CJ?$AA?$AN?$AA?6?$AA?$AA@ 00013038     oal_io:ioctl.obj
 0001:00002078       ??_C@_1FM@IFHLCDE@?$AAE?$AAR?$AAR?$AAO?$AAR?$AA?3?$AAO?$AAA?$AAL?$AAI?$AAo?$AAc?$AAt?$AAl?$AAH?$AAa?$AAl?$AAD?$AAd?$AAk?$AAC?$AAa?$AAl?$AAl?$AA?3?$AA?5?$AAI?$AAN?$AAV?$AAA?$AAL?$AAI@ 00013078     oal_io:ioctl.obj
 0001:000020d8       ??_C@_1HM@DONGDDHM@?$AAE?$AAR?$AAR?$AAO?$AAR?$AA?3?$AA?5?$AAO?$AAA?$AAL?$AAI?$AAo?$AAc?$AAt?$AAl?$AAH?$AAa?$AAl?$AAD?$AAd?$AAk?$AAC?$AAa?$AAl?$AAl?$AA?3?$AA?5?$AAU?$AAn?$AAs?$AAu?$AAp@ 000130d8     oal_io:ioctl.obj
 0001:00002158       ??_C@_1GE@BFODAIDF@?$AAE?$AAR?$AAR?$AAO?$AAR?$AA?3?$AA?5?$AAO?$AAA?$AAL?$AAI?$AAo?$AAc?$AAt?$AAl?$AAH?$AAa?$AAl?$AAD?$AAd?$AAk?$AAC?$AAa?$AAl?$AAl?$AA?3?$AA?5?$AAU?$AAn?$AAs?$AAu?$AAp@ 00013158     oal_io:ioctl.obj
 0001:000021bc       ??_C@_1DG@HOFDDFMH@?$AA?$CL?$AAO?$AAA?$AAL?$AAI?$AAo?$AAC?$AAt?$AAl?$AAH?$AAa?$AAl?$AAD?$AAd?$AAk?$AAC?$AAa?$AAl?$AAl?$AA?$CI?$AA?4?$AA?4?$AA?4?$AA?$CJ?$AA?$AN?$AA?6?$AA?$AA@ 000131bc     oal_io:ioctl.obj
 0001:00002288       ??_C@_1DK@DKAHFGMP@?$AA?9?$AAO?$AAA?$AAL?$AAI?$AAo?$AAB?$AAu?$AAs?$AAP?$AAo?$AAw?$AAe?$AAr?$AAO?$AAf?$AAf?$AA?$CI?$AAr?$AAc?$AA?5?$AA?$DN?$AA?5?$AA?$CF?$AAd?$AA?$CJ?$AA?$AN?$AA?6?$AA?$AA@ 00013288     oal_io:power.obj
 0001:000022c4       ??_C@_1DI@PEAMECNB@?$AA?$CL?$AAO?$AAA?$AAL?$AAI?$AAo?$AAB?$AAu?$AAs?$AAP?$AAo?$AAw?$AAe?$AAr?$AAO?$AAf?$AAf?$AA?$CI?$AA?$CF?$AAd?$AA?0?$AA?5?$AA?$CF?$AAd?$AA?$CJ?$AA?$AN?$AA?6?$AA?$AA@ 000132c4     oal_io:power.obj
 0001:000022fc       ??_C@_1DI@BEKMCAGI@?$AA?9?$AAO?$AAA?$AAL?$AAI?$AAo?$AAB?$AAu?$AAs?$AAP?$AAo?$AAw?$AAe?$AAr?$AAO?$AAn?$AA?$CI?$AAr?$AAc?$AA?5?$AA?$DN?$AA?5?$AA?$CF?$AAd?$AA?$CJ?$AA?$AN?$AA?6?$AA?$AA@ 000132fc     oal_io:power.obj
 0001:00002334       ??_C@_1DG@BNAKMMEE@?$AA?$CL?$AAO?$AAA?$AAL?$AAI?$AAo?$AAB?$AAu?$AAs?$AAP?$AAo?$AAw?$AAe?$AAr?$AAO?$AAn?$AA?$CI?$AA?$CF?$AAd?$AA?0?$AA?5?$AA?$CF?$AAd?$AA?$CJ?$AA?$AN?$AA?6?$AA?$AA@ 00013334     oal_io:power.obj
 0001:00002400       ??_C@_1KE@FCFGNLKM@?$AA?9?$AAO?$AAA?$AAL?$AAT?$AAr?$AAa?$AAn?$AAs?$AAl?$AAa?$AAt?$AAe?$AAB?$AAu?$AAs?$AAA?$AAd?$AAd?$AAr?$AAe?$AAs?$AAs?$AA?$CI?$AAa?$AAd?$AAd?$AAr?$AAe?$AAs?$AAs?$AAS@ 00013400     oal_io:trans.obj
 0001:000024a8       ??_C@_1GI@BPOGFGAB@?$AA?$CL?$AAO?$AAA?$AAL?$AAI?$AAo?$AAT?$AAr?$AAa?$AAn?$AAs?$AAl?$AAa?$AAt?$AAe?$AAB?$AAu?$AAs?$AAA?$AAd?$AAd?$AAr?$AAe?$AAs?$AAs?$AA?$CI?$AA?$CF?$AAd?$AA?0?$AA?5?$AA?$CF?$AAd@ 000134a8     oal_io:trans.obj
 0001:00002510       ??_C@_1HM@IKCJOCJL@?$AA?9?$AAO?$AAA?$AAL?$AAT?$AAr?$AAa?$AAn?$AAs?$AAl?$AAa?$AAt?$AAe?$AAS?$AAy?$AAs?$AAt?$AAe?$AAm?$AAA?$AAd?$AAd?$AAr?$AAe?$AAs?$AAs?$AA?$CI?$AAb?$AAu?$AAs?$AAA?$AAd@ 00013510     oal_io:trans.obj
 0001:00002590       ??_C@_1GC@GKDDBMML@?$AA?$CL?$AAO?$AAA?$AAL?$AAT?$AAr?$AAa?$AAn?$AAs?$AAl?$AAa?$AAt?$AAe?$AAS?$AAy?$AAs?$AAt?$AAe?$AAm?$AAA?$AAd?$AAd?$AAr?$AAe?$AAs?$AAs?$AA?$CI?$AA?$CF?$AAd?$AA?0?$AA?5?$AA?$CF@ 00013590     oal_io:trans.obj
 0001:00002688       ??_C@_1GA@HKIKBELC@?$AAE?$AAR?$AAR?$AAO?$AAR?$AA?3?$AA?5?$AAO?$AAA?$AAL?$AAI?$AAo?$AAC?$AAt?$AAl?$AAH?$AAa?$AAl?$AAI?$AAL?$AAT?$AAi?$AAm?$AAi?$AAn?$AAg?$AA?3?$AA?5?$AAI?$AAn?$AAv?$AAa@ 00013688     oal_ilt:ilt.obj
 0001:00002808       ??_C@_1GM@LBPDAPNJ@?$AAI?$AAN?$AAF?$AAO?$AA?3?$AAO?$AAA?$AAL?$AAL?$AAo?$AAg?$AAS?$AAe?$AAt?$AAZ?$AAo?$AAn?$AAe?$AAs?$AA?3?$AA?5?$AAd?$AAp?$AAC?$AAu?$AAr?$AAS?$AAe?$AAt?$AAt?$AAi?$AAn@ 00013808     oal_log:debug.obj
 0001:00002908       ??_C@_1EM@KGGHBFBJ@?$AA?$CL?$AAO?$AAA?$AAL?$AAI?$AAo?$AAC?$AAt?$AAl?$AAH?$AAa?$AAl?$AAR?$AAe?$AAq?$AAu?$AAe?$AAs?$AAt?$AAS?$AAy?$AAs?$AAI?$AAn?$AAt?$AAr?$AA?$CI?$AAr?$AAc?$AA?5?$AA?$DN?$AA?5@ 00013908     oal_intr_common:ioctl.obj
 0001:00002958       ??_C@_1GK@HKEIPOOO@?$AAW?$AAA?$AAR?$AAN?$AA?3?$AA?5?$AAI?$AAO?$AAC?$AAT?$AAL?$AA_?$AAH?$AAA?$AAL?$AA_?$AAR?$AAE?$AAQ?$AAU?$AAE?$AAS?$AAT?$AA_?$AAS?$AAY?$AAS?$AAI?$AAN?$AAT?$AAR?$AA?5@ 00013958     oal_intr_common:ioctl.obj
 0001:000029c4       ??_C@_1DK@BMKLIPKJ@?$AA?$CL?$AAO?$AAA?$AAL?$AAI?$AAo?$AAC?$AAt?$AAl?$AAH?$AAa?$AAl?$AAR?$AAe?$AAq?$AAu?$AAe?$AAs?$AAt?$AAS?$AAy?$AAs?$AAI?$AAn?$AAt?$AAr?$AA?$AN?$AA?6?$AA?$AA@ 000139c4     oal_intr_common:ioctl.obj
 0001:00002a00       ??_C@_1GK@LIJAJEGD@?$AAW?$AAA?$AAR?$AAN?$AA?3?$AA?5?$AAI?$AAO?$AAC?$AAT?$AAL?$AA_?$AAH?$AAA?$AAL?$AA_?$AAR?$AAE?$AAL?$AAE?$AAA?$AAS?$AAE?$AA_?$AAS?$AAY?$AAS?$AAI?$AAN?$AAT?$AAR?$AA?5@ 00013a00     oal_intr_common:ioctl.obj
 0001:00002a70       ??_C@_1EM@DFAKLPBP@?$AA?9?$AAO?$AAA?$AAL?$AAI?$AAo?$AAC?$AAt?$AAl?$AAH?$AAa?$AAl?$AAR?$AAe?$AAq?$AAu?$AAe?$AAs?$AAt?$AAS?$AAy?$AAs?$AAI?$AAn?$AAt?$AAr?$AA?$CI?$AAr?$AAc?$AA?5?$AA?$DN?$AA?5@ 00013a70     oal_intr_common:ioctl.obj
 0001:00002ac0       ??_C@_1GC@BACPHDPH@?$AAW?$AAA?$AAR?$AAN?$AA?3?$AA?5?$AAI?$AAO?$AAC?$AAT?$AAL?$AA_?$AAH?$AAA?$AAL?$AA_?$AAR?$AAE?$AAQ?$AAU?$AAE?$AAS?$AAT?$AA_?$AAI?$AAR?$AAQ?$AA?5?$AAi?$AAn?$AAv?$AAa@ 00013ac0     oal_intr_common:ioctl.obj
 0001:00002b24       ??_C@_1DC@DIKJBBIL@?$AA?$CL?$AAO?$AAA?$AAL?$AAI?$AAo?$AAC?$AAt?$AAl?$AAH?$AAa?$AAl?$AAR?$AAe?$AAq?$AAu?$AAe?$AAs?$AAt?$AAI?$AAr?$AAq?$AA?$AN?$AA?6?$AA?$AA@ 00013b24     oal_intr_common:ioctl.obj
 0001:00002be8       ??_C@_1EE@EOJLKFMG@?$AA?$CL?$AAO?$AAA?$AAL?$AAI?$AAo?$AAC?$AAt?$AAl?$AAH?$AAa?$AAl?$AAE?$AAn?$AAa?$AAb?$AAl?$AAe?$AAW?$AAa?$AAk?$AAe?$AA?$CI?$AAr?$AAc?$AA?5?$AA?$DN?$AA?5?$AA?$CF?$AAd?$AA?$CJ?$AA?$AN@ 00013be8     oal_power:ioctl.obj
 0001:00002c2c       ??_C@_1DG@KKNHDHOB@?$AAI?$AAn?$AAv?$AAa?$AAl?$AAi?$AAd?$AA?5?$AAS?$AAY?$AAS?$AAI?$AAN?$AAT?$AAR?$AA?5?$AAv?$AAa?$AAl?$AAu?$AAe?$AA?5?$AA?$CF?$AAd?$AA?$AN?$AA?6?$AA?$AA@ 00013c2c     oal_power:ioctl.obj
 0001:00002c64       ??_C@_1DO@BLFFHCCO@?$AAE?$AAR?$AAR?$AAO?$AAR?$AA?3?$AA?5?$AAO?$AAA?$AAL?$AAI?$AAo?$AAC?$AAt?$AAl?$AAH?$AAa?$AAl?$AAE?$AAn?$AAa?$AAb?$AAl?$AAe?$AAW?$AAa?$AAk?$AAe?$AA?3?$AA?5?$AA?$AA@ 00013c64     oal_power:ioctl.obj
 0001:00002ca8       ??_C@_1EO@OMKOKHHJ@?$AA?$CL?$AAO?$AAA?$AAL?$AAI?$AAo?$AAC?$AAt?$AAl?$AAH?$AAa?$AAl?$AAE?$AAn?$AAa?$AAb?$AAl?$AAe?$AAW?$AAa?$AAk?$AAe?$AA?$CI?$AAs?$AAy?$AAs?$AAI?$AAn?$AAt?$AAr?$AA?5?$AA?$DN@ 00013ca8     oal_power:ioctl.obj
 0001:00002cf8       ??_C@_1EG@KJIPIGDP@?$AA?$CL?$AAO?$AAA?$AAL?$AAI?$AAo?$AAC?$AAt?$AAl?$AAH?$AAa?$AAl?$AAD?$AAi?$AAs?$AAa?$AAb?$AAl?$AAe?$AAW?$AAa?$AAk?$AAe?$AA?$CI?$AAr?$AAc?$AA?5?$AA?$DN?$AA?5?$AA?$CF?$AAd?$AA?$CJ@ 00013cf8     oal_power:ioctl.obj
 0001:00002d40       ??_C@_1EA@ENICBBFD@?$AAE?$AAR?$AAR?$AAO?$AAR?$AA?3?$AA?5?$AAO?$AAA?$AAL?$AAI?$AAo?$AAC?$AAt?$AAl?$AAH?$AAa?$AAl?$AAD?$AAi?$AAs?$AAa?$AAb?$AAl?$AAe?$AAW?$AAa?$AAk?$AAe?$AA?3?$AA?5?$AA?$AA@ 00013d40     oal_power:ioctl.obj
 0001:00002d80       ??_C@_1FA@IFHNBJAE@?$AA?$CL?$AAO?$AAA?$AAL?$AAI?$AAo?$AAC?$AAt?$AAl?$AAH?$AAa?$AAl?$AAD?$AAi?$AAs?$AAa?$AAb?$AAl?$AAe?$AAW?$AAa?$AAk?$AAe?$AA?$CI?$AAs?$AAy?$AAs?$AAI?$AAn?$AAt?$AAr?$AA?5@ 00013d80     oal_power:ioctl.obj
 0001:00002dd0       ??_C@_1GG@MBGEPMGD@?$AA?$CL?$AAO?$AAA?$AAL?$AAI?$AAo?$AAC?$AAt?$AAl?$AAH?$AAa?$AAl?$AAG?$AAe?$AAt?$AAW?$AAa?$AAk?$AAe?$AAS?$AAo?$AAu?$AAr?$AAc?$AAe?$AA?$CI?$AAr?$AAc?$AA?5?$AA?$DN?$AA?5?$AA?$CF@ 00013dd0     oal_power:ioctl.obj
 0001:00002e38       ??_C@_1DI@DFOIFPDM@?$AA?$CL?$AAO?$AAA?$AAL?$AAI?$AAo?$AAC?$AAt?$AAl?$AAH?$AAa?$AAl?$AAG?$AAe?$AAt?$AAW?$AAa?$AAk?$AAe?$AAS?$AAo?$AAu?$AAr?$AAc?$AAe?$AA?$AN?$AA?6?$AA?$AA@ 00013e38     oal_power:ioctl.obj
 0001:00002f00       ??_C@_1FA@KIKMJANO@?$AA?9?$AAO?$AAA?$AAL?$AAI?$AAo?$AAC?$AAt?$AAl?$AAH?$AAa?$AAl?$AAG?$AAe?$AAt?$AAR?$AAe?$AAg?$AAS?$AAe?$AAc?$AAu?$AAr?$AAe?$AAK?$AAe?$AAy?$AAs?$AA?$CI?$AAr?$AAc?$AA?5@ 00013f00     oal_ioctl:securekeys.obj
 0001:00002fe0       ??_C@_1GK@GKDOOKDE@?$AAE?$AAR?$AAR?$AAO?$AAR?$AA?3?$AA?5?$AAO?$AAA?$AAL?$AAI?$AAo?$AAC?$AAt?$AAl?$AAH?$AAa?$AAl?$AAU?$AAp?$AAd?$AAa?$AAt?$AAe?$AAM?$AAo?$AAd?$AAe?$AA?3?$AA?5?$AAI?$AAn@ 00013fe0     oal_ioctl:imgupd.obj
 0001:00003050       ??_C@_1IG@BENIAHFO@?$AAE?$AAR?$AAR?$AAO?$AAR?$AA?3?$AA?5?$AAO?$AAA?$AAL?$AAI?$AAo?$AAC?$AAt?$AAl?$AAH?$AAa?$AAl?$AAU?$AAp?$AAd?$AAa?$AAt?$AAe?$AAM?$AAo?$AAd?$AAe?$AA?3?$AA?5?$AAD?$AAe@ 00014050     oal_ioctl:imgupd.obj
 0001:00003168       ??_C@_1EE@LLJFHFAM@?$AA?9?$AAO?$AAA?$AAL?$AAI?$AAo?$AAC?$AAt?$AAl?$AAP?$AAr?$AAo?$AAc?$AAe?$AAs?$AAs?$AAo?$AAr?$AAI?$AAn?$AAf?$AAo?$AA?$CI?$AAr?$AAc?$AA?5?$AA?$DN?$AA?5?$AA?$CF?$AAd?$AA?$CJ?$AA?$AN@ 00014168     oal_ioctl:procinfo.obj
 0001:000031b0       ??_C@_1GA@EACFLEMI@?$AAW?$AAA?$AAR?$AAN?$AA?3?$AA?5?$AAO?$AAA?$AAL?$AAI?$AAo?$AAC?$AAt?$AAl?$AAP?$AAr?$AAo?$AAc?$AAe?$AAs?$AAs?$AAo?$AAr?$AAI?$AAn?$AAf?$AAo?$AA?3?$AA?5?$AAB?$AAu?$AAf@ 000141b0     oal_ioctl:procinfo.obj
 0001:00003210       ??_C@_1GI@EFCEJCLG@?$AAE?$AAR?$AAR?$AAO?$AAR?$AA?3?$AAO?$AAA?$AAL?$AAI?$AAo?$AAC?$AAt?$AAl?$AAP?$AAr?$AAo?$AAc?$AAe?$AAs?$AAs?$AAo?$AAr?$AAI?$AAn?$AAf?$AAo?$AA?3?$AA?5?$AAV?$AAe?$AAn@ 00014210     oal_ioctl:procinfo.obj
 0001:00003278       ??_C@_1GE@JPAPEENG@?$AAE?$AAR?$AAR?$AAO?$AAR?$AA?3?$AAO?$AAA?$AAL?$AAI?$AAo?$AAC?$AAt?$AAl?$AAP?$AAr?$AAo?$AAc?$AAe?$AAs?$AAs?$AAo?$AAr?$AAI?$AAn?$AAf?$AAo?$AA?3?$AA?5?$AAN?$AAa?$AAm@ 00014278     oal_ioctl:procinfo.obj
 0001:000032e0       ??_C@_1GE@OFFJPJMM@?$AAE?$AAR?$AAR?$AAO?$AAR?$AA?3?$AAO?$AAA?$AAL?$AAI?$AAo?$AAC?$AAt?$AAl?$AAP?$AAr?$AAo?$AAc?$AAe?$AAs?$AAs?$AAo?$AAr?$AAI?$AAn?$AAf?$AAo?$AA?3?$AA?5?$AAC?$AAo?$AAr@ 000142e0     oal_ioctl:procinfo.obj
 0001:00003348       ??_C@_1GK@MJNAOGCM@?$AAW?$AAA?$AAR?$AAN?$AA?3?$AA?5?$AAO?$AAA?$AAL?$AAI?$AAo?$AAC?$AAt?$AAl?$AAP?$AAr?$AAo?$AAc?$AAe?$AAs?$AAs?$AAo?$AAr?$AAI?$AAn?$AAf?$AAo?$AA?3?$AA?5?$AAI?$AAn?$AAv@ 00014348     oal_ioctl:procinfo.obj
 0001:000033b4       ??_C@_1DM@NEACNOML@?$AA?$CL?$AAO?$AAA?$AAL?$AAI?$AAo?$AAC?$AAt?$AAl?$AAP?$AAr?$AAo?$AAc?$AAe?$AAs?$AAs?$AAo?$AAr?$AAI?$AAn?$AAf?$AAo?$AA?$CI?$AA?4?$AA?4?$AA?4?$AA?$CJ?$AA?$AN?$AA?6?$AA?$AA@ 000143b4     oal_ioctl:procinfo.obj
 0001:00003490       ??_C@_1FK@JJDHOCFD@?$AAW?$AAA?$AAR?$AAN?$AA?3?$AA?5?$AAO?$AAA?$AAL?$AAI?$AAo?$AAC?$AAt?$AAl?$AAH?$AAa?$AAl?$AAG?$AAe?$AAt?$AAU?$AAU?$AAI?$AAD?$AA?3?$AA?5?$AAB?$AAu?$AAf?$AAf?$AAe?$AAr@ 00014490     oal_ioctl:uuid.obj
 0001:000034f0       ??_C@_1NA@DANHDCDJ@?$AAW?$AAa?$AAr?$AAn?$AAi?$AAn?$AAg?$AA?3?$AA?5?$AAI?$AAO?$AAC?$AAT?$AAL?$AA_?$AAH?$AAA?$AAL?$AA_?$AAG?$AAE?$AAT?$AA_?$AAU?$AAU?$AAI?$AAD?$AA?5?$AAi?$AAs?$AA?5?$AAu@ 000144f0     oal_ioctl:uuid.obj
 0001:000035c0       ??_C@_1HC@GCDGDEMK@?$AAE?$AAR?$AAR?$AAO?$AAR?$AA?3?$AA?5?$AAO?$AAA?$AAL?$AAI?$AAo?$AAC?$AAt?$AAl?$AAH?$AAa?$AAl?$AAG?$AAe?$AAt?$AAU?$AAU?$AAI?$AAD?$AA?3?$AA?5?$AAD?$AAe?$AAv?$AAi?$AAc@ 000145c0     oal_ioctl:uuid.obj
 0001:00003638       ??_C@_1GE@PBBGNNAO@?$AAW?$AAA?$AAR?$AAN?$AA?3?$AA?5?$AAO?$AAA?$AAL?$AAI?$AAo?$AAC?$AAt?$AAl?$AAH?$AAa?$AAl?$AAG?$AAe?$AAt?$AAU?$AAU?$AAI?$AAD?$AA?3?$AA?5?$AAI?$AAn?$AAv?$AAa?$AAl?$AAi@ 00014638     oal_ioctl:uuid.obj
 0001:000036a0       ??_C@_1OE@KFAEFCPB@?$AAW?$AAa?$AAr?$AAn?$AAi?$AAn?$AAg?$AA?3?$AA?5?$AAy?$AAo?$AAu?$AA?5?$AAa?$AAr?$AAe?$AA?5?$AAc?$AAa?$AAl?$AAl?$AAi?$AAn?$AAg?$AA?5?$AAI?$AAO?$AAC?$AAT?$AAL?$AA_?$AAH@ 000146a0     oal_ioctl:uuid.obj
 0001:00003818       ??_C@_1EG@HKOJPLNE@?$AA?9?$AAO?$AAA?$AAL?$AAI?$AAo?$AAC?$AAt?$AAl?$AAH?$AAa?$AAl?$AAG?$AAe?$AAt?$AAD?$AAe?$AAv?$AAi?$AAc?$AAe?$AAI?$AAD?$AA?$CI?$AAr?$AAc?$AA?5?$AA?$DN?$AA?5?$AA?$CF?$AAd?$AA?$CJ@ 00014818     oal_ioctl:deviceid.obj
 0001:00003860       ??_C@_1GE@GPJLHAFO@?$AAW?$AAA?$AAR?$AAN?$AA?3?$AA?5?$AAO?$AAA?$AAL?$AAI?$AAo?$AAC?$AAt?$AAl?$AAH?$AAa?$AAl?$AAG?$AAe?$AAt?$AAD?$AAe?$AAv?$AAi?$AAc?$AAe?$AAI?$AAD?$AA?3?$AA?5?$AAI?$AAn@ 00014860     oal_ioctl:deviceid.obj
 0001:000038c8       ??_C@_1LK@FOLPDAJB@?$AAW?$AAA?$AAR?$AAN?$AA?3?$AA?5?$AAO?$AAA?$AAL?$AAI?$AAo?$AAC?$AAt?$AAl?$AAH?$AAa?$AAl?$AAG?$AAe?$AAt?$AAD?$AAe?$AAv?$AAi?$AAc?$AAe?$AAI?$AAD?$AA?3?$AA?5?$AAC?$AAa@ 000148c8     oal_ioctl:deviceid.obj
 0001:00003988       ??_C@_1LO@DFJMJCEI@?$AAW?$AAA?$AAR?$AAN?$AA?3?$AA?5?$AAO?$AAA?$AAL?$AAI?$AAo?$AAC?$AAt?$AAl?$AAH?$AAa?$AAl?$AAG?$AAe?$AAt?$AAD?$AAe?$AAv?$AAi?$AAc?$AAe?$AAI?$AAD?$AA?3?$AA?5?$AAC?$AAa@ 00014988     oal_ioctl:deviceid.obj
 0001:00003a48       ??_C@_1PC@IHJIIKFF@?$AAW?$AAa?$AAr?$AAn?$AAi?$AAn?$AAg?$AA?3?$AA?5?$AAy?$AAo?$AAu?$AA?5?$AAa?$AAr?$AAe?$AA?5?$AAr?$AAe?$AAq?$AAu?$AAe?$AAs?$AAt?$AAi?$AAn?$AAg?$AA?5?$AAI?$AAO?$AAC?$AAT@ 00014a48     oal_ioctl:deviceid.obj
 0001:00003b3c       ??_C@_1DO@MLDPBFAO@?$AA?$CL?$AAO?$AAA?$AAL?$AAI?$AAo?$AAc?$AAt?$AAl?$AAH?$AAa?$AAl?$AAG?$AAe?$AAt?$AAD?$AAe?$AAv?$AAi?$AAc?$AAe?$AAI?$AAD?$AA?$CI?$AA?4?$AA?4?$AA?4?$AA?$CJ?$AA?$AN?$AA?6?$AA?$AA@ 00014b3c     oal_ioctl:deviceid.obj
 0001:00003b94       ??_C@_1CI@DNLIPKLH@?$AAS?$AAP?$AAI?$AA_?$AAG?$AAE?$AAT?$AAP?$AAL?$AAA?$AAT?$AAF?$AAO?$AAR?$AAM?$AAT?$AAY?$AAP?$AAE?$AA?$AA@ 00014b94     oal_ioctl:deviceinfo.obj
 0001:00003bc0       ??_C@_1BEM@IMHNFGHE@?$AAW?$AAa?$AAr?$AAn?$AAi?$AAn?$AAg?$AA?3?$AA?5?$AAy?$AAo?$AAu?$AA?5?$AAa?$AAr?$AAe?$AA?5?$AAr?$AAe?$AAq?$AAu?$AAe?$AAs?$AAt?$AAi?$AAn?$AAg?$AA?5?$AAI?$AAO?$AAC?$AAT@ 00014bc0     oal_ioctl:deviceinfo.obj
 0001:00003d10       ??_C@_1GO@GEFDPJAG@?$AAW?$AAA?$AAR?$AAN?$AA?3?$AA?5?$AAO?$AAA?$AAL?$AAI?$AAo?$AAC?$AAt?$AAl?$AAH?$AAa?$AAl?$AAG?$AAe?$AAt?$AAD?$AAe?$AAv?$AAi?$AAc?$AAe?$AAi?$AAn?$AAf?$AAo?$AA?3?$AA?3@ 00014d10     oal_ioctl:deviceinfo.obj
 0001:00003d80       ??_C@_1NG@HBFOMIME@?$AAE?$AAR?$AAR?$AAO?$AAR?$AA?3?$AA?5?$AAO?$AAA?$AAL?$AAI?$AAo?$AAC?$AAt?$AAl?$AAH?$AAa?$AAl?$AAG?$AAe?$AAt?$AAD?$AAe?$AAv?$AAi?$AAc?$AAe?$AAi?$AAn?$AAf?$AAo?$AA?3@ 00014d80     oal_ioctl:deviceinfo.obj
 0001:00003e58       ??_C@_1LA@BNOICHNN@?$AAE?$AAR?$AAR?$AAO?$AAR?$AA?3?$AA?5?$AAO?$AAA?$AAL?$AAI?$AAo?$AAC?$AAt?$AAl?$AAH?$AAa?$AAl?$AAG?$AAe?$AAt?$AAD?$AAe?$AAv?$AAi?$AAc?$AAe?$AAI?$AAn?$AAf?$AAo?$AA?3@ 00014e58     oal_ioctl:deviceinfo.obj
 0001:00003f08       ??_C@_1BO@MIPEKPNN@?$AAS?$AAP?$AAI?$AA_?$AAG?$AAE?$AAT?$AAO?$AAE?$AAM?$AAI?$AAN?$AAF?$AAO?$AA?$AA@ 00014f08     oal_ioctl:deviceinfo.obj
 0001:00003f28       ??_C@_1CO@EPEFNCOE@?$AAS?$AAP?$AAI?$AA_?$AAG?$AAE?$AAT?$AAP?$AAL?$AAA?$AAT?$AAF?$AAO?$AAR?$AAM?$AAV?$AAE?$AAR?$AAS?$AAI?$AAO?$AAN?$AA?$AA@ 00014f28     oal_ioctl:deviceinfo.obj
 0001:00003f58       ??_C@_1CG@NCDPNLLL@?$AAS?$AAP?$AAI?$AA_?$AAG?$AAE?$AAT?$AAP?$AAR?$AAO?$AAJ?$AAE?$AAC?$AAT?$AAN?$AAA?$AAM?$AAE?$AA?$AA@ 00014f58     oal_ioctl:deviceinfo.obj
 0001:00003f80       ??_C@_1CI@BNCCNAEN@?$AAS?$AAP?$AAI?$AA_?$AAG?$AAE?$AAT?$AAP?$AAL?$AAA?$AAT?$AAF?$AAO?$AAR?$AAM?$AAN?$AAA?$AAM?$AAE?$AA?$AA@ 00014f80     oal_ioctl:deviceinfo.obj
 0001:00003fa8       ??_C@_1CE@JLAPMINP@?$AAS?$AAP?$AAI?$AA_?$AAG?$AAE?$AAT?$AAB?$AAO?$AAO?$AAT?$AAM?$AAE?$AAN?$AAA?$AAM?$AAE?$AA?$AA@ 00014fa8     oal_ioctl:deviceinfo.obj
 0001:00003fcc       ??_C@_1BI@MGABGHAL@?$AAS?$AAP?$AAI?$AA_?$AAG?$AAE?$AAT?$AAU?$AAU?$AAI?$AAD?$AA?$AA@ 00014fcc     oal_ioctl:deviceinfo.obj
 0001:00003ff4       ??_C@_1CG@IIMMCNFM@?$AAS?$AAP?$AAI?$AA_?$AAG?$AAE?$AAT?$AAG?$AAU?$AAI?$AAD?$AAP?$AAA?$AAT?$AAT?$AAE?$AAR?$AAN?$AA?$AA@ 00014ff4     oal_ioctl:deviceinfo.obj
 0001:00004020       ??_C@_1FO@DMDJMEMA@?$AA?9?$AAO?$AAA?$AAL?$AAI?$AAo?$AAC?$AAt?$AAl?$AAH?$AAa?$AAl?$AAG?$AAe?$AAt?$AAD?$AAe?$AAv?$AAi?$AAc?$AAe?$AAI?$AAn?$AAf?$AAo?$AA?$CI?$AAS?$AAP?$AAI?$AA?5?$AA?$DN?$AA?5@ 00015020     oal_ioctl:deviceinfo.obj
 0001:00004080       ??_C@_1GK@FDHCLEBC@?$AAE?$AAR?$AAR?$AAO?$AAR?$AA?3?$AA?5?$AAO?$AAA?$AAL?$AAI?$AAo?$AAC?$AAt?$AAl?$AAH?$AAa?$AAl?$AAG?$AAe?$AAt?$AAD?$AAe?$AAv?$AAi?$AAc?$AAe?$AAI?$AAn?$AAf?$AAo?$AA?3@ 00015080     oal_ioctl:deviceinfo.obj
 0001:000040f0       ??_C@_1GG@BAANNGGI@?$AAE?$AAR?$AAR?$AAO?$AAR?$AA?3?$AA?5?$AAO?$AAA?$AAL?$AAI?$AAo?$AAC?$AAt?$AAl?$AAH?$AAa?$AAl?$AAG?$AAe?$AAt?$AAD?$AAe?$AAv?$AAi?$AAc?$AAe?$AAI?$AAn?$AAf?$AAo?$AA?3@ 000150f0     oal_ioctl:deviceinfo.obj
 0001:00004158       ??_C@_1EC@NLAFOPGI@?$AA?$CL?$AAO?$AAA?$AAL?$AAI?$AAo?$AAC?$AAt?$AAl?$AAH?$AAa?$AAl?$AAG?$AAe?$AAt?$AAD?$AAe?$AAv?$AAi?$AAc?$AAe?$AAI?$AAn?$AAf?$AAo?$AA?$CI?$AA?4?$AA?4?$AA?4?$AA?$CJ?$AA?$AN?$AA?6@ 00015158     oal_ioctl:deviceinfo.obj
 0001:0000419c       ??_C@_11LOCGONAA@?$AA?$AA@ 0001519c     oal_ioctl:deviceinfo.obj
 0001:00004230       ??_C@_1DC@EGGJEANK@?$AA?9?$AAO?$AAE?$AAM?$AAI?$AAo?$AAC?$AAo?$AAn?$AAt?$AAr?$AAo?$AAl?$AA?$CI?$AAr?$AAc?$AA?5?$AA?$DN?$AA?5?$AA?$CF?$AAd?$AA?$CJ?$AA?$AN?$AA?6?$AA?$AA@ 00015230     oal_ioctl:ioctl.obj
 0001:00004268       ??_C@_1HM@LHHDIECD@?$AAO?$AAE?$AAM?$AAI?$AAo?$AAC?$AAo?$AAn?$AAt?$AAr?$AAo?$AAl?$AA?3?$AA?5?$AAU?$AAn?$AAs?$AAu?$AAp?$AAp?$AAo?$AAr?$AAt?$AAe?$AAd?$AA?5?$AAC?$AAo?$AAd?$AAe?$AA?5?$AA0@ 00015268     oal_ioctl:ioctl.obj
 0001:000042e8       ??_C@_1GA@KJDOLNLD@?$AA?$CL?$AAO?$AAE?$AAM?$AAI?$AAo?$AAC?$AAo?$AAn?$AAt?$AAr?$AAo?$AAl?$AA?$CI?$AA0?$AAx?$AA?$CF?$AAx?$AA?0?$AA?5?$AA0?$AAx?$AA?$CF?$AAx?$AA?0?$AA?5?$AA?$CF?$AAd?$AA?0?$AA?5?$AA0?$AAx@ 000152e8     oal_ioctl:ioctl.obj
 0001:00004348       ??_C@_1DE@DAHNLBLJ@?$AA?9?$AAO?$AAA?$AAL?$AAP?$AAA?$AAt?$AAo?$AAV?$AAA?$AA?$CI?$AAv?$AAa?$AA?5?$AA?$DN?$AA?5?$AA0?$AAx?$AA?$CF?$AA0?$AA8?$AAx?$AA?$CJ?$AA?$AN?$AA?6?$AA?$AA@ 00015348     oal_memory_arm:memory.obj
 0001:0000437c       ??_C@_1CO@JEIJEAKF@?$AA?$CL?$AAO?$AAA?$AAL?$AAP?$AAA?$AAt?$AAo?$AAV?$AAA?$AA?$CI?$AA0?$AAx?$AA?$CF?$AAx?$AA?0?$AA?5?$AA?$CF?$AAd?$AA?$CJ?$AA?$AN?$AA?6?$AA?$AA@ 0001537c     oal_memory_arm:memory.obj
 0001:000043ac       ??_C@_1DA@BBOHBBNH@?$AA?9?$AAO?$AAA?$AAL?$AAV?$AAA?$AAt?$AAo?$AAP?$AAA?$AA?$CI?$AAp?$AAa?$AA?5?$AA?$DN?$AA?5?$AA0?$AAx?$AA?$CF?$AAx?$AA?$CJ?$AA?$AN?$AA?6?$AA?$AA@ 000153ac     oal_memory_arm:memory.obj
 0001:000043dc       ??_C@_1CK@LKNIEAFP@?$AA?$CL?$AAO?$AAA?$AAL?$AAV?$AAA?$AAt?$AAo?$AAP?$AAA?$AA?$CI?$AA0?$AAx?$AA?$CF?$AA0?$AA8?$AAx?$AA?$CJ?$AA?$AN?$AA?6?$AA?$AA@ 000153dc     oal_memory_arm:memory.obj
 0001:00004408       pTOC                       00015408     nkldr:ldrcmn.obj
 0001:0000440c       RomExt                     0001540c     nkldr:ldrcmn.obj
 0001:00004438       ??_C@_0L@CPPPICDM@kernel?4dll?$AA@ 00015438     nkldr:ldrcmn.obj
 0001:000044d8       ??_C@_1EA@CJMKJJJH@?$AAO?$AAA?$AAL?$AAL?$AAo?$AAc?$AAa?$AAl?$AAA?$AAl?$AAl?$AAo?$AAc?$AA?5?$AAr?$AAe?$AAt?$AAu?$AAr?$AAn?$AAe?$AAd?$AA?5?$AAN?$AAU?$AAL?$AAL?$AA?5?$AA?$CB?$AA?$AN?$AA?6?$AA?$AA@ 000154d8     common_ti_oal_alloc:alloc.obj
 0001:000045a8       ??_C@_1EA@BFGMCCBB@?$AA?$AN?$AA?6?$AA?5?$AAO?$AAA?$AAL?$AAT?$AAi?$AAm?$AAe?$AAr?$AAG?$AAe?$AAt?$AAR?$AAe?$AAg?$AA?3?$AA?5?$AAw?$AAa?$AAi?$AAt?$AA?5?$AAt?$AAi?$AAm?$AAe?$AAo?$AAu?$AAt?$AA?$AA@ 000155a8     common_ti_gpt_systimer:timer.obj
 0001:000045e8       ??_C@_1EA@OPCPFCAE@?$AA?$AN?$AA?6?$AA?5?$AAO?$AAA?$AAL?$AAT?$AAi?$AAm?$AAe?$AAr?$AAS?$AAe?$AAt?$AAR?$AAe?$AAg?$AA?3?$AA?5?$AAw?$AAa?$AAi?$AAt?$AA?5?$AAt?$AAi?$AAm?$AAe?$AAo?$AAu?$AAt?$AA?$AA@ 000155e8     common_ti_gpt_systimer:timer.obj
 0001:00004628       ??_C@_1DC@BNLGCJKD@?$AA?9?$AAO?$AAA?$AAL?$AAT?$AAi?$AAm?$AAe?$AAr?$AAI?$AAn?$AAi?$AAt?$AA?$CI?$AAr?$AAc?$AA?5?$AA?$DN?$AA?5?$AA?$CF?$AAd?$AA?$CJ?$AA?$AN?$AA?6?$AA?$AA@ 00015628     common_ti_gpt_systimer:timer.obj
 0001:00004660       ??_C@_1HM@CJGLDOPJ@?$AAE?$AAR?$AAR?$AAO?$AAR?$AA?3?$AA?5?$AAO?$AAA?$AAL?$AAT?$AAi?$AAm?$AAe?$AAr?$AAI?$AAn?$AAi?$AAt?$AA?3?$AA?5?$AAI?$AAn?$AAt?$AAe?$AAr?$AAr?$AAu?$AAp?$AAt?$AA?5?$AAe@ 00015660     common_ti_gpt_systimer:timer.obj
 0001:000046dc       ??_C@_1DI@BBHLNDEO@?$AA?$CL?$AAO?$AAA?$AAL?$AAT?$AAi?$AAm?$AAe?$AAr?$AAI?$AAn?$AAi?$AAt?$AA?$CI?$AA?$CF?$AAd?$AA?0?$AA?5?$AA?$CF?$AAd?$AA?0?$AA?5?$AA?$CF?$AAd?$AA?$CJ?$AA?$AN?$AA?6?$AA?$AA@ 000156dc     common_ti_gpt_systimer:timer.obj
 0001:000047a8       ??_C@_1DC@FFGFMCFN@?$AA?$CK?$AA?$CK?$AA?$CK?$AA?$CK?$AAP?$AAr?$AAo?$AAf?$AAi?$AAl?$AAe?$AAr?$AA?5?$AAB?$AAu?$AAi?$AAl?$AAd?$AA?$CK?$AA?$CK?$AA?$CK?$AA?$CK?$AA?$AN?$AA?6?$AA?$AA@ 000157a8     common_ti_gpt_profiler:profiler.obj
 0001:000047e0       ??_C@_1FI@JOODGIBI@?$AA?9?$AA?9?$AA?9?$AAH?$AAi?$AAg?$AAh?$AA?5?$AAP?$AAe?$AAr?$AAf?$AAo?$AAr?$AAm?$AAa?$AAn?$AAc?$AAe?$AA?5?$AAF?$AAr?$AAe?$AAq?$AAu?$AAe?$AAn?$AAc?$AAy?$AA?5?$AAi?$AAs@ 000157e0     common_ti_gpt_profiler:profiler.obj
 0001:000049e8       ??_C@_1DO@NDIEKHNP@?$AA?9?$AAO?$AAA?$AAL?$AAI?$AAn?$AAt?$AAr?$AAR?$AAe?$AAq?$AAu?$AAe?$AAs?$AAt?$AAI?$AAr?$AAq?$AAs?$AA?$CI?$AAr?$AAc?$AA?5?$AA?$DN?$AA?5?$AA?$CF?$AAd?$AA?$CJ?$AA?$AN?$AA?6?$AA?$AA@ 000159e8     common_ti_intr:intr.obj
 0001:00004a28       ??_C@_1HO@EBPJKEJJ@?$AA?$CL?$AAO?$AAA?$AAL?$AAI?$AAn?$AAt?$AAr?$AAR?$AAe?$AAq?$AAu?$AAe?$AAs?$AAt?$AAI?$AAr?$AAq?$AAs?$AA?$CI?$AA0?$AAx?$AA?$CF?$AA0?$AA8?$AAx?$AA?9?$AA?$DO?$AA?$CF?$AAd?$AA?1?$AA?$CF@ 00015a28     common_ti_intr:intr.obj
 0001:00004aa8       ??_C@_1DM@INNHDHDJ@?$AA?9?$AAO?$AAA?$AAL?$AAI?$AAn?$AAt?$AAr?$AAE?$AAn?$AAa?$AAb?$AAl?$AAe?$AAI?$AAr?$AAq?$AAs?$AA?$CI?$AAr?$AAc?$AA?5?$AA?$DN?$AA?5?$AA?$CF?$AAd?$AA?$CJ?$AA?$AN?$AA?6?$AA?$AA@ 00015aa8     common_ti_intr:intr.obj
 0001:00004ae8       ??_C@_1EA@MEDKAPAI@?$AA?$CL?$AAO?$AAA?$AAL?$AAn?$AAt?$AAr?$AAE?$AAn?$AAa?$AAb?$AAl?$AAe?$AAI?$AAr?$AAq?$AAs?$AA?$CI?$AA?$CF?$AAd?$AA?0?$AA?5?$AA0?$AAx?$AA?$CF?$AA0?$AA8?$AAx?$AA?$CJ?$AA?$AN?$AA?6?$AA?$AA@ 00015ae8     common_ti_intr:intr.obj
 0001:00004b28       ??_C@_1CM@GPENGBBP@?$AA?9?$AAO?$AAA?$AAL?$AAI?$AAn?$AAt?$AAr?$AAD?$AAi?$AAs?$AAa?$AAb?$AAl?$AAe?$AAI?$AAr?$AAq?$AAs?$AA?$AN?$AA?6?$AA?$AA@ 00015b28     common_ti_intr:intr.obj
 0001:00004b58       ??_C@_1EE@NIPMEMC@?$AA?$CL?$AAO?$AAA?$AAL?$AAI?$AAn?$AAt?$AAr?$AAD?$AAi?$AAs?$AAa?$AAb?$AAl?$AAe?$AAI?$AAr?$AAq?$AAs?$AA?$CI?$AA?$CF?$AAd?$AA?0?$AA?5?$AA0?$AAx?$AA?$CF?$AA0?$AA8?$AAx?$AA?$CJ?$AA?$AN@ 00015b58     common_ti_intr:intr.obj
 0001:00004b9c       ??_C@_1CG@LBOJEJPE@?$AA?9?$AAO?$AAA?$AAL?$AAI?$AAn?$AAt?$AAr?$AAD?$AAo?$AAn?$AAe?$AAI?$AAr?$AAq?$AAs?$AA?$AN?$AA?6?$AA?$AA@ 00015b9c     common_ti_intr:intr.obj
 0001:00004bc4       ??_C@_1DO@FCJPHKGC@?$AA?$CL?$AAO?$AAA?$AAL?$AAI?$AAn?$AAt?$AAr?$AAD?$AAo?$AAn?$AAe?$AAI?$AAr?$AAq?$AAs?$AA?$CI?$AA?$CF?$AAd?$AA?0?$AA?5?$AA0?$AAx?$AA?$CF?$AA0?$AA8?$AAx?$AA?$CJ?$AA?$AN?$AA?6?$AA?$AA@ 00015bc4     common_ti_intr:intr.obj
 0001:00004c04       ??_C@_1DM@NLILHIEP@?$AAO?$AAE?$AAM?$AAI?$AAn?$AAt?$AAe?$AAr?$AAr?$AAu?$AAp?$AAt?$AAH?$AAa?$AAn?$AAd?$AAl?$AAe?$AAr?$AA?$CI?$AAI?$AAr?$AAq?$AA?5?$AA?$CF?$AAd?$AA?$CJ?$AA?$AN?$AA?6?$AA?$AA@ 00015c04     common_ti_intr:intr.obj
 0001:00004c40       ??_C@_1DK@JEFKKIKI@?$AA?9?$AAO?$AAA?$AAL?$AAI?$AAn?$AAt?$AAe?$AAr?$AAr?$AAu?$AAp?$AAt?$AAI?$AAn?$AAi?$AAt?$AA?$CI?$AAr?$AAc?$AA?5?$AA?$DN?$AA?5?$AA?$CF?$AAd?$AA?$CJ?$AA?$AN?$AA?6?$AA?$AA@ 00015c40     common_ti_intr:intr.obj
 0001:00004c80       ??_C@_1KE@IBNEHINB@?$AAC?$AA?3?$AA?2?$AAW?$AAI?$AAN?$AAC?$AAE?$AA6?$AA0?$AA0?$AA?2?$AAP?$AAL?$AAA?$AAT?$AAF?$AAO?$AAR?$AAM?$AA?2?$AAC?$AAO?$AAM?$AAM?$AAO?$AAN?$AA?2?$AAS?$AAR?$AAC?$AA?2@ 00015c80     common_ti_intr:intr.obj
 0001:00004d24       ??_C@_1CI@OHCJFJPM@?$AAE?$AAR?$AAR?$AAO?$AAR?$AA?3?$AA?5?$AA?$CF?$AAs?$AA?5?$AAl?$AAi?$AAn?$AAe?$AA?5?$AA?$CF?$AAd?$AA?3?$AA?5?$AA?$AA@ 00015d24     common_ti_intr:intr.obj
 0001:00004d50       ??_C@_1GE@GDDCDNKG@?$AAu?$AAn?$AAa?$AAb?$AAl?$AAe?$AA?5?$AAt?$AAo?$AA?5?$AAa?$AAl?$AAl?$AAo?$AAc?$AAa?$AAt?$AAe?$AA?5?$AAi?$AAn?$AAt?$AAe?$AAr?$AAr?$AAu?$AAp?$AAt?$AA?5?$AAf?$AAo?$AAr@ 00015d50     common_ti_intr:intr.obj
 0001:00004db4       ??_C@_1CI@LJHDCJDG@?$AA?$CL?$AAO?$AAA?$AAL?$AAI?$AAn?$AAt?$AAe?$AAr?$AAr?$AAu?$AAp?$AAt?$AAI?$AAn?$AAi?$AAt?$AA?$AN?$AA?6?$AA?$AA@ 00015db4     common_ti_intr:intr.obj
 0001:00004e70       ??_C@_1CO@DBMFJBPK@?$AA?9?$AAO?$AAE?$AAM?$AAI?$AAn?$AAt?$AAe?$AAr?$AAr?$AAu?$AAp?$AAt?$AAM?$AAa?$AAp?$AAI?$AAn?$AAi?$AAt?$AA?$AN?$AA?6?$AA?$AA@ 00015e70     common_ti_intr:map.obj
 0001:00004ea0       ??_C@_1CO@OKABMONB@?$AA?$CL?$AAO?$AAE?$AAM?$AAI?$AAn?$AAt?$AAe?$AAr?$AAr?$AAu?$AAp?$AAt?$AAM?$AAa?$AAp?$AAI?$AAn?$AAi?$AAt?$AA?$AN?$AA?6?$AA?$AA@ 00015ea0     common_ti_intr:map.obj
 0001:00004ed0       ??_C@_1DE@CBLJKBBB@?$AA?9?$AAO?$AAA?$AAL?$AAI?$AAn?$AAt?$AAr?$AAS?$AAt?$AAa?$AAt?$AAi?$AAc?$AAT?$AAr?$AAa?$AAn?$AAs?$AAl?$AAa?$AAt?$AAe?$AA?$AN?$AA?6?$AA?$AA@ 00015ed0     common_ti_intr:map.obj
 0001:00004f08       ??_C@_1EE@DPKCCBO@?$AA?$CL?$AAO?$AAA?$AAL?$AAI?$AAn?$AAt?$AAr?$AAS?$AAt?$AAa?$AAt?$AAi?$AAc?$AAT?$AAr?$AAa?$AAn?$AAs?$AAl?$AAa?$AAt?$AAe?$AA?$CI?$AA?$CF?$AAd?$AA?0?$AA?5?$AA?$CF?$AAd?$AA?$CJ?$AA?$AN@ 00015f08     common_ti_intr:map.obj
 0001:00004f50       ??_C@_1EA@JDMBMDEN@?$AA?9?$AAO?$AAA?$AAL?$AAT?$AAr?$AAa?$AAn?$AAs?$AAl?$AAa?$AAt?$AAe?$AAS?$AAy?$AAs?$AAI?$AAn?$AAt?$AAr?$AA?$CI?$AAr?$AAc?$AA?5?$AA?$DN?$AA?5?$AA?$CF?$AAd?$AA?$CJ?$AA?$AN?$AA?6?$AA?$AA@ 00015f50     common_ti_intr:map.obj
 0001:00004f90       ??_C@_1DG@HAMHNOBJ@?$AA?$CL?$AAO?$AAA?$AAL?$AAT?$AAr?$AAa?$AAn?$AAs?$AAl?$AAa?$AAt?$AAe?$AAS?$AAy?$AAs?$AAI?$AAn?$AAt?$AAr?$AA?$CI?$AA?$CF?$AAd?$AA?$CJ?$AA?$AN?$AA?6?$AA?$AA@ 00015f90     common_ti_intr:map.obj
 0001:00004fc8       ??_C@_1EK@JOJPHPGP@?$AA?9?$AAO?$AAA?$AAL?$AAI?$AAn?$AAt?$AAr?$AAT?$AAr?$AAa?$AAn?$AAs?$AAl?$AAa?$AAt?$AAe?$AAI?$AAr?$AAq?$AA?$CI?$AAs?$AAy?$AAs?$AAI?$AAn?$AAt?$AAr?$AA?5?$AA?$DN?$AA?5?$AA?$CF@ 00015fc8     common_ti_intr:map.obj
 0001:00005014       ??_C@_1DG@IAFKCJEB@?$AA?$CL?$AAO?$AAA?$AAL?$AAI?$AAn?$AAt?$AAr?$AAT?$AAr?$AAa?$AAn?$AAs?$AAl?$AAa?$AAt?$AAe?$AAI?$AAr?$AAq?$AA?$CI?$AA?$CF?$AAd?$AA?$CJ?$AA?$AN?$AA?6?$AA?$AA@ 00016014     common_ti_intr:map.obj
 0001:00005050       ??_C@_1EO@CCPDBEFN@?$AA?9?$AAO?$AAA?$AAL?$AAI?$AAn?$AAt?$AAr?$AAR?$AAe?$AAq?$AAu?$AAe?$AAs?$AAt?$AAS?$AAy?$AAs?$AAI?$AAn?$AAt?$AAr?$AA?$CI?$AAs?$AAy?$AAs?$AAI?$AAn?$AAt?$AAr?$AA?5?$AA?$DN@ 00016050     common_ti_intr:map.obj
 0001:000050a0       ??_C@_1HG@GANLJKGD@?$AAE?$AAR?$AAR?$AAO?$AAR?$AA?3?$AA?5?$AAO?$AAA?$AAL?$AAI?$AAn?$AAt?$AAr?$AAR?$AAe?$AAq?$AAu?$AAe?$AAs?$AAt?$AAS?$AAy?$AAs?$AAI?$AAn?$AAt?$AAr?$AA?3?$AA?5?$AAN?$AAo@ 000160a0     common_ti_intr:map.obj
 0001:00005118       ??_C@_1JG@CKDDKDGB@?$AAE?$AAR?$AAR?$AAO?$AAR?$AA?3?$AA?5?$AAO?$AAA?$AAL?$AAI?$AAn?$AAt?$AAr?$AAR?$AAe?$AAq?$AAu?$AAe?$AAs?$AAt?$AAS?$AAy?$AAs?$AAI?$AAn?$AAt?$AAr?$AA?3?$AA?5?$AAS?$AAt@ 00016118     common_ti_intr:map.obj
 0001:000051b0       ??_C@_1GI@NODFOAGP@?$AAE?$AAR?$AAR?$AAO?$AAR?$AA?3?$AA?5?$AAO?$AAA?$AAL?$AAI?$AAn?$AAt?$AAr?$AAR?$AAe?$AAq?$AAu?$AAe?$AAs?$AAt?$AAS?$AAy?$AAs?$AAI?$AAn?$AAt?$AAr?$AA?3?$AA?5?$AAI?$AAR@ 000161b0     common_ti_intr:map.obj
 0001:00005218       ??_C@_1IM@ENJFJBNJ@?$AAE?$AAR?$AAR?$AAO?$AAR?$AA?3?$AA?5?$AAO?$AAA?$AAL?$AAI?$AAn?$AAt?$AAr?$AAR?$AAe?$AAq?$AAu?$AAe?$AAs?$AAt?$AAS?$AAy?$AAs?$AAI?$AAn?$AAt?$AAr?$AA?3?$AA?5?$AAO?$AAn@ 00016218     common_ti_intr:map.obj
 0001:000052a8       ??_C@_1FK@JNHCPMAP@?$AA?$CL?$AAO?$AAA?$AAL?$AAI?$AAn?$AAt?$AAr?$AAR?$AAe?$AAq?$AAu?$AAe?$AAs?$AAt?$AAS?$AAy?$AAs?$AAI?$AAn?$AAt?$AAr?$AA?$CI?$AA?$CF?$AAd?$AA?0?$AA?5?$AA0?$AAx?$AA?$CF?$AA0?$AA8@ 000162a8     common_ti_intr:map.obj
 0001:00005308       ??_C@_1EE@GBADJBKJ@?$AA?9?$AAO?$AAA?$AAL?$AAI?$AAn?$AAt?$AAr?$AAR?$AAe?$AAl?$AAe?$AAa?$AAs?$AAe?$AAS?$AAy?$AAs?$AAI?$AAn?$AAt?$AAr?$AA?$CI?$AAr?$AAc?$AA?5?$AA?$DN?$AA?5?$AA?$CF?$AAd?$AA?$CJ?$AA?$AN@ 00016308     common_ti_intr:map.obj
 0001:00005350       ??_C@_1HC@BIEMDHNG@?$AAE?$AAR?$AAR?$AAO?$AAR?$AA?3?$AA?5?$AAO?$AAA?$AAL?$AAI?$AAn?$AAt?$AAr?$AAR?$AAe?$AAl?$AAe?$AAa?$AAs?$AAe?$AAS?$AAy?$AAs?$AAI?$AAn?$AAt?$AAr?$AA?3?$AA?5?$AAI?$AAn@ 00016350     common_ti_intr:map.obj
 0001:000053c4       ??_C@_1DK@GDEEGDPM@?$AA?$CL?$AAO?$AAA?$AAL?$AAI?$AAn?$AAt?$AAr?$AAR?$AAe?$AAl?$AAe?$AAa?$AAs?$AAe?$AAS?$AAy?$AAs?$AAI?$AAn?$AAt?$AAr?$AA?$CI?$AA?$CF?$AAd?$AA?$CJ?$AA?$AN?$AA?6?$AA?$AA@ 000163c4     common_ti_intr:map.obj
 0001:00005490       ??_C@_1DM@KHBFOEPK@?$AA?9?$AAO?$AAE?$AAM?$AAI?$AAn?$AAt?$AAe?$AAr?$AAr?$AAu?$AAp?$AAt?$AAE?$AAn?$AAa?$AAb?$AAl?$AAe?$AA?$CI?$AAr?$AAc?$AA?5?$AA?$DN?$AA?5?$AA1?$AA?$CJ?$AA?$AN?$AA?6?$AA?$AA@ 00016490     common_ti_intr:oem.obj
 0001:000054d0       ??_C@_1HO@IIIKCIAC@?$AAE?$AAR?$AAR?$AAO?$AAR?$AA?3?$AA?5?$AAO?$AAE?$AAM?$AAI?$AAn?$AAt?$AAe?$AAr?$AAr?$AAu?$AAp?$AAt?$AAE?$AAn?$AAa?$AAb?$AAl?$AAe?$AA?3?$AA?5?$AAI?$AAR?$AAQ?$AAs?$AA?5@ 000164d0     common_ti_intr:oem.obj
 0001:00005550       ??_C@_1EI@HHGIJMMI@?$AA?$CL?$AAO?$AAE?$AAM?$AAI?$AAn?$AAt?$AAe?$AAr?$AAr?$AAu?$AAp?$AAt?$AAE?$AAn?$AAa?$AAb?$AAl?$AAe?$AA?$CI?$AA?$CF?$AAd?$AA?0?$AA?5?$AA0?$AAx?$AA?$CF?$AAx?$AA?0?$AA?5?$AA?$CF?$AAd@ 00016550     common_ti_intr:oem.obj
 0001:00005598       ??_C@_1CO@FKOPLHGO@?$AA?9?$AAO?$AAE?$AAM?$AAI?$AAn?$AAt?$AAe?$AAr?$AAr?$AAu?$AAp?$AAt?$AAD?$AAi?$AAs?$AAa?$AAb?$AAl?$AAe?$AA?$AN?$AA?6?$AA?$AA@ 00016598     common_ti_intr:oem.obj
 0001:000055c8       ??_C@_1DG@HOKLDENP@?$AA?$CL?$AAO?$AAE?$AAM?$AAI?$AAn?$AAt?$AAe?$AAr?$AAr?$AAu?$AAp?$AAt?$AAD?$AAi?$AAs?$AAa?$AAb?$AAl?$AAe?$AA?$CI?$AA?$CF?$AAd?$AA?$CJ?$AA?$AN?$AA?6?$AA?$AA@ 000165c8     common_ti_intr:oem.obj
 0001:00005600       ??_C@_1CI@OPHGDEL@?$AA?9?$AAO?$AAE?$AAM?$AAI?$AAn?$AAt?$AAe?$AAr?$AAr?$AAu?$AAp?$AAt?$AAM?$AAa?$AAs?$AAk?$AA?$AN?$AA?6?$AA?$AA@ 00016600     common_ti_intr:oem.obj
 0001:00005628       ??_C@_1DI@MFEEGIMP@?$AA?$CL?$AAO?$AAE?$AAM?$AAI?$AAn?$AAt?$AAe?$AAr?$AAr?$AAu?$AAp?$AAt?$AAM?$AAa?$AAs?$AAk?$AA?$CI?$AA?$CF?$AAd?$AA?0?$AA?5?$AA?$CF?$AAd?$AA?$CJ?$AA?$AN?$AA?6?$AA?$AA@ 00016628     common_ti_intr:oem.obj
 0001:00005660       ??_C@_1CI@IOEKFHHP@?$AA?9?$AAO?$AAE?$AAM?$AAI?$AAn?$AAt?$AAe?$AAr?$AAr?$AAu?$AAp?$AAt?$AAD?$AAo?$AAn?$AAe?$AA?$AN?$AA?6?$AA?$AA@ 00016660     common_ti_intr:oem.obj
 0001:00005688       ??_C@_1DA@HAMHGFMF@?$AA?$CL?$AAO?$AAE?$AAM?$AAI?$AAn?$AAt?$AAe?$AAr?$AAr?$AAu?$AAp?$AAt?$AAD?$AAo?$AAn?$AAe?$AA?$CI?$AA?$CF?$AAd?$AA?$CJ?$AA?$AN?$AA?6?$AA?$AA@ 00016688     common_ti_intr:oem.obj
 0001:000057d8       ??_C@_1CO@DGGDEGNL@?$AA?9?$AAO?$AAA?$AAL?$AAC?$AAa?$AAc?$AAh?$AAe?$AAG?$AAl?$AAo?$AAb?$AAa?$AAl?$AAs?$AAI?$AAn?$AAi?$AAt?$AA?$AN?$AA?6?$AA?$AA@ 000167d8     common_ti_cortexA8_cache:init.obj
 0001:00005808       ??_C@_1PO@EIKPNFFJ@?$AAL?$AA2?$AA?5?$AAc?$AAa?$AAc?$AAh?$AAe?$AA?5?$AAd?$AAe?$AAt?$AAa?$AAi?$AAl?$AAs?$AA?3?$AA?$AN?$AA?6?$AA?5?$AAf?$AAl?$AAa?$AAg?$AAs?$AA?5?$AA?$CF?$AAx?$AA?$AN?$AA?6?$AAI?$AA?3@ 00016808     common_ti_cortexA8_cache:init.obj
 0001:00005908       ??_C@_1PO@EMKFNNPM@?$AAL?$AA1?$AA?5?$AAc?$AAa?$AAc?$AAh?$AAe?$AA?5?$AAd?$AAe?$AAt?$AAa?$AAi?$AAl?$AAs?$AA?3?$AA?$AN?$AA?6?$AA?5?$AAf?$AAl?$AAa?$AAg?$AAs?$AA?5?$AA?$CF?$AAx?$AA?$AN?$AA?6?$AAI?$AA?3@ 00016908     common_ti_cortexA8_cache:init.obj
 0001:00005a08       ??_C@_1EK@IAJMFJBI@?$AAC?$AAa?$AAc?$AAh?$AAe?$AAT?$AAy?$AAp?$AAe?$AA?5?$AA?$DN?$AA?5?$AA?$CF?$AAx?$AA?5?$AA?5?$AA?5?$AAC?$AAa?$AAc?$AAh?$AAe?$AAL?$AAe?$AAv?$AAe?$AAl?$AAI?$AAD?$AA?5?$AA?$DN?$AA?5@ 00016a08     common_ti_cortexA8_cache:init.obj
 0001:00005a54       ??_C@_1DC@KHMCGECI@?$AA?$CL?$AAO?$AAA?$AAL?$AAC?$AAa?$AAc?$AAh?$AAe?$AAG?$AAl?$AAo?$AAb?$AAa?$AAl?$AAs?$AAI?$AAn?$AAi?$AAt?$AA?$CI?$AA?$CJ?$AA?$AN?$AA?6?$AA?$AA@ 00016a54     common_ti_cortexA8_cache:init.obj
 0001:00005b18       ??_C@_1DE@IMMEIMED@?$AA?9?$AAO?$AAA?$AAL?$AAS?$AAe?$AAt?$AAM?$AAe?$AAm?$AAo?$AAr?$AAy?$AAA?$AAt?$AAt?$AAr?$AAi?$AAb?$AAu?$AAt?$AAe?$AAs?$AA?$AN?$AA?6?$AA?$AA@ 00016b18     common_ti_cortexA8_cache:attrib.obj
 0001:00005b4c       ??_C@_1DI@GKMGPOBP@?$AA?$CL?$AAO?$AAA?$AAL?$AAS?$AAe?$AAt?$AAM?$AAe?$AAm?$AAo?$AAr?$AAy?$AAA?$AAt?$AAt?$AAr?$AAi?$AAb?$AAu?$AAt?$AAe?$AAs?$AA?$CI?$AA?$CJ?$AA?$AN?$AA?6?$AA?$AA@ 00016b4c     common_ti_cortexA8_cache:attrib.obj
 0001:00005c18       ??_C@_1EI@PJAHKOP@?$AA?9?$AAO?$AAA?$AAL?$AAI?$AAo?$AAc?$AAt?$AAl?$AAH?$AAa?$AAl?$AAG?$AAe?$AAt?$AAC?$AAa?$AAc?$AAh?$AAe?$AAI?$AAn?$AAf?$AAo?$AA?$CI?$AAr?$AAc?$AA?5?$AA?$DN?$AA?5?$AA?$CF?$AAd@ 00016c18     common_ti_cortexA8_cache:ioctl.obj
 0001:00005c60       ??_C@_1GE@MBKHJMBD@?$AAW?$AAA?$AAR?$AAN?$AA?3?$AA?5?$AAO?$AAA?$AAL?$AAI?$AAo?$AAc?$AAt?$AAl?$AAH?$AAa?$AAl?$AAG?$AAe?$AAt?$AAC?$AAa?$AAc?$AAh?$AAe?$AAI?$AAn?$AAf?$AAo?$AA?3?$AA?5?$AAB@ 00016c60     common_ti_cortexA8_cache:ioctl.obj
 0001:00005cc8       ??_C@_1HM@KKNPJOOC@?$AAW?$AAA?$AAR?$AAN?$AA?3?$AA?5?$AAO?$AAA?$AAL?$AAI?$AAo?$AAc?$AAt?$AAl?$AAH?$AAa?$AAl?$AAG?$AAe?$AAt?$AAC?$AAa?$AAc?$AAh?$AAe?$AAI?$AAn?$AAf?$AAo?$AA?3?$AA?5?$AAI@ 00016cc8     common_ti_cortexA8_cache:ioctl.obj
 0001:00005d48       ??_C@_1EA@GDPMLOAC@?$AA?$CL?$AAO?$AAA?$AAL?$AAI?$AAo?$AAc?$AAt?$AAl?$AAH?$AAa?$AAl?$AAG?$AAe?$AAt?$AAC?$AAa?$AAc?$AAh?$AAe?$AAI?$AAn?$AAf?$AAo?$AA?$CI?$AA?4?$AA?4?$AA?4?$AA?$CJ?$AA?$AN?$AA?6?$AA?$AA@ 00016d48     common_ti_cortexA8_cache:ioctl.obj
 0001:00005e18       ??_C@_1CM@BMDDLKDO@?$AA?9?$AAO?$AAE?$AAM?$AAC?$AAa?$AAc?$AAh?$AAe?$AAR?$AAa?$AAn?$AAg?$AAe?$AAF?$AAl?$AAu?$AAs?$AAh?$AA?$AN?$AA?6?$AA?$AA@ 00016e18     common_ti_cortexA8_cache:flush.obj
 0001:00005e48       ??_C@_1FE@FFFKHHBK@?$AA?$CL?$AAO?$AAE?$AAM?$AAC?$AAa?$AAc?$AAh?$AAe?$AAR?$AAa?$AAn?$AAg?$AAe?$AAF?$AAl?$AAu?$AAs?$AAh?$AA?$CI?$AA0?$AAx?$AA?$CF?$AA0?$AA8?$AAx?$AA?0?$AA?5?$AA?$CF?$AAd?$AA?0?$AA?5@ 00016e48     common_ti_cortexA8_cache:flush.obj
 0001:00005f38       ??_C@_1KM@EEHAFCCJ@?$AAC?$AA?3?$AA?2?$AAW?$AAI?$AAN?$AAC?$AAE?$AA6?$AA0?$AA0?$AA?2?$AAP?$AAL?$AAA?$AAT?$AAF?$AAO?$AAR?$AAM?$AA?2?$AAC?$AAO?$AAM?$AAM?$AAO?$AAN?$AA?2?$AAS?$AAR?$AAC?$AA?2@ 00016f38     common_ti_oali2c:oali2c.obj
 0001:00005fe4       ??_C@_1CC@EHKJMBJI@?$AAD?$AAe?$AAv?$AAi?$AAc?$AAe?$AA?5?$AAn?$AAo?$AAt?$AA?5?$AAf?$AAo?$AAu?$AAn?$AAd?$AA?$AA@ 00016fe4     common_ti_oali2c:oali2c.obj
 0001:00006008       ??_C@_1KA@GOKKFLEJ@?$AAW?$AAA?$AAR?$AAN?$AA?3?$AA?5?$AAI?$AA2?$AAC?$AA?3?$AA?3?$AAI?$AA2?$AAC?$AAP?$AAo?$AAl?$AAl?$AAS?$AAt?$AAa?$AAt?$AAu?$AAs?$AA?5?$AA?9?$AA?5?$AAc?$AAh?$AAe?$AAc?$AAk@ 00017008     common_ti_oali2c:oali2c.obj
 0001:000060a8       ??_C@_1GK@FLELOHLG@?$AAW?$AAA?$AAR?$AAN?$AA?3?$AA?5?$AAI?$AA2?$AAC?$AA?3?$AA?3?$AAI?$AA2?$AAC?$AAR?$AAe?$AAs?$AAe?$AAt?$AAD?$AAe?$AAv?$AAi?$AAc?$AAe?$AA?5?$AA?9?$AA?5?$AAf?$AAa?$AAi?$AAl@ 000170a8     common_ti_oali2c:oali2c.obj
 0001:00006118       ??_C@_1GO@NCGHHJFM@?$AAW?$AAA?$AAR?$AAN?$AA?3?$AA?5?$AAI?$AA2?$AAC?$AA?3?$AA?5?$AAW?$AAr?$AAi?$AAt?$AAe?$AA?5?$AAf?$AAa?$AAi?$AAl?$AAe?$AAd?$AA?5?$AA?$CI?$AAS?$AAA?$AA?$DN?$AA0?$AAx?$AA?$CF?$AA0@ 00017118     common_ti_oali2c:oali2c.obj
 0001:00006188       ??_C@_1CO@EBLPIMOB@?$AAW?$AAr?$AAi?$AAt?$AAe?$AA?3?$AA?5?$AAA?$AAt?$AAt?$AAe?$AAm?$AAp?$AAt?$AAs?$AA?5?$AA?$DN?$AA?5?$AA?$CF?$AAd?$AA?$AN?$AA?6?$AA?$AA@ 00017188     common_ti_oali2c:oali2c.obj
 0001:000061b8       ??_C@_1HM@LEOLDKCA@?$AAW?$AAA?$AAR?$AAN?$AA?3?$AA?5?$AAI?$AA2?$AAC?$AA?3?$AA?5?$AAR?$AAe?$AAa?$AAd?$AA?5?$AAf?$AAa?$AAi?$AAl?$AAe?$AAd?$AA?5?$AA?$CI?$AAs?$AAl?$AAa?$AAv?$AAe?$AA?5?$AAa?$AAd@ 000171b8     common_ti_oali2c:oali2c.obj
 0001:00006234       ??_C@_1CM@HPEFBBEG@?$AAR?$AAe?$AAa?$AAd?$AA?3?$AA?5?$AAA?$AAt?$AAt?$AAe?$AAm?$AAp?$AAt?$AAs?$AA?5?$AA?$DN?$AA?5?$AA?$CF?$AAd?$AA?$AN?$AA?6?$AA?$AA@ 00017234     common_ti_oali2c:oali2c.obj
 0001:00006260       ??_C@_1CO@IKDMELMO@?$AAI?$AA2?$AAC?$AA?3?$AA?5?$AAR?$AAE?$AAS?$AAE?$AAT?$AA?5?$AAd?$AAe?$AAv?$AAi?$AAc?$AAe?$AA?5?$AA?$CF?$AAd?$AA?$AN?$AA?6?$AA?$AA@ 00017260     common_ti_oali2c:oali2c.obj
 0001:000063b0       ??_C@_1LI@PMKLMLGK@?$AAC?$AA?3?$AA?2?$AAW?$AAI?$AAN?$AAC?$AAE?$AA6?$AA0?$AA0?$AA?2?$AAP?$AAL?$AAA?$AAT?$AAF?$AAO?$AAR?$AAM?$AA?2?$AAC?$AAO?$AAM?$AAM?$AAO?$AAN?$AA?2?$AAS?$AAR?$AAC?$AA?2@ 000173b0     common_ti_oalpadcfg:oalpadcfg.obj
 0001:00006468       ??_C@_1FM@HMOJBEID@?$AAP?$AAA?$AAD?$AA?5?$AA?$CF?$AAd?$AA?5?$AAn?$AAo?$AAt?$AA?5?$AAf?$AAo?$AAu?$AAn?$AAd?$AA?5?$AAi?$AAn?$AA?5?$AAp?$AAa?$AAd?$AA?5?$AAc?$AAo?$AAn?$AAf?$AAi?$AAg?$AAu?$AAr@ 00017468     common_ti_oalpadcfg:oalpadcfg.obj
 0001:00006558       ??_C@_1EA@MJDDODLH@?$AA?9?$AAO?$AAA?$AAL?$AAI?$AAo?$AAC?$AAt?$AAl?$AAH?$AAA?$AAL?$AAP?$AAo?$AAs?$AAt?$AAI?$AAn?$AAi?$AAt?$AA?$CI?$AAr?$AAc?$AA?5?$AA?$DN?$AA?5?$AA?$CF?$AAd?$AA?$CJ?$AA?$AN?$AA?6?$AA?$AA@ 00017558     common_ti_ioctl:ioctlex.obj
 0001:00006598       ??_C@_1CO@GIIFGNCE@?$AA?$CL?$AAO?$AAA?$AAL?$AAI?$AAo?$AAC?$AAt?$AAl?$AAH?$AAA?$AAL?$AAP?$AAo?$AAs?$AAt?$AAI?$AAn?$AAi?$AAt?$AA?$AN?$AA?6?$AA?$AA@ 00017598     common_ti_ioctl:ioctlex.obj
 0001:000065c8       ??_C@_1EG@PFJNLOAE@?$AA?9?$AAO?$AAA?$AAL?$AAI?$AAo?$AAC?$AAt?$AAl?$AAH?$AAa?$AAl?$AAI?$AAr?$AAq?$AA2?$AAS?$AAy?$AAs?$AAi?$AAn?$AAt?$AAr?$AA?$CI?$AAr?$AAc?$AA?5?$AA?$DN?$AA?5?$AA?$CF?$AAd?$AA?$CJ@ 000175c8     common_ti_ioctl:ioctlex.obj
 0001:00006610       ??_C@_1GC@IHFCBEA@?$AAW?$AAA?$AAR?$AAN?$AA?3?$AA?5?$AAI?$AAO?$AAC?$AAT?$AAL?$AA_?$AAH?$AAA?$AAL?$AA_?$AAI?$AAR?$AAQ?$AA2?$AAS?$AAY?$AAS?$AAI?$AAN?$AAT?$AAR?$AA?5?$AAi?$AAn?$AAv?$AAa@ 00017610     common_ti_ioctl:ioctlex.obj
 0001:00006674       ??_C@_1DE@MPBNEBBN@?$AA?$CL?$AAO?$AAA?$AAL?$AAI?$AAo?$AAC?$AAt?$AAl?$AAH?$AAa?$AAl?$AAI?$AAr?$AAq?$AA2?$AAS?$AAy?$AAs?$AAi?$AAn?$AAt?$AAr?$AA?$AN?$AA?6?$AA?$AA@ 00017674     common_ti_ioctl:ioctlex.obj
 0001:000066a8       ??_C@_1EA@DEBHKKOP@?$AA?9?$AAO?$AAA?$AAL?$AAI?$AAo?$AAC?$AAt?$AAl?$AAH?$AAa?$AAl?$AAG?$AAe?$AAt?$AAC?$AAp?$AAu?$AAI?$AAD?$AA?$CI?$AAr?$AAc?$AA?5?$AA?$DN?$AA?5?$AA?$CF?$AAd?$AA?$CJ?$AA?$AN?$AA?6?$AA?$AA@ 000176a8     common_ti_ioctl:ioctlex.obj
 0001:000066e8       ??_C@_1FO@BENBDFHF@?$AAW?$AAA?$AAR?$AAN?$AA?3?$AA?5?$AAI?$AAO?$AAC?$AAT?$AAL?$AA_?$AAH?$AAA?$AAL?$AA_?$AAG?$AAE?$AAT?$AA_?$AAC?$AAP?$AAU?$AAI?$AAD?$AA?5?$AAi?$AAn?$AAv?$AAa?$AAl?$AAi@ 000176e8     common_ti_ioctl:ioctlex.obj
 0001:00006748       ??_C@_1CO@NNOIOCIJ@?$AA?$CL?$AAO?$AAA?$AAL?$AAI?$AAo?$AAC?$AAt?$AAl?$AAH?$AAa?$AAl?$AAG?$AAe?$AAt?$AAC?$AAp?$AAu?$AAI?$AAD?$AA?$AN?$AA?6?$AA?$AA@ 00017748     common_ti_ioctl:ioctlex.obj
 0001:00006778       ??_C@_1EA@LEODHOHI@?$AA?9?$AAO?$AAA?$AAL?$AAI?$AAo?$AAC?$AAt?$AAl?$AAH?$AAa?$AAl?$AAG?$AAe?$AAt?$AAD?$AAi?$AAe?$AAI?$AAD?$AA?$CI?$AAr?$AAc?$AA?5?$AA?$DN?$AA?5?$AA?$CF?$AAd?$AA?$CJ?$AA?$AN?$AA?6?$AA?$AA@ 00017778     common_ti_ioctl:ioctlex.obj
 0001:000067b8       ??_C@_1FO@IFLGBEFI@?$AAW?$AAA?$AAR?$AAN?$AA?3?$AA?5?$AAI?$AAO?$AAC?$AAT?$AAL?$AA_?$AAH?$AAA?$AAL?$AA_?$AAG?$AAE?$AAT?$AA_?$AAD?$AAI?$AAE?$AAI?$AAD?$AA?5?$AAi?$AAn?$AAv?$AAa?$AAl?$AAi@ 000177b8     common_ti_ioctl:ioctlex.obj
 0001:00006818       ??_C@_1CO@OEONDECM@?$AA?$CL?$AAO?$AAA?$AAL?$AAI?$AAo?$AAC?$AAt?$AAl?$AAH?$AAa?$AAl?$AAG?$AAe?$AAt?$AAD?$AAi?$AAe?$AAI?$AAD?$AA?$AN?$AA?6?$AA?$AA@ 00017818     common_ti_ioctl:ioctlex.obj
 0001:00006848       ??_C@_1EI@BLNOICKL@?$AA?9?$AAO?$AAA?$AAL?$AAI?$AAo?$AAC?$AAt?$AAl?$AAH?$AAa?$AAl?$AAG?$AAe?$AAt?$AAC?$AAp?$AAu?$AAF?$AAa?$AAm?$AAi?$AAl?$AAy?$AA?$CI?$AAr?$AAc?$AA?5?$AA?$DN?$AA?5?$AA?$CF?$AAd@ 00017848     common_ti_ioctl:ioctlex.obj
 0001:00006890       ??_C@_1GG@PIALBOFK@?$AAW?$AAA?$AAR?$AAN?$AA?3?$AA?5?$AAI?$AAO?$AAC?$AAT?$AAL?$AA_?$AAH?$AAA?$AAL?$AA_?$AAG?$AAE?$AAT?$AA_?$AAC?$AAP?$AAU?$AAF?$AAA?$AAM?$AAI?$AAL?$AAY?$AA?5?$AAi?$AAn@ 00017890     common_ti_ioctl:ioctlex.obj
 0001:000068f8       ??_C@_1DG@LANGKFOF@?$AA?$CL?$AAO?$AAA?$AAL?$AAI?$AAo?$AAC?$AAt?$AAl?$AAH?$AAa?$AAl?$AAG?$AAe?$AAt?$AAC?$AAp?$AAu?$AAF?$AAa?$AAm?$AAi?$AAl?$AAy?$AA?$AN?$AA?6?$AA?$AA@ 000178f8     common_ti_ioctl:ioctlex.obj
 0001:00006930       ??_C@_1EM@IBJMOHCM@?$AA?9?$AAO?$AAA?$AAL?$AAI?$AAo?$AAC?$AAt?$AAl?$AAH?$AAa?$AAl?$AAG?$AAe?$AAt?$AAC?$AAp?$AAu?$AAR?$AAe?$AAv?$AAi?$AAs?$AAi?$AAo?$AAn?$AA?$CI?$AAr?$AAc?$AA?5?$AA?$DN?$AA?5@ 00017930     common_ti_ioctl:ioctlex.obj
 0001:00006980       ??_C@_1GK@POJMJFBK@?$AAW?$AAA?$AAR?$AAN?$AA?3?$AA?5?$AAI?$AAO?$AAC?$AAT?$AAL?$AA_?$AAH?$AAA?$AAL?$AA_?$AAG?$AAE?$AAT?$AA_?$AAC?$AAP?$AAU?$AAR?$AAE?$AAV?$AAI?$AAS?$AAI?$AAO?$AAN?$AA?5@ 00017980     common_ti_ioctl:ioctlex.obj
 0001:000069ec       ??_C@_1DK@CEHAAOCK@?$AA?$CL?$AAO?$AAA?$AAL?$AAI?$AAo?$AAC?$AAt?$AAl?$AAH?$AAa?$AAl?$AAG?$AAe?$AAt?$AAC?$AAp?$AAu?$AAR?$AAe?$AAv?$AAi?$AAs?$AAi?$AAo?$AAn?$AA?$AN?$AA?6?$AA?$AA@ 000179ec     common_ti_ioctl:ioctlex.obj
 0001:00006a28       ??_C@_1GE@NPAKGOIN@?$AAW?$AAA?$AAR?$AAN?$AA?3?$AA?5?$AAI?$AAO?$AAC?$AAT?$AAL?$AA_?$AAH?$AAA?$AAL?$AA_?$AAG?$AAE?$AAT?$AA_?$AAC?$AAP?$AAU?$AAS?$AAP?$AAE?$AAE?$AAD?$AA?5?$AAi?$AAn?$AAv@ 00017a28     common_ti_ioctl:ioctlex.obj
 0001:00006a90       ??_C@_1EM@GCDJKLDG@?$AA?9?$AAO?$AAA?$AAL?$AAI?$AAo?$AAC?$AAt?$AAl?$AAH?$AAa?$AAl?$AAI?$AA2?$AAC?$AAC?$AAo?$AAp?$AAy?$AAF?$AAn?$AAT?$AAa?$AAb?$AAl?$AAe?$AA?$CI?$AAr?$AAc?$AA?5?$AA?$DN?$AA?5@ 00017a90     common_ti_ioctl:ioctlex.obj
 0001:00006adc       ??_C@_1DK@HHILBGF@?$AA?$CL?$AAO?$AAA?$AAL?$AAI?$AAo?$AAC?$AAt?$AAl?$AAH?$AAa?$AAl?$AAI?$AA2?$AAC?$AAC?$AAo?$AAp?$AAy?$AAF?$AAn?$AAT?$AAa?$AAb?$AAl?$AAe?$AA?$AN?$AA?6?$AA?$AA@ 00017adc     common_ti_ioctl:ioctlex.obj
 0001:00006b18       ??_C@_1FC@FCGPKNOO@?$AA?9?$AAO?$AAA?$AAL?$AAI?$AAo?$AAC?$AAt?$AAl?$AAH?$AAa?$AAl?$AAP?$AAa?$AAd?$AAC?$AAf?$AAg?$AAC?$AAo?$AAp?$AAy?$AAF?$AAn?$AAT?$AAa?$AAb?$AAl?$AAe?$AA?$CI?$AAr?$AAc@ 00017b18     common_ti_ioctl:ioctlex.obj
 0001:00006b70       ??_C@_1EA@OGPBEJDC@?$AA?$CL?$AAO?$AAA?$AAL?$AAI?$AAo?$AAC?$AAt?$AAl?$AAH?$AAa?$AAl?$AAP?$AAa?$AAd?$AAC?$AAf?$AAg?$AAC?$AAo?$AAp?$AAy?$AAF?$AAn?$AAT?$AAa?$AAb?$AAl?$AAe?$AA?$AN?$AA?6?$AA?$AA@ 00017b70     common_ti_ioctl:ioctlex.obj
 0001:00006bb0       ??_C@_1EI@KCAEIEE@?$AA?9?$AAO?$AAA?$AAL?$AAI?$AAo?$AAc?$AAt?$AAl?$AAH?$AAa?$AAl?$AAG?$AAe?$AAt?$AAN?$AAe?$AAo?$AAn?$AAS?$AAt?$AAa?$AAt?$AAs?$AA?$CI?$AAr?$AAc?$AA?5?$AA?$DN?$AA?5?$AA?$CF?$AAd@ 00017bb0     common_ti_ioctl:ioctlex.obj
 0001:00006bf8       ??_C@_1M@IKKIHJKB@?$AAc?$AAl?$AAe?$AAa?$AAr?$AA?$AA@ 00017bf8     common_ti_ioctl:ioctlex.obj
 0001:00006c08       ??_C@_1GI@CJLHKHNC@?$AAW?$AAA?$AAR?$AAN?$AA?3?$AA?5?$AAI?$AAO?$AAC?$AAT?$AAL?$AA_?$AAH?$AAA?$AAL?$AA_?$AAG?$AAE?$AAT?$AA_?$AAN?$AAE?$AAO?$AAN?$AA_?$AAS?$AAT?$AAA?$AAT?$AAS?$AA?5?$AAi@ 00017c08     common_ti_ioctl:ioctlex.obj
 0001:00006c70       ??_C@_1DG@KOMHBINP@?$AA?$CL?$AAO?$AAA?$AAL?$AAI?$AAo?$AAc?$AAt?$AAl?$AAH?$AAa?$AAl?$AAG?$AAe?$AAt?$AAN?$AAe?$AAo?$AAn?$AAS?$AAt?$AAa?$AAt?$AAs?$AA?$AN?$AA?6?$AA?$AA@ 00017c70     common_ti_ioctl:ioctlex.obj
 0001:00006ca8       ??_C@_1EE@OFAPOFKI@?$AA?9?$AAO?$AAA?$AAL?$AAI?$AAo?$AAc?$AAt?$AAl?$AAH?$AAa?$AAl?$AAG?$AAe?$AAt?$AAE?$AAc?$AAc?$AAT?$AAy?$AAp?$AAe?$AA?$CI?$AAr?$AAc?$AA?5?$AA?$DN?$AA?5?$AA?$CF?$AAd?$AA?$CJ?$AA?$AN@ 00017ca8     common_ti_ioctl:ioctlex.obj
 0001:00006cf0       ??_C@_1GC@MLINBDIE@?$AAW?$AAA?$AAR?$AAN?$AA?3?$AA?5?$AAO?$AAA?$AAL?$AAI?$AAo?$AAc?$AAt?$AAl?$AAH?$AAa?$AAl?$AAG?$AAe?$AAt?$AAE?$AAc?$AAc?$AAT?$AAy?$AAp?$AAe?$AA?5?$AAi?$AAn?$AAv?$AAa@ 00017cf0     common_ti_ioctl:ioctlex.obj
 0001:00006d54       ??_C@_1DC@JDMHLFOE@?$AA?$CL?$AAO?$AAA?$AAL?$AAI?$AAo?$AAc?$AAt?$AAl?$AAH?$AAa?$AAl?$AAG?$AAe?$AAt?$AAE?$AAc?$AAc?$AAT?$AAy?$AAp?$AAe?$AA?$AN?$AA?6?$AA?$AA@ 00017d54     common_ti_ioctl:ioctlex.obj
 0001:00006d88       ??_C@_1CI@GCCMIBEH@?$AAI?$AAn?$AAv?$AAa?$AAl?$AAi?$AAd?$AA?5?$AAp?$AAa?$AAr?$AAa?$AAm?$AAe?$AAt?$AAe?$AAr?$AA?$AN?$AA?6?$AA?$AA@ 00017d88     common_ti_ioctl:ioctlex.obj
 0001:00006db0       ??_C@_1DK@PIJPCDOD@?$AA?9?$AAI?$AAO?$AAC?$AAT?$AAL?$AA_?$AAH?$AAA?$AAL?$AA_?$AAG?$AAE?$AAT?$AA_?$AAD?$AAI?$AAS?$AAP?$AAL?$AAA?$AAY?$AA_?$AAR?$AAE?$AAS?$AA?$AN?$AA?6?$AA?$AA@ 00017db0     common_ti_ioctl:ioctlex.obj
 0001:00006dec       ??_C@_1DK@JNHMAEMI@?$AA?$CL?$AAI?$AAO?$AAC?$AAT?$AAL?$AA_?$AAH?$AAA?$AAL?$AA_?$AAG?$AAE?$AAT?$AA_?$AAD?$AAI?$AAS?$AAP?$AAL?$AAA?$AAY?$AA_?$AAR?$AAE?$AAS?$AA?$AN?$AA?6?$AA?$AA@ 00017dec     common_ti_ioctl:ioctlex.obj
 0001:00006e28       ??_C@_1DM@MHNEBIFL@?$AA?9?$AAI?$AAO?$AAC?$AAT?$AAL?$AA_?$AAH?$AAA?$AAL?$AA_?$AAC?$AAO?$AAN?$AAV?$AAE?$AAR?$AAT?$AA_?$AAC?$AAA?$AA_?$AAT?$AAO?$AA_?$AAP?$AAA?$AA?$AN?$AA?6?$AA?$AA@ 00017e28     common_ti_ioctl:ioctlex.obj
 0001:00006e64       ??_C@_1DM@BEKODFLK@?$AA?$CL?$AAI?$AAO?$AAC?$AAT?$AAL?$AA_?$AAH?$AAA?$AAL?$AA_?$AAC?$AAO?$AAN?$AAV?$AAE?$AAR?$AAT?$AA_?$AAC?$AAA?$AA_?$AAT?$AAO?$AA_?$AAP?$AAA?$AA?$AN?$AA?6?$AA?$AA@ 00017e64     common_ti_ioctl:ioctlex.obj
 0001:00006f30       ??_C@_1EO@MMBLCMMP@?$AA?9?$AAO?$AAA?$AAL?$AAI?$AAo?$AAC?$AAt?$AAl?$AAH?$AAa?$AAl?$AAG?$AAe?$AAt?$AAR?$AAN?$AAd?$AAi?$AAs?$AAM?$AAa?$AAc?$AAA?$AAd?$AAd?$AAr?$AA?$CI?$AAr?$AAc?$AA?5?$AA?$DN@ 00017f30     common_ti_ioctl:rndismac.obj
 0001:00006f80       ??_C@_1GK@KIBKEAJB@?$AAW?$AAA?$AAR?$AAN?$AA?3?$AA?5?$AAO?$AAA?$AAL?$AAI?$AAo?$AAC?$AAt?$AAl?$AAH?$AAa?$AAl?$AAG?$AAe?$AAt?$AAR?$AAN?$AAd?$AAi?$AAs?$AAM?$AAa?$AAc?$AAA?$AAd?$AAd?$AAr@ 00017f80     common_ti_ioctl:rndismac.obj
 0001:00007080       ??_C@_1HE@MPDJKIGD@?$AAW?$AAA?$AAR?$AAN?$AA?3?$AA?5?$AAO?$AAA?$AAL?$AAI?$AAo?$AAC?$AAt?$AAl?$AAH?$AAa?$AAl?$AAQ?$AAu?$AAe?$AAr?$AAy?$AAF?$AAo?$AAr?$AAm?$AAa?$AAt?$AAP?$AAa?$AAr?$AAt@ 00018080     common_ti_ioctl:format.obj
 0001:000070f8       ??_C@_1EE@GIKICLCE@?$AA?$CK?$AA?$CK?$AA?$CK?$AA?5?$AAC?$AAo?$AAl?$AAd?$AA?5?$AAB?$AAo?$AAo?$AAt?$AA?5?$AA?9?$AA?5?$AAF?$AAo?$AAr?$AAm?$AAa?$AAt?$AA?5?$AAT?$AAF?$AAA?$AAT?$AA?5?$AA?$CK?$AA?$CK?$AA?$CK?$AA?$AN@ 000180f8     common_ti_ioctl:format.obj
 0001:000071d0       ??_C@_1EI@MCIJGMLN@?$AA?9?$AAO?$AAA?$AAL?$AAI?$AAo?$AAC?$AAt?$AAl?$AAH?$AAa?$AAl?$AAG?$AAe?$AAt?$AAH?$AAW?$AAE?$AAn?$AAt?$AAr?$AAo?$AAp?$AAy?$AA?$CI?$AAr?$AAc?$AA?5?$AA?$DN?$AA?5?$AA?$CF?$AAd@ 000181d0     common_ti_ioctl:hwentropy.obj
 0001:00007218       ??_C@_1GE@KDBGDMBH@?$AAW?$AAA?$AAR?$AAN?$AA?3?$AA?5?$AAO?$AAA?$AAL?$AAI?$AAo?$AAC?$AAt?$AAl?$AAH?$AAa?$AAl?$AAG?$AAe?$AAt?$AAH?$AAW?$AAE?$AAn?$AAt?$AAr?$AAo?$AAp?$AAy?$AA?3?$AA?5?$AAB@ 00018218     common_ti_ioctl:hwentropy.obj
 0001:00007310       ??_C@_1CK@MAHBEPGM@?$AA?9?$AAO?$AAA?$AAL?$AAI?$AAo?$AAC?$AAt?$AAl?$AAH?$AAa?$AAl?$AAR?$AAe?$AAb?$AAo?$AAo?$AAt?$AA?$AN?$AA?6?$AA?$AA@ 00018310     common_ti_ioctl:reboot.obj
 0001:0000733c       ??_C@_1CA@PEBMPEHG@?$AA?$CK?$AA?$CK?$AA?$CK?$AA?5?$AAR?$AAE?$AAS?$AAE?$AAT?$AA?5?$AA?$CK?$AA?$CK?$AA?$CK?$AA?$AN?$AA?6?$AA?$AA@ 0001833c     common_ti_ioctl:reboot.obj
 0001:0000735c       ??_C@_1CK@LAAGFJIK@?$AA?$CL?$AAO?$AAA?$AAL?$AAI?$AAo?$AAC?$AAt?$AAl?$AAH?$AAa?$AAl?$AAR?$AAe?$AAb?$AAo?$AAo?$AAt?$AA?$AN?$AA?6?$AA?$AA@ 0001835c     common_ti_ioctl:reboot.obj
 0001:00007418       ??_C@_1EA@LOAJIJJI@?$AA?9?$AAO?$AAE?$AAM?$AAI?$AAn?$AAt?$AAe?$AAr?$AAr?$AAu?$AAp?$AAt?$AAP?$AAe?$AAn?$AAd?$AAi?$AAn?$AAg?$AA?$CI?$AAr?$AAc?$AA?5?$AA?$DN?$AA?5?$AA?$CF?$AAd?$AA?$CJ?$AA?$AN?$AA?6?$AA?$AA@ 00018418     OMAP3530_oal_power:power.obj
 0001:00007458       ??_C@_1DG@KCFEDALK@?$AA?$CL?$AAO?$AAE?$AAM?$AAI?$AAn?$AAt?$AAe?$AAr?$AAr?$AAu?$AAp?$AAt?$AAP?$AAe?$AAn?$AAd?$AAi?$AAn?$AAg?$AA?$CI?$AA?$CF?$AAd?$AA?$CJ?$AA?$AN?$AA?6?$AA?$AA@ 00018458     OMAP3530_oal_power:power.obj
 0001:00007490       ??_C@_1DG@KDDHMOEO@?$AA?$AN?$AA?6?$AAW?$AAa?$AAk?$AAe?$AA?5?$AAd?$AAu?$AAe?$AA?5?$AAt?$AAo?$AA?5?$AAS?$AAY?$AAS?$AAI?$AAN?$AAT?$AAR?$AA?5?$AA?$CF?$AAd?$AA?$AN?$AA?6?$AA?$AA@ 00018490     OMAP3530_oal_power:power.obj
 0001:000074c8       ??_C@_1BO@GGDDDJNF@?$AA?5?$AA?5?$AAS?$AAY?$AAS?$AAI?$AAN?$AAT?$AAR?$AA?5?$AA?$CF?$AAd?$AA?$AN?$AA?6?$AA?$AA@ 000184c8     OMAP3530_oal_power:power.obj
 0001:000074e8       ??_C@_1DA@OKMJBLLN@?$AAE?$AAn?$AAa?$AAb?$AAl?$AAe?$AAd?$AA?5?$AAw?$AAa?$AAk?$AAe?$AA?5?$AAs?$AAo?$AAu?$AAr?$AAc?$AAe?$AAs?$AA?3?$AA?$AN?$AA?6?$AA?$AA@ 000184e8     OMAP3530_oal_power:power.obj
 0001:000075a8       ??_C@_15BMCNAON@?$AAR?$AAX?$AA?$AA@ 000185a8     OMAP3530_soccfg:devicemap.obj
 0001:000075b0       ??_C@_15NHJLDDPA@?$AAT?$AAX?$AA?$AA@ 000185b0     OMAP3530_soccfg:devicemap.obj
 0001:000075b8       ??_C@_17GHFABBII@?$AAM?$AAM?$AAU?$AA?$AA@ 000185b8     OMAP3530_soccfg:devicemap.obj
 0001:000075c0       ??_C@_19EMJFMDEF@?$AAI?$AAR?$AAQ?$AA3?$AA?$AA@ 000185c0     OMAP3530_soccfg:devicemap.obj
 0001:000075cc       ??_C@_19PECJKECA@?$AAI?$AAR?$AAQ?$AA2?$AA?$AA@ 000185cc     OMAP3530_soccfg:devicemap.obj
 0001:000075d8       ??_C@_19OGJMALMO@?$AAI?$AAR?$AAQ?$AA1?$AA?$AA@ 000185d8     OMAP3530_soccfg:devicemap.obj
 0001:000075e4       ??_C@_19FOCAGMKL@?$AAI?$AAR?$AAQ?$AA0?$AA?$AA@ 000185e4     OMAP3530_soccfg:devicemap.obj
 0001:000075f0       ??_C@_1BC@JBFPJMDB@?$AAo?$AAv?$AAe?$AAr?$AAf?$AAl?$AAo?$AAw?$AA?$AA@ 000185f0     OMAP3530_soccfg:devicemap.obj
 0001:00007698       s_DeviceAddressMap         00018698     OMAP3530_soccfg:devicemap.obj
 0001:00007898       s_DeviceIrqMap             00018898     OMAP3530_soccfg:devicemap.obj
 0001:00007d38       ??_C@_1JA@LGLDCCHC@?$AAO?$AAA?$AAL?$AAI?$AAs?$AAP?$AAr?$AAo?$AAc?$AAe?$AAs?$AAs?$AAo?$AAr?$AAF?$AAe?$AAa?$AAt?$AAu?$AAr?$AAe?$AAP?$AAr?$AAe?$AAs?$AAe?$AAn?$AAt?$AA?3?$AA?5?$AA?$CI?$AA0@ 00018d38     OMAP3530_oal_misc:feature.obj
 0001:00007e58       ??_C@_1DM@HCJMCLID@?$AA?$CL?$AAS?$AAm?$AAa?$AAr?$AAt?$AAR?$AAe?$AAf?$AAl?$AAe?$AAx?$AA?5?$AAr?$AAe?$AAg?$AAi?$AAs?$AAt?$AAe?$AAr?$AA?5?$AAD?$AAU?$AAM?$AAP?$AA?3?$AA?$AN?$AA?6?$AA?$AA@ 00018e58     OMAP3530_oal_sr:oal_sr.obj
 0001:00007e94       ??_C@_1CC@KLDDLMIK@?$AA?7?$AAS?$AAR?$AAC?$AAO?$AAN?$AAF?$AAI?$AAG?$AA?3?$AA?7?$AA?7?$AA?$CF?$AAx?$AA?$AN?$AA?6?$AA?$AA@ 00018e94     OMAP3530_oal_sr:oal_sr.obj
 0001:00007eb8       ??_C@_1CC@MPAJGDLO@?$AA?7?$AAS?$AAR?$AAS?$AAT?$AAA?$AAT?$AAU?$AAS?$AA?3?$AA?7?$AA?7?$AA?$CF?$AAx?$AA?$AN?$AA?6?$AA?$AA@ 00018eb8     OMAP3530_oal_sr:oal_sr.obj
 0001:00007edc       ??_C@_1BO@BGLJEEOM@?$AA?7?$AAS?$AAE?$AAN?$AAV?$AAA?$AAL?$AA?3?$AA?7?$AA?7?$AA?$CF?$AAx?$AA?$AN?$AA?6?$AA?$AA@ 00018edc     OMAP3530_oal_sr:oal_sr.obj
 0001:00007efc       ??_C@_1BO@KHHKDINM@?$AA?7?$AAS?$AAE?$AAN?$AAM?$AAI?$AAN?$AA?3?$AA?7?$AA?7?$AA?$CF?$AAx?$AA?$AN?$AA?6?$AA?$AA@ 00018efc     OMAP3530_oal_sr:oal_sr.obj
 0001:00007f1c       ??_C@_1BO@BKHOAOPD@?$AA?7?$AAS?$AAE?$AAN?$AAM?$AAA?$AAX?$AA?3?$AA?7?$AA?7?$AA?$CF?$AAx?$AA?$AN?$AA?6?$AA?$AA@ 00018f1c     OMAP3530_oal_sr:oal_sr.obj
 0001:00007f3c       ??_C@_1BO@CGMCEODF@?$AA?7?$AAS?$AAE?$AAN?$AAA?$AAV?$AAG?$AA?3?$AA?7?$AA?7?$AA?$CF?$AAx?$AA?$AN?$AA?6?$AA?$AA@ 00018f3c     OMAP3530_oal_sr:oal_sr.obj
 0001:00007f5c       ??_C@_1CE@OLFJAIOF@?$AA?7?$AAA?$AAV?$AAG?$AAW?$AAE?$AAI?$AAG?$AAH?$AAT?$AA?3?$AA?7?$AA?7?$AA?$CF?$AAx?$AA?$AN?$AA?6?$AA?$AA@ 00018f5c     OMAP3530_oal_sr:oal_sr.obj
 0001:00007f80       ??_C@_1DC@PJEIKBGE@?$AA?7?$AAN?$AAV?$AAA?$AAL?$AAU?$AAE?$AAR?$AAE?$AAC?$AAI?$AAP?$AAR?$AAO?$AAC?$AAA?$AAL?$AA?3?$AA?7?$AA?7?$AA?$CF?$AAx?$AA?$AN?$AA?6?$AA?$AA@ 00018f80     OMAP3530_oal_sr:oal_sr.obj
 0001:00007fb4       ??_C@_1CC@FLBPAKFF@?$AA?7?$AAS?$AAE?$AAN?$AAE?$AAR?$AAR?$AAO?$AAR?$AA?3?$AA?7?$AA?7?$AA?$CF?$AAx?$AA?$AN?$AA?6?$AA?$AA@ 00018fb4     OMAP3530_oal_sr:oal_sr.obj
 0001:00007fd8       ??_C@_1CE@GPEMKPMB@?$AA?7?$AAE?$AAR?$AAR?$AAC?$AAO?$AAN?$AAF?$AAI?$AAG?$AA?3?$AA?7?$AA?7?$AA?$CF?$AAx?$AA?$AN?$AA?6?$AA?$AA@ 00018fd8     OMAP3530_oal_sr:oal_sr.obj
 0001:00007ffc       ??_C@_1CM@CJHEJDAE@?$AA?7?$AAI?$AAR?$AAQ?$AAS?$AAT?$AAA?$AAT?$AAU?$AAS?$AA_?$AAR?$AAA?$AAW?$AA?3?$AA?7?$AA?7?$AA?$CF?$AAx?$AA?$AN?$AA?6?$AA?$AA@ 00018ffc     OMAP3530_oal_sr:oal_sr.obj
 0001:00008028       ??_C@_1CE@CCLNJOME@?$AA?7?$AAI?$AAR?$AAQ?$AAS?$AAT?$AAA?$AAT?$AAU?$AAS?$AA?3?$AA?7?$AA?7?$AA?$CF?$AAx?$AA?$AN?$AA?6?$AA?$AA@ 00019028     OMAP3530_oal_sr:oal_sr.obj
 0001:0000804c       ??_C@_1CM@FKAAFELP@?$AA?7?$AAI?$AAR?$AAQ?$AAE?$AAN?$AAA?$AAB?$AAL?$AAE?$AA_?$AAS?$AAE?$AAT?$AA?3?$AA?7?$AA?7?$AA?$CF?$AAx?$AA?$AN?$AA?6?$AA?$AA@ 0001904c     OMAP3530_oal_sr:oal_sr.obj
 0001:00008078       ??_C@_1CM@FDHEPIP@?$AA?7?$AAI?$AAR?$AAQ?$AAE?$AAN?$AAA?$AAB?$AAL?$AAE?$AA_?$AAC?$AAL?$AAR?$AA?3?$AA?7?$AA?7?$AA?$CF?$AAx?$AA?$AN?$AA?6?$AA?$AA@ 00019078     OMAP3530_oal_sr:oal_sr.obj
 0001:000080a8       ??_C@_1IK@BPJEEHJP@?$AA?$AN?$AA?6?$AAS?$AAm?$AAa?$AAr?$AAt?$AAR?$AAe?$AAf?$AAl?$AAe?$AAx?$AA_?$AAG?$AAe?$AAt?$AA_?$AAf?$AAu?$AAn?$AAc?$AAt?$AAi?$AAo?$AAn?$AAs?$AA_?$AAh?$AAa?$AAn?$AAd@ 000190a8     OMAP3530_oal_sr:oal_sr.obj
 0001:000081c8       ??_C@_1EI@DMKFONCI@?$AA?9?$AA_?$AAP?$AAr?$AAc?$AAm?$AAD?$AAe?$AAv?$AAi?$AAc?$AAe?$AAH?$AAw?$AAU?$AAp?$AAd?$AAa?$AAt?$AAe?$AAA?$AAu?$AAt?$AAo?$AAi?$AAd?$AAl?$AAe?$AA?$CI?$AA?$CJ?$AA?$DN?$AA?$CF@ 000191c8     OMAP3530_oal_prcm:prcm_device.obj
 0001:00008210       ??_C@_1FC@JFJNOCNE@?$AA?$CL?$AA_?$AAP?$AAr?$AAc?$AAm?$AAD?$AAe?$AAv?$AAi?$AAc?$AAe?$AAH?$AAw?$AAU?$AAp?$AAd?$AAa?$AAt?$AAe?$AAA?$AAu?$AAt?$AAo?$AAi?$AAd?$AAl?$AAe?$AA?$CI?$AAd?$AAe?$AAv@ 00019210     OMAP3530_oal_prcm:prcm_device.obj
 0001:00008268       ??_C@_1EE@DHLHDFDF@?$AA?9?$AA_?$AAP?$AAr?$AAc?$AAm?$AAD?$AAe?$AAv?$AAi?$AAc?$AAe?$AAE?$AAn?$AAa?$AAb?$AAl?$AAe?$AAA?$AAu?$AAt?$AAo?$AAI?$AAd?$AAl?$AAe?$AA?$CI?$AA?$CJ?$AA?$DN?$AA?$CF?$AAd?$AA?$AN@ 00019268     OMAP3530_oal_prcm:prcm_device.obj
 0001:000082b0       ??_C@_1FG@JDCJJDME@?$AA?$CL?$AA_?$AAP?$AAr?$AAc?$AAm?$AAD?$AAe?$AAv?$AAi?$AAc?$AAe?$AAE?$AAn?$AAa?$AAb?$AAl?$AAe?$AAA?$AAu?$AAt?$AAo?$AAI?$AAd?$AAl?$AAe?$AA?$CI?$AAd?$AAe?$AAv?$AAI?$AAd@ 000192b0     OMAP3530_oal_prcm:prcm_device.obj
 0001:00008308       ??_C@_1EE@LKHHNJGE@?$AA?$CL?$AA_?$AAP?$AAr?$AAc?$AAm?$AAU?$AAp?$AAd?$AAa?$AAt?$AAe?$AAD?$AAe?$AAv?$AAi?$AAc?$AAe?$AAC?$AAl?$AAo?$AAc?$AAk?$AAS?$AAo?$AAu?$AAr?$AAc?$AAe?$AA?$CI?$AA?$CJ?$AA?$AN@ 00019308     OMAP3530_oal_prcm:prcm_device.obj
 0001:00008350       ??_C@_1HO@BDPNINII@?$AA?$CL?$AA_?$AAP?$AAr?$AAc?$AAm?$AAU?$AAp?$AAd?$AAa?$AAt?$AAe?$AAD?$AAe?$AAv?$AAi?$AAc?$AAe?$AAC?$AAl?$AAo?$AAc?$AAk?$AAS?$AAo?$AAu?$AAr?$AAc?$AAe?$AA?$CI?$AAp?$AAS@ 00019350     OMAP3530_oal_prcm:prcm_device.obj
 0001:000083d0       ??_C@_1EO@BLAPGCDC@?$AA?9?$AA_?$AAP?$AAr?$AAc?$AAm?$AAD?$AAe?$AAv?$AAi?$AAc?$AAe?$AAW?$AAa?$AAi?$AAt?$AAF?$AAo?$AAr?$AAD?$AAe?$AAv?$AAi?$AAc?$AAe?$AAA?$AAc?$AAc?$AAe?$AAs?$AAs?$AA?$CI@ 000193d0     OMAP3530_oal_prcm:prcm_device.obj
 0001:00008420       ??_C@_1FI@NMFDDLHH@?$AA?$CL?$AA_?$AAP?$AAr?$AAc?$AAm?$AAD?$AAe?$AAv?$AAi?$AAc?$AAe?$AAW?$AAa?$AAi?$AAt?$AAF?$AAo?$AAr?$AAD?$AAe?$AAv?$AAi?$AAc?$AAe?$AAA?$AAc?$AAc?$AAe?$AAs?$AAs?$AA?$CI@ 00019420     OMAP3530_oal_prcm:prcm_device.obj
 0001:00008478       ??_C@_1EA@CPOENIOI@?$AA?9?$AA_?$AAP?$AAr?$AAc?$AAm?$AAD?$AAe?$AAv?$AAi?$AAc?$AAe?$AAE?$AAn?$AAa?$AAb?$AAl?$AAe?$AAW?$AAa?$AAk?$AAe?$AAU?$AAp?$AA?$CI?$AA?$CJ?$AA?$DN?$AA?$CF?$AAd?$AA?$AN?$AA?6?$AA?$AA@ 00019478     OMAP3530_oal_prcm:prcm_device.obj
 0001:000084b8       ??_C@_1EK@NOGBCNIM@?$AA?$CL?$AA_?$AAP?$AAr?$AAc?$AAm?$AAD?$AAe?$AAv?$AAi?$AAc?$AAe?$AAE?$AAn?$AAa?$AAb?$AAl?$AAe?$AAW?$AAa?$AAk?$AAe?$AAU?$AAp?$AA?$CI?$AAd?$AAe?$AAv?$AAI?$AAd?$AA?$DN?$AA?$CF@ 000194b8     OMAP3530_oal_prcm:prcm_device.obj
 0001:00008508       ??_C@_1EA@KEPHJOIB@?$AA?9?$AA_?$AAP?$AAr?$AAc?$AAm?$AAD?$AAe?$AAv?$AAi?$AAc?$AAe?$AAE?$AAn?$AAa?$AAb?$AAl?$AAe?$AAF?$AAC?$AAl?$AAo?$AAc?$AAk?$AA?$CI?$AA?$CJ?$AA?$DN?$AA?$CF?$AAd?$AA?$AN?$AA?6?$AA?$AA@ 00019508     OMAP3530_oal_prcm:prcm_device.obj
 0001:00008548       ??_C@_1FC@GCMBLELH@?$AA?$CL?$AA_?$AAP?$AAr?$AAc?$AAm?$AAD?$AAe?$AAv?$AAi?$AAc?$AAe?$AAE?$AAn?$AAa?$AAb?$AAl?$AAe?$AAF?$AAC?$AAl?$AAo?$AAc?$AAk?$AA?$CI?$AAd?$AAe?$AAv?$AAI?$AAd?$AA?$DN?$AA?$CF@ 00019548     OMAP3530_oal_prcm:prcm_device.obj
 0001:000085a0       ??_C@_1EA@KNFBIFDK@?$AA?9?$AA_?$AAP?$AAr?$AAc?$AAm?$AAD?$AAe?$AAv?$AAi?$AAc?$AAe?$AAE?$AAn?$AAa?$AAb?$AAl?$AAe?$AAI?$AAC?$AAl?$AAo?$AAc?$AAk?$AA?$CI?$AA?$CJ?$AA?$DN?$AA?$CF?$AAd?$AA?$AN?$AA?6?$AA?$AA@ 000195a0     OMAP3530_oal_prcm:prcm_device.obj
 0001:000085e0       ??_C@_1FC@IOGCKABF@?$AA?$CL?$AA_?$AAP?$AAr?$AAc?$AAm?$AAD?$AAe?$AAv?$AAi?$AAc?$AAe?$AAE?$AAn?$AAa?$AAb?$AAl?$AAe?$AAI?$AAC?$AAl?$AAo?$AAc?$AAk?$AA?$CI?$AAd?$AAe?$AAv?$AAI?$AAd?$AA?$DN?$AA?$CF@ 000195e0     OMAP3530_oal_prcm:prcm_device.obj
 0001:00008638       ??_C@_1EI@EFBPCNHG@?$AA?9?$AA_?$AAP?$AAr?$AAc?$AAm?$AAD?$AAe?$AAv?$AAi?$AAc?$AAe?$AAE?$AAn?$AAa?$AAb?$AAl?$AAe?$AAI?$AAC?$AAl?$AAo?$AAc?$AAk?$AA_?$AAD?$AAS?$AAS?$AA?$CI?$AA?$CJ?$AA?$DN?$AA?$CF@ 00019638     OMAP3530_oal_prcm:prcm_device.obj
 0001:00008680       ??_C@_1FC@LEEBAIPA@?$AA?$CL?$AA_?$AAP?$AAr?$AAc?$AAm?$AAD?$AAe?$AAv?$AAi?$AAc?$AAe?$AAE?$AAn?$AAa?$AAb?$AAl?$AAe?$AAI?$AAC?$AAl?$AAo?$AAc?$AAk?$AA_?$AAD?$AAS?$AAS?$AA?$CI?$AAd?$AAe?$AAv@ 00019680     OMAP3530_oal_prcm:prcm_device.obj
 0001:000086d8       ??_C@_1EE@HJAJMPDD@?$AA?9?$AA_?$AAP?$AAr?$AAc?$AAm?$AAD?$AAe?$AAv?$AAi?$AAc?$AAe?$AAS?$AAe?$AAt?$AAS?$AAo?$AAu?$AAr?$AAc?$AAe?$AAC?$AAl?$AAo?$AAc?$AAk?$AA?$CI?$AA?$CJ?$AA?$DN?$AA?$CF?$AAd?$AA?$AN@ 000196d8     OMAP3530_oal_prcm:prcm_device.obj
 0001:00008720       ??_C@_1EO@LHILKJLD@?$AA?$CL?$AA_?$AAP?$AAr?$AAc?$AAm?$AAD?$AAe?$AAv?$AAi?$AAc?$AAe?$AAS?$AAe?$AAt?$AAS?$AAo?$AAu?$AAr?$AAc?$AAe?$AAC?$AAl?$AAo?$AAc?$AAk?$AA?$CI?$AAd?$AAe?$AAv?$AAI?$AAd@ 00019720     OMAP3530_oal_prcm:prcm_device.obj
 0001:00008770       ??_C@_1EE@JHHLFMG@?$AA?9?$AAP?$AAr?$AAc?$AAm?$AAD?$AAe?$AAv?$AAi?$AAc?$AAe?$AAG?$AAe?$AAt?$AAE?$AAn?$AAa?$AAb?$AAl?$AAe?$AAd?$AAS?$AAt?$AAa?$AAt?$AAe?$AA?$CI?$AA?$CJ?$AA?$DN?$AA?$CF?$AAd?$AA?$AN@ 00019770     OMAP3530_oal_prcm:prcm_device.obj
 0001:000087b8       ??_C@_1EO@HBNBPEKM@?$AA?$CL?$AAP?$AAr?$AAc?$AAm?$AAD?$AAe?$AAv?$AAi?$AAc?$AAe?$AAG?$AAe?$AAt?$AAE?$AAn?$AAa?$AAb?$AAl?$AAe?$AAd?$AAS?$AAt?$AAa?$AAt?$AAe?$AA?$CI?$AAd?$AAe?$AAv?$AAI?$AAd@ 000197b8     OMAP3530_oal_prcm:prcm_device.obj
 0001:00008808       ??_C@_1EG@DAEKPJBG@?$AA?9?$AAP?$AAr?$AAc?$AAm?$AAD?$AAe?$AAv?$AAi?$AAc?$AAe?$AAG?$AAe?$AAt?$AAA?$AAu?$AAt?$AAo?$AAI?$AAd?$AAl?$AAe?$AAS?$AAt?$AAa?$AAt?$AAe?$AA?$CI?$AA?$CJ?$AA?$DN?$AA?$CF?$AAd@ 00019808     OMAP3530_oal_prcm:prcm_device.obj
 0001:00008850       ??_C@_1FA@BNNNADLI@?$AA?$CL?$AAP?$AAr?$AAc?$AAm?$AAD?$AAe?$AAv?$AAi?$AAc?$AAe?$AAG?$AAe?$AAt?$AAA?$AAu?$AAt?$AAo?$AAI?$AAd?$AAl?$AAe?$AAS?$AAt?$AAa?$AAt?$AAe?$AA?$CI?$AAd?$AAe?$AAv?$AAI@ 00019850     OMAP3530_oal_prcm:prcm_device.obj
 0001:000088a0       ??_C@_1EE@MKDIBCEI@?$AA?9?$AAP?$AAr?$AAc?$AAm?$AAD?$AAe?$AAv?$AAi?$AAc?$AAe?$AAS?$AAe?$AAt?$AAS?$AAo?$AAu?$AAr?$AAc?$AAe?$AAC?$AAl?$AAo?$AAc?$AAk?$AAs?$AA?$CI?$AA?$CJ?$AA?$DN?$AA?$CF?$AAd?$AA?$AN@ 000198a0     OMAP3530_oal_prcm:prcm_device.obj
 0001:000088e8       ??_C@_1EO@EJAHHGM@?$AA?$CL?$AAP?$AAr?$AAc?$AAm?$AAD?$AAe?$AAv?$AAi?$AAc?$AAe?$AAS?$AAe?$AAt?$AAS?$AAo?$AAu?$AAr?$AAc?$AAe?$AAC?$AAl?$AAo?$AAc?$AAk?$AAs?$AA?$CI?$AAd?$AAe?$AAv?$AAI?$AAd@ 000198e8     OMAP3530_oal_prcm:prcm_device.obj
 0001:00008938       ??_C@_1DO@HIGIHNHE@?$AA?9?$AAP?$AAr?$AAc?$AAm?$AAD?$AAe?$AAv?$AAi?$AAc?$AAe?$AAE?$AAn?$AAa?$AAb?$AAl?$AAe?$AAI?$AAC?$AAl?$AAo?$AAc?$AAk?$AA?$CI?$AA?$CJ?$AA?$DN?$AA?$CF?$AAd?$AA?$AN?$AA?6?$AA?$AA@ 00019938     OMAP3530_oal_prcm:prcm_device.obj
 0001:00008978       ??_C@_1FE@KMJFBHPK@?$AA?5?$AAP?$AAr?$AAc?$AAm?$AAD?$AAe?$AAv?$AAi?$AAc?$AAe?$AAE?$AAn?$AAa?$AAb?$AAl?$AAe?$AAI?$AAC?$AAl?$AAo?$AAc?$AAk?$AA?5?$AA?$CF?$AAs?$AAu?$AAp?$AAd?$AAa?$AAt?$AAe@ 00019978     OMAP3530_oal_prcm:prcm_device.obj
 0001:000089cc       ??_C@_1M@JKENIMHM@?$AAs?$AAk?$AAi?$AAp?$AA?5?$AA?$AA@ 000199cc     OMAP3530_oal_prcm:prcm_device.obj
 0001:000089d8       ??_C@_1FA@FIBGHEOF@?$AA?$CL?$AAP?$AAr?$AAc?$AAm?$AAD?$AAe?$AAv?$AAi?$AAc?$AAe?$AAE?$AAn?$AAa?$AAb?$AAl?$AAe?$AAI?$AAC?$AAl?$AAo?$AAc?$AAk?$AA?$CI?$AAd?$AAe?$AAv?$AAI?$AAd?$AA?$DN?$AA?$CF?$AAd@ 000199d8     OMAP3530_oal_prcm:prcm_device.obj
 0001:00008a28       ??_C@_1DO@HBMOGGMP@?$AA?9?$AAP?$AAr?$AAc?$AAm?$AAD?$AAe?$AAv?$AAi?$AAc?$AAe?$AAE?$AAn?$AAa?$AAb?$AAl?$AAe?$AAF?$AAC?$AAl?$AAo?$AAc?$AAk?$AA?$CI?$AA?$CJ?$AA?$DN?$AA?$CF?$AAd?$AA?$AN?$AA?6?$AA?$AA@ 00019a28     OMAP3530_oal_prcm:prcm_device.obj
 0001:00008a68       ??_C@_1FE@HMEOIMKB@?$AA?5?$AAP?$AAr?$AAc?$AAm?$AAD?$AAe?$AAv?$AAi?$AAc?$AAe?$AAE?$AAn?$AAa?$AAb?$AAl?$AAe?$AAF?$AAC?$AAl?$AAo?$AAc?$AAk?$AA?5?$AA?$CF?$AAs?$AAu?$AAp?$AAd?$AAa?$AAt?$AAe@ 00019a68     OMAP3530_oal_prcm:prcm_device.obj
 0001:00008ac0       ??_C@_1FA@LELFGAEH@?$AA?$CL?$AAP?$AAr?$AAc?$AAm?$AAD?$AAe?$AAv?$AAi?$AAc?$AAe?$AAE?$AAn?$AAa?$AAb?$AAl?$AAe?$AAF?$AAC?$AAl?$AAo?$AAc?$AAk?$AA?$CI?$AAd?$AAe?$AAv?$AAI?$AAd?$AA?$DN?$AA?$CF?$AAd@ 00019ac0     OMAP3530_oal_prcm:prcm_device.obj
 0001:00008b10       ??_C@_1EC@PJGJDLC@?$AA?9?$AAP?$AAr?$AAc?$AAm?$AAD?$AAe?$AAv?$AAi?$AAc?$AAe?$AAE?$AAn?$AAa?$AAb?$AAl?$AAe?$AAA?$AAu?$AAt?$AAo?$AAI?$AAd?$AAl?$AAe?$AA?$CI?$AA?$CJ?$AA?$DN?$AA?$CF?$AAd?$AA?$AN?$AA?6@ 00019b10     OMAP3530_oal_prcm:prcm_device.obj
 0001:00008b58       ??_C@_1FE@LLCMNDJM@?$AA?$CL?$AAP?$AAr?$AAc?$AAm?$AAD?$AAe?$AAv?$AAi?$AAc?$AAe?$AAE?$AAn?$AAa?$AAb?$AAl?$AAe?$AAA?$AAu?$AAt?$AAo?$AAI?$AAd?$AAl?$AAe?$AA?$CI?$AAd?$AAe?$AAv?$AAI?$AAd?$AA?$DN@ 00019b58     OMAP3530_oal_prcm:prcm_device.obj
 0001:00008bb0       ??_C@_1EE@IPMFOJGB@?$AA?9?$AAP?$AAr?$AAc?$AAm?$AAD?$AAe?$AAv?$AAi?$AAc?$AAe?$AAG?$AAe?$AAt?$AAC?$AAo?$AAn?$AAt?$AAe?$AAx?$AAt?$AAS?$AAt?$AAa?$AAt?$AAe?$AA?$CI?$AA?$CJ?$AA?$DN?$AA?$CF?$AAd?$AA?$AN@ 00019bb0     OMAP3530_oal_prcm:prcm_device.obj
 0001:00008bf8       ??_C@_1EO@NBCGFJHE@?$AA?$CL?$AAP?$AAr?$AAc?$AAm?$AAD?$AAe?$AAv?$AAi?$AAc?$AAe?$AAG?$AAe?$AAt?$AAC?$AAo?$AAn?$AAt?$AAe?$AAx?$AAt?$AAS?$AAt?$AAa?$AAt?$AAe?$AA?$CI?$AAd?$AAe?$AAv?$AAI?$AAd@ 00019bf8     OMAP3530_oal_prcm:prcm_device.obj
 0001:00008c48       ??_C@_1EK@DOOJMPPH@?$AA?9?$AAP?$AAr?$AAc?$AAm?$AAD?$AAe?$AAv?$AAi?$AAc?$AAe?$AAG?$AAe?$AAt?$AAS?$AAo?$AAu?$AAr?$AAc?$AAe?$AAC?$AAl?$AAo?$AAc?$AAk?$AAI?$AAn?$AAf?$AAo?$AA?$CI?$AA?$CJ?$AA?$DN@ 00019c48     OMAP3530_oal_prcm:prcm_device.obj
 0001:00008c98       ??_C@_1FE@KDICNDAA@?$AA?$CL?$AAP?$AAr?$AAc?$AAm?$AAD?$AAe?$AAv?$AAi?$AAc?$AAe?$AAG?$AAe?$AAt?$AAS?$AAo?$AAu?$AAr?$AAc?$AAe?$AAC?$AAl?$AAo?$AAc?$AAk?$AAI?$AAn?$AAf?$AAo?$AA?$CI?$AAd?$AAe@ 00019c98     OMAP3530_oal_prcm:prcm_device.obj
 0001:00008cec       ??_C@_1CM@JHENNHB@?$AA?9?$AAD?$AAe?$AAv?$AAi?$AAc?$AAe?$AAI?$AAn?$AAi?$AAt?$AAi?$AAa?$AAl?$AAi?$AAz?$AAe?$AA?$CI?$AA?$CJ?$AA?$AN?$AA?6?$AA?$AA@ 00019cec     OMAP3530_oal_prcm:prcm_device.obj
 0001:00008d18       ??_C@_1CM@PFIEEMDN@?$AA?$CL?$AAD?$AAe?$AAv?$AAi?$AAc?$AAe?$AAI?$AAn?$AAi?$AAt?$AAi?$AAa?$AAl?$AAi?$AAz?$AAe?$AA?$CI?$AA?$CJ?$AA?$AN?$AA?6?$AA?$AA@ 00019d18     OMAP3530_oal_prcm:prcm_device.obj
 0001:00008d48       ??_C@_1EI@GJAPLPDB@?$AA?9?$AA_?$AAP?$AAr?$AAc?$AAm?$AAD?$AAe?$AAv?$AAi?$AAc?$AAe?$AAE?$AAn?$AAa?$AAb?$AAl?$AAe?$AAF?$AAC?$AAl?$AAo?$AAc?$AAk?$AA_?$AAD?$AAS?$AAS?$AA?$CI?$AA?$CJ?$AA?$DN?$AA?$CF@ 00019d48     OMAP3530_oal_prcm:prcm_device.obj
 0001:00008d90       ??_C@_1FC@FIOCBMFC@?$AA?$CL?$AA_?$AAP?$AAr?$AAc?$AAm?$AAD?$AAe?$AAv?$AAi?$AAc?$AAe?$AAE?$AAn?$AAa?$AAb?$AAl?$AAe?$AAF?$AAC?$AAl?$AAo?$AAc?$AAk?$AA_?$AAD?$AAS?$AAS?$AA?$CI?$AAd?$AAe?$AAv@ 00019d90     OMAP3530_oal_prcm:prcm_device.obj
 0001:00008de8       ??_C@_1EI@BGCBHLEJ@?$AA?9?$AA_?$AAP?$AAr?$AAc?$AAm?$AAD?$AAe?$AAv?$AAi?$AAc?$AAe?$AAE?$AAn?$AAa?$AAb?$AAl?$AAe?$AAF?$AAC?$AAl?$AAo?$AAc?$AAk?$AA_?$AAU?$AAS?$AAB?$AA?$CI?$AA?$CJ?$AA?$DN?$AA?$CF@ 00019de8     OMAP3530_oal_prcm:prcm_device.obj
 0001:00008e30       ??_C@_1FC@KOILFLNM@?$AA?$CL?$AA_?$AAP?$AAr?$AAc?$AAm?$AAD?$AAe?$AAv?$AAi?$AAc?$AAe?$AAE?$AAn?$AAa?$AAb?$AAl?$AAe?$AAF?$AAC?$AAl?$AAo?$AAc?$AAk?$AA_?$AAU?$AAS?$AAB?$AA?$CI?$AAd?$AAe?$AAv@ 00019e30     OMAP3530_oal_prcm:prcm_device.obj
 0001:00008e88       ??_C@_1EI@DKDBOJAO@?$AA?9?$AA_?$AAP?$AAr?$AAc?$AAm?$AAD?$AAe?$AAv?$AAi?$AAc?$AAe?$AAE?$AAn?$AAa?$AAb?$AAl?$AAe?$AAI?$AAC?$AAl?$AAo?$AAc?$AAk?$AA_?$AAU?$AAS?$AAB?$AA?$CI?$AA?$CJ?$AA?$DN?$AA?$CF@ 00019e88     OMAP3530_oal_prcm:prcm_device.obj
 0001:00008ed0       ??_C@_1FC@ECCIEPHO@?$AA?$CL?$AA_?$AAP?$AAr?$AAc?$AAm?$AAD?$AAe?$AAv?$AAi?$AAc?$AAe?$AAE?$AAn?$AAa?$AAb?$AAl?$AAe?$AAI?$AAC?$AAl?$AAo?$AAc?$AAk?$AA_?$AAU?$AAS?$AAB?$AA?$CI?$AAd?$AAe?$AAv@ 00019ed0     OMAP3530_oal_prcm:prcm_device.obj
 0001:00008f28       ??_C@_1EM@CGIDEPGJ@?$AA?9?$AA_?$AAP?$AAr?$AAc?$AAm?$AAD?$AAe?$AAv?$AAi?$AAc?$AAe?$AAS?$AAe?$AAt?$AAS?$AAo?$AAu?$AAr?$AAc?$AAe?$AAC?$AAl?$AAo?$AAc?$AAk?$AA_?$AAD?$AAS?$AAS?$AA?$CI?$AA?$CJ@ 00019f28     OMAP3530_oal_prcm:prcm_device.obj
 0001:00008f78       ??_C@_1FG@OBINGANC@?$AA?$CL?$AA_?$AAP?$AAr?$AAc?$AAm?$AAD?$AAe?$AAv?$AAi?$AAc?$AAe?$AAS?$AAe?$AAt?$AAS?$AAo?$AAu?$AAr?$AAc?$AAe?$AAC?$AAl?$AAo?$AAc?$AAk?$AA_?$AAD?$AAS?$AAS?$AA?$CI?$AAd@ 00019f78     OMAP3530_oal_prcm:prcm_device.obj
 0001:00009060       ??_C@_1CG@CDLGGGJO@?$AA?9?$AAO?$AAA?$AAL?$AAS?$AAR?$AAA?$AAM?$AAF?$AAn?$AAI?$AAn?$AAi?$AAt?$AA?$CI?$AA?$CJ?$AA?$AN?$AA?6?$AA?$AA@ 0001a060     OMAP3530_oal_prcm:prcm.obj
 0001:00009088       ??_C@_1CG@LIGGGGFA@?$AA?$CL?$AAO?$AAA?$AAL?$AAS?$AAR?$AAA?$AAM?$AAF?$AAn?$AAI?$AAn?$AAi?$AAt?$AA?$CI?$AA?$CJ?$AA?$AN?$AA?6?$AA?$AA@ 0001a088     OMAP3530_oal_prcm:prcm.obj
 0001:000090b0       ??_C@_1BM@IGMJLLMF@?$AA?9?$AAP?$AAr?$AAc?$AAm?$AAI?$AAn?$AAi?$AAt?$AA?$CI?$AA?$CJ?$AA?$AN?$AA?6?$AA?$AA@ 0001a0b0     OMAP3530_oal_prcm:prcm.obj
 0001:000090cc       ??_C@_1BM@IDHFLFIL@?$AA?$CL?$AAP?$AAr?$AAc?$AAm?$AAI?$AAn?$AAi?$AAt?$AA?$CI?$AA?$CJ?$AA?$AN?$AA?6?$AA?$AA@ 0001a0cc     OMAP3530_oal_prcm:prcm.obj
 0001:000090e8       ??_C@_1CE@FFFGKDPH@?$AA?9?$AAP?$AAr?$AAc?$AAm?$AAP?$AAo?$AAs?$AAt?$AAI?$AAn?$AAi?$AAt?$AA?$CI?$AA?$CJ?$AA?$AN?$AA?6?$AA?$AA@ 0001a0e8     OMAP3530_oal_prcm:prcm.obj
 0001:0000910c       ??_C@_1CE@JMJGFEAL@?$AA?$CL?$AAP?$AAr?$AAc?$AAm?$AAP?$AAo?$AAs?$AAt?$AAI?$AAn?$AAi?$AAt?$AA?$CI?$AA?$CJ?$AA?$AN?$AA?6?$AA?$AA@ 0001a10c     OMAP3530_oal_prcm:prcm.obj
 0001:00009130       ??_C@_1GO@KIJCCOCF@?$AA?9?$AAO?$AAA?$AAL?$AAI?$AAo?$AAC?$AAt?$AAl?$AAP?$AAr?$AAc?$AAm?$AAD?$AAe?$AAv?$AAi?$AAc?$AAe?$AAG?$AAe?$AAt?$AAD?$AAe?$AAv?$AAi?$AAc?$AAe?$AAM?$AAa?$AAn?$AAa@ 0001a130     OMAP3530_oal_prcm:prcm.obj
 0001:000091a0       ??_C@_1FM@ELGNEBJK@?$AA?$CL?$AAO?$AAA?$AAL?$AAI?$AAo?$AAC?$AAt?$AAl?$AAP?$AAr?$AAc?$AAm?$AAD?$AAe?$AAv?$AAi?$AAc?$AAe?$AAG?$AAe?$AAt?$AAD?$AAe?$AAv?$AAi?$AAc?$AAe?$AAM?$AAa?$AAn?$AAa@ 0001a1a0     OMAP3530_oal_prcm:prcm.obj
 0001:000091fc       ??_C@_1CK@MFCDILAE@?$AAP?$AAM?$AA_?$AAP?$AAR?$AAE?$AAP?$AAW?$AAS?$AAT?$AAS?$AAT?$AA_?$AAU?$AAS?$AAB?$AAH?$AAO?$AAS?$AAT?$AA?$AA@ 0001a1fc     OMAP3530_oal_prcm:prcm_clock.obj
 0001:00009228       ??_C@_1CE@DINMMLDJ@?$AAP?$AAM?$AA_?$AAP?$AAW?$AAS?$AAT?$AAS?$AAT?$AA_?$AAU?$AAS?$AAB?$AAH?$AAO?$AAS?$AAT?$AA?$AA@ 0001a228     OMAP3530_oal_prcm:prcm_clock.obj
 0001:0000924c       ??_C@_1CI@NFFMDMCO@?$AAP?$AAM?$AA_?$AAP?$AAW?$AAS?$AAT?$AAC?$AAT?$AAR?$AAL?$AA_?$AAU?$AAS?$AAB?$AAH?$AAO?$AAS?$AAT?$AA?$AA@ 0001a24c     OMAP3530_oal_prcm:prcm_clock.obj
 0001:00009274       ??_C@_1CC@BANAFHHA@?$AAP?$AAM?$AA_?$AAW?$AAK?$AAD?$AAE?$AAP?$AA_?$AAU?$AAS?$AAB?$AAH?$AAO?$AAS?$AAT?$AA?$AA@ 0001a274     OMAP3530_oal_prcm:prcm_clock.obj
 0001:00009298       ??_C@_1CA@CDELFGFE@?$AAP?$AAM?$AA_?$AAW?$AAK?$AAS?$AAT?$AA_?$AAU?$AAS?$AAB?$AAH?$AAO?$AAS?$AAT?$AA?$AA@ 0001a298     OMAP3530_oal_prcm:prcm_clock.obj
 0001:000092b8       ??_C@_1CM@CGFHEIFF@?$AAP?$AAM?$AA_?$AAI?$AAV?$AAA?$AA2?$AAG?$AAR?$AAP?$AAS?$AAE?$AAL?$AA_?$AAU?$AAS?$AAB?$AAH?$AAO?$AAS?$AAT?$AA?$AA@ 0001a2b8     OMAP3530_oal_prcm:prcm_clock.obj
 0001:000092e4       ??_C@_1CK@KEHDDHL@?$AAP?$AAM?$AA_?$AAM?$AAP?$AAU?$AAG?$AAR?$AAP?$AAS?$AAE?$AAL?$AA_?$AAU?$AAS?$AAB?$AAH?$AAO?$AAS?$AAT?$AA?$AA@ 0001a2e4     OMAP3530_oal_prcm:prcm_clock.obj
 0001:00009310       ??_C@_1CA@EPJOENIO@?$AAP?$AAM?$AA_?$AAW?$AAK?$AAE?$AAN?$AA_?$AAU?$AAS?$AAB?$AAH?$AAO?$AAS?$AAT?$AA?$AA@ 0001a310     OMAP3530_oal_prcm:prcm_clock.obj
 0001:00009330       ??_C@_1CC@ELENAOBE@?$AAR?$AAM?$AA_?$AAR?$AAS?$AAT?$AAS?$AAT?$AA_?$AAU?$AAS?$AAB?$AAH?$AAO?$AAS?$AAT?$AA?$AA@ 0001a330     OMAP3530_oal_prcm:prcm_clock.obj
 0001:00009354       ??_C@_1BI@BEADJOPF@?$AAU?$AAS?$AAB?$AAH?$AAO?$AAS?$AAT?$AA_?$AAP?$AAR?$AAM?$AA?$AA@ 0001a354     OMAP3530_oal_prcm:prcm_clock.obj
 0001:0000936c       ??_C@_1CE@PAIDKKJJ@?$AAP?$AAM?$AA_?$AAP?$AAR?$AAE?$AAP?$AAW?$AAS?$AAT?$AAS?$AAT?$AA_?$AAN?$AAE?$AAO?$AAN?$AA?$AA@ 0001a36c     OMAP3530_oal_prcm:prcm_clock.obj
 0001:00009390       ??_C@_1BO@FMNCDJII@?$AAP?$AAM?$AA_?$AAP?$AAW?$AAS?$AAT?$AAS?$AAT?$AA_?$AAN?$AAE?$AAO?$AAN?$AA?$AA@ 0001a390     OMAP3530_oal_prcm:prcm_clock.obj
 0001:000093b0       ??_C@_1CC@LCEDCBK@?$AAP?$AAM?$AA_?$AAP?$AAW?$AAS?$AAT?$AAC?$AAT?$AAR?$AAL?$AA_?$AAN?$AAE?$AAO?$AAN?$AA?$AA@ 0001a3b0     OMAP3530_oal_prcm:prcm_clock.obj
 0001:000093d4       ??_C@_1BM@GLAGIPO@?$AAP?$AAM?$AA_?$AAW?$AAK?$AAD?$AAE?$AAP?$AA_?$AAN?$AAE?$AAO?$AAN?$AA?$AA@ 0001a3d4     OMAP3530_oal_prcm:prcm_clock.obj
 0001:000093f0       ??_C@_1BM@LBPGJMOK@?$AAR?$AAM?$AA_?$AAR?$AAS?$AAT?$AAS?$AAT?$AA_?$AAN?$AAE?$AAO?$AAN?$AA?$AA@ 0001a3f0     OMAP3530_oal_prcm:prcm_clock.obj
 0001:0000940c       ??_C@_1BC@JEBNFJEB@?$AAN?$AAE?$AAO?$AAN?$AA_?$AAP?$AAR?$AAM?$AA?$AA@ 0001a40c     OMAP3530_oal_prcm:prcm_clock.obj
 0001:00009420       ??_C@_1BO@OOEJDAGP@?$AAP?$AAR?$AAM?$AA_?$AAV?$AAO?$AAL?$AAT?$AAS?$AAE?$AAT?$AAU?$AAP?$AA2?$AA?$AA@ 0001a420     OMAP3530_oal_prcm:prcm_clock.obj
 0001:00009440       ??_C@_1BI@HHOAEAAO@?$AAP?$AAR?$AAM?$AA_?$AAP?$AAO?$AAL?$AAC?$AAT?$AAR?$AAL?$AA?$AA@ 0001a440     OMAP3530_oal_prcm:prcm_clock.obj
 0001:00009458       ??_C@_1BK@INLANGOK@?$AAP?$AAR?$AAM?$AA_?$AAC?$AAL?$AAK?$AAS?$AAE?$AAT?$AAU?$AAP?$AA?$AA@ 0001a458     OMAP3530_oal_prcm:prcm_clock.obj
 0001:00009474       ??_C@_1BO@HNPCCMHL@?$AAP?$AAR?$AAM?$AA_?$AAV?$AAO?$AAL?$AAT?$AAO?$AAF?$AAF?$AAS?$AAE?$AAT?$AA?$AA@ 0001a474     OMAP3530_oal_prcm:prcm_clock.obj
 0001:00009494       ??_C@_1BO@PMPMJPIB@?$AAP?$AAR?$AAM?$AA_?$AAV?$AAO?$AAL?$AAT?$AAS?$AAE?$AAT?$AAU?$AAP?$AA1?$AA?$AA@ 0001a494     OMAP3530_oal_prcm:prcm_clock.obj
 0001:000094b4       ??_C@_1BA@JADOMDEP@?$AAP?$AAR?$AAM?$AA_?$AAO?$AAB?$AAS?$AA?$AA@ 0001a4b4     OMAP3530_oal_prcm:prcm_clock.obj
 0001:000094c4       ??_C@_1CA@DKBCEFNM@?$AAP?$AAR?$AAM?$AA_?$AAC?$AAL?$AAK?$AAS?$AAR?$AAC?$AA_?$AAC?$AAT?$AAR?$AAL?$AA?$AA@ 0001a4c4     OMAP3530_oal_prcm:prcm_clock.obj
 0001:000094e4       ??_C@_1CC@PEAEBONP@?$AAP?$AAR?$AAM?$AA_?$AAS?$AAR?$AAA?$AAM?$AA_?$AAP?$AAC?$AAH?$AAA?$AAR?$AAG?$AAE?$AA?$AA@ 0001a4e4     OMAP3530_oal_prcm:prcm_clock.obj
 0001:00009508       ??_C@_1BK@HFKALEHA@?$AAP?$AAR?$AAM?$AA_?$AAV?$AAO?$AAL?$AAT?$AAC?$AAT?$AAR?$AAL?$AA?$AA@ 0001a508     OMAP3530_oal_prcm:prcm_clock.obj
 0001:00009524       ??_C@_1BE@HPDPAFDK@?$AAP?$AAR?$AAM?$AA_?$AAR?$AAS?$AAT?$AAS?$AAT?$AA?$AA@ 0001a524     OMAP3530_oal_prcm:prcm_clock.obj
 0001:00009538       ??_C@_1BI@BLFHBCIB@?$AAP?$AAR?$AAM?$AA_?$AAR?$AAS?$AAT?$AAT?$AAI?$AAM?$AAE?$AA?$AA@ 0001a538     OMAP3530_oal_prcm:prcm_clock.obj
 0001:00009550       ??_C@_1BI@LGBDFDCO@?$AAP?$AAR?$AAM?$AA_?$AAR?$AAS?$AAT?$AAC?$AAT?$AAR?$AAL?$AA?$AA@ 0001a550     OMAP3530_oal_prcm:prcm_clock.obj
 0001:00009568       ??_C@_1CE@LCNFDOGA@?$AAP?$AAR?$AAM?$AA_?$AAV?$AAC?$AA_?$AAB?$AAY?$AAP?$AAA?$AAS?$AAS?$AA_?$AAV?$AAA?$AAL?$AA?$AA@ 0001a568     OMAP3530_oal_prcm:prcm_clock.obj
 0001:0000958c       ??_C@_1BO@CDICEJPF@?$AAP?$AAR?$AAM?$AA_?$AAV?$AAC?$AA_?$AAI?$AA2?$AAC?$AA_?$AAC?$AAF?$AAG?$AA?$AA@ 0001a58c     OMAP3530_oal_prcm:prcm_clock.obj
 0001:000095ac       ??_C@_1BO@NIKJKLFL@?$AAP?$AAR?$AAM?$AA_?$AAV?$AAC?$AA_?$AAC?$AAH?$AA_?$AAC?$AAO?$AAN?$AAF?$AA?$AA@ 0001a5ac     OMAP3530_oal_prcm:prcm_clock.obj
 0001:000095cc       ??_C@_1CC@GOJIALCP@?$AAP?$AAR?$AAM?$AA_?$AAV?$AAC?$AA_?$AAC?$AAM?$AAD?$AA_?$AAV?$AAA?$AAL?$AA_?$AA1?$AA?$AA@ 0001a5cc     OMAP3530_oal_prcm:prcm_clock.obj
 0001:000095f0       ??_C@_1CC@NGCEGMEK@?$AAP?$AAR?$AAM?$AA_?$AAV?$AAC?$AA_?$AAC?$AAM?$AAD?$AA_?$AAV?$AAA?$AAL?$AA_?$AA0?$AA?$AA@ 0001a5f0     OMAP3530_oal_prcm:prcm_clock.obj
 0001:00009614       ??_C@_1CG@PFFOICKB@?$AAP?$AAR?$AAM?$AA_?$AAV?$AAC?$AA_?$AAS?$AAM?$AAP?$AAS?$AA_?$AAC?$AAM?$AAD?$AA_?$AAR?$AAA?$AA?$AA@ 0001a614     OMAP3530_oal_prcm:prcm_clock.obj
 0001:0000963c       ??_C@_1CG@OIKDAOML@?$AAP?$AAR?$AAM?$AA_?$AAV?$AAC?$AA_?$AAS?$AAM?$AAP?$AAS?$AA_?$AAV?$AAO?$AAL?$AA_?$AAR?$AAA?$AA?$AA@ 0001a63c     OMAP3530_oal_prcm:prcm_clock.obj
 0001:00009664       ??_C@_1BO@LBDDPNOG@?$AAP?$AAR?$AAM?$AA_?$AAV?$AAC?$AA_?$AAS?$AAM?$AAP?$AAS?$AA_?$AAS?$AAA?$AA?$AA@ 0001a664     OMAP3530_oal_prcm:prcm_clock.obj
 0001:00009684       ??_C@_1BO@CAKCDBHG@?$AAG?$AAl?$AAo?$AAb?$AAa?$AAl?$AA_?$AAR?$AAe?$AAg?$AA_?$AAP?$AAR?$AAM?$AA?$AA@ 0001a684     OMAP3530_oal_prcm:prcm_clock.obj
 0001:000096a4       ??_C@_1BM@NIBECDJF@?$AAP?$AAM?$AA_?$AAP?$AAW?$AAS?$AAT?$AAS?$AAT?$AA_?$AAE?$AAM?$AAU?$AA?$AA@ 0001a6a4     OMAP3530_oal_prcm:prcm_clock.obj
 0001:000096c0       ??_C@_1BK@PHFAAKFB@?$AAR?$AAM?$AA_?$AAR?$AAS?$AAT?$AAS?$AAT?$AA_?$AAE?$AAM?$AAU?$AA?$AA@ 0001a6c0     OMAP3530_oal_prcm:prcm_clock.obj
 0001:000096dc       ??_C@_1BA@CAPJDCOP@?$AAE?$AAM?$AAU?$AA_?$AAP?$AAR?$AAM?$AA?$AA@ 0001a6dc     OMAP3530_oal_prcm:prcm_clock.obj
 0001:000096ec       ??_C@_1CC@EPBJKNIO@?$AAP?$AAM?$AA_?$AAP?$AAR?$AAE?$AAP?$AAW?$AAS?$AAT?$AAS?$AAT?$AA_?$AAP?$AAE?$AAR?$AA?$AA@ 0001a6ec     OMAP3530_oal_prcm:prcm_clock.obj
 0001:00009710       ??_C@_1BM@JNMLKGAO@?$AAP?$AAM?$AA_?$AAP?$AAW?$AAS?$AAT?$AAS?$AAT?$AA_?$AAP?$AAE?$AAR?$AA?$AA@ 0001a710     OMAP3530_oal_prcm:prcm_clock.obj
 0001:0000972c       ??_C@_1CA@EHOJHBAJ@?$AAP?$AAM?$AA_?$AAP?$AAW?$AAS?$AAT?$AAC?$AAT?$AAR?$AAL?$AA_?$AAP?$AAE?$AAR?$AA?$AA@ 0001a72c     OMAP3530_oal_prcm:prcm_clock.obj
 0001:0000974c       ??_C@_1BK@MOOMJEJF@?$AAP?$AAM?$AA_?$AAW?$AAK?$AAD?$AAE?$AAP?$AA_?$AAP?$AAE?$AAR?$AA?$AA@ 0001a74c     OMAP3530_oal_prcm:prcm_clock.obj
 0001:00009768       ??_C@_1BI@NCLGDPNJ@?$AAP?$AAM?$AA_?$AAW?$AAK?$AAS?$AAT?$AA_?$AAP?$AAE?$AAR?$AA?$AA@ 0001a768     OMAP3530_oal_prcm:prcm_clock.obj
 0001:00009780       ??_C@_1CE@KJGLJLDH@?$AAP?$AAM?$AA_?$AAI?$AAV?$AAA?$AA2?$AAG?$AAR?$AAP?$AAS?$AAE?$AAL?$AA_?$AAP?$AAE?$AAR?$AA?$AA@ 0001a780     OMAP3530_oal_prcm:prcm_clock.obj
 0001:000097a4       ??_C@_1CC@FABFMEFM@?$AAP?$AAM?$AA_?$AAM?$AAP?$AAU?$AAG?$AAR?$AAP?$AAS?$AAE?$AAL?$AA_?$AAP?$AAE?$AAR?$AA?$AA@ 0001a7a4     OMAP3530_oal_prcm:prcm_clock.obj
 0001:000097c8       ??_C@_1BI@KKOJENJO@?$AAP?$AAM?$AA_?$AAW?$AAK?$AAE?$AAN?$AA_?$AAP?$AAE?$AAR?$AA?$AA@ 0001a7c8     OMAP3530_oal_prcm:prcm_clock.obj
 0001:000097e0       ??_C@_1BK@LCIPIPMK@?$AAR?$AAM?$AA_?$AAR?$AAS?$AAT?$AAS?$AAT?$AA_?$AAP?$AAE?$AAR?$AA?$AA@ 0001a7e0     OMAP3530_oal_prcm:prcm_clock.obj
 0001:000097fc       ??_C@_1BA@PLEGCGNO@?$AAP?$AAE?$AAR?$AA_?$AAP?$AAR?$AAM?$AA?$AA@ 0001a7fc     OMAP3530_oal_prcm:prcm_clock.obj
 0001:0000980c       ??_C@_1CC@COMGJOJJ@?$AAP?$AAM?$AA_?$AAP?$AAR?$AAE?$AAP?$AAW?$AAS?$AAT?$AAS?$AAT?$AA_?$AAC?$AAA?$AAM?$AA?$AA@ 0001a80c     OMAP3530_oal_prcm:prcm_clock.obj
 0001:00009830       ??_C@_1BM@PMBEJFBJ@?$AAP?$AAM?$AA_?$AAP?$AAW?$AAS?$AAT?$AAS?$AAT?$AA_?$AAC?$AAA?$AAM?$AA?$AA@ 0001a830     OMAP3530_oal_prcm:prcm_clock.obj
 0001:0000984c       ??_C@_1CA@CGDGECBO@?$AAP?$AAM?$AA_?$AAP?$AAW?$AAS?$AAT?$AAC?$AAT?$AAR?$AAL?$AA_?$AAC?$AAA?$AAM?$AA?$AA@ 0001a84c     OMAP3530_oal_prcm:prcm_clock.obj
 0001:0000986c       ??_C@_1BK@KPDDKHIC@?$AAP?$AAM?$AA_?$AAW?$AAK?$AAD?$AAE?$AAP?$AA_?$AAC?$AAA?$AAM?$AA?$AA@ 0001a86c     OMAP3530_oal_prcm:prcm_clock.obj
 0001:00009888       ??_C@_1BK@NDFALMNN@?$AAR?$AAM?$AA_?$AAR?$AAS?$AAT?$AAS?$AAT?$AA_?$AAC?$AAA?$AAM?$AA?$AA@ 0001a888     OMAP3530_oal_prcm:prcm_clock.obj
 0001:000098a4       ??_C@_1BA@FDIJFBCE@?$AAC?$AAA?$AAM?$AA_?$AAP?$AAR?$AAM?$AA?$AA@ 0001a8a4     OMAP3530_oal_prcm:prcm_clock.obj
 0001:000098b4       ??_C@_1CC@NKNLBELM@?$AAP?$AAM?$AA_?$AAP?$AAR?$AAE?$AAP?$AAW?$AAS?$AAT?$AAS?$AAT?$AA_?$AAD?$AAS?$AAS?$AA?$AA@ 0001a8b4     OMAP3530_oal_prcm:prcm_clock.obj
 0001:000098d8       ??_C@_1BM@IAJBPDM@?$AAP?$AAM?$AA_?$AAP?$AAW?$AAS?$AAT?$AAS?$AAT?$AA_?$AAD?$AAS?$AAS?$AA?$AA@ 0001a8d8     OMAP3530_oal_prcm:prcm_clock.obj
 0001:000098f4       ??_C@_1CA@NCCLMIDL@?$AAP?$AAM?$AA_?$AAP?$AAW?$AAS?$AAT?$AAC?$AAT?$AAR?$AAL?$AA_?$AAD?$AAS?$AAS?$AA?$AA@ 0001a8f4     OMAP3530_oal_prcm:prcm_clock.obj
 0001:00009914       ??_C@_1BK@FLCOCNKH@?$AAP?$AAM?$AA_?$AAW?$AAK?$AAD?$AAE?$AAP?$AA_?$AAD?$AAS?$AAS?$AA?$AA@ 0001a914     OMAP3530_oal_prcm:prcm_clock.obj
 0001:00009930       ??_C@_1BI@DPCLPEKM@?$AAP?$AAM?$AA_?$AAW?$AAK?$AAE?$AAN?$AA_?$AAD?$AAS?$AAS?$AA?$AA@ 0001a930     OMAP3530_oal_prcm:prcm_clock.obj
 0001:00009948       ??_C@_1BK@CHENDGPI@?$AAR?$AAM?$AA_?$AAR?$AAS?$AAT?$AAS?$AAT?$AA_?$AAD?$AAS?$AAS?$AA?$AA@ 0001a948     OMAP3530_oal_prcm:prcm_clock.obj
 0001:00009964       ??_C@_1BA@MMIFGPHC@?$AAD?$AAS?$AAS?$AA_?$AAP?$AAR?$AAM?$AA?$AA@ 0001a964     OMAP3530_oal_prcm:prcm_clock.obj
 0001:00009974       ??_C@_1CA@PGMOAOBH@?$AAP?$AAR?$AAM?$AA_?$AAC?$AAL?$AAK?$AAO?$AAU?$AAT?$AA_?$AAC?$AAT?$AAR?$AAL?$AA?$AA@ 0001a974     OMAP3530_oal_prcm:prcm_clock.obj
 0001:00009994       ??_C@_1BG@BPBPBGIA@?$AAP?$AAR?$AAM?$AA_?$AAC?$AAL?$AAK?$AAS?$AAE?$AAL?$AA?$AA@ 0001a994     OMAP3530_oal_prcm:prcm_clock.obj
 0001:000099ac       ??_C@_1CM@BOLGGOBJ@?$AAC?$AAl?$AAo?$AAc?$AAk?$AA_?$AAC?$AAo?$AAn?$AAt?$AAr?$AAo?$AAl?$AA_?$AAR?$AAe?$AAg?$AA_?$AAP?$AAR?$AAM?$AA?$AA@ 0001a9ac     OMAP3530_oal_prcm:prcm_clock.obj
 0001:000099d8       ??_C@_1BK@MHMCLHIM@?$AAP?$AAM?$AA_?$AAW?$AAK?$AAS?$AAT?$AA_?$AAW?$AAK?$AAU?$AAP?$AA?$AA@ 0001a9d8     OMAP3530_oal_prcm:prcm_clock.obj
 0001:000099f4       ??_C@_1CG@NGIEHFMC@?$AAP?$AAM?$AA_?$AAI?$AAV?$AAA?$AA2?$AAG?$AAR?$AAP?$AAS?$AAE?$AAL?$AA_?$AAW?$AAK?$AAU?$AAP?$AA?$AA@ 0001a9f4     OMAP3530_oal_prcm:prcm_clock.obj
 0001:00009a1c       ??_C@_1CE@KLFJHCLF@?$AAP?$AAM?$AA_?$AAM?$AAP?$AAU?$AAG?$AAR?$AAP?$AAS?$AAE?$AAL?$AA_?$AAW?$AAK?$AAU?$AAP?$AA?$AA@ 0001aa1c     OMAP3530_oal_prcm:prcm_clock.obj
 0001:00009a40       ??_C@_1BK@MGPBAGAB@?$AAP?$AAM?$AA_?$AAW?$AAK?$AAE?$AAN?$AA_?$AAW?$AAK?$AAU?$AAP?$AA?$AA@ 0001aa40     OMAP3530_oal_prcm:prcm_clock.obj
 0001:00009a5c       ??_C@_1BC@DDJDDDAK@?$AAW?$AAK?$AAU?$AAP?$AA_?$AAP?$AAR?$AAM?$AA?$AA@ 0001aa5c     OMAP3530_oal_prcm:prcm_clock.obj
 0001:00009a70       ??_C@_1CC@ODODOLAC@?$AAP?$AAM?$AA_?$AAP?$AAR?$AAE?$AAP?$AAW?$AAS?$AAT?$AAS?$AAT?$AA_?$AAS?$AAG?$AAX?$AA?$AA@ 0001aa70     OMAP3530_oal_prcm:prcm_clock.obj
 0001:00009a94       ??_C@_1BM@DBDBOAIC@?$AAP?$AAM?$AA_?$AAP?$AAW?$AAS?$AAT?$AAS?$AAT?$AA_?$AAS?$AAG?$AAX?$AA?$AA@ 0001aa94     OMAP3530_oal_prcm:prcm_clock.obj
 0001:00009ab0       ??_C@_1CA@OLBDDHIF@?$AAP?$AAM?$AA_?$AAP?$AAW?$AAS?$AAT?$AAC?$AAT?$AAR?$AAL?$AA_?$AAS?$AAG?$AAX?$AA?$AA@ 0001aab0     OMAP3530_oal_prcm:prcm_clock.obj
 0001:00009ad0       ??_C@_1BK@GCBGNCBJ@?$AAP?$AAM?$AA_?$AAW?$AAK?$AAD?$AAE?$AAP?$AA_?$AAS?$AAG?$AAX?$AA?$AA@ 0001aad0     OMAP3530_oal_prcm:prcm_clock.obj
 0001:00009aec       ??_C@_1BK@BOHFMJEG@?$AAR?$AAM?$AA_?$AAR?$AAS?$AAT?$AAS?$AAT?$AA_?$AAS?$AAG?$AAX?$AA?$AA@ 0001aaec     OMAP3530_oal_prcm:prcm_clock.obj
 0001:00009b08       ??_C@_1BA@NJNHLOOA@?$AAS?$AAG?$AAX?$AA_?$AAP?$AAR?$AAM?$AA?$AA@ 0001ab08     OMAP3530_oal_prcm:prcm_clock.obj
 0001:00009b18       ??_C@_1CG@JIDDONFN@?$AAP?$AAM?$AA_?$AAM?$AAP?$AAU?$AAG?$AAR?$AAP?$AAS?$AAE?$AAL?$AA3?$AA_?$AAC?$AAO?$AAR?$AAE?$AA?$AA@ 0001ab18     OMAP3530_oal_prcm:prcm_clock.obj
 0001:00009b40       ??_C@_1CI@GGCJOKBC@?$AAP?$AAM?$AA_?$AAI?$AAV?$AAA?$AA2?$AAG?$AAR?$AAP?$AAS?$AAE?$AAL?$AA3?$AA_?$AAC?$AAO?$AAR?$AAE?$AA?$AA@ 0001ab40     OMAP3530_oal_prcm:prcm_clock.obj
 0001:00009b68       ??_C@_1BM@EPPCFOGM@?$AAP?$AAM?$AA_?$AAW?$AAK?$AAE?$AAN?$AA3?$AA_?$AAC?$AAO?$AAR?$AAE?$AA?$AA@ 0001ab68     OMAP3530_oal_prcm:prcm_clock.obj
 0001:00009b84       ??_C@_1CE@PMPEKLKF@?$AAP?$AAM?$AA_?$AAP?$AAR?$AAE?$AAP?$AAW?$AAS?$AAT?$AAS?$AAT?$AA_?$AAC?$AAO?$AAR?$AAE?$AA?$AA@ 0001ab84     OMAP3530_oal_prcm:prcm_clock.obj
 0001:00009ba8       ??_C@_1BO@FAKFDILE@?$AAP?$AAM?$AA_?$AAP?$AAW?$AAS?$AAT?$AAS?$AAT?$AA_?$AAC?$AAO?$AAR?$AAE?$AA?$AA@ 0001aba8     OMAP3530_oal_prcm:prcm_clock.obj
 0001:00009bc8       ??_C@_1CC@HFDDDCG@?$AAP?$AAM?$AA_?$AAP?$AAW?$AAS?$AAT?$AAC?$AAT?$AAR?$AAL?$AA_?$AAC?$AAO?$AAR?$AAE?$AA?$AA@ 0001abc8     OMAP3530_oal_prcm:prcm_clock.obj
 0001:00009bec       ??_C@_1BM@HNLJDKED@?$AAP?$AAM?$AA_?$AAW?$AAK?$AAS?$AAT?$AA3?$AA_?$AAC?$AAO?$AAR?$AAE?$AA?$AA@ 0001abec     OMAP3530_oal_prcm:prcm_clock.obj
 0001:00009c08       ??_C@_1BM@JMNHPOOO@?$AAP?$AAM?$AA_?$AAW?$AAK?$AAS?$AAT?$AA1?$AA_?$AAC?$AAO?$AAR?$AAE?$AA?$AA@ 0001ac08     OMAP3530_oal_prcm:prcm_clock.obj
 0001:00009c24       ??_C@_1CI@IHEHCOLP@?$AAP?$AAM?$AA_?$AAI?$AAV?$AAA?$AA2?$AAG?$AAR?$AAP?$AAS?$AAE?$AAL?$AA1?$AA_?$AAC?$AAO?$AAR?$AAE?$AA?$AA@ 0001ac24     OMAP3530_oal_prcm:prcm_clock.obj
 0001:00009c4c       ??_C@_1CG@HJFNCJPA@?$AAP?$AAM?$AA_?$AAM?$AAP?$AAU?$AAG?$AAR?$AAP?$AAS?$AAE?$AAL?$AA1?$AA_?$AAC?$AAO?$AAR?$AAE?$AA?$AA@ 0001ac4c     OMAP3530_oal_prcm:prcm_clock.obj
 0001:00009c74       ??_C@_1BM@KOJMJKMB@?$AAP?$AAM?$AA_?$AAW?$AAK?$AAE?$AAN?$AA1?$AA_?$AAC?$AAO?$AAR?$AAE?$AA?$AA@ 0001ac74     OMAP3530_oal_prcm:prcm_clock.obj
 0001:00009c90       ??_C@_1BM@LNIBJNNG@?$AAR?$AAM?$AA_?$AAR?$AAS?$AAT?$AAS?$AAT?$AA_?$AAC?$AAO?$AAR?$AAE?$AA?$AA@ 0001ac90     OMAP3530_oal_prcm:prcm_clock.obj
 0001:00009cac       ??_C@_1BC@DDNPMELP@?$AAC?$AAO?$AAR?$AAE?$AA_?$AAP?$AAR?$AAM?$AA?$AA@ 0001acac     OMAP3530_oal_prcm:prcm_clock.obj
 0001:00009cc0       ??_C@_1CC@GGGLCCOF@?$AAP?$AAM?$AA_?$AAP?$AAR?$AAE?$AAP?$AAW?$AAS?$AAT?$AAS?$AAT?$AA_?$AAM?$AAP?$AAU?$AA?$AA@ 0001acc0     OMAP3530_oal_prcm:prcm_clock.obj
 0001:00009ce4       ??_C@_1BM@LELJCJGF@?$AAP?$AAM?$AA_?$AAP?$AAW?$AAS?$AAT?$AAS?$AAT?$AA_?$AAM?$AAP?$AAU?$AA?$AA@ 0001ace4     OMAP3530_oal_prcm:prcm_clock.obj
 0001:00009d00       ??_C@_1CA@GOJLPOGC@?$AAP?$AAM?$AA_?$AAP?$AAW?$AAS?$AAT?$AAC?$AAT?$AAR?$AAL?$AA_?$AAM?$AAP?$AAU?$AA?$AA@ 0001ad00     OMAP3530_oal_prcm:prcm_clock.obj
 0001:00009d20       ??_C@_1CG@EAPFPBNK@?$AAP?$AAM?$AA_?$AAE?$AAV?$AAG?$AAE?$AAN?$AAO?$AAF?$AAF?$AAT?$AAI?$AAM?$AA_?$AAM?$AAP?$AAU?$AA?$AA@ 0001ad20     OMAP3530_oal_prcm:prcm_clock.obj
 0001:00009d48       ??_C@_1CE@GDJAJDKH@?$AAP?$AAM?$AA_?$AAE?$AAV?$AAG?$AAE?$AAN?$AAO?$AAN?$AAT?$AAI?$AAM?$AA_?$AAM?$AAP?$AAU?$AA?$AA@ 0001ad48     OMAP3530_oal_prcm:prcm_clock.obj
 0001:00009d6c       ??_C@_1CC@MKEFHNLB@?$AAP?$AAM?$AA_?$AAE?$AAV?$AAG?$AAE?$AAN?$AAC?$AAT?$AAR?$AAL?$AA_?$AAM?$AAP?$AAU?$AA?$AA@ 0001ad6c     OMAP3530_oal_prcm:prcm_clock.obj
 0001:00009d90       ??_C@_1BK@OHJOBLPO@?$AAP?$AAM?$AA_?$AAW?$AAK?$AAD?$AAE?$AAP?$AA_?$AAM?$AAP?$AAU?$AA?$AA@ 0001ad90     OMAP3530_oal_prcm:prcm_clock.obj
 0001:00009dac       ??_C@_1BK@JLPNAAKB@?$AAR?$AAM?$AA_?$AAR?$AAS?$AAT?$AAS?$AAT?$AA_?$AAM?$AAP?$AAU?$AA?$AA@ 0001adac     OMAP3530_oal_prcm:prcm_clock.obj
 0001:00009dc8       ??_C@_1BA@ICKCOBJH@?$AAM?$AAP?$AAU?$AA_?$AAP?$AAR?$AAM?$AA?$AA@ 0001adc8     OMAP3530_oal_prcm:prcm_clock.obj
 0001:00009dd8       ??_C@_1CE@BEHICOCH@?$AAP?$AAR?$AAM?$AA_?$AAI?$AAR?$AAQ?$AAE?$AAN?$AAA?$AAB?$AAL?$AAE?$AA_?$AAM?$AAP?$AAU?$AA?$AA@ 0001add8     OMAP3530_oal_prcm:prcm_clock.obj
 0001:00009dfc       ??_C@_1CE@OGNKOJLH@?$AAP?$AAR?$AAM?$AA_?$AAI?$AAR?$AAQ?$AAS?$AAT?$AAA?$AAT?$AAU?$AAS?$AA_?$AAM?$AAP?$AAU?$AA?$AA@ 0001adfc     OMAP3530_oal_prcm:prcm_clock.obj
 0001:00009e20       ??_C@_1BM@BIKNBGAP@?$AAP?$AAR?$AAM?$AA_?$AAS?$AAY?$AAS?$AAC?$AAO?$AAN?$AAF?$AAI?$AAG?$AA?$AA@ 0001ae20     OMAP3530_oal_prcm:prcm_clock.obj
 0001:00009e3c       ??_C@_1BK@HJNIKPGD@?$AAP?$AAR?$AAM?$AA_?$AAR?$AAE?$AAV?$AAI?$AAS?$AAI?$AAO?$AAN?$AA?$AA@ 0001ae3c     OMAP3530_oal_prcm:prcm_clock.obj
 0001:00009e58       ??_C@_1CG@MLMHCLLI@?$AAO?$AAC?$AAP?$AA_?$AAS?$AAy?$AAs?$AAt?$AAe?$AAm?$AA_?$AAR?$AAe?$AAg?$AA_?$AAP?$AAR?$AAM?$AA?$AA@ 0001ae58     OMAP3530_oal_prcm:prcm_clock.obj
 0001:00009e80       ??_C@_1CG@LPCHCII@?$AAP?$AAR?$AAM?$AA_?$AAI?$AAR?$AAQ?$AAE?$AAN?$AAA?$AAB?$AAL?$AAE?$AA_?$AAI?$AAV?$AAA?$AA2?$AA?$AA@ 0001ae80     OMAP3530_oal_prcm:prcm_clock.obj
 0001:00009ea8       ??_C@_1CG@HPLDFNCD@?$AAP?$AAR?$AAM?$AA_?$AAI?$AAR?$AAQ?$AAS?$AAT?$AAA?$AAT?$AAU?$AAS?$AA_?$AAI?$AAV?$AAA?$AA2?$AA?$AA@ 0001aea8     OMAP3530_oal_prcm:prcm_clock.obj
 0001:00009ed0       ??_C@_1CE@PLIIPJHM@?$AAP?$AAM?$AA_?$AAP?$AAR?$AAE?$AAP?$AAW?$AAS?$AAT?$AAS?$AAT?$AA_?$AAI?$AAV?$AAA?$AA2?$AA?$AA@ 0001aed0     OMAP3530_oal_prcm:prcm_clock.obj
 0001:00009ef4       ??_C@_1BO@FHNJGKGN@?$AAP?$AAM?$AA_?$AAP?$AAW?$AAS?$AAT?$AAS?$AAT?$AA_?$AAI?$AAV?$AAA?$AA2?$AA?$AA@ 0001aef4     OMAP3530_oal_prcm:prcm_clock.obj
 0001:00009f14       ??_C@_1CC@CPGBPP@?$AAP?$AAM?$AA_?$AAP?$AAW?$AAS?$AAT?$AAC?$AAT?$AAR?$AAL?$AA_?$AAI?$AAV?$AAA?$AA2?$AA?$AA@ 0001af14     OMAP3530_oal_prcm:prcm_clock.obj
 0001:00009f38       ??_C@_1BM@NLLDLBL@?$AAP?$AAM?$AA_?$AAW?$AAK?$AAD?$AAE?$AAP?$AA_?$AAI?$AAV?$AAA?$AA2?$AA?$AA@ 0001af38     OMAP3530_oal_prcm:prcm_clock.obj
 0001:00009f54       ??_C@_1BM@LKPNMPAP@?$AAR?$AAM?$AA_?$AAR?$AAS?$AAT?$AAS?$AAT?$AA_?$AAI?$AAV?$AAA?$AA2?$AA?$AA@ 0001af54     OMAP3530_oal_prcm:prcm_clock.obj
 0001:00009f70       ??_C@_1CA@GBOALOJP@?$AAR?$AAM?$AA_?$AAR?$AAS?$AAT?$AAC?$AAT?$AAR?$AAL?$AA_?$AAI?$AAV?$AAA?$AA2?$AA?$AA@ 0001af70     OMAP3530_oal_prcm:prcm_clock.obj
 0001:00009f90       ??_C@_1BC@FAAHEALM@?$AAI?$AAV?$AAA?$AA2?$AA_?$AAP?$AAR?$AAM?$AA?$AA@ 0001af90     OMAP3530_oal_prcm:prcm_clock.obj
 0001:00009fa4       ??_C@_1CG@EKKJOCAI@?$AAC?$AAM?$AA_?$AAC?$AAL?$AAK?$AAS?$AAT?$AAS?$AAT?$AA_?$AAU?$AAS?$AAB?$AAH?$AAO?$AAS?$AAT?$AA?$AA@ 0001afa4     OMAP3530_oal_prcm:prcm_clock.obj
 0001:00009fcc       ??_C@_1CK@EGBEEDCG@?$AAC?$AAM?$AA_?$AAC?$AAL?$AAK?$AAS?$AAT?$AAC?$AAT?$AAR?$AAL?$AA_?$AAU?$AAS?$AAB?$AAH?$AAO?$AAS?$AAT?$AA?$AA@ 0001afcc     OMAP3530_oal_prcm:prcm_clock.obj
 0001:00009ff8       ??_C@_1CI@GKCHFPIN@?$AAC?$AAM?$AA_?$AAS?$AAL?$AAE?$AAE?$AAP?$AAD?$AAE?$AAP?$AA_?$AAU?$AAS?$AAB?$AAH?$AAO?$AAS?$AAT?$AA?$AA@ 0001aff8     OMAP3530_oal_prcm:prcm_clock.obj
 0001:0000a020       ??_C@_1CI@DGALJPCE@?$AAC?$AAM?$AA_?$AAA?$AAU?$AAT?$AAO?$AAI?$AAD?$AAL?$AAE?$AA_?$AAU?$AAS?$AAB?$AAH?$AAO?$AAS?$AAT?$AA?$AA@ 0001b020     OMAP3530_oal_prcm:prcm_clock.obj
 0001:0000a048       ??_C@_1CE@JPANCJP@?$AAC?$AAM?$AA_?$AAI?$AAD?$AAL?$AAE?$AAS?$AAT?$AA_?$AAU?$AAS?$AAB?$AAH?$AAO?$AAS?$AAT?$AA?$AA@ 0001b048     OMAP3530_oal_prcm:prcm_clock.obj
 0001:0000a06c       ??_C@_1CE@DBMFEPI@?$AAC?$AAM?$AA_?$AAI?$AAC?$AAL?$AAK?$AAE?$AAN?$AA_?$AAU?$AAS?$AAB?$AAH?$AAO?$AAS?$AAT?$AA?$AA@ 0001b06c     OMAP3530_oal_prcm:prcm_clock.obj
 0001:0000a090       ??_C@_1CE@IOEIODMB@?$AAC?$AAM?$AA_?$AAF?$AAC?$AAL?$AAK?$AAE?$AAN?$AA_?$AAU?$AAS?$AAB?$AAH?$AAO?$AAS?$AAT?$AA?$AA@ 0001b090     OMAP3530_oal_prcm:prcm_clock.obj
 0001:0000a0b4       ??_C@_1BG@GHMGBAHH@?$AAU?$AAS?$AAB?$AAH?$AAO?$AAS?$AAT?$AA_?$AAC?$AAM?$AA?$AA@ 0001b0b4     OMAP3530_oal_prcm:prcm_clock.obj
 0001:0000a0cc       ??_C@_1CE@ECPHHBNM@?$AAC?$AAM?$AA_?$AAC?$AAL?$AAK?$AAS?$AAT?$AAC?$AAT?$AAR?$AAL?$AA_?$AAN?$AAE?$AAO?$AAN?$AA?$AA@ 0001b0cc     OMAP3530_oal_prcm:prcm_clock.obj
 0001:0000a0f0       ??_C@_1BO@IJPLNAMK@?$AAC?$AAM?$AA_?$AAI?$AAD?$AAL?$AAE?$AAS?$AAT?$AA_?$AAN?$AAE?$AAO?$AAN?$AA?$AA@ 0001b0f0     OMAP3530_oal_prcm:prcm_clock.obj
 0001:0000a110       ??_C@_1BA@HGJCCLLN@?$AAN?$AAE?$AAO?$AAN?$AA_?$AAC?$AAM?$AA?$AA@ 0001b110     OMAP3530_oal_prcm:prcm_clock.obj
 0001:0000a120       ??_C@_1BG@JLGAJAMH@?$AAC?$AAM?$AA_?$AAP?$AAO?$AAL?$AAC?$AAT?$AAR?$AAL?$AA?$AA@ 0001b120     OMAP3530_oal_prcm:prcm_clock.obj
 0001:0000a138       ??_C@_1BM@KLCMOAEB@?$AAG?$AAl?$AAo?$AAb?$AAa?$AAl?$AA_?$AAR?$AAe?$AAg?$AA_?$AAC?$AAM?$AA?$AA@ 0001b138     OMAP3530_oal_prcm:prcm_clock.obj
 0001:0000a154       ??_C@_1BO@DFKMIPJP@?$AAC?$AAM?$AA_?$AAC?$AAL?$AAK?$AAS?$AAE?$AAL?$AA3?$AA_?$AAE?$AAM?$AAU?$AA?$AA@ 0001b154     OMAP3530_oal_prcm:prcm_clock.obj
 0001:0000a174       ??_C@_1BO@KOAJMDPA@?$AAC?$AAM?$AA_?$AAC?$AAL?$AAK?$AAS?$AAE?$AAL?$AA2?$AA_?$AAE?$AAM?$AAU?$AA?$AA@ 0001b174     OMAP3530_oal_prcm:prcm_clock.obj
 0001:0000a194       ??_C@_1BO@BBAPCNIN@?$AAC?$AAM?$AA_?$AAC?$AAL?$AAK?$AAS?$AAT?$AAS?$AAT?$AA_?$AAE?$AAM?$AAU?$AA?$AA@ 0001b194     OMAP3530_oal_prcm:prcm_clock.obj
 0001:0000a1b4       ??_C@_1CC@NGILBHGG@?$AAC?$AAM?$AA_?$AAC?$AAL?$AAK?$AAS?$AAT?$AAC?$AAT?$AAR?$AAL?$AA_?$AAE?$AAM?$AAU?$AA?$AA@ 0001b1b4     OMAP3530_oal_prcm:prcm_clock.obj
 0001:0000a1d8       ??_C@_1BO@NJJHBBAA@?$AAC?$AAM?$AA_?$AAC?$AAL?$AAK?$AAS?$AAE?$AAL?$AA1?$AA_?$AAE?$AAM?$AAU?$AA?$AA@ 0001b1d8     OMAP3530_oal_prcm:prcm_clock.obj
 0001:0000a1f8       ??_C@_1O@HGBLPNPO@?$AAE?$AAM?$AAU?$AA_?$AAC?$AAM?$AA?$AA@ 0001b1f8     OMAP3530_oal_prcm:prcm_clock.obj
 0001:0000a208       ??_C@_1BO@FENAKIBG@?$AAC?$AAM?$AA_?$AAC?$AAL?$AAK?$AAS?$AAT?$AAS?$AAT?$AA_?$AAP?$AAE?$AAR?$AA?$AA@ 0001b208     OMAP3530_oal_prcm:prcm_clock.obj
 0001:0000a228       ??_C@_1CC@JDFEJCPN@?$AAC?$AAM?$AA_?$AAC?$AAL?$AAK?$AAS?$AAT?$AAC?$AAT?$AAR?$AAL?$AA_?$AAP?$AAE?$AAR?$AA?$AA@ 0001b228     OMAP3530_oal_prcm:prcm_clock.obj
 0001:0000a24c       ??_C@_1CA@OCEIBJJL@?$AAC?$AAM?$AA_?$AAS?$AAL?$AAE?$AAE?$AAP?$AAD?$AAE?$AAP?$AA_?$AAP?$AAE?$AAR?$AA?$AA@ 0001b24c     OMAP3530_oal_prcm:prcm_clock.obj
 0001:0000a26c       ??_C@_1BM@JGBOEBBM@?$AAC?$AAM?$AA_?$AAC?$AAL?$AAK?$AAS?$AAE?$AAL?$AA_?$AAP?$AAE?$AAR?$AA?$AA@ 0001b26c     OMAP3530_oal_prcm:prcm_clock.obj
 0001:0000a288       ??_C@_1CA@HEJEIAMO@?$AAC?$AAM?$AA_?$AAA?$AAU?$AAT?$AAO?$AAI?$AAD?$AAL?$AAE?$AA_?$AAP?$AAE?$AAR?$AA?$AA@ 0001b288     OMAP3530_oal_prcm:prcm_clock.obj
 0001:0000a2a8       ??_C@_1BM@FMCKMJOI@?$AAC?$AAM?$AA_?$AAI?$AAD?$AAL?$AAE?$AAS?$AAT?$AA_?$AAP?$AAE?$AAR?$AA?$AA@ 0001b2a8     OMAP3530_oal_prcm:prcm_clock.obj
 0001:0000a2c4       ??_C@_1BM@OFLDOLJH@?$AAC?$AAM?$AA_?$AAI?$AAC?$AAL?$AAK?$AAE?$AAN?$AA_?$AAP?$AAE?$AAR?$AA?$AA@ 0001b2c4     OMAP3530_oal_prcm:prcm_clock.obj
 0001:0000a2e0       ??_C@_1BM@DJCJPDNH@?$AAC?$AAM?$AA_?$AAF?$AAC?$AAL?$AAK?$AAE?$AAN?$AA_?$AAP?$AAE?$AAR?$AA?$AA@ 0001b2e0     OMAP3530_oal_prcm:prcm_clock.obj
 0001:0000a2fc       ??_C@_1O@HANKMCHI@?$AAP?$AAE?$AAR?$AA_?$AAC?$AAM?$AA?$AA@ 0001b2fc     OMAP3530_oal_prcm:prcm_clock.obj
 0001:0000a30c       ??_C@_1BO@DFAPJLAB@?$AAC?$AAM?$AA_?$AAC?$AAL?$AAK?$AAS?$AAT?$AAS?$AAT?$AA_?$AAC?$AAA?$AAM?$AA?$AA@ 0001b30c     OMAP3530_oal_prcm:prcm_clock.obj
 0001:0000a32c       ??_C@_1CC@PCILKBOK@?$AAC?$AAM?$AA_?$AAC?$AAL?$AAK?$AAS?$AAT?$AAC?$AAT?$AAR?$AAL?$AA_?$AAC?$AAA?$AAM?$AA?$AA@ 0001b32c     OMAP3530_oal_prcm:prcm_clock.obj
 0001:0000a350       ??_C@_1CA@IDJHCKIM@?$AAC?$AAM?$AA_?$AAS?$AAL?$AAE?$AAE?$AAP?$AAD?$AAE?$AAP?$AA_?$AAC?$AAA?$AAM?$AA?$AA@ 0001b350     OMAP3530_oal_prcm:prcm_clock.obj
 0001:0000a370       ??_C@_1BM@PHMBHCAL@?$AAC?$AAM?$AA_?$AAC?$AAL?$AAK?$AAS?$AAE?$AAL?$AA_?$AAC?$AAA?$AAM?$AA?$AA@ 0001b370     OMAP3530_oal_prcm:prcm_clock.obj
 0001:0000a38c       ??_C@_1CA@BFELLDNJ@?$AAC?$AAM?$AA_?$AAA?$AAU?$AAT?$AAO?$AAI?$AAD?$AAL?$AAE?$AA_?$AAC?$AAA?$AAM?$AA?$AA@ 0001b38c     OMAP3530_oal_prcm:prcm_clock.obj
 0001:0000a3ac       ??_C@_1BM@DNPFPKPP@?$AAC?$AAM?$AA_?$AAI?$AAD?$AAL?$AAE?$AAS?$AAT?$AA_?$AAC?$AAA?$AAM?$AA?$AA@ 0001b3ac     OMAP3530_oal_prcm:prcm_clock.obj
 0001:0000a3c8       ??_C@_1BM@IEGMNIIA@?$AAC?$AAM?$AA_?$AAI?$AAC?$AAL?$AAK?$AAE?$AAN?$AA_?$AAC?$AAA?$AAM?$AA?$AA@ 0001b3c8     OMAP3530_oal_prcm:prcm_clock.obj
 0001:0000a3e4       ??_C@_1BM@FIPGMAMA@?$AAC?$AAM?$AA_?$AAF?$AAC?$AAL?$AAK?$AAE?$AAN?$AA_?$AAC?$AAA?$AAM?$AA?$AA@ 0001b3e4     OMAP3530_oal_prcm:prcm_clock.obj
 0001:0000a400       ??_C@_1O@LPKKDKNF@?$AAC?$AAA?$AAM?$AA_?$AAC?$AAM?$AA?$AA@ 0001b400     OMAP3530_oal_prcm:prcm_clock.obj
 0001:0000a410       ??_C@_1BO@MBBCBBCE@?$AAC?$AAM?$AA_?$AAC?$AAL?$AAK?$AAS?$AAT?$AAS?$AAT?$AA_?$AAD?$AAS?$AAS?$AA?$AA@ 0001b410     OMAP3530_oal_prcm:prcm_clock.obj
 0001:0000a430       ??_C@_1CC@GJGCLMP@?$AAC?$AAM?$AA_?$AAC?$AAL?$AAK?$AAS?$AAT?$AAC?$AAT?$AAR?$AAL?$AA_?$AAD?$AAS?$AAS?$AA?$AA@ 0001b430     OMAP3530_oal_prcm:prcm_clock.obj
 0001:0000a454       ??_C@_1CA@HHIKKAKJ@?$AAC?$AAM?$AA_?$AAS?$AAL?$AAE?$AAE?$AAP?$AAD?$AAE?$AAP?$AA_?$AAD?$AAS?$AAS?$AA?$AA@ 0001b454     OMAP3530_oal_prcm:prcm_clock.obj
 0001:0000a474       ??_C@_1BM@DNMPICO@?$AAC?$AAM?$AA_?$AAC?$AAL?$AAK?$AAS?$AAE?$AAL?$AA_?$AAD?$AAS?$AAS?$AA?$AA@ 0001b474     OMAP3530_oal_prcm:prcm_clock.obj
 0001:0000a490       ??_C@_1CA@OBFGDJPM@?$AAC?$AAM?$AA_?$AAA?$AAU?$AAT?$AAO?$AAI?$AAD?$AAL?$AAE?$AA_?$AAD?$AAS?$AAS?$AA?$AA@ 0001b490     OMAP3530_oal_prcm:prcm_clock.obj
 0001:0000a4b0       ??_C@_1BM@MJOIHANK@?$AAC?$AAM?$AA_?$AAI?$AAD?$AAL?$AAE?$AAS?$AAT?$AA_?$AAD?$AAS?$AAS?$AA?$AA@ 0001b4b0     OMAP3530_oal_prcm:prcm_clock.obj
 0001:0000a4cc       ??_C@_1BM@HAHBFCKF@?$AAC?$AAM?$AA_?$AAI?$AAC?$AAL?$AAK?$AAE?$AAN?$AA_?$AAD?$AAS?$AAS?$AA?$AA@ 0001b4cc     OMAP3530_oal_prcm:prcm_clock.obj
 0001:0000a4e8       ??_C@_1BM@KMOLEKOF@?$AAC?$AAM?$AA_?$AAF?$AAC?$AAL?$AAK?$AAE?$AAN?$AA_?$AAD?$AAS?$AAS?$AA?$AA@ 0001b4e8     OMAP3530_oal_prcm:prcm_clock.obj
 0001:0000a504       ??_C@_1O@DCDFCCN@?$AAD?$AAS?$AAS?$AA_?$AAC?$AAM?$AA?$AA@ 0001b504     OMAP3530_oal_prcm:prcm_clock.obj
 0001:0000a514       ??_C@_1BO@MLHAGPEI@?$AAC?$AAM?$AA_?$AAC?$AAL?$AAK?$AAO?$AAU?$AAT?$AA_?$AAC?$AAT?$AAR?$AAL?$AA?$AA@ 0001b514     OMAP3530_oal_prcm:prcm_clock.obj
 0001:0000a534       ??_C@_1BO@IIHNOIA@?$AAC?$AAM?$AA_?$AAC?$AAL?$AAK?$AAS?$AAE?$AAL?$AA5?$AA_?$AAP?$AAL?$AAL?$AA?$AA@ 0001b534     OMAP3530_oal_prcm:prcm_clock.obj
 0001:0000a554       ??_C@_1BO@JDCCJCOP@?$AAC?$AAM?$AA_?$AAC?$AAL?$AAK?$AAS?$AAE?$AAL?$AA4?$AA_?$AAP?$AAL?$AAL?$AA?$AA@ 0001b554     OMAP3530_oal_prcm:prcm_clock.obj
 0001:0000a574       ??_C@_1BO@OHLKHLGA@?$AAC?$AAM?$AA_?$AAC?$AAL?$AAK?$AAS?$AAE?$AAL?$AA3?$AA_?$AAP?$AAL?$AAL?$AA?$AA@ 0001b574     OMAP3530_oal_prcm:prcm_clock.obj
 0001:0000a594       ??_C@_1BO@HMBPDHAP@?$AAC?$AAM?$AA_?$AAC?$AAL?$AAK?$AAS?$AAE?$AAL?$AA2?$AA_?$AAP?$AAL?$AAL?$AA?$AA@ 0001b594     OMAP3530_oal_prcm:prcm_clock.obj
 0001:0000a5b4       ??_C@_1BO@LIBOFPP@?$AAC?$AAM?$AA_?$AAC?$AAL?$AAK?$AAS?$AAE?$AAL?$AA1?$AA_?$AAP?$AAL?$AAL?$AA?$AA@ 0001b5b4     OMAP3530_oal_prcm:prcm_clock.obj
 0001:0000a5d4       ??_C@_1CC@CDHCIADO@?$AAC?$AAM?$AA_?$AAA?$AAU?$AAT?$AAO?$AAI?$AAD?$AAL?$AAE?$AA2?$AA_?$AAP?$AAL?$AAL?$AA?$AA@ 0001b5d4     OMAP3530_oal_prcm:prcm_clock.obj
 0001:0000a5f8       ??_C@_1CA@ODFNPBKK@?$AAC?$AAM?$AA_?$AAA?$AAU?$AAT?$AAO?$AAI?$AAD?$AAL?$AAE?$AA_?$AAP?$AAL?$AAL?$AA?$AA@ 0001b5f8     OMAP3530_oal_prcm:prcm_clock.obj
 0001:0000a618       ??_C@_1CC@OBCEIAAE@?$AAC?$AAM?$AA_?$AAI?$AAD?$AAL?$AAE?$AAS?$AAT?$AA2?$AA_?$AAC?$AAK?$AAG?$AAE?$AAN?$AA?$AA@ 0001b618     OMAP3530_oal_prcm:prcm_clock.obj
 0001:0000a63c       ??_C@_1CA@PFEJJBMO@?$AAC?$AAM?$AA_?$AAI?$AAD?$AAL?$AAE?$AAS?$AAT?$AA_?$AAC?$AAK?$AAG?$AAE?$AAN?$AA?$AA@ 0001b63c     OMAP3530_oal_prcm:prcm_clock.obj
 0001:0000a65c       ??_C@_1BM@DGCCAOAF@?$AAC?$AAM?$AA_?$AAC?$AAL?$AAK?$AAE?$AAN?$AA2?$AA_?$AAP?$AAL?$AAL?$AA?$AA@ 0001b65c     OMAP3530_oal_prcm:prcm_clock.obj
 0001:0000a678       ??_C@_1BK@CFOGEALB@?$AAC?$AAM?$AA_?$AAC?$AAL?$AAK?$AAE?$AAN?$AA_?$AAP?$AAL?$AAL?$AA?$AA@ 0001b678     OMAP3530_oal_prcm:prcm_clock.obj
 0001:0000a694       ??_C@_1CK@OJMCKPMK@?$AAC?$AAl?$AAo?$AAc?$AAk?$AA_?$AAC?$AAo?$AAn?$AAt?$AAr?$AAo?$AAl?$AA_?$AAR?$AAe?$AAg?$AA_?$AAC?$AAM?$AA?$AA@ 0001b694     OMAP3530_oal_prcm:prcm_clock.obj
 0001:0000a6c0       ??_C@_1BO@MGPCIMBE@?$AAC?$AAM?$AA_?$AAC?$AAL?$AAK?$AAS?$AAE?$AAL?$AA_?$AAW?$AAK?$AAU?$AAP?$AA?$AA@ 0001b6c0     OMAP3530_oal_prcm:prcm_clock.obj
 0001:0000a6e0       ??_C@_1CC@JJJPDLCF@?$AAC?$AAM?$AA_?$AAA?$AAU?$AAT?$AAO?$AAI?$AAD?$AAL?$AAE?$AA_?$AAW?$AAK?$AAU?$AAP?$AA?$AA@ 0001b6e0     OMAP3530_oal_prcm:prcm_clock.obj
 0001:0000a704       ??_C@_1BO@FFEBGJIL@?$AAC?$AAM?$AA_?$AAI?$AAD?$AAL?$AAE?$AAS?$AAT?$AA_?$AAW?$AAK?$AAU?$AAP?$AA?$AA@ 0001b704     OMAP3530_oal_prcm:prcm_clock.obj
 0001:0000a724       ??_C@_1BO@CIIGPEMP@?$AAC?$AAM?$AA_?$AAI?$AAC?$AAL?$AAK?$AAE?$AAN?$AA_?$AAW?$AAK?$AAU?$AAP?$AA?$AA@ 0001b724     OMAP3530_oal_prcm:prcm_clock.obj
 0001:0000a744       ??_C@_1BO@MLJDPPAG@?$AAC?$AAM?$AA_?$AAF?$AAC?$AAL?$AAK?$AAE?$AAN?$AA_?$AAW?$AAK?$AAU?$AAP?$AA?$AA@ 0001b744     OMAP3530_oal_prcm:prcm_clock.obj
 0001:0000a764       ??_C@_1BA@FJBNPKLL@?$AAW?$AAK?$AAU?$AAP?$AA_?$AAC?$AAM?$AA?$AA@ 0001b764     OMAP3530_oal_prcm:prcm_clock.obj
 0001:0000a774       ??_C@_1BO@PICKOOJK@?$AAC?$AAM?$AA_?$AAC?$AAL?$AAK?$AAS?$AAT?$AAS?$AAT?$AA_?$AAS?$AAG?$AAX?$AA?$AA@ 0001b774     OMAP3530_oal_prcm:prcm_clock.obj
 0001:0000a794       ??_C@_1CC@DPKONEHB@?$AAC?$AAM?$AA_?$AAC?$AAL?$AAK?$AAS?$AAT?$AAC?$AAT?$AAR?$AAL?$AA_?$AAS?$AAG?$AAX?$AA?$AA@ 0001b794     OMAP3530_oal_prcm:prcm_clock.obj
 0001:0000a7b8       ??_C@_1CA@EOLCFPBH@?$AAC?$AAM?$AA_?$AAS?$AAL?$AAE?$AAE?$AAP?$AAD?$AAE?$AAP?$AA_?$AAS?$AAG?$AAX?$AA?$AA@ 0001b7b8     OMAP3530_oal_prcm:prcm_clock.obj
 0001:0000a7d8       ??_C@_1BM@DKOEAHJA@?$AAC?$AAM?$AA_?$AAC?$AAL?$AAK?$AAS?$AAE?$AAL?$AA_?$AAS?$AAG?$AAX?$AA?$AA@ 0001b7d8     OMAP3530_oal_prcm:prcm_clock.obj
 0001:0000a7f4       ??_C@_1BM@PANAIPGE@?$AAC?$AAM?$AA_?$AAI?$AAD?$AAL?$AAE?$AAS?$AAT?$AA_?$AAS?$AAG?$AAX?$AA?$AA@ 0001b7f4     OMAP3530_oal_prcm:prcm_clock.obj
 0001:0000a810       ??_C@_1BM@EJEJKNBL@?$AAC?$AAM?$AA_?$AAI?$AAC?$AAL?$AAK?$AAE?$AAN?$AA_?$AAS?$AAG?$AAX?$AA?$AA@ 0001b810     OMAP3530_oal_prcm:prcm_clock.obj
 0001:0000a82c       ??_C@_1BM@JFNDLFFL@?$AAC?$AAM?$AA_?$AAF?$AAC?$AAL?$AAK?$AAE?$AAN?$AA_?$AAS?$AAG?$AAX?$AA?$AA@ 0001b82c     OMAP3530_oal_prcm:prcm_clock.obj
 0001:0000a848       ??_C@_1O@PHKCOJPF@?$AAS?$AAG?$AAX?$AA_?$AAC?$AAM?$AA?$AA@ 0001b848     OMAP3530_oal_prcm:prcm_clock.obj
 0001:0000a858       ??_C@_1CA@DFAGEEPB@?$AAC?$AAM?$AA_?$AAC?$AAL?$AAK?$AAS?$AAT?$AAS?$AAT?$AA_?$AAC?$AAO?$AAR?$AAE?$AA?$AA@ 0001b858     OMAP3530_oal_prcm:prcm_clock.obj
 0001:0000a878       ??_C@_1CE@EOIAHAOA@?$AAC?$AAM?$AA_?$AAC?$AAL?$AAK?$AAS?$AAT?$AAC?$AAT?$AAR?$AAL?$AA_?$AAC?$AAO?$AAR?$AAE?$AA?$AA@ 0001b878     OMAP3530_oal_prcm:prcm_clock.obj
 0001:0000a89c       ??_C@_1BO@BGDPDEGJ@?$AAC?$AAM?$AA_?$AAC?$AAL?$AAK?$AAS?$AAE?$AAL?$AA_?$AAC?$AAO?$AAR?$AAE?$AA?$AA@ 0001b89c     OMAP3530_oal_prcm:prcm_clock.obj
 0001:0000a8bc       ??_C@_1CE@OGHCKMLF@?$AAC?$AAM?$AA_?$AAA?$AAU?$AAT?$AAO?$AAI?$AAD?$AAL?$AAE?$AA3?$AA_?$AAC?$AAO?$AAR?$AAE?$AA?$AA@ 0001b8bc     OMAP3530_oal_prcm:prcm_clock.obj
 0001:0000a8e0       ??_C@_1CE@HLHNENMD@?$AAC?$AAM?$AA_?$AAA?$AAU?$AAT?$AAO?$AAI?$AAD?$AAL?$AAE?$AA2?$AA_?$AAC?$AAO?$AAR?$AAE?$AA?$AA@ 0001b8e0     OMAP3530_oal_prcm:prcm_clock.obj
 0001:0000a904       ??_C@_1CE@HBMGIBI@?$AAC?$AAM?$AA_?$AAA?$AAU?$AAT?$AAO?$AAI?$AAD?$AAL?$AAE?$AA1?$AA_?$AAC?$AAO?$AAR?$AAE?$AA?$AA@ 0001b904     OMAP3530_oal_prcm:prcm_clock.obj
 0001:0000a928       ??_C@_1CA@FDJDMBNE@?$AAC?$AAM?$AA_?$AAI?$AAD?$AAL?$AAE?$AAS?$AAT?$AA3?$AA_?$AAC?$AAO?$AAR?$AAE?$AA?$AA@ 0001b928     OMAP3530_oal_prcm:prcm_clock.obj
 0001:0000a948       ??_C@_1CA@MOJMCAKC@?$AAC?$AAM?$AA_?$AAI?$AAD?$AAL?$AAE?$AAS?$AAT?$AA2?$AA_?$AAC?$AAO?$AAR?$AAE?$AA?$AA@ 0001b948     OMAP3530_oal_prcm:prcm_clock.obj
 0001:0000a968       ??_C@_1CA@LCPNAFHJ@?$AAC?$AAM?$AA_?$AAI?$AAD?$AAL?$AAE?$AAS?$AAT?$AA1?$AA_?$AAC?$AAO?$AAR?$AAE?$AA?$AA@ 0001b968     OMAP3530_oal_prcm:prcm_clock.obj
 0001:0000a988       ??_C@_1CA@EJDINJOL@?$AAC?$AAM?$AA_?$AAI?$AAC?$AAL?$AAK?$AAE?$AAN?$AA3?$AA_?$AAC?$AAO?$AAR?$AAE?$AA?$AA@ 0001b988     OMAP3530_oal_prcm:prcm_clock.obj
 0001:0000a9a8       ??_C@_1CA@NEDHDIJN@?$AAC?$AAM?$AA_?$AAI?$AAC?$AAL?$AAK?$AAE?$AAN?$AA2?$AA_?$AAC?$AAO?$AAR?$AAE?$AA?$AA@ 0001b9a8     OMAP3530_oal_prcm:prcm_clock.obj
 0001:0000a9c8       ??_C@_1CA@KIFGBNEG@?$AAC?$AAM?$AA_?$AAI?$AAC?$AAL?$AAK?$AAE?$AAN?$AA1?$AA_?$AAC?$AAO?$AAR?$AAE?$AA?$AA@ 0001b9c8     OMAP3530_oal_prcm:prcm_clock.obj
 0001:0000a9e8       ??_C@_1CA@MENCIPHB@?$AAC?$AAM?$AA_?$AAF?$AAC?$AAL?$AAK?$AAE?$AAN?$AA3?$AA_?$AAC?$AAO?$AAR?$AAE?$AA?$AA@ 0001b9e8     OMAP3530_oal_prcm:prcm_clock.obj
 0001:0000aa08       ??_C@_1CA@CFLMELNM@?$AAC?$AAM?$AA_?$AAF?$AAC?$AAL?$AAK?$AAE?$AAN?$AA1?$AA_?$AAC?$AAO?$AAR?$AAE?$AA?$AA@ 0001ba08     OMAP3530_oal_prcm:prcm_clock.obj
 0001:0000aa28       ??_C@_1BA@MHLIKEJK@?$AAC?$AAO?$AAR?$AAE?$AA_?$AAC?$AAM?$AA?$AA@ 0001ba28     OMAP3530_oal_prcm:prcm_clock.obj
 0001:0000aa38       ??_C@_1BO@HNKCCHHN@?$AAC?$AAM?$AA_?$AAC?$AAL?$AAK?$AAS?$AAT?$AAS?$AAT?$AA_?$AAM?$AAP?$AAU?$AA?$AA@ 0001ba38     OMAP3530_oal_prcm:prcm_clock.obj
 0001:0000aa58       ??_C@_1CC@LKCGBNJG@?$AAC?$AAM?$AA_?$AAC?$AAL?$AAK?$AAS?$AAT?$AAC?$AAT?$AAR?$AAL?$AA_?$AAM?$AAP?$AAU?$AA?$AA@ 0001ba58     OMAP3530_oal_prcm:prcm_clock.obj
 0001:0000aa7c       ??_C@_1CG@HAJMMJGO@?$AAC?$AAM?$AA_?$AAC?$AAL?$AAK?$AAS?$AAE?$AAL?$AA2?$AA_?$AAP?$AAL?$AAL?$AA_?$AAM?$AAP?$AAU?$AA?$AA@ 0001ba7c     OMAP3530_oal_prcm:prcm_clock.obj
 0001:0000aaa4       ??_C@_1CG@NPDFIEKE@?$AAC?$AAM?$AA_?$AAC?$AAL?$AAK?$AAS?$AAE?$AAL?$AA1?$AA_?$AAP?$AAL?$AAL?$AA_?$AAM?$AAP?$AAU?$AA?$AA@ 0001baa4     OMAP3530_oal_prcm:prcm_clock.obj
 0001:0000aacc       ??_C@_1CI@CMDKJBJB@?$AAC?$AAM?$AA_?$AAA?$AAU?$AAT?$AAO?$AAI?$AAD?$AAL?$AAE?$AA_?$AAP?$AAL?$AAL?$AA_?$AAM?$AAP?$AAU?$AA?$AA@ 0001bacc     OMAP3530_oal_prcm:prcm_clock.obj
 0001:0000aaf4       ??_C@_1CE@BDMBNMCK@?$AAC?$AAM?$AA_?$AAI?$AAD?$AAL?$AAE?$AAS?$AAT?$AA_?$AAP?$AAL?$AAL?$AA_?$AAM?$AAP?$AAU?$AA?$AA@ 0001baf4     OMAP3530_oal_prcm:prcm_clock.obj
 0001:0000ab18       ??_C@_1BM@HFFIEGID@?$AAC?$AAM?$AA_?$AAI?$AAD?$AAL?$AAE?$AAS?$AAT?$AA_?$AAM?$AAP?$AAU?$AA?$AA@ 0001bb18     OMAP3530_oal_prcm:prcm_clock.obj
 0001:0000ab34       ??_C@_1CC@JNLBAGDF@?$AAC?$AAM?$AA_?$AAC?$AAL?$AAK?$AAE?$AAN?$AA_?$AAP?$AAL?$AAL?$AA_?$AAM?$AAP?$AAU?$AA?$AA@ 0001bb34     OMAP3530_oal_prcm:prcm_clock.obj
 0001:0000ab58       ??_C@_1O@NHPFAPNK@?$AAM?$AAP?$AAU?$AA_?$AAC?$AAM?$AA?$AA@ 0001bb58     OMAP3530_oal_prcm:prcm_clock.obj
 0001:0000ab68       ??_C@_1BK@MFOLEKL@?$AAC?$AAM?$AA_?$AAS?$AAY?$AAS?$AAC?$AAO?$AAN?$AAF?$AAI?$AAG?$AA?$AA@ 0001bb68     OMAP3530_oal_prcm:prcm_clock.obj
 0001:0000ab84       ??_C@_1BI@OFDDPNDA@?$AAC?$AAM?$AA_?$AAR?$AAE?$AAV?$AAI?$AAS?$AAI?$AAO?$AAN?$AA?$AA@ 0001bb84     OMAP3530_oal_prcm:prcm_clock.obj
 0001:0000ab9c       ??_C@_1CE@OMIMNBBB@?$AAO?$AAC?$AAP?$AA_?$AAS?$AAy?$AAs?$AAt?$AAe?$AAm?$AA_?$AAR?$AAe?$AAg?$AA_?$AAC?$AAM?$AA?$AA@ 0001bb9c     OMAP3530_oal_prcm:prcm_clock.obj
 0001:0000abc0       ??_C@_1CA@DCHKBGCI@?$AAC?$AAM?$AA_?$AAC?$AAL?$AAK?$AAS?$AAT?$AAS?$AAT?$AA_?$AAI?$AAV?$AAA?$AA2?$AA?$AA@ 0001bbc0     OMAP3530_oal_prcm:prcm_clock.obj
 0001:0000abe0       ??_C@_1CE@EJPMCCDJ@?$AAC?$AAM?$AA_?$AAC?$AAL?$AAK?$AAS?$AAT?$AAC?$AAT?$AAR?$AAL?$AA_?$AAI?$AAV?$AAA?$AA2?$AA?$AA@ 0001bbe0     OMAP3530_oal_prcm:prcm_clock.obj
 0001:0000ac04       ??_C@_1CI@BECHJFPL@?$AAC?$AAM?$AA_?$AAC?$AAL?$AAK?$AAS?$AAE?$AAL?$AA2?$AA_?$AAP?$AAL?$AAL?$AA_?$AAI?$AAV?$AAA?$AA2?$AA?$AA@ 0001bc04     OMAP3530_oal_prcm:prcm_clock.obj
 0001:0000ac2c       ??_C@_1CI@CNFPDILL@?$AAC?$AAM?$AA_?$AAC?$AAL?$AAK?$AAS?$AAE?$AAL?$AA1?$AA_?$AAP?$AAL?$AAL?$AA_?$AAI?$AAV?$AAA?$AA2?$AA?$AA@ 0001bc2c     OMAP3530_oal_prcm:prcm_clock.obj
 0001:0000ac54       ??_C@_1CK@OCLDONOJ@?$AAC?$AAM?$AA_?$AAA?$AAU?$AAT?$AAO?$AAI?$AAD?$AAL?$AAE?$AA_?$AAP?$AAL?$AAL?$AA_?$AAI?$AAV?$AAA?$AA2?$AA?$AA@ 0001bc54     OMAP3530_oal_prcm:prcm_clock.obj
 0001:0000ac80       ??_C@_1CG@ONOPJIEM@?$AAC?$AAM?$AA_?$AAI?$AAD?$AAL?$AAE?$AAS?$AAT?$AA_?$AAP?$AAL?$AAL?$AA_?$AAI?$AAV?$AAA?$AA2?$AA?$AA@ 0001bc80     OMAP3530_oal_prcm:prcm_clock.obj
 0001:0000aca8       ??_C@_1BO@ICPAIDCP@?$AAC?$AAM?$AA_?$AAI?$AAD?$AAL?$AAE?$AAS?$AAT?$AA_?$AAI?$AAV?$AAA?$AA2?$AA?$AA@ 0001bca8     OMAP3530_oal_prcm:prcm_clock.obj
 0001:0000acc8       ??_C@_1CE@EGLDCDGI@?$AAC?$AAM?$AA_?$AAC?$AAL?$AAK?$AAE?$AAN?$AA_?$AAP?$AAL?$AAL?$AA_?$AAI?$AAV?$AAA?$AA2?$AA?$AA@ 0001bcc8     OMAP3530_oal_prcm:prcm_clock.obj
 0001:0000acec       ??_C@_1BO@BMCCBFKC@?$AAC?$AAM?$AA_?$AAF?$AAC?$AAL?$AAK?$AAE?$AAN?$AA_?$AAI?$AAV?$AAA?$AA2?$AA?$AA@ 0001bcec     OMAP3530_oal_prcm:prcm_clock.obj
 0001:0000ad0c       ??_C@_1BA@JEPMHMHH@?$AAI?$AAV?$AAA?$AA2?$AA_?$AAC?$AAM?$AA?$AA@ 0001bd0c     OMAP3530_oal_prcm:prcm_clock.obj
 0001:0000ad1c       ??_C@_1DA@EDKFOKOO@?$AAP?$AAO?$AAW?$AAE?$AAR?$AAD?$AAO?$AAM?$AAA?$AAI?$AAN?$AA_?$AAS?$AAM?$AAA?$AAR?$AAT?$AAR?$AAE?$AAF?$AAL?$AAE?$AAX?$AA?$AA@ 0001bd1c     OMAP3530_oal_prcm:prcm_clock.obj
 0001:0000ad4c       ??_C@_1CE@NPBICAPK@?$AAP?$AAO?$AAW?$AAE?$AAR?$AAD?$AAO?$AAM?$AAA?$AAI?$AAN?$AA_?$AAE?$AAF?$AAU?$AAS?$AAE?$AA?$AA@ 0001bd4c     OMAP3530_oal_prcm:prcm_clock.obj
 0001:0000ad70       ??_C@_1CA@EPPNKFHH@?$AAP?$AAO?$AAW?$AAE?$AAR?$AAD?$AAO?$AAM?$AAA?$AAI?$AAN?$AA_?$AAS?$AAG?$AAX?$AA?$AA@ 0001bd70     OMAP3530_oal_prcm:prcm_clock.obj
 0001:0000ad90       ??_C@_1CG@OKLBKABF@?$AAP?$AAO?$AAW?$AAE?$AAR?$AAD?$AAO?$AAM?$AAA?$AAI?$AAN?$AA_?$AAC?$AAA?$AAM?$AAE?$AAR?$AAA?$AA?$AA@ 0001bd90     OMAP3530_oal_prcm:prcm_clock.obj
 0001:0000adb8       ??_C@_1CC@DIKELEEG@?$AAP?$AAO?$AAW?$AAE?$AAR?$AAD?$AAO?$AAM?$AAA?$AAI?$AAN?$AA_?$AAI?$AAV?$AAA?$AA2?$AA?$AA@ 0001bdb8     OMAP3530_oal_prcm:prcm_clock.obj
 0001:0000addc       ??_C@_1CC@DDKPOHKD@?$AAP?$AAO?$AAW?$AAE?$AAR?$AAD?$AAO?$AAM?$AAA?$AAI?$AAN?$AA_?$AAN?$AAE?$AAO?$AAN?$AA?$AA@ 0001bddc     OMAP3530_oal_prcm:prcm_clock.obj
 0001:0000ae00       ??_C@_1CA@HGMFFKMJ@?$AAP?$AAO?$AAW?$AAE?$AAR?$AAD?$AAO?$AAM?$AAA?$AAI?$AAN?$AA_?$AAD?$AAS?$AAS?$AA?$AA@ 0001be00     OMAP3530_oal_prcm:prcm_clock.obj
 0001:0000ae20       ??_C@_1CA@MKHFGMJA@?$AAP?$AAO?$AAW?$AAE?$AAR?$AAD?$AAO?$AAM?$AAA?$AAI?$AAN?$AA_?$AAM?$AAP?$AAU?$AA?$AA@ 0001be20     OMAP3530_oal_prcm:prcm_clock.obj
 0001:0000ae40       ??_C@_1CM@IICJPBKI@?$AAP?$AAO?$AAW?$AAE?$AAR?$AAD?$AAO?$AAM?$AAA?$AAI?$AAN?$AA_?$AAE?$AAM?$AAU?$AAL?$AAA?$AAT?$AAI?$AAO?$AAN?$AA?$AA@ 0001be40     OMAP3530_oal_prcm:prcm_clock.obj
 0001:0000ae6c       ??_C@_1CI@LJKMALKI@?$AAP?$AAO?$AAW?$AAE?$AAR?$AAD?$AAO?$AAM?$AAA?$AAI?$AAN?$AA_?$AAU?$AAS?$AAB?$AAH?$AAO?$AAS?$AAT?$AA?$AA@ 0001be6c     OMAP3530_oal_prcm:prcm_clock.obj
 0001:0000ae94       ??_C@_1CO@GHAPCMEA@?$AAP?$AAO?$AAW?$AAE?$AAR?$AAD?$AAO?$AAM?$AAA?$AAI?$AAN?$AA_?$AAP?$AAE?$AAR?$AAI?$AAP?$AAH?$AAE?$AAR?$AAA?$AAL?$AA?$AA@ 0001be94     OMAP3530_oal_prcm:prcm_clock.obj
 0001:0000aec4       ??_C@_1CC@DPNIOGJP@?$AAP?$AAO?$AAW?$AAE?$AAR?$AAD?$AAO?$AAM?$AAA?$AAI?$AAN?$AA_?$AAC?$AAO?$AAR?$AAE?$AA?$AA@ 0001bec4     OMAP3530_oal_prcm:prcm_clock.obj
 0001:0000aee8       ??_C@_1CG@GNBBGDGH@?$AAP?$AAO?$AAW?$AAE?$AAR?$AAD?$AAO?$AAM?$AAA?$AAI?$AAN?$AA_?$AAW?$AAA?$AAK?$AAE?$AAU?$AAP?$AA?$AA@ 0001bee8     OMAP3530_oal_prcm:prcm_clock.obj
 0001:0000af10       ??_C@_1CI@CGCHDENN@?$AAO?$AAM?$AAA?$AAP?$AA_?$AAD?$AAE?$AAV?$AAI?$AAC?$AAE?$AA_?$AAG?$AAE?$AAN?$AAE?$AAR?$AAI?$AAC?$AA?$AA@ 0001bf10     OMAP3530_oal_prcm:prcm_clock.obj
 0001:0000af38       ??_C@_1CE@GFGBLIBN@?$AAO?$AAM?$AAA?$AAP?$AA_?$AAD?$AAE?$AAV?$AAI?$AAC?$AAE?$AA_?$AAU?$AAA?$AAR?$AAT?$AA4?$AA?$AA@ 0001bf38     OMAP3530_oal_prcm:prcm_clock.obj
 0001:0000af5c       ??_C@_1CC@JFKAJPFG@?$AAO?$AAM?$AAA?$AAP?$AA_?$AAD?$AAE?$AAV?$AAI?$AAC?$AAE?$AA_?$AAV?$AAR?$AAF?$AAB?$AA?$AA@ 0001bf5c     OMAP3530_oal_prcm:prcm_clock.obj
 0001:0000af80       ??_C@_1CK@PMNPNLDF@?$AAO?$AAM?$AAA?$AAP?$AA_?$AAD?$AAE?$AAV?$AAI?$AAC?$AAE?$AA_?$AAU?$AAS?$AAB?$AAH?$AAO?$AAS?$AAT?$AA3?$AA?$AA@ 0001bf80     OMAP3530_oal_prcm:prcm_clock.obj
 0001:0000afac       ??_C@_1CK@EEGDLMFA@?$AAO?$AAM?$AAA?$AAP?$AA_?$AAD?$AAE?$AAV?$AAI?$AAC?$AAE?$AA_?$AAU?$AAS?$AAB?$AAH?$AAO?$AAS?$AAT?$AA2?$AA?$AA@ 0001bfac     OMAP3530_oal_prcm:prcm_clock.obj
 0001:0000afd8       ??_C@_1CK@FGNGBDLO@?$AAO?$AAM?$AAA?$AAP?$AA_?$AAD?$AAE?$AAV?$AAI?$AAC?$AAE?$AA_?$AAU?$AAS?$AAB?$AAH?$AAO?$AAS?$AAT?$AA1?$AA?$AA@ 0001bfd8     OMAP3530_oal_prcm:prcm_clock.obj
 0001:0000b004       ??_C@_1CG@GEPNMBAB@?$AAO?$AAM?$AAA?$AAP?$AA_?$AAD?$AAE?$AAV?$AAI?$AAC?$AAE?$AA_?$AAH?$AAS?$AAU?$AAS?$AAB?$AA2?$AA?$AA@ 0001c004     OMAP3530_oal_prcm:prcm_clock.obj
 0001:0000b02c       ??_C@_1CG@HGEIGOOP@?$AAO?$AAM?$AAA?$AAP?$AA_?$AAD?$AAE?$AAV?$AAI?$AAC?$AAE?$AA_?$AAH?$AAS?$AAU?$AAS?$AAB?$AA1?$AA?$AA@ 0001c02c     OMAP3530_oal_prcm:prcm_clock.obj
 0001:0000b054       ??_C@_1CA@GGCFDGLE@?$AAO?$AAM?$AAA?$AAP?$AA_?$AAD?$AAE?$AAV?$AAI?$AAC?$AAE?$AA_?$AAS?$AAG?$AAX?$AA?$AA@ 0001c054     OMAP3530_oal_prcm:prcm_clock.obj
 0001:0000b074       ??_C@_1BO@LMDKBCBP@?$AAO?$AAM?$AAA?$AAP?$AA_?$AAD?$AAE?$AAV?$AAI?$AAC?$AAE?$AA_?$AA3?$AAD?$AA?$AA@ 0001c074     OMAP3530_oal_prcm:prcm_clock.obj
 0001:0000b094       ??_C@_1BO@HHGGMBLK@?$AAO?$AAM?$AAA?$AAP?$AA_?$AAD?$AAE?$AAV?$AAI?$AAC?$AAE?$AA_?$AA2?$AAD?$AA?$AA@ 0001c094     OMAP3530_oal_prcm:prcm_clock.obj
 0001:0000b0b4       ??_C@_1CA@ENKIGGOE@?$AAO?$AAM?$AAA?$AAP?$AA_?$AAD?$AAE?$AAV?$AAI?$AAC?$AAE?$AA_?$AAD?$AAS?$AAP?$AA?$AA@ 0001c0b4     OMAP3530_oal_prcm:prcm_clock.obj
 0001:0000b0d4       ??_C@_1CC@COEMHCN@?$AAO?$AAM?$AAA?$AAP?$AA_?$AAD?$AAE?$AAV?$AAI?$AAC?$AAE?$AA_?$AAC?$AAS?$AAI?$AA2?$AA?$AA@ 0001c0d4     OMAP3530_oal_prcm:prcm_clock.obj
 0001:0000b0f8       ??_C@_1CG@DPBHHNNG@?$AAO?$AAM?$AAA?$AAP?$AA_?$AAD?$AAE?$AAV?$AAI?$AAC?$AAE?$AA_?$AAC?$AAA?$AAM?$AAE?$AAR?$AAA?$AA?$AA@ 0001c0f8     OMAP3530_oal_prcm:prcm_clock.obj
 0001:0000b120       ??_C@_1CE@CMHCGOLP@?$AAO?$AAM?$AAA?$AAP?$AA_?$AAD?$AAE?$AAV?$AAI?$AAC?$AAE?$AA_?$AAT?$AAV?$AAO?$AAU?$AAT?$AA?$AA@ 0001c120     OMAP3530_oal_prcm:prcm_clock.obj
 0001:0000b144       ??_C@_1CC@ECHFPNKJ@?$AAO?$AAM?$AAA?$AAP?$AA_?$AAD?$AAE?$AAV?$AAI?$AAC?$AAE?$AA_?$AAD?$AAS?$AAS?$AA2?$AA?$AA@ 0001c144     OMAP3530_oal_prcm:prcm_clock.obj
 0001:0000b168       ??_C@_1CC@FAMAFCEH@?$AAO?$AAM?$AAA?$AAP?$AA_?$AAD?$AAE?$AAV?$AAI?$AAC?$AAE?$AA_?$AAD?$AAS?$AAS?$AA1?$AA?$AA@ 0001c168     OMAP3530_oal_prcm:prcm_clock.obj
 0001:0000b18c       ??_C@_1CA@FPBNMJAK@?$AAO?$AAM?$AAA?$AAP?$AA_?$AAD?$AAE?$AAV?$AAI?$AAC?$AAE?$AA_?$AAD?$AAS?$AAS?$AA?$AA@ 0001c18c     OMAP3530_oal_prcm:prcm_clock.obj
 0001:0000b1ac       ??_C@_1CC@FNCLKIKN@?$AAO?$AAM?$AAA?$AAP?$AA_?$AAD?$AAE?$AAV?$AAI?$AAC?$AAE?$AA_?$AAW?$AAD?$AAT?$AA3?$AA?$AA@ 0001c1ac     OMAP3530_oal_prcm:prcm_clock.obj
 0001:0000b1d0       ??_C@_1CE@PILGIAKE@?$AAO?$AAM?$AAA?$AAP?$AA_?$AAD?$AAE?$AAV?$AAI?$AAC?$AAE?$AA_?$AAU?$AAA?$AAR?$AAT?$AA3?$AA?$AA@ 0001c1d0     OMAP3530_oal_prcm:prcm_clock.obj
 0001:0000b1f4       ??_C@_1CK@PMHAIIAB@?$AAO?$AAM?$AAA?$AAP?$AA_?$AAD?$AAE?$AAV?$AAI?$AAC?$AAE?$AA_?$AAG?$AAP?$AAT?$AAI?$AAM?$AAE?$AAR?$AA9?$AA?$AA@ 0001c1f4     OMAP3530_oal_prcm:prcm_clock.obj
 0001:0000b220       ??_C@_1CK@EEMMOPGE@?$AAO?$AAM?$AAA?$AAP?$AA_?$AAD?$AAE?$AAV?$AAI?$AAC?$AAE?$AA_?$AAG?$AAP?$AAT?$AAI?$AAM?$AAE?$AAR?$AA8?$AA?$AA@ 0001c220     OMAP3530_oal_prcm:prcm_clock.obj
 0001:0000b24c       ??_C@_1CK@BMKPPPDC@?$AAO?$AAM?$AAA?$AAP?$AA_?$AAD?$AAE?$AAV?$AAI?$AAC?$AAE?$AA_?$AAG?$AAP?$AAT?$AAI?$AAM?$AAE?$AAR?$AA7?$AA?$AA@ 0001c24c     OMAP3530_oal_prcm:prcm_clock.obj
 0001:0000b278       ??_C@_1CK@KEBDJIFH@?$AAO?$AAM?$AAA?$AAP?$AA_?$AAD?$AAE?$AAV?$AAI?$AAC?$AAE?$AA_?$AAG?$AAP?$AAT?$AAI?$AAM?$AAE?$AAR?$AA6?$AA?$AA@ 0001c278     OMAP3530_oal_prcm:prcm_clock.obj
 0001:0000b2a4       ??_C@_1CK@LGKGDHLJ@?$AAO?$AAM?$AAA?$AAP?$AA_?$AAD?$AAE?$AAV?$AAI?$AAC?$AAE?$AA_?$AAG?$AAP?$AAT?$AAI?$AAM?$AAE?$AAR?$AA5?$AA?$AA@ 0001c2a4     OMAP3530_oal_prcm:prcm_clock.obj
 0001:0000b2d0       ??_C@_1CK@OBKFANM@?$AAO?$AAM?$AAA?$AAP?$AA_?$AAD?$AAE?$AAV?$AAI?$AAC?$AAE?$AA_?$AAG?$AAP?$AAT?$AAI?$AAM?$AAE?$AAR?$AA4?$AA?$AA@ 0001c2d0     OMAP3530_oal_prcm:prcm_clock.obj
 0001:0000b2fc       ??_C@_1CK@JDMNGIGF@?$AAO?$AAM?$AAA?$AAP?$AA_?$AAD?$AAE?$AAV?$AAI?$AAC?$AAE?$AA_?$AAG?$AAP?$AAT?$AAI?$AAM?$AAE?$AAR?$AA3?$AA?$AA@ 0001c2fc     OMAP3530_oal_prcm:prcm_clock.obj
 0001:0000b328       ??_C@_1CK@CLHBAPAA@?$AAO?$AAM?$AAA?$AAP?$AA_?$AAD?$AAE?$AAV?$AAI?$AAC?$AAE?$AA_?$AAG?$AAP?$AAT?$AAI?$AAM?$AAE?$AAR?$AA2?$AA?$AA@ 0001c328     OMAP3530_oal_prcm:prcm_clock.obj
 0001:0000b354       ??_C@_1CG@ECEBCEEN@?$AAO?$AAM?$AAA?$AAP?$AA_?$AAD?$AAE?$AAV?$AAI?$AAC?$AAE?$AA_?$AAM?$AAC?$AAB?$AAS?$AAP?$AA4?$AA?$AA@ 0001c354     OMAP3530_oal_prcm:prcm_clock.obj
 0001:0000b37c       ??_C@_1CG@NPJGBMPE@?$AAO?$AAM?$AAA?$AAP?$AA_?$AAD?$AAE?$AAV?$AAI?$AAC?$AAE?$AA_?$AAM?$AAC?$AAB?$AAS?$AAP?$AA3?$AA?$AA@ 0001c37c     OMAP3530_oal_prcm:prcm_clock.obj
 0001:0000b3a4       ??_C@_1CG@GHCKHLJB@?$AAO?$AAM?$AAA?$AAP?$AA_?$AAD?$AAE?$AAV?$AAI?$AAC?$AAE?$AA_?$AAM?$AAC?$AAB?$AAS?$AAP?$AA2?$AA?$AA@ 0001c3a4     OMAP3530_oal_prcm:prcm_clock.obj
 0001:0000b3cc       ??_C@_1CE@KPOHDGAG@?$AAO?$AAM?$AAA?$AAP?$AA_?$AAD?$AAE?$AAV?$AAI?$AAC?$AAE?$AA_?$AAG?$AAP?$AAI?$AAO?$AA6?$AA?$AA@ 0001c3cc     OMAP3530_oal_prcm:prcm_clock.obj
 0001:0000b3f0       ??_C@_1CE@LNFCJJOI@?$AAO?$AAM?$AAA?$AAP?$AA_?$AAD?$AAE?$AAV?$AAI?$AAC?$AAE?$AA_?$AAG?$AAP?$AAI?$AAO?$AA5?$AA?$AA@ 0001c3f0     OMAP3530_oal_prcm:prcm_clock.obj
 0001:0000b414       ??_C@_1CE@FOOPOIN@?$AAO?$AAM?$AAA?$AAP?$AA_?$AAD?$AAE?$AAV?$AAI?$AAC?$AAE?$AA_?$AAG?$AAP?$AAI?$AAO?$AA4?$AA?$AA@ 0001c414     OMAP3530_oal_prcm:prcm_clock.obj
 0001:0000b438       ??_C@_1CE@JIDJMGDE@?$AAO?$AAM?$AAA?$AAP?$AA_?$AAD?$AAE?$AAV?$AAI?$AAC?$AAE?$AA_?$AAG?$AAP?$AAI?$AAO?$AA3?$AA?$AA@ 0001c438     OMAP3530_oal_prcm:prcm_clock.obj
 0001:0000b45c       ??_C@_1CE@CAIFKBFB@?$AAO?$AAM?$AAA?$AAP?$AA_?$AAD?$AAE?$AAV?$AAI?$AAC?$AAE?$AA_?$AAG?$AAP?$AAI?$AAO?$AA2?$AA?$AA@ 0001c45c     OMAP3530_oal_prcm:prcm_clock.obj
 0001:0000b480       ??_C@_1CC@BLAIIGEI@?$AAO?$AAM?$AAA?$AAP?$AA_?$AAD?$AAE?$AAV?$AAI?$AAC?$AAE?$AA_?$AAU?$AAS?$AAI?$AAM?$AA?$AA@ 0001c480     OMAP3530_oal_prcm:prcm_clock.obj
 0001:0000b4a4       ??_C@_1CA@GBKFLCPL@?$AAO?$AAM?$AAA?$AAP?$AA_?$AAD?$AAE?$AAV?$AAI?$AAC?$AAE?$AA_?$AAS?$AAR?$AA2?$AA?$AA@ 0001c4a4     OMAP3530_oal_prcm:prcm_clock.obj
 0001:0000b4c4       ??_C@_1CA@HDBABNBF@?$AAO?$AAM?$AAA?$AAP?$AA_?$AAD?$AAE?$AAV?$AAI?$AAC?$AAE?$AA_?$AAS?$AAR?$AA1?$AA?$AA@ 0001c4c4     OMAP3530_oal_prcm:prcm_clock.obj
 0001:0000b4e4       ??_C@_1CE@DCDAAOLP@?$AAO?$AAM?$AAA?$AAP?$AA_?$AAD?$AAE?$AAV?$AAI?$AAC?$AAE?$AA_?$AAG?$AAP?$AAI?$AAO?$AA1?$AA?$AA@ 0001c4e4     OMAP3530_oal_prcm:prcm_clock.obj
 0001:0000b508       ??_C@_1CC@OFJHMPMI@?$AAO?$AAM?$AAA?$AAP?$AA_?$AAD?$AAE?$AAV?$AAI?$AAC?$AAE?$AA_?$AAW?$AAD?$AAT?$AA2?$AA?$AA@ 0001c508     OMAP3530_oal_prcm:prcm_clock.obj
 0001:0000b52c       ??_C@_1CC@PHCCGACG@?$AAO?$AAM?$AAA?$AAP?$AA_?$AAD?$AAE?$AAV?$AAI?$AAC?$AAE?$AA_?$AAW?$AAD?$AAT?$AA1?$AA?$AA@ 0001c52c     OMAP3530_oal_prcm:prcm_clock.obj
 0001:0000b550       ??_C@_1CI@FAKOHIJH@?$AAO?$AAM?$AAA?$AAP?$AA_?$AAD?$AAE?$AAV?$AAI?$AAC?$AAE?$AA_?$AA3?$AA2?$AAK?$AAS?$AAY?$AAN?$AAC?$AA?$AA@ 0001c550     OMAP3530_oal_prcm:prcm_clock.obj
 0001:0000b578       ??_C@_1CM@EMAJHEGE@?$AAO?$AAM?$AAA?$AAP?$AA_?$AAD?$AAE?$AAV?$AAI?$AAC?$AAE?$AA_?$AAG?$AAP?$AAT?$AAI?$AAM?$AAE?$AAR?$AA1?$AA2?$AA?$AA@ 0001c578     OMAP3530_oal_prcm:prcm_clock.obj
 0001:0000b5a4       ??_C@_1CK@DJMEKAOO@?$AAO?$AAM?$AAA?$AAP?$AA_?$AAD?$AAE?$AAV?$AAI?$AAC?$AAE?$AA_?$AAG?$AAP?$AAT?$AAI?$AAM?$AAE?$AAR?$AA1?$AA?$AA@ 0001c5a4     OMAP3530_oal_prcm:prcm_clock.obj
 0001:0000b5d0       ??_C@_1CE@EPOGLAMA@?$AAO?$AAM?$AAA?$AAP?$AA_?$AAD?$AAE?$AAV?$AAI?$AAC?$AAE?$AA_?$AAE?$AAF?$AAU?$AAS?$AAE?$AA?$AA@ 0001c5d0     OMAP3530_oal_prcm:prcm_clock.obj
 0001:0000b5f4       ??_C@_1BO@GEAFECNL@?$AAO?$AAM?$AAA?$AAP?$AA_?$AAD?$AAE?$AAV?$AAI?$AAC?$AAE?$AA_?$AAT?$AAS?$AA?$AA@ 0001c5f4     OMAP3530_oal_prcm:prcm_clock.obj
 0001:0000b614       ??_C@_1CG@MLOIKIGB@?$AAO?$AAM?$AAA?$AAP?$AA_?$AAD?$AAE?$AAV?$AAI?$AAC?$AAE?$AA_?$AAU?$AAS?$AAB?$AAT?$AAL?$AAL?$AA?$AA@ 0001c614     OMAP3530_oal_prcm:prcm_clock.obj
 0001:0000b63c       ??_C@_1CA@LCHJOJDJ@?$AAO?$AAM?$AAA?$AAP?$AA_?$AAD?$AAE?$AAV?$AAI?$AAC?$AAE?$AA_?$AAP?$AAK?$AAA?$AA?$AA@ 0001c63c     OMAP3530_oal_prcm:prcm_clock.obj
 0001:0000b65c       ??_C@_1CC@MDNKBKP@?$AAO?$AAM?$AAA?$AAP?$AA_?$AAD?$AAE?$AAV?$AAI?$AAC?$AAE?$AA_?$AAA?$AAE?$AAS?$AA1?$AA?$AA@ 0001c65c     OMAP3530_oal_prcm:prcm_clock.obj
 0001:0000b680       ??_C@_1CA@IFPKCACL@?$AAO?$AAM?$AAA?$AAP?$AA_?$AAD?$AAE?$AAV?$AAI?$AAC?$AAE?$AA_?$AAR?$AAN?$AAG?$AA?$AA@ 0001c680     OMAP3530_oal_prcm:prcm_clock.obj
 0001:0000b6a0       ??_C@_1CE@OLJKGOCE@?$AAO?$AAM?$AAA?$AAP?$AA_?$AAD?$AAE?$AAV?$AAI?$AAC?$AAE?$AA_?$AAS?$AAH?$AAA?$AA1?$AA1?$AA?$AA@ 0001c6a0     OMAP3530_oal_prcm:prcm_clock.obj
 0001:0000b6c4       ??_C@_1CC@OKBEGKOL@?$AAO?$AAM?$AAA?$AAP?$AA_?$AAD?$AAE?$AAV?$AAI?$AAC?$AAE?$AA_?$AAD?$AAE?$AAS?$AA1?$AA?$AA@ 0001c6c4     OMAP3530_oal_prcm:prcm_clock.obj
 0001:0000b6e8       ??_C@_1CA@HPHCLJCF@?$AAO?$AAM?$AAA?$AAP?$AA_?$AAD?$AAE?$AAV?$AAI?$AAC?$AAE?$AA_?$AAI?$AAC?$AAR?$AA?$AA@ 0001c6e8     OMAP3530_oal_prcm:prcm_clock.obj
 0001:0000b708       ??_C@_1CC@BOIIAOEB@?$AAO?$AAM?$AAA?$AAP?$AA_?$AAD?$AAE?$AAV?$AAI?$AAC?$AAE?$AA_?$AAA?$AAE?$AAS?$AA2?$AA?$AA@ 0001c708     OMAP3530_oal_prcm:prcm_clock.obj
 0001:0000b72c       ??_C@_1CE@PJCPMBMK@?$AAO?$AAM?$AAA?$AAP?$AA_?$AAD?$AAE?$AAV?$AAI?$AAC?$AAE?$AA_?$AAS?$AAH?$AAA?$AA1?$AA2?$AA?$AA@ 0001c72c     OMAP3530_oal_prcm:prcm_clock.obj
 0001:0000b750       ??_C@_1CC@PIKBMFAF@?$AAO?$AAM?$AAA?$AAP?$AA_?$AAD?$AAE?$AAV?$AAI?$AAC?$AAE?$AA_?$AAD?$AAE?$AAS?$AA2?$AA?$AA@ 0001c750     OMAP3530_oal_prcm:prcm_clock.obj
 0001:0000b774       ??_C@_1CC@GMDLJAIE@?$AAO?$AAM?$AAA?$AAP?$AA_?$AAD?$AAE?$AAV?$AAI?$AAC?$AAE?$AA_?$AAM?$AAM?$AAC?$AA3?$AA?$AA@ 0001c774     OMAP3530_oal_prcm:prcm_clock.obj
 0001:0000b798       ??_C@_1CC@NEIHPHOB@?$AAO?$AAM?$AAA?$AAP?$AA_?$AAD?$AAE?$AAV?$AAI?$AAC?$AAE?$AA_?$AAM?$AAM?$AAC?$AA2?$AA?$AA@ 0001c798     OMAP3530_oal_prcm:prcm_clock.obj
 0001:0000b7bc       ??_C@_1CC@MGDCFIAP@?$AAO?$AAM?$AAA?$AAP?$AA_?$AAD?$AAE?$AAV?$AAI?$AAC?$AAE?$AA_?$AAM?$AAM?$AAC?$AA1?$AA?$AA@ 0001c7bc     OMAP3530_oal_prcm:prcm_clock.obj
 0001:0000b7e0       ??_C@_1CE@GEGMLBDH@?$AAO?$AAM?$AAA?$AAP?$AA_?$AAD?$AAE?$AAV?$AAI?$AAC?$AAE?$AA_?$AAM?$AAS?$AAP?$AAR?$AAO?$AA?$AA@ 0001c7e0     OMAP3530_oal_prcm:prcm_clock.obj
 0001:0000b804       ??_C@_1CA@LMGICGON@?$AAO?$AAM?$AAA?$AAP?$AA_?$AAD?$AAE?$AAV?$AAI?$AAC?$AAE?$AA_?$AAH?$AAD?$AAQ?$AA?$AA@ 0001c804     OMAP3530_oal_prcm:prcm_clock.obj
 0001:0000b824       ??_C@_1CG@CAHLJKCL@?$AAO?$AAM?$AAA?$AAP?$AA_?$AAD?$AAE?$AAV?$AAI?$AAC?$AAE?$AA_?$AAM?$AAC?$AAS?$AAP?$AAI?$AA4?$AA?$AA@ 0001c824     OMAP3530_oal_prcm:prcm_clock.obj
 0001:0000b84c       ??_C@_1CG@LNKMKCJC@?$AAO?$AAM?$AAA?$AAP?$AA_?$AAD?$AAE?$AAV?$AAI?$AAC?$AAE?$AA_?$AAM?$AAC?$AAS?$AAP?$AAI?$AA3?$AA?$AA@ 0001c84c     OMAP3530_oal_prcm:prcm_clock.obj
 0001:0000b874       ??_C@_1CG@FBAMFPH@?$AAO?$AAM?$AAA?$AAP?$AA_?$AAD?$AAE?$AAV?$AAI?$AAC?$AAE?$AA_?$AAM?$AAC?$AAS?$AAP?$AAI?$AA2?$AA?$AA@ 0001c874     OMAP3530_oal_prcm:prcm_clock.obj
 0001:0000b89c       ??_C@_1CG@BHKFGKBJ@?$AAO?$AAM?$AAA?$AAP?$AA_?$AAD?$AAE?$AAV?$AAI?$AAC?$AAE?$AA_?$AAM?$AAC?$AAS?$AAP?$AAI?$AA1?$AA?$AA@ 0001c89c     OMAP3530_oal_prcm:prcm_clock.obj
 0001:0000b8c4       ??_C@_1CC@BAKALDMC@?$AAO?$AAM?$AAA?$AAP?$AA_?$AAD?$AAE?$AAV?$AAI?$AAC?$AAE?$AA_?$AAI?$AA2?$AAC?$AA3?$AA?$AA@ 0001c8c4     OMAP3530_oal_prcm:prcm_clock.obj
 0001:0000b8e8       ??_C@_1CC@KIBMNEKH@?$AAO?$AAM?$AAA?$AAP?$AA_?$AAD?$AAE?$AAV?$AAI?$AAC?$AAE?$AA_?$AAI?$AA2?$AAC?$AA2?$AA?$AA@ 0001c8e8     OMAP3530_oal_prcm:prcm_clock.obj
 0001:0000b90c       ??_C@_1CC@LKKJHLEJ@?$AAO?$AAM?$AAA?$AAP?$AA_?$AAD?$AAE?$AAV?$AAI?$AAC?$AAE?$AA_?$AAI?$AA2?$AAC?$AA1?$AA?$AA@ 0001c90c     OMAP3530_oal_prcm:prcm_clock.obj
 0001:0000b930       ??_C@_1CE@EAAKOHMB@?$AAO?$AAM?$AAA?$AAP?$AA_?$AAD?$AAE?$AAV?$AAI?$AAC?$AAE?$AA_?$AAU?$AAA?$AAR?$AAT?$AA2?$AA?$AA@ 0001c930     OMAP3530_oal_prcm:prcm_clock.obj
 0001:0000b954       ??_C@_1CE@FCLPEICP@?$AAO?$AAM?$AAA?$AAP?$AA_?$AAD?$AAE?$AAV?$AAI?$AAC?$AAE?$AA_?$AAU?$AAA?$AAR?$AAT?$AA1?$AA?$AA@ 0001c954     OMAP3530_oal_prcm:prcm_clock.obj
 0001:0000b978       ??_C@_1CM@FOLMNLIK@?$AAO?$AAM?$AAA?$AAP?$AA_?$AAD?$AAE?$AAV?$AAI?$AAC?$AAE?$AA_?$AAG?$AAP?$AAT?$AAI?$AAM?$AAE?$AAR?$AA1?$AA1?$AA?$AA@ 0001c978     OMAP3530_oal_prcm:prcm_clock.obj
 0001:0000b9a4       ??_C@_1CM@OGAALMOP@?$AAO?$AAM?$AAA?$AAP?$AA_?$AAD?$AAE?$AAV?$AAI?$AAC?$AAE?$AA_?$AAG?$AAP?$AAT?$AAI?$AAM?$AAE?$AAR?$AA1?$AA0?$AA?$AA@ 0001c9a4     OMAP3530_oal_prcm:prcm_clock.obj
 0001:0000b9d0       ??_C@_1CG@PKPNEDCI@?$AAO?$AAM?$AAA?$AAP?$AA_?$AAD?$AAE?$AAV?$AAI?$AAC?$AAE?$AA_?$AAM?$AAC?$AAB?$AAS?$AAP?$AA5?$AA?$AA@ 0001c9d0     OMAP3530_oal_prcm:prcm_clock.obj
 0001:0000b9f8       ??_C@_1CG@HFJPNEHP@?$AAO?$AAM?$AAA?$AAP?$AA_?$AAD?$AAE?$AAV?$AAI?$AAC?$AAE?$AA_?$AAM?$AAC?$AAB?$AAS?$AAP?$AA1?$AA?$AA@ 0001c9f8     OMAP3530_oal_prcm:prcm_clock.obj
 0001:0000ba20       ??_C@_1CM@FGHMOAMI@?$AAO?$AAM?$AAA?$AAP?$AA_?$AAD?$AAE?$AAV?$AAI?$AAC?$AAE?$AA_?$AAM?$AAA?$AAI?$AAL?$AAB?$AAO?$AAX?$AAE?$AAS?$AA?$AA@ 0001ca20     OMAP3530_oal_prcm:prcm_clock.obj
 0001:0000ba4c       ??_C@_1CK@IFNFIOAO@?$AAO?$AAM?$AAA?$AAP?$AA_?$AAD?$AAE?$AAV?$AAI?$AAC?$AAE?$AA_?$AAO?$AAM?$AAA?$AAP?$AAC?$AAT?$AAR?$AAL?$AA?$AA@ 0001ca4c     OMAP3530_oal_prcm:prcm_clock.obj
 0001:0000ba78       ??_C@_1CK@IEABCGNC@?$AAO?$AAM?$AAA?$AAP?$AA_?$AAD?$AAE?$AAV?$AAI?$AAC?$AAE?$AA_?$AAH?$AAS?$AAO?$AAT?$AAG?$AAU?$AAS?$AAB?$AA?$AA@ 0001ca78     OMAP3530_oal_prcm:prcm_clock.obj
 0001:0000baa4       ??_C@_1CA@FBHLHKND@?$AAO?$AAM?$AAA?$AAP?$AA_?$AAD?$AAE?$AAV?$AAI?$AAC?$AAE?$AA_?$AAD?$AA2?$AAD?$AA?$AA@ 0001caa4     OMAP3530_oal_prcm:prcm_clock.obj
 0001:0000bac4       ??_C@_1CC@OJKGELFG@?$AAO?$AAM?$AAA?$AAP?$AA_?$AAD?$AAE?$AAV?$AAI?$AAC?$AAE?$AA_?$AAS?$AAD?$AAR?$AAC?$AA?$AA@ 0001cac4     OMAP3530_oal_prcm:prcm_clock.obj
 0001:0000bae8       ??_C@_1CI@JGKNPEFC@?$AAO?$AAM?$AAA?$AAP?$AA_?$AAD?$AAE?$AAV?$AAI?$AAC?$AAE?$AA_?$AAS?$AAS?$AAI?$AA?5?$AA?$DN?$AA?5?$AA0?$AA?$AA@ 0001cae8     OMAP3530_oal_prcm:prcm_clock.obj
 0001:0000bb10       ??_C@_1BI@MMHHFKED@?$AAk?$AAG?$AAP?$AAT?$AA1?$AA1?$AA_?$AAF?$AAC?$AAL?$AAK?$AA?$AA@ 0001cb10     OMAP3530_oal_prcm:prcm_clock.obj
 0001:0000bb28       ??_C@_1BI@FBHILLDF@?$AAk?$AAG?$AAP?$AAT?$AA1?$AA0?$AA_?$AAF?$AAC?$AAL?$AAK?$AA?$AA@ 0001cb28     OMAP3530_oal_prcm:prcm_clock.obj
 0001:0000bb40       ??_C@_1CC@CDCMPIGB@?$AAk?$AAG?$AAP?$AAT?$AA9?$AA_?$AAA?$AAL?$AAW?$AAO?$AAN?$AA_?$AAF?$AAC?$AAL?$AAK?$AA?$AA@ 0001cb40     OMAP3530_oal_prcm:prcm_clock.obj
 0001:0000bb64       ??_C@_1CC@MEDBFOPG@?$AAk?$AAG?$AAP?$AAT?$AA8?$AA_?$AAA?$AAL?$AAW?$AAO?$AAN?$AA_?$AAF?$AAC?$AAL?$AAK?$AA?$AA@ 0001cb64     OMAP3530_oal_prcm:prcm_clock.obj
 0001:0000bb88       ??_C@_1CC@EJNLAIGM@?$AAk?$AAG?$AAP?$AAT?$AA7?$AA_?$AAA?$AAL?$AAW?$AAO?$AAN?$AA_?$AAF?$AAC?$AAL?$AAK?$AA?$AA@ 0001cb88     OMAP3530_oal_prcm:prcm_clock.obj
 0001:0000bbac       ??_C@_1CC@KOMGKOPL@?$AAk?$AAG?$AAP?$AAT?$AA6?$AA_?$AAA?$AAL?$AAW?$AAO?$AAN?$AA_?$AAF?$AAC?$AAL?$AAK?$AA?$AA@ 0001cbac     OMAP3530_oal_prcm:prcm_clock.obj
 0001:0000bbd0       ??_C@_1CC@FMJBEDAD@?$AAk?$AAG?$AAP?$AAT?$AA5?$AA_?$AAA?$AAL?$AAW?$AAO?$AAN?$AA_?$AAF?$AAC?$AAL?$AAK?$AA?$AA@ 0001cbd0     OMAP3530_oal_prcm:prcm_clock.obj
 0001:0000bbf4       ??_C@_1CC@LLIMOFJE@?$AAk?$AAG?$AAP?$AAT?$AA4?$AA_?$AAA?$AAL?$AAW?$AAO?$AAN?$AA_?$AAF?$AAC?$AAL?$AAK?$AA?$AA@ 0001cbf4     OMAP3530_oal_prcm:prcm_clock.obj
 0001:0000bc18       ??_C@_1CC@GDEPJOLC@?$AAk?$AAG?$AAP?$AAT?$AA3?$AA_?$AAA?$AAL?$AAW?$AAO?$AAN?$AA_?$AAF?$AAC?$AAL?$AAK?$AA?$AA@ 0001cc18     OMAP3530_oal_prcm:prcm_clock.obj
 0001:0000bc3c       ??_C@_1CC@IEFCDICF@?$AAk?$AAG?$AAP?$AAT?$AA2?$AA_?$AAA?$AAL?$AAW?$AAO?$AAN?$AA_?$AAF?$AAC?$AAL?$AAK?$AA?$AA@ 0001cc3c     OMAP3530_oal_prcm:prcm_clock.obj
 0001:0000bc60       ??_C@_1BG@LBMJBNDI@?$AAk?$AAG?$AAP?$AAT?$AA1?$AA_?$AAF?$AAC?$AAL?$AAK?$AA?$AA@ 0001cc60     OMAP3530_oal_prcm:prcm_clock.obj
 0001:0000bc78       ??_C@_1BE@BKPHEHJG@?$AAk?$AAS?$AAG?$AAX?$AA_?$AAF?$AAC?$AAL?$AAK?$AA?$AA@ 0001cc78     OMAP3530_oal_prcm:prcm_clock.obj
 0001:0000bc8c       ??_C@_1BE@OHPPGGKJ@?$AAk?$AA5?$AA4?$AAM?$AA_?$AAF?$AAC?$AAL?$AAK?$AA?$AA@ 0001cc8c     OMAP3530_oal_prcm:prcm_clock.obj
 0001:0000bca0       ??_C@_1BE@KPIPADIA@?$AAk?$AA4?$AA8?$AAM?$AA_?$AAF?$AAC?$AAL?$AAK?$AA?$AA@ 0001cca0     OMAP3530_oal_prcm:prcm_clock.obj
 0001:0000bcb4       ??_C@_1BE@HMKGDKMA@?$AAk?$AA9?$AA6?$AAM?$AA_?$AAF?$AAC?$AAL?$AAK?$AA?$AA@ 0001ccb4     OMAP3530_oal_prcm:prcm_clock.obj
 0001:0000bcc8       ??_C@_1BG@FOLAEDFM@?$AAk?$AAU?$AAS?$AAI?$AAM?$AA_?$AAF?$AAC?$AAL?$AAK?$AA?$AA@ 0001ccc8     OMAP3530_oal_prcm:prcm_clock.obj
 0001:0000bce0       ??_C@_1BK@FIGBAONF@?$AAk?$AAC?$AAM?$AA_?$AAU?$AAS?$AAI?$AAM?$AA_?$AAC?$AAL?$AAK?$AA?$AA@ 0001cce0     OMAP3530_oal_prcm:prcm_clock.obj
 0001:0000bcfc       ??_C@_1CG@INMPAIAN@?$AAk?$AAU?$AAS?$AAB?$AAH?$AAO?$AAS?$AAT?$AA_?$AA1?$AA2?$AA0?$AAM?$AA_?$AAF?$AAC?$AAL?$AAK?$AA?$AA@ 0001ccfc     OMAP3530_oal_prcm:prcm_clock.obj
 0001:0000bd24       ??_C@_1BK@DMMIFOKJ@?$AAk?$AAD?$AAS?$AAS?$AA_?$AAT?$AAV?$AA_?$AAF?$AAC?$AAL?$AAK?$AA?$AA@ 0001cd24     OMAP3530_oal_prcm:prcm_clock.obj
 0001:0000bd40       ??_C@_1BO@KGNEDEAO@?$AAk?$AAC?$AAO?$AAR?$AAE?$AA_?$AA1?$AA2?$AAM?$AA_?$AAF?$AAC?$AAL?$AAK?$AA?$AA@ 0001cd40     OMAP3530_oal_prcm:prcm_clock.obj
 0001:0000bd60       ??_C@_1BE@LPMGNIEL@?$AAk?$AA1?$AA2?$AAM?$AA_?$AAF?$AAC?$AAL?$AAK?$AA?$AA@ 0001cd60     OMAP3530_oal_prcm:prcm_clock.obj
 0001:0000bd74       ??_C@_1BM@CNNCGJCM@?$AAk?$AAP?$AAE?$AAR?$AA_?$AA4?$AA8?$AAM?$AA_?$AAF?$AAC?$AAL?$AAK?$AA?$AA@ 0001cd74     OMAP3530_oal_prcm:prcm_clock.obj
 0001:0000bd90       ??_C@_1CE@JDPIHICJ@?$AAk?$AAU?$AAS?$AAB?$AAH?$AAO?$AAS?$AAT?$AA_?$AA4?$AA8?$AAM?$AA_?$AAF?$AAC?$AAL?$AAK?$AA?$AA@ 0001cd90     OMAP3530_oal_prcm:prcm_clock.obj
 0001:0000bdb4       ??_C@_1BO@LGJNOPMF@?$AAk?$AAC?$AAO?$AAR?$AAE?$AA_?$AA4?$AA8?$AAM?$AA_?$AAF?$AAC?$AAL?$AAK?$AA?$AA@ 0001cdb4     OMAP3530_oal_prcm:prcm_clock.obj
 0001:0000bdd4       ??_C@_1BO@MLNMBJDB@?$AAk?$AAC?$AAS?$AAI?$AA2?$AA_?$AA9?$AA6?$AAM?$AA_?$AAF?$AAC?$AAL?$AAK?$AA?$AA@ 0001cdd4     OMAP3530_oal_prcm:prcm_clock.obj
 0001:0000bdf4       ??_C@_1BM@KGEDNEGH@?$AAk?$AAD?$AAS?$AAS?$AA_?$AA9?$AA6?$AAM?$AA_?$AAF?$AAC?$AAL?$AAK?$AA?$AA@ 0001cdf4     OMAP3530_oal_prcm:prcm_clock.obj
 0001:0000be10       ??_C@_1BO@GFLENGIF@?$AAk?$AAC?$AAO?$AAR?$AAE?$AA_?$AA9?$AA6?$AAM?$AA_?$AAF?$AAC?$AAL?$AAK?$AA?$AA@ 0001ce10     OMAP3530_oal_prcm:prcm_clock.obj
 0001:0000be30       ??_C@_1BM@JEIEMPJK@?$AAk?$AAS?$AAS?$AAI?$AA_?$AAS?$AAS?$AAT?$AA_?$AAF?$AAC?$AAL?$AAK?$AA?$AA@ 0001ce30     OMAP3530_oal_prcm:prcm_clock.obj
 0001:0000be4c       ??_C@_1BM@GMEGIECM@?$AAk?$AAS?$AAS?$AAI?$AA_?$AAS?$AAS?$AAR?$AA_?$AAF?$AAC?$AAL?$AAK?$AA?$AA@ 0001ce4c     OMAP3530_oal_prcm:prcm_clock.obj
 0001:0000be68       ??_C@_1BI@KNLMECEA@?$AAk?$AAS?$AAR?$AA_?$AAL?$AA4?$AA_?$AAI?$AAC?$AAL?$AAK?$AA?$AA@ 0001ce68     OMAP3530_oal_prcm:prcm_clock.obj
 0001:0000be80       ??_C@_1BK@JNEICFJE@?$AAk?$AAP?$AAE?$AAR?$AA_?$AAL?$AA4?$AA_?$AAI?$AAC?$AAL?$AAK?$AA?$AA@ 0001ce80     OMAP3530_oal_prcm:prcm_clock.obj
 0001:0000be9c       ??_C@_1CC@CIKJOCKA@?$AAk?$AAU?$AAS?$AAB?$AAH?$AAO?$AAS?$AAT?$AA_?$AAL?$AA4?$AA_?$AAI?$AAC?$AAL?$AAK?$AA?$AA@ 0001ce9c     OMAP3530_oal_prcm:prcm_clock.obj
 0001:0000bec0       ??_C@_1CC@ENGEEIGA@?$AAk?$AAU?$AAS?$AAB?$AAH?$AAO?$AAS?$AAT?$AA_?$AAL?$AA3?$AA_?$AAI?$AAC?$AAL?$AAK?$AA?$AA@ 0001cec0     OMAP3530_oal_prcm:prcm_clock.obj
 0001:0000bee4       ??_C@_1BK@HKMFLLIF@?$AAk?$AAC?$AAA?$AAM?$AA_?$AAL?$AA4?$AA_?$AAI?$AAC?$AAL?$AAK?$AA?$AA@ 0001cee4     OMAP3530_oal_prcm:prcm_clock.obj
 0001:0000bf00       ??_C@_1BK@BPAIBBEF@?$AAk?$AAC?$AAA?$AAM?$AA_?$AAL?$AA3?$AA_?$AAI?$AAC?$AAL?$AAK?$AA?$AA@ 0001cf00     OMAP3530_oal_prcm:prcm_clock.obj
 0001:0000bf1c       ??_C@_1BK@DFEEOPHB@?$AAk?$AAD?$AAS?$AAS?$AA_?$AAL?$AA4?$AA_?$AAI?$AAC?$AAL?$AAK?$AA?$AA@ 0001cf1c     OMAP3530_oal_prcm:prcm_clock.obj
 0001:0000bf38       ??_C@_1BK@FAIJEFLB@?$AAk?$AAD?$AAS?$AAS?$AA_?$AAL?$AA3?$AA_?$AAI?$AAC?$AAL?$AAK?$AA?$AA@ 0001cf38     OMAP3530_oal_prcm:prcm_clock.obj
 0001:0000bf54       ??_C@_1BK@MMOEKMCA@?$AAk?$AAS?$AAS?$AAI?$AA_?$AAL?$AA4?$AA_?$AAI?$AAC?$AAL?$AAK?$AA?$AA@ 0001cf54     OMAP3530_oal_prcm:prcm_clock.obj
 0001:0000bf70       ??_C@_1BK@NJNOEPMC@?$AAk?$AAS?$AAG?$AAX?$AA_?$AAL?$AA3?$AA_?$AAI?$AAC?$AAL?$AAK?$AA?$AA@ 0001cf70     OMAP3530_oal_prcm:prcm_clock.obj
 0001:0000bf8c       ??_C@_1CG@CFAPNILK@?$AAk?$AAS?$AAE?$AAC?$AAU?$AAR?$AAI?$AAT?$AAY?$AA_?$AAL?$AA4?$AA_?$AAI?$AAC?$AAL?$AAK?$AA2?$AA?$AA@ 0001cf8c     OMAP3530_oal_prcm:prcm_clock.obj
 0001:0000bfb4       ??_C@_1CG@DHLKHHFE@?$AAk?$AAS?$AAE?$AAC?$AAU?$AAR?$AAI?$AAT?$AAY?$AA_?$AAL?$AA4?$AA_?$AAI?$AAC?$AAL?$AAK?$AA1?$AA?$AA@ 0001cfb4     OMAP3530_oal_prcm:prcm_clock.obj
 0001:0000bfdc       ??_C@_1CE@DCCJJJCO@?$AAk?$AAS?$AAE?$AAC?$AAU?$AAR?$AAI?$AAT?$AAY?$AA_?$AAL?$AA3?$AA_?$AAI?$AAC?$AAL?$AAK?$AA?$AA@ 0001cfdc     OMAP3530_oal_prcm:prcm_clock.obj
 0001:0000c000       ??_C@_1BM@GNELHHCO@?$AAk?$AAC?$AAO?$AAR?$AAE?$AA_?$AAL?$AA4?$AA_?$AAI?$AAC?$AAL?$AAK?$AA?$AA@ 0001d000     OMAP3530_oal_prcm:prcm_clock.obj
 0001:0000c01c       ??_C@_1BM@IIGNNOO@?$AAk?$AAC?$AAO?$AAR?$AAE?$AA_?$AAL?$AA3?$AA_?$AAI?$AAC?$AAL?$AAK?$AA?$AA@ 0001d01c     OMAP3530_oal_prcm:prcm_clock.obj
 0001:0000c038       ??_C@_1BI@GGLANBIM@?$AAk?$AAD?$AAP?$AAL?$AAL?$AA2?$AA_?$AAF?$AAC?$AAL?$AAK?$AA?$AA@ 0001d038     OMAP3530_oal_prcm:prcm_clock.obj
 0001:0000c050       ??_C@_1BI@BKNBPEFH@?$AAk?$AAD?$AAP?$AAL?$AAL?$AA1?$AA_?$AAF?$AAC?$AAL?$AAK?$AA?$AA@ 0001d050     OMAP3530_oal_prcm:prcm_clock.obj
 0001:0000c068       ??_C@_1BC@IEJPNIBD@?$AAk?$AAR?$AAM?$AA_?$AAI?$AAC?$AAL?$AAK?$AA?$AA@ 0001d068     OMAP3530_oal_prcm:prcm_clock.obj
 0001:0000c07c       ??_C@_1BK@EOKLGFAI@?$AAk?$AAU?$AAS?$AAB?$AA_?$AAL?$AA4?$AA_?$AAI?$AAC?$AAL?$AAK?$AA?$AA@ 0001d07c     OMAP3530_oal_prcm:prcm_clock.obj
 0001:0000c098       ??_C@_1BC@GADFMCD@?$AAk?$AAL?$AA4?$AA_?$AAI?$AAC?$AAL?$AAK?$AA?$AA@ 0001d098     OMAP3530_oal_prcm:prcm_clock.obj
 0001:0000c0ac       ??_C@_1BC@GDMOPGOD@?$AAk?$AAL?$AA3?$AA_?$AAI?$AAC?$AAL?$AAK?$AA?$AA@ 0001d0ac     OMAP3530_oal_prcm:prcm_clock.obj
 0001:0000c0c0       ??_C@_1CA@PCEHGMIB@?$AAk?$AA9?$AA6?$AAM?$AA_?$AAA?$AAL?$AAW?$AAO?$AAN?$AA_?$AAF?$AAC?$AAL?$AAK?$AA?$AA@ 0001d0c0     OMAP3530_oal_prcm:prcm_clock.obj
 0001:0000c0e0       ??_C@_1BK@MCHPLJEE@?$AAk?$AAC?$AAM?$AA_?$AA9?$AA6?$AAM?$AA_?$AAF?$AAC?$AAL?$AAK?$AA?$AA@ 0001d0e0     OMAP3530_oal_prcm:prcm_clock.obj
 0001:0000c0fc       ??_C@_1CA@BBGPJHGP@?$AAk?$AAC?$AAO?$AAR?$AAE?$AA_?$AA1?$AA2?$AA0?$AAM?$AA_?$AAF?$AAC?$AAL?$AAK?$AA?$AA@ 0001d0fc     OMAP3530_oal_prcm:prcm_clock.obj
 0001:0000c11c       ??_C@_1CI@EADHIPEB@?$AAk?$AAP?$AAE?$AAR?$AA_?$AA3?$AA2?$AAK?$AA_?$AAA?$AAL?$AAW?$AAO?$AAN?$AA_?$AAF?$AAC?$AAL?$AAK?$AA?$AA@ 0001d11c     OMAP3530_oal_prcm:prcm_clock.obj
 0001:0000c144       ??_C@_1BO@LPLICNLH@?$AAk?$AAW?$AAK?$AAU?$AAP?$AA_?$AA3?$AA2?$AAK?$AA_?$AAF?$AAC?$AAL?$AAK?$AA?$AA@ 0001d144     OMAP3530_oal_prcm:prcm_clock.obj
 0001:0000c164       ??_C@_1BO@FLMCBEDL@?$AAk?$AAC?$AAO?$AAR?$AAE?$AA_?$AA3?$AA2?$AAK?$AA_?$AAF?$AAC?$AAL?$AAK?$AA?$AA@ 0001d164     OMAP3530_oal_prcm:prcm_clock.obj
 0001:0000c184       ??_C@_1BI@BEPCGLLM@?$AAk?$AAC?$AAM?$AA_?$AA3?$AA2?$AAK?$AA_?$AAC?$AAL?$AAK?$AA?$AA@ 0001d184     OMAP3530_oal_prcm:prcm_clock.obj
 0001:0000c19c       ??_C@_1BM@CKBOGBKN@?$AAk?$AAW?$AAK?$AAU?$AAP?$AA_?$AAL?$AA4?$AA_?$AAI?$AAC?$AAL?$AAK?$AA?$AA@ 0001d19c     OMAP3530_oal_prcm:prcm_clock.obj
 0001:0000c1b8       ??_C@_1CC@NOFOGNB@?$AAk?$AAD?$AAS?$AAS?$AA2?$AA_?$AAA?$AAL?$AAW?$AAO?$AAN?$AA_?$AAF?$AAC?$AAL?$AAK?$AA?$AA@ 0001d1b8     OMAP3530_oal_prcm:prcm_clock.obj
 0001:0000c1dc       ??_C@_1BI@OEECMJPN@?$AAk?$AAC?$AAM?$AA_?$AAS?$AAY?$AAS?$AA_?$AAC?$AAL?$AAK?$AA?$AA@ 0001d1dc     OMAP3530_oal_prcm:prcm_clock.obj
 0001:0000c1f4       ??_C@_1CE@IKHPAHF@?$AAk?$AAD?$AAP?$AAL?$AAL?$AA5?$AA_?$AAA?$AAL?$AAW?$AAO?$AAN?$AA_?$AAF?$AAC?$AAL?$AAK?$AA?$AA@ 0001d1f4     OMAP3530_oal_prcm:prcm_clock.obj
 0001:0000c218       ??_C@_1CE@OPLKFGOC@?$AAk?$AAD?$AAP?$AAL?$AAL?$AA4?$AA_?$AAA?$AAL?$AAW?$AAO?$AAN?$AA_?$AAF?$AAC?$AAL?$AAK?$AA?$AA@ 0001d218     OMAP3530_oal_prcm:prcm_clock.obj
 0001:0000c23c       ??_C@_1CE@DHHJCNME@?$AAk?$AAD?$AAP?$AAL?$AAL?$AA3?$AA_?$AAA?$AAL?$AAW?$AAO?$AAN?$AA_?$AAF?$AAC?$AAL?$AAK?$AA?$AA@ 0001d23c     OMAP3530_oal_prcm:prcm_clock.obj
 0001:0000c260       ??_C@_1CE@NAGEILFD@?$AAk?$AAD?$AAP?$AAL?$AAL?$AA2?$AA_?$AAA?$AAL?$AAW?$AAO?$AAN?$AA_?$AAF?$AAC?$AAL?$AAK?$AA?$AA@ 0001d260     OMAP3530_oal_prcm:prcm_clock.obj
 0001:0000c284       ??_C@_1CE@CCDDGGKL@?$AAk?$AAD?$AAP?$AAL?$AAL?$AA1?$AA_?$AAA?$AAL?$AAW?$AAO?$AAN?$AA_?$AAF?$AAC?$AAL?$AAK?$AA?$AA@ 0001d284     OMAP3530_oal_prcm:prcm_clock.obj
 0001:0000c2a8       ??_C@_1BO@OFGDLBDE@?$AAk?$AAS?$AAR?$AA_?$AAA?$AAL?$AAW?$AAO?$AAN?$AA_?$AAF?$AAC?$AAL?$AAK?$AA?$AA@ 0001d2a8     OMAP3530_oal_prcm:prcm_clock.obj
 0001:0000c2c8       ??_C@_1CE@PPGNFPBP@?$AAk?$AAE?$AAF?$AAU?$AAS?$AAE?$AA_?$AAA?$AAL?$AAW?$AAO?$AAN?$AA_?$AAF?$AAC?$AAL?$AAK?$AA?$AA@ 0001d2c8     OMAP3530_oal_prcm:prcm_clock.obj
 0001:0000c2ec       ??_C@_1CE@KHCGIPEA@?$AAk?$AAU?$AAS?$AAB?$AAH?$AAO?$AAS?$AAT?$AA_?$AAS?$AAA?$AAR?$AA_?$AAF?$AAC?$AAL?$AAK?$AA?$AA@ 0001d2ec     OMAP3530_oal_prcm:prcm_clock.obj
 0001:0000c310       ??_C@_1CC@HCOAMGKK@?$AAk?$AAU?$AAS?$AAB?$AAT?$AAL?$AAL?$AA_?$AAS?$AAA?$AAR?$AA_?$AAF?$AAC?$AAL?$AAK?$AA?$AA@ 0001d310     OMAP3530_oal_prcm:prcm_clock.obj
 0001:0000c334       ??_C@_1BI@CMEGODCK@?$AAk?$AAM?$AAC?$AAB?$AAS?$AAP?$AA_?$AAC?$AAL?$AAK?$AAS?$AA?$AA@ 0001d334     OMAP3530_oal_prcm:prcm_clock.obj
 0001:0000c34c       ??_C@_1CC@EOBIKDKJ@?$AAk?$AAS?$AAE?$AAC?$AAU?$AAR?$AAE?$AA_?$AA3?$AA2?$AAK?$AA_?$AAF?$AAC?$AAL?$AAK?$AA?$AA@ 0001d34c     OMAP3530_oal_prcm:prcm_clock.obj
 0001:0000c370       ??_C@_1BI@ILMCMCCC@?$AAk?$AAS?$AAY?$AAS?$AA_?$AAA?$AAL?$AAT?$AAC?$AAL?$AAK?$AA?$AA@ 0001d370     OMAP3530_oal_prcm:prcm_clock.obj
 0001:0000c388       ??_C@_1BC@HKFDEGNL@?$AAk?$AAS?$AAY?$AAS?$AA_?$AAC?$AAL?$AAK?$AA?$AA@ 0001d388     OMAP3530_oal_prcm:prcm_clock.obj
 0001:0000c39c       ??_C@_1BE@ECNAPIHO@?$AAk?$AA3?$AA2?$AAK?$AA_?$AAF?$AAC?$AAL?$AAK?$AA?$AA@ 0001d39c     OMAP3530_oal_prcm:prcm_clock.obj
 0001:0000c3b0       ??_C@_1BG@DFNNJLGO@?$AAk?$AA1?$AA2?$AA0?$AAM?$AA_?$AAF?$AAC?$AAL?$AAK?$AA?$AA@ 0001d3b0     OMAP3530_oal_prcm:prcm_clock.obj
 0001:0000c3c8       ??_C@_1CK@BAAFIMCG@?$AAk?$AAE?$AAM?$AAU?$AAL?$AA_?$AAP?$AAE?$AAR?$AA_?$AAA?$AAL?$AAW?$AAO?$AAN?$AA_?$AAC?$AAL?$AAK?$AA?5?$AA?$AA@ 0001d3c8     OMAP3530_oal_prcm:prcm_clock.obj
 0001:0000c3f4       ??_C@_1BE@HNDENLJM@?$AAk?$AAC?$AAA?$AAM?$AA_?$AAM?$AAC?$AAL?$AAK?$AA?$AA@ 0001d3f4     OMAP3530_oal_prcm:prcm_clock.obj
 0001:0000c408       ??_C@_1CC@PPLCALCJ@?$AAk?$AAD?$AAS?$AAS?$AA1?$AA_?$AAA?$AAL?$AAW?$AAO?$AAN?$AA_?$AAF?$AAC?$AAL?$AAK?$AA?$AA@ 0001d408     OMAP3530_oal_prcm:prcm_clock.obj
 0001:0000c42c       ??_C@_1CA@EIKHJGPJ@?$AAk?$AAD?$AAP?$AAL?$AAL?$AA4?$AA_?$AAM?$AA3?$AAX?$AA2?$AA_?$AAC?$AAL?$AAK?$AA?$AA@ 0001d42c     OMAP3530_oal_prcm:prcm_clock.obj
 0001:0000c44c       ??_C@_1CG@DJDPLNE@?$AAk?$AAP?$AAR?$AAM?$AA_?$AA9?$AA6?$AAM?$AA_?$AAA?$AAL?$AAW?$AAO?$AAN?$AA_?$AAC?$AAL?$AAK?$AA?$AA@ 0001d44c     OMAP3530_oal_prcm:prcm_clock.obj
 0001:0000c474       ??_C@_1CK@NDKHMFDM@?$AAk?$AAE?$AAM?$AAU?$AAL?$AA_?$AAC?$AAO?$AAR?$AAE?$AA_?$AAA?$AAL?$AAW?$AAO?$AAN?$AA_?$AAC?$AAL?$AAK?$AA?$AA@ 0001d474     OMAP3530_oal_prcm:prcm_clock.obj
 0001:0000c4a0       ??_C@_1BK@CKNHOHLE@?$AAk?$AAC?$AAO?$AAR?$AAE?$AAX?$AA2?$AA_?$AAF?$AAC?$AAL?$AAK?$AA?$AA@ 0001d4a0     OMAP3530_oal_prcm:prcm_clock.obj
 0001:0000c4bc       ??_C@_1BE@KIOEPBOF@?$AAk?$AAC?$AAO?$AAR?$AAE?$AA_?$AAC?$AAL?$AAK?$AA?$AA@ 0001d4bc     OMAP3530_oal_prcm:prcm_clock.obj
 0001:0000c4d0       ??_C@_1BM@LAPEPOFC@?$AAk?$AAD?$AAP?$AAL?$AAL?$AA2?$AA_?$AAM?$AA2?$AA_?$AAC?$AAL?$AAK?$AA?$AA@ 0001d4d0     OMAP3530_oal_prcm:prcm_clock.obj
 0001:0000c4ec       ??_C@_1CA@KNEGPAKI@?$AAk?$AAD?$AAP?$AAL?$AAL?$AA1?$AA_?$AAM?$AA2?$AAX?$AA2?$AA_?$AAC?$AAL?$AAK?$AA?$AA@ 0001d4ec     OMAP3530_oal_prcm:prcm_clock.obj
 0001:0000c50c       ??_C@_1BC@HPLLDAKE@?$AAk?$AAI?$AAN?$AAT?$AA_?$AAO?$AAS?$AAC?$AA?$AA@ 0001d50c     OMAP3530_oal_prcm:prcm_clock.obj
 0001:0000c520       ??_C@_1BE@CGAEBABM@?$AAk?$AAE?$AAX?$AAT?$AA_?$AAM?$AAI?$AAS?$AAC?$AA?$AA@ 0001d520     OMAP3530_oal_prcm:prcm_clock.obj
 0001:0000c534       ??_C@_1BC@GMCNFJOM@?$AAk?$AAE?$AAX?$AAT?$AA_?$AAA?$AAL?$AAT?$AA?$AA@ 0001d534     OMAP3530_oal_prcm:prcm_clock.obj
 0001:0000c548       ??_C@_1BK@KJEOLNHN@?$AAk?$AAE?$AAX?$AAT?$AA_?$AAS?$AAY?$AAS?$AA_?$AAC?$AAL?$AAK?$AA?$AA@ 0001d548     OMAP3530_oal_prcm:prcm_clock.obj
 0001:0000c564       ??_C@_1CC@LIKIOEDP@?$AAk?$AAD?$AAP?$AAL?$AAL?$AA5?$AA_?$AAC?$AAL?$AAK?$AAO?$AAU?$AAT?$AA_?$AAM?$AA2?$AA?$AA@ 0001d564     OMAP3530_oal_prcm:prcm_clock.obj
 0001:0000c588       ??_C@_1CG@JKMHNEID@?$AAk?$AAD?$AAP?$AAL?$AAL?$AA4?$AA_?$AAC?$AAL?$AAK?$AAO?$AAU?$AAT?$AA_?$AAM?$AA6?$AAX?$AA2?$AA?$AA@ 0001d588     OMAP3530_oal_prcm:prcm_clock.obj
 0001:0000c5b0       ??_C@_1CG@BEEINDGA@?$AAk?$AAD?$AAP?$AAL?$AAL?$AA4?$AA_?$AAC?$AAL?$AAK?$AAO?$AAU?$AAT?$AA_?$AAM?$AA5?$AAX?$AA2?$AA?$AA@ 0001d5b0     OMAP3530_oal_prcm:prcm_clock.obj
 0001:0000c5d8       ??_C@_1CG@NIOCNDPO@?$AAk?$AAD?$AAP?$AAL?$AAL?$AA4?$AA_?$AAC?$AAL?$AAK?$AAO?$AAU?$AAT?$AA_?$AAM?$AA4?$AAX?$AA2?$AA?$AA@ 0001d5d8     OMAP3530_oal_prcm:prcm_clock.obj
 0001:0000c600       ??_C@_1CG@NCCHNKOH@?$AAk?$AAD?$AAP?$AAL?$AAL?$AA4?$AA_?$AAC?$AAL?$AAK?$AAO?$AAU?$AAT?$AA_?$AAM?$AA3?$AAX?$AA2?$AA?$AA@ 0001d600     OMAP3530_oal_prcm:prcm_clock.obj
 0001:0000c628       ??_C@_1CG@BOINNKHJ@?$AAk?$AAD?$AAP?$AAL?$AAL?$AA4?$AA_?$AAC?$AAL?$AAK?$AAO?$AAU?$AAT?$AA_?$AAM?$AA2?$AAX?$AA2?$AA?$AA@ 0001d628     OMAP3530_oal_prcm:prcm_clock.obj
 0001:0000c650       ??_C@_1CG@NGCOCJLE@?$AAk?$AAD?$AAP?$AAL?$AAL?$AA3?$AA_?$AAC?$AAL?$AAK?$AAO?$AAU?$AAT?$AA_?$AAM?$AA3?$AAX?$AA2?$AA?$AA@ 0001d650     OMAP3530_oal_prcm:prcm_clock.obj
 0001:0000c678       ??_C@_1CG@BKIECJCK@?$AAk?$AAD?$AAP?$AAL?$AAL?$AA3?$AA_?$AAC?$AAL?$AAK?$AAO?$AAU?$AAT?$AA_?$AAM?$AA2?$AAX?$AA2?$AA?$AA@ 0001d678     OMAP3530_oal_prcm:prcm_clock.obj
 0001:0000c6a0       ??_C@_1CC@IJFLGGP@?$AAk?$AAD?$AAP?$AAL?$AAL?$AA3?$AA_?$AAC?$AAL?$AAK?$AAO?$AAU?$AAT?$AA_?$AAM?$AA2?$AA?$AA@ 0001d6a0     OMAP3530_oal_prcm:prcm_clock.obj
 0001:0000c6c4       ??_C@_1CC@IJLANDEI@?$AAk?$AAD?$AAP?$AAL?$AAL?$AA2?$AA_?$AAC?$AAL?$AAK?$AAO?$AAU?$AAT?$AA_?$AAM?$AA2?$AA?$AA@ 0001d6c4     OMAP3530_oal_prcm:prcm_clock.obj
 0001:0000c6e8       ??_C@_1CG@BJOPNDBA@?$AAk?$AAD?$AAP?$AAL?$AAL?$AA1?$AA_?$AAC?$AAL?$AAK?$AAO?$AAU?$AAT?$AA_?$AAM?$AA2?$AAX?$AA2?$AA?$AA@ 0001d6e8     OMAP3530_oal_prcm:prcm_clock.obj
 0001:0000c710       ??_C@_1BG@FJDLHCCD@?$AAk?$AAE?$AAX?$AAT?$AA_?$AA3?$AA2?$AAK?$AAH?$AAZ?$AA?$AA@ 0001d710     OMAP3530_oal_prcm:prcm_clock.obj
 0001:0000c728       ??_C@_1BE@EHNFPPJL@?$AAk?$AAD?$AAP?$AAL?$AAL?$AA_?$AAE?$AAX?$AAT?$AA?$AA@ 0001d728     OMAP3530_oal_prcm:prcm_clock.obj
 0001:0000c73c       ??_C@_1O@KGINCNBN@?$AAk?$AAD?$AAP?$AAL?$AAL?$AA5?$AA?$AA@ 0001d73c     OMAP3530_oal_prcm:prcm_clock.obj
 0001:0000c74c       ??_C@_1O@BODBEKHI@?$AAk?$AAD?$AAP?$AAL?$AAL?$AA4?$AA?$AA@ 0001d74c     OMAP3530_oal_prcm:prcm_clock.obj
 0001:0000c75c       ??_C@_1O@IDOGHCMB@?$AAk?$AAD?$AAP?$AAL?$AAL?$AA3?$AA?$AA@ 0001d75c     OMAP3530_oal_prcm:prcm_clock.obj
 0001:0000c76c       ??_C@_1O@DLFKBFKE@?$AAk?$AAD?$AAP?$AAL?$AAL?$AA2?$AA?$AA@ 0001d76c     OMAP3530_oal_prcm:prcm_clock.obj
 0001:0000c77c       ??_C@_1O@CJOPLKEK@?$AAk?$AAD?$AAP?$AAL?$AAL?$AA1?$AA?$AA@ 0001d77c     OMAP3530_oal_prcm:prcm_clock.obj
 0001:0000c78c       ??_C@_1BE@KENFMBEG@?$AAk?$AAM?$AAM?$AAC?$AA_?$AAV?$AAD?$AAD?$AAS?$AA?$AA@ 0001d78c     OMAP3530_oal_prcm:prcm_clock.obj
 0001:0000c7a0       ??_C@_1BC@ODEKFAPK@?$AAk?$AAV?$AAD?$AAD?$AAA?$AAD?$AAA?$AAC?$AA?$AA@ 0001d7a0     OMAP3530_oal_prcm:prcm_clock.obj
 0001:0000c7b4       ??_C@_1BA@PHFNGHLK@?$AAk?$AAV?$AAD?$AAD?$AAP?$AAL?$AAL?$AA?$AA@ 0001d7b4     OMAP3530_oal_prcm:prcm_clock.obj
 0001:0000c7c4       ??_C@_1M@IJEGCDLI@?$AAk?$AAV?$AAD?$AAD?$AAS?$AA?$AA@ 0001d7c4     OMAP3530_oal_prcm:prcm_clock.obj
 0001:0000c7d0       ??_C@_1BC@PPJANNEK@?$AAk?$AAV?$AAD?$AAD?$AA_?$AAE?$AAX?$AAT?$AA?$AA@ 0001d7d0     OMAP3530_oal_prcm:prcm_clock.obj
 0001:0000c7e4       ??_C@_1M@JHALILGH@?$AAk?$AAV?$AAD?$AAD?$AA5?$AA?$AA@ 0001d7e4     OMAP3530_oal_prcm:prcm_clock.obj
 0001:0000c7f0       ??_C@_1M@CPLHOMAC@?$AAk?$AAV?$AAD?$AAD?$AA4?$AA?$AA@ 0001d7f0     OMAP3530_oal_prcm:prcm_clock.obj
 0001:0000c7fc       ??_C@_1M@LCGANELL@?$AAk?$AAV?$AAD?$AAD?$AA3?$AA?$AA@ 0001d7fc     OMAP3530_oal_prcm:prcm_clock.obj
 0001:0000c808       ??_C@_1M@KNMLDNO@?$AAk?$AAV?$AAD?$AAD?$AA2?$AA?$AA@ 0001d808     OMAP3530_oal_prcm:prcm_clock.obj
 0001:0000c814       ??_C@_1M@BIGJBMDA@?$AAk?$AAV?$AAD?$AAD?$AA1?$AA?$AA@ 0001d814     OMAP3530_oal_prcm:prcm_clock.obj
 0001:0000c8b0       ??_C@_1DC@FACACCH@?$AA?9?$AA_?$AAC?$AAl?$AAo?$AAc?$AAk?$AAI?$AAn?$AAi?$AAt?$AAi?$AAa?$AAl?$AAi?$AAz?$AAe?$AA?$CI?$AA?$CJ?$AA?$DN?$AA?$CF?$AAd?$AA?$AN?$AA?6?$AA?$AA@ 0001d8b0     OMAP3530_oal_prcm:prcm_clock.obj
 0001:0000c8e8       ??_C@_1MG@OONPFGBP@?$AA?$CL?$AA_?$AAC?$AAl?$AAo?$AAc?$AAk?$AAI?$AAn?$AAi?$AAt?$AAi?$AAa?$AAl?$AAi?$AAz?$AAe?$AA?$CI?$AAp?$AAD?$AAp?$AAl?$AAl?$AA?$DN?$AA0?$AAx?$AA?$CF?$AA0?$AA8?$AAX?$AA?0?$AA?5@ 0001d8e8     OMAP3530_oal_prcm:prcm_clock.obj
 0001:0000c9b0       ??_C@_1EE@LONBGGII@?$AA?9?$AA_?$AAC?$AAl?$AAo?$AAc?$AAk?$AAH?$AAw?$AAU?$AAp?$AAd?$AAa?$AAt?$AAe?$AAP?$AAa?$AAr?$AAe?$AAn?$AAt?$AAC?$AAl?$AAo?$AAc?$AAk?$AA?$CI?$AA?$CJ?$AA?$DN?$AA?$CF?$AAd?$AA?$AN@ 0001d9b0     OMAP3530_oal_prcm:prcm_clock.obj
 0001:0000c9f8       ??_C@_1FC@MLOGNJBG@?$AA?$CL?$AA_?$AAC?$AAl?$AAo?$AAc?$AAk?$AAH?$AAw?$AAU?$AAp?$AAd?$AAa?$AAt?$AAe?$AAP?$AAa?$AAr?$AAe?$AAn?$AAt?$AAC?$AAl?$AAo?$AAc?$AAk?$AA?$CI?$AAc?$AAl?$AAo?$AAc?$AAk@ 0001d9f8     OMAP3530_oal_prcm:prcm_clock.obj
 0001:0000ca4c       ??_C@_1DO@BLFNJPIJ@?$AA?9?$AA_?$AAC?$AAl?$AAo?$AAc?$AAk?$AAU?$AAp?$AAd?$AAa?$AAt?$AAe?$AAD?$AAp?$AAl?$AAl?$AAO?$AAu?$AAt?$AAp?$AAu?$AAt?$AA?$CI?$AA?$CJ?$AA?$DN?$AA?$CF?$AAd?$AA?$AN?$AA?6?$AA?$AA@ 0001da4c     OMAP3530_oal_prcm:prcm_clock.obj
 0001:0000ca90       ??_C@_1GG@DBFCOCMC@?$AA?$CL?$AA_?$AAC?$AAl?$AAo?$AAc?$AAk?$AAU?$AAp?$AAd?$AAa?$AAt?$AAe?$AAD?$AAp?$AAl?$AAl?$AAO?$AAu?$AAt?$AAp?$AAu?$AAt?$AA?$CI?$AAs?$AAr?$AAc?$AAC?$AAl?$AAk?$AAI?$AAd@ 0001da90     OMAP3530_oal_prcm:prcm_clock.obj
 0001:0000caf8       ??_C@_1CK@FHFJABDF@?$AA?$CL?$AAC?$AAl?$AAo?$AAc?$AAk?$AAI?$AAn?$AAi?$AAt?$AAi?$AAa?$AAl?$AAi?$AAz?$AAe?$AA?$CI?$AA?$CJ?$AA?$AN?$AA?6?$AA?$AA@ 0001daf8     OMAP3530_oal_prcm:prcm_clock.obj
 0001:0000cb24       ??_C@_1DO@ELKPCHFC@?$AA?9?$AAC?$AAl?$AAo?$AAc?$AAk?$AAU?$AAp?$AAd?$AAa?$AAt?$AAe?$AAP?$AAa?$AAr?$AAe?$AAn?$AAt?$AAC?$AAl?$AAo?$AAc?$AAk?$AA?$CI?$AA?$CJ?$AA?$DN?$AA?$CF?$AAd?$AA?$AN?$AA?6?$AA?$AA@ 0001db24     OMAP3530_oal_prcm:prcm_clock.obj
 0001:0000cb68       ??_C@_1GG@NDNOIECG@?$AA?$CL?$AAC?$AAl?$AAo?$AAc?$AAk?$AAU?$AAp?$AAd?$AAa?$AAt?$AAe?$AAP?$AAa?$AAr?$AAe?$AAn?$AAt?$AAC?$AAl?$AAo?$AAc?$AAk?$AA?$CI?$AAs?$AAr?$AAc?$AAC?$AAl?$AAk?$AAI?$AAd@ 0001db68     OMAP3530_oal_prcm:prcm_clock.obj
 0001:0000cbd0       ??_C@_1DI@KBLNPMLI@?$AA?9?$AAP?$AAr?$AAc?$AAm?$AAC?$AAl?$AAo?$AAc?$AAk?$AAS?$AAe?$AAt?$AAD?$AAi?$AAv?$AAi?$AAs?$AAo?$AAr?$AA?$CI?$AA?$CJ?$AA?$DN?$AA?$CF?$AAd?$AA?$AN?$AA?6?$AA?$AA@ 0001dbd0     OMAP3530_oal_prcm:prcm_clock.obj
 0001:0000cc08       ??_C@_1IC@LGPONKMO@?$AA?$CL?$AAP?$AAr?$AAc?$AAm?$AAC?$AAl?$AAo?$AAc?$AAk?$AAS?$AAe?$AAt?$AAD?$AAi?$AAv?$AAi?$AAs?$AAo?$AAr?$AA?$CI?$AAc?$AAl?$AAo?$AAc?$AAk?$AAI?$AAd?$AA?$DN?$AA?$CF?$AAd?$AA?0@ 0001dc08     OMAP3530_oal_prcm:prcm_clock.obj
 0001:0000cc8c       ??_C@_1DG@BPIDCFJO@?$AA?9?$AAP?$AAr?$AAc?$AAm?$AAC?$AAl?$AAo?$AAc?$AAk?$AAS?$AAe?$AAt?$AAP?$AAa?$AAr?$AAe?$AAn?$AAt?$AA?$CI?$AA?$CJ?$AA?$DN?$AA?$CF?$AAd?$AA?$AN?$AA?6?$AA?$AA@ 0001dc8c     OMAP3530_oal_prcm:prcm_clock.obj
 0001:0000ccc8       ??_C@_1GO@JOGENMOG@?$AA?$CL?$AAP?$AAr?$AAc?$AAm?$AAC?$AAl?$AAo?$AAc?$AAk?$AAS?$AAe?$AAt?$AAP?$AAa?$AAr?$AAe?$AAn?$AAt?$AA?$CI?$AAc?$AAl?$AAo?$AAc?$AAk?$AAI?$AAd?$AA?$DN?$AA?$CF?$AAd?$AA?0?$AA?5@ 0001dcc8     OMAP3530_oal_prcm:prcm_clock.obj
 0001:0000cd38       ??_C@_1FA@MJCKPJCC@?$AA?$CL?$AAP?$AAr?$AAc?$AAm?$AAC?$AAl?$AAo?$AAc?$AAk?$AAG?$AAe?$AAt?$AAP?$AAa?$AAr?$AAe?$AAn?$AAt?$AAC?$AAl?$AAo?$AAc?$AAk?$AAR?$AAe?$AAf?$AAc?$AAo?$AAu?$AAn?$AAt@ 0001dd38     OMAP3530_oal_prcm:prcm_clock.obj
 0001:0000cd88       ??_C@_1HE@MOBKNDOK@?$AA?$CL?$AAP?$AAr?$AAc?$AAm?$AAC?$AAl?$AAo?$AAc?$AAk?$AAG?$AAe?$AAt?$AAP?$AAa?$AAr?$AAe?$AAn?$AAt?$AAC?$AAl?$AAo?$AAc?$AAk?$AAR?$AAe?$AAf?$AAc?$AAo?$AAu?$AAn?$AAt@ 0001dd88     OMAP3530_oal_prcm:prcm_clock.obj
 0001:0000ce00       ??_C@_1EI@CFCAKHBD@?$AA?$CL?$AAP?$AAr?$AAc?$AAm?$AAC?$AAl?$AAo?$AAc?$AAk?$AAG?$AAe?$AAt?$AAP?$AAa?$AAr?$AAe?$AAn?$AAt?$AAC?$AAl?$AAo?$AAc?$AAk?$AAI?$AAn?$AAf?$AAo?$AA?$CI?$AA?$CJ?$AA?$DN?$AA?$CF@ 0001de00     OMAP3530_oal_prcm:prcm_clock.obj
 0001:0000ce48       ??_C@_1II@JECHHBME@?$AA?$CL?$AAP?$AAr?$AAc?$AAm?$AAC?$AAl?$AAo?$AAc?$AAk?$AAG?$AAe?$AAt?$AAP?$AAa?$AAr?$AAe?$AAn?$AAt?$AAC?$AAl?$AAo?$AAc?$AAk?$AAI?$AAn?$AAf?$AAo?$AA?$CI?$AAc?$AAl?$AAo@ 0001de48     OMAP3530_oal_prcm:prcm_clock.obj
 0001:0000ced0       ??_C@_1DM@GILJKCEA@?$AA?$CL?$AAP?$AAr?$AAc?$AAm?$AAC?$AAl?$AAo?$AAc?$AAk?$AAS?$AAe?$AAt?$AAD?$AAp?$AAl?$AAl?$AAS?$AAt?$AAa?$AAt?$AAe?$AA?$CI?$AA?$CJ?$AA?$DN?$AA?$CF?$AAd?$AA?$AN?$AA?6?$AA?$AA@ 0001ded0     OMAP3530_oal_prcm:prcm_clock.obj
 0001:0000cf10       ??_C@_1EO@FILIAOBC@?$AA?$CL?$AAP?$AAr?$AAc?$AAm?$AAC?$AAl?$AAo?$AAc?$AAk?$AAS?$AAe?$AAt?$AAD?$AAp?$AAl?$AAl?$AAS?$AAt?$AAa?$AAt?$AAe?$AA?$CI?$AAp?$AAI?$AAn?$AAf?$AAo?$AA?$DN?$AA0?$AAx?$AA?$CF@ 0001df10     OMAP3530_oal_prcm:prcm_clock.obj
 0001:0000cf60       ??_C@_1EE@PEIBGBP@?$AA?$CL?$AAP?$AAr?$AAc?$AAm?$AAC?$AAl?$AAo?$AAc?$AAk?$AAS?$AAe?$AAt?$AAD?$AAp?$AAl?$AAl?$AAF?$AAr?$AAe?$AAq?$AAu?$AAe?$AAn?$AAc?$AAy?$AA?$CI?$AA?$CJ?$AA?$DN?$AA?$CF?$AAd?$AA?$AN@ 0001df60     OMAP3530_oal_prcm:prcm_clock.obj
 0001:0000cfa8       ??_C@_1IA@OGENNGBC@?$AA?$CL?$AAP?$AAr?$AAc?$AAm?$AAC?$AAl?$AAo?$AAc?$AAk?$AAS?$AAe?$AAt?$AAD?$AAp?$AAl?$AAl?$AAF?$AAr?$AAe?$AAq?$AAu?$AAe?$AAn?$AAc?$AAy?$AA?$CI?$AAd?$AAp?$AAl?$AAl?$AAI@ 0001dfa8     OMAP3530_oal_prcm:prcm_clock.obj
 0001:0000d028       ??_C@_1BA@NOOLMKMI@?$AA?$CF?$AAs?$AA?5?$AA?$CF?$AAd?$AA?$AN?$AA?6?$AA?$AA@ 0001e028     OMAP3530_oal_prcm:prcm_clock.obj
 0001:0000d038       ??_C@_1EA@JKDOBNCH@?$AAS?$AAa?$AAv?$AAe?$AAd?$AA?5?$AAD?$AAo?$AAm?$AAa?$AAi?$AAn?$AA?5?$AAR?$AAe?$AAf?$AAC?$AAo?$AAu?$AAn?$AAt?$AA?5?$AA?$CF?$AAs?$AA?5?$AA?$DN?$AA?5?$AA?$CF?$AAd?$AA?$AN?$AA?6?$AA?$AA@ 0001e038     OMAP3530_oal_prcm:prcm_clock.obj
 0001:0000d078       ??_C@_1DI@LNGAMPKI@?$AA?$AN?$AA?6?$AAS?$AAa?$AAv?$AAe?$AAd?$AA?5?$AAD?$AAo?$AAm?$AAa?$AAi?$AAn?$AA?5?$AAR?$AAe?$AAf?$AAC?$AAo?$AAu?$AAn?$AAt?$AAs?$AA?3?$AA?$AN?$AA?6?$AA?$AA@ 0001e078     OMAP3530_oal_prcm:prcm_clock.obj
 0001:0000d0b0       ??_C@_1FE@HIOGEJJC@?$AAS?$AAa?$AAv?$AAe?$AAd?$AA?5?$AAP?$AAR?$AAC?$AAM?$AA?5?$AAD?$AAe?$AAv?$AAi?$AAc?$AAe?$AA?5?$AAF?$AAC?$AAL?$AAK?$AA?5?$AAR?$AAe?$AAf?$AAC?$AAo?$AAu?$AAn?$AAt?$AA?5@ 0001e0b0     OMAP3530_oal_prcm:prcm_clock.obj
 0001:0000d108       ??_C@_1EE@CNIHEABP@?$AA?$AN?$AA?6?$AAS?$AAa?$AAv?$AAe?$AAd?$AA?5?$AAd?$AAe?$AAv?$AAi?$AAc?$AAe?$AA?5?$AAF?$AAC?$AAL?$AAK?$AA?5?$AAr?$AAe?$AAf?$AA?5?$AAc?$AAo?$AAu?$AAn?$AAt?$AAs?$AA?3?$AA?$AN@ 0001e108     OMAP3530_oal_prcm:prcm_clock.obj
 0001:0000d150       ??_C@_1FE@POANKPCH@?$AAS?$AAa?$AAv?$AAe?$AAd?$AA?5?$AAP?$AAR?$AAC?$AAM?$AA?5?$AAD?$AAe?$AAv?$AAi?$AAc?$AAe?$AA?5?$AAI?$AAC?$AAL?$AAK?$AA?5?$AAR?$AAe?$AAf?$AAC?$AAo?$AAu?$AAn?$AAt?$AA?5@ 0001e150     OMAP3530_oal_prcm:prcm_clock.obj
 0001:0000d1a8       ??_C@_1EE@IMLOEHKF@?$AA?$AN?$AA?6?$AAS?$AAa?$AAv?$AAe?$AAd?$AA?5?$AAd?$AAe?$AAv?$AAi?$AAc?$AAe?$AA?5?$AAI?$AAC?$AAL?$AAK?$AA?5?$AAr?$AAe?$AAf?$AA?5?$AAc?$AAo?$AAu?$AAn?$AAt?$AAs?$AA?3?$AA?$AN@ 0001e1a8     OMAP3530_oal_prcm:prcm_clock.obj
 0001:0000d1f0       ??_C@_1EA@FOBOPLCJ@?$AA?$AN?$AA?6?$AAS?$AAa?$AAv?$AAe?$AAd?$AA?5?$AAS?$AAR?$AAC?$AA?5?$AAC?$AAL?$AAO?$AAC?$AAK?$AA?5?$AAr?$AAe?$AAf?$AA?5?$AAc?$AAo?$AAu?$AAn?$AAt?$AAs?$AA?3?$AA?$AN?$AA?6?$AA?$AA@ 0001e1f0     OMAP3530_oal_prcm:prcm_clock.obj
 0001:0000d230       ??_C@_1EE@GFHLPNPD@?$AA?$AN?$AA?6?$AAS?$AAa?$AAv?$AAe?$AAd?$AA?5?$AAD?$AAP?$AAL?$AAL?$AA?5?$AAC?$AAL?$AAK?$AAO?$AAU?$AAT?$AA?5?$AAr?$AAe?$AAf?$AA?5?$AAc?$AAo?$AAu?$AAn?$AAt?$AAs?$AA?3?$AA?$AN@ 0001e230     OMAP3530_oal_prcm:prcm_clock.obj
 0001:0000d274       ??_C@_1DG@KDOAHHJA@?$AA?$AN?$AA?6?$AAS?$AAa?$AAv?$AAe?$AAd?$AA?5?$AAD?$AAP?$AAL?$AAL?$AA?5?$AAr?$AAe?$AAf?$AA?5?$AAc?$AAo?$AAu?$AAn?$AAt?$AAs?$AA?3?$AA?$AN?$AA?6?$AA?$AA@ 0001e274     OMAP3530_oal_prcm:prcm_clock.obj
 0001:0000d2b0       ??_C@_1FC@DMOHKJJI@?$AA?$AN?$AA?6?$AAS?$AAa?$AAv?$AAe?$AAd?$AA?5?$AAI?$AAn?$AAf?$AAo?$AAr?$AAm?$AAa?$AAt?$AAi?$AAo?$AAn?$AA?5?$AAP?$AAr?$AAi?$AAo?$AAr?$AA?5?$AAt?$AAo?$AA?5?$AAS?$AAu?$AAs@ 0001e2b0     OMAP3530_oal_prcm:prcm_clock.obj
 0001:0000d304       ??_C@_1DE@KGLDHFLF@?$AA?$AN?$AA?6?$AAS?$AAa?$AAv?$AAe?$AAd?$AA?5?$AAV?$AAD?$AAD?$AA?5?$AAr?$AAe?$AAf?$AA?5?$AAc?$AAo?$AAu?$AAn?$AAt?$AAs?$AA?3?$AA?$AN?$AA?6?$AA?$AA@ 0001e304     OMAP3530_oal_prcm:prcm_clock.obj
 0001:0000d338       ??_C@_1DC@FONOMHHH@?$AA?5?$AA?5?$AA?$CF?$AA?9?$AA2?$AA4?$AAs?$AA?5?$AA?$DM?$AAb?$AAa?$AAd?$AA?5?$AAR?$AAe?$AAg?$AAW?$AAi?$AAd?$AAt?$AAh?$AA?$DO?$AA?$AN?$AA?6?$AA?$AA@ 0001e338     OMAP3530_oal_prcm:prcm_clock.obj
 0001:0000d36c       ??_C@_1CO@MFMIFAHL@?$AA?5?$AA?5?$AA?$CF?$AA?9?$AA2?$AA4?$AAs?$AA?5?$AA?5?$AA?5?$AA?5?$AA?5?$AA?5?$AA?5?$AA0?$AAx?$AA?$CF?$AA0?$AA2?$AAx?$AA?$AN?$AA?6?$AA?$AA@ 0001e36c     OMAP3530_oal_prcm:prcm_clock.obj
 0001:0000d39c       ??_C@_1CK@ILNIDBPM@?$AA?5?$AA?5?$AA?$CF?$AA?9?$AA2?$AA4?$AAs?$AA?5?$AA?5?$AA?5?$AA?5?$AA?5?$AA0?$AAx?$AA?$CF?$AA0?$AA4?$AAx?$AA?$AN?$AA?6?$AA?$AA@ 0001e39c     OMAP3530_oal_prcm:prcm_clock.obj
 0001:0000d3c8       ??_C@_1CC@JKABMCGA@?$AA?5?$AA?5?$AA?$CF?$AA?9?$AA2?$AA4?$AAs?$AA?5?$AA0?$AAx?$AA?$CF?$AA0?$AA8?$AAx?$AA?$AN?$AA?6?$AA?$AA@ 0001e3c8     OMAP3530_oal_prcm:prcm_clock.obj
 0001:0000d3ec       ??_C@_1BA@JCPLACBE@?$AA?$AN?$AA?6?$AA?$CF?$AAs?$AA?3?$AA?$AN?$AA?6?$AA?$AA@ 0001e3ec     OMAP3530_oal_prcm:prcm_clock.obj
 0001:0000d490       ??_C@_1DE@IEBANBBC@?$AA?9?$AA_?$AAD?$AAo?$AAm?$AAa?$AAi?$AAn?$AAI?$AAn?$AAi?$AAt?$AAi?$AAa?$AAl?$AAi?$AAz?$AAe?$AA?$CI?$AA?$CJ?$AA?$DN?$AA?$CF?$AAd?$AA?$AN?$AA?6?$AA?$AA@ 0001e490     OMAP3530_oal_prcm:prcm_domain.obj
 0001:0000d4c8       ??_C@_1LI@HACPIACF@?$AA?$CL?$AA_?$AAD?$AAo?$AAm?$AAa?$AAi?$AAn?$AAI?$AAn?$AAi?$AAt?$AAi?$AAa?$AAl?$AAi?$AAz?$AAe?$AA?$CI?$AAp?$AAD?$AAo?$AAm?$AAa?$AAi?$AAn?$AA?$DN?$AA0?$AAx?$AA?$CF?$AA0?$AA8@ 0001e4c8     OMAP3530_oal_prcm:prcm_domain.obj
 0001:0000d580       ??_C@_1EG@MJBAHCAP@?$AA?9?$AA_?$AAP?$AAr?$AAc?$AAm?$AAD?$AAo?$AAm?$AAa?$AAi?$AAn?$AAC?$AAl?$AAo?$AAc?$AAk?$AAI?$AAn?$AAi?$AAt?$AAi?$AAa?$AAl?$AAi?$AAz?$AAe?$AA?$CI?$AA?$CJ?$AA?$DN?$AA?$CF?$AAd@ 0001e580     OMAP3530_oal_prcm:prcm_domain.obj
 0001:0000d5c8       ??_C@_1IO@GHDCOMKL@?$AA?$CL?$AA_?$AAP?$AAr?$AAc?$AAm?$AAD?$AAo?$AAm?$AAa?$AAi?$AAn?$AAC?$AAl?$AAo?$AAc?$AAk?$AAI?$AAn?$AAi?$AAt?$AAi?$AAa?$AAl?$AAi?$AAz?$AAe?$AA?$CI?$AAp?$AAC?$AAl?$AAo@ 0001e5c8     OMAP3530_oal_prcm:prcm_domain.obj
 0001:0000d658       ??_C@_1DC@PHJGNBDE@?$AA?9?$AAD?$AAo?$AAm?$AAa?$AAi?$AAn?$AAI?$AAn?$AAi?$AAt?$AAi?$AAa?$AAl?$AAi?$AAz?$AAe?$AA?$CI?$AA?$CJ?$AA?$DN?$AA?$CF?$AAd?$AA?$AN?$AA?6?$AA?$AA@ 0001e658     OMAP3530_oal_prcm:prcm_domain.obj
 0001:0000d68c       ??_C@_1CM@KJPIEGMJ@?$AA?$CL?$AAD?$AAo?$AAm?$AAa?$AAi?$AAn?$AAI?$AAn?$AAi?$AAt?$AAi?$AAa?$AAl?$AAi?$AAz?$AAe?$AA?$CI?$AA?$CJ?$AA?$AN?$AA?6?$AA?$AA@ 0001e68c     OMAP3530_oal_prcm:prcm_domain.obj
 0001:0000d6b8       ??_C@_1EM@KMAAEICN@?$AA?9?$AAP?$AAr?$AAc?$AAm?$AAD?$AAo?$AAm?$AAa?$AAi?$AAn?$AAS?$AAe?$AAt?$AAW?$AAa?$AAk?$AAe?$AAu?$AAp?$AAD?$AAe?$AAp?$AAe?$AAn?$AAd?$AAe?$AAn?$AAc?$AAy?$AA?$CI?$AA?$CJ@ 0001e6b8     OMAP3530_oal_prcm:prcm_domain.obj
 0001:0000d708       ??_C@_1KE@GFMBGEDA@?$AA?$CL?$AAP?$AAr?$AAc?$AAm?$AAD?$AAo?$AAm?$AAa?$AAi?$AAn?$AAS?$AAe?$AAt?$AAW?$AAa?$AAk?$AAe?$AAu?$AAp?$AAD?$AAe?$AAp?$AAe?$AAn?$AAd?$AAe?$AAn?$AAc?$AAy?$AA?$CI?$AAp@ 0001e708     OMAP3530_oal_prcm:prcm_domain.obj
 0001:0000d7b0       ??_C@_1EK@HCAJMEHB@?$AA?9?$AAP?$AAr?$AAc?$AAm?$AAD?$AAo?$AAm?$AAa?$AAi?$AAn?$AAS?$AAe?$AAt?$AAS?$AAl?$AAe?$AAe?$AAp?$AAD?$AAe?$AAp?$AAe?$AAn?$AAd?$AAe?$AAn?$AAc?$AAy?$AA?$CI?$AA?$CJ?$AA?$DN@ 0001e7b0     OMAP3530_oal_prcm:prcm_domain.obj
 0001:0000d800       ??_C@_1KC@MCEKLACC@?$AA?$CL?$AAP?$AAr?$AAc?$AAm?$AAD?$AAo?$AAm?$AAa?$AAi?$AAn?$AAS?$AAe?$AAt?$AAS?$AAl?$AAe?$AAe?$AAp?$AAD?$AAe?$AAp?$AAe?$AAn?$AAd?$AAe?$AAn?$AAc?$AAy?$AA?$CI?$AAp?$AAo@ 0001e800     OMAP3530_oal_prcm:prcm_domain.obj
 0001:0000d8a8       ??_C@_1EA@IIPEHBKG@?$AA?$CL?$AAP?$AAr?$AAc?$AAm?$AAD?$AAo?$AAm?$AAa?$AAi?$AAn?$AAS?$AAe?$AAt?$AAP?$AAo?$AAw?$AAe?$AAr?$AAS?$AAt?$AAa?$AAt?$AAe?$AA?$CI?$AA?$CJ?$AA?$DN?$AA?$CF?$AAd?$AA?$AN?$AA?6?$AA?$AA@ 0001e8a8     OMAP3530_oal_prcm:prcm_domain.obj
 0001:0000d8e8       ??_C@_1HM@KLIMMIKC@?$AA?$CL?$AAP?$AAr?$AAc?$AAm?$AAD?$AAo?$AAm?$AAa?$AAi?$AAn?$AAS?$AAe?$AAt?$AAP?$AAo?$AAw?$AAe?$AAr?$AAS?$AAt?$AAa?$AAt?$AAe?$AA?$CI?$AAp?$AAo?$AAw?$AAe?$AAr?$AAD?$AAo@ 0001e8e8     OMAP3530_oal_prcm:prcm_domain.obj
 0001:0000d968       ??_C@_1EA@JEMFKOAK@?$AA?9?$AAP?$AAr?$AAc?$AAm?$AAD?$AAo?$AAm?$AAa?$AAi?$AAn?$AAS?$AAe?$AAt?$AAC?$AAl?$AAo?$AAc?$AAk?$AAS?$AAt?$AAa?$AAt?$AAe?$AA?$CI?$AA?$CJ?$AA?$DN?$AA?$CF?$AAd?$AA?$AN?$AA?6?$AA?$AA@ 0001e968     OMAP3530_oal_prcm:prcm_domain.obj
 0001:0000d9a8       ??_C@_1JM@MEHAOEAE@?$AA?$CL?$AAP?$AAr?$AAc?$AAm?$AAD?$AAo?$AAm?$AAa?$AAi?$AAn?$AAS?$AAe?$AAt?$AAC?$AAl?$AAo?$AAc?$AAk?$AAS?$AAt?$AAa?$AAt?$AAe?$AA?$CI?$AAp?$AAo?$AAw?$AAe?$AAr?$AAD?$AAo@ 0001e9a8     OMAP3530_oal_prcm:prcm_domain.obj
 0001:0000da48       ??_C@_1EC@GMFKPCKF@?$AA?9?$AAP?$AAr?$AAc?$AAm?$AAD?$AAo?$AAm?$AAa?$AAi?$AAn?$AAS?$AAe?$AAt?$AAM?$AAe?$AAm?$AAo?$AAr?$AAy?$AAS?$AAt?$AAa?$AAt?$AAe?$AA?$CI?$AA?$CJ?$AA?$DN?$AA?$CF?$AAd?$AA?$AN?$AA?6@ 0001ea48     OMAP3530_oal_prcm:prcm_domain.obj
 0001:0000da90       ??_C@_1LA@DDOCINBK@?$AA?$CL?$AAP?$AAr?$AAc?$AAm?$AAD?$AAo?$AAm?$AAa?$AAi?$AAn?$AAS?$AAe?$AAt?$AAM?$AAe?$AAm?$AAo?$AAr?$AAy?$AAS?$AAt?$AAa?$AAt?$AAe?$AA?$CI?$AAp?$AAo?$AAw?$AAe?$AAr?$AAD@ 0001ea90     OMAP3530_oal_prcm:prcm_domain.obj
 0001:0000dcf0       ??_C@_1EG@LALIIKNN@?$AA?$CF?$AA0?$AA4?$AAd?$AA?4?$AA?$CF?$AA0?$AA2?$AAd?$AA?4?$AA?$CF?$AA0?$AA2?$AAd?$AA?5?$AA?$CF?$AA0?$AA2?$AAd?$AA?3?$AA?$CF?$AA0?$AA2?$AAd?$AA?3?$AA?$CF?$AA0?$AA2?$AAd?$AA?4?$AA?$CF?$AA0@ 0001ecf0     TPS659xx_oal_rtc:rtc.obj
 0001:0000dd38       ??_C@_1DM@BLINKFCK@?$AA?$CF?$AA0?$AA4?$AAd?$AA?4?$AA?$CF?$AA0?$AA2?$AAd?$AA?4?$AA?$CF?$AA0?$AA2?$AAd?$AA?5?$AA?$CF?$AA0?$AA2?$AAd?$AA?3?$AA?$CF?$AA0?$AA2?$AAd?$AA?3?$AA?$CF?$AA0?$AA2?$AAd?$AA?$AA@ 0001ed38     TPS659xx_oal_rtc:rtc.obj
 0001:0000dd78       ??_C@_1EA@NFLJEDAN@?$AA?9?$AAO?$AAA?$AAL?$AAI?$AAo?$AAC?$AAt?$AAl?$AAH?$AAa?$AAl?$AAI?$AAn?$AAi?$AAt?$AAR?$AAT?$AAC?$AA?$CI?$AA?$CJ?$AA?5?$AAr?$AAc?$AA?5?$AA?$DN?$AA?5?$AA?$CF?$AAd?$AA?$AN?$AA?6?$AA?$AA@ 0001ed78     TPS659xx_oal_rtc:rtc.obj
 0001:0000ddb8       ??_C@_1EG@DMPAACGN@?$AA?5?$AAO?$AAA?$AAL?$AAI?$AAo?$AAC?$AAt?$AAl?$AAH?$AAa?$AAl?$AAI?$AAn?$AAi?$AAt?$AAR?$AAT?$AAC?$AA?$CI?$AA?$CJ?$AA?3?$AA?5?$AA?5?$AAR?$AAT?$AAC?$AA?5?$AA?$DN?$AA?5?$AA?$CF?$AAs@ 0001edb8     TPS659xx_oal_rtc:rtc.obj
 0001:0000de00       ??_C@_1EM@GDGDGGII@?$AA?5?$AAO?$AAA?$AAL?$AAI?$AAo?$AAC?$AAt?$AAl?$AAH?$AAa?$AAl?$AAI?$AAn?$AAi?$AAt?$AAR?$AAT?$AAC?$AA?$CI?$AA?$CJ?$AA?3?$AA?5?$AA?5?$AAG?$AAe?$AAt?$AAt?$AAi?$AAn?$AAg?$AA?5@ 0001ee00     TPS659xx_oal_rtc:rtc.obj
 0001:0000de50       ??_C@_1FA@KEKFOIGH@?$AA?5?$AAO?$AAA?$AAL?$AAI?$AAo?$AAC?$AAt?$AAl?$AAH?$AAa?$AAl?$AAI?$AAn?$AAi?$AAt?$AAR?$AAT?$AAC?$AA?$CI?$AA?$CJ?$AA?3?$AA?5?$AA?5?$AAR?$AAe?$AAs?$AAe?$AAt?$AAt?$AAi?$AAn@ 0001ee50     TPS659xx_oal_rtc:rtc.obj
 0001:0000dea0       ??_C@_1GK@LBOBPPKI@?$AA?5?$AAO?$AAA?$AAL?$AAI?$AAo?$AAC?$AAt?$AAl?$AAH?$AAa?$AAl?$AAI?$AAn?$AAi?$AAt?$AAR?$AAT?$AAC?$AA?$CI?$AA?$CJ?$AA?3?$AA?5?$AA?5?$AAR?$AAT?$AAC?$AA?5?$AAT?$AAW?$AAL?$AA_@ 0001eea0     TPS659xx_oal_rtc:rtc.obj
 0001:0000df10       ??_C@_1FO@CGLDPGNO@?$AA?5?$AAO?$AAA?$AAL?$AAI?$AAo?$AAC?$AAt?$AAl?$AAH?$AAa?$AAl?$AAI?$AAn?$AAi?$AAt?$AAR?$AAT?$AAC?$AA?$CI?$AA?$CJ?$AA?3?$AA?5?$AAF?$AAa?$AAi?$AAl?$AAe?$AAd?$AA?5?$AAt?$AAo@ 0001ef10     TPS659xx_oal_rtc:rtc.obj
 0001:0000df70       ??_C@_1DA@GMIOKMIL@?$AA?$CL?$AAO?$AAA?$AAL?$AAI?$AAo?$AAC?$AAt?$AAl?$AAH?$AAa?$AAl?$AAI?$AAn?$AAi?$AAt?$AAR?$AAT?$AAC?$AA?$CI?$AA?$CJ?$AA?$AN?$AA?6?$AA?$AA@ 0001ef70     TPS659xx_oal_rtc:rtc.obj
 0001:0000dfa0       ??_C@_1DA@PEAOFAFN@?$AA?$CL?$AAO?$AAA?$AAL?$AAI?$AAo?$AAC?$AAt?$AAl?$AAH?$AAa?$AAl?$AAR?$AAt?$AAc?$AAT?$AAi?$AAm?$AAe?$AA?$CI?$AA?$CJ?$AA?$AN?$AA?6?$AA?$AA@ 0001efa0     TPS659xx_oal_rtc:rtc.obj
 0001:0000dfd0       ??_C@_1DC@KHBDMOPE@?$AA?$CL?$AAO?$AAA?$AAL?$AAI?$AAo?$AAC?$AAt?$AAl?$AAH?$AAa?$AAl?$AAR?$AAt?$AAc?$AAA?$AAl?$AAa?$AAr?$AAm?$AA?$CI?$AA?$CJ?$AA?$AN?$AA?6?$AA?$AA@ 0001efd0     TPS659xx_oal_rtc:rtc.obj
 0001:0000e004       ??_C@_1DC@DJKOOINA@?$AA?9?$AAO?$AAE?$AAM?$AAG?$AAe?$AAt?$AAR?$AAe?$AAa?$AAl?$AAT?$AAi?$AAm?$AAe?$AA?$CI?$AA?$CJ?$AA?5?$AA?$DN?$AA?5?$AA?$CF?$AAs?$AA?$AN?$AA?6?$AA?$AA@ 0001f004     TPS659xx_oal_rtc:rtc.obj
 0001:0000e038       ??_C@_1CI@OLGNILCF@?$AA?$CL?$AAO?$AAE?$AAM?$AAG?$AAe?$AAt?$AAR?$AAe?$AAa?$AAl?$AAT?$AAi?$AAm?$AAe?$AA?$CI?$AA?$CJ?$AA?$AN?$AA?6?$AA?$AA@ 0001f038     TPS659xx_oal_rtc:rtc.obj
 0001:0000e060       ??_C@_1CE@NIIADMMF@?$AA?9?$AAO?$AAE?$AAM?$AAS?$AAe?$AAt?$AAR?$AAe?$AAa?$AAl?$AAT?$AAi?$AAm?$AAe?$AA?$AN?$AA?6?$AA?$AA@ 0001f060     TPS659xx_oal_rtc:rtc.obj
 0001:0000e084       ??_C@_1CM@NEGNBBJ@?$AA?$CL?$AAO?$AAE?$AAM?$AAS?$AAe?$AAt?$AAR?$AAe?$AAa?$AAl?$AAT?$AAi?$AAm?$AAe?$AA?$CI?$AA?$CF?$AAs?$AA?$CJ?$AA?$AN?$AA?6?$AA?$AA@ 0001f084     TPS659xx_oal_rtc:rtc.obj
 0001:0000e0b0       ??_C@_1CO@MAJAHDBK@?$AA?$CL?$AAO?$AAE?$AAM?$AAS?$AAe?$AAt?$AAA?$AAl?$AAa?$AAr?$AAm?$AAT?$AAi?$AAm?$AAe?$AA?$CI?$AA?$CF?$AAs?$AA?$CJ?$AA?$AN?$AA?6?$AA?$AA@ 0001f0b0     TPS659xx_oal_rtc:rtc.obj
 0001:0000e0e0       DEVICE_IFC_TWL_GUID        0001f0e0     TPS659xx_oal_gpio:tps659xx_gpio.obj
 0001:0000e210       ??_C@_1HK@FIHOCGBD@?$AAE?$AAR?$AAR?$AAO?$AAR?$AA?3?$AA?5?$AAG?$AAI?$AAO?$AA_?$AAI?$AAn?$AAi?$AAt?$AA?3?$AA?5?$AAF?$AAa?$AAi?$AAl?$AAe?$AAd?$AA?5?$AAt?$AAo?$AA?5?$AAi?$AAn?$AAi?$AAt?$AAi@ 0001f210     common_ti_oal_gpiodispatch:gpio_dispatch.obj
 0001:0000e28c       ??_C@_19NNFDHLJH@?$AAb?$AAo?$AAo?$AAt?$AA?$AA@ 0001f28c     common_ti_oal_gpiodispatch:gpio_dispatch.obj
 0001:0000e328       ??_C@_1EA@DJGHLELP@?$AA?9?$AAO?$AAA?$AAL?$AAA?$AAr?$AAg?$AAs?$AAQ?$AAu?$AAe?$AAr?$AAy?$AA?$CI?$AAp?$AAD?$AAa?$AAt?$AAa?$AA?5?$AA?$DN?$AA?5?$AA0?$AAx?$AA?$CF?$AA0?$AA8?$AAx?$AA?$CJ?$AA?$AN?$AA?6?$AA?$AA@ 0001f328     bsp_args:args.obj
 0001:0000e368       ??_C@_1CI@CLMEBIJE@?$AA?$CL?$AAO?$AAA?$AAL?$AAA?$AAr?$AAg?$AAs?$AAQ?$AAu?$AAe?$AAr?$AAy?$AA?$CI?$AA?$CF?$AAd?$AA?$CJ?$AA?$AN?$AA?6?$AA?$AA@ 0001f368     bsp_args:args.obj
 0001:0000e430       I2CDefaultI2CTimeout       0001f430     bspcfg:bspcfg.obj
 0001:0000e438       g_BSP_icL1Level            0001f438     bspcfg:bspcfg.obj
 0001:0000e648       DSSPadConfig               0001f648     bsp_padcfg:bsp_padcfg.obj
 0001:0000e758       DSSPadConfig_37XX          0001f758     bsp_padcfg:bsp_padcfg.obj
 0001:0000e860       GPMCPads                   0001f860     bsp_padcfg:bsp_padcfg.obj
 0001:0000e9a8       UART1Pads                  0001f9a8     bsp_padcfg:bsp_padcfg.obj
 0001:0000e9d0       UART2Pads                  0001f9d0     bsp_padcfg:bsp_padcfg.obj
 0001:0000e9f8       UART3Pads                  0001f9f8     bsp_padcfg:bsp_padcfg.obj
 0001:0000ea20       MMC1Pads                   0001fa20     bsp_padcfg:bsp_padcfg.obj
 0001:0000ea58       I2C1Pads                   0001fa58     bsp_padcfg:bsp_padcfg.obj
 0001:0000ea70       I2C2Pads                   0001fa70     bsp_padcfg:bsp_padcfg.obj
 0001:0000ea88       I2C3Pads                   0001fa88     bsp_padcfg:bsp_padcfg.obj
 0001:0000eaa0       I2C4Pads                   0001faa0     bsp_padcfg:bsp_padcfg.obj
 0001:0000eab8       MCSPI1Pads                 0001fab8     bsp_padcfg:bsp_padcfg.obj
 0001:0000eae0       MCBSP1Pads                 0001fae0     bsp_padcfg:bsp_padcfg.obj
 0001:0000eb08       MCBSP2Pads                 0001fb08     bsp_padcfg:bsp_padcfg.obj
 0001:0000eb30       USBHost1Pads               0001fb30     bsp_padcfg:bsp_padcfg.obj
 0001:0000eb98       USBHost2Pads               0001fb98     bsp_padcfg:bsp_padcfg.obj
 0001:0000ec10       USBOTGPads                 0001fc10     bsp_padcfg:bsp_padcfg.obj
 0001:0000ec78       CameraPads                 0001fc78     bsp_padcfg:bsp_padcfg.obj
 0001:0000eed0       ??_C@_1IM@BFMLCNLK@?$AAE?$AAR?$AAR?$AAO?$AAR?$AA?3?$AA?5?$AAR?$AAe?$AAg?$AAi?$AAs?$AAt?$AAe?$AAr?$AAP?$AAr?$AAc?$AAm?$AAI?$AAn?$AAt?$AAe?$AAr?$AAr?$AAu?$AAp?$AAt?$AAH?$AAa?$AAn?$AAd@ 0001fed0     oal:intr.obj
 0001:0000ef5c       ??_C@_1DM@POOLLMMJ@?$AA?9?$AAB?$AAS?$AAP?$AAI?$AAn?$AAt?$AAr?$AAR?$AAe?$AAq?$AAu?$AAe?$AAs?$AAt?$AAI?$AAr?$AAq?$AA?$CI?$AAr?$AAc?$AA?5?$AA?$DN?$AA?5?$AA?$CF?$AAd?$AA?$CJ?$AA?$AN?$AA?6?$AA?$AA@ 0001ff5c     oal:intr.obj
 0001:0000ef98       ??_C@_1GM@PDLDOEEM@?$AA?$CL?$AAB?$AAS?$AAP?$AAI?$AAn?$AAt?$AAr?$AAR?$AAe?$AAq?$AAu?$AAe?$AAs?$AAt?$AAI?$AAr?$AAq?$AA?$CI?$AA0?$AAx?$AA?$CF?$AA0?$AA8?$AAx?$AA?9?$AA?$DO?$AA?$CF?$AAd?$AA?1?$AA?$CF?$AAd@ 0001ff98     oal:intr.obj
 0001:0000f2f8       StartUp                    000202f8 f   oal:startup.obj
 0001:0000f3c0       g_oalAddressTable          000203c0     oal:startup.obj
 0001:0000f468       g_oalAddressTableHynix     00020468     oal:startup.obj
 0001:0000f510       GetCp15ControlRegister     00020510 f   oal:startup.obj
 0001:0000f518       GetCp15AuxiliaryControlRegister 00020518 f   oal:startup.obj
 0001:0000f520       EnableUnalignedAccess      00020520 f   oal:startup.obj
 0001:0000f6b0       OALMux_UpdateOnDeviceStateChange 000206b0 f   oal:init.obj
 0001:0000f6b8       OALMux_InitMuxTable        000206b8 f   oal:init.obj
 0001:0000f6bc       EnableDebugSerialClock     000206bc f   oal:init.obj
 0001:0000f784       BSPGpioInit                00020784 f   oal:init.obj
 0001:0000f7b8       MmUnmapIoSpace             000207b8 f   oal:init.obj
 0001:0000f7bc       MmMapIoSpace               000207bc f   oal:init.obj
 0001:0000f7d0       HalContextUpdateDirtyRegister 000207d0 f   oal:init.obj
 0001:0000f9a4       OEMInit                    000209a4 f   oal:init.obj
 0001:0000fda8       OALIoCtlPrcmDeviceGetDeviceStatus 00020da8 f   oal:oem_pm.obj
 0001:0000fe6c       OALIoCtlPrcmDeviceGetSourceClockInfo 00020e6c f   oal:oem_pm.obj
 0001:0000ff18       OALIoCtlPrcmClockGetSourceClockInfo 00020f18 f   oal:oem_pm.obj
 0001:00010010       OALIoCtlPrcmClockSetSourceClock 00021010 f   oal:oem_pm.obj
 0001:000100a4       OALIoCtlPrcmClockSetSourceClockDivisor 000210a4 f   oal:oem_pm.obj
 0001:0001013c       OALIoCtlPrcmClockSetDpllState 0002113c f   oal:oem_pm.obj
 0001:000101cc       OALIoCtlPrcmDomainSetWakeupDependency 000211cc f   oal:oem_pm.obj
 0001:00010264       OALIoCtlPrcmDomainSetSleepDependency 00021264 f   oal:oem_pm.obj
 0001:000102fc       OALIoCtlPrcmDomainSetPowerState 000212fc f   oal:oem_pm.obj
 0001:000103f8       OALIoCtlPrcmSetSuspendState 000213f8 f   oal:oem_pm.obj
 0001:00010478       OALIoCtlOppRequest         00021478 f   oal:oem_pm.obj
 0001:00010508       OALIoCtlSmartReflexControl 00021508 f   oal:oem_pm.obj
 0001:00010598       OALIoCtlUpdateRetentionVoltages 00021598 f   oal:oem_pm.obj
 0001:00010618       OALIoCtlHalContextSaveGetBuffer 00021618 f   oal:oem_pm.obj
 0001:00010698       ForceStandbyUSB            00021698 f   oal:oem_pm.obj
 0001:000106d4       PrcmSetIVA2OffMode         000216d4 f   oal:oem_pm.obj
 0001:00010890       ForceIdleMMC               00021890 f   oal:oem_pm.obj
 0001:00010eec       OALPrcmIntrHandler         00021eec f   oal:oem_pm.obj
 0001:00010f3c       OALSmartReflex1Intr        00021f3c f   oal:oem_pm.obj
 0001:00010fb0       OALSmartReflex2Intr        00021fb0 f   oal:oem_pm.obj
 0001:00011024       OALContextSaveGPIO         00022024 f   oal:oem_pm.obj
 0001:000110e0       OALContextSaveGPMC         000220e0 f   oal:oem_pm.obj
 0001:00011364       OALContextSaveSCM          00022364 f   oal:oem_pm.obj
 0001:000114bc       OALContextSavePRCM         000224bc f   oal:oem_pm.obj
 0001:000115b4       OALContextSaveINTC         000225b4 f   oal:oem_pm.obj
 0001:00011640       OALContextSaveVRFB         00022640 f   oal:oem_pm.obj
 0001:000116a8       OALContextSavePerfTimer    000226a8 f   oal:oem_pm.obj
 0001:00011760       OALContextSaveMux          00022760 f   oal:oem_pm.obj
 0001:0001179c       OALContextRestoreGPIO      0002279c f   oal:oem_pm.obj
 0001:0001186c       OALContextRestoreINTC      0002286c f   oal:oem_pm.obj
 0001:0001192c       OALContextRestorePRCM      0002292c f   oal:oem_pm.obj
 0001:00011a74       OALContextRestoreGPMC      00022a74 f   oal:oem_pm.obj
 0001:00011ddc       OALContextRestoreSCM       00022ddc f   oal:oem_pm.obj
 0001:00011f9c       OALContextRestoreVRFB      00022f9c f   oal:oem_pm.obj
 0001:00012000       OALContextRestorePerfTimer 00023000 f   oal:oem_pm.obj
 0001:00012104       OALContextRestoreInit      00023104 f   oal:oem_pm.obj
 0001:000121e0       OALContextUpdateDirtyRegister 000231e0 f   oal:oem_pm.obj
 0001:000121f8       OALContextSave             000231f8 f   oal:oem_pm.obj
 0001:00012338       OALContextRestore          00023338 f   oal:oem_pm.obj
 0001:000124e0       OutShadowReg32             000234e0 f   oal:oem_pm.obj
 0001:000125b4       SetShadowReg32             000235b4 f   oal:oem_pm.obj
 0001:000126fc       OALPowerInit               000236fc f   oal:oem_pm.obj
 0001:00012e2c       OALPowerPostInit           00023e2c f   oal:oem_pm.obj
 0001:00013370       BSPIoCtlHalInitRegistry    00024370 f   oal:ioctl.obj
 0001:000133ac       OALIoCtlHalDumpRegisters   000243ac f   oal:ioctl.obj
 0001:00013434       OALIoCtlHalGetBspVersion   00024434 f   oal:ioctl.obj
 0001:000134e0       OALWakeupLatency_Initialize 000244e0 f   oal:oem_latency.obj
 0001:000137d8       OALWakeupLatency_PushState 000247d8 f   oal:oem_latency.obj
 0001:00013a00       OALWakeupLatency_PopState  00024a00 f   oal:oem_latency.obj
 0001:00013a94       OALWakeupLatency_GetCurrentState 00024a94 f   oal:oem_latency.obj
 0001:00013b50       OALWakeupLatency_GetDelayInTicks 00024b50 f   oal:oem_latency.obj
 0001:00013ba8       OALWakeupLatency_FindStateByMaxDelayInTicks 00024ba8 f   oal:oem_latency.obj
 0001:00013c28       OALWakeupLatency_UpdateOpp 00024c28 f   oal:oem_latency.obj
 0001:00013c88       OALWakeupLatency_UpdateDomainState 00024c88 f   oal:oem_latency.obj
 0001:00013d58       OALWakeupLatency_DeviceEnabled 00024d58 f   oal:oem_latency.obj
 0001:00013e04       OALWakeupLatency_IsChipOff 00024e04 f   oal:oem_latency.obj
 0001:00013e14       OALWakeupLatency_GetSuspendState 00024e14 f   oal:oem_latency.obj
 0001:00013e68       OALWakeupLatency_SetSuspendState 00024e68 f   oal:oem_latency.obj
 0001:00013e88       OALIoCtlInterruptLatencyConstraint 00024e88 f   oal:oem_latency.obj
 0001:00013f50       OALWakeupLatency_SaveSnapshot 00024f50 f   oal:oem_latency.obj
 0001:00013f54       OALWakeupLatency_DumpSnapshot 00024f54 f   oal:oem_latency.obj
 0001:00013f58       IsSmartReflexMonitoringEnabled 00024f58 f   oal:opp_map.obj
 0001:000140b0       SmartReflex_Read_EFUSE     000250b0 f   oal:opp_map.obj
 0001:000142fc       SmartReflex_PostInitialize 000252fc f   oal:opp_map.obj
 0001:00014330       SmartReflex_Configure      00025330 f   oal:opp_map.obj
 0001:0001447c       SmartReflex_Deconfigure    0002547c f   oal:opp_map.obj
 0001:000144e0       SmartReflex_VoltageFlush   000254e0 f   oal:opp_map.obj
 0001:00014560       SmartReflex_EnableMonitor  00025560 f   oal:opp_map.obj
 0001:00014850       UpdateRetentionVoltages    00025850 f   oal:opp_map.obj
 0001:000149cc       SetVoltageOppViaVoltageProcessor 000259cc f   oal:opp_map.obj
 0001:00014b04       SetFrequencyOpp            00025b04 f   oal:opp_map.obj
 0001:00014b64       Opp_init                   00025b64 f   oal:opp_map.obj
 0001:00014ba8       SetOpp                     00025ba8 f   oal:opp_map.obj
 0001:00014d88       SmartReflex_Initialize     00025d88 f   oal:opp_map.obj
 0001:00014e64       OmapProfilerMark           00025e64 f   oal:oem_prof.obj
 0001:00014ec0       OmapProfilerStart          00025ec0 f   oal:oem_prof.obj
 0001:00015044       OmapProfilerStop           00026044 f   oal:oem_prof.obj
 0001:00015088       OmapProfilerQuery          00026088 f   oal:oem_prof.obj
 0001:000150c8       OALIoCtlHALProfiler        000260c8 f   oal:oem_prof.obj
 0001:00015180       OEMEnableIOPadWakeup       00026180 f   oal:oem_padwakeup.obj
 0001:000151d0       OALEnableIOPadWakeup       000261d0 f   oal:oem_padwakeup.obj
 0001:000151f8       OALDisableIOPadWakeup      000261f8 f   oal:oem_padwakeup.obj
 0001:00015214       OALEnableIOWakeupDaisyChain 00026214 f   oal:oem_padwakeup.obj
 0001:00015260       OALDisableIOWakeupDaisyChain 00026260 f   oal:oem_padwakeup.obj
 0001:0001528c       OALIOPadWakeupEnableStatus 0002628c f   oal:oem_padwakeup.obj
 0001:000152ac       OALStall                   000262ac f   bsp_stall:stall.obj
 0001:000152c4       OALIoCtlHalDdkCall         000262c4 f   oal_io:ioctl.obj
 0001:00015520       OALIoBusPowerOff           00026520 f   oal_io:power.obj
 0001:00015580       OALIoBusPowerOn            00026580 f   oal_io:power.obj
 0001:000155e0       OALIoTransBusAddress       000265e0 f   oal_io:trans.obj
 0001:000156a0       OALIoTransSystemAddress    000266a0 f   oal_io:trans.obj
 0001:0001572c       OALIoReadBusData           0002672c f   oal_io:data.obj
 0001:00015734       OALIoWriteBusData          00026734 f   oal_io:data.obj
 0001:0001573c       OALIoCtlHalILTiming        0002673c f   oal_ilt:ilt.obj
 0001:000158c8       OALLogSetZones             000268c8 f   oal_log:debug.obj
 0001:000158f4       OALIoCtlHalRequestSysIntr  000268f4 f   oal_intr_common:ioctl.obj
 0001:00015a40       OALIoCtlHalReleaseSysIntr  00026a40 f   oal_intr_common:ioctl.obj
 0001:00015af0       OALIoCtlHalRequestIrq      00026af0 f   oal_intr_common:ioctl.obj
 0001:00015bf0       OALPowerWakeSource         00026bf0 f   oal_power:ioctl.obj
 0001:00015c18       OALIoCtlHalEnableWake      00026c18 f   oal_power:ioctl.obj
 0001:00015cfc       OALIoCtlHalDisableWake     00026cfc f   oal_power:ioctl.obj
 0001:00015de0       OALIoCtlHalGetWakeSource   00026de0 f   oal_power:ioctl.obj
 0001:00015e88       OALIoCtlHalGetRegSecureKeys 00026e88 f   oal_ioctl:securekeys.obj
 0001:00015f0c       OALIoCtlHalUpdateMode      00026f0c f   oal_ioctl:imgupd.obj
 0001:00015fb0       OALIoCtlProcessorInfo      00026fb0 f   oal_ioctl:procinfo.obj
 0001:00016190       OALIoCtlHalGetUUID         00027190 f   oal_ioctl:uuid.obj
 0001:000162d4       OALIoCtlHalGetDeviceId     000272d4 f   oal_ioctl:deviceid.obj
 0001:00016698       OALIoCtlHalGetDeviceInfo   00027698 f   oal_ioctl:deviceinfo.obj
 0001:00016a58       OEMIoControl               00027a58 f   oal_ioctl:ioctl.obj
 0001:00016c04       OALPAtoVA                  00027c04 f   oal_memory_arm:memory.obj
 0001:00016c88       OALVAtoPA                  00027c88 f   oal_memory_arm:memory.obj
 0001:00016d18       OEMInitGlobals             00027d18 f   oemmain:oemglobal.obj
 0001:00016d48       PaFromVa                   00027d48 f   nkldr:armstart.obj
 0001:00016d98       VaFromPa                   00027d98 f   nkldr:armstart.obj
 0001:00016de4       GetCpuId                   00027de4 f   nkldr:armstart.obj
 0001:00016dec       KernelStart                00027dec f   nkldr:armstart.obj
 0001:00016ff4       ARMInit                    00027ff4 f   nkldr:arminit.obj
 0001:00017038       KernelRelocate             00028038 f   nkldr:ldrcmn.obj
 0001:000170b4       FindKernelEntry            000280b4 f   nkldr:ldrcmn.obj
 0001:00017128       SetOsAxsDataBlockPointer   00028128 f   nkldr:kdinfo.obj
 0001:00017140       _stricmp                   00028140 f   nkldr:strings.obj
 0001:00017190       __rt_udivrem64by64         00028190 f   fulllibc:mdsdiv64.obj
 0001:00017288       __rt_divrem64by64          00028288 f   fulllibc:mdsdiv64.obj
 0001:000172d8       __rt_udiv64by64            000282d8 f   fulllibc:mdsdiv64.obj
 0001:000172e8       __rt_urem64by64            000282e8 f   fulllibc:mdsdiv64.obj
 0001:00017300       __rt_sdiv64by64            00028300 f   fulllibc:mdsdiv64.obj
 0001:00017310       __rt_srem64by64            00028310 f   fulllibc:mdsdiv64.obj
 0001:00017328       __utos                     00028328 f   fulllibc:r_itos.obj
 0001:00017340       __itos                     00028340 f   fulllibc:r_itos.obj
 0001:00017474       __divs                     00028474 f   fulllibc:r_divs.obj
 0001:0001761c       __gts                      0002861c f   fulllibc:r_gts.obj
 0001:00017710       __subs                     00028710 f   fulllibc:r_adds.obj
 0001:00017728       __adds                     00028728 f   fulllibc:r_adds.obj
 0001:00017974       __flt_underflow            00028974     fulllibc:r_adds.obj
 0001:00017a18       __fArithReturn             00028a18     fulllibc:r_adds.obj
 0001:00017a68       __fArithNaNCheck           00028a68     fulllibc:r_adds.obj
 0001:00017aa0       __muls                     00028aa0 f   fulllibc:r_muls.obj
 0001:00017b50       fmul_fdiv_overflow         00028b50     fulllibc:r_muls.obj
 0001:00017bd8       __stou                     00028bd8 f   fulllibc:r_stou.obj
 0001:00017ca8       __lts                      00028ca8 f   fulllibc:r_lts.obj
 0001:00017d9c       __rt_udiv                  00028d9c f   fulllibc:__udiv.obj
 0001:00017e60       memset                     00028e60 f   fulllibc:memset.obj
 0001:00017ee8       memcpy                     00028ee8 f   fulllibc:memcpy.obj
 0001:00018294       memcpybigblk               00029294 f   fulllibc:memcpy.obj
 0001:00018c48       strlen                     00029c48 f   fulllibc:mdsstrlen.obj
 0001:00018cac       __GSHandlerCheckCommon     00029cac f   fulllibc:gshandler.obj
 0001:00018ce8       __GSHandlerCheck           00029ce8 f   fulllibc:gshandler.obj
 0001:00018d0c       __security_check_cookie    00029d0c f   fulllibc:armsecgs.obj
 0001:00018d20       __gsfailure                00029d20 f   fulllibc:armsecgs.obj
 0001:00018d64       tolower                    00029d64 f   fulllibc:tolower.obj
 0001:00018d74       __raise_int_divide_by_zero 00029d74 f   fulllibc:diverr.obj
 0001:00018d98       __fp_veneer_error          00029d98     fulllibc:error.obj
 0001:00018d98       __fp_nonveneer_error       00029d98     fulllibc:error.obj
 0001:00018d9c       __fp_exception             00029d9c     fulllibc:error.obj
 0001:00018ee0       __fp_norm_op1              00029ee0     fulllibc:normop1.obj
 0001:00018fa8       FPE_Raise                  00029fa8 f   fulllibc:fpraise.obj
 0001:00019648       __flt_normalise2           0002a648     fulllibc:fnorm2.obj
 0001:000196dc       __crtRaiseException        0002a6dc f   fulllibc:raiseexc.obj
 0001:000196f8       __fp_fcheck_NaN2           0002a6f8     fulllibc:check.obj
 0001:00019724       __fp_dcheck_NaN2           0002a724     fulllibc:check.obj
 0001:0001976c       __fp_return_NaN            0002a76c     fulllibc:check.obj
 0001:000197d4       __fp_return_Inf            0002a7d4     fulllibc:check.obj
 0001:000197d8       NKDbgPrintfW               0002a7d8 f   nkstub:nkstub.obj
 0001:0001980c       NKwvsprintfW               0002a80c f   nkstub:nkstub.obj
 0001:00019830       NKSetLastError             0002a830 f   nkstub:nkstub.obj
 0001:00019854       EnterCriticalSection       0002a854 f   nkstub:nkstub.obj
 0001:00019878       LeaveCriticalSection       0002a878 f   nkstub:nkstub.obj
 0001:0001989c       InitializeCriticalSection  0002a89c f   nkstub:nkstub.obj
 0001:000198c0       DeleteCriticalSection      0002a8c0 f   nkstub:nkstub.obj
 0001:000198e4       INTERRUPTS_ENABLE          0002a8e4 f   nkstub:nkstub.obj
 0001:00019908       NKSetInterruptEvent        0002a908 f   nkstub:nkstub.obj
 0001:0001992c       NKVirtualSetAttributes     0002a92c f   nkstub:nkstub.obj
 0001:00019960       NKForceCleanBoot           0002a960 f   nkstub:nkstub.obj
 0001:00019984       NKwcslen                   0002a984 f   nkstub:nkstub.obj
 0001:000199a8       NKwcscpy                   0002a9a8 f   nkstub:nkstub.obj
 0001:000199cc       NKSystemTimeToFileTime     0002a9cc f   nkstub:nkstub.obj
 0001:000199f0       NKFileTimeToSystemTime     0002a9f0 f   nkstub:nkstub.obj
 0001:00019a1c       ProfilerHit                0002aa1c f   nkstub:nkstub.obj
 0001:00019a70       NKPhysToVirt               0002aa70 f   nkstub:nkstub.obj
 0001:00019a94       NKVirtToPhys               0002aa94 f   nkstub:nkstub.obj
 0001:00019ab8       __report_gsfailure         0002aab8 f   nkstub:nkstub.obj
 0001:00019adc       KITLIoctl                  0002aadc f   nkstub:kitlstub.obj
 0001:00019b18       OALLocalAllocInit          0002ab18 f   common_ti_oal_alloc:alloc.obj
 0001:00019b80       OALLocalAlloc              0002ab80 f   common_ti_oal_alloc:alloc.obj
 0001:00019c70       OALLocalFree               0002ac70 f   common_ti_oal_alloc:alloc.obj
 0001:00019cd8       OALTimerGetReg             0002acd8 f i common_ti_gpt_systimer:timer.obj
 0001:00019d50       OALTimerSetReg             0002ad50 f i common_ti_gpt_systimer:timer.obj
 0001:00019dcc       OALTimerStart              0002adcc f   common_ti_gpt_systimer:timer.obj
 0001:00019e3c       OALTimerStop               0002ae3c f   common_ti_gpt_systimer:timer.obj
 0001:00019e70       OALTimerSetCompare         0002ae70 f i common_ti_gpt_systimer:timer.obj
 0001:00019eb0       OEMIdle                    0002aeb0 f   common_ti_gpt_systimer:timer.obj
 0001:0001a034       OALTimerGetCount           0002b034 f   common_ti_gpt_systimer:timer.obj
 0001:0001a054       OALTimerCountsSinceSysTick 0002b054 f   common_ti_gpt_systimer:timer.obj
 0001:0001a084       OALGetTickCount            0002b084 f   common_ti_gpt_systimer:timer.obj
 0001:0001a0b4       OEMGetTickCount            0002b0b4 f   common_ti_gpt_systimer:timer.obj
 0001:0001a144       UpdatePeriod               0002b144 f   common_ti_gpt_systimer:timer.obj
 0001:0001a1dc       OALTimerUpdateRescheduleTime 0002b1dc f   common_ti_gpt_systimer:timer.obj
 0001:0001a260       OALTimerIntrHandler        0002b260 f   common_ti_gpt_systimer:timer.obj
 0001:0001a388       OALTimerInit               0002b388 f   common_ti_gpt_systimer:timer.obj
 0001:0001a5a0       OALTimerQueryPerformanceFrequency 0002b5a0 f   common_ti_gpt_profiler:profiler.obj
 0001:0001a5c4       OALTimerQueryPerformanceCounter 0002b5c4 f   common_ti_gpt_profiler:profiler.obj
 0001:0001a610       OEMProfileTimerEnable      0002b610 f   common_ti_gpt_profiler:profiler.obj
 0001:0001a6a4       OEMProfileTimerDisable     0002b6a4 f   common_ti_gpt_profiler:profiler.obj
 0001:0001a700       OALProfileTimerHit         0002b700 f   common_ti_gpt_profiler:profiler.obj
 0001:0001a750       OALPerformanceTimerInit    0002b750 f   common_ti_gpt_profiler:profiler.obj
 0001:0001a8bc       OEMInitDebugSerial         0002b8bc f   common_ti_debugserial:debugserial.obj
 0001:0001a950       OEMDeinitDebugSerial       0002b950 f   common_ti_debugserial:debugserial.obj
 0001:0001a99c       OEMWriteDebugByte          0002b99c f   common_ti_debugserial:debugserial.obj
 0001:0001a9e4       OEMReadDebugByte           0002b9e4 f   common_ti_debugserial:debugserial.obj
 0001:0001aa4c       OEMEnableDebugOutput       0002ba4c f   common_ti_debugserial:debugserial.obj
 0001:0001aa5c       OEMWriteDebugString        0002ba5c f   common_ti_debugserial:debugserial.obj
 0001:0001aa88       OEMWriteDebugLED           0002ba88 f   common_ti_debugserial:debugserial.obj
 0001:0001aa8c       OALHandleVFPException      0002ba8c f   common_ti_vfpneon:vfphandler.obj
 0001:0001aa94       OALSaveVFPCtrlRegs         0002ba94 f   common_ti_vfpneon:vfphandler.obj
 0001:0001aa98       OALRestoreVFPCtrlRegs      0002ba98 f   common_ti_vfpneon:vfphandler.obj
 0001:0001aa9c       OALInitNeonSaveArea        0002ba9c f   common_ti_vfpneon:vfphandler.obj
 0001:0001aaa0       OALVFPInitialize           0002baa0 f   common_ti_vfpneon:vfphandler.obj
 0001:0001ab0c       OALVFPEnable               0002bb0c f   common_ti_vfpneon:vfp.obj
 0001:0001ab2c       OALVFPGetFPSID             0002bb2c f   common_ti_vfpneon:vfp.obj
 0001:0001ab34       OALGetCACR                 0002bb34 f   common_ti_vfpneon:vfp.obj
 0001:0001ab3c       OALGetNACR                 0002bb3c f   common_ti_vfpneon:vfp.obj
 0001:0001ab44       OALSaveNeonRegisters       0002bb44 f   common_ti_vfpneon:vfp.obj
 0001:0001ab68       OALRestoreNeonRegisters    0002bb68 f   common_ti_vfpneon:vfp.obj
 0001:0001ab8c       OALSaveAllVfpNeonRegisters 0002bb8c     common_ti_vfpneon:vfp.obj
 0001:0001abb0       OALRestoreAllVfpNeonRegisters 0002bbb0     common_ti_vfpneon:vfp.obj
 0001:0001abd4       GetGPIOCtxtByIrq           0002bbd4 f   common_ti_intr:intr.obj
 0001:0001ac38       OALIntrRequestIrqs         0002bc38 f   common_ti_intr:intr.obj
 0001:0001acec       OALIntrEnableIrqs          0002bcec f   common_ti_intr:intr.obj
 0001:0001ae78       OALIntrDisableIrqs         0002be78 f   common_ti_intr:intr.obj
 0001:0001afb8       OALIntrDoneIrqs            0002bfb8 f   common_ti_intr:intr.obj
 0001:0001b0f8       OALIntrIsIrqPending        0002c0f8 f   common_ti_intr:intr.obj
 0001:0001b1a8       OEMInterruptHandler        0002c1a8 f   common_ti_intr:intr.obj
 0001:0001b408       OALIntrInit                0002c408 f   common_ti_intr:intr.obj
 0001:0001b6e4       OALIntrMapInit             0002c6e4 f   common_ti_intr:map.obj
 0001:0001b764       OALIntrStaticTranslate     0002c764 f   common_ti_intr:map.obj
 0001:0001b818       OALIntrTranslateSysIntr    0002c818 f   common_ti_intr:map.obj
 0001:0001b8a8       OALIntrTranslateIrq        0002c8a8 f   common_ti_intr:map.obj
 0001:0001b918       OALIntrRequestSysIntr      0002c918 f   common_ti_intr:map.obj
 0001:0001bbf4       OALIntrReleaseSysIntr      0002cbf4 f   common_ti_intr:map.obj
 0001:0001bcd4       OEMInterruptEnable         0002ccd4 f   common_ti_intr:oem.obj
 0001:0001bda8       OEMInterruptDisable        0002cda8 f   common_ti_intr:oem.obj
 0001:0001be40       OEMInterruptMask           0002ce40 f   common_ti_intr:oem.obj
 0001:0001beb4       OEMInterruptDone           0002ceb4 f   common_ti_intr:oem.obj
 0001:0001bf28       GetAddressByDevice         0002cf28 f   common_ti_devicesmap:devicemap.obj
 0001:0001bf78       GetIrqByDevice             0002cf78 f   common_ti_devicesmap:devicemap.obj
 0001:0001c004       OALCacheGlobalsInit        0002d004 f   common_ti_cortexA8_cache:init.obj
 0001:0001c298       OALSetMemoryAttributes     0002d298 f   common_ti_cortexA8_cache:attrib.obj
 0001:0001c3c8       OALIoCtlHalGetCacheInfo    0002d3c8 f   common_ti_cortexA8_cache:ioctl.obj
 0001:0001c510       OEMCacheRangeFlush         0002d510 f   common_ti_cortexA8_cache:flush.obj
 0001:0001c760       OEMARMCacheMode            0002d760 f   common_ti_cortexA8_cache:cachemode.obj
 0001:0001c768       OALGetFCSE                 0002d768 f   common_ti_cortexA8_cache:cacheid.obj
 0001:0001c774       OALGetContextID            0002d774 f   common_ti_cortexA8_cache:cacheid.obj
 0001:0001c780       OALGetCacheType            0002d780 f   common_ti_cortexA8_cache:cacheid.obj
 0001:0001c78c       OALGetCacheLevelID         0002d78c f   common_ti_cortexA8_cache:cacheid.obj
 0001:0001c798       OALGetCacheSizeID          0002d798 f   common_ti_cortexA8_cache:cacheid.obj
 0001:0001c7b4       OALClearITLB               0002d7b4 f   common_ti_cortexA8_cache:tlb.obj
 0001:0001c7c8       OALClearITLBEntry          0002d7c8 f   common_ti_cortexA8_cache:tlb.obj
 0001:0001c7d8       OALClearITLBAsid           0002d7d8 f   common_ti_cortexA8_cache:tlb.obj
 0001:0001c7e8       OALClearDTLB               0002d7e8 f   common_ti_cortexA8_cache:tlb.obj
 0001:0001c7fc       OALClearDTLBEntry          0002d7fc f   common_ti_cortexA8_cache:tlb.obj
 0001:0001c80c       OALClearDTLBAsid           0002d80c f   common_ti_cortexA8_cache:tlb.obj
 0001:0001c81c       OALClearTLB                0002d81c f   common_ti_cortexA8_cache:tlb.obj
 0001:0001c83c       OALClearTLBEntry           0002d83c f   common_ti_cortexA8_cache:tlb.obj
 0001:0001c858       OALClearTLBAsid            0002d858 f   common_ti_cortexA8_cache:tlb.obj
 0001:0001c874       OALFlushICache             0002d874 f   common_ti_cortexA8_cache:icache.obj
 0001:0001c890       OALFlushICacheLines        0002d890 f   common_ti_cortexA8_cache:icache.obj
 0001:0001c8c0       OALCleanDCache             0002d8c0 f   common_ti_cortexA8_cache:dcache.obj
 0001:0001c95c       OALCleanDCacheLines        0002d95c f   common_ti_cortexA8_cache:dcache.obj
 0001:0001c980       OALFlushDCache             0002d980 f   common_ti_cortexA8_cache:dcache.obj
 0001:0001ca1c       OALFlushDCacheLines        0002da1c f   common_ti_cortexA8_cache:dcache.obj
 0001:0001ca40       OALInvalidateDCacheLines   0002da40 f   common_ti_cortexA8_cache:dcache.obj
 0001:0001ca68       I2CLock                    0002da68 f   common_ti_oali2c:oali2c.obj
 0001:0001cab0       I2CUnlock                  0002dab0 f   common_ti_oali2c:oali2c.obj
 0001:0001caf8       I2CPollStatus              0002daf8 f i common_ti_oali2c:oali2c.obj
 0001:0001cc8c       OALI2CInit                 0002dc8c f   common_ti_oali2c:oali2c.obj
 0001:0001cd78       OALI2CPostInit             0002dd78 f   common_ti_oali2c:oali2c.obj
 0001:0001cdd8       I2CSetSlaveAddress         0002ddd8 f   common_ti_oali2c:oali2c.obj
 0001:0001cde4       I2COpen                    0002dde4 f   common_ti_oali2c:oali2c.obj
 0001:0001ceb0       I2CClose                   0002deb0 f   common_ti_oali2c:oali2c.obj
 0001:0001d348       I2CSetSubAddressMode       0002e348 f   common_ti_oali2c:oali2c.obj
 0001:0001d350       I2CSetBaudIndex            0002e350 f   common_ti_oali2c:oali2c.obj
 0001:0001d358       I2CSetTimeout              0002e358 f   common_ti_oali2c:oali2c.obj
 0001:0001d360       I2CSetManualDriveMode      0002e360 f   common_ti_oali2c:oali2c.obj
 0001:0001d3f0       I2CDriveSCL                0002e3f0 f   common_ti_oali2c:oali2c.obj
 0001:0001d434       I2CDriveSDA                0002e434 f   common_ti_oali2c:oali2c.obj
 0001:0001d478       I2CWrite                   0002e478 f   common_ti_oali2c:oali2c.obj
 0001:0001d644       I2CRead                    0002e644 f   common_ti_oali2c:oali2c.obj
 0001:0001d844       Get_CPUVersion             0002e844 f   OMAP3530_oalcpuver:oalcpuver.obj
 0001:0001d9f4       Get_CPUMaxSpeed            0002e9f4 f   OMAP3530_oalcpuver:oalcpuver.obj
 0001:0001da10       OALPadCfgPostInit          0002ea10 f   common_ti_oalpadcfg:oalpadcfg.obj
 0001:0001dad0       OALPadCfgInit              0002ead0 f   common_ti_oalpadcfg:oalpadcfg.obj
 0001:0001db88       RequestPad                 0002eb88 f   common_ti_oalpadcfg:oalpadcfg.obj
 0001:0001dc04       ReleasePad                 0002ec04 f   common_ti_oalpadcfg:oalpadcfg.obj
 0001:0001dc98       ConfigurePad               0002ec98 f   common_ti_oalpadcfg:oalpadcfg.obj
 0001:0001dd20       GetPadConfiguration        0002ed20 f   common_ti_oalpadcfg:oalpadcfg.obj
 0001:0001ddb4       RequestAndConfigurePad     0002edb4 f   common_ti_oalpadcfg:oalpadcfg.obj
 0001:0001de50       RequestAndConfigurePadArray 0002ee50 f   common_ti_oalpadcfg:oalpadcfg.obj
 0001:0001df30       ReleasePadArray            0002ef30 f   common_ti_oalpadcfg:oalpadcfg.obj
 0001:0001df6c       RequestDevicePads          0002ef6c f   common_ti_oalpadcfg:oalpadcfg.obj
 0001:0001df94       ReleaseDevicePads          0002ef94 f   common_ti_oalpadcfg:oalpadcfg.obj
 0001:0001dfbc       OALIoCtlHALPostInit        0002efbc f   common_ti_ioctl:ioctlex.obj
 0001:0001e014       OALIoCtlHalIrq2Sysintr     0002f014 f   common_ti_ioctl:ioctlex.obj
 0001:0001e0d8       OALIoCtlHalGetCpuID        0002f0d8 f   common_ti_ioctl:ioctlex.obj
 0001:0001e170       OALIoCtlHalGetDieID        0002f170 f   common_ti_ioctl:ioctlex.obj
 0001:0001e208       OALIoCtlHalGetCpuFamily    0002f208 f   common_ti_ioctl:ioctlex.obj
 0001:0001e2a4       OALIoCtlHalGetCpuRevision  0002f2a4 f   common_ti_ioctl:ioctlex.obj
 0001:0001e340       OALIoCtlHalGetCpuSpeed     0002f340 f   common_ti_ioctl:ioctlex.obj
 0001:0001e3a0       OALIoCtlHalI2CMode         0002f3a0 f   common_ti_ioctl:ioctlex.obj
 0001:0001e3a8       OALIoCtlHalI2CCopyFnTable  0002f3a8 f   common_ti_ioctl:ioctlex.obj
 0001:0001e4cc       OALIoCtlIgnore             0002f4cc f   common_ti_ioctl:ioctlex.obj
 0001:0001e4d4       OALIoCtlHalPadCfgCopyFnTable 0002f4d4 f   common_ti_ioctl:ioctlex.obj
 0001:0001e5c0       OALIoctlHalGetNeonStats    0002f5c0 f   common_ti_ioctl:ioctlex.obj
 0001:0001e694       OALIoctlHalGetEccType      0002f694 f   common_ti_ioctl:ioctlex.obj
 0001:0001e754       OALIoctlGetDisplayRes      0002f754 f   common_ti_ioctl:ioctlex.obj
 0001:0001e808       OALIoctlConvertCAtoPA      0002f808 f   common_ti_ioctl:ioctlex.obj
 0001:0001e8a4       OALIoCtlHalGetRNdisMacAddr 0002f8a4 f   common_ti_ioctl:rndismac.obj
 0001:0001e948       OALIoCtlHalQueryFormatPartition 0002f948 f   common_ti_ioctl:format.obj
 0001:0001e9ec       OALIoCtlHalGetHWEntropy    0002f9ec f   common_ti_ioctl:hwentropy.obj
 0001:0001ea90       OALIoCtlHalReboot          0002fa90 f   common_ti_ioctl:reboot.obj
 0001:0001eb74       OEMInterruptPending        0002fb74 f   OMAP3530_oal_power:power.obj
 0001:0001ec24       OEMPowerOff                0002fc24 f   OMAP3530_oal_power:power.obj
 0001:0001efe0       SOCGetGPIODeviceByBank     0002ffe0 f   OMAP3530_soccfg:soccfg.obj
 0001:0001f040       SOCGetIntCtrlAddr          00030040 f   OMAP3530_soccfg:soccfg.obj
 0001:0001f04c       SOCSetPadConfig            0003004c f   OMAP3530_oal_padcfg:soc_padcfg.obj
 0001:0001f108       SOCGetPadConfig            00030108 f   OMAP3530_oal_padcfg:soc_padcfg.obj
 0001:0001f1d0       OALIsProcessorFeaturePresent 000301d0 f   OMAP3530_oal_misc:feature.obj
 0001:0001f2a8       OALGetIdCode               000302a8 f   OMAP3530_oal_misc:getidcode.obj
 0001:0001f2b0       OALGetSiliconIdCode        000302b0 f   OMAP3530_oal_misc:getidcode.obj
 0001:0001f2b8       SmartReflex_InitializeChannel 000302b8 f   OMAP3530_oal_sr:oal_sr.obj
 0001:0001f2c8       SmartReflex_SetAccumulationSize 000302c8 f   OMAP3530_oal_sr:oal_sr.obj
 0001:0001f2f0       SmartReflex_SetSensorMode_v1 000302f0 f   OMAP3530_oal_sr:oal_sr.obj
 0001:0001f31c       SmartReflex_SetSensorMode_v2 0003031c f   OMAP3530_oal_sr:oal_sr.obj
 0001:0001f348       SmartReflex_EnableInterrupts_v1 00030348 f   OMAP3530_oal_sr:oal_sr.obj
 0001:0001f370       SmartReflex_EnableInterrupts_v2 00030370 f   OMAP3530_oal_sr:oal_sr.obj
 0001:0001f40c       SmartReflex_EnableErrorGeneratorBlock 0003040c f   OMAP3530_oal_sr:oal_sr.obj
 0001:0001f434       SmartReflex_EnableMinMaxAvgBlock 00030434 f   OMAP3530_oal_sr:oal_sr.obj
 0001:0001f45c       SmartReflex_EnableSensorBlock 0003045c f   OMAP3530_oal_sr:oal_sr.obj
 0001:0001f484       SmartReflex_Enable         00030484 f   OMAP3530_oal_sr:oal_sr.obj
 0001:0001f4ac       SmartReflex_SetIdleMode_v1 000304ac f   OMAP3530_oal_sr:oal_sr.obj
 0001:0001f4d0       SmartReflex_SetIdleMode_v2 000304d0 f   OMAP3530_oal_sr:oal_sr.obj
 0001:0001f4f4       SmartReflex_SetSensorReferenceData 000304f4 f   OMAP3530_oal_sr:oal_sr.obj
 0001:0001f55c       SmartReflex_SetErrorControl_v1 0003055c f   OMAP3530_oal_sr:oal_sr.obj
 0001:0001f5a0       SmartReflex_SetErrorControl_v2 000305a0 f   OMAP3530_oal_sr:oal_sr.obj
 0001:0001f5e4       SmartReflex_SetAvgWeight   000305e4 f   OMAP3530_oal_sr:oal_sr.obj
 0001:0001f618       SmartReflex_ClearInterruptStatus_v1 00030618 f   OMAP3530_oal_sr:oal_sr.obj
 0001:0001f64c       SmartReflex_ClearInterruptStatus_v2 0003064c f   OMAP3530_oal_sr:oal_sr.obj
 0001:0001f6f8       SmartReflex_GetStatus      000306f8 f   OMAP3530_oal_sr:oal_sr.obj
 0001:0001f70c       SmartReflex_dump_register_v1 0003070c f   OMAP3530_oal_sr:oal_sr.obj
 0001:0001f7d4       SmartReflex_dump_register_v2 000307d4 f   OMAP3530_oal_sr:oal_sr.obj
 0001:0001f8dc       SmartReflex_Get_functions_hander 000308dc f   OMAP3530_oal_sr:oal_sr.obj
 0001:0001f93c       Lock                       0003093c f i OMAP3530_oal_prcm:prcm_device.obj
 0001:0001f980       Unlock                     00030980 f i OMAP3530_oal_prcm:prcm_device.obj
 0001:0001fb10       _PrcmDeviceHwUpdateAutoidle 00030b10 f   OMAP3530_oal_prcm:prcm_device.obj
 0001:0001fbc4       _PrcmDeviceEnableAutoIdle  00030bc4 f   OMAP3530_oal_prcm:prcm_device.obj
 0001:0001fc5c       _PrcmUpdateDeviceClockSource 00030c5c f i OMAP3530_oal_prcm:prcm_device.obj
 0001:0001fd00       _PrcmDeviceWaitForDeviceAccess 00030d00 f   OMAP3530_oal_prcm:prcm_device.obj
 0001:0001fdc4       _PrcmDeviceEnableWakeUp    00030dc4 f   OMAP3530_oal_prcm:prcm_device.obj
 0001:0001fe74       _PrcmDeviceEnableFClock    00030e74 f   OMAP3530_oal_prcm:prcm_device.obj
 0001:0001ff38       _PrcmDeviceEnableIClock    00030f38 f   OMAP3530_oal_prcm:prcm_device.obj
 0001:00020028       _PrcmDeviceEnableIClock_DSS 00031028 f   OMAP3530_oal_prcm:prcm_device.obj
 0001:00020134       _PrcmDeviceSetSourceClock  00031134 f   OMAP3530_oal_prcm:prcm_device.obj
 0001:000201c8       PrcmDeviceGetEnabledState  000311c8 f   OMAP3530_oal_prcm:prcm_device.obj
 0001:00020280       PrcmDeviceGetAutoIdleState 00031280 f   OMAP3530_oal_prcm:prcm_device.obj
 0001:00020328       PrcmDeviceSetSourceClocks  00031328 f   OMAP3530_oal_prcm:prcm_device.obj
 0001:00020404       PrcmDeviceEnableIClock     00031404 f   OMAP3530_oal_prcm:prcm_device.obj
 0001:00020584       PrcmDeviceEnableFClock     00031584 f   OMAP3530_oal_prcm:prcm_device.obj
 0001:00020718       PrcmDeviceEnableClocks     00031718 f   OMAP3530_oal_prcm:prcm_device.obj
 0001:00020784       PrcmDeviceEnableClocksKernel 00031784 f   OMAP3530_oal_prcm:prcm_device.obj
 0001:00020808       PrcmDeviceEnableAutoIdle   00031808 f   OMAP3530_oal_prcm:prcm_device.obj
 0001:000208f4       PrcmDeviceGetContextState  000318f4 f   OMAP3530_oal_prcm:prcm_device.obj
 0001:00020980       PrcmDeviceGetSourceClockInfo 00031980 f   OMAP3530_oal_prcm:prcm_device.obj
 0001:00020a70       DeviceInitialize           00031a70 f   OMAP3530_oal_prcm:prcm_device.obj
 0001:00020b7c       _PrcmDeviceEnableFClock_DSS 00031b7c f   OMAP3530_oal_prcm:prcm_device.obj
 0001:00020cd8       _PrcmDeviceEnableFClock_USB 00031cd8 f   OMAP3530_oal_prcm:prcm_device.obj
 0001:00020dc8       _PrcmDeviceEnableIClock_USB 00031dc8 f   OMAP3530_oal_prcm:prcm_device.obj
 0001:00020e74       _PrcmDeviceSetSourceClock_DSS 00031e74 f   OMAP3530_oal_prcm:prcm_device.obj
 0001:00020fe0       _PrcmDeviceSetSourceClock_USB 00031fe0 f   OMAP3530_oal_prcm:prcm_device.obj
 0001:000210a0       EnableDeviceClocks         000320a0 f   OMAP3530_oal_prcm:prcm_device.obj
 0001:000210b0       IS_IOPAD_EVENT_PENDING     000320b0 f   OMAP3530_oal_prcm:prcm.obj
 0001:000210e8       PrcmInitializePrevPowerState 000320e8 f   OMAP3530_oal_prcm:prcm.obj
 0001:00021190       PrcmProfilePrevPowerState  00032190 f   OMAP3530_oal_prcm:prcm.obj
 0001:0002132c       PrcmCapturePrevPowerState  0003232c f   OMAP3530_oal_prcm:prcm.obj
 0001:0002138c       GetCmRegisterSet           0003238c f   OMAP3530_oal_prcm:prcm.obj
 0001:00021468       GetPrmRegisterSet          00032468 f   OMAP3530_oal_prcm:prcm.obj
 0001:00021544       PrcmInterruptEnable        00032544 f   OMAP3530_oal_prcm:prcm.obj
 0001:00021590       PrcmInterruptClearStatus   00032590 f   OMAP3530_oal_prcm:prcm.obj
 0001:000215d0       PrcmInterruptProcess       000325d0 f   OMAP3530_oal_prcm:prcm.obj
 0001:000216a4       OALSRAMFnInit              000326a4 f   OMAP3530_oal_prcm:prcm.obj
 0001:000218fc       OALSDRCRefreshCounter      000328fc f   OMAP3530_oal_prcm:prcm.obj
 0001:00021918       OALSavePrcmContext         00032918 f   OMAP3530_oal_prcm:prcm.obj
 0001:00021a68       OALSaveSdrcContext         00032a68 f   OMAP3530_oal_prcm:prcm.obj
 0001:00021be0       PrcmInit                   00032be0 f   OMAP3530_oal_prcm:prcm.obj
 0001:00021c50       PrcmPostInit               00032c50 f   OMAP3530_oal_prcm:prcm.obj
 0001:00021cbc       PrcmContextRestoreInit     00032cbc f   OMAP3530_oal_prcm:prcm.obj
 0001:00021d80       PrcmContextRestore         00032d80 f   OMAP3530_oal_prcm:prcm.obj
 0001:00021e00       PrcmSuspend                00032e00 f   OMAP3530_oal_prcm:prcm.obj
 0001:0002209c       OALIoCtlPrcmDeviceGetDeviceManagementTable 0003309c f   OMAP3530_oal_prcm:prcm.obj
 0001:00022f28       _ClockHwUpdateDpllFrequency 00033f28 f   OMAP3530_oal_prcm:prcm_clock.obj
 0001:00023338       ClockInitialize            00034338 f   OMAP3530_oal_prcm:prcm_clock.obj
 0001:000235d0       ClockUpdateParentClock     000345d0 f   OMAP3530_oal_prcm:prcm_clock.obj
 0001:000236c8       PrcmClockSetDivisor        000346c8 f   OMAP3530_oal_prcm:prcm_clock.obj
 0001:00023944       PrcmClockSetParent         00034944 f   OMAP3530_oal_prcm:prcm_clock.obj
 0001:00023ac4       PrcmClockGetParentClockRefcount 00034ac4 f   OMAP3530_oal_prcm:prcm_clock.obj
 0001:00023bb0       PrcmClockGetParentClockInfo 00034bb0 f   OMAP3530_oal_prcm:prcm_clock.obj
 0001:00023ca8       PrcmClockSetDpllState      00034ca8 f   OMAP3530_oal_prcm:prcm_clock.obj
 0001:00023dc0       PrcmClockSetDpllFrequency  00034dc0 f   OMAP3530_oal_prcm:prcm_clock.obj
 0001:00023eac       PrcmClockSetExternalClockRequestMode 00034eac f   OMAP3530_oal_prcm:prcm_clock.obj
 0001:00023f04       PrcmClockSetSystemClockSetupTime 00034f04 f   OMAP3530_oal_prcm:prcm_clock.obj
 0001:00023f50       PrcmClockGetSystemClockFrequency 00034f50 f   OMAP3530_oal_prcm:prcm_clock.obj
 0001:00023f88       PrcmClockRestoreDpllState  00034f88 f   OMAP3530_oal_prcm:prcm_clock.obj
 0001:00023fa8       PrcmClockGetClockRate      00034fa8 f   OMAP3530_oal_prcm:prcm_clock.obj
 0001:0002423c       PrcmSaveRefCounts          0003523c f   OMAP3530_oal_prcm:prcm_clock.obj
 0001:00024354       PrcmDumpSavedRefCounts     00035354 f   OMAP3530_oal_prcm:prcm_clock.obj
 0001:00024544       PrcmRegsSnapshot           00035544 f   OMAP3530_oal_prcm:prcm_clock.obj
 0001:000245dc       DumpPrcmRegsSnapshot       000355dc f   OMAP3530_oal_prcm:prcm_clock.obj
 0001:00024694       DumpPrcmRegs               00035694 f   OMAP3530_oal_prcm:prcm_clock.obj
 0001:00024a2c       PrcmDomainSetPowerStateInternal 00035a2c f   OMAP3530_oal_prcm:prcm_domain.obj
 0001:00024ac0       DomainGetDeviceContextState 00035ac0 f   OMAP3530_oal_prcm:prcm_domain.obj
 0001:00024b68       DomainInitialize           00035b68 f   OMAP3530_oal_prcm:prcm_domain.obj
 0001:00024ce0       PrcmRestoreDomain          00035ce0 f   OMAP3530_oal_prcm:prcm_domain.obj
 0001:00024d68       PrcmDomainSetWakeupDependency 00035d68 f   OMAP3530_oal_prcm:prcm_domain.obj
 0001:00024e50       PrcmDomainSetSleepDependency 00035e50 f   OMAP3530_oal_prcm:prcm_domain.obj
 0001:00024f18       PrcmDomainSetPowerState    00035f18 f   OMAP3530_oal_prcm:prcm_domain.obj
 0001:00025024       PrcmDomainSetClockState    00036024 f   OMAP3530_oal_prcm:prcm_domain.obj
 0001:00025138       PrcmDomainSetMemoryState   00036138 f   OMAP3530_oal_prcm:prcm_domain.obj
 0001:000251f0       PrcmDomainUpdateRefCount   000361f0 f   OMAP3530_oal_prcm:prcm_domain.obj
 0001:00025224       PrcmProcessPostMpuWakeup   00036224 f   OMAP3530_oal_prcm:prcm_domain.obj
 0001:000253a0       PrcmDomainClearReset       000363a0 f   OMAP3530_oal_prcm:prcm_domain.obj
 0001:0002544c       ResetInitialize            0003644c f   OMAP3530_oal_prcm:prcm_reset.obj
 0001:000254f4       PrcmDomainResetRelease     000364f4 f   OMAP3530_oal_prcm:prcm_reset.obj
 0001:00025550       PrcmGlobalReset            00036550 f   OMAP3530_oal_prcm:prcm_reset.obj
 0001:0002556c       PrcmVoltSetControlMode     0003656c f   OMAP3530_oal_prcm:prcm_volt.obj
 0001:00025594       PrcmVoltSetControlPolarity 00036594 f   OMAP3530_oal_prcm:prcm_volt.obj
 0001:000255bc       PrcmVoltSetAutoControl     000365bc f   OMAP3530_oal_prcm:prcm_volt.obj
 0001:000255e4       PrcmVoltSetErrorConfiguration 000365e4 f   OMAP3530_oal_prcm:prcm_volt.obj
 0001:00025668       PrcmVoltSetVoltageLevel    00036668 f   OMAP3530_oal_prcm:prcm_volt.obj
 0001:00025710       PrcmVoltSetInitVddLevel    00036710 f   OMAP3530_oal_prcm:prcm_volt.obj
 0001:0002577c       PrcmVoltEnableTimeout      0003677c f   OMAP3530_oal_prcm:prcm_volt.obj
 0001:000257e4       PrcmVoltEnableVp           000367e4 f   OMAP3530_oal_prcm:prcm_volt.obj
 0001:0002584c       PrcmVoltFlushVoltageLevels 0003684c f   OMAP3530_oal_prcm:prcm_volt.obj
 0001:000258c0       PrcmVoltIdleCheck          000368c0 f   OMAP3530_oal_prcm:prcm_volt.obj
 0001:00025908       PrcmVoltGetVoltageRampDelay 00036908 f   OMAP3530_oal_prcm:prcm_volt.obj
 0001:0002597c       PrcmVoltScaleVoltageABB    0003697c f   OMAP3530_oal_prcm:prcm_volt.obj
 0001:00025af0       OALCPUStart                00036af0 f   OMAP3530_oal_cpuidle:cpu.obj
 0001:00025c7c       OALCPUIdle                 00036c7c f   OMAP3530_oal_cpuidle:cpu.obj
 0001:00025dc0       OALUpdateCoreFreq          00036dc0 f   OMAP3530_oal_cpuidle:cpu.obj
 0001:00025e40       OALCPUWarmReset            00036e40 f   OMAP3530_oal_cpuidle:cpu.obj
 0001:00025e64       OALCPUEnd                  00036e64 f   OMAP3530_oal_cpuidle:cpu.obj
 0001:00025e68       INTERRUPTS_STATUS          00036e68 f   OMAP3530_oal_cpuidle:cpu.obj
 0001:00025e78       OALInvalidateTlb           00036e78 f   OMAP3530_oal_cpuidle:cpu.obj
 0001:00025e9c       OALGetTTBR                 00036e9c f   OMAP3530_oal_cpuidle:cpu.obj
 0001:00025eb8       OALGetL2Aux                00036eb8 f   OMAP3530_oal_cpuidle:cpu.obj
 0001:00025ec0       SystemTimeToString         00036ec0 f   TPS659xx_oal_rtc:rtc.obj
 0001:00025f24       HWTimeToString             00036f24 f   TPS659xx_oal_rtc:rtc.obj
 0001:0002600c       ReadBaseOffset             0003700c f   TPS659xx_oal_rtc:rtc.obj
 0001:000261dc       WriteBaseOffset            000371dc f   TPS659xx_oal_rtc:rtc.obj
 0001:00026310       OALIoCtlHalInitRTC         00037310 f   TPS659xx_oal_rtc:rtc.obj
 0001:0002698c       OALIoCtlHalRtcTime         0003798c f   TPS659xx_oal_rtc:rtc.obj
 0001:00026b90       OALIoCtlHalRtcAlarm        00037b90 f   TPS659xx_oal_rtc:rtc.obj
 0001:00026bc8       FiletimeToHWTime           00037bc8 f   TPS659xx_oal_rtc:rtc.obj
 0001:00026d70       OEMGetRealTime             00037d70 f   TPS659xx_oal_rtc:rtc.obj
 0001:00026eb8       OEMSetRealTime             00037eb8 f   TPS659xx_oal_rtc:rtc.obj
 0001:00027004       OEMSetAlarmTime            00038004 f   TPS659xx_oal_rtc:rtc.obj
 0001:000277d4       TWLOpen                    000387d4 f   triton_oal:twl_access.obj
 0001:00027834       TWLClose                   00038834 f   triton_oal:twl_access.obj
 0001:00027870       TWLReadRegs                00038870 f   triton_oal:twl_access.obj
 0001:000278fc       TWLWriteRegs               000388fc f   triton_oal:twl_access.obj
 0001:000280a4       GPIOInit                   000390a4 f   common_ti_oal_gpiodispatch:gpio_dispatch.obj
 0001:0002813c       GPIOOpen                   0003913c f   common_ti_oal_gpiodispatch:gpio_dispatch.obj
 0001:0002814c       GPIOClose                  0003914c f   common_ti_oal_gpiodispatch:gpio_dispatch.obj
 0001:00028150       GPIOSetBit                 00039150 f   common_ti_oal_gpiodispatch:gpio_dispatch.obj
 0001:000281a8       GPIOClrBit                 000391a8 f   common_ti_oal_gpiodispatch:gpio_dispatch.obj
 0001:00028200       GPIOSetMode                00039200 f   common_ti_oal_gpiodispatch:gpio_dispatch.obj
 0001:00028260       OALArgsQuery               00039260 f   bsp_args:args.obj
 0001:000284b8       BSPGetDebugUARTConfig      000394b8 f   bspcfg:bspcfg.obj
 0001:000284c4       BSPInsertGpioDevice        000394c4 f   bspcfg:bspcfg.obj
 0001:00028518       BSPGetGpioDevicesTable     00039518 f   bspcfg:bspcfg.obj
 0001:00028524       BSPGetGpioIrq              00039524 f   bspcfg:bspcfg.obj
 0001:0002852c       BSPGetTritonBusID          0003952c f   bspcfg:bspcfg.obj
 0001:00028534       BSPGetTritonSlaveAddress   00039534 f   bspcfg:bspcfg.obj
 0001:0002853c       BSPGetSysTimerDevice       0003953c f   bspcfg:bspcfg.obj
 0001:00028544       BSPGetSysTimer32KClock     00039544 f   bspcfg:bspcfg.obj
 0001:0002854c       BSPGetGPTPerfDevice        0003954c f   bspcfg:bspcfg.obj
 0001:00028554       BSPGetGPTPerfHighFreqClock 00039554 f   bspcfg:bspcfg.obj
 0001:00028570       BSPGetAllPadsInfo          00039570 f   bsp_padcfg:bsp_padcfg.obj
 0001:0002857c       BSPGetDevicePadInfo        0003957c f   bsp_padcfg:bsp_padcfg.obj
 0001:000286e4       OEMInterruptHandlerFIQ     000396e4 f   oal:fiq.obj
 0001:000286e8       OALSWIntrEnableIrq         000396e8 f   oal:oem_intrex.obj
 0001:00028748       OALSWIntrDisableIrq        00039748 f   oal:oem_intrex.obj
 0001:000287a4       OALSWIntrDoneIrq           000397a4 f   oal:oem_intrex.obj
 0001:000287c4       OALTickTimerIntr           000397c4 f   oal:oem_intrex.obj
 0001:00028a50       RegisterPrcmInterruptHandler 00039a50 f   oal:intr.obj
 0001:00028ad8       BSPIntrInit                00039ad8 f   oal:intr.obj
 0001:00028afc       BSPIntrRequestIrqs         00039afc f   oal:intr.obj
 0001:00028be8       BSPPowerOff                00039be8 f   oal:power.obj
 0001:00028ca0       BSPPowerOn                 00039ca0 f   oal:power.obj
 0001:00028d2c       BSPSetT2MSECURE            00039d2c f   bsp_tps659xx:bsp_tps659xx.obj
 0001:00028d78       OEMGetExtensionDRAM        00039d78 f   oal_other:memory.obj
 0001:00028d80       OALLogPrintf               00039d80 f   oal_log:log.obj
 0001:00028dac       _CountLeadingZeros         00039dac f   fulllibc:countlead.obj
 0001:00028dd8       wcscmp                     00039dd8 f   fulllibc:wcscmp.obj
 0001:00028e20       InterlockedExchange        00039e20 f   nkstub:intrlock.obj
 0001:00028e28       InterlockedTestExchange    00039e28 f   nkstub:intrlock.obj
 0001:00028e34       InterlockedCompareExchange 00039e34 f   nkstub:intrlock.obj
 0001:00028e3c       InterlockedExchangeAdd     00039e3c f   nkstub:intrlock.obj
 0001:00028e44       InterlockedIncrement       00039e44 f   nkstub:intrlock.obj
 0001:00028e64       InterlockedDecrement       00039e64 f   nkstub:intrlock.obj
 0001:00028e84       V6_WriteBarrier            00039e84 f   nkstub:intrlock.obj
 0001:00028e90       OALWatchdogEnable          00039e90 f   common_ti_oal_watchdog:watchdog.obj
 0001:00028f58       OALCPURestoreContext       00039f58 f   OMAP3530_oal_power:restore.obj
 0003:00000000       g_dwCpuRevision            00041000     oal:init.obj
 0003:00000004       dwOEMSRAMStartOffset       00041004     oal:init.obj
 0003:00000008       dwOEMMaxIdlePeriod         00041008     oal:init.obj
 0003:0000000c       g_oalIoCtlPlatformType     0004100c     oal:ioctl.obj
 0003:00000010       g_oalIoCtlPlatformOEM      00041010     oal:ioctl.obj
 0003:00000014       g_oalIoCtlPlatformManufacturer 00041014     oal:ioctl.obj
 0003:00000018       g_oalIoCtlPlatformName     00041018     oal:ioctl.obj
 0003:0000001c       g_oalIoCtlProcessorVendor  0004101c     oal:ioctl.obj
 0003:00000020       g_oalIoCtlProcessorName    00041020     oal:ioctl.obj
 0003:00000024       g_oalIoCtlProcessorCore    00041024     oal:ioctl.obj
 0003:00000028       g_oalIoCtlInstructionSet   00041028     oal:ioctl.obj
 0003:00000330       Vdd1_init_val_35xx         00041330     oal:opp_map.obj
 0003:0000034c       Vdd1_init_val_37xx         0004134c     oal:opp_map.obj
 0003:000009a8       _rgSr1ErrConfig_v1         000419a8     oal:opp_map.obj
 0003:000009bc       _rgSr1ErrConfig_v2         000419bc     oal:opp_map.obj
 0003:000009cc       _rgSr2ErrConfig_v1         000419cc     oal:opp_map.obj
 0003:000009d4       _rgSr2ErrConfig_v2         000419d4     oal:opp_map.obj
 0003:000009f8       _SR_driver_data_35xx       000419f8     oal:opp_map.obj
 0003:00000a18       _SR_driver_data_37xx       00041a18     oal:opp_map.obj
 0003:00000a40       initialOALLogZones         00041a40     oal_log:debug.obj
 0003:00000a48       dpCurSettings              00041a48     oal_log:debug.obj
 0003:00000e8c       g_oalWakeSource            00041e8c     oal_power:ioctl.obj
 0003:00000fbc       g_pOemGlobal               00041fbc     oemmain:oemglobal.obj
 0003:00000fc0       OsAxsDataBlock_2           00041fc0     nkldr:kdinfo.obj
 0003:00001040       OsAxsHwTrap                00042040     nkldr:kdinfo.obj
 0003:000010ac       __fp_status_flags          000420ac     fulllibc:fpdata.obj
 0003:000010b0       __fp_errblock              000420b0     fulllibc:fpdata.obj
 0003:000010f4       __rt_trap                  000420f4     fulllibc:fpdata.obj
 0003:000010f8       __security_cookie          000420f8     nkstub:nkstub.obj
 0003:000010fc       __security_cookie_complement 000420fc     nkstub:nkstub.obj
 0003:00001100       timer_posted_pending_bit   00042100     common_ti_gpt_systimer:timer.obj
 0003:0000115c       g_wakeupLatencyConstraintTickCount 0004215c     common_ti_gpt_systimer:timer.obj
 0003:00001160       g_oalPerfTimerIrq          00042160     common_ti_gpt_profiler:profiler.obj
 0003:00001168       g_oalTimerIrq              00042168     common_ti_intr:intr.obj
 0003:0000116c       g_oalPrcmIrq               0004216c     common_ti_intr:intr.obj
 0003:00001170       g_oalSmartReflex1          00042170     common_ti_intr:intr.obj
 0003:00001174       g_oalSmartReflex2          00042174     common_ti_intr:intr.obj
 0003:00001178       g_pIntr                    00042178     common_ti_intr:intr.obj
 0003:00001180       OMAPCpuInfo                00042180     OMAP3530_oalcpuver:oalcpuver.obj
 0003:000011c8       CPUMaxSpeed                000421c8     OMAP3530_oalcpuver:oalcpuver.obj
 0003:000011d8       SmartReflex_Functions_v1   000421d8     OMAP3530_oal_sr:oal_sr.obj
 0003:00001214       SmartReflex_Functions_v2   00042214     OMAP3530_oal_sr:oal_sr.obj
 0003:00001400       _autoIdle_D2D              00042400     OMAP3530_oal_prcm:prcm_device.obj
 0003:0000140c       _autoIdle_SSI              0004240c     OMAP3530_oal_prcm:prcm_device.obj
 0003:00001418       _autoIdle_HDQ              00042418     OMAP3530_oal_prcm:prcm_device.obj
 0003:00001424       _autoIdle_ICR              00042424     OMAP3530_oal_prcm:prcm_device.obj
 0003:00001430       _autoIdle_I2C1             00042430     OMAP3530_oal_prcm:prcm_device.obj
 0003:0000143c       _autoIdle_I2C2             0004243c     OMAP3530_oal_prcm:prcm_device.obj
 0003:00001448       _autoIdle_I2C3             00042448     OMAP3530_oal_prcm:prcm_device.obj
 0003:00001454       _autoIdle_MMC1             00042454     OMAP3530_oal_prcm:prcm_device.obj
 0003:00001460       _autoIdle_MMC2             00042460     OMAP3530_oal_prcm:prcm_device.obj
 0003:0000146c       _autoIdle_MMC3             0004246c     OMAP3530_oal_prcm:prcm_device.obj
 0003:00001478       _autoIdle_AES2             00042478     OMAP3530_oal_prcm:prcm_device.obj
 0003:00001484       _autoIdle_DES2             00042484     OMAP3530_oal_prcm:prcm_device.obj
 0003:00001490       _autoIdle_UART1            00042490     OMAP3530_oal_prcm:prcm_device.obj
 0003:0000149c       _autoIdle_UART2            0004249c     OMAP3530_oal_prcm:prcm_device.obj
 0003:000014a8       _autoIdle_MSPRO            000424a8     OMAP3530_oal_prcm:prcm_device.obj
 0003:000014b4       _autoIdle_SHA12            000424b4     OMAP3530_oal_prcm:prcm_device.obj
 0003:000014c0       _autoIdle_MCBSP1           000424c0     OMAP3530_oal_prcm:prcm_device.obj
 0003:000014cc       _autoIdle_MCBSP5           000424cc     OMAP3530_oal_prcm:prcm_device.obj
 0003:000014d8       _autoIdle_MCSPI1           000424d8     OMAP3530_oal_prcm:prcm_device.obj
 0003:000014e4       _autoIdle_MCSPI2           000424e4     OMAP3530_oal_prcm:prcm_device.obj
 0003:000014f0       _autoIdle_MCSPI3           000424f0     OMAP3530_oal_prcm:prcm_device.obj
 0003:000014fc       _autoIdle_MCSPI4           000424fc     OMAP3530_oal_prcm:prcm_device.obj
 0003:00001508       _autoIdle_GPT10            00042508     OMAP3530_oal_prcm:prcm_device.obj
 0003:00001514       _autoIdle_GPT11            00042514     OMAP3530_oal_prcm:prcm_device.obj
 0003:00001520       _autoIdle_OMAPCTRL         00042520     OMAP3530_oal_prcm:prcm_device.obj
 0003:0000152c       _autoIdle_HSOTGUSB         0004252c     OMAP3530_oal_prcm:prcm_device.obj
 0003:00001538       _autoIdle_MAILBOXES        00042538     OMAP3530_oal_prcm:prcm_device.obj
 0003:00001544       _autoIdle_PKA              00042544     OMAP3530_oal_prcm:prcm_device.obj
 0003:00001550       _autoIdle_RNG              00042550     OMAP3530_oal_prcm:prcm_device.obj
 0003:0000155c       _autoIdle_AES1             0004255c     OMAP3530_oal_prcm:prcm_device.obj
 0003:00001568       _autoIdle_DES1             00042568     OMAP3530_oal_prcm:prcm_device.obj
 0003:00001574       _autoIdle_SHA11            00042574     OMAP3530_oal_prcm:prcm_device.obj
 0003:00001580       _autoIdle_USBTLL           00042580     OMAP3530_oal_prcm:prcm_device.obj
 0003:0000158c       _autoIdle_GPT1             0004258c     OMAP3530_oal_prcm:prcm_device.obj
 0003:00001598       _autoIdle_GPT12            00042598     OMAP3530_oal_prcm:prcm_device.obj
 0003:000015a4       _autoIdle_32KSYNC          000425a4     OMAP3530_oal_prcm:prcm_device.obj
 0003:000015b0       _autoIdle_GPIO1            000425b0     OMAP3530_oal_prcm:prcm_device.obj
 0003:000015bc       _autoIdle_WDT1             000425bc     OMAP3530_oal_prcm:prcm_device.obj
 0003:000015c8       _autoIdle_WDT2             000425c8     OMAP3530_oal_prcm:prcm_device.obj
 0003:000015d4       _autoIdle_USIM             000425d4     OMAP3530_oal_prcm:prcm_device.obj
 0003:000015e0       _autoIdle_WDT3             000425e0     OMAP3530_oal_prcm:prcm_device.obj
 0003:000015ec       _autoIdle_GPT2             000425ec     OMAP3530_oal_prcm:prcm_device.obj
 0003:000015f8       _autoIdle_GPT3             000425f8     OMAP3530_oal_prcm:prcm_device.obj
 0003:00001604       _autoIdle_GPT4             00042604     OMAP3530_oal_prcm:prcm_device.obj
 0003:00001610       _autoIdle_GPT5             00042610     OMAP3530_oal_prcm:prcm_device.obj
 0003:0000161c       _autoIdle_GPT6             0004261c     OMAP3530_oal_prcm:prcm_device.obj
 0003:00001628       _autoIdle_GPT7             00042628     OMAP3530_oal_prcm:prcm_device.obj
 0003:00001634       _autoIdle_GPT8             00042634     OMAP3530_oal_prcm:prcm_device.obj
 0003:00001640       _autoIdle_GPT9             00042640     OMAP3530_oal_prcm:prcm_device.obj
 0003:0000164c       _autoIdle_UART3            0004264c     OMAP3530_oal_prcm:prcm_device.obj
 0003:00001658       _autoIdle_GPIO2            00042658     OMAP3530_oal_prcm:prcm_device.obj
 0003:00001664       _autoIdle_GPIO3            00042664     OMAP3530_oal_prcm:prcm_device.obj
 0003:00001670       _autoIdle_GPIO4            00042670     OMAP3530_oal_prcm:prcm_device.obj
 0003:0000167c       _autoIdle_GPIO5            0004267c     OMAP3530_oal_prcm:prcm_device.obj
 0003:00001688       _autoIdle_GPIO6            00042688     OMAP3530_oal_prcm:prcm_device.obj
 0003:00001694       _autoIdle_MCBSP2           00042694     OMAP3530_oal_prcm:prcm_device.obj
 0003:000016a0       _autoIdle_MCBSP3           000426a0     OMAP3530_oal_prcm:prcm_device.obj
 0003:000016ac       _autoIdle_MCBSP4           000426ac     OMAP3530_oal_prcm:prcm_device.obj
 0003:000016b8       _autoIdle_UART4            000426b8     OMAP3530_oal_prcm:prcm_device.obj
 0003:000016c4       _autoIdle_DSS              000426c4     OMAP3530_oal_prcm:prcm_device.obj
 0003:000016d0       _autoIdle_CAM              000426d0     OMAP3530_oal_prcm:prcm_device.obj
 0003:000016dc       _autoIdle_USBHOST          000426dc     OMAP3530_oal_prcm:prcm_device.obj
 0003:000016e8       _idleStat_D2D              000426e8     OMAP3530_oal_prcm:prcm_device.obj
 0003:000016f0       _idleStat_SSI              000426f0     OMAP3530_oal_prcm:prcm_device.obj
 0003:000016f8       _idleStat_HDQ              000426f8     OMAP3530_oal_prcm:prcm_device.obj
 0003:00001700       _idleStat_ICR              00042700     OMAP3530_oal_prcm:prcm_device.obj
 0003:00001708       _idleStat_SDRC             00042708     OMAP3530_oal_prcm:prcm_device.obj
 0003:00001710       _idleStat_I2C1             00042710     OMAP3530_oal_prcm:prcm_device.obj
 0003:00001718       _idleStat_I2C2             00042718     OMAP3530_oal_prcm:prcm_device.obj
 0003:00001720       _idleStat_I2C3             00042720     OMAP3530_oal_prcm:prcm_device.obj
 0003:00001728       _idleStat_MMC1             00042728     OMAP3530_oal_prcm:prcm_device.obj
 0003:00001730       _idleStat_MMC2             00042730     OMAP3530_oal_prcm:prcm_device.obj
 0003:00001738       _idleStat_MMC3             00042738     OMAP3530_oal_prcm:prcm_device.obj
 0003:00001740       _idleStat_AES2             00042740     OMAP3530_oal_prcm:prcm_device.obj
 0003:00001748       _idleStat_DES2             00042748     OMAP3530_oal_prcm:prcm_device.obj
 0003:00001750       _idleStat_UART1            00042750     OMAP3530_oal_prcm:prcm_device.obj
 0003:00001758       _idleStat_UART2            00042758     OMAP3530_oal_prcm:prcm_device.obj
 0003:00001760       _idleStat_MSPRO            00042760     OMAP3530_oal_prcm:prcm_device.obj
 0003:00001768       _idleStat_SHA12            00042768     OMAP3530_oal_prcm:prcm_device.obj
 0003:00001770       _idleStat_MCBSP1           00042770     OMAP3530_oal_prcm:prcm_device.obj
 0003:00001778       _idleStat_MCBSP5           00042778     OMAP3530_oal_prcm:prcm_device.obj
 0003:00001780       _idleStat_MCSPI1           00042780     OMAP3530_oal_prcm:prcm_device.obj
 0003:00001788       _idleStat_MCSPI2           00042788     OMAP3530_oal_prcm:prcm_device.obj
 0003:00001790       _idleStat_MCSPI3           00042790     OMAP3530_oal_prcm:prcm_device.obj
 0003:00001798       _idleStat_MCSPI4           00042798     OMAP3530_oal_prcm:prcm_device.obj
 0003:000017a0       _idleStat_GPT10            000427a0     OMAP3530_oal_prcm:prcm_device.obj
 0003:000017a8       _idleStat_GPT11            000427a8     OMAP3530_oal_prcm:prcm_device.obj
 0003:000017b0       _idleStat_HSOTGUSB         000427b0     OMAP3530_oal_prcm:prcm_device.obj
 0003:000017b8       _idleStat_OMAPCTRL         000427b8     OMAP3530_oal_prcm:prcm_device.obj
 0003:000017c0       _idleStat_MAILBOXES        000427c0     OMAP3530_oal_prcm:prcm_device.obj
 0003:000017c8       _idleStat_PKA              000427c8     OMAP3530_oal_prcm:prcm_device.obj
 0003:000017d0       _idleStat_RNG              000427d0     OMAP3530_oal_prcm:prcm_device.obj
 0003:000017d8       _idleStat_AES1             000427d8     OMAP3530_oal_prcm:prcm_device.obj
 0003:000017e0       _idleStat_DES1             000427e0     OMAP3530_oal_prcm:prcm_device.obj
 0003:000017e8       _idleStat_SHA11            000427e8     OMAP3530_oal_prcm:prcm_device.obj
 0003:000017f0       _idleStat_USBTLL           000427f0     OMAP3530_oal_prcm:prcm_device.obj
 0003:000017f8       _idleStat_CPEFUSE          000427f8     OMAP3530_oal_prcm:prcm_device.obj
 0003:00001800       _idleStat_GPT1             00042800     OMAP3530_oal_prcm:prcm_device.obj
 0003:00001808       _idleStat_GPT12            00042808     OMAP3530_oal_prcm:prcm_device.obj
 0003:00001810       _idleStat_32KSYNC          00042810     OMAP3530_oal_prcm:prcm_device.obj
 0003:00001818       _idleStat_GPIO1            00042818     OMAP3530_oal_prcm:prcm_device.obj
 0003:00001820       _idleStat_WDT1             00042820     OMAP3530_oal_prcm:prcm_device.obj
 0003:00001828       _idleStat_WDT2             00042828     OMAP3530_oal_prcm:prcm_device.obj
 0003:00001830       _idleStat_USIM             00042830     OMAP3530_oal_prcm:prcm_device.obj
 0003:00001838       _idleStat_SR1              00042838     OMAP3530_oal_prcm:prcm_device.obj
 0003:00001840       _idleStat_SR2              00042840     OMAP3530_oal_prcm:prcm_device.obj
 0003:00001848       _idleStat_WDT3             00042848     OMAP3530_oal_prcm:prcm_device.obj
 0003:00001850       _idleStat_UART3            00042850     OMAP3530_oal_prcm:prcm_device.obj
 0003:00001858       _idleStat_GPIO2            00042858     OMAP3530_oal_prcm:prcm_device.obj
 0003:00001860       _idleStat_GPIO3            00042860     OMAP3530_oal_prcm:prcm_device.obj
 0003:00001868       _idleStat_GPIO4            00042868     OMAP3530_oal_prcm:prcm_device.obj
 0003:00001870       _idleStat_GPIO5            00042870     OMAP3530_oal_prcm:prcm_device.obj
 0003:00001878       _idleStat_GPIO6            00042878     OMAP3530_oal_prcm:prcm_device.obj
 0003:00001880       _idleStat_MCBSP2           00042880     OMAP3530_oal_prcm:prcm_device.obj
 0003:00001888       _idleStat_MCBSP3           00042888     OMAP3530_oal_prcm:prcm_device.obj
 0003:00001890       _idleStat_MCBSP4           00042890     OMAP3530_oal_prcm:prcm_device.obj
 0003:00001898       _idleStat_GPT2             00042898     OMAP3530_oal_prcm:prcm_device.obj
 0003:000018a0       _idleStat_GPT3             000428a0     OMAP3530_oal_prcm:prcm_device.obj
 0003:000018a8       _idleStat_GPT4             000428a8     OMAP3530_oal_prcm:prcm_device.obj
 0003:000018b0       _idleStat_GPT5             000428b0     OMAP3530_oal_prcm:prcm_device.obj
 0003:000018b8       _idleStat_GPT6             000428b8     OMAP3530_oal_prcm:prcm_device.obj
 0003:000018c0       _idleStat_GPT7             000428c0     OMAP3530_oal_prcm:prcm_device.obj
 0003:000018c8       _idleStat_GPT8             000428c8     OMAP3530_oal_prcm:prcm_device.obj
 0003:000018d0       _idleStat_GPT9             000428d0     OMAP3530_oal_prcm:prcm_device.obj
 0003:000018d8       _idleStat_UART4            000428d8     OMAP3530_oal_prcm:prcm_device.obj
 0003:000018e0       _idleStat_DSS              000428e0     OMAP3530_oal_prcm:prcm_device.obj
 0003:000018e8       _idleStat_CAM              000428e8     OMAP3530_oal_prcm:prcm_device.obj
 0003:000018f0       _idleStat_SGX              000428f0     OMAP3530_oal_prcm:prcm_device.obj
 0003:000018f8       _idleStat_IVA2             000428f8     OMAP3530_oal_prcm:prcm_device.obj
 0003:00001900       _idleStat_USBHOST          00042900     OMAP3530_oal_prcm:prcm_device.obj
 0003:00001908       _iclk_D2D                  00042908     OMAP3530_oal_prcm:prcm_device.obj
 0003:00001918       _iclk_SSI                  00042918     OMAP3530_oal_prcm:prcm_device.obj
 0003:00001928       _iclk_HDQ                  00042928     OMAP3530_oal_prcm:prcm_device.obj
 0003:00001938       _iclk_ICR                  00042938     OMAP3530_oal_prcm:prcm_device.obj
 0003:00001948       _iclk_SDRC                 00042948     OMAP3530_oal_prcm:prcm_device.obj
 0003:00001958       _iclk_I2C1                 00042958     OMAP3530_oal_prcm:prcm_device.obj
 0003:00001968       _iclk_I2C2                 00042968     OMAP3530_oal_prcm:prcm_device.obj
 0003:00001978       _iclk_I2C3                 00042978     OMAP3530_oal_prcm:prcm_device.obj
 0003:00001988       _iclk_MMC1                 00042988     OMAP3530_oal_prcm:prcm_device.obj
 0003:00001998       _iclk_MMC2                 00042998     OMAP3530_oal_prcm:prcm_device.obj
 0003:000019a8       _iclk_MMC3                 000429a8     OMAP3530_oal_prcm:prcm_device.obj
 0003:000019b8       _iclk_AES2                 000429b8     OMAP3530_oal_prcm:prcm_device.obj
 0003:000019c8       _iclk_DES2                 000429c8     OMAP3530_oal_prcm:prcm_device.obj
 0003:000019d8       _iclk_UART1                000429d8     OMAP3530_oal_prcm:prcm_device.obj
 0003:000019e8       _iclk_UART2                000429e8     OMAP3530_oal_prcm:prcm_device.obj
 0003:000019f8       _iclk_MSPRO                000429f8     OMAP3530_oal_prcm:prcm_device.obj
 0003:00001a08       _iclk_SHA12                00042a08     OMAP3530_oal_prcm:prcm_device.obj
 0003:00001a18       _iclk_MCBSP1               00042a18     OMAP3530_oal_prcm:prcm_device.obj
 0003:00001a28       _iclk_MCBSP5               00042a28     OMAP3530_oal_prcm:prcm_device.obj
 0003:00001a38       _iclk_MCSPI1               00042a38     OMAP3530_oal_prcm:prcm_device.obj
 0003:00001a48       _iclk_MCSPI2               00042a48     OMAP3530_oal_prcm:prcm_device.obj
 0003:00001a58       _iclk_MCSPI3               00042a58     OMAP3530_oal_prcm:prcm_device.obj
 0003:00001a68       _iclk_MCSPI4               00042a68     OMAP3530_oal_prcm:prcm_device.obj
 0003:00001a78       _iclk_GPT10                00042a78     OMAP3530_oal_prcm:prcm_device.obj
 0003:00001a88       _iclk_GPT11                00042a88     OMAP3530_oal_prcm:prcm_device.obj
 0003:00001a98       _iclk_OMAPCTRL             00042a98     OMAP3530_oal_prcm:prcm_device.obj
 0003:00001aa8       _iclk_HSOTGUSB             00042aa8     OMAP3530_oal_prcm:prcm_device.obj
 0003:00001ab8       _iclk_MAILBOXES            00042ab8     OMAP3530_oal_prcm:prcm_device.obj
 0003:00001ac8       _iclk_PKA                  00042ac8     OMAP3530_oal_prcm:prcm_device.obj
 0003:00001ad8       _iclk_RNG                  00042ad8     OMAP3530_oal_prcm:prcm_device.obj
 0003:00001ae8       _iclk_AES1                 00042ae8     OMAP3530_oal_prcm:prcm_device.obj
 0003:00001af8       _iclk_DES1                 00042af8     OMAP3530_oal_prcm:prcm_device.obj
 0003:00001b08       _iclk_SHA11                00042b08     OMAP3530_oal_prcm:prcm_device.obj
 0003:00001b18       _iclk_USBTLL               00042b18     OMAP3530_oal_prcm:prcm_device.obj
 0003:00001b28       _iclk_VRFB                 00042b28     OMAP3530_oal_prcm:prcm_device.obj
 0003:00001b38       _iclk_GPT1                 00042b38     OMAP3530_oal_prcm:prcm_device.obj
 0003:00001b48       _iclk_GPT12                00042b48     OMAP3530_oal_prcm:prcm_device.obj
 0003:00001b58       _iclk_32KSYNC              00042b58     OMAP3530_oal_prcm:prcm_device.obj
 0003:00001b68       _iclk_GPIO1                00042b68     OMAP3530_oal_prcm:prcm_device.obj
 0003:00001b78       _iclk_WDT1                 00042b78     OMAP3530_oal_prcm:prcm_device.obj
 0003:00001b88       _iclk_WDT2                 00042b88     OMAP3530_oal_prcm:prcm_device.obj
 0003:00001b98       _iclk_USIM                 00042b98     OMAP3530_oal_prcm:prcm_device.obj
 0003:00001ba8       _iclk_WDT3                 00042ba8     OMAP3530_oal_prcm:prcm_device.obj
 0003:00001bb8       _iclk_GPT2                 00042bb8     OMAP3530_oal_prcm:prcm_device.obj
 0003:00001bc8       _iclk_GPT3                 00042bc8     OMAP3530_oal_prcm:prcm_device.obj
 0003:00001bd8       _iclk_GPT4                 00042bd8     OMAP3530_oal_prcm:prcm_device.obj
 0003:00001be8       _iclk_GPT5                 00042be8     OMAP3530_oal_prcm:prcm_device.obj
 0003:00001bf8       _iclk_GPT6                 00042bf8     OMAP3530_oal_prcm:prcm_device.obj
 0003:00001c08       _iclk_GPT7                 00042c08     OMAP3530_oal_prcm:prcm_device.obj
 0003:00001c18       _iclk_GPT8                 00042c18     OMAP3530_oal_prcm:prcm_device.obj
 0003:00001c28       _iclk_GPT9                 00042c28     OMAP3530_oal_prcm:prcm_device.obj
 0003:00001c38       _iclk_UART3                00042c38     OMAP3530_oal_prcm:prcm_device.obj
 0003:00001c48       _iclk_GPIO2                00042c48     OMAP3530_oal_prcm:prcm_device.obj
 0003:00001c58       _iclk_GPIO3                00042c58     OMAP3530_oal_prcm:prcm_device.obj
 0003:00001c68       _iclk_GPIO4                00042c68     OMAP3530_oal_prcm:prcm_device.obj
 0003:00001c78       _iclk_GPIO5                00042c78     OMAP3530_oal_prcm:prcm_device.obj
 0003:00001c88       _iclk_GPIO6                00042c88     OMAP3530_oal_prcm:prcm_device.obj
 0003:00001c98       _iclk_MCBSP2               00042c98     OMAP3530_oal_prcm:prcm_device.obj
 0003:00001ca8       _iclk_MCBSP3               00042ca8     OMAP3530_oal_prcm:prcm_device.obj
 0003:00001cb8       _iclk_MCBSP4               00042cb8     OMAP3530_oal_prcm:prcm_device.obj
 0003:00001cc8       _iclk_UART4                00042cc8     OMAP3530_oal_prcm:prcm_device.obj
 0003:00001cd8       _iclk_DSS                  00042cd8     OMAP3530_oal_prcm:prcm_device.obj
 0003:00001ce8       _iclk_CAM                  00042ce8     OMAP3530_oal_prcm:prcm_device.obj
 0003:00001cf8       _iclk_IVA2                 00042cf8     OMAP3530_oal_prcm:prcm_device.obj
 0003:00001d08       _iclk_SGX                  00042d08     OMAP3530_oal_prcm:prcm_device.obj
 0003:00001d18       _iclk_USBHOST              00042d18     OMAP3530_oal_prcm:prcm_device.obj
 0003:00001d28       _iclk_USBHOST1             00042d28     OMAP3530_oal_prcm:prcm_device.obj
 0003:00001d38       _iclk_USBHOST2             00042d38     OMAP3530_oal_prcm:prcm_device.obj
 0003:00001d48       _iclk_USBHOST3             00042d48     OMAP3530_oal_prcm:prcm_device.obj
 0003:00001d58       _fclk_D2D                  00042d58     OMAP3530_oal_prcm:prcm_device.obj
 0003:00001d68       _fclk_SSI                  00042d68     OMAP3530_oal_prcm:prcm_device.obj
 0003:00001d78       _fclk_HDQ                  00042d78     OMAP3530_oal_prcm:prcm_device.obj
 0003:00001d88       _fclk_I2C1                 00042d88     OMAP3530_oal_prcm:prcm_device.obj
 0003:00001d98       _fclk_I2C2                 00042d98     OMAP3530_oal_prcm:prcm_device.obj
 0003:00001da8       _fclk_I2C3                 00042da8     OMAP3530_oal_prcm:prcm_device.obj
 0003:00001db8       _fclk_MMC1                 00042db8     OMAP3530_oal_prcm:prcm_device.obj
 0003:00001dc8       _fclk_MMC2                 00042dc8     OMAP3530_oal_prcm:prcm_device.obj
 0003:00001dd8       _fclk_MMC3                 00042dd8     OMAP3530_oal_prcm:prcm_device.obj
 0003:00001de8       _fclk_UART1                00042de8     OMAP3530_oal_prcm:prcm_device.obj
 0003:00001df8       _fclk_UART2                00042df8     OMAP3530_oal_prcm:prcm_device.obj
 0003:00001e08       _fclk_MSPRO                00042e08     OMAP3530_oal_prcm:prcm_device.obj
 0003:00001e18       _fclk_MCBSP1               00042e18     OMAP3530_oal_prcm:prcm_device.obj
 0003:00001e28       _fclk_MCBSP5               00042e28     OMAP3530_oal_prcm:prcm_device.obj
 0003:00001e38       _fclk_MCSPI1               00042e38     OMAP3530_oal_prcm:prcm_device.obj
 0003:00001e48       _fclk_MCSPI2               00042e48     OMAP3530_oal_prcm:prcm_device.obj
 0003:00001e58       _fclk_MCSPI3               00042e58     OMAP3530_oal_prcm:prcm_device.obj
 0003:00001e68       _fclk_MCSPI4               00042e68     OMAP3530_oal_prcm:prcm_device.obj
 0003:00001e78       _fclk_GPT10                00042e78     OMAP3530_oal_prcm:prcm_device.obj
 0003:00001e88       _fclk_GPT11                00042e88     OMAP3530_oal_prcm:prcm_device.obj
 0003:00001e98       _fclk_USBTLL               00042e98     OMAP3530_oal_prcm:prcm_device.obj
 0003:00001ea8       _fclk_CPEFUSE              00042ea8     OMAP3530_oal_prcm:prcm_device.obj
 0003:00001eb8       _fclk_TS                   00042eb8     OMAP3530_oal_prcm:prcm_device.obj
 0003:00001ec8       _fclk_GPT1                 00042ec8     OMAP3530_oal_prcm:prcm_device.obj
 0003:00001ed8       _fclk_GPIO1                00042ed8     OMAP3530_oal_prcm:prcm_device.obj
 0003:00001ee8       _fclk_WDT2                 00042ee8     OMAP3530_oal_prcm:prcm_device.obj
 0003:00001ef8       _fclk_USIM                 00042ef8     OMAP3530_oal_prcm:prcm_device.obj
 0003:00001f08       _fclk_SR1                  00042f08     OMAP3530_oal_prcm:prcm_device.obj
 0003:00001f18       _fclk_SR2                  00042f18     OMAP3530_oal_prcm:prcm_device.obj
 0003:00001f28       _fclk_WDT3                 00042f28     OMAP3530_oal_prcm:prcm_device.obj
 0003:00001f38       _fclk_UART3                00042f38     OMAP3530_oal_prcm:prcm_device.obj
 0003:00001f48       _fclk_GPIO2                00042f48     OMAP3530_oal_prcm:prcm_device.obj
 0003:00001f58       _fclk_GPIO3                00042f58     OMAP3530_oal_prcm:prcm_device.obj
 0003:00001f68       _fclk_GPIO4                00042f68     OMAP3530_oal_prcm:prcm_device.obj
 0003:00001f78       _fclk_GPIO5                00042f78     OMAP3530_oal_prcm:prcm_device.obj
 0003:00001f88       _fclk_GPIO6                00042f88     OMAP3530_oal_prcm:prcm_device.obj
 0003:00001f98       _fclk_MCBSP2               00042f98     OMAP3530_oal_prcm:prcm_device.obj
 0003:00001fa8       _fclk_MCBSP3               00042fa8     OMAP3530_oal_prcm:prcm_device.obj
 0003:00001fb8       _fclk_MCBSP4               00042fb8     OMAP3530_oal_prcm:prcm_device.obj
 0003:00001fc8       _fclk_GPT2                 00042fc8     OMAP3530_oal_prcm:prcm_device.obj
 0003:00001fd8       _fclk_GPT3                 00042fd8     OMAP3530_oal_prcm:prcm_device.obj
 0003:00001fe8       _fclk_GPT4                 00042fe8     OMAP3530_oal_prcm:prcm_device.obj
 0003:00001ff8       _fclk_GPT5                 00042ff8     OMAP3530_oal_prcm:prcm_device.obj
 0003:00002008       _fclk_GPT6                 00043008     OMAP3530_oal_prcm:prcm_device.obj
 0003:00002018       _fclk_GPT7                 00043018     OMAP3530_oal_prcm:prcm_device.obj
 0003:00002028       _fclk_GPT8                 00043028     OMAP3530_oal_prcm:prcm_device.obj
 0003:00002038       _fclk_GPT9                 00043038     OMAP3530_oal_prcm:prcm_device.obj
 0003:00002048       _fclk_UART4                00043048     OMAP3530_oal_prcm:prcm_device.obj
 0003:00002058       _fclk_DSS                  00043058     OMAP3530_oal_prcm:prcm_device.obj
 0003:00002068       _fclk_DSS1                 00043068     OMAP3530_oal_prcm:prcm_device.obj
 0003:00002078       _fclk_DSS2                 00043078     OMAP3530_oal_prcm:prcm_device.obj
 0003:00002088       _fclk_TVOUT                00043088     OMAP3530_oal_prcm:prcm_device.obj
 0003:00002098       _fclk_CAM                  00043098     OMAP3530_oal_prcm:prcm_device.obj
 0003:000020a8       _fclk_CSI2                 000430a8     OMAP3530_oal_prcm:prcm_device.obj
 0003:000020b8       _fclk_3D                   000430b8     OMAP3530_oal_prcm:prcm_device.obj
 0003:000020c8       _fclk_SGX                  000430c8     OMAP3530_oal_prcm:prcm_device.obj
 0003:000020d8       _fclk_IVA2                 000430d8     OMAP3530_oal_prcm:prcm_device.obj
 0003:000020e8       _fclk_HSUSB2               000430e8     OMAP3530_oal_prcm:prcm_device.obj
 0003:000020f8       _fclk_HSUSB1               000430f8     OMAP3530_oal_prcm:prcm_device.obj
 0003:00002108       _wken_D2D                  00043108     OMAP3530_oal_prcm:prcm_device.obj
 0003:00002110       _wken_I2C1                 00043110     OMAP3530_oal_prcm:prcm_device.obj
 0003:00002118       _wken_I2C2                 00043118     OMAP3530_oal_prcm:prcm_device.obj
 0003:00002120       _wken_I2C3                 00043120     OMAP3530_oal_prcm:prcm_device.obj
 0003:00002128       _wken_MMC1                 00043128     OMAP3530_oal_prcm:prcm_device.obj
 0003:00002130       _wken_MMC2                 00043130     OMAP3530_oal_prcm:prcm_device.obj
 0003:00002138       _wken_MMC3                 00043138     OMAP3530_oal_prcm:prcm_device.obj
 0003:00002140       _wken_UART1                00043140     OMAP3530_oal_prcm:prcm_device.obj
 0003:00002148       _wken_UART2                00043148     OMAP3530_oal_prcm:prcm_device.obj
 0003:00002150       _wken_MCBSP1               00043150     OMAP3530_oal_prcm:prcm_device.obj
 0003:00002158       _wken_MCBSP5               00043158     OMAP3530_oal_prcm:prcm_device.obj
 0003:00002160       _wken_MCSPI1               00043160     OMAP3530_oal_prcm:prcm_device.obj
 0003:00002168       _wken_MCSPI2               00043168     OMAP3530_oal_prcm:prcm_device.obj
 0003:00002170       _wken_MCSPI3               00043170     OMAP3530_oal_prcm:prcm_device.obj
 0003:00002178       _wken_MCSPI4               00043178     OMAP3530_oal_prcm:prcm_device.obj
 0003:00002180       _wken_GPT10                00043180     OMAP3530_oal_prcm:prcm_device.obj
 0003:00002188       _wken_GPT11                00043188     OMAP3530_oal_prcm:prcm_device.obj
 0003:00002190       _wken_HSOTGUSB             00043190     OMAP3530_oal_prcm:prcm_device.obj
 0003:00002198       _wken_USBTLL               00043198     OMAP3530_oal_prcm:prcm_device.obj
 0003:000021a0       _wken_GPT1                 000431a0     OMAP3530_oal_prcm:prcm_device.obj
 0003:000021a8       _wken_GPIO1                000431a8     OMAP3530_oal_prcm:prcm_device.obj
 0003:000021b0       _wken_SR1                  000431b0     OMAP3530_oal_prcm:prcm_device.obj
 0003:000021b8       _wken_SR2                  000431b8     OMAP3530_oal_prcm:prcm_device.obj
 0003:000021c0       _wken_IO                   000431c0     OMAP3530_oal_prcm:prcm_device.obj
 0003:000021c8       _wken_USIM                 000431c8     OMAP3530_oal_prcm:prcm_device.obj
 0003:000021d0       _wken_UART3                000431d0     OMAP3530_oal_prcm:prcm_device.obj
 0003:000021d8       _wken_GPIO2                000431d8     OMAP3530_oal_prcm:prcm_device.obj
 0003:000021e0       _wken_GPIO3                000431e0     OMAP3530_oal_prcm:prcm_device.obj
 0003:000021e8       _wken_GPIO4                000431e8     OMAP3530_oal_prcm:prcm_device.obj
 0003:000021f0       _wken_GPIO5                000431f0     OMAP3530_oal_prcm:prcm_device.obj
 0003:000021f8       _wken_GPIO6                000431f8     OMAP3530_oal_prcm:prcm_device.obj
 0003:00002200       _wken_MCBSP2               00043200     OMAP3530_oal_prcm:prcm_device.obj
 0003:00002208       _wken_MCBSP3               00043208     OMAP3530_oal_prcm:prcm_device.obj
 0003:00002210       _wken_MCBSP4               00043210     OMAP3530_oal_prcm:prcm_device.obj
 0003:00002218       _wken_GPT2                 00043218     OMAP3530_oal_prcm:prcm_device.obj
 0003:00002220       _wken_GPT3                 00043220     OMAP3530_oal_prcm:prcm_device.obj
 0003:00002228       _wken_GPT4                 00043228     OMAP3530_oal_prcm:prcm_device.obj
 0003:00002230       _wken_GPT5                 00043230     OMAP3530_oal_prcm:prcm_device.obj
 0003:00002238       _wken_GPT6                 00043238     OMAP3530_oal_prcm:prcm_device.obj
 0003:00002240       _wken_GPT7                 00043240     OMAP3530_oal_prcm:prcm_device.obj
 0003:00002248       _wken_GPT8                 00043248     OMAP3530_oal_prcm:prcm_device.obj
 0003:00002250       _wken_GPT9                 00043250     OMAP3530_oal_prcm:prcm_device.obj
 0003:00002258       _wken_UART4                00043258     OMAP3530_oal_prcm:prcm_device.obj
 0003:00002260       _wken_DSS                  00043260     OMAP3530_oal_prcm:prcm_device.obj
 0003:00002268       _wken_USBHOST              00043268     OMAP3530_oal_prcm:prcm_device.obj
 0003:00002270       s_rgDeviceLookupTable      00043270     OMAP3530_oal_prcm:prcm_device.obj
 0003:00002cc8       _ssr_fclk                  00043cc8     OMAP3530_oal_prcm:prcm_clock.obj
 0003:00002cd4       _cam_fclk                  00043cd4     OMAP3530_oal_prcm:prcm_clock.obj
 0003:00002ce0       _dss1_fclk                 00043ce0     OMAP3530_oal_prcm:prcm_clock.obj
 0003:00002cec       _usim_fclk                 00043cec     OMAP3530_oal_prcm:prcm_clock.obj
 0003:00002d00       _cm_usim_fclk              00043d00     OMAP3530_oal_prcm:prcm_clock.obj
 0003:00002d14       _sgx_fclk                  00043d14     OMAP3530_oal_prcm:prcm_clock.obj
 0003:00002d38       _tv_fclk                   00043d38     OMAP3530_oal_prcm:prcm_clock.obj
 0003:00002d50       s_DpllTable                00043d50     OMAP3530_oal_prcm:prcm_clock.obj
 0003:00002d98       s_DpllClkOutTable          00043d98     OMAP3530_oal_prcm:prcm_clock.obj
 0003:00002e18       s_SrcClockTable            00043e18     OMAP3530_oal_prcm:prcm_clock.obj
 0003:00003574       s_VddNameTable             00044574     OMAP3530_oal_prcm:prcm_clock.obj
 0003:0000359c       s_DpllNameTable            0004459c     OMAP3530_oal_prcm:prcm_clock.obj
 0003:000035e8       s_DpllClkOutNameTable      000445e8     OMAP3530_oal_prcm:prcm_clock.obj
 0003:00003628       s_SrcClockNameTable        00044628     OMAP3530_oal_prcm:prcm_clock.obj
 0003:00003780       DeviceNames                00044780     OMAP3530_oal_prcm:prcm_clock.obj
 0003:000038c8       DumpRegArray               000448c8     OMAP3530_oal_prcm:prcm_clock.obj
 0003:000046c8       _CoreClockDomain           000456c8     OMAP3530_oal_prcm:prcm_domain.obj
 0003:000046f0       _PeripheralClockDomain     000456f0     OMAP3530_oal_prcm:prcm_domain.obj
 0003:00004700       _UsbHostClockDomain        00045700     OMAP3530_oal_prcm:prcm_domain.obj
 0003:00004710       _EmulationClockDomain      00045710     OMAP3530_oal_prcm:prcm_domain.obj
 0003:00004720       _MpuClockDomain            00045720     OMAP3530_oal_prcm:prcm_domain.obj
 0003:00004730       _DssClockDomain            00045730     OMAP3530_oal_prcm:prcm_domain.obj
 0003:00004740       _NeonClockDomain           00045740     OMAP3530_oal_prcm:prcm_domain.obj
 0003:00004750       _Iva2ClockDomain           00045750     OMAP3530_oal_prcm:prcm_domain.obj
 0003:00004760       _CameraClockDomain         00045760     OMAP3530_oal_prcm:prcm_domain.obj
 0003:00004770       _SgxClockDomain            00045770     OMAP3530_oal_prcm:prcm_domain.obj
 0003:00004780       _WakeupPowerDomain         00045780     OMAP3530_oal_prcm:prcm_domain.obj
 0003:00004790       _CorePowerDomain           00045790     OMAP3530_oal_prcm:prcm_domain.obj
 0003:000047a0       _PeripheralPowerDomain     000457a0     OMAP3530_oal_prcm:prcm_domain.obj
 0003:000047b0       _UsbHostPowerDomain        000457b0     OMAP3530_oal_prcm:prcm_domain.obj
 0003:000047c0       _MpuPowerDomain            000457c0     OMAP3530_oal_prcm:prcm_domain.obj
 0003:000047d0       _DssPowerDomain            000457d0     OMAP3530_oal_prcm:prcm_domain.obj
 0003:000047e0       _NeonPowerDomain           000457e0     OMAP3530_oal_prcm:prcm_domain.obj
 0003:000047f0       _Iva2PowerDomain           000457f0     OMAP3530_oal_prcm:prcm_domain.obj
 0003:00004800       _CameraPowerDomain         00045800     OMAP3530_oal_prcm:prcm_domain.obj
 0003:00004810       _SgxPowerDomain            00045810     OMAP3530_oal_prcm:prcm_domain.obj
 0003:00004820       s_DomainTable              00045820     OMAP3530_oal_prcm:prcm_domain.obj
 0003:00004a50       Tps659xx_Gpio              00045a50     TPS659xx_oal_gpio:tps659xx_gpio.obj
 0003:00004a98       Omap_Gpio                  00045a98     common_ti_oal_omap_gpio:omap35xx_gpio.obj
 0003:00004af8       g_dwMeasuredSysClkFreq     00045af8     bspcfg:bspcfg.obj
 0003:00004afc       _rgScaleTable              00045afc     bspcfg:bspcfg.obj
 0003:00004b20       _rgI2CDevice               00045b20     bspcfg:bspcfg.obj
 0003:00004c00       SupportedNands             00045c00     bspcfg:bspcfg.obj
 0003:00004c3c       BSPGpioTables              00045c3c     bspcfg:bspcfg.obj
 0003:000054f0       s_rgClockDomainDependency  000464f0     oal:oem_prcm_device.obj
 0003:00005da0       g_oalRetailMsgEnable       00046da0     oal:init.obj
 0003:00005da4       g_ResumeRTC                00046da4     oal:init.obj
 0003:00007b20       g_PrcmDebugSuspendResume   00048b20     oal:oem_pm.obj
 0003:00007b24       g_pTimerRegs               00048b24     oal:oem_pm.obj
 0003:00007b28       g_pGPMCRegs                00048b28     oal:oem_pm.obj
 0003:00007b2c       g_pSDRCRegs                00048b2c     oal:oem_pm.obj
 0003:00007b30       g_pSMSRegs                 00048b30     oal:oem_pm.obj
 0003:00007b34       g_pVRFBRegs                00048b34     oal:oem_pm.obj
 0003:00007b38       g_pContextRestore          00048b38     oal:oem_pm.obj
 0003:00007b3c       g_pSdrcRestore             00048b3c     oal:oem_pm.obj
 0003:00007b40       g_pPrcmRestore             00048b40     oal:oem_pm.obj
 0003:00007b44       g_ffContextSaveMask        00048b44     oal:oem_pm.obj
 0003:00007b4c       g_pSyscPadWkupRegs         00048b4c     oal:oem_pm.obj
 0003:00007b50       g_pSyscPadConfsRegs        00048b50     oal:oem_pm.obj
 0003:00007b5c       g_oalIoCtlClockSpeed       00048b5c     oal:ioctl.obj
 0003:00007e64       g_oalProfilerEnabled       00048e64     common_ti_gpt_profiler:profiler.obj
 0003:00007e68       g_pPerfTimer               00048e68     common_ti_gpt_profiler:profiler.obj
 0003:00007e84       g_oalNeonStat              00048e84     common_ti_vfpneon:vfphandler.obj
 0003:00008984       _fclk_USBHOST1             00049984     OMAP3530_oal_prcm:prcm_device.obj
 0003:00008994       _fclk_USBHOST2             00049994     OMAP3530_oal_prcm:prcm_device.obj
 0003:000089a4       _fclk_USBHOST3             000499a4     OMAP3530_oal_prcm:prcm_device.obj
 0003:000089fc       g_pSysCtrlGenReg           000499fc     OMAP3530_oal_prcm:prcm.obj
 0003:00008a00       g_PrcmPostInit             00049a00     OMAP3530_oal_prcm:prcm.obj
 0003:00008a04       g_bSingleThreaded          00049a04     OMAP3530_oal_prcm:prcm.obj
 0003:00008a08       g_pCPUInfo                 00049a08     OMAP3530_oal_prcm:prcm.obj
 0003:00008a0c       fnCpuStart                 00049a0c     OMAP3530_oal_prcm:prcm.obj
 0003:00008a10       fnOALCPUIdle               00049a10     OMAP3530_oal_prcm:prcm.obj
 0003:00008a14       fnOALUpdateCoreFreq        00049a14     OMAP3530_oal_prcm:prcm.obj
 0003:00008a18       fnOALCPUWarmReset          00049a18     OMAP3530_oal_prcm:prcm.obj
 0003:000094d4       s_VddTable                 0004a4d4     OMAP3530_oal_prcm:prcm_clock.obj
 0003:00009640       ?csGpio@@3UCRITICAL_SECTION@@A 0004a640     TPS659xx_oal_gpio:tps659xx_gpio.obj
 0003:00009658       ?g_fGpioPostInit@@3HA      0004a658     TPS659xx_oal_gpio:tps659xx_gpio.obj
 0003:0000973c       map                        0004a73c     <common>
 0003:00009740       nbBlock                    0004a740     <common>
 0003:00009744       poolSize                   0004a744     <common>
 0003:00009748       pool                       0004a748     <common>
 0003:00009760       g_oalTimerContext          0004a760     <common>
 0003:00009780       g_TimerDevice              0004a780     <common>
 0003:00009784       g_oalProfilerIncrement     0004a784     <common>
 0003:000097a0       g_oalCacheInfo             0004a7a0     <common>
 0003:000097e8       g_dwRangeLimit             0004a7e8     <common>
 0003:00009800       VfpNeonSave                0004a800     <common>
 0003:00009908       g_pPrcmCm                  0004a908     <common>
 0003:00009920       g_rgPrcmMutex              0004a920     <common>
 0003:00009998       g_pPrcmPrm                 0004a998     <common>
 0003:0000999c       SmartReflex_funcs          0004a99c     <common>
 0003:000099a0       g_PrcmPrm                  0004a9a0     <common>
 0003:000099d8       g_pIdCodeReg               0004a9d8     <common>
 0003:000099e0       g_PrcmCm                   0004a9e0     <common>
 0003:00009a18       g_dwCpuFamily              0004aa18     <common>
 0003:00009a1c       gDevice_prefix             0004aa1c     <common>
 0003:00009a20       g_oalKitlEnabled           0004aa20     <common>
 0003:00009a40       g_oalILT                   0004aa40     <common>
 0003:00009a60       g_oalTimer                 0004aa60     <common>
 0003:00009a88       _soft_fp_control           0004aa88     <common>
 0003:00009a8c       g_pNKGlobal                0004aa8c     <common>

 entry point at        0001:0000f2f8

 Static symbols

 0001:0000f544       ConfigurePadArray          00020544 f   oal:init.obj
 0001:0000f59c       OALCalibrateSysClk         0002059c f   oal:init.obj
 0001:0000f7e8       OALGPIOSetDefaultValues    000207e8 f   oal:init.obj
 0001:0000f8ac       OEMEnumExtensionDRAM       000208ac f   oal:init.obj
 0001:000108f4       InitT2PowerSequence        000218f4 f   oal:oem_pm.obj
 0001:00013f70       SmartReflex_Adjust_EFUSE_nvalue 00024f70 f   oal:opp_map.obj
 0001:000164e0       ?CheckBufferSize@@YAHPBXABIPAI1PBG@Z 000274e0 f   oal_ioctl:deviceinfo.obj
 0001:0001658c       ?GetBootMeName@@YAHPAXIPAIPAPBG@Z 0002758c f   oal_ioctl:deviceinfo.obj
 0001:00016d04       ReturnFalse                00027d04 f   oemmain:oemglobal.obj
 0001:00016d0c       ReturnSelf                 00027d0c f   oemmain:oemglobal.obj
 0001:00016d10       FakeCalcPage               00027d10 f   oemmain:oemglobal.obj
 0001:0001cba8       I2CResetDevice             0002dba8 f   common_ti_oali2c:oali2c.obj
 0001:0001cec0       I2CTransaction             0002dec0 f   common_ti_oali2c:oali2c.obj
 0001:0001da38       FindPad                    0002ea38 f   common_ti_oalpadcfg:oalpadcfg.obj
 0001:0001f9c4       _PrcmDeviceAddrefDeviceDomain 000309c4 f   OMAP3530_oal_prcm:prcm_device.obj
 0001:0001fa68       _PrcmDeviceReleaseDeviceDomain 00030a68 f   OMAP3530_oal_prcm:prcm_device.obj
 0001:0002217c       _ClockInitialize           0003317c f   OMAP3530_oal_prcm:prcm_clock.obj
 0001:0002225c       _ClockHwUpdateParentClock  0003325c f   OMAP3530_oal_prcm:prcm_clock.obj
 0001:00022b0c       _ClockHwUpdateDpllState    00033b0c f   OMAP3530_oal_prcm:prcm_clock.obj
 0001:00022e0c       _ClockUpdateDpllOutput     00033e0c f   OMAP3530_oal_prcm:prcm_clock.obj
 0001:00024774       _DomainClockRestore        00035774 f   OMAP3530_oal_prcm:prcm_domain.obj
 0001:00024928       _PrcmDomainHwUpdate        00035928 f   OMAP3530_oal_prcm:prcm_domain.obj
 0001:000271f8       ?WriteTwlReg@@YAHKPAEI@Z   000381f8 f   TPS659xx_oal_gpio:tps659xx_gpio.obj
 0001:00027250       ?ReadTwlReg@@YAHKPAEI@Z    00038250 f   TPS659xx_oal_gpio:tps659xx_gpio.obj
 0001:000272a8       ?Tps659xxGpioInit@@YAHPBGPAPAXPAI@Z 000382a8 f   TPS659xx_oal_gpio:tps659xx_gpio.obj
 0001:000272b8       ?Tps659xxGpioPostInit@@YAHPAX@Z 000382b8 f   TPS659xx_oal_gpio:tps659xx_gpio.obj
 0001:000272e0       ?Tps659xxGpioDeinit@@YAHPAX@Z 000382e0 f   TPS659xx_oal_gpio:tps659xx_gpio.obj
 0001:00027320       ?Tps659xxGpioSetMode@@YAHPAXII@Z 00038320 f   TPS659xx_oal_gpio:tps659xx_gpio.obj
 0001:00027488       ?Tps659xxGpioGetMode@@YAKPAXI@Z 00038488 f   TPS659xx_oal_gpio:tps659xx_gpio.obj
 0001:00027558       ?Tps659xxGpioPullup@@YAHPAXII@Z 00038558 f   TPS659xx_oal_gpio:tps659xx_gpio.obj
 0001:0002760c       ?Tps659xxGpioPulldown@@YAHPAXII@Z 0003860c f   TPS659xx_oal_gpio:tps659xx_gpio.obj
 0001:000276c0       ?Tps659xxGpioSetBit@@YAHPAXI@Z 000386c0 f   TPS659xx_oal_gpio:tps659xx_gpio.obj
 0001:00027718       ?Tps659xxGpioClrBit@@YAHPAXI@Z 00038718 f   TPS659xx_oal_gpio:tps659xx_gpio.obj
 0001:00027770       ?Tps659xxGpioGetBit@@YAKPAXI@Z 00038770 f   TPS659xx_oal_gpio:tps659xx_gpio.obj
 0001:000277cc       ?Tps659xxGpioIoControl@@YAHPAXIPAEI1IPAK@Z 000387cc f   TPS659xx_oal_gpio:tps659xx_gpio.obj
 0001:00027988       ?OmapGpioPostInit@@YAHPAX@Z 00038988 f   common_ti_oal_omap_gpio:omap35xx_gpio.obj
 0001:000279e0       ?OmapGpioDeinit@@YAHPAX@Z  000389e0 f   common_ti_oal_omap_gpio:omap35xx_gpio.obj
 0001:00027ab0       ?OmapGpioSetMode@@YAHPAXII@Z 00038ab0 f   common_ti_oal_omap_gpio:omap35xx_gpio.obj
 0001:00027bd8       ?OmapGpioGetMode@@YAKPAXI@Z 00038bd8 f   common_ti_oal_omap_gpio:omap35xx_gpio.obj
 0001:00027ccc       ?OmapGpioPullup@@YAHPAXII@Z 00038ccc f   common_ti_oal_omap_gpio:omap35xx_gpio.obj
 0001:00027cd4       ?OmapGpioPulldown@@YAHPAXII@Z 00038cd4 f   common_ti_oal_omap_gpio:omap35xx_gpio.obj
 0001:00027cdc       ?OmapGpioSetBit@@YAHPAXI@Z 00038cdc f   common_ti_oal_omap_gpio:omap35xx_gpio.obj
 0001:00027d94       ?OmapGpioClrBit@@YAHPAXI@Z 00038d94 f   common_ti_oal_omap_gpio:omap35xx_gpio.obj
 0001:00027e4c       ?OmapGpioGetBit@@YAKPAXI@Z 00038e4c f   common_ti_oal_omap_gpio:omap35xx_gpio.obj
 0001:00027ef8       ?OmapGpioIoControl@@YAHPAXIPAEI1IPAK@Z 00038ef8 f   common_ti_oal_omap_gpio:omap35xx_gpio.obj
 0001:00027f00       ?OmapGpioInit@@YAHPBGPAPAXPAI@Z 00038f00 f   common_ti_oal_omap_gpio:omap35xx_gpio.obj
 0001:00028058       GetGroupByID               00039058 f   common_ti_oal_gpiodispatch:gpio_dispatch.obj
