; Listing generated by Microsoft (R) Optimizing Compiler Version 14.01.60511.01 

	TTL	C:\WINCE600\PLATFORM\COMMON\SRC\SOC\COMMON_TI_V1\COMMON_TI\GPIO\TCA6416_GPIO\tca6416_gpio.cpp
	CODE32

  00000			 AREA	 |.drectve|, DRECTVE
	DCB	"-defaultlib:LIBCMT "
	DCB	"-defaultlib:OLDNAMES "

	EXPORT	|??_C@_1BC@GEJDDEKI@?$AAI?$AAn?$AAt?$AAr?$AAG?$AAp?$AAi?$AAo?$AA?$AA@| [ DATA ] ; `string'
	EXPORT	|??_C@_1CC@ONIGGELG@?$AAI?$AA2?$AAC?$AAB?$AAa?$AAu?$AAd?$AAr?$AAa?$AAt?$AAe?$AAI?$AAn?$AAd?$AAe?$AAx?$AA?$AA@| [ DATA ] ; `string'
	EXPORT	|??_C@_1BA@JKIOEOBD@?$AAI?$AA2?$AAC?$AAA?$AAd?$AAd?$AAr?$AA?$AA@| [ DATA ] ; `string'
	EXPORT	|??_C@_1O@FOJMMCB@?$AAI?$AA2?$AAC?$AAB?$AAu?$AAs?$AA?$AA@| [ DATA ] ; `string'
	EXPORT	|DEVICE_IFC_GPIO_GUID| [ DATA ]
	EXPORT	|dpCurSettings| [ DATA ]
	EXPORT	|Tca6416_Gpio| [ DATA ]

  00000			 AREA	 |.rdata|, DATA, READONLY
|??_C@_1BC@GEJDDEKI@?$AAI?$AAn?$AAt?$AAr?$AAG?$AAp?$AAi?$AAo?$AA?$AA@| DCB "I"
	DCB	0x0, "n", 0x0, "t", 0x0, "r", 0x0, "G", 0x0, "p", 0x0, "i"
	DCB	0x0, "o", 0x0, 0x0, 0x0			; `string'

  00000			 AREA	 |.rdata|, DATA, READONLY
|??_C@_1CC@ONIGGELG@?$AAI?$AA2?$AAC?$AAB?$AAa?$AAu?$AAd?$AAr?$AAa?$AAt?$AAe?$AAI?$AAn?$AAd?$AAe?$AAx?$AA?$AA@| DCB "I"
	DCB	0x0, "2", 0x0, "C", 0x0, "B", 0x0, "a", 0x0, "u", 0x0, "d"
	DCB	0x0, "r", 0x0, "a", 0x0, "t", 0x0, "e", 0x0, "I", 0x0, "n"
	DCB	0x0, "d", 0x0, "e", 0x0, "x", 0x0, 0x0, 0x0 ; `string'

  00000			 AREA	 |.rdata|, DATA, READONLY
|??_C@_1BA@JKIOEOBD@?$AAI?$AA2?$AAC?$AAA?$AAd?$AAd?$AAr?$AA?$AA@| DCB "I", 0x0
	DCB	"2", 0x0, "C", 0x0, "A", 0x0, "d", 0x0, "d", 0x0, "r", 0x0
	DCB	0x0, 0x0				; `string'

  00000			 AREA	 |.rdata|, DATA, READONLY
|??_C@_1O@FOJMMCB@?$AAI?$AA2?$AAC?$AAB?$AAu?$AAs?$AA?$AA@| DCB "I", 0x0, "2"
	DCB	0x0, "C", 0x0, "B", 0x0, "u", 0x0, "s", 0x0, 0x0, 0x0 ; `string'

  00000			 AREA	 |.data|, DATA
|dpCurSettings| DCB "T", 0x0, "C", 0x0, "A", 0x0, "6", 0x0, "4", 0x0, "1", 0x0
	DCB	"6", 0x0, " ", 0x0, "G", 0x0, "P", 0x0, "I", 0x0, "O", 0x0
	DCB	0x0, 0x0
	%	38
	DCB	"E", 0x0, "r", 0x0, "r", 0x0, "o", 0x0, "r", 0x0, "s", 0x0
	DCB	0x0, 0x0
	%	50
	DCB	"W", 0x0, "a", 0x0, "r", 0x0, "n", 0x0, "i", 0x0, "n", 0x0
	DCB	"g", 0x0, "s", 0x0, 0x0, 0x0
	%	46
	DCB	"F", 0x0, "u", 0x0, "n", 0x0, "c", 0x0, "t", 0x0, "i", 0x0
	DCB	"o", 0x0, "n", 0x0, 0x0, 0x0
	%	46
	DCB	"I", 0x0, "n", 0x0, "f", 0x0, "o", 0x0, 0x0, 0x0
	%	54
	DCB	"I", 0x0, "S", 0x0, "T", 0x0, 0x0, 0x0
	%	56
	DCB	"U", 0x0, "n", 0x0, "d", 0x0, "e", 0x0, "f", 0x0, "i", 0x0
	DCB	"n", 0x0, "e", 0x0, "d", 0x0, 0x0, 0x0
	%	44
	DCB	"U", 0x0, "n", 0x0, "d", 0x0, "e", 0x0, "f", 0x0, "i", 0x0
	DCB	"n", 0x0, "e", 0x0, "d", 0x0, 0x0, 0x0
	%	44
	DCB	"U", 0x0, "n", 0x0, "d", 0x0, "e", 0x0, "f", 0x0, "i", 0x0
	DCB	"n", 0x0, "e", 0x0, "d", 0x0, 0x0, 0x0
	%	44
	DCB	"U", 0x0, "n", 0x0, "d", 0x0, "e", 0x0, "f", 0x0, "i", 0x0
	DCB	"n", 0x0, "e", 0x0, "d", 0x0, 0x0, 0x0
	%	44
	DCB	"U", 0x0, "n", 0x0, "d", 0x0, "e", 0x0, "f", 0x0, "i", 0x0
	DCB	"n", 0x0, "e", 0x0, "d", 0x0, 0x0, 0x0
	%	44
	DCB	"U", 0x0, "n", 0x0, "d", 0x0, "e", 0x0, "f", 0x0, "i", 0x0
	DCB	"n", 0x0, "e", 0x0, "d", 0x0, 0x0, 0x0
	%	44
	DCB	"U", 0x0, "n", 0x0, "d", 0x0, "e", 0x0, "f", 0x0, "i", 0x0
	DCB	"n", 0x0, "e", 0x0, "d", 0x0, 0x0, 0x0
	%	44
	DCB	"U", 0x0, "n", 0x0, "d", 0x0, "e", 0x0, "f", 0x0, "i", 0x0
	DCB	"n", 0x0, "e", 0x0, "d", 0x0, 0x0, 0x0
	%	44
	DCB	"U", 0x0, "n", 0x0, "d", 0x0, "e", 0x0, "f", 0x0, "i", 0x0
	DCB	"n", 0x0, "e", 0x0, "d", 0x0, 0x0, 0x0
	%	44
	DCB	"U", 0x0, "n", 0x0, "d", 0x0, "e", 0x0, "f", 0x0, "i", 0x0
	DCB	"n", 0x0, "e", 0x0, "d", 0x0, 0x0, 0x0
	%	44
	DCB	"U", 0x0, "n", 0x0, "d", 0x0, "e", 0x0, "f", 0x0, "i", 0x0
	DCB	"n", 0x0, "e", 0x0, "d", 0x0, 0x0, 0x0
	%	44
	DCD	0x3
	%	4
|Tca6416_Gpio| DCD 0x0
	DCD	|?Tca6416GpioInit@@YAHPBGPAPAXPAI@Z|
	DCD	0x0
	DCD	|?Tca6416GpioDeinit@@YAHPAX@Z|
	DCD	|?Tca6416GpioSetBit@@YAHPAXI@Z|
	DCD	|?Tca6416GpioClrBit@@YAHPAXI@Z|
	DCD	|?Tca6416GpioGetBit@@YAKPAXI@Z|
	DCD	|?Tca6416GpioSetMode@@YAHPAXII@Z|
	DCD	|?Tca6416GpioGetMode@@YAKPAXI@Z|
	DCD	|?Tca6416GpioPullup@@YAHPAXII@Z|
	DCD	|?Tca6416GpioPulldown@@YAHPAXII@Z|
	DCD	|?Tca6416GpioIoControl@@YAHPAXIPAEI1IPAK@Z|
	DCD	0x0
	DCD	0x0
	DCD	0x0
	DCD	0x0
	%	8

  00000			 AREA	 |.rdata|, DATA, READONLY
|DEVICE_IFC_GPIO_GUID| DCD 0xa0272611
	DCW	0xdea0
	DCW	0x4678
	DCB	0xae
	DCB	0x62
	DCB	0x65
	DCB	0x61
	DCB	0x5b
	DCB	0x7d
	DCB	0x53
	DCB	0xaa
|g_deviceRegParams| DCD |??_C@_1O@FOJMMCB@?$AAI?$AA2?$AAC?$AAB?$AAu?$AAs?$AA?$AA@|
	DCD	0x1
	DCD	0x1
	DCD	0x0
	DCD	0x4
	DCD	0x0
	DCD	|??_C@_1BA@JKIOEOBD@?$AAI?$AA2?$AAC?$AAA?$AAd?$AAd?$AAr?$AA?$AA@|
	DCD	0x1
	DCD	0x1
	DCD	0x4
	DCD	0x4
	DCD	0x0
	DCD	|??_C@_1CC@ONIGGELG@?$AAI?$AA2?$AAC?$AAB?$AAa?$AAu?$AAd?$AAr?$AAa?$AAt?$AAe?$AAI?$AAn?$AAd?$AAe?$AAx?$AA?$AA@|
	DCD	0x1
	DCD	0x0
	DCD	0x8
	DCD	0x4
	DCD	0x0
	DCD	|??_C@_1BC@GEJDDEKI@?$AAI?$AAn?$AAt?$AAr?$AAG?$AAp?$AAi?$AAo?$AA?$AA@|
	DCD	0x1
	DCD	0x0
	DCD	0xc
	DCD	0x4
	DCD	0xffffffff
	EXPORT	|?SendExtraSCLCycle@@YAXPAX@Z|		; SendExtraSCLCycle
	IMPORT	|I2CDriveSCL|
	IMPORT	|I2CSetManualDriveMode|

  00000			 AREA	 |.pdata|, PDATA
|$T37502| DCD	|$LN5@SendExtraS|
	DCD	0x40001103
; Function compile flags: /Odtp
; File c:\wince600\platform\common\src\soc\common_ti_v1\common_ti\gpio\tca6416_gpio\tca6416_gpio.cpp

  00000			 AREA	 |.text|, CODE, ARM

  00000		 |?SendExtraSCLCycle@@YAXPAX@Z| PROC	; SendExtraSCLCycle

; 168  : {    

  00000		 |$LN5@SendExtraS|
  00000	e1a0c00d	 mov         r12, sp
  00004	e92d0001	 stmdb       sp!, {r0}
  00008	e92d5000	 stmdb       sp!, {r12, lr}
  0000c		 |$M37499|

; 169  :     I2CSetManualDriveMode(hI2C,TRUE);

  0000c	e3a01001	 mov         r1, #1
  00010	e59d0008	 ldr         r0, [sp, #8]
  00014	eb000000	 bl          I2CSetManualDriveMode

; 170  :     I2CDriveSCL(hI2C,FALSE);

  00018	e3a01000	 mov         r1, #0
  0001c	e59d0008	 ldr         r0, [sp, #8]
  00020	eb000000	 bl          I2CDriveSCL

; 171  :     I2CDriveSCL(hI2C,TRUE);

  00024	e3a01001	 mov         r1, #1
  00028	e59d0008	 ldr         r0, [sp, #8]
  0002c	eb000000	 bl          I2CDriveSCL

; 172  :     I2CSetManualDriveMode(hI2C,FALSE);    

  00030	e3a01000	 mov         r1, #0
  00034	e59d0008	 ldr         r0, [sp, #8]
  00038	eb000000	 bl          I2CSetManualDriveMode

; 173  : }

  0003c	e89d6000	 ldmia       sp, {sp, lr}
  00040	e12fff1e	 bx          lr
  00044		 |$M37500|

			 ENDP  ; |?SendExtraSCLCycle@@YAXPAX@Z|, SendExtraSCLCycle

	EXPORT	|?TCA6416I2CWrite@@YAIPAXIPBXI@Z|	; TCA6416I2CWrite
	IMPORT	|I2CWrite|

  00008			 AREA	 |.pdata|, PDATA
|$T37508| DCD	|$LN5@TCA6416I2C|
	DCD	0x40001404
; Function compile flags: /Odtp

  00044			 AREA	 |.text|, CODE, ARM

  00044		 |?TCA6416I2CWrite@@YAIPAXIPBXI@Z| PROC	; TCA6416I2CWrite

; 182  : {

  00044		 |$LN5@TCA6416I2C|
  00044	e1a0c00d	 mov         r12, sp
  00048	e92d000f	 stmdb       sp!, {r0 - r3}
  0004c	e92d5000	 stmdb       sp!, {r12, lr}
  00050	e24dd00c	 sub         sp, sp, #0xC
  00054		 |$M37505|

; 183  :     UINT result = I2CWrite(hCtx,subAddr,pBuffer,size);

  00054	e59d3020	 ldr         r3, [sp, #0x20]
  00058	e59d201c	 ldr         r2, [sp, #0x1C]
  0005c	e59d1018	 ldr         r1, [sp, #0x18]
  00060	e59d0014	 ldr         r0, [sp, #0x14]
  00064	eb000000	 bl          I2CWrite
  00068	e58d0008	 str         r0, [sp, #8]
  0006c	e59d3008	 ldr         r3, [sp, #8]
  00070	e58d3000	 str         r3, [sp]

; 184  :     SendExtraSCLCycle(hCtx);

  00074	e59d0014	 ldr         r0, [sp, #0x14]
  00078	eb000000	 bl          |?SendExtraSCLCycle@@YAXPAX@Z|

; 185  :     return result;

  0007c	e59d3000	 ldr         r3, [sp]
  00080	e58d3004	 str         r3, [sp, #4]

; 186  : }

  00084	e59d0004	 ldr         r0, [sp, #4]
  00088	e28dd00c	 add         sp, sp, #0xC
  0008c	e89d6000	 ldmia       sp, {sp, lr}
  00090	e12fff1e	 bx          lr
  00094		 |$M37506|

			 ENDP  ; |?TCA6416I2CWrite@@YAIPAXIPBXI@Z|, TCA6416I2CWrite

	EXPORT	|?TCA6416I2CRead@@YAIPAXI0I@Z|		; TCA6416I2CRead
	IMPORT	|I2CRead|

  00010			 AREA	 |.pdata|, PDATA
|$T37514| DCD	|$LN5@TCA6416I2C@2|
	DCD	0x40001404
; Function compile flags: /Odtp

  00094			 AREA	 |.text|, CODE, ARM

  00094		 |?TCA6416I2CRead@@YAIPAXI0I@Z| PROC	; TCA6416I2CRead

; 195  : {

  00094		 |$LN5@TCA6416I2C@2|
  00094	e1a0c00d	 mov         r12, sp
  00098	e92d000f	 stmdb       sp!, {r0 - r3}
  0009c	e92d5000	 stmdb       sp!, {r12, lr}
  000a0	e24dd00c	 sub         sp, sp, #0xC
  000a4		 |$M37511|

; 196  :     UINT result = I2CRead(hCtx,subAddr,pBuffer,size);

  000a4	e59d3020	 ldr         r3, [sp, #0x20]
  000a8	e59d201c	 ldr         r2, [sp, #0x1C]
  000ac	e59d1018	 ldr         r1, [sp, #0x18]
  000b0	e59d0014	 ldr         r0, [sp, #0x14]
  000b4	eb000000	 bl          I2CRead
  000b8	e58d0008	 str         r0, [sp, #8]
  000bc	e59d3008	 ldr         r3, [sp, #8]
  000c0	e58d3000	 str         r3, [sp]

; 197  :     SendExtraSCLCycle(hCtx);

  000c4	e59d0014	 ldr         r0, [sp, #0x14]
  000c8	eb000000	 bl          |?SendExtraSCLCycle@@YAXPAX@Z|

; 198  :     return result;

  000cc	e59d3000	 ldr         r3, [sp]
  000d0	e58d3004	 str         r3, [sp, #4]

; 199  : }

  000d4	e59d0004	 ldr         r0, [sp, #4]
  000d8	e28dd00c	 add         sp, sp, #0xC
  000dc	e89d6000	 ldmia       sp, {sp, lr}
  000e0	e12fff1e	 bx          lr
  000e4		 |$M37512|

			 ENDP  ; |?TCA6416I2CRead@@YAIPAXI0I@Z|, TCA6416I2CRead

	EXPORT	|SetEvent|
	EXPORT	|??_C@_1DC@FLIAPCBM@?$AAb?$AAa?$AAn?$AAk?$AA?5?$AA?$CF?$AAd?$AA?5?$AA?3?$AA?5?$AA0?$AA?$CF?$AAx?$AA?5?$AA0?$AA?$CF?$AAx?$AA?5?$AA0?$AAx?$AA?$CF?$AAx?$AA?$AN?$AA?6?$AA?$AA@| [ DATA ] ; `string'
	EXPORT	|?IST@@YAKPAX@Z|			; IST
	IMPORT	|GPIOInterruptDone|
	IMPORT	|LeaveCriticalSection|
	IMPORT	|GPIOInterruptMask|
	IMPORT	|NKDbgPrintfW|
	IMPORT	|EnterCriticalSection|
	IMPORT	|WaitForSingleObject|

  00018			 AREA	 |.pdata|, PDATA
|$T37524| DCD	|$LN24@IST|
	DCD	0x4000f004

  00000			 AREA	 |.rdata|, DATA, READONLY
|??_C@_1DC@FLIAPCBM@?$AAb?$AAa?$AAn?$AAk?$AA?5?$AA?$CF?$AAd?$AA?5?$AA?3?$AA?5?$AA0?$AA?$CF?$AAx?$AA?5?$AA0?$AA?$CF?$AAx?$AA?5?$AA0?$AAx?$AA?$CF?$AAx?$AA?$AN?$AA?6?$AA?$AA@| DCB "b"
	DCB	0x0, "a", 0x0, "n", 0x0, "k", 0x0, " ", 0x0, "%", 0x0, "d"
	DCB	0x0, " ", 0x0, ":", 0x0, " ", 0x0, "0", 0x0, "%", 0x0, "x"
	DCB	0x0, " ", 0x0, "0", 0x0, "%", 0x0, "x", 0x0, " ", 0x0, "0"
	DCB	0x0, "x", 0x0, "%", 0x0, "x", 0x0, 0xd, 0x0, 0xa, 0x0, 0x0
	DCB	0x0					; `string'
; Function compile flags: /Odtp

  000e4			 AREA	 |.text|, CODE, ARM

  000e4		 |?IST@@YAKPAX@Z| PROC			; IST

; 202  : {

  000e4		 |$LN24@IST|
  000e4	e1a0c00d	 mov         r12, sp
  000e8	e92d0001	 stmdb       sp!, {r0}
  000ec	e92d5000	 stmdb       sp!, {r12, lr}
  000f0	e24dd02c	 sub         sp, sp, #0x2C
  000f4		 |$M37521|

; 203  :     int i,j;
; 204  :     UCHAR currentpinstate[NB_BANK];
; 205  :     UCHAR oldpinstate[NB_BANK];
; 206  :     TCA6416_DEVICE *pDevice = (TCA6416_DEVICE *)lpParam;

  000f4	e59d3034	 ldr         r3, [sp, #0x34]
  000f8	e58d3004	 str         r3, [sp, #4]

; 207  :     for (i=0;i<NB_BANK;i++)

  000fc	e3a03000	 mov         r3, #0
  00100	e58d300c	 str         r3, [sp, #0xC]
  00104	ea000002	 b           |$LN16@IST|
  00108		 |$LN15@IST|
  00108	e59d300c	 ldr         r3, [sp, #0xC]
  0010c	e2833001	 add         r3, r3, #1
  00110	e58d300c	 str         r3, [sp, #0xC]
  00114		 |$LN16@IST|
  00114	e59d300c	 ldr         r3, [sp, #0xC]
  00118	e3530002	 cmp         r3, #2
  0011c	aa000009	 bge         |$LN14@IST|

; 208  :     {
; 209  :         TCA6416I2CRead(pDevice->hI2C,INPUT_PORT(i),&oldpinstate[i],sizeof(oldpinstate[i]));

  00120	e3a03001	 mov         r3, #1
  00124	e28d1010	 add         r1, sp, #0x10
  00128	e59d200c	 ldr         r2, [sp, #0xC]
  0012c	e0812002	 add         r2, r1, r2
  00130	e59d100c	 ldr         r1, [sp, #0xC]
  00134	e59d0004	 ldr         r0, [sp, #4]
  00138	e2800010	 add         r0, r0, #0x10
  0013c	e5900000	 ldr         r0, [r0]
  00140	eb000000	 bl          |?TCA6416I2CRead@@YAIPAXI0I@Z|

; 210  :     }

  00144	eaffffef	 b           |$LN15@IST|
  00148		 |$LN14@IST|
  00148		 |$LN21@IST|
  00148		 |$LN13@IST|

; 211  :     while (!pDevice->fTerminateThread)

  00148	e59d3004	 ldr         r3, [sp, #4]
  0014c	e2833024	 add         r3, r3, #0x24
  00150	e5933000	 ldr         r3, [r3]
  00154	e3530000	 cmp         r3, #0
  00158	1a0000c9	 bne         |$LN12@IST|

; 212  :     {
; 213  :         if (WaitForSingleObject(pDevice->hIntrEvent,IST_TIMEOUT) == WAIT_TIMEOUT)

  0015c	e3a01c13	 mov         r1, #0x13, 24
  00160	e3811088	 orr         r1, r1, #0x88
  00164	e59d3004	 ldr         r3, [sp, #4]
  00168	e283301c	 add         r3, r3, #0x1C
  0016c	e5930000	 ldr         r0, [r3]
  00170	eb000000	 bl          WaitForSingleObject
  00174	e58d0024	 str         r0, [sp, #0x24]
  00178	e59d2024	 ldr         r2, [sp, #0x24]
  0017c	e3a03c01	 mov         r3, #1, 24
  00180	e3833002	 orr         r3, r3, #2
  00184	e1520003	 cmp         r2, r3
  00188	1a000004	 bne         |$LN11@IST|

; 214  :         {
; 215  :             // we haven't detected any interrupt in the last xxx seconds
; 216  :             // Send a clock cycle on the I2C in case someboday made an I2C transfer that didn't 
; 217  :             // include this extra clock cycle. If don't do it, then the interrupt may never be triggerred again
; 218  :             SendExtraSCLCycle(pDevice->hI2C);

  0018c	e59d3004	 ldr         r3, [sp, #4]
  00190	e2833010	 add         r3, r3, #0x10
  00194	e5930000	 ldr         r0, [r3]
  00198	eb000000	 bl          |?SendExtraSCLCycle@@YAXPAX@Z|

; 219  :             continue;

  0019c	eaffffe9	 b           |$LN13@IST|
  001a0		 |$LN11@IST|

; 220  :         }
; 221  :         if (pDevice->fTerminateThread)

  001a0	e59d3004	 ldr         r3, [sp, #4]
  001a4	e2833024	 add         r3, r3, #0x24
  001a8	e5933000	 ldr         r3, [r3]
  001ac	e3530000	 cmp         r3, #0
  001b0	0a000000	 beq         |$LN10@IST|

; 222  :         {
; 223  :             break;

  001b4	ea0000b2	 b           |$LN12@IST|
  001b8		 |$LN10@IST|

; 224  :         }
; 225  :         
; 226  :         for (i=0;i<NB_BANK;i++)

  001b8	e3a03000	 mov         r3, #0
  001bc	e58d300c	 str         r3, [sp, #0xC]
  001c0	ea000002	 b           |$LN9@IST|
  001c4		 |$LN8@IST|
  001c4	e59d300c	 ldr         r3, [sp, #0xC]
  001c8	e2833001	 add         r3, r3, #1
  001cc	e58d300c	 str         r3, [sp, #0xC]
  001d0		 |$LN9@IST|
  001d0	e59d300c	 ldr         r3, [sp, #0xC]
  001d4	e3530002	 cmp         r3, #2
  001d8	aa00009e	 bge         |$LN7@IST|

; 227  :         {
; 228  :             UCHAR diff;
; 229  :             UCHAR bankstatus;
; 230  :             TCA6416I2CRead(pDevice->hI2C,INPUT_PORT(i),&currentpinstate[i],sizeof(currentpinstate[i]));

  001dc	e3a03001	 mov         r3, #1
  001e0	e28d1008	 add         r1, sp, #8
  001e4	e59d200c	 ldr         r2, [sp, #0xC]
  001e8	e0812002	 add         r2, r1, r2
  001ec	e59d100c	 ldr         r1, [sp, #0xC]
  001f0	e59d0004	 ldr         r0, [sp, #4]
  001f4	e2800010	 add         r0, r0, #0x10
  001f8	e5900000	 ldr         r0, [r0]
  001fc	eb000000	 bl          |?TCA6416I2CRead@@YAIPAXI0I@Z|

; 231  :             EnterCriticalSection(&pDevice->bankCs[i]);

  00200	e59d3004	 ldr         r3, [sp, #4]
  00204	e2831028	 add         r1, r3, #0x28
  00208	e59d200c	 ldr         r2, [sp, #0xC]
  0020c	e3a03014	 mov         r3, #0x14
  00210	e0030392	 mul         r3, r2, r3
  00214	e0810003	 add         r0, r1, r3
  00218	eb000000	 bl          EnterCriticalSection

; 232  :             diff = currentpinstate[i] ^ oldpinstate[i];     

  0021c	e28d2008	 add         r2, sp, #8
  00220	e59d300c	 ldr         r3, [sp, #0xC]
  00224	e0823003	 add         r3, r2, r3
  00228	e5d33000	 ldrb        r3, [r3]
  0022c	e1a01003	 mov         r1, r3
  00230	e28d2010	 add         r2, sp, #0x10
  00234	e59d300c	 ldr         r3, [sp, #0xC]
  00238	e0823003	 add         r3, r2, r3
  0023c	e5d33000	 ldrb        r3, [r3]
  00240	e0213003	 eor         r3, r1, r3
  00244	e20330ff	 and         r3, r3, #0xFF
  00248	e5cd3019	 strb        r3, [sp, #0x19]

; 233  :             DEBUGMSG(ZONE_IST,(TEXT("bank %d : 0%x 0%x 0x%x\r\n"),i,currentpinstate[i],oldpinstate[i],diff));

  0024c	e59f324c	 ldr         r3, [pc, #0x24C]
  00250	e5933440	 ldr         r3, [r3, #0x440]
  00254	e3130010	 tst         r3, #0x10
  00258	0a00000f	 beq         |$LN19@IST|
  0025c	e5dd3019	 ldrb        r3, [sp, #0x19]
  00260	e58d3000	 str         r3, [sp]
  00264	e28d2010	 add         r2, sp, #0x10
  00268	e59d300c	 ldr         r3, [sp, #0xC]
  0026c	e0823003	 add         r3, r2, r3
  00270	e5d33000	 ldrb        r3, [r3]
  00274	e28d1008	 add         r1, sp, #8
  00278	e59d200c	 ldr         r2, [sp, #0xC]
  0027c	e0812002	 add         r2, r1, r2
  00280	e5d22000	 ldrb        r2, [r2]
  00284	e59d100c	 ldr         r1, [sp, #0xC]
  00288	e59f020c	 ldr         r0, [pc, #0x20C]
  0028c	eb000000	 bl          NKDbgPrintfW
  00290	e3a03001	 mov         r3, #1
  00294	e58d3028	 str         r3, [sp, #0x28]
  00298	ea000001	 b           |$LN20@IST|
  0029c		 |$LN19@IST|
  0029c	e3a03000	 mov         r3, #0
  002a0	e58d3028	 str         r3, [sp, #0x28]
  002a4		 |$LN20@IST|

; 234  :             bankstatus = diff & pDevice->intMask[i];

  002a4	e5dd3019	 ldrb        r3, [sp, #0x19]
  002a8	e1a01003	 mov         r1, r3
  002ac	e59d3004	 ldr         r3, [sp, #4]
  002b0	e2832068	 add         r2, r3, #0x68
  002b4	e59d300c	 ldr         r3, [sp, #0xC]
  002b8	e0823003	 add         r3, r2, r3
  002bc	e5d33000	 ldrb        r3, [r3]
  002c0	e0013003	 and         r3, r1, r3
  002c4	e20330ff	 and         r3, r3, #0xFF
  002c8	e5cd3018	 strb        r3, [sp, #0x18]

; 235  :             for (j=0;j<NB_PIN_PER_BANK;j++)

  002cc	e3a03000	 mov         r3, #0
  002d0	e58d3014	 str         r3, [sp, #0x14]
  002d4	ea000002	 b           |$LN6@IST|
  002d8		 |$LN5@IST|
  002d8	e59d3014	 ldr         r3, [sp, #0x14]
  002dc	e2833001	 add         r3, r3, #1
  002e0	e58d3014	 str         r3, [sp, #0x14]
  002e4		 |$LN6@IST|
  002e4	e59d3014	 ldr         r3, [sp, #0x14]
  002e8	e3530008	 cmp         r3, #8
  002ec	aa000049	 bge         |$LN4@IST|

; 236  :             {
; 237  :                 
; 238  :                 if (bankstatus & (1<<j))

  002f0	e5dd3018	 ldrb        r3, [sp, #0x18]
  002f4	e1a01003	 mov         r1, r3
  002f8	e59d2014	 ldr         r2, [sp, #0x14]
  002fc	e3a03001	 mov         r3, #1
  00300	e1a03213	 mov         r3, r3, lsl r2
  00304	e1110003	 tst         r1, r3
  00308	0a000041	 beq         |$LN3@IST|

; 239  :                 {
; 240  :                     pDevice->intMask[i] &= (UCHAR) ~(1<<j);

  0030c	e59d3004	 ldr         r3, [sp, #4]
  00310	e2832068	 add         r2, r3, #0x68
  00314	e59d300c	 ldr         r3, [sp, #0xC]
  00318	e0821003	 add         r1, r2, r3
  0031c	e59d2014	 ldr         r2, [sp, #0x14]
  00320	e3a03001	 mov         r3, #1
  00324	e1a03213	 mov         r3, r3, lsl r2
  00328	e1e03003	 mvn         r3, r3
  0032c	e20330ff	 and         r3, r3, #0xFF
  00330	e1a02003	 mov         r2, r3
  00334	e5d13000	 ldrb        r3, [r1]
  00338	e0031002	 and         r1, r3, r2
  0033c	e59d3004	 ldr         r3, [sp, #4]
  00340	e2832068	 add         r2, r3, #0x68
  00344	e59d300c	 ldr         r3, [sp, #0xC]
  00348	e0822003	 add         r2, r2, r3
  0034c	e20130ff	 and         r3, r1, #0xFF
  00350	e5c23000	 strb        r3, [r2]

; 241  :                     pDevice->enabledIntCount--;

  00354	e59d3004	 ldr         r3, [sp, #4]
  00358	e28330ac	 add         r3, r3, #0xAC
  0035c	e5933000	 ldr         r3, [r3]
  00360	e2432001	 sub         r2, r3, #1
  00364	e59d3004	 ldr         r3, [sp, #4]
  00368	e28330ac	 add         r3, r3, #0xAC
  0036c	e5832000	 str         r2, [r3]

; 242  :                     if (pDevice->enabledIntCount == 0)

  00370	e59d3004	 ldr         r3, [sp, #4]
  00374	e28330ac	 add         r3, r3, #0xAC
  00378	e5933000	 ldr         r3, [r3]
  0037c	e3530000	 cmp         r3, #0
  00380	1a00000a	 bne         |$LN2@IST|

; 243  :                     {
; 244  :                         GPIOInterruptMask(pDevice->hGpio, pDevice->IntrGpio,pDevice->dwSysintr,TRUE);

  00384	e3a03001	 mov         r3, #1
  00388	e59d2004	 ldr         r2, [sp, #4]
  0038c	e2822018	 add         r2, r2, #0x18
  00390	e5922000	 ldr         r2, [r2]
  00394	e59d1004	 ldr         r1, [sp, #4]
  00398	e281100c	 add         r1, r1, #0xC
  0039c	e5911000	 ldr         r1, [r1]
  003a0	e59d0004	 ldr         r0, [sp, #4]
  003a4	e2800014	 add         r0, r0, #0x14
  003a8	e5900000	 ldr         r0, [r0]
  003ac	eb000000	 bl          GPIOInterruptMask
  003b0		 |$LN2@IST|

; 245  :                     }
; 246  :                     if (pDevice->hPinEvent[i][j])

  003b0	e59d3004	 ldr         r3, [sp, #4]
  003b4	e283106c	 add         r1, r3, #0x6C
  003b8	e59d200c	 ldr         r2, [sp, #0xC]
  003bc	e3a03020	 mov         r3, #0x20
  003c0	e0030392	 mul         r3, r2, r3
  003c4	e0811003	 add         r1, r1, r3
  003c8	e59d2014	 ldr         r2, [sp, #0x14]
  003cc	e3a03004	 mov         r3, #4
  003d0	e0030392	 mul         r3, r2, r3
  003d4	e0813003	 add         r3, r1, r3
  003d8	e5933000	 ldr         r3, [r3]
  003dc	e3530000	 cmp         r3, #0
  003e0	0a00000b	 beq         |$LN1@IST|

; 247  :                     {
; 248  :                         SetEvent(pDevice->hPinEvent[i][j]);

  003e4	e59d3004	 ldr         r3, [sp, #4]
  003e8	e283106c	 add         r1, r3, #0x6C
  003ec	e59d200c	 ldr         r2, [sp, #0xC]
  003f0	e3a03020	 mov         r3, #0x20
  003f4	e0030392	 mul         r3, r2, r3
  003f8	e0811003	 add         r1, r1, r3
  003fc	e59d2014	 ldr         r2, [sp, #0x14]
  00400	e3a03004	 mov         r3, #4
  00404	e0030392	 mul         r3, r2, r3
  00408	e0813003	 add         r3, r1, r3
  0040c	e5930000	 ldr         r0, [r3]
  00410	eb000000	 bl          SetEvent
  00414		 |$LN1@IST|
  00414		 |$LN3@IST|

; 249  :                     }
; 250  :                 }
; 251  :             }

  00414	eaffffaf	 b           |$LN5@IST|
  00418		 |$LN4@IST|

; 252  :             oldpinstate[i] = currentpinstate[i];

  00418	e28d2008	 add         r2, sp, #8
  0041c	e59d300c	 ldr         r3, [sp, #0xC]
  00420	e0821003	 add         r1, r2, r3
  00424	e28d2010	 add         r2, sp, #0x10
  00428	e59d300c	 ldr         r3, [sp, #0xC]
  0042c	e0822003	 add         r2, r2, r3
  00430	e5d13000	 ldrb        r3, [r1]
  00434	e5c23000	 strb        r3, [r2]

; 253  :             LeaveCriticalSection(&pDevice->bankCs[i]);

  00438	e59d3004	 ldr         r3, [sp, #4]
  0043c	e2831028	 add         r1, r3, #0x28
  00440	e59d200c	 ldr         r2, [sp, #0xC]
  00444	e3a03014	 mov         r3, #0x14
  00448	e0030392	 mul         r3, r2, r3
  0044c	e0810003	 add         r0, r1, r3
  00450	eb000000	 bl          LeaveCriticalSection

; 254  :         }

  00454	eaffff5a	 b           |$LN8@IST|
  00458		 |$LN7@IST|

; 255  :         GPIOInterruptDone(pDevice->hGpio, pDevice->IntrGpio, pDevice->dwSysintr);     

  00458	e59d3004	 ldr         r3, [sp, #4]
  0045c	e2833018	 add         r3, r3, #0x18
  00460	e5932000	 ldr         r2, [r3]
  00464	e59d3004	 ldr         r3, [sp, #4]
  00468	e283300c	 add         r3, r3, #0xC
  0046c	e5931000	 ldr         r1, [r3]
  00470	e59d3004	 ldr         r3, [sp, #4]
  00474	e2833014	 add         r3, r3, #0x14
  00478	e5930000	 ldr         r0, [r3]
  0047c	eb000000	 bl          GPIOInterruptDone

; 256  : 
; 257  :     }

  00480	eaffff30	 b           |$LN21@IST|
  00484		 |$LN12@IST|

; 258  :     
; 259  :     return 0;

  00484	e3a03000	 mov         r3, #0
  00488	e58d3020	 str         r3, [sp, #0x20]

; 260  : }

  0048c	e59d0020	 ldr         r0, [sp, #0x20]
  00490	e28dd02c	 add         sp, sp, #0x2C
  00494	e89d6000	 ldmia       sp, {sp, lr}
  00498	e12fff1e	 bx          lr
  0049c		 |$LN25@IST|
  0049c		 |$LN26@IST|
  0049c	00000000	 DCD         |??_C@_1DC@FLIAPCBM@?$AAb?$AAa?$AAn?$AAk?$AA?5?$AA?$CF?$AAd?$AA?5?$AA?3?$AA?5?$AA0?$AA?$CF?$AAx?$AA?5?$AA0?$AA?$CF?$AAx?$AA?5?$AA0?$AAx?$AA?$CF?$AAx?$AA?$AN?$AA?6?$AA?$AA@|
  004a0		 |$LN27@IST|
  004a0	00000000	 DCD         |dpCurSettings|
  004a4		 |$M37522|

			 ENDP  ; |?IST@@YAKPAX@Z|, IST

	IMPORT	|EventModify|
; File c:\wince600\public\common\sdk\inc\kfuncs.h

  00000			 AREA	 |.pdata|, PDATA
|$T37533| DCD	|$LN5@SetEvent|
	DCD	0x40000e04
; Function compile flags: /Odtp

  00000			 AREA	 |.text|, CODE, ARM

  00000		 |SetEvent| PROC

; 235  : _inline BOOL SetEvent(HANDLE h) {

  00000		 |$LN5@SetEvent|
  00000	e1a0c00d	 mov         r12, sp
  00004	e92d0001	 stmdb       sp!, {r0}
  00008	e92d5000	 stmdb       sp!, {r12, lr}
  0000c	e24dd008	 sub         sp, sp, #8
  00010		 |$M37530|

; 236  : 	return EventModify(h,EVENT_SET);

  00010	e3a01003	 mov         r1, #3
  00014	e59d0010	 ldr         r0, [sp, #0x10]
  00018	eb000000	 bl          EventModify
  0001c	e58d0004	 str         r0, [sp, #4]
  00020	e59d3004	 ldr         r3, [sp, #4]
  00024	e58d3000	 str         r3, [sp]

; 237  : }

  00028	e59d0000	 ldr         r0, [sp]
  0002c	e28dd008	 add         sp, sp, #8
  00030	e89d6000	 ldmia       sp, {sp, lr}
  00034	e12fff1e	 bx          lr
  00038		 |$M37531|

			 ENDP  ; |SetEvent|

	EXPORT	|??_C@_1CK@JBAOOBGL@?$AA?9?$AAT?$AAc?$AAa?$AA6?$AA4?$AA1?$AA6?$AAG?$AAp?$AAi?$AAo?$AAI?$AAn?$AAi?$AAt?$AA?$CI?$AA?$CJ?$AA?$AN?$AA?6?$AA?$AA@| [ DATA ] ; `string'
	EXPORT	|??_C@_1HM@DMNAJLCI@?$AAE?$AAR?$AAR?$AAO?$AAR?$AA?3?$AA?5?$AAT?$AAc?$AAa?$AA6?$AA4?$AA1?$AA6?$AAG?$AAp?$AAi?$AAo?$AAI?$AAn?$AAi?$AAt?$AA?3?$AA?5?$AAF?$AAa?$AAi?$AAl?$AAe?$AAd?$AA?5?$AAr@| [ DATA ] ; `string'
	EXPORT	|??_C@_1IA@OFEJNMHJ@?$AAE?$AAR?$AAR?$AAO?$AAR?$AA?3?$AA?5?$AAT?$AAc?$AAa?$AA6?$AA4?$AA1?$AA6?$AAG?$AAp?$AAi?$AAo?$AAI?$AAn?$AAi?$AAt?$AA?3?$AA?5?$AAF?$AAa?$AAi?$AAl?$AAe?$AAd?$AA?5?$AAa@| [ DATA ] ; `string'
	EXPORT	|??_C@_1CO@MPBIHFEH@?$AA?$CL?$AAT?$AAc?$AAa?$AA6?$AA4?$AA1?$AA6?$AAG?$AAp?$AAi?$AAo?$AAI?$AAn?$AAi?$AAt?$AA?$CI?$AA?$CF?$AAs?$AA?$CJ?$AA?$AN?$AA?6?$AA?$AA@| [ DATA ] ; `string'
	IMPORT	|InitializeCriticalSection|
	IMPORT	|I2CSetSubAddressMode|
	IMPORT	|I2CSetSlaveAddress|
	IMPORT	|I2CSetBaudIndex|
	IMPORT	|I2COpen|
	IMPORT	|SOCGetI2CDeviceByBus|
	IMPORT	|GetDeviceRegistryParams|
	IMPORT	|memset|
	IMPORT	|LocalAlloc|

  00020			 AREA	 |.pdata|, PDATA
|$T37549| DCD	|$LN28@Tca6416Gpi|
	DCD	0x4000bc04
; File c:\wince600\platform\common\src\soc\common_ti_v1\common_ti\gpio\tca6416_gpio\tca6416_gpio.cpp

  00000			 AREA	 |.rdata|, DATA, READONLY
|??_C@_1CK@JBAOOBGL@?$AA?9?$AAT?$AAc?$AAa?$AA6?$AA4?$AA1?$AA6?$AAG?$AAp?$AAi?$AAo?$AAI?$AAn?$AAi?$AAt?$AA?$CI?$AA?$CJ?$AA?$AN?$AA?6?$AA?$AA@| DCB "-"
	DCB	0x0, "T", 0x0, "c", 0x0, "a", 0x0, "6", 0x0, "4", 0x0, "1"
	DCB	0x0, "6", 0x0, "G", 0x0, "p", 0x0, "i", 0x0, "o", 0x0, "I"
	DCB	0x0, "n", 0x0, "i", 0x0, "t", 0x0, "(", 0x0, ")", 0x0, 0xd
	DCB	0x0, 0xa, 0x0, 0x0, 0x0			; `string'

  00000			 AREA	 |.rdata|, DATA, READONLY
|??_C@_1HM@DMNAJLCI@?$AAE?$AAR?$AAR?$AAO?$AAR?$AA?3?$AA?5?$AAT?$AAc?$AAa?$AA6?$AA4?$AA1?$AA6?$AAG?$AAp?$AAi?$AAo?$AAI?$AAn?$AAi?$AAt?$AA?3?$AA?5?$AAF?$AAa?$AAi?$AAl?$AAe?$AAd?$AA?5?$AAr@| DCB "E"
	DCB	0x0, "R", 0x0, "R", 0x0, "O", 0x0, "R", 0x0, ":", 0x0, " "
	DCB	0x0, "T", 0x0, "c", 0x0, "a", 0x0, "6", 0x0, "4", 0x0, "1"
	DCB	0x0, "6", 0x0, "G", 0x0, "p", 0x0, "i", 0x0, "o", 0x0, "I"
	DCB	0x0, "n", 0x0, "i", 0x0, "t", 0x0, ":", 0x0, " ", 0x0, "F"
	DCB	0x0, "a", 0x0, "i", 0x0, "l", 0x0, "e", 0x0, "d", 0x0, " "
	DCB	0x0, "r", 0x0, "e", 0x0, "a", 0x0, "d", 0x0, " ", 0x0, "F"
	DCB	0x0, "M", 0x0, "D", 0x0, " ", 0x0, "r", 0x0, "e", 0x0, "g"
	DCB	0x0, "i", 0x0, "s", 0x0, "t", 0x0, "r", 0x0, "y", 0x0, " "
	DCB	0x0, "p", 0x0, "a", 0x0, "r", 0x0, "a", 0x0, "m", 0x0, "e"
	DCB	0x0, "t", 0x0, "e", 0x0, "r", 0x0, "s", 0x0, 0xd, 0x0, 0xa
	DCB	0x0, 0x0, 0x0				; `string'

  00000			 AREA	 |.rdata|, DATA, READONLY
|??_C@_1IA@OFEJNMHJ@?$AAE?$AAR?$AAR?$AAO?$AAR?$AA?3?$AA?5?$AAT?$AAc?$AAa?$AA6?$AA4?$AA1?$AA6?$AAG?$AAp?$AAi?$AAo?$AAI?$AAn?$AAi?$AAt?$AA?3?$AA?5?$AAF?$AAa?$AAi?$AAl?$AAe?$AAd?$AA?5?$AAa@| DCB "E"
	DCB	0x0, "R", 0x0, "R", 0x0, "O", 0x0, "R", 0x0, ":", 0x0, " "
	DCB	0x0, "T", 0x0, "c", 0x0, "a", 0x0, "6", 0x0, "4", 0x0, "1"
	DCB	0x0, "6", 0x0, "G", 0x0, "p", 0x0, "i", 0x0, "o", 0x0, "I"
	DCB	0x0, "n", 0x0, "i", 0x0, "t", 0x0, ":", 0x0, " ", 0x0, "F"
	DCB	0x0, "a", 0x0, "i", 0x0, "l", 0x0, "e", 0x0, "d", 0x0, " "
	DCB	0x0, "a", 0x0, "l", 0x0, "l", 0x0, "o", 0x0, "c", 0x0, "a"
	DCB	0x0, "t", 0x0, "e", 0x0, " ", 0x0, "G", 0x0, "P", 0x0, "I"
	DCB	0x0, "O", 0x0, " ", 0x0, "d", 0x0, "r", 0x0, "i", 0x0, "v"
	DCB	0x0, "e", 0x0, "r", 0x0, " ", 0x0, "s", 0x0, "t", 0x0, "r"
	DCB	0x0, "u", 0x0, "c", 0x0, "t", 0x0, "u", 0x0, "r", 0x0, "e"
	DCB	0x0, 0xd, 0x0, 0xa, 0x0, 0x0, 0x0	; `string'

  00000			 AREA	 |.rdata|, DATA, READONLY
|??_C@_1CO@MPBIHFEH@?$AA?$CL?$AAT?$AAc?$AAa?$AA6?$AA4?$AA1?$AA6?$AAG?$AAp?$AAi?$AAo?$AAI?$AAn?$AAi?$AAt?$AA?$CI?$AA?$CF?$AAs?$AA?$CJ?$AA?$AN?$AA?6?$AA?$AA@| DCB "+"
	DCB	0x0, "T", 0x0, "c", 0x0, "a", 0x0, "6", 0x0, "4", 0x0, "1"
	DCB	0x0, "6", 0x0, "G", 0x0, "p", 0x0, "i", 0x0, "o", 0x0, "I"
	DCB	0x0, "n", 0x0, "i", 0x0, "t", 0x0, "(", 0x0, "%", 0x0, "s"
	DCB	0x0, ")", 0x0, 0xd, 0x0, 0xa, 0x0, 0x0, 0x0 ; `string'
; Function compile flags: /Odtp

  004a4			 AREA	 |.text|, CODE, ARM

  004a4		 |?Tca6416GpioInit@@YAHPBGPAPAXPAI@Z| PROC ; Tca6416GpioInit

; 273  : {

  004a4		 |$LN28@Tca6416Gpi|
  004a4	e1a0c00d	 mov         r12, sp
  004a8	e92d0007	 stmdb       sp!, {r0 - r2}
  004ac	e92d5000	 stmdb       sp!, {r12, lr}
  004b0	e24dd038	 sub         sp, sp, #0x38
  004b4		 |$M37546|

; 274  :     BOOL rc = FALSE;  

  004b4	e3a03000	 mov         r3, #0
  004b8	e58d3004	 str         r3, [sp, #4]

; 275  :     UCHAR dummy;
; 276  :     TCA6416_DEVICE *pDevice = NULL;

  004bc	e3a03000	 mov         r3, #0
  004c0	e58d3000	 str         r3, [sp]

; 277  : 
; 278  : 
; 279  :     DEBUGMSG(ZONE_FUNCTION, (
; 280  :         L"+Tca6416GpioInit(%s)\r\n", szContext
; 281  :         ));

  004c4	e59f32b4	 ldr         r3, [pc, #0x2B4]
  004c8	e5933440	 ldr         r3, [r3, #0x440]
  004cc	e3130004	 tst         r3, #4
  004d0	0a000005	 beq         |$LN18@Tca6416Gpi|
  004d4	e59d1040	 ldr         r1, [sp, #0x40]
  004d8	e59f02b0	 ldr         r0, [pc, #0x2B0]
  004dc	eb000000	 bl          NKDbgPrintfW
  004e0	e3a03001	 mov         r3, #1
  004e4	e58d3014	 str         r3, [sp, #0x14]
  004e8	ea000001	 b           |$LN19@Tca6416Gpi|
  004ec		 |$LN18@Tca6416Gpi|
  004ec	e3a03000	 mov         r3, #0
  004f0	e58d3014	 str         r3, [sp, #0x14]
  004f4		 |$LN19@Tca6416Gpi|

; 282  : 
; 283  :     if (phContext == NULL)

  004f4	e59d3044	 ldr         r3, [sp, #0x44]
  004f8	e3530000	 cmp         r3, #0
  004fc	1a000001	 bne         |$LN15@Tca6416Gpi|
  00500	ea000087	 b           |$LN14@Tca6416Gpi|

; 284  :     {
; 285  :         goto cleanUp;

  00504	ea000086	 b           |$cleanUp$37041|
  00508		 |$LN15@Tca6416Gpi|

; 286  :     }
; 287  :     // Create device structure
; 288  :     pDevice = (TCA6416_DEVICE *)LocalAlloc(LPTR, sizeof(TCA6416_DEVICE));

  00508	e3a010b0	 mov         r1, #0xB0
  0050c	e3a00040	 mov         r0, #0x40
  00510	eb000000	 bl          LocalAlloc
  00514	e58d0018	 str         r0, [sp, #0x18]
  00518	e59d3018	 ldr         r3, [sp, #0x18]
  0051c	e58d3000	 str         r3, [sp]

; 289  :     if (pDevice == NULL)

  00520	e59d3000	 ldr         r3, [sp]
  00524	e3530000	 cmp         r3, #0
  00528	1a00000c	 bne         |$LN13@Tca6416Gpi|

; 290  :     {
; 291  :         DEBUGMSG(ZONE_ERROR, (L"ERROR: Tca6416GpioInit: "
; 292  :             L"Failed allocate GPIO driver structure\r\n"
; 293  :             ));

  0052c	e59f324c	 ldr         r3, [pc, #0x24C]
  00530	e5933440	 ldr         r3, [r3, #0x440]
  00534	e3130001	 tst         r3, #1
  00538	0a000004	 beq         |$LN20@Tca6416Gpi|
  0053c	e59f0248	 ldr         r0, [pc, #0x248]
  00540	eb000000	 bl          NKDbgPrintfW
  00544	e3a03001	 mov         r3, #1
  00548	e58d301c	 str         r3, [sp, #0x1C]
  0054c	ea000001	 b           |$LN21@Tca6416Gpi|
  00550		 |$LN20@Tca6416Gpi|
  00550	e3a03000	 mov         r3, #0
  00554	e58d301c	 str         r3, [sp, #0x1C]
  00558		 |$LN21@Tca6416Gpi|

; 294  :         goto cleanUp;

  00558	ea000071	 b           |$LN12@Tca6416Gpi|
  0055c	ea000070	 b           |$cleanUp$37041|
  00560		 |$LN13@Tca6416Gpi|

; 295  :     }
; 296  :     memset(pDevice, 0, sizeof(TCA6416_DEVICE));

  00560	e3a020b0	 mov         r2, #0xB0
  00564	e3a01000	 mov         r1, #0
  00568	e59d0000	 ldr         r0, [sp]
  0056c	eb000000	 bl          memset

; 297  :     pDevice->dwSysintr = (DWORD) SYSINTR_UNDEFINED;

  00570	e59d3000	 ldr         r3, [sp]
  00574	e2832018	 add         r2, r3, #0x18
  00578	e3e03000	 mvn         r3, #0
  0057c	e5823000	 str         r3, [r2]

; 298  :     *phContext = pDevice;

  00580	e59d2000	 ldr         r2, [sp]
  00584	e59d3044	 ldr         r3, [sp, #0x44]
  00588	e5832000	 str         r2, [r3]

; 299  :     if (pGpioCount)

  0058c	e59d3048	 ldr         r3, [sp, #0x48]
  00590	e3530000	 cmp         r3, #0
  00594	0a000002	 beq         |$LN11@Tca6416Gpi|

; 300  :     {
; 301  :         *pGpioCount = NB_BANK * NB_PIN_PER_BANK;

  00598	e59d2048	 ldr         r2, [sp, #0x48]
  0059c	e3a03010	 mov         r3, #0x10
  005a0	e5823000	 str         r3, [r2]
  005a4		 |$LN11@Tca6416Gpi|

; 302  :     }
; 303  : 
; 304  :    // Read device parameters
; 305  :     if (GetDeviceRegistryParams(
; 306  :         szContext, pDevice, dimof(g_deviceRegParams), g_deviceRegParams
; 307  :         ) != ERROR_SUCCESS)

  005a4	e59f31dc	 ldr         r3, [pc, #0x1DC]
  005a8	e3a02004	 mov         r2, #4
  005ac	e59d1000	 ldr         r1, [sp]
  005b0	e59d0040	 ldr         r0, [sp, #0x40]
  005b4	eb000000	 bl          GetDeviceRegistryParams
  005b8	e58d0020	 str         r0, [sp, #0x20]
  005bc	e59d3020	 ldr         r3, [sp, #0x20]
  005c0	e3530000	 cmp         r3, #0
  005c4	0a00000c	 beq         |$LN10@Tca6416Gpi|

; 308  :     {
; 309  :         DEBUGMSG(ZONE_ERROR, (L"ERROR: Tca6416GpioInit: "
; 310  :             L"Failed read FMD registry parameters\r\n"
; 311  :             ));

  005c8	e59f31b0	 ldr         r3, [pc, #0x1B0]
  005cc	e5933440	 ldr         r3, [r3, #0x440]
  005d0	e3130001	 tst         r3, #1
  005d4	0a000004	 beq         |$LN22@Tca6416Gpi|
  005d8	e59f01a4	 ldr         r0, [pc, #0x1A4]
  005dc	eb000000	 bl          NKDbgPrintfW
  005e0	e3a03001	 mov         r3, #1
  005e4	e58d3024	 str         r3, [sp, #0x24]
  005e8	ea000001	 b           |$LN23@Tca6416Gpi|
  005ec		 |$LN22@Tca6416Gpi|
  005ec	e3a03000	 mov         r3, #0
  005f0	e58d3024	 str         r3, [sp, #0x24]
  005f4		 |$LN23@Tca6416Gpi|

; 312  :         goto cleanUp;

  005f4	ea00004a	 b           |$LN9@Tca6416Gpi|
  005f8	ea000049	 b           |$cleanUp$37041|
  005fc		 |$LN10@Tca6416Gpi|

; 313  :     }
; 314  :     pDevice->hI2C = I2COpen(SOCGetI2CDeviceByBus(pDevice->I2CBusIndex));

  005fc	e59d3000	 ldr         r3, [sp]
  00600	e5930000	 ldr         r0, [r3]
  00604	eb000000	 bl          SOCGetI2CDeviceByBus
  00608	e58d0028	 str         r0, [sp, #0x28]
  0060c	e59d0028	 ldr         r0, [sp, #0x28]
  00610	eb000000	 bl          I2COpen
  00614	e58d002c	 str         r0, [sp, #0x2C]
  00618	e59d3000	 ldr         r3, [sp]
  0061c	e2832010	 add         r2, r3, #0x10
  00620	e59d302c	 ldr         r3, [sp, #0x2C]
  00624	e5823000	 str         r3, [r2]

; 315  :     if (pDevice->hI2C == NULL)

  00628	e59d3000	 ldr         r3, [sp]
  0062c	e2833010	 add         r3, r3, #0x10
  00630	e5933000	 ldr         r3, [r3]
  00634	e3530000	 cmp         r3, #0
  00638	1a000001	 bne         |$LN8@Tca6416Gpi|
  0063c	ea000038	 b           |$LN7@Tca6416Gpi|

; 316  :     {
; 317  :         goto cleanUp;

  00640	ea000037	 b           |$cleanUp$37041|
  00644		 |$LN8@Tca6416Gpi|

; 318  :     }
; 319  :     I2CSetBaudIndex(pDevice->hI2C,pDevice->I2CBaudrateIndex);

  00644	e59d3000	 ldr         r3, [sp]
  00648	e2833008	 add         r3, r3, #8
  0064c	e5931000	 ldr         r1, [r3]
  00650	e59d3000	 ldr         r3, [sp]
  00654	e2833010	 add         r3, r3, #0x10
  00658	e5930000	 ldr         r0, [r3]
  0065c	eb000000	 bl          I2CSetBaudIndex

; 320  :     I2CSetSlaveAddress(pDevice->hI2C, (UINT16)pDevice->I2CAddr);

  00660	e59d3000	 ldr         r3, [sp]
  00664	e2833004	 add         r3, r3, #4
  00668	e5933000	 ldr         r3, [r3]
  0066c	e1a01803	 mov         r1, r3, lsl #16
  00670	e1a01821	 mov         r1, r1, lsr #16
  00674	e59d3000	 ldr         r3, [sp]
  00678	e2833010	 add         r3, r3, #0x10
  0067c	e5930000	 ldr         r0, [r3]
  00680	eb000000	 bl          I2CSetSlaveAddress

; 321  : 	I2CSetSubAddressMode(pDevice->hI2C, I2C_SUBADDRESS_MODE_8);

  00684	e3a01001	 mov         r1, #1
  00688	e59d3000	 ldr         r3, [sp]
  0068c	e2833010	 add         r3, r3, #0x10
  00690	e5930000	 ldr         r0, [r3]
  00694	eb000000	 bl          I2CSetSubAddressMode

; 322  : 
; 323  :     for (int i=0;i<NB_BANK;i++)

  00698	e3a03000	 mov         r3, #0
  0069c	e58d300c	 str         r3, [sp, #0xC]
  006a0	ea000002	 b           |$LN6@Tca6416Gpi|
  006a4		 |$LN5@Tca6416Gpi|
  006a4	e59d300c	 ldr         r3, [sp, #0xC]
  006a8	e2833001	 add         r3, r3, #1
  006ac	e58d300c	 str         r3, [sp, #0xC]
  006b0		 |$LN6@Tca6416Gpi|
  006b0	e59d300c	 ldr         r3, [sp, #0xC]
  006b4	e3530002	 cmp         r3, #2
  006b8	aa000007	 bge         |$LN4@Tca6416Gpi|

; 324  :     {
; 325  :         InitializeCriticalSection(&pDevice->bankCs[i]);

  006bc	e59d3000	 ldr         r3, [sp]
  006c0	e2831028	 add         r1, r3, #0x28
  006c4	e59d200c	 ldr         r2, [sp, #0xC]
  006c8	e3a03014	 mov         r3, #0x14
  006cc	e0030392	 mul         r3, r2, r3
  006d0	e0810003	 add         r0, r1, r3
  006d4	eb000000	 bl          InitializeCriticalSection

; 326  :     }

  006d8	eafffff1	 b           |$LN5@Tca6416Gpi|
  006dc		 |$LN4@Tca6416Gpi|

; 327  :     InitializeCriticalSection(&pDevice->wakeupStateCs);    

  006dc	e59d3000	 ldr         r3, [sp]
  006e0	e2830050	 add         r0, r3, #0x50
  006e4	eb000000	 bl          InitializeCriticalSection

; 328  : 
; 329  :     // Do a dummy read to chek if the expander is present on the bus.
; 330  :     if (TCA6416I2CRead(pDevice->hI2C,CONFIG_PORT_0,&dummy,sizeof(dummy)) != sizeof(dummy))

  006e8	e3a03001	 mov         r3, #1
  006ec	e28d2008	 add         r2, sp, #8
  006f0	e3a01006	 mov         r1, #6
  006f4	e59d0000	 ldr         r0, [sp]
  006f8	e2800010	 add         r0, r0, #0x10
  006fc	e5900000	 ldr         r0, [r0]
  00700	eb000000	 bl          |?TCA6416I2CRead@@YAIPAXI0I@Z|
  00704	e58d0030	 str         r0, [sp, #0x30]
  00708	e59d3030	 ldr         r3, [sp, #0x30]
  0070c	e3530001	 cmp         r3, #1
  00710	0a000001	 beq         |$LN3@Tca6416Gpi|
  00714	ea000002	 b           |$LN2@Tca6416Gpi|

; 331  :     {
; 332  :         goto cleanUp;

  00718	ea000001	 b           |$cleanUp$37041|
  0071c		 |$LN3@Tca6416Gpi|

; 333  :     }
; 334  :     
; 335  :     rc = TRUE;

  0071c	e3a03001	 mov         r3, #1
  00720	e58d3004	 str         r3, [sp, #4]
  00724		 |$LN2@Tca6416Gpi|
  00724		 |$LN7@Tca6416Gpi|
  00724		 |$LN9@Tca6416Gpi|
  00724		 |$LN12@Tca6416Gpi|
  00724		 |$LN14@Tca6416Gpi|
  00724		 |$cleanUp$37041|

; 336  : 
; 337  : cleanUp:
; 338  :     if (rc == FALSE) Tca6416GpioDeinit((HANDLE)pDevice);

  00724	e59d3004	 ldr         r3, [sp, #4]
  00728	e3530000	 cmp         r3, #0
  0072c	1a000001	 bne         |$LN1@Tca6416Gpi|
  00730	e59d0000	 ldr         r0, [sp]
  00734	eb000000	 bl          |?Tca6416GpioDeinit@@YAHPAX@Z|
  00738		 |$LN1@Tca6416Gpi|

; 339  :     DEBUGMSG(ZONE_FUNCTION, (L"-Tca6416GpioInit()\r\n"));

  00738	e59f3040	 ldr         r3, [pc, #0x40]
  0073c	e5933440	 ldr         r3, [r3, #0x440]
  00740	e3130004	 tst         r3, #4
  00744	0a000004	 beq         |$LN24@Tca6416Gpi|
  00748	e59f002c	 ldr         r0, [pc, #0x2C]
  0074c	eb000000	 bl          NKDbgPrintfW
  00750	e3a03001	 mov         r3, #1
  00754	e58d3034	 str         r3, [sp, #0x34]
  00758	ea000001	 b           |$LN25@Tca6416Gpi|
  0075c		 |$LN24@Tca6416Gpi|
  0075c	e3a03000	 mov         r3, #0
  00760	e58d3034	 str         r3, [sp, #0x34]
  00764		 |$LN25@Tca6416Gpi|

; 340  :     return rc;

  00764	e59d3004	 ldr         r3, [sp, #4]
  00768	e58d3010	 str         r3, [sp, #0x10]

; 341  : }

  0076c	e59d0010	 ldr         r0, [sp, #0x10]
  00770	e28dd038	 add         sp, sp, #0x38
  00774	e89d6000	 ldmia       sp, {sp, lr}
  00778	e12fff1e	 bx          lr
  0077c		 |$LN29@Tca6416Gpi|
  0077c		 |$LN30@Tca6416Gpi|
  0077c	00000000	 DCD         |??_C@_1CK@JBAOOBGL@?$AA?9?$AAT?$AAc?$AAa?$AA6?$AA4?$AA1?$AA6?$AAG?$AAp?$AAi?$AAo?$AAI?$AAn?$AAi?$AAt?$AA?$CI?$AA?$CJ?$AA?$AN?$AA?6?$AA?$AA@|
  00780		 |$LN31@Tca6416Gpi|
  00780	00000000	 DCD         |dpCurSettings|
  00784		 |$LN32@Tca6416Gpi|
  00784	00000000	 DCD         |??_C@_1HM@DMNAJLCI@?$AAE?$AAR?$AAR?$AAO?$AAR?$AA?3?$AA?5?$AAT?$AAc?$AAa?$AA6?$AA4?$AA1?$AA6?$AAG?$AAp?$AAi?$AAo?$AAI?$AAn?$AAi?$AAt?$AA?3?$AA?5?$AAF?$AAa?$AAi?$AAl?$AAe?$AAd?$AA?5?$AAr@|
  00788		 |$LN33@Tca6416Gpi|
  00788	00000000	 DCD         |g_deviceRegParams|
  0078c		 |$LN34@Tca6416Gpi|
  0078c	00000000	 DCD         |??_C@_1IA@OFEJNMHJ@?$AAE?$AAR?$AAR?$AAO?$AAR?$AA?3?$AA?5?$AAT?$AAc?$AAa?$AA6?$AA4?$AA1?$AA6?$AAG?$AAp?$AAi?$AAo?$AAI?$AAn?$AAi?$AAt?$AA?3?$AA?5?$AAF?$AAa?$AAi?$AAl?$AAe?$AAd?$AA?5?$AAa@|
  00790		 |$LN35@Tca6416Gpi|
  00790	00000000	 DCD         |??_C@_1CO@MPBIHFEH@?$AA?$CL?$AAT?$AAc?$AAa?$AA6?$AA4?$AA1?$AA6?$AAG?$AAp?$AAi?$AAo?$AAI?$AAn?$AAi?$AAt?$AA?$CI?$AA?$CF?$AAs?$AA?$CJ?$AA?$AN?$AA?6?$AA?$AA@|
  00794		 |$M37547|

			 ENDP  ; |?Tca6416GpioInit@@YAHPBGPAPAXPAI@Z|, Tca6416GpioInit

	EXPORT	|??_C@_1CO@PMGMJJDN@?$AA?9?$AAT?$AAc?$AAa?$AA6?$AA4?$AA1?$AA6?$AAG?$AAp?$AAi?$AAo?$AAD?$AAe?$AAi?$AAn?$AAi?$AAt?$AA?$CI?$AA?$CJ?$AA?$AN?$AA?6?$AA?$AA@| [ DATA ] ; `string'
	IMPORT	|LocalFree|
	IMPORT	|CloseHandle|
	IMPORT	|DeleteCriticalSection|
	IMPORT	|I2CClose|
	IMPORT	|GPIOClose|
	IMPORT	|GPIOInterruptDisable|

  00028			 AREA	 |.pdata|, PDATA
|$T37564| DCD	|$LN18@Tca6416Gpi@2|
	DCD	0x40007904

  00000			 AREA	 |.rdata|, DATA, READONLY
|??_C@_1CO@PMGMJJDN@?$AA?9?$AAT?$AAc?$AAa?$AA6?$AA4?$AA1?$AA6?$AAG?$AAp?$AAi?$AAo?$AAD?$AAe?$AAi?$AAn?$AAi?$AAt?$AA?$CI?$AA?$CJ?$AA?$AN?$AA?6?$AA?$AA@| DCB "-"
	DCB	0x0, "T", 0x0, "c", 0x0, "a", 0x0, "6", 0x0, "4", 0x0, "1"
	DCB	0x0, "6", 0x0, "G", 0x0, "p", 0x0, "i", 0x0, "o", 0x0, "D"
	DCB	0x0, "e", 0x0, "i", 0x0, "n", 0x0, "i", 0x0, "t", 0x0, "("
	DCB	0x0, ")", 0x0, 0xd, 0x0, 0xa, 0x0, 0x0, 0x0 ; `string'
; Function compile flags: /Odtp

  00794			 AREA	 |.text|, CODE, ARM

  00794		 |?Tca6416GpioDeinit@@YAHPAX@Z| PROC	; Tca6416GpioDeinit

; 353  : {

  00794		 |$LN18@Tca6416Gpi@2|
  00794	e1a0c00d	 mov         r12, sp
  00798	e92d0001	 stmdb       sp!, {r0}
  0079c	e92d5000	 stmdb       sp!, {r12, lr}
  007a0	e24dd014	 sub         sp, sp, #0x14
  007a4		 |$M37561|

; 354  :     BOOL rc = FALSE;

  007a4	e3a03000	 mov         r3, #0
  007a8	e58d3004	 str         r3, [sp, #4]

; 355  :     TCA6416_DEVICE *pDevice = (TCA6416_DEVICE*)context;

  007ac	e59d301c	 ldr         r3, [sp, #0x1C]
  007b0	e58d3000	 str         r3, [sp]

; 356  :     
; 357  :     if (pDevice == NULL)

  007b4	e59d3000	 ldr         r3, [sp]
  007b8	e3530000	 cmp         r3, #0
  007bc	1a000001	 bne         |$LN11@Tca6416Gpi@2|
  007c0	ea000059	 b           |$LN10@Tca6416Gpi@2|

; 358  :     {
; 359  :         goto cleanUp;

  007c4	ea000058	 b           |$cleanUp$37076|
  007c8		 |$LN11@Tca6416Gpi@2|

; 360  :     }
; 361  :     
; 362  :     pDevice->fTerminateThread = TRUE;

  007c8	e59d3000	 ldr         r3, [sp]
  007cc	e2832024	 add         r2, r3, #0x24
  007d0	e3a03001	 mov         r3, #1
  007d4	e5823000	 str         r3, [r2]

; 363  :     if (pDevice->hIntrEvent)

  007d8	e59d3000	 ldr         r3, [sp]
  007dc	e283301c	 add         r3, r3, #0x1C
  007e0	e5933000	 ldr         r3, [r3]
  007e4	e3530000	 cmp         r3, #0
  007e8	0a000003	 beq         |$LN9@Tca6416Gpi@2|

; 364  :     {
; 365  :         SetEvent(pDevice->hIntrEvent);        

  007ec	e59d3000	 ldr         r3, [sp]
  007f0	e283301c	 add         r3, r3, #0x1C
  007f4	e5930000	 ldr         r0, [r3]
  007f8	eb000000	 bl          SetEvent
  007fc		 |$LN9@Tca6416Gpi@2|

; 366  :     }
; 367  :     if (pDevice->hIntrthread)

  007fc	e59d3000	 ldr         r3, [sp]
  00800	e2833020	 add         r3, r3, #0x20
  00804	e5933000	 ldr         r3, [r3]
  00808	e3530000	 cmp         r3, #0
  0080c	0a000004	 beq         |$LN8@Tca6416Gpi@2|

; 368  :     {
; 369  :         WaitForSingleObject(pDevice->hIntrthread,INFINITE);

  00810	e3e01000	 mvn         r1, #0
  00814	e59d3000	 ldr         r3, [sp]
  00818	e2833020	 add         r3, r3, #0x20
  0081c	e5930000	 ldr         r0, [r3]
  00820	eb000000	 bl          WaitForSingleObject
  00824		 |$LN8@Tca6416Gpi@2|

; 370  :     }    
; 371  :     if (pDevice->dwSysintr != SYSINTR_UNDEFINED)

  00824	e59d3000	 ldr         r3, [sp]
  00828	e2833018	 add         r3, r3, #0x18
  0082c	e5933000	 ldr         r3, [r3]
  00830	e3730001	 cmn         r3, #1
  00834	0a000009	 beq         |$LN7@Tca6416Gpi@2|

; 372  :     {
; 373  :         GPIOInterruptDisable(pDevice->hGpio, pDevice->IntrGpio, pDevice->dwSysintr);

  00838	e59d3000	 ldr         r3, [sp]
  0083c	e2833018	 add         r3, r3, #0x18
  00840	e5932000	 ldr         r2, [r3]
  00844	e59d3000	 ldr         r3, [sp]
  00848	e283300c	 add         r3, r3, #0xC
  0084c	e5931000	 ldr         r1, [r3]
  00850	e59d3000	 ldr         r3, [sp]
  00854	e2833014	 add         r3, r3, #0x14
  00858	e5930000	 ldr         r0, [r3]
  0085c	eb000000	 bl          GPIOInterruptDisable
  00860		 |$LN7@Tca6416Gpi@2|

; 374  :     }
; 375  :     if (pDevice->hGpio)

  00860	e59d3000	 ldr         r3, [sp]
  00864	e2833014	 add         r3, r3, #0x14
  00868	e5933000	 ldr         r3, [r3]
  0086c	e3530000	 cmp         r3, #0
  00870	0a000003	 beq         |$LN6@Tca6416Gpi@2|

; 376  :     {
; 377  :         GPIOClose(pDevice->hGpio);

  00874	e59d3000	 ldr         r3, [sp]
  00878	e2833014	 add         r3, r3, #0x14
  0087c	e5930000	 ldr         r0, [r3]
  00880	eb000000	 bl          GPIOClose
  00884		 |$LN6@Tca6416Gpi@2|

; 378  :     }
; 379  :     if (pDevice->hI2C)

  00884	e59d3000	 ldr         r3, [sp]
  00888	e2833010	 add         r3, r3, #0x10
  0088c	e5933000	 ldr         r3, [r3]
  00890	e3530000	 cmp         r3, #0
  00894	0a000003	 beq         |$LN5@Tca6416Gpi@2|

; 380  :     {
; 381  :         I2CClose(pDevice->hI2C);

  00898	e59d3000	 ldr         r3, [sp]
  0089c	e2833010	 add         r3, r3, #0x10
  008a0	e5930000	 ldr         r0, [r3]
  008a4	eb000000	 bl          I2CClose
  008a8		 |$LN5@Tca6416Gpi@2|

; 382  :     }
; 383  :     for (int i=0;i<NB_BANK;i++)

  008a8	e3a03000	 mov         r3, #0
  008ac	e58d3008	 str         r3, [sp, #8]
  008b0	ea000002	 b           |$LN4@Tca6416Gpi@2|
  008b4		 |$LN3@Tca6416Gpi@2|
  008b4	e59d3008	 ldr         r3, [sp, #8]
  008b8	e2833001	 add         r3, r3, #1
  008bc	e58d3008	 str         r3, [sp, #8]
  008c0		 |$LN4@Tca6416Gpi@2|
  008c0	e59d3008	 ldr         r3, [sp, #8]
  008c4	e3530002	 cmp         r3, #2
  008c8	aa000007	 bge         |$LN2@Tca6416Gpi@2|

; 384  :     {
; 385  :         DeleteCriticalSection(&pDevice->bankCs[i]);

  008cc	e59d3000	 ldr         r3, [sp]
  008d0	e2831028	 add         r1, r3, #0x28
  008d4	e59d2008	 ldr         r2, [sp, #8]
  008d8	e3a03014	 mov         r3, #0x14
  008dc	e0030392	 mul         r3, r2, r3
  008e0	e0810003	 add         r0, r1, r3
  008e4	eb000000	 bl          DeleteCriticalSection

; 386  :     }

  008e8	eafffff1	 b           |$LN3@Tca6416Gpi@2|
  008ec		 |$LN2@Tca6416Gpi@2|

; 387  :     DeleteCriticalSection(&pDevice->wakeupStateCs);

  008ec	e59d3000	 ldr         r3, [sp]
  008f0	e2830050	 add         r0, r3, #0x50
  008f4	eb000000	 bl          DeleteCriticalSection

; 388  :     
; 389  :     if (pDevice->hIntrEvent)

  008f8	e59d3000	 ldr         r3, [sp]
  008fc	e283301c	 add         r3, r3, #0x1C
  00900	e5933000	 ldr         r3, [r3]
  00904	e3530000	 cmp         r3, #0
  00908	0a000003	 beq         |$LN1@Tca6416Gpi@2|

; 390  :     {
; 391  :         CloseHandle(pDevice->hIntrEvent);

  0090c	e59d3000	 ldr         r3, [sp]
  00910	e283301c	 add         r3, r3, #0x1C
  00914	e5930000	 ldr         r0, [r3]
  00918	eb000000	 bl          CloseHandle
  0091c		 |$LN1@Tca6416Gpi@2|

; 392  :     }
; 393  : 
; 394  :     // Free device structure
; 395  :     LocalFree(pDevice);

  0091c	e59d0000	 ldr         r0, [sp]
  00920	eb000000	 bl          LocalFree

; 396  :     // Done
; 397  :     rc = TRUE;

  00924	e3a03001	 mov         r3, #1
  00928	e58d3004	 str         r3, [sp, #4]
  0092c		 |$LN10@Tca6416Gpi@2|
  0092c		 |$cleanUp$37076|

; 398  : 
; 399  : cleanUp:
; 400  :     DEBUGMSG(ZONE_FUNCTION, (L"-Tca6416GpioDeinit()\r\n"));

  0092c	e59f3040	 ldr         r3, [pc, #0x40]
  00930	e5933440	 ldr         r3, [r3, #0x440]
  00934	e3130004	 tst         r3, #4
  00938	0a000004	 beq         |$LN14@Tca6416Gpi@2|
  0093c	e59f002c	 ldr         r0, [pc, #0x2C]
  00940	eb000000	 bl          NKDbgPrintfW
  00944	e3a03001	 mov         r3, #1
  00948	e58d3010	 str         r3, [sp, #0x10]
  0094c	ea000001	 b           |$LN15@Tca6416Gpi@2|
  00950		 |$LN14@Tca6416Gpi@2|
  00950	e3a03000	 mov         r3, #0
  00954	e58d3010	 str         r3, [sp, #0x10]
  00958		 |$LN15@Tca6416Gpi@2|

; 401  :     return rc;

  00958	e59d3004	 ldr         r3, [sp, #4]
  0095c	e58d300c	 str         r3, [sp, #0xC]

; 402  : }

  00960	e59d000c	 ldr         r0, [sp, #0xC]
  00964	e28dd014	 add         sp, sp, #0x14
  00968	e89d6000	 ldmia       sp, {sp, lr}
  0096c	e12fff1e	 bx          lr
  00970		 |$LN19@Tca6416Gpi@2|
  00970		 |$LN20@Tca6416Gpi@2|
  00970	00000000	 DCD         |??_C@_1CO@PMGMJJDN@?$AA?9?$AAT?$AAc?$AAa?$AA6?$AA4?$AA1?$AA6?$AAG?$AAp?$AAi?$AAo?$AAD?$AAe?$AAi?$AAn?$AAi?$AAt?$AA?$CI?$AA?$CJ?$AA?$AN?$AA?6?$AA?$AA@|
  00974		 |$LN21@Tca6416Gpi@2|
  00974	00000000	 DCD         |dpCurSettings|
  00978		 |$M37562|

			 ENDP  ; |?Tca6416GpioDeinit@@YAHPAX@Z|, Tca6416GpioDeinit

	IMPORT	|__rt_udiv|

  00030			 AREA	 |.pdata|, PDATA
|$T37577| DCD	|$LN10@Tca6416Gpi@3|
	DCD	0x40004c04
; Function compile flags: /Odtp

  00978			 AREA	 |.text|, CODE, ARM

  00978		 |?Tca6416GpioSetMode@@YAHPAXII@Z| PROC	; Tca6416GpioSetMode

; 448  : {

  00978		 |$LN10@Tca6416Gpi@3|
  00978	e1a0c00d	 mov         r12, sp
  0097c	e92d0007	 stmdb       sp!, {r0 - r2}
  00980	e92d5000	 stmdb       sp!, {r12, lr}
  00984	e24dd028	 sub         sp, sp, #0x28
  00988		 |$M37574|

; 449  :     BOOL rc = FALSE;

  00988	e3a03000	 mov         r3, #0
  0098c	e58d3008	 str         r3, [sp, #8]

; 450  :     int bank = id / NB_PIN_PER_BANK;

  00990	e59d1034	 ldr         r1, [sp, #0x34]
  00994	e3a00008	 mov         r0, #8
  00998	eb000000	 bl          __rt_udiv
  0099c	e58d000c	 str         r0, [sp, #0xC]

; 451  :     int pin = id - (bank*NB_PIN_PER_BANK);

  009a0	e59d100c	 ldr         r1, [sp, #0xC]
  009a4	e3a03008	 mov         r3, #8
  009a8	e0020391	 mul         r2, r1, r3
  009ac	e59d3034	 ldr         r3, [sp, #0x34]
  009b0	e0433002	 sub         r3, r3, r2
  009b4	e58d3014	 str         r3, [sp, #0x14]

; 452  :     UCHAR mask = (UCHAR) (1<<pin);

  009b8	e59d2014	 ldr         r2, [sp, #0x14]
  009bc	e3a03001	 mov         r3, #1
  009c0	e1a03213	 mov         r3, r3, lsl r2
  009c4	e20330ff	 and         r3, r3, #0xFF
  009c8	e5cd3010	 strb        r3, [sp, #0x10]

; 453  :     TCA6416_DEVICE *pDevice = (TCA6416_DEVICE*)context;

  009cc	e59d3030	 ldr         r3, [sp, #0x30]
  009d0	e58d3004	 str         r3, [sp, #4]

; 454  : 
; 455  :     if ((pDevice == NULL) || (bank >= NB_BANK) || (pin >= NB_PIN_PER_BANK))

  009d4	e59d3004	 ldr         r3, [sp, #4]
  009d8	e3530000	 cmp         r3, #0
  009dc	0a000005	 beq         |$LN2@Tca6416Gpi@3|
  009e0	e59d300c	 ldr         r3, [sp, #0xC]
  009e4	e3530002	 cmp         r3, #2
  009e8	aa000002	 bge         |$LN2@Tca6416Gpi@3|
  009ec	e59d3014	 ldr         r3, [sp, #0x14]
  009f0	e3530008	 cmp         r3, #8
  009f4	ba000001	 blt         |$LN3@Tca6416Gpi@3|
  009f8		 |$LN2@Tca6416Gpi@3|

; 456  :     {
; 457  :         goto cleanUp;

  009f8	ea000024	 b           |$LN1@Tca6416Gpi@3|
  009fc	ea000023	 b           |$cleanUp$37123|
  00a00		 |$LN3@Tca6416Gpi@3|

; 458  :     }    
; 459  :     
; 460  :     EnterCriticalSection(&pDevice->bankCs[bank]);

  00a00	e59d3004	 ldr         r3, [sp, #4]
  00a04	e2831028	 add         r1, r3, #0x28
  00a08	e59d200c	 ldr         r2, [sp, #0xC]
  00a0c	e3a03014	 mov         r3, #0x14
  00a10	e0030392	 mul         r3, r2, r3
  00a14	e0810003	 add         r0, r1, r3
  00a18	eb000000	 bl          EnterCriticalSection

; 461  :     rc = TCA6416SetRegMaskedValue(
; 462  :         pDevice->hI2C,
; 463  :         CONFIG_PORT(bank),
; 464  :         (mode & GPIO_DIR_INPUT) ? mask : 0,
; 465  :         mask,
; 466  :         FALSE);

  00a1c	e59d3038	 ldr         r3, [sp, #0x38]
  00a20	e3130001	 tst         r3, #1
  00a24	0a000002	 beq         |$LN6@Tca6416Gpi@3|
  00a28	e5dd3010	 ldrb        r3, [sp, #0x10]
  00a2c	e58d3020	 str         r3, [sp, #0x20]
  00a30	ea000001	 b           |$LN7@Tca6416Gpi@3|
  00a34		 |$LN6@Tca6416Gpi@3|
  00a34	e3a03000	 mov         r3, #0
  00a38	e58d3020	 str         r3, [sp, #0x20]
  00a3c		 |$LN7@Tca6416Gpi@3|
  00a3c	e3a03000	 mov         r3, #0
  00a40	e58d3000	 str         r3, [sp]
  00a44	e5dd3010	 ldrb        r3, [sp, #0x10]
  00a48	e59d2020	 ldr         r2, [sp, #0x20]
  00a4c	e20220ff	 and         r2, r2, #0xFF
  00a50	e59d100c	 ldr         r1, [sp, #0xC]
  00a54	e2811006	 add         r1, r1, #6
  00a58	e59d0004	 ldr         r0, [sp, #4]
  00a5c	e2800010	 add         r0, r0, #0x10
  00a60	e5900000	 ldr         r0, [r0]
  00a64	eb000000	 bl          |?TCA6416SetRegMaskedValue@@YAHPAXKEEH@Z|
  00a68	e58d0024	 str         r0, [sp, #0x24]
  00a6c	e59d3024	 ldr         r3, [sp, #0x24]
  00a70	e58d3008	 str         r3, [sp, #8]

; 467  :     LeaveCriticalSection(&pDevice->bankCs[bank]);

  00a74	e59d3004	 ldr         r3, [sp, #4]
  00a78	e2831028	 add         r1, r3, #0x28
  00a7c	e59d200c	 ldr         r2, [sp, #0xC]
  00a80	e3a03014	 mov         r3, #0x14
  00a84	e0030392	 mul         r3, r2, r3
  00a88	e0810003	 add         r0, r1, r3
  00a8c	eb000000	 bl          LeaveCriticalSection
  00a90		 |$LN1@Tca6416Gpi@3|
  00a90		 |$cleanUp$37123|

; 468  :         
; 469  : cleanUp:
; 470  :     return rc;

  00a90	e59d3008	 ldr         r3, [sp, #8]
  00a94	e58d301c	 str         r3, [sp, #0x1C]

; 471  : }

  00a98	e59d001c	 ldr         r0, [sp, #0x1C]
  00a9c	e28dd028	 add         sp, sp, #0x28
  00aa0	e89d6000	 ldmia       sp, {sp, lr}
  00aa4	e12fff1e	 bx          lr
  00aa8		 |$M37575|

			 ENDP  ; |?Tca6416GpioSetMode@@YAHPAXII@Z|, Tca6416GpioSetMode


  00038			 AREA	 |.pdata|, PDATA
|$T37583| DCD	|$LN11@TCA6416Set|
	DCD	0x40003704
; Function compile flags: /Odtp

  00aa8			 AREA	 |.text|, CODE, ARM

  00aa8		 |?TCA6416SetRegMaskedValue@@YAHPAXKEEH@Z| PROC ; TCA6416SetRegMaskedValue

; 411  : {

  00aa8		 |$LN11@TCA6416Set|
  00aa8	e1a0c00d	 mov         r12, sp
  00aac	e92d000f	 stmdb       sp!, {r0 - r3}
  00ab0	e92d5000	 stmdb       sp!, {r12, lr}
  00ab4	e24dd018	 sub         sp, sp, #0x18
  00ab8		 |$M37580|

; 412  :     UCHAR regval,oldregval;
; 413  :     BOOL rc = FALSE;

  00ab8	e3a03000	 mov         r3, #0
  00abc	e58d3004	 str         r3, [sp, #4]

; 414  : 
; 415  :     if (TCA6416I2CRead(hI2C, (UCHAR)address, &oldregval, sizeof(oldregval)) != sizeof(oldregval))

  00ac0	e3a03001	 mov         r3, #1
  00ac4	e28d2000	 add         r2, sp, #0
  00ac8	e59d1024	 ldr         r1, [sp, #0x24]
  00acc	e20110ff	 and         r1, r1, #0xFF
  00ad0	e59d0020	 ldr         r0, [sp, #0x20]
  00ad4	eb000000	 bl          |?TCA6416I2CRead@@YAIPAXI0I@Z|
  00ad8	e58d0010	 str         r0, [sp, #0x10]
  00adc	e59d3010	 ldr         r3, [sp, #0x10]
  00ae0	e3530001	 cmp         r3, #1
  00ae4	0a000001	 beq         |$LN6@TCA6416Set|
  00ae8	ea00001f	 b           |$LN5@TCA6416Set|

; 416  :     {
; 417  :         goto cleanUp;

  00aec	ea00001e	 b           |$cleanUp$37102|
  00af0		 |$LN6@TCA6416Set|

; 418  :     }   
; 419  :     
; 420  :     regval = (oldregval & ~mask) | value;

  00af0	e5dd3000	 ldrb        r3, [sp]
  00af4	e1a02003	 mov         r2, r3
  00af8	e5dd302c	 ldrb        r3, [sp, #0x2C]
  00afc	e1e03003	 mvn         r3, r3
  00b00	e0022003	 and         r2, r2, r3
  00b04	e5dd3028	 ldrb        r3, [sp, #0x28]
  00b08	e1823003	 orr         r3, r2, r3
  00b0c	e20330ff	 and         r3, r3, #0xFF
  00b10	e5cd3008	 strb        r3, [sp, #8]

; 421  : 
; 422  :     if (fForceWrite || (oldregval != regval))

  00b14	e59d3030	 ldr         r3, [sp, #0x30]
  00b18	e3530000	 cmp         r3, #0
  00b1c	1a000004	 bne         |$LN3@TCA6416Set|
  00b20	e5dd3000	 ldrb        r3, [sp]
  00b24	e1a02003	 mov         r2, r3
  00b28	e5dd3008	 ldrb        r3, [sp, #8]
  00b2c	e1520003	 cmp         r2, r3
  00b30	0a00000b	 beq         |$LN4@TCA6416Set|
  00b34		 |$LN3@TCA6416Set|

; 423  :     {
; 424  :         if (TCA6416I2CWrite(hI2C, (UCHAR)address, &regval, sizeof(regval)) != sizeof(regval))

  00b34	e3a03001	 mov         r3, #1
  00b38	e28d2008	 add         r2, sp, #8
  00b3c	e59d1024	 ldr         r1, [sp, #0x24]
  00b40	e20110ff	 and         r1, r1, #0xFF
  00b44	e59d0020	 ldr         r0, [sp, #0x20]
  00b48	eb000000	 bl          |?TCA6416I2CWrite@@YAIPAXIPBXI@Z|
  00b4c	e58d0014	 str         r0, [sp, #0x14]
  00b50	e59d3014	 ldr         r3, [sp, #0x14]
  00b54	e3530001	 cmp         r3, #1
  00b58	0a000001	 beq         |$LN2@TCA6416Set|
  00b5c	ea000002	 b           |$LN1@TCA6416Set|

; 425  :         {
; 426  :             goto cleanUp;

  00b60	ea000001	 b           |$cleanUp$37102|
  00b64		 |$LN2@TCA6416Set|
  00b64		 |$LN4@TCA6416Set|

; 427  :         }   
; 428  :     }
; 429  : 
; 430  :     // We succceded
; 431  :     rc = TRUE;

  00b64	e3a03001	 mov         r3, #1
  00b68	e58d3004	 str         r3, [sp, #4]
  00b6c		 |$LN1@TCA6416Set|
  00b6c		 |$LN5@TCA6416Set|
  00b6c		 |$cleanUp$37102|

; 432  : 
; 433  : cleanUp:
; 434  : 
; 435  :     return rc;    

  00b6c	e59d3004	 ldr         r3, [sp, #4]
  00b70	e58d300c	 str         r3, [sp, #0xC]

; 436  : }

  00b74	e59d000c	 ldr         r0, [sp, #0xC]
  00b78	e28dd018	 add         sp, sp, #0x18
  00b7c	e89d6000	 ldmia       sp, {sp, lr}
  00b80	e12fff1e	 bx          lr
  00b84		 |$M37581|

			 ENDP  ; |?TCA6416SetRegMaskedValue@@YAHPAXKEEH@Z|, TCA6416SetRegMaskedValue


  00040			 AREA	 |.pdata|, PDATA
|$T37589| DCD	|$LN11@Tca6416Gpi@4|
	DCD	0x40004c04
; Function compile flags: /Odtp

  00b84			 AREA	 |.text|, CODE, ARM

  00b84		 |?Tca6416GpioGetMode@@YAKPAXI@Z| PROC	; Tca6416GpioGetMode

; 482  : {

  00b84		 |$LN11@Tca6416Gpi@4|
  00b84	e1a0c00d	 mov         r12, sp
  00b88	e92d0003	 stmdb       sp!, {r0, r1}
  00b8c	e92d5000	 stmdb       sp!, {r12, lr}
  00b90	e24dd020	 sub         sp, sp, #0x20
  00b94		 |$M37586|

; 483  :     DWORD mode = (DWORD) -1;       

  00b94	e3e03000	 mvn         r3, #0
  00b98	e58d3008	 str         r3, [sp, #8]

; 484  :     UCHAR config;
; 485  :     int bank = id / NB_PIN_PER_BANK;

  00b9c	e59d102c	 ldr         r1, [sp, #0x2C]
  00ba0	e3a00008	 mov         r0, #8
  00ba4	eb000000	 bl          __rt_udiv
  00ba8	e58d000c	 str         r0, [sp, #0xC]

; 486  :     int pin = id - (bank*NB_PIN_PER_BANK);

  00bac	e59d100c	 ldr         r1, [sp, #0xC]
  00bb0	e3a03008	 mov         r3, #8
  00bb4	e0020391	 mul         r2, r1, r3
  00bb8	e59d302c	 ldr         r3, [sp, #0x2C]
  00bbc	e0433002	 sub         r3, r3, r2
  00bc0	e58d3014	 str         r3, [sp, #0x14]

; 487  :     UCHAR mask = (UCHAR) (1<<pin);

  00bc4	e59d2014	 ldr         r2, [sp, #0x14]
  00bc8	e3a03001	 mov         r3, #1
  00bcc	e1a03213	 mov         r3, r3, lsl r2
  00bd0	e20330ff	 and         r3, r3, #0xFF
  00bd4	e5cd3010	 strb        r3, [sp, #0x10]

; 488  : 
; 489  :     TCA6416_DEVICE *pDevice = (TCA6416_DEVICE*)context;

  00bd8	e59d3028	 ldr         r3, [sp, #0x28]
  00bdc	e58d3000	 str         r3, [sp]

; 490  : 
; 491  :     if ((pDevice == NULL) || (bank >= NB_BANK) || (pin >= NB_PIN_PER_BANK))    

  00be0	e59d3000	 ldr         r3, [sp]
  00be4	e3530000	 cmp         r3, #0
  00be8	0a000005	 beq         |$LN5@Tca6416Gpi@4|
  00bec	e59d300c	 ldr         r3, [sp, #0xC]
  00bf0	e3530002	 cmp         r3, #2
  00bf4	aa000002	 bge         |$LN5@Tca6416Gpi@4|
  00bf8	e59d3014	 ldr         r3, [sp, #0x14]
  00bfc	e3530008	 cmp         r3, #8
  00c00	ba000001	 blt         |$LN6@Tca6416Gpi@4|
  00c04		 |$LN5@Tca6416Gpi@4|

; 492  :     {
; 493  :         goto cleanUp;

  00c04	ea000024	 b           |$LN4@Tca6416Gpi@4|
  00c08	ea000023	 b           |$cleanUp$37140|
  00c0c		 |$LN6@Tca6416Gpi@4|

; 494  :     }    
; 495  :     EnterCriticalSection(&pDevice->bankCs[bank]);

  00c0c	e59d3000	 ldr         r3, [sp]
  00c10	e2831028	 add         r1, r3, #0x28
  00c14	e59d200c	 ldr         r2, [sp, #0xC]
  00c18	e3a03014	 mov         r3, #0x14
  00c1c	e0030392	 mul         r3, r2, r3
  00c20	e0810003	 add         r0, r1, r3
  00c24	eb000000	 bl          EnterCriticalSection

; 496  :     if (TCA6416I2CRead(pDevice->hI2C,CONFIG_PORT(bank),&config,sizeof(config)) == sizeof(config))

  00c28	e3a03001	 mov         r3, #1
  00c2c	e28d2004	 add         r2, sp, #4
  00c30	e59d100c	 ldr         r1, [sp, #0xC]
  00c34	e2811006	 add         r1, r1, #6
  00c38	e59d0000	 ldr         r0, [sp]
  00c3c	e2800010	 add         r0, r0, #0x10
  00c40	e5900000	 ldr         r0, [r0]
  00c44	eb000000	 bl          |?TCA6416I2CRead@@YAIPAXI0I@Z|
  00c48	e58d001c	 str         r0, [sp, #0x1C]
  00c4c	e59d301c	 ldr         r3, [sp, #0x1C]
  00c50	e3530001	 cmp         r3, #1
  00c54	1a000009	 bne         |$LN3@Tca6416Gpi@4|

; 497  :     {
; 498  :         if (config & mask)

  00c58	e5dd3004	 ldrb        r3, [sp, #4]
  00c5c	e1a02003	 mov         r2, r3
  00c60	e5dd3010	 ldrb        r3, [sp, #0x10]
  00c64	e1120003	 tst         r2, r3
  00c68	0a000002	 beq         |$LN2@Tca6416Gpi@4|

; 499  :         {
; 500  :             mode = GPIO_DIR_INPUT;

  00c6c	e3a03001	 mov         r3, #1
  00c70	e58d3008	 str         r3, [sp, #8]

; 501  :         }
; 502  :         else

  00c74	ea000001	 b           |$LN1@Tca6416Gpi@4|
  00c78		 |$LN2@Tca6416Gpi@4|

; 503  :         {
; 504  :             mode = GPIO_DIR_OUTPUT;

  00c78	e3a03000	 mov         r3, #0
  00c7c	e58d3008	 str         r3, [sp, #8]
  00c80		 |$LN1@Tca6416Gpi@4|
  00c80		 |$LN3@Tca6416Gpi@4|

; 505  :         }
; 506  :     }
; 507  :     LeaveCriticalSection(&pDevice->bankCs[bank]);

  00c80	e59d3000	 ldr         r3, [sp]
  00c84	e2831028	 add         r1, r3, #0x28
  00c88	e59d200c	 ldr         r2, [sp, #0xC]
  00c8c	e3a03014	 mov         r3, #0x14
  00c90	e0030392	 mul         r3, r2, r3
  00c94	e0810003	 add         r0, r1, r3
  00c98	eb000000	 bl          LeaveCriticalSection
  00c9c		 |$LN4@Tca6416Gpi@4|
  00c9c		 |$cleanUp$37140|

; 508  : cleanUp:
; 509  :     return mode;

  00c9c	e59d3008	 ldr         r3, [sp, #8]
  00ca0	e58d3018	 str         r3, [sp, #0x18]

; 510  : }

  00ca4	e59d0018	 ldr         r0, [sp, #0x18]
  00ca8	e28dd020	 add         sp, sp, #0x20
  00cac	e89d6000	 ldmia       sp, {sp, lr}
  00cb0	e12fff1e	 bx          lr
  00cb4		 |$M37587|

			 ENDP  ; |?Tca6416GpioGetMode@@YAKPAXI@Z|, Tca6416GpioGetMode


  00048			 AREA	 |.pdata|, PDATA
|$T37595| DCD	|$LN7@Tca6416Gpi@5|
	DCD	0x40000c04
; Function compile flags: /Odtp

  00cb4			 AREA	 |.text|, CODE, ARM

  00cb4		 |?Tca6416GpioPullup@@YAHPAXII@Z| PROC	; Tca6416GpioPullup

; 525  : {

  00cb4		 |$LN7@Tca6416Gpi@5|
  00cb4	e1a0c00d	 mov         r12, sp
  00cb8	e92d0007	 stmdb       sp!, {r0 - r2}
  00cbc	e92d5000	 stmdb       sp!, {r12, lr}
  00cc0	e24dd008	 sub         sp, sp, #8
  00cc4		 |$M37592|

; 526  :     BOOL    rc = FALSE;

  00cc4	e3a03000	 mov         r3, #0
  00cc8	e58d3000	 str         r3, [sp]
  00ccc		 |$cleanUp$37152|

; 527  :     if (context == NULL)
; 528  :     {
; 529  :         goto cleanUp;
; 530  :     }  
; 531  :     UNREFERENCED_PARAMETER(context);
; 532  :     UNREFERENCED_PARAMETER(id);
; 533  :     UNREFERENCED_PARAMETER(enable);
; 534  : 
; 535  :     //Not available on the TCA6416
; 536  : 
; 537  : cleanUp:
; 538  :     return rc;

  00ccc	e59d3000	 ldr         r3, [sp]
  00cd0	e58d3004	 str         r3, [sp, #4]

; 539  : }

  00cd4	e59d0004	 ldr         r0, [sp, #4]
  00cd8	e28dd008	 add         sp, sp, #8
  00cdc	e89d6000	 ldmia       sp, {sp, lr}
  00ce0	e12fff1e	 bx          lr
  00ce4		 |$M37593|

			 ENDP  ; |?Tca6416GpioPullup@@YAHPAXII@Z|, Tca6416GpioPullup


  00050			 AREA	 |.pdata|, PDATA
|$T37601| DCD	|$LN7@Tca6416Gpi@6|
	DCD	0x40000c04
; Function compile flags: /Odtp

  00ce4			 AREA	 |.text|, CODE, ARM

  00ce4		 |?Tca6416GpioPulldown@@YAHPAXII@Z| PROC ; Tca6416GpioPulldown

; 552  : {

  00ce4		 |$LN7@Tca6416Gpi@6|
  00ce4	e1a0c00d	 mov         r12, sp
  00ce8	e92d0007	 stmdb       sp!, {r0 - r2}
  00cec	e92d5000	 stmdb       sp!, {r12, lr}
  00cf0	e24dd008	 sub         sp, sp, #8
  00cf4		 |$M37598|

; 553  :     BOOL    rc = FALSE;

  00cf4	e3a03000	 mov         r3, #0
  00cf8	e58d3000	 str         r3, [sp]
  00cfc		 |$cleanUp$37161|

; 554  :     if (context == NULL)
; 555  :     {
; 556  :         goto cleanUp;
; 557  :     }  
; 558  :     UNREFERENCED_PARAMETER(context);
; 559  :     UNREFERENCED_PARAMETER(id);
; 560  :     UNREFERENCED_PARAMETER(enable);
; 561  : 
; 562  :     //Not available on the TCA6416
; 563  : 
; 564  : cleanUp:
; 565  :     return rc;

  00cfc	e59d3000	 ldr         r3, [sp]
  00d00	e58d3004	 str         r3, [sp, #4]

; 566  : }

  00d04	e59d0004	 ldr         r0, [sp, #4]
  00d08	e28dd008	 add         sp, sp, #8
  00d0c	e89d6000	 ldmia       sp, {sp, lr}
  00d10	e12fff1e	 bx          lr
  00d14		 |$M37599|

			 ENDP  ; |?Tca6416GpioPulldown@@YAHPAXII@Z|, Tca6416GpioPulldown

	EXPORT	|?Tca6416GpioInterruptDone@@YAHPAXI@Z|	; Tca6416GpioInterruptDone

  00058			 AREA	 |.pdata|, PDATA
|$T37607| DCD	|$LN7@Tca6416Gpi@7|
	DCD	0x40000c04
; Function compile flags: /Odtp

  00d14			 AREA	 |.text|, CODE, ARM

  00d14		 |?Tca6416GpioInterruptDone@@YAHPAXI@Z| PROC ; Tca6416GpioInterruptDone

; 577  : {

  00d14		 |$LN7@Tca6416Gpi@7|
  00d14	e1a0c00d	 mov         r12, sp
  00d18	e92d0003	 stmdb       sp!, {r0, r1}
  00d1c	e92d5000	 stmdb       sp!, {r12, lr}
  00d20	e24dd008	 sub         sp, sp, #8
  00d24		 |$M37604|

; 578  :     BOOL    rc = FALSE;

  00d24	e3a03000	 mov         r3, #0
  00d28	e58d3000	 str         r3, [sp]
  00d2c		 |$cleanUp$37170|

; 579  :     if (context == NULL)
; 580  :     {
; 581  :         goto cleanUp;
; 582  :     }  
; 583  :     UNREFERENCED_PARAMETER(context);
; 584  :     UNREFERENCED_PARAMETER(intrId); 
; 585  : cleanUp:
; 586  :     return rc;   

  00d2c	e59d3000	 ldr         r3, [sp]
  00d30	e58d3004	 str         r3, [sp, #4]

; 587  : }

  00d34	e59d0004	 ldr         r0, [sp, #4]
  00d38	e28dd008	 add         sp, sp, #8
  00d3c	e89d6000	 ldmia       sp, {sp, lr}
  00d40	e12fff1e	 bx          lr
  00d44		 |$M37605|

			 ENDP  ; |?Tca6416GpioInterruptDone@@YAHPAXI@Z|, Tca6416GpioInterruptDone

	EXPORT	|?Tca6416GpioInterruptDisable@@YAHPAXI@Z| ; Tca6416GpioInterruptDisable

  00060			 AREA	 |.pdata|, PDATA
|$T37613| DCD	|$LN7@Tca6416Gpi@8|
	DCD	0x40000c04
; Function compile flags: /Odtp

  00d44			 AREA	 |.text|, CODE, ARM

  00d44		 |?Tca6416GpioInterruptDisable@@YAHPAXI@Z| PROC ; Tca6416GpioInterruptDisable

; 599  : {

  00d44		 |$LN7@Tca6416Gpi@8|
  00d44	e1a0c00d	 mov         r12, sp
  00d48	e92d0003	 stmdb       sp!, {r0, r1}
  00d4c	e92d5000	 stmdb       sp!, {r12, lr}
  00d50	e24dd008	 sub         sp, sp, #8
  00d54		 |$M37610|

; 600  :     BOOL    rc = FALSE;

  00d54	e3a03000	 mov         r3, #0
  00d58	e58d3000	 str         r3, [sp]
  00d5c		 |$cleanUp$37179|

; 601  :     if (context == NULL)
; 602  :     {
; 603  :         goto cleanUp;
; 604  :     }  
; 605  :     UNREFERENCED_PARAMETER(context);
; 606  :     UNREFERENCED_PARAMETER(intrId); 
; 607  : cleanUp:
; 608  :     return rc;   

  00d5c	e59d3000	 ldr         r3, [sp]
  00d60	e58d3004	 str         r3, [sp, #4]

; 609  : }

  00d64	e59d0004	 ldr         r0, [sp, #4]
  00d68	e28dd008	 add         sp, sp, #8
  00d6c	e89d6000	 ldmia       sp, {sp, lr}
  00d70	e12fff1e	 bx          lr
  00d74		 |$M37611|

			 ENDP  ; |?Tca6416GpioInterruptDisable@@YAHPAXI@Z|, Tca6416GpioInterruptDisable


  00068			 AREA	 |.pdata|, PDATA
|$T37620| DCD	|$LN8@Tca6416Gpi@9|
	DCD	0x40004304
; Function compile flags: /Odtp

  00d74			 AREA	 |.text|, CODE, ARM

  00d74		 |?Tca6416GpioSetBit@@YAHPAXI@Z| PROC	; Tca6416GpioSetBit

; 622  : {

  00d74		 |$LN8@Tca6416Gpi@9|
  00d74	e1a0c00d	 mov         r12, sp
  00d78	e92d0003	 stmdb       sp!, {r0, r1}
  00d7c	e92d5000	 stmdb       sp!, {r12, lr}
  00d80	e24dd024	 sub         sp, sp, #0x24
  00d84		 |$M37617|

; 623  :     BOOL rc = FALSE;

  00d84	e3a03000	 mov         r3, #0
  00d88	e58d3008	 str         r3, [sp, #8]

; 624  :     int bank = id / NB_PIN_PER_BANK;

  00d8c	e59d1030	 ldr         r1, [sp, #0x30]
  00d90	e3a00008	 mov         r0, #8
  00d94	eb000000	 bl          __rt_udiv
  00d98	e58d000c	 str         r0, [sp, #0xC]

; 625  :     int pin = id - (bank*NB_PIN_PER_BANK);

  00d9c	e59d100c	 ldr         r1, [sp, #0xC]
  00da0	e3a03008	 mov         r3, #8
  00da4	e0020391	 mul         r2, r1, r3
  00da8	e59d3030	 ldr         r3, [sp, #0x30]
  00dac	e0433002	 sub         r3, r3, r2
  00db0	e58d3014	 str         r3, [sp, #0x14]

; 626  :     UCHAR mask = (UCHAR) (1<<pin);

  00db4	e59d2014	 ldr         r2, [sp, #0x14]
  00db8	e3a03001	 mov         r3, #1
  00dbc	e1a03213	 mov         r3, r3, lsl r2
  00dc0	e20330ff	 and         r3, r3, #0xFF
  00dc4	e5cd3010	 strb        r3, [sp, #0x10]

; 627  : 
; 628  :     TCA6416_DEVICE *pDevice = (TCA6416_DEVICE*)context;

  00dc8	e59d302c	 ldr         r3, [sp, #0x2C]
  00dcc	e58d3004	 str         r3, [sp, #4]

; 629  : 
; 630  :     if ((pDevice == NULL) || (bank >= NB_BANK) || (pin >= NB_PIN_PER_BANK))    

  00dd0	e59d3004	 ldr         r3, [sp, #4]
  00dd4	e3530000	 cmp         r3, #0
  00dd8	0a000005	 beq         |$LN2@Tca6416Gpi@9|
  00ddc	e59d300c	 ldr         r3, [sp, #0xC]
  00de0	e3530002	 cmp         r3, #2
  00de4	aa000002	 bge         |$LN2@Tca6416Gpi@9|
  00de8	e59d3014	 ldr         r3, [sp, #0x14]
  00dec	e3530008	 cmp         r3, #8
  00df0	ba000001	 blt         |$LN3@Tca6416Gpi@9|
  00df4		 |$LN2@Tca6416Gpi@9|

; 631  :     {
; 632  :         goto cleanUp;

  00df4	ea00001b	 b           |$LN1@Tca6416Gpi@9|
  00df8	ea00001a	 b           |$cleanUp$37194|
  00dfc		 |$LN3@Tca6416Gpi@9|

; 633  :     }    
; 634  :     
; 635  :     EnterCriticalSection(&pDevice->bankCs[bank]);

  00dfc	e59d3004	 ldr         r3, [sp, #4]
  00e00	e2831028	 add         r1, r3, #0x28
  00e04	e59d200c	 ldr         r2, [sp, #0xC]
  00e08	e3a03014	 mov         r3, #0x14
  00e0c	e0030392	 mul         r3, r2, r3
  00e10	e0810003	 add         r0, r1, r3
  00e14	eb000000	 bl          EnterCriticalSection

; 636  :     rc = TCA6416SetRegMaskedValue(
; 637  :         pDevice->hI2C,
; 638  :         OUTPUT_PORT(bank),
; 639  :         mask,
; 640  :         mask,
; 641  :         FALSE);

  00e18	e3a03000	 mov         r3, #0
  00e1c	e58d3000	 str         r3, [sp]
  00e20	e5dd3010	 ldrb        r3, [sp, #0x10]
  00e24	e5dd2010	 ldrb        r2, [sp, #0x10]
  00e28	e59d100c	 ldr         r1, [sp, #0xC]
  00e2c	e2811002	 add         r1, r1, #2
  00e30	e59d0004	 ldr         r0, [sp, #4]
  00e34	e2800010	 add         r0, r0, #0x10
  00e38	e5900000	 ldr         r0, [r0]
  00e3c	eb000000	 bl          |?TCA6416SetRegMaskedValue@@YAHPAXKEEH@Z|
  00e40	e58d0020	 str         r0, [sp, #0x20]
  00e44	e59d3020	 ldr         r3, [sp, #0x20]
  00e48	e58d3008	 str         r3, [sp, #8]

; 642  :     LeaveCriticalSection(&pDevice->bankCs[bank]);

  00e4c	e59d3004	 ldr         r3, [sp, #4]
  00e50	e2831028	 add         r1, r3, #0x28
  00e54	e59d200c	 ldr         r2, [sp, #0xC]
  00e58	e3a03014	 mov         r3, #0x14
  00e5c	e0030392	 mul         r3, r2, r3
  00e60	e0810003	 add         r0, r1, r3
  00e64	eb000000	 bl          LeaveCriticalSection
  00e68		 |$LN1@Tca6416Gpi@9|
  00e68		 |$cleanUp$37194|

; 643  : 
; 644  : cleanUp:
; 645  :     return rc;   

  00e68	e59d3008	 ldr         r3, [sp, #8]
  00e6c	e58d301c	 str         r3, [sp, #0x1C]

; 646  : }

  00e70	e59d001c	 ldr         r0, [sp, #0x1C]
  00e74	e28dd024	 add         sp, sp, #0x24
  00e78	e89d6000	 ldmia       sp, {sp, lr}
  00e7c	e12fff1e	 bx          lr
  00e80		 |$M37618|

			 ENDP  ; |?Tca6416GpioSetBit@@YAHPAXI@Z|, Tca6416GpioSetBit


  00070			 AREA	 |.pdata|, PDATA
|$T37627| DCD	|$LN8@Tca6416Gpi@10|
	DCD	0x40004304
; Function compile flags: /Odtp

  00e80			 AREA	 |.text|, CODE, ARM

  00e80		 |?Tca6416GpioClrBit@@YAHPAXI@Z| PROC	; Tca6416GpioClrBit

; 657  : {

  00e80		 |$LN8@Tca6416Gpi@10|
  00e80	e1a0c00d	 mov         r12, sp
  00e84	e92d0003	 stmdb       sp!, {r0, r1}
  00e88	e92d5000	 stmdb       sp!, {r12, lr}
  00e8c	e24dd024	 sub         sp, sp, #0x24
  00e90		 |$M37624|

; 658  :     BOOL rc = FALSE;

  00e90	e3a03000	 mov         r3, #0
  00e94	e58d3008	 str         r3, [sp, #8]

; 659  :     int bank = id / NB_PIN_PER_BANK;

  00e98	e59d1030	 ldr         r1, [sp, #0x30]
  00e9c	e3a00008	 mov         r0, #8
  00ea0	eb000000	 bl          __rt_udiv
  00ea4	e58d000c	 str         r0, [sp, #0xC]

; 660  :     int pin = id - (bank*NB_PIN_PER_BANK);

  00ea8	e59d100c	 ldr         r1, [sp, #0xC]
  00eac	e3a03008	 mov         r3, #8
  00eb0	e0020391	 mul         r2, r1, r3
  00eb4	e59d3030	 ldr         r3, [sp, #0x30]
  00eb8	e0433002	 sub         r3, r3, r2
  00ebc	e58d3014	 str         r3, [sp, #0x14]

; 661  :     UCHAR mask = (UCHAR) (1<<pin);

  00ec0	e59d2014	 ldr         r2, [sp, #0x14]
  00ec4	e3a03001	 mov         r3, #1
  00ec8	e1a03213	 mov         r3, r3, lsl r2
  00ecc	e20330ff	 and         r3, r3, #0xFF
  00ed0	e5cd3010	 strb        r3, [sp, #0x10]

; 662  : 
; 663  :     TCA6416_DEVICE *pDevice = (TCA6416_DEVICE*)context;

  00ed4	e59d302c	 ldr         r3, [sp, #0x2C]
  00ed8	e58d3004	 str         r3, [sp, #4]

; 664  : 
; 665  :     if ((pDevice == NULL) || (bank >= NB_BANK) || (pin >= NB_PIN_PER_BANK))    

  00edc	e59d3004	 ldr         r3, [sp, #4]
  00ee0	e3530000	 cmp         r3, #0
  00ee4	0a000005	 beq         |$LN2@Tca6416Gpi@10|
  00ee8	e59d300c	 ldr         r3, [sp, #0xC]
  00eec	e3530002	 cmp         r3, #2
  00ef0	aa000002	 bge         |$LN2@Tca6416Gpi@10|
  00ef4	e59d3014	 ldr         r3, [sp, #0x14]
  00ef8	e3530008	 cmp         r3, #8
  00efc	ba000001	 blt         |$LN3@Tca6416Gpi@10|
  00f00		 |$LN2@Tca6416Gpi@10|

; 666  :     {
; 667  :         goto cleanUp;

  00f00	ea00001b	 b           |$LN1@Tca6416Gpi@10|
  00f04	ea00001a	 b           |$cleanUp$37209|
  00f08		 |$LN3@Tca6416Gpi@10|

; 668  :     }    
; 669  :     
; 670  :     EnterCriticalSection(&pDevice->bankCs[bank]);

  00f08	e59d3004	 ldr         r3, [sp, #4]
  00f0c	e2831028	 add         r1, r3, #0x28
  00f10	e59d200c	 ldr         r2, [sp, #0xC]
  00f14	e3a03014	 mov         r3, #0x14
  00f18	e0030392	 mul         r3, r2, r3
  00f1c	e0810003	 add         r0, r1, r3
  00f20	eb000000	 bl          EnterCriticalSection

; 671  :     rc = TCA6416SetRegMaskedValue(
; 672  :         pDevice->hI2C,
; 673  :         OUTPUT_PORT(bank),
; 674  :         0,
; 675  :         mask,
; 676  :         FALSE);

  00f24	e3a03000	 mov         r3, #0
  00f28	e58d3000	 str         r3, [sp]
  00f2c	e5dd3010	 ldrb        r3, [sp, #0x10]
  00f30	e3a02000	 mov         r2, #0
  00f34	e59d100c	 ldr         r1, [sp, #0xC]
  00f38	e2811002	 add         r1, r1, #2
  00f3c	e59d0004	 ldr         r0, [sp, #4]
  00f40	e2800010	 add         r0, r0, #0x10
  00f44	e5900000	 ldr         r0, [r0]
  00f48	eb000000	 bl          |?TCA6416SetRegMaskedValue@@YAHPAXKEEH@Z|
  00f4c	e58d0020	 str         r0, [sp, #0x20]
  00f50	e59d3020	 ldr         r3, [sp, #0x20]
  00f54	e58d3008	 str         r3, [sp, #8]

; 677  :     LeaveCriticalSection(&pDevice->bankCs[bank]);

  00f58	e59d3004	 ldr         r3, [sp, #4]
  00f5c	e2831028	 add         r1, r3, #0x28
  00f60	e59d200c	 ldr         r2, [sp, #0xC]
  00f64	e3a03014	 mov         r3, #0x14
  00f68	e0030392	 mul         r3, r2, r3
  00f6c	e0810003	 add         r0, r1, r3
  00f70	eb000000	 bl          LeaveCriticalSection
  00f74		 |$LN1@Tca6416Gpi@10|
  00f74		 |$cleanUp$37209|

; 678  : 
; 679  : cleanUp:
; 680  :     return rc;

  00f74	e59d3008	 ldr         r3, [sp, #8]
  00f78	e58d301c	 str         r3, [sp, #0x1C]

; 681  : }

  00f7c	e59d001c	 ldr         r0, [sp, #0x1C]
  00f80	e28dd024	 add         sp, sp, #0x24
  00f84	e89d6000	 ldmia       sp, {sp, lr}
  00f88	e12fff1e	 bx          lr
  00f8c		 |$M37625|

			 ENDP  ; |?Tca6416GpioClrBit@@YAHPAXI@Z|, Tca6416GpioClrBit


  00078			 AREA	 |.pdata|, PDATA
|$T37633| DCD	|$LN11@Tca6416Gpi@11|
	DCD	0x40003a04
; Function compile flags: /Odtp

  00f8c			 AREA	 |.text|, CODE, ARM

  00f8c		 |?Tca6416GpioGetBit@@YAKPAXI@Z| PROC	; Tca6416GpioGetBit

; 692  : {

  00f8c		 |$LN11@Tca6416Gpi@11|
  00f8c	e1a0c00d	 mov         r12, sp
  00f90	e92d0003	 stmdb       sp!, {r0, r1}
  00f94	e92d5000	 stmdb       sp!, {r12, lr}
  00f98	e24dd01c	 sub         sp, sp, #0x1C
  00f9c		 |$M37630|

; 693  :     DWORD value = (DWORD) -1;

  00f9c	e3e03000	 mvn         r3, #0
  00fa0	e58d3004	 str         r3, [sp, #4]

; 694  :     UCHAR input;
; 695  :     int bank = id / NB_PIN_PER_BANK;

  00fa4	e59d1028	 ldr         r1, [sp, #0x28]
  00fa8	e3a00008	 mov         r0, #8
  00fac	eb000000	 bl          __rt_udiv
  00fb0	e58d0008	 str         r0, [sp, #8]

; 696  :     int pin = id - (bank*NB_PIN_PER_BANK);

  00fb4	e59d1008	 ldr         r1, [sp, #8]
  00fb8	e3a03008	 mov         r3, #8
  00fbc	e0020391	 mul         r2, r1, r3
  00fc0	e59d3028	 ldr         r3, [sp, #0x28]
  00fc4	e0433002	 sub         r3, r3, r2
  00fc8	e58d3010	 str         r3, [sp, #0x10]

; 697  : 
; 698  :     TCA6416_DEVICE *pDevice = (TCA6416_DEVICE*)context;

  00fcc	e59d3024	 ldr         r3, [sp, #0x24]
  00fd0	e58d3000	 str         r3, [sp]

; 699  : 
; 700  :     if ((pDevice == NULL) || (bank >= NB_BANK) || (pin >= NB_PIN_PER_BANK))    

  00fd4	e59d3000	 ldr         r3, [sp]
  00fd8	e3530000	 cmp         r3, #0
  00fdc	0a000005	 beq         |$LN5@Tca6416Gpi@11|
  00fe0	e59d3008	 ldr         r3, [sp, #8]
  00fe4	e3530002	 cmp         r3, #2
  00fe8	aa000002	 bge         |$LN5@Tca6416Gpi@11|
  00fec	e59d3010	 ldr         r3, [sp, #0x10]
  00ff0	e3530008	 cmp         r3, #8
  00ff4	ba000001	 blt         |$LN6@Tca6416Gpi@11|
  00ff8		 |$LN5@Tca6416Gpi@11|

; 701  :     {
; 702  :         goto cleanUp;

  00ff8	ea000017	 b           |$LN4@Tca6416Gpi@11|
  00ffc	ea000016	 b           |$cleanUp$37224|
  01000		 |$LN6@Tca6416Gpi@11|

; 703  :     }        
; 704  :     if (TCA6416I2CRead(pDevice->hI2C,INPUT_PORT(bank),&input,sizeof(input)) == sizeof(input))

  01000	e3a03001	 mov         r3, #1
  01004	e28d200c	 add         r2, sp, #0xC
  01008	e59d1008	 ldr         r1, [sp, #8]
  0100c	e59d0000	 ldr         r0, [sp]
  01010	e2800010	 add         r0, r0, #0x10
  01014	e5900000	 ldr         r0, [r0]
  01018	eb000000	 bl          |?TCA6416I2CRead@@YAIPAXI0I@Z|
  0101c	e58d0018	 str         r0, [sp, #0x18]
  01020	e59d3018	 ldr         r3, [sp, #0x18]
  01024	e3530001	 cmp         r3, #1
  01028	1a00000b	 bne         |$LN3@Tca6416Gpi@11|

; 705  :     {
; 706  :         if (input & (1<<pin))

  0102c	e5dd300c	 ldrb        r3, [sp, #0xC]
  01030	e1a01003	 mov         r1, r3
  01034	e59d2010	 ldr         r2, [sp, #0x10]
  01038	e3a03001	 mov         r3, #1
  0103c	e1a03213	 mov         r3, r3, lsl r2
  01040	e1110003	 tst         r1, r3
  01044	0a000002	 beq         |$LN2@Tca6416Gpi@11|

; 707  :         {
; 708  :             value = 1;

  01048	e3a03001	 mov         r3, #1
  0104c	e58d3004	 str         r3, [sp, #4]

; 709  :         }
; 710  :         else

  01050	ea000001	 b           |$LN1@Tca6416Gpi@11|
  01054		 |$LN2@Tca6416Gpi@11|

; 711  :         {
; 712  :             value = 0;

  01054	e3a03000	 mov         r3, #0
  01058	e58d3004	 str         r3, [sp, #4]
  0105c		 |$LN1@Tca6416Gpi@11|
  0105c		 |$LN3@Tca6416Gpi@11|
  0105c		 |$LN4@Tca6416Gpi@11|
  0105c		 |$cleanUp$37224|

; 713  :         }
; 714  :     }    
; 715  : 
; 716  : cleanUp:
; 717  :     return value;

  0105c	e59d3004	 ldr         r3, [sp, #4]
  01060	e58d3014	 str         r3, [sp, #0x14]

; 718  : }

  01064	e59d0014	 ldr         r0, [sp, #0x14]
  01068	e28dd01c	 add         sp, sp, #0x1C
  0106c	e89d6000	 ldmia       sp, {sp, lr}
  01070	e12fff1e	 bx          lr
  01074		 |$M37631|

			 ENDP  ; |?Tca6416GpioGetBit@@YAKPAXI@Z|, Tca6416GpioGetBit

	EXPORT	|??_C@_1EC@BOJACOF@?$AA?9?$AAT?$AAc?$AAa?$AA6?$AA4?$AA1?$AA6?$AAG?$AAp?$AAi?$AAo?$AAI?$AAO?$AAC?$AAo?$AAn?$AAt?$AAr?$AAo?$AAl?$AA?$CI?$AAr?$AAc?$AA?5?$AA?$DN?$AA?5?$AA?$CF?$AAd?$AA?$CJ?$AA?$AN?$AA?6@| [ DATA ] ; `string'
	EXPORT	|??_C@_1JM@GNDFDECH@?$AAE?$AAR?$AAR?$AAO?$AAR?$AA?3?$AA?5?$AAT?$AAc?$AAa?$AA6?$AA4?$AA1?$AA6?$AAG?$AAp?$AAi?$AAo?$AAI?$AAO?$AAC?$AAo?$AAn?$AAt?$AAr?$AAo?$AAl?$AA?3?$AA?5?$AAI?$AAO?$AAC@| [ DATA ] ; `string'
	EXPORT	|??_C@_1CI@OHCJFJPM@?$AAE?$AAR?$AAR?$AAO?$AAR?$AA?3?$AA?5?$AA?$CF?$AAs?$AA?5?$AAl?$AAi?$AAn?$AAe?$AA?5?$AA?$CF?$AAd?$AA?3?$AA?5?$AA?$AA@| [ DATA ] ; `string'
	EXPORT	|??_C@_1MA@CAJGLBPC@?$AAC?$AA?3?$AA?2?$AAW?$AAI?$AAN?$AAC?$AAE?$AA6?$AA0?$AA0?$AA?2?$AAP?$AAL?$AAA?$AAT?$AAF?$AAO?$AAR?$AAM?$AA?2?$AAC?$AAO?$AAM?$AAM?$AAO?$AAN?$AA?2?$AAS?$AAR?$AAC?$AA?2@| [ DATA ] ; `string'
	EXPORT	|?IsEqualGUID@@YAHABU_GUID@@0@Z|	; IsEqualGUID
	EXPORT	|??_C@_1OG@DMBHACEF@?$AAE?$AAR?$AAR?$AAO?$AAR?$AA?3?$AA?5?$AAG?$AAI?$AAO?$AA_?$AAI?$AAO?$AAC?$AAo?$AAn?$AAt?$AAr?$AAo?$AAl?$AA?3?$AA?5?$AAI?$AAO?$AAC?$AAT?$AAL?$AA_?$AAD?$AAD?$AAK?$AA_@| [ DATA ] ; `string'
	EXPORT	|GetCurrentProcessId|
	EXPORT	|??_C@_1HG@BCELEOKM@?$AAE?$AAR?$AAR?$AAO?$AAR?$AA?3?$AA?5?$AAT?$AAc?$AAa?$AA6?$AA4?$AA1?$AA6?$AAG?$AAp?$AAi?$AAo?$AAI?$AAO?$AAC?$AAo?$AAn?$AAt?$AAr?$AAo?$AAl?$AA?3?$AA?5?$AAI?$AAn?$AAc@| [ DATA ] ; `string'
	EXPORT	|??_C@_1JA@HKNFLLDK@?$AA?$CL?$AAT?$AAc?$AAa?$AA6?$AA4?$AA1?$AA6?$AAG?$AAp?$AAi?$AAo?$AAI?$AAO?$AAC?$AAo?$AAn?$AAt?$AAr?$AAo?$AAl?$AA?$CI?$AA0?$AAx?$AA?$CF?$AA0?$AA8?$AAx?$AA?0?$AA?5?$AA0?$AAx@| [ DATA ] ; `string'
	IMPORT	|CeSafeCopyMemory|
	IMPORT	|SetLastError|
	IMPORT	|GetCallerProcess|

  00080			 AREA	 |.pdata|, PDATA
|$T37657| DCD	|$LN61@Tca6416Gpi@12|
	DCD	0x4001fc04

  00000			 AREA	 |.rdata|, DATA, READONLY
|??_C@_1EC@BOJACOF@?$AA?9?$AAT?$AAc?$AAa?$AA6?$AA4?$AA1?$AA6?$AAG?$AAp?$AAi?$AAo?$AAI?$AAO?$AAC?$AAo?$AAn?$AAt?$AAr?$AAo?$AAl?$AA?$CI?$AAr?$AAc?$AA?5?$AA?$DN?$AA?5?$AA?$CF?$AAd?$AA?$CJ?$AA?$AN?$AA?6@| DCB "-"
	DCB	0x0, "T", 0x0, "c", 0x0, "a", 0x0, "6", 0x0, "4", 0x0, "1"
	DCB	0x0, "6", 0x0, "G", 0x0, "p", 0x0, "i", 0x0, "o", 0x0, "I"
	DCB	0x0, "O", 0x0, "C", 0x0, "o", 0x0, "n", 0x0, "t", 0x0, "r"
	DCB	0x0, "o", 0x0, "l", 0x0, "(", 0x0, "r", 0x0, "c", 0x0, " "
	DCB	0x0, "=", 0x0, " ", 0x0, "%", 0x0, "d", 0x0, ")", 0x0, 0xd
	DCB	0x0, 0xa, 0x0, 0x0, 0x0			; `string'

  00000			 AREA	 |.rdata|, DATA, READONLY
|??_C@_1JM@GNDFDECH@?$AAE?$AAR?$AAR?$AAO?$AAR?$AA?3?$AA?5?$AAT?$AAc?$AAa?$AA6?$AA4?$AA1?$AA6?$AAG?$AAp?$AAi?$AAo?$AAI?$AAO?$AAC?$AAo?$AAn?$AAt?$AAr?$AAo?$AAl?$AA?3?$AA?5?$AAI?$AAO?$AAC@| DCB "E"
	DCB	0x0, "R", 0x0, "R", 0x0, "O", 0x0, "R", 0x0, ":", 0x0, " "
	DCB	0x0, "T", 0x0, "c", 0x0, "a", 0x0, "6", 0x0, "4", 0x0, "1"
	DCB	0x0, "6", 0x0, "G", 0x0, "p", 0x0, "i", 0x0, "o", 0x0, "I"
	DCB	0x0, "O", 0x0, "C", 0x0, "o", 0x0, "n", 0x0, "t", 0x0, "r"
	DCB	0x0, "o", 0x0, "l", 0x0, ":", 0x0, " ", 0x0, "I", 0x0, "O"
	DCB	0x0, "C", 0x0, "T", 0x0, "L", 0x0, "_", 0x0, "G", 0x0, "P"
	DCB	0x0, "I", 0x0, "O", 0x0, "_", 0x0, "S", 0x0, "E", 0x0, "T"
	DCB	0x0, "_", 0x0, "P", 0x0, "O", 0x0, "W", 0x0, "E", 0x0, "R"
	DCB	0x0, "_", 0x0, "S", 0x0, "T", 0x0, "A", 0x0, "T", 0x0, "E"
	DCB	0x0, " ", 0x0, "-", 0x0, " ", 0x0, "I", 0x0, "n", 0x0, "v"
	DCB	0x0, "a", 0x0, "l", 0x0, "i", 0x0, "d", 0x0, " ", 0x0, "p"
	DCB	0x0, "a", 0x0, "r", 0x0, "a", 0x0, "m", 0x0, "e", 0x0, "t"
	DCB	0x0, "e", 0x0, "r", 0x0, 0xd, 0x0, 0xa, 0x0, 0x0, 0x0 ; `string'

  00000			 AREA	 |.rdata|, DATA, READONLY
|??_C@_1CI@OHCJFJPM@?$AAE?$AAR?$AAR?$AAO?$AAR?$AA?3?$AA?5?$AA?$CF?$AAs?$AA?5?$AAl?$AAi?$AAn?$AAe?$AA?5?$AA?$CF?$AAd?$AA?3?$AA?5?$AA?$AA@| DCB "E"
	DCB	0x0, "R", 0x0, "R", 0x0, "O", 0x0, "R", 0x0, ":", 0x0, " "
	DCB	0x0, "%", 0x0, "s", 0x0, " ", 0x0, "l", 0x0, "i", 0x0, "n"
	DCB	0x0, "e", 0x0, " ", 0x0, "%", 0x0, "d", 0x0, ":", 0x0, " "
	DCB	0x0, 0x0, 0x0				; `string'

  00000			 AREA	 |.rdata|, DATA, READONLY
|??_C@_1MA@CAJGLBPC@?$AAC?$AA?3?$AA?2?$AAW?$AAI?$AAN?$AAC?$AAE?$AA6?$AA0?$AA0?$AA?2?$AAP?$AAL?$AAA?$AAT?$AAF?$AAO?$AAR?$AAM?$AA?2?$AAC?$AAO?$AAM?$AAM?$AAO?$AAN?$AA?2?$AAS?$AAR?$AAC?$AA?2@| DCB "C"
	DCB	0x0, ":", 0x0, "\\", 0x0, "W", 0x0, "I", 0x0, "N", 0x0, "C"
	DCB	0x0, "E", 0x0, "6", 0x0, "0", 0x0, "0", 0x0, "\\", 0x0, "P"
	DCB	0x0, "L", 0x0, "A", 0x0, "T", 0x0, "F", 0x0, "O", 0x0, "R"
	DCB	0x0, "M", 0x0, "\\", 0x0, "C", 0x0, "O", 0x0, "M", 0x0, "M"
	DCB	0x0, "O", 0x0, "N", 0x0, "\\", 0x0, "S", 0x0, "R", 0x0, "C"
	DCB	0x0, "\\", 0x0, "S", 0x0, "O", 0x0, "C", 0x0, "\\", 0x0, "C"
	DCB	0x0, "O", 0x0, "M", 0x0, "M", 0x0, "O", 0x0, "N", 0x0, "_"
	DCB	0x0, "T", 0x0, "I", 0x0, "_", 0x0, "V", 0x0, "1", 0x0, "\\"
	DCB	0x0, "C", 0x0, "O", 0x0, "M", 0x0, "M", 0x0, "O", 0x0, "N"
	DCB	0x0, "_", 0x0, "T", 0x0, "I", 0x0, "\\", 0x0, "G", 0x0, "P"
	DCB	0x0, "I", 0x0, "O", 0x0, "\\", 0x0, "T", 0x0, "C", 0x0, "A"
	DCB	0x0, "6", 0x0, "4", 0x0, "1", 0x0, "6", 0x0, "_", 0x0, "G"
	DCB	0x0, "P", 0x0, "I", 0x0, "O", 0x0, "\\", 0x0, ".", 0x0, "\\"
	DCB	0x0, "t", 0x0, "c", 0x0, "a", 0x0, "6", 0x0, "4", 0x0, "1"
	DCB	0x0, "6", 0x0, "_", 0x0, "g", 0x0, "p", 0x0, "i", 0x0, "o"
	DCB	0x0, ".", 0x0, "c", 0x0, "p", 0x0, "p", 0x0, 0x0, 0x0 ; `string'

  00000			 AREA	 |.rdata|, DATA, READONLY
|??_C@_1OG@DMBHACEF@?$AAE?$AAR?$AAR?$AAO?$AAR?$AA?3?$AA?5?$AAG?$AAI?$AAO?$AA_?$AAI?$AAO?$AAC?$AAo?$AAn?$AAt?$AAr?$AAo?$AAl?$AA?3?$AA?5?$AAI?$AAO?$AAC?$AAT?$AAL?$AA_?$AAD?$AAD?$AAK?$AA_@| DCB "E"
	DCB	0x0, "R", 0x0, "R", 0x0, "O", 0x0, "R", 0x0, ":", 0x0, " "
	DCB	0x0, "G", 0x0, "I", 0x0, "O", 0x0, "_", 0x0, "I", 0x0, "O"
	DCB	0x0, "C", 0x0, "o", 0x0, "n", 0x0, "t", 0x0, "r", 0x0, "o"
	DCB	0x0, "l", 0x0, ":", 0x0, " ", 0x0, "I", 0x0, "O", 0x0, "C"
	DCB	0x0, "T", 0x0, "L", 0x0, "_", 0x0, "D", 0x0, "D", 0x0, "K"
	DCB	0x0, "_", 0x0, "G", 0x0, "E", 0x0, "T", 0x0, "_", 0x0, "D"
	DCB	0x0, "R", 0x0, "I", 0x0, "V", 0x0, "E", 0x0, "R", 0x0, "_"
	DCB	0x0, "I", 0x0, "F", 0x0, "C", 0x0, " ", 0x0, "c", 0x0, "a"
	DCB	0x0, "n", 0x0, " ", 0x0, "b", 0x0, "e", 0x0, " ", 0x0, "c"
	DCB	0x0, "a", 0x0, "l", 0x0, "l", 0x0, "e", 0x0, "d", 0x0, " "
	DCB	0x0, "o", 0x0, "n", 0x0, "l", 0x0, "y", 0x0, " ", 0x0, "f"
	DCB	0x0, "r", 0x0, "o", 0x0, "m", 0x0, " ", 0x0, "d", 0x0, "e"
	DCB	0x0, "v", 0x0, "i", 0x0, "c", 0x0, "e", 0x0, " ", 0x0, "p"
	DCB	0x0, "r", 0x0, "o", 0x0, "c", 0x0, "e", 0x0, "s", 0x0, "s"
	DCB	0x0, " ", 0x0, "(", 0x0, "c", 0x0, "a", 0x0, "l", 0x0, "l"
	DCB	0x0, "e", 0x0, "r", 0x0, " ", 0x0, "p", 0x0, "r", 0x0, "o"
	DCB	0x0, "c", 0x0, "e", 0x0, "s", 0x0, "s", 0x0, " ", 0x0, "i"
	DCB	0x0, "d", 0x0, " ", 0x0, "0", 0x0, "x", 0x0, "%", 0x0, "0"
	DCB	0x0, "8", 0x0, "x", 0x0, ")", 0x0, 0xd, 0x0, 0xa, 0x0, 0x0
	DCB	0x0					; `string'

  00000			 AREA	 |.rdata|, DATA, READONLY
|??_C@_1HG@BCELEOKM@?$AAE?$AAR?$AAR?$AAO?$AAR?$AA?3?$AA?5?$AAT?$AAc?$AAa?$AA6?$AA4?$AA1?$AA6?$AAG?$AAp?$AAi?$AAo?$AAI?$AAO?$AAC?$AAo?$AAn?$AAt?$AAr?$AAo?$AAl?$AA?3?$AA?5?$AAI?$AAn?$AAc@| DCB "E"
	DCB	0x0, "R", 0x0, "R", 0x0, "O", 0x0, "R", 0x0, ":", 0x0, " "
	DCB	0x0, "T", 0x0, "c", 0x0, "a", 0x0, "6", 0x0, "4", 0x0, "1"
	DCB	0x0, "6", 0x0, "G", 0x0, "p", 0x0, "i", 0x0, "o", 0x0, "I"
	DCB	0x0, "O", 0x0, "C", 0x0, "o", 0x0, "n", 0x0, "t", 0x0, "r"
	DCB	0x0, "o", 0x0, "l", 0x0, ":", 0x0, " ", 0x0, "I", 0x0, "n"
	DCB	0x0, "c", 0x0, "o", 0x0, "r", 0x0, "r", 0x0, "e", 0x0, "c"
	DCB	0x0, "t", 0x0, " ", 0x0, "c", 0x0, "o", 0x0, "n", 0x0, "t"
	DCB	0x0, "e", 0x0, "x", 0x0, "t", 0x0, " ", 0x0, "p", 0x0, "a"
	DCB	0x0, "r", 0x0, "a", 0x0, "m", 0x0, "e", 0x0, "t", 0x0, "e"
	DCB	0x0, "r", 0x0, 0xd, 0x0, 0xa, 0x0, 0x0, 0x0 ; `string'

  00000			 AREA	 |.rdata|, DATA, READONLY
|??_C@_1JA@HKNFLLDK@?$AA?$CL?$AAT?$AAc?$AAa?$AA6?$AA4?$AA1?$AA6?$AAG?$AAp?$AAi?$AAo?$AAI?$AAO?$AAC?$AAo?$AAn?$AAt?$AAr?$AAo?$AAl?$AA?$CI?$AA0?$AAx?$AA?$CF?$AA0?$AA8?$AAx?$AA?0?$AA?5?$AA0?$AAx@| DCB "+"
	DCB	0x0, "T", 0x0, "c", 0x0, "a", 0x0, "6", 0x0, "4", 0x0, "1"
	DCB	0x0, "6", 0x0, "G", 0x0, "p", 0x0, "i", 0x0, "o", 0x0, "I"
	DCB	0x0, "O", 0x0, "C", 0x0, "o", 0x0, "n", 0x0, "t", 0x0, "r"
	DCB	0x0, "o", 0x0, "l", 0x0, "(", 0x0, "0", 0x0, "x", 0x0, "%"
	DCB	0x0, "0", 0x0, "8", 0x0, "x", 0x0, ",", 0x0, " ", 0x0, "0"
	DCB	0x0, "x", 0x0, "%", 0x0, "0", 0x0, "8", 0x0, "x", 0x0, ","
	DCB	0x0, " ", 0x0, "0", 0x0, "x", 0x0, "%", 0x0, "0", 0x0, "8"
	DCB	0x0, "x", 0x0, ",", 0x0, " ", 0x0, "%", 0x0, "d", 0x0, ","
	DCB	0x0, " ", 0x0, "0", 0x0, "x", 0x0, "%", 0x0, "0", 0x0, "8"
	DCB	0x0, "x", 0x0, ",", 0x0, " ", 0x0, "%", 0x0, "d", 0x0, ","
	DCB	0x0, " ", 0x0, "0", 0x0, "x", 0x0, "%", 0x0, "0", 0x0, "8"
	DCB	0x0, "x", 0x0, ")", 0x0, 0xd, 0x0, 0xa, 0x0, 0x0, 0x0 ; `string'
; Function compile flags: /Odtp

  01074			 AREA	 |.text|, CODE, ARM

  01074		 |?Tca6416GpioIoControl@@YAHPAXIPAEI1IPAK@Z| PROC ; Tca6416GpioIoControl

; 736  : {

  01074		 |$LN61@Tca6416Gpi@12|
  01074	e1a0c00d	 mov         r12, sp
  01078	e92d000f	 stmdb       sp!, {r0 - r3}
  0107c	e92d5000	 stmdb       sp!, {r12, lr}
  01080	e24dd0e0	 sub         sp, sp, #0xE0
  01084		 |$M37654|

; 737  : #ifdef DEVICE
; 738  :     UINT id;
; 739  :     DWORD value,mode;
; 740  :     DEVICE_IFC_GPIO ifc;
; 741  :     BOOL rc = FALSE;

  01084	e3a03000	 mov         r3, #0
  01088	e58d3018	 str         r3, [sp, #0x18]

; 742  :     TCA6416_DEVICE *pDevice = (TCA6416_DEVICE*)context;

  0108c	e59d30e8	 ldr         r3, [sp, #0xE8]
  01090	e58d3010	 str         r3, [sp, #0x10]

; 743  : 
; 744  :     UNREFERENCED_PARAMETER(pOutSize);
; 745  : 
; 746  :     DEBUGMSG(ZONE_FUNCTION, (
; 747  :         L"+Tca6416GpioIOControl(0x%08x, 0x%08x, 0x%08x, %d, 0x%08x, %d, 0x%08x)\r\n",
; 748  :         context, code, pInBuffer, inSize, pOutBuffer, outSize, pOutSize
; 749  :         ));

  01094	e59f3760	 ldr         r3, [pc, #0x760]
  01098	e5933440	 ldr         r3, [r3, #0x440]
  0109c	e3130004	 tst         r3, #4
  010a0	0a00000f	 beq         |$LN45@Tca6416Gpi@12|
  010a4	e59d3100	 ldr         r3, [sp, #0x100]
  010a8	e58d300c	 str         r3, [sp, #0xC]
  010ac	e59d30fc	 ldr         r3, [sp, #0xFC]
  010b0	e58d3008	 str         r3, [sp, #8]
  010b4	e59d30f8	 ldr         r3, [sp, #0xF8]
  010b8	e58d3004	 str         r3, [sp, #4]
  010bc	e59d30f4	 ldr         r3, [sp, #0xF4]
  010c0	e58d3000	 str         r3, [sp]
  010c4	e59d30f0	 ldr         r3, [sp, #0xF0]
  010c8	e59d20ec	 ldr         r2, [sp, #0xEC]
  010cc	e59d10e8	 ldr         r1, [sp, #0xE8]
  010d0	e59f0788	 ldr         r0, [pc, #0x788]
  010d4	eb000000	 bl          NKDbgPrintfW
  010d8	e3a03001	 mov         r3, #1
  010dc	e58d3088	 str         r3, [sp, #0x88]
  010e0	ea000001	 b           |$LN46@Tca6416Gpi@12|
  010e4		 |$LN45@Tca6416Gpi@12|
  010e4	e3a03000	 mov         r3, #0
  010e8	e58d3088	 str         r3, [sp, #0x88]
  010ec		 |$LN46@Tca6416Gpi@12|

; 750  : 
; 751  :     // Check if we get correct context
; 752  :     if (pDevice == NULL)

  010ec	e59d3010	 ldr         r3, [sp, #0x10]
  010f0	e3530000	 cmp         r3, #0
  010f4	1a00000c	 bne         |$LN42@Tca6416Gpi@12|

; 753  :     {
; 754  :         DEBUGMSG(ZONE_ERROR, (L"ERROR: Tca6416GpioIOControl: "
; 755  :             L"Incorrect context parameter\r\n"
; 756  :             ));

  010f8	e59f36fc	 ldr         r3, [pc, #0x6FC]
  010fc	e5933440	 ldr         r3, [r3, #0x440]
  01100	e3130001	 tst         r3, #1
  01104	0a000004	 beq         |$LN47@Tca6416Gpi@12|
  01108	e59f074c	 ldr         r0, [pc, #0x74C]
  0110c	eb000000	 bl          NKDbgPrintfW
  01110	e3a03001	 mov         r3, #1
  01114	e58d308c	 str         r3, [sp, #0x8C]
  01118	ea000001	 b           |$LN48@Tca6416Gpi@12|
  0111c		 |$LN47@Tca6416Gpi@12|
  0111c	e3a03000	 mov         r3, #0
  01120	e58d308c	 str         r3, [sp, #0x8C]
  01124		 |$LN48@Tca6416Gpi@12|

; 757  :         goto cleanUp;

  01124	ea0001a1	 b           |$LN41@Tca6416Gpi@12|
  01128	ea0001a0	 b           |$cleanUp$37250|
  0112c		 |$LN42@Tca6416Gpi@12|

; 758  :     }
; 759  :     switch (code)

  0112c	e59d30ec	 ldr         r3, [sp, #0xEC]
  01130	e58d3090	 str         r3, [sp, #0x90]
  01134	e59d2090	 ldr         r2, [sp, #0x90]
  01138	e3a03822	 mov         r3, #0x22, 16
  0113c	e3833ec1	 orr         r3, r3, #0xC1, 28
  01140	e1520003	 cmp         r2, r3
  01144	8a00001c	 bhi         |$LN55@Tca6416Gpi@12|
  01148	e59d2090	 ldr         r2, [sp, #0x90]
  0114c	e3a03822	 mov         r3, #0x22, 16
  01150	e3833ec1	 orr         r3, r3, #0xC1, 28
  01154	e1520003	 cmp         r2, r3
  01158	0a0000f6	 beq         |$LN15@Tca6416Gpi@12|
  0115c	e59d2090	 ldr         r2, [sp, #0x90]
  01160	e59f36f0	 ldr         r3, [pc, #0x6F0]
  01164	e1520003	 cmp         r2, r3
  01168	8a00000e	 bhi         |$LN56@Tca6416Gpi@12|
  0116c	e59d2090	 ldr         r2, [sp, #0x90]
  01170	e59f36e0	 ldr         r3, [pc, #0x6E0]
  01174	e1520003	 cmp         r2, r3
  01178	0a0000a0	 beq         |$LN24@Tca6416Gpi@12|
  0117c	e59d2090	 ldr         r2, [sp, #0x90]
  01180	e3a03822	 mov         r3, #0x22, 16
  01184	e3833b01	 orr         r3, r3, #1, 22
  01188	e1520003	 cmp         r2, r3
  0118c	0a000018	 beq         |$LN38@Tca6416Gpi@12|
  01190	e59d2090	 ldr         r2, [sp, #0x90]
  01194	e3a03822	 mov         r3, #0x22, 16
  01198	e3833b03	 orr         r3, r3, #3, 22
  0119c	e1520003	 cmp         r2, r3
  011a0	0a000079	 beq         |$LN28@Tca6416Gpi@12|
  011a4	ea000181	 b           |$LN39@Tca6416Gpi@12|
  011a8		 |$LN56@Tca6416Gpi@12|
  011a8	e59d2090	 ldr         r2, [sp, #0x90]
  011ac	e59f36a0	 ldr         r3, [pc, #0x6A0]
  011b0	e1520003	 cmp         r2, r3
  011b4	0a0000ae	 beq         |$LN20@Tca6416Gpi@12|
  011b8	ea00017c	 b           |$LN39@Tca6416Gpi@12|
  011bc		 |$LN55@Tca6416Gpi@12|
  011bc	e59d2090	 ldr         r2, [sp, #0x90]
  011c0	e59f3688	 ldr         r3, [pc, #0x688]
  011c4	e1520003	 cmp         r2, r3
  011c8	0a000101	 beq         |$LN11@Tca6416Gpi@12|
  011cc	e59d2090	 ldr         r2, [sp, #0x90]
  011d0	e59f3674	 ldr         r3, [pc, #0x674]
  011d4	e1520003	 cmp         r2, r3
  011d8	0a00012e	 beq         |$LN6@Tca6416Gpi@12|
  011dc	e59d2090	 ldr         r2, [sp, #0x90]
  011e0	e3a03822	 mov         r3, #0x22, 16
  011e4	e3833ec2	 orr         r3, r3, #0xC2, 28
  011e8	e1520003	 cmp         r2, r3
  011ec	0a000144	 beq         |$LN3@Tca6416Gpi@12|
  011f0	ea00016e	 b           |$LN39@Tca6416Gpi@12|
  011f4		 |$LN38@Tca6416Gpi@12|

; 760  :     {
; 761  :     case IOCTL_DDK_GET_DRIVER_IFC:
; 762  :         // We can give interface only to our peer in device process
; 763  :         if (GetCurrentProcessId() != (DWORD)GetCallerProcess())

  011f4	eb000000	 bl          GetCurrentProcessId
  011f8	e58d0094	 str         r0, [sp, #0x94]
  011fc	eb000000	 bl          GetCallerProcess
  01200	e58d0098	 str         r0, [sp, #0x98]
  01204	e59d2094	 ldr         r2, [sp, #0x94]
  01208	e59d3098	 ldr         r3, [sp, #0x98]
  0120c	e1520003	 cmp         r2, r3
  01210	0a000011	 beq         |$LN37@Tca6416Gpi@12|

; 764  :         {
; 765  :             DEBUGMSG(ZONE_ERROR, (L"ERROR: GIO_IOControl: "
; 766  :                 L"IOCTL_DDK_GET_DRIVER_IFC can be called only from "
; 767  :                 L"device process (caller process id 0x%08x)\r\n",
; 768  :                 GetCurrentProcessId()
; 769  :                 ));

  01214	e59f35e0	 ldr         r3, [pc, #0x5E0]
  01218	e5933440	 ldr         r3, [r3, #0x440]
  0121c	e3130001	 tst         r3, #1
  01220	0a000007	 beq         |$LN49@Tca6416Gpi@12|
  01224	eb000000	 bl          GetCurrentProcessId
  01228	e58d009c	 str         r0, [sp, #0x9C]
  0122c	e59d109c	 ldr         r1, [sp, #0x9C]
  01230	e59f0610	 ldr         r0, [pc, #0x610]
  01234	eb000000	 bl          NKDbgPrintfW
  01238	e3a03001	 mov         r3, #1
  0123c	e58d30a0	 str         r3, [sp, #0xA0]
  01240	ea000001	 b           |$LN50@Tca6416Gpi@12|
  01244		 |$LN49@Tca6416Gpi@12|
  01244	e3a03000	 mov         r3, #0
  01248	e58d30a0	 str         r3, [sp, #0xA0]
  0124c		 |$LN50@Tca6416Gpi@12|

; 770  :             SetLastError(ERROR_ACCESS_DENIED);

  0124c	e3a00005	 mov         r0, #5
  01250	eb000000	 bl          SetLastError
  01254	ea000155	 b           |$LN36@Tca6416Gpi@12|

; 771  :             goto cleanUp;

  01258	ea000154	 b           |$cleanUp$37250|
  0125c		 |$LN37@Tca6416Gpi@12|

; 772  :         }
; 773  :         if ((pInBuffer == NULL) || (inSize < sizeof(GUID)))

  0125c	e59d30f0	 ldr         r3, [sp, #0xF0]
  01260	e3530000	 cmp         r3, #0
  01264	0a000002	 beq         |$LN34@Tca6416Gpi@12|
  01268	e59d30f4	 ldr         r3, [sp, #0xF4]
  0126c	e3530010	 cmp         r3, #0x10
  01270	2a000002	 bcs         |$LN35@Tca6416Gpi@12|
  01274		 |$LN34@Tca6416Gpi@12|

; 774  :         {
; 775  :             SetLastError(ERROR_INVALID_PARAMETER);

  01274	e3a00057	 mov         r0, #0x57
  01278	eb000000	 bl          SetLastError

; 776  :             break;

  0127c	ea00014b	 b           |$LN39@Tca6416Gpi@12|
  01280		 |$LN35@Tca6416Gpi@12|

; 777  :         }
; 778  :         if (IsEqualGUID(*(GUID*)pInBuffer, DEVICE_IFC_GPIO_GUID))

  01280	e59f15bc	 ldr         r1, [pc, #0x5BC]
  01284	e59d00f0	 ldr         r0, [sp, #0xF0]
  01288	eb000000	 bl          |?IsEqualGUID@@YAHABU_GUID@@0@Z|
  0128c	e58d00a4	 str         r0, [sp, #0xA4]
  01290	e59d30a4	 ldr         r3, [sp, #0xA4]
  01294	e3530000	 cmp         r3, #0
  01298	0a000038	 beq         |$LN33@Tca6416Gpi@12|

; 779  :         {
; 780  :             if (pOutSize != NULL) *pOutSize = sizeof(DEVICE_IFC_GPIO);

  0129c	e59d3100	 ldr         r3, [sp, #0x100]
  012a0	e3530000	 cmp         r3, #0
  012a4	0a000002	 beq         |$LN32@Tca6416Gpi@12|
  012a8	e59d2100	 ldr         r2, [sp, #0x100]
  012ac	e3a03048	 mov         r3, #0x48
  012b0	e5823000	 str         r3, [r2]
  012b4		 |$LN32@Tca6416Gpi@12|

; 781  :             if ((pOutBuffer == NULL) || (outSize < sizeof(DEVICE_IFC_GPIO)))

  012b4	e59d30f8	 ldr         r3, [sp, #0xF8]
  012b8	e3530000	 cmp         r3, #0
  012bc	0a000002	 beq         |$LN30@Tca6416Gpi@12|
  012c0	e59d30fc	 ldr         r3, [sp, #0xFC]
  012c4	e3530048	 cmp         r3, #0x48
  012c8	2a000002	 bcs         |$LN31@Tca6416Gpi@12|
  012cc		 |$LN30@Tca6416Gpi@12|

; 782  :             {
; 783  :                 SetLastError(ERROR_INVALID_PARAMETER);

  012cc	e3a00057	 mov         r0, #0x57
  012d0	eb000000	 bl          SetLastError

; 784  :                 break;

  012d4	ea000135	 b           |$LN39@Tca6416Gpi@12|
  012d8		 |$LN31@Tca6416Gpi@12|

; 785  :             }
; 786  :             ifc.context                 = context;

  012d8	e59d30e8	 ldr         r3, [sp, #0xE8]
  012dc	e58d3024	 str         r3, [sp, #0x24]

; 787  :             ifc.pfnSetBit               = Tca6416GpioSetBit;

  012e0	e59f3558	 ldr         r3, [pc, #0x558]
  012e4	e58d3034	 str         r3, [sp, #0x34]

; 788  :             ifc.pfnClrBit               = Tca6416GpioClrBit;

  012e8	e59f354c	 ldr         r3, [pc, #0x54C]
  012ec	e58d3038	 str         r3, [sp, #0x38]

; 789  :             ifc.pfnGetBit               = Tca6416GpioGetBit;

  012f0	e59f3540	 ldr         r3, [pc, #0x540]
  012f4	e58d303c	 str         r3, [sp, #0x3C]

; 790  :             ifc.pfnSetMode              = Tca6416GpioSetMode;

  012f8	e59f3534	 ldr         r3, [pc, #0x534]
  012fc	e58d3040	 str         r3, [sp, #0x40]

; 791  :             ifc.pfnGetMode              = Tca6416GpioGetMode;

  01300	e59f3528	 ldr         r3, [pc, #0x528]
  01304	e58d3044	 str         r3, [sp, #0x44]

; 792  :             ifc.pfnPullup               = Tca6416GpioPullup;

  01308	e59f351c	 ldr         r3, [pc, #0x51C]
  0130c	e58d3048	 str         r3, [sp, #0x48]

; 793  :             ifc.pfnPulldown             = Tca6416GpioPulldown;

  01310	e59f3510	 ldr         r3, [pc, #0x510]
  01314	e58d304c	 str         r3, [sp, #0x4C]

; 794  :             ifc.pfnInterruptInitialize  = Tca6416GpioInterruptInitialize;

  01318	e59f3504	 ldr         r3, [pc, #0x504]
  0131c	e58d3054	 str         r3, [sp, #0x54]

; 795  :             ifc.pfnInterruptMask        = Tca6416GpioInterruptMask;

  01320	e59f34f8	 ldr         r3, [pc, #0x4F8]
  01324	e58d3058	 str         r3, [sp, #0x58]

; 796  :             ifc.pfnInterruptDisable     = Tca6416GpioInterruptDisable;

  01328	e59f34ec	 ldr         r3, [pc, #0x4EC]
  0132c	e58d305c	 str         r3, [sp, #0x5C]

; 797  :             ifc.pfnInterruptDone        = Tca6416GpioInterruptDone;

  01330	e59f34e0	 ldr         r3, [pc, #0x4E0]
  01334	e58d3060	 str         r3, [sp, #0x60]

; 798  : 			ifc.pfnGetSystemIrq			= Tca6416GpioGetSystemIrq;

  01338	e59f34d4	 ldr         r3, [pc, #0x4D4]
  0133c	e58d3064	 str         r3, [sp, #0x64]

; 799  :             ifc.pfnInterruptWakeUp      = Tca6416GpioInterruptWakeUp;

  01340	e59f34c8	 ldr         r3, [pc, #0x4C8]
  01344	e58d3068	 str         r3, [sp, #0x68]

; 800  :             ifc.pfnIoControl            = Tca6416GpioIoControl;

  01348	e59f34bc	 ldr         r3, [pc, #0x4BC]
  0134c	e58d3050	 str         r3, [sp, #0x50]

; 801  : 
; 802  :             if (!CeSafeCopyMemory(pOutBuffer, &ifc, sizeof(ifc))) break;

  01350	e3a02048	 mov         r2, #0x48
  01354	e28d1024	 add         r1, sp, #0x24
  01358	e59d00f8	 ldr         r0, [sp, #0xF8]
  0135c	eb000000	 bl          CeSafeCopyMemory
  01360	e58d00a8	 str         r0, [sp, #0xA8]
  01364	e59d30a8	 ldr         r3, [sp, #0xA8]
  01368	e3530000	 cmp         r3, #0
  0136c	1a000000	 bne         |$LN29@Tca6416Gpi@12|
  01370	ea00010e	 b           |$LN39@Tca6416Gpi@12|
  01374		 |$LN29@Tca6416Gpi@12|

; 803  :             rc = TRUE;

  01374	e3a03001	 mov         r3, #1
  01378	e58d3018	 str         r3, [sp, #0x18]

; 804  :             break;

  0137c	ea00010b	 b           |$LN39@Tca6416Gpi@12|
  01380		 |$LN33@Tca6416Gpi@12|

; 805  :         }
; 806  :         SetLastError(ERROR_INVALID_PARAMETER);

  01380	e3a00057	 mov         r0, #0x57
  01384	eb000000	 bl          SetLastError

; 807  :         break;

  01388	ea000108	 b           |$LN39@Tca6416Gpi@12|
  0138c		 |$LN28@Tca6416Gpi@12|

; 808  : 
; 809  :     case IOCTL_GPIO_SETBIT:
; 810  :         if (pOutSize != 0) *pOutSize = 0;

  0138c	e59d3100	 ldr         r3, [sp, #0x100]
  01390	e3530000	 cmp         r3, #0
  01394	0a000002	 beq         |$LN27@Tca6416Gpi@12|
  01398	e59d2100	 ldr         r2, [sp, #0x100]
  0139c	e3a03000	 mov         r3, #0
  013a0	e5823000	 str         r3, [r2]
  013a4		 |$LN27@Tca6416Gpi@12|

; 811  :         if ((pInBuffer == NULL) || (inSize < sizeof(DWORD)) ||
; 812  :             !CeSafeCopyMemory(&id, pInBuffer, sizeof(DWORD)))

  013a4	e59d30f0	 ldr         r3, [sp, #0xF0]
  013a8	e3530000	 cmp         r3, #0
  013ac	0a00000a	 beq         |$LN25@Tca6416Gpi@12|
  013b0	e59d30f4	 ldr         r3, [sp, #0xF4]
  013b4	e3530004	 cmp         r3, #4
  013b8	3a000007	 bcc         |$LN25@Tca6416Gpi@12|
  013bc	e3a02004	 mov         r2, #4
  013c0	e59d10f0	 ldr         r1, [sp, #0xF0]
  013c4	e28d0014	 add         r0, sp, #0x14
  013c8	eb000000	 bl          CeSafeCopyMemory
  013cc	e58d00ac	 str         r0, [sp, #0xAC]
  013d0	e59d30ac	 ldr         r3, [sp, #0xAC]
  013d4	e3530000	 cmp         r3, #0
  013d8	1a000002	 bne         |$LN26@Tca6416Gpi@12|
  013dc		 |$LN25@Tca6416Gpi@12|

; 813  :         {
; 814  :             SetLastError(ERROR_INVALID_PARAMETER);

  013dc	e3a00057	 mov         r0, #0x57
  013e0	eb000000	 bl          SetLastError

; 815  :             break;

  013e4	ea0000f1	 b           |$LN39@Tca6416Gpi@12|
  013e8		 |$LN26@Tca6416Gpi@12|

; 816  :         }
; 817  :         Tca6416GpioSetBit(context, id);

  013e8	e59d1014	 ldr         r1, [sp, #0x14]
  013ec	e59d00e8	 ldr         r0, [sp, #0xE8]
  013f0	eb000000	 bl          |?Tca6416GpioSetBit@@YAHPAXI@Z|

; 818  :         rc = TRUE;

  013f4	e3a03001	 mov         r3, #1
  013f8	e58d3018	 str         r3, [sp, #0x18]

; 819  :         break;

  013fc	ea0000eb	 b           |$LN39@Tca6416Gpi@12|
  01400		 |$LN24@Tca6416Gpi@12|

; 820  : 
; 821  :     case IOCTL_GPIO_CLRBIT:
; 822  :         if (pOutSize != 0) *pOutSize = 0;

  01400	e59d3100	 ldr         r3, [sp, #0x100]
  01404	e3530000	 cmp         r3, #0
  01408	0a000002	 beq         |$LN23@Tca6416Gpi@12|
  0140c	e59d2100	 ldr         r2, [sp, #0x100]
  01410	e3a03000	 mov         r3, #0
  01414	e5823000	 str         r3, [r2]
  01418		 |$LN23@Tca6416Gpi@12|

; 823  :         if ((pInBuffer == NULL) || (inSize < sizeof(DWORD)) ||
; 824  :             !CeSafeCopyMemory(&id, pInBuffer, sizeof(DWORD)))

  01418	e59d30f0	 ldr         r3, [sp, #0xF0]
  0141c	e3530000	 cmp         r3, #0
  01420	0a00000a	 beq         |$LN21@Tca6416Gpi@12|
  01424	e59d30f4	 ldr         r3, [sp, #0xF4]
  01428	e3530004	 cmp         r3, #4
  0142c	3a000007	 bcc         |$LN21@Tca6416Gpi@12|
  01430	e3a02004	 mov         r2, #4
  01434	e59d10f0	 ldr         r1, [sp, #0xF0]
  01438	e28d0014	 add         r0, sp, #0x14
  0143c	eb000000	 bl          CeSafeCopyMemory
  01440	e58d00b0	 str         r0, [sp, #0xB0]
  01444	e59d30b0	 ldr         r3, [sp, #0xB0]
  01448	e3530000	 cmp         r3, #0
  0144c	1a000002	 bne         |$LN22@Tca6416Gpi@12|
  01450		 |$LN21@Tca6416Gpi@12|

; 825  :         {
; 826  :             SetLastError(ERROR_INVALID_PARAMETER);

  01450	e3a00057	 mov         r0, #0x57
  01454	eb000000	 bl          SetLastError

; 827  :             break;

  01458	ea0000d4	 b           |$LN39@Tca6416Gpi@12|
  0145c		 |$LN22@Tca6416Gpi@12|

; 828  :         }
; 829  :         Tca6416GpioClrBit(context, id);

  0145c	e59d1014	 ldr         r1, [sp, #0x14]
  01460	e59d00e8	 ldr         r0, [sp, #0xE8]
  01464	eb000000	 bl          |?Tca6416GpioClrBit@@YAHPAXI@Z|

; 830  :         rc = TRUE;

  01468	e3a03001	 mov         r3, #1
  0146c	e58d3018	 str         r3, [sp, #0x18]

; 831  :         break;

  01470	ea0000ce	 b           |$LN39@Tca6416Gpi@12|
  01474		 |$LN20@Tca6416Gpi@12|

; 832  : 
; 833  :     case IOCTL_GPIO_GETBIT:
; 834  :         if (pOutSize != 0) *pOutSize = sizeof(DWORD);

  01474	e59d3100	 ldr         r3, [sp, #0x100]
  01478	e3530000	 cmp         r3, #0
  0147c	0a000002	 beq         |$LN19@Tca6416Gpi@12|
  01480	e59d2100	 ldr         r2, [sp, #0x100]
  01484	e3a03004	 mov         r3, #4
  01488	e5823000	 str         r3, [r2]
  0148c		 |$LN19@Tca6416Gpi@12|

; 835  :         if ((pInBuffer == NULL) || (inSize < sizeof(DWORD)) ||
; 836  :             !CeSafeCopyMemory(&id, pInBuffer, sizeof(DWORD)) ||
; 837  :             (pOutBuffer == NULL) || (outSize < sizeof(DWORD)))

  0148c	e59d30f0	 ldr         r3, [sp, #0xF0]
  01490	e3530000	 cmp         r3, #0
  01494	0a000010	 beq         |$LN17@Tca6416Gpi@12|
  01498	e59d30f4	 ldr         r3, [sp, #0xF4]
  0149c	e3530004	 cmp         r3, #4
  014a0	3a00000d	 bcc         |$LN17@Tca6416Gpi@12|
  014a4	e3a02004	 mov         r2, #4
  014a8	e59d10f0	 ldr         r1, [sp, #0xF0]
  014ac	e28d0014	 add         r0, sp, #0x14
  014b0	eb000000	 bl          CeSafeCopyMemory
  014b4	e58d00b4	 str         r0, [sp, #0xB4]
  014b8	e59d30b4	 ldr         r3, [sp, #0xB4]
  014bc	e3530000	 cmp         r3, #0
  014c0	0a000005	 beq         |$LN17@Tca6416Gpi@12|
  014c4	e59d30f8	 ldr         r3, [sp, #0xF8]
  014c8	e3530000	 cmp         r3, #0
  014cc	0a000002	 beq         |$LN17@Tca6416Gpi@12|
  014d0	e59d30fc	 ldr         r3, [sp, #0xFC]
  014d4	e3530004	 cmp         r3, #4
  014d8	2a000002	 bcs         |$LN18@Tca6416Gpi@12|
  014dc		 |$LN17@Tca6416Gpi@12|

; 838  :         {
; 839  :             SetLastError(ERROR_INVALID_PARAMETER);

  014dc	e3a00057	 mov         r0, #0x57
  014e0	eb000000	 bl          SetLastError

; 840  :             break;

  014e4	ea0000b1	 b           |$LN39@Tca6416Gpi@12|
  014e8		 |$LN18@Tca6416Gpi@12|

; 841  :         }
; 842  :         value = Tca6416GpioGetBit(context, id);

  014e8	e59d1014	 ldr         r1, [sp, #0x14]
  014ec	e59d00e8	 ldr         r0, [sp, #0xE8]
  014f0	eb000000	 bl          |?Tca6416GpioGetBit@@YAKPAXI@Z|
  014f4	e58d00b8	 str         r0, [sp, #0xB8]
  014f8	e59d30b8	 ldr         r3, [sp, #0xB8]
  014fc	e58d301c	 str         r3, [sp, #0x1C]

; 843  :         if (!CeSafeCopyMemory(pOutBuffer, &value, sizeof(value)))

  01500	e3a02004	 mov         r2, #4
  01504	e28d101c	 add         r1, sp, #0x1C
  01508	e59d00f8	 ldr         r0, [sp, #0xF8]
  0150c	eb000000	 bl          CeSafeCopyMemory
  01510	e58d00bc	 str         r0, [sp, #0xBC]
  01514	e59d30bc	 ldr         r3, [sp, #0xBC]
  01518	e3530000	 cmp         r3, #0
  0151c	1a000002	 bne         |$LN16@Tca6416Gpi@12|

; 844  :         {
; 845  :             SetLastError(ERROR_INVALID_PARAMETER);

  01520	e3a00057	 mov         r0, #0x57
  01524	eb000000	 bl          SetLastError

; 846  :             break;

  01528	ea0000a0	 b           |$LN39@Tca6416Gpi@12|
  0152c		 |$LN16@Tca6416Gpi@12|

; 847  :         }
; 848  :         rc = TRUE;

  0152c	e3a03001	 mov         r3, #1
  01530	e58d3018	 str         r3, [sp, #0x18]

; 849  :         break;

  01534	ea00009d	 b           |$LN39@Tca6416Gpi@12|
  01538		 |$LN15@Tca6416Gpi@12|

; 850  : 
; 851  :     case IOCTL_GPIO_SETMODE:
; 852  :         if (pOutSize != 0) *pOutSize = 0;

  01538	e59d3100	 ldr         r3, [sp, #0x100]
  0153c	e3530000	 cmp         r3, #0
  01540	0a000002	 beq         |$LN14@Tca6416Gpi@12|
  01544	e59d2100	 ldr         r2, [sp, #0x100]
  01548	e3a03000	 mov         r3, #0
  0154c	e5823000	 str         r3, [r2]
  01550		 |$LN14@Tca6416Gpi@12|

; 853  :         if ((pInBuffer == NULL) || (inSize < 2 * sizeof(DWORD)) ||
; 854  :             !CeSafeCopyMemory(
; 855  :             &id, &((DWORD*)pInBuffer)[0], sizeof(DWORD)
; 856  :             ) ||
; 857  :             !CeSafeCopyMemory(
; 858  :             &mode, &((DWORD*)pInBuffer)[1], sizeof(DWORD)
; 859  :             ))

  01550	e59d30f0	 ldr         r3, [sp, #0xF0]
  01554	e3530000	 cmp         r3, #0
  01558	0a000013	 beq         |$LN12@Tca6416Gpi@12|
  0155c	e59d30f4	 ldr         r3, [sp, #0xF4]
  01560	e3530008	 cmp         r3, #8
  01564	3a000010	 bcc         |$LN12@Tca6416Gpi@12|
  01568	e3a02004	 mov         r2, #4
  0156c	e59d10f0	 ldr         r1, [sp, #0xF0]
  01570	e28d0014	 add         r0, sp, #0x14
  01574	eb000000	 bl          CeSafeCopyMemory
  01578	e58d00c0	 str         r0, [sp, #0xC0]
  0157c	e59d30c0	 ldr         r3, [sp, #0xC0]
  01580	e3530000	 cmp         r3, #0
  01584	0a000008	 beq         |$LN12@Tca6416Gpi@12|
  01588	e3a02004	 mov         r2, #4
  0158c	e59d30f0	 ldr         r3, [sp, #0xF0]
  01590	e2831004	 add         r1, r3, #4
  01594	e28d0020	 add         r0, sp, #0x20
  01598	eb000000	 bl          CeSafeCopyMemory
  0159c	e58d00c4	 str         r0, [sp, #0xC4]
  015a0	e59d30c4	 ldr         r3, [sp, #0xC4]
  015a4	e3530000	 cmp         r3, #0
  015a8	1a000002	 bne         |$LN13@Tca6416Gpi@12|
  015ac		 |$LN12@Tca6416Gpi@12|

; 860  :         {
; 861  :             SetLastError(ERROR_INVALID_PARAMETER);

  015ac	e3a00057	 mov         r0, #0x57
  015b0	eb000000	 bl          SetLastError

; 862  :             break;

  015b4	ea00007d	 b           |$LN39@Tca6416Gpi@12|
  015b8		 |$LN13@Tca6416Gpi@12|

; 863  :         }
; 864  :         Tca6416GpioSetMode(context, id, mode);

  015b8	e59d2020	 ldr         r2, [sp, #0x20]
  015bc	e59d1014	 ldr         r1, [sp, #0x14]
  015c0	e59d00e8	 ldr         r0, [sp, #0xE8]
  015c4	eb000000	 bl          |?Tca6416GpioSetMode@@YAHPAXII@Z|

; 865  :         rc = TRUE;

  015c8	e3a03001	 mov         r3, #1
  015cc	e58d3018	 str         r3, [sp, #0x18]

; 866  :         break;

  015d0	ea000076	 b           |$LN39@Tca6416Gpi@12|
  015d4		 |$LN11@Tca6416Gpi@12|

; 867  : 
; 868  :     case IOCTL_GPIO_GETMODE:
; 869  :         if (pOutSize != 0) *pOutSize = sizeof(DWORD);

  015d4	e59d3100	 ldr         r3, [sp, #0x100]
  015d8	e3530000	 cmp         r3, #0
  015dc	0a000002	 beq         |$LN10@Tca6416Gpi@12|
  015e0	e59d2100	 ldr         r2, [sp, #0x100]
  015e4	e3a03004	 mov         r3, #4
  015e8	e5823000	 str         r3, [r2]
  015ec		 |$LN10@Tca6416Gpi@12|

; 870  :         if ((pInBuffer == NULL) || (inSize < sizeof(DWORD)) ||
; 871  :             !CeSafeCopyMemory(&id, pInBuffer, sizeof(DWORD)) ||
; 872  :             (pOutBuffer == NULL) || (outSize < sizeof(DWORD)))

  015ec	e59d30f0	 ldr         r3, [sp, #0xF0]
  015f0	e3530000	 cmp         r3, #0
  015f4	0a000010	 beq         |$LN8@Tca6416Gpi@12|
  015f8	e59d30f4	 ldr         r3, [sp, #0xF4]
  015fc	e3530004	 cmp         r3, #4
  01600	3a00000d	 bcc         |$LN8@Tca6416Gpi@12|
  01604	e3a02004	 mov         r2, #4
  01608	e59d10f0	 ldr         r1, [sp, #0xF0]
  0160c	e28d0014	 add         r0, sp, #0x14
  01610	eb000000	 bl          CeSafeCopyMemory
  01614	e58d00c8	 str         r0, [sp, #0xC8]
  01618	e59d30c8	 ldr         r3, [sp, #0xC8]
  0161c	e3530000	 cmp         r3, #0
  01620	0a000005	 beq         |$LN8@Tca6416Gpi@12|
  01624	e59d30f8	 ldr         r3, [sp, #0xF8]
  01628	e3530000	 cmp         r3, #0
  0162c	0a000002	 beq         |$LN8@Tca6416Gpi@12|
  01630	e59d30fc	 ldr         r3, [sp, #0xFC]
  01634	e3530004	 cmp         r3, #4
  01638	2a000002	 bcs         |$LN9@Tca6416Gpi@12|
  0163c		 |$LN8@Tca6416Gpi@12|

; 873  :         {
; 874  :             SetLastError(ERROR_INVALID_PARAMETER);

  0163c	e3a00057	 mov         r0, #0x57
  01640	eb000000	 bl          SetLastError

; 875  :             break;

  01644	ea000059	 b           |$LN39@Tca6416Gpi@12|
  01648		 |$LN9@Tca6416Gpi@12|

; 876  :         }
; 877  :         mode = Tca6416GpioGetMode(context, id);

  01648	e59d1014	 ldr         r1, [sp, #0x14]
  0164c	e59d00e8	 ldr         r0, [sp, #0xE8]
  01650	eb000000	 bl          |?Tca6416GpioGetMode@@YAKPAXI@Z|
  01654	e58d00cc	 str         r0, [sp, #0xCC]
  01658	e59d30cc	 ldr         r3, [sp, #0xCC]
  0165c	e58d3020	 str         r3, [sp, #0x20]

; 878  :         if (!CeSafeCopyMemory(pOutBuffer, &mode, sizeof(mode)))

  01660	e3a02004	 mov         r2, #4
  01664	e28d1020	 add         r1, sp, #0x20
  01668	e59d00f8	 ldr         r0, [sp, #0xF8]
  0166c	eb000000	 bl          CeSafeCopyMemory
  01670	e58d00d0	 str         r0, [sp, #0xD0]
  01674	e59d30d0	 ldr         r3, [sp, #0xD0]
  01678	e3530000	 cmp         r3, #0
  0167c	1a000002	 bne         |$LN7@Tca6416Gpi@12|

; 879  :         {
; 880  :             SetLastError(ERROR_INVALID_PARAMETER);

  01680	e3a00057	 mov         r0, #0x57
  01684	eb000000	 bl          SetLastError

; 881  :             break;

  01688	ea000048	 b           |$LN39@Tca6416Gpi@12|
  0168c		 |$LN7@Tca6416Gpi@12|

; 882  :         }
; 883  :         rc = TRUE;

  0168c	e3a03001	 mov         r3, #1
  01690	e58d3018	 str         r3, [sp, #0x18]

; 884  :         break;

  01694	ea000045	 b           |$LN39@Tca6416Gpi@12|
  01698		 |$LN6@Tca6416Gpi@12|

; 885  :     case IOCTL_GPIO_SET_POWER_STATE:
; 886  :         {
; 887  :             if ((pInBuffer == NULL) || inSize != sizeof(IOCTL_GPIO_POWER_STATE_IN))

  01698	e59d30f0	 ldr         r3, [sp, #0xF0]
  0169c	e3530000	 cmp         r3, #0
  016a0	0a000002	 beq         |$LN4@Tca6416Gpi@12|
  016a4	e59d30f4	 ldr         r3, [sp, #0xF4]
  016a8	e3530008	 cmp         r3, #8
  016ac	0a000011	 beq         |$LN5@Tca6416Gpi@12|
  016b0		 |$LN4@Tca6416Gpi@12|

; 888  :             {
; 889  :                 SetLastError(ERROR_INVALID_PARAMETER);

  016b0	e3a00057	 mov         r0, #0x57
  016b4	eb000000	 bl          SetLastError

; 890  :                 ERRORMSG(ZONE_ERROR, (L"ERROR: Tca6416GpioIOControl: "
; 891  :                     L"IOCTL_GPIO_SET_POWER_STATE - Invalid parameter\r\n"
; 892  :                     ));

  016b8	e59f313c	 ldr         r3, [pc, #0x13C]
  016bc	e5933440	 ldr         r3, [r3, #0x440]
  016c0	e3130001	 tst         r3, #1
  016c4	0a000008	 beq         |$LN51@Tca6416Gpi@12|
  016c8	e3a02fdf	 mov         r2, #0xDF, 30
  016cc	e59f1134	 ldr         r1, [pc, #0x134]
  016d0	e59f012c	 ldr         r0, [pc, #0x12C]
  016d4	eb000000	 bl          NKDbgPrintfW
  016d8	e59f0120	 ldr         r0, [pc, #0x120]
  016dc	eb000000	 bl          NKDbgPrintfW
  016e0	e3a03001	 mov         r3, #1
  016e4	e58d30d4	 str         r3, [sp, #0xD4]
  016e8	ea000001	 b           |$LN52@Tca6416Gpi@12|
  016ec		 |$LN51@Tca6416Gpi@12|
  016ec	e3a03000	 mov         r3, #0
  016f0	e58d30d4	 str         r3, [sp, #0xD4]
  016f4		 |$LN52@Tca6416Gpi@12|

; 893  :                 break;

  016f4	ea00002d	 b           |$LN39@Tca6416Gpi@12|
  016f8		 |$LN5@Tca6416Gpi@12|

; 894  :             }
; 895  :             rc = TRUE;            

  016f8	e3a03001	 mov         r3, #1
  016fc	e58d3018	 str         r3, [sp, #0x18]

; 896  :         }
; 897  :         break;

  01700	ea00002a	 b           |$LN39@Tca6416Gpi@12|
  01704		 |$LN3@Tca6416Gpi@12|

; 898  : 
; 899  :     case IOCTL_GPIO_GET_POWER_STATE:
; 900  :         {
; 901  :             if ((pInBuffer == NULL) || (pOutBuffer == NULL) ||
; 902  :                 inSize != sizeof(IOCTL_GPIO_POWER_STATE_IN) ||
; 903  :                 outSize != sizeof(IOCTL_GPIO_GET_POWER_STATE_OUT))

  01704	e59d30f0	 ldr         r3, [sp, #0xF0]
  01708	e3530000	 cmp         r3, #0
  0170c	0a000008	 beq         |$LN1@Tca6416Gpi@12|
  01710	e59d30f8	 ldr         r3, [sp, #0xF8]
  01714	e3530000	 cmp         r3, #0
  01718	0a000005	 beq         |$LN1@Tca6416Gpi@12|
  0171c	e59d30f4	 ldr         r3, [sp, #0xF4]
  01720	e3530008	 cmp         r3, #8
  01724	1a000002	 bne         |$LN1@Tca6416Gpi@12|
  01728	e59d30fc	 ldr         r3, [sp, #0xFC]
  0172c	e3530008	 cmp         r3, #8
  01730	0a000011	 beq         |$LN2@Tca6416Gpi@12|
  01734		 |$LN1@Tca6416Gpi@12|

; 904  :             {
; 905  :                 SetLastError(ERROR_INVALID_PARAMETER);

  01734	e3a00057	 mov         r0, #0x57
  01738	eb000000	 bl          SetLastError

; 906  :                 ERRORMSG(ZONE_ERROR, (L"ERROR: Tca6416GpioIOControl: "
; 907  :                     L"IOCTL_GPIO_SET_POWER_STATE - Invalid parameter\r\n"
; 908  :                     ));

  0173c	e59f30b8	 ldr         r3, [pc, #0xB8]
  01740	e5933440	 ldr         r3, [r3, #0x440]
  01744	e3130001	 tst         r3, #1
  01748	0a000008	 beq         |$LN53@Tca6416Gpi@12|
  0174c	e3a02fe3	 mov         r2, #0xE3, 30
  01750	e59f10b0	 ldr         r1, [pc, #0xB0]
  01754	e59f00a8	 ldr         r0, [pc, #0xA8]
  01758	eb000000	 bl          NKDbgPrintfW
  0175c	e59f009c	 ldr         r0, [pc, #0x9C]
  01760	eb000000	 bl          NKDbgPrintfW
  01764	e3a03001	 mov         r3, #1
  01768	e58d30d8	 str         r3, [sp, #0xD8]
  0176c	ea000001	 b           |$LN54@Tca6416Gpi@12|
  01770		 |$LN53@Tca6416Gpi@12|
  01770	e3a03000	 mov         r3, #0
  01774	e58d30d8	 str         r3, [sp, #0xD8]
  01778		 |$LN54@Tca6416Gpi@12|

; 909  :                 break;

  01778	ea00000c	 b           |$LN39@Tca6416Gpi@12|
  0177c		 |$LN2@Tca6416Gpi@12|

; 910  :             }
; 911  : 
; 912  :             IOCTL_GPIO_POWER_STATE_IN *pPowerIn;
; 913  :             IOCTL_GPIO_GET_POWER_STATE_OUT *pPowerOut;
; 914  :             pPowerIn = (IOCTL_GPIO_POWER_STATE_IN*)pInBuffer;

  0177c	e59d30f0	 ldr         r3, [sp, #0xF0]
  01780	e58d306c	 str         r3, [sp, #0x6C]

; 915  :             pPowerOut = (IOCTL_GPIO_GET_POWER_STATE_OUT*)pOutBuffer;

  01784	e59d30f8	 ldr         r3, [sp, #0xF8]
  01788	e58d3070	 str         r3, [sp, #0x70]

; 916  :             
; 917  :             pPowerOut->gpioState = D0;

  0178c	e59d2070	 ldr         r2, [sp, #0x70]
  01790	e3a03000	 mov         r3, #0
  01794	e5823000	 str         r3, [r2]

; 918  :             pPowerOut->bankState = D0;

  01798	e59d3070	 ldr         r3, [sp, #0x70]
  0179c	e2832004	 add         r2, r3, #4
  017a0	e3a03000	 mov         r3, #0
  017a4	e5823000	 str         r3, [r2]

; 919  : 
; 920  :             rc = TRUE;

  017a8	e3a03001	 mov         r3, #1
  017ac	e58d3018	 str         r3, [sp, #0x18]
  017b0		 |$LN39@Tca6416Gpi@12|
  017b0		 |$LN36@Tca6416Gpi@12|
  017b0		 |$LN41@Tca6416Gpi@12|
  017b0		 |$cleanUp$37250|

; 921  :         }
; 922  :     }
; 923  : 
; 924  : cleanUp:
; 925  :     DEBUGMSG(ZONE_FUNCTION, (L"-Tca6416GpioIOControl(rc = %d)\r\n", rc));

  017b0	e59f3044	 ldr         r3, [pc, #0x44]
  017b4	e5933440	 ldr         r3, [r3, #0x440]
  017b8	e3130004	 tst         r3, #4
  017bc	0a000005	 beq         |$LN57@Tca6416Gpi@12|
  017c0	e59d1018	 ldr         r1, [sp, #0x18]
  017c4	e59f002c	 ldr         r0, [pc, #0x2C]
  017c8	eb000000	 bl          NKDbgPrintfW
  017cc	e3a03001	 mov         r3, #1
  017d0	e58d30dc	 str         r3, [sp, #0xDC]
  017d4	ea000001	 b           |$LN58@Tca6416Gpi@12|
  017d8		 |$LN57@Tca6416Gpi@12|
  017d8	e3a03000	 mov         r3, #0
  017dc	e58d30dc	 str         r3, [sp, #0xDC]
  017e0		 |$LN58@Tca6416Gpi@12|

; 926  :     return rc;

  017e0	e59d3018	 ldr         r3, [sp, #0x18]
  017e4	e58d3084	 str         r3, [sp, #0x84]

; 927  : #endif
; 928  : 
; 929  : #ifdef OAL
; 930  :     UNREFERENCED_PARAMETER(context);
; 931  :     UNREFERENCED_PARAMETER(code);
; 932  :     UNREFERENCED_PARAMETER(pInBuffer);
; 933  :     UNREFERENCED_PARAMETER(inSize);
; 934  :     UNREFERENCED_PARAMETER(pOutBuffer);
; 935  :     UNREFERENCED_PARAMETER(outSize);
; 936  :     UNREFERENCED_PARAMETER(pOutSize);        
; 937  :     return FALSE;
; 938  : #endif
; 939  : }

  017e8	e59d0084	 ldr         r0, [sp, #0x84]
  017ec	e28dd0e0	 add         sp, sp, #0xE0
  017f0	e89d6000	 ldmia       sp, {sp, lr}
  017f4	e12fff1e	 bx          lr
  017f8		 |$LN62@Tca6416Gpi@12|
  017f8		 |$LN63@Tca6416Gpi@12|
  017f8	00000000	 DCD         |??_C@_1EC@BOJACOF@?$AA?9?$AAT?$AAc?$AAa?$AA6?$AA4?$AA1?$AA6?$AAG?$AAp?$AAi?$AAo?$AAI?$AAO?$AAC?$AAo?$AAn?$AAt?$AAr?$AAo?$AAl?$AA?$CI?$AAr?$AAc?$AA?5?$AA?$DN?$AA?5?$AA?$CF?$AAd?$AA?$CJ?$AA?$AN?$AA?6@|
  017fc		 |$LN64@Tca6416Gpi@12|
  017fc	00000000	 DCD         |dpCurSettings|
  01800		 |$LN65@Tca6416Gpi@12|
  01800	00000000	 DCD         |??_C@_1JM@GNDFDECH@?$AAE?$AAR?$AAR?$AAO?$AAR?$AA?3?$AA?5?$AAT?$AAc?$AAa?$AA6?$AA4?$AA1?$AA6?$AAG?$AAp?$AAi?$AAo?$AAI?$AAO?$AAC?$AAo?$AAn?$AAt?$AAr?$AAo?$AAl?$AA?3?$AA?5?$AAI?$AAO?$AAC@|
  01804		 |$LN66@Tca6416Gpi@12|
  01804	00000000	 DCD         |??_C@_1CI@OHCJFJPM@?$AAE?$AAR?$AAR?$AAO?$AAR?$AA?3?$AA?5?$AA?$CF?$AAs?$AA?5?$AAl?$AAi?$AAn?$AAe?$AA?5?$AA?$CF?$AAd?$AA?3?$AA?5?$AA?$AA@|
  01808		 |$LN67@Tca6416Gpi@12|
  01808	00000000	 DCD         |??_C@_1MA@CAJGLBPC@?$AAC?$AA?3?$AA?2?$AAW?$AAI?$AAN?$AAC?$AAE?$AA6?$AA0?$AA0?$AA?2?$AAP?$AAL?$AAA?$AAT?$AAF?$AAO?$AAR?$AAM?$AA?2?$AAC?$AAO?$AAM?$AAM?$AAO?$AAN?$AA?2?$AAS?$AAR?$AAC?$AA?2@|
  0180c		 |$LN68@Tca6416Gpi@12|
  0180c	00000000	 DCD         |?Tca6416GpioIoControl@@YAHPAXIPAEI1IPAK@Z|
  01810		 |$LN69@Tca6416Gpi@12|
  01810	00000000	 DCD         |?Tca6416GpioInterruptWakeUp@@YAHPAXKKH@Z|
  01814		 |$LN70@Tca6416Gpi@12|
  01814	00000000	 DCD         |?Tca6416GpioGetSystemIrq@@YAKPAXI@Z|
  01818		 |$LN71@Tca6416Gpi@12|
  01818	00000000	 DCD         |?Tca6416GpioInterruptDone@@YAXPAXKK@Z|
  0181c		 |$LN72@Tca6416Gpi@12|
  0181c	00000000	 DCD         |?Tca6416GpioInterruptDisable@@YAXPAXKK@Z|
  01820		 |$LN73@Tca6416Gpi@12|
  01820	00000000	 DCD         |?Tca6416GpioInterruptMask@@YAXPAXKKH@Z|
  01824		 |$LN74@Tca6416Gpi@12|
  01824	00000000	 DCD         |?Tca6416GpioInterruptInitialize@@YAHPAXKPAK0@Z|
  01828		 |$LN75@Tca6416Gpi@12|
  01828	00000000	 DCD         |?Tca6416GpioPulldown@@YAHPAXII@Z|
  0182c		 |$LN76@Tca6416Gpi@12|
  0182c	00000000	 DCD         |?Tca6416GpioPullup@@YAHPAXII@Z|
  01830		 |$LN77@Tca6416Gpi@12|
  01830	00000000	 DCD         |?Tca6416GpioGetMode@@YAKPAXI@Z|
  01834		 |$LN78@Tca6416Gpi@12|
  01834	00000000	 DCD         |?Tca6416GpioSetMode@@YAHPAXII@Z|
  01838		 |$LN79@Tca6416Gpi@12|
  01838	00000000	 DCD         |?Tca6416GpioGetBit@@YAKPAXI@Z|
  0183c		 |$LN80@Tca6416Gpi@12|
  0183c	00000000	 DCD         |?Tca6416GpioClrBit@@YAHPAXI@Z|
  01840		 |$LN81@Tca6416Gpi@12|
  01840	00000000	 DCD         |?Tca6416GpioSetBit@@YAHPAXI@Z|
  01844		 |$LN82@Tca6416Gpi@12|
  01844	00000000	 DCD         |DEVICE_IFC_GPIO_GUID|
  01848		 |$LN83@Tca6416Gpi@12|
  01848	00000000	 DCD         |??_C@_1OG@DMBHACEF@?$AAE?$AAR?$AAR?$AAO?$AAR?$AA?3?$AA?5?$AAG?$AAI?$AAO?$AA_?$AAI?$AAO?$AAC?$AAo?$AAn?$AAt?$AAr?$AAo?$AAl?$AA?3?$AA?5?$AAI?$AAO?$AAC?$AAT?$AAL?$AA_?$AAD?$AAD?$AAK?$AA_@|
  0184c		 |$LN84@Tca6416Gpi@12|
  0184c	00220c1c	 DCD         0x220c1c
  01850		 |$LN85@Tca6416Gpi@12|
  01850	00220c14	 DCD         0x220c14
  01854		 |$LN86@Tca6416Gpi@12|
  01854	00220c0c	 DCD         0x220c0c
  01858		 |$LN87@Tca6416Gpi@12|
  01858	00220c04	 DCD         0x220c04
  0185c		 |$LN88@Tca6416Gpi@12|
  0185c	00000000	 DCD         |??_C@_1HG@BCELEOKM@?$AAE?$AAR?$AAR?$AAO?$AAR?$AA?3?$AA?5?$AAT?$AAc?$AAa?$AA6?$AA4?$AA1?$AA6?$AAG?$AAp?$AAi?$AAo?$AAI?$AAO?$AAC?$AAo?$AAn?$AAt?$AAr?$AAo?$AAl?$AA?3?$AA?5?$AAI?$AAn?$AAc@|
  01860		 |$LN89@Tca6416Gpi@12|
  01860	00000000	 DCD         |??_C@_1JA@HKNFLLDK@?$AA?$CL?$AAT?$AAc?$AAa?$AA6?$AA4?$AA1?$AA6?$AAG?$AAp?$AAi?$AAo?$AAI?$AAO?$AAC?$AAo?$AAn?$AAt?$AAr?$AAo?$AAl?$AA?$CI?$AA0?$AAx?$AA?$CF?$AA0?$AA8?$AAx?$AA?0?$AA?5?$AA0?$AAx@|
  01864		 |$M37655|

			 ENDP  ; |?Tca6416GpioIoControl@@YAHPAXIPAEI1IPAK@Z|, Tca6416GpioIoControl

	IMPORT	|__GetUserKData|
; File c:\wince600\public\common\sdk\inc\kfuncs.h

  00000			 AREA	 |.pdata|, PDATA
|$T37691| DCD	|$LN5@GetCurrent|
	DCD	0x40000b02
; Function compile flags: /Odtp

  00000			 AREA	 |.text|, CODE, ARM

  00000		 |GetCurrentProcessId| PROC

; 373  : _inline DWORD GetCurrentProcessId(void) {

  00000		 |$LN5@GetCurrent|
  00000	e52de004	 str         lr, [sp, #-4]!
  00004	e24dd008	 sub         sp, sp, #8
  00008		 |$M37688|

; 374  :     return __GetUserKData (SYSHANDLE_OFFSET + (SH_CURPROC * sizeof(HANDLE)));

  00008	e3a0000c	 mov         r0, #0xC
  0000c	eb000000	 bl          __GetUserKData
  00010	e58d0004	 str         r0, [sp, #4]
  00014	e59d3004	 ldr         r3, [sp, #4]
  00018	e58d3000	 str         r3, [sp]

; 375  : }

  0001c	e59d0000	 ldr         r0, [sp]
  00020	e28dd008	 add         sp, sp, #8
  00024	e49de004	 ldr         lr, [sp], #4
  00028	e12fff1e	 bx          lr
  0002c		 |$M37689|

			 ENDP  ; |GetCurrentProcessId|

	IMPORT	|memcmp|
; File c:\wince600\public\common\sdk\inc\objbase.h

  00000			 AREA	 |.pdata|, PDATA
|$T37701| DCD	|$LN7@IsEqualGUI|
	DCD	0x40001704
; Function compile flags: /Odtp

  00000			 AREA	 |.text|, CODE, ARM

  00000		 |?IsEqualGUID@@YAHABU_GUID@@0@Z| PROC	; IsEqualGUID

; 493  : {

  00000		 |$LN7@IsEqualGUI|
  00000	e1a0c00d	 mov         r12, sp
  00004	e92d0003	 stmdb       sp!, {r0, r1}
  00008	e92d5000	 stmdb       sp!, {r12, lr}
  0000c	e24dd00c	 sub         sp, sp, #0xC
  00010		 |$M37698|

; 494  :     return !memcmp(&rguid1, &rguid2, sizeof(GUID));

  00010	e3a02010	 mov         r2, #0x10
  00014	e59d1018	 ldr         r1, [sp, #0x18]
  00018	e59d0014	 ldr         r0, [sp, #0x14]
  0001c	eb000000	 bl          memcmp
  00020	e58d0004	 str         r0, [sp, #4]
  00024	e59d3004	 ldr         r3, [sp, #4]
  00028	e3530000	 cmp         r3, #0
  0002c	1a000002	 bne         |$LN3@IsEqualGUI|
  00030	e3a03001	 mov         r3, #1
  00034	e58d3008	 str         r3, [sp, #8]
  00038	ea000001	 b           |$LN4@IsEqualGUI|
  0003c		 |$LN3@IsEqualGUI|
  0003c	e3a03000	 mov         r3, #0
  00040	e58d3008	 str         r3, [sp, #8]
  00044		 |$LN4@IsEqualGUI|
  00044	e59d3008	 ldr         r3, [sp, #8]
  00048	e58d3000	 str         r3, [sp]

; 495  : }

  0004c	e59d0000	 ldr         r0, [sp]
  00050	e28dd00c	 add         sp, sp, #0xC
  00054	e89d6000	 ldmia       sp, {sp, lr}
  00058	e12fff1e	 bx          lr
  0005c		 |$M37699|

			 ENDP  ; |?IsEqualGUID@@YAHABU_GUID@@0@Z|, IsEqualGUID


  00088			 AREA	 |.pdata|, PDATA
|$T37709| DCD	|$LN5@Tca6416Gpi@13|
	DCD	0x40000a04
; Function compile flags: /Odtp
; File c:\wince600\platform\common\src\soc\common_ti_v1\common_ti\gpio\tca6416_gpio\tca6416_gpio.cpp

  01864			 AREA	 |.text|, CODE, ARM

  01864		 |?Tca6416GpioGetSystemIrq@@YAKPAXI@Z| PROC ; Tca6416GpioGetSystemIrq

; 970  : {

  01864		 |$LN5@Tca6416Gpi@13|
  01864	e1a0c00d	 mov         r12, sp
  01868	e92d0003	 stmdb       sp!, {r0, r1}
  0186c	e92d5000	 stmdb       sp!, {r12, lr}
  01870	e24dd004	 sub         sp, sp, #4
  01874		 |$M37706|

; 971  :     UNREFERENCED_PARAMETER(hContext);
; 972  :     UNREFERENCED_PARAMETER(id);
; 973  :     return (DWORD) SYSINTR_UNDEFINED;

  01874	e3e03000	 mvn         r3, #0
  01878	e58d3000	 str         r3, [sp]

; 974  : }

  0187c	e59d0000	 ldr         r0, [sp]
  01880	e28dd004	 add         sp, sp, #4
  01884	e89d6000	 ldmia       sp, {sp, lr}
  01888	e12fff1e	 bx          lr
  0188c		 |$M37707|

			 ENDP  ; |?Tca6416GpioGetSystemIrq@@YAKPAXI@Z|, Tca6416GpioGetSystemIrq

	IMPORT	|ResumeThread|
	IMPORT	|GPIOInterruptInitialize|
	IMPORT	|GPIOOpen|
	IMPORT	|CreateThread|
	IMPORT	|CreateEventW|

  00090			 AREA	 |.pdata|, PDATA
|$T37717| DCD	|$LN18@Tca6416Gpi@14|
	DCD	0x4000d004
; Function compile flags: /Odtp

  0188c			 AREA	 |.text|, CODE, ARM

  0188c		 |?Tca6416GpioInterruptInitialize@@YAHPAXKPAK0@Z| PROC ; Tca6416GpioInterruptInitialize

; 982  : {

  0188c		 |$LN18@Tca6416Gpi@14|
  0188c	e1a0c00d	 mov         r12, sp
  01890	e92d000f	 stmdb       sp!, {r0 - r3}
  01894	e92d5000	 stmdb       sp!, {r12, lr}
  01898	e24dd030	 sub         sp, sp, #0x30
  0189c		 |$M37714|

; 983  :     int bank = id / NB_PIN_PER_BANK;

  0189c	e59d103c	 ldr         r1, [sp, #0x3C]
  018a0	e3a00008	 mov         r0, #8
  018a4	eb000000	 bl          __rt_udiv
  018a8	e58d000c	 str         r0, [sp, #0xC]

; 984  :     int pin = id - (bank*NB_PIN_PER_BANK);

  018ac	e59d100c	 ldr         r1, [sp, #0xC]
  018b0	e3a03008	 mov         r3, #8
  018b4	e0020391	 mul         r2, r1, r3
  018b8	e59d303c	 ldr         r3, [sp, #0x3C]
  018bc	e0433002	 sub         r3, r3, r2
  018c0	e58d3010	 str         r3, [sp, #0x10]

; 985  :     TCA6416_DEVICE *pDevice = (TCA6416_DEVICE*)hContext;

  018c4	e59d3038	 ldr         r3, [sp, #0x38]
  018c8	e58d3008	 str         r3, [sp, #8]

; 986  : 
; 987  :     if ((hContext == NULL) || (sysintr==NULL) || (hEvent==NULL) || (bank >= NB_BANK) || (pin >= NB_PIN_PER_BANK))

  018cc	e59d3038	 ldr         r3, [sp, #0x38]
  018d0	e3530000	 cmp         r3, #0
  018d4	0a00000b	 beq         |$LN12@Tca6416Gpi@14|
  018d8	e59d3040	 ldr         r3, [sp, #0x40]
  018dc	e3530000	 cmp         r3, #0
  018e0	0a000008	 beq         |$LN12@Tca6416Gpi@14|
  018e4	e59d3044	 ldr         r3, [sp, #0x44]
  018e8	e3530000	 cmp         r3, #0
  018ec	0a000005	 beq         |$LN12@Tca6416Gpi@14|
  018f0	e59d300c	 ldr         r3, [sp, #0xC]
  018f4	e3530002	 cmp         r3, #2
  018f8	aa000002	 bge         |$LN12@Tca6416Gpi@14|
  018fc	e59d3010	 ldr         r3, [sp, #0x10]
  01900	e3530008	 cmp         r3, #8
  01904	ba000001	 blt         |$LN13@Tca6416Gpi@14|
  01908		 |$LN12@Tca6416Gpi@14|

; 988  :     {
; 989  :         goto cleanUp;

  01908	ea0000a8	 b           |$LN11@Tca6416Gpi@14|
  0190c	ea0000a7	 b           |$cleanUp$37353|
  01910		 |$LN13@Tca6416Gpi@14|

; 990  :     }
; 991  :     // if needed start the thread (done once only)
; 992  :     if ((pDevice->dwSysintr == SYSINTR_UNDEFINED) && (pDevice->IntrGpio != (DWORD)-1))

  01910	e59d3008	 ldr         r3, [sp, #8]
  01914	e2833018	 add         r3, r3, #0x18
  01918	e5933000	 ldr         r3, [r3]
  0191c	e3730001	 cmn         r3, #1
  01920	1a000051	 bne         |$LN10@Tca6416Gpi@14|
  01924	e59d3008	 ldr         r3, [sp, #8]
  01928	e283300c	 add         r3, r3, #0xC
  0192c	e5933000	 ldr         r3, [r3]
  01930	e3730001	 cmn         r3, #1
  01934	0a00004c	 beq         |$LN10@Tca6416Gpi@14|

; 993  :     {
; 994  :         pDevice->dwSysintr = (DWORD) SYSINTR_UNDEFINED;

  01938	e59d3008	 ldr         r3, [sp, #8]
  0193c	e2832018	 add         r2, r3, #0x18
  01940	e3e03000	 mvn         r3, #0
  01944	e5823000	 str         r3, [r2]

; 995  :         pDevice->hIntrEvent = CreateEvent(NULL,FALSE,FALSE,NULL);

  01948	e3a03000	 mov         r3, #0
  0194c	e3a02000	 mov         r2, #0
  01950	e3a01000	 mov         r1, #0
  01954	e3a00000	 mov         r0, #0
  01958	eb000000	 bl          CreateEventW
  0195c	e58d0020	 str         r0, [sp, #0x20]
  01960	e59d3008	 ldr         r3, [sp, #8]
  01964	e283201c	 add         r2, r3, #0x1C
  01968	e59d3020	 ldr         r3, [sp, #0x20]
  0196c	e5823000	 str         r3, [r2]

; 996  :         if (pDevice->hIntrEvent == NULL)

  01970	e59d3008	 ldr         r3, [sp, #8]
  01974	e283301c	 add         r3, r3, #0x1C
  01978	e5933000	 ldr         r3, [r3]
  0197c	e3530000	 cmp         r3, #0
  01980	1a000001	 bne         |$LN9@Tca6416Gpi@14|
  01984	ea000089	 b           |$LN8@Tca6416Gpi@14|

; 997  :         {
; 998  :             goto cleanUp;

  01988	ea000088	 b           |$cleanUp$37353|
  0198c		 |$LN9@Tca6416Gpi@14|

; 999  :         }
; 1000 :         pDevice->hIntrthread = CreateThread(NULL,0,IST,pDevice,CREATE_SUSPENDED,NULL);

  0198c	e3a03000	 mov         r3, #0
  01990	e58d3004	 str         r3, [sp, #4]
  01994	e3a03004	 mov         r3, #4
  01998	e58d3000	 str         r3, [sp]
  0199c	e59d3008	 ldr         r3, [sp, #8]
  019a0	e59f2220	 ldr         r2, [pc, #0x220]
  019a4	e3a01000	 mov         r1, #0
  019a8	e3a00000	 mov         r0, #0
  019ac	eb000000	 bl          CreateThread
  019b0	e58d0024	 str         r0, [sp, #0x24]
  019b4	e59d3008	 ldr         r3, [sp, #8]
  019b8	e2832020	 add         r2, r3, #0x20
  019bc	e59d3024	 ldr         r3, [sp, #0x24]
  019c0	e5823000	 str         r3, [r2]

; 1001 :         if (pDevice->hIntrthread == NULL)

  019c4	e59d3008	 ldr         r3, [sp, #8]
  019c8	e2833020	 add         r3, r3, #0x20
  019cc	e5933000	 ldr         r3, [r3]
  019d0	e3530000	 cmp         r3, #0
  019d4	1a000001	 bne         |$LN7@Tca6416Gpi@14|
  019d8	ea000074	 b           |$LN6@Tca6416Gpi@14|

; 1002 :         {
; 1003 :             goto cleanUp;

  019dc	ea000073	 b           |$cleanUp$37353|
  019e0		 |$LN7@Tca6416Gpi@14|

; 1004 :         }
; 1005 :         pDevice->hGpio = GPIOOpen();

  019e0	eb000000	 bl          GPIOOpen
  019e4	e58d0028	 str         r0, [sp, #0x28]
  019e8	e59d3008	 ldr         r3, [sp, #8]
  019ec	e2832014	 add         r2, r3, #0x14
  019f0	e59d3028	 ldr         r3, [sp, #0x28]
  019f4	e5823000	 str         r3, [r2]

; 1006 :         if (pDevice->hGpio == NULL)

  019f8	e59d3008	 ldr         r3, [sp, #8]
  019fc	e2833014	 add         r3, r3, #0x14
  01a00	e5933000	 ldr         r3, [r3]
  01a04	e3530000	 cmp         r3, #0
  01a08	1a000001	 bne         |$LN5@Tca6416Gpi@14|
  01a0c	ea000067	 b           |$LN4@Tca6416Gpi@14|

; 1007 :         {
; 1008 :             goto cleanUp;

  01a10	ea000066	 b           |$cleanUp$37353|
  01a14		 |$LN5@Tca6416Gpi@14|

; 1009 :         }
; 1010 :         if (GPIOInterruptInitialize(pDevice->hGpio,pDevice->IntrGpio,&pDevice->dwSysintr,pDevice->hIntrEvent)== FALSE)

  01a14	e59d3008	 ldr         r3, [sp, #8]
  01a18	e283301c	 add         r3, r3, #0x1C
  01a1c	e5933000	 ldr         r3, [r3]
  01a20	e59d2008	 ldr         r2, [sp, #8]
  01a24	e2822018	 add         r2, r2, #0x18
  01a28	e59d1008	 ldr         r1, [sp, #8]
  01a2c	e281100c	 add         r1, r1, #0xC
  01a30	e5911000	 ldr         r1, [r1]
  01a34	e59d0008	 ldr         r0, [sp, #8]
  01a38	e2800014	 add         r0, r0, #0x14
  01a3c	e5900000	 ldr         r0, [r0]
  01a40	eb000000	 bl          GPIOInterruptInitialize
  01a44	e58d002c	 str         r0, [sp, #0x2C]
  01a48	e59d302c	 ldr         r3, [sp, #0x2C]
  01a4c	e3530000	 cmp         r3, #0
  01a50	1a000001	 bne         |$LN3@Tca6416Gpi@14|
  01a54	ea000055	 b           |$LN2@Tca6416Gpi@14|

; 1011 :         {
; 1012 :             goto cleanUp;

  01a58	ea000054	 b           |$cleanUp$37353|
  01a5c		 |$LN3@Tca6416Gpi@14|

; 1013 :         }
; 1014 :         ResumeThread(pDevice->hIntrthread);

  01a5c	e59d3008	 ldr         r3, [sp, #8]
  01a60	e2833020	 add         r3, r3, #0x20
  01a64	e5930000	 ldr         r0, [r3]
  01a68	eb000000	 bl          ResumeThread
  01a6c		 |$LN10@Tca6416Gpi@14|

; 1015 :     }
; 1016 : 
; 1017 : 
; 1018 :     EnterCriticalSection(&pDevice->bankCs[bank]);

  01a6c	e59d3008	 ldr         r3, [sp, #8]
  01a70	e2831028	 add         r1, r3, #0x28
  01a74	e59d200c	 ldr         r2, [sp, #0xC]
  01a78	e3a03014	 mov         r3, #0x14
  01a7c	e0030392	 mul         r3, r2, r3
  01a80	e0810003	 add         r0, r1, r3
  01a84	eb000000	 bl          EnterCriticalSection

; 1019 :     pDevice->hPinEvent[bank][pin] = hEvent;

  01a88	e59d3008	 ldr         r3, [sp, #8]
  01a8c	e283106c	 add         r1, r3, #0x6C
  01a90	e59d200c	 ldr         r2, [sp, #0xC]
  01a94	e3a03020	 mov         r3, #0x20
  01a98	e0030392	 mul         r3, r2, r3
  01a9c	e0811003	 add         r1, r1, r3
  01aa0	e59d2010	 ldr         r2, [sp, #0x10]
  01aa4	e3a03004	 mov         r3, #4
  01aa8	e0030392	 mul         r3, r2, r3
  01aac	e0812003	 add         r2, r1, r3
  01ab0	e59d3044	 ldr         r3, [sp, #0x44]
  01ab4	e5823000	 str         r3, [r2]

; 1020 :     pDevice->intMask[bank] |= (UCHAR) (1<<pin);

  01ab8	e59d3008	 ldr         r3, [sp, #8]
  01abc	e2832068	 add         r2, r3, #0x68
  01ac0	e59d300c	 ldr         r3, [sp, #0xC]
  01ac4	e0821003	 add         r1, r2, r3
  01ac8	e59d2010	 ldr         r2, [sp, #0x10]
  01acc	e3a03001	 mov         r3, #1
  01ad0	e1a03213	 mov         r3, r3, lsl r2
  01ad4	e20330ff	 and         r3, r3, #0xFF
  01ad8	e1a02003	 mov         r2, r3
  01adc	e5d13000	 ldrb        r3, [r1]
  01ae0	e1831002	 orr         r1, r3, r2
  01ae4	e59d3008	 ldr         r3, [sp, #8]
  01ae8	e2832068	 add         r2, r3, #0x68
  01aec	e59d300c	 ldr         r3, [sp, #0xC]
  01af0	e0822003	 add         r2, r2, r3
  01af4	e20130ff	 and         r3, r1, #0xFF
  01af8	e5c23000	 strb        r3, [r2]

; 1021 :     pDevice->enabledIntCount++;

  01afc	e59d3008	 ldr         r3, [sp, #8]
  01b00	e28330ac	 add         r3, r3, #0xAC
  01b04	e5933000	 ldr         r3, [r3]
  01b08	e2832001	 add         r2, r3, #1
  01b0c	e59d3008	 ldr         r3, [sp, #8]
  01b10	e28330ac	 add         r3, r3, #0xAC
  01b14	e5832000	 str         r2, [r3]

; 1022 :     if (pDevice->enabledIntCount > 0)

  01b18	e59d3008	 ldr         r3, [sp, #8]
  01b1c	e28330ac	 add         r3, r3, #0xAC
  01b20	e5933000	 ldr         r3, [r3]
  01b24	e3530000	 cmp         r3, #0
  01b28	da00000a	 ble         |$LN1@Tca6416Gpi@14|

; 1023 :     {
; 1024 :         GPIOInterruptMask(pDevice->hGpio, pDevice->IntrGpio,pDevice->dwSysintr,FALSE);

  01b2c	e3a03000	 mov         r3, #0
  01b30	e59d2008	 ldr         r2, [sp, #8]
  01b34	e2822018	 add         r2, r2, #0x18
  01b38	e5922000	 ldr         r2, [r2]
  01b3c	e59d1008	 ldr         r1, [sp, #8]
  01b40	e281100c	 add         r1, r1, #0xC
  01b44	e5911000	 ldr         r1, [r1]
  01b48	e59d0008	 ldr         r0, [sp, #8]
  01b4c	e2800014	 add         r0, r0, #0x14
  01b50	e5900000	 ldr         r0, [r0]
  01b54	eb000000	 bl          GPIOInterruptMask
  01b58		 |$LN1@Tca6416Gpi@14|

; 1025 :     }
; 1026 :     LeaveCriticalSection(&pDevice->bankCs[bank]);

  01b58	e59d3008	 ldr         r3, [sp, #8]
  01b5c	e2831028	 add         r1, r3, #0x28
  01b60	e59d200c	 ldr         r2, [sp, #0xC]
  01b64	e3a03014	 mov         r3, #0x14
  01b68	e0030392	 mul         r3, r2, r3
  01b6c	e0810003	 add         r0, r1, r3
  01b70	eb000000	 bl          LeaveCriticalSection

; 1027 :     // compute a fake sysintr (unique for each pin)
; 1028 :     *sysintr = (pDevice->I2CAddr << 16) | (pDevice->I2CBusIndex << 8) | id;

  01b74	e59d3008	 ldr         r3, [sp, #8]
  01b78	e2833004	 add         r3, r3, #4
  01b7c	e5933000	 ldr         r3, [r3]
  01b80	e1a02803	 mov         r2, r3, lsl #16
  01b84	e59d3008	 ldr         r3, [sp, #8]
  01b88	e5933000	 ldr         r3, [r3]
  01b8c	e1a03403	 mov         r3, r3, lsl #8
  01b90	e1822003	 orr         r2, r2, r3
  01b94	e59d303c	 ldr         r3, [sp, #0x3C]
  01b98	e1822003	 orr         r2, r2, r3
  01b9c	e59d3040	 ldr         r3, [sp, #0x40]
  01ba0	e5832000	 str         r2, [r3]

; 1029 :         
; 1030 : 
; 1031 :     
; 1032 :     return TRUE;

  01ba4	e3a03001	 mov         r3, #1
  01ba8	e58d301c	 str         r3, [sp, #0x1C]
  01bac	ea000001	 b           |$LN14@Tca6416Gpi@14|
  01bb0		 |$LN2@Tca6416Gpi@14|
  01bb0		 |$LN4@Tca6416Gpi@14|
  01bb0		 |$LN6@Tca6416Gpi@14|
  01bb0		 |$LN8@Tca6416Gpi@14|
  01bb0		 |$LN11@Tca6416Gpi@14|
  01bb0		 |$cleanUp$37353|

; 1033 : 
; 1034 : cleanUp:
; 1035 :     return FALSE;

  01bb0	e3a03000	 mov         r3, #0
  01bb4	e58d301c	 str         r3, [sp, #0x1C]
  01bb8		 |$LN14@Tca6416Gpi@14|

; 1036 : }

  01bb8	e59d001c	 ldr         r0, [sp, #0x1C]
  01bbc	e28dd030	 add         sp, sp, #0x30
  01bc0	e89d6000	 ldmia       sp, {sp, lr}
  01bc4	e12fff1e	 bx          lr
  01bc8		 |$LN19@Tca6416Gpi@14|
  01bc8		 |$LN20@Tca6416Gpi@14|
  01bc8	00000000	 DCD         |?IST@@YAKPAX@Z|
  01bcc		 |$M37715|

			 ENDP  ; |?Tca6416GpioInterruptInitialize@@YAHPAXKPAK0@Z|, Tca6416GpioInterruptInitialize


  00098			 AREA	 |.pdata|, PDATA
|$T37724| DCD	|$LN12@Tca6416Gpi@15|
	DCD	0x40008104
; Function compile flags: /Odtp

  01bcc			 AREA	 |.text|, CODE, ARM

  01bcc		 |?Tca6416GpioInterruptMask@@YAXPAXKKH@Z| PROC ; Tca6416GpioInterruptMask

; 1044 : {    

  01bcc		 |$LN12@Tca6416Gpi@15|
  01bcc	e1a0c00d	 mov         r12, sp
  01bd0	e92d000f	 stmdb       sp!, {r0 - r3}
  01bd4	e92d5000	 stmdb       sp!, {r12, lr}
  01bd8	e24dd00c	 sub         sp, sp, #0xC
  01bdc		 |$M37721|

; 1045 :     int bank = id / NB_PIN_PER_BANK;

  01bdc	e59d1018	 ldr         r1, [sp, #0x18]
  01be0	e3a00008	 mov         r0, #8
  01be4	eb000000	 bl          __rt_udiv
  01be8	e58d0004	 str         r0, [sp, #4]

; 1046 :     int pin = id - (bank*NB_PIN_PER_BANK);

  01bec	e59d1004	 ldr         r1, [sp, #4]
  01bf0	e3a03008	 mov         r3, #8
  01bf4	e0020391	 mul         r2, r1, r3
  01bf8	e59d3018	 ldr         r3, [sp, #0x18]
  01bfc	e0433002	 sub         r3, r3, r2
  01c00	e58d3008	 str         r3, [sp, #8]

; 1047 :     TCA6416_DEVICE *pDevice = (TCA6416_DEVICE*)hContext;

  01c04	e59d3014	 ldr         r3, [sp, #0x14]
  01c08	e58d3000	 str         r3, [sp]

; 1048 : 
; 1049 :     UNREFERENCED_PARAMETER(sysintr);
; 1050 : 
; 1051 :     if ((hContext == NULL) || (bank >= NB_BANK) || (pin >= NB_PIN_PER_BANK))

  01c0c	e59d3014	 ldr         r3, [sp, #0x14]
  01c10	e3530000	 cmp         r3, #0
  01c14	0a000005	 beq         |$LN6@Tca6416Gpi@15|
  01c18	e59d3004	 ldr         r3, [sp, #4]
  01c1c	e3530002	 cmp         r3, #2
  01c20	aa000002	 bge         |$LN6@Tca6416Gpi@15|
  01c24	e59d3008	 ldr         r3, [sp, #8]
  01c28	e3530008	 cmp         r3, #8
  01c2c	ba000001	 blt         |$LN7@Tca6416Gpi@15|
  01c30		 |$LN6@Tca6416Gpi@15|

; 1052 :     {
; 1053 :         goto cleanUp;

  01c30	ea000063	 b           |$LN5@Tca6416Gpi@15|
  01c34	ea000062	 b           |$cleanUp$37380|
  01c38		 |$LN7@Tca6416Gpi@15|

; 1054 :     }     
; 1055 : 
; 1056 :     EnterCriticalSection(&pDevice->bankCs[bank]);    

  01c38	e59d3000	 ldr         r3, [sp]
  01c3c	e2831028	 add         r1, r3, #0x28
  01c40	e59d2004	 ldr         r2, [sp, #4]
  01c44	e3a03014	 mov         r3, #0x14
  01c48	e0030392	 mul         r3, r2, r3
  01c4c	e0810003	 add         r0, r1, r3
  01c50	eb000000	 bl          EnterCriticalSection

; 1057 :     if (fDisable)

  01c54	e59d3020	 ldr         r3, [sp, #0x20]
  01c58	e3530000	 cmp         r3, #0
  01c5c	0a000029	 beq         |$LN4@Tca6416Gpi@15|

; 1058 :     {
; 1059 :         pDevice->intMask[bank] &= (UCHAR) (~(1<<pin));

  01c60	e59d3000	 ldr         r3, [sp]
  01c64	e2832068	 add         r2, r3, #0x68
  01c68	e59d3004	 ldr         r3, [sp, #4]
  01c6c	e0821003	 add         r1, r2, r3
  01c70	e59d2008	 ldr         r2, [sp, #8]
  01c74	e3a03001	 mov         r3, #1
  01c78	e1a03213	 mov         r3, r3, lsl r2
  01c7c	e1e03003	 mvn         r3, r3
  01c80	e20330ff	 and         r3, r3, #0xFF
  01c84	e1a02003	 mov         r2, r3
  01c88	e5d13000	 ldrb        r3, [r1]
  01c8c	e0031002	 and         r1, r3, r2
  01c90	e59d3000	 ldr         r3, [sp]
  01c94	e2832068	 add         r2, r3, #0x68
  01c98	e59d3004	 ldr         r3, [sp, #4]
  01c9c	e0822003	 add         r2, r2, r3
  01ca0	e20130ff	 and         r3, r1, #0xFF
  01ca4	e5c23000	 strb        r3, [r2]

; 1060 :         pDevice->enabledIntCount--;

  01ca8	e59d3000	 ldr         r3, [sp]
  01cac	e28330ac	 add         r3, r3, #0xAC
  01cb0	e5933000	 ldr         r3, [r3]
  01cb4	e2432001	 sub         r2, r3, #1
  01cb8	e59d3000	 ldr         r3, [sp]
  01cbc	e28330ac	 add         r3, r3, #0xAC
  01cc0	e5832000	 str         r2, [r3]

; 1061 :         if (pDevice->enabledIntCount == 0)

  01cc4	e59d3000	 ldr         r3, [sp]
  01cc8	e28330ac	 add         r3, r3, #0xAC
  01ccc	e5933000	 ldr         r3, [r3]
  01cd0	e3530000	 cmp         r3, #0
  01cd4	1a00000a	 bne         |$LN3@Tca6416Gpi@15|

; 1062 :         {
; 1063 :             GPIOInterruptMask(pDevice->hGpio, pDevice->IntrGpio,pDevice->dwSysintr,TRUE);

  01cd8	e3a03001	 mov         r3, #1
  01cdc	e59d2000	 ldr         r2, [sp]
  01ce0	e2822018	 add         r2, r2, #0x18
  01ce4	e5922000	 ldr         r2, [r2]
  01ce8	e59d1000	 ldr         r1, [sp]
  01cec	e281100c	 add         r1, r1, #0xC
  01cf0	e5911000	 ldr         r1, [r1]
  01cf4	e59d0000	 ldr         r0, [sp]
  01cf8	e2800014	 add         r0, r0, #0x14
  01cfc	e5900000	 ldr         r0, [r0]
  01d00	eb000000	 bl          GPIOInterruptMask
  01d04		 |$LN3@Tca6416Gpi@15|

; 1064 :         }
; 1065 :     }
; 1066 :     else

  01d04	ea000027	 b           |$LN2@Tca6416Gpi@15|
  01d08		 |$LN4@Tca6416Gpi@15|

; 1067 :     {
; 1068 :         pDevice->intMask[bank] |= (UCHAR) (1<<pin);

  01d08	e59d3000	 ldr         r3, [sp]
  01d0c	e2832068	 add         r2, r3, #0x68
  01d10	e59d3004	 ldr         r3, [sp, #4]
  01d14	e0821003	 add         r1, r2, r3
  01d18	e59d2008	 ldr         r2, [sp, #8]
  01d1c	e3a03001	 mov         r3, #1
  01d20	e1a03213	 mov         r3, r3, lsl r2
  01d24	e20330ff	 and         r3, r3, #0xFF
  01d28	e1a02003	 mov         r2, r3
  01d2c	e5d13000	 ldrb        r3, [r1]
  01d30	e1831002	 orr         r1, r3, r2
  01d34	e59d3000	 ldr         r3, [sp]
  01d38	e2832068	 add         r2, r3, #0x68
  01d3c	e59d3004	 ldr         r3, [sp, #4]
  01d40	e0822003	 add         r2, r2, r3
  01d44	e20130ff	 and         r3, r1, #0xFF
  01d48	e5c23000	 strb        r3, [r2]

; 1069 :         pDevice->enabledIntCount++;

  01d4c	e59d3000	 ldr         r3, [sp]
  01d50	e28330ac	 add         r3, r3, #0xAC
  01d54	e5933000	 ldr         r3, [r3]
  01d58	e2832001	 add         r2, r3, #1
  01d5c	e59d3000	 ldr         r3, [sp]
  01d60	e28330ac	 add         r3, r3, #0xAC
  01d64	e5832000	 str         r2, [r3]

; 1070 :         if (pDevice->enabledIntCount > 0)

  01d68	e59d3000	 ldr         r3, [sp]
  01d6c	e28330ac	 add         r3, r3, #0xAC
  01d70	e5933000	 ldr         r3, [r3]
  01d74	e3530000	 cmp         r3, #0
  01d78	da00000a	 ble         |$LN1@Tca6416Gpi@15|

; 1071 :         {
; 1072 :             GPIOInterruptMask(pDevice->hGpio, pDevice->IntrGpio,pDevice->dwSysintr,FALSE);

  01d7c	e3a03000	 mov         r3, #0
  01d80	e59d2000	 ldr         r2, [sp]
  01d84	e2822018	 add         r2, r2, #0x18
  01d88	e5922000	 ldr         r2, [r2]
  01d8c	e59d1000	 ldr         r1, [sp]
  01d90	e281100c	 add         r1, r1, #0xC
  01d94	e5911000	 ldr         r1, [r1]
  01d98	e59d0000	 ldr         r0, [sp]
  01d9c	e2800014	 add         r0, r0, #0x14
  01da0	e5900000	 ldr         r0, [r0]
  01da4	eb000000	 bl          GPIOInterruptMask
  01da8		 |$LN1@Tca6416Gpi@15|
  01da8		 |$LN2@Tca6416Gpi@15|

; 1073 :         }
; 1074 :     }
; 1075 :     LeaveCriticalSection(&pDevice->bankCs[bank]);

  01da8	e59d3000	 ldr         r3, [sp]
  01dac	e2831028	 add         r1, r3, #0x28
  01db0	e59d2004	 ldr         r2, [sp, #4]
  01db4	e3a03014	 mov         r3, #0x14
  01db8	e0030392	 mul         r3, r2, r3
  01dbc	e0810003	 add         r0, r1, r3
  01dc0	eb000000	 bl          LeaveCriticalSection
  01dc4		 |$LN5@Tca6416Gpi@15|
  01dc4		 |$cleanUp$37380|

; 1076 : 
; 1077 : cleanUp:
; 1078 :     return;
; 1079 : }

  01dc4	e28dd00c	 add         sp, sp, #0xC
  01dc8	e89d6000	 ldmia       sp, {sp, lr}
  01dcc	e12fff1e	 bx          lr
  01dd0		 |$M37722|

			 ENDP  ; |?Tca6416GpioInterruptMask@@YAXPAXKKH@Z|, Tca6416GpioInterruptMask


  000a0			 AREA	 |.pdata|, PDATA
|$T37729| DCD	|$LN8@Tca6416Gpi@16|
	DCD	0x40004a04
; Function compile flags: /Odtp

  01dd0			 AREA	 |.text|, CODE, ARM

  01dd0		 |?Tca6416GpioInterruptDisable@@YAXPAXKK@Z| PROC ; Tca6416GpioInterruptDisable

; 1087 : {

  01dd0		 |$LN8@Tca6416Gpi@16|
  01dd0	e1a0c00d	 mov         r12, sp
  01dd4	e92d0007	 stmdb       sp!, {r0 - r2}
  01dd8	e92d5000	 stmdb       sp!, {r12, lr}
  01ddc	e24dd00c	 sub         sp, sp, #0xC
  01de0		 |$M37726|

; 1088 :     int bank = id / NB_PIN_PER_BANK;

  01de0	e59d1018	 ldr         r1, [sp, #0x18]
  01de4	e3a00008	 mov         r0, #8
  01de8	eb000000	 bl          __rt_udiv
  01dec	e58d0004	 str         r0, [sp, #4]

; 1089 :     int pin = id - (bank*NB_PIN_PER_BANK);

  01df0	e59d1004	 ldr         r1, [sp, #4]
  01df4	e3a03008	 mov         r3, #8
  01df8	e0020391	 mul         r2, r1, r3
  01dfc	e59d3018	 ldr         r3, [sp, #0x18]
  01e00	e0433002	 sub         r3, r3, r2
  01e04	e58d3008	 str         r3, [sp, #8]

; 1090 :     TCA6416_DEVICE *pDevice = (TCA6416_DEVICE*)hContext;

  01e08	e59d3014	 ldr         r3, [sp, #0x14]
  01e0c	e58d3000	 str         r3, [sp]

; 1091 : 
; 1092 :     UNREFERENCED_PARAMETER(sysintr);
; 1093 : 
; 1094 :     if ((hContext == NULL) || (bank >= NB_BANK) || (pin >= NB_PIN_PER_BANK))

  01e10	e59d3014	 ldr         r3, [sp, #0x14]
  01e14	e3530000	 cmp         r3, #0
  01e18	0a000005	 beq         |$LN2@Tca6416Gpi@16|
  01e1c	e59d3004	 ldr         r3, [sp, #4]
  01e20	e3530002	 cmp         r3, #2
  01e24	aa000002	 bge         |$LN2@Tca6416Gpi@16|
  01e28	e59d3008	 ldr         r3, [sp, #8]
  01e2c	e3530008	 cmp         r3, #8
  01e30	ba000001	 blt         |$LN3@Tca6416Gpi@16|
  01e34		 |$LN2@Tca6416Gpi@16|

; 1095 :     {
; 1096 :         goto cleanUp;

  01e34	ea00002c	 b           |$LN1@Tca6416Gpi@16|
  01e38	ea00002b	 b           |$cleanUp$37399|
  01e3c		 |$LN3@Tca6416Gpi@16|

; 1097 :     }     
; 1098 : 
; 1099 :     EnterCriticalSection(&pDevice->bankCs[bank]);

  01e3c	e59d3000	 ldr         r3, [sp]
  01e40	e2831028	 add         r1, r3, #0x28
  01e44	e59d2004	 ldr         r2, [sp, #4]
  01e48	e3a03014	 mov         r3, #0x14
  01e4c	e0030392	 mul         r3, r2, r3
  01e50	e0810003	 add         r0, r1, r3
  01e54	eb000000	 bl          EnterCriticalSection

; 1100 :     pDevice->hPinEvent[bank][pin] = NULL;

  01e58	e59d3000	 ldr         r3, [sp]
  01e5c	e283106c	 add         r1, r3, #0x6C
  01e60	e59d2004	 ldr         r2, [sp, #4]
  01e64	e3a03020	 mov         r3, #0x20
  01e68	e0030392	 mul         r3, r2, r3
  01e6c	e0811003	 add         r1, r1, r3
  01e70	e59d2008	 ldr         r2, [sp, #8]
  01e74	e3a03004	 mov         r3, #4
  01e78	e0030392	 mul         r3, r2, r3
  01e7c	e0812003	 add         r2, r1, r3
  01e80	e3a03000	 mov         r3, #0
  01e84	e5823000	 str         r3, [r2]

; 1101 :     pDevice->intMask[bank] &= (UCHAR) ~(1<<pin);

  01e88	e59d3000	 ldr         r3, [sp]
  01e8c	e2832068	 add         r2, r3, #0x68
  01e90	e59d3004	 ldr         r3, [sp, #4]
  01e94	e0821003	 add         r1, r2, r3
  01e98	e59d2008	 ldr         r2, [sp, #8]
  01e9c	e3a03001	 mov         r3, #1
  01ea0	e1a03213	 mov         r3, r3, lsl r2
  01ea4	e1e03003	 mvn         r3, r3
  01ea8	e20330ff	 and         r3, r3, #0xFF
  01eac	e1a02003	 mov         r2, r3
  01eb0	e5d13000	 ldrb        r3, [r1]
  01eb4	e0031002	 and         r1, r3, r2
  01eb8	e59d3000	 ldr         r3, [sp]
  01ebc	e2832068	 add         r2, r3, #0x68
  01ec0	e59d3004	 ldr         r3, [sp, #4]
  01ec4	e0822003	 add         r2, r2, r3
  01ec8	e20130ff	 and         r3, r1, #0xFF
  01ecc	e5c23000	 strb        r3, [r2]

; 1102 :     LeaveCriticalSection(&pDevice->bankCs[bank]);

  01ed0	e59d3000	 ldr         r3, [sp]
  01ed4	e2831028	 add         r1, r3, #0x28
  01ed8	e59d2004	 ldr         r2, [sp, #4]
  01edc	e3a03014	 mov         r3, #0x14
  01ee0	e0030392	 mul         r3, r2, r3
  01ee4	e0810003	 add         r0, r1, r3
  01ee8	eb000000	 bl          LeaveCriticalSection
  01eec		 |$LN1@Tca6416Gpi@16|
  01eec		 |$cleanUp$37399|

; 1103 : 
; 1104 : cleanUp:
; 1105 :     return;
; 1106 : }

  01eec	e28dd00c	 add         sp, sp, #0xC
  01ef0	e89d6000	 ldmia       sp, {sp, lr}
  01ef4	e12fff1e	 bx          lr
  01ef8		 |$M37727|

			 ENDP  ; |?Tca6416GpioInterruptDisable@@YAXPAXKK@Z|, Tca6416GpioInterruptDisable


  000a8			 AREA	 |.pdata|, PDATA
|$T37734| DCD	|$LN5@Tca6416Gpi@17|
	DCD	0x40000a03
; Function compile flags: /Odtp

  01ef8			 AREA	 |.text|, CODE, ARM

  01ef8		 |?Tca6416GpioInterruptDone@@YAXPAXKK@Z| PROC ; Tca6416GpioInterruptDone

; 1114 : {

  01ef8		 |$LN5@Tca6416Gpi@17|
  01ef8	e1a0c00d	 mov         r12, sp
  01efc	e92d0007	 stmdb       sp!, {r0 - r2}
  01f00	e92d5000	 stmdb       sp!, {r12, lr}
  01f04		 |$M37731|

; 1115 :     Tca6416GpioInterruptMask(hContext,id, sysintr,FALSE);

  01f04	e3a03000	 mov         r3, #0
  01f08	e59d2010	 ldr         r2, [sp, #0x10]
  01f0c	e59d100c	 ldr         r1, [sp, #0xC]
  01f10	e59d0008	 ldr         r0, [sp, #8]
  01f14	eb000000	 bl          |?Tca6416GpioInterruptMask@@YAXPAXKKH@Z|

; 1116 : }

  01f18	e89d6000	 ldmia       sp, {sp, lr}
  01f1c	e12fff1e	 bx          lr
  01f20		 |$M37732|

			 ENDP  ; |?Tca6416GpioInterruptDone@@YAXPAXKK@Z|, Tca6416GpioInterruptDone

	IMPORT	|GPIOInterruptWakeUp|

  000b0			 AREA	 |.pdata|, PDATA
|$T37740| DCD	|$LN11@Tca6416Gpi@18|
	DCD	0x40006004
; Function compile flags: /Odtp

  01f20			 AREA	 |.text|, CODE, ARM

  01f20		 |?Tca6416GpioInterruptWakeUp@@YAHPAXKKH@Z| PROC ; Tca6416GpioInterruptWakeUp

; 1130 : {    

  01f20		 |$LN11@Tca6416Gpi@18|
  01f20	e1a0c00d	 mov         r12, sp
  01f24	e92d000f	 stmdb       sp!, {r0 - r3}
  01f28	e92d5000	 stmdb       sp!, {r12, lr}
  01f2c	e24dd018	 sub         sp, sp, #0x18
  01f30		 |$M37737|

; 1131 :     TCA6416_DEVICE *pDevice = (TCA6416_DEVICE*)hContext;

  01f30	e59d3020	 ldr         r3, [sp, #0x20]
  01f34	e58d3000	 str         r3, [sp]

; 1132 :     int oldCounter = pDevice->wakeupStateCounter;

  01f38	e59d3000	 ldr         r3, [sp]
  01f3c	e2833064	 add         r3, r3, #0x64
  01f40	e5933000	 ldr         r3, [r3]
  01f44	e58d3008	 str         r3, [sp, #8]

; 1133 :     BOOL rc = TRUE;

  01f48	e3a03001	 mov         r3, #1
  01f4c	e58d3004	 str         r3, [sp, #4]

; 1134 : 
; 1135 :     UNREFERENCED_PARAMETER(sysintr);
; 1136 :     UNREFERENCED_PARAMETER(id);
; 1137 : 
; 1138 :     EnterCriticalSection(&pDevice->wakeupStateCs);

  01f50	e59d3000	 ldr         r3, [sp]
  01f54	e2830050	 add         r0, r3, #0x50
  01f58	eb000000	 bl          EnterCriticalSection

; 1139 :     
; 1140 :     if (fEnable)

  01f5c	e59d302c	 ldr         r3, [sp, #0x2C]
  01f60	e3530000	 cmp         r3, #0
  01f64	0a000007	 beq         |$LN6@Tca6416Gpi@18|

; 1141 :         pDevice->wakeupStateCounter++;

  01f68	e59d3000	 ldr         r3, [sp]
  01f6c	e2833064	 add         r3, r3, #0x64
  01f70	e5933000	 ldr         r3, [r3]
  01f74	e2832001	 add         r2, r3, #1
  01f78	e59d3000	 ldr         r3, [sp]
  01f7c	e2833064	 add         r3, r3, #0x64
  01f80	e5832000	 str         r2, [r3]

; 1142 :     else

  01f84	ea000006	 b           |$LN5@Tca6416Gpi@18|
  01f88		 |$LN6@Tca6416Gpi@18|

; 1143 :         pDevice->wakeupStateCounter--;

  01f88	e59d3000	 ldr         r3, [sp]
  01f8c	e2833064	 add         r3, r3, #0x64
  01f90	e5933000	 ldr         r3, [r3]
  01f94	e2432001	 sub         r2, r3, #1
  01f98	e59d3000	 ldr         r3, [sp]
  01f9c	e2833064	 add         r3, r3, #0x64
  01fa0	e5832000	 str         r2, [r3]
  01fa4		 |$LN5@Tca6416Gpi@18|

; 1144 : 
; 1145 :     if (pDevice->wakeupStateCounter < 0)

  01fa4	e59d3000	 ldr         r3, [sp]
  01fa8	e2833064	 add         r3, r3, #0x64
  01fac	e5933000	 ldr         r3, [r3]
  01fb0	e3530000	 cmp         r3, #0
  01fb4	aa000003	 bge         |$LN4@Tca6416Gpi@18|

; 1146 :     {
; 1147 :         pDevice->wakeupStateCounter = 0;

  01fb8	e59d3000	 ldr         r3, [sp]
  01fbc	e2832064	 add         r2, r3, #0x64
  01fc0	e3a03000	 mov         r3, #0
  01fc4	e5823000	 str         r3, [r2]
  01fc8		 |$LN4@Tca6416Gpi@18|

; 1148 :     }
; 1149 : 
; 1150 :     if ((oldCounter>0) && (pDevice->wakeupStateCounter == 0))

  01fc8	e59d3008	 ldr         r3, [sp, #8]
  01fcc	e3530000	 cmp         r3, #0
  01fd0	da000013	 ble         |$LN3@Tca6416Gpi@18|
  01fd4	e59d3000	 ldr         r3, [sp]
  01fd8	e2833064	 add         r3, r3, #0x64
  01fdc	e5933000	 ldr         r3, [r3]
  01fe0	e3530000	 cmp         r3, #0
  01fe4	1a00000e	 bne         |$LN3@Tca6416Gpi@18|

; 1151 :     {
; 1152 :         rc = GPIOInterruptWakeUp(pDevice->hGpio, pDevice->IntrGpio, pDevice->dwSysintr,FALSE);     

  01fe8	e3a03000	 mov         r3, #0
  01fec	e59d2000	 ldr         r2, [sp]
  01ff0	e2822018	 add         r2, r2, #0x18
  01ff4	e5922000	 ldr         r2, [r2]
  01ff8	e59d1000	 ldr         r1, [sp]
  01ffc	e281100c	 add         r1, r1, #0xC
  02000	e5911000	 ldr         r1, [r1]
  02004	e59d0000	 ldr         r0, [sp]
  02008	e2800014	 add         r0, r0, #0x14
  0200c	e5900000	 ldr         r0, [r0]
  02010	eb000000	 bl          GPIOInterruptWakeUp
  02014	e58d0010	 str         r0, [sp, #0x10]
  02018	e59d3010	 ldr         r3, [sp, #0x10]
  0201c	e58d3004	 str         r3, [sp, #4]
  02020	ea000015	 b           |$LN2@Tca6416Gpi@18|
  02024		 |$LN3@Tca6416Gpi@18|

; 1153 :     }
; 1154 :     else if ((oldCounter<=0) && (pDevice->wakeupStateCounter > 0))

  02024	e59d3008	 ldr         r3, [sp, #8]
  02028	e3530000	 cmp         r3, #0
  0202c	ca000012	 bgt         |$LN1@Tca6416Gpi@18|
  02030	e59d3000	 ldr         r3, [sp]
  02034	e2833064	 add         r3, r3, #0x64
  02038	e5933000	 ldr         r3, [r3]
  0203c	e3530000	 cmp         r3, #0
  02040	da00000d	 ble         |$LN1@Tca6416Gpi@18|

; 1155 :     {
; 1156 :         rc = GPIOInterruptWakeUp(pDevice->hGpio, pDevice->IntrGpio, pDevice->dwSysintr,TRUE);     

  02044	e3a03001	 mov         r3, #1
  02048	e59d2000	 ldr         r2, [sp]
  0204c	e2822018	 add         r2, r2, #0x18
  02050	e5922000	 ldr         r2, [r2]
  02054	e59d1000	 ldr         r1, [sp]
  02058	e281100c	 add         r1, r1, #0xC
  0205c	e5911000	 ldr         r1, [r1]
  02060	e59d0000	 ldr         r0, [sp]
  02064	e2800014	 add         r0, r0, #0x14
  02068	e5900000	 ldr         r0, [r0]
  0206c	eb000000	 bl          GPIOInterruptWakeUp
  02070	e58d0014	 str         r0, [sp, #0x14]
  02074	e59d3014	 ldr         r3, [sp, #0x14]
  02078	e58d3004	 str         r3, [sp, #4]
  0207c		 |$LN1@Tca6416Gpi@18|
  0207c		 |$LN2@Tca6416Gpi@18|

; 1157 :     }
; 1158 : 
; 1159 :     LeaveCriticalSection(&pDevice->wakeupStateCs);

  0207c	e59d3000	 ldr         r3, [sp]
  02080	e2830050	 add         r0, r3, #0x50
  02084	eb000000	 bl          LeaveCriticalSection

; 1160 : 
; 1161 :     return rc;

  02088	e59d3004	 ldr         r3, [sp, #4]
  0208c	e58d300c	 str         r3, [sp, #0xC]

; 1162 : }

  02090	e59d000c	 ldr         r0, [sp, #0xC]
  02094	e28dd018	 add         sp, sp, #0x18
  02098	e89d6000	 ldmia       sp, {sp, lr}
  0209c	e12fff1e	 bx          lr
  020a0		 |$M37738|

			 ENDP  ; |?Tca6416GpioInterruptWakeUp@@YAHPAXKKH@Z|, Tca6416GpioInterruptWakeUp

	EXPORT	|?GIO_Init@@YAKPBGK@Z|			; GIO_Init

  000b8			 AREA	 |.pdata|, PDATA
|$T37746| DCD	|$LN6@GIO_Init|
	DCD	0x40001504
; Function compile flags: /Odtp

  020a0			 AREA	 |.text|, CODE, ARM

  020a0		 |?GIO_Init@@YAKPBGK@Z| PROC		; GIO_Init

; 1168 : {

  020a0		 |$LN6@GIO_Init|
  020a0	e1a0c00d	 mov         r12, sp
  020a4	e92d0003	 stmdb       sp!, {r0, r1}
  020a8	e92d5000	 stmdb       sp!, {r12, lr}
  020ac	e24dd010	 sub         sp, sp, #0x10
  020b0		 |$M37743|

; 1169 :     HANDLE devCtxt;
; 1170 :     UINT count;
; 1171 : 
; 1172 :     UNREFERENCED_PARAMETER(dwBusContext);
; 1173 : 
; 1174 :     if (Tca6416GpioInit(pContext,&devCtxt,&count))

  020b0	e28d2000	 add         r2, sp, #0
  020b4	e28d1004	 add         r1, sp, #4
  020b8	e59d0018	 ldr         r0, [sp, #0x18]
  020bc	eb000000	 bl          |?Tca6416GpioInit@@YAHPBGPAPAXPAI@Z|
  020c0	e58d000c	 str         r0, [sp, #0xC]
  020c4	e59d300c	 ldr         r3, [sp, #0xC]
  020c8	e3530000	 cmp         r3, #0
  020cc	0a000002	 beq         |$LN1@GIO_Init|

; 1175 :     {
; 1176 :         return (DWORD) devCtxt;                

  020d0	e59d3004	 ldr         r3, [sp, #4]
  020d4	e58d3008	 str         r3, [sp, #8]
  020d8	ea000001	 b           |$LN2@GIO_Init|
  020dc		 |$LN1@GIO_Init|

; 1177 :     }
; 1178 :     return NULL;

  020dc	e3a03000	 mov         r3, #0
  020e0	e58d3008	 str         r3, [sp, #8]
  020e4		 |$LN2@GIO_Init|

; 1179 : }

  020e4	e59d0008	 ldr         r0, [sp, #8]
  020e8	e28dd010	 add         sp, sp, #0x10
  020ec	e89d6000	 ldmia       sp, {sp, lr}
  020f0	e12fff1e	 bx          lr
  020f4		 |$M37744|

			 ENDP  ; |?GIO_Init@@YAKPBGK@Z|, GIO_Init

	EXPORT	|?GIO_Deinit@@YAHK@Z|			; GIO_Deinit

  000c0			 AREA	 |.pdata|, PDATA
|$T37752| DCD	|$LN5@GIO_Deinit|
	DCD	0x40000d04
; Function compile flags: /Odtp

  020f4			 AREA	 |.text|, CODE, ARM

  020f4		 |?GIO_Deinit@@YAHK@Z| PROC		; GIO_Deinit

; 1184 : {

  020f4		 |$LN5@GIO_Deinit|
  020f4	e1a0c00d	 mov         r12, sp
  020f8	e92d0001	 stmdb       sp!, {r0}
  020fc	e92d5000	 stmdb       sp!, {r12, lr}
  02100	e24dd008	 sub         sp, sp, #8
  02104		 |$M37749|

; 1185 :     return Tca6416GpioDeinit((HANDLE)hDeviceContext);

  02104	e59d0010	 ldr         r0, [sp, #0x10]
  02108	eb000000	 bl          |?Tca6416GpioDeinit@@YAHPAX@Z|
  0210c	e58d0004	 str         r0, [sp, #4]
  02110	e59d3004	 ldr         r3, [sp, #4]
  02114	e58d3000	 str         r3, [sp]

; 1186 : }

  02118	e59d0000	 ldr         r0, [sp]
  0211c	e28dd008	 add         sp, sp, #8
  02120	e89d6000	 ldmia       sp, {sp, lr}
  02124	e12fff1e	 bx          lr
  02128		 |$M37750|

			 ENDP  ; |?GIO_Deinit@@YAHK@Z|, GIO_Deinit

	EXPORT	|?GIO_Open@@YAKKKK@Z|			; GIO_Open

  000c8			 AREA	 |.pdata|, PDATA
|$T37758| DCD	|$LN5@GIO_Open|
	DCD	0x40000a04
; Function compile flags: /Odtp

  02128			 AREA	 |.text|, CODE, ARM

  02128		 |?GIO_Open@@YAKKKK@Z| PROC		; GIO_Open

; 1193 : {

  02128		 |$LN5@GIO_Open|
  02128	e1a0c00d	 mov         r12, sp
  0212c	e92d0007	 stmdb       sp!, {r0 - r2}
  02130	e92d5000	 stmdb       sp!, {r12, lr}
  02134	e24dd004	 sub         sp, sp, #4
  02138		 |$M37755|

; 1194 :     UNREFERENCED_PARAMETER(AccessCode);
; 1195 :     UNREFERENCED_PARAMETER(ShareMode);
; 1196 :     return hDeviceContext;

  02138	e59d300c	 ldr         r3, [sp, #0xC]
  0213c	e58d3000	 str         r3, [sp]

; 1197 : }

  02140	e59d0000	 ldr         r0, [sp]
  02144	e28dd004	 add         sp, sp, #4
  02148	e89d6000	 ldmia       sp, {sp, lr}
  0214c	e12fff1e	 bx          lr
  02150		 |$M37756|

			 ENDP  ; |?GIO_Open@@YAKKKK@Z|, GIO_Open

	EXPORT	|?GIO_Close@@YAHK@Z|			; GIO_Close

  000d0			 AREA	 |.pdata|, PDATA
|$T37764| DCD	|$LN5@GIO_Close|
	DCD	0x40000a04
; Function compile flags: /Odtp

  02150			 AREA	 |.text|, CODE, ARM

  02150		 |?GIO_Close@@YAHK@Z| PROC		; GIO_Close

; 1202 : {

  02150		 |$LN5@GIO_Close|
  02150	e1a0c00d	 mov         r12, sp
  02154	e92d0001	 stmdb       sp!, {r0}
  02158	e92d5000	 stmdb       sp!, {r12, lr}
  0215c	e24dd004	 sub         sp, sp, #4
  02160		 |$M37761|

; 1203 :     UNREFERENCED_PARAMETER(hOpenContext);
; 1204 :     return TRUE;

  02160	e3a03001	 mov         r3, #1
  02164	e58d3000	 str         r3, [sp]

; 1205 : }

  02168	e59d0000	 ldr         r0, [sp]
  0216c	e28dd004	 add         sp, sp, #4
  02170	e89d6000	 ldmia       sp, {sp, lr}
  02174	e12fff1e	 bx          lr
  02178		 |$M37762|

			 ENDP  ; |?GIO_Close@@YAHK@Z|, GIO_Close

	EXPORT	|?GIO_PowerDown@@YAXK@Z|		; GIO_PowerDown

  000d8			 AREA	 |.pdata|, PDATA
|$T37769| DCD	|$LN5@GIO_PowerD|
	DCD	0x40000703
; Function compile flags: /Odtp

  02178			 AREA	 |.text|, CODE, ARM

  02178		 |?GIO_PowerDown@@YAXK@Z| PROC		; GIO_PowerDown

; 1210 : {

  02178		 |$LN5@GIO_PowerD|
  02178	e1a0c00d	 mov         r12, sp
  0217c	e92d0001	 stmdb       sp!, {r0}
  02180	e92d5000	 stmdb       sp!, {r12, lr}
  02184		 |$M37766|

; 1211 :     Tca6416GpioPowerDown((HANDLE) hDeviceContext);

  02184	e59d0008	 ldr         r0, [sp, #8]
  02188	eb000000	 bl          |?Tca6416GpioPowerDown@@YAXPAX@Z|

; 1212 : }

  0218c	e89d6000	 ldmia       sp, {sp, lr}
  02190	e12fff1e	 bx          lr
  02194		 |$M37767|

			 ENDP  ; |?GIO_PowerDown@@YAXK@Z|, GIO_PowerDown


  000e0			 AREA	 |.pdata|, PDATA
|$T37774| DCD	|$LN5@Tca6416Gpi@19|
	DCD	0x40000503
; Function compile flags: /Odtp

  02194			 AREA	 |.text|, CODE, ARM

  02194		 |?Tca6416GpioPowerDown@@YAXPAX@Z| PROC	; Tca6416GpioPowerDown

; 965  : {

  02194		 |$LN5@Tca6416Gpi@19|
  02194	e1a0c00d	 mov         r12, sp
  02198	e92d0001	 stmdb       sp!, {r0}
  0219c	e92d5000	 stmdb       sp!, {r12, lr}
  021a0		 |$M37771|

; 966  :     UNREFERENCED_PARAMETER(hContext);
; 967  : }

  021a0	e89d6000	 ldmia       sp, {sp, lr}
  021a4	e12fff1e	 bx          lr
  021a8		 |$M37772|

			 ENDP  ; |?Tca6416GpioPowerDown@@YAXPAX@Z|, Tca6416GpioPowerDown

	EXPORT	|?GIO_PowerUp@@YAXK@Z|			; GIO_PowerUp

  000e8			 AREA	 |.pdata|, PDATA
|$T37779| DCD	|$LN5@GIO_PowerU|
	DCD	0x40000703
; Function compile flags: /Odtp

  021a8			 AREA	 |.text|, CODE, ARM

  021a8		 |?GIO_PowerUp@@YAXK@Z| PROC		; GIO_PowerUp

; 1216 : {

  021a8		 |$LN5@GIO_PowerU|
  021a8	e1a0c00d	 mov         r12, sp
  021ac	e92d0001	 stmdb       sp!, {r0}
  021b0	e92d5000	 stmdb       sp!, {r12, lr}
  021b4		 |$M37776|

; 1217 :     Tca6416GpioPowerUp((HANDLE) hDeviceContext);

  021b4	e59d0008	 ldr         r0, [sp, #8]
  021b8	eb000000	 bl          |?Tca6416GpioPowerUp@@YAXPAX@Z|

; 1218 : }

  021bc	e89d6000	 ldmia       sp, {sp, lr}
  021c0	e12fff1e	 bx          lr
  021c4		 |$M37777|

			 ENDP  ; |?GIO_PowerUp@@YAXK@Z|, GIO_PowerUp


  000f0			 AREA	 |.pdata|, PDATA
|$T37784| DCD	|$LN5@Tca6416Gpi@20|
	DCD	0x40000503
; Function compile flags: /Odtp

  021c4			 AREA	 |.text|, CODE, ARM

  021c4		 |?Tca6416GpioPowerUp@@YAXPAX@Z| PROC	; Tca6416GpioPowerUp

; 951  : {

  021c4		 |$LN5@Tca6416Gpi@20|
  021c4	e1a0c00d	 mov         r12, sp
  021c8	e92d0001	 stmdb       sp!, {r0}
  021cc	e92d5000	 stmdb       sp!, {r12, lr}
  021d0		 |$M37781|

; 952  :     UNREFERENCED_PARAMETER(hContext);
; 953  : }

  021d0	e89d6000	 ldmia       sp, {sp, lr}
  021d4	e12fff1e	 bx          lr
  021d8		 |$M37782|

			 ENDP  ; |?Tca6416GpioPowerUp@@YAXPAX@Z|, Tca6416GpioPowerUp

	EXPORT	|?GIO_IOControl@@YAHKKPAEK0KPAK@Z|	; GIO_IOControl

  000f8			 AREA	 |.pdata|, PDATA
|$T37793| DCD	|$LN5@GIO_IOCont|
	DCD	0x40001604
; Function compile flags: /Odtp

  021d8			 AREA	 |.text|, CODE, ARM

  021d8		 |?GIO_IOControl@@YAHKKPAEK0KPAK@Z| PROC ; GIO_IOControl

; 1231 : {

  021d8		 |$LN5@GIO_IOCont|
  021d8	e1a0c00d	 mov         r12, sp
  021dc	e92d000f	 stmdb       sp!, {r0 - r3}
  021e0	e92d5000	 stmdb       sp!, {r12, lr}
  021e4	e24dd020	 sub         sp, sp, #0x20
  021e8		 |$M37790|

; 1232 :     return Tca6416GpioIoControl(
; 1233 :         (HANDLE)hOpenContext,
; 1234 :         dwCode,
; 1235 :         pBufIn,
; 1236 :         dwLenIn,
; 1237 :         pBufOut,
; 1238 :         dwLenOut,
; 1239 :         pdwActualOut 
; 1240 :         );

  021e8	e59d3040	 ldr         r3, [sp, #0x40]
  021ec	e58d3008	 str         r3, [sp, #8]
  021f0	e59d303c	 ldr         r3, [sp, #0x3C]
  021f4	e58d3004	 str         r3, [sp, #4]
  021f8	e59d3038	 ldr         r3, [sp, #0x38]
  021fc	e58d3000	 str         r3, [sp]
  02200	e59d3034	 ldr         r3, [sp, #0x34]
  02204	e59d2030	 ldr         r2, [sp, #0x30]
  02208	e59d102c	 ldr         r1, [sp, #0x2C]
  0220c	e59d0028	 ldr         r0, [sp, #0x28]
  02210	eb000000	 bl          |?Tca6416GpioIoControl@@YAHPAXIPAEI1IPAK@Z|
  02214	e58d001c	 str         r0, [sp, #0x1C]
  02218	e59d301c	 ldr         r3, [sp, #0x1C]
  0221c	e58d3018	 str         r3, [sp, #0x18]

; 1241 : }

  02220	e59d0018	 ldr         r0, [sp, #0x18]
  02224	e28dd020	 add         sp, sp, #0x20
  02228	e89d6000	 ldmia       sp, {sp, lr}
  0222c	e12fff1e	 bx          lr
  02230		 |$M37791|

			 ENDP  ; |?GIO_IOControl@@YAHKKPAEK0KPAK@Z|, GIO_IOControl

	END
