; Listing generated by Microsoft (R) Optimizing Compiler Version 14.01.60511.01 

	TTL	C:\WINCE600\PLATFORM\COMMON\SRC\SOC\COMMON_TI_V1\COMMON_TI\PM\POLICYADAPTERS\SYSTEMSTATE\systemstate.cpp
	CODE32

  00000			 AREA	 |.drectve|, DRECTVE
	DCB	"-defaultlib:LIBCMT "
	DCB	"-defaultlib:OLDNAMES "

	EXPORT	|??_C@_1BI@OJGHJKJA@?$AAp?$AAr?$AAi?$AAo?$AAr?$AAi?$AAt?$AAy?$AA2?$AA5?$AA6?$AA?$AA@| [ DATA ] ; `string'
	EXPORT	|??_C@_1BA@EHNEILKF@?$AAU?$AAs?$AAe?$AAr?$AAO?$AAp?$AAm?$AA?$AA@| [ DATA ] ; `string'
	EXPORT	|dpCurSettings| [ DATA ]
	EXPORT	|?g_reg@@3PAUREGISTRY_PARAMETERS@@A| [ DATA ] ; g_reg

  00000			 AREA	 |.rdata|, DATA, READONLY
|??_C@_1BI@OJGHJKJA@?$AAp?$AAr?$AAi?$AAo?$AAr?$AAi?$AAt?$AAy?$AA2?$AA5?$AA6?$AA?$AA@| DCB "p"
	DCB	0x0, "r", 0x0, "i", 0x0, "o", 0x0, "r", 0x0, "i", 0x0, "t"
	DCB	0x0, "y", 0x0, "2", 0x0, "5", 0x0, "6", 0x0, 0x0, 0x0 ; `string'

  00000			 AREA	 |.rdata|, DATA, READONLY
|??_C@_1BA@EHNEILKF@?$AAU?$AAs?$AAe?$AAr?$AAO?$AAp?$AAm?$AA?$AA@| DCB "U", 0x0
	DCB	"s", 0x0, "e", 0x0, "r", 0x0, "O", 0x0, "p", 0x0, "m", 0x0
	DCB	0x0, 0x0				; `string'

  00000			 AREA	 |.data|, DATA
|dpCurSettings| DCB "P", 0x0, "r", 0x0, "o", 0x0, "x", 0x0, "y", 0x0, "D", 0x0
	DCB	"r", 0x0, "i", 0x0, "v", 0x0, "e", 0x0, "r", 0x0, 0x0, 0x0
	%	40
	DCB	"E", 0x0, "r", 0x0, "r", 0x0, "o", 0x0, "r", 0x0, "s", 0x0
	DCB	0x0, 0x0
	%	50
	DCB	"W", 0x0, "a", 0x0, "r", 0x0, "n", 0x0, "i", 0x0, "n", 0x0
	DCB	"g", 0x0, "s", 0x0, 0x0, 0x0
	%	46
	DCB	"F", 0x0, "u", 0x0, "n", 0x0, "c", 0x0, "t", 0x0, "i", 0x0
	DCB	"o", 0x0, "n", 0x0, 0x0, 0x0
	%	46
	DCB	"I", 0x0, "n", 0x0, "f", 0x0, "o", 0x0, 0x0, 0x0
	%	54
	DCB	"U", 0x0, "n", 0x0, "d", 0x0, "e", 0x0, "f", 0x0, "i", 0x0
	DCB	"n", 0x0, "e", 0x0, "d", 0x0, 0x0, 0x0
	%	44
	DCB	"U", 0x0, "n", 0x0, "d", 0x0, "e", 0x0, "f", 0x0, "i", 0x0
	DCB	"n", 0x0, "e", 0x0, "d", 0x0, 0x0, 0x0
	%	44
	DCB	"U", 0x0, "n", 0x0, "d", 0x0, "e", 0x0, "f", 0x0, "i", 0x0
	DCB	"n", 0x0, "e", 0x0, "d", 0x0, 0x0, 0x0
	%	44
	DCB	"U", 0x0, "n", 0x0, "d", 0x0, "e", 0x0, "f", 0x0, "i", 0x0
	DCB	"n", 0x0, "e", 0x0, "d", 0x0, 0x0, 0x0
	%	44
	DCB	"U", 0x0, "n", 0x0, "d", 0x0, "e", 0x0, "f", 0x0, "i", 0x0
	DCB	"n", 0x0, "e", 0x0, "d", 0x0, 0x0, 0x0
	%	44
	DCB	"U", 0x0, "n", 0x0, "d", 0x0, "e", 0x0, "f", 0x0, "i", 0x0
	DCB	"n", 0x0, "e", 0x0, "d", 0x0, 0x0, 0x0
	%	44
	DCB	"U", 0x0, "n", 0x0, "d", 0x0, "e", 0x0, "f", 0x0, "i", 0x0
	DCB	"n", 0x0, "e", 0x0, "d", 0x0, 0x0, 0x0
	%	44
	DCB	"U", 0x0, "n", 0x0, "d", 0x0, "e", 0x0, "f", 0x0, "i", 0x0
	DCB	"n", 0x0, "e", 0x0, "d", 0x0, 0x0, 0x0
	%	44
	DCB	"U", 0x0, "n", 0x0, "d", 0x0, "e", 0x0, "f", 0x0, "i", 0x0
	DCB	"n", 0x0, "e", 0x0, "d", 0x0, 0x0, 0x0
	%	44
	DCB	"U", 0x0, "n", 0x0, "d", 0x0, "e", 0x0, "f", 0x0, "i", 0x0
	DCB	"n", 0x0, "e", 0x0, "d", 0x0, 0x0, 0x0
	%	44
	DCB	"U", 0x0, "n", 0x0, "d", 0x0, "e", 0x0, "f", 0x0, "i", 0x0
	DCB	"n", 0x0, "e", 0x0, "d", 0x0, 0x0, 0x0
	%	44
	DCB	"U", 0x0, "n", 0x0, "d", 0x0, "e", 0x0, "f", 0x0, "i", 0x0
	DCB	"n", 0x0, "e", 0x0, "d", 0x0, 0x0, 0x0
	%	44
	DCD	0x0
|?g_reg@@3PAUREGISTRY_PARAMETERS@@A| DCD |??_C@_1BA@EHNEILKF@?$AAU?$AAs?$AAe?$AAr?$AAO?$AAp?$AAm?$AA?$AA@| ; g_reg
	DCD	0x4
	DCD	|??_C@_1BI@OJGHJKJA@?$AAp?$AAr?$AAi?$AAo?$AAr?$AAi?$AAt?$AAy?$AA2?$AA5?$AA6?$AA?$AA@|
	DCD	0x4
	EXPORT	|?GetRegVal@@YAHPAG@Z|			; GetRegVal
	IMPORT	|RegCloseKey|
	IMPORT	|RegQueryValueExW|
	IMPORT	|RegOpenKeyExW|

  00000			 AREA	 |.bss|, NOINIT
|s_SystenStatePolicyInfo| % 0x1c

  00000			 AREA	 |.pdata|, PDATA
|$T36648| DCD	|$LN13@GetRegVal|
	DCD	0x40004b04
; Function compile flags: /Odtp
; File c:\wince600\platform\common\src\soc\common_ti_v1\common_ti\pm\policyadapters\systemstate\systemstate.cpp

  00000			 AREA	 |.text|, CODE, ARM

  00000		 |?GetRegVal@@YAHPAG@Z| PROC		; GetRegVal

; 121  : {

  00000		 |$LN13@GetRegVal|
  00000	e1a0c00d	 mov         r12, sp
  00004	e92d0001	 stmdb       sp!, {r0}
  00008	e92d5000	 stmdb       sp!, {r12, lr}
  0000c	e24dd038	 sub         sp, sp, #0x38
  00010		 |$M36645|

; 122  :     BOOL rc=FALSE;

  00010	e3a03000	 mov         r3, #0
  00014	e58d3008	 str         r3, [sp, #8]

; 123  :     HKEY hOpenedKey=NULL;

  00018	e3a03000	 mov         r3, #0
  0001c	e58d300c	 str         r3, [sp, #0xC]

; 124  : 
; 125  :     if(ERROR_SUCCESS != RegOpenKeyEx(HKEY_LOCAL_MACHINE,
; 126  :                                         szRegPath,
; 127  :                                         0,
; 128  :                                         0,
; 129  :                                         &hOpenedKey))

  00020	e28d300c	 add         r3, sp, #0xC
  00024	e58d3000	 str         r3, [sp]
  00028	e3a03000	 mov         r3, #0
  0002c	e3a02000	 mov         r2, #0
  00030	e59d1040	 ldr         r1, [sp, #0x40]
  00034	e3a0010a	 mov         r0, #0xA, 2
  00038	eb000000	 bl          RegOpenKeyExW
  0003c	e58d0028	 str         r0, [sp, #0x28]
  00040	e59d3028	 ldr         r3, [sp, #0x28]
  00044	e3530000	 cmp         r3, #0
  00048	0a000001	 beq         |$LN8@GetRegVal|
  0004c	ea00002e	 b           |$LN7@GetRegVal|

; 130  :         {
; 131  :         goto cleanUp;

  00050	ea00002d	 b           |$cleanUp$36524|
  00054		 |$LN8@GetRegVal|

; 132  :         }
; 133  :     
; 134  :     if (ERROR_SUCCESS != RegQueryValueEx(hOpenedKey,
; 135  :                                         g_reg[UserOpm].lpRegname,
; 136  :                                         NULL,
; 137  :                                         NULL,
; 138  :                                         (UCHAR *)&s_SystenStatePolicyInfo.dwUserOpm,
; 139  :                                         &g_reg[UserOpm].dwSize))

  00054	e59f30c8	 ldr         r3, [pc, #0xC8]
  00058	e2833004	 add         r3, r3, #4
  0005c	e58d3004	 str         r3, [sp, #4]
  00060	e59f30c0	 ldr         r3, [pc, #0xC0]
  00064	e2833014	 add         r3, r3, #0x14
  00068	e58d3000	 str         r3, [sp]
  0006c	e3a03000	 mov         r3, #0
  00070	e3a02000	 mov         r2, #0
  00074	e59f10a8	 ldr         r1, [pc, #0xA8]
  00078	e5911000	 ldr         r1, [r1]
  0007c	e59d000c	 ldr         r0, [sp, #0xC]
  00080	eb000000	 bl          RegQueryValueExW
  00084	e58d002c	 str         r0, [sp, #0x2C]
  00088	e59d302c	 ldr         r3, [sp, #0x2C]
  0008c	e3530000	 cmp         r3, #0
  00090	0a000001	 beq         |$LN6@GetRegVal|
  00094	ea000014	 b           |$LN5@GetRegVal|

; 140  :         {
; 141  :         goto closeKey;

  00098	ea000013	 b           |$closeKey$36528|
  0009c		 |$LN6@GetRegVal|

; 142  :         }
; 143  : 
; 144  :     if (ERROR_SUCCESS != RegQueryValueEx(hOpenedKey,
; 145  :                                         g_reg[ThreadPriority].lpRegname,
; 146  :                                         NULL,
; 147  :                                         NULL,
; 148  :                                         (UCHAR *)&s_SystenStatePolicyInfo.dwThreadPriority,
; 149  :                                         &g_reg[ThreadPriority].dwSize))

  0009c	e59f3080	 ldr         r3, [pc, #0x80]
  000a0	e283300c	 add         r3, r3, #0xC
  000a4	e58d3004	 str         r3, [sp, #4]
  000a8	e59f3078	 ldr         r3, [pc, #0x78]
  000ac	e2833018	 add         r3, r3, #0x18
  000b0	e58d3000	 str         r3, [sp]
  000b4	e3a03000	 mov         r3, #0
  000b8	e3a02000	 mov         r2, #0
  000bc	e59f1060	 ldr         r1, [pc, #0x60]
  000c0	e5911008	 ldr         r1, [r1, #8]
  000c4	e59d000c	 ldr         r0, [sp, #0xC]
  000c8	eb000000	 bl          RegQueryValueExW
  000cc	e58d0030	 str         r0, [sp, #0x30]
  000d0	e59d3030	 ldr         r3, [sp, #0x30]
  000d4	e3530000	 cmp         r3, #0
  000d8	0a000001	 beq         |$LN4@GetRegVal|
  000dc	ea000002	 b           |$LN3@GetRegVal|

; 150  :         {
; 151  :         goto closeKey;

  000e0	ea000001	 b           |$closeKey$36528|
  000e4		 |$LN4@GetRegVal|

; 152  :         }
; 153  : 
; 154  :     rc = TRUE;

  000e4	e3a03001	 mov         r3, #1
  000e8	e58d3008	 str         r3, [sp, #8]
  000ec		 |$LN3@GetRegVal|
  000ec		 |$LN5@GetRegVal|
  000ec		 |$closeKey$36528|

; 155  : 
; 156  : closeKey:
; 157  : 
; 158  :     if(ERROR_SUCCESS != RegCloseKey(hOpenedKey))

  000ec	e59d000c	 ldr         r0, [sp, #0xC]
  000f0	eb000000	 bl          RegCloseKey
  000f4	e58d0034	 str         r0, [sp, #0x34]
  000f8	e59d3034	 ldr         r3, [sp, #0x34]
  000fc	e3530000	 cmp         r3, #0
  00100	0a000001	 beq         |$LN2@GetRegVal|

; 159  :         {
; 160  :         rc = FALSE;

  00104	e3a03000	 mov         r3, #0
  00108	e58d3008	 str         r3, [sp, #8]
  0010c		 |$LN2@GetRegVal|
  0010c		 |$LN7@GetRegVal|
  0010c		 |$cleanUp$36524|

; 161  :         goto cleanUp;
; 162  :         }
; 163  : 
; 164  : cleanUp:
; 165  : 
; 166  :     return rc;

  0010c	e59d3008	 ldr         r3, [sp, #8]
  00110	e58d3024	 str         r3, [sp, #0x24]

; 167  : }

  00114	e59d0024	 ldr         r0, [sp, #0x24]
  00118	e28dd038	 add         sp, sp, #0x38
  0011c	e89d6000	 ldmia       sp, {sp, lr}
  00120	e12fff1e	 bx          lr
  00124		 |$LN14@GetRegVal|
  00124		 |$LN15@GetRegVal|
  00124	00000000	 DCD         |?g_reg@@3PAUREGISTRY_PARAMETERS@@A|
  00128		 |$LN16@GetRegVal|
  00128	00000000	 DCD         |s_SystenStatePolicyInfo|
  0012c		 |$M36646|

			 ENDP  ; |?GetRegVal@@YAHPAG@Z|, GetRegVal

	EXPORT	|?UpdateDVFSConstraint@@YAXK@Z|		; UpdateDVFSConstraint
	IMPORT	|PmxUpdateConstraint|

  00008			 AREA	 |.pdata|, PDATA
|$T36656| DCD	|$LN5@UpdateDVFS|
	DCD	0x40000c03
; Function compile flags: /Odtp

  0012c			 AREA	 |.text|, CODE, ARM

  0012c		 |?UpdateDVFSConstraint@@YAXK@Z| PROC	; UpdateDVFSConstraint

; 179  : {

  0012c		 |$LN5@UpdateDVFS|
  0012c	e1a0c00d	 mov         r12, sp
  00130	e92d000f	 stmdb       sp!, {r0 - r3}
  00134	e92d5000	 stmdb       sp!, {r12, lr}
  00138		 |$M36653|

; 180  :     PmxUpdateConstraint(
; 181  :         s_SystenStatePolicyInfo.hDvfsConstraint, 
; 182  :         CONSTRAINT_MSG_DVFS_REQUEST, 
; 183  :         (void*)&dwOpm, 
; 184  :         sizeof(DWORD)
; 185  :         );

  00138	e3a03004	 mov         r3, #4
  0013c	e28d2008	 add         r2, sp, #8
  00140	e3a01001	 mov         r1, #1
  00144	e59f000c	 ldr         r0, [pc, #0xC]
  00148	e5900000	 ldr         r0, [r0]
  0014c	eb000000	 bl          PmxUpdateConstraint

; 186  : }

  00150	e89d6000	 ldmia       sp, {sp, lr}
  00154	e12fff1e	 bx          lr
  00158		 |$LN6@UpdateDVFS|
  00158		 |$LN7@UpdateDVFS|
  00158	00000000	 DCD         |s_SystenStatePolicyInfo|
  0015c		 |$M36654|

			 ENDP  ; |?UpdateDVFSConstraint@@YAXK@Z|, UpdateDVFSConstraint

	EXPORT	|??_C@_1GI@KPEBHLGM@?$AAS?$AAy?$AAs?$AAt?$AAe?$AAm?$AA?5?$AAS?$AAt?$AAa?$AAt?$AAe?$AA?5?$AAP?$AAo?$AAl?$AAi?$AAc?$AAy?$AA?3?$AA?5?$AAE?$AAR?$AAR?$AAO?$AAR?$AA?3?$AA?5?$AAE?$AAx?$AAi?$AAt@| [ DATA ] ; `string'
	EXPORT	|??_C@_1FC@NNKDFKBP@?$AAS?$AAy?$AAs?$AAt?$AAe?$AAm?$AA?5?$AAS?$AAt?$AAa?$AAt?$AAe?$AA?5?$AAP?$AAo?$AAl?$AAi?$AAc?$AAy?$AA?3?$AA?5?$AAI?$AAN?$AAF?$AAO?$AA?3?$AA?5?$AAU?$AAs?$AAe?$AAr?$AA?5@| [ DATA ] ; `string'
	EXPORT	|??_C@_1EO@EKOBNIPH@?$AAS?$AAy?$AAs?$AAt?$AAe?$AAm?$AA?5?$AAS?$AAt?$AAa?$AAt?$AAe?$AA?5?$AAP?$AAo?$AAl?$AAi?$AAc?$AAy?$AA?3?$AA?5?$AAI?$AAN?$AAF?$AAO?$AA?3?$AA?5?$AAU?$AAs?$AAe?$AAr?$AA?5@| [ DATA ] ; `string'
	EXPORT	|??_C@_1HI@EJDHCDKL@?$AAS?$AAy?$AAs?$AAt?$AAe?$AAm?$AA?5?$AAS?$AAt?$AAa?$AAt?$AAe?$AA?5?$AAP?$AAo?$AAl?$AAi?$AAc?$AAy?$AA?3?$AA?5?$AAE?$AAR?$AAR?$AAO?$AAR?$AA?3?$AA?5?$AAP?$AAo?$AAw?$AAe@| [ DATA ] ; `string'
	EXPORT	|??_C@_1DC@OOKIINAM@?$AAS?$AAY?$AAS?$AAT?$AAE?$AAM?$AA?1?$AAP?$AAo?$AAw?$AAe?$AAr?$AAM?$AAa?$AAn?$AAa?$AAg?$AAe?$AAr?$AAR?$AAe?$AAa?$AAd?$AAy?$AA?$AA@| [ DATA ] ; `string'
	EXPORT	|??_C@_1GG@MFFKDMAH@?$AAS?$AAy?$AAs?$AAt?$AAe?$AAm?$AA?5?$AAS?$AAt?$AAa?$AAt?$AAe?$AA?5?$AAP?$AAo?$AAl?$AAi?$AAc?$AAy?$AA?3?$AA?5?$AAE?$AAR?$AAR?$AAO?$AAR?$AA?3?$AA?5?$AAM?$AAS?$AAG?$AAQ@| [ DATA ] ; `string'
	EXPORT	|__$ArrayPad$| [ DATA ]
	EXPORT	|?SystenStateThreadFn@@YAKPAX@Z|	; SystenStateThreadFn
	IMPORT	|memset|
	IMPORT	|ReadMsgQueue|
	IMPORT	|RequestPowerNotifications|
	IMPORT	|CloseHandle|
	IMPORT	|WaitForSingleObject|
	IMPORT	|CreateEventW|
	IMPORT	|NKDbgPrintfW|
	IMPORT	|CreateMsgQueue|
	IMPORT	|__security_cookie|
	IMPORT	|__GSHandlerCheck|
	IMPORT	|memcpy|
	IMPORT	|memset|
	IMPORT	|__security_check_cookie|

  00010			 AREA	 |.pdata|, PDATA
|$T36683| DCD	|$LN30@SystenStat|
	DCD	0xc000bb04

  00000			 AREA	 |.rdata|, DATA, READONLY
|??_C@_1GI@KPEBHLGM@?$AAS?$AAy?$AAs?$AAt?$AAe?$AAm?$AA?5?$AAS?$AAt?$AAa?$AAt?$AAe?$AA?5?$AAP?$AAo?$AAl?$AAi?$AAc?$AAy?$AA?3?$AA?5?$AAE?$AAR?$AAR?$AAO?$AAR?$AA?3?$AA?5?$AAE?$AAx?$AAi?$AAt@| DCB "S"
	DCB	0x0, "y", 0x0, "s", 0x0, "t", 0x0, "e", 0x0, "m", 0x0, " "
	DCB	0x0, "S", 0x0, "t", 0x0, "a", 0x0, "t", 0x0, "e", 0x0, " "
	DCB	0x0, "P", 0x0, "o", 0x0, "l", 0x0, "i", 0x0, "c", 0x0, "y"
	DCB	0x0, ":", 0x0, " ", 0x0, "E", 0x0, "R", 0x0, "R", 0x0, "O"
	DCB	0x0, "R", 0x0, ":", 0x0, " ", 0x0, "E", 0x0, "x", 0x0, "i"
	DCB	0x0, "t", 0x0, "i", 0x0, "n", 0x0, "g", 0x0, " ", 0x0, "m"
	DCB	0x0, "o", 0x0, "n", 0x0, "i", 0x0, "t", 0x0, "o", 0x0, "r"
	DCB	0x0, " ", 0x0, "t", 0x0, "h", 0x0, "r", 0x0, "e", 0x0, "a"
	DCB	0x0, "d", 0x0, "!", 0x0, 0x0, 0x0	; `string'

  00000			 AREA	 |.rdata|, DATA, READONLY
|??_C@_1FC@NNKDFKBP@?$AAS?$AAy?$AAs?$AAt?$AAe?$AAm?$AA?5?$AAS?$AAt?$AAa?$AAt?$AAe?$AA?5?$AAP?$AAo?$AAl?$AAi?$AAc?$AAy?$AA?3?$AA?5?$AAI?$AAN?$AAF?$AAO?$AA?3?$AA?5?$AAU?$AAs?$AAe?$AAr?$AA?5@| DCB "S"
	DCB	0x0, "y", 0x0, "s", 0x0, "t", 0x0, "e", 0x0, "m", 0x0, " "
	DCB	0x0, "S", 0x0, "t", 0x0, "a", 0x0, "t", 0x0, "e", 0x0, " "
	DCB	0x0, "P", 0x0, "o", 0x0, "l", 0x0, "i", 0x0, "c", 0x0, "y"
	DCB	0x0, ":", 0x0, " ", 0x0, "I", 0x0, "N", 0x0, "F", 0x0, "O"
	DCB	0x0, ":", 0x0, " ", 0x0, "U", 0x0, "s", 0x0, "e", 0x0, "r"
	DCB	0x0, " ", 0x0, "I", 0x0, "n", 0x0, "a", 0x0, "c", 0x0, "t"
	DCB	0x0, "i", 0x0, "v", 0x0, "e", 0x0, 0x0, 0x0 ; `string'

  00000			 AREA	 |.rdata|, DATA, READONLY
|??_C@_1EO@EKOBNIPH@?$AAS?$AAy?$AAs?$AAt?$AAe?$AAm?$AA?5?$AAS?$AAt?$AAa?$AAt?$AAe?$AA?5?$AAP?$AAo?$AAl?$AAi?$AAc?$AAy?$AA?3?$AA?5?$AAI?$AAN?$AAF?$AAO?$AA?3?$AA?5?$AAU?$AAs?$AAe?$AAr?$AA?5@| DCB "S"
	DCB	0x0, "y", 0x0, "s", 0x0, "t", 0x0, "e", 0x0, "m", 0x0, " "
	DCB	0x0, "S", 0x0, "t", 0x0, "a", 0x0, "t", 0x0, "e", 0x0, " "
	DCB	0x0, "P", 0x0, "o", 0x0, "l", 0x0, "i", 0x0, "c", 0x0, "y"
	DCB	0x0, ":", 0x0, " ", 0x0, "I", 0x0, "N", 0x0, "F", 0x0, "O"
	DCB	0x0, ":", 0x0, " ", 0x0, "U", 0x0, "s", 0x0, "e", 0x0, "r"
	DCB	0x0, " ", 0x0, "A", 0x0, "c", 0x0, "t", 0x0, "i", 0x0, "v"
	DCB	0x0, "e", 0x0, 0x0, 0x0			; `string'

  00000			 AREA	 |.rdata|, DATA, READONLY
|??_C@_1HI@EJDHCDKL@?$AAS?$AAy?$AAs?$AAt?$AAe?$AAm?$AA?5?$AAS?$AAt?$AAa?$AAt?$AAe?$AA?5?$AAP?$AAo?$AAl?$AAi?$AAc?$AAy?$AA?3?$AA?5?$AAE?$AAR?$AAR?$AAO?$AAR?$AA?3?$AA?5?$AAP?$AAo?$AAw?$AAe@| DCB "S"
	DCB	0x0, "y", 0x0, "s", 0x0, "t", 0x0, "e", 0x0, "m", 0x0, " "
	DCB	0x0, "S", 0x0, "t", 0x0, "a", 0x0, "t", 0x0, "e", 0x0, " "
	DCB	0x0, "P", 0x0, "o", 0x0, "l", 0x0, "i", 0x0, "c", 0x0, "y"
	DCB	0x0, ":", 0x0, " ", 0x0, "E", 0x0, "R", 0x0, "R", 0x0, "O"
	DCB	0x0, "R", 0x0, ":", 0x0, " ", 0x0, "P", 0x0, "o", 0x0, "w"
	DCB	0x0, "e", 0x0, "r", 0x0, " ", 0x0, "N", 0x0, "o", 0x0, "t"
	DCB	0x0, "i", 0x0, "f", 0x0, "i", 0x0, "c", 0x0, "a", 0x0, "t"
	DCB	0x0, "i", 0x0, "o", 0x0, "n", 0x0, " ", 0x0, "r", 0x0, "e"
	DCB	0x0, "q", 0x0, "u", 0x0, "e", 0x0, "s", 0x0, "t", 0x0, " "
	DCB	0x0, "f", 0x0, "a", 0x0, "i", 0x0, "l", 0x0, 0x0, 0x0 ; `string'

  00000			 AREA	 |.rdata|, DATA, READONLY
|??_C@_1DC@OOKIINAM@?$AAS?$AAY?$AAS?$AAT?$AAE?$AAM?$AA?1?$AAP?$AAo?$AAw?$AAe?$AAr?$AAM?$AAa?$AAn?$AAa?$AAg?$AAe?$AAr?$AAR?$AAe?$AAa?$AAd?$AAy?$AA?$AA@| DCB "S"
	DCB	0x0, "Y", 0x0, "S", 0x0, "T", 0x0, "E", 0x0, "M", 0x0, "/"
	DCB	0x0, "P", 0x0, "o", 0x0, "w", 0x0, "e", 0x0, "r", 0x0, "M"
	DCB	0x0, "a", 0x0, "n", 0x0, "a", 0x0, "g", 0x0, "e", 0x0, "r"
	DCB	0x0, "R", 0x0, "e", 0x0, "a", 0x0, "d", 0x0, "y", 0x0, 0x0
	DCB	0x0					; `string'

  00000			 AREA	 |.rdata|, DATA, READONLY
|??_C@_1GG@MFFKDMAH@?$AAS?$AAy?$AAs?$AAt?$AAe?$AAm?$AA?5?$AAS?$AAt?$AAa?$AAt?$AAe?$AA?5?$AAP?$AAo?$AAl?$AAi?$AAc?$AAy?$AA?3?$AA?5?$AAE?$AAR?$AAR?$AAO?$AAR?$AA?3?$AA?5?$AAM?$AAS?$AAG?$AAQ@| DCB "S"
	DCB	0x0, "y", 0x0, "s", 0x0, "t", 0x0, "e", 0x0, "m", 0x0, " "
	DCB	0x0, "S", 0x0, "t", 0x0, "a", 0x0, "t", 0x0, "e", 0x0, " "
	DCB	0x0, "P", 0x0, "o", 0x0, "l", 0x0, "i", 0x0, "c", 0x0, "y"
	DCB	0x0, ":", 0x0, " ", 0x0, "E", 0x0, "R", 0x0, "R", 0x0, "O"
	DCB	0x0, "R", 0x0, ":", 0x0, " ", 0x0, "M", 0x0, "S", 0x0, "G"
	DCB	0x0, "Q", 0x0, "U", 0x0, "E", 0x0, "U", 0x0, "E", 0x0, " "
	DCB	0x0, "c", 0x0, "r", 0x0, "e", 0x0, "a", 0x0, "t", 0x0, "i"
	DCB	0x0, "o", 0x0, "n", 0x0, " ", 0x0, "f", 0x0, "a", 0x0, "i"
	DCB	0x0, "l", 0x0, 0x0, 0x0			; `string'

  00000			 AREA	 |.xdata|, DATA
|$T36679| DCD	0xffffffc0
; Function compile flags: /Odtp

  0015c			 AREA	 |.text|, CODE, ARM

  0015c	00000000	 DCD         |__GSHandlerCheck|
  00160	00000000	 DCD         |$T36679|

  00164		 |?SystenStateThreadFn@@YAKPAX@Z| PROC	; SystenStateThreadFn

; 196  : {

  00164		 |$LN30@SystenStat|
  00164	e1a0c00d	 mov         r12, sp
  00168	e92d0001	 stmdb       sp!, {r0}
  0016c	e92d5000	 stmdb       sp!, {r12, lr}
  00170	e24ddfbe	 sub         sp, sp, #0xBE, 30
  00174		 |$M36680|
  00174	e59f32d0	 ldr         r3, [pc, #0x2D0]
  00178	e5933000	 ldr         r3, [r3]
  0017c	e58d32c4	 str         r3, [sp, #0x2C4]

; 197  :     union
; 198  :     {
; 199  :         UCHAR buf[QUEUE_SIZE];
; 200  :         POWER_BROADCAST powerBroadcast;
; 201  :     } u;
; 202  : 
; 203  :     UNREFERENCED_PARAMETER(pvParam);
; 204  : 
; 205  :     MSGQUEUEOPTIONS msgOptions = {0}; 

  00180	e3a03000	 mov         r3, #0
  00184	e58d300c	 str         r3, [sp, #0xC]
  00188	e3a02010	 mov         r2, #0x10
  0018c	e3a01000	 mov         r1, #0
  00190	e28d0010	 add         r0, sp, #0x10
  00194	eb000000	 bl          memset

; 206  :     POWER_BROADCAST powerInfo;
; 207  :     DWORD dwOpm;    
; 208  :     DWORD dwPowerFlags = 0;

  00198	e3a03000	 mov         r3, #0
  0019c	e58d32b8	 str         r3, [sp, #0x2B8]

; 209  :     DWORD dwBytesRead = 0;

  001a0	e3a03000	 mov         r3, #0
  001a4	e58d32c0	 str         r3, [sp, #0x2C0]

; 210  :     
; 211  :     msgOptions.dwSize = sizeof(MSGQUEUEOPTIONS);

  001a8	e3a03014	 mov         r3, #0x14
  001ac	e58d300c	 str         r3, [sp, #0xC]

; 212  :     msgOptions.dwFlags = 0;

  001b0	e3a03000	 mov         r3, #0
  001b4	e58d3010	 str         r3, [sp, #0x10]

; 213  :     msgOptions.dwMaxMessages = QUEUE_ENTRIES;

  001b8	e3a03003	 mov         r3, #3
  001bc	e58d3014	 str         r3, [sp, #0x14]

; 214  :     msgOptions.cbMaxMessage = sizeof(POWER_BROADCAST) + MAX_NAMELEN;

  001c0	e3a030d8	 mov         r3, #0xD8
  001c4	e58d3018	 str         r3, [sp, #0x18]

; 215  :     msgOptions.bReadAccess = TRUE;

  001c8	e3a03001	 mov         r3, #1
  001cc	e58d301c	 str         r3, [sp, #0x1C]

; 216  : 
; 217  :     // Create Message Queue to revice system power state changes
; 218  :     s_SystenStatePolicyInfo.hPowerNotificationQueue = CreateMsgQueue(NULL, &msgOptions);

  001d0	e28d100c	 add         r1, sp, #0xC
  001d4	e3a00000	 mov         r0, #0
  001d8	eb000000	 bl          CreateMsgQueue
  001dc	e58d02d4	 str         r0, [sp, #0x2D4]
  001e0	e59d22d4	 ldr         r2, [sp, #0x2D4]
  001e4	e59f324c	 ldr         r3, [pc, #0x24C]
  001e8	e5832008	 str         r2, [r3, #8]

; 219  :     if (!s_SystenStatePolicyInfo.hPowerNotificationQueue) 

  001ec	e59f3244	 ldr         r3, [pc, #0x244]
  001f0	e5933008	 ldr         r3, [r3, #8]
  001f4	e3530000	 cmp         r3, #0
  001f8	1a000008	 bne         |$LN15@SystenStat|

; 220  :         {
; 221  :         RETAILMSG(ZONE_ERROR,(L"System State Policy: ERROR: MSGQUEUE creation fail"));

  001fc	e59f0244	 ldr         r0, [pc, #0x244]
  00200	eb000000	 bl          NKDbgPrintfW
  00204	e3a03001	 mov         r3, #1
  00208	e58d32d8	 str         r3, [sp, #0x2D8]
  0020c	ea000001	 b           |$LN19@SystenStat|
  00210	e3a03000	 mov         r3, #0
  00214	e58d32d8	 str         r3, [sp, #0x2D8]
  00218		 |$LN19@SystenStat|

; 222  :         goto cleanUp;

  00218	ea000074	 b           |$LN14@SystenStat|
  0021c	ea000073	 b           |$cleanUp$36563|
  00220		 |$LN15@SystenStat|

; 223  :         }
; 224  : 
; 225  :     HANDLE hPMReady = CreateEvent(NULL, TRUE, FALSE, _T("SYSTEM/PowerManagerReady"));

  00220	e59f321c	 ldr         r3, [pc, #0x21C]
  00224	e3a02000	 mov         r2, #0
  00228	e3a01001	 mov         r1, #1
  0022c	e3a00000	 mov         r0, #0
  00230	eb000000	 bl          CreateEventW
  00234	e58d02dc	 str         r0, [sp, #0x2DC]
  00238	e59d32dc	 ldr         r3, [sp, #0x2DC]
  0023c	e58d3008	 str         r3, [sp, #8]

; 226  :     if (hPMReady)

  00240	e59d3008	 ldr         r3, [sp, #8]
  00244	e3530000	 cmp         r3, #0
  00248	0a000004	 beq         |$LN13@SystenStat|

; 227  :     {
; 228  :         WaitForSingleObject(hPMReady,2000);

  0024c	e3a01e7d	 mov         r1, #0x7D, 28
  00250	e59d0008	 ldr         r0, [sp, #8]
  00254	eb000000	 bl          WaitForSingleObject

; 229  :         CloseHandle(hPMReady);

  00258	e59d0008	 ldr         r0, [sp, #8]
  0025c	eb000000	 bl          CloseHandle
  00260		 |$LN13@SystenStat|

; 230  :     }
; 231  :     
; 232  : 
; 233  :     // Register the Message Queue to the PM
; 234  :     s_SystenStatePolicyInfo.hPowerNotificationsHandle = 
; 235  :         RequestPowerNotifications(
; 236  :             s_SystenStatePolicyInfo.hPowerNotificationQueue,
; 237  :             PBT_TRANSITION
; 238  :             );

  00260	e3a01001	 mov         r1, #1
  00264	e59f31cc	 ldr         r3, [pc, #0x1CC]
  00268	e5930008	 ldr         r0, [r3, #8]
  0026c	eb000000	 bl          RequestPowerNotifications
  00270	e58d02e0	 str         r0, [sp, #0x2E0]
  00274	e59d22e0	 ldr         r2, [sp, #0x2E0]
  00278	e59f31b8	 ldr         r3, [pc, #0x1B8]
  0027c	e583200c	 str         r2, [r3, #0xC]

; 239  :     if (!s_SystenStatePolicyInfo.hPowerNotificationsHandle) 

  00280	e59f31b0	 ldr         r3, [pc, #0x1B0]
  00284	e593300c	 ldr         r3, [r3, #0xC]
  00288	e3530000	 cmp         r3, #0
  0028c	1a000008	 bne         |$LN12@SystenStat|

; 240  :         {
; 241  :         RETAILMSG(ZONE_ERROR,(L"System State Policy:"
; 242  :             L" ERROR: Power Notification request fail"));

  00290	e59f01a8	 ldr         r0, [pc, #0x1A8]
  00294	eb000000	 bl          NKDbgPrintfW
  00298	e3a03001	 mov         r3, #1
  0029c	e58d32e4	 str         r3, [sp, #0x2E4]
  002a0	ea000001	 b           |$LN21@SystenStat|
  002a4	e3a03000	 mov         r3, #0
  002a8	e58d32e4	 str         r3, [sp, #0x2E4]
  002ac		 |$LN21@SystenStat|

; 243  :         goto cleanUp;

  002ac	ea00004f	 b           |$LN11@SystenStat|
  002b0	ea00004e	 b           |$cleanUp$36563|
  002b4		 |$LN12@SystenStat|
  002b4		 |$LN10@SystenStat|

; 244  :         }
; 245  :     
; 246  :     for(;;)
; 247  :         {
; 248  :         WaitForSingleObject(s_SystenStatePolicyInfo.hPowerNotificationQueue, INFINITE);

  002b4	e3e01000	 mvn         r1, #0
  002b8	e59f3178	 ldr         r3, [pc, #0x178]
  002bc	e5930008	 ldr         r0, [r3, #8]
  002c0	eb000000	 bl          WaitForSingleObject
  002c4		 |$LN8@SystenStat|

; 249  : 
; 250  :         while (ReadMsgQueue(s_SystenStatePolicyInfo.hPowerNotificationQueue, 
; 251  :             u.buf, QUEUE_SIZE, &dwBytesRead, INFINITE, &dwPowerFlags))

  002c4	e28d3fae	 add         r3, sp, #0xAE, 30
  002c8	e58d3004	 str         r3, [sp, #4]
  002cc	e3e03000	 mvn         r3, #0
  002d0	e58d3000	 str         r3, [sp]
  002d4	e28d3d0b	 add         r3, sp, #0xB, 26
  002d8	e3a02fa2	 mov         r2, #0xA2, 30
  002dc	e28d1030	 add         r1, sp, #0x30
  002e0	e59f0150	 ldr         r0, [pc, #0x150]
  002e4	e5900008	 ldr         r0, [r0, #8]
  002e8	eb000000	 bl          ReadMsgQueue
  002ec	e58d02e8	 str         r0, [sp, #0x2E8]
  002f0	e59d32e8	 ldr         r3, [sp, #0x2E8]
  002f4	e3530000	 cmp         r3, #0
  002f8	0a00003b	 beq         |$LN7@SystenStat|

; 252  :             {
; 253  :             
; 254  :             if(dwBytesRead >= sizeof(POWER_BROADCAST)) 

  002fc	e59d32c0	 ldr         r3, [sp, #0x2C0]
  00300	e3530010	 cmp         r3, #0x10
  00304	3a000037	 bcc         |$LN6@SystenStat|

; 255  :                 {
; 256  :                 powerInfo =  u.powerBroadcast;

  00308	e28d0020	 add         r0, sp, #0x20
  0030c	e28d1030	 add         r1, sp, #0x30
  00310	e3a02010	 mov         r2, #0x10
  00314	eb000000	 bl          memcpy

; 257  :                 dwPowerFlags = powerInfo.Flags;

  00318	e59d3024	 ldr         r3, [sp, #0x24]
  0031c	e58d32b8	 str         r3, [sp, #0x2B8]

; 258  :                 
; 259  :                 switch (powerInfo.Message) 

  00320	e59d3020	 ldr         r3, [sp, #0x20]
  00324	e3530001	 cmp         r3, #1
  00328	0a000000	 beq         |$LN3@SystenStat|
  0032c	ea000025	 b           |$LN4@SystenStat|
  00330		 |$LN3@SystenStat|

; 260  :                     {
; 261  :                     case PBT_TRANSITION:
; 262  :                     
; 263  :                         if((dwPowerFlags  & 
; 264  :                             (POWER_STATE_BACKLIGHTON | 
; 265  :                             POWER_STATE_PASSWORD | 
; 266  :                             POWER_STATE_ON)) != 0
; 267  :                             )

  00330	e59d22b8	 ldr         r2, [sp, #0x2B8]
  00334	e3a03412	 mov         r3, #0x12, 8
  00338	e3833801	 orr         r3, r3, #1, 16
  0033c	e1120003	 tst         r2, r3
  00340	0a000010	 beq         |$LN2@SystenStat|

; 268  :                             {
; 269  :                             RETAILMSG(ZONE_INFO,(L"System State Policy: INFO: User Active"));

  00344	e59f30e8	 ldr         r3, [pc, #0xE8]
  00348	e5933440	 ldr         r3, [r3, #0x440]
  0034c	e3130008	 tst         r3, #8
  00350	0a000004	 beq         |$LN22@SystenStat|
  00354	e59f00e0	 ldr         r0, [pc, #0xE0]
  00358	eb000000	 bl          NKDbgPrintfW
  0035c	e3a03001	 mov         r3, #1
  00360	e58d32ec	 str         r3, [sp, #0x2EC]
  00364	ea000001	 b           |$LN23@SystenStat|
  00368		 |$LN22@SystenStat|
  00368	e3a03000	 mov         r3, #0
  0036c	e58d32ec	 str         r3, [sp, #0x2EC]
  00370		 |$LN23@SystenStat|

; 270  :                             dwOpm = s_SystenStatePolicyInfo.dwUserOpm;

  00370	e59f30c0	 ldr         r3, [pc, #0xC0]
  00374	e5933014	 ldr         r3, [r3, #0x14]
  00378	e58d32bc	 str         r3, [sp, #0x2BC]

; 271  :                             UpdateDVFSConstraint(dwOpm);

  0037c	e59d02bc	 ldr         r0, [sp, #0x2BC]
  00380	eb000000	 bl          |?UpdateDVFSConstraint@@YAXK@Z|

; 272  :                             }
; 273  :                         else 

  00384	ea00000f	 b           |$LN1@SystenStat|
  00388		 |$LN2@SystenStat|

; 274  :                             {
; 275  :                             RETAILMSG(ZONE_INFO,(L"System State Policy: INFO: User Inactive"));

  00388	e59f30a4	 ldr         r3, [pc, #0xA4]
  0038c	e5933440	 ldr         r3, [r3, #0x440]
  00390	e3130008	 tst         r3, #8
  00394	0a000004	 beq         |$LN24@SystenStat|
  00398	e59f0090	 ldr         r0, [pc, #0x90]
  0039c	eb000000	 bl          NKDbgPrintfW
  003a0	e3a03001	 mov         r3, #1
  003a4	e58d32f0	 str         r3, [sp, #0x2F0]
  003a8	ea000001	 b           |$LN25@SystenStat|
  003ac		 |$LN24@SystenStat|
  003ac	e3a03000	 mov         r3, #0
  003b0	e58d32f0	 str         r3, [sp, #0x2F0]
  003b4		 |$LN25@SystenStat|

; 276  :                             dwOpm = CONSTRAINT_STATE_NULL;

  003b4	e3e03cff	 mvn         r3, #0xFF, 24
  003b8	e22330ff	 eor         r3, r3, #0xFF
  003bc	e58d32bc	 str         r3, [sp, #0x2BC]

; 277  :                             UpdateDVFSConstraint(dwOpm);

  003c0	e59d02bc	 ldr         r0, [sp, #0x2BC]
  003c4	eb000000	 bl          |?UpdateDVFSConstraint@@YAXK@Z|
  003c8		 |$LN1@SystenStat|
  003c8		 |$LN4@SystenStat|

; 278  :                             }
; 279  :                         
; 280  :                     break;
; 281  :                     }
; 282  :                 
; 283  :                 dwPowerFlags = 0;

  003c8	e3a03000	 mov         r3, #0
  003cc	e58d32b8	 str         r3, [sp, #0x2B8]

; 284  :                 dwBytesRead = 0;

  003d0	e3a03000	 mov         r3, #0
  003d4	e58d32c0	 str         r3, [sp, #0x2C0]

; 285  :                 memset(u.buf, 0, QUEUE_SIZE);

  003d8	e3a02fa2	 mov         r2, #0xA2, 30
  003dc	e3a01000	 mov         r1, #0
  003e0	e28d0030	 add         r0, sp, #0x30
  003e4	eb000000	 bl          memset
  003e8		 |$LN6@SystenStat|

; 286  :                 }
; 287  :             
; 288  :             }

  003e8	eaffffb5	 b           |$LN8@SystenStat|
  003ec		 |$LN7@SystenStat|

; 289  : 
; 290  :         }

  003ec	eaffffb0	 b           |$LN10@SystenStat|
  003f0		 |$LN11@SystenStat|
  003f0		 |$LN14@SystenStat|
  003f0		 |$cleanUp$36563|

; 291  : cleanUp:
; 292  :     RETAILMSG(ZONE_ERROR,(L"System State Policy: ERROR: Exiting monitor thread!"));

  003f0	e59f0034	 ldr         r0, [pc, #0x34]
  003f4	eb000000	 bl          NKDbgPrintfW
  003f8	e3a03001	 mov         r3, #1
  003fc	e58d32f4	 str         r3, [sp, #0x2F4]
  00400	ea000001	 b           |$LN27@SystenStat|
  00404	e3a03000	 mov         r3, #0
  00408	e58d32f4	 str         r3, [sp, #0x2F4]
  0040c		 |$LN27@SystenStat|

; 293  :     return 0;

  0040c	e59d02c4	 ldr         r0, [sp, #0x2C4]
  00410	eb000000	 bl          __security_check_cookie
  00414	e3a03000	 mov         r3, #0
  00418	e58d32d0	 str         r3, [sp, #0x2D0]

; 294  : }

  0041c	e59d02d0	 ldr         r0, [sp, #0x2D0]
  00420	e28ddfbe	 add         sp, sp, #0xBE, 30
  00424	e89d6000	 ldmia       sp, {sp, lr}
  00428	e12fff1e	 bx          lr
  0042c		 |$LN31@SystenStat|
  0042c		 |$LN32@SystenStat|
  0042c	00000000	 DCD         |??_C@_1GI@KPEBHLGM@?$AAS?$AAy?$AAs?$AAt?$AAe?$AAm?$AA?5?$AAS?$AAt?$AAa?$AAt?$AAe?$AA?5?$AAP?$AAo?$AAl?$AAi?$AAc?$AAy?$AA?3?$AA?5?$AAE?$AAR?$AAR?$AAO?$AAR?$AA?3?$AA?5?$AAE?$AAx?$AAi?$AAt@|
  00430		 |$LN33@SystenStat|
  00430	00000000	 DCD         |??_C@_1FC@NNKDFKBP@?$AAS?$AAy?$AAs?$AAt?$AAe?$AAm?$AA?5?$AAS?$AAt?$AAa?$AAt?$AAe?$AA?5?$AAP?$AAo?$AAl?$AAi?$AAc?$AAy?$AA?3?$AA?5?$AAI?$AAN?$AAF?$AAO?$AA?3?$AA?5?$AAU?$AAs?$AAe?$AAr?$AA?5@|
  00434		 |$LN34@SystenStat|
  00434	00000000	 DCD         |dpCurSettings|
  00438		 |$LN35@SystenStat|
  00438	00000000	 DCD         |s_SystenStatePolicyInfo|
  0043c		 |$LN36@SystenStat|
  0043c	00000000	 DCD         |??_C@_1EO@EKOBNIPH@?$AAS?$AAy?$AAs?$AAt?$AAe?$AAm?$AA?5?$AAS?$AAt?$AAa?$AAt?$AAe?$AA?5?$AAP?$AAo?$AAl?$AAi?$AAc?$AAy?$AA?3?$AA?5?$AAI?$AAN?$AAF?$AAO?$AA?3?$AA?5?$AAU?$AAs?$AAe?$AAr?$AA?5@|
  00440		 |$LN37@SystenStat|
  00440	00000000	 DCD         |??_C@_1HI@EJDHCDKL@?$AAS?$AAy?$AAs?$AAt?$AAe?$AAm?$AA?5?$AAS?$AAt?$AAa?$AAt?$AAe?$AA?5?$AAP?$AAo?$AAl?$AAi?$AAc?$AAy?$AA?3?$AA?5?$AAE?$AAR?$AAR?$AAO?$AAR?$AA?3?$AA?5?$AAP?$AAo?$AAw?$AAe@|
  00444		 |$LN38@SystenStat|
  00444	00000000	 DCD         |??_C@_1DC@OOKIINAM@?$AAS?$AAY?$AAS?$AAT?$AAE?$AAM?$AA?1?$AAP?$AAo?$AAw?$AAe?$AAr?$AAM?$AAa?$AAn?$AAa?$AAg?$AAe?$AAr?$AAR?$AAe?$AAa?$AAd?$AAy?$AA?$AA@|
  00448		 |$LN39@SystenStat|
  00448	00000000	 DCD         |??_C@_1GG@MFFKDMAH@?$AAS?$AAy?$AAs?$AAt?$AAe?$AAm?$AA?5?$AAS?$AAt?$AAa?$AAt?$AAe?$AA?5?$AAP?$AAo?$AAl?$AAi?$AAc?$AAy?$AA?3?$AA?5?$AAE?$AAR?$AAR?$AAO?$AAR?$AA?3?$AA?5?$AAM?$AAS?$AAG?$AAQ@|
  0044c		 |$LN40@SystenStat|
  0044c	00000000	 DCD         |__security_cookie|
  00450		 |$M36681|

			 ENDP  ; |?SystenStateThreadFn@@YAKPAX@Z|, SystenStateThreadFn

	EXPORT	|??_C@_19BINEIDCP@?$AAD?$AAV?$AAF?$AAS?$AA?$AA@| [ DATA ] ; `string'
	EXPORT	|?SYSTEMSTATE_InitPolicy@@YAPAXPBG@Z|	; SYSTEMSTATE_InitPolicy
	IMPORT	|SetThreadPriority|
	IMPORT	|CreateThread|
	IMPORT	|PmxSetConstraintById|

  00018			 AREA	 |.pdata|, PDATA
|$T36701| DCD	|$LN6@SYSTEMSTAT|
	DCD	0x40003804

  00000			 AREA	 |.rdata|, DATA, READONLY
|??_C@_19BINEIDCP@?$AAD?$AAV?$AAF?$AAS?$AA?$AA@| DCB "D", 0x0, "V", 0x0, "F"
	DCB	0x0, "S", 0x0, 0x0, 0x0			; `string'
; Function compile flags: /Odtp

  00450			 AREA	 |.text|, CODE, ARM

  00450		 |?SYSTEMSTATE_InitPolicy@@YAPAXPBG@Z| PROC ; SYSTEMSTATE_InitPolicy

; 307  : {

  00450		 |$LN6@SYSTEMSTAT|
  00450	e1a0c00d	 mov         r12, sp
  00454	e92d0001	 stmdb       sp!, {r0}
  00458	e92d5000	 stmdb       sp!, {r12, lr}
  0045c	e24dd024	 sub         sp, sp, #0x24
  00460		 |$M36698|

; 308  :     DWORD dwLevel;
; 309  : 
; 310  :     // initializt global structure
; 311  :     memset(&s_SystenStatePolicyInfo, 0, sizeof(SystenStatePolicyInfo_t));       

  00460	e3a0201c	 mov         r2, #0x1C
  00464	e3a01000	 mov         r1, #0
  00468	e59f00b4	 ldr         r0, [pc, #0xB4]
  0046c	eb000000	 bl          memset

; 312  : 
; 313  :     // Read registries
; 314  :     if (GetRegVal((WCHAR*)szContext) == FALSE) return NULL;

  00470	e59d002c	 ldr         r0, [sp, #0x2C]
  00474	eb000000	 bl          |?GetRegVal@@YAHPAG@Z|
  00478	e58d0018	 str         r0, [sp, #0x18]
  0047c	e59d3018	 ldr         r3, [sp, #0x18]
  00480	e3530000	 cmp         r3, #0
  00484	1a000002	 bne         |$LN1@SYSTEMSTAT|
  00488	e3a03000	 mov         r3, #0
  0048c	e58d300c	 str         r3, [sp, #0xC]
  00490	ea00001f	 b           |$LN2@SYSTEMSTAT|
  00494		 |$LN1@SYSTEMSTAT|

; 315  :     
; 316  :     // Set boot opm value
; 317  :     dwLevel = CONSTRAINT_STATE_NULL;

  00494	e3e03cff	 mvn         r3, #0xFF, 24
  00498	e22330ff	 eor         r3, r3, #0xFF
  0049c	e58d3008	 str         r3, [sp, #8]

; 318  : 
; 319  :     // Obtain DVFS constraint handler 
; 320  :     s_SystenStatePolicyInfo.hDvfsConstraint = PmxSetConstraintById(
; 321  :                                     CONSTRAINT_ID_DVFS, 
; 322  :                                     CONSTRAINT_MSG_DVFS_REQUEST, 
; 323  :                                     (void*)&dwLevel, 
; 324  :                                     sizeof(DWORD)
; 325  :                                     );

  004a0	e3a03004	 mov         r3, #4
  004a4	e28d2008	 add         r2, sp, #8
  004a8	e3a01001	 mov         r1, #1
  004ac	e59f0078	 ldr         r0, [pc, #0x78]
  004b0	eb000000	 bl          PmxSetConstraintById
  004b4	e58d001c	 str         r0, [sp, #0x1C]
  004b8	e59d201c	 ldr         r2, [sp, #0x1C]
  004bc	e59f3060	 ldr         r3, [pc, #0x60]
  004c0	e5832000	 str         r2, [r3]

; 326  : 
; 327  :     // Start running the thread that will check for the cpu load
; 328  :     s_SystenStatePolicyInfo.hSystemSateThread = CreateThread(NULL, 
; 329  :                                             0,
; 330  :                                             SystenStateThreadFn,
; 331  :                                             NULL,
; 332  :                                             0,
; 333  :                                             NULL
; 334  :                                             );

  004c4	e3a03000	 mov         r3, #0
  004c8	e58d3004	 str         r3, [sp, #4]
  004cc	e3a03000	 mov         r3, #0
  004d0	e58d3000	 str         r3, [sp]
  004d4	e3a03000	 mov         r3, #0
  004d8	e59f2048	 ldr         r2, [pc, #0x48]
  004dc	e3a01000	 mov         r1, #0
  004e0	e3a00000	 mov         r0, #0
  004e4	eb000000	 bl          CreateThread
  004e8	e58d0020	 str         r0, [sp, #0x20]
  004ec	e59d2020	 ldr         r2, [sp, #0x20]
  004f0	e59f302c	 ldr         r3, [pc, #0x2C]
  004f4	e5832004	 str         r2, [r3, #4]

; 335  :     
; 336  :     SetThreadPriority(s_SystenStatePolicyInfo.hSystemSateThread,
; 337  :                            s_SystenStatePolicyInfo.dwThreadPriority
; 338  :                            );

  004f8	e59f3024	 ldr         r3, [pc, #0x24]
  004fc	e5931018	 ldr         r1, [r3, #0x18]
  00500	e59f301c	 ldr         r3, [pc, #0x1C]
  00504	e5930004	 ldr         r0, [r3, #4]
  00508	eb000000	 bl          SetThreadPriority

; 339  : 
; 340  :     return (HANDLE)&s_SystenStatePolicyInfo;

  0050c	e59f3010	 ldr         r3, [pc, #0x10]
  00510	e58d300c	 str         r3, [sp, #0xC]
  00514		 |$LN2@SYSTEMSTAT|

; 341  : } 

  00514	e59d000c	 ldr         r0, [sp, #0xC]
  00518	e28dd024	 add         sp, sp, #0x24
  0051c	e89d6000	 ldmia       sp, {sp, lr}
  00520	e12fff1e	 bx          lr
  00524		 |$LN7@SYSTEMSTAT|
  00524		 |$LN8@SYSTEMSTAT|
  00524	00000000	 DCD         |s_SystenStatePolicyInfo|
  00528		 |$LN9@SYSTEMSTAT|
  00528	00000000	 DCD         |?SystenStateThreadFn@@YAKPAX@Z|
  0052c		 |$LN10@SYSTEMSTAT|
  0052c	00000000	 DCD         |??_C@_19BINEIDCP@?$AAD?$AAV?$AAF?$AAS?$AA?$AA@|
  00530		 |$M36699|

			 ENDP  ; |?SYSTEMSTATE_InitPolicy@@YAPAXPBG@Z|, SYSTEMSTATE_InitPolicy

	EXPORT	|?SYSTEMSTATE_DeinitPolicy@@YAHPAX@Z|	; SYSTEMSTATE_DeinitPolicy
	IMPORT	|CloseMsgQueue|
	IMPORT	|StopPowerNotifications|
	IMPORT	|TerminateThread|
	IMPORT	|PmxReleaseConstraint|

  00020			 AREA	 |.pdata|, PDATA
|$T36711| DCD	|$LN11@SYSTEMSTAT@2|
	DCD	0x40003604
; Function compile flags: /Odtp

  00530			 AREA	 |.text|, CODE, ARM

  00530		 |?SYSTEMSTATE_DeinitPolicy@@YAHPAX@Z| PROC ; SYSTEMSTATE_DeinitPolicy

; 353  : {

  00530		 |$LN11@SYSTEMSTAT@2|
  00530	e1a0c00d	 mov         r12, sp
  00534	e92d0001	 stmdb       sp!, {r0}
  00538	e92d5000	 stmdb       sp!, {r12, lr}
  0053c	e24dd008	 sub         sp, sp, #8
  00540		 |$M36708|

; 354  :     BOOL rc = FALSE;

  00540	e3a03000	 mov         r3, #0
  00544	e58d3000	 str         r3, [sp]

; 355  : 
; 356  :     // validate parameters
; 357  :     if (hPolicyAdapter != (HANDLE)&s_SystenStatePolicyInfo) goto cleanUp;

  00548	e59d2010	 ldr         r2, [sp, #0x10]
  0054c	e59f30b0	 ldr         r3, [pc, #0xB0]
  00550	e1520003	 cmp         r2, r3
  00554	0a000001	 beq         |$LN6@SYSTEMSTAT@2|
  00558	ea000023	 b           |$LN5@SYSTEMSTAT@2|
  0055c	ea000022	 b           |$cleanUp$36611|
  00560		 |$LN6@SYSTEMSTAT@2|

; 358  : 
; 359  :     // release all resoureces	
; 360  :     if (s_SystenStatePolicyInfo.hDvfsConstraint != NULL)

  00560	e59f309c	 ldr         r3, [pc, #0x9C]
  00564	e5933000	 ldr         r3, [r3]
  00568	e3530000	 cmp         r3, #0
  0056c	0a000002	 beq         |$LN4@SYSTEMSTAT@2|

; 361  :         {
; 362  :         PmxReleaseConstraint(s_SystenStatePolicyInfo.hDvfsConstraint);

  00570	e59f308c	 ldr         r3, [pc, #0x8C]
  00574	e5930000	 ldr         r0, [r3]
  00578	eb000000	 bl          PmxReleaseConstraint
  0057c		 |$LN4@SYSTEMSTAT@2|

; 363  :         }
; 364  :     
; 365  :     if (s_SystenStatePolicyInfo.hSystemSateThread != NULL)

  0057c	e59f3080	 ldr         r3, [pc, #0x80]
  00580	e5933004	 ldr         r3, [r3, #4]
  00584	e3530000	 cmp         r3, #0
  00588	0a000003	 beq         |$LN3@SYSTEMSTAT@2|

; 366  :         {
; 367  :         TerminateThread(s_SystenStatePolicyInfo.hSystemSateThread,0);

  0058c	e3a01000	 mov         r1, #0
  00590	e59f306c	 ldr         r3, [pc, #0x6C]
  00594	e5930004	 ldr         r0, [r3, #4]
  00598	eb000000	 bl          TerminateThread
  0059c		 |$LN3@SYSTEMSTAT@2|

; 368  :         }
; 369  : 
; 370  :     if (s_SystenStatePolicyInfo.hPowerNotificationsHandle)

  0059c	e59f3060	 ldr         r3, [pc, #0x60]
  005a0	e593300c	 ldr         r3, [r3, #0xC]
  005a4	e3530000	 cmp         r3, #0
  005a8	0a000002	 beq         |$LN2@SYSTEMSTAT@2|

; 371  :         {
; 372  :         StopPowerNotifications(s_SystenStatePolicyInfo.hPowerNotificationsHandle);        

  005ac	e59f3050	 ldr         r3, [pc, #0x50]
  005b0	e593000c	 ldr         r0, [r3, #0xC]
  005b4	eb000000	 bl          StopPowerNotifications
  005b8		 |$LN2@SYSTEMSTAT@2|

; 373  :         }
; 374  : 
; 375  :     if (s_SystenStatePolicyInfo.hPowerNotificationQueue) 

  005b8	e59f3044	 ldr         r3, [pc, #0x44]
  005bc	e5933008	 ldr         r3, [r3, #8]
  005c0	e3530000	 cmp         r3, #0
  005c4	0a000002	 beq         |$LN1@SYSTEMSTAT@2|

; 376  :         {
; 377  :         CloseMsgQueue(s_SystenStatePolicyInfo.hPowerNotificationQueue);

  005c8	e59f3034	 ldr         r3, [pc, #0x34]
  005cc	e5930008	 ldr         r0, [r3, #8]
  005d0	eb000000	 bl          CloseMsgQueue
  005d4		 |$LN1@SYSTEMSTAT@2|

; 378  :         }
; 379  : 
; 380  :     // clear structures
; 381  :     memset(&s_SystenStatePolicyInfo, 0, sizeof(SystenStatePolicyInfo_t));

  005d4	e3a0201c	 mov         r2, #0x1C
  005d8	e3a01000	 mov         r1, #0
  005dc	e59f0020	 ldr         r0, [pc, #0x20]
  005e0	eb000000	 bl          memset

; 382  :     
; 383  :     rc = TRUE;

  005e4	e3a03001	 mov         r3, #1
  005e8	e58d3000	 str         r3, [sp]
  005ec		 |$LN5@SYSTEMSTAT@2|
  005ec		 |$cleanUp$36611|

; 384  : 
; 385  : cleanUp:
; 386  :     return rc;

  005ec	e59d3000	 ldr         r3, [sp]
  005f0	e58d3004	 str         r3, [sp, #4]

; 387  : } 

  005f4	e59d0004	 ldr         r0, [sp, #4]
  005f8	e28dd008	 add         sp, sp, #8
  005fc	e89d6000	 ldmia       sp, {sp, lr}
  00600	e12fff1e	 bx          lr
  00604		 |$LN12@SYSTEMSTAT@2|
  00604		 |$LN13@SYSTEMSTAT@2|
  00604	00000000	 DCD         |s_SystenStatePolicyInfo|
  00608		 |$M36709|

			 ENDP  ; |?SYSTEMSTATE_DeinitPolicy@@YAHPAX@Z|, SYSTEMSTATE_DeinitPolicy

	END
