; Listing generated by Microsoft (R) Optimizing Compiler Version 14.01.60511.01 

	TTL	C:\WINCE600\PLATFORM\COMMON\SRC\SOC\COMMON_TI_V1\COMMON_TI\PM\CONSTRAINTROOT\constraintroot.cpp
	CODE32

  00000			 AREA	 |.drectve|, DRECTVE
	DCB	"/include:?_factory@?$$singleton@V?$$free_list@$$0GE@Vall"
	DCB	"ocator@ce@@@ce@@$$03V?$$static_allocator@V?$$free_list@$$"
	DCB	"0GE@Vallocator@ce@@@ce@@$$03@2@@ce@@1Ulock_factory@12@A "
	DCB	"-defaultlib:LIBCMT "
	DCB	"-defaultlib:OLDNAMES "

	EXPORT	|??_C@_1DI@INEFPKBF@?$AAC?$AAo?$AAn?$AAs?$AAt?$AAr?$AAa?$AAi?$AAn?$AAt?$AAR?$AAo?$AAo?$AAt?$AA?3?$AA?3?$AA?9?$AAI?$AAn?$AAi?$AAt?$AA?$CI?$AA?$CF?$AAd?$AA?$CJ?$AA?$AN?$AA?6?$AA?$AA@| [ DATA ] ; `string'
	EXPORT	|??_C@_1EM@BDGDKJGA@?$AAC?$AAo?$AAn?$AAs?$AAt?$AAr?$AAa?$AAi?$AAn?$AAt?$AAR?$AAo?$AAo?$AAt?$AA?3?$AA?3?$AA?$CL?$AAI?$AAn?$AAi?$AAt?$AA?$CI?$AA?8?$AA?$CF?$AAs?$AA?8?$AA?0?$AA?5?$AA0?$AAx?$AA?$CF?$AA0@| [ DATA ] ; `string'
	EXPORT	|?Initialize@ConstraintRoot@@QAAHPBG@Z|	; ConstraintRoot::Initialize
	IMPORT	|wcscpy|
	IMPORT	|?Initialize@ConstraintContainer@@QAAHPBG@Z| ; ConstraintContainer::Initialize
	IMPORT	|NKDbgPrintfW|
	IMPORT	|dpCurSettings|

  00000			 AREA	 |.pdata|, PDATA
|$T37567| DCD	|$LN9@Initialize|
	DCD	0x40002d04
; File c:\wince600\platform\common\src\soc\common_ti_v1\common_ti\pm\constraintroot\constraintroot.cpp

  00000			 AREA	 |.rdata|, DATA, READONLY
|??_C@_1DI@INEFPKBF@?$AAC?$AAo?$AAn?$AAs?$AAt?$AAr?$AAa?$AAi?$AAn?$AAt?$AAR?$AAo?$AAo?$AAt?$AA?3?$AA?3?$AA?9?$AAI?$AAn?$AAi?$AAt?$AA?$CI?$AA?$CF?$AAd?$AA?$CJ?$AA?$AN?$AA?6?$AA?$AA@| DCB "C"
	DCB	0x0, "o", 0x0, "n", 0x0, "s", 0x0, "t", 0x0, "r", 0x0, "a"
	DCB	0x0, "i", 0x0, "n", 0x0, "t", 0x0, "R", 0x0, "o", 0x0, "o"
	DCB	0x0, "t", 0x0, ":", 0x0, ":", 0x0, "-", 0x0, "I", 0x0, "n"
	DCB	0x0, "i", 0x0, "t", 0x0, "(", 0x0, "%", 0x0, "d", 0x0, ")"
	DCB	0x0, 0xd, 0x0, 0xa, 0x0, 0x0, 0x0	; `string'

  00000			 AREA	 |.rdata|, DATA, READONLY
|??_C@_1EM@BDGDKJGA@?$AAC?$AAo?$AAn?$AAs?$AAt?$AAr?$AAa?$AAi?$AAn?$AAt?$AAR?$AAo?$AAo?$AAt?$AA?3?$AA?3?$AA?$CL?$AAI?$AAn?$AAi?$AAt?$AA?$CI?$AA?8?$AA?$CF?$AAs?$AA?8?$AA?0?$AA?5?$AA0?$AAx?$AA?$CF?$AA0@| DCB "C"
	DCB	0x0, "o", 0x0, "n", 0x0, "s", 0x0, "t", 0x0, "r", 0x0, "a"
	DCB	0x0, "i", 0x0, "n", 0x0, "t", 0x0, "R", 0x0, "o", 0x0, "o"
	DCB	0x0, "t", 0x0, ":", 0x0, ":", 0x0, "+", 0x0, "I", 0x0, "n"
	DCB	0x0, "i", 0x0, "t", 0x0, "(", 0x0, "'", 0x0, "%", 0x0, "s"
	DCB	0x0, "'", 0x0, ",", 0x0, " ", 0x0, "0", 0x0, "x", 0x0, "%"
	DCB	0x0, "0", 0x0, "8", 0x0, "x", 0x0, ")", 0x0, 0xd, 0x0, 0xa
	DCB	0x0, 0x0, 0x0				; `string'
; Function compile flags: /Odtp

  00000			 AREA	 |.text|, CODE, ARM

  00000		 |?Initialize@ConstraintRoot@@QAAHPBG@Z| PROC ; ConstraintRoot::Initialize

; 34   : {

  00000		 |$LN9@Initialize|
  00000	e1a0c00d	 mov         r12, sp
  00004	e92d0003	 stmdb       sp!, {r0, r1}
  00008	e92d5000	 stmdb       sp!, {r12, lr}
  0000c	e24dd00c	 sub         sp, sp, #0xC
  00010		 |$M37564|

; 35   :     DEBUGMSG(ZONE_FUNCTION, (L"ConstraintRoot::"
; 36   :         L"+Init('%s', 0x%08x)\r\n", context, this
; 37   :         ));

  00010	e59f3094	 ldr         r3, [pc, #0x94]
  00014	e5933440	 ldr         r3, [r3, #0x440]
  00018	e3130004	 tst         r3, #4
  0001c	0a000006	 beq         |$LN3@Initialize|
  00020	e59d2014	 ldr         r2, [sp, #0x14]
  00024	e59d1018	 ldr         r1, [sp, #0x18]
  00028	e59f0080	 ldr         r0, [pc, #0x80]
  0002c	eb000000	 bl          NKDbgPrintfW
  00030	e3a03001	 mov         r3, #1
  00034	e58d3004	 str         r3, [sp, #4]
  00038	ea000001	 b           |$LN4@Initialize|
  0003c		 |$LN3@Initialize|
  0003c	e3a03000	 mov         r3, #0
  00040	e58d3004	 str         r3, [sp, #4]
  00044		 |$LN4@Initialize|

; 38   :     
; 39   :     m_ConstraintContainer.Initialize(context);

  00044	e59d1018	 ldr         r1, [sp, #0x18]
  00048	e59d3014	 ldr         r3, [sp, #0x14]
  0004c	e2830f82	 add         r0, r3, #0x82, 30
  00050	eb000000	 bl          |?Initialize@ConstraintContainer@@QAAHPBG@Z|

; 40   : 
; 41   :     _tcscpy(m_szConstraintKey, context);

  00054	e59d1018	 ldr         r1, [sp, #0x18]
  00058	e59d0014	 ldr         r0, [sp, #0x14]
  0005c	eb000000	 bl          wcscpy

; 42   :     
; 43   :     DEBUGMSG(ZONE_FUNCTION, (L"ConstraintRoot::"
; 44   :         L"-Init(%d)\r\n", TRUE
; 45   :         ));

  00060	e59f3044	 ldr         r3, [pc, #0x44]
  00064	e5933440	 ldr         r3, [r3, #0x440]
  00068	e3130004	 tst         r3, #4
  0006c	0a000005	 beq         |$LN5@Initialize|
  00070	e3a01001	 mov         r1, #1
  00074	e59f002c	 ldr         r0, [pc, #0x2C]
  00078	eb000000	 bl          NKDbgPrintfW
  0007c	e3a03001	 mov         r3, #1
  00080	e58d3008	 str         r3, [sp, #8]
  00084	ea000001	 b           |$LN6@Initialize|
  00088		 |$LN5@Initialize|
  00088	e3a03000	 mov         r3, #0
  0008c	e58d3008	 str         r3, [sp, #8]
  00090		 |$LN6@Initialize|

; 46   :     return TRUE;

  00090	e3a03001	 mov         r3, #1
  00094	e58d3000	 str         r3, [sp]

; 47   : }

  00098	e59d0000	 ldr         r0, [sp]
  0009c	e28dd00c	 add         sp, sp, #0xC
  000a0	e89d6000	 ldmia       sp, {sp, lr}
  000a4	e12fff1e	 bx          lr
  000a8		 |$LN10@Initialize|
  000a8		 |$LN11@Initialize|
  000a8	00000000	 DCD         |??_C@_1DI@INEFPKBF@?$AAC?$AAo?$AAn?$AAs?$AAt?$AAr?$AAa?$AAi?$AAn?$AAt?$AAR?$AAo?$AAo?$AAt?$AA?3?$AA?3?$AA?9?$AAI?$AAn?$AAi?$AAt?$AA?$CI?$AA?$CF?$AAd?$AA?$CJ?$AA?$AN?$AA?6?$AA?$AA@|
  000ac		 |$LN12@Initialize|
  000ac	00000000	 DCD         |dpCurSettings|
  000b0		 |$LN13@Initialize|
  000b0	00000000	 DCD         |??_C@_1EM@BDGDKJGA@?$AAC?$AAo?$AAn?$AAs?$AAt?$AAr?$AAa?$AAi?$AAn?$AAt?$AAR?$AAo?$AAo?$AAt?$AA?3?$AA?3?$AA?$CL?$AAI?$AAn?$AAi?$AAt?$AA?$CI?$AA?8?$AA?$CF?$AAs?$AA?8?$AA?0?$AA?5?$AA0?$AAx?$AA?$CF?$AA0@|
  000b4		 |$M37565|

			 ENDP  ; |?Initialize@ConstraintRoot@@QAAHPBG@Z|, ConstraintRoot::Initialize

	EXPORT	|??$push_back@PAVConstraintAdapter@@@?$list@PAVConstraintAdapter@@Vallocator@ce@@@ce@@QAA_NABQAVConstraintAdapter@@@Z| ; ce::list<ConstraintAdapter *,ce::allocator>::push_back<ConstraintAdapter *>
	EXPORT	|?GetAdapterId@ConstraintAdapter@@QBAPBGXZ| ; ConstraintAdapter::GetAdapterId
	EXPORT	|??0ConstraintAdapter@@QAA@XZ|		; ConstraintAdapter::ConstraintAdapter
	EXPORT	|?LoadConstraintAdapter@ConstraintRoot@@QAAPAVConstraintAdapter@@PBG@Z| ; ConstraintRoot::LoadConstraintAdapter
	IMPORT	|??3@YAXPAX@Z|				; operator delete
	IMPORT	|?Uninitialize@ConstraintAdapter@@QAAXXZ| ; ConstraintAdapter::Uninitialize
	IMPORT	|?PostInitialize@ConstraintAdapter@@QAAHXZ| ; ConstraintAdapter::PostInitialize
	IMPORT	|?FindAdapterById@ConstraintContainer@@QAAPAVConstraintAdapter@@PBG@Z| ; ConstraintContainer::FindAdapterById
	IMPORT	|?Initialize@ConstraintAdapter@@QAAHPBG@Z| ; ConstraintAdapter::Initialize
	IMPORT	|??2@YAPAXI@Z|				; operator new

  00008			 AREA	 |.pdata|, PDATA
|$T37582| DCD	|$LN17@LoadConstr|
	DCD	0x40005f04
; Function compile flags: /Odtp

  000b4			 AREA	 |.text|, CODE, ARM

  000b4		 |?LoadConstraintAdapter@ConstraintRoot@@QAAPAVConstraintAdapter@@PBG@Z| PROC ; ConstraintRoot::LoadConstraintAdapter

; 58   : {

  000b4		 |$LN17@LoadConstr|
  000b4	e1a0c00d	 mov         r12, sp
  000b8	e92d0003	 stmdb       sp!, {r0, r1}
  000bc	e92d5000	 stmdb       sp!, {r12, lr}
  000c0	e24dd038	 sub         sp, sp, #0x38
  000c4		 |$M37579|

; 59   :     BOOL bSuccess = FALSE;

  000c4	e3a03000	 mov         r3, #0
  000c8	e58d3004	 str         r3, [sp, #4]

; 60   :     ConstraintAdapter *pAdapterOld;
; 61   :     
; 62   :     // create an instance of a ConstraintAdapter
; 63   :     ConstraintAdapter *pAdapter = new ConstraintAdapter();

  000cc	e3a00c0a	 mov         r0, #0xA, 24
  000d0	e3800044	 orr         r0, r0, #0x44
  000d4	eb000000	 bl          |??2@YAPAXI@Z|
  000d8	e58d001c	 str         r0, [sp, #0x1C]
  000dc	e59d301c	 ldr         r3, [sp, #0x1C]
  000e0	e58d300c	 str         r3, [sp, #0xC]
  000e4	e59d300c	 ldr         r3, [sp, #0xC]
  000e8	e3530000	 cmp         r3, #0
  000ec	0a000005	 beq         |$LN13@LoadConstr|
  000f0	e59d000c	 ldr         r0, [sp, #0xC]
  000f4	eb000000	 bl          |??0ConstraintAdapter@@QAA@XZ|
  000f8	e58d0020	 str         r0, [sp, #0x20]
  000fc	e59d3020	 ldr         r3, [sp, #0x20]
  00100	e58d3024	 str         r3, [sp, #0x24]
  00104	ea000001	 b           |$LN14@LoadConstr|
  00108		 |$LN13@LoadConstr|
  00108	e3a03000	 mov         r3, #0
  0010c	e58d3024	 str         r3, [sp, #0x24]
  00110		 |$LN14@LoadConstr|
  00110	e59d3024	 ldr         r3, [sp, #0x24]
  00114	e58d3008	 str         r3, [sp, #8]

; 64   :     if (pAdapter == NULL) goto cleanUp;

  00118	e59d3008	 ldr         r3, [sp, #8]
  0011c	e3530000	 cmp         r3, #0
  00120	1a000001	 bne         |$LN10@LoadConstr|
  00124	ea00002f	 b           |$LN9@LoadConstr|
  00128	ea00002e	 b           |$cleanUp$36728|
  0012c		 |$LN10@LoadConstr|

; 65   : 
; 66   :     // perform initialization steps
; 67   :     if (pAdapter->Initialize(szContext) == FALSE) goto cleanUp;

  0012c	e59d1044	 ldr         r1, [sp, #0x44]
  00130	e59d0008	 ldr         r0, [sp, #8]
  00134	eb000000	 bl          |?Initialize@ConstraintAdapter@@QAAHPBG@Z|
  00138	e58d0028	 str         r0, [sp, #0x28]
  0013c	e59d3028	 ldr         r3, [sp, #0x28]
  00140	e3530000	 cmp         r3, #0
  00144	1a000001	 bne         |$LN8@LoadConstr|
  00148	ea000026	 b           |$LN7@LoadConstr|
  0014c	ea000025	 b           |$cleanUp$36728|
  00150		 |$LN8@LoadConstr|

; 68   : 
; 69   :     // we need to preserve the uniqueness of constraint adapter id's
; 70   :     // check if the constraint adapter is already in the collection
; 71   :     pAdapterOld = m_ConstraintContainer.FindAdapterById(pAdapter->GetAdapterId());

  00150	e59d0008	 ldr         r0, [sp, #8]
  00154	eb000000	 bl          |?GetAdapterId@ConstraintAdapter@@QBAPBGXZ|
  00158	e58d002c	 str         r0, [sp, #0x2C]
  0015c	e59d102c	 ldr         r1, [sp, #0x2C]
  00160	e59d3040	 ldr         r3, [sp, #0x40]
  00164	e2830f82	 add         r0, r3, #0x82, 30
  00168	eb000000	 bl          |?FindAdapterById@ConstraintContainer@@QAAPAVConstraintAdapter@@PBG@Z|
  0016c	e58d0030	 str         r0, [sp, #0x30]
  00170	e59d3030	 ldr         r3, [sp, #0x30]
  00174	e58d3000	 str         r3, [sp]

; 72   :     if (pAdapterOld == NULL)

  00178	e59d3000	 ldr         r3, [sp]
  0017c	e3530000	 cmp         r3, #0
  00180	1a00000e	 bne         |$LN6@LoadConstr|

; 73   :         {
; 74   :         if (pAdapter->PostInitialize() == FALSE)

  00184	e59d0008	 ldr         r0, [sp, #8]
  00188	eb000000	 bl          |?PostInitialize@ConstraintAdapter@@QAAHXZ|
  0018c	e58d0034	 str         r0, [sp, #0x34]
  00190	e59d3034	 ldr         r3, [sp, #0x34]
  00194	e3530000	 cmp         r3, #0
  00198	1a000003	 bne         |$LN5@LoadConstr|

; 75   :             {
; 76   :             pAdapter->Uninitialize();

  0019c	e59d0008	 ldr         r0, [sp, #8]
  001a0	eb000000	 bl          |?Uninitialize@ConstraintAdapter@@QAAXXZ|
  001a4	ea00000f	 b           |$LN4@LoadConstr|

; 77   :             goto cleanUp;        

  001a8	ea00000e	 b           |$cleanUp$36728|
  001ac		 |$LN5@LoadConstr|

; 78   :             }
; 79   : 
; 80   :         // insert into list
; 81   :         m_ConstraintContainer.push_back(pAdapter);

  001ac	e28d1008	 add         r1, sp, #8
  001b0	e59d3040	 ldr         r3, [sp, #0x40]
  001b4	e2830f82	 add         r0, r3, #0x82, 30
  001b8	eb000000	 bl          |??$push_back@PAVConstraintAdapter@@@?$list@PAVConstraintAdapter@@Vallocator@ce@@@ce@@QAA_NABQAVConstraintAdapter@@@Z|

; 82   :         }
; 83   :     else

  001bc	ea000007	 b           |$LN3@LoadConstr|
  001c0		 |$LN6@LoadConstr|

; 84   :         {
; 85   :         // if adapter is already in the collection then delete new one
; 86   :         // and use the old one.
; 87   :         pAdapter->Uninitialize();

  001c0	e59d0008	 ldr         r0, [sp, #8]
  001c4	eb000000	 bl          |?Uninitialize@ConstraintAdapter@@QAAXXZ|

; 88   :         delete pAdapter;

  001c8	e59d3008	 ldr         r3, [sp, #8]
  001cc	e58d3010	 str         r3, [sp, #0x10]
  001d0	e59d0010	 ldr         r0, [sp, #0x10]
  001d4	eb000000	 bl          |??3@YAXPAX@Z|

; 89   :         pAdapter = pAdapterOld;        

  001d8	e59d3000	 ldr         r3, [sp]
  001dc	e58d3008	 str         r3, [sp, #8]
  001e0		 |$LN3@LoadConstr|

; 90   :         }
; 91   : 
; 92   :     bSuccess = TRUE;

  001e0	e3a03001	 mov         r3, #1
  001e4	e58d3004	 str         r3, [sp, #4]
  001e8		 |$LN4@LoadConstr|
  001e8		 |$LN7@LoadConstr|
  001e8		 |$LN9@LoadConstr|
  001e8		 |$cleanUp$36728|

; 93   : 
; 94   : cleanUp:
; 95   :     if (bSuccess == FALSE)

  001e8	e59d3004	 ldr         r3, [sp, #4]
  001ec	e3530000	 cmp         r3, #0
  001f0	1a000008	 bne         |$LN2@LoadConstr|

; 96   :         {
; 97   :         if (pAdapter != NULL) delete pAdapter;

  001f4	e59d3008	 ldr         r3, [sp, #8]
  001f8	e3530000	 cmp         r3, #0
  001fc	0a000003	 beq         |$LN1@LoadConstr|
  00200	e59d3008	 ldr         r3, [sp, #8]
  00204	e58d3014	 str         r3, [sp, #0x14]
  00208	e59d0014	 ldr         r0, [sp, #0x14]
  0020c	eb000000	 bl          |??3@YAXPAX@Z|
  00210		 |$LN1@LoadConstr|

; 98   :         pAdapter = NULL;

  00210	e3a03000	 mov         r3, #0
  00214	e58d3008	 str         r3, [sp, #8]
  00218		 |$LN2@LoadConstr|

; 99   :         }
; 100  :     return pAdapter;

  00218	e59d3008	 ldr         r3, [sp, #8]
  0021c	e58d3018	 str         r3, [sp, #0x18]

; 101  : }

  00220	e59d0018	 ldr         r0, [sp, #0x18]
  00224	e28dd038	 add         sp, sp, #0x38
  00228	e89d6000	 ldmia       sp, {sp, lr}
  0022c	e12fff1e	 bx          lr
  00230		 |$M37580|

			 ENDP  ; |?LoadConstraintAdapter@ConstraintRoot@@QAAPAVConstraintAdapter@@PBG@Z|, ConstraintRoot::LoadConstraintAdapter

	IMPORT	|memset|
; File c:\wince600\platform\common\src\soc\common_ti_v1\common_ti\pm\constraintroot\constraintadapter.h

  00000			 AREA	 |.pdata|, PDATA
|$T37588| DCD	|$LN5@Constraint|
	DCD	0x40003104
; Function compile flags: /Odtp

  00000			 AREA	 |.text|, CODE, ARM

  00000		 |??0ConstraintAdapter@@QAA@XZ| PROC	; ConstraintAdapter::ConstraintAdapter

; 74   :     {

  00000		 |$LN5@Constraint|
  00000	e1a0c00d	 mov         r12, sp
  00004	e92d0001	 stmdb       sp!, {r0}
  00008	e92d5000	 stmdb       sp!, {r12, lr}
  0000c	e24dd004	 sub         sp, sp, #4
  00010		 |$M37585|
  00010	e59d200c	 ldr         r2, [sp, #0xC]
  00014	e3a03000	 mov         r3, #0
  00018	e5823000	 str         r3, [r2]
  0001c	e59d300c	 ldr         r3, [sp, #0xC]
  00020	e2832004	 add         r2, r3, #4
  00024	e3a03000	 mov         r3, #0
  00028	e5823000	 str         r3, [r2]
  0002c	e59d300c	 ldr         r3, [sp, #0xC]
  00030	e2832008	 add         r2, r3, #8
  00034	e3a03000	 mov         r3, #0
  00038	e5823000	 str         r3, [r2]
  0003c	e59d300c	 ldr         r3, [sp, #0xC]
  00040	e2832f85	 add         r2, r3, #0x85, 30
  00044	e3a03000	 mov         r3, #0
  00048	e5823000	 str         r3, [r2]

; 75   :         *m_szDll = NULL;

  0004c	e59d300c	 ldr         r3, [sp, #0xC]
  00050	e283200c	 add         r2, r3, #0xC
  00054	e3a03000	 mov         r3, #0
  00058	e1c230b0	 strh        r3, [r2]

; 76   :         *m_szRegKey = NULL;

  0005c	e59d300c	 ldr         r3, [sp, #0xC]
  00060	e2832f86	 add         r2, r3, #0x86, 30
  00064	e3a03000	 mov         r3, #0
  00068	e1c230b0	 strh        r3, [r2]

; 77   :         *m_szConstraintName = NULL;

  0006c	e59d300c	 ldr         r3, [sp, #0xC]
  00070	e2832e42	 add         r2, r3, #0x42, 28
  00074	e3a03000	 mov         r3, #0
  00078	e1c230b0	 strh        r3, [r2]

; 78   :         memset(&m_fns, 0, sizeof(ConstraintAdapterFns));

  0007c	e3a0201c	 mov         r2, #0x1C
  00080	e3a01000	 mov         r1, #0
  00084	e59d300c	 ldr         r3, [sp, #0xC]
  00088	e2833c0a	 add         r3, r3, #0xA, 24
  0008c	e2830028	 add         r0, r3, #0x28
  00090	eb000000	 bl          memset

; 79   :         memset(m_rgClasses, 0, sizeof(DWORD)*MAX_CONSTRAINT_CLASSES);

  00094	e3a02b01	 mov         r2, #1, 22
  00098	e3a01000	 mov         r1, #0
  0009c	e59d300c	 ldr         r3, [sp, #0xC]
  000a0	e2833c06	 add         r3, r3, #6, 24
  000a4	e2830028	 add         r0, r3, #0x28
  000a8	eb000000	 bl          memset

; 80   :     }

  000ac	e59d300c	 ldr         r3, [sp, #0xC]
  000b0	e58d3000	 str         r3, [sp]
  000b4	e59d0000	 ldr         r0, [sp]
  000b8	e28dd004	 add         sp, sp, #4
  000bc	e89d6000	 ldmia       sp, {sp, lr}
  000c0	e12fff1e	 bx          lr
  000c4		 |$M37586|

			 ENDP  ; |??0ConstraintAdapter@@QAA@XZ|, ConstraintAdapter::ConstraintAdapter


  00000			 AREA	 |.pdata|, PDATA
|$T37596| DCD	|$LN5@GetAdapter|
	DCD	0x40000b04
; Function compile flags: /Odtp

  00000			 AREA	 |.text|, CODE, ARM

  00000		 |?GetAdapterId@ConstraintAdapter@@QBAPBGXZ| PROC ; ConstraintAdapter::GetAdapterId

; 112  :     {

  00000		 |$LN5@GetAdapter|
  00000	e1a0c00d	 mov         r12, sp
  00004	e92d0001	 stmdb       sp!, {r0}
  00008	e92d5000	 stmdb       sp!, {r12, lr}
  0000c	e24dd004	 sub         sp, sp, #4
  00010		 |$M37593|

; 113  :         return m_szConstraintName;

  00010	e59d300c	 ldr         r3, [sp, #0xC]
  00014	e2833e42	 add         r3, r3, #0x42, 28
  00018	e58d3000	 str         r3, [sp]

; 114  :     }

  0001c	e59d0000	 ldr         r0, [sp]
  00020	e28dd004	 add         sp, sp, #4
  00024	e89d6000	 ldmia       sp, {sp, lr}
  00028	e12fff1e	 bx          lr
  0002c		 |$M37594|

			 ENDP  ; |?GetAdapterId@ConstraintAdapter@@QBAPBGXZ|, ConstraintAdapter::GetAdapterId

	EXPORT	|??9iterator@?$list@PAVConstraintAdapter@@Vallocator@ce@@@ce@@QBA_NABV012@@Z| ; ce::list<ConstraintAdapter *,ce::allocator>::iterator::operator!=
	EXPORT	|??$insert@PAVConstraintAdapter@@@?$list@PAVConstraintAdapter@@Vallocator@ce@@@ce@@QAA?AViterator@01@V201@ABQAVConstraintAdapter@@@Z| ; ce::list<ConstraintAdapter *,ce::allocator>::insert<ConstraintAdapter *>
	EXPORT	|?end@?$list@PAVConstraintAdapter@@Vallocator@ce@@@ce@@QAA?AViterator@12@XZ| ; ce::list<ConstraintAdapter *,ce::allocator>::end
; File c:\wince600\public\common\oak\inc\list.hxx

  00000			 AREA	 |.pdata|, PDATA
|$T37607| DCD	|$LN5@push_back|
	DCD	0x40001f04
; Function compile flags: /Odtp

  00000			 AREA	 |.text|, CODE, ARM

  00000		 |??$push_back@PAVConstraintAdapter@@@?$list@PAVConstraintAdapter@@Vallocator@ce@@@ce@@QAA_NABQAVConstraintAdapter@@@Z| PROC ; ce::list<ConstraintAdapter *,ce::allocator>::push_back<ConstraintAdapter *>

; 444  :     bool push_back(const _Val& Value)

  00000		 |$LN5@push_back|
  00000	e1a0c00d	 mov         r12, sp
  00004	e92d0003	 stmdb       sp!, {r0, r1}
  00008	e92d5000	 stmdb       sp!, {r12, lr}
  0000c	e24dd024	 sub         sp, sp, #0x24
  00010		 |$M37604|
  00010	e28d1004	 add         r1, sp, #4
  00014	e59d002c	 ldr         r0, [sp, #0x2C]
  00018	eb000000	 bl          |?end@?$list@PAVConstraintAdapter@@Vallocator@ce@@@ce@@QAA?AViterator@12@XZ|
  0001c	e58d0010	 str         r0, [sp, #0x10]
  00020	e59d3030	 ldr         r3, [sp, #0x30]
  00024	e59d2010	 ldr         r2, [sp, #0x10]
  00028	e58d2014	 str         r2, [sp, #0x14]
  0002c	e59d2014	 ldr         r2, [sp, #0x14]
  00030	e5922000	 ldr         r2, [r2]
  00034	e28d1008	 add         r1, sp, #8
  00038	e59d002c	 ldr         r0, [sp, #0x2C]
  0003c	eb000000	 bl          |??$insert@PAVConstraintAdapter@@@?$list@PAVConstraintAdapter@@Vallocator@ce@@@ce@@QAA?AViterator@01@V201@ABQAVConstraintAdapter@@@Z|
  00040	e58d0018	 str         r0, [sp, #0x18]
  00044	e28d1000	 add         r1, sp, #0
  00048	e59d002c	 ldr         r0, [sp, #0x2C]
  0004c	eb000000	 bl          |?end@?$list@PAVConstraintAdapter@@Vallocator@ce@@@ce@@QAA?AViterator@12@XZ|
  00050	e58d001c	 str         r0, [sp, #0x1C]
  00054	e59d1018	 ldr         r1, [sp, #0x18]
  00058	e59d001c	 ldr         r0, [sp, #0x1C]
  0005c	eb000000	 bl          |??9iterator@?$list@PAVConstraintAdapter@@Vallocator@ce@@@ce@@QBA_NABV012@@Z|
  00060	e5cd0020	 strb        r0, [sp, #0x20]
  00064	e5dd3020	 ldrb        r3, [sp, #0x20]
  00068	e5cd300c	 strb        r3, [sp, #0xC]

; 445  :         {return end() != insert(end(), Value); }

  0006c	e5dd000c	 ldrb        r0, [sp, #0xC]
  00070	e28dd024	 add         sp, sp, #0x24
  00074	e89d6000	 ldmia       sp, {sp, lr}
  00078	e12fff1e	 bx          lr
  0007c		 |$M37605|

			 ENDP  ; |??$push_back@PAVConstraintAdapter@@@?$list@PAVConstraintAdapter@@Vallocator@ce@@@ce@@QAA_NABQAVConstraintAdapter@@@Z|, ce::list<ConstraintAdapter *,ce::allocator>::push_back<ConstraintAdapter *>

	EXPORT	|??0iterator@?$list@PAVConstraintAdapter@@Vallocator@ce@@@ce@@QAA@PAU_Node@12@@Z| ; ce::list<ConstraintAdapter *,ce::allocator>::iterator::iterator

  00000			 AREA	 |.pdata|, PDATA
|$T37615| DCD	|$LN5@end|
	DCD	0x40000e04
; Function compile flags: /Odtp

  00000			 AREA	 |.text|, CODE, ARM

  00000		 |?end@?$list@PAVConstraintAdapter@@Vallocator@ce@@@ce@@QAA?AViterator@12@XZ| PROC ; ce::list<ConstraintAdapter *,ce::allocator>::end

; 236  :         {return (iterator(_Head)); }

  00000		 |$LN5@end|
  00000	e1a0c00d	 mov         r12, sp
  00004	e92d0003	 stmdb       sp!, {r0, r1}
  00008	e92d5000	 stmdb       sp!, {r12, lr}
  0000c	e24dd004	 sub         sp, sp, #4
  00010		 |$M37612|
  00010	e59d300c	 ldr         r3, [sp, #0xC]
  00014	e5931000	 ldr         r1, [r3]
  00018	e59d0010	 ldr         r0, [sp, #0x10]
  0001c	eb000000	 bl          |??0iterator@?$list@PAVConstraintAdapter@@Vallocator@ce@@@ce@@QAA@PAU_Node@12@@Z|
  00020	e59d3010	 ldr         r3, [sp, #0x10]
  00024	e58d3000	 str         r3, [sp]
  00028	e59d0000	 ldr         r0, [sp]
  0002c	e28dd004	 add         sp, sp, #4
  00030	e89d6000	 ldmia       sp, {sp, lr}
  00034	e12fff1e	 bx          lr
  00038		 |$M37613|

			 ENDP  ; |?end@?$list@PAVConstraintAdapter@@Vallocator@ce@@@ce@@QAA?AViterator@12@XZ|, ce::list<ConstraintAdapter *,ce::allocator>::end

	EXPORT	|??0const_iterator@?$list@PAVConstraintAdapter@@Vallocator@ce@@@ce@@QAA@PAU_Node@12@@Z| ; ce::list<ConstraintAdapter *,ce::allocator>::const_iterator::const_iterator

  00000			 AREA	 |.pdata|, PDATA
|$T37623| DCD	|$LN5@iterator|
	DCD	0x40000d04
; Function compile flags: /Odtp

  00000			 AREA	 |.text|, CODE, ARM

  00000		 |??0iterator@?$list@PAVConstraintAdapter@@Vallocator@ce@@@ce@@QAA@PAU_Node@12@@Z| PROC ; ce::list<ConstraintAdapter *,ce::allocator>::iterator::iterator

; 523  :         iterator(_NodePtr _P)

  00000		 |$LN5@iterator|
  00000	e1a0c00d	 mov         r12, sp
  00004	e92d0003	 stmdb       sp!, {r0, r1}
  00008	e92d5000	 stmdb       sp!, {r12, lr}
  0000c	e24dd004	 sub         sp, sp, #4
  00010		 |$M37620|
  00010	e59d1010	 ldr         r1, [sp, #0x10]
  00014	e59d000c	 ldr         r0, [sp, #0xC]
  00018	eb000000	 bl          |??0const_iterator@?$list@PAVConstraintAdapter@@Vallocator@ce@@@ce@@QAA@PAU_Node@12@@Z|
  0001c	e59d300c	 ldr         r3, [sp, #0xC]
  00020	e58d3000	 str         r3, [sp]
  00024	e59d0000	 ldr         r0, [sp]
  00028	e28dd004	 add         sp, sp, #4
  0002c	e89d6000	 ldmia       sp, {sp, lr}
  00030	e12fff1e	 bx          lr
  00034		 |$M37621|

			 ENDP  ; |??0iterator@?$list@PAVConstraintAdapter@@Vallocator@ce@@@ce@@QAA@PAU_Node@12@@Z|, ce::list<ConstraintAdapter *,ce::allocator>::iterator::iterator

	EXPORT	|??8iterator@?$list@PAVConstraintAdapter@@Vallocator@ce@@@ce@@QBA_NABV012@@Z| ; ce::list<ConstraintAdapter *,ce::allocator>::iterator::operator==

  00000			 AREA	 |.pdata|, PDATA
|$T37633| DCD	|$LN7@operator|
	DCD	0x40001704
; Function compile flags: /Odtp

  00000			 AREA	 |.text|, CODE, ARM

  00000		 |??9iterator@?$list@PAVConstraintAdapter@@Vallocator@ce@@@ce@@QBA_NABV012@@Z| PROC ; ce::list<ConstraintAdapter *,ce::allocator>::iterator::operator!=

; 546  :             {return (!(*this == it)); }

  00000		 |$LN7@operator|
  00000	e1a0c00d	 mov         r12, sp
  00004	e92d0003	 stmdb       sp!, {r0, r1}
  00008	e92d5000	 stmdb       sp!, {r12, lr}
  0000c	e24dd00c	 sub         sp, sp, #0xC
  00010		 |$M37630|
  00010	e59d1018	 ldr         r1, [sp, #0x18]
  00014	e59d0014	 ldr         r0, [sp, #0x14]
  00018	eb000000	 bl          |??8iterator@?$list@PAVConstraintAdapter@@Vallocator@ce@@@ce@@QBA_NABV012@@Z|
  0001c	e5cd0004	 strb        r0, [sp, #4]
  00020	e5dd3004	 ldrb        r3, [sp, #4]
  00024	e3530000	 cmp         r3, #0
  00028	1a000002	 bne         |$LN3@operator|
  0002c	e3a03001	 mov         r3, #1
  00030	e58d3008	 str         r3, [sp, #8]
  00034	ea000001	 b           |$LN4@operator|
  00038		 |$LN3@operator|
  00038	e3a03000	 mov         r3, #0
  0003c	e58d3008	 str         r3, [sp, #8]
  00040		 |$LN4@operator|
  00040	e59d3008	 ldr         r3, [sp, #8]
  00044	e20330ff	 and         r3, r3, #0xFF
  00048	e5cd3000	 strb        r3, [sp]
  0004c	e5dd0000	 ldrb        r0, [sp]
  00050	e28dd00c	 add         sp, sp, #0xC
  00054	e89d6000	 ldmia       sp, {sp, lr}
  00058	e12fff1e	 bx          lr
  0005c		 |$M37631|

			 ENDP  ; |??9iterator@?$list@PAVConstraintAdapter@@Vallocator@ce@@@ce@@QBA_NABV012@@Z|, ce::list<ConstraintAdapter *,ce::allocator>::iterator::operator!=


  00000			 AREA	 |.pdata|, PDATA
|$T37643| DCD	|$LN7@operator@2|
	DCD	0x40001604
; Function compile flags: /Odtp

  00000			 AREA	 |.text|, CODE, ARM

  00000		 |??8iterator@?$list@PAVConstraintAdapter@@Vallocator@ce@@@ce@@QBA_NABV012@@Z| PROC ; ce::list<ConstraintAdapter *,ce::allocator>::iterator::operator==

; 544  :             {return (_Ptr == it._Ptr); }

  00000		 |$LN7@operator@2|
  00000	e1a0c00d	 mov         r12, sp
  00004	e92d0003	 stmdb       sp!, {r0, r1}
  00008	e92d5000	 stmdb       sp!, {r12, lr}
  0000c	e24dd008	 sub         sp, sp, #8
  00010		 |$M37640|
  00010	e59d3010	 ldr         r3, [sp, #0x10]
  00014	e5932000	 ldr         r2, [r3]
  00018	e59d3014	 ldr         r3, [sp, #0x14]
  0001c	e5933000	 ldr         r3, [r3]
  00020	e1520003	 cmp         r2, r3
  00024	1a000002	 bne         |$LN3@operator@2|
  00028	e3a03001	 mov         r3, #1
  0002c	e58d3004	 str         r3, [sp, #4]
  00030	ea000001	 b           |$LN4@operator@2|
  00034		 |$LN3@operator@2|
  00034	e3a03000	 mov         r3, #0
  00038	e58d3004	 str         r3, [sp, #4]
  0003c		 |$LN4@operator@2|
  0003c	e59d3004	 ldr         r3, [sp, #4]
  00040	e20330ff	 and         r3, r3, #0xFF
  00044	e5cd3000	 strb        r3, [sp]
  00048	e5dd0000	 ldrb        r0, [sp]
  0004c	e28dd008	 add         sp, sp, #8
  00050	e89d6000	 ldmia       sp, {sp, lr}
  00054	e12fff1e	 bx          lr
  00058		 |$M37641|

			 ENDP  ; |??8iterator@?$list@PAVConstraintAdapter@@Vallocator@ce@@@ce@@QBA_NABV012@@Z|, ce::list<ConstraintAdapter *,ce::allocator>::iterator::operator==


  00000			 AREA	 |.pdata|, PDATA
|$T37651| DCD	|$LN5@const_iter|
	DCD	0x40000d04
; Function compile flags: /Odtp

  00000			 AREA	 |.text|, CODE, ARM

  00000		 |??0const_iterator@?$list@PAVConstraintAdapter@@Vallocator@ce@@@ce@@QAA@PAU_Node@12@@Z| PROC ; ce::list<ConstraintAdapter *,ce::allocator>::const_iterator::const_iterator

; 484  :         const_iterator(_NodePtr _P)

  00000		 |$LN5@const_iter|
  00000	e1a0c00d	 mov         r12, sp
  00004	e92d0003	 stmdb       sp!, {r0, r1}
  00008	e92d5000	 stmdb       sp!, {r12, lr}
  0000c	e24dd004	 sub         sp, sp, #4
  00010		 |$M37648|
  00010	e59d2010	 ldr         r2, [sp, #0x10]
  00014	e59d300c	 ldr         r3, [sp, #0xC]
  00018	e5832000	 str         r2, [r3]
  0001c	e59d300c	 ldr         r3, [sp, #0xC]
  00020	e58d3000	 str         r3, [sp]
  00024	e59d0000	 ldr         r0, [sp]
  00028	e28dd004	 add         sp, sp, #4
  0002c	e89d6000	 ldmia       sp, {sp, lr}
  00030	e12fff1e	 bx          lr
  00034		 |$M37649|

			 ENDP  ; |??0const_iterator@?$list@PAVConstraintAdapter@@Vallocator@ce@@@ce@@QAA@PAU_Node@12@@Z|, ce::list<ConstraintAdapter *,ce::allocator>::const_iterator::const_iterator

	EXPORT	|??2@YAPAXIPAX@Z|			; operator new
	EXPORT	|?_Buynode@?$list@PAVConstraintAdapter@@Vallocator@ce@@@ce@@IAAPAU_Node@12@PAU312@@Z| ; ce::list<ConstraintAdapter *,ce::allocator>::_Buynode
	EXPORT	|?_MyNode@const_iterator@?$list@PAVConstraintAdapter@@Vallocator@ce@@@ce@@QBAPAU_Node@23@XZ| ; ce::list<ConstraintAdapter *,ce::allocator>::const_iterator::_MyNode

  00000			 AREA	 |.pdata|, PDATA
|$T37662| DCD	|$LN8@insert|
	DCD	0x40003104
; Function compile flags: /Odtp

  00000			 AREA	 |.text|, CODE, ARM

  00000		 |??$insert@PAVConstraintAdapter@@@?$list@PAVConstraintAdapter@@Vallocator@ce@@@ce@@QAA?AViterator@01@V201@ABQAVConstraintAdapter@@@Z| PROC ; ce::list<ConstraintAdapter *,ce::allocator>::insert<ConstraintAdapter *>

; 269  :     iterator insert(iterator Where, const _Val& Value)

  00000		 |$LN8@insert|
  00000	e1a0c00d	 mov         r12, sp
  00004	e92d000f	 stmdb       sp!, {r0 - r3}
  00008	e92d5000	 stmdb       sp!, {r12, lr}
  0000c	e24dd01c	 sub         sp, sp, #0x1C
  00010		 |$M37659|

; 270  :     {
; 271  :         _NodePtr NewNode = _Buynode(Where._MyNode());

  00010	e28d002c	 add         r0, sp, #0x2C
  00014	eb000000	 bl          |?_MyNode@const_iterator@?$list@PAVConstraintAdapter@@Vallocator@ce@@@ce@@QBAPAU_Node@23@XZ|
  00018	e58d000c	 str         r0, [sp, #0xC]
  0001c	e59d100c	 ldr         r1, [sp, #0xC]
  00020	e59d0024	 ldr         r0, [sp, #0x24]
  00024	eb000000	 bl          |?_Buynode@?$list@PAVConstraintAdapter@@Vallocator@ce@@@ce@@IAAPAU_Node@12@PAU312@@Z|
  00028	e58d0010	 str         r0, [sp, #0x10]
  0002c	e59d3010	 ldr         r3, [sp, #0x10]
  00030	e58d3000	 str         r3, [sp]

; 272  :         
; 273  :         if(NewNode == NULL)

  00034	e59d3000	 ldr         r3, [sp]
  00038	e3530000	 cmp         r3, #0
  0003c	1a000005	 bne         |$LN1@insert|

; 274  :             return end();

  00040	e59d1028	 ldr         r1, [sp, #0x28]
  00044	e59d0024	 ldr         r0, [sp, #0x24]
  00048	eb000000	 bl          |?end@?$list@PAVConstraintAdapter@@Vallocator@ce@@@ce@@QAA?AViterator@12@XZ|
  0004c	e59d3028	 ldr         r3, [sp, #0x28]
  00050	e58d3008	 str         r3, [sp, #8]
  00054	ea000016	 b           |$LN2@insert|
  00058		 |$LN1@insert|

; 275  : 
; 276  :         // To avoid using operator& for type T (which may be overloaded)
; 277  :         // we are constructing item in the memory pointed to by NewNode.
; 278  :         // This assumes that _Value is the first member.
; 279  :         new (NewNode) T(Value);

  00058	e59d1000	 ldr         r1, [sp]
  0005c	e3a00004	 mov         r0, #4
  00060	eb000000	 bl          |??2@YAPAXIPAX@Z|
  00064	e58d0014	 str         r0, [sp, #0x14]
  00068	e59d3014	 ldr         r3, [sp, #0x14]
  0006c	e58d3004	 str         r3, [sp, #4]
  00070	e59d3004	 ldr         r3, [sp, #4]
  00074	e3530000	 cmp         r3, #0
  00078	0a000006	 beq         |$LN4@insert|
  0007c	e59d3030	 ldr         r3, [sp, #0x30]
  00080	e5932000	 ldr         r2, [r3]
  00084	e59d3004	 ldr         r3, [sp, #4]
  00088	e5832000	 str         r2, [r3]
  0008c	e59d3004	 ldr         r3, [sp, #4]
  00090	e58d3018	 str         r3, [sp, #0x18]
  00094	ea000001	 b           |$LN5@insert|
  00098		 |$LN4@insert|
  00098	e3a03000	 mov         r3, #0
  0009c	e58d3018	 str         r3, [sp, #0x18]
  000a0		 |$LN5@insert|

; 280  :         
; 281  :         return NewNode;

  000a0	e59d1000	 ldr         r1, [sp]
  000a4	e59d0028	 ldr         r0, [sp, #0x28]
  000a8	eb000000	 bl          |??0iterator@?$list@PAVConstraintAdapter@@Vallocator@ce@@@ce@@QAA@PAU_Node@12@@Z|
  000ac	e59d3028	 ldr         r3, [sp, #0x28]
  000b0	e58d3008	 str         r3, [sp, #8]
  000b4		 |$LN2@insert|

; 282  :     }

  000b4	e59d0008	 ldr         r0, [sp, #8]
  000b8	e28dd01c	 add         sp, sp, #0x1C
  000bc	e89d6000	 ldmia       sp, {sp, lr}
  000c0	e12fff1e	 bx          lr
  000c4		 |$M37660|

			 ENDP  ; |??$insert@PAVConstraintAdapter@@@?$list@PAVConstraintAdapter@@Vallocator@ce@@@ce@@QAA?AViterator@01@V201@ABQAVConstraintAdapter@@@Z|, ce::list<ConstraintAdapter *,ce::allocator>::insert<ConstraintAdapter *>

; File c:\wince600\public\common\sdk\inc\new

  00000			 AREA	 |.pdata|, PDATA
|$T37670| DCD	|$LN5@operator@3|
	DCD	0x40000a04
; Function compile flags: /Odtp

  00000			 AREA	 |.text|, CODE, ARM

  00000		 |??2@YAPAXIPAX@Z| PROC			; operator new

; 73   :     {return (_P); }

  00000		 |$LN5@operator@3|
  00000	e1a0c00d	 mov         r12, sp
  00004	e92d0003	 stmdb       sp!, {r0, r1}
  00008	e92d5000	 stmdb       sp!, {r12, lr}
  0000c	e24dd004	 sub         sp, sp, #4
  00010		 |$M37667|
  00010	e59d3010	 ldr         r3, [sp, #0x10]
  00014	e58d3000	 str         r3, [sp]
  00018	e59d0000	 ldr         r0, [sp]
  0001c	e28dd004	 add         sp, sp, #4
  00020	e89d6000	 ldmia       sp, {sp, lr}
  00024	e12fff1e	 bx          lr
  00028		 |$M37668|

			 ENDP  ; |??2@YAPAXIPAX@Z|, operator new

; File c:\wince600\public\common\oak\inc\list.hxx

  00000			 AREA	 |.pdata|, PDATA
|$T37678| DCD	|$LN5@MyNode|
	DCD	0x40000b04
; Function compile flags: /Odtp

  00000			 AREA	 |.text|, CODE, ARM

  00000		 |?_MyNode@const_iterator@?$list@PAVConstraintAdapter@@Vallocator@ce@@@ce@@QBAPAU_Node@23@XZ| PROC ; ce::list<ConstraintAdapter *,ce::allocator>::const_iterator::_MyNode

; 511  :             {return (_Ptr); }

  00000		 |$LN5@MyNode|
  00000	e1a0c00d	 mov         r12, sp
  00004	e92d0001	 stmdb       sp!, {r0}
  00008	e92d5000	 stmdb       sp!, {r12, lr}
  0000c	e24dd004	 sub         sp, sp, #4
  00010		 |$M37675|
  00010	e59d300c	 ldr         r3, [sp, #0xC]
  00014	e5933000	 ldr         r3, [r3]
  00018	e58d3000	 str         r3, [sp]
  0001c	e59d0000	 ldr         r0, [sp]
  00020	e28dd004	 add         sp, sp, #4
  00024	e89d6000	 ldmia       sp, {sp, lr}
  00028	e12fff1e	 bx          lr
  0002c		 |$M37676|

			 ENDP  ; |?_MyNode@const_iterator@?$list@PAVConstraintAdapter@@Vallocator@ce@@@ce@@QBAPAU_Node@23@XZ|, ce::list<ConstraintAdapter *,ce::allocator>::const_iterator::_MyNode

	EXPORT	|?allocate@allocator@ce@@QBAPAXI@Z|	; ce::allocator::allocate
	EXPORT	|??_C@_1LO@JDHEDOPL@?$AA?$AN?$AA?6?$AA?$CK?$AA?$CK?$AA?$CK?$AA?5?$AAA?$AAS?$AAS?$AAE?$AAR?$AAT?$AAI?$AAO?$AAN?$AA?5?$AAF?$AAA?$AAI?$AAL?$AAE?$AAD?$AA?5?$AAi?$AAn?$AA?5?$AAC?$AA?3?$AA?2?$AAW?$AAI?$AAN@| [ DATA ] ; `string'
	EXPORT	|??_C@_1LA@EKOJONDG@?$AA?$AN?$AA?6?$AA?$CK?$AA?$CK?$AA?$CK?$AA?5?$AAA?$AAS?$AAS?$AAE?$AAR?$AAT?$AAI?$AAO?$AAN?$AA?5?$AAF?$AAA?$AAI?$AAL?$AAE?$AAD?$AA?5?$AAi?$AAn?$AA?5?$AAC?$AA?3?$AA?2?$AAW?$AAI?$AAN@| [ DATA ] ; `string'
	IMPORT	|OutputDebugStringW|

  00000			 AREA	 |.pdata|, PDATA
|$T37688| DCD	|$LN9@Buynode|
	DCD	0x40004204

  00000			 AREA	 |.rdata|, DATA, READONLY
|??_C@_1LO@JDHEDOPL@?$AA?$AN?$AA?6?$AA?$CK?$AA?$CK?$AA?$CK?$AA?5?$AAA?$AAS?$AAS?$AAE?$AAR?$AAT?$AAI?$AAO?$AAN?$AA?5?$AAF?$AAA?$AAI?$AAL?$AAE?$AAD?$AA?5?$AAi?$AAn?$AA?5?$AAC?$AA?3?$AA?2?$AAW?$AAI?$AAN@| DCB 0xd
	DCB	0x0, 0xa, 0x0, "*", 0x0, "*", 0x0, "*", 0x0, " ", 0x0, "A"
	DCB	0x0, "S", 0x0, "S", 0x0, "E", 0x0, "R", 0x0, "T", 0x0, "I"
	DCB	0x0, "O", 0x0, "N", 0x0, " ", 0x0, "F", 0x0, "A", 0x0, "I"
	DCB	0x0, "L", 0x0, "E", 0x0, "D", 0x0, " ", 0x0, "i", 0x0, "n"
	DCB	0x0, " ", 0x0, "C", 0x0, ":", 0x0, "\\", 0x0, "W", 0x0, "I"
	DCB	0x0, "N", 0x0, "C", 0x0, "E", 0x0, "6", 0x0, "0", 0x0, "0"
	DCB	0x0, "\\", 0x0, "p", 0x0, "u", 0x0, "b", 0x0, "l", 0x0, "i"
	DCB	0x0, "c", 0x0, "\\", 0x0, "c", 0x0, "o", 0x0, "m", 0x0, "m"
	DCB	0x0, "o", 0x0, "n", 0x0, "\\", 0x0, "o", 0x0, "a", 0x0, "k"
	DCB	0x0, "\\", 0x0, "i", 0x0, "n", 0x0, "c", 0x0, "\\", 0x0, "l"
	DCB	0x0, "i", 0x0, "s", 0x0, "t", 0x0, ".", 0x0, "h", 0x0, "x"
	DCB	0x0, "x", 0x0, "(", 0x0, "5", 0x0, "5", 0x0, "4", 0x0, ")"
	DCB	0x0, ":", 0x0, 0xd, 0x0, 0xa, 0x0, "W", 0x0, "h", 0x0, "e"
	DCB	0x0, "r", 0x0, "e", 0x0, "N", 0x0, "o", 0x0, "d", 0x0, "e"
	DCB	0x0, "-", 0x0, ">", 0x0, "_", 0x0, "P", 0x0, "r", 0x0, "e"
	DCB	0x0, "v", 0x0, 0xd, 0x0, 0xa, 0x0, 0x0, 0x0 ; `string'

  00000			 AREA	 |.rdata|, DATA, READONLY
|??_C@_1LA@EKOJONDG@?$AA?$AN?$AA?6?$AA?$CK?$AA?$CK?$AA?$CK?$AA?5?$AAA?$AAS?$AAS?$AAE?$AAR?$AAT?$AAI?$AAO?$AAN?$AA?5?$AAF?$AAA?$AAI?$AAL?$AAE?$AAD?$AA?5?$AAi?$AAn?$AA?5?$AAC?$AA?3?$AA?2?$AAW?$AAI?$AAN@| DCB 0xd
	DCB	0x0, 0xa, 0x0, "*", 0x0, "*", 0x0, "*", 0x0, " ", 0x0, "A"
	DCB	0x0, "S", 0x0, "S", 0x0, "E", 0x0, "R", 0x0, "T", 0x0, "I"
	DCB	0x0, "O", 0x0, "N", 0x0, " ", 0x0, "F", 0x0, "A", 0x0, "I"
	DCB	0x0, "L", 0x0, "E", 0x0, "D", 0x0, " ", 0x0, "i", 0x0, "n"
	DCB	0x0, " ", 0x0, "C", 0x0, ":", 0x0, "\\", 0x0, "W", 0x0, "I"
	DCB	0x0, "N", 0x0, "C", 0x0, "E", 0x0, "6", 0x0, "0", 0x0, "0"
	DCB	0x0, "\\", 0x0, "p", 0x0, "u", 0x0, "b", 0x0, "l", 0x0, "i"
	DCB	0x0, "c", 0x0, "\\", 0x0, "c", 0x0, "o", 0x0, "m", 0x0, "m"
	DCB	0x0, "o", 0x0, "n", 0x0, "\\", 0x0, "o", 0x0, "a", 0x0, "k"
	DCB	0x0, "\\", 0x0, "i", 0x0, "n", 0x0, "c", 0x0, "\\", 0x0, "l"
	DCB	0x0, "i", 0x0, "s", 0x0, "t", 0x0, ".", 0x0, "h", 0x0, "x"
	DCB	0x0, "x", 0x0, "(", 0x0, "5", 0x0, "5", 0x0, "2", 0x0, ")"
	DCB	0x0, ":", 0x0, 0xd, 0x0, 0xa, 0x0, "W", 0x0, "h", 0x0, "e"
	DCB	0x0, "r", 0x0, "e", 0x0, "N", 0x0, "o", 0x0, "d", 0x0, "e"
	DCB	0x0, 0xd, 0x0, 0xa, 0x0, 0x0, 0x0	; `string'
; Function compile flags: /Odtp

  00000			 AREA	 |.text|, CODE, ARM

  00000		 |?_Buynode@?$list@PAVConstraintAdapter@@Vallocator@ce@@@ce@@IAAPAU_Node@12@PAU312@@Z| PROC ; ce::list<ConstraintAdapter *,ce::allocator>::_Buynode

; 551  :     {

  00000		 |$LN9@Buynode|
  00000	e1a0c00d	 mov         r12, sp
  00004	e92d0003	 stmdb       sp!, {r0, r1}
  00008	e92d5000	 stmdb       sp!, {r12, lr}
  0000c	e24dd00c	 sub         sp, sp, #0xC
  00010		 |$M37685|

; 552  :         assert(WhereNode);

  00010	e59d3018	 ldr         r3, [sp, #0x18]
  00014	e3530000	 cmp         r3, #0
  00018	1a000002	 bne         |$LN5@Buynode|
  0001c	e59f00e0	 ldr         r0, [pc, #0xE0]
  00020	eb000000	 bl          OutputDebugStringW
  00024	e6000010	 __debugbreak_ce
  00028		 |$LN5@Buynode|

; 553  :         __assume(WhereNode);
; 554  :         assert(WhereNode->_Prev);

  00028	e59d3018	 ldr         r3, [sp, #0x18]
  0002c	e2833008	 add         r3, r3, #8
  00030	e5933000	 ldr         r3, [r3]
  00034	e3530000	 cmp         r3, #0
  00038	1a000002	 bne         |$LN6@Buynode|
  0003c	e59f00bc	 ldr         r0, [pc, #0xBC]
  00040	eb000000	 bl          OutputDebugStringW
  00044	e6000010	 __debugbreak_ce
  00048		 |$LN6@Buynode|

; 555  :         __assume(WhereNode->_Prev);
; 556  :         
; 557  :         if(_NodePtr NewNode = (_NodePtr)allocate(sizeof(_Node)))

  00048	e3a0100c	 mov         r1, #0xC
  0004c	e59d0014	 ldr         r0, [sp, #0x14]
  00050	eb000000	 bl          |?allocate@allocator@ce@@QBAPAXI@Z|
  00054	e58d0008	 str         r0, [sp, #8]
  00058	e59d3008	 ldr         r3, [sp, #8]
  0005c	e58d3000	 str         r3, [sp]
  00060	e59d3000	 ldr         r3, [sp]
  00064	e3530000	 cmp         r3, #0
  00068	0a00001e	 beq         |$LN2@Buynode|

; 558  :         {
; 559  :             NewNode->_Next = WhereNode;

  0006c	e59d3000	 ldr         r3, [sp]
  00070	e2832004	 add         r2, r3, #4
  00074	e59d3018	 ldr         r3, [sp, #0x18]
  00078	e5823000	 str         r3, [r2]

; 560  :             NewNode->_Prev = WhereNode->_Prev;

  0007c	e59d3018	 ldr         r3, [sp, #0x18]
  00080	e2831008	 add         r1, r3, #8
  00084	e59d3000	 ldr         r3, [sp]
  00088	e2832008	 add         r2, r3, #8
  0008c	e5913000	 ldr         r3, [r1]
  00090	e5823000	 str         r3, [r2]

; 561  :             
; 562  :             WhereNode->_Prev->_Next = NewNode;

  00094	e59d3018	 ldr         r3, [sp, #0x18]
  00098	e2833008	 add         r3, r3, #8
  0009c	e5933000	 ldr         r3, [r3]
  000a0	e2832004	 add         r2, r3, #4
  000a4	e59d3000	 ldr         r3, [sp]
  000a8	e5823000	 str         r3, [r2]

; 563  :             WhereNode->_Prev = NewNode;

  000ac	e59d3018	 ldr         r3, [sp, #0x18]
  000b0	e2832008	 add         r2, r3, #8
  000b4	e59d3000	 ldr         r3, [sp]
  000b8	e5823000	 str         r3, [r2]

; 564  :             
; 565  :             ++_Size;

  000bc	e59d3014	 ldr         r3, [sp, #0x14]
  000c0	e283300c	 add         r3, r3, #0xC
  000c4	e5933000	 ldr         r3, [r3]
  000c8	e2832001	 add         r2, r3, #1
  000cc	e59d3014	 ldr         r3, [sp, #0x14]
  000d0	e283300c	 add         r3, r3, #0xC
  000d4	e5832000	 str         r2, [r3]

; 566  :             
; 567  :             return NewNode;

  000d8	e59d3000	 ldr         r3, [sp]
  000dc	e58d3004	 str         r3, [sp, #4]
  000e0	ea000002	 b           |$LN3@Buynode|

; 568  :         }
; 569  :         else

  000e4	ea000001	 b           |$LN1@Buynode|
  000e8		 |$LN2@Buynode|

; 570  :             return NULL;

  000e8	e3a03000	 mov         r3, #0
  000ec	e58d3004	 str         r3, [sp, #4]
  000f0		 |$LN1@Buynode|
  000f0		 |$LN3@Buynode|

; 571  :     }

  000f0	e59d0004	 ldr         r0, [sp, #4]
  000f4	e28dd00c	 add         sp, sp, #0xC
  000f8	e89d6000	 ldmia       sp, {sp, lr}
  000fc	e12fff1e	 bx          lr
  00100		 |$LN10@Buynode|
  00100		 |$LN11@Buynode|
  00100	00000000	 DCD         |??_C@_1LO@JDHEDOPL@?$AA?$AN?$AA?6?$AA?$CK?$AA?$CK?$AA?$CK?$AA?5?$AAA?$AAS?$AAS?$AAE?$AAR?$AAT?$AAI?$AAO?$AAN?$AA?5?$AAF?$AAA?$AAI?$AAL?$AAE?$AAD?$AA?5?$AAi?$AAn?$AA?5?$AAC?$AA?3?$AA?2?$AAW?$AAI?$AAN@|
  00104		 |$LN12@Buynode|
  00104	00000000	 DCD         |??_C@_1LA@EKOJONDG@?$AA?$AN?$AA?6?$AA?$CK?$AA?$CK?$AA?$CK?$AA?5?$AAA?$AAS?$AAS?$AAE?$AAR?$AAT?$AAI?$AAO?$AAN?$AA?5?$AAF?$AAA?$AAI?$AAL?$AAE?$AAD?$AA?5?$AAi?$AAn?$AA?5?$AAC?$AA?3?$AA?2?$AAW?$AAI?$AAN@|
  00108		 |$M37686|

			 ENDP  ; |?_Buynode@?$list@PAVConstraintAdapter@@Vallocator@ce@@@ce@@IAAPAU_Node@12@PAU312@@Z|, ce::list<ConstraintAdapter *,ce::allocator>::_Buynode

; File c:\wince600\public\common\oak\inc\allocator.hxx

  00000			 AREA	 |.pdata|, PDATA
|$T37699| DCD	|$LN5@allocate|
	DCD	0x40000d04
; Function compile flags: /Odtp

  00000			 AREA	 |.text|, CODE, ARM

  00000		 |?allocate@allocator@ce@@QBAPAXI@Z| PROC ; ce::allocator::allocate

; 106  :         {return operator new(Size); }

  00000		 |$LN5@allocate|
  00000	e1a0c00d	 mov         r12, sp
  00004	e92d0003	 stmdb       sp!, {r0, r1}
  00008	e92d5000	 stmdb       sp!, {r12, lr}
  0000c	e24dd008	 sub         sp, sp, #8
  00010		 |$M37696|
  00010	e59d0014	 ldr         r0, [sp, #0x14]
  00014	eb000000	 bl          |??2@YAPAXI@Z|
  00018	e58d0004	 str         r0, [sp, #4]
  0001c	e59d3004	 ldr         r3, [sp, #4]
  00020	e58d3000	 str         r3, [sp]
  00024	e59d0000	 ldr         r0, [sp]
  00028	e28dd008	 add         sp, sp, #8
  0002c	e89d6000	 ldmia       sp, {sp, lr}
  00030	e12fff1e	 bx          lr
  00034		 |$M37697|

			 ENDP  ; |?allocate@allocator@ce@@QBAPAXI@Z|, ce::allocator::allocate

	EXPORT	|??0lock_factory@?$singleton@V?$free_list@$0GE@Vallocator@ce@@@ce@@$03V?$static_allocator@V?$free_list@$0GE@Vallocator@ce@@@ce@@$03@2@@ce@@QAA@XZ| ; ce::singleton<ce::free_list<100,ce::allocator>,4,ce::static_allocator<ce::free_list<100,ce::allocator>,4> >::lock_factory::lock_factory
; File c:\wince600\public\common\oak\inc\singleton.hxx

  00000			 AREA	 |.pdata|, PDATA
|$T37706| DCD	|$LN5@factory|
	DCD	0x40000601
; Function compile flags: /Odtp

  00000			 AREA	 |.text$yc|, CODE, ARM

  00000		 |??__E?_factory@?$singleton@V?$free_list@$0GE@Vallocator@ce@@@ce@@$03V?$static_allocator@V?$free_list@$0GE@Vallocator@ce@@@ce@@$03@2@@ce@@1Ulock_factory@12@A@@YAXXZ| PROC ; `dynamic initializer for 'ce::singleton<ce::free_list<100,ce::allocator>,4,ce::static_allocator<ce::free_list<100,ce::allocator>,4> >::_factory''

; 390  :     {

  00000		 |$LN5@factory|
  00000	e52de004	 str         lr, [sp, #-4]!
  00004		 |$M37703|
  00004	e59f0008	 ldr         r0, [pc, #8]
  00008	eb000000	 bl          |??0lock_factory@?$singleton@V?$free_list@$0GE@Vallocator@ce@@@ce@@$03V?$static_allocator@V?$free_list@$0GE@Vallocator@ce@@@ce@@$03@2@@ce@@QAA@XZ|
  0000c	e49de004	 ldr         lr, [sp], #4
  00010	e12fff1e	 bx          lr
  00014		 |$LN6@factory|
  00014		 |$LN7@factory|
  00014	00000000	 DCD         |?_factory@?$singleton@V?$free_list@$0GE@Vallocator@ce@@@ce@@$03V?$static_allocator@V?$free_list@$0GE@Vallocator@ce@@@ce@@$03@2@@ce@@1Ulock_factory@12@A|
  00018		 |$M37704|

			 ENDP  ; |??__E?_factory@?$singleton@V?$free_list@$0GE@Vallocator@ce@@@ce@@$03V?$static_allocator@V?$free_list@$0GE@Vallocator@ce@@@ce@@$03@2@@ce@@1Ulock_factory@12@A@@YAXXZ|, `dynamic initializer for 'ce::singleton<ce::free_list<100,ce::allocator>,4,ce::static_allocator<ce::free_list<100,ce::allocator>,4> >::_factory''

	EXPORT	|?get_lock@?$singleton@V?$free_list@$0GE@Vallocator@ce@@@ce@@$03V?$static_allocator@V?$free_list@$0GE@Vallocator@ce@@@ce@@$03@2@@ce@@KAAAVcritical_section@2@XZ| ; ce::singleton<ce::free_list<100,ce::allocator>,4,ce::static_allocator<ce::free_list<100,ce::allocator>,4> >::get_lock

  00000			 AREA	 |.pdata|, PDATA
|$T37716| DCD	|$LN5@lock_facto|
	DCD	0x40000b04
; Function compile flags: /Odtp

  00000			 AREA	 |.text|, CODE, ARM

  00000		 |??0lock_factory@?$singleton@V?$free_list@$0GE@Vallocator@ce@@@ce@@$03V?$static_allocator@V?$free_list@$0GE@Vallocator@ce@@@ce@@$03@2@@ce@@QAA@XZ| PROC ; ce::singleton<ce::free_list<100,ce::allocator>,4,ce::static_allocator<ce::free_list<100,ce::allocator>,4> >::lock_factory::lock_factory

; 339  :         lock_factory()

  00000		 |$LN5@lock_facto|
  00000	e1a0c00d	 mov         r12, sp
  00004	e92d0001	 stmdb       sp!, {r0}
  00008	e92d5000	 stmdb       sp!, {r12, lr}
  0000c	e24dd004	 sub         sp, sp, #4
  00010		 |$M37713|
  00010	eb000000	 bl          |?get_lock@?$singleton@V?$free_list@$0GE@Vallocator@ce@@@ce@@$03V?$static_allocator@V?$free_list@$0GE@Vallocator@ce@@@ce@@$03@2@@ce@@KAAAVcritical_section@2@XZ|

; 340  :             {get_lock(); }

  00014	e59d300c	 ldr         r3, [sp, #0xC]
  00018	e58d3000	 str         r3, [sp]
  0001c	e59d0000	 ldr         r0, [sp]
  00020	e28dd004	 add         sp, sp, #4
  00024	e89d6000	 ldmia       sp, {sp, lr}
  00028	e12fff1e	 bx          lr
  0002c		 |$M37714|

			 ENDP  ; |??0lock_factory@?$singleton@V?$free_list@$0GE@Vallocator@ce@@@ce@@$03V?$static_allocator@V?$free_list@$0GE@Vallocator@ce@@@ce@@$03@2@@ce@@QAA@XZ|, ce::singleton<ce::free_list<100,ce::allocator>,4,ce::static_allocator<ce::free_list<100,ce::allocator>,4> >::lock_factory::lock_factory

	EXPORT	|??__Fcs@?1??get_lock@?$singleton@V?$free_list@$0GE@Vallocator@ce@@@ce@@$03V?$static_allocator@V?$free_list@$0GE@Vallocator@ce@@@ce@@$03@2@@ce@@KAAAVcritical_section@2@XZ@YAXXZ| ; `ce::singleton<ce::free_list<100,ce::allocator>,4,ce::static_allocator<ce::free_list<100,ce::allocator>,4> >::get_lock'::`2'::`dynamic atexit destructor for 'cs''
	EXPORT	|??0critical_section@ce@@QAA@XZ|	; ce::critical_section::critical_section
	EXPORT	|?cs@?1??get_lock@?$singleton@V?$free_list@$0GE@Vallocator@ce@@@ce@@$03V?$static_allocator@V?$free_list@$0GE@Vallocator@ce@@@ce@@$03@2@@ce@@KAAAVcritical_section@3@XZ@4V43@A| [ DATA ] ; `ce::singleton<ce::free_list<100,ce::allocator>,4,ce::static_allocator<ce::free_list<100,ce::allocator>,4> >::get_lock'::`2'::cs
	EXPORT	|??_B?1??get_lock@?$singleton@V?$free_list@$0GE@Vallocator@ce@@@ce@@$03V?$static_allocator@V?$free_list@$0GE@Vallocator@ce@@@ce@@$03@2@@ce@@KAAAVcritical_section@2@XZ@51| [ DATA ] ; `ce::singleton<ce::free_list<100,ce::allocator>,4,ce::static_allocator<ce::free_list<100,ce::allocator>,4> >::get_lock'::`2'::`local static guard'
	IMPORT	|atexit|

  00000			 AREA	 |.bss|, NOINIT
|?cs@?1??get_lock@?$singleton@V?$free_list@$0GE@Vallocator@ce@@@ce@@$03V?$static_allocator@V?$free_list@$0GE@Vallocator@ce@@@ce@@$03@2@@ce@@KAAAVcritical_section@3@XZ@4V43@A| % 0x14 ; `ce::singleton<ce::free_list<100,ce::allocator>,4,ce::static_allocator<ce::free_list<100,ce::allocator>,4> >::get_lock'::`2'::cs

  00000			 AREA	 |.bss|, NOINIT
|??_B?1??get_lock@?$singleton@V?$free_list@$0GE@Vallocator@ce@@@ce@@$03V?$static_allocator@V?$free_list@$0GE@Vallocator@ce@@@ce@@$03@2@@ce@@KAAAVcritical_section@2@XZ@51| % 0x4 ; `ce::singleton<ce::free_list<100,ce::allocator>,4,ce::static_allocator<ce::free_list<100,ce::allocator>,4> >::get_lock'::`2'::`local static guard'

  00000			 AREA	 |.pdata|, PDATA
|$T37724| DCD	|$LN6@get_lock|
	DCD	0x40001b02
; Function compile flags: /Odtp

  00000			 AREA	 |.text|, CODE, ARM

  00000		 |?get_lock@?$singleton@V?$free_list@$0GE@Vallocator@ce@@@ce@@$03V?$static_allocator@V?$free_list@$0GE@Vallocator@ce@@@ce@@$03@2@@ce@@KAAAVcritical_section@2@XZ| PROC ; ce::singleton<ce::free_list<100,ce::allocator>,4,ce::static_allocator<ce::free_list<100,ce::allocator>,4> >::get_lock

; 320  :     {

  00000		 |$LN6@get_lock|
  00000	e52de004	 str         lr, [sp, #-4]!
  00004	e24dd008	 sub         sp, sp, #8
  00008		 |$M37721|

; 321  :         static critical_section cs;

  00008	e59f3058	 ldr         r3, [pc, #0x58]
  0000c	e5933000	 ldr         r3, [r3]
  00010	e3130001	 tst         r3, #1
  00014	1a000008	 bne         |$LN1@get_lock|
  00018	e59f3048	 ldr         r3, [pc, #0x48]
  0001c	e5933000	 ldr         r3, [r3]
  00020	e3832001	 orr         r2, r3, #1
  00024	e59f303c	 ldr         r3, [pc, #0x3C]
  00028	e5832000	 str         r2, [r3]
  0002c	e59f0028	 ldr         r0, [pc, #0x28]
  00030	eb000000	 bl          |??0critical_section@ce@@QAA@XZ|
  00034	e59f0028	 ldr         r0, [pc, #0x28]
  00038	eb000000	 bl          atexit
  0003c		 |$LN1@get_lock|

; 322  :         
; 323  :         //
; 324  :         // This statement forces compiler to instantiate _factory member
; 325  :         // thus assuring that lock_factory ctor is called. 
; 326  :         //
; 327  :         lock_factory* volatile p = &_factory;

  0003c	e59f301c	 ldr         r3, [pc, #0x1C]
  00040	e58d3000	 str         r3, [sp]

; 328  : 
; 329  :         return cs;

  00044	e59f3010	 ldr         r3, [pc, #0x10]
  00048	e58d3004	 str         r3, [sp, #4]

; 330  :     }

  0004c	e59d0004	 ldr         r0, [sp, #4]
  00050	e28dd008	 add         sp, sp, #8
  00054	e49de004	 ldr         lr, [sp], #4
  00058	e12fff1e	 bx          lr
  0005c		 |$LN7@get_lock|
  0005c		 |$LN8@get_lock|
  0005c	00000000	 DCD         |?cs@?1??get_lock@?$singleton@V?$free_list@$0GE@Vallocator@ce@@@ce@@$03V?$static_allocator@V?$free_list@$0GE@Vallocator@ce@@@ce@@$03@2@@ce@@KAAAVcritical_section@3@XZ@4V43@A|
  00060		 |$LN9@get_lock|
  00060	00000000	 DCD         |?_factory@?$singleton@V?$free_list@$0GE@Vallocator@ce@@@ce@@$03V?$static_allocator@V?$free_list@$0GE@Vallocator@ce@@@ce@@$03@2@@ce@@1Ulock_factory@12@A|
  00064		 |$LN10@get_lock|
  00064	00000000	 DCD         |??__Fcs@?1??get_lock@?$singleton@V?$free_list@$0GE@Vallocator@ce@@@ce@@$03V?$static_allocator@V?$free_list@$0GE@Vallocator@ce@@@ce@@$03@2@@ce@@KAAAVcritical_section@2@XZ@YAXXZ|
  00068		 |$LN11@get_lock|
  00068	00000000	 DCD         |??_B?1??get_lock@?$singleton@V?$free_list@$0GE@Vallocator@ce@@@ce@@$03V?$static_allocator@V?$free_list@$0GE@Vallocator@ce@@@ce@@$03@2@@ce@@KAAAVcritical_section@2@XZ@51|
  0006c		 |$M37722|

			 ENDP  ; |?get_lock@?$singleton@V?$free_list@$0GE@Vallocator@ce@@@ce@@$03V?$static_allocator@V?$free_list@$0GE@Vallocator@ce@@@ce@@$03@2@@ce@@KAAAVcritical_section@2@XZ|, ce::singleton<ce::free_list<100,ce::allocator>,4,ce::static_allocator<ce::free_list<100,ce::allocator>,4> >::get_lock

	IMPORT	|InitializeCriticalSection|
; File c:\wince600\public\common\oak\inc\sync.hxx

  00000			 AREA	 |.pdata|, PDATA
|$T37737| DCD	|$LN5@critical_s|
	DCD	0x40000c04
; Function compile flags: /Odtp

  00000			 AREA	 |.text|, CODE, ARM

  00000		 |??0critical_section@ce@@QAA@XZ| PROC	; ce::critical_section::critical_section

; 125  :     critical_section()

  00000		 |$LN5@critical_s|
  00000	e1a0c00d	 mov         r12, sp
  00004	e92d0001	 stmdb       sp!, {r0}
  00008	e92d5000	 stmdb       sp!, {r12, lr}
  0000c	e24dd004	 sub         sp, sp, #4
  00010		 |$M37734|
  00010	e59d000c	 ldr         r0, [sp, #0xC]
  00014	eb000000	 bl          InitializeCriticalSection
  00018	e59d300c	 ldr         r3, [sp, #0xC]
  0001c	e58d3000	 str         r3, [sp]
  00020	e59d0000	 ldr         r0, [sp]
  00024	e28dd004	 add         sp, sp, #4
  00028	e89d6000	 ldmia       sp, {sp, lr}
  0002c	e12fff1e	 bx          lr
  00030		 |$M37735|

			 ENDP  ; |??0critical_section@ce@@QAA@XZ|, ce::critical_section::critical_section

	EXPORT	|??1critical_section@ce@@QAA@XZ|	; ce::critical_section::~critical_section

  00000			 AREA	 |.pdata|, PDATA
|$T37744| DCD	|$LN5@dynamic|
	DCD	0x40000601
; Function compile flags: /Odtp

  00000			 AREA	 |.text$yd|, CODE, ARM

  00000		 |??__Fcs@?1??get_lock@?$singleton@V?$free_list@$0GE@Vallocator@ce@@@ce@@$03V?$static_allocator@V?$free_list@$0GE@Vallocator@ce@@@ce@@$03@2@@ce@@KAAAVcritical_section@2@XZ@YAXXZ| PROC ; `ce::singleton<ce::free_list<100,ce::allocator>,4,ce::static_allocator<ce::free_list<100,ce::allocator>,4> >::get_lock'::`2'::`dynamic atexit destructor for 'cs''
  00000		 |$LN5@dynamic|
  00000	e52de004	 str         lr, [sp, #-4]!
  00004		 |$M37741|
  00004	e59f0008	 ldr         r0, [pc, #8]
  00008	eb000000	 bl          |??1critical_section@ce@@QAA@XZ|
  0000c	e49de004	 ldr         lr, [sp], #4
  00010	e12fff1e	 bx          lr
  00014		 |$LN6@dynamic|
  00014		 |$LN7@dynamic|
  00014	00000000	 DCD         |?cs@?1??get_lock@?$singleton@V?$free_list@$0GE@Vallocator@ce@@@ce@@$03V?$static_allocator@V?$free_list@$0GE@Vallocator@ce@@@ce@@$03@2@@ce@@KAAAVcritical_section@3@XZ@4V43@A|
  00018		 |$M37742|

			 ENDP  ; |??__Fcs@?1??get_lock@?$singleton@V?$free_list@$0GE@Vallocator@ce@@@ce@@$03V?$static_allocator@V?$free_list@$0GE@Vallocator@ce@@@ce@@$03@2@@ce@@KAAAVcritical_section@2@XZ@YAXXZ|, `ce::singleton<ce::free_list<100,ce::allocator>,4,ce::static_allocator<ce::free_list<100,ce::allocator>,4> >::get_lock'::`2'::`dynamic atexit destructor for 'cs''

	IMPORT	|DeleteCriticalSection|

  00000			 AREA	 |.pdata|, PDATA
|$T37753| DCD	|$LN5@critical_s@2|
	DCD	0x40000703
; Function compile flags: /Odtp

  00000			 AREA	 |.text|, CODE, ARM

  00000		 |??1critical_section@ce@@QAA@XZ| PROC	; ce::critical_section::~critical_section

; 129  :         {DeleteCriticalSection(this); }

  00000		 |$LN5@critical_s@2|
  00000	e1a0c00d	 mov         r12, sp
  00004	e92d0001	 stmdb       sp!, {r0}
  00008	e92d5000	 stmdb       sp!, {r12, lr}
  0000c		 |$M37750|
  0000c	e59d0008	 ldr         r0, [sp, #8]
  00010	eb000000	 bl          DeleteCriticalSection
  00014	e89d6000	 ldmia       sp, {sp, lr}
  00018	e12fff1e	 bx          lr
  0001c		 |$M37751|

			 ENDP  ; |??1critical_section@ce@@QAA@XZ|, ce::critical_section::~critical_section

	EXPORT	|?_factory@?$singleton@V?$free_list@$0GE@Vallocator@ce@@@ce@@$03V?$static_allocator@V?$free_list@$0GE@Vallocator@ce@@@ce@@$03@2@@ce@@1Ulock_factory@12@A| [ DATA ] ; ce::singleton<ce::free_list<100,ce::allocator>,4,ce::static_allocator<ce::free_list<100,ce::allocator>,4> >::_factory

  00000			 AREA	 |.bss|, NOINIT
|?_factory@?$singleton@V?$free_list@$0GE@Vallocator@ce@@@ce@@$03V?$static_allocator@V?$free_list@$0GE@Vallocator@ce@@@ce@@$03@2@@ce@@1Ulock_factory@12@A| % 0x1 ; ce::singleton<ce::free_list<100,ce::allocator>,4,ce::static_allocator<ce::free_list<100,ce::allocator>,4> >::_factory

  00000			 AREA	 |.CRT$XCU|, DATA
|?_factory$initializer$@?$singleton@V?$free_list@$0GE@Vallocator@ce@@@ce@@$03V?$static_allocator@V?$free_list@$0GE@Vallocator@ce@@@ce@@$03@2@@ce@@1P6AXXZA| DCD |??__E?_factory@?$singleton@V?$free_list@$0GE@Vallocator@ce@@@ce@@$03V?$static_allocator@V?$free_list@$0GE@Vallocator@ce@@@ce@@$03@2@@ce@@1Ulock_factory@12@A@@YAXXZ| ; ce::singleton<ce::free_list<100,ce::allocator>,4,ce::static_allocator<ce::free_list<100,ce::allocator>,4> >::_factory$initializer$
	END
