; Listing generated by Microsoft (R) Optimizing Compiler Version 14.01.60511.01 

	TTL	C:\WINCE600\PLATFORM\COMMON\SRC\SOC\COMMON_TI_V1\COMMON_TI\MCBSP\mcbspprofile.cpp
	CODE32

  00000			 AREA	 |.drectve|, DRECTVE
	DCB	"-defaultlib:LIBCMT "
	DCB	"-defaultlib:OLDNAMES "

	EXPORT	|??_C@_1BE@LFFACMJN@?$AAM?$AAC?$AAP?$AA?3?$AA?9?$AA?$CF?$AAS?$AA?$AN?$AA?6?$AA?$AA@| [ DATA ] ; `string'
	EXPORT	|??_C@_1BE@FKGNIJHN@?$AAM?$AAC?$AAP?$AA?3?$AA?$CL?$AA?$CF?$AAS?$AA?$AN?$AA?6?$AA?$AA@| [ DATA ] ; `string'
	EXPORT	|??_C@_0BL@DHLNOEGM@McbspProfile_t?3?3Initialize?$AA@| [ DATA ] ; `string'
	EXPORT	|?Initialize@McbspProfile_t@@UAAXXZ|	; McbspProfile_t::Initialize
	IMPORT	|mcbsp_ConfigCommonRegisters|
	IMPORT	|NKDbgPrintfW|
	IMPORT	|dpCurSettings|

  00000			 AREA	 |.pdata|, PDATA
|$T36505| DCD	|$LN9@Initialize|
	DCD	0x40002704
; File c:\wince600\platform\common\src\soc\common_ti_v1\common_ti\mcbsp\mcbspprofile.cpp

  00000			 AREA	 |.rdata|, DATA, READONLY
|??_C@_1BE@LFFACMJN@?$AAM?$AAC?$AAP?$AA?3?$AA?9?$AA?$CF?$AAS?$AA?$AN?$AA?6?$AA?$AA@| DCB "M"
	DCB	0x0, "C", 0x0, "P", 0x0, ":", 0x0, "-", 0x0, "%", 0x0, "S"
	DCB	0x0, 0xd, 0x0, 0xa, 0x0, 0x0, 0x0	; `string'

  00000			 AREA	 |.rdata|, DATA, READONLY
|??_C@_1BE@FKGNIJHN@?$AAM?$AAC?$AAP?$AA?3?$AA?$CL?$AA?$CF?$AAS?$AA?$AN?$AA?6?$AA?$AA@| DCB "M"
	DCB	0x0, "C", 0x0, "P", 0x0, ":", 0x0, "+", 0x0, "%", 0x0, "S"
	DCB	0x0, 0xd, 0x0, 0xa, 0x0, 0x0, 0x0	; `string'

  00000			 AREA	 |.rdata|, DATA, READONLY
|??_C@_0BL@DHLNOEGM@McbspProfile_t?3?3Initialize?$AA@| DCB "McbspProfile_"
	DCB	"t::Initialize", 0x0			; `string'
; Function compile flags: /Odtp

  00000			 AREA	 |.text|, CODE, ARM

  00000		 |?Initialize@McbspProfile_t@@UAAXXZ| PROC ; McbspProfile_t::Initialize

; 41   : {

  00000		 |$LN9@Initialize|
  00000	e1a0c00d	 mov         r12, sp
  00004	e92d0001	 stmdb       sp!, {r0}
  00008	e92d5000	 stmdb       sp!, {r12, lr}
  0000c	e24dd008	 sub         sp, sp, #8
  00010		 |$M36502|

; 42   :     DEBUGMSG(ZONE_FUNCTION, (L"MCP:+%S\r\n", __FUNCTION__));

  00010	e59f307c	 ldr         r3, [pc, #0x7C]
  00014	e5933440	 ldr         r3, [r3, #0x440]
  00018	e3130004	 tst         r3, #4
  0001c	0a000005	 beq         |$LN3@Initialize|
  00020	e59f1068	 ldr         r1, [pc, #0x68]
  00024	e59f006c	 ldr         r0, [pc, #0x6C]
  00028	eb000000	 bl          NKDbgPrintfW
  0002c	e3a03001	 mov         r3, #1
  00030	e58d3000	 str         r3, [sp]
  00034	ea000001	 b           |$LN4@Initialize|
  00038		 |$LN3@Initialize|
  00038	e3a03000	 mov         r3, #0
  0003c	e58d3000	 str         r3, [sp]
  00040		 |$LN4@Initialize|

; 43   : 
; 44   :     mcbsp_ConfigCommonRegisters(m_pDevice);

  00040	e59d3010	 ldr         r3, [sp, #0x10]
  00044	e2833004	 add         r3, r3, #4
  00048	e5930000	 ldr         r0, [r3]
  0004c	eb000000	 bl          mcbsp_ConfigCommonRegisters

; 45   : 
; 46   :     DEBUGMSG(ZONE_FUNCTION, (L"MCP:-%S\r\n", __FUNCTION__));

  00050	e59f303c	 ldr         r3, [pc, #0x3C]
  00054	e5933440	 ldr         r3, [r3, #0x440]
  00058	e3130004	 tst         r3, #4
  0005c	0a000005	 beq         |$LN5@Initialize|
  00060	e59f1028	 ldr         r1, [pc, #0x28]
  00064	e59f0020	 ldr         r0, [pc, #0x20]
  00068	eb000000	 bl          NKDbgPrintfW
  0006c	e3a03001	 mov         r3, #1
  00070	e58d3004	 str         r3, [sp, #4]
  00074	ea000001	 b           |$LN6@Initialize|
  00078		 |$LN5@Initialize|
  00078	e3a03000	 mov         r3, #0
  0007c	e58d3004	 str         r3, [sp, #4]
  00080		 |$LN6@Initialize|

; 47   : }

  00080	e28dd008	 add         sp, sp, #8
  00084	e89d6000	 ldmia       sp, {sp, lr}
  00088	e12fff1e	 bx          lr
  0008c		 |$LN10@Initialize|
  0008c		 |$LN11@Initialize|
  0008c	00000000	 DCD         |??_C@_1BE@LFFACMJN@?$AAM?$AAC?$AAP?$AA?3?$AA?9?$AA?$CF?$AAS?$AA?$AN?$AA?6?$AA?$AA@|
  00090		 |$LN12@Initialize|
  00090	00000000	 DCD         |??_C@_0BL@DHLNOEGM@McbspProfile_t?3?3Initialize?$AA@|
  00094		 |$LN13@Initialize|
  00094	00000000	 DCD         |dpCurSettings|
  00098		 |$LN14@Initialize|
  00098	00000000	 DCD         |??_C@_1BE@FKGNIJHN@?$AAM?$AAC?$AAP?$AA?3?$AA?$CL?$AA?$CF?$AAS?$AA?$AN?$AA?6?$AA?$AA@|
  0009c		 |$M36503|

			 ENDP  ; |?Initialize@McbspProfile_t@@UAAXXZ|, McbspProfile_t::Initialize

	EXPORT	|??_C@_0BP@MLFBMHIF@McbspProfile_t?3?3ContextRestore?$AA@| [ DATA ] ; `string'
	EXPORT	|?ContextRestore@McbspProfile_t@@UAAXXZ| ; McbspProfile_t::ContextRestore
	IMPORT	|mcbsp_UpdateRegisters|

  00008			 AREA	 |.pdata|, PDATA
|$T36519| DCD	|$LN9@ContextRes|
	DCD	0x40002704

  00000			 AREA	 |.rdata|, DATA, READONLY
|??_C@_0BP@MLFBMHIF@McbspProfile_t?3?3ContextRestore?$AA@| DCB "McbspProf"
	DCB	"ile_t::ContextRestore", 0x0		; `string'
; Function compile flags: /Odtp

  0009c			 AREA	 |.text|, CODE, ARM

  0009c		 |?ContextRestore@McbspProfile_t@@UAAXXZ| PROC ; McbspProfile_t::ContextRestore

; 56   : {

  0009c		 |$LN9@ContextRes|
  0009c	e1a0c00d	 mov         r12, sp
  000a0	e92d0001	 stmdb       sp!, {r0}
  000a4	e92d5000	 stmdb       sp!, {r12, lr}
  000a8	e24dd008	 sub         sp, sp, #8
  000ac		 |$M36516|

; 57   :     DEBUGMSG(ZONE_FUNCTION, (L"MCP:+%S\r\n", __FUNCTION__));

  000ac	e59f307c	 ldr         r3, [pc, #0x7C]
  000b0	e5933440	 ldr         r3, [r3, #0x440]
  000b4	e3130004	 tst         r3, #4
  000b8	0a000005	 beq         |$LN3@ContextRes|
  000bc	e59f1068	 ldr         r1, [pc, #0x68]
  000c0	e59f006c	 ldr         r0, [pc, #0x6C]
  000c4	eb000000	 bl          NKDbgPrintfW
  000c8	e3a03001	 mov         r3, #1
  000cc	e58d3000	 str         r3, [sp]
  000d0	ea000001	 b           |$LN4@ContextRes|
  000d4		 |$LN3@ContextRes|
  000d4	e3a03000	 mov         r3, #0
  000d8	e58d3000	 str         r3, [sp]
  000dc		 |$LN4@ContextRes|

; 58   : 
; 59   :     mcbsp_UpdateRegisters(m_pDevice);

  000dc	e59d3010	 ldr         r3, [sp, #0x10]
  000e0	e2833004	 add         r3, r3, #4
  000e4	e5930000	 ldr         r0, [r3]
  000e8	eb000000	 bl          mcbsp_UpdateRegisters

; 60   : 
; 61   :     DEBUGMSG(ZONE_FUNCTION, (L"MCP:-%S\r\n", __FUNCTION__));

  000ec	e59f303c	 ldr         r3, [pc, #0x3C]
  000f0	e5933440	 ldr         r3, [r3, #0x440]
  000f4	e3130004	 tst         r3, #4
  000f8	0a000005	 beq         |$LN5@ContextRes|
  000fc	e59f1028	 ldr         r1, [pc, #0x28]
  00100	e59f0020	 ldr         r0, [pc, #0x20]
  00104	eb000000	 bl          NKDbgPrintfW
  00108	e3a03001	 mov         r3, #1
  0010c	e58d3004	 str         r3, [sp, #4]
  00110	ea000001	 b           |$LN6@ContextRes|
  00114		 |$LN5@ContextRes|
  00114	e3a03000	 mov         r3, #0
  00118	e58d3004	 str         r3, [sp, #4]
  0011c		 |$LN6@ContextRes|

; 62   : }

  0011c	e28dd008	 add         sp, sp, #8
  00120	e89d6000	 ldmia       sp, {sp, lr}
  00124	e12fff1e	 bx          lr
  00128		 |$LN10@ContextRes|
  00128		 |$LN11@ContextRes|
  00128	00000000	 DCD         |??_C@_1BE@LFFACMJN@?$AAM?$AAC?$AAP?$AA?3?$AA?9?$AA?$CF?$AAS?$AA?$AN?$AA?6?$AA?$AA@|
  0012c		 |$LN12@ContextRes|
  0012c	00000000	 DCD         |??_C@_0BP@MLFBMHIF@McbspProfile_t?3?3ContextRestore?$AA@|
  00130		 |$LN13@ContextRes|
  00130	00000000	 DCD         |dpCurSettings|
  00134		 |$LN14@ContextRes|
  00134	00000000	 DCD         |??_C@_1BE@FKGNIJHN@?$AAM?$AAC?$AAP?$AA?3?$AA?$CL?$AA?$CF?$AAS?$AA?$AN?$AA?6?$AA?$AA@|
  00138		 |$M36517|

			 ENDP  ; |?ContextRestore@McbspProfile_t@@UAAXXZ|, McbspProfile_t::ContextRestore

	EXPORT	|??_C@_0CK@PIEGDDNN@McbspProfile_t?3?3EnableSampleRate@| [ DATA ] ; `string'
	EXPORT	|?EnableSampleRateGenerator@McbspProfile_t@@UAAXXZ| ; McbspProfile_t::EnableSampleRateGenerator
	IMPORT	|mcbsp_EnableSampleRateGenerator|

  00010			 AREA	 |.pdata|, PDATA
|$T36533| DCD	|$LN9@EnableSamp|
	DCD	0x40002704

  00000			 AREA	 |.rdata|, DATA, READONLY
|??_C@_0CK@PIEGDDNN@McbspProfile_t?3?3EnableSampleRate@| DCB "McbspProfil"
	DCB	"e_t::EnableSampleRateGenerator", 0x0	; `string'
; Function compile flags: /Odtp

  00138			 AREA	 |.text|, CODE, ARM

  00138		 |?EnableSampleRateGenerator@McbspProfile_t@@UAAXXZ| PROC ; McbspProfile_t::EnableSampleRateGenerator

; 72   : {

  00138		 |$LN9@EnableSamp|
  00138	e1a0c00d	 mov         r12, sp
  0013c	e92d0001	 stmdb       sp!, {r0}
  00140	e92d5000	 stmdb       sp!, {r12, lr}
  00144	e24dd008	 sub         sp, sp, #8
  00148		 |$M36530|

; 73   :     DEBUGMSG(ZONE_FUNCTION, (L"MCP:+%S\r\n", __FUNCTION__));

  00148	e59f307c	 ldr         r3, [pc, #0x7C]
  0014c	e5933440	 ldr         r3, [r3, #0x440]
  00150	e3130004	 tst         r3, #4
  00154	0a000005	 beq         |$LN3@EnableSamp|
  00158	e59f1068	 ldr         r1, [pc, #0x68]
  0015c	e59f006c	 ldr         r0, [pc, #0x6C]
  00160	eb000000	 bl          NKDbgPrintfW
  00164	e3a03001	 mov         r3, #1
  00168	e58d3000	 str         r3, [sp]
  0016c	ea000001	 b           |$LN4@EnableSamp|
  00170		 |$LN3@EnableSamp|
  00170	e3a03000	 mov         r3, #0
  00174	e58d3000	 str         r3, [sp]
  00178		 |$LN4@EnableSamp|

; 74   : 
; 75   :     mcbsp_EnableSampleRateGenerator(m_pDevice);

  00178	e59d3010	 ldr         r3, [sp, #0x10]
  0017c	e2833004	 add         r3, r3, #4
  00180	e5930000	 ldr         r0, [r3]
  00184	eb000000	 bl          mcbsp_EnableSampleRateGenerator

; 76   : 
; 77   :     DEBUGMSG(ZONE_FUNCTION, (L"MCP:-%S\r\n", __FUNCTION__));

  00188	e59f303c	 ldr         r3, [pc, #0x3C]
  0018c	e5933440	 ldr         r3, [r3, #0x440]
  00190	e3130004	 tst         r3, #4
  00194	0a000005	 beq         |$LN5@EnableSamp|
  00198	e59f1028	 ldr         r1, [pc, #0x28]
  0019c	e59f0020	 ldr         r0, [pc, #0x20]
  001a0	eb000000	 bl          NKDbgPrintfW
  001a4	e3a03001	 mov         r3, #1
  001a8	e58d3004	 str         r3, [sp, #4]
  001ac	ea000001	 b           |$LN6@EnableSamp|
  001b0		 |$LN5@EnableSamp|
  001b0	e3a03000	 mov         r3, #0
  001b4	e58d3004	 str         r3, [sp, #4]
  001b8		 |$LN6@EnableSamp|

; 78   : }

  001b8	e28dd008	 add         sp, sp, #8
  001bc	e89d6000	 ldmia       sp, {sp, lr}
  001c0	e12fff1e	 bx          lr
  001c4		 |$LN10@EnableSamp|
  001c4		 |$LN11@EnableSamp|
  001c4	00000000	 DCD         |??_C@_1BE@LFFACMJN@?$AAM?$AAC?$AAP?$AA?3?$AA?9?$AA?$CF?$AAS?$AA?$AN?$AA?6?$AA?$AA@|
  001c8		 |$LN12@EnableSamp|
  001c8	00000000	 DCD         |??_C@_0CK@PIEGDDNN@McbspProfile_t?3?3EnableSampleRate@|
  001cc		 |$LN13@EnableSamp|
  001cc	00000000	 DCD         |dpCurSettings|
  001d0		 |$LN14@EnableSamp|
  001d0	00000000	 DCD         |??_C@_1BE@FKGNIJHN@?$AAM?$AAC?$AAP?$AA?3?$AA?$CL?$AA?$CF?$AAS?$AA?$AN?$AA?6?$AA?$AA@|
  001d4		 |$M36531|

			 ENDP  ; |?EnableSampleRateGenerator@McbspProfile_t@@UAAXXZ|, McbspProfile_t::EnableSampleRateGenerator

	EXPORT	|??_C@_0CC@JHLGLLLD@McbspProfile_t?3?3EnableTransmitte@| [ DATA ] ; `string'
	EXPORT	|?EnableTransmitter@McbspProfile_t@@UAAXXZ| ; McbspProfile_t::EnableTransmitter
	IMPORT	|mcbsp_EnableTransmitter|

  00018			 AREA	 |.pdata|, PDATA
|$T36547| DCD	|$LN9@EnableTran|
	DCD	0x40002704

  00000			 AREA	 |.rdata|, DATA, READONLY
|??_C@_0CC@JHLGLLLD@McbspProfile_t?3?3EnableTransmitte@| DCB "McbspProfil"
	DCB	"e_t::EnableTransmitter", 0x0		; `string'
; Function compile flags: /Odtp

  001d4			 AREA	 |.text|, CODE, ARM

  001d4		 |?EnableTransmitter@McbspProfile_t@@UAAXXZ| PROC ; McbspProfile_t::EnableTransmitter

; 87   : {

  001d4		 |$LN9@EnableTran|
  001d4	e1a0c00d	 mov         r12, sp
  001d8	e92d0001	 stmdb       sp!, {r0}
  001dc	e92d5000	 stmdb       sp!, {r12, lr}
  001e0	e24dd008	 sub         sp, sp, #8
  001e4		 |$M36544|

; 88   :     DEBUGMSG(ZONE_FUNCTION, (L"MCP:+%S\r\n", __FUNCTION__));

  001e4	e59f307c	 ldr         r3, [pc, #0x7C]
  001e8	e5933440	 ldr         r3, [r3, #0x440]
  001ec	e3130004	 tst         r3, #4
  001f0	0a000005	 beq         |$LN3@EnableTran|
  001f4	e59f1068	 ldr         r1, [pc, #0x68]
  001f8	e59f006c	 ldr         r0, [pc, #0x6C]
  001fc	eb000000	 bl          NKDbgPrintfW
  00200	e3a03001	 mov         r3, #1
  00204	e58d3000	 str         r3, [sp]
  00208	ea000001	 b           |$LN4@EnableTran|
  0020c		 |$LN3@EnableTran|
  0020c	e3a03000	 mov         r3, #0
  00210	e58d3000	 str         r3, [sp]
  00214		 |$LN4@EnableTran|

; 89   : 
; 90   :     mcbsp_EnableTransmitter(m_pDevice);

  00214	e59d3010	 ldr         r3, [sp, #0x10]
  00218	e2833004	 add         r3, r3, #4
  0021c	e5930000	 ldr         r0, [r3]
  00220	eb000000	 bl          mcbsp_EnableTransmitter

; 91   : 
; 92   :     DEBUGMSG(ZONE_FUNCTION, (L"MCP:-%S\r\n", __FUNCTION__));

  00224	e59f303c	 ldr         r3, [pc, #0x3C]
  00228	e5933440	 ldr         r3, [r3, #0x440]
  0022c	e3130004	 tst         r3, #4
  00230	0a000005	 beq         |$LN5@EnableTran|
  00234	e59f1028	 ldr         r1, [pc, #0x28]
  00238	e59f0020	 ldr         r0, [pc, #0x20]
  0023c	eb000000	 bl          NKDbgPrintfW
  00240	e3a03001	 mov         r3, #1
  00244	e58d3004	 str         r3, [sp, #4]
  00248	ea000001	 b           |$LN6@EnableTran|
  0024c		 |$LN5@EnableTran|
  0024c	e3a03000	 mov         r3, #0
  00250	e58d3004	 str         r3, [sp, #4]
  00254		 |$LN6@EnableTran|

; 93   : }

  00254	e28dd008	 add         sp, sp, #8
  00258	e89d6000	 ldmia       sp, {sp, lr}
  0025c	e12fff1e	 bx          lr
  00260		 |$LN10@EnableTran|
  00260		 |$LN11@EnableTran|
  00260	00000000	 DCD         |??_C@_1BE@LFFACMJN@?$AAM?$AAC?$AAP?$AA?3?$AA?9?$AA?$CF?$AAS?$AA?$AN?$AA?6?$AA?$AA@|
  00264		 |$LN12@EnableTran|
  00264	00000000	 DCD         |??_C@_0CC@JHLGLLLD@McbspProfile_t?3?3EnableTransmitte@|
  00268		 |$LN13@EnableTran|
  00268	00000000	 DCD         |dpCurSettings|
  0026c		 |$LN14@EnableTran|
  0026c	00000000	 DCD         |??_C@_1BE@FKGNIJHN@?$AAM?$AAC?$AAP?$AA?3?$AA?$CL?$AA?$CF?$AAS?$AA?$AN?$AA?6?$AA?$AA@|
  00270		 |$M36545|

			 ENDP  ; |?EnableTransmitter@McbspProfile_t@@UAAXXZ|, McbspProfile_t::EnableTransmitter

	EXPORT	|??_C@_0BP@HINLFEEB@McbspProfile_t?3?3EnableReceiver?$AA@| [ DATA ] ; `string'
	EXPORT	|?EnableReceiver@McbspProfile_t@@UAAXXZ| ; McbspProfile_t::EnableReceiver
	IMPORT	|mcbsp_EnableReceiver|

  00020			 AREA	 |.pdata|, PDATA
|$T36561| DCD	|$LN9@EnableRece|
	DCD	0x40002704

  00000			 AREA	 |.rdata|, DATA, READONLY
|??_C@_0BP@HINLFEEB@McbspProfile_t?3?3EnableReceiver?$AA@| DCB "McbspProf"
	DCB	"ile_t::EnableReceiver", 0x0		; `string'
; Function compile flags: /Odtp

  00270			 AREA	 |.text|, CODE, ARM

  00270		 |?EnableReceiver@McbspProfile_t@@UAAXXZ| PROC ; McbspProfile_t::EnableReceiver

; 103  : {

  00270		 |$LN9@EnableRece|
  00270	e1a0c00d	 mov         r12, sp
  00274	e92d0001	 stmdb       sp!, {r0}
  00278	e92d5000	 stmdb       sp!, {r12, lr}
  0027c	e24dd008	 sub         sp, sp, #8
  00280		 |$M36558|

; 104  :     DEBUGMSG(ZONE_FUNCTION, (L"MCP:+%S\r\n", __FUNCTION__));

  00280	e59f307c	 ldr         r3, [pc, #0x7C]
  00284	e5933440	 ldr         r3, [r3, #0x440]
  00288	e3130004	 tst         r3, #4
  0028c	0a000005	 beq         |$LN3@EnableRece|
  00290	e59f1068	 ldr         r1, [pc, #0x68]
  00294	e59f006c	 ldr         r0, [pc, #0x6C]
  00298	eb000000	 bl          NKDbgPrintfW
  0029c	e3a03001	 mov         r3, #1
  002a0	e58d3000	 str         r3, [sp]
  002a4	ea000001	 b           |$LN4@EnableRece|
  002a8		 |$LN3@EnableRece|
  002a8	e3a03000	 mov         r3, #0
  002ac	e58d3000	 str         r3, [sp]
  002b0		 |$LN4@EnableRece|

; 105  : 
; 106  :     mcbsp_EnableReceiver(m_pDevice);

  002b0	e59d3010	 ldr         r3, [sp, #0x10]
  002b4	e2833004	 add         r3, r3, #4
  002b8	e5930000	 ldr         r0, [r3]
  002bc	eb000000	 bl          mcbsp_EnableReceiver

; 107  : 
; 108  :     DEBUGMSG(ZONE_FUNCTION, (L"MCP:-%S\r\n", __FUNCTION__));

  002c0	e59f303c	 ldr         r3, [pc, #0x3C]
  002c4	e5933440	 ldr         r3, [r3, #0x440]
  002c8	e3130004	 tst         r3, #4
  002cc	0a000005	 beq         |$LN5@EnableRece|
  002d0	e59f1028	 ldr         r1, [pc, #0x28]
  002d4	e59f0020	 ldr         r0, [pc, #0x20]
  002d8	eb000000	 bl          NKDbgPrintfW
  002dc	e3a03001	 mov         r3, #1
  002e0	e58d3004	 str         r3, [sp, #4]
  002e4	ea000001	 b           |$LN6@EnableRece|
  002e8		 |$LN5@EnableRece|
  002e8	e3a03000	 mov         r3, #0
  002ec	e58d3004	 str         r3, [sp, #4]
  002f0		 |$LN6@EnableRece|

; 109  : }

  002f0	e28dd008	 add         sp, sp, #8
  002f4	e89d6000	 ldmia       sp, {sp, lr}
  002f8	e12fff1e	 bx          lr
  002fc		 |$LN10@EnableRece|
  002fc		 |$LN11@EnableRece|
  002fc	00000000	 DCD         |??_C@_1BE@LFFACMJN@?$AAM?$AAC?$AAP?$AA?3?$AA?9?$AA?$CF?$AAS?$AA?$AN?$AA?6?$AA?$AA@|
  00300		 |$LN12@EnableRece|
  00300	00000000	 DCD         |??_C@_0BP@HINLFEEB@McbspProfile_t?3?3EnableReceiver?$AA@|
  00304		 |$LN13@EnableRece|
  00304	00000000	 DCD         |dpCurSettings|
  00308		 |$LN14@EnableRece|
  00308	00000000	 DCD         |??_C@_1BE@FKGNIJHN@?$AAM?$AAC?$AAP?$AA?3?$AA?$CL?$AA?$CF?$AAS?$AA?$AN?$AA?6?$AA?$AA@|
  0030c		 |$M36559|

			 ENDP  ; |?EnableReceiver@McbspProfile_t@@UAAXXZ|, McbspProfile_t::EnableReceiver

	EXPORT	|??_C@_0CJ@PGABIJON@McbspProfile_t?3?3ResetSampleRateG@| [ DATA ] ; `string'
	EXPORT	|?ResetSampleRateGenerator@McbspProfile_t@@UAAXXZ| ; McbspProfile_t::ResetSampleRateGenerator
	IMPORT	|mcbsp_ResetSampleRateGenerator|

  00028			 AREA	 |.pdata|, PDATA
|$T36575| DCD	|$LN9@ResetSampl|
	DCD	0x40002704

  00000			 AREA	 |.rdata|, DATA, READONLY
|??_C@_0CJ@PGABIJON@McbspProfile_t?3?3ResetSampleRateG@| DCB "McbspProfil"
	DCB	"e_t::ResetSampleRateGenerator", 0x0	; `string'
; Function compile flags: /Odtp

  0030c			 AREA	 |.text|, CODE, ARM

  0030c		 |?ResetSampleRateGenerator@McbspProfile_t@@UAAXXZ| PROC ; McbspProfile_t::ResetSampleRateGenerator

; 119  : {

  0030c		 |$LN9@ResetSampl|
  0030c	e1a0c00d	 mov         r12, sp
  00310	e92d0001	 stmdb       sp!, {r0}
  00314	e92d5000	 stmdb       sp!, {r12, lr}
  00318	e24dd008	 sub         sp, sp, #8
  0031c		 |$M36572|

; 120  :     DEBUGMSG(ZONE_FUNCTION, (L"MCP:+%S\r\n", __FUNCTION__));

  0031c	e59f307c	 ldr         r3, [pc, #0x7C]
  00320	e5933440	 ldr         r3, [r3, #0x440]
  00324	e3130004	 tst         r3, #4
  00328	0a000005	 beq         |$LN3@ResetSampl|
  0032c	e59f1068	 ldr         r1, [pc, #0x68]
  00330	e59f006c	 ldr         r0, [pc, #0x6C]
  00334	eb000000	 bl          NKDbgPrintfW
  00338	e3a03001	 mov         r3, #1
  0033c	e58d3000	 str         r3, [sp]
  00340	ea000001	 b           |$LN4@ResetSampl|
  00344		 |$LN3@ResetSampl|
  00344	e3a03000	 mov         r3, #0
  00348	e58d3000	 str         r3, [sp]
  0034c		 |$LN4@ResetSampl|

; 121  : 
; 122  :     mcbsp_ResetSampleRateGenerator(m_pDevice);

  0034c	e59d3010	 ldr         r3, [sp, #0x10]
  00350	e2833004	 add         r3, r3, #4
  00354	e5930000	 ldr         r0, [r3]
  00358	eb000000	 bl          mcbsp_ResetSampleRateGenerator

; 123  : 
; 124  :     DEBUGMSG(ZONE_FUNCTION, (L"MCP:-%S\r\n", __FUNCTION__));

  0035c	e59f303c	 ldr         r3, [pc, #0x3C]
  00360	e5933440	 ldr         r3, [r3, #0x440]
  00364	e3130004	 tst         r3, #4
  00368	0a000005	 beq         |$LN5@ResetSampl|
  0036c	e59f1028	 ldr         r1, [pc, #0x28]
  00370	e59f0020	 ldr         r0, [pc, #0x20]
  00374	eb000000	 bl          NKDbgPrintfW
  00378	e3a03001	 mov         r3, #1
  0037c	e58d3004	 str         r3, [sp, #4]
  00380	ea000001	 b           |$LN6@ResetSampl|
  00384		 |$LN5@ResetSampl|
  00384	e3a03000	 mov         r3, #0
  00388	e58d3004	 str         r3, [sp, #4]
  0038c		 |$LN6@ResetSampl|

; 125  : }

  0038c	e28dd008	 add         sp, sp, #8
  00390	e89d6000	 ldmia       sp, {sp, lr}
  00394	e12fff1e	 bx          lr
  00398		 |$LN10@ResetSampl|
  00398		 |$LN11@ResetSampl|
  00398	00000000	 DCD         |??_C@_1BE@LFFACMJN@?$AAM?$AAC?$AAP?$AA?3?$AA?9?$AA?$CF?$AAS?$AA?$AN?$AA?6?$AA?$AA@|
  0039c		 |$LN12@ResetSampl|
  0039c	00000000	 DCD         |??_C@_0CJ@PGABIJON@McbspProfile_t?3?3ResetSampleRateG@|
  003a0		 |$LN13@ResetSampl|
  003a0	00000000	 DCD         |dpCurSettings|
  003a4		 |$LN14@ResetSampl|
  003a4	00000000	 DCD         |??_C@_1BE@FKGNIJHN@?$AAM?$AAC?$AAP?$AA?3?$AA?$CL?$AA?$CF?$AAS?$AA?$AN?$AA?6?$AA?$AA@|
  003a8		 |$M36573|

			 ENDP  ; |?ResetSampleRateGenerator@McbspProfile_t@@UAAXXZ|, McbspProfile_t::ResetSampleRateGenerator

	EXPORT	|??_C@_0CB@OJAAEBGB@McbspProfile_t?3?3ResetTransmitter@| [ DATA ] ; `string'
	EXPORT	|?ResetTransmitter@McbspProfile_t@@UAAXXZ| ; McbspProfile_t::ResetTransmitter
	IMPORT	|mcbsp_ResetTransmitter|

  00030			 AREA	 |.pdata|, PDATA
|$T36589| DCD	|$LN9@ResetTrans|
	DCD	0x40002704

  00000			 AREA	 |.rdata|, DATA, READONLY
|??_C@_0CB@OJAAEBGB@McbspProfile_t?3?3ResetTransmitter@| DCB "McbspProfil"
	DCB	"e_t::ResetTransmitter", 0x0		; `string'
; Function compile flags: /Odtp

  003a8			 AREA	 |.text|, CODE, ARM

  003a8		 |?ResetTransmitter@McbspProfile_t@@UAAXXZ| PROC ; McbspProfile_t::ResetTransmitter

; 135  : {

  003a8		 |$LN9@ResetTrans|
  003a8	e1a0c00d	 mov         r12, sp
  003ac	e92d0001	 stmdb       sp!, {r0}
  003b0	e92d5000	 stmdb       sp!, {r12, lr}
  003b4	e24dd008	 sub         sp, sp, #8
  003b8		 |$M36586|

; 136  :     DEBUGMSG(ZONE_FUNCTION, (L"MCP:+%S\r\n", __FUNCTION__));

  003b8	e59f307c	 ldr         r3, [pc, #0x7C]
  003bc	e5933440	 ldr         r3, [r3, #0x440]
  003c0	e3130004	 tst         r3, #4
  003c4	0a000005	 beq         |$LN3@ResetTrans|
  003c8	e59f1068	 ldr         r1, [pc, #0x68]
  003cc	e59f006c	 ldr         r0, [pc, #0x6C]
  003d0	eb000000	 bl          NKDbgPrintfW
  003d4	e3a03001	 mov         r3, #1
  003d8	e58d3000	 str         r3, [sp]
  003dc	ea000001	 b           |$LN4@ResetTrans|
  003e0		 |$LN3@ResetTrans|
  003e0	e3a03000	 mov         r3, #0
  003e4	e58d3000	 str         r3, [sp]
  003e8		 |$LN4@ResetTrans|

; 137  : 
; 138  :     mcbsp_ResetTransmitter(m_pDevice);

  003e8	e59d3010	 ldr         r3, [sp, #0x10]
  003ec	e2833004	 add         r3, r3, #4
  003f0	e5930000	 ldr         r0, [r3]
  003f4	eb000000	 bl          mcbsp_ResetTransmitter

; 139  : 
; 140  :     DEBUGMSG(ZONE_FUNCTION, (L"MCP:-%S\r\n", __FUNCTION__));

  003f8	e59f303c	 ldr         r3, [pc, #0x3C]
  003fc	e5933440	 ldr         r3, [r3, #0x440]
  00400	e3130004	 tst         r3, #4
  00404	0a000005	 beq         |$LN5@ResetTrans|
  00408	e59f1028	 ldr         r1, [pc, #0x28]
  0040c	e59f0020	 ldr         r0, [pc, #0x20]
  00410	eb000000	 bl          NKDbgPrintfW
  00414	e3a03001	 mov         r3, #1
  00418	e58d3004	 str         r3, [sp, #4]
  0041c	ea000001	 b           |$LN6@ResetTrans|
  00420		 |$LN5@ResetTrans|
  00420	e3a03000	 mov         r3, #0
  00424	e58d3004	 str         r3, [sp, #4]
  00428		 |$LN6@ResetTrans|

; 141  : }

  00428	e28dd008	 add         sp, sp, #8
  0042c	e89d6000	 ldmia       sp, {sp, lr}
  00430	e12fff1e	 bx          lr
  00434		 |$LN10@ResetTrans|
  00434		 |$LN11@ResetTrans|
  00434	00000000	 DCD         |??_C@_1BE@LFFACMJN@?$AAM?$AAC?$AAP?$AA?3?$AA?9?$AA?$CF?$AAS?$AA?$AN?$AA?6?$AA?$AA@|
  00438		 |$LN12@ResetTrans|
  00438	00000000	 DCD         |??_C@_0CB@OJAAEBGB@McbspProfile_t?3?3ResetTransmitter@|
  0043c		 |$LN13@ResetTrans|
  0043c	00000000	 DCD         |dpCurSettings|
  00440		 |$LN14@ResetTrans|
  00440	00000000	 DCD         |??_C@_1BE@FKGNIJHN@?$AAM?$AAC?$AAP?$AA?3?$AA?$CL?$AA?$CF?$AAS?$AA?$AN?$AA?6?$AA?$AA@|
  00444		 |$M36587|

			 ENDP  ; |?ResetTransmitter@McbspProfile_t@@UAAXXZ|, McbspProfile_t::ResetTransmitter

	EXPORT	|??_C@_0BO@NNPJGPIE@McbspProfile_t?3?3ResetReceiver?$AA@| [ DATA ] ; `string'
	EXPORT	|?ResetReceiver@McbspProfile_t@@UAAXXZ|	; McbspProfile_t::ResetReceiver
	IMPORT	|mcbsp_ResetReceiver|

  00038			 AREA	 |.pdata|, PDATA
|$T36603| DCD	|$LN9@ResetRecei|
	DCD	0x40002704

  00000			 AREA	 |.rdata|, DATA, READONLY
|??_C@_0BO@NNPJGPIE@McbspProfile_t?3?3ResetReceiver?$AA@| DCB "McbspProfi"
	DCB	"le_t::ResetReceiver", 0x0		; `string'
; Function compile flags: /Odtp

  00444			 AREA	 |.text|, CODE, ARM

  00444		 |?ResetReceiver@McbspProfile_t@@UAAXXZ| PROC ; McbspProfile_t::ResetReceiver

; 151  : {

  00444		 |$LN9@ResetRecei|
  00444	e1a0c00d	 mov         r12, sp
  00448	e92d0001	 stmdb       sp!, {r0}
  0044c	e92d5000	 stmdb       sp!, {r12, lr}
  00450	e24dd008	 sub         sp, sp, #8
  00454		 |$M36600|

; 152  :     DEBUGMSG(ZONE_FUNCTION, (L"MCP:+%S\r\n", __FUNCTION__));

  00454	e59f307c	 ldr         r3, [pc, #0x7C]
  00458	e5933440	 ldr         r3, [r3, #0x440]
  0045c	e3130004	 tst         r3, #4
  00460	0a000005	 beq         |$LN3@ResetRecei|
  00464	e59f1068	 ldr         r1, [pc, #0x68]
  00468	e59f006c	 ldr         r0, [pc, #0x6C]
  0046c	eb000000	 bl          NKDbgPrintfW
  00470	e3a03001	 mov         r3, #1
  00474	e58d3000	 str         r3, [sp]
  00478	ea000001	 b           |$LN4@ResetRecei|
  0047c		 |$LN3@ResetRecei|
  0047c	e3a03000	 mov         r3, #0
  00480	e58d3000	 str         r3, [sp]
  00484		 |$LN4@ResetRecei|

; 153  : 
; 154  :     mcbsp_ResetReceiver(m_pDevice);

  00484	e59d3010	 ldr         r3, [sp, #0x10]
  00488	e2833004	 add         r3, r3, #4
  0048c	e5930000	 ldr         r0, [r3]
  00490	eb000000	 bl          mcbsp_ResetReceiver

; 155  : 
; 156  :     DEBUGMSG(ZONE_FUNCTION, (L"MCP:-%S\r\n", __FUNCTION__));

  00494	e59f303c	 ldr         r3, [pc, #0x3C]
  00498	e5933440	 ldr         r3, [r3, #0x440]
  0049c	e3130004	 tst         r3, #4
  004a0	0a000005	 beq         |$LN5@ResetRecei|
  004a4	e59f1028	 ldr         r1, [pc, #0x28]
  004a8	e59f0020	 ldr         r0, [pc, #0x20]
  004ac	eb000000	 bl          NKDbgPrintfW
  004b0	e3a03001	 mov         r3, #1
  004b4	e58d3004	 str         r3, [sp, #4]
  004b8	ea000001	 b           |$LN6@ResetRecei|
  004bc		 |$LN5@ResetRecei|
  004bc	e3a03000	 mov         r3, #0
  004c0	e58d3004	 str         r3, [sp, #4]
  004c4		 |$LN6@ResetRecei|

; 157  : }

  004c4	e28dd008	 add         sp, sp, #8
  004c8	e89d6000	 ldmia       sp, {sp, lr}
  004cc	e12fff1e	 bx          lr
  004d0		 |$LN10@ResetRecei|
  004d0		 |$LN11@ResetRecei|
  004d0	00000000	 DCD         |??_C@_1BE@LFFACMJN@?$AAM?$AAC?$AAP?$AA?3?$AA?9?$AA?$CF?$AAS?$AA?$AN?$AA?6?$AA?$AA@|
  004d4		 |$LN12@ResetRecei|
  004d4	00000000	 DCD         |??_C@_0BO@NNPJGPIE@McbspProfile_t?3?3ResetReceiver?$AA@|
  004d8		 |$LN13@ResetRecei|
  004d8	00000000	 DCD         |dpCurSettings|
  004dc		 |$LN14@ResetRecei|
  004dc	00000000	 DCD         |??_C@_1BE@FKGNIJHN@?$AAM?$AAC?$AAP?$AA?3?$AA?$CL?$AA?$CF?$AAS?$AA?$AN?$AA?6?$AA?$AA@|
  004e0		 |$M36601|

			 ENDP  ; |?ResetReceiver@McbspProfile_t@@UAAXXZ|, McbspProfile_t::ResetReceiver

	EXPORT	|??_C@_0BP@FLKDMIHL@McbspProfile_t?3?3ClearIRQStatus?$AA@| [ DATA ] ; `string'
	EXPORT	|?ClearIRQStatus@McbspProfile_t@@UAAXXZ| ; McbspProfile_t::ClearIRQStatus
	IMPORT	|mcbsp_ClearIRQStatus|

  00040			 AREA	 |.pdata|, PDATA
|$T36617| DCD	|$LN9@ClearIRQSt|
	DCD	0x40002704

  00000			 AREA	 |.rdata|, DATA, READONLY
|??_C@_0BP@FLKDMIHL@McbspProfile_t?3?3ClearIRQStatus?$AA@| DCB "McbspProf"
	DCB	"ile_t::ClearIRQStatus", 0x0		; `string'
; Function compile flags: /Odtp

  004e0			 AREA	 |.text|, CODE, ARM

  004e0		 |?ClearIRQStatus@McbspProfile_t@@UAAXXZ| PROC ; McbspProfile_t::ClearIRQStatus

; 167  : {

  004e0		 |$LN9@ClearIRQSt|
  004e0	e1a0c00d	 mov         r12, sp
  004e4	e92d0001	 stmdb       sp!, {r0}
  004e8	e92d5000	 stmdb       sp!, {r12, lr}
  004ec	e24dd008	 sub         sp, sp, #8
  004f0		 |$M36614|

; 168  :     DEBUGMSG(ZONE_FUNCTION, (L"MCP:+%S\r\n", __FUNCTION__));

  004f0	e59f307c	 ldr         r3, [pc, #0x7C]
  004f4	e5933440	 ldr         r3, [r3, #0x440]
  004f8	e3130004	 tst         r3, #4
  004fc	0a000005	 beq         |$LN3@ClearIRQSt|
  00500	e59f1068	 ldr         r1, [pc, #0x68]
  00504	e59f006c	 ldr         r0, [pc, #0x6C]
  00508	eb000000	 bl          NKDbgPrintfW
  0050c	e3a03001	 mov         r3, #1
  00510	e58d3000	 str         r3, [sp]
  00514	ea000001	 b           |$LN4@ClearIRQSt|
  00518		 |$LN3@ClearIRQSt|
  00518	e3a03000	 mov         r3, #0
  0051c	e58d3000	 str         r3, [sp]
  00520		 |$LN4@ClearIRQSt|

; 169  : 
; 170  :     mcbsp_ClearIRQStatus(m_pDevice);

  00520	e59d3010	 ldr         r3, [sp, #0x10]
  00524	e2833004	 add         r3, r3, #4
  00528	e5930000	 ldr         r0, [r3]
  0052c	eb000000	 bl          mcbsp_ClearIRQStatus

; 171  : 
; 172  :     DEBUGMSG(ZONE_FUNCTION, (L"MCP:-%S\r\n", __FUNCTION__));

  00530	e59f303c	 ldr         r3, [pc, #0x3C]
  00534	e5933440	 ldr         r3, [r3, #0x440]
  00538	e3130004	 tst         r3, #4
  0053c	0a000005	 beq         |$LN5@ClearIRQSt|
  00540	e59f1028	 ldr         r1, [pc, #0x28]
  00544	e59f0020	 ldr         r0, [pc, #0x20]
  00548	eb000000	 bl          NKDbgPrintfW
  0054c	e3a03001	 mov         r3, #1
  00550	e58d3004	 str         r3, [sp, #4]
  00554	ea000001	 b           |$LN6@ClearIRQSt|
  00558		 |$LN5@ClearIRQSt|
  00558	e3a03000	 mov         r3, #0
  0055c	e58d3004	 str         r3, [sp, #4]
  00560		 |$LN6@ClearIRQSt|

; 173  : }

  00560	e28dd008	 add         sp, sp, #8
  00564	e89d6000	 ldmia       sp, {sp, lr}
  00568	e12fff1e	 bx          lr
  0056c		 |$LN10@ClearIRQSt|
  0056c		 |$LN11@ClearIRQSt|
  0056c	00000000	 DCD         |??_C@_1BE@LFFACMJN@?$AAM?$AAC?$AAP?$AA?3?$AA?9?$AA?$CF?$AAS?$AA?$AN?$AA?6?$AA?$AA@|
  00570		 |$LN12@ClearIRQSt|
  00570	00000000	 DCD         |??_C@_0BP@FLKDMIHL@McbspProfile_t?3?3ClearIRQStatus?$AA@|
  00574		 |$LN13@ClearIRQSt|
  00574	00000000	 DCD         |dpCurSettings|
  00578		 |$LN14@ClearIRQSt|
  00578	00000000	 DCD         |??_C@_1BE@FKGNIJHN@?$AAM?$AAC?$AAP?$AA?3?$AA?$CL?$AA?$CF?$AAS?$AA?$AN?$AA?6?$AA?$AA@|
  0057c		 |$M36615|

			 ENDP  ; |?ClearIRQStatus@McbspProfile_t@@UAAXXZ|, McbspProfile_t::ClearIRQStatus

	EXPORT	|??_C@_1DC@NKLPPLPI@?$AAM?$AAc?$AAB?$AAS?$AAP?$AA?5?$AAi?$AAs?$AA?5?$AAi?$AAn?$AA?5?$AAS?$AAl?$AAa?$AAv?$AAe?$AA?5?$AAm?$AAo?$AAd?$AAe?$AA?$AN?$AA?6?$AA?$AA@| [ DATA ] ; `string'
	EXPORT	|??_C@_0BO@DJBLMHDJ@I2SSlaveProfile_t?3?3Initialize?$AA@| [ DATA ] ; `string'
	EXPORT	|?Initialize@I2SSlaveProfile_t@@UAAXXZ|	; I2SSlaveProfile_t::Initialize
	IMPORT	|mcbsp_ConfigI2SProfile|
	IMPORT	|mcbsp_ConfigureReceiver|
	IMPORT	|mcbsp_ConfigureTransmitter|
	IMPORT	|mcbsp_ConfigureSampleRateGenerator|
	IMPORT	|mcbsp_GetRegistryValues|
	IMPORT	|mcbsp_ResetShadowRegisters|

  00048			 AREA	 |.pdata|, PDATA
|$T36633| DCD	|$LN12@Initialize@2|
	DCD	0x40005e04

  00000			 AREA	 |.rdata|, DATA, READONLY
|??_C@_1DC@NKLPPLPI@?$AAM?$AAc?$AAB?$AAS?$AAP?$AA?5?$AAi?$AAs?$AA?5?$AAi?$AAn?$AA?5?$AAS?$AAl?$AAa?$AAv?$AAe?$AA?5?$AAm?$AAo?$AAd?$AAe?$AA?$AN?$AA?6?$AA?$AA@| DCB "M"
	DCB	0x0, "c", 0x0, "B", 0x0, "S", 0x0, "P", 0x0, " ", 0x0, "i"
	DCB	0x0, "s", 0x0, " ", 0x0, "i", 0x0, "n", 0x0, " ", 0x0, "S"
	DCB	0x0, "l", 0x0, "a", 0x0, "v", 0x0, "e", 0x0, " ", 0x0, "m"
	DCB	0x0, "o", 0x0, "d", 0x0, "e", 0x0, 0xd, 0x0, 0xa, 0x0, 0x0
	DCB	0x0					; `string'

  00000			 AREA	 |.rdata|, DATA, READONLY
|??_C@_0BO@DJBLMHDJ@I2SSlaveProfile_t?3?3Initialize?$AA@| DCB "I2SSlavePr"
	DCB	"ofile_t::Initialize", 0x0		; `string'
; Function compile flags: /Odtp

  0057c			 AREA	 |.text|, CODE, ARM

  0057c		 |?Initialize@I2SSlaveProfile_t@@UAAXXZ| PROC ; I2SSlaveProfile_t::Initialize

; 187  : {

  0057c		 |$LN12@Initialize@2|
  0057c	e1a0c00d	 mov         r12, sp
  00580	e92d0001	 stmdb       sp!, {r0}
  00584	e92d5000	 stmdb       sp!, {r12, lr}
  00588	e24dd00c	 sub         sp, sp, #0xC
  0058c		 |$M36630|

; 188  :     DEBUGMSG(ZONE_FUNCTION, (L"MCP:+%S\r\n", __FUNCTION__));

  0058c	e59f3154	 ldr         r3, [pc, #0x154]
  00590	e5933440	 ldr         r3, [r3, #0x440]
  00594	e3130004	 tst         r3, #4
  00598	0a000005	 beq         |$LN4@Initialize@2|
  0059c	e59f1140	 ldr         r1, [pc, #0x140]
  005a0	e59f0148	 ldr         r0, [pc, #0x148]
  005a4	eb000000	 bl          NKDbgPrintfW
  005a8	e3a03001	 mov         r3, #1
  005ac	e58d3000	 str         r3, [sp]
  005b0	ea000001	 b           |$LN5@Initialize@2|
  005b4		 |$LN4@Initialize@2|
  005b4	e3a03000	 mov         r3, #0
  005b8	e58d3000	 str         r3, [sp]
  005bc		 |$LN5@Initialize@2|

; 189  : 
; 190  :     // initialize shadow registers
; 191  :     //
; 192  :     mcbsp_ResetShadowRegisters(m_pDevice);

  005bc	e59d3014	 ldr         r3, [sp, #0x14]
  005c0	e2833004	 add         r3, r3, #4
  005c4	e5930000	 ldr         r0, [r3]
  005c8	eb000000	 bl          mcbsp_ResetShadowRegisters

; 193  : 
; 194  :     // overwrite default configuration with registry values
; 195  :     //
; 196  :     if (m_pDevice->useRegistryForMcbsp)

  005cc	e59d3014	 ldr         r3, [sp, #0x14]
  005d0	e2833004	 add         r3, r3, #4
  005d4	e5933000	 ldr         r3, [r3]
  005d8	e28330c0	 add         r3, r3, #0xC0
  005dc	e5933000	 ldr         r3, [r3]
  005e0	e3530000	 cmp         r3, #0
  005e4	0a000003	 beq         |$LN1@Initialize@2|

; 197  :         {
; 198  :         mcbsp_GetRegistryValues(m_pDevice);

  005e8	e59d3014	 ldr         r3, [sp, #0x14]
  005ec	e2833004	 add         r3, r3, #4
  005f0	e5930000	 ldr         r0, [r3]
  005f4	eb000000	 bl          mcbsp_GetRegistryValues
  005f8		 |$LN1@Initialize@2|

; 199  :         }
; 200  : 
; 201  :     mcbsp_ResetSampleRateGenerator(m_pDevice);

  005f8	e59d3014	 ldr         r3, [sp, #0x14]
  005fc	e2833004	 add         r3, r3, #4
  00600	e5930000	 ldr         r0, [r3]
  00604	eb000000	 bl          mcbsp_ResetSampleRateGenerator

; 202  :     mcbsp_ResetTransmitter(m_pDevice);

  00608	e59d3014	 ldr         r3, [sp, #0x14]
  0060c	e2833004	 add         r3, r3, #4
  00610	e5930000	 ldr         r0, [r3]
  00614	eb000000	 bl          mcbsp_ResetTransmitter

; 203  :     mcbsp_ResetReceiver(m_pDevice);

  00618	e59d3014	 ldr         r3, [sp, #0x14]
  0061c	e2833004	 add         r3, r3, #4
  00620	e5930000	 ldr         r0, [r3]
  00624	eb000000	 bl          mcbsp_ResetReceiver

; 204  : 
; 205  :     mcbsp_ConfigureSampleRateGenerator(m_pDevice);

  00628	e59d3014	 ldr         r3, [sp, #0x14]
  0062c	e2833004	 add         r3, r3, #4
  00630	e5930000	 ldr         r0, [r3]
  00634	eb000000	 bl          mcbsp_ConfigureSampleRateGenerator

; 206  :     mcbsp_ConfigureTransmitter(m_pDevice);

  00638	e59d3014	 ldr         r3, [sp, #0x14]
  0063c	e2833004	 add         r3, r3, #4
  00640	e5930000	 ldr         r0, [r3]
  00644	eb000000	 bl          mcbsp_ConfigureTransmitter

; 207  :     mcbsp_ConfigureReceiver(m_pDevice);

  00648	e59d3014	 ldr         r3, [sp, #0x14]
  0064c	e2833004	 add         r3, r3, #4
  00650	e5930000	 ldr         r0, [r3]
  00654	eb000000	 bl          mcbsp_ConfigureReceiver

; 208  :     mcbsp_ClearIRQStatus(m_pDevice);

  00658	e59d3014	 ldr         r3, [sp, #0x14]
  0065c	e2833004	 add         r3, r3, #4
  00660	e5930000	 ldr         r0, [r3]
  00664	eb000000	 bl          mcbsp_ClearIRQStatus

; 209  :     mcbsp_UpdateRegisters(m_pDevice);

  00668	e59d3014	 ldr         r3, [sp, #0x14]
  0066c	e2833004	 add         r3, r3, #4
  00670	e5930000	 ldr         r0, [r3]
  00674	eb000000	 bl          mcbsp_UpdateRegisters

; 210  : 
; 211  :     // Do I2S specific configuration
; 212  :     mcbsp_ConfigI2SProfile(m_pDevice);

  00678	e59d3014	 ldr         r3, [sp, #0x14]
  0067c	e2833004	 add         r3, r3, #4
  00680	e5930000	 ldr         r0, [r3]
  00684	eb000000	 bl          mcbsp_ConfigI2SProfile

; 213  : 
; 214  : #ifdef DEBUG
; 215  :     //mcbsp_DumpReg(m_pDevice, L"After configuration");
; 216  :     RETAILMSG(1,(TEXT("McBSP is in Slave mode\r\n")));

  00688	e59f005c	 ldr         r0, [pc, #0x5C]
  0068c	eb000000	 bl          NKDbgPrintfW
  00690	e3a03001	 mov         r3, #1
  00694	e58d3004	 str         r3, [sp, #4]
  00698	ea000001	 b           |$LN7@Initialize@2|
  0069c	e3a03000	 mov         r3, #0
  006a0	e58d3004	 str         r3, [sp, #4]
  006a4		 |$LN7@Initialize@2|

; 217  : #endif
; 218  : 
; 219  :     DEBUGMSG(ZONE_FUNCTION, (L"MCP:-%S\r\n", __FUNCTION__));

  006a4	e59f303c	 ldr         r3, [pc, #0x3C]
  006a8	e5933440	 ldr         r3, [r3, #0x440]
  006ac	e3130004	 tst         r3, #4
  006b0	0a000005	 beq         |$LN8@Initialize@2|
  006b4	e59f1028	 ldr         r1, [pc, #0x28]
  006b8	e59f0020	 ldr         r0, [pc, #0x20]
  006bc	eb000000	 bl          NKDbgPrintfW
  006c0	e3a03001	 mov         r3, #1
  006c4	e58d3008	 str         r3, [sp, #8]
  006c8	ea000001	 b           |$LN9@Initialize@2|
  006cc		 |$LN8@Initialize@2|
  006cc	e3a03000	 mov         r3, #0
  006d0	e58d3008	 str         r3, [sp, #8]
  006d4		 |$LN9@Initialize@2|

; 220  : }

  006d4	e28dd00c	 add         sp, sp, #0xC
  006d8	e89d6000	 ldmia       sp, {sp, lr}
  006dc	e12fff1e	 bx          lr
  006e0		 |$LN13@Initialize@2|
  006e0		 |$LN14@Initialize@2|
  006e0	00000000	 DCD         |??_C@_1BE@LFFACMJN@?$AAM?$AAC?$AAP?$AA?3?$AA?9?$AA?$CF?$AAS?$AA?$AN?$AA?6?$AA?$AA@|
  006e4		 |$LN15@Initialize@2|
  006e4	00000000	 DCD         |??_C@_0BO@DJBLMHDJ@I2SSlaveProfile_t?3?3Initialize?$AA@|
  006e8		 |$LN16@Initialize@2|
  006e8	00000000	 DCD         |dpCurSettings|
  006ec		 |$LN17@Initialize@2|
  006ec	00000000	 DCD         |??_C@_1DC@NKLPPLPI@?$AAM?$AAc?$AAB?$AAS?$AAP?$AA?5?$AAi?$AAs?$AA?5?$AAi?$AAn?$AA?5?$AAS?$AAl?$AAa?$AAv?$AAe?$AA?5?$AAm?$AAo?$AAd?$AAe?$AA?$AN?$AA?6?$AA?$AA@|
  006f0		 |$LN18@Initialize@2|
  006f0	00000000	 DCD         |??_C@_1BE@FKGNIJHN@?$AAM?$AAC?$AAP?$AA?3?$AA?$CL?$AA?$CF?$AAS?$AA?$AN?$AA?6?$AA?$AA@|
  006f4		 |$M36631|

			 ENDP  ; |?Initialize@I2SSlaveProfile_t@@UAAXXZ|, I2SSlaveProfile_t::Initialize

	EXPORT	|??_C@_1EI@EBAMKJGL@?$AAA?$AAf?$AAt?$AAe?$AAr?$AA?5?$AAc?$AAo?$AAn?$AAt?$AAe?$AAx?$AAt?$AA?5?$AAr?$AAe?$AAs?$AAt?$AAo?$AAr?$AAe?$AA?5?$AAc?$AAo?$AAn?$AAf?$AAi?$AAg?$AAu?$AAr?$AAa?$AAt@| [ DATA ] ; `string'
	EXPORT	|??_C@_0CC@BCGMPGME@I2SSlaveProfile_t?3?3ContextRestor@| [ DATA ] ; `string'
	EXPORT	|?ContextRestore@I2SSlaveProfile_t@@UAAXXZ| ; I2SSlaveProfile_t::ContextRestore
	IMPORT	|mcbsp_DumpReg|

  00050			 AREA	 |.pdata|, PDATA
|$T36648| DCD	|$LN9@ContextRes@2|
	DCD	0x40002f04

  00000			 AREA	 |.rdata|, DATA, READONLY
|??_C@_1EI@EBAMKJGL@?$AAA?$AAf?$AAt?$AAe?$AAr?$AA?5?$AAc?$AAo?$AAn?$AAt?$AAe?$AAx?$AAt?$AA?5?$AAr?$AAe?$AAs?$AAt?$AAo?$AAr?$AAe?$AA?5?$AAc?$AAo?$AAn?$AAf?$AAi?$AAg?$AAu?$AAr?$AAa?$AAt@| DCB "A"
	DCB	0x0, "f", 0x0, "t", 0x0, "e", 0x0, "r", 0x0, " ", 0x0, "c"
	DCB	0x0, "o", 0x0, "n", 0x0, "t", 0x0, "e", 0x0, "x", 0x0, "t"
	DCB	0x0, " ", 0x0, "r", 0x0, "e", 0x0, "s", 0x0, "t", 0x0, "o"
	DCB	0x0, "r", 0x0, "e", 0x0, " ", 0x0, "c", 0x0, "o", 0x0, "n"
	DCB	0x0, "f", 0x0, "i", 0x0, "g", 0x0, "u", 0x0, "r", 0x0, "a"
	DCB	0x0, "t", 0x0, "i", 0x0, "o", 0x0, "n", 0x0, 0x0, 0x0 ; `string'

  00000			 AREA	 |.rdata|, DATA, READONLY
|??_C@_0CC@BCGMPGME@I2SSlaveProfile_t?3?3ContextRestor@| DCB "I2SSlavePro"
	DCB	"file_t::ContextRestore", 0x0		; `string'
; Function compile flags: /Odtp

  006f4			 AREA	 |.text|, CODE, ARM

  006f4		 |?ContextRestore@I2SSlaveProfile_t@@UAAXXZ| PROC ; I2SSlaveProfile_t::ContextRestore

; 230  : {

  006f4		 |$LN9@ContextRes@2|
  006f4	e1a0c00d	 mov         r12, sp
  006f8	e92d0001	 stmdb       sp!, {r0}
  006fc	e92d5000	 stmdb       sp!, {r12, lr}
  00700	e24dd008	 sub         sp, sp, #8
  00704		 |$M36645|

; 231  :     DEBUGMSG(ZONE_FUNCTION, (L"MCP:+%S\r\n", __FUNCTION__));

  00704	e59f3098	 ldr         r3, [pc, #0x98]
  00708	e5933440	 ldr         r3, [r3, #0x440]
  0070c	e3130004	 tst         r3, #4
  00710	0a000005	 beq         |$LN3@ContextRes@2|
  00714	e59f1084	 ldr         r1, [pc, #0x84]
  00718	e59f008c	 ldr         r0, [pc, #0x8C]
  0071c	eb000000	 bl          NKDbgPrintfW
  00720	e3a03001	 mov         r3, #1
  00724	e58d3000	 str         r3, [sp]
  00728	ea000001	 b           |$LN4@ContextRes@2|
  0072c		 |$LN3@ContextRes@2|
  0072c	e3a03000	 mov         r3, #0
  00730	e58d3000	 str         r3, [sp]
  00734		 |$LN4@ContextRes@2|

; 232  : 
; 233  :     // Call base class function
; 234  :     McbspProfile_t::ContextRestore();

  00734	e59d0010	 ldr         r0, [sp, #0x10]
  00738	eb000000	 bl          |?ContextRestore@McbspProfile_t@@UAAXXZ|

; 235  : 
; 236  :     // Do I2S specific configuration
; 237  :     mcbsp_ConfigI2SProfile(m_pDevice);

  0073c	e59d3010	 ldr         r3, [sp, #0x10]
  00740	e2833004	 add         r3, r3, #4
  00744	e5930000	 ldr         r0, [r3]
  00748	eb000000	 bl          mcbsp_ConfigI2SProfile

; 238  : 
; 239  : #ifdef DEBUG
; 240  :     mcbsp_DumpReg(m_pDevice, L"After context restore configuration");

  0074c	e59f1054	 ldr         r1, [pc, #0x54]
  00750	e59d3010	 ldr         r3, [sp, #0x10]
  00754	e2833004	 add         r3, r3, #4
  00758	e5930000	 ldr         r0, [r3]
  0075c	eb000000	 bl          mcbsp_DumpReg

; 241  : #endif
; 242  : 
; 243  :     DEBUGMSG(ZONE_FUNCTION, (L"MCP:-%S\r\n", __FUNCTION__));

  00760	e59f303c	 ldr         r3, [pc, #0x3C]
  00764	e5933440	 ldr         r3, [r3, #0x440]
  00768	e3130004	 tst         r3, #4
  0076c	0a000005	 beq         |$LN5@ContextRes@2|
  00770	e59f1028	 ldr         r1, [pc, #0x28]
  00774	e59f0020	 ldr         r0, [pc, #0x20]
  00778	eb000000	 bl          NKDbgPrintfW
  0077c	e3a03001	 mov         r3, #1
  00780	e58d3004	 str         r3, [sp, #4]
  00784	ea000001	 b           |$LN6@ContextRes@2|
  00788		 |$LN5@ContextRes@2|
  00788	e3a03000	 mov         r3, #0
  0078c	e58d3004	 str         r3, [sp, #4]
  00790		 |$LN6@ContextRes@2|

; 244  : }

  00790	e28dd008	 add         sp, sp, #8
  00794	e89d6000	 ldmia       sp, {sp, lr}
  00798	e12fff1e	 bx          lr
  0079c		 |$LN10@ContextRes@2|
  0079c		 |$LN11@ContextRes@2|
  0079c	00000000	 DCD         |??_C@_1BE@LFFACMJN@?$AAM?$AAC?$AAP?$AA?3?$AA?9?$AA?$CF?$AAS?$AA?$AN?$AA?6?$AA?$AA@|
  007a0		 |$LN12@ContextRes@2|
  007a0	00000000	 DCD         |??_C@_0CC@BCGMPGME@I2SSlaveProfile_t?3?3ContextRestor@|
  007a4		 |$LN13@ContextRes@2|
  007a4	00000000	 DCD         |dpCurSettings|
  007a8		 |$LN14@ContextRes@2|
  007a8	00000000	 DCD         |??_C@_1EI@EBAMKJGL@?$AAA?$AAf?$AAt?$AAe?$AAr?$AA?5?$AAc?$AAo?$AAn?$AAt?$AAe?$AAx?$AAt?$AA?5?$AAr?$AAe?$AAs?$AAt?$AAo?$AAr?$AAe?$AA?5?$AAc?$AAo?$AAn?$AAf?$AAi?$AAg?$AAu?$AAr?$AAa?$AAt@|
  007ac		 |$LN15@ContextRes@2|
  007ac	00000000	 DCD         |??_C@_1BE@FKGNIJHN@?$AAM?$AAC?$AAP?$AA?3?$AA?$CL?$AA?$CF?$AAS?$AA?$AN?$AA?6?$AA?$AA@|
  007b0		 |$M36646|

			 ENDP  ; |?ContextRestore@I2SSlaveProfile_t@@UAAXXZ|, I2SSlaveProfile_t::ContextRestore

	EXPORT	|??_C@_1DE@ENKAFJLI@?$AAM?$AAc?$AAB?$AAS?$AAP?$AA?5?$AAi?$AAs?$AA?5?$AAi?$AAn?$AA?5?$AAM?$AAa?$AAs?$AAt?$AAe?$AAr?$AA?5?$AAm?$AAo?$AAd?$AAe?$AA?$AN?$AA?6?$AA?$AA@| [ DATA ] ; `string'
	EXPORT	|??_C@_0BP@ENEMHFMM@I2SMasterProfile_t?3?3Initialize?$AA@| [ DATA ] ; `string'
	EXPORT	|?Initialize@I2SMasterProfile_t@@UAAXXZ| ; I2SMasterProfile_t::Initialize
	IMPORT	|mcbsp_ConfigureForMaster|

  00058			 AREA	 |.pdata|, PDATA
|$T36665| DCD	|$LN12@Initialize@3|
	DCD	0x40006204

  00000			 AREA	 |.rdata|, DATA, READONLY
|??_C@_1DE@ENKAFJLI@?$AAM?$AAc?$AAB?$AAS?$AAP?$AA?5?$AAi?$AAs?$AA?5?$AAi?$AAn?$AA?5?$AAM?$AAa?$AAs?$AAt?$AAe?$AAr?$AA?5?$AAm?$AAo?$AAd?$AAe?$AA?$AN?$AA?6?$AA?$AA@| DCB "M"
	DCB	0x0, "c", 0x0, "B", 0x0, "S", 0x0, "P", 0x0, " ", 0x0, "i"
	DCB	0x0, "s", 0x0, " ", 0x0, "i", 0x0, "n", 0x0, " ", 0x0, "M"
	DCB	0x0, "a", 0x0, "s", 0x0, "t", 0x0, "e", 0x0, "r", 0x0, " "
	DCB	0x0, "m", 0x0, "o", 0x0, "d", 0x0, "e", 0x0, 0xd, 0x0, 0xa
	DCB	0x0, 0x0, 0x0				; `string'

  00000			 AREA	 |.rdata|, DATA, READONLY
|??_C@_0BP@ENEMHFMM@I2SMasterProfile_t?3?3Initialize?$AA@| DCB "I2SMaster"
	DCB	"Profile_t::Initialize", 0x0		; `string'
; Function compile flags: /Odtp

  007b0			 AREA	 |.text|, CODE, ARM

  007b0		 |?Initialize@I2SMasterProfile_t@@UAAXXZ| PROC ; I2SMasterProfile_t::Initialize

; 257  : {

  007b0		 |$LN12@Initialize@3|
  007b0	e1a0c00d	 mov         r12, sp
  007b4	e92d0001	 stmdb       sp!, {r0}
  007b8	e92d5000	 stmdb       sp!, {r12, lr}
  007bc	e24dd00c	 sub         sp, sp, #0xC
  007c0		 |$M36662|

; 258  :     DEBUGMSG(ZONE_FUNCTION, (L"MCP:+%S\r\n", __FUNCTION__));

  007c0	e59f3164	 ldr         r3, [pc, #0x164]
  007c4	e5933440	 ldr         r3, [r3, #0x440]
  007c8	e3130004	 tst         r3, #4
  007cc	0a000005	 beq         |$LN4@Initialize@3|
  007d0	e59f1150	 ldr         r1, [pc, #0x150]
  007d4	e59f0158	 ldr         r0, [pc, #0x158]
  007d8	eb000000	 bl          NKDbgPrintfW
  007dc	e3a03001	 mov         r3, #1
  007e0	e58d3000	 str         r3, [sp]
  007e4	ea000001	 b           |$LN5@Initialize@3|
  007e8		 |$LN4@Initialize@3|
  007e8	e3a03000	 mov         r3, #0
  007ec	e58d3000	 str         r3, [sp]
  007f0		 |$LN5@Initialize@3|

; 259  : 
; 260  :     // initialize shadow registers
; 261  :     //
; 262  :     mcbsp_ResetShadowRegisters(m_pDevice);

  007f0	e59d3014	 ldr         r3, [sp, #0x14]
  007f4	e2833004	 add         r3, r3, #4
  007f8	e5930000	 ldr         r0, [r3]
  007fc	eb000000	 bl          mcbsp_ResetShadowRegisters

; 263  : 
; 264  :     // Configure for MASTER mode
; 265  :     //
; 266  :     mcbsp_ConfigureForMaster(m_pDevice);

  00800	e59d3014	 ldr         r3, [sp, #0x14]
  00804	e2833004	 add         r3, r3, #4
  00808	e5930000	 ldr         r0, [r3]
  0080c	eb000000	 bl          mcbsp_ConfigureForMaster

; 267  : 
; 268  :     // overwrite default configuration with registry values
; 269  :     //
; 270  :     if (m_pDevice->useRegistryForMcbsp)

  00810	e59d3014	 ldr         r3, [sp, #0x14]
  00814	e2833004	 add         r3, r3, #4
  00818	e5933000	 ldr         r3, [r3]
  0081c	e28330c0	 add         r3, r3, #0xC0
  00820	e5933000	 ldr         r3, [r3]
  00824	e3530000	 cmp         r3, #0
  00828	0a000003	 beq         |$LN1@Initialize@3|

; 271  :     {
; 272  :         mcbsp_GetRegistryValues(m_pDevice);

  0082c	e59d3014	 ldr         r3, [sp, #0x14]
  00830	e2833004	 add         r3, r3, #4
  00834	e5930000	 ldr         r0, [r3]
  00838	eb000000	 bl          mcbsp_GetRegistryValues
  0083c		 |$LN1@Initialize@3|

; 273  :     }
; 274  : 
; 275  :     mcbsp_ResetSampleRateGenerator(m_pDevice);

  0083c	e59d3014	 ldr         r3, [sp, #0x14]
  00840	e2833004	 add         r3, r3, #4
  00844	e5930000	 ldr         r0, [r3]
  00848	eb000000	 bl          mcbsp_ResetSampleRateGenerator

; 276  :     mcbsp_ResetTransmitter(m_pDevice);

  0084c	e59d3014	 ldr         r3, [sp, #0x14]
  00850	e2833004	 add         r3, r3, #4
  00854	e5930000	 ldr         r0, [r3]
  00858	eb000000	 bl          mcbsp_ResetTransmitter

; 277  :     mcbsp_ResetReceiver(m_pDevice);

  0085c	e59d3014	 ldr         r3, [sp, #0x14]
  00860	e2833004	 add         r3, r3, #4
  00864	e5930000	 ldr         r0, [r3]
  00868	eb000000	 bl          mcbsp_ResetReceiver

; 278  : 
; 279  :     mcbsp_ConfigureSampleRateGenerator(m_pDevice);

  0086c	e59d3014	 ldr         r3, [sp, #0x14]
  00870	e2833004	 add         r3, r3, #4
  00874	e5930000	 ldr         r0, [r3]
  00878	eb000000	 bl          mcbsp_ConfigureSampleRateGenerator

; 280  :     mcbsp_ConfigureTransmitter(m_pDevice);

  0087c	e59d3014	 ldr         r3, [sp, #0x14]
  00880	e2833004	 add         r3, r3, #4
  00884	e5930000	 ldr         r0, [r3]
  00888	eb000000	 bl          mcbsp_ConfigureTransmitter

; 281  :     mcbsp_ConfigureReceiver(m_pDevice);

  0088c	e59d3014	 ldr         r3, [sp, #0x14]
  00890	e2833004	 add         r3, r3, #4
  00894	e5930000	 ldr         r0, [r3]
  00898	eb000000	 bl          mcbsp_ConfigureReceiver

; 282  : 
; 283  :     mcbsp_ClearIRQStatus(m_pDevice);

  0089c	e59d3014	 ldr         r3, [sp, #0x14]
  008a0	e2833004	 add         r3, r3, #4
  008a4	e5930000	 ldr         r0, [r3]
  008a8	eb000000	 bl          mcbsp_ClearIRQStatus

; 284  :     mcbsp_UpdateRegisters(m_pDevice);

  008ac	e59d3014	 ldr         r3, [sp, #0x14]
  008b0	e2833004	 add         r3, r3, #4
  008b4	e5930000	 ldr         r0, [r3]
  008b8	eb000000	 bl          mcbsp_UpdateRegisters

; 285  : 
; 286  :     // Do I2S specific configuration
; 287  :     mcbsp_ConfigI2SProfile(m_pDevice);

  008bc	e59d3014	 ldr         r3, [sp, #0x14]
  008c0	e2833004	 add         r3, r3, #4
  008c4	e5930000	 ldr         r0, [r3]
  008c8	eb000000	 bl          mcbsp_ConfigI2SProfile

; 288  : 
; 289  : #ifdef DEBUG
; 290  :     //mcbsp_DumpReg(m_pDevice, L"After configuration");
; 291  :     RETAILMSG(1,(TEXT("McBSP is in Master mode\r\n")));

  008cc	e59f005c	 ldr         r0, [pc, #0x5C]
  008d0	eb000000	 bl          NKDbgPrintfW
  008d4	e3a03001	 mov         r3, #1
  008d8	e58d3004	 str         r3, [sp, #4]
  008dc	ea000001	 b           |$LN7@Initialize@3|
  008e0	e3a03000	 mov         r3, #0
  008e4	e58d3004	 str         r3, [sp, #4]
  008e8		 |$LN7@Initialize@3|

; 292  : #endif
; 293  : 
; 294  :     DEBUGMSG(ZONE_FUNCTION, (L"MCP:-%S\r\n", __FUNCTION__));

  008e8	e59f303c	 ldr         r3, [pc, #0x3C]
  008ec	e5933440	 ldr         r3, [r3, #0x440]
  008f0	e3130004	 tst         r3, #4
  008f4	0a000005	 beq         |$LN8@Initialize@3|
  008f8	e59f1028	 ldr         r1, [pc, #0x28]
  008fc	e59f0020	 ldr         r0, [pc, #0x20]
  00900	eb000000	 bl          NKDbgPrintfW
  00904	e3a03001	 mov         r3, #1
  00908	e58d3008	 str         r3, [sp, #8]
  0090c	ea000001	 b           |$LN9@Initialize@3|
  00910		 |$LN8@Initialize@3|
  00910	e3a03000	 mov         r3, #0
  00914	e58d3008	 str         r3, [sp, #8]
  00918		 |$LN9@Initialize@3|

; 295  : }

  00918	e28dd00c	 add         sp, sp, #0xC
  0091c	e89d6000	 ldmia       sp, {sp, lr}
  00920	e12fff1e	 bx          lr
  00924		 |$LN13@Initialize@3|
  00924		 |$LN14@Initialize@3|
  00924	00000000	 DCD         |??_C@_1BE@LFFACMJN@?$AAM?$AAC?$AAP?$AA?3?$AA?9?$AA?$CF?$AAS?$AA?$AN?$AA?6?$AA?$AA@|
  00928		 |$LN15@Initialize@3|
  00928	00000000	 DCD         |??_C@_0BP@ENEMHFMM@I2SMasterProfile_t?3?3Initialize?$AA@|
  0092c		 |$LN16@Initialize@3|
  0092c	00000000	 DCD         |dpCurSettings|
  00930		 |$LN17@Initialize@3|
  00930	00000000	 DCD         |??_C@_1DE@ENKAFJLI@?$AAM?$AAc?$AAB?$AAS?$AAP?$AA?5?$AAi?$AAs?$AA?5?$AAi?$AAn?$AA?5?$AAM?$AAa?$AAs?$AAt?$AAe?$AAr?$AA?5?$AAm?$AAo?$AAd?$AAe?$AA?$AN?$AA?6?$AA?$AA@|
  00934		 |$LN18@Initialize@3|
  00934	00000000	 DCD         |??_C@_1BE@FKGNIJHN@?$AAM?$AAC?$AAP?$AA?3?$AA?$CL?$AA?$CF?$AAS?$AA?$AN?$AA?6?$AA?$AA@|
  00938		 |$M36663|

			 ENDP  ; |?Initialize@I2SMasterProfile_t@@UAAXXZ|, I2SMasterProfile_t::Initialize

	EXPORT	|??_C@_0CD@MHJMEEJJ@I2SMasterProfile_t?3?3ContextResto@| [ DATA ] ; `string'
	EXPORT	|?ContextRestore@I2SMasterProfile_t@@UAAXXZ| ; I2SMasterProfile_t::ContextRestore

  00060			 AREA	 |.pdata|, PDATA
|$T36680| DCD	|$LN9@ContextRes@3|
	DCD	0x40002f04

  00000			 AREA	 |.rdata|, DATA, READONLY
|??_C@_0CD@MHJMEEJJ@I2SMasterProfile_t?3?3ContextResto@| DCB "I2SMasterPr"
	DCB	"ofile_t::ContextRestore", 0x0		; `string'
; Function compile flags: /Odtp

  00938			 AREA	 |.text|, CODE, ARM

  00938		 |?ContextRestore@I2SMasterProfile_t@@UAAXXZ| PROC ; I2SMasterProfile_t::ContextRestore

; 305  : {

  00938		 |$LN9@ContextRes@3|
  00938	e1a0c00d	 mov         r12, sp
  0093c	e92d0001	 stmdb       sp!, {r0}
  00940	e92d5000	 stmdb       sp!, {r12, lr}
  00944	e24dd008	 sub         sp, sp, #8
  00948		 |$M36677|

; 306  :     DEBUGMSG(ZONE_FUNCTION, (L"MCP:+%S\r\n", __FUNCTION__));

  00948	e59f3098	 ldr         r3, [pc, #0x98]
  0094c	e5933440	 ldr         r3, [r3, #0x440]
  00950	e3130004	 tst         r3, #4
  00954	0a000005	 beq         |$LN3@ContextRes@3|
  00958	e59f1084	 ldr         r1, [pc, #0x84]
  0095c	e59f008c	 ldr         r0, [pc, #0x8C]
  00960	eb000000	 bl          NKDbgPrintfW
  00964	e3a03001	 mov         r3, #1
  00968	e58d3000	 str         r3, [sp]
  0096c	ea000001	 b           |$LN4@ContextRes@3|
  00970		 |$LN3@ContextRes@3|
  00970	e3a03000	 mov         r3, #0
  00974	e58d3000	 str         r3, [sp]
  00978		 |$LN4@ContextRes@3|

; 307  : 
; 308  :     // Call base class function
; 309  :     McbspProfile_t::ContextRestore();

  00978	e59d0010	 ldr         r0, [sp, #0x10]
  0097c	eb000000	 bl          |?ContextRestore@McbspProfile_t@@UAAXXZ|

; 310  : 
; 311  :     // Do I2S specific configuration
; 312  :     mcbsp_ConfigI2SProfile(m_pDevice);

  00980	e59d3010	 ldr         r3, [sp, #0x10]
  00984	e2833004	 add         r3, r3, #4
  00988	e5930000	 ldr         r0, [r3]
  0098c	eb000000	 bl          mcbsp_ConfigI2SProfile

; 313  : 
; 314  : #ifdef DEBUG
; 315  :     mcbsp_DumpReg(m_pDevice, L"After context restore configuration");

  00990	e59f1054	 ldr         r1, [pc, #0x54]
  00994	e59d3010	 ldr         r3, [sp, #0x10]
  00998	e2833004	 add         r3, r3, #4
  0099c	e5930000	 ldr         r0, [r3]
  009a0	eb000000	 bl          mcbsp_DumpReg

; 316  : #endif
; 317  : 
; 318  :     DEBUGMSG(ZONE_FUNCTION, (L"MCP:-%S\r\n", __FUNCTION__));

  009a4	e59f303c	 ldr         r3, [pc, #0x3C]
  009a8	e5933440	 ldr         r3, [r3, #0x440]
  009ac	e3130004	 tst         r3, #4
  009b0	0a000005	 beq         |$LN5@ContextRes@3|
  009b4	e59f1028	 ldr         r1, [pc, #0x28]
  009b8	e59f0020	 ldr         r0, [pc, #0x20]
  009bc	eb000000	 bl          NKDbgPrintfW
  009c0	e3a03001	 mov         r3, #1
  009c4	e58d3004	 str         r3, [sp, #4]
  009c8	ea000001	 b           |$LN6@ContextRes@3|
  009cc		 |$LN5@ContextRes@3|
  009cc	e3a03000	 mov         r3, #0
  009d0	e58d3004	 str         r3, [sp, #4]
  009d4		 |$LN6@ContextRes@3|

; 319  : }

  009d4	e28dd008	 add         sp, sp, #8
  009d8	e89d6000	 ldmia       sp, {sp, lr}
  009dc	e12fff1e	 bx          lr
  009e0		 |$LN10@ContextRes@3|
  009e0		 |$LN11@ContextRes@3|
  009e0	00000000	 DCD         |??_C@_1BE@LFFACMJN@?$AAM?$AAC?$AAP?$AA?3?$AA?9?$AA?$CF?$AAS?$AA?$AN?$AA?6?$AA?$AA@|
  009e4		 |$LN12@ContextRes@3|
  009e4	00000000	 DCD         |??_C@_0CD@MHJMEEJJ@I2SMasterProfile_t?3?3ContextResto@|
  009e8		 |$LN13@ContextRes@3|
  009e8	00000000	 DCD         |dpCurSettings|
  009ec		 |$LN14@ContextRes@3|
  009ec	00000000	 DCD         |??_C@_1EI@EBAMKJGL@?$AAA?$AAf?$AAt?$AAe?$AAr?$AA?5?$AAc?$AAo?$AAn?$AAt?$AAe?$AAx?$AAt?$AA?5?$AAr?$AAe?$AAs?$AAt?$AAo?$AAr?$AAe?$AA?5?$AAc?$AAo?$AAn?$AAf?$AAi?$AAg?$AAu?$AAr?$AAa?$AAt@|
  009f0		 |$LN15@ContextRes@3|
  009f0	00000000	 DCD         |??_C@_1BE@FKGNIJHN@?$AAM?$AAC?$AAP?$AA?3?$AA?$CL?$AA?$CF?$AAS?$AA?$AN?$AA?6?$AA?$AA@|
  009f4		 |$M36678|

			 ENDP  ; |?ContextRestore@I2SMasterProfile_t@@UAAXXZ|, I2SMasterProfile_t::ContextRestore

	EXPORT	|??_C@_0BJ@LJPKLODA@TDMProfile_t?3?3Initialize?$AA@| [ DATA ] ; `string'
	EXPORT	|?Initialize@TDMProfile_t@@UAAXXZ|	; TDMProfile_t::Initialize
	IMPORT	|mcbsp_ConfigTDMProfile|

  00068			 AREA	 |.pdata|, PDATA
|$T36695| DCD	|$LN9@Initialize@4|
	DCD	0x40002904

  00000			 AREA	 |.rdata|, DATA, READONLY
|??_C@_0BJ@LJPKLODA@TDMProfile_t?3?3Initialize?$AA@| DCB "TDMProfile_t::I"
	DCB	"nitialize", 0x0			; `string'
; Function compile flags: /Odtp

  009f4			 AREA	 |.text|, CODE, ARM

  009f4		 |?Initialize@TDMProfile_t@@UAAXXZ| PROC ; TDMProfile_t::Initialize

; 332  : {

  009f4		 |$LN9@Initialize@4|
  009f4	e1a0c00d	 mov         r12, sp
  009f8	e92d0001	 stmdb       sp!, {r0}
  009fc	e92d5000	 stmdb       sp!, {r12, lr}
  00a00	e24dd008	 sub         sp, sp, #8
  00a04		 |$M36692|

; 333  :     DEBUGMSG(ZONE_FUNCTION, (L"MCP:+%S\r\n", __FUNCTION__));

  00a04	e59f3084	 ldr         r3, [pc, #0x84]
  00a08	e5933440	 ldr         r3, [r3, #0x440]
  00a0c	e3130004	 tst         r3, #4
  00a10	0a000005	 beq         |$LN3@Initialize@4|
  00a14	e59f1070	 ldr         r1, [pc, #0x70]
  00a18	e59f0074	 ldr         r0, [pc, #0x74]
  00a1c	eb000000	 bl          NKDbgPrintfW
  00a20	e3a03001	 mov         r3, #1
  00a24	e58d3000	 str         r3, [sp]
  00a28	ea000001	 b           |$LN4@Initialize@4|
  00a2c		 |$LN3@Initialize@4|
  00a2c	e3a03000	 mov         r3, #0
  00a30	e58d3000	 str         r3, [sp]
  00a34		 |$LN4@Initialize@4|

; 334  : 
; 335  :     // Call base class function
; 336  :     McbspProfile_t::Initialize();

  00a34	e59d0010	 ldr         r0, [sp, #0x10]
  00a38	eb000000	 bl          |?Initialize@McbspProfile_t@@UAAXXZ|

; 337  : 
; 338  :     // Do TDM specific configuration
; 339  :     mcbsp_ConfigTDMProfile(m_pDevice);

  00a3c	e59d3010	 ldr         r3, [sp, #0x10]
  00a40	e2833004	 add         r3, r3, #4
  00a44	e5930000	 ldr         r0, [r3]
  00a48	eb000000	 bl          mcbsp_ConfigTDMProfile

; 340  : 
; 341  :     DEBUGMSG(ZONE_FUNCTION, (L"MCP:-%S\r\n", __FUNCTION__));

  00a4c	e59f303c	 ldr         r3, [pc, #0x3C]
  00a50	e5933440	 ldr         r3, [r3, #0x440]
  00a54	e3130004	 tst         r3, #4
  00a58	0a000005	 beq         |$LN5@Initialize@4|
  00a5c	e59f1028	 ldr         r1, [pc, #0x28]
  00a60	e59f0020	 ldr         r0, [pc, #0x20]
  00a64	eb000000	 bl          NKDbgPrintfW
  00a68	e3a03001	 mov         r3, #1
  00a6c	e58d3004	 str         r3, [sp, #4]
  00a70	ea000001	 b           |$LN6@Initialize@4|
  00a74		 |$LN5@Initialize@4|
  00a74	e3a03000	 mov         r3, #0
  00a78	e58d3004	 str         r3, [sp, #4]
  00a7c		 |$LN6@Initialize@4|

; 342  : }

  00a7c	e28dd008	 add         sp, sp, #8
  00a80	e89d6000	 ldmia       sp, {sp, lr}
  00a84	e12fff1e	 bx          lr
  00a88		 |$LN10@Initialize@4|
  00a88		 |$LN11@Initialize@4|
  00a88	00000000	 DCD         |??_C@_1BE@LFFACMJN@?$AAM?$AAC?$AAP?$AA?3?$AA?9?$AA?$CF?$AAS?$AA?$AN?$AA?6?$AA?$AA@|
  00a8c		 |$LN12@Initialize@4|
  00a8c	00000000	 DCD         |??_C@_0BJ@LJPKLODA@TDMProfile_t?3?3Initialize?$AA@|
  00a90		 |$LN13@Initialize@4|
  00a90	00000000	 DCD         |dpCurSettings|
  00a94		 |$LN14@Initialize@4|
  00a94	00000000	 DCD         |??_C@_1BE@FKGNIJHN@?$AAM?$AAC?$AAP?$AA?3?$AA?$CL?$AA?$CF?$AAS?$AA?$AN?$AA?6?$AA?$AA@|
  00a98		 |$M36693|

			 ENDP  ; |?Initialize@TDMProfile_t@@UAAXXZ|, TDMProfile_t::Initialize

	EXPORT	|??_C@_0BN@JOJJKLBM@TDMProfile_t?3?3ContextRestore?$AA@| [ DATA ] ; `string'
	EXPORT	|?ContextRestore@TDMProfile_t@@UAAXXZ|	; TDMProfile_t::ContextRestore

  00070			 AREA	 |.pdata|, PDATA
|$T36709| DCD	|$LN9@ContextRes@4|
	DCD	0x40002904

  00000			 AREA	 |.rdata|, DATA, READONLY
|??_C@_0BN@JOJJKLBM@TDMProfile_t?3?3ContextRestore?$AA@| DCB "TDMProfile_"
	DCB	"t::ContextRestore", 0x0		; `string'
; Function compile flags: /Odtp

  00a98			 AREA	 |.text|, CODE, ARM

  00a98		 |?ContextRestore@TDMProfile_t@@UAAXXZ| PROC ; TDMProfile_t::ContextRestore

; 352  : {

  00a98		 |$LN9@ContextRes@4|
  00a98	e1a0c00d	 mov         r12, sp
  00a9c	e92d0001	 stmdb       sp!, {r0}
  00aa0	e92d5000	 stmdb       sp!, {r12, lr}
  00aa4	e24dd008	 sub         sp, sp, #8
  00aa8		 |$M36706|

; 353  :     DEBUGMSG(ZONE_FUNCTION, (L"MCP:+%S\r\n", __FUNCTION__));

  00aa8	e59f3084	 ldr         r3, [pc, #0x84]
  00aac	e5933440	 ldr         r3, [r3, #0x440]
  00ab0	e3130004	 tst         r3, #4
  00ab4	0a000005	 beq         |$LN3@ContextRes@4|
  00ab8	e59f1070	 ldr         r1, [pc, #0x70]
  00abc	e59f0074	 ldr         r0, [pc, #0x74]
  00ac0	eb000000	 bl          NKDbgPrintfW
  00ac4	e3a03001	 mov         r3, #1
  00ac8	e58d3000	 str         r3, [sp]
  00acc	ea000001	 b           |$LN4@ContextRes@4|
  00ad0		 |$LN3@ContextRes@4|
  00ad0	e3a03000	 mov         r3, #0
  00ad4	e58d3000	 str         r3, [sp]
  00ad8		 |$LN4@ContextRes@4|

; 354  : 
; 355  :     // Call base class function
; 356  :     McbspProfile_t::ContextRestore();

  00ad8	e59d0010	 ldr         r0, [sp, #0x10]
  00adc	eb000000	 bl          |?ContextRestore@McbspProfile_t@@UAAXXZ|

; 357  : 
; 358  :     // Do TDM specific configuration
; 359  :     mcbsp_ConfigTDMProfile(m_pDevice);

  00ae0	e59d3010	 ldr         r3, [sp, #0x10]
  00ae4	e2833004	 add         r3, r3, #4
  00ae8	e5930000	 ldr         r0, [r3]
  00aec	eb000000	 bl          mcbsp_ConfigTDMProfile

; 360  : 
; 361  :     DEBUGMSG(ZONE_FUNCTION, (L"MCP:-%S\r\n", __FUNCTION__));

  00af0	e59f303c	 ldr         r3, [pc, #0x3C]
  00af4	e5933440	 ldr         r3, [r3, #0x440]
  00af8	e3130004	 tst         r3, #4
  00afc	0a000005	 beq         |$LN5@ContextRes@4|
  00b00	e59f1028	 ldr         r1, [pc, #0x28]
  00b04	e59f0020	 ldr         r0, [pc, #0x20]
  00b08	eb000000	 bl          NKDbgPrintfW
  00b0c	e3a03001	 mov         r3, #1
  00b10	e58d3004	 str         r3, [sp, #4]
  00b14	ea000001	 b           |$LN6@ContextRes@4|
  00b18		 |$LN5@ContextRes@4|
  00b18	e3a03000	 mov         r3, #0
  00b1c	e58d3004	 str         r3, [sp, #4]
  00b20		 |$LN6@ContextRes@4|

; 362  : }

  00b20	e28dd008	 add         sp, sp, #8
  00b24	e89d6000	 ldmia       sp, {sp, lr}
  00b28	e12fff1e	 bx          lr
  00b2c		 |$LN10@ContextRes@4|
  00b2c		 |$LN11@ContextRes@4|
  00b2c	00000000	 DCD         |??_C@_1BE@LFFACMJN@?$AAM?$AAC?$AAP?$AA?3?$AA?9?$AA?$CF?$AAS?$AA?$AN?$AA?6?$AA?$AA@|
  00b30		 |$LN12@ContextRes@4|
  00b30	00000000	 DCD         |??_C@_0BN@JOJJKLBM@TDMProfile_t?3?3ContextRestore?$AA@|
  00b34		 |$LN13@ContextRes@4|
  00b34	00000000	 DCD         |dpCurSettings|
  00b38		 |$LN14@ContextRes@4|
  00b38	00000000	 DCD         |??_C@_1BE@FKGNIJHN@?$AAM?$AAC?$AAP?$AA?3?$AA?$CL?$AA?$CF?$AAS?$AA?$AN?$AA?6?$AA?$AA@|
  00b3c		 |$M36707|

			 ENDP  ; |?ContextRestore@TDMProfile_t@@UAAXXZ|, TDMProfile_t::ContextRestore

	EXPORT	|??_C@_0CF@BDLNFNLP@TDMProfile_t?3?3SetTxChannelsReque@| [ DATA ] ; `string'
	EXPORT	|?SetTxChannelsRequested@TDMProfile_t@@UAAXXZ| ; TDMProfile_t::SetTxChannelsRequested
	IMPORT	|mcbsp_ConfigTDMTxChannels|

  00078			 AREA	 |.pdata|, PDATA
|$T36723| DCD	|$LN9@SetTxChann|
	DCD	0x40002704

  00000			 AREA	 |.rdata|, DATA, READONLY
|??_C@_0CF@BDLNFNLP@TDMProfile_t?3?3SetTxChannelsReque@| DCB "TDMProfile_"
	DCB	"t::SetTxChannelsRequested", 0x0	; `string'
; Function compile flags: /Odtp

  00b3c			 AREA	 |.text|, CODE, ARM

  00b3c		 |?SetTxChannelsRequested@TDMProfile_t@@UAAXXZ| PROC ; TDMProfile_t::SetTxChannelsRequested

; 372  : {

  00b3c		 |$LN9@SetTxChann|
  00b3c	e1a0c00d	 mov         r12, sp
  00b40	e92d0001	 stmdb       sp!, {r0}
  00b44	e92d5000	 stmdb       sp!, {r12, lr}
  00b48	e24dd008	 sub         sp, sp, #8
  00b4c		 |$M36720|

; 373  :     DEBUGMSG(ZONE_FUNCTION, (L"MCP:+%S\r\n", __FUNCTION__));

  00b4c	e59f307c	 ldr         r3, [pc, #0x7C]
  00b50	e5933440	 ldr         r3, [r3, #0x440]
  00b54	e3130004	 tst         r3, #4
  00b58	0a000005	 beq         |$LN3@SetTxChann|
  00b5c	e59f1068	 ldr         r1, [pc, #0x68]
  00b60	e59f006c	 ldr         r0, [pc, #0x6C]
  00b64	eb000000	 bl          NKDbgPrintfW
  00b68	e3a03001	 mov         r3, #1
  00b6c	e58d3000	 str         r3, [sp]
  00b70	ea000001	 b           |$LN4@SetTxChann|
  00b74		 |$LN3@SetTxChann|
  00b74	e3a03000	 mov         r3, #0
  00b78	e58d3000	 str         r3, [sp]
  00b7c		 |$LN4@SetTxChann|

; 374  : 
; 375  :     mcbsp_ConfigTDMTxChannels(m_pDevice);

  00b7c	e59d3010	 ldr         r3, [sp, #0x10]
  00b80	e2833004	 add         r3, r3, #4
  00b84	e5930000	 ldr         r0, [r3]
  00b88	eb000000	 bl          mcbsp_ConfigTDMTxChannels

; 376  : 
; 377  :     DEBUGMSG(ZONE_FUNCTION, (L"MCP:-%S\r\n", __FUNCTION__));

  00b8c	e59f303c	 ldr         r3, [pc, #0x3C]
  00b90	e5933440	 ldr         r3, [r3, #0x440]
  00b94	e3130004	 tst         r3, #4
  00b98	0a000005	 beq         |$LN5@SetTxChann|
  00b9c	e59f1028	 ldr         r1, [pc, #0x28]
  00ba0	e59f0020	 ldr         r0, [pc, #0x20]
  00ba4	eb000000	 bl          NKDbgPrintfW
  00ba8	e3a03001	 mov         r3, #1
  00bac	e58d3004	 str         r3, [sp, #4]
  00bb0	ea000001	 b           |$LN6@SetTxChann|
  00bb4		 |$LN5@SetTxChann|
  00bb4	e3a03000	 mov         r3, #0
  00bb8	e58d3004	 str         r3, [sp, #4]
  00bbc		 |$LN6@SetTxChann|

; 378  : }

  00bbc	e28dd008	 add         sp, sp, #8
  00bc0	e89d6000	 ldmia       sp, {sp, lr}
  00bc4	e12fff1e	 bx          lr
  00bc8		 |$LN10@SetTxChann|
  00bc8		 |$LN11@SetTxChann|
  00bc8	00000000	 DCD         |??_C@_1BE@LFFACMJN@?$AAM?$AAC?$AAP?$AA?3?$AA?9?$AA?$CF?$AAS?$AA?$AN?$AA?6?$AA?$AA@|
  00bcc		 |$LN12@SetTxChann|
  00bcc	00000000	 DCD         |??_C@_0CF@BDLNFNLP@TDMProfile_t?3?3SetTxChannelsReque@|
  00bd0		 |$LN13@SetTxChann|
  00bd0	00000000	 DCD         |dpCurSettings|
  00bd4		 |$LN14@SetTxChann|
  00bd4	00000000	 DCD         |??_C@_1BE@FKGNIJHN@?$AAM?$AAC?$AAP?$AA?3?$AA?$CL?$AA?$CF?$AAS?$AA?$AN?$AA?6?$AA?$AA@|
  00bd8		 |$M36721|

			 ENDP  ; |?SetTxChannelsRequested@TDMProfile_t@@UAAXXZ|, TDMProfile_t::SetTxChannelsRequested

	EXPORT	|??_C@_0CF@JHJOMAGK@TDMProfile_t?3?3SetRxChannelsReque@| [ DATA ] ; `string'
	EXPORT	|?SetRxChannelsRequested@TDMProfile_t@@UAAXXZ| ; TDMProfile_t::SetRxChannelsRequested
	IMPORT	|mcbsp_ConfigTDMRxChannels|

  00080			 AREA	 |.pdata|, PDATA
|$T36737| DCD	|$LN9@SetRxChann|
	DCD	0x40002704

  00000			 AREA	 |.rdata|, DATA, READONLY
|??_C@_0CF@JHJOMAGK@TDMProfile_t?3?3SetRxChannelsReque@| DCB "TDMProfile_"
	DCB	"t::SetRxChannelsRequested", 0x0	; `string'
; Function compile flags: /Odtp

  00bd8			 AREA	 |.text|, CODE, ARM

  00bd8		 |?SetRxChannelsRequested@TDMProfile_t@@UAAXXZ| PROC ; TDMProfile_t::SetRxChannelsRequested

; 387  : {

  00bd8		 |$LN9@SetRxChann|
  00bd8	e1a0c00d	 mov         r12, sp
  00bdc	e92d0001	 stmdb       sp!, {r0}
  00be0	e92d5000	 stmdb       sp!, {r12, lr}
  00be4	e24dd008	 sub         sp, sp, #8
  00be8		 |$M36734|

; 388  :     DEBUGMSG(ZONE_FUNCTION, (L"MCP:+%S\r\n", __FUNCTION__));

  00be8	e59f307c	 ldr         r3, [pc, #0x7C]
  00bec	e5933440	 ldr         r3, [r3, #0x440]
  00bf0	e3130004	 tst         r3, #4
  00bf4	0a000005	 beq         |$LN3@SetRxChann|
  00bf8	e59f1068	 ldr         r1, [pc, #0x68]
  00bfc	e59f006c	 ldr         r0, [pc, #0x6C]
  00c00	eb000000	 bl          NKDbgPrintfW
  00c04	e3a03001	 mov         r3, #1
  00c08	e58d3000	 str         r3, [sp]
  00c0c	ea000001	 b           |$LN4@SetRxChann|
  00c10		 |$LN3@SetRxChann|
  00c10	e3a03000	 mov         r3, #0
  00c14	e58d3000	 str         r3, [sp]
  00c18		 |$LN4@SetRxChann|

; 389  : 
; 390  :     mcbsp_ConfigTDMRxChannels(m_pDevice);

  00c18	e59d3010	 ldr         r3, [sp, #0x10]
  00c1c	e2833004	 add         r3, r3, #4
  00c20	e5930000	 ldr         r0, [r3]
  00c24	eb000000	 bl          mcbsp_ConfigTDMRxChannels

; 391  : 
; 392  :     DEBUGMSG(ZONE_FUNCTION, (L"MCP:-%S\r\n", __FUNCTION__));

  00c28	e59f303c	 ldr         r3, [pc, #0x3C]
  00c2c	e5933440	 ldr         r3, [r3, #0x440]
  00c30	e3130004	 tst         r3, #4
  00c34	0a000005	 beq         |$LN5@SetRxChann|
  00c38	e59f1028	 ldr         r1, [pc, #0x28]
  00c3c	e59f0020	 ldr         r0, [pc, #0x20]
  00c40	eb000000	 bl          NKDbgPrintfW
  00c44	e3a03001	 mov         r3, #1
  00c48	e58d3004	 str         r3, [sp, #4]
  00c4c	ea000001	 b           |$LN6@SetRxChann|
  00c50		 |$LN5@SetRxChann|
  00c50	e3a03000	 mov         r3, #0
  00c54	e58d3004	 str         r3, [sp, #4]
  00c58		 |$LN6@SetRxChann|

; 393  : }

  00c58	e28dd008	 add         sp, sp, #8
  00c5c	e89d6000	 ldmia       sp, {sp, lr}
  00c60	e12fff1e	 bx          lr
  00c64		 |$LN10@SetRxChann|
  00c64		 |$LN11@SetRxChann|
  00c64	00000000	 DCD         |??_C@_1BE@LFFACMJN@?$AAM?$AAC?$AAP?$AA?3?$AA?9?$AA?$CF?$AAS?$AA?$AN?$AA?6?$AA?$AA@|
  00c68		 |$LN12@SetRxChann|
  00c68	00000000	 DCD         |??_C@_0CF@JHJOMAGK@TDMProfile_t?3?3SetRxChannelsReque@|
  00c6c		 |$LN13@SetRxChann|
  00c6c	00000000	 DCD         |dpCurSettings|
  00c70		 |$LN14@SetRxChann|
  00c70	00000000	 DCD         |??_C@_1BE@FKGNIJHN@?$AAM?$AAC?$AAP?$AA?3?$AA?$CL?$AA?$CF?$AAS?$AA?$AN?$AA?6?$AA?$AA@|
  00c74		 |$M36735|

			 ENDP  ; |?SetRxChannelsRequested@TDMProfile_t@@UAAXXZ|, TDMProfile_t::SetRxChannelsRequested

	END
