; Listing generated by Microsoft (R) Optimizing Compiler Version 14.01.60511.01 

	TTL	C:\WINCE600\PLATFORM\COMMON\SRC\SOC\OMAP2420_MS_V1\CEDDK\BASE\base.c
	CODE32

  00000			 AREA	 |.drectve|, DRECTVE
	DCB	"-defaultlib:LIBCMT "
	DCB	"-defaultlib:OLDNAMES "

	EXPORT	|DllEntry|
	IMPORT	|DisableThreadLibraryCalls|

  00000			 AREA	 |.pdata|, PDATA
|$T40120| DCD	|$LN6@DllEntry|
	DCD	0x40000f04
; Function compile flags: /Odtp
; File c:\wince600\platform\common\src\soc\omap2420_ms_v1\ceddk\base\base.c

  00000			 AREA	 |.text|, CODE, ARM

  00000		 |DllEntry| PROC

; 30   : {

  00000		 |$LN6@DllEntry|
  00000	e1a0c00d	 mov         r12, sp
  00004	e92d0007	 stmdb       sp!, {r0 - r2}
  00008	e92d5000	 stmdb       sp!, {r12, lr}
  0000c	e24dd004	 sub         sp, sp, #4
  00010		 |$M40117|

; 31   :    if (reason == DLL_PROCESS_ATTACH) {

  00010	e59d3010	 ldr         r3, [sp, #0x10]
  00014	e3530001	 cmp         r3, #1
  00018	1a000001	 bne         |$LN1@DllEntry|

; 32   :       DisableThreadLibraryCalls((HMODULE)hInstance);

  0001c	e59d000c	 ldr         r0, [sp, #0xC]
  00020	eb000000	 bl          DisableThreadLibraryCalls
  00024		 |$LN1@DllEntry|

; 33   :    }
; 34   :    return TRUE;

  00024	e3a03001	 mov         r3, #1
  00028	e58d3000	 str         r3, [sp]

; 35   : }

  0002c	e59d0000	 ldr         r0, [sp]
  00030	e28dd004	 add         sp, sp, #4
  00034	e89d6000	 ldmia       sp, {sp, lr}
  00038	e12fff1e	 bx          lr
  0003c		 |$M40118|

			 ENDP  ; |DllEntry|

	END
