; Listing generated by Microsoft (R) Optimizing Compiler Version 14.01.60511.01 

	TTL	C:\WINCE600\PLATFORM\EVM_OMAP3530\SRC\DRIVERS\BACKLIGHT\gpio_backlight.cpp
	CODE32

  00000			 AREA	 |.drectve|, DRECTVE
	DCB	"-defaultlib:LIBCMT "
	DCB	"-defaultlib:OLDNAMES "

	EXPORT	|??_C@_1BE@MAKEJFGC@?$AAP?$AAo?$AAw?$AAe?$AAr?$AAM?$AAa?$AAs?$AAk?$AA?$AA@| [ DATA ] ; `string'
	EXPORT	|??_C@_19IAPNKDAH@?$AAG?$AAp?$AAi?$AAo?$AA?$AA@| [ DATA ] ; `string'

  00000			 AREA	 |.rdata|, DATA, READONLY
|s_deviceRegParams| DCD |??_C@_19IAPNKDAH@?$AAG?$AAp?$AAi?$AAo?$AA?$AA@|
	DCD	0x1
	DCD	0x0
	DCD	0x24
	DCD	0x4
	DCD	0xffffffff
	DCD	|??_C@_1BE@MAKEJFGC@?$AAP?$AAo?$AAw?$AAe?$AAr?$AAM?$AAa?$AAs?$AAk?$AA?$AA@|
	DCD	0x1
	DCD	0x1
	DCD	0x28
	DCD	0x4
	DCD	0x0

  00000			 AREA	 |.rdata|, DATA, READONLY
|??_C@_1BE@MAKEJFGC@?$AAP?$AAo?$AAw?$AAe?$AAr?$AAM?$AAa?$AAs?$AAk?$AA?$AA@| DCB "P"
	DCB	0x0, "o", 0x0, "w", 0x0, "e", 0x0, "r", 0x0, "M", 0x0, "a"
	DCB	0x0, "s", 0x0, "k", 0x0, 0x0, 0x0	; `string'

  00000			 AREA	 |.rdata|, DATA, READONLY
|??_C@_19IAPNKDAH@?$AAG?$AAp?$AAi?$AAo?$AA?$AA@| DCB "G", 0x0, "p", 0x0, "i"
	DCB	0x0, "o", 0x0, 0x0, 0x0			; `string'
	EXPORT	|??0CBacklightRoot@@QAA@XZ|		; CBacklightRoot::CBacklightRoot
	EXPORT	|??_7CBacklightRoot@@6B@| [ DATA ]	; CBacklightRoot::`vftable'
	EXPORT	|?Initialize@CBacklightRoot@@UAAHPBG@Z|	; CBacklightRoot::Initialize
	EXPORT	|?Uninitialize@CBacklightRoot@@UAAHXZ|	; CBacklightRoot::Uninitialize
	EXPORT	|?SetPowerState@CBacklightRoot@@UAAHW4_CEDEVICE_POWER_STATE@@@Z| ; CBacklightRoot::SetPowerState
	EXPORT	|?BacklightGetSupportedStates@CBacklightRoot@@UAAEXZ| ; CBacklightRoot::BacklightGetSupportedStates

  00000			 AREA	 |.pdata|, PDATA
|$T38898| DCD	|$LN5@CBacklight|
	DCD	0x40000500

  00000			 AREA	 |.rdata|, DATA, READONLY
|??_7CBacklightRoot@@6B@| DCD |?Initialize@CBacklightRoot@@UAAHPBG@Z| ; CBacklightRoot::`vftable'
	DCD	|?Uninitialize@CBacklightRoot@@UAAHXZ|
	DCD	|?SetPowerState@CBacklightRoot@@UAAHW4_CEDEVICE_POWER_STATE@@@Z|
	DCD	|?BacklightGetSupportedStates@CBacklightRoot@@UAAEXZ|
; Function compile flags: /Ogspy

  00000			 AREA	 |.text|, CODE, ARM

  00000		 |??0CBacklightRoot@@QAA@XZ| PROC	; CBacklightRoot::CBacklightRoot
  00000		 |$LN5@CBacklight|
  00000		 |$M38895|
  00000	e1a02000	 mov         r2, r0
  00004	e59f3004	 ldr         r3, [pc, #4]
  00008	e5823000	 str         r3, [r2]
  0000c	e12fff1e	 bx          lr
  00010		 |$LN6@CBacklight|
  00010		 |$LN7@CBacklight|
  00010	00000000	 DCD         |??_7CBacklightRoot@@6B@|
  00014		 |$M38896|

			 ENDP  ; |??0CBacklightRoot@@QAA@XZ|, CBacklightRoot::CBacklightRoot

; File c:\wince600\platform\common\src\soc\common_ti_v1\common_ti\inc\backlight_class.h

  00000			 AREA	 |.pdata|, PDATA
|$T38909| DCD	|$LN5@Initialize|
	DCD	0x40000200
; Function compile flags: /Ogspy

  00000			 AREA	 |.text|, CODE, ARM

  00000		 |?Initialize@CBacklightRoot@@UAAHPBG@Z| PROC ; CBacklightRoot::Initialize

; 44   :     virtual BOOL Initialize(LPCTSTR szContext)              {UNREFERENCED_PARAMETER(szContext); return TRUE;}

  00000		 |$LN5@Initialize|
  00000		 |$M38906|
  00000	e3a00001	 mov         r0, #1
  00004	e12fff1e	 bx          lr
  00008		 |$M38907|

			 ENDP  ; |?Initialize@CBacklightRoot@@UAAHPBG@Z|, CBacklightRoot::Initialize


  00000			 AREA	 |.pdata|, PDATA
|$T38918| DCD	|$LN5@Uninitiali|
	DCD	0x40000200
; Function compile flags: /Ogspy

  00000			 AREA	 |.text|, CODE, ARM

  00000		 |?Uninitialize@CBacklightRoot@@UAAHXZ| PROC ; CBacklightRoot::Uninitialize

; 45   :     virtual BOOL Uninitialize()                             {return TRUE;}

  00000		 |$LN5@Uninitiali|
  00000		 |$M38915|
  00000	e3a00001	 mov         r0, #1
  00004	e12fff1e	 bx          lr
  00008		 |$M38916|

			 ENDP  ; |?Uninitialize@CBacklightRoot@@UAAHXZ|, CBacklightRoot::Uninitialize


  00000			 AREA	 |.pdata|, PDATA
|$T38927| DCD	|$LN5@SetPowerSt|
	DCD	0x40000200
; Function compile flags: /Ogspy

  00000			 AREA	 |.text|, CODE, ARM

  00000		 |?SetPowerState@CBacklightRoot@@UAAHW4_CEDEVICE_POWER_STATE@@@Z| PROC ; CBacklightRoot::SetPowerState

; 46   :     virtual BOOL SetPowerState(CEDEVICE_POWER_STATE power)  {UNREFERENCED_PARAMETER(power); return TRUE;}

  00000		 |$LN5@SetPowerSt|
  00000		 |$M38924|
  00000	e3a00001	 mov         r0, #1
  00004	e12fff1e	 bx          lr
  00008		 |$M38925|

			 ENDP  ; |?SetPowerState@CBacklightRoot@@UAAHW4_CEDEVICE_POWER_STATE@@@Z|, CBacklightRoot::SetPowerState


  00000			 AREA	 |.pdata|, PDATA
|$T38936| DCD	|$LN5@BacklightG|
	DCD	0x40000200
; Function compile flags: /Ogspy

  00000			 AREA	 |.text|, CODE, ARM

  00000		 |?BacklightGetSupportedStates@CBacklightRoot@@UAAEXZ| PROC ; CBacklightRoot::BacklightGetSupportedStates

; 47   :     virtual UCHAR BacklightGetSupportedStates( )            { return 0;}

  00000		 |$LN5@BacklightG|
  00000		 |$M38933|
  00000	e3a00000	 mov         r0, #0
  00004	e12fff1e	 bx          lr
  00008		 |$M38934|

			 ENDP  ; |?BacklightGetSupportedStates@CBacklightRoot@@UAAEXZ|, CBacklightRoot::BacklightGetSupportedStates

	EXPORT	|?Initialize@GPIO_Backlight@@UAAHPBG@Z|	; GPIO_Backlight::Initialize
	IMPORT	|GPIOSetMode|
	IMPORT	|GPIOOpen|
	IMPORT	|GetDeviceRegistryParams|
	IMPORT	|?Initialize@TLED_Backlight@@UAAHPBG@Z|	; TLED_Backlight::Initialize
; File c:\wince600\platform\evm_omap3530\src\drivers\backlight\gpio_backlight.cpp

  00000			 AREA	 |.pdata|, PDATA
|$T38949| DCD	|$LN14@Initialize@2|
	DCD	0x40001d01
; Function compile flags: /Ogspy

  00000			 AREA	 |.text|, CODE, ARM

  00000		 |?Initialize@GPIO_Backlight@@UAAHPBG@Z| PROC ; GPIO_Backlight::Initialize

; 48   : {

  00000		 |$LN14@Initialize@2|
  00000	e92d4070	 stmdb       sp!, {r4 - r6, lr}
  00004		 |$M38946|
  00004	e1a06001	 mov         r6, r1
  00008	e1a05000	 mov         r5, r0

; 49   :     DEBUGMSG(ZONE_FUNCTION, (
; 50   :         L"+GPIO_Backlight::Initialize(%s)\r\n", szContext
; 51   :         ));
; 52   : 
; 53   :     BOOL rc = FALSE;
; 54   : 
; 55   :     if (ParentClass::Initialize(szContext) == FALSE)

  0000c	e3a04000	 mov         r4, #0
  00010	eb000000	 bl          |?Initialize@TLED_Backlight@@UAAHPBG@Z|
  00014	e3500000	 cmp         r0, #0
  00018	0a000011	 beq         |$cleanUp$38794|

; 56   :         {
; 57   :         DEBUGMSG(ZONE_ERROR, (L"ERROR: GPIO_Backlight::Initialize: "
; 58   :             L"Parent class failed to initialize\r\n"
; 59   :             ));
; 60   :         goto cleanUp;
; 61   :         }
; 62   : 
; 63   :     // Read device parameters
; 64   :     if (GetDeviceRegistryParams(
; 65   :             szContext, this, dimof(s_deviceRegParams), s_deviceRegParams
; 66   :             ) != ERROR_SUCCESS)

  0001c	e59f304c	 ldr         r3, [pc, #0x4C]
  00020	e3a02002	 mov         r2, #2
  00024	e1a01005	 mov         r1, r5
  00028	e1a00006	 mov         r0, r6
  0002c	eb000000	 bl          GetDeviceRegistryParams
  00030	e3500000	 cmp         r0, #0
  00034	1a00000a	 bne         |$cleanUp$38794|

; 67   :         {
; 68   :         DEBUGMSG(ZONE_ERROR, (L"ERROR: GPIO_Backlight::Initialize: "
; 69   :             L"Failed read gpio driver registry parameters\r\n"
; 70   :             ));
; 71   :         goto cleanUp;
; 72   :         }
; 73   :         
; 74   :     // GPIO pin not configured, tled only
; 75   :     if (m_gpioId == GPIO_NOT_USED)

  00038	e5953024	 ldr         r3, [r5, #0x24]
  0003c	e3730001	 cmn         r3, #1

; 97   : cleanUp:

  00040	0a000006	 beq         |$LN11@Initialize@2|
  00044	eb000000	 bl          GPIOOpen
  00048	e3500000	 cmp         r0, #0
  0004c	e5850020	 str         r0, [r5, #0x20]
  00050	0a000003	 beq         |$cleanUp$38794|
  00054	e5951024	 ldr         r1, [r5, #0x24]
  00058	e3a02000	 mov         r2, #0
  0005c	eb000000	 bl          GPIOSetMode
  00060		 |$LN11@Initialize@2|

; 76   :     {
; 77   :         DEBUGMSG(ZONE_FUNCTION, (
; 78   :             L"GPIO_Backlight::Initialize: No GPIO pin allocated, continuing...\r\n"
; 79   :             ));
; 80   :         rc = TRUE;
; 81   :         goto cleanUp;
; 82   :     }
; 83   : 
; 84   :     m_hGpio = GPIOOpen();
; 85   :     if (m_hGpio == NULL)
; 86   :         {
; 87   :         DEBUGMSG(ZONE_ERROR, (L"ERROR: GPIO_Backlight::Initialize: "
; 88   :             L"Failed allocate GPIO handle\r\n"
; 89   :             ));
; 90   :         goto cleanUp;
; 91   :         }
; 92   : 
; 93   :     // setup for output mode
; 94   :     GPIOSetMode(m_hGpio, m_gpioId, GPIO_DIR_OUTPUT);
; 95   : 
; 96   :     rc = TRUE;

  00060	e3a04001	 mov         r4, #1
  00064		 |$cleanUp$38794|

; 98   : 
; 99   :     DEBUGMSG(ZONE_FUNCTION, (
; 100  :         L"-GPIO_Backlight::Initialize(%s) == %d\r\n", szContext, rc
; 101  :         ));
; 102  : 
; 103  :     return rc;
; 104  : }

  00064	e1a00004	 mov         r0, r4
  00068	e8bd4070	 ldmia       sp!, {r4 - r6, lr}
  0006c	e12fff1e	 bx          lr
  00070		 |$LN15@Initialize@2|
  00070		 |$LN16@Initialize@2|
  00070	00000000	 DCD         |s_deviceRegParams|
  00074		 |$M38947|

			 ENDP  ; |?Initialize@GPIO_Backlight@@UAAHPBG@Z|, GPIO_Backlight::Initialize

	EXPORT	|?Uninitialize@GPIO_Backlight@@UAAHXZ|	; GPIO_Backlight::Uninitialize
	IMPORT	|GPIOClose|
	IMPORT	|?Uninitialize@TLED_Backlight@@UAAHXZ|	; TLED_Backlight::Uninitialize

  00000			 AREA	 |.pdata|, PDATA
|$T38961| DCD	|$LN6@Uninitiali@2|
	DCD	0x40000d01
; Function compile flags: /Ogspy

  00000			 AREA	 |.text|, CODE, ARM

  00000		 |?Uninitialize@GPIO_Backlight@@UAAHXZ| PROC ; GPIO_Backlight::Uninitialize

; 115  : {

  00000		 |$LN6@Uninitiali@2|
  00000	e92d4010	 stmdb       sp!, {r4, lr}
  00004		 |$M38958|
  00004	e1a04000	 mov         r4, r0

; 116  :     DEBUGMSG(ZONE_FUNCTION, (
; 117  :         L"+GPIO_Backlight::Uninitialize()\r\n"
; 118  :         ));
; 119  : 
; 120  :     ParentClass::Uninitialize();

  00008	eb000000	 bl          |?Uninitialize@TLED_Backlight@@UAAHXZ|

; 121  : 
; 122  :     // release gpio handle
; 123  :     if (m_hGpio != NULL)

  0000c	e5943020	 ldr         r3, [r4, #0x20]
  00010	e3530000	 cmp         r3, #0
  00014	0a000003	 beq         |$LN1@Uninitiali@2|

; 124  :         {
; 125  :         GPIOClose(m_hGpio);

  00018	e1a00003	 mov         r0, r3
  0001c	eb000000	 bl          GPIOClose

; 126  :         m_hGpio = NULL;

  00020	e3a03000	 mov         r3, #0
  00024	e5843020	 str         r3, [r4, #0x20]
  00028		 |$LN1@Uninitiali@2|

; 127  :         }
; 128  : 
; 129  :     DEBUGMSG(ZONE_FUNCTION, (
; 130  :         L"-GPIO_Backlight::Uninitialize()\r\n"
; 131  :         ));
; 132  : 
; 133  :     return TRUE;

  00028	e3a00001	 mov         r0, #1

; 134  : }

  0002c	e8bd4010	 ldmia       sp!, {r4, lr}
  00030	e12fff1e	 bx          lr
  00034		 |$M38959|

			 ENDP  ; |?Uninitialize@GPIO_Backlight@@UAAHXZ|, GPIO_Backlight::Uninitialize

	EXPORT	|?SetPowerState@GPIO_Backlight@@UAAHW4_CEDEVICE_POWER_STATE@@@Z| ; GPIO_Backlight::SetPowerState
	IMPORT	|GPIOSetBit|
	IMPORT	|GPIOClrBit|
	IMPORT	|?SetPowerState@TLED_Backlight@@UAAHW4_CEDEVICE_POWER_STATE@@@Z| ; TLED_Backlight::SetPowerState

  00000			 AREA	 |.pdata|, PDATA
|$T38972| DCD	|$LN11@SetPowerSt@2|
	DCD	0x40001501
; Function compile flags: /Ogspy

  00000			 AREA	 |.text|, CODE, ARM

  00000		 |?SetPowerState@GPIO_Backlight@@UAAHW4_CEDEVICE_POWER_STATE@@@Z| PROC ; GPIO_Backlight::SetPowerState

; 147  : {

  00000		 |$LN11@SetPowerSt@2|
  00000	e92d4030	 stmdb       sp!, {r4, r5, lr}
  00004		 |$M38969|
  00004	e1a04001	 mov         r4, r1
  00008	e1a05000	 mov         r5, r0

; 148  :     DEBUGMSG(ZONE_FUNCTION, (
; 149  :         L"+GPIO_Backlight::SetPowerState(0x%08X)\r\n", power
; 150  :         ));
; 151  : 
; 152  :     ParentClass::SetPowerState(power);

  0000c	eb000000	 bl          |?SetPowerState@TLED_Backlight@@UAAHW4_CEDEVICE_POWER_STATE@@@Z|

; 153  : 
; 154  :     if (m_gpioId == GPIO_NOT_USED)

  00010	e5951024	 ldr         r1, [r5, #0x24]
  00014	e3710001	 cmn         r1, #1
  00018	0a00000a	 beq         |$cleanUp$38818|

; 155  :         goto cleanUp;
; 156  :     
; 157  :     switch (power)

  0001c	e3540000	 cmp         r4, #0
  00020	4a000008	 bmi         |$cleanUp$38818|
  00024	e3540001	 cmp         r4, #1
  00028	da000004	 ble         |$LN2@SetPowerSt@2|
  0002c	e3540004	 cmp         r4, #4
  00030	ca000004	 bgt         |$cleanUp$38818|

; 162  :             break;
; 163  :             
; 164  :         case D2:
; 165  :         case D3:
; 166  :         case D4:
; 167  :             GPIOClrBit(m_hGpio, m_gpioId);

  00034	e5950020	 ldr         r0, [r5, #0x20]
  00038	eb000000	 bl          GPIOClrBit

; 168  :             break;

  0003c	ea000001	 b           |$cleanUp$38818|
  00040		 |$LN2@SetPowerSt@2|

; 158  :         {
; 159  :         case D0:
; 160  :         case D1:
; 161  :             GPIOSetBit(m_hGpio, m_gpioId);

  00040	e5950020	 ldr         r0, [r5, #0x20]
  00044	eb000000	 bl          GPIOSetBit
  00048		 |$cleanUp$38818|

; 169  :         }    
; 170  : 
; 171  : cleanUp:
; 172  :     DEBUGMSG(ZONE_FUNCTION, (
; 173  :         L"-GPIO_Backlight::SetPowerState(0x%08X)\r\n", power
; 174  :         ));
; 175  :     
; 176  :     return TRUE;

  00048	e3a00001	 mov         r0, #1

; 177  : }

  0004c	e8bd4030	 ldmia       sp!, {r4, r5, lr}
  00050	e12fff1e	 bx          lr
  00054		 |$M38970|

			 ENDP  ; |?SetPowerState@GPIO_Backlight@@UAAHW4_CEDEVICE_POWER_STATE@@@Z|, GPIO_Backlight::SetPowerState

	EXPORT	|?BacklightGetSupportedStates@GPIO_Backlight@@UAAEXZ| ; GPIO_Backlight::BacklightGetSupportedStates

  00000			 AREA	 |.pdata|, PDATA
|$T38982| DCD	|$LN5@BacklightG@2|
	DCD	0x40000300
; Function compile flags: /Ogspy

  00000			 AREA	 |.text|, CODE, ARM

  00000		 |?BacklightGetSupportedStates@GPIO_Backlight@@UAAEXZ| PROC ; GPIO_Backlight::BacklightGetSupportedStates

; 185  : {

  00000		 |$LN5@BacklightG@2|
  00000		 |$M38979|

; 186  : 
; 187  :     DEBUGMSG( ZONE_INFO, ( 
; 188  :         L"Backlight supported states bitmap: 0x%x\r\n",m_powerMask 
; 189  :     ));
; 190  : 
; 191  :     return (UCHAR) m_powerMask;

  00000	e5903028	 ldr         r3, [r0, #0x28]
  00004	e20300ff	 and         r0, r3, #0xFF

; 192  : }

  00008	e12fff1e	 bx          lr
  0000c		 |$M38980|

			 ENDP  ; |?BacklightGetSupportedStates@GPIO_Backlight@@UAAEXZ|, GPIO_Backlight::BacklightGetSupportedStates

	EXPORT	|??0TLED_Backlight@@QAA@XZ|		; TLED_Backlight::TLED_Backlight
	EXPORT	|??_7TLED_Backlight@@6B@| [ DATA ]	; TLED_Backlight::`vftable'
; File c:\wince600\platform\evm_omap3530\src\drivers\backlight\bsp_backlight_class.h

  00000			 AREA	 |.pdata|, PDATA
|$T38995| DCD	|$LN7@TLED_Backl|
	DCD	0x40000800

  00000			 AREA	 |.rdata|, DATA, READONLY
|??_7TLED_Backlight@@6B@| DCD |?Initialize@TLED_Backlight@@UAAHPBG@Z| ; TLED_Backlight::`vftable'
	DCD	|?Uninitialize@TLED_Backlight@@UAAHXZ|
	DCD	|?SetPowerState@TLED_Backlight@@UAAHW4_CEDEVICE_POWER_STATE@@@Z|
	DCD	|?BacklightGetSupportedStates@CBacklightRoot@@UAAEXZ|
; Function compile flags: /Ogspy

  00000			 AREA	 |.text|, CODE, ARM

  00000		 |??0TLED_Backlight@@QAA@XZ| PROC	; TLED_Backlight::TLED_Backlight

; 43   :     TLED_Backlight() : m_hTled(NULL), m_channel((DWORD) -1)     {};

  00000		 |$LN7@TLED_Backl|
  00000		 |$M38992|
  00000	e59f3014	 ldr         r3, [pc, #0x14]
  00004	e3a02000	 mov         r2, #0
  00008	e3e01000	 mvn         r1, #0
  0000c	e5803000	 str         r3, [r0]
  00010	e5802004	 str         r2, [r0, #4]
  00014	e5801008	 str         r1, [r0, #8]
  00018	e12fff1e	 bx          lr
  0001c		 |$LN8@TLED_Backl|
  0001c		 |$LN9@TLED_Backl|
  0001c	00000000	 DCD         |??_7TLED_Backlight@@6B@|
  00020		 |$M38993|

			 ENDP  ; |??0TLED_Backlight@@QAA@XZ|, TLED_Backlight::TLED_Backlight

	EXPORT	|??0GPIO_Backlight@@QAA@XZ|		; GPIO_Backlight::GPIO_Backlight
	EXPORT	|??_7GPIO_Backlight@@6B@| [ DATA ]	; GPIO_Backlight::`vftable'

  00000			 AREA	 |.pdata|, PDATA
|$T39015| DCD	|$LN9@GPIO_Backl|
	DCD	0x40000a00

  00000			 AREA	 |.rdata|, DATA, READONLY
|??_7GPIO_Backlight@@6B@| DCD |?Initialize@GPIO_Backlight@@UAAHPBG@Z| ; GPIO_Backlight::`vftable'
	DCD	|?Uninitialize@GPIO_Backlight@@UAAHXZ|
	DCD	|?SetPowerState@GPIO_Backlight@@UAAHW4_CEDEVICE_POWER_STATE@@@Z|
	DCD	|?BacklightGetSupportedStates@GPIO_Backlight@@UAAEXZ|
; Function compile flags: /Ogspy

  00000			 AREA	 |.text|, CODE, ARM

  00000		 |??0GPIO_Backlight@@QAA@XZ| PROC	; GPIO_Backlight::GPIO_Backlight

; 79   :     GPIO_Backlight() : m_hGpio(NULL), m_gpioId((DWORD) -1)      {};

  00000		 |$LN9@GPIO_Backl|
  00000		 |$M39012|
  00000	e59f301c	 ldr         r3, [pc, #0x1C]
  00004	e3a02000	 mov         r2, #0
  00008	e3e01000	 mvn         r1, #0
  0000c	e5803000	 str         r3, [r0]
  00010	e5802004	 str         r2, [r0, #4]
  00014	e5801008	 str         r1, [r0, #8]
  00018	e5802020	 str         r2, [r0, #0x20]
  0001c	e5801024	 str         r1, [r0, #0x24]
  00020	e12fff1e	 bx          lr
  00024		 |$LN10@GPIO_Backl|
  00024		 |$LN11@GPIO_Backl|
  00024	00000000	 DCD         |??_7GPIO_Backlight@@6B@|
  00028		 |$M39013|

			 ENDP  ; |??0GPIO_Backlight@@QAA@XZ|, GPIO_Backlight::GPIO_Backlight

	EXPORT	|?GetBacklightObject@@YAPAVCBacklightRoot@@XZ| ; GetBacklightObject
	IMPORT	|??2@YAPAXI@Z|				; operator new

  00000			 AREA	 |.pdata|, PDATA
|$T39045| DCD	|$LN13@GetBacklig|
	DCD	0x40001301
; Function compile flags: /Ogspy
; File c:\wince600\platform\evm_omap3530\src\drivers\backlight\gpio_backlight.cpp

  00000			 AREA	 |.text|, CODE, ARM

  00000		 |?GetBacklightObject@@YAPAVCBacklightRoot@@XZ| PROC ; GetBacklightObject

; 196  : {

  00000		 |$LN13@GetBacklig|
  00000	e52de004	 str         lr, [sp, #-4]!
  00004		 |$M39042|

; 197  :     return new GPIO_Backlight();

  00004	e3a0002c	 mov         r0, #0x2C
  00008	eb000000	 bl          |??2@YAPAXI@Z|
  0000c	e3500000	 cmp         r0, #0
  00010	0a000009	 beq         |$LN3@GetBacklig|
  00014	e59f302c	 ldr         r3, [pc, #0x2C]
  00018	e3a02000	 mov         r2, #0
  0001c	e3e01000	 mvn         r1, #0
  00020	e5803000	 str         r3, [r0]
  00024	e5802004	 str         r2, [r0, #4]
  00028	e5801008	 str         r1, [r0, #8]
  0002c	e5802020	 str         r2, [r0, #0x20]
  00030	e5801024	 str         r1, [r0, #0x24]

; 198  : }

  00034	e49de004	 ldr         lr, [sp], #4
  00038	e12fff1e	 bx          lr
  0003c		 |$LN3@GetBacklig|

; 197  :     return new GPIO_Backlight();

  0003c	e3a00000	 mov         r0, #0

; 198  : }

  00040	e49de004	 ldr         lr, [sp], #4
  00044	e12fff1e	 bx          lr
  00048		 |$LN14@GetBacklig|
  00048		 |$LN15@GetBacklig|
  00048	00000000	 DCD         |??_7GPIO_Backlight@@6B@|
  0004c		 |$M39043|

			 ENDP  ; |?GetBacklightObject@@YAPAVCBacklightRoot@@XZ|, GetBacklightObject

	END
