; Listing generated by Microsoft (R) Optimizing Compiler Version 14.01.60511.01 

	TTL	C:\WINCE600\PLATFORM\COMMON\SRC\SOC\COMMON_TI_V1\COMMON_TI\PM\DEVICEMEDIATOR\devicemediator.cpp
	CODE32

  00000			 AREA	 |.drectve|, DRECTVE
	DCB	"-defaultlib:LIBCMT "
	DCB	"-defaultlib:OLDNAMES "

	EXPORT	|?Initialize@DeviceMediator@@IAAHXZ|	; DeviceMediator::Initialize
	EXPORT	|??0DeviceMediator@@IAA@XZ|		; DeviceMediator::DeviceMediator
	EXPORT	|?CreateDeviceMediator@DeviceMediator@@SAPAV1@XZ| ; DeviceMediator::CreateDeviceMediator
	IMPORT	|??2@YAPAXI@Z|				; operator new
; File c:\wince600\platform\common\src\soc\common_ti_v1\common_ti\pm\devicemediator\devicemediator.cpp

  00000			 AREA	 |.bss|, NOINIT
|?_pDeviceMediator@?1??CreateDeviceMediator@DeviceMediator@@SAPAV2@XZ@4PAV2@A| % 0x4 ; `DeviceMediator::CreateDeviceMediator'::`2'::_pDeviceMediator

  00000			 AREA	 |.pdata|, PDATA
|$T33201| DCD	|$LN9@CreateDevi|
	DCD	0x40002802
; Function compile flags: /Odtp

  00000			 AREA	 |.text|, CODE, ARM

  00000		 |?CreateDeviceMediator@DeviceMediator@@SAPAV1@XZ| PROC ; DeviceMediator::CreateDeviceMediator

; 31   : {

  00000		 |$LN9@CreateDevi|
  00000	e52de004	 str         lr, [sp, #-4]!
  00004	e24dd014	 sub         sp, sp, #0x14
  00008		 |$M33198|

; 32   :     static DeviceMediator *_pDeviceMediator = NULL;
; 33   : 
; 34   :     // device mediator is a singleton
; 35   :     if (_pDeviceMediator == NULL)

  00008	e59f308c	 ldr         r3, [pc, #0x8C]
  0000c	e5933000	 ldr         r3, [r3]
  00010	e3530000	 cmp         r3, #0
  00014	1a000019	 bne         |$LN2@CreateDevi|

; 36   :         {
; 37   :         _pDeviceMediator = new DeviceMediator();

  00018	e3a0001c	 mov         r0, #0x1C
  0001c	eb000000	 bl          |??2@YAPAXI@Z|
  00020	e58d0008	 str         r0, [sp, #8]
  00024	e59d3008	 ldr         r3, [sp, #8]
  00028	e58d3000	 str         r3, [sp]
  0002c	e59d3000	 ldr         r3, [sp]
  00030	e3530000	 cmp         r3, #0
  00034	0a000005	 beq         |$LN5@CreateDevi|
  00038	e59d0000	 ldr         r0, [sp]
  0003c	eb000000	 bl          |??0DeviceMediator@@IAA@XZ|
  00040	e58d000c	 str         r0, [sp, #0xC]
  00044	e59d300c	 ldr         r3, [sp, #0xC]
  00048	e58d3010	 str         r3, [sp, #0x10]
  0004c	ea000001	 b           |$LN6@CreateDevi|
  00050		 |$LN5@CreateDevi|
  00050	e3a03000	 mov         r3, #0
  00054	e58d3010	 str         r3, [sp, #0x10]
  00058		 |$LN6@CreateDevi|
  00058	e59d2010	 ldr         r2, [sp, #0x10]
  0005c	e59f3038	 ldr         r3, [pc, #0x38]
  00060	e5832000	 str         r2, [r3]

; 38   : 
; 39   :         if (_pDeviceMediator)

  00064	e59f3030	 ldr         r3, [pc, #0x30]
  00068	e5933000	 ldr         r3, [r3]
  0006c	e3530000	 cmp         r3, #0
  00070	0a000002	 beq         |$LN1@CreateDevi|

; 40   :             _pDeviceMediator->Initialize();

  00074	e59f3020	 ldr         r3, [pc, #0x20]
  00078	e5930000	 ldr         r0, [r3]
  0007c	eb000000	 bl          |?Initialize@DeviceMediator@@IAAHXZ|
  00080		 |$LN1@CreateDevi|
  00080		 |$LN2@CreateDevi|

; 41   :         }
; 42   :     return _pDeviceMediator;

  00080	e59f3014	 ldr         r3, [pc, #0x14]
  00084	e5933000	 ldr         r3, [r3]
  00088	e58d3004	 str         r3, [sp, #4]

; 43   : }

  0008c	e59d0004	 ldr         r0, [sp, #4]
  00090	e28dd014	 add         sp, sp, #0x14
  00094	e49de004	 ldr         lr, [sp], #4
  00098	e12fff1e	 bx          lr
  0009c		 |$LN10@CreateDevi|
  0009c		 |$LN11@CreateDevi|
  0009c	00000000	 DCD         |?_pDeviceMediator@?1??CreateDeviceMediator@DeviceMediator@@SAPAV2@XZ@4PAV2@A|
  000a0		 |$M33199|

			 ENDP  ; |?CreateDeviceMediator@DeviceMediator@@SAPAV1@XZ|, DeviceMediator::CreateDeviceMediator

; File c:\wince600\platform\common\src\soc\common_ti_v1\common_ti\pm\devicemediator\devicemediator.h

  00000			 AREA	 |.pdata|, PDATA
|$T33210| DCD	|$LN5@DeviceMedi|
	DCD	0x40001204
; Function compile flags: /Odtp

  00000			 AREA	 |.text|, CODE, ARM

  00000		 |??0DeviceMediator@@IAA@XZ| PROC	; DeviceMediator::DeviceMediator

; 60   :         {

  00000		 |$LN5@DeviceMedi|
  00000	e1a0c00d	 mov         r12, sp
  00004	e92d0001	 stmdb       sp!, {r0}
  00008	e92d5000	 stmdb       sp!, {r12, lr}
  0000c	e24dd004	 sub         sp, sp, #4
  00010		 |$M33207|
  00010	e59d300c	 ldr         r3, [sp, #0xC]
  00014	e2832014	 add         r2, r3, #0x14
  00018	e3a03000	 mov         r3, #0
  0001c	e5823000	 str         r3, [r2]
  00020	e59d300c	 ldr         r3, [sp, #0xC]
  00024	e2832018	 add         r2, r3, #0x18
  00028	e3a03000	 mov         r3, #0
  0002c	e5823000	 str         r3, [r2]

; 61   :         }

  00030	e59d300c	 ldr         r3, [sp, #0xC]
  00034	e58d3000	 str         r3, [sp]
  00038	e59d0000	 ldr         r0, [sp]
  0003c	e28dd004	 add         sp, sp, #4
  00040	e89d6000	 ldmia       sp, {sp, lr}
  00044	e12fff1e	 bx          lr
  00048		 |$M33208|

			 ENDP  ; |??0DeviceMediator@@IAA@XZ|, DeviceMediator::DeviceMediator

	EXPORT	|?DeleteDeviceMediator@DeviceMediator@@SAXPAV1@@Z| ; DeviceMediator::DeleteDeviceMediator

  00008			 AREA	 |.pdata|, PDATA
|$T33217| DCD	|$LN5@DeleteDevi|
	DCD	0x40000503
; Function compile flags: /Odtp
; File c:\wince600\platform\common\src\soc\common_ti_v1\common_ti\pm\devicemediator\devicemediator.cpp

  000a0			 AREA	 |.text|, CODE, ARM

  000a0		 |?DeleteDeviceMediator@DeviceMediator@@SAXPAV1@@Z| PROC ; DeviceMediator::DeleteDeviceMediator

; 51   : {

  000a0		 |$LN5@DeleteDevi|
  000a0	e1a0c00d	 mov         r12, sp
  000a4	e92d0001	 stmdb       sp!, {r0}
  000a8	e92d5000	 stmdb       sp!, {r12, lr}
  000ac		 |$M33214|

; 52   :     // for right now don't delete device mediator
; 53   :     UNREFERENCED_PARAMETER(pDeviceMediaton);
; 54   : }

  000ac	e89d6000	 ldmia       sp, {sp, lr}
  000b0	e12fff1e	 bx          lr
  000b4		 |$M33215|

			 ENDP  ; |?DeleteDeviceMediator@DeviceMediator@@SAXPAV1@@Z|, DeviceMediator::DeleteDeviceMediator

	EXPORT	|??0DeviceList@@QAA@XZ|			; DeviceList::DeviceList
	EXPORT	|??0DVFSList@@QAA@XZ|			; DVFSList::DVFSList
	EXPORT	|??0StreamDevice@@QAA@XZ|		; StreamDevice::StreamDevice
	IMPORT	|InitializeCriticalSection|

  00010			 AREA	 |.pdata|, PDATA
|$T33242| DCD	|$LN26@Initialize|
	DCD	0x4000bb04
; Function compile flags: /Odtp

  000b4			 AREA	 |.text|, CODE, ARM

  000b4		 |?Initialize@DeviceMediator@@IAAHXZ| PROC ; DeviceMediator::Initialize

; 59   : {

  000b4		 |$LN26@Initialize|
  000b4	e1a0c00d	 mov         r12, sp
  000b8	e92d0001	 stmdb       sp!, {r0}
  000bc	e92d5000	 stmdb       sp!, {r12, lr}
  000c0	e24dd060	 sub         sp, sp, #0x60
  000c4		 |$M33239|

; 60   :     BOOL rc = FALSE;

  000c4	e3a03000	 mov         r3, #0
  000c8	e58d3004	 str         r3, [sp, #4]

; 61   :     ContextList *pDVFSContextList;
; 62   :     ContextList *pDeviceContextList;
; 63   :     
; 64   :     ::InitializeCriticalSection(&m_cs);    

  000cc	e59d0068	 ldr         r0, [sp, #0x68]
  000d0	eb000000	 bl          InitializeCriticalSection

; 65   :     m_pContextListHead = NULL;

  000d4	e59d3068	 ldr         r3, [sp, #0x68]
  000d8	e2832018	 add         r2, r3, #0x18
  000dc	e3a03000	 mov         r3, #0
  000e0	e5823000	 str         r3, [r2]

; 66   : 
; 67   :     // initialize device base list.  Need 1 dummy stream device in the list
; 68   :     DeviceBase* pDevice = new StreamDevice();

  000e4	e3a00e11	 mov         r0, #0x11, 28
  000e8	eb000000	 bl          |??2@YAPAXI@Z|
  000ec	e58d0028	 str         r0, [sp, #0x28]
  000f0	e59d3028	 ldr         r3, [sp, #0x28]
  000f4	e58d3018	 str         r3, [sp, #0x18]
  000f8	e59d3018	 ldr         r3, [sp, #0x18]
  000fc	e3530000	 cmp         r3, #0
  00100	0a000005	 beq         |$LN8@Initialize|
  00104	e59d0018	 ldr         r0, [sp, #0x18]
  00108	eb000000	 bl          |??0StreamDevice@@QAA@XZ|
  0010c	e58d002c	 str         r0, [sp, #0x2C]
  00110	e59d302c	 ldr         r3, [sp, #0x2C]
  00114	e58d3030	 str         r3, [sp, #0x30]
  00118	ea000001	 b           |$LN9@Initialize|
  0011c		 |$LN8@Initialize|
  0011c	e3a03000	 mov         r3, #0
  00120	e58d3030	 str         r3, [sp, #0x30]
  00124		 |$LN9@Initialize|
  00124	e59d3030	 ldr         r3, [sp, #0x30]
  00128	e58d3000	 str         r3, [sp]

; 69   :     if (pDevice == NULL) goto cleanUp;

  0012c	e59d3000	 ldr         r3, [sp]
  00130	e3530000	 cmp         r3, #0
  00134	1a000001	 bne         |$LN5@Initialize|
  00138	ea000092	 b           |$LN4@Initialize|
  0013c	ea000091	 b           |$cleanUp$33022|
  00140		 |$LN5@Initialize|

; 70   :     InitializeListHead(pDevice);

  00140	e59d3000	 ldr         r3, [sp]
  00144	e3530000	 cmp         r3, #0
  00148	0a000003	 beq         |$LN10@Initialize|
  0014c	e59d3000	 ldr         r3, [sp]
  00150	e2833004	 add         r3, r3, #4
  00154	e58d3034	 str         r3, [sp, #0x34]
  00158	ea000001	 b           |$LN11@Initialize|
  0015c		 |$LN10@Initialize|
  0015c	e3a03000	 mov         r3, #0
  00160	e58d3034	 str         r3, [sp, #0x34]
  00164		 |$LN11@Initialize|
  00164	e59d3000	 ldr         r3, [sp]
  00168	e2832008	 add         r2, r3, #8
  0016c	e59d3034	 ldr         r3, [sp, #0x34]
  00170	e5823000	 str         r3, [r2]
  00174	e59d3000	 ldr         r3, [sp]
  00178	e2832004	 add         r2, r3, #4
  0017c	e59d3034	 ldr         r3, [sp, #0x34]
  00180	e5823000	 str         r3, [r2]

; 71   :     m_pDeviceBaseHead = pDevice;

  00184	e59d3068	 ldr         r3, [sp, #0x68]
  00188	e2832014	 add         r2, r3, #0x14
  0018c	e59d3000	 ldr         r3, [sp]
  00190	e5823000	 str         r3, [r2]

; 72   : 
; 73   :     // instantiate DVFS device list
; 74   :     pDVFSContextList = new DVFSList();

  00194	e3a00028	 mov         r0, #0x28
  00198	eb000000	 bl          |??2@YAPAXI@Z|
  0019c	e58d0038	 str         r0, [sp, #0x38]
  001a0	e59d3038	 ldr         r3, [sp, #0x38]
  001a4	e58d301c	 str         r3, [sp, #0x1C]
  001a8	e59d301c	 ldr         r3, [sp, #0x1C]
  001ac	e3530000	 cmp         r3, #0
  001b0	0a000005	 beq         |$LN12@Initialize|
  001b4	e59d001c	 ldr         r0, [sp, #0x1C]
  001b8	eb000000	 bl          |??0DVFSList@@QAA@XZ|
  001bc	e58d003c	 str         r0, [sp, #0x3C]
  001c0	e59d303c	 ldr         r3, [sp, #0x3C]
  001c4	e58d3040	 str         r3, [sp, #0x40]
  001c8	ea000001	 b           |$LN13@Initialize|
  001cc		 |$LN12@Initialize|
  001cc	e3a03000	 mov         r3, #0
  001d0	e58d3040	 str         r3, [sp, #0x40]
  001d4		 |$LN13@Initialize|
  001d4	e59d3040	 ldr         r3, [sp, #0x40]
  001d8	e58d300c	 str         r3, [sp, #0xC]

; 75   :     InitializeListHead(pDVFSContextList);

  001dc	e59d300c	 ldr         r3, [sp, #0xC]
  001e0	e3530000	 cmp         r3, #0
  001e4	0a000003	 beq         |$LN14@Initialize|
  001e8	e59d300c	 ldr         r3, [sp, #0xC]
  001ec	e2833004	 add         r3, r3, #4
  001f0	e58d3044	 str         r3, [sp, #0x44]
  001f4	ea000001	 b           |$LN15@Initialize|
  001f8		 |$LN14@Initialize|
  001f8	e3a03000	 mov         r3, #0
  001fc	e58d3044	 str         r3, [sp, #0x44]
  00200		 |$LN15@Initialize|
  00200	e59d300c	 ldr         r3, [sp, #0xC]
  00204	e2832008	 add         r2, r3, #8
  00208	e59d3044	 ldr         r3, [sp, #0x44]
  0020c	e5823000	 str         r3, [r2]
  00210	e59d300c	 ldr         r3, [sp, #0xC]
  00214	e2832004	 add         r2, r3, #4
  00218	e59d3044	 ldr         r3, [sp, #0x44]
  0021c	e5823000	 str         r3, [r2]

; 76   :     m_pContextListHead = pDVFSContextList;

  00220	e59d3068	 ldr         r3, [sp, #0x68]
  00224	e2832018	 add         r2, r3, #0x18
  00228	e59d300c	 ldr         r3, [sp, #0xC]
  0022c	e5823000	 str         r3, [r2]

; 77   :     pDVFSContextList->Initialize();

  00230	e59d300c	 ldr         r3, [sp, #0xC]
  00234	e5933000	 ldr         r3, [r3]
  00238	e2833004	 add         r3, r3, #4
  0023c	e59d000c	 ldr         r0, [sp, #0xC]
  00240	e5933000	 ldr         r3, [r3]
  00244	e1a0e00f	 mov         lr, pc
  00248	e12fff13	 bx          r3

; 78   : 
; 79   :     // initialize the device list
; 80   :     pDeviceContextList = new DeviceList();

  0024c	e3a00024	 mov         r0, #0x24
  00250	eb000000	 bl          |??2@YAPAXI@Z|
  00254	e58d0048	 str         r0, [sp, #0x48]
  00258	e59d3048	 ldr         r3, [sp, #0x48]
  0025c	e58d3020	 str         r3, [sp, #0x20]
  00260	e59d3020	 ldr         r3, [sp, #0x20]
  00264	e3530000	 cmp         r3, #0
  00268	0a000005	 beq         |$LN16@Initialize|
  0026c	e59d0020	 ldr         r0, [sp, #0x20]
  00270	eb000000	 bl          |??0DeviceList@@QAA@XZ|
  00274	e58d004c	 str         r0, [sp, #0x4C]
  00278	e59d304c	 ldr         r3, [sp, #0x4C]
  0027c	e58d3050	 str         r3, [sp, #0x50]
  00280	ea000001	 b           |$LN17@Initialize|
  00284		 |$LN16@Initialize|
  00284	e3a03000	 mov         r3, #0
  00288	e58d3050	 str         r3, [sp, #0x50]
  0028c		 |$LN17@Initialize|
  0028c	e59d3050	 ldr         r3, [sp, #0x50]
  00290	e58d3008	 str         r3, [sp, #8]

; 81   : #pragma warning(push)
; 82   : #pragma warning(disable:4127)
; 83   :     InsertTailList(m_pContextListHead, pDeviceContextList);

  00294	e59d3068	 ldr         r3, [sp, #0x68]
  00298	e2833018	 add         r3, r3, #0x18
  0029c	e5933000	 ldr         r3, [r3]
  002a0	e3530000	 cmp         r3, #0
  002a4	0a000005	 beq         |$LN18@Initialize|
  002a8	e59d3068	 ldr         r3, [sp, #0x68]
  002ac	e2833018	 add         r3, r3, #0x18
  002b0	e5933000	 ldr         r3, [r3]
  002b4	e2833004	 add         r3, r3, #4
  002b8	e58d3054	 str         r3, [sp, #0x54]
  002bc	ea000001	 b           |$LN19@Initialize|
  002c0		 |$LN18@Initialize|
  002c0	e3a03000	 mov         r3, #0
  002c4	e58d3054	 str         r3, [sp, #0x54]
  002c8		 |$LN19@Initialize|
  002c8	e59d3054	 ldr         r3, [sp, #0x54]
  002cc	e58d3014	 str         r3, [sp, #0x14]
  002d0	e59d3014	 ldr         r3, [sp, #0x14]
  002d4	e2833004	 add         r3, r3, #4
  002d8	e5933000	 ldr         r3, [r3]
  002dc	e58d3010	 str         r3, [sp, #0x10]
  002e0	e59d3008	 ldr         r3, [sp, #8]
  002e4	e2832004	 add         r2, r3, #4
  002e8	e59d3014	 ldr         r3, [sp, #0x14]
  002ec	e5823000	 str         r3, [r2]
  002f0	e59d3008	 ldr         r3, [sp, #8]
  002f4	e2832008	 add         r2, r3, #8
  002f8	e59d3010	 ldr         r3, [sp, #0x10]
  002fc	e5823000	 str         r3, [r2]
  00300	e59d3008	 ldr         r3, [sp, #8]
  00304	e3530000	 cmp         r3, #0
  00308	0a000003	 beq         |$LN20@Initialize|
  0030c	e59d3008	 ldr         r3, [sp, #8]
  00310	e2833004	 add         r3, r3, #4
  00314	e58d3058	 str         r3, [sp, #0x58]
  00318	ea000001	 b           |$LN21@Initialize|
  0031c		 |$LN20@Initialize|
  0031c	e3a03000	 mov         r3, #0
  00320	e58d3058	 str         r3, [sp, #0x58]
  00324		 |$LN21@Initialize|
  00324	e59d2058	 ldr         r2, [sp, #0x58]
  00328	e59d3010	 ldr         r3, [sp, #0x10]
  0032c	e5832000	 str         r2, [r3]
  00330	e59d3008	 ldr         r3, [sp, #8]
  00334	e3530000	 cmp         r3, #0
  00338	0a000003	 beq         |$LN22@Initialize|
  0033c	e59d3008	 ldr         r3, [sp, #8]
  00340	e2833004	 add         r3, r3, #4
  00344	e58d305c	 str         r3, [sp, #0x5C]
  00348	ea000001	 b           |$LN23@Initialize|
  0034c		 |$LN22@Initialize|
  0034c	e3a03000	 mov         r3, #0
  00350	e58d305c	 str         r3, [sp, #0x5C]
  00354		 |$LN23@Initialize|
  00354	e59d3014	 ldr         r3, [sp, #0x14]
  00358	e2832004	 add         r2, r3, #4
  0035c	e59d305c	 ldr         r3, [sp, #0x5C]
  00360	e5823000	 str         r3, [r2]

; 84   : #pragma warning(pop)
; 85   :     pDeviceContextList->Initialize();

  00364	e59d3008	 ldr         r3, [sp, #8]
  00368	e5933000	 ldr         r3, [r3]
  0036c	e2833004	 add         r3, r3, #4
  00370	e59d0008	 ldr         r0, [sp, #8]
  00374	e5933000	 ldr         r3, [r3]
  00378	e1a0e00f	 mov         lr, pc
  0037c	e12fff13	 bx          r3

; 86   :         
; 87   :     rc = TRUE;

  00380	e3a03001	 mov         r3, #1
  00384	e58d3004	 str         r3, [sp, #4]
  00388		 |$LN4@Initialize|
  00388		 |$cleanUp$33022|

; 88   : cleanUp:
; 89   :     return rc;

  00388	e59d3004	 ldr         r3, [sp, #4]
  0038c	e58d3024	 str         r3, [sp, #0x24]

; 90   : }

  00390	e59d0024	 ldr         r0, [sp, #0x24]
  00394	e28dd060	 add         sp, sp, #0x60
  00398	e89d6000	 ldmia       sp, {sp, lr}
  0039c	e12fff1e	 bx          lr
  003a0		 |$M33240|

			 ENDP  ; |?Initialize@DeviceMediator@@IAAHXZ|, DeviceMediator::Initialize

	EXPORT	|??_7StreamDevice@@6B@| [ DATA ]	; StreamDevice::`vftable'
	EXPORT	|??0DeviceBase@@QAA@XZ|			; DeviceBase::DeviceBase
	EXPORT	|?Uninitialize@StreamDevice@@UAAHXZ|	; StreamDevice::Uninitialize
	EXPORT	|?Initialize@StreamDevice@@UAAHPBG@Z|	; StreamDevice::Initialize
	EXPORT	|?SendIoControl@StreamDevice@@UAAHKPAXK0KPAK@Z| ; StreamDevice::SendIoControl
	IMPORT	|??_EStreamDevice@@UAAPAXI@Z|, WEAK |??_GStreamDevice@@UAAPAXI@Z| ; StreamDevice::`vector deleting destructor', StreamDevice::`scalar deleting destructor'
; File c:\wince600\platform\common\src\soc\common_ti_v1\common_ti\pm\devicemediator\streamdevice.h

  00000			 AREA	 |.pdata|, PDATA
|$T33248| DCD	|$LN5@StreamDevi|
	DCD	0x40001104

  00000			 AREA	 |.rdata|, DATA, READONLY
|??_7StreamDevice@@6B@| DCD |??_EStreamDevice@@UAAPAXI@Z| ; StreamDevice::`vftable'
	DCD	|?Uninitialize@StreamDevice@@UAAHXZ|
	DCD	|?Initialize@StreamDevice@@UAAHPBG@Z|
	DCD	|?SendIoControl@StreamDevice@@UAAHKPAXK0KPAK@Z|
; Function compile flags: /Odtp

  00000			 AREA	 |.text|, CODE, ARM

  00000		 |??0StreamDevice@@QAA@XZ| PROC		; StreamDevice::StreamDevice

; 46   :         {

  00000		 |$LN5@StreamDevi|
  00000	e1a0c00d	 mov         r12, sp
  00004	e92d0001	 stmdb       sp!, {r0}
  00008	e92d5000	 stmdb       sp!, {r12, lr}
  0000c	e24dd008	 sub         sp, sp, #8
  00010		 |$M33245|
  00010	e59d0010	 ldr         r0, [sp, #0x10]
  00014	eb000000	 bl          |??0DeviceBase@@QAA@XZ|
  00018	e58d0004	 str         r0, [sp, #4]
  0001c	e59f201c	 ldr         r2, [pc, #0x1C]
  00020	e59d3010	 ldr         r3, [sp, #0x10]
  00024	e5832000	 str         r2, [r3]

; 47   :         }

  00028	e59d3010	 ldr         r3, [sp, #0x10]
  0002c	e58d3000	 str         r3, [sp]
  00030	e59d0000	 ldr         r0, [sp]
  00034	e28dd008	 add         sp, sp, #8
  00038	e89d6000	 ldmia       sp, {sp, lr}
  0003c	e12fff1e	 bx          lr
  00040		 |$LN6@StreamDevi|
  00040		 |$LN7@StreamDevi|
  00040	00000000	 DCD         |??_7StreamDevice@@6B@|
  00044		 |$M33246|

			 ENDP  ; |??0StreamDevice@@QAA@XZ|, StreamDevice::StreamDevice

	EXPORT	|??_7DeviceBase@@6B@| [ DATA ]		; DeviceBase::`vftable'
	EXPORT	|?Uninitialize@DeviceBase@@UAAHXZ|	; DeviceBase::Uninitialize
	EXPORT	|?Initialize@DeviceBase@@UAAHPBG@Z|	; DeviceBase::Initialize
	IMPORT	|??_EDeviceBase@@UAAPAXI@Z|, WEAK |??_GDeviceBase@@UAAPAXI@Z| ; DeviceBase::`vector deleting destructor', DeviceBase::`scalar deleting destructor'
	IMPORT	|_purecall|
; File c:\wince600\platform\common\src\soc\common_ti_v1\common_ti\pm\devicemediator\devicebase.h

  00000			 AREA	 |.pdata|, PDATA
|$T33258| DCD	|$LN5@DeviceBase|
	DCD	0x40001604

  00000			 AREA	 |.rdata|, DATA, READONLY
|??_7DeviceBase@@6B@| DCD |??_EDeviceBase@@UAAPAXI@Z|	; DeviceBase::`vftable'
	DCD	|?Uninitialize@DeviceBase@@UAAHXZ|
	DCD	|?Initialize@DeviceBase@@UAAHPBG@Z|
	DCD	|_purecall|
; Function compile flags: /Odtp

  00000			 AREA	 |.text|, CODE, ARM

  00000		 |??0DeviceBase@@QAA@XZ| PROC		; DeviceBase::DeviceBase

; 52   :         {

  00000		 |$LN5@DeviceBase|
  00000	e1a0c00d	 mov         r12, sp
  00004	e92d0001	 stmdb       sp!, {r0}
  00008	e92d5000	 stmdb       sp!, {r12, lr}
  0000c	e24dd004	 sub         sp, sp, #4
  00010		 |$M33255|
  00010	e59f203c	 ldr         r2, [pc, #0x3C]
  00014	e59d300c	 ldr         r3, [sp, #0xC]
  00018	e5832000	 str         r2, [r3]
  0001c	e59d300c	 ldr         r3, [sp, #0xC]
  00020	e283200c	 add         r2, r3, #0xC
  00024	e3a03000	 mov         r3, #0
  00028	e5823000	 str         r3, [r2]

; 53   :         m_szDeviceName[0] = NULL;

  0002c	e59d300c	 ldr         r3, [sp, #0xC]
  00030	e2832010	 add         r2, r3, #0x10
  00034	e3a03000	 mov         r3, #0
  00038	e1c230b0	 strh        r3, [r2]

; 54   :         }

  0003c	e59d300c	 ldr         r3, [sp, #0xC]
  00040	e58d3000	 str         r3, [sp]
  00044	e59d0000	 ldr         r0, [sp]
  00048	e28dd004	 add         sp, sp, #4
  0004c	e89d6000	 ldmia       sp, {sp, lr}
  00050	e12fff1e	 bx          lr
  00054		 |$LN6@DeviceBase|
  00054		 |$LN7@DeviceBase|
  00054	00000000	 DCD         |??_7DeviceBase@@6B@|
  00058		 |$M33256|

			 ENDP  ; |??0DeviceBase@@QAA@XZ|, DeviceBase::DeviceBase


  00000			 AREA	 |.pdata|, PDATA
|$T33268| DCD	|$LN5@Uninitiali|
	DCD	0x40000a04
; Function compile flags: /Odtp

  00000			 AREA	 |.text|, CODE, ARM

  00000		 |?Uninitialize@DeviceBase@@UAAHXZ| PROC ; DeviceBase::Uninitialize

; 90   :         {

  00000		 |$LN5@Uninitiali|
  00000	e1a0c00d	 mov         r12, sp
  00004	e92d0001	 stmdb       sp!, {r0}
  00008	e92d5000	 stmdb       sp!, {r12, lr}
  0000c	e24dd004	 sub         sp, sp, #4
  00010		 |$M33265|

; 91   :         return TRUE;

  00010	e3a03001	 mov         r3, #1
  00014	e58d3000	 str         r3, [sp]

; 92   :         }

  00018	e59d0000	 ldr         r0, [sp]
  0001c	e28dd004	 add         sp, sp, #4
  00020	e89d6000	 ldmia       sp, {sp, lr}
  00024	e12fff1e	 bx          lr
  00028		 |$M33266|

			 ENDP  ; |?Uninitialize@DeviceBase@@UAAHXZ|, DeviceBase::Uninitialize

	IMPORT	|wcscpy|
	IMPORT	|wcslen|

  00000			 AREA	 |.pdata|, PDATA
|$T33276| DCD	|$LN6@Initialize@2|
	DCD	0x40001704
; Function compile flags: /Odtp

  00000			 AREA	 |.text|, CODE, ARM

  00000		 |?Initialize@DeviceBase@@UAAHPBG@Z| PROC ; DeviceBase::Initialize

; 95   :         {

  00000		 |$LN6@Initialize@2|
  00000	e1a0c00d	 mov         r12, sp
  00004	e92d0003	 stmdb       sp!, {r0, r1}
  00008	e92d5000	 stmdb       sp!, {r12, lr}
  0000c	e24dd008	 sub         sp, sp, #8
  00010		 |$M33273|

; 96   :         if (_tcslen(szDeviceName) >= sizeof(m_szDeviceName) / sizeof(m_szDeviceName[0])) return FALSE;

  00010	e59d0014	 ldr         r0, [sp, #0x14]
  00014	eb000000	 bl          wcslen
  00018	e58d0004	 str         r0, [sp, #4]
  0001c	e59d3004	 ldr         r3, [sp, #4]
  00020	e3530080	 cmp         r3, #0x80
  00024	3a000002	 bcc         |$LN1@Initialize@2|
  00028	e3a03000	 mov         r3, #0
  0002c	e58d3000	 str         r3, [sp]
  00030	ea000005	 b           |$LN2@Initialize@2|
  00034		 |$LN1@Initialize@2|

; 97   :         _tcscpy(m_szDeviceName, szDeviceName);

  00034	e59d1014	 ldr         r1, [sp, #0x14]
  00038	e59d3010	 ldr         r3, [sp, #0x10]
  0003c	e2830010	 add         r0, r3, #0x10
  00040	eb000000	 bl          wcscpy

; 98   :         return TRUE;

  00044	e3a03001	 mov         r3, #1
  00048	e58d3000	 str         r3, [sp]
  0004c		 |$LN2@Initialize@2|

; 99   :         }

  0004c	e59d0000	 ldr         r0, [sp]
  00050	e28dd008	 add         sp, sp, #8
  00054	e89d6000	 ldmia       sp, {sp, lr}
  00058	e12fff1e	 bx          lr
  0005c		 |$M33274|

			 ENDP  ; |?Initialize@DeviceBase@@UAAHPBG@Z|, DeviceBase::Initialize

	EXPORT	|??1DeviceBase@@UAA@XZ|			; DeviceBase::~DeviceBase
	IMPORT	|??3@YAXPAX@Z|				; operator delete

  00000			 AREA	 |.pdata|, PDATA
|$T33284| DCD	|$LN6@scalar|
	DCD	0x40001104
; Function compile flags: /Odtp

  00000			 AREA	 |.text|, CODE, ARM

  00000		 |??_GDeviceBase@@UAAPAXI@Z| PROC	; DeviceBase::`scalar deleting destructor'
  00000		 |$LN6@scalar|
  00000	e1a0c00d	 mov         r12, sp
  00004	e92d0003	 stmdb       sp!, {r0, r1}
  00008	e92d5000	 stmdb       sp!, {r12, lr}
  0000c	e24dd004	 sub         sp, sp, #4
  00010		 |$M33281|
  00010	e59d000c	 ldr         r0, [sp, #0xC]
  00014	eb000000	 bl          |??1DeviceBase@@UAA@XZ|
  00018	e59d3010	 ldr         r3, [sp, #0x10]
  0001c	e3130001	 tst         r3, #1
  00020	0a000001	 beq         |$LN1@scalar|
  00024	e59d000c	 ldr         r0, [sp, #0xC]
  00028	eb000000	 bl          |??3@YAXPAX@Z|
  0002c		 |$LN1@scalar|
  0002c	e59d300c	 ldr         r3, [sp, #0xC]
  00030	e58d3000	 str         r3, [sp]
  00034	e59d0000	 ldr         r0, [sp]
  00038	e28dd004	 add         sp, sp, #4
  0003c	e89d6000	 ldmia       sp, {sp, lr}
  00040	e12fff1e	 bx          lr
  00044		 |$M33282|

			 ENDP  ; |??_GDeviceBase@@UAAPAXI@Z|, DeviceBase::`scalar deleting destructor'


  00000			 AREA	 |.pdata|, PDATA
|$T33291| DCD	|$LN5@DeviceBase@2|
	DCD	0x40000903
; Function compile flags: /Odtp

  00000			 AREA	 |.text|, CODE, ARM

  00000		 |??1DeviceBase@@UAA@XZ| PROC		; DeviceBase::~DeviceBase

; 57   :         {

  00000		 |$LN5@DeviceBase@2|
  00000	e1a0c00d	 mov         r12, sp
  00004	e92d0001	 stmdb       sp!, {r0}
  00008	e92d5000	 stmdb       sp!, {r12, lr}
  0000c		 |$M33288|
  0000c	e59f200c	 ldr         r2, [pc, #0xC]
  00010	e59d3008	 ldr         r3, [sp, #8]
  00014	e5832000	 str         r2, [r3]

; 58   :         };

  00018	e89d6000	 ldmia       sp, {sp, lr}
  0001c	e12fff1e	 bx          lr
  00020		 |$LN6@DeviceBase@2|
  00020		 |$LN7@DeviceBase@2|
  00020	00000000	 DCD         |??_7DeviceBase@@6B@|
  00024		 |$M33289|

			 ENDP  ; |??1DeviceBase@@UAA@XZ|, DeviceBase::~DeviceBase

	IMPORT	|CloseHandle|
; File c:\wince600\platform\common\src\soc\common_ti_v1\common_ti\pm\devicemediator\streamdevice.h

  00000			 AREA	 |.pdata|, PDATA
|$T33301| DCD	|$LN6@Uninitiali@2|
	DCD	0x40001904
; Function compile flags: /Odtp

  00000			 AREA	 |.text|, CODE, ARM

  00000		 |?Uninitialize@StreamDevice@@UAAHXZ| PROC ; StreamDevice::Uninitialize

; 56   :         {

  00000		 |$LN6@Uninitiali@2|
  00000	e1a0c00d	 mov         r12, sp
  00004	e92d0001	 stmdb       sp!, {r0}
  00008	e92d5000	 stmdb       sp!, {r12, lr}
  0000c	e24dd004	 sub         sp, sp, #4
  00010		 |$M33298|

; 57   :         DeviceBase::Uninitialize();

  00010	e59d000c	 ldr         r0, [sp, #0xC]
  00014	eb000000	 bl          |?Uninitialize@DeviceBase@@UAAHXZ|

; 58   :         if (m_hDevice != NULL) 

  00018	e59d300c	 ldr         r3, [sp, #0xC]
  0001c	e283300c	 add         r3, r3, #0xC
  00020	e5933000	 ldr         r3, [r3]
  00024	e3530000	 cmp         r3, #0
  00028	0a000007	 beq         |$LN1@Uninitiali@2|

; 59   :             {
; 60   :             CloseHandle(m_hDevice);

  0002c	e59d300c	 ldr         r3, [sp, #0xC]
  00030	e283300c	 add         r3, r3, #0xC
  00034	e5930000	 ldr         r0, [r3]
  00038	eb000000	 bl          CloseHandle

; 61   :             m_hDevice = NULL;

  0003c	e59d300c	 ldr         r3, [sp, #0xC]
  00040	e283200c	 add         r2, r3, #0xC
  00044	e3a03000	 mov         r3, #0
  00048	e5823000	 str         r3, [r2]
  0004c		 |$LN1@Uninitiali@2|

; 62   :             }
; 63   :         return TRUE;

  0004c	e3a03001	 mov         r3, #1
  00050	e58d3000	 str         r3, [sp]

; 64   :         }

  00054	e59d0000	 ldr         r0, [sp]
  00058	e28dd004	 add         sp, sp, #4
  0005c	e89d6000	 ldmia       sp, {sp, lr}
  00060	e12fff1e	 bx          lr
  00064		 |$M33299|

			 ENDP  ; |?Uninitialize@StreamDevice@@UAAHXZ|, StreamDevice::Uninitialize

	IMPORT	|CreateFileW|

  00000			 AREA	 |.pdata|, PDATA
|$T33314| DCD	|$LN8@Initialize@3|
	DCD	0x40003204
; Function compile flags: /Odtp

  00000			 AREA	 |.text|, CODE, ARM

  00000		 |?Initialize@StreamDevice@@UAAHPBG@Z| PROC ; StreamDevice::Initialize

; 68   :         {

  00000		 |$LN8@Initialize@3|
  00000	e1a0c00d	 mov         r12, sp
  00004	e92d0003	 stmdb       sp!, {r0, r1}
  00008	e92d5000	 stmdb       sp!, {r12, lr}
  0000c	e24dd024	 sub         sp, sp, #0x24
  00010		 |$M33311|

; 69   :         DeviceBase::Initialize(szDeviceName);

  00010	e59d1030	 ldr         r1, [sp, #0x30]
  00014	e59d002c	 ldr         r0, [sp, #0x2C]
  00018	eb000000	 bl          |?Initialize@DeviceBase@@UAAHPBG@Z|

; 70   :         m_hDevice = ::CreateFile(szDeviceName, GENERIC_EXECUTE, 
; 71   :                         DEVACCESS_PMEXT_MODE, NULL, 
; 72   :                         OPEN_EXISTING, 0, NULL
; 73   :                         );

  0001c	e3a03000	 mov         r3, #0
  00020	e58d3008	 str         r3, [sp, #8]
  00024	e3a03000	 mov         r3, #0
  00028	e58d3004	 str         r3, [sp, #4]
  0002c	e3a03003	 mov         r3, #3
  00030	e58d3000	 str         r3, [sp]
  00034	e3a03000	 mov         r3, #0
  00038	e3a02102	 mov         r2, #2, 2
  0003c	e3a01202	 mov         r1, #2, 4
  00040	e59d0030	 ldr         r0, [sp, #0x30]
  00044	eb000000	 bl          CreateFileW
  00048	e58d001c	 str         r0, [sp, #0x1C]
  0004c	e59d302c	 ldr         r3, [sp, #0x2C]
  00050	e283200c	 add         r2, r3, #0xC
  00054	e59d301c	 ldr         r3, [sp, #0x1C]
  00058	e5823000	 str         r3, [r2]

; 74   : 
; 75   :         if (m_hDevice == INVALID_HANDLE_VALUE)

  0005c	e59d302c	 ldr         r3, [sp, #0x2C]
  00060	e283300c	 add         r3, r3, #0xC
  00064	e5933000	 ldr         r3, [r3]
  00068	e3730001	 cmn         r3, #1
  0006c	1a000005	 bne         |$LN1@Initialize@3|

; 76   :             {
; 77   :             DeviceBase::Uninitialize();

  00070	e59d002c	 ldr         r0, [sp, #0x2C]
  00074	eb000000	 bl          |?Uninitialize@DeviceBase@@UAAHXZ|

; 78   :             m_hDevice = NULL;

  00078	e59d302c	 ldr         r3, [sp, #0x2C]
  0007c	e283200c	 add         r2, r3, #0xC
  00080	e3a03000	 mov         r3, #0
  00084	e5823000	 str         r3, [r2]
  00088		 |$LN1@Initialize@3|

; 79   :             }
; 80   :         
; 81   :         return m_hDevice != NULL;

  00088	e59d302c	 ldr         r3, [sp, #0x2C]
  0008c	e283300c	 add         r3, r3, #0xC
  00090	e5933000	 ldr         r3, [r3]
  00094	e3530000	 cmp         r3, #0
  00098	0a000002	 beq         |$LN4@Initialize@3|
  0009c	e3a03001	 mov         r3, #1
  000a0	e58d3020	 str         r3, [sp, #0x20]
  000a4	ea000001	 b           |$LN5@Initialize@3|
  000a8		 |$LN4@Initialize@3|
  000a8	e3a03000	 mov         r3, #0
  000ac	e58d3020	 str         r3, [sp, #0x20]
  000b0		 |$LN5@Initialize@3|
  000b0	e59d3020	 ldr         r3, [sp, #0x20]
  000b4	e58d3018	 str         r3, [sp, #0x18]

; 82   :         }

  000b8	e59d0018	 ldr         r0, [sp, #0x18]
  000bc	e28dd024	 add         sp, sp, #0x24
  000c0	e89d6000	 ldmia       sp, {sp, lr}
  000c4	e12fff1e	 bx          lr
  000c8		 |$M33312|

			 ENDP  ; |?Initialize@StreamDevice@@UAAHPBG@Z|, StreamDevice::Initialize

	IMPORT	|DeviceIoControl|
	IMPORT	|__C_specific_handler|

  00000			 AREA	 |.pdata|, PDATA
|$T33337| DCD	|$LN15@SendIoCont|
	DCD	0xc0002305

  00000			 AREA	 |.pdata|, PDATA
|$T33339| DCD	|$LN5@SendIoCont|
	DCD	0x40000502

  00000			 AREA	 |.xdata|, DATA
|$T33335| DCD	0x1
	DCD	|$LN9@SendIoCont|
	DCD	|$LN10@SendIoCont|
	DCD	|$LN5@SendIoCont|
	DCD	|$LN6@SendIoCont|
; Function compile flags: /Odtp

  00000			 AREA	 |.text|, CODE, ARM

  00000	00000000	 DCD         |__C_specific_handler|
  00004	00000000	 DCD         |$T33335|

  00008		 |?SendIoControl@StreamDevice@@UAAHKPAXK0KPAK@Z| PROC ; StreamDevice::SendIoControl

; 89   :         {

  00008		 |$LN15@SendIoCont|
  00008	e1a0c00d	 mov         r12, sp
  0000c	e92d000f	 stmdb       sp!, {r0 - r3}
  00010	e92d5800	 stmdb       sp!, {r11, r12, lr}
  00014	e28db00c	 add         r11, sp, #0xC
  00018	e24dd02c	 sub         sp, sp, #0x2C
  0001c		 |$LN13@SendIoCont|

; 90   :         BOOL rc = FALSE;

  0001c	e3a03000	 mov         r3, #0
  00020	e50b3028	 str         r3, [r11, #-0x28]
  00024		 |$LN9@SendIoCont|

; 91   :         __try 
; 92   :             {            
; 93   :             rc = DeviceIoControl(m_hDevice, dwIoControlCode, lpInBuf, 
; 94   :                     nInBufSize, lpOutBuf, nOutBufSize, lpBytesReturned, NULL
; 95   :                     );

  00024	e3a03000	 mov         r3, #0
  00028	e58d300c	 str         r3, [sp, #0xC]
  0002c	e59b3018	 ldr         r3, [r11, #0x18]
  00030	e58d3008	 str         r3, [sp, #8]
  00034	e59b3014	 ldr         r3, [r11, #0x14]
  00038	e58d3004	 str         r3, [sp, #4]
  0003c	e59b3010	 ldr         r3, [r11, #0x10]
  00040	e58d3000	 str         r3, [sp]
  00044	e59b300c	 ldr         r3, [r11, #0xC]
  00048	e59b2008	 ldr         r2, [r11, #8]
  0004c	e59b1004	 ldr         r1, [r11, #4]
  00050	e59b0000	 ldr         r0, [r11]
  00054	e280000c	 add         r0, r0, #0xC
  00058	e5900000	 ldr         r0, [r0]
  0005c	eb000000	 bl          DeviceIoControl
  00060	e50b0010	 str         r0, [r11, #-0x10]
  00064	e51b3010	 ldr         r3, [r11, #-0x10]
  00068	e50b3028	 str         r3, [r11, #-0x28]
  0006c		 |$LN10@SendIoCont|

; 96   :             }

  0006c	ea000002	 b           |$LN11@SendIoCont|
  00070		 |$LN6@SendIoCont|

; 98   :             {            
; 99   :             rc = FALSE;

  00070	e3a03000	 mov         r3, #0
  00074	e50b3028	 str         r3, [r11, #-0x28]
  00078	eaffffff	 b           |$LN11@SendIoCont|
  0007c		 |$LN11@SendIoCont|

; 100  :             }
; 101  :         return rc;

  0007c	e51b3028	 ldr         r3, [r11, #-0x28]
  00080	e50b3014	 str         r3, [r11, #-0x14]
  00084		 |$LN4@SendIoCont|

; 102  :         }

  00084	e51b0014	 ldr         r0, [r11, #-0x14]
  00088	e24bd00c	 sub         sp, r11, #0xC
  0008c	e89d6800	 ldmia       sp, {r11, sp, lr}
  00090	e12fff1e	 bx          lr

			 ENDP  ; |?SendIoControl@StreamDevice@@UAAHKPAXK0KPAK@Z|, StreamDevice::SendIoControl

  00094		 |$LN5@SendIoCont|
  00094		 |$LN14@SendIoCont|

; 97   :         __except(EXCEPTION_EXECUTE_HANDLER) 

  00094	e52de004	 str         lr, [sp, #-4]!
  00098	e24dd010	 sub         sp, sp, #0x10
  0009c		 |$LN8@SendIoCont|
  0009c		 |$LN17@SendIoCont|
  0009c	e3a00001	 mov         r0, #1
  000a0		 |$LN7@SendIoCont|
  000a0	e28dd010	 add         sp, sp, #0x10
  000a4	e49df004	 ldr         pc, [sp], #4
  000a8		 |$LN18@SendIoCont|
  000a8		 |$LN16@SendIoCont|
	EXPORT	|??1StreamDevice@@UAA@XZ|		; StreamDevice::~StreamDevice

  00000			 AREA	 |.pdata|, PDATA
|$T33351| DCD	|$LN6@scalar@2|
	DCD	0x40001104
; Function compile flags: /Odtp

  00000			 AREA	 |.text|, CODE, ARM

  00000		 |??_GStreamDevice@@UAAPAXI@Z| PROC	; StreamDevice::`scalar deleting destructor'
  00000		 |$LN6@scalar@2|
  00000	e1a0c00d	 mov         r12, sp
  00004	e92d0003	 stmdb       sp!, {r0, r1}
  00008	e92d5000	 stmdb       sp!, {r12, lr}
  0000c	e24dd004	 sub         sp, sp, #4
  00010		 |$M33348|
  00010	e59d000c	 ldr         r0, [sp, #0xC]
  00014	eb000000	 bl          |??1StreamDevice@@UAA@XZ|
  00018	e59d3010	 ldr         r3, [sp, #0x10]
  0001c	e3130001	 tst         r3, #1
  00020	0a000001	 beq         |$LN1@scalar@2|
  00024	e59d000c	 ldr         r0, [sp, #0xC]
  00028	eb000000	 bl          |??3@YAXPAX@Z|
  0002c		 |$LN1@scalar@2|
  0002c	e59d300c	 ldr         r3, [sp, #0xC]
  00030	e58d3000	 str         r3, [sp]
  00034	e59d0000	 ldr         r0, [sp]
  00038	e28dd004	 add         sp, sp, #4
  0003c	e89d6000	 ldmia       sp, {sp, lr}
  00040	e12fff1e	 bx          lr
  00044		 |$M33349|

			 ENDP  ; |??_GStreamDevice@@UAAPAXI@Z|, StreamDevice::`scalar deleting destructor'


  00000			 AREA	 |.pdata|, PDATA
|$T33358| DCD	|$LN5@StreamDevi@2|
	DCD	0x40000703
; Function compile flags: /Odtp

  00000			 AREA	 |.text|, CODE, ARM

  00000		 |??1StreamDevice@@UAA@XZ| PROC		; StreamDevice::~StreamDevice
  00000		 |$LN5@StreamDevi@2|
  00000	e1a0c00d	 mov         r12, sp
  00004	e92d0001	 stmdb       sp!, {r0}
  00008	e92d5000	 stmdb       sp!, {r12, lr}
  0000c		 |$M33355|
  0000c	e59d0008	 ldr         r0, [sp, #8]
  00010	eb000000	 bl          |??1DeviceBase@@UAA@XZ|
  00014	e89d6000	 ldmia       sp, {sp, lr}
  00018	e12fff1e	 bx          lr
  0001c		 |$M33356|

			 ENDP  ; |??1StreamDevice@@UAA@XZ|, StreamDevice::~StreamDevice

	EXPORT	|??_7DVFSList@@6B@| [ DATA ]		; DVFSList::`vftable'
	EXPORT	|??0ContextList@@QAA@XZ|		; ContextList::ContextList
	IMPORT	|?Uninitialize@DVFSList@@UAAHXZ|	; DVFSList::Uninitialize
	IMPORT	|?Initialize@DVFSList@@UAAHXZ|		; DVFSList::Initialize
	IMPORT	|?InsertDevice@DVFSList@@UAAHPBGPAVDeviceBase@@PAUHKEY__@@@Z| ; DVFSList::InsertDevice
	IMPORT	|?RemoveDevice@DVFSList@@UAAHPBGPAVDeviceBase@@@Z| ; DVFSList::RemoveDevice
	IMPORT	|?SendIoControl@DVFSList@@UAAHKKPAXK0KPAK@Z| ; DVFSList::SendIoControl
; File c:\wince600\platform\common\src\soc\common_ti_v1\common_ti\pm\devicemediator\dvfslist.h

  00000			 AREA	 |.pdata|, PDATA
|$T33366| DCD	|$LN5@DVFSList|
	DCD	0x40001804

  00000			 AREA	 |.rdata|, DATA, READONLY
|??_7DVFSList@@6B@| DCD |?Uninitialize@DVFSList@@UAAHXZ| ; DVFSList::`vftable'
	DCD	|?Initialize@DVFSList@@UAAHXZ|
	DCD	|?InsertDevice@DVFSList@@UAAHPBGPAVDeviceBase@@PAUHKEY__@@@Z|
	DCD	|?RemoveDevice@DVFSList@@UAAHPBGPAVDeviceBase@@@Z|
	DCD	|?SendIoControl@DVFSList@@UAAHKKPAXK0KPAK@Z|
; Function compile flags: /Odtp

  00000			 AREA	 |.text|, CODE, ARM

  00000		 |??0DVFSList@@QAA@XZ| PROC		; DVFSList::DVFSList

; 83   :         {

  00000		 |$LN5@DVFSList|
  00000	e1a0c00d	 mov         r12, sp
  00004	e92d0001	 stmdb       sp!, {r0}
  00008	e92d5000	 stmdb       sp!, {r12, lr}
  0000c	e24dd004	 sub         sp, sp, #4
  00010		 |$M33363|
  00010	e59d000c	 ldr         r0, [sp, #0xC]
  00014	eb000000	 bl          |??0ContextList@@QAA@XZ|
  00018	e59f203c	 ldr         r2, [pc, #0x3C]
  0001c	e59d300c	 ldr         r3, [sp, #0xC]
  00020	e5832000	 str         r2, [r3]
  00024	e59d300c	 ldr         r3, [sp, #0xC]
  00028	e2832024	 add         r2, r3, #0x24
  0002c	e3a03000	 mov         r3, #0
  00030	e5823000	 str         r3, [r2]

; 84   :         m_idContextList = DEVICEMEDIATOR_DVFS_LIST;

  00034	e59d300c	 ldr         r3, [sp, #0xC]
  00038	e283200c	 add         r2, r3, #0xC
  0003c	e3a03002	 mov         r3, #2
  00040	e5823000	 str         r3, [r2]

; 85   :         }

  00044	e59d300c	 ldr         r3, [sp, #0xC]
  00048	e58d3000	 str         r3, [sp]
  0004c	e59d0000	 ldr         r0, [sp]
  00050	e28dd004	 add         sp, sp, #4
  00054	e89d6000	 ldmia       sp, {sp, lr}
  00058	e12fff1e	 bx          lr
  0005c		 |$LN6@DVFSList|
  0005c		 |$LN7@DVFSList|
  0005c	00000000	 DCD         |??_7DVFSList@@6B@|
  00060		 |$M33364|

			 ENDP  ; |??0DVFSList@@QAA@XZ|, DVFSList::DVFSList

	EXPORT	|??_7ContextList@@6B@| [ DATA ]		; ContextList::`vftable'

  00000			 AREA	 |.pdata|, PDATA
|$T33376| DCD	|$LN5@ContextLis|
	DCD	0x40000e04

  00000			 AREA	 |.rdata|, DATA, READONLY
|??_7ContextList@@6B@| DCD |_purecall|			; ContextList::`vftable'
	DCD	|_purecall|
	DCD	|_purecall|
	DCD	|_purecall|
	DCD	|_purecall|
; Function compile flags: /Odtp

  00000			 AREA	 |.text|, CODE, ARM

  00000		 |??0ContextList@@QAA@XZ| PROC		; ContextList::ContextList
  00000		 |$LN5@ContextLis|
  00000	e1a0c00d	 mov         r12, sp
  00004	e92d0001	 stmdb       sp!, {r0}
  00008	e92d5000	 stmdb       sp!, {r12, lr}
  0000c	e24dd004	 sub         sp, sp, #4
  00010		 |$M33373|
  00010	e59f201c	 ldr         r2, [pc, #0x1C]
  00014	e59d300c	 ldr         r3, [sp, #0xC]
  00018	e5832000	 str         r2, [r3]
  0001c	e59d300c	 ldr         r3, [sp, #0xC]
  00020	e58d3000	 str         r3, [sp]
  00024	e59d0000	 ldr         r0, [sp]
  00028	e28dd004	 add         sp, sp, #4
  0002c	e89d6000	 ldmia       sp, {sp, lr}
  00030	e12fff1e	 bx          lr
  00034		 |$LN6@ContextLis|
  00034		 |$LN7@ContextLis|
  00034	00000000	 DCD         |??_7ContextList@@6B@|
  00038		 |$M33374|

			 ENDP  ; |??0ContextList@@QAA@XZ|, ContextList::ContextList

	EXPORT	|??_7DeviceList@@6B@| [ DATA ]		; DeviceList::`vftable'
	IMPORT	|?Uninitialize@DeviceList@@UAAHXZ|	; DeviceList::Uninitialize
	IMPORT	|?Initialize@DeviceList@@UAAHXZ|	; DeviceList::Initialize
	IMPORT	|?InsertDevice@DeviceList@@UAAHPBGPAVDeviceBase@@PAUHKEY__@@@Z| ; DeviceList::InsertDevice
	IMPORT	|?RemoveDevice@DeviceList@@UAAHPBGPAVDeviceBase@@@Z| ; DeviceList::RemoveDevice
	IMPORT	|?SendIoControl@DeviceList@@UAAHKKPAXK0KPAK@Z| ; DeviceList::SendIoControl
; File c:\wince600\platform\common\src\soc\common_ti_v1\common_ti\pm\devicemediator\devicelist.h

  00000			 AREA	 |.pdata|, PDATA
|$T33386| DCD	|$LN5@DeviceList|
	DCD	0x40001404

  00000			 AREA	 |.rdata|, DATA, READONLY
|??_7DeviceList@@6B@| DCD |?Uninitialize@DeviceList@@UAAHXZ| ; DeviceList::`vftable'
	DCD	|?Initialize@DeviceList@@UAAHXZ|
	DCD	|?InsertDevice@DeviceList@@UAAHPBGPAVDeviceBase@@PAUHKEY__@@@Z|
	DCD	|?RemoveDevice@DeviceList@@UAAHPBGPAVDeviceBase@@@Z|
	DCD	|?SendIoControl@DeviceList@@UAAHKKPAXK0KPAK@Z|
; Function compile flags: /Odtp

  00000			 AREA	 |.text|, CODE, ARM

  00000		 |??0DeviceList@@QAA@XZ| PROC		; DeviceList::DeviceList

; 51   :     DeviceList()

  00000		 |$LN5@DeviceList|
  00000	e1a0c00d	 mov         r12, sp
  00004	e92d0001	 stmdb       sp!, {r0}
  00008	e92d5000	 stmdb       sp!, {r12, lr}
  0000c	e24dd004	 sub         sp, sp, #4
  00010		 |$M33383|
  00010	e59d000c	 ldr         r0, [sp, #0xC]
  00014	eb000000	 bl          |??0ContextList@@QAA@XZ|
  00018	e59f202c	 ldr         r2, [pc, #0x2C]
  0001c	e59d300c	 ldr         r3, [sp, #0xC]
  00020	e5832000	 str         r2, [r3]

; 52   :         {
; 53   :         m_idContextList = DEVICEMEDIATOR_DEVICE_LIST;

  00024	e59d300c	 ldr         r3, [sp, #0xC]
  00028	e283200c	 add         r2, r3, #0xC
  0002c	e3a03001	 mov         r3, #1
  00030	e5823000	 str         r3, [r2]

; 54   :         }

  00034	e59d300c	 ldr         r3, [sp, #0xC]
  00038	e58d3000	 str         r3, [sp]
  0003c	e59d0000	 ldr         r0, [sp]
  00040	e28dd004	 add         sp, sp, #4
  00044	e89d6000	 ldmia       sp, {sp, lr}
  00048	e12fff1e	 bx          lr
  0004c		 |$LN6@DeviceList|
  0004c		 |$LN7@DeviceList|
  0004c	00000000	 DCD         |??_7DeviceList@@6B@|
  00050		 |$M33384|

			 ENDP  ; |??0DeviceList@@QAA@XZ|, DeviceList::DeviceList

	EXPORT	|?Uninitialize@DeviceMediator@@IAAHXZ|	; DeviceMediator::Uninitialize
	IMPORT	|DeleteCriticalSection|

  00018			 AREA	 |.pdata|, PDATA
|$T33400| DCD	|$LN7@Uninitiali@3|
	DCD	0x40002604
; Function compile flags: /Odtp
; File c:\wince600\platform\common\src\soc\common_ti_v1\common_ti\pm\devicemediator\devicemediator.cpp

  003a0			 AREA	 |.text|, CODE, ARM

  003a0		 |?Uninitialize@DeviceMediator@@IAAHXZ| PROC ; DeviceMediator::Uninitialize

; 95   : {

  003a0		 |$LN7@Uninitiali@3|
  003a0	e1a0c00d	 mov         r12, sp
  003a4	e92d0001	 stmdb       sp!, {r0}
  003a8	e92d5000	 stmdb       sp!, {r12, lr}
  003ac	e24dd014	 sub         sp, sp, #0x14
  003b0		 |$M33397|

; 96   :     ::DeleteCriticalSection(&m_cs);

  003b0	e59d001c	 ldr         r0, [sp, #0x1C]
  003b4	eb000000	 bl          DeleteCriticalSection

; 97   : 
; 98   :     // delete dummy stream device
; 99   :     delete m_pDeviceBaseHead;

  003b8	e59d301c	 ldr         r3, [sp, #0x1C]
  003bc	e2833014	 add         r3, r3, #0x14
  003c0	e5933000	 ldr         r3, [r3]
  003c4	e58d3004	 str         r3, [sp, #4]
  003c8	e59d3004	 ldr         r3, [sp, #4]
  003cc	e58d3000	 str         r3, [sp]
  003d0	e59d3000	 ldr         r3, [sp]
  003d4	e3530000	 cmp         r3, #0
  003d8	0a00000a	 beq         |$LN3@Uninitiali@3|
  003dc	e3a01001	 mov         r1, #1
  003e0	e59d3000	 ldr         r3, [sp]
  003e4	e5933000	 ldr         r3, [r3]
  003e8	e59d0000	 ldr         r0, [sp]
  003ec	e5933000	 ldr         r3, [r3]
  003f0	e1a0e00f	 mov         lr, pc
  003f4	e12fff13	 bx          r3
  003f8	e58d000c	 str         r0, [sp, #0xC]
  003fc	e59d300c	 ldr         r3, [sp, #0xC]
  00400	e58d3010	 str         r3, [sp, #0x10]
  00404	ea000001	 b           |$LN4@Uninitiali@3|
  00408		 |$LN3@Uninitiali@3|
  00408	e3a03000	 mov         r3, #0
  0040c	e58d3010	 str         r3, [sp, #0x10]
  00410		 |$LN4@Uninitiali@3|

; 100  :     m_pDeviceBaseHead = NULL;

  00410	e59d301c	 ldr         r3, [sp, #0x1C]
  00414	e2832014	 add         r2, r3, #0x14
  00418	e3a03000	 mov         r3, #0
  0041c	e5823000	 str         r3, [r2]

; 101  :     return TRUE;

  00420	e3a03001	 mov         r3, #1
  00424	e58d3008	 str         r3, [sp, #8]

; 102  : }

  00428	e59d0008	 ldr         r0, [sp, #8]
  0042c	e28dd014	 add         sp, sp, #0x14
  00430	e89d6000	 ldmia       sp, {sp, lr}
  00434	e12fff1e	 bx          lr
  00438		 |$M33398|

			 ENDP  ; |?Uninitialize@DeviceMediator@@IAAHXZ|, DeviceMediator::Uninitialize

	EXPORT	|?Unlock@DeviceMediator@@IAAXXZ|	; DeviceMediator::Unlock
	EXPORT	|?Lock@DeviceMediator@@IAAXXZ|		; DeviceMediator::Lock
	EXPORT	|?GetDeviceHandle@DeviceBase@@QBAPAXXZ|	; DeviceBase::GetDeviceHandle
	EXPORT	|__$ArrayPad$| [ DATA ]
	EXPORT	|?InsertDevice@DeviceMediator@@QAAHPBGPAVDeviceBase@@@Z| ; DeviceMediator::InsertDevice
	IMPORT	|RegCloseKey|
	IMPORT	|RegOpenKeyExW|
	IMPORT	|GetDeviceInformationByFileHandle|
	IMPORT	|__security_cookie|
	IMPORT	|__GSHandlerCheck|
	IMPORT	|__security_check_cookie|

  00020			 AREA	 |.pdata|, PDATA
|$T33424| DCD	|$LN25@InsertDevi|
	DCD	0xc000b505

  00000			 AREA	 |.xdata|, DATA
|$T33420| DCD	0xffffffa8
; Function compile flags: /Odtp

  00438			 AREA	 |.text|, CODE, ARM

  00438	00000000	 DCD         |__GSHandlerCheck|
  0043c	00000000	 DCD         |$T33420|

  00440		 |?InsertDevice@DeviceMediator@@QAAHPBGPAVDeviceBase@@@Z| PROC ; DeviceMediator::InsertDevice

; 110  : {

  00440		 |$LN25@InsertDevi|
  00440	e1a0c00d	 mov         r12, sp
  00444	e92d0007	 stmdb       sp!, {r0 - r2}
  00448	e92d5010	 stmdb       sp!, {r4, r12, lr}
  0044c	e59fc2bc	 ldr         r12, [pc, #0x2BC]
  00450	e08dd00c	 add         sp, sp, r12
  00454		 |$M33421|
  00454	e59f32b0	 ldr         r3, [pc, #0x2B0]
  00458	e5933000	 ldr         r3, [r3]
  0045c	e58d3858	 str         r3, [sp, #0x858]

; 111  :     BOOL rc = FALSE;

  00460	e3a03000	 mov         r3, #0
  00464	e58d3214	 str         r3, [sp, #0x214]

; 112  :     HKEY hKey = NULL;

  00468	e3a03000	 mov         r3, #0
  0046c	e58d3218	 str         r3, [sp, #0x218]

; 113  :     DEVMGR_DEVICE_INFORMATION di;
; 114  :     IOCTL_TIPMX_CONTEXTPATH_OUT outData;
; 115  : 
; 116  :     // get information about the driver
; 117  :     di.dwSize = sizeof(di);

  00470	e3a03e63	 mov         r3, #0x63, 28
  00474	e58d321c	 str         r3, [sp, #0x21C]

; 118  :     if (GetDeviceInformationByFileHandle(pDevice->GetDeviceHandle(), &di) == TRUE)

  00478	e59d08ac	 ldr         r0, [sp, #0x8AC]
  0047c	eb000000	 bl          |?GetDeviceHandle@DeviceBase@@QBAPAXXZ|
  00480	e58d0874	 str         r0, [sp, #0x874]
  00484	e28d1f87	 add         r1, sp, #0x87, 30
  00488	e59d0874	 ldr         r0, [sp, #0x874]
  0048c	eb000000	 bl          GetDeviceInformationByFileHandle
  00490	e58d0878	 str         r0, [sp, #0x878]
  00494	e59d3878	 ldr         r3, [sp, #0x878]
  00498	e3530001	 cmp         r3, #1
  0049c	1a000007	 bne         |$LN12@InsertDevi|

; 119  :         {
; 120  :             RegOpenKeyEx(HKEY_LOCAL_MACHINE, di.szDeviceKey, 0, 0, &hKey);

  004a0	e28d3f86	 add         r3, sp, #0x86, 30
  004a4	e58d3000	 str         r3, [sp]
  004a8	e3a03000	 mov         r3, #0
  004ac	e3a02000	 mov         r2, #0
  004b0	e28d1f8d	 add         r1, sp, #0x8D, 30
  004b4	e3a0010a	 mov         r0, #0xA, 2
  004b8	eb000000	 bl          RegOpenKeyExW

; 121  :         }
; 122  :     else if (pDevice->SendIoControl(IOCTL_TIPMX_CONTEXTPATH, NULL, 0, &outData, 

  004bc	ea000021	 b           |$LN11@InsertDevi|
  004c0		 |$LN12@InsertDevi|

; 123  :                 sizeof(outData), NULL) == TRUE)

  004c0	e3a03000	 mov         r3, #0
  004c4	e58d3008	 str         r3, [sp, #8]
  004c8	e3a03f82	 mov         r3, #0x82, 30
  004cc	e58d3004	 str         r3, [sp, #4]
  004d0	e28d300c	 add         r3, sp, #0xC
  004d4	e58d3000	 str         r3, [sp]
  004d8	e3a03000	 mov         r3, #0
  004dc	e3a02000	 mov         r2, #0
  004e0	e3a01112	 mov         r1, #0x12, 2
  004e4	e3811b41	 orr         r1, r1, #0x41, 22
  004e8	e59d08ac	 ldr         r0, [sp, #0x8AC]
  004ec	e5900000	 ldr         r0, [r0]
  004f0	e280e00c	 add         lr, r0, #0xC
  004f4	e59d08ac	 ldr         r0, [sp, #0x8AC]
  004f8	e59e4000	 ldr         r4, [lr]
  004fc	e1a0e00f	 mov         lr, pc
  00500	e12fff14	 bx          r4
  00504	e58d087c	 str         r0, [sp, #0x87C]
  00508	e59d387c	 ldr         r3, [sp, #0x87C]
  0050c	e3530001	 cmp         r3, #1
  00510	1a00000c	 bne         |$LN10@InsertDevi|

; 124  :         {
; 125  :         if (_tcslen(outData.szContext) > 0)

  00514	e28d000c	 add         r0, sp, #0xC
  00518	eb000000	 bl          wcslen
  0051c	e58d0880	 str         r0, [sp, #0x880]
  00520	e59d3880	 ldr         r3, [sp, #0x880]
  00524	e3530000	 cmp         r3, #0
  00528	9a000006	 bls         |$LN9@InsertDevi|

; 126  :             {
; 127  :             RegOpenKeyEx(HKEY_LOCAL_MACHINE, outData.szContext, 0, 0, &hKey);

  0052c	e28d3f86	 add         r3, sp, #0x86, 30
  00530	e58d3000	 str         r3, [sp]
  00534	e3a03000	 mov         r3, #0
  00538	e3a02000	 mov         r2, #0
  0053c	e28d100c	 add         r1, sp, #0xC
  00540	e3a0010a	 mov         r0, #0xA, 2
  00544	eb000000	 bl          RegOpenKeyExW
  00548		 |$LN9@InsertDevi|
  00548		 |$LN10@InsertDevi|
  00548		 |$LN11@InsertDevi|

; 128  :             }
; 129  :         }
; 130  : 
; 131  :     // if a valid context key is retrieved get information from registry
; 132  :     // and insert device driver wrapper if a list is using it.
; 133  :     if (hKey != NULL)

  00548	e59d3218	 ldr         r3, [sp, #0x218]
  0054c	e3530000	 cmp         r3, #0
  00550	0a000063	 beq         |$LN8@InsertDevi|

; 134  :         {
; 135  :         ContextList *pContextList = m_pContextListHead;

  00554	e59d38a4	 ldr         r3, [sp, #0x8A4]
  00558	e2833018	 add         r3, r3, #0x18
  0055c	e5933000	 ldr         r3, [r3]
  00560	e58d384c	 str         r3, [sp, #0x84C]
  00564		 |$LN7@InsertDevi|

; 136  :         do
; 137  :             {
; 138  :             rc |= pContextList->InsertDevice(szDeviceName, pDevice, hKey);

  00564	e59d3218	 ldr         r3, [sp, #0x218]
  00568	e59d28ac	 ldr         r2, [sp, #0x8AC]
  0056c	e59d18a8	 ldr         r1, [sp, #0x8A8]
  00570	e59d084c	 ldr         r0, [sp, #0x84C]
  00574	e5900000	 ldr         r0, [r0]
  00578	e280e008	 add         lr, r0, #8
  0057c	e59d084c	 ldr         r0, [sp, #0x84C]
  00580	e59e4000	 ldr         r4, [lr]
  00584	e1a0e00f	 mov         lr, pc
  00588	e12fff14	 bx          r4
  0058c	e58d0884	 str         r0, [sp, #0x884]
  00590	e59d2214	 ldr         r2, [sp, #0x214]
  00594	e59d3884	 ldr         r3, [sp, #0x884]
  00598	e1823003	 orr         r3, r2, r3
  0059c	e58d3214	 str         r3, [sp, #0x214]

; 139  :             pContextList = (ContextList*)pContextList->Flink;

  005a0	e59d384c	 ldr         r3, [sp, #0x84C]
  005a4	e2833004	 add         r3, r3, #4
  005a8	e5933000	 ldr         r3, [r3]
  005ac	e3530000	 cmp         r3, #0
  005b0	0a000005	 beq         |$LN15@InsertDevi|
  005b4	e59d384c	 ldr         r3, [sp, #0x84C]
  005b8	e2833004	 add         r3, r3, #4
  005bc	e5933000	 ldr         r3, [r3]
  005c0	e2433004	 sub         r3, r3, #4
  005c4	e58d3888	 str         r3, [sp, #0x888]
  005c8	ea000001	 b           |$LN16@InsertDevi|
  005cc		 |$LN15@InsertDevi|
  005cc	e3a03000	 mov         r3, #0
  005d0	e58d3888	 str         r3, [sp, #0x888]
  005d4		 |$LN16@InsertDevi|
  005d4	e59d3888	 ldr         r3, [sp, #0x888]
  005d8	e58d384c	 str         r3, [sp, #0x84C]

; 140  :             }
; 141  :             while (pContextList != m_pContextListHead);

  005dc	e59d38a4	 ldr         r3, [sp, #0x8A4]
  005e0	e2833018	 add         r3, r3, #0x18
  005e4	e59d284c	 ldr         r2, [sp, #0x84C]
  005e8	e5933000	 ldr         r3, [r3]
  005ec	e1520003	 cmp         r2, r3
  005f0	1affffdb	 bne         |$LN7@InsertDevi|

; 142  : 
; 143  :         // if there is a list wanting the device then add it the list
; 144  :         if (rc != FALSE)

  005f4	e59d3214	 ldr         r3, [sp, #0x214]
  005f8	e3530000	 cmp         r3, #0
  005fc	0a000036	 beq         |$LN4@InsertDevi|

; 145  :             {
; 146  :             Lock();

  00600	e59d08a4	 ldr         r0, [sp, #0x8A4]
  00604	eb000000	 bl          |?Lock@DeviceMediator@@IAAXXZ|

; 147  : #pragma warning(push)
; 148  : #pragma warning(disable:4127)
; 149  :             InsertHeadList(m_pDeviceBaseHead, pDevice);

  00608	e59d38a4	 ldr         r3, [sp, #0x8A4]
  0060c	e2833014	 add         r3, r3, #0x14
  00610	e5933000	 ldr         r3, [r3]
  00614	e3530000	 cmp         r3, #0
  00618	0a000005	 beq         |$LN17@InsertDevi|
  0061c	e59d38a4	 ldr         r3, [sp, #0x8A4]
  00620	e2833014	 add         r3, r3, #0x14
  00624	e5933000	 ldr         r3, [r3]
  00628	e2833004	 add         r3, r3, #4
  0062c	e58d388c	 str         r3, [sp, #0x88C]
  00630	ea000001	 b           |$LN18@InsertDevi|
  00634		 |$LN17@InsertDevi|
  00634	e3a03000	 mov         r3, #0
  00638	e58d388c	 str         r3, [sp, #0x88C]
  0063c		 |$LN18@InsertDevi|
  0063c	e59d388c	 ldr         r3, [sp, #0x88C]
  00640	e58d3854	 str         r3, [sp, #0x854]
  00644	e59d3854	 ldr         r3, [sp, #0x854]
  00648	e5933000	 ldr         r3, [r3]
  0064c	e58d3850	 str         r3, [sp, #0x850]
  00650	e59d38ac	 ldr         r3, [sp, #0x8AC]
  00654	e2832004	 add         r2, r3, #4
  00658	e59d3850	 ldr         r3, [sp, #0x850]
  0065c	e5823000	 str         r3, [r2]
  00660	e59d38ac	 ldr         r3, [sp, #0x8AC]
  00664	e2832008	 add         r2, r3, #8
  00668	e59d3854	 ldr         r3, [sp, #0x854]
  0066c	e5823000	 str         r3, [r2]
  00670	e59d38ac	 ldr         r3, [sp, #0x8AC]
  00674	e3530000	 cmp         r3, #0
  00678	0a000003	 beq         |$LN19@InsertDevi|
  0067c	e59d38ac	 ldr         r3, [sp, #0x8AC]
  00680	e2833004	 add         r3, r3, #4
  00684	e58d3890	 str         r3, [sp, #0x890]
  00688	ea000001	 b           |$LN20@InsertDevi|
  0068c		 |$LN19@InsertDevi|
  0068c	e3a03000	 mov         r3, #0
  00690	e58d3890	 str         r3, [sp, #0x890]
  00694		 |$LN20@InsertDevi|
  00694	e59d3850	 ldr         r3, [sp, #0x850]
  00698	e2832004	 add         r2, r3, #4
  0069c	e59d3890	 ldr         r3, [sp, #0x890]
  006a0	e5823000	 str         r3, [r2]
  006a4	e59d38ac	 ldr         r3, [sp, #0x8AC]
  006a8	e3530000	 cmp         r3, #0
  006ac	0a000003	 beq         |$LN21@InsertDevi|
  006b0	e59d38ac	 ldr         r3, [sp, #0x8AC]
  006b4	e2833004	 add         r3, r3, #4
  006b8	e58d3894	 str         r3, [sp, #0x894]
  006bc	ea000001	 b           |$LN22@InsertDevi|
  006c0		 |$LN21@InsertDevi|
  006c0	e3a03000	 mov         r3, #0
  006c4	e58d3894	 str         r3, [sp, #0x894]
  006c8		 |$LN22@InsertDevi|
  006c8	e59d2894	 ldr         r2, [sp, #0x894]
  006cc	e59d3854	 ldr         r3, [sp, #0x854]
  006d0	e5832000	 str         r2, [r3]

; 150  : #pragma warning(pop)
; 151  :             Unlock();

  006d4	e59d08a4	 ldr         r0, [sp, #0x8A4]
  006d8	eb000000	 bl          |?Unlock@DeviceMediator@@IAAXXZ|
  006dc		 |$LN4@InsertDevi|

; 152  :             }
; 153  : 
; 154  :         RegCloseKey(hKey);

  006dc	e59d0218	 ldr         r0, [sp, #0x218]
  006e0	eb000000	 bl          RegCloseKey
  006e4		 |$LN8@InsertDevi|

; 155  :         }
; 156  : 
; 157  :     return rc;

  006e4	e59d0858	 ldr         r0, [sp, #0x858]
  006e8	eb000000	 bl          __security_check_cookie
  006ec	e59d3214	 ldr         r3, [sp, #0x214]
  006f0	e58d3870	 str         r3, [sp, #0x870]

; 158  : }

  006f4	e59d0870	 ldr         r0, [sp, #0x870]
  006f8	e3a0cb02	 mov         r12, #2, 22
  006fc	e38cc098	 orr         r12, r12, #0x98
  00700	e08dd00c	 add         sp, sp, r12
  00704	e89d6010	 ldmia       sp, {r4, sp, lr}
  00708	e12fff1e	 bx          lr
  0070c		 |$LN26@InsertDevi|
  0070c		 |$LN27@InsertDevi|
  0070c	00000000	 DCD         |__security_cookie|
  00710		 |$LN28@InsertDevi|
  00710	fffff768	 DCD         0xfffff768
  00714		 |$M33422|

			 ENDP  ; |?InsertDevice@DeviceMediator@@QAAHPBGPAVDeviceBase@@@Z|, DeviceMediator::InsertDevice

; File c:\wince600\platform\common\src\soc\common_ti_v1\common_ti\pm\devicemediator\devicebase.h

  00000			 AREA	 |.pdata|, PDATA
|$T33433| DCD	|$LN5@GetDeviceH|
	DCD	0x40000c04
; Function compile flags: /Odtp

  00000			 AREA	 |.text|, CODE, ARM

  00000		 |?GetDeviceHandle@DeviceBase@@QBAPAXXZ| PROC ; DeviceBase::GetDeviceHandle

; 70   :         {

  00000		 |$LN5@GetDeviceH|
  00000	e1a0c00d	 mov         r12, sp
  00004	e92d0001	 stmdb       sp!, {r0}
  00008	e92d5000	 stmdb       sp!, {r12, lr}
  0000c	e24dd004	 sub         sp, sp, #4
  00010		 |$M33430|

; 71   :         return m_hDevice;

  00010	e59d300c	 ldr         r3, [sp, #0xC]
  00014	e283300c	 add         r3, r3, #0xC
  00018	e5933000	 ldr         r3, [r3]
  0001c	e58d3000	 str         r3, [sp]

; 72   :         }

  00020	e59d0000	 ldr         r0, [sp]
  00024	e28dd004	 add         sp, sp, #4
  00028	e89d6000	 ldmia       sp, {sp, lr}
  0002c	e12fff1e	 bx          lr
  00030		 |$M33431|

			 ENDP  ; |?GetDeviceHandle@DeviceBase@@QBAPAXXZ|, DeviceBase::GetDeviceHandle

	IMPORT	|EnterCriticalSection|
; File c:\wince600\platform\common\src\soc\common_ti_v1\common_ti\pm\devicemediator\devicemediator.h

  00000			 AREA	 |.pdata|, PDATA
|$T33440| DCD	|$LN5@Lock|
	DCD	0x40000703
; Function compile flags: /Odtp

  00000			 AREA	 |.text|, CODE, ARM

  00000		 |?Lock@DeviceMediator@@IAAXXZ| PROC	; DeviceMediator::Lock

; 64   :         { 

  00000		 |$LN5@Lock|
  00000	e1a0c00d	 mov         r12, sp
  00004	e92d0001	 stmdb       sp!, {r0}
  00008	e92d5000	 stmdb       sp!, {r12, lr}
  0000c		 |$M33437|

; 65   :         ::EnterCriticalSection(&m_cs); 

  0000c	e59d0008	 ldr         r0, [sp, #8]
  00010	eb000000	 bl          EnterCriticalSection

; 66   :         }

  00014	e89d6000	 ldmia       sp, {sp, lr}
  00018	e12fff1e	 bx          lr
  0001c		 |$M33438|

			 ENDP  ; |?Lock@DeviceMediator@@IAAXXZ|, DeviceMediator::Lock

	IMPORT	|LeaveCriticalSection|

  00000			 AREA	 |.pdata|, PDATA
|$T33447| DCD	|$LN5@Unlock|
	DCD	0x40000703
; Function compile flags: /Odtp

  00000			 AREA	 |.text|, CODE, ARM

  00000		 |?Unlock@DeviceMediator@@IAAXXZ| PROC	; DeviceMediator::Unlock

; 69   :         { 

  00000		 |$LN5@Unlock|
  00000	e1a0c00d	 mov         r12, sp
  00004	e92d0001	 stmdb       sp!, {r0}
  00008	e92d5000	 stmdb       sp!, {r12, lr}
  0000c		 |$M33444|

; 70   :         ::LeaveCriticalSection(&m_cs); 

  0000c	e59d0008	 ldr         r0, [sp, #8]
  00010	eb000000	 bl          LeaveCriticalSection

; 71   :         }

  00014	e89d6000	 ldmia       sp, {sp, lr}
  00018	e12fff1e	 bx          lr
  0001c		 |$M33445|

			 ENDP  ; |?Unlock@DeviceMediator@@IAAXXZ|, DeviceMediator::Unlock

	EXPORT	|??8DeviceBase@@QBAHPBG@Z|		; DeviceBase::operator==
	EXPORT	|?FindDevice@DeviceMediator@@QAAPAVDeviceBase@@PBG@Z| ; DeviceMediator::FindDevice

  00028			 AREA	 |.pdata|, PDATA
|$T33459| DCD	|$LN12@FindDevice|
	DCD	0x40004304
; Function compile flags: /Odtp
; File c:\wince600\platform\common\src\soc\common_ti_v1\common_ti\pm\devicemediator\devicemediator.cpp

  00714			 AREA	 |.text|, CODE, ARM

  00714		 |?FindDevice@DeviceMediator@@QAAPAVDeviceBase@@PBG@Z| PROC ; DeviceMediator::FindDevice

; 165  : {

  00714		 |$LN12@FindDevice|
  00714	e1a0c00d	 mov         r12, sp
  00718	e92d0003	 stmdb       sp!, {r0, r1}
  0071c	e92d5000	 stmdb       sp!, {r12, lr}
  00720	e24dd018	 sub         sp, sp, #0x18
  00724		 |$M33456|

; 166  :     Lock();

  00724	e59d0020	 ldr         r0, [sp, #0x20]
  00728	eb000000	 bl          |?Lock@DeviceMediator@@IAAXXZ|

; 167  :     DeviceBase *pDevice = NULL;

  0072c	e3a03000	 mov         r3, #0
  00730	e58d3000	 str         r3, [sp]

; 168  :     DeviceBase *pCurrent = (DeviceBase*)m_pDeviceBaseHead->Flink;

  00734	e59d3020	 ldr         r3, [sp, #0x20]
  00738	e2833014	 add         r3, r3, #0x14
  0073c	e5933000	 ldr         r3, [r3]
  00740	e2833004	 add         r3, r3, #4
  00744	e5933000	 ldr         r3, [r3]
  00748	e3530000	 cmp         r3, #0
  0074c	0a000007	 beq         |$LN6@FindDevice|
  00750	e59d3020	 ldr         r3, [sp, #0x20]
  00754	e2833014	 add         r3, r3, #0x14
  00758	e5933000	 ldr         r3, [r3]
  0075c	e2833004	 add         r3, r3, #4
  00760	e5933000	 ldr         r3, [r3]
  00764	e2433004	 sub         r3, r3, #4
  00768	e58d300c	 str         r3, [sp, #0xC]
  0076c	ea000001	 b           |$LN7@FindDevice|
  00770		 |$LN6@FindDevice|
  00770	e3a03000	 mov         r3, #0
  00774	e58d300c	 str         r3, [sp, #0xC]
  00778		 |$LN7@FindDevice|
  00778	e59d300c	 ldr         r3, [sp, #0xC]
  0077c	e58d3004	 str         r3, [sp, #4]
  00780		 |$LN3@FindDevice|

; 169  :     while (pCurrent != m_pDeviceBaseHead)

  00780	e59d3020	 ldr         r3, [sp, #0x20]
  00784	e2833014	 add         r3, r3, #0x14
  00788	e59d2004	 ldr         r2, [sp, #4]
  0078c	e5933000	 ldr         r3, [r3]
  00790	e1520003	 cmp         r2, r3
  00794	0a000019	 beq         |$LN2@FindDevice|

; 170  :         {
; 171  :         if (*pCurrent == szDeviceName)

  00798	e59d1024	 ldr         r1, [sp, #0x24]
  0079c	e59d0004	 ldr         r0, [sp, #4]
  007a0	eb000000	 bl          |??8DeviceBase@@QBAHPBG@Z|
  007a4	e58d0010	 str         r0, [sp, #0x10]
  007a8	e59d3010	 ldr         r3, [sp, #0x10]
  007ac	e3530000	 cmp         r3, #0
  007b0	0a000002	 beq         |$LN1@FindDevice|

; 172  :             {
; 173  :             pDevice = pCurrent;

  007b4	e59d3004	 ldr         r3, [sp, #4]
  007b8	e58d3000	 str         r3, [sp]

; 174  :             break;

  007bc	ea00000f	 b           |$LN2@FindDevice|
  007c0		 |$LN1@FindDevice|

; 175  :             }
; 176  :         pCurrent = (DeviceBase*)pCurrent->Flink;

  007c0	e59d3004	 ldr         r3, [sp, #4]
  007c4	e2833004	 add         r3, r3, #4
  007c8	e5933000	 ldr         r3, [r3]
  007cc	e3530000	 cmp         r3, #0
  007d0	0a000005	 beq         |$LN8@FindDevice|
  007d4	e59d3004	 ldr         r3, [sp, #4]
  007d8	e2833004	 add         r3, r3, #4
  007dc	e5933000	 ldr         r3, [r3]
  007e0	e2433004	 sub         r3, r3, #4
  007e4	e58d3014	 str         r3, [sp, #0x14]
  007e8	ea000001	 b           |$LN9@FindDevice|
  007ec		 |$LN8@FindDevice|
  007ec	e3a03000	 mov         r3, #0
  007f0	e58d3014	 str         r3, [sp, #0x14]
  007f4		 |$LN9@FindDevice|
  007f4	e59d3014	 ldr         r3, [sp, #0x14]
  007f8	e58d3004	 str         r3, [sp, #4]

; 177  :         }

  007fc	eaffffdf	 b           |$LN3@FindDevice|
  00800		 |$LN2@FindDevice|

; 178  : 
; 179  :     Unlock();

  00800	e59d0020	 ldr         r0, [sp, #0x20]
  00804	eb000000	 bl          |?Unlock@DeviceMediator@@IAAXXZ|

; 180  :     return pDevice;

  00808	e59d3000	 ldr         r3, [sp]
  0080c	e58d3008	 str         r3, [sp, #8]

; 181  : }

  00810	e59d0008	 ldr         r0, [sp, #8]
  00814	e28dd018	 add         sp, sp, #0x18
  00818	e89d6000	 ldmia       sp, {sp, lr}
  0081c	e12fff1e	 bx          lr
  00820		 |$M33457|

			 ENDP  ; |?FindDevice@DeviceMediator@@QAAPAVDeviceBase@@PBG@Z|, DeviceMediator::FindDevice

	EXPORT	|?GetDeviceName@DeviceBase@@QBAPBGXZ|	; DeviceBase::GetDeviceName
	IMPORT	|_wcsicmp|
; File c:\wince600\platform\common\src\soc\common_ti_v1\common_ti\pm\devicemediator\devicebase.h

  00000			 AREA	 |.pdata|, PDATA
|$T33467| DCD	|$LN9@operator|
	DCD	0x40002204
; Function compile flags: /Odtp

  00000			 AREA	 |.text|, CODE, ARM

  00000		 |??8DeviceBase@@QBAHPBG@Z| PROC	; DeviceBase::operator==

; 79   :         {

  00000		 |$LN9@operator|
  00000	e1a0c00d	 mov         r12, sp
  00004	e92d0003	 stmdb       sp!, {r0, r1}
  00008	e92d5000	 stmdb       sp!, {r12, lr}
  0000c	e24dd010	 sub         sp, sp, #0x10
  00010		 |$M33464|

; 80   :         if (m_szDeviceName == NULL || szDeviceName == NULL) return FALSE;

  00010	e59d3018	 ldr         r3, [sp, #0x18]
  00014	e2933010	 adds        r3, r3, #0x10
  00018	0a000002	 beq         |$LN1@operator|
  0001c	e59d301c	 ldr         r3, [sp, #0x1C]
  00020	e3530000	 cmp         r3, #0
  00024	1a000002	 bne         |$LN2@operator|
  00028		 |$LN1@operator|
  00028	e3a03000	 mov         r3, #0
  0002c	e58d3000	 str         r3, [sp]
  00030	ea000010	 b           |$LN3@operator|
  00034		 |$LN2@operator|

; 81   :         return _tcsicmp(GetDeviceName(), szDeviceName) == 0;

  00034	e59d0018	 ldr         r0, [sp, #0x18]
  00038	eb000000	 bl          |?GetDeviceName@DeviceBase@@QBAPBGXZ|
  0003c	e58d0004	 str         r0, [sp, #4]
  00040	e59d101c	 ldr         r1, [sp, #0x1C]
  00044	e59d0004	 ldr         r0, [sp, #4]
  00048	eb000000	 bl          _wcsicmp
  0004c	e58d0008	 str         r0, [sp, #8]
  00050	e59d3008	 ldr         r3, [sp, #8]
  00054	e3530000	 cmp         r3, #0
  00058	1a000002	 bne         |$LN5@operator|
  0005c	e3a03001	 mov         r3, #1
  00060	e58d300c	 str         r3, [sp, #0xC]
  00064	ea000001	 b           |$LN6@operator|
  00068		 |$LN5@operator|
  00068	e3a03000	 mov         r3, #0
  0006c	e58d300c	 str         r3, [sp, #0xC]
  00070		 |$LN6@operator|
  00070	e59d300c	 ldr         r3, [sp, #0xC]
  00074	e58d3000	 str         r3, [sp]
  00078		 |$LN3@operator|

; 82   :         }

  00078	e59d0000	 ldr         r0, [sp]
  0007c	e28dd010	 add         sp, sp, #0x10
  00080	e89d6000	 ldmia       sp, {sp, lr}
  00084	e12fff1e	 bx          lr
  00088		 |$M33465|

			 ENDP  ; |??8DeviceBase@@QBAHPBG@Z|, DeviceBase::operator==


  00000			 AREA	 |.pdata|, PDATA
|$T33475| DCD	|$LN5@GetDeviceN|
	DCD	0x40000b04
; Function compile flags: /Odtp

  00000			 AREA	 |.text|, CODE, ARM

  00000		 |?GetDeviceName@DeviceBase@@QBAPBGXZ| PROC ; DeviceBase::GetDeviceName

; 65   :         { 

  00000		 |$LN5@GetDeviceN|
  00000	e1a0c00d	 mov         r12, sp
  00004	e92d0001	 stmdb       sp!, {r0}
  00008	e92d5000	 stmdb       sp!, {r12, lr}
  0000c	e24dd004	 sub         sp, sp, #4
  00010		 |$M33472|

; 66   :         return m_szDeviceName; 

  00010	e59d300c	 ldr         r3, [sp, #0xC]
  00014	e2833010	 add         r3, r3, #0x10
  00018	e58d3000	 str         r3, [sp]

; 67   :         }

  0001c	e59d0000	 ldr         r0, [sp]
  00020	e28dd004	 add         sp, sp, #4
  00024	e89d6000	 ldmia       sp, {sp, lr}
  00028	e12fff1e	 bx          lr
  0002c		 |$M33473|

			 ENDP  ; |?GetDeviceName@DeviceBase@@QBAPBGXZ|, DeviceBase::GetDeviceName

	EXPORT	|?RemoveDevice@DeviceMediator@@QAAPAVDeviceBase@@PBG@Z| ; DeviceMediator::RemoveDevice

  00030			 AREA	 |.pdata|, PDATA
|$T33487| DCD	|$LN17@RemoveDevi|
	DCD	0x40005804
; Function compile flags: /Odtp
; File c:\wince600\platform\common\src\soc\common_ti_v1\common_ti\pm\devicemediator\devicemediator.cpp

  00820			 AREA	 |.text|, CODE, ARM

  00820		 |?RemoveDevice@DeviceMediator@@QAAPAVDeviceBase@@PBG@Z| PROC ; DeviceMediator::RemoveDevice

; 189  : {

  00820		 |$LN17@RemoveDevi|
  00820	e1a0c00d	 mov         r12, sp
  00824	e92d0003	 stmdb       sp!, {r0, r1}
  00828	e92d5000	 stmdb       sp!, {r12, lr}
  0082c	e24dd01c	 sub         sp, sp, #0x1C
  00830		 |$M33484|

; 190  :     DeviceBase *pDevice;
; 191  : 
; 192  :     // check for valid items
; 193  :     if (*szDeviceName == NULL) return NULL;

  00830	e59d3028	 ldr         r3, [sp, #0x28]
  00834	e1d330b0	 ldrh        r3, [r3]
  00838	e3530000	 cmp         r3, #0
  0083c	1a000002	 bne         |$LN8@RemoveDevi|
  00840	e3a03000	 mov         r3, #0
  00844	e58d300c	 str         r3, [sp, #0xC]
  00848	ea000048	 b           |$LN9@RemoveDevi|
  0084c		 |$LN8@RemoveDevi|

; 194  : 
; 195  :     Lock();

  0084c	e59d0024	 ldr         r0, [sp, #0x24]
  00850	eb000000	 bl          |?Lock@DeviceMediator@@IAAXXZ|

; 196  :     pDevice = FindDevice(szDeviceName);

  00854	e59d1028	 ldr         r1, [sp, #0x28]
  00858	e59d0024	 ldr         r0, [sp, #0x24]
  0085c	eb000000	 bl          |?FindDevice@DeviceMediator@@QAAPAVDeviceBase@@PBG@Z|
  00860	e58d0010	 str         r0, [sp, #0x10]
  00864	e59d3010	 ldr         r3, [sp, #0x10]
  00868	e58d3000	 str         r3, [sp]

; 197  :     if (pDevice != NULL)

  0086c	e59d3000	 ldr         r3, [sp]
  00870	e3530000	 cmp         r3, #0
  00874	0a000039	 beq         |$LN7@RemoveDevi|

; 198  :         {
; 199  :         ContextList *pContextList = m_pContextListHead;

  00878	e59d3024	 ldr         r3, [sp, #0x24]
  0087c	e2833018	 add         r3, r3, #0x18
  00880	e5933000	 ldr         r3, [r3]
  00884	e58d3004	 str         r3, [sp, #4]
  00888		 |$LN6@RemoveDevi|

; 200  :         do
; 201  :             {
; 202  :             pContextList->RemoveDevice(szDeviceName, pDevice);

  00888	e59d2000	 ldr         r2, [sp]
  0088c	e59d1028	 ldr         r1, [sp, #0x28]
  00890	e59d3004	 ldr         r3, [sp, #4]
  00894	e5933000	 ldr         r3, [r3]
  00898	e283300c	 add         r3, r3, #0xC
  0089c	e59d0004	 ldr         r0, [sp, #4]
  008a0	e5933000	 ldr         r3, [r3]
  008a4	e1a0e00f	 mov         lr, pc
  008a8	e12fff13	 bx          r3

; 203  :             pContextList = (ContextList*)pContextList->Flink;

  008ac	e59d3004	 ldr         r3, [sp, #4]
  008b0	e2833004	 add         r3, r3, #4
  008b4	e5933000	 ldr         r3, [r3]
  008b8	e3530000	 cmp         r3, #0
  008bc	0a000005	 beq         |$LN11@RemoveDevi|
  008c0	e59d3004	 ldr         r3, [sp, #4]
  008c4	e2833004	 add         r3, r3, #4
  008c8	e5933000	 ldr         r3, [r3]
  008cc	e2433004	 sub         r3, r3, #4
  008d0	e58d3014	 str         r3, [sp, #0x14]
  008d4	ea000001	 b           |$LN12@RemoveDevi|
  008d8		 |$LN11@RemoveDevi|
  008d8	e3a03000	 mov         r3, #0
  008dc	e58d3014	 str         r3, [sp, #0x14]
  008e0		 |$LN12@RemoveDevi|
  008e0	e59d3014	 ldr         r3, [sp, #0x14]
  008e4	e58d3004	 str         r3, [sp, #4]

; 204  :             }
; 205  :             while (pContextList != m_pContextListHead);

  008e8	e59d3024	 ldr         r3, [sp, #0x24]
  008ec	e2833018	 add         r3, r3, #0x18
  008f0	e59d2004	 ldr         r2, [sp, #4]
  008f4	e5933000	 ldr         r3, [r3]
  008f8	e1520003	 cmp         r2, r3
  008fc	1affffe1	 bne         |$LN6@RemoveDevi|

; 206  : #pragma warning(push)
; 207  : #pragma warning(disable:4127)
; 208  :         RemoveEntryList(pDevice);

  00900	e59d3000	 ldr         r3, [sp]
  00904	e3530000	 cmp         r3, #0
  00908	0a000003	 beq         |$LN13@RemoveDevi|
  0090c	e59d3000	 ldr         r3, [sp]
  00910	e2833004	 add         r3, r3, #4
  00914	e58d3018	 str         r3, [sp, #0x18]
  00918	ea000001	 b           |$LN14@RemoveDevi|
  0091c		 |$LN13@RemoveDevi|
  0091c	e3a03000	 mov         r3, #0
  00920	e58d3018	 str         r3, [sp, #0x18]
  00924		 |$LN14@RemoveDevi|
  00924	e59d3018	 ldr         r3, [sp, #0x18]
  00928	e58d3008	 str         r3, [sp, #8]
  0092c	e59d3008	 ldr         r3, [sp, #8]
  00930	e2833004	 add         r3, r3, #4
  00934	e5932000	 ldr         r2, [r3]
  00938	e59d3008	 ldr         r3, [sp, #8]
  0093c	e5933000	 ldr         r3, [r3]
  00940	e5823000	 str         r3, [r2]
  00944	e59d3008	 ldr         r3, [sp, #8]
  00948	e2831004	 add         r1, r3, #4
  0094c	e59d3008	 ldr         r3, [sp, #8]
  00950	e5933000	 ldr         r3, [r3]
  00954	e2832004	 add         r2, r3, #4
  00958	e5913000	 ldr         r3, [r1]
  0095c	e5823000	 str         r3, [r2]
  00960		 |$LN7@RemoveDevi|

; 209  : #pragma warning(pop)
; 210  :         }
; 211  :     Unlock();

  00960	e59d0024	 ldr         r0, [sp, #0x24]
  00964	eb000000	 bl          |?Unlock@DeviceMediator@@IAAXXZ|

; 212  :     
; 213  :     return pDevice;

  00968	e59d3000	 ldr         r3, [sp]
  0096c	e58d300c	 str         r3, [sp, #0xC]
  00970		 |$LN9@RemoveDevi|

; 214  : }

  00970	e59d000c	 ldr         r0, [sp, #0xC]
  00974	e28dd01c	 add         sp, sp, #0x1C
  00978	e89d6000	 ldmia       sp, {sp, lr}
  0097c	e12fff1e	 bx          lr
  00980		 |$M33485|

			 ENDP  ; |?RemoveDevice@DeviceMediator@@QAAPAVDeviceBase@@PBG@Z|, DeviceMediator::RemoveDevice

	EXPORT	|?GetContextListId@ContextList@@QBAKXZ|	; ContextList::GetContextListId
	EXPORT	|?SendMessageW@DeviceMediator@@QAAHIIKPAXK0KPAK@Z| ; DeviceMediator::SendMessageW

  00038			 AREA	 |.pdata|, PDATA
|$T33499| DCD	|$LN11@SendMessag|
	DCD	0x40004604
; Function compile flags: /Odtp

  00980			 AREA	 |.text|, CODE, ARM

  00980		 |?SendMessageW@DeviceMediator@@QAAHIIKPAXK0KPAK@Z| PROC ; DeviceMediator::SendMessageW

; 229  : {

  00980		 |$LN11@SendMessag|
  00980	e1a0c00d	 mov         r12, sp
  00984	e92d000f	 stmdb       sp!, {r0 - r3}
  00988	e92d5010	 stmdb       sp!, {r4, r12, lr}
  0098c	e24dd038	 sub         sp, sp, #0x38
  00990		 |$M33496|

; 230  :     BOOL rc = FALSE;

  00990	e3a03000	 mov         r3, #0
  00994	e58d3010	 str         r3, [sp, #0x10]

; 231  :     
; 232  :     // find list
; 233  :     Lock();

  00998	e59d0044	 ldr         r0, [sp, #0x44]
  0099c	eb000000	 bl          |?Lock@DeviceMediator@@IAAXXZ|

; 234  :     ContextList *pContextList = m_pContextListHead;

  009a0	e59d3044	 ldr         r3, [sp, #0x44]
  009a4	e2833018	 add         r3, r3, #0x18
  009a8	e5933000	 ldr         r3, [r3]
  009ac	e58d3014	 str         r3, [sp, #0x14]
  009b0		 |$LN4@SendMessag|

; 235  :     do
; 236  :         {
; 237  :         if (pContextList->GetContextListId() == listId)

  009b0	e59d0014	 ldr         r0, [sp, #0x14]
  009b4	eb000000	 bl          |?GetContextListId@ContextList@@QBAKXZ|
  009b8	e58d002c	 str         r0, [sp, #0x2C]
  009bc	e59d202c	 ldr         r2, [sp, #0x2C]
  009c0	e59d3048	 ldr         r3, [sp, #0x48]
  009c4	e1520003	 cmp         r2, r3
  009c8	1a000015	 bne         |$LN1@SendMessag|

; 238  :             {
; 239  :              rc = pContextList->SendIoControl(dwParam, 
; 240  :                     dwIoControlCode, 
; 241  :                     lpInBuf, 
; 242  :                     nInBufSize, 
; 243  :                     lpOutBuf, 
; 244  :                     nOutBufSize, 
; 245  :                     lpBytesReturned
; 246  :                     );

  009cc	e59d3064	 ldr         r3, [sp, #0x64]
  009d0	e58d300c	 str         r3, [sp, #0xC]
  009d4	e59d3060	 ldr         r3, [sp, #0x60]
  009d8	e58d3008	 str         r3, [sp, #8]
  009dc	e59d305c	 ldr         r3, [sp, #0x5C]
  009e0	e58d3004	 str         r3, [sp, #4]
  009e4	e59d3058	 ldr         r3, [sp, #0x58]
  009e8	e58d3000	 str         r3, [sp]
  009ec	e59d3054	 ldr         r3, [sp, #0x54]
  009f0	e59d2050	 ldr         r2, [sp, #0x50]
  009f4	e59d104c	 ldr         r1, [sp, #0x4C]
  009f8	e59d0014	 ldr         r0, [sp, #0x14]
  009fc	e5900000	 ldr         r0, [r0]
  00a00	e280e010	 add         lr, r0, #0x10
  00a04	e59d0014	 ldr         r0, [sp, #0x14]
  00a08	e59e4000	 ldr         r4, [lr]
  00a0c	e1a0e00f	 mov         lr, pc
  00a10	e12fff14	 bx          r4
  00a14	e58d0030	 str         r0, [sp, #0x30]
  00a18	e59d3030	 ldr         r3, [sp, #0x30]
  00a1c	e58d3010	 str         r3, [sp, #0x10]

; 247  :              break;

  00a20	ea000014	 b           |$LN2@SendMessag|
  00a24		 |$LN1@SendMessag|

; 248  :             }
; 249  :         pContextList = (ContextList*)pContextList->Flink;

  00a24	e59d3014	 ldr         r3, [sp, #0x14]
  00a28	e2833004	 add         r3, r3, #4
  00a2c	e5933000	 ldr         r3, [r3]
  00a30	e3530000	 cmp         r3, #0
  00a34	0a000005	 beq         |$LN7@SendMessag|
  00a38	e59d3014	 ldr         r3, [sp, #0x14]
  00a3c	e2833004	 add         r3, r3, #4
  00a40	e5933000	 ldr         r3, [r3]
  00a44	e2433004	 sub         r3, r3, #4
  00a48	e58d3034	 str         r3, [sp, #0x34]
  00a4c	ea000001	 b           |$LN8@SendMessag|
  00a50		 |$LN7@SendMessag|
  00a50	e3a03000	 mov         r3, #0
  00a54	e58d3034	 str         r3, [sp, #0x34]
  00a58		 |$LN8@SendMessag|
  00a58	e59d3034	 ldr         r3, [sp, #0x34]
  00a5c	e58d3014	 str         r3, [sp, #0x14]

; 250  :         }
; 251  :         while (pContextList != m_pContextListHead);

  00a60	e59d3044	 ldr         r3, [sp, #0x44]
  00a64	e2833018	 add         r3, r3, #0x18
  00a68	e59d2014	 ldr         r2, [sp, #0x14]
  00a6c	e5933000	 ldr         r3, [r3]
  00a70	e1520003	 cmp         r2, r3
  00a74	1affffcd	 bne         |$LN4@SendMessag|
  00a78		 |$LN2@SendMessag|

; 252  :     Unlock();

  00a78	e59d0044	 ldr         r0, [sp, #0x44]
  00a7c	eb000000	 bl          |?Unlock@DeviceMediator@@IAAXXZ|

; 253  :     
; 254  :     return rc;

  00a80	e59d3010	 ldr         r3, [sp, #0x10]
  00a84	e58d3028	 str         r3, [sp, #0x28]

; 255  : }

  00a88	e59d0028	 ldr         r0, [sp, #0x28]
  00a8c	e28dd038	 add         sp, sp, #0x38
  00a90	e89d6010	 ldmia       sp, {r4, sp, lr}
  00a94	e12fff1e	 bx          lr
  00a98		 |$M33497|

			 ENDP  ; |?SendMessageW@DeviceMediator@@QAAHIIKPAXK0KPAK@Z|, DeviceMediator::SendMessageW

; File c:\wince600\platform\common\src\soc\common_ti_v1\common_ti\pm\devicemediator\contextlist.h

  00000			 AREA	 |.pdata|, PDATA
|$T33505| DCD	|$LN5@GetContext|
	DCD	0x40000c04
; Function compile flags: /Odtp

  00000			 AREA	 |.text|, CODE, ARM

  00000		 |?GetContextListId@ContextList@@QBAKXZ| PROC ; ContextList::GetContextListId

; 52   :         {

  00000		 |$LN5@GetContext|
  00000	e1a0c00d	 mov         r12, sp
  00004	e92d0001	 stmdb       sp!, {r0}
  00008	e92d5000	 stmdb       sp!, {r12, lr}
  0000c	e24dd004	 sub         sp, sp, #4
  00010		 |$M33502|

; 53   :         return m_idContextList;

  00010	e59d300c	 ldr         r3, [sp, #0xC]
  00014	e283300c	 add         r3, r3, #0xC
  00018	e5933000	 ldr         r3, [r3]
  0001c	e58d3000	 str         r3, [sp]

; 54   :         }

  00020	e59d0000	 ldr         r0, [sp]
  00024	e28dd004	 add         sp, sp, #4
  00028	e89d6000	 ldmia       sp, {sp, lr}
  0002c	e12fff1e	 bx          lr
  00030		 |$M33503|

			 ENDP  ; |?GetContextListId@ContextList@@QBAKXZ|, ContextList::GetContextListId

	END
