; Listing generated by Microsoft (R) Optimizing Compiler Version 14.01.60511.01 

	TTL	C:\WINCE600\PLATFORM\COMMON\SRC\SOC\OMAP2420_MS_V1\CEDDK\BASE\base.c
	CODE32

  00000			 AREA	 |.drectve|, DRECTVE
	DCB	"-defaultlib:LIBCMT "
	DCB	"-defaultlib:OLDNAMES "

	EXPORT	|DllEntry|
	IMPORT	|DisableThreadLibraryCalls|
; File c:\wince600\platform\common\src\soc\omap2420_ms_v1\ceddk\base\base.c

  00000			 AREA	 |.pdata|, PDATA
|$T40151| DCD	|$LN6@DllEntry|
	DCD	0x40000601
; Function compile flags: /Ogspy

  00000			 AREA	 |.text|, CODE, ARM

  00000		 |DllEntry| PROC

; 30   : {

  00000		 |$LN6@DllEntry|
  00000	e52de004	 str         lr, [sp, #-4]!
  00004		 |$M40148|

; 31   :    if (reason == DLL_PROCESS_ATTACH) {

  00004	e3510001	 cmp         r1, #1

; 32   :       DisableThreadLibraryCalls((HMODULE)hInstance);

  00008	0b000000	 bleq        DisableThreadLibraryCalls

; 33   :    }
; 34   :    return TRUE;

  0000c	e3a00001	 mov         r0, #1

; 35   : }

  00010	e49de004	 ldr         lr, [sp], #4
  00014	e12fff1e	 bx          lr
  00018		 |$M40149|

			 ENDP  ; |DllEntry|

	END
