; Listing generated by Microsoft (R) Optimizing Compiler Version 14.01.60511.01 

	TTL	C:\WINCE600\PLATFORM\COMMON\SRC\SOC\PXA27X_MS_V1\OAL\INTR\map.c
	CODE32

  00000			 AREA	 |.drectve|, DRECTVE
	DCB	"-defaultlib:LIBCMT "
	DCB	"-defaultlib:OLDNAMES "


  00000			 AREA	 |.rdata|, DATA, READONLY
|EdbgVendorIds| DCW 0x0
	DCW	0x0
	DCD	0x4033
	DCB	0x1
	DCB	"AD", 0x0
	DCW	0x1050
	DCW	0x940
	DCD	0x4005
	DCB	0x1
	DCB	"LS", 0x0
	DCW	0x1050
	DCW	0x940
	DCD	0x2078
	DCB	0x1
	DCB	"LS", 0x0
	DCW	0x10ec
	DCW	0x8029
	DCD	0xc0f0
	DCB	0x1
	DCB	"KS", 0x0
	DCW	0x10ec
	DCW	0x8129
	DCD	0x0
	DCB	0x4
	DCB	"RT", 0x0
	DCW	0x10ec
	DCW	0x8139
	DCD	0x900b
	DCB	0x4
	DCB	"RT", 0x0
	DCW	0x10ec
	DCW	0x8139
	DCD	0xd0c9
	DCB	0x4
	DCB	"RT", 0x0
	DCW	0x10ec
	DCW	0x8139
	DCD	0xe04c
	DCB	0x4
	DCB	"RT", 0x0
	DCW	0x1186
	DCW	0x1300
	DCD	0x50ba
	DCB	0x4
	DCB	"DL", 0x0
	DCW	0x100b
	DCW	0x20
	DCD	0xa0cc
	DCB	0x5
	DCB	"NG", 0x0
	DCW	0x10b7
	DCW	0x9050
	DCD	0x6008
	DCB	0x6
	DCB	"3C", 0x0
	DCW	0x10b7
	DCW	0x9200
	DCD	0x476
	DCB	0x6
	DCB	"3C", 0x0
	EXPORT	|OALIntrMapInit|
	EXPORT	|??_C@_1CO@DBMFJBPK@?$AA?9?$AAO?$AAE?$AAM?$AAI?$AAn?$AAt?$AAe?$AAr?$AAr?$AAu?$AAp?$AAt?$AAM?$AAa?$AAp?$AAI?$AAn?$AAi?$AAt?$AA?$AN?$AA?6?$AA?$AA@| [ DATA ] ; `string'
	EXPORT	|??_C@_1CO@OKABMONB@?$AA?$CL?$AAO?$AAE?$AAM?$AAI?$AAn?$AAt?$AAe?$AAr?$AAr?$AAu?$AAp?$AAt?$AAM?$AAa?$AAp?$AAI?$AAn?$AAi?$AAt?$AA?$AN?$AA?6?$AA?$AA@| [ DATA ] ; `string'
	IMPORT	|NKDbgPrintfW|
	IMPORT	|dpCurSettings|

  00000			 AREA	 |.bss|, NOINIT
|g_oalSysIntr2Irq| % 0x480
|g_oalIrq2SysIntr| % 0x400
|g_oalSysIntr2Irq| % 0x480
; File c:\wince600\platform\common\src\soc\pxa27x_ms_v1\oal\intr\map.c

  00000			 AREA	 |.pdata|, PDATA
|$T43474| DCD	|$LN28@OALIntrMap|
	DCD	0x40002001

  00000			 AREA	 |.rdata|, DATA, READONLY
|??_C@_1CO@DBMFJBPK@?$AA?9?$AAO?$AAE?$AAM?$AAI?$AAn?$AAt?$AAe?$AAr?$AAr?$AAu?$AAp?$AAt?$AAM?$AAa?$AAp?$AAI?$AAn?$AAi?$AAt?$AA?$AN?$AA?6?$AA?$AA@| DCB "-"
	DCB	0x0, "O", 0x0, "E", 0x0, "M", 0x0, "I", 0x0, "n", 0x0, "t"
	DCB	0x0, "e", 0x0, "r", 0x0, "r", 0x0, "u", 0x0, "p", 0x0, "t"
	DCB	0x0, "M", 0x0, "a", 0x0, "p", 0x0, "I", 0x0, "n", 0x0, "i"
	DCB	0x0, "t", 0x0, 0xd, 0x0, 0xa, 0x0, 0x0, 0x0 ; `string'

  00000			 AREA	 |.rdata|, DATA, READONLY
|??_C@_1CO@OKABMONB@?$AA?$CL?$AAO?$AAE?$AAM?$AAI?$AAn?$AAt?$AAe?$AAr?$AAr?$AAu?$AAp?$AAt?$AAM?$AAa?$AAp?$AAI?$AAn?$AAi?$AAt?$AA?$AN?$AA?6?$AA?$AA@| DCB "+"
	DCB	0x0, "O", 0x0, "E", 0x0, "M", 0x0, "I", 0x0, "n", 0x0, "t"
	DCB	0x0, "e", 0x0, "r", 0x0, "r", 0x0, "u", 0x0, "p", 0x0, "t"
	DCB	0x0, "M", 0x0, "a", 0x0, "p", 0x0, "I", 0x0, "n", 0x0, "i"
	DCB	0x0, "t", 0x0, 0xd, 0x0, 0xa, 0x0, 0x0, 0x0 ; `string'
; Function compile flags: /Ogspy

  00000			 AREA	 |.text|, CODE, ARM

  00000		 |OALIntrMapInit| PROC

; 47   : {

  00000		 |$LN28@OALIntrMap|
  00000	e92d4010	 stmdb       sp!, {r4, lr}
  00004		 |$M43471|

; 48   :     UINT32 i, j;
; 49   : 
; 50   :     OALMSG(OAL_FUNC&&OAL_INTR, (L"+OEMInterruptMapInit\r\n"));

  00004	e59f4070	 ldr         r4, [pc, #0x70]
  00008	e5943440	 ldr         r3, [r4, #0x440]
  0000c	e3130004	 tst         r3, #4
  00010	0a000004	 beq         |$LN12@OALIntrMap|
  00014	e3130901	 tst         r3, #1, 18
  00018	0a000002	 beq         |$LN12@OALIntrMap|
  0001c	e59f0054	 ldr         r0, [pc, #0x54]
  00020	eb000000	 bl          NKDbgPrintfW
  00024	e5943440	 ldr         r3, [r4, #0x440]
  00028		 |$LN12@OALIntrMap|

; 51   : 
; 52   :     // Initialize interrupt maps
; 53   :     for (i = 0; i < SYSINTR_MAXIMUM; i++)
; 54   :         {
; 55   :         for (j = 0; j < PXA27X_IRQ_PER_SYSINTR; j++)
; 56   :             {
; 57   :             g_oalSysIntr2Irq[i][j] = OAL_INTR_IRQ_UNDEFINED;

  00028	e59f1044	 ldr         r1, [pc, #0x44]
  0002c	e3e0e000	 mvn         lr, #0
  00030	e1a02001	 mov         r2, r1
  00034	e2810d12	 add         r0, r1, #0x12, 26
  00038		 |$LN22@OALIntrMap|
  00038	e482e004	 str         lr, [r2], #4
  0003c	e1520000	 cmp         r2, r0
  00040	1afffffc	 bne         |$LN22@OALIntrMap|

; 58   :             }
; 59   :         }
; 60   :     for (i = 0; i < PXA27X_IRQ_MAXIMUM; i++)
; 61   :         {
; 62   :         g_oalIrq2SysIntr[i] = SYSINTR_UNDEFINED;

  00044	e2812d12	 add         r2, r1, #0x12, 26
  00048	e2821b01	 add         r1, r2, #1, 22
  0004c		 |$LN24@OALIntrMap|
  0004c	e482e004	 str         lr, [r2], #4
  00050	e1520001	 cmp         r2, r1
  00054	1afffffc	 bne         |$LN24@OALIntrMap|

; 63   :         }
; 64   : 
; 65   :     OALMSG(OAL_FUNC&&OAL_INTR, (L"-OEMInterruptMapInit\r\n"));

  00058	e3130004	 tst         r3, #4
  0005c	13130901	 tstne       r3, #1, 18
  00060	159f0008	 ldrne       r0, [pc, #8]
  00064	1b000000	 blne        NKDbgPrintfW

; 66   : }

  00068	e8bd4010	 ldmia       sp!, {r4, lr}
  0006c	e12fff1e	 bx          lr
  00070		 |$LN29@OALIntrMap|
  00070		 |$LN30@OALIntrMap|
  00070	00000000	 DCD         |??_C@_1CO@DBMFJBPK@?$AA?9?$AAO?$AAE?$AAM?$AAI?$AAn?$AAt?$AAe?$AAr?$AAr?$AAu?$AAp?$AAt?$AAM?$AAa?$AAp?$AAI?$AAn?$AAi?$AAt?$AA?$AN?$AA?6?$AA?$AA@|
  00074		 |$LN31@OALIntrMap|
  00074	00000000	 DCD         |g_oalSysIntr2Irq|
  00078		 |$LN32@OALIntrMap|
  00078	00000000	 DCD         |??_C@_1CO@OKABMONB@?$AA?$CL?$AAO?$AAE?$AAM?$AAI?$AAn?$AAt?$AAe?$AAr?$AAr?$AAu?$AAp?$AAt?$AAM?$AAa?$AAp?$AAI?$AAn?$AAi?$AAt?$AA?$AN?$AA?6?$AA?$AA@|
  0007c		 |$LN33@OALIntrMap|
  0007c	00000000	 DCD         |dpCurSettings|
  00080		 |$M43472|

			 ENDP  ; |OALIntrMapInit|

	EXPORT	|OALIntrStaticTranslate|
	EXPORT	|??_C@_1DE@CBLJKBBB@?$AA?9?$AAO?$AAA?$AAL?$AAI?$AAn?$AAt?$AAr?$AAS?$AAt?$AAa?$AAt?$AAi?$AAc?$AAT?$AAr?$AAa?$AAn?$AAs?$AAl?$AAa?$AAt?$AAe?$AA?$AN?$AA?6?$AA?$AA@| [ DATA ] ; `string'
	EXPORT	|??_C@_1EE@DPKCCBO@?$AA?$CL?$AAO?$AAA?$AAL?$AAI?$AAn?$AAt?$AAr?$AAS?$AAt?$AAa?$AAt?$AAi?$AAc?$AAT?$AAr?$AAa?$AAn?$AAs?$AAl?$AAa?$AAt?$AAe?$AA?$CI?$AA?$CF?$AAd?$AA?0?$AA?5?$AA?$CF?$AAd?$AA?$CJ?$AA?$AN@| [ DATA ] ; `string'

  00000			 AREA	 |.pdata|, PDATA
|$T43495| DCD	|$LN17@OALIntrSta|
	DCD	0x40002b01

  00000			 AREA	 |.rdata|, DATA, READONLY
|??_C@_1DE@CBLJKBBB@?$AA?9?$AAO?$AAA?$AAL?$AAI?$AAn?$AAt?$AAr?$AAS?$AAt?$AAa?$AAt?$AAi?$AAc?$AAT?$AAr?$AAa?$AAn?$AAs?$AAl?$AAa?$AAt?$AAe?$AA?$AN?$AA?6?$AA?$AA@| DCB "-"
	DCB	0x0, "O", 0x0, "A", 0x0, "L", 0x0, "I", 0x0, "n", 0x0, "t"
	DCB	0x0, "r", 0x0, "S", 0x0, "t", 0x0, "a", 0x0, "t", 0x0, "i"
	DCB	0x0, "c", 0x0, "T", 0x0, "r", 0x0, "a", 0x0, "n", 0x0, "s"
	DCB	0x0, "l", 0x0, "a", 0x0, "t", 0x0, "e", 0x0, 0xd, 0x0, 0xa
	DCB	0x0, 0x0, 0x0				; `string'

  00000			 AREA	 |.rdata|, DATA, READONLY
|??_C@_1EE@DPKCCBO@?$AA?$CL?$AAO?$AAA?$AAL?$AAI?$AAn?$AAt?$AAr?$AAS?$AAt?$AAa?$AAt?$AAi?$AAc?$AAT?$AAr?$AAa?$AAn?$AAs?$AAl?$AAa?$AAt?$AAe?$AA?$CI?$AA?$CF?$AAd?$AA?0?$AA?5?$AA?$CF?$AAd?$AA?$CJ?$AA?$AN@| DCB "+"
	DCB	0x0, "O", 0x0, "A", 0x0, "L", 0x0, "I", 0x0, "n", 0x0, "t"
	DCB	0x0, "r", 0x0, "S", 0x0, "t", 0x0, "a", 0x0, "t", 0x0, "i"
	DCB	0x0, "c", 0x0, "T", 0x0, "r", 0x0, "a", 0x0, "n", 0x0, "s"
	DCB	0x0, "l", 0x0, "a", 0x0, "t", 0x0, "e", 0x0, "(", 0x0, "%"
	DCB	0x0, "d", 0x0, ",", 0x0, " ", 0x0, "%", 0x0, "d", 0x0, ")"
	DCB	0x0, 0xd, 0x0, 0xa, 0x0, 0x0, 0x0	; `string'
; Function compile flags: /Ogspy

  00000			 AREA	 |.text|, CODE, ARM

  00000		 |OALIntrStaticTranslate| PROC

; 79   : {

  00000		 |$LN17@OALIntrSta|
  00000	e92d4070	 stmdb       sp!, {r4 - r6, lr}
  00004		 |$M43492|
  00004	e1a05001	 mov         r5, r1
  00008	e1a04000	 mov         r4, r0

; 80   :     UINT32 i;
; 81   : 
; 82   :     OALMSG(OAL_FUNC&&OAL_INTR, (
; 83   :         L"+OALIntrStaticTranslate(%d, %d)\r\n", sysIntr, irq
; 84   :         ));

  0000c	e59f6094	 ldr         r6, [pc, #0x94]
  00010	e596e440	 ldr         lr, [r6, #0x440]
  00014	e31e0004	 tst         lr, #4
  00018	0a000006	 beq         |$LN9@OALIntrSta|
  0001c	e31e0901	 tst         lr, #1, 18
  00020	0a000004	 beq         |$LN9@OALIntrSta|
  00024	e59f0078	 ldr         r0, [pc, #0x78]
  00028	e1a02005	 mov         r2, r5
  0002c	e1a01004	 mov         r1, r4
  00030	eb000000	 bl          NKDbgPrintfW
  00034	e596e440	 ldr         lr, [r6, #0x440]
  00038		 |$LN9@OALIntrSta|

; 85   :     if ((irq >= PXA27X_IRQ_MAXIMUM) || (sysIntr >= SYSINTR_MAXIMUM))

  00038	e3550c01	 cmp         r5, #1, 24
  0003c	2a000010	 bcs         |$cleanUp$43239|
  00040	e3540048	 cmp         r4, #0x48
  00044	2a00000e	 bcs         |$cleanUp$43239|

; 86   :         goto cleanUp;
; 87   : 
; 88   :     for (i = 0; i < PXA27X_IRQ_PER_SYSINTR; i++)

  00048	e59f1050	 ldr         r1, [pc, #0x50]
  0004c	e3a02000	 mov         r2, #0
  00050	e0810204	 add         r0, r1, r4, lsl #4
  00054		 |$LL4@OALIntrSta|

; 89   :         {
; 90   :         if (g_oalSysIntr2Irq[sysIntr][i] != OAL_INTR_IRQ_UNDEFINED) continue;

  00054	e5903000	 ldr         r3, [r0]
  00058	e3730001	 cmn         r3, #1
  0005c	0a000004	 beq         |$LN1@OALIntrSta|
  00060	e2822001	 add         r2, r2, #1
  00064	e3520004	 cmp         r2, #4
  00068	e2800004	 add         r0, r0, #4
  0006c	3afffff8	 bcc         |$LL4@OALIntrSta|

; 85   :     if ((irq >= PXA27X_IRQ_MAXIMUM) || (sysIntr >= SYSINTR_MAXIMUM))

  00070	ea000003	 b           |$cleanUp$43239|
  00074		 |$LN1@OALIntrSta|

; 91   :         g_oalSysIntr2Irq[sysIntr][i] = irq;

  00074	e0823104	 add         r3, r2, r4, lsl #2

; 92   :         g_oalIrq2SysIntr[irq] = sysIntr;

  00078	e2812d12	 add         r2, r1, #0x12, 26
  0007c	e7824105	 str         r4, [r2, +r5, lsl #2]
  00080	e7815103	 str         r5, [r1, +r3, lsl #2]
  00084		 |$cleanUp$43239|

; 93   :         break;
; 94   :         }
; 95   : 
; 96   : cleanUp:
; 97   :     OALMSG(OAL_FUNC&&OAL_INTR, (L"-OALIntrStaticTranslate\r\n"));

  00084	e31e0004	 tst         lr, #4
  00088	131e0901	 tstne       lr, #1, 18
  0008c	159f0008	 ldrne       r0, [pc, #8]
  00090	1b000000	 blne        NKDbgPrintfW

; 98   : }

  00094	e8bd4070	 ldmia       sp!, {r4 - r6, lr}
  00098	e12fff1e	 bx          lr
  0009c		 |$LN18@OALIntrSta|
  0009c		 |$LN19@OALIntrSta|
  0009c	00000000	 DCD         |??_C@_1DE@CBLJKBBB@?$AA?9?$AAO?$AAA?$AAL?$AAI?$AAn?$AAt?$AAr?$AAS?$AAt?$AAa?$AAt?$AAi?$AAc?$AAT?$AAr?$AAa?$AAn?$AAs?$AAl?$AAa?$AAt?$AAe?$AA?$AN?$AA?6?$AA?$AA@|
  000a0		 |$LN20@OALIntrSta|
  000a0	00000000	 DCD         |g_oalSysIntr2Irq|
  000a4		 |$LN21@OALIntrSta|
  000a4	00000000	 DCD         |??_C@_1EE@DPKCCBO@?$AA?$CL?$AAO?$AAA?$AAL?$AAI?$AAn?$AAt?$AAr?$AAS?$AAt?$AAa?$AAt?$AAi?$AAc?$AAT?$AAr?$AAa?$AAn?$AAs?$AAl?$AAa?$AAt?$AAe?$AA?$CI?$AA?$CF?$AAd?$AA?0?$AA?5?$AA?$CF?$AAd?$AA?$CJ?$AA?$AN@|
  000a8		 |$LN22@OALIntrSta|
  000a8	00000000	 DCD         |dpCurSettings|
  000ac		 |$M43493|

			 ENDP  ; |OALIntrStaticTranslate|

	EXPORT	|OALIntrTranslateSysIntr|
	EXPORT	|??_C@_1EA@JDMBMDEN@?$AA?9?$AAO?$AAA?$AAL?$AAT?$AAr?$AAa?$AAn?$AAs?$AAl?$AAa?$AAt?$AAe?$AAS?$AAy?$AAs?$AAI?$AAn?$AAt?$AAr?$AA?$CI?$AAr?$AAc?$AA?5?$AA?$DN?$AA?5?$AA?$CF?$AAd?$AA?$CJ?$AA?$AN?$AA?6?$AA?$AA@| [ DATA ] ; `string'
	EXPORT	|??_C@_1DG@HAMHNOBJ@?$AA?$CL?$AAO?$AAA?$AAL?$AAT?$AAr?$AAa?$AAn?$AAs?$AAl?$AAa?$AAt?$AAe?$AAS?$AAy?$AAs?$AAI?$AAn?$AAt?$AAr?$AA?$CI?$AA?$CF?$AAd?$AA?$CJ?$AA?$AN?$AA?6?$AA?$AA@| [ DATA ] ; `string'

  00000			 AREA	 |.pdata|, PDATA
|$T43517| DCD	|$LN10@OALIntrTra|
	DCD	0x40002301

  00000			 AREA	 |.rdata|, DATA, READONLY
|??_C@_1EA@JDMBMDEN@?$AA?9?$AAO?$AAA?$AAL?$AAT?$AAr?$AAa?$AAn?$AAs?$AAl?$AAa?$AAt?$AAe?$AAS?$AAy?$AAs?$AAI?$AAn?$AAt?$AAr?$AA?$CI?$AAr?$AAc?$AA?5?$AA?$DN?$AA?5?$AA?$CF?$AAd?$AA?$CJ?$AA?$AN?$AA?6?$AA?$AA@| DCB "-"
	DCB	0x0, "O", 0x0, "A", 0x0, "L", 0x0, "T", 0x0, "r", 0x0, "a"
	DCB	0x0, "n", 0x0, "s", 0x0, "l", 0x0, "a", 0x0, "t", 0x0, "e"
	DCB	0x0, "S", 0x0, "y", 0x0, "s", 0x0, "I", 0x0, "n", 0x0, "t"
	DCB	0x0, "r", 0x0, "(", 0x0, "r", 0x0, "c", 0x0, " ", 0x0, "="
	DCB	0x0, " ", 0x0, "%", 0x0, "d", 0x0, ")", 0x0, 0xd, 0x0, 0xa
	DCB	0x0, 0x0, 0x0				; `string'

  00000			 AREA	 |.rdata|, DATA, READONLY
|??_C@_1DG@HAMHNOBJ@?$AA?$CL?$AAO?$AAA?$AAL?$AAT?$AAr?$AAa?$AAn?$AAs?$AAl?$AAa?$AAt?$AAe?$AAS?$AAy?$AAs?$AAI?$AAn?$AAt?$AAr?$AA?$CI?$AA?$CF?$AAd?$AA?$CJ?$AA?$AN?$AA?6?$AA?$AA@| DCB "+"
	DCB	0x0, "O", 0x0, "A", 0x0, "L", 0x0, "T", 0x0, "r", 0x0, "a"
	DCB	0x0, "n", 0x0, "s", 0x0, "l", 0x0, "a", 0x0, "t", 0x0, "e"
	DCB	0x0, "S", 0x0, "y", 0x0, "s", 0x0, "I", 0x0, "n", 0x0, "t"
	DCB	0x0, "r", 0x0, "(", 0x0, "%", 0x0, "d", 0x0, ")", 0x0, 0xd
	DCB	0x0, 0xa, 0x0, 0x0, 0x0			; `string'
; Function compile flags: /Ogspy

  00000			 AREA	 |.text|, CODE, ARM

  00000		 |OALIntrTranslateSysIntr| PROC

; 113  : {

  00000		 |$LN10@OALIntrTra|
  00000	e92d40f0	 stmdb       sp!, {r4 - r7, lr}
  00004		 |$M43514|
  00004	e1a06002	 mov         r6, r2
  00008	e1a07001	 mov         r7, r1
  0000c	e1a04000	 mov         r4, r0

; 114  :     BOOL rc;
; 115  : 
; 116  :     OALMSG(OAL_INTR&&OAL_VERBOSE, (L"+OALTranslateSysIntr(%d)\r\n", sysIntr));

  00010	e59f5070	 ldr         r5, [pc, #0x70]
  00014	e5953440	 ldr         r3, [r5, #0x440]
  00018	e3130901	 tst         r3, #1, 18
  0001c	0a000005	 beq         |$LN4@OALIntrTra|
  00020	e3130902	 tst         r3, #2, 18
  00024	0a000003	 beq         |$LN4@OALIntrTra|
  00028	e59f0054	 ldr         r0, [pc, #0x54]
  0002c	e1a01004	 mov         r1, r4
  00030	eb000000	 bl          NKDbgPrintfW
  00034	e5953440	 ldr         r3, [r5, #0x440]
  00038		 |$LN4@OALIntrTra|

; 117  : 
; 118  :     // Valid SYSINTR?
; 119  :     if (sysIntr >= SYSINTR_MAXIMUM)

  00038	e3540048	 cmp         r4, #0x48

; 120  :         {
; 121  :         rc = FALSE;
; 122  :         goto cleanUp;
; 123  :         }
; 124  :     *pCount = PXA27X_IRQ_PER_SYSINTR;
; 125  :     *ppIrqs = g_oalSysIntr2Irq[sysIntr];

  0003c	359f303c	 ldrcc       r3, [pc, #0x3C]
  00040	23a04000	 movcs       r4, #0
  00044	33a02004	 movcc       r2, #4
  00048	30833204	 addcc       r3, r3, r4, lsl #4
  0004c	35872000	 strcc       r2, [r7]
  00050	35863000	 strcc       r3, [r6]

; 126  :     rc = TRUE;

  00054	35953440	 ldrcc       r3, [r5, #0x440]
  00058	33a04001	 movcc       r4, #1
  0005c		 |$cleanUp$43257|

; 127  : 
; 128  : cleanUp:
; 129  :     OALMSG(OAL_INTR&&OAL_VERBOSE, (L"-OALTranslateSysIntr(rc = %d)\r\n", rc));

  0005c	e3130901	 tst         r3, #1, 18
  00060	13130902	 tstne       r3, #2, 18
  00064	159f0010	 ldrne       r0, [pc, #0x10]
  00068	11a01004	 movne       r1, r4
  0006c	1b000000	 blne        NKDbgPrintfW

; 130  :     return rc;
; 131  : }

  00070	e1a00004	 mov         r0, r4
  00074	e8bd40f0	 ldmia       sp!, {r4 - r7, lr}
  00078	e12fff1e	 bx          lr
  0007c		 |$LN11@OALIntrTra|
  0007c		 |$LN12@OALIntrTra|
  0007c	00000000	 DCD         |??_C@_1EA@JDMBMDEN@?$AA?9?$AAO?$AAA?$AAL?$AAT?$AAr?$AAa?$AAn?$AAs?$AAl?$AAa?$AAt?$AAe?$AAS?$AAy?$AAs?$AAI?$AAn?$AAt?$AAr?$AA?$CI?$AAr?$AAc?$AA?5?$AA?$DN?$AA?5?$AA?$CF?$AAd?$AA?$CJ?$AA?$AN?$AA?6?$AA?$AA@|
  00080		 |$LN13@OALIntrTra|
  00080	00000000	 DCD         |g_oalSysIntr2Irq|
  00084		 |$LN14@OALIntrTra|
  00084	00000000	 DCD         |??_C@_1DG@HAMHNOBJ@?$AA?$CL?$AAO?$AAA?$AAL?$AAT?$AAr?$AAa?$AAn?$AAs?$AAl?$AAa?$AAt?$AAe?$AAS?$AAy?$AAs?$AAI?$AAn?$AAt?$AAr?$AA?$CI?$AA?$CF?$AAd?$AA?$CJ?$AA?$AN?$AA?6?$AA?$AA@|
  00088		 |$LN15@OALIntrTra|
  00088	00000000	 DCD         |dpCurSettings|
  0008c		 |$M43515|

			 ENDP  ; |OALIntrTranslateSysIntr|

	EXPORT	|OALIntrTranslateIrq|
	EXPORT	|??_C@_1EK@JOJPHPGP@?$AA?9?$AAO?$AAA?$AAL?$AAI?$AAn?$AAt?$AAr?$AAT?$AAr?$AAa?$AAn?$AAs?$AAl?$AAa?$AAt?$AAe?$AAI?$AAr?$AAq?$AA?$CI?$AAs?$AAy?$AAs?$AAI?$AAn?$AAt?$AAr?$AA?5?$AA?$DN?$AA?5?$AA?$CF@| [ DATA ] ; `string'
	EXPORT	|??_C@_1DG@IAFKCJEB@?$AA?$CL?$AAO?$AAA?$AAL?$AAI?$AAn?$AAt?$AAr?$AAT?$AAr?$AAa?$AAn?$AAs?$AAl?$AAa?$AAt?$AAe?$AAI?$AAr?$AAq?$AA?$CI?$AA?$CF?$AAd?$AA?$CJ?$AA?$AN?$AA?6?$AA?$AA@| [ DATA ] ; `string'

  00000			 AREA	 |.pdata|, PDATA
|$T43537| DCD	|$LN10@OALIntrTra@2|
	DCD	0x40001c01

  00000			 AREA	 |.rdata|, DATA, READONLY
|??_C@_1EK@JOJPHPGP@?$AA?9?$AAO?$AAA?$AAL?$AAI?$AAn?$AAt?$AAr?$AAT?$AAr?$AAa?$AAn?$AAs?$AAl?$AAa?$AAt?$AAe?$AAI?$AAr?$AAq?$AA?$CI?$AAs?$AAy?$AAs?$AAI?$AAn?$AAt?$AAr?$AA?5?$AA?$DN?$AA?5?$AA?$CF@| DCB "-"
	DCB	0x0, "O", 0x0, "A", 0x0, "L", 0x0, "I", 0x0, "n", 0x0, "t"
	DCB	0x0, "r", 0x0, "T", 0x0, "r", 0x0, "a", 0x0, "n", 0x0, "s"
	DCB	0x0, "l", 0x0, "a", 0x0, "t", 0x0, "e", 0x0, "I", 0x0, "r"
	DCB	0x0, "q", 0x0, "(", 0x0, "s", 0x0, "y", 0x0, "s", 0x0, "I"
	DCB	0x0, "n", 0x0, "t", 0x0, "r", 0x0, " ", 0x0, "=", 0x0, " "
	DCB	0x0, "%", 0x0, "d", 0x0, ")", 0x0, 0xd, 0x0, 0xa, 0x0, 0x0
	DCB	0x0					; `string'

  00000			 AREA	 |.rdata|, DATA, READONLY
|??_C@_1DG@IAFKCJEB@?$AA?$CL?$AAO?$AAA?$AAL?$AAI?$AAn?$AAt?$AAr?$AAT?$AAr?$AAa?$AAn?$AAs?$AAl?$AAa?$AAt?$AAe?$AAI?$AAr?$AAq?$AA?$CI?$AA?$CF?$AAd?$AA?$CJ?$AA?$AN?$AA?6?$AA?$AA@| DCB "+"
	DCB	0x0, "O", 0x0, "A", 0x0, "L", 0x0, "I", 0x0, "n", 0x0, "t"
	DCB	0x0, "r", 0x0, "T", 0x0, "r", 0x0, "a", 0x0, "n", 0x0, "s"
	DCB	0x0, "l", 0x0, "a", 0x0, "t", 0x0, "e", 0x0, "I", 0x0, "r"
	DCB	0x0, "q", 0x0, "(", 0x0, "%", 0x0, "d", 0x0, ")", 0x0, 0xd
	DCB	0x0, 0xa, 0x0, 0x0, 0x0			; `string'
; Function compile flags: /Ogspy

  00000			 AREA	 |.text|, CODE, ARM

  00000		 |OALIntrTranslateIrq| PROC

; 143  : {

  00000		 |$LN10@OALIntrTra@2|
  00000	e92d4070	 stmdb       sp!, {r4 - r6, lr}
  00004		 |$M43534|
  00004	e1a05000	 mov         r5, r0

; 144  :     UINT32 sysIntr = SYSINTR_UNDEFINED;
; 145  : 
; 146  :     OALMSG(OAL_FUNC&&OAL_VERBOSE, (L"+OALIntrTranslateIrq(%d)\r\n", irq));

  00008	e59f605c	 ldr         r6, [pc, #0x5C]
  0000c	e3e04000	 mvn         r4, #0
  00010	e5962440	 ldr         r2, [r6, #0x440]
  00014	e3120004	 tst         r2, #4
  00018	0a000005	 beq         |$LN4@OALIntrTra@2|
  0001c	e3120902	 tst         r2, #2, 18
  00020	0a000003	 beq         |$LN4@OALIntrTra@2|
  00024	e59f003c	 ldr         r0, [pc, #0x3C]
  00028	e1a01005	 mov         r1, r5
  0002c	eb000000	 bl          NKDbgPrintfW
  00030	e5962440	 ldr         r2, [r6, #0x440]
  00034		 |$LN4@OALIntrTra@2|

; 147  : 
; 148  :     if (irq < PXA27X_IRQ_MAXIMUM) sysIntr = g_oalIrq2SysIntr[irq];

  00034	e3550c01	 cmp         r5, #1, 24
  00038	359f3024	 ldrcc       r3, [pc, #0x24]
  0003c	37934105	 ldrcc       r4, [r3, +r5, lsl #2]

; 149  : 
; 150  :     OALMSG(OAL_FUNC&&OAL_VERBOSE, (
; 151  :         L"-OALIntrTranslateIrq(sysIntr = %d)\r\n", sysIntr
; 152  :         ));

  00040	e3120004	 tst         r2, #4
  00044	13120902	 tstne       r2, #2, 18
  00048	159f0010	 ldrne       r0, [pc, #0x10]
  0004c	11a01004	 movne       r1, r4
  00050	1b000000	 blne        NKDbgPrintfW

; 153  :     return sysIntr;
; 154  : }

  00054	e1a00004	 mov         r0, r4
  00058	e8bd4070	 ldmia       sp!, {r4 - r6, lr}
  0005c	e12fff1e	 bx          lr
  00060		 |$LN11@OALIntrTra@2|
  00060		 |$LN12@OALIntrTra@2|
  00060	00000000	 DCD         |??_C@_1EK@JOJPHPGP@?$AA?9?$AAO?$AAA?$AAL?$AAI?$AAn?$AAt?$AAr?$AAT?$AAr?$AAa?$AAn?$AAs?$AAl?$AAa?$AAt?$AAe?$AAI?$AAr?$AAq?$AA?$CI?$AAs?$AAy?$AAs?$AAI?$AAn?$AAt?$AAr?$AA?5?$AA?$DN?$AA?5?$AA?$CF@|
  00064		 |$LN13@OALIntrTra@2|
  00064	00000000	 DCD         |g_oalIrq2SysIntr|
  00068		 |$LN14@OALIntrTra@2|
  00068	00000000	 DCD         |??_C@_1DG@IAFKCJEB@?$AA?$CL?$AAO?$AAA?$AAL?$AAI?$AAn?$AAt?$AAr?$AAT?$AAr?$AAa?$AAn?$AAs?$AAl?$AAa?$AAt?$AAe?$AAI?$AAr?$AAq?$AA?$CI?$AA?$CF?$AAd?$AA?$CJ?$AA?$AN?$AA?6?$AA?$AA@|
  0006c		 |$LN15@OALIntrTra@2|
  0006c	00000000	 DCD         |dpCurSettings|
  00070		 |$M43535|

			 ENDP  ; |OALIntrTranslateIrq|

	EXPORT	|OALIntrRequestSysIntr|
	EXPORT	|??_C@_1EO@CCPDBEFN@?$AA?9?$AAO?$AAA?$AAL?$AAI?$AAn?$AAt?$AAr?$AAR?$AAe?$AAq?$AAu?$AAe?$AAs?$AAt?$AAS?$AAy?$AAs?$AAI?$AAn?$AAt?$AAr?$AA?$CI?$AAs?$AAy?$AAs?$AAI?$AAn?$AAt?$AAr?$AA?5?$AA?$DN@| [ DATA ] ; `string'
	EXPORT	|??_C@_1HG@GANLJKGD@?$AAE?$AAR?$AAR?$AAO?$AAR?$AA?3?$AA?5?$AAO?$AAA?$AAL?$AAI?$AAn?$AAt?$AAr?$AAR?$AAe?$AAq?$AAu?$AAe?$AAs?$AAt?$AAS?$AAy?$AAs?$AAI?$AAn?$AAt?$AAr?$AA?3?$AA?5?$AAN?$AAo@| [ DATA ] ; `string'
	EXPORT	|??_C@_1JG@CKDDKDGB@?$AAE?$AAR?$AAR?$AAO?$AAR?$AA?3?$AA?5?$AAO?$AAA?$AAL?$AAI?$AAn?$AAt?$AAr?$AAR?$AAe?$AAq?$AAu?$AAe?$AAs?$AAt?$AAS?$AAy?$AAs?$AAI?$AAn?$AAt?$AAr?$AA?3?$AA?5?$AAS?$AAt@| [ DATA ] ; `string'
	EXPORT	|??_C@_1GI@NODFOAGP@?$AAE?$AAR?$AAR?$AAO?$AAR?$AA?3?$AA?5?$AAO?$AAA?$AAL?$AAI?$AAn?$AAt?$AAr?$AAR?$AAe?$AAq?$AAu?$AAe?$AAs?$AAt?$AAS?$AAy?$AAs?$AAI?$AAn?$AAt?$AAr?$AA?3?$AA?5?$AAI?$AAR@| [ DATA ] ; `string'
	EXPORT	|??_C@_1IM@ENJFJBNJ@?$AAE?$AAR?$AAR?$AAO?$AAR?$AA?3?$AA?5?$AAO?$AAA?$AAL?$AAI?$AAn?$AAt?$AAr?$AAR?$AAe?$AAq?$AAu?$AAe?$AAs?$AAt?$AAS?$AAy?$AAs?$AAI?$AAn?$AAt?$AAr?$AA?3?$AA?5?$AAO?$AAn@| [ DATA ] ; `string'
	EXPORT	|??_C@_1FK@JNHCPMAP@?$AA?$CL?$AAO?$AAA?$AAL?$AAI?$AAn?$AAt?$AAr?$AAR?$AAe?$AAq?$AAu?$AAe?$AAs?$AAt?$AAS?$AAy?$AAs?$AAI?$AAn?$AAt?$AAr?$AA?$CI?$AA?$CF?$AAd?$AA?0?$AA?5?$AA0?$AAx?$AA?$CF?$AA0?$AA8@| [ DATA ] ; `string'

  00000			 AREA	 |.pdata|, PDATA
|$T43605| DCD	|$LN86@OALIntrReq|
	DCD	0x4000b401

  00000			 AREA	 |.rdata|, DATA, READONLY
|??_C@_1EO@CCPDBEFN@?$AA?9?$AAO?$AAA?$AAL?$AAI?$AAn?$AAt?$AAr?$AAR?$AAe?$AAq?$AAu?$AAe?$AAs?$AAt?$AAS?$AAy?$AAs?$AAI?$AAn?$AAt?$AAr?$AA?$CI?$AAs?$AAy?$AAs?$AAI?$AAn?$AAt?$AAr?$AA?5?$AA?$DN@| DCB "-"
	DCB	0x0, "O", 0x0, "A", 0x0, "L", 0x0, "I", 0x0, "n", 0x0, "t"
	DCB	0x0, "r", 0x0, "R", 0x0, "e", 0x0, "q", 0x0, "u", 0x0, "e"
	DCB	0x0, "s", 0x0, "t", 0x0, "S", 0x0, "y", 0x0, "s", 0x0, "I"
	DCB	0x0, "n", 0x0, "t", 0x0, "r", 0x0, "(", 0x0, "s", 0x0, "y"
	DCB	0x0, "s", 0x0, "I", 0x0, "n", 0x0, "t", 0x0, "r", 0x0, " "
	DCB	0x0, "=", 0x0, " ", 0x0, "%", 0x0, "d", 0x0, ")", 0x0, 0xd
	DCB	0x0, 0xa, 0x0, 0x0, 0x0			; `string'

  00000			 AREA	 |.rdata|, DATA, READONLY
|??_C@_1HG@GANLJKGD@?$AAE?$AAR?$AAR?$AAO?$AAR?$AA?3?$AA?5?$AAO?$AAA?$AAL?$AAI?$AAn?$AAt?$AAr?$AAR?$AAe?$AAq?$AAu?$AAe?$AAs?$AAt?$AAS?$AAy?$AAs?$AAI?$AAn?$AAt?$AAr?$AA?3?$AA?5?$AAN?$AAo@| DCB "E"
	DCB	0x0, "R", 0x0, "R", 0x0, "O", 0x0, "R", 0x0, ":", 0x0, " "
	DCB	0x0, "O", 0x0, "A", 0x0, "L", 0x0, "I", 0x0, "n", 0x0, "t"
	DCB	0x0, "r", 0x0, "R", 0x0, "e", 0x0, "q", 0x0, "u", 0x0, "e"
	DCB	0x0, "s", 0x0, "t", 0x0, "S", 0x0, "y", 0x0, "s", 0x0, "I"
	DCB	0x0, "n", 0x0, "t", 0x0, "r", 0x0, ":", 0x0, " ", 0x0, "N"
	DCB	0x0, "o", 0x0, " ", 0x0, "a", 0x0, "v", 0x0, "a", 0x0, "i"
	DCB	0x0, "l", 0x0, "a", 0x0, "b", 0x0, "l", 0x0, "e", 0x0, " "
	DCB	0x0, "S", 0x0, "Y", 0x0, "S", 0x0, "I", 0x0, "N", 0x0, "T"
	DCB	0x0, "R", 0x0, " ", 0x0, "f", 0x0, "o", 0x0, "u", 0x0, "n"
	DCB	0x0, "d", 0x0, 0xd, 0x0, 0xa, 0x0, 0x0, 0x0 ; `string'

  00000			 AREA	 |.rdata|, DATA, READONLY
|??_C@_1JG@CKDDKDGB@?$AAE?$AAR?$AAR?$AAO?$AAR?$AA?3?$AA?5?$AAO?$AAA?$AAL?$AAI?$AAn?$AAt?$AAr?$AAR?$AAe?$AAq?$AAu?$AAe?$AAs?$AAt?$AAS?$AAy?$AAs?$AAI?$AAn?$AAt?$AAr?$AA?3?$AA?5?$AAS?$AAt@| DCB "E"
	DCB	0x0, "R", 0x0, "R", 0x0, "O", 0x0, "R", 0x0, ":", 0x0, " "
	DCB	0x0, "O", 0x0, "A", 0x0, "L", 0x0, "I", 0x0, "n", 0x0, "t"
	DCB	0x0, "r", 0x0, "R", 0x0, "e", 0x0, "q", 0x0, "u", 0x0, "e"
	DCB	0x0, "s", 0x0, "t", 0x0, "S", 0x0, "y", 0x0, "s", 0x0, "I"
	DCB	0x0, "n", 0x0, "t", 0x0, "r", 0x0, ":", 0x0, " ", 0x0, "S"
	DCB	0x0, "t", 0x0, "a", 0x0, "t", 0x0, "i", 0x0, "c", 0x0, " "
	DCB	0x0, "m", 0x0, "a", 0x0, "p", 0x0, "p", 0x0, "i", 0x0, "n"
	DCB	0x0, "g", 0x0, " ", 0x0, "f", 0x0, "o", 0x0, "r", 0x0, " "
	DCB	0x0, "I", 0x0, "R", 0x0, "Q", 0x0, " ", 0x0, "%", 0x0, "d"
	DCB	0x0, " ", 0x0, "a", 0x0, "l", 0x0, "r", 0x0, "e", 0x0, "a"
	DCB	0x0, "d", 0x0, "y", 0x0, " ", 0x0, "a", 0x0, "s", 0x0, "s"
	DCB	0x0, "i", 0x0, "g", 0x0, "n", 0x0, "e", 0x0, "d", 0x0, 0xd
	DCB	0x0, 0xa, 0x0, 0x0, 0x0			; `string'

  00000			 AREA	 |.rdata|, DATA, READONLY
|??_C@_1GI@NODFOAGP@?$AAE?$AAR?$AAR?$AAO?$AAR?$AA?3?$AA?5?$AAO?$AAA?$AAL?$AAI?$AAn?$AAt?$AAr?$AAR?$AAe?$AAq?$AAu?$AAe?$AAs?$AAt?$AAS?$AAy?$AAs?$AAI?$AAn?$AAt?$AAr?$AA?3?$AA?5?$AAI?$AAR@| DCB "E"
	DCB	0x0, "R", 0x0, "R", 0x0, "O", 0x0, "R", 0x0, ":", 0x0, " "
	DCB	0x0, "O", 0x0, "A", 0x0, "L", 0x0, "I", 0x0, "n", 0x0, "t"
	DCB	0x0, "r", 0x0, "R", 0x0, "e", 0x0, "q", 0x0, "u", 0x0, "e"
	DCB	0x0, "s", 0x0, "t", 0x0, "S", 0x0, "y", 0x0, "s", 0x0, "I"
	DCB	0x0, "n", 0x0, "t", 0x0, "r", 0x0, ":", 0x0, " ", 0x0, "I"
	DCB	0x0, "R", 0x0, "Q", 0x0, " ", 0x0, "%", 0x0, "d", 0x0, " "
	DCB	0x0, "o", 0x0, "u", 0x0, "t", 0x0, " ", 0x0, "o", 0x0, "f"
	DCB	0x0, " ", 0x0, "r", 0x0, "a", 0x0, "n", 0x0, "g", 0x0, "e"
	DCB	0x0, 0xd, 0x0, 0xa, 0x0, 0x0, 0x0	; `string'

  00000			 AREA	 |.rdata|, DATA, READONLY
|??_C@_1IM@ENJFJBNJ@?$AAE?$AAR?$AAR?$AAO?$AAR?$AA?3?$AA?5?$AAO?$AAA?$AAL?$AAI?$AAn?$AAt?$AAr?$AAR?$AAe?$AAq?$AAu?$AAe?$AAs?$AAt?$AAS?$AAy?$AAs?$AAI?$AAn?$AAt?$AAr?$AA?3?$AA?5?$AAO?$AAn@| DCB "E"
	DCB	0x0, "R", 0x0, "R", 0x0, "O", 0x0, "R", 0x0, ":", 0x0, " "
	DCB	0x0, "O", 0x0, "A", 0x0, "L", 0x0, "I", 0x0, "n", 0x0, "t"
	DCB	0x0, "r", 0x0, "R", 0x0, "e", 0x0, "q", 0x0, "u", 0x0, "e"
	DCB	0x0, "s", 0x0, "t", 0x0, "S", 0x0, "y", 0x0, "s", 0x0, "I"
	DCB	0x0, "n", 0x0, "t", 0x0, "r", 0x0, ":", 0x0, " ", 0x0, "O"
	DCB	0x0, "n", 0x0, "l", 0x0, "y", 0x0, " ", 0x0, "%", 0x0, "d"
	DCB	0x0, " ", 0x0, "I", 0x0, "R", 0x0, "Q", 0x0, "s", 0x0, " "
	DCB	0x0, "f", 0x0, "o", 0x0, "r", 0x0, " ", 0x0, "S", 0x0, "Y"
	DCB	0x0, "S", 0x0, "I", 0x0, "N", 0x0, "T", 0x0, "R", 0x0, " "
	DCB	0x0, "i", 0x0, "s", 0x0, " ", 0x0, "s", 0x0, "u", 0x0, "p"
	DCB	0x0, "p", 0x0, "o", 0x0, "r", 0x0, "t", 0x0, "e", 0x0, "d"
	DCB	0x0, 0xd, 0x0, 0xa, 0x0, 0x0, 0x0	; `string'

  00000			 AREA	 |.rdata|, DATA, READONLY
|??_C@_1FK@JNHCPMAP@?$AA?$CL?$AAO?$AAA?$AAL?$AAI?$AAn?$AAt?$AAr?$AAR?$AAe?$AAq?$AAu?$AAe?$AAs?$AAt?$AAS?$AAy?$AAs?$AAI?$AAn?$AAt?$AAr?$AA?$CI?$AA?$CF?$AAd?$AA?0?$AA?5?$AA0?$AAx?$AA?$CF?$AA0?$AA8@| DCB "+"
	DCB	0x0, "O", 0x0, "A", 0x0, "L", 0x0, "I", 0x0, "n", 0x0, "t"
	DCB	0x0, "r", 0x0, "R", 0x0, "e", 0x0, "q", 0x0, "u", 0x0, "e"
	DCB	0x0, "s", 0x0, "t", 0x0, "S", 0x0, "y", 0x0, "s", 0x0, "I"
	DCB	0x0, "n", 0x0, "t", 0x0, "r", 0x0, "(", 0x0, "%", 0x0, "d"
	DCB	0x0, ",", 0x0, " ", 0x0, "0", 0x0, "x", 0x0, "%", 0x0, "0"
	DCB	0x0, "8", 0x0, "x", 0x0, ",", 0x0, " ", 0x0, "0", 0x0, "x"
	DCB	0x0, "%", 0x0, "0", 0x0, "8", 0x0, "x", 0x0, ")", 0x0, 0xd
	DCB	0x0, 0xa, 0x0, 0x0, 0x0			; `string'
; Function compile flags: /Ogspy

  00000			 AREA	 |.text|, CODE, ARM

  00000		 |OALIntrRequestSysIntr| PROC

; 169  : {

  00000		 |$LN86@OALIntrReq|
  00000	e92d47f0	 stmdb       sp!, {r4 - r10, lr}
  00004		 |$M43602|
  00004	e1a05002	 mov         r5, r2
  00008	e1a08001	 mov         r8, r1
  0000c	e1a09000	 mov         r9, r0

; 170  :     UINT32 sysIntr, i, j;
; 171  : 
; 172  : 
; 173  :     OALMSG(OAL_INTR&&OAL_FUNC, (
; 174  :         L"+OALIntrRequestSysIntr(%d, 0x%08x, 0x%08x)\r\n", count, pIrqs, flags
; 175  :         ));

  00010	e59f72b4	 ldr         r7, [pc, #0x2B4]
  00014	e597e440	 ldr         lr, [r7, #0x440]
  00018	e31e0901	 tst         lr, #1, 18
  0001c	0a000007	 beq         |$LN37@OALIntrReq|
  00020	e31e0004	 tst         lr, #4
  00024	0a000005	 beq         |$LN37@OALIntrReq|
  00028	e59f0298	 ldr         r0, [pc, #0x298]
  0002c	e1a03005	 mov         r3, r5
  00030	e1a02008	 mov         r2, r8
  00034	e1a01009	 mov         r1, r9
  00038	eb000000	 bl          NKDbgPrintfW
  0003c	e597e440	 ldr         lr, [r7, #0x440]
  00040		 |$LN37@OALIntrReq|

; 176  : 
; 177  :     // Valid IRQ?
; 178  :     if (count > PXA27X_IRQ_PER_SYSINTR)

  00040	e3590004	 cmp         r9, #4
  00044	9a000007	 bls         |$LN34@OALIntrReq|

; 179  :         {
; 180  :         OALMSG(OAL_ERROR, (L"ERROR: OALIntrRequestSysIntr: "
; 181  :             L"Only %d IRQs for SYSINTR is supported\r\n",
; 182  :             PXA27X_IRQ_PER_SYSINTR
; 183  :             ));

  00048	e31e0001	 tst         lr, #1
  0004c	0a000003	 beq         |$LN39@OALIntrReq|
  00050	e59f026c	 ldr         r0, [pc, #0x26C]
  00054	e3a01004	 mov         r1, #4
  00058		 |$LN82@OALIntrReq|
  00058	eb000000	 bl          NKDbgPrintfW
  0005c		 |$LN83@OALIntrReq|
  0005c	e597e440	 ldr         lr, [r7, #0x440]
  00060		 |$LN39@OALIntrReq|

; 184  :         sysIntr = SYSINTR_UNDEFINED;

  00060	e3e04000	 mvn         r4, #0

; 185  :         goto cleanUp;

  00064	ea000079	 b           |$cleanUp$43284|
  00068		 |$LN34@OALIntrReq|

; 186  :         }
; 187  : 
; 188  :     // If static mapping is requested check if we can obtain one
; 189  :     if ((flags & OAL_INTR_STATIC) != 0)

  00068	e59fa250	 ldr         r10, [pc, #0x250]
  0006c	e3150002	 tst         r5, #2
  00070	0a00000e	 beq         |$LN30@OALIntrReq|

; 190  :         {
; 191  :         for (i = 0; i < count; i++)

  00074	e3a02000	 mov         r2, #0
  00078	e3590000	 cmp         r9, #0
  0007c	0a00000b	 beq         |$LN30@OALIntrReq|
  00080	e1a01008	 mov         r1, r8
  00084	e28a0d12	 add         r0, r10, #0x12, 26
  00088		 |$LL32@OALIntrReq|

; 192  :             {
; 193  :             if (pIrqs[i] >= PXA27X_IRQ_MAXIMUM)

  00088	e5913000	 ldr         r3, [r1]
  0008c	e3530c01	 cmp         r3, #1, 24
  00090	2a000013	 bcs         |$LN62@OALIntrReq|

; 200  :                 }
; 201  : 
; 202  :             if (g_oalIrq2SysIntr[pIrqs[i]] != SYSINTR_UNDEFINED)

  00094	e7903103	 ldr         r3, [r0, +r3, lsl #2]
  00098	e3730001	 cmn         r3, #1
  0009c	1a00000b	 bne         |$LN63@OALIntrReq|
  000a0	e2822001	 add         r2, r2, #1
  000a4	e1520009	 cmp         r2, r9
  000a8	e2811004	 add         r1, r1, #4
  000ac	3afffff5	 bcc         |$LL32@OALIntrReq|
  000b0		 |$LN30@OALIntrReq|

; 209  :                 }
; 210  :             }
; 211  :         }
; 212  : 
; 213  :     // If translate flag is set all IRQs must be mapped to same SYSINTR
; 214  :     if (pIrqs[0] >= PXA27X_IRQ_MAXIMUM)

  000b0	e5982000	 ldr         r2, [r8]
  000b4	e3520c01	 cmp         r2, #1, 24
  000b8	3a00000e	 bcc         |$LN27@OALIntrReq|

; 215  :         {
; 216  :         OALMSG(OAL_ERROR, (L"ERROR: OALIntrRequestSysIntr: "
; 217  :             L"IRQ %d out of range\r\n", pIrqs[0]
; 218  :             ));

  000bc	e31e0001	 tst         lr, #1
  000c0	0affffe6	 beq         |$LN39@OALIntrReq|
  000c4	e59f01e4	 ldr         r0, [pc, #0x1E4]
  000c8	e1a01002	 mov         r1, r2

; 219  :         sysIntr = SYSINTR_UNDEFINED;
; 220  :         goto cleanUp;

  000cc	eaffffe1	 b           |$LN82@OALIntrReq|
  000d0		 |$LN63@OALIntrReq|

; 203  :                 {
; 204  :                 OALMSG(OAL_ERROR, (L"ERROR: OALIntrRequestSysIntr: "
; 205  :                     L"Static mapping for IRQ %d already assigned\r\n", pIrqs[i]
; 206  :                     ));

  000d0	e31e0001	 tst         lr, #1
  000d4	0affffe1	 beq         |$LN39@OALIntrReq|
  000d8	e7981102	 ldr         r1, [r8, +r2, lsl #2]
  000dc	e59f01d8	 ldr         r0, [pc, #0x1D8]

; 207  :                 sysIntr = SYSINTR_UNDEFINED;
; 208  :                 goto cleanUp;

  000e0	eaffffdc	 b           |$LN82@OALIntrReq|
  000e4		 |$LN62@OALIntrReq|

; 194  :                 {
; 195  :                 OALMSG(OAL_ERROR, (L"ERROR: OALIntrRequestSysIntr: "
; 196  :                     L"IRQ %d out of range\r\n", pIrqs[i]
; 197  :                     ));

  000e4	e31e0001	 tst         lr, #1
  000e8	0affffdc	 beq         |$LN39@OALIntrReq|
  000ec	e7981102	 ldr         r1, [r8, +r2, lsl #2]
  000f0	e59f01b8	 ldr         r0, [pc, #0x1B8]

; 198  :                 sysIntr = SYSINTR_UNDEFINED;
; 199  :                 goto cleanUp;

  000f4	eaffffd7	 b           |$LN82@OALIntrReq|
  000f8		 |$LN27@OALIntrReq|

; 221  :         }
; 222  : 
; 223  :     if (((flags & OAL_INTR_TRANSLATE) != 0) &&
; 224  :         (g_oalIrq2SysIntr[pIrqs[0]] != SYSINTR_UNDEFINED))

  000f8	e3150008	 tst         r5, #8
  000fc	0a00001c	 beq         |$LN26@OALIntrReq|
  00100	e28a3d12	 add         r3, r10, #0x12, 26
  00104	e7934102	 ldr         r4, [r3, +r2, lsl #2]
  00108	e3740001	 cmn         r4, #1
  0010c	0a000018	 beq         |$LN26@OALIntrReq|

; 225  :         {
; 226  :         sysIntr = g_oalIrq2SysIntr[pIrqs[0]];
; 227  :         // Check remaining IRQs
; 228  :         for (i = 1; i < count; i++)

  00110	e3a02001	 mov         r2, #1
  00114	e3590001	 cmp         r9, #1
  00118	9a00004c	 bls         |$cleanUp$43284|
  0011c	e2881004	 add         r1, r8, #4
  00120	e3e05000	 mvn         r5, #0
  00124	e28a0d12	 add         r0, r10, #0x12, 26
  00128		 |$LL25@OALIntrReq|

; 229  :             {
; 230  :             if (pIrqs[i] >= PXA27X_IRQ_MAXIMUM)

  00128	e5913000	 ldr         r3, [r1]
  0012c	e3530c01	 cmp         r3, #1, 24
  00130	2a000007	 bcs         |$LN64@OALIntrReq|

; 237  :                 }
; 238  :             // If it is mapped to same SYSINTR, we are fine
; 239  :             if (g_oalIrq2SysIntr[pIrqs[i]] == sysIntr) continue;

  00134	e7903103	 ldr         r3, [r0, +r3, lsl #2]
  00138	e2822001	 add         r2, r2, #1
  0013c	e2811004	 add         r1, r1, #4
  00140	e1530004	 cmp         r3, r4

; 240  :             // It isn't mapped or mapped to some other SYSINTR, error...
; 241  :             sysIntr = SYSINTR_UNDEFINED;

  00144	11a04005	 movne       r4, r5
  00148	e1520009	 cmp         r2, r9
  0014c	3afffff5	 bcc         |$LL25@OALIntrReq|

; 264  :         {
; 265  :         if (pIrqs[i] >= PXA27X_IRQ_MAXIMUM)

  00150	ea00003e	 b           |$cleanUp$43284|
  00154		 |$LN64@OALIntrReq|

; 231  :                 {
; 232  :                 OALMSG(OAL_ERROR, (L"ERROR: OALIntrRequestSysIntr: "
; 233  :                     L"IRQ %d out of range\r\n", pIrqs[i]
; 234  :                     ));

  00154	e31e0001	 tst         lr, #1
  00158	0a000003	 beq         |$LN47@OALIntrReq|
  0015c	e7981102	 ldr         r1, [r8, +r2, lsl #2]
  00160	e59f0148	 ldr         r0, [pc, #0x148]
  00164	eb000000	 bl          NKDbgPrintfW
  00168	e597e440	 ldr         lr, [r7, #0x440]
  0016c		 |$LN47@OALIntrReq|

; 235  :                 sysIntr = SYSINTR_UNDEFINED;

  0016c	e1a04005	 mov         r4, r5

; 236  :                 goto cleanUp;

  00170	ea000036	 b           |$cleanUp$43284|
  00174		 |$LN26@OALIntrReq|

; 242  :             }
; 243  :         goto cleanUp;
; 244  :         }
; 245  : 
; 246  :     // Find next available SYSINTR value...
; 247  :     for (sysIntr = SYSINTR_FIRMWARE; sysIntr < SYSINTR_MAXIMUM; sysIntr++)

  00174	e3a04010	 mov         r4, #0x10
  00178	e28a2c01	 add         r2, r10, #1, 24
  0017c		 |$LL20@OALIntrReq|

; 248  :         {
; 249  :         if (g_oalSysIntr2Irq[sysIntr][0] == OAL_INTR_IRQ_UNDEFINED) break;

  0017c	e5923000	 ldr         r3, [r2]
  00180	e3730001	 cmn         r3, #1
  00184	0a000003	 beq         |$LN65@OALIntrReq|
  00188	e2844001	 add         r4, r4, #1
  0018c	e3540048	 cmp         r4, #0x48
  00190	e2822010	 add         r2, r2, #0x10
  00194	3afffff8	 bcc         |$LL20@OALIntrReq|
  00198		 |$LN65@OALIntrReq|

; 250  :         }
; 251  : 
; 252  :     // Any available SYSINTRs left?
; 253  :     if (sysIntr >= SYSINTR_MAXIMUM)

  00198	e3540048	 cmp         r4, #0x48
  0019c	3a000004	 bcc         |$LN16@OALIntrReq|

; 254  :         {
; 255  :         OALMSG(OAL_ERROR, (L"ERROR: OALIntrRequestSysIntr: "
; 256  :             L"No available SYSINTR found\r\n"
; 257  :             ));

  001a0	e31e0001	 tst         lr, #1
  001a4	0affffad	 beq         |$LN39@OALIntrReq|
  001a8	e59f0108	 ldr         r0, [pc, #0x108]
  001ac	eb000000	 bl          NKDbgPrintfW

; 258  :         sysIntr = SYSINTR_UNDEFINED;
; 259  :         goto cleanUp;

  001b0	eaffffa9	 b           |$LN83@OALIntrReq|
  001b4		 |$LN16@OALIntrReq|

; 260  :         }
; 261  : 
; 262  :     // Make SYSINTR -> IRQs association
; 263  :     for (i = 0; i < count; i++)

  001b4	e3a06000	 mov         r6, #0
  001b8	e3590000	 cmp         r9, #0
  001bc	0a00000b	 beq         |$LN76@OALIntrReq|
  001c0	e1a02008	 mov         r2, r8
  001c4		 |$LL15@OALIntrReq|

; 264  :         {
; 265  :         if (pIrqs[i] >= PXA27X_IRQ_MAXIMUM)

  001c4	e5921000	 ldr         r1, [r2]
  001c8	e3510c01	 cmp         r1, #1, 24
  001cc	2a000027	 bcs         |$LN66@OALIntrReq|

; 271  :                 {
; 272  :                 g_oalSysIntr2Irq[sysIntr][j] = OAL_INTR_IRQ_UNDEFINED;
; 273  :                 }
; 274  :             sysIntr = SYSINTR_UNDEFINED;
; 275  :             goto cleanUp;
; 276  :             }
; 277  :         g_oalSysIntr2Irq[sysIntr][i] = pIrqs[i];

  001d0	e0863104	 add         r3, r6, r4, lsl #2
  001d4	e2866001	 add         r6, r6, #1
  001d8	e1560009	 cmp         r6, r9
  001dc	e78a1103	 str         r1, [r10, +r3, lsl #2]
  001e0	e2822004	 add         r2, r2, #4
  001e4	3afffff6	 bcc         |$LL15@OALIntrReq|

; 278  :         }
; 279  :     while (i < PXA27X_IRQ_PER_SYSINTR)

  001e8	e3560004	 cmp         r6, #4
  001ec	2a000008	 bcs         |$LN8@OALIntrReq|
  001f0		 |$LN76@OALIntrReq|

; 280  :         {
; 281  :         g_oalSysIntr2Irq[sysIntr][i++] = OAL_INTR_IRQ_UNDEFINED;

  001f0	e0863104	 add         r3, r6, r4, lsl #2
  001f4	e08a3103	 add         r3, r10, r3, lsl #2
  001f8	e2762004	 rsbs        r2, r6, #4
  001fc	e3e01000	 mvn         r1, #0
  00200	0a000003	 beq         |$LN8@OALIntrReq|
  00204	e0832102	 add         r2, r3, r2, lsl #2
  00208		 |$LN80@OALIntrReq|
  00208	e4831004	 str         r1, [r3], #4
  0020c	e1530002	 cmp         r3, r2
  00210	1afffffc	 bne         |$LN80@OALIntrReq|
  00214		 |$LN8@OALIntrReq|

; 282  :         }
; 283  : 
; 284  :     // Make IRQ -> SYSINTR association, only if not multiply-mapped
; 285  :     if ((flags & OAL_INTR_DYNAMIC) != 0) goto cleanUp;

  00214	e3150001	 tst         r5, #1
  00218	1a00000c	 bne         |$cleanUp$43284|

; 286  :     for (i = 0; i < count; i++)

  0021c	e3590000	 cmp         r9, #0
  00220	0a00000a	 beq         |$cleanUp$43284|
  00224		 |$LL5@OALIntrReq|

; 287  :         {
; 288  :         if ((g_oalIrq2SysIntr[pIrqs[i]] == SYSINTR_UNDEFINED) ||
; 289  :             ((flags & OAL_INTR_FORCE_STATIC) != 0))

  00224	e5983000	 ldr         r3, [r8]
  00228	e28a2d12	 add         r2, r10, #0x12, 26
  0022c	e7b23103	 ldr         r3, [r2, +r3, lsl #2]!
  00230	e3730001	 cmn         r3, #1
  00234	0a000001	 beq         |$LN1@OALIntrReq|
  00238	e3150004	 tst         r5, #4
  0023c	0a000000	 beq         |$LN4@OALIntrReq|
  00240		 |$LN1@OALIntrReq|

; 290  :             {
; 291  :             g_oalIrq2SysIntr[pIrqs[i]] = sysIntr;

  00240	e5824000	 str         r4, [r2]
  00244		 |$LN4@OALIntrReq|

; 286  :     for (i = 0; i < count; i++)

  00244	e2888004	 add         r8, r8, #4
  00248	e2599001	 subs        r9, r9, #1
  0024c	1afffff4	 bne         |$LL5@OALIntrReq|
  00250		 |$cleanUp$43284|

; 292  :             }
; 293  :         }
; 294  : 
; 295  : cleanUp:
; 296  :     OALMSG(OAL_INTR&&OAL_FUNC, (
; 297  :         L"-OALIntrRequestSysIntr(sysIntr = %d)\r\n", sysIntr
; 298  :         ));

  00250	e31e0901	 tst         lr, #1, 18
  00254	131e0004	 tstne       lr, #4
  00258	159f0054	 ldrne       r0, [pc, #0x54]
  0025c	11a01004	 movne       r1, r4
  00260	1b000000	 blne        NKDbgPrintfW

; 299  :     return sysIntr;
; 300  : }

  00264	e1a00004	 mov         r0, r4
  00268	e8bd47f0	 ldmia       sp!, {r4 - r10, lr}
  0026c	e12fff1e	 bx          lr
  00270		 |$LN66@OALIntrReq|

; 266  :             {
; 267  :             OALMSG(OAL_ERROR, (L"ERROR: OALIntrRequestSysIntr: "
; 268  :                 L"IRQ %d out of range\r\n", pIrqs[i]
; 269  :                 ));

  00270	e31e0001	 tst         lr, #1
  00274	0a000003	 beq         |$LN51@OALIntrReq|
  00278	e7981106	 ldr         r1, [r8, +r6, lsl #2]
  0027c	e59f002c	 ldr         r0, [pc, #0x2C]
  00280	eb000000	 bl          NKDbgPrintfW
  00284	e597e440	 ldr         lr, [r7, #0x440]
  00288		 |$LN51@OALIntrReq|

; 270  :             for (j = 0; j < i; j++)

  00288	e3e05000	 mvn         r5, #0
  0028c	e3560000	 cmp         r6, #0
  00290	0affffb5	 beq         |$LN47@OALIntrReq|
  00294	e08a3204	 add         r3, r10, r4, lsl #4
  00298	e0832106	 add         r2, r3, r6, lsl #2
  0029c		 |$LN78@OALIntrReq|
  0029c	e4835004	 str         r5, [r3], #4
  002a0	e1530002	 cmp         r3, r2
  002a4	1afffffc	 bne         |$LN78@OALIntrReq|

; 235  :                 sysIntr = SYSINTR_UNDEFINED;

  002a8	e1a04005	 mov         r4, r5

; 236  :                 goto cleanUp;

  002ac	eaffffe7	 b           |$cleanUp$43284|
  002b0		 |$LN87@OALIntrReq|
  002b0		 |$LN88@OALIntrReq|
  002b0	00000000	 DCD         |??_C@_1GI@NODFOAGP@?$AAE?$AAR?$AAR?$AAO?$AAR?$AA?3?$AA?5?$AAO?$AAA?$AAL?$AAI?$AAn?$AAt?$AAr?$AAR?$AAe?$AAq?$AAu?$AAe?$AAs?$AAt?$AAS?$AAy?$AAs?$AAI?$AAn?$AAt?$AAr?$AA?3?$AA?5?$AAI?$AAR@|
  002b4		 |$LN89@OALIntrReq|
  002b4	00000000	 DCD         |??_C@_1EO@CCPDBEFN@?$AA?9?$AAO?$AAA?$AAL?$AAI?$AAn?$AAt?$AAr?$AAR?$AAe?$AAq?$AAu?$AAe?$AAs?$AAt?$AAS?$AAy?$AAs?$AAI?$AAn?$AAt?$AAr?$AA?$CI?$AAs?$AAy?$AAs?$AAI?$AAn?$AAt?$AAr?$AA?5?$AA?$DN@|
  002b8		 |$LN90@OALIntrReq|
  002b8	00000000	 DCD         |??_C@_1HG@GANLJKGD@?$AAE?$AAR?$AAR?$AAO?$AAR?$AA?3?$AA?5?$AAO?$AAA?$AAL?$AAI?$AAn?$AAt?$AAr?$AAR?$AAe?$AAq?$AAu?$AAe?$AAs?$AAt?$AAS?$AAy?$AAs?$AAI?$AAn?$AAt?$AAr?$AA?3?$AA?5?$AAN?$AAo@|
  002bc		 |$LN91@OALIntrReq|
  002bc	00000000	 DCD         |??_C@_1JG@CKDDKDGB@?$AAE?$AAR?$AAR?$AAO?$AAR?$AA?3?$AA?5?$AAO?$AAA?$AAL?$AAI?$AAn?$AAt?$AAr?$AAR?$AAe?$AAq?$AAu?$AAe?$AAs?$AAt?$AAS?$AAy?$AAs?$AAI?$AAn?$AAt?$AAr?$AA?3?$AA?5?$AAS?$AAt@|
  002c0		 |$LN92@OALIntrReq|
  002c0	00000000	 DCD         |g_oalSysIntr2Irq|
  002c4		 |$LN93@OALIntrReq|
  002c4	00000000	 DCD         |??_C@_1IM@ENJFJBNJ@?$AAE?$AAR?$AAR?$AAO?$AAR?$AA?3?$AA?5?$AAO?$AAA?$AAL?$AAI?$AAn?$AAt?$AAr?$AAR?$AAe?$AAq?$AAu?$AAe?$AAs?$AAt?$AAS?$AAy?$AAs?$AAI?$AAn?$AAt?$AAr?$AA?3?$AA?5?$AAO?$AAn@|
  002c8		 |$LN94@OALIntrReq|
  002c8	00000000	 DCD         |??_C@_1FK@JNHCPMAP@?$AA?$CL?$AAO?$AAA?$AAL?$AAI?$AAn?$AAt?$AAr?$AAR?$AAe?$AAq?$AAu?$AAe?$AAs?$AAt?$AAS?$AAy?$AAs?$AAI?$AAn?$AAt?$AAr?$AA?$CI?$AA?$CF?$AAd?$AA?0?$AA?5?$AA0?$AAx?$AA?$CF?$AA0?$AA8@|
  002cc		 |$LN95@OALIntrReq|
  002cc	00000000	 DCD         |dpCurSettings|
  002d0		 |$M43603|

			 ENDP  ; |OALIntrRequestSysIntr|

	EXPORT	|OALIntrReleaseSysIntr|
	EXPORT	|??_C@_1EE@GBADJBKJ@?$AA?9?$AAO?$AAA?$AAL?$AAI?$AAn?$AAt?$AAr?$AAR?$AAe?$AAl?$AAe?$AAa?$AAs?$AAe?$AAS?$AAy?$AAs?$AAI?$AAn?$AAt?$AAr?$AA?$CI?$AAr?$AAc?$AA?5?$AA?$DN?$AA?5?$AA?$CF?$AAd?$AA?$CJ?$AA?$AN@| [ DATA ] ; `string'
	EXPORT	|??_C@_1HC@BIEMDHNG@?$AAE?$AAR?$AAR?$AAO?$AAR?$AA?3?$AA?5?$AAO?$AAA?$AAL?$AAI?$AAn?$AAt?$AAr?$AAR?$AAe?$AAl?$AAe?$AAa?$AAs?$AAe?$AAS?$AAy?$AAs?$AAI?$AAn?$AAt?$AAr?$AA?3?$AA?5?$AAI?$AAn@| [ DATA ] ; `string'
	EXPORT	|??_C@_1DK@GDEEGDPM@?$AA?$CL?$AAO?$AAA?$AAL?$AAI?$AAn?$AAt?$AAr?$AAR?$AAe?$AAl?$AAe?$AAa?$AAs?$AAe?$AAS?$AAy?$AAs?$AAI?$AAn?$AAt?$AAr?$AA?$CI?$AA?$CF?$AAd?$AA?$CJ?$AA?$AN?$AA?6?$AA?$AA@| [ DATA ] ; `string'

  00000			 AREA	 |.pdata|, PDATA
|$T43634| DCD	|$LN21@OALIntrRel|
	DCD	0x40003701

  00000			 AREA	 |.rdata|, DATA, READONLY
|??_C@_1EE@GBADJBKJ@?$AA?9?$AAO?$AAA?$AAL?$AAI?$AAn?$AAt?$AAr?$AAR?$AAe?$AAl?$AAe?$AAa?$AAs?$AAe?$AAS?$AAy?$AAs?$AAI?$AAn?$AAt?$AAr?$AA?$CI?$AAr?$AAc?$AA?5?$AA?$DN?$AA?5?$AA?$CF?$AAd?$AA?$CJ?$AA?$AN@| DCB "-"
	DCB	0x0, "O", 0x0, "A", 0x0, "L", 0x0, "I", 0x0, "n", 0x0, "t"
	DCB	0x0, "r", 0x0, "R", 0x0, "e", 0x0, "l", 0x0, "e", 0x0, "a"
	DCB	0x0, "s", 0x0, "e", 0x0, "S", 0x0, "y", 0x0, "s", 0x0, "I"
	DCB	0x0, "n", 0x0, "t", 0x0, "r", 0x0, "(", 0x0, "r", 0x0, "c"
	DCB	0x0, " ", 0x0, "=", 0x0, " ", 0x0, "%", 0x0, "d", 0x0, ")"
	DCB	0x0, 0xd, 0x0, 0xa, 0x0, 0x0, 0x0	; `string'

  00000			 AREA	 |.rdata|, DATA, READONLY
|??_C@_1HC@BIEMDHNG@?$AAE?$AAR?$AAR?$AAO?$AAR?$AA?3?$AA?5?$AAO?$AAA?$AAL?$AAI?$AAn?$AAt?$AAr?$AAR?$AAe?$AAl?$AAe?$AAa?$AAs?$AAe?$AAS?$AAy?$AAs?$AAI?$AAn?$AAt?$AAr?$AA?3?$AA?5?$AAI?$AAn@| DCB "E"
	DCB	0x0, "R", 0x0, "R", 0x0, "O", 0x0, "R", 0x0, ":", 0x0, " "
	DCB	0x0, "O", 0x0, "A", 0x0, "L", 0x0, "I", 0x0, "n", 0x0, "t"
	DCB	0x0, "r", 0x0, "R", 0x0, "e", 0x0, "l", 0x0, "e", 0x0, "a"
	DCB	0x0, "s", 0x0, "e", 0x0, "S", 0x0, "y", 0x0, "s", 0x0, "I"
	DCB	0x0, "n", 0x0, "t", 0x0, "r", 0x0, ":", 0x0, " ", 0x0, "I"
	DCB	0x0, "n", 0x0, "v", 0x0, "a", 0x0, "l", 0x0, "i", 0x0, "d"
	DCB	0x0, " ", 0x0, "s", 0x0, "y", 0x0, "s", 0x0, "I", 0x0, "n"
	DCB	0x0, "t", 0x0, "r", 0x0, " ", 0x0, "v", 0x0, "a", 0x0, "l"
	DCB	0x0, "u", 0x0, "e", 0x0, " ", 0x0, "%", 0x0, "d", 0x0, 0xd
	DCB	0x0, 0xa, 0x0, 0x0, 0x0			; `string'

  00000			 AREA	 |.rdata|, DATA, READONLY
|??_C@_1DK@GDEEGDPM@?$AA?$CL?$AAO?$AAA?$AAL?$AAI?$AAn?$AAt?$AAr?$AAR?$AAe?$AAl?$AAe?$AAa?$AAs?$AAe?$AAS?$AAy?$AAs?$AAI?$AAn?$AAt?$AAr?$AA?$CI?$AA?$CF?$AAd?$AA?$CJ?$AA?$AN?$AA?6?$AA?$AA@| DCB "+"
	DCB	0x0, "O", 0x0, "A", 0x0, "L", 0x0, "I", 0x0, "n", 0x0, "t"
	DCB	0x0, "r", 0x0, "R", 0x0, "e", 0x0, "l", 0x0, "e", 0x0, "a"
	DCB	0x0, "s", 0x0, "e", 0x0, "S", 0x0, "y", 0x0, "s", 0x0, "I"
	DCB	0x0, "n", 0x0, "t", 0x0, "r", 0x0, "(", 0x0, "%", 0x0, "d"
	DCB	0x0, ")", 0x0, 0xd, 0x0, 0xa, 0x0, 0x0, 0x0 ; `string'
; Function compile flags: /Ogspy

  00000			 AREA	 |.text|, CODE, ARM

  00000		 |OALIntrReleaseSysIntr| PROC

; 312  : {

  00000		 |$LN21@OALIntrRel|
  00000	e92d40f0	 stmdb       sp!, {r4 - r7, lr}
  00004		 |$M43631|
  00004	e1a05000	 mov         r5, r0

; 313  :     BOOL rc = TRUE;
; 314  : 
; 315  :     UINT32 i, irq;
; 316  : 
; 317  :     OALMSG(OAL_INTR&&OAL_FUNC, (L"+OALIntrReleaseSysIntr(%d)\r\n", sysIntr));

  00008	e59f60c8	 ldr         r6, [pc, #0xC8]
  0000c	e3a04001	 mov         r4, #1
  00010	e5962440	 ldr         r2, [r6, #0x440]
  00014	e3120901	 tst         r2, #1, 18
  00018	0a000005	 beq         |$LN11@OALIntrRel|
  0001c	e3120004	 tst         r2, #4
  00020	0a000003	 beq         |$LN11@OALIntrRel|
  00024	e59f00a8	 ldr         r0, [pc, #0xA8]
  00028	e1a01005	 mov         r1, r5
  0002c	eb000000	 bl          NKDbgPrintfW
  00030	e5962440	 ldr         r2, [r6, #0x440]
  00034		 |$LN11@OALIntrRel|

; 318  : 
; 319  :     if ((sysIntr < SYSINTR_FIRMWARE) || (sysIntr >= SYSINTR_MAXIMUM))

  00034	e2453010	 sub         r3, r5, #0x10
  00038	e3530037	 cmp         r3, #0x37
  0003c	8a000012	 bhi         |$LN7@OALIntrRel|

; 325  :         goto cleanUp;
; 326  :         }
; 327  : 
; 328  :     // Release all mapping for given SYSINTR
; 329  :     for (i = 0; i < PXA27X_IRQ_PER_SYSINTR; i++)

  00040	e59f6088	 ldr         r6, [pc, #0x88]
  00044	e3a0e004	 mov         lr, #4
  00048	e3e07000	 mvn         r7, #0
  0004c	e0861205	 add         r1, r6, r5, lsl #4
  00050		 |$LL6@OALIntrRel|

; 330  :         {
; 331  :         if (g_oalSysIntr2Irq[sysIntr][i] == OAL_INTR_IRQ_UNDEFINED) continue;

  00050	e5913000	 ldr         r3, [r1]
  00054	e3730001	 cmn         r3, #1
  00058	0a000007	 beq         |$LN5@OALIntrRel|

; 332  :         // Remove the SYSINTR -> IRQ mapping
; 333  :         irq = g_oalSysIntr2Irq[sysIntr][i];
; 334  :         g_oalSysIntr2Irq[sysIntr][i] = OAL_INTR_IRQ_UNDEFINED;
; 335  :         // If there is IRQ -> SYSINTR for this IRQ release it also
; 336  :         if (irq >= PXA27X_IRQ_MAXIMUM)

  0005c	e3530c01	 cmp         r3, #1, 24

; 337  :             {
; 338  :             rc = FALSE;

  00060	23a04000	 movcs       r4, #0
  00064	e5817000	 str         r7, [r1]
  00068	2a000003	 bcs         |$LN5@OALIntrRel|

; 339  :             continue;
; 340  :             }
; 341  :         if (g_oalIrq2SysIntr[irq] == sysIntr)

  0006c	e2860d12	 add         r0, r6, #0x12, 26
  00070	e7b03103	 ldr         r3, [r0, +r3, lsl #2]!
  00074	e1530005	 cmp         r3, r5

; 342  :             {
; 343  :             g_oalIrq2SysIntr[irq] = SYSINTR_UNDEFINED;

  00078	05807000	 streq       r7, [r0]
  0007c		 |$LN5@OALIntrRel|
  0007c	e2811004	 add         r1, r1, #4
  00080	e25ee001	 subs        lr, lr, #1
  00084	1afffff1	 bne         |$LL6@OALIntrRel|

; 318  : 
; 319  :     if ((sysIntr < SYSINTR_FIRMWARE) || (sysIntr >= SYSINTR_MAXIMUM))

  00088	ea000006	 b           |$cleanUp$43342|
  0008c		 |$LN7@OALIntrRel|

; 320  :         {
; 321  :         OALMSG(OAL_ERROR, (L"ERROR: OALIntrReleaseSysIntr: "
; 322  :             L"Invalid sysIntr value %d\r\n", sysIntr
; 323  :             ));

  0008c	e3120001	 tst         r2, #1
  00090	0a000003	 beq         |$LN13@OALIntrRel|
  00094	e59f0030	 ldr         r0, [pc, #0x30]
  00098	e1a01005	 mov         r1, r5
  0009c	eb000000	 bl          NKDbgPrintfW
  000a0	e5962440	 ldr         r2, [r6, #0x440]
  000a4		 |$LN13@OALIntrRel|

; 324  :         rc = FALSE;

  000a4	e3a04000	 mov         r4, #0
  000a8		 |$cleanUp$43342|

; 344  :             }
; 345  :         }
; 346  : 
; 347  : cleanUp:
; 348  :     OALMSG(OAL_INTR&&OAL_FUNC, (L"-OALIntrReleaseSysIntr(rc = %d)\r\n", rc));

  000a8	e3120901	 tst         r2, #1, 18
  000ac	13120004	 tstne       r2, #4
  000b0	159f0010	 ldrne       r0, [pc, #0x10]
  000b4	11a01004	 movne       r1, r4
  000b8	1b000000	 blne        NKDbgPrintfW

; 349  :     return rc;
; 350  : }

  000bc	e1a00004	 mov         r0, r4
  000c0	e8bd40f0	 ldmia       sp!, {r4 - r7, lr}
  000c4	e12fff1e	 bx          lr
  000c8		 |$LN22@OALIntrRel|
  000c8		 |$LN23@OALIntrRel|
  000c8	00000000	 DCD         |??_C@_1EE@GBADJBKJ@?$AA?9?$AAO?$AAA?$AAL?$AAI?$AAn?$AAt?$AAr?$AAR?$AAe?$AAl?$AAe?$AAa?$AAs?$AAe?$AAS?$AAy?$AAs?$AAI?$AAn?$AAt?$AAr?$AA?$CI?$AAr?$AAc?$AA?5?$AA?$DN?$AA?5?$AA?$CF?$AAd?$AA?$CJ?$AA?$AN@|
  000cc		 |$LN24@OALIntrRel|
  000cc	00000000	 DCD         |??_C@_1HC@BIEMDHNG@?$AAE?$AAR?$AAR?$AAO?$AAR?$AA?3?$AA?5?$AAO?$AAA?$AAL?$AAI?$AAn?$AAt?$AAr?$AAR?$AAe?$AAl?$AAe?$AAa?$AAs?$AAe?$AAS?$AAy?$AAs?$AAI?$AAn?$AAt?$AAr?$AA?3?$AA?5?$AAI?$AAn@|
  000d0		 |$LN25@OALIntrRel|
  000d0	00000000	 DCD         |g_oalSysIntr2Irq|
  000d4		 |$LN26@OALIntrRel|
  000d4	00000000	 DCD         |??_C@_1DK@GDEEGDPM@?$AA?$CL?$AAO?$AAA?$AAL?$AAI?$AAn?$AAt?$AAr?$AAR?$AAe?$AAl?$AAe?$AAa?$AAs?$AAe?$AAS?$AAy?$AAs?$AAI?$AAn?$AAt?$AAr?$AA?$CI?$AA?$CF?$AAd?$AA?$CJ?$AA?$AN?$AA?6?$AA?$AA@|
  000d8		 |$LN27@OALIntrRel|
  000d8	00000000	 DCD         |dpCurSettings|
  000dc		 |$M43632|

			 ENDP  ; |OALIntrReleaseSysIntr|

	EXPORT	|OEMInterruptEnable|
	EXPORT	|??_C@_1DM@KHBFOEPK@?$AA?9?$AAO?$AAE?$AAM?$AAI?$AAn?$AAt?$AAe?$AAr?$AAr?$AAu?$AAp?$AAt?$AAE?$AAn?$AAa?$AAb?$AAl?$AAe?$AA?$CI?$AAr?$AAc?$AA?5?$AA?$DN?$AA?5?$AA1?$AA?$CJ?$AA?$AN?$AA?6?$AA?$AA@| [ DATA ] ; `string'
	EXPORT	|??_C@_1EI@HHGIJMMI@?$AA?$CL?$AAO?$AAE?$AAM?$AAI?$AAn?$AAt?$AAe?$AAr?$AAr?$AAu?$AAp?$AAt?$AAE?$AAn?$AAa?$AAb?$AAl?$AAe?$AA?$CI?$AA?$CF?$AAd?$AA?0?$AA?5?$AA0?$AAx?$AA?$CF?$AAx?$AA?0?$AA?5?$AA?$CF?$AAd@| [ DATA ] ; `string'
	IMPORT	|OALIntrEnableIrqs|

  00000			 AREA	 |.pdata|, PDATA
|$T43657| DCD	|$LN11@OEMInterru|
	DCD	0x40002501

  00000			 AREA	 |.rdata|, DATA, READONLY
|??_C@_1DM@KHBFOEPK@?$AA?9?$AAO?$AAE?$AAM?$AAI?$AAn?$AAt?$AAe?$AAr?$AAr?$AAu?$AAp?$AAt?$AAE?$AAn?$AAa?$AAb?$AAl?$AAe?$AA?$CI?$AAr?$AAc?$AA?5?$AA?$DN?$AA?5?$AA1?$AA?$CJ?$AA?$AN?$AA?6?$AA?$AA@| DCB "-"
	DCB	0x0, "O", 0x0, "E", 0x0, "M", 0x0, "I", 0x0, "n", 0x0, "t"
	DCB	0x0, "e", 0x0, "r", 0x0, "r", 0x0, "u", 0x0, "p", 0x0, "t"
	DCB	0x0, "E", 0x0, "n", 0x0, "a", 0x0, "b", 0x0, "l", 0x0, "e"
	DCB	0x0, "(", 0x0, "r", 0x0, "c", 0x0, " ", 0x0, "=", 0x0, " "
	DCB	0x0, "1", 0x0, ")", 0x0, 0xd, 0x0, 0xa, 0x0, 0x0, 0x0 ; `string'

  00000			 AREA	 |.rdata|, DATA, READONLY
|??_C@_1EI@HHGIJMMI@?$AA?$CL?$AAO?$AAE?$AAM?$AAI?$AAn?$AAt?$AAe?$AAr?$AAr?$AAu?$AAp?$AAt?$AAE?$AAn?$AAa?$AAb?$AAl?$AAe?$AA?$CI?$AA?$CF?$AAd?$AA?0?$AA?5?$AA0?$AAx?$AA?$CF?$AAx?$AA?0?$AA?5?$AA?$CF?$AAd@| DCB "+"
	DCB	0x0, "O", 0x0, "E", 0x0, "M", 0x0, "I", 0x0, "n", 0x0, "t"
	DCB	0x0, "e", 0x0, "r", 0x0, "r", 0x0, "u", 0x0, "p", 0x0, "t"
	DCB	0x0, "E", 0x0, "n", 0x0, "a", 0x0, "b", 0x0, "l", 0x0, "e"
	DCB	0x0, "(", 0x0, "%", 0x0, "d", 0x0, ",", 0x0, " ", 0x0, "0"
	DCB	0x0, "x", 0x0, "%", 0x0, "x", 0x0, ",", 0x0, " ", 0x0, "%"
	DCB	0x0, "d", 0x0, ")", 0x0, 0xd, 0x0, 0xa, 0x0, 0x0, 0x0 ; `string'
; Function compile flags: /Ogspy

  00000			 AREA	 |.text|, CODE, ARM

  00000		 |OEMInterruptEnable| PROC

; 365  : {

  00000		 |$LN11@OEMInterru|
  00000	e92d4030	 stmdb       sp!, {r4, r5, lr}
  00004		 |$M43654|
  00004	e1a04000	 mov         r4, r0

; 366  :     BOOL rc = FALSE;
; 367  : 
; 368  :     OALMSG(OAL_INTR&&OAL_VERBOSE, 
; 369  :         (L"+OEMInterruptEnable(%d, 0x%x, %d)\r\n", sysIntr, pData, dataSize
; 370  :         ));

  00008	e59f5080	 ldr         r5, [pc, #0x80]
  0000c	e5953440	 ldr         r3, [r5, #0x440]
  00010	e3130901	 tst         r3, #1, 18
  00014	0a000007	 beq         |$LN5@OEMInterru|
  00018	e3130902	 tst         r3, #2, 18
  0001c	0a000005	 beq         |$LN5@OEMInterru|
  00020	e59f0064	 ldr         r0, [pc, #0x64]
  00024	e1a03002	 mov         r3, r2
  00028	e1a02001	 mov         r2, r1
  0002c	e1a01004	 mov         r1, r4
  00030	eb000000	 bl          NKDbgPrintfW
  00034	e5953440	 ldr         r3, [r5, #0x440]
  00038		 |$LN5@OEMInterru|

; 371  : 
; 372  :     // SYSINTR_VMINI & SYSINTR_TIMING are special cases
; 373  :     if ((sysIntr == SYSINTR_VMINI) || (sysIntr == SYSINTR_TIMING))

  00038	e354000f	 cmp         r4, #0xF
  0003c	0a000008	 beq         |$LN1@OEMInterru|
  00040	e354000a	 cmp         r4, #0xA
  00044	0a000006	 beq         |$LN1@OEMInterru|

; 376  :         goto cleanUp;
; 377  :         }
; 378  : 
; 379  :     // Enable interrupts
; 380  :     rc = OALIntrEnableIrqs(PXA27X_IRQ_PER_SYSINTR, g_oalSysIntr2Irq[sysIntr]);

  00048	e59f3038	 ldr         r3, [pc, #0x38]
  0004c	e3a00004	 mov         r0, #4
  00050	e0831204	 add         r1, r3, r4, lsl #4
  00054	eb000000	 bl          OALIntrEnableIrqs
  00058	e5953440	 ldr         r3, [r5, #0x440]
  0005c	e1a04000	 mov         r4, r0
  00060	ea000000	 b           |$cleanUp$43363|
  00064		 |$LN1@OEMInterru|

; 374  :         {
; 375  :         rc = TRUE;

  00064	e3a04001	 mov         r4, #1
  00068		 |$cleanUp$43363|

; 381  : 
; 382  : cleanUp:    
; 383  :     OALMSG(OAL_INTR&&OAL_VERBOSE, (L"-OEMInterruptEnable(rc = 1)\r\n"));

  00068	e3130901	 tst         r3, #1, 18
  0006c	13130902	 tstne       r3, #2, 18
  00070	159f000c	 ldrne       r0, [pc, #0xC]
  00074	1b000000	 blne        NKDbgPrintfW

; 384  :     return rc;
; 385  : }

  00078	e1a00004	 mov         r0, r4
  0007c	e8bd4030	 ldmia       sp!, {r4, r5, lr}
  00080	e12fff1e	 bx          lr
  00084		 |$LN12@OEMInterru|
  00084		 |$LN13@OEMInterru|
  00084	00000000	 DCD         |??_C@_1DM@KHBFOEPK@?$AA?9?$AAO?$AAE?$AAM?$AAI?$AAn?$AAt?$AAe?$AAr?$AAr?$AAu?$AAp?$AAt?$AAE?$AAn?$AAa?$AAb?$AAl?$AAe?$AA?$CI?$AAr?$AAc?$AA?5?$AA?$DN?$AA?5?$AA1?$AA?$CJ?$AA?$AN?$AA?6?$AA?$AA@|
  00088		 |$LN14@OEMInterru|
  00088	00000000	 DCD         |g_oalSysIntr2Irq|
  0008c		 |$LN15@OEMInterru|
  0008c	00000000	 DCD         |??_C@_1EI@HHGIJMMI@?$AA?$CL?$AAO?$AAE?$AAM?$AAI?$AAn?$AAt?$AAe?$AAr?$AAr?$AAu?$AAp?$AAt?$AAE?$AAn?$AAa?$AAb?$AAl?$AAe?$AA?$CI?$AA?$CF?$AAd?$AA?0?$AA?5?$AA0?$AAx?$AA?$CF?$AAx?$AA?0?$AA?5?$AA?$CF?$AAd@|
  00090		 |$LN16@OEMInterru|
  00090	00000000	 DCD         |dpCurSettings|
  00094		 |$M43655|

			 ENDP  ; |OEMInterruptEnable|

	EXPORT	|OEMInterruptDisable|
	EXPORT	|??_C@_1CO@FKOPLHGO@?$AA?9?$AAO?$AAE?$AAM?$AAI?$AAn?$AAt?$AAe?$AAr?$AAr?$AAu?$AAp?$AAt?$AAD?$AAi?$AAs?$AAa?$AAb?$AAl?$AAe?$AA?$AN?$AA?6?$AA?$AA@| [ DATA ] ; `string'
	EXPORT	|??_C@_1DG@HOKLDENP@?$AA?$CL?$AAO?$AAE?$AAM?$AAI?$AAn?$AAt?$AAe?$AAr?$AAr?$AAu?$AAp?$AAt?$AAD?$AAi?$AAs?$AAa?$AAb?$AAl?$AAe?$AA?$CI?$AA?$CF?$AAd?$AA?$CJ?$AA?$AN?$AA?6?$AA?$AA@| [ DATA ] ; `string'
	IMPORT	|OALIntrDisableIrqs|

  00000			 AREA	 |.pdata|, PDATA
|$T43674| DCD	|$LN9@OEMInterru@2|
	DCD	0x40001801

  00000			 AREA	 |.rdata|, DATA, READONLY
|??_C@_1CO@FKOPLHGO@?$AA?9?$AAO?$AAE?$AAM?$AAI?$AAn?$AAt?$AAe?$AAr?$AAr?$AAu?$AAp?$AAt?$AAD?$AAi?$AAs?$AAa?$AAb?$AAl?$AAe?$AA?$AN?$AA?6?$AA?$AA@| DCB "-"
	DCB	0x0, "O", 0x0, "E", 0x0, "M", 0x0, "I", 0x0, "n", 0x0, "t"
	DCB	0x0, "e", 0x0, "r", 0x0, "r", 0x0, "u", 0x0, "p", 0x0, "t"
	DCB	0x0, "D", 0x0, "i", 0x0, "s", 0x0, "a", 0x0, "b", 0x0, "l"
	DCB	0x0, "e", 0x0, 0xd, 0x0, 0xa, 0x0, 0x0, 0x0 ; `string'

  00000			 AREA	 |.rdata|, DATA, READONLY
|??_C@_1DG@HOKLDENP@?$AA?$CL?$AAO?$AAE?$AAM?$AAI?$AAn?$AAt?$AAe?$AAr?$AAr?$AAu?$AAp?$AAt?$AAD?$AAi?$AAs?$AAa?$AAb?$AAl?$AAe?$AA?$CI?$AA?$CF?$AAd?$AA?$CJ?$AA?$AN?$AA?6?$AA?$AA@| DCB "+"
	DCB	0x0, "O", 0x0, "E", 0x0, "M", 0x0, "I", 0x0, "n", 0x0, "t"
	DCB	0x0, "e", 0x0, "r", 0x0, "r", 0x0, "u", 0x0, "p", 0x0, "t"
	DCB	0x0, "D", 0x0, "i", 0x0, "s", 0x0, "a", 0x0, "b", 0x0, "l"
	DCB	0x0, "e", 0x0, "(", 0x0, "%", 0x0, "d", 0x0, ")", 0x0, 0xd
	DCB	0x0, 0xa, 0x0, 0x0, 0x0			; `string'
; Function compile flags: /Ogspy

  00000			 AREA	 |.text|, CODE, ARM

  00000		 |OEMInterruptDisable| PROC

; 397  : {

  00000		 |$LN9@OEMInterru@2|
  00000	e92d4030	 stmdb       sp!, {r4, r5, lr}
  00004		 |$M43671|
  00004	e1a04000	 mov         r4, r0

; 398  :     OALMSG(OAL_INTR&&OAL_VERBOSE, (L"+OEMInterruptDisable(%d)\r\n", sysIntr));

  00008	e59f504c	 ldr         r5, [pc, #0x4C]
  0000c	e5953440	 ldr         r3, [r5, #0x440]
  00010	e3130901	 tst         r3, #1, 18
  00014	13130902	 tstne       r3, #2, 18
  00018	159f0038	 ldrne       r0, [pc, #0x38]
  0001c	11a01004	 movne       r1, r4
  00020	1b000000	 blne        NKDbgPrintfW

; 399  : 
; 400  :     // Disable interrupts
; 401  :     OALIntrDisableIrqs(PXA27X_IRQ_PER_SYSINTR, g_oalSysIntr2Irq[sysIntr]);

  00024	e59f3028	 ldr         r3, [pc, #0x28]
  00028	e3a00004	 mov         r0, #4
  0002c	e0831204	 add         r1, r3, r4, lsl #4
  00030	eb000000	 bl          OALIntrDisableIrqs

; 402  : 
; 403  :     OALMSG(OAL_INTR&&OAL_VERBOSE, (L"-OEMInterruptDisable\r\n"));

  00034	e5953440	 ldr         r3, [r5, #0x440]
  00038	e3130901	 tst         r3, #1, 18
  0003c	13130902	 tstne       r3, #2, 18
  00040	159f0008	 ldrne       r0, [pc, #8]
  00044	1b000000	 blne        NKDbgPrintfW

; 404  : }

  00048	e8bd4030	 ldmia       sp!, {r4, r5, lr}
  0004c	e12fff1e	 bx          lr
  00050		 |$LN10@OEMInterru@2|
  00050		 |$LN11@OEMInterru@2|
  00050	00000000	 DCD         |??_C@_1CO@FKOPLHGO@?$AA?9?$AAO?$AAE?$AAM?$AAI?$AAn?$AAt?$AAe?$AAr?$AAr?$AAu?$AAp?$AAt?$AAD?$AAi?$AAs?$AAa?$AAb?$AAl?$AAe?$AA?$AN?$AA?6?$AA?$AA@|
  00054		 |$LN12@OEMInterru@2|
  00054	00000000	 DCD         |g_oalSysIntr2Irq|
  00058		 |$LN13@OEMInterru@2|
  00058	00000000	 DCD         |??_C@_1DG@HOKLDENP@?$AA?$CL?$AAO?$AAE?$AAM?$AAI?$AAn?$AAt?$AAe?$AAr?$AAr?$AAu?$AAp?$AAt?$AAD?$AAi?$AAs?$AAa?$AAb?$AAl?$AAe?$AA?$CI?$AA?$CF?$AAd?$AA?$CJ?$AA?$AN?$AA?6?$AA?$AA@|
  0005c		 |$LN14@OEMInterru@2|
  0005c	00000000	 DCD         |dpCurSettings|
  00060		 |$M43672|

			 ENDP  ; |OEMInterruptDisable|

	EXPORT	|OEMInterruptMask|
	EXPORT	|??_C@_1CI@OPHGDEL@?$AA?9?$AAO?$AAE?$AAM?$AAI?$AAn?$AAt?$AAe?$AAr?$AAr?$AAu?$AAp?$AAt?$AAM?$AAa?$AAs?$AAk?$AA?$AN?$AA?6?$AA?$AA@| [ DATA ] ; `string'
	EXPORT	|??_C@_1DI@MFEEGIMP@?$AA?$CL?$AAO?$AAE?$AAM?$AAI?$AAn?$AAt?$AAe?$AAr?$AAr?$AAu?$AAp?$AAt?$AAM?$AAa?$AAs?$AAk?$AA?$CI?$AA?$CF?$AAd?$AA?0?$AA?5?$AA?$CF?$AAd?$AA?$CJ?$AA?$AN?$AA?6?$AA?$AA@| [ DATA ] ; `string'

  00000			 AREA	 |.pdata|, PDATA
|$T43692| DCD	|$LN11@OEMInterru@3|
	DCD	0x40001e01

  00000			 AREA	 |.rdata|, DATA, READONLY
|??_C@_1CI@OPHGDEL@?$AA?9?$AAO?$AAE?$AAM?$AAI?$AAn?$AAt?$AAe?$AAr?$AAr?$AAu?$AAp?$AAt?$AAM?$AAa?$AAs?$AAk?$AA?$AN?$AA?6?$AA?$AA@| DCB "-"
	DCB	0x0, "O", 0x0, "E", 0x0, "M", 0x0, "I", 0x0, "n", 0x0, "t"
	DCB	0x0, "e", 0x0, "r", 0x0, "r", 0x0, "u", 0x0, "p", 0x0, "t"
	DCB	0x0, "M", 0x0, "a", 0x0, "s", 0x0, "k", 0x0, 0xd, 0x0, 0xa
	DCB	0x0, 0x0, 0x0				; `string'

  00000			 AREA	 |.rdata|, DATA, READONLY
|??_C@_1DI@MFEEGIMP@?$AA?$CL?$AAO?$AAE?$AAM?$AAI?$AAn?$AAt?$AAe?$AAr?$AAr?$AAu?$AAp?$AAt?$AAM?$AAa?$AAs?$AAk?$AA?$CI?$AA?$CF?$AAd?$AA?0?$AA?5?$AA?$CF?$AAd?$AA?$CJ?$AA?$AN?$AA?6?$AA?$AA@| DCB "+"
	DCB	0x0, "O", 0x0, "E", 0x0, "M", 0x0, "I", 0x0, "n", 0x0, "t"
	DCB	0x0, "e", 0x0, "r", 0x0, "r", 0x0, "u", 0x0, "p", 0x0, "t"
	DCB	0x0, "M", 0x0, "a", 0x0, "s", 0x0, "k", 0x0, "(", 0x0, "%"
	DCB	0x0, "d", 0x0, ",", 0x0, " ", 0x0, "%", 0x0, "d", 0x0, ")"
	DCB	0x0, 0xd, 0x0, 0xa, 0x0, 0x0, 0x0	; `string'
; Function compile flags: /Ogspy

  00000			 AREA	 |.text|, CODE, ARM

  00000		 |OEMInterruptMask| PROC

; 418  : {

  00000		 |$LN11@OEMInterru@3|
  00000	e92d4070	 stmdb       sp!, {r4 - r6, lr}
  00004		 |$M43689|
  00004	e1a05001	 mov         r5, r1
  00008	e1a04000	 mov         r4, r0

; 419  :     OALMSG(OAL_INTR&&OAL_VERBOSE, (
; 420  :         L"+OEMInterruptMask(%d, %d)\r\n", sysIntr, mask
; 421  :         ));

  0000c	e59f6060	 ldr         r6, [pc, #0x60]
  00010	e5963440	 ldr         r3, [r6, #0x440]
  00014	e3130901	 tst         r3, #1, 18
  00018	13130902	 tstne       r3, #2, 18
  0001c	159f004c	 ldrne       r0, [pc, #0x4C]
  00020	11a02005	 movne       r2, r5
  00024	11a01004	 movne       r1, r4
  00028	1b000000	 blne        NKDbgPrintfW

; 422  : 
; 423  :     // Based on mask enable or disable
; 424  :     if (mask)
; 425  :         {
; 426  :         OALIntrDisableIrqs(PXA27X_IRQ_PER_SYSINTR, g_oalSysIntr2Irq[sysIntr]);

  0002c	e59f3038	 ldr         r3, [pc, #0x38]
  00030	e3550000	 cmp         r5, #0
  00034	e3a00004	 mov         r0, #4
  00038	e0831204	 add         r1, r3, r4, lsl #4
  0003c	0a000001	 beq         |$LN2@OEMInterru@3|
  00040	eb000000	 bl          OALIntrDisableIrqs

; 427  :         }
; 428  :     else 

  00044	ea000000	 b           |$LN1@OEMInterru@3|
  00048		 |$LN2@OEMInterru@3|

; 429  :         {
; 430  :         OALIntrEnableIrqs(PXA27X_IRQ_PER_SYSINTR, g_oalSysIntr2Irq[sysIntr]);

  00048	eb000000	 bl          OALIntrEnableIrqs
  0004c		 |$LN1@OEMInterru@3|

; 431  :         }
; 432  : 
; 433  :     OALMSG(OAL_INTR&&OAL_VERBOSE, (L"-OEMInterruptMask\r\n"));

  0004c	e5963440	 ldr         r3, [r6, #0x440]
  00050	e3130901	 tst         r3, #1, 18
  00054	13130902	 tstne       r3, #2, 18
  00058	159f0008	 ldrne       r0, [pc, #8]
  0005c	1b000000	 blne        NKDbgPrintfW

; 434  : }

  00060	e8bd4070	 ldmia       sp!, {r4 - r6, lr}
  00064	e12fff1e	 bx          lr
  00068		 |$LN12@OEMInterru@3|
  00068		 |$LN13@OEMInterru@3|
  00068	00000000	 DCD         |??_C@_1CI@OPHGDEL@?$AA?9?$AAO?$AAE?$AAM?$AAI?$AAn?$AAt?$AAe?$AAr?$AAr?$AAu?$AAp?$AAt?$AAM?$AAa?$AAs?$AAk?$AA?$AN?$AA?6?$AA?$AA@|
  0006c		 |$LN14@OEMInterru@3|
  0006c	00000000	 DCD         |g_oalSysIntr2Irq|
  00070		 |$LN15@OEMInterru@3|
  00070	00000000	 DCD         |??_C@_1DI@MFEEGIMP@?$AA?$CL?$AAO?$AAE?$AAM?$AAI?$AAn?$AAt?$AAe?$AAr?$AAr?$AAu?$AAp?$AAt?$AAM?$AAa?$AAs?$AAk?$AA?$CI?$AA?$CF?$AAd?$AA?0?$AA?5?$AA?$CF?$AAd?$AA?$CJ?$AA?$AN?$AA?6?$AA?$AA@|
  00074		 |$LN16@OEMInterru@3|
  00074	00000000	 DCD         |dpCurSettings|
  00078		 |$M43690|

			 ENDP  ; |OEMInterruptMask|

	EXPORT	|OEMInterruptDone|
	EXPORT	|??_C@_1CI@IOEKFHHP@?$AA?9?$AAO?$AAE?$AAM?$AAI?$AAn?$AAt?$AAe?$AAr?$AAr?$AAu?$AAp?$AAt?$AAD?$AAo?$AAn?$AAe?$AA?$AN?$AA?6?$AA?$AA@| [ DATA ] ; `string'
	EXPORT	|??_C@_1DA@HAMHGFMF@?$AA?$CL?$AAO?$AAE?$AAM?$AAI?$AAn?$AAt?$AAe?$AAr?$AAr?$AAu?$AAp?$AAt?$AAD?$AAo?$AAn?$AAe?$AA?$CI?$AA?$CF?$AAd?$AA?$CJ?$AA?$AN?$AA?6?$AA?$AA@| [ DATA ] ; `string'
	IMPORT	|OALIntrDoneIrqs|

  00000			 AREA	 |.pdata|, PDATA
|$T43709| DCD	|$LN9@OEMInterru@4|
	DCD	0x40001801

  00000			 AREA	 |.rdata|, DATA, READONLY
|??_C@_1CI@IOEKFHHP@?$AA?9?$AAO?$AAE?$AAM?$AAI?$AAn?$AAt?$AAe?$AAr?$AAr?$AAu?$AAp?$AAt?$AAD?$AAo?$AAn?$AAe?$AA?$AN?$AA?6?$AA?$AA@| DCB "-"
	DCB	0x0, "O", 0x0, "E", 0x0, "M", 0x0, "I", 0x0, "n", 0x0, "t"
	DCB	0x0, "e", 0x0, "r", 0x0, "r", 0x0, "u", 0x0, "p", 0x0, "t"
	DCB	0x0, "D", 0x0, "o", 0x0, "n", 0x0, "e", 0x0, 0xd, 0x0, 0xa
	DCB	0x0, 0x0, 0x0				; `string'

  00000			 AREA	 |.rdata|, DATA, READONLY
|??_C@_1DA@HAMHGFMF@?$AA?$CL?$AAO?$AAE?$AAM?$AAI?$AAn?$AAt?$AAe?$AAr?$AAr?$AAu?$AAp?$AAt?$AAD?$AAo?$AAn?$AAe?$AA?$CI?$AA?$CF?$AAd?$AA?$CJ?$AA?$AN?$AA?6?$AA?$AA@| DCB "+"
	DCB	0x0, "O", 0x0, "E", 0x0, "M", 0x0, "I", 0x0, "n", 0x0, "t"
	DCB	0x0, "e", 0x0, "r", 0x0, "r", 0x0, "u", 0x0, "p", 0x0, "t"
	DCB	0x0, "D", 0x0, "o", 0x0, "n", 0x0, "e", 0x0, "(", 0x0, "%"
	DCB	0x0, "d", 0x0, ")", 0x0, 0xd, 0x0, 0xa, 0x0, 0x0, 0x0 ; `string'
; Function compile flags: /Ogspy

  00000			 AREA	 |.text|, CODE, ARM

  00000		 |OEMInterruptDone| PROC

; 448  : {

  00000		 |$LN9@OEMInterru@4|
  00000	e92d4030	 stmdb       sp!, {r4, r5, lr}
  00004		 |$M43706|
  00004	e1a04000	 mov         r4, r0

; 449  :     OALMSG(OAL_INTR&&OAL_VERBOSE, (L"+OEMInterruptDone(%d)\r\n", sysIntr));

  00008	e59f504c	 ldr         r5, [pc, #0x4C]
  0000c	e5953440	 ldr         r3, [r5, #0x440]
  00010	e3130901	 tst         r3, #1, 18
  00014	13130902	 tstne       r3, #2, 18
  00018	159f0038	 ldrne       r0, [pc, #0x38]
  0001c	11a01004	 movne       r1, r4
  00020	1b000000	 blne        NKDbgPrintfW

; 450  : 
; 451  :     // Re-enable interrupts
; 452  :     OALIntrDoneIrqs(PXA27X_IRQ_PER_SYSINTR, g_oalSysIntr2Irq[sysIntr]); 

  00024	e59f3028	 ldr         r3, [pc, #0x28]
  00028	e3a00004	 mov         r0, #4
  0002c	e0831204	 add         r1, r3, r4, lsl #4
  00030	eb000000	 bl          OALIntrDoneIrqs

; 453  :     
; 454  :     OALMSG(OAL_INTR&&OAL_VERBOSE, (L"-OEMInterruptDone\r\n"));

  00034	e5953440	 ldr         r3, [r5, #0x440]
  00038	e3130901	 tst         r3, #1, 18
  0003c	13130902	 tstne       r3, #2, 18
  00040	159f0008	 ldrne       r0, [pc, #8]
  00044	1b000000	 blne        NKDbgPrintfW

; 455  : }

  00048	e8bd4030	 ldmia       sp!, {r4, r5, lr}
  0004c	e12fff1e	 bx          lr
  00050		 |$LN10@OEMInterru@4|
  00050		 |$LN11@OEMInterru@4|
  00050	00000000	 DCD         |??_C@_1CI@IOEKFHHP@?$AA?9?$AAO?$AAE?$AAM?$AAI?$AAn?$AAt?$AAe?$AAr?$AAr?$AAu?$AAp?$AAt?$AAD?$AAo?$AAn?$AAe?$AA?$AN?$AA?6?$AA?$AA@|
  00054		 |$LN12@OEMInterru@4|
  00054	00000000	 DCD         |g_oalSysIntr2Irq|
  00058		 |$LN13@OEMInterru@4|
  00058	00000000	 DCD         |??_C@_1DA@HAMHGFMF@?$AA?$CL?$AAO?$AAE?$AAM?$AAI?$AAn?$AAt?$AAe?$AAr?$AAr?$AAu?$AAp?$AAt?$AAD?$AAo?$AAn?$AAe?$AA?$CI?$AA?$CF?$AAd?$AA?$CJ?$AA?$AN?$AA?6?$AA?$AA@|
  0005c		 |$LN14@OEMInterru@4|
  0005c	00000000	 DCD         |dpCurSettings|
  00060		 |$M43707|

			 ENDP  ; |OEMInterruptDone|

	END
