; Listing generated by Microsoft (R) Optimizing Compiler Version 14.01.60511.01 

	TTL	C:\WINCE600\PLATFORM\COMMON\SRC\SOC\COMMON_TI_V1\COMMON_TI\OAL\OMAP_IOCTL\hwentropy.c
	CODE32

  00000			 AREA	 |.drectve|, DRECTVE
	DCB	"-defaultlib:LIBCMT "
	DCB	"-defaultlib:OLDNAMES "


  00000			 AREA	 |.rdata|, DATA, READONLY
|EdbgVendorIds| DCW 0x0
	DCW	0x0
	DCD	0x4033
	DCB	0x1
	DCB	"AD", 0x0
	DCW	0x1050
	DCW	0x940
	DCD	0x4005
	DCB	0x1
	DCB	"LS", 0x0
	DCW	0x1050
	DCW	0x940
	DCD	0x2078
	DCB	0x1
	DCB	"LS", 0x0
	DCW	0x10ec
	DCW	0x8029
	DCD	0xc0f0
	DCB	0x1
	DCB	"KS", 0x0
	DCW	0x10ec
	DCW	0x8129
	DCD	0x0
	DCB	0x4
	DCB	"RT", 0x0
	DCW	0x10ec
	DCW	0x8139
	DCD	0x900b
	DCB	0x4
	DCB	"RT", 0x0
	DCW	0x10ec
	DCW	0x8139
	DCD	0xd0c9
	DCB	0x4
	DCB	"RT", 0x0
	DCW	0x10ec
	DCW	0x8139
	DCD	0xe04c
	DCB	0x4
	DCB	"RT", 0x0
	DCW	0x1186
	DCW	0x1300
	DCD	0x50ba
	DCB	0x4
	DCB	"DL", 0x0
	DCW	0x100b
	DCW	0x20
	DCD	0xa0cc
	DCB	0x5
	DCB	"NG", 0x0
	DCW	0x10b7
	DCW	0x9050
	DCD	0x6008
	DCB	0x6
	DCB	"3C", 0x0
	DCW	0x10b7
	DCW	0x9200
	DCD	0x476
	DCB	0x6
	DCB	"3C", 0x0
	EXPORT	|??_C@_1EI@MCIJGMLN@?$AA?9?$AAO?$AAA?$AAL?$AAI?$AAo?$AAC?$AAt?$AAl?$AAH?$AAa?$AAl?$AAG?$AAe?$AAt?$AAH?$AAW?$AAE?$AAn?$AAt?$AAr?$AAo?$AAp?$AAy?$AA?$CI?$AAr?$AAc?$AA?5?$AA?$DN?$AA?5?$AA?$CF?$AAd@| [ DATA ] ; `string'
	EXPORT	|??_C@_1GE@KDBGDMBH@?$AAW?$AAA?$AAR?$AAN?$AA?3?$AA?5?$AAO?$AAA?$AAL?$AAI?$AAo?$AAC?$AAt?$AAl?$AAH?$AAa?$AAl?$AAG?$AAe?$AAt?$AAH?$AAW?$AAE?$AAn?$AAt?$AAr?$AAo?$AAp?$AAy?$AA?3?$AA?5?$AAB@| [ DATA ] ; `string'
	EXPORT	|OALIoCtlHalGetHWEntropy|
	IMPORT	|memcpy|
	IMPORT	|OALArgsQuery|
	IMPORT	|NKSetLastError|
	IMPORT	|NKDbgPrintfW|
	IMPORT	|dpCurSettings|

  00000			 AREA	 |.pdata|, PDATA
|$T44060| DCD	|$LN13@OALIoCtlHa|
	DCD	0x40004c04
; File c:\wince600\platform\common\src\soc\common_ti_v1\common_ti\oal\omap_ioctl\hwentropy.c

  00000			 AREA	 |.rdata|, DATA, READONLY
|??_C@_1EI@MCIJGMLN@?$AA?9?$AAO?$AAA?$AAL?$AAI?$AAo?$AAC?$AAt?$AAl?$AAH?$AAa?$AAl?$AAG?$AAe?$AAt?$AAH?$AAW?$AAE?$AAn?$AAt?$AAr?$AAo?$AAp?$AAy?$AA?$CI?$AAr?$AAc?$AA?5?$AA?$DN?$AA?5?$AA?$CF?$AAd@| DCB "-"
	DCB	0x0, "O", 0x0, "A", 0x0, "L", 0x0, "I", 0x0, "o", 0x0, "C"
	DCB	0x0, "t", 0x0, "l", 0x0, "H", 0x0, "a", 0x0, "l", 0x0, "G"
	DCB	0x0, "e", 0x0, "t", 0x0, "H", 0x0, "W", 0x0, "E", 0x0, "n"
	DCB	0x0, "t", 0x0, "r", 0x0, "o", 0x0, "p", 0x0, "y", 0x0, "("
	DCB	0x0, "r", 0x0, "c", 0x0, " ", 0x0, "=", 0x0, " ", 0x0, "%"
	DCB	0x0, "d", 0x0, ")", 0x0, 0xd, 0x0, 0xa, 0x0, 0x0, 0x0 ; `string'

  00000			 AREA	 |.rdata|, DATA, READONLY
|??_C@_1GE@KDBGDMBH@?$AAW?$AAA?$AAR?$AAN?$AA?3?$AA?5?$AAO?$AAA?$AAL?$AAI?$AAo?$AAC?$AAt?$AAl?$AAH?$AAa?$AAl?$AAG?$AAe?$AAt?$AAH?$AAW?$AAE?$AAn?$AAt?$AAr?$AAo?$AAp?$AAy?$AA?3?$AA?5?$AAB@| DCB "W"
	DCB	0x0, "A", 0x0, "R", 0x0, "N", 0x0, ":", 0x0, " ", 0x0, "O"
	DCB	0x0, "A", 0x0, "L", 0x0, "I", 0x0, "o", 0x0, "C", 0x0, "t"
	DCB	0x0, "l", 0x0, "H", 0x0, "a", 0x0, "l", 0x0, "G", 0x0, "e"
	DCB	0x0, "t", 0x0, "H", 0x0, "W", 0x0, "E", 0x0, "n", 0x0, "t"
	DCB	0x0, "r", 0x0, "o", 0x0, "p", 0x0, "y", 0x0, ":", 0x0, " "
	DCB	0x0, "B", 0x0, "u", 0x0, "f", 0x0, "f", 0x0, "e", 0x0, "r"
	DCB	0x0, " ", 0x0, "t", 0x0, "o", 0x0, "o", 0x0, " ", 0x0, "s"
	DCB	0x0, "m", 0x0, "a", 0x0, "l", 0x0, "l", 0x0, 0xd, 0x0, 0xa
	DCB	0x0, 0x0, 0x0				; `string'
; Function compile flags: /Odtp

  00000			 AREA	 |.text|, CODE, ARM

  00000		 |OALIoCtlHalGetHWEntropy| PROC

; 36   : {

  00000		 |$LN13@OALIoCtlHa|
  00000	e1a0c00d	 mov         r12, sp
  00004	e92d000f	 stmdb       sp!, {r0 - r3}
  00008	e92d5000	 stmdb       sp!, {r12, lr}
  0000c	e24dd01c	 sub         sp, sp, #0x1C
  00010		 |$M44057|

; 37   :     BOOL    rc = FALSE;

  00010	e3a03000	 mov         r3, #0
  00014	e58d3000	 str         r3, [sp]

; 38   :     UINT32  size = 2*sizeof(DWORD);

  00018	e3a03008	 mov         r3, #8
  0001c	e58d3004	 str         r3, [sp, #4]

; 39   :     UINT32  *pID = NULL;

  00020	e3a03000	 mov         r3, #0
  00024	e58d3008	 str         r3, [sp, #8]

; 40   :     
; 41   :     UNREFERENCED_PARAMETER(inpSize);
; 42   :     UNREFERENCED_PARAMETER(pInpBuffer);
; 43   :     UNREFERENCED_PARAMETER(code);
; 44   : 
; 45   :     // Check buffer size
; 46   :     if (pOutSize != NULL) *pOutSize = size;

  00028	e59d3038	 ldr         r3, [sp, #0x38]
  0002c	e3530000	 cmp         r3, #0
  00030	0a000002	 beq         |$LN4@OALIoCtlHa|
  00034	e59d2004	 ldr         r2, [sp, #4]
  00038	e59d3038	 ldr         r3, [sp, #0x38]
  0003c	e5832000	 str         r2, [r3]
  00040		 |$LN4@OALIoCtlHa|

; 47   : 
; 48   :     if (pOutBuffer == NULL || outSize < size)

  00040	e59d3030	 ldr         r3, [sp, #0x30]
  00044	e3530000	 cmp         r3, #0
  00048	0a000003	 beq         |$LN2@OALIoCtlHa|
  0004c	e59d2034	 ldr         r2, [sp, #0x34]
  00050	e59d3004	 ldr         r3, [sp, #4]
  00054	e1520003	 cmp         r2, r3
  00058	2a00000d	 bcs         |$LN3@OALIoCtlHa|
  0005c		 |$LN2@OALIoCtlHa|

; 49   :         {
; 50   :         OALMSG(OAL_WARN, (L"WARN: OALIoCtlHalGetHWEntropy: "
; 51   :             L"Buffer too small\r\n"
; 52   :             ));

  0005c	e59f30c4	 ldr         r3, [pc, #0xC4]
  00060	e5933440	 ldr         r3, [r3, #0x440]
  00064	e3130002	 tst         r3, #2
  00068	0a000004	 beq         |$LN7@OALIoCtlHa|
  0006c	e59f00b8	 ldr         r0, [pc, #0xB8]
  00070	eb000000	 bl          NKDbgPrintfW
  00074	e3a03001	 mov         r3, #1
  00078	e58d3010	 str         r3, [sp, #0x10]
  0007c	ea000001	 b           |$LN8@OALIoCtlHa|
  00080		 |$LN7@OALIoCtlHa|
  00080	e3a03000	 mov         r3, #0
  00084	e58d3010	 str         r3, [sp, #0x10]
  00088		 |$LN8@OALIoCtlHa|

; 53   :         NKSetLastError(ERROR_INSUFFICIENT_BUFFER);

  00088	e3a0007a	 mov         r0, #0x7A
  0008c	eb000000	 bl          NKSetLastError

; 54   :         goto cleanUp;

  00090	ea00000d	 b           |$cleanUp$44037|
  00094		 |$LN3@OALIoCtlHa|

; 55   :     }
; 56   : 
; 57   :     // Get a 64 bit (2 DWORDs) HW generated random number that never changes
; 58   :     pID = OALArgsQuery(OAL_ARGS_QUERY_HWENTROPY);

  00094	e3a00041	 mov         r0, #0x41
  00098	eb000000	 bl          OALArgsQuery
  0009c	e58d0014	 str         r0, [sp, #0x14]
  000a0	e59d3014	 ldr         r3, [sp, #0x14]
  000a4	e58d3008	 str         r3, [sp, #8]

; 59   :     if( pID )

  000a8	e59d3008	 ldr         r3, [sp, #8]
  000ac	e3530000	 cmp         r3, #0
  000b0	0a000005	 beq         |$LN1@OALIoCtlHa|

; 60   :     {
; 61   :         // Copy pattern to output buffer
; 62   :         memcpy(pOutBuffer, pID, size);

  000b4	e59d2004	 ldr         r2, [sp, #4]
  000b8	e59d1008	 ldr         r1, [sp, #8]
  000bc	e59d0030	 ldr         r0, [sp, #0x30]
  000c0	eb000000	 bl          memcpy

; 63   : 
; 64   :         // We are done
; 65   :         rc = TRUE;

  000c4	e3a03001	 mov         r3, #1
  000c8	e58d3000	 str         r3, [sp]
  000cc		 |$LN1@OALIoCtlHa|
  000cc		 |$cleanUp$44037|

; 66   :     }
; 67   : 
; 68   : cleanUp:
; 69   :     OALMSG(OAL_IOCTL&&OAL_FUNC, (L"-OALIoCtlHalGetHWEntropy(rc = %d)\r\n", rc));

  000cc	e59f3054	 ldr         r3, [pc, #0x54]
  000d0	e5933440	 ldr         r3, [r3, #0x440]
  000d4	e3130a01	 tst         r3, #1, 20
  000d8	0a000009	 beq         |$LN9@OALIoCtlHa|
  000dc	e59f3044	 ldr         r3, [pc, #0x44]
  000e0	e5933440	 ldr         r3, [r3, #0x440]
  000e4	e3130004	 tst         r3, #4
  000e8	0a000005	 beq         |$LN9@OALIoCtlHa|
  000ec	e59d1000	 ldr         r1, [sp]
  000f0	e59f002c	 ldr         r0, [pc, #0x2C]
  000f4	eb000000	 bl          NKDbgPrintfW
  000f8	e3a03001	 mov         r3, #1
  000fc	e58d3018	 str         r3, [sp, #0x18]
  00100	ea000001	 b           |$LN10@OALIoCtlHa|
  00104		 |$LN9@OALIoCtlHa|
  00104	e3a03000	 mov         r3, #0
  00108	e58d3018	 str         r3, [sp, #0x18]
  0010c		 |$LN10@OALIoCtlHa|

; 70   : 
; 71   :     return rc;

  0010c	e59d3000	 ldr         r3, [sp]
  00110	e58d300c	 str         r3, [sp, #0xC]

; 72   : }

  00114	e59d000c	 ldr         r0, [sp, #0xC]
  00118	e28dd01c	 add         sp, sp, #0x1C
  0011c	e89d6000	 ldmia       sp, {sp, lr}
  00120	e12fff1e	 bx          lr
  00124		 |$LN14@OALIoCtlHa|
  00124		 |$LN15@OALIoCtlHa|
  00124	00000000	 DCD         |??_C@_1EI@MCIJGMLN@?$AA?9?$AAO?$AAA?$AAL?$AAI?$AAo?$AAC?$AAt?$AAl?$AAH?$AAa?$AAl?$AAG?$AAe?$AAt?$AAH?$AAW?$AAE?$AAn?$AAt?$AAr?$AAo?$AAp?$AAy?$AA?$CI?$AAr?$AAc?$AA?5?$AA?$DN?$AA?5?$AA?$CF?$AAd@|
  00128		 |$LN16@OALIoCtlHa|
  00128	00000000	 DCD         |dpCurSettings|
  0012c		 |$LN17@OALIoCtlHa|
  0012c	00000000	 DCD         |??_C@_1GE@KDBGDMBH@?$AAW?$AAA?$AAR?$AAN?$AA?3?$AA?5?$AAO?$AAA?$AAL?$AAI?$AAo?$AAC?$AAt?$AAl?$AAH?$AAa?$AAl?$AAG?$AAe?$AAt?$AAH?$AAW?$AAE?$AAn?$AAt?$AAr?$AAo?$AAp?$AAy?$AA?3?$AA?5?$AAB@|
  00130		 |$M44058|

			 ENDP  ; |OALIoCtlHalGetHWEntropy|

	END
