; Listing generated by Microsoft (R) Optimizing Compiler Version 14.01.60511.01 

	TTL	C:\WINCE600\PLATFORM\COMMON\SRC\SOC\COMMON_TI_V1\COMMON_TI\OAL\OMAP_IOCTL\ioctlex.c
	CODE32

  00000			 AREA	 |.drectve|, DRECTVE
	DCB	"-defaultlib:LIBCMT "
	DCB	"-defaultlib:OLDNAMES "


  00000			 AREA	 |.rdata|, DATA, READONLY
|EdbgVendorIds| DCW 0x0
	DCW	0x0
	DCD	0x4033
	DCB	0x1
	DCB	"AD", 0x0
	DCW	0x1050
	DCW	0x940
	DCD	0x4005
	DCB	0x1
	DCB	"LS", 0x0
	DCW	0x1050
	DCW	0x940
	DCD	0x2078
	DCB	0x1
	DCB	"LS", 0x0
	DCW	0x10ec
	DCW	0x8029
	DCD	0xc0f0
	DCB	0x1
	DCB	"KS", 0x0
	DCW	0x10ec
	DCW	0x8129
	DCD	0x0
	DCB	0x4
	DCB	"RT", 0x0
	DCW	0x10ec
	DCW	0x8139
	DCD	0x900b
	DCB	0x4
	DCB	"RT", 0x0
	DCW	0x10ec
	DCW	0x8139
	DCD	0xd0c9
	DCB	0x4
	DCB	"RT", 0x0
	DCW	0x10ec
	DCW	0x8139
	DCD	0xe04c
	DCB	0x4
	DCB	"RT", 0x0
	DCW	0x1186
	DCW	0x1300
	DCD	0x50ba
	DCB	0x4
	DCB	"DL", 0x0
	DCW	0x100b
	DCW	0x20
	DCD	0xa0cc
	DCB	0x5
	DCB	"NG", 0x0
	DCW	0x10b7
	DCW	0x9050
	DCD	0x6008
	DCB	0x6
	DCB	"3C", 0x0
	DCW	0x10b7
	DCW	0x9200
	DCD	0x476
	DCB	0x6
	DCB	"3C", 0x0
	EXPORT	|??_C@_1EA@MJDDODLH@?$AA?9?$AAO?$AAA?$AAL?$AAI?$AAo?$AAC?$AAt?$AAl?$AAH?$AAA?$AAL?$AAP?$AAo?$AAs?$AAt?$AAI?$AAn?$AAi?$AAt?$AA?$CI?$AAr?$AAc?$AA?5?$AA?$DN?$AA?5?$AA?$CF?$AAd?$AA?$CJ?$AA?$AN?$AA?6?$AA?$AA@| [ DATA ] ; `string'
	EXPORT	|??_C@_1CO@GIIFGNCE@?$AA?$CL?$AAO?$AAA?$AAL?$AAI?$AAo?$AAC?$AAt?$AAl?$AAH?$AAA?$AAL?$AAP?$AAo?$AAs?$AAt?$AAI?$AAn?$AAi?$AAt?$AA?$AN?$AA?6?$AA?$AA@| [ DATA ] ; `string'
	EXPORT	|OALIoCtlHALPostInit|
	IMPORT	|OALPowerPostInit|
	IMPORT	|OALPadCfgPostInit|
	IMPORT	|OALI2CPostInit|
	IMPORT	|NKDbgPrintfW|
	IMPORT	|dpCurSettings|

  00000			 AREA	 |.pdata|, PDATA
|$T50661| DCD	|$LN9@OALIoCtlHA|
	DCD	0x40002f04
; File c:\wince600\platform\common\src\soc\common_ti_v1\common_ti\oal\omap_ioctl\ioctlex.c

  00000			 AREA	 |.rdata|, DATA, READONLY
|??_C@_1EA@MJDDODLH@?$AA?9?$AAO?$AAA?$AAL?$AAI?$AAo?$AAC?$AAt?$AAl?$AAH?$AAA?$AAL?$AAP?$AAo?$AAs?$AAt?$AAI?$AAn?$AAi?$AAt?$AA?$CI?$AAr?$AAc?$AA?5?$AA?$DN?$AA?5?$AA?$CF?$AAd?$AA?$CJ?$AA?$AN?$AA?6?$AA?$AA@| DCB "-"
	DCB	0x0, "O", 0x0, "A", 0x0, "L", 0x0, "I", 0x0, "o", 0x0, "C"
	DCB	0x0, "t", 0x0, "l", 0x0, "H", 0x0, "A", 0x0, "L", 0x0, "P"
	DCB	0x0, "o", 0x0, "s", 0x0, "t", 0x0, "I", 0x0, "n", 0x0, "i"
	DCB	0x0, "t", 0x0, "(", 0x0, "r", 0x0, "c", 0x0, " ", 0x0, "="
	DCB	0x0, " ", 0x0, "%", 0x0, "d", 0x0, ")", 0x0, 0xd, 0x0, 0xa
	DCB	0x0, 0x0, 0x0				; `string'

  00000			 AREA	 |.rdata|, DATA, READONLY
|??_C@_1CO@GIIFGNCE@?$AA?$CL?$AAO?$AAA?$AAL?$AAI?$AAo?$AAC?$AAt?$AAl?$AAH?$AAA?$AAL?$AAP?$AAo?$AAs?$AAt?$AAI?$AAn?$AAi?$AAt?$AA?$AN?$AA?6?$AA?$AA@| DCB "+"
	DCB	0x0, "O", 0x0, "A", 0x0, "L", 0x0, "I", 0x0, "o", 0x0, "C"
	DCB	0x0, "t", 0x0, "l", 0x0, "H", 0x0, "A", 0x0, "L", 0x0, "P"
	DCB	0x0, "o", 0x0, "s", 0x0, "t", 0x0, "I", 0x0, "n", 0x0, "i"
	DCB	0x0, "t", 0x0, 0xd, 0x0, 0xa, 0x0, 0x0, 0x0 ; `string'
; Function compile flags: /Odtp

  00000			 AREA	 |.text|, CODE, ARM

  00000		 |OALIoCtlHALPostInit| PROC

; 49   : {

  00000		 |$LN9@OALIoCtlHA|
  00000	e1a0c00d	 mov         r12, sp
  00004	e92d000f	 stmdb       sp!, {r0 - r3}
  00008	e92d5000	 stmdb       sp!, {r12, lr}
  0000c	e24dd00c	 sub         sp, sp, #0xC
  00010		 |$M50658|

; 50   : 
; 51   :     UNREFERENCED_PARAMETER(inSize);
; 52   :     UNREFERENCED_PARAMETER(pInBuffer);
; 53   :     UNREFERENCED_PARAMETER(code);
; 54   :     UNREFERENCED_PARAMETER(pOutSize);
; 55   :     UNREFERENCED_PARAMETER(outSize);
; 56   :     UNREFERENCED_PARAMETER(ppOutBuffer);
; 57   : 
; 58   :     OALMSG(OAL_IOCTL&&OAL_FUNC, (L"+OALIoCtlHALPostInit\r\n"));

  00010	e59f309c	 ldr         r3, [pc, #0x9C]
  00014	e5933440	 ldr         r3, [r3, #0x440]
  00018	e3130a01	 tst         r3, #1, 20
  0001c	0a000008	 beq         |$LN3@OALIoCtlHA|
  00020	e59f308c	 ldr         r3, [pc, #0x8C]
  00024	e5933440	 ldr         r3, [r3, #0x440]
  00028	e3130004	 tst         r3, #4
  0002c	0a000004	 beq         |$LN3@OALIoCtlHA|
  00030	e59f0080	 ldr         r0, [pc, #0x80]
  00034	eb000000	 bl          NKDbgPrintfW
  00038	e3a03001	 mov         r3, #1
  0003c	e58d3004	 str         r3, [sp, #4]
  00040	ea000001	 b           |$LN4@OALIoCtlHA|
  00044		 |$LN3@OALIoCtlHA|
  00044	e3a03000	 mov         r3, #0
  00048	e58d3004	 str         r3, [sp, #4]
  0004c		 |$LN4@OALIoCtlHA|

; 59   : 	
; 60   : //    OALClockPostInit();
; 61   :     OALI2CPostInit();

  0004c	eb000000	 bl          OALI2CPostInit

; 62   :     OALPadCfgPostInit();

  00050	eb000000	 bl          OALPadCfgPostInit

; 63   :     
; 64   :     OALPowerPostInit();

  00054	eb000000	 bl          OALPowerPostInit

; 65   : 
; 66   :     OALMSG(OAL_IOCTL&&OAL_FUNC, (L"-OALIoCtlHALPostInit(rc = %d)\r\n", TRUE));

  00058	e59f3054	 ldr         r3, [pc, #0x54]
  0005c	e5933440	 ldr         r3, [r3, #0x440]
  00060	e3130a01	 tst         r3, #1, 20
  00064	0a000009	 beq         |$LN5@OALIoCtlHA|
  00068	e59f3044	 ldr         r3, [pc, #0x44]
  0006c	e5933440	 ldr         r3, [r3, #0x440]
  00070	e3130004	 tst         r3, #4
  00074	0a000005	 beq         |$LN5@OALIoCtlHA|
  00078	e3a01001	 mov         r1, #1
  0007c	e59f002c	 ldr         r0, [pc, #0x2C]
  00080	eb000000	 bl          NKDbgPrintfW
  00084	e3a03001	 mov         r3, #1
  00088	e58d3008	 str         r3, [sp, #8]
  0008c	ea000001	 b           |$LN6@OALIoCtlHA|
  00090		 |$LN5@OALIoCtlHA|
  00090	e3a03000	 mov         r3, #0
  00094	e58d3008	 str         r3, [sp, #8]
  00098		 |$LN6@OALIoCtlHA|

; 67   :     return TRUE;

  00098	e3a03001	 mov         r3, #1
  0009c	e58d3000	 str         r3, [sp]

; 68   : }

  000a0	e59d0000	 ldr         r0, [sp]
  000a4	e28dd00c	 add         sp, sp, #0xC
  000a8	e89d6000	 ldmia       sp, {sp, lr}
  000ac	e12fff1e	 bx          lr
  000b0		 |$LN10@OALIoCtlHA|
  000b0		 |$LN11@OALIoCtlHA|
  000b0	00000000	 DCD         |??_C@_1EA@MJDDODLH@?$AA?9?$AAO?$AAA?$AAL?$AAI?$AAo?$AAC?$AAt?$AAl?$AAH?$AAA?$AAL?$AAP?$AAo?$AAs?$AAt?$AAI?$AAn?$AAi?$AAt?$AA?$CI?$AAr?$AAc?$AA?5?$AA?$DN?$AA?5?$AA?$CF?$AAd?$AA?$CJ?$AA?$AN?$AA?6?$AA?$AA@|
  000b4		 |$LN12@OALIoCtlHA|
  000b4	00000000	 DCD         |dpCurSettings|
  000b8		 |$LN13@OALIoCtlHA|
  000b8	00000000	 DCD         |??_C@_1CO@GIIFGNCE@?$AA?$CL?$AAO?$AAA?$AAL?$AAI?$AAo?$AAC?$AAt?$AAl?$AAH?$AAA?$AAL?$AAP?$AAo?$AAs?$AAt?$AAI?$AAn?$AAi?$AAt?$AA?$AN?$AA?6?$AA?$AA@|
  000bc		 |$M50659|

			 ENDP  ; |OALIoCtlHALPostInit|

	EXPORT	|??_C@_1EG@PFJNLOAE@?$AA?9?$AAO?$AAA?$AAL?$AAI?$AAo?$AAC?$AAt?$AAl?$AAH?$AAa?$AAl?$AAI?$AAr?$AAq?$AA2?$AAS?$AAy?$AAs?$AAi?$AAn?$AAt?$AAr?$AA?$CI?$AAr?$AAc?$AA?5?$AA?$DN?$AA?5?$AA?$CF?$AAd?$AA?$CJ@| [ DATA ] ; `string'
	EXPORT	|??_C@_1GC@IHFCBEA@?$AAW?$AAA?$AAR?$AAN?$AA?3?$AA?5?$AAI?$AAO?$AAC?$AAT?$AAL?$AA_?$AAH?$AAA?$AAL?$AA_?$AAI?$AAR?$AAQ?$AA2?$AAS?$AAY?$AAS?$AAI?$AAN?$AAT?$AAR?$AA?5?$AAi?$AAn?$AAv?$AAa@| [ DATA ] ; `string'
	EXPORT	|??_C@_1DE@MPBNEBBN@?$AA?$CL?$AAO?$AAA?$AAL?$AAI?$AAo?$AAC?$AAt?$AAl?$AAH?$AAa?$AAl?$AAI?$AAr?$AAq?$AA2?$AAS?$AAy?$AAs?$AAi?$AAn?$AAt?$AAr?$AA?$AN?$AA?6?$AA?$AA@| [ DATA ] ; `string'
	EXPORT	|OALIoCtlHalIrq2Sysintr|
	IMPORT	|OALIntrTranslateIrq|
	IMPORT	|NKSetLastError|

  00008			 AREA	 |.pdata|, PDATA
|$T50677| DCD	|$LN14@OALIoCtlHa|
	DCD	0x40005804

  00000			 AREA	 |.rdata|, DATA, READONLY
|??_C@_1EG@PFJNLOAE@?$AA?9?$AAO?$AAA?$AAL?$AAI?$AAo?$AAC?$AAt?$AAl?$AAH?$AAa?$AAl?$AAI?$AAr?$AAq?$AA2?$AAS?$AAy?$AAs?$AAi?$AAn?$AAt?$AAr?$AA?$CI?$AAr?$AAc?$AA?5?$AA?$DN?$AA?5?$AA?$CF?$AAd?$AA?$CJ@| DCB "-"
	DCB	0x0, "O", 0x0, "A", 0x0, "L", 0x0, "I", 0x0, "o", 0x0, "C"
	DCB	0x0, "t", 0x0, "l", 0x0, "H", 0x0, "a", 0x0, "l", 0x0, "I"
	DCB	0x0, "r", 0x0, "q", 0x0, "2", 0x0, "S", 0x0, "y", 0x0, "s"
	DCB	0x0, "i", 0x0, "n", 0x0, "t", 0x0, "r", 0x0, "(", 0x0, "r"
	DCB	0x0, "c", 0x0, " ", 0x0, "=", 0x0, " ", 0x0, "%", 0x0, "d"
	DCB	0x0, ")", 0x0, 0xd, 0x0, 0xa, 0x0, 0x0, 0x0 ; `string'

  00000			 AREA	 |.rdata|, DATA, READONLY
|??_C@_1GC@IHFCBEA@?$AAW?$AAA?$AAR?$AAN?$AA?3?$AA?5?$AAI?$AAO?$AAC?$AAT?$AAL?$AA_?$AAH?$AAA?$AAL?$AA_?$AAI?$AAR?$AAQ?$AA2?$AAS?$AAY?$AAS?$AAI?$AAN?$AAT?$AAR?$AA?5?$AAi?$AAn?$AAv?$AAa@| DCB "W"
	DCB	0x0, "A", 0x0, "R", 0x0, "N", 0x0, ":", 0x0, " ", 0x0, "I"
	DCB	0x0, "O", 0x0, "C", 0x0, "T", 0x0, "L", 0x0, "_", 0x0, "H"
	DCB	0x0, "A", 0x0, "L", 0x0, "_", 0x0, "I", 0x0, "R", 0x0, "Q"
	DCB	0x0, "2", 0x0, "S", 0x0, "Y", 0x0, "S", 0x0, "I", 0x0, "N"
	DCB	0x0, "T", 0x0, "R", 0x0, " ", 0x0, "i", 0x0, "n", 0x0, "v"
	DCB	0x0, "a", 0x0, "l", 0x0, "i", 0x0, "d", 0x0, " ", 0x0, "p"
	DCB	0x0, "a", 0x0, "r", 0x0, "a", 0x0, "m", 0x0, "e", 0x0, "t"
	DCB	0x0, "e", 0x0, "r", 0x0, "s", 0x0, 0xd, 0x0, 0xa, 0x0, 0x0
	DCB	0x0					; `string'

  00000			 AREA	 |.rdata|, DATA, READONLY
|??_C@_1DE@MPBNEBBN@?$AA?$CL?$AAO?$AAA?$AAL?$AAI?$AAo?$AAC?$AAt?$AAl?$AAH?$AAa?$AAl?$AAI?$AAr?$AAq?$AA2?$AAS?$AAy?$AAs?$AAi?$AAn?$AAt?$AAr?$AA?$AN?$AA?6?$AA?$AA@| DCB "+"
	DCB	0x0, "O", 0x0, "A", 0x0, "L", 0x0, "I", 0x0, "o", 0x0, "C"
	DCB	0x0, "t", 0x0, "l", 0x0, "H", 0x0, "a", 0x0, "l", 0x0, "I"
	DCB	0x0, "r", 0x0, "q", 0x0, "2", 0x0, "S", 0x0, "y", 0x0, "s"
	DCB	0x0, "i", 0x0, "n", 0x0, "t", 0x0, "r", 0x0, 0xd, 0x0, 0xa
	DCB	0x0, 0x0, 0x0				; `string'
; Function compile flags: /Odtp

  000bc			 AREA	 |.text|, CODE, ARM

  000bc		 |OALIoCtlHalIrq2Sysintr| PROC

; 77   : {

  000bc		 |$LN14@OALIoCtlHa|
  000bc	e1a0c00d	 mov         r12, sp
  000c0	e92d000f	 stmdb       sp!, {r0 - r3}
  000c4	e92d5000	 stmdb       sp!, {r12, lr}
  000c8	e24dd018	 sub         sp, sp, #0x18
  000cc		 |$M50674|

; 78   :     BOOL rc = FALSE;

  000cc	e3a03000	 mov         r3, #0
  000d0	e58d3000	 str         r3, [sp]

; 79   : 
; 80   :     UNREFERENCED_PARAMETER(code);
; 81   :     UNREFERENCED_PARAMETER(pOutSize);
; 82   :     UNREFERENCED_PARAMETER(inpSize);
; 83   :     UNREFERENCED_PARAMETER(pInpBuffer);
; 84   : 
; 85   :     OALMSG(OAL_IOCTL&&OAL_FUNC, (L"+OALIoCtlHalIrq2Sysintr\r\n"));

  000d4	e59f3134	 ldr         r3, [pc, #0x134]
  000d8	e5933440	 ldr         r3, [r3, #0x440]
  000dc	e3130a01	 tst         r3, #1, 20
  000e0	0a000008	 beq         |$LN6@OALIoCtlHa|
  000e4	e59f3124	 ldr         r3, [pc, #0x124]
  000e8	e5933440	 ldr         r3, [r3, #0x440]
  000ec	e3130004	 tst         r3, #4
  000f0	0a000004	 beq         |$LN6@OALIoCtlHa|
  000f4	e59f011c	 ldr         r0, [pc, #0x11C]
  000f8	eb000000	 bl          NKDbgPrintfW
  000fc	e3a03001	 mov         r3, #1
  00100	e58d3008	 str         r3, [sp, #8]
  00104	ea000001	 b           |$LN7@OALIoCtlHa|
  00108		 |$LN6@OALIoCtlHa|
  00108	e3a03000	 mov         r3, #0
  0010c	e58d3008	 str         r3, [sp, #8]
  00110		 |$LN7@OALIoCtlHa|

; 86   : 
; 87   :     // Check input parameters
; 88   :     if (
; 89   :         pInpBuffer == NULL || inpSize < sizeof(UINT32) ||
; 90   :         pOutBuffer == NULL || outSize < sizeof(UINT32)
; 91   :     ) {

  00110	e59d3024	 ldr         r3, [sp, #0x24]
  00114	e3530000	 cmp         r3, #0
  00118	0a000008	 beq         |$LN2@OALIoCtlHa|
  0011c	e59d3028	 ldr         r3, [sp, #0x28]
  00120	e3530004	 cmp         r3, #4
  00124	3a000005	 bcc         |$LN2@OALIoCtlHa|
  00128	e59d302c	 ldr         r3, [sp, #0x2C]
  0012c	e3530000	 cmp         r3, #0
  00130	0a000002	 beq         |$LN2@OALIoCtlHa|
  00134	e59d3030	 ldr         r3, [sp, #0x30]
  00138	e3530004	 cmp         r3, #4
  0013c	2a00000d	 bcs         |$LN3@OALIoCtlHa|
  00140		 |$LN2@OALIoCtlHa|

; 92   :         NKSetLastError(ERROR_INVALID_PARAMETER);

  00140	e3a00057	 mov         r0, #0x57
  00144	eb000000	 bl          NKSetLastError

; 93   :         OALMSG(OAL_WARN, (
; 94   :             L"WARN: IOCTL_HAL_IRQ2SYSINTR invalid parameters\r\n"
; 95   :         ));

  00148	e59f30c0	 ldr         r3, [pc, #0xC0]
  0014c	e5933440	 ldr         r3, [r3, #0x440]
  00150	e3130002	 tst         r3, #2
  00154	0a000004	 beq         |$LN8@OALIoCtlHa|
  00158	e59f00b4	 ldr         r0, [pc, #0xB4]
  0015c	eb000000	 bl          NKDbgPrintfW
  00160	e3a03001	 mov         r3, #1
  00164	e58d300c	 str         r3, [sp, #0xC]
  00168	ea000001	 b           |$LN9@OALIoCtlHa|
  0016c		 |$LN8@OALIoCtlHa|
  0016c	e3a03000	 mov         r3, #0
  00170	e58d300c	 str         r3, [sp, #0xC]
  00174		 |$LN9@OALIoCtlHa|

; 96   :         goto cleanUp;

  00174	ea00000e	 b           |$cleanUp$50233|
  00178		 |$LN3@OALIoCtlHa|

; 97   :     }
; 98   : 
; 99   :     // Call function itself
; 100  :     *(UINT32*)pOutBuffer = OALIntrTranslateIrq(*(UINT32*)pInpBuffer);

  00178	e59d3024	 ldr         r3, [sp, #0x24]
  0017c	e5930000	 ldr         r0, [r3]
  00180	eb000000	 bl          OALIntrTranslateIrq
  00184	e58d0010	 str         r0, [sp, #0x10]
  00188	e59d2010	 ldr         r2, [sp, #0x10]
  0018c	e59d302c	 ldr         r3, [sp, #0x2C]
  00190	e5832000	 str         r2, [r3]

; 101  :     if (pOutSize != NULL) *pOutSize = sizeof(UINT32);

  00194	e59d3034	 ldr         r3, [sp, #0x34]
  00198	e3530000	 cmp         r3, #0
  0019c	0a000002	 beq         |$LN1@OALIoCtlHa|
  001a0	e59d2034	 ldr         r2, [sp, #0x34]
  001a4	e3a03004	 mov         r3, #4
  001a8	e5823000	 str         r3, [r2]
  001ac		 |$LN1@OALIoCtlHa|

; 102  :    rc = TRUE;

  001ac	e3a03001	 mov         r3, #1
  001b0	e58d3000	 str         r3, [sp]
  001b4		 |$cleanUp$50233|

; 103  : 
; 104  : cleanUp:
; 105  :     OALMSG(OAL_IOCTL&&OAL_FUNC, (
; 106  :         L"-OALIoCtlHalIrq2Sysintr(rc = %d)\r\n", rc
; 107  :     ));

  001b4	e59f3054	 ldr         r3, [pc, #0x54]
  001b8	e5933440	 ldr         r3, [r3, #0x440]
  001bc	e3130a01	 tst         r3, #1, 20
  001c0	0a000009	 beq         |$LN10@OALIoCtlHa|
  001c4	e59f3044	 ldr         r3, [pc, #0x44]
  001c8	e5933440	 ldr         r3, [r3, #0x440]
  001cc	e3130004	 tst         r3, #4
  001d0	0a000005	 beq         |$LN10@OALIoCtlHa|
  001d4	e59d1000	 ldr         r1, [sp]
  001d8	e59f002c	 ldr         r0, [pc, #0x2C]
  001dc	eb000000	 bl          NKDbgPrintfW
  001e0	e3a03001	 mov         r3, #1
  001e4	e58d3014	 str         r3, [sp, #0x14]
  001e8	ea000001	 b           |$LN11@OALIoCtlHa|
  001ec		 |$LN10@OALIoCtlHa|
  001ec	e3a03000	 mov         r3, #0
  001f0	e58d3014	 str         r3, [sp, #0x14]
  001f4		 |$LN11@OALIoCtlHa|

; 108  :     return rc;

  001f4	e59d3000	 ldr         r3, [sp]
  001f8	e58d3004	 str         r3, [sp, #4]

; 109  : 
; 110  : }

  001fc	e59d0004	 ldr         r0, [sp, #4]
  00200	e28dd018	 add         sp, sp, #0x18
  00204	e89d6000	 ldmia       sp, {sp, lr}
  00208	e12fff1e	 bx          lr
  0020c		 |$LN15@OALIoCtlHa|
  0020c		 |$LN16@OALIoCtlHa|
  0020c	00000000	 DCD         |??_C@_1EG@PFJNLOAE@?$AA?9?$AAO?$AAA?$AAL?$AAI?$AAo?$AAC?$AAt?$AAl?$AAH?$AAa?$AAl?$AAI?$AAr?$AAq?$AA2?$AAS?$AAy?$AAs?$AAi?$AAn?$AAt?$AAr?$AA?$CI?$AAr?$AAc?$AA?5?$AA?$DN?$AA?5?$AA?$CF?$AAd?$AA?$CJ@|
  00210		 |$LN17@OALIoCtlHa|
  00210	00000000	 DCD         |dpCurSettings|
  00214		 |$LN18@OALIoCtlHa|
  00214	00000000	 DCD         |??_C@_1GC@IHFCBEA@?$AAW?$AAA?$AAR?$AAN?$AA?3?$AA?5?$AAI?$AAO?$AAC?$AAT?$AAL?$AA_?$AAH?$AAA?$AAL?$AA_?$AAI?$AAR?$AAQ?$AA2?$AAS?$AAY?$AAS?$AAI?$AAN?$AAT?$AAR?$AA?5?$AAi?$AAn?$AAv?$AAa@|
  00218		 |$LN19@OALIoCtlHa|
  00218	00000000	 DCD         |??_C@_1DE@MPBNEBBN@?$AA?$CL?$AAO?$AAA?$AAL?$AAI?$AAo?$AAC?$AAt?$AAl?$AAH?$AAa?$AAl?$AAI?$AAr?$AAq?$AA2?$AAS?$AAy?$AAs?$AAi?$AAn?$AAt?$AAr?$AA?$AN?$AA?6?$AA?$AA@|
  0021c		 |$M50675|

			 ENDP  ; |OALIoCtlHalIrq2Sysintr|

	EXPORT	|??_C@_1EA@DEBHKKOP@?$AA?9?$AAO?$AAA?$AAL?$AAI?$AAo?$AAC?$AAt?$AAl?$AAH?$AAa?$AAl?$AAG?$AAe?$AAt?$AAC?$AAp?$AAu?$AAI?$AAD?$AA?$CI?$AAr?$AAc?$AA?5?$AA?$DN?$AA?5?$AA?$CF?$AAd?$AA?$CJ?$AA?$AN?$AA?6?$AA?$AA@| [ DATA ] ; `string'
	EXPORT	|??_C@_1FO@BENBDFHF@?$AAW?$AAA?$AAR?$AAN?$AA?3?$AA?5?$AAI?$AAO?$AAC?$AAT?$AAL?$AA_?$AAH?$AAA?$AAL?$AA_?$AAG?$AAE?$AAT?$AA_?$AAC?$AAP?$AAU?$AAI?$AAD?$AA?5?$AAi?$AAn?$AAv?$AAa?$AAl?$AAi@| [ DATA ] ; `string'
	EXPORT	|??_C@_1CO@NNOIOCIJ@?$AA?$CL?$AAO?$AAA?$AAL?$AAI?$AAo?$AAC?$AAt?$AAl?$AAH?$AAa?$AAl?$AAG?$AAe?$AAt?$AAC?$AAp?$AAu?$AAI?$AAD?$AA?$AN?$AA?6?$AA?$AA@| [ DATA ] ; `string'
	EXPORT	|OALIoCtlHalGetCpuID|
	IMPORT	|OALGetSiliconIdCode|

  00010			 AREA	 |.pdata|, PDATA
|$T50694| DCD	|$LN13@OALIoCtlHa@2|
	DCD	0x40004a04

  00000			 AREA	 |.rdata|, DATA, READONLY
|??_C@_1EA@DEBHKKOP@?$AA?9?$AAO?$AAA?$AAL?$AAI?$AAo?$AAC?$AAt?$AAl?$AAH?$AAa?$AAl?$AAG?$AAe?$AAt?$AAC?$AAp?$AAu?$AAI?$AAD?$AA?$CI?$AAr?$AAc?$AA?5?$AA?$DN?$AA?5?$AA?$CF?$AAd?$AA?$CJ?$AA?$AN?$AA?6?$AA?$AA@| DCB "-"
	DCB	0x0, "O", 0x0, "A", 0x0, "L", 0x0, "I", 0x0, "o", 0x0, "C"
	DCB	0x0, "t", 0x0, "l", 0x0, "H", 0x0, "a", 0x0, "l", 0x0, "G"
	DCB	0x0, "e", 0x0, "t", 0x0, "C", 0x0, "p", 0x0, "u", 0x0, "I"
	DCB	0x0, "D", 0x0, "(", 0x0, "r", 0x0, "c", 0x0, " ", 0x0, "="
	DCB	0x0, " ", 0x0, "%", 0x0, "d", 0x0, ")", 0x0, 0xd, 0x0, 0xa
	DCB	0x0, 0x0, 0x0				; `string'

  00000			 AREA	 |.rdata|, DATA, READONLY
|??_C@_1FO@BENBDFHF@?$AAW?$AAA?$AAR?$AAN?$AA?3?$AA?5?$AAI?$AAO?$AAC?$AAT?$AAL?$AA_?$AAH?$AAA?$AAL?$AA_?$AAG?$AAE?$AAT?$AA_?$AAC?$AAP?$AAU?$AAI?$AAD?$AA?5?$AAi?$AAn?$AAv?$AAa?$AAl?$AAi@| DCB "W"
	DCB	0x0, "A", 0x0, "R", 0x0, "N", 0x0, ":", 0x0, " ", 0x0, "I"
	DCB	0x0, "O", 0x0, "C", 0x0, "T", 0x0, "L", 0x0, "_", 0x0, "H"
	DCB	0x0, "A", 0x0, "L", 0x0, "_", 0x0, "G", 0x0, "E", 0x0, "T"
	DCB	0x0, "_", 0x0, "C", 0x0, "P", 0x0, "U", 0x0, "I", 0x0, "D"
	DCB	0x0, " ", 0x0, "i", 0x0, "n", 0x0, "v", 0x0, "a", 0x0, "l"
	DCB	0x0, "i", 0x0, "d", 0x0, " ", 0x0, "p", 0x0, "a", 0x0, "r"
	DCB	0x0, "a", 0x0, "m", 0x0, "e", 0x0, "t", 0x0, "e", 0x0, "r"
	DCB	0x0, "s", 0x0, 0xd, 0x0, 0xa, 0x0, 0x0, 0x0 ; `string'

  00000			 AREA	 |.rdata|, DATA, READONLY
|??_C@_1CO@NNOIOCIJ@?$AA?$CL?$AAO?$AAA?$AAL?$AAI?$AAo?$AAC?$AAt?$AAl?$AAH?$AAa?$AAl?$AAG?$AAe?$AAt?$AAC?$AAp?$AAu?$AAI?$AAD?$AA?$AN?$AA?6?$AA?$AA@| DCB "+"
	DCB	0x0, "O", 0x0, "A", 0x0, "L", 0x0, "I", 0x0, "o", 0x0, "C"
	DCB	0x0, "t", 0x0, "l", 0x0, "H", 0x0, "a", 0x0, "l", 0x0, "G"
	DCB	0x0, "e", 0x0, "t", 0x0, "C", 0x0, "p", 0x0, "u", 0x0, "I"
	DCB	0x0, "D", 0x0, 0xd, 0x0, 0xa, 0x0, 0x0, 0x0 ; `string'
; Function compile flags: /Odtp

  0021c			 AREA	 |.text|, CODE, ARM

  0021c		 |OALIoCtlHalGetCpuID| PROC

; 119  : {

  0021c		 |$LN13@OALIoCtlHa@2|
  0021c	e1a0c00d	 mov         r12, sp
  00220	e92d000f	 stmdb       sp!, {r0 - r3}
  00224	e92d5000	 stmdb       sp!, {r12, lr}
  00228	e24dd018	 sub         sp, sp, #0x18
  0022c		 |$M50691|

; 120  :     BOOL  rc = FALSE;

  0022c	e3a03000	 mov         r3, #0
  00230	e58d3000	 str         r3, [sp]

; 121  : 
; 122  :     UNREFERENCED_PARAMETER(code);
; 123  :     UNREFERENCED_PARAMETER(pOutSize);
; 124  :     UNREFERENCED_PARAMETER(inpSize);
; 125  :     UNREFERENCED_PARAMETER(pInpBuffer);
; 126  : 
; 127  :     OALMSG(OAL_IOCTL&&OAL_FUNC, (L"+OALIoCtlHalGetCpuID\r\n"));

  00234	e59f30fc	 ldr         r3, [pc, #0xFC]
  00238	e5933440	 ldr         r3, [r3, #0x440]
  0023c	e3130a01	 tst         r3, #1, 20
  00240	0a000008	 beq         |$LN5@OALIoCtlHa@2|
  00244	e59f30ec	 ldr         r3, [pc, #0xEC]
  00248	e5933440	 ldr         r3, [r3, #0x440]
  0024c	e3130004	 tst         r3, #4
  00250	0a000004	 beq         |$LN5@OALIoCtlHa@2|
  00254	e59f00e4	 ldr         r0, [pc, #0xE4]
  00258	eb000000	 bl          NKDbgPrintfW
  0025c	e3a03001	 mov         r3, #1
  00260	e58d3008	 str         r3, [sp, #8]
  00264	ea000001	 b           |$LN6@OALIoCtlHa@2|
  00268		 |$LN5@OALIoCtlHa@2|
  00268	e3a03000	 mov         r3, #0
  0026c	e58d3008	 str         r3, [sp, #8]
  00270		 |$LN6@OALIoCtlHa@2|

; 128  : 
; 129  :     // Check input parameters
; 130  :     if (
; 131  :         pOutBuffer == NULL || outSize < sizeof(UINT32)
; 132  :     ) {

  00270	e59d302c	 ldr         r3, [sp, #0x2C]
  00274	e3530000	 cmp         r3, #0
  00278	0a000002	 beq         |$LN1@OALIoCtlHa@2|
  0027c	e59d3030	 ldr         r3, [sp, #0x30]
  00280	e3530004	 cmp         r3, #4
  00284	2a00000d	 bcs         |$LN2@OALIoCtlHa@2|
  00288		 |$LN1@OALIoCtlHa@2|

; 133  :         NKSetLastError(ERROR_INVALID_PARAMETER);

  00288	e3a00057	 mov         r0, #0x57
  0028c	eb000000	 bl          NKSetLastError

; 134  :         OALMSG(OAL_WARN, (
; 135  :             L"WARN: IOCTL_HAL_GET_CPUID invalid parameters\r\n"
; 136  :         ));

  00290	e59f30a0	 ldr         r3, [pc, #0xA0]
  00294	e5933440	 ldr         r3, [r3, #0x440]
  00298	e3130002	 tst         r3, #2
  0029c	0a000004	 beq         |$LN7@OALIoCtlHa@2|
  002a0	e59f0094	 ldr         r0, [pc, #0x94]
  002a4	eb000000	 bl          NKDbgPrintfW
  002a8	e3a03001	 mov         r3, #1
  002ac	e58d300c	 str         r3, [sp, #0xC]
  002b0	ea000001	 b           |$LN8@OALIoCtlHa@2|
  002b4		 |$LN7@OALIoCtlHa@2|
  002b4	e3a03000	 mov         r3, #0
  002b8	e58d300c	 str         r3, [sp, #0xC]
  002bc		 |$LN8@OALIoCtlHa@2|

; 137  :         goto cleanUp;

  002bc	ea000006	 b           |$cleanUp$50263|
  002c0		 |$LN2@OALIoCtlHa@2|

; 138  :     }
; 139  : 
; 140  :     //  Get CPU Silicon ID value
; 141  :     ((DWORD*)pOutBuffer)[0] = OALGetSiliconIdCode();

  002c0	eb000000	 bl          OALGetSiliconIdCode
  002c4	e58d0010	 str         r0, [sp, #0x10]
  002c8	e59d2010	 ldr         r2, [sp, #0x10]
  002cc	e59d302c	 ldr         r3, [sp, #0x2C]
  002d0	e5832000	 str         r2, [r3]

; 142  : 
; 143  :     rc = TRUE;

  002d4	e3a03001	 mov         r3, #1
  002d8	e58d3000	 str         r3, [sp]
  002dc		 |$cleanUp$50263|

; 144  : 
; 145  : cleanUp:
; 146  :     OALMSG(OAL_IOCTL&&OAL_FUNC, (
; 147  :         L"-OALIoCtlHalGetCpuID(rc = %d)\r\n", rc
; 148  :     ));

  002dc	e59f3054	 ldr         r3, [pc, #0x54]
  002e0	e5933440	 ldr         r3, [r3, #0x440]
  002e4	e3130a01	 tst         r3, #1, 20
  002e8	0a000009	 beq         |$LN9@OALIoCtlHa@2|
  002ec	e59f3044	 ldr         r3, [pc, #0x44]
  002f0	e5933440	 ldr         r3, [r3, #0x440]
  002f4	e3130004	 tst         r3, #4
  002f8	0a000005	 beq         |$LN9@OALIoCtlHa@2|
  002fc	e59d1000	 ldr         r1, [sp]
  00300	e59f002c	 ldr         r0, [pc, #0x2C]
  00304	eb000000	 bl          NKDbgPrintfW
  00308	e3a03001	 mov         r3, #1
  0030c	e58d3014	 str         r3, [sp, #0x14]
  00310	ea000001	 b           |$LN10@OALIoCtlHa@2|
  00314		 |$LN9@OALIoCtlHa@2|
  00314	e3a03000	 mov         r3, #0
  00318	e58d3014	 str         r3, [sp, #0x14]
  0031c		 |$LN10@OALIoCtlHa@2|

; 149  :     return rc;

  0031c	e59d3000	 ldr         r3, [sp]
  00320	e58d3004	 str         r3, [sp, #4]

; 150  : 
; 151  : }

  00324	e59d0004	 ldr         r0, [sp, #4]
  00328	e28dd018	 add         sp, sp, #0x18
  0032c	e89d6000	 ldmia       sp, {sp, lr}
  00330	e12fff1e	 bx          lr
  00334		 |$LN14@OALIoCtlHa@2|
  00334		 |$LN15@OALIoCtlHa@2|
  00334	00000000	 DCD         |??_C@_1EA@DEBHKKOP@?$AA?9?$AAO?$AAA?$AAL?$AAI?$AAo?$AAC?$AAt?$AAl?$AAH?$AAa?$AAl?$AAG?$AAe?$AAt?$AAC?$AAp?$AAu?$AAI?$AAD?$AA?$CI?$AAr?$AAc?$AA?5?$AA?$DN?$AA?5?$AA?$CF?$AAd?$AA?$CJ?$AA?$AN?$AA?6?$AA?$AA@|
  00338		 |$LN16@OALIoCtlHa@2|
  00338	00000000	 DCD         |dpCurSettings|
  0033c		 |$LN17@OALIoCtlHa@2|
  0033c	00000000	 DCD         |??_C@_1FO@BENBDFHF@?$AAW?$AAA?$AAR?$AAN?$AA?3?$AA?5?$AAI?$AAO?$AAC?$AAT?$AAL?$AA_?$AAH?$AAA?$AAL?$AA_?$AAG?$AAE?$AAT?$AA_?$AAC?$AAP?$AAU?$AAI?$AAD?$AA?5?$AAi?$AAn?$AAv?$AAa?$AAl?$AAi@|
  00340		 |$LN18@OALIoCtlHa@2|
  00340	00000000	 DCD         |??_C@_1CO@NNOIOCIJ@?$AA?$CL?$AAO?$AAA?$AAL?$AAI?$AAo?$AAC?$AAt?$AAl?$AAH?$AAa?$AAl?$AAG?$AAe?$AAt?$AAC?$AAp?$AAu?$AAI?$AAD?$AA?$AN?$AA?6?$AA?$AA@|
  00344		 |$M50692|

			 ENDP  ; |OALIoCtlHalGetCpuID|

	EXPORT	|??_C@_1EA@LEODHOHI@?$AA?9?$AAO?$AAA?$AAL?$AAI?$AAo?$AAC?$AAt?$AAl?$AAH?$AAa?$AAl?$AAG?$AAe?$AAt?$AAD?$AAi?$AAe?$AAI?$AAD?$AA?$CI?$AAr?$AAc?$AA?5?$AA?$DN?$AA?5?$AA?$CF?$AAd?$AA?$CJ?$AA?$AN?$AA?6?$AA?$AA@| [ DATA ] ; `string'
	EXPORT	|??_C@_1FO@IFLGBEFI@?$AAW?$AAA?$AAR?$AAN?$AA?3?$AA?5?$AAI?$AAO?$AAC?$AAT?$AAL?$AA_?$AAH?$AAA?$AAL?$AA_?$AAG?$AAE?$AAT?$AA_?$AAD?$AAI?$AAE?$AAI?$AAD?$AA?5?$AAi?$AAn?$AAv?$AAa?$AAl?$AAi@| [ DATA ] ; `string'
	EXPORT	|??_C@_1CO@OEONDECM@?$AA?$CL?$AAO?$AAA?$AAL?$AAI?$AAo?$AAC?$AAt?$AAl?$AAH?$AAa?$AAl?$AAG?$AAe?$AAt?$AAD?$AAi?$AAe?$AAI?$AAD?$AA?$AN?$AA?6?$AA?$AA@| [ DATA ] ; `string'
	EXPORT	|OALIoCtlHalGetDieID|

  00018			 AREA	 |.pdata|, PDATA
|$T50711| DCD	|$LN13@OALIoCtlHa@3|
	DCD	0x40004504

  00000			 AREA	 |.rdata|, DATA, READONLY
|??_C@_1EA@LEODHOHI@?$AA?9?$AAO?$AAA?$AAL?$AAI?$AAo?$AAC?$AAt?$AAl?$AAH?$AAa?$AAl?$AAG?$AAe?$AAt?$AAD?$AAi?$AAe?$AAI?$AAD?$AA?$CI?$AAr?$AAc?$AA?5?$AA?$DN?$AA?5?$AA?$CF?$AAd?$AA?$CJ?$AA?$AN?$AA?6?$AA?$AA@| DCB "-"
	DCB	0x0, "O", 0x0, "A", 0x0, "L", 0x0, "I", 0x0, "o", 0x0, "C"
	DCB	0x0, "t", 0x0, "l", 0x0, "H", 0x0, "a", 0x0, "l", 0x0, "G"
	DCB	0x0, "e", 0x0, "t", 0x0, "D", 0x0, "i", 0x0, "e", 0x0, "I"
	DCB	0x0, "D", 0x0, "(", 0x0, "r", 0x0, "c", 0x0, " ", 0x0, "="
	DCB	0x0, " ", 0x0, "%", 0x0, "d", 0x0, ")", 0x0, 0xd, 0x0, 0xa
	DCB	0x0, 0x0, 0x0				; `string'

  00000			 AREA	 |.rdata|, DATA, READONLY
|??_C@_1FO@IFLGBEFI@?$AAW?$AAA?$AAR?$AAN?$AA?3?$AA?5?$AAI?$AAO?$AAC?$AAT?$AAL?$AA_?$AAH?$AAA?$AAL?$AA_?$AAG?$AAE?$AAT?$AA_?$AAD?$AAI?$AAE?$AAI?$AAD?$AA?5?$AAi?$AAn?$AAv?$AAa?$AAl?$AAi@| DCB "W"
	DCB	0x0, "A", 0x0, "R", 0x0, "N", 0x0, ":", 0x0, " ", 0x0, "I"
	DCB	0x0, "O", 0x0, "C", 0x0, "T", 0x0, "L", 0x0, "_", 0x0, "H"
	DCB	0x0, "A", 0x0, "L", 0x0, "_", 0x0, "G", 0x0, "E", 0x0, "T"
	DCB	0x0, "_", 0x0, "D", 0x0, "I", 0x0, "E", 0x0, "I", 0x0, "D"
	DCB	0x0, " ", 0x0, "i", 0x0, "n", 0x0, "v", 0x0, "a", 0x0, "l"
	DCB	0x0, "i", 0x0, "d", 0x0, " ", 0x0, "p", 0x0, "a", 0x0, "r"
	DCB	0x0, "a", 0x0, "m", 0x0, "e", 0x0, "t", 0x0, "e", 0x0, "r"
	DCB	0x0, "s", 0x0, 0xd, 0x0, 0xa, 0x0, 0x0, 0x0 ; `string'

  00000			 AREA	 |.rdata|, DATA, READONLY
|??_C@_1CO@OEONDECM@?$AA?$CL?$AAO?$AAA?$AAL?$AAI?$AAo?$AAC?$AAt?$AAl?$AAH?$AAa?$AAl?$AAG?$AAe?$AAt?$AAD?$AAi?$AAe?$AAI?$AAD?$AA?$AN?$AA?6?$AA?$AA@| DCB "+"
	DCB	0x0, "O", 0x0, "A", 0x0, "L", 0x0, "I", 0x0, "o", 0x0, "C"
	DCB	0x0, "t", 0x0, "l", 0x0, "H", 0x0, "a", 0x0, "l", 0x0, "G"
	DCB	0x0, "e", 0x0, "t", 0x0, "D", 0x0, "i", 0x0, "e", 0x0, "I"
	DCB	0x0, "D", 0x0, 0xd, 0x0, 0xa, 0x0, 0x0, 0x0 ; `string'
; Function compile flags: /Odtp

  00344			 AREA	 |.text|, CODE, ARM

  00344		 |OALIoCtlHalGetDieID| PROC

; 160  : {

  00344		 |$LN13@OALIoCtlHa@3|
  00344	e1a0c00d	 mov         r12, sp
  00348	e92d000f	 stmdb       sp!, {r0 - r3}
  0034c	e92d5000	 stmdb       sp!, {r12, lr}
  00350	e24dd014	 sub         sp, sp, #0x14
  00354		 |$M50708|

; 161  :     BOOL                        rc = FALSE;

  00354	e3a03000	 mov         r3, #0
  00358	e58d3000	 str         r3, [sp]

; 162  : 
; 163  :     
; 164  :     UNREFERENCED_PARAMETER(code);
; 165  :     UNREFERENCED_PARAMETER(pOutSize);
; 166  :     UNREFERENCED_PARAMETER(inpSize);
; 167  :     UNREFERENCED_PARAMETER(pInpBuffer);
; 168  : 
; 169  :     
; 170  :     OALMSG(OAL_IOCTL&&OAL_FUNC, (L"+OALIoCtlHalGetDieID\r\n"));

  0035c	e59f30e8	 ldr         r3, [pc, #0xE8]
  00360	e5933440	 ldr         r3, [r3, #0x440]
  00364	e3130a01	 tst         r3, #1, 20
  00368	0a000008	 beq         |$LN5@OALIoCtlHa@3|
  0036c	e59f30d8	 ldr         r3, [pc, #0xD8]
  00370	e5933440	 ldr         r3, [r3, #0x440]
  00374	e3130004	 tst         r3, #4
  00378	0a000004	 beq         |$LN5@OALIoCtlHa@3|
  0037c	e59f00d0	 ldr         r0, [pc, #0xD0]
  00380	eb000000	 bl          NKDbgPrintfW
  00384	e3a03001	 mov         r3, #1
  00388	e58d3008	 str         r3, [sp, #8]
  0038c	ea000001	 b           |$LN6@OALIoCtlHa@3|
  00390		 |$LN5@OALIoCtlHa@3|
  00390	e3a03000	 mov         r3, #0
  00394	e58d3008	 str         r3, [sp, #8]
  00398		 |$LN6@OALIoCtlHa@3|

; 171  : 
; 172  :     // Check input parameters
; 173  :     if (
; 174  :         pOutBuffer == NULL || outSize < sizeof(IOCTL_HAL_GET_DIEID_OUT)
; 175  :     ) {

  00398	e59d3028	 ldr         r3, [sp, #0x28]
  0039c	e3530000	 cmp         r3, #0
  003a0	0a000002	 beq         |$LN1@OALIoCtlHa@3|
  003a4	e59d302c	 ldr         r3, [sp, #0x2C]
  003a8	e3530024	 cmp         r3, #0x24
  003ac	2a00000d	 bcs         |$LN2@OALIoCtlHa@3|
  003b0		 |$LN1@OALIoCtlHa@3|

; 176  :         NKSetLastError(ERROR_INVALID_PARAMETER);

  003b0	e3a00057	 mov         r0, #0x57
  003b4	eb000000	 bl          NKSetLastError

; 177  :         OALMSG(OAL_WARN, (
; 178  :             L"WARN: IOCTL_HAL_GET_DIEID invalid parameters\r\n"
; 179  :         ));

  003b8	e59f308c	 ldr         r3, [pc, #0x8C]
  003bc	e5933440	 ldr         r3, [r3, #0x440]
  003c0	e3130002	 tst         r3, #2
  003c4	0a000004	 beq         |$LN7@OALIoCtlHa@3|
  003c8	e59f0080	 ldr         r0, [pc, #0x80]
  003cc	eb000000	 bl          NKDbgPrintfW
  003d0	e3a03001	 mov         r3, #1
  003d4	e58d300c	 str         r3, [sp, #0xC]
  003d8	ea000001	 b           |$LN8@OALIoCtlHa@3|
  003dc		 |$LN7@OALIoCtlHa@3|
  003dc	e3a03000	 mov         r3, #0
  003e0	e58d300c	 str         r3, [sp, #0xC]
  003e4		 |$LN8@OALIoCtlHa@3|

; 180  :         goto cleanUp;

  003e4	ea000001	 b           |$cleanUp$50289|
  003e8		 |$LN2@OALIoCtlHa@3|

; 181  :     }
; 182  :     
; 183  : #if 0	// TODO : We need to find a DIE ID to read from the CPU
; 184  :     OMAP_IDCORE_REGS*           pIdRegs;    
; 185  : 
; 186  :     //  Get CPU DIE ID values
; 187  :     pIdRegs = OALPAtoUA(OMAP_IDCORE_REGS_PA);
; 188  : 
; 189  :     //  Copy to passed in struct
; 190  :     pDieID = (IOCTL_HAL_GET_DIEID_OUT*)pOutBuffer;
; 191  :     
; 192  :     pDieID->dwIdCode    = INREG32(&pIdRegs->IDCODE);
; 193  :     pDieID->dwProdID_0  = INREG32(&pIdRegs->PRODUCTION_ID_0);
; 194  :     pDieID->dwProdID_1  = INREG32(&pIdRegs->PRODUCTION_ID_1);
; 195  :     pDieID->dwProdID_2  = INREG32(&pIdRegs->PRODUCTION_ID_2);
; 196  :     pDieID->dwProdID_3  = INREG32(&pIdRegs->PRODUCTION_ID_3);
; 197  :     pDieID->dwDieID_0   = INREG32(&pIdRegs->DIE_ID_0);
; 198  :     pDieID->dwDieID_1   = INREG32(&pIdRegs->DIE_ID_1);
; 199  :     pDieID->dwDieID_2   = INREG32(&pIdRegs->DIE_ID_2);
; 200  :     pDieID->dwDieID_3   = INREG32(&pIdRegs->DIE_ID_3);
; 201  : #endif
; 202  :     rc = TRUE;

  003e8	e3a03001	 mov         r3, #1
  003ec	e58d3000	 str         r3, [sp]
  003f0		 |$cleanUp$50289|

; 203  : 
; 204  : cleanUp:
; 205  :     OALMSG(OAL_IOCTL&&OAL_FUNC, (
; 206  :         L"-OALIoCtlHalGetDieID(rc = %d)\r\n", rc
; 207  :     ));

  003f0	e59f3054	 ldr         r3, [pc, #0x54]
  003f4	e5933440	 ldr         r3, [r3, #0x440]
  003f8	e3130a01	 tst         r3, #1, 20
  003fc	0a000009	 beq         |$LN9@OALIoCtlHa@3|
  00400	e59f3044	 ldr         r3, [pc, #0x44]
  00404	e5933440	 ldr         r3, [r3, #0x440]
  00408	e3130004	 tst         r3, #4
  0040c	0a000005	 beq         |$LN9@OALIoCtlHa@3|
  00410	e59d1000	 ldr         r1, [sp]
  00414	e59f002c	 ldr         r0, [pc, #0x2C]
  00418	eb000000	 bl          NKDbgPrintfW
  0041c	e3a03001	 mov         r3, #1
  00420	e58d3010	 str         r3, [sp, #0x10]
  00424	ea000001	 b           |$LN10@OALIoCtlHa@3|
  00428		 |$LN9@OALIoCtlHa@3|
  00428	e3a03000	 mov         r3, #0
  0042c	e58d3010	 str         r3, [sp, #0x10]
  00430		 |$LN10@OALIoCtlHa@3|

; 208  :     return rc;

  00430	e59d3000	 ldr         r3, [sp]
  00434	e58d3004	 str         r3, [sp, #4]

; 209  : 
; 210  : }

  00438	e59d0004	 ldr         r0, [sp, #4]
  0043c	e28dd014	 add         sp, sp, #0x14
  00440	e89d6000	 ldmia       sp, {sp, lr}
  00444	e12fff1e	 bx          lr
  00448		 |$LN14@OALIoCtlHa@3|
  00448		 |$LN15@OALIoCtlHa@3|
  00448	00000000	 DCD         |??_C@_1EA@LEODHOHI@?$AA?9?$AAO?$AAA?$AAL?$AAI?$AAo?$AAC?$AAt?$AAl?$AAH?$AAa?$AAl?$AAG?$AAe?$AAt?$AAD?$AAi?$AAe?$AAI?$AAD?$AA?$CI?$AAr?$AAc?$AA?5?$AA?$DN?$AA?5?$AA?$CF?$AAd?$AA?$CJ?$AA?$AN?$AA?6?$AA?$AA@|
  0044c		 |$LN16@OALIoCtlHa@3|
  0044c	00000000	 DCD         |dpCurSettings|
  00450		 |$LN17@OALIoCtlHa@3|
  00450	00000000	 DCD         |??_C@_1FO@IFLGBEFI@?$AAW?$AAA?$AAR?$AAN?$AA?3?$AA?5?$AAI?$AAO?$AAC?$AAT?$AAL?$AA_?$AAH?$AAA?$AAL?$AA_?$AAG?$AAE?$AAT?$AA_?$AAD?$AAI?$AAE?$AAI?$AAD?$AA?5?$AAi?$AAn?$AAv?$AAa?$AAl?$AAi@|
  00454		 |$LN18@OALIoCtlHa@3|
  00454	00000000	 DCD         |??_C@_1CO@OEONDECM@?$AA?$CL?$AAO?$AAA?$AAL?$AAI?$AAo?$AAC?$AAt?$AAl?$AAH?$AAa?$AAl?$AAG?$AAe?$AAt?$AAD?$AAi?$AAe?$AAI?$AAD?$AA?$AN?$AA?6?$AA?$AA@|
  00458		 |$M50709|

			 ENDP  ; |OALIoCtlHalGetDieID|

	EXPORT	|??_C@_1EI@BLNOICKL@?$AA?9?$AAO?$AAA?$AAL?$AAI?$AAo?$AAC?$AAt?$AAl?$AAH?$AAa?$AAl?$AAG?$AAe?$AAt?$AAC?$AAp?$AAu?$AAF?$AAa?$AAm?$AAi?$AAl?$AAy?$AA?$CI?$AAr?$AAc?$AA?5?$AA?$DN?$AA?5?$AA?$CF?$AAd@| [ DATA ] ; `string'
	EXPORT	|??_C@_1GG@PIALBOFK@?$AAW?$AAA?$AAR?$AAN?$AA?3?$AA?5?$AAI?$AAO?$AAC?$AAT?$AAL?$AA_?$AAH?$AAA?$AAL?$AA_?$AAG?$AAE?$AAT?$AA_?$AAC?$AAP?$AAU?$AAF?$AAA?$AAM?$AAI?$AAL?$AAY?$AA?5?$AAi?$AAn@| [ DATA ] ; `string'
	EXPORT	|??_C@_1DG@LANGKFOF@?$AA?$CL?$AAO?$AAA?$AAL?$AAI?$AAo?$AAC?$AAt?$AAl?$AAH?$AAa?$AAl?$AAG?$AAe?$AAt?$AAC?$AAp?$AAu?$AAF?$AAa?$AAm?$AAi?$AAl?$AAy?$AA?$AN?$AA?6?$AA?$AA@| [ DATA ] ; `string'
	EXPORT	|OALIoCtlHalGetCpuFamily|
	IMPORT	|g_dwCpuFamily|

  00020			 AREA	 |.pdata|, PDATA
|$T50728| DCD	|$LN13@OALIoCtlHa@4|
	DCD	0x40004a04

  00000			 AREA	 |.rdata|, DATA, READONLY
|??_C@_1EI@BLNOICKL@?$AA?9?$AAO?$AAA?$AAL?$AAI?$AAo?$AAC?$AAt?$AAl?$AAH?$AAa?$AAl?$AAG?$AAe?$AAt?$AAC?$AAp?$AAu?$AAF?$AAa?$AAm?$AAi?$AAl?$AAy?$AA?$CI?$AAr?$AAc?$AA?5?$AA?$DN?$AA?5?$AA?$CF?$AAd@| DCB "-"
	DCB	0x0, "O", 0x0, "A", 0x0, "L", 0x0, "I", 0x0, "o", 0x0, "C"
	DCB	0x0, "t", 0x0, "l", 0x0, "H", 0x0, "a", 0x0, "l", 0x0, "G"
	DCB	0x0, "e", 0x0, "t", 0x0, "C", 0x0, "p", 0x0, "u", 0x0, "F"
	DCB	0x0, "a", 0x0, "m", 0x0, "i", 0x0, "l", 0x0, "y", 0x0, "("
	DCB	0x0, "r", 0x0, "c", 0x0, " ", 0x0, "=", 0x0, " ", 0x0, "%"
	DCB	0x0, "d", 0x0, ")", 0x0, 0xd, 0x0, 0xa, 0x0, 0x0, 0x0 ; `string'

  00000			 AREA	 |.rdata|, DATA, READONLY
|??_C@_1GG@PIALBOFK@?$AAW?$AAA?$AAR?$AAN?$AA?3?$AA?5?$AAI?$AAO?$AAC?$AAT?$AAL?$AA_?$AAH?$AAA?$AAL?$AA_?$AAG?$AAE?$AAT?$AA_?$AAC?$AAP?$AAU?$AAF?$AAA?$AAM?$AAI?$AAL?$AAY?$AA?5?$AAi?$AAn@| DCB "W"
	DCB	0x0, "A", 0x0, "R", 0x0, "N", 0x0, ":", 0x0, " ", 0x0, "I"
	DCB	0x0, "O", 0x0, "C", 0x0, "T", 0x0, "L", 0x0, "_", 0x0, "H"
	DCB	0x0, "A", 0x0, "L", 0x0, "_", 0x0, "G", 0x0, "E", 0x0, "T"
	DCB	0x0, "_", 0x0, "C", 0x0, "P", 0x0, "U", 0x0, "F", 0x0, "A"
	DCB	0x0, "M", 0x0, "I", 0x0, "L", 0x0, "Y", 0x0, " ", 0x0, "i"
	DCB	0x0, "n", 0x0, "v", 0x0, "a", 0x0, "l", 0x0, "i", 0x0, "d"
	DCB	0x0, " ", 0x0, "p", 0x0, "a", 0x0, "r", 0x0, "a", 0x0, "m"
	DCB	0x0, "e", 0x0, "t", 0x0, "e", 0x0, "r", 0x0, "s", 0x0, 0xd
	DCB	0x0, 0xa, 0x0, 0x0, 0x0			; `string'

  00000			 AREA	 |.rdata|, DATA, READONLY
|??_C@_1DG@LANGKFOF@?$AA?$CL?$AAO?$AAA?$AAL?$AAI?$AAo?$AAC?$AAt?$AAl?$AAH?$AAa?$AAl?$AAG?$AAe?$AAt?$AAC?$AAp?$AAu?$AAF?$AAa?$AAm?$AAi?$AAl?$AAy?$AA?$AN?$AA?6?$AA?$AA@| DCB "+"
	DCB	0x0, "O", 0x0, "A", 0x0, "L", 0x0, "I", 0x0, "o", 0x0, "C"
	DCB	0x0, "t", 0x0, "l", 0x0, "H", 0x0, "a", 0x0, "l", 0x0, "G"
	DCB	0x0, "e", 0x0, "t", 0x0, "C", 0x0, "p", 0x0, "u", 0x0, "F"
	DCB	0x0, "a", 0x0, "m", 0x0, "i", 0x0, "l", 0x0, "y", 0x0, 0xd
	DCB	0x0, 0xa, 0x0, 0x0, 0x0			; `string'
; Function compile flags: /Odtp

  00458			 AREA	 |.text|, CODE, ARM

  00458		 |OALIoCtlHalGetCpuFamily| PROC

; 219  : {

  00458		 |$LN13@OALIoCtlHa@4|
  00458	e1a0c00d	 mov         r12, sp
  0045c	e92d000f	 stmdb       sp!, {r0 - r3}
  00460	e92d5000	 stmdb       sp!, {r12, lr}
  00464	e24dd014	 sub         sp, sp, #0x14
  00468		 |$M50725|

; 220  :     BOOL  rc = FALSE;

  00468	e3a03000	 mov         r3, #0
  0046c	e58d3000	 str         r3, [sp]

; 221  : 
; 222  :     UNREFERENCED_PARAMETER(pOutSize);
; 223  :     UNREFERENCED_PARAMETER(inpSize);
; 224  :     UNREFERENCED_PARAMETER(pInpBuffer);
; 225  :     UNREFERENCED_PARAMETER(code);
; 226  :     
; 227  :     OALMSG(OAL_IOCTL&&OAL_FUNC, (L"+OALIoCtlHalGetCpuFamily\r\n"));

  00470	e59f30f8	 ldr         r3, [pc, #0xF8]
  00474	e5933440	 ldr         r3, [r3, #0x440]
  00478	e3130a01	 tst         r3, #1, 20
  0047c	0a000008	 beq         |$LN5@OALIoCtlHa@4|
  00480	e59f30e8	 ldr         r3, [pc, #0xE8]
  00484	e5933440	 ldr         r3, [r3, #0x440]
  00488	e3130004	 tst         r3, #4
  0048c	0a000004	 beq         |$LN5@OALIoCtlHa@4|
  00490	e59f00e4	 ldr         r0, [pc, #0xE4]
  00494	eb000000	 bl          NKDbgPrintfW
  00498	e3a03001	 mov         r3, #1
  0049c	e58d3008	 str         r3, [sp, #8]
  004a0	ea000001	 b           |$LN6@OALIoCtlHa@4|
  004a4		 |$LN5@OALIoCtlHa@4|
  004a4	e3a03000	 mov         r3, #0
  004a8	e58d3008	 str         r3, [sp, #8]
  004ac		 |$LN6@OALIoCtlHa@4|

; 228  : 
; 229  :     // Check input parameters
; 230  :     if (
; 231  :         pOutBuffer == NULL || outSize < sizeof(UINT32)
; 232  :     ) {

  004ac	e59d3028	 ldr         r3, [sp, #0x28]
  004b0	e3530000	 cmp         r3, #0
  004b4	0a000002	 beq         |$LN1@OALIoCtlHa@4|
  004b8	e59d302c	 ldr         r3, [sp, #0x2C]
  004bc	e3530004	 cmp         r3, #4
  004c0	2a00000d	 bcs         |$LN2@OALIoCtlHa@4|
  004c4		 |$LN1@OALIoCtlHa@4|

; 233  :         NKSetLastError(ERROR_INVALID_PARAMETER);

  004c4	e3a00057	 mov         r0, #0x57
  004c8	eb000000	 bl          NKSetLastError

; 234  :         OALMSG(OAL_WARN, (
; 235  :             L"WARN: IOCTL_HAL_GET_CPUFAMILY invalid parameters\r\n"
; 236  :         ));

  004cc	e59f309c	 ldr         r3, [pc, #0x9C]
  004d0	e5933440	 ldr         r3, [r3, #0x440]
  004d4	e3130002	 tst         r3, #2
  004d8	0a000004	 beq         |$LN7@OALIoCtlHa@4|
  004dc	e59f0094	 ldr         r0, [pc, #0x94]
  004e0	eb000000	 bl          NKDbgPrintfW
  004e4	e3a03001	 mov         r3, #1
  004e8	e58d300c	 str         r3, [sp, #0xC]
  004ec	ea000001	 b           |$LN8@OALIoCtlHa@4|
  004f0		 |$LN7@OALIoCtlHa@4|
  004f0	e3a03000	 mov         r3, #0
  004f4	e58d300c	 str         r3, [sp, #0xC]
  004f8		 |$LN8@OALIoCtlHa@4|

; 237  :         goto cleanUp;

  004f8	ea000005	 b           |$cleanUp$50314|
  004fc		 |$LN2@OALIoCtlHa@4|

; 238  :     }
; 239  : 
; 240  :     //  Get CPU family
; 241  :     ((DWORD*)pOutBuffer)[0] = g_dwCpuFamily;

  004fc	e59f3070	 ldr         r3, [pc, #0x70]
  00500	e5932000	 ldr         r2, [r3]
  00504	e59d3028	 ldr         r3, [sp, #0x28]
  00508	e5832000	 str         r2, [r3]

; 242  : 
; 243  :     rc = TRUE;

  0050c	e3a03001	 mov         r3, #1
  00510	e58d3000	 str         r3, [sp]
  00514		 |$cleanUp$50314|

; 244  : 
; 245  : cleanUp:
; 246  :     OALMSG(OAL_IOCTL&&OAL_FUNC, (
; 247  :         L"-OALIoCtlHalGetCpuFamily(rc = %d)\r\n", rc
; 248  :     ));

  00514	e59f3054	 ldr         r3, [pc, #0x54]
  00518	e5933440	 ldr         r3, [r3, #0x440]
  0051c	e3130a01	 tst         r3, #1, 20
  00520	0a000009	 beq         |$LN9@OALIoCtlHa@4|
  00524	e59f3044	 ldr         r3, [pc, #0x44]
  00528	e5933440	 ldr         r3, [r3, #0x440]
  0052c	e3130004	 tst         r3, #4
  00530	0a000005	 beq         |$LN9@OALIoCtlHa@4|
  00534	e59d1000	 ldr         r1, [sp]
  00538	e59f002c	 ldr         r0, [pc, #0x2C]
  0053c	eb000000	 bl          NKDbgPrintfW
  00540	e3a03001	 mov         r3, #1
  00544	e58d3010	 str         r3, [sp, #0x10]
  00548	ea000001	 b           |$LN10@OALIoCtlHa@4|
  0054c		 |$LN9@OALIoCtlHa@4|
  0054c	e3a03000	 mov         r3, #0
  00550	e58d3010	 str         r3, [sp, #0x10]
  00554		 |$LN10@OALIoCtlHa@4|

; 249  :     return rc;

  00554	e59d3000	 ldr         r3, [sp]
  00558	e58d3004	 str         r3, [sp, #4]

; 250  : 
; 251  : }

  0055c	e59d0004	 ldr         r0, [sp, #4]
  00560	e28dd014	 add         sp, sp, #0x14
  00564	e89d6000	 ldmia       sp, {sp, lr}
  00568	e12fff1e	 bx          lr
  0056c		 |$LN14@OALIoCtlHa@4|
  0056c		 |$LN15@OALIoCtlHa@4|
  0056c	00000000	 DCD         |??_C@_1EI@BLNOICKL@?$AA?9?$AAO?$AAA?$AAL?$AAI?$AAo?$AAC?$AAt?$AAl?$AAH?$AAa?$AAl?$AAG?$AAe?$AAt?$AAC?$AAp?$AAu?$AAF?$AAa?$AAm?$AAi?$AAl?$AAy?$AA?$CI?$AAr?$AAc?$AA?5?$AA?$DN?$AA?5?$AA?$CF?$AAd@|
  00570		 |$LN16@OALIoCtlHa@4|
  00570	00000000	 DCD         |dpCurSettings|
  00574		 |$LN17@OALIoCtlHa@4|
  00574	00000000	 DCD         |g_dwCpuFamily|
  00578		 |$LN18@OALIoCtlHa@4|
  00578	00000000	 DCD         |??_C@_1GG@PIALBOFK@?$AAW?$AAA?$AAR?$AAN?$AA?3?$AA?5?$AAI?$AAO?$AAC?$AAT?$AAL?$AA_?$AAH?$AAA?$AAL?$AA_?$AAG?$AAE?$AAT?$AA_?$AAC?$AAP?$AAU?$AAF?$AAA?$AAM?$AAI?$AAL?$AAY?$AA?5?$AAi?$AAn@|
  0057c		 |$LN19@OALIoCtlHa@4|
  0057c	00000000	 DCD         |??_C@_1DG@LANGKFOF@?$AA?$CL?$AAO?$AAA?$AAL?$AAI?$AAo?$AAC?$AAt?$AAl?$AAH?$AAa?$AAl?$AAG?$AAe?$AAt?$AAC?$AAp?$AAu?$AAF?$AAa?$AAm?$AAi?$AAl?$AAy?$AA?$AN?$AA?6?$AA?$AA@|
  00580		 |$M50726|

			 ENDP  ; |OALIoCtlHalGetCpuFamily|

	EXPORT	|??_C@_1EM@IBJMOHCM@?$AA?9?$AAO?$AAA?$AAL?$AAI?$AAo?$AAC?$AAt?$AAl?$AAH?$AAa?$AAl?$AAG?$AAe?$AAt?$AAC?$AAp?$AAu?$AAR?$AAe?$AAv?$AAi?$AAs?$AAi?$AAo?$AAn?$AA?$CI?$AAr?$AAc?$AA?5?$AA?$DN?$AA?5@| [ DATA ] ; `string'
	EXPORT	|??_C@_1GK@POJMJFBK@?$AAW?$AAA?$AAR?$AAN?$AA?3?$AA?5?$AAI?$AAO?$AAC?$AAT?$AAL?$AA_?$AAH?$AAA?$AAL?$AA_?$AAG?$AAE?$AAT?$AA_?$AAC?$AAP?$AAU?$AAR?$AAE?$AAV?$AAI?$AAS?$AAI?$AAO?$AAN?$AA?5@| [ DATA ] ; `string'
	EXPORT	|??_C@_1DK@CEHAAOCK@?$AA?$CL?$AAO?$AAA?$AAL?$AAI?$AAo?$AAC?$AAt?$AAl?$AAH?$AAa?$AAl?$AAG?$AAe?$AAt?$AAC?$AAp?$AAu?$AAR?$AAe?$AAv?$AAi?$AAs?$AAi?$AAo?$AAn?$AA?$AN?$AA?6?$AA?$AA@| [ DATA ] ; `string'
	EXPORT	|OALIoCtlHalGetCpuRevision|
	IMPORT	|g_dwCpuRevision|

  00028			 AREA	 |.pdata|, PDATA
|$T50746| DCD	|$LN13@OALIoCtlHa@5|
	DCD	0x40004a04

  00000			 AREA	 |.rdata|, DATA, READONLY
|??_C@_1EM@IBJMOHCM@?$AA?9?$AAO?$AAA?$AAL?$AAI?$AAo?$AAC?$AAt?$AAl?$AAH?$AAa?$AAl?$AAG?$AAe?$AAt?$AAC?$AAp?$AAu?$AAR?$AAe?$AAv?$AAi?$AAs?$AAi?$AAo?$AAn?$AA?$CI?$AAr?$AAc?$AA?5?$AA?$DN?$AA?5@| DCB "-"
	DCB	0x0, "O", 0x0, "A", 0x0, "L", 0x0, "I", 0x0, "o", 0x0, "C"
	DCB	0x0, "t", 0x0, "l", 0x0, "H", 0x0, "a", 0x0, "l", 0x0, "G"
	DCB	0x0, "e", 0x0, "t", 0x0, "C", 0x0, "p", 0x0, "u", 0x0, "R"
	DCB	0x0, "e", 0x0, "v", 0x0, "i", 0x0, "s", 0x0, "i", 0x0, "o"
	DCB	0x0, "n", 0x0, "(", 0x0, "r", 0x0, "c", 0x0, " ", 0x0, "="
	DCB	0x0, " ", 0x0, "%", 0x0, "d", 0x0, ")", 0x0, 0xd, 0x0, 0xa
	DCB	0x0, 0x0, 0x0				; `string'

  00000			 AREA	 |.rdata|, DATA, READONLY
|??_C@_1GK@POJMJFBK@?$AAW?$AAA?$AAR?$AAN?$AA?3?$AA?5?$AAI?$AAO?$AAC?$AAT?$AAL?$AA_?$AAH?$AAA?$AAL?$AA_?$AAG?$AAE?$AAT?$AA_?$AAC?$AAP?$AAU?$AAR?$AAE?$AAV?$AAI?$AAS?$AAI?$AAO?$AAN?$AA?5@| DCB "W"
	DCB	0x0, "A", 0x0, "R", 0x0, "N", 0x0, ":", 0x0, " ", 0x0, "I"
	DCB	0x0, "O", 0x0, "C", 0x0, "T", 0x0, "L", 0x0, "_", 0x0, "H"
	DCB	0x0, "A", 0x0, "L", 0x0, "_", 0x0, "G", 0x0, "E", 0x0, "T"
	DCB	0x0, "_", 0x0, "C", 0x0, "P", 0x0, "U", 0x0, "R", 0x0, "E"
	DCB	0x0, "V", 0x0, "I", 0x0, "S", 0x0, "I", 0x0, "O", 0x0, "N"
	DCB	0x0, " ", 0x0, "i", 0x0, "n", 0x0, "v", 0x0, "a", 0x0, "l"
	DCB	0x0, "i", 0x0, "d", 0x0, " ", 0x0, "p", 0x0, "a", 0x0, "r"
	DCB	0x0, "a", 0x0, "m", 0x0, "e", 0x0, "t", 0x0, "e", 0x0, "r"
	DCB	0x0, "s", 0x0, 0xd, 0x0, 0xa, 0x0, 0x0, 0x0 ; `string'

  00000			 AREA	 |.rdata|, DATA, READONLY
|??_C@_1DK@CEHAAOCK@?$AA?$CL?$AAO?$AAA?$AAL?$AAI?$AAo?$AAC?$AAt?$AAl?$AAH?$AAa?$AAl?$AAG?$AAe?$AAt?$AAC?$AAp?$AAu?$AAR?$AAe?$AAv?$AAi?$AAs?$AAi?$AAo?$AAn?$AA?$AN?$AA?6?$AA?$AA@| DCB "+"
	DCB	0x0, "O", 0x0, "A", 0x0, "L", 0x0, "I", 0x0, "o", 0x0, "C"
	DCB	0x0, "t", 0x0, "l", 0x0, "H", 0x0, "a", 0x0, "l", 0x0, "G"
	DCB	0x0, "e", 0x0, "t", 0x0, "C", 0x0, "p", 0x0, "u", 0x0, "R"
	DCB	0x0, "e", 0x0, "v", 0x0, "i", 0x0, "s", 0x0, "i", 0x0, "o"
	DCB	0x0, "n", 0x0, 0xd, 0x0, 0xa, 0x0, 0x0, 0x0 ; `string'
; Function compile flags: /Odtp

  00580			 AREA	 |.text|, CODE, ARM

  00580		 |OALIoCtlHalGetCpuRevision| PROC

; 260  : {

  00580		 |$LN13@OALIoCtlHa@5|
  00580	e1a0c00d	 mov         r12, sp
  00584	e92d000f	 stmdb       sp!, {r0 - r3}
  00588	e92d5000	 stmdb       sp!, {r12, lr}
  0058c	e24dd014	 sub         sp, sp, #0x14
  00590		 |$M50743|

; 261  :     BOOL  rc = FALSE;

  00590	e3a03000	 mov         r3, #0
  00594	e58d3000	 str         r3, [sp]

; 262  :  
; 263  :     UNREFERENCED_PARAMETER(pOutSize);
; 264  :     UNREFERENCED_PARAMETER(inpSize);
; 265  :     UNREFERENCED_PARAMETER(pInpBuffer);
; 266  :     UNREFERENCED_PARAMETER(code);
; 267  : 
; 268  :     OALMSG(OAL_IOCTL&&OAL_FUNC, (L"+OALIoCtlHalGetCpuRevision\r\n"));

  00598	e59f30f8	 ldr         r3, [pc, #0xF8]
  0059c	e5933440	 ldr         r3, [r3, #0x440]
  005a0	e3130a01	 tst         r3, #1, 20
  005a4	0a000008	 beq         |$LN5@OALIoCtlHa@5|
  005a8	e59f30e8	 ldr         r3, [pc, #0xE8]
  005ac	e5933440	 ldr         r3, [r3, #0x440]
  005b0	e3130004	 tst         r3, #4
  005b4	0a000004	 beq         |$LN5@OALIoCtlHa@5|
  005b8	e59f00e4	 ldr         r0, [pc, #0xE4]
  005bc	eb000000	 bl          NKDbgPrintfW
  005c0	e3a03001	 mov         r3, #1
  005c4	e58d3008	 str         r3, [sp, #8]
  005c8	ea000001	 b           |$LN6@OALIoCtlHa@5|
  005cc		 |$LN5@OALIoCtlHa@5|
  005cc	e3a03000	 mov         r3, #0
  005d0	e58d3008	 str         r3, [sp, #8]
  005d4		 |$LN6@OALIoCtlHa@5|

; 269  : 
; 270  :     // Check input parameters
; 271  :     if (
; 272  :         pOutBuffer == NULL || outSize < sizeof(UINT32)
; 273  :     ) {

  005d4	e59d3028	 ldr         r3, [sp, #0x28]
  005d8	e3530000	 cmp         r3, #0
  005dc	0a000002	 beq         |$LN1@OALIoCtlHa@5|
  005e0	e59d302c	 ldr         r3, [sp, #0x2C]
  005e4	e3530004	 cmp         r3, #4
  005e8	2a00000d	 bcs         |$LN2@OALIoCtlHa@5|
  005ec		 |$LN1@OALIoCtlHa@5|

; 274  :         NKSetLastError(ERROR_INVALID_PARAMETER);

  005ec	e3a00057	 mov         r0, #0x57
  005f0	eb000000	 bl          NKSetLastError

; 275  :         OALMSG(OAL_WARN, (
; 276  :             L"WARN: IOCTL_HAL_GET_CPUREVISION invalid parameters\r\n"
; 277  :         ));

  005f4	e59f309c	 ldr         r3, [pc, #0x9C]
  005f8	e5933440	 ldr         r3, [r3, #0x440]
  005fc	e3130002	 tst         r3, #2
  00600	0a000004	 beq         |$LN7@OALIoCtlHa@5|
  00604	e59f0094	 ldr         r0, [pc, #0x94]
  00608	eb000000	 bl          NKDbgPrintfW
  0060c	e3a03001	 mov         r3, #1
  00610	e58d300c	 str         r3, [sp, #0xC]
  00614	ea000001	 b           |$LN8@OALIoCtlHa@5|
  00618		 |$LN7@OALIoCtlHa@5|
  00618	e3a03000	 mov         r3, #0
  0061c	e58d300c	 str         r3, [sp, #0xC]
  00620		 |$LN8@OALIoCtlHa@5|

; 278  :         goto cleanUp;

  00620	ea000005	 b           |$cleanUp$50340|
  00624		 |$LN2@OALIoCtlHa@5|

; 279  :     }
; 280  : 
; 281  :     //  Get CPU revision
; 282  :     ((DWORD*)pOutBuffer)[0] = g_dwCpuRevision;

  00624	e59f3070	 ldr         r3, [pc, #0x70]
  00628	e5932000	 ldr         r2, [r3]
  0062c	e59d3028	 ldr         r3, [sp, #0x28]
  00630	e5832000	 str         r2, [r3]

; 283  : 
; 284  :     rc = TRUE;

  00634	e3a03001	 mov         r3, #1
  00638	e58d3000	 str         r3, [sp]
  0063c		 |$cleanUp$50340|

; 285  : 
; 286  : cleanUp:
; 287  :     OALMSG(OAL_IOCTL&&OAL_FUNC, (
; 288  :         L"-OALIoCtlHalGetCpuRevision(rc = %d)\r\n", rc
; 289  :     ));

  0063c	e59f3054	 ldr         r3, [pc, #0x54]
  00640	e5933440	 ldr         r3, [r3, #0x440]
  00644	e3130a01	 tst         r3, #1, 20
  00648	0a000009	 beq         |$LN9@OALIoCtlHa@5|
  0064c	e59f3044	 ldr         r3, [pc, #0x44]
  00650	e5933440	 ldr         r3, [r3, #0x440]
  00654	e3130004	 tst         r3, #4
  00658	0a000005	 beq         |$LN9@OALIoCtlHa@5|
  0065c	e59d1000	 ldr         r1, [sp]
  00660	e59f002c	 ldr         r0, [pc, #0x2C]
  00664	eb000000	 bl          NKDbgPrintfW
  00668	e3a03001	 mov         r3, #1
  0066c	e58d3010	 str         r3, [sp, #0x10]
  00670	ea000001	 b           |$LN10@OALIoCtlHa@5|
  00674		 |$LN9@OALIoCtlHa@5|
  00674	e3a03000	 mov         r3, #0
  00678	e58d3010	 str         r3, [sp, #0x10]
  0067c		 |$LN10@OALIoCtlHa@5|

; 290  :     return rc;

  0067c	e59d3000	 ldr         r3, [sp]
  00680	e58d3004	 str         r3, [sp, #4]

; 291  : 
; 292  : }

  00684	e59d0004	 ldr         r0, [sp, #4]
  00688	e28dd014	 add         sp, sp, #0x14
  0068c	e89d6000	 ldmia       sp, {sp, lr}
  00690	e12fff1e	 bx          lr
  00694		 |$LN14@OALIoCtlHa@5|
  00694		 |$LN15@OALIoCtlHa@5|
  00694	00000000	 DCD         |??_C@_1EM@IBJMOHCM@?$AA?9?$AAO?$AAA?$AAL?$AAI?$AAo?$AAC?$AAt?$AAl?$AAH?$AAa?$AAl?$AAG?$AAe?$AAt?$AAC?$AAp?$AAu?$AAR?$AAe?$AAv?$AAi?$AAs?$AAi?$AAo?$AAn?$AA?$CI?$AAr?$AAc?$AA?5?$AA?$DN?$AA?5@|
  00698		 |$LN16@OALIoCtlHa@5|
  00698	00000000	 DCD         |dpCurSettings|
  0069c		 |$LN17@OALIoCtlHa@5|
  0069c	00000000	 DCD         |g_dwCpuRevision|
  006a0		 |$LN18@OALIoCtlHa@5|
  006a0	00000000	 DCD         |??_C@_1GK@POJMJFBK@?$AAW?$AAA?$AAR?$AAN?$AA?3?$AA?5?$AAI?$AAO?$AAC?$AAT?$AAL?$AA_?$AAH?$AAA?$AAL?$AA_?$AAG?$AAE?$AAT?$AA_?$AAC?$AAP?$AAU?$AAR?$AAE?$AAV?$AAI?$AAS?$AAI?$AAO?$AAN?$AA?5@|
  006a4		 |$LN19@OALIoCtlHa@5|
  006a4	00000000	 DCD         |??_C@_1DK@CEHAAOCK@?$AA?$CL?$AAO?$AAA?$AAL?$AAI?$AAo?$AAC?$AAt?$AAl?$AAH?$AAa?$AAl?$AAG?$AAe?$AAt?$AAC?$AAp?$AAu?$AAR?$AAe?$AAv?$AAi?$AAs?$AAi?$AAo?$AAn?$AA?$AN?$AA?6?$AA?$AA@|
  006a8		 |$M50744|

			 ENDP  ; |OALIoCtlHalGetCpuRevision|

	EXPORT	|??_C@_1EG@DJFHOOBK@?$AA?9?$AAO?$AAA?$AAL?$AAI?$AAo?$AAC?$AAt?$AAl?$AAH?$AAa?$AAl?$AAG?$AAe?$AAt?$AAC?$AAp?$AAu?$AAS?$AAp?$AAe?$AAe?$AAd?$AA?$CI?$AAr?$AAc?$AA?5?$AA?$DN?$AA?5?$AA?$CF?$AAd?$AA?$CJ@| [ DATA ] ; `string'
	EXPORT	|??_C@_1GE@NPAKGOIN@?$AAW?$AAA?$AAR?$AAN?$AA?3?$AA?5?$AAI?$AAO?$AAC?$AAT?$AAL?$AA_?$AAH?$AAA?$AAL?$AA_?$AAG?$AAE?$AAT?$AA_?$AAC?$AAP?$AAU?$AAS?$AAP?$AAE?$AAE?$AAD?$AA?5?$AAi?$AAn?$AAv@| [ DATA ] ; `string'
	EXPORT	|??_C@_1DE@NEOPEJPG@?$AA?$CL?$AAO?$AAA?$AAL?$AAI?$AAo?$AAC?$AAt?$AAl?$AAH?$AAa?$AAl?$AAG?$AAe?$AAt?$AAC?$AAp?$AAu?$AAS?$AAp?$AAe?$AAe?$AAd?$AA?$AN?$AA?6?$AA?$AA@| [ DATA ] ; `string'
	EXPORT	|OALIoCtlHalGetCpuSpeed|
	IMPORT	|PrcmClockGetClockRate|

  00030			 AREA	 |.pdata|, PDATA
|$T50764| DCD	|$LN13@OALIoCtlHa@6|
	DCD	0x40004b04

  00000			 AREA	 |.rdata|, DATA, READONLY
|??_C@_1EG@DJFHOOBK@?$AA?9?$AAO?$AAA?$AAL?$AAI?$AAo?$AAC?$AAt?$AAl?$AAH?$AAa?$AAl?$AAG?$AAe?$AAt?$AAC?$AAp?$AAu?$AAS?$AAp?$AAe?$AAe?$AAd?$AA?$CI?$AAr?$AAc?$AA?5?$AA?$DN?$AA?5?$AA?$CF?$AAd?$AA?$CJ@| DCB "-"
	DCB	0x0, "O", 0x0, "A", 0x0, "L", 0x0, "I", 0x0, "o", 0x0, "C"
	DCB	0x0, "t", 0x0, "l", 0x0, "H", 0x0, "a", 0x0, "l", 0x0, "G"
	DCB	0x0, "e", 0x0, "t", 0x0, "C", 0x0, "p", 0x0, "u", 0x0, "S"
	DCB	0x0, "p", 0x0, "e", 0x0, "e", 0x0, "d", 0x0, "(", 0x0, "r"
	DCB	0x0, "c", 0x0, " ", 0x0, "=", 0x0, " ", 0x0, "%", 0x0, "d"
	DCB	0x0, ")", 0x0, 0xd, 0x0, 0xa, 0x0, 0x0, 0x0 ; `string'

  00000			 AREA	 |.rdata|, DATA, READONLY
|??_C@_1GE@NPAKGOIN@?$AAW?$AAA?$AAR?$AAN?$AA?3?$AA?5?$AAI?$AAO?$AAC?$AAT?$AAL?$AA_?$AAH?$AAA?$AAL?$AA_?$AAG?$AAE?$AAT?$AA_?$AAC?$AAP?$AAU?$AAS?$AAP?$AAE?$AAE?$AAD?$AA?5?$AAi?$AAn?$AAv@| DCB "W"
	DCB	0x0, "A", 0x0, "R", 0x0, "N", 0x0, ":", 0x0, " ", 0x0, "I"
	DCB	0x0, "O", 0x0, "C", 0x0, "T", 0x0, "L", 0x0, "_", 0x0, "H"
	DCB	0x0, "A", 0x0, "L", 0x0, "_", 0x0, "G", 0x0, "E", 0x0, "T"
	DCB	0x0, "_", 0x0, "C", 0x0, "P", 0x0, "U", 0x0, "S", 0x0, "P"
	DCB	0x0, "E", 0x0, "E", 0x0, "D", 0x0, " ", 0x0, "i", 0x0, "n"
	DCB	0x0, "v", 0x0, "a", 0x0, "l", 0x0, "i", 0x0, "d", 0x0, " "
	DCB	0x0, "p", 0x0, "a", 0x0, "r", 0x0, "a", 0x0, "m", 0x0, "e"
	DCB	0x0, "t", 0x0, "e", 0x0, "r", 0x0, "s", 0x0, 0xd, 0x0, 0xa
	DCB	0x0, 0x0, 0x0				; `string'

  00000			 AREA	 |.rdata|, DATA, READONLY
|??_C@_1DE@NEOPEJPG@?$AA?$CL?$AAO?$AAA?$AAL?$AAI?$AAo?$AAC?$AAt?$AAl?$AAH?$AAa?$AAl?$AAG?$AAe?$AAt?$AAC?$AAp?$AAu?$AAS?$AAp?$AAe?$AAe?$AAd?$AA?$AN?$AA?6?$AA?$AA@| DCB "+"
	DCB	0x0, "O", 0x0, "A", 0x0, "L", 0x0, "I", 0x0, "o", 0x0, "C"
	DCB	0x0, "t", 0x0, "l", 0x0, "H", 0x0, "a", 0x0, "l", 0x0, "G"
	DCB	0x0, "e", 0x0, "t", 0x0, "C", 0x0, "p", 0x0, "u", 0x0, "S"
	DCB	0x0, "p", 0x0, "e", 0x0, "e", 0x0, "d", 0x0, 0xd, 0x0, 0xa
	DCB	0x0, 0x0, 0x0				; `string'
; Function compile flags: /Odtp

  006a8			 AREA	 |.text|, CODE, ARM

  006a8		 |OALIoCtlHalGetCpuSpeed| PROC

; 301  : {

  006a8		 |$LN13@OALIoCtlHa@6|
  006a8	e1a0c00d	 mov         r12, sp
  006ac	e92d000f	 stmdb       sp!, {r0 - r3}
  006b0	e92d5000	 stmdb       sp!, {r12, lr}
  006b4	e24dd018	 sub         sp, sp, #0x18
  006b8		 |$M50761|

; 302  :     BOOL  rc = FALSE;

  006b8	e3a03000	 mov         r3, #0
  006bc	e58d3000	 str         r3, [sp]

; 303  : 
; 304  :     UNREFERENCED_PARAMETER(pOutSize);
; 305  :     UNREFERENCED_PARAMETER(inpSize);
; 306  :     UNREFERENCED_PARAMETER(pInpBuffer);
; 307  :     UNREFERENCED_PARAMETER(code);
; 308  :     
; 309  :     DEBUGMSG(OAL_IOCTL&&OAL_FUNC, (L"+OALIoCtlHalGetCpuSpeed\r\n"));

  006c0	e59f3100	 ldr         r3, [pc, #0x100]
  006c4	e5933440	 ldr         r3, [r3, #0x440]
  006c8	e3130a01	 tst         r3, #1, 20
  006cc	0a000008	 beq         |$LN5@OALIoCtlHa@6|
  006d0	e59f30f0	 ldr         r3, [pc, #0xF0]
  006d4	e5933440	 ldr         r3, [r3, #0x440]
  006d8	e3130004	 tst         r3, #4
  006dc	0a000004	 beq         |$LN5@OALIoCtlHa@6|
  006e0	e59f00e8	 ldr         r0, [pc, #0xE8]
  006e4	eb000000	 bl          NKDbgPrintfW
  006e8	e3a03001	 mov         r3, #1
  006ec	e58d3008	 str         r3, [sp, #8]
  006f0	ea000001	 b           |$LN6@OALIoCtlHa@6|
  006f4		 |$LN5@OALIoCtlHa@6|
  006f4	e3a03000	 mov         r3, #0
  006f8	e58d3008	 str         r3, [sp, #8]
  006fc		 |$LN6@OALIoCtlHa@6|

; 310  : 
; 311  :     // Check input parameters
; 312  :     if (
; 313  :         pOutBuffer == NULL || outSize < sizeof(UINT32)
; 314  :     ) {

  006fc	e59d302c	 ldr         r3, [sp, #0x2C]
  00700	e3530000	 cmp         r3, #0
  00704	0a000002	 beq         |$LN1@OALIoCtlHa@6|
  00708	e59d3030	 ldr         r3, [sp, #0x30]
  0070c	e3530004	 cmp         r3, #4
  00710	2a00000d	 bcs         |$LN2@OALIoCtlHa@6|
  00714		 |$LN1@OALIoCtlHa@6|

; 315  :         NKSetLastError(ERROR_INVALID_PARAMETER);

  00714	e3a00057	 mov         r0, #0x57
  00718	eb000000	 bl          NKSetLastError

; 316  :         OALMSG(OAL_WARN, (
; 317  :             L"WARN: IOCTL_HAL_GET_CPUSPEED invalid parameters\r\n"
; 318  :         ));

  0071c	e59f30a4	 ldr         r3, [pc, #0xA4]
  00720	e5933440	 ldr         r3, [r3, #0x440]
  00724	e3130002	 tst         r3, #2
  00728	0a000004	 beq         |$LN7@OALIoCtlHa@6|
  0072c	e59f0098	 ldr         r0, [pc, #0x98]
  00730	eb000000	 bl          NKDbgPrintfW
  00734	e3a03001	 mov         r3, #1
  00738	e58d300c	 str         r3, [sp, #0xC]
  0073c	ea000001	 b           |$LN8@OALIoCtlHa@6|
  00740		 |$LN7@OALIoCtlHa@6|
  00740	e3a03000	 mov         r3, #0
  00744	e58d300c	 str         r3, [sp, #0xC]
  00748		 |$LN8@OALIoCtlHa@6|

; 319  :         goto cleanUp;

  00748	ea000007	 b           |$cleanUp$50366|
  0074c		 |$LN2@OALIoCtlHa@6|

; 320  :     }
; 321  : 
; 322  :     //  Get CPU speed
; 323  :     ((DWORD*)pOutBuffer)[0] = PrcmClockGetClockRate(MPU_CLK);

  0074c	e3a00001	 mov         r0, #1
  00750	eb000000	 bl          PrcmClockGetClockRate
  00754	e58d0010	 str         r0, [sp, #0x10]
  00758	e59d2010	 ldr         r2, [sp, #0x10]
  0075c	e59d302c	 ldr         r3, [sp, #0x2C]
  00760	e5832000	 str         r2, [r3]

; 324  : 
; 325  :     rc = TRUE;

  00764	e3a03001	 mov         r3, #1
  00768	e58d3000	 str         r3, [sp]
  0076c		 |$cleanUp$50366|

; 326  : 
; 327  : cleanUp:
; 328  :     DEBUGMSG(OAL_IOCTL&&OAL_FUNC, (
; 329  :         L"-OALIoCtlHalGetCpuSpeed(rc = %d)\r\n", rc
; 330  :     ));

  0076c	e59f3054	 ldr         r3, [pc, #0x54]
  00770	e5933440	 ldr         r3, [r3, #0x440]
  00774	e3130a01	 tst         r3, #1, 20
  00778	0a000009	 beq         |$LN9@OALIoCtlHa@6|
  0077c	e59f3044	 ldr         r3, [pc, #0x44]
  00780	e5933440	 ldr         r3, [r3, #0x440]
  00784	e3130004	 tst         r3, #4
  00788	0a000005	 beq         |$LN9@OALIoCtlHa@6|
  0078c	e59d1000	 ldr         r1, [sp]
  00790	e59f002c	 ldr         r0, [pc, #0x2C]
  00794	eb000000	 bl          NKDbgPrintfW
  00798	e3a03001	 mov         r3, #1
  0079c	e58d3014	 str         r3, [sp, #0x14]
  007a0	ea000001	 b           |$LN10@OALIoCtlHa@6|
  007a4		 |$LN9@OALIoCtlHa@6|
  007a4	e3a03000	 mov         r3, #0
  007a8	e58d3014	 str         r3, [sp, #0x14]
  007ac		 |$LN10@OALIoCtlHa@6|

; 331  :     return rc;

  007ac	e59d3000	 ldr         r3, [sp]
  007b0	e58d3004	 str         r3, [sp, #4]

; 332  : 
; 333  : }

  007b4	e59d0004	 ldr         r0, [sp, #4]
  007b8	e28dd018	 add         sp, sp, #0x18
  007bc	e89d6000	 ldmia       sp, {sp, lr}
  007c0	e12fff1e	 bx          lr
  007c4		 |$LN14@OALIoCtlHa@6|
  007c4		 |$LN15@OALIoCtlHa@6|
  007c4	00000000	 DCD         |??_C@_1EG@DJFHOOBK@?$AA?9?$AAO?$AAA?$AAL?$AAI?$AAo?$AAC?$AAt?$AAl?$AAH?$AAa?$AAl?$AAG?$AAe?$AAt?$AAC?$AAp?$AAu?$AAS?$AAp?$AAe?$AAe?$AAd?$AA?$CI?$AAr?$AAc?$AA?5?$AA?$DN?$AA?5?$AA?$CF?$AAd?$AA?$CJ@|
  007c8		 |$LN16@OALIoCtlHa@6|
  007c8	00000000	 DCD         |dpCurSettings|
  007cc		 |$LN17@OALIoCtlHa@6|
  007cc	00000000	 DCD         |??_C@_1GE@NPAKGOIN@?$AAW?$AAA?$AAR?$AAN?$AA?3?$AA?5?$AAI?$AAO?$AAC?$AAT?$AAL?$AA_?$AAH?$AAA?$AAL?$AA_?$AAG?$AAE?$AAT?$AA_?$AAC?$AAP?$AAU?$AAS?$AAP?$AAE?$AAE?$AAD?$AA?5?$AAi?$AAn?$AAv@|
  007d0		 |$LN18@OALIoCtlHa@6|
  007d0	00000000	 DCD         |??_C@_1DE@NEOPEJPG@?$AA?$CL?$AAO?$AAA?$AAL?$AAI?$AAo?$AAC?$AAt?$AAl?$AAH?$AAa?$AAl?$AAG?$AAe?$AAt?$AAC?$AAp?$AAu?$AAS?$AAp?$AAe?$AAe?$AAd?$AA?$AN?$AA?6?$AA?$AA@|
  007d4		 |$M50762|

			 ENDP  ; |OALIoCtlHalGetCpuSpeed|

	EXPORT	|OALIoCtlHalI2CMode|

  00038			 AREA	 |.pdata|, PDATA
|$T50775| DCD	|$LN5@OALIoCtlHa@7|
	DCD	0x40000c04
; Function compile flags: /Odtp

  007d4			 AREA	 |.text|, CODE, ARM

  007d4		 |OALIoCtlHalI2CMode| PROC

; 351  : {

  007d4		 |$LN5@OALIoCtlHa@7|
  007d4	e1a0c00d	 mov         r12, sp
  007d8	e92d000f	 stmdb       sp!, {r0 - r3}
  007dc	e92d5000	 stmdb       sp!, {r12, lr}
  007e0	e24dd008	 sub         sp, sp, #8
  007e4		 |$M50772|

; 352  :     BOOL  rc = FALSE;

  007e4	e3a03000	 mov         r3, #0
  007e8	e58d3000	 str         r3, [sp]

; 353  :     UNREFERENCED_PARAMETER(inpSize);
; 354  :     UNREFERENCED_PARAMETER(pInpBuffer);
; 355  :     UNREFERENCED_PARAMETER(code);
; 356  :     UNREFERENCED_PARAMETER(pOutSize);
; 357  :     UNREFERENCED_PARAMETER(outSize);
; 358  :     UNREFERENCED_PARAMETER(pOutBuffer);
; 359  : 
; 360  :     return rc;

  007ec	e59d3000	 ldr         r3, [sp]
  007f0	e58d3004	 str         r3, [sp, #4]

; 361  : }

  007f4	e59d0004	 ldr         r0, [sp, #4]
  007f8	e28dd008	 add         sp, sp, #8
  007fc	e89d6000	 ldmia       sp, {sp, lr}
  00800	e12fff1e	 bx          lr
  00804		 |$M50773|

			 ENDP  ; |OALIoCtlHalI2CMode|

	EXPORT	|??_C@_1EM@GCDJKLDG@?$AA?9?$AAO?$AAA?$AAL?$AAI?$AAo?$AAC?$AAt?$AAl?$AAH?$AAa?$AAl?$AAI?$AA2?$AAC?$AAC?$AAo?$AAp?$AAy?$AAF?$AAn?$AAT?$AAa?$AAb?$AAl?$AAe?$AA?$CI?$AAr?$AAc?$AA?5?$AA?$DN?$AA?5@| [ DATA ] ; `string'
	EXPORT	|??_C@_1DK@HHILBGF@?$AA?$CL?$AAO?$AAA?$AAL?$AAI?$AAo?$AAC?$AAt?$AAl?$AAH?$AAa?$AAl?$AAI?$AA2?$AAC?$AAC?$AAo?$AAp?$AAy?$AAF?$AAn?$AAT?$AAa?$AAb?$AAl?$AAe?$AA?$AN?$AA?6?$AA?$AA@| [ DATA ] ; `string'
	EXPORT	|OALIoCtlHalI2CCopyFnTable|
	IMPORT	|I2CDriveSDA|
	IMPORT	|I2CDriveSCL|
	IMPORT	|I2CSetManualDriveMode|
	IMPORT	|I2CSetTimeout|
	IMPORT	|I2CSetBaudIndex|
	IMPORT	|I2CSetSubAddressMode|
	IMPORT	|I2CSetSlaveAddress|
	IMPORT	|I2CRead|
	IMPORT	|I2CWrite|
	IMPORT	|I2CClose|
	IMPORT	|I2COpen|
	IMPORT	|I2CUnlock|
	IMPORT	|I2CLock|

  00040			 AREA	 |.pdata|, PDATA
|$T50785| DCD	|$LN12@OALIoCtlHa@8|
	DCD	0x40007f04

  00000			 AREA	 |.rdata|, DATA, READONLY
|??_C@_1EM@GCDJKLDG@?$AA?9?$AAO?$AAA?$AAL?$AAI?$AAo?$AAC?$AAt?$AAl?$AAH?$AAa?$AAl?$AAI?$AA2?$AAC?$AAC?$AAo?$AAp?$AAy?$AAF?$AAn?$AAT?$AAa?$AAb?$AAl?$AAe?$AA?$CI?$AAr?$AAc?$AA?5?$AA?$DN?$AA?5@| DCB "-"
	DCB	0x0, "O", 0x0, "A", 0x0, "L", 0x0, "I", 0x0, "o", 0x0, "C"
	DCB	0x0, "t", 0x0, "l", 0x0, "H", 0x0, "a", 0x0, "l", 0x0, "I"
	DCB	0x0, "2", 0x0, "C", 0x0, "C", 0x0, "o", 0x0, "p", 0x0, "y"
	DCB	0x0, "F", 0x0, "n", 0x0, "T", 0x0, "a", 0x0, "b", 0x0, "l"
	DCB	0x0, "e", 0x0, "(", 0x0, "r", 0x0, "c", 0x0, " ", 0x0, "="
	DCB	0x0, " ", 0x0, "%", 0x0, "d", 0x0, ")", 0x0, 0xd, 0x0, 0xa
	DCB	0x0, 0x0, 0x0				; `string'

  00000			 AREA	 |.rdata|, DATA, READONLY
|??_C@_1DK@HHILBGF@?$AA?$CL?$AAO?$AAA?$AAL?$AAI?$AAo?$AAC?$AAt?$AAl?$AAH?$AAa?$AAl?$AAI?$AA2?$AAC?$AAC?$AAo?$AAp?$AAy?$AAF?$AAn?$AAT?$AAa?$AAb?$AAl?$AAe?$AA?$AN?$AA?6?$AA?$AA@| DCB "+"
	DCB	0x0, "O", 0x0, "A", 0x0, "L", 0x0, "I", 0x0, "o", 0x0, "C"
	DCB	0x0, "t", 0x0, "l", 0x0, "H", 0x0, "a", 0x0, "l", 0x0, "I"
	DCB	0x0, "2", 0x0, "C", 0x0, "C", 0x0, "o", 0x0, "p", 0x0, "y"
	DCB	0x0, "F", 0x0, "n", 0x0, "T", 0x0, "a", 0x0, "b", 0x0, "l"
	DCB	0x0, "e", 0x0, 0xd, 0x0, 0xa, 0x0, 0x0, 0x0 ; `string'
; Function compile flags: /Odtp

  00804			 AREA	 |.text|, CODE, ARM

  00804		 |OALIoCtlHalI2CCopyFnTable| PROC

; 378  : {

  00804		 |$LN12@OALIoCtlHa@8|
  00804	e1a0c00d	 mov         r12, sp
  00808	e92d000f	 stmdb       sp!, {r0 - r3}
  0080c	e92d5000	 stmdb       sp!, {r12, lr}
  00810	e24dd014	 sub         sp, sp, #0x14
  00814		 |$M50782|

; 379  :     BOOL rc = FALSE;

  00814	e3a03000	 mov         r3, #0
  00818	e58d3000	 str         r3, [sp]

; 380  :     OAL_IFC_I2C *pIn;
; 381  : 
; 382  :     OALMSG(OAL_IOCTL&&OAL_FUNC, (L"+OALIoCtlHalI2CCopyFnTable\r\n"));

  0081c	e59f31a0	 ldr         r3, [pc, #0x1A0]
  00820	e5933440	 ldr         r3, [r3, #0x440]
  00824	e3130a01	 tst         r3, #1, 20
  00828	0a000008	 beq         |$LN6@OALIoCtlHa@8|
  0082c	e59f3190	 ldr         r3, [pc, #0x190]
  00830	e5933440	 ldr         r3, [r3, #0x440]
  00834	e3130004	 tst         r3, #4
  00838	0a000004	 beq         |$LN6@OALIoCtlHa@8|
  0083c	e59f01b8	 ldr         r0, [pc, #0x1B8]
  00840	eb000000	 bl          NKDbgPrintfW
  00844	e3a03001	 mov         r3, #1
  00848	e58d300c	 str         r3, [sp, #0xC]
  0084c	ea000001	 b           |$LN7@OALIoCtlHa@8|
  00850		 |$LN6@OALIoCtlHa@8|
  00850	e3a03000	 mov         r3, #0
  00854	e58d300c	 str         r3, [sp, #0xC]
  00858		 |$LN7@OALIoCtlHa@8|

; 383  :     UNREFERENCED_PARAMETER(outSize);
; 384  :     UNREFERENCED_PARAMETER(pOutBuffer);
; 385  :     UNREFERENCED_PARAMETER(code);
; 386  :     if (pInBuffer == NULL || inSize != sizeof(OAL_IFC_I2C))

  00858	e59d3020	 ldr         r3, [sp, #0x20]
  0085c	e3530000	 cmp         r3, #0
  00860	0a000002	 beq         |$LN2@OALIoCtlHa@8|
  00864	e59d3024	 ldr         r3, [sp, #0x24]
  00868	e3530034	 cmp         r3, #0x34
  0086c	0a000000	 beq         |$LN3@OALIoCtlHa@8|
  00870		 |$LN2@OALIoCtlHa@8|

; 387  :     {
; 388  :         goto cleanUp;

  00870	ea00003c	 b           |$cleanUp$50405|
  00874		 |$LN3@OALIoCtlHa@8|

; 389  :     }
; 390  : 
; 391  :     // update info and call appropriate routine
; 392  :     //
; 393  :     if (pOutSize != NULL) *pOutSize = sizeof(OAL_IFC_I2C);

  00874	e59d3030	 ldr         r3, [sp, #0x30]
  00878	e3530000	 cmp         r3, #0
  0087c	0a000002	 beq         |$LN1@OALIoCtlHa@8|
  00880	e59d2030	 ldr         r2, [sp, #0x30]
  00884	e3a03034	 mov         r3, #0x34
  00888	e5823000	 str         r3, [r2]
  0088c		 |$LN1@OALIoCtlHa@8|

; 394  :     pIn = (OAL_IFC_I2C*)pInBuffer;

  0088c	e59d3020	 ldr         r3, [sp, #0x20]
  00890	e58d3004	 str         r3, [sp, #4]

; 395  : 
; 396  :     pIn->fnI2CLock      = I2CLock;

  00894	e59f215c	 ldr         r2, [pc, #0x15C]
  00898	e59d3004	 ldr         r3, [sp, #4]
  0089c	e5832000	 str         r2, [r3]

; 397  :     pIn->fnI2CUnlock    = I2CUnlock;

  008a0	e59d3004	 ldr         r3, [sp, #4]
  008a4	e2832004	 add         r2, r3, #4
  008a8	e59f3144	 ldr         r3, [pc, #0x144]
  008ac	e5823000	 str         r3, [r2]

; 398  :     pIn->fnI2COpen      = I2COpen;

  008b0	e59d3004	 ldr         r3, [sp, #4]
  008b4	e2832008	 add         r2, r3, #8
  008b8	e59f3130	 ldr         r3, [pc, #0x130]
  008bc	e5823000	 str         r3, [r2]

; 399  :     pIn->fnI2CClose     = I2CClose;

  008c0	e59d3004	 ldr         r3, [sp, #4]
  008c4	e283200c	 add         r2, r3, #0xC
  008c8	e59f311c	 ldr         r3, [pc, #0x11C]
  008cc	e5823000	 str         r3, [r2]

; 400  :     pIn->fnI2CWrite     = I2CWrite;

  008d0	e59d3004	 ldr         r3, [sp, #4]
  008d4	e2832010	 add         r2, r3, #0x10
  008d8	e59f3108	 ldr         r3, [pc, #0x108]
  008dc	e5823000	 str         r3, [r2]

; 401  :     pIn->fnI2CRead      = I2CRead;

  008e0	e59d3004	 ldr         r3, [sp, #4]
  008e4	e2832014	 add         r2, r3, #0x14
  008e8	e59f30f4	 ldr         r3, [pc, #0xF4]
  008ec	e5823000	 str         r3, [r2]

; 402  :     pIn->fnI2CSetSlaveAddress    = I2CSetSlaveAddress;

  008f0	e59d3004	 ldr         r3, [sp, #4]
  008f4	e2832018	 add         r2, r3, #0x18
  008f8	e59f30e0	 ldr         r3, [pc, #0xE0]
  008fc	e5823000	 str         r3, [r2]

; 403  :     pIn->fnI2CSetSubAddressMode  = I2CSetSubAddressMode;

  00900	e59d3004	 ldr         r3, [sp, #4]
  00904	e283201c	 add         r2, r3, #0x1C
  00908	e59f30cc	 ldr         r3, [pc, #0xCC]
  0090c	e5823000	 str         r3, [r2]

; 404  :     pIn->fnI2CSetBaudIndex       = I2CSetBaudIndex;

  00910	e59d3004	 ldr         r3, [sp, #4]
  00914	e2832020	 add         r2, r3, #0x20
  00918	e59f30b8	 ldr         r3, [pc, #0xB8]
  0091c	e5823000	 str         r3, [r2]

; 405  :     pIn->fnI2CSetTimeout         = I2CSetTimeout;

  00920	e59d3004	 ldr         r3, [sp, #4]
  00924	e2832024	 add         r2, r3, #0x24
  00928	e59f30a4	 ldr         r3, [pc, #0xA4]
  0092c	e5823000	 str         r3, [r2]

; 406  :     pIn->fnSetManualDriveMode    = I2CSetManualDriveMode;

  00930	e59d3004	 ldr         r3, [sp, #4]
  00934	e2832028	 add         r2, r3, #0x28
  00938	e59f3090	 ldr         r3, [pc, #0x90]
  0093c	e5823000	 str         r3, [r2]

; 407  :     pIn->fnDriveSCL              = I2CDriveSCL;

  00940	e59d3004	 ldr         r3, [sp, #4]
  00944	e283202c	 add         r2, r3, #0x2C
  00948	e59f307c	 ldr         r3, [pc, #0x7C]
  0094c	e5823000	 str         r3, [r2]

; 408  :     pIn->fnDriveSDA              = I2CDriveSDA;

  00950	e59d3004	 ldr         r3, [sp, #4]
  00954	e2832030	 add         r2, r3, #0x30
  00958	e59f3068	 ldr         r3, [pc, #0x68]
  0095c	e5823000	 str         r3, [r2]

; 409  : 
; 410  :     rc = TRUE;

  00960	e3a03001	 mov         r3, #1
  00964	e58d3000	 str         r3, [sp]
  00968		 |$cleanUp$50405|

; 411  :     
; 412  : cleanUp:
; 413  :     OALMSG(OAL_INTR&&OAL_FUNC, (L"-OALIoCtlHalI2CCopyFnTable(rc = %d)\r\n", rc));

  00968	e59f3054	 ldr         r3, [pc, #0x54]
  0096c	e5933440	 ldr         r3, [r3, #0x440]
  00970	e3130901	 tst         r3, #1, 18
  00974	0a000009	 beq         |$LN8@OALIoCtlHa@8|
  00978	e59f3044	 ldr         r3, [pc, #0x44]
  0097c	e5933440	 ldr         r3, [r3, #0x440]
  00980	e3130004	 tst         r3, #4
  00984	0a000005	 beq         |$LN8@OALIoCtlHa@8|
  00988	e59d1000	 ldr         r1, [sp]
  0098c	e59f002c	 ldr         r0, [pc, #0x2C]
  00990	eb000000	 bl          NKDbgPrintfW
  00994	e3a03001	 mov         r3, #1
  00998	e58d3010	 str         r3, [sp, #0x10]
  0099c	ea000001	 b           |$LN9@OALIoCtlHa@8|
  009a0		 |$LN8@OALIoCtlHa@8|
  009a0	e3a03000	 mov         r3, #0
  009a4	e58d3010	 str         r3, [sp, #0x10]
  009a8		 |$LN9@OALIoCtlHa@8|

; 414  :     return rc;

  009a8	e59d3000	 ldr         r3, [sp]
  009ac	e58d3008	 str         r3, [sp, #8]

; 415  : }

  009b0	e59d0008	 ldr         r0, [sp, #8]
  009b4	e28dd014	 add         sp, sp, #0x14
  009b8	e89d6000	 ldmia       sp, {sp, lr}
  009bc	e12fff1e	 bx          lr
  009c0		 |$LN13@OALIoCtlHa@8|
  009c0		 |$LN14@OALIoCtlHa@8|
  009c0	00000000	 DCD         |??_C@_1EM@GCDJKLDG@?$AA?9?$AAO?$AAA?$AAL?$AAI?$AAo?$AAC?$AAt?$AAl?$AAH?$AAa?$AAl?$AAI?$AA2?$AAC?$AAC?$AAo?$AAp?$AAy?$AAF?$AAn?$AAT?$AAa?$AAb?$AAl?$AAe?$AA?$CI?$AAr?$AAc?$AA?5?$AA?$DN?$AA?5@|
  009c4		 |$LN15@OALIoCtlHa@8|
  009c4	00000000	 DCD         |dpCurSettings|
  009c8		 |$LN16@OALIoCtlHa@8|
  009c8	00000000	 DCD         |I2CDriveSDA|
  009cc		 |$LN17@OALIoCtlHa@8|
  009cc	00000000	 DCD         |I2CDriveSCL|
  009d0		 |$LN18@OALIoCtlHa@8|
  009d0	00000000	 DCD         |I2CSetManualDriveMode|
  009d4		 |$LN19@OALIoCtlHa@8|
  009d4	00000000	 DCD         |I2CSetTimeout|
  009d8		 |$LN20@OALIoCtlHa@8|
  009d8	00000000	 DCD         |I2CSetBaudIndex|
  009dc		 |$LN21@OALIoCtlHa@8|
  009dc	00000000	 DCD         |I2CSetSubAddressMode|
  009e0		 |$LN22@OALIoCtlHa@8|
  009e0	00000000	 DCD         |I2CSetSlaveAddress|
  009e4		 |$LN23@OALIoCtlHa@8|
  009e4	00000000	 DCD         |I2CRead|
  009e8		 |$LN24@OALIoCtlHa@8|
  009e8	00000000	 DCD         |I2CWrite|
  009ec		 |$LN25@OALIoCtlHa@8|
  009ec	00000000	 DCD         |I2CClose|
  009f0		 |$LN26@OALIoCtlHa@8|
  009f0	00000000	 DCD         |I2COpen|
  009f4		 |$LN27@OALIoCtlHa@8|
  009f4	00000000	 DCD         |I2CUnlock|
  009f8		 |$LN28@OALIoCtlHa@8|
  009f8	00000000	 DCD         |I2CLock|
  009fc		 |$LN29@OALIoCtlHa@8|
  009fc	00000000	 DCD         |??_C@_1DK@HHILBGF@?$AA?$CL?$AAO?$AAA?$AAL?$AAI?$AAo?$AAC?$AAt?$AAl?$AAH?$AAa?$AAl?$AAI?$AA2?$AAC?$AAC?$AAo?$AAp?$AAy?$AAF?$AAn?$AAT?$AAa?$AAb?$AAl?$AAe?$AA?$AN?$AA?6?$AA?$AA@|
  00a00		 |$M50783|

			 ENDP  ; |OALIoCtlHalI2CCopyFnTable|

	EXPORT	|OALIoCtlIgnore|

  00048			 AREA	 |.pdata|, PDATA
|$T50808| DCD	|$LN5@OALIoCtlIg|
	DCD	0x40000c04
; Function compile flags: /Odtp

  00a00			 AREA	 |.text|, CODE, ARM

  00a00		 |OALIoCtlIgnore| PROC

; 423  : {

  00a00		 |$LN5@OALIoCtlIg|
  00a00	e1a0c00d	 mov         r12, sp
  00a04	e92d000f	 stmdb       sp!, {r0 - r3}
  00a08	e92d5000	 stmdb       sp!, {r12, lr}
  00a0c	e24dd008	 sub         sp, sp, #8
  00a10		 |$M50805|

; 424  :     BOOL  rc = FALSE;

  00a10	e3a03000	 mov         r3, #0
  00a14	e58d3000	 str         r3, [sp]

; 425  :     UNREFERENCED_PARAMETER(inpSize);
; 426  :     UNREFERENCED_PARAMETER(pInpBuffer);
; 427  :     UNREFERENCED_PARAMETER(code);
; 428  :     UNREFERENCED_PARAMETER(pOutSize);
; 429  :     UNREFERENCED_PARAMETER(outSize);
; 430  :     UNREFERENCED_PARAMETER(pOutBuffer);
; 431  : 
; 432  :     return rc;

  00a18	e59d3000	 ldr         r3, [sp]
  00a1c	e58d3004	 str         r3, [sp, #4]

; 433  : }

  00a20	e59d0004	 ldr         r0, [sp, #4]
  00a24	e28dd008	 add         sp, sp, #8
  00a28	e89d6000	 ldmia       sp, {sp, lr}
  00a2c	e12fff1e	 bx          lr
  00a30		 |$M50806|

			 ENDP  ; |OALIoCtlIgnore|

	EXPORT	|??_C@_1FC@FCGPKNOO@?$AA?9?$AAO?$AAA?$AAL?$AAI?$AAo?$AAC?$AAt?$AAl?$AAH?$AAa?$AAl?$AAP?$AAa?$AAd?$AAC?$AAf?$AAg?$AAC?$AAo?$AAp?$AAy?$AAF?$AAn?$AAT?$AAa?$AAb?$AAl?$AAe?$AA?$CI?$AAr?$AAc@| [ DATA ] ; `string'
	EXPORT	|??_C@_1EA@OGPBEJDC@?$AA?$CL?$AAO?$AAA?$AAL?$AAI?$AAo?$AAC?$AAt?$AAl?$AAH?$AAa?$AAl?$AAP?$AAa?$AAd?$AAC?$AAf?$AAg?$AAC?$AAo?$AAp?$AAy?$AAF?$AAn?$AAT?$AAa?$AAb?$AAl?$AAe?$AA?$AN?$AA?6?$AA?$AA@| [ DATA ] ; `string'
	EXPORT	|OALIoCtlHalPadCfgCopyFnTable|
	IMPORT	|ReleaseDevicePads|
	IMPORT	|RequestDevicePads|
	IMPORT	|ReleasePadArray|
	IMPORT	|RequestAndConfigurePadArray|
	IMPORT	|RequestAndConfigurePad|
	IMPORT	|GetPadConfiguration|
	IMPORT	|ConfigurePad|
	IMPORT	|ReleasePad|
	IMPORT	|RequestPad|

  00050			 AREA	 |.pdata|, PDATA
|$T50818| DCD	|$LN12@OALIoCtlHa@9|
	DCD	0x40006b04

  00000			 AREA	 |.rdata|, DATA, READONLY
|??_C@_1FC@FCGPKNOO@?$AA?9?$AAO?$AAA?$AAL?$AAI?$AAo?$AAC?$AAt?$AAl?$AAH?$AAa?$AAl?$AAP?$AAa?$AAd?$AAC?$AAf?$AAg?$AAC?$AAo?$AAp?$AAy?$AAF?$AAn?$AAT?$AAa?$AAb?$AAl?$AAe?$AA?$CI?$AAr?$AAc@| DCB "-"
	DCB	0x0, "O", 0x0, "A", 0x0, "L", 0x0, "I", 0x0, "o", 0x0, "C"
	DCB	0x0, "t", 0x0, "l", 0x0, "H", 0x0, "a", 0x0, "l", 0x0, "P"
	DCB	0x0, "a", 0x0, "d", 0x0, "C", 0x0, "f", 0x0, "g", 0x0, "C"
	DCB	0x0, "o", 0x0, "p", 0x0, "y", 0x0, "F", 0x0, "n", 0x0, "T"
	DCB	0x0, "a", 0x0, "b", 0x0, "l", 0x0, "e", 0x0, "(", 0x0, "r"
	DCB	0x0, "c", 0x0, " ", 0x0, "=", 0x0, " ", 0x0, "%", 0x0, "d"
	DCB	0x0, ")", 0x0, 0xd, 0x0, 0xa, 0x0, 0x0, 0x0 ; `string'

  00000			 AREA	 |.rdata|, DATA, READONLY
|??_C@_1EA@OGPBEJDC@?$AA?$CL?$AAO?$AAA?$AAL?$AAI?$AAo?$AAC?$AAt?$AAl?$AAH?$AAa?$AAl?$AAP?$AAa?$AAd?$AAC?$AAf?$AAg?$AAC?$AAo?$AAp?$AAy?$AAF?$AAn?$AAT?$AAa?$AAb?$AAl?$AAe?$AA?$AN?$AA?6?$AA?$AA@| DCB "+"
	DCB	0x0, "O", 0x0, "A", 0x0, "L", 0x0, "I", 0x0, "o", 0x0, "C"
	DCB	0x0, "t", 0x0, "l", 0x0, "H", 0x0, "a", 0x0, "l", 0x0, "P"
	DCB	0x0, "a", 0x0, "d", 0x0, "C", 0x0, "f", 0x0, "g", 0x0, "C"
	DCB	0x0, "o", 0x0, "p", 0x0, "y", 0x0, "F", 0x0, "n", 0x0, "T"
	DCB	0x0, "a", 0x0, "b", 0x0, "l", 0x0, "e", 0x0, 0xd, 0x0, 0xa
	DCB	0x0, 0x0, 0x0				; `string'
; Function compile flags: /Odtp

  00a30			 AREA	 |.text|, CODE, ARM

  00a30		 |OALIoCtlHalPadCfgCopyFnTable| PROC

; 452  : {

  00a30		 |$LN12@OALIoCtlHa@9|
  00a30	e1a0c00d	 mov         r12, sp
  00a34	e92d000f	 stmdb       sp!, {r0 - r3}
  00a38	e92d5000	 stmdb       sp!, {r12, lr}
  00a3c	e24dd014	 sub         sp, sp, #0x14
  00a40		 |$M50815|

; 453  :     BOOL rc = FALSE;

  00a40	e3a03000	 mov         r3, #0
  00a44	e58d3000	 str         r3, [sp]

; 454  :     OAL_IFC_PADCFG *pIn;
; 455  : 
; 456  :     OALMSG(OAL_IOCTL&&OAL_FUNC, (L"+OALIoCtlHalPadCfgCopyFnTable\r\n"));

  00a48	e59f3160	 ldr         r3, [pc, #0x160]
  00a4c	e5933440	 ldr         r3, [r3, #0x440]
  00a50	e3130a01	 tst         r3, #1, 20
  00a54	0a000008	 beq         |$LN6@OALIoCtlHa@9|
  00a58	e59f3150	 ldr         r3, [pc, #0x150]
  00a5c	e5933440	 ldr         r3, [r3, #0x440]
  00a60	e3130004	 tst         r3, #4
  00a64	0a000004	 beq         |$LN6@OALIoCtlHa@9|
  00a68	e59f0168	 ldr         r0, [pc, #0x168]
  00a6c	eb000000	 bl          NKDbgPrintfW
  00a70	e3a03001	 mov         r3, #1
  00a74	e58d300c	 str         r3, [sp, #0xC]
  00a78	ea000001	 b           |$LN7@OALIoCtlHa@9|
  00a7c		 |$LN6@OALIoCtlHa@9|
  00a7c	e3a03000	 mov         r3, #0
  00a80	e58d300c	 str         r3, [sp, #0xC]
  00a84		 |$LN7@OALIoCtlHa@9|

; 457  :     UNREFERENCED_PARAMETER(outSize);
; 458  :     UNREFERENCED_PARAMETER(pOutBuffer);
; 459  :     UNREFERENCED_PARAMETER(code);
; 460  :     if (pInBuffer == NULL || inSize != sizeof(OAL_IFC_PADCFG))

  00a84	e59d3020	 ldr         r3, [sp, #0x20]
  00a88	e3530000	 cmp         r3, #0
  00a8c	0a000002	 beq         |$LN2@OALIoCtlHa@9|
  00a90	e59d3024	 ldr         r3, [sp, #0x24]
  00a94	e3530024	 cmp         r3, #0x24
  00a98	0a000000	 beq         |$LN3@OALIoCtlHa@9|
  00a9c		 |$LN2@OALIoCtlHa@9|

; 461  :     {
; 462  :         goto cleanUp;

  00a9c	ea00002c	 b           |$cleanUp$50447|
  00aa0		 |$LN3@OALIoCtlHa@9|

; 463  :     }
; 464  : 
; 465  :     // update info and call appropriate routine
; 466  :     //
; 467  :     if (pOutSize != NULL) *pOutSize = sizeof(OAL_IFC_PADCFG);

  00aa0	e59d3030	 ldr         r3, [sp, #0x30]
  00aa4	e3530000	 cmp         r3, #0
  00aa8	0a000002	 beq         |$LN1@OALIoCtlHa@9|
  00aac	e59d2030	 ldr         r2, [sp, #0x30]
  00ab0	e3a03024	 mov         r3, #0x24
  00ab4	e5823000	 str         r3, [r2]
  00ab8		 |$LN1@OALIoCtlHa@9|

; 468  :     pIn = (OAL_IFC_PADCFG*)pInBuffer;

  00ab8	e59d3020	 ldr         r3, [sp, #0x20]
  00abc	e58d3004	 str         r3, [sp, #4]

; 469  : 
; 470  :     pIn->pfnRequestPad = RequestPad;

  00ac0	e59f210c	 ldr         r2, [pc, #0x10C]
  00ac4	e59d3004	 ldr         r3, [sp, #4]
  00ac8	e5832000	 str         r2, [r3]

; 471  :     pIn->pfnReleasePad = ReleasePad;

  00acc	e59d3004	 ldr         r3, [sp, #4]
  00ad0	e2832004	 add         r2, r3, #4
  00ad4	e59f30f4	 ldr         r3, [pc, #0xF4]
  00ad8	e5823000	 str         r3, [r2]

; 472  :     pIn->pfnConfigurePad = ConfigurePad;

  00adc	e59d3004	 ldr         r3, [sp, #4]
  00ae0	e2832008	 add         r2, r3, #8
  00ae4	e59f30e0	 ldr         r3, [pc, #0xE0]
  00ae8	e5823000	 str         r3, [r2]

; 473  :     pIn->pfnGetpadConfiguration = GetPadConfiguration;

  00aec	e59d3004	 ldr         r3, [sp, #4]
  00af0	e283200c	 add         r2, r3, #0xC
  00af4	e59f30cc	 ldr         r3, [pc, #0xCC]
  00af8	e5823000	 str         r3, [r2]

; 474  :     pIn->pfnRequestAndConfigurePad = RequestAndConfigurePad;

  00afc	e59d3004	 ldr         r3, [sp, #4]
  00b00	e2832010	 add         r2, r3, #0x10
  00b04	e59f30b8	 ldr         r3, [pc, #0xB8]
  00b08	e5823000	 str         r3, [r2]

; 475  :     pIn->pfnRequestAndConfigurePadArray = RequestAndConfigurePadArray;

  00b0c	e59d3004	 ldr         r3, [sp, #4]
  00b10	e2832014	 add         r2, r3, #0x14
  00b14	e59f30a4	 ldr         r3, [pc, #0xA4]
  00b18	e5823000	 str         r3, [r2]

; 476  :     pIn->pfnReleasePadArray = ReleasePadArray;

  00b1c	e59d3004	 ldr         r3, [sp, #4]
  00b20	e2832018	 add         r2, r3, #0x18
  00b24	e59f3090	 ldr         r3, [pc, #0x90]
  00b28	e5823000	 str         r3, [r2]

; 477  :     pIn->pfnRequestDevicePads = RequestDevicePads;

  00b2c	e59d3004	 ldr         r3, [sp, #4]
  00b30	e283201c	 add         r2, r3, #0x1C
  00b34	e59f307c	 ldr         r3, [pc, #0x7C]
  00b38	e5823000	 str         r3, [r2]

; 478  :     pIn->pfnReleaseDevicePads = ReleaseDevicePads;

  00b3c	e59d3004	 ldr         r3, [sp, #4]
  00b40	e2832020	 add         r2, r3, #0x20
  00b44	e59f3068	 ldr         r3, [pc, #0x68]
  00b48	e5823000	 str         r3, [r2]

; 479  : 
; 480  :     rc = TRUE;

  00b4c	e3a03001	 mov         r3, #1
  00b50	e58d3000	 str         r3, [sp]
  00b54		 |$cleanUp$50447|

; 481  : 
; 482  : cleanUp:
; 483  :     OALMSG(OAL_INTR&&OAL_FUNC, (L"-OALIoCtlHalPadCfgCopyFnTable(rc = %d)\r\n", rc));

  00b54	e59f3054	 ldr         r3, [pc, #0x54]
  00b58	e5933440	 ldr         r3, [r3, #0x440]
  00b5c	e3130901	 tst         r3, #1, 18
  00b60	0a000009	 beq         |$LN8@OALIoCtlHa@9|
  00b64	e59f3044	 ldr         r3, [pc, #0x44]
  00b68	e5933440	 ldr         r3, [r3, #0x440]
  00b6c	e3130004	 tst         r3, #4
  00b70	0a000005	 beq         |$LN8@OALIoCtlHa@9|
  00b74	e59d1000	 ldr         r1, [sp]
  00b78	e59f002c	 ldr         r0, [pc, #0x2C]
  00b7c	eb000000	 bl          NKDbgPrintfW
  00b80	e3a03001	 mov         r3, #1
  00b84	e58d3010	 str         r3, [sp, #0x10]
  00b88	ea000001	 b           |$LN9@OALIoCtlHa@9|
  00b8c		 |$LN8@OALIoCtlHa@9|
  00b8c	e3a03000	 mov         r3, #0
  00b90	e58d3010	 str         r3, [sp, #0x10]
  00b94		 |$LN9@OALIoCtlHa@9|

; 484  :     return rc;

  00b94	e59d3000	 ldr         r3, [sp]
  00b98	e58d3008	 str         r3, [sp, #8]

; 485  : }

  00b9c	e59d0008	 ldr         r0, [sp, #8]
  00ba0	e28dd014	 add         sp, sp, #0x14
  00ba4	e89d6000	 ldmia       sp, {sp, lr}
  00ba8	e12fff1e	 bx          lr
  00bac		 |$LN13@OALIoCtlHa@9|
  00bac		 |$LN14@OALIoCtlHa@9|
  00bac	00000000	 DCD         |??_C@_1FC@FCGPKNOO@?$AA?9?$AAO?$AAA?$AAL?$AAI?$AAo?$AAC?$AAt?$AAl?$AAH?$AAa?$AAl?$AAP?$AAa?$AAd?$AAC?$AAf?$AAg?$AAC?$AAo?$AAp?$AAy?$AAF?$AAn?$AAT?$AAa?$AAb?$AAl?$AAe?$AA?$CI?$AAr?$AAc@|
  00bb0		 |$LN15@OALIoCtlHa@9|
  00bb0	00000000	 DCD         |dpCurSettings|
  00bb4		 |$LN16@OALIoCtlHa@9|
  00bb4	00000000	 DCD         |ReleaseDevicePads|
  00bb8		 |$LN17@OALIoCtlHa@9|
  00bb8	00000000	 DCD         |RequestDevicePads|
  00bbc		 |$LN18@OALIoCtlHa@9|
  00bbc	00000000	 DCD         |ReleasePadArray|
  00bc0		 |$LN19@OALIoCtlHa@9|
  00bc0	00000000	 DCD         |RequestAndConfigurePadArray|
  00bc4		 |$LN20@OALIoCtlHa@9|
  00bc4	00000000	 DCD         |RequestAndConfigurePad|
  00bc8		 |$LN21@OALIoCtlHa@9|
  00bc8	00000000	 DCD         |GetPadConfiguration|
  00bcc		 |$LN22@OALIoCtlHa@9|
  00bcc	00000000	 DCD         |ConfigurePad|
  00bd0		 |$LN23@OALIoCtlHa@9|
  00bd0	00000000	 DCD         |ReleasePad|
  00bd4		 |$LN24@OALIoCtlHa@9|
  00bd4	00000000	 DCD         |RequestPad|
  00bd8		 |$LN25@OALIoCtlHa@9|
  00bd8	00000000	 DCD         |??_C@_1EA@OGPBEJDC@?$AA?$CL?$AAO?$AAA?$AAL?$AAI?$AAo?$AAC?$AAt?$AAl?$AAH?$AAa?$AAl?$AAP?$AAa?$AAd?$AAC?$AAf?$AAg?$AAC?$AAo?$AAp?$AAy?$AAF?$AAn?$AAT?$AAa?$AAb?$AAl?$AAe?$AA?$AN?$AA?6?$AA?$AA@|
  00bdc		 |$M50816|

			 ENDP  ; |OALIoCtlHalPadCfgCopyFnTable|

	EXPORT	|??_C@_1EI@KCAEIEE@?$AA?9?$AAO?$AAA?$AAL?$AAI?$AAo?$AAc?$AAt?$AAl?$AAH?$AAa?$AAl?$AAG?$AAe?$AAt?$AAN?$AAe?$AAo?$AAn?$AAS?$AAt?$AAa?$AAt?$AAs?$AA?$CI?$AAr?$AAc?$AA?5?$AA?$DN?$AA?5?$AA?$CF?$AAd@| [ DATA ] ; `string'
	EXPORT	|??_C@_1M@IKKIHJKB@?$AAc?$AAl?$AAe?$AAa?$AAr?$AA?$AA@| [ DATA ] ; `string'
	EXPORT	|??_C@_1GI@CJLHKHNC@?$AAW?$AAA?$AAR?$AAN?$AA?3?$AA?5?$AAI?$AAO?$AAC?$AAT?$AAL?$AA_?$AAH?$AAA?$AAL?$AA_?$AAG?$AAE?$AAT?$AA_?$AAN?$AAE?$AAO?$AAN?$AA_?$AAS?$AAT?$AAA?$AAT?$AAS?$AA?5?$AAi@| [ DATA ] ; `string'
	EXPORT	|??_C@_1DG@KOMHBINP@?$AA?$CL?$AAO?$AAA?$AAL?$AAI?$AAo?$AAc?$AAt?$AAl?$AAH?$AAa?$AAl?$AAG?$AAe?$AAt?$AAN?$AAe?$AAo?$AAn?$AAS?$AAt?$AAa?$AAt?$AAs?$AA?$AN?$AA?6?$AA?$AA@| [ DATA ] ; `string'
	EXPORT	|OALIoctlHalGetNeonStats|
	IMPORT	|memset|
	IMPORT	|wcscmp|
	IMPORT	|memcpy|
	IMPORT	|g_oalNeonStat|

  00058			 AREA	 |.pdata|, PDATA
|$T50843| DCD	|$LN13@OALIoctlHa|
	DCD	0x40005b04

  00000			 AREA	 |.rdata|, DATA, READONLY
|??_C@_1EI@KCAEIEE@?$AA?9?$AAO?$AAA?$AAL?$AAI?$AAo?$AAc?$AAt?$AAl?$AAH?$AAa?$AAl?$AAG?$AAe?$AAt?$AAN?$AAe?$AAo?$AAn?$AAS?$AAt?$AAa?$AAt?$AAs?$AA?$CI?$AAr?$AAc?$AA?5?$AA?$DN?$AA?5?$AA?$CF?$AAd@| DCB "-"
	DCB	0x0, "O", 0x0, "A", 0x0, "L", 0x0, "I", 0x0, "o", 0x0, "c"
	DCB	0x0, "t", 0x0, "l", 0x0, "H", 0x0, "a", 0x0, "l", 0x0, "G"
	DCB	0x0, "e", 0x0, "t", 0x0, "N", 0x0, "e", 0x0, "o", 0x0, "n"
	DCB	0x0, "S", 0x0, "t", 0x0, "a", 0x0, "t", 0x0, "s", 0x0, "("
	DCB	0x0, "r", 0x0, "c", 0x0, " ", 0x0, "=", 0x0, " ", 0x0, "%"
	DCB	0x0, "d", 0x0, ")", 0x0, 0xd, 0x0, 0xa, 0x0, 0x0, 0x0 ; `string'

  00000			 AREA	 |.rdata|, DATA, READONLY
|??_C@_1M@IKKIHJKB@?$AAc?$AAl?$AAe?$AAa?$AAr?$AA?$AA@| DCB "c", 0x0, "l", 0x0
	DCB	"e", 0x0, "a", 0x0, "r", 0x0, 0x0, 0x0	; `string'

  00000			 AREA	 |.rdata|, DATA, READONLY
|??_C@_1GI@CJLHKHNC@?$AAW?$AAA?$AAR?$AAN?$AA?3?$AA?5?$AAI?$AAO?$AAC?$AAT?$AAL?$AA_?$AAH?$AAA?$AAL?$AA_?$AAG?$AAE?$AAT?$AA_?$AAN?$AAE?$AAO?$AAN?$AA_?$AAS?$AAT?$AAA?$AAT?$AAS?$AA?5?$AAi@| DCB "W"
	DCB	0x0, "A", 0x0, "R", 0x0, "N", 0x0, ":", 0x0, " ", 0x0, "I"
	DCB	0x0, "O", 0x0, "C", 0x0, "T", 0x0, "L", 0x0, "_", 0x0, "H"
	DCB	0x0, "A", 0x0, "L", 0x0, "_", 0x0, "G", 0x0, "E", 0x0, "T"
	DCB	0x0, "_", 0x0, "N", 0x0, "E", 0x0, "O", 0x0, "N", 0x0, "_"
	DCB	0x0, "S", 0x0, "T", 0x0, "A", 0x0, "T", 0x0, "S", 0x0, " "
	DCB	0x0, "i", 0x0, "n", 0x0, "v", 0x0, "a", 0x0, "l", 0x0, "i"
	DCB	0x0, "d", 0x0, " ", 0x0, "p", 0x0, "a", 0x0, "r", 0x0, "a"
	DCB	0x0, "m", 0x0, "e", 0x0, "t", 0x0, "e", 0x0, "r", 0x0, "s"
	DCB	0x0, 0xd, 0x0, 0xa, 0x0, 0x0, 0x0	; `string'

  00000			 AREA	 |.rdata|, DATA, READONLY
|??_C@_1DG@KOMHBINP@?$AA?$CL?$AAO?$AAA?$AAL?$AAI?$AAo?$AAc?$AAt?$AAl?$AAH?$AAa?$AAl?$AAG?$AAe?$AAt?$AAN?$AAe?$AAo?$AAn?$AAS?$AAt?$AAa?$AAt?$AAs?$AA?$AN?$AA?6?$AA?$AA@| DCB "+"
	DCB	0x0, "O", 0x0, "A", 0x0, "L", 0x0, "I", 0x0, "o", 0x0, "c"
	DCB	0x0, "t", 0x0, "l", 0x0, "H", 0x0, "a", 0x0, "l", 0x0, "G"
	DCB	0x0, "e", 0x0, "t", 0x0, "N", 0x0, "e", 0x0, "o", 0x0, "n"
	DCB	0x0, "S", 0x0, "t", 0x0, "a", 0x0, "t", 0x0, "s", 0x0, 0xd
	DCB	0x0, 0xa, 0x0, 0x0, 0x0			; `string'
; Function compile flags: /Odtp

  00bdc			 AREA	 |.text|, CODE, ARM

  00bdc		 |OALIoctlHalGetNeonStats| PROC

; 496  : {  

  00bdc		 |$LN13@OALIoctlHa|
  00bdc	e1a0c00d	 mov         r12, sp
  00be0	e92d000f	 stmdb       sp!, {r0 - r3}
  00be4	e92d5000	 stmdb       sp!, {r12, lr}
  00be8	e24dd01c	 sub         sp, sp, #0x1C
  00bec		 |$M50840|

; 497  :     
; 498  :     BOOL        rc = FALSE;

  00bec	e3a03000	 mov         r3, #0
  00bf0	e58d3000	 str         r3, [sp]

; 499  :     IOCTL_HAL_GET_NEON_STAT_S*   pVfpStat;
; 500  : 
; 501  :     UNREFERENCED_PARAMETER(code);//
; 502  :     UNREFERENCED_PARAMETER(inpSize);//
; 503  :     UNREFERENCED_PARAMETER(pOutSize);//
; 504  :     
; 505  :     OALMSG(OAL_IOCTL&&OAL_FUNC, (L"+OALIoctlHalGetNeonStats\r\n"));

  00bf4	e59f3138	 ldr         r3, [pc, #0x138]
  00bf8	e5933440	 ldr         r3, [r3, #0x440]
  00bfc	e3130a01	 tst         r3, #1, 20
  00c00	0a000008	 beq         |$LN5@OALIoctlHa|
  00c04	e59f3128	 ldr         r3, [pc, #0x128]
  00c08	e5933440	 ldr         r3, [r3, #0x440]
  00c0c	e3130004	 tst         r3, #4
  00c10	0a000004	 beq         |$LN5@OALIoctlHa|
  00c14	e59f0128	 ldr         r0, [pc, #0x128]
  00c18	eb000000	 bl          NKDbgPrintfW
  00c1c	e3a03001	 mov         r3, #1
  00c20	e58d300c	 str         r3, [sp, #0xC]
  00c24	ea000001	 b           |$LN6@OALIoctlHa|
  00c28		 |$LN5@OALIoctlHa|
  00c28	e3a03000	 mov         r3, #0
  00c2c	e58d300c	 str         r3, [sp, #0xC]
  00c30		 |$LN6@OALIoctlHa|

; 506  : 
; 507  :     // Check parameters
; 508  :     if ((pOutBuffer==NULL) && (outSize < sizeof(IOCTL_HAL_GET_NEON_STAT_S)))

  00c30	e59d3030	 ldr         r3, [sp, #0x30]
  00c34	e3530000	 cmp         r3, #0
  00c38	1a000010	 bne         |$LN2@OALIoctlHa|
  00c3c	e59d3034	 ldr         r3, [sp, #0x34]
  00c40	e3530020	 cmp         r3, #0x20
  00c44	2a00000d	 bcs         |$LN2@OALIoctlHa|

; 509  :     {
; 510  :         NKSetLastError(ERROR_INVALID_PARAMETER);

  00c48	e3a00057	 mov         r0, #0x57
  00c4c	eb000000	 bl          NKSetLastError

; 511  :         OALMSG(OAL_WARN, (
; 512  :             L"WARN: IOCTL_HAL_GET_NEON_STATS invalid parameters\r\n"
; 513  :         ));

  00c50	e59f30dc	 ldr         r3, [pc, #0xDC]
  00c54	e5933440	 ldr         r3, [r3, #0x440]
  00c58	e3130002	 tst         r3, #2
  00c5c	0a000004	 beq         |$LN7@OALIoctlHa|
  00c60	e59f00d8	 ldr         r0, [pc, #0xD8]
  00c64	eb000000	 bl          NKDbgPrintfW
  00c68	e3a03001	 mov         r3, #1
  00c6c	e58d3010	 str         r3, [sp, #0x10]
  00c70	ea000001	 b           |$LN8@OALIoctlHa|
  00c74		 |$LN7@OALIoctlHa|
  00c74	e3a03000	 mov         r3, #0
  00c78	e58d3010	 str         r3, [sp, #0x10]
  00c7c		 |$LN8@OALIoctlHa|

; 514  :         goto cleanUp;

  00c7c	ea000015	 b           |$cleanUp$50476|
  00c80		 |$LN2@OALIoctlHa|

; 515  :     }
; 516  :     //  Copy to passed in struct
; 517  :     pVfpStat = (IOCTL_HAL_GET_NEON_STAT_S*)pOutBuffer;    

  00c80	e59d3030	 ldr         r3, [sp, #0x30]
  00c84	e58d3004	 str         r3, [sp, #4]

; 518  :     memcpy(pVfpStat,&g_oalNeonStat,sizeof(IOCTL_HAL_GET_NEON_STAT_S));

  00c88	e3a02020	 mov         r2, #0x20
  00c8c	e59f10a4	 ldr         r1, [pc, #0xA4]
  00c90	e59d0004	 ldr         r0, [sp, #4]
  00c94	eb000000	 bl          memcpy

; 519  :    
; 520  :     if ((pInpBuffer!=NULL) && (wcscmp((LPWSTR)pInpBuffer, L"clear")==0))

  00c98	e59d3028	 ldr         r3, [sp, #0x28]
  00c9c	e3530000	 cmp         r3, #0
  00ca0	0a00000a	 beq         |$LN1@OALIoctlHa|
  00ca4	e59f1090	 ldr         r1, [pc, #0x90]
  00ca8	e59d0028	 ldr         r0, [sp, #0x28]
  00cac	eb000000	 bl          wcscmp
  00cb0	e58d0014	 str         r0, [sp, #0x14]
  00cb4	e59d3014	 ldr         r3, [sp, #0x14]
  00cb8	e3530000	 cmp         r3, #0
  00cbc	1a000003	 bne         |$LN1@OALIoctlHa|

; 521  :     {
; 522  :         /* User wants us to clear the stats */
; 523  :         memset(&g_oalNeonStat,0,sizeof(IOCTL_HAL_GET_NEON_STAT_S));

  00cc0	e3a02020	 mov         r2, #0x20
  00cc4	e3a01000	 mov         r1, #0
  00cc8	e59f0068	 ldr         r0, [pc, #0x68]
  00ccc	eb000000	 bl          memset
  00cd0		 |$LN1@OALIoctlHa|

; 524  :     } 
; 525  : 
; 526  :     rc = TRUE;

  00cd0	e3a03001	 mov         r3, #1
  00cd4	e58d3000	 str         r3, [sp]
  00cd8		 |$cleanUp$50476|

; 527  :             
; 528  : cleanUp:
; 529  :     OALMSG(OAL_IOCTL && OAL_FUNC, (
; 530  :         L"-OALIoctlHalGetNeonStats(rc = %d)\r\n", rc
; 531  :     ));

  00cd8	e59f3054	 ldr         r3, [pc, #0x54]
  00cdc	e5933440	 ldr         r3, [r3, #0x440]
  00ce0	e3130a01	 tst         r3, #1, 20
  00ce4	0a000009	 beq         |$LN9@OALIoctlHa|
  00ce8	e59f3044	 ldr         r3, [pc, #0x44]
  00cec	e5933440	 ldr         r3, [r3, #0x440]
  00cf0	e3130004	 tst         r3, #4
  00cf4	0a000005	 beq         |$LN9@OALIoctlHa|
  00cf8	e59d1000	 ldr         r1, [sp]
  00cfc	e59f002c	 ldr         r0, [pc, #0x2C]
  00d00	eb000000	 bl          NKDbgPrintfW
  00d04	e3a03001	 mov         r3, #1
  00d08	e58d3018	 str         r3, [sp, #0x18]
  00d0c	ea000001	 b           |$LN10@OALIoctlHa|
  00d10		 |$LN9@OALIoctlHa|
  00d10	e3a03000	 mov         r3, #0
  00d14	e58d3018	 str         r3, [sp, #0x18]
  00d18		 |$LN10@OALIoctlHa|

; 532  :     return rc;

  00d18	e59d3000	 ldr         r3, [sp]
  00d1c	e58d3008	 str         r3, [sp, #8]

; 533  : }

  00d20	e59d0008	 ldr         r0, [sp, #8]
  00d24	e28dd01c	 add         sp, sp, #0x1C
  00d28	e89d6000	 ldmia       sp, {sp, lr}
  00d2c	e12fff1e	 bx          lr
  00d30		 |$LN14@OALIoctlHa|
  00d30		 |$LN15@OALIoctlHa|
  00d30	00000000	 DCD         |??_C@_1EI@KCAEIEE@?$AA?9?$AAO?$AAA?$AAL?$AAI?$AAo?$AAc?$AAt?$AAl?$AAH?$AAa?$AAl?$AAG?$AAe?$AAt?$AAN?$AAe?$AAo?$AAn?$AAS?$AAt?$AAa?$AAt?$AAs?$AA?$CI?$AAr?$AAc?$AA?5?$AA?$DN?$AA?5?$AA?$CF?$AAd@|
  00d34		 |$LN16@OALIoctlHa|
  00d34	00000000	 DCD         |dpCurSettings|
  00d38		 |$LN17@OALIoctlHa|
  00d38	00000000	 DCD         |g_oalNeonStat|
  00d3c		 |$LN18@OALIoctlHa|
  00d3c	00000000	 DCD         |??_C@_1M@IKKIHJKB@?$AAc?$AAl?$AAe?$AAa?$AAr?$AA?$AA@|
  00d40		 |$LN19@OALIoctlHa|
  00d40	00000000	 DCD         |??_C@_1GI@CJLHKHNC@?$AAW?$AAA?$AAR?$AAN?$AA?3?$AA?5?$AAI?$AAO?$AAC?$AAT?$AAL?$AA_?$AAH?$AAA?$AAL?$AA_?$AAG?$AAE?$AAT?$AA_?$AAN?$AAE?$AAO?$AAN?$AA_?$AAS?$AAT?$AAA?$AAT?$AAS?$AA?5?$AAi@|
  00d44		 |$LN20@OALIoctlHa|
  00d44	00000000	 DCD         |??_C@_1DG@KOMHBINP@?$AA?$CL?$AAO?$AAA?$AAL?$AAI?$AAo?$AAc?$AAt?$AAl?$AAH?$AAa?$AAl?$AAG?$AAe?$AAt?$AAN?$AAe?$AAo?$AAn?$AAS?$AAt?$AAa?$AAt?$AAs?$AA?$AN?$AA?6?$AA?$AA@|
  00d48		 |$M50841|

			 ENDP  ; |OALIoctlHalGetNeonStats|

	EXPORT	|??_C@_1EE@OFAPOFKI@?$AA?9?$AAO?$AAA?$AAL?$AAI?$AAo?$AAc?$AAt?$AAl?$AAH?$AAa?$AAl?$AAG?$AAe?$AAt?$AAE?$AAc?$AAc?$AAT?$AAy?$AAp?$AAe?$AA?$CI?$AAr?$AAc?$AA?5?$AA?$DN?$AA?5?$AA?$CF?$AAd?$AA?$CJ?$AA?$AN@| [ DATA ] ; `string'
	EXPORT	|??_C@_1GC@MLINBDIE@?$AAW?$AAA?$AAR?$AAN?$AA?3?$AA?5?$AAO?$AAA?$AAL?$AAI?$AAo?$AAc?$AAt?$AAl?$AAH?$AAa?$AAl?$AAG?$AAe?$AAt?$AAE?$AAc?$AAc?$AAT?$AAy?$AAp?$AAe?$AA?5?$AAi?$AAn?$AAv?$AAa@| [ DATA ] ; `string'
	EXPORT	|??_C@_1DC@JDMHLFOE@?$AA?$CL?$AAO?$AAA?$AAL?$AAI?$AAo?$AAc?$AAt?$AAl?$AAH?$AAa?$AAl?$AAG?$AAe?$AAt?$AAE?$AAc?$AAc?$AAT?$AAy?$AAp?$AAe?$AA?$AN?$AA?6?$AA?$AA@| [ DATA ] ; `string'
	EXPORT	|OALIoctlHalGetEccType|
	IMPORT	|OALArgsQuery|

  00060			 AREA	 |.pdata|, PDATA
|$T50862| DCD	|$LN13@OALIoctlHa@2|
	DCD	0x40005504

  00000			 AREA	 |.rdata|, DATA, READONLY
|??_C@_1EE@OFAPOFKI@?$AA?9?$AAO?$AAA?$AAL?$AAI?$AAo?$AAc?$AAt?$AAl?$AAH?$AAa?$AAl?$AAG?$AAe?$AAt?$AAE?$AAc?$AAc?$AAT?$AAy?$AAp?$AAe?$AA?$CI?$AAr?$AAc?$AA?5?$AA?$DN?$AA?5?$AA?$CF?$AAd?$AA?$CJ?$AA?$AN@| DCB "-"
	DCB	0x0, "O", 0x0, "A", 0x0, "L", 0x0, "I", 0x0, "o", 0x0, "c"
	DCB	0x0, "t", 0x0, "l", 0x0, "H", 0x0, "a", 0x0, "l", 0x0, "G"
	DCB	0x0, "e", 0x0, "t", 0x0, "E", 0x0, "c", 0x0, "c", 0x0, "T"
	DCB	0x0, "y", 0x0, "p", 0x0, "e", 0x0, "(", 0x0, "r", 0x0, "c"
	DCB	0x0, " ", 0x0, "=", 0x0, " ", 0x0, "%", 0x0, "d", 0x0, ")"
	DCB	0x0, 0xd, 0x0, 0xa, 0x0, 0x0, 0x0	; `string'

  00000			 AREA	 |.rdata|, DATA, READONLY
|??_C@_1GC@MLINBDIE@?$AAW?$AAA?$AAR?$AAN?$AA?3?$AA?5?$AAO?$AAA?$AAL?$AAI?$AAo?$AAc?$AAt?$AAl?$AAH?$AAa?$AAl?$AAG?$AAe?$AAt?$AAE?$AAc?$AAc?$AAT?$AAy?$AAp?$AAe?$AA?5?$AAi?$AAn?$AAv?$AAa@| DCB "W"
	DCB	0x0, "A", 0x0, "R", 0x0, "N", 0x0, ":", 0x0, " ", 0x0, "O"
	DCB	0x0, "A", 0x0, "L", 0x0, "I", 0x0, "o", 0x0, "c", 0x0, "t"
	DCB	0x0, "l", 0x0, "H", 0x0, "a", 0x0, "l", 0x0, "G", 0x0, "e"
	DCB	0x0, "t", 0x0, "E", 0x0, "c", 0x0, "c", 0x0, "T", 0x0, "y"
	DCB	0x0, "p", 0x0, "e", 0x0, " ", 0x0, "i", 0x0, "n", 0x0, "v"
	DCB	0x0, "a", 0x0, "l", 0x0, "i", 0x0, "d", 0x0, " ", 0x0, "p"
	DCB	0x0, "a", 0x0, "r", 0x0, "a", 0x0, "m", 0x0, "e", 0x0, "t"
	DCB	0x0, "e", 0x0, "r", 0x0, "s", 0x0, 0xd, 0x0, 0xa, 0x0, 0x0
	DCB	0x0					; `string'

  00000			 AREA	 |.rdata|, DATA, READONLY
|??_C@_1DC@JDMHLFOE@?$AA?$CL?$AAO?$AAA?$AAL?$AAI?$AAo?$AAc?$AAt?$AAl?$AAH?$AAa?$AAl?$AAG?$AAe?$AAt?$AAE?$AAc?$AAc?$AAT?$AAy?$AAp?$AAe?$AA?$AN?$AA?6?$AA?$AA@| DCB "+"
	DCB	0x0, "O", 0x0, "A", 0x0, "L", 0x0, "I", 0x0, "o", 0x0, "c"
	DCB	0x0, "t", 0x0, "l", 0x0, "H", 0x0, "a", 0x0, "l", 0x0, "G"
	DCB	0x0, "e", 0x0, "t", 0x0, "E", 0x0, "c", 0x0, "c", 0x0, "T"
	DCB	0x0, "y", 0x0, "p", 0x0, "e", 0x0, 0xd, 0x0, 0xa, 0x0, 0x0
	DCB	0x0					; `string'
; Function compile flags: /Odtp

  00d48			 AREA	 |.text|, CODE, ARM

  00d48		 |OALIoctlHalGetEccType| PROC

; 539  : {

  00d48		 |$LN13@OALIoctlHa@2|
  00d48	e1a0c00d	 mov         r12, sp
  00d4c	e92d000f	 stmdb       sp!, {r0 - r3}
  00d50	e92d5000	 stmdb       sp!, {r12, lr}
  00d54	e24dd020	 sub         sp, sp, #0x20
  00d58		 |$M50859|

; 540  :     BOOL        rc = FALSE;

  00d58	e3a03000	 mov         r3, #0
  00d5c	e58d3008	 str         r3, [sp, #8]

; 541  :     DWORD     *pEccType;
; 542  :     UINT8 *pData = NULL;

  00d60	e3a03000	 mov         r3, #0
  00d64	e58d3000	 str         r3, [sp]

; 543  : 	
; 544  :     UNREFERENCED_PARAMETER(code);
; 545  :     UNREFERENCED_PARAMETER(pInBuffer);
; 546  :     UNREFERENCED_PARAMETER(inSize);
; 547  :     UNREFERENCED_PARAMETER(pOutSize);
; 548  :     
; 549  :     OALMSG(OAL_IOCTL&&OAL_FUNC, (L"+OALIoctlHalGetEccType\r\n"));

  00d68	e59f3120	 ldr         r3, [pc, #0x120]
  00d6c	e5933440	 ldr         r3, [r3, #0x440]
  00d70	e3130a01	 tst         r3, #1, 20
  00d74	0a000008	 beq         |$LN5@OALIoctlHa@2|
  00d78	e59f3110	 ldr         r3, [pc, #0x110]
  00d7c	e5933440	 ldr         r3, [r3, #0x440]
  00d80	e3130004	 tst         r3, #4
  00d84	0a000004	 beq         |$LN5@OALIoctlHa@2|
  00d88	e59f0108	 ldr         r0, [pc, #0x108]
  00d8c	eb000000	 bl          NKDbgPrintfW
  00d90	e3a03001	 mov         r3, #1
  00d94	e58d3010	 str         r3, [sp, #0x10]
  00d98	ea000001	 b           |$LN6@OALIoctlHa@2|
  00d9c		 |$LN5@OALIoctlHa@2|
  00d9c	e3a03000	 mov         r3, #0
  00da0	e58d3010	 str         r3, [sp, #0x10]
  00da4		 |$LN6@OALIoctlHa@2|

; 550  : 
; 551  :     // Check parameters
; 552  :     if ((pOutBuffer==NULL) && (outSize < sizeof(DWORD)))

  00da4	e59d3034	 ldr         r3, [sp, #0x34]
  00da8	e3530000	 cmp         r3, #0
  00dac	1a000010	 bne         |$LN2@OALIoctlHa@2|
  00db0	e59d3038	 ldr         r3, [sp, #0x38]
  00db4	e3530004	 cmp         r3, #4
  00db8	2a00000d	 bcs         |$LN2@OALIoctlHa@2|

; 553  :     {
; 554  :         NKSetLastError(ERROR_INVALID_PARAMETER);

  00dbc	e3a00057	 mov         r0, #0x57
  00dc0	eb000000	 bl          NKSetLastError

; 555  :         OALMSG(OAL_WARN, (
; 556  :             L"WARN: OALIoctlHalGetEccType invalid parameters\r\n"
; 557  :         ));

  00dc4	e59f30c4	 ldr         r3, [pc, #0xC4]
  00dc8	e5933440	 ldr         r3, [r3, #0x440]
  00dcc	e3130002	 tst         r3, #2
  00dd0	0a000004	 beq         |$LN7@OALIoctlHa@2|
  00dd4	e59f00b8	 ldr         r0, [pc, #0xB8]
  00dd8	eb000000	 bl          NKDbgPrintfW
  00ddc	e3a03001	 mov         r3, #1
  00de0	e58d3014	 str         r3, [sp, #0x14]
  00de4	ea000001	 b           |$LN8@OALIoctlHa@2|
  00de8		 |$LN7@OALIoctlHa@2|
  00de8	e3a03000	 mov         r3, #0
  00dec	e58d3014	 str         r3, [sp, #0x14]
  00df0		 |$LN8@OALIoctlHa@2|

; 558  :         goto cleanUp;

  00df0	ea00000f	 b           |$cleanUp$50510|
  00df4		 |$LN2@OALIoctlHa@2|

; 559  :     }
; 560  : 	
; 561  :     //  Copy to passed in struct
; 562  :     pEccType  = (DWORD *)pOutBuffer;

  00df4	e59d3034	 ldr         r3, [sp, #0x34]
  00df8	e58d3004	 str         r3, [sp, #4]

; 563  :     // This is the global shared Args flag
; 564  :     pData = (UINT8 *)OALArgsQuery(OAL_ARGS_QUERY_ECC_TYPE);

  00dfc	e3a00048	 mov         r0, #0x48
  00e00	eb000000	 bl          OALArgsQuery
  00e04	e58d0018	 str         r0, [sp, #0x18]
  00e08	e59d3018	 ldr         r3, [sp, #0x18]
  00e0c	e58d3000	 str         r3, [sp]

; 565  : 
; 566  :     if (pData != NULL) {

  00e10	e59d3000	 ldr         r3, [sp]
  00e14	e3530000	 cmp         r3, #0
  00e18	0a000005	 beq         |$LN1@OALIoctlHa@2|

; 567  :         memcpy(pEccType, pData, sizeof(DWORD));

  00e1c	e3a02004	 mov         r2, #4
  00e20	e59d1000	 ldr         r1, [sp]
  00e24	e59d0004	 ldr         r0, [sp, #4]
  00e28	eb000000	 bl          memcpy

; 568  :         rc = TRUE;

  00e2c	e3a03001	 mov         r3, #1
  00e30	e58d3008	 str         r3, [sp, #8]
  00e34		 |$LN1@OALIoctlHa@2|
  00e34		 |$cleanUp$50510|

; 569  :     }
; 570  : 
; 571  : cleanUp:
; 572  :     OALMSG(OAL_IOCTL && OAL_FUNC, (
; 573  :         L"-OALIoctlHalGetEccType(rc = %d)\r\n", rc
; 574  :     ));

  00e34	e59f3054	 ldr         r3, [pc, #0x54]
  00e38	e5933440	 ldr         r3, [r3, #0x440]
  00e3c	e3130a01	 tst         r3, #1, 20
  00e40	0a000009	 beq         |$LN9@OALIoctlHa@2|
  00e44	e59f3044	 ldr         r3, [pc, #0x44]
  00e48	e5933440	 ldr         r3, [r3, #0x440]
  00e4c	e3130004	 tst         r3, #4
  00e50	0a000005	 beq         |$LN9@OALIoctlHa@2|
  00e54	e59d1008	 ldr         r1, [sp, #8]
  00e58	e59f002c	 ldr         r0, [pc, #0x2C]
  00e5c	eb000000	 bl          NKDbgPrintfW
  00e60	e3a03001	 mov         r3, #1
  00e64	e58d301c	 str         r3, [sp, #0x1C]
  00e68	ea000001	 b           |$LN10@OALIoctlHa@2|
  00e6c		 |$LN9@OALIoctlHa@2|
  00e6c	e3a03000	 mov         r3, #0
  00e70	e58d301c	 str         r3, [sp, #0x1C]
  00e74		 |$LN10@OALIoctlHa@2|

; 575  :     return rc;

  00e74	e59d3008	 ldr         r3, [sp, #8]
  00e78	e58d300c	 str         r3, [sp, #0xC]

; 576  : 
; 577  : }

  00e7c	e59d000c	 ldr         r0, [sp, #0xC]
  00e80	e28dd020	 add         sp, sp, #0x20
  00e84	e89d6000	 ldmia       sp, {sp, lr}
  00e88	e12fff1e	 bx          lr
  00e8c		 |$LN14@OALIoctlHa@2|
  00e8c		 |$LN15@OALIoctlHa@2|
  00e8c	00000000	 DCD         |??_C@_1EE@OFAPOFKI@?$AA?9?$AAO?$AAA?$AAL?$AAI?$AAo?$AAc?$AAt?$AAl?$AAH?$AAa?$AAl?$AAG?$AAe?$AAt?$AAE?$AAc?$AAc?$AAT?$AAy?$AAp?$AAe?$AA?$CI?$AAr?$AAc?$AA?5?$AA?$DN?$AA?5?$AA?$CF?$AAd?$AA?$CJ?$AA?$AN@|
  00e90		 |$LN16@OALIoctlHa@2|
  00e90	00000000	 DCD         |dpCurSettings|
  00e94		 |$LN17@OALIoctlHa@2|
  00e94	00000000	 DCD         |??_C@_1GC@MLINBDIE@?$AAW?$AAA?$AAR?$AAN?$AA?3?$AA?5?$AAO?$AAA?$AAL?$AAI?$AAo?$AAc?$AAt?$AAl?$AAH?$AAa?$AAl?$AAG?$AAe?$AAt?$AAE?$AAc?$AAc?$AAT?$AAy?$AAp?$AAe?$AA?5?$AAi?$AAn?$AAv?$AAa@|
  00e98		 |$LN18@OALIoctlHa@2|
  00e98	00000000	 DCD         |??_C@_1DC@JDMHLFOE@?$AA?$CL?$AAO?$AAA?$AAL?$AAI?$AAo?$AAc?$AAt?$AAl?$AAH?$AAa?$AAl?$AAG?$AAe?$AAt?$AAE?$AAc?$AAc?$AAT?$AAy?$AAp?$AAe?$AA?$AN?$AA?6?$AA?$AA@|
  00e9c		 |$M50860|

			 ENDP  ; |OALIoctlHalGetEccType|

	EXPORT	|??_C@_1DK@FKFBOCNN@?$AA?9?$AAI?$AAO?$AAC?$AAT?$AAL?$AA_?$AAH?$AAA?$AAL?$AA_?$AAG?$AAE?$AAT?$AA_?$AAM?$AAA?$AAC?$AA_?$AAA?$AAD?$AAD?$AAR?$AAE?$AAS?$AAS?$AA?$AN?$AA?6?$AA?$AA@| [ DATA ] ; `string'
	EXPORT	|??_C@_1CI@GCCMIBEH@?$AAI?$AAn?$AAv?$AAa?$AAl?$AAi?$AAd?$AA?5?$AAp?$AAa?$AAr?$AAa?$AAm?$AAe?$AAt?$AAe?$AAr?$AA?$AN?$AA?6?$AA?$AA@| [ DATA ] ; `string'
	EXPORT	|??_C@_1DK@DPLCMFPG@?$AA?$CL?$AAI?$AAO?$AAC?$AAT?$AAL?$AA_?$AAH?$AAA?$AAL?$AA_?$AAG?$AAE?$AAT?$AA_?$AAM?$AAA?$AAC?$AA_?$AAA?$AAD?$AAD?$AAR?$AAE?$AAS?$AAS?$AA?$AN?$AA?6?$AA?$AA@| [ DATA ] ; `string'
	EXPORT	|OALIoctlGetMacAddress|

  00068			 AREA	 |.pdata|, PDATA
|$T50877| DCD	|$LN12@OALIoctlGe|
	DCD	0x40004d04

  00000			 AREA	 |.rdata|, DATA, READONLY
|??_C@_1DK@FKFBOCNN@?$AA?9?$AAI?$AAO?$AAC?$AAT?$AAL?$AA_?$AAH?$AAA?$AAL?$AA_?$AAG?$AAE?$AAT?$AA_?$AAM?$AAA?$AAC?$AA_?$AAA?$AAD?$AAD?$AAR?$AAE?$AAS?$AAS?$AA?$AN?$AA?6?$AA?$AA@| DCB "-"
	DCB	0x0, "I", 0x0, "O", 0x0, "C", 0x0, "T", 0x0, "L", 0x0, "_"
	DCB	0x0, "H", 0x0, "A", 0x0, "L", 0x0, "_", 0x0, "G", 0x0, "E"
	DCB	0x0, "T", 0x0, "_", 0x0, "M", 0x0, "A", 0x0, "C", 0x0, "_"
	DCB	0x0, "A", 0x0, "D", 0x0, "D", 0x0, "R", 0x0, "E", 0x0, "S"
	DCB	0x0, "S", 0x0, 0xd, 0x0, 0xa, 0x0, 0x0, 0x0 ; `string'

  00000			 AREA	 |.rdata|, DATA, READONLY
|??_C@_1CI@GCCMIBEH@?$AAI?$AAn?$AAv?$AAa?$AAl?$AAi?$AAd?$AA?5?$AAp?$AAa?$AAr?$AAa?$AAm?$AAe?$AAt?$AAe?$AAr?$AA?$AN?$AA?6?$AA?$AA@| DCB "I"
	DCB	0x0, "n", 0x0, "v", 0x0, "a", 0x0, "l", 0x0, "i", 0x0, "d"
	DCB	0x0, " ", 0x0, "p", 0x0, "a", 0x0, "r", 0x0, "a", 0x0, "m"
	DCB	0x0, "e", 0x0, "t", 0x0, "e", 0x0, "r", 0x0, 0xd, 0x0, 0xa
	DCB	0x0, 0x0, 0x0				; `string'

  00000			 AREA	 |.rdata|, DATA, READONLY
|??_C@_1DK@DPLCMFPG@?$AA?$CL?$AAI?$AAO?$AAC?$AAT?$AAL?$AA_?$AAH?$AAA?$AAL?$AA_?$AAG?$AAE?$AAT?$AA_?$AAM?$AAA?$AAC?$AA_?$AAA?$AAD?$AAD?$AAR?$AAE?$AAS?$AAS?$AA?$AN?$AA?6?$AA?$AA@| DCB "+"
	DCB	0x0, "I", 0x0, "O", 0x0, "C", 0x0, "T", 0x0, "L", 0x0, "_"
	DCB	0x0, "H", 0x0, "A", 0x0, "L", 0x0, "_", 0x0, "G", 0x0, "E"
	DCB	0x0, "T", 0x0, "_", 0x0, "M", 0x0, "A", 0x0, "C", 0x0, "_"
	DCB	0x0, "A", 0x0, "D", 0x0, "D", 0x0, "R", 0x0, "E", 0x0, "S"
	DCB	0x0, "S", 0x0, 0xd, 0x0, 0xa, 0x0, 0x0, 0x0 ; `string'
; Function compile flags: /Odtp

  00e9c			 AREA	 |.text|, CODE, ARM

  00e9c		 |OALIoctlGetMacAddress| PROC

; 588  : {

  00e9c		 |$LN12@OALIoctlGe|
  00e9c	e1a0c00d	 mov         r12, sp
  00ea0	e92d000f	 stmdb       sp!, {r0 - r3}
  00ea4	e92d5000	 stmdb       sp!, {r12, lr}
  00ea8	e24dd01c	 sub         sp, sp, #0x1C
  00eac		 |$M50874|

; 589  :     BOOL bRet = FALSE;

  00eac	e3a03000	 mov         r3, #0
  00eb0	e58d3008	 str         r3, [sp, #8]

; 590  :     UINT8 *pMACAddress = NULL;

  00eb4	e3a03000	 mov         r3, #0
  00eb8	e58d3004	 str         r3, [sp, #4]

; 591  :     UINT8 *pData = NULL;

  00ebc	e3a03000	 mov         r3, #0
  00ec0	e58d3000	 str         r3, [sp]

; 592  : 
; 593  : 	UNREFERENCED_PARAMETER(pOutSize);
; 594  : 	UNREFERENCED_PARAMETER(inpSize);
; 595  : 	UNREFERENCED_PARAMETER(pInpBuffer);
; 596  : 	UNREFERENCED_PARAMETER(code);
; 597  : 
; 598  :     OALMSG(OAL_IOCTL&&OAL_FUNC, (L"+IOCTL_HAL_GET_MAC_ADDRESS\r\n"));

  00ec4	e59f30f8	 ldr         r3, [pc, #0xF8]
  00ec8	e5933440	 ldr         r3, [r3, #0x440]
  00ecc	e3130a01	 tst         r3, #1, 20
  00ed0	0a000008	 beq         |$LN6@OALIoctlGe|
  00ed4	e59f30e8	 ldr         r3, [pc, #0xE8]
  00ed8	e5933440	 ldr         r3, [r3, #0x440]
  00edc	e3130004	 tst         r3, #4
  00ee0	0a000004	 beq         |$LN6@OALIoctlGe|
  00ee4	e59f00e0	 ldr         r0, [pc, #0xE0]
  00ee8	eb000000	 bl          NKDbgPrintfW
  00eec	e3a03001	 mov         r3, #1
  00ef0	e58d3010	 str         r3, [sp, #0x10]
  00ef4	ea000001	 b           |$LN7@OALIoctlGe|
  00ef8		 |$LN6@OALIoctlGe|
  00ef8	e3a03000	 mov         r3, #0
  00efc	e58d3010	 str         r3, [sp, #0x10]
  00f00		 |$LN7@OALIoctlGe|

; 599  : 
; 600  :     if ((!pOutBuffer) || (outSize < ETH_LENGTH_OF_ADDRESS))

  00f00	e59d3030	 ldr         r3, [sp, #0x30]
  00f04	e3530000	 cmp         r3, #0
  00f08	0a000002	 beq         |$LN2@OALIoctlGe|
  00f0c	e59d3034	 ldr         r3, [sp, #0x34]
  00f10	e3530006	 cmp         r3, #6
  00f14	2a000004	 bcs         |$LN3@OALIoctlGe|
  00f18		 |$LN2@OALIoctlGe|

; 601  :     {
; 602  :         RETAILMSG(1, (L"Invalid parameter\r\n"));

  00f18	e59f00a8	 ldr         r0, [pc, #0xA8]
  00f1c	eb000000	 bl          NKDbgPrintfW

; 603  :         return FALSE;

  00f20	e3a03000	 mov         r3, #0
  00f24	e58d300c	 str         r3, [sp, #0xC]
  00f28	ea000020	 b           |$LN4@OALIoctlGe|
  00f2c		 |$LN3@OALIoctlGe|

; 604  :     }
; 605  : 
; 606  :     pMACAddress  = (UINT8 *)pOutBuffer;

  00f2c	e59d3030	 ldr         r3, [sp, #0x30]
  00f30	e58d3004	 str         r3, [sp, #4]

; 607  : 
; 608  :     // This is the global shared Args flag
; 609  :     pData = (UINT8 *)OALArgsQuery(OAL_ARGS_QUERY_ETHADDR_CPGMAC);

  00f34	e3a00045	 mov         r0, #0x45
  00f38	eb000000	 bl          OALArgsQuery
  00f3c	e58d0014	 str         r0, [sp, #0x14]
  00f40	e59d3014	 ldr         r3, [sp, #0x14]
  00f44	e58d3000	 str         r3, [sp]

; 610  : 
; 611  :     if (pData != NULL) {

  00f48	e59d3000	 ldr         r3, [sp]
  00f4c	e3530000	 cmp         r3, #0
  00f50	0a000005	 beq         |$LN1@OALIoctlGe|

; 612  :         memcpy(pMACAddress, pData, ETH_LENGTH_OF_ADDRESS);

  00f54	e3a02006	 mov         r2, #6
  00f58	e59d1000	 ldr         r1, [sp]
  00f5c	e59d0004	 ldr         r0, [sp, #4]
  00f60	eb000000	 bl          memcpy

; 613  :         bRet = TRUE;

  00f64	e3a03001	 mov         r3, #1
  00f68	e58d3008	 str         r3, [sp, #8]
  00f6c		 |$LN1@OALIoctlGe|

; 614  :     }
; 615  : 
; 616  :     OALMSG(OAL_IOCTL&&OAL_FUNC, (L"-IOCTL_HAL_GET_MAC_ADDRESS\r\n"));

  00f6c	e59f3050	 ldr         r3, [pc, #0x50]
  00f70	e5933440	 ldr         r3, [r3, #0x440]
  00f74	e3130a01	 tst         r3, #1, 20
  00f78	0a000008	 beq         |$LN8@OALIoctlGe|
  00f7c	e59f3040	 ldr         r3, [pc, #0x40]
  00f80	e5933440	 ldr         r3, [r3, #0x440]
  00f84	e3130004	 tst         r3, #4
  00f88	0a000004	 beq         |$LN8@OALIoctlGe|
  00f8c	e59f002c	 ldr         r0, [pc, #0x2C]
  00f90	eb000000	 bl          NKDbgPrintfW
  00f94	e3a03001	 mov         r3, #1
  00f98	e58d3018	 str         r3, [sp, #0x18]
  00f9c	ea000001	 b           |$LN9@OALIoctlGe|
  00fa0		 |$LN8@OALIoctlGe|
  00fa0	e3a03000	 mov         r3, #0
  00fa4	e58d3018	 str         r3, [sp, #0x18]
  00fa8		 |$LN9@OALIoctlGe|

; 617  : 
; 618  :     return bRet;

  00fa8	e59d3008	 ldr         r3, [sp, #8]
  00fac	e58d300c	 str         r3, [sp, #0xC]
  00fb0		 |$LN4@OALIoctlGe|

; 619  : }

  00fb0	e59d000c	 ldr         r0, [sp, #0xC]
  00fb4	e28dd01c	 add         sp, sp, #0x1C
  00fb8	e89d6000	 ldmia       sp, {sp, lr}
  00fbc	e12fff1e	 bx          lr
  00fc0		 |$LN13@OALIoctlGe|
  00fc0		 |$LN14@OALIoctlGe|
  00fc0	00000000	 DCD         |??_C@_1DK@FKFBOCNN@?$AA?9?$AAI?$AAO?$AAC?$AAT?$AAL?$AA_?$AAH?$AAA?$AAL?$AA_?$AAG?$AAE?$AAT?$AA_?$AAM?$AAA?$AAC?$AA_?$AAA?$AAD?$AAD?$AAR?$AAE?$AAS?$AAS?$AA?$AN?$AA?6?$AA?$AA@|
  00fc4		 |$LN15@OALIoctlGe|
  00fc4	00000000	 DCD         |dpCurSettings|
  00fc8		 |$LN16@OALIoctlGe|
  00fc8	00000000	 DCD         |??_C@_1CI@GCCMIBEH@?$AAI?$AAn?$AAv?$AAa?$AAl?$AAi?$AAd?$AA?5?$AAp?$AAa?$AAr?$AAa?$AAm?$AAe?$AAt?$AAe?$AAr?$AA?$AN?$AA?6?$AA?$AA@|
  00fcc		 |$LN17@OALIoctlGe|
  00fcc	00000000	 DCD         |??_C@_1DK@DPLCMFPG@?$AA?$CL?$AAI?$AAO?$AAC?$AAT?$AAL?$AA_?$AAH?$AAA?$AAL?$AA_?$AAG?$AAE?$AAT?$AA_?$AAM?$AAA?$AAC?$AA_?$AAA?$AAD?$AAD?$AAR?$AAE?$AAS?$AAS?$AA?$AN?$AA?6?$AA?$AA@|
  00fd0		 |$M50875|

			 ENDP  ; |OALIoctlGetMacAddress|

	EXPORT	|??_C@_1DK@PIJPCDOD@?$AA?9?$AAI?$AAO?$AAC?$AAT?$AAL?$AA_?$AAH?$AAA?$AAL?$AA_?$AAG?$AAE?$AAT?$AA_?$AAD?$AAI?$AAS?$AAP?$AAL?$AAA?$AAY?$AA_?$AAR?$AAE?$AAS?$AA?$AN?$AA?6?$AA?$AA@| [ DATA ] ; `string'
	EXPORT	|??_C@_1DK@JNHMAEMI@?$AA?$CL?$AAI?$AAO?$AAC?$AAT?$AAL?$AA_?$AAH?$AAA?$AAL?$AA_?$AAG?$AAE?$AAT?$AA_?$AAD?$AAI?$AAS?$AAP?$AAL?$AAA?$AAY?$AA_?$AAR?$AAE?$AAS?$AA?$AN?$AA?6?$AA?$AA@| [ DATA ] ; `string'
	EXPORT	|OALIoctlGetDisplayRes|

  00070			 AREA	 |.pdata|, PDATA
|$T50892| DCD	|$LN12@OALIoctlGe@2|
	DCD	0x40004d04

  00000			 AREA	 |.rdata|, DATA, READONLY
|??_C@_1DK@PIJPCDOD@?$AA?9?$AAI?$AAO?$AAC?$AAT?$AAL?$AA_?$AAH?$AAA?$AAL?$AA_?$AAG?$AAE?$AAT?$AA_?$AAD?$AAI?$AAS?$AAP?$AAL?$AAA?$AAY?$AA_?$AAR?$AAE?$AAS?$AA?$AN?$AA?6?$AA?$AA@| DCB "-"
	DCB	0x0, "I", 0x0, "O", 0x0, "C", 0x0, "T", 0x0, "L", 0x0, "_"
	DCB	0x0, "H", 0x0, "A", 0x0, "L", 0x0, "_", 0x0, "G", 0x0, "E"
	DCB	0x0, "T", 0x0, "_", 0x0, "D", 0x0, "I", 0x0, "S", 0x0, "P"
	DCB	0x0, "L", 0x0, "A", 0x0, "Y", 0x0, "_", 0x0, "R", 0x0, "E"
	DCB	0x0, "S", 0x0, 0xd, 0x0, 0xa, 0x0, 0x0, 0x0 ; `string'

  00000			 AREA	 |.rdata|, DATA, READONLY
|??_C@_1DK@JNHMAEMI@?$AA?$CL?$AAI?$AAO?$AAC?$AAT?$AAL?$AA_?$AAH?$AAA?$AAL?$AA_?$AAG?$AAE?$AAT?$AA_?$AAD?$AAI?$AAS?$AAP?$AAL?$AAA?$AAY?$AA_?$AAR?$AAE?$AAS?$AA?$AN?$AA?6?$AA?$AA@| DCB "+"
	DCB	0x0, "I", 0x0, "O", 0x0, "C", 0x0, "T", 0x0, "L", 0x0, "_"
	DCB	0x0, "H", 0x0, "A", 0x0, "L", 0x0, "_", 0x0, "G", 0x0, "E"
	DCB	0x0, "T", 0x0, "_", 0x0, "D", 0x0, "I", 0x0, "S", 0x0, "P"
	DCB	0x0, "L", 0x0, "A", 0x0, "Y", 0x0, "_", 0x0, "R", 0x0, "E"
	DCB	0x0, "S", 0x0, 0xd, 0x0, 0xa, 0x0, 0x0, 0x0 ; `string'
; Function compile flags: /Odtp

  00fd0			 AREA	 |.text|, CODE, ARM

  00fd0		 |OALIoctlGetDisplayRes| PROC

; 632  : {

  00fd0		 |$LN12@OALIoctlGe@2|
  00fd0	e1a0c00d	 mov         r12, sp
  00fd4	e92d000f	 stmdb       sp!, {r0 - r3}
  00fd8	e92d5000	 stmdb       sp!, {r12, lr}
  00fdc	e24dd01c	 sub         sp, sp, #0x1C
  00fe0		 |$M50889|

; 633  :     BOOL bRet = FALSE;

  00fe0	e3a03000	 mov         r3, #0
  00fe4	e58d3004	 str         r3, [sp, #4]

; 634  :     DWORD *pDispRes = NULL;

  00fe8	e3a03000	 mov         r3, #0
  00fec	e58d3008	 str         r3, [sp, #8]

; 635  :     UINT8 *pData = NULL;

  00ff0	e3a03000	 mov         r3, #0
  00ff4	e58d3000	 str         r3, [sp]

; 636  : 
; 637  : 	UNREFERENCED_PARAMETER(pOutSize);
; 638  : 	UNREFERENCED_PARAMETER(inpSize);
; 639  : 	UNREFERENCED_PARAMETER(pInpBuffer);
; 640  : 	UNREFERENCED_PARAMETER(code);
; 641  :     
; 642  :     OALMSG(OAL_IOCTL&&OAL_FUNC, (L"+IOCTL_HAL_GET_DISPLAY_RES\r\n"));

  00ff8	e59f30f8	 ldr         r3, [pc, #0xF8]
  00ffc	e5933440	 ldr         r3, [r3, #0x440]
  01000	e3130a01	 tst         r3, #1, 20
  01004	0a000008	 beq         |$LN6@OALIoctlGe@2|
  01008	e59f30e8	 ldr         r3, [pc, #0xE8]
  0100c	e5933440	 ldr         r3, [r3, #0x440]
  01010	e3130004	 tst         r3, #4
  01014	0a000004	 beq         |$LN6@OALIoctlGe@2|
  01018	e59f00e0	 ldr         r0, [pc, #0xE0]
  0101c	eb000000	 bl          NKDbgPrintfW
  01020	e3a03001	 mov         r3, #1
  01024	e58d3010	 str         r3, [sp, #0x10]
  01028	ea000001	 b           |$LN7@OALIoctlGe@2|
  0102c		 |$LN6@OALIoctlGe@2|
  0102c	e3a03000	 mov         r3, #0
  01030	e58d3010	 str         r3, [sp, #0x10]
  01034		 |$LN7@OALIoctlGe@2|

; 643  : 
; 644  :     if ((!pOutBuffer) || (outSize < sizeof(DWORD)))

  01034	e59d3030	 ldr         r3, [sp, #0x30]
  01038	e3530000	 cmp         r3, #0
  0103c	0a000002	 beq         |$LN2@OALIoctlGe@2|
  01040	e59d3034	 ldr         r3, [sp, #0x34]
  01044	e3530004	 cmp         r3, #4
  01048	2a000004	 bcs         |$LN3@OALIoctlGe@2|
  0104c		 |$LN2@OALIoctlGe@2|

; 645  :     {
; 646  :         RETAILMSG(1, (L"Invalid parameter\r\n"));

  0104c	e59f00a8	 ldr         r0, [pc, #0xA8]
  01050	eb000000	 bl          NKDbgPrintfW

; 647  :         return FALSE;

  01054	e3a03000	 mov         r3, #0
  01058	e58d300c	 str         r3, [sp, #0xC]
  0105c	ea000020	 b           |$LN4@OALIoctlGe@2|
  01060		 |$LN3@OALIoctlGe@2|

; 648  :     }
; 649  : 
; 650  :     pDispRes  = (DWORD *)pOutBuffer;

  01060	e59d3030	 ldr         r3, [sp, #0x30]
  01064	e58d3008	 str         r3, [sp, #8]

; 651  : 
; 652  :     // This is the global shared Args flag
; 653  :     pData = (UINT8 *)OALArgsQuery(OAL_ARGS_QUERY_DISP_RES);

  01068	e3a00047	 mov         r0, #0x47
  0106c	eb000000	 bl          OALArgsQuery
  01070	e58d0014	 str         r0, [sp, #0x14]
  01074	e59d3014	 ldr         r3, [sp, #0x14]
  01078	e58d3000	 str         r3, [sp]

; 654  : 
; 655  :     if (pData != NULL) {

  0107c	e59d3000	 ldr         r3, [sp]
  01080	e3530000	 cmp         r3, #0
  01084	0a000005	 beq         |$LN1@OALIoctlGe@2|

; 656  :         memcpy(pDispRes, pData, sizeof(DWORD));

  01088	e3a02004	 mov         r2, #4
  0108c	e59d1000	 ldr         r1, [sp]
  01090	e59d0008	 ldr         r0, [sp, #8]
  01094	eb000000	 bl          memcpy

; 657  :         bRet = TRUE;

  01098	e3a03001	 mov         r3, #1
  0109c	e58d3004	 str         r3, [sp, #4]
  010a0		 |$LN1@OALIoctlGe@2|

; 658  :     }
; 659  : 
; 660  :     OALMSG(OAL_IOCTL&&OAL_FUNC, (L"-IOCTL_HAL_GET_DISPLAY_RES\r\n"));

  010a0	e59f3050	 ldr         r3, [pc, #0x50]
  010a4	e5933440	 ldr         r3, [r3, #0x440]
  010a8	e3130a01	 tst         r3, #1, 20
  010ac	0a000008	 beq         |$LN8@OALIoctlGe@2|
  010b0	e59f3040	 ldr         r3, [pc, #0x40]
  010b4	e5933440	 ldr         r3, [r3, #0x440]
  010b8	e3130004	 tst         r3, #4
  010bc	0a000004	 beq         |$LN8@OALIoctlGe@2|
  010c0	e59f002c	 ldr         r0, [pc, #0x2C]
  010c4	eb000000	 bl          NKDbgPrintfW
  010c8	e3a03001	 mov         r3, #1
  010cc	e58d3018	 str         r3, [sp, #0x18]
  010d0	ea000001	 b           |$LN9@OALIoctlGe@2|
  010d4		 |$LN8@OALIoctlGe@2|
  010d4	e3a03000	 mov         r3, #0
  010d8	e58d3018	 str         r3, [sp, #0x18]
  010dc		 |$LN9@OALIoctlGe@2|

; 661  : 
; 662  :     return bRet;

  010dc	e59d3004	 ldr         r3, [sp, #4]
  010e0	e58d300c	 str         r3, [sp, #0xC]
  010e4		 |$LN4@OALIoctlGe@2|

; 663  : }

  010e4	e59d000c	 ldr         r0, [sp, #0xC]
  010e8	e28dd01c	 add         sp, sp, #0x1C
  010ec	e89d6000	 ldmia       sp, {sp, lr}
  010f0	e12fff1e	 bx          lr
  010f4		 |$LN13@OALIoctlGe@2|
  010f4		 |$LN14@OALIoctlGe@2|
  010f4	00000000	 DCD         |??_C@_1DK@PIJPCDOD@?$AA?9?$AAI?$AAO?$AAC?$AAT?$AAL?$AA_?$AAH?$AAA?$AAL?$AA_?$AAG?$AAE?$AAT?$AA_?$AAD?$AAI?$AAS?$AAP?$AAL?$AAA?$AAY?$AA_?$AAR?$AAE?$AAS?$AA?$AN?$AA?6?$AA?$AA@|
  010f8		 |$LN15@OALIoctlGe@2|
  010f8	00000000	 DCD         |dpCurSettings|
  010fc		 |$LN16@OALIoctlGe@2|
  010fc	00000000	 DCD         |??_C@_1CI@GCCMIBEH@?$AAI?$AAn?$AAv?$AAa?$AAl?$AAi?$AAd?$AA?5?$AAp?$AAa?$AAr?$AAa?$AAm?$AAe?$AAt?$AAe?$AAr?$AA?$AN?$AA?6?$AA?$AA@|
  01100		 |$LN17@OALIoctlGe@2|
  01100	00000000	 DCD         |??_C@_1DK@JNHMAEMI@?$AA?$CL?$AAI?$AAO?$AAC?$AAT?$AAL?$AA_?$AAH?$AAA?$AAL?$AA_?$AAG?$AAE?$AAT?$AA_?$AAD?$AAI?$AAS?$AAP?$AAL?$AAA?$AAY?$AA_?$AAR?$AAE?$AAS?$AA?$AN?$AA?6?$AA?$AA@|
  01104		 |$M50890|

			 ENDP  ; |OALIoctlGetDisplayRes|

	EXPORT	|??_C@_1DM@MHNEBIFL@?$AA?9?$AAI?$AAO?$AAC?$AAT?$AAL?$AA_?$AAH?$AAA?$AAL?$AA_?$AAC?$AAO?$AAN?$AAV?$AAE?$AAR?$AAT?$AA_?$AAC?$AAA?$AA_?$AAT?$AAO?$AA_?$AAP?$AAA?$AA?$AN?$AA?6?$AA?$AA@| [ DATA ] ; `string'
	EXPORT	|??_C@_1DM@BEKODFLK@?$AA?$CL?$AAI?$AAO?$AAC?$AAT?$AAL?$AA_?$AAH?$AAA?$AAL?$AA_?$AAC?$AAO?$AAN?$AAV?$AAE?$AAR?$AAT?$AA_?$AAC?$AAA?$AA_?$AAT?$AAO?$AA_?$AAP?$AAA?$AA?$AN?$AA?6?$AA?$AA@| [ DATA ] ; `string'
	EXPORT	|OALIoctlConvertCAtoPA|
	IMPORT	|OALVAtoPA|

  00078			 AREA	 |.pdata|, PDATA
|$T50907| DCD	|$LN13@OALIoctlCo|
	DCD	0x40004c04

  00000			 AREA	 |.rdata|, DATA, READONLY
|??_C@_1DM@MHNEBIFL@?$AA?9?$AAI?$AAO?$AAC?$AAT?$AAL?$AA_?$AAH?$AAA?$AAL?$AA_?$AAC?$AAO?$AAN?$AAV?$AAE?$AAR?$AAT?$AA_?$AAC?$AAA?$AA_?$AAT?$AAO?$AA_?$AAP?$AAA?$AA?$AN?$AA?6?$AA?$AA@| DCB "-"
	DCB	0x0, "I", 0x0, "O", 0x0, "C", 0x0, "T", 0x0, "L", 0x0, "_"
	DCB	0x0, "H", 0x0, "A", 0x0, "L", 0x0, "_", 0x0, "C", 0x0, "O"
	DCB	0x0, "N", 0x0, "V", 0x0, "E", 0x0, "R", 0x0, "T", 0x0, "_"
	DCB	0x0, "C", 0x0, "A", 0x0, "_", 0x0, "T", 0x0, "O", 0x0, "_"
	DCB	0x0, "P", 0x0, "A", 0x0, 0xd, 0x0, 0xa, 0x0, 0x0, 0x0 ; `string'

  00000			 AREA	 |.rdata|, DATA, READONLY
|??_C@_1DM@BEKODFLK@?$AA?$CL?$AAI?$AAO?$AAC?$AAT?$AAL?$AA_?$AAH?$AAA?$AAL?$AA_?$AAC?$AAO?$AAN?$AAV?$AAE?$AAR?$AAT?$AA_?$AAC?$AAA?$AA_?$AAT?$AAO?$AA_?$AAP?$AAA?$AA?$AN?$AA?6?$AA?$AA@| DCB "+"
	DCB	0x0, "I", 0x0, "O", 0x0, "C", 0x0, "T", 0x0, "L", 0x0, "_"
	DCB	0x0, "H", 0x0, "A", 0x0, "L", 0x0, "_", 0x0, "C", 0x0, "O"
	DCB	0x0, "N", 0x0, "V", 0x0, "E", 0x0, "R", 0x0, "T", 0x0, "_"
	DCB	0x0, "C", 0x0, "A", 0x0, "_", 0x0, "T", 0x0, "O", 0x0, "_"
	DCB	0x0, "P", 0x0, "A", 0x0, 0xd, 0x0, 0xa, 0x0, 0x0, 0x0 ; `string'
; Function compile flags: /Odtp

  01104			 AREA	 |.text|, CODE, ARM

  01104		 |OALIoctlConvertCAtoPA| PROC

; 674  : {    

  01104		 |$LN13@OALIoctlCo|
  01104	e1a0c00d	 mov         r12, sp
  01108	e92d000f	 stmdb       sp!, {r0 - r3}
  0110c	e92d5000	 stmdb       sp!, {r12, lr}
  01110	e24dd014	 sub         sp, sp, #0x14
  01114		 |$M50904|

; 675  :     DWORD *pPA = NULL;    

  01114	e3a03000	 mov         r3, #0
  01118	e58d3000	 str         r3, [sp]

; 676  :     
; 677  : 	UNREFERENCED_PARAMETER(pOutSize);
; 678  : 	UNREFERENCED_PARAMETER(code);
; 679  :     
; 680  :     OALMSG(OAL_IOCTL&&OAL_FUNC, (L"+IOCTL_HAL_CONVERT_CA_TO_PA\r\n"));

  0111c	e59f3104	 ldr         r3, [pc, #0x104]
  01120	e5933440	 ldr         r3, [r3, #0x440]
  01124	e3130a01	 tst         r3, #1, 20
  01128	0a000008	 beq         |$LN7@OALIoctlCo|
  0112c	e59f30f4	 ldr         r3, [pc, #0xF4]
  01130	e5933440	 ldr         r3, [r3, #0x440]
  01134	e3130004	 tst         r3, #4
  01138	0a000004	 beq         |$LN7@OALIoctlCo|
  0113c	e59f00ec	 ldr         r0, [pc, #0xEC]
  01140	eb000000	 bl          NKDbgPrintfW
  01144	e3a03001	 mov         r3, #1
  01148	e58d3008	 str         r3, [sp, #8]
  0114c	ea000001	 b           |$LN8@OALIoctlCo|
  01150		 |$LN7@OALIoctlCo|
  01150	e3a03000	 mov         r3, #0
  01154	e58d3008	 str         r3, [sp, #8]
  01158		 |$LN8@OALIoctlCo|

; 681  : 
; 682  :     if ((!pOutBuffer) || (outSize < sizeof(DWORD)))

  01158	e59d3028	 ldr         r3, [sp, #0x28]
  0115c	e3530000	 cmp         r3, #0
  01160	0a000002	 beq         |$LN3@OALIoctlCo|
  01164	e59d302c	 ldr         r3, [sp, #0x2C]
  01168	e3530004	 cmp         r3, #4
  0116c	2a000004	 bcs         |$LN4@OALIoctlCo|
  01170		 |$LN3@OALIoctlCo|

; 683  :     {
; 684  :         RETAILMSG(1, (L"Invalid parameter\r\n"));

  01170	e59f00b4	 ldr         r0, [pc, #0xB4]
  01174	eb000000	 bl          NKDbgPrintfW

; 685  :         return FALSE;

  01178	e3a03000	 mov         r3, #0
  0117c	e58d3004	 str         r3, [sp, #4]
  01180	ea000023	 b           |$LN5@OALIoctlCo|
  01184		 |$LN4@OALIoctlCo|

; 686  :     }
; 687  : 
; 688  :     if ((!pInpBuffer) || (inpSize < sizeof(DWORD)))

  01184	e59d3020	 ldr         r3, [sp, #0x20]
  01188	e3530000	 cmp         r3, #0
  0118c	0a000002	 beq         |$LN1@OALIoctlCo|
  01190	e59d3024	 ldr         r3, [sp, #0x24]
  01194	e3530004	 cmp         r3, #4
  01198	2a000004	 bcs         |$LN2@OALIoctlCo|
  0119c		 |$LN1@OALIoctlCo|

; 689  :     {
; 690  :         RETAILMSG(1, (L"Invalid parameter\r\n"));

  0119c	e59f0088	 ldr         r0, [pc, #0x88]
  011a0	eb000000	 bl          NKDbgPrintfW

; 691  :         return FALSE;

  011a4	e3a03000	 mov         r3, #0
  011a8	e58d3004	 str         r3, [sp, #4]
  011ac	ea000018	 b           |$LN5@OALIoctlCo|
  011b0		 |$LN2@OALIoctlCo|

; 692  :     }
; 693  :     
; 694  :     pPA = (DWORD *)pOutBuffer;    

  011b0	e59d3028	 ldr         r3, [sp, #0x28]
  011b4	e58d3000	 str         r3, [sp]

; 695  :     *pPA = OALVAtoPA(pInpBuffer);

  011b8	e59d0020	 ldr         r0, [sp, #0x20]
  011bc	eb000000	 bl          OALVAtoPA
  011c0	e58d000c	 str         r0, [sp, #0xC]
  011c4	e59d200c	 ldr         r2, [sp, #0xC]
  011c8	e59d3000	 ldr         r3, [sp]
  011cc	e5832000	 str         r2, [r3]

; 696  : 
; 697  :     OALMSG(OAL_IOCTL&&OAL_FUNC, (L"-IOCTL_HAL_CONVERT_CA_TO_PA\r\n"));

  011d0	e59f3050	 ldr         r3, [pc, #0x50]
  011d4	e5933440	 ldr         r3, [r3, #0x440]
  011d8	e3130a01	 tst         r3, #1, 20
  011dc	0a000008	 beq         |$LN9@OALIoctlCo|
  011e0	e59f3040	 ldr         r3, [pc, #0x40]
  011e4	e5933440	 ldr         r3, [r3, #0x440]
  011e8	e3130004	 tst         r3, #4
  011ec	0a000004	 beq         |$LN9@OALIoctlCo|
  011f0	e59f002c	 ldr         r0, [pc, #0x2C]
  011f4	eb000000	 bl          NKDbgPrintfW
  011f8	e3a03001	 mov         r3, #1
  011fc	e58d3010	 str         r3, [sp, #0x10]
  01200	ea000001	 b           |$LN10@OALIoctlCo|
  01204		 |$LN9@OALIoctlCo|
  01204	e3a03000	 mov         r3, #0
  01208	e58d3010	 str         r3, [sp, #0x10]
  0120c		 |$LN10@OALIoctlCo|

; 698  : 
; 699  :     return TRUE;

  0120c	e3a03001	 mov         r3, #1
  01210	e58d3004	 str         r3, [sp, #4]
  01214		 |$LN5@OALIoctlCo|

; 700  : }

  01214	e59d0004	 ldr         r0, [sp, #4]
  01218	e28dd014	 add         sp, sp, #0x14
  0121c	e89d6000	 ldmia       sp, {sp, lr}
  01220	e12fff1e	 bx          lr
  01224		 |$LN14@OALIoctlCo|
  01224		 |$LN15@OALIoctlCo|
  01224	00000000	 DCD         |??_C@_1DM@MHNEBIFL@?$AA?9?$AAI?$AAO?$AAC?$AAT?$AAL?$AA_?$AAH?$AAA?$AAL?$AA_?$AAC?$AAO?$AAN?$AAV?$AAE?$AAR?$AAT?$AA_?$AAC?$AAA?$AA_?$AAT?$AAO?$AA_?$AAP?$AAA?$AA?$AN?$AA?6?$AA?$AA@|
  01228		 |$LN16@OALIoctlCo|
  01228	00000000	 DCD         |dpCurSettings|
  0122c		 |$LN17@OALIoctlCo|
  0122c	00000000	 DCD         |??_C@_1CI@GCCMIBEH@?$AAI?$AAn?$AAv?$AAa?$AAl?$AAi?$AAd?$AA?5?$AAp?$AAa?$AAr?$AAa?$AAm?$AAe?$AAt?$AAe?$AAr?$AA?$AN?$AA?6?$AA?$AA@|
  01230		 |$LN18@OALIoctlCo|
  01230	00000000	 DCD         |??_C@_1DM@BEKODFLK@?$AA?$CL?$AAI?$AAO?$AAC?$AAT?$AAL?$AA_?$AAH?$AAA?$AAL?$AA_?$AAC?$AAO?$AAN?$AAV?$AAE?$AAR?$AAT?$AA_?$AAC?$AAA?$AA_?$AAT?$AAO?$AA_?$AAP?$AAA?$AA?$AN?$AA?6?$AA?$AA@|
  01234		 |$M50905|

			 ENDP  ; |OALIoctlConvertCAtoPA|

	END
