 pxa27x_ms_v1_pmu

 Timestamp is 522e91c7 (Tue Sep 10 11:28:07 2013)

 Preferred load address is 10000000

 Start         Length     Name                   Class
 0001:00000000 00000004H .CRT$XCA                CODE
 0001:00000004 00000004H .CRT$XCZ                CODE
 0001:00000008 00000004H .CRT$XIA                CODE
 0001:0000000c 00000004H .CRT$XIZ                CODE
 0001:00000010 00000004H .CRT$XPA                CODE
 0001:00000014 00000004H .CRT$XPZ                CODE
 0001:00000018 00000004H .CRT$XTA                CODE
 0001:0000001c 00000004H .CRT$XTZ                CODE
 0001:00000020 00000038H .rdata                  CODE
 0001:00000058 0000002dH .rdata$debug            CODE
 0001:00000088 00000880H .text                   CODE
 0001:00000908 00000014H .xdata                  CODE
 0001:0000091c 00000014H .idata$2                CODE
 0001:00000930 00000014H .idata$3                CODE
 0001:00000944 00000038H .idata$4                CODE
 0001:0000097c 0000000cH .idata$6                CODE
 0001:00000990 000001b2H .edata                  CODE
 0002:00000000 00000038H .idata$5                DATA
 0002:00000038 00000028H .data                   DATA
 0002:00000060 00000028H .bss                    DATA
 0003:00000000 000000a0H .pdata                  DATA

  Address         Publics by Value              Rva+Base       Lib:Object

 0000:00000000       ___safe_se_handler_count   00000000     <absolute>
 0000:00000000       ___safe_se_handler_table   00000000     <absolute>
 0001:00000000       __xc_a                     10001000     corelib0:crt0init.obj
 0001:00000004       __xc_z                     10001004     corelib0:crt0init.obj
 0001:00000008       __xi_a                     10001008     corelib0:crt0init.obj
 0001:0000000c       __xi_z                     1000100c     corelib0:crt0init.obj
 0001:00000010       __xp_a                     10001010     corelib0:crt0init.obj
 0001:00000014       __xp_z                     10001014     corelib0:crt0init.obj
 0001:00000018       __xt_a                     10001018     corelib0:crt0init.obj
 0001:0000001c       __xt_z                     1000101c     corelib0:crt0init.obj
 0001:0000003c       ??_C@_1BM@CAGEFPEO@?$AAX?$AAS?$AAC?$AA_?$AAP?$AAM?$AAU?$AA_?$AAA?$AAL?$AAL?$AAO?$AAC?$AA?$AA@ 1000103c     pmudll.obj
 0001:00000088       DllMain                    10001088 f   pmumain.obj
 0001:00000090       AllocatePMU                10001090 f   pmudll.obj
 0001:00000150       RemovePMUInterruptCallback 10001150 f   pmudll.obj
 0001:000001c8       GetNumberOfPossibleCoreClockFrequencies 100011c8 f   pmudll.obj
 0001:000001d0       GetPossibleCoreClockFrequencies 100011d0 f   pmudll.obj
 0001:00000208       GetNominalCoreClockFrequency 10001208 f   pmudll.obj
 0001:00000214       GetCurrentCoreClockFrequency 10001214 f   pmudll.obj
 0001:00000274       UnlockAndRestoreCoreClockFrequency 10001274 f   pmudll.obj
 0001:000002e0       AccessPMUReg               100012e0 f   pmudll.obj
 0001:0000039c       GetCPUId                   1000139c f   pmudll.obj
 0001:000003fc       GetOEMConfigData           100013fc f   pmudll.obj
 0001:00000494       ReleasePMUResources        10001494 f   pmudll.obj
 0001:00000528       KernelIoControl            10001528 f   coredll:COREDLL.dll
 0001:00000538       CloseHandle                10001538 f   coredll:COREDLL.dll
 0001:00000548       GetLastError               10001548 f   coredll:COREDLL.dll
 0001:00000558       CreateSemaphoreW           10001558 f   coredll:COREDLL.dll
 0001:00000568       ReleaseSemaphore           10001568 f   coredll:COREDLL.dll
 0001:0000067c       _DllMainCRTStartup         1000167c f   corelib0:pegdmain.obj
 0001:000007a8       _cexit                     100017a8 f   corelib0:cexit.obj
 0001:000007c4       _initterm                  100017c4 f   corelib0:crt0dat.obj
 0001:000007f8       _cinit                     100017f8 f   corelib0:crt0dat.obj
 0001:0000082c       __security_init_cookie     1000182c f   corelib0:seccinit.obj
 0001:00000888       malloc                     10001888 f   corelib1:COREDLL.dll
 0001:00000898       free                       10001898 f   corelib1:COREDLL.dll
 0001:000008a8       _XcptFilter                100018a8 f   corelib1:COREDLL.dll
 0001:000008b8       __C_specific_handler       100018b8 f   corelib1:COREDLL.dll
 0001:000008c8       __security_gen_cookie2     100018c8 f   corelib1:COREDLL.dll
 0001:000008d8       DeleteCriticalSection      100018d8 f   coredll:COREDLL.dll
 0001:000008e8       InterlockedExchange        100018e8 f   coredll:COREDLL.dll
 0001:000008f8       TerminateProcess           100018f8 f   coredll:COREDLL.dll
 0001:0000091c       __IMPORT_DESCRIPTOR_COREDLL 1000191c     coredll:COREDLL.dll
 0001:00000930       __NULL_IMPORT_DESCRIPTOR   10001930     coredll:COREDLL.dll
 0002:00000000       __imp_KernelIoControl      10002000     coredll:COREDLL.dll
 0002:00000004       __imp_CloseHandle          10002004     coredll:COREDLL.dll
 0002:00000008       __imp_GetLastError         10002008     coredll:COREDLL.dll
 0002:0000000c       __imp_CreateSemaphoreW     1000200c     coredll:COREDLL.dll
 0002:00000010       __imp_ReleaseSemaphore     10002010     coredll:COREDLL.dll
 0002:00000014       __imp_malloc               10002014     corelib1:COREDLL.dll
 0002:00000018       __imp_free                 10002018     corelib1:COREDLL.dll
 0002:0000001c       __imp__XcptFilter          1000201c     corelib1:COREDLL.dll
 0002:00000020       __imp___C_specific_handler 10002020     corelib1:COREDLL.dll
 0002:00000024       __imp___security_gen_cookie2 10002024     corelib1:COREDLL.dll
 0002:00000028       __imp_DeleteCriticalSection 10002028     coredll:COREDLL.dll
 0002:0000002c       __imp_InterlockedExchange  1000202c     coredll:COREDLL.dll
 0002:00000030       __imp_TerminateProcess     10002030     coredll:COREDLL.dll
 0002:00000034       \177COREDLL_NULL_THUNK_DATA 10002034     coredll:COREDLL.dll
 0002:00000058       __security_cookie          10002058     corelib0:seccinit.obj
 0002:0000005c       __security_cookie_complement 1000205c     corelib0:seccinit.obj
 0002:00000068       ?PVTuneInterrupt@@3PAXA    10002068     pmudll.obj
 0002:0000006c       ?PVTuneReleasePMU@@3PAXA   1000206c     pmudll.obj
 0002:00000070       ?PVTuneReleaseCCF@@3PAXA   10002070     pmudll.obj
 0002:00000074       _exitflag                  10002074     corelib0:cexit.obj
 0002:00000078       __onexitend                10002078     <common>
 0002:0000007c       __onexitbegin              1000207c     <common>
 0002:00000080       g_pcsExit                  10002080     <common>
 0002:00000084       _pRawDllMain               10002084     <common>

 entry point at        0001:0000067c

 Static symbols

 0001:00000580       _DllMainCRTStartupHelper   10001580 f   corelib0:pegdmain.obj
 0001:000006ac       doexit                     100016ac f   corelib0:cexit.obj
