; Listing generated by Microsoft (R) Optimizing Compiler Version 14.01.60511.01 

	TTL	C:\WINCE600\PLATFORM\COMMON\SRC\SOC\OMAP2420_MS_V1\WAVEDEV\devctxt.cpp
	CODE32

  00000			 AREA	 |.drectve|, DRECTVE
	DCB	"-defaultlib:LIBCMT "
	DCB	"-defaultlib:OLDNAMES "

	EXPORT	|??0StreamContext@@QAA@XZ|		; StreamContext::StreamContext
	EXPORT	|??_7StreamContext@@6B@| [ DATA ]	; StreamContext::`vftable'
	EXPORT	|?DoCallbackReturnBuffer@StreamContext@@UAAXPAUwavehdr_tag@@@Z| ; StreamContext::DoCallbackReturnBuffer
	EXPORT	|?DoCallbackStreamOpened@StreamContext@@UAAXXZ| ; StreamContext::DoCallbackStreamOpened
	EXPORT	|?DoCallbackStreamClosed@StreamContext@@UAAXXZ| ; StreamContext::DoCallbackStreamClosed
	EXPORT	|?GainChange@StreamContext@@UAAXXZ|	; StreamContext::GainChange
	IMPORT	|??_EStreamContext@@UAAPAXI@Z|, WEAK |??_GStreamContext@@UAAPAXI@Z| ; StreamContext::`vector deleting destructor', StreamContext::`scalar deleting destructor'
	IMPORT	|?Open@StreamContext@@UAAJPAVDeviceContext@@PAUwaveopendesc_tag@@K@Z| ; StreamContext::Open
	IMPORT	|?Close@StreamContext@@UAAKXZ|		; StreamContext::Close
	IMPORT	|?GetPos@StreamContext@@UAAKPAUmmtime_tag@@@Z| ; StreamContext::GetPos
	IMPORT	|?Run@StreamContext@@UAAKXZ|		; StreamContext::Run
	IMPORT	|?Stop@StreamContext@@UAAKXZ|		; StreamContext::Stop
	IMPORT	|?Reset@StreamContext@@UAAKXZ|		; StreamContext::Reset
	IMPORT	|_purecall|
	IMPORT	|?QueueBuffer@StreamContext@@UAAKPAUwavehdr_tag@@@Z| ; StreamContext::QueueBuffer
; File c:\wince600\platform\common\src\soc\omap2420_ms_v1\wavedev\strmctxt.h

  00000			 AREA	 |.pdata|, PDATA
|$T37644| DCD	|$LN5@StreamCont|
	DCD	0x40000500

  00000			 AREA	 |.rdata|, DATA, READONLY
|??_7StreamContext@@6B@| DCD |??_EStreamContext@@UAAPAXI@Z| ; StreamContext::`vftable'
	DCD	|?Open@StreamContext@@UAAJPAVDeviceContext@@PAUwaveopendesc_tag@@K@Z|
	DCD	|?Close@StreamContext@@UAAKXZ|
	DCD	|?GetPos@StreamContext@@UAAKPAUmmtime_tag@@@Z|
	DCD	|?Run@StreamContext@@UAAKXZ|
	DCD	|?Stop@StreamContext@@UAAKXZ|
	DCD	|?Reset@StreamContext@@UAAKXZ|
	DCD	|_purecall|
	DCD	|?DoCallbackReturnBuffer@StreamContext@@UAAXPAUwavehdr_tag@@@Z|
	DCD	|?DoCallbackStreamOpened@StreamContext@@UAAXXZ|
	DCD	|?DoCallbackStreamClosed@StreamContext@@UAAXXZ|
	DCD	|?QueueBuffer@StreamContext@@UAAKPAUwavehdr_tag@@@Z|
	DCD	|?GainChange@StreamContext@@UAAXXZ|
; Function compile flags: /Ogspy

  00000			 AREA	 |.text|, CODE, ARM

  00000		 |??0StreamContext@@QAA@XZ| PROC	; StreamContext::StreamContext

; 76   :     StreamContext() {};

  00000		 |$LN5@StreamCont|
  00000		 |$M37641|
  00000	e1a02000	 mov         r2, r0
  00004	e59f3004	 ldr         r3, [pc, #4]
  00008	e5823000	 str         r3, [r2]
  0000c	e12fff1e	 bx          lr
  00010		 |$LN6@StreamCont|
  00010		 |$LN7@StreamCont|
  00010	00000000	 DCD         |??_7StreamContext@@6B@|
  00014		 |$M37642|

			 ENDP  ; |??0StreamContext@@QAA@XZ|, StreamContext::StreamContext

	EXPORT	|??1StreamContext@@UAA@XZ|		; StreamContext::~StreamContext

  00000			 AREA	 |.pdata|, PDATA
|$T37654| DCD	|$LN5@StreamCont@2|
	DCD	0x40000400
; Function compile flags: /Ogspy

  00000			 AREA	 |.text|, CODE, ARM

  00000		 |??1StreamContext@@UAA@XZ| PROC	; StreamContext::~StreamContext

; 77   :     virtual ~StreamContext() {};

  00000		 |$LN5@StreamCont@2|
  00000		 |$M37651|
  00000	e59f3004	 ldr         r3, [pc, #4]
  00004	e5803000	 str         r3, [r0]
  00008	e12fff1e	 bx          lr
  0000c		 |$LN6@StreamCont@2|
  0000c		 |$LN7@StreamCont@2|
  0000c	00000000	 DCD         |??_7StreamContext@@6B@|
  00010		 |$M37652|

			 ENDP  ; |??1StreamContext@@UAA@XZ|, StreamContext::~StreamContext

	EXPORT	|?DoDriverCallback@StreamContext@@QAAXIKK@Z| ; StreamContext::DoDriverCallback

  00000			 AREA	 |.pdata|, PDATA
|$T37667| DCD	|$LN5@DoDriverCa|
	DCD	0x40000e02
; Function compile flags: /Ogspy

  00000			 AREA	 |.text|, CODE, ARM

  00000		 |?DoDriverCallback@StreamContext@@QAAXIKK@Z| PROC ; StreamContext::DoDriverCallback

; 97   :     {

  00000		 |$LN5@DoDriverCa|
  00000	e92d4030	 stmdb       sp!, {r4, r5, lr}
  00004	e24dd004	 sub         sp, sp, #4
  00008		 |$M37664|
  00008	e1a05003	 mov         r5, r3
  0000c	e1a03002	 mov         r3, r2
  00010	e1a0e000	 mov         lr, r0

; 98   :         m_pfnCallback(m_hWave,msg,m_dwInstance,dwParam1,dwParam2);

  00014	e59e2020	 ldr         r2, [lr, #0x20]
  00018	e59e0018	 ldr         r0, [lr, #0x18]
  0001c	e59e401c	 ldr         r4, [lr, #0x1C]
  00020	e58d5000	 str         r5, [sp]
  00024	e1a0e00f	 mov         lr, pc
  00028	e12fff14	 bx          r4

; 99   :     }

  0002c	e28dd004	 add         sp, sp, #4
  00030	e8bd4030	 ldmia       sp!, {r4, r5, lr}
  00034	e12fff1e	 bx          lr
  00038		 |$M37665|

			 ENDP  ; |?DoDriverCallback@StreamContext@@QAAXIKK@Z|, StreamContext::DoDriverCallback


  00000			 AREA	 |.pdata|, PDATA
|$T37679| DCD	|$LN7@DoCallback|
	DCD	0x40001002
; Function compile flags: /Ogspy

  00000			 AREA	 |.text|, CODE, ARM

  00000		 |?DoCallbackReturnBuffer@StreamContext@@UAAXPAUwavehdr_tag@@@Z| PROC ; StreamContext::DoCallbackReturnBuffer

; 101  :     {

  00000		 |$LN7@DoCallback|
  00000	e92d4030	 stmdb       sp!, {r4, r5, lr}
  00004	e24dd004	 sub         sp, sp, #4
  00008		 |$M37676|
  00008	e1a03001	 mov         r3, r1
  0000c	e1a01000	 mov         r1, r0

; 102  :         DoDriverCallback(WOM_DONE,(DWORD)lpHdr,0);

  00010	e5912020	 ldr         r2, [r1, #0x20]
  00014	e5910018	 ldr         r0, [r1, #0x18]
  00018	e591401c	 ldr         r4, [r1, #0x1C]
  0001c	e3a01c03	 mov         r1, #3, 24
  00020	e3a05000	 mov         r5, #0
  00024	e38110bd	 orr         r1, r1, #0xBD
  00028	e58d5000	 str         r5, [sp]
  0002c	e1a0e00f	 mov         lr, pc
  00030	e12fff14	 bx          r4

; 103  :     }

  00034	e28dd004	 add         sp, sp, #4
  00038	e8bd4030	 ldmia       sp!, {r4, r5, lr}
  0003c	e12fff1e	 bx          lr
  00040		 |$M37677|

			 ENDP  ; |?DoCallbackReturnBuffer@StreamContext@@UAAXPAUwavehdr_tag@@@Z|, StreamContext::DoCallbackReturnBuffer

	IMPORT	|?g_pHWContext@@3PAVHardwareContext@@A|	; g_pHWContext

  00000			 AREA	 |.pdata|, PDATA
|$T37690| DCD	|$LN7@DoCallback@2|
	DCD	0x40001702
; Function compile flags: /Ogspy

  00000			 AREA	 |.text|, CODE, ARM

  00000		 |?DoCallbackStreamOpened@StreamContext@@UAAXXZ| PROC ; StreamContext::DoCallbackStreamOpened

; 105  :     {

  00000		 |$LN7@DoCallback@2|
  00000	e92d4030	 stmdb       sp!, {r4, r5, lr}
  00004	e24dd004	 sub         sp, sp, #4
  00008		 |$M37687|
  00008	e1a04000	 mov         r4, r0

; 106  :         g_pHWContext->OutputStreamOpened();

  0000c	e59f3044	 ldr         r3, [pc, #0x44]
  00010	e5930000	 ldr         r0, [r3]
  00014	e5903000	 ldr         r3, [r0]
  00018	e5933058	 ldr         r3, [r3, #0x58]
  0001c	e1a0e00f	 mov         lr, pc
  00020	e12fff13	 bx          r3

; 107  :         DEBUGMSG(ZONE_WODM && ZONE_VERBOSE,(TEXT("WODM: DoCallbackStreamOpened\r\n")));
; 108  :         DoDriverCallback(WOM_OPEN,0,0);

  00024	e3a03c03	 mov         r3, #3, 24
  00028	e5942020	 ldr         r2, [r4, #0x20]
  0002c	e5940018	 ldr         r0, [r4, #0x18]
  00030	e594401c	 ldr         r4, [r4, #0x1C]
  00034	e3a05000	 mov         r5, #0
  00038	e38310bb	 orr         r1, r3, #0xBB
  0003c	e3a03000	 mov         r3, #0
  00040	e58d5000	 str         r5, [sp]
  00044	e1a0e00f	 mov         lr, pc
  00048	e12fff14	 bx          r4

; 109  :     }

  0004c	e28dd004	 add         sp, sp, #4
  00050	e8bd4030	 ldmia       sp!, {r4, r5, lr}
  00054	e12fff1e	 bx          lr
  00058		 |$LN8@DoCallback@2|
  00058		 |$LN9@DoCallback@2|
  00058	00000000	 DCD         |?g_pHWContext@@3PAVHardwareContext@@A|
  0005c		 |$M37688|

			 ENDP  ; |?DoCallbackStreamOpened@StreamContext@@UAAXXZ|, StreamContext::DoCallbackStreamOpened


  00000			 AREA	 |.pdata|, PDATA
|$T37703| DCD	|$LN7@DoCallback@3|
	DCD	0x40001602
; Function compile flags: /Ogspy

  00000			 AREA	 |.text|, CODE, ARM

  00000		 |?DoCallbackStreamClosed@StreamContext@@UAAXXZ| PROC ; StreamContext::DoCallbackStreamClosed

; 111  :     {

  00000		 |$LN7@DoCallback@3|
  00000	e92d4030	 stmdb       sp!, {r4, r5, lr}
  00004	e24dd004	 sub         sp, sp, #4
  00008		 |$M37700|
  00008	e1a04000	 mov         r4, r0

; 112  :         g_pHWContext->OutputStreamClosed();

  0000c	e59f3040	 ldr         r3, [pc, #0x40]
  00010	e5930000	 ldr         r0, [r3]
  00014	e5903000	 ldr         r3, [r0]
  00018	e593305c	 ldr         r3, [r3, #0x5C]
  0001c	e1a0e00f	 mov         lr, pc
  00020	e12fff13	 bx          r3

; 113  :         DEBUGMSG(ZONE_WODM && ZONE_VERBOSE,(TEXT("WODM: DoCallbackStreamClosed\r\n")));
; 114  :         DoDriverCallback(WOM_CLOSE,0,0);

  00024	e5942020	 ldr         r2, [r4, #0x20]
  00028	e5940018	 ldr         r0, [r4, #0x18]
  0002c	e3a05000	 mov         r5, #0
  00030	e594401c	 ldr         r4, [r4, #0x1C]
  00034	e58d5000	 str         r5, [sp]
  00038	e3a03000	 mov         r3, #0
  0003c	e3a01fef	 mov         r1, #0xEF, 30
  00040	e1a0e00f	 mov         lr, pc
  00044	e12fff14	 bx          r4

; 115  :     }

  00048	e28dd004	 add         sp, sp, #4
  0004c	e8bd4030	 ldmia       sp!, {r4, r5, lr}
  00050	e12fff1e	 bx          lr
  00054		 |$LN8@DoCallback@3|
  00054		 |$LN9@DoCallback@3|
  00054	00000000	 DCD         |?g_pHWContext@@3PAVHardwareContext@@A|
  00058		 |$M37701|

			 ENDP  ; |?DoCallbackStreamClosed@StreamContext@@UAAXXZ|, StreamContext::DoCallbackStreamClosed

	IMPORT	|?MapGain@StreamContext@@QAAKK@Z|	; StreamContext::MapGain

  00000			 AREA	 |.pdata|, PDATA
|$T37713| DCD	|$LN5@GainChange|
	DCD	0x40000701
; Function compile flags: /Ogspy

  00000			 AREA	 |.text|, CODE, ARM

  00000		 |?GainChange@StreamContext@@UAAXXZ| PROC ; StreamContext::GainChange

; 155  :     {

  00000		 |$LN5@GainChange|
  00000	e92d4010	 stmdb       sp!, {r4, lr}
  00004		 |$M37710|
  00004	e1a04000	 mov         r4, r0

; 156  :         m_fxpGain = MapGain(m_dwGain);

  00008	e5941058	 ldr         r1, [r4, #0x58]
  0000c	eb000000	 bl          |?MapGain@StreamContext@@QAAKK@Z|
  00010	e5840060	 str         r0, [r4, #0x60]

; 157  :     }

  00014	e8bd4010	 ldmia       sp!, {r4, lr}
  00018	e12fff1e	 bx          lr
  0001c		 |$M37711|

			 ENDP  ; |?GainChange@StreamContext@@UAAXXZ|, StreamContext::GainChange

	IMPORT	|??3@YAXPAX@Z|				; operator delete

  00000			 AREA	 |.pdata|, PDATA
|$T37727| DCD	|$LN8@scalar|
	DCD	0x40000a01
; Function compile flags: /Ogspy

  00000			 AREA	 |.text|, CODE, ARM

  00000		 |??_GStreamContext@@UAAPAXI@Z| PROC	; StreamContext::`scalar deleting destructor'
  00000		 |$LN8@scalar|
  00000	e92d4010	 stmdb       sp!, {r4, lr}
  00004		 |$M37724|
  00004	e1a04000	 mov         r4, r0
  00008	e59f3014	 ldr         r3, [pc, #0x14]
  0000c	e3110001	 tst         r1, #1
  00010	e5843000	 str         r3, [r4]
  00014	1b000000	 blne        |??3@YAXPAX@Z|
  00018	e1a00004	 mov         r0, r4
  0001c	e8bd4010	 ldmia       sp!, {r4, lr}
  00020	e12fff1e	 bx          lr
  00024		 |$LN9@scalar|
  00024		 |$LN10@scalar|
  00024	00000000	 DCD         |??_7StreamContext@@6B@|
  00028		 |$M37725|

			 ENDP  ; |??_GStreamContext@@UAAPAXI@Z|, StreamContext::`scalar deleting destructor'

	EXPORT	|?IsSupportedFormat@DeviceContext@@UAAHPAUtWAVEFORMATEX@@@Z| ; DeviceContext::IsSupportedFormat
; File c:\wince600\platform\common\src\soc\omap2420_ms_v1\wavedev\devctxt.cpp

  00000			 AREA	 |.pdata|, PDATA
|$T37739| DCD	|$LN10@IsSupporte|
	DCD	0x40002300
; Function compile flags: /Ogspy

  00000			 AREA	 |.text|, CODE, ARM

  00000		 |?IsSupportedFormat@DeviceContext@@UAAHPAUtWAVEFORMATEX@@@Z| PROC ; DeviceContext::IsSupportedFormat

; 29   : {

  00000		 |$LN10@IsSupporte|
  00000		 |$M37736|

; 30   :     if (lpFormat->wFormatTag != WAVE_FORMAT_PCM)

  00000	e5d12000	 ldrb        r2, [r1]
  00004	e5d13001	 ldrb        r3, [r1, #1]
  00008	e1823403	 orr         r3, r2, r3, lsl #8
  0000c	e3530001	 cmp         r3, #1

; 31   :         return FALSE;

  00010	1a00001b	 bne         |$LN1@IsSupporte|

; 32   : 
; 33   :     if (  (lpFormat->nChannels!=1) && (lpFormat->nChannels!=2) )

  00014	e5d12002	 ldrb        r2, [r1, #2]
  00018	e5d13003	 ldrb        r3, [r1, #3]
  0001c	e1823403	 orr         r3, r2, r3, lsl #8
  00020	e3530001	 cmp         r3, #1
  00024	0a000001	 beq         |$LN4@IsSupporte|
  00028	e3530002	 cmp         r3, #2

; 34   :         return FALSE;

  0002c	1a000014	 bne         |$LN1@IsSupporte|
  00030		 |$LN4@IsSupporte|

; 35   : 
; 36   :     if (  (lpFormat->wBitsPerSample!=8) && (lpFormat->wBitsPerSample!=16) )

  00030	e5d1200e	 ldrb        r2, [r1, #0xE]
  00034	e5d1300f	 ldrb        r3, [r1, #0xF]
  00038	e1823403	 orr         r3, r2, r3, lsl #8
  0003c	e3530008	 cmp         r3, #8
  00040	0a000001	 beq         |$LN3@IsSupporte|
  00044	e3530010	 cmp         r3, #0x10

; 37   :         return FALSE;

  00048	1a00000d	 bne         |$LN1@IsSupporte|
  0004c		 |$LN3@IsSupporte|

; 38   : 
; 39   :     if (lpFormat->nSamplesPerSec < 100 || 
; 40   :         lpFormat->nSamplesPerSec > 48000)

  0004c	e5d10004	 ldrb        r0, [r1, #4]
  00050	e5d13005	 ldrb        r3, [r1, #5]
  00054	e5d12006	 ldrb        r2, [r1, #6]
  00058	e5d11007	 ldrb        r1, [r1, #7]
  0005c	e1803403	 orr         r3, r0, r3, lsl #8
  00060	e1833802	 orr         r3, r3, r2, lsl #16
  00064	e1832c01	 orr         r2, r3, r1, lsl #24
  00068	e3520064	 cmp         r2, #0x64
  0006c	3a000004	 bcc         |$LN1@IsSupporte|
  00070	e3a03cbb	 mov         r3, #0xBB, 24
  00074	e3833080	 orr         r3, r3, #0x80
  00078	e1520003	 cmp         r2, r3

; 42   : 
; 43   :     return TRUE;

  0007c	93a00001	 movls       r0, #1

; 44   : }

  00080	912fff1e	 bxls        lr
  00084		 |$LN1@IsSupporte|

; 41   :         return FALSE;

  00084	e3a00000	 mov         r0, #0

; 44   : }

  00088	e12fff1e	 bx          lr
  0008c		 |$M37737|

			 ENDP  ; |?IsSupportedFormat@DeviceContext@@UAAHPAUtWAVEFORMATEX@@@Z|, DeviceContext::IsSupportedFormat

	EXPORT	|?IsSupportedFormat@OutputDeviceContext@@UAAHPAUtWAVEFORMATEX@@@Z| ; OutputDeviceContext::IsSupportedFormat

  00000			 AREA	 |.pdata|, PDATA
|$T37750| DCD	|$LN6@IsSupporte@2|
	DCD	0x40000b01
; Function compile flags: /Ogspy

  00000			 AREA	 |.text|, CODE, ARM

  00000		 |?IsSupportedFormat@OutputDeviceContext@@UAAHPAUtWAVEFORMATEX@@@Z| PROC ; OutputDeviceContext::IsSupportedFormat

; 55   : {

  00000		 |$LN6@IsSupporte@2|
  00000	e52de004	 str         lr, [sp, #-4]!
  00004		 |$M37747|

; 56   :     if (lpFormat->wFormatTag == WAVE_FORMAT_MIDI)

  00004	e5d12000	 ldrb        r2, [r1]
  00008	e5d13001	 ldrb        r3, [r1, #1]
  0000c	e1823403	 orr         r3, r2, r3, lsl #8
  00010	e3530a03	 cmp         r3, #3, 20

; 57   :     {
; 58   :         return TRUE;

  00014	03a00001	 moveq       r0, #1

; 62   : }

  00018	049de004	 ldreq       lr, [sp], #4
  0001c	012fff1e	 bxeq        lr

; 59   :     }
; 60   : 
; 61   :     return DeviceContext::IsSupportedFormat(lpFormat);

  00020	eb000000	 bl          |?IsSupportedFormat@DeviceContext@@UAAHPAUtWAVEFORMATEX@@@Z|

; 62   : }

  00024	e49de004	 ldr         lr, [sp], #4
  00028	e12fff1e	 bx          lr
  0002c		 |$M37748|

			 ENDP  ; |?IsSupportedFormat@OutputDeviceContext@@UAAHPAUtWAVEFORMATEX@@@Z|, OutputDeviceContext::IsSupportedFormat

	EXPORT	|?NewStream@DeviceContext@@QAAXPAVStreamContext@@@Z| ; DeviceContext::NewStream

  00000			 AREA	 |.pdata|, PDATA
|$T37761| DCD	|$LN8@NewStream|
	DCD	0x40000800
; Function compile flags: /Ogspy

  00000			 AREA	 |.text|, CODE, ARM

  00000		 |?NewStream@DeviceContext@@QAAXPAVStreamContext@@@Z| PROC ; DeviceContext::NewStream

; 74   : {

  00000		 |$LN8@NewStream|
  00000		 |$M37758|

; 75   :     InsertTailList(&m_StreamList,&pStreamContext->m_Link);

  00000	e2800004	 add         r0, r0, #4
  00004	e5903004	 ldr         r3, [r0, #4]
  00008	e2812004	 add         r2, r1, #4
  0000c	e5810004	 str         r0, [r1, #4]
  00010	e5813008	 str         r3, [r1, #8]
  00014	e5832000	 str         r2, [r3]
  00018	e5802004	 str         r2, [r0, #4]

; 76   : }

  0001c	e12fff1e	 bx          lr
  00020		 |$M37759|

			 ENDP  ; |?NewStream@DeviceContext@@QAAXPAVStreamContext@@@Z|, DeviceContext::NewStream

	EXPORT	|?DeleteStream@DeviceContext@@QAAXPAVStreamContext@@@Z| ; DeviceContext::DeleteStream

  00000			 AREA	 |.pdata|, PDATA
|$T37770| DCD	|$LN8@DeleteStre|
	DCD	0x40000700
; Function compile flags: /Ogspy

  00000			 AREA	 |.text|, CODE, ARM

  00000		 |?DeleteStream@DeviceContext@@QAAXPAVStreamContext@@@Z| PROC ; DeviceContext::DeleteStream

; 88   : {

  00000		 |$LN8@DeleteStre|
  00000		 |$M37767|

; 89   :     RemoveEntryList(&pStreamContext->m_Link);

  00000	e5912008	 ldr         r2, [r1, #8]
  00004	e5913004	 ldr         r3, [r1, #4]
  00008	e5823000	 str         r3, [r2]
  0000c	e5912004	 ldr         r2, [r1, #4]
  00010	e5913008	 ldr         r3, [r1, #8]
  00014	e5823004	 str         r3, [r2, #4]

; 90   : }

  00018	e12fff1e	 bx          lr
  0001c		 |$M37768|

			 ENDP  ; |?DeleteStream@DeviceContext@@QAAXPAVStreamContext@@@Z|, DeviceContext::DeleteStream

	EXPORT	|?TransferBuffer@DeviceContext@@QAAPAEPAE0PAK@Z| ; DeviceContext::TransferBuffer
	IMPORT	|?Release@StreamContext@@QAAJXZ|	; StreamContext::Release
	IMPORT	|?AddRef@StreamContext@@QAAJXZ|		; StreamContext::AddRef

  00000			 AREA	 |.pdata|, PDATA
|$T37789| DCD	|$LN11@TransferBu|
	DCD	0x40002902
; Function compile flags: /Ogspy

  00000			 AREA	 |.text|, CODE, ARM

  00000		 |?TransferBuffer@DeviceContext@@QAAPAEPAE0PAK@Z| PROC ; DeviceContext::TransferBuffer

; 102  : {

  00000		 |$LN11@TransferBu|
  00000	e92d4ff0	 stmdb       sp!, {r4 - r11, lr}
  00004	e24dd008	 sub         sp, sp, #8
  00008		 |$M37786|
  00008	e1a09003	 mov         r9, r3
  0000c	e58d9004	 str         r9, [sp, #4]
  00010	e58d2000	 str         r2, [sp]
  00014	e1a0b001	 mov         r11, r1
  00018	e1a08000	 mov         r8, r0

; 103  :     PLIST_ENTRY pListEntry;
; 104  :     StreamContext *pStreamContext;
; 105  :     PBYTE pBufferLastThis;
; 106  :     PBYTE pBufferLast=pBuffer;
; 107  :     DWORD NumStreams=0;
; 108  : 
; 109  : 
; 110  :     pListEntry = m_StreamList.Flink;

  0001c	e5b8a004	 ldr         r10, [r8, #4]!
  00020	e1a0600b	 mov         r6, r11
  00024	e3a07000	 mov         r7, #0

; 111  :     while (pListEntry != &m_StreamList)

  00028	e15a0008	 cmp         r10, r8
  0002c	0a000016	 beq         |$LN4@TransferBu|

; 102  : {

  00030	e1a09002	 mov         r9, r2
  00034		 |$LL5@TransferBu|

; 112  :     {
; 113  :         // Get a pointer to the stream context
; 114  :         pStreamContext = CONTAINING_RECORD(pListEntry,StreamContext,m_Link);

  00034	e24a5004	 sub         r5, r10, #4

; 115  : 
; 116  :         // Note: The stream context may be closed and removed from the list inside
; 117  :         // of Render, and the context may be freed as soon as we call Release.
; 118  :         // Therefore we need to grab the next Flink first in case the
; 119  :         // entry disappears out from under us.
; 120  :         pListEntry = pListEntry->Flink;
; 121  : 
; 122  :         // Render buffers
; 123  :         pStreamContext->AddRef();

  00038	e59aa000	 ldr         r10, [r10]
  0003c	e1a00005	 mov         r0, r5
  00040	eb000000	 bl          |?AddRef@StreamContext@@QAAJXZ|

; 124  :         pBufferLastThis = pStreamContext->Render(pBuffer, pBufferEnd, pBufferLast);

  00044	e595e000	 ldr         lr, [r5]
  00048	e1a03006	 mov         r3, r6
  0004c	e1a02009	 mov         r2, r9
  00050	e59e401c	 ldr         r4, [lr, #0x1C]
  00054	e1a0100b	 mov         r1, r11
  00058	e1a00005	 mov         r0, r5
  0005c	e1a0e00f	 mov         lr, pc
  00060	e12fff14	 bx          r4
  00064	e1a04000	 mov         r4, r0

; 125  :         pStreamContext->Release();

  00068	e1a00005	 mov         r0, r5
  0006c	eb000000	 bl          |?Release@StreamContext@@QAAJXZ|

; 126  :         if (pBufferLastThis>pBuffer)

  00070	e154000b	 cmp         r4, r11

; 127  :         {
; 128  :             NumStreams++;

  00074	82877001	 addhi       r7, r7, #1

; 129  :         }
; 130  :         if (pBufferLast < pBufferLastThis)

  00078	e1560004	 cmp         r6, r4

; 131  :         {
; 132  :             pBufferLast = pBufferLastThis;

  0007c	31a06004	 movcc       r6, r4
  00080	e15a0008	 cmp         r10, r8
  00084	1affffea	 bne         |$LL5@TransferBu|

; 102  : {

  00088	e59d9004	 ldr         r9, [sp, #4]
  0008c		 |$LN4@TransferBu|

; 133  :         }
; 134  :     }
; 135  : 
; 136  :     if (pNumStreams)

  0008c	e3590000	 cmp         r9, #0

; 137  :     {
; 138  :         *pNumStreams=NumStreams;

  00090	15897000	 strne       r7, [r9]

; 139  :     }
; 140  :     return pBufferLast;
; 141  : }

  00094	e1a00006	 mov         r0, r6
  00098	e28dd008	 add         sp, sp, #8
  0009c	e8bd4ff0	 ldmia       sp!, {r4 - r11, lr}
  000a0	e12fff1e	 bx          lr
  000a4		 |$M37787|

			 ENDP  ; |?TransferBuffer@DeviceContext@@QAAPAEPAE0PAK@Z|, DeviceContext::TransferBuffer

	EXPORT	|?RecalcAllGains@DeviceContext@@QAAXXZ|	; DeviceContext::RecalcAllGains

  00000			 AREA	 |.pdata|, PDATA
|$T37802| DCD	|$LN11@RecalcAllG|
	DCD	0x40000e01
; Function compile flags: /Ogspy

  00000			 AREA	 |.text|, CODE, ARM

  00000		 |?RecalcAllGains@DeviceContext@@QAAXXZ| PROC ; DeviceContext::RecalcAllGains

; 152  : {

  00000		 |$LN11@RecalcAllG|
  00000	e92d4030	 stmdb       sp!, {r4, r5, lr}
  00004		 |$M37799|
  00004	e1a04000	 mov         r4, r0

; 153  :     PLIST_ENTRY pListEntry;
; 154  :     StreamContext *pStreamContext;
; 155  : 
; 156  :     for (pListEntry = m_StreamList.Flink;

  00008	e5b45004	 ldr         r5, [r4, #4]!
  0000c	ea000005	 b           |$LN8@RecalcAllG|
  00010		 |$LL3@RecalcAllG|

; 157  :         pListEntry != &m_StreamList;
; 158  :         pListEntry = pListEntry->Flink)
; 159  :     {
; 160  :         pStreamContext = CONTAINING_RECORD(pListEntry,StreamContext,m_Link);

  00010	e2450004	 sub         r0, r5, #4

; 161  :         pStreamContext->GainChange();

  00014	e5903000	 ldr         r3, [r0]
  00018	e5933030	 ldr         r3, [r3, #0x30]
  0001c	e1a0e00f	 mov         lr, pc
  00020	e12fff13	 bx          r3
  00024	e5955000	 ldr         r5, [r5]
  00028		 |$LN8@RecalcAllG|
  00028	e1550004	 cmp         r5, r4
  0002c	1afffff7	 bne         |$LL3@RecalcAllG|

; 162  :     }
; 163  :     return;
; 164  : }

  00030	e8bd4030	 ldmia       sp!, {r4, r5, lr}
  00034	e12fff1e	 bx          lr
  00038		 |$M37800|

			 ENDP  ; |?RecalcAllGains@DeviceContext@@QAAXXZ|, DeviceContext::RecalcAllGains

	EXPORT	|?StreamReadyToRender@OutputDeviceContext@@UAAXPAVStreamContext@@@Z| ; OutputDeviceContext::StreamReadyToRender
	IMPORT	|?StartOutputDMA@HardwareContext@@QAAXXZ| ; HardwareContext::StartOutputDMA

  00000			 AREA	 |.pdata|, PDATA
|$T37809| DCD	|$LN5@StreamRead|
	DCD	0x40000701
; Function compile flags: /Ogspy

  00000			 AREA	 |.text|, CODE, ARM

  00000		 |?StreamReadyToRender@OutputDeviceContext@@UAAXPAVStreamContext@@@Z| PROC ; OutputDeviceContext::StreamReadyToRender

; 175  : {

  00000		 |$LN5@StreamRead|
  00000	e52de004	 str         lr, [sp, #-4]!
  00004		 |$M37806|

; 176  :     g_pHWContext->StartOutputDMA();

  00004	e59f300c	 ldr         r3, [pc, #0xC]
  00008	e5930000	 ldr         r0, [r3]
  0000c	eb000000	 bl          |?StartOutputDMA@HardwareContext@@QAAXXZ|

; 177  :     return;
; 178  : }

  00010	e49de004	 ldr         lr, [sp], #4
  00014	e12fff1e	 bx          lr
  00018		 |$LN6@StreamRead|
  00018		 |$LN7@StreamRead|
  00018	00000000	 DCD         |?g_pHWContext@@3PAVHardwareContext@@A|
  0001c		 |$M37807|

			 ENDP  ; |?StreamReadyToRender@OutputDeviceContext@@UAAXPAVStreamContext@@@Z|, OutputDeviceContext::StreamReadyToRender

	EXPORT	|?StreamReadyToRender@InputDeviceContext@@UAAXPAVStreamContext@@@Z| ; InputDeviceContext::StreamReadyToRender
	IMPORT	|?StartInputDMA@HardwareContext@@QAAXXZ| ; HardwareContext::StartInputDMA

  00000			 AREA	 |.pdata|, PDATA
|$T37818| DCD	|$LN5@StreamRead@2|
	DCD	0x40000701
; Function compile flags: /Ogspy

  00000			 AREA	 |.text|, CODE, ARM

  00000		 |?StreamReadyToRender@InputDeviceContext@@UAAXPAVStreamContext@@@Z| PROC ; InputDeviceContext::StreamReadyToRender

; 189  : {

  00000		 |$LN5@StreamRead@2|
  00000	e52de004	 str         lr, [sp, #-4]!
  00004		 |$M37815|

; 190  :     g_pHWContext->StartInputDMA();

  00004	e59f300c	 ldr         r3, [pc, #0xC]
  00008	e5930000	 ldr         r0, [r3]
  0000c	eb000000	 bl          |?StartInputDMA@HardwareContext@@QAAXXZ|

; 191  :     return;
; 192  : }

  00010	e49de004	 ldr         lr, [sp], #4
  00014	e12fff1e	 bx          lr
  00018		 |$LN6@StreamRead@2|
  00018		 |$LN7@StreamRead@2|
  00018	00000000	 DCD         |?g_pHWContext@@3PAVHardwareContext@@A|
  0001c		 |$M37816|

			 ENDP  ; |?StreamReadyToRender@InputDeviceContext@@UAAXPAVStreamContext@@@Z|, InputDeviceContext::StreamReadyToRender

	EXPORT	|?GetDevCaps@OutputDeviceContext@@UAAKPAXK@Z| ; OutputDeviceContext::GetDevCaps
	IMPORT	|memcpy|

  00000			 AREA	 |.pdata|, PDATA
|$T37832| DCD	|$LN6@GetDevCaps|
	DCD	0x40000a01

  00000			 AREA	 |.rdata|, DATA, READONLY
|?wc@?1??GetDevCaps@OutputDeviceContext@@UAAKPAXK@Z@4UtagWAVEOUTCAPS@@B| DCW 0x1 ; `OutputDeviceContext::GetDevCaps'::`2'::wc
	DCW	0x18
	DCD	0x1
	DCB	"A", 0x0, "u", 0x0, "d", 0x0, "i", 0x0, "o", 0x0, " ", 0x0
	DCB	"O", 0x0, "u", 0x0, "t", 0x0, "p", 0x0, "u", 0x0, "t", 0x0
	DCB	0x0, 0x0
	%	38
	DCD	0xfff
	DCW	0x1
	DCW	0x0
	DCD	0x6
; Function compile flags: /Ogspy

  00000			 AREA	 |.text|, CODE, ARM

  00000		 |?GetDevCaps@OutputDeviceContext@@UAAKPAXK@Z| PROC ; OutputDeviceContext::GetDevCaps

; 204  : {

  00000		 |$LN6@GetDevCaps|
  00000	e52de004	 str         lr, [sp, #-4]!
  00004		 |$M37829|
  00004	e1a00001	 mov         r0, r1

; 205  :     static const WAVEOUTCAPS wc =
; 206  :     {
; 207  :         MM_MICROSOFT,
; 208  :         24,
; 209  :         0x0001,
; 210  :         TEXT("Audio Output"),
; 211  :         WAVE_FORMAT_1M08 | WAVE_FORMAT_2M08 | WAVE_FORMAT_4M08 |
; 212  :         WAVE_FORMAT_1S08 | WAVE_FORMAT_2S08 | WAVE_FORMAT_4S08 |
; 213  :         WAVE_FORMAT_1M16 | WAVE_FORMAT_2M16 | WAVE_FORMAT_4M16 |
; 214  :         WAVE_FORMAT_1S16 | WAVE_FORMAT_2S16 | WAVE_FORMAT_4S16,
; 215  :         1,
; 216  :         0,
; 217  :         WAVECAPS_VOLUME | WAVECAPS_PLAYBACKRATE
; 218  :     };
; 219  : 
; 220  :     if (dwSize > sizeof(wc))
; 221  :         dwSize = sizeof(wc);
; 222  : 
; 223  :     memcpy( pCaps, &wc, dwSize);

  00008	e59f1014	 ldr         r1, [pc, #0x14]
  0000c	e3520054	 cmp         r2, #0x54
  00010	83a02054	 movhi       r2, #0x54
  00014	eb000000	 bl          memcpy

; 224  : 
; 225  :     return MMSYSERR_NOERROR;

  00018	e3a00000	 mov         r0, #0

; 226  : }

  0001c	e49de004	 ldr         lr, [sp], #4
  00020	e12fff1e	 bx          lr
  00024		 |$LN7@GetDevCaps|
  00024		 |$LN8@GetDevCaps|
  00024	00000000	 DCD         |?wc@?1??GetDevCaps@OutputDeviceContext@@UAAKPAXK@Z@4UtagWAVEOUTCAPS@@B|
  00028		 |$M37830|

			 ENDP  ; |?GetDevCaps@OutputDeviceContext@@UAAKPAXK@Z|, OutputDeviceContext::GetDevCaps

	EXPORT	|?GetDevCaps@InputDeviceContext@@UAAKPAXK@Z| ; InputDeviceContext::GetDevCaps

  00000			 AREA	 |.pdata|, PDATA
|$T37845| DCD	|$LN6@GetDevCaps@2|
	DCD	0x40000a01

  00000			 AREA	 |.rdata|, DATA, READONLY
|?wc@?1??GetDevCaps@InputDeviceContext@@UAAKPAXK@Z@4UtagWAVEINCAPS@@B| DCW 0x1 ; `InputDeviceContext::GetDevCaps'::`2'::wc
	DCW	0x17
	DCD	0x1
	DCB	"A", 0x0, "u", 0x0, "d", 0x0, "i", 0x0, "o", 0x0, " ", 0x0
	DCB	"I", 0x0, "n", 0x0, "p", 0x0, "u", 0x0, "t", 0x0, 0x0, 0x0
	%	40
	DCD	0xfff
	DCW	0x1
	DCW	0x0
; Function compile flags: /Ogspy

  00000			 AREA	 |.text|, CODE, ARM

  00000		 |?GetDevCaps@InputDeviceContext@@UAAKPAXK@Z| PROC ; InputDeviceContext::GetDevCaps

; 237  : {

  00000		 |$LN6@GetDevCaps@2|
  00000	e52de004	 str         lr, [sp, #-4]!
  00004		 |$M37842|
  00004	e1a00001	 mov         r0, r1

; 238  :     static const WAVEINCAPS wc =
; 239  :     {
; 240  :         MM_MICROSOFT,
; 241  :         23,
; 242  :         0x0001,
; 243  :         TEXT("Audio Input"),
; 244  :         WAVE_FORMAT_1M08 | WAVE_FORMAT_2M08 | WAVE_FORMAT_4M08 |
; 245  :         WAVE_FORMAT_1S08 | WAVE_FORMAT_2S08 | WAVE_FORMAT_4S08 |
; 246  :         WAVE_FORMAT_1M16 | WAVE_FORMAT_2M16 | WAVE_FORMAT_4M16 |
; 247  :         WAVE_FORMAT_1S16 | WAVE_FORMAT_2S16 | WAVE_FORMAT_4S16,
; 248  :         1,
; 249  :         0
; 250  :     };
; 251  : 
; 252  :     if (dwSize > sizeof(wc))
; 253  :         dwSize = sizeof(wc);
; 254  : 
; 255  :     memcpy( pCaps, &wc, dwSize);

  00008	e59f1014	 ldr         r1, [pc, #0x14]
  0000c	e3520050	 cmp         r2, #0x50
  00010	83a02050	 movhi       r2, #0x50
  00014	eb000000	 bl          memcpy

; 256  : 
; 257  :     return MMSYSERR_NOERROR;

  00018	e3a00000	 mov         r0, #0

; 258  : }

  0001c	e49de004	 ldr         lr, [sp], #4
  00020	e12fff1e	 bx          lr
  00024		 |$LN7@GetDevCaps@2|
  00024		 |$LN8@GetDevCaps@2|
  00024	00000000	 DCD         |?wc@?1??GetDevCaps@InputDeviceContext@@UAAKPAXK@Z@4UtagWAVEINCAPS@@B|
  00028		 |$M37843|

			 ENDP  ; |?GetDevCaps@InputDeviceContext@@UAAKPAXK@Z|, InputDeviceContext::GetDevCaps

	EXPORT	|?GetExtDevCaps@OutputDeviceContext@@UAAKPAXK@Z| ; OutputDeviceContext::GetExtDevCaps

  00000			 AREA	 |.pdata|, PDATA
|$T37858| DCD	|$LN6@GetExtDevC|
	DCD	0x40000a01

  00000			 AREA	 |.rdata|, DATA, READONLY
|?wec@?1??GetExtDevCaps@OutputDeviceContext@@UAAKPAXK@Z@4Utag_WAVEOUTEXTCAPS@@B| DCD 0xffff ; `OutputDeviceContext::GetExtDevCaps'::`2'::wec
	DCD	0xffff
	DCD	0x0
	DCD	0x6
	DCD	0x0
	DCD	0x1f40
	DCD	0xbb80
; Function compile flags: /Ogspy

  00000			 AREA	 |.text|, CODE, ARM

  00000		 |?GetExtDevCaps@OutputDeviceContext@@UAAKPAXK@Z| PROC ; OutputDeviceContext::GetExtDevCaps

; 269  : {

  00000		 |$LN6@GetExtDevC|
  00000	e52de004	 str         lr, [sp, #-4]!
  00004		 |$M37855|
  00004	e1a00001	 mov         r0, r1

; 270  :     static const WAVEOUTEXTCAPS wec =
; 271  :     {
; 272  :         0x0000FFFF,                         // max number of hw-mixed streams
; 273  :         0x0000FFFF,                         // available HW streams
; 274  :         0,                                  // preferred sample rate for software mixer (0 indicates no preference)
; 275  : // dev note: this value prevents the Windows CE software mixer from
; 276  : // allocating mixer memory. This driver does all mixing internally (was 0)
; 277  :         6,                                  // preferred buffer size for software mixer (0 indicates no preference)
; 278  :         0,                                  // preferred number of buffers for software mixer (0 indicates no preference)
; 279  :         8000,                               // minimum sample rate for a hw-mixed stream
; 280  :         48000                               // maximum sample rate for a hw-mixed stream
; 281  :     };
; 282  : 
; 283  :     if (dwSize > sizeof(wec))
; 284  :     {
; 285  :         dwSize = sizeof(wec);
; 286  :     }
; 287  : 
; 288  :     memcpy( pCaps, &wec, dwSize);

  00008	e59f1014	 ldr         r1, [pc, #0x14]
  0000c	e352001c	 cmp         r2, #0x1C
  00010	83a0201c	 movhi       r2, #0x1C
  00014	eb000000	 bl          memcpy

; 289  : 
; 290  :     return MMSYSERR_NOERROR;

  00018	e3a00000	 mov         r0, #0

; 291  : }

  0001c	e49de004	 ldr         lr, [sp], #4
  00020	e12fff1e	 bx          lr
  00024		 |$LN7@GetExtDevC|
  00024		 |$LN8@GetExtDevC|
  00024	00000000	 DCD         |?wec@?1??GetExtDevCaps@OutputDeviceContext@@UAAKPAXK@Z@4Utag_WAVEOUTEXTCAPS@@B|
  00028		 |$M37856|

			 ENDP  ; |?GetExtDevCaps@OutputDeviceContext@@UAAKPAXK@Z|, OutputDeviceContext::GetExtDevCaps

	EXPORT	|?GetExtDevCaps@InputDeviceContext@@UAAKPAXK@Z| ; InputDeviceContext::GetExtDevCaps

  00000			 AREA	 |.pdata|, PDATA
|$T37869| DCD	|$LN5@GetExtDevC@2|
	DCD	0x40000200
; Function compile flags: /Ogspy

  00000			 AREA	 |.text|, CODE, ARM

  00000		 |?GetExtDevCaps@InputDeviceContext@@UAAKPAXK@Z| PROC ; InputDeviceContext::GetExtDevCaps

; 302  : {

  00000		 |$LN5@GetExtDevC@2|
  00000		 |$M37866|

; 303  :     return MMSYSERR_NOTSUPPORTED;

  00000	e3a00008	 mov         r0, #8

; 304  : }

  00004	e12fff1e	 bx          lr
  00008		 |$M37867|

			 ENDP  ; |?GetExtDevCaps@InputDeviceContext@@UAAKPAXK@Z|, InputDeviceContext::GetExtDevCaps

	EXPORT	|??0WaveStreamContext@@QAA@XZ|		; WaveStreamContext::WaveStreamContext
	EXPORT	|??_7WaveStreamContext@@6B@| [ DATA ]	; WaveStreamContext::`vftable'
	IMPORT	|??_EWaveStreamContext@@UAAPAXI@Z|, WEAK |??_GWaveStreamContext@@UAAPAXI@Z| ; WaveStreamContext::`vector deleting destructor', WaveStreamContext::`scalar deleting destructor'
	IMPORT	|?Open@WaveStreamContext@@UAAJPAVDeviceContext@@PAUwaveopendesc_tag@@K@Z| ; WaveStreamContext::Open
	IMPORT	|?Render@WaveStreamContext@@UAAPAEPAE00@Z| ; WaveStreamContext::Render

  00000			 AREA	 |.pdata|, PDATA
|$T37882| DCD	|$LN7@WaveStream|
	DCD	0x40000500

  00000			 AREA	 |.rdata|, DATA, READONLY
|??_7WaveStreamContext@@6B@| DCD |??_EWaveStreamContext@@UAAPAXI@Z| ; WaveStreamContext::`vftable'
	DCD	|?Open@WaveStreamContext@@UAAJPAVDeviceContext@@PAUwaveopendesc_tag@@K@Z|
	DCD	|?Close@StreamContext@@UAAKXZ|
	DCD	|?GetPos@StreamContext@@UAAKPAUmmtime_tag@@@Z|
	DCD	|?Run@StreamContext@@UAAKXZ|
	DCD	|?Stop@StreamContext@@UAAKXZ|
	DCD	|?Reset@StreamContext@@UAAKXZ|
	DCD	|?Render@WaveStreamContext@@UAAPAEPAE00@Z|
	DCD	|?DoCallbackReturnBuffer@StreamContext@@UAAXPAUwavehdr_tag@@@Z|
	DCD	|?DoCallbackStreamOpened@StreamContext@@UAAXXZ|
	DCD	|?DoCallbackStreamClosed@StreamContext@@UAAXXZ|
	DCD	|?QueueBuffer@StreamContext@@UAAKPAUwavehdr_tag@@@Z|
	DCD	|?GainChange@StreamContext@@UAAXXZ|
	DCD	|_purecall|
	DCD	|_purecall|
; Function compile flags: /Ogspy

  00000			 AREA	 |.text|, CODE, ARM

  00000		 |??0WaveStreamContext@@QAA@XZ| PROC	; WaveStreamContext::WaveStreamContext
  00000		 |$LN7@WaveStream|
  00000		 |$M37879|
  00000	e1a02000	 mov         r2, r0
  00004	e59f3004	 ldr         r3, [pc, #4]
  00008	e5823000	 str         r3, [r2]
  0000c	e12fff1e	 bx          lr
  00010		 |$LN8@WaveStream|
  00010		 |$LN9@WaveStream|
  00010	00000000	 DCD         |??_7WaveStreamContext@@6B@|
  00014		 |$M37880|

			 ENDP  ; |??0WaveStreamContext@@QAA@XZ|, WaveStreamContext::WaveStreamContext

	EXPORT	|??1WaveStreamContext@@UAA@XZ|		; WaveStreamContext::~WaveStreamContext

  00000			 AREA	 |.pdata|, PDATA
|$T37895| DCD	|$LN7@WaveStream@2|
	DCD	0x40000400
; Function compile flags: /Ogspy

  00000			 AREA	 |.text|, CODE, ARM

  00000		 |??1WaveStreamContext@@UAA@XZ| PROC	; WaveStreamContext::~WaveStreamContext
  00000		 |$LN7@WaveStream@2|
  00000		 |$M37892|
  00000	e59f3004	 ldr         r3, [pc, #4]
  00004	e5803000	 str         r3, [r0]
  00008	e12fff1e	 bx          lr
  0000c		 |$LN8@WaveStream@2|
  0000c		 |$LN9@WaveStream@2|
  0000c	00000000	 DCD         |??_7StreamContext@@6B@|
  00010		 |$M37893|

			 ENDP  ; |??1WaveStreamContext@@UAA@XZ|, WaveStreamContext::~WaveStreamContext


  00000			 AREA	 |.pdata|, PDATA
|$T37916| DCD	|$LN10@scalar@2|
	DCD	0x40000a01
; Function compile flags: /Ogspy

  00000			 AREA	 |.text|, CODE, ARM

  00000		 |??_GWaveStreamContext@@UAAPAXI@Z| PROC ; WaveStreamContext::`scalar deleting destructor'
  00000		 |$LN10@scalar@2|
  00000	e92d4010	 stmdb       sp!, {r4, lr}
  00004		 |$M37913|
  00004	e1a04000	 mov         r4, r0
  00008	e59f3014	 ldr         r3, [pc, #0x14]
  0000c	e3110001	 tst         r1, #1
  00010	e5843000	 str         r3, [r4]
  00014	1b000000	 blne        |??3@YAXPAX@Z|
  00018	e1a00004	 mov         r0, r4
  0001c	e8bd4010	 ldmia       sp!, {r4, lr}
  00020	e12fff1e	 bx          lr
  00024		 |$LN11@scalar@2|
  00024		 |$LN12@scalar@2|
  00024	00000000	 DCD         |??_7StreamContext@@6B@|
  00028		 |$M37914|

			 ENDP  ; |??_GWaveStreamContext@@UAAPAXI@Z|, WaveStreamContext::`scalar deleting destructor'

	EXPORT	|??0CMidiStream@@QAA@XZ|		; CMidiStream::CMidiStream
	EXPORT	|??_7CMidiStream@@6B@| [ DATA ]		; CMidiStream::`vftable'
	IMPORT	|??_ECMidiStream@@UAAPAXI@Z|, WEAK |??_GCMidiStream@@UAAPAXI@Z| ; CMidiStream::`vector deleting destructor', CMidiStream::`scalar deleting destructor'
	IMPORT	|?Open@CMidiStream@@UAAJPAVDeviceContext@@PAUwaveopendesc_tag@@K@Z| ; CMidiStream::Open
	IMPORT	|?Close@CMidiStream@@UAAKXZ|		; CMidiStream::Close
	IMPORT	|?Reset@CMidiStream@@UAAKXZ|		; CMidiStream::Reset
	IMPORT	|?Render@CMidiStream@@UAAPAEPAE00@Z|	; CMidiStream::Render
	IMPORT	|?GainChange@CMidiStream@@UAAXXZ|	; CMidiStream::GainChange

  00000			 AREA	 |.pdata|, PDATA
|$T37931| DCD	|$LN7@CMidiStrea|
	DCD	0x40000500

  00000			 AREA	 |.rdata|, DATA, READONLY
|??_7CMidiStream@@6B@| DCD |??_ECMidiStream@@UAAPAXI@Z|	; CMidiStream::`vftable'
	DCD	|?Open@CMidiStream@@UAAJPAVDeviceContext@@PAUwaveopendesc_tag@@K@Z|
	DCD	|?Close@CMidiStream@@UAAKXZ|
	DCD	|?GetPos@StreamContext@@UAAKPAUmmtime_tag@@@Z|
	DCD	|?Run@StreamContext@@UAAKXZ|
	DCD	|?Stop@StreamContext@@UAAKXZ|
	DCD	|?Reset@CMidiStream@@UAAKXZ|
	DCD	|?Render@CMidiStream@@UAAPAEPAE00@Z|
	DCD	|?DoCallbackReturnBuffer@StreamContext@@UAAXPAUwavehdr_tag@@@Z|
	DCD	|?DoCallbackStreamOpened@StreamContext@@UAAXXZ|
	DCD	|?DoCallbackStreamClosed@StreamContext@@UAAXXZ|
	DCD	|?QueueBuffer@StreamContext@@UAAKPAUwavehdr_tag@@@Z|
	DCD	|?GainChange@CMidiStream@@UAAXXZ|
; Function compile flags: /Ogspy

  00000			 AREA	 |.text|, CODE, ARM

  00000		 |??0CMidiStream@@QAA@XZ| PROC		; CMidiStream::CMidiStream
  00000		 |$LN7@CMidiStrea|
  00000		 |$M37928|
  00000	e1a02000	 mov         r2, r0
  00004	e59f3004	 ldr         r3, [pc, #4]
  00008	e5823000	 str         r3, [r2]
  0000c	e12fff1e	 bx          lr
  00010		 |$LN8@CMidiStrea|
  00010		 |$LN9@CMidiStrea|
  00010	00000000	 DCD         |??_7CMidiStream@@6B@|
  00014		 |$M37929|

			 ENDP  ; |??0CMidiStream@@QAA@XZ|, CMidiStream::CMidiStream

	EXPORT	|??0OutputStreamContext@@QAA@XZ|	; OutputStreamContext::OutputStreamContext
	EXPORT	|??_7OutputStreamContext@@6B@| [ DATA ]	; OutputStreamContext::`vftable'
	IMPORT	|??_EOutputStreamContext@@UAAPAXI@Z|, WEAK |??_GOutputStreamContext@@UAAPAXI@Z| ; OutputStreamContext::`vector deleting destructor', OutputStreamContext::`scalar deleting destructor'
	IMPORT	|?Open@OutputStreamContext@@UAAJPAVDeviceContext@@PAUwaveopendesc_tag@@K@Z| ; OutputStreamContext::Open
	IMPORT	|?Reset@OutputStreamContext@@UAAKXZ|	; OutputStreamContext::Reset
	IMPORT	|?SetRate@OutputStreamContext@@UAAKK@Z|	; OutputStreamContext::SetRate

  00000			 AREA	 |.pdata|, PDATA
|$T37951| DCD	|$LN9@OutputStre|
	DCD	0x40000500

  00000			 AREA	 |.rdata|, DATA, READONLY
|??_7OutputStreamContext@@6B@| DCD |??_EOutputStreamContext@@UAAPAXI@Z| ; OutputStreamContext::`vftable'
	DCD	|?Open@OutputStreamContext@@UAAJPAVDeviceContext@@PAUwaveopendesc_tag@@K@Z|
	DCD	|?Close@StreamContext@@UAAKXZ|
	DCD	|?GetPos@StreamContext@@UAAKPAUmmtime_tag@@@Z|
	DCD	|?Run@StreamContext@@UAAKXZ|
	DCD	|?Stop@StreamContext@@UAAKXZ|
	DCD	|?Reset@OutputStreamContext@@UAAKXZ|
	DCD	|?Render@WaveStreamContext@@UAAPAEPAE00@Z|
	DCD	|?DoCallbackReturnBuffer@StreamContext@@UAAXPAUwavehdr_tag@@@Z|
	DCD	|?DoCallbackStreamOpened@StreamContext@@UAAXXZ|
	DCD	|?DoCallbackStreamClosed@StreamContext@@UAAXXZ|
	DCD	|?QueueBuffer@StreamContext@@UAAKPAUwavehdr_tag@@@Z|
	DCD	|?GainChange@StreamContext@@UAAXXZ|
	DCD	|?SetRate@OutputStreamContext@@UAAKK@Z|
	DCD	|_purecall|
; Function compile flags: /Ogspy

  00000			 AREA	 |.text|, CODE, ARM

  00000		 |??0OutputStreamContext@@QAA@XZ| PROC	; OutputStreamContext::OutputStreamContext
  00000		 |$LN9@OutputStre|
  00000		 |$M37948|
  00000	e1a02000	 mov         r2, r0
  00004	e59f3004	 ldr         r3, [pc, #4]
  00008	e5823000	 str         r3, [r2]
  0000c	e12fff1e	 bx          lr
  00010		 |$LN10@OutputStre|
  00010		 |$LN11@OutputStre|
  00010	00000000	 DCD         |??_7OutputStreamContext@@6B@|
  00014		 |$M37949|

			 ENDP  ; |??0OutputStreamContext@@QAA@XZ|, OutputStreamContext::OutputStreamContext

	EXPORT	|??1OutputStreamContext@@UAA@XZ|	; OutputStreamContext::~OutputStreamContext

  00000			 AREA	 |.pdata|, PDATA
|$T37969| DCD	|$LN9@OutputStre@2|
	DCD	0x40000400
; Function compile flags: /Ogspy

  00000			 AREA	 |.text|, CODE, ARM

  00000		 |??1OutputStreamContext@@UAA@XZ| PROC	; OutputStreamContext::~OutputStreamContext
  00000		 |$LN9@OutputStre@2|
  00000		 |$M37966|
  00000	e59f3004	 ldr         r3, [pc, #4]
  00004	e5803000	 str         r3, [r0]
  00008	e12fff1e	 bx          lr
  0000c		 |$LN10@OutputStre@2|
  0000c		 |$LN11@OutputStre@2|
  0000c	00000000	 DCD         |??_7StreamContext@@6B@|
  00010		 |$M37967|

			 ENDP  ; |??1OutputStreamContext@@UAA@XZ|, OutputStreamContext::~OutputStreamContext

	EXPORT	|??1CMidiStream@@UAA@XZ|		; CMidiStream::~CMidiStream

  00000			 AREA	 |.pdata|, PDATA
|$T37982| DCD	|$LN7@CMidiStrea@2|
	DCD	0x40000400
; Function compile flags: /Ogspy

  00000			 AREA	 |.text|, CODE, ARM

  00000		 |??1CMidiStream@@UAA@XZ| PROC		; CMidiStream::~CMidiStream
  00000		 |$LN7@CMidiStrea@2|
  00000		 |$M37979|
  00000	e59f3004	 ldr         r3, [pc, #4]
  00004	e5803000	 str         r3, [r0]
  00008	e12fff1e	 bx          lr
  0000c		 |$LN8@CMidiStrea@2|
  0000c		 |$LN9@CMidiStrea@2|
  0000c	00000000	 DCD         |??_7StreamContext@@6B@|
  00010		 |$M37980|

			 ENDP  ; |??1CMidiStream@@UAA@XZ|, CMidiStream::~CMidiStream


  00000			 AREA	 |.pdata|, PDATA
|$T38010| DCD	|$LN12@scalar@3|
	DCD	0x40000a01
; Function compile flags: /Ogspy

  00000			 AREA	 |.text|, CODE, ARM

  00000		 |??_GOutputStreamContext@@UAAPAXI@Z| PROC ; OutputStreamContext::`scalar deleting destructor'
  00000		 |$LN12@scalar@3|
  00000	e92d4010	 stmdb       sp!, {r4, lr}
  00004		 |$M38007|
  00004	e1a04000	 mov         r4, r0
  00008	e59f3014	 ldr         r3, [pc, #0x14]
  0000c	e3110001	 tst         r1, #1
  00010	e5843000	 str         r3, [r4]
  00014	1b000000	 blne        |??3@YAXPAX@Z|
  00018	e1a00004	 mov         r0, r4
  0001c	e8bd4010	 ldmia       sp!, {r4, lr}
  00020	e12fff1e	 bx          lr
  00024		 |$LN13@scalar@3|
  00024		 |$LN14@scalar@3|
  00024	00000000	 DCD         |??_7StreamContext@@6B@|
  00028		 |$M38008|

			 ENDP  ; |??_GOutputStreamContext@@UAAPAXI@Z|, OutputStreamContext::`scalar deleting destructor'

	EXPORT	|?OpenStream@DeviceContext@@QAAKPAUwaveopendesc_tag@@KPAPAVStreamContext@@@Z| ; DeviceContext::OpenStream

  00000			 AREA	 |.pdata|, PDATA
|$T38032| DCD	|$LN14@OpenStream|
	DCD	0x40003a01
; Function compile flags: /Ogspy

  00000			 AREA	 |.text|, CODE, ARM

  00000		 |?OpenStream@DeviceContext@@QAAKPAUwaveopendesc_tag@@KPAPAVStreamContext@@@Z| PROC ; DeviceContext::OpenStream

; 370  : {

  00000		 |$LN14@OpenStream|
  00000	e92d47f0	 stmdb       sp!, {r4 - r10, lr}
  00004		 |$M38029|
  00004	e1a0a003	 mov         r10, r3
  00008	e1a08002	 mov         r8, r2
  0000c	e1a09001	 mov         r9, r1
  00010	e1a07000	 mov         r7, r0

; 371  :     HRESULT Result;
; 372  :     StreamContext *pStreamContext;
; 373  : 
; 374  :     if (lpWOD->lpFormat==NULL)

  00014	e5d96004	 ldrb        r6, [r9, #4]
  00018	e5d9e005	 ldrb        lr, [r9, #5]
  0001c	e5d94006	 ldrb        r4, [r9, #6]
  00020	e5d95007	 ldrb        r5, [r9, #7]
  00024	e186e40e	 orr         lr, r6, lr, lsl #8
  00028	e18ee804	 orr         lr, lr, r4, lsl #16
  0002c	e19e1c05	 orrs        r1, lr, r5, lsl #24
  00030	1a000002	 bne         |$LN5@OpenStream|
  00034		 |$LN11@OpenStream|

; 375  :     {
; 376  :         return WAVERR_BADFORMAT;

  00034	e3a00020	 mov         r0, #0x20

; 405  : }

  00038	e8bd47f0	 ldmia       sp!, {r4 - r10, lr}
  0003c	e12fff1e	 bx          lr
  00040		 |$LN5@OpenStream|

; 377  :     }
; 378  : 
; 379  :      if (!IsSupportedFormat(lpWOD->lpFormat))

  00040	e5973000	 ldr         r3, [r7]
  00044	e1a00007	 mov         r0, r7
  00048	e5933000	 ldr         r3, [r3]
  0004c	e1a0e00f	 mov         lr, pc
  00050	e12fff13	 bx          r3
  00054	e3500000	 cmp         r0, #0

; 380  :     {
; 381  :         return WAVERR_BADFORMAT;

  00058	0afffff5	 beq         |$LN11@OpenStream|

; 382  :     }
; 383  : 
; 384  :     // Query format support only - don't actually open device?
; 385  :     if (dwFlags & WAVE_FORMAT_QUERY)

  0005c	e3180001	 tst         r8, #1

; 386  :     {
; 387  :         return MMSYSERR_NOERROR;

  00060	1a00001d	 bne         |$LN10@OpenStream|

; 388  :     }
; 389  : 
; 390  :     pStreamContext = CreateStream(lpWOD);

  00064	e5973000	 ldr         r3, [r7]
  00068	e1a01009	 mov         r1, r9
  0006c	e1a00007	 mov         r0, r7
  00070	e5933010	 ldr         r3, [r3, #0x10]
  00074	e1a0e00f	 mov         lr, pc
  00078	e12fff13	 bx          r3
  0007c	e1b05000	 movs        r5, r0

; 391  :     if (!pStreamContext)
; 392  :     {
; 393  :         return MMSYSERR_NOMEM;

  00080	03a00007	 moveq       r0, #7

; 405  : }

  00084	08bd47f0	 ldmeqia     sp!, {r4 - r10, lr}
  00088	012fff1e	 bxeq        lr

; 394  :     }
; 395  : 
; 396  :     Result = pStreamContext->Open(this,lpWOD,dwFlags);
; 397  :     if (FAILED(Result))

  0008c	e5951000	 ldr         r1, [r5]
  00090	e1a03008	 mov         r3, r8
  00094	e1a02009	 mov         r2, r9
  00098	e5914004	 ldr         r4, [r1, #4]
  0009c	e1a01007	 mov         r1, r7
  000a0	e1a00005	 mov         r0, r5
  000a4	e1a0e00f	 mov         lr, pc
  000a8	e12fff14	 bx          r4
  000ac	e3500000	 cmp         r0, #0
  000b0	5a000008	 bpl         |$LN1@OpenStream|

; 398  :     {
; 399  :         delete pStreamContext;

  000b4	e5953000	 ldr         r3, [r5]
  000b8	e3a01001	 mov         r1, #1
  000bc	e1a00005	 mov         r0, r5
  000c0	e5933000	 ldr         r3, [r3]
  000c4	e1a0e00f	 mov         lr, pc
  000c8	e12fff13	 bx          r3

; 400  :         return MMSYSERR_ERROR;

  000cc	e3a00001	 mov         r0, #1

; 405  : }

  000d0	e8bd47f0	 ldmia       sp!, {r4 - r10, lr}
  000d4	e12fff1e	 bx          lr
  000d8		 |$LN1@OpenStream|

; 401  :     }
; 402  : 
; 403  :     *ppStreamContext=pStreamContext;

  000d8	e58a5000	 str         r5, [r10]
  000dc		 |$LN10@OpenStream|

; 404  :     return MMSYSERR_NOERROR;

  000dc	e3a00000	 mov         r0, #0

; 405  : }

  000e0	e8bd47f0	 ldmia       sp!, {r4 - r10, lr}
  000e4	e12fff1e	 bx          lr
  000e8		 |$M38030|

			 ENDP  ; |?OpenStream@DeviceContext@@QAAKPAUwaveopendesc_tag@@KPAPAVStreamContext@@@Z|, DeviceContext::OpenStream

	EXPORT	|??0InputStreamContext@@QAA@XZ|		; InputStreamContext::InputStreamContext
	EXPORT	|??_7InputStreamContext@@6B@| [ DATA ]	; InputStreamContext::`vftable'
	EXPORT	|?DoCallbackReturnBuffer@InputStreamContext@@UAAXPAUwavehdr_tag@@@Z| ; InputStreamContext::DoCallbackReturnBuffer
	EXPORT	|?DoCallbackStreamOpened@InputStreamContext@@UAAXXZ| ; InputStreamContext::DoCallbackStreamOpened
	EXPORT	|?DoCallbackStreamClosed@InputStreamContext@@UAAXXZ| ; InputStreamContext::DoCallbackStreamClosed
	IMPORT	|??_EInputStreamContext@@UAAPAXI@Z|, WEAK |??_GInputStreamContext@@UAAPAXI@Z| ; InputStreamContext::`vector deleting destructor', InputStreamContext::`scalar deleting destructor'
	IMPORT	|?Open@InputStreamContext@@UAAJPAVDeviceContext@@PAUwaveopendesc_tag@@K@Z| ; InputStreamContext::Open
	IMPORT	|?Stop@InputStreamContext@@UAAKXZ|	; InputStreamContext::Stop
	IMPORT	|?SetRate@InputStreamContext@@UAAKK@Z|	; InputStreamContext::SetRate
	IMPORT	|?Render2@InputStreamContext@@UAAPAEPAE00@Z| ; InputStreamContext::Render2

  00000			 AREA	 |.pdata|, PDATA
|$T38050| DCD	|$LN9@InputStrea|
	DCD	0x40000500

  00000			 AREA	 |.rdata|, DATA, READONLY
|??_7InputStreamContext@@6B@| DCD |??_EInputStreamContext@@UAAPAXI@Z| ; InputStreamContext::`vftable'
	DCD	|?Open@InputStreamContext@@UAAJPAVDeviceContext@@PAUwaveopendesc_tag@@K@Z|
	DCD	|?Close@StreamContext@@UAAKXZ|
	DCD	|?GetPos@StreamContext@@UAAKPAUmmtime_tag@@@Z|
	DCD	|?Run@StreamContext@@UAAKXZ|
	DCD	|?Stop@InputStreamContext@@UAAKXZ|
	DCD	|?Reset@StreamContext@@UAAKXZ|
	DCD	|?Render@WaveStreamContext@@UAAPAEPAE00@Z|
	DCD	|?DoCallbackReturnBuffer@InputStreamContext@@UAAXPAUwavehdr_tag@@@Z|
	DCD	|?DoCallbackStreamOpened@InputStreamContext@@UAAXXZ|
	DCD	|?DoCallbackStreamClosed@InputStreamContext@@UAAXXZ|
	DCD	|?QueueBuffer@StreamContext@@UAAKPAUwavehdr_tag@@@Z|
	DCD	|?GainChange@StreamContext@@UAAXXZ|
	DCD	|?SetRate@InputStreamContext@@UAAKK@Z|
	DCD	|?Render2@InputStreamContext@@UAAPAEPAE00@Z|
; Function compile flags: /Ogspy

  00000			 AREA	 |.text|, CODE, ARM

  00000		 |??0InputStreamContext@@QAA@XZ| PROC	; InputStreamContext::InputStreamContext
  00000		 |$LN9@InputStrea|
  00000		 |$M38047|
  00000	e1a02000	 mov         r2, r0
  00004	e59f3004	 ldr         r3, [pc, #4]
  00008	e5823000	 str         r3, [r2]
  0000c	e12fff1e	 bx          lr
  00010		 |$LN10@InputStrea|
  00010		 |$LN11@InputStrea|
  00010	00000000	 DCD         |??_7InputStreamContext@@6B@|
  00014		 |$M38048|

			 ENDP  ; |??0InputStreamContext@@QAA@XZ|, InputStreamContext::InputStreamContext

; File c:\wince600\platform\common\src\soc\omap2420_ms_v1\wavedev\strmctxt.h

  00000			 AREA	 |.pdata|, PDATA
|$T38064| DCD	|$LN7@DoCallback@4|
	DCD	0x40000f02
; Function compile flags: /Ogspy

  00000			 AREA	 |.text|, CODE, ARM

  00000		 |?DoCallbackReturnBuffer@InputStreamContext@@UAAXPAUwavehdr_tag@@@Z| PROC ; InputStreamContext::DoCallbackReturnBuffer

; 225  :     {

  00000		 |$LN7@DoCallback@4|
  00000	e92d4030	 stmdb       sp!, {r4, r5, lr}
  00004	e24dd004	 sub         sp, sp, #4
  00008		 |$M38061|
  00008	e1a03001	 mov         r3, r1
  0000c	e1a01000	 mov         r1, r0

; 226  :         DEBUGMSG(ZONE_WIDM && ZONE_VERBOSE,(TEXT("WIDM: DoCallbackReturnBuffer\r\n")));
; 227  :         DoDriverCallback(WIM_DATA,(DWORD)lpHdr,0);

  00010	e5912020	 ldr         r2, [r1, #0x20]
  00014	e5910018	 ldr         r0, [r1, #0x18]
  00018	e591401c	 ldr         r4, [r1, #0x1C]
  0001c	e3a05000	 mov         r5, #0
  00020	e58d5000	 str         r5, [sp]
  00024	e3a01d0f	 mov         r1, #0xF, 26
  00028	e1a0e00f	 mov         lr, pc
  0002c	e12fff14	 bx          r4

; 228  :     }

  00030	e28dd004	 add         sp, sp, #4
  00034	e8bd4030	 ldmia       sp!, {r4, r5, lr}
  00038	e12fff1e	 bx          lr
  0003c		 |$M38062|

			 ENDP  ; |?DoCallbackReturnBuffer@InputStreamContext@@UAAXPAUwavehdr_tag@@@Z|, InputStreamContext::DoCallbackReturnBuffer


  00000			 AREA	 |.pdata|, PDATA
|$T38075| DCD	|$LN7@DoCallback@5|
	DCD	0x40001702
; Function compile flags: /Ogspy

  00000			 AREA	 |.text|, CODE, ARM

  00000		 |?DoCallbackStreamOpened@InputStreamContext@@UAAXXZ| PROC ; InputStreamContext::DoCallbackStreamOpened

; 230  :     {

  00000		 |$LN7@DoCallback@5|
  00000	e92d4030	 stmdb       sp!, {r4, r5, lr}
  00004	e24dd004	 sub         sp, sp, #4
  00008		 |$M38072|
  00008	e1a04000	 mov         r4, r0

; 231  :         g_pHWContext->InputStreamOpened();

  0000c	e59f3044	 ldr         r3, [pc, #0x44]
  00010	e5930000	 ldr         r0, [r3]
  00014	e5903000	 ldr         r3, [r0]
  00018	e5933060	 ldr         r3, [r3, #0x60]
  0001c	e1a0e00f	 mov         lr, pc
  00020	e12fff13	 bx          r3

; 232  :         DEBUGMSG(ZONE_WIDM && ZONE_VERBOSE,(TEXT("WIDM: DoCallbackStreamOpened\r\n")));
; 233  :         DoDriverCallback(WIM_OPEN,0,0);

  00024	e3a03c03	 mov         r3, #3, 24
  00028	e5942020	 ldr         r2, [r4, #0x20]
  0002c	e5940018	 ldr         r0, [r4, #0x18]
  00030	e594401c	 ldr         r4, [r4, #0x1C]
  00034	e3a05000	 mov         r5, #0
  00038	e38310be	 orr         r1, r3, #0xBE
  0003c	e3a03000	 mov         r3, #0
  00040	e58d5000	 str         r5, [sp]
  00044	e1a0e00f	 mov         lr, pc
  00048	e12fff14	 bx          r4

; 234  :     }

  0004c	e28dd004	 add         sp, sp, #4
  00050	e8bd4030	 ldmia       sp!, {r4, r5, lr}
  00054	e12fff1e	 bx          lr
  00058		 |$LN8@DoCallback@5|
  00058		 |$LN9@DoCallback@5|
  00058	00000000	 DCD         |?g_pHWContext@@3PAVHardwareContext@@A|
  0005c		 |$M38073|

			 ENDP  ; |?DoCallbackStreamOpened@InputStreamContext@@UAAXXZ|, InputStreamContext::DoCallbackStreamOpened


  00000			 AREA	 |.pdata|, PDATA
|$T38088| DCD	|$LN7@DoCallback@6|
	DCD	0x40001702
; Function compile flags: /Ogspy

  00000			 AREA	 |.text|, CODE, ARM

  00000		 |?DoCallbackStreamClosed@InputStreamContext@@UAAXXZ| PROC ; InputStreamContext::DoCallbackStreamClosed

; 236  :     {

  00000		 |$LN7@DoCallback@6|
  00000	e92d4030	 stmdb       sp!, {r4, r5, lr}
  00004	e24dd004	 sub         sp, sp, #4
  00008		 |$M38085|
  00008	e1a04000	 mov         r4, r0

; 237  :         g_pHWContext->InputStreamClosed();

  0000c	e59f3044	 ldr         r3, [pc, #0x44]
  00010	e5930000	 ldr         r0, [r3]
  00014	e5903000	 ldr         r3, [r0]
  00018	e5933064	 ldr         r3, [r3, #0x64]
  0001c	e1a0e00f	 mov         lr, pc
  00020	e12fff13	 bx          r3

; 238  :         DEBUGMSG(ZONE_WIDM && ZONE_VERBOSE,(TEXT("WIDM: DoCallbackStreamOpened\r\n")));
; 239  :         DoDriverCallback(WIM_CLOSE,0,0);

  00024	e3a03c03	 mov         r3, #3, 24
  00028	e5942020	 ldr         r2, [r4, #0x20]
  0002c	e5940018	 ldr         r0, [r4, #0x18]
  00030	e594401c	 ldr         r4, [r4, #0x1C]
  00034	e3a05000	 mov         r5, #0
  00038	e38310bf	 orr         r1, r3, #0xBF
  0003c	e3a03000	 mov         r3, #0
  00040	e58d5000	 str         r5, [sp]
  00044	e1a0e00f	 mov         lr, pc
  00048	e12fff14	 bx          r4

; 240  :     }

  0004c	e28dd004	 add         sp, sp, #4
  00050	e8bd4030	 ldmia       sp!, {r4, r5, lr}
  00054	e12fff1e	 bx          lr
  00058		 |$LN8@DoCallback@6|
  00058		 |$LN9@DoCallback@6|
  00058	00000000	 DCD         |?g_pHWContext@@3PAVHardwareContext@@A|
  0005c		 |$M38086|

			 ENDP  ; |?DoCallbackStreamClosed@InputStreamContext@@UAAXXZ|, InputStreamContext::DoCallbackStreamClosed

	EXPORT	|??1InputStreamContext@@UAA@XZ|		; InputStreamContext::~InputStreamContext

  00000			 AREA	 |.pdata|, PDATA
|$T38106| DCD	|$LN9@InputStrea@2|
	DCD	0x40000400
; Function compile flags: /Ogspy

  00000			 AREA	 |.text|, CODE, ARM

  00000		 |??1InputStreamContext@@UAA@XZ| PROC	; InputStreamContext::~InputStreamContext
  00000		 |$LN9@InputStrea@2|
  00000		 |$M38103|
  00000	e59f3004	 ldr         r3, [pc, #4]
  00004	e5803000	 str         r3, [r0]
  00008	e12fff1e	 bx          lr
  0000c		 |$LN10@InputStrea@2|
  0000c		 |$LN11@InputStrea@2|
  0000c	00000000	 DCD         |??_7StreamContext@@6B@|
  00010		 |$M38104|

			 ENDP  ; |??1InputStreamContext@@UAA@XZ|, InputStreamContext::~InputStreamContext


  00000			 AREA	 |.pdata|, PDATA
|$T38134| DCD	|$LN12@scalar@4|
	DCD	0x40000a01
; Function compile flags: /Ogspy

  00000			 AREA	 |.text|, CODE, ARM

  00000		 |??_GInputStreamContext@@UAAPAXI@Z| PROC ; InputStreamContext::`scalar deleting destructor'
  00000		 |$LN12@scalar@4|
  00000	e92d4010	 stmdb       sp!, {r4, lr}
  00004		 |$M38131|
  00004	e1a04000	 mov         r4, r0
  00008	e59f3014	 ldr         r3, [pc, #0x14]
  0000c	e3110001	 tst         r1, #1
  00010	e5843000	 str         r3, [r4]
  00014	1b000000	 blne        |??3@YAXPAX@Z|
  00018	e1a00004	 mov         r0, r4
  0001c	e8bd4010	 ldmia       sp!, {r4, lr}
  00020	e12fff1e	 bx          lr
  00024		 |$LN13@scalar@4|
  00024		 |$LN14@scalar@4|
  00024	00000000	 DCD         |??_7StreamContext@@6B@|
  00028		 |$M38132|

			 ENDP  ; |??_GInputStreamContext@@UAAPAXI@Z|, InputStreamContext::`scalar deleting destructor'

	EXPORT	|??0OutputStreamContextM8@@QAA@XZ|	; OutputStreamContextM8::OutputStreamContextM8
	EXPORT	|??_7OutputStreamContextM8@@6B@| [ DATA ] ; OutputStreamContextM8::`vftable'
	IMPORT	|??_EOutputStreamContextM8@@UAAPAXI@Z|, WEAK |??_GOutputStreamContextM8@@UAAPAXI@Z| ; OutputStreamContextM8::`vector deleting destructor', OutputStreamContextM8::`scalar deleting destructor'
	IMPORT	|?Render2@OutputStreamContextM8@@UAAPAEPAE00@Z| ; OutputStreamContextM8::Render2

  00000			 AREA	 |.pdata|, PDATA
|$T38161| DCD	|$LN11@OutputStre@3|
	DCD	0x40000500

  00000			 AREA	 |.rdata|, DATA, READONLY
|??_7OutputStreamContextM8@@6B@| DCD |??_EOutputStreamContextM8@@UAAPAXI@Z| ; OutputStreamContextM8::`vftable'
	DCD	|?Open@OutputStreamContext@@UAAJPAVDeviceContext@@PAUwaveopendesc_tag@@K@Z|
	DCD	|?Close@StreamContext@@UAAKXZ|
	DCD	|?GetPos@StreamContext@@UAAKPAUmmtime_tag@@@Z|
	DCD	|?Run@StreamContext@@UAAKXZ|
	DCD	|?Stop@StreamContext@@UAAKXZ|
	DCD	|?Reset@OutputStreamContext@@UAAKXZ|
	DCD	|?Render@WaveStreamContext@@UAAPAEPAE00@Z|
	DCD	|?DoCallbackReturnBuffer@StreamContext@@UAAXPAUwavehdr_tag@@@Z|
	DCD	|?DoCallbackStreamOpened@StreamContext@@UAAXXZ|
	DCD	|?DoCallbackStreamClosed@StreamContext@@UAAXXZ|
	DCD	|?QueueBuffer@StreamContext@@UAAKPAUwavehdr_tag@@@Z|
	DCD	|?GainChange@StreamContext@@UAAXXZ|
	DCD	|?SetRate@OutputStreamContext@@UAAKK@Z|
	DCD	|?Render2@OutputStreamContextM8@@UAAPAEPAE00@Z|
; Function compile flags: /Ogspy

  00000			 AREA	 |.text|, CODE, ARM

  00000		 |??0OutputStreamContextM8@@QAA@XZ| PROC ; OutputStreamContextM8::OutputStreamContextM8
  00000		 |$LN11@OutputStre@3|
  00000		 |$M38158|
  00000	e1a02000	 mov         r2, r0
  00004	e59f3004	 ldr         r3, [pc, #4]
  00008	e5823000	 str         r3, [r2]
  0000c	e12fff1e	 bx          lr
  00010		 |$LN12@OutputStre@3|
  00010		 |$LN13@OutputStre@3|
  00010	00000000	 DCD         |??_7OutputStreamContextM8@@6B@|
  00014		 |$M38159|

			 ENDP  ; |??0OutputStreamContextM8@@QAA@XZ|, OutputStreamContextM8::OutputStreamContextM8

	EXPORT	|??1OutputStreamContextM8@@UAA@XZ|	; OutputStreamContextM8::~OutputStreamContextM8

  00000			 AREA	 |.pdata|, PDATA
|$T38186| DCD	|$LN11@OutputStre@4|
	DCD	0x40000400
; Function compile flags: /Ogspy

  00000			 AREA	 |.text|, CODE, ARM

  00000		 |??1OutputStreamContextM8@@UAA@XZ| PROC ; OutputStreamContextM8::~OutputStreamContextM8
  00000		 |$LN11@OutputStre@4|
  00000		 |$M38183|
  00000	e59f3004	 ldr         r3, [pc, #4]
  00004	e5803000	 str         r3, [r0]
  00008	e12fff1e	 bx          lr
  0000c		 |$LN12@OutputStre@4|
  0000c		 |$LN13@OutputStre@4|
  0000c	00000000	 DCD         |??_7StreamContext@@6B@|
  00010		 |$M38184|

			 ENDP  ; |??1OutputStreamContextM8@@UAA@XZ|, OutputStreamContextM8::~OutputStreamContextM8

	EXPORT	|??0OutputStreamContextM16@@QAA@XZ|	; OutputStreamContextM16::OutputStreamContextM16
	EXPORT	|??_7OutputStreamContextM16@@6B@| [ DATA ] ; OutputStreamContextM16::`vftable'
	IMPORT	|??_EOutputStreamContextM16@@UAAPAXI@Z|, WEAK |??_GOutputStreamContextM16@@UAAPAXI@Z| ; OutputStreamContextM16::`vector deleting destructor', OutputStreamContextM16::`scalar deleting destructor'
	IMPORT	|?Render2@OutputStreamContextM16@@UAAPAEPAE00@Z| ; OutputStreamContextM16::Render2

  00000			 AREA	 |.pdata|, PDATA
|$T38213| DCD	|$LN11@OutputStre@5|
	DCD	0x40000500

  00000			 AREA	 |.rdata|, DATA, READONLY
|??_7OutputStreamContextM16@@6B@| DCD |??_EOutputStreamContextM16@@UAAPAXI@Z| ; OutputStreamContextM16::`vftable'
	DCD	|?Open@OutputStreamContext@@UAAJPAVDeviceContext@@PAUwaveopendesc_tag@@K@Z|
	DCD	|?Close@StreamContext@@UAAKXZ|
	DCD	|?GetPos@StreamContext@@UAAKPAUmmtime_tag@@@Z|
	DCD	|?Run@StreamContext@@UAAKXZ|
	DCD	|?Stop@StreamContext@@UAAKXZ|
	DCD	|?Reset@OutputStreamContext@@UAAKXZ|
	DCD	|?Render@WaveStreamContext@@UAAPAEPAE00@Z|
	DCD	|?DoCallbackReturnBuffer@StreamContext@@UAAXPAUwavehdr_tag@@@Z|
	DCD	|?DoCallbackStreamOpened@StreamContext@@UAAXXZ|
	DCD	|?DoCallbackStreamClosed@StreamContext@@UAAXXZ|
	DCD	|?QueueBuffer@StreamContext@@UAAKPAUwavehdr_tag@@@Z|
	DCD	|?GainChange@StreamContext@@UAAXXZ|
	DCD	|?SetRate@OutputStreamContext@@UAAKK@Z|
	DCD	|?Render2@OutputStreamContextM16@@UAAPAEPAE00@Z|
; Function compile flags: /Ogspy

  00000			 AREA	 |.text|, CODE, ARM

  00000		 |??0OutputStreamContextM16@@QAA@XZ| PROC ; OutputStreamContextM16::OutputStreamContextM16
  00000		 |$LN11@OutputStre@5|
  00000		 |$M38210|
  00000	e1a02000	 mov         r2, r0
  00004	e59f3004	 ldr         r3, [pc, #4]
  00008	e5823000	 str         r3, [r2]
  0000c	e12fff1e	 bx          lr
  00010		 |$LN12@OutputStre@5|
  00010		 |$LN13@OutputStre@5|
  00010	00000000	 DCD         |??_7OutputStreamContextM16@@6B@|
  00014		 |$M38211|

			 ENDP  ; |??0OutputStreamContextM16@@QAA@XZ|, OutputStreamContextM16::OutputStreamContextM16

	EXPORT	|??1OutputStreamContextM16@@UAA@XZ|	; OutputStreamContextM16::~OutputStreamContextM16

  00000			 AREA	 |.pdata|, PDATA
|$T38238| DCD	|$LN11@OutputStre@6|
	DCD	0x40000400
; Function compile flags: /Ogspy

  00000			 AREA	 |.text|, CODE, ARM

  00000		 |??1OutputStreamContextM16@@UAA@XZ| PROC ; OutputStreamContextM16::~OutputStreamContextM16
  00000		 |$LN11@OutputStre@6|
  00000		 |$M38235|
  00000	e59f3004	 ldr         r3, [pc, #4]
  00004	e5803000	 str         r3, [r0]
  00008	e12fff1e	 bx          lr
  0000c		 |$LN12@OutputStre@6|
  0000c		 |$LN13@OutputStre@6|
  0000c	00000000	 DCD         |??_7StreamContext@@6B@|
  00010		 |$M38236|

			 ENDP  ; |??1OutputStreamContextM16@@UAA@XZ|, OutputStreamContextM16::~OutputStreamContextM16

	EXPORT	|??0OutputStreamContextS8@@QAA@XZ|	; OutputStreamContextS8::OutputStreamContextS8
	EXPORT	|??_7OutputStreamContextS8@@6B@| [ DATA ] ; OutputStreamContextS8::`vftable'
	IMPORT	|??_EOutputStreamContextS8@@UAAPAXI@Z|, WEAK |??_GOutputStreamContextS8@@UAAPAXI@Z| ; OutputStreamContextS8::`vector deleting destructor', OutputStreamContextS8::`scalar deleting destructor'
	IMPORT	|?Render2@OutputStreamContextS8@@UAAPAEPAE00@Z| ; OutputStreamContextS8::Render2

  00000			 AREA	 |.pdata|, PDATA
|$T38265| DCD	|$LN11@OutputStre@7|
	DCD	0x40000500

  00000			 AREA	 |.rdata|, DATA, READONLY
|??_7OutputStreamContextS8@@6B@| DCD |??_EOutputStreamContextS8@@UAAPAXI@Z| ; OutputStreamContextS8::`vftable'
	DCD	|?Open@OutputStreamContext@@UAAJPAVDeviceContext@@PAUwaveopendesc_tag@@K@Z|
	DCD	|?Close@StreamContext@@UAAKXZ|
	DCD	|?GetPos@StreamContext@@UAAKPAUmmtime_tag@@@Z|
	DCD	|?Run@StreamContext@@UAAKXZ|
	DCD	|?Stop@StreamContext@@UAAKXZ|
	DCD	|?Reset@OutputStreamContext@@UAAKXZ|
	DCD	|?Render@WaveStreamContext@@UAAPAEPAE00@Z|
	DCD	|?DoCallbackReturnBuffer@StreamContext@@UAAXPAUwavehdr_tag@@@Z|
	DCD	|?DoCallbackStreamOpened@StreamContext@@UAAXXZ|
	DCD	|?DoCallbackStreamClosed@StreamContext@@UAAXXZ|
	DCD	|?QueueBuffer@StreamContext@@UAAKPAUwavehdr_tag@@@Z|
	DCD	|?GainChange@StreamContext@@UAAXXZ|
	DCD	|?SetRate@OutputStreamContext@@UAAKK@Z|
	DCD	|?Render2@OutputStreamContextS8@@UAAPAEPAE00@Z|
; Function compile flags: /Ogspy

  00000			 AREA	 |.text|, CODE, ARM

  00000		 |??0OutputStreamContextS8@@QAA@XZ| PROC ; OutputStreamContextS8::OutputStreamContextS8
  00000		 |$LN11@OutputStre@7|
  00000		 |$M38262|
  00000	e1a02000	 mov         r2, r0
  00004	e59f3004	 ldr         r3, [pc, #4]
  00008	e5823000	 str         r3, [r2]
  0000c	e12fff1e	 bx          lr
  00010		 |$LN12@OutputStre@7|
  00010		 |$LN13@OutputStre@7|
  00010	00000000	 DCD         |??_7OutputStreamContextS8@@6B@|
  00014		 |$M38263|

			 ENDP  ; |??0OutputStreamContextS8@@QAA@XZ|, OutputStreamContextS8::OutputStreamContextS8

	EXPORT	|??1OutputStreamContextS8@@UAA@XZ|	; OutputStreamContextS8::~OutputStreamContextS8

  00000			 AREA	 |.pdata|, PDATA
|$T38290| DCD	|$LN11@OutputStre@8|
	DCD	0x40000400
; Function compile flags: /Ogspy

  00000			 AREA	 |.text|, CODE, ARM

  00000		 |??1OutputStreamContextS8@@UAA@XZ| PROC ; OutputStreamContextS8::~OutputStreamContextS8
  00000		 |$LN11@OutputStre@8|
  00000		 |$M38287|
  00000	e59f3004	 ldr         r3, [pc, #4]
  00004	e5803000	 str         r3, [r0]
  00008	e12fff1e	 bx          lr
  0000c		 |$LN12@OutputStre@8|
  0000c		 |$LN13@OutputStre@8|
  0000c	00000000	 DCD         |??_7StreamContext@@6B@|
  00010		 |$M38288|

			 ENDP  ; |??1OutputStreamContextS8@@UAA@XZ|, OutputStreamContextS8::~OutputStreamContextS8

	EXPORT	|??0OutputStreamContextS16@@QAA@XZ|	; OutputStreamContextS16::OutputStreamContextS16
	EXPORT	|??_7OutputStreamContextS16@@6B@| [ DATA ] ; OutputStreamContextS16::`vftable'
	IMPORT	|??_EOutputStreamContextS16@@UAAPAXI@Z|, WEAK |??_GOutputStreamContextS16@@UAAPAXI@Z| ; OutputStreamContextS16::`vector deleting destructor', OutputStreamContextS16::`scalar deleting destructor'
	IMPORT	|?Render2@OutputStreamContextS16@@UAAPAEPAE00@Z| ; OutputStreamContextS16::Render2

  00000			 AREA	 |.pdata|, PDATA
|$T38317| DCD	|$LN11@OutputStre@9|
	DCD	0x40000500

  00000			 AREA	 |.rdata|, DATA, READONLY
|??_7OutputStreamContextS16@@6B@| DCD |??_EOutputStreamContextS16@@UAAPAXI@Z| ; OutputStreamContextS16::`vftable'
	DCD	|?Open@OutputStreamContext@@UAAJPAVDeviceContext@@PAUwaveopendesc_tag@@K@Z|
	DCD	|?Close@StreamContext@@UAAKXZ|
	DCD	|?GetPos@StreamContext@@UAAKPAUmmtime_tag@@@Z|
	DCD	|?Run@StreamContext@@UAAKXZ|
	DCD	|?Stop@StreamContext@@UAAKXZ|
	DCD	|?Reset@OutputStreamContext@@UAAKXZ|
	DCD	|?Render@WaveStreamContext@@UAAPAEPAE00@Z|
	DCD	|?DoCallbackReturnBuffer@StreamContext@@UAAXPAUwavehdr_tag@@@Z|
	DCD	|?DoCallbackStreamOpened@StreamContext@@UAAXXZ|
	DCD	|?DoCallbackStreamClosed@StreamContext@@UAAXXZ|
	DCD	|?QueueBuffer@StreamContext@@UAAKPAUwavehdr_tag@@@Z|
	DCD	|?GainChange@StreamContext@@UAAXXZ|
	DCD	|?SetRate@OutputStreamContext@@UAAKK@Z|
	DCD	|?Render2@OutputStreamContextS16@@UAAPAEPAE00@Z|
; Function compile flags: /Ogspy

  00000			 AREA	 |.text|, CODE, ARM

  00000		 |??0OutputStreamContextS16@@QAA@XZ| PROC ; OutputStreamContextS16::OutputStreamContextS16
  00000		 |$LN11@OutputStre@9|
  00000		 |$M38314|
  00000	e1a02000	 mov         r2, r0
  00004	e59f3004	 ldr         r3, [pc, #4]
  00008	e5823000	 str         r3, [r2]
  0000c	e12fff1e	 bx          lr
  00010		 |$LN12@OutputStre@9|
  00010		 |$LN13@OutputStre@9|
  00010	00000000	 DCD         |??_7OutputStreamContextS16@@6B@|
  00014		 |$M38315|

			 ENDP  ; |??0OutputStreamContextS16@@QAA@XZ|, OutputStreamContextS16::OutputStreamContextS16

	EXPORT	|??1OutputStreamContextS16@@UAA@XZ|	; OutputStreamContextS16::~OutputStreamContextS16

  00000			 AREA	 |.pdata|, PDATA
|$T38342| DCD	|$LN11@OutputStre@10|
	DCD	0x40000400
; Function compile flags: /Ogspy

  00000			 AREA	 |.text|, CODE, ARM

  00000		 |??1OutputStreamContextS16@@UAA@XZ| PROC ; OutputStreamContextS16::~OutputStreamContextS16
  00000		 |$LN11@OutputStre@10|
  00000		 |$M38339|
  00000	e59f3004	 ldr         r3, [pc, #4]
  00004	e5803000	 str         r3, [r0]
  00008	e12fff1e	 bx          lr
  0000c		 |$LN12@OutputStre@10|
  0000c		 |$LN13@OutputStre@10|
  0000c	00000000	 DCD         |??_7StreamContext@@6B@|
  00010		 |$M38340|

			 ENDP  ; |??1OutputStreamContextS16@@UAA@XZ|, OutputStreamContextS16::~OutputStreamContextS16


  00000			 AREA	 |.pdata|, PDATA
|$T38363| DCD	|$LN10@scalar@5|
	DCD	0x40000a01
; Function compile flags: /Ogspy

  00000			 AREA	 |.text|, CODE, ARM

  00000		 |??_GCMidiStream@@UAAPAXI@Z| PROC	; CMidiStream::`scalar deleting destructor'
  00000		 |$LN10@scalar@5|
  00000	e92d4010	 stmdb       sp!, {r4, lr}
  00004		 |$M38360|
  00004	e1a04000	 mov         r4, r0
  00008	e59f3014	 ldr         r3, [pc, #0x14]
  0000c	e3110001	 tst         r1, #1
  00010	e5843000	 str         r3, [r4]
  00014	1b000000	 blne        |??3@YAXPAX@Z|
  00018	e1a00004	 mov         r0, r4
  0001c	e8bd4010	 ldmia       sp!, {r4, lr}
  00020	e12fff1e	 bx          lr
  00024		 |$LN11@scalar@5|
  00024		 |$LN12@scalar@5|
  00024	00000000	 DCD         |??_7StreamContext@@6B@|
  00028		 |$M38361|

			 ENDP  ; |??_GCMidiStream@@UAAPAXI@Z|, CMidiStream::`scalar deleting destructor'


  00000			 AREA	 |.pdata|, PDATA
|$T38400| DCD	|$LN14@scalar@6|
	DCD	0x40000a01
; Function compile flags: /Ogspy

  00000			 AREA	 |.text|, CODE, ARM

  00000		 |??_GOutputStreamContextM8@@UAAPAXI@Z| PROC ; OutputStreamContextM8::`scalar deleting destructor'
  00000		 |$LN14@scalar@6|
  00000	e92d4010	 stmdb       sp!, {r4, lr}
  00004		 |$M38397|
  00004	e1a04000	 mov         r4, r0
  00008	e59f3014	 ldr         r3, [pc, #0x14]
  0000c	e3110001	 tst         r1, #1
  00010	e5843000	 str         r3, [r4]
  00014	1b000000	 blne        |??3@YAXPAX@Z|
  00018	e1a00004	 mov         r0, r4
  0001c	e8bd4010	 ldmia       sp!, {r4, lr}
  00020	e12fff1e	 bx          lr
  00024		 |$LN15@scalar@6|
  00024		 |$LN16@scalar@6|
  00024	00000000	 DCD         |??_7StreamContext@@6B@|
  00028		 |$M38398|

			 ENDP  ; |??_GOutputStreamContextM8@@UAAPAXI@Z|, OutputStreamContextM8::`scalar deleting destructor'


  00000			 AREA	 |.pdata|, PDATA
|$T38437| DCD	|$LN14@scalar@7|
	DCD	0x40000a01
; Function compile flags: /Ogspy

  00000			 AREA	 |.text|, CODE, ARM

  00000		 |??_GOutputStreamContextM16@@UAAPAXI@Z| PROC ; OutputStreamContextM16::`scalar deleting destructor'
  00000		 |$LN14@scalar@7|
  00000	e92d4010	 stmdb       sp!, {r4, lr}
  00004		 |$M38434|
  00004	e1a04000	 mov         r4, r0
  00008	e59f3014	 ldr         r3, [pc, #0x14]
  0000c	e3110001	 tst         r1, #1
  00010	e5843000	 str         r3, [r4]
  00014	1b000000	 blne        |??3@YAXPAX@Z|
  00018	e1a00004	 mov         r0, r4
  0001c	e8bd4010	 ldmia       sp!, {r4, lr}
  00020	e12fff1e	 bx          lr
  00024		 |$LN15@scalar@7|
  00024		 |$LN16@scalar@7|
  00024	00000000	 DCD         |??_7StreamContext@@6B@|
  00028		 |$M38435|

			 ENDP  ; |??_GOutputStreamContextM16@@UAAPAXI@Z|, OutputStreamContextM16::`scalar deleting destructor'


  00000			 AREA	 |.pdata|, PDATA
|$T38474| DCD	|$LN14@scalar@8|
	DCD	0x40000a01
; Function compile flags: /Ogspy

  00000			 AREA	 |.text|, CODE, ARM

  00000		 |??_GOutputStreamContextS8@@UAAPAXI@Z| PROC ; OutputStreamContextS8::`scalar deleting destructor'
  00000		 |$LN14@scalar@8|
  00000	e92d4010	 stmdb       sp!, {r4, lr}
  00004		 |$M38471|
  00004	e1a04000	 mov         r4, r0
  00008	e59f3014	 ldr         r3, [pc, #0x14]
  0000c	e3110001	 tst         r1, #1
  00010	e5843000	 str         r3, [r4]
  00014	1b000000	 blne        |??3@YAXPAX@Z|
  00018	e1a00004	 mov         r0, r4
  0001c	e8bd4010	 ldmia       sp!, {r4, lr}
  00020	e12fff1e	 bx          lr
  00024		 |$LN15@scalar@8|
  00024		 |$LN16@scalar@8|
  00024	00000000	 DCD         |??_7StreamContext@@6B@|
  00028		 |$M38472|

			 ENDP  ; |??_GOutputStreamContextS8@@UAAPAXI@Z|, OutputStreamContextS8::`scalar deleting destructor'


  00000			 AREA	 |.pdata|, PDATA
|$T38511| DCD	|$LN14@scalar@9|
	DCD	0x40000a01
; Function compile flags: /Ogspy

  00000			 AREA	 |.text|, CODE, ARM

  00000		 |??_GOutputStreamContextS16@@UAAPAXI@Z| PROC ; OutputStreamContextS16::`scalar deleting destructor'
  00000		 |$LN14@scalar@9|
  00000	e92d4010	 stmdb       sp!, {r4, lr}
  00004		 |$M38508|
  00004	e1a04000	 mov         r4, r0
  00008	e59f3014	 ldr         r3, [pc, #0x14]
  0000c	e3110001	 tst         r1, #1
  00010	e5843000	 str         r3, [r4]
  00014	1b000000	 blne        |??3@YAXPAX@Z|
  00018	e1a00004	 mov         r0, r4
  0001c	e8bd4010	 ldmia       sp!, {r4, lr}
  00020	e12fff1e	 bx          lr
  00024		 |$LN15@scalar@9|
  00024		 |$LN16@scalar@9|
  00024	00000000	 DCD         |??_7StreamContext@@6B@|
  00028		 |$M38509|

			 ENDP  ; |??_GOutputStreamContextS16@@UAAPAXI@Z|, OutputStreamContextS16::`scalar deleting destructor'

	EXPORT	|?CreateStream@InputDeviceContext@@UAAPAVStreamContext@@PAUwaveopendesc_tag@@@Z| ; InputDeviceContext::CreateStream
	IMPORT	|??2@YAPAXI@Z|				; operator new

  00000			 AREA	 |.pdata|, PDATA
|$T38541| DCD	|$LN13@CreateStre|
	DCD	0x40000b01
; Function compile flags: /Ogspy
; File c:\wince600\platform\common\src\soc\omap2420_ms_v1\wavedev\devctxt.cpp

  00000			 AREA	 |.text|, CODE, ARM

  00000		 |?CreateStream@InputDeviceContext@@UAAPAVStreamContext@@PAUwaveopendesc_tag@@@Z| PROC ; InputDeviceContext::CreateStream

; 315  : {

  00000		 |$LN13@CreateStre|
  00000	e52de004	 str         lr, [sp, #-4]!
  00004		 |$M38538|

; 316  :     return new InputStreamContext;

  00004	e3a0008c	 mov         r0, #0x8C
  00008	eb000000	 bl          |??2@YAPAXI@Z|
  0000c	e3500000	 cmp         r0, #0
  00010	159f3010	 ldrne       r3, [pc, #0x10]
  00014	15803000	 strne       r3, [r0]

; 317  : }

  00018	149de004	 ldrne       lr, [sp], #4

; 316  :     return new InputStreamContext;

  0001c	03a00000	 moveq       r0, #0

; 317  : }

  00020	049de004	 ldreq       lr, [sp], #4
  00024	e12fff1e	 bx          lr
  00028		 |$LN14@CreateStre|
  00028		 |$LN15@CreateStre|
  00028	00000000	 DCD         |??_7InputStreamContext@@6B@|
  0002c		 |$M38539|

			 ENDP  ; |?CreateStream@InputDeviceContext@@UAAPAVStreamContext@@PAUwaveopendesc_tag@@@Z|, InputDeviceContext::CreateStream

	EXPORT	|?CreateStream@OutputDeviceContext@@UAAPAVStreamContext@@PAUwaveopendesc_tag@@@Z| ; OutputDeviceContext::CreateStream
; File c:\wince600\platform\common\src\soc\omap2420_ms_v1\wavedev\strmctxt.h

  00000			 AREA	 |.pdata|, PDATA
|$T38679| DCD	|$LN59@CreateStre@2|
	DCD	0x40004501
; Function compile flags: /Ogspy
; File c:\wince600\platform\common\src\soc\omap2420_ms_v1\wavedev\devctxt.cpp

  00000			 AREA	 |.text|, CODE, ARM

  00000		 |?CreateStream@OutputDeviceContext@@UAAPAVStreamContext@@PAUwaveopendesc_tag@@@Z| PROC ; OutputDeviceContext::CreateStream

; 328  : {

  00000		 |$LN59@CreateStre@2|
  00000	e52de004	 str         lr, [sp, #-4]!
  00004		 |$M38676|

; 329  :     LPWAVEFORMATEX lpFormat=lpWOD->lpFormat;

  00004	e5d10004	 ldrb        r0, [r1, #4]
  00008	e5d13005	 ldrb        r3, [r1, #5]
  0000c	e5d12006	 ldrb        r2, [r1, #6]
  00010	e5d11007	 ldrb        r1, [r1, #7]
  00014	e1803403	 orr         r3, r0, r3, lsl #8
  00018	e1833802	 orr         r3, r3, r2, lsl #16
  0001c	e1831c01	 orr         r1, r3, r1, lsl #24

; 330  : 
; 331  :     if (lpWOD->lpFormat->wFormatTag == WAVE_FORMAT_MIDI)

  00020	e5d12000	 ldrb        r2, [r1]
  00024	e5d13001	 ldrb        r3, [r1, #1]
  00028	e1823403	 orr         r3, r2, r3, lsl #8
  0002c	e3530a03	 cmp         r3, #3, 20
  00030	1a000007	 bne         |$LN7@CreateStre@2|

; 332  :     {
; 333  :         return new CMidiStream;

  00034	e3a00e61	 mov         r0, #0x61, 28
  00038	eb000000	 bl          |??2@YAPAXI@Z|
  0003c	e3500000	 cmp         r0, #0
  00040	0a00002b	 beq         |$LN18@CreateStre@2|
  00044	e59f30c4	 ldr         r3, [pc, #0xC4]

; 352  :         }
; 353  :         else
; 354  :         {
; 355  :             return new OutputStreamContextS16;

  00048	e5803000	 str         r3, [r0]

; 356  :         }
; 357  :     }
; 358  : }

  0004c	e49de004	 ldr         lr, [sp], #4
  00050	e12fff1e	 bx          lr
  00054		 |$LN7@CreateStre@2|

; 334  :     }
; 335  : 
; 336  :     if (lpFormat->nChannels==1)

  00054	e5d12002	 ldrb        r2, [r1, #2]
  00058	e5d13003	 ldrb        r3, [r1, #3]

; 339  :         {
; 340  :             return new OutputStreamContextM8;

  0005c	e3a0008c	 mov         r0, #0x8C
  00060	e1823403	 orr         r3, r2, r3, lsl #8
  00064	e5d1200e	 ldrb        r2, [r1, #0xE]
  00068	e3530001	 cmp         r3, #1
  0006c	e5d1300f	 ldrb        r3, [r1, #0xF]
  00070	e1823403	 orr         r3, r2, r3, lsl #8
  00074	1a00000f	 bne         |$LN6@CreateStre@2|

; 337  :     {
; 338  :         if (lpFormat->wBitsPerSample==8)

  00078	e3530008	 cmp         r3, #8
  0007c	1a000006	 bne         |$LN5@CreateStre@2|

; 339  :         {
; 340  :             return new OutputStreamContextM8;

  00080	eb000000	 bl          |??2@YAPAXI@Z|
  00084	e3500000	 cmp         r0, #0
  00088	0a000019	 beq         |$LN18@CreateStre@2|
  0008c	e59f3078	 ldr         r3, [pc, #0x78]

; 352  :         }
; 353  :         else
; 354  :         {
; 355  :             return new OutputStreamContextS16;

  00090	e5803000	 str         r3, [r0]

; 356  :         }
; 357  :     }
; 358  : }

  00094	e49de004	 ldr         lr, [sp], #4
  00098	e12fff1e	 bx          lr
  0009c		 |$LN5@CreateStre@2|

; 341  :         }
; 342  :         else
; 343  :         {
; 344  :             return new OutputStreamContextM16;

  0009c	eb000000	 bl          |??2@YAPAXI@Z|
  000a0	e3500000	 cmp         r0, #0
  000a4	0a000012	 beq         |$LN18@CreateStre@2|
  000a8	e59f3058	 ldr         r3, [pc, #0x58]

; 352  :         }
; 353  :         else
; 354  :         {
; 355  :             return new OutputStreamContextS16;

  000ac	e5803000	 str         r3, [r0]

; 356  :         }
; 357  :     }
; 358  : }

  000b0	e49de004	 ldr         lr, [sp], #4
  000b4	e12fff1e	 bx          lr
  000b8		 |$LN6@CreateStre@2|

; 345  :         }
; 346  :     }
; 347  :     else
; 348  :     {
; 349  :         if (lpFormat->wBitsPerSample==8)

  000b8	e3530008	 cmp         r3, #8
  000bc	1a000006	 bne         |$LN2@CreateStre@2|

; 350  :         {
; 351  :             return new OutputStreamContextS8;

  000c0	eb000000	 bl          |??2@YAPAXI@Z|
  000c4	e3500000	 cmp         r0, #0
  000c8	0a000009	 beq         |$LN18@CreateStre@2|
  000cc	e59f3030	 ldr         r3, [pc, #0x30]

; 352  :         }
; 353  :         else
; 354  :         {
; 355  :             return new OutputStreamContextS16;

  000d0	e5803000	 str         r3, [r0]

; 356  :         }
; 357  :     }
; 358  : }

  000d4	e49de004	 ldr         lr, [sp], #4
  000d8	e12fff1e	 bx          lr
  000dc		 |$LN2@CreateStre@2|

; 352  :         }
; 353  :         else
; 354  :         {
; 355  :             return new OutputStreamContextS16;

  000dc	eb000000	 bl          |??2@YAPAXI@Z|
  000e0	e3500000	 cmp         r0, #0
  000e4	159f3014	 ldrne       r3, [pc, #0x14]
  000e8	15803000	 strne       r3, [r0]

; 356  :         }
; 357  :     }
; 358  : }

  000ec	149de004	 ldrne       lr, [sp], #4
  000f0	112fff1e	 bxne        lr
  000f4		 |$LN18@CreateStre@2|

; 352  :         }
; 353  :         else
; 354  :         {
; 355  :             return new OutputStreamContextS16;

  000f4	e3a00000	 mov         r0, #0

; 356  :         }
; 357  :     }
; 358  : }

  000f8	e49de004	 ldr         lr, [sp], #4
  000fc	e12fff1e	 bx          lr
  00100		 |$LN60@CreateStre@2|
  00100		 |$LN61@CreateStre@2|
  00100	00000000	 DCD         |??_7OutputStreamContextS16@@6B@|
  00104		 |$LN62@CreateStre@2|
  00104	00000000	 DCD         |??_7OutputStreamContextS8@@6B@|
  00108		 |$LN63@CreateStre@2|
  00108	00000000	 DCD         |??_7OutputStreamContextM16@@6B@|
  0010c		 |$LN64@CreateStre@2|
  0010c	00000000	 DCD         |??_7OutputStreamContextM8@@6B@|
  00110		 |$LN65@CreateStre@2|
  00110	00000000	 DCD         |??_7CMidiStream@@6B@|
  00114		 |$M38677|

			 ENDP  ; |?CreateStream@OutputDeviceContext@@UAAPAVStreamContext@@PAUwaveopendesc_tag@@@Z|, OutputDeviceContext::CreateStream

	END
