; Listing generated by Microsoft (R) Optimizing Compiler Version 14.01.60511.01 

	TTL	C:\WINCE600\PLATFORM\COMMON\SRC\SOC\OMAP2420_MS_V1\DISPLAY\haldd.cpp
	CODE32

  00000			 AREA	 |.drectve|, DRECTVE
	DCB	"-defaultlib:LIBCMT "
	DCB	"-defaultlib:OLDNAMES "


  00000			 AREA	 |.rdata|, DATA, READONLY
|FourCCDescriptionTable| DCD 0x32595559
	DCD	0x10
	DCD	0xff00ff
	DCD	0xff00
	DCD	0xff000000
	DCD	0x56595559
	DCD	0x10
	DCD	0xff00ff
	DCD	0xff00
	DCD	0xff000000
	DCD	0x55595659
	DCD	0x10
	DCD	0xff00ff00
	DCD	0xff
	DCD	0xff0000
	DCD	0x59565955
	DCD	0x10
	DCD	0xff00ff00
	DCD	0xff
	DCD	0xff0000
	DCD	0x36315659
	DCD	0x10
	DCD	0xffffffff
	DCD	0xffffffff
	DCD	0xffffffff
	DCD	0x32315659
	DCD	0xc
	DCD	0xffffffff
	DCD	0xffffffff
	DCD	0xffffffff
	DCD	0x3231564e
	DCD	0xc
	DCD	0xffffffff
	DCD	0xffffffff
	DCD	0xffffffff
	DCD	0x30323449
	DCD	0xc
	DCD	0xffffffff
	DCD	0xffffffff
	DCD	0xffffffff
	DCD	0x56555949
	DCD	0xc
	DCD	0xffffffff
	DCD	0xffffffff
	DCD	0xffffffff
	EXPORT	|?HalGetDriverInfo@@YAKPAU_DDHAL_GETDRIVERINFODATA@@@Z| ; HalGetDriverInfo
; File c:\wince600\platform\common\src\soc\omap2420_ms_v1\display\haldd.cpp

  00000			 AREA	 |.pdata|, PDATA
|$T40239| DCD	|$LN5@HalGetDriv|
	DCD	0x40000600
; Function compile flags: /Ogspy

  00000			 AREA	 |.text|, CODE, ARM

  00000		 |?HalGetDriverInfo@@YAKPAU_DDHAL_GETDRIVERINFODATA@@@Z| PROC ; HalGetDriverInfo

; 24   : {

  00000		 |$LN5@HalGetDriv|
  00000		 |$M40236|
  00000	e1a02000	 mov         r2, r0

; 25   :     DEBUGMSG(GPE_ZONE_ENTER, (L"+HalGetDriverInfo\r\n"));
; 26   : 
; 27   :     pd->ddRVal = DDERR_CURRENTLYNOTAVAIL;

  00004	e59f3008	 ldr         r3, [pc, #8]

; 28   : 
; 29   :     DEBUGMSG(GPE_ZONE_ENTER, (L"-HalGetDriverInfo: %d\r\n", pd->ddRVal));
; 30   :     return DDHAL_DRIVER_HANDLED;

  00008	e3a00001	 mov         r0, #1
  0000c	e5823028	 str         r3, [r2, #0x28]

; 31   : }

  00010	e12fff1e	 bx          lr
  00014		 |$LN6@HalGetDriv|
  00014		 |$LN7@HalGetDriv|
  00014	88760028	 DCD         0x88760028
  00018		 |$M40237|

			 ENDP  ; |?HalGetDriverInfo@@YAKPAU_DDHAL_GETDRIVERINFODATA@@@Z|, HalGetDriverInfo

	END
