; Listing generated by Microsoft (R) Optimizing Compiler Version 14.01.60511.01 

	TTL	C:\WINCE600\PLATFORM\COMMON\SRC\SOC\COMMON_TI_V1\OMAP3530\MUSB\MUSBHCD\USB2COM\hcd.cpp
	CODE32

  00000			 AREA	 |.drectve|, DRECTVE
	DCB	"-defaultlib:LIBCMT "
	DCB	"-defaultlib:OLDNAMES "

	EXPORT	|??_C@_1DK@JPBDFEOB@?$AAD?$AAE?$AAV?$AAI?$AAC?$AAE?$AA_?$AAC?$AAO?$AAN?$AAF?$AAI?$AAG?$AA_?$AAS?$AAT?$AAA?$AAT?$AAU?$AAS?$AA_?$AAI?$AAN?$AAV?$AAA?$AAL?$AAI?$AAD?$AA?$AA@| [ DATA ] ; `string'
	EXPORT	|??_C@_1DE@IMCKALLA@?$AAD?$AAE?$AAV?$AAI?$AAC?$AAE?$AA_?$AAC?$AAO?$AAN?$AAF?$AAI?$AAG?$AA_?$AAS?$AAT?$AAA?$AAT?$AAU?$AAS?$AA_?$AAD?$AAO?$AAN?$AAE?$AA?$AA@| [ DATA ] ; `string'
	EXPORT	|??_C@_1DI@CEGNOBAM@?$AAD?$AAE?$AAV?$AAI?$AAC?$AAE?$AA_?$AAC?$AAO?$AAN?$AAF?$AAI?$AAG?$AA_?$AAS?$AAT?$AAA?$AAT?$AAU?$AAS?$AA_?$AAF?$AAA?$AAI?$AAL?$AAE?$AAD?$AA?$AA@| [ DATA ] ; `string'
	EXPORT	|??_C@_1HO@PGHDEMEK@?$AAD?$AAE?$AAV?$AAI?$AAC?$AAE?$AA_?$AAC?$AAO?$AAN?$AAF?$AAI?$AAG?$AA_?$AAS?$AAT?$AAA?$AAT?$AAU?$AAS?$AA_?$AAS?$AAI?$AAG?$AAN?$AAA?$AAL?$AA_?$AAN?$AAE?$AAW?$AA_@| [ DATA ] ; `string'
	EXPORT	|??_C@_1II@FBBOBKGN@?$AAD?$AAE?$AAV?$AAI?$AAC?$AAE?$AA_?$AAC?$AAO?$AAN?$AAF?$AAI?$AAG?$AA_?$AAS?$AAT?$AAA?$AAT?$AAU?$AAS?$AA_?$AAI?$AAN?$AAS?$AAE?$AAR?$AAT?$AA_?$AAN?$AAE?$AAW?$AA_@| [ DATA ] ; `string'
	EXPORT	|??_C@_1FC@LCLFDJDO@?$AAD?$AAE?$AAV?$AAI?$AAC?$AAE?$AA_?$AAC?$AAO?$AAN?$AAF?$AAI?$AAG?$AA_?$AAS?$AAT?$AAA?$AAT?$AAU?$AAS?$AA_?$AAC?$AAR?$AAE?$AAA?$AAT?$AAE?$AA_?$AAN?$AAE?$AAW?$AA_@| [ DATA ] ; `string'
	EXPORT	|??_C@_1EI@COKEBMOE@?$AAD?$AAE?$AAV?$AAI?$AAC?$AAE?$AA_?$AAC?$AAO?$AAN?$AAF?$AAI?$AAG?$AA_?$AAS?$AAT?$AAA?$AAT?$AAU?$AAS?$AA_?$AAC?$AAR?$AAE?$AAA?$AAT?$AAE?$AA_?$AAN?$AAE?$AAW?$AA_@| [ DATA ] ; `string'
	EXPORT	|??_C@_1GG@HPGGGHKI@?$AAD?$AAE?$AAV?$AAI?$AAC?$AAE?$AA_?$AAC?$AAO?$AAN?$AAF?$AAI?$AAG?$AA_?$AAS?$AAT?$AAA?$AAT?$AAU?$AAS?$AA_?$AAS?$AAC?$AAH?$AAE?$AAD?$AAU?$AAL?$AAI?$AAN?$AAG?$AA_@| [ DATA ] ; `string'
	EXPORT	|??_C@_1HG@KPBCOGEF@?$AAD?$AAE?$AAV?$AAI?$AAC?$AAE?$AA_?$AAC?$AAO?$AAN?$AAF?$AAI?$AAG?$AA_?$AAS?$AAT?$AAA?$AAT?$AAU?$AAS?$AA_?$AAS?$AAC?$AAH?$AAE?$AAD?$AAU?$AAL?$AAI?$AAN?$AAG?$AA_@| [ DATA ] ; `string'
	EXPORT	|??_C@_1FG@CFFAAPDL@?$AAD?$AAE?$AAV?$AAI?$AAC?$AAE?$AA_?$AAC?$AAO?$AAN?$AAF?$AAI?$AAG?$AA_?$AAS?$AAT?$AAA?$AAT?$AAU?$AAS?$AA_?$AAS?$AAC?$AAH?$AAE?$AAD?$AAU?$AAL?$AAI?$AAN?$AAG?$AA_@| [ DATA ] ; `string'
	EXPORT	|??_C@_1GA@NDHJOKMM@?$AAD?$AAE?$AAV?$AAI?$AAC?$AAE?$AA_?$AAC?$AAO?$AAN?$AAF?$AAI?$AAG?$AA_?$AAS?$AAT?$AAA?$AAT?$AAU?$AAS?$AA_?$AAD?$AAE?$AAT?$AAE?$AAR?$AAM?$AAI?$AAN?$AAE?$AA_?$AAC@| [ DATA ] ; `string'
	EXPORT	|??_C@_1GM@JADKDKDC@?$AAD?$AAE?$AAV?$AAI?$AAC?$AAE?$AA_?$AAC?$AAO?$AAN?$AAF?$AAI?$AAG?$AA_?$AAS?$AAT?$AAA?$AAT?$AAU?$AAS?$AA_?$AAS?$AAC?$AAH?$AAE?$AAD?$AAU?$AAL?$AAI?$AAN?$AAG?$AA_@| [ DATA ] ; `string'
	EXPORT	|??_C@_1HM@NPLCKJLH@?$AAD?$AAE?$AAV?$AAI?$AAC?$AAE?$AA_?$AAC?$AAO?$AAN?$AAF?$AAI?$AAG?$AA_?$AAS?$AAT?$AAA?$AAT?$AAU?$AAS?$AA_?$AAS?$AAC?$AAH?$AAE?$AAD?$AAU?$AAL?$AAI?$AAN?$AAG?$AA_@| [ DATA ] ; `string'
	EXPORT	|??_C@_1HE@MEMGEMJJ@?$AAD?$AAE?$AAV?$AAI?$AAC?$AAE?$AA_?$AAC?$AAO?$AAN?$AAF?$AAI?$AAG?$AA_?$AAS?$AAT?$AAA?$AAT?$AAU?$AAS?$AA_?$AAS?$AAE?$AAT?$AAU?$AAP?$AA_?$AAC?$AAO?$AAN?$AAF?$AAI@| [ DATA ] ; `string'
	EXPORT	|??_C@_1GM@BCHKIAPP@?$AAD?$AAE?$AAV?$AAI?$AAC?$AAE?$AA_?$AAC?$AAO?$AAN?$AAF?$AAI?$AAG?$AA_?$AAS?$AAT?$AAA?$AAT?$AAU?$AAS?$AA_?$AAS?$AAC?$AAH?$AAE?$AAD?$AAU?$AAL?$AAI?$AAN?$AAG?$AA_@| [ DATA ] ; `string'
	EXPORT	|??_C@_1HM@FNPCBDHK@?$AAD?$AAE?$AAV?$AAI?$AAC?$AAE?$AA_?$AAC?$AAO?$AAN?$AAF?$AAI?$AAG?$AA_?$AAS?$AAT?$AAA?$AAT?$AAU?$AAS?$AA_?$AAS?$AAC?$AAH?$AAE?$AAD?$AAU?$AAL?$AAI?$AAN?$AAG?$AA_@| [ DATA ] ; `string'
	EXPORT	|??_C@_1EI@BBOOKHNN@?$AAD?$AAE?$AAV?$AAI?$AAC?$AAE?$AA_?$AAC?$AAO?$AAN?$AAF?$AAI?$AAG?$AA_?$AAS?$AAT?$AAA?$AAT?$AAU?$AAS?$AA_?$AAL?$AAE?$AAA?$AAV?$AAE?$AA_?$AAA?$AAD?$AAD?$AAR?$AAE@| [ DATA ] ; `string'
	EXPORT	|??_C@_1FI@LGLHPFAK@?$AAD?$AAE?$AAV?$AAI?$AAC?$AAE?$AA_?$AAC?$AAO?$AAN?$AAF?$AAI?$AAG?$AA_?$AAS?$AAT?$AAA?$AAT?$AAU?$AAS?$AA_?$AAS?$AAC?$AAH?$AAE?$AAD?$AAU?$AAL?$AAI?$AAN?$AAG?$AA_@| [ DATA ] ; `string'
	EXPORT	|??_C@_1HG@BLNLBKIO@?$AAD?$AAE?$AAV?$AAI?$AAC?$AAE?$AA_?$AAC?$AAO?$AAN?$AAF?$AAI?$AAG?$AA_?$AAS?$AAT?$AAA?$AAT?$AAU?$AAS?$AA_?$AAS?$AAC?$AAH?$AAE?$AAD?$AAU?$AAL?$AAI?$AAN?$AAG?$AA_@| [ DATA ] ; `string'
	EXPORT	|??_C@_1FG@NMCKCJLL@?$AAD?$AAE?$AAV?$AAI?$AAC?$AAE?$AA_?$AAC?$AAO?$AAN?$AAF?$AAI?$AAG?$AA_?$AAS?$AAT?$AAA?$AAT?$AAU?$AAS?$AA_?$AAR?$AAE?$AAS?$AAE?$AAT?$AA_?$AAA?$AAN?$AAD?$AA_?$AAE@| [ DATA ] ; `string'
	EXPORT	|??_C@_1EI@KNOIBOPH@?$AAD?$AAE?$AAV?$AAI?$AAC?$AAE?$AA_?$AAC?$AAO?$AAN?$AAF?$AAI?$AAG?$AA_?$AAS?$AAT?$AAA?$AAT?$AAU?$AAS?$AA_?$AAU?$AAS?$AAI?$AAN?$AAG?$AA_?$AAA?$AAD?$AAD?$AAR?$AAE@| [ DATA ] ; `string'
	EXPORT	|??_C@_1FI@COMJHLEF@?$AAD?$AAE?$AAV?$AAI?$AAC?$AAE?$AA_?$AAC?$AAO?$AAN?$AAF?$AAI?$AAG?$AA_?$AAS?$AAT?$AAA?$AAT?$AAU?$AAS?$AA_?$AAO?$AAP?$AAE?$AAN?$AAI?$AAN?$AAG?$AA_?$AAE?$AAN?$AAD@| [ DATA ] ; `string'

  00000			 AREA	 |.data|, DATA
|cszCfgStateStrings| DCD |??_C@_1FI@COMJHLEF@?$AAD?$AAE?$AAV?$AAI?$AAC?$AAE?$AA_?$AAC?$AAO?$AAN?$AAF?$AAI?$AAG?$AA_?$AAS?$AAT?$AAA?$AAT?$AAU?$AAS?$AA_?$AAO?$AAP?$AAE?$AAN?$AAI?$AAN?$AAG?$AA_?$AAE?$AAN?$AAD@|
	DCD	|??_C@_1EI@KNOIBOPH@?$AAD?$AAE?$AAV?$AAI?$AAC?$AAE?$AA_?$AAC?$AAO?$AAN?$AAF?$AAI?$AAG?$AA_?$AAS?$AAT?$AAA?$AAT?$AAU?$AAS?$AA_?$AAU?$AAS?$AAI?$AAN?$AAG?$AA_?$AAA?$AAD?$AAD?$AAR?$AAE@|
	DCD	|??_C@_1FG@NMCKCJLL@?$AAD?$AAE?$AAV?$AAI?$AAC?$AAE?$AA_?$AAC?$AAO?$AAN?$AAF?$AAI?$AAG?$AA_?$AAS?$AAT?$AAA?$AAT?$AAU?$AAS?$AA_?$AAR?$AAE?$AAS?$AAE?$AAT?$AA_?$AAA?$AAN?$AAD?$AA_?$AAE@|
	DCD	|??_C@_1HG@BLNLBKIO@?$AAD?$AAE?$AAV?$AAI?$AAC?$AAE?$AA_?$AAC?$AAO?$AAN?$AAF?$AAI?$AAG?$AA_?$AAS?$AAT?$AAA?$AAT?$AAU?$AAS?$AA_?$AAS?$AAC?$AAH?$AAE?$AAD?$AAU?$AAL?$AAI?$AAN?$AAG?$AA_@|
	DCD	|??_C@_1FI@LGLHPFAK@?$AAD?$AAE?$AAV?$AAI?$AAC?$AAE?$AA_?$AAC?$AAO?$AAN?$AAF?$AAI?$AAG?$AA_?$AAS?$AAT?$AAA?$AAT?$AAU?$AAS?$AA_?$AAS?$AAC?$AAH?$AAE?$AAD?$AAU?$AAL?$AAI?$AAN?$AAG?$AA_@|
	DCD	|??_C@_1EI@BBOOKHNN@?$AAD?$AAE?$AAV?$AAI?$AAC?$AAE?$AA_?$AAC?$AAO?$AAN?$AAF?$AAI?$AAG?$AA_?$AAS?$AAT?$AAA?$AAT?$AAU?$AAS?$AA_?$AAL?$AAE?$AAA?$AAV?$AAE?$AA_?$AAA?$AAD?$AAD?$AAR?$AAE@|
	DCD	|??_C@_1HM@FNPCBDHK@?$AAD?$AAE?$AAV?$AAI?$AAC?$AAE?$AA_?$AAC?$AAO?$AAN?$AAF?$AAI?$AAG?$AA_?$AAS?$AAT?$AAA?$AAT?$AAU?$AAS?$AA_?$AAS?$AAC?$AAH?$AAE?$AAD?$AAU?$AAL?$AAI?$AAN?$AAG?$AA_@|
	DCD	|??_C@_1GM@BCHKIAPP@?$AAD?$AAE?$AAV?$AAI?$AAC?$AAE?$AA_?$AAC?$AAO?$AAN?$AAF?$AAI?$AAG?$AA_?$AAS?$AAT?$AAA?$AAT?$AAU?$AAS?$AA_?$AAS?$AAC?$AAH?$AAE?$AAD?$AAU?$AAL?$AAI?$AAN?$AAG?$AA_@|
	DCD	|??_C@_1HE@MEMGEMJJ@?$AAD?$AAE?$AAV?$AAI?$AAC?$AAE?$AA_?$AAC?$AAO?$AAN?$AAF?$AAI?$AAG?$AA_?$AAS?$AAT?$AAA?$AAT?$AAU?$AAS?$AA_?$AAS?$AAE?$AAT?$AAU?$AAP?$AA_?$AAC?$AAO?$AAN?$AAF?$AAI@|
	DCD	|??_C@_1HM@NPLCKJLH@?$AAD?$AAE?$AAV?$AAI?$AAC?$AAE?$AA_?$AAC?$AAO?$AAN?$AAF?$AAI?$AAG?$AA_?$AAS?$AAT?$AAA?$AAT?$AAU?$AAS?$AA_?$AAS?$AAC?$AAH?$AAE?$AAD?$AAU?$AAL?$AAI?$AAN?$AAG?$AA_@|
	DCD	|??_C@_1GM@JADKDKDC@?$AAD?$AAE?$AAV?$AAI?$AAC?$AAE?$AA_?$AAC?$AAO?$AAN?$AAF?$AAI?$AAG?$AA_?$AAS?$AAT?$AAA?$AAT?$AAU?$AAS?$AA_?$AAS?$AAC?$AAH?$AAE?$AAD?$AAU?$AAL?$AAI?$AAN?$AAG?$AA_@|
	DCD	|??_C@_1GA@NDHJOKMM@?$AAD?$AAE?$AAV?$AAI?$AAC?$AAE?$AA_?$AAC?$AAO?$AAN?$AAF?$AAI?$AAG?$AA_?$AAS?$AAT?$AAA?$AAT?$AAU?$AAS?$AA_?$AAD?$AAE?$AAT?$AAE?$AAR?$AAM?$AAI?$AAN?$AAE?$AA_?$AAC@|
	DCD	|??_C@_1FG@CFFAAPDL@?$AAD?$AAE?$AAV?$AAI?$AAC?$AAE?$AA_?$AAC?$AAO?$AAN?$AAF?$AAI?$AAG?$AA_?$AAS?$AAT?$AAA?$AAT?$AAU?$AAS?$AA_?$AAS?$AAC?$AAH?$AAE?$AAD?$AAU?$AAL?$AAI?$AAN?$AAG?$AA_@|
	DCD	|??_C@_1HG@KPBCOGEF@?$AAD?$AAE?$AAV?$AAI?$AAC?$AAE?$AA_?$AAC?$AAO?$AAN?$AAF?$AAI?$AAG?$AA_?$AAS?$AAT?$AAA?$AAT?$AAU?$AAS?$AA_?$AAS?$AAC?$AAH?$AAE?$AAD?$AAU?$AAL?$AAI?$AAN?$AAG?$AA_@|
	DCD	|??_C@_1GG@HPGGGHKI@?$AAD?$AAE?$AAV?$AAI?$AAC?$AAE?$AA_?$AAC?$AAO?$AAN?$AAF?$AAI?$AAG?$AA_?$AAS?$AAT?$AAA?$AAT?$AAU?$AAS?$AA_?$AAS?$AAC?$AAH?$AAE?$AAD?$AAU?$AAL?$AAI?$AAN?$AAG?$AA_@|
	DCD	|??_C@_1EI@COKEBMOE@?$AAD?$AAE?$AAV?$AAI?$AAC?$AAE?$AA_?$AAC?$AAO?$AAN?$AAF?$AAI?$AAG?$AA_?$AAS?$AAT?$AAA?$AAT?$AAU?$AAS?$AA_?$AAC?$AAR?$AAE?$AAA?$AAT?$AAE?$AA_?$AAN?$AAE?$AAW?$AA_@|
	DCD	|??_C@_1FC@LCLFDJDO@?$AAD?$AAE?$AAV?$AAI?$AAC?$AAE?$AA_?$AAC?$AAO?$AAN?$AAF?$AAI?$AAG?$AA_?$AAS?$AAT?$AAA?$AAT?$AAU?$AAS?$AA_?$AAC?$AAR?$AAE?$AAA?$AAT?$AAE?$AA_?$AAN?$AAE?$AAW?$AA_@|
	DCD	|??_C@_1II@FBBOBKGN@?$AAD?$AAE?$AAV?$AAI?$AAC?$AAE?$AA_?$AAC?$AAO?$AAN?$AAF?$AAI?$AAG?$AA_?$AAS?$AAT?$AAA?$AAT?$AAU?$AAS?$AA_?$AAI?$AAN?$AAS?$AAE?$AAR?$AAT?$AA_?$AAN?$AAE?$AAW?$AA_@|
	DCD	|??_C@_1HO@PGHDEMEK@?$AAD?$AAE?$AAV?$AAI?$AAC?$AAE?$AA_?$AAC?$AAO?$AAN?$AAF?$AAI?$AAG?$AA_?$AAS?$AAT?$AAA?$AAT?$AAU?$AAS?$AA_?$AAS?$AAI?$AAG?$AAN?$AAA?$AAL?$AA_?$AAN?$AAE?$AAW?$AA_@|
	DCD	|??_C@_1DI@CEGNOBAM@?$AAD?$AAE?$AAV?$AAI?$AAC?$AAE?$AA_?$AAC?$AAO?$AAN?$AAF?$AAI?$AAG?$AA_?$AAS?$AAT?$AAA?$AAT?$AAU?$AAS?$AA_?$AAF?$AAA?$AAI?$AAL?$AAE?$AAD?$AA?$AA@|
	DCD	|??_C@_1DE@IMCKALLA@?$AAD?$AAE?$AAV?$AAI?$AAC?$AAE?$AA_?$AAC?$AAO?$AAN?$AAF?$AAI?$AAG?$AA_?$AAS?$AAT?$AAA?$AAT?$AAU?$AAS?$AA_?$AAD?$AAO?$AAN?$AAE?$AA?$AA@|
	DCD	|??_C@_1DK@JPBDFEOB@?$AAD?$AAE?$AAV?$AAI?$AAC?$AAE?$AA_?$AAC?$AAO?$AAN?$AAF?$AAI?$AAG?$AA_?$AAS?$AAT?$AAA?$AAT?$AAU?$AAS?$AA_?$AAI?$AAN?$AAV?$AAA?$AAL?$AAI?$AAD?$AA?$AA@|

  00000			 AREA	 |.rdata|, DATA, READONLY
|??_C@_1DK@JPBDFEOB@?$AAD?$AAE?$AAV?$AAI?$AAC?$AAE?$AA_?$AAC?$AAO?$AAN?$AAF?$AAI?$AAG?$AA_?$AAS?$AAT?$AAA?$AAT?$AAU?$AAS?$AA_?$AAI?$AAN?$AAV?$AAA?$AAL?$AAI?$AAD?$AA?$AA@| DCB "D"
	DCB	0x0, "E", 0x0, "V", 0x0, "I", 0x0, "C", 0x0, "E", 0x0, "_"
	DCB	0x0, "C", 0x0, "O", 0x0, "N", 0x0, "F", 0x0, "I", 0x0, "G"
	DCB	0x0, "_", 0x0, "S", 0x0, "T", 0x0, "A", 0x0, "T", 0x0, "U"
	DCB	0x0, "S", 0x0, "_", 0x0, "I", 0x0, "N", 0x0, "V", 0x0, "A"
	DCB	0x0, "L", 0x0, "I", 0x0, "D", 0x0, 0x0, 0x0 ; `string'

  00000			 AREA	 |.rdata|, DATA, READONLY
|??_C@_1DE@IMCKALLA@?$AAD?$AAE?$AAV?$AAI?$AAC?$AAE?$AA_?$AAC?$AAO?$AAN?$AAF?$AAI?$AAG?$AA_?$AAS?$AAT?$AAA?$AAT?$AAU?$AAS?$AA_?$AAD?$AAO?$AAN?$AAE?$AA?$AA@| DCB "D"
	DCB	0x0, "E", 0x0, "V", 0x0, "I", 0x0, "C", 0x0, "E", 0x0, "_"
	DCB	0x0, "C", 0x0, "O", 0x0, "N", 0x0, "F", 0x0, "I", 0x0, "G"
	DCB	0x0, "_", 0x0, "S", 0x0, "T", 0x0, "A", 0x0, "T", 0x0, "U"
	DCB	0x0, "S", 0x0, "_", 0x0, "D", 0x0, "O", 0x0, "N", 0x0, "E"
	DCB	0x0, 0x0, 0x0				; `string'

  00000			 AREA	 |.rdata|, DATA, READONLY
|??_C@_1DI@CEGNOBAM@?$AAD?$AAE?$AAV?$AAI?$AAC?$AAE?$AA_?$AAC?$AAO?$AAN?$AAF?$AAI?$AAG?$AA_?$AAS?$AAT?$AAA?$AAT?$AAU?$AAS?$AA_?$AAF?$AAA?$AAI?$AAL?$AAE?$AAD?$AA?$AA@| DCB "D"
	DCB	0x0, "E", 0x0, "V", 0x0, "I", 0x0, "C", 0x0, "E", 0x0, "_"
	DCB	0x0, "C", 0x0, "O", 0x0, "N", 0x0, "F", 0x0, "I", 0x0, "G"
	DCB	0x0, "_", 0x0, "S", 0x0, "T", 0x0, "A", 0x0, "T", 0x0, "U"
	DCB	0x0, "S", 0x0, "_", 0x0, "F", 0x0, "A", 0x0, "I", 0x0, "L"
	DCB	0x0, "E", 0x0, "D", 0x0, 0x0, 0x0	; `string'

  00000			 AREA	 |.rdata|, DATA, READONLY
|??_C@_1HO@PGHDEMEK@?$AAD?$AAE?$AAV?$AAI?$AAC?$AAE?$AA_?$AAC?$AAO?$AAN?$AAF?$AAI?$AAG?$AA_?$AAS?$AAT?$AAA?$AAT?$AAU?$AAS?$AA_?$AAS?$AAI?$AAG?$AAN?$AAA?$AAL?$AA_?$AAN?$AAE?$AAW?$AA_@| DCB "D"
	DCB	0x0, "E", 0x0, "V", 0x0, "I", 0x0, "C", 0x0, "E", 0x0, "_"
	DCB	0x0, "C", 0x0, "O", 0x0, "N", 0x0, "F", 0x0, "I", 0x0, "G"
	DCB	0x0, "_", 0x0, "S", 0x0, "T", 0x0, "A", 0x0, "T", 0x0, "U"
	DCB	0x0, "S", 0x0, "_", 0x0, "S", 0x0, "I", 0x0, "G", 0x0, "N"
	DCB	0x0, "A", 0x0, "L", 0x0, "_", 0x0, "N", 0x0, "E", 0x0, "W"
	DCB	0x0, "_", 0x0, "D", 0x0, "E", 0x0, "V", 0x0, "I", 0x0, "C"
	DCB	0x0, "E", 0x0, "_", 0x0, "E", 0x0, "N", 0x0, "T", 0x0, "E"
	DCB	0x0, "R", 0x0, "_", 0x0, "O", 0x0, "P", 0x0, "E", 0x0, "R"
	DCB	0x0, "A", 0x0, "T", 0x0, "I", 0x0, "O", 0x0, "N", 0x0, "A"
	DCB	0x0, "L", 0x0, "_", 0x0, "S", 0x0, "T", 0x0, "A", 0x0, "T"
	DCB	0x0, "E", 0x0, 0x0, 0x0			; `string'

  00000			 AREA	 |.rdata|, DATA, READONLY
|??_C@_1II@FBBOBKGN@?$AAD?$AAE?$AAV?$AAI?$AAC?$AAE?$AA_?$AAC?$AAO?$AAN?$AAF?$AAI?$AAG?$AA_?$AAS?$AAT?$AAA?$AAT?$AAU?$AAS?$AA_?$AAI?$AAN?$AAS?$AAE?$AAR?$AAT?$AA_?$AAN?$AAE?$AAW?$AA_@| DCB "D"
	DCB	0x0, "E", 0x0, "V", 0x0, "I", 0x0, "C", 0x0, "E", 0x0, "_"
	DCB	0x0, "C", 0x0, "O", 0x0, "N", 0x0, "F", 0x0, "I", 0x0, "G"
	DCB	0x0, "_", 0x0, "S", 0x0, "T", 0x0, "A", 0x0, "T", 0x0, "U"
	DCB	0x0, "S", 0x0, "_", 0x0, "I", 0x0, "N", 0x0, "S", 0x0, "E"
	DCB	0x0, "R", 0x0, "T", 0x0, "_", 0x0, "N", 0x0, "E", 0x0, "W"
	DCB	0x0, "_", 0x0, "D", 0x0, "E", 0x0, "V", 0x0, "I", 0x0, "C"
	DCB	0x0, "E", 0x0, "_", 0x0, "I", 0x0, "N", 0x0, "T", 0x0, "O"
	DCB	0x0, "_", 0x0, "U", 0x0, "P", 0x0, "S", 0x0, "T", 0x0, "R"
	DCB	0x0, "E", 0x0, "A", 0x0, "M", 0x0, "_", 0x0, "H", 0x0, "U"
	DCB	0x0, "B", 0x0, "_", 0x0, "P", 0x0, "O", 0x0, "R", 0x0, "T"
	DCB	0x0, "_", 0x0, "A", 0x0, "R", 0x0, "R", 0x0, "A", 0x0, "Y"
	DCB	0x0, 0x0, 0x0				; `string'

  00000			 AREA	 |.rdata|, DATA, READONLY
|??_C@_1FC@LCLFDJDO@?$AAD?$AAE?$AAV?$AAI?$AAC?$AAE?$AA_?$AAC?$AAO?$AAN?$AAF?$AAI?$AAG?$AA_?$AAS?$AAT?$AAA?$AAT?$AAU?$AAS?$AA_?$AAC?$AAR?$AAE?$AAA?$AAT?$AAE?$AA_?$AAN?$AAE?$AAW?$AA_@| DCB "D"
	DCB	0x0, "E", 0x0, "V", 0x0, "I", 0x0, "C", 0x0, "E", 0x0, "_"
	DCB	0x0, "C", 0x0, "O", 0x0, "N", 0x0, "F", 0x0, "I", 0x0, "G"
	DCB	0x0, "_", 0x0, "S", 0x0, "T", 0x0, "A", 0x0, "T", 0x0, "U"
	DCB	0x0, "S", 0x0, "_", 0x0, "C", 0x0, "R", 0x0, "E", 0x0, "A"
	DCB	0x0, "T", 0x0, "E", 0x0, "_", 0x0, "N", 0x0, "E", 0x0, "W"
	DCB	0x0, "_", 0x0, "F", 0x0, "U", 0x0, "N", 0x0, "C", 0x0, "T"
	DCB	0x0, "I", 0x0, "O", 0x0, "N", 0x0, 0x0, 0x0 ; `string'

  00000			 AREA	 |.rdata|, DATA, READONLY
|??_C@_1EI@COKEBMOE@?$AAD?$AAE?$AAV?$AAI?$AAC?$AAE?$AA_?$AAC?$AAO?$AAN?$AAF?$AAI?$AAG?$AA_?$AAS?$AAT?$AAA?$AAT?$AAU?$AAS?$AA_?$AAC?$AAR?$AAE?$AAA?$AAT?$AAE?$AA_?$AAN?$AAE?$AAW?$AA_@| DCB "D"
	DCB	0x0, "E", 0x0, "V", 0x0, "I", 0x0, "C", 0x0, "E", 0x0, "_"
	DCB	0x0, "C", 0x0, "O", 0x0, "N", 0x0, "F", 0x0, "I", 0x0, "G"
	DCB	0x0, "_", 0x0, "S", 0x0, "T", 0x0, "A", 0x0, "T", 0x0, "U"
	DCB	0x0, "S", 0x0, "_", 0x0, "C", 0x0, "R", 0x0, "E", 0x0, "A"
	DCB	0x0, "T", 0x0, "E", 0x0, "_", 0x0, "N", 0x0, "E", 0x0, "W"
	DCB	0x0, "_", 0x0, "H", 0x0, "U", 0x0, "B", 0x0, 0x0, 0x0 ; `string'

  00000			 AREA	 |.rdata|, DATA, READONLY
|??_C@_1GG@HPGGGHKI@?$AAD?$AAE?$AAV?$AAI?$AAC?$AAE?$AA_?$AAC?$AAO?$AAN?$AAF?$AAI?$AAG?$AA_?$AAS?$AAT?$AAA?$AAT?$AAU?$AAS?$AA_?$AAS?$AAC?$AAH?$AAE?$AAD?$AAU?$AAL?$AAI?$AAN?$AAG?$AA_@| DCB "D"
	DCB	0x0, "E", 0x0, "V", 0x0, "I", 0x0, "C", 0x0, "E", 0x0, "_"
	DCB	0x0, "C", 0x0, "O", 0x0, "N", 0x0, "F", 0x0, "I", 0x0, "G"
	DCB	0x0, "_", 0x0, "S", 0x0, "T", 0x0, "A", 0x0, "T", 0x0, "U"
	DCB	0x0, "S", 0x0, "_", 0x0, "S", 0x0, "C", 0x0, "H", 0x0, "E"
	DCB	0x0, "D", 0x0, "U", 0x0, "L", 0x0, "I", 0x0, "N", 0x0, "G"
	DCB	0x0, "_", 0x0, "G", 0x0, "E", 0x0, "T", 0x0, "_", 0x0, "H"
	DCB	0x0, "U", 0x0, "B", 0x0, "_", 0x0, "D", 0x0, "E", 0x0, "S"
	DCB	0x0, "C", 0x0, "R", 0x0, "I", 0x0, "P", 0x0, "T", 0x0, "O"
	DCB	0x0, "R", 0x0, 0x0, 0x0			; `string'

  00000			 AREA	 |.rdata|, DATA, READONLY
|??_C@_1HG@KPBCOGEF@?$AAD?$AAE?$AAV?$AAI?$AAC?$AAE?$AA_?$AAC?$AAO?$AAN?$AAF?$AAI?$AAG?$AA_?$AAS?$AAT?$AAA?$AAT?$AAU?$AAS?$AA_?$AAS?$AAC?$AAH?$AAE?$AAD?$AAU?$AAL?$AAI?$AAN?$AAG?$AA_@| DCB "D"
	DCB	0x0, "E", 0x0, "V", 0x0, "I", 0x0, "C", 0x0, "E", 0x0, "_"
	DCB	0x0, "C", 0x0, "O", 0x0, "N", 0x0, "F", 0x0, "I", 0x0, "G"
	DCB	0x0, "_", 0x0, "S", 0x0, "T", 0x0, "A", 0x0, "T", 0x0, "U"
	DCB	0x0, "S", 0x0, "_", 0x0, "S", 0x0, "C", 0x0, "H", 0x0, "E"
	DCB	0x0, "D", 0x0, "U", 0x0, "L", 0x0, "I", 0x0, "N", 0x0, "G"
	DCB	0x0, "_", 0x0, "G", 0x0, "E", 0x0, "T", 0x0, "_", 0x0, "I"
	DCB	0x0, "N", 0x0, "I", 0x0, "T", 0x0, "I", 0x0, "A", 0x0, "L"
	DCB	0x0, "_", 0x0, "H", 0x0, "U", 0x0, "B", 0x0, "_", 0x0, "D"
	DCB	0x0, "E", 0x0, "S", 0x0, "C", 0x0, "R", 0x0, "I", 0x0, "P"
	DCB	0x0, "T", 0x0, "O", 0x0, "R", 0x0, 0x0, 0x0 ; `string'

  00000			 AREA	 |.rdata|, DATA, READONLY
|??_C@_1FG@CFFAAPDL@?$AAD?$AAE?$AAV?$AAI?$AAC?$AAE?$AA_?$AAC?$AAO?$AAN?$AAF?$AAI?$AAG?$AA_?$AAS?$AAT?$AAA?$AAT?$AAU?$AAS?$AA_?$AAS?$AAC?$AAH?$AAE?$AAD?$AAU?$AAL?$AAI?$AAN?$AAG?$AA_@| DCB "D"
	DCB	0x0, "E", 0x0, "V", 0x0, "I", 0x0, "C", 0x0, "E", 0x0, "_"
	DCB	0x0, "C", 0x0, "O", 0x0, "N", 0x0, "F", 0x0, "I", 0x0, "G"
	DCB	0x0, "_", 0x0, "S", 0x0, "T", 0x0, "A", 0x0, "T", 0x0, "U"
	DCB	0x0, "S", 0x0, "_", 0x0, "S", 0x0, "C", 0x0, "H", 0x0, "E"
	DCB	0x0, "D", 0x0, "U", 0x0, "L", 0x0, "I", 0x0, "N", 0x0, "G"
	DCB	0x0, "_", 0x0, "S", 0x0, "E", 0x0, "T", 0x0, "_", 0x0, "C"
	DCB	0x0, "O", 0x0, "N", 0x0, "F", 0x0, "I", 0x0, "G", 0x0, 0x0
	DCB	0x0					; `string'

  00000			 AREA	 |.rdata|, DATA, READONLY
|??_C@_1GA@NDHJOKMM@?$AAD?$AAE?$AAV?$AAI?$AAC?$AAE?$AA_?$AAC?$AAO?$AAN?$AAF?$AAI?$AAG?$AA_?$AAS?$AAT?$AAA?$AAT?$AAU?$AAS?$AA_?$AAD?$AAE?$AAT?$AAE?$AAR?$AAM?$AAI?$AAN?$AAE?$AA_?$AAC@| DCB "D"
	DCB	0x0, "E", 0x0, "V", 0x0, "I", 0x0, "C", 0x0, "E", 0x0, "_"
	DCB	0x0, "C", 0x0, "O", 0x0, "N", 0x0, "F", 0x0, "I", 0x0, "G"
	DCB	0x0, "_", 0x0, "S", 0x0, "T", 0x0, "A", 0x0, "T", 0x0, "U"
	DCB	0x0, "S", 0x0, "_", 0x0, "D", 0x0, "E", 0x0, "T", 0x0, "E"
	DCB	0x0, "R", 0x0, "M", 0x0, "I", 0x0, "N", 0x0, "E", 0x0, "_"
	DCB	0x0, "C", 0x0, "O", 0x0, "N", 0x0, "F", 0x0, "I", 0x0, "G"
	DCB	0x0, "_", 0x0, "T", 0x0, "O", 0x0, "_", 0x0, "C", 0x0, "H"
	DCB	0x0, "O", 0x0, "O", 0x0, "S", 0x0, "E", 0x0, 0x0, 0x0 ; `string'

  00000			 AREA	 |.rdata|, DATA, READONLY
|??_C@_1GM@JADKDKDC@?$AAD?$AAE?$AAV?$AAI?$AAC?$AAE?$AA_?$AAC?$AAO?$AAN?$AAF?$AAI?$AAG?$AA_?$AAS?$AAT?$AAA?$AAT?$AAU?$AAS?$AA_?$AAS?$AAC?$AAH?$AAE?$AAD?$AAU?$AAL?$AAI?$AAN?$AAG?$AA_@| DCB "D"
	DCB	0x0, "E", 0x0, "V", 0x0, "I", 0x0, "C", 0x0, "E", 0x0, "_"
	DCB	0x0, "C", 0x0, "O", 0x0, "N", 0x0, "F", 0x0, "I", 0x0, "G"
	DCB	0x0, "_", 0x0, "S", 0x0, "T", 0x0, "A", 0x0, "T", 0x0, "U"
	DCB	0x0, "S", 0x0, "_", 0x0, "S", 0x0, "C", 0x0, "H", 0x0, "E"
	DCB	0x0, "D", 0x0, "U", 0x0, "L", 0x0, "I", 0x0, "N", 0x0, "G"
	DCB	0x0, "_", 0x0, "G", 0x0, "E", 0x0, "T", 0x0, "_", 0x0, "C"
	DCB	0x0, "O", 0x0, "N", 0x0, "F", 0x0, "I", 0x0, "G", 0x0, "_"
	DCB	0x0, "D", 0x0, "E", 0x0, "S", 0x0, "C", 0x0, "R", 0x0, "I"
	DCB	0x0, "P", 0x0, "T", 0x0, "O", 0x0, "R", 0x0, 0x0, 0x0 ; `string'

  00000			 AREA	 |.rdata|, DATA, READONLY
|??_C@_1HM@NPLCKJLH@?$AAD?$AAE?$AAV?$AAI?$AAC?$AAE?$AA_?$AAC?$AAO?$AAN?$AAF?$AAI?$AAG?$AA_?$AAS?$AAT?$AAA?$AAT?$AAU?$AAS?$AA_?$AAS?$AAC?$AAH?$AAE?$AAD?$AAU?$AAL?$AAI?$AAN?$AAG?$AA_@| DCB "D"
	DCB	0x0, "E", 0x0, "V", 0x0, "I", 0x0, "C", 0x0, "E", 0x0, "_"
	DCB	0x0, "C", 0x0, "O", 0x0, "N", 0x0, "F", 0x0, "I", 0x0, "G"
	DCB	0x0, "_", 0x0, "S", 0x0, "T", 0x0, "A", 0x0, "T", 0x0, "U"
	DCB	0x0, "S", 0x0, "_", 0x0, "S", 0x0, "C", 0x0, "H", 0x0, "E"
	DCB	0x0, "D", 0x0, "U", 0x0, "L", 0x0, "I", 0x0, "N", 0x0, "G"
	DCB	0x0, "_", 0x0, "G", 0x0, "E", 0x0, "T", 0x0, "_", 0x0, "I"
	DCB	0x0, "N", 0x0, "I", 0x0, "T", 0x0, "I", 0x0, "A", 0x0, "L"
	DCB	0x0, "_", 0x0, "C", 0x0, "O", 0x0, "N", 0x0, "F", 0x0, "I"
	DCB	0x0, "G", 0x0, "_", 0x0, "D", 0x0, "E", 0x0, "S", 0x0, "C"
	DCB	0x0, "R", 0x0, "I", 0x0, "P", 0x0, "T", 0x0, "O", 0x0, "R"
	DCB	0x0, 0x0, 0x0				; `string'

  00000			 AREA	 |.rdata|, DATA, READONLY
|??_C@_1HE@MEMGEMJJ@?$AAD?$AAE?$AAV?$AAI?$AAC?$AAE?$AA_?$AAC?$AAO?$AAN?$AAF?$AAI?$AAG?$AA_?$AAS?$AAT?$AAA?$AAT?$AAU?$AAS?$AA_?$AAS?$AAE?$AAT?$AAU?$AAP?$AA_?$AAC?$AAO?$AAN?$AAF?$AAI@| DCB "D"
	DCB	0x0, "E", 0x0, "V", 0x0, "I", 0x0, "C", 0x0, "E", 0x0, "_"
	DCB	0x0, "C", 0x0, "O", 0x0, "N", 0x0, "F", 0x0, "I", 0x0, "G"
	DCB	0x0, "_", 0x0, "S", 0x0, "T", 0x0, "A", 0x0, "T", 0x0, "U"
	DCB	0x0, "S", 0x0, "_", 0x0, "S", 0x0, "E", 0x0, "T", 0x0, "U"
	DCB	0x0, "P", 0x0, "_", 0x0, "C", 0x0, "O", 0x0, "N", 0x0, "F"
	DCB	0x0, "I", 0x0, "G", 0x0, "U", 0x0, "R", 0x0, "A", 0x0, "T"
	DCB	0x0, "I", 0x0, "O", 0x0, "N", 0x0, "_", 0x0, "D", 0x0, "E"
	DCB	0x0, "S", 0x0, "C", 0x0, "R", 0x0, "I", 0x0, "P", 0x0, "T"
	DCB	0x0, "O", 0x0, "R", 0x0, "_", 0x0, "A", 0x0, "R", 0x0, "R"
	DCB	0x0, "A", 0x0, "Y", 0x0, 0x0, 0x0	; `string'

  00000			 AREA	 |.rdata|, DATA, READONLY
|??_C@_1GM@BCHKIAPP@?$AAD?$AAE?$AAV?$AAI?$AAC?$AAE?$AA_?$AAC?$AAO?$AAN?$AAF?$AAI?$AAG?$AA_?$AAS?$AAT?$AAA?$AAT?$AAU?$AAS?$AA_?$AAS?$AAC?$AAH?$AAE?$AAD?$AAU?$AAL?$AAI?$AAN?$AAG?$AA_@| DCB "D"
	DCB	0x0, "E", 0x0, "V", 0x0, "I", 0x0, "C", 0x0, "E", 0x0, "_"
	DCB	0x0, "C", 0x0, "O", 0x0, "N", 0x0, "F", 0x0, "I", 0x0, "G"
	DCB	0x0, "_", 0x0, "S", 0x0, "T", 0x0, "A", 0x0, "T", 0x0, "U"
	DCB	0x0, "S", 0x0, "_", 0x0, "S", 0x0, "C", 0x0, "H", 0x0, "E"
	DCB	0x0, "D", 0x0, "U", 0x0, "L", 0x0, "I", 0x0, "N", 0x0, "G"
	DCB	0x0, "_", 0x0, "G", 0x0, "E", 0x0, "T", 0x0, "_", 0x0, "D"
	DCB	0x0, "E", 0x0, "V", 0x0, "I", 0x0, "C", 0x0, "E", 0x0, "_"
	DCB	0x0, "D", 0x0, "E", 0x0, "S", 0x0, "C", 0x0, "R", 0x0, "I"
	DCB	0x0, "P", 0x0, "T", 0x0, "O", 0x0, "R", 0x0, 0x0, 0x0 ; `string'

  00000			 AREA	 |.rdata|, DATA, READONLY
|??_C@_1HM@FNPCBDHK@?$AAD?$AAE?$AAV?$AAI?$AAC?$AAE?$AA_?$AAC?$AAO?$AAN?$AAF?$AAI?$AAG?$AA_?$AAS?$AAT?$AAA?$AAT?$AAU?$AAS?$AA_?$AAS?$AAC?$AAH?$AAE?$AAD?$AAU?$AAL?$AAI?$AAN?$AAG?$AA_@| DCB "D"
	DCB	0x0, "E", 0x0, "V", 0x0, "I", 0x0, "C", 0x0, "E", 0x0, "_"
	DCB	0x0, "C", 0x0, "O", 0x0, "N", 0x0, "F", 0x0, "I", 0x0, "G"
	DCB	0x0, "_", 0x0, "S", 0x0, "T", 0x0, "A", 0x0, "T", 0x0, "U"
	DCB	0x0, "S", 0x0, "_", 0x0, "S", 0x0, "C", 0x0, "H", 0x0, "E"
	DCB	0x0, "D", 0x0, "U", 0x0, "L", 0x0, "I", 0x0, "N", 0x0, "G"
	DCB	0x0, "_", 0x0, "G", 0x0, "E", 0x0, "T", 0x0, "_", 0x0, "I"
	DCB	0x0, "N", 0x0, "I", 0x0, "T", 0x0, "I", 0x0, "A", 0x0, "L"
	DCB	0x0, "_", 0x0, "D", 0x0, "E", 0x0, "V", 0x0, "I", 0x0, "C"
	DCB	0x0, "E", 0x0, "_", 0x0, "D", 0x0, "E", 0x0, "S", 0x0, "C"
	DCB	0x0, "R", 0x0, "I", 0x0, "P", 0x0, "T", 0x0, "O", 0x0, "R"
	DCB	0x0, 0x0, 0x0				; `string'

  00000			 AREA	 |.rdata|, DATA, READONLY
|??_C@_1EI@BBOOKHNN@?$AAD?$AAE?$AAV?$AAI?$AAC?$AAE?$AA_?$AAC?$AAO?$AAN?$AAF?$AAI?$AAG?$AA_?$AAS?$AAT?$AAA?$AAT?$AAU?$AAS?$AA_?$AAL?$AAE?$AAA?$AAV?$AAE?$AA_?$AAA?$AAD?$AAD?$AAR?$AAE@| DCB "D"
	DCB	0x0, "E", 0x0, "V", 0x0, "I", 0x0, "C", 0x0, "E", 0x0, "_"
	DCB	0x0, "C", 0x0, "O", 0x0, "N", 0x0, "F", 0x0, "I", 0x0, "G"
	DCB	0x0, "_", 0x0, "S", 0x0, "T", 0x0, "A", 0x0, "T", 0x0, "U"
	DCB	0x0, "S", 0x0, "_", 0x0, "L", 0x0, "E", 0x0, "A", 0x0, "V"
	DCB	0x0, "E", 0x0, "_", 0x0, "A", 0x0, "D", 0x0, "D", 0x0, "R"
	DCB	0x0, "E", 0x0, "S", 0x0, "S", 0x0, "0", 0x0, 0x0, 0x0 ; `string'

  00000			 AREA	 |.rdata|, DATA, READONLY
|??_C@_1FI@LGLHPFAK@?$AAD?$AAE?$AAV?$AAI?$AAC?$AAE?$AA_?$AAC?$AAO?$AAN?$AAF?$AAI?$AAG?$AA_?$AAS?$AAT?$AAA?$AAT?$AAU?$AAS?$AA_?$AAS?$AAC?$AAH?$AAE?$AAD?$AAU?$AAL?$AAI?$AAN?$AAG?$AA_@| DCB "D"
	DCB	0x0, "E", 0x0, "V", 0x0, "I", 0x0, "C", 0x0, "E", 0x0, "_"
	DCB	0x0, "C", 0x0, "O", 0x0, "N", 0x0, "F", 0x0, "I", 0x0, "G"
	DCB	0x0, "_", 0x0, "S", 0x0, "T", 0x0, "A", 0x0, "T", 0x0, "U"
	DCB	0x0, "S", 0x0, "_", 0x0, "S", 0x0, "C", 0x0, "H", 0x0, "E"
	DCB	0x0, "D", 0x0, "U", 0x0, "L", 0x0, "I", 0x0, "N", 0x0, "G"
	DCB	0x0, "_", 0x0, "S", 0x0, "E", 0x0, "T", 0x0, "_", 0x0, "A"
	DCB	0x0, "D", 0x0, "D", 0x0, "R", 0x0, "E", 0x0, "S", 0x0, "S"
	DCB	0x0, 0x0, 0x0				; `string'

  00000			 AREA	 |.rdata|, DATA, READONLY
|??_C@_1HG@BLNLBKIO@?$AAD?$AAE?$AAV?$AAI?$AAC?$AAE?$AA_?$AAC?$AAO?$AAN?$AAF?$AAI?$AAG?$AA_?$AAS?$AAT?$AAA?$AAT?$AAU?$AAS?$AA_?$AAS?$AAC?$AAH?$AAE?$AAD?$AAU?$AAL?$AAI?$AAN?$AAG?$AA_@| DCB "D"
	DCB	0x0, "E", 0x0, "V", 0x0, "I", 0x0, "C", 0x0, "E", 0x0, "_"
	DCB	0x0, "C", 0x0, "O", 0x0, "N", 0x0, "F", 0x0, "I", 0x0, "G"
	DCB	0x0, "_", 0x0, "S", 0x0, "T", 0x0, "A", 0x0, "T", 0x0, "U"
	DCB	0x0, "S", 0x0, "_", 0x0, "S", 0x0, "C", 0x0, "H", 0x0, "E"
	DCB	0x0, "D", 0x0, "U", 0x0, "L", 0x0, "I", 0x0, "N", 0x0, "G"
	DCB	0x0, "_", 0x0, "G", 0x0, "E", 0x0, "T", 0x0, "_", 0x0, "D"
	DCB	0x0, "E", 0x0, "V", 0x0, "I", 0x0, "C", 0x0, "E", 0x0, "_"
	DCB	0x0, "D", 0x0, "E", 0x0, "S", 0x0, "C", 0x0, "R", 0x0, "I"
	DCB	0x0, "P", 0x0, "T", 0x0, "O", 0x0, "R", 0x0, "_", 0x0, "T"
	DCB	0x0, "E", 0x0, "S", 0x0, "T", 0x0, 0x0, 0x0 ; `string'

  00000			 AREA	 |.rdata|, DATA, READONLY
|??_C@_1FG@NMCKCJLL@?$AAD?$AAE?$AAV?$AAI?$AAC?$AAE?$AA_?$AAC?$AAO?$AAN?$AAF?$AAI?$AAG?$AA_?$AAS?$AAT?$AAA?$AAT?$AAU?$AAS?$AA_?$AAR?$AAE?$AAS?$AAE?$AAT?$AA_?$AAA?$AAN?$AAD?$AA_?$AAE@| DCB "D"
	DCB	0x0, "E", 0x0, "V", 0x0, "I", 0x0, "C", 0x0, "E", 0x0, "_"
	DCB	0x0, "C", 0x0, "O", 0x0, "N", 0x0, "F", 0x0, "I", 0x0, "G"
	DCB	0x0, "_", 0x0, "S", 0x0, "T", 0x0, "A", 0x0, "T", 0x0, "U"
	DCB	0x0, "S", 0x0, "_", 0x0, "R", 0x0, "E", 0x0, "S", 0x0, "E"
	DCB	0x0, "T", 0x0, "_", 0x0, "A", 0x0, "N", 0x0, "D", 0x0, "_"
	DCB	0x0, "E", 0x0, "N", 0x0, "A", 0x0, "B", 0x0, "L", 0x0, "E"
	DCB	0x0, "_", 0x0, "P", 0x0, "O", 0x0, "R", 0x0, "T", 0x0, 0x0
	DCB	0x0					; `string'

  00000			 AREA	 |.rdata|, DATA, READONLY
|??_C@_1EI@KNOIBOPH@?$AAD?$AAE?$AAV?$AAI?$AAC?$AAE?$AA_?$AAC?$AAO?$AAN?$AAF?$AAI?$AAG?$AA_?$AAS?$AAT?$AAA?$AAT?$AAU?$AAS?$AA_?$AAU?$AAS?$AAI?$AAN?$AAG?$AA_?$AAA?$AAD?$AAD?$AAR?$AAE@| DCB "D"
	DCB	0x0, "E", 0x0, "V", 0x0, "I", 0x0, "C", 0x0, "E", 0x0, "_"
	DCB	0x0, "C", 0x0, "O", 0x0, "N", 0x0, "F", 0x0, "I", 0x0, "G"
	DCB	0x0, "_", 0x0, "S", 0x0, "T", 0x0, "A", 0x0, "T", 0x0, "U"
	DCB	0x0, "S", 0x0, "_", 0x0, "U", 0x0, "S", 0x0, "I", 0x0, "N"
	DCB	0x0, "G", 0x0, "_", 0x0, "A", 0x0, "D", 0x0, "D", 0x0, "R"
	DCB	0x0, "E", 0x0, "S", 0x0, "S", 0x0, "0", 0x0, 0x0, 0x0 ; `string'

  00000			 AREA	 |.rdata|, DATA, READONLY
|??_C@_1FI@COMJHLEF@?$AAD?$AAE?$AAV?$AAI?$AAC?$AAE?$AA_?$AAC?$AAO?$AAN?$AAF?$AAI?$AAG?$AA_?$AAS?$AAT?$AAA?$AAT?$AAU?$AAS?$AA_?$AAO?$AAP?$AAE?$AAN?$AAI?$AAN?$AAG?$AA_?$AAE?$AAN?$AAD@| DCB "D"
	DCB	0x0, "E", 0x0, "V", 0x0, "I", 0x0, "C", 0x0, "E", 0x0, "_"
	DCB	0x0, "C", 0x0, "O", 0x0, "N", 0x0, "F", 0x0, "I", 0x0, "G"
	DCB	0x0, "_", 0x0, "S", 0x0, "T", 0x0, "A", 0x0, "T", 0x0, "U"
	DCB	0x0, "S", 0x0, "_", 0x0, "O", 0x0, "P", 0x0, "E", 0x0, "N"
	DCB	0x0, "I", 0x0, "N", 0x0, "G", 0x0, "_", 0x0, "E", 0x0, "N"
	DCB	0x0, "D", 0x0, "P", 0x0, "O", 0x0, "I", 0x0, "N", 0x0, "T"
	DCB	0x0, "0", 0x0, "_", 0x0, "P", 0x0, "I", 0x0, "P", 0x0, "E"
	DCB	0x0, 0x0, 0x0				; `string'
	EXPORT	|??_C@_1FE@OHKBPCFO@?$AAM?$AAU?$AAS?$AAB?$AAF?$AAN?$AA?3?$AAF?$AAa?$AAi?$AAl?$AAe?$AAd?$AA?5?$AAt?$AAo?$AA?5?$AAc?$AAr?$AAe?$AAa?$AAt?$AAe?$AA?5?$AAh?$AAP?$AAo?$AAw?$AAe?$AAr?$AAD?$AAo@| [ DATA ] ; `string'
	EXPORT	|??_7CHcd@@6B@| [ DATA ]		; CHcd::`vftable'
	EXPORT	|??0LockObject@@QAA@XZ|			; LockObject::LockObject
	EXPORT	|??0CHcd@@QAA@XZ|			; CHcd::CHcd
	EXPORT	|?DisableDevice@CHcd@@UAAHIH@Z|		; CHcd::DisableDevice
	EXPORT	|?SuspendResume@CHcd@@UAAHIH@Z|		; CHcd::SuspendResume
	EXPORT	|?WaitForPortStatusChange@CHcd@@UAAHPAX@Z| ; CHcd::WaitForPortStatusChange
	EXPORT	|?SuspendHC@CHcd@@UAAHXZ|		; CHcd::SuspendHC
	EXPORT	|?SignalHubStatusChange@CHcd@@UAAXXZ|	; CHcd::SignalHubStatusChange
	EXPORT	|?ResumeNotification@CHcd@@MAAHXZ|	; CHcd::ResumeNotification
	IMPORT	|CreateBusAccessHandle|
	IMPORT	|g_dwContext|
	IMPORT	|NKDbgPrintfW|
	IMPORT	|CreateEventW|
	IMPORT	|??0CDeviceGlobal@@QAA@XZ|		; CDeviceGlobal::CDeviceGlobal
	IMPORT	|_purecall|
	IMPORT	|??_ECHcd@@UAAPAXI@Z|, WEAK |??_GCHcd@@UAAPAXI@Z| ; CHcd::`vector deleting destructor', CHcd::`scalar deleting destructor'

  00000			 AREA	 |.pdata|, PDATA
|$T36172| DCD	|$LN8@CHcd|
	DCD	0x40004104
; File c:\wince600\platform\common\src\soc\common_ti_v1\omap3530\musb\musbhcd\usb2com\hcd.cpp

  00000			 AREA	 |.rdata|, DATA, READONLY
|??_C@_1FE@OHKBPCFO@?$AAM?$AAU?$AAS?$AAB?$AAF?$AAN?$AA?3?$AAF?$AAa?$AAi?$AAl?$AAe?$AAd?$AA?5?$AAt?$AAo?$AA?5?$AAc?$AAr?$AAe?$AAa?$AAt?$AAe?$AA?5?$AAh?$AAP?$AAo?$AAw?$AAe?$AAr?$AAD?$AAo@| DCB "M"
	DCB	0x0, "U", 0x0, "S", 0x0, "B", 0x0, "F", 0x0, "N", 0x0, ":"
	DCB	0x0, "F", 0x0, "a", 0x0, "i", 0x0, "l", 0x0, "e", 0x0, "d"
	DCB	0x0, " ", 0x0, "t", 0x0, "o", 0x0, " ", 0x0, "c", 0x0, "r"
	DCB	0x0, "e", 0x0, "a", 0x0, "t", 0x0, "e", 0x0, " ", 0x0, "h"
	DCB	0x0, "P", 0x0, "o", 0x0, "w", 0x0, "e", 0x0, "r", 0x0, "D"
	DCB	0x0, "o", 0x0, "w", 0x0, "n", 0x0, "E", 0x0, "v", 0x0, "e"
	DCB	0x0, "n", 0x0, "t", 0x0, 0xd, 0x0, 0xa, 0x0, 0x0, 0x0 ; `string'

  00000			 AREA	 |.rdata|, DATA, READONLY
|??_7CHcd@@6B@| DCD |_purecall|				; CHcd::`vftable'
	DCD	|_purecall|
	DCD	|??_ECHcd@@UAAPAXI@Z|
	DCD	|_purecall|
	DCD	|_purecall|
	DCD	|_purecall|
	DCD	|_purecall|
	DCD	|?DisableDevice@CHcd@@UAAHIH@Z|
	DCD	|?SuspendResume@CHcd@@UAAHIH@Z|
	DCD	|_purecall|
	DCD	|_purecall|
	DCD	|_purecall|
	DCD	|_purecall|
	DCD	|_purecall|
	DCD	|?WaitForPortStatusChange@CHcd@@UAAHPAX@Z|
	DCD	|?SuspendHC@CHcd@@UAAHXZ|
	DCD	|_purecall|
	DCD	|_purecall|
	DCD	|_purecall|
	DCD	|_purecall|
	DCD	|_purecall|
	DCD	|_purecall|
	DCD	|_purecall|
	DCD	|_purecall|
	DCD	|_purecall|
	DCD	|_purecall|
	DCD	|_purecall|
	DCD	|_purecall|
	DCD	|_purecall|
	DCD	|_purecall|
	DCD	|_purecall|
	DCD	|_purecall|
	DCD	|_purecall|
	DCD	|_purecall|
	DCD	|_purecall|
	DCD	|_purecall|
	DCD	|?SignalHubStatusChange@CHcd@@UAAXXZ|
	DCD	|?ResumeNotification@CHcd@@MAAHXZ|
; Function compile flags: /Odtp

  00000			 AREA	 |.text|, CODE, ARM

  00000		 |??0CHcd@@QAA@XZ| PROC			; CHcd::CHcd

; 38   : {

  00000		 |$LN8@CHcd|
  00000	e1a0c00d	 mov         r12, sp
  00004	e92d0001	 stmdb       sp!, {r0}
  00008	e92d5000	 stmdb       sp!, {r12, lr}
  0000c	e24dd018	 sub         sp, sp, #0x18
  00010		 |$M36169|
  00010	e59d3020	 ldr         r3, [sp, #0x20]
  00014	e2830090	 add         r0, r3, #0x90
  00018	eb000000	 bl          |??0LockObject@@QAA@XZ|
  0001c	e58d0004	 str         r0, [sp, #4]
  00020	e59d0020	 ldr         r0, [sp, #0x20]
  00024	eb000000	 bl          |??0CDeviceGlobal@@QAA@XZ|
  00028	e58d0008	 str         r0, [sp, #8]
  0002c	e59f20cc	 ldr         r2, [pc, #0xCC]
  00030	e59d3020	 ldr         r3, [sp, #0x20]
  00034	e5832000	 str         r2, [r3]

; 39   :     m_pCRootHub=NULL;

  00038	e59d3020	 ldr         r3, [sp, #0x20]
  0003c	e28320b0	 add         r2, r3, #0xB0
  00040	e3a03000	 mov         r3, #0
  00044	e5823000	 str         r3, [r2]

; 40   :     m_pOTG=NULL;

  00048	e59d3020	 ldr         r3, [sp, #0x20]
  0004c	e28320b4	 add         r2, r3, #0xB4
  00050	e3a03000	 mov         r3, #0
  00054	e5823000	 str         r3, [r2]

; 41   :     m_fHCDState = USBHCD_IDLE;

  00058	e59d3020	 ldr         r3, [sp, #0x20]
  0005c	e28320a4	 add         r2, r3, #0xA4
  00060	e3a03000	 mov         r3, #0
  00064	e5823000	 str         r3, [r2]

; 42   : 
; 43   :     m_hPowerDownEvent = CreateEvent(NULL, FALSE, FALSE, NULL);

  00068	e3a03000	 mov         r3, #0
  0006c	e3a02000	 mov         r2, #0
  00070	e3a01000	 mov         r1, #0
  00074	e3a00000	 mov         r0, #0
  00078	eb000000	 bl          CreateEventW
  0007c	e58d000c	 str         r0, [sp, #0xC]
  00080	e59d3020	 ldr         r3, [sp, #0x20]
  00084	e28320a8	 add         r2, r3, #0xA8
  00088	e59d300c	 ldr         r3, [sp, #0xC]
  0008c	e5823000	 str         r3, [r2]

; 44   : 
; 45   :     if (m_hPowerDownEvent == NULL)

  00090	e59d3020	 ldr         r3, [sp, #0x20]
  00094	e28330a8	 add         r3, r3, #0xA8
  00098	e5933000	 ldr         r3, [r3]
  0009c	e3530000	 cmp         r3, #0
  000a0	1a000006	 bne         |$LN1@CHcd|

; 46   :     {
; 47   :         DEBUGMSG(TRUE, (TEXT("MUSBFN:Failed to create hPowerDownEvent\r\n")));

  000a4	e59f0050	 ldr         r0, [pc, #0x50]
  000a8	eb000000	 bl          NKDbgPrintfW
  000ac	e3a03001	 mov         r3, #1
  000b0	e58d3010	 str         r3, [sp, #0x10]
  000b4	ea000001	 b           |$LN5@CHcd|
  000b8	e3a03000	 mov         r3, #0
  000bc	e58d3010	 str         r3, [sp, #0x10]
  000c0		 |$LN5@CHcd|
  000c0		 |$LN1@CHcd|

; 48   :     }
; 49   : 
; 50   :     m_hParentBusDriver = CreateBusAccessHandle( (LPCTSTR) g_dwContext ) ;    

  000c0	e59f3030	 ldr         r3, [pc, #0x30]
  000c4	e5930000	 ldr         r0, [r3]
  000c8	eb000000	 bl          CreateBusAccessHandle
  000cc	e58d0014	 str         r0, [sp, #0x14]
  000d0	e59d3020	 ldr         r3, [sp, #0x20]
  000d4	e28320b8	 add         r2, r3, #0xB8
  000d8	e59d3014	 ldr         r3, [sp, #0x14]
  000dc	e5823000	 str         r3, [r2]

; 51   : }

  000e0	e59d3020	 ldr         r3, [sp, #0x20]
  000e4	e58d3000	 str         r3, [sp]
  000e8	e59d0000	 ldr         r0, [sp]
  000ec	e28dd018	 add         sp, sp, #0x18
  000f0	e89d6000	 ldmia       sp, {sp, lr}
  000f4	e12fff1e	 bx          lr
  000f8		 |$LN9@CHcd|
  000f8		 |$LN10@CHcd|
  000f8	00000000	 DCD         |g_dwContext|
  000fc		 |$LN11@CHcd|
  000fc	00000000	 DCD         |??_C@_1FE@OHKBPCFO@?$AAM?$AAU?$AAS?$AAB?$AAF?$AAN?$AA?3?$AAF?$AAa?$AAi?$AAl?$AAe?$AAd?$AA?5?$AAt?$AAo?$AA?5?$AAc?$AAr?$AAe?$AAa?$AAt?$AAe?$AA?5?$AAh?$AAP?$AAo?$AAw?$AAe?$AAr?$AAD?$AAo@|
  00100		 |$LN12@CHcd|
  00100	00000000	 DCD         |??_7CHcd@@6B@|
  00104		 |$M36170|

			 ENDP  ; |??0CHcd@@QAA@XZ|, CHcd::CHcd

	IMPORT	|InitializeCriticalSection|
; File c:\wince600\platform\common\src\soc\common_ti_v1\omap3530\musb\musbhcd\usb2com\sync.hpp

  00000			 AREA	 |.pdata|, PDATA
|$T36182| DCD	|$LN5@LockObject|
	DCD	0x40000c04
; Function compile flags: /Odtp

  00000			 AREA	 |.text|, CODE, ARM

  00000		 |??0LockObject@@QAA@XZ| PROC		; LockObject::LockObject

; 71   :     LockObject() { InitializeCriticalSection(&m_CSection); };

  00000		 |$LN5@LockObject|
  00000	e1a0c00d	 mov         r12, sp
  00004	e92d0001	 stmdb       sp!, {r0}
  00008	e92d5000	 stmdb       sp!, {r12, lr}
  0000c	e24dd004	 sub         sp, sp, #4
  00010		 |$M36179|
  00010	e59d000c	 ldr         r0, [sp, #0xC]
  00014	eb000000	 bl          InitializeCriticalSection
  00018	e59d300c	 ldr         r3, [sp, #0xC]
  0001c	e58d3000	 str         r3, [sp]
  00020	e59d0000	 ldr         r0, [sp]
  00024	e28dd004	 add         sp, sp, #4
  00028	e89d6000	 ldmia       sp, {sp, lr}
  0002c	e12fff1e	 bx          lr
  00030		 |$M36180|

			 ENDP  ; |??0LockObject@@QAA@XZ|, LockObject::LockObject

; File c:\wince600\platform\common\src\soc\common_ti_v1\omap3530\musb\musbhcd\usb2com\hcd.hpp

  00000			 AREA	 |.pdata|, PDATA
|$T36190| DCD	|$LN5@WaitForPor|
	DCD	0x40000a04
; Function compile flags: /Odtp

  00000			 AREA	 |.text|, CODE, ARM

  00000		 |?WaitForPortStatusChange@CHcd@@UAAHPAX@Z| PROC ; CHcd::WaitForPortStatusChange

; 117  :     virtual BOOL WaitForPortStatusChange (HANDLE /*m_hHubChanged*/) { return FALSE; };    

  00000		 |$LN5@WaitForPor|
  00000	e1a0c00d	 mov         r12, sp
  00004	e92d0003	 stmdb       sp!, {r0, r1}
  00008	e92d5000	 stmdb       sp!, {r12, lr}
  0000c	e24dd004	 sub         sp, sp, #4
  00010		 |$M36187|
  00010	e3a03000	 mov         r3, #0
  00014	e58d3000	 str         r3, [sp]
  00018	e59d0000	 ldr         r0, [sp]
  0001c	e28dd004	 add         sp, sp, #4
  00020	e89d6000	 ldmia       sp, {sp, lr}
  00024	e12fff1e	 bx          lr
  00028		 |$M36188|

			 ENDP  ; |?WaitForPortStatusChange@CHcd@@UAAHPAX@Z|, CHcd::WaitForPortStatusChange


  00000			 AREA	 |.pdata|, PDATA
|$T36198| DCD	|$LN5@SuspendHC|
	DCD	0x40000a04
; Function compile flags: /Odtp

  00000			 AREA	 |.text|, CODE, ARM

  00000		 |?SuspendHC@CHcd@@UAAHXZ| PROC		; CHcd::SuspendHC

; 118  :     virtual BOOL    SuspendHC() { return FALSE; }; // Default does not support it function.

  00000		 |$LN5@SuspendHC|
  00000	e1a0c00d	 mov         r12, sp
  00004	e92d0001	 stmdb       sp!, {r0}
  00008	e92d5000	 stmdb       sp!, {r12, lr}
  0000c	e24dd004	 sub         sp, sp, #4
  00010		 |$M36195|
  00010	e3a03000	 mov         r3, #0
  00014	e58d3000	 str         r3, [sp]
  00018	e59d0000	 ldr         r0, [sp]
  0001c	e28dd004	 add         sp, sp, #4
  00020	e89d6000	 ldmia       sp, {sp, lr}
  00024	e12fff1e	 bx          lr
  00028		 |$M36196|

			 ENDP  ; |?SuspendHC@CHcd@@UAAHXZ|, CHcd::SuspendHC


  00000			 AREA	 |.pdata|, PDATA
|$T36205| DCD	|$LN6@SignalHubS|
	DCD	0x40001503
; Function compile flags: /Odtp

  00000			 AREA	 |.text|, CODE, ARM

  00000		 |?SignalHubStatusChange@CHcd@@UAAXXZ| PROC ; CHcd::SignalHubStatusChange

; 159  :     virtual void SignalHubStatusChange() {

  00000		 |$LN6@SignalHubS|
  00000	e1a0c00d	 mov         r12, sp
  00004	e92d0001	 stmdb       sp!, {r0}
  00008	e92d5000	 stmdb       sp!, {r12, lr}
  0000c		 |$M36202|

; 160  :         if (m_pCRootHub!=NULL)

  0000c	e59d3008	 ldr         r3, [sp, #8]
  00010	e28330b0	 add         r3, r3, #0xB0
  00014	e5933000	 ldr         r3, [r3]
  00018	e3530000	 cmp         r3, #0
  0001c	0a00000a	 beq         |$LN1@SignalHubS|

; 161  :             m_pCRootHub->SignalHubStatusChange();

  00020	e59d3008	 ldr         r3, [sp, #8]
  00024	e28330b0	 add         r3, r3, #0xB0
  00028	e5932000	 ldr         r2, [r3]
  0002c	e59d3008	 ldr         r3, [sp, #8]
  00030	e28330b0	 add         r3, r3, #0xB0
  00034	e5930000	 ldr         r0, [r3]
  00038	e5923000	 ldr         r3, [r2]
  0003c	e2833044	 add         r3, r3, #0x44
  00040	e5933000	 ldr         r3, [r3]
  00044	e1a0e00f	 mov         lr, pc
  00048	e12fff13	 bx          r3
  0004c		 |$LN1@SignalHubS|

; 162  :     }

  0004c	e89d6000	 ldmia       sp, {sp, lr}
  00050	e12fff1e	 bx          lr
  00054		 |$M36203|

			 ENDP  ; |?SignalHubStatusChange@CHcd@@UAAXXZ|, CHcd::SignalHubStatusChange

	EXPORT	|?Unlock@LockObject@@QAAXXZ|		; LockObject::Unlock
	EXPORT	|?Lock@LockObject@@QAAXXZ|		; LockObject::Lock

  00000			 AREA	 |.pdata|, PDATA
|$T36213| DCD	|$LN6@ResumeNoti|
	DCD	0x40003d04
; Function compile flags: /Odtp

  00000			 AREA	 |.text|, CODE, ARM

  00000		 |?ResumeNotification@CHcd@@MAAHXZ| PROC ; CHcd::ResumeNotification

; 167  :     virtual BOOL ResumeNotification ()  {

  00000		 |$LN6@ResumeNoti|
  00000	e1a0c00d	 mov         r12, sp
  00004	e92d0001	 stmdb       sp!, {r0}
  00008	e92d5000	 stmdb       sp!, {r12, lr}
  0000c	e24dd00c	 sub         sp, sp, #0xC
  00010		 |$M36210|

; 168  :         Lock();

  00010	e59d3014	 ldr         r3, [sp, #0x14]
  00014	e2830090	 add         r0, r3, #0x90
  00018	eb000000	 bl          |?Lock@LockObject@@QAAXXZ|

; 169  :         BOOL fReturn = FALSE;

  0001c	e3a03000	 mov         r3, #0
  00020	e58d3000	 str         r3, [sp]

; 170  :         if (m_pCRootHub) {

  00024	e59d3014	 ldr         r3, [sp, #0x14]
  00028	e28330b0	 add         r3, r3, #0xB0
  0002c	e5933000	 ldr         r3, [r3]
  00030	e3530000	 cmp         r3, #0
  00034	0a000025	 beq         |$LN1@ResumeNoti|

; 171  :             fReturn = m_pCRootHub->ResumeNotification();

  00038	e59d3014	 ldr         r3, [sp, #0x14]
  0003c	e28330b0	 add         r3, r3, #0xB0
  00040	e5932000	 ldr         r2, [r3]
  00044	e59d3014	 ldr         r3, [sp, #0x14]
  00048	e28330b0	 add         r3, r3, #0xB0
  0004c	e5930000	 ldr         r0, [r3]
  00050	e5923000	 ldr         r3, [r2]
  00054	e2833028	 add         r3, r3, #0x28
  00058	e5933000	 ldr         r3, [r3]
  0005c	e1a0e00f	 mov         lr, pc
  00060	e12fff13	 bx          r3
  00064	e58d0008	 str         r0, [sp, #8]
  00068	e59d3008	 ldr         r3, [sp, #8]
  0006c	e58d3000	 str         r3, [sp]

; 172  :             m_pCRootHub->NotifyOnSuspendedResumed(FALSE);

  00070	e3a01000	 mov         r1, #0
  00074	e59d3014	 ldr         r3, [sp, #0x14]
  00078	e28330b0	 add         r3, r3, #0xB0
  0007c	e5932000	 ldr         r2, [r3]
  00080	e59d3014	 ldr         r3, [sp, #0x14]
  00084	e28330b0	 add         r3, r3, #0xB0
  00088	e5930000	 ldr         r0, [r3]
  0008c	e5923000	 ldr         r3, [r2]
  00090	e283302c	 add         r3, r3, #0x2C
  00094	e5933000	 ldr         r3, [r3]
  00098	e1a0e00f	 mov         lr, pc
  0009c	e12fff13	 bx          r3

; 173  :             m_pCRootHub->NotifyOnSuspendedResumed(TRUE);

  000a0	e3a01001	 mov         r1, #1
  000a4	e59d3014	 ldr         r3, [sp, #0x14]
  000a8	e28330b0	 add         r3, r3, #0xB0
  000ac	e5932000	 ldr         r2, [r3]
  000b0	e59d3014	 ldr         r3, [sp, #0x14]
  000b4	e28330b0	 add         r3, r3, #0xB0
  000b8	e5930000	 ldr         r0, [r3]
  000bc	e5923000	 ldr         r3, [r2]
  000c0	e283302c	 add         r3, r3, #0x2C
  000c4	e5933000	 ldr         r3, [r3]
  000c8	e1a0e00f	 mov         lr, pc
  000cc	e12fff13	 bx          r3
  000d0		 |$LN1@ResumeNoti|

; 174  :         }
; 175  :         Unlock();

  000d0	e59d3014	 ldr         r3, [sp, #0x14]
  000d4	e2830090	 add         r0, r3, #0x90
  000d8	eb000000	 bl          |?Unlock@LockObject@@QAAXXZ|

; 176  :         return fReturn;

  000dc	e59d3000	 ldr         r3, [sp]
  000e0	e58d3004	 str         r3, [sp, #4]

; 177  :     }

  000e4	e59d0004	 ldr         r0, [sp, #4]
  000e8	e28dd00c	 add         sp, sp, #0xC
  000ec	e89d6000	 ldmia       sp, {sp, lr}
  000f0	e12fff1e	 bx          lr
  000f4		 |$M36211|

			 ENDP  ; |?ResumeNotification@CHcd@@MAAHXZ|, CHcd::ResumeNotification

	IMPORT	|EnterCriticalSection|
; File c:\wince600\platform\common\src\soc\common_ti_v1\omap3530\musb\musbhcd\usb2com\sync.hpp

  00000			 AREA	 |.pdata|, PDATA
|$T36220| DCD	|$LN5@Lock|
	DCD	0x40000703
; Function compile flags: /Odtp

  00000			 AREA	 |.text|, CODE, ARM

  00000		 |?Lock@LockObject@@QAAXXZ| PROC	; LockObject::Lock

; 73   :     void Lock(void) { EnterCriticalSection(&m_CSection); };

  00000		 |$LN5@Lock|
  00000	e1a0c00d	 mov         r12, sp
  00004	e92d0001	 stmdb       sp!, {r0}
  00008	e92d5000	 stmdb       sp!, {r12, lr}
  0000c		 |$M36217|
  0000c	e59d0008	 ldr         r0, [sp, #8]
  00010	eb000000	 bl          EnterCriticalSection
  00014	e89d6000	 ldmia       sp, {sp, lr}
  00018	e12fff1e	 bx          lr
  0001c		 |$M36218|

			 ENDP  ; |?Lock@LockObject@@QAAXXZ|, LockObject::Lock

	IMPORT	|LeaveCriticalSection|

  00000			 AREA	 |.pdata|, PDATA
|$T36227| DCD	|$LN5@Unlock|
	DCD	0x40000703
; Function compile flags: /Odtp

  00000			 AREA	 |.text|, CODE, ARM

  00000		 |?Unlock@LockObject@@QAAXXZ| PROC	; LockObject::Unlock

; 74   :     void Unlock(void) {LeaveCriticalSection( &m_CSection); };

  00000		 |$LN5@Unlock|
  00000	e1a0c00d	 mov         r12, sp
  00004	e92d0001	 stmdb       sp!, {r0}
  00008	e92d5000	 stmdb       sp!, {r12, lr}
  0000c		 |$M36224|
  0000c	e59d0008	 ldr         r0, [sp, #8]
  00010	eb000000	 bl          LeaveCriticalSection
  00014	e89d6000	 ldmia       sp, {sp, lr}
  00018	e12fff1e	 bx          lr
  0001c		 |$M36225|

			 ENDP  ; |?Unlock@LockObject@@QAAXXZ|, LockObject::Unlock

	EXPORT	|??1CHcd@@UAA@XZ|			; CHcd::~CHcd
	IMPORT	|??3@YAXPAX@Z|				; operator delete

  00000			 AREA	 |.pdata|, PDATA
|$T36235| DCD	|$LN6@scalar|
	DCD	0x40001104
; Function compile flags: /Odtp

  00000			 AREA	 |.text|, CODE, ARM

  00000		 |??_GCHcd@@UAAPAXI@Z| PROC		; CHcd::`scalar deleting destructor'
  00000		 |$LN6@scalar|
  00000	e1a0c00d	 mov         r12, sp
  00004	e92d0003	 stmdb       sp!, {r0, r1}
  00008	e92d5000	 stmdb       sp!, {r12, lr}
  0000c	e24dd004	 sub         sp, sp, #4
  00010		 |$M36232|
  00010	e59d000c	 ldr         r0, [sp, #0xC]
  00014	eb000000	 bl          |??1CHcd@@UAA@XZ|
  00018	e59d3010	 ldr         r3, [sp, #0x10]
  0001c	e3130001	 tst         r3, #1
  00020	0a000001	 beq         |$LN1@scalar|
  00024	e59d000c	 ldr         r0, [sp, #0xC]
  00028	eb000000	 bl          |??3@YAXPAX@Z|
  0002c		 |$LN1@scalar|
  0002c	e59d300c	 ldr         r3, [sp, #0xC]
  00030	e58d3000	 str         r3, [sp]
  00034	e59d0000	 ldr         r0, [sp]
  00038	e28dd004	 add         sp, sp, #4
  0003c	e89d6000	 ldmia       sp, {sp, lr}
  00040	e12fff1e	 bx          lr
  00044		 |$M36233|

			 ENDP  ; |??_GCHcd@@UAAPAXI@Z|, CHcd::`scalar deleting destructor'

	EXPORT	|??1LockObject@@QAA@XZ|			; LockObject::~LockObject
	IMPORT	|??1CDeviceGlobal@@QAA@XZ|		; CDeviceGlobal::~CDeviceGlobal

  00008			 AREA	 |.pdata|, PDATA
|$T36248| DCD	|$LN10@CHcd@2|
	DCD	0x40004404
; Function compile flags: /Odtp
; File c:\wince600\platform\common\src\soc\common_ti_v1\omap3530\musb\musbhcd\usb2com\hcd.cpp

  00104			 AREA	 |.text|, CODE, ARM

  00104		 |??1CHcd@@UAA@XZ| PROC			; CHcd::~CHcd

; 53   : {

  00104		 |$LN10@CHcd@2|
  00104	e1a0c00d	 mov         r12, sp
  00108	e92d0001	 stmdb       sp!, {r0}
  0010c	e92d5000	 stmdb       sp!, {r12, lr}
  00110	e24dd018	 sub         sp, sp, #0x18
  00114		 |$M36245|
  00114	e59f20f4	 ldr         r2, [pc, #0xF4]
  00118	e59d3020	 ldr         r3, [sp, #0x20]
  0011c	e5832000	 str         r2, [r3]

; 54   :     Lock();

  00120	e59d3020	 ldr         r3, [sp, #0x20]
  00124	e2830090	 add         r0, r3, #0x90
  00128	eb000000	 bl          |?Lock@LockObject@@QAAXXZ|

; 55   :     CRootHub *pRoot = m_pCRootHub;

  0012c	e59d3020	 ldr         r3, [sp, #0x20]
  00130	e28330b0	 add         r3, r3, #0xB0
  00134	e5933000	 ldr         r3, [r3]
  00138	e58d3000	 str         r3, [sp]

; 56   :     m_pCRootHub = NULL;

  0013c	e59d3020	 ldr         r3, [sp, #0x20]
  00140	e28320b0	 add         r2, r3, #0xB0
  00144	e3a03000	 mov         r3, #0
  00148	e5823000	 str         r3, [r2]

; 57   :     Unlock();

  0014c	e59d3020	 ldr         r3, [sp, #0x20]
  00150	e2830090	 add         r0, r3, #0x90
  00154	eb000000	 bl          |?Unlock@LockObject@@QAAXXZ|

; 58   :      // signal root hub to close
; 59   :     if ( pRoot ) {

  00158	e59d3000	 ldr         r3, [sp]
  0015c	e3530000	 cmp         r3, #0
  00160	0a00001a	 beq         |$LN1@CHcd@2|

; 60   :         pRoot->HandleDetach();

  00164	e59d3000	 ldr         r3, [sp]
  00168	e5933000	 ldr         r3, [r3]
  0016c	e2833030	 add         r3, r3, #0x30
  00170	e59d0000	 ldr         r0, [sp]
  00174	e5933000	 ldr         r3, [r3]
  00178	e1a0e00f	 mov         lr, pc
  0017c	e12fff13	 bx          r3

; 61   :         delete pRoot;

  00180	e59d3000	 ldr         r3, [sp]
  00184	e58d3008	 str         r3, [sp, #8]
  00188	e59d3008	 ldr         r3, [sp, #8]
  0018c	e58d3004	 str         r3, [sp, #4]
  00190	e59d3004	 ldr         r3, [sp, #4]
  00194	e3530000	 cmp         r3, #0
  00198	0a00000a	 beq         |$LN6@CHcd@2|
  0019c	e3a01001	 mov         r1, #1
  001a0	e59d3004	 ldr         r3, [sp, #4]
  001a4	e5933000	 ldr         r3, [r3]
  001a8	e59d0004	 ldr         r0, [sp, #4]
  001ac	e5933000	 ldr         r3, [r3]
  001b0	e1a0e00f	 mov         lr, pc
  001b4	e12fff13	 bx          r3
  001b8	e58d000c	 str         r0, [sp, #0xC]
  001bc	e59d300c	 ldr         r3, [sp, #0xC]
  001c0	e58d3010	 str         r3, [sp, #0x10]
  001c4	ea000001	 b           |$LN7@CHcd@2|
  001c8		 |$LN6@CHcd@2|
  001c8	e3a03000	 mov         r3, #0
  001cc	e58d3010	 str         r3, [sp, #0x10]
  001d0		 |$LN7@CHcd@2|
  001d0		 |$LN1@CHcd@2|

; 62   :     }
; 63   :    
; 64   : }

  001d0	e59d0020	 ldr         r0, [sp, #0x20]
  001d4	eb000000	 bl          |??1CDeviceGlobal@@QAA@XZ|
  001d8	e59d3020	 ldr         r3, [sp, #0x20]
  001dc	e3530000	 cmp         r3, #0
  001e0	0a000003	 beq         |$LN4@CHcd@2|
  001e4	e59d3020	 ldr         r3, [sp, #0x20]
  001e8	e2833090	 add         r3, r3, #0x90
  001ec	e58d3014	 str         r3, [sp, #0x14]
  001f0	ea000001	 b           |$LN5@CHcd@2|
  001f4		 |$LN4@CHcd@2|
  001f4	e3a03000	 mov         r3, #0
  001f8	e58d3014	 str         r3, [sp, #0x14]
  001fc		 |$LN5@CHcd@2|
  001fc	e59d0014	 ldr         r0, [sp, #0x14]
  00200	eb000000	 bl          |??1LockObject@@QAA@XZ|
  00204	e28dd018	 add         sp, sp, #0x18
  00208	e89d6000	 ldmia       sp, {sp, lr}
  0020c	e12fff1e	 bx          lr
  00210		 |$LN11@CHcd@2|
  00210		 |$LN12@CHcd@2|
  00210	00000000	 DCD         |??_7CHcd@@6B@|
  00214		 |$M36246|

			 ENDP  ; |??1CHcd@@UAA@XZ|, CHcd::~CHcd

	IMPORT	|DeleteCriticalSection|
; File c:\wince600\platform\common\src\soc\common_ti_v1\omap3530\musb\musbhcd\usb2com\sync.hpp

  00000			 AREA	 |.pdata|, PDATA
|$T36255| DCD	|$LN5@LockObject@2|
	DCD	0x40000703
; Function compile flags: /Odtp

  00000			 AREA	 |.text|, CODE, ARM

  00000		 |??1LockObject@@QAA@XZ| PROC		; LockObject::~LockObject

; 72   :     ~LockObject() { DeleteCriticalSection( &m_CSection); };

  00000		 |$LN5@LockObject@2|
  00000	e1a0c00d	 mov         r12, sp
  00004	e92d0001	 stmdb       sp!, {r0}
  00008	e92d5000	 stmdb       sp!, {r12, lr}
  0000c		 |$M36252|
  0000c	e59d0008	 ldr         r0, [sp, #8]
  00010	eb000000	 bl          DeleteCriticalSection
  00014	e89d6000	 ldmia       sp, {sp, lr}
  00018	e12fff1e	 bx          lr
  0001c		 |$M36253|

			 ENDP  ; |??1LockObject@@QAA@XZ|, LockObject::~LockObject

	EXPORT	|?SetRootHub@CHcd@@QAAPAVCRootHub@@PAV2@@Z| ; CHcd::SetRootHub

  00010			 AREA	 |.pdata|, PDATA
|$T36263| DCD	|$LN5@SetRootHub|
	DCD	0x40001804
; Function compile flags: /Odtp
; File c:\wince600\platform\common\src\soc\common_ti_v1\omap3530\musb\musbhcd\usb2com\hcd.cpp

  00214			 AREA	 |.text|, CODE, ARM

  00214		 |?SetRootHub@CHcd@@QAAPAVCRootHub@@PAV2@@Z| PROC ; CHcd::SetRootHub

; 66   : {

  00214		 |$LN5@SetRootHub|
  00214	e1a0c00d	 mov         r12, sp
  00218	e92d0003	 stmdb       sp!, {r0, r1}
  0021c	e92d5000	 stmdb       sp!, {r12, lr}
  00220	e24dd008	 sub         sp, sp, #8
  00224		 |$M36260|

; 67   :     Lock();

  00224	e59d3010	 ldr         r3, [sp, #0x10]
  00228	e2830090	 add         r0, r3, #0x90
  0022c	eb000000	 bl          |?Lock@LockObject@@QAAXXZ|

; 68   :     CRootHub* pReturn=m_pCRootHub;

  00230	e59d3010	 ldr         r3, [sp, #0x10]
  00234	e28330b0	 add         r3, r3, #0xB0
  00238	e5933000	 ldr         r3, [r3]
  0023c	e58d3000	 str         r3, [sp]

; 69   :     m_pCRootHub=pRootHub;

  00240	e59d3010	 ldr         r3, [sp, #0x10]
  00244	e28320b0	 add         r2, r3, #0xB0
  00248	e59d3014	 ldr         r3, [sp, #0x14]
  0024c	e5823000	 str         r3, [r2]

; 70   :     Unlock();

  00250	e59d3010	 ldr         r3, [sp, #0x10]
  00254	e2830090	 add         r0, r3, #0x90
  00258	eb000000	 bl          |?Unlock@LockObject@@QAAXXZ|

; 71   :     return pReturn;

  0025c	e59d3000	 ldr         r3, [sp]
  00260	e58d3004	 str         r3, [sp, #4]

; 72   : }

  00264	e59d0004	 ldr         r0, [sp, #4]
  00268	e28dd008	 add         sp, sp, #8
  0026c	e89d6000	 ldmia       sp, {sp, lr}
  00270	e12fff1e	 bx          lr
  00274		 |$M36261|

			 ENDP  ; |?SetRootHub@CHcd@@QAAPAVCRootHub@@PAV2@@Z|, CHcd::SetRootHub

	EXPORT	|??_C@_1GO@MHLMMCPD@?$AA?$CF?$AAs?$AA?3?$AA?5?$AA?9?$AAC?$AAH?$AAc?$AAd?$AA?3?$AA?3?$AAO?$AAp?$AAe?$AAn?$AAP?$AAi?$AAp?$AAe?$AA?5?$AAf?$AAo?$AAr?$AA?5?$AAa?$AAd?$AAd?$AAr?$AAe?$AAs?$AAs?$AA?5@| [ DATA ] ; `string'
	EXPORT	|??_C@_1FG@LOPINNED@?$AA?$CF?$AAs?$AA?3?$AA?5?$AA?$CL?$AAC?$AAH?$AAc?$AAd?$AA?3?$AA?3?$AAO?$AAp?$AAe?$AAn?$AAP?$AAi?$AAp?$AAe?$AA?5?$AAf?$AAo?$AAr?$AA?5?$AAd?$AAe?$AAv?$AAi?$AAc?$AAe?$AA?5?$AAo@| [ DATA ] ; `string'
	EXPORT	|?GetControllerName@CDeviceGlobal@@QBAPBGXZ| ; CDeviceGlobal::GetControllerName
	EXPORT	|?OpenPipe@CHcd@@QAAHIPBU_USB_ENDPOINT_DESCRIPTOR@@PAI@Z| ; CHcd::OpenPipe
	IMPORT	|dpCurSettings|

  00018			 AREA	 |.pdata|, PDATA
|$T36275| DCD	|$LN12@OpenPipe|
	DCD	0x40006104

  00000			 AREA	 |.rdata|, DATA, READONLY
|??_C@_1GO@MHLMMCPD@?$AA?$CF?$AAs?$AA?3?$AA?5?$AA?9?$AAC?$AAH?$AAc?$AAd?$AA?3?$AA?3?$AAO?$AAp?$AAe?$AAn?$AAP?$AAi?$AAp?$AAe?$AA?5?$AAf?$AAo?$AAr?$AA?5?$AAa?$AAd?$AAd?$AAr?$AAe?$AAs?$AAs?$AA?5@| DCB "%"
	DCB	0x0, "s", 0x0, ":", 0x0, " ", 0x0, "-", 0x0, "C", 0x0, "H"
	DCB	0x0, "c", 0x0, "d", 0x0, ":", 0x0, ":", 0x0, "O", 0x0, "p"
	DCB	0x0, "e", 0x0, "n", 0x0, "P", 0x0, "i", 0x0, "p", 0x0, "e"
	DCB	0x0, " ", 0x0, "f", 0x0, "o", 0x0, "r", 0x0, " ", 0x0, "a"
	DCB	0x0, "d", 0x0, "d", 0x0, "r", 0x0, "e", 0x0, "s", 0x0, "s"
	DCB	0x0, " ", 0x0, "%", 0x0, "d", 0x0, ",", 0x0, " ", 0x0, "r"
	DCB	0x0, "e", 0x0, "t", 0x0, "u", 0x0, "r", 0x0, "n", 0x0, "i"
	DCB	0x0, "n", 0x0, "g", 0x0, " ", 0x0, "B", 0x0, "O", 0x0, "O"
	DCB	0x0, "L", 0x0, " ", 0x0, "%", 0x0, "d", 0x0, 0xa, 0x0, 0x0
	DCB	0x0					; `string'

  00000			 AREA	 |.rdata|, DATA, READONLY
|??_C@_1FG@LOPINNED@?$AA?$CF?$AAs?$AA?3?$AA?5?$AA?$CL?$AAC?$AAH?$AAc?$AAd?$AA?3?$AA?3?$AAO?$AAp?$AAe?$AAn?$AAP?$AAi?$AAp?$AAe?$AA?5?$AAf?$AAo?$AAr?$AA?5?$AAd?$AAe?$AAv?$AAi?$AAc?$AAe?$AA?5?$AAo@| DCB "%"
	DCB	0x0, "s", 0x0, ":", 0x0, " ", 0x0, "+", 0x0, "C", 0x0, "H"
	DCB	0x0, "c", 0x0, "d", 0x0, ":", 0x0, ":", 0x0, "O", 0x0, "p"
	DCB	0x0, "e", 0x0, "n", 0x0, "P", 0x0, "i", 0x0, "p", 0x0, "e"
	DCB	0x0, " ", 0x0, "f", 0x0, "o", 0x0, "r", 0x0, " ", 0x0, "d"
	DCB	0x0, "e", 0x0, "v", 0x0, "i", 0x0, "c", 0x0, "e", 0x0, " "
	DCB	0x0, "o", 0x0, "n", 0x0, " ", 0x0, "a", 0x0, "d", 0x0, "d"
	DCB	0x0, "r", 0x0, " ", 0x0, "%", 0x0, "d", 0x0, 0xa, 0x0, 0x0
	DCB	0x0					; `string'
; Function compile flags: /Odtp

  00274			 AREA	 |.text|, CODE, ARM

  00274		 |?OpenPipe@CHcd@@QAAHIPBU_USB_ENDPOINT_DESCRIPTOR@@PAI@Z| PROC ; CHcd::OpenPipe

; 92   : {

  00274		 |$LN12@OpenPipe|
  00274	e1a0c00d	 mov         r12, sp
  00278	e92d000f	 stmdb       sp!, {r0 - r3}
  0027c	e92d5010	 stmdb       sp!, {r4, r12, lr}
  00280	e24dd024	 sub         sp, sp, #0x24
  00284		 |$M36272|

; 93   :     DEBUGMSG(ZONE_UHCD, (TEXT("%s: +CHcd::OpenPipe for device on addr %d\n"),GetControllerName(), address));

  00284	e59f3164	 ldr         r3, [pc, #0x164]
  00288	e5933440	 ldr         r3, [r3, #0x440]
  0028c	e3130001	 tst         r3, #1
  00290	0a000009	 beq         |$LN4@OpenPipe|
  00294	e59d0030	 ldr         r0, [sp, #0x30]
  00298	eb000000	 bl          |?GetControllerName@CDeviceGlobal@@QBAPBGXZ|
  0029c	e58d000c	 str         r0, [sp, #0xC]
  002a0	e59d2034	 ldr         r2, [sp, #0x34]
  002a4	e59d100c	 ldr         r1, [sp, #0xC]
  002a8	e59f0144	 ldr         r0, [pc, #0x144]
  002ac	eb000000	 bl          NKDbgPrintfW
  002b0	e3a03001	 mov         r3, #1
  002b4	e58d3010	 str         r3, [sp, #0x10]
  002b8	ea000001	 b           |$LN5@OpenPipe|
  002bc		 |$LN4@OpenPipe|
  002bc	e3a03000	 mov         r3, #0
  002c0	e58d3010	 str         r3, [sp, #0x10]
  002c4		 |$LN5@OpenPipe|

; 94   :     BOOL fSuccess = FALSE;

  002c4	e3a03000	 mov         r3, #0
  002c8	e58d3000	 str         r3, [sp]

; 95   : 
; 96   :     Lock();

  002cc	e59d3030	 ldr         r3, [sp, #0x30]
  002d0	e2830090	 add         r0, r3, #0x90
  002d4	eb000000	 bl          |?Lock@LockObject@@QAAXXZ|

; 97   :     CRootHub *pRoot = m_pCRootHub;

  002d8	e59d3030	 ldr         r3, [sp, #0x30]
  002dc	e28330b0	 add         r3, r3, #0xB0
  002e0	e5933000	 ldr         r3, [r3]
  002e4	e58d3004	 str         r3, [sp, #4]

; 98   : 
; 99   :     if ( pRoot != NULL &&
; 100  :          lpEndpointDescriptor != NULL &&
; 101  :          lpEndpointDescriptor->bDescriptorType == USB_ENDPOINT_DESCRIPTOR_TYPE &&
; 102  :          lpEndpointDescriptor->bLength >= sizeof( USB_ENDPOINT_DESCRIPTOR ) &&
; 103  :          lpPipeIndex != NULL ) {

  002e8	e59d3004	 ldr         r3, [sp, #4]
  002ec	e3530000	 cmp         r3, #0
  002f0	0a000023	 beq         |$LN1@OpenPipe|
  002f4	e59d3038	 ldr         r3, [sp, #0x38]
  002f8	e3530000	 cmp         r3, #0
  002fc	0a000020	 beq         |$LN1@OpenPipe|
  00300	e59d3038	 ldr         r3, [sp, #0x38]
  00304	e2833001	 add         r3, r3, #1
  00308	e5d33000	 ldrb        r3, [r3]
  0030c	e3530005	 cmp         r3, #5
  00310	1a00001b	 bne         |$LN1@OpenPipe|
  00314	e59d3038	 ldr         r3, [sp, #0x38]
  00318	e5d33000	 ldrb        r3, [r3]
  0031c	e3530007	 cmp         r3, #7
  00320	3a000017	 bcc         |$LN1@OpenPipe|
  00324	e59d303c	 ldr         r3, [sp, #0x3C]
  00328	e3530000	 cmp         r3, #0
  0032c	0a000014	 beq         |$LN1@OpenPipe|

; 104  : 
; 105  :         // root hub will send the request to the appropriate device
; 106  :         fSuccess = ( requestOK == pRoot->OpenPipe( address,
; 107  :                                                    lpEndpointDescriptor,
; 108  :                                                    lpPipeIndex ) );

  00330	e59d303c	 ldr         r3, [sp, #0x3C]
  00334	e59d2038	 ldr         r2, [sp, #0x38]
  00338	e59d1034	 ldr         r1, [sp, #0x34]
  0033c	e59d0004	 ldr         r0, [sp, #4]
  00340	e5900000	 ldr         r0, [r0]
  00344	e280e008	 add         lr, r0, #8
  00348	e59d0004	 ldr         r0, [sp, #4]
  0034c	e59e4000	 ldr         r4, [lr]
  00350	e1a0e00f	 mov         lr, pc
  00354	e12fff14	 bx          r4
  00358	e58d0014	 str         r0, [sp, #0x14]
  0035c	e59d3014	 ldr         r3, [sp, #0x14]
  00360	e3530001	 cmp         r3, #1
  00364	1a000002	 bne         |$LN6@OpenPipe|
  00368	e3a03001	 mov         r3, #1
  0036c	e58d3018	 str         r3, [sp, #0x18]
  00370	ea000001	 b           |$LN7@OpenPipe|
  00374		 |$LN6@OpenPipe|
  00374	e3a03000	 mov         r3, #0
  00378	e58d3018	 str         r3, [sp, #0x18]
  0037c		 |$LN7@OpenPipe|
  0037c	e59d3018	 ldr         r3, [sp, #0x18]
  00380	e58d3000	 str         r3, [sp]
  00384		 |$LN1@OpenPipe|

; 109  :     }
; 110  :     Unlock();

  00384	e59d3030	 ldr         r3, [sp, #0x30]
  00388	e2830090	 add         r0, r3, #0x90
  0038c	eb000000	 bl          |?Unlock@LockObject@@QAAXXZ|

; 111  :     DEBUGMSG(ZONE_UHCD, (TEXT("%s: -CHcd::OpenPipe for address %d, returning BOOL %d\n"),GetControllerName(), address, fSuccess ));

  00390	e59f3058	 ldr         r3, [pc, #0x58]
  00394	e5933440	 ldr         r3, [r3, #0x440]
  00398	e3130001	 tst         r3, #1
  0039c	0a00000a	 beq         |$LN8@OpenPipe|
  003a0	e59d0030	 ldr         r0, [sp, #0x30]
  003a4	eb000000	 bl          |?GetControllerName@CDeviceGlobal@@QBAPBGXZ|
  003a8	e58d001c	 str         r0, [sp, #0x1C]
  003ac	e59d3000	 ldr         r3, [sp]
  003b0	e59d2034	 ldr         r2, [sp, #0x34]
  003b4	e59d101c	 ldr         r1, [sp, #0x1C]
  003b8	e59f002c	 ldr         r0, [pc, #0x2C]
  003bc	eb000000	 bl          NKDbgPrintfW
  003c0	e3a03001	 mov         r3, #1
  003c4	e58d3020	 str         r3, [sp, #0x20]
  003c8	ea000001	 b           |$LN9@OpenPipe|
  003cc		 |$LN8@OpenPipe|
  003cc	e3a03000	 mov         r3, #0
  003d0	e58d3020	 str         r3, [sp, #0x20]
  003d4		 |$LN9@OpenPipe|

; 112  :     return fSuccess;

  003d4	e59d3000	 ldr         r3, [sp]
  003d8	e58d3008	 str         r3, [sp, #8]

; 113  : }

  003dc	e59d0008	 ldr         r0, [sp, #8]
  003e0	e28dd024	 add         sp, sp, #0x24
  003e4	e89d6010	 ldmia       sp, {r4, sp, lr}
  003e8	e12fff1e	 bx          lr
  003ec		 |$LN13@OpenPipe|
  003ec		 |$LN14@OpenPipe|
  003ec	00000000	 DCD         |??_C@_1GO@MHLMMCPD@?$AA?$CF?$AAs?$AA?3?$AA?5?$AA?9?$AAC?$AAH?$AAc?$AAd?$AA?3?$AA?3?$AAO?$AAp?$AAe?$AAn?$AAP?$AAi?$AAp?$AAe?$AA?5?$AAf?$AAo?$AAr?$AA?5?$AAa?$AAd?$AAd?$AAr?$AAe?$AAs?$AAs?$AA?5@|
  003f0		 |$LN15@OpenPipe|
  003f0	00000000	 DCD         |dpCurSettings|
  003f4		 |$LN16@OpenPipe|
  003f4	00000000	 DCD         |??_C@_1FG@LOPINNED@?$AA?$CF?$AAs?$AA?3?$AA?5?$AA?$CL?$AAC?$AAH?$AAc?$AAd?$AA?3?$AA?3?$AAO?$AAp?$AAe?$AAn?$AAP?$AAi?$AAp?$AAe?$AA?5?$AAf?$AAo?$AAr?$AA?5?$AAd?$AAe?$AAv?$AAi?$AAc?$AAe?$AA?5?$AAo@|
  003f8		 |$M36273|

			 ENDP  ; |?OpenPipe@CHcd@@QAAHIPBU_USB_ENDPOINT_DESCRIPTOR@@PAI@Z|, CHcd::OpenPipe

	EXPORT	|?cszDeviceType@?1??GetControllerName@CDeviceGlobal@@QBAPBGXZ@4PBGB| [ DATA ] ; `CDeviceGlobal::GetControllerName'::`2'::cszDeviceType
	EXPORT	|??_C@_19NBPAAMNE@?$AAM?$AAU?$AAS?$AAB?$AA?$AA@| [ DATA ] ; `string'
; File c:\wince600\platform\common\src\soc\common_ti_v1\omap3530\musb\musbhcd\usb2com\cdevice.hpp

  00000			 AREA	 |.pdata|, PDATA
|$T36285| DCD	|$LN5@GetControl|
	DCD	0x40000c04

  00000			 AREA	 |.rdata|, DATA, READONLY
|??_C@_19NBPAAMNE@?$AAM?$AAU?$AAS?$AAB?$AA?$AA@| DCB "M", 0x0, "U", 0x0, "S"
	DCB	0x0, "B", 0x0, 0x0, 0x0			; `string'

  00000			 AREA	 |.data|, DATA
|?cszDeviceType@?1??GetControllerName@CDeviceGlobal@@QBAPBGXZ@4PBGB| DCD |??_C@_19NBPAAMNE@?$AAM?$AAU?$AAS?$AAB?$AA?$AA@| ; `CDeviceGlobal::GetControllerName'::`2'::cszDeviceType
; Function compile flags: /Odtp

  00000			 AREA	 |.text|, CODE, ARM

  00000		 |?GetControllerName@CDeviceGlobal@@QBAPBGXZ| PROC ; CDeviceGlobal::GetControllerName

; 76   :     {

  00000		 |$LN5@GetControl|
  00000	e1a0c00d	 mov         r12, sp
  00004	e92d0001	 stmdb       sp!, {r0}
  00008	e92d5000	 stmdb       sp!, {r12, lr}
  0000c	e24dd004	 sub         sp, sp, #4
  00010		 |$M36282|

; 77   :         static const TCHAR* cszDeviceType = TEXT("MUSB");
; 78   :         return cszDeviceType; 

  00010	e59f3014	 ldr         r3, [pc, #0x14]
  00014	e5933000	 ldr         r3, [r3]
  00018	e58d3000	 str         r3, [sp]

; 79   :     }

  0001c	e59d0000	 ldr         r0, [sp]
  00020	e28dd004	 add         sp, sp, #4
  00024	e89d6000	 ldmia       sp, {sp, lr}
  00028	e12fff1e	 bx          lr
  0002c		 |$LN6@GetControl|
  0002c		 |$LN7@GetControl|
  0002c	00000000	 DCD         |?cszDeviceType@?1??GetControllerName@CDeviceGlobal@@QBAPBGXZ@4PBGB|
  00030		 |$M36283|

			 ENDP  ; |?GetControllerName@CDeviceGlobal@@QBAPBGXZ|, CDeviceGlobal::GetControllerName

	EXPORT	|??_C@_1JA@DPPBKAAC@?$AA?$CF?$AAs?$AA?3?$AA?5?$AA?9?$AAC?$AAH?$AAc?$AAd?$AA?3?$AA?3?$AAC?$AAl?$AAo?$AAs?$AAe?$AAP?$AAi?$AAp?$AAe?$AA?5?$AA?9?$AA?5?$AAa?$AAd?$AAd?$AAr?$AAe?$AAs?$AAs?$AA?5?$AA?$DN@| [ DATA ] ; `string'
	EXPORT	|??_C@_1GK@OKAIKKPG@?$AA?$CF?$AAs?$AA?3?$AA?5?$AA?$CL?$AAC?$AAH?$AAc?$AAd?$AA?3?$AA?3?$AAC?$AAl?$AAo?$AAs?$AAe?$AAP?$AAi?$AAp?$AAe?$AA?5?$AA?9?$AA?5?$AAa?$AAd?$AAd?$AAr?$AAe?$AAs?$AAs?$AA?5?$AA?$DN@| [ DATA ] ; `string'
	EXPORT	|?ClosePipe@CHcd@@QAAHII@Z|		; CHcd::ClosePipe

  00020			 AREA	 |.pdata|, PDATA
|$T36302| DCD	|$LN12@ClosePipe|
	DCD	0x40005404
; File c:\wince600\platform\common\src\soc\common_ti_v1\omap3530\musb\musbhcd\usb2com\hcd.cpp

  00000			 AREA	 |.rdata|, DATA, READONLY
|??_C@_1JA@DPPBKAAC@?$AA?$CF?$AAs?$AA?3?$AA?5?$AA?9?$AAC?$AAH?$AAc?$AAd?$AA?3?$AA?3?$AAC?$AAl?$AAo?$AAs?$AAe?$AAP?$AAi?$AAp?$AAe?$AA?5?$AA?9?$AA?5?$AAa?$AAd?$AAd?$AAr?$AAe?$AAs?$AAs?$AA?5?$AA?$DN@| DCB "%"
	DCB	0x0, "s", 0x0, ":", 0x0, " ", 0x0, "-", 0x0, "C", 0x0, "H"
	DCB	0x0, "c", 0x0, "d", 0x0, ":", 0x0, ":", 0x0, "C", 0x0, "l"
	DCB	0x0, "o", 0x0, "s", 0x0, "e", 0x0, "P", 0x0, "i", 0x0, "p"
	DCB	0x0, "e", 0x0, " ", 0x0, "-", 0x0, " ", 0x0, "a", 0x0, "d"
	DCB	0x0, "d", 0x0, "r", 0x0, "e", 0x0, "s", 0x0, "s", 0x0, " "
	DCB	0x0, "=", 0x0, " ", 0x0, "%", 0x0, "d", 0x0, ",", 0x0, " "
	DCB	0x0, "p", 0x0, "i", 0x0, "p", 0x0, "e", 0x0, "I", 0x0, "n"
	DCB	0x0, "d", 0x0, "e", 0x0, "x", 0x0, " ", 0x0, "=", 0x0, " "
	DCB	0x0, "%", 0x0, "d", 0x0, ",", 0x0, " ", 0x0, "r", 0x0, "e"
	DCB	0x0, "t", 0x0, "u", 0x0, "r", 0x0, "n", 0x0, "i", 0x0, "n"
	DCB	0x0, "g", 0x0, " ", 0x0, "B", 0x0, "O", 0x0, "O", 0x0, "L"
	DCB	0x0, " ", 0x0, "%", 0x0, "d", 0x0, 0xa, 0x0, 0x0, 0x0 ; `string'

  00000			 AREA	 |.rdata|, DATA, READONLY
|??_C@_1GK@OKAIKKPG@?$AA?$CF?$AAs?$AA?3?$AA?5?$AA?$CL?$AAC?$AAH?$AAc?$AAd?$AA?3?$AA?3?$AAC?$AAl?$AAo?$AAs?$AAe?$AAP?$AAi?$AAp?$AAe?$AA?5?$AA?9?$AA?5?$AAa?$AAd?$AAd?$AAr?$AAe?$AAs?$AAs?$AA?5?$AA?$DN@| DCB "%"
	DCB	0x0, "s", 0x0, ":", 0x0, " ", 0x0, "+", 0x0, "C", 0x0, "H"
	DCB	0x0, "c", 0x0, "d", 0x0, ":", 0x0, ":", 0x0, "C", 0x0, "l"
	DCB	0x0, "o", 0x0, "s", 0x0, "e", 0x0, "P", 0x0, "i", 0x0, "p"
	DCB	0x0, "e", 0x0, " ", 0x0, "-", 0x0, " ", 0x0, "a", 0x0, "d"
	DCB	0x0, "d", 0x0, "r", 0x0, "e", 0x0, "s", 0x0, "s", 0x0, " "
	DCB	0x0, "=", 0x0, " ", 0x0, "%", 0x0, "d", 0x0, ",", 0x0, " "
	DCB	0x0, "p", 0x0, "i", 0x0, "p", 0x0, "e", 0x0, "I", 0x0, "n"
	DCB	0x0, "d", 0x0, "e", 0x0, "x", 0x0, " ", 0x0, "=", 0x0, " "
	DCB	0x0, "%", 0x0, "d", 0x0, 0xa, 0x0, 0x0, 0x0 ; `string'
; Function compile flags: /Odtp

  003f8			 AREA	 |.text|, CODE, ARM

  003f8		 |?ClosePipe@CHcd@@QAAHII@Z| PROC	; CHcd::ClosePipe

; 129  : {

  003f8		 |$LN12@ClosePipe|
  003f8	e1a0c00d	 mov         r12, sp
  003fc	e92d0007	 stmdb       sp!, {r0 - r2}
  00400	e92d5000	 stmdb       sp!, {r12, lr}
  00404	e24dd02c	 sub         sp, sp, #0x2C
  00408		 |$M36299|

; 130  :     DEBUGMSG( ZONE_UHCD, (TEXT("%s: +CHcd::ClosePipe - address = %d, pipeIndex = %d\n"),GetControllerName(), address, pipeIndex) );

  00408	e59f3130	 ldr         r3, [pc, #0x130]
  0040c	e5933440	 ldr         r3, [r3, #0x440]
  00410	e3130001	 tst         r3, #1
  00414	0a00000a	 beq         |$LN4@ClosePipe|
  00418	e59d0034	 ldr         r0, [sp, #0x34]
  0041c	eb000000	 bl          |?GetControllerName@CDeviceGlobal@@QBAPBGXZ|
  00420	e58d0014	 str         r0, [sp, #0x14]
  00424	e59d303c	 ldr         r3, [sp, #0x3C]
  00428	e59d2038	 ldr         r2, [sp, #0x38]
  0042c	e59d1014	 ldr         r1, [sp, #0x14]
  00430	e59f010c	 ldr         r0, [pc, #0x10C]
  00434	eb000000	 bl          NKDbgPrintfW
  00438	e3a03001	 mov         r3, #1
  0043c	e58d3018	 str         r3, [sp, #0x18]
  00440	ea000001	 b           |$LN5@ClosePipe|
  00444		 |$LN4@ClosePipe|
  00444	e3a03000	 mov         r3, #0
  00448	e58d3018	 str         r3, [sp, #0x18]
  0044c		 |$LN5@ClosePipe|

; 131  :     BOOL fSuccess = FALSE;

  0044c	e3a03000	 mov         r3, #0
  00450	e58d3004	 str         r3, [sp, #4]

; 132  : 
; 133  :     Lock();

  00454	e59d3034	 ldr         r3, [sp, #0x34]
  00458	e2830090	 add         r0, r3, #0x90
  0045c	eb000000	 bl          |?Lock@LockObject@@QAAXXZ|

; 134  :     CRootHub *pRoot = m_pCRootHub;

  00460	e59d3034	 ldr         r3, [sp, #0x34]
  00464	e28330b0	 add         r3, r3, #0xB0
  00468	e5933000	 ldr         r3, [r3]
  0046c	e58d3008	 str         r3, [sp, #8]

; 135  : 
; 136  :     if (pRoot != NULL)

  00470	e59d3008	 ldr         r3, [sp, #8]
  00474	e3530000	 cmp         r3, #0
  00478	0a000013	 beq         |$LN1@ClosePipe|

; 137  :         fSuccess = (requestOK == pRoot->ClosePipe( address, pipeIndex ) );

  0047c	e59d203c	 ldr         r2, [sp, #0x3C]
  00480	e59d1038	 ldr         r1, [sp, #0x38]
  00484	e59d3008	 ldr         r3, [sp, #8]
  00488	e5933000	 ldr         r3, [r3]
  0048c	e283300c	 add         r3, r3, #0xC
  00490	e59d0008	 ldr         r0, [sp, #8]
  00494	e5933000	 ldr         r3, [r3]
  00498	e1a0e00f	 mov         lr, pc
  0049c	e12fff13	 bx          r3
  004a0	e58d001c	 str         r0, [sp, #0x1C]
  004a4	e59d301c	 ldr         r3, [sp, #0x1C]
  004a8	e3530001	 cmp         r3, #1
  004ac	1a000002	 bne         |$LN6@ClosePipe|
  004b0	e3a03001	 mov         r3, #1
  004b4	e58d3020	 str         r3, [sp, #0x20]
  004b8	ea000001	 b           |$LN7@ClosePipe|
  004bc		 |$LN6@ClosePipe|
  004bc	e3a03000	 mov         r3, #0
  004c0	e58d3020	 str         r3, [sp, #0x20]
  004c4		 |$LN7@ClosePipe|
  004c4	e59d3020	 ldr         r3, [sp, #0x20]
  004c8	e58d3004	 str         r3, [sp, #4]
  004cc		 |$LN1@ClosePipe|

; 138  : 
; 139  :     Unlock();

  004cc	e59d3034	 ldr         r3, [sp, #0x34]
  004d0	e2830090	 add         r0, r3, #0x90
  004d4	eb000000	 bl          |?Unlock@LockObject@@QAAXXZ|

; 140  :     DEBUGMSG( ZONE_UHCD, (TEXT("%s: -CHcd::ClosePipe - address = %d, pipeIndex = %d, returning BOOL %d\n"),GetControllerName(), address, pipeIndex, fSuccess) );

  004d8	e59f3060	 ldr         r3, [pc, #0x60]
  004dc	e5933440	 ldr         r3, [r3, #0x440]
  004e0	e3130001	 tst         r3, #1
  004e4	0a00000c	 beq         |$LN8@ClosePipe|
  004e8	e59d0034	 ldr         r0, [sp, #0x34]
  004ec	eb000000	 bl          |?GetControllerName@CDeviceGlobal@@QBAPBGXZ|
  004f0	e58d0024	 str         r0, [sp, #0x24]
  004f4	e59d3004	 ldr         r3, [sp, #4]
  004f8	e58d3000	 str         r3, [sp]
  004fc	e59d303c	 ldr         r3, [sp, #0x3C]
  00500	e59d2038	 ldr         r2, [sp, #0x38]
  00504	e59d1024	 ldr         r1, [sp, #0x24]
  00508	e59f002c	 ldr         r0, [pc, #0x2C]
  0050c	eb000000	 bl          NKDbgPrintfW
  00510	e3a03001	 mov         r3, #1
  00514	e58d3028	 str         r3, [sp, #0x28]
  00518	ea000001	 b           |$LN9@ClosePipe|
  0051c		 |$LN8@ClosePipe|
  0051c	e3a03000	 mov         r3, #0
  00520	e58d3028	 str         r3, [sp, #0x28]
  00524		 |$LN9@ClosePipe|

; 141  :     return fSuccess;

  00524	e59d3004	 ldr         r3, [sp, #4]
  00528	e58d3010	 str         r3, [sp, #0x10]

; 142  : }

  0052c	e59d0010	 ldr         r0, [sp, #0x10]
  00530	e28dd02c	 add         sp, sp, #0x2C
  00534	e89d6000	 ldmia       sp, {sp, lr}
  00538	e12fff1e	 bx          lr
  0053c		 |$LN13@ClosePipe|
  0053c		 |$LN14@ClosePipe|
  0053c	00000000	 DCD         |??_C@_1JA@DPPBKAAC@?$AA?$CF?$AAs?$AA?3?$AA?5?$AA?9?$AAC?$AAH?$AAc?$AAd?$AA?3?$AA?3?$AAC?$AAl?$AAo?$AAs?$AAe?$AAP?$AAi?$AAp?$AAe?$AA?5?$AA?9?$AA?5?$AAa?$AAd?$AAd?$AAr?$AAe?$AAs?$AAs?$AA?5?$AA?$DN@|
  00540		 |$LN15@ClosePipe|
  00540	00000000	 DCD         |dpCurSettings|
  00544		 |$LN16@ClosePipe|
  00544	00000000	 DCD         |??_C@_1GK@OKAIKKPG@?$AA?$CF?$AAs?$AA?3?$AA?5?$AA?$CL?$AAC?$AAH?$AAc?$AAd?$AA?3?$AA?3?$AAC?$AAl?$AAo?$AAs?$AAe?$AAP?$AAi?$AAp?$AAe?$AA?5?$AA?9?$AA?5?$AAa?$AAd?$AAd?$AAr?$AAe?$AAs?$AAs?$AA?5?$AA?$DN@|
  00548		 |$M36300|

			 ENDP  ; |?ClosePipe@CHcd@@QAAHII@Z|, CHcd::ClosePipe

	EXPORT	|??_C@_1FK@GCABFBFI@?$AA?$CF?$AAs?$AA?3?$AA?5?$AA?9?$AAC?$AAH?$AAc?$AAd?$AA?3?$AA?3?$AAI?$AAs?$AAs?$AAu?$AAe?$AAT?$AAr?$AAa?$AAn?$AAs?$AAf?$AAe?$AAr?$AA?5?$AA?9?$AA?5?$AAr?$AAe?$AAt?$AAu?$AAr@| [ DATA ] ; `string'
	EXPORT	|SetEvent|
	EXPORT	|??_C@_1KA@JCIACNMC@?$AAH?$AAc?$AAd?$AA?3?$AA?3?$AAI?$AAs?$AAs?$AAu?$AAe?$AAT?$AAr?$AAa?$AAn?$AAs?$AAf?$AAe?$AAr?$AA?5?$AAa?$AAt?$AA?5?$AAp?$AAi?$AAp?$AAe?$AAI?$AAn?$AAd?$AAe?$AAx?$AA?5@| [ DATA ] ; `string'
	EXPORT	|??_C@_17HCEMPBGG@?$AAO?$AAU?$AAT?$AA?$AA@| [ DATA ] ; `string'
	EXPORT	|??_C@_15BNKBCKPG@?$AAI?$AAN?$AA?$AA@| [ DATA ] ; `string'
	EXPORT	|?GetOTGContext@CHcd@@QAAPAXXZ|		; CHcd::GetOTGContext
	EXPORT	|??_C@_1PM@ELCLLPLD@?$AA?$CL?$AAC?$AAH?$AAc?$AAd?$AA?3?$AA?3?$AAI?$AAs?$AAs?$AAu?$AAe?$AAT?$AAr?$AAa?$AAn?$AAs?$AAf?$AAe?$AAr?$AA?5?$AA?9?$AA?5?$AAa?$AAd?$AAd?$AAr?$AAe?$AAs?$AAs?$AA?5?$AA?$DN@| [ DATA ] ; `string'
	EXPORT	|?IssueTransfer@CHcd@@QAAHIIP6AKPAX@Z0KPBXKKPBKK0K2PAK4PAH44@Z| ; CHcd::IssueTransfer
	IMPORT	|SetLastError|

  00028			 AREA	 |.pdata|, PDATA
|$T36341| DCD	|$LN20@IssueTrans|
	DCD	0x4000b904

  00000			 AREA	 |.rdata|, DATA, READONLY
|??_C@_1FK@GCABFBFI@?$AA?$CF?$AAs?$AA?3?$AA?5?$AA?9?$AAC?$AAH?$AAc?$AAd?$AA?3?$AA?3?$AAI?$AAs?$AAs?$AAu?$AAe?$AAT?$AAr?$AAa?$AAn?$AAs?$AAf?$AAe?$AAr?$AA?5?$AA?9?$AA?5?$AAr?$AAe?$AAt?$AAu?$AAr@| DCB "%"
	DCB	0x0, "s", 0x0, ":", 0x0, " ", 0x0, "-", 0x0, "C", 0x0, "H"
	DCB	0x0, "c", 0x0, "d", 0x0, ":", 0x0, ":", 0x0, "I", 0x0, "s"
	DCB	0x0, "s", 0x0, "u", 0x0, "e", 0x0, "T", 0x0, "r", 0x0, "a"
	DCB	0x0, "n", 0x0, "s", 0x0, "f", 0x0, "e", 0x0, "r", 0x0, " "
	DCB	0x0, "-", 0x0, " ", 0x0, "r", 0x0, "e", 0x0, "t", 0x0, "u"
	DCB	0x0, "r", 0x0, "i", 0x0, "n", 0x0, "g", 0x0, " ", 0x0, "B"
	DCB	0x0, "O", 0x0, "O", 0x0, "L", 0x0, " ", 0x0, "%", 0x0, "d"
	DCB	0x0, 0xa, 0x0, 0x0, 0x0			; `string'

  00000			 AREA	 |.rdata|, DATA, READONLY
|??_C@_1KA@JCIACNMC@?$AAH?$AAc?$AAd?$AA?3?$AA?3?$AAI?$AAs?$AAs?$AAu?$AAe?$AAT?$AAr?$AAa?$AAn?$AAs?$AAf?$AAe?$AAr?$AA?5?$AAa?$AAt?$AA?5?$AAp?$AAi?$AAp?$AAe?$AAI?$AAn?$AAd?$AAe?$AAx?$AA?5@| DCB "H"
	DCB	0x0, "c", 0x0, "d", 0x0, ":", 0x0, ":", 0x0, "I", 0x0, "s"
	DCB	0x0, "s", 0x0, "u", 0x0, "e", 0x0, "T", 0x0, "r", 0x0, "a"
	DCB	0x0, "n", 0x0, "s", 0x0, "f", 0x0, "e", 0x0, "r", 0x0, " "
	DCB	0x0, "a", 0x0, "t", 0x0, " ", 0x0, "p", 0x0, "i", 0x0, "p"
	DCB	0x0, "e", 0x0, "I", 0x0, "n", 0x0, "d", 0x0, "e", 0x0, "x"
	DCB	0x0, " ", 0x0, "%", 0x0, "d", 0x0, ",", 0x0, " ", 0x0, "D"
	DCB	0x0, "I", 0x0, "R", 0x0, " ", 0x0, "%", 0x0, "s", 0x0, ","
	DCB	0x0, " ", 0x0, "l", 0x0, "p", 0x0, "v", 0x0, "B", 0x0, "u"
	DCB	0x0, "f", 0x0, "f", 0x0, "e", 0x0, "r", 0x0, " ", 0x0, "0"
	DCB	0x0, "x", 0x0, "%", 0x0, "x", 0x0, ",", 0x0, " ", 0x0, "d"
	DCB	0x0, "w", 0x0, "B", 0x0, "u", 0x0, "f", 0x0, "f", 0x0, "e"
	DCB	0x0, "r", 0x0, "S", 0x0, "i", 0x0, "z", 0x0, "e", 0x0, " "
	DCB	0x0, "0", 0x0, "x", 0x0, "%", 0x0, "x", 0x0, 0xd, 0x0, 0xa
	DCB	0x0, 0x0, 0x0				; `string'

  00000			 AREA	 |.rdata|, DATA, READONLY
|??_C@_17HCEMPBGG@?$AAO?$AAU?$AAT?$AA?$AA@| DCB "O", 0x0, "U", 0x0, "T", 0x0
	DCB	0x0, 0x0				; `string'

  00000			 AREA	 |.rdata|, DATA, READONLY
|??_C@_15BNKBCKPG@?$AAI?$AAN?$AA?$AA@| DCB "I", 0x0, "N", 0x0, 0x0, 0x0 ; `string'

  00000			 AREA	 |.rdata|, DATA, READONLY
|??_C@_1PM@ELCLLPLD@?$AA?$CL?$AAC?$AAH?$AAc?$AAd?$AA?3?$AA?3?$AAI?$AAs?$AAs?$AAu?$AAe?$AAT?$AAr?$AAa?$AAn?$AAs?$AAf?$AAe?$AAr?$AA?5?$AA?9?$AA?5?$AAa?$AAd?$AAd?$AAr?$AAe?$AAs?$AAs?$AA?5?$AA?$DN@| DCB "+"
	DCB	0x0, "C", 0x0, "H", 0x0, "c", 0x0, "d", 0x0, ":", 0x0, ":"
	DCB	0x0, "I", 0x0, "s", 0x0, "s", 0x0, "u", 0x0, "e", 0x0, "T"
	DCB	0x0, "r", 0x0, "a", 0x0, "n", 0x0, "s", 0x0, "f", 0x0, "e"
	DCB	0x0, "r", 0x0, " ", 0x0, "-", 0x0, " ", 0x0, "a", 0x0, "d"
	DCB	0x0, "d", 0x0, "r", 0x0, "e", 0x0, "s", 0x0, "s", 0x0, " "
	DCB	0x0, "=", 0x0, " ", 0x0, "%", 0x0, "d", 0x0, ",", 0x0, " "
	DCB	0x0, "p", 0x0, "i", 0x0, "p", 0x0, "e", 0x0, " ", 0x0, "="
	DCB	0x0, " ", 0x0, "%", 0x0, "d", 0x0, ",", 0x0, " ", 0x0, "d"
	DCB	0x0, "w", 0x0, "F", 0x0, "l", 0x0, "a", 0x0, "g", 0x0, "s"
	DCB	0x0, " ", 0x0, "=", 0x0, " ", 0x0, "0", 0x0, "x", 0x0, "%"
	DCB	0x0, "x", 0x0, ",", 0x0, " ", 0x0, "l", 0x0, "p", 0x0, "v"
	DCB	0x0, "C", 0x0, "o", 0x0, "n", 0x0, "t", 0x0, "r", 0x0, "o"
	DCB	0x0, "l", 0x0, "H", 0x0, "e", 0x0, "a", 0x0, "d", 0x0, "e"
	DCB	0x0, "r", 0x0, " ", 0x0, "=", 0x0, " ", 0x0, "0", 0x0, "x"
	DCB	0x0, "%", 0x0, "x", 0x0, ",", 0x0, " ", 0x0, "l", 0x0, "p"
	DCB	0x0, "v", 0x0, "B", 0x0, "u", 0x0, "f", 0x0, "f", 0x0, "e"
	DCB	0x0, "r", 0x0, " ", 0x0, "=", 0x0, " ", 0x0, "0", 0x0, "x"
	DCB	0x0, "%", 0x0, "x", 0x0, ",", 0x0, " ", 0x0, "d", 0x0, "w"
	DCB	0x0, "B", 0x0, "u", 0x0, "f", 0x0, "f", 0x0, "e", 0x0, "r"
	DCB	0x0, "S", 0x0, "i", 0x0, "z", 0x0, "e", 0x0, " ", 0x0, "="
	DCB	0x0, " ", 0x0, "%", 0x0, "d", 0x0, 0xa, 0x0, 0x0, 0x0 ; `string'
; Function compile flags: /Odtp

  00548			 AREA	 |.text|, CODE, ARM

  00548		 |?IssueTransfer@CHcd@@QAAHIIP6AKPAX@Z0KPBXKKPBKK0K2PAK4PAH44@Z| PROC ; CHcd::IssueTransfer

; 238  : {

  00548		 |$LN20@IssueTrans|
  00548	e1a0c00d	 mov         r12, sp
  0054c	e92d000f	 stmdb       sp!, {r0 - r3}
  00550	e92d5010	 stmdb       sp!, {r4, r12, lr}
  00554	e24dd0bc	 sub         sp, sp, #0xBC
  00558		 |$M36338|

; 239  :    DEBUGMSG( ZONE_UHCD | ZONE_TRANSFER, (TEXT("+CHcd::IssueTransfer - address = %d, pipe = %d, dwFlags = 0x%x, lpvControlHeader = 0x%x, lpvBuffer = 0x%x, dwBufferSize = %d\n"), address, pipeIndex, dwFlags, lpvControlHeader, lpvBuffer, dwBufferSize));

  00558	e59f32b8	 ldr         r3, [pc, #0x2B8]
  0055c	e5933440	 ldr         r3, [r3, #0x440]
  00560	e2032001	 and         r2, r3, #1
  00564	e59f32ac	 ldr         r3, [pc, #0x2AC]
  00568	e5933440	 ldr         r3, [r3, #0x440]
  0056c	e2033c01	 and         r3, r3, #1, 24
  00570	e1923003	 orrs        r3, r2, r3
  00574	0a00000d	 beq         |$LN8@IssueTrans|
  00578	e59d30f0	 ldr         r3, [sp, #0xF0]
  0057c	e58d3008	 str         r3, [sp, #8]
  00580	e59d30f4	 ldr         r3, [sp, #0xF4]
  00584	e58d3004	 str         r3, [sp, #4]
  00588	e59d30e0	 ldr         r3, [sp, #0xE0]
  0058c	e58d3000	 str         r3, [sp]
  00590	e59d30dc	 ldr         r3, [sp, #0xDC]
  00594	e59d20d0	 ldr         r2, [sp, #0xD0]
  00598	e59d10cc	 ldr         r1, [sp, #0xCC]
  0059c	e59f0284	 ldr         r0, [pc, #0x284]
  005a0	eb000000	 bl          NKDbgPrintfW
  005a4	e3a03001	 mov         r3, #1
  005a8	e58d309c	 str         r3, [sp, #0x9C]
  005ac	ea000001	 b           |$LN9@IssueTrans|
  005b0		 |$LN8@IssueTrans|
  005b0	e3a03000	 mov         r3, #0
  005b4	e58d309c	 str         r3, [sp, #0x9C]
  005b8		 |$LN9@IssueTrans|

; 240  :    BOOL fSuccess = FALSE;

  005b8	e3a03000	 mov         r3, #0
  005bc	e58d303c	 str         r3, [sp, #0x3C]

; 241  :    Lock();

  005c0	e59d30c8	 ldr         r3, [sp, #0xC8]
  005c4	e2830090	 add         r0, r3, #0x90
  005c8	eb000000	 bl          |?Lock@LockObject@@QAAXXZ|

; 242  :    CRootHub *pRoot = m_pCRootHub;

  005cc	e59d30c8	 ldr         r3, [sp, #0xC8]
  005d0	e28330b0	 add         r3, r3, #0xB0
  005d4	e5933000	 ldr         r3, [r3]
  005d8	e58d3048	 str         r3, [sp, #0x48]

; 243  :    PHSMUSB_T pOTG = (PHSMUSB_T)GetOTGContext();

  005dc	e59d00c8	 ldr         r0, [sp, #0xC8]
  005e0	eb000000	 bl          |?GetOTGContext@CHcd@@QAAPAXXZ|
  005e4	e58d00a0	 str         r0, [sp, #0xA0]
  005e8	e59d30a0	 ldr         r3, [sp, #0xA0]
  005ec	e58d3040	 str         r3, [sp, #0x40]

; 244  :    HCD_REQUEST_STATUS status = requestIgnored;

  005f0	e3a03002	 mov         r3, #2
  005f4	e58d3044	 str         r3, [sp, #0x44]

; 245  :    DEBUGMSG(ZONE_TRANSFER, (TEXT("Hcd::IssueTransfer at pipeIndex %d, DIR %s, lpvBuffer 0x%x, dwBufferSize 0x%x\r\n"),
; 246  :        pipeIndex, ((dwFlags & USB_IN_TRANSFER)? TEXT("IN"):TEXT("OUT")), lpvBuffer, dwBufferSize));

  005f8	e59f3218	 ldr         r3, [pc, #0x218]
  005fc	e5933440	 ldr         r3, [r3, #0x440]
  00600	e3130c01	 tst         r3, #1, 24
  00604	0a000011	 beq         |$LN12@IssueTrans|
  00608	e59d30dc	 ldr         r3, [sp, #0xDC]
  0060c	e3130080	 tst         r3, #0x80
  00610	0a000002	 beq         |$LN10@IssueTrans|
  00614	e59f3208	 ldr         r3, [pc, #0x208]
  00618	e58d30a4	 str         r3, [sp, #0xA4]
  0061c	ea000001	 b           |$LN11@IssueTrans|
  00620		 |$LN10@IssueTrans|
  00620	e59f31f8	 ldr         r3, [pc, #0x1F8]
  00624	e58d30a4	 str         r3, [sp, #0xA4]
  00628		 |$LN11@IssueTrans|
  00628	e59d30f0	 ldr         r3, [sp, #0xF0]
  0062c	e58d3000	 str         r3, [sp]
  00630	e59d30f4	 ldr         r3, [sp, #0xF4]
  00634	e59d20a4	 ldr         r2, [sp, #0xA4]
  00638	e59d10d0	 ldr         r1, [sp, #0xD0]
  0063c	e59f01d8	 ldr         r0, [pc, #0x1D8]
  00640	eb000000	 bl          NKDbgPrintfW
  00644	e3a03001	 mov         r3, #1
  00648	e58d30a8	 str         r3, [sp, #0xA8]
  0064c	ea000001	 b           |$LN13@IssueTrans|
  00650		 |$LN12@IssueTrans|
  00650	e3a03000	 mov         r3, #0
  00654	e58d30a8	 str         r3, [sp, #0xA8]
  00658		 |$LN13@IssueTrans|

; 247  :    m_fHCDState = USBHCD_ACTIVE;

  00658	e59d30c8	 ldr         r3, [sp, #0xC8]
  0065c	e28320a4	 add         r2, r3, #0xA4
  00660	e3a03001	 mov         r3, #1
  00664	e5823000	 str         r3, [r2]

; 248  :    if (pRoot != NULL) {

  00668	e59d3048	 ldr         r3, [sp, #0x48]
  0066c	e3530000	 cmp         r3, #0
  00670	0a00003d	 beq         |$LN5@IssueTrans|

; 249  :        fSuccess = (requestOK == pRoot->IssueTransfer(
; 250  :                                                 address,
; 251  :                                                 pipeIndex,
; 252  :                                                 lpStartAddress,
; 253  :                                                 lpvNotifyParameter,
; 254  :                                                 dwFlags,
; 255  :                                                 lpvControlHeader,
; 256  :                                                 dwStartingFrame,
; 257  :                                                 dwFrames,
; 258  :                                                 aLengths,
; 259  :                                                 dwBufferSize,
; 260  :                                                 lpvBuffer,
; 261  :                                                 paBuffer,
; 262  :                                                 lpvCancelId,
; 263  :                                                 adwIsochErrors,
; 264  :                                                 adwIsochLengths,
; 265  :                                                 lpfComplete,
; 266  :                                                 lpdwBytesTransfered,
; 267  :                                                 lpdwError ) );

  00674	e59d3110	 ldr         r3, [sp, #0x110]
  00678	e58d3038	 str         r3, [sp, #0x38]
  0067c	e59d310c	 ldr         r3, [sp, #0x10C]
  00680	e58d3034	 str         r3, [sp, #0x34]
  00684	e59d3108	 ldr         r3, [sp, #0x108]
  00688	e58d3030	 str         r3, [sp, #0x30]
  0068c	e59d3104	 ldr         r3, [sp, #0x104]
  00690	e58d302c	 str         r3, [sp, #0x2C]
  00694	e59d3100	 ldr         r3, [sp, #0x100]
  00698	e58d3028	 str         r3, [sp, #0x28]
  0069c	e59d30fc	 ldr         r3, [sp, #0xFC]
  006a0	e58d3024	 str         r3, [sp, #0x24]
  006a4	e59d30f8	 ldr         r3, [sp, #0xF8]
  006a8	e58d3020	 str         r3, [sp, #0x20]
  006ac	e59d30f4	 ldr         r3, [sp, #0xF4]
  006b0	e58d301c	 str         r3, [sp, #0x1C]
  006b4	e59d30f0	 ldr         r3, [sp, #0xF0]
  006b8	e58d3018	 str         r3, [sp, #0x18]
  006bc	e59d30ec	 ldr         r3, [sp, #0xEC]
  006c0	e58d3014	 str         r3, [sp, #0x14]
  006c4	e59d30e8	 ldr         r3, [sp, #0xE8]
  006c8	e58d3010	 str         r3, [sp, #0x10]
  006cc	e59d30e4	 ldr         r3, [sp, #0xE4]
  006d0	e58d300c	 str         r3, [sp, #0xC]
  006d4	e59d30e0	 ldr         r3, [sp, #0xE0]
  006d8	e58d3008	 str         r3, [sp, #8]
  006dc	e59d30dc	 ldr         r3, [sp, #0xDC]
  006e0	e58d3004	 str         r3, [sp, #4]
  006e4	e59d30d8	 ldr         r3, [sp, #0xD8]
  006e8	e58d3000	 str         r3, [sp]
  006ec	e59d30d4	 ldr         r3, [sp, #0xD4]
  006f0	e59d20d0	 ldr         r2, [sp, #0xD0]
  006f4	e59d10cc	 ldr         r1, [sp, #0xCC]
  006f8	e59d0048	 ldr         r0, [sp, #0x48]
  006fc	e5900000	 ldr         r0, [r0]
  00700	e280e010	 add         lr, r0, #0x10
  00704	e59d0048	 ldr         r0, [sp, #0x48]
  00708	e59e4000	 ldr         r4, [lr]
  0070c	e1a0e00f	 mov         lr, pc
  00710	e12fff14	 bx          r4
  00714	e58d00ac	 str         r0, [sp, #0xAC]
  00718	e59d30ac	 ldr         r3, [sp, #0xAC]
  0071c	e3530001	 cmp         r3, #1
  00720	1a000002	 bne         |$LN14@IssueTrans|
  00724	e3a03001	 mov         r3, #1
  00728	e58d30b0	 str         r3, [sp, #0xB0]
  0072c	ea000001	 b           |$LN15@IssueTrans|
  00730		 |$LN14@IssueTrans|
  00730	e3a03000	 mov         r3, #0
  00734	e58d30b0	 str         r3, [sp, #0xB0]
  00738		 |$LN15@IssueTrans|
  00738	e59d30b0	 ldr         r3, [sp, #0xB0]
  0073c	e58d303c	 str         r3, [sp, #0x3C]

; 268  :        if(status == requestOK) {

  00740	e59d3044	 ldr         r3, [sp, #0x44]
  00744	e3530001	 cmp         r3, #1
  00748	1a000002	 bne         |$LN4@IssueTrans|

; 269  :            fSuccess = TRUE;

  0074c	e3a03001	 mov         r3, #1
  00750	e58d303c	 str         r3, [sp, #0x3C]
  00754	ea000004	 b           |$LN3@IssueTrans|
  00758		 |$LN4@IssueTrans|

; 270  :        }
; 271  :        else if (status == requestIgnored) {

  00758	e59d3044	 ldr         r3, [sp, #0x44]
  0075c	e3530002	 cmp         r3, #2
  00760	1a000001	 bne         |$LN2@IssueTrans|

; 272  :            SetLastError(ERROR_DEV_NOT_EXIST);

  00764	e3a00037	 mov         r0, #0x37
  00768	eb000000	 bl          SetLastError
  0076c		 |$LN2@IssueTrans|
  0076c		 |$LN3@IssueTrans|
  0076c		 |$LN5@IssueTrans|

; 273  :        }       
; 274  :    }
; 275  : 
; 276  :    m_fHCDState = USBHCD_IDLE;

  0076c	e59d30c8	 ldr         r3, [sp, #0xC8]
  00770	e28320a4	 add         r2, r3, #0xA4
  00774	e3a03000	 mov         r3, #0
  00778	e5823000	 str         r3, [r2]

; 277  :    if(pOTG->dwPwrMgmt == MODE_SYSTEM_SUSPEND)

  0077c	e59d3040	 ldr         r3, [sp, #0x40]
  00780	e2833064	 add         r3, r3, #0x64
  00784	e5933000	 ldr         r3, [r3]
  00788	e3530001	 cmp         r3, #1
  0078c	1a000003	 bne         |$LN1@IssueTrans|

; 278  :    {
; 279  :        SetEvent(m_hPowerDownEvent);

  00790	e59d30c8	 ldr         r3, [sp, #0xC8]
  00794	e28330a8	 add         r3, r3, #0xA8
  00798	e5930000	 ldr         r0, [r3]
  0079c	eb000000	 bl          SetEvent
  007a0		 |$LN1@IssueTrans|

; 280  :    }
; 281  : 
; 282  :    Unlock();

  007a0	e59d30c8	 ldr         r3, [sp, #0xC8]
  007a4	e2830090	 add         r0, r3, #0x90
  007a8	eb000000	 bl          |?Unlock@LockObject@@QAAXXZ|

; 283  :    DEBUGMSG( ZONE_UHCD | ZONE_TRANSFER, (TEXT("%s: -CHcd::IssueTransfer - returing BOOL %d\n"),GetControllerName(), fSuccess ) );

  007ac	e59f3064	 ldr         r3, [pc, #0x64]
  007b0	e5933440	 ldr         r3, [r3, #0x440]
  007b4	e2032001	 and         r2, r3, #1
  007b8	e59f3058	 ldr         r3, [pc, #0x58]
  007bc	e5933440	 ldr         r3, [r3, #0x440]
  007c0	e2033c01	 and         r3, r3, #1, 24
  007c4	e1923003	 orrs        r3, r2, r3
  007c8	0a000009	 beq         |$LN16@IssueTrans|
  007cc	e59d00c8	 ldr         r0, [sp, #0xC8]
  007d0	eb000000	 bl          |?GetControllerName@CDeviceGlobal@@QBAPBGXZ|
  007d4	e58d00b4	 str         r0, [sp, #0xB4]
  007d8	e59d203c	 ldr         r2, [sp, #0x3C]
  007dc	e59d10b4	 ldr         r1, [sp, #0xB4]
  007e0	e59f002c	 ldr         r0, [pc, #0x2C]
  007e4	eb000000	 bl          NKDbgPrintfW
  007e8	e3a03001	 mov         r3, #1
  007ec	e58d30b8	 str         r3, [sp, #0xB8]
  007f0	ea000001	 b           |$LN17@IssueTrans|
  007f4		 |$LN16@IssueTrans|
  007f4	e3a03000	 mov         r3, #0
  007f8	e58d30b8	 str         r3, [sp, #0xB8]
  007fc		 |$LN17@IssueTrans|

; 284  :    return fSuccess;

  007fc	e59d303c	 ldr         r3, [sp, #0x3C]
  00800	e58d3098	 str         r3, [sp, #0x98]

; 285  : }

  00804	e59d0098	 ldr         r0, [sp, #0x98]
  00808	e28dd0bc	 add         sp, sp, #0xBC
  0080c	e89d6010	 ldmia       sp, {r4, sp, lr}
  00810	e12fff1e	 bx          lr
  00814		 |$LN21@IssueTrans|
  00814		 |$LN22@IssueTrans|
  00814	00000000	 DCD         |??_C@_1FK@GCABFBFI@?$AA?$CF?$AAs?$AA?3?$AA?5?$AA?9?$AAC?$AAH?$AAc?$AAd?$AA?3?$AA?3?$AAI?$AAs?$AAs?$AAu?$AAe?$AAT?$AAr?$AAa?$AAn?$AAs?$AAf?$AAe?$AAr?$AA?5?$AA?9?$AA?5?$AAr?$AAe?$AAt?$AAu?$AAr@|
  00818		 |$LN23@IssueTrans|
  00818	00000000	 DCD         |dpCurSettings|
  0081c		 |$LN24@IssueTrans|
  0081c	00000000	 DCD         |??_C@_1KA@JCIACNMC@?$AAH?$AAc?$AAd?$AA?3?$AA?3?$AAI?$AAs?$AAs?$AAu?$AAe?$AAT?$AAr?$AAa?$AAn?$AAs?$AAf?$AAe?$AAr?$AA?5?$AAa?$AAt?$AA?5?$AAp?$AAi?$AAp?$AAe?$AAI?$AAn?$AAd?$AAe?$AAx?$AA?5@|
  00820		 |$LN25@IssueTrans|
  00820	00000000	 DCD         |??_C@_17HCEMPBGG@?$AAO?$AAU?$AAT?$AA?$AA@|
  00824		 |$LN26@IssueTrans|
  00824	00000000	 DCD         |??_C@_15BNKBCKPG@?$AAI?$AAN?$AA?$AA@|
  00828		 |$LN27@IssueTrans|
  00828	00000000	 DCD         |??_C@_1PM@ELCLLPLD@?$AA?$CL?$AAC?$AAH?$AAc?$AAd?$AA?3?$AA?3?$AAI?$AAs?$AAs?$AAu?$AAe?$AAT?$AAr?$AAa?$AAn?$AAs?$AAf?$AAe?$AAr?$AA?5?$AA?9?$AA?5?$AAa?$AAd?$AAd?$AAr?$AAe?$AAs?$AAs?$AA?5?$AA?$DN@|
  0082c		 |$M36339|

			 ENDP  ; |?IssueTransfer@CHcd@@QAAHIIP6AKPAX@Z0KPBXKKPBKK0K2PAK4PAH44@Z|, CHcd::IssueTransfer

	IMPORT	|EventModify|
; File c:\wince600\public\common\sdk\inc\kfuncs.h

  00000			 AREA	 |.pdata|, PDATA
|$T36354| DCD	|$LN5@SetEvent|
	DCD	0x40000e04
; Function compile flags: /Odtp

  00000			 AREA	 |.text|, CODE, ARM

  00000		 |SetEvent| PROC

; 235  : _inline BOOL SetEvent(HANDLE h) {

  00000		 |$LN5@SetEvent|
  00000	e1a0c00d	 mov         r12, sp
  00004	e92d0001	 stmdb       sp!, {r0}
  00008	e92d5000	 stmdb       sp!, {r12, lr}
  0000c	e24dd008	 sub         sp, sp, #8
  00010		 |$M36351|

; 236  : 	return EventModify(h,EVENT_SET);

  00010	e3a01003	 mov         r1, #3
  00014	e59d0010	 ldr         r0, [sp, #0x10]
  00018	eb000000	 bl          EventModify
  0001c	e58d0004	 str         r0, [sp, #4]
  00020	e59d3004	 ldr         r3, [sp, #4]
  00024	e58d3000	 str         r3, [sp]

; 237  : }

  00028	e59d0000	 ldr         r0, [sp]
  0002c	e28dd008	 add         sp, sp, #8
  00030	e89d6000	 ldmia       sp, {sp, lr}
  00034	e12fff1e	 bx          lr
  00038		 |$M36352|

			 ENDP  ; |SetEvent|

; File c:\wince600\platform\common\src\soc\common_ti_v1\omap3530\musb\musbhcd\usb2com\hcd.hpp

  00000			 AREA	 |.pdata|, PDATA
|$T36362| DCD	|$LN5@GetOTGCont|
	DCD	0x40000c04
; Function compile flags: /Odtp

  00000			 AREA	 |.text|, CODE, ARM

  00000		 |?GetOTGContext@CHcd@@QAAPAXXZ| PROC	; CHcd::GetOTGContext

; 121  :     PVOID   GetOTGContext() { return m_pOTG;};

  00000		 |$LN5@GetOTGCont|
  00000	e1a0c00d	 mov         r12, sp
  00004	e92d0001	 stmdb       sp!, {r0}
  00008	e92d5000	 stmdb       sp!, {r12, lr}
  0000c	e24dd004	 sub         sp, sp, #4
  00010		 |$M36359|
  00010	e59d300c	 ldr         r3, [sp, #0xC]
  00014	e28330b4	 add         r3, r3, #0xB4
  00018	e5933000	 ldr         r3, [r3]
  0001c	e58d3000	 str         r3, [sp]
  00020	e59d0000	 ldr         r0, [sp]
  00024	e28dd004	 add         sp, sp, #4
  00028	e89d6000	 ldmia       sp, {sp, lr}
  0002c	e12fff1e	 bx          lr
  00030		 |$M36360|

			 ENDP  ; |?GetOTGContext@CHcd@@QAAPAXXZ|, CHcd::GetOTGContext

	EXPORT	|??_C@_1JI@KLCHJEBC@?$AA?$CF?$AAs?$AA?3?$AA?5?$AA?9?$AAC?$AAH?$AAc?$AAd?$AA?3?$AA?3?$AAA?$AAb?$AAo?$AAr?$AAt?$AAT?$AAr?$AAa?$AAn?$AAs?$AAf?$AAe?$AAr?$AA?5?$AA?9?$AA?5?$AAa?$AAd?$AAd?$AAr?$AAe@| [ DATA ] ; `string'
	EXPORT	|??_C@_1JK@FEBKABI@?$AA?$CF?$AAs?$AA?3?$AA?5?$AA?$CL?$AAC?$AAH?$AAc?$AAd?$AA?3?$AA?3?$AAA?$AAb?$AAo?$AAr?$AAt?$AAT?$AAr?$AAa?$AAn?$AAs?$AAf?$AAe?$AAr?$AA?5?$AA?9?$AA?5?$AAa?$AAd?$AAd?$AAr?$AAe@| [ DATA ] ; `string'
	EXPORT	|?AbortTransfer@CHcd@@QAAHIIP6AKPAX@Z0PBX@Z| ; CHcd::AbortTransfer

  00030			 AREA	 |.pdata|, PDATA
|$T36380| DCD	|$LN12@AbortTrans|
	DCD	0x40006304
; File c:\wince600\platform\common\src\soc\common_ti_v1\omap3530\musb\musbhcd\usb2com\hcd.cpp

  00000			 AREA	 |.rdata|, DATA, READONLY
|??_C@_1JI@KLCHJEBC@?$AA?$CF?$AAs?$AA?3?$AA?5?$AA?9?$AAC?$AAH?$AAc?$AAd?$AA?3?$AA?3?$AAA?$AAb?$AAo?$AAr?$AAt?$AAT?$AAr?$AAa?$AAn?$AAs?$AAf?$AAe?$AAr?$AA?5?$AA?9?$AA?5?$AAa?$AAd?$AAd?$AAr?$AAe@| DCB "%"
	DCB	0x0, "s", 0x0, ":", 0x0, " ", 0x0, "-", 0x0, "C", 0x0, "H"
	DCB	0x0, "c", 0x0, "d", 0x0, ":", 0x0, ":", 0x0, "A", 0x0, "b"
	DCB	0x0, "o", 0x0, "r", 0x0, "t", 0x0, "T", 0x0, "r", 0x0, "a"
	DCB	0x0, "n", 0x0, "s", 0x0, "f", 0x0, "e", 0x0, "r", 0x0, " "
	DCB	0x0, "-", 0x0, " ", 0x0, "a", 0x0, "d", 0x0, "d", 0x0, "r"
	DCB	0x0, "e", 0x0, "s", 0x0, "s", 0x0, " ", 0x0, "=", 0x0, " "
	DCB	0x0, "%", 0x0, "d", 0x0, ",", 0x0, " ", 0x0, "p", 0x0, "i"
	DCB	0x0, "p", 0x0, "e", 0x0, "I", 0x0, "n", 0x0, "d", 0x0, "e"
	DCB	0x0, "x", 0x0, " ", 0x0, "=", 0x0, " ", 0x0, "%", 0x0, "d"
	DCB	0x0, ",", 0x0, " ", 0x0, "r", 0x0, "e", 0x0, "t", 0x0, "u"
	DCB	0x0, "r", 0x0, "n", 0x0, "i", 0x0, "n", 0x0, "g", 0x0, " "
	DCB	0x0, "B", 0x0, "O", 0x0, "O", 0x0, "L", 0x0, " ", 0x0, "%"
	DCB	0x0, "d", 0x0, 0xa, 0x0, 0x0, 0x0	; `string'

  00000			 AREA	 |.rdata|, DATA, READONLY
|??_C@_1JK@FEBKABI@?$AA?$CF?$AAs?$AA?3?$AA?5?$AA?$CL?$AAC?$AAH?$AAc?$AAd?$AA?3?$AA?3?$AAA?$AAb?$AAo?$AAr?$AAt?$AAT?$AAr?$AAa?$AAn?$AAs?$AAf?$AAe?$AAr?$AA?5?$AA?9?$AA?5?$AAa?$AAd?$AAd?$AAr?$AAe@| DCB "%"
	DCB	0x0, "s", 0x0, ":", 0x0, " ", 0x0, "+", 0x0, "C", 0x0, "H"
	DCB	0x0, "c", 0x0, "d", 0x0, ":", 0x0, ":", 0x0, "A", 0x0, "b"
	DCB	0x0, "o", 0x0, "r", 0x0, "t", 0x0, "T", 0x0, "r", 0x0, "a"
	DCB	0x0, "n", 0x0, "s", 0x0, "f", 0x0, "e", 0x0, "r", 0x0, " "
	DCB	0x0, "-", 0x0, " ", 0x0, "a", 0x0, "d", 0x0, "d", 0x0, "r"
	DCB	0x0, "e", 0x0, "s", 0x0, "s", 0x0, " ", 0x0, "=", 0x0, " "
	DCB	0x0, "%", 0x0, "d", 0x0, ",", 0x0, " ", 0x0, "p", 0x0, "i"
	DCB	0x0, "p", 0x0, "e", 0x0, "I", 0x0, "n", 0x0, "d", 0x0, "e"
	DCB	0x0, "x", 0x0, " ", 0x0, "=", 0x0, " ", 0x0, "%", 0x0, "d"
	DCB	0x0, ",", 0x0, " ", 0x0, "l", 0x0, "p", 0x0, "v", 0x0, "C"
	DCB	0x0, "a", 0x0, "n", 0x0, "c", 0x0, "e", 0x0, "l", 0x0, "I"
	DCB	0x0, "d", 0x0, " ", 0x0, "=", 0x0, " ", 0x0, "0", 0x0, "x"
	DCB	0x0, "%", 0x0, "x", 0x0, 0xa, 0x0, 0x0, 0x0 ; `string'
; Function compile flags: /Odtp

  0082c			 AREA	 |.text|, CODE, ARM

  0082c		 |?AbortTransfer@CHcd@@QAAHIIP6AKPAX@Z0PBX@Z| PROC ; CHcd::AbortTransfer

; 312  : {

  0082c		 |$LN12@AbortTrans|
  0082c	e1a0c00d	 mov         r12, sp
  00830	e92d000f	 stmdb       sp!, {r0 - r3}
  00834	e92d5010	 stmdb       sp!, {r4, r12, lr}
  00838	e24dd03c	 sub         sp, sp, #0x3C
  0083c		 |$M36377|

; 313  :     DEBUGMSG( ZONE_UHCD | ZONE_TRANSFER, (TEXT("%s: +CHcd::AbortTransfer - address = %d, pipeIndex = %d, lpvCancelId = 0x%x\n"),GetControllerName(), address, pipeIndex, lpvCancelId) );

  0083c	e59f316c	 ldr         r3, [pc, #0x16C]
  00840	e5933440	 ldr         r3, [r3, #0x440]
  00844	e2032001	 and         r2, r3, #1
  00848	e59f3160	 ldr         r3, [pc, #0x160]
  0084c	e5933440	 ldr         r3, [r3, #0x440]
  00850	e2033c01	 and         r3, r3, #1, 24
  00854	e1923003	 orrs        r3, r2, r3
  00858	0a00000c	 beq         |$LN4@AbortTrans|
  0085c	e59d0048	 ldr         r0, [sp, #0x48]
  00860	eb000000	 bl          |?GetControllerName@CDeviceGlobal@@QBAPBGXZ|
  00864	e58d0024	 str         r0, [sp, #0x24]
  00868	e59d305c	 ldr         r3, [sp, #0x5C]
  0086c	e58d3000	 str         r3, [sp]
  00870	e59d3050	 ldr         r3, [sp, #0x50]
  00874	e59d204c	 ldr         r2, [sp, #0x4C]
  00878	e59d1024	 ldr         r1, [sp, #0x24]
  0087c	e59f0130	 ldr         r0, [pc, #0x130]
  00880	eb000000	 bl          NKDbgPrintfW
  00884	e3a03001	 mov         r3, #1
  00888	e58d3028	 str         r3, [sp, #0x28]
  0088c	ea000001	 b           |$LN5@AbortTrans|
  00890		 |$LN4@AbortTrans|
  00890	e3a03000	 mov         r3, #0
  00894	e58d3028	 str         r3, [sp, #0x28]
  00898		 |$LN5@AbortTrans|

; 314  :     BOOL fSuccess = FALSE;

  00898	e3a03000	 mov         r3, #0
  0089c	e58d3008	 str         r3, [sp, #8]

; 315  : 
; 316  :     Lock();

  008a0	e59d3048	 ldr         r3, [sp, #0x48]
  008a4	e2830090	 add         r0, r3, #0x90
  008a8	eb000000	 bl          |?Lock@LockObject@@QAAXXZ|

; 317  :     CRootHub *pRoot = m_pCRootHub;

  008ac	e59d3048	 ldr         r3, [sp, #0x48]
  008b0	e28330b0	 add         r3, r3, #0xB0
  008b4	e5933000	 ldr         r3, [r3]
  008b8	e58d300c	 str         r3, [sp, #0xC]

; 318  : 
; 319  :     if (pRoot != NULL)

  008bc	e59d300c	 ldr         r3, [sp, #0xC]
  008c0	e3530000	 cmp         r3, #0
  008c4	0a000018	 beq         |$LN1@AbortTrans|

; 320  :         fSuccess = (requestOK == pRoot->AbortTransfer( address,
; 321  :                                                        pipeIndex,
; 322  :                                                        lpCancelAddress,
; 323  :                                                        lpvNotifyParameter,
; 324  :                                                        lpvCancelId ) );

  008c8	e59d305c	 ldr         r3, [sp, #0x5C]
  008cc	e58d3004	 str         r3, [sp, #4]
  008d0	e59d3058	 ldr         r3, [sp, #0x58]
  008d4	e58d3000	 str         r3, [sp]
  008d8	e59d3054	 ldr         r3, [sp, #0x54]
  008dc	e59d2050	 ldr         r2, [sp, #0x50]
  008e0	e59d104c	 ldr         r1, [sp, #0x4C]
  008e4	e59d000c	 ldr         r0, [sp, #0xC]
  008e8	e5900000	 ldr         r0, [r0]
  008ec	e280e014	 add         lr, r0, #0x14
  008f0	e59d000c	 ldr         r0, [sp, #0xC]
  008f4	e59e4000	 ldr         r4, [lr]
  008f8	e1a0e00f	 mov         lr, pc
  008fc	e12fff14	 bx          r4
  00900	e58d002c	 str         r0, [sp, #0x2C]
  00904	e59d302c	 ldr         r3, [sp, #0x2C]
  00908	e3530001	 cmp         r3, #1
  0090c	1a000002	 bne         |$LN6@AbortTrans|
  00910	e3a03001	 mov         r3, #1
  00914	e58d3030	 str         r3, [sp, #0x30]
  00918	ea000001	 b           |$LN7@AbortTrans|
  0091c		 |$LN6@AbortTrans|
  0091c	e3a03000	 mov         r3, #0
  00920	e58d3030	 str         r3, [sp, #0x30]
  00924		 |$LN7@AbortTrans|
  00924	e59d3030	 ldr         r3, [sp, #0x30]
  00928	e58d3008	 str         r3, [sp, #8]
  0092c		 |$LN1@AbortTrans|

; 325  : 
; 326  :     Unlock();

  0092c	e59d3048	 ldr         r3, [sp, #0x48]
  00930	e2830090	 add         r0, r3, #0x90
  00934	eb000000	 bl          |?Unlock@LockObject@@QAAXXZ|

; 327  :     DEBUGMSG( ZONE_UHCD | ZONE_TRANSFER, (TEXT("%s: -CHcd::AbortTransfer - address = %d, pipeIndex = %d, returning BOOL %d\n"),GetControllerName(), address, pipeIndex, fSuccess ) );

  00938	e59f3070	 ldr         r3, [pc, #0x70]
  0093c	e5933440	 ldr         r3, [r3, #0x440]
  00940	e2032001	 and         r2, r3, #1
  00944	e59f3064	 ldr         r3, [pc, #0x64]
  00948	e5933440	 ldr         r3, [r3, #0x440]
  0094c	e2033c01	 and         r3, r3, #1, 24
  00950	e1923003	 orrs        r3, r2, r3
  00954	0a00000c	 beq         |$LN8@AbortTrans|
  00958	e59d0048	 ldr         r0, [sp, #0x48]
  0095c	eb000000	 bl          |?GetControllerName@CDeviceGlobal@@QBAPBGXZ|
  00960	e58d0034	 str         r0, [sp, #0x34]
  00964	e59d3008	 ldr         r3, [sp, #8]
  00968	e58d3000	 str         r3, [sp]
  0096c	e59d3050	 ldr         r3, [sp, #0x50]
  00970	e59d204c	 ldr         r2, [sp, #0x4C]
  00974	e59d1034	 ldr         r1, [sp, #0x34]
  00978	e59f002c	 ldr         r0, [pc, #0x2C]
  0097c	eb000000	 bl          NKDbgPrintfW
  00980	e3a03001	 mov         r3, #1
  00984	e58d3038	 str         r3, [sp, #0x38]
  00988	ea000001	 b           |$LN9@AbortTrans|
  0098c		 |$LN8@AbortTrans|
  0098c	e3a03000	 mov         r3, #0
  00990	e58d3038	 str         r3, [sp, #0x38]
  00994		 |$LN9@AbortTrans|

; 328  :     return fSuccess;

  00994	e59d3008	 ldr         r3, [sp, #8]
  00998	e58d3020	 str         r3, [sp, #0x20]

; 329  : }

  0099c	e59d0020	 ldr         r0, [sp, #0x20]
  009a0	e28dd03c	 add         sp, sp, #0x3C
  009a4	e89d6010	 ldmia       sp, {r4, sp, lr}
  009a8	e12fff1e	 bx          lr
  009ac		 |$LN13@AbortTrans|
  009ac		 |$LN14@AbortTrans|
  009ac	00000000	 DCD         |??_C@_1JI@KLCHJEBC@?$AA?$CF?$AAs?$AA?3?$AA?5?$AA?9?$AAC?$AAH?$AAc?$AAd?$AA?3?$AA?3?$AAA?$AAb?$AAo?$AAr?$AAt?$AAT?$AAr?$AAa?$AAn?$AAs?$AAf?$AAe?$AAr?$AA?5?$AA?9?$AA?5?$AAa?$AAd?$AAd?$AAr?$AAe@|
  009b0		 |$LN15@AbortTrans|
  009b0	00000000	 DCD         |dpCurSettings|
  009b4		 |$LN16@AbortTrans|
  009b4	00000000	 DCD         |??_C@_1JK@FEBKABI@?$AA?$CF?$AAs?$AA?3?$AA?5?$AA?$CL?$AAC?$AAH?$AAc?$AAd?$AA?3?$AA?3?$AAA?$AAb?$AAo?$AAr?$AAt?$AAT?$AAr?$AAa?$AAn?$AAs?$AAf?$AAe?$AAr?$AA?5?$AA?9?$AA?5?$AAa?$AAd?$AAd?$AAr?$AAe@|
  009b8		 |$M36378|

			 ENDP  ; |?AbortTransfer@CHcd@@QAAHIIP6AKPAX@Z0PBX@Z|, CHcd::AbortTransfer

	EXPORT	|??_C@_1KM@LJLJJEPB@?$AA?$CF?$AAs?$AA?3?$AA?5?$AA?9?$AAC?$AAH?$AAc?$AAd?$AA?3?$AA?3?$AAI?$AAs?$AAP?$AAi?$AAp?$AAe?$AAH?$AAa?$AAl?$AAt?$AAe?$AAd?$AA?5?$AA?9?$AA?5?$AAa?$AAd?$AAd?$AAr?$AAe?$AAs@| [ DATA ] ; `string'
	EXPORT	|??_C@_1HA@KPMLIHDC@?$AA?$CF?$AAs?$AA?3?$AA?5?$AA?$CL?$AAC?$AAH?$AAc?$AAd?$AA?3?$AA?3?$AAI?$AAs?$AAP?$AAi?$AAp?$AAe?$AAH?$AAa?$AAl?$AAt?$AAe?$AAd?$AA?5?$AA?9?$AA?5?$AAa?$AAd?$AAd?$AAr?$AAe?$AAs@| [ DATA ] ; `string'
	EXPORT	|?IsPipeHalted@CHcd@@QAAHIIPAH@Z|	; CHcd::IsPipeHalted

  00038			 AREA	 |.pdata|, PDATA
|$T36400| DCD	|$LN14@IsPipeHalt|
	DCD	0x40006304

  00000			 AREA	 |.rdata|, DATA, READONLY
|??_C@_1KM@LJLJJEPB@?$AA?$CF?$AAs?$AA?3?$AA?5?$AA?9?$AAC?$AAH?$AAc?$AAd?$AA?3?$AA?3?$AAI?$AAs?$AAP?$AAi?$AAp?$AAe?$AAH?$AAa?$AAl?$AAt?$AAe?$AAd?$AA?5?$AA?9?$AA?5?$AAa?$AAd?$AAd?$AAr?$AAe?$AAs@| DCB "%"
	DCB	0x0, "s", 0x0, ":", 0x0, " ", 0x0, "-", 0x0, "C", 0x0, "H"
	DCB	0x0, "c", 0x0, "d", 0x0, ":", 0x0, ":", 0x0, "I", 0x0, "s"
	DCB	0x0, "P", 0x0, "i", 0x0, "p", 0x0, "e", 0x0, "H", 0x0, "a"
	DCB	0x0, "l", 0x0, "t", 0x0, "e", 0x0, "d", 0x0, " ", 0x0, "-"
	DCB	0x0, " ", 0x0, "a", 0x0, "d", 0x0, "d", 0x0, "r", 0x0, "e"
	DCB	0x0, "s", 0x0, "s", 0x0, " ", 0x0, "=", 0x0, " ", 0x0, "%"
	DCB	0x0, "d", 0x0, ",", 0x0, " ", 0x0, "p", 0x0, "i", 0x0, "p"
	DCB	0x0, "e", 0x0, "I", 0x0, "n", 0x0, "d", 0x0, "e", 0x0, "x"
	DCB	0x0, " ", 0x0, "=", 0x0, " ", 0x0, "%", 0x0, "d", 0x0, ","
	DCB	0x0, " ", 0x0, "*", 0x0, "l", 0x0, "p", 0x0, "b", 0x0, "H"
	DCB	0x0, "a", 0x0, "l", 0x0, "t", 0x0, "e", 0x0, "d", 0x0, " "
	DCB	0x0, "=", 0x0, " ", 0x0, "%", 0x0, "d", 0x0, ",", 0x0, " "
	DCB	0x0, "r", 0x0, "e", 0x0, "t", 0x0, "v", 0x0, "a", 0x0, "l"
	DCB	0x0, " ", 0x0, "=", 0x0, " ", 0x0, "%", 0x0, "d", 0x0, 0xa
	DCB	0x0, 0x0, 0x0				; `string'

  00000			 AREA	 |.rdata|, DATA, READONLY
|??_C@_1HA@KPMLIHDC@?$AA?$CF?$AAs?$AA?3?$AA?5?$AA?$CL?$AAC?$AAH?$AAc?$AAd?$AA?3?$AA?3?$AAI?$AAs?$AAP?$AAi?$AAp?$AAe?$AAH?$AAa?$AAl?$AAt?$AAe?$AAd?$AA?5?$AA?9?$AA?5?$AAa?$AAd?$AAd?$AAr?$AAe?$AAs@| DCB "%"
	DCB	0x0, "s", 0x0, ":", 0x0, " ", 0x0, "+", 0x0, "C", 0x0, "H"
	DCB	0x0, "c", 0x0, "d", 0x0, ":", 0x0, ":", 0x0, "I", 0x0, "s"
	DCB	0x0, "P", 0x0, "i", 0x0, "p", 0x0, "e", 0x0, "H", 0x0, "a"
	DCB	0x0, "l", 0x0, "t", 0x0, "e", 0x0, "d", 0x0, " ", 0x0, "-"
	DCB	0x0, " ", 0x0, "a", 0x0, "d", 0x0, "d", 0x0, "r", 0x0, "e"
	DCB	0x0, "s", 0x0, "s", 0x0, " ", 0x0, "=", 0x0, " ", 0x0, "%"
	DCB	0x0, "d", 0x0, ",", 0x0, " ", 0x0, "p", 0x0, "i", 0x0, "p"
	DCB	0x0, "e", 0x0, "I", 0x0, "n", 0x0, "d", 0x0, "e", 0x0, "x"
	DCB	0x0, " ", 0x0, "=", 0x0, " ", 0x0, "%", 0x0, "d", 0x0, 0xa
	DCB	0x0, 0x0, 0x0				; `string'
; Function compile flags: /Odtp

  009b8			 AREA	 |.text|, CODE, ARM

  009b8		 |?IsPipeHalted@CHcd@@QAAHIIPAH@Z| PROC	; CHcd::IsPipeHalted

; 350  : {

  009b8		 |$LN14@IsPipeHalt|
  009b8	e1a0c00d	 mov         r12, sp
  009bc	e92d000f	 stmdb       sp!, {r0 - r3}
  009c0	e92d5010	 stmdb       sp!, {r4, r12, lr}
  009c4	e24dd038	 sub         sp, sp, #0x38
  009c8		 |$M36397|

; 351  :     DEBUGMSG(ZONE_UHCD,(TEXT("%s: +CHcd::IsPipeHalted - address = %d, pipeIndex = %d\n"),GetControllerName(), address, pipeIndex ));

  009c8	e59f316c	 ldr         r3, [pc, #0x16C]
  009cc	e5933440	 ldr         r3, [r3, #0x440]
  009d0	e3130001	 tst         r3, #1
  009d4	0a00000a	 beq         |$LN4@IsPipeHalt|
  009d8	e59d0044	 ldr         r0, [sp, #0x44]
  009dc	eb000000	 bl          |?GetControllerName@CDeviceGlobal@@QBAPBGXZ|
  009e0	e58d001c	 str         r0, [sp, #0x1C]
  009e4	e59d304c	 ldr         r3, [sp, #0x4C]
  009e8	e59d2048	 ldr         r2, [sp, #0x48]
  009ec	e59d101c	 ldr         r1, [sp, #0x1C]
  009f0	e59f0148	 ldr         r0, [pc, #0x148]
  009f4	eb000000	 bl          NKDbgPrintfW
  009f8	e3a03001	 mov         r3, #1
  009fc	e58d3020	 str         r3, [sp, #0x20]
  00a00	ea000001	 b           |$LN5@IsPipeHalt|
  00a04		 |$LN4@IsPipeHalt|
  00a04	e3a03000	 mov         r3, #0
  00a08	e58d3020	 str         r3, [sp, #0x20]
  00a0c		 |$LN5@IsPipeHalt|

; 352  :     BOOL retval = FALSE;

  00a0c	e3a03000	 mov         r3, #0
  00a10	e58d3008	 str         r3, [sp, #8]

; 353  : 
; 354  :     Lock();

  00a14	e59d3044	 ldr         r3, [sp, #0x44]
  00a18	e2830090	 add         r0, r3, #0x90
  00a1c	eb000000	 bl          |?Lock@LockObject@@QAAXXZ|

; 355  :     CRootHub *pRoot = m_pCRootHub;

  00a20	e59d3044	 ldr         r3, [sp, #0x44]
  00a24	e28330b0	 add         r3, r3, #0xB0
  00a28	e5933000	 ldr         r3, [r3]
  00a2c	e58d300c	 str         r3, [sp, #0xC]

; 356  : 
; 357  :     if ( pRoot != NULL && lpbHalted != NULL ) {

  00a30	e59d300c	 ldr         r3, [sp, #0xC]
  00a34	e3530000	 cmp         r3, #0
  00a38	0a000017	 beq         |$LN1@IsPipeHalt|
  00a3c	e59d3050	 ldr         r3, [sp, #0x50]
  00a40	e3530000	 cmp         r3, #0
  00a44	0a000014	 beq         |$LN1@IsPipeHalt|

; 358  :         retval = ( requestOK == pRoot->IsPipeHalted( address,
; 359  :                                                      pipeIndex,
; 360  :                                                      lpbHalted ) );

  00a48	e59d3050	 ldr         r3, [sp, #0x50]
  00a4c	e59d204c	 ldr         r2, [sp, #0x4C]
  00a50	e59d1048	 ldr         r1, [sp, #0x48]
  00a54	e59d000c	 ldr         r0, [sp, #0xC]
  00a58	e5900000	 ldr         r0, [r0]
  00a5c	e280e018	 add         lr, r0, #0x18
  00a60	e59d000c	 ldr         r0, [sp, #0xC]
  00a64	e59e4000	 ldr         r4, [lr]
  00a68	e1a0e00f	 mov         lr, pc
  00a6c	e12fff14	 bx          r4
  00a70	e58d0024	 str         r0, [sp, #0x24]
  00a74	e59d3024	 ldr         r3, [sp, #0x24]
  00a78	e3530001	 cmp         r3, #1
  00a7c	1a000002	 bne         |$LN6@IsPipeHalt|
  00a80	e3a03001	 mov         r3, #1
  00a84	e58d3028	 str         r3, [sp, #0x28]
  00a88	ea000001	 b           |$LN7@IsPipeHalt|
  00a8c		 |$LN6@IsPipeHalt|
  00a8c	e3a03000	 mov         r3, #0
  00a90	e58d3028	 str         r3, [sp, #0x28]
  00a94		 |$LN7@IsPipeHalt|
  00a94	e59d3028	 ldr         r3, [sp, #0x28]
  00a98	e58d3008	 str         r3, [sp, #8]
  00a9c		 |$LN1@IsPipeHalt|

; 361  :     }
; 362  :     Unlock();

  00a9c	e59d3044	 ldr         r3, [sp, #0x44]
  00aa0	e2830090	 add         r0, r3, #0x90
  00aa4	eb000000	 bl          |?Unlock@LockObject@@QAAXXZ|

; 363  :     DEBUGMSG(ZONE_UHCD,(TEXT("%s: -CHcd::IsPipeHalted - address = %d, pipeIndex = %d, *lpbHalted = %d, retval = %d\n"),GetControllerName(), address, pipeIndex, ((lpbHalted) ? *lpbHalted : -1), retval ));

  00aa8	e59f308c	 ldr         r3, [pc, #0x8C]
  00aac	e5933440	 ldr         r3, [r3, #0x440]
  00ab0	e3130001	 tst         r3, #1
  00ab4	0a000017	 beq         |$LN10@IsPipeHalt|
  00ab8	e59d3050	 ldr         r3, [sp, #0x50]
  00abc	e3530000	 cmp         r3, #0
  00ac0	0a000003	 beq         |$LN8@IsPipeHalt|
  00ac4	e59d3050	 ldr         r3, [sp, #0x50]
  00ac8	e5933000	 ldr         r3, [r3]
  00acc	e58d302c	 str         r3, [sp, #0x2C]
  00ad0	ea000001	 b           |$LN9@IsPipeHalt|
  00ad4		 |$LN8@IsPipeHalt|
  00ad4	e3e03000	 mvn         r3, #0
  00ad8	e58d302c	 str         r3, [sp, #0x2C]
  00adc		 |$LN9@IsPipeHalt|
  00adc	e59d0044	 ldr         r0, [sp, #0x44]
  00ae0	eb000000	 bl          |?GetControllerName@CDeviceGlobal@@QBAPBGXZ|
  00ae4	e58d0030	 str         r0, [sp, #0x30]
  00ae8	e59d3008	 ldr         r3, [sp, #8]
  00aec	e58d3004	 str         r3, [sp, #4]
  00af0	e59d302c	 ldr         r3, [sp, #0x2C]
  00af4	e58d3000	 str         r3, [sp]
  00af8	e59d304c	 ldr         r3, [sp, #0x4C]
  00afc	e59d2048	 ldr         r2, [sp, #0x48]
  00b00	e59d1030	 ldr         r1, [sp, #0x30]
  00b04	e59f002c	 ldr         r0, [pc, #0x2C]
  00b08	eb000000	 bl          NKDbgPrintfW
  00b0c	e3a03001	 mov         r3, #1
  00b10	e58d3034	 str         r3, [sp, #0x34]
  00b14	ea000001	 b           |$LN11@IsPipeHalt|
  00b18		 |$LN10@IsPipeHalt|
  00b18	e3a03000	 mov         r3, #0
  00b1c	e58d3034	 str         r3, [sp, #0x34]
  00b20		 |$LN11@IsPipeHalt|

; 364  :     return retval;

  00b20	e59d3008	 ldr         r3, [sp, #8]
  00b24	e58d3018	 str         r3, [sp, #0x18]

; 365  : }

  00b28	e59d0018	 ldr         r0, [sp, #0x18]
  00b2c	e28dd038	 add         sp, sp, #0x38
  00b30	e89d6010	 ldmia       sp, {r4, sp, lr}
  00b34	e12fff1e	 bx          lr
  00b38		 |$LN15@IsPipeHalt|
  00b38		 |$LN16@IsPipeHalt|
  00b38	00000000	 DCD         |??_C@_1KM@LJLJJEPB@?$AA?$CF?$AAs?$AA?3?$AA?5?$AA?9?$AAC?$AAH?$AAc?$AAd?$AA?3?$AA?3?$AAI?$AAs?$AAP?$AAi?$AAp?$AAe?$AAH?$AAa?$AAl?$AAt?$AAe?$AAd?$AA?5?$AA?9?$AA?5?$AAa?$AAd?$AAd?$AAr?$AAe?$AAs@|
  00b3c		 |$LN17@IsPipeHalt|
  00b3c	00000000	 DCD         |dpCurSettings|
  00b40		 |$LN18@IsPipeHalt|
  00b40	00000000	 DCD         |??_C@_1HA@KPMLIHDC@?$AA?$CF?$AAs?$AA?3?$AA?5?$AA?$CL?$AAC?$AAH?$AAc?$AAd?$AA?3?$AA?3?$AAI?$AAs?$AAP?$AAi?$AAp?$AAe?$AAH?$AAa?$AAl?$AAt?$AAe?$AAd?$AA?5?$AA?9?$AA?5?$AAa?$AAd?$AAd?$AAr?$AAe?$AAs@|
  00b44		 |$M36398|

			 ENDP  ; |?IsPipeHalted@CHcd@@QAAHIIPAH@Z|, CHcd::IsPipeHalted

	EXPORT	|??_C@_1JA@HEHLFONM@?$AA?$CF?$AAs?$AA?3?$AA?5?$AA?9?$AAC?$AAH?$AAc?$AAd?$AA?3?$AA?3?$AAR?$AAe?$AAs?$AAe?$AAt?$AAP?$AAi?$AAp?$AAe?$AA?5?$AA?9?$AA?5?$AAa?$AAd?$AAd?$AAr?$AAe?$AAs?$AAs?$AA?5?$AA?$DN@| [ DATA ] ; `string'
	EXPORT	|??_C@_1GK@BBNCGBFM@?$AA?$CF?$AAs?$AA?3?$AA?5?$AA?$CL?$AAC?$AAH?$AAc?$AAd?$AA?3?$AA?3?$AAR?$AAe?$AAs?$AAe?$AAt?$AAP?$AAi?$AAp?$AAe?$AA?5?$AA?9?$AA?5?$AAa?$AAd?$AAd?$AAr?$AAe?$AAs?$AAs?$AA?5?$AA?$DN@| [ DATA ] ; `string'
	EXPORT	|?ResetPipe@CHcd@@QAAHII@Z|		; CHcd::ResetPipe

  00040			 AREA	 |.pdata|, PDATA
|$T36417| DCD	|$LN12@ResetPipe|
	DCD	0x40005404

  00000			 AREA	 |.rdata|, DATA, READONLY
|??_C@_1JA@HEHLFONM@?$AA?$CF?$AAs?$AA?3?$AA?5?$AA?9?$AAC?$AAH?$AAc?$AAd?$AA?3?$AA?3?$AAR?$AAe?$AAs?$AAe?$AAt?$AAP?$AAi?$AAp?$AAe?$AA?5?$AA?9?$AA?5?$AAa?$AAd?$AAd?$AAr?$AAe?$AAs?$AAs?$AA?5?$AA?$DN@| DCB "%"
	DCB	0x0, "s", 0x0, ":", 0x0, " ", 0x0, "-", 0x0, "C", 0x0, "H"
	DCB	0x0, "c", 0x0, "d", 0x0, ":", 0x0, ":", 0x0, "R", 0x0, "e"
	DCB	0x0, "s", 0x0, "e", 0x0, "t", 0x0, "P", 0x0, "i", 0x0, "p"
	DCB	0x0, "e", 0x0, " ", 0x0, "-", 0x0, " ", 0x0, "a", 0x0, "d"
	DCB	0x0, "d", 0x0, "r", 0x0, "e", 0x0, "s", 0x0, "s", 0x0, " "
	DCB	0x0, "=", 0x0, " ", 0x0, "%", 0x0, "d", 0x0, ",", 0x0, " "
	DCB	0x0, "p", 0x0, "i", 0x0, "p", 0x0, "e", 0x0, "I", 0x0, "n"
	DCB	0x0, "d", 0x0, "e", 0x0, "x", 0x0, " ", 0x0, "=", 0x0, " "
	DCB	0x0, "%", 0x0, "d", 0x0, ",", 0x0, " ", 0x0, "r", 0x0, "e"
	DCB	0x0, "t", 0x0, "u", 0x0, "r", 0x0, "n", 0x0, "i", 0x0, "n"
	DCB	0x0, "g", 0x0, " ", 0x0, "B", 0x0, "O", 0x0, "O", 0x0, "L"
	DCB	0x0, " ", 0x0, "%", 0x0, "d", 0x0, 0xa, 0x0, 0x0, 0x0 ; `string'

  00000			 AREA	 |.rdata|, DATA, READONLY
|??_C@_1GK@BBNCGBFM@?$AA?$CF?$AAs?$AA?3?$AA?5?$AA?$CL?$AAC?$AAH?$AAc?$AAd?$AA?3?$AA?3?$AAR?$AAe?$AAs?$AAe?$AAt?$AAP?$AAi?$AAp?$AAe?$AA?5?$AA?9?$AA?5?$AAa?$AAd?$AAd?$AAr?$AAe?$AAs?$AAs?$AA?5?$AA?$DN@| DCB "%"
	DCB	0x0, "s", 0x0, ":", 0x0, " ", 0x0, "+", 0x0, "C", 0x0, "H"
	DCB	0x0, "c", 0x0, "d", 0x0, ":", 0x0, ":", 0x0, "R", 0x0, "e"
	DCB	0x0, "s", 0x0, "e", 0x0, "t", 0x0, "P", 0x0, "i", 0x0, "p"
	DCB	0x0, "e", 0x0, " ", 0x0, "-", 0x0, " ", 0x0, "a", 0x0, "d"
	DCB	0x0, "d", 0x0, "r", 0x0, "e", 0x0, "s", 0x0, "s", 0x0, " "
	DCB	0x0, "=", 0x0, " ", 0x0, "%", 0x0, "d", 0x0, ",", 0x0, " "
	DCB	0x0, "p", 0x0, "i", 0x0, "p", 0x0, "e", 0x0, "I", 0x0, "n"
	DCB	0x0, "d", 0x0, "e", 0x0, "x", 0x0, " ", 0x0, "=", 0x0, " "
	DCB	0x0, "%", 0x0, "d", 0x0, 0xa, 0x0, 0x0, 0x0 ; `string'
; Function compile flags: /Odtp

  00b44			 AREA	 |.text|, CODE, ARM

  00b44		 |?ResetPipe@CHcd@@QAAHII@Z| PROC	; CHcd::ResetPipe

; 384  : {

  00b44		 |$LN12@ResetPipe|
  00b44	e1a0c00d	 mov         r12, sp
  00b48	e92d0007	 stmdb       sp!, {r0 - r2}
  00b4c	e92d5000	 stmdb       sp!, {r12, lr}
  00b50	e24dd02c	 sub         sp, sp, #0x2C
  00b54		 |$M36414|

; 385  :     DEBUGMSG( ZONE_UHCD, (TEXT("%s: +CHcd::ResetPipe - address = %d, pipeIndex = %d\n"),GetControllerName(), address, pipeIndex) );

  00b54	e59f3130	 ldr         r3, [pc, #0x130]
  00b58	e5933440	 ldr         r3, [r3, #0x440]
  00b5c	e3130001	 tst         r3, #1
  00b60	0a00000a	 beq         |$LN4@ResetPipe|
  00b64	e59d0034	 ldr         r0, [sp, #0x34]
  00b68	eb000000	 bl          |?GetControllerName@CDeviceGlobal@@QBAPBGXZ|
  00b6c	e58d0014	 str         r0, [sp, #0x14]
  00b70	e59d303c	 ldr         r3, [sp, #0x3C]
  00b74	e59d2038	 ldr         r2, [sp, #0x38]
  00b78	e59d1014	 ldr         r1, [sp, #0x14]
  00b7c	e59f010c	 ldr         r0, [pc, #0x10C]
  00b80	eb000000	 bl          NKDbgPrintfW
  00b84	e3a03001	 mov         r3, #1
  00b88	e58d3018	 str         r3, [sp, #0x18]
  00b8c	ea000001	 b           |$LN5@ResetPipe|
  00b90		 |$LN4@ResetPipe|
  00b90	e3a03000	 mov         r3, #0
  00b94	e58d3018	 str         r3, [sp, #0x18]
  00b98		 |$LN5@ResetPipe|

; 386  :     BOOL fSuccess = FALSE;

  00b98	e3a03000	 mov         r3, #0
  00b9c	e58d3004	 str         r3, [sp, #4]

; 387  : 
; 388  :     Lock();

  00ba0	e59d3034	 ldr         r3, [sp, #0x34]
  00ba4	e2830090	 add         r0, r3, #0x90
  00ba8	eb000000	 bl          |?Lock@LockObject@@QAAXXZ|

; 389  :     CRootHub *pRoot = m_pCRootHub;

  00bac	e59d3034	 ldr         r3, [sp, #0x34]
  00bb0	e28330b0	 add         r3, r3, #0xB0
  00bb4	e5933000	 ldr         r3, [r3]
  00bb8	e58d3008	 str         r3, [sp, #8]

; 390  : 
; 391  :     if (pRoot != NULL)

  00bbc	e59d3008	 ldr         r3, [sp, #8]
  00bc0	e3530000	 cmp         r3, #0
  00bc4	0a000013	 beq         |$LN1@ResetPipe|

; 392  :         fSuccess = (requestOK == pRoot->ResetPipe( address, pipeIndex ) );

  00bc8	e59d203c	 ldr         r2, [sp, #0x3C]
  00bcc	e59d1038	 ldr         r1, [sp, #0x38]
  00bd0	e59d3008	 ldr         r3, [sp, #8]
  00bd4	e5933000	 ldr         r3, [r3]
  00bd8	e283301c	 add         r3, r3, #0x1C
  00bdc	e59d0008	 ldr         r0, [sp, #8]
  00be0	e5933000	 ldr         r3, [r3]
  00be4	e1a0e00f	 mov         lr, pc
  00be8	e12fff13	 bx          r3
  00bec	e58d001c	 str         r0, [sp, #0x1C]
  00bf0	e59d301c	 ldr         r3, [sp, #0x1C]
  00bf4	e3530001	 cmp         r3, #1
  00bf8	1a000002	 bne         |$LN6@ResetPipe|
  00bfc	e3a03001	 mov         r3, #1
  00c00	e58d3020	 str         r3, [sp, #0x20]
  00c04	ea000001	 b           |$LN7@ResetPipe|
  00c08		 |$LN6@ResetPipe|
  00c08	e3a03000	 mov         r3, #0
  00c0c	e58d3020	 str         r3, [sp, #0x20]
  00c10		 |$LN7@ResetPipe|
  00c10	e59d3020	 ldr         r3, [sp, #0x20]
  00c14	e58d3004	 str         r3, [sp, #4]
  00c18		 |$LN1@ResetPipe|

; 393  : 
; 394  :     Unlock();

  00c18	e59d3034	 ldr         r3, [sp, #0x34]
  00c1c	e2830090	 add         r0, r3, #0x90
  00c20	eb000000	 bl          |?Unlock@LockObject@@QAAXXZ|

; 395  :     DEBUGMSG( ZONE_UHCD, (TEXT("%s: -CHcd::ResetPipe - address = %d, pipeIndex = %d, returning BOOL %d\n"),GetControllerName(), address, pipeIndex, fSuccess) );

  00c24	e59f3060	 ldr         r3, [pc, #0x60]
  00c28	e5933440	 ldr         r3, [r3, #0x440]
  00c2c	e3130001	 tst         r3, #1
  00c30	0a00000c	 beq         |$LN8@ResetPipe|
  00c34	e59d0034	 ldr         r0, [sp, #0x34]
  00c38	eb000000	 bl          |?GetControllerName@CDeviceGlobal@@QBAPBGXZ|
  00c3c	e58d0024	 str         r0, [sp, #0x24]
  00c40	e59d3004	 ldr         r3, [sp, #4]
  00c44	e58d3000	 str         r3, [sp]
  00c48	e59d303c	 ldr         r3, [sp, #0x3C]
  00c4c	e59d2038	 ldr         r2, [sp, #0x38]
  00c50	e59d1024	 ldr         r1, [sp, #0x24]
  00c54	e59f002c	 ldr         r0, [pc, #0x2C]
  00c58	eb000000	 bl          NKDbgPrintfW
  00c5c	e3a03001	 mov         r3, #1
  00c60	e58d3028	 str         r3, [sp, #0x28]
  00c64	ea000001	 b           |$LN9@ResetPipe|
  00c68		 |$LN8@ResetPipe|
  00c68	e3a03000	 mov         r3, #0
  00c6c	e58d3028	 str         r3, [sp, #0x28]
  00c70		 |$LN9@ResetPipe|

; 396  :     return fSuccess;

  00c70	e59d3004	 ldr         r3, [sp, #4]
  00c74	e58d3010	 str         r3, [sp, #0x10]

; 397  : }

  00c78	e59d0010	 ldr         r0, [sp, #0x10]
  00c7c	e28dd02c	 add         sp, sp, #0x2C
  00c80	e89d6000	 ldmia       sp, {sp, lr}
  00c84	e12fff1e	 bx          lr
  00c88		 |$LN13@ResetPipe|
  00c88		 |$LN14@ResetPipe|
  00c88	00000000	 DCD         |??_C@_1JA@HEHLFONM@?$AA?$CF?$AAs?$AA?3?$AA?5?$AA?9?$AAC?$AAH?$AAc?$AAd?$AA?3?$AA?3?$AAR?$AAe?$AAs?$AAe?$AAt?$AAP?$AAi?$AAp?$AAe?$AA?5?$AA?9?$AA?5?$AAa?$AAd?$AAd?$AAr?$AAe?$AAs?$AAs?$AA?5?$AA?$DN@|
  00c8c		 |$LN15@ResetPipe|
  00c8c	00000000	 DCD         |dpCurSettings|
  00c90		 |$LN16@ResetPipe|
  00c90	00000000	 DCD         |??_C@_1GK@BBNCGBFM@?$AA?$CF?$AAs?$AA?3?$AA?5?$AA?$CL?$AAC?$AAH?$AAc?$AAd?$AA?3?$AA?3?$AAR?$AAe?$AAs?$AAe?$AAt?$AAP?$AAi?$AAp?$AAe?$AA?5?$AA?9?$AA?5?$AAa?$AAd?$AAd?$AAr?$AAe?$AAs?$AAs?$AA?5?$AA?$DN@|
  00c94		 |$M36415|

			 ENDP  ; |?ResetPipe@CHcd@@QAAHII@Z|, CHcd::ResetPipe

	EXPORT	|??_C@_1HI@MMNOEECB@?$AA?$CF?$AAs?$AA?3?$AA?5?$AA?9?$AAC?$AAH?$AAc?$AAd?$AA?3?$AA?3?$AAD?$AAi?$AAs?$AAa?$AAb?$AAl?$AAe?$AAD?$AAe?$AAv?$AAi?$AAc?$AAe?$AA?5?$AA?9?$AA?5?$AAa?$AAd?$AAd?$AAr?$AAe@| [ DATA ] ; `string'
	EXPORT	|??_C@_1GK@DBGBPDIM@?$AA?$CF?$AAs?$AA?3?$AA?5?$AA?$CL?$AAC?$AAH?$AAc?$AAd?$AA?3?$AA?3?$AAD?$AAi?$AAs?$AAa?$AAb?$AAl?$AAe?$AAD?$AAe?$AAv?$AAi?$AAc?$AAe?$AA?5?$AA?9?$AA?5?$AAa?$AAd?$AAd?$AAr?$AAe@| [ DATA ] ; `string'

  00048			 AREA	 |.pdata|, PDATA
|$T36433| DCD	|$LN12@DisableDev|
	DCD	0x40005204

  00000			 AREA	 |.rdata|, DATA, READONLY
|??_C@_1HI@MMNOEECB@?$AA?$CF?$AAs?$AA?3?$AA?5?$AA?9?$AAC?$AAH?$AAc?$AAd?$AA?3?$AA?3?$AAD?$AAi?$AAs?$AAa?$AAb?$AAl?$AAe?$AAD?$AAe?$AAv?$AAi?$AAc?$AAe?$AA?5?$AA?9?$AA?5?$AAa?$AAd?$AAd?$AAr?$AAe@| DCB "%"
	DCB	0x0, "s", 0x0, ":", 0x0, " ", 0x0, "-", 0x0, "C", 0x0, "H"
	DCB	0x0, "c", 0x0, "d", 0x0, ":", 0x0, ":", 0x0, "D", 0x0, "i"
	DCB	0x0, "s", 0x0, "a", 0x0, "b", 0x0, "l", 0x0, "e", 0x0, "D"
	DCB	0x0, "e", 0x0, "v", 0x0, "i", 0x0, "c", 0x0, "e", 0x0, " "
	DCB	0x0, "-", 0x0, " ", 0x0, "a", 0x0, "d", 0x0, "d", 0x0, "r"
	DCB	0x0, "e", 0x0, "s", 0x0, "s", 0x0, " ", 0x0, "=", 0x0, " "
	DCB	0x0, "%", 0x0, "d", 0x0, ",", 0x0, " ", 0x0, "r", 0x0, "e"
	DCB	0x0, "t", 0x0, "u", 0x0, "r", 0x0, "n", 0x0, "i", 0x0, "n"
	DCB	0x0, "g", 0x0, " ", 0x0, "B", 0x0, "O", 0x0, "O", 0x0, "L"
	DCB	0x0, " ", 0x0, "%", 0x0, "d", 0x0, 0xa, 0x0, 0x0, 0x0 ; `string'

  00000			 AREA	 |.rdata|, DATA, READONLY
|??_C@_1GK@DBGBPDIM@?$AA?$CF?$AAs?$AA?3?$AA?5?$AA?$CL?$AAC?$AAH?$AAc?$AAd?$AA?3?$AA?3?$AAD?$AAi?$AAs?$AAa?$AAb?$AAl?$AAe?$AAD?$AAe?$AAv?$AAi?$AAc?$AAe?$AA?5?$AA?9?$AA?5?$AAa?$AAd?$AAd?$AAr?$AAe@| DCB "%"
	DCB	0x0, "s", 0x0, ":", 0x0, " ", 0x0, "+", 0x0, "C", 0x0, "H"
	DCB	0x0, "c", 0x0, "d", 0x0, ":", 0x0, ":", 0x0, "D", 0x0, "i"
	DCB	0x0, "s", 0x0, "a", 0x0, "b", 0x0, "l", 0x0, "e", 0x0, "D"
	DCB	0x0, "e", 0x0, "v", 0x0, "i", 0x0, "c", 0x0, "e", 0x0, " "
	DCB	0x0, "-", 0x0, " ", 0x0, "a", 0x0, "d", 0x0, "d", 0x0, "r"
	DCB	0x0, "e", 0x0, "s", 0x0, "s", 0x0, " ", 0x0, "=", 0x0, " "
	DCB	0x0, "%", 0x0, "d", 0x0, ",", 0x0, "f", 0x0, "R", 0x0, "e"
	DCB	0x0, "s", 0x0, "e", 0x0, "t", 0x0, " ", 0x0, "=", 0x0, " "
	DCB	0x0, "%", 0x0, "d", 0x0, 0xa, 0x0, 0x0, 0x0 ; `string'
; Function compile flags: /Odtp

  00c94			 AREA	 |.text|, CODE, ARM

  00c94		 |?DisableDevice@CHcd@@UAAHIH@Z| PROC	; CHcd::DisableDevice

; 411  : {

  00c94		 |$LN12@DisableDev|
  00c94	e1a0c00d	 mov         r12, sp
  00c98	e92d0007	 stmdb       sp!, {r0 - r2}
  00c9c	e92d5000	 stmdb       sp!, {r12, lr}
  00ca0	e24dd024	 sub         sp, sp, #0x24
  00ca4		 |$M36430|

; 412  :     DEBUGMSG( ZONE_HCD, (TEXT("%s: +CHcd::DisableDevice - address = %d,fReset = %d\n"),GetControllerName(), address, fReset) );

  00ca4	e59f3128	 ldr         r3, [pc, #0x128]
  00ca8	e5933440	 ldr         r3, [r3, #0x440]
  00cac	e3130001	 tst         r3, #1
  00cb0	0a00000a	 beq         |$LN4@DisableDev|
  00cb4	e59d002c	 ldr         r0, [sp, #0x2C]
  00cb8	eb000000	 bl          |?GetControllerName@CDeviceGlobal@@QBAPBGXZ|
  00cbc	e58d000c	 str         r0, [sp, #0xC]
  00cc0	e59d3034	 ldr         r3, [sp, #0x34]
  00cc4	e59d2030	 ldr         r2, [sp, #0x30]
  00cc8	e59d100c	 ldr         r1, [sp, #0xC]
  00ccc	e59f0104	 ldr         r0, [pc, #0x104]
  00cd0	eb000000	 bl          NKDbgPrintfW
  00cd4	e3a03001	 mov         r3, #1
  00cd8	e58d3010	 str         r3, [sp, #0x10]
  00cdc	ea000001	 b           |$LN5@DisableDev|
  00ce0		 |$LN4@DisableDev|
  00ce0	e3a03000	 mov         r3, #0
  00ce4	e58d3010	 str         r3, [sp, #0x10]
  00ce8		 |$LN5@DisableDev|

; 413  :     BOOL fSuccess = FALSE;

  00ce8	e3a03000	 mov         r3, #0
  00cec	e58d3000	 str         r3, [sp]

; 414  : 
; 415  :     Lock();

  00cf0	e59d302c	 ldr         r3, [sp, #0x2C]
  00cf4	e2830090	 add         r0, r3, #0x90
  00cf8	eb000000	 bl          |?Lock@LockObject@@QAAXXZ|

; 416  :     CRootHub *pRoot = m_pCRootHub;

  00cfc	e59d302c	 ldr         r3, [sp, #0x2C]
  00d00	e28330b0	 add         r3, r3, #0xB0
  00d04	e5933000	 ldr         r3, [r3]
  00d08	e58d3004	 str         r3, [sp, #4]

; 417  : 
; 418  :     if (pRoot != NULL)

  00d0c	e59d3004	 ldr         r3, [sp, #4]
  00d10	e3530000	 cmp         r3, #0
  00d14	0a000013	 beq         |$LN1@DisableDev|

; 419  :         fSuccess = (requestOK == pRoot->DisableDevice( address, fReset ) );

  00d18	e59d2034	 ldr         r2, [sp, #0x34]
  00d1c	e59d1030	 ldr         r1, [sp, #0x30]
  00d20	e59d3004	 ldr         r3, [sp, #4]
  00d24	e5933000	 ldr         r3, [r3]
  00d28	e2833020	 add         r3, r3, #0x20
  00d2c	e59d0004	 ldr         r0, [sp, #4]
  00d30	e5933000	 ldr         r3, [r3]
  00d34	e1a0e00f	 mov         lr, pc
  00d38	e12fff13	 bx          r3
  00d3c	e58d0014	 str         r0, [sp, #0x14]
  00d40	e59d3014	 ldr         r3, [sp, #0x14]
  00d44	e3530001	 cmp         r3, #1
  00d48	1a000002	 bne         |$LN6@DisableDev|
  00d4c	e3a03001	 mov         r3, #1
  00d50	e58d3018	 str         r3, [sp, #0x18]
  00d54	ea000001	 b           |$LN7@DisableDev|
  00d58		 |$LN6@DisableDev|
  00d58	e3a03000	 mov         r3, #0
  00d5c	e58d3018	 str         r3, [sp, #0x18]
  00d60		 |$LN7@DisableDev|
  00d60	e59d3018	 ldr         r3, [sp, #0x18]
  00d64	e58d3000	 str         r3, [sp]
  00d68		 |$LN1@DisableDev|

; 420  :     Unlock();

  00d68	e59d302c	 ldr         r3, [sp, #0x2C]
  00d6c	e2830090	 add         r0, r3, #0x90
  00d70	eb000000	 bl          |?Unlock@LockObject@@QAAXXZ|

; 421  :     DEBUGMSG( ZONE_HCD, (TEXT("%s: -CHcd::DisableDevice - address = %d, returning BOOL %d\n"),GetControllerName(), address, fSuccess) );

  00d74	e59f3058	 ldr         r3, [pc, #0x58]
  00d78	e5933440	 ldr         r3, [r3, #0x440]
  00d7c	e3130001	 tst         r3, #1
  00d80	0a00000a	 beq         |$LN8@DisableDev|
  00d84	e59d002c	 ldr         r0, [sp, #0x2C]
  00d88	eb000000	 bl          |?GetControllerName@CDeviceGlobal@@QBAPBGXZ|
  00d8c	e58d001c	 str         r0, [sp, #0x1C]
  00d90	e59d3000	 ldr         r3, [sp]
  00d94	e59d2030	 ldr         r2, [sp, #0x30]
  00d98	e59d101c	 ldr         r1, [sp, #0x1C]
  00d9c	e59f002c	 ldr         r0, [pc, #0x2C]
  00da0	eb000000	 bl          NKDbgPrintfW
  00da4	e3a03001	 mov         r3, #1
  00da8	e58d3020	 str         r3, [sp, #0x20]
  00dac	ea000001	 b           |$LN9@DisableDev|
  00db0		 |$LN8@DisableDev|
  00db0	e3a03000	 mov         r3, #0
  00db4	e58d3020	 str         r3, [sp, #0x20]
  00db8		 |$LN9@DisableDev|

; 422  :     return fSuccess;

  00db8	e59d3000	 ldr         r3, [sp]
  00dbc	e58d3008	 str         r3, [sp, #8]

; 423  :     
; 424  : };

  00dc0	e59d0008	 ldr         r0, [sp, #8]
  00dc4	e28dd024	 add         sp, sp, #0x24
  00dc8	e89d6000	 ldmia       sp, {sp, lr}
  00dcc	e12fff1e	 bx          lr
  00dd0		 |$LN13@DisableDev|
  00dd0		 |$LN14@DisableDev|
  00dd0	00000000	 DCD         |??_C@_1HI@MMNOEECB@?$AA?$CF?$AAs?$AA?3?$AA?5?$AA?9?$AAC?$AAH?$AAc?$AAd?$AA?3?$AA?3?$AAD?$AAi?$AAs?$AAa?$AAb?$AAl?$AAe?$AAD?$AAe?$AAv?$AAi?$AAc?$AAe?$AA?5?$AA?9?$AA?5?$AAa?$AAd?$AAd?$AAr?$AAe@|
  00dd4		 |$LN15@DisableDev|
  00dd4	00000000	 DCD         |dpCurSettings|
  00dd8		 |$LN16@DisableDev|
  00dd8	00000000	 DCD         |??_C@_1GK@DBGBPDIM@?$AA?$CF?$AAs?$AA?3?$AA?5?$AA?$CL?$AAC?$AAH?$AAc?$AAd?$AA?3?$AA?3?$AAD?$AAi?$AAs?$AAa?$AAb?$AAl?$AAe?$AAD?$AAe?$AAv?$AAi?$AAc?$AAe?$AA?5?$AA?9?$AA?5?$AAa?$AAd?$AAd?$AAr?$AAe@|
  00ddc		 |$M36431|

			 ENDP  ; |?DisableDevice@CHcd@@UAAHIH@Z|, CHcd::DisableDevice

	EXPORT	|??_C@_1JE@MLDOOIHL@?$AA?$CF?$AAs?$AA?3?$AA?5?$AA?9?$AAC?$AAH?$AAc?$AAd?$AA?3?$AA?3?$AAS?$AAu?$AAs?$AAp?$AAe?$AAn?$AAd?$AAR?$AAe?$AAs?$AAu?$AAm?$AAe?$AA?5?$AA?9?$AA?5?$AAa?$AAd?$AAd?$AAr?$AAe@| [ DATA ] ; `string'
	EXPORT	|??_C@_1HC@OKGIGAJA@?$AA?$CF?$AAs?$AA?3?$AA?5?$AA?$CL?$AAC?$AAH?$AAc?$AAd?$AA?3?$AA?3?$AAS?$AAu?$AAs?$AAp?$AAe?$AAn?$AAd?$AAR?$AAe?$AAs?$AAu?$AAm?$AAe?$AA?5?$AA?9?$AA?5?$AAa?$AAd?$AAd?$AAr?$AAe@| [ DATA ] ; `string'

  00050			 AREA	 |.pdata|, PDATA
|$T36450| DCD	|$LN12@SuspendRes|
	DCD	0x40005404

  00000			 AREA	 |.rdata|, DATA, READONLY
|??_C@_1JE@MLDOOIHL@?$AA?$CF?$AAs?$AA?3?$AA?5?$AA?9?$AAC?$AAH?$AAc?$AAd?$AA?3?$AA?3?$AAS?$AAu?$AAs?$AAp?$AAe?$AAn?$AAd?$AAR?$AAe?$AAs?$AAu?$AAm?$AAe?$AA?5?$AA?9?$AA?5?$AAa?$AAd?$AAd?$AAr?$AAe@| DCB "%"
	DCB	0x0, "s", 0x0, ":", 0x0, " ", 0x0, "-", 0x0, "C", 0x0, "H"
	DCB	0x0, "c", 0x0, "d", 0x0, ":", 0x0, ":", 0x0, "S", 0x0, "u"
	DCB	0x0, "s", 0x0, "p", 0x0, "e", 0x0, "n", 0x0, "d", 0x0, "R"
	DCB	0x0, "e", 0x0, "s", 0x0, "u", 0x0, "m", 0x0, "e", 0x0, " "
	DCB	0x0, "-", 0x0, " ", 0x0, "a", 0x0, "d", 0x0, "d", 0x0, "r"
	DCB	0x0, "e", 0x0, "s", 0x0, "s", 0x0, " ", 0x0, "=", 0x0, " "
	DCB	0x0, "%", 0x0, "d", 0x0, ",", 0x0, "f", 0x0, "S", 0x0, "u"
	DCB	0x0, "s", 0x0, "p", 0x0, "e", 0x0, "n", 0x0, "d", 0x0, " "
	DCB	0x0, "=", 0x0, " ", 0x0, "%", 0x0, "d", 0x0, ",", 0x0, " "
	DCB	0x0, "r", 0x0, "e", 0x0, "t", 0x0, "u", 0x0, "r", 0x0, "n"
	DCB	0x0, "i", 0x0, "n", 0x0, "g", 0x0, " ", 0x0, "B", 0x0, "O"
	DCB	0x0, "O", 0x0, "L", 0x0, " ", 0x0, "%", 0x0, "d", 0x0, 0xa
	DCB	0x0, 0x0, 0x0				; `string'

  00000			 AREA	 |.rdata|, DATA, READONLY
|??_C@_1HC@OKGIGAJA@?$AA?$CF?$AAs?$AA?3?$AA?5?$AA?$CL?$AAC?$AAH?$AAc?$AAd?$AA?3?$AA?3?$AAS?$AAu?$AAs?$AAp?$AAe?$AAn?$AAd?$AAR?$AAe?$AAs?$AAu?$AAm?$AAe?$AA?5?$AA?9?$AA?5?$AAa?$AAd?$AAd?$AAr?$AAe@| DCB "%"
	DCB	0x0, "s", 0x0, ":", 0x0, " ", 0x0, "+", 0x0, "C", 0x0, "H"
	DCB	0x0, "c", 0x0, "d", 0x0, ":", 0x0, ":", 0x0, "S", 0x0, "u"
	DCB	0x0, "s", 0x0, "p", 0x0, "e", 0x0, "n", 0x0, "d", 0x0, "R"
	DCB	0x0, "e", 0x0, "s", 0x0, "u", 0x0, "m", 0x0, "e", 0x0, " "
	DCB	0x0, "-", 0x0, " ", 0x0, "a", 0x0, "d", 0x0, "d", 0x0, "r"
	DCB	0x0, "e", 0x0, "s", 0x0, "s", 0x0, " ", 0x0, "=", 0x0, " "
	DCB	0x0, "%", 0x0, "d", 0x0, ",", 0x0, " ", 0x0, " ", 0x0, "f"
	DCB	0x0, "S", 0x0, "u", 0x0, "s", 0x0, "p", 0x0, "e", 0x0, "n"
	DCB	0x0, "d", 0x0, " ", 0x0, "=", 0x0, " ", 0x0, "%", 0x0, "d"
	DCB	0x0, 0xa, 0x0, 0x0, 0x0			; `string'
; Function compile flags: /Odtp

  00ddc			 AREA	 |.text|, CODE, ARM

  00ddc		 |?SuspendResume@CHcd@@UAAHIH@Z| PROC	; CHcd::SuspendResume

; 439  : {

  00ddc		 |$LN12@SuspendRes|
  00ddc	e1a0c00d	 mov         r12, sp
  00de0	e92d0007	 stmdb       sp!, {r0 - r2}
  00de4	e92d5000	 stmdb       sp!, {r12, lr}
  00de8	e24dd02c	 sub         sp, sp, #0x2C
  00dec		 |$M36447|

; 440  :     DEBUGMSG( ZONE_HCD, (TEXT("%s: +CHcd::SuspendResume - address = %d,  fSuspend = %d\n"),GetControllerName(), address,  fSuspend) );

  00dec	e59f3130	 ldr         r3, [pc, #0x130]
  00df0	e5933440	 ldr         r3, [r3, #0x440]
  00df4	e3130001	 tst         r3, #1
  00df8	0a00000a	 beq         |$LN4@SuspendRes|
  00dfc	e59d0034	 ldr         r0, [sp, #0x34]
  00e00	eb000000	 bl          |?GetControllerName@CDeviceGlobal@@QBAPBGXZ|
  00e04	e58d0014	 str         r0, [sp, #0x14]
  00e08	e59d303c	 ldr         r3, [sp, #0x3C]
  00e0c	e59d2038	 ldr         r2, [sp, #0x38]
  00e10	e59d1014	 ldr         r1, [sp, #0x14]
  00e14	e59f010c	 ldr         r0, [pc, #0x10C]
  00e18	eb000000	 bl          NKDbgPrintfW
  00e1c	e3a03001	 mov         r3, #1
  00e20	e58d3018	 str         r3, [sp, #0x18]
  00e24	ea000001	 b           |$LN5@SuspendRes|
  00e28		 |$LN4@SuspendRes|
  00e28	e3a03000	 mov         r3, #0
  00e2c	e58d3018	 str         r3, [sp, #0x18]
  00e30		 |$LN5@SuspendRes|

; 441  :     BOOL fSuccess = FALSE;

  00e30	e3a03000	 mov         r3, #0
  00e34	e58d3004	 str         r3, [sp, #4]

; 442  : 
; 443  :     Lock();

  00e38	e59d3034	 ldr         r3, [sp, #0x34]
  00e3c	e2830090	 add         r0, r3, #0x90
  00e40	eb000000	 bl          |?Lock@LockObject@@QAAXXZ|

; 444  :     CRootHub *pRoot = m_pCRootHub;

  00e44	e59d3034	 ldr         r3, [sp, #0x34]
  00e48	e28330b0	 add         r3, r3, #0xB0
  00e4c	e5933000	 ldr         r3, [r3]
  00e50	e58d3008	 str         r3, [sp, #8]

; 445  : 
; 446  :     if (pRoot != NULL)

  00e54	e59d3008	 ldr         r3, [sp, #8]
  00e58	e3530000	 cmp         r3, #0
  00e5c	0a000013	 beq         |$LN1@SuspendRes|

; 447  :         fSuccess = (requestOK == pRoot->SuspendResume( address,  fSuspend ) );

  00e60	e59d203c	 ldr         r2, [sp, #0x3C]
  00e64	e59d1038	 ldr         r1, [sp, #0x38]
  00e68	e59d3008	 ldr         r3, [sp, #8]
  00e6c	e5933000	 ldr         r3, [r3]
  00e70	e2833024	 add         r3, r3, #0x24
  00e74	e59d0008	 ldr         r0, [sp, #8]
  00e78	e5933000	 ldr         r3, [r3]
  00e7c	e1a0e00f	 mov         lr, pc
  00e80	e12fff13	 bx          r3
  00e84	e58d001c	 str         r0, [sp, #0x1C]
  00e88	e59d301c	 ldr         r3, [sp, #0x1C]
  00e8c	e3530001	 cmp         r3, #1
  00e90	1a000002	 bne         |$LN6@SuspendRes|
  00e94	e3a03001	 mov         r3, #1
  00e98	e58d3020	 str         r3, [sp, #0x20]
  00e9c	ea000001	 b           |$LN7@SuspendRes|
  00ea0		 |$LN6@SuspendRes|
  00ea0	e3a03000	 mov         r3, #0
  00ea4	e58d3020	 str         r3, [sp, #0x20]
  00ea8		 |$LN7@SuspendRes|
  00ea8	e59d3020	 ldr         r3, [sp, #0x20]
  00eac	e58d3004	 str         r3, [sp, #4]
  00eb0		 |$LN1@SuspendRes|

; 448  : 
; 449  :     Unlock();

  00eb0	e59d3034	 ldr         r3, [sp, #0x34]
  00eb4	e2830090	 add         r0, r3, #0x90
  00eb8	eb000000	 bl          |?Unlock@LockObject@@QAAXXZ|

; 450  :     DEBUGMSG( ZONE_HCD, (TEXT("%s: -CHcd::SuspendResume - address = %d,fSuspend = %d, returning BOOL %d\n"),GetControllerName(), address,  fSuspend, fSuccess) );

  00ebc	e59f3060	 ldr         r3, [pc, #0x60]
  00ec0	e5933440	 ldr         r3, [r3, #0x440]
  00ec4	e3130001	 tst         r3, #1
  00ec8	0a00000c	 beq         |$LN8@SuspendRes|
  00ecc	e59d0034	 ldr         r0, [sp, #0x34]
  00ed0	eb000000	 bl          |?GetControllerName@CDeviceGlobal@@QBAPBGXZ|
  00ed4	e58d0024	 str         r0, [sp, #0x24]
  00ed8	e59d3004	 ldr         r3, [sp, #4]
  00edc	e58d3000	 str         r3, [sp]
  00ee0	e59d303c	 ldr         r3, [sp, #0x3C]
  00ee4	e59d2038	 ldr         r2, [sp, #0x38]
  00ee8	e59d1024	 ldr         r1, [sp, #0x24]
  00eec	e59f002c	 ldr         r0, [pc, #0x2C]
  00ef0	eb000000	 bl          NKDbgPrintfW
  00ef4	e3a03001	 mov         r3, #1
  00ef8	e58d3028	 str         r3, [sp, #0x28]
  00efc	ea000001	 b           |$LN9@SuspendRes|
  00f00		 |$LN8@SuspendRes|
  00f00	e3a03000	 mov         r3, #0
  00f04	e58d3028	 str         r3, [sp, #0x28]
  00f08		 |$LN9@SuspendRes|

; 451  :     return fSuccess;

  00f08	e59d3004	 ldr         r3, [sp, #4]
  00f0c	e58d3010	 str         r3, [sp, #0x10]

; 452  : 
; 453  : };

  00f10	e59d0010	 ldr         r0, [sp, #0x10]
  00f14	e28dd02c	 add         sp, sp, #0x2C
  00f18	e89d6000	 ldmia       sp, {sp, lr}
  00f1c	e12fff1e	 bx          lr
  00f20		 |$LN13@SuspendRes|
  00f20		 |$LN14@SuspendRes|
  00f20	00000000	 DCD         |??_C@_1JE@MLDOOIHL@?$AA?$CF?$AAs?$AA?3?$AA?5?$AA?9?$AAC?$AAH?$AAc?$AAd?$AA?3?$AA?3?$AAS?$AAu?$AAs?$AAp?$AAe?$AAn?$AAd?$AAR?$AAe?$AAs?$AAu?$AAm?$AAe?$AA?5?$AA?9?$AA?5?$AAa?$AAd?$AAd?$AAr?$AAe@|
  00f24		 |$LN15@SuspendRes|
  00f24	00000000	 DCD         |dpCurSettings|
  00f28		 |$LN16@SuspendRes|
  00f28	00000000	 DCD         |??_C@_1HC@OKGIGAJA@?$AA?$CF?$AAs?$AA?3?$AA?5?$AA?$CL?$AAC?$AAH?$AAc?$AAd?$AA?3?$AA?3?$AAS?$AAu?$AAs?$AAp?$AAe?$AAn?$AAd?$AAR?$AAe?$AAs?$AAu?$AAm?$AAe?$AA?5?$AA?9?$AA?5?$AAa?$AAd?$AAd?$AAr?$AAe@|
  00f2c		 |$M36448|

			 ENDP  ; |?SuspendResume@CHcd@@UAAHIH@Z|, CHcd::SuspendResume

	EXPORT	|??_C@_1EA@CGLNBNDN@?$AAB?$AAu?$AAs?$AAC?$AAh?$AAi?$AAl?$AAd?$AAI?$AAo?$AAC?$AAo?$AAn?$AAt?$AAr?$AAo?$AAl?$AA?5?$AAn?$AAo?$AAt?$AA?5?$AAs?$AAu?$AAp?$AAp?$AAo?$AAr?$AAt?$AA?$AN?$AA?6?$AA?$AA@| [ DATA ] ; `string'
	EXPORT	|?BusChildIoControl@CHcd@@QAAHKPAXK@Z|	; CHcd::BusChildIoControl
	IMPORT	|BusChildIoControl|

  00058			 AREA	 |.pdata|, PDATA
|$T36462| DCD	|$LN9@BusChildIo|
	DCD	0x40002504

  00000			 AREA	 |.rdata|, DATA, READONLY
|??_C@_1EA@CGLNBNDN@?$AAB?$AAu?$AAs?$AAC?$AAh?$AAi?$AAl?$AAd?$AAI?$AAo?$AAC?$AAo?$AAn?$AAt?$AAr?$AAo?$AAl?$AA?5?$AAn?$AAo?$AAt?$AA?5?$AAs?$AAu?$AAp?$AAp?$AAo?$AAr?$AAt?$AA?$AN?$AA?6?$AA?$AA@| DCB "B"
	DCB	0x0, "u", 0x0, "s", 0x0, "C", 0x0, "h", 0x0, "i", 0x0, "l"
	DCB	0x0, "d", 0x0, "I", 0x0, "o", 0x0, "C", 0x0, "o", 0x0, "n"
	DCB	0x0, "t", 0x0, "r", 0x0, "o", 0x0, "l", 0x0, " ", 0x0, "n"
	DCB	0x0, "o", 0x0, "t", 0x0, " ", 0x0, "s", 0x0, "u", 0x0, "p"
	DCB	0x0, "p", 0x0, "o", 0x0, "r", 0x0, "t", 0x0, 0xd, 0x0, 0xa
	DCB	0x0, 0x0, 0x0				; `string'
; Function compile flags: /Odtp

  00f2c			 AREA	 |.text|, CODE, ARM

  00f2c		 |?BusChildIoControl@CHcd@@QAAHKPAXK@Z| PROC ; CHcd::BusChildIoControl

; 456  : {

  00f2c		 |$LN9@BusChildIo|
  00f2c	e1a0c00d	 mov         r12, sp
  00f30	e92d000f	 stmdb       sp!, {r0 - r3}
  00f34	e92d5000	 stmdb       sp!, {r12, lr}
  00f38	e24dd00c	 sub         sp, sp, #0xC
  00f3c		 |$M36459|

; 457  :     if (m_hParentBusDriver) {

  00f3c	e59d3014	 ldr         r3, [sp, #0x14]
  00f40	e28330b8	 add         r3, r3, #0xB8
  00f44	e5933000	 ldr         r3, [r3]
  00f48	e3530000	 cmp         r3, #0
  00f4c	0a00000b	 beq         |$LN2@BusChildIo|

; 458  :         return ::BusChildIoControl(m_hParentBusDriver, dwIoControl,lpBuffer, nBufferSize );

  00f50	e59d3020	 ldr         r3, [sp, #0x20]
  00f54	e59d201c	 ldr         r2, [sp, #0x1C]
  00f58	e59d1018	 ldr         r1, [sp, #0x18]
  00f5c	e59d0014	 ldr         r0, [sp, #0x14]
  00f60	e28000b8	 add         r0, r0, #0xB8
  00f64	e5900000	 ldr         r0, [r0]
  00f68	eb000000	 bl          BusChildIoControl
  00f6c	e58d0004	 str         r0, [sp, #4]
  00f70	e59d3004	 ldr         r3, [sp, #4]
  00f74	e58d3000	 str         r3, [sp]
  00f78	ea00000b	 b           |$LN3@BusChildIo|

; 459  :     }
; 460  :     else {

  00f7c	ea00000a	 b           |$LN1@BusChildIo|
  00f80		 |$LN2@BusChildIo|

; 461  :         RETAILMSG(1, (TEXT("BusChildIoControl not support\r\n")));

  00f80	e59f0034	 ldr         r0, [pc, #0x34]
  00f84	eb000000	 bl          NKDbgPrintfW
  00f88	e3a03001	 mov         r3, #1
  00f8c	e58d3008	 str         r3, [sp, #8]
  00f90	ea000001	 b           |$LN6@BusChildIo|
  00f94	e3a03000	 mov         r3, #0
  00f98	e58d3008	 str         r3, [sp, #8]
  00f9c		 |$LN6@BusChildIo|

; 462  :         SetLastError(ERROR_INVALID_PARAMETER);

  00f9c	e3a00057	 mov         r0, #0x57
  00fa0	eb000000	 bl          SetLastError

; 463  :         return FALSE;

  00fa4	e3a03000	 mov         r3, #0
  00fa8	e58d3000	 str         r3, [sp]
  00fac		 |$LN1@BusChildIo|
  00fac		 |$LN3@BusChildIo|

; 464  :     }
; 465  : }

  00fac	e59d0000	 ldr         r0, [sp]
  00fb0	e28dd00c	 add         sp, sp, #0xC
  00fb4	e89d6000	 ldmia       sp, {sp, lr}
  00fb8	e12fff1e	 bx          lr
  00fbc		 |$LN10@BusChildIo|
  00fbc		 |$LN11@BusChildIo|
  00fbc	00000000	 DCD         |??_C@_1EA@CGLNBNDN@?$AAB?$AAu?$AAs?$AAC?$AAh?$AAi?$AAl?$AAd?$AAI?$AAo?$AAC?$AAo?$AAn?$AAt?$AAr?$AAo?$AAl?$AA?5?$AAn?$AAo?$AAt?$AA?5?$AAs?$AAu?$AAp?$AAp?$AAo?$AAr?$AAt?$AA?$AN?$AA?6?$AA?$AA@|
  00fc0		 |$M36460|

			 ENDP  ; |?BusChildIoControl@CHcd@@QAAHKPAXK@Z|, CHcd::BusChildIoControl

	EXPORT	|??_C@_1DG@FNHPLLCF@?$AAB?$AAu?$AAs?$AAI?$AAo?$AAC?$AAo?$AAn?$AAt?$AAr?$AAo?$AAl?$AA?5?$AAn?$AAo?$AAt?$AA?5?$AAs?$AAu?$AAp?$AAp?$AAo?$AAr?$AAt?$AA?$AN?$AA?6?$AA?$AA@| [ DATA ] ; `string'
	EXPORT	|?BusIoControl@CHcd@@QAAHKPAXK0KPAK@Z|	; CHcd::BusIoControl
	IMPORT	|BusIoControl|

  00060			 AREA	 |.pdata|, PDATA
|$T36476| DCD	|$LN9@BusIoContr|
	DCD	0x40002d04

  00000			 AREA	 |.rdata|, DATA, READONLY
|??_C@_1DG@FNHPLLCF@?$AAB?$AAu?$AAs?$AAI?$AAo?$AAC?$AAo?$AAn?$AAt?$AAr?$AAo?$AAl?$AA?5?$AAn?$AAo?$AAt?$AA?5?$AAs?$AAu?$AAp?$AAp?$AAo?$AAr?$AAt?$AA?$AN?$AA?6?$AA?$AA@| DCB "B"
	DCB	0x0, "u", 0x0, "s", 0x0, "I", 0x0, "o", 0x0, "C", 0x0, "o"
	DCB	0x0, "n", 0x0, "t", 0x0, "r", 0x0, "o", 0x0, "l", 0x0, " "
	DCB	0x0, "n", 0x0, "o", 0x0, "t", 0x0, " ", 0x0, "s", 0x0, "u"
	DCB	0x0, "p", 0x0, "p", 0x0, "o", 0x0, "r", 0x0, "t", 0x0, 0xd
	DCB	0x0, 0xa, 0x0, 0x0, 0x0			; `string'
; Function compile flags: /Odtp

  00fc0			 AREA	 |.text|, CODE, ARM

  00fc0		 |?BusIoControl@CHcd@@QAAHKPAXK0KPAK@Z| PROC ; CHcd::BusIoControl

; 467  : {

  00fc0		 |$LN9@BusIoContr|
  00fc0	e1a0c00d	 mov         r12, sp
  00fc4	e92d000f	 stmdb       sp!, {r0 - r3}
  00fc8	e92d5000	 stmdb       sp!, {r12, lr}
  00fcc	e24dd02c	 sub         sp, sp, #0x2C
  00fd0		 |$M36473|

; 468  :     if (m_hParentBusDriver) {

  00fd0	e59d3034	 ldr         r3, [sp, #0x34]
  00fd4	e28330b8	 add         r3, r3, #0xB8
  00fd8	e5933000	 ldr         r3, [r3]
  00fdc	e3530000	 cmp         r3, #0
  00fe0	0a000013	 beq         |$LN2@BusIoContr|

; 469  :         return ::BusIoControl(m_hParentBusDriver, dwIoControl,lpInBuffer, nInBufferSize,lpOutBuffer,nOutBufferSize,lpdReturnByte,NULL );

  00fe4	e3a03000	 mov         r3, #0
  00fe8	e58d300c	 str         r3, [sp, #0xC]
  00fec	e59d304c	 ldr         r3, [sp, #0x4C]
  00ff0	e58d3008	 str         r3, [sp, #8]
  00ff4	e59d3048	 ldr         r3, [sp, #0x48]
  00ff8	e58d3004	 str         r3, [sp, #4]
  00ffc	e59d3044	 ldr         r3, [sp, #0x44]
  01000	e58d3000	 str         r3, [sp]
  01004	e59d3040	 ldr         r3, [sp, #0x40]
  01008	e59d203c	 ldr         r2, [sp, #0x3C]
  0100c	e59d1038	 ldr         r1, [sp, #0x38]
  01010	e59d0034	 ldr         r0, [sp, #0x34]
  01014	e28000b8	 add         r0, r0, #0xB8
  01018	e5900000	 ldr         r0, [r0]
  0101c	eb000000	 bl          BusIoControl
  01020	e58d0024	 str         r0, [sp, #0x24]
  01024	e59d3024	 ldr         r3, [sp, #0x24]
  01028	e58d3020	 str         r3, [sp, #0x20]
  0102c	ea00000b	 b           |$LN3@BusIoContr|

; 470  :     }
; 471  :     else {

  01030	ea00000a	 b           |$LN1@BusIoContr|
  01034		 |$LN2@BusIoContr|

; 472  :         RETAILMSG(1, (TEXT("BusIoControl not support\r\n")));

  01034	e59f0034	 ldr         r0, [pc, #0x34]
  01038	eb000000	 bl          NKDbgPrintfW
  0103c	e3a03001	 mov         r3, #1
  01040	e58d3028	 str         r3, [sp, #0x28]
  01044	ea000001	 b           |$LN6@BusIoContr|
  01048	e3a03000	 mov         r3, #0
  0104c	e58d3028	 str         r3, [sp, #0x28]
  01050		 |$LN6@BusIoContr|

; 473  :         SetLastError(ERROR_INVALID_PARAMETER);

  01050	e3a00057	 mov         r0, #0x57
  01054	eb000000	 bl          SetLastError

; 474  :         return FALSE;

  01058	e3a03000	 mov         r3, #0
  0105c	e58d3020	 str         r3, [sp, #0x20]
  01060		 |$LN1@BusIoContr|
  01060		 |$LN3@BusIoContr|

; 475  :     }
; 476  : }

  01060	e59d0020	 ldr         r0, [sp, #0x20]
  01064	e28dd02c	 add         sp, sp, #0x2C
  01068	e89d6000	 ldmia       sp, {sp, lr}
  0106c	e12fff1e	 bx          lr
  01070		 |$LN10@BusIoContr|
  01070		 |$LN11@BusIoContr|
  01070	00000000	 DCD         |??_C@_1DG@FNHPLLCF@?$AAB?$AAu?$AAs?$AAI?$AAo?$AAC?$AAo?$AAn?$AAt?$AAr?$AAo?$AAl?$AA?5?$AAn?$AAo?$AAt?$AA?5?$AAs?$AAu?$AAp?$AAp?$AAo?$AAr?$AAt?$AA?$AN?$AA?6?$AA?$AA@|
  01074		 |$M36474|

			 ENDP  ; |?BusIoControl@CHcd@@QAAHKPAXK0KPAK@Z|, CHcd::BusIoControl

	END
