; Listing generated by Microsoft (R) Optimizing Compiler Version 14.01.60511.01 

	TTL	C:\WINCE600\PLATFORM\COMMON\SRC\SOC\COMMON_TI_V1\TPS659XX\MADC\madc.cpp
	CODE32

  00000			 AREA	 |.drectve|, DRECTVE
	DCB	"-defaultlib:LIBCMT "
	DCB	"-defaultlib:OLDNAMES "

	EXPORT	|DEVICE_IFC_MADC_GUID| [ DATA ]
	EXPORT	|DEVICE_IFC_TWL_GUID| [ DATA ]
	EXPORT	|dpCurSettings| [ DATA ]

  00000			 AREA	 |.data|, DATA
|dpCurSettings| DCB "M", 0x0, "A", 0x0, "D", 0x0, "C", 0x0, 0x0, 0x0
	%	54
	DCB	"E", 0x0, "r", 0x0, "r", 0x0, "o", 0x0, "r", 0x0, "s", 0x0
	DCB	0x0, 0x0
	%	50
	DCB	"W", 0x0, "a", 0x0, "r", 0x0, "n", 0x0, "i", 0x0, "n", 0x0
	DCB	"g", 0x0, "s", 0x0, 0x0, 0x0
	%	46
	DCB	"F", 0x0, "u", 0x0, "n", 0x0, "c", 0x0, "t", 0x0, "i", 0x0
	DCB	"o", 0x0, "n", 0x0, 0x0, 0x0
	%	46
	DCB	"I", 0x0, "n", 0x0, "f", 0x0, "o", 0x0, 0x0, 0x0
	%	54
	DCB	"I", 0x0, "S", 0x0, "T", 0x0, 0x0, 0x0
	%	56
	DCB	"U", 0x0, "n", 0x0, "d", 0x0, "e", 0x0, "f", 0x0, "i", 0x0
	DCB	"n", 0x0, "e", 0x0, "d", 0x0, 0x0, 0x0
	%	44
	DCB	"U", 0x0, "n", 0x0, "d", 0x0, "e", 0x0, "f", 0x0, "i", 0x0
	DCB	"n", 0x0, "e", 0x0, "d", 0x0, 0x0, 0x0
	%	44
	DCB	"U", 0x0, "n", 0x0, "d", 0x0, "e", 0x0, "f", 0x0, "i", 0x0
	DCB	"n", 0x0, "e", 0x0, "d", 0x0, 0x0, 0x0
	%	44
	DCB	"U", 0x0, "n", 0x0, "d", 0x0, "e", 0x0, "f", 0x0, "i", 0x0
	DCB	"n", 0x0, "e", 0x0, "d", 0x0, 0x0, 0x0
	%	44
	DCB	"U", 0x0, "n", 0x0, "d", 0x0, "e", 0x0, "f", 0x0, "i", 0x0
	DCB	"n", 0x0, "e", 0x0, "d", 0x0, 0x0, 0x0
	%	44
	DCB	"U", 0x0, "n", 0x0, "d", 0x0, "e", 0x0, "f", 0x0, "i", 0x0
	DCB	"n", 0x0, "e", 0x0, "d", 0x0, 0x0, 0x0
	%	44
	DCB	"U", 0x0, "n", 0x0, "d", 0x0, "e", 0x0, "f", 0x0, "i", 0x0
	DCB	"n", 0x0, "e", 0x0, "d", 0x0, 0x0, 0x0
	%	44
	DCB	"U", 0x0, "n", 0x0, "d", 0x0, "e", 0x0, "f", 0x0, "i", 0x0
	DCB	"n", 0x0, "e", 0x0, "d", 0x0, 0x0, 0x0
	%	44
	DCB	"U", 0x0, "n", 0x0, "d", 0x0, "e", 0x0, "f", 0x0, "i", 0x0
	DCB	"n", 0x0, "e", 0x0, "d", 0x0, 0x0, 0x0
	%	44
	DCB	"U", 0x0, "n", 0x0, "d", 0x0, "e", 0x0, "f", 0x0, "i", 0x0
	DCB	"n", 0x0, "e", 0x0, "d", 0x0, 0x0, 0x0
	%	44
	DCB	"U", 0x0, "n", 0x0, "d", 0x0, "e", 0x0, "f", 0x0, "i", 0x0
	DCB	"n", 0x0, "e", 0x0, "d", 0x0, 0x0, 0x0
	%	44
	DCD	0x3

  00000			 AREA	 |.rdata|, DATA, READONLY
|DEVICE_IFC_MADC_GUID| DCD 0xe61ca799
	DCW	0x8ef5
	DCW	0x41e3
	DCB	0x82
	DCB	0x37
	DCB	0x2b
	DCB	0xd8
	DCB	0x87
	DCB	0x9b
	DCB	0xa4
	DCB	0xaf
|DEVICE_IFC_TWL_GUID| DCD 0xdef0a04b
	DCW	0xb967
	DCW	0x43db
	DCB	0x95
	DCB	0x9e
	DCB	0xd9
	DCB	0xfc
	DCB	0x62
	DCB	0x25
	DCB	0xcd
	DCB	0xeb
|s_ConversionValue| DCD 0xc03
	DCD	0xc03
	DCD	0x1405
	DCD	0x1405
	DCD	0x1405
	DCD	0x1405
	DCD	0x1405
	DCD	0x1405
	DCD	0x380e
	DCD	0x2409
	DCD	0xc03
	DCD	0x3c0f
	DCD	0x300c
	DCD	0xc03
	DCD	0xc03
	DCD	0x1a6d
|s_ConversionLookup| DCD 0x0
	DCD	0x1
	DCD	0x2
	DCD	0x3
	DCD	0x4
	DCD	0x5
	DCD	0x6
	DCD	0x7
	DCD	0x8
	DCD	0x9
	DCD	0xa
	DCD	0xb
	DCD	0xc
	DCD	0xd
	DCD	0xe
	DCD	0xf
	DCD	0x1
	DCD	0x8
	DCD	0xa
	DCD	0xb
	DCD	0xc
	EXPORT	|??_C@_1HO@MOBGIGFN@?$AAA?$AAD?$AAC?$AA?3?$AA?5?$AA?9?$AAC?$AAo?$AAn?$AAv?$AAe?$AAr?$AAt?$AAT?$AAo?$AAV?$AAo?$AAl?$AAt?$AAs?$AA?$CI?$AA0?$AAx?$AA?$CF?$AA0?$AA8?$AAx?$AA?0?$AA?5?$AA0?$AAx?$AA?$CF@| [ DATA ] ; `string'
	EXPORT	|??_C@_1GO@JHMFEDLF@?$AAA?$AAD?$AAC?$AA?3?$AA?5?$AA?$CB?$AAE?$AAR?$AAR?$AAO?$AAR?$AA?5?$AA?9?$AA?5?$AAR?$AAe?$AAa?$AAd?$AAV?$AAa?$AAl?$AAu?$AAe?$AA?3?$AA?5?$AAI?$AAn?$AAc?$AAo?$AAr?$AAr?$AAe@| [ DATA ] ; `string'
	EXPORT	|??_C@_1HO@MLEHNACN@?$AAA?$AAD?$AAC?$AA?3?$AA?5?$AA?$CL?$AAC?$AAo?$AAn?$AAv?$AAe?$AAr?$AAt?$AAT?$AAo?$AAV?$AAo?$AAl?$AAt?$AAs?$AA?$CI?$AA0?$AAx?$AA?$CF?$AA0?$AA8?$AAx?$AA?0?$AA?5?$AA0?$AAx?$AA?$CF@| [ DATA ] ; `string'
	EXPORT	|?ConvertToVolts@@YAKKKPAK0K@Z|		; ConvertToVolts
	IMPORT	|NKDbgPrintfW|

  00000			 AREA	 |.pdata|, PDATA
|$T36360| DCD	|$LN17@ConvertToV|
	DCD	0x4000a404
; File c:\wince600\platform\common\src\soc\common_ti_v1\tps659xx\madc\madc.cpp

  00000			 AREA	 |.rdata|, DATA, READONLY
|??_C@_1HO@MOBGIGFN@?$AAA?$AAD?$AAC?$AA?3?$AA?5?$AA?9?$AAC?$AAo?$AAn?$AAv?$AAe?$AAr?$AAt?$AAT?$AAo?$AAV?$AAo?$AAl?$AAt?$AAs?$AA?$CI?$AA0?$AAx?$AA?$CF?$AA0?$AA8?$AAx?$AA?0?$AA?5?$AA0?$AAx?$AA?$CF@| DCB "A"
	DCB	0x0, "D", 0x0, "C", 0x0, ":", 0x0, " ", 0x0, "-", 0x0, "C"
	DCB	0x0, "o", 0x0, "n", 0x0, "v", 0x0, "e", 0x0, "r", 0x0, "t"
	DCB	0x0, "T", 0x0, "o", 0x0, "V", 0x0, "o", 0x0, "l", 0x0, "t"
	DCB	0x0, "s", 0x0, "(", 0x0, "0", 0x0, "x", 0x0, "%", 0x0, "0"
	DCB	0x0, "8", 0x0, "x", 0x0, ",", 0x0, " ", 0x0, "0", 0x0, "x"
	DCB	0x0, "%", 0x0, "0", 0x0, "8", 0x0, "x", 0x0, ",", 0x0, " "
	DCB	0x0, "0", 0x0, "x", 0x0, "%", 0x0, "0", 0x0, "8", 0x0, "x"
	DCB	0x0, ",", 0x0, " ", 0x0, "0", 0x0, "x", 0x0, "%", 0x0, "0"
	DCB	0x0, "8", 0x0, "x", 0x0, ",", 0x0, " ", 0x0, "0", 0x0, "x"
	DCB	0x0, "%", 0x0, "0", 0x0, "8", 0x0, "x", 0x0, ")", 0x0, 0xd
	DCB	0x0, 0xa, 0x0, 0x0, 0x0			; `string'

  00000			 AREA	 |.rdata|, DATA, READONLY
|??_C@_1GO@JHMFEDLF@?$AAA?$AAD?$AAC?$AA?3?$AA?5?$AA?$CB?$AAE?$AAR?$AAR?$AAO?$AAR?$AA?5?$AA?9?$AA?5?$AAR?$AAe?$AAa?$AAd?$AAV?$AAa?$AAl?$AAu?$AAe?$AA?3?$AA?5?$AAI?$AAn?$AAc?$AAo?$AAr?$AAr?$AAe@| DCB "A"
	DCB	0x0, "D", 0x0, "C", 0x0, ":", 0x0, " ", 0x0, "!", 0x0, "E"
	DCB	0x0, "R", 0x0, "R", 0x0, "O", 0x0, "R", 0x0, " ", 0x0, "-"
	DCB	0x0, " ", 0x0, "R", 0x0, "e", 0x0, "a", 0x0, "d", 0x0, "V"
	DCB	0x0, "a", 0x0, "l", 0x0, "u", 0x0, "e", 0x0, ":", 0x0, " "
	DCB	0x0, "I", 0x0, "n", 0x0, "c", 0x0, "o", 0x0, "r", 0x0, "r"
	DCB	0x0, "e", 0x0, "c", 0x0, "t", 0x0, " ", 0x0, "c", 0x0, "o"
	DCB	0x0, "n", 0x0, "t", 0x0, "e", 0x0, "x", 0x0, "t", 0x0, " "
	DCB	0x0, "p", 0x0, "a", 0x0, "r", 0x0, "a", 0x0, "m", 0x0, "e"
	DCB	0x0, "t", 0x0, "e", 0x0, "r", 0x0, 0xd, 0x0, 0xa, 0x0, 0x0
	DCB	0x0					; `string'

  00000			 AREA	 |.rdata|, DATA, READONLY
|??_C@_1HO@MLEHNACN@?$AAA?$AAD?$AAC?$AA?3?$AA?5?$AA?$CL?$AAC?$AAo?$AAn?$AAv?$AAe?$AAr?$AAt?$AAT?$AAo?$AAV?$AAo?$AAl?$AAt?$AAs?$AA?$CI?$AA0?$AAx?$AA?$CF?$AA0?$AA8?$AAx?$AA?0?$AA?5?$AA0?$AAx?$AA?$CF@| DCB "A"
	DCB	0x0, "D", 0x0, "C", 0x0, ":", 0x0, " ", 0x0, "+", 0x0, "C"
	DCB	0x0, "o", 0x0, "n", 0x0, "v", 0x0, "e", 0x0, "r", 0x0, "t"
	DCB	0x0, "T", 0x0, "o", 0x0, "V", 0x0, "o", 0x0, "l", 0x0, "t"
	DCB	0x0, "s", 0x0, "(", 0x0, "0", 0x0, "x", 0x0, "%", 0x0, "0"
	DCB	0x0, "8", 0x0, "x", 0x0, ",", 0x0, " ", 0x0, "0", 0x0, "x"
	DCB	0x0, "%", 0x0, "0", 0x0, "8", 0x0, "x", 0x0, ",", 0x0, " "
	DCB	0x0, "0", 0x0, "x", 0x0, "%", 0x0, "0", 0x0, "8", 0x0, "x"
	DCB	0x0, ",", 0x0, " ", 0x0, "0", 0x0, "x", 0x0, "%", 0x0, "0"
	DCB	0x0, "8", 0x0, "x", 0x0, ",", 0x0, " ", 0x0, "0", 0x0, "x"
	DCB	0x0, "%", 0x0, "0", 0x0, "8", 0x0, "x", 0x0, ")", 0x0, 0xd
	DCB	0x0, 0xa, 0x0, 0x0, 0x0			; `string'
; Function compile flags: /Odtp

  00000			 AREA	 |.text|, CODE, ARM

  00000		 |?ConvertToVolts@@YAKKKPAK0K@Z| PROC	; ConvertToVolts

; 152  : {

  00000		 |$LN17@ConvertToV|
  00000	e1a0c00d	 mov         r12, sp
  00004	e92d000f	 stmdb       sp!, {r0 - r3}
  00008	e92d5000	 stmdb       sp!, {r12, lr}
  0000c	e24dd040	 sub         sp, sp, #0x40
  00010		 |$M36357|

; 153  :     DEBUGMSG(ZONE_FUNCTION, (
; 154  :         L"ADC: +ConvertToVolts(0x%08x, 0x%08x, 0x%08x, 0x%08x, 0x%08x)\r\n", 
; 155  :         context, channels, prgValues, prgResults, count
; 156  :         ));

  00010	e59f3260	 ldr         r3, [pc, #0x260]
  00014	e5933440	 ldr         r3, [r3, #0x440]
  00018	e3130004	 tst         r3, #4
  0001c	0a00000b	 beq         |$LN9@ConvertToV|
  00020	e59d3058	 ldr         r3, [sp, #0x58]
  00024	e58d3004	 str         r3, [sp, #4]
  00028	e59d3054	 ldr         r3, [sp, #0x54]
  0002c	e58d3000	 str         r3, [sp]
  00030	e59d3050	 ldr         r3, [sp, #0x50]
  00034	e59d204c	 ldr         r2, [sp, #0x4C]
  00038	e59d1048	 ldr         r1, [sp, #0x48]
  0003c	e59f0248	 ldr         r0, [pc, #0x248]
  00040	eb000000	 bl          NKDbgPrintfW
  00044	e3a03001	 mov         r3, #1
  00048	e58d3030	 str         r3, [sp, #0x30]
  0004c	ea000001	 b           |$LN10@ConvertToV|
  00050		 |$LN9@ConvertToV|
  00050	e3a03000	 mov         r3, #0
  00054	e58d3030	 str         r3, [sp, #0x30]
  00058		 |$LN10@ConvertToV|

; 157  :     
; 158  :     int i;
; 159  :     UINT64 dwTemp;
; 160  :     DWORD dwCount = count;

  00058	e59d3058	 ldr         r3, [sp, #0x58]
  0005c	e58d3014	 str         r3, [sp, #0x14]

; 161  :     Device_t *pDevice = (Device_t*)context;

  00060	e59d3048	 ldr         r3, [sp, #0x48]
  00064	e58d3008	 str         r3, [sp, #8]

; 162  : 
; 163  :     // do some sanity checks
; 164  :     if ((pDevice == NULL) || (pDevice->cookie != MADC_DEVICE_COOKIE) || 
; 165  :         prgResults == NULL || count == 0)

  00068	e59d3008	 ldr         r3, [sp, #8]
  0006c	e3530000	 cmp         r3, #0
  00070	0a00000a	 beq         |$LN5@ConvertToV|
  00074	e59d3008	 ldr         r3, [sp, #8]
  00078	e5932000	 ldr         r2, [r3]
  0007c	e59f3204	 ldr         r3, [pc, #0x204]
  00080	e1520003	 cmp         r2, r3
  00084	1a000005	 bne         |$LN5@ConvertToV|
  00088	e59d3054	 ldr         r3, [sp, #0x54]
  0008c	e3530000	 cmp         r3, #0
  00090	0a000002	 beq         |$LN5@ConvertToV|
  00094	e59d3058	 ldr         r3, [sp, #0x58]
  00098	e3530000	 cmp         r3, #0
  0009c	1a00000c	 bne         |$LN6@ConvertToV|
  000a0		 |$LN5@ConvertToV|

; 166  :         {
; 167  :         DEBUGMSG(ZONE_ERROR, (L"ADC: !ERROR - ReadValue: "
; 168  :             L"Incorrect context parameter\r\n"
; 169  :             ));

  000a0	e59f31d0	 ldr         r3, [pc, #0x1D0]
  000a4	e5933440	 ldr         r3, [r3, #0x440]
  000a8	e3130001	 tst         r3, #1
  000ac	0a000004	 beq         |$LN11@ConvertToV|
  000b0	e59f01cc	 ldr         r0, [pc, #0x1CC]
  000b4	eb000000	 bl          NKDbgPrintfW
  000b8	e3a03001	 mov         r3, #1
  000bc	e58d3034	 str         r3, [sp, #0x34]
  000c0	ea000001	 b           |$LN12@ConvertToV|
  000c4		 |$LN11@ConvertToV|
  000c4	e3a03000	 mov         r3, #0
  000c8	e58d3034	 str         r3, [sp, #0x34]
  000cc		 |$LN12@ConvertToV|

; 170  :         goto cleanUp;

  000cc	ea000050	 b           |$LN4@ConvertToV|
  000d0	ea00004f	 b           |$cleanUp$36016|
  000d4		 |$LN6@ConvertToV|

; 171  :         }
; 172  : 
; 173  :     // convert raw values to millivolts
; 174  :     i = 0;

  000d4	e3a03000	 mov         r3, #0
  000d8	e58d3018	 str         r3, [sp, #0x18]

; 175  :     channels &= 0x1FFFFF;

  000dc	e59d204c	 ldr         r2, [sp, #0x4C]
  000e0	e3e034ff	 mvn         r3, #0xFF, 8
  000e4	e223360e	 eor         r3, r3, #0xE, 12
  000e8	e0023003	 and         r3, r2, r3
  000ec	e58d304c	 str         r3, [sp, #0x4C]
  000f0		 |$LN3@ConvertToV|

; 176  :     while (channels && dwCount > 0)

  000f0	e59d304c	 ldr         r3, [sp, #0x4C]
  000f4	e3530000	 cmp         r3, #0
  000f8	0a000041	 beq         |$LN2@ConvertToV|
  000fc	e59d3014	 ldr         r3, [sp, #0x14]
  00100	e3530000	 cmp         r3, #0
  00104	9a00003e	 bls         |$LN2@ConvertToV|

; 177  :         {
; 178  :         if (channels & 1)

  00108	e59d304c	 ldr         r3, [sp, #0x4C]
  0010c	e3130001	 tst         r3, #1
  00110	0a000034	 beq         |$LN1@ConvertToV|

; 179  :             {
; 180  :             dwTemp = (*prgValues & 0x3FF) * 
; 181  :                         s_ConversionValue[s_ConversionLookup[i]];   //10.21(V)

  00114	e59d3050	 ldr         r3, [sp, #0x50]
  00118	e5932000	 ldr         r2, [r3]
  0011c	e3a03c03	 mov         r3, #3, 24
  00120	e38330ff	 orr         r3, r3, #0xFF
  00124	e0020003	 and         r0, r2, r3
  00128	e59d1018	 ldr         r1, [sp, #0x18]
  0012c	e3a03004	 mov         r3, #4
  00130	e0020391	 mul         r2, r1, r3
  00134	e59f3144	 ldr         r3, [pc, #0x144]
  00138	e0833002	 add         r3, r3, r2
  0013c	e5931000	 ldr         r1, [r3]
  00140	e3a03004	 mov         r3, #4
  00144	e0020391	 mul         r2, r1, r3
  00148	e59f312c	 ldr         r3, [pc, #0x12C]
  0014c	e0833002	 add         r3, r3, r2
  00150	e5933000	 ldr         r3, [r3]
  00154	e0030390	 mul         r3, r0, r3
  00158	e58d300c	 str         r3, [sp, #0xC]
  0015c	e3a03000	 mov         r3, #0
  00160	e58d3010	 str         r3, [sp, #0x10]

; 182  : 
; 183  :             dwTemp *= 1000;                                         //20.21(mV)

  00164	e59d300c	 ldr         r3, [sp, #0xC]
  00168	e59d2010	 ldr         r2, [sp, #0x10]
  0016c	e58d3038	 str         r3, [sp, #0x38]
  00170	e3a03ffa	 mov         r3, #0xFA, 30
  00174	e0000392	 mul         r0, r2, r3
  00178	e59d1038	 ldr         r1, [sp, #0x38]
  0017c	e3a03ffa	 mov         r3, #0xFA, 30
  00180	e0832391	 umull       r2, r3, r1, r3
  00184	e0803003	 add         r3, r0, r3
  00188	e58d200c	 str         r2, [sp, #0xC]
  0018c	e58d3010	 str         r3, [sp, #0x10]

; 184  :             dwTemp += FIXEDPOINT_ROUNDUP;                           //20.21(mV)

  00190	e59d200c	 ldr         r2, [sp, #0xC]
  00194	e59d3010	 ldr         r3, [sp, #0x10]
  00198	e2922601	 adds        r2, r2, #1, 12
  0019c	e2a33000	 adc         r3, r3, #0
  001a0	e58d200c	 str         r2, [sp, #0xC]
  001a4	e58d3010	 str         r3, [sp, #0x10]

; 185  :             *prgResults = (DWORD)(dwTemp >> 21);                    //20.0(mV)

  001a8	e59d200c	 ldr         r2, [sp, #0xC]
  001ac	e59d3010	 ldr         r3, [sp, #0x10]
  001b0	e1a02aa2	 mov         r2, r2, lsr #21
  001b4	e1a03583	 mov         r3, r3, lsl #11
  001b8	e1832002	 orr         r2, r3, r2
  001bc	e59d3054	 ldr         r3, [sp, #0x54]
  001c0	e5832000	 str         r2, [r3]

; 186  : 
; 187  :             // next entry
; 188  :             ++prgValues;

  001c4	e59d3050	 ldr         r3, [sp, #0x50]
  001c8	e2833004	 add         r3, r3, #4
  001cc	e58d3050	 str         r3, [sp, #0x50]

; 189  :             ++prgResults;

  001d0	e59d3054	 ldr         r3, [sp, #0x54]
  001d4	e2833004	 add         r3, r3, #4
  001d8	e58d3054	 str         r3, [sp, #0x54]

; 190  :             --dwCount;

  001dc	e59d3014	 ldr         r3, [sp, #0x14]
  001e0	e2433001	 sub         r3, r3, #1
  001e4	e58d3014	 str         r3, [sp, #0x14]
  001e8		 |$LN1@ConvertToV|

; 191  :             }        
; 192  :         ++i;

  001e8	e59d3018	 ldr         r3, [sp, #0x18]
  001ec	e2833001	 add         r3, r3, #1
  001f0	e58d3018	 str         r3, [sp, #0x18]

; 193  :         channels >>= 1;

  001f4	e59d304c	 ldr         r3, [sp, #0x4C]
  001f8	e1a030a3	 mov         r3, r3, lsr #1
  001fc	e58d304c	 str         r3, [sp, #0x4C]

; 194  :         }

  00200	eaffffba	 b           |$LN3@ConvertToV|
  00204		 |$LN2@ConvertToV|

; 195  :     
; 196  :     count -= dwCount;

  00204	e59d2058	 ldr         r2, [sp, #0x58]
  00208	e59d3014	 ldr         r3, [sp, #0x14]
  0020c	e0423003	 sub         r3, r2, r3
  00210	e58d3058	 str         r3, [sp, #0x58]
  00214		 |$LN4@ConvertToV|
  00214		 |$cleanUp$36016|

; 197  :     
; 198  : cleanUp:
; 199  : 
; 200  :     DEBUGMSG(ZONE_FUNCTION, (
; 201  :         L"ADC: -ConvertToVolts(0x%08x, 0x%08x, 0x%08x, 0x%08x, 0x%08x)\r\n", 
; 202  :         context, channels, prgValues, prgResults, count
; 203  :         ));

  00214	e59f305c	 ldr         r3, [pc, #0x5C]
  00218	e5933440	 ldr         r3, [r3, #0x440]
  0021c	e3130004	 tst         r3, #4
  00220	0a00000b	 beq         |$LN13@ConvertToV|
  00224	e59d3058	 ldr         r3, [sp, #0x58]
  00228	e58d3004	 str         r3, [sp, #4]
  0022c	e59d3054	 ldr         r3, [sp, #0x54]
  00230	e58d3000	 str         r3, [sp]
  00234	e59d3050	 ldr         r3, [sp, #0x50]
  00238	e59d204c	 ldr         r2, [sp, #0x4C]
  0023c	e59d1048	 ldr         r1, [sp, #0x48]
  00240	e59f002c	 ldr         r0, [pc, #0x2C]
  00244	eb000000	 bl          NKDbgPrintfW
  00248	e3a03001	 mov         r3, #1
  0024c	e58d303c	 str         r3, [sp, #0x3C]
  00250	ea000001	 b           |$LN14@ConvertToV|
  00254		 |$LN13@ConvertToV|
  00254	e3a03000	 mov         r3, #0
  00258	e58d303c	 str         r3, [sp, #0x3C]
  0025c		 |$LN14@ConvertToV|

; 204  :     return count;

  0025c	e59d3058	 ldr         r3, [sp, #0x58]
  00260	e58d302c	 str         r3, [sp, #0x2C]

; 205  : }

  00264	e59d002c	 ldr         r0, [sp, #0x2C]
  00268	e28dd040	 add         sp, sp, #0x40
  0026c	e89d6000	 ldmia       sp, {sp, lr}
  00270	e12fff1e	 bx          lr
  00274		 |$LN18@ConvertToV|
  00274		 |$LN19@ConvertToV|
  00274	00000000	 DCD         |??_C@_1HO@MOBGIGFN@?$AAA?$AAD?$AAC?$AA?3?$AA?5?$AA?9?$AAC?$AAo?$AAn?$AAv?$AAe?$AAr?$AAt?$AAT?$AAo?$AAV?$AAo?$AAl?$AAt?$AAs?$AA?$CI?$AA0?$AAx?$AA?$CF?$AA0?$AA8?$AAx?$AA?0?$AA?5?$AA0?$AAx?$AA?$CF@|
  00278		 |$LN20@ConvertToV|
  00278	00000000	 DCD         |dpCurSettings|
  0027c		 |$LN21@ConvertToV|
  0027c	00000000	 DCD         |s_ConversionValue|
  00280		 |$LN22@ConvertToV|
  00280	00000000	 DCD         |s_ConversionLookup|
  00284		 |$LN23@ConvertToV|
  00284	00000000	 DCD         |??_C@_1GO@JHMFEDLF@?$AAA?$AAD?$AAC?$AA?3?$AA?5?$AA?$CB?$AAE?$AAR?$AAR?$AAO?$AAR?$AA?5?$AA?9?$AA?5?$AAR?$AAe?$AAa?$AAd?$AAV?$AAa?$AAl?$AAu?$AAe?$AA?3?$AA?5?$AAI?$AAn?$AAc?$AAo?$AAr?$AAr?$AAe@|
  00288		 |$LN24@ConvertToV|
  00288	61646344	 DCD         0x61646344
  0028c		 |$LN25@ConvertToV|
  0028c	00000000	 DCD         |??_C@_1HO@MLEHNACN@?$AAA?$AAD?$AAC?$AA?3?$AA?5?$AA?$CL?$AAC?$AAo?$AAn?$AAv?$AAe?$AAr?$AAt?$AAT?$AAo?$AAV?$AAo?$AAl?$AAt?$AAs?$AA?$CI?$AA0?$AAx?$AA?$CF?$AA0?$AA8?$AAx?$AA?0?$AA?5?$AA0?$AAx?$AA?$CF@|
  00290		 |$M36358|

			 ENDP  ; |?ConvertToVolts@@YAKKKPAK0K@Z|, ConvertToVolts

	EXPORT	|??_C@_1GK@CHHOKLBP@?$AAA?$AAD?$AAC?$AA?3?$AA?5?$AA?9?$AAR?$AAe?$AAa?$AAd?$AAB?$AAC?$AAI?$AAL?$AAi?$AAn?$AAe?$AAs?$AA?$CI?$AA0?$AAx?$AA?$CF?$AA0?$AA8?$AAx?$AA?0?$AA?5?$AA0?$AAx?$AA?$CF?$AA0?$AA8@| [ DATA ] ; `string'
	EXPORT	|??_C@_1HM@FMCDGKPB@?$AAA?$AAD?$AAC?$AA?3?$AA?5?$AA?$CB?$AAE?$AAR?$AAR?$AAO?$AAR?$AA?5?$AA?9?$AA?5?$AAR?$AAe?$AAa?$AAd?$AAB?$AAC?$AAI?$AAL?$AAi?$AAn?$AAe?$AAs?$AA?3?$AA?5?$AAF?$AAa?$AAi?$AAl@| [ DATA ] ; `string'
	EXPORT	|??_C@_1GK@IIPKINFA@?$AAA?$AAD?$AAC?$AA?3?$AA?5?$AA?$CL?$AAR?$AAe?$AAa?$AAd?$AAB?$AAC?$AAI?$AAL?$AAi?$AAn?$AAe?$AAs?$AA?$CI?$AA0?$AAx?$AA?$CF?$AA0?$AA8?$AAx?$AA?0?$AA?5?$AA0?$AAx?$AA?$CF?$AA0?$AA8@| [ DATA ] ; `string'
	EXPORT	|__$ArrayPad$| [ DATA ]
	EXPORT	|?ReadBCILines@@YAKPAUDevice_t@@GPAKK@Z| ; ReadBCILines
	IMPORT	|StallExecution|
	IMPORT	|TWLReadRegs|
	IMPORT	|__security_cookie|
	IMPORT	|__GSHandlerCheck|
	IMPORT	|__security_check_cookie|

  00008			 AREA	 |.pdata|, PDATA
|$T36387| DCD	|$LN19@ReadBCILin|
	DCD	0xc0008e04

  00000			 AREA	 |.rdata|, DATA, READONLY
|??_C@_1GK@CHHOKLBP@?$AAA?$AAD?$AAC?$AA?3?$AA?5?$AA?9?$AAR?$AAe?$AAa?$AAd?$AAB?$AAC?$AAI?$AAL?$AAi?$AAn?$AAe?$AAs?$AA?$CI?$AA0?$AAx?$AA?$CF?$AA0?$AA8?$AAx?$AA?0?$AA?5?$AA0?$AAx?$AA?$CF?$AA0?$AA8@| DCB "A"
	DCB	0x0, "D", 0x0, "C", 0x0, ":", 0x0, " ", 0x0, "-", 0x0, "R"
	DCB	0x0, "e", 0x0, "a", 0x0, "d", 0x0, "B", 0x0, "C", 0x0, "I"
	DCB	0x0, "L", 0x0, "i", 0x0, "n", 0x0, "e", 0x0, "s", 0x0, "("
	DCB	0x0, "0", 0x0, "x", 0x0, "%", 0x0, "0", 0x0, "8", 0x0, "x"
	DCB	0x0, ",", 0x0, " ", 0x0, "0", 0x0, "x", 0x0, "%", 0x0, "0"
	DCB	0x0, "8", 0x0, "x", 0x0, ",", 0x0, " ", 0x0, "0", 0x0, "x"
	DCB	0x0, "%", 0x0, "0", 0x0, "8", 0x0, "x", 0x0, ",", 0x0, " "
	DCB	0x0, "0", 0x0, "x", 0x0, "%", 0x0, "0", 0x0, "8", 0x0, "x"
	DCB	0x0, ")", 0x0, 0xd, 0x0, 0xa, 0x0, 0x0, 0x0 ; `string'

  00000			 AREA	 |.rdata|, DATA, READONLY
|??_C@_1HM@FMCDGKPB@?$AAA?$AAD?$AAC?$AA?3?$AA?5?$AA?$CB?$AAE?$AAR?$AAR?$AAO?$AAR?$AA?5?$AA?9?$AA?5?$AAR?$AAe?$AAa?$AAd?$AAB?$AAC?$AAI?$AAL?$AAi?$AAn?$AAe?$AAs?$AA?3?$AA?5?$AAF?$AAa?$AAi?$AAl@| DCB "A"
	DCB	0x0, "D", 0x0, "C", 0x0, ":", 0x0, " ", 0x0, "!", 0x0, "E"
	DCB	0x0, "R", 0x0, "R", 0x0, "O", 0x0, "R", 0x0, " ", 0x0, "-"
	DCB	0x0, " ", 0x0, "R", 0x0, "e", 0x0, "a", 0x0, "d", 0x0, "B"
	DCB	0x0, "C", 0x0, "I", 0x0, "L", 0x0, "i", 0x0, "n", 0x0, "e"
	DCB	0x0, "s", 0x0, ":", 0x0, " ", 0x0, "F", 0x0, "a", 0x0, "i"
	DCB	0x0, "l", 0x0, "e", 0x0, "d", 0x0, " ", 0x0, "w", 0x0, "r"
	DCB	0x0, "i", 0x0, "t", 0x0, "i", 0x0, "n", 0x0, "g", 0x0, " "
	DCB	0x0, "s", 0x0, "t", 0x0, "a", 0x0, "r", 0x0, "t", 0x0, " "
	DCB	0x0, "c", 0x0, "o", 0x0, "n", 0x0, "v", 0x0, "e", 0x0, "r"
	DCB	0x0, "s", 0x0, "i", 0x0, "o", 0x0, "n", 0x0, 0xd, 0x0, 0xa
	DCB	0x0, 0x0, 0x0				; `string'

  00000			 AREA	 |.rdata|, DATA, READONLY
|??_C@_1GK@IIPKINFA@?$AAA?$AAD?$AAC?$AA?3?$AA?5?$AA?$CL?$AAR?$AAe?$AAa?$AAd?$AAB?$AAC?$AAI?$AAL?$AAi?$AAn?$AAe?$AAs?$AA?$CI?$AA0?$AAx?$AA?$CF?$AA0?$AA8?$AAx?$AA?0?$AA?5?$AA0?$AAx?$AA?$CF?$AA0?$AA8@| DCB "A"
	DCB	0x0, "D", 0x0, "C", 0x0, ":", 0x0, " ", 0x0, "+", 0x0, "R"
	DCB	0x0, "e", 0x0, "a", 0x0, "d", 0x0, "B", 0x0, "C", 0x0, "I"
	DCB	0x0, "L", 0x0, "i", 0x0, "n", 0x0, "e", 0x0, "s", 0x0, "("
	DCB	0x0, "0", 0x0, "x", 0x0, "%", 0x0, "0", 0x0, "8", 0x0, "x"
	DCB	0x0, ",", 0x0, " ", 0x0, "0", 0x0, "x", 0x0, "%", 0x0, "0"
	DCB	0x0, "8", 0x0, "x", 0x0, ",", 0x0, " ", 0x0, "0", 0x0, "x"
	DCB	0x0, "%", 0x0, "0", 0x0, "8", 0x0, "x", 0x0, ",", 0x0, " "
	DCB	0x0, "0", 0x0, "x", 0x0, "%", 0x0, "0", 0x0, "8", 0x0, "x"
	DCB	0x0, ")", 0x0, 0xd, 0x0, 0xa, 0x0, 0x0, 0x0 ; `string'

  00000			 AREA	 |.xdata|, DATA
|$T36383| DCD	0xffffffc8
; Function compile flags: /Odtp

  00290			 AREA	 |.text|, CODE, ARM

  00290	00000000	 DCD         |__GSHandlerCheck|
  00294	00000000	 DCD         |$T36383|

  00298		 |?ReadBCILines@@YAKPAUDevice_t@@GPAKK@Z| PROC ; ReadBCILines

; 220  : {

  00298		 |$LN19@ReadBCILin|
  00298	e1a0c00d	 mov         r12, sp
  0029c	e92d000f	 stmdb       sp!, {r0 - r3}
  002a0	e92d5000	 stmdb       sp!, {r12, lr}
  002a4	e24dd03c	 sub         sp, sp, #0x3C
  002a8		 |$M36384|
  002a8	e59f321c	 ldr         r3, [pc, #0x21C]
  002ac	e5933000	 ldr         r3, [r3]
  002b0	e58d301c	 str         r3, [sp, #0x1C]

; 221  :     DEBUGMSG(ZONE_FUNCTION, (
; 222  :         L"ADC: +ReadBCILines(0x%08x, 0x%08x, 0x%08x, 0x%08x)\r\n", 
; 223  :         pDevice, channels, prgResults, count
; 224  :         ));

  002b4	e59f3204	 ldr         r3, [pc, #0x204]
  002b8	e5933440	 ldr         r3, [r3, #0x440]
  002bc	e3130004	 tst         r3, #4
  002c0	0a000009	 beq         |$LN11@ReadBCILin|
  002c4	e59d3050	 ldr         r3, [sp, #0x50]
  002c8	e58d3000	 str         r3, [sp]
  002cc	e59d304c	 ldr         r3, [sp, #0x4C]
  002d0	e1dd24b8	 ldrh        r2, [sp, #0x48]
  002d4	e59d1044	 ldr         r1, [sp, #0x44]
  002d8	e59f01e8	 ldr         r0, [pc, #0x1E8]
  002dc	eb000000	 bl          NKDbgPrintfW
  002e0	e3a03001	 mov         r3, #1
  002e4	e58d302c	 str         r3, [sp, #0x2C]
  002e8	ea000001	 b           |$LN12@ReadBCILin|
  002ec		 |$LN11@ReadBCILin|
  002ec	e3a03000	 mov         r3, #0
  002f0	e58d302c	 str         r3, [sp, #0x2C]
  002f4		 |$LN12@ReadBCILin|

; 225  :     
; 226  :     UINT8 val;
; 227  :     UINT8 counter;
; 228  :     UINT16 rgBCIRegisters[5];
; 229  :     UINT16 *pBCIRegisters = rgBCIRegisters;

  002f4	e28d3010	 add         r3, sp, #0x10
  002f8	e58d300c	 str         r3, [sp, #0xC]

; 230  :     DWORD dwReadCount = 0;

  002fc	e3a03000	 mov         r3, #0
  00300	e58d3004	 str         r3, [sp, #4]

; 231  : 
; 232  :     // waits for conversion complete
; 233  :     val = 0;

  00304	e3a03000	 mov         r3, #0
  00308	e5cd3009	 strb        r3, [sp, #9]

; 234  :     counter = 0;

  0030c	e3a03000	 mov         r3, #0
  00310	e5cd3008	 strb        r3, [sp, #8]
  00314		 |$LN8@ReadBCILin|

; 235  :     while (counter++ < 0xFF)

  00314	e5dd3008	 ldrb        r3, [sp, #8]
  00318	e35300ff	 cmp         r3, #0xFF
  0031c	e5dd3008	 ldrb        r3, [sp, #8]
  00320	e2833001	 add         r3, r3, #1
  00324	e20330ff	 and         r3, r3, #0xFF
  00328	e5cd3008	 strb        r3, [sp, #8]
  0032c	aa00000e	 bge         |$LN7@ReadBCILin|

; 236  :         {
; 237  :         TWLReadRegs(pDevice->hTWL, TWL_CTRL_SW1, &val, 1);

  00330	e3a03001	 mov         r3, #1
  00334	e28d2009	 add         r2, sp, #9
  00338	e3a01802	 mov         r1, #2, 16
  0033c	e3811012	 orr         r1, r1, #0x12
  00340	e59d0044	 ldr         r0, [sp, #0x44]
  00344	e2800018	 add         r0, r0, #0x18
  00348	e5900000	 ldr         r0, [r0]
  0034c	eb000000	 bl          TWLReadRegs

; 238  :         if (val & TWL_MADC_CTRL_SW_EOC_BCI)

  00350	e5dd3009	 ldrb        r3, [sp, #9]
  00354	e3130008	 tst         r3, #8
  00358	0a000000	 beq         |$LN6@ReadBCILin|

; 239  :             {
; 240  :             break;

  0035c	ea000002	 b           |$LN7@ReadBCILin|
  00360		 |$LN6@ReadBCILin|

; 241  :             }
; 242  :         StallExecution(10);

  00360	e3a0000a	 mov         r0, #0xA
  00364	eb000000	 bl          StallExecution

; 243  :         }

  00368	eaffffe9	 b           |$LN8@ReadBCILin|
  0036c		 |$LN7@ReadBCILin|

; 244  : 
; 245  :     // read to results of the general purpose lines    
; 246  :     if (TWLReadRegs(pDevice->hTWL, TWL_BCICH0_LSB, rgBCIRegisters, 
; 247  :         sizeof(rgBCIRegisters)) == FALSE)

  0036c	e3a0300a	 mov         r3, #0xA
  00370	e28d2010	 add         r2, sp, #0x10
  00374	e3a01802	 mov         r1, #2, 16
  00378	e3811057	 orr         r1, r1, #0x57
  0037c	e59d0044	 ldr         r0, [sp, #0x44]
  00380	e2800018	 add         r0, r0, #0x18
  00384	e5900000	 ldr         r0, [r0]
  00388	eb000000	 bl          TWLReadRegs
  0038c	e58d0030	 str         r0, [sp, #0x30]
  00390	e59d3030	 ldr         r3, [sp, #0x30]
  00394	e3530000	 cmp         r3, #0
  00398	1a00000c	 bne         |$LN5@ReadBCILin|

; 248  :         {
; 249  :         DEBUGMSG(ZONE_ERROR, (L"ADC: !ERROR - ReadBCILines: "
; 250  :             L"Failed writing start conversion\r\n"
; 251  :             ));

  0039c	e59f311c	 ldr         r3, [pc, #0x11C]
  003a0	e5933440	 ldr         r3, [r3, #0x440]
  003a4	e3130001	 tst         r3, #1
  003a8	0a000004	 beq         |$LN13@ReadBCILin|
  003ac	e59f0110	 ldr         r0, [pc, #0x110]
  003b0	eb000000	 bl          NKDbgPrintfW
  003b4	e3a03001	 mov         r3, #1
  003b8	e58d3034	 str         r3, [sp, #0x34]
  003bc	ea000001	 b           |$LN14@ReadBCILin|
  003c0		 |$LN13@ReadBCILin|
  003c0	e3a03000	 mov         r3, #0
  003c4	e58d3034	 str         r3, [sp, #0x34]
  003c8		 |$LN14@ReadBCILin|

; 252  :         goto cleanUp;

  003c8	ea000023	 b           |$LN4@ReadBCILin|
  003cc	ea000022	 b           |$cleanUp$36045|
  003d0		 |$LN5@ReadBCILin|

; 253  :         }
; 254  : 
; 255  :     // copy raw results into return buffer
; 256  :     counter = 0;

  003d0	e3a03000	 mov         r3, #0
  003d4	e5cd3008	 strb        r3, [sp, #8]
  003d8		 |$LN3@ReadBCILin|

; 257  :     while (counter < count && channels)

  003d8	e5dd2008	 ldrb        r2, [sp, #8]
  003dc	e59d3050	 ldr         r3, [sp, #0x50]
  003e0	e1520003	 cmp         r2, r3
  003e4	2a00001a	 bcs         |$LN2@ReadBCILin|
  003e8	e1dd34b8	 ldrh        r3, [sp, #0x48]
  003ec	e3530000	 cmp         r3, #0
  003f0	0a000017	 beq         |$LN2@ReadBCILin|

; 258  :         {
; 259  :         if (channels & 1)

  003f4	e1dd34b8	 ldrh        r3, [sp, #0x48]
  003f8	e3130001	 tst         r3, #1
  003fc	0a00000b	 beq         |$LN1@ReadBCILin|

; 260  :             {
; 261  :             // read raw value
; 262  :             *prgResults = *pBCIRegisters >> 6;

  00400	e59d300c	 ldr         r3, [sp, #0xC]
  00404	e1d330b0	 ldrh        r3, [r3]
  00408	e1a02343	 mov         r2, r3, asr #6
  0040c	e59d304c	 ldr         r3, [sp, #0x4C]
  00410	e5832000	 str         r2, [r3]

; 263  : 
; 264  :             // move to next result and increment counters
; 265  :             ++prgResults;

  00414	e59d304c	 ldr         r3, [sp, #0x4C]
  00418	e2833004	 add         r3, r3, #4
  0041c	e58d304c	 str         r3, [sp, #0x4C]

; 266  :             ++counter;

  00420	e5dd3008	 ldrb        r3, [sp, #8]
  00424	e2833001	 add         r3, r3, #1
  00428	e20330ff	 and         r3, r3, #0xFF
  0042c	e5cd3008	 strb        r3, [sp, #8]
  00430		 |$LN1@ReadBCILin|

; 267  :             }
; 268  :         pBCIRegisters++;

  00430	e59d300c	 ldr         r3, [sp, #0xC]
  00434	e2833002	 add         r3, r3, #2
  00438	e58d300c	 str         r3, [sp, #0xC]

; 269  :         channels >>= 1;

  0043c	e1dd34b8	 ldrh        r3, [sp, #0x48]
  00440	e1a030a3	 mov         r3, r3, lsr #1
  00444	e1a03803	 mov         r3, r3, lsl #16
  00448	e1a03823	 mov         r3, r3, lsr #16
  0044c	e1cd34b8	 strh        r3, [sp, #0x48]

; 270  :         }

  00450	eaffffe0	 b           |$LN3@ReadBCILin|
  00454		 |$LN2@ReadBCILin|

; 271  :     
; 272  :     dwReadCount = counter;

  00454	e5dd3008	 ldrb        r3, [sp, #8]
  00458	e58d3004	 str         r3, [sp, #4]
  0045c		 |$LN4@ReadBCILin|
  0045c		 |$cleanUp$36045|

; 273  : 
; 274  : cleanUp:    
; 275  :     DEBUGMSG(ZONE_FUNCTION, (
; 276  :         L"ADC: -ReadBCILines(0x%08x, 0x%08x, 0x%08x, 0x%08x)\r\n", 
; 277  :         pDevice, channels, prgResults, count
; 278  :         ));

  0045c	e59f305c	 ldr         r3, [pc, #0x5C]
  00460	e5933440	 ldr         r3, [r3, #0x440]
  00464	e3130004	 tst         r3, #4
  00468	0a000009	 beq         |$LN15@ReadBCILin|
  0046c	e59d3050	 ldr         r3, [sp, #0x50]
  00470	e58d3000	 str         r3, [sp]
  00474	e59d304c	 ldr         r3, [sp, #0x4C]
  00478	e1dd24b8	 ldrh        r2, [sp, #0x48]
  0047c	e59d1044	 ldr         r1, [sp, #0x44]
  00480	e59f0034	 ldr         r0, [pc, #0x34]
  00484	eb000000	 bl          NKDbgPrintfW
  00488	e3a03001	 mov         r3, #1
  0048c	e58d3038	 str         r3, [sp, #0x38]
  00490	ea000001	 b           |$LN16@ReadBCILin|
  00494		 |$LN15@ReadBCILin|
  00494	e3a03000	 mov         r3, #0
  00498	e58d3038	 str         r3, [sp, #0x38]
  0049c		 |$LN16@ReadBCILin|

; 279  : 
; 280  :     return dwReadCount;

  0049c	e59d001c	 ldr         r0, [sp, #0x1C]
  004a0	eb000000	 bl          __security_check_cookie
  004a4	e59d3004	 ldr         r3, [sp, #4]
  004a8	e58d3028	 str         r3, [sp, #0x28]

; 281  : }

  004ac	e59d0028	 ldr         r0, [sp, #0x28]
  004b0	e28dd03c	 add         sp, sp, #0x3C
  004b4	e89d6000	 ldmia       sp, {sp, lr}
  004b8	e12fff1e	 bx          lr
  004bc		 |$LN20@ReadBCILin|
  004bc		 |$LN21@ReadBCILin|
  004bc	00000000	 DCD         |??_C@_1GK@CHHOKLBP@?$AAA?$AAD?$AAC?$AA?3?$AA?5?$AA?9?$AAR?$AAe?$AAa?$AAd?$AAB?$AAC?$AAI?$AAL?$AAi?$AAn?$AAe?$AAs?$AA?$CI?$AA0?$AAx?$AA?$CF?$AA0?$AA8?$AAx?$AA?0?$AA?5?$AA0?$AAx?$AA?$CF?$AA0?$AA8@|
  004c0		 |$LN22@ReadBCILin|
  004c0	00000000	 DCD         |dpCurSettings|
  004c4		 |$LN23@ReadBCILin|
  004c4	00000000	 DCD         |??_C@_1HM@FMCDGKPB@?$AAA?$AAD?$AAC?$AA?3?$AA?5?$AA?$CB?$AAE?$AAR?$AAR?$AAO?$AAR?$AA?5?$AA?9?$AA?5?$AAR?$AAe?$AAa?$AAd?$AAB?$AAC?$AAI?$AAL?$AAi?$AAn?$AAe?$AAs?$AA?3?$AA?5?$AAF?$AAa?$AAi?$AAl@|
  004c8		 |$LN24@ReadBCILin|
  004c8	00000000	 DCD         |??_C@_1GK@IIPKINFA@?$AAA?$AAD?$AAC?$AA?3?$AA?5?$AA?$CL?$AAR?$AAe?$AAa?$AAd?$AAB?$AAC?$AAI?$AAL?$AAi?$AAn?$AAe?$AAs?$AA?$CI?$AA0?$AAx?$AA?$CF?$AA0?$AA8?$AAx?$AA?0?$AA?5?$AA0?$AAx?$AA?$CF?$AA0?$AA8@|
  004cc		 |$LN25@ReadBCILin|
  004cc	00000000	 DCD         |__security_cookie|
  004d0		 |$M36385|

			 ENDP  ; |?ReadBCILines@@YAKPAUDevice_t@@GPAKK@Z|, ReadBCILines

	EXPORT	|??_C@_1IA@JPOIBLFH@?$AAA?$AAD?$AAC?$AA?3?$AA?5?$AA?9?$AAR?$AAe?$AAa?$AAd?$AAG?$AAe?$AAn?$AAe?$AAr?$AAa?$AAl?$AAP?$AAu?$AAr?$AAp?$AAo?$AAs?$AAe?$AAL?$AAi?$AAn?$AAe?$AAs?$AA?$CI?$AA0?$AAx@| [ DATA ] ; `string'
	EXPORT	|??_C@_1JC@JMJKMGED@?$AAA?$AAD?$AAC?$AA?3?$AA?5?$AA?$CB?$AAE?$AAR?$AAR?$AAO?$AAR?$AA?5?$AA?9?$AA?5?$AAR?$AAe?$AAa?$AAd?$AAG?$AAe?$AAn?$AAe?$AAr?$AAa?$AAl?$AAP?$AAu?$AAr?$AAp?$AAo?$AAs?$AAe@| [ DATA ] ; `string'
	EXPORT	|??_C@_1IA@DCNPJDDB@?$AAA?$AAD?$AAC?$AA?3?$AA?5?$AA?$CL?$AAR?$AAe?$AAa?$AAd?$AAG?$AAe?$AAn?$AAe?$AAr?$AAa?$AAl?$AAP?$AAu?$AAr?$AAp?$AAo?$AAs?$AAe?$AAL?$AAi?$AAn?$AAe?$AAs?$AA?$CI?$AA0?$AAx@| [ DATA ] ; `string'
	EXPORT	|__$ArrayPad$| [ DATA ]
	EXPORT	|?ReadGeneralPurposeLines@@YAKPAUDevice_t@@GPAKK@Z| ; ReadGeneralPurposeLines

  00010			 AREA	 |.pdata|, PDATA
|$T36409| DCD	|$LN19@ReadGenera|
	DCD	0xc0008e04

  00000			 AREA	 |.rdata|, DATA, READONLY
|??_C@_1IA@JPOIBLFH@?$AAA?$AAD?$AAC?$AA?3?$AA?5?$AA?9?$AAR?$AAe?$AAa?$AAd?$AAG?$AAe?$AAn?$AAe?$AAr?$AAa?$AAl?$AAP?$AAu?$AAr?$AAp?$AAo?$AAs?$AAe?$AAL?$AAi?$AAn?$AAe?$AAs?$AA?$CI?$AA0?$AAx@| DCB "A"
	DCB	0x0, "D", 0x0, "C", 0x0, ":", 0x0, " ", 0x0, "-", 0x0, "R"
	DCB	0x0, "e", 0x0, "a", 0x0, "d", 0x0, "G", 0x0, "e", 0x0, "n"
	DCB	0x0, "e", 0x0, "r", 0x0, "a", 0x0, "l", 0x0, "P", 0x0, "u"
	DCB	0x0, "r", 0x0, "p", 0x0, "o", 0x0, "s", 0x0, "e", 0x0, "L"
	DCB	0x0, "i", 0x0, "n", 0x0, "e", 0x0, "s", 0x0, "(", 0x0, "0"
	DCB	0x0, "x", 0x0, "%", 0x0, "0", 0x0, "8", 0x0, "x", 0x0, ","
	DCB	0x0, " ", 0x0, "0", 0x0, "x", 0x0, "%", 0x0, "0", 0x0, "8"
	DCB	0x0, "x", 0x0, ",", 0x0, " ", 0x0, "0", 0x0, "x", 0x0, "%"
	DCB	0x0, "0", 0x0, "8", 0x0, "x", 0x0, ",", 0x0, " ", 0x0, "0"
	DCB	0x0, "x", 0x0, "%", 0x0, "0", 0x0, "8", 0x0, "x", 0x0, ")"
	DCB	0x0, 0xd, 0x0, 0xa, 0x0, 0x0, 0x0	; `string'

  00000			 AREA	 |.rdata|, DATA, READONLY
|??_C@_1JC@JMJKMGED@?$AAA?$AAD?$AAC?$AA?3?$AA?5?$AA?$CB?$AAE?$AAR?$AAR?$AAO?$AAR?$AA?5?$AA?9?$AA?5?$AAR?$AAe?$AAa?$AAd?$AAG?$AAe?$AAn?$AAe?$AAr?$AAa?$AAl?$AAP?$AAu?$AAr?$AAp?$AAo?$AAs?$AAe@| DCB "A"
	DCB	0x0, "D", 0x0, "C", 0x0, ":", 0x0, " ", 0x0, "!", 0x0, "E"
	DCB	0x0, "R", 0x0, "R", 0x0, "O", 0x0, "R", 0x0, " ", 0x0, "-"
	DCB	0x0, " ", 0x0, "R", 0x0, "e", 0x0, "a", 0x0, "d", 0x0, "G"
	DCB	0x0, "e", 0x0, "n", 0x0, "e", 0x0, "r", 0x0, "a", 0x0, "l"
	DCB	0x0, "P", 0x0, "u", 0x0, "r", 0x0, "p", 0x0, "o", 0x0, "s"
	DCB	0x0, "e", 0x0, "L", 0x0, "i", 0x0, "n", 0x0, "e", 0x0, "s"
	DCB	0x0, ":", 0x0, " ", 0x0, "F", 0x0, "a", 0x0, "i", 0x0, "l"
	DCB	0x0, "e", 0x0, "d", 0x0, " ", 0x0, "w", 0x0, "r", 0x0, "i"
	DCB	0x0, "t", 0x0, "i", 0x0, "n", 0x0, "g", 0x0, " ", 0x0, "s"
	DCB	0x0, "t", 0x0, "a", 0x0, "r", 0x0, "t", 0x0, " ", 0x0, "c"
	DCB	0x0, "o", 0x0, "n", 0x0, "v", 0x0, "e", 0x0, "r", 0x0, "s"
	DCB	0x0, "i", 0x0, "o", 0x0, "n", 0x0, 0xd, 0x0, 0xa, 0x0, 0x0
	DCB	0x0					; `string'

  00000			 AREA	 |.rdata|, DATA, READONLY
|??_C@_1IA@DCNPJDDB@?$AAA?$AAD?$AAC?$AA?3?$AA?5?$AA?$CL?$AAR?$AAe?$AAa?$AAd?$AAG?$AAe?$AAn?$AAe?$AAr?$AAa?$AAl?$AAP?$AAu?$AAr?$AAp?$AAo?$AAs?$AAe?$AAL?$AAi?$AAn?$AAe?$AAs?$AA?$CI?$AA0?$AAx@| DCB "A"
	DCB	0x0, "D", 0x0, "C", 0x0, ":", 0x0, " ", 0x0, "+", 0x0, "R"
	DCB	0x0, "e", 0x0, "a", 0x0, "d", 0x0, "G", 0x0, "e", 0x0, "n"
	DCB	0x0, "e", 0x0, "r", 0x0, "a", 0x0, "l", 0x0, "P", 0x0, "u"
	DCB	0x0, "r", 0x0, "p", 0x0, "o", 0x0, "s", 0x0, "e", 0x0, "L"
	DCB	0x0, "i", 0x0, "n", 0x0, "e", 0x0, "s", 0x0, "(", 0x0, "0"
	DCB	0x0, "x", 0x0, "%", 0x0, "0", 0x0, "8", 0x0, "x", 0x0, ","
	DCB	0x0, " ", 0x0, "0", 0x0, "x", 0x0, "%", 0x0, "0", 0x0, "8"
	DCB	0x0, "x", 0x0, ",", 0x0, " ", 0x0, "0", 0x0, "x", 0x0, "%"
	DCB	0x0, "0", 0x0, "8", 0x0, "x", 0x0, ",", 0x0, " ", 0x0, "0"
	DCB	0x0, "x", 0x0, "%", 0x0, "0", 0x0, "8", 0x0, "x", 0x0, ")"
	DCB	0x0, 0xd, 0x0, 0xa, 0x0, 0x0, 0x0	; `string'

  00004			 AREA	 |.xdata|, DATA
|$T36405| DCD	0xffffffc8
; Function compile flags: /Odtp

  004d0			 AREA	 |.text|, CODE, ARM

  004d0	00000000	 DCD         |__GSHandlerCheck|
  004d4	00000000	 DCD         |$T36405|

  004d8		 |?ReadGeneralPurposeLines@@YAKPAUDevice_t@@GPAKK@Z| PROC ; ReadGeneralPurposeLines

; 296  : {

  004d8		 |$LN19@ReadGenera|
  004d8	e1a0c00d	 mov         r12, sp
  004dc	e92d000f	 stmdb       sp!, {r0 - r3}
  004e0	e92d5000	 stmdb       sp!, {r12, lr}
  004e4	e24dd054	 sub         sp, sp, #0x54
  004e8		 |$M36406|
  004e8	e59f321c	 ldr         r3, [pc, #0x21C]
  004ec	e5933000	 ldr         r3, [r3]
  004f0	e58d3034	 str         r3, [sp, #0x34]

; 297  :     DEBUGMSG(ZONE_FUNCTION, (
; 298  :         L"ADC: +ReadGeneralPurposeLines(0x%08x, 0x%08x, 0x%08x, 0x%08x)\r\n", 
; 299  :         pDevice, channels, prgResults, count
; 300  :         ));

  004f4	e59f3204	 ldr         r3, [pc, #0x204]
  004f8	e5933440	 ldr         r3, [r3, #0x440]
  004fc	e3130004	 tst         r3, #4
  00500	0a000009	 beq         |$LN11@ReadGenera|
  00504	e59d3068	 ldr         r3, [sp, #0x68]
  00508	e58d3000	 str         r3, [sp]
  0050c	e59d3064	 ldr         r3, [sp, #0x64]
  00510	e1dd26b0	 ldrh        r2, [sp, #0x60]
  00514	e59d105c	 ldr         r1, [sp, #0x5C]
  00518	e59f01e8	 ldr         r0, [pc, #0x1E8]
  0051c	eb000000	 bl          NKDbgPrintfW
  00520	e3a03001	 mov         r3, #1
  00524	e58d3044	 str         r3, [sp, #0x44]
  00528	ea000001	 b           |$LN12@ReadGenera|
  0052c		 |$LN11@ReadGenera|
  0052c	e3a03000	 mov         r3, #0
  00530	e58d3044	 str         r3, [sp, #0x44]
  00534		 |$LN12@ReadGenera|

; 301  :     
; 302  :     UINT8 val;
; 303  :     UINT8 counter;
; 304  :     UINT16 rgGPRegisters[16];
; 305  :     UINT16 *pGPRegisters = rgGPRegisters;

  00534	e28d3004	 add         r3, sp, #4
  00538	e58d302c	 str         r3, [sp, #0x2C]

; 306  :     DWORD dwReadCount = 0;

  0053c	e3a03000	 mov         r3, #0
  00540	e58d3024	 str         r3, [sp, #0x24]

; 307  : 
; 308  :     // waits for conversion complete
; 309  :     val = 0;

  00544	e3a03000	 mov         r3, #0
  00548	e5cd3030	 strb        r3, [sp, #0x30]

; 310  :     counter = 0;

  0054c	e3a03000	 mov         r3, #0
  00550	e5cd3028	 strb        r3, [sp, #0x28]
  00554		 |$LN8@ReadGenera|

; 311  :     while (counter++ < 0xFF)

  00554	e5dd3028	 ldrb        r3, [sp, #0x28]
  00558	e35300ff	 cmp         r3, #0xFF
  0055c	e5dd3028	 ldrb        r3, [sp, #0x28]
  00560	e2833001	 add         r3, r3, #1
  00564	e20330ff	 and         r3, r3, #0xFF
  00568	e5cd3028	 strb        r3, [sp, #0x28]
  0056c	aa00000e	 bge         |$LN7@ReadGenera|

; 312  :         {
; 313  :         TWLReadRegs(pDevice->hTWL, TWL_CTRL_SW1, &val, 1);

  00570	e3a03001	 mov         r3, #1
  00574	e28d2030	 add         r2, sp, #0x30
  00578	e3a01802	 mov         r1, #2, 16
  0057c	e3811012	 orr         r1, r1, #0x12
  00580	e59d005c	 ldr         r0, [sp, #0x5C]
  00584	e2800018	 add         r0, r0, #0x18
  00588	e5900000	 ldr         r0, [r0]
  0058c	eb000000	 bl          TWLReadRegs

; 314  :         if (val & TWL_MADC_CTRL_SW_EOC_SW1)

  00590	e5dd3030	 ldrb        r3, [sp, #0x30]
  00594	e3130002	 tst         r3, #2
  00598	0a000000	 beq         |$LN6@ReadGenera|

; 315  :             {
; 316  :             break;

  0059c	ea000002	 b           |$LN7@ReadGenera|
  005a0		 |$LN6@ReadGenera|

; 317  :             }
; 318  :         StallExecution(10);

  005a0	e3a0000a	 mov         r0, #0xA
  005a4	eb000000	 bl          StallExecution

; 319  :         }

  005a8	eaffffe9	 b           |$LN8@ReadGenera|
  005ac		 |$LN7@ReadGenera|

; 320  : 
; 321  :     // read to results of the general purpose lines    
; 322  :     if (TWLReadRegs(pDevice->hTWL, TWL_GPCH0_LSB, rgGPRegisters, 
; 323  :         sizeof(rgGPRegisters)) == FALSE)

  005ac	e3a03020	 mov         r3, #0x20
  005b0	e28d2004	 add         r2, sp, #4
  005b4	e3a01802	 mov         r1, #2, 16
  005b8	e3811037	 orr         r1, r1, #0x37
  005bc	e59d005c	 ldr         r0, [sp, #0x5C]
  005c0	e2800018	 add         r0, r0, #0x18
  005c4	e5900000	 ldr         r0, [r0]
  005c8	eb000000	 bl          TWLReadRegs
  005cc	e58d0048	 str         r0, [sp, #0x48]
  005d0	e59d3048	 ldr         r3, [sp, #0x48]
  005d4	e3530000	 cmp         r3, #0
  005d8	1a00000c	 bne         |$LN5@ReadGenera|

; 324  :         {
; 325  :         DEBUGMSG(ZONE_ERROR, (L"ADC: !ERROR - ReadGeneralPurposeLines: "
; 326  :             L"Failed writing start conversion\r\n"
; 327  :             ));

  005dc	e59f311c	 ldr         r3, [pc, #0x11C]
  005e0	e5933440	 ldr         r3, [r3, #0x440]
  005e4	e3130001	 tst         r3, #1
  005e8	0a000004	 beq         |$LN13@ReadGenera|
  005ec	e59f0110	 ldr         r0, [pc, #0x110]
  005f0	eb000000	 bl          NKDbgPrintfW
  005f4	e3a03001	 mov         r3, #1
  005f8	e58d304c	 str         r3, [sp, #0x4C]
  005fc	ea000001	 b           |$LN14@ReadGenera|
  00600		 |$LN13@ReadGenera|
  00600	e3a03000	 mov         r3, #0
  00604	e58d304c	 str         r3, [sp, #0x4C]
  00608		 |$LN14@ReadGenera|

; 328  :         goto cleanUp;

  00608	ea000023	 b           |$LN4@ReadGenera|
  0060c	ea000022	 b           |$cleanUp$36073|
  00610		 |$LN5@ReadGenera|

; 329  :         }
; 330  : 
; 331  :     // copy raw results into return buffer
; 332  :     counter = 0;

  00610	e3a03000	 mov         r3, #0
  00614	e5cd3028	 strb        r3, [sp, #0x28]
  00618		 |$LN3@ReadGenera|

; 333  :     while (counter < count && channels)

  00618	e5dd2028	 ldrb        r2, [sp, #0x28]
  0061c	e59d3068	 ldr         r3, [sp, #0x68]
  00620	e1520003	 cmp         r2, r3
  00624	2a00001a	 bcs         |$LN2@ReadGenera|
  00628	e1dd36b0	 ldrh        r3, [sp, #0x60]
  0062c	e3530000	 cmp         r3, #0
  00630	0a000017	 beq         |$LN2@ReadGenera|

; 334  :         {
; 335  :         if (channels & 1)

  00634	e1dd36b0	 ldrh        r3, [sp, #0x60]
  00638	e3130001	 tst         r3, #1
  0063c	0a00000b	 beq         |$LN1@ReadGenera|

; 336  :             {
; 337  :             // read raw value
; 338  :             *prgResults = *pGPRegisters >> 6;

  00640	e59d302c	 ldr         r3, [sp, #0x2C]
  00644	e1d330b0	 ldrh        r3, [r3]
  00648	e1a02343	 mov         r2, r3, asr #6
  0064c	e59d3064	 ldr         r3, [sp, #0x64]
  00650	e5832000	 str         r2, [r3]

; 339  : 
; 340  :             // move to next result and increment counter
; 341  :             ++prgResults;

  00654	e59d3064	 ldr         r3, [sp, #0x64]
  00658	e2833004	 add         r3, r3, #4
  0065c	e58d3064	 str         r3, [sp, #0x64]

; 342  :             ++counter;

  00660	e5dd3028	 ldrb        r3, [sp, #0x28]
  00664	e2833001	 add         r3, r3, #1
  00668	e20330ff	 and         r3, r3, #0xFF
  0066c	e5cd3028	 strb        r3, [sp, #0x28]
  00670		 |$LN1@ReadGenera|

; 343  :             }
; 344  :         pGPRegisters++;

  00670	e59d302c	 ldr         r3, [sp, #0x2C]
  00674	e2833002	 add         r3, r3, #2
  00678	e58d302c	 str         r3, [sp, #0x2C]

; 345  :         channels >>= 1;

  0067c	e1dd36b0	 ldrh        r3, [sp, #0x60]
  00680	e1a030a3	 mov         r3, r3, lsr #1
  00684	e1a03803	 mov         r3, r3, lsl #16
  00688	e1a03823	 mov         r3, r3, lsr #16
  0068c	e1cd36b0	 strh        r3, [sp, #0x60]

; 346  :         }

  00690	eaffffe0	 b           |$LN3@ReadGenera|
  00694		 |$LN2@ReadGenera|

; 347  :     
; 348  :     // return number of values read
; 349  :     dwReadCount = counter;

  00694	e5dd3028	 ldrb        r3, [sp, #0x28]
  00698	e58d3024	 str         r3, [sp, #0x24]
  0069c		 |$LN4@ReadGenera|
  0069c		 |$cleanUp$36073|

; 350  : 
; 351  : cleanUp:    
; 352  :     DEBUGMSG(ZONE_FUNCTION, (
; 353  :         L"ADC: -ReadGeneralPurposeLines(0x%08x, 0x%08x, 0x%08x, 0x%08x)\r\n", 
; 354  :         pDevice, channels, prgResults, count
; 355  :         ));

  0069c	e59f305c	 ldr         r3, [pc, #0x5C]
  006a0	e5933440	 ldr         r3, [r3, #0x440]
  006a4	e3130004	 tst         r3, #4
  006a8	0a000009	 beq         |$LN15@ReadGenera|
  006ac	e59d3068	 ldr         r3, [sp, #0x68]
  006b0	e58d3000	 str         r3, [sp]
  006b4	e59d3064	 ldr         r3, [sp, #0x64]
  006b8	e1dd26b0	 ldrh        r2, [sp, #0x60]
  006bc	e59d105c	 ldr         r1, [sp, #0x5C]
  006c0	e59f0034	 ldr         r0, [pc, #0x34]
  006c4	eb000000	 bl          NKDbgPrintfW
  006c8	e3a03001	 mov         r3, #1
  006cc	e58d3050	 str         r3, [sp, #0x50]
  006d0	ea000001	 b           |$LN16@ReadGenera|
  006d4		 |$LN15@ReadGenera|
  006d4	e3a03000	 mov         r3, #0
  006d8	e58d3050	 str         r3, [sp, #0x50]
  006dc		 |$LN16@ReadGenera|

; 356  : 
; 357  :     return dwReadCount;

  006dc	e59d0034	 ldr         r0, [sp, #0x34]
  006e0	eb000000	 bl          __security_check_cookie
  006e4	e59d3024	 ldr         r3, [sp, #0x24]
  006e8	e58d3040	 str         r3, [sp, #0x40]

; 358  : }

  006ec	e59d0040	 ldr         r0, [sp, #0x40]
  006f0	e28dd054	 add         sp, sp, #0x54
  006f4	e89d6000	 ldmia       sp, {sp, lr}
  006f8	e12fff1e	 bx          lr
  006fc		 |$LN20@ReadGenera|
  006fc		 |$LN21@ReadGenera|
  006fc	00000000	 DCD         |??_C@_1IA@JPOIBLFH@?$AAA?$AAD?$AAC?$AA?3?$AA?5?$AA?9?$AAR?$AAe?$AAa?$AAd?$AAG?$AAe?$AAn?$AAe?$AAr?$AAa?$AAl?$AAP?$AAu?$AAr?$AAp?$AAo?$AAs?$AAe?$AAL?$AAi?$AAn?$AAe?$AAs?$AA?$CI?$AA0?$AAx@|
  00700		 |$LN22@ReadGenera|
  00700	00000000	 DCD         |dpCurSettings|
  00704		 |$LN23@ReadGenera|
  00704	00000000	 DCD         |??_C@_1JC@JMJKMGED@?$AAA?$AAD?$AAC?$AA?3?$AA?5?$AA?$CB?$AAE?$AAR?$AAR?$AAO?$AAR?$AA?5?$AA?9?$AA?5?$AAR?$AAe?$AAa?$AAd?$AAG?$AAe?$AAn?$AAe?$AAr?$AAa?$AAl?$AAP?$AAu?$AAr?$AAp?$AAo?$AAs?$AAe@|
  00708		 |$LN24@ReadGenera|
  00708	00000000	 DCD         |??_C@_1IA@DCNPJDDB@?$AAA?$AAD?$AAC?$AA?3?$AA?5?$AA?$CL?$AAR?$AAe?$AAa?$AAd?$AAG?$AAe?$AAn?$AAe?$AAr?$AAa?$AAl?$AAP?$AAu?$AAr?$AAp?$AAo?$AAs?$AAe?$AAL?$AAi?$AAn?$AAe?$AAs?$AA?$CI?$AA0?$AAx@|
  0070c		 |$LN25@ReadGenera|
  0070c	00000000	 DCD         |__security_cookie|
  00710		 |$M36407|

			 ENDP  ; |?ReadGeneralPurposeLines@@YAKPAUDevice_t@@GPAKK@Z|, ReadGeneralPurposeLines

	EXPORT	|??_C@_1GE@LFMBFFDK@?$AAA?$AAD?$AAC?$AA?3?$AA?5?$AA?9?$AAR?$AAe?$AAa?$AAd?$AAV?$AAa?$AAl?$AAu?$AAe?$AA?$CI?$AA0?$AAx?$AA?$CF?$AA0?$AA8?$AAx?$AA?0?$AA?5?$AA0?$AAx?$AA?$CF?$AA0?$AA8?$AAx?$AA?0?$AA?5@| [ DATA ] ; `string'
	EXPORT	|??_C@_1GI@CLLDNMD@?$AAA?$AAD?$AAC?$AA?3?$AA?5?$AA?$CB?$AAE?$AAR?$AAR?$AAO?$AAR?$AA?5?$AA?9?$AA?5?$AAR?$AAe?$AAa?$AAd?$AAV?$AAa?$AAl?$AAu?$AAe?$AA?3?$AA?5?$AAU?$AAn?$AAa?$AAb?$AAl?$AAe?$AA?5@| [ DATA ] ; `string'
	EXPORT	|??_C@_1IA@GGBCLHCN@?$AAA?$AAD?$AAC?$AA?3?$AA?5?$AA?$CB?$AAE?$AAR?$AAR?$AAO?$AAR?$AA?5?$AA?9?$AA?5?$AAR?$AAe?$AAa?$AAd?$AAV?$AAa?$AAl?$AAu?$AAe?$AA?3?$AA?5?$AAU?$AAn?$AAa?$AAb?$AAl?$AAe?$AA?5@| [ DATA ] ; `string'
	EXPORT	|??_C@_1IM@LMFNCBOC@?$AAA?$AAD?$AAC?$AA?3?$AA?5?$AA?$CB?$AAE?$AAR?$AAR?$AAO?$AAR?$AA?5?$AA?9?$AA?5?$AAR?$AAe?$AAa?$AAd?$AAG?$AAe?$AAn?$AAe?$AAr?$AAa?$AAl?$AAP?$AAu?$AAr?$AAp?$AAo?$AAs?$AAe@| [ DATA ] ; `string'
	EXPORT	|??_C@_1GG@KMLKMMHP@?$AAA?$AAD?$AAC?$AA?3?$AA?5?$AA?$CB?$AAE?$AAR?$AAR?$AAO?$AAR?$AA?5?$AA?9?$AA?5?$AAR?$AAe?$AAa?$AAd?$AAV?$AAa?$AAl?$AAu?$AAe?$AA?3?$AA?5?$AAU?$AAn?$AAa?$AAb?$AAl?$AAe?$AA?5@| [ DATA ] ; `string'
	EXPORT	|??_C@_1GE@JCEAOMPL@?$AAA?$AAD?$AAC?$AA?3?$AA?5?$AA?$CL?$AAR?$AAe?$AAa?$AAd?$AAV?$AAa?$AAl?$AAu?$AAe?$AA?$CI?$AA0?$AAx?$AA?$CF?$AA0?$AA8?$AAx?$AA?0?$AA?5?$AA0?$AAx?$AA?$CF?$AA0?$AA8?$AAx?$AA?0?$AA?5@| [ DATA ] ; `string'
	EXPORT	|?ReadValue@@YAKKKPAKK@Z|		; ReadValue
	IMPORT	|LeaveCriticalSection|
	IMPORT	|TWLWriteRegs|
	IMPORT	|EnterCriticalSection|

  00018			 AREA	 |.pdata|, PDATA
|$T36439| DCD	|$LN37@ReadValue|
	DCD	0x40011504

  00000			 AREA	 |.rdata|, DATA, READONLY
|??_C@_1GE@LFMBFFDK@?$AAA?$AAD?$AAC?$AA?3?$AA?5?$AA?9?$AAR?$AAe?$AAa?$AAd?$AAV?$AAa?$AAl?$AAu?$AAe?$AA?$CI?$AA0?$AAx?$AA?$CF?$AA0?$AA8?$AAx?$AA?0?$AA?5?$AA0?$AAx?$AA?$CF?$AA0?$AA8?$AAx?$AA?0?$AA?5@| DCB "A"
	DCB	0x0, "D", 0x0, "C", 0x0, ":", 0x0, " ", 0x0, "-", 0x0, "R"
	DCB	0x0, "e", 0x0, "a", 0x0, "d", 0x0, "V", 0x0, "a", 0x0, "l"
	DCB	0x0, "u", 0x0, "e", 0x0, "(", 0x0, "0", 0x0, "x", 0x0, "%"
	DCB	0x0, "0", 0x0, "8", 0x0, "x", 0x0, ",", 0x0, " ", 0x0, "0"
	DCB	0x0, "x", 0x0, "%", 0x0, "0", 0x0, "8", 0x0, "x", 0x0, ","
	DCB	0x0, " ", 0x0, "0", 0x0, "x", 0x0, "%", 0x0, "0", 0x0, "8"
	DCB	0x0, "x", 0x0, ",", 0x0, " ", 0x0, "0", 0x0, "x", 0x0, "%"
	DCB	0x0, "0", 0x0, "8", 0x0, "x", 0x0, ")", 0x0, 0xd, 0x0, 0xa
	DCB	0x0, 0x0, 0x0				; `string'

  00000			 AREA	 |.rdata|, DATA, READONLY
|??_C@_1GI@CLLDNMD@?$AAA?$AAD?$AAC?$AA?3?$AA?5?$AA?$CB?$AAE?$AAR?$AAR?$AAO?$AAR?$AA?5?$AA?9?$AA?5?$AAR?$AAe?$AAa?$AAd?$AAV?$AAa?$AAl?$AAu?$AAe?$AA?3?$AA?5?$AAU?$AAn?$AAa?$AAb?$AAl?$AAe?$AA?5@| DCB "A"
	DCB	0x0, "D", 0x0, "C", 0x0, ":", 0x0, " ", 0x0, "!", 0x0, "E"
	DCB	0x0, "R", 0x0, "R", 0x0, "O", 0x0, "R", 0x0, " ", 0x0, "-"
	DCB	0x0, " ", 0x0, "R", 0x0, "e", 0x0, "a", 0x0, "d", 0x0, "V"
	DCB	0x0, "a", 0x0, "l", 0x0, "u", 0x0, "e", 0x0, ":", 0x0, " "
	DCB	0x0, "U", 0x0, "n", 0x0, "a", 0x0, "b", 0x0, "l", 0x0, "e"
	DCB	0x0, " ", 0x0, "t", 0x0, "o", 0x0, " ", 0x0, "r", 0x0, "e"
	DCB	0x0, "a", 0x0, "d", 0x0, " ", 0x0, "B", 0x0, "C", 0x0, "I"
	DCB	0x0, " ", 0x0, "l", 0x0, "i", 0x0, "n", 0x0, "e", 0x0, "s"
	DCB	0x0, 0xd, 0x0, 0xa, 0x0, 0x0, 0x0	; `string'

  00000			 AREA	 |.rdata|, DATA, READONLY
|??_C@_1IA@GGBCLHCN@?$AAA?$AAD?$AAC?$AA?3?$AA?5?$AA?$CB?$AAE?$AAR?$AAR?$AAO?$AAR?$AA?5?$AA?9?$AA?5?$AAR?$AAe?$AAa?$AAd?$AAV?$AAa?$AAl?$AAu?$AAe?$AA?3?$AA?5?$AAU?$AAn?$AAa?$AAb?$AAl?$AAe?$AA?5@| DCB "A"
	DCB	0x0, "D", 0x0, "C", 0x0, ":", 0x0, " ", 0x0, "!", 0x0, "E"
	DCB	0x0, "R", 0x0, "R", 0x0, "O", 0x0, "R", 0x0, " ", 0x0, "-"
	DCB	0x0, " ", 0x0, "R", 0x0, "e", 0x0, "a", 0x0, "d", 0x0, "V"
	DCB	0x0, "a", 0x0, "l", 0x0, "u", 0x0, "e", 0x0, ":", 0x0, " "
	DCB	0x0, "U", 0x0, "n", 0x0, "a", 0x0, "b", 0x0, "l", 0x0, "e"
	DCB	0x0, " ", 0x0, "t", 0x0, "o", 0x0, " ", 0x0, "r", 0x0, "e"
	DCB	0x0, "a", 0x0, "d", 0x0, " ", 0x0, "g", 0x0, "e", 0x0, "n"
	DCB	0x0, "e", 0x0, "r", 0x0, "a", 0x0, "l", 0x0, " ", 0x0, "p"
	DCB	0x0, "u", 0x0, "r", 0x0, "p", 0x0, "o", 0x0, "s", 0x0, "e"
	DCB	0x0, " ", 0x0, "l", 0x0, "i", 0x0, "n", 0x0, "e", 0x0, "s"
	DCB	0x0, 0xd, 0x0, 0xa, 0x0, 0x0, 0x0	; `string'

  00000			 AREA	 |.rdata|, DATA, READONLY
|??_C@_1IM@LMFNCBOC@?$AAA?$AAD?$AAC?$AA?3?$AA?5?$AA?$CB?$AAE?$AAR?$AAR?$AAO?$AAR?$AA?5?$AA?9?$AA?5?$AAR?$AAe?$AAa?$AAd?$AAG?$AAe?$AAn?$AAe?$AAr?$AAa?$AAl?$AAP?$AAu?$AAr?$AAp?$AAo?$AAs?$AAe@| DCB "A"
	DCB	0x0, "D", 0x0, "C", 0x0, ":", 0x0, " ", 0x0, "!", 0x0, "E"
	DCB	0x0, "R", 0x0, "R", 0x0, "O", 0x0, "R", 0x0, " ", 0x0, "-"
	DCB	0x0, " ", 0x0, "R", 0x0, "e", 0x0, "a", 0x0, "d", 0x0, "G"
	DCB	0x0, "e", 0x0, "n", 0x0, "e", 0x0, "r", 0x0, "a", 0x0, "l"
	DCB	0x0, "P", 0x0, "u", 0x0, "r", 0x0, "p", 0x0, "o", 0x0, "s"
	DCB	0x0, "e", 0x0, "L", 0x0, "i", 0x0, "n", 0x0, "e", 0x0, "s"
	DCB	0x0, ":", 0x0, " ", 0x0, "F", 0x0, "a", 0x0, "i", 0x0, "l"
	DCB	0x0, "e", 0x0, "d", 0x0, " ", 0x0, "w", 0x0, "r", 0x0, "i"
	DCB	0x0, "t", 0x0, "i", 0x0, "n", 0x0, "g", 0x0, " ", 0x0, "s"
	DCB	0x0, "w", 0x0, "1", 0x0, " ", 0x0, "s", 0x0, "e", 0x0, "l"
	DCB	0x0, "e", 0x0, "c", 0x0, "t", 0x0, "i", 0x0, "o", 0x0, "n"
	DCB	0x0, 0xd, 0x0, 0xa, 0x0, 0x0, 0x0	; `string'

  00000			 AREA	 |.rdata|, DATA, READONLY
|??_C@_1GG@KMLKMMHP@?$AAA?$AAD?$AAC?$AA?3?$AA?5?$AA?$CB?$AAE?$AAR?$AAR?$AAO?$AAR?$AA?5?$AA?9?$AA?5?$AAR?$AAe?$AAa?$AAd?$AAV?$AAa?$AAl?$AAu?$AAe?$AA?3?$AA?5?$AAU?$AAn?$AAa?$AAb?$AAl?$AAe?$AA?5@| DCB "A"
	DCB	0x0, "D", 0x0, "C", 0x0, ":", 0x0, " ", 0x0, "!", 0x0, "E"
	DCB	0x0, "R", 0x0, "R", 0x0, "O", 0x0, "R", 0x0, " ", 0x0, "-"
	DCB	0x0, " ", 0x0, "R", 0x0, "e", 0x0, "a", 0x0, "d", 0x0, "V"
	DCB	0x0, "a", 0x0, "l", 0x0, "u", 0x0, "e", 0x0, ":", 0x0, " "
	DCB	0x0, "U", 0x0, "n", 0x0, "a", 0x0, "b", 0x0, "l", 0x0, "e"
	DCB	0x0, " ", 0x0, "t", 0x0, "o", 0x0, " ", 0x0, "e", 0x0, "n"
	DCB	0x0, "a", 0x0, "b", 0x0, "l", 0x0, "e", 0x0, " ", 0x0, "M"
	DCB	0x0, "A", 0x0, "D", 0x0, "C", 0x0, "O", 0x0, "N", 0x0, 0xd
	DCB	0x0, 0xa, 0x0, 0x0, 0x0			; `string'

  00000			 AREA	 |.rdata|, DATA, READONLY
|??_C@_1GE@JCEAOMPL@?$AAA?$AAD?$AAC?$AA?3?$AA?5?$AA?$CL?$AAR?$AAe?$AAa?$AAd?$AAV?$AAa?$AAl?$AAu?$AAe?$AA?$CI?$AA0?$AAx?$AA?$CF?$AA0?$AA8?$AAx?$AA?0?$AA?5?$AA0?$AAx?$AA?$CF?$AA0?$AA8?$AAx?$AA?0?$AA?5@| DCB "A"
	DCB	0x0, "D", 0x0, "C", 0x0, ":", 0x0, " ", 0x0, "+", 0x0, "R"
	DCB	0x0, "e", 0x0, "a", 0x0, "d", 0x0, "V", 0x0, "a", 0x0, "l"
	DCB	0x0, "u", 0x0, "e", 0x0, "(", 0x0, "0", 0x0, "x", 0x0, "%"
	DCB	0x0, "0", 0x0, "8", 0x0, "x", 0x0, ",", 0x0, " ", 0x0, "0"
	DCB	0x0, "x", 0x0, "%", 0x0, "0", 0x0, "8", 0x0, "x", 0x0, ","
	DCB	0x0, " ", 0x0, "0", 0x0, "x", 0x0, "%", 0x0, "0", 0x0, "8"
	DCB	0x0, "x", 0x0, ",", 0x0, " ", 0x0, "0", 0x0, "x", 0x0, "%"
	DCB	0x0, "0", 0x0, "8", 0x0, "x", 0x0, ")", 0x0, 0xd, 0x0, 0xa
	DCB	0x0, 0x0, 0x0				; `string'
; Function compile flags: /Odtp

  00710			 AREA	 |.text|, CODE, ARM

  00710		 |?ReadValue@@YAKKKPAKK@Z| PROC		; ReadValue

; 374  : {

  00710		 |$LN37@ReadValue|
  00710	e1a0c00d	 mov         r12, sp
  00714	e92d000f	 stmdb       sp!, {r0 - r3}
  00718	e92d5000	 stmdb       sp!, {r12, lr}
  0071c	e24dd05c	 sub         sp, sp, #0x5C
  00720		 |$M36436|

; 375  :     DEBUGMSG(ZONE_FUNCTION, (
; 376  :         L"ADC: +ReadValue(0x%08x, 0x%08x, 0x%08x, 0x%08x)\r\n", 
; 377  :         context, mask, prgResults, count
; 378  :         ));

  00720	e59f3418	 ldr         r3, [pc, #0x418]
  00724	e5933440	 ldr         r3, [r3, #0x440]
  00728	e3130004	 tst         r3, #4
  0072c	0a000009	 beq         |$LN19@ReadValue|
  00730	e59d3070	 ldr         r3, [sp, #0x70]
  00734	e58d3000	 str         r3, [sp]
  00738	e59d306c	 ldr         r3, [sp, #0x6C]
  0073c	e59d2068	 ldr         r2, [sp, #0x68]
  00740	e59d1064	 ldr         r1, [sp, #0x64]
  00744	e59f0414	 ldr         r0, [pc, #0x414]
  00748	eb000000	 bl          NKDbgPrintfW
  0074c	e3a03001	 mov         r3, #1
  00750	e58d3028	 str         r3, [sp, #0x28]
  00754	ea000001	 b           |$LN20@ReadValue|
  00758		 |$LN19@ReadValue|
  00758	e3a03000	 mov         r3, #0
  0075c	e58d3028	 str         r3, [sp, #0x28]
  00760		 |$LN20@ReadValue|

; 379  : 
; 380  :     UINT8 pwr;
; 381  :     UINT8 val;
; 382  :     int readCount;
; 383  :     UINT16 channels;
; 384  :     DWORD rc = 0;

  00760	e3a03000	 mov         r3, #0
  00764	e58d3008	 str         r3, [sp, #8]

; 385  :     BOOL bLocked = FALSE;

  00768	e3a03000	 mov         r3, #0
  0076c	e58d3010	 str         r3, [sp, #0x10]

; 386  :     Device_t *pDevice = (Device_t*)context;

  00770	e59d3064	 ldr         r3, [sp, #0x64]
  00774	e58d3004	 str         r3, [sp, #4]

; 387  : 
; 388  :     // do some sanity checks
; 389  :     if ((pDevice == NULL) || (pDevice->cookie != MADC_DEVICE_COOKIE) || 
; 390  :         prgResults == NULL || count == 0)

  00778	e59d3004	 ldr         r3, [sp, #4]
  0077c	e3530000	 cmp         r3, #0
  00780	0a00000a	 beq         |$LN15@ReadValue|
  00784	e59d3004	 ldr         r3, [sp, #4]
  00788	e5932000	 ldr         r2, [r3]
  0078c	e59f33c8	 ldr         r3, [pc, #0x3C8]
  00790	e1520003	 cmp         r2, r3
  00794	1a000005	 bne         |$LN15@ReadValue|
  00798	e59d306c	 ldr         r3, [sp, #0x6C]
  0079c	e3530000	 cmp         r3, #0
  007a0	0a000002	 beq         |$LN15@ReadValue|
  007a4	e59d3070	 ldr         r3, [sp, #0x70]
  007a8	e3530000	 cmp         r3, #0
  007ac	1a00000c	 bne         |$LN16@ReadValue|
  007b0		 |$LN15@ReadValue|

; 391  :         {
; 392  :         DEBUGMSG(ZONE_ERROR, (L"ADC: !ERROR - ReadValue: "
; 393  :             L"Incorrect context parameter\r\n"
; 394  :             ));

  007b0	e59f3388	 ldr         r3, [pc, #0x388]
  007b4	e5933440	 ldr         r3, [r3, #0x440]
  007b8	e3130001	 tst         r3, #1
  007bc	0a000004	 beq         |$LN21@ReadValue|
  007c0	e59f0390	 ldr         r0, [pc, #0x390]
  007c4	eb000000	 bl          NKDbgPrintfW
  007c8	e3a03001	 mov         r3, #1
  007cc	e58d302c	 str         r3, [sp, #0x2C]
  007d0	ea000001	 b           |$LN22@ReadValue|
  007d4		 |$LN21@ReadValue|
  007d4	e3a03000	 mov         r3, #0
  007d8	e58d302c	 str         r3, [sp, #0x2C]
  007dc		 |$LN22@ReadValue|

; 395  :         goto cleanUp;

  007dc	ea0000b1	 b           |$LN14@ReadValue|
  007e0	ea0000b0	 b           |$cleanUp$36100|
  007e4		 |$LN16@ReadValue|

; 396  :         }
; 397  : 
; 398  :     // serialize access
; 399  :     bLocked = TRUE;

  007e4	e3a03001	 mov         r3, #1
  007e8	e58d3010	 str         r3, [sp, #0x10]

; 400  :     EnterCriticalSection(&pDevice->cs);

  007ec	e59d3004	 ldr         r3, [sp, #4]
  007f0	e2830004	 add         r0, r3, #4
  007f4	eb000000	 bl          EnterCriticalSection

; 401  : 
; 402  :     // power on MADC
; 403  :     pwr = MADCON;

  007f8	e3a03001	 mov         r3, #1
  007fc	e5cd3014	 strb        r3, [sp, #0x14]

; 404  :     if (TWLWriteRegs(pDevice->hTWL, TWL_CTRL1, &pwr, 1) == FALSE)

  00800	e3a03001	 mov         r3, #1
  00804	e28d2014	 add         r2, sp, #0x14
  00808	e3a01802	 mov         r1, #2, 16
  0080c	e59d0004	 ldr         r0, [sp, #4]
  00810	e2800018	 add         r0, r0, #0x18
  00814	e5900000	 ldr         r0, [r0]
  00818	eb000000	 bl          TWLWriteRegs
  0081c	e58d0030	 str         r0, [sp, #0x30]
  00820	e59d3030	 ldr         r3, [sp, #0x30]
  00824	e3530000	 cmp         r3, #0
  00828	1a00000c	 bne         |$LN13@ReadValue|

; 405  :         {
; 406  :         DEBUGMSG(ZONE_ERROR, (L"ADC: !ERROR - ReadValue: "
; 407  :             L"Unable to enable MADCON\r\n"
; 408  :             ));

  0082c	e59f330c	 ldr         r3, [pc, #0x30C]
  00830	e5933440	 ldr         r3, [r3, #0x440]
  00834	e3130001	 tst         r3, #1
  00838	0a000004	 beq         |$LN23@ReadValue|
  0083c	e59f0310	 ldr         r0, [pc, #0x310]
  00840	eb000000	 bl          NKDbgPrintfW
  00844	e3a03001	 mov         r3, #1
  00848	e58d3034	 str         r3, [sp, #0x34]
  0084c	ea000001	 b           |$LN24@ReadValue|
  00850		 |$LN23@ReadValue|
  00850	e3a03000	 mov         r3, #0
  00854	e58d3034	 str         r3, [sp, #0x34]
  00858		 |$LN24@ReadValue|

; 409  :         goto cleanUp;

  00858	ea000092	 b           |$LN12@ReadValue|
  0085c	ea000091	 b           |$cleanUp$36100|
  00860		 |$LN13@ReadValue|

; 410  :         }
; 411  : 
; 412  :     // select the channels for conversion 
; 413  :     channels = (UINT16)(mask & 0xFFFF);

  00860	e59d2068	 ldr         r2, [sp, #0x68]
  00864	e3a03cff	 mov         r3, #0xFF, 24
  00868	e38330ff	 orr         r3, r3, #0xFF
  0086c	e0023003	 and         r3, r2, r3
  00870	e1a03803	 mov         r3, r3, lsl #16
  00874	e1a03823	 mov         r3, r3, lsr #16
  00878	e1cd31b6	 strh        r3, [sp, #0x16]

; 414  :     if (TWLWriteRegs(pDevice->hTWL, TWL_SW1SELECT_LSB, &channels, 2) == FALSE)

  0087c	e3a03002	 mov         r3, #2
  00880	e28d2016	 add         r2, sp, #0x16
  00884	e3a01802	 mov         r1, #2, 16
  00888	e3811006	 orr         r1, r1, #6
  0088c	e59d0004	 ldr         r0, [sp, #4]
  00890	e2800018	 add         r0, r0, #0x18
  00894	e5900000	 ldr         r0, [r0]
  00898	eb000000	 bl          TWLWriteRegs
  0089c	e58d0038	 str         r0, [sp, #0x38]
  008a0	e59d3038	 ldr         r3, [sp, #0x38]
  008a4	e3530000	 cmp         r3, #0
  008a8	1a00000c	 bne         |$LN11@ReadValue|

; 415  :         {
; 416  :         DEBUGMSG(ZONE_ERROR, (L"ADC: !ERROR - ReadGeneralPurposeLines: "
; 417  :             L"Failed writing sw1 selection\r\n"
; 418  :             ));

  008ac	e59f328c	 ldr         r3, [pc, #0x28C]
  008b0	e5933440	 ldr         r3, [r3, #0x440]
  008b4	e3130001	 tst         r3, #1
  008b8	0a000004	 beq         |$LN25@ReadValue|
  008bc	e59f028c	 ldr         r0, [pc, #0x28C]
  008c0	eb000000	 bl          NKDbgPrintfW
  008c4	e3a03001	 mov         r3, #1
  008c8	e58d303c	 str         r3, [sp, #0x3C]
  008cc	ea000001	 b           |$LN26@ReadValue|
  008d0		 |$LN25@ReadValue|
  008d0	e3a03000	 mov         r3, #0
  008d4	e58d303c	 str         r3, [sp, #0x3C]
  008d8		 |$LN26@ReadValue|

; 419  :         goto cleanUp;

  008d8	ea000072	 b           |$LN10@ReadValue|
  008dc	ea000071	 b           |$cleanUp$36100|
  008e0		 |$LN11@ReadValue|

; 420  :         }
; 421  : 
; 422  :     // start conversion
; 423  :     val = TWL_MADC_CTRL_SW_TOGGLE;

  008e0	e3a03020	 mov         r3, #0x20
  008e4	e5cd3018	 strb        r3, [sp, #0x18]

; 424  :     if (TWLWriteRegs(pDevice->hTWL, TWL_CTRL_SW1, &val, 1) == FALSE)

  008e8	e3a03001	 mov         r3, #1
  008ec	e28d2018	 add         r2, sp, #0x18
  008f0	e3a01802	 mov         r1, #2, 16
  008f4	e3811012	 orr         r1, r1, #0x12
  008f8	e59d0004	 ldr         r0, [sp, #4]
  008fc	e2800018	 add         r0, r0, #0x18
  00900	e5900000	 ldr         r0, [r0]
  00904	eb000000	 bl          TWLWriteRegs
  00908	e58d0040	 str         r0, [sp, #0x40]
  0090c	e59d3040	 ldr         r3, [sp, #0x40]
  00910	e3530000	 cmp         r3, #0
  00914	1a00000c	 bne         |$LN9@ReadValue|

; 425  :         {
; 426  :         DEBUGMSG(ZONE_ERROR, (L"ADC: !ERROR - ReadGeneralPurposeLines: "
; 427  :             L"Failed writing start conversion\r\n"
; 428  :             ));

  00918	e59f3220	 ldr         r3, [pc, #0x220]
  0091c	e5933440	 ldr         r3, [r3, #0x440]
  00920	e3130001	 tst         r3, #1
  00924	0a000004	 beq         |$LN27@ReadValue|
  00928	e59f021c	 ldr         r0, [pc, #0x21C]
  0092c	eb000000	 bl          NKDbgPrintfW
  00930	e3a03001	 mov         r3, #1
  00934	e58d3044	 str         r3, [sp, #0x44]
  00938	ea000001	 b           |$LN28@ReadValue|
  0093c		 |$LN27@ReadValue|
  0093c	e3a03000	 mov         r3, #0
  00940	e58d3044	 str         r3, [sp, #0x44]
  00944		 |$LN28@ReadValue|

; 429  :         goto cleanUp;

  00944	ea000057	 b           |$LN8@ReadValue|
  00948	ea000056	 b           |$cleanUp$36100|
  0094c		 |$LN9@ReadValue|

; 430  :         }
; 431  : 
; 432  : 
; 433  :     // first read general purpose lines
; 434  :     channels = (UINT16)(mask & 0xFFFF);

  0094c	e59d2068	 ldr         r2, [sp, #0x68]
  00950	e3a03cff	 mov         r3, #0xFF, 24
  00954	e38330ff	 orr         r3, r3, #0xFF
  00958	e0023003	 and         r3, r2, r3
  0095c	e1a03803	 mov         r3, r3, lsl #16
  00960	e1a03823	 mov         r3, r3, lsr #16
  00964	e1cd31b6	 strh        r3, [sp, #0x16]

; 435  :     if (channels)

  00968	e1dd31b6	 ldrh        r3, [sp, #0x16]
  0096c	e3530000	 cmp         r3, #0
  00970	0a000025	 beq         |$LN7@ReadValue|

; 436  :         {
; 437  :         readCount = ReadGeneralPurposeLines(pDevice, channels, 
; 438  :                             prgResults, count);

  00974	e59d3070	 ldr         r3, [sp, #0x70]
  00978	e59d206c	 ldr         r2, [sp, #0x6C]
  0097c	e1dd11b6	 ldrh        r1, [sp, #0x16]
  00980	e59d0004	 ldr         r0, [sp, #4]
  00984	eb000000	 bl          |?ReadGeneralPurposeLines@@YAKPAUDevice_t@@GPAKK@Z|
  00988	e58d0048	 str         r0, [sp, #0x48]
  0098c	e59d3048	 ldr         r3, [sp, #0x48]
  00990	e58d300c	 str         r3, [sp, #0xC]

; 439  :         if (readCount == 0)

  00994	e59d300c	 ldr         r3, [sp, #0xC]
  00998	e3530000	 cmp         r3, #0
  0099c	1a00000c	 bne         |$LN6@ReadValue|

; 440  :             {
; 441  :             DEBUGMSG(ZONE_ERROR, (L"ADC: !ERROR - ReadValue: "
; 442  :                 L"Unable to read general purpose lines\r\n"
; 443  :                 ));

  009a0	e59f3198	 ldr         r3, [pc, #0x198]
  009a4	e5933440	 ldr         r3, [r3, #0x440]
  009a8	e3130001	 tst         r3, #1
  009ac	0a000004	 beq         |$LN29@ReadValue|
  009b0	e59f0190	 ldr         r0, [pc, #0x190]
  009b4	eb000000	 bl          NKDbgPrintfW
  009b8	e3a03001	 mov         r3, #1
  009bc	e58d304c	 str         r3, [sp, #0x4C]
  009c0	ea000001	 b           |$LN30@ReadValue|
  009c4		 |$LN29@ReadValue|
  009c4	e3a03000	 mov         r3, #0
  009c8	e58d304c	 str         r3, [sp, #0x4C]
  009cc		 |$LN30@ReadValue|

; 444  :             goto cleanUp;

  009cc	ea000035	 b           |$LN5@ReadValue|
  009d0	ea000034	 b           |$cleanUp$36100|
  009d4		 |$LN6@ReadValue|

; 445  :             }
; 446  : 
; 447  :         // move pointer to next set of 
; 448  :         rc += readCount;

  009d4	e59d2008	 ldr         r2, [sp, #8]
  009d8	e59d300c	 ldr         r3, [sp, #0xC]
  009dc	e0823003	 add         r3, r2, r3
  009e0	e58d3008	 str         r3, [sp, #8]

; 449  :         prgResults += readCount;

  009e4	e59d100c	 ldr         r1, [sp, #0xC]
  009e8	e3a03004	 mov         r3, #4
  009ec	e0020391	 mul         r2, r1, r3
  009f0	e59d306c	 ldr         r3, [sp, #0x6C]
  009f4	e0833002	 add         r3, r3, r2
  009f8	e58d306c	 str         r3, [sp, #0x6C]

; 450  :         count -= readCount;

  009fc	e59d2070	 ldr         r2, [sp, #0x70]
  00a00	e59d300c	 ldr         r3, [sp, #0xC]
  00a04	e0423003	 sub         r3, r2, r3
  00a08	e58d3070	 str         r3, [sp, #0x70]
  00a0c		 |$LN7@ReadValue|

; 451  :         }
; 452  : 
; 453  :     // next read bci lines
; 454  :     channels = (UINT16)(mask >> 16);

  00a0c	e59d3068	 ldr         r3, [sp, #0x68]
  00a10	e1a03823	 mov         r3, r3, lsr #16
  00a14	e1a03803	 mov         r3, r3, lsl #16
  00a18	e1a03823	 mov         r3, r3, lsr #16
  00a1c	e1cd31b6	 strh        r3, [sp, #0x16]

; 455  :     if (channels != 0 && count > 0)

  00a20	e1dd31b6	 ldrh        r3, [sp, #0x16]
  00a24	e3530000	 cmp         r3, #0
  00a28	0a00001e	 beq         |$LN4@ReadValue|
  00a2c	e59d3070	 ldr         r3, [sp, #0x70]
  00a30	e3530000	 cmp         r3, #0
  00a34	9a00001b	 bls         |$LN4@ReadValue|

; 456  :         {
; 457  :         readCount = ReadBCILines(pDevice, channels, 
; 458  :                             prgResults, count);

  00a38	e59d3070	 ldr         r3, [sp, #0x70]
  00a3c	e59d206c	 ldr         r2, [sp, #0x6C]
  00a40	e1dd11b6	 ldrh        r1, [sp, #0x16]
  00a44	e59d0004	 ldr         r0, [sp, #4]
  00a48	eb000000	 bl          |?ReadBCILines@@YAKPAUDevice_t@@GPAKK@Z|
  00a4c	e58d0050	 str         r0, [sp, #0x50]
  00a50	e59d3050	 ldr         r3, [sp, #0x50]
  00a54	e58d300c	 str         r3, [sp, #0xC]

; 459  :         if (readCount == 0)

  00a58	e59d300c	 ldr         r3, [sp, #0xC]
  00a5c	e3530000	 cmp         r3, #0
  00a60	1a00000c	 bne         |$LN3@ReadValue|

; 460  :             {
; 461  :             DEBUGMSG(ZONE_ERROR, (L"ADC: !ERROR - ReadValue: "
; 462  :                 L"Unable to read BCI lines\r\n"
; 463  :                 ));

  00a64	e59f30d4	 ldr         r3, [pc, #0xD4]
  00a68	e5933440	 ldr         r3, [r3, #0x440]
  00a6c	e3130001	 tst         r3, #1
  00a70	0a000004	 beq         |$LN31@ReadValue|
  00a74	e59f00c8	 ldr         r0, [pc, #0xC8]
  00a78	eb000000	 bl          NKDbgPrintfW
  00a7c	e3a03001	 mov         r3, #1
  00a80	e58d3054	 str         r3, [sp, #0x54]
  00a84	ea000001	 b           |$LN32@ReadValue|
  00a88		 |$LN31@ReadValue|
  00a88	e3a03000	 mov         r3, #0
  00a8c	e58d3054	 str         r3, [sp, #0x54]
  00a90		 |$LN32@ReadValue|

; 464  :             goto cleanUp;

  00a90	ea000004	 b           |$LN2@ReadValue|
  00a94	ea000003	 b           |$cleanUp$36100|
  00a98		 |$LN3@ReadValue|

; 465  :             }
; 466  :         rc += readCount;

  00a98	e59d2008	 ldr         r2, [sp, #8]
  00a9c	e59d300c	 ldr         r3, [sp, #0xC]
  00aa0	e0823003	 add         r3, r2, r3
  00aa4	e58d3008	 str         r3, [sp, #8]
  00aa8		 |$LN4@ReadValue|
  00aa8		 |$LN2@ReadValue|
  00aa8		 |$LN5@ReadValue|
  00aa8		 |$LN8@ReadValue|
  00aa8		 |$LN10@ReadValue|
  00aa8		 |$LN12@ReadValue|
  00aa8		 |$LN14@ReadValue|
  00aa8		 |$cleanUp$36100|

; 467  :         }
; 468  : 
; 469  : cleanUp:    
; 470  :     if (bLocked == TRUE) 

  00aa8	e59d3010	 ldr         r3, [sp, #0x10]
  00aac	e3530001	 cmp         r3, #1
  00ab0	1a00000b	 bne         |$LN1@ReadValue|

; 471  :         {
; 472  :         pwr = 0;

  00ab4	e3a03000	 mov         r3, #0
  00ab8	e5cd3014	 strb        r3, [sp, #0x14]

; 473  :         TWLWriteRegs(pDevice->hTWL, TWL_CTRL1, &pwr, 1);

  00abc	e3a03001	 mov         r3, #1
  00ac0	e28d2014	 add         r2, sp, #0x14
  00ac4	e3a01802	 mov         r1, #2, 16
  00ac8	e59d0004	 ldr         r0, [sp, #4]
  00acc	e2800018	 add         r0, r0, #0x18
  00ad0	e5900000	 ldr         r0, [r0]
  00ad4	eb000000	 bl          TWLWriteRegs

; 474  :         LeaveCriticalSection(&pDevice->cs);

  00ad8	e59d3004	 ldr         r3, [sp, #4]
  00adc	e2830004	 add         r0, r3, #4
  00ae0	eb000000	 bl          LeaveCriticalSection
  00ae4		 |$LN1@ReadValue|

; 475  :         }
; 476  : 
; 477  :     DEBUGMSG(ZONE_FUNCTION, (
; 478  :         L"ADC: -ReadValue(0x%08x, 0x%08x, 0x%08x, 0x%08x)\r\n", 
; 479  :         pDevice, mask, prgResults, count
; 480  :         ));

  00ae4	e59f3054	 ldr         r3, [pc, #0x54]
  00ae8	e5933440	 ldr         r3, [r3, #0x440]
  00aec	e3130004	 tst         r3, #4
  00af0	0a000009	 beq         |$LN33@ReadValue|
  00af4	e59d3070	 ldr         r3, [sp, #0x70]
  00af8	e58d3000	 str         r3, [sp]
  00afc	e59d306c	 ldr         r3, [sp, #0x6C]
  00b00	e59d2068	 ldr         r2, [sp, #0x68]
  00b04	e59d1004	 ldr         r1, [sp, #4]
  00b08	e59f002c	 ldr         r0, [pc, #0x2C]
  00b0c	eb000000	 bl          NKDbgPrintfW
  00b10	e3a03001	 mov         r3, #1
  00b14	e58d3058	 str         r3, [sp, #0x58]
  00b18	ea000001	 b           |$LN34@ReadValue|
  00b1c		 |$LN33@ReadValue|
  00b1c	e3a03000	 mov         r3, #0
  00b20	e58d3058	 str         r3, [sp, #0x58]
  00b24		 |$LN34@ReadValue|

; 481  : 
; 482  :     return rc;

  00b24	e59d3008	 ldr         r3, [sp, #8]
  00b28	e58d3024	 str         r3, [sp, #0x24]

; 483  : }

  00b2c	e59d0024	 ldr         r0, [sp, #0x24]
  00b30	e28dd05c	 add         sp, sp, #0x5C
  00b34	e89d6000	 ldmia       sp, {sp, lr}
  00b38	e12fff1e	 bx          lr
  00b3c		 |$LN38@ReadValue|
  00b3c		 |$LN39@ReadValue|
  00b3c	00000000	 DCD         |??_C@_1GE@LFMBFFDK@?$AAA?$AAD?$AAC?$AA?3?$AA?5?$AA?9?$AAR?$AAe?$AAa?$AAd?$AAV?$AAa?$AAl?$AAu?$AAe?$AA?$CI?$AA0?$AAx?$AA?$CF?$AA0?$AA8?$AAx?$AA?0?$AA?5?$AA0?$AAx?$AA?$CF?$AA0?$AA8?$AAx?$AA?0?$AA?5@|
  00b40		 |$LN40@ReadValue|
  00b40	00000000	 DCD         |dpCurSettings|
  00b44		 |$LN41@ReadValue|
  00b44	00000000	 DCD         |??_C@_1GI@CLLDNMD@?$AAA?$AAD?$AAC?$AA?3?$AA?5?$AA?$CB?$AAE?$AAR?$AAR?$AAO?$AAR?$AA?5?$AA?9?$AA?5?$AAR?$AAe?$AAa?$AAd?$AAV?$AAa?$AAl?$AAu?$AAe?$AA?3?$AA?5?$AAU?$AAn?$AAa?$AAb?$AAl?$AAe?$AA?5@|
  00b48		 |$LN42@ReadValue|
  00b48	00000000	 DCD         |??_C@_1IA@GGBCLHCN@?$AAA?$AAD?$AAC?$AA?3?$AA?5?$AA?$CB?$AAE?$AAR?$AAR?$AAO?$AAR?$AA?5?$AA?9?$AA?5?$AAR?$AAe?$AAa?$AAd?$AAV?$AAa?$AAl?$AAu?$AAe?$AA?3?$AA?5?$AAU?$AAn?$AAa?$AAb?$AAl?$AAe?$AA?5@|
  00b4c		 |$LN43@ReadValue|
  00b4c	00000000	 DCD         |??_C@_1JC@JMJKMGED@?$AAA?$AAD?$AAC?$AA?3?$AA?5?$AA?$CB?$AAE?$AAR?$AAR?$AAO?$AAR?$AA?5?$AA?9?$AA?5?$AAR?$AAe?$AAa?$AAd?$AAG?$AAe?$AAn?$AAe?$AAr?$AAa?$AAl?$AAP?$AAu?$AAr?$AAp?$AAo?$AAs?$AAe@|
  00b50		 |$LN44@ReadValue|
  00b50	00000000	 DCD         |??_C@_1IM@LMFNCBOC@?$AAA?$AAD?$AAC?$AA?3?$AA?5?$AA?$CB?$AAE?$AAR?$AAR?$AAO?$AAR?$AA?5?$AA?9?$AA?5?$AAR?$AAe?$AAa?$AAd?$AAG?$AAe?$AAn?$AAe?$AAr?$AAa?$AAl?$AAP?$AAu?$AAr?$AAp?$AAo?$AAs?$AAe@|
  00b54		 |$LN45@ReadValue|
  00b54	00000000	 DCD         |??_C@_1GG@KMLKMMHP@?$AAA?$AAD?$AAC?$AA?3?$AA?5?$AA?$CB?$AAE?$AAR?$AAR?$AAO?$AAR?$AA?5?$AA?9?$AA?5?$AAR?$AAe?$AAa?$AAd?$AAV?$AAa?$AAl?$AAu?$AAe?$AA?3?$AA?5?$AAU?$AAn?$AAa?$AAb?$AAl?$AAe?$AA?5@|
  00b58		 |$LN46@ReadValue|
  00b58	00000000	 DCD         |??_C@_1GO@JHMFEDLF@?$AAA?$AAD?$AAC?$AA?3?$AA?5?$AA?$CB?$AAE?$AAR?$AAR?$AAO?$AAR?$AA?5?$AA?9?$AA?5?$AAR?$AAe?$AAa?$AAd?$AAV?$AAa?$AAl?$AAu?$AAe?$AA?3?$AA?5?$AAI?$AAn?$AAc?$AAo?$AAr?$AAr?$AAe@|
  00b5c		 |$LN47@ReadValue|
  00b5c	61646344	 DCD         0x61646344
  00b60		 |$LN48@ReadValue|
  00b60	00000000	 DCD         |??_C@_1GE@JCEAOMPL@?$AAA?$AAD?$AAC?$AA?3?$AA?5?$AA?$CL?$AAR?$AAe?$AAa?$AAd?$AAV?$AAa?$AAl?$AAu?$AAe?$AA?$CI?$AA0?$AAx?$AA?$CF?$AA0?$AA8?$AAx?$AA?0?$AA?5?$AA0?$AAx?$AA?$CF?$AA0?$AA8?$AAx?$AA?0?$AA?5@|
  00b64		 |$M36437|

			 ENDP  ; |?ReadValue@@YAKKKPAKK@Z|, ReadValue

	EXPORT	|??_C@_1EC@HBDAMLBF@?$AAA?$AAD?$AAC?$AA?3?$AA?5?$AA?9?$AAI?$AAn?$AAi?$AAt?$AAi?$AAa?$AAl?$AAi?$AAz?$AAe?$AAD?$AAe?$AAv?$AAi?$AAc?$AAe?$AA?$CI?$AA0?$AAx?$AA?$CF?$AA0?$AA8?$AAx?$AA?$CJ?$AA?$AN?$AA?6@| [ DATA ] ; `string'
	EXPORT	|??_C@_1JO@MCOLBBKG@?$AAA?$AAD?$AAC?$AA?3?$AA?5?$AA?$CB?$AAE?$AAR?$AAR?$AAO?$AAR?$AA?5?$AA?9?$AA?5?$AAI?$AAn?$AAi?$AAt?$AAi?$AAa?$AAl?$AAi?$AAz?$AAe?$AAD?$AAe?$AAv?$AAi?$AAc?$AAe?$AA?5?$AAF@| [ DATA ] ; `string'
	EXPORT	|??_C@_1KA@BOJKAHCF@?$AAA?$AAD?$AAC?$AA?3?$AA?5?$AA?$CB?$AAE?$AAR?$AAR?$AAO?$AAR?$AA?5?$AA?9?$AA?5?$AAI?$AAn?$AAi?$AAt?$AAi?$AAa?$AAl?$AAi?$AAz?$AAe?$AAD?$AAe?$AAv?$AAi?$AAc?$AAe?$AA?5?$AAF@| [ DATA ] ; `string'
	EXPORT	|??_C@_1JG@NDCCKJHK@?$AAA?$AAD?$AAC?$AA?3?$AA?5?$AA?$CB?$AAE?$AAR?$AAR?$AAO?$AAR?$AA?5?$AA?9?$AA?5?$AAI?$AAn?$AAi?$AAt?$AAi?$AAa?$AAl?$AAi?$AAz?$AAe?$AAD?$AAe?$AAv?$AAi?$AAc?$AAe?$AA?5?$AAF@| [ DATA ] ; `string'
	EXPORT	|??_C@_1EC@DMEOKDOH@?$AAA?$AAD?$AAC?$AA?3?$AA?5?$AA?$CL?$AAI?$AAn?$AAi?$AAt?$AAi?$AAa?$AAl?$AAi?$AAz?$AAe?$AAD?$AAe?$AAv?$AAi?$AAc?$AAe?$AA?$CI?$AA0?$AAx?$AA?$CF?$AA0?$AA8?$AAx?$AA?$CJ?$AA?$AN?$AA?6@| [ DATA ] ; `string'
	EXPORT	|?InitializeDevice@@YAHPAUDevice_t@@@Z|	; InitializeDevice

  00020			 AREA	 |.pdata|, PDATA
|$T36466| DCD	|$LN21@Initialize|
	DCD	0x40008104

  00000			 AREA	 |.rdata|, DATA, READONLY
|??_C@_1EC@HBDAMLBF@?$AAA?$AAD?$AAC?$AA?3?$AA?5?$AA?9?$AAI?$AAn?$AAi?$AAt?$AAi?$AAa?$AAl?$AAi?$AAz?$AAe?$AAD?$AAe?$AAv?$AAi?$AAc?$AAe?$AA?$CI?$AA0?$AAx?$AA?$CF?$AA0?$AA8?$AAx?$AA?$CJ?$AA?$AN?$AA?6@| DCB "A"
	DCB	0x0, "D", 0x0, "C", 0x0, ":", 0x0, " ", 0x0, "-", 0x0, "I"
	DCB	0x0, "n", 0x0, "i", 0x0, "t", 0x0, "i", 0x0, "a", 0x0, "l"
	DCB	0x0, "i", 0x0, "z", 0x0, "e", 0x0, "D", 0x0, "e", 0x0, "v"
	DCB	0x0, "i", 0x0, "c", 0x0, "e", 0x0, "(", 0x0, "0", 0x0, "x"
	DCB	0x0, "%", 0x0, "0", 0x0, "8", 0x0, "x", 0x0, ")", 0x0, 0xd
	DCB	0x0, 0xa, 0x0, 0x0, 0x0			; `string'

  00000			 AREA	 |.rdata|, DATA, READONLY
|??_C@_1JO@MCOLBBKG@?$AAA?$AAD?$AAC?$AA?3?$AA?5?$AA?$CB?$AAE?$AAR?$AAR?$AAO?$AAR?$AA?5?$AA?9?$AA?5?$AAI?$AAn?$AAi?$AAt?$AAi?$AAa?$AAl?$AAi?$AAz?$AAe?$AAD?$AAe?$AAv?$AAi?$AAc?$AAe?$AA?5?$AAF@| DCB "A"
	DCB	0x0, "D", 0x0, "C", 0x0, ":", 0x0, " ", 0x0, "!", 0x0, "E"
	DCB	0x0, "R", 0x0, "R", 0x0, "O", 0x0, "R", 0x0, " ", 0x0, "-"
	DCB	0x0, " ", 0x0, "I", 0x0, "n", 0x0, "i", 0x0, "t", 0x0, "i"
	DCB	0x0, "a", 0x0, "l", 0x0, "i", 0x0, "z", 0x0, "e", 0x0, "D"
	DCB	0x0, "e", 0x0, "v", 0x0, "i", 0x0, "c", 0x0, "e", 0x0, " "
	DCB	0x0, "F", 0x0, "a", 0x0, "i", 0x0, "l", 0x0, "e", 0x0, "d"
	DCB	0x0, " ", 0x0, "t", 0x0, "o", 0x0, " ", 0x0, "i", 0x0, "n"
	DCB	0x0, "i", 0x0, "t", 0x0, "i", 0x0, "a", 0x0, "l", 0x0, "i"
	DCB	0x0, "z", 0x0, "e", 0x0, " ", 0x0, "V", 0x0, "B", 0x0, "A"
	DCB	0x0, "T", 0x0, " ", 0x0, "r", 0x0, "e", 0x0, "f", 0x0, "e"
	DCB	0x0, "r", 0x0, "e", 0x0, "n", 0x0, "c", 0x0, "e", 0x0, " "
	DCB	0x0, "r", 0x0, "e", 0x0, "g", 0x0, "i", 0x0, "s", 0x0, "t"
	DCB	0x0, "e", 0x0, "r", 0x0, "s", 0x0, 0xd, 0x0, 0xa, 0x0, 0x0
	DCB	0x0					; `string'

  00000			 AREA	 |.rdata|, DATA, READONLY
|??_C@_1KA@BOJKAHCF@?$AAA?$AAD?$AAC?$AA?3?$AA?5?$AA?$CB?$AAE?$AAR?$AAR?$AAO?$AAR?$AA?5?$AA?9?$AA?5?$AAI?$AAn?$AAi?$AAt?$AAi?$AAa?$AAl?$AAi?$AAz?$AAe?$AAD?$AAe?$AAv?$AAi?$AAc?$AAe?$AA?5?$AAF@| DCB "A"
	DCB	0x0, "D", 0x0, "C", 0x0, ":", 0x0, " ", 0x0, "!", 0x0, "E"
	DCB	0x0, "R", 0x0, "R", 0x0, "O", 0x0, "R", 0x0, " ", 0x0, "-"
	DCB	0x0, " ", 0x0, "I", 0x0, "n", 0x0, "i", 0x0, "t", 0x0, "i"
	DCB	0x0, "a", 0x0, "l", 0x0, "i", 0x0, "z", 0x0, "e", 0x0, "D"
	DCB	0x0, "e", 0x0, "v", 0x0, "i", 0x0, "c", 0x0, "e", 0x0, " "
	DCB	0x0, "F", 0x0, "a", 0x0, "i", 0x0, "l", 0x0, "e", 0x0, "d"
	DCB	0x0, " ", 0x0, "t", 0x0, "o", 0x0, " ", 0x0, "i", 0x0, "n"
	DCB	0x0, "i", 0x0, "t", 0x0, "i", 0x0, "a", 0x0, "l", 0x0, "i"
	DCB	0x0, "z", 0x0, "e", 0x0, " ", 0x0, "B", 0x0, "C", 0x0, "I"
	DCB	0x0, "-", 0x0, "U", 0x0, "S", 0x0, "B", 0x0, " ", 0x0, "a"
	DCB	0x0, "v", 0x0, "e", 0x0, "r", 0x0, "a", 0x0, "g", 0x0, "e"
	DCB	0x0, " ", 0x0, "r", 0x0, "e", 0x0, "g", 0x0, "i", 0x0, "s"
	DCB	0x0, "t", 0x0, "e", 0x0, "r", 0x0, "s", 0x0, 0xd, 0x0, 0xa
	DCB	0x0, 0x0, 0x0				; `string'

  00000			 AREA	 |.rdata|, DATA, READONLY
|??_C@_1JG@NDCCKJHK@?$AAA?$AAD?$AAC?$AA?3?$AA?5?$AA?$CB?$AAE?$AAR?$AAR?$AAO?$AAR?$AA?5?$AA?9?$AA?5?$AAI?$AAn?$AAi?$AAt?$AAi?$AAa?$AAl?$AAi?$AAz?$AAe?$AAD?$AAe?$AAv?$AAi?$AAc?$AAe?$AA?5?$AAF@| DCB "A"
	DCB	0x0, "D", 0x0, "C", 0x0, ":", 0x0, " ", 0x0, "!", 0x0, "E"
	DCB	0x0, "R", 0x0, "R", 0x0, "O", 0x0, "R", 0x0, " ", 0x0, "-"
	DCB	0x0, " ", 0x0, "I", 0x0, "n", 0x0, "i", 0x0, "t", 0x0, "i"
	DCB	0x0, "a", 0x0, "l", 0x0, "i", 0x0, "z", 0x0, "e", 0x0, "D"
	DCB	0x0, "e", 0x0, "v", 0x0, "i", 0x0, "c", 0x0, "e", 0x0, " "
	DCB	0x0, "F", 0x0, "a", 0x0, "i", 0x0, "l", 0x0, "e", 0x0, "d"
	DCB	0x0, " ", 0x0, "t", 0x0, "o", 0x0, " ", 0x0, "i", 0x0, "n"
	DCB	0x0, "i", 0x0, "t", 0x0, "i", 0x0, "a", 0x0, "l", 0x0, "i"
	DCB	0x0, "z", 0x0, "e", 0x0, " ", 0x0, "G", 0x0, "P", 0x0, " "
	DCB	0x0, "a", 0x0, "v", 0x0, "e", 0x0, "r", 0x0, "a", 0x0, "g"
	DCB	0x0, "e", 0x0, " ", 0x0, "r", 0x0, "e", 0x0, "g", 0x0, "i"
	DCB	0x0, "s", 0x0, "t", 0x0, "e", 0x0, "r", 0x0, "s", 0x0, 0xd
	DCB	0x0, 0xa, 0x0, 0x0, 0x0			; `string'

  00000			 AREA	 |.rdata|, DATA, READONLY
|??_C@_1EC@DMEOKDOH@?$AAA?$AAD?$AAC?$AA?3?$AA?5?$AA?$CL?$AAI?$AAn?$AAi?$AAt?$AAi?$AAa?$AAl?$AAi?$AAz?$AAe?$AAD?$AAe?$AAv?$AAi?$AAc?$AAe?$AA?$CI?$AA0?$AAx?$AA?$CF?$AA0?$AA8?$AAx?$AA?$CJ?$AA?$AN?$AA?6@| DCB "A"
	DCB	0x0, "D", 0x0, "C", 0x0, ":", 0x0, " ", 0x0, "+", 0x0, "I"
	DCB	0x0, "n", 0x0, "i", 0x0, "t", 0x0, "i", 0x0, "a", 0x0, "l"
	DCB	0x0, "i", 0x0, "z", 0x0, "e", 0x0, "D", 0x0, "e", 0x0, "v"
	DCB	0x0, "i", 0x0, "c", 0x0, "e", 0x0, "(", 0x0, "0", 0x0, "x"
	DCB	0x0, "%", 0x0, "0", 0x0, "8", 0x0, "x", 0x0, ")", 0x0, 0xd
	DCB	0x0, 0xa, 0x0, 0x0, 0x0			; `string'
; Function compile flags: /Odtp

  00b64			 AREA	 |.text|, CODE, ARM

  00b64		 |?InitializeDevice@@YAHPAUDevice_t@@@Z| PROC ; InitializeDevice

; 495  : {

  00b64		 |$LN21@Initialize|
  00b64	e1a0c00d	 mov         r12, sp
  00b68	e92d0001	 stmdb       sp!, {r0}
  00b6c	e92d5000	 stmdb       sp!, {r12, lr}
  00b70	e24dd028	 sub         sp, sp, #0x28
  00b74		 |$M36463|

; 496  :     DEBUGMSG(ZONE_FUNCTION, (
; 497  :         L"ADC: +InitializeDevice(0x%08x)\r\n", pDevice
; 498  :         ));

  00b74	e59f31d8	 ldr         r3, [pc, #0x1D8]
  00b78	e5933440	 ldr         r3, [r3, #0x440]
  00b7c	e3130004	 tst         r3, #4
  00b80	0a000005	 beq         |$LN9@Initialize|
  00b84	e59d1030	 ldr         r1, [sp, #0x30]
  00b88	e59f01d4	 ldr         r0, [pc, #0x1D4]
  00b8c	eb000000	 bl          NKDbgPrintfW
  00b90	e3a03001	 mov         r3, #1
  00b94	e58d3008	 str         r3, [sp, #8]
  00b98	ea000001	 b           |$LN10@Initialize|
  00b9c		 |$LN9@Initialize|
  00b9c	e3a03000	 mov         r3, #0
  00ba0	e58d3008	 str         r3, [sp, #8]
  00ba4		 |$LN10@Initialize|

; 499  : 
; 500  :     BOOL rc = FALSE;

  00ba4	e3a03000	 mov         r3, #0
  00ba8	e58d3000	 str         r3, [sp]

; 501  : 
; 502  :     if (TWLWriteRegs(pDevice->hTWL, TWL_SW1AVERAGE_LSB, 
; 503  :             &(pDevice->GPChAvgEnable), 2) == FALSE)

  00bac	e3a03002	 mov         r3, #2
  00bb0	e59d2030	 ldr         r2, [sp, #0x30]
  00bb4	e2822024	 add         r2, r2, #0x24
  00bb8	e3a01802	 mov         r1, #2, 16
  00bbc	e3811008	 orr         r1, r1, #8
  00bc0	e59d0030	 ldr         r0, [sp, #0x30]
  00bc4	e2800018	 add         r0, r0, #0x18
  00bc8	e5900000	 ldr         r0, [r0]
  00bcc	eb000000	 bl          TWLWriteRegs
  00bd0	e58d000c	 str         r0, [sp, #0xC]
  00bd4	e59d300c	 ldr         r3, [sp, #0xC]
  00bd8	e3530000	 cmp         r3, #0
  00bdc	1a00000c	 bne         |$LN6@Initialize|

; 504  :         {
; 505  :         DEBUGMSG(ZONE_ERROR, (L"ADC: !ERROR - InitializeDevice "
; 506  :             L"Failed to initialize GP average registers\r\n"
; 507  :             ));

  00be0	e59f316c	 ldr         r3, [pc, #0x16C]
  00be4	e5933440	 ldr         r3, [r3, #0x440]
  00be8	e3130001	 tst         r3, #1
  00bec	0a000004	 beq         |$LN11@Initialize|
  00bf0	e59f0168	 ldr         r0, [pc, #0x168]
  00bf4	eb000000	 bl          NKDbgPrintfW
  00bf8	e3a03001	 mov         r3, #1
  00bfc	e58d3010	 str         r3, [sp, #0x10]
  00c00	ea000001	 b           |$LN12@Initialize|
  00c04		 |$LN11@Initialize|
  00c04	e3a03000	 mov         r3, #0
  00c08	e58d3010	 str         r3, [sp, #0x10]
  00c0c		 |$LN12@Initialize|

; 508  :         goto cleanUp;

  00c0c	ea00003d	 b           |$LN5@Initialize|
  00c10	ea00003c	 b           |$cleanUp$36138|
  00c14		 |$LN6@Initialize|

; 509  :         }
; 510  : 
; 511  :     if (TWLWriteRegs(pDevice->hTWL, TWL_BCI_USBAVERAGE, 
; 512  :             &(pDevice->UsbBciAvgEnable), 1) == FALSE)

  00c14	e3a03001	 mov         r3, #1
  00c18	e59d2030	 ldr         r2, [sp, #0x30]
  00c1c	e2822028	 add         r2, r2, #0x28
  00c20	e3a01802	 mov         r1, #2, 16
  00c24	e381100e	 orr         r1, r1, #0xE
  00c28	e59d0030	 ldr         r0, [sp, #0x30]
  00c2c	e2800018	 add         r0, r0, #0x18
  00c30	e5900000	 ldr         r0, [r0]
  00c34	eb000000	 bl          TWLWriteRegs
  00c38	e58d0014	 str         r0, [sp, #0x14]
  00c3c	e59d3014	 ldr         r3, [sp, #0x14]
  00c40	e3530000	 cmp         r3, #0
  00c44	1a00000c	 bne         |$LN4@Initialize|

; 513  :         {
; 514  :         DEBUGMSG(ZONE_ERROR, (L"ADC: !ERROR - InitializeDevice "
; 515  :             L"Failed to initialize BCI-USB average registers\r\n"
; 516  :             ));

  00c48	e59f3104	 ldr         r3, [pc, #0x104]
  00c4c	e5933440	 ldr         r3, [r3, #0x440]
  00c50	e3130001	 tst         r3, #1
  00c54	0a000004	 beq         |$LN13@Initialize|
  00c58	e59f00fc	 ldr         r0, [pc, #0xFC]
  00c5c	eb000000	 bl          NKDbgPrintfW
  00c60	e3a03001	 mov         r3, #1
  00c64	e58d3018	 str         r3, [sp, #0x18]
  00c68	ea000001	 b           |$LN14@Initialize|
  00c6c		 |$LN13@Initialize|
  00c6c	e3a03000	 mov         r3, #0
  00c70	e58d3018	 str         r3, [sp, #0x18]
  00c74		 |$LN14@Initialize|

; 517  :         goto cleanUp;

  00c74	ea000023	 b           |$LN3@Initialize|
  00c78	ea000022	 b           |$cleanUp$36138|
  00c7c		 |$LN4@Initialize|

; 518  :         }
; 519  : 
; 520  :     // format to appropriate value
; 521  :     pDevice->VBatRef <<= 6;

  00c7c	e59d3030	 ldr         r3, [sp, #0x30]
  00c80	e2833020	 add         r3, r3, #0x20
  00c84	e5933000	 ldr         r3, [r3]
  00c88	e1a02303	 mov         r2, r3, lsl #6
  00c8c	e59d3030	 ldr         r3, [sp, #0x30]
  00c90	e2833020	 add         r3, r3, #0x20
  00c94	e5832000	 str         r2, [r3]

; 522  :     if (TWLWriteRegs(pDevice->hTWL, TWL_USBREF_LSB, 
; 523  :             &(pDevice->VBatRef), 2) == FALSE)

  00c98	e3a03002	 mov         r3, #2
  00c9c	e59d2030	 ldr         r2, [sp, #0x30]
  00ca0	e2822020	 add         r2, r2, #0x20
  00ca4	e3a01802	 mov         r1, #2, 16
  00ca8	e3811010	 orr         r1, r1, #0x10
  00cac	e59d0030	 ldr         r0, [sp, #0x30]
  00cb0	e2800018	 add         r0, r0, #0x18
  00cb4	e5900000	 ldr         r0, [r0]
  00cb8	eb000000	 bl          TWLWriteRegs
  00cbc	e58d001c	 str         r0, [sp, #0x1C]
  00cc0	e59d301c	 ldr         r3, [sp, #0x1C]
  00cc4	e3530000	 cmp         r3, #0
  00cc8	1a00000c	 bne         |$LN2@Initialize|

; 524  :         {
; 525  :         DEBUGMSG(ZONE_ERROR, (L"ADC: !ERROR - InitializeDevice "
; 526  :             L"Failed to initialize VBAT reference registers\r\n"
; 527  :             ));

  00ccc	e59f3080	 ldr         r3, [pc, #0x80]
  00cd0	e5933440	 ldr         r3, [r3, #0x440]
  00cd4	e3130001	 tst         r3, #1
  00cd8	0a000004	 beq         |$LN15@Initialize|
  00cdc	e59f0074	 ldr         r0, [pc, #0x74]
  00ce0	eb000000	 bl          NKDbgPrintfW
  00ce4	e3a03001	 mov         r3, #1
  00ce8	e58d3020	 str         r3, [sp, #0x20]
  00cec	ea000001	 b           |$LN16@Initialize|
  00cf0		 |$LN15@Initialize|
  00cf0	e3a03000	 mov         r3, #0
  00cf4	e58d3020	 str         r3, [sp, #0x20]
  00cf8		 |$LN16@Initialize|

; 528  :         goto cleanUp;

  00cf8	ea000002	 b           |$LN1@Initialize|
  00cfc	ea000001	 b           |$cleanUp$36138|
  00d00		 |$LN2@Initialize|

; 529  :         }
; 530  : 
; 531  :     rc = TRUE;

  00d00	e3a03001	 mov         r3, #1
  00d04	e58d3000	 str         r3, [sp]
  00d08		 |$LN1@Initialize|
  00d08		 |$LN3@Initialize|
  00d08		 |$LN5@Initialize|
  00d08		 |$cleanUp$36138|

; 532  : 
; 533  : cleanUp:
; 534  : 
; 535  :     DEBUGMSG(ZONE_FUNCTION, (
; 536  :         L"ADC: -InitializeDevice(0x%08x)\r\n", pDevice
; 537  :         ));

  00d08	e59f3044	 ldr         r3, [pc, #0x44]
  00d0c	e5933440	 ldr         r3, [r3, #0x440]
  00d10	e3130004	 tst         r3, #4
  00d14	0a000005	 beq         |$LN17@Initialize|
  00d18	e59d1030	 ldr         r1, [sp, #0x30]
  00d1c	e59f002c	 ldr         r0, [pc, #0x2C]
  00d20	eb000000	 bl          NKDbgPrintfW
  00d24	e3a03001	 mov         r3, #1
  00d28	e58d3024	 str         r3, [sp, #0x24]
  00d2c	ea000001	 b           |$LN18@Initialize|
  00d30		 |$LN17@Initialize|
  00d30	e3a03000	 mov         r3, #0
  00d34	e58d3024	 str         r3, [sp, #0x24]
  00d38		 |$LN18@Initialize|

; 538  : 
; 539  :     return rc;

  00d38	e59d3000	 ldr         r3, [sp]
  00d3c	e58d3004	 str         r3, [sp, #4]

; 540  : }

  00d40	e59d0004	 ldr         r0, [sp, #4]
  00d44	e28dd028	 add         sp, sp, #0x28
  00d48	e89d6000	 ldmia       sp, {sp, lr}
  00d4c	e12fff1e	 bx          lr
  00d50		 |$LN22@Initialize|
  00d50		 |$LN23@Initialize|
  00d50	00000000	 DCD         |??_C@_1EC@HBDAMLBF@?$AAA?$AAD?$AAC?$AA?3?$AA?5?$AA?9?$AAI?$AAn?$AAi?$AAt?$AAi?$AAa?$AAl?$AAi?$AAz?$AAe?$AAD?$AAe?$AAv?$AAi?$AAc?$AAe?$AA?$CI?$AA0?$AAx?$AA?$CF?$AA0?$AA8?$AAx?$AA?$CJ?$AA?$AN?$AA?6@|
  00d54		 |$LN24@Initialize|
  00d54	00000000	 DCD         |dpCurSettings|
  00d58		 |$LN25@Initialize|
  00d58	00000000	 DCD         |??_C@_1JO@MCOLBBKG@?$AAA?$AAD?$AAC?$AA?3?$AA?5?$AA?$CB?$AAE?$AAR?$AAR?$AAO?$AAR?$AA?5?$AA?9?$AA?5?$AAI?$AAn?$AAi?$AAt?$AAi?$AAa?$AAl?$AAi?$AAz?$AAe?$AAD?$AAe?$AAv?$AAi?$AAc?$AAe?$AA?5?$AAF@|
  00d5c		 |$LN26@Initialize|
  00d5c	00000000	 DCD         |??_C@_1KA@BOJKAHCF@?$AAA?$AAD?$AAC?$AA?3?$AA?5?$AA?$CB?$AAE?$AAR?$AAR?$AAO?$AAR?$AA?5?$AA?9?$AA?5?$AAI?$AAn?$AAi?$AAt?$AAi?$AAa?$AAl?$AAi?$AAz?$AAe?$AAD?$AAe?$AAv?$AAi?$AAc?$AAe?$AA?5?$AAF@|
  00d60		 |$LN27@Initialize|
  00d60	00000000	 DCD         |??_C@_1JG@NDCCKJHK@?$AAA?$AAD?$AAC?$AA?3?$AA?5?$AA?$CB?$AAE?$AAR?$AAR?$AAO?$AAR?$AA?5?$AA?9?$AA?5?$AAI?$AAn?$AAi?$AAt?$AAi?$AAa?$AAl?$AAi?$AAz?$AAe?$AAD?$AAe?$AAv?$AAi?$AAc?$AAe?$AA?5?$AAF@|
  00d64		 |$LN28@Initialize|
  00d64	00000000	 DCD         |??_C@_1EC@DMEOKDOH@?$AAA?$AAD?$AAC?$AA?3?$AA?5?$AA?$CL?$AAI?$AAn?$AAi?$AAt?$AAi?$AAa?$AAl?$AAi?$AAz?$AAe?$AAD?$AAe?$AAv?$AAi?$AAc?$AAe?$AA?$CI?$AA0?$AAx?$AA?$CF?$AA0?$AA8?$AAx?$AA?$CJ?$AA?$AN?$AA?6@|
  00d68		 |$M36464|

			 ENDP  ; |?InitializeDevice@@YAHPAUDevice_t@@@Z|, InitializeDevice

	EXPORT	|??_C@_1CI@KIIPCPGM@?$AA?9?$AAA?$AAD?$AAC?$AA_?$AAI?$AAn?$AAi?$AAt?$AA?$CI?$AAr?$AAc?$AA?5?$AA?$DN?$AA?5?$AA?$CF?$AAd?$AA?$AN?$AA?6?$AA?$AA@| [ DATA ] ; `string'
	EXPORT	|?ADC_Deinit@@YAHK@Z|			; ADC_Deinit
	EXPORT	|??_C@_1GM@NNNJEGCP@?$AAE?$AAR?$AAR?$AAO?$AAR?$AA?3?$AA?5?$AAA?$AAD?$AAC?$AA_?$AAI?$AAn?$AAi?$AAt?$AA?3?$AA?5?$AAF?$AAa?$AAi?$AAl?$AAe?$AAd?$AA?5?$AAt?$AAo?$AA?5?$AAi?$AAn?$AAi?$AAt?$AAi@| [ DATA ] ; `string'
	EXPORT	|??_C@_1GI@HHEOACPI@?$AAE?$AAR?$AAR?$AAO?$AAR?$AA?3?$AA?5?$AAA?$AAD?$AAC?$AA_?$AAI?$AAn?$AAi?$AAt?$AA?3?$AA?5?$AAF?$AAa?$AAi?$AAl?$AAe?$AAd?$AA?5?$AAo?$AAp?$AAe?$AAn?$AA?5?$AAT?$AAr?$AAi@| [ DATA ] ; `string'
	EXPORT	|??_C@_1HC@OALJPHLD@?$AAE?$AAR?$AAR?$AAO?$AAR?$AA?3?$AA?5?$AAA?$AAD?$AAC?$AA_?$AAI?$AAn?$AAi?$AAt?$AA?3?$AA?5?$AAF?$AAa?$AAi?$AAl?$AAe?$AAd?$AA?5?$AAa?$AAl?$AAl?$AAo?$AAc?$AAa?$AAt?$AAe@| [ DATA ] ; `string'
	EXPORT	|??_C@_1DA@JHAGBPMK@?$AA?$CL?$AAA?$AAD?$AAC?$AA_?$AAI?$AAn?$AAi?$AAt?$AA?$CI?$AA?$CF?$AAs?$AA?0?$AA?5?$AA0?$AAx?$AA?$CF?$AA0?$AA8?$AAx?$AA?$CJ?$AA?$AN?$AA?6?$AA?$AA@| [ DATA ] ; `string'
	EXPORT	|?ADC_Init@@YAKPBGPBX@Z|		; ADC_Init
	IMPORT	|TWLOpen|
	IMPORT	|InitializeCriticalSection|
	IMPORT	|LocalAlloc|

  00028			 AREA	 |.pdata|, PDATA
|$T36489| DCD	|$LN22@ADC_Init|
	DCD	0x40007a04

  00000			 AREA	 |.rdata|, DATA, READONLY
|??_C@_1CI@KIIPCPGM@?$AA?9?$AAA?$AAD?$AAC?$AA_?$AAI?$AAn?$AAi?$AAt?$AA?$CI?$AAr?$AAc?$AA?5?$AA?$DN?$AA?5?$AA?$CF?$AAd?$AA?$AN?$AA?6?$AA?$AA@| DCB "-"
	DCB	0x0, "A", 0x0, "D", 0x0, "C", 0x0, "_", 0x0, "I", 0x0, "n"
	DCB	0x0, "i", 0x0, "t", 0x0, "(", 0x0, "r", 0x0, "c", 0x0, " "
	DCB	0x0, "=", 0x0, " ", 0x0, "%", 0x0, "d", 0x0, 0xd, 0x0, 0xa
	DCB	0x0, 0x0, 0x0				; `string'

  00000			 AREA	 |.rdata|, DATA, READONLY
|??_C@_1GM@NNNJEGCP@?$AAE?$AAR?$AAR?$AAO?$AAR?$AA?3?$AA?5?$AAA?$AAD?$AAC?$AA_?$AAI?$AAn?$AAi?$AAt?$AA?3?$AA?5?$AAF?$AAa?$AAi?$AAl?$AAe?$AAd?$AA?5?$AAt?$AAo?$AA?5?$AAi?$AAn?$AAi?$AAt?$AAi@| DCB "E"
	DCB	0x0, "R", 0x0, "R", 0x0, "O", 0x0, "R", 0x0, ":", 0x0, " "
	DCB	0x0, "A", 0x0, "D", 0x0, "C", 0x0, "_", 0x0, "I", 0x0, "n"
	DCB	0x0, "i", 0x0, "t", 0x0, ":", 0x0, " ", 0x0, "F", 0x0, "a"
	DCB	0x0, "i", 0x0, "l", 0x0, "e", 0x0, "d", 0x0, " ", 0x0, "t"
	DCB	0x0, "o", 0x0, " ", 0x0, "i", 0x0, "n", 0x0, "i", 0x0, "t"
	DCB	0x0, "i", 0x0, "l", 0x0, "i", 0x0, "a", 0x0, "l", 0x0, "i"
	DCB	0x0, "z", 0x0, "e", 0x0, " ", 0x0, "M", 0x0, "A", 0x0, "D"
	DCB	0x0, "C", 0x0, " ", 0x0, "d", 0x0, "e", 0x0, "v", 0x0, "i"
	DCB	0x0, "c", 0x0, "e", 0x0, 0xd, 0x0, 0xa, 0x0, 0x0, 0x0 ; `string'

  00000			 AREA	 |.rdata|, DATA, READONLY
|??_C@_1GI@HHEOACPI@?$AAE?$AAR?$AAR?$AAO?$AAR?$AA?3?$AA?5?$AAA?$AAD?$AAC?$AA_?$AAI?$AAn?$AAi?$AAt?$AA?3?$AA?5?$AAF?$AAa?$AAi?$AAl?$AAe?$AAd?$AA?5?$AAo?$AAp?$AAe?$AAn?$AA?5?$AAT?$AAr?$AAi@| DCB "E"
	DCB	0x0, "R", 0x0, "R", 0x0, "O", 0x0, "R", 0x0, ":", 0x0, " "
	DCB	0x0, "A", 0x0, "D", 0x0, "C", 0x0, "_", 0x0, "I", 0x0, "n"
	DCB	0x0, "i", 0x0, "t", 0x0, ":", 0x0, " ", 0x0, "F", 0x0, "a"
	DCB	0x0, "i", 0x0, "l", 0x0, "e", 0x0, "d", 0x0, " ", 0x0, "o"
	DCB	0x0, "p", 0x0, "e", 0x0, "n", 0x0, " ", 0x0, "T", 0x0, "r"
	DCB	0x0, "i", 0x0, "t", 0x0, "o", 0x0, "n", 0x0, " ", 0x0, "d"
	DCB	0x0, "e", 0x0, "v", 0x0, "i", 0x0, "c", 0x0, "e", 0x0, " "
	DCB	0x0, "d", 0x0, "r", 0x0, "i", 0x0, "v", 0x0, "e", 0x0, "r"
	DCB	0x0, 0xd, 0x0, 0xa, 0x0, 0x0, 0x0	; `string'

  00000			 AREA	 |.rdata|, DATA, READONLY
|??_C@_1HC@OALJPHLD@?$AAE?$AAR?$AAR?$AAO?$AAR?$AA?3?$AA?5?$AAA?$AAD?$AAC?$AA_?$AAI?$AAn?$AAi?$AAt?$AA?3?$AA?5?$AAF?$AAa?$AAi?$AAl?$AAe?$AAd?$AA?5?$AAa?$AAl?$AAl?$AAo?$AAc?$AAa?$AAt?$AAe@| DCB "E"
	DCB	0x0, "R", 0x0, "R", 0x0, "O", 0x0, "R", 0x0, ":", 0x0, " "
	DCB	0x0, "A", 0x0, "D", 0x0, "C", 0x0, "_", 0x0, "I", 0x0, "n"
	DCB	0x0, "i", 0x0, "t", 0x0, ":", 0x0, " ", 0x0, "F", 0x0, "a"
	DCB	0x0, "i", 0x0, "l", 0x0, "e", 0x0, "d", 0x0, " ", 0x0, "a"
	DCB	0x0, "l", 0x0, "l", 0x0, "o", 0x0, "c", 0x0, "a", 0x0, "t"
	DCB	0x0, "e", 0x0, " ", 0x0, "M", 0x0, "A", 0x0, "D", 0x0, "C"
	DCB	0x0, " ", 0x0, "d", 0x0, "r", 0x0, "i", 0x0, "v", 0x0, "e"
	DCB	0x0, "r", 0x0, " ", 0x0, "s", 0x0, "t", 0x0, "r", 0x0, "u"
	DCB	0x0, "c", 0x0, "t", 0x0, "u", 0x0, "r", 0x0, "e", 0x0, 0xd
	DCB	0x0, 0xa, 0x0, 0x0, 0x0			; `string'

  00000			 AREA	 |.rdata|, DATA, READONLY
|??_C@_1DA@JHAGBPMK@?$AA?$CL?$AAA?$AAD?$AAC?$AA_?$AAI?$AAn?$AAi?$AAt?$AA?$CI?$AA?$CF?$AAs?$AA?0?$AA?5?$AA0?$AAx?$AA?$CF?$AA0?$AA8?$AAx?$AA?$CJ?$AA?$AN?$AA?6?$AA?$AA@| DCB "+"
	DCB	0x0, "A", 0x0, "D", 0x0, "C", 0x0, "_", 0x0, "I", 0x0, "n"
	DCB	0x0, "i", 0x0, "t", 0x0, "(", 0x0, "%", 0x0, "s", 0x0, ","
	DCB	0x0, " ", 0x0, "0", 0x0, "x", 0x0, "%", 0x0, "0", 0x0, "8"
	DCB	0x0, "x", 0x0, ")", 0x0, 0xd, 0x0, 0xa, 0x0, 0x0, 0x0 ; `string'
; Function compile flags: /Odtp

  00d68			 AREA	 |.text|, CODE, ARM

  00d68		 |?ADC_Init@@YAKPBGPBX@Z| PROC		; ADC_Init

; 553  : {

  00d68		 |$LN22@ADC_Init|
  00d68	e1a0c00d	 mov         r12, sp
  00d6c	e92d0003	 stmdb       sp!, {r0, r1}
  00d70	e92d5000	 stmdb       sp!, {r12, lr}
  00d74	e24dd02c	 sub         sp, sp, #0x2C
  00d78		 |$M36486|

; 554  :     DWORD rc = (DWORD)NULL;

  00d78	e3a03000	 mov         r3, #0
  00d7c	e58d3004	 str         r3, [sp, #4]

; 555  :     Device_t *pDevice;
; 556  : 
; 557  :     UNREFERENCED_PARAMETER(pBusContext);
; 558  :     UNREFERENCED_PARAMETER(szContext);  
; 559  : 
; 560  :     DEBUGMSG(ZONE_FUNCTION, (
; 561  :         L"+ADC_Init(%s, 0x%08x)\r\n", szContext, pBusContext
; 562  :         ));

  00d80	e59f31b0	 ldr         r3, [pc, #0x1B0]
  00d84	e5933440	 ldr         r3, [r3, #0x440]
  00d88	e3130004	 tst         r3, #4
  00d8c	0a000006	 beq         |$LN10@ADC_Init|
  00d90	e59d2038	 ldr         r2, [sp, #0x38]
  00d94	e59d1034	 ldr         r1, [sp, #0x34]
  00d98	e59f01ac	 ldr         r0, [pc, #0x1AC]
  00d9c	eb000000	 bl          NKDbgPrintfW
  00da0	e3a03001	 mov         r3, #1
  00da4	e58d300c	 str         r3, [sp, #0xC]
  00da8	ea000001	 b           |$LN11@ADC_Init|
  00dac		 |$LN10@ADC_Init|
  00dac	e3a03000	 mov         r3, #0
  00db0	e58d300c	 str         r3, [sp, #0xC]
  00db4		 |$LN11@ADC_Init|

; 563  : 
; 564  :     // Create device structure
; 565  :     pDevice = (Device_t *)LocalAlloc(LPTR, sizeof(Device_t));

  00db4	e3a0102c	 mov         r1, #0x2C
  00db8	e3a00040	 mov         r0, #0x40
  00dbc	eb000000	 bl          LocalAlloc
  00dc0	e58d0010	 str         r0, [sp, #0x10]
  00dc4	e59d3010	 ldr         r3, [sp, #0x10]
  00dc8	e58d3000	 str         r3, [sp]

; 566  :     if (pDevice == NULL)

  00dcc	e59d3000	 ldr         r3, [sp]
  00dd0	e3530000	 cmp         r3, #0
  00dd4	1a00000c	 bne         |$LN7@ADC_Init|

; 567  :         {
; 568  :         DEBUGMSG(ZONE_ERROR, (L"ERROR: ADC_Init: "
; 569  :             L"Failed allocate MADC driver structure\r\n"
; 570  :             ));

  00dd8	e59f3158	 ldr         r3, [pc, #0x158]
  00ddc	e5933440	 ldr         r3, [r3, #0x440]
  00de0	e3130001	 tst         r3, #1
  00de4	0a000004	 beq         |$LN12@ADC_Init|
  00de8	e59f0158	 ldr         r0, [pc, #0x158]
  00dec	eb000000	 bl          NKDbgPrintfW
  00df0	e3a03001	 mov         r3, #1
  00df4	e58d3014	 str         r3, [sp, #0x14]
  00df8	ea000001	 b           |$LN13@ADC_Init|
  00dfc		 |$LN12@ADC_Init|
  00dfc	e3a03000	 mov         r3, #0
  00e00	e58d3014	 str         r3, [sp, #0x14]
  00e04		 |$LN13@ADC_Init|

; 571  : 
; 572  :         goto cleanUp;

  00e04	ea000033	 b           |$LN6@ADC_Init|
  00e08	ea000032	 b           |$cleanUp$36164|
  00e0c		 |$LN7@ADC_Init|

; 573  :         }
; 574  : 
; 575  :     // Set cookie
; 576  :     pDevice->cookie = MADC_DEVICE_COOKIE;

  00e0c	e59d2000	 ldr         r2, [sp]
  00e10	e59f312c	 ldr         r3, [pc, #0x12C]
  00e14	e5823000	 str         r3, [r2]

; 577  : 
; 578  :     // Initialize critical sections
; 579  :     InitializeCriticalSection(&pDevice->cs);

  00e18	e59d3000	 ldr         r3, [sp]
  00e1c	e2830004	 add         r0, r3, #4
  00e20	eb000000	 bl          InitializeCriticalSection

; 580  : 
; 581  :     // Open Triton device driver
; 582  :     pDevice->hTWL = TWLOpen();

  00e24	eb000000	 bl          TWLOpen
  00e28	e58d0018	 str         r0, [sp, #0x18]
  00e2c	e59d3000	 ldr         r3, [sp]
  00e30	e2832018	 add         r2, r3, #0x18
  00e34	e59d3018	 ldr         r3, [sp, #0x18]
  00e38	e5823000	 str         r3, [r2]

; 583  :     if ( pDevice->hTWL == NULL )

  00e3c	e59d3000	 ldr         r3, [sp]
  00e40	e2833018	 add         r3, r3, #0x18
  00e44	e5933000	 ldr         r3, [r3]
  00e48	e3530000	 cmp         r3, #0
  00e4c	1a00000c	 bne         |$LN5@ADC_Init|

; 584  :         {
; 585  :         DEBUGMSG( ZONE_ERROR, (L"ERROR: ADC_Init: "
; 586  :             L"Failed open Triton device driver\r\n"
; 587  :             ));

  00e50	e59f30e0	 ldr         r3, [pc, #0xE0]
  00e54	e5933440	 ldr         r3, [r3, #0x440]
  00e58	e3130001	 tst         r3, #1
  00e5c	0a000004	 beq         |$LN14@ADC_Init|
  00e60	e59f00d8	 ldr         r0, [pc, #0xD8]
  00e64	eb000000	 bl          NKDbgPrintfW
  00e68	e3a03001	 mov         r3, #1
  00e6c	e58d301c	 str         r3, [sp, #0x1C]
  00e70	ea000001	 b           |$LN15@ADC_Init|
  00e74		 |$LN14@ADC_Init|
  00e74	e3a03000	 mov         r3, #0
  00e78	e58d301c	 str         r3, [sp, #0x1C]
  00e7c		 |$LN15@ADC_Init|

; 588  :         goto cleanUp;

  00e7c	ea000015	 b           |$LN4@ADC_Init|
  00e80	ea000014	 b           |$cleanUp$36164|
  00e84		 |$LN5@ADC_Init|

; 589  :         }
; 590  : 
; 591  :     // initialize device with registry settings
; 592  :     if (InitializeDevice(pDevice) == FALSE)

  00e84	e59d0000	 ldr         r0, [sp]
  00e88	eb000000	 bl          |?InitializeDevice@@YAHPAUDevice_t@@@Z|
  00e8c	e58d0020	 str         r0, [sp, #0x20]
  00e90	e59d3020	 ldr         r3, [sp, #0x20]
  00e94	e3530000	 cmp         r3, #0
  00e98	1a00000c	 bne         |$LN3@ADC_Init|

; 593  :         {
; 594  :         DEBUGMSG( ZONE_ERROR, (L"ERROR: ADC_Init: "
; 595  :             L"Failed to initilialize MADC device\r\n"
; 596  :             ));

  00e9c	e59f3094	 ldr         r3, [pc, #0x94]
  00ea0	e5933440	 ldr         r3, [r3, #0x440]
  00ea4	e3130001	 tst         r3, #1
  00ea8	0a000004	 beq         |$LN16@ADC_Init|
  00eac	e59f0088	 ldr         r0, [pc, #0x88]
  00eb0	eb000000	 bl          NKDbgPrintfW
  00eb4	e3a03001	 mov         r3, #1
  00eb8	e58d3024	 str         r3, [sp, #0x24]
  00ebc	ea000001	 b           |$LN17@ADC_Init|
  00ec0		 |$LN16@ADC_Init|
  00ec0	e3a03000	 mov         r3, #0
  00ec4	e58d3024	 str         r3, [sp, #0x24]
  00ec8		 |$LN17@ADC_Init|

; 597  :         goto cleanUp;

  00ec8	ea000002	 b           |$LN2@ADC_Init|
  00ecc	ea000001	 b           |$cleanUp$36164|
  00ed0		 |$LN3@ADC_Init|

; 598  :         }
; 599  : 
; 600  :     // Return non-null value
; 601  :     rc = (DWORD)pDevice;

  00ed0	e59d3000	 ldr         r3, [sp]
  00ed4	e58d3004	 str         r3, [sp, #4]
  00ed8		 |$LN2@ADC_Init|
  00ed8		 |$LN4@ADC_Init|
  00ed8		 |$LN6@ADC_Init|
  00ed8		 |$cleanUp$36164|

; 602  : 
; 603  : cleanUp:
; 604  :     if (rc == 0) ADC_Deinit((DWORD)pDevice);

  00ed8	e59d3004	 ldr         r3, [sp, #4]
  00edc	e3530000	 cmp         r3, #0
  00ee0	1a000001	 bne         |$LN1@ADC_Init|
  00ee4	e59d0000	 ldr         r0, [sp]
  00ee8	eb000000	 bl          |?ADC_Deinit@@YAHK@Z|
  00eec		 |$LN1@ADC_Init|

; 605  : 
; 606  :     DEBUGMSG(ZONE_FUNCTION, (L"-ADC_Init(rc = %d\r\n", rc));

  00eec	e59f3044	 ldr         r3, [pc, #0x44]
  00ef0	e5933440	 ldr         r3, [r3, #0x440]
  00ef4	e3130004	 tst         r3, #4
  00ef8	0a000005	 beq         |$LN18@ADC_Init|
  00efc	e59d1004	 ldr         r1, [sp, #4]
  00f00	e59f002c	 ldr         r0, [pc, #0x2C]
  00f04	eb000000	 bl          NKDbgPrintfW
  00f08	e3a03001	 mov         r3, #1
  00f0c	e58d3028	 str         r3, [sp, #0x28]
  00f10	ea000001	 b           |$LN19@ADC_Init|
  00f14		 |$LN18@ADC_Init|
  00f14	e3a03000	 mov         r3, #0
  00f18	e58d3028	 str         r3, [sp, #0x28]
  00f1c		 |$LN19@ADC_Init|

; 607  :     return rc;

  00f1c	e59d3004	 ldr         r3, [sp, #4]
  00f20	e58d3008	 str         r3, [sp, #8]

; 608  : }

  00f24	e59d0008	 ldr         r0, [sp, #8]
  00f28	e28dd02c	 add         sp, sp, #0x2C
  00f2c	e89d6000	 ldmia       sp, {sp, lr}
  00f30	e12fff1e	 bx          lr
  00f34		 |$LN23@ADC_Init|
  00f34		 |$LN24@ADC_Init|
  00f34	00000000	 DCD         |??_C@_1CI@KIIPCPGM@?$AA?9?$AAA?$AAD?$AAC?$AA_?$AAI?$AAn?$AAi?$AAt?$AA?$CI?$AAr?$AAc?$AA?5?$AA?$DN?$AA?5?$AA?$CF?$AAd?$AA?$AN?$AA?6?$AA?$AA@|
  00f38		 |$LN25@ADC_Init|
  00f38	00000000	 DCD         |dpCurSettings|
  00f3c		 |$LN26@ADC_Init|
  00f3c	00000000	 DCD         |??_C@_1GM@NNNJEGCP@?$AAE?$AAR?$AAR?$AAO?$AAR?$AA?3?$AA?5?$AAA?$AAD?$AAC?$AA_?$AAI?$AAn?$AAi?$AAt?$AA?3?$AA?5?$AAF?$AAa?$AAi?$AAl?$AAe?$AAd?$AA?5?$AAt?$AAo?$AA?5?$AAi?$AAn?$AAi?$AAt?$AAi@|
  00f40		 |$LN27@ADC_Init|
  00f40	00000000	 DCD         |??_C@_1GI@HHEOACPI@?$AAE?$AAR?$AAR?$AAO?$AAR?$AA?3?$AA?5?$AAA?$AAD?$AAC?$AA_?$AAI?$AAn?$AAi?$AAt?$AA?3?$AA?5?$AAF?$AAa?$AAi?$AAl?$AAe?$AAd?$AA?5?$AAo?$AAp?$AAe?$AAn?$AA?5?$AAT?$AAr?$AAi@|
  00f44		 |$LN28@ADC_Init|
  00f44	61646344	 DCD         0x61646344
  00f48		 |$LN29@ADC_Init|
  00f48	00000000	 DCD         |??_C@_1HC@OALJPHLD@?$AAE?$AAR?$AAR?$AAO?$AAR?$AA?3?$AA?5?$AAA?$AAD?$AAC?$AA_?$AAI?$AAn?$AAi?$AAt?$AA?3?$AA?5?$AAF?$AAa?$AAi?$AAl?$AAe?$AAd?$AA?5?$AAa?$AAl?$AAl?$AAo?$AAc?$AAa?$AAt?$AAe@|
  00f4c		 |$LN30@ADC_Init|
  00f4c	00000000	 DCD         |??_C@_1DA@JHAGBPMK@?$AA?$CL?$AAA?$AAD?$AAC?$AA_?$AAI?$AAn?$AAi?$AAt?$AA?$CI?$AA?$CF?$AAs?$AA?0?$AA?5?$AA0?$AAx?$AA?$CF?$AA0?$AA8?$AAx?$AA?$CJ?$AA?$AN?$AA?6?$AA?$AA@|
  00f50		 |$M36487|

			 ENDP  ; |?ADC_Init@@YAKPBGPBX@Z|, ADC_Init

	EXPORT	|??_C@_1CO@HGBEFKHB@?$AA?9?$AAA?$AAD?$AAC?$AA_?$AAD?$AAe?$AAi?$AAn?$AAi?$AAt?$AA?$CI?$AAr?$AAc?$AA?5?$AA?$DN?$AA?5?$AA?$CF?$AAd?$AA?$CJ?$AA?$AN?$AA?6?$AA?$AA@| [ DATA ] ; `string'
	EXPORT	|??_C@_1GC@FJCEJPFN@?$AAE?$AAR?$AAR?$AAO?$AAR?$AA?3?$AA?5?$AAA?$AAD?$AAC?$AA_?$AAD?$AAe?$AAi?$AAn?$AAi?$AAt?$AA?3?$AA?5?$AAI?$AAn?$AAc?$AAo?$AAr?$AAr?$AAe?$AAc?$AAt?$AA?5?$AAc?$AAo?$AAn@| [ DATA ] ; `string'
	EXPORT	|??_C@_1CM@NOMCNDAK@?$AA?$CL?$AAA?$AAD?$AAC?$AA_?$AAD?$AAe?$AAi?$AAn?$AAi?$AAt?$AA?$CI?$AA0?$AAx?$AA?$CF?$AA0?$AA8?$AAx?$AA?$CJ?$AA?$AN?$AA?6?$AA?$AA@| [ DATA ] ; `string'
	IMPORT	|LocalFree|
	IMPORT	|DeleteCriticalSection|
	IMPORT	|CloseHandle|

  00030			 AREA	 |.pdata|, PDATA
|$T36509| DCD	|$LN15@ADC_Deinit|
	DCD	0x40005404

  00000			 AREA	 |.rdata|, DATA, READONLY
|??_C@_1CO@HGBEFKHB@?$AA?9?$AAA?$AAD?$AAC?$AA_?$AAD?$AAe?$AAi?$AAn?$AAi?$AAt?$AA?$CI?$AAr?$AAc?$AA?5?$AA?$DN?$AA?5?$AA?$CF?$AAd?$AA?$CJ?$AA?$AN?$AA?6?$AA?$AA@| DCB "-"
	DCB	0x0, "A", 0x0, "D", 0x0, "C", 0x0, "_", 0x0, "D", 0x0, "e"
	DCB	0x0, "i", 0x0, "n", 0x0, "i", 0x0, "t", 0x0, "(", 0x0, "r"
	DCB	0x0, "c", 0x0, " ", 0x0, "=", 0x0, " ", 0x0, "%", 0x0, "d"
	DCB	0x0, ")", 0x0, 0xd, 0x0, 0xa, 0x0, 0x0, 0x0 ; `string'

  00000			 AREA	 |.rdata|, DATA, READONLY
|??_C@_1GC@FJCEJPFN@?$AAE?$AAR?$AAR?$AAO?$AAR?$AA?3?$AA?5?$AAA?$AAD?$AAC?$AA_?$AAD?$AAe?$AAi?$AAn?$AAi?$AAt?$AA?3?$AA?5?$AAI?$AAn?$AAc?$AAo?$AAr?$AAr?$AAe?$AAc?$AAt?$AA?5?$AAc?$AAo?$AAn@| DCB "E"
	DCB	0x0, "R", 0x0, "R", 0x0, "O", 0x0, "R", 0x0, ":", 0x0, " "
	DCB	0x0, "A", 0x0, "D", 0x0, "C", 0x0, "_", 0x0, "D", 0x0, "e"
	DCB	0x0, "i", 0x0, "n", 0x0, "i", 0x0, "t", 0x0, ":", 0x0, " "
	DCB	0x0, "I", 0x0, "n", 0x0, "c", 0x0, "o", 0x0, "r", 0x0, "r"
	DCB	0x0, "e", 0x0, "c", 0x0, "t", 0x0, " ", 0x0, "c", 0x0, "o"
	DCB	0x0, "n", 0x0, "t", 0x0, "e", 0x0, "x", 0x0, "t", 0x0, " "
	DCB	0x0, "p", 0x0, "a", 0x0, "r", 0x0, "a", 0x0, "m", 0x0, "e"
	DCB	0x0, "t", 0x0, "e", 0x0, "r", 0x0, 0xd, 0x0, 0xa, 0x0, 0x0
	DCB	0x0					; `string'

  00000			 AREA	 |.rdata|, DATA, READONLY
|??_C@_1CM@NOMCNDAK@?$AA?$CL?$AAA?$AAD?$AAC?$AA_?$AAD?$AAe?$AAi?$AAn?$AAi?$AAt?$AA?$CI?$AA0?$AAx?$AA?$CF?$AA0?$AA8?$AAx?$AA?$CJ?$AA?$AN?$AA?6?$AA?$AA@| DCB "+"
	DCB	0x0, "A", 0x0, "D", 0x0, "C", 0x0, "_", 0x0, "D", 0x0, "e"
	DCB	0x0, "i", 0x0, "n", 0x0, "i", 0x0, "t", 0x0, "(", 0x0, "0"
	DCB	0x0, "x", 0x0, "%", 0x0, "0", 0x0, "8", 0x0, "x", 0x0, ")"
	DCB	0x0, 0xd, 0x0, 0xa, 0x0, 0x0, 0x0	; `string'
; Function compile flags: /Odtp

  00f50			 AREA	 |.text|, CODE, ARM

  00f50		 |?ADC_Deinit@@YAHK@Z| PROC		; ADC_Deinit

; 620  : {

  00f50		 |$LN15@ADC_Deinit|
  00f50	e1a0c00d	 mov         r12, sp
  00f54	e92d0001	 stmdb       sp!, {r0}
  00f58	e92d5000	 stmdb       sp!, {r12, lr}
  00f5c	e24dd018	 sub         sp, sp, #0x18
  00f60		 |$M36506|

; 621  :     BOOL rc = FALSE;

  00f60	e3a03000	 mov         r3, #0
  00f64	e58d3004	 str         r3, [sp, #4]

; 622  :     Device_t *pDevice = (Device_t*)context;

  00f68	e59d3020	 ldr         r3, [sp, #0x20]
  00f6c	e58d3000	 str         r3, [sp]

; 623  : 
; 624  :     DEBUGMSG(ZONE_FUNCTION, (L"+ADC_Deinit(0x%08x)\r\n", context));

  00f70	e59f3118	 ldr         r3, [pc, #0x118]
  00f74	e5933440	 ldr         r3, [r3, #0x440]
  00f78	e3130004	 tst         r3, #4
  00f7c	0a000005	 beq         |$LN7@ADC_Deinit|
  00f80	e59d1020	 ldr         r1, [sp, #0x20]
  00f84	e59f0110	 ldr         r0, [pc, #0x110]
  00f88	eb000000	 bl          NKDbgPrintfW
  00f8c	e3a03001	 mov         r3, #1
  00f90	e58d300c	 str         r3, [sp, #0xC]
  00f94	ea000001	 b           |$LN8@ADC_Deinit|
  00f98		 |$LN7@ADC_Deinit|
  00f98	e3a03000	 mov         r3, #0
  00f9c	e58d300c	 str         r3, [sp, #0xC]
  00fa0		 |$LN8@ADC_Deinit|

; 625  : 
; 626  :     // Check if we get correct context
; 627  :     if ((pDevice == NULL) || (pDevice->cookie != MADC_DEVICE_COOKIE))

  00fa0	e59d3000	 ldr         r3, [sp]
  00fa4	e3530000	 cmp         r3, #0
  00fa8	0a000004	 beq         |$LN3@ADC_Deinit|
  00fac	e59d3000	 ldr         r3, [sp]
  00fb0	e5932000	 ldr         r2, [r3]
  00fb4	e59f30dc	 ldr         r3, [pc, #0xDC]
  00fb8	e1520003	 cmp         r2, r3
  00fbc	0a00000c	 beq         |$LN4@ADC_Deinit|
  00fc0		 |$LN3@ADC_Deinit|

; 628  :         {
; 629  :         DEBUGMSG (ZONE_ERROR, (L"ERROR: ADC_Deinit: "
; 630  :             L"Incorrect context parameter\r\n"
; 631  :             ));

  00fc0	e59f30c8	 ldr         r3, [pc, #0xC8]
  00fc4	e5933440	 ldr         r3, [r3, #0x440]
  00fc8	e3130001	 tst         r3, #1
  00fcc	0a000004	 beq         |$LN9@ADC_Deinit|
  00fd0	e59f00bc	 ldr         r0, [pc, #0xBC]
  00fd4	eb000000	 bl          NKDbgPrintfW
  00fd8	e3a03001	 mov         r3, #1
  00fdc	e58d3010	 str         r3, [sp, #0x10]
  00fe0	ea000001	 b           |$LN10@ADC_Deinit|
  00fe4		 |$LN9@ADC_Deinit|
  00fe4	e3a03000	 mov         r3, #0
  00fe8	e58d3010	 str         r3, [sp, #0x10]
  00fec		 |$LN10@ADC_Deinit|

; 632  :         goto cleanUp;

  00fec	ea000014	 b           |$LN2@ADC_Deinit|
  00ff0	ea000013	 b           |$cleanUp$36191|
  00ff4		 |$LN4@ADC_Deinit|

; 633  :         }
; 634  : 
; 635  :     //Close handle to TWL driver
; 636  :     if ( pDevice->hTWL != NULL )

  00ff4	e59d3000	 ldr         r3, [sp]
  00ff8	e2833018	 add         r3, r3, #0x18
  00ffc	e5933000	 ldr         r3, [r3]
  01000	e3530000	 cmp         r3, #0
  01004	0a000007	 beq         |$LN1@ADC_Deinit|

; 637  :         {
; 638  :         CloseHandle(pDevice->hTWL);

  01008	e59d3000	 ldr         r3, [sp]
  0100c	e2833018	 add         r3, r3, #0x18
  01010	e5930000	 ldr         r0, [r3]
  01014	eb000000	 bl          CloseHandle

; 639  :         pDevice->hTWL = NULL;

  01018	e59d3000	 ldr         r3, [sp]
  0101c	e2832018	 add         r2, r3, #0x18
  01020	e3a03000	 mov         r3, #0
  01024	e5823000	 str         r3, [r2]
  01028		 |$LN1@ADC_Deinit|

; 640  :         }
; 641  : 
; 642  :     // Delete critical sections
; 643  :     DeleteCriticalSection(&pDevice->cs);

  01028	e59d3000	 ldr         r3, [sp]
  0102c	e2830004	 add         r0, r3, #4
  01030	eb000000	 bl          DeleteCriticalSection

; 644  : 
; 645  :     // Free device structure
; 646  :     LocalFree(pDevice);

  01034	e59d0000	 ldr         r0, [sp]
  01038	eb000000	 bl          LocalFree

; 647  : 
; 648  :     // Done
; 649  :     rc = TRUE;

  0103c	e3a03001	 mov         r3, #1
  01040	e58d3004	 str         r3, [sp, #4]
  01044		 |$LN2@ADC_Deinit|
  01044		 |$cleanUp$36191|

; 650  : 
; 651  : cleanUp:
; 652  :     DEBUGMSG(ZONE_FUNCTION, (L"-ADC_Deinit(rc = %d)\r\n", rc));

  01044	e59f3044	 ldr         r3, [pc, #0x44]
  01048	e5933440	 ldr         r3, [r3, #0x440]
  0104c	e3130004	 tst         r3, #4
  01050	0a000005	 beq         |$LN11@ADC_Deinit|
  01054	e59d1004	 ldr         r1, [sp, #4]
  01058	e59f002c	 ldr         r0, [pc, #0x2C]
  0105c	eb000000	 bl          NKDbgPrintfW
  01060	e3a03001	 mov         r3, #1
  01064	e58d3014	 str         r3, [sp, #0x14]
  01068	ea000001	 b           |$LN12@ADC_Deinit|
  0106c		 |$LN11@ADC_Deinit|
  0106c	e3a03000	 mov         r3, #0
  01070	e58d3014	 str         r3, [sp, #0x14]
  01074		 |$LN12@ADC_Deinit|

; 653  :     return rc;

  01074	e59d3004	 ldr         r3, [sp, #4]
  01078	e58d3008	 str         r3, [sp, #8]

; 654  : }

  0107c	e59d0008	 ldr         r0, [sp, #8]
  01080	e28dd018	 add         sp, sp, #0x18
  01084	e89d6000	 ldmia       sp, {sp, lr}
  01088	e12fff1e	 bx          lr
  0108c		 |$LN16@ADC_Deinit|
  0108c		 |$LN17@ADC_Deinit|
  0108c	00000000	 DCD         |??_C@_1CO@HGBEFKHB@?$AA?9?$AAA?$AAD?$AAC?$AA_?$AAD?$AAe?$AAi?$AAn?$AAi?$AAt?$AA?$CI?$AAr?$AAc?$AA?5?$AA?$DN?$AA?5?$AA?$CF?$AAd?$AA?$CJ?$AA?$AN?$AA?6?$AA?$AA@|
  01090		 |$LN18@ADC_Deinit|
  01090	00000000	 DCD         |dpCurSettings|
  01094		 |$LN19@ADC_Deinit|
  01094	00000000	 DCD         |??_C@_1GC@FJCEJPFN@?$AAE?$AAR?$AAR?$AAO?$AAR?$AA?3?$AA?5?$AAA?$AAD?$AAC?$AA_?$AAD?$AAe?$AAi?$AAn?$AAi?$AAt?$AA?3?$AA?5?$AAI?$AAn?$AAc?$AAo?$AAr?$AAr?$AAe?$AAc?$AAt?$AA?5?$AAc?$AAo?$AAn@|
  01098		 |$LN20@ADC_Deinit|
  01098	61646344	 DCD         0x61646344
  0109c		 |$LN21@ADC_Deinit|
  0109c	00000000	 DCD         |??_C@_1CM@NOMCNDAK@?$AA?$CL?$AAA?$AAD?$AAC?$AA_?$AAD?$AAe?$AAi?$AAn?$AAi?$AAt?$AA?$CI?$AA0?$AAx?$AA?$CF?$AA0?$AA8?$AAx?$AA?$CJ?$AA?$AN?$AA?6?$AA?$AA@|
  010a0		 |$M36507|

			 ENDP  ; |?ADC_Deinit@@YAHK@Z|, ADC_Deinit

	EXPORT	|?ADC_Open@@YAKKKK@Z|			; ADC_Open

  00038			 AREA	 |.pdata|, PDATA
|$T36521| DCD	|$LN5@ADC_Open|
	DCD	0x40000a04
; Function compile flags: /Odtp

  010a0			 AREA	 |.text|, CODE, ARM

  010a0		 |?ADC_Open@@YAKKKK@Z| PROC		; ADC_Open

; 668  : {

  010a0		 |$LN5@ADC_Open|
  010a0	e1a0c00d	 mov         r12, sp
  010a4	e92d0007	 stmdb       sp!, {r0 - r2}
  010a8	e92d5000	 stmdb       sp!, {r12, lr}
  010ac	e24dd004	 sub         sp, sp, #4
  010b0		 |$M36518|

; 669  :     UNREFERENCED_PARAMETER(context);
; 670  :     UNREFERENCED_PARAMETER(accessCode);
; 671  :     UNREFERENCED_PARAMETER(shareMode);
; 672  :     return context;

  010b0	e59d300c	 ldr         r3, [sp, #0xC]
  010b4	e58d3000	 str         r3, [sp]

; 673  : }

  010b8	e59d0000	 ldr         r0, [sp]
  010bc	e28dd004	 add         sp, sp, #4
  010c0	e89d6000	 ldmia       sp, {sp, lr}
  010c4	e12fff1e	 bx          lr
  010c8		 |$M36519|

			 ENDP  ; |?ADC_Open@@YAKKKK@Z|, ADC_Open

	EXPORT	|?ADC_Close@@YAHK@Z|			; ADC_Close

  00040			 AREA	 |.pdata|, PDATA
|$T36527| DCD	|$LN5@ADC_Close|
	DCD	0x40000a04
; Function compile flags: /Odtp

  010c8			 AREA	 |.text|, CODE, ARM

  010c8		 |?ADC_Close@@YAHK@Z| PROC		; ADC_Close

; 685  : {

  010c8		 |$LN5@ADC_Close|
  010c8	e1a0c00d	 mov         r12, sp
  010cc	e92d0001	 stmdb       sp!, {r0}
  010d0	e92d5000	 stmdb       sp!, {r12, lr}
  010d4	e24dd004	 sub         sp, sp, #4
  010d8		 |$M36524|

; 686  :     UNREFERENCED_PARAMETER(context);
; 687  :     return TRUE;

  010d8	e3a03001	 mov         r3, #1
  010dc	e58d3000	 str         r3, [sp]

; 688  : }

  010e0	e59d0000	 ldr         r0, [sp]
  010e4	e28dd004	 add         sp, sp, #4
  010e8	e89d6000	 ldmia       sp, {sp, lr}
  010ec	e12fff1e	 bx          lr
  010f0		 |$M36525|

			 ENDP  ; |?ADC_Close@@YAHK@Z|, ADC_Close

	EXPORT	|??_C@_1DE@ENDOIHHP@?$AA?9?$AAA?$AAD?$AAC?$AA_?$AAI?$AAO?$AAC?$AAo?$AAn?$AAt?$AAr?$AAo?$AAl?$AA?$CI?$AAr?$AAc?$AA?5?$AA?$DN?$AA?5?$AA?$CF?$AAd?$AA?$CJ?$AA?$AN?$AA?6?$AA?$AA@| [ DATA ] ; `string'
	EXPORT	|??_C@_1JC@JDDMACAJ@?$AAE?$AAR?$AAR?$AAO?$AAR?$AA?3?$AA?5?$AAA?$AAD?$AAC?$AA_?$AAI?$AAO?$AAC?$AAo?$AAn?$AAt?$AAr?$AAo?$AAl?$AA?3?$AA?5?$AAI?$AAn?$AAv?$AAa?$AAl?$AAi?$AAd?$AA?5?$AAp?$AAa@| [ DATA ] ; `string'
	EXPORT	|??_C@_1HI@IHABNCCJ@?$AAE?$AAR?$AAR?$AAO?$AAR?$AA?3?$AA?5?$AAA?$AAD?$AAC?$AA_?$AAI?$AAO?$AAC?$AAo?$AAn?$AAt?$AAr?$AAo?$AAl?$AA?3?$AA?5?$AAF?$AAa?$AAi?$AAl?$AAe?$AAd?$AA?5?$AAt?$AAo?$AA?5@| [ DATA ] ; `string'
	EXPORT	|??_C@_1II@LGJKCMKE@?$AAE?$AAR?$AAR?$AAO?$AAR?$AA?3?$AA?5?$AAA?$AAD?$AAC?$AA_?$AAI?$AAO?$AAC?$AAo?$AAn?$AAt?$AAr?$AAo?$AAl?$AA?3?$AA?5?$AAI?$AAn?$AAv?$AAa?$AAl?$AAi?$AAd?$AA?5?$AAp?$AAa@| [ DATA ] ; `string'
	EXPORT	|?IsEqualGUID@@YAHABU_GUID@@0@Z|	; IsEqualGUID
	EXPORT	|??_C@_1OG@LDNJMDCF@?$AAE?$AAR?$AAR?$AAO?$AAR?$AA?3?$AA?5?$AAA?$AAD?$AAC?$AA_?$AAI?$AAO?$AAC?$AAo?$AAn?$AAt?$AAr?$AAo?$AAl?$AA?3?$AA?5?$AAI?$AAO?$AAC?$AAT?$AAL?$AA_?$AAD?$AAD?$AAK?$AA_@| [ DATA ] ; `string'
	EXPORT	|GetCurrentProcessId|
	EXPORT	|??_C@_1GI@CGFHLGFO@?$AAE?$AAR?$AAR?$AAO?$AAR?$AA?3?$AA?5?$AAA?$AAD?$AAC?$AA_?$AAI?$AAO?$AAC?$AAo?$AAn?$AAt?$AAr?$AAo?$AAl?$AA?3?$AA?5?$AAI?$AAn?$AAc?$AAo?$AAr?$AAr?$AAe?$AAc?$AAt?$AA?5@| [ DATA ] ; `string'
	EXPORT	|??_C@_1IC@DBNCEGFA@?$AA?$CL?$AAA?$AAD?$AAC?$AA_?$AAI?$AAO?$AAC?$AAo?$AAn?$AAt?$AAr?$AAo?$AAl?$AA?$CI?$AA0?$AAx?$AA?$CF?$AA0?$AA8?$AAx?$AA?0?$AA?5?$AA0?$AAx?$AA?$CF?$AA0?$AA8?$AAx?$AA?0?$AA?5?$AA0@| [ DATA ] ; `string'
	EXPORT	|?ADC_IOControl@@YAHKKPAEK0KPAK@Z|	; ADC_IOControl
	IMPORT	|CeSafeCopyMemory|
	IMPORT	|SetLastError|
	IMPORT	|GetCallerProcess|
	IMPORT	|__rt_udiv|

  00048			 AREA	 |.pdata|, PDATA
|$T36555| DCD	|$LN43@ADC_IOCont|
	DCD	0x40013d04

  00000			 AREA	 |.rdata|, DATA, READONLY
|??_C@_1DE@ENDOIHHP@?$AA?9?$AAA?$AAD?$AAC?$AA_?$AAI?$AAO?$AAC?$AAo?$AAn?$AAt?$AAr?$AAo?$AAl?$AA?$CI?$AAr?$AAc?$AA?5?$AA?$DN?$AA?5?$AA?$CF?$AAd?$AA?$CJ?$AA?$AN?$AA?6?$AA?$AA@| DCB "-"
	DCB	0x0, "A", 0x0, "D", 0x0, "C", 0x0, "_", 0x0, "I", 0x0, "O"
	DCB	0x0, "C", 0x0, "o", 0x0, "n", 0x0, "t", 0x0, "r", 0x0, "o"
	DCB	0x0, "l", 0x0, "(", 0x0, "r", 0x0, "c", 0x0, " ", 0x0, "="
	DCB	0x0, " ", 0x0, "%", 0x0, "d", 0x0, ")", 0x0, 0xd, 0x0, 0xa
	DCB	0x0, 0x0, 0x0				; `string'

  00000			 AREA	 |.rdata|, DATA, READONLY
|??_C@_1JC@JDDMACAJ@?$AAE?$AAR?$AAR?$AAO?$AAR?$AA?3?$AA?5?$AAA?$AAD?$AAC?$AA_?$AAI?$AAO?$AAC?$AAo?$AAn?$AAt?$AAr?$AAo?$AAl?$AA?3?$AA?5?$AAI?$AAn?$AAv?$AAa?$AAl?$AAi?$AAd?$AA?5?$AAp?$AAa@| DCB "E"
	DCB	0x0, "R", 0x0, "R", 0x0, "O", 0x0, "R", 0x0, ":", 0x0, " "
	DCB	0x0, "A", 0x0, "D", 0x0, "C", 0x0, "_", 0x0, "I", 0x0, "O"
	DCB	0x0, "C", 0x0, "o", 0x0, "n", 0x0, "t", 0x0, "r", 0x0, "o"
	DCB	0x0, "l", 0x0, ":", 0x0, " ", 0x0, "I", 0x0, "n", 0x0, "v"
	DCB	0x0, "a", 0x0, "l", 0x0, "i", 0x0, "d", 0x0, " ", 0x0, "p"
	DCB	0x0, "a", 0x0, "r", 0x0, "a", 0x0, "m", 0x0, "e", 0x0, "t"
	DCB	0x0, "e", 0x0, "r", 0x0, "s", 0x0, " ", 0x0, "f", 0x0, "o"
	DCB	0x0, "r", 0x0, " ", 0x0, "I", 0x0, "O", 0x0, "C", 0x0, "T"
	DCB	0x0, "L", 0x0, "_", 0x0, "M", 0x0, "A", 0x0, "D", 0x0, "C"
	DCB	0x0, "_", 0x0, "C", 0x0, "O", 0x0, "N", 0x0, "V", 0x0, "E"
	DCB	0x0, "R", 0x0, "T", 0x0, "T", 0x0, "O", 0x0, "V", 0x0, "O"
	DCB	0x0, "L", 0x0, "T", 0x0, "S", 0x0, 0xd, 0x0, 0xa, 0x0, 0x0
	DCB	0x0					; `string'

  00000			 AREA	 |.rdata|, DATA, READONLY
|??_C@_1HI@IHABNCCJ@?$AAE?$AAR?$AAR?$AAO?$AAR?$AA?3?$AA?5?$AAA?$AAD?$AAC?$AA_?$AAI?$AAO?$AAC?$AAo?$AAn?$AAt?$AAr?$AAo?$AAl?$AA?3?$AA?5?$AAF?$AAa?$AAi?$AAl?$AAe?$AAd?$AA?5?$AAt?$AAo?$AA?5@| DCB "E"
	DCB	0x0, "R", 0x0, "R", 0x0, "O", 0x0, "R", 0x0, ":", 0x0, " "
	DCB	0x0, "A", 0x0, "D", 0x0, "C", 0x0, "_", 0x0, "I", 0x0, "O"
	DCB	0x0, "C", 0x0, "o", 0x0, "n", 0x0, "t", 0x0, "r", 0x0, "o"
	DCB	0x0, "l", 0x0, ":", 0x0, " ", 0x0, "F", 0x0, "a", 0x0, "i"
	DCB	0x0, "l", 0x0, "e", 0x0, "d", 0x0, " ", 0x0, "t", 0x0, "o"
	DCB	0x0, " ", 0x0, "r", 0x0, "e", 0x0, "t", 0x0, "r", 0x0, "i"
	DCB	0x0, "e", 0x0, "v", 0x0, "e", 0x0, " ", 0x0, "v", 0x0, "o"
	DCB	0x0, "l", 0x0, "t", 0x0, "a", 0x0, "g", 0x0, "e", 0x0, " "
	DCB	0x0, "r", 0x0, "e", 0x0, "a", 0x0, "d", 0x0, "i", 0x0, "n"
	DCB	0x0, "g", 0x0, "s", 0x0, 0xd, 0x0, 0xa, 0x0, 0x0, 0x0 ; `string'

  00000			 AREA	 |.rdata|, DATA, READONLY
|??_C@_1II@LGJKCMKE@?$AAE?$AAR?$AAR?$AAO?$AAR?$AA?3?$AA?5?$AAA?$AAD?$AAC?$AA_?$AAI?$AAO?$AAC?$AAo?$AAn?$AAt?$AAr?$AAo?$AAl?$AA?3?$AA?5?$AAI?$AAn?$AAv?$AAa?$AAl?$AAi?$AAd?$AA?5?$AAp?$AAa@| DCB "E"
	DCB	0x0, "R", 0x0, "R", 0x0, "O", 0x0, "R", 0x0, ":", 0x0, " "
	DCB	0x0, "A", 0x0, "D", 0x0, "C", 0x0, "_", 0x0, "I", 0x0, "O"
	DCB	0x0, "C", 0x0, "o", 0x0, "n", 0x0, "t", 0x0, "r", 0x0, "o"
	DCB	0x0, "l", 0x0, ":", 0x0, " ", 0x0, "I", 0x0, "n", 0x0, "v"
	DCB	0x0, "a", 0x0, "l", 0x0, "i", 0x0, "d", 0x0, " ", 0x0, "p"
	DCB	0x0, "a", 0x0, "r", 0x0, "a", 0x0, "m", 0x0, "e", 0x0, "t"
	DCB	0x0, "e", 0x0, "r", 0x0, "s", 0x0, " ", 0x0, "f", 0x0, "o"
	DCB	0x0, "r", 0x0, " ", 0x0, "I", 0x0, "O", 0x0, "C", 0x0, "T"
	DCB	0x0, "L", 0x0, "_", 0x0, "M", 0x0, "A", 0x0, "D", 0x0, "C"
	DCB	0x0, "_", 0x0, "R", 0x0, "E", 0x0, "A", 0x0, "D", 0x0, "V"
	DCB	0x0, "O", 0x0, "L", 0x0, "T", 0x0, "S", 0x0, 0xd, 0x0, 0xa
	DCB	0x0, 0x0, 0x0				; `string'

  00000			 AREA	 |.rdata|, DATA, READONLY
|??_C@_1OG@LDNJMDCF@?$AAE?$AAR?$AAR?$AAO?$AAR?$AA?3?$AA?5?$AAA?$AAD?$AAC?$AA_?$AAI?$AAO?$AAC?$AAo?$AAn?$AAt?$AAr?$AAo?$AAl?$AA?3?$AA?5?$AAI?$AAO?$AAC?$AAT?$AAL?$AA_?$AAD?$AAD?$AAK?$AA_@| DCB "E"
	DCB	0x0, "R", 0x0, "R", 0x0, "O", 0x0, "R", 0x0, ":", 0x0, " "
	DCB	0x0, "A", 0x0, "D", 0x0, "C", 0x0, "_", 0x0, "I", 0x0, "O"
	DCB	0x0, "C", 0x0, "o", 0x0, "n", 0x0, "t", 0x0, "r", 0x0, "o"
	DCB	0x0, "l", 0x0, ":", 0x0, " ", 0x0, "I", 0x0, "O", 0x0, "C"
	DCB	0x0, "T", 0x0, "L", 0x0, "_", 0x0, "D", 0x0, "D", 0x0, "K"
	DCB	0x0, "_", 0x0, "G", 0x0, "E", 0x0, "T", 0x0, "_", 0x0, "D"
	DCB	0x0, "R", 0x0, "I", 0x0, "V", 0x0, "E", 0x0, "R", 0x0, "_"
	DCB	0x0, "I", 0x0, "F", 0x0, "C", 0x0, " ", 0x0, "c", 0x0, "a"
	DCB	0x0, "n", 0x0, " ", 0x0, "b", 0x0, "e", 0x0, " ", 0x0, "c"
	DCB	0x0, "a", 0x0, "l", 0x0, "l", 0x0, "e", 0x0, "d", 0x0, " "
	DCB	0x0, "o", 0x0, "n", 0x0, "l", 0x0, "y", 0x0, " ", 0x0, "f"
	DCB	0x0, "r", 0x0, "o", 0x0, "m", 0x0, " ", 0x0, "d", 0x0, "e"
	DCB	0x0, "v", 0x0, "i", 0x0, "c", 0x0, "e", 0x0, " ", 0x0, "p"
	DCB	0x0, "r", 0x0, "o", 0x0, "c", 0x0, "e", 0x0, "s", 0x0, "s"
	DCB	0x0, " ", 0x0, "(", 0x0, "c", 0x0, "a", 0x0, "l", 0x0, "l"
	DCB	0x0, "e", 0x0, "r", 0x0, " ", 0x0, "p", 0x0, "r", 0x0, "o"
	DCB	0x0, "c", 0x0, "e", 0x0, "s", 0x0, "s", 0x0, " ", 0x0, "i"
	DCB	0x0, "d", 0x0, " ", 0x0, "0", 0x0, "x", 0x0, "%", 0x0, "0"
	DCB	0x0, "8", 0x0, "x", 0x0, ")", 0x0, 0xd, 0x0, 0xa, 0x0, 0x0
	DCB	0x0					; `string'

  00000			 AREA	 |.rdata|, DATA, READONLY
|??_C@_1GI@CGFHLGFO@?$AAE?$AAR?$AAR?$AAO?$AAR?$AA?3?$AA?5?$AAA?$AAD?$AAC?$AA_?$AAI?$AAO?$AAC?$AAo?$AAn?$AAt?$AAr?$AAo?$AAl?$AA?3?$AA?5?$AAI?$AAn?$AAc?$AAo?$AAr?$AAr?$AAe?$AAc?$AAt?$AA?5@| DCB "E"
	DCB	0x0, "R", 0x0, "R", 0x0, "O", 0x0, "R", 0x0, ":", 0x0, " "
	DCB	0x0, "A", 0x0, "D", 0x0, "C", 0x0, "_", 0x0, "I", 0x0, "O"
	DCB	0x0, "C", 0x0, "o", 0x0, "n", 0x0, "t", 0x0, "r", 0x0, "o"
	DCB	0x0, "l", 0x0, ":", 0x0, " ", 0x0, "I", 0x0, "n", 0x0, "c"
	DCB	0x0, "o", 0x0, "r", 0x0, "r", 0x0, "e", 0x0, "c", 0x0, "t"
	DCB	0x0, " ", 0x0, "c", 0x0, "o", 0x0, "n", 0x0, "t", 0x0, "e"
	DCB	0x0, "x", 0x0, "t", 0x0, " ", 0x0, "p", 0x0, "a", 0x0, "r"
	DCB	0x0, "a", 0x0, "m", 0x0, "e", 0x0, "t", 0x0, "e", 0x0, "r"
	DCB	0x0, 0xd, 0x0, 0xa, 0x0, 0x0, 0x0	; `string'

  00000			 AREA	 |.rdata|, DATA, READONLY
|??_C@_1IC@DBNCEGFA@?$AA?$CL?$AAA?$AAD?$AAC?$AA_?$AAI?$AAO?$AAC?$AAo?$AAn?$AAt?$AAr?$AAo?$AAl?$AA?$CI?$AA0?$AAx?$AA?$CF?$AA0?$AA8?$AAx?$AA?0?$AA?5?$AA0?$AAx?$AA?$CF?$AA0?$AA8?$AAx?$AA?0?$AA?5?$AA0@| DCB "+"
	DCB	0x0, "A", 0x0, "D", 0x0, "C", 0x0, "_", 0x0, "I", 0x0, "O"
	DCB	0x0, "C", 0x0, "o", 0x0, "n", 0x0, "t", 0x0, "r", 0x0, "o"
	DCB	0x0, "l", 0x0, "(", 0x0, "0", 0x0, "x", 0x0, "%", 0x0, "0"
	DCB	0x0, "8", 0x0, "x", 0x0, ",", 0x0, " ", 0x0, "0", 0x0, "x"
	DCB	0x0, "%", 0x0, "0", 0x0, "8", 0x0, "x", 0x0, ",", 0x0, " "
	DCB	0x0, "0", 0x0, "x", 0x0, "%", 0x0, "0", 0x0, "8", 0x0, "x"
	DCB	0x0, ",", 0x0, " ", 0x0, "%", 0x0, "d", 0x0, ",", 0x0, " "
	DCB	0x0, "0", 0x0, "x", 0x0, "%", 0x0, "0", 0x0, "8", 0x0, "x"
	DCB	0x0, ",", 0x0, " ", 0x0, "%", 0x0, "d", 0x0, ",", 0x0, " "
	DCB	0x0, "0", 0x0, "x", 0x0, "%", 0x0, "0", 0x0, "8", 0x0, "x"
	DCB	0x0, ")", 0x0, 0xd, 0x0, 0xa, 0x0, 0x0, 0x0 ; `string'
; Function compile flags: /Odtp

  010f0			 AREA	 |.text|, CODE, ARM

  010f0		 |?ADC_IOControl@@YAHKKPAEK0KPAK@Z| PROC ; ADC_IOControl

; 703  : {

  010f0		 |$LN43@ADC_IOCont|
  010f0	e1a0c00d	 mov         r12, sp
  010f4	e92d000f	 stmdb       sp!, {r0 - r3}
  010f8	e92d5000	 stmdb       sp!, {r12, lr}
  010fc	e24dd080	 sub         sp, sp, #0x80
  01100		 |$M36552|

; 704  :     BOOL rc = FALSE;

  01100	e3a03000	 mov         r3, #0
  01104	e58d3014	 str         r3, [sp, #0x14]

; 705  :     DEVICE_IFC_MADC ifc;
; 706  :     IOCTL_MADC_CONVERTTOVOLTS_IN *pConvertToVolts;
; 707  :     Device_t *pDevice = (Device_t*)context;

  01108	e59d3088	 ldr         r3, [sp, #0x88]
  0110c	e58d3010	 str         r3, [sp, #0x10]

; 708  : 
; 709  :     DEBUGMSG(ZONE_FUNCTION, (
; 710  :         L"+ADC_IOControl(0x%08x, 0x%08x, 0x%08x, %d, 0x%08x, %d, 0x%08x)\r\n",
; 711  :         context, code, pInBuffer, inSize, pOutBuffer, outSize, pOutSize
; 712  :         ));

  01110	e59f349c	 ldr         r3, [pc, #0x49C]
  01114	e5933440	 ldr         r3, [r3, #0x440]
  01118	e3130004	 tst         r3, #4
  0111c	0a00000f	 beq         |$LN25@ADC_IOCont|
  01120	e59d30a0	 ldr         r3, [sp, #0xA0]
  01124	e58d300c	 str         r3, [sp, #0xC]
  01128	e59d309c	 ldr         r3, [sp, #0x9C]
  0112c	e58d3008	 str         r3, [sp, #8]
  01130	e59d3098	 ldr         r3, [sp, #0x98]
  01134	e58d3004	 str         r3, [sp, #4]
  01138	e59d3094	 ldr         r3, [sp, #0x94]
  0113c	e58d3000	 str         r3, [sp]
  01140	e59d3090	 ldr         r3, [sp, #0x90]
  01144	e59d208c	 ldr         r2, [sp, #0x8C]
  01148	e59d1088	 ldr         r1, [sp, #0x88]
  0114c	e59f048c	 ldr         r0, [pc, #0x48C]
  01150	eb000000	 bl          NKDbgPrintfW
  01154	e3a03001	 mov         r3, #1
  01158	e58d3040	 str         r3, [sp, #0x40]
  0115c	ea000001	 b           |$LN26@ADC_IOCont|
  01160		 |$LN25@ADC_IOCont|
  01160	e3a03000	 mov         r3, #0
  01164	e58d3040	 str         r3, [sp, #0x40]
  01168		 |$LN26@ADC_IOCont|

; 713  : 
; 714  :     // Check if we get correct context
; 715  :     if ((pDevice == NULL) || (pDevice->cookie != MADC_DEVICE_COOKIE))

  01168	e59d3010	 ldr         r3, [sp, #0x10]
  0116c	e3530000	 cmp         r3, #0
  01170	0a000004	 beq         |$LN21@ADC_IOCont|
  01174	e59d3010	 ldr         r3, [sp, #0x10]
  01178	e5932000	 ldr         r2, [r3]
  0117c	e59f3458	 ldr         r3, [pc, #0x458]
  01180	e1520003	 cmp         r2, r3
  01184	0a00000c	 beq         |$LN22@ADC_IOCont|
  01188		 |$LN21@ADC_IOCont|

; 716  :         {
; 717  :         DEBUGMSG(ZONE_ERROR, (L"ERROR: ADC_IOControl: "
; 718  :             L"Incorrect context parameter\r\n"
; 719  :             ));

  01188	e59f3424	 ldr         r3, [pc, #0x424]
  0118c	e5933440	 ldr         r3, [r3, #0x440]
  01190	e3130001	 tst         r3, #1
  01194	0a000004	 beq         |$LN27@ADC_IOCont|
  01198	e59f0438	 ldr         r0, [pc, #0x438]
  0119c	eb000000	 bl          NKDbgPrintfW
  011a0	e3a03001	 mov         r3, #1
  011a4	e58d3044	 str         r3, [sp, #0x44]
  011a8	ea000001	 b           |$LN28@ADC_IOCont|
  011ac		 |$LN27@ADC_IOCont|
  011ac	e3a03000	 mov         r3, #0
  011b0	e58d3044	 str         r3, [sp, #0x44]
  011b4		 |$LN28@ADC_IOCont|

; 720  :         goto cleanUp;

  011b4	ea0000eb	 b           |$LN20@ADC_IOCont|
  011b8	ea0000ea	 b           |$cleanUp$36224|
  011bc		 |$LN22@ADC_IOCont|

; 721  :         }
; 722  : 
; 723  :     switch (code)

  011bc	e59d308c	 ldr         r3, [sp, #0x8C]
  011c0	e58d3048	 str         r3, [sp, #0x48]
  011c4	e59d2048	 ldr         r2, [sp, #0x48]
  011c8	e3a03822	 mov         r3, #0x22, 16
  011cc	e3833b01	 orr         r3, r3, #1, 22
  011d0	e1520003	 cmp         r2, r3
  011d4	0a000009	 beq         |$LN17@ADC_IOCont|
  011d8	e59d2048	 ldr         r2, [sp, #0x48]
  011dc	e3a03822	 mov         r3, #0x22, 16
  011e0	e3833a01	 orr         r3, r3, #1, 20
  011e4	e1520003	 cmp         r2, r3
  011e8	0a000053	 beq         |$LN8@ADC_IOCont|
  011ec	e59d2048	 ldr         r2, [sp, #0x48]
  011f0	e59f33dc	 ldr         r3, [pc, #0x3DC]
  011f4	e1520003	 cmp         r2, r3
  011f8	0a000093	 beq         |$LN4@ADC_IOCont|
  011fc	ea0000d9	 b           |$LN18@ADC_IOCont|
  01200		 |$LN17@ADC_IOCont|

; 724  :         {
; 725  :         case IOCTL_DDK_GET_DRIVER_IFC:
; 726  :             // We can give interface only to our peer in device process
; 727  :             if (GetCurrentProcessId() != (DWORD)GetCallerProcess())

  01200	eb000000	 bl          GetCurrentProcessId
  01204	e58d004c	 str         r0, [sp, #0x4C]
  01208	eb000000	 bl          GetCallerProcess
  0120c	e58d0050	 str         r0, [sp, #0x50]
  01210	e59d204c	 ldr         r2, [sp, #0x4C]
  01214	e59d3050	 ldr         r3, [sp, #0x50]
  01218	e1520003	 cmp         r2, r3
  0121c	0a000010	 beq         |$LN16@ADC_IOCont|

; 728  :                 {
; 729  :                 DEBUGMSG(ZONE_ERROR, (L"ERROR: ADC_IOControl: "
; 730  :                     L"IOCTL_DDK_GET_DRIVER_IFC can be called only from "
; 731  :                     L"device process (caller process id 0x%08x)\r\n",
; 732  :                     GetCallerProcess()
; 733  :                     ));

  01220	e59f338c	 ldr         r3, [pc, #0x38C]
  01224	e5933440	 ldr         r3, [r3, #0x440]
  01228	e3130001	 tst         r3, #1
  0122c	0a000007	 beq         |$LN29@ADC_IOCont|
  01230	eb000000	 bl          GetCallerProcess
  01234	e58d0054	 str         r0, [sp, #0x54]
  01238	e59d1054	 ldr         r1, [sp, #0x54]
  0123c	e59f038c	 ldr         r0, [pc, #0x38C]
  01240	eb000000	 bl          NKDbgPrintfW
  01244	e3a03001	 mov         r3, #1
  01248	e58d3058	 str         r3, [sp, #0x58]
  0124c	ea000001	 b           |$LN30@ADC_IOCont|
  01250		 |$LN29@ADC_IOCont|
  01250	e3a03000	 mov         r3, #0
  01254	e58d3058	 str         r3, [sp, #0x58]
  01258		 |$LN30@ADC_IOCont|

; 734  :                 SetLastError(ERROR_ACCESS_DENIED);

  01258	e3a00005	 mov         r0, #5
  0125c	eb000000	 bl          SetLastError

; 735  :                 break;

  01260	ea0000c0	 b           |$LN18@ADC_IOCont|
  01264		 |$LN16@ADC_IOCont|

; 736  :                 }
; 737  :             // Check input parameters
; 738  :             if ((pInBuffer == NULL) || (inSize < sizeof(GUID)))

  01264	e59d3090	 ldr         r3, [sp, #0x90]
  01268	e3530000	 cmp         r3, #0
  0126c	0a000002	 beq         |$LN14@ADC_IOCont|
  01270	e59d3094	 ldr         r3, [sp, #0x94]
  01274	e3530010	 cmp         r3, #0x10
  01278	2a000002	 bcs         |$LN15@ADC_IOCont|
  0127c		 |$LN14@ADC_IOCont|

; 739  :                 {
; 740  :                 SetLastError(ERROR_INVALID_PARAMETER);

  0127c	e3a00057	 mov         r0, #0x57
  01280	eb000000	 bl          SetLastError

; 741  :                 break;

  01284	ea0000b7	 b           |$LN18@ADC_IOCont|
  01288		 |$LN15@ADC_IOCont|

; 742  :                 }
; 743  :             if (IsEqualGUID(*(GUID*)pInBuffer, DEVICE_IFC_MADC_GUID))

  01288	e59f133c	 ldr         r1, [pc, #0x33C]
  0128c	e59d0090	 ldr         r0, [sp, #0x90]
  01290	eb000000	 bl          |?IsEqualGUID@@YAHABU_GUID@@0@Z|
  01294	e58d005c	 str         r0, [sp, #0x5C]
  01298	e59d305c	 ldr         r3, [sp, #0x5C]
  0129c	e3530000	 cmp         r3, #0
  012a0	0a000022	 beq         |$LN13@ADC_IOCont|

; 744  :                 {
; 745  :                 if (pOutSize != NULL) *pOutSize = sizeof(DEVICE_IFC_MADC);

  012a4	e59d30a0	 ldr         r3, [sp, #0xA0]
  012a8	e3530000	 cmp         r3, #0
  012ac	0a000002	 beq         |$LN12@ADC_IOCont|
  012b0	e59d20a0	 ldr         r2, [sp, #0xA0]
  012b4	e3a0300c	 mov         r3, #0xC
  012b8	e5823000	 str         r3, [r2]
  012bc		 |$LN12@ADC_IOCont|

; 746  :                 if (pOutBuffer == NULL || outSize < sizeof(DEVICE_IFC_MADC))

  012bc	e59d3098	 ldr         r3, [sp, #0x98]
  012c0	e3530000	 cmp         r3, #0
  012c4	0a000002	 beq         |$LN10@ADC_IOCont|
  012c8	e59d309c	 ldr         r3, [sp, #0x9C]
  012cc	e353000c	 cmp         r3, #0xC
  012d0	2a000002	 bcs         |$LN11@ADC_IOCont|
  012d4		 |$LN10@ADC_IOCont|

; 747  :                     {
; 748  :                     SetLastError(ERROR_INVALID_PARAMETER);

  012d4	e3a00057	 mov         r0, #0x57
  012d8	eb000000	 bl          SetLastError

; 749  :                     break;

  012dc	ea0000a1	 b           |$LN18@ADC_IOCont|
  012e0		 |$LN11@ADC_IOCont|

; 750  :                     }
; 751  :                 ifc.context = context;

  012e0	e59d3088	 ldr         r3, [sp, #0x88]
  012e4	e58d301c	 str         r3, [sp, #0x1C]

; 752  :                 ifc.pfnReadValue = ReadValue;

  012e8	e59f32d8	 ldr         r3, [pc, #0x2D8]
  012ec	e58d3020	 str         r3, [sp, #0x20]

; 753  :                 ifc.pfnConvertToVolts = ConvertToVolts;

  012f0	e59f32cc	 ldr         r3, [pc, #0x2CC]
  012f4	e58d3024	 str         r3, [sp, #0x24]

; 754  :                 if (!CeSafeCopyMemory(pOutBuffer, &ifc, sizeof(DEVICE_IFC_MADC)))

  012f8	e3a0200c	 mov         r2, #0xC
  012fc	e28d101c	 add         r1, sp, #0x1C
  01300	e59d0098	 ldr         r0, [sp, #0x98]
  01304	eb000000	 bl          CeSafeCopyMemory
  01308	e58d0060	 str         r0, [sp, #0x60]
  0130c	e59d3060	 ldr         r3, [sp, #0x60]
  01310	e3530000	 cmp         r3, #0
  01314	1a000002	 bne         |$LN9@ADC_IOCont|

; 755  :                     {
; 756  :                     SetLastError(ERROR_INVALID_PARAMETER);

  01318	e3a00057	 mov         r0, #0x57
  0131c	eb000000	 bl          SetLastError

; 757  :                     break;

  01320	ea000090	 b           |$LN18@ADC_IOCont|
  01324		 |$LN9@ADC_IOCont|

; 758  :                     }
; 759  :                 rc = TRUE;

  01324	e3a03001	 mov         r3, #1
  01328	e58d3014	 str         r3, [sp, #0x14]

; 760  :                 break;

  0132c	ea00008d	 b           |$LN18@ADC_IOCont|
  01330		 |$LN13@ADC_IOCont|

; 761  :                 }
; 762  :             SetLastError(ERROR_INVALID_PARAMETER);

  01330	e3a00057	 mov         r0, #0x57
  01334	eb000000	 bl          SetLastError

; 763  :             break;

  01338	ea00008a	 b           |$LN18@ADC_IOCont|
  0133c		 |$LN8@ADC_IOCont|

; 764  : 
; 765  :         case IOCTL_MADC_READVALUE:
; 766  :             if (pInBuffer == NULL || pOutBuffer == NULL || 
; 767  :                 inSize != sizeof(DWORD) || outSize < sizeof(DWORD))

  0133c	e59d3090	 ldr         r3, [sp, #0x90]
  01340	e3530000	 cmp         r3, #0
  01344	0a000008	 beq         |$LN6@ADC_IOCont|
  01348	e59d3098	 ldr         r3, [sp, #0x98]
  0134c	e3530000	 cmp         r3, #0
  01350	0a000005	 beq         |$LN6@ADC_IOCont|
  01354	e59d3094	 ldr         r3, [sp, #0x94]
  01358	e3530004	 cmp         r3, #4
  0135c	1a000002	 bne         |$LN6@ADC_IOCont|
  01360	e59d309c	 ldr         r3, [sp, #0x9C]
  01364	e3530004	 cmp         r3, #4
  01368	2a00000d	 bcs         |$LN7@ADC_IOCont|
  0136c		 |$LN6@ADC_IOCont|

; 768  :                 {
; 769  :                 DEBUGMSG(ZONE_ERROR, (L"ERROR: ADC_IOControl: "
; 770  :                     L"Invalid parameters for IOCTL_MADC_READVOLTS\r\n"
; 771  :                     ));

  0136c	e59f3240	 ldr         r3, [pc, #0x240]
  01370	e5933440	 ldr         r3, [r3, #0x440]
  01374	e3130001	 tst         r3, #1
  01378	0a000004	 beq         |$LN31@ADC_IOCont|
  0137c	e59f023c	 ldr         r0, [pc, #0x23C]
  01380	eb000000	 bl          NKDbgPrintfW
  01384	e3a03001	 mov         r3, #1
  01388	e58d3064	 str         r3, [sp, #0x64]
  0138c	ea000001	 b           |$LN32@ADC_IOCont|
  01390		 |$LN31@ADC_IOCont|
  01390	e3a03000	 mov         r3, #0
  01394	e58d3064	 str         r3, [sp, #0x64]
  01398		 |$LN32@ADC_IOCont|

; 772  :                 SetLastError(ERROR_INVALID_PARAMETER);

  01398	e3a00057	 mov         r0, #0x57
  0139c	eb000000	 bl          SetLastError

; 773  :                 break;

  013a0	ea000070	 b           |$LN18@ADC_IOCont|
  013a4		 |$LN7@ADC_IOCont|

; 774  :                 }
; 775  : 
; 776  :             *pOutSize = ReadValue(context, *(DWORD*)pInBuffer, (DWORD*)pOutBuffer, 
; 777  :                             outSize/sizeof(DWORD));

  013a4	e59d109c	 ldr         r1, [sp, #0x9C]
  013a8	e3a00004	 mov         r0, #4
  013ac	eb000000	 bl          __rt_udiv
  013b0	e1a03000	 mov         r3, r0
  013b4	e59d2098	 ldr         r2, [sp, #0x98]
  013b8	e59d1090	 ldr         r1, [sp, #0x90]
  013bc	e5911000	 ldr         r1, [r1]
  013c0	e59d0088	 ldr         r0, [sp, #0x88]
  013c4	eb000000	 bl          |?ReadValue@@YAKKKPAKK@Z|
  013c8	e58d0068	 str         r0, [sp, #0x68]
  013cc	e59d2068	 ldr         r2, [sp, #0x68]
  013d0	e59d30a0	 ldr         r3, [sp, #0xA0]
  013d4	e5832000	 str         r2, [r3]

; 778  : 
; 779  :             if (*pOutSize == 0 && *(DWORD*)pInBuffer)

  013d8	e59d30a0	 ldr         r3, [sp, #0xA0]
  013dc	e5933000	 ldr         r3, [r3]
  013e0	e3530000	 cmp         r3, #0
  013e4	1a00000f	 bne         |$LN5@ADC_IOCont|
  013e8	e59d3090	 ldr         r3, [sp, #0x90]
  013ec	e5933000	 ldr         r3, [r3]
  013f0	e3530000	 cmp         r3, #0
  013f4	0a00000b	 beq         |$LN5@ADC_IOCont|

; 780  :                 {
; 781  :                 DEBUGMSG(ZONE_ERROR, (L"ERROR: ADC_IOControl: "
; 782  :                     L"Failed to retrieve voltage readings\r\n"
; 783  :                     ));

  013f8	e59f31b4	 ldr         r3, [pc, #0x1B4]
  013fc	e5933440	 ldr         r3, [r3, #0x440]
  01400	e3130001	 tst         r3, #1
  01404	0a000004	 beq         |$LN33@ADC_IOCont|
  01408	e59f01ac	 ldr         r0, [pc, #0x1AC]
  0140c	eb000000	 bl          NKDbgPrintfW
  01410	e3a03001	 mov         r3, #1
  01414	e58d306c	 str         r3, [sp, #0x6C]
  01418	ea000001	 b           |$LN34@ADC_IOCont|
  0141c		 |$LN33@ADC_IOCont|
  0141c	e3a03000	 mov         r3, #0
  01420	e58d306c	 str         r3, [sp, #0x6C]
  01424		 |$LN34@ADC_IOCont|

; 784  :                 break;

  01424	ea00004f	 b           |$LN18@ADC_IOCont|
  01428		 |$LN5@ADC_IOCont|

; 785  :                 }
; 786  :             *pOutSize *= sizeof(DWORD);

  01428	e59d30a0	 ldr         r3, [sp, #0xA0]
  0142c	e5931000	 ldr         r1, [r3]
  01430	e3a03004	 mov         r3, #4
  01434	e0020391	 mul         r2, r1, r3
  01438	e59d30a0	 ldr         r3, [sp, #0xA0]
  0143c	e5832000	 str         r2, [r3]

; 787  :             rc = TRUE;

  01440	e3a03001	 mov         r3, #1
  01444	e58d3014	 str         r3, [sp, #0x14]

; 788  :             break;

  01448	ea000046	 b           |$LN18@ADC_IOCont|
  0144c		 |$LN4@ADC_IOCont|

; 789  : 
; 790  :         case IOCTL_MADC_CONVERTTOVOLTS:
; 791  :             if (pInBuffer == NULL || pOutBuffer == NULL || 
; 792  :                 inSize != sizeof(IOCTL_MADC_CONVERTTOVOLTS_IN))

  0144c	e59d3090	 ldr         r3, [sp, #0x90]
  01450	e3530000	 cmp         r3, #0
  01454	0a000005	 beq         |$LN2@ADC_IOCont|
  01458	e59d3098	 ldr         r3, [sp, #0x98]
  0145c	e3530000	 cmp         r3, #0
  01460	0a000002	 beq         |$LN2@ADC_IOCont|
  01464	e59d3094	 ldr         r3, [sp, #0x94]
  01468	e353000c	 cmp         r3, #0xC
  0146c	0a00000d	 beq         |$LN3@ADC_IOCont|
  01470		 |$LN2@ADC_IOCont|

; 793  :                 {
; 794  :                 DEBUGMSG(ZONE_ERROR, (L"ERROR: ADC_IOControl: "
; 795  :                     L"Invalid parameters for IOCTL_MADC_CONVERTTOVOLTS\r\n"
; 796  :                     ));

  01470	e59f313c	 ldr         r3, [pc, #0x13C]
  01474	e5933440	 ldr         r3, [r3, #0x440]
  01478	e3130001	 tst         r3, #1
  0147c	0a000004	 beq         |$LN35@ADC_IOCont|
  01480	e59f0130	 ldr         r0, [pc, #0x130]
  01484	eb000000	 bl          NKDbgPrintfW
  01488	e3a03001	 mov         r3, #1
  0148c	e58d3070	 str         r3, [sp, #0x70]
  01490	ea000001	 b           |$LN36@ADC_IOCont|
  01494		 |$LN35@ADC_IOCont|
  01494	e3a03000	 mov         r3, #0
  01498	e58d3070	 str         r3, [sp, #0x70]
  0149c		 |$LN36@ADC_IOCont|

; 797  :                 SetLastError(ERROR_INVALID_PARAMETER);

  0149c	e3a00057	 mov         r0, #0x57
  014a0	eb000000	 bl          SetLastError

; 798  :                 break;

  014a4	ea00002f	 b           |$LN18@ADC_IOCont|
  014a8		 |$LN3@ADC_IOCont|

; 799  :                 }
; 800  : 
; 801  :             pConvertToVolts = (IOCTL_MADC_CONVERTTOVOLTS_IN*)pInBuffer;

  014a8	e59d3090	 ldr         r3, [sp, #0x90]
  014ac	e58d3018	 str         r3, [sp, #0x18]

; 802  : 
; 803  :             if (pConvertToVolts->count * sizeof(DWORD) != outSize)

  014b0	e59d3018	 ldr         r3, [sp, #0x18]
  014b4	e2833004	 add         r3, r3, #4
  014b8	e5931000	 ldr         r1, [r3]
  014bc	e3a03004	 mov         r3, #4
  014c0	e0020391	 mul         r2, r1, r3
  014c4	e59d309c	 ldr         r3, [sp, #0x9C]
  014c8	e1520003	 cmp         r2, r3
  014cc	0a00000d	 beq         |$LN1@ADC_IOCont|

; 804  :                 {
; 805  :                 DEBUGMSG(ZONE_ERROR, (L"ERROR: ADC_IOControl: "
; 806  :                     L"Invalid parameters for IOCTL_MADC_CONVERTTOVOLTS\r\n"
; 807  :                     ));

  014d0	e59f30dc	 ldr         r3, [pc, #0xDC]
  014d4	e5933440	 ldr         r3, [r3, #0x440]
  014d8	e3130001	 tst         r3, #1
  014dc	0a000004	 beq         |$LN37@ADC_IOCont|
  014e0	e59f00d0	 ldr         r0, [pc, #0xD0]
  014e4	eb000000	 bl          NKDbgPrintfW
  014e8	e3a03001	 mov         r3, #1
  014ec	e58d3074	 str         r3, [sp, #0x74]
  014f0	ea000001	 b           |$LN38@ADC_IOCont|
  014f4		 |$LN37@ADC_IOCont|
  014f4	e3a03000	 mov         r3, #0
  014f8	e58d3074	 str         r3, [sp, #0x74]
  014fc		 |$LN38@ADC_IOCont|

; 808  :                 SetLastError(ERROR_INVALID_PARAMETER);

  014fc	e3a00057	 mov         r0, #0x57
  01500	eb000000	 bl          SetLastError

; 809  :                 break;

  01504	ea000017	 b           |$LN18@ADC_IOCont|
  01508		 |$LN1@ADC_IOCont|

; 810  :                 }
; 811  : 
; 812  :             *pOutSize = ConvertToVolts(context, pConvertToVolts->mask,
; 813  :                             pConvertToVolts->pdwValues, (DWORD*)pOutBuffer, 
; 814  :                             pConvertToVolts->count);

  01508	e59d3018	 ldr         r3, [sp, #0x18]
  0150c	e2833004	 add         r3, r3, #4
  01510	e5933000	 ldr         r3, [r3]
  01514	e58d3000	 str         r3, [sp]
  01518	e59d3098	 ldr         r3, [sp, #0x98]
  0151c	e59d2018	 ldr         r2, [sp, #0x18]
  01520	e2822008	 add         r2, r2, #8
  01524	e5922000	 ldr         r2, [r2]
  01528	e59d1018	 ldr         r1, [sp, #0x18]
  0152c	e5911000	 ldr         r1, [r1]
  01530	e59d0088	 ldr         r0, [sp, #0x88]
  01534	eb000000	 bl          |?ConvertToVolts@@YAKKKPAK0K@Z|
  01538	e58d0078	 str         r0, [sp, #0x78]
  0153c	e59d2078	 ldr         r2, [sp, #0x78]
  01540	e59d30a0	 ldr         r3, [sp, #0xA0]
  01544	e5832000	 str         r2, [r3]

; 815  :             *pOutSize *= sizeof(DWORD);

  01548	e59d30a0	 ldr         r3, [sp, #0xA0]
  0154c	e5931000	 ldr         r1, [r3]
  01550	e3a03004	 mov         r3, #4
  01554	e0020391	 mul         r2, r1, r3
  01558	e59d30a0	 ldr         r3, [sp, #0xA0]
  0155c	e5832000	 str         r2, [r3]

; 816  :             rc = TRUE;

  01560	e3a03001	 mov         r3, #1
  01564	e58d3014	 str         r3, [sp, #0x14]
  01568		 |$LN18@ADC_IOCont|
  01568		 |$LN20@ADC_IOCont|
  01568		 |$cleanUp$36224|

; 817  :             break;
; 818  :         }
; 819  : 
; 820  : cleanUp:
; 821  : 
; 822  :     DEBUGMSG(ZONE_FUNCTION, (L"-ADC_IOControl(rc = %d)\r\n", rc));

  01568	e59f3044	 ldr         r3, [pc, #0x44]
  0156c	e5933440	 ldr         r3, [r3, #0x440]
  01570	e3130004	 tst         r3, #4
  01574	0a000005	 beq         |$LN39@ADC_IOCont|
  01578	e59d1014	 ldr         r1, [sp, #0x14]
  0157c	e59f002c	 ldr         r0, [pc, #0x2C]
  01580	eb000000	 bl          NKDbgPrintfW
  01584	e3a03001	 mov         r3, #1
  01588	e58d307c	 str         r3, [sp, #0x7C]
  0158c	ea000001	 b           |$LN40@ADC_IOCont|
  01590		 |$LN39@ADC_IOCont|
  01590	e3a03000	 mov         r3, #0
  01594	e58d307c	 str         r3, [sp, #0x7C]
  01598		 |$LN40@ADC_IOCont|

; 823  :     return rc;

  01598	e59d3014	 ldr         r3, [sp, #0x14]
  0159c	e58d303c	 str         r3, [sp, #0x3C]

; 824  : }

  015a0	e59d003c	 ldr         r0, [sp, #0x3C]
  015a4	e28dd080	 add         sp, sp, #0x80
  015a8	e89d6000	 ldmia       sp, {sp, lr}
  015ac	e12fff1e	 bx          lr
  015b0		 |$LN44@ADC_IOCont|
  015b0		 |$LN45@ADC_IOCont|
  015b0	00000000	 DCD         |??_C@_1DE@ENDOIHHP@?$AA?9?$AAA?$AAD?$AAC?$AA_?$AAI?$AAO?$AAC?$AAo?$AAn?$AAt?$AAr?$AAo?$AAl?$AA?$CI?$AAr?$AAc?$AA?5?$AA?$DN?$AA?5?$AA?$CF?$AAd?$AA?$CJ?$AA?$AN?$AA?6?$AA?$AA@|
  015b4		 |$LN46@ADC_IOCont|
  015b4	00000000	 DCD         |dpCurSettings|
  015b8		 |$LN47@ADC_IOCont|
  015b8	00000000	 DCD         |??_C@_1JC@JDDMACAJ@?$AAE?$AAR?$AAR?$AAO?$AAR?$AA?3?$AA?5?$AAA?$AAD?$AAC?$AA_?$AAI?$AAO?$AAC?$AAo?$AAn?$AAt?$AAr?$AAo?$AAl?$AA?3?$AA?5?$AAI?$AAn?$AAv?$AAa?$AAl?$AAi?$AAd?$AA?5?$AAp?$AAa@|
  015bc		 |$LN48@ADC_IOCont|
  015bc	00000000	 DCD         |??_C@_1HI@IHABNCCJ@?$AAE?$AAR?$AAR?$AAO?$AAR?$AA?3?$AA?5?$AAA?$AAD?$AAC?$AA_?$AAI?$AAO?$AAC?$AAo?$AAn?$AAt?$AAr?$AAo?$AAl?$AA?3?$AA?5?$AAF?$AAa?$AAi?$AAl?$AAe?$AAd?$AA?5?$AAt?$AAo?$AA?5@|
  015c0		 |$LN49@ADC_IOCont|
  015c0	00000000	 DCD         |??_C@_1II@LGJKCMKE@?$AAE?$AAR?$AAR?$AAO?$AAR?$AA?3?$AA?5?$AAA?$AAD?$AAC?$AA_?$AAI?$AAO?$AAC?$AAo?$AAn?$AAt?$AAr?$AAo?$AAl?$AA?3?$AA?5?$AAI?$AAn?$AAv?$AAa?$AAl?$AAi?$AAd?$AA?5?$AAp?$AAa@|
  015c4		 |$LN50@ADC_IOCont|
  015c4	00000000	 DCD         |?ConvertToVolts@@YAKKKPAK0K@Z|
  015c8		 |$LN51@ADC_IOCont|
  015c8	00000000	 DCD         |?ReadValue@@YAKKKPAKK@Z|
  015cc		 |$LN52@ADC_IOCont|
  015cc	00000000	 DCD         |DEVICE_IFC_MADC_GUID|
  015d0		 |$LN53@ADC_IOCont|
  015d0	00000000	 DCD         |??_C@_1OG@LDNJMDCF@?$AAE?$AAR?$AAR?$AAO?$AAR?$AA?3?$AA?5?$AAA?$AAD?$AAC?$AA_?$AAI?$AAO?$AAC?$AAo?$AAn?$AAt?$AAr?$AAo?$AAl?$AA?3?$AA?5?$AAI?$AAO?$AAC?$AAT?$AAL?$AA_?$AAD?$AAD?$AAK?$AA_@|
  015d4		 |$LN54@ADC_IOCont|
  015d4	00221004	 DCD         0x221004
  015d8		 |$LN55@ADC_IOCont|
  015d8	00000000	 DCD         |??_C@_1GI@CGFHLGFO@?$AAE?$AAR?$AAR?$AAO?$AAR?$AA?3?$AA?5?$AAA?$AAD?$AAC?$AA_?$AAI?$AAO?$AAC?$AAo?$AAn?$AAt?$AAr?$AAo?$AAl?$AA?3?$AA?5?$AAI?$AAn?$AAc?$AAo?$AAr?$AAr?$AAe?$AAc?$AAt?$AA?5@|
  015dc		 |$LN56@ADC_IOCont|
  015dc	61646344	 DCD         0x61646344
  015e0		 |$LN57@ADC_IOCont|
  015e0	00000000	 DCD         |??_C@_1IC@DBNCEGFA@?$AA?$CL?$AAA?$AAD?$AAC?$AA_?$AAI?$AAO?$AAC?$AAo?$AAn?$AAt?$AAr?$AAo?$AAl?$AA?$CI?$AA0?$AAx?$AA?$CF?$AA0?$AA8?$AAx?$AA?0?$AA?5?$AA0?$AAx?$AA?$CF?$AA0?$AA8?$AAx?$AA?0?$AA?5?$AA0@|
  015e4		 |$M36553|

			 ENDP  ; |?ADC_IOControl@@YAHKKPAEK0KPAK@Z|, ADC_IOControl

	IMPORT	|__GetUserKData|
; File c:\wince600\public\common\sdk\inc\kfuncs.h

  00000			 AREA	 |.pdata|, PDATA
|$T36575| DCD	|$LN5@GetCurrent|
	DCD	0x40000b02
; Function compile flags: /Odtp

  00000			 AREA	 |.text|, CODE, ARM

  00000		 |GetCurrentProcessId| PROC

; 373  : _inline DWORD GetCurrentProcessId(void) {

  00000		 |$LN5@GetCurrent|
  00000	e52de004	 str         lr, [sp, #-4]!
  00004	e24dd008	 sub         sp, sp, #8
  00008		 |$M36572|

; 374  :     return __GetUserKData (SYSHANDLE_OFFSET + (SH_CURPROC * sizeof(HANDLE)));

  00008	e3a0000c	 mov         r0, #0xC
  0000c	eb000000	 bl          __GetUserKData
  00010	e58d0004	 str         r0, [sp, #4]
  00014	e59d3004	 ldr         r3, [sp, #4]
  00018	e58d3000	 str         r3, [sp]

; 375  : }

  0001c	e59d0000	 ldr         r0, [sp]
  00020	e28dd008	 add         sp, sp, #8
  00024	e49de004	 ldr         lr, [sp], #4
  00028	e12fff1e	 bx          lr
  0002c		 |$M36573|

			 ENDP  ; |GetCurrentProcessId|

	IMPORT	|memcmp|
; File c:\wince600\public\common\sdk\inc\objbase.h

  00000			 AREA	 |.pdata|, PDATA
|$T36585| DCD	|$LN7@IsEqualGUI|
	DCD	0x40001704
; Function compile flags: /Odtp

  00000			 AREA	 |.text|, CODE, ARM

  00000		 |?IsEqualGUID@@YAHABU_GUID@@0@Z| PROC	; IsEqualGUID

; 493  : {

  00000		 |$LN7@IsEqualGUI|
  00000	e1a0c00d	 mov         r12, sp
  00004	e92d0003	 stmdb       sp!, {r0, r1}
  00008	e92d5000	 stmdb       sp!, {r12, lr}
  0000c	e24dd00c	 sub         sp, sp, #0xC
  00010		 |$M36582|

; 494  :     return !memcmp(&rguid1, &rguid2, sizeof(GUID));

  00010	e3a02010	 mov         r2, #0x10
  00014	e59d1018	 ldr         r1, [sp, #0x18]
  00018	e59d0014	 ldr         r0, [sp, #0x14]
  0001c	eb000000	 bl          memcmp
  00020	e58d0004	 str         r0, [sp, #4]
  00024	e59d3004	 ldr         r3, [sp, #4]
  00028	e3530000	 cmp         r3, #0
  0002c	1a000002	 bne         |$LN3@IsEqualGUI|
  00030	e3a03001	 mov         r3, #1
  00034	e58d3008	 str         r3, [sp, #8]
  00038	ea000001	 b           |$LN4@IsEqualGUI|
  0003c		 |$LN3@IsEqualGUI|
  0003c	e3a03000	 mov         r3, #0
  00040	e58d3008	 str         r3, [sp, #8]
  00044		 |$LN4@IsEqualGUI|
  00044	e59d3008	 ldr         r3, [sp, #8]
  00048	e58d3000	 str         r3, [sp]

; 495  : }

  0004c	e59d0000	 ldr         r0, [sp]
  00050	e28dd00c	 add         sp, sp, #0xC
  00054	e89d6000	 ldmia       sp, {sp, lr}
  00058	e12fff1e	 bx          lr
  0005c		 |$M36583|

			 ENDP  ; |?IsEqualGUID@@YAHABU_GUID@@0@Z|, IsEqualGUID

	EXPORT	|DllMain|
	IMPORT	|DisableThreadLibraryCalls|
	IMPORT	|RegisterDbgZones|

  00050			 AREA	 |.pdata|, PDATA
|$T36593| DCD	|$LN8@DllMain|
	DCD	0x40001404
; Function compile flags: /Odtp
; File c:\wince600\platform\common\src\soc\common_ti_v1\tps659xx\madc\madc.cpp

  015e4			 AREA	 |.text|, CODE, ARM

  015e4		 |DllMain| PROC

; 835  : {

  015e4		 |$LN8@DllMain|
  015e4	e1a0c00d	 mov         r12, sp
  015e8	e92d0007	 stmdb       sp!, {r0 - r2}
  015ec	e92d5000	 stmdb       sp!, {r12, lr}
  015f0	e24dd004	 sub         sp, sp, #4
  015f4		 |$M36590|

; 836  :     UNREFERENCED_PARAMETER(Reserved);
; 837  :     switch(Reason) 

  015f4	e59d3010	 ldr         r3, [sp, #0x10]
  015f8	e3530001	 cmp         r3, #1
  015fc	0a000000	 beq         |$LN1@DllMain|
  01600	ea000004	 b           |$LN2@DllMain|
  01604		 |$LN1@DllMain|

; 838  :         {
; 839  :         case DLL_PROCESS_ATTACH:
; 840  :             RETAILREGISTERZONES((HMODULE)hDLL);

  01604	e59f1024	 ldr         r1, [pc, #0x24]
  01608	e59d000c	 ldr         r0, [sp, #0xC]
  0160c	eb000000	 bl          RegisterDbgZones

; 841  :             DisableThreadLibraryCalls((HMODULE)hDLL);

  01610	e59d000c	 ldr         r0, [sp, #0xC]
  01614	eb000000	 bl          DisableThreadLibraryCalls
  01618		 |$LN2@DllMain|

; 842  :             break;
; 843  :         }
; 844  :     return TRUE;

  01618	e3a03001	 mov         r3, #1
  0161c	e58d3000	 str         r3, [sp]

; 845  : }

  01620	e59d0000	 ldr         r0, [sp]
  01624	e28dd004	 add         sp, sp, #4
  01628	e89d6000	 ldmia       sp, {sp, lr}
  0162c	e12fff1e	 bx          lr
  01630		 |$LN9@DllMain|
  01630		 |$LN10@DllMain|
  01630	00000000	 DCD         |dpCurSettings|
  01634		 |$M36591|

			 ENDP  ; |DllMain|

	END
