; Listing generated by Microsoft (R) Optimizing Compiler Version 14.01.60511.01 

	TTL	C:\WINCE600\PLATFORM\COMMON\SRC\SOC\OMAP2420_MS_V1\I2C\i2c.c
	CODE32

  00000			 AREA	 |.drectve|, DRECTVE
	DCB	"-defaultlib:LIBCMT "
	DCB	"-defaultlib:OLDNAMES "

	EXPORT	|??_C@_1M@EENNDIOJ@?$AAI?$AAn?$AAd?$AAe?$AAx?$AA?$AA@| [ DATA ] ; `string'

  00000			 AREA	 |.data|, DATA
	 COMMON	|DEVICE_IFC_I2C_GUID|, 0x10


  00000			 AREA	 |.rdata|, DATA, READONLY
|g_deviceRegParams| DCD |??_C@_1M@EENNDIOJ@?$AAI?$AAn?$AAd?$AAe?$AAx?$AA?$AA@|
	DCD	0x1
	DCD	0x1
	DCD	0x4
	DCD	0x4
	DCD	0x0

  00000			 AREA	 |.rdata|, DATA, READONLY
|??_C@_1M@EENNDIOJ@?$AAI?$AAn?$AAd?$AAe?$AAx?$AA?$AA@| DCB "I", 0x0, "n", 0x0
	DCB	"d", 0x0, "e", 0x0, "x", 0x0, 0x0, 0x0	; `string'
	EXPORT	|??_C@_1CI@BNHLAHFB@?$AA?9?$AAI?$AA2?$AAC?$AA_?$AAI?$AAn?$AAi?$AAt?$AA?$CI?$AAr?$AAc?$AA?5?$AA?$DN?$AA?5?$AA?$CF?$AAd?$AA?$AN?$AA?6?$AA?$AA@| [ DATA ] ; `string'
	EXPORT	|I2C_Deinit|
	EXPORT	|??_C@_1HM@IAGFPOOM@?$AAE?$AAR?$AAR?$AAO?$AAR?$AA?3?$AA?5?$AAI?$AA2?$AAC?$AA_?$AAI?$AAn?$AAi?$AAt?$AA?3?$AA?5?$AAF?$AAa?$AAi?$AAl?$AAe?$AAd?$AA?5?$AAr?$AAe?$AAa?$AAd?$AA?5?$AAI?$AA2?$AAC@| [ DATA ] ; `string'
	EXPORT	|??_C@_1GO@ICMCOCEP@?$AAE?$AAR?$AAR?$AAO?$AAR?$AA?3?$AA?5?$AAI?$AA2?$AAC?$AA_?$AAI?$AAn?$AAi?$AAt?$AA?3?$AA?5?$AAF?$AAa?$AAi?$AAl?$AAe?$AAd?$AA?5?$AAc?$AAr?$AAe?$AAa?$AAt?$AAi?$AAo?$AAn@| [ DATA ] ; `string'
	EXPORT	|??_C@_1BC@OALLFACJ@?$AAI?$AA2?$AAC?$AAM?$AAU?$AAT?$AAE?$AAX?$AA?$AA@| [ DATA ] ; `string'
	EXPORT	|??_C@_1HI@DLEHNHBL@?$AAE?$AAR?$AAR?$AAO?$AAR?$AA?3?$AA?5?$AAI?$AA2?$AAC?$AA_?$AAI?$AAn?$AAi?$AAt?$AA?3?$AA?5?$AAF?$AAa?$AAi?$AAl?$AAe?$AAd?$AA?5?$AAa?$AAl?$AAl?$AAo?$AAc?$AAa?$AAt?$AAe@| [ DATA ] ; `string'
	EXPORT	|??_C@_1DA@CDLIPCPG@?$AA?$CL?$AAI?$AA2?$AAC?$AA_?$AAI?$AAn?$AAi?$AAt?$AA?$CI?$AA?$CF?$AAs?$AA?0?$AA?5?$AA0?$AAx?$AA?$CF?$AA0?$AA8?$AAx?$AA?$CJ?$AA?$AN?$AA?6?$AA?$AA@| [ DATA ] ; `string'
	EXPORT	|I2C_Init|
	IMPORT	|GetDeviceRegistryParams|
	IMPORT	|CreateMutexW|
	IMPORT	|LocalAlloc|
	IMPORT	|NKDbgPrintfW|
	IMPORT	|dpCurSettings|

  00000			 AREA	 |.pdata|, PDATA
|$T43111| DCD	|$LN19@I2C_Init|
	DCD	0x40008604
; File c:\wince600\platform\common\src\soc\omap2420_ms_v1\i2c\i2c.c

  00000			 AREA	 |.rdata|, DATA, READONLY
|??_C@_1CI@BNHLAHFB@?$AA?9?$AAI?$AA2?$AAC?$AA_?$AAI?$AAn?$AAi?$AAt?$AA?$CI?$AAr?$AAc?$AA?5?$AA?$DN?$AA?5?$AA?$CF?$AAd?$AA?$AN?$AA?6?$AA?$AA@| DCB "-"
	DCB	0x0, "I", 0x0, "2", 0x0, "C", 0x0, "_", 0x0, "I", 0x0, "n"
	DCB	0x0, "i", 0x0, "t", 0x0, "(", 0x0, "r", 0x0, "c", 0x0, " "
	DCB	0x0, "=", 0x0, " ", 0x0, "%", 0x0, "d", 0x0, 0xd, 0x0, 0xa
	DCB	0x0, 0x0, 0x0				; `string'

  00000			 AREA	 |.rdata|, DATA, READONLY
|??_C@_1HM@IAGFPOOM@?$AAE?$AAR?$AAR?$AAO?$AAR?$AA?3?$AA?5?$AAI?$AA2?$AAC?$AA_?$AAI?$AAn?$AAi?$AAt?$AA?3?$AA?5?$AAF?$AAa?$AAi?$AAl?$AAe?$AAd?$AA?5?$AAr?$AAe?$AAa?$AAd?$AA?5?$AAI?$AA2?$AAC@| DCB "E"
	DCB	0x0, "R", 0x0, "R", 0x0, "O", 0x0, "R", 0x0, ":", 0x0, " "
	DCB	0x0, "I", 0x0, "2", 0x0, "C", 0x0, "_", 0x0, "I", 0x0, "n"
	DCB	0x0, "i", 0x0, "t", 0x0, ":", 0x0, " ", 0x0, "F", 0x0, "a"
	DCB	0x0, "i", 0x0, "l", 0x0, "e", 0x0, "d", 0x0, " ", 0x0, "r"
	DCB	0x0, "e", 0x0, "a", 0x0, "d", 0x0, " ", 0x0, "I", 0x0, "2"
	DCB	0x0, "C", 0x0, " ", 0x0, "d", 0x0, "r", 0x0, "i", 0x0, "v"
	DCB	0x0, "e", 0x0, "r", 0x0, " ", 0x0, "r", 0x0, "e", 0x0, "g"
	DCB	0x0, "i", 0x0, "s", 0x0, "t", 0x0, "r", 0x0, "y", 0x0, " "
	DCB	0x0, "p", 0x0, "a", 0x0, "r", 0x0, "a", 0x0, "m", 0x0, "e"
	DCB	0x0, "t", 0x0, "e", 0x0, "r", 0x0, "s", 0x0, 0xd, 0x0, 0xa
	DCB	0x0, 0x0, 0x0				; `string'

  00000			 AREA	 |.rdata|, DATA, READONLY
|??_C@_1GO@ICMCOCEP@?$AAE?$AAR?$AAR?$AAO?$AAR?$AA?3?$AA?5?$AAI?$AA2?$AAC?$AA_?$AAI?$AAn?$AAi?$AAt?$AA?3?$AA?5?$AAF?$AAa?$AAi?$AAl?$AAe?$AAd?$AA?5?$AAc?$AAr?$AAe?$AAa?$AAt?$AAi?$AAo?$AAn@| DCB "E"
	DCB	0x0, "R", 0x0, "R", 0x0, "O", 0x0, "R", 0x0, ":", 0x0, " "
	DCB	0x0, "I", 0x0, "2", 0x0, "C", 0x0, "_", 0x0, "I", 0x0, "n"
	DCB	0x0, "i", 0x0, "t", 0x0, ":", 0x0, " ", 0x0, "F", 0x0, "a"
	DCB	0x0, "i", 0x0, "l", 0x0, "e", 0x0, "d", 0x0, " ", 0x0, "c"
	DCB	0x0, "r", 0x0, "e", 0x0, "a", 0x0, "t", 0x0, "i", 0x0, "o"
	DCB	0x0, "n", 0x0, " ", 0x0, "o", 0x0, "f", 0x0, " ", 0x0, "I"
	DCB	0x0, "2", 0x0, "C", 0x0, " ", 0x0, "m", 0x0, "u", 0x0, "t"
	DCB	0x0, "e", 0x0, "x", 0x0, " ", 0x0, "h", 0x0, "a", 0x0, "n"
	DCB	0x0, "d", 0x0, "l", 0x0, "e", 0x0, 0xd, 0x0, 0xa, 0x0, 0x0
	DCB	0x0					; `string'

  00000			 AREA	 |.rdata|, DATA, READONLY
|??_C@_1BC@OALLFACJ@?$AAI?$AA2?$AAC?$AAM?$AAU?$AAT?$AAE?$AAX?$AA?$AA@| DCB "I"
	DCB	0x0, "2", 0x0, "C", 0x0, "M", 0x0, "U", 0x0, "T", 0x0, "E"
	DCB	0x0, "X", 0x0, 0x0, 0x0			; `string'

  00000			 AREA	 |.rdata|, DATA, READONLY
|??_C@_1HI@DLEHNHBL@?$AAE?$AAR?$AAR?$AAO?$AAR?$AA?3?$AA?5?$AAI?$AA2?$AAC?$AA_?$AAI?$AAn?$AAi?$AAt?$AA?3?$AA?5?$AAF?$AAa?$AAi?$AAl?$AAe?$AAd?$AA?5?$AAa?$AAl?$AAl?$AAo?$AAc?$AAa?$AAt?$AAe@| DCB "E"
	DCB	0x0, "R", 0x0, "R", 0x0, "O", 0x0, "R", 0x0, ":", 0x0, " "
	DCB	0x0, "I", 0x0, "2", 0x0, "C", 0x0, "_", 0x0, "I", 0x0, "n"
	DCB	0x0, "i", 0x0, "t", 0x0, ":", 0x0, " ", 0x0, "F", 0x0, "a"
	DCB	0x0, "i", 0x0, "l", 0x0, "e", 0x0, "d", 0x0, " ", 0x0, "a"
	DCB	0x0, "l", 0x0, "l", 0x0, "o", 0x0, "c", 0x0, "a", 0x0, "t"
	DCB	0x0, "e", 0x0, " ", 0x0, "I", 0x0, "2", 0x0, "C", 0x0, " "
	DCB	0x0, "c", 0x0, "o", 0x0, "n", 0x0, "t", 0x0, "r", 0x0, "o"
	DCB	0x0, "l", 0x0, "l", 0x0, "e", 0x0, "r", 0x0, " ", 0x0, "s"
	DCB	0x0, "t", 0x0, "r", 0x0, "u", 0x0, "c", 0x0, "t", 0x0, "u"
	DCB	0x0, "r", 0x0, "e", 0x0, 0xd, 0x0, 0xa, 0x0, 0x0, 0x0 ; `string'

  00000			 AREA	 |.rdata|, DATA, READONLY
|??_C@_1DA@CDLIPCPG@?$AA?$CL?$AAI?$AA2?$AAC?$AA_?$AAI?$AAn?$AAi?$AAt?$AA?$CI?$AA?$CF?$AAs?$AA?0?$AA?5?$AA0?$AAx?$AA?$CF?$AA0?$AA8?$AAx?$AA?$CJ?$AA?$AN?$AA?6?$AA?$AA@| DCB "+"
	DCB	0x0, "I", 0x0, "2", 0x0, "C", 0x0, "_", 0x0, "I", 0x0, "n"
	DCB	0x0, "i", 0x0, "t", 0x0, "(", 0x0, "%", 0x0, "s", 0x0, ","
	DCB	0x0, " ", 0x0, "0", 0x0, "x", 0x0, "%", 0x0, "0", 0x0, "8"
	DCB	0x0, "x", 0x0, ")", 0x0, 0xd, 0x0, 0xa, 0x0, 0x0, 0x0 ; `string'
; Function compile flags: /Odtp

  00000			 AREA	 |.text|, CODE, ARM

  00000		 |I2C_Init| PROC

; 88   : {

  00000		 |$LN19@I2C_Init|
  00000	e1a0c00d	 mov         r12, sp
  00004	e92d0003	 stmdb       sp!, {r0, r1}
  00008	e92d5000	 stmdb       sp!, {r12, lr}
  0000c	e24dd02c	 sub         sp, sp, #0x2C
  00010		 |$M43108|

; 89   :     DWORD rc = (DWORD)NULL;

  00010	e3a03000	 mov         r3, #0
  00014	e58d3004	 str         r3, [sp, #4]

; 90   :     I2C_DEVICE *pDevice = NULL;

  00018	e3a03000	 mov         r3, #0
  0001c	e58d3000	 str         r3, [sp]

; 91   : 
; 92   :     DEBUGMSG(ZONE_I2C&&ZONE_FUNCTION, (
; 93   :         L"+I2C_Init(%s, 0x%08x)\r\n", szContext, pBusContext
; 94   :     ));

  00020	e59f31d0	 ldr         r3, [pc, #0x1D0]
  00024	e5933440	 ldr         r3, [r3, #0x440]
  00028	e3130a02	 tst         r3, #2, 20
  0002c	0a00000a	 beq         |$LN7@I2C_Init|
  00030	e59f31c0	 ldr         r3, [pc, #0x1C0]
  00034	e5933440	 ldr         r3, [r3, #0x440]
  00038	e3130004	 tst         r3, #4
  0003c	0a000006	 beq         |$LN7@I2C_Init|
  00040	e59d2038	 ldr         r2, [sp, #0x38]
  00044	e59d1034	 ldr         r1, [sp, #0x34]
  00048	e59f01c4	 ldr         r0, [pc, #0x1C4]
  0004c	eb000000	 bl          NKDbgPrintfW
  00050	e3a03001	 mov         r3, #1
  00054	e58d300c	 str         r3, [sp, #0xC]
  00058	ea000001	 b           |$LN8@I2C_Init|
  0005c		 |$LN7@I2C_Init|
  0005c	e3a03000	 mov         r3, #0
  00060	e58d300c	 str         r3, [sp, #0xC]
  00064		 |$LN8@I2C_Init|

; 95   : 
; 96   :     // Create device structure
; 97   :     pDevice = (I2C_DEVICE *)LocalAlloc(LPTR, sizeof(I2C_DEVICE));

  00064	e3a01014	 mov         r1, #0x14
  00068	e3a00040	 mov         r0, #0x40
  0006c	eb000000	 bl          LocalAlloc
  00070	e58d0010	 str         r0, [sp, #0x10]
  00074	e59d3010	 ldr         r3, [sp, #0x10]
  00078	e58d3000	 str         r3, [sp]

; 98   :     if (pDevice == NULL) {

  0007c	e59d3000	 ldr         r3, [sp]
  00080	e3530000	 cmp         r3, #0
  00084	1a00000b	 bne         |$LN4@I2C_Init|

; 99   :         DEBUGMSG(ZONE_ERROR, (L"ERROR: I2C_Init: "
; 100  :             L"Failed allocate I2C controller structure\r\n"
; 101  :         ));

  00088	e59f3168	 ldr         r3, [pc, #0x168]
  0008c	e5933440	 ldr         r3, [r3, #0x440]
  00090	e3130001	 tst         r3, #1
  00094	0a000004	 beq         |$LN9@I2C_Init|
  00098	e59f0170	 ldr         r0, [pc, #0x170]
  0009c	eb000000	 bl          NKDbgPrintfW
  000a0	e3a03001	 mov         r3, #1
  000a4	e58d3014	 str         r3, [sp, #0x14]
  000a8	ea000001	 b           |$LN10@I2C_Init|
  000ac		 |$LN9@I2C_Init|
  000ac	e3a03000	 mov         r3, #0
  000b0	e58d3014	 str         r3, [sp, #0x14]
  000b4		 |$LN10@I2C_Init|

; 102  :         goto cleanUp;

  000b4	ea000033	 b           |$cleanUp$42820|
  000b8		 |$LN4@I2C_Init|

; 103  :     }
; 104  : 
; 105  :     // Set cookie
; 106  :     pDevice->cookie = I2C_DEVICE_COOKIE;

  000b8	e59d2000	 ldr         r2, [sp]
  000bc	e59f3148	 ldr         r3, [pc, #0x148]
  000c0	e5823000	 str         r3, [r2]

; 107  : 
; 108  :     // Initalize mutex - used to support priority inversion accross different processes
; 109  :     pDevice->hMutex = CreateMutex(NULL,FALSE,TEXT("I2CMUTEX"));

  000c4	e59f213c	 ldr         r2, [pc, #0x13C]
  000c8	e3a01000	 mov         r1, #0
  000cc	e3a00000	 mov         r0, #0
  000d0	eb000000	 bl          CreateMutexW
  000d4	e58d0018	 str         r0, [sp, #0x18]
  000d8	e59d3000	 ldr         r3, [sp]
  000dc	e283200c	 add         r2, r3, #0xC
  000e0	e59d3018	 ldr         r3, [sp, #0x18]
  000e4	e5823000	 str         r3, [r2]

; 110  :     if (!pDevice->hMutex)

  000e8	e59d3000	 ldr         r3, [sp]
  000ec	e283300c	 add         r3, r3, #0xC
  000f0	e5933000	 ldr         r3, [r3]
  000f4	e3530000	 cmp         r3, #0
  000f8	1a00000b	 bne         |$LN3@I2C_Init|

; 111  :     {
; 112  :         DEBUGMSG(ZONE_ERROR, (L"ERROR: I2C_Init: "
; 113  :             L"Failed creation of I2C mutex handle\r\n"
; 114  :         ));

  000fc	e59f30f4	 ldr         r3, [pc, #0xF4]
  00100	e5933440	 ldr         r3, [r3, #0x440]
  00104	e3130001	 tst         r3, #1
  00108	0a000004	 beq         |$LN11@I2C_Init|
  0010c	e59f00f0	 ldr         r0, [pc, #0xF0]
  00110	eb000000	 bl          NKDbgPrintfW
  00114	e3a03001	 mov         r3, #1
  00118	e58d301c	 str         r3, [sp, #0x1C]
  0011c	ea000001	 b           |$LN12@I2C_Init|
  00120		 |$LN11@I2C_Init|
  00120	e3a03000	 mov         r3, #0
  00124	e58d301c	 str         r3, [sp, #0x1C]
  00128		 |$LN12@I2C_Init|

; 115  :         goto cleanUp;

  00128	ea000016	 b           |$cleanUp$42820|
  0012c		 |$LN3@I2C_Init|

; 116  :     }
; 117  : 
; 118  :     // Read device parameters
; 119  :     if (GetDeviceRegistryParams(
; 120  :         szContext, pDevice, dimof(g_deviceRegParams), g_deviceRegParams
; 121  :     ) != ERROR_SUCCESS) {

  0012c	e59f30cc	 ldr         r3, [pc, #0xCC]
  00130	e3a02001	 mov         r2, #1
  00134	e59d1000	 ldr         r1, [sp]
  00138	e59d0034	 ldr         r0, [sp, #0x34]
  0013c	eb000000	 bl          GetDeviceRegistryParams
  00140	e58d0020	 str         r0, [sp, #0x20]
  00144	e59d3020	 ldr         r3, [sp, #0x20]
  00148	e3530000	 cmp         r3, #0
  0014c	0a00000b	 beq         |$LN2@I2C_Init|

; 122  :         DEBUGMSG(ZONE_ERROR, (L"ERROR: I2C_Init: "
; 123  :             L"Failed read I2C driver registry parameters\r\n"
; 124  :         ));

  00150	e59f30a0	 ldr         r3, [pc, #0xA0]
  00154	e5933440	 ldr         r3, [r3, #0x440]
  00158	e3130001	 tst         r3, #1
  0015c	0a000004	 beq         |$LN13@I2C_Init|
  00160	e59f0094	 ldr         r0, [pc, #0x94]
  00164	eb000000	 bl          NKDbgPrintfW
  00168	e3a03001	 mov         r3, #1
  0016c	e58d3024	 str         r3, [sp, #0x24]
  00170	ea000001	 b           |$LN14@I2C_Init|
  00174		 |$LN13@I2C_Init|
  00174	e3a03000	 mov         r3, #0
  00178	e58d3024	 str         r3, [sp, #0x24]
  0017c		 |$LN14@I2C_Init|

; 125  :         goto cleanUp;

  0017c	ea000001	 b           |$cleanUp$42820|
  00180		 |$LN2@I2C_Init|

; 126  :     }
; 127  :  
; 128  :     // Return non-null value
; 129  :     rc = (DWORD)pDevice;

  00180	e59d3000	 ldr         r3, [sp]
  00184	e58d3004	 str         r3, [sp, #4]
  00188		 |$cleanUp$42820|

; 130  :     
; 131  : cleanUp:
; 132  :     if (rc == 0) I2C_Deinit((DWORD)pDevice);

  00188	e59d3004	 ldr         r3, [sp, #4]
  0018c	e3530000	 cmp         r3, #0
  00190	1a000001	 bne         |$LN1@I2C_Init|
  00194	e59d0000	 ldr         r0, [sp]
  00198	eb000000	 bl          I2C_Deinit
  0019c		 |$LN1@I2C_Init|

; 133  :     DEBUGMSG(ZONE_I2C&&ZONE_FUNCTION, (L"-I2C_Init(rc = %d\r\n", rc));

  0019c	e59f3054	 ldr         r3, [pc, #0x54]
  001a0	e5933440	 ldr         r3, [r3, #0x440]
  001a4	e3130a02	 tst         r3, #2, 20
  001a8	0a000009	 beq         |$LN15@I2C_Init|
  001ac	e59f3044	 ldr         r3, [pc, #0x44]
  001b0	e5933440	 ldr         r3, [r3, #0x440]
  001b4	e3130004	 tst         r3, #4
  001b8	0a000005	 beq         |$LN15@I2C_Init|
  001bc	e59d1004	 ldr         r1, [sp, #4]
  001c0	e59f002c	 ldr         r0, [pc, #0x2C]
  001c4	eb000000	 bl          NKDbgPrintfW
  001c8	e3a03001	 mov         r3, #1
  001cc	e58d3028	 str         r3, [sp, #0x28]
  001d0	ea000001	 b           |$LN16@I2C_Init|
  001d4		 |$LN15@I2C_Init|
  001d4	e3a03000	 mov         r3, #0
  001d8	e58d3028	 str         r3, [sp, #0x28]
  001dc		 |$LN16@I2C_Init|

; 134  :     return rc;

  001dc	e59d3004	 ldr         r3, [sp, #4]
  001e0	e58d3008	 str         r3, [sp, #8]

; 135  : }

  001e4	e59d0008	 ldr         r0, [sp, #8]
  001e8	e28dd02c	 add         sp, sp, #0x2C
  001ec	e89d6000	 ldmia       sp, {sp, lr}
  001f0	e12fff1e	 bx          lr
  001f4		 |$LN20@I2C_Init|
  001f4		 |$LN21@I2C_Init|
  001f4	00000000	 DCD         |??_C@_1CI@BNHLAHFB@?$AA?9?$AAI?$AA2?$AAC?$AA_?$AAI?$AAn?$AAi?$AAt?$AA?$CI?$AAr?$AAc?$AA?5?$AA?$DN?$AA?5?$AA?$CF?$AAd?$AA?$AN?$AA?6?$AA?$AA@|
  001f8		 |$LN22@I2C_Init|
  001f8	00000000	 DCD         |dpCurSettings|
  001fc		 |$LN23@I2C_Init|
  001fc	00000000	 DCD         |??_C@_1HM@IAGFPOOM@?$AAE?$AAR?$AAR?$AAO?$AAR?$AA?3?$AA?5?$AAI?$AA2?$AAC?$AA_?$AAI?$AAn?$AAi?$AAt?$AA?3?$AA?5?$AAF?$AAa?$AAi?$AAl?$AAe?$AAd?$AA?5?$AAr?$AAe?$AAa?$AAd?$AA?5?$AAI?$AA2?$AAC@|
  00200		 |$LN24@I2C_Init|
  00200	00000000	 DCD         |g_deviceRegParams|
  00204		 |$LN25@I2C_Init|
  00204	00000000	 DCD         |??_C@_1GO@ICMCOCEP@?$AAE?$AAR?$AAR?$AAO?$AAR?$AA?3?$AA?5?$AAI?$AA2?$AAC?$AA_?$AAI?$AAn?$AAi?$AAt?$AA?3?$AA?5?$AAF?$AAa?$AAi?$AAl?$AAe?$AAd?$AA?5?$AAc?$AAr?$AAe?$AAa?$AAt?$AAi?$AAo?$AAn@|
  00208		 |$LN26@I2C_Init|
  00208	00000000	 DCD         |??_C@_1BC@OALLFACJ@?$AAI?$AA2?$AAC?$AAM?$AAU?$AAT?$AAE?$AAX?$AA?$AA@|
  0020c		 |$LN27@I2C_Init|
  0020c	69326344	 DCD         0x69326344
  00210		 |$LN28@I2C_Init|
  00210	00000000	 DCD         |??_C@_1HI@DLEHNHBL@?$AAE?$AAR?$AAR?$AAO?$AAR?$AA?3?$AA?5?$AAI?$AA2?$AAC?$AA_?$AAI?$AAn?$AAi?$AAt?$AA?3?$AA?5?$AAF?$AAa?$AAi?$AAl?$AAe?$AAd?$AA?5?$AAa?$AAl?$AAl?$AAo?$AAc?$AAa?$AAt?$AAe@|
  00214		 |$LN29@I2C_Init|
  00214	00000000	 DCD         |??_C@_1DA@CDLIPCPG@?$AA?$CL?$AAI?$AA2?$AAC?$AA_?$AAI?$AAn?$AAi?$AAt?$AA?$CI?$AA?$CF?$AAs?$AA?0?$AA?5?$AA0?$AAx?$AA?$CF?$AA0?$AA8?$AAx?$AA?$CJ?$AA?$AN?$AA?6?$AA?$AA@|
  00218		 |$M43109|

			 ENDP  ; |I2C_Init|

	EXPORT	|??_C@_1CO@PFNAJHMM@?$AA?9?$AAI?$AA2?$AAC?$AA_?$AAD?$AAe?$AAi?$AAn?$AAi?$AAt?$AA?$CI?$AAr?$AAc?$AA?5?$AA?$DN?$AA?5?$AA?$CF?$AAd?$AA?$CJ?$AA?$AN?$AA?6?$AA?$AA@| [ DATA ] ; `string'
	EXPORT	|??_C@_1IO@OGJPGGLI@?$AAE?$AAR?$AAR?$AAO?$AAR?$AA?3?$AA?5?$AAI?$AA2?$AAC?$AA_?$AAD?$AAe?$AAi?$AAn?$AAi?$AAt?$AA?3?$AA?5?$AAD?$AAe?$AAi?$AAn?$AAi?$AAt?$AA?5?$AAw?$AAi?$AAt?$AAh?$AA?5?$AAa@| [ DATA ] ; `string'
	EXPORT	|??_C@_1FO@GIDJAOCB@?$AAE?$AAR?$AAR?$AAO?$AAR?$AA?3?$AA?5?$AAI?$AA2?$AAC?$AA_?$AAD?$AAe?$AAi?$AAn?$AAi?$AAt?$AA?3?$AA?5?$AAI?$AAn?$AAc?$AAo?$AAr?$AAr?$AAe?$AAc?$AAt?$AA?5?$AAc?$AAo?$AAn@| [ DATA ] ; `string'
	EXPORT	|??_C@_1CM@CBAGIHJE@?$AA?$CL?$AAI?$AA2?$AAC?$AA_?$AAD?$AAe?$AAi?$AAn?$AAi?$AAt?$AA?$CI?$AA0?$AAx?$AA?$CF?$AA0?$AA8?$AAx?$AA?$CJ?$AA?$AN?$AA?6?$AA?$AA@| [ DATA ] ; `string'
	IMPORT	|LocalFree|
	IMPORT	|CloseHandle|

  00008			 AREA	 |.pdata|, PDATA
|$T43135| DCD	|$LN16@I2C_Deinit|
	DCD	0x40006404

  00000			 AREA	 |.rdata|, DATA, READONLY
|??_C@_1CO@PFNAJHMM@?$AA?9?$AAI?$AA2?$AAC?$AA_?$AAD?$AAe?$AAi?$AAn?$AAi?$AAt?$AA?$CI?$AAr?$AAc?$AA?5?$AA?$DN?$AA?5?$AA?$CF?$AAd?$AA?$CJ?$AA?$AN?$AA?6?$AA?$AA@| DCB "-"
	DCB	0x0, "I", 0x0, "2", 0x0, "C", 0x0, "_", 0x0, "D", 0x0, "e"
	DCB	0x0, "i", 0x0, "n", 0x0, "i", 0x0, "t", 0x0, "(", 0x0, "r"
	DCB	0x0, "c", 0x0, " ", 0x0, "=", 0x0, " ", 0x0, "%", 0x0, "d"
	DCB	0x0, ")", 0x0, 0xd, 0x0, 0xa, 0x0, 0x0, 0x0 ; `string'

  00000			 AREA	 |.rdata|, DATA, READONLY
|??_C@_1IO@OGJPGGLI@?$AAE?$AAR?$AAR?$AAO?$AAR?$AA?3?$AA?5?$AAI?$AA2?$AAC?$AA_?$AAD?$AAe?$AAi?$AAn?$AAi?$AAt?$AA?3?$AA?5?$AAD?$AAe?$AAi?$AAn?$AAi?$AAt?$AA?5?$AAw?$AAi?$AAt?$AAh?$AA?5?$AAa@| DCB "E"
	DCB	0x0, "R", 0x0, "R", 0x0, "O", 0x0, "R", 0x0, ":", 0x0, " "
	DCB	0x0, "I", 0x0, "2", 0x0, "C", 0x0, "_", 0x0, "D", 0x0, "e"
	DCB	0x0, "i", 0x0, "n", 0x0, "i", 0x0, "t", 0x0, ":", 0x0, " "
	DCB	0x0, "D", 0x0, "e", 0x0, "i", 0x0, "n", 0x0, "i", 0x0, "t"
	DCB	0x0, " ", 0x0, "w", 0x0, "i", 0x0, "t", 0x0, "h", 0x0, " "
	DCB	0x0, "a", 0x0, "c", 0x0, "t", 0x0, "i", 0x0, "v", 0x0, "e"
	DCB	0x0, " ", 0x0, "i", 0x0, "n", 0x0, "s", 0x0, "t", 0x0, "a"
	DCB	0x0, "n", 0x0, "c", 0x0, "e", 0x0, " ", 0x0, "(", 0x0, "%"
	DCB	0x0, "d", 0x0, " ", 0x0, "i", 0x0, "n", 0x0, "s", 0x0, "t"
	DCB	0x0, "a", 0x0, "n", 0x0, "c", 0x0, "e", 0x0, "s", 0x0, " "
	DCB	0x0, "a", 0x0, "c", 0x0, "t", 0x0, "i", 0x0, "v", 0x0, "e"
	DCB	0x0, ")", 0x0, 0xd, 0x0, 0xa, 0x0, 0x0, 0x0 ; `string'

  00000			 AREA	 |.rdata|, DATA, READONLY
|??_C@_1FO@GIDJAOCB@?$AAE?$AAR?$AAR?$AAO?$AAR?$AA?3?$AA?5?$AAI?$AA2?$AAC?$AA_?$AAD?$AAe?$AAi?$AAn?$AAi?$AAt?$AA?3?$AA?5?$AAI?$AAn?$AAc?$AAo?$AAr?$AAr?$AAe?$AAc?$AAt?$AA?5?$AAc?$AAo?$AAn@| DCB "E"
	DCB	0x0, "R", 0x0, "R", 0x0, "O", 0x0, "R", 0x0, ":", 0x0, " "
	DCB	0x0, "I", 0x0, "2", 0x0, "C", 0x0, "_", 0x0, "D", 0x0, "e"
	DCB	0x0, "i", 0x0, "n", 0x0, "i", 0x0, "t", 0x0, ":", 0x0, " "
	DCB	0x0, "I", 0x0, "n", 0x0, "c", 0x0, "o", 0x0, "r", 0x0, "r"
	DCB	0x0, "e", 0x0, "c", 0x0, "t", 0x0, " ", 0x0, "c", 0x0, "o"
	DCB	0x0, "n", 0x0, "t", 0x0, "e", 0x0, "x", 0x0, "t", 0x0, " "
	DCB	0x0, "p", 0x0, "a", 0x0, "r", 0x0, "a", 0x0, "m", 0x0, "e"
	DCB	0x0, "r", 0x0, 0xd, 0x0, 0xa, 0x0, 0x0, 0x0 ; `string'

  00000			 AREA	 |.rdata|, DATA, READONLY
|??_C@_1CM@CBAGIHJE@?$AA?$CL?$AAI?$AA2?$AAC?$AA_?$AAD?$AAe?$AAi?$AAn?$AAi?$AAt?$AA?$CI?$AA0?$AAx?$AA?$CF?$AA0?$AA8?$AAx?$AA?$CJ?$AA?$AN?$AA?6?$AA?$AA@| DCB "+"
	DCB	0x0, "I", 0x0, "2", 0x0, "C", 0x0, "_", 0x0, "D", 0x0, "e"
	DCB	0x0, "i", 0x0, "n", 0x0, "i", 0x0, "t", 0x0, "(", 0x0, "0"
	DCB	0x0, "x", 0x0, "%", 0x0, "0", 0x0, "8", 0x0, "x", 0x0, ")"
	DCB	0x0, 0xd, 0x0, 0xa, 0x0, 0x0, 0x0	; `string'
; Function compile flags: /Odtp

  00218			 AREA	 |.text|, CODE, ARM

  00218		 |I2C_Deinit| PROC

; 144  : {

  00218		 |$LN16@I2C_Deinit|
  00218	e1a0c00d	 mov         r12, sp
  0021c	e92d0001	 stmdb       sp!, {r0}
  00220	e92d5000	 stmdb       sp!, {r12, lr}
  00224	e24dd01c	 sub         sp, sp, #0x1C
  00228		 |$M43132|

; 145  :     BOOL rc = FALSE;

  00228	e3a03000	 mov         r3, #0
  0022c	e58d3004	 str         r3, [sp, #4]

; 146  :     I2C_DEVICE *pDevice = (I2C_DEVICE*)context;

  00230	e59d3024	 ldr         r3, [sp, #0x24]
  00234	e58d3000	 str         r3, [sp]

; 147  : 
; 148  :     DEBUGMSG(ZONE_I2C&&ZONE_FUNCTION, (L"+I2C_Deinit(0x%08x)\r\n", context));

  00238	e59f3154	 ldr         r3, [pc, #0x154]
  0023c	e5933440	 ldr         r3, [r3, #0x440]
  00240	e3130a02	 tst         r3, #2, 20
  00244	0a000009	 beq         |$LN6@I2C_Deinit|
  00248	e59f3144	 ldr         r3, [pc, #0x144]
  0024c	e5933440	 ldr         r3, [r3, #0x440]
  00250	e3130004	 tst         r3, #4
  00254	0a000005	 beq         |$LN6@I2C_Deinit|
  00258	e59d1024	 ldr         r1, [sp, #0x24]
  0025c	e59f0140	 ldr         r0, [pc, #0x140]
  00260	eb000000	 bl          NKDbgPrintfW
  00264	e3a03001	 mov         r3, #1
  00268	e58d300c	 str         r3, [sp, #0xC]
  0026c	ea000001	 b           |$LN7@I2C_Deinit|
  00270		 |$LN6@I2C_Deinit|
  00270	e3a03000	 mov         r3, #0
  00274	e58d300c	 str         r3, [sp, #0xC]
  00278		 |$LN7@I2C_Deinit|

; 149  : 
; 150  :     // Check if we get correct context
; 151  :     if (pDevice == NULL || pDevice->cookie != I2C_DEVICE_COOKIE) 

  00278	e59d3000	 ldr         r3, [sp]
  0027c	e3530000	 cmp         r3, #0
  00280	0a000004	 beq         |$LN2@I2C_Deinit|
  00284	e59d3000	 ldr         r3, [sp]
  00288	e5932000	 ldr         r2, [r3]
  0028c	e59f310c	 ldr         r3, [pc, #0x10C]
  00290	e1520003	 cmp         r2, r3
  00294	0a00000b	 beq         |$LN3@I2C_Deinit|
  00298		 |$LN2@I2C_Deinit|

; 152  :     {
; 153  :         DEBUGMSG (ZONE_ERROR, (L"ERROR: I2C_Deinit: "
; 154  :             L"Incorrect context paramer\r\n"
; 155  :         ));

  00298	e59f30f4	 ldr         r3, [pc, #0xF4]
  0029c	e5933440	 ldr         r3, [r3, #0x440]
  002a0	e3130001	 tst         r3, #1
  002a4	0a000004	 beq         |$LN8@I2C_Deinit|
  002a8	e59f00ec	 ldr         r0, [pc, #0xEC]
  002ac	eb000000	 bl          NKDbgPrintfW
  002b0	e3a03001	 mov         r3, #1
  002b4	e58d3010	 str         r3, [sp, #0x10]
  002b8	ea000001	 b           |$LN9@I2C_Deinit|
  002bc		 |$LN8@I2C_Deinit|
  002bc	e3a03000	 mov         r3, #0
  002c0	e58d3010	 str         r3, [sp, #0x10]
  002c4		 |$LN9@I2C_Deinit|

; 156  :         goto cleanUp;

  002c4	ea00001b	 b           |$cleanUp$42847|
  002c8		 |$LN3@I2C_Deinit|

; 157  :     }
; 158  : 
; 159  :     // Check for open instances
; 160  :     if (pDevice->instances > 0) 

  002c8	e59d3000	 ldr         r3, [sp]
  002cc	e2833008	 add         r3, r3, #8
  002d0	e5933000	 ldr         r3, [r3]
  002d4	e3530000	 cmp         r3, #0
  002d8	da00000e	 ble         |$LN1@I2C_Deinit|

; 161  :     {
; 162  :         DEBUGMSG (ZONE_ERROR, (L"ERROR: I2C_Deinit: "
; 163  :             L"Deinit with active instance (%d instances active)\r\n",
; 164  :             pDevice->instances
; 165  :         ));

  002dc	e59f30b0	 ldr         r3, [pc, #0xB0]
  002e0	e5933440	 ldr         r3, [r3, #0x440]
  002e4	e3130001	 tst         r3, #1
  002e8	0a000007	 beq         |$LN10@I2C_Deinit|
  002ec	e59d3000	 ldr         r3, [sp]
  002f0	e2833008	 add         r3, r3, #8
  002f4	e5931000	 ldr         r1, [r3]
  002f8	e59f0098	 ldr         r0, [pc, #0x98]
  002fc	eb000000	 bl          NKDbgPrintfW
  00300	e3a03001	 mov         r3, #1
  00304	e58d3014	 str         r3, [sp, #0x14]
  00308	ea000001	 b           |$LN11@I2C_Deinit|
  0030c		 |$LN10@I2C_Deinit|
  0030c	e3a03000	 mov         r3, #0
  00310	e58d3014	 str         r3, [sp, #0x14]
  00314		 |$LN11@I2C_Deinit|

; 166  :         goto cleanUp;

  00314	ea000007	 b           |$cleanUp$42847|
  00318		 |$LN1@I2C_Deinit|

; 167  :     }
; 168  : 
; 169  :     // Delete mutex handle
; 170  :     CloseHandle(pDevice->hMutex);

  00318	e59d3000	 ldr         r3, [sp]
  0031c	e283300c	 add         r3, r3, #0xC
  00320	e5930000	 ldr         r0, [r3]
  00324	eb000000	 bl          CloseHandle

; 171  : 
; 172  :     // Free device structure
; 173  :     LocalFree(pDevice);

  00328	e59d0000	 ldr         r0, [sp]
  0032c	eb000000	 bl          LocalFree

; 174  : 
; 175  :     // Done
; 176  :     rc = TRUE;

  00330	e3a03001	 mov         r3, #1
  00334	e58d3004	 str         r3, [sp, #4]
  00338		 |$cleanUp$42847|

; 177  : 
; 178  : cleanUp:
; 179  :     DEBUGMSG(ZONE_I2C&&ZONE_FUNCTION, (L"-I2C_Deinit(rc = %d)\r\n", rc));

  00338	e59f3054	 ldr         r3, [pc, #0x54]
  0033c	e5933440	 ldr         r3, [r3, #0x440]
  00340	e3130a02	 tst         r3, #2, 20
  00344	0a000009	 beq         |$LN12@I2C_Deinit|
  00348	e59f3044	 ldr         r3, [pc, #0x44]
  0034c	e5933440	 ldr         r3, [r3, #0x440]
  00350	e3130004	 tst         r3, #4
  00354	0a000005	 beq         |$LN12@I2C_Deinit|
  00358	e59d1004	 ldr         r1, [sp, #4]
  0035c	e59f002c	 ldr         r0, [pc, #0x2C]
  00360	eb000000	 bl          NKDbgPrintfW
  00364	e3a03001	 mov         r3, #1
  00368	e58d3018	 str         r3, [sp, #0x18]
  0036c	ea000001	 b           |$LN13@I2C_Deinit|
  00370		 |$LN12@I2C_Deinit|
  00370	e3a03000	 mov         r3, #0
  00374	e58d3018	 str         r3, [sp, #0x18]
  00378		 |$LN13@I2C_Deinit|

; 180  :     return rc;

  00378	e59d3004	 ldr         r3, [sp, #4]
  0037c	e58d3008	 str         r3, [sp, #8]

; 181  : }

  00380	e59d0008	 ldr         r0, [sp, #8]
  00384	e28dd01c	 add         sp, sp, #0x1C
  00388	e89d6000	 ldmia       sp, {sp, lr}
  0038c	e12fff1e	 bx          lr
  00390		 |$LN17@I2C_Deinit|
  00390		 |$LN18@I2C_Deinit|
  00390	00000000	 DCD         |??_C@_1CO@PFNAJHMM@?$AA?9?$AAI?$AA2?$AAC?$AA_?$AAD?$AAe?$AAi?$AAn?$AAi?$AAt?$AA?$CI?$AAr?$AAc?$AA?5?$AA?$DN?$AA?5?$AA?$CF?$AAd?$AA?$CJ?$AA?$AN?$AA?6?$AA?$AA@|
  00394		 |$LN19@I2C_Deinit|
  00394	00000000	 DCD         |dpCurSettings|
  00398		 |$LN20@I2C_Deinit|
  00398	00000000	 DCD         |??_C@_1IO@OGJPGGLI@?$AAE?$AAR?$AAR?$AAO?$AAR?$AA?3?$AA?5?$AAI?$AA2?$AAC?$AA_?$AAD?$AAe?$AAi?$AAn?$AAi?$AAt?$AA?3?$AA?5?$AAD?$AAe?$AAi?$AAn?$AAi?$AAt?$AA?5?$AAw?$AAi?$AAt?$AAh?$AA?5?$AAa@|
  0039c		 |$LN21@I2C_Deinit|
  0039c	00000000	 DCD         |??_C@_1FO@GIDJAOCB@?$AAE?$AAR?$AAR?$AAO?$AAR?$AA?3?$AA?5?$AAI?$AA2?$AAC?$AA_?$AAD?$AAe?$AAi?$AAn?$AAi?$AAt?$AA?3?$AA?5?$AAI?$AAn?$AAc?$AAo?$AAr?$AAr?$AAe?$AAc?$AAt?$AA?5?$AAc?$AAo?$AAn@|
  003a0		 |$LN22@I2C_Deinit|
  003a0	69326344	 DCD         0x69326344
  003a4		 |$LN23@I2C_Deinit|
  003a4	00000000	 DCD         |??_C@_1CM@CBAGIHJE@?$AA?$CL?$AAI?$AA2?$AAC?$AA_?$AAD?$AAe?$AAi?$AAn?$AAi?$AAt?$AA?$CI?$AA0?$AAx?$AA?$CF?$AA0?$AA8?$AAx?$AA?$CJ?$AA?$AN?$AA?6?$AA?$AA@|
  003a8		 |$M43133|

			 ENDP  ; |I2C_Deinit|

	EXPORT	|??_C@_1DC@PEKFGOLB@?$AA?9?$AAI?$AA2?$AAC?$AA_?$AAO?$AAp?$AAe?$AAn?$AA?$CI?$AAr?$AAc?$AA?5?$AA?$DN?$AA?5?$AA0?$AAx?$AA?$CF?$AA0?$AA8?$AAx?$AA?$CJ?$AA?$AN?$AA?6?$AA?$AA@| [ DATA ] ; `string'
	EXPORT	|??_C@_1FK@FNONLNGN@?$AA?$CF?$AAs?$AA?3?$AA?5?$AAD?$AAE?$AAB?$AAU?$AAG?$AAC?$AAH?$AAK?$AA?5?$AAf?$AAa?$AAi?$AAl?$AAe?$AAd?$AA?5?$AAi?$AAn?$AA?5?$AAf?$AAi?$AAl?$AAe?$AA?5?$AA?$CF?$AAs?$AA?5?$AAa@| [ DATA ] ; `string'
	EXPORT	|??_C@_1BA@LEPJIIOK@?$AAU?$AAn?$AAk?$AAn?$AAo?$AAw?$AAn?$AA?$AA@| [ DATA ] ; `string'
	EXPORT	|??_C@_1HO@KJBHMMKF@?$AAC?$AA?3?$AA?2?$AAW?$AAI?$AAN?$AAC?$AAE?$AA6?$AA0?$AA0?$AA?2?$AAP?$AAL?$AAA?$AAT?$AAF?$AAO?$AAR?$AAM?$AA?2?$AAC?$AAO?$AAM?$AAM?$AAO?$AAN?$AA?2?$AAS?$AAR?$AAC?$AA?2@| [ DATA ] ; `string'
	EXPORT	|??_C@_1HE@BHIFHDCF@?$AAE?$AAR?$AAR?$AAO?$AAR?$AA?3?$AA?5?$AAI?$AA2?$AAC?$AA_?$AAO?$AAp?$AAe?$AAn?$AA?3?$AA?5?$AAF?$AAa?$AAi?$AAl?$AAe?$AAd?$AA?5?$AAa?$AAl?$AAl?$AAo?$AAc?$AAa?$AAt?$AAe@| [ DATA ] ; `string'
	EXPORT	|??_C@_1FO@HKDAFKAM@?$AAE?$AAR?$AAR?$AAO?$AAR?$AA?3?$AA?5?$AAI?$AA2?$AAC?$AA_?$AAO?$AAp?$AAe?$AAn?$AA?3?$AA?5?$AAI?$AAn?$AAc?$AAo?$AAr?$AAr?$AAe?$AAc?$AAt?$AA?5?$AAc?$AAo?$AAn?$AAt?$AAe@| [ DATA ] ; `string'
	EXPORT	|??_C@_1EG@COJDBHGH@?$AA?$CL?$AAI?$AA2?$AAC?$AA_?$AAO?$AAp?$AAe?$AAn?$AA?$CI?$AA0?$AAx?$AA?$CF?$AA0?$AA8?$AAx?$AA?0?$AA?5?$AA0?$AAx?$AA?$CF?$AA0?$AA8?$AAx?$AA?0?$AA?5?$AA0?$AAx?$AA?$CF?$AA0?$AA8?$AAx@| [ DATA ] ; `string'
	EXPORT	|I2C_Open|
	IMPORT	|InterlockedIncrement|

  00010			 AREA	 |.pdata|, PDATA
|$T43158| DCD	|$LN18@I2C_Open|
	DCD	0x40008104

  00000			 AREA	 |.rdata|, DATA, READONLY
|??_C@_1DC@PEKFGOLB@?$AA?9?$AAI?$AA2?$AAC?$AA_?$AAO?$AAp?$AAe?$AAn?$AA?$CI?$AAr?$AAc?$AA?5?$AA?$DN?$AA?5?$AA0?$AAx?$AA?$CF?$AA0?$AA8?$AAx?$AA?$CJ?$AA?$AN?$AA?6?$AA?$AA@| DCB "-"
	DCB	0x0, "I", 0x0, "2", 0x0, "C", 0x0, "_", 0x0, "O", 0x0, "p"
	DCB	0x0, "e", 0x0, "n", 0x0, "(", 0x0, "r", 0x0, "c", 0x0, " "
	DCB	0x0, "=", 0x0, " ", 0x0, "0", 0x0, "x", 0x0, "%", 0x0, "0"
	DCB	0x0, "8", 0x0, "x", 0x0, ")", 0x0, 0xd, 0x0, 0xa, 0x0, 0x0
	DCB	0x0					; `string'

  00000			 AREA	 |.rdata|, DATA, READONLY
|??_C@_1FK@FNONLNGN@?$AA?$CF?$AAs?$AA?3?$AA?5?$AAD?$AAE?$AAB?$AAU?$AAG?$AAC?$AAH?$AAK?$AA?5?$AAf?$AAa?$AAi?$AAl?$AAe?$AAd?$AA?5?$AAi?$AAn?$AA?5?$AAf?$AAi?$AAl?$AAe?$AA?5?$AA?$CF?$AAs?$AA?5?$AAa@| DCB "%"
	DCB	0x0, "s", 0x0, ":", 0x0, " ", 0x0, "D", 0x0, "E", 0x0, "B"
	DCB	0x0, "U", 0x0, "G", 0x0, "C", 0x0, "H", 0x0, "K", 0x0, " "
	DCB	0x0, "f", 0x0, "a", 0x0, "i", 0x0, "l", 0x0, "e", 0x0, "d"
	DCB	0x0, " ", 0x0, "i", 0x0, "n", 0x0, " ", 0x0, "f", 0x0, "i"
	DCB	0x0, "l", 0x0, "e", 0x0, " ", 0x0, "%", 0x0, "s", 0x0, " "
	DCB	0x0, "a", 0x0, "t", 0x0, " ", 0x0, "l", 0x0, "i", 0x0, "n"
	DCB	0x0, "e", 0x0, " ", 0x0, "%", 0x0, "d", 0x0, " ", 0x0, 0xd
	DCB	0x0, 0xa, 0x0, 0x0, 0x0			; `string'

  00000			 AREA	 |.rdata|, DATA, READONLY
|??_C@_1BA@LEPJIIOK@?$AAU?$AAn?$AAk?$AAn?$AAo?$AAw?$AAn?$AA?$AA@| DCB "U", 0x0
	DCB	"n", 0x0, "k", 0x0, "n", 0x0, "o", 0x0, "w", 0x0, "n", 0x0
	DCB	0x0, 0x0				; `string'

  00000			 AREA	 |.rdata|, DATA, READONLY
|??_C@_1HO@KJBHMMKF@?$AAC?$AA?3?$AA?2?$AAW?$AAI?$AAN?$AAC?$AAE?$AA6?$AA0?$AA0?$AA?2?$AAP?$AAL?$AAA?$AAT?$AAF?$AAO?$AAR?$AAM?$AA?2?$AAC?$AAO?$AAM?$AAM?$AAO?$AAN?$AA?2?$AAS?$AAR?$AAC?$AA?2@| DCB "C"
	DCB	0x0, ":", 0x0, "\\", 0x0, "W", 0x0, "I", 0x0, "N", 0x0, "C"
	DCB	0x0, "E", 0x0, "6", 0x0, "0", 0x0, "0", 0x0, "\\", 0x0, "P"
	DCB	0x0, "L", 0x0, "A", 0x0, "T", 0x0, "F", 0x0, "O", 0x0, "R"
	DCB	0x0, "M", 0x0, "\\", 0x0, "C", 0x0, "O", 0x0, "M", 0x0, "M"
	DCB	0x0, "O", 0x0, "N", 0x0, "\\", 0x0, "S", 0x0, "R", 0x0, "C"
	DCB	0x0, "\\", 0x0, "S", 0x0, "O", 0x0, "C", 0x0, "\\", 0x0, "O"
	DCB	0x0, "M", 0x0, "A", 0x0, "P", 0x0, "2", 0x0, "4", 0x0, "2"
	DCB	0x0, "0", 0x0, "_", 0x0, "M", 0x0, "S", 0x0, "_", 0x0, "V"
	DCB	0x0, "1", 0x0, "\\", 0x0, "I", 0x0, "2", 0x0, "C", 0x0, "\\"
	DCB	0x0, ".", 0x0, "\\", 0x0, "i", 0x0, "2", 0x0, "c", 0x0, "."
	DCB	0x0, "c", 0x0, 0x0, 0x0			; `string'

  00000			 AREA	 |.rdata|, DATA, READONLY
|??_C@_1HE@BHIFHDCF@?$AAE?$AAR?$AAR?$AAO?$AAR?$AA?3?$AA?5?$AAI?$AA2?$AAC?$AA_?$AAO?$AAp?$AAe?$AAn?$AA?3?$AA?5?$AAF?$AAa?$AAi?$AAl?$AAe?$AAd?$AA?5?$AAa?$AAl?$AAl?$AAo?$AAc?$AAa?$AAt?$AAe@| DCB "E"
	DCB	0x0, "R", 0x0, "R", 0x0, "O", 0x0, "R", 0x0, ":", 0x0, " "
	DCB	0x0, "I", 0x0, "2", 0x0, "C", 0x0, "_", 0x0, "O", 0x0, "p"
	DCB	0x0, "e", 0x0, "n", 0x0, ":", 0x0, " ", 0x0, "F", 0x0, "a"
	DCB	0x0, "i", 0x0, "l", 0x0, "e", 0x0, "d", 0x0, " ", 0x0, "a"
	DCB	0x0, "l", 0x0, "l", 0x0, "o", 0x0, "c", 0x0, "a", 0x0, "t"
	DCB	0x0, "e", 0x0, " ", 0x0, "I", 0x0, "2", 0x0, "C", 0x0, " "
	DCB	0x0, "i", 0x0, "n", 0x0, "s", 0x0, "t", 0x0, "a", 0x0, "n"
	DCB	0x0, "c", 0x0, "e", 0x0, " ", 0x0, "s", 0x0, "t", 0x0, "r"
	DCB	0x0, "u", 0x0, "c", 0x0, "t", 0x0, "u", 0x0, "r", 0x0, "e"
	DCB	0x0, 0xd, 0x0, 0xa, 0x0, 0x0, 0x0	; `string'

  00000			 AREA	 |.rdata|, DATA, READONLY
|??_C@_1FO@HKDAFKAM@?$AAE?$AAR?$AAR?$AAO?$AAR?$AA?3?$AA?5?$AAI?$AA2?$AAC?$AA_?$AAO?$AAp?$AAe?$AAn?$AA?3?$AA?5?$AAI?$AAn?$AAc?$AAo?$AAr?$AAr?$AAe?$AAc?$AAt?$AA?5?$AAc?$AAo?$AAn?$AAt?$AAe@| DCB "E"
	DCB	0x0, "R", 0x0, "R", 0x0, "O", 0x0, "R", 0x0, ":", 0x0, " "
	DCB	0x0, "I", 0x0, "2", 0x0, "C", 0x0, "_", 0x0, "O", 0x0, "p"
	DCB	0x0, "e", 0x0, "n", 0x0, ":", 0x0, " ", 0x0, "I", 0x0, "n"
	DCB	0x0, "c", 0x0, "o", 0x0, "r", 0x0, "r", 0x0, "e", 0x0, "c"
	DCB	0x0, "t", 0x0, " ", 0x0, "c", 0x0, "o", 0x0, "n", 0x0, "t"
	DCB	0x0, "e", 0x0, "x", 0x0, "t", 0x0, " ", 0x0, "p", 0x0, "a"
	DCB	0x0, "r", 0x0, "a", 0x0, "m", 0x0, "e", 0x0, "t", 0x0, "e"
	DCB	0x0, "r", 0x0, 0xd, 0x0, 0xa, 0x0, 0x0, 0x0 ; `string'

  00000			 AREA	 |.rdata|, DATA, READONLY
|??_C@_1EG@COJDBHGH@?$AA?$CL?$AAI?$AA2?$AAC?$AA_?$AAO?$AAp?$AAe?$AAn?$AA?$CI?$AA0?$AAx?$AA?$CF?$AA0?$AA8?$AAx?$AA?0?$AA?5?$AA0?$AAx?$AA?$CF?$AA0?$AA8?$AAx?$AA?0?$AA?5?$AA0?$AAx?$AA?$CF?$AA0?$AA8?$AAx@| DCB "+"
	DCB	0x0, "I", 0x0, "2", 0x0, "C", 0x0, "_", 0x0, "O", 0x0, "p"
	DCB	0x0, "e", 0x0, "n", 0x0, "(", 0x0, "0", 0x0, "x", 0x0, "%"
	DCB	0x0, "0", 0x0, "8", 0x0, "x", 0x0, ",", 0x0, " ", 0x0, "0"
	DCB	0x0, "x", 0x0, "%", 0x0, "0", 0x0, "8", 0x0, "x", 0x0, ","
	DCB	0x0, " ", 0x0, "0", 0x0, "x", 0x0, "%", 0x0, "0", 0x0, "8"
	DCB	0x0, "x", 0x0, 0xd, 0x0, 0xa, 0x0, 0x0, 0x0 ; `string'
; Function compile flags: /Odtp

  003a8			 AREA	 |.text|, CODE, ARM

  003a8		 |I2C_Open| PROC

; 190  : {

  003a8		 |$LN18@I2C_Open|
  003a8	e1a0c00d	 mov         r12, sp
  003ac	e92d0007	 stmdb       sp!, {r0 - r2}
  003b0	e92d5000	 stmdb       sp!, {r12, lr}
  003b4	e24dd028	 sub         sp, sp, #0x28
  003b8		 |$M43155|

; 191  :     DWORD rc = (DWORD)NULL;

  003b8	e3a03000	 mov         r3, #0
  003bc	e58d3004	 str         r3, [sp, #4]

; 192  :     I2C_DEVICE *pDevice = (I2C_DEVICE*)context;

  003c0	e59d3030	 ldr         r3, [sp, #0x30]
  003c4	e58d3000	 str         r3, [sp]

; 193  :     I2C_INSTANCE *pInstance = NULL;

  003c8	e3a03000	 mov         r3, #0
  003cc	e58d3008	 str         r3, [sp, #8]

; 194  : 
; 195  :     DEBUGMSG(ZONE_I2C&&ZONE_FUNCTION, (
; 196  :         L"+I2C_Open(0x%08x, 0x%08x, 0x%08x\r\n", context, accessCode, shareMode
; 197  :     ));

  003d0	e59f31b0	 ldr         r3, [pc, #0x1B0]
  003d4	e5933440	 ldr         r3, [r3, #0x440]
  003d8	e3130a02	 tst         r3, #2, 20
  003dc	0a00000b	 beq         |$LN6@I2C_Open|
  003e0	e59f31a0	 ldr         r3, [pc, #0x1A0]
  003e4	e5933440	 ldr         r3, [r3, #0x440]
  003e8	e3130004	 tst         r3, #4
  003ec	0a000007	 beq         |$LN6@I2C_Open|
  003f0	e59d3038	 ldr         r3, [sp, #0x38]
  003f4	e59d2034	 ldr         r2, [sp, #0x34]
  003f8	e59d1030	 ldr         r1, [sp, #0x30]
  003fc	e59f01a4	 ldr         r0, [pc, #0x1A4]
  00400	eb000000	 bl          NKDbgPrintfW
  00404	e3a03001	 mov         r3, #1
  00408	e58d3010	 str         r3, [sp, #0x10]
  0040c	ea000001	 b           |$LN7@I2C_Open|
  00410		 |$LN6@I2C_Open|
  00410	e3a03000	 mov         r3, #0
  00414	e58d3010	 str         r3, [sp, #0x10]
  00418		 |$LN7@I2C_Open|

; 198  : 
; 199  :     // Check if we get correct context
; 200  :     if (pDevice == NULL || pDevice->cookie != I2C_DEVICE_COOKIE) {

  00418	e59d3000	 ldr         r3, [sp]
  0041c	e3530000	 cmp         r3, #0
  00420	0a000004	 beq         |$LN2@I2C_Open|
  00424	e59d3000	 ldr         r3, [sp]
  00428	e5932000	 ldr         r2, [r3]
  0042c	e59f3170	 ldr         r3, [pc, #0x170]
  00430	e1520003	 cmp         r2, r3
  00434	0a00000b	 beq         |$LN3@I2C_Open|
  00438		 |$LN2@I2C_Open|

; 201  :         DEBUGMSG (ZONE_ERROR, (L"ERROR: I2C_Open: "
; 202  :             L"Incorrect context parameter\r\n"
; 203  :         ));

  00438	e59f3148	 ldr         r3, [pc, #0x148]
  0043c	e5933440	 ldr         r3, [r3, #0x440]
  00440	e3130001	 tst         r3, #1
  00444	0a000004	 beq         |$LN8@I2C_Open|
  00448	e59f0150	 ldr         r0, [pc, #0x150]
  0044c	eb000000	 bl          NKDbgPrintfW
  00450	e3a03001	 mov         r3, #1
  00454	e58d3014	 str         r3, [sp, #0x14]
  00458	ea000001	 b           |$LN9@I2C_Open|
  0045c		 |$LN8@I2C_Open|
  0045c	e3a03000	 mov         r3, #0
  00460	e58d3014	 str         r3, [sp, #0x14]
  00464		 |$LN9@I2C_Open|

; 204  :         goto cleanUp;

  00464	ea000030	 b           |$cleanUp$42875|
  00468		 |$LN3@I2C_Open|

; 205  :     }
; 206  : 
; 207  :     // Create device structure
; 208  :     pInstance = (I2C_INSTANCE*)LocalAlloc(LPTR, sizeof(I2C_INSTANCE));

  00468	e3a01010	 mov         r1, #0x10
  0046c	e3a00040	 mov         r0, #0x40
  00470	eb000000	 bl          LocalAlloc
  00474	e58d0018	 str         r0, [sp, #0x18]
  00478	e59d3018	 ldr         r3, [sp, #0x18]
  0047c	e58d3008	 str         r3, [sp, #8]

; 209  :     if (pInstance == NULL) {

  00480	e59d3008	 ldr         r3, [sp, #8]
  00484	e3530000	 cmp         r3, #0
  00488	1a00000b	 bne         |$LN1@I2C_Open|

; 210  :         DEBUGMSG(ZONE_ERROR, (L"ERROR: I2C_Open: "
; 211  :             L"Failed allocate I2C instance structure\r\n"
; 212  :         ));

  0048c	e59f30f4	 ldr         r3, [pc, #0xF4]
  00490	e5933440	 ldr         r3, [r3, #0x440]
  00494	e3130001	 tst         r3, #1
  00498	0a000004	 beq         |$LN10@I2C_Open|
  0049c	e59f00f8	 ldr         r0, [pc, #0xF8]
  004a0	eb000000	 bl          NKDbgPrintfW
  004a4	e3a03001	 mov         r3, #1
  004a8	e58d301c	 str         r3, [sp, #0x1C]
  004ac	ea000001	 b           |$LN11@I2C_Open|
  004b0		 |$LN10@I2C_Open|
  004b0	e3a03000	 mov         r3, #0
  004b4	e58d301c	 str         r3, [sp, #0x1C]
  004b8		 |$LN11@I2C_Open|

; 213  :         goto cleanUp;

  004b8	ea00001b	 b           |$cleanUp$42875|
  004bc		 |$LN1@I2C_Open|

; 214  :     }
; 215  : 
; 216  :     // Set cookie
; 217  :     pInstance->cookie = I2C_INSTANCE_COOKIE;

  004bc	e59d2008	 ldr         r2, [sp, #8]
  004c0	e59f30d0	 ldr         r3, [pc, #0xD0]
  004c4	e5823000	 str         r3, [r2]

; 218  : 
; 219  :     // Save device reference
; 220  :     pInstance->pDevice = pDevice;

  004c8	e59d3008	 ldr         r3, [sp, #8]
  004cc	e2832004	 add         r2, r3, #4
  004d0	e59d3000	 ldr         r3, [sp]
  004d4	e5823000	 str         r3, [r2]

; 221  : 
; 222  :     // Increment number of open instances
; 223  :     InterlockedIncrement(&pDevice->instances);

  004d8	e59d3000	 ldr         r3, [sp]
  004dc	e2830008	 add         r0, r3, #8
  004e0	eb000000	 bl          InterlockedIncrement

; 224  : 
; 225  :     // sanity check number of instances
; 226  :     ASSERT(pDevice->instances > 0);

  004e4	e59d3000	 ldr         r3, [sp]
  004e8	e2833008	 add         r3, r3, #8
  004ec	e5933000	 ldr         r3, [r3]
  004f0	e3530000	 cmp         r3, #0
  004f4	da000002	 ble         |$LN12@I2C_Open|
  004f8	e3a03001	 mov         r3, #1
  004fc	e58d3020	 str         r3, [sp, #0x20]
  00500	ea000007	 b           |$LN13@I2C_Open|
  00504		 |$LN12@I2C_Open|
  00504	e3a030e2	 mov         r3, #0xE2
  00508	e59f2084	 ldr         r2, [pc, #0x84]
  0050c	e59f107c	 ldr         r1, [pc, #0x7C]
  00510	e59f0074	 ldr         r0, [pc, #0x74]
  00514	eb000000	 bl          NKDbgPrintfW
  00518	e6000010	 __debugbreak_ce
  0051c	e3a03000	 mov         r3, #0
  00520	e58d3020	 str         r3, [sp, #0x20]
  00524		 |$LN13@I2C_Open|

; 227  : 
; 228  :     // Done...
; 229  :     rc = (DWORD)pInstance;

  00524	e59d3008	 ldr         r3, [sp, #8]
  00528	e58d3004	 str         r3, [sp, #4]
  0052c		 |$cleanUp$42875|

; 230  : 
; 231  : cleanUp:
; 232  :     DEBUGMSG(ZONE_I2C&&ZONE_FUNCTION, (L"-I2C_Open(rc = 0x%08x)\r\n", rc));

  0052c	e59f3054	 ldr         r3, [pc, #0x54]
  00530	e5933440	 ldr         r3, [r3, #0x440]
  00534	e3130a02	 tst         r3, #2, 20
  00538	0a000009	 beq         |$LN14@I2C_Open|
  0053c	e59f3044	 ldr         r3, [pc, #0x44]
  00540	e5933440	 ldr         r3, [r3, #0x440]
  00544	e3130004	 tst         r3, #4
  00548	0a000005	 beq         |$LN14@I2C_Open|
  0054c	e59d1004	 ldr         r1, [sp, #4]
  00550	e59f002c	 ldr         r0, [pc, #0x2C]
  00554	eb000000	 bl          NKDbgPrintfW
  00558	e3a03001	 mov         r3, #1
  0055c	e58d3024	 str         r3, [sp, #0x24]
  00560	ea000001	 b           |$LN15@I2C_Open|
  00564		 |$LN14@I2C_Open|
  00564	e3a03000	 mov         r3, #0
  00568	e58d3024	 str         r3, [sp, #0x24]
  0056c		 |$LN15@I2C_Open|

; 233  :     return rc;

  0056c	e59d3004	 ldr         r3, [sp, #4]
  00570	e58d300c	 str         r3, [sp, #0xC]

; 234  : }

  00574	e59d000c	 ldr         r0, [sp, #0xC]
  00578	e28dd028	 add         sp, sp, #0x28
  0057c	e89d6000	 ldmia       sp, {sp, lr}
  00580	e12fff1e	 bx          lr
  00584		 |$LN19@I2C_Open|
  00584		 |$LN20@I2C_Open|
  00584	00000000	 DCD         |??_C@_1DC@PEKFGOLB@?$AA?9?$AAI?$AA2?$AAC?$AA_?$AAO?$AAp?$AAe?$AAn?$AA?$CI?$AAr?$AAc?$AA?5?$AA?$DN?$AA?5?$AA0?$AAx?$AA?$CF?$AA0?$AA8?$AAx?$AA?$CJ?$AA?$AN?$AA?6?$AA?$AA@|
  00588		 |$LN21@I2C_Open|
  00588	00000000	 DCD         |dpCurSettings|
  0058c		 |$LN22@I2C_Open|
  0058c	00000000	 DCD         |??_C@_1FK@FNONLNGN@?$AA?$CF?$AAs?$AA?3?$AA?5?$AAD?$AAE?$AAB?$AAU?$AAG?$AAC?$AAH?$AAK?$AA?5?$AAf?$AAa?$AAi?$AAl?$AAe?$AAd?$AA?5?$AAi?$AAn?$AA?5?$AAf?$AAi?$AAl?$AAe?$AA?5?$AA?$CF?$AAs?$AA?5?$AAa@|
  00590		 |$LN23@I2C_Open|
  00590	00000000	 DCD         |??_C@_1BA@LEPJIIOK@?$AAU?$AAn?$AAk?$AAn?$AAo?$AAw?$AAn?$AA?$AA@|
  00594		 |$LN24@I2C_Open|
  00594	00000000	 DCD         |??_C@_1HO@KJBHMMKF@?$AAC?$AA?3?$AA?2?$AAW?$AAI?$AAN?$AAC?$AAE?$AA6?$AA0?$AA0?$AA?2?$AAP?$AAL?$AAA?$AAT?$AAF?$AAO?$AAR?$AAM?$AA?2?$AAC?$AAO?$AAM?$AAM?$AAO?$AAN?$AA?2?$AAS?$AAR?$AAC?$AA?2@|
  00598		 |$LN25@I2C_Open|
  00598	69326349	 DCD         0x69326349
  0059c		 |$LN26@I2C_Open|
  0059c	00000000	 DCD         |??_C@_1HE@BHIFHDCF@?$AAE?$AAR?$AAR?$AAO?$AAR?$AA?3?$AA?5?$AAI?$AA2?$AAC?$AA_?$AAO?$AAp?$AAe?$AAn?$AA?3?$AA?5?$AAF?$AAa?$AAi?$AAl?$AAe?$AAd?$AA?5?$AAa?$AAl?$AAl?$AAo?$AAc?$AAa?$AAt?$AAe@|
  005a0		 |$LN27@I2C_Open|
  005a0	00000000	 DCD         |??_C@_1FO@HKDAFKAM@?$AAE?$AAR?$AAR?$AAO?$AAR?$AA?3?$AA?5?$AAI?$AA2?$AAC?$AA_?$AAO?$AAp?$AAe?$AAn?$AA?3?$AA?5?$AAI?$AAn?$AAc?$AAo?$AAr?$AAr?$AAe?$AAc?$AAt?$AA?5?$AAc?$AAo?$AAn?$AAt?$AAe@|
  005a4		 |$LN28@I2C_Open|
  005a4	69326344	 DCD         0x69326344
  005a8		 |$LN29@I2C_Open|
  005a8	00000000	 DCD         |??_C@_1EG@COJDBHGH@?$AA?$CL?$AAI?$AA2?$AAC?$AA_?$AAO?$AAp?$AAe?$AAn?$AA?$CI?$AA0?$AAx?$AA?$CF?$AA0?$AA8?$AAx?$AA?0?$AA?5?$AA0?$AAx?$AA?$CF?$AA0?$AA8?$AAx?$AA?0?$AA?5?$AA0?$AAx?$AA?$CF?$AA0?$AA8?$AAx@|
  005ac		 |$M43156|

			 ENDP  ; |I2C_Open|

	EXPORT	|??_C@_1CM@GEIHCEIM@?$AA?9?$AAI?$AA2?$AAC?$AA_?$AAC?$AAl?$AAo?$AAs?$AAe?$AA?$CI?$AAr?$AAc?$AA?5?$AA?$DN?$AA?5?$AA?$CF?$AAd?$AA?$CJ?$AA?$AN?$AA?6?$AA?$AA@| [ DATA ] ; `string'
	EXPORT	|??_C@_1FM@HMFJNJCH@?$AAE?$AAR?$AAR?$AAO?$AAR?$AA?3?$AA?5?$AAI?$AA2?$AAC?$AA_?$AAC?$AAl?$AAo?$AAs?$AAe?$AA?3?$AA?5?$AAI?$AAn?$AAc?$AAo?$AAr?$AAr?$AAe?$AAc?$AAt?$AA?5?$AAc?$AAo?$AAn?$AAt@| [ DATA ] ; `string'
	EXPORT	|??_C@_1CK@HBELKLFD@?$AA?$CL?$AAI?$AA2?$AAC?$AA_?$AAC?$AAl?$AAo?$AAs?$AAe?$AA?$CI?$AA0?$AAx?$AA?$CF?$AA0?$AA8?$AAx?$AA?$CJ?$AA?$AN?$AA?6?$AA?$AA@| [ DATA ] ; `string'
	EXPORT	|I2C_Close|
	IMPORT	|InterlockedDecrement|

  00018			 AREA	 |.pdata|, PDATA
|$T43183| DCD	|$LN15@I2C_Close|
	DCD	0x40006604

  00000			 AREA	 |.rdata|, DATA, READONLY
|??_C@_1CM@GEIHCEIM@?$AA?9?$AAI?$AA2?$AAC?$AA_?$AAC?$AAl?$AAo?$AAs?$AAe?$AA?$CI?$AAr?$AAc?$AA?5?$AA?$DN?$AA?5?$AA?$CF?$AAd?$AA?$CJ?$AA?$AN?$AA?6?$AA?$AA@| DCB "-"
	DCB	0x0, "I", 0x0, "2", 0x0, "C", 0x0, "_", 0x0, "C", 0x0, "l"
	DCB	0x0, "o", 0x0, "s", 0x0, "e", 0x0, "(", 0x0, "r", 0x0, "c"
	DCB	0x0, " ", 0x0, "=", 0x0, " ", 0x0, "%", 0x0, "d", 0x0, ")"
	DCB	0x0, 0xd, 0x0, 0xa, 0x0, 0x0, 0x0	; `string'

  00000			 AREA	 |.rdata|, DATA, READONLY
|??_C@_1FM@HMFJNJCH@?$AAE?$AAR?$AAR?$AAO?$AAR?$AA?3?$AA?5?$AAI?$AA2?$AAC?$AA_?$AAC?$AAl?$AAo?$AAs?$AAe?$AA?3?$AA?5?$AAI?$AAn?$AAc?$AAo?$AAr?$AAr?$AAe?$AAc?$AAt?$AA?5?$AAc?$AAo?$AAn?$AAt@| DCB "E"
	DCB	0x0, "R", 0x0, "R", 0x0, "O", 0x0, "R", 0x0, ":", 0x0, " "
	DCB	0x0, "I", 0x0, "2", 0x0, "C", 0x0, "_", 0x0, "C", 0x0, "l"
	DCB	0x0, "o", 0x0, "s", 0x0, "e", 0x0, ":", 0x0, " ", 0x0, "I"
	DCB	0x0, "n", 0x0, "c", 0x0, "o", 0x0, "r", 0x0, "r", 0x0, "e"
	DCB	0x0, "c", 0x0, "t", 0x0, " ", 0x0, "c", 0x0, "o", 0x0, "n"
	DCB	0x0, "t", 0x0, "e", 0x0, "x", 0x0, "t", 0x0, " ", 0x0, "p"
	DCB	0x0, "a", 0x0, "r", 0x0, "a", 0x0, "m", 0x0, "e", 0x0, "r"
	DCB	0x0, 0xd, 0x0, 0xa, 0x0, 0x0, 0x0	; `string'

  00000			 AREA	 |.rdata|, DATA, READONLY
|??_C@_1CK@HBELKLFD@?$AA?$CL?$AAI?$AA2?$AAC?$AA_?$AAC?$AAl?$AAo?$AAs?$AAe?$AA?$CI?$AA0?$AAx?$AA?$CF?$AA0?$AA8?$AAx?$AA?$CJ?$AA?$AN?$AA?6?$AA?$AA@| DCB "+"
	DCB	0x0, "I", 0x0, "2", 0x0, "C", 0x0, "_", 0x0, "C", 0x0, "l"
	DCB	0x0, "o", 0x0, "s", 0x0, "e", 0x0, "(", 0x0, "0", 0x0, "x"
	DCB	0x0, "%", 0x0, "0", 0x0, "8", 0x0, "x", 0x0, ")", 0x0, 0xd
	DCB	0x0, 0xa, 0x0, 0x0, 0x0			; `string'
; Function compile flags: /Odtp

  005ac			 AREA	 |.text|, CODE, ARM

  005ac		 |I2C_Close| PROC

; 243  : {

  005ac		 |$LN15@I2C_Close|
  005ac	e1a0c00d	 mov         r12, sp
  005b0	e92d0001	 stmdb       sp!, {r0}
  005b4	e92d5000	 stmdb       sp!, {r12, lr}
  005b8	e24dd020	 sub         sp, sp, #0x20
  005bc		 |$M43180|

; 244  :     BOOL rc = FALSE;

  005bc	e3a03000	 mov         r3, #0
  005c0	e58d3004	 str         r3, [sp, #4]

; 245  :     I2C_DEVICE *pDevice;
; 246  :     I2C_INSTANCE *pInstance = (I2C_INSTANCE*)context;

  005c4	e59d3028	 ldr         r3, [sp, #0x28]
  005c8	e58d3008	 str         r3, [sp, #8]

; 247  : 
; 248  :     DEBUGMSG(ZONE_I2C&&ZONE_FUNCTION, (L"+I2C_Close(0x%08x)\r\n", context));

  005cc	e59f3154	 ldr         r3, [pc, #0x154]
  005d0	e5933440	 ldr         r3, [r3, #0x440]
  005d4	e3130a02	 tst         r3, #2, 20
  005d8	0a000009	 beq         |$LN5@I2C_Close|
  005dc	e59f3144	 ldr         r3, [pc, #0x144]
  005e0	e5933440	 ldr         r3, [r3, #0x440]
  005e4	e3130004	 tst         r3, #4
  005e8	0a000005	 beq         |$LN5@I2C_Close|
  005ec	e59d1028	 ldr         r1, [sp, #0x28]
  005f0	e59f0148	 ldr         r0, [pc, #0x148]
  005f4	eb000000	 bl          NKDbgPrintfW
  005f8	e3a03001	 mov         r3, #1
  005fc	e58d3010	 str         r3, [sp, #0x10]
  00600	ea000001	 b           |$LN6@I2C_Close|
  00604		 |$LN5@I2C_Close|
  00604	e3a03000	 mov         r3, #0
  00608	e58d3010	 str         r3, [sp, #0x10]
  0060c		 |$LN6@I2C_Close|

; 249  : 
; 250  :     // Check if we get correct context
; 251  :     if (pInstance == NULL || pInstance->cookie != I2C_INSTANCE_COOKIE) {

  0060c	e59d3008	 ldr         r3, [sp, #8]
  00610	e3530000	 cmp         r3, #0
  00614	0a000004	 beq         |$LN1@I2C_Close|
  00618	e59d3008	 ldr         r3, [sp, #8]
  0061c	e5932000	 ldr         r2, [r3]
  00620	e59f3114	 ldr         r3, [pc, #0x114]
  00624	e1520003	 cmp         r2, r3
  00628	0a00000b	 beq         |$LN2@I2C_Close|
  0062c		 |$LN1@I2C_Close|

; 252  :         DEBUGMSG (ZONE_ERROR, (L"ERROR: I2C_Close: "
; 253  :             L"Incorrect context paramer\r\n"
; 254  :         ));

  0062c	e59f30f4	 ldr         r3, [pc, #0xF4]
  00630	e5933440	 ldr         r3, [r3, #0x440]
  00634	e3130001	 tst         r3, #1
  00638	0a000004	 beq         |$LN7@I2C_Close|
  0063c	e59f00f4	 ldr         r0, [pc, #0xF4]
  00640	eb000000	 bl          NKDbgPrintfW
  00644	e3a03001	 mov         r3, #1
  00648	e58d3014	 str         r3, [sp, #0x14]
  0064c	ea000001	 b           |$LN8@I2C_Close|
  00650		 |$LN7@I2C_Close|
  00650	e3a03000	 mov         r3, #0
  00654	e58d3014	 str         r3, [sp, #0x14]
  00658		 |$LN8@I2C_Close|

; 255  :         goto cleanUp;

  00658	ea00001b	 b           |$cleanUp$42905|
  0065c		 |$LN2@I2C_Close|

; 256  :     }
; 257  : 
; 258  :     // Get device context
; 259  :     pDevice = pInstance->pDevice;

  0065c	e59d3008	 ldr         r3, [sp, #8]
  00660	e2833004	 add         r3, r3, #4
  00664	e5933000	 ldr         r3, [r3]
  00668	e58d3000	 str         r3, [sp]

; 260  : 
; 261  :     // sanity check number of instances
; 262  :     ASSERT(pDevice->instances > 0);

  0066c	e59d3000	 ldr         r3, [sp]
  00670	e2833008	 add         r3, r3, #8
  00674	e5933000	 ldr         r3, [r3]
  00678	e3530000	 cmp         r3, #0
  0067c	da000002	 ble         |$LN9@I2C_Close|
  00680	e3a03001	 mov         r3, #1
  00684	e58d3018	 str         r3, [sp, #0x18]
  00688	ea000008	 b           |$LN10@I2C_Close|
  0068c		 |$LN9@I2C_Close|
  0068c	e3a03c01	 mov         r3, #1, 24
  00690	e3833006	 orr         r3, r3, #6
  00694	e59f2098	 ldr         r2, [pc, #0x98]
  00698	e59f1090	 ldr         r1, [pc, #0x90]
  0069c	e59f0088	 ldr         r0, [pc, #0x88]
  006a0	eb000000	 bl          NKDbgPrintfW
  006a4	e6000010	 __debugbreak_ce
  006a8	e3a03000	 mov         r3, #0
  006ac	e58d3018	 str         r3, [sp, #0x18]
  006b0		 |$LN10@I2C_Close|

; 263  : 
; 264  :     // Decrement number of open instances
; 265  :     InterlockedDecrement(&pDevice->instances);

  006b0	e59d3000	 ldr         r3, [sp]
  006b4	e2830008	 add         r0, r3, #8
  006b8	eb000000	 bl          InterlockedDecrement

; 266  : 
; 267  :     // Free instance structure
; 268  :     LocalFree(pInstance);

  006bc	e59d0008	 ldr         r0, [sp, #8]
  006c0	eb000000	 bl          LocalFree

; 269  : 
; 270  :     // Done...
; 271  :     rc = TRUE;

  006c4	e3a03001	 mov         r3, #1
  006c8	e58d3004	 str         r3, [sp, #4]
  006cc		 |$cleanUp$42905|

; 272  : 
; 273  : cleanUp:
; 274  :     DEBUGMSG(ZONE_I2C&&ZONE_FUNCTION, (L"-I2C_Close(rc = %d)\r\n", rc));

  006cc	e59f3054	 ldr         r3, [pc, #0x54]
  006d0	e5933440	 ldr         r3, [r3, #0x440]
  006d4	e3130a02	 tst         r3, #2, 20
  006d8	0a000009	 beq         |$LN11@I2C_Close|
  006dc	e59f3044	 ldr         r3, [pc, #0x44]
  006e0	e5933440	 ldr         r3, [r3, #0x440]
  006e4	e3130004	 tst         r3, #4
  006e8	0a000005	 beq         |$LN11@I2C_Close|
  006ec	e59d1004	 ldr         r1, [sp, #4]
  006f0	e59f002c	 ldr         r0, [pc, #0x2C]
  006f4	eb000000	 bl          NKDbgPrintfW
  006f8	e3a03001	 mov         r3, #1
  006fc	e58d301c	 str         r3, [sp, #0x1C]
  00700	ea000001	 b           |$LN12@I2C_Close|
  00704		 |$LN11@I2C_Close|
  00704	e3a03000	 mov         r3, #0
  00708	e58d301c	 str         r3, [sp, #0x1C]
  0070c		 |$LN12@I2C_Close|

; 275  :     return rc;

  0070c	e59d3004	 ldr         r3, [sp, #4]
  00710	e58d300c	 str         r3, [sp, #0xC]

; 276  : }

  00714	e59d000c	 ldr         r0, [sp, #0xC]
  00718	e28dd020	 add         sp, sp, #0x20
  0071c	e89d6000	 ldmia       sp, {sp, lr}
  00720	e12fff1e	 bx          lr
  00724		 |$LN16@I2C_Close|
  00724		 |$LN17@I2C_Close|
  00724	00000000	 DCD         |??_C@_1CM@GEIHCEIM@?$AA?9?$AAI?$AA2?$AAC?$AA_?$AAC?$AAl?$AAo?$AAs?$AAe?$AA?$CI?$AAr?$AAc?$AA?5?$AA?$DN?$AA?5?$AA?$CF?$AAd?$AA?$CJ?$AA?$AN?$AA?6?$AA?$AA@|
  00728		 |$LN18@I2C_Close|
  00728	00000000	 DCD         |dpCurSettings|
  0072c		 |$LN19@I2C_Close|
  0072c	00000000	 DCD         |??_C@_1FK@FNONLNGN@?$AA?$CF?$AAs?$AA?3?$AA?5?$AAD?$AAE?$AAB?$AAU?$AAG?$AAC?$AAH?$AAK?$AA?5?$AAf?$AAa?$AAi?$AAl?$AAe?$AAd?$AA?5?$AAi?$AAn?$AA?5?$AAf?$AAi?$AAl?$AAe?$AA?5?$AA?$CF?$AAs?$AA?5?$AAa@|
  00730		 |$LN20@I2C_Close|
  00730	00000000	 DCD         |??_C@_1BA@LEPJIIOK@?$AAU?$AAn?$AAk?$AAn?$AAo?$AAw?$AAn?$AA?$AA@|
  00734		 |$LN21@I2C_Close|
  00734	00000000	 DCD         |??_C@_1HO@KJBHMMKF@?$AAC?$AA?3?$AA?2?$AAW?$AAI?$AAN?$AAC?$AAE?$AA6?$AA0?$AA0?$AA?2?$AAP?$AAL?$AAA?$AAT?$AAF?$AAO?$AAR?$AAM?$AA?2?$AAC?$AAO?$AAM?$AAM?$AAO?$AAN?$AA?2?$AAS?$AAR?$AAC?$AA?2@|
  00738		 |$LN22@I2C_Close|
  00738	00000000	 DCD         |??_C@_1FM@HMFJNJCH@?$AAE?$AAR?$AAR?$AAO?$AAR?$AA?3?$AA?5?$AAI?$AA2?$AAC?$AA_?$AAC?$AAl?$AAo?$AAs?$AAe?$AA?3?$AA?5?$AAI?$AAn?$AAc?$AAo?$AAr?$AAr?$AAe?$AAc?$AAt?$AA?5?$AAc?$AAo?$AAn?$AAt@|
  0073c		 |$LN23@I2C_Close|
  0073c	69326349	 DCD         0x69326349
  00740		 |$LN24@I2C_Close|
  00740	00000000	 DCD         |??_C@_1CK@HBELKLFD@?$AA?$CL?$AAI?$AA2?$AAC?$AA_?$AAC?$AAl?$AAo?$AAs?$AAe?$AA?$CI?$AA0?$AAx?$AA?$CF?$AA0?$AA8?$AAx?$AA?$CJ?$AA?$AN?$AA?6?$AA?$AA@|
  00744		 |$M43181|

			 ENDP  ; |I2C_Close|

	EXPORT	|??_C@_1CE@HDCPBFIA@?$AA?9?$AAI?$AA2?$AAC?$AA_?$AAT?$AAr?$AAa?$AAn?$AAs?$AAa?$AAc?$AAt?$AA?$CI?$AA?$CJ?$AA?$AN?$AA?6?$AA?$AA@| [ DATA ] ; `string'
	EXPORT	|??_C@_1JM@HEGGIKGL@?$AA?$CK?$AA?$CK?$AA?$CK?$AAI?$AA2?$AAC?$AA?5?$AAE?$AAR?$AAR?$AAO?$AAR?$AA?3?$AA?5?$AAK?$AAe?$AAr?$AAn?$AAe?$AAl?$AAI?$AAo?$AAC?$AAo?$AAn?$AAt?$AAr?$AAo?$AAl?$AA?5?$AAr?$AAe@| [ DATA ] ; `string'
	EXPORT	|??_C@_1FK@LJPIAEHH@?$AAE?$AAR?$AAR?$AAO?$AAR?$AA?3?$AA?5?$AAI?$AA2?$AAC?$AA_?$AAR?$AAe?$AAa?$AAd?$AA?3?$AA?5?$AAI?$AAn?$AAc?$AAo?$AAr?$AAr?$AAe?$AAc?$AAt?$AA?5?$AAc?$AAo?$AAn?$AAt?$AAe@| [ DATA ] ; `string'
	EXPORT	|??_C@_1DO@HBEPOPAP@?$AA?$CL?$AAI?$AA2?$AAC?$AA_?$AAT?$AAr?$AAa?$AAn?$AAs?$AAa?$AAc?$AAt?$AA?$CI?$AA0?$AAx?$AA?$CF?$AA0?$AA8?$AAx?$AA?0?$AA?5?$AA0?$AAx?$AA?$CF?$AA0?$AA8?$AAx?$AA?$AN?$AA?6?$AA?$AA@| [ DATA ] ; `string'
	EXPORT	|I2C_Transact|
	IMPORT	|ReleaseMutex|
	IMPORT	|KernelIoControl|
	IMPORT	|WaitForSingleObject|

  00020			 AREA	 |.pdata|, PDATA
|$T43208| DCD	|$LN18@I2C_Transa|
	DCD	0x40008404

  00000			 AREA	 |.rdata|, DATA, READONLY
|??_C@_1CE@HDCPBFIA@?$AA?9?$AAI?$AA2?$AAC?$AA_?$AAT?$AAr?$AAa?$AAn?$AAs?$AAa?$AAc?$AAt?$AA?$CI?$AA?$CJ?$AA?$AN?$AA?6?$AA?$AA@| DCB "-"
	DCB	0x0, "I", 0x0, "2", 0x0, "C", 0x0, "_", 0x0, "T", 0x0, "r"
	DCB	0x0, "a", 0x0, "n", 0x0, "s", 0x0, "a", 0x0, "c", 0x0, "t"
	DCB	0x0, "(", 0x0, ")", 0x0, 0xd, 0x0, 0xa, 0x0, 0x0, 0x0 ; `string'

  00000			 AREA	 |.rdata|, DATA, READONLY
|??_C@_1JM@HEGGIKGL@?$AA?$CK?$AA?$CK?$AA?$CK?$AAI?$AA2?$AAC?$AA?5?$AAE?$AAR?$AAR?$AAO?$AAR?$AA?3?$AA?5?$AAK?$AAe?$AAr?$AAn?$AAe?$AAl?$AAI?$AAo?$AAC?$AAo?$AAn?$AAt?$AAr?$AAo?$AAl?$AA?5?$AAr?$AAe@| DCB "*"
	DCB	0x0, "*", 0x0, "*", 0x0, "I", 0x0, "2", 0x0, "C", 0x0, " "
	DCB	0x0, "E", 0x0, "R", 0x0, "R", 0x0, "O", 0x0, "R", 0x0, ":"
	DCB	0x0, " ", 0x0, "K", 0x0, "e", 0x0, "r", 0x0, "n", 0x0, "e"
	DCB	0x0, "l", 0x0, "I", 0x0, "o", 0x0, "C", 0x0, "o", 0x0, "n"
	DCB	0x0, "t", 0x0, "r", 0x0, "o", 0x0, "l", 0x0, " ", 0x0, "r"
	DCB	0x0, "e", 0x0, "t", 0x0, "u", 0x0, "r", 0x0, "n", 0x0, "e"
	DCB	0x0, "d", 0x0, " ", 0x0, "i", 0x0, "n", 0x0, "v", 0x0, "a"
	DCB	0x0, "l", 0x0, "i", 0x0, "d", 0x0, " ", 0x0, "I", 0x0, "2"
	DCB	0x0, "C", 0x0, " ", 0x0, "t", 0x0, "r", 0x0, "a", 0x0, "n"
	DCB	0x0, "s", 0x0, "a", 0x0, "c", 0x0, "t", 0x0, "i", 0x0, "o"
	DCB	0x0, "n", 0x0, " ", 0x0, "r", 0x0, "e", 0x0, "t", 0x0, "u"
	DCB	0x0, "r", 0x0, "n", 0x0, " ", 0x0, "s", 0x0, "i", 0x0, "z"
	DCB	0x0, "e", 0x0, ".", 0x0, 0xd, 0x0, 0xa, 0x0, 0x0, 0x0 ; `string'

  00000			 AREA	 |.rdata|, DATA, READONLY
|??_C@_1FK@LJPIAEHH@?$AAE?$AAR?$AAR?$AAO?$AAR?$AA?3?$AA?5?$AAI?$AA2?$AAC?$AA_?$AAR?$AAe?$AAa?$AAd?$AA?3?$AA?5?$AAI?$AAn?$AAc?$AAo?$AAr?$AAr?$AAe?$AAc?$AAt?$AA?5?$AAc?$AAo?$AAn?$AAt?$AAe@| DCB "E"
	DCB	0x0, "R", 0x0, "R", 0x0, "O", 0x0, "R", 0x0, ":", 0x0, " "
	DCB	0x0, "I", 0x0, "2", 0x0, "C", 0x0, "_", 0x0, "R", 0x0, "e"
	DCB	0x0, "a", 0x0, "d", 0x0, ":", 0x0, " ", 0x0, "I", 0x0, "n"
	DCB	0x0, "c", 0x0, "o", 0x0, "r", 0x0, "r", 0x0, "e", 0x0, "c"
	DCB	0x0, "t", 0x0, " ", 0x0, "c", 0x0, "o", 0x0, "n", 0x0, "t"
	DCB	0x0, "e", 0x0, "x", 0x0, "t", 0x0, " ", 0x0, "p", 0x0, "a"
	DCB	0x0, "r", 0x0, "a", 0x0, "m", 0x0, "e", 0x0, "r", 0x0, 0xd
	DCB	0x0, 0xa, 0x0, 0x0, 0x0			; `string'

  00000			 AREA	 |.rdata|, DATA, READONLY
|??_C@_1DO@HBEPOPAP@?$AA?$CL?$AAI?$AA2?$AAC?$AA_?$AAT?$AAr?$AAa?$AAn?$AAs?$AAa?$AAc?$AAt?$AA?$CI?$AA0?$AAx?$AA?$CF?$AA0?$AA8?$AAx?$AA?0?$AA?5?$AA0?$AAx?$AA?$CF?$AA0?$AA8?$AAx?$AA?$AN?$AA?6?$AA?$AA@| DCB "+"
	DCB	0x0, "I", 0x0, "2", 0x0, "C", 0x0, "_", 0x0, "T", 0x0, "r"
	DCB	0x0, "a", 0x0, "n", 0x0, "s", 0x0, "a", 0x0, "c", 0x0, "t"
	DCB	0x0, "(", 0x0, "0", 0x0, "x", 0x0, "%", 0x0, "0", 0x0, "8"
	DCB	0x0, "x", 0x0, ",", 0x0, " ", 0x0, "0", 0x0, "x", 0x0, "%"
	DCB	0x0, "0", 0x0, "8", 0x0, "x", 0x0, 0xd, 0x0, 0xa, 0x0, 0x0
	DCB	0x0					; `string'
; Function compile flags: /Odtp

  00744			 AREA	 |.text|, CODE, ARM

  00744		 |I2C_Transact| PROC

; 284  : {

  00744		 |$LN18@I2C_Transa|
  00744	e1a0c00d	 mov         r12, sp
  00748	e92d0003	 stmdb       sp!, {r0, r1}
  0074c	e92d5000	 stmdb       sp!, {r12, lr}
  00750	e24dd040	 sub         sp, sp, #0x40
  00754		 |$M43205|

; 285  :     I2C_DEVICE *pDevice;
; 286  :     I2C_INSTANCE *pInstance = (I2C_INSTANCE*)context;

  00754	e59d3048	 ldr         r3, [sp, #0x48]
  00758	e58d301c	 str         r3, [sp, #0x1C]

; 287  :     BOOL rc = FALSE;

  0075c	e3a03000	 mov         r3, #0
  00760	e58d300c	 str         r3, [sp, #0xC]

; 288  :     DWORD dwKernelRet;
; 289  :     DWORD dwParam[2];
; 290  : 
; 291  :     DEBUGMSG(ZONE_I2C&&ZONE_FUNCTION, (
; 292  :         L"+I2C_Transact(0x%08x, 0x%08x\r\n", context, pTrans
; 293  :         ));

  00764	e59f31d0	 ldr         r3, [pc, #0x1D0]
  00768	e5933440	 ldr         r3, [r3, #0x440]
  0076c	e3130a02	 tst         r3, #2, 20
  00770	0a00000a	 beq         |$LN8@I2C_Transa|
  00774	e59f31c0	 ldr         r3, [pc, #0x1C0]
  00778	e5933440	 ldr         r3, [r3, #0x440]
  0077c	e3130004	 tst         r3, #4
  00780	0a000006	 beq         |$LN8@I2C_Transa|
  00784	e59d204c	 ldr         r2, [sp, #0x4C]
  00788	e59d1048	 ldr         r1, [sp, #0x48]
  0078c	e59f01bc	 ldr         r0, [pc, #0x1BC]
  00790	eb000000	 bl          NKDbgPrintfW
  00794	e3a03001	 mov         r3, #1
  00798	e58d302c	 str         r3, [sp, #0x2C]
  0079c	ea000001	 b           |$LN9@I2C_Transa|
  007a0		 |$LN8@I2C_Transa|
  007a0	e3a03000	 mov         r3, #0
  007a4	e58d302c	 str         r3, [sp, #0x2C]
  007a8		 |$LN9@I2C_Transa|

; 294  : 
; 295  :     // Check if we get correct context
; 296  :     if (pInstance == NULL || pInstance->cookie != I2C_INSTANCE_COOKIE)

  007a8	e59d301c	 ldr         r3, [sp, #0x1C]
  007ac	e3530000	 cmp         r3, #0
  007b0	0a000004	 beq         |$LN4@I2C_Transa|
  007b4	e59d301c	 ldr         r3, [sp, #0x1C]
  007b8	e5932000	 ldr         r2, [r3]
  007bc	e59f3188	 ldr         r3, [pc, #0x188]
  007c0	e1520003	 cmp         r2, r3
  007c4	0a00000b	 beq         |$LN5@I2C_Transa|
  007c8		 |$LN4@I2C_Transa|

; 297  :     {
; 298  :         DEBUGMSG (ZONE_ERROR, (L"ERROR: I2C_Read: "
; 299  :             L"Incorrect context paramer\r\n"));

  007c8	e59f316c	 ldr         r3, [pc, #0x16C]
  007cc	e5933440	 ldr         r3, [r3, #0x440]
  007d0	e3130001	 tst         r3, #1
  007d4	0a000004	 beq         |$LN10@I2C_Transa|
  007d8	e59f0168	 ldr         r0, [pc, #0x168]
  007dc	eb000000	 bl          NKDbgPrintfW
  007e0	e3a03001	 mov         r3, #1
  007e4	e58d3030	 str         r3, [sp, #0x30]
  007e8	ea000001	 b           |$LN11@I2C_Transa|
  007ec		 |$LN10@I2C_Transa|
  007ec	e3a03000	 mov         r3, #0
  007f0	e58d3030	 str         r3, [sp, #0x30]
  007f4		 |$LN11@I2C_Transa|

; 300  :         goto clean;

  007f4	ea00003a	 b           |$clean$42929|
  007f8		 |$LN5@I2C_Transa|

; 301  :     }
; 302  : 
; 303  :     pDevice = pInstance->pDevice;

  007f8	e59d301c	 ldr         r3, [sp, #0x1C]
  007fc	e2833004	 add         r3, r3, #4
  00800	e5933000	 ldr         r3, [r3]
  00804	e58d3008	 str         r3, [sp, #8]

; 304  : 
; 305  :     WaitForSingleObject(pDevice->hMutex,INFINITE);

  00808	e3e01000	 mvn         r1, #0
  0080c	e59d3008	 ldr         r3, [sp, #8]
  00810	e283300c	 add         r3, r3, #0xC
  00814	e5930000	 ldr         r0, [r3]
  00818	eb000000	 bl          WaitForSingleObject

; 306  : 
; 307  :     /* ok. we are the only ones doing a transaction with the kernel now 
; 308  :        besides the kernel itself */
; 309  :     dwParam[0] = pInstance->address;

  0081c	e59d301c	 ldr         r3, [sp, #0x1C]
  00820	e283300c	 add         r3, r3, #0xC
  00824	e5933000	 ldr         r3, [r3]
  00828	e58d3014	 str         r3, [sp, #0x14]

; 310  :     dwParam[1] = pInstance->addrSize;

  0082c	e59d301c	 ldr         r3, [sp, #0x1C]
  00830	e2833008	 add         r3, r3, #8
  00834	e5933000	 ldr         r3, [r3]
  00838	e58d3018	 str         r3, [sp, #0x18]

; 311  :     dwKernelRet = 0;

  0083c	e3a03000	 mov         r3, #0
  00840	e58d3010	 str         r3, [sp, #0x10]

; 312  :     if (!KernelIoControl(IOCTL_KERNELI2C_SUBMIT,
; 313  :                          &dwParam,
; 314  :                          sizeof(DWORD)*2,
; 315  :                          pTrans,
; 316  :                          sizeof(I2CTRANS),
; 317  :                          &dwKernelRet))

  00844	e28d3010	 add         r3, sp, #0x10
  00848	e58d3004	 str         r3, [sp, #4]
  0084c	e3a03e17	 mov         r3, #0x17, 28
  00850	e58d3000	 str         r3, [sp]
  00854	e59d304c	 ldr         r3, [sp, #0x4C]
  00858	e3a02008	 mov         r2, #8
  0085c	e28d1014	 add         r1, sp, #0x14
  00860	e59f00dc	 ldr         r0, [pc, #0xDC]
  00864	eb000000	 bl          KernelIoControl
  00868	e58d0034	 str         r0, [sp, #0x34]
  0086c	e59d3034	 ldr         r3, [sp, #0x34]
  00870	e3530000	 cmp         r3, #0
  00874	1a000001	 bne         |$LN3@I2C_Transa|

; 318  :         dwKernelRet = 0;

  00878	e3a03000	 mov         r3, #0
  0087c	e58d3010	 str         r3, [sp, #0x10]
  00880		 |$LN3@I2C_Transa|

; 319  :     if (dwKernelRet)

  00880	e59d3010	 ldr         r3, [sp, #0x10]
  00884	e3530000	 cmp         r3, #0
  00888	0a000002	 beq         |$LN2@I2C_Transa|

; 320  :     {
; 321  :         /* dwKernelRet holds the size of the data that came back! */
; 322  :         rc = TRUE;

  0088c	e3a03001	 mov         r3, #1
  00890	e58d300c	 str         r3, [sp, #0xC]

; 323  :     }
; 324  :     else

  00894	ea00000e	 b           |$LN1@I2C_Transa|
  00898		 |$LN2@I2C_Transa|

; 325  :     {
; 326  :         DEBUGMSG(ZONE_ERROR, (L"***I2C ERROR: "
; 327  :             L"KernelIoControl returned invalid I2C transaction return size.\r\n"));

  00898	e59f309c	 ldr         r3, [pc, #0x9C]
  0089c	e5933440	 ldr         r3, [r3, #0x440]
  008a0	e3130001	 tst         r3, #1
  008a4	0a000004	 beq         |$LN12@I2C_Transa|
  008a8	e59f0090	 ldr         r0, [pc, #0x90]
  008ac	eb000000	 bl          NKDbgPrintfW
  008b0	e3a03001	 mov         r3, #1
  008b4	e58d3038	 str         r3, [sp, #0x38]
  008b8	ea000001	 b           |$LN13@I2C_Transa|
  008bc		 |$LN12@I2C_Transa|
  008bc	e3a03000	 mov         r3, #0
  008c0	e58d3038	 str         r3, [sp, #0x38]
  008c4		 |$LN13@I2C_Transa|

; 328  :         pTrans->mErrorCode = (DWORD)-1;

  008c4	e59d304c	 ldr         r3, [sp, #0x4C]
  008c8	e283206c	 add         r2, r3, #0x6C
  008cc	e3e03000	 mvn         r3, #0
  008d0	e5823000	 str         r3, [r2]
  008d4		 |$LN1@I2C_Transa|

; 329  :     }
; 330  : 
; 331  :     ReleaseMutex(pDevice->hMutex);

  008d4	e59d3008	 ldr         r3, [sp, #8]
  008d8	e283300c	 add         r3, r3, #0xC
  008dc	e5930000	 ldr         r0, [r3]
  008e0	eb000000	 bl          ReleaseMutex
  008e4		 |$clean$42929|

; 332  : 
; 333  : clean:
; 334  :     DEBUGMSG(ZONE_I2C&&ZONE_FUNCTION, (L"-I2C_Transact()\r\n"));

  008e4	e59f3050	 ldr         r3, [pc, #0x50]
  008e8	e5933440	 ldr         r3, [r3, #0x440]
  008ec	e3130a02	 tst         r3, #2, 20
  008f0	0a000008	 beq         |$LN14@I2C_Transa|
  008f4	e59f3040	 ldr         r3, [pc, #0x40]
  008f8	e5933440	 ldr         r3, [r3, #0x440]
  008fc	e3130004	 tst         r3, #4
  00900	0a000004	 beq         |$LN14@I2C_Transa|
  00904	e59f002c	 ldr         r0, [pc, #0x2C]
  00908	eb000000	 bl          NKDbgPrintfW
  0090c	e3a03001	 mov         r3, #1
  00910	e58d303c	 str         r3, [sp, #0x3C]
  00914	ea000001	 b           |$LN15@I2C_Transa|
  00918		 |$LN14@I2C_Transa|
  00918	e3a03000	 mov         r3, #0
  0091c	e58d303c	 str         r3, [sp, #0x3C]
  00920		 |$LN15@I2C_Transa|

; 335  :     return rc;

  00920	e59d300c	 ldr         r3, [sp, #0xC]
  00924	e58d3028	 str         r3, [sp, #0x28]

; 336  : }

  00928	e59d0028	 ldr         r0, [sp, #0x28]
  0092c	e28dd040	 add         sp, sp, #0x40
  00930	e89d6000	 ldmia       sp, {sp, lr}
  00934	e12fff1e	 bx          lr
  00938		 |$LN19@I2C_Transa|
  00938		 |$LN20@I2C_Transa|
  00938	00000000	 DCD         |??_C@_1CE@HDCPBFIA@?$AA?9?$AAI?$AA2?$AAC?$AA_?$AAT?$AAr?$AAa?$AAn?$AAs?$AAa?$AAc?$AAt?$AA?$CI?$AA?$CJ?$AA?$AN?$AA?6?$AA?$AA@|
  0093c		 |$LN21@I2C_Transa|
  0093c	00000000	 DCD         |dpCurSettings|
  00940		 |$LN22@I2C_Transa|
  00940	00000000	 DCD         |??_C@_1JM@HEGGIKGL@?$AA?$CK?$AA?$CK?$AA?$CK?$AAI?$AA2?$AAC?$AA?5?$AAE?$AAR?$AAR?$AAO?$AAR?$AA?3?$AA?5?$AAK?$AAe?$AAr?$AAn?$AAe?$AAl?$AAI?$AAo?$AAC?$AAo?$AAn?$AAt?$AAr?$AAo?$AAl?$AA?5?$AAr?$AAe@|
  00944		 |$LN23@I2C_Transa|
  00944	00220408	 DCD         0x220408
  00948		 |$LN24@I2C_Transa|
  00948	00000000	 DCD         |??_C@_1FK@LJPIAEHH@?$AAE?$AAR?$AAR?$AAO?$AAR?$AA?3?$AA?5?$AAI?$AA2?$AAC?$AA_?$AAR?$AAe?$AAa?$AAd?$AA?3?$AA?5?$AAI?$AAn?$AAc?$AAo?$AAr?$AAr?$AAe?$AAc?$AAt?$AA?5?$AAc?$AAo?$AAn?$AAt?$AAe@|
  0094c		 |$LN25@I2C_Transa|
  0094c	69326349	 DCD         0x69326349
  00950		 |$LN26@I2C_Transa|
  00950	00000000	 DCD         |??_C@_1DO@HBEPOPAP@?$AA?$CL?$AAI?$AA2?$AAC?$AA_?$AAT?$AAr?$AAa?$AAn?$AAs?$AAa?$AAc?$AAt?$AA?$CI?$AA0?$AAx?$AA?$CF?$AA0?$AA8?$AAx?$AA?0?$AA?5?$AA0?$AAx?$AA?$CF?$AA0?$AA8?$AAx?$AA?$AN?$AA?6?$AA?$AA@|
  00954		 |$M43206|

			 ENDP  ; |I2C_Transact|

	EXPORT	|I2C_Read|
	IMPORT	|SetLastError|

  00028			 AREA	 |.pdata|, PDATA
|$T43222| DCD	|$LN5@I2C_Read|
	DCD	0x40000c04
; Function compile flags: /Odtp

  00954			 AREA	 |.text|, CODE, ARM

  00954		 |I2C_Read| PROC

; 339  : {

  00954		 |$LN5@I2C_Read|
  00954	e1a0c00d	 mov         r12, sp
  00958	e92d0007	 stmdb       sp!, {r0 - r2}
  0095c	e92d5000	 stmdb       sp!, {r12, lr}
  00960	e24dd004	 sub         sp, sp, #4
  00964		 |$M43219|

; 340  :     SetLastError(-1);

  00964	e3e00000	 mvn         r0, #0
  00968	eb000000	 bl          SetLastError

; 341  :     return (DWORD)-1;

  0096c	e3e03000	 mvn         r3, #0
  00970	e58d3000	 str         r3, [sp]

; 342  : }

  00974	e59d0000	 ldr         r0, [sp]
  00978	e28dd004	 add         sp, sp, #4
  0097c	e89d6000	 ldmia       sp, {sp, lr}
  00980	e12fff1e	 bx          lr
  00984		 |$M43220|

			 ENDP  ; |I2C_Read|

	EXPORT	|I2C_Write|

  00030			 AREA	 |.pdata|, PDATA
|$T43228| DCD	|$LN5@I2C_Write|
	DCD	0x40000c04
; Function compile flags: /Odtp

  00984			 AREA	 |.text|, CODE, ARM

  00984		 |I2C_Write| PROC

; 345  : {

  00984		 |$LN5@I2C_Write|
  00984	e1a0c00d	 mov         r12, sp
  00988	e92d0007	 stmdb       sp!, {r0 - r2}
  0098c	e92d5000	 stmdb       sp!, {r12, lr}
  00990	e24dd004	 sub         sp, sp, #4
  00994		 |$M43225|

; 346  :     SetLastError(-1);

  00994	e3e00000	 mvn         r0, #0
  00998	eb000000	 bl          SetLastError

; 347  :     return (DWORD)-1;

  0099c	e3e03000	 mvn         r3, #0
  009a0	e58d3000	 str         r3, [sp]

; 348  : }

  009a4	e59d0000	 ldr         r0, [sp]
  009a8	e28dd004	 add         sp, sp, #4
  009ac	e89d6000	 ldmia       sp, {sp, lr}
  009b0	e12fff1e	 bx          lr
  009b4		 |$M43226|

			 ENDP  ; |I2C_Write|

	EXPORT	|I2C_SetSlaveAddress|
	EXPORT	|??_C@_1OG@IFNLBGDC@?$AAE?$AAR?$AAR?$AAO?$AAR?$AA?3?$AA?5?$AAI?$AA2?$AAC?$AA_?$AAI?$AAO?$AAC?$AAo?$AAn?$AAt?$AAr?$AAo?$AAl?$AA?3?$AA?5?$AAI?$AAO?$AAC?$AAT?$AAL?$AA_?$AAD?$AAD?$AAK?$AA_@| [ DATA ] ; `string'
	EXPORT	|GetCurrentProcessId|
	EXPORT	|??_C@_1GE@FGJBHNAO@?$AAE?$AAR?$AAR?$AAO?$AAR?$AA?3?$AA?5?$AAI?$AA2?$AAC?$AA_?$AAI?$AAO?$AAC?$AAo?$AAn?$AAt?$AAr?$AAo?$AAl?$AA?3?$AA?5?$AAI?$AAn?$AAc?$AAo?$AAr?$AAr?$AAe?$AAc?$AAt?$AA?5@| [ DATA ] ; `string'
	EXPORT	|??_C@_1IC@CBOLJLFH@?$AA?$CL?$AAI?$AA2?$AAC?$AA_?$AAI?$AAO?$AAC?$AAo?$AAn?$AAt?$AAr?$AAo?$AAl?$AA?$CI?$AA0?$AAx?$AA?$CF?$AA0?$AA8?$AAx?$AA?0?$AA?5?$AA0?$AAx?$AA?$CF?$AA0?$AA8?$AAx?$AA?0?$AA?5?$AA0@| [ DATA ] ; `string'
	EXPORT	|I2C_IOControl|
	IMPORT	|CeSafeCopyMemory|
	IMPORT	|memcmp|
	IMPORT	|GetCallerProcess|

  00038			 AREA	 |.pdata|, PDATA
|$T43244| DCD	|$LN32@I2C_IOCont|
	DCD	0x4000dc04

  00000			 AREA	 |.rdata|, DATA, READONLY
|??_C@_1OG@IFNLBGDC@?$AAE?$AAR?$AAR?$AAO?$AAR?$AA?3?$AA?5?$AAI?$AA2?$AAC?$AA_?$AAI?$AAO?$AAC?$AAo?$AAn?$AAt?$AAr?$AAo?$AAl?$AA?3?$AA?5?$AAI?$AAO?$AAC?$AAT?$AAL?$AA_?$AAD?$AAD?$AAK?$AA_@| DCB "E"
	DCB	0x0, "R", 0x0, "R", 0x0, "O", 0x0, "R", 0x0, ":", 0x0, " "
	DCB	0x0, "I", 0x0, "2", 0x0, "C", 0x0, "_", 0x0, "I", 0x0, "O"
	DCB	0x0, "C", 0x0, "o", 0x0, "n", 0x0, "t", 0x0, "r", 0x0, "o"
	DCB	0x0, "l", 0x0, ":", 0x0, " ", 0x0, "I", 0x0, "O", 0x0, "C"
	DCB	0x0, "T", 0x0, "L", 0x0, "_", 0x0, "D", 0x0, "D", 0x0, "K"
	DCB	0x0, "_", 0x0, "G", 0x0, "E", 0x0, "T", 0x0, "_", 0x0, "D"
	DCB	0x0, "R", 0x0, "I", 0x0, "V", 0x0, "E", 0x0, "R", 0x0, "_"
	DCB	0x0, "I", 0x0, "F", 0x0, "C", 0x0, " ", 0x0, "c", 0x0, "a"
	DCB	0x0, "n", 0x0, " ", 0x0, "b", 0x0, "e", 0x0, " ", 0x0, "c"
	DCB	0x0, "a", 0x0, "l", 0x0, "l", 0x0, "e", 0x0, "d", 0x0, " "
	DCB	0x0, "o", 0x0, "n", 0x0, "l", 0x0, "y", 0x0, " ", 0x0, "f"
	DCB	0x0, "r", 0x0, "o", 0x0, "m", 0x0, " ", 0x0, "d", 0x0, "e"
	DCB	0x0, "v", 0x0, "i", 0x0, "c", 0x0, "e", 0x0, " ", 0x0, "p"
	DCB	0x0, "r", 0x0, "o", 0x0, "c", 0x0, "e", 0x0, "s", 0x0, "s"
	DCB	0x0, " ", 0x0, "(", 0x0, "c", 0x0, "a", 0x0, "l", 0x0, "l"
	DCB	0x0, "e", 0x0, "r", 0x0, " ", 0x0, "p", 0x0, "r", 0x0, "o"
	DCB	0x0, "c", 0x0, "e", 0x0, "s", 0x0, "s", 0x0, " ", 0x0, "i"
	DCB	0x0, "d", 0x0, " ", 0x0, "0", 0x0, "x", 0x0, "%", 0x0, "0"
	DCB	0x0, "8", 0x0, "x", 0x0, ")", 0x0, 0xd, 0x0, 0xa, 0x0, 0x0
	DCB	0x0					; `string'

  00000			 AREA	 |.rdata|, DATA, READONLY
|??_C@_1GE@FGJBHNAO@?$AAE?$AAR?$AAR?$AAO?$AAR?$AA?3?$AA?5?$AAI?$AA2?$AAC?$AA_?$AAI?$AAO?$AAC?$AAo?$AAn?$AAt?$AAr?$AAo?$AAl?$AA?3?$AA?5?$AAI?$AAn?$AAc?$AAo?$AAr?$AAr?$AAe?$AAc?$AAt?$AA?5@| DCB "E"
	DCB	0x0, "R", 0x0, "R", 0x0, "O", 0x0, "R", 0x0, ":", 0x0, " "
	DCB	0x0, "I", 0x0, "2", 0x0, "C", 0x0, "_", 0x0, "I", 0x0, "O"
	DCB	0x0, "C", 0x0, "o", 0x0, "n", 0x0, "t", 0x0, "r", 0x0, "o"
	DCB	0x0, "l", 0x0, ":", 0x0, " ", 0x0, "I", 0x0, "n", 0x0, "c"
	DCB	0x0, "o", 0x0, "r", 0x0, "r", 0x0, "e", 0x0, "c", 0x0, "t"
	DCB	0x0, " ", 0x0, "c", 0x0, "o", 0x0, "n", 0x0, "t", 0x0, "e"
	DCB	0x0, "x", 0x0, "t", 0x0, " ", 0x0, "p", 0x0, "a", 0x0, "r"
	DCB	0x0, "a", 0x0, "m", 0x0, "e", 0x0, "r", 0x0, 0xd, 0x0, 0xa
	DCB	0x0, 0x0, 0x0				; `string'

  00000			 AREA	 |.rdata|, DATA, READONLY
|??_C@_1IC@CBOLJLFH@?$AA?$CL?$AAI?$AA2?$AAC?$AA_?$AAI?$AAO?$AAC?$AAo?$AAn?$AAt?$AAr?$AAo?$AAl?$AA?$CI?$AA0?$AAx?$AA?$CF?$AA0?$AA8?$AAx?$AA?0?$AA?5?$AA0?$AAx?$AA?$CF?$AA0?$AA8?$AAx?$AA?0?$AA?5?$AA0@| DCB "+"
	DCB	0x0, "I", 0x0, "2", 0x0, "C", 0x0, "_", 0x0, "I", 0x0, "O"
	DCB	0x0, "C", 0x0, "o", 0x0, "n", 0x0, "t", 0x0, "r", 0x0, "o"
	DCB	0x0, "l", 0x0, "(", 0x0, "0", 0x0, "x", 0x0, "%", 0x0, "0"
	DCB	0x0, "8", 0x0, "x", 0x0, ",", 0x0, " ", 0x0, "0", 0x0, "x"
	DCB	0x0, "%", 0x0, "0", 0x0, "8", 0x0, "x", 0x0, ",", 0x0, " "
	DCB	0x0, "0", 0x0, "x", 0x0, "%", 0x0, "0", 0x0, "8", 0x0, "x"
	DCB	0x0, ",", 0x0, " ", 0x0, "%", 0x0, "d", 0x0, ",", 0x0, " "
	DCB	0x0, "0", 0x0, "x", 0x0, "%", 0x0, "0", 0x0, "8", 0x0, "x"
	DCB	0x0, ",", 0x0, " ", 0x0, "%", 0x0, "d", 0x0, ",", 0x0, " "
	DCB	0x0, "0", 0x0, "x", 0x0, "%", 0x0, "0", 0x0, "8", 0x0, "x"
	DCB	0x0, ")", 0x0, 0xd, 0x0, 0xa, 0x0, 0x0, 0x0 ; `string'
; Function compile flags: /Odtp

  009b4			 AREA	 |.text|, CODE, ARM

  009b4		 |I2C_IOControl| PROC

; 359  : ) {

  009b4		 |$LN32@I2C_IOCont|
  009b4	e1a0c00d	 mov         r12, sp
  009b8	e92d000f	 stmdb       sp!, {r0 - r3}
  009bc	e92d5000	 stmdb       sp!, {r12, lr}
  009c0	e24dd070	 sub         sp, sp, #0x70
  009c4		 |$M43241|

; 360  :     BOOL bRetVal = FALSE;

  009c4	e3a03000	 mov         r3, #0
  009c8	e58d3020	 str         r3, [sp, #0x20]

; 361  :     I2C_DEVICE *pDevice = NULL;

  009cc	e3a03000	 mov         r3, #0
  009d0	e58d3010	 str         r3, [sp, #0x10]

; 362  :     I2C_INSTANCE *pInstance = (I2C_INSTANCE*)context;

  009d4	e59d3078	 ldr         r3, [sp, #0x78]
  009d8	e58d3014	 str         r3, [sp, #0x14]

; 363  :     DEVICE_IFC_I2C ifc;
; 364  :     I2C_SET_SLAVE_ADDRESS *pAddress;
; 365  :     I2CTRANS *pTrans;
; 366  : 
; 367  :     DEBUGMSG(ZONE_I2C&&ZONE_FUNCTION, (
; 368  :         L"+I2C_IOControl(0x%08x, 0x%08x, 0x%08x, %d, 0x%08x, %d, 0x%08x)\r\n",
; 369  :         context, dwCode, pInBuffer, inSize, pOutBuffer, outSize, pOutSize
; 370  :     ));

  009dc	e59f332c	 ldr         r3, [pc, #0x32C]
  009e0	e5933440	 ldr         r3, [r3, #0x440]
  009e4	e3130a02	 tst         r3, #2, 20
  009e8	0a000013	 beq         |$LN24@I2C_IOCont|
  009ec	e59f331c	 ldr         r3, [pc, #0x31C]
  009f0	e5933440	 ldr         r3, [r3, #0x440]
  009f4	e3130004	 tst         r3, #4
  009f8	0a00000f	 beq         |$LN24@I2C_IOCont|
  009fc	e59d3090	 ldr         r3, [sp, #0x90]
  00a00	e58d300c	 str         r3, [sp, #0xC]
  00a04	e59d308c	 ldr         r3, [sp, #0x8C]
  00a08	e58d3008	 str         r3, [sp, #8]
  00a0c	e59d3088	 ldr         r3, [sp, #0x88]
  00a10	e58d3004	 str         r3, [sp, #4]
  00a14	e59d3084	 ldr         r3, [sp, #0x84]
  00a18	e58d3000	 str         r3, [sp]
  00a1c	e59d3080	 ldr         r3, [sp, #0x80]
  00a20	e59d207c	 ldr         r2, [sp, #0x7C]
  00a24	e59d1078	 ldr         r1, [sp, #0x78]
  00a28	e59f02f0	 ldr         r0, [pc, #0x2F0]
  00a2c	eb000000	 bl          NKDbgPrintfW
  00a30	e3a03001	 mov         r3, #1
  00a34	e58d3044	 str         r3, [sp, #0x44]
  00a38	ea000001	 b           |$LN25@I2C_IOCont|
  00a3c		 |$LN24@I2C_IOCont|
  00a3c	e3a03000	 mov         r3, #0
  00a40	e58d3044	 str         r3, [sp, #0x44]
  00a44		 |$LN25@I2C_IOCont|

; 371  : 
; 372  :     // Check if we get correct context
; 373  :     if (pInstance == NULL || pInstance->cookie != I2C_INSTANCE_COOKIE)

  00a44	e59d3014	 ldr         r3, [sp, #0x14]
  00a48	e3530000	 cmp         r3, #0
  00a4c	0a000004	 beq         |$LN20@I2C_IOCont|
  00a50	e59d3014	 ldr         r3, [sp, #0x14]
  00a54	e5932000	 ldr         r2, [r3]
  00a58	e59f32bc	 ldr         r3, [pc, #0x2BC]
  00a5c	e1520003	 cmp         r2, r3
  00a60	0a00000b	 beq         |$LN21@I2C_IOCont|
  00a64		 |$LN20@I2C_IOCont|

; 374  :     {
; 375  :         DEBUGMSG(ZONE_ERROR, (L"ERROR: I2C_IOControl: "
; 376  :             L"Incorrect context paramer\r\n" ));

  00a64	e59f32a4	 ldr         r3, [pc, #0x2A4]
  00a68	e5933440	 ldr         r3, [r3, #0x440]
  00a6c	e3130001	 tst         r3, #1
  00a70	0a000004	 beq         |$LN26@I2C_IOCont|
  00a74	e59f029c	 ldr         r0, [pc, #0x29C]
  00a78	eb000000	 bl          NKDbgPrintfW
  00a7c	e3a03001	 mov         r3, #1
  00a80	e58d3048	 str         r3, [sp, #0x48]
  00a84	ea000001	 b           |$LN27@I2C_IOCont|
  00a88		 |$LN26@I2C_IOCont|
  00a88	e3a03000	 mov         r3, #0
  00a8c	e58d3048	 str         r3, [sp, #0x48]
  00a90		 |$LN27@I2C_IOCont|

; 377  :         goto clean;

  00a90	ea000094	 b           |$clean$42989|
  00a94		 |$LN21@I2C_IOCont|

; 378  :     }
; 379  : 
; 380  :     //Get Device
; 381  :     pDevice = pInstance->pDevice;

  00a94	e59d3014	 ldr         r3, [sp, #0x14]
  00a98	e2833004	 add         r3, r3, #4
  00a9c	e5933000	 ldr         r3, [r3]
  00aa0	e58d3010	 str         r3, [sp, #0x10]

; 382  : 
; 383  :     switch (dwCode) {

  00aa4	e59d307c	 ldr         r3, [sp, #0x7C]
  00aa8	e58d304c	 str         r3, [sp, #0x4C]
  00aac	e59d204c	 ldr         r2, [sp, #0x4C]
  00ab0	e3a03822	 mov         r3, #0x22, 16
  00ab4	e3833b01	 orr         r3, r3, #1, 22
  00ab8	e1520003	 cmp         r2, r3
  00abc	0a000009	 beq         |$LN17@I2C_IOCont|
  00ac0	e59d204c	 ldr         r2, [sp, #0x4C]
  00ac4	e3a03822	 mov         r3, #0x22, 16
  00ac8	e3833b02	 orr         r3, r3, #2, 22
  00acc	e1520003	 cmp         r2, r3
  00ad0	0a000054	 beq         |$LN8@I2C_IOCont|
  00ad4	e59d204c	 ldr         r2, [sp, #0x4C]
  00ad8	e59f3234	 ldr         r3, [pc, #0x234]
  00adc	e1520003	 cmp         r2, r3
  00ae0	0a00006c	 beq         |$LN4@I2C_IOCont|
  00ae4	ea00007f	 b           |$LN1@I2C_IOCont|
  00ae8		 |$LN17@I2C_IOCont|

; 384  :     case IOCTL_DDK_GET_DRIVER_IFC:
; 385  :         // We can give interface only to our peer in device process
; 386  :         if (GetCurrentProcessId() != (DWORD)GetCallerProcess()) {

  00ae8	eb000000	 bl          GetCurrentProcessId
  00aec	e58d0050	 str         r0, [sp, #0x50]
  00af0	eb000000	 bl          GetCallerProcess
  00af4	e58d0054	 str         r0, [sp, #0x54]
  00af8	e59d2050	 ldr         r2, [sp, #0x50]
  00afc	e59d3054	 ldr         r3, [sp, #0x54]
  00b00	e1520003	 cmp         r2, r3
  00b04	0a000010	 beq         |$LN16@I2C_IOCont|

; 387  :             DEBUGMSG(ZONE_ERROR, (L"ERROR: I2C_IOControl: "
; 388  :                 L"IOCTL_DDK_GET_DRIVER_IFC can be called only from "
; 389  :                 L"device process (caller process id 0x%08x)\r\n",
; 390  :                 GetCallerProcess()
; 391  :             ));

  00b08	e59f3200	 ldr         r3, [pc, #0x200]
  00b0c	e5933440	 ldr         r3, [r3, #0x440]
  00b10	e3130001	 tst         r3, #1
  00b14	0a000007	 beq         |$LN28@I2C_IOCont|
  00b18	eb000000	 bl          GetCallerProcess
  00b1c	e58d0058	 str         r0, [sp, #0x58]
  00b20	e59d1058	 ldr         r1, [sp, #0x58]
  00b24	e59f01e0	 ldr         r0, [pc, #0x1E0]
  00b28	eb000000	 bl          NKDbgPrintfW
  00b2c	e3a03001	 mov         r3, #1
  00b30	e58d305c	 str         r3, [sp, #0x5C]
  00b34	ea000001	 b           |$LN29@I2C_IOCont|
  00b38		 |$LN28@I2C_IOCont|
  00b38	e3a03000	 mov         r3, #0
  00b3c	e58d305c	 str         r3, [sp, #0x5C]
  00b40		 |$LN29@I2C_IOCont|

; 392  :             SetLastError(ERROR_ACCESS_DENIED);

  00b40	e3a00005	 mov         r0, #5
  00b44	eb000000	 bl          SetLastError

; 393  :             goto clean;

  00b48	ea000066	 b           |$clean$42989|
  00b4c		 |$LN16@I2C_IOCont|

; 394  :         }
; 395  :         // Check input parameters
; 396  :         if (pInBuffer == NULL || inSize < sizeof(GUID)) {

  00b4c	e59d3080	 ldr         r3, [sp, #0x80]
  00b50	e3530000	 cmp         r3, #0
  00b54	0a000002	 beq         |$LN14@I2C_IOCont|
  00b58	e59d3084	 ldr         r3, [sp, #0x84]
  00b5c	e3530010	 cmp         r3, #0x10
  00b60	2a000002	 bcs         |$LN15@I2C_IOCont|
  00b64		 |$LN14@I2C_IOCont|

; 397  :             SetLastError(ERROR_INVALID_PARAMETER);

  00b64	e3a00057	 mov         r0, #0x57
  00b68	eb000000	 bl          SetLastError

; 398  :             break;

  00b6c	ea00005d	 b           |$LN18@I2C_IOCont|
  00b70		 |$LN15@I2C_IOCont|

; 399  :         }
; 400  :         if (IsEqualGUID(pInBuffer, &DEVICE_IFC_I2C_GUID)) {

  00b70	e3a02010	 mov         r2, #0x10
  00b74	e59f118c	 ldr         r1, [pc, #0x18C]
  00b78	e59d0080	 ldr         r0, [sp, #0x80]
  00b7c	eb000000	 bl          memcmp
  00b80	e58d0060	 str         r0, [sp, #0x60]
  00b84	e59d3060	 ldr         r3, [sp, #0x60]
  00b88	e3530000	 cmp         r3, #0
  00b8c	1a000022	 bne         |$LN13@I2C_IOCont|

; 401  :             if (pOutSize != NULL) *pOutSize = sizeof(DEVICE_IFC_I2C);

  00b90	e59d3090	 ldr         r3, [sp, #0x90]
  00b94	e3530000	 cmp         r3, #0
  00b98	0a000002	 beq         |$LN12@I2C_IOCont|
  00b9c	e59d2090	 ldr         r2, [sp, #0x90]
  00ba0	e3a0300c	 mov         r3, #0xC
  00ba4	e5823000	 str         r3, [r2]
  00ba8		 |$LN12@I2C_IOCont|

; 402  :             if (pOutBuffer == NULL || outSize < sizeof(DEVICE_IFC_I2C)) {

  00ba8	e59d3088	 ldr         r3, [sp, #0x88]
  00bac	e3530000	 cmp         r3, #0
  00bb0	0a000002	 beq         |$LN10@I2C_IOCont|
  00bb4	e59d308c	 ldr         r3, [sp, #0x8C]
  00bb8	e353000c	 cmp         r3, #0xC
  00bbc	2a000002	 bcs         |$LN11@I2C_IOCont|
  00bc0		 |$LN10@I2C_IOCont|

; 403  :                 SetLastError(ERROR_INVALID_PARAMETER);

  00bc0	e3a00057	 mov         r0, #0x57
  00bc4	eb000000	 bl          SetLastError

; 404  :                 break;

  00bc8	ea000046	 b           |$LN18@I2C_IOCont|
  00bcc		 |$LN11@I2C_IOCont|

; 405  :             }
; 406  :             ifc.context = context;

  00bcc	e59d3078	 ldr         r3, [sp, #0x78]
  00bd0	e58d3024	 str         r3, [sp, #0x24]

; 407  :             ifc.pfnSetSlaveAddress = I2C_SetSlaveAddress;

  00bd4	e59f3128	 ldr         r3, [pc, #0x128]
  00bd8	e58d3028	 str         r3, [sp, #0x28]

; 408  :             ifc.pfnTransact = I2C_Transact;

  00bdc	e59f311c	 ldr         r3, [pc, #0x11C]
  00be0	e58d302c	 str         r3, [sp, #0x2C]

; 409  :             if (!CeSafeCopyMemory(pOutBuffer, &ifc, sizeof(DEVICE_IFC_I2C))) {

  00be4	e3a0200c	 mov         r2, #0xC
  00be8	e28d1024	 add         r1, sp, #0x24
  00bec	e59d0088	 ldr         r0, [sp, #0x88]
  00bf0	eb000000	 bl          CeSafeCopyMemory
  00bf4	e58d0064	 str         r0, [sp, #0x64]
  00bf8	e59d3064	 ldr         r3, [sp, #0x64]
  00bfc	e3530000	 cmp         r3, #0
  00c00	1a000002	 bne         |$LN9@I2C_IOCont|

; 410  :                 SetLastError(ERROR_INVALID_PARAMETER);

  00c04	e3a00057	 mov         r0, #0x57
  00c08	eb000000	 bl          SetLastError

; 411  :                 break;

  00c0c	ea000035	 b           |$LN18@I2C_IOCont|
  00c10		 |$LN9@I2C_IOCont|

; 412  :             }
; 413  :             bRetVal = TRUE;

  00c10	e3a03001	 mov         r3, #1
  00c14	e58d3020	 str         r3, [sp, #0x20]

; 414  :             break;

  00c18	ea000032	 b           |$LN18@I2C_IOCont|
  00c1c		 |$LN13@I2C_IOCont|

; 415  :         }
; 416  :         SetLastError(ERROR_INVALID_PARAMETER);

  00c1c	e3a00057	 mov         r0, #0x57
  00c20	eb000000	 bl          SetLastError

; 417  :         break;

  00c24	ea00002f	 b           |$LN18@I2C_IOCont|
  00c28		 |$LN8@I2C_IOCont|

; 418  : 
; 419  :     case IOCTL_I2C_SET_SLAVE_ADDRESS:
; 420  :         if (pOutSize != NULL)

  00c28	e59d3090	 ldr         r3, [sp, #0x90]
  00c2c	e3530000	 cmp         r3, #0
  00c30	0a000002	 beq         |$LN7@I2C_IOCont|

; 421  :         {
; 422  :             *pOutSize = sizeof(I2C_SET_SLAVE_ADDRESS);

  00c34	e59d2090	 ldr         r2, [sp, #0x90]
  00c38	e3a03008	 mov         r3, #8
  00c3c	e5823000	 str         r3, [r2]
  00c40		 |$LN7@I2C_IOCont|

; 423  :         }
; 424  :         if (pInBuffer == NULL || inSize < sizeof(I2C_SET_SLAVE_ADDRESS)) 

  00c40	e59d3080	 ldr         r3, [sp, #0x80]
  00c44	e3530000	 cmp         r3, #0
  00c48	0a000002	 beq         |$LN5@I2C_IOCont|
  00c4c	e59d3084	 ldr         r3, [sp, #0x84]
  00c50	e3530008	 cmp         r3, #8
  00c54	2a000002	 bcs         |$LN6@I2C_IOCont|
  00c58		 |$LN5@I2C_IOCont|

; 425  :         {
; 426  :             SetLastError(ERROR_INVALID_PARAMETER);

  00c58	e3a00057	 mov         r0, #0x57
  00c5c	eb000000	 bl          SetLastError

; 427  :             break;

  00c60	ea000020	 b           |$LN18@I2C_IOCont|
  00c64		 |$LN6@I2C_IOCont|

; 428  :         }
; 429  :         pAddress = (I2C_SET_SLAVE_ADDRESS*)pInBuffer;

  00c64	e59d3080	 ldr         r3, [sp, #0x80]
  00c68	e58d301c	 str         r3, [sp, #0x1C]

; 430  :         bRetVal = I2C_SetSlaveAddress(context, pAddress->size, pAddress->address);

  00c6c	e59d301c	 ldr         r3, [sp, #0x1C]
  00c70	e2833004	 add         r3, r3, #4
  00c74	e5932000	 ldr         r2, [r3]
  00c78	e59d301c	 ldr         r3, [sp, #0x1C]
  00c7c	e5931000	 ldr         r1, [r3]
  00c80	e59d0078	 ldr         r0, [sp, #0x78]
  00c84	eb000000	 bl          I2C_SetSlaveAddress
  00c88	e58d0068	 str         r0, [sp, #0x68]
  00c8c	e59d3068	 ldr         r3, [sp, #0x68]
  00c90	e58d3020	 str         r3, [sp, #0x20]

; 431  :         break;

  00c94	ea000013	 b           |$LN18@I2C_IOCont|
  00c98		 |$LN4@I2C_IOCont|

; 432  : 
; 433  :     case IOCTL_I2C_TRANSACT:
; 434  :         //Issue a transaction using the outbuffer as input/output
; 435  :         if (pOutBuffer == NULL || outSize < sizeof(I2CTRANS)) 

  00c98	e59d3088	 ldr         r3, [sp, #0x88]
  00c9c	e3530000	 cmp         r3, #0
  00ca0	0a000002	 beq         |$LN2@I2C_IOCont|
  00ca4	e59d308c	 ldr         r3, [sp, #0x8C]
  00ca8	e3530e17	 cmp         r3, #0x17, 28
  00cac	2a000002	 bcs         |$LN3@I2C_IOCont|
  00cb0		 |$LN2@I2C_IOCont|

; 436  :         {
; 437  :             SetLastError(ERROR_INVALID_PARAMETER);

  00cb0	e3a00057	 mov         r0, #0x57
  00cb4	eb000000	 bl          SetLastError

; 438  :             break;

  00cb8	ea00000a	 b           |$LN18@I2C_IOCont|
  00cbc		 |$LN3@I2C_IOCont|

; 439  :         }
; 440  :         pTrans = (I2CTRANS*)pOutBuffer;

  00cbc	e59d3088	 ldr         r3, [sp, #0x88]
  00cc0	e58d3018	 str         r3, [sp, #0x18]

; 441  :         bRetVal = I2C_Transact(context, pTrans);

  00cc4	e59d1018	 ldr         r1, [sp, #0x18]
  00cc8	e59d0078	 ldr         r0, [sp, #0x78]
  00ccc	eb000000	 bl          I2C_Transact
  00cd0	e58d006c	 str         r0, [sp, #0x6C]
  00cd4	e59d306c	 ldr         r3, [sp, #0x6C]
  00cd8	e58d3020	 str         r3, [sp, #0x20]

; 442  :         *pOutSize = sizeof(I2CTRANS);

  00cdc	e59d2090	 ldr         r2, [sp, #0x90]
  00ce0	e3a03e17	 mov         r3, #0x17, 28
  00ce4	e5823000	 str         r3, [r2]
  00ce8		 |$LN1@I2C_IOCont|
  00ce8		 |$LN18@I2C_IOCont|
  00ce8		 |$clean$42989|

; 443  :         break;
; 444  : 
; 445  : 
; 446  :     default:
; 447  :         // power control ioctls taken out.  self-manages power
; 448  :        // ERRORMSG(1, (TEXT("I2C: Unknown IOCTL_xxx(0x%0.8X) \r\n"), dwCode));
; 449  :         break;
; 450  :     }
; 451  : 
; 452  : clean:
; 453  :     //DEBUGMSG(ZONE_I2C&&ZONE_FUNCTION, (L"-I2C_IOControl(rc = %d)\r\n", rc));
; 454  :     return bRetVal;

  00ce8	e59d3020	 ldr         r3, [sp, #0x20]
  00cec	e58d3040	 str         r3, [sp, #0x40]

; 455  : }

  00cf0	e59d0040	 ldr         r0, [sp, #0x40]
  00cf4	e28dd070	 add         sp, sp, #0x70
  00cf8	e89d6000	 ldmia       sp, {sp, lr}
  00cfc	e12fff1e	 bx          lr
  00d00		 |$LN33@I2C_IOCont|
  00d00		 |$LN34@I2C_IOCont|
  00d00	00000000	 DCD         |I2C_Transact|
  00d04		 |$LN35@I2C_IOCont|
  00d04	00000000	 DCD         |I2C_SetSlaveAddress|
  00d08		 |$LN36@I2C_IOCont|
  00d08	00000000	 DCD         |DEVICE_IFC_I2C_GUID|
  00d0c		 |$LN37@I2C_IOCont|
  00d0c	00000000	 DCD         |??_C@_1OG@IFNLBGDC@?$AAE?$AAR?$AAR?$AAO?$AAR?$AA?3?$AA?5?$AAI?$AA2?$AAC?$AA_?$AAI?$AAO?$AAC?$AAo?$AAn?$AAt?$AAr?$AAo?$AAl?$AA?3?$AA?5?$AAI?$AAO?$AAC?$AAT?$AAL?$AA_?$AAD?$AAD?$AAK?$AA_@|
  00d10		 |$LN38@I2C_IOCont|
  00d10	00000000	 DCD         |dpCurSettings|
  00d14		 |$LN39@I2C_IOCont|
  00d14	00220804	 DCD         0x220804
  00d18		 |$LN40@I2C_IOCont|
  00d18	00000000	 DCD         |??_C@_1GE@FGJBHNAO@?$AAE?$AAR?$AAR?$AAO?$AAR?$AA?3?$AA?5?$AAI?$AA2?$AAC?$AA_?$AAI?$AAO?$AAC?$AAo?$AAn?$AAt?$AAr?$AAo?$AAl?$AA?3?$AA?5?$AAI?$AAn?$AAc?$AAo?$AAr?$AAr?$AAe?$AAc?$AAt?$AA?5@|
  00d1c		 |$LN41@I2C_IOCont|
  00d1c	69326349	 DCD         0x69326349
  00d20		 |$LN42@I2C_IOCont|
  00d20	00000000	 DCD         |??_C@_1IC@CBOLJLFH@?$AA?$CL?$AAI?$AA2?$AAC?$AA_?$AAI?$AAO?$AAC?$AAo?$AAn?$AAt?$AAr?$AAo?$AAl?$AA?$CI?$AA0?$AAx?$AA?$CF?$AA0?$AA8?$AAx?$AA?0?$AA?5?$AA0?$AAx?$AA?$CF?$AA0?$AA8?$AAx?$AA?0?$AA?5?$AA0@|
  00d24		 |$M43242|

			 ENDP  ; |I2C_IOControl|

	IMPORT	|__GetUserKData|
; File c:\wince600\public\common\sdk\inc\kfuncs.h

  00000			 AREA	 |.pdata|, PDATA
|$T43260| DCD	|$LN5@GetCurrent|
	DCD	0x40000b02
; Function compile flags: /Odtp

  00000			 AREA	 |.text|, CODE, ARM

  00000		 |GetCurrentProcessId| PROC

; 373  : _inline DWORD GetCurrentProcessId(void) {

  00000		 |$LN5@GetCurrent|
  00000	e52de004	 str         lr, [sp, #-4]!
  00004	e24dd008	 sub         sp, sp, #8
  00008		 |$M43257|

; 374  :     return __GetUserKData (SYSHANDLE_OFFSET + (SH_CURPROC * sizeof(HANDLE)));

  00008	e3a0000c	 mov         r0, #0xC
  0000c	eb000000	 bl          __GetUserKData
  00010	e58d0004	 str         r0, [sp, #4]
  00014	e59d3004	 ldr         r3, [sp, #4]
  00018	e58d3000	 str         r3, [sp]

; 375  : }

  0001c	e59d0000	 ldr         r0, [sp]
  00020	e28dd008	 add         sp, sp, #8
  00024	e49de004	 ldr         lr, [sp], #4
  00028	e12fff1e	 bx          lr
  0002c		 |$M43258|

			 ENDP  ; |GetCurrentProcessId|

	EXPORT	|I2C_PowerUp|

  00040			 AREA	 |.pdata|, PDATA
|$T43267| DCD	|$LN5@I2C_PowerU|
	DCD	0x40000503
; Function compile flags: /Odtp
; File c:\wince600\platform\common\src\soc\omap2420_ms_v1\i2c\i2c.c

  00d24			 AREA	 |.text|, CODE, ARM

  00d24		 |I2C_PowerUp| PROC

; 464  : {

  00d24		 |$LN5@I2C_PowerU|
  00d24	e1a0c00d	 mov         r12, sp
  00d28	e92d0001	 stmdb       sp!, {r0}
  00d2c	e92d5000	 stmdb       sp!, {r12, lr}
  00d30		 |$M43264|

; 465  : }

  00d30	e89d6000	 ldmia       sp, {sp, lr}
  00d34	e12fff1e	 bx          lr
  00d38		 |$M43265|

			 ENDP  ; |I2C_PowerUp|

	EXPORT	|I2C_PowerDown|

  00048			 AREA	 |.pdata|, PDATA
|$T43272| DCD	|$LN5@I2C_PowerD|
	DCD	0x40000503
; Function compile flags: /Odtp

  00d38			 AREA	 |.text|, CODE, ARM

  00d38		 |I2C_PowerDown| PROC

; 474  : {

  00d38		 |$LN5@I2C_PowerD|
  00d38	e1a0c00d	 mov         r12, sp
  00d3c	e92d0001	 stmdb       sp!, {r0}
  00d40	e92d5000	 stmdb       sp!, {r12, lr}
  00d44		 |$M43269|

; 475  : }

  00d44	e89d6000	 ldmia       sp, {sp, lr}
  00d48	e12fff1e	 bx          lr
  00d4c		 |$M43270|

			 ENDP  ; |I2C_PowerDown|

	EXPORT	|??_C@_1KM@PBBOFEML@?$AAE?$AAR?$AAR?$AAO?$AAR?$AA?3?$AA?5?$AAI?$AA2?$AAC?$AA_?$AAS?$AAe?$AAt?$AAS?$AAl?$AAa?$AAv?$AAe?$AAA?$AAd?$AAd?$AAr?$AAe?$AAs?$AAs?$AA?3?$AA?5?$AAI?$AAn?$AAc?$AAo@| [ DATA ] ; `string'
	EXPORT	|??_C@_1HA@DOEOPJNJ@?$AAE?$AAR?$AAR?$AAO?$AAR?$AA?3?$AA?5?$AAI?$AA2?$AAC?$AA_?$AAS?$AAe?$AAt?$AAS?$AAl?$AAa?$AAv?$AAe?$AAA?$AAd?$AAd?$AAr?$AAe?$AAs?$AAs?$AA?3?$AA?5?$AAI?$AAn?$AAc?$AAo@| [ DATA ] ; `string'

  00050			 AREA	 |.pdata|, PDATA
|$T43282| DCD	|$LN12@I2C_SetSla|
	DCD	0x40004304

  00000			 AREA	 |.rdata|, DATA, READONLY
|??_C@_1KM@PBBOFEML@?$AAE?$AAR?$AAR?$AAO?$AAR?$AA?3?$AA?5?$AAI?$AA2?$AAC?$AA_?$AAS?$AAe?$AAt?$AAS?$AAl?$AAa?$AAv?$AAe?$AAA?$AAd?$AAd?$AAr?$AAe?$AAs?$AAs?$AA?3?$AA?5?$AAI?$AAn?$AAc?$AAo@| DCB "E"
	DCB	0x0, "R", 0x0, "R", 0x0, "O", 0x0, "R", 0x0, ":", 0x0, " "
	DCB	0x0, "I", 0x0, "2", 0x0, "C", 0x0, "_", 0x0, "S", 0x0, "e"
	DCB	0x0, "t", 0x0, "S", 0x0, "l", 0x0, "a", 0x0, "v", 0x0, "e"
	DCB	0x0, "A", 0x0, "d", 0x0, "d", 0x0, "r", 0x0, "e", 0x0, "s"
	DCB	0x0, "s", 0x0, ":", 0x0, " ", 0x0, "I", 0x0, "n", 0x0, "c"
	DCB	0x0, "o", 0x0, "r", 0x0, "r", 0x0, "e", 0x0, "c", 0x0, "t"
	DCB	0x0, " ", 0x0, "a", 0x0, "d", 0x0, "d", 0x0, "r", 0x0, "e"
	DCB	0x0, "s", 0x0, "s", 0x0, " ", 0x0, "s", 0x0, "i", 0x0, "z"
	DCB	0x0, "e", 0x0, " ", 0x0, "%", 0x0, "d", 0x0, " ", 0x0, "("
	DCB	0x0, "v", 0x0, "a", 0x0, "l", 0x0, "i", 0x0, "d", 0x0, " "
	DCB	0x0, "v", 0x0, "a", 0x0, "l", 0x0, "u", 0x0, "e", 0x0, "s"
	DCB	0x0, " ", 0x0, "a", 0x0, "r", 0x0, "e", 0x0, " ", 0x0, "7"
	DCB	0x0, " ", 0x0, "&", 0x0, " ", 0x0, "1", 0x0, "0", 0x0, " "
	DCB	0x0, "b", 0x0, "i", 0x0, "t", 0x0, "s", 0x0, 0xd, 0x0, 0xa
	DCB	0x0, 0x0, 0x0				; `string'

  00000			 AREA	 |.rdata|, DATA, READONLY
|??_C@_1HA@DOEOPJNJ@?$AAE?$AAR?$AAR?$AAO?$AAR?$AA?3?$AA?5?$AAI?$AA2?$AAC?$AA_?$AAS?$AAe?$AAt?$AAS?$AAl?$AAa?$AAv?$AAe?$AAA?$AAd?$AAd?$AAr?$AAe?$AAs?$AAs?$AA?3?$AA?5?$AAI?$AAn?$AAc?$AAo@| DCB "E"
	DCB	0x0, "R", 0x0, "R", 0x0, "O", 0x0, "R", 0x0, ":", 0x0, " "
	DCB	0x0, "I", 0x0, "2", 0x0, "C", 0x0, "_", 0x0, "S", 0x0, "e"
	DCB	0x0, "t", 0x0, "S", 0x0, "l", 0x0, "a", 0x0, "v", 0x0, "e"
	DCB	0x0, "A", 0x0, "d", 0x0, "d", 0x0, "r", 0x0, "e", 0x0, "s"
	DCB	0x0, "s", 0x0, ":", 0x0, " ", 0x0, "I", 0x0, "n", 0x0, "c"
	DCB	0x0, "o", 0x0, "r", 0x0, "r", 0x0, "e", 0x0, "c", 0x0, "t"
	DCB	0x0, " ", 0x0, "c", 0x0, "o", 0x0, "n", 0x0, "t", 0x0, "e"
	DCB	0x0, "x", 0x0, "t", 0x0, " ", 0x0, "p", 0x0, "a", 0x0, "r"
	DCB	0x0, "a", 0x0, "m", 0x0, "e", 0x0, "r", 0x0, 0xd, 0x0, 0xa
	DCB	0x0, 0x0, 0x0				; `string'
; Function compile flags: /Odtp

  00d4c			 AREA	 |.text|, CODE, ARM

  00d4c		 |I2C_SetSlaveAddress| PROC

; 480  : {

  00d4c		 |$LN12@I2C_SetSla|
  00d4c	e1a0c00d	 mov         r12, sp
  00d50	e92d0007	 stmdb       sp!, {r0 - r2}
  00d54	e92d5000	 stmdb       sp!, {r12, lr}
  00d58	e24dd014	 sub         sp, sp, #0x14
  00d5c		 |$M43279|

; 481  :     BOOL rc = FALSE;

  00d5c	e3a03000	 mov         r3, #0
  00d60	e58d3000	 str         r3, [sp]

; 482  :     I2C_INSTANCE *pInstance = (I2C_INSTANCE*)context;

  00d64	e59d301c	 ldr         r3, [sp, #0x1C]
  00d68	e58d3004	 str         r3, [sp, #4]

; 483  : 
; 484  :     // Check if we get correct context
; 485  :     if (pInstance == NULL || pInstance->cookie != I2C_INSTANCE_COOKIE) {

  00d6c	e59d3004	 ldr         r3, [sp, #4]
  00d70	e3530000	 cmp         r3, #0
  00d74	0a000004	 beq         |$LN2@I2C_SetSla|
  00d78	e59d3004	 ldr         r3, [sp, #4]
  00d7c	e5932000	 ldr         r2, [r3]
  00d80	e59f30cc	 ldr         r3, [pc, #0xCC]
  00d84	e1520003	 cmp         r2, r3
  00d88	0a00000b	 beq         |$LN3@I2C_SetSla|
  00d8c		 |$LN2@I2C_SetSla|

; 486  :         DEBUGMSG (ZONE_ERROR, (L"ERROR: I2C_SetSlaveAddress: "
; 487  :             L"Incorrect context paramer\r\n"
; 488  :         ));

  00d8c	e59f30b8	 ldr         r3, [pc, #0xB8]
  00d90	e5933440	 ldr         r3, [r3, #0x440]
  00d94	e3130001	 tst         r3, #1
  00d98	0a000004	 beq         |$LN6@I2C_SetSla|
  00d9c	e59f00ac	 ldr         r0, [pc, #0xAC]
  00da0	eb000000	 bl          NKDbgPrintfW
  00da4	e3a03001	 mov         r3, #1
  00da8	e58d300c	 str         r3, [sp, #0xC]
  00dac	ea000001	 b           |$LN7@I2C_SetSla|
  00db0		 |$LN6@I2C_SetSla|
  00db0	e3a03000	 mov         r3, #0
  00db4	e58d300c	 str         r3, [sp, #0xC]
  00db8		 |$LN7@I2C_SetSla|

; 489  :         goto cleanUp;

  00db8	ea00001c	 b           |$cleanUp$43054|
  00dbc		 |$LN3@I2C_SetSla|

; 490  :     }
; 491  : 
; 492  :     if (size != 7 && size != 10) {

  00dbc	e59d3020	 ldr         r3, [sp, #0x20]
  00dc0	e3530007	 cmp         r3, #7
  00dc4	0a00000f	 beq         |$LN1@I2C_SetSla|
  00dc8	e59d3020	 ldr         r3, [sp, #0x20]
  00dcc	e353000a	 cmp         r3, #0xA
  00dd0	0a00000c	 beq         |$LN1@I2C_SetSla|

; 493  :         DEBUGMSG (ZONE_ERROR, (L"ERROR: I2C_SetSlaveAddress: "
; 494  :             L"Incorrect address size %d (valid values are 7 & 10 bits\r\n", size
; 495  :         ));

  00dd4	e59f3070	 ldr         r3, [pc, #0x70]
  00dd8	e5933440	 ldr         r3, [r3, #0x440]
  00ddc	e3130001	 tst         r3, #1
  00de0	0a000005	 beq         |$LN8@I2C_SetSla|
  00de4	e59d1020	 ldr         r1, [sp, #0x20]
  00de8	e59f0058	 ldr         r0, [pc, #0x58]
  00dec	eb000000	 bl          NKDbgPrintfW
  00df0	e3a03001	 mov         r3, #1
  00df4	e58d3010	 str         r3, [sp, #0x10]
  00df8	ea000001	 b           |$LN9@I2C_SetSla|
  00dfc		 |$LN8@I2C_SetSla|
  00dfc	e3a03000	 mov         r3, #0
  00e00	e58d3010	 str         r3, [sp, #0x10]
  00e04		 |$LN9@I2C_SetSla|

; 496  :         goto cleanUp;

  00e04	ea000009	 b           |$cleanUp$43054|
  00e08		 |$LN1@I2C_SetSla|

; 497  :     }
; 498  :     pInstance->addrSize = size;

  00e08	e59d3004	 ldr         r3, [sp, #4]
  00e0c	e2832008	 add         r2, r3, #8
  00e10	e59d3020	 ldr         r3, [sp, #0x20]
  00e14	e5823000	 str         r3, [r2]

; 499  :     pInstance->address = address;

  00e18	e59d3004	 ldr         r3, [sp, #4]
  00e1c	e283200c	 add         r2, r3, #0xC
  00e20	e59d3024	 ldr         r3, [sp, #0x24]
  00e24	e5823000	 str         r3, [r2]

; 500  : 
; 501  :     rc = TRUE;

  00e28	e3a03001	 mov         r3, #1
  00e2c	e58d3000	 str         r3, [sp]
  00e30		 |$cleanUp$43054|

; 502  : 
; 503  : cleanUp:
; 504  :     return rc;

  00e30	e59d3000	 ldr         r3, [sp]
  00e34	e58d3008	 str         r3, [sp, #8]

; 505  : }

  00e38	e59d0008	 ldr         r0, [sp, #8]
  00e3c	e28dd014	 add         sp, sp, #0x14
  00e40	e89d6000	 ldmia       sp, {sp, lr}
  00e44	e12fff1e	 bx          lr
  00e48		 |$LN13@I2C_SetSla|
  00e48		 |$LN14@I2C_SetSla|
  00e48	00000000	 DCD         |??_C@_1KM@PBBOFEML@?$AAE?$AAR?$AAR?$AAO?$AAR?$AA?3?$AA?5?$AAI?$AA2?$AAC?$AA_?$AAS?$AAe?$AAt?$AAS?$AAl?$AAa?$AAv?$AAe?$AAA?$AAd?$AAd?$AAr?$AAe?$AAs?$AAs?$AA?3?$AA?5?$AAI?$AAn?$AAc?$AAo@|
  00e4c		 |$LN15@I2C_SetSla|
  00e4c	00000000	 DCD         |dpCurSettings|
  00e50		 |$LN16@I2C_SetSla|
  00e50	00000000	 DCD         |??_C@_1HA@DOEOPJNJ@?$AAE?$AAR?$AAR?$AAO?$AAR?$AA?3?$AA?5?$AAI?$AA2?$AAC?$AA_?$AAS?$AAe?$AAt?$AAS?$AAl?$AAa?$AAv?$AAe?$AAA?$AAd?$AAd?$AAr?$AAe?$AAs?$AAs?$AA?3?$AA?5?$AAI?$AAn?$AAc?$AAo@|
  00e54		 |$LN17@I2C_SetSla|
  00e54	69326349	 DCD         0x69326349
  00e58		 |$M43280|

			 ENDP  ; |I2C_SetSlaveAddress|

	END
