; Listing generated by Microsoft (R) Optimizing Compiler Version 14.01.60511.01 

	TTL	C:\WINCE600\PLATFORM\COMMON\SRC\SOC\COMMON_TI_V1\COMMON_TI\SDMA\dma.cpp
	CODE32

  00000			 AREA	 |.drectve|, DRECTVE
	DCB	"-defaultlib:LIBCMT "
	DCB	"-defaultlib:OLDNAMES "

	EXPORT	|??_C@_1BI@OJGHJKJA@?$AAp?$AAr?$AAi?$AAo?$AAr?$AAi?$AAt?$AAy?$AA2?$AA5?$AA6?$AA?$AA@| [ DATA ] ; `string'
	EXPORT	|??_C@_1BC@MIOPDHCM@?$AAD?$AAm?$AAa?$AAI?$AAn?$AAd?$AAe?$AAx?$AA?$AA@| [ DATA ] ; `string'
	EXPORT	|dpCurSettings| [ DATA ]

  00000			 AREA	 |.rdata|, DATA, READONLY
|s_deviceRegParams| DCD |??_C@_1BC@MIOPDHCM@?$AAD?$AAm?$AAa?$AAI?$AAn?$AAd?$AAe?$AAx?$AA?$AA@|
	DCD	0x3
	DCD	0x0
	DCD	0x8
	DCD	0x4
	DCD	0x0
	DCD	|??_C@_1BI@OJGHJKJA@?$AAp?$AAr?$AAi?$AAo?$AAr?$AAi?$AAt?$AAy?$AA2?$AA5?$AA6?$AA?$AA@|
	DCD	0x1
	DCD	0x1
	DCD	0x10
	DCD	0x4
	DCD	0x61

  00000			 AREA	 |.rdata|, DATA, READONLY
|??_C@_1BI@OJGHJKJA@?$AAp?$AAr?$AAi?$AAo?$AAr?$AAi?$AAt?$AAy?$AA2?$AA5?$AA6?$AA?$AA@| DCB "p"
	DCB	0x0, "r", 0x0, "i", 0x0, "o", 0x0, "r", 0x0, "i", 0x0, "t"
	DCB	0x0, "y", 0x0, "2", 0x0, "5", 0x0, "6", 0x0, 0x0, 0x0 ; `string'

  00000			 AREA	 |.rdata|, DATA, READONLY
|??_C@_1BC@MIOPDHCM@?$AAD?$AAm?$AAa?$AAI?$AAn?$AAd?$AAe?$AAx?$AA?$AA@| DCB "D"
	DCB	0x0, "m", 0x0, "a", 0x0, "I", 0x0, "n", 0x0, "d", 0x0, "e"
	DCB	0x0, "x", 0x0, 0x0, 0x0			; `string'

  00000			 AREA	 |.data|, DATA
|dpCurSettings| DCB "D", 0x0, "M", 0x0, "A", 0x0, 0x0, 0x0
	%	56
	DCB	"E", 0x0, "r", 0x0, "r", 0x0, "o", 0x0, "r", 0x0, "s", 0x0
	DCB	0x0, 0x0
	%	50
	DCB	"W", 0x0, "a", 0x0, "r", 0x0, "n", 0x0, "i", 0x0, "n", 0x0
	DCB	"g", 0x0, "s", 0x0, 0x0, 0x0
	%	46
	DCB	"F", 0x0, "u", 0x0, "n", 0x0, "c", 0x0, "t", 0x0, "i", 0x0
	DCB	"o", 0x0, "n", 0x0, 0x0, 0x0
	%	46
	DCB	"I", 0x0, "n", 0x0, "f", 0x0, "o", 0x0, 0x0, 0x0
	%	54
	DCB	"I", 0x0, "S", 0x0, "T", 0x0, 0x0, 0x0
	%	56
	DCB	"U", 0x0, "n", 0x0, "d", 0x0, "e", 0x0, "f", 0x0, "i", 0x0
	DCB	"n", 0x0, "e", 0x0, "d", 0x0, 0x0, 0x0
	%	44
	DCB	"U", 0x0, "n", 0x0, "d", 0x0, "e", 0x0, "f", 0x0, "i", 0x0
	DCB	"n", 0x0, "e", 0x0, "d", 0x0, 0x0, 0x0
	%	44
	DCB	"U", 0x0, "n", 0x0, "d", 0x0, "e", 0x0, "f", 0x0, "i", 0x0
	DCB	"n", 0x0, "e", 0x0, "d", 0x0, 0x0, 0x0
	%	44
	DCB	"U", 0x0, "n", 0x0, "d", 0x0, "e", 0x0, "f", 0x0, "i", 0x0
	DCB	"n", 0x0, "e", 0x0, "d", 0x0, 0x0, 0x0
	%	44
	DCB	"U", 0x0, "n", 0x0, "d", 0x0, "e", 0x0, "f", 0x0, "i", 0x0
	DCB	"n", 0x0, "e", 0x0, "d", 0x0, 0x0, 0x0
	%	44
	DCB	"U", 0x0, "n", 0x0, "d", 0x0, "e", 0x0, "f", 0x0, "i", 0x0
	DCB	"n", 0x0, "e", 0x0, "d", 0x0, 0x0, 0x0
	%	44
	DCB	"U", 0x0, "n", 0x0, "d", 0x0, "e", 0x0, "f", 0x0, "i", 0x0
	DCB	"n", 0x0, "e", 0x0, "d", 0x0, 0x0, 0x0
	%	44
	DCB	"U", 0x0, "n", 0x0, "d", 0x0, "e", 0x0, "f", 0x0, "i", 0x0
	DCB	"n", 0x0, "e", 0x0, "d", 0x0, 0x0, 0x0
	%	44
	DCB	"U", 0x0, "n", 0x0, "d", 0x0, "e", 0x0, "f", 0x0, "i", 0x0
	DCB	"n", 0x0, "e", 0x0, "d", 0x0, 0x0, 0x0
	%	44
	DCB	"U", 0x0, "n", 0x0, "d", 0x0, "e", 0x0, "f", 0x0, "i", 0x0
	DCB	"n", 0x0, "e", 0x0, "d", 0x0, 0x0, 0x0
	%	44
	DCB	"U", 0x0, "n", 0x0, "d", 0x0, "e", 0x0, "f", 0x0, "i", 0x0
	DCB	"n", 0x0, "e", 0x0, "d", 0x0, 0x0, 0x0
	%	44
	DCD	0x3
	EXPORT	|??_C@_1DG@MCBGCBMD@?$AA?9?$AAI?$AAn?$AAi?$AAt?$AAi?$AAa?$AAl?$AAi?$AAz?$AAe?$AAD?$AAe?$AAv?$AAi?$AAc?$AAe?$AA?$CI?$AAr?$AAc?$AA?$DN?$AA?$CF?$AAd?$AA?$CJ?$AA?$AN?$AA?6?$AA?$AA@| [ DATA ] ; `string'
	EXPORT	|??_C@_1MM@FBHDPICO@?$AAE?$AAR?$AAR?$AAO?$AAR?$AA?$CB?$AA?5?$AA?$CI?$AAD?$AAM?$AAA?$AA?$CJ?$AA?5?$AAI?$AAn?$AAi?$AAt?$AAi?$AAa?$AAl?$AAi?$AAz?$AAe?$AAD?$AAe?$AAv?$AAi?$AAc?$AAe?$AA?5?$AA?3?$AAF@| [ DATA ] ; `string'
	EXPORT	|??_C@_1KM@BDFIBLIG@?$AAE?$AAR?$AAR?$AAO?$AAR?$AA?$CB?$AA?5?$AA?$CI?$AAD?$AAM?$AAA?$AA?$CJ?$AA?5?$AAI?$AAn?$AAi?$AAt?$AAi?$AAa?$AAl?$AAi?$AAz?$AAe?$AAD?$AAe?$AAv?$AAi?$AAc?$AAe?$AA?5?$AA?3?$AAF@| [ DATA ] ; `string'
	EXPORT	|??_C@_19EMJFMDEF@?$AAI?$AAR?$AAQ?$AA3?$AA?$AA@| [ DATA ] ; `string'
	EXPORT	|??_C@_19PECJKECA@?$AAI?$AAR?$AAQ?$AA2?$AA?$AA@| [ DATA ] ; `string'
	EXPORT	|??_C@_19OGJMALMO@?$AAI?$AAR?$AAQ?$AA1?$AA?$AA@| [ DATA ] ; `string'
	EXPORT	|??_C@_19FOCAGMKL@?$AAI?$AAR?$AAQ?$AA0?$AA?$AA@| [ DATA ] ; `string'
	EXPORT	|??_C@_1KI@PEEAJLIM@?$AAE?$AAR?$AAR?$AAO?$AAR?$AA?$CB?$AA?5?$AA?$CI?$AAD?$AAM?$AAA?$AA?$CJ?$AA?5?$AAI?$AAn?$AAi?$AAt?$AAi?$AAa?$AAl?$AAi?$AAz?$AAe?$AAD?$AAe?$AAv?$AAi?$AAc?$AAe?$AA?5?$AA?3?$AAU@| [ DATA ] ; `string'
	EXPORT	|??0SystemDmaController@@QAA@XZ|	; SystemDmaController::SystemDmaController
	EXPORT	|??_C@_1DI@NKIEHCIA@?$AA?$CL?$AAI?$AAn?$AAi?$AAt?$AAi?$AAa?$AAl?$AAi?$AAz?$AAe?$AAD?$AAe?$AAv?$AAi?$AAc?$AAe?$AA?$CI?$AA0?$AAx?$AA?$CF?$AA0?$AA8?$AAx?$AA?$CJ?$AA?$AN?$AA?6?$AA?$AA@| [ DATA ] ; `string'
	EXPORT	|?InitializeDevice@@YAHPAUDevice_t@@@Z|	; InitializeDevice
	IMPORT	|GetAddressByDevice|
	IMPORT	|GetIrqByDevice|
	IMPORT	|GetLastError|
	IMPORT	|??2@YAPAXI@Z|				; operator new
	IMPORT	|NKDbgPrintfW|

  00000			 AREA	 |.pdata|, PDATA
|$T36590| DCD	|$LN23@Initialize|
	DCD	0x4000c804
; File c:\wince600\platform\common\src\soc\common_ti_v1\common_ti\sdma\dma.cpp

  00000			 AREA	 |.rdata|, DATA, READONLY
|??_C@_1DG@MCBGCBMD@?$AA?9?$AAI?$AAn?$AAi?$AAt?$AAi?$AAa?$AAl?$AAi?$AAz?$AAe?$AAD?$AAe?$AAv?$AAi?$AAc?$AAe?$AA?$CI?$AAr?$AAc?$AA?$DN?$AA?$CF?$AAd?$AA?$CJ?$AA?$AN?$AA?6?$AA?$AA@| DCB "-"
	DCB	0x0, "I", 0x0, "n", 0x0, "i", 0x0, "t", 0x0, "i", 0x0, "a"
	DCB	0x0, "l", 0x0, "i", 0x0, "z", 0x0, "e", 0x0, "D", 0x0, "e"
	DCB	0x0, "v", 0x0, "i", 0x0, "c", 0x0, "e", 0x0, "(", 0x0, "r"
	DCB	0x0, "c", 0x0, "=", 0x0, "%", 0x0, "d", 0x0, ")", 0x0, 0xd
	DCB	0x0, 0xa, 0x0, 0x0, 0x0			; `string'

  00000			 AREA	 |.rdata|, DATA, READONLY
|??_C@_1MM@FBHDPICO@?$AAE?$AAR?$AAR?$AAO?$AAR?$AA?$CB?$AA?5?$AA?$CI?$AAD?$AAM?$AAA?$AA?$CJ?$AA?5?$AAI?$AAn?$AAi?$AAt?$AAi?$AAa?$AAl?$AAi?$AAz?$AAe?$AAD?$AAe?$AAv?$AAi?$AAc?$AAe?$AA?5?$AA?3?$AAF@| DCB "E"
	DCB	0x0, "R", 0x0, "R", 0x0, "O", 0x0, "R", 0x0, "!", 0x0, " "
	DCB	0x0, "(", 0x0, "D", 0x0, "M", 0x0, "A", 0x0, ")", 0x0, " "
	DCB	0x0, "I", 0x0, "n", 0x0, "i", 0x0, "t", 0x0, "i", 0x0, "a"
	DCB	0x0, "l", 0x0, "i", 0x0, "z", 0x0, "e", 0x0, "D", 0x0, "e"
	DCB	0x0, "v", 0x0, "i", 0x0, "c", 0x0, "e", 0x0, " ", 0x0, ":"
	DCB	0x0, "F", 0x0, "a", 0x0, "i", 0x0, "l", 0x0, "e", 0x0, "d"
	DCB	0x0, " ", 0x0, "t", 0x0, "o", 0x0, " ", 0x0, "s", 0x0, "t"
	DCB	0x0, "a", 0x0, "r", 0x0, "t", 0x0, " ", 0x0, "i", 0x0, "n"
	DCB	0x0, "t", 0x0, "e", 0x0, "r", 0x0, "r", 0x0, "u", 0x0, "p"
	DCB	0x0, "t", 0x0, " ", 0x0, "t", 0x0, "h", 0x0, "r", 0x0, "e"
	DCB	0x0, "a", 0x0, "d", 0x0, " ", 0x0, "f", 0x0, "o", 0x0, "r"
	DCB	0x0, " ", 0x0, "s", 0x0, "y", 0x0, "s", 0x0, "t", 0x0, "e"
	DCB	0x0, "m", 0x0, " ", 0x0, "d", 0x0, "m", 0x0, "a", 0x0, " "
	DCB	0x0, "c", 0x0, "o", 0x0, "n", 0x0, "t", 0x0, "r", 0x0, "o"
	DCB	0x0, "l", 0x0, "l", 0x0, "e", 0x0, "r", 0x0, "(", 0x0, "e"
	DCB	0x0, "r", 0x0, "r", 0x0, "=", 0x0, "0", 0x0, "x", 0x0, "%"
	DCB	0x0, "0", 0x0, "8", 0x0, "X", 0x0, ")", 0x0, 0x0, 0x0 ; `string'

  00000			 AREA	 |.rdata|, DATA, READONLY
|??_C@_1KM@BDFIBLIG@?$AAE?$AAR?$AAR?$AAO?$AAR?$AA?$CB?$AA?5?$AA?$CI?$AAD?$AAM?$AAA?$AA?$CJ?$AA?5?$AAI?$AAn?$AAi?$AAt?$AAi?$AAa?$AAl?$AAi?$AAz?$AAe?$AAD?$AAe?$AAv?$AAi?$AAc?$AAe?$AA?5?$AA?3?$AAF@| DCB "E"
	DCB	0x0, "R", 0x0, "R", 0x0, "O", 0x0, "R", 0x0, "!", 0x0, " "
	DCB	0x0, "(", 0x0, "D", 0x0, "M", 0x0, "A", 0x0, ")", 0x0, " "
	DCB	0x0, "I", 0x0, "n", 0x0, "i", 0x0, "t", 0x0, "i", 0x0, "a"
	DCB	0x0, "l", 0x0, "i", 0x0, "z", 0x0, "e", 0x0, "D", 0x0, "e"
	DCB	0x0, "v", 0x0, "i", 0x0, "c", 0x0, "e", 0x0, " ", 0x0, ":"
	DCB	0x0, "F", 0x0, "a", 0x0, "i", 0x0, "l", 0x0, "e", 0x0, "d"
	DCB	0x0, " ", 0x0, "t", 0x0, "o", 0x0, " ", 0x0, "i", 0x0, "n"
	DCB	0x0, "i", 0x0, "t", 0x0, "i", 0x0, "a", 0x0, "l", 0x0, "i"
	DCB	0x0, "z", 0x0, "e", 0x0, " ", 0x0, "s", 0x0, "y", 0x0, "s"
	DCB	0x0, "t", 0x0, "e", 0x0, "m", 0x0, " ", 0x0, "d", 0x0, "m"
	DCB	0x0, "a", 0x0, " ", 0x0, "c", 0x0, "o", 0x0, "n", 0x0, "t"
	DCB	0x0, "r", 0x0, "o", 0x0, "l", 0x0, "l", 0x0, "e", 0x0, "r"
	DCB	0x0, "(", 0x0, "e", 0x0, "r", 0x0, "r", 0x0, "=", 0x0, "0"
	DCB	0x0, "x", 0x0, "%", 0x0, "0", 0x0, "8", 0x0, "X", 0x0, ")"
	DCB	0x0, 0x0, 0x0				; `string'

  00000			 AREA	 |.rdata|, DATA, READONLY
|??_C@_19EMJFMDEF@?$AAI?$AAR?$AAQ?$AA3?$AA?$AA@| DCB "I", 0x0, "R", 0x0, "Q"
	DCB	0x0, "3", 0x0, 0x0, 0x0			; `string'

  00000			 AREA	 |.rdata|, DATA, READONLY
|??_C@_19PECJKECA@?$AAI?$AAR?$AAQ?$AA2?$AA?$AA@| DCB "I", 0x0, "R", 0x0, "Q"
	DCB	0x0, "2", 0x0, 0x0, 0x0			; `string'

  00000			 AREA	 |.rdata|, DATA, READONLY
|??_C@_19OGJMALMO@?$AAI?$AAR?$AAQ?$AA1?$AA?$AA@| DCB "I", 0x0, "R", 0x0, "Q"
	DCB	0x0, "1", 0x0, 0x0, 0x0			; `string'

  00000			 AREA	 |.rdata|, DATA, READONLY
|??_C@_19FOCAGMKL@?$AAI?$AAR?$AAQ?$AA0?$AA?$AA@| DCB "I", 0x0, "R", 0x0, "Q"
	DCB	0x0, "0", 0x0, 0x0, 0x0			; `string'

  00000			 AREA	 |.rdata|, DATA, READONLY
|??_C@_1KI@PEEAJLIM@?$AAE?$AAR?$AAR?$AAO?$AAR?$AA?$CB?$AA?5?$AA?$CI?$AAD?$AAM?$AAA?$AA?$CJ?$AA?5?$AAI?$AAn?$AAi?$AAt?$AAi?$AAa?$AAl?$AAi?$AAz?$AAe?$AAD?$AAe?$AAv?$AAi?$AAc?$AAe?$AA?5?$AA?3?$AAU@| DCB "E"
	DCB	0x0, "R", 0x0, "R", 0x0, "O", 0x0, "R", 0x0, "!", 0x0, " "
	DCB	0x0, "(", 0x0, "D", 0x0, "M", 0x0, "A", 0x0, ")", 0x0, " "
	DCB	0x0, "I", 0x0, "n", 0x0, "i", 0x0, "t", 0x0, "i", 0x0, "a"
	DCB	0x0, "l", 0x0, "i", 0x0, "z", 0x0, "e", 0x0, "D", 0x0, "e"
	DCB	0x0, "v", 0x0, "i", 0x0, "c", 0x0, "e", 0x0, " ", 0x0, ":"
	DCB	0x0, "U", 0x0, "n", 0x0, "a", 0x0, "b", 0x0, "l", 0x0, "e"
	DCB	0x0, " ", 0x0, "t", 0x0, "o", 0x0, " ", 0x0, "a", 0x0, "l"
	DCB	0x0, "l", 0x0, "o", 0x0, "c", 0x0, "a", 0x0, "t", 0x0, "e"
	DCB	0x0, " ", 0x0, "s", 0x0, "y", 0x0, "s", 0x0, "t", 0x0, "e"
	DCB	0x0, "m", 0x0, " ", 0x0, "d", 0x0, "m", 0x0, "a", 0x0, " "
	DCB	0x0, "c", 0x0, "o", 0x0, "n", 0x0, "t", 0x0, "r", 0x0, "o"
	DCB	0x0, "l", 0x0, "l", 0x0, "e", 0x0, "r", 0x0, "(", 0x0, "e"
	DCB	0x0, "r", 0x0, "r", 0x0, "=", 0x0, "0", 0x0, "x", 0x0, "%"
	DCB	0x0, "0", 0x0, "8", 0x0, "X", 0x0, ")", 0x0, 0x0, 0x0 ; `string'

  00000			 AREA	 |.rdata|, DATA, READONLY
|??_C@_1DI@NKIEHCIA@?$AA?$CL?$AAI?$AAn?$AAi?$AAt?$AAi?$AAa?$AAl?$AAi?$AAz?$AAe?$AAD?$AAe?$AAv?$AAi?$AAc?$AAe?$AA?$CI?$AA0?$AAx?$AA?$CF?$AA0?$AA8?$AAx?$AA?$CJ?$AA?$AN?$AA?6?$AA?$AA@| DCB "+"
	DCB	0x0, "I", 0x0, "n", 0x0, "i", 0x0, "t", 0x0, "i", 0x0, "a"
	DCB	0x0, "l", 0x0, "i", 0x0, "z", 0x0, "e", 0x0, "D", 0x0, "e"
	DCB	0x0, "v", 0x0, "i", 0x0, "c", 0x0, "e", 0x0, "(", 0x0, "0"
	DCB	0x0, "x", 0x0, "%", 0x0, "0", 0x0, "8", 0x0, "x", 0x0, ")"
	DCB	0x0, 0xd, 0x0, 0xa, 0x0, 0x0, 0x0	; `string'
; Function compile flags: /Odtp

  00000			 AREA	 |.text|, CODE, ARM

  00000		 |?InitializeDevice@@YAHPAUDevice_t@@@Z| PROC ; InitializeDevice

; 107  : {

  00000		 |$LN23@Initialize|
  00000	e1a0c00d	 mov         r12, sp
  00004	e92d0001	 stmdb       sp!, {r0}
  00008	e92d5010	 stmdb       sp!, {r4, r12, lr}
  0000c	e24dd06c	 sub         sp, sp, #0x6C
  00010		 |$M36587|

; 108  :     DEBUGMSG(ZONE_FUNCTION, (
; 109  :         L"+InitializeDevice(0x%08x)\r\n", pDevice
; 110  :         ));

  00010	e59f32e4	 ldr         r3, [pc, #0x2E4]
  00014	e5933440	 ldr         r3, [r3, #0x440]
  00018	e3130004	 tst         r3, #4
  0001c	0a000005	 beq         |$LN9@Initialize|
  00020	e59d1078	 ldr         r1, [sp, #0x78]
  00024	e59f02f0	 ldr         r0, [pc, #0x2F0]
  00028	eb000000	 bl          NKDbgPrintfW
  0002c	e3a03001	 mov         r3, #1
  00030	e58d3024	 str         r3, [sp, #0x24]
  00034	ea000001	 b           |$LN10@Initialize|
  00038		 |$LN9@Initialize|
  00038	e3a03000	 mov         r3, #0
  0003c	e58d3024	 str         r3, [sp, #0x24]
  00040		 |$LN10@Initialize|

; 111  : 
; 112  :     BOOL rc = FALSE;

  00040	e3a03000	 mov         r3, #0
  00044	e58d3000	 str         r3, [sp]

; 113  :     PHYSICAL_ADDRESS pa;
; 114  :     DWORD SysIntArray[OMAP_DMA_INTERRUPT_COUNT];
; 115  :     
; 116  :     // create instance of objects
; 117  :     pDevice->pSystemController = new SystemDmaController();

  00048	e3a0006c	 mov         r0, #0x6C
  0004c	eb000000	 bl          |??2@YAPAXI@Z|
  00050	e58d0028	 str         r0, [sp, #0x28]
  00054	e59d3028	 ldr         r3, [sp, #0x28]
  00058	e58d301c	 str         r3, [sp, #0x1C]
  0005c	e59d301c	 ldr         r3, [sp, #0x1C]
  00060	e3530000	 cmp         r3, #0
  00064	0a000005	 beq         |$LN11@Initialize|
  00068	e59d001c	 ldr         r0, [sp, #0x1C]
  0006c	eb000000	 bl          |??0SystemDmaController@@QAA@XZ|
  00070	e58d002c	 str         r0, [sp, #0x2C]
  00074	e59d302c	 ldr         r3, [sp, #0x2C]
  00078	e58d3030	 str         r3, [sp, #0x30]
  0007c	ea000001	 b           |$LN12@Initialize|
  00080		 |$LN11@Initialize|
  00080	e3a03000	 mov         r3, #0
  00084	e58d3030	 str         r3, [sp, #0x30]
  00088		 |$LN12@Initialize|
  00088	e59d3078	 ldr         r3, [sp, #0x78]
  0008c	e2832014	 add         r2, r3, #0x14
  00090	e59d3030	 ldr         r3, [sp, #0x30]
  00094	e5823000	 str         r3, [r2]

; 118  :     if (pDevice->pSystemController == NULL)

  00098	e59d3078	 ldr         r3, [sp, #0x78]
  0009c	e2833014	 add         r3, r3, #0x14
  000a0	e5933000	 ldr         r3, [r3]
  000a4	e3530000	 cmp         r3, #0
  000a8	1a00000f	 bne         |$LN6@Initialize|

; 119  :         {
; 120  :         RETAILMSG(ZONE_ERROR, (L"ERROR! (DMA) InitializeDevice :"
; 121  :             L"Unable to allocate system dma controller(err=0x%08X)",
; 122  :             GetLastError()
; 123  :             ));

  000ac	e59f3248	 ldr         r3, [pc, #0x248]
  000b0	e5933440	 ldr         r3, [r3, #0x440]
  000b4	e3130001	 tst         r3, #1
  000b8	0a000007	 beq         |$LN13@Initialize|
  000bc	eb000000	 bl          GetLastError
  000c0	e58d0034	 str         r0, [sp, #0x34]
  000c4	e59d1034	 ldr         r1, [sp, #0x34]
  000c8	e59f0248	 ldr         r0, [pc, #0x248]
  000cc	eb000000	 bl          NKDbgPrintfW
  000d0	e3a03001	 mov         r3, #1
  000d4	e58d3038	 str         r3, [sp, #0x38]
  000d8	ea000001	 b           |$LN14@Initialize|
  000dc		 |$LN13@Initialize|
  000dc	e3a03000	 mov         r3, #0
  000e0	e58d3038	 str         r3, [sp, #0x38]
  000e4		 |$LN14@Initialize|

; 124  :         goto cleanUp;

  000e4	ea000071	 b           |$LN5@Initialize|
  000e8	ea000070	 b           |$cleanUp$36215|
  000ec		 |$LN6@Initialize|

; 125  :         }
; 126  : 
; 127  :     SysIntArray[0] = GetIrqByDevice(pDevice->SdmaDevice,L"IRQ0");

  000ec	e59f1220	 ldr         r1, [pc, #0x220]
  000f0	e59d3078	 ldr         r3, [sp, #0x78]
  000f4	e2833004	 add         r3, r3, #4
  000f8	e5930000	 ldr         r0, [r3]
  000fc	eb000000	 bl          GetIrqByDevice
  00100	e58d003c	 str         r0, [sp, #0x3C]
  00104	e59d303c	 ldr         r3, [sp, #0x3C]
  00108	e58d300c	 str         r3, [sp, #0xC]

; 128  :     SysIntArray[1] = GetIrqByDevice(pDevice->SdmaDevice,L"IRQ1");

  0010c	e59f11fc	 ldr         r1, [pc, #0x1FC]
  00110	e59d3078	 ldr         r3, [sp, #0x78]
  00114	e2833004	 add         r3, r3, #4
  00118	e5930000	 ldr         r0, [r3]
  0011c	eb000000	 bl          GetIrqByDevice
  00120	e58d0040	 str         r0, [sp, #0x40]
  00124	e59d3040	 ldr         r3, [sp, #0x40]
  00128	e58d3010	 str         r3, [sp, #0x10]

; 129  :     SysIntArray[2] = GetIrqByDevice(pDevice->SdmaDevice,L"IRQ2");

  0012c	e59f11d8	 ldr         r1, [pc, #0x1D8]
  00130	e59d3078	 ldr         r3, [sp, #0x78]
  00134	e2833004	 add         r3, r3, #4
  00138	e5930000	 ldr         r0, [r3]
  0013c	eb000000	 bl          GetIrqByDevice
  00140	e58d0044	 str         r0, [sp, #0x44]
  00144	e59d3044	 ldr         r3, [sp, #0x44]
  00148	e58d3014	 str         r3, [sp, #0x14]

; 130  :     SysIntArray[3] = GetIrqByDevice(pDevice->SdmaDevice,L"IRQ3");

  0014c	e59f11b4	 ldr         r1, [pc, #0x1B4]
  00150	e59d3078	 ldr         r3, [sp, #0x78]
  00154	e2833004	 add         r3, r3, #4
  00158	e5930000	 ldr         r0, [r3]
  0015c	eb000000	 bl          GetIrqByDevice
  00160	e58d0048	 str         r0, [sp, #0x48]
  00164	e59d3048	 ldr         r3, [sp, #0x48]
  00168	e58d3018	 str         r3, [sp, #0x18]

; 131  :     // initialize objects
; 132  :     pa.HighPart = 0;

  0016c	e3a03000	 mov         r3, #0
  00170	e58d3008	 str         r3, [sp, #8]

; 133  :     pa.LowPart = GetAddressByDevice(pDevice->SdmaDevice);

  00174	e59d3078	 ldr         r3, [sp, #0x78]
  00178	e2833004	 add         r3, r3, #4
  0017c	e5930000	 ldr         r0, [r3]
  00180	eb000000	 bl          GetAddressByDevice
  00184	e58d004c	 str         r0, [sp, #0x4C]
  00188	e59d304c	 ldr         r3, [sp, #0x4C]
  0018c	e58d3004	 str         r3, [sp, #4]

; 134  :     if (pDevice->pSystemController->Initialize(
; 135  :             pa,
; 136  : 			sizeof(OMAP_SDMA_REGS),
; 137  :             SysIntArray) == FALSE)

  00190	e28d300c	 add         r3, sp, #0xC
  00194	e3a02d32	 mov         r2, #0x32, 26
  00198	e28d1004	 add         r1, sp, #4
  0019c	e59d0078	 ldr         r0, [sp, #0x78]
  001a0	e2800014	 add         r0, r0, #0x14
  001a4	e590e000	 ldr         lr, [r0]
  001a8	e59d0078	 ldr         r0, [sp, #0x78]
  001ac	e2800014	 add         r0, r0, #0x14
  001b0	e5904000	 ldr         r4, [r0]
  001b4	e59e0000	 ldr         r0, [lr]
  001b8	e280e024	 add         lr, r0, #0x24
  001bc	e1a00004	 mov         r0, r4
  001c0	e59e4000	 ldr         r4, [lr]
  001c4	e1a0e00f	 mov         lr, pc
  001c8	e12fff14	 bx          r4
  001cc	e58d0050	 str         r0, [sp, #0x50]
  001d0	e59d3050	 ldr         r3, [sp, #0x50]
  001d4	e3530000	 cmp         r3, #0
  001d8	1a00000f	 bne         |$LN4@Initialize|

; 138  :         {
; 139  :         RETAILMSG(ZONE_ERROR, (L"ERROR! (DMA) InitializeDevice :"
; 140  :             L"Failed to initialize system dma controller(err=0x%08X)",
; 141  :             GetLastError()
; 142  :             ));

  001dc	e59f3118	 ldr         r3, [pc, #0x118]
  001e0	e5933440	 ldr         r3, [r3, #0x440]
  001e4	e3130001	 tst         r3, #1
  001e8	0a000007	 beq         |$LN15@Initialize|
  001ec	eb000000	 bl          GetLastError
  001f0	e58d0054	 str         r0, [sp, #0x54]
  001f4	e59d1054	 ldr         r1, [sp, #0x54]
  001f8	e59f0104	 ldr         r0, [pc, #0x104]
  001fc	eb000000	 bl          NKDbgPrintfW
  00200	e3a03001	 mov         r3, #1
  00204	e58d3058	 str         r3, [sp, #0x58]
  00208	ea000001	 b           |$LN16@Initialize|
  0020c		 |$LN15@Initialize|
  0020c	e3a03000	 mov         r3, #0
  00210	e58d3058	 str         r3, [sp, #0x58]
  00214		 |$LN16@Initialize|

; 143  :         goto cleanUp;

  00214	ea000025	 b           |$LN3@Initialize|
  00218	ea000024	 b           |$cleanUp$36215|
  0021c		 |$LN4@Initialize|

; 144  :         }
; 145  : 
; 146  :     // start interrupt handlers
; 147  :     if (pDevice->pSystemController->StartInterruptThread(
; 148  :             SysIntArray[0], pDevice->priority) == FALSE)

  0021c	e59d3078	 ldr         r3, [sp, #0x78]
  00220	e2833010	 add         r3, r3, #0x10
  00224	e5932000	 ldr         r2, [r3]
  00228	e59d100c	 ldr         r1, [sp, #0xC]
  0022c	e59d3078	 ldr         r3, [sp, #0x78]
  00230	e2833014	 add         r3, r3, #0x14
  00234	e593e000	 ldr         lr, [r3]
  00238	e59d3078	 ldr         r3, [sp, #0x78]
  0023c	e2833014	 add         r3, r3, #0x14
  00240	e5930000	 ldr         r0, [r3]
  00244	e59e3000	 ldr         r3, [lr]
  00248	e283300c	 add         r3, r3, #0xC
  0024c	e5933000	 ldr         r3, [r3]
  00250	e1a0e00f	 mov         lr, pc
  00254	e12fff13	 bx          r3
  00258	e58d005c	 str         r0, [sp, #0x5C]
  0025c	e59d305c	 ldr         r3, [sp, #0x5C]
  00260	e3530000	 cmp         r3, #0
  00264	1a00000f	 bne         |$LN2@Initialize|

; 149  :         {
; 150  :         RETAILMSG(ZONE_ERROR, (L"ERROR! (DMA) InitializeDevice :"
; 151  :             L"Failed to start interrupt thread for system dma controller"
; 152  :             L"(err=0x%08X)",
; 153  :             GetLastError()
; 154  :             ));

  00268	e59f308c	 ldr         r3, [pc, #0x8C]
  0026c	e5933440	 ldr         r3, [r3, #0x440]
  00270	e3130001	 tst         r3, #1
  00274	0a000007	 beq         |$LN17@Initialize|
  00278	eb000000	 bl          GetLastError
  0027c	e58d0060	 str         r0, [sp, #0x60]
  00280	e59d1060	 ldr         r1, [sp, #0x60]
  00284	e59f0074	 ldr         r0, [pc, #0x74]
  00288	eb000000	 bl          NKDbgPrintfW
  0028c	e3a03001	 mov         r3, #1
  00290	e58d3064	 str         r3, [sp, #0x64]
  00294	ea000001	 b           |$LN18@Initialize|
  00298		 |$LN17@Initialize|
  00298	e3a03000	 mov         r3, #0
  0029c	e58d3064	 str         r3, [sp, #0x64]
  002a0		 |$LN18@Initialize|

; 155  :         goto cleanUp;

  002a0	ea000002	 b           |$LN1@Initialize|
  002a4	ea000001	 b           |$cleanUp$36215|
  002a8		 |$LN2@Initialize|

; 156  :         }
; 157  : 
; 158  :     rc = TRUE;

  002a8	e3a03001	 mov         r3, #1
  002ac	e58d3000	 str         r3, [sp]
  002b0		 |$LN1@Initialize|
  002b0		 |$LN3@Initialize|
  002b0		 |$LN5@Initialize|
  002b0		 |$cleanUp$36215|

; 159  : 
; 160  : cleanUp:
; 161  :     DEBUGMSG(ZONE_FUNCTION, (
; 162  :         L"-InitializeDevice(rc=%d)\r\n", rc
; 163  :         ));

  002b0	e59f3044	 ldr         r3, [pc, #0x44]
  002b4	e5933440	 ldr         r3, [r3, #0x440]
  002b8	e3130004	 tst         r3, #4
  002bc	0a000005	 beq         |$LN19@Initialize|
  002c0	e59d1000	 ldr         r1, [sp]
  002c4	e59f002c	 ldr         r0, [pc, #0x2C]
  002c8	eb000000	 bl          NKDbgPrintfW
  002cc	e3a03001	 mov         r3, #1
  002d0	e58d3068	 str         r3, [sp, #0x68]
  002d4	ea000001	 b           |$LN20@Initialize|
  002d8		 |$LN19@Initialize|
  002d8	e3a03000	 mov         r3, #0
  002dc	e58d3068	 str         r3, [sp, #0x68]
  002e0		 |$LN20@Initialize|

; 164  :     return rc;

  002e0	e59d3000	 ldr         r3, [sp]
  002e4	e58d3020	 str         r3, [sp, #0x20]

; 165  : }

  002e8	e59d0020	 ldr         r0, [sp, #0x20]
  002ec	e28dd06c	 add         sp, sp, #0x6C
  002f0	e89d6010	 ldmia       sp, {r4, sp, lr}
  002f4	e12fff1e	 bx          lr
  002f8		 |$LN24@Initialize|
  002f8		 |$LN25@Initialize|
  002f8	00000000	 DCD         |??_C@_1DG@MCBGCBMD@?$AA?9?$AAI?$AAn?$AAi?$AAt?$AAi?$AAa?$AAl?$AAi?$AAz?$AAe?$AAD?$AAe?$AAv?$AAi?$AAc?$AAe?$AA?$CI?$AAr?$AAc?$AA?$DN?$AA?$CF?$AAd?$AA?$CJ?$AA?$AN?$AA?6?$AA?$AA@|
  002fc		 |$LN26@Initialize|
  002fc	00000000	 DCD         |dpCurSettings|
  00300		 |$LN27@Initialize|
  00300	00000000	 DCD         |??_C@_1MM@FBHDPICO@?$AAE?$AAR?$AAR?$AAO?$AAR?$AA?$CB?$AA?5?$AA?$CI?$AAD?$AAM?$AAA?$AA?$CJ?$AA?5?$AAI?$AAn?$AAi?$AAt?$AAi?$AAa?$AAl?$AAi?$AAz?$AAe?$AAD?$AAe?$AAv?$AAi?$AAc?$AAe?$AA?5?$AA?3?$AAF@|
  00304		 |$LN28@Initialize|
  00304	00000000	 DCD         |??_C@_1KM@BDFIBLIG@?$AAE?$AAR?$AAR?$AAO?$AAR?$AA?$CB?$AA?5?$AA?$CI?$AAD?$AAM?$AAA?$AA?$CJ?$AA?5?$AAI?$AAn?$AAi?$AAt?$AAi?$AAa?$AAl?$AAi?$AAz?$AAe?$AAD?$AAe?$AAv?$AAi?$AAc?$AAe?$AA?5?$AA?3?$AAF@|
  00308		 |$LN29@Initialize|
  00308	00000000	 DCD         |??_C@_19EMJFMDEF@?$AAI?$AAR?$AAQ?$AA3?$AA?$AA@|
  0030c		 |$LN30@Initialize|
  0030c	00000000	 DCD         |??_C@_19PECJKECA@?$AAI?$AAR?$AAQ?$AA2?$AA?$AA@|
  00310		 |$LN31@Initialize|
  00310	00000000	 DCD         |??_C@_19OGJMALMO@?$AAI?$AAR?$AAQ?$AA1?$AA?$AA@|
  00314		 |$LN32@Initialize|
  00314	00000000	 DCD         |??_C@_19FOCAGMKL@?$AAI?$AAR?$AAQ?$AA0?$AA?$AA@|
  00318		 |$LN33@Initialize|
  00318	00000000	 DCD         |??_C@_1KI@PEEAJLIM@?$AAE?$AAR?$AAR?$AAO?$AAR?$AA?$CB?$AA?5?$AA?$CI?$AAD?$AAM?$AAA?$AA?$CJ?$AA?5?$AAI?$AAn?$AAi?$AAt?$AAi?$AAa?$AAl?$AAi?$AAz?$AAe?$AAD?$AAe?$AAv?$AAi?$AAc?$AAe?$AA?5?$AA?3?$AAU@|
  0031c		 |$LN34@Initialize|
  0031c	00000000	 DCD         |??_C@_1DI@NKIEHCIA@?$AA?$CL?$AAI?$AAn?$AAi?$AAt?$AAi?$AAa?$AAl?$AAi?$AAz?$AAe?$AAD?$AAe?$AAv?$AAi?$AAc?$AAe?$AA?$CI?$AA0?$AAx?$AA?$CF?$AA0?$AA8?$AAx?$AA?$CJ?$AA?$AN?$AA?6?$AA?$AA@|
  00320		 |$M36588|

			 ENDP  ; |?InitializeDevice@@YAHPAUDevice_t@@@Z|, InitializeDevice

	EXPORT	|??_7SystemDmaController@@6B@| [ DATA ]	; SystemDmaController::`vftable'
	EXPORT	|??0DmaControllerBase@@QAA@H@Z|		; DmaControllerBase::DmaControllerBase
	IMPORT	|?EnableInterrupt@SystemDmaController@@MAAXHH@Z| ; SystemDmaController::EnableInterrupt
	IMPORT	|?GetInterruptMask@SystemDmaController@@UAAHPAXPAK@Z| ; SystemDmaController::GetInterruptMask
	IMPORT	|?ClearInterruptMask@SystemDmaController@@UAAHPAXK@Z| ; SystemDmaController::ClearInterruptMask
	IMPORT	|?StartInterruptThread@DmaControllerBase@@UAAHKK@Z| ; DmaControllerBase::StartInterruptThread
	IMPORT	|?ReserveChannel@DmaControllerBase@@UAAHPAUDmaChannelContext_t@@@Z| ; DmaControllerBase::ReserveChannel
	IMPORT	|?ReleaseChannel@DmaControllerBase@@UAAXPBUDmaChannelContext_t@@@Z| ; DmaControllerBase::ReleaseChannel
	IMPORT	|?Uninitialize@SystemDmaController@@UAAXXZ| ; SystemDmaController::Uninitialize
	IMPORT	|?Initialize@DmaControllerBase@@UAAHABT_LARGE_INTEGER@@K@Z| ; DmaControllerBase::Initialize
	IMPORT	|?DisableStandby@SystemDmaController@@UAAHPAXH@Z| ; SystemDmaController::DisableStandby
	IMPORT	|?Initialize@SystemDmaController@@UAAHABT_LARGE_INTEGER@@KPAK@Z| ; SystemDmaController::Initialize
	IMPORT	|?DI_ReserveInterrupt@SystemDmaController@@UAAHKPAK00@Z| ; SystemDmaController::DI_ReserveInterrupt
	IMPORT	|?DI_ReleaseInterrupt@SystemDmaController@@UAAHK@Z| ; SystemDmaController::DI_ReleaseInterrupt
; File c:\wince600\platform\common\src\soc\common_ti_v1\common_ti\sdma\dmacontroller.h

  00000			 AREA	 |.pdata|, PDATA
|$T36607| DCD	|$LN8@SystemDmaC|
	DCD	0x40002f04

  00000			 AREA	 |.rdata|, DATA, READONLY
|??_7SystemDmaController@@6B@| DCD |?EnableInterrupt@SystemDmaController@@MAAXHH@Z| ; SystemDmaController::`vftable'
	DCD	|?GetInterruptMask@SystemDmaController@@UAAHPAXPAK@Z|
	DCD	|?ClearInterruptMask@SystemDmaController@@UAAHPAXK@Z|
	DCD	|?StartInterruptThread@DmaControllerBase@@UAAHKK@Z|
	DCD	|?ReserveChannel@DmaControllerBase@@UAAHPAUDmaChannelContext_t@@@Z|
	DCD	|?ReleaseChannel@DmaControllerBase@@UAAXPBUDmaChannelContext_t@@@Z|
	DCD	|?Uninitialize@SystemDmaController@@UAAXXZ|
	DCD	|?Initialize@DmaControllerBase@@UAAHABT_LARGE_INTEGER@@K@Z|
	DCD	|?DisableStandby@SystemDmaController@@UAAHPAXH@Z|
	DCD	|?Initialize@SystemDmaController@@UAAHABT_LARGE_INTEGER@@KPAK@Z|
	DCD	|?DI_ReserveInterrupt@SystemDmaController@@UAAHKPAK00@Z|
	DCD	|?DI_ReleaseInterrupt@SystemDmaController@@UAAHK@Z|
; Function compile flags: /Odtp

  00000			 AREA	 |.text|, CODE, ARM

  00000		 |??0SystemDmaController@@QAA@XZ| PROC	; SystemDmaController::SystemDmaController

; 204  :     {

  00000		 |$LN8@SystemDmaC|
  00000	e1a0c00d	 mov         r12, sp
  00004	e92d0001	 stmdb       sp!, {r0}
  00008	e92d5000	 stmdb       sp!, {r12, lr}
  0000c	e24dd008	 sub         sp, sp, #8
  00010		 |$M36604|
  00010	e3a01020	 mov         r1, #0x20
  00014	e59d0010	 ldr         r0, [sp, #0x10]
  00018	eb000000	 bl          |??0DmaControllerBase@@QAA@H@Z|
  0001c	e59f2094	 ldr         r2, [pc, #0x94]
  00020	e59d3010	 ldr         r3, [sp, #0x10]
  00024	e5832000	 str         r2, [r3]
  00028	e59d3010	 ldr         r3, [sp, #0x10]
  0002c	e2832024	 add         r2, r3, #0x24
  00030	e3a03000	 mov         r3, #0
  00034	e5823000	 str         r3, [r2]

; 205  :     int i;
; 206  : 
; 207  :     for(i=0; i < OMAP_DMA_INTERRUPT_COUNT; i++)

  00038	e3a03000	 mov         r3, #0
  0003c	e58d3000	 str         r3, [sp]
  00040	ea000002	 b           |$LN3@SystemDmaC|
  00044		 |$LN2@SystemDmaC|
  00044	e59d3000	 ldr         r3, [sp]
  00048	e2833001	 add         r3, r3, #1
  0004c	e58d3000	 str         r3, [sp]
  00050		 |$LN3@SystemDmaC|
  00050	e59d3000	 ldr         r3, [sp]
  00054	e3530004	 cmp         r3, #4
  00058	aa000010	 bge         |$LN1@SystemDmaC|

; 208  :         {
; 209  :         m_IrqNumsArray[i] = (DWORD)-1;

  0005c	e59d3010	 ldr         r3, [sp, #0x10]
  00060	e283103c	 add         r1, r3, #0x3C
  00064	e59d2000	 ldr         r2, [sp]
  00068	e3a03004	 mov         r3, #4
  0006c	e0030392	 mul         r3, r2, r3
  00070	e0812003	 add         r2, r1, r3
  00074	e3e03000	 mvn         r3, #0
  00078	e5823000	 str         r3, [r2]

; 210  :         m_AllocatedIntArray[i] = FALSE;

  0007c	e59d3010	 ldr         r3, [sp, #0x10]
  00080	e283104c	 add         r1, r3, #0x4C
  00084	e59d2000	 ldr         r2, [sp]
  00088	e3a03004	 mov         r3, #4
  0008c	e0030392	 mul         r3, r2, r3
  00090	e0812003	 add         r2, r1, r3
  00094	e3a03000	 mov         r3, #0
  00098	e5823000	 str         r3, [r2]

; 211  :         }

  0009c	eaffffe8	 b           |$LN2@SystemDmaC|
  000a0		 |$LN1@SystemDmaC|

; 212  :     }

  000a0	e59d3010	 ldr         r3, [sp, #0x10]
  000a4	e58d3004	 str         r3, [sp, #4]
  000a8	e59d0004	 ldr         r0, [sp, #4]
  000ac	e28dd008	 add         sp, sp, #8
  000b0	e89d6000	 ldmia       sp, {sp, lr}
  000b4	e12fff1e	 bx          lr
  000b8		 |$LN9@SystemDmaC|
  000b8		 |$LN10@SystemDmaC|
  000b8	00000000	 DCD         |??_7SystemDmaController@@6B@|
  000bc		 |$M36605|

			 ENDP  ; |??0SystemDmaController@@QAA@XZ|, SystemDmaController::SystemDmaController

	EXPORT	|??_7DmaControllerBase@@6B@| [ DATA ]	; DmaControllerBase::`vftable'
	IMPORT	|_purecall|
	IMPORT	|?Uninitialize@DmaControllerBase@@UAAXXZ| ; DmaControllerBase::Uninitialize

  00000			 AREA	 |.pdata|, PDATA
|$T36617| DCD	|$LN5@DmaControl|
	DCD	0x40002204

  00000			 AREA	 |.rdata|, DATA, READONLY
|??_7DmaControllerBase@@6B@| DCD |_purecall|		; DmaControllerBase::`vftable'
	DCD	|_purecall|
	DCD	|_purecall|
	DCD	|?StartInterruptThread@DmaControllerBase@@UAAHKK@Z|
	DCD	|?ReserveChannel@DmaControllerBase@@UAAHPAUDmaChannelContext_t@@@Z|
	DCD	|?ReleaseChannel@DmaControllerBase@@UAAXPBUDmaChannelContext_t@@@Z|
	DCD	|?Uninitialize@DmaControllerBase@@UAAXXZ|
	DCD	|?Initialize@DmaControllerBase@@UAAHABT_LARGE_INTEGER@@K@Z|
	DCD	|_purecall|
; Function compile flags: /Odtp

  00000			 AREA	 |.text|, CODE, ARM

  00000		 |??0DmaControllerBase@@QAA@H@Z| PROC	; DmaControllerBase::DmaControllerBase

; 51   :     {

  00000		 |$LN5@DmaControl|
  00000	e1a0c00d	 mov         r12, sp
  00004	e92d0003	 stmdb       sp!, {r0, r1}
  00008	e92d5000	 stmdb       sp!, {r12, lr}
  0000c	e24dd004	 sub         sp, sp, #4
  00010		 |$M36614|
  00010	e59f206c	 ldr         r2, [pc, #0x6C]
  00014	e59d300c	 ldr         r3, [sp, #0xC]
  00018	e5832000	 str         r2, [r3]
  0001c	e59d300c	 ldr         r3, [sp, #0xC]
  00020	e2832004	 add         r2, r3, #4
  00024	e3a03000	 mov         r3, #0
  00028	e5823000	 str         r3, [r2]
  0002c	e59d300c	 ldr         r3, [sp, #0xC]
  00030	e2832008	 add         r2, r3, #8
  00034	e59d3010	 ldr         r3, [sp, #0x10]
  00038	e5823000	 str         r3, [r2]
  0003c	e59d300c	 ldr         r3, [sp, #0xC]
  00040	e283200c	 add         r2, r3, #0xC
  00044	e3a03000	 mov         r3, #0
  00048	e5823000	 str         r3, [r2]
  0004c	e59d300c	 ldr         r3, [sp, #0xC]
  00050	e2832010	 add         r2, r3, #0x10
  00054	e3a03000	 mov         r3, #0
  00058	e5823000	 str         r3, [r2]
  0005c	e59d300c	 ldr         r3, [sp, #0xC]
  00060	e2832014	 add         r2, r3, #0x14
  00064	e3a03000	 mov         r3, #0
  00068	e5823000	 str         r3, [r2]

; 52   :     }

  0006c	e59d300c	 ldr         r3, [sp, #0xC]
  00070	e58d3000	 str         r3, [sp]
  00074	e59d0000	 ldr         r0, [sp]
  00078	e28dd004	 add         sp, sp, #4
  0007c	e89d6000	 ldmia       sp, {sp, lr}
  00080	e12fff1e	 bx          lr
  00084		 |$LN6@DmaControl|
  00084		 |$LN7@DmaControl|
  00084	00000000	 DCD         |??_7DmaControllerBase@@6B@|
  00088		 |$M36615|

			 ENDP  ; |??0DmaControllerBase@@QAA@H@Z|, DmaControllerBase::DmaControllerBase

	EXPORT	|??_C@_1CK@NJKBHEIK@?$AA?9?$AAD?$AAM?$AAA?$AA_?$AAI?$AAn?$AAi?$AAt?$AA?$CI?$AAr?$AAc?$AA?5?$AA?$DN?$AA?5?$AA?$CF?$AAd?$AA?$CJ?$AA?$AN?$AA?6?$AA?$AA@| [ DATA ] ; `string'
	EXPORT	|?DMA_Deinit@@YAHK@Z|			; DMA_Deinit
	EXPORT	|??_C@_1FO@HHAGCGMC@?$AAE?$AAR?$AAR?$AAO?$AAR?$AA?3?$AA?5?$AAD?$AAM?$AAA?$AA_?$AAI?$AAn?$AAi?$AAt?$AA?3?$AA?5?$AAF?$AAa?$AAi?$AAl?$AAe?$AAd?$AA?5?$AAt?$AAo?$AA?5?$AAi?$AAn?$AAi?$AAt?$AAi@| [ DATA ] ; `string'
	EXPORT	|??_C@_1HM@MDCPMMPG@?$AAE?$AAR?$AAR?$AAO?$AAR?$AA?3?$AA?5?$AAD?$AAM?$AAA?$AA_?$AAI?$AAn?$AAi?$AAt?$AA?3?$AA?5?$AAF?$AAa?$AAi?$AAl?$AAe?$AAd?$AA?5?$AAr?$AAe?$AAa?$AAd?$AA?5?$AAD?$AAM?$AAA@| [ DATA ] ; `string'
	EXPORT	|??_C@_1HI@LLJBFHGO@?$AAE?$AAR?$AAR?$AAO?$AAR?$AA?3?$AA?5?$AAD?$AAM?$AAA?$AA_?$AAI?$AAn?$AAi?$AAt?$AA?3?$AA?5?$AAF?$AAa?$AAi?$AAl?$AAe?$AAd?$AA?5?$AAa?$AAl?$AAl?$AAo?$AAc?$AAa?$AAt?$AAe@| [ DATA ] ; `string'
	EXPORT	|??_C@_1DA@PFICBOPK@?$AA?$CL?$AAD?$AAM?$AAA?$AA_?$AAI?$AAn?$AAi?$AAt?$AA?$CI?$AA?$CF?$AAs?$AA?0?$AA?5?$AA0?$AAx?$AA?$CF?$AA0?$AA8?$AAx?$AA?$CJ?$AA?$AN?$AA?6?$AA?$AA@| [ DATA ] ; `string'
	EXPORT	|?DMA_Init@@YAKPBGPBX@Z|		; DMA_Init
	IMPORT	|EnableDeviceClocks|
	IMPORT	|SOCGetDMADevice|
	IMPORT	|GetDeviceRegistryParams|
	IMPORT	|InitializeCriticalSection|
	IMPORT	|memset|
	IMPORT	|LocalAlloc|

  00008			 AREA	 |.pdata|, PDATA
|$T36637| DCD	|$LN22@DMA_Init|
	DCD	0x40008b04
; File c:\wince600\platform\common\src\soc\common_ti_v1\common_ti\sdma\dma.cpp

  00000			 AREA	 |.rdata|, DATA, READONLY
|??_C@_1CK@NJKBHEIK@?$AA?9?$AAD?$AAM?$AAA?$AA_?$AAI?$AAn?$AAi?$AAt?$AA?$CI?$AAr?$AAc?$AA?5?$AA?$DN?$AA?5?$AA?$CF?$AAd?$AA?$CJ?$AA?$AN?$AA?6?$AA?$AA@| DCB "-"
	DCB	0x0, "D", 0x0, "M", 0x0, "A", 0x0, "_", 0x0, "I", 0x0, "n"
	DCB	0x0, "i", 0x0, "t", 0x0, "(", 0x0, "r", 0x0, "c", 0x0, " "
	DCB	0x0, "=", 0x0, " ", 0x0, "%", 0x0, "d", 0x0, ")", 0x0, 0xd
	DCB	0x0, 0xa, 0x0, 0x0, 0x0			; `string'

  00000			 AREA	 |.rdata|, DATA, READONLY
|??_C@_1FO@HHAGCGMC@?$AAE?$AAR?$AAR?$AAO?$AAR?$AA?3?$AA?5?$AAD?$AAM?$AAA?$AA_?$AAI?$AAn?$AAi?$AAt?$AA?3?$AA?5?$AAF?$AAa?$AAi?$AAl?$AAe?$AAd?$AA?5?$AAt?$AAo?$AA?5?$AAi?$AAn?$AAi?$AAt?$AAi@| DCB "E"
	DCB	0x0, "R", 0x0, "R", 0x0, "O", 0x0, "R", 0x0, ":", 0x0, " "
	DCB	0x0, "D", 0x0, "M", 0x0, "A", 0x0, "_", 0x0, "I", 0x0, "n"
	DCB	0x0, "i", 0x0, "t", 0x0, ":", 0x0, " ", 0x0, "F", 0x0, "a"
	DCB	0x0, "i", 0x0, "l", 0x0, "e", 0x0, "d", 0x0, " ", 0x0, "t"
	DCB	0x0, "o", 0x0, " ", 0x0, "i", 0x0, "n", 0x0, "i", 0x0, "t"
	DCB	0x0, "i", 0x0, "a", 0x0, "l", 0x0, "i", 0x0, "z", 0x0, "e"
	DCB	0x0, " ", 0x0, "d", 0x0, "e", 0x0, "v", 0x0, "i", 0x0, "c"
	DCB	0x0, "e", 0x0, 0xd, 0x0, 0xa, 0x0, 0x0, 0x0 ; `string'

  00000			 AREA	 |.rdata|, DATA, READONLY
|??_C@_1HM@MDCPMMPG@?$AAE?$AAR?$AAR?$AAO?$AAR?$AA?3?$AA?5?$AAD?$AAM?$AAA?$AA_?$AAI?$AAn?$AAi?$AAt?$AA?3?$AA?5?$AAF?$AAa?$AAi?$AAl?$AAe?$AAd?$AA?5?$AAr?$AAe?$AAa?$AAd?$AA?5?$AAD?$AAM?$AAA@| DCB "E"
	DCB	0x0, "R", 0x0, "R", 0x0, "O", 0x0, "R", 0x0, ":", 0x0, " "
	DCB	0x0, "D", 0x0, "M", 0x0, "A", 0x0, "_", 0x0, "I", 0x0, "n"
	DCB	0x0, "i", 0x0, "t", 0x0, ":", 0x0, " ", 0x0, "F", 0x0, "a"
	DCB	0x0, "i", 0x0, "l", 0x0, "e", 0x0, "d", 0x0, " ", 0x0, "r"
	DCB	0x0, "e", 0x0, "a", 0x0, "d", 0x0, " ", 0x0, "D", 0x0, "M"
	DCB	0x0, "A", 0x0, " ", 0x0, "d", 0x0, "r", 0x0, "i", 0x0, "v"
	DCB	0x0, "e", 0x0, "r", 0x0, " ", 0x0, "r", 0x0, "e", 0x0, "g"
	DCB	0x0, "i", 0x0, "s", 0x0, "t", 0x0, "r", 0x0, "y", 0x0, " "
	DCB	0x0, "p", 0x0, "a", 0x0, "r", 0x0, "a", 0x0, "m", 0x0, "e"
	DCB	0x0, "t", 0x0, "e", 0x0, "r", 0x0, "s", 0x0, 0xd, 0x0, 0xa
	DCB	0x0, 0x0, 0x0				; `string'

  00000			 AREA	 |.rdata|, DATA, READONLY
|??_C@_1HI@LLJBFHGO@?$AAE?$AAR?$AAR?$AAO?$AAR?$AA?3?$AA?5?$AAD?$AAM?$AAA?$AA_?$AAI?$AAn?$AAi?$AAt?$AA?3?$AA?5?$AAF?$AAa?$AAi?$AAl?$AAe?$AAd?$AA?5?$AAa?$AAl?$AAl?$AAo?$AAc?$AAa?$AAt?$AAe@| DCB "E"
	DCB	0x0, "R", 0x0, "R", 0x0, "O", 0x0, "R", 0x0, ":", 0x0, " "
	DCB	0x0, "D", 0x0, "M", 0x0, "A", 0x0, "_", 0x0, "I", 0x0, "n"
	DCB	0x0, "i", 0x0, "t", 0x0, ":", 0x0, " ", 0x0, "F", 0x0, "a"
	DCB	0x0, "i", 0x0, "l", 0x0, "e", 0x0, "d", 0x0, " ", 0x0, "a"
	DCB	0x0, "l", 0x0, "l", 0x0, "o", 0x0, "c", 0x0, "a", 0x0, "t"
	DCB	0x0, "e", 0x0, " ", 0x0, "D", 0x0, "M", 0x0, "A", 0x0, " "
	DCB	0x0, "c", 0x0, "o", 0x0, "n", 0x0, "t", 0x0, "r", 0x0, "o"
	DCB	0x0, "l", 0x0, "l", 0x0, "e", 0x0, "r", 0x0, " ", 0x0, "s"
	DCB	0x0, "t", 0x0, "r", 0x0, "u", 0x0, "c", 0x0, "t", 0x0, "u"
	DCB	0x0, "r", 0x0, "e", 0x0, 0xd, 0x0, 0xa, 0x0, 0x0, 0x0 ; `string'

  00000			 AREA	 |.rdata|, DATA, READONLY
|??_C@_1DA@PFICBOPK@?$AA?$CL?$AAD?$AAM?$AAA?$AA_?$AAI?$AAn?$AAi?$AAt?$AA?$CI?$AA?$CF?$AAs?$AA?0?$AA?5?$AA0?$AAx?$AA?$CF?$AA0?$AA8?$AAx?$AA?$CJ?$AA?$AN?$AA?6?$AA?$AA@| DCB "+"
	DCB	0x0, "D", 0x0, "M", 0x0, "A", 0x0, "_", 0x0, "I", 0x0, "n"
	DCB	0x0, "i", 0x0, "t", 0x0, "(", 0x0, "%", 0x0, "s", 0x0, ","
	DCB	0x0, " ", 0x0, "0", 0x0, "x", 0x0, "%", 0x0, "0", 0x0, "8"
	DCB	0x0, "x", 0x0, ")", 0x0, 0xd, 0x0, 0xa, 0x0, 0x0, 0x0 ; `string'
; Function compile flags: /Odtp

  00320			 AREA	 |.text|, CODE, ARM

  00320		 |?DMA_Init@@YAKPBGPBX@Z| PROC		; DMA_Init

; 179  : {

  00320		 |$LN22@DMA_Init|
  00320	e1a0c00d	 mov         r12, sp
  00324	e92d0003	 stmdb       sp!, {r0, r1}
  00328	e92d5000	 stmdb       sp!, {r12, lr}
  0032c	e24dd030	 sub         sp, sp, #0x30
  00330		 |$M36634|

; 180  :     DWORD rc = (DWORD)NULL;

  00330	e3a03000	 mov         r3, #0
  00334	e58d3004	 str         r3, [sp, #4]

; 181  : 
; 182  :     UNREFERENCED_PARAMETER(pBusContext);
; 183  :     UNREFERENCED_PARAMETER(szContext);
; 184  : 
; 185  :     DEBUGMSG(ZONE_FUNCTION, (
; 186  :         L"+DMA_Init(%s, 0x%08x)\r\n", szContext, pBusContext
; 187  :         ));

  00338	e59f31f0	 ldr         r3, [pc, #0x1F0]
  0033c	e5933440	 ldr         r3, [r3, #0x440]
  00340	e3130004	 tst         r3, #4
  00344	0a000006	 beq         |$LN10@DMA_Init|
  00348	e59d203c	 ldr         r2, [sp, #0x3C]
  0034c	e59d1038	 ldr         r1, [sp, #0x38]
  00350	e59f01f0	 ldr         r0, [pc, #0x1F0]
  00354	eb000000	 bl          NKDbgPrintfW
  00358	e3a03001	 mov         r3, #1
  0035c	e58d300c	 str         r3, [sp, #0xC]
  00360	ea000001	 b           |$LN11@DMA_Init|
  00364		 |$LN10@DMA_Init|
  00364	e3a03000	 mov         r3, #0
  00368	e58d300c	 str         r3, [sp, #0xC]
  0036c		 |$LN11@DMA_Init|

; 188  : 
; 189  :     // Create device structure
; 190  :     Device_t *pDevice = (Device_t *)LocalAlloc(LPTR, sizeof(Device_t));

  0036c	e3a01030	 mov         r1, #0x30
  00370	e3a00040	 mov         r0, #0x40
  00374	eb000000	 bl          LocalAlloc
  00378	e58d0010	 str         r0, [sp, #0x10]
  0037c	e59d3010	 ldr         r3, [sp, #0x10]
  00380	e58d3000	 str         r3, [sp]

; 191  :     if (pDevice == NULL)

  00384	e59d3000	 ldr         r3, [sp]
  00388	e3530000	 cmp         r3, #0
  0038c	1a00000c	 bne         |$LN7@DMA_Init|

; 192  :         {
; 193  :         DEBUGMSG(ZONE_ERROR, (L"ERROR: DMA_Init: "
; 194  :             L"Failed allocate DMA controller structure\r\n"
; 195  :             ));

  00390	e59f3198	 ldr         r3, [pc, #0x198]
  00394	e5933440	 ldr         r3, [r3, #0x440]
  00398	e3130001	 tst         r3, #1
  0039c	0a000004	 beq         |$LN12@DMA_Init|
  003a0	e59f019c	 ldr         r0, [pc, #0x19C]
  003a4	eb000000	 bl          NKDbgPrintfW
  003a8	e3a03001	 mov         r3, #1
  003ac	e58d3014	 str         r3, [sp, #0x14]
  003b0	ea000001	 b           |$LN13@DMA_Init|
  003b4		 |$LN12@DMA_Init|
  003b4	e3a03000	 mov         r3, #0
  003b8	e58d3014	 str         r3, [sp, #0x14]
  003bc		 |$LN13@DMA_Init|

; 196  :         goto cleanUp;

  003bc	ea000043	 b           |$LN6@DMA_Init|
  003c0	ea000042	 b           |$cleanUp$36244|
  003c4		 |$LN7@DMA_Init|

; 197  :         }
; 198  : 
; 199  :     // initialize memory
; 200  :     memset(pDevice, 0, sizeof(Device_t));

  003c4	e3a02030	 mov         r2, #0x30
  003c8	e3a01000	 mov         r1, #0
  003cc	e59d0000	 ldr         r0, [sp]
  003d0	eb000000	 bl          memset

; 201  : 
; 202  :     // Set cookie
; 203  :     pDevice->cookie = DMA_DEVICE_COOKIE;

  003d4	e59d2000	 ldr         r2, [sp]
  003d8	e59f3160	 ldr         r3, [pc, #0x160]
  003dc	e5823000	 str         r3, [r2]

; 204  : 
; 205  :     // Initalize critical section
; 206  :     InitializeCriticalSection(&pDevice->cs);

  003e0	e59d3000	 ldr         r3, [sp]
  003e4	e2830018	 add         r0, r3, #0x18
  003e8	eb000000	 bl          InitializeCriticalSection

; 207  : 
; 208  :     // Read device parameters
; 209  :     if (GetDeviceRegistryParams(
; 210  :             szContext, pDevice, dimof(s_deviceRegParams), s_deviceRegParams
; 211  :             ) != ERROR_SUCCESS)

  003ec	e59f3148	 ldr         r3, [pc, #0x148]
  003f0	e3a02002	 mov         r2, #2
  003f4	e59d1000	 ldr         r1, [sp]
  003f8	e59d0038	 ldr         r0, [sp, #0x38]
  003fc	eb000000	 bl          GetDeviceRegistryParams
  00400	e58d0018	 str         r0, [sp, #0x18]
  00404	e59d3018	 ldr         r3, [sp, #0x18]
  00408	e3530000	 cmp         r3, #0
  0040c	0a00000c	 beq         |$LN5@DMA_Init|

; 212  :         {
; 213  :         DEBUGMSG(ZONE_ERROR, (L"ERROR: DMA_Init: "
; 214  :             L"Failed read DMA driver registry parameters\r\n"
; 215  :             ));

  00410	e59f3118	 ldr         r3, [pc, #0x118]
  00414	e5933440	 ldr         r3, [r3, #0x440]
  00418	e3130001	 tst         r3, #1
  0041c	0a000004	 beq         |$LN14@DMA_Init|
  00420	e59f0110	 ldr         r0, [pc, #0x110]
  00424	eb000000	 bl          NKDbgPrintfW
  00428	e3a03001	 mov         r3, #1
  0042c	e58d301c	 str         r3, [sp, #0x1C]
  00430	ea000001	 b           |$LN15@DMA_Init|
  00434		 |$LN14@DMA_Init|
  00434	e3a03000	 mov         r3, #0
  00438	e58d301c	 str         r3, [sp, #0x1C]
  0043c		 |$LN15@DMA_Init|

; 216  :         goto cleanUp;

  0043c	ea000023	 b           |$LN4@DMA_Init|
  00440	ea000022	 b           |$cleanUp$36244|
  00444		 |$LN5@DMA_Init|

; 217  :         }
; 218  :         
; 219  : 	// Retrieve device ID
; 220  :     pDevice->SdmaDevice = SOCGetDMADevice(pDevice->SdmaIndex);

  00444	e59d3000	 ldr         r3, [sp]
  00448	e2833008	 add         r3, r3, #8
  0044c	e5930000	 ldr         r0, [r3]
  00450	eb000000	 bl          SOCGetDMADevice
  00454	e58d0020	 str         r0, [sp, #0x20]
  00458	e59d3000	 ldr         r3, [sp]
  0045c	e2832004	 add         r2, r3, #4
  00460	e59d3020	 ldr         r3, [sp, #0x20]
  00464	e5823000	 str         r3, [r2]

; 221  :     
; 222  :     // Set hardware to full power
; 223  : 	EnableDeviceClocks(pDevice->SdmaDevice, TRUE);

  00468	e3a01001	 mov         r1, #1
  0046c	e59d3000	 ldr         r3, [sp]
  00470	e2833004	 add         r3, r3, #4
  00474	e5930000	 ldr         r0, [r3]
  00478	eb000000	 bl          EnableDeviceClocks

; 224  :     
; 225  :     // DMA will be in smart idle mode so we don't need to
; 226  :     // ever set the power state of the DMA to D4
; 227  : 
; 228  :     // initialize general dma controller
; 229  :     if (InitializeDevice(pDevice) == FALSE)

  0047c	e59d0000	 ldr         r0, [sp]
  00480	eb000000	 bl          |?InitializeDevice@@YAHPAUDevice_t@@@Z|
  00484	e58d0024	 str         r0, [sp, #0x24]
  00488	e59d3024	 ldr         r3, [sp, #0x24]
  0048c	e3530000	 cmp         r3, #0
  00490	1a00000c	 bne         |$LN3@DMA_Init|

; 230  :         {
; 231  :         DEBUGMSG (ZONE_ERROR, (L"ERROR: DMA_Init: "
; 232  :             L"Failed to initialize device\r\n"
; 233  :             ));

  00494	e59f3094	 ldr         r3, [pc, #0x94]
  00498	e5933440	 ldr         r3, [r3, #0x440]
  0049c	e3130001	 tst         r3, #1
  004a0	0a000004	 beq         |$LN16@DMA_Init|
  004a4	e59f0088	 ldr         r0, [pc, #0x88]
  004a8	eb000000	 bl          NKDbgPrintfW
  004ac	e3a03001	 mov         r3, #1
  004b0	e58d3028	 str         r3, [sp, #0x28]
  004b4	ea000001	 b           |$LN17@DMA_Init|
  004b8		 |$LN16@DMA_Init|
  004b8	e3a03000	 mov         r3, #0
  004bc	e58d3028	 str         r3, [sp, #0x28]
  004c0		 |$LN17@DMA_Init|

; 234  :         goto cleanUp;        

  004c0	ea000002	 b           |$LN2@DMA_Init|
  004c4	ea000001	 b           |$cleanUp$36244|
  004c8		 |$LN3@DMA_Init|

; 235  :         }
; 236  : 
; 237  :     rc = (DWORD)pDevice;

  004c8	e59d3000	 ldr         r3, [sp]
  004cc	e58d3004	 str         r3, [sp, #4]
  004d0		 |$LN2@DMA_Init|
  004d0		 |$LN4@DMA_Init|
  004d0		 |$LN6@DMA_Init|
  004d0		 |$cleanUp$36244|

; 238  :     
; 239  : cleanUp:
; 240  :     if (rc == 0) DMA_Deinit((DWORD)pDevice);

  004d0	e59d3004	 ldr         r3, [sp, #4]
  004d4	e3530000	 cmp         r3, #0
  004d8	1a000001	 bne         |$LN1@DMA_Init|
  004dc	e59d0000	 ldr         r0, [sp]
  004e0	eb000000	 bl          |?DMA_Deinit@@YAHK@Z|
  004e4		 |$LN1@DMA_Init|

; 241  :     DEBUGMSG(ZONE_FUNCTION, (L"-DMA_Init(rc = %d)\r\n", rc));

  004e4	e59f3044	 ldr         r3, [pc, #0x44]
  004e8	e5933440	 ldr         r3, [r3, #0x440]
  004ec	e3130004	 tst         r3, #4
  004f0	0a000005	 beq         |$LN18@DMA_Init|
  004f4	e59d1004	 ldr         r1, [sp, #4]
  004f8	e59f002c	 ldr         r0, [pc, #0x2C]
  004fc	eb000000	 bl          NKDbgPrintfW
  00500	e3a03001	 mov         r3, #1
  00504	e58d302c	 str         r3, [sp, #0x2C]
  00508	ea000001	 b           |$LN19@DMA_Init|
  0050c		 |$LN18@DMA_Init|
  0050c	e3a03000	 mov         r3, #0
  00510	e58d302c	 str         r3, [sp, #0x2C]
  00514		 |$LN19@DMA_Init|

; 242  :     return rc;

  00514	e59d3004	 ldr         r3, [sp, #4]
  00518	e58d3008	 str         r3, [sp, #8]

; 243  : }

  0051c	e59d0008	 ldr         r0, [sp, #8]
  00520	e28dd030	 add         sp, sp, #0x30
  00524	e89d6000	 ldmia       sp, {sp, lr}
  00528	e12fff1e	 bx          lr
  0052c		 |$LN23@DMA_Init|
  0052c		 |$LN24@DMA_Init|
  0052c	00000000	 DCD         |??_C@_1CK@NJKBHEIK@?$AA?9?$AAD?$AAM?$AAA?$AA_?$AAI?$AAn?$AAi?$AAt?$AA?$CI?$AAr?$AAc?$AA?5?$AA?$DN?$AA?5?$AA?$CF?$AAd?$AA?$CJ?$AA?$AN?$AA?6?$AA?$AA@|
  00530		 |$LN25@DMA_Init|
  00530	00000000	 DCD         |dpCurSettings|
  00534		 |$LN26@DMA_Init|
  00534	00000000	 DCD         |??_C@_1FO@HHAGCGMC@?$AAE?$AAR?$AAR?$AAO?$AAR?$AA?3?$AA?5?$AAD?$AAM?$AAA?$AA_?$AAI?$AAn?$AAi?$AAt?$AA?3?$AA?5?$AAF?$AAa?$AAi?$AAl?$AAe?$AAd?$AA?5?$AAt?$AAo?$AA?5?$AAi?$AAn?$AAi?$AAt?$AAi@|
  00538		 |$LN27@DMA_Init|
  00538	00000000	 DCD         |??_C@_1HM@MDCPMMPG@?$AAE?$AAR?$AAR?$AAO?$AAR?$AA?3?$AA?5?$AAD?$AAM?$AAA?$AA_?$AAI?$AAn?$AAi?$AAt?$AA?3?$AA?5?$AAF?$AAa?$AAi?$AAl?$AAe?$AAd?$AA?5?$AAr?$AAe?$AAa?$AAd?$AA?5?$AAD?$AAM?$AAA@|
  0053c		 |$LN28@DMA_Init|
  0053c	00000000	 DCD         |s_deviceRegParams|
  00540		 |$LN29@DMA_Init|
  00540	646d6144	 DCD         0x646d6144
  00544		 |$LN30@DMA_Init|
  00544	00000000	 DCD         |??_C@_1HI@LLJBFHGO@?$AAE?$AAR?$AAR?$AAO?$AAR?$AA?3?$AA?5?$AAD?$AAM?$AAA?$AA_?$AAI?$AAn?$AAi?$AAt?$AA?3?$AA?5?$AAF?$AAa?$AAi?$AAl?$AAe?$AAd?$AA?5?$AAa?$AAl?$AAl?$AAo?$AAc?$AAa?$AAt?$AAe@|
  00548		 |$LN31@DMA_Init|
  00548	00000000	 DCD         |??_C@_1DA@PFICBOPK@?$AA?$CL?$AAD?$AAM?$AAA?$AA_?$AAI?$AAn?$AAi?$AAt?$AA?$CI?$AA?$CF?$AAs?$AA?0?$AA?5?$AA0?$AAx?$AA?$CF?$AA0?$AA8?$AAx?$AA?$CJ?$AA?$AN?$AA?6?$AA?$AA@|
  0054c		 |$M36635|

			 ENDP  ; |?DMA_Init@@YAKPBGPBX@Z|, DMA_Init

	EXPORT	|??_C@_1CO@NJMGBBAN@?$AA?9?$AAD?$AAM?$AAA?$AA_?$AAD?$AAe?$AAi?$AAn?$AAi?$AAt?$AA?$CI?$AAr?$AAc?$AA?5?$AA?$DN?$AA?5?$AA?$CF?$AAd?$AA?$CJ?$AA?$AN?$AA?6?$AA?$AA@| [ DATA ] ; `string'
	EXPORT	|??_GSystemDmaController@@QAAPAXI@Z|	; SystemDmaController::`scalar deleting destructor'
	EXPORT	|??_C@_1IO@FEJGPOCK@?$AAE?$AAR?$AAR?$AAO?$AAR?$AA?3?$AA?5?$AAD?$AAM?$AAA?$AA_?$AAD?$AAe?$AAi?$AAn?$AAi?$AAt?$AA?3?$AA?5?$AAD?$AAe?$AAi?$AAn?$AAi?$AAt?$AA?5?$AAw?$AAi?$AAt?$AAh?$AA?5?$AAa@| [ DATA ] ; `string'
	EXPORT	|??_C@_1FO@FGIEDKGN@?$AAE?$AAR?$AAR?$AAO?$AAR?$AA?3?$AA?5?$AAD?$AAM?$AAA?$AA_?$AAD?$AAe?$AAi?$AAn?$AAi?$AAt?$AA?3?$AA?5?$AAI?$AAn?$AAc?$AAo?$AAr?$AAr?$AAe?$AAc?$AAt?$AA?5?$AAc?$AAo?$AAn@| [ DATA ] ; `string'
	EXPORT	|??_C@_1CM@IDNJKAKC@?$AA?$CL?$AAD?$AAM?$AAA?$AA_?$AAD?$AAe?$AAi?$AAn?$AAi?$AAt?$AA?$CI?$AA0?$AAx?$AA?$CF?$AA0?$AA8?$AAx?$AA?$CJ?$AA?$AN?$AA?6?$AA?$AA@| [ DATA ] ; `string'
	IMPORT	|LocalFree|
	IMPORT	|DeleteCriticalSection|

  00010			 AREA	 |.pdata|, PDATA
|$T36664| DCD	|$LN21@DMA_Deinit|
	DCD	0x40008404

  00000			 AREA	 |.rdata|, DATA, READONLY
|??_C@_1CO@NJMGBBAN@?$AA?9?$AAD?$AAM?$AAA?$AA_?$AAD?$AAe?$AAi?$AAn?$AAi?$AAt?$AA?$CI?$AAr?$AAc?$AA?5?$AA?$DN?$AA?5?$AA?$CF?$AAd?$AA?$CJ?$AA?$AN?$AA?6?$AA?$AA@| DCB "-"
	DCB	0x0, "D", 0x0, "M", 0x0, "A", 0x0, "_", 0x0, "D", 0x0, "e"
	DCB	0x0, "i", 0x0, "n", 0x0, "i", 0x0, "t", 0x0, "(", 0x0, "r"
	DCB	0x0, "c", 0x0, " ", 0x0, "=", 0x0, " ", 0x0, "%", 0x0, "d"
	DCB	0x0, ")", 0x0, 0xd, 0x0, 0xa, 0x0, 0x0, 0x0 ; `string'

  00000			 AREA	 |.rdata|, DATA, READONLY
|??_C@_1IO@FEJGPOCK@?$AAE?$AAR?$AAR?$AAO?$AAR?$AA?3?$AA?5?$AAD?$AAM?$AAA?$AA_?$AAD?$AAe?$AAi?$AAn?$AAi?$AAt?$AA?3?$AA?5?$AAD?$AAe?$AAi?$AAn?$AAi?$AAt?$AA?5?$AAw?$AAi?$AAt?$AAh?$AA?5?$AAa@| DCB "E"
	DCB	0x0, "R", 0x0, "R", 0x0, "O", 0x0, "R", 0x0, ":", 0x0, " "
	DCB	0x0, "D", 0x0, "M", 0x0, "A", 0x0, "_", 0x0, "D", 0x0, "e"
	DCB	0x0, "i", 0x0, "n", 0x0, "i", 0x0, "t", 0x0, ":", 0x0, " "
	DCB	0x0, "D", 0x0, "e", 0x0, "i", 0x0, "n", 0x0, "i", 0x0, "t"
	DCB	0x0, " ", 0x0, "w", 0x0, "i", 0x0, "t", 0x0, "h", 0x0, " "
	DCB	0x0, "a", 0x0, "c", 0x0, "t", 0x0, "i", 0x0, "v", 0x0, "e"
	DCB	0x0, " ", 0x0, "i", 0x0, "n", 0x0, "s", 0x0, "t", 0x0, "a"
	DCB	0x0, "n", 0x0, "c", 0x0, "e", 0x0, " ", 0x0, "(", 0x0, "%"
	DCB	0x0, "d", 0x0, " ", 0x0, "i", 0x0, "n", 0x0, "s", 0x0, "t"
	DCB	0x0, "a", 0x0, "n", 0x0, "c", 0x0, "e", 0x0, "s", 0x0, " "
	DCB	0x0, "a", 0x0, "c", 0x0, "t", 0x0, "i", 0x0, "v", 0x0, "e"
	DCB	0x0, ")", 0x0, 0xd, 0x0, 0xa, 0x0, 0x0, 0x0 ; `string'

  00000			 AREA	 |.rdata|, DATA, READONLY
|??_C@_1FO@FGIEDKGN@?$AAE?$AAR?$AAR?$AAO?$AAR?$AA?3?$AA?5?$AAD?$AAM?$AAA?$AA_?$AAD?$AAe?$AAi?$AAn?$AAi?$AAt?$AA?3?$AA?5?$AAI?$AAn?$AAc?$AAo?$AAr?$AAr?$AAe?$AAc?$AAt?$AA?5?$AAc?$AAo?$AAn@| DCB "E"
	DCB	0x0, "R", 0x0, "R", 0x0, "O", 0x0, "R", 0x0, ":", 0x0, " "
	DCB	0x0, "D", 0x0, "M", 0x0, "A", 0x0, "_", 0x0, "D", 0x0, "e"
	DCB	0x0, "i", 0x0, "n", 0x0, "i", 0x0, "t", 0x0, ":", 0x0, " "
	DCB	0x0, "I", 0x0, "n", 0x0, "c", 0x0, "o", 0x0, "r", 0x0, "r"
	DCB	0x0, "e", 0x0, "c", 0x0, "t", 0x0, " ", 0x0, "c", 0x0, "o"
	DCB	0x0, "n", 0x0, "t", 0x0, "e", 0x0, "x", 0x0, "t", 0x0, " "
	DCB	0x0, "p", 0x0, "a", 0x0, "r", 0x0, "a", 0x0, "m", 0x0, "e"
	DCB	0x0, "r", 0x0, 0xd, 0x0, 0xa, 0x0, 0x0, 0x0 ; `string'

  00000			 AREA	 |.rdata|, DATA, READONLY
|??_C@_1CM@IDNJKAKC@?$AA?$CL?$AAD?$AAM?$AAA?$AA_?$AAD?$AAe?$AAi?$AAn?$AAi?$AAt?$AA?$CI?$AA0?$AAx?$AA?$CF?$AA0?$AA8?$AAx?$AA?$CJ?$AA?$AN?$AA?6?$AA?$AA@| DCB "+"
	DCB	0x0, "D", 0x0, "M", 0x0, "A", 0x0, "_", 0x0, "D", 0x0, "e"
	DCB	0x0, "i", 0x0, "n", 0x0, "i", 0x0, "t", 0x0, "(", 0x0, "0"
	DCB	0x0, "x", 0x0, "%", 0x0, "0", 0x0, "8", 0x0, "x", 0x0, ")"
	DCB	0x0, 0xd, 0x0, 0xa, 0x0, 0x0, 0x0	; `string'
; Function compile flags: /Odtp

  0054c			 AREA	 |.text|, CODE, ARM

  0054c		 |?DMA_Deinit@@YAHK@Z| PROC		; DMA_Deinit

; 255  : {

  0054c		 |$LN21@DMA_Deinit|
  0054c	e1a0c00d	 mov         r12, sp
  00550	e92d0001	 stmdb       sp!, {r0}
  00554	e92d5000	 stmdb       sp!, {r12, lr}
  00558	e24dd02c	 sub         sp, sp, #0x2C
  0055c		 |$M36661|

; 256  :     BOOL rc = FALSE;

  0055c	e3a03000	 mov         r3, #0
  00560	e58d3004	 str         r3, [sp, #4]

; 257  :     Device_t *pDevice = (Device_t*)context;

  00564	e59d3034	 ldr         r3, [sp, #0x34]
  00568	e58d3000	 str         r3, [sp]

; 258  : 
; 259  :     DEBUGMSG(ZONE_FUNCTION, (L"+DMA_Deinit(0x%08x)\r\n", context));

  0056c	e59f31d4	 ldr         r3, [pc, #0x1D4]
  00570	e5933440	 ldr         r3, [r3, #0x440]
  00574	e3130004	 tst         r3, #4
  00578	0a000005	 beq         |$LN9@DMA_Deinit|
  0057c	e59d1034	 ldr         r1, [sp, #0x34]
  00580	e59f01d0	 ldr         r0, [pc, #0x1D0]
  00584	eb000000	 bl          NKDbgPrintfW
  00588	e3a03001	 mov         r3, #1
  0058c	e58d3014	 str         r3, [sp, #0x14]
  00590	ea000001	 b           |$LN10@DMA_Deinit|
  00594		 |$LN9@DMA_Deinit|
  00594	e3a03000	 mov         r3, #0
  00598	e58d3014	 str         r3, [sp, #0x14]
  0059c		 |$LN10@DMA_Deinit|

; 260  : 
; 261  :     // Check if we get correct context
; 262  :     if ((pDevice == NULL) || (pDevice->cookie != DMA_DEVICE_COOKIE))

  0059c	e59d3000	 ldr         r3, [sp]
  005a0	e3530000	 cmp         r3, #0
  005a4	0a000004	 beq         |$LN5@DMA_Deinit|
  005a8	e59d3000	 ldr         r3, [sp]
  005ac	e5932000	 ldr         r2, [r3]
  005b0	e59f319c	 ldr         r3, [pc, #0x19C]
  005b4	e1520003	 cmp         r2, r3
  005b8	0a00000c	 beq         |$LN6@DMA_Deinit|
  005bc		 |$LN5@DMA_Deinit|

; 263  :         {
; 264  :         DEBUGMSG (ZONE_ERROR, (L"ERROR: DMA_Deinit: "
; 265  :             L"Incorrect context paramer\r\n"
; 266  :             ));

  005bc	e59f3184	 ldr         r3, [pc, #0x184]
  005c0	e5933440	 ldr         r3, [r3, #0x440]
  005c4	e3130001	 tst         r3, #1
  005c8	0a000004	 beq         |$LN11@DMA_Deinit|
  005cc	e59f017c	 ldr         r0, [pc, #0x17C]
  005d0	eb000000	 bl          NKDbgPrintfW
  005d4	e3a03001	 mov         r3, #1
  005d8	e58d3018	 str         r3, [sp, #0x18]
  005dc	ea000001	 b           |$LN12@DMA_Deinit|
  005e0		 |$LN11@DMA_Deinit|
  005e0	e3a03000	 mov         r3, #0
  005e4	e58d3018	 str         r3, [sp, #0x18]
  005e8		 |$LN12@DMA_Deinit|

; 267  :         goto cleanUp;

  005e8	ea000043	 b           |$LN4@DMA_Deinit|
  005ec	ea000042	 b           |$cleanUp$36272|
  005f0		 |$LN6@DMA_Deinit|

; 268  :         }
; 269  : 
; 270  :     // Check for open instances
; 271  :     if (pDevice->instances > 0)

  005f0	e59d3000	 ldr         r3, [sp]
  005f4	e283302c	 add         r3, r3, #0x2C
  005f8	e5933000	 ldr         r3, [r3]
  005fc	e3530000	 cmp         r3, #0
  00600	da00000f	 ble         |$LN3@DMA_Deinit|

; 272  :         {
; 273  :         DEBUGMSG (ZONE_ERROR, (L"ERROR: DMA_Deinit: "
; 274  :             L"Deinit with active instance (%d instances active)\r\n",
; 275  :             pDevice->instances
; 276  :             ));

  00604	e59f313c	 ldr         r3, [pc, #0x13C]
  00608	e5933440	 ldr         r3, [r3, #0x440]
  0060c	e3130001	 tst         r3, #1
  00610	0a000007	 beq         |$LN13@DMA_Deinit|
  00614	e59d3000	 ldr         r3, [sp]
  00618	e283302c	 add         r3, r3, #0x2C
  0061c	e5931000	 ldr         r1, [r3]
  00620	e59f0124	 ldr         r0, [pc, #0x124]
  00624	eb000000	 bl          NKDbgPrintfW
  00628	e3a03001	 mov         r3, #1
  0062c	e58d301c	 str         r3, [sp, #0x1C]
  00630	ea000001	 b           |$LN14@DMA_Deinit|
  00634		 |$LN13@DMA_Deinit|
  00634	e3a03000	 mov         r3, #0
  00638	e58d301c	 str         r3, [sp, #0x1C]
  0063c		 |$LN14@DMA_Deinit|

; 277  :         goto cleanUp;

  0063c	ea00002e	 b           |$LN2@DMA_Deinit|
  00640	ea00002d	 b           |$cleanUp$36272|
  00644		 |$LN3@DMA_Deinit|

; 278  :         }
; 279  : 
; 280  :     if (pDevice->pSystemController != NULL)

  00644	e59d3000	 ldr         r3, [sp]
  00648	e2833014	 add         r3, r3, #0x14
  0064c	e5933000	 ldr         r3, [r3]
  00650	e3530000	 cmp         r3, #0
  00654	0a00001c	 beq         |$LN1@DMA_Deinit|

; 281  :         {
; 282  :         pDevice->pSystemController->Uninitialize();

  00658	e59d3000	 ldr         r3, [sp]
  0065c	e2833014	 add         r3, r3, #0x14
  00660	e5932000	 ldr         r2, [r3]
  00664	e59d3000	 ldr         r3, [sp]
  00668	e2833014	 add         r3, r3, #0x14
  0066c	e5930000	 ldr         r0, [r3]
  00670	e5923000	 ldr         r3, [r2]
  00674	e2833018	 add         r3, r3, #0x18
  00678	e5933000	 ldr         r3, [r3]
  0067c	e1a0e00f	 mov         lr, pc
  00680	e12fff13	 bx          r3

; 283  :         delete pDevice->pSystemController;

  00684	e59d3000	 ldr         r3, [sp]
  00688	e2833014	 add         r3, r3, #0x14
  0068c	e5933000	 ldr         r3, [r3]
  00690	e58d300c	 str         r3, [sp, #0xC]
  00694	e59d300c	 ldr         r3, [sp, #0xC]
  00698	e58d3008	 str         r3, [sp, #8]
  0069c	e59d3008	 ldr         r3, [sp, #8]
  006a0	e3530000	 cmp         r3, #0
  006a4	0a000006	 beq         |$LN15@DMA_Deinit|
  006a8	e3a01001	 mov         r1, #1
  006ac	e59d0008	 ldr         r0, [sp, #8]
  006b0	eb000000	 bl          |??_GSystemDmaController@@QAAPAXI@Z|
  006b4	e58d0020	 str         r0, [sp, #0x20]
  006b8	e59d3020	 ldr         r3, [sp, #0x20]
  006bc	e58d3024	 str         r3, [sp, #0x24]
  006c0	ea000001	 b           |$LN16@DMA_Deinit|
  006c4		 |$LN15@DMA_Deinit|
  006c4	e3a03000	 mov         r3, #0
  006c8	e58d3024	 str         r3, [sp, #0x24]
  006cc		 |$LN16@DMA_Deinit|
  006cc		 |$LN1@DMA_Deinit|

; 284  :         }
; 285  : 
; 286  :     // Set hardware to D4
; 287  : 	EnableDeviceClocks(pDevice->SdmaDevice, FALSE);

  006cc	e3a01000	 mov         r1, #0
  006d0	e59d3000	 ldr         r3, [sp]
  006d4	e2833004	 add         r3, r3, #4
  006d8	e5930000	 ldr         r0, [r3]
  006dc	eb000000	 bl          EnableDeviceClocks

; 288  : 
; 289  : 	// Delete critical section
; 290  :     DeleteCriticalSection(&pDevice->cs);

  006e0	e59d3000	 ldr         r3, [sp]
  006e4	e2830018	 add         r0, r3, #0x18
  006e8	eb000000	 bl          DeleteCriticalSection

; 291  :  
; 292  :     // Free device structure
; 293  :     LocalFree(pDevice);

  006ec	e59d0000	 ldr         r0, [sp]
  006f0	eb000000	 bl          LocalFree

; 294  : 
; 295  :     // Done
; 296  :     rc = TRUE;

  006f4	e3a03001	 mov         r3, #1
  006f8	e58d3004	 str         r3, [sp, #4]
  006fc		 |$LN2@DMA_Deinit|
  006fc		 |$LN4@DMA_Deinit|
  006fc		 |$cleanUp$36272|

; 297  : 
; 298  : cleanUp:
; 299  :     DEBUGMSG(ZONE_FUNCTION, (L"-DMA_Deinit(rc = %d)\r\n", rc));

  006fc	e59f3044	 ldr         r3, [pc, #0x44]
  00700	e5933440	 ldr         r3, [r3, #0x440]
  00704	e3130004	 tst         r3, #4
  00708	0a000005	 beq         |$LN17@DMA_Deinit|
  0070c	e59d1004	 ldr         r1, [sp, #4]
  00710	e59f002c	 ldr         r0, [pc, #0x2C]
  00714	eb000000	 bl          NKDbgPrintfW
  00718	e3a03001	 mov         r3, #1
  0071c	e58d3028	 str         r3, [sp, #0x28]
  00720	ea000001	 b           |$LN18@DMA_Deinit|
  00724		 |$LN17@DMA_Deinit|
  00724	e3a03000	 mov         r3, #0
  00728	e58d3028	 str         r3, [sp, #0x28]
  0072c		 |$LN18@DMA_Deinit|

; 300  :     return rc;

  0072c	e59d3004	 ldr         r3, [sp, #4]
  00730	e58d3010	 str         r3, [sp, #0x10]

; 301  : }

  00734	e59d0010	 ldr         r0, [sp, #0x10]
  00738	e28dd02c	 add         sp, sp, #0x2C
  0073c	e89d6000	 ldmia       sp, {sp, lr}
  00740	e12fff1e	 bx          lr
  00744		 |$LN22@DMA_Deinit|
  00744		 |$LN23@DMA_Deinit|
  00744	00000000	 DCD         |??_C@_1CO@NJMGBBAN@?$AA?9?$AAD?$AAM?$AAA?$AA_?$AAD?$AAe?$AAi?$AAn?$AAi?$AAt?$AA?$CI?$AAr?$AAc?$AA?5?$AA?$DN?$AA?5?$AA?$CF?$AAd?$AA?$CJ?$AA?$AN?$AA?6?$AA?$AA@|
  00748		 |$LN24@DMA_Deinit|
  00748	00000000	 DCD         |dpCurSettings|
  0074c		 |$LN25@DMA_Deinit|
  0074c	00000000	 DCD         |??_C@_1IO@FEJGPOCK@?$AAE?$AAR?$AAR?$AAO?$AAR?$AA?3?$AA?5?$AAD?$AAM?$AAA?$AA_?$AAD?$AAe?$AAi?$AAn?$AAi?$AAt?$AA?3?$AA?5?$AAD?$AAe?$AAi?$AAn?$AAi?$AAt?$AA?5?$AAw?$AAi?$AAt?$AAh?$AA?5?$AAa@|
  00750		 |$LN26@DMA_Deinit|
  00750	00000000	 DCD         |??_C@_1FO@FGIEDKGN@?$AAE?$AAR?$AAR?$AAO?$AAR?$AA?3?$AA?5?$AAD?$AAM?$AAA?$AA_?$AAD?$AAe?$AAi?$AAn?$AAi?$AAt?$AA?3?$AA?5?$AAI?$AAn?$AAc?$AAo?$AAr?$AAr?$AAe?$AAc?$AAt?$AA?5?$AAc?$AAo?$AAn@|
  00754		 |$LN27@DMA_Deinit|
  00754	646d6144	 DCD         0x646d6144
  00758		 |$LN28@DMA_Deinit|
  00758	00000000	 DCD         |??_C@_1CM@IDNJKAKC@?$AA?$CL?$AAD?$AAM?$AAA?$AA_?$AAD?$AAe?$AAi?$AAn?$AAi?$AAt?$AA?$CI?$AA0?$AAx?$AA?$CF?$AA0?$AA8?$AAx?$AA?$CJ?$AA?$AN?$AA?6?$AA?$AA@|
  0075c		 |$M36662|

			 ENDP  ; |?DMA_Deinit@@YAHK@Z|, DMA_Deinit

	EXPORT	|??1SystemDmaController@@QAA@XZ|	; SystemDmaController::~SystemDmaController
	IMPORT	|??3@YAXPAX@Z|				; operator delete

  00000			 AREA	 |.pdata|, PDATA
|$T36677| DCD	|$LN6@scalar|
	DCD	0x40001104
; Function compile flags: /Odtp

  00000			 AREA	 |.text|, CODE, ARM

  00000		 |??_GSystemDmaController@@QAAPAXI@Z| PROC ; SystemDmaController::`scalar deleting destructor'
  00000		 |$LN6@scalar|
  00000	e1a0c00d	 mov         r12, sp
  00004	e92d0003	 stmdb       sp!, {r0, r1}
  00008	e92d5000	 stmdb       sp!, {r12, lr}
  0000c	e24dd004	 sub         sp, sp, #4
  00010		 |$M36674|
  00010	e59d000c	 ldr         r0, [sp, #0xC]
  00014	eb000000	 bl          |??1SystemDmaController@@QAA@XZ|
  00018	e59d3010	 ldr         r3, [sp, #0x10]
  0001c	e3130001	 tst         r3, #1
  00020	0a000001	 beq         |$LN1@scalar|
  00024	e59d000c	 ldr         r0, [sp, #0xC]
  00028	eb000000	 bl          |??3@YAXPAX@Z|
  0002c		 |$LN1@scalar|
  0002c	e59d300c	 ldr         r3, [sp, #0xC]
  00030	e58d3000	 str         r3, [sp]
  00034	e59d0000	 ldr         r0, [sp]
  00038	e28dd004	 add         sp, sp, #4
  0003c	e89d6000	 ldmia       sp, {sp, lr}
  00040	e12fff1e	 bx          lr
  00044		 |$M36675|

			 ENDP  ; |??_GSystemDmaController@@QAAPAXI@Z|, SystemDmaController::`scalar deleting destructor'

; File c:\wince600\platform\common\src\soc\common_ti_v1\common_ti\sdma\dmacontroller.h

  00000			 AREA	 |.pdata|, PDATA
|$T36684| DCD	|$LN5@SystemDmaC@2|
	DCD	0x40000b03
; Function compile flags: /Odtp

  00000			 AREA	 |.text|, CODE, ARM

  00000		 |??1SystemDmaController@@QAA@XZ| PROC	; SystemDmaController::~SystemDmaController

; 215  :     {

  00000		 |$LN5@SystemDmaC@2|
  00000	e1a0c00d	 mov         r12, sp
  00004	e92d0001	 stmdb       sp!, {r0}
  00008	e92d5000	 stmdb       sp!, {r12, lr}
  0000c		 |$M36681|
  0000c	e59f2014	 ldr         r2, [pc, #0x14]
  00010	e59d3008	 ldr         r3, [sp, #8]
  00014	e5832000	 str         r2, [r3]

; 216  :         Uninitialize();

  00018	e59d0008	 ldr         r0, [sp, #8]
  0001c	eb000000	 bl          |?Uninitialize@SystemDmaController@@UAAXXZ|

; 217  :     }

  00020	e89d6000	 ldmia       sp, {sp, lr}
  00024	e12fff1e	 bx          lr
  00028		 |$LN6@SystemDmaC@2|
  00028		 |$LN7@SystemDmaC@2|
  00028	00000000	 DCD         |??_7SystemDmaController@@6B@|
  0002c		 |$M36682|

			 ENDP  ; |??1SystemDmaController@@QAA@XZ|, SystemDmaController::~SystemDmaController

	EXPORT	|??_C@_1DC@PBKMFJNE@?$AA?9?$AAD?$AAM?$AAA?$AA_?$AAO?$AAp?$AAe?$AAn?$AA?$CI?$AAr?$AAc?$AA?5?$AA?$DN?$AA?5?$AA0?$AAx?$AA?$CF?$AA0?$AA8?$AAx?$AA?$CJ?$AA?$AN?$AA?6?$AA?$AA@| [ DATA ] ; `string'
	EXPORT	|??_C@_1FK@FNONLNGN@?$AA?$CF?$AAs?$AA?3?$AA?5?$AAD?$AAE?$AAB?$AAU?$AAG?$AAC?$AAH?$AAK?$AA?5?$AAf?$AAa?$AAi?$AAl?$AAe?$AAd?$AA?5?$AAi?$AAn?$AA?5?$AAf?$AAi?$AAl?$AAe?$AA?5?$AA?$CF?$AAs?$AA?5?$AAa@| [ DATA ] ; `string'
	EXPORT	|??_C@_1BA@LEPJIIOK@?$AAU?$AAn?$AAk?$AAn?$AAo?$AAw?$AAn?$AA?$AA@| [ DATA ] ; `string'
	EXPORT	|??_C@_1JE@MNGKPFHN@?$AAC?$AA?3?$AA?2?$AAW?$AAI?$AAN?$AAC?$AAE?$AA6?$AA0?$AA0?$AA?2?$AAP?$AAL?$AAA?$AAT?$AAF?$AAO?$AAR?$AAM?$AA?2?$AAC?$AAO?$AAM?$AAM?$AAO?$AAN?$AA?2?$AAS?$AAR?$AAC?$AA?2@| [ DATA ] ; `string'
	EXPORT	|??_C@_1HE@NAOKAPKO@?$AAE?$AAR?$AAR?$AAO?$AAR?$AA?3?$AA?5?$AAD?$AAM?$AAA?$AA_?$AAO?$AAp?$AAe?$AAn?$AA?3?$AA?5?$AAF?$AAa?$AAi?$AAl?$AAe?$AAd?$AA?5?$AAa?$AAl?$AAl?$AAo?$AAc?$AAa?$AAt?$AAe@| [ DATA ] ; `string'
	EXPORT	|??_C@_1FO@EEINGOEA@?$AAE?$AAR?$AAR?$AAO?$AAR?$AA?3?$AA?5?$AAD?$AAM?$AAA?$AA_?$AAO?$AAp?$AAe?$AAn?$AA?3?$AA?5?$AAI?$AAn?$AAc?$AAo?$AAr?$AAr?$AAe?$AAc?$AAt?$AA?5?$AAc?$AAo?$AAn?$AAt?$AAe@| [ DATA ] ; `string'
	EXPORT	|??_C@_1EG@FJEIAFFB@?$AA?$CL?$AAD?$AAM?$AAA?$AA_?$AAO?$AAp?$AAe?$AAn?$AA?$CI?$AA0?$AAx?$AA?$CF?$AA0?$AA8?$AAx?$AA?0?$AA?5?$AA0?$AAx?$AA?$CF?$AA0?$AA8?$AAx?$AA?0?$AA?5?$AA0?$AAx?$AA?$CF?$AA0?$AA8?$AAx@| [ DATA ] ; `string'
	EXPORT	|?DMA_Open@@YAKKKK@Z|			; DMA_Open
	IMPORT	|InterlockedIncrement|

  00018			 AREA	 |.pdata|, PDATA
|$T36704| DCD	|$LN20@DMA_Open|
	DCD	0x40008004
; File c:\wince600\platform\common\src\soc\common_ti_v1\common_ti\sdma\dma.cpp

  00000			 AREA	 |.rdata|, DATA, READONLY
|??_C@_1DC@PBKMFJNE@?$AA?9?$AAD?$AAM?$AAA?$AA_?$AAO?$AAp?$AAe?$AAn?$AA?$CI?$AAr?$AAc?$AA?5?$AA?$DN?$AA?5?$AA0?$AAx?$AA?$CF?$AA0?$AA8?$AAx?$AA?$CJ?$AA?$AN?$AA?6?$AA?$AA@| DCB "-"
	DCB	0x0, "D", 0x0, "M", 0x0, "A", 0x0, "_", 0x0, "O", 0x0, "p"
	DCB	0x0, "e", 0x0, "n", 0x0, "(", 0x0, "r", 0x0, "c", 0x0, " "
	DCB	0x0, "=", 0x0, " ", 0x0, "0", 0x0, "x", 0x0, "%", 0x0, "0"
	DCB	0x0, "8", 0x0, "x", 0x0, ")", 0x0, 0xd, 0x0, 0xa, 0x0, 0x0
	DCB	0x0					; `string'

  00000			 AREA	 |.rdata|, DATA, READONLY
|??_C@_1FK@FNONLNGN@?$AA?$CF?$AAs?$AA?3?$AA?5?$AAD?$AAE?$AAB?$AAU?$AAG?$AAC?$AAH?$AAK?$AA?5?$AAf?$AAa?$AAi?$AAl?$AAe?$AAd?$AA?5?$AAi?$AAn?$AA?5?$AAf?$AAi?$AAl?$AAe?$AA?5?$AA?$CF?$AAs?$AA?5?$AAa@| DCB "%"
	DCB	0x0, "s", 0x0, ":", 0x0, " ", 0x0, "D", 0x0, "E", 0x0, "B"
	DCB	0x0, "U", 0x0, "G", 0x0, "C", 0x0, "H", 0x0, "K", 0x0, " "
	DCB	0x0, "f", 0x0, "a", 0x0, "i", 0x0, "l", 0x0, "e", 0x0, "d"
	DCB	0x0, " ", 0x0, "i", 0x0, "n", 0x0, " ", 0x0, "f", 0x0, "i"
	DCB	0x0, "l", 0x0, "e", 0x0, " ", 0x0, "%", 0x0, "s", 0x0, " "
	DCB	0x0, "a", 0x0, "t", 0x0, " ", 0x0, "l", 0x0, "i", 0x0, "n"
	DCB	0x0, "e", 0x0, " ", 0x0, "%", 0x0, "d", 0x0, " ", 0x0, 0xd
	DCB	0x0, 0xa, 0x0, 0x0, 0x0			; `string'

  00000			 AREA	 |.rdata|, DATA, READONLY
|??_C@_1BA@LEPJIIOK@?$AAU?$AAn?$AAk?$AAn?$AAo?$AAw?$AAn?$AA?$AA@| DCB "U", 0x0
	DCB	"n", 0x0, "k", 0x0, "n", 0x0, "o", 0x0, "w", 0x0, "n", 0x0
	DCB	0x0, 0x0				; `string'

  00000			 AREA	 |.rdata|, DATA, READONLY
|??_C@_1JE@MNGKPFHN@?$AAC?$AA?3?$AA?2?$AAW?$AAI?$AAN?$AAC?$AAE?$AA6?$AA0?$AA0?$AA?2?$AAP?$AAL?$AAA?$AAT?$AAF?$AAO?$AAR?$AAM?$AA?2?$AAC?$AAO?$AAM?$AAM?$AAO?$AAN?$AA?2?$AAS?$AAR?$AAC?$AA?2@| DCB "C"
	DCB	0x0, ":", 0x0, "\\", 0x0, "W", 0x0, "I", 0x0, "N", 0x0, "C"
	DCB	0x0, "E", 0x0, "6", 0x0, "0", 0x0, "0", 0x0, "\\", 0x0, "P"
	DCB	0x0, "L", 0x0, "A", 0x0, "T", 0x0, "F", 0x0, "O", 0x0, "R"
	DCB	0x0, "M", 0x0, "\\", 0x0, "C", 0x0, "O", 0x0, "M", 0x0, "M"
	DCB	0x0, "O", 0x0, "N", 0x0, "\\", 0x0, "S", 0x0, "R", 0x0, "C"
	DCB	0x0, "\\", 0x0, "S", 0x0, "O", 0x0, "C", 0x0, "\\", 0x0, "C"
	DCB	0x0, "O", 0x0, "M", 0x0, "M", 0x0, "O", 0x0, "N", 0x0, "_"
	DCB	0x0, "T", 0x0, "I", 0x0, "_", 0x0, "V", 0x0, "1", 0x0, "\\"
	DCB	0x0, "C", 0x0, "O", 0x0, "M", 0x0, "M", 0x0, "O", 0x0, "N"
	DCB	0x0, "_", 0x0, "T", 0x0, "I", 0x0, "\\", 0x0, "S", 0x0, "D"
	DCB	0x0, "M", 0x0, "A", 0x0, "\\", 0x0, ".", 0x0, "\\", 0x0, "d"
	DCB	0x0, "m", 0x0, "a", 0x0, ".", 0x0, "c", 0x0, "p", 0x0, "p"
	DCB	0x0, 0x0, 0x0				; `string'

  00000			 AREA	 |.rdata|, DATA, READONLY
|??_C@_1HE@NAOKAPKO@?$AAE?$AAR?$AAR?$AAO?$AAR?$AA?3?$AA?5?$AAD?$AAM?$AAA?$AA_?$AAO?$AAp?$AAe?$AAn?$AA?3?$AA?5?$AAF?$AAa?$AAi?$AAl?$AAe?$AAd?$AA?5?$AAa?$AAl?$AAl?$AAo?$AAc?$AAa?$AAt?$AAe@| DCB "E"
	DCB	0x0, "R", 0x0, "R", 0x0, "O", 0x0, "R", 0x0, ":", 0x0, " "
	DCB	0x0, "D", 0x0, "M", 0x0, "A", 0x0, "_", 0x0, "O", 0x0, "p"
	DCB	0x0, "e", 0x0, "n", 0x0, ":", 0x0, " ", 0x0, "F", 0x0, "a"
	DCB	0x0, "i", 0x0, "l", 0x0, "e", 0x0, "d", 0x0, " ", 0x0, "a"
	DCB	0x0, "l", 0x0, "l", 0x0, "o", 0x0, "c", 0x0, "a", 0x0, "t"
	DCB	0x0, "e", 0x0, " ", 0x0, "D", 0x0, "M", 0x0, "A", 0x0, " "
	DCB	0x0, "i", 0x0, "n", 0x0, "s", 0x0, "t", 0x0, "a", 0x0, "n"
	DCB	0x0, "c", 0x0, "e", 0x0, " ", 0x0, "s", 0x0, "t", 0x0, "r"
	DCB	0x0, "u", 0x0, "c", 0x0, "t", 0x0, "u", 0x0, "r", 0x0, "e"
	DCB	0x0, 0xd, 0x0, 0xa, 0x0, 0x0, 0x0	; `string'

  00000			 AREA	 |.rdata|, DATA, READONLY
|??_C@_1FO@EEINGOEA@?$AAE?$AAR?$AAR?$AAO?$AAR?$AA?3?$AA?5?$AAD?$AAM?$AAA?$AA_?$AAO?$AAp?$AAe?$AAn?$AA?3?$AA?5?$AAI?$AAn?$AAc?$AAo?$AAr?$AAr?$AAe?$AAc?$AAt?$AA?5?$AAc?$AAo?$AAn?$AAt?$AAe@| DCB "E"
	DCB	0x0, "R", 0x0, "R", 0x0, "O", 0x0, "R", 0x0, ":", 0x0, " "
	DCB	0x0, "D", 0x0, "M", 0x0, "A", 0x0, "_", 0x0, "O", 0x0, "p"
	DCB	0x0, "e", 0x0, "n", 0x0, ":", 0x0, " ", 0x0, "I", 0x0, "n"
	DCB	0x0, "c", 0x0, "o", 0x0, "r", 0x0, "r", 0x0, "e", 0x0, "c"
	DCB	0x0, "t", 0x0, " ", 0x0, "c", 0x0, "o", 0x0, "n", 0x0, "t"
	DCB	0x0, "e", 0x0, "x", 0x0, "t", 0x0, " ", 0x0, "p", 0x0, "a"
	DCB	0x0, "r", 0x0, "a", 0x0, "m", 0x0, "e", 0x0, "t", 0x0, "e"
	DCB	0x0, "r", 0x0, 0xd, 0x0, 0xa, 0x0, 0x0, 0x0 ; `string'

  00000			 AREA	 |.rdata|, DATA, READONLY
|??_C@_1EG@FJEIAFFB@?$AA?$CL?$AAD?$AAM?$AAA?$AA_?$AAO?$AAp?$AAe?$AAn?$AA?$CI?$AA0?$AAx?$AA?$CF?$AA0?$AA8?$AAx?$AA?0?$AA?5?$AA0?$AAx?$AA?$CF?$AA0?$AA8?$AAx?$AA?0?$AA?5?$AA0?$AAx?$AA?$CF?$AA0?$AA8?$AAx@| DCB "+"
	DCB	0x0, "D", 0x0, "M", 0x0, "A", 0x0, "_", 0x0, "O", 0x0, "p"
	DCB	0x0, "e", 0x0, "n", 0x0, "(", 0x0, "0", 0x0, "x", 0x0, "%"
	DCB	0x0, "0", 0x0, "8", 0x0, "x", 0x0, ",", 0x0, " ", 0x0, "0"
	DCB	0x0, "x", 0x0, "%", 0x0, "0", 0x0, "8", 0x0, "x", 0x0, ","
	DCB	0x0, " ", 0x0, "0", 0x0, "x", 0x0, "%", 0x0, "0", 0x0, "8"
	DCB	0x0, "x", 0x0, 0xd, 0x0, 0xa, 0x0, 0x0, 0x0 ; `string'
; Function compile flags: /Odtp

  0075c			 AREA	 |.text|, CODE, ARM

  0075c		 |?DMA_Open@@YAKKKK@Z| PROC		; DMA_Open

; 315  : {

  0075c		 |$LN20@DMA_Open|
  0075c	e1a0c00d	 mov         r12, sp
  00760	e92d0007	 stmdb       sp!, {r0 - r2}
  00764	e92d5000	 stmdb       sp!, {r12, lr}
  00768	e24dd028	 sub         sp, sp, #0x28
  0076c		 |$M36701|

; 316  :     DWORD rc = (DWORD)NULL;

  0076c	e3a03000	 mov         r3, #0
  00770	e58d3004	 str         r3, [sp, #4]

; 317  :     Device_t *pDevice = (Device_t*)context;

  00774	e59d3030	 ldr         r3, [sp, #0x30]
  00778	e58d3000	 str         r3, [sp]

; 318  :     Instance_t *pInstance = NULL;

  0077c	e3a03000	 mov         r3, #0
  00780	e58d3008	 str         r3, [sp, #8]

; 319  : 
; 320  :     UNREFERENCED_PARAMETER(context);
; 321  :     UNREFERENCED_PARAMETER(accessCode);
; 322  :     UNREFERENCED_PARAMETER(shareMode);
; 323  : 
; 324  :     DEBUGMSG(ZONE_FUNCTION, (
; 325  :         L"+DMA_Open(0x%08x, 0x%08x, 0x%08x\r\n", context, accessCode, shareMode
; 326  :         ));

  00784	e59f31ac	 ldr         r3, [pc, #0x1AC]
  00788	e5933440	 ldr         r3, [r3, #0x440]
  0078c	e3130004	 tst         r3, #4
  00790	0a000007	 beq         |$LN8@DMA_Open|
  00794	e59d3038	 ldr         r3, [sp, #0x38]
  00798	e59d2034	 ldr         r2, [sp, #0x34]
  0079c	e59d1030	 ldr         r1, [sp, #0x30]
  007a0	e59f01b0	 ldr         r0, [pc, #0x1B0]
  007a4	eb000000	 bl          NKDbgPrintfW
  007a8	e3a03001	 mov         r3, #1
  007ac	e58d3010	 str         r3, [sp, #0x10]
  007b0	ea000001	 b           |$LN9@DMA_Open|
  007b4		 |$LN8@DMA_Open|
  007b4	e3a03000	 mov         r3, #0
  007b8	e58d3010	 str         r3, [sp, #0x10]
  007bc		 |$LN9@DMA_Open|

; 327  : 
; 328  :     // Check if we get correct context
; 329  :     if ((pDevice == NULL) || (pDevice->cookie != DMA_DEVICE_COOKIE))

  007bc	e59d3000	 ldr         r3, [sp]
  007c0	e3530000	 cmp         r3, #0
  007c4	0a000004	 beq         |$LN4@DMA_Open|
  007c8	e59d3000	 ldr         r3, [sp]
  007cc	e5932000	 ldr         r2, [r3]
  007d0	e59f317c	 ldr         r3, [pc, #0x17C]
  007d4	e1520003	 cmp         r2, r3
  007d8	0a00000c	 beq         |$LN5@DMA_Open|
  007dc		 |$LN4@DMA_Open|

; 330  :         {
; 331  :         DEBUGMSG (ZONE_ERROR, (L"ERROR: DMA_Open: "
; 332  :             L"Incorrect context parameter\r\n"
; 333  :             ));

  007dc	e59f3154	 ldr         r3, [pc, #0x154]
  007e0	e5933440	 ldr         r3, [r3, #0x440]
  007e4	e3130001	 tst         r3, #1
  007e8	0a000004	 beq         |$LN10@DMA_Open|
  007ec	e59f015c	 ldr         r0, [pc, #0x15C]
  007f0	eb000000	 bl          NKDbgPrintfW
  007f4	e3a03001	 mov         r3, #1
  007f8	e58d3014	 str         r3, [sp, #0x14]
  007fc	ea000001	 b           |$LN11@DMA_Open|
  00800		 |$LN10@DMA_Open|
  00800	e3a03000	 mov         r3, #0
  00804	e58d3014	 str         r3, [sp, #0x14]
  00808		 |$LN11@DMA_Open|

; 334  :         goto cleanUp;

  00808	ea000037	 b           |$LN3@DMA_Open|
  0080c	ea000036	 b           |$cleanUp$36303|
  00810		 |$LN5@DMA_Open|

; 335  :         }
; 336  : 
; 337  :     // Create device structure
; 338  :     pInstance = (Instance_t*)LocalAlloc(LPTR, sizeof(Instance_t));

  00810	e3a01010	 mov         r1, #0x10
  00814	e3a00040	 mov         r0, #0x40
  00818	eb000000	 bl          LocalAlloc
  0081c	e58d0018	 str         r0, [sp, #0x18]
  00820	e59d3018	 ldr         r3, [sp, #0x18]
  00824	e58d3008	 str         r3, [sp, #8]

; 339  :     if (pInstance == NULL)

  00828	e59d3008	 ldr         r3, [sp, #8]
  0082c	e3530000	 cmp         r3, #0
  00830	1a00000c	 bne         |$LN2@DMA_Open|

; 340  :         {
; 341  :         DEBUGMSG(ZONE_ERROR, (L"ERROR: DMA_Open: "
; 342  :             L"Failed allocate DMA instance structure\r\n"
; 343  :             ));

  00834	e59f30fc	 ldr         r3, [pc, #0xFC]
  00838	e5933440	 ldr         r3, [r3, #0x440]
  0083c	e3130001	 tst         r3, #1
  00840	0a000004	 beq         |$LN12@DMA_Open|
  00844	e59f0100	 ldr         r0, [pc, #0x100]
  00848	eb000000	 bl          NKDbgPrintfW
  0084c	e3a03001	 mov         r3, #1
  00850	e58d301c	 str         r3, [sp, #0x1C]
  00854	ea000001	 b           |$LN13@DMA_Open|
  00858		 |$LN12@DMA_Open|
  00858	e3a03000	 mov         r3, #0
  0085c	e58d301c	 str         r3, [sp, #0x1C]
  00860		 |$LN13@DMA_Open|

; 344  :         goto cleanUp;

  00860	ea000021	 b           |$LN1@DMA_Open|
  00864	ea000020	 b           |$cleanUp$36303|
  00868		 |$LN2@DMA_Open|

; 345  :         }
; 346  : 
; 347  :     // Set cookie
; 348  :     memset(pInstance, 0, sizeof(Instance_t));

  00868	e3a02010	 mov         r2, #0x10
  0086c	e3a01000	 mov         r1, #0
  00870	e59d0008	 ldr         r0, [sp, #8]
  00874	eb000000	 bl          memset

; 349  :     pInstance->cookie = DMA_INSTANCE_COOKIE;

  00878	e59d2008	 ldr         r2, [sp, #8]
  0087c	e59f30c4	 ldr         r3, [pc, #0xC4]
  00880	e5823000	 str         r3, [r2]

; 350  : 
; 351  :     // Save device reference
; 352  :     pInstance->pDevice = pDevice;

  00884	e59d3008	 ldr         r3, [sp, #8]
  00888	e2832004	 add         r2, r3, #4
  0088c	e59d3000	 ldr         r3, [sp]
  00890	e5823000	 str         r3, [r2]

; 353  : 
; 354  :     // Increment number of open instances
; 355  :     InterlockedIncrement(&pDevice->instances);

  00894	e59d3000	 ldr         r3, [sp]
  00898	e283002c	 add         r0, r3, #0x2C
  0089c	eb000000	 bl          InterlockedIncrement

; 356  : 
; 357  :     // Sanity check number of instances
; 358  :     ASSERT(pDevice->instances > 0);

  008a0	e59d3000	 ldr         r3, [sp]
  008a4	e283302c	 add         r3, r3, #0x2C
  008a8	e5933000	 ldr         r3, [r3]
  008ac	e3530000	 cmp         r3, #0
  008b0	da000002	 ble         |$LN14@DMA_Open|
  008b4	e3a03001	 mov         r3, #1
  008b8	e58d3020	 str         r3, [sp, #0x20]
  008bc	ea000008	 b           |$LN15@DMA_Open|
  008c0		 |$LN14@DMA_Open|
  008c0	e3a03c01	 mov         r3, #1, 24
  008c4	e3833066	 orr         r3, r3, #0x66
  008c8	e59f2074	 ldr         r2, [pc, #0x74]
  008cc	e59f106c	 ldr         r1, [pc, #0x6C]
  008d0	e59f0064	 ldr         r0, [pc, #0x64]
  008d4	eb000000	 bl          NKDbgPrintfW
  008d8	e6000010	 __debugbreak_ce
  008dc	e3a03000	 mov         r3, #0
  008e0	e58d3020	 str         r3, [sp, #0x20]
  008e4		 |$LN15@DMA_Open|

; 359  : 
; 360  :     // Done...
; 361  :     rc = (DWORD)pInstance;

  008e4	e59d3008	 ldr         r3, [sp, #8]
  008e8	e58d3004	 str         r3, [sp, #4]
  008ec		 |$LN1@DMA_Open|
  008ec		 |$LN3@DMA_Open|
  008ec		 |$cleanUp$36303|

; 362  : 
; 363  : cleanUp:
; 364  :     DEBUGMSG(ZONE_FUNCTION, (L"-DMA_Open(rc = 0x%08x)\r\n", rc));

  008ec	e59f3044	 ldr         r3, [pc, #0x44]
  008f0	e5933440	 ldr         r3, [r3, #0x440]
  008f4	e3130004	 tst         r3, #4
  008f8	0a000005	 beq         |$LN16@DMA_Open|
  008fc	e59d1004	 ldr         r1, [sp, #4]
  00900	e59f002c	 ldr         r0, [pc, #0x2C]
  00904	eb000000	 bl          NKDbgPrintfW
  00908	e3a03001	 mov         r3, #1
  0090c	e58d3024	 str         r3, [sp, #0x24]
  00910	ea000001	 b           |$LN17@DMA_Open|
  00914		 |$LN16@DMA_Open|
  00914	e3a03000	 mov         r3, #0
  00918	e58d3024	 str         r3, [sp, #0x24]
  0091c		 |$LN17@DMA_Open|

; 365  :     return rc;

  0091c	e59d3004	 ldr         r3, [sp, #4]
  00920	e58d300c	 str         r3, [sp, #0xC]

; 366  : }

  00924	e59d000c	 ldr         r0, [sp, #0xC]
  00928	e28dd028	 add         sp, sp, #0x28
  0092c	e89d6000	 ldmia       sp, {sp, lr}
  00930	e12fff1e	 bx          lr
  00934		 |$LN21@DMA_Open|
  00934		 |$LN22@DMA_Open|
  00934	00000000	 DCD         |??_C@_1DC@PBKMFJNE@?$AA?9?$AAD?$AAM?$AAA?$AA_?$AAO?$AAp?$AAe?$AAn?$AA?$CI?$AAr?$AAc?$AA?5?$AA?$DN?$AA?5?$AA0?$AAx?$AA?$CF?$AA0?$AA8?$AAx?$AA?$CJ?$AA?$AN?$AA?6?$AA?$AA@|
  00938		 |$LN23@DMA_Open|
  00938	00000000	 DCD         |dpCurSettings|
  0093c		 |$LN24@DMA_Open|
  0093c	00000000	 DCD         |??_C@_1FK@FNONLNGN@?$AA?$CF?$AAs?$AA?3?$AA?5?$AAD?$AAE?$AAB?$AAU?$AAG?$AAC?$AAH?$AAK?$AA?5?$AAf?$AAa?$AAi?$AAl?$AAe?$AAd?$AA?5?$AAi?$AAn?$AA?5?$AAf?$AAi?$AAl?$AAe?$AA?5?$AA?$CF?$AAs?$AA?5?$AAa@|
  00940		 |$LN25@DMA_Open|
  00940	00000000	 DCD         |??_C@_1BA@LEPJIIOK@?$AAU?$AAn?$AAk?$AAn?$AAo?$AAw?$AAn?$AA?$AA@|
  00944		 |$LN26@DMA_Open|
  00944	00000000	 DCD         |??_C@_1JE@MNGKPFHN@?$AAC?$AA?3?$AA?2?$AAW?$AAI?$AAN?$AAC?$AAE?$AA6?$AA0?$AA0?$AA?2?$AAP?$AAL?$AAA?$AAT?$AAF?$AAO?$AAR?$AAM?$AA?2?$AAC?$AAO?$AAM?$AAM?$AAO?$AAN?$AA?2?$AAS?$AAR?$AAC?$AA?2@|
  00948		 |$LN27@DMA_Open|
  00948	646d6149	 DCD         0x646d6149
  0094c		 |$LN28@DMA_Open|
  0094c	00000000	 DCD         |??_C@_1HE@NAOKAPKO@?$AAE?$AAR?$AAR?$AAO?$AAR?$AA?3?$AA?5?$AAD?$AAM?$AAA?$AA_?$AAO?$AAp?$AAe?$AAn?$AA?3?$AA?5?$AAF?$AAa?$AAi?$AAl?$AAe?$AAd?$AA?5?$AAa?$AAl?$AAl?$AAo?$AAc?$AAa?$AAt?$AAe@|
  00950		 |$LN29@DMA_Open|
  00950	00000000	 DCD         |??_C@_1FO@EEINGOEA@?$AAE?$AAR?$AAR?$AAO?$AAR?$AA?3?$AA?5?$AAD?$AAM?$AAA?$AA_?$AAO?$AAp?$AAe?$AAn?$AA?3?$AA?5?$AAI?$AAn?$AAc?$AAo?$AAr?$AAr?$AAe?$AAc?$AAt?$AA?5?$AAc?$AAo?$AAn?$AAt?$AAe@|
  00954		 |$LN30@DMA_Open|
  00954	646d6144	 DCD         0x646d6144
  00958		 |$LN31@DMA_Open|
  00958	00000000	 DCD         |??_C@_1EG@FJEIAFFB@?$AA?$CL?$AAD?$AAM?$AAA?$AA_?$AAO?$AAp?$AAe?$AAn?$AA?$CI?$AA0?$AAx?$AA?$CF?$AA0?$AA8?$AAx?$AA?0?$AA?5?$AA0?$AAx?$AA?$CF?$AA0?$AA8?$AAx?$AA?0?$AA?5?$AA0?$AAx?$AA?$CF?$AA0?$AA8?$AAx@|
  0095c		 |$M36702|

			 ENDP  ; |?DMA_Open@@YAKKKK@Z|, DMA_Open

	EXPORT	|??_C@_1CM@MGFIADLK@?$AA?9?$AAD?$AAM?$AAA?$AA_?$AAC?$AAl?$AAo?$AAs?$AAe?$AA?$CI?$AAr?$AAc?$AA?5?$AA?$DN?$AA?5?$AA?$CF?$AAd?$AA?$CJ?$AA?$AN?$AA?6?$AA?$AA@| [ DATA ] ; `string'
	EXPORT	|??_C@_1FK@DJBAADFJ@?$AAE?$AAR?$AAR?$AAO?$AAR?$AA?3?$AA?5?$AAD?$AAM?$AAA?$AA_?$AAR?$AAe?$AAa?$AAd?$AA?3?$AA?5?$AAI?$AAn?$AAc?$AAo?$AAr?$AAr?$AAe?$AAc?$AAt?$AA?5?$AAc?$AAo?$AAn?$AAt?$AAe@| [ DATA ] ; `string'
	EXPORT	|??_C@_1CK@JKKKIHGE@?$AA?$CL?$AAD?$AAM?$AAA?$AA_?$AAC?$AAl?$AAo?$AAs?$AAe?$AA?$CI?$AA0?$AAx?$AA?$CF?$AA0?$AA8?$AAx?$AA?$CJ?$AA?$AN?$AA?6?$AA?$AA@| [ DATA ] ; `string'
	EXPORT	|?DMA_Close@@YAHK@Z|			; DMA_Close
	IMPORT	|InterlockedDecrement|

  00020			 AREA	 |.pdata|, PDATA
|$T36729| DCD	|$LN16@DMA_Close|
	DCD	0x40005f04

  00000			 AREA	 |.rdata|, DATA, READONLY
|??_C@_1CM@MGFIADLK@?$AA?9?$AAD?$AAM?$AAA?$AA_?$AAC?$AAl?$AAo?$AAs?$AAe?$AA?$CI?$AAr?$AAc?$AA?5?$AA?$DN?$AA?5?$AA?$CF?$AAd?$AA?$CJ?$AA?$AN?$AA?6?$AA?$AA@| DCB "-"
	DCB	0x0, "D", 0x0, "M", 0x0, "A", 0x0, "_", 0x0, "C", 0x0, "l"
	DCB	0x0, "o", 0x0, "s", 0x0, "e", 0x0, "(", 0x0, "r", 0x0, "c"
	DCB	0x0, " ", 0x0, "=", 0x0, " ", 0x0, "%", 0x0, "d", 0x0, ")"
	DCB	0x0, 0xd, 0x0, 0xa, 0x0, 0x0, 0x0	; `string'

  00000			 AREA	 |.rdata|, DATA, READONLY
|??_C@_1FK@DJBAADFJ@?$AAE?$AAR?$AAR?$AAO?$AAR?$AA?3?$AA?5?$AAD?$AAM?$AAA?$AA_?$AAR?$AAe?$AAa?$AAd?$AA?3?$AA?5?$AAI?$AAn?$AAc?$AAo?$AAr?$AAr?$AAe?$AAc?$AAt?$AA?5?$AAc?$AAo?$AAn?$AAt?$AAe@| DCB "E"
	DCB	0x0, "R", 0x0, "R", 0x0, "O", 0x0, "R", 0x0, ":", 0x0, " "
	DCB	0x0, "D", 0x0, "M", 0x0, "A", 0x0, "_", 0x0, "R", 0x0, "e"
	DCB	0x0, "a", 0x0, "d", 0x0, ":", 0x0, " ", 0x0, "I", 0x0, "n"
	DCB	0x0, "c", 0x0, "o", 0x0, "r", 0x0, "r", 0x0, "e", 0x0, "c"
	DCB	0x0, "t", 0x0, " ", 0x0, "c", 0x0, "o", 0x0, "n", 0x0, "t"
	DCB	0x0, "e", 0x0, "x", 0x0, "t", 0x0, " ", 0x0, "p", 0x0, "a"
	DCB	0x0, "r", 0x0, "a", 0x0, "m", 0x0, "e", 0x0, "r", 0x0, 0xd
	DCB	0x0, 0xa, 0x0, 0x0, 0x0			; `string'

  00000			 AREA	 |.rdata|, DATA, READONLY
|??_C@_1CK@JKKKIHGE@?$AA?$CL?$AAD?$AAM?$AAA?$AA_?$AAC?$AAl?$AAo?$AAs?$AAe?$AA?$CI?$AA0?$AAx?$AA?$CF?$AA0?$AA8?$AAx?$AA?$CJ?$AA?$AN?$AA?6?$AA?$AA@| DCB "+"
	DCB	0x0, "D", 0x0, "M", 0x0, "A", 0x0, "_", 0x0, "C", 0x0, "l"
	DCB	0x0, "o", 0x0, "s", 0x0, "e", 0x0, "(", 0x0, "0", 0x0, "x"
	DCB	0x0, "%", 0x0, "0", 0x0, "8", 0x0, "x", 0x0, ")", 0x0, 0xd
	DCB	0x0, 0xa, 0x0, 0x0, 0x0			; `string'
; Function compile flags: /Odtp

  0095c			 AREA	 |.text|, CODE, ARM

  0095c		 |?DMA_Close@@YAHK@Z| PROC		; DMA_Close

; 378  : {

  0095c		 |$LN16@DMA_Close|
  0095c	e1a0c00d	 mov         r12, sp
  00960	e92d0001	 stmdb       sp!, {r0}
  00964	e92d5000	 stmdb       sp!, {r12, lr}
  00968	e24dd020	 sub         sp, sp, #0x20
  0096c		 |$M36726|

; 379  :     BOOL rc = FALSE;

  0096c	e3a03000	 mov         r3, #0
  00970	e58d3004	 str         r3, [sp, #4]

; 380  :     Device_t *pDevice;
; 381  :     Instance_t *pInstance = (Instance_t*)context;

  00974	e59d3028	 ldr         r3, [sp, #0x28]
  00978	e58d3008	 str         r3, [sp, #8]

; 382  : 
; 383  :     DEBUGMSG(ZONE_FUNCTION, (L"+DMA_Close(0x%08x)\r\n", context));

  0097c	e59f3138	 ldr         r3, [pc, #0x138]
  00980	e5933440	 ldr         r3, [r3, #0x440]
  00984	e3130004	 tst         r3, #4
  00988	0a000005	 beq         |$LN6@DMA_Close|
  0098c	e59d1028	 ldr         r1, [sp, #0x28]
  00990	e59f013c	 ldr         r0, [pc, #0x13C]
  00994	eb000000	 bl          NKDbgPrintfW
  00998	e3a03001	 mov         r3, #1
  0099c	e58d3010	 str         r3, [sp, #0x10]
  009a0	ea000001	 b           |$LN7@DMA_Close|
  009a4		 |$LN6@DMA_Close|
  009a4	e3a03000	 mov         r3, #0
  009a8	e58d3010	 str         r3, [sp, #0x10]
  009ac		 |$LN7@DMA_Close|

; 384  : 
; 385  :     // Check if we get correct context
; 386  :     if ((pInstance == NULL) || (pInstance->cookie != DMA_INSTANCE_COOKIE))

  009ac	e59d3008	 ldr         r3, [sp, #8]
  009b0	e3530000	 cmp         r3, #0
  009b4	0a000004	 beq         |$LN2@DMA_Close|
  009b8	e59d3008	 ldr         r3, [sp, #8]
  009bc	e5932000	 ldr         r2, [r3]
  009c0	e59f3108	 ldr         r3, [pc, #0x108]
  009c4	e1520003	 cmp         r2, r3
  009c8	0a00000c	 beq         |$LN3@DMA_Close|
  009cc		 |$LN2@DMA_Close|

; 387  :         {
; 388  :         DEBUGMSG (ZONE_ERROR, (L"ERROR: DMA_Read: "
; 389  :             L"Incorrect context paramer\r\n"
; 390  :             ));

  009cc	e59f30e8	 ldr         r3, [pc, #0xE8]
  009d0	e5933440	 ldr         r3, [r3, #0x440]
  009d4	e3130001	 tst         r3, #1
  009d8	0a000004	 beq         |$LN8@DMA_Close|
  009dc	e59f00e8	 ldr         r0, [pc, #0xE8]
  009e0	eb000000	 bl          NKDbgPrintfW
  009e4	e3a03001	 mov         r3, #1
  009e8	e58d3014	 str         r3, [sp, #0x14]
  009ec	ea000001	 b           |$LN9@DMA_Close|
  009f0		 |$LN8@DMA_Close|
  009f0	e3a03000	 mov         r3, #0
  009f4	e58d3014	 str         r3, [sp, #0x14]
  009f8		 |$LN9@DMA_Close|

; 391  :         goto cleanUp;

  009f8	ea00001c	 b           |$LN1@DMA_Close|
  009fc	ea00001b	 b           |$cleanUp$36331|
  00a00		 |$LN3@DMA_Close|

; 392  :         }
; 393  : 
; 394  :     // Get device context
; 395  :     pDevice = pInstance->pDevice;

  00a00	e59d3008	 ldr         r3, [sp, #8]
  00a04	e2833004	 add         r3, r3, #4
  00a08	e5933000	 ldr         r3, [r3]
  00a0c	e58d3000	 str         r3, [sp]

; 396  : 
; 397  :     // Sanity check number of instances
; 398  :     ASSERT(pDevice->instances > 0);

  00a10	e59d3000	 ldr         r3, [sp]
  00a14	e283302c	 add         r3, r3, #0x2C
  00a18	e5933000	 ldr         r3, [r3]
  00a1c	e3530000	 cmp         r3, #0
  00a20	da000002	 ble         |$LN10@DMA_Close|
  00a24	e3a03001	 mov         r3, #1
  00a28	e58d3018	 str         r3, [sp, #0x18]
  00a2c	ea000008	 b           |$LN11@DMA_Close|
  00a30		 |$LN10@DMA_Close|
  00a30	e3a03c01	 mov         r3, #1, 24
  00a34	e383308e	 orr         r3, r3, #0x8E
  00a38	e59f2088	 ldr         r2, [pc, #0x88]
  00a3c	e59f1080	 ldr         r1, [pc, #0x80]
  00a40	e59f0078	 ldr         r0, [pc, #0x78]
  00a44	eb000000	 bl          NKDbgPrintfW
  00a48	e6000010	 __debugbreak_ce
  00a4c	e3a03000	 mov         r3, #0
  00a50	e58d3018	 str         r3, [sp, #0x18]
  00a54		 |$LN11@DMA_Close|

; 399  : 
; 400  :     // Decrement number of open instances
; 401  :     InterlockedDecrement(&pDevice->instances);

  00a54	e59d3000	 ldr         r3, [sp]
  00a58	e283002c	 add         r0, r3, #0x2C
  00a5c	eb000000	 bl          InterlockedDecrement

; 402  : 
; 403  :     // Free instance structure
; 404  :     LocalFree(pInstance);

  00a60	e59d0008	 ldr         r0, [sp, #8]
  00a64	eb000000	 bl          LocalFree

; 405  : 
; 406  :     // Done...
; 407  :     rc = TRUE;

  00a68	e3a03001	 mov         r3, #1
  00a6c	e58d3004	 str         r3, [sp, #4]
  00a70		 |$LN1@DMA_Close|
  00a70		 |$cleanUp$36331|

; 408  : 
; 409  : cleanUp:
; 410  :     DEBUGMSG(ZONE_FUNCTION, (L"-DMA_Close(rc = %d)\r\n", rc));

  00a70	e59f3044	 ldr         r3, [pc, #0x44]
  00a74	e5933440	 ldr         r3, [r3, #0x440]
  00a78	e3130004	 tst         r3, #4
  00a7c	0a000005	 beq         |$LN12@DMA_Close|
  00a80	e59d1004	 ldr         r1, [sp, #4]
  00a84	e59f002c	 ldr         r0, [pc, #0x2C]
  00a88	eb000000	 bl          NKDbgPrintfW
  00a8c	e3a03001	 mov         r3, #1
  00a90	e58d301c	 str         r3, [sp, #0x1C]
  00a94	ea000001	 b           |$LN13@DMA_Close|
  00a98		 |$LN12@DMA_Close|
  00a98	e3a03000	 mov         r3, #0
  00a9c	e58d301c	 str         r3, [sp, #0x1C]
  00aa0		 |$LN13@DMA_Close|

; 411  :     return rc;

  00aa0	e59d3004	 ldr         r3, [sp, #4]
  00aa4	e58d300c	 str         r3, [sp, #0xC]

; 412  : }

  00aa8	e59d000c	 ldr         r0, [sp, #0xC]
  00aac	e28dd020	 add         sp, sp, #0x20
  00ab0	e89d6000	 ldmia       sp, {sp, lr}
  00ab4	e12fff1e	 bx          lr
  00ab8		 |$LN17@DMA_Close|
  00ab8		 |$LN18@DMA_Close|
  00ab8	00000000	 DCD         |??_C@_1CM@MGFIADLK@?$AA?9?$AAD?$AAM?$AAA?$AA_?$AAC?$AAl?$AAo?$AAs?$AAe?$AA?$CI?$AAr?$AAc?$AA?5?$AA?$DN?$AA?5?$AA?$CF?$AAd?$AA?$CJ?$AA?$AN?$AA?6?$AA?$AA@|
  00abc		 |$LN19@DMA_Close|
  00abc	00000000	 DCD         |dpCurSettings|
  00ac0		 |$LN20@DMA_Close|
  00ac0	00000000	 DCD         |??_C@_1FK@FNONLNGN@?$AA?$CF?$AAs?$AA?3?$AA?5?$AAD?$AAE?$AAB?$AAU?$AAG?$AAC?$AAH?$AAK?$AA?5?$AAf?$AAa?$AAi?$AAl?$AAe?$AAd?$AA?5?$AAi?$AAn?$AA?5?$AAf?$AAi?$AAl?$AAe?$AA?5?$AA?$CF?$AAs?$AA?5?$AAa@|
  00ac4		 |$LN21@DMA_Close|
  00ac4	00000000	 DCD         |??_C@_1BA@LEPJIIOK@?$AAU?$AAn?$AAk?$AAn?$AAo?$AAw?$AAn?$AA?$AA@|
  00ac8		 |$LN22@DMA_Close|
  00ac8	00000000	 DCD         |??_C@_1JE@MNGKPFHN@?$AAC?$AA?3?$AA?2?$AAW?$AAI?$AAN?$AAC?$AAE?$AA6?$AA0?$AA0?$AA?2?$AAP?$AAL?$AAA?$AAT?$AAF?$AAO?$AAR?$AAM?$AA?2?$AAC?$AAO?$AAM?$AAM?$AAO?$AAN?$AA?2?$AAS?$AAR?$AAC?$AA?2@|
  00acc		 |$LN23@DMA_Close|
  00acc	00000000	 DCD         |??_C@_1FK@DJBAADFJ@?$AAE?$AAR?$AAR?$AAO?$AAR?$AA?3?$AA?5?$AAD?$AAM?$AAA?$AA_?$AAR?$AAe?$AAa?$AAd?$AA?3?$AA?5?$AAI?$AAn?$AAc?$AAo?$AAr?$AAr?$AAe?$AAc?$AAt?$AA?5?$AAc?$AAo?$AAn?$AAt?$AAe@|
  00ad0		 |$LN24@DMA_Close|
  00ad0	646d6149	 DCD         0x646d6149
  00ad4		 |$LN25@DMA_Close|
  00ad4	00000000	 DCD         |??_C@_1CK@JKKKIHGE@?$AA?$CL?$AAD?$AAM?$AAA?$AA_?$AAC?$AAl?$AAo?$AAs?$AAe?$AA?$CI?$AA0?$AAx?$AA?$CF?$AA0?$AA8?$AAx?$AA?$CJ?$AA?$AN?$AA?6?$AA?$AA@|
  00ad8		 |$M36727|

			 ENDP  ; |?DMA_Close@@YAHK@Z|, DMA_Close

	EXPORT	|??_C@_1DE@EAIEEINC@?$AA?9?$AAD?$AAM?$AAA?$AA_?$AAI?$AAO?$AAC?$AAo?$AAn?$AAt?$AAr?$AAo?$AAl?$AA?$CI?$AAr?$AAc?$AA?5?$AA?$DN?$AA?5?$AA?$CF?$AAd?$AA?$CJ?$AA?$AN?$AA?6?$AA?$AA@| [ DATA ] ; `string'
	EXPORT	|??_C@_1KC@HJDFMDN@?$AAE?$AAR?$AAR?$AAO?$AAR?$AA?3?$AA?5?$AAD?$AAM?$AAA?$AA_?$AAI?$AAO?$AAC?$AAo?$AAn?$AAt?$AAr?$AAo?$AAl?$AA?3?$AA?5?$AAI?$AAO?$AAC?$AAT?$AAL?$AA_?$AAD?$AAM?$AAA?$AA_@| [ DATA ] ; `string'
	EXPORT	|??_C@_1FK@ENMBLFDM@?$AAD?$AAM?$AAA?$AA?3?$AA?5?$AAI?$AAO?$AAC?$AAT?$AAL?$AA_?$AAD?$AAM?$AAA?$AA_?$AAR?$AAE?$AAL?$AAE?$AAA?$AAS?$AAE?$AA_?$AAD?$AAE?$AAD?$AAI?$AAC?$AAA?$AAT?$AAE?$AAD@| [ DATA ] ; `string'
	EXPORT	|??_C@_1KC@CNIFDEJA@?$AAE?$AAR?$AAR?$AAO?$AAR?$AA?3?$AA?5?$AAD?$AAM?$AAA?$AA_?$AAI?$AAO?$AAC?$AAo?$AAn?$AAt?$AAr?$AAo?$AAl?$AA?3?$AA?5?$AAI?$AAO?$AAC?$AAT?$AAL?$AA_?$AAD?$AAM?$AAA?$AA_@| [ DATA ] ; `string'
	EXPORT	|??_C@_1FK@PONNAMLF@?$AAD?$AAM?$AAA?$AA?3?$AA?5?$AAI?$AAO?$AAC?$AAT?$AAL?$AA_?$AAD?$AAM?$AAA?$AA_?$AAR?$AAE?$AAQ?$AAU?$AAE?$AAS?$AAT?$AA_?$AAD?$AAE?$AAD?$AAI?$AAC?$AAA?$AAT?$AAE?$AAD@| [ DATA ] ; `string'
	EXPORT	|??_C@_1II@KHNCEPEJ@?$AAE?$AAR?$AAR?$AAO?$AAR?$AA?3?$AA?5?$AAD?$AAM?$AAA?$AA_?$AAI?$AAO?$AAC?$AAo?$AAn?$AAt?$AAr?$AAo?$AAl?$AA?3?$AA?5?$AAI?$AAO?$AAC?$AAT?$AAL?$AA_?$AAD?$AAM?$AAA?$AA_@| [ DATA ] ; `string'
	EXPORT	|??_C@_1EA@OGKOKBHA@?$AAD?$AAM?$AAA?$AA?3?$AA?5?$AAI?$AAO?$AAC?$AAT?$AAL?$AA_?$AAD?$AAM?$AAA?$AA_?$AAD?$AAI?$AAS?$AAA?$AAB?$AAL?$AAE?$AAS?$AAT?$AAA?$AAN?$AAD?$AAB?$AAY?$AA?$AN?$AA?6?$AA?$AA@| [ DATA ] ; `string'
	EXPORT	|??_C@_1JE@IEPPPBBP@?$AAE?$AAR?$AAR?$AAO?$AAR?$AA?3?$AA?5?$AAD?$AAM?$AAA?$AA_?$AAI?$AAO?$AAC?$AAo?$AAn?$AAt?$AAr?$AAo?$AAl?$AA?3?$AA?5?$AAI?$AAO?$AAC?$AAT?$AAL?$AA_?$AAD?$AAM?$AAA?$AA_@| [ DATA ] ; `string'
	EXPORT	|??_C@_1EM@KIJMIBAE@?$AAD?$AAM?$AAA?$AA?3?$AA?5?$AAI?$AAO?$AAC?$AAT?$AAL?$AA_?$AAD?$AAM?$AAA?$AA_?$AAR?$AAE?$AAG?$AAI?$AAS?$AAT?$AAE?$AAR?$AA_?$AAE?$AAV?$AAE?$AAN?$AAT?$AAH?$AAA?$AAN@| [ DATA ] ; `string'
	EXPORT	|??_C@_1IK@NFADGPHD@?$AAE?$AAR?$AAR?$AAO?$AAR?$AA?3?$AA?5?$AAD?$AAM?$AAA?$AA_?$AAI?$AAO?$AAC?$AAo?$AAn?$AAt?$AAr?$AAo?$AAl?$AA?3?$AA?5?$AAI?$AAO?$AAC?$AAT?$AAL?$AA_?$AAD?$AAM?$AAA?$AA_@| [ DATA ] ; `string'
	EXPORT	|??_C@_1EC@LGJBLPNA@?$AAD?$AAM?$AAA?$AA?3?$AA?5?$AAI?$AAO?$AAC?$AAT?$AAL?$AA_?$AAD?$AAM?$AAA?$AA_?$AAR?$AAE?$AAL?$AAE?$AAA?$AAS?$AAE?$AA_?$AAC?$AAH?$AAA?$AAN?$AAN?$AAE?$AAL?$AA?$AN?$AA?6@| [ DATA ] ; `string'
	EXPORT	|??_C@_1HE@IMGAHJPA@?$AAE?$AAR?$AAR?$AAO?$AAR?$AA?3?$AA?5?$AAD?$AAM?$AAA?$AA_?$AAI?$AAO?$AAC?$AAo?$AAn?$AAt?$AAr?$AAo?$AAl?$AA?3?$AA?5?$AAI?$AAO?$AAC?$AAT?$AAL?$AA_?$AAD?$AAM?$AAA?$AA_@| [ DATA ] ; `string'
	EXPORT	|??_C@_1IK@PBCCDOJK@?$AAE?$AAR?$AAR?$AAO?$AAR?$AA?3?$AA?5?$AAD?$AAM?$AAA?$AA_?$AAI?$AAO?$AAC?$AAo?$AAn?$AAt?$AAr?$AAo?$AAl?$AA?3?$AA?5?$AAI?$AAO?$AAC?$AAT?$AAL?$AA_?$AAD?$AAM?$AAA?$AA_@| [ DATA ] ; `string'
	EXPORT	|??_C@_1EC@CEEBBBEG@?$AAD?$AAM?$AAA?$AA?3?$AA?5?$AAI?$AAO?$AAC?$AAT?$AAL?$AA_?$AAD?$AAM?$AAA?$AA_?$AAR?$AAE?$AAS?$AAE?$AAR?$AAV?$AAE?$AA_?$AAC?$AAH?$AAA?$AAN?$AAN?$AAE?$AAL?$AA?$AN?$AA?6@| [ DATA ] ; `string'
	EXPORT	|??_C@_1IG@JBGLNBAG@?$AAE?$AAR?$AAR?$AAO?$AAR?$AA?3?$AA?5?$AAD?$AAM?$AAA?$AA_?$AAI?$AAO?$AAC?$AAo?$AAn?$AAt?$AAr?$AAo?$AAl?$AA?3?$AA?5?$AAI?$AAO?$AAC?$AAT?$AAL?$AA_?$AAD?$AAM?$AAA?$AA_@| [ DATA ] ; `string'
	EXPORT	|??_C@_1DO@DHCECFCP@?$AAD?$AAM?$AAA?$AA?3?$AA?5?$AAI?$AAO?$AAC?$AAT?$AAL?$AA_?$AAD?$AAM?$AAA?$AA_?$AAI?$AAN?$AAT?$AAE?$AAR?$AAR?$AAU?$AAP?$AAT?$AAD?$AAO?$AAN?$AAE?$AA?$AN?$AA?6?$AA?$AA@| [ DATA ] ; `string'
	EXPORT	|??_C@_1GE@LLEHPHIC@?$AAE?$AAR?$AAR?$AAO?$AAR?$AA?3?$AA?5?$AAD?$AAM?$AAA?$AA_?$AAI?$AAO?$AAC?$AAo?$AAn?$AAt?$AAr?$AAo?$AAl?$AA?3?$AA?5?$AAI?$AAn?$AAc?$AAo?$AAr?$AAr?$AAe?$AAc?$AAt?$AA?5@| [ DATA ] ; `string'
	EXPORT	|??_C@_1IC@JDOCADMF@?$AA?$CL?$AAD?$AAM?$AAA?$AA_?$AAI?$AAO?$AAC?$AAo?$AAn?$AAt?$AAr?$AAo?$AAl?$AA?$CI?$AA0?$AAx?$AA?$CF?$AA0?$AA8?$AAx?$AA?0?$AA?5?$AA0?$AAx?$AA?$CF?$AA0?$AA8?$AAx?$AA?0?$AA?5?$AA0@| [ DATA ] ; `string'
	EXPORT	|?DMA_IOControl@@YAHKKPAEK0KPAK@Z|	; DMA_IOControl
	IMPORT	|?SetSecondaryInterruptHandler@DmaControllerBase@@QAAHPBUDmaChannelContext_t@@PAXK@Z| ; DmaControllerBase::SetSecondaryInterruptHandler
	IMPORT	|LeaveCriticalSection|
	IMPORT	|?InterruptDone@DmaControllerBase@@QAAHPBUDmaChannelContext_t@@@Z| ; DmaControllerBase::InterruptDone
	IMPORT	|EnterCriticalSection|
	IMPORT	|SetLastError|

  00028			 AREA	 |.pdata|, PDATA
|$T36816| DCD	|$LN126@DMA_IOCont|
	DCD	0x40027a04

  00000			 AREA	 |.rdata|, DATA, READONLY
|??_C@_1DE@EAIEEINC@?$AA?9?$AAD?$AAM?$AAA?$AA_?$AAI?$AAO?$AAC?$AAo?$AAn?$AAt?$AAr?$AAo?$AAl?$AA?$CI?$AAr?$AAc?$AA?5?$AA?$DN?$AA?5?$AA?$CF?$AAd?$AA?$CJ?$AA?$AN?$AA?6?$AA?$AA@| DCB "-"
	DCB	0x0, "D", 0x0, "M", 0x0, "A", 0x0, "_", 0x0, "I", 0x0, "O"
	DCB	0x0, "C", 0x0, "o", 0x0, "n", 0x0, "t", 0x0, "r", 0x0, "o"
	DCB	0x0, "l", 0x0, "(", 0x0, "r", 0x0, "c", 0x0, " ", 0x0, "="
	DCB	0x0, " ", 0x0, "%", 0x0, "d", 0x0, ")", 0x0, 0xd, 0x0, 0xa
	DCB	0x0, 0x0, 0x0				; `string'

  00000			 AREA	 |.rdata|, DATA, READONLY
|??_C@_1KC@HJDFMDN@?$AAE?$AAR?$AAR?$AAO?$AAR?$AA?3?$AA?5?$AAD?$AAM?$AAA?$AA_?$AAI?$AAO?$AAC?$AAo?$AAn?$AAt?$AAr?$AAo?$AAl?$AA?3?$AA?5?$AAI?$AAO?$AAC?$AAT?$AAL?$AA_?$AAD?$AAM?$AAA?$AA_@| DCB "E"
	DCB	0x0, "R", 0x0, "R", 0x0, "O", 0x0, "R", 0x0, ":", 0x0, " "
	DCB	0x0, "D", 0x0, "M", 0x0, "A", 0x0, "_", 0x0, "I", 0x0, "O"
	DCB	0x0, "C", 0x0, "o", 0x0, "n", 0x0, "t", 0x0, "r", 0x0, "o"
	DCB	0x0, "l", 0x0, ":", 0x0, " ", 0x0, "I", 0x0, "O", 0x0, "C"
	DCB	0x0, "T", 0x0, "L", 0x0, "_", 0x0, "D", 0x0, "M", 0x0, "A"
	DCB	0x0, "_", 0x0, "R", 0x0, "E", 0x0, "L", 0x0, "E", 0x0, "A"
	DCB	0x0, "S", 0x0, "E", 0x0, "_", 0x0, "D", 0x0, "E", 0x0, "D"
	DCB	0x0, "I", 0x0, "C", 0x0, "A", 0x0, "T", 0x0, "E", 0x0, "D"
	DCB	0x0, "_", 0x0, "I", 0x0, "N", 0x0, "T", 0x0, "E", 0x0, "R"
	DCB	0x0, "R", 0x0, "U", 0x0, "P", 0x0, "T", 0x0, " ", 0x0, "i"
	DCB	0x0, "n", 0x0, "v", 0x0, "a", 0x0, "l", 0x0, "i", 0x0, "d"
	DCB	0x0, " ", 0x0, "p", 0x0, "a", 0x0, "r", 0x0, "a", 0x0, "m"
	DCB	0x0, "e", 0x0, "t", 0x0, "e", 0x0, "r", 0x0, "s", 0x0, 0xd
	DCB	0x0, 0xa, 0x0, 0x0, 0x0			; `string'

  00000			 AREA	 |.rdata|, DATA, READONLY
|??_C@_1FK@ENMBLFDM@?$AAD?$AAM?$AAA?$AA?3?$AA?5?$AAI?$AAO?$AAC?$AAT?$AAL?$AA_?$AAD?$AAM?$AAA?$AA_?$AAR?$AAE?$AAL?$AAE?$AAA?$AAS?$AAE?$AA_?$AAD?$AAE?$AAD?$AAI?$AAC?$AAA?$AAT?$AAE?$AAD@| DCB "D"
	DCB	0x0, "M", 0x0, "A", 0x0, ":", 0x0, " ", 0x0, "I", 0x0, "O"
	DCB	0x0, "C", 0x0, "T", 0x0, "L", 0x0, "_", 0x0, "D", 0x0, "M"
	DCB	0x0, "A", 0x0, "_", 0x0, "R", 0x0, "E", 0x0, "L", 0x0, "E"
	DCB	0x0, "A", 0x0, "S", 0x0, "E", 0x0, "_", 0x0, "D", 0x0, "E"
	DCB	0x0, "D", 0x0, "I", 0x0, "C", 0x0, "A", 0x0, "T", 0x0, "E"
	DCB	0x0, "D", 0x0, "_", 0x0, "I", 0x0, "N", 0x0, "T", 0x0, "E"
	DCB	0x0, "R", 0x0, "R", 0x0, "U", 0x0, "P", 0x0, "T", 0x0, 0xd
	DCB	0x0, 0xa, 0x0, 0x0, 0x0			; `string'

  00000			 AREA	 |.rdata|, DATA, READONLY
|??_C@_1KC@CNIFDEJA@?$AAE?$AAR?$AAR?$AAO?$AAR?$AA?3?$AA?5?$AAD?$AAM?$AAA?$AA_?$AAI?$AAO?$AAC?$AAo?$AAn?$AAt?$AAr?$AAo?$AAl?$AA?3?$AA?5?$AAI?$AAO?$AAC?$AAT?$AAL?$AA_?$AAD?$AAM?$AAA?$AA_@| DCB "E"
	DCB	0x0, "R", 0x0, "R", 0x0, "O", 0x0, "R", 0x0, ":", 0x0, " "
	DCB	0x0, "D", 0x0, "M", 0x0, "A", 0x0, "_", 0x0, "I", 0x0, "O"
	DCB	0x0, "C", 0x0, "o", 0x0, "n", 0x0, "t", 0x0, "r", 0x0, "o"
	DCB	0x0, "l", 0x0, ":", 0x0, " ", 0x0, "I", 0x0, "O", 0x0, "C"
	DCB	0x0, "T", 0x0, "L", 0x0, "_", 0x0, "D", 0x0, "M", 0x0, "A"
	DCB	0x0, "_", 0x0, "R", 0x0, "E", 0x0, "Q", 0x0, "U", 0x0, "E"
	DCB	0x0, "S", 0x0, "T", 0x0, "_", 0x0, "D", 0x0, "E", 0x0, "D"
	DCB	0x0, "I", 0x0, "C", 0x0, "A", 0x0, "T", 0x0, "E", 0x0, "D"
	DCB	0x0, "_", 0x0, "I", 0x0, "N", 0x0, "T", 0x0, "E", 0x0, "R"
	DCB	0x0, "R", 0x0, "U", 0x0, "P", 0x0, "T", 0x0, " ", 0x0, "i"
	DCB	0x0, "n", 0x0, "v", 0x0, "a", 0x0, "l", 0x0, "i", 0x0, "d"
	DCB	0x0, " ", 0x0, "p", 0x0, "a", 0x0, "r", 0x0, "a", 0x0, "m"
	DCB	0x0, "e", 0x0, "t", 0x0, "e", 0x0, "r", 0x0, "s", 0x0, 0xd
	DCB	0x0, 0xa, 0x0, 0x0, 0x0			; `string'

  00000			 AREA	 |.rdata|, DATA, READONLY
|??_C@_1FK@PONNAMLF@?$AAD?$AAM?$AAA?$AA?3?$AA?5?$AAI?$AAO?$AAC?$AAT?$AAL?$AA_?$AAD?$AAM?$AAA?$AA_?$AAR?$AAE?$AAQ?$AAU?$AAE?$AAS?$AAT?$AA_?$AAD?$AAE?$AAD?$AAI?$AAC?$AAA?$AAT?$AAE?$AAD@| DCB "D"
	DCB	0x0, "M", 0x0, "A", 0x0, ":", 0x0, " ", 0x0, "I", 0x0, "O"
	DCB	0x0, "C", 0x0, "T", 0x0, "L", 0x0, "_", 0x0, "D", 0x0, "M"
	DCB	0x0, "A", 0x0, "_", 0x0, "R", 0x0, "E", 0x0, "Q", 0x0, "U"
	DCB	0x0, "E", 0x0, "S", 0x0, "T", 0x0, "_", 0x0, "D", 0x0, "E"
	DCB	0x0, "D", 0x0, "I", 0x0, "C", 0x0, "A", 0x0, "T", 0x0, "E"
	DCB	0x0, "D", 0x0, "_", 0x0, "I", 0x0, "N", 0x0, "T", 0x0, "E"
	DCB	0x0, "R", 0x0, "R", 0x0, "U", 0x0, "P", 0x0, "T", 0x0, 0xd
	DCB	0x0, 0xa, 0x0, 0x0, 0x0			; `string'

  00000			 AREA	 |.rdata|, DATA, READONLY
|??_C@_1II@KHNCEPEJ@?$AAE?$AAR?$AAR?$AAO?$AAR?$AA?3?$AA?5?$AAD?$AAM?$AAA?$AA_?$AAI?$AAO?$AAC?$AAo?$AAn?$AAt?$AAr?$AAo?$AAl?$AA?3?$AA?5?$AAI?$AAO?$AAC?$AAT?$AAL?$AA_?$AAD?$AAM?$AAA?$AA_@| DCB "E"
	DCB	0x0, "R", 0x0, "R", 0x0, "O", 0x0, "R", 0x0, ":", 0x0, " "
	DCB	0x0, "D", 0x0, "M", 0x0, "A", 0x0, "_", 0x0, "I", 0x0, "O"
	DCB	0x0, "C", 0x0, "o", 0x0, "n", 0x0, "t", 0x0, "r", 0x0, "o"
	DCB	0x0, "l", 0x0, ":", 0x0, " ", 0x0, "I", 0x0, "O", 0x0, "C"
	DCB	0x0, "T", 0x0, "L", 0x0, "_", 0x0, "D", 0x0, "M", 0x0, "A"
	DCB	0x0, "_", 0x0, "D", 0x0, "I", 0x0, "S", 0x0, "A", 0x0, "B"
	DCB	0x0, "L", 0x0, "E", 0x0, "S", 0x0, "T", 0x0, "A", 0x0, "N"
	DCB	0x0, "D", 0x0, "B", 0x0, "Y", 0x0, " ", 0x0, "i", 0x0, "n"
	DCB	0x0, "v", 0x0, "a", 0x0, "l", 0x0, "i", 0x0, "d", 0x0, " "
	DCB	0x0, "p", 0x0, "a", 0x0, "r", 0x0, "a", 0x0, "m", 0x0, "e"
	DCB	0x0, "t", 0x0, "e", 0x0, "r", 0x0, "s", 0x0, 0xd, 0x0, 0xa
	DCB	0x0, 0x0, 0x0				; `string'

  00000			 AREA	 |.rdata|, DATA, READONLY
|??_C@_1EA@OGKOKBHA@?$AAD?$AAM?$AAA?$AA?3?$AA?5?$AAI?$AAO?$AAC?$AAT?$AAL?$AA_?$AAD?$AAM?$AAA?$AA_?$AAD?$AAI?$AAS?$AAA?$AAB?$AAL?$AAE?$AAS?$AAT?$AAA?$AAN?$AAD?$AAB?$AAY?$AA?$AN?$AA?6?$AA?$AA@| DCB "D"
	DCB	0x0, "M", 0x0, "A", 0x0, ":", 0x0, " ", 0x0, "I", 0x0, "O"
	DCB	0x0, "C", 0x0, "T", 0x0, "L", 0x0, "_", 0x0, "D", 0x0, "M"
	DCB	0x0, "A", 0x0, "_", 0x0, "D", 0x0, "I", 0x0, "S", 0x0, "A"
	DCB	0x0, "B", 0x0, "L", 0x0, "E", 0x0, "S", 0x0, "T", 0x0, "A"
	DCB	0x0, "N", 0x0, "D", 0x0, "B", 0x0, "Y", 0x0, 0xd, 0x0, 0xa
	DCB	0x0, 0x0, 0x0				; `string'

  00000			 AREA	 |.rdata|, DATA, READONLY
|??_C@_1JE@IEPPPBBP@?$AAE?$AAR?$AAR?$AAO?$AAR?$AA?3?$AA?5?$AAD?$AAM?$AAA?$AA_?$AAI?$AAO?$AAC?$AAo?$AAn?$AAt?$AAr?$AAo?$AAl?$AA?3?$AA?5?$AAI?$AAO?$AAC?$AAT?$AAL?$AA_?$AAD?$AAM?$AAA?$AA_@| DCB "E"
	DCB	0x0, "R", 0x0, "R", 0x0, "O", 0x0, "R", 0x0, ":", 0x0, " "
	DCB	0x0, "D", 0x0, "M", 0x0, "A", 0x0, "_", 0x0, "I", 0x0, "O"
	DCB	0x0, "C", 0x0, "o", 0x0, "n", 0x0, "t", 0x0, "r", 0x0, "o"
	DCB	0x0, "l", 0x0, ":", 0x0, " ", 0x0, "I", 0x0, "O", 0x0, "C"
	DCB	0x0, "T", 0x0, "L", 0x0, "_", 0x0, "D", 0x0, "M", 0x0, "A"
	DCB	0x0, "_", 0x0, "R", 0x0, "E", 0x0, "G", 0x0, "I", 0x0, "S"
	DCB	0x0, "T", 0x0, "E", 0x0, "R", 0x0, "_", 0x0, "E", 0x0, "V"
	DCB	0x0, "E", 0x0, "N", 0x0, "T", 0x0, "H", 0x0, "A", 0x0, "N"
	DCB	0x0, "D", 0x0, "L", 0x0, "E", 0x0, " ", 0x0, "i", 0x0, "n"
	DCB	0x0, "v", 0x0, "a", 0x0, "l", 0x0, "i", 0x0, "d", 0x0, " "
	DCB	0x0, "p", 0x0, "a", 0x0, "r", 0x0, "a", 0x0, "m", 0x0, "e"
	DCB	0x0, "t", 0x0, "e", 0x0, "r", 0x0, "s", 0x0, 0xd, 0x0, 0xa
	DCB	0x0, 0x0, 0x0				; `string'

  00000			 AREA	 |.rdata|, DATA, READONLY
|??_C@_1EM@KIJMIBAE@?$AAD?$AAM?$AAA?$AA?3?$AA?5?$AAI?$AAO?$AAC?$AAT?$AAL?$AA_?$AAD?$AAM?$AAA?$AA_?$AAR?$AAE?$AAG?$AAI?$AAS?$AAT?$AAE?$AAR?$AA_?$AAE?$AAV?$AAE?$AAN?$AAT?$AAH?$AAA?$AAN@| DCB "D"
	DCB	0x0, "M", 0x0, "A", 0x0, ":", 0x0, " ", 0x0, "I", 0x0, "O"
	DCB	0x0, "C", 0x0, "T", 0x0, "L", 0x0, "_", 0x0, "D", 0x0, "M"
	DCB	0x0, "A", 0x0, "_", 0x0, "R", 0x0, "E", 0x0, "G", 0x0, "I"
	DCB	0x0, "S", 0x0, "T", 0x0, "E", 0x0, "R", 0x0, "_", 0x0, "E"
	DCB	0x0, "V", 0x0, "E", 0x0, "N", 0x0, "T", 0x0, "H", 0x0, "A"
	DCB	0x0, "N", 0x0, "D", 0x0, "L", 0x0, "E", 0x0, 0xd, 0x0, 0xa
	DCB	0x0, 0x0, 0x0				; `string'

  00000			 AREA	 |.rdata|, DATA, READONLY
|??_C@_1IK@NFADGPHD@?$AAE?$AAR?$AAR?$AAO?$AAR?$AA?3?$AA?5?$AAD?$AAM?$AAA?$AA_?$AAI?$AAO?$AAC?$AAo?$AAn?$AAt?$AAr?$AAo?$AAl?$AA?3?$AA?5?$AAI?$AAO?$AAC?$AAT?$AAL?$AA_?$AAD?$AAM?$AAA?$AA_@| DCB "E"
	DCB	0x0, "R", 0x0, "R", 0x0, "O", 0x0, "R", 0x0, ":", 0x0, " "
	DCB	0x0, "D", 0x0, "M", 0x0, "A", 0x0, "_", 0x0, "I", 0x0, "O"
	DCB	0x0, "C", 0x0, "o", 0x0, "n", 0x0, "t", 0x0, "r", 0x0, "o"
	DCB	0x0, "l", 0x0, ":", 0x0, " ", 0x0, "I", 0x0, "O", 0x0, "C"
	DCB	0x0, "T", 0x0, "L", 0x0, "_", 0x0, "D", 0x0, "M", 0x0, "A"
	DCB	0x0, "_", 0x0, "R", 0x0, "E", 0x0, "L", 0x0, "E", 0x0, "A"
	DCB	0x0, "S", 0x0, "E", 0x0, "_", 0x0, "C", 0x0, "H", 0x0, "A"
	DCB	0x0, "N", 0x0, "N", 0x0, "E", 0x0, "L", 0x0, " ", 0x0, "i"
	DCB	0x0, "n", 0x0, "v", 0x0, "a", 0x0, "l", 0x0, "i", 0x0, "d"
	DCB	0x0, " ", 0x0, "p", 0x0, "a", 0x0, "r", 0x0, "a", 0x0, "m"
	DCB	0x0, "e", 0x0, "t", 0x0, "e", 0x0, "r", 0x0, "s", 0x0, 0xd
	DCB	0x0, 0xa, 0x0, 0x0, 0x0			; `string'

  00000			 AREA	 |.rdata|, DATA, READONLY
|??_C@_1EC@LGJBLPNA@?$AAD?$AAM?$AAA?$AA?3?$AA?5?$AAI?$AAO?$AAC?$AAT?$AAL?$AA_?$AAD?$AAM?$AAA?$AA_?$AAR?$AAE?$AAL?$AAE?$AAA?$AAS?$AAE?$AA_?$AAC?$AAH?$AAA?$AAN?$AAN?$AAE?$AAL?$AA?$AN?$AA?6@| DCB "D"
	DCB	0x0, "M", 0x0, "A", 0x0, ":", 0x0, " ", 0x0, "I", 0x0, "O"
	DCB	0x0, "C", 0x0, "T", 0x0, "L", 0x0, "_", 0x0, "D", 0x0, "M"
	DCB	0x0, "A", 0x0, "_", 0x0, "R", 0x0, "E", 0x0, "L", 0x0, "E"
	DCB	0x0, "A", 0x0, "S", 0x0, "E", 0x0, "_", 0x0, "C", 0x0, "H"
	DCB	0x0, "A", 0x0, "N", 0x0, "N", 0x0, "E", 0x0, "L", 0x0, 0xd
	DCB	0x0, 0xa, 0x0, 0x0, 0x0			; `string'

  00000			 AREA	 |.rdata|, DATA, READONLY
|??_C@_1HE@IMGAHJPA@?$AAE?$AAR?$AAR?$AAO?$AAR?$AA?3?$AA?5?$AAD?$AAM?$AAA?$AA_?$AAI?$AAO?$AAC?$AAo?$AAn?$AAt?$AAr?$AAo?$AAl?$AA?3?$AA?5?$AAI?$AAO?$AAC?$AAT?$AAL?$AA_?$AAD?$AAM?$AAA?$AA_@| DCB "E"
	DCB	0x0, "R", 0x0, "R", 0x0, "O", 0x0, "R", 0x0, ":", 0x0, " "
	DCB	0x0, "D", 0x0, "M", 0x0, "A", 0x0, "_", 0x0, "I", 0x0, "O"
	DCB	0x0, "C", 0x0, "o", 0x0, "n", 0x0, "t", 0x0, "r", 0x0, "o"
	DCB	0x0, "l", 0x0, ":", 0x0, " ", 0x0, "I", 0x0, "O", 0x0, "C"
	DCB	0x0, "T", 0x0, "L", 0x0, "_", 0x0, "D", 0x0, "M", 0x0, "A"
	DCB	0x0, "_", 0x0, "R", 0x0, "E", 0x0, "S", 0x0, "E", 0x0, "R"
	DCB	0x0, "V", 0x0, "E", 0x0, "_", 0x0, "C", 0x0, "H", 0x0, "A"
	DCB	0x0, "N", 0x0, "N", 0x0, "E", 0x0, "L", 0x0, ":", 0x0, " "
	DCB	0x0, "f", 0x0, "a", 0x0, "i", 0x0, "l", 0x0, "e", 0x0, "d"
	DCB	0x0, 0xd, 0x0, 0xa, 0x0, 0x0, 0x0	; `string'

  00000			 AREA	 |.rdata|, DATA, READONLY
|??_C@_1IK@PBCCDOJK@?$AAE?$AAR?$AAR?$AAO?$AAR?$AA?3?$AA?5?$AAD?$AAM?$AAA?$AA_?$AAI?$AAO?$AAC?$AAo?$AAn?$AAt?$AAr?$AAo?$AAl?$AA?3?$AA?5?$AAI?$AAO?$AAC?$AAT?$AAL?$AA_?$AAD?$AAM?$AAA?$AA_@| DCB "E"
	DCB	0x0, "R", 0x0, "R", 0x0, "O", 0x0, "R", 0x0, ":", 0x0, " "
	DCB	0x0, "D", 0x0, "M", 0x0, "A", 0x0, "_", 0x0, "I", 0x0, "O"
	DCB	0x0, "C", 0x0, "o", 0x0, "n", 0x0, "t", 0x0, "r", 0x0, "o"
	DCB	0x0, "l", 0x0, ":", 0x0, " ", 0x0, "I", 0x0, "O", 0x0, "C"
	DCB	0x0, "T", 0x0, "L", 0x0, "_", 0x0, "D", 0x0, "M", 0x0, "A"
	DCB	0x0, "_", 0x0, "R", 0x0, "E", 0x0, "S", 0x0, "E", 0x0, "R"
	DCB	0x0, "V", 0x0, "E", 0x0, "_", 0x0, "C", 0x0, "H", 0x0, "A"
	DCB	0x0, "N", 0x0, "N", 0x0, "E", 0x0, "L", 0x0, " ", 0x0, "i"
	DCB	0x0, "n", 0x0, "v", 0x0, "a", 0x0, "l", 0x0, "i", 0x0, "d"
	DCB	0x0, " ", 0x0, "p", 0x0, "a", 0x0, "r", 0x0, "a", 0x0, "m"
	DCB	0x0, "e", 0x0, "t", 0x0, "e", 0x0, "r", 0x0, "s", 0x0, 0xd
	DCB	0x0, 0xa, 0x0, 0x0, 0x0			; `string'

  00000			 AREA	 |.rdata|, DATA, READONLY
|??_C@_1EC@CEEBBBEG@?$AAD?$AAM?$AAA?$AA?3?$AA?5?$AAI?$AAO?$AAC?$AAT?$AAL?$AA_?$AAD?$AAM?$AAA?$AA_?$AAR?$AAE?$AAS?$AAE?$AAR?$AAV?$AAE?$AA_?$AAC?$AAH?$AAA?$AAN?$AAN?$AAE?$AAL?$AA?$AN?$AA?6@| DCB "D"
	DCB	0x0, "M", 0x0, "A", 0x0, ":", 0x0, " ", 0x0, "I", 0x0, "O"
	DCB	0x0, "C", 0x0, "T", 0x0, "L", 0x0, "_", 0x0, "D", 0x0, "M"
	DCB	0x0, "A", 0x0, "_", 0x0, "R", 0x0, "E", 0x0, "S", 0x0, "E"
	DCB	0x0, "R", 0x0, "V", 0x0, "E", 0x0, "_", 0x0, "C", 0x0, "H"
	DCB	0x0, "A", 0x0, "N", 0x0, "N", 0x0, "E", 0x0, "L", 0x0, 0xd
	DCB	0x0, 0xa, 0x0, 0x0, 0x0			; `string'

  00000			 AREA	 |.rdata|, DATA, READONLY
|??_C@_1IG@JBGLNBAG@?$AAE?$AAR?$AAR?$AAO?$AAR?$AA?3?$AA?5?$AAD?$AAM?$AAA?$AA_?$AAI?$AAO?$AAC?$AAo?$AAn?$AAt?$AAr?$AAo?$AAl?$AA?3?$AA?5?$AAI?$AAO?$AAC?$AAT?$AAL?$AA_?$AAD?$AAM?$AAA?$AA_@| DCB "E"
	DCB	0x0, "R", 0x0, "R", 0x0, "O", 0x0, "R", 0x0, ":", 0x0, " "
	DCB	0x0, "D", 0x0, "M", 0x0, "A", 0x0, "_", 0x0, "I", 0x0, "O"
	DCB	0x0, "C", 0x0, "o", 0x0, "n", 0x0, "t", 0x0, "r", 0x0, "o"
	DCB	0x0, "l", 0x0, ":", 0x0, " ", 0x0, "I", 0x0, "O", 0x0, "C"
	DCB	0x0, "T", 0x0, "L", 0x0, "_", 0x0, "D", 0x0, "M", 0x0, "A"
	DCB	0x0, "_", 0x0, "I", 0x0, "N", 0x0, "T", 0x0, "E", 0x0, "R"
	DCB	0x0, "R", 0x0, "U", 0x0, "P", 0x0, "T", 0x0, "D", 0x0, "O"
	DCB	0x0, "N", 0x0, "E", 0x0, " ", 0x0, "i", 0x0, "n", 0x0, "v"
	DCB	0x0, "a", 0x0, "l", 0x0, "i", 0x0, "d", 0x0, " ", 0x0, "p"
	DCB	0x0, "a", 0x0, "r", 0x0, "a", 0x0, "m", 0x0, "e", 0x0, "t"
	DCB	0x0, "e", 0x0, "r", 0x0, "s", 0x0, 0xd, 0x0, 0xa, 0x0, 0x0
	DCB	0x0					; `string'

  00000			 AREA	 |.rdata|, DATA, READONLY
|??_C@_1DO@DHCECFCP@?$AAD?$AAM?$AAA?$AA?3?$AA?5?$AAI?$AAO?$AAC?$AAT?$AAL?$AA_?$AAD?$AAM?$AAA?$AA_?$AAI?$AAN?$AAT?$AAE?$AAR?$AAR?$AAU?$AAP?$AAT?$AAD?$AAO?$AAN?$AAE?$AA?$AN?$AA?6?$AA?$AA@| DCB "D"
	DCB	0x0, "M", 0x0, "A", 0x0, ":", 0x0, " ", 0x0, "I", 0x0, "O"
	DCB	0x0, "C", 0x0, "T", 0x0, "L", 0x0, "_", 0x0, "D", 0x0, "M"
	DCB	0x0, "A", 0x0, "_", 0x0, "I", 0x0, "N", 0x0, "T", 0x0, "E"
	DCB	0x0, "R", 0x0, "R", 0x0, "U", 0x0, "P", 0x0, "T", 0x0, "D"
	DCB	0x0, "O", 0x0, "N", 0x0, "E", 0x0, 0xd, 0x0, 0xa, 0x0, 0x0
	DCB	0x0					; `string'

  00000			 AREA	 |.rdata|, DATA, READONLY
|??_C@_1GE@LLEHPHIC@?$AAE?$AAR?$AAR?$AAO?$AAR?$AA?3?$AA?5?$AAD?$AAM?$AAA?$AA_?$AAI?$AAO?$AAC?$AAo?$AAn?$AAt?$AAr?$AAo?$AAl?$AA?3?$AA?5?$AAI?$AAn?$AAc?$AAo?$AAr?$AAr?$AAe?$AAc?$AAt?$AA?5@| DCB "E"
	DCB	0x0, "R", 0x0, "R", 0x0, "O", 0x0, "R", 0x0, ":", 0x0, " "
	DCB	0x0, "D", 0x0, "M", 0x0, "A", 0x0, "_", 0x0, "I", 0x0, "O"
	DCB	0x0, "C", 0x0, "o", 0x0, "n", 0x0, "t", 0x0, "r", 0x0, "o"
	DCB	0x0, "l", 0x0, ":", 0x0, " ", 0x0, "I", 0x0, "n", 0x0, "c"
	DCB	0x0, "o", 0x0, "r", 0x0, "r", 0x0, "e", 0x0, "c", 0x0, "t"
	DCB	0x0, " ", 0x0, "c", 0x0, "o", 0x0, "n", 0x0, "t", 0x0, "e"
	DCB	0x0, "x", 0x0, "t", 0x0, " ", 0x0, "p", 0x0, "a", 0x0, "r"
	DCB	0x0, "a", 0x0, "m", 0x0, "e", 0x0, "r", 0x0, 0xd, 0x0, 0xa
	DCB	0x0, 0x0, 0x0				; `string'

  00000			 AREA	 |.rdata|, DATA, READONLY
|??_C@_1IC@JDOCADMF@?$AA?$CL?$AAD?$AAM?$AAA?$AA_?$AAI?$AAO?$AAC?$AAo?$AAn?$AAt?$AAr?$AAo?$AAl?$AA?$CI?$AA0?$AAx?$AA?$CF?$AA0?$AA8?$AAx?$AA?0?$AA?5?$AA0?$AAx?$AA?$CF?$AA0?$AA8?$AAx?$AA?0?$AA?5?$AA0@| DCB "+"
	DCB	0x0, "D", 0x0, "M", 0x0, "A", 0x0, "_", 0x0, "I", 0x0, "O"
	DCB	0x0, "C", 0x0, "o", 0x0, "n", 0x0, "t", 0x0, "r", 0x0, "o"
	DCB	0x0, "l", 0x0, "(", 0x0, "0", 0x0, "x", 0x0, "%", 0x0, "0"
	DCB	0x0, "8", 0x0, "x", 0x0, ",", 0x0, " ", 0x0, "0", 0x0, "x"
	DCB	0x0, "%", 0x0, "0", 0x0, "8", 0x0, "x", 0x0, ",", 0x0, " "
	DCB	0x0, "0", 0x0, "x", 0x0, "%", 0x0, "0", 0x0, "8", 0x0, "x"
	DCB	0x0, ",", 0x0, " ", 0x0, "%", 0x0, "d", 0x0, ",", 0x0, " "
	DCB	0x0, "0", 0x0, "x", 0x0, "%", 0x0, "0", 0x0, "8", 0x0, "x"
	DCB	0x0, ",", 0x0, " ", 0x0, "%", 0x0, "d", 0x0, ",", 0x0, " "
	DCB	0x0, "0", 0x0, "x", 0x0, "%", 0x0, "0", 0x0, "8", 0x0, "x"
	DCB	0x0, ")", 0x0, 0xd, 0x0, 0xa, 0x0, 0x0, 0x0 ; `string'
; Function compile flags: /Odtp

  00ad8			 AREA	 |.text|, CODE, ARM

  00ad8		 |?DMA_IOControl@@YAHKKPAEK0KPAK@Z| PROC ; DMA_IOControl

; 431  : {

  00ad8		 |$LN126@DMA_IOCont|
  00ad8	e1a0c00d	 mov         r12, sp
  00adc	e92d000f	 stmdb       sp!, {r0 - r3}
  00ae0	e92d5010	 stmdb       sp!, {r4, r12, lr}
  00ae4	e24dd0d0	 sub         sp, sp, #0xD0
  00ae8		 |$M36813|

; 432  :     BOOL rc = FALSE;

  00ae8	e3a03000	 mov         r3, #0
  00aec	e58d3014	 str         r3, [sp, #0x14]

; 433  :     Instance_t *pInstance = (Instance_t*)context;

  00af0	e59d30dc	 ldr         r3, [sp, #0xDC]
  00af4	e58d3018	 str         r3, [sp, #0x18]

; 434  :     Device_t *pDevice = pInstance->pDevice;

  00af8	e59d3018	 ldr         r3, [sp, #0x18]
  00afc	e2833004	 add         r3, r3, #4
  00b00	e5933000	 ldr         r3, [r3]
  00b04	e58d3010	 str         r3, [sp, #0x10]

; 435  : 
; 436  :     UNREFERENCED_PARAMETER(pOutSize);
; 437  : 
; 438  :     DEBUGMSG(ZONE_FUNCTION, (
; 439  :         L"+DMA_IOControl(0x%08x, 0x%08x, 0x%08x, %d, 0x%08x, %d, 0x%08x)\r\n",
; 440  :         context, code, pInBuffer, inSize, pOutBuffer, outSize, pOutSize
; 441  :         ));

  00b08	e59f3960	 ldr         r3, [pc, #0x960]
  00b0c	e5933440	 ldr         r3, [r3, #0x440]
  00b10	e3130004	 tst         r3, #4
  00b14	0a00000f	 beq         |$LN57@DMA_IOCont|
  00b18	e59d30f4	 ldr         r3, [sp, #0xF4]
  00b1c	e58d300c	 str         r3, [sp, #0xC]
  00b20	e59d30f0	 ldr         r3, [sp, #0xF0]
  00b24	e58d3008	 str         r3, [sp, #8]
  00b28	e59d30ec	 ldr         r3, [sp, #0xEC]
  00b2c	e58d3004	 str         r3, [sp, #4]
  00b30	e59d30e8	 ldr         r3, [sp, #0xE8]
  00b34	e58d3000	 str         r3, [sp]
  00b38	e59d30e4	 ldr         r3, [sp, #0xE4]
  00b3c	e59d20e0	 ldr         r2, [sp, #0xE0]
  00b40	e59d10dc	 ldr         r1, [sp, #0xDC]
  00b44	e59f0970	 ldr         r0, [pc, #0x970]
  00b48	eb000000	 bl          NKDbgPrintfW
  00b4c	e3a03001	 mov         r3, #1
  00b50	e58d306c	 str         r3, [sp, #0x6C]
  00b54	ea000001	 b           |$LN58@DMA_IOCont|
  00b58		 |$LN57@DMA_IOCont|
  00b58	e3a03000	 mov         r3, #0
  00b5c	e58d306c	 str         r3, [sp, #0x6C]
  00b60		 |$LN58@DMA_IOCont|

; 442  : 
; 443  :     // Check if we get correct context
; 444  :     if ((pInstance == NULL) || (pInstance->cookie != DMA_INSTANCE_COOKIE))

  00b60	e59d3018	 ldr         r3, [sp, #0x18]
  00b64	e3530000	 cmp         r3, #0
  00b68	0a000004	 beq         |$LN53@DMA_IOCont|
  00b6c	e59d3018	 ldr         r3, [sp, #0x18]
  00b70	e5932000	 ldr         r2, [r3]
  00b74	e59f393c	 ldr         r3, [pc, #0x93C]
  00b78	e1520003	 cmp         r2, r3
  00b7c	0a00000c	 beq         |$LN54@DMA_IOCont|
  00b80		 |$LN53@DMA_IOCont|

; 445  :         {
; 446  :         DEBUGMSG(ZONE_ERROR, (L"ERROR: DMA_IOControl: "
; 447  :             L"Incorrect context paramer\r\n"
; 448  :             ));

  00b80	e59f38e8	 ldr         r3, [pc, #0x8E8]
  00b84	e5933440	 ldr         r3, [r3, #0x440]
  00b88	e3130001	 tst         r3, #1
  00b8c	0a000004	 beq         |$LN59@DMA_IOCont|
  00b90	e59f091c	 ldr         r0, [pc, #0x91C]
  00b94	eb000000	 bl          NKDbgPrintfW
  00b98	e3a03001	 mov         r3, #1
  00b9c	e58d3070	 str         r3, [sp, #0x70]
  00ba0	ea000001	 b           |$LN60@DMA_IOCont|
  00ba4		 |$LN59@DMA_IOCont|
  00ba4	e3a03000	 mov         r3, #0
  00ba8	e58d3070	 str         r3, [sp, #0x70]
  00bac		 |$LN60@DMA_IOCont|

; 449  :         goto cleanUp;

  00bac	ea00021c	 b           |$LN52@DMA_IOCont|
  00bb0	ea00021b	 b           |$cleanUp$36356|
  00bb4		 |$LN54@DMA_IOCont|

; 450  :         }
; 451  : 
; 452  :     switch (code)

  00bb4	e59d30e0	 ldr         r3, [sp, #0xE0]
  00bb8	e58d3074	 str         r3, [sp, #0x74]
  00bbc	e59d2074	 ldr         r2, [sp, #0x74]
  00bc0	e59f38e8	 ldr         r3, [pc, #0x8E8]
  00bc4	e0423003	 sub         r3, r2, r3
  00bc8	e58d3074	 str         r3, [sp, #0x74]
  00bcc	e59d3074	 ldr         r3, [sp, #0x74]
  00bd0	e353001c	 cmp         r3, #0x1C
  00bd4	8a000212	 bhi         |$LN50@DMA_IOCont|
  00bd8	e59d2074	 ldr         r2, [sp, #0x74]
  00bdc	e1a03102	 mov         r3, r2, lsl #2
  00be0	e083300f	 add         r3, r3, pc
  00be4	e5933004	 ldr         r3, [r3, #4]
  00be8	e08ff003	 add         pc, pc, r3
  00bec		 |$LN94@DMA_IOCont|
  00bec		 |$LN93@DMA_IOCont|
  00bec		 |$LN95@DMA_IOCont|
  00bec	00000164	 DCD         0x164
  00bf0		 |$LN96@DMA_IOCont|
  00bf0	00000834	 DCD         0x834
  00bf4		 |$LN97@DMA_IOCont|
  00bf4	00000834	 DCD         0x834
  00bf8		 |$LN98@DMA_IOCont|
  00bf8	00000834	 DCD         0x834
  00bfc		 |$LN99@DMA_IOCont|
  00bfc	000002f4	 DCD         0x2f4
  00c00		 |$LN100@DMA_IOCont|
  00c00	00000834	 DCD         0x834
  00c04		 |$LN101@DMA_IOCont|
  00c04	00000834	 DCD         0x834
  00c08		 |$LN102@DMA_IOCont|
  00c08	00000834	 DCD         0x834
  00c0c		 |$LN103@DMA_IOCont|
  00c0c	000003f8	 DCD         0x3f8
  00c10		 |$LN104@DMA_IOCont|
  00c10	00000834	 DCD         0x834
  00c14		 |$LN105@DMA_IOCont|
  00c14	00000834	 DCD         0x834
  00c18		 |$LN106@DMA_IOCont|
  00c18	00000834	 DCD         0x834
  00c1c		 |$LN107@DMA_IOCont|
  00c1c	00000834	 DCD         0x834
  00c20		 |$LN108@DMA_IOCont|
  00c20	00000834	 DCD         0x834
  00c24		 |$LN109@DMA_IOCont|
  00c24	00000834	 DCD         0x834
  00c28		 |$LN110@DMA_IOCont|
  00c28	00000834	 DCD         0x834
  00c2c		 |$LN111@DMA_IOCont|
  00c2c	00000070	 DCD         0x70
  00c30		 |$LN112@DMA_IOCont|
  00c30	00000834	 DCD         0x834
  00c34		 |$LN113@DMA_IOCont|
  00c34	00000834	 DCD         0x834
  00c38		 |$LN114@DMA_IOCont|
  00c38	00000834	 DCD         0x834
  00c3c		 |$LN115@DMA_IOCont|
  00c3c	0000050c	 DCD         0x50c
  00c40		 |$LN116@DMA_IOCont|
  00c40	00000834	 DCD         0x834
  00c44		 |$LN117@DMA_IOCont|
  00c44	00000834	 DCD         0x834
  00c48		 |$LN118@DMA_IOCont|
  00c48	00000834	 DCD         0x834
  00c4c		 |$LN119@DMA_IOCont|
  00c4c	00000650	 DCD         0x650
  00c50		 |$LN120@DMA_IOCont|
  00c50	00000834	 DCD         0x834
  00c54		 |$LN121@DMA_IOCont|
  00c54	00000834	 DCD         0x834
  00c58		 |$LN122@DMA_IOCont|
  00c58	00000834	 DCD         0x834
  00c5c		 |$LN123@DMA_IOCont|
  00c5c	00000760	 DCD         0x760
  00c60		 |$LN49@DMA_IOCont|

; 453  :         { 
; 454  :         case IOCTL_DMA_INTERRUPTDONE:
; 455  :             {
; 456  :             DmaControllerBase *pController;
; 457  :             IOCTL_DMA_INTERRUPTDONE_IN *pContext;
; 458  :             DEBUGMSG(ZONE_INFO, (L"DMA: IOCTL_DMA_INTERRUPTDONE\r\n"));

  00c60	e59f3808	 ldr         r3, [pc, #0x808]
  00c64	e5933440	 ldr         r3, [r3, #0x440]
  00c68	e3130008	 tst         r3, #8
  00c6c	0a000004	 beq         |$LN61@DMA_IOCont|
  00c70	e59f0834	 ldr         r0, [pc, #0x834]
  00c74	eb000000	 bl          NKDbgPrintfW
  00c78	e3a03001	 mov         r3, #1
  00c7c	e58d3078	 str         r3, [sp, #0x78]
  00c80	ea000001	 b           |$LN62@DMA_IOCont|
  00c84		 |$LN61@DMA_IOCont|
  00c84	e3a03000	 mov         r3, #0
  00c88	e58d3078	 str         r3, [sp, #0x78]
  00c8c		 |$LN62@DMA_IOCont|

; 459  : 
; 460  :             if (pInBuffer == NULL || 
; 461  :                 inSize != sizeof(IOCTL_DMA_INTERRUPTDONE_IN))

  00c8c	e59d30e4	 ldr         r3, [sp, #0xE4]
  00c90	e3530000	 cmp         r3, #0
  00c94	0a000002	 beq         |$LN47@DMA_IOCont|
  00c98	e59d30e8	 ldr         r3, [sp, #0xE8]
  00c9c	e3530010	 cmp         r3, #0x10
  00ca0	0a00000d	 beq         |$LN48@DMA_IOCont|
  00ca4		 |$LN47@DMA_IOCont|

; 462  :                 {
; 463  :                 DEBUGMSG(ZONE_ERROR, (L"ERROR: DMA_IOControl: "
; 464  :                     L"IOCTL_DMA_INTERRUPTDONE invalid parameters\r\n"
; 465  :                     ));

  00ca4	e59f37c4	 ldr         r3, [pc, #0x7C4]
  00ca8	e5933440	 ldr         r3, [r3, #0x440]
  00cac	e3130001	 tst         r3, #1
  00cb0	0a000004	 beq         |$LN63@DMA_IOCont|
  00cb4	e59f07ec	 ldr         r0, [pc, #0x7EC]
  00cb8	eb000000	 bl          NKDbgPrintfW
  00cbc	e3a03001	 mov         r3, #1
  00cc0	e58d307c	 str         r3, [sp, #0x7C]
  00cc4	ea000001	 b           |$LN64@DMA_IOCont|
  00cc8		 |$LN63@DMA_IOCont|
  00cc8	e3a03000	 mov         r3, #0
  00ccc	e58d307c	 str         r3, [sp, #0x7C]
  00cd0		 |$LN64@DMA_IOCont|

; 466  :                 SetLastError(ERROR_INVALID_PARAMETER);

  00cd0	e3a00057	 mov         r0, #0x57
  00cd4	eb000000	 bl          SetLastError

; 467  :                 break;

  00cd8	ea0001d1	 b           |$LN50@DMA_IOCont|
  00cdc		 |$LN48@DMA_IOCont|

; 468  :                 }
; 469  : 
; 470  :             pContext = (IOCTL_DMA_INTERRUPTDONE_IN*)pInBuffer;

  00cdc	e59d30e4	 ldr         r3, [sp, #0xE4]
  00ce0	e58d301c	 str         r3, [sp, #0x1C]

; 471  :             switch (pContext->type)

  00ce4	e59d301c	 ldr         r3, [sp, #0x1C]
  00ce8	e2833004	 add         r3, r3, #4
  00cec	e5933000	 ldr         r3, [r3]
  00cf0	e3530000	 cmp         r3, #0
  00cf4	0a000000	 beq         |$LN44@DMA_IOCont|
  00cf8	ea000004	 b           |$LN43@DMA_IOCont|
  00cfc		 |$LN44@DMA_IOCont|

; 472  :                 {
; 473  :                 case DMA_TYPE_SYSTEM:
; 474  :                     pController = pDevice->pSystemController;

  00cfc	e59d3010	 ldr         r3, [sp, #0x10]
  00d00	e2833014	 add         r3, r3, #0x14
  00d04	e5933000	 ldr         r3, [r3]
  00d08	e58d3020	 str         r3, [sp, #0x20]

; 475  :                     break;

  00d0c	ea000003	 b           |$LN45@DMA_IOCont|
  00d10		 |$LN43@DMA_IOCont|

; 476  : 
; 477  :                 default:
; 478  :                     SetLastError(ERROR_INVALID_PARAMETER);

  00d10	e3a00057	 mov         r0, #0x57
  00d14	eb000000	 bl          SetLastError
  00d18	ea0001c1	 b           |$LN42@DMA_IOCont|

; 479  :                     goto cleanUp;               

  00d1c	ea0001c0	 b           |$cleanUp$36356|
  00d20		 |$LN45@DMA_IOCont|

; 480  :                 }
; 481  :             EnterCriticalSection(&pDevice->cs);

  00d20	e59d3010	 ldr         r3, [sp, #0x10]
  00d24	e2830018	 add         r0, r3, #0x18
  00d28	eb000000	 bl          EnterCriticalSection

; 482  :             rc = pController->InterruptDone(pContext);

  00d2c	e59d101c	 ldr         r1, [sp, #0x1C]
  00d30	e59d0020	 ldr         r0, [sp, #0x20]
  00d34	eb000000	 bl          |?InterruptDone@DmaControllerBase@@QAAHPBUDmaChannelContext_t@@@Z|
  00d38	e58d0080	 str         r0, [sp, #0x80]
  00d3c	e59d3080	 ldr         r3, [sp, #0x80]
  00d40	e58d3014	 str         r3, [sp, #0x14]

; 483  :             LeaveCriticalSection(&pDevice->cs);

  00d44	e59d3010	 ldr         r3, [sp, #0x10]
  00d48	e2830018	 add         r0, r3, #0x18
  00d4c	eb000000	 bl          LeaveCriticalSection

; 484  :             }
; 485  :             break;

  00d50	ea0001b3	 b           |$LN50@DMA_IOCont|
  00d54		 |$LN41@DMA_IOCont|

; 486  :             
; 487  :         case IOCTL_DMA_RESERVE_CHANNEL:
; 488  :             {
; 489  :             DmaControllerBase *pController;
; 490  :             IOCTL_DMA_RESERVE_IN *pDmaType;
; 491  :             IOCTL_DMA_RESERVE_OUT *pContext;
; 492  :             DEBUGMSG(ZONE_INFO, (L"DMA: IOCTL_DMA_RESERVE_CHANNEL\r\n"));

  00d54	e59f3714	 ldr         r3, [pc, #0x714]
  00d58	e5933440	 ldr         r3, [r3, #0x440]
  00d5c	e3130008	 tst         r3, #8
  00d60	0a000004	 beq         |$LN65@DMA_IOCont|
  00d64	e59f0738	 ldr         r0, [pc, #0x738]
  00d68	eb000000	 bl          NKDbgPrintfW
  00d6c	e3a03001	 mov         r3, #1
  00d70	e58d3084	 str         r3, [sp, #0x84]
  00d74	ea000001	 b           |$LN66@DMA_IOCont|
  00d78		 |$LN65@DMA_IOCont|
  00d78	e3a03000	 mov         r3, #0
  00d7c	e58d3084	 str         r3, [sp, #0x84]
  00d80		 |$LN66@DMA_IOCont|

; 493  :             
; 494  :             // check for correct parameters
; 495  :             if (pOutBuffer == NULL || outSize != sizeof(IOCTL_DMA_RESERVE_OUT) ||
; 496  :                 pInBuffer == NULL || inSize != sizeof(IOCTL_DMA_RESERVE_IN))

  00d80	e59d30ec	 ldr         r3, [sp, #0xEC]
  00d84	e3530000	 cmp         r3, #0
  00d88	0a000008	 beq         |$LN39@DMA_IOCont|
  00d8c	e59d30f0	 ldr         r3, [sp, #0xF0]
  00d90	e3530010	 cmp         r3, #0x10
  00d94	1a000005	 bne         |$LN39@DMA_IOCont|
  00d98	e59d30e4	 ldr         r3, [sp, #0xE4]
  00d9c	e3530000	 cmp         r3, #0
  00da0	0a000002	 beq         |$LN39@DMA_IOCont|
  00da4	e59d30e8	 ldr         r3, [sp, #0xE8]
  00da8	e3530004	 cmp         r3, #4
  00dac	0a00000d	 beq         |$LN40@DMA_IOCont|
  00db0		 |$LN39@DMA_IOCont|

; 497  :                 {
; 498  :                 DEBUGMSG(ZONE_ERROR, (L"ERROR: DMA_IOControl: "
; 499  :                     L"IOCTL_DMA_RESERVE_CHANNEL invalid parameters\r\n"
; 500  :                     ));

  00db0	e59f36b8	 ldr         r3, [pc, #0x6B8]
  00db4	e5933440	 ldr         r3, [r3, #0x440]
  00db8	e3130001	 tst         r3, #1
  00dbc	0a000004	 beq         |$LN67@DMA_IOCont|
  00dc0	e59f06d8	 ldr         r0, [pc, #0x6D8]
  00dc4	eb000000	 bl          NKDbgPrintfW
  00dc8	e3a03001	 mov         r3, #1
  00dcc	e58d3088	 str         r3, [sp, #0x88]
  00dd0	ea000001	 b           |$LN68@DMA_IOCont|
  00dd4		 |$LN67@DMA_IOCont|
  00dd4	e3a03000	 mov         r3, #0
  00dd8	e58d3088	 str         r3, [sp, #0x88]
  00ddc		 |$LN68@DMA_IOCont|

; 501  :                 SetLastError(ERROR_INVALID_PARAMETER);

  00ddc	e3a00057	 mov         r0, #0x57
  00de0	eb000000	 bl          SetLastError

; 502  :                 break;

  00de4	ea00018e	 b           |$LN50@DMA_IOCont|
  00de8		 |$LN40@DMA_IOCont|

; 503  :                 }
; 504  : 
; 505  :             // if successful allocate memory            
; 506  :             pDmaType = (IOCTL_DMA_RESERVE_IN*)pInBuffer;

  00de8	e59d30e4	 ldr         r3, [sp, #0xE4]
  00dec	e58d3024	 str         r3, [sp, #0x24]

; 507  :             pContext = (IOCTL_DMA_RESERVE_OUT*)pOutBuffer;

  00df0	e59d30ec	 ldr         r3, [sp, #0xEC]
  00df4	e58d3028	 str         r3, [sp, #0x28]

; 508  :             switch (*pDmaType)

  00df8	e59d3024	 ldr         r3, [sp, #0x24]
  00dfc	e5933000	 ldr         r3, [r3]
  00e00	e3530000	 cmp         r3, #0
  00e04	0a000000	 beq         |$LN36@DMA_IOCont|
  00e08	ea000004	 b           |$LN35@DMA_IOCont|
  00e0c		 |$LN36@DMA_IOCont|

; 509  :                 {
; 510  :                 case DMA_TYPE_SYSTEM:
; 511  :                     pController = pDevice->pSystemController;

  00e0c	e59d3010	 ldr         r3, [sp, #0x10]
  00e10	e2833014	 add         r3, r3, #0x14
  00e14	e5933000	 ldr         r3, [r3]
  00e18	e58d302c	 str         r3, [sp, #0x2C]

; 512  :                     break;

  00e1c	ea000003	 b           |$LN37@DMA_IOCont|
  00e20		 |$LN35@DMA_IOCont|

; 513  : 
; 514  :                 default:
; 515  :                     SetLastError(ERROR_INVALID_PARAMETER);

  00e20	e3a00057	 mov         r0, #0x57
  00e24	eb000000	 bl          SetLastError
  00e28	ea00017d	 b           |$LN34@DMA_IOCont|

; 516  :                     goto cleanUp;

  00e2c	ea00017c	 b           |$cleanUp$36356|
  00e30		 |$LN37@DMA_IOCont|

; 517  :                 }
; 518  : 
; 519  :             // reset context information
; 520  :             memset(pContext, 0, sizeof(IOCTL_DMA_RESERVE_OUT));

  00e30	e3a02010	 mov         r2, #0x10
  00e34	e3a01000	 mov         r1, #0
  00e38	e59d0028	 ldr         r0, [sp, #0x28]
  00e3c	eb000000	 bl          memset

; 521  : 
; 522  :             // copy context information
; 523  :             pContext->type = *pDmaType;

  00e40	e59d3028	 ldr         r3, [sp, #0x28]
  00e44	e2832004	 add         r2, r3, #4
  00e48	e59d3024	 ldr         r3, [sp, #0x24]
  00e4c	e5933000	 ldr         r3, [r3]
  00e50	e5823000	 str         r3, [r2]

; 524  :             EnterCriticalSection(&pDevice->cs);

  00e54	e59d3010	 ldr         r3, [sp, #0x10]
  00e58	e2830018	 add         r0, r3, #0x18
  00e5c	eb000000	 bl          EnterCriticalSection

; 525  :             if (pController->ReserveChannel(pContext) == FALSE)

  00e60	e59d1028	 ldr         r1, [sp, #0x28]
  00e64	e59d302c	 ldr         r3, [sp, #0x2C]
  00e68	e5933000	 ldr         r3, [r3]
  00e6c	e2833010	 add         r3, r3, #0x10
  00e70	e59d002c	 ldr         r0, [sp, #0x2C]
  00e74	e5933000	 ldr         r3, [r3]
  00e78	e1a0e00f	 mov         lr, pc
  00e7c	e12fff13	 bx          r3
  00e80	e58d008c	 str         r0, [sp, #0x8C]
  00e84	e59d308c	 ldr         r3, [sp, #0x8C]
  00e88	e3530000	 cmp         r3, #0
  00e8c	1a00000e	 bne         |$LN33@DMA_IOCont|

; 526  :                 {
; 527  :                 DEBUGMSG(ZONE_ERROR, (L"ERROR: DMA_IOControl: "
; 528  :                     L"IOCTL_DMA_RESERVE_CHANNEL: failed\r\n"
; 529  :                     ));

  00e90	e59f35d8	 ldr         r3, [pc, #0x5D8]
  00e94	e5933440	 ldr         r3, [r3, #0x440]
  00e98	e3130001	 tst         r3, #1
  00e9c	0a000004	 beq         |$LN69@DMA_IOCont|
  00ea0	e59f05f4	 ldr         r0, [pc, #0x5F4]
  00ea4	eb000000	 bl          NKDbgPrintfW
  00ea8	e3a03001	 mov         r3, #1
  00eac	e58d3090	 str         r3, [sp, #0x90]
  00eb0	ea000001	 b           |$LN70@DMA_IOCont|
  00eb4		 |$LN69@DMA_IOCont|
  00eb4	e3a03000	 mov         r3, #0
  00eb8	e58d3090	 str         r3, [sp, #0x90]
  00ebc		 |$LN70@DMA_IOCont|

; 530  :                 LeaveCriticalSection(&pDevice->cs);

  00ebc	e59d3010	 ldr         r3, [sp, #0x10]
  00ec0	e2830018	 add         r0, r3, #0x18
  00ec4	eb000000	 bl          LeaveCriticalSection

; 531  :                 break;

  00ec8	ea000155	 b           |$LN50@DMA_IOCont|
  00ecc		 |$LN33@DMA_IOCont|

; 532  :                 }
; 533  :             LeaveCriticalSection(&pDevice->cs);

  00ecc	e59d3010	 ldr         r3, [sp, #0x10]
  00ed0	e2830018	 add         r0, r3, #0x18
  00ed4	eb000000	 bl          LeaveCriticalSection

; 534  :             rc = TRUE;

  00ed8	e3a03001	 mov         r3, #1
  00edc	e58d3014	 str         r3, [sp, #0x14]

; 535  :             }            
; 536  :             break;

  00ee0	ea00014f	 b           |$LN50@DMA_IOCont|
  00ee4		 |$LN32@DMA_IOCont|

; 537  : 
; 538  :         case IOCTL_DMA_RELEASE_CHANNEL:
; 539  :             {
; 540  :             DmaControllerBase *pController;
; 541  :             IOCTL_DMA_RELEASE_IN *pContext;
; 542  :             DEBUGMSG(ZONE_INFO, (L"DMA: IOCTL_DMA_RELEASE_CHANNEL\r\n"));

  00ee4	e59f3584	 ldr         r3, [pc, #0x584]
  00ee8	e5933440	 ldr         r3, [r3, #0x440]
  00eec	e3130008	 tst         r3, #8
  00ef0	0a000004	 beq         |$LN71@DMA_IOCont|
  00ef4	e59f059c	 ldr         r0, [pc, #0x59C]
  00ef8	eb000000	 bl          NKDbgPrintfW
  00efc	e3a03001	 mov         r3, #1
  00f00	e58d3094	 str         r3, [sp, #0x94]
  00f04	ea000001	 b           |$LN72@DMA_IOCont|
  00f08		 |$LN71@DMA_IOCont|
  00f08	e3a03000	 mov         r3, #0
  00f0c	e58d3094	 str         r3, [sp, #0x94]
  00f10		 |$LN72@DMA_IOCont|

; 543  : 
; 544  :             if (pInBuffer == NULL || inSize != sizeof(IOCTL_DMA_RELEASE_IN))

  00f10	e59d30e4	 ldr         r3, [sp, #0xE4]
  00f14	e3530000	 cmp         r3, #0
  00f18	0a000002	 beq         |$LN30@DMA_IOCont|
  00f1c	e59d30e8	 ldr         r3, [sp, #0xE8]
  00f20	e3530010	 cmp         r3, #0x10
  00f24	0a00000d	 beq         |$LN31@DMA_IOCont|
  00f28		 |$LN30@DMA_IOCont|

; 545  :                 {
; 546  :                 DEBUGMSG(ZONE_ERROR, (L"ERROR: DMA_IOControl: "
; 547  :                     L"IOCTL_DMA_RELEASE_CHANNEL invalid parameters\r\n"
; 548  :                     ));

  00f28	e59f3540	 ldr         r3, [pc, #0x540]
  00f2c	e5933440	 ldr         r3, [r3, #0x440]
  00f30	e3130001	 tst         r3, #1
  00f34	0a000004	 beq         |$LN73@DMA_IOCont|
  00f38	e59f0554	 ldr         r0, [pc, #0x554]
  00f3c	eb000000	 bl          NKDbgPrintfW
  00f40	e3a03001	 mov         r3, #1
  00f44	e58d3098	 str         r3, [sp, #0x98]
  00f48	ea000001	 b           |$LN74@DMA_IOCont|
  00f4c		 |$LN73@DMA_IOCont|
  00f4c	e3a03000	 mov         r3, #0
  00f50	e58d3098	 str         r3, [sp, #0x98]
  00f54		 |$LN74@DMA_IOCont|

; 549  :                 SetLastError(ERROR_INVALID_PARAMETER);

  00f54	e3a00057	 mov         r0, #0x57
  00f58	eb000000	 bl          SetLastError

; 550  :                 break;

  00f5c	ea000130	 b           |$LN50@DMA_IOCont|
  00f60		 |$LN31@DMA_IOCont|

; 551  :                 }
; 552  : 
; 553  :             pContext = (IOCTL_DMA_RELEASE_IN*)pInBuffer;

  00f60	e59d30e4	 ldr         r3, [sp, #0xE4]
  00f64	e58d3030	 str         r3, [sp, #0x30]

; 554  :             switch (pContext->type)

  00f68	e59d3030	 ldr         r3, [sp, #0x30]
  00f6c	e2833004	 add         r3, r3, #4
  00f70	e5933000	 ldr         r3, [r3]
  00f74	e3530000	 cmp         r3, #0
  00f78	0a000000	 beq         |$LN27@DMA_IOCont|
  00f7c	ea000004	 b           |$LN26@DMA_IOCont|
  00f80		 |$LN27@DMA_IOCont|

; 555  :                 {
; 556  :                 case DMA_TYPE_SYSTEM:
; 557  :                     pController = pDevice->pSystemController;

  00f80	e59d3010	 ldr         r3, [sp, #0x10]
  00f84	e2833014	 add         r3, r3, #0x14
  00f88	e5933000	 ldr         r3, [r3]
  00f8c	e58d3034	 str         r3, [sp, #0x34]

; 558  :                     break;

  00f90	ea000003	 b           |$LN28@DMA_IOCont|
  00f94		 |$LN26@DMA_IOCont|

; 559  : 
; 560  :                 default:
; 561  :                     SetLastError(ERROR_INVALID_PARAMETER);

  00f94	e3a00057	 mov         r0, #0x57
  00f98	eb000000	 bl          SetLastError
  00f9c	ea000120	 b           |$LN25@DMA_IOCont|

; 562  :                     goto cleanUp;                

  00fa0	ea00011f	 b           |$cleanUp$36356|
  00fa4		 |$LN28@DMA_IOCont|

; 563  :                 }
; 564  : 
; 565  :             EnterCriticalSection(&pDevice->cs);

  00fa4	e59d3010	 ldr         r3, [sp, #0x10]
  00fa8	e2830018	 add         r0, r3, #0x18
  00fac	eb000000	 bl          EnterCriticalSection

; 566  :             pController->ReleaseChannel(pContext);

  00fb0	e59d1030	 ldr         r1, [sp, #0x30]
  00fb4	e59d3034	 ldr         r3, [sp, #0x34]
  00fb8	e5933000	 ldr         r3, [r3]
  00fbc	e2833014	 add         r3, r3, #0x14
  00fc0	e59d0034	 ldr         r0, [sp, #0x34]
  00fc4	e5933000	 ldr         r3, [r3]
  00fc8	e1a0e00f	 mov         lr, pc
  00fcc	e12fff13	 bx          r3

; 567  :             LeaveCriticalSection(&pDevice->cs);

  00fd0	e59d3010	 ldr         r3, [sp, #0x10]
  00fd4	e2830018	 add         r0, r3, #0x18
  00fd8	eb000000	 bl          LeaveCriticalSection

; 568  :             rc = TRUE;

  00fdc	e3a03001	 mov         r3, #1
  00fe0	e58d3014	 str         r3, [sp, #0x14]

; 569  :             }
; 570  :             break;

  00fe4	ea00010e	 b           |$LN50@DMA_IOCont|
  00fe8		 |$LN24@DMA_IOCont|

; 571  : 
; 572  :         case IOCTL_DMA_REGISTER_EVENTHANDLE:
; 573  :             {
; 574  :             DmaControllerBase *pController;
; 575  :             IOCTL_DMA_REGISTER_EVENTHANDLE_IN *pRegisterEvent;
; 576  :             DEBUGMSG(ZONE_INFO, (L"DMA: IOCTL_DMA_REGISTER_EVENTHANDLE\r\n"));

  00fe8	e59f3480	 ldr         r3, [pc, #0x480]
  00fec	e5933440	 ldr         r3, [r3, #0x440]
  00ff0	e3130008	 tst         r3, #8
  00ff4	0a000004	 beq         |$LN75@DMA_IOCont|
  00ff8	e59f0490	 ldr         r0, [pc, #0x490]
  00ffc	eb000000	 bl          NKDbgPrintfW
  01000	e3a03001	 mov         r3, #1
  01004	e58d309c	 str         r3, [sp, #0x9C]
  01008	ea000001	 b           |$LN76@DMA_IOCont|
  0100c		 |$LN75@DMA_IOCont|
  0100c	e3a03000	 mov         r3, #0
  01010	e58d309c	 str         r3, [sp, #0x9C]
  01014		 |$LN76@DMA_IOCont|

; 577  : 
; 578  :             if (pInBuffer == NULL || inSize != sizeof(IOCTL_DMA_REGISTER_EVENTHANDLE_IN))

  01014	e59d30e4	 ldr         r3, [sp, #0xE4]
  01018	e3530000	 cmp         r3, #0
  0101c	0a000002	 beq         |$LN22@DMA_IOCont|
  01020	e59d30e8	 ldr         r3, [sp, #0xE8]
  01024	e353000c	 cmp         r3, #0xC
  01028	0a00000d	 beq         |$LN23@DMA_IOCont|
  0102c		 |$LN22@DMA_IOCont|

; 579  :                 {
; 580  :                 DEBUGMSG(ZONE_ERROR, (L"ERROR: DMA_IOControl: "
; 581  :                     L"IOCTL_DMA_REGISTER_EVENTHANDLE invalid parameters\r\n"
; 582  :                     ));

  0102c	e59f343c	 ldr         r3, [pc, #0x43C]
  01030	e5933440	 ldr         r3, [r3, #0x440]
  01034	e3130001	 tst         r3, #1
  01038	0a000004	 beq         |$LN77@DMA_IOCont|
  0103c	e59f0448	 ldr         r0, [pc, #0x448]
  01040	eb000000	 bl          NKDbgPrintfW
  01044	e3a03001	 mov         r3, #1
  01048	e58d30a0	 str         r3, [sp, #0xA0]
  0104c	ea000001	 b           |$LN78@DMA_IOCont|
  01050		 |$LN77@DMA_IOCont|
  01050	e3a03000	 mov         r3, #0
  01054	e58d30a0	 str         r3, [sp, #0xA0]
  01058		 |$LN78@DMA_IOCont|

; 583  :                 SetLastError(ERROR_INVALID_PARAMETER);

  01058	e3a00057	 mov         r0, #0x57
  0105c	eb000000	 bl          SetLastError

; 584  :                 break;

  01060	ea0000ef	 b           |$LN50@DMA_IOCont|
  01064		 |$LN23@DMA_IOCont|

; 585  :                 }
; 586  : 
; 587  :             pRegisterEvent = (IOCTL_DMA_REGISTER_EVENTHANDLE_IN*)pInBuffer;

  01064	e59d30e4	 ldr         r3, [sp, #0xE4]
  01068	e58d3038	 str         r3, [sp, #0x38]

; 588  : 
; 589  : #if (_WINCEOSVER<600)
; 590  :             pRegisterEvent->pContext = (DmaChannelContext_t*)MapCallerPtr(
; 591  :                     pRegisterEvent->pContext, sizeof(DmaChannelContext_t)
; 592  :                     );
; 593  : #endif
; 594  :             
; 595  :             switch (pRegisterEvent->pContext->type)

  0106c	e59d3038	 ldr         r3, [sp, #0x38]
  01070	e5933000	 ldr         r3, [r3]
  01074	e2833004	 add         r3, r3, #4
  01078	e5933000	 ldr         r3, [r3]
  0107c	e3530000	 cmp         r3, #0
  01080	0a000000	 beq         |$LN19@DMA_IOCont|
  01084	ea000004	 b           |$LN18@DMA_IOCont|
  01088		 |$LN19@DMA_IOCont|

; 596  :                 {
; 597  :                 case DMA_TYPE_SYSTEM:
; 598  :                     pController = pDevice->pSystemController;

  01088	e59d3010	 ldr         r3, [sp, #0x10]
  0108c	e2833014	 add         r3, r3, #0x14
  01090	e5933000	 ldr         r3, [r3]
  01094	e58d303c	 str         r3, [sp, #0x3C]

; 599  :                     break;

  01098	ea000003	 b           |$LN20@DMA_IOCont|
  0109c		 |$LN18@DMA_IOCont|

; 600  : 
; 601  :                 default:
; 602  :                     SetLastError(ERROR_INVALID_PARAMETER);

  0109c	e3a00057	 mov         r0, #0x57
  010a0	eb000000	 bl          SetLastError
  010a4	ea0000de	 b           |$LN17@DMA_IOCont|

; 603  :                     goto cleanUp;                

  010a8	ea0000dd	 b           |$cleanUp$36356|
  010ac		 |$LN20@DMA_IOCont|

; 604  :                 }
; 605  : 
; 606  :             EnterCriticalSection(&pDevice->cs);

  010ac	e59d3010	 ldr         r3, [sp, #0x10]
  010b0	e2830018	 add         r0, r3, #0x18
  010b4	eb000000	 bl          EnterCriticalSection

; 607  :             rc = pController->SetSecondaryInterruptHandler(
; 608  :                     pRegisterEvent->pContext,
; 609  :                     pRegisterEvent->hEvent,
; 610  :                     pRegisterEvent->processId
; 611  :                     );

  010b8	e59d3038	 ldr         r3, [sp, #0x38]
  010bc	e2833008	 add         r3, r3, #8
  010c0	e5933000	 ldr         r3, [r3]
  010c4	e59d2038	 ldr         r2, [sp, #0x38]
  010c8	e2822004	 add         r2, r2, #4
  010cc	e5922000	 ldr         r2, [r2]
  010d0	e59d1038	 ldr         r1, [sp, #0x38]
  010d4	e5911000	 ldr         r1, [r1]
  010d8	e59d003c	 ldr         r0, [sp, #0x3C]
  010dc	eb000000	 bl          |?SetSecondaryInterruptHandler@DmaControllerBase@@QAAHPBUDmaChannelContext_t@@PAXK@Z|
  010e0	e58d00a4	 str         r0, [sp, #0xA4]
  010e4	e59d30a4	 ldr         r3, [sp, #0xA4]
  010e8	e58d3014	 str         r3, [sp, #0x14]

; 612  :             LeaveCriticalSection(&pDevice->cs);

  010ec	e59d3010	 ldr         r3, [sp, #0x10]
  010f0	e2830018	 add         r0, r3, #0x18
  010f4	eb000000	 bl          LeaveCriticalSection

; 613  :             }
; 614  :             break; 

  010f8	ea0000c9	 b           |$LN50@DMA_IOCont|
  010fc		 |$LN16@DMA_IOCont|

; 615  : 
; 616  :         case IOCTL_DMA_DISABLESTANDBY:
; 617  :             {
; 618  :             DmaControllerBase *pController;
; 619  :             IOCTL_DMA_DISABLESTANDBY_IN *pIoctlInput;
; 620  :             DEBUGMSG(ZONE_INFO, (L"DMA: IOCTL_DMA_DISABLESTANDBY\r\n"));

  010fc	e59f336c	 ldr         r3, [pc, #0x36C]
  01100	e5933440	 ldr         r3, [r3, #0x440]
  01104	e3130008	 tst         r3, #8
  01108	0a000004	 beq         |$LN79@DMA_IOCont|
  0110c	e59f0374	 ldr         r0, [pc, #0x374]
  01110	eb000000	 bl          NKDbgPrintfW
  01114	e3a03001	 mov         r3, #1
  01118	e58d30a8	 str         r3, [sp, #0xA8]
  0111c	ea000001	 b           |$LN80@DMA_IOCont|
  01120		 |$LN79@DMA_IOCont|
  01120	e3a03000	 mov         r3, #0
  01124	e58d30a8	 str         r3, [sp, #0xA8]
  01128		 |$LN80@DMA_IOCont|

; 621  : 
; 622  :             if (pInBuffer == NULL || inSize != sizeof(IOCTL_DMA_DISABLESTANDBY_IN))

  01128	e59d30e4	 ldr         r3, [sp, #0xE4]
  0112c	e3530000	 cmp         r3, #0
  01130	0a000002	 beq         |$LN14@DMA_IOCont|
  01134	e59d30e8	 ldr         r3, [sp, #0xE8]
  01138	e353000c	 cmp         r3, #0xC
  0113c	0a00000d	 beq         |$LN15@DMA_IOCont|
  01140		 |$LN14@DMA_IOCont|

; 623  :                 {
; 624  :                 DEBUGMSG(ZONE_ERROR, (L"ERROR: DMA_IOControl: "
; 625  :                     L"IOCTL_DMA_DISABLESTANDBY invalid parameters\r\n"
; 626  :                     ));

  01140	e59f3328	 ldr         r3, [pc, #0x328]
  01144	e5933440	 ldr         r3, [r3, #0x440]
  01148	e3130001	 tst         r3, #1
  0114c	0a000004	 beq         |$LN81@DMA_IOCont|
  01150	e59f032c	 ldr         r0, [pc, #0x32C]
  01154	eb000000	 bl          NKDbgPrintfW
  01158	e3a03001	 mov         r3, #1
  0115c	e58d30ac	 str         r3, [sp, #0xAC]
  01160	ea000001	 b           |$LN82@DMA_IOCont|
  01164		 |$LN81@DMA_IOCont|
  01164	e3a03000	 mov         r3, #0
  01168	e58d30ac	 str         r3, [sp, #0xAC]
  0116c		 |$LN82@DMA_IOCont|

; 627  :                 SetLastError(ERROR_INVALID_PARAMETER);

  0116c	e3a00057	 mov         r0, #0x57
  01170	eb000000	 bl          SetLastError

; 628  :                 break;

  01174	ea0000aa	 b           |$LN50@DMA_IOCont|
  01178		 |$LN15@DMA_IOCont|

; 629  :                 }
; 630  : 
; 631  :             // Cast pInBuffer
; 632  :             pIoctlInput = (IOCTL_DMA_DISABLESTANDBY_IN*)pInBuffer;

  01178	e59d30e4	 ldr         r3, [sp, #0xE4]
  0117c	e58d3040	 str         r3, [sp, #0x40]

; 633  : #if (_WINCEOSVER<600)
; 634  :             pIoctlInput->pContext = (DmaChannelContext_t*)MapCallerPtr(
; 635  :                     pIoctlInput->pContext, sizeof(DmaChannelContext_t)
; 636  :                     );
; 637  : #endif
; 638  : 
; 639  :             if (!pIoctlInput->bDelicatedChannel)

  01180	e59d3040	 ldr         r3, [sp, #0x40]
  01184	e2833008	 add         r3, r3, #8
  01188	e5933000	 ldr         r3, [r3]
  0118c	e3530000	 cmp         r3, #0
  01190	1a000010	 bne         |$LN13@DMA_IOCont|

; 640  :             {
; 641  :             switch (pIoctlInput->pContext->type)

  01194	e59d3040	 ldr         r3, [sp, #0x40]
  01198	e5933000	 ldr         r3, [r3]
  0119c	e2833004	 add         r3, r3, #4
  011a0	e5933000	 ldr         r3, [r3]
  011a4	e3530000	 cmp         r3, #0
  011a8	0a000000	 beq         |$LN10@DMA_IOCont|
  011ac	ea000004	 b           |$LN9@DMA_IOCont|
  011b0		 |$LN10@DMA_IOCont|

; 642  :                 {
; 643  :                 case DMA_TYPE_SYSTEM:
; 644  :                     pController = pDevice->pSystemController;

  011b0	e59d3010	 ldr         r3, [sp, #0x10]
  011b4	e2833014	 add         r3, r3, #0x14
  011b8	e5933000	 ldr         r3, [r3]
  011bc	e58d3044	 str         r3, [sp, #0x44]

; 645  :                     break;

  011c0	ea000003	 b           |$LN11@DMA_IOCont|
  011c4		 |$LN9@DMA_IOCont|

; 646  : 
; 647  :                 default:
; 648  :                     SetLastError(ERROR_INVALID_PARAMETER);

  011c4	e3a00057	 mov         r0, #0x57
  011c8	eb000000	 bl          SetLastError
  011cc	ea000094	 b           |$LN8@DMA_IOCont|

; 649  :                     goto cleanUp;                

  011d0	ea000093	 b           |$cleanUp$36356|
  011d4		 |$LN11@DMA_IOCont|

; 650  :                     }
; 651  :             }
; 652  :             else

  011d4	ea000003	 b           |$LN7@DMA_IOCont|
  011d8		 |$LN13@DMA_IOCont|

; 653  :             {
; 654  :                 pController = pDevice->pSystemController;

  011d8	e59d3010	 ldr         r3, [sp, #0x10]
  011dc	e2833014	 add         r3, r3, #0x14
  011e0	e5933000	 ldr         r3, [r3]
  011e4	e58d3044	 str         r3, [sp, #0x44]
  011e8		 |$LN7@DMA_IOCont|

; 655  :                 }
; 656  : 
; 657  :             EnterCriticalSection(&pDevice->cs);

  011e8	e59d3010	 ldr         r3, [sp, #0x10]
  011ec	e2830018	 add         r0, r3, #0x18
  011f0	eb000000	 bl          EnterCriticalSection

; 658  :             rc = pController->DisableStandby(
; 659  :                     pIoctlInput->pContext,
; 660  :                     pIoctlInput->bNoStandby
; 661  :                     );

  011f4	e59d3040	 ldr         r3, [sp, #0x40]
  011f8	e2833004	 add         r3, r3, #4
  011fc	e5932000	 ldr         r2, [r3]
  01200	e59d3040	 ldr         r3, [sp, #0x40]
  01204	e5931000	 ldr         r1, [r3]
  01208	e59d3044	 ldr         r3, [sp, #0x44]
  0120c	e5933000	 ldr         r3, [r3]
  01210	e2833020	 add         r3, r3, #0x20
  01214	e59d0044	 ldr         r0, [sp, #0x44]
  01218	e5933000	 ldr         r3, [r3]
  0121c	e1a0e00f	 mov         lr, pc
  01220	e12fff13	 bx          r3
  01224	e58d00b0	 str         r0, [sp, #0xB0]
  01228	e59d30b0	 ldr         r3, [sp, #0xB0]
  0122c	e58d3014	 str         r3, [sp, #0x14]

; 662  :             LeaveCriticalSection(&pDevice->cs);

  01230	e59d3010	 ldr         r3, [sp, #0x10]
  01234	e2830018	 add         r0, r3, #0x18
  01238	eb000000	 bl          LeaveCriticalSection

; 663  :             }
; 664  :             break;

  0123c	ea000078	 b           |$LN50@DMA_IOCont|
  01240		 |$LN6@DMA_IOCont|

; 665  :             
; 666  :         case IOCTL_DMA_REQUEST_DEDICATED_INTERRUPT:
; 667  :             {
; 668  :             SystemDmaController *pController;
; 669  :             IOCTL_DMA_REQUEST_DEDICATED_INTERRUPT_OUT *pIoctlOutput;
; 670  :             DEBUGMSG(ZONE_INFO, (L"DMA: IOCTL_DMA_REQUEST_DEDICATED_INTERRUPT\r\n"));

  01240	e59f3228	 ldr         r3, [pc, #0x228]
  01244	e5933440	 ldr         r3, [r3, #0x440]
  01248	e3130008	 tst         r3, #8
  0124c	0a000004	 beq         |$LN83@DMA_IOCont|
  01250	e59f0228	 ldr         r0, [pc, #0x228]
  01254	eb000000	 bl          NKDbgPrintfW
  01258	e3a03001	 mov         r3, #1
  0125c	e58d30b4	 str         r3, [sp, #0xB4]
  01260	ea000001	 b           |$LN84@DMA_IOCont|
  01264		 |$LN83@DMA_IOCont|
  01264	e3a03000	 mov         r3, #0
  01268	e58d30b4	 str         r3, [sp, #0xB4]
  0126c		 |$LN84@DMA_IOCont|

; 671  : 
; 672  :             if (pOutBuffer == NULL || outSize != sizeof(IOCTL_DMA_REQUEST_DEDICATED_INTERRUPT_OUT) ||
; 673  :                 pInBuffer == NULL || inSize != sizeof(IOCTL_DMA_REQUEST_DEDICATED_INTERRUPT_IN))

  0126c	e59d30ec	 ldr         r3, [sp, #0xEC]
  01270	e3530000	 cmp         r3, #0
  01274	0a000008	 beq         |$LN4@DMA_IOCont|
  01278	e59d30f0	 ldr         r3, [sp, #0xF0]
  0127c	e353000c	 cmp         r3, #0xC
  01280	1a000005	 bne         |$LN4@DMA_IOCont|
  01284	e59d30e4	 ldr         r3, [sp, #0xE4]
  01288	e3530000	 cmp         r3, #0
  0128c	0a000002	 beq         |$LN4@DMA_IOCont|
  01290	e59d30e8	 ldr         r3, [sp, #0xE8]
  01294	e3530004	 cmp         r3, #4
  01298	0a00000d	 beq         |$LN5@DMA_IOCont|
  0129c		 |$LN4@DMA_IOCont|

; 674  :                 {
; 675  :                 DEBUGMSG(ZONE_ERROR, (L"ERROR: DMA_IOControl: "
; 676  :                     L"IOCTL_DMA_REQUEST_DEDICATED_INTERRUPT invalid parameters\r\n"
; 677  :                     ));

  0129c	e59f31cc	 ldr         r3, [pc, #0x1CC]
  012a0	e5933440	 ldr         r3, [r3, #0x440]
  012a4	e3130001	 tst         r3, #1
  012a8	0a000004	 beq         |$LN85@DMA_IOCont|
  012ac	e59f01c8	 ldr         r0, [pc, #0x1C8]
  012b0	eb000000	 bl          NKDbgPrintfW
  012b4	e3a03001	 mov         r3, #1
  012b8	e58d30b8	 str         r3, [sp, #0xB8]
  012bc	ea000001	 b           |$LN86@DMA_IOCont|
  012c0		 |$LN85@DMA_IOCont|
  012c0	e3a03000	 mov         r3, #0
  012c4	e58d30b8	 str         r3, [sp, #0xB8]
  012c8		 |$LN86@DMA_IOCont|

; 678  :                 SetLastError(ERROR_INVALID_PARAMETER);

  012c8	e3a00057	 mov         r0, #0x57
  012cc	eb000000	 bl          SetLastError

; 679  :                 break;

  012d0	ea000053	 b           |$LN50@DMA_IOCont|
  012d4		 |$LN5@DMA_IOCont|

; 680  :                 }
; 681  : 
; 682  :             // Cast pOutBuffer
; 683  :             pIoctlOutput = (IOCTL_DMA_REQUEST_DEDICATED_INTERRUPT_OUT*)pOutBuffer;

  012d4	e59d30ec	 ldr         r3, [sp, #0xEC]
  012d8	e58d304c	 str         r3, [sp, #0x4C]

; 684  : 
; 685  :             //assume this is a system interrupt
; 686  :             pController = pDevice->pSystemController;

  012dc	e59d3010	 ldr         r3, [sp, #0x10]
  012e0	e2833014	 add         r3, r3, #0x14
  012e4	e5933000	 ldr         r3, [r3]
  012e8	e58d3048	 str         r3, [sp, #0x48]

; 687  :             
; 688  :             EnterCriticalSection(&pDevice->cs);

  012ec	e59d3010	 ldr         r3, [sp, #0x10]
  012f0	e2830018	 add         r0, r3, #0x18
  012f4	eb000000	 bl          EnterCriticalSection

; 689  :             rc = pController->DI_ReserveInterrupt(
; 690  :                                                 *((DWORD*)pInBuffer), 
; 691  :                                                 &pIoctlOutput->IrqNum,
; 692  :                                                 &pIoctlOutput->DmaControllerPhysAddr,
; 693  :                                                 &pIoctlOutput->ffDmaChannels
; 694  :                                               );

  012f8	e59d304c	 ldr         r3, [sp, #0x4C]
  012fc	e2833008	 add         r3, r3, #8
  01300	e58d3000	 str         r3, [sp]
  01304	e59d304c	 ldr         r3, [sp, #0x4C]
  01308	e2833004	 add         r3, r3, #4
  0130c	e59d204c	 ldr         r2, [sp, #0x4C]
  01310	e59d10e4	 ldr         r1, [sp, #0xE4]
  01314	e5911000	 ldr         r1, [r1]
  01318	e59d0048	 ldr         r0, [sp, #0x48]
  0131c	e5900000	 ldr         r0, [r0]
  01320	e280e028	 add         lr, r0, #0x28
  01324	e59d0048	 ldr         r0, [sp, #0x48]
  01328	e59e4000	 ldr         r4, [lr]
  0132c	e1a0e00f	 mov         lr, pc
  01330	e12fff14	 bx          r4
  01334	e58d00bc	 str         r0, [sp, #0xBC]
  01338	e59d30bc	 ldr         r3, [sp, #0xBC]
  0133c	e58d3014	 str         r3, [sp, #0x14]

; 695  :             LeaveCriticalSection(&pDevice->cs);

  01340	e59d3010	 ldr         r3, [sp, #0x10]
  01344	e2830018	 add         r0, r3, #0x18
  01348	eb000000	 bl          LeaveCriticalSection

; 696  :             }
; 697  :             break;

  0134c	ea000034	 b           |$LN50@DMA_IOCont|
  01350		 |$LN3@DMA_IOCont|

; 698  : 
; 699  :         case IOCTL_DMA_RELEASE_DEDICATED_INTERRUPT:
; 700  :             {
; 701  :             SystemDmaController *pController;
; 702  :             DEBUGMSG(ZONE_INFO, (L"DMA: IOCTL_DMA_RELEASE_DEDICATED_INTERRUPT\r\n"));

  01350	e59f3118	 ldr         r3, [pc, #0x118]
  01354	e5933440	 ldr         r3, [r3, #0x440]
  01358	e3130008	 tst         r3, #8
  0135c	0a000004	 beq         |$LN87@DMA_IOCont|
  01360	e59f0110	 ldr         r0, [pc, #0x110]
  01364	eb000000	 bl          NKDbgPrintfW
  01368	e3a03001	 mov         r3, #1
  0136c	e58d30c0	 str         r3, [sp, #0xC0]
  01370	ea000001	 b           |$LN88@DMA_IOCont|
  01374		 |$LN87@DMA_IOCont|
  01374	e3a03000	 mov         r3, #0
  01378	e58d30c0	 str         r3, [sp, #0xC0]
  0137c		 |$LN88@DMA_IOCont|

; 703  : 
; 704  :             if (pInBuffer == NULL || inSize != sizeof(IOCTL_DMA_RELEASE_DEDICATED_INTERRUPT_IN))

  0137c	e59d30e4	 ldr         r3, [sp, #0xE4]
  01380	e3530000	 cmp         r3, #0
  01384	0a000002	 beq         |$LN1@DMA_IOCont|
  01388	e59d30e8	 ldr         r3, [sp, #0xE8]
  0138c	e3530004	 cmp         r3, #4
  01390	0a00000d	 beq         |$LN2@DMA_IOCont|
  01394		 |$LN1@DMA_IOCont|

; 705  :                 {
; 706  :                 DEBUGMSG(ZONE_ERROR, (L"ERROR: DMA_IOControl: "
; 707  :                     L"IOCTL_DMA_RELEASE_DEDICATED_INTERRUPT invalid parameters\r\n"
; 708  :                     ));

  01394	e59f30d4	 ldr         r3, [pc, #0xD4]
  01398	e5933440	 ldr         r3, [r3, #0x440]
  0139c	e3130001	 tst         r3, #1
  013a0	0a000004	 beq         |$LN89@DMA_IOCont|
  013a4	e59f00c8	 ldr         r0, [pc, #0xC8]
  013a8	eb000000	 bl          NKDbgPrintfW
  013ac	e3a03001	 mov         r3, #1
  013b0	e58d30c4	 str         r3, [sp, #0xC4]
  013b4	ea000001	 b           |$LN90@DMA_IOCont|
  013b8		 |$LN89@DMA_IOCont|
  013b8	e3a03000	 mov         r3, #0
  013bc	e58d30c4	 str         r3, [sp, #0xC4]
  013c0		 |$LN90@DMA_IOCont|

; 709  :                 SetLastError(ERROR_INVALID_PARAMETER);

  013c0	e3a00057	 mov         r0, #0x57
  013c4	eb000000	 bl          SetLastError

; 710  :                 break;

  013c8	ea000015	 b           |$LN50@DMA_IOCont|
  013cc		 |$LN2@DMA_IOCont|

; 711  :                 }
; 712  : 
; 713  :             //assume this is a system interrupt
; 714  :             pController = pDevice->pSystemController;

  013cc	e59d3010	 ldr         r3, [sp, #0x10]
  013d0	e2833014	 add         r3, r3, #0x14
  013d4	e5933000	 ldr         r3, [r3]
  013d8	e58d3050	 str         r3, [sp, #0x50]

; 715  :             
; 716  :             EnterCriticalSection(&pDevice->cs);

  013dc	e59d3010	 ldr         r3, [sp, #0x10]
  013e0	e2830018	 add         r0, r3, #0x18
  013e4	eb000000	 bl          EnterCriticalSection

; 717  :             rc = pController->DI_ReleaseInterrupt(*((DWORD*)pInBuffer));

  013e8	e59d30e4	 ldr         r3, [sp, #0xE4]
  013ec	e5931000	 ldr         r1, [r3]
  013f0	e59d3050	 ldr         r3, [sp, #0x50]
  013f4	e5933000	 ldr         r3, [r3]
  013f8	e283302c	 add         r3, r3, #0x2C
  013fc	e59d0050	 ldr         r0, [sp, #0x50]
  01400	e5933000	 ldr         r3, [r3]
  01404	e1a0e00f	 mov         lr, pc
  01408	e12fff13	 bx          r3
  0140c	e58d00c8	 str         r0, [sp, #0xC8]
  01410	e59d30c8	 ldr         r3, [sp, #0xC8]
  01414	e58d3014	 str         r3, [sp, #0x14]

; 718  :             LeaveCriticalSection(&pDevice->cs);

  01418	e59d3010	 ldr         r3, [sp, #0x10]
  0141c	e2830018	 add         r0, r3, #0x18
  01420	eb000000	 bl          LeaveCriticalSection
  01424		 |$LN50@DMA_IOCont|
  01424		 |$LN8@DMA_IOCont|
  01424		 |$LN17@DMA_IOCont|
  01424		 |$LN25@DMA_IOCont|
  01424		 |$LN34@DMA_IOCont|
  01424		 |$LN42@DMA_IOCont|
  01424		 |$LN52@DMA_IOCont|
  01424		 |$cleanUp$36356|

; 719  :             }
; 720  :             break;
; 721  :             
; 722  :         }
; 723  : 
; 724  : cleanUp:
; 725  :     DEBUGMSG(ZONE_FUNCTION, (L"-DMA_IOControl(rc = %d)\r\n", rc));

  01424	e59f3044	 ldr         r3, [pc, #0x44]
  01428	e5933440	 ldr         r3, [r3, #0x440]
  0142c	e3130004	 tst         r3, #4
  01430	0a000005	 beq         |$LN91@DMA_IOCont|
  01434	e59d1014	 ldr         r1, [sp, #0x14]
  01438	e59f002c	 ldr         r0, [pc, #0x2C]
  0143c	eb000000	 bl          NKDbgPrintfW
  01440	e3a03001	 mov         r3, #1
  01444	e58d30cc	 str         r3, [sp, #0xCC]
  01448	ea000001	 b           |$LN92@DMA_IOCont|
  0144c		 |$LN91@DMA_IOCont|
  0144c	e3a03000	 mov         r3, #0
  01450	e58d30cc	 str         r3, [sp, #0xCC]
  01454		 |$LN92@DMA_IOCont|

; 726  :     return rc;

  01454	e59d3014	 ldr         r3, [sp, #0x14]
  01458	e58d3068	 str         r3, [sp, #0x68]

; 727  : }

  0145c	e59d0068	 ldr         r0, [sp, #0x68]
  01460	e28dd0d0	 add         sp, sp, #0xD0
  01464	e89d6010	 ldmia       sp, {r4, sp, lr}
  01468	e12fff1e	 bx          lr
  0146c		 |$LN127@DMA_IOCont|
  0146c		 |$LN128@DMA_IOCont|
  0146c	00000000	 DCD         |??_C@_1DE@EAIEEINC@?$AA?9?$AAD?$AAM?$AAA?$AA_?$AAI?$AAO?$AAC?$AAo?$AAn?$AAt?$AAr?$AAo?$AAl?$AA?$CI?$AAr?$AAc?$AA?5?$AA?$DN?$AA?5?$AA?$CF?$AAd?$AA?$CJ?$AA?$AN?$AA?6?$AA?$AA@|
  01470		 |$LN129@DMA_IOCont|
  01470	00000000	 DCD         |dpCurSettings|
  01474		 |$LN130@DMA_IOCont|
  01474	00000000	 DCD         |??_C@_1KC@HJDFMDN@?$AAE?$AAR?$AAR?$AAO?$AAR?$AA?3?$AA?5?$AAD?$AAM?$AAA?$AA_?$AAI?$AAO?$AAC?$AAo?$AAn?$AAt?$AAr?$AAo?$AAl?$AA?3?$AA?5?$AAI?$AAO?$AAC?$AAT?$AAL?$AA_?$AAD?$AAM?$AAA?$AA_@|
  01478		 |$LN131@DMA_IOCont|
  01478	00000000	 DCD         |??_C@_1FK@ENMBLFDM@?$AAD?$AAM?$AAA?$AA?3?$AA?5?$AAI?$AAO?$AAC?$AAT?$AAL?$AA_?$AAD?$AAM?$AAA?$AA_?$AAR?$AAE?$AAL?$AAE?$AAA?$AAS?$AAE?$AA_?$AAD?$AAE?$AAD?$AAI?$AAC?$AAA?$AAT?$AAE?$AAD@|
  0147c		 |$LN132@DMA_IOCont|
  0147c	00000000	 DCD         |??_C@_1KC@CNIFDEJA@?$AAE?$AAR?$AAR?$AAO?$AAR?$AA?3?$AA?5?$AAD?$AAM?$AAA?$AA_?$AAI?$AAO?$AAC?$AAo?$AAn?$AAt?$AAr?$AAo?$AAl?$AA?3?$AA?5?$AAI?$AAO?$AAC?$AAT?$AAL?$AA_?$AAD?$AAM?$AAA?$AA_@|
  01480		 |$LN133@DMA_IOCont|
  01480	00000000	 DCD         |??_C@_1FK@PONNAMLF@?$AAD?$AAM?$AAA?$AA?3?$AA?5?$AAI?$AAO?$AAC?$AAT?$AAL?$AA_?$AAD?$AAM?$AAA?$AA_?$AAR?$AAE?$AAQ?$AAU?$AAE?$AAS?$AAT?$AA_?$AAD?$AAE?$AAD?$AAI?$AAC?$AAA?$AAT?$AAE?$AAD@|
  01484		 |$LN134@DMA_IOCont|
  01484	00000000	 DCD         |??_C@_1II@KHNCEPEJ@?$AAE?$AAR?$AAR?$AAO?$AAR?$AA?3?$AA?5?$AAD?$AAM?$AAA?$AA_?$AAI?$AAO?$AAC?$AAo?$AAn?$AAt?$AAr?$AAo?$AAl?$AA?3?$AA?5?$AAI?$AAO?$AAC?$AAT?$AAL?$AA_?$AAD?$AAM?$AAA?$AA_@|
  01488		 |$LN135@DMA_IOCont|
  01488	00000000	 DCD         |??_C@_1EA@OGKOKBHA@?$AAD?$AAM?$AAA?$AA?3?$AA?5?$AAI?$AAO?$AAC?$AAT?$AAL?$AA_?$AAD?$AAM?$AAA?$AA_?$AAD?$AAI?$AAS?$AAA?$AAB?$AAL?$AAE?$AAS?$AAT?$AAA?$AAN?$AAD?$AAB?$AAY?$AA?$AN?$AA?6?$AA?$AA@|
  0148c		 |$LN136@DMA_IOCont|
  0148c	00000000	 DCD         |??_C@_1JE@IEPPPBBP@?$AAE?$AAR?$AAR?$AAO?$AAR?$AA?3?$AA?5?$AAD?$AAM?$AAA?$AA_?$AAI?$AAO?$AAC?$AAo?$AAn?$AAt?$AAr?$AAo?$AAl?$AA?3?$AA?5?$AAI?$AAO?$AAC?$AAT?$AAL?$AA_?$AAD?$AAM?$AAA?$AA_@|
  01490		 |$LN137@DMA_IOCont|
  01490	00000000	 DCD         |??_C@_1EM@KIJMIBAE@?$AAD?$AAM?$AAA?$AA?3?$AA?5?$AAI?$AAO?$AAC?$AAT?$AAL?$AA_?$AAD?$AAM?$AAA?$AA_?$AAR?$AAE?$AAG?$AAI?$AAS?$AAT?$AAE?$AAR?$AA_?$AAE?$AAV?$AAE?$AAN?$AAT?$AAH?$AAA?$AAN@|
  01494		 |$LN138@DMA_IOCont|
  01494	00000000	 DCD         |??_C@_1IK@NFADGPHD@?$AAE?$AAR?$AAR?$AAO?$AAR?$AA?3?$AA?5?$AAD?$AAM?$AAA?$AA_?$AAI?$AAO?$AAC?$AAo?$AAn?$AAt?$AAr?$AAo?$AAl?$AA?3?$AA?5?$AAI?$AAO?$AAC?$AAT?$AAL?$AA_?$AAD?$AAM?$AAA?$AA_@|
  01498		 |$LN139@DMA_IOCont|
  01498	00000000	 DCD         |??_C@_1EC@LGJBLPNA@?$AAD?$AAM?$AAA?$AA?3?$AA?5?$AAI?$AAO?$AAC?$AAT?$AAL?$AA_?$AAD?$AAM?$AAA?$AA_?$AAR?$AAE?$AAL?$AAE?$AAA?$AAS?$AAE?$AA_?$AAC?$AAH?$AAA?$AAN?$AAN?$AAE?$AAL?$AA?$AN?$AA?6@|
  0149c		 |$LN140@DMA_IOCont|
  0149c	00000000	 DCD         |??_C@_1HE@IMGAHJPA@?$AAE?$AAR?$AAR?$AAO?$AAR?$AA?3?$AA?5?$AAD?$AAM?$AAA?$AA_?$AAI?$AAO?$AAC?$AAo?$AAn?$AAt?$AAr?$AAo?$AAl?$AA?3?$AA?5?$AAI?$AAO?$AAC?$AAT?$AAL?$AA_?$AAD?$AAM?$AAA?$AA_@|
  014a0		 |$LN141@DMA_IOCont|
  014a0	00000000	 DCD         |??_C@_1IK@PBCCDOJK@?$AAE?$AAR?$AAR?$AAO?$AAR?$AA?3?$AA?5?$AAD?$AAM?$AAA?$AA_?$AAI?$AAO?$AAC?$AAo?$AAn?$AAt?$AAr?$AAo?$AAl?$AA?3?$AA?5?$AAI?$AAO?$AAC?$AAT?$AAL?$AA_?$AAD?$AAM?$AAA?$AA_@|
  014a4		 |$LN142@DMA_IOCont|
  014a4	00000000	 DCD         |??_C@_1EC@CEEBBBEG@?$AAD?$AAM?$AAA?$AA?3?$AA?5?$AAI?$AAO?$AAC?$AAT?$AAL?$AA_?$AAD?$AAM?$AAA?$AA_?$AAR?$AAE?$AAS?$AAE?$AAR?$AAV?$AAE?$AA_?$AAC?$AAH?$AAA?$AAN?$AAN?$AAE?$AAL?$AA?$AN?$AA?6@|
  014a8		 |$LN143@DMA_IOCont|
  014a8	00000000	 DCD         |??_C@_1IG@JBGLNBAG@?$AAE?$AAR?$AAR?$AAO?$AAR?$AA?3?$AA?5?$AAD?$AAM?$AAA?$AA_?$AAI?$AAO?$AAC?$AAo?$AAn?$AAt?$AAr?$AAo?$AAl?$AA?3?$AA?5?$AAI?$AAO?$AAC?$AAT?$AAL?$AA_?$AAD?$AAM?$AAA?$AA_@|
  014ac		 |$LN144@DMA_IOCont|
  014ac	00000000	 DCD         |??_C@_1DO@DHCECFCP@?$AAD?$AAM?$AAA?$AA?3?$AA?5?$AAI?$AAO?$AAC?$AAT?$AAL?$AA_?$AAD?$AAM?$AAA?$AA_?$AAI?$AAN?$AAT?$AAE?$AAR?$AAR?$AAU?$AAP?$AAT?$AAD?$AAO?$AAN?$AAE?$AA?$AN?$AA?6?$AA?$AA@|
  014b0		 |$LN145@DMA_IOCont|
  014b0	01da0404	 DCD         0x1da0404
  014b4		 |$LN146@DMA_IOCont|
  014b4	00000000	 DCD         |??_C@_1GE@LLEHPHIC@?$AAE?$AAR?$AAR?$AAO?$AAR?$AA?3?$AA?5?$AAD?$AAM?$AAA?$AA_?$AAI?$AAO?$AAC?$AAo?$AAn?$AAt?$AAr?$AAo?$AAl?$AA?3?$AA?5?$AAI?$AAn?$AAc?$AAo?$AAr?$AAr?$AAe?$AAc?$AAt?$AA?5@|
  014b8		 |$LN147@DMA_IOCont|
  014b8	646d6149	 DCD         0x646d6149
  014bc		 |$LN148@DMA_IOCont|
  014bc	00000000	 DCD         |??_C@_1IC@JDOCADMF@?$AA?$CL?$AAD?$AAM?$AAA?$AA_?$AAI?$AAO?$AAC?$AAo?$AAn?$AAt?$AAr?$AAo?$AAl?$AA?$CI?$AA0?$AAx?$AA?$CF?$AA0?$AA8?$AAx?$AA?0?$AA?5?$AA0?$AAx?$AA?$CF?$AA0?$AA8?$AAx?$AA?0?$AA?5?$AA0@|
  014c0		 |$M36814|

			 ENDP  ; |?DMA_IOControl@@YAHKKPAEK0KPAK@Z|, DMA_IOControl

	EXPORT	|DllMain|
	IMPORT	|DisableThreadLibraryCalls|
	IMPORT	|RegisterDbgZones|

  00030			 AREA	 |.pdata|, PDATA
|$T36844| DCD	|$LN8@DllMain|
	DCD	0x40001404
; Function compile flags: /Odtp

  014c0			 AREA	 |.text|, CODE, ARM

  014c0		 |DllMain| PROC

; 743  : {

  014c0		 |$LN8@DllMain|
  014c0	e1a0c00d	 mov         r12, sp
  014c4	e92d0007	 stmdb       sp!, {r0 - r2}
  014c8	e92d5000	 stmdb       sp!, {r12, lr}
  014cc	e24dd004	 sub         sp, sp, #4
  014d0		 |$M36841|

; 744  :     UNREFERENCED_PARAMETER(pReserved);
; 745  :     switch (reason)

  014d0	e59d3010	 ldr         r3, [sp, #0x10]
  014d4	e3530001	 cmp         r3, #1
  014d8	0a000000	 beq         |$LN1@DllMain|
  014dc	ea000004	 b           |$LN2@DllMain|
  014e0		 |$LN1@DllMain|

; 746  :         {
; 747  :         case DLL_PROCESS_ATTACH:
; 748  :             RETAILREGISTERZONES((HMODULE)hDLL);

  014e0	e59f1024	 ldr         r1, [pc, #0x24]
  014e4	e59d000c	 ldr         r0, [sp, #0xC]
  014e8	eb000000	 bl          RegisterDbgZones

; 749  :             DisableThreadLibraryCalls((HMODULE)hDLL);

  014ec	e59d000c	 ldr         r0, [sp, #0xC]
  014f0	eb000000	 bl          DisableThreadLibraryCalls
  014f4		 |$LN2@DllMain|

; 750  :             break;
; 751  :         }
; 752  :     return TRUE;

  014f4	e3a03001	 mov         r3, #1
  014f8	e58d3000	 str         r3, [sp]

; 753  : }

  014fc	e59d0000	 ldr         r0, [sp]
  01500	e28dd004	 add         sp, sp, #4
  01504	e89d6000	 ldmia       sp, {sp, lr}
  01508	e12fff1e	 bx          lr
  0150c		 |$LN9@DllMain|
  0150c		 |$LN10@DllMain|
  0150c	00000000	 DCD         |dpCurSettings|
  01510		 |$M36842|

			 ENDP  ; |DllMain|

	END
