; Listing generated by Microsoft (R) Optimizing Compiler Version 14.01.60511.01 

	TTL	C:\WINCE600\PLATFORM\COMMON\SRC\SOC\COMMON_TI_V1\COMMON_TI\SDMA\dmamediator.cpp
	CODE32

  00000			 AREA	 |.drectve|, DRECTVE
	DCB	"-defaultlib:LIBCMT "
	DCB	"-defaultlib:OLDNAMES "

	EXPORT	|??_C@_1EC@OOFCEEJO@?$AA?9?$AAD?$AAm?$AAa?$AAM?$AAe?$AAd?$AAi?$AAa?$AAt?$AAo?$AAr?$AA?3?$AA?3?$AAI?$AAn?$AAt?$AAe?$AAr?$AAr?$AAu?$AAp?$AAt?$AAH?$AAa?$AAn?$AAd?$AAl?$AAe?$AAr?$AA?$AN?$AA?6@| [ DATA ] ; `string'
	EXPORT	|??_C@_1IA@HIKFKCCG@?$AAD?$AAm?$AAa?$AAM?$AAe?$AAd?$AAi?$AAa?$AAt?$AAo?$AAr?$AA?3?$AA?3?$AAI?$AAn?$AAt?$AAe?$AAr?$AAr?$AAu?$AAp?$AAt?$AAH?$AAa?$AAn?$AAd?$AAl?$AAe?$AAr?$AA?3?$AA?5?$AAe@| [ DATA ] ; `string'
	EXPORT	|??_C@_1HA@DAENMHHP@?$AAD?$AAm?$AAa?$AAM?$AAe?$AAd?$AAi?$AAa?$AAt?$AAo?$AAr?$AA?3?$AA?3?$AAI?$AAn?$AAt?$AAe?$AAr?$AAr?$AAu?$AAp?$AAt?$AAH?$AAa?$AAn?$AAd?$AAl?$AAe?$AAr?$AA?3?$AA?5?$AAr@| [ DATA ] ; `string'
	EXPORT	|??_C@_1FO@FGLBLACC@?$AA?$CL?$AAD?$AAm?$AAa?$AAM?$AAe?$AAd?$AAi?$AAa?$AAt?$AAo?$AAr?$AA?3?$AA?3?$AAI?$AAn?$AAt?$AAe?$AAr?$AAr?$AAu?$AAp?$AAt?$AAH?$AAa?$AAn?$AAd?$AAl?$AAe?$AAr?$AA?3?$AA?5@| [ DATA ] ; `string'
	EXPORT	|?InterruptHandler@DmaMediator@@KAKPAX@Z| ; DmaMediator::InterruptHandler
	IMPORT	|InterruptDone|
	IMPORT	|WaitForSingleObject|
	IMPORT	|NKDbgPrintfW|
	IMPORT	|dpCurSettings|
	IMPORT	|__C_specific_handler|

  00000			 AREA	 |.pdata|, PDATA
|$T36255| DCD	|$LN26@InterruptH|
	DCD	0xc0005505
|$T36257| DCD	|$LN16@InterruptH|
	DCD	0x40000801
; File c:\wince600\platform\common\src\soc\common_ti_v1\common_ti\sdma\dmamediator.cpp

  00000			 AREA	 |.rdata|, DATA, READONLY
|??_C@_1EC@OOFCEEJO@?$AA?9?$AAD?$AAm?$AAa?$AAM?$AAe?$AAd?$AAi?$AAa?$AAt?$AAo?$AAr?$AA?3?$AA?3?$AAI?$AAn?$AAt?$AAe?$AAr?$AAr?$AAu?$AAp?$AAt?$AAH?$AAa?$AAn?$AAd?$AAl?$AAe?$AAr?$AA?$AN?$AA?6@| DCB "-"
	DCB	0x0, "D", 0x0, "m", 0x0, "a", 0x0, "M", 0x0, "e", 0x0, "d"
	DCB	0x0, "i", 0x0, "a", 0x0, "t", 0x0, "o", 0x0, "r", 0x0, ":"
	DCB	0x0, ":", 0x0, "I", 0x0, "n", 0x0, "t", 0x0, "e", 0x0, "r"
	DCB	0x0, "r", 0x0, "u", 0x0, "p", 0x0, "t", 0x0, "H", 0x0, "a"
	DCB	0x0, "n", 0x0, "d", 0x0, "l", 0x0, "e", 0x0, "r", 0x0, 0xd
	DCB	0x0, 0xa, 0x0, 0x0, 0x0			; `string'

  00000			 AREA	 |.rdata|, DATA, READONLY
|??_C@_1IA@HIKFKCCG@?$AAD?$AAm?$AAa?$AAM?$AAe?$AAd?$AAi?$AAa?$AAt?$AAo?$AAr?$AA?3?$AA?3?$AAI?$AAn?$AAt?$AAe?$AAr?$AAr?$AAu?$AAp?$AAt?$AAH?$AAa?$AAn?$AAd?$AAl?$AAe?$AAr?$AA?3?$AA?5?$AAe@| DCB "D"
	DCB	0x0, "m", 0x0, "a", 0x0, "M", 0x0, "e", 0x0, "d", 0x0, "i"
	DCB	0x0, "a", 0x0, "t", 0x0, "o", 0x0, "r", 0x0, ":", 0x0, ":"
	DCB	0x0, "I", 0x0, "n", 0x0, "t", 0x0, "e", 0x0, "r", 0x0, "r"
	DCB	0x0, "u", 0x0, "p", 0x0, "t", 0x0, "H", 0x0, "a", 0x0, "n"
	DCB	0x0, "d", 0x0, "l", 0x0, "e", 0x0, "r", 0x0, ":", 0x0, " "
	DCB	0x0, "e", 0x0, "x", 0x0, "c", 0x0, "e", 0x0, "p", 0x0, "t"
	DCB	0x0, "i", 0x0, "o", 0x0, "n", 0x0, " ", 0x0, "i", 0x0, "n"
	DCB	0x0, " ", 0x0, "i", 0x0, "n", 0x0, "t", 0x0, "e", 0x0, "r"
	DCB	0x0, "r", 0x0, "u", 0x0, "p", 0x0, "t", 0x0, " ", 0x0, "h"
	DCB	0x0, "a", 0x0, "n", 0x0, "d", 0x0, "l", 0x0, "e", 0x0, "r"
	DCB	0x0, 0xd, 0x0, 0xa, 0x0, 0x0, 0x0	; `string'

  00000			 AREA	 |.rdata|, DATA, READONLY
|??_C@_1HA@DAENMHHP@?$AAD?$AAm?$AAa?$AAM?$AAe?$AAd?$AAi?$AAa?$AAt?$AAo?$AAr?$AA?3?$AA?3?$AAI?$AAn?$AAt?$AAe?$AAr?$AAr?$AAu?$AAp?$AAt?$AAH?$AAa?$AAn?$AAd?$AAl?$AAe?$AAr?$AA?3?$AA?5?$AAr@| DCB "D"
	DCB	0x0, "m", 0x0, "a", 0x0, "M", 0x0, "e", 0x0, "d", 0x0, "i"
	DCB	0x0, "a", 0x0, "t", 0x0, "o", 0x0, "r", 0x0, ":", 0x0, ":"
	DCB	0x0, "I", 0x0, "n", 0x0, "t", 0x0, "e", 0x0, "r", 0x0, "r"
	DCB	0x0, "u", 0x0, "p", 0x0, "t", 0x0, "H", 0x0, "a", 0x0, "n"
	DCB	0x0, "d", 0x0, "l", 0x0, "e", 0x0, "r", 0x0, ":", 0x0, " "
	DCB	0x0, "r", 0x0, "e", 0x0, "c", 0x0, "e", 0x0, "i", 0x0, "v"
	DCB	0x0, "e", 0x0, "d", 0x0, " ", 0x0, "d", 0x0, "m", 0x0, "a"
	DCB	0x0, " ", 0x0, "i", 0x0, "n", 0x0, "t", 0x0, "e", 0x0, "r"
	DCB	0x0, "r", 0x0, "u", 0x0, "p", 0x0, "t", 0x0, 0xd, 0x0, 0xa
	DCB	0x0, 0x0, 0x0				; `string'

  00000			 AREA	 |.rdata|, DATA, READONLY
|??_C@_1FO@FGLBLACC@?$AA?$CL?$AAD?$AAm?$AAa?$AAM?$AAe?$AAd?$AAi?$AAa?$AAt?$AAo?$AAr?$AA?3?$AA?3?$AAI?$AAn?$AAt?$AAe?$AAr?$AAr?$AAu?$AAp?$AAt?$AAH?$AAa?$AAn?$AAd?$AAl?$AAe?$AAr?$AA?3?$AA?5@| DCB "+"
	DCB	0x0, "D", 0x0, "m", 0x0, "a", 0x0, "M", 0x0, "e", 0x0, "d"
	DCB	0x0, "i", 0x0, "a", 0x0, "t", 0x0, "o", 0x0, "r", 0x0, ":"
	DCB	0x0, ":", 0x0, "I", 0x0, "n", 0x0, "t", 0x0, "e", 0x0, "r"
	DCB	0x0, "r", 0x0, "u", 0x0, "p", 0x0, "t", 0x0, "H", 0x0, "a"
	DCB	0x0, "n", 0x0, "d", 0x0, "l", 0x0, "e", 0x0, "r", 0x0, ":"
	DCB	0x0, " ", 0x0, "p", 0x0, "D", 0x0, "a", 0x0, "t", 0x0, "a"
	DCB	0x0, "=", 0x0, "0", 0x0, "x", 0x0, "%", 0x0, "0", 0x0, "8"
	DCB	0x0, "X", 0x0, 0xd, 0x0, 0xa, 0x0, 0x0, 0x0 ; `string'

  00000			 AREA	 |.xdata|, DATA
|$T36253| DCD	0x1
	DCD	|$LN20@InterruptH|
	DCD	|$LN21@InterruptH|
	DCD	|$LN16@InterruptH|
	DCD	|$LN17@InterruptH|
; Function compile flags: /Odtp

  00000			 AREA	 |.text|, CODE, ARM

  00000	00000000	 DCD         |__C_specific_handler|
  00004	00000000	 DCD         |$T36253|

  00008		 |?InterruptHandler@DmaMediator@@KAKPAX@Z| PROC ; DmaMediator::InterruptHandler

; 37   : {

  00008		 |$LN26@InterruptH|
  00008	e1a0c00d	 mov         r12, sp
  0000c	e92d0001	 stmdb       sp!, {r0}
  00010	e92d5800	 stmdb       sp!, {r11, r12, lr}
  00014	e28db00c	 add         r11, sp, #0xC
  00018	e24dd01c	 sub         sp, sp, #0x1C
  0001c		 |$LN24@InterruptH|

; 38   :     DEBUGMSG(ZONE_FUNCTION, (L"+DmaMediator::InterruptHandler: "
; 39   :         L"pData=0x%08X\r\n",pData
; 40   :         ));

  0001c	e59f3148	 ldr         r3, [pc, #0x148]
  00020	e5933440	 ldr         r3, [r3, #0x440]
  00024	e3130004	 tst         r3, #4
  00028	0a000005	 beq         |$LN7@InterruptH|
  0002c	e59b1000	 ldr         r1, [r11]
  00030	e59f0140	 ldr         r0, [pc, #0x140]
  00034	eb000000	 bl          NKDbgPrintfW
  00038	e3a03001	 mov         r3, #1
  0003c	e50b301c	 str         r3, [r11, #-0x1C]
  00040	ea000001	 b           |$LN8@InterruptH|
  00044		 |$LN7@InterruptH|
  00044	e3a03000	 mov         r3, #0
  00048	e50b301c	 str         r3, [r11, #-0x1C]
  0004c		 |$LN8@InterruptH|

; 41   :     
; 42   :     DmaMediator* pMediator = (DmaMediator*)pData;

  0004c	e59b3000	 ldr         r3, [r11]
  00050	e50b3024	 str         r3, [r11, #-0x24]

; 43   :     DWORD sysIntr = pMediator->m_sysIntr;

  00054	e51b3024	 ldr         r3, [r11, #-0x24]
  00058	e2833010	 add         r3, r3, #0x10
  0005c	e5933000	 ldr         r3, [r3]
  00060	e50b3028	 str         r3, [r11, #-0x28]
  00064		 |$LN4@InterruptH|
  00064		 |$LN20@InterruptH|

; 44   : 
; 45   :     for(;;)
; 46   :         {
; 47   :         __try
; 48   :             {
; 49   :             // wait for interrupt
; 50   :             WaitForSingleObject(pMediator->m_hEvent, INFINITE);            

  00064	e3e01000	 mvn         r1, #0
  00068	e51b3024	 ldr         r3, [r11, #-0x24]
  0006c	e283300c	 add         r3, r3, #0xC
  00070	e5930000	 ldr         r0, [r3]
  00074	eb000000	 bl          WaitForSingleObject

; 51   :             if (pMediator->m_bExit == TRUE) break;

  00078	e51b3024	 ldr         r3, [r11, #-0x24]
  0007c	e2833004	 add         r3, r3, #4
  00080	e5933000	 ldr         r3, [r3]
  00084	e3530001	 cmp         r3, #1
  00088	1a000000	 bne         |$LN1@InterruptH|
  0008c	ea000021	 b           |$LN3@InterruptH|
  00090		 |$LN1@InterruptH|

; 52   : 
; 53   :             DEBUGMSG(ZONE_IST, (L"DmaMediator::InterruptHandler: "
; 54   :                 L"received dma interrupt\r\n"
; 55   :                 ));

  00090	e59f30d4	 ldr         r3, [pc, #0xD4]
  00094	e5933440	 ldr         r3, [r3, #0x440]
  00098	e3130010	 tst         r3, #0x10
  0009c	0a000004	 beq         |$LN9@InterruptH|
  000a0	e59f00cc	 ldr         r0, [pc, #0xCC]
  000a4	eb000000	 bl          NKDbgPrintfW
  000a8	e3a03001	 mov         r3, #1
  000ac	e50b3018	 str         r3, [r11, #-0x18]
  000b0	ea000001	 b           |$LN10@InterruptH|
  000b4		 |$LN9@InterruptH|
  000b4	e3a03000	 mov         r3, #0
  000b8	e50b3018	 str         r3, [r11, #-0x18]
  000bc		 |$LN10@InterruptH|

; 56   : 
; 57   :             // process interrupt
; 58   :             pMediator->ProcessInterrupt();

  000bc	e51b3024	 ldr         r3, [r11, #-0x24]
  000c0	e5933000	 ldr         r3, [r3]
  000c4	e2833004	 add         r3, r3, #4
  000c8	e51b0024	 ldr         r0, [r11, #-0x24]
  000cc	e5933000	 ldr         r3, [r3]
  000d0	e1a0e00f	 mov         lr, pc
  000d4	e12fff13	 bx          r3
  000d8		 |$LN21@InterruptH|

; 59   :             }

  000d8	ea00000b	 b           |$LN22@InterruptH|
  000dc		 |$LN17@InterruptH|

; 61   :             {
; 62   :             RETAILMSG(ZONE_ERROR, (L"DmaMediator::InterruptHandler: "
; 63   :                 L"exception in interrupt handler\r\n"
; 64   :                 ));

  000dc	e59f3088	 ldr         r3, [pc, #0x88]
  000e0	e5933440	 ldr         r3, [r3, #0x440]
  000e4	e3130001	 tst         r3, #1
  000e8	0a000004	 beq         |$LN11@InterruptH|
  000ec	e59f007c	 ldr         r0, [pc, #0x7C]
  000f0	eb000000	 bl          NKDbgPrintfW
  000f4	e3a03001	 mov         r3, #1
  000f8	e50b3014	 str         r3, [r11, #-0x14]
  000fc	ea000001	 b           |$LN12@InterruptH|
  00100		 |$LN11@InterruptH|
  00100	e3a03000	 mov         r3, #0
  00104	e50b3014	 str         r3, [r11, #-0x14]
  00108		 |$LN12@InterruptH|
  00108	eaffffff	 b           |$LN22@InterruptH|
  0010c		 |$LN22@InterruptH|

; 65   :             }
; 66   :         // reset for next interrupt
; 67   :         ::InterruptDone(sysIntr);

  0010c	e51b0028	 ldr         r0, [r11, #-0x28]
  00110	eb000000	 bl          InterruptDone

; 68   :         }

  00114	eaffffd2	 b           |$LN4@InterruptH|
  00118		 |$LN3@InterruptH|

; 69   : 
; 70   :     DEBUGMSG(ZONE_FUNCTION, (L"-DmaMediator::InterruptHandler\r\n"));

  00118	e59f304c	 ldr         r3, [pc, #0x4C]
  0011c	e5933440	 ldr         r3, [r3, #0x440]
  00120	e3130004	 tst         r3, #4
  00124	0a000004	 beq         |$LN13@InterruptH|
  00128	e59f0038	 ldr         r0, [pc, #0x38]
  0012c	eb000000	 bl          NKDbgPrintfW
  00130	e3a03001	 mov         r3, #1
  00134	e50b3010	 str         r3, [r11, #-0x10]
  00138	ea000001	 b           |$LN14@InterruptH|
  0013c		 |$LN13@InterruptH|
  0013c	e3a03000	 mov         r3, #0
  00140	e50b3010	 str         r3, [r11, #-0x10]
  00144		 |$LN14@InterruptH|

; 71   :     return 1;

  00144	e3a03001	 mov         r3, #1
  00148	e50b3020	 str         r3, [r11, #-0x20]
  0014c		 |$LN15@InterruptH|

; 72   : }

  0014c	e51b0020	 ldr         r0, [r11, #-0x20]
  00150	e24bd00c	 sub         sp, r11, #0xC
  00154	e89d6800	 ldmia       sp, {r11, sp, lr}
  00158	e12fff1e	 bx          lr

			 ENDP  ; |?InterruptHandler@DmaMediator@@KAKPAX@Z|, DmaMediator::InterruptHandler

  0015c		 |$LN16@InterruptH|
  0015c		 |$LN25@InterruptH|

; 60   :         __except (EXCEPTION_EXECUTE_HANDLER)

  0015c	e52de004	 str         lr, [sp, #-4]!
  00160		 |$LN19@InterruptH|
  00160		 |$LN28@InterruptH|
  00160	e3a00001	 mov         r0, #1
  00164		 |$LN18@InterruptH|
  00164	e49df004	 ldr         pc, [sp], #4
  00168		 |$LN30@InterruptH|
  00168		 |$LN31@InterruptH|
  00168	00000000	 DCD         |??_C@_1EC@OOFCEEJO@?$AA?9?$AAD?$AAm?$AAa?$AAM?$AAe?$AAd?$AAi?$AAa?$AAt?$AAo?$AAr?$AA?3?$AA?3?$AAI?$AAn?$AAt?$AAe?$AAr?$AAr?$AAu?$AAp?$AAt?$AAH?$AAa?$AAn?$AAd?$AAl?$AAe?$AAr?$AA?$AN?$AA?6@|
  0016c		 |$LN32@InterruptH|
  0016c	00000000	 DCD         |dpCurSettings|
  00170		 |$LN33@InterruptH|
  00170	00000000	 DCD         |??_C@_1IA@HIKFKCCG@?$AAD?$AAm?$AAa?$AAM?$AAe?$AAd?$AAi?$AAa?$AAt?$AAo?$AAr?$AA?3?$AA?3?$AAI?$AAn?$AAt?$AAe?$AAr?$AAr?$AAu?$AAp?$AAt?$AAH?$AAa?$AAn?$AAd?$AAl?$AAe?$AAr?$AA?3?$AA?5?$AAe@|
  00174		 |$LN34@InterruptH|
  00174	00000000	 DCD         |??_C@_1HA@DAENMHHP@?$AAD?$AAm?$AAa?$AAM?$AAe?$AAd?$AAi?$AAa?$AAt?$AAo?$AAr?$AA?3?$AA?3?$AAI?$AAn?$AAt?$AAe?$AAr?$AAr?$AAu?$AAp?$AAt?$AAH?$AAa?$AAn?$AAd?$AAl?$AAe?$AAr?$AA?3?$AA?5?$AAr@|
  00178		 |$LN35@InterruptH|
  00178	00000000	 DCD         |??_C@_1FO@FGLBLACC@?$AA?$CL?$AAD?$AAm?$AAa?$AAM?$AAe?$AAd?$AAi?$AAa?$AAt?$AAo?$AAr?$AA?3?$AA?3?$AAI?$AAn?$AAt?$AAe?$AAr?$AAr?$AAu?$AAp?$AAt?$AAH?$AAa?$AAn?$AAd?$AAl?$AAe?$AAr?$AA?3?$AA?5@|
  0017c		 |$LN29@InterruptH|
  0017c		 |$LN27@InterruptH|
	EXPORT	|??_C@_1EC@NPCLNANB@?$AA?9?$AAD?$AAm?$AAa?$AAM?$AAe?$AAd?$AAi?$AAa?$AAt?$AAo?$AAr?$AA?3?$AA?3?$AAS?$AAe?$AAt?$AAD?$AAm?$AAa?$AAC?$AAo?$AAn?$AAt?$AAr?$AAo?$AAl?$AAl?$AAe?$AAr?$AA?$AN?$AA?6@| [ DATA ] ; `string'
	EXPORT	|??_C@_1IM@HGGHHBPB@?$AA?$CL?$AAD?$AAm?$AAa?$AAM?$AAe?$AAd?$AAi?$AAa?$AAt?$AAo?$AAr?$AA?3?$AA?3?$AAS?$AAe?$AAt?$AAD?$AAm?$AAa?$AAC?$AAo?$AAn?$AAt?$AAr?$AAo?$AAl?$AAl?$AAe?$AAr?$AAc?$AAo@| [ DATA ] ; `string'
	EXPORT	|?SetDmaController@DmaMediator@@QAAXPAXPAVDmaControllerBase@@@Z| ; DmaMediator::SetDmaController

  00010			 AREA	 |.pdata|, PDATA
|$T36274| DCD	|$LN9@SetDmaCont|
	DCD	0x40002a04

  00000			 AREA	 |.rdata|, DATA, READONLY
|??_C@_1EC@NPCLNANB@?$AA?9?$AAD?$AAm?$AAa?$AAM?$AAe?$AAd?$AAi?$AAa?$AAt?$AAo?$AAr?$AA?3?$AA?3?$AAS?$AAe?$AAt?$AAD?$AAm?$AAa?$AAC?$AAo?$AAn?$AAt?$AAr?$AAo?$AAl?$AAl?$AAe?$AAr?$AA?$AN?$AA?6@| DCB "-"
	DCB	0x0, "D", 0x0, "m", 0x0, "a", 0x0, "M", 0x0, "e", 0x0, "d"
	DCB	0x0, "i", 0x0, "a", 0x0, "t", 0x0, "o", 0x0, "r", 0x0, ":"
	DCB	0x0, ":", 0x0, "S", 0x0, "e", 0x0, "t", 0x0, "D", 0x0, "m"
	DCB	0x0, "a", 0x0, "C", 0x0, "o", 0x0, "n", 0x0, "t", 0x0, "r"
	DCB	0x0, "o", 0x0, "l", 0x0, "l", 0x0, "e", 0x0, "r", 0x0, 0xd
	DCB	0x0, 0xa, 0x0, 0x0, 0x0			; `string'

  00000			 AREA	 |.rdata|, DATA, READONLY
|??_C@_1IM@HGGHHBPB@?$AA?$CL?$AAD?$AAm?$AAa?$AAM?$AAe?$AAd?$AAi?$AAa?$AAt?$AAo?$AAr?$AA?3?$AA?3?$AAS?$AAe?$AAt?$AAD?$AAm?$AAa?$AAC?$AAo?$AAn?$AAt?$AAr?$AAo?$AAl?$AAl?$AAe?$AAr?$AAc?$AAo@| DCB "+"
	DCB	0x0, "D", 0x0, "m", 0x0, "a", 0x0, "M", 0x0, "e", 0x0, "d"
	DCB	0x0, "i", 0x0, "a", 0x0, "t", 0x0, "o", 0x0, "r", 0x0, ":"
	DCB	0x0, ":", 0x0, "S", 0x0, "e", 0x0, "t", 0x0, "D", 0x0, "m"
	DCB	0x0, "a", 0x0, "C", 0x0, "o", 0x0, "n", 0x0, "t", 0x0, "r"
	DCB	0x0, "o", 0x0, "l", 0x0, "l", 0x0, "e", 0x0, "r", 0x0, "c"
	DCB	0x0, "o", 0x0, "n", 0x0, "t", 0x0, "e", 0x0, "x", 0x0, "t"
	DCB	0x0, "=", 0x0, "0", 0x0, "x", 0x0, "%", 0x0, "0", 0x0, "8"
	DCB	0x0, "X", 0x0, ",", 0x0, " ", 0x0, "p", 0x0, "D", 0x0, "m"
	DCB	0x0, "a", 0x0, "C", 0x0, "o", 0x0, "n", 0x0, "t", 0x0, "r"
	DCB	0x0, "o", 0x0, "l", 0x0, "l", 0x0, "e", 0x0, "r", 0x0, "="
	DCB	0x0, "0", 0x0, "x", 0x0, "%", 0x0, "0", 0x0, "8", 0x0, "X"
	DCB	0x0, 0xd, 0x0, 0xa, 0x0, 0x0, 0x0	; `string'
; Function compile flags: /Odtp

  0017c			 AREA	 |.text|, CODE, ARM

  0017c		 |?SetDmaController@DmaMediator@@QAAXPAXPAVDmaControllerBase@@@Z| PROC ; DmaMediator::SetDmaController

; 81   : {

  0017c		 |$LN9@SetDmaCont|
  0017c	e1a0c00d	 mov         r12, sp
  00180	e92d0007	 stmdb       sp!, {r0 - r2}
  00184	e92d5000	 stmdb       sp!, {r12, lr}
  00188	e24dd008	 sub         sp, sp, #8
  0018c		 |$M36271|

; 82   :     DEBUGMSG(ZONE_FUNCTION, (L"+DmaMediator::SetDmaController"
; 83   :         L"context=0x%08X, pDmaController=0x%08X\r\n",
; 84   :         context, pDmaController
; 85   :         ));

  0018c	e59f3088	 ldr         r3, [pc, #0x88]
  00190	e5933440	 ldr         r3, [r3, #0x440]
  00194	e3130004	 tst         r3, #4
  00198	0a000006	 beq         |$LN3@SetDmaCont|
  0019c	e59d2018	 ldr         r2, [sp, #0x18]
  001a0	e59d1014	 ldr         r1, [sp, #0x14]
  001a4	e59f0074	 ldr         r0, [pc, #0x74]
  001a8	eb000000	 bl          NKDbgPrintfW
  001ac	e3a03001	 mov         r3, #1
  001b0	e58d3000	 str         r3, [sp]
  001b4	ea000001	 b           |$LN4@SetDmaCont|
  001b8		 |$LN3@SetDmaCont|
  001b8	e3a03000	 mov         r3, #0
  001bc	e58d3000	 str         r3, [sp]
  001c0		 |$LN4@SetDmaCont|

; 86   : 
; 87   :     m_context = context;

  001c0	e59d3010	 ldr         r3, [sp, #0x10]
  001c4	e2832020	 add         r2, r3, #0x20
  001c8	e59d3014	 ldr         r3, [sp, #0x14]
  001cc	e5823000	 str         r3, [r2]

; 88   :     m_pDmaController = pDmaController;

  001d0	e59d3010	 ldr         r3, [sp, #0x10]
  001d4	e2832024	 add         r2, r3, #0x24
  001d8	e59d3018	 ldr         r3, [sp, #0x18]
  001dc	e5823000	 str         r3, [r2]

; 89   :     
; 90   : 
; 91   :     DEBUGMSG(ZONE_FUNCTION, (L"-DmaMediator::SetDmaController\r\n"));

  001e0	e59f3034	 ldr         r3, [pc, #0x34]
  001e4	e5933440	 ldr         r3, [r3, #0x440]
  001e8	e3130004	 tst         r3, #4
  001ec	0a000004	 beq         |$LN5@SetDmaCont|
  001f0	e59f0020	 ldr         r0, [pc, #0x20]
  001f4	eb000000	 bl          NKDbgPrintfW
  001f8	e3a03001	 mov         r3, #1
  001fc	e58d3004	 str         r3, [sp, #4]
  00200	ea000001	 b           |$LN6@SetDmaCont|
  00204		 |$LN5@SetDmaCont|
  00204	e3a03000	 mov         r3, #0
  00208	e58d3004	 str         r3, [sp, #4]
  0020c		 |$LN6@SetDmaCont|

; 92   : }

  0020c	e28dd008	 add         sp, sp, #8
  00210	e89d6000	 ldmia       sp, {sp, lr}
  00214	e12fff1e	 bx          lr
  00218		 |$LN10@SetDmaCont|
  00218		 |$LN11@SetDmaCont|
  00218	00000000	 DCD         |??_C@_1EC@NPCLNANB@?$AA?9?$AAD?$AAm?$AAa?$AAM?$AAe?$AAd?$AAi?$AAa?$AAt?$AAo?$AAr?$AA?3?$AA?3?$AAS?$AAe?$AAt?$AAD?$AAm?$AAa?$AAC?$AAo?$AAn?$AAt?$AAr?$AAo?$AAl?$AAl?$AAe?$AAr?$AA?$AN?$AA?6@|
  0021c		 |$LN12@SetDmaCont|
  0021c	00000000	 DCD         |dpCurSettings|
  00220		 |$LN13@SetDmaCont|
  00220	00000000	 DCD         |??_C@_1IM@HGGHHBPB@?$AA?$CL?$AAD?$AAm?$AAa?$AAM?$AAe?$AAd?$AAi?$AAa?$AAt?$AAo?$AAr?$AA?3?$AA?3?$AAS?$AAe?$AAt?$AAD?$AAm?$AAa?$AAC?$AAo?$AAn?$AAt?$AAr?$AAo?$AAl?$AAl?$AAe?$AAr?$AAc?$AAo@|
  00224		 |$M36272|

			 ENDP  ; |?SetDmaController@DmaMediator@@QAAXPAXPAVDmaControllerBase@@@Z|, DmaMediator::SetDmaController

	EXPORT	|?StopInterruptHandler@DmaMediator@@QAAXXZ| ; DmaMediator::StopInterruptHandler
	EXPORT	|??_C@_1FK@ODMOOMI@?$AA?9?$AAD?$AAm?$AAa?$AAM?$AAe?$AAd?$AAi?$AAa?$AAt?$AAo?$AAr?$AA?3?$AA?3?$AAS?$AAt?$AAa?$AAr?$AAt?$AAI?$AAn?$AAt?$AAe?$AAr?$AAr?$AAu?$AAp?$AAt?$AAH?$AAa?$AAn?$AAd@| [ DATA ] ; `string'
	EXPORT	|??_C@_1JI@GMMCMENH@?$AAE?$AAR?$AAR?$AAO?$AAR?$AA?3?$AA?5?$AAD?$AAm?$AAa?$AAM?$AAe?$AAd?$AAi?$AAa?$AAt?$AAo?$AAr?$AA?3?$AA?3?$AAS?$AAt?$AAa?$AAr?$AAt?$AAI?$AAn?$AAt?$AAe?$AAr?$AAr?$AAu@| [ DATA ] ; `string'
	EXPORT	|??_C@_1JA@OHBJPDND@?$AAE?$AAR?$AAR?$AAO?$AAR?$AA?3?$AA?5?$AAD?$AAm?$AAa?$AAM?$AAe?$AAd?$AAi?$AAa?$AAt?$AAo?$AAr?$AA?3?$AA?3?$AAS?$AAt?$AAa?$AAr?$AAt?$AAI?$AAn?$AAt?$AAe?$AAr?$AAr?$AAu@| [ DATA ] ; `string'
	EXPORT	|??_C@_1KM@BLPHLHAC@?$AAE?$AAR?$AAR?$AAO?$AAR?$AA?3?$AA?5?$AAD?$AAm?$AAa?$AAM?$AAe?$AAd?$AAi?$AAa?$AAt?$AAo?$AAr?$AA?3?$AA?3?$AAS?$AAt?$AAa?$AAr?$AAt?$AAI?$AAn?$AAt?$AAe?$AAr?$AAr?$AAu@| [ DATA ] ; `string'
	EXPORT	|??_C@_1JM@OMODNCLO@?$AAE?$AAR?$AAR?$AAO?$AAR?$AA?3?$AA?5?$AAD?$AAm?$AAa?$AAM?$AAe?$AAd?$AAi?$AAa?$AAt?$AAo?$AAr?$AA?3?$AA?3?$AAS?$AAt?$AAa?$AAr?$AAt?$AAI?$AAn?$AAt?$AAe?$AAr?$AAr?$AAu@| [ DATA ] ; `string'
	EXPORT	|??_C@_1IG@EAIBIPGK@?$AAE?$AAR?$AAR?$AAO?$AAR?$AA?3?$AA?5?$AAD?$AAm?$AAa?$AAM?$AAe?$AAd?$AAi?$AAa?$AAt?$AAo?$AAr?$AA?3?$AA?3?$AAS?$AAt?$AAa?$AAr?$AAt?$AAI?$AAn?$AAt?$AAe?$AAr?$AAr?$AAu@| [ DATA ] ; `string'
	EXPORT	|??_C@_1HG@NCIAIGGL@?$AA?$CL?$AAD?$AAm?$AAa?$AAM?$AAe?$AAd?$AAi?$AAa?$AAt?$AAo?$AAr?$AA?3?$AA?3?$AAS?$AAt?$AAa?$AAr?$AAt?$AAI?$AAn?$AAt?$AAe?$AAr?$AAr?$AAu?$AAp?$AAt?$AAH?$AAa?$AAn?$AAd@| [ DATA ] ; `string'
	EXPORT	|?StartInterruptHandler@DmaMediator@@QAAHKK@Z| ; DmaMediator::StartInterruptHandler
	IMPORT	|CeSetThreadPriority|
	IMPORT	|CreateThread|
	IMPORT	|InterruptInitialize|
	IMPORT	|CreateEventW|
	IMPORT	|KernelIoControl|

  00018			 AREA	 |.pdata|, PDATA
|$T36302| DCD	|$LN30@StartInter|
	DCD	0x4000c304

  00000			 AREA	 |.rdata|, DATA, READONLY
|??_C@_1FK@ODMOOMI@?$AA?9?$AAD?$AAm?$AAa?$AAM?$AAe?$AAd?$AAi?$AAa?$AAt?$AAo?$AAr?$AA?3?$AA?3?$AAS?$AAt?$AAa?$AAr?$AAt?$AAI?$AAn?$AAt?$AAe?$AAr?$AAr?$AAu?$AAp?$AAt?$AAH?$AAa?$AAn?$AAd@| DCB "-"
	DCB	0x0, "D", 0x0, "m", 0x0, "a", 0x0, "M", 0x0, "e", 0x0, "d"
	DCB	0x0, "i", 0x0, "a", 0x0, "t", 0x0, "o", 0x0, "r", 0x0, ":"
	DCB	0x0, ":", 0x0, "S", 0x0, "t", 0x0, "a", 0x0, "r", 0x0, "t"
	DCB	0x0, "I", 0x0, "n", 0x0, "t", 0x0, "e", 0x0, "r", 0x0, "r"
	DCB	0x0, "u", 0x0, "p", 0x0, "t", 0x0, "H", 0x0, "a", 0x0, "n"
	DCB	0x0, "d", 0x0, "l", 0x0, "e", 0x0, "r", 0x0, ":", 0x0, " "
	DCB	0x0, "r", 0x0, "c", 0x0, "=", 0x0, "%", 0x0, "d", 0x0, 0xd
	DCB	0x0, 0xa, 0x0, 0x0, 0x0			; `string'

  00000			 AREA	 |.rdata|, DATA, READONLY
|??_C@_1JI@GMMCMENH@?$AAE?$AAR?$AAR?$AAO?$AAR?$AA?3?$AA?5?$AAD?$AAm?$AAa?$AAM?$AAe?$AAd?$AAi?$AAa?$AAt?$AAo?$AAr?$AA?3?$AA?3?$AAS?$AAt?$AAa?$AAr?$AAt?$AAI?$AAn?$AAt?$AAe?$AAr?$AAr?$AAu@| DCB "E"
	DCB	0x0, "R", 0x0, "R", 0x0, "O", 0x0, "R", 0x0, ":", 0x0, " "
	DCB	0x0, "D", 0x0, "m", 0x0, "a", 0x0, "M", 0x0, "e", 0x0, "d"
	DCB	0x0, "i", 0x0, "a", 0x0, "t", 0x0, "o", 0x0, "r", 0x0, ":"
	DCB	0x0, ":", 0x0, "S", 0x0, "t", 0x0, "a", 0x0, "r", 0x0, "t"
	DCB	0x0, "I", 0x0, "n", 0x0, "t", 0x0, "e", 0x0, "r", 0x0, "r"
	DCB	0x0, "u", 0x0, "p", 0x0, "t", 0x0, "H", 0x0, "a", 0x0, "n"
	DCB	0x0, "d", 0x0, "l", 0x0, "e", 0x0, "r", 0x0, ":", 0x0, " "
	DCB	0x0, "F", 0x0, "a", 0x0, "i", 0x0, "l", 0x0, "e", 0x0, "d"
	DCB	0x0, " ", 0x0, "c", 0x0, "r", 0x0, "e", 0x0, "a", 0x0, "t"
	DCB	0x0, "e", 0x0, " ", 0x0, "i", 0x0, "n", 0x0, "t", 0x0, "e"
	DCB	0x0, "r", 0x0, "r", 0x0, "u", 0x0, "p", 0x0, "t", 0x0, " "
	DCB	0x0, "t", 0x0, "h", 0x0, "r", 0x0, "e", 0x0, "a", 0x0, "d"
	DCB	0x0, 0xd, 0x0, 0xa, 0x0, 0x0, 0x0	; `string'

  00000			 AREA	 |.rdata|, DATA, READONLY
|??_C@_1JA@OHBJPDND@?$AAE?$AAR?$AAR?$AAO?$AAR?$AA?3?$AA?5?$AAD?$AAm?$AAa?$AAM?$AAe?$AAd?$AAi?$AAa?$AAt?$AAo?$AAr?$AA?3?$AA?3?$AAS?$AAt?$AAa?$AAr?$AAt?$AAI?$AAn?$AAt?$AAe?$AAr?$AAr?$AAu@| DCB "E"
	DCB	0x0, "R", 0x0, "R", 0x0, "O", 0x0, "R", 0x0, ":", 0x0, " "
	DCB	0x0, "D", 0x0, "m", 0x0, "a", 0x0, "M", 0x0, "e", 0x0, "d"
	DCB	0x0, "i", 0x0, "a", 0x0, "t", 0x0, "o", 0x0, "r", 0x0, ":"
	DCB	0x0, ":", 0x0, "S", 0x0, "t", 0x0, "a", 0x0, "r", 0x0, "t"
	DCB	0x0, "I", 0x0, "n", 0x0, "t", 0x0, "e", 0x0, "r", 0x0, "r"
	DCB	0x0, "u", 0x0, "p", 0x0, "t", 0x0, "H", 0x0, "a", 0x0, "n"
	DCB	0x0, "d", 0x0, "l", 0x0, "e", 0x0, "r", 0x0, ":", 0x0, " "
	DCB	0x0, "I", 0x0, "n", 0x0, "t", 0x0, "e", 0x0, "r", 0x0, "r"
	DCB	0x0, "u", 0x0, "p", 0x0, "t", 0x0, "I", 0x0, "n", 0x0, "i"
	DCB	0x0, "t", 0x0, "i", 0x0, "a", 0x0, "l", 0x0, "i", 0x0, "z"
	DCB	0x0, "e", 0x0, " ", 0x0, "f", 0x0, "a", 0x0, "i", 0x0, "l"
	DCB	0x0, "e", 0x0, "d", 0x0, 0xd, 0x0, 0xa, 0x0, 0x0, 0x0 ; `string'

  00000			 AREA	 |.rdata|, DATA, READONLY
|??_C@_1KM@BLPHLHAC@?$AAE?$AAR?$AAR?$AAO?$AAR?$AA?3?$AA?5?$AAD?$AAm?$AAa?$AAM?$AAe?$AAd?$AAi?$AAa?$AAt?$AAo?$AAr?$AA?3?$AA?3?$AAS?$AAt?$AAa?$AAr?$AAt?$AAI?$AAn?$AAt?$AAe?$AAr?$AAr?$AAu@| DCB "E"
	DCB	0x0, "R", 0x0, "R", 0x0, "O", 0x0, "R", 0x0, ":", 0x0, " "
	DCB	0x0, "D", 0x0, "m", 0x0, "a", 0x0, "M", 0x0, "e", 0x0, "d"
	DCB	0x0, "i", 0x0, "a", 0x0, "t", 0x0, "o", 0x0, "r", 0x0, ":"
	DCB	0x0, ":", 0x0, "S", 0x0, "t", 0x0, "a", 0x0, "r", 0x0, "t"
	DCB	0x0, "I", 0x0, "n", 0x0, "t", 0x0, "e", 0x0, "r", 0x0, "r"
	DCB	0x0, "u", 0x0, "p", 0x0, "t", 0x0, "H", 0x0, "a", 0x0, "n"
	DCB	0x0, "d", 0x0, "l", 0x0, "e", 0x0, "r", 0x0, ":", 0x0, " "
	DCB	0x0, "F", 0x0, "a", 0x0, "i", 0x0, "l", 0x0, "e", 0x0, "d"
	DCB	0x0, " ", 0x0, "c", 0x0, "r", 0x0, "e", 0x0, "a", 0x0, "t"
	DCB	0x0, "e", 0x0, " ", 0x0, "e", 0x0, "v", 0x0, "e", 0x0, "n"
	DCB	0x0, "t", 0x0, " ", 0x0, "o", 0x0, "b", 0x0, "j", 0x0, "e"
	DCB	0x0, "c", 0x0, "t", 0x0, " ", 0x0, "f", 0x0, "o", 0x0, "r"
	DCB	0x0, " ", 0x0, "i", 0x0, "n", 0x0, "t", 0x0, "e", 0x0, "r"
	DCB	0x0, "r", 0x0, "u", 0x0, "p", 0x0, "t", 0x0, 0xd, 0x0, 0xa
	DCB	0x0, 0x0, 0x0				; `string'

  00000			 AREA	 |.rdata|, DATA, READONLY
|??_C@_1JM@OMODNCLO@?$AAE?$AAR?$AAR?$AAO?$AAR?$AA?3?$AA?5?$AAD?$AAm?$AAa?$AAM?$AAe?$AAd?$AAi?$AAa?$AAt?$AAo?$AAr?$AA?3?$AA?3?$AAS?$AAt?$AAa?$AAr?$AAt?$AAI?$AAn?$AAt?$AAe?$AAr?$AAr?$AAu@| DCB "E"
	DCB	0x0, "R", 0x0, "R", 0x0, "O", 0x0, "R", 0x0, ":", 0x0, " "
	DCB	0x0, "D", 0x0, "m", 0x0, "a", 0x0, "M", 0x0, "e", 0x0, "d"
	DCB	0x0, "i", 0x0, "a", 0x0, "t", 0x0, "o", 0x0, "r", 0x0, ":"
	DCB	0x0, ":", 0x0, "S", 0x0, "t", 0x0, "a", 0x0, "r", 0x0, "t"
	DCB	0x0, "I", 0x0, "n", 0x0, "t", 0x0, "e", 0x0, "r", 0x0, "r"
	DCB	0x0, "u", 0x0, "p", 0x0, "t", 0x0, "H", 0x0, "a", 0x0, "n"
	DCB	0x0, "d", 0x0, "l", 0x0, "e", 0x0, "r", 0x0, ":", 0x0, " "
	DCB	0x0, "F", 0x0, "a", 0x0, "i", 0x0, "l", 0x0, "e", 0x0, "d"
	DCB	0x0, " ", 0x0, "m", 0x0, "a", 0x0, "p", 0x0, " ", 0x0, "D"
	DCB	0x0, "M", 0x0, "A", 0x0, " ", 0x0, "i", 0x0, "n", 0x0, "t"
	DCB	0x0, "e", 0x0, "r", 0x0, "r", 0x0, "u", 0x0, "p", 0x0, "t"
	DCB	0x0, "(", 0x0, "i", 0x0, "r", 0x0, "q", 0x0, "=", 0x0, "%"
	DCB	0x0, "d", 0x0, ")", 0x0, 0xd, 0x0, 0xa, 0x0, 0x0, 0x0 ; `string'

  00000			 AREA	 |.rdata|, DATA, READONLY
|??_C@_1IG@EAIBIPGK@?$AAE?$AAR?$AAR?$AAO?$AAR?$AA?3?$AA?5?$AAD?$AAm?$AAa?$AAM?$AAe?$AAd?$AAi?$AAa?$AAt?$AAo?$AAr?$AA?3?$AA?3?$AAS?$AAt?$AAa?$AAr?$AAt?$AAI?$AAn?$AAt?$AAe?$AAr?$AAr?$AAu@| DCB "E"
	DCB	0x0, "R", 0x0, "R", 0x0, "O", 0x0, "R", 0x0, ":", 0x0, " "
	DCB	0x0, "D", 0x0, "m", 0x0, "a", 0x0, "M", 0x0, "e", 0x0, "d"
	DCB	0x0, "i", 0x0, "a", 0x0, "t", 0x0, "o", 0x0, "r", 0x0, ":"
	DCB	0x0, ":", 0x0, "S", 0x0, "t", 0x0, "a", 0x0, "r", 0x0, "t"
	DCB	0x0, "I", 0x0, "n", 0x0, "t", 0x0, "e", 0x0, "r", 0x0, "r"
	DCB	0x0, "u", 0x0, "p", 0x0, "t", 0x0, "H", 0x0, "a", 0x0, "n"
	DCB	0x0, "d", 0x0, "l", 0x0, "e", 0x0, "r", 0x0, ":", 0x0, " "
	DCB	0x0, "D", 0x0, "m", 0x0, "a", 0x0, "C", 0x0, "o", 0x0, "n"
	DCB	0x0, "t", 0x0, "r", 0x0, "o", 0x0, "l", 0x0, "l", 0x0, "e"
	DCB	0x0, "r", 0x0, " ", 0x0, "n", 0x0, "o", 0x0, "t", 0x0, " "
	DCB	0x0, "s", 0x0, "e", 0x0, "t", 0x0, 0xd, 0x0, 0xa, 0x0, 0x0
	DCB	0x0					; `string'

  00000			 AREA	 |.rdata|, DATA, READONLY
|??_C@_1HG@NCIAIGGL@?$AA?$CL?$AAD?$AAm?$AAa?$AAM?$AAe?$AAd?$AAi?$AAa?$AAt?$AAo?$AAr?$AA?3?$AA?3?$AAS?$AAt?$AAa?$AAr?$AAt?$AAI?$AAn?$AAt?$AAe?$AAr?$AAr?$AAu?$AAp?$AAt?$AAH?$AAa?$AAn?$AAd@| DCB "+"
	DCB	0x0, "D", 0x0, "m", 0x0, "a", 0x0, "M", 0x0, "e", 0x0, "d"
	DCB	0x0, "i", 0x0, "a", 0x0, "t", 0x0, "o", 0x0, "r", 0x0, ":"
	DCB	0x0, ":", 0x0, "S", 0x0, "t", 0x0, "a", 0x0, "r", 0x0, "t"
	DCB	0x0, "I", 0x0, "n", 0x0, "t", 0x0, "e", 0x0, "r", 0x0, "r"
	DCB	0x0, "u", 0x0, "p", 0x0, "t", 0x0, "H", 0x0, "a", 0x0, "n"
	DCB	0x0, "d", 0x0, "l", 0x0, "e", 0x0, "r", 0x0, ":", 0x0, " "
	DCB	0x0, "i", 0x0, "r", 0x0, "q", 0x0, "=", 0x0, "%", 0x0, "d"
	DCB	0x0, ",", 0x0, " ", 0x0, "p", 0x0, "r", 0x0, "i", 0x0, "o"
	DCB	0x0, "r", 0x0, "i", 0x0, "t", 0x0, "y", 0x0, "=", 0x0, "%"
	DCB	0x0, "d", 0x0, 0xd, 0x0, 0xa, 0x0, 0x0, 0x0 ; `string'
; Function compile flags: /Odtp

  00224			 AREA	 |.text|, CODE, ARM

  00224		 |?StartInterruptHandler@DmaMediator@@QAAHKK@Z| PROC ; DmaMediator::StartInterruptHandler

; 101  : {

  00224		 |$LN30@StartInter|
  00224	e1a0c00d	 mov         r12, sp
  00228	e92d000f	 stmdb       sp!, {r0 - r3}
  0022c	e92d5000	 stmdb       sp!, {r12, lr}
  00230	e24dd04c	 sub         sp, sp, #0x4C
  00234		 |$M36299|

; 102  :     DEBUGMSG(ZONE_FUNCTION, (L"+DmaMediator::StartInterruptHandler: "
; 103  :         L"irq=%d, priority=%d\r\n",
; 104  :         irq, priority
; 105  :         ));

  00234	e59f32d0	 ldr         r3, [pc, #0x2D0]
  00238	e5933440	 ldr         r3, [r3, #0x440]
  0023c	e3130004	 tst         r3, #4
  00240	0a000006	 beq         |$LN14@StartInter|
  00244	e59d205c	 ldr         r2, [sp, #0x5C]
  00248	e59d1058	 ldr         r1, [sp, #0x58]
  0024c	e59f02d8	 ldr         r0, [pc, #0x2D8]
  00250	eb000000	 bl          NKDbgPrintfW
  00254	e3a03001	 mov         r3, #1
  00258	e58d3020	 str         r3, [sp, #0x20]
  0025c	ea000001	 b           |$LN15@StartInter|
  00260		 |$LN14@StartInter|
  00260	e3a03000	 mov         r3, #0
  00264	e58d3020	 str         r3, [sp, #0x20]
  00268		 |$LN15@StartInter|

; 106  : 
; 107  :     BOOL rc = FALSE;

  00268	e3a03000	 mov         r3, #0
  0026c	e58d3008	 str         r3, [sp, #8]

; 108  : 
; 109  :     // make sure we have a way of getting cause of interrupt
; 110  :     if (m_pDmaController == NULL)

  00270	e59d3054	 ldr         r3, [sp, #0x54]
  00274	e2833024	 add         r3, r3, #0x24
  00278	e5933000	 ldr         r3, [r3]
  0027c	e3530000	 cmp         r3, #0
  00280	1a00000c	 bne         |$LN11@StartInter|

; 111  :         {
; 112  :         DEBUGMSG(ZONE_ERROR, (L"ERROR: DmaMediator::StartInterruptHandler: "
; 113  :             L"DmaController not set\r\n"
; 114  :             ));

  00284	e59f3280	 ldr         r3, [pc, #0x280]
  00288	e5933440	 ldr         r3, [r3, #0x440]
  0028c	e3130001	 tst         r3, #1
  00290	0a000004	 beq         |$LN16@StartInter|
  00294	e59f028c	 ldr         r0, [pc, #0x28C]
  00298	eb000000	 bl          NKDbgPrintfW
  0029c	e3a03001	 mov         r3, #1
  002a0	e58d3024	 str         r3, [sp, #0x24]
  002a4	ea000001	 b           |$LN17@StartInter|
  002a8		 |$LN16@StartInter|
  002a8	e3a03000	 mov         r3, #0
  002ac	e58d3024	 str         r3, [sp, #0x24]
  002b0		 |$LN17@StartInter|

; 115  :         goto cleanUp;

  002b0	ea00007d	 b           |$LN10@StartInter|
  002b4	ea00007c	 b           |$cleanUp$36029|
  002b8		 |$LN11@StartInter|

; 116  :         }
; 117  :     
; 118  :     // get system interrupt for irq
; 119  :     if (!KernelIoControl(IOCTL_HAL_REQUEST_SYSINTR, &irq, 
; 120  :             sizeof(irq), &m_sysIntr, sizeof(m_sysIntr), 
; 121  :             NULL)) 

  002b8	e3a03000	 mov         r3, #0
  002bc	e58d3004	 str         r3, [sp, #4]
  002c0	e3a03004	 mov         r3, #4
  002c4	e58d3000	 str         r3, [sp]
  002c8	e59d3054	 ldr         r3, [sp, #0x54]
  002cc	e2833010	 add         r3, r3, #0x10
  002d0	e3a02004	 mov         r2, #4
  002d4	e28d1058	 add         r1, sp, #0x58
  002d8	e59f0244	 ldr         r0, [pc, #0x244]
  002dc	eb000000	 bl          KernelIoControl
  002e0	e58d0028	 str         r0, [sp, #0x28]
  002e4	e59d3028	 ldr         r3, [sp, #0x28]
  002e8	e3530000	 cmp         r3, #0
  002ec	1a00000d	 bne         |$LN9@StartInter|

; 122  :         {
; 123  :         DEBUGMSG(ZONE_WARN, (L"ERROR: DmaMediator::StartInterruptHandler: "
; 124  :             L"Failed map DMA interrupt(irq=%d)\r\n", irq
; 125  :             ));

  002f0	e59f3214	 ldr         r3, [pc, #0x214]
  002f4	e5933440	 ldr         r3, [r3, #0x440]
  002f8	e3130002	 tst         r3, #2
  002fc	0a000005	 beq         |$LN18@StartInter|
  00300	e59d1058	 ldr         r1, [sp, #0x58]
  00304	e59f0214	 ldr         r0, [pc, #0x214]
  00308	eb000000	 bl          NKDbgPrintfW
  0030c	e3a03001	 mov         r3, #1
  00310	e58d302c	 str         r3, [sp, #0x2C]
  00314	ea000001	 b           |$LN19@StartInter|
  00318		 |$LN18@StartInter|
  00318	e3a03000	 mov         r3, #0
  0031c	e58d302c	 str         r3, [sp, #0x2C]
  00320		 |$LN19@StartInter|

; 126  :         goto cleanUp;

  00320	ea000061	 b           |$LN8@StartInter|
  00324	ea000060	 b           |$cleanUp$36029|
  00328		 |$LN9@StartInter|

; 127  :         }
; 128  : 
; 129  :     // create thread event handle
; 130  :     m_hEvent = CreateEvent(NULL, FALSE, FALSE, NULL);

  00328	e3a03000	 mov         r3, #0
  0032c	e3a02000	 mov         r2, #0
  00330	e3a01000	 mov         r1, #0
  00334	e3a00000	 mov         r0, #0
  00338	eb000000	 bl          CreateEventW
  0033c	e58d0030	 str         r0, [sp, #0x30]
  00340	e59d3054	 ldr         r3, [sp, #0x54]
  00344	e283200c	 add         r2, r3, #0xC
  00348	e59d3030	 ldr         r3, [sp, #0x30]
  0034c	e5823000	 str         r3, [r2]

; 131  :     if (m_hEvent == NULL) 

  00350	e59d3054	 ldr         r3, [sp, #0x54]
  00354	e283300c	 add         r3, r3, #0xC
  00358	e5933000	 ldr         r3, [r3]
  0035c	e3530000	 cmp         r3, #0
  00360	1a00000c	 bne         |$LN7@StartInter|

; 132  :         {
; 133  :         DEBUGMSG(ZONE_WARN, (L"ERROR: DmaMediator::StartInterruptHandler: "
; 134  :             L"Failed create event object for interrupt\r\n"
; 135  :             ));

  00364	e59f31a0	 ldr         r3, [pc, #0x1A0]
  00368	e5933440	 ldr         r3, [r3, #0x440]
  0036c	e3130002	 tst         r3, #2
  00370	0a000004	 beq         |$LN20@StartInter|
  00374	e59f01a0	 ldr         r0, [pc, #0x1A0]
  00378	eb000000	 bl          NKDbgPrintfW
  0037c	e3a03001	 mov         r3, #1
  00380	e58d3034	 str         r3, [sp, #0x34]
  00384	ea000001	 b           |$LN21@StartInter|
  00388		 |$LN20@StartInter|
  00388	e3a03000	 mov         r3, #0
  0038c	e58d3034	 str         r3, [sp, #0x34]
  00390		 |$LN21@StartInter|

; 136  :         goto cleanUp;

  00390	ea000045	 b           |$LN6@StartInter|
  00394	ea000044	 b           |$cleanUp$36029|
  00398		 |$LN7@StartInter|

; 137  :         }
; 138  : 
; 139  :     // register event handle with system interrupt
; 140  :     if (!InterruptInitialize(m_sysIntr, m_hEvent, NULL, 0)) 

  00398	e3a03000	 mov         r3, #0
  0039c	e3a02000	 mov         r2, #0
  003a0	e59d1054	 ldr         r1, [sp, #0x54]
  003a4	e281100c	 add         r1, r1, #0xC
  003a8	e5911000	 ldr         r1, [r1]
  003ac	e59d0054	 ldr         r0, [sp, #0x54]
  003b0	e2800010	 add         r0, r0, #0x10
  003b4	e5900000	 ldr         r0, [r0]
  003b8	eb000000	 bl          InterruptInitialize
  003bc	e58d0038	 str         r0, [sp, #0x38]
  003c0	e59d3038	 ldr         r3, [sp, #0x38]
  003c4	e3530000	 cmp         r3, #0
  003c8	1a00000c	 bne         |$LN5@StartInter|

; 141  :         {
; 142  :         DEBUGMSG(ZONE_WARN, (L"ERROR: DmaMediator::StartInterruptHandler: "
; 143  :             L"InterruptInitialize failed\r\n"
; 144  :             ));

  003cc	e59f3138	 ldr         r3, [pc, #0x138]
  003d0	e5933440	 ldr         r3, [r3, #0x440]
  003d4	e3130002	 tst         r3, #2
  003d8	0a000004	 beq         |$LN22@StartInter|
  003dc	e59f0134	 ldr         r0, [pc, #0x134]
  003e0	eb000000	 bl          NKDbgPrintfW
  003e4	e3a03001	 mov         r3, #1
  003e8	e58d303c	 str         r3, [sp, #0x3C]
  003ec	ea000001	 b           |$LN23@StartInter|
  003f0		 |$LN22@StartInter|
  003f0	e3a03000	 mov         r3, #0
  003f4	e58d303c	 str         r3, [sp, #0x3C]
  003f8		 |$LN23@StartInter|

; 145  :         goto cleanUp;

  003f8	ea00002b	 b           |$LN4@StartInter|
  003fc	ea00002a	 b           |$cleanUp$36029|
  00400		 |$LN5@StartInter|

; 146  :         }
; 147  : 
; 148  :     // spawn thread
; 149  :     m_bExit = FALSE;

  00400	e59d3054	 ldr         r3, [sp, #0x54]
  00404	e2832004	 add         r2, r3, #4
  00408	e3a03000	 mov         r3, #0
  0040c	e5823000	 str         r3, [r2]

; 150  :     m_hIST = CreateThread(NULL, 0, InterruptHandler, this, 0, NULL);

  00410	e3a03000	 mov         r3, #0
  00414	e58d3004	 str         r3, [sp, #4]
  00418	e3a03000	 mov         r3, #0
  0041c	e58d3000	 str         r3, [sp]
  00420	e59d3054	 ldr         r3, [sp, #0x54]
  00424	e59f20e8	 ldr         r2, [pc, #0xE8]
  00428	e3a01000	 mov         r1, #0
  0042c	e3a00000	 mov         r0, #0
  00430	eb000000	 bl          CreateThread
  00434	e58d0040	 str         r0, [sp, #0x40]
  00438	e59d3054	 ldr         r3, [sp, #0x54]
  0043c	e2832008	 add         r2, r3, #8
  00440	e59d3040	 ldr         r3, [sp, #0x40]
  00444	e5823000	 str         r3, [r2]

; 151  :     if (!m_hIST)

  00448	e59d3054	 ldr         r3, [sp, #0x54]
  0044c	e2833008	 add         r3, r3, #8
  00450	e5933000	 ldr         r3, [r3]
  00454	e3530000	 cmp         r3, #0
  00458	1a00000c	 bne         |$LN3@StartInter|

; 152  :         {
; 153  :         DEBUGMSG(ZONE_WARN, (L"ERROR: DmaMediator::StartInterruptHandler: "
; 154  :             L"Failed create interrupt thread\r\n"
; 155  :             ));

  0045c	e59f30a8	 ldr         r3, [pc, #0xA8]
  00460	e5933440	 ldr         r3, [r3, #0x440]
  00464	e3130002	 tst         r3, #2
  00468	0a000004	 beq         |$LN24@StartInter|
  0046c	e59f009c	 ldr         r0, [pc, #0x9C]
  00470	eb000000	 bl          NKDbgPrintfW
  00474	e3a03001	 mov         r3, #1
  00478	e58d3044	 str         r3, [sp, #0x44]
  0047c	ea000001	 b           |$LN25@StartInter|
  00480		 |$LN24@StartInter|
  00480	e3a03000	 mov         r3, #0
  00484	e58d3044	 str         r3, [sp, #0x44]
  00488		 |$LN25@StartInter|

; 156  :         goto cleanUp;

  00488	ea000007	 b           |$LN2@StartInter|
  0048c	ea000006	 b           |$cleanUp$36029|
  00490		 |$LN3@StartInter|

; 157  :         }
; 158  : 
; 159  :     // set thread priority
; 160  :     CeSetThreadPriority(m_hIST, priority);

  00490	e59d105c	 ldr         r1, [sp, #0x5C]
  00494	e59d3054	 ldr         r3, [sp, #0x54]
  00498	e2833008	 add         r3, r3, #8
  0049c	e5930000	 ldr         r0, [r3]
  004a0	eb000000	 bl          CeSetThreadPriority

; 161  : 
; 162  :     rc = TRUE;

  004a4	e3a03001	 mov         r3, #1
  004a8	e58d3008	 str         r3, [sp, #8]
  004ac		 |$LN2@StartInter|
  004ac		 |$LN4@StartInter|
  004ac		 |$LN6@StartInter|
  004ac		 |$LN8@StartInter|
  004ac		 |$LN10@StartInter|
  004ac		 |$cleanUp$36029|

; 163  :     
; 164  : cleanUp:
; 165  :     DEBUGMSG(ZONE_FUNCTION, (L"-DmaMediator::StartInterruptHandler: "
; 166  :         L"rc=%d\r\n", rc
; 167  :         ));

  004ac	e59f3058	 ldr         r3, [pc, #0x58]
  004b0	e5933440	 ldr         r3, [r3, #0x440]
  004b4	e3130004	 tst         r3, #4
  004b8	0a000005	 beq         |$LN26@StartInter|
  004bc	e59d1008	 ldr         r1, [sp, #8]
  004c0	e59f0040	 ldr         r0, [pc, #0x40]
  004c4	eb000000	 bl          NKDbgPrintfW
  004c8	e3a03001	 mov         r3, #1
  004cc	e58d3048	 str         r3, [sp, #0x48]
  004d0	ea000001	 b           |$LN27@StartInter|
  004d4		 |$LN26@StartInter|
  004d4	e3a03000	 mov         r3, #0
  004d8	e58d3048	 str         r3, [sp, #0x48]
  004dc		 |$LN27@StartInter|

; 168  :     if (rc == FALSE) StopInterruptHandler();

  004dc	e59d3008	 ldr         r3, [sp, #8]
  004e0	e3530000	 cmp         r3, #0
  004e4	1a000001	 bne         |$LN1@StartInter|
  004e8	e59d0054	 ldr         r0, [sp, #0x54]
  004ec	eb000000	 bl          |?StopInterruptHandler@DmaMediator@@QAAXXZ|
  004f0		 |$LN1@StartInter|

; 169  :     
; 170  :     return rc;

  004f0	e59d3008	 ldr         r3, [sp, #8]
  004f4	e58d301c	 str         r3, [sp, #0x1C]

; 171  : }

  004f8	e59d001c	 ldr         r0, [sp, #0x1C]
  004fc	e28dd04c	 add         sp, sp, #0x4C
  00500	e89d6000	 ldmia       sp, {sp, lr}
  00504	e12fff1e	 bx          lr
  00508		 |$LN31@StartInter|
  00508		 |$LN32@StartInter|
  00508	00000000	 DCD         |??_C@_1FK@ODMOOMI@?$AA?9?$AAD?$AAm?$AAa?$AAM?$AAe?$AAd?$AAi?$AAa?$AAt?$AAo?$AAr?$AA?3?$AA?3?$AAS?$AAt?$AAa?$AAr?$AAt?$AAI?$AAn?$AAt?$AAe?$AAr?$AAr?$AAu?$AAp?$AAt?$AAH?$AAa?$AAn?$AAd@|
  0050c		 |$LN33@StartInter|
  0050c	00000000	 DCD         |dpCurSettings|
  00510		 |$LN34@StartInter|
  00510	00000000	 DCD         |??_C@_1JI@GMMCMENH@?$AAE?$AAR?$AAR?$AAO?$AAR?$AA?3?$AA?5?$AAD?$AAm?$AAa?$AAM?$AAe?$AAd?$AAi?$AAa?$AAt?$AAo?$AAr?$AA?3?$AA?3?$AAS?$AAt?$AAa?$AAr?$AAt?$AAI?$AAn?$AAt?$AAe?$AAr?$AAr?$AAu@|
  00514		 |$LN35@StartInter|
  00514	00000000	 DCD         |?InterruptHandler@DmaMediator@@KAKPAX@Z|
  00518		 |$LN36@StartInter|
  00518	00000000	 DCD         |??_C@_1JA@OHBJPDND@?$AAE?$AAR?$AAR?$AAO?$AAR?$AA?3?$AA?5?$AAD?$AAm?$AAa?$AAM?$AAe?$AAd?$AAi?$AAa?$AAt?$AAo?$AAr?$AA?3?$AA?3?$AAS?$AAt?$AAa?$AAr?$AAt?$AAI?$AAn?$AAt?$AAe?$AAr?$AAr?$AAu@|
  0051c		 |$LN37@StartInter|
  0051c	00000000	 DCD         |??_C@_1KM@BLPHLHAC@?$AAE?$AAR?$AAR?$AAO?$AAR?$AA?3?$AA?5?$AAD?$AAm?$AAa?$AAM?$AAe?$AAd?$AAi?$AAa?$AAt?$AAo?$AAr?$AA?3?$AA?3?$AAS?$AAt?$AAa?$AAr?$AAt?$AAI?$AAn?$AAt?$AAe?$AAr?$AAr?$AAu@|
  00520		 |$LN38@StartInter|
  00520	00000000	 DCD         |??_C@_1JM@OMODNCLO@?$AAE?$AAR?$AAR?$AAO?$AAR?$AA?3?$AA?5?$AAD?$AAm?$AAa?$AAM?$AAe?$AAd?$AAi?$AAa?$AAt?$AAo?$AAr?$AA?3?$AA?3?$AAS?$AAt?$AAa?$AAr?$AAt?$AAI?$AAn?$AAt?$AAe?$AAr?$AAr?$AAu@|
  00524		 |$LN39@StartInter|
  00524	01010098	 DCD         0x1010098
  00528		 |$LN40@StartInter|
  00528	00000000	 DCD         |??_C@_1IG@EAIBIPGK@?$AAE?$AAR?$AAR?$AAO?$AAR?$AA?3?$AA?5?$AAD?$AAm?$AAa?$AAM?$AAe?$AAd?$AAi?$AAa?$AAt?$AAo?$AAr?$AA?3?$AA?3?$AAS?$AAt?$AAa?$AAr?$AAt?$AAI?$AAn?$AAt?$AAe?$AAr?$AAr?$AAu@|
  0052c		 |$LN41@StartInter|
  0052c	00000000	 DCD         |??_C@_1HG@NCIAIGGL@?$AA?$CL?$AAD?$AAm?$AAa?$AAM?$AAe?$AAd?$AAi?$AAa?$AAt?$AAo?$AAr?$AA?3?$AA?3?$AAS?$AAt?$AAa?$AAr?$AAt?$AAI?$AAn?$AAt?$AAe?$AAr?$AAr?$AAu?$AAp?$AAt?$AAH?$AAa?$AAn?$AAd@|
  00530		 |$M36300|

			 ENDP  ; |?StartInterruptHandler@DmaMediator@@QAAHKK@Z|, DmaMediator::StartInterruptHandler

	EXPORT	|??_C@_1EK@ECJBDBKC@?$AA?9?$AAD?$AAm?$AAa?$AAM?$AAe?$AAd?$AAi?$AAa?$AAt?$AAo?$AAr?$AA?3?$AA?3?$AAS?$AAt?$AAo?$AAp?$AAI?$AAn?$AAt?$AAe?$AAr?$AAr?$AAu?$AAp?$AAt?$AAH?$AAa?$AAn?$AAd?$AAl@| [ DATA ] ; `string'
	EXPORT	|SetEvent|
	EXPORT	|??_C@_1EK@HMKCHMLL@?$AA?$CL?$AAD?$AAm?$AAa?$AAM?$AAe?$AAd?$AAi?$AAa?$AAt?$AAo?$AAr?$AA?3?$AA?3?$AAS?$AAt?$AAo?$AAp?$AAI?$AAn?$AAt?$AAe?$AAr?$AAr?$AAu?$AAp?$AAt?$AAH?$AAa?$AAn?$AAd?$AAl@| [ DATA ] ; `string'
	IMPORT	|InterruptDisable|
	IMPORT	|CloseHandle|

  00020			 AREA	 |.pdata|, PDATA
|$T36324| DCD	|$LN12@StopInterr|
	DCD	0x40005f04

  00000			 AREA	 |.rdata|, DATA, READONLY
|??_C@_1EK@ECJBDBKC@?$AA?9?$AAD?$AAm?$AAa?$AAM?$AAe?$AAd?$AAi?$AAa?$AAt?$AAo?$AAr?$AA?3?$AA?3?$AAS?$AAt?$AAo?$AAp?$AAI?$AAn?$AAt?$AAe?$AAr?$AAr?$AAu?$AAp?$AAt?$AAH?$AAa?$AAn?$AAd?$AAl@| DCB "-"
	DCB	0x0, "D", 0x0, "m", 0x0, "a", 0x0, "M", 0x0, "e", 0x0, "d"
	DCB	0x0, "i", 0x0, "a", 0x0, "t", 0x0, "o", 0x0, "r", 0x0, ":"
	DCB	0x0, ":", 0x0, "S", 0x0, "t", 0x0, "o", 0x0, "p", 0x0, "I"
	DCB	0x0, "n", 0x0, "t", 0x0, "e", 0x0, "r", 0x0, "r", 0x0, "u"
	DCB	0x0, "p", 0x0, "t", 0x0, "H", 0x0, "a", 0x0, "n", 0x0, "d"
	DCB	0x0, "l", 0x0, "e", 0x0, "r", 0x0, 0xd, 0x0, 0xa, 0x0, 0x0
	DCB	0x0					; `string'

  00000			 AREA	 |.rdata|, DATA, READONLY
|??_C@_1EK@HMKCHMLL@?$AA?$CL?$AAD?$AAm?$AAa?$AAM?$AAe?$AAd?$AAi?$AAa?$AAt?$AAo?$AAr?$AA?3?$AA?3?$AAS?$AAt?$AAo?$AAp?$AAI?$AAn?$AAt?$AAe?$AAr?$AAr?$AAu?$AAp?$AAt?$AAH?$AAa?$AAn?$AAd?$AAl@| DCB "+"
	DCB	0x0, "D", 0x0, "m", 0x0, "a", 0x0, "M", 0x0, "e", 0x0, "d"
	DCB	0x0, "i", 0x0, "a", 0x0, "t", 0x0, "o", 0x0, "r", 0x0, ":"
	DCB	0x0, ":", 0x0, "S", 0x0, "t", 0x0, "o", 0x0, "p", 0x0, "I"
	DCB	0x0, "n", 0x0, "t", 0x0, "e", 0x0, "r", 0x0, "r", 0x0, "u"
	DCB	0x0, "p", 0x0, "t", 0x0, "H", 0x0, "a", 0x0, "n", 0x0, "d"
	DCB	0x0, "l", 0x0, "e", 0x0, "r", 0x0, 0xd, 0x0, 0xa, 0x0, 0x0
	DCB	0x0					; `string'
; Function compile flags: /Odtp

  00530			 AREA	 |.text|, CODE, ARM

  00530		 |?StopInterruptHandler@DmaMediator@@QAAXXZ| PROC ; DmaMediator::StopInterruptHandler

; 177  : {

  00530		 |$LN12@StopInterr|
  00530	e1a0c00d	 mov         r12, sp
  00534	e92d0001	 stmdb       sp!, {r0}
  00538	e92d5000	 stmdb       sp!, {r12, lr}
  0053c	e24dd018	 sub         sp, sp, #0x18
  00540		 |$M36321|

; 178  :     DEBUGMSG(ZONE_FUNCTION, (L"+DmaMediator::StopInterruptHandler\r\n"));

  00540	e59f3158	 ldr         r3, [pc, #0x158]
  00544	e5933440	 ldr         r3, [r3, #0x440]
  00548	e3130004	 tst         r3, #4
  0054c	0a000004	 beq         |$LN6@StopInterr|
  00550	e59f0150	 ldr         r0, [pc, #0x150]
  00554	eb000000	 bl          NKDbgPrintfW
  00558	e3a03001	 mov         r3, #1
  0055c	e58d3010	 str         r3, [sp, #0x10]
  00560	ea000001	 b           |$LN7@StopInterr|
  00564		 |$LN6@StopInterr|
  00564	e3a03000	 mov         r3, #0
  00568	e58d3010	 str         r3, [sp, #0x10]
  0056c		 |$LN7@StopInterr|

; 179  : 
; 180  :     // stop thread
; 181  :     if (m_hEvent != NULL)

  0056c	e59d3020	 ldr         r3, [sp, #0x20]
  00570	e283300c	 add         r3, r3, #0xC
  00574	e5933000	 ldr         r3, [r3]
  00578	e3530000	 cmp         r3, #0
  0057c	0a000021	 beq         |$LN3@StopInterr|

; 182  :         {
; 183  :         if (m_hIST != NULL)

  00580	e59d3020	 ldr         r3, [sp, #0x20]
  00584	e2833008	 add         r3, r3, #8
  00588	e5933000	 ldr         r3, [r3]
  0058c	e3530000	 cmp         r3, #0
  00590	0a000014	 beq         |$LN2@StopInterr|

; 184  :             {
; 185  :             // Signal stop to thread
; 186  :             m_bExit = TRUE;

  00594	e59d3020	 ldr         r3, [sp, #0x20]
  00598	e2832004	 add         r2, r3, #4
  0059c	e3a03001	 mov         r3, #1
  005a0	e5823000	 str         r3, [r2]

; 187  :             
; 188  :             // Set event to wake it
; 189  :             SetEvent(m_hEvent);

  005a4	e59d3020	 ldr         r3, [sp, #0x20]
  005a8	e283300c	 add         r3, r3, #0xC
  005ac	e5930000	 ldr         r0, [r3]
  005b0	eb000000	 bl          SetEvent

; 190  :             
; 191  :             // Wait until thread exits
; 192  :             WaitForSingleObject(m_hIST, INFINITE);

  005b4	e3e01000	 mvn         r1, #0
  005b8	e59d3020	 ldr         r3, [sp, #0x20]
  005bc	e2833008	 add         r3, r3, #8
  005c0	e5930000	 ldr         r0, [r3]
  005c4	eb000000	 bl          WaitForSingleObject

; 193  :             
; 194  :             // Close handle
; 195  :             CloseHandle(m_hIST);

  005c8	e59d3020	 ldr         r3, [sp, #0x20]
  005cc	e2833008	 add         r3, r3, #8
  005d0	e5930000	 ldr         r0, [r3]
  005d4	eb000000	 bl          CloseHandle

; 196  : 
; 197  :             // reinit
; 198  :             m_hIST = NULL;

  005d8	e59d3020	 ldr         r3, [sp, #0x20]
  005dc	e2832008	 add         r2, r3, #8
  005e0	e3a03000	 mov         r3, #0
  005e4	e5823000	 str         r3, [r2]
  005e8		 |$LN2@StopInterr|

; 199  :             }
; 200  : 
; 201  :         // close event handle
; 202  :         CloseHandle(m_hEvent);

  005e8	e59d3020	 ldr         r3, [sp, #0x20]
  005ec	e283300c	 add         r3, r3, #0xC
  005f0	e5930000	 ldr         r0, [r3]
  005f4	eb000000	 bl          CloseHandle

; 203  :         m_hEvent = NULL;

  005f8	e59d3020	 ldr         r3, [sp, #0x20]
  005fc	e283200c	 add         r2, r3, #0xC
  00600	e3a03000	 mov         r3, #0
  00604	e5823000	 str         r3, [r2]
  00608		 |$LN3@StopInterr|

; 204  :         }
; 205  : 
; 206  :     // unregister system interrupt
; 207  :     if (m_sysIntr != 0)

  00608	e59d3020	 ldr         r3, [sp, #0x20]
  0060c	e2833010	 add         r3, r3, #0x10
  00610	e5933000	 ldr         r3, [r3]
  00614	e3530000	 cmp         r3, #0
  00618	0a000011	 beq         |$LN1@StopInterr|

; 208  :         {
; 209  :         InterruptDisable(m_sysIntr);

  0061c	e59d3020	 ldr         r3, [sp, #0x20]
  00620	e2833010	 add         r3, r3, #0x10
  00624	e5930000	 ldr         r0, [r3]
  00628	eb000000	 bl          InterruptDisable

; 210  :         KernelIoControl(
; 211  :             IOCTL_HAL_RELEASE_SYSINTR, &m_sysIntr,
; 212  :             sizeof(m_sysIntr), NULL, 0, NULL
; 213  :             );

  0062c	e3a03000	 mov         r3, #0
  00630	e58d3004	 str         r3, [sp, #4]
  00634	e3a03000	 mov         r3, #0
  00638	e58d3000	 str         r3, [sp]
  0063c	e3a03000	 mov         r3, #0
  00640	e3a02004	 mov         r2, #4
  00644	e59d1020	 ldr         r1, [sp, #0x20]
  00648	e2811010	 add         r1, r1, #0x10
  0064c	e59f0050	 ldr         r0, [pc, #0x50]
  00650	eb000000	 bl          KernelIoControl

; 214  : 
; 215  :         // reinit
; 216  :         m_sysIntr = 0;

  00654	e59d3020	 ldr         r3, [sp, #0x20]
  00658	e2832010	 add         r2, r3, #0x10
  0065c	e3a03000	 mov         r3, #0
  00660	e5823000	 str         r3, [r2]
  00664		 |$LN1@StopInterr|

; 217  :         }    
; 218  : 
; 219  :     DEBUGMSG(ZONE_FUNCTION, (L"-DmaMediator::StopInterruptHandler\r\n"));

  00664	e59f3034	 ldr         r3, [pc, #0x34]
  00668	e5933440	 ldr         r3, [r3, #0x440]
  0066c	e3130004	 tst         r3, #4
  00670	0a000004	 beq         |$LN8@StopInterr|
  00674	e59f0020	 ldr         r0, [pc, #0x20]
  00678	eb000000	 bl          NKDbgPrintfW
  0067c	e3a03001	 mov         r3, #1
  00680	e58d3014	 str         r3, [sp, #0x14]
  00684	ea000001	 b           |$LN9@StopInterr|
  00688		 |$LN8@StopInterr|
  00688	e3a03000	 mov         r3, #0
  0068c	e58d3014	 str         r3, [sp, #0x14]
  00690		 |$LN9@StopInterr|

; 220  : }

  00690	e28dd018	 add         sp, sp, #0x18
  00694	e89d6000	 ldmia       sp, {sp, lr}
  00698	e12fff1e	 bx          lr
  0069c		 |$LN13@StopInterr|
  0069c		 |$LN14@StopInterr|
  0069c	00000000	 DCD         |??_C@_1EK@ECJBDBKC@?$AA?9?$AAD?$AAm?$AAa?$AAM?$AAe?$AAd?$AAi?$AAa?$AAt?$AAo?$AAr?$AA?3?$AA?3?$AAS?$AAt?$AAo?$AAp?$AAI?$AAn?$AAt?$AAe?$AAr?$AAr?$AAu?$AAp?$AAt?$AAH?$AAa?$AAn?$AAd?$AAl@|
  006a0		 |$LN15@StopInterr|
  006a0	00000000	 DCD         |dpCurSettings|
  006a4		 |$LN16@StopInterr|
  006a4	010100d8	 DCD         0x10100d8
  006a8		 |$LN17@StopInterr|
  006a8	00000000	 DCD         |??_C@_1EK@HMKCHMLL@?$AA?$CL?$AAD?$AAm?$AAa?$AAM?$AAe?$AAd?$AAi?$AAa?$AAt?$AAo?$AAr?$AA?3?$AA?3?$AAS?$AAt?$AAo?$AAp?$AAI?$AAn?$AAt?$AAe?$AAr?$AAr?$AAu?$AAp?$AAt?$AAH?$AAa?$AAn?$AAd?$AAl@|
  006ac		 |$M36322|

			 ENDP  ; |?StopInterruptHandler@DmaMediator@@QAAXXZ|, DmaMediator::StopInterruptHandler

	IMPORT	|EventModify|
; File c:\wince600\public\common\sdk\inc\kfuncs.h

  00000			 AREA	 |.pdata|, PDATA
|$T36335| DCD	|$LN5@SetEvent|
	DCD	0x40000e04
; Function compile flags: /Odtp

  00000			 AREA	 |.text|, CODE, ARM

  00000		 |SetEvent| PROC

; 235  : _inline BOOL SetEvent(HANDLE h) {

  00000		 |$LN5@SetEvent|
  00000	e1a0c00d	 mov         r12, sp
  00004	e92d0001	 stmdb       sp!, {r0}
  00008	e92d5000	 stmdb       sp!, {r12, lr}
  0000c	e24dd008	 sub         sp, sp, #8
  00010		 |$M36332|

; 236  : 	return EventModify(h,EVENT_SET);

  00010	e3a01003	 mov         r1, #3
  00014	e59d0010	 ldr         r0, [sp, #0x10]
  00018	eb000000	 bl          EventModify
  0001c	e58d0004	 str         r0, [sp, #4]
  00020	e59d3004	 ldr         r3, [sp, #4]
  00024	e58d3000	 str         r3, [sp]

; 237  : }

  00028	e59d0000	 ldr         r0, [sp]
  0002c	e28dd008	 add         sp, sp, #8
  00030	e89d6000	 ldmia       sp, {sp, lr}
  00034	e12fff1e	 bx          lr
  00038		 |$M36333|

			 ENDP  ; |SetEvent|

	EXPORT	|??_C@_1FE@OKKJPLGK@?$AA?9?$AAD?$AAm?$AAa?$AAM?$AAe?$AAd?$AAi?$AAa?$AAt?$AAo?$AAr?$AA?3?$AA?3?$AAP?$AAr?$AAo?$AAc?$AAe?$AAs?$AAs?$AAI?$AAn?$AAt?$AAe?$AAr?$AAr?$AAu?$AAp?$AAt?$AA?3?$AA?5@| [ DATA ] ; `string'
	EXPORT	|??_C@_1EK@LOCPFGLK@?$AAf?$AAa?$AAi?$AAl?$AAe?$AAd?$AA?5?$AAt?$AAo?$AA?5?$AAc?$AAl?$AAe?$AAa?$AAr?$AA?5?$AAd?$AAm?$AAa?$AA?5?$AAi?$AAn?$AAt?$AAe?$AAr?$AAr?$AAu?$AAp?$AAt?$AA?5?$AAm?$AAa@| [ DATA ] ; `string'
	EXPORT	|??_C@_1IA@HDBEJDIO@?$AAE?$AAR?$AAR?$AAO?$AAR?$AA?$CB?$AA?5?$AAD?$AAm?$AAa?$AAM?$AAe?$AAd?$AAi?$AAa?$AAt?$AAo?$AAr?$AA?3?$AA?3?$AAP?$AAr?$AAo?$AAc?$AAe?$AAs?$AAs?$AAI?$AAn?$AAt?$AAe?$AAr@| [ DATA ] ; `string'
	EXPORT	|??_C@_1EM@KHPJDBGO@?$AAW?$AAA?$AAR?$AAN?$AA?$CB?$AA?5?$AAD?$AAm?$AAa?$AAM?$AAe?$AAd?$AAi?$AAa?$AAt?$AAo?$AAr?$AA?3?$AA?3?$AAP?$AAr?$AAo?$AAc?$AAe?$AAs?$AAs?$AAI?$AAn?$AAt?$AAe?$AAr?$AAr@| [ DATA ] ; `string'
	EXPORT	|??_C@_1EG@CDEDOPNL@?$AAf?$AAa?$AAi?$AAl?$AAe?$AAd?$AA?5?$AAt?$AAo?$AA?5?$AAg?$AAe?$AAt?$AA?5?$AAd?$AAm?$AAa?$AA?5?$AAi?$AAn?$AAt?$AAe?$AAr?$AAr?$AAu?$AAp?$AAt?$AA?5?$AAm?$AAa?$AAs?$AAk@| [ DATA ] ; `string'
	EXPORT	|??_C@_1EC@CFPMHGNG@?$AA?$CL?$AAD?$AAm?$AAa?$AAM?$AAe?$AAd?$AAi?$AAa?$AAt?$AAo?$AAr?$AA?3?$AA?3?$AAP?$AAr?$AAo?$AAc?$AAe?$AAs?$AAs?$AAI?$AAn?$AAt?$AAe?$AAr?$AAr?$AAu?$AAp?$AAt?$AA?$AN?$AA?6@| [ DATA ] ; `string'
	EXPORT	|?ProcessInterrupt@DmaMediator@@MAAHXZ|	; DmaMediator::ProcessInterrupt

  00028			 AREA	 |.pdata|, PDATA
|$T36353| DCD	|$LN23@ProcessInt|
	DCD	0x4000a304
; File c:\wince600\platform\common\src\soc\common_ti_v1\common_ti\sdma\dmamediator.cpp

  00000			 AREA	 |.rdata|, DATA, READONLY
|??_C@_1FE@OKKJPLGK@?$AA?9?$AAD?$AAm?$AAa?$AAM?$AAe?$AAd?$AAi?$AAa?$AAt?$AAo?$AAr?$AA?3?$AA?3?$AAP?$AAr?$AAo?$AAc?$AAe?$AAs?$AAs?$AAI?$AAn?$AAt?$AAe?$AAr?$AAr?$AAu?$AAp?$AAt?$AA?3?$AA?5@| DCB "-"
	DCB	0x0, "D", 0x0, "m", 0x0, "a", 0x0, "M", 0x0, "e", 0x0, "d"
	DCB	0x0, "i", 0x0, "a", 0x0, "t", 0x0, "o", 0x0, "r", 0x0, ":"
	DCB	0x0, ":", 0x0, "P", 0x0, "r", 0x0, "o", 0x0, "c", 0x0, "e"
	DCB	0x0, "s", 0x0, "s", 0x0, "I", 0x0, "n", 0x0, "t", 0x0, "e"
	DCB	0x0, "r", 0x0, "r", 0x0, "u", 0x0, "p", 0x0, "t", 0x0, ":"
	DCB	0x0, " ", 0x0, "(", 0x0, "r", 0x0, "c", 0x0, "=", 0x0, "%"
	DCB	0x0, "d", 0x0, ")", 0x0, 0xd, 0x0, 0xa, 0x0, 0x0, 0x0 ; `string'

  00000			 AREA	 |.rdata|, DATA, READONLY
|??_C@_1EK@LOCPFGLK@?$AAf?$AAa?$AAi?$AAl?$AAe?$AAd?$AA?5?$AAt?$AAo?$AA?5?$AAc?$AAl?$AAe?$AAa?$AAr?$AA?5?$AAd?$AAm?$AAa?$AA?5?$AAi?$AAn?$AAt?$AAe?$AAr?$AAr?$AAu?$AAp?$AAt?$AA?5?$AAm?$AAa@| DCB "f"
	DCB	0x0, "a", 0x0, "i", 0x0, "l", 0x0, "e", 0x0, "d", 0x0, " "
	DCB	0x0, "t", 0x0, "o", 0x0, " ", 0x0, "c", 0x0, "l", 0x0, "e"
	DCB	0x0, "a", 0x0, "r", 0x0, " ", 0x0, "d", 0x0, "m", 0x0, "a"
	DCB	0x0, " ", 0x0, "i", 0x0, "n", 0x0, "t", 0x0, "e", 0x0, "r"
	DCB	0x0, "r", 0x0, "u", 0x0, "p", 0x0, "t", 0x0, " ", 0x0, "m"
	DCB	0x0, "a", 0x0, "s", 0x0, "k", 0x0, 0xd, 0x0, 0xa, 0x0, 0x0
	DCB	0x0					; `string'

  00000			 AREA	 |.rdata|, DATA, READONLY
|??_C@_1IA@HDBEJDIO@?$AAE?$AAR?$AAR?$AAO?$AAR?$AA?$CB?$AA?5?$AAD?$AAm?$AAa?$AAM?$AAe?$AAd?$AAi?$AAa?$AAt?$AAo?$AAr?$AA?3?$AA?3?$AAP?$AAr?$AAo?$AAc?$AAe?$AAs?$AAs?$AAI?$AAn?$AAt?$AAe?$AAr@| DCB "E"
	DCB	0x0, "R", 0x0, "R", 0x0, "O", 0x0, "R", 0x0, "!", 0x0, " "
	DCB	0x0, "D", 0x0, "m", 0x0, "a", 0x0, "M", 0x0, "e", 0x0, "d"
	DCB	0x0, "i", 0x0, "a", 0x0, "t", 0x0, "o", 0x0, "r", 0x0, ":"
	DCB	0x0, ":", 0x0, "P", 0x0, "r", 0x0, "o", 0x0, "c", 0x0, "e"
	DCB	0x0, "s", 0x0, "s", 0x0, "I", 0x0, "n", 0x0, "t", 0x0, "e"
	DCB	0x0, "r", 0x0, "r", 0x0, "u", 0x0, "p", 0x0, "t", 0x0, ":"
	DCB	0x0, " ", 0x0, "d", 0x0, "w", 0x0, "I", 0x0, "n", 0x0, "t"
	DCB	0x0, "e", 0x0, "r", 0x0, "r", 0x0, "u", 0x0, "p", 0x0, "t"
	DCB	0x0, "M", 0x0, "a", 0x0, "s", 0x0, "k", 0x0, "(", 0x0, "0"
	DCB	0x0, "x", 0x0, "%", 0x0, "0", 0x0, "8", 0x0, "X", 0x0, ")"
	DCB	0x0, 0xd, 0x0, 0xa, 0x0, 0x0, 0x0	; `string'

  00000			 AREA	 |.rdata|, DATA, READONLY
|??_C@_1EM@KHPJDBGO@?$AAW?$AAA?$AAR?$AAN?$AA?$CB?$AA?5?$AAD?$AAm?$AAa?$AAM?$AAe?$AAd?$AAi?$AAa?$AAt?$AAo?$AAr?$AA?3?$AA?3?$AAP?$AAr?$AAo?$AAc?$AAe?$AAs?$AAs?$AAI?$AAn?$AAt?$AAe?$AAr?$AAr@| DCB "W"
	DCB	0x0, "A", 0x0, "R", 0x0, "N", 0x0, "!", 0x0, " ", 0x0, "D"
	DCB	0x0, "m", 0x0, "a", 0x0, "M", 0x0, "e", 0x0, "d", 0x0, "i"
	DCB	0x0, "a", 0x0, "t", 0x0, "o", 0x0, "r", 0x0, ":", 0x0, ":"
	DCB	0x0, "P", 0x0, "r", 0x0, "o", 0x0, "c", 0x0, "e", 0x0, "s"
	DCB	0x0, "s", 0x0, "I", 0x0, "n", 0x0, "t", 0x0, "e", 0x0, "r"
	DCB	0x0, "r", 0x0, "u", 0x0, "p", 0x0, "t", 0x0, ":", 0x0, " "
	DCB	0x0, 0x0, 0x0				; `string'

  00000			 AREA	 |.rdata|, DATA, READONLY
|??_C@_1EG@CDEDOPNL@?$AAf?$AAa?$AAi?$AAl?$AAe?$AAd?$AA?5?$AAt?$AAo?$AA?5?$AAg?$AAe?$AAt?$AA?5?$AAd?$AAm?$AAa?$AA?5?$AAi?$AAn?$AAt?$AAe?$AAr?$AAr?$AAu?$AAp?$AAt?$AA?5?$AAm?$AAa?$AAs?$AAk@| DCB "f"
	DCB	0x0, "a", 0x0, "i", 0x0, "l", 0x0, "e", 0x0, "d", 0x0, " "
	DCB	0x0, "t", 0x0, "o", 0x0, " ", 0x0, "g", 0x0, "e", 0x0, "t"
	DCB	0x0, " ", 0x0, "d", 0x0, "m", 0x0, "a", 0x0, " ", 0x0, "i"
	DCB	0x0, "n", 0x0, "t", 0x0, "e", 0x0, "r", 0x0, "r", 0x0, "u"
	DCB	0x0, "p", 0x0, "t", 0x0, " ", 0x0, "m", 0x0, "a", 0x0, "s"
	DCB	0x0, "k", 0x0, 0xd, 0x0, 0xa, 0x0, 0x0, 0x0 ; `string'

  00000			 AREA	 |.rdata|, DATA, READONLY
|??_C@_1EC@CFPMHGNG@?$AA?$CL?$AAD?$AAm?$AAa?$AAM?$AAe?$AAd?$AAi?$AAa?$AAt?$AAo?$AAr?$AA?3?$AA?3?$AAP?$AAr?$AAo?$AAc?$AAe?$AAs?$AAs?$AAI?$AAn?$AAt?$AAe?$AAr?$AAr?$AAu?$AAp?$AAt?$AA?$AN?$AA?6@| DCB "+"
	DCB	0x0, "D", 0x0, "m", 0x0, "a", 0x0, "M", 0x0, "e", 0x0, "d"
	DCB	0x0, "i", 0x0, "a", 0x0, "t", 0x0, "o", 0x0, "r", 0x0, ":"
	DCB	0x0, ":", 0x0, "P", 0x0, "r", 0x0, "o", 0x0, "c", 0x0, "e"
	DCB	0x0, "s", 0x0, "s", 0x0, "I", 0x0, "n", 0x0, "t", 0x0, "e"
	DCB	0x0, "r", 0x0, "r", 0x0, "u", 0x0, "p", 0x0, "t", 0x0, 0xd
	DCB	0x0, 0xa, 0x0, 0x0, 0x0			; `string'
; Function compile flags: /Odtp

  006ac			 AREA	 |.text|, CODE, ARM

  006ac		 |?ProcessInterrupt@DmaMediator@@MAAHXZ| PROC ; DmaMediator::ProcessInterrupt

; 226  : {

  006ac		 |$LN23@ProcessInt|
  006ac	e1a0c00d	 mov         r12, sp
  006b0	e92d0001	 stmdb       sp!, {r0}
  006b4	e92d5000	 stmdb       sp!, {r12, lr}
  006b8	e24dd030	 sub         sp, sp, #0x30
  006bc		 |$M36350|

; 227  :     DEBUGMSG(ZONE_FUNCTION, (L"+DmaMediator::ProcessInterrupt\r\n"));

  006bc	e59f325c	 ldr         r3, [pc, #0x25C]
  006c0	e5933440	 ldr         r3, [r3, #0x440]
  006c4	e3130004	 tst         r3, #4
  006c8	0a000004	 beq         |$LN11@ProcessInt|
  006cc	e59f0260	 ldr         r0, [pc, #0x260]
  006d0	eb000000	 bl          NKDbgPrintfW
  006d4	e3a03001	 mov         r3, #1
  006d8	e58d3014	 str         r3, [sp, #0x14]
  006dc	ea000001	 b           |$LN12@ProcessInt|
  006e0		 |$LN11@ProcessInt|
  006e0	e3a03000	 mov         r3, #0
  006e4	e58d3014	 str         r3, [sp, #0x14]
  006e8		 |$LN12@ProcessInt|

; 228  : 
; 229  :     // get the dma's which caused the interrupt
; 230  :     BOOL rc = FALSE;

  006e8	e3a03000	 mov         r3, #0
  006ec	e58d3000	 str         r3, [sp]

; 231  :     DWORD dwInterruptMask;
; 232  :     DWORD dwInterruptOrigMask;
; 233  :     if (m_pDmaController->GetInterruptMask(m_context, &dwInterruptOrigMask) == FALSE)

  006f0	e28d2008	 add         r2, sp, #8
  006f4	e59d3038	 ldr         r3, [sp, #0x38]
  006f8	e2833020	 add         r3, r3, #0x20
  006fc	e5931000	 ldr         r1, [r3]
  00700	e59d3038	 ldr         r3, [sp, #0x38]
  00704	e2833024	 add         r3, r3, #0x24
  00708	e593e000	 ldr         lr, [r3]
  0070c	e59d3038	 ldr         r3, [sp, #0x38]
  00710	e2833024	 add         r3, r3, #0x24
  00714	e5930000	 ldr         r0, [r3]
  00718	e59e3000	 ldr         r3, [lr]
  0071c	e2833004	 add         r3, r3, #4
  00720	e5933000	 ldr         r3, [r3]
  00724	e1a0e00f	 mov         lr, pc
  00728	e12fff13	 bx          r3
  0072c	e58d0018	 str         r0, [sp, #0x18]
  00730	e59d3018	 ldr         r3, [sp, #0x18]
  00734	e3530000	 cmp         r3, #0
  00738	1a00000d	 bne         |$LN8@ProcessInt|

; 234  :         {
; 235  :         RETAILMSG(ZONE_WARN, (L"WARN! DmaMediator::ProcessInterrupt: ",
; 236  :             L"failed to get dma interrupt mask\r\n"
; 237  :             ));

  0073c	e59f31dc	 ldr         r3, [pc, #0x1DC]
  00740	e5933440	 ldr         r3, [r3, #0x440]
  00744	e3130002	 tst         r3, #2
  00748	0a000005	 beq         |$LN13@ProcessInt|
  0074c	e59f11dc	 ldr         r1, [pc, #0x1DC]
  00750	e59f01cc	 ldr         r0, [pc, #0x1CC]
  00754	eb000000	 bl          NKDbgPrintfW
  00758	e3a03001	 mov         r3, #1
  0075c	e58d301c	 str         r3, [sp, #0x1C]
  00760	ea000001	 b           |$LN14@ProcessInt|
  00764		 |$LN13@ProcessInt|
  00764	e3a03000	 mov         r3, #0
  00768	e58d301c	 str         r3, [sp, #0x1C]
  0076c		 |$LN14@ProcessInt|

; 238  :         goto cleanUp;

  0076c	ea000058	 b           |$LN7@ProcessInt|
  00770	ea000057	 b           |$cleanUp$36071|
  00774		 |$LN8@ProcessInt|

; 239  :         }
; 240  : 
; 241  :     // filter mask to only include valid logical channels
; 242  :     dwInterruptMask = dwInterruptOrigMask & (0xFFFFFFFF >> (32 - m_dmaChannelCount));

  00774	e59d3038	 ldr         r3, [sp, #0x38]
  00778	e2833018	 add         r3, r3, #0x18
  0077c	e5933000	 ldr         r3, [r3]
  00780	e2632020	 rsb         r2, r3, #0x20
  00784	e3e03000	 mvn         r3, #0
  00788	e1a02233	 mov         r2, r3, lsr r2
  0078c	e59d3008	 ldr         r3, [sp, #8]
  00790	e0033002	 and         r3, r3, r2
  00794	e58d300c	 str         r3, [sp, #0xC]

; 243  : 
; 244  :     // loop through and service all interrupts for logical channels
; 245  :     int i = 0;    

  00798	e3a03000	 mov         r3, #0
  0079c	e58d3004	 str         r3, [sp, #4]
  007a0		 |$LN6@ProcessInt|

; 246  :     while (dwInterruptMask)

  007a0	e59d300c	 ldr         r3, [sp, #0xC]
  007a4	e3530000	 cmp         r3, #0
  007a8	0a000026	 beq         |$LN5@ProcessInt|

; 247  :         {
; 248  :         if (dwInterruptMask & 1)

  007ac	e59d300c	 ldr         r3, [sp, #0xC]
  007b0	e3130001	 tst         r3, #1
  007b4	0a00001c	 beq         |$LN4@ProcessInt|

; 249  :             {
; 250  :             // notify secondary interrupts
; 251  :             if ((1 << i) & m_ffSIHList)

  007b8	e59d2004	 ldr         r2, [sp, #4]
  007bc	e3a03001	 mov         r3, #1
  007c0	e1a02213	 mov         r2, r3, lsl r2
  007c4	e59d3038	 ldr         r3, [sp, #0x38]
  007c8	e2833014	 add         r3, r3, #0x14
  007cc	e5933000	 ldr         r3, [r3]
  007d0	e1120003	 tst         r2, r3
  007d4	0a000008	 beq         |$LN3@ProcessInt|

; 252  :                 {
; 253  :                 SetEvent(m_pDmaChannelInfo[i].secondaryEventHandle);

  007d8	e59d3038	 ldr         r3, [sp, #0x38]
  007dc	e283001c	 add         r0, r3, #0x1C
  007e0	e59d1004	 ldr         r1, [sp, #4]
  007e4	e3a03008	 mov         r3, #8
  007e8	e0020391	 mul         r2, r1, r3
  007ec	e5903000	 ldr         r3, [r0]
  007f0	e0833002	 add         r3, r3, r2
  007f4	e5930000	 ldr         r0, [r3]
  007f8	eb000000	 bl          SetEvent
  007fc		 |$LN3@ProcessInt|

; 254  :                 }
; 255  : 
; 256  :             DEBUGMSG(ZONE_INFO, (L"ERROR! DmaMediator::ProcessInterrupt: "
; 257  :                 L"dwInterruptMask(0x%08X)\r\n",
; 258  :                 dwInterruptMask
; 259  :                 ));

  007fc	e59f311c	 ldr         r3, [pc, #0x11C]
  00800	e5933440	 ldr         r3, [r3, #0x440]
  00804	e3130008	 tst         r3, #8
  00808	0a000005	 beq         |$LN15@ProcessInt|
  0080c	e59d100c	 ldr         r1, [sp, #0xC]
  00810	e59f0114	 ldr         r0, [pc, #0x114]
  00814	eb000000	 bl          NKDbgPrintfW
  00818	e3a03001	 mov         r3, #1
  0081c	e58d3020	 str         r3, [sp, #0x20]
  00820	ea000001	 b           |$LN16@ProcessInt|
  00824		 |$LN15@ProcessInt|
  00824	e3a03000	 mov         r3, #0
  00828	e58d3020	 str         r3, [sp, #0x20]
  0082c		 |$LN16@ProcessInt|
  0082c		 |$LN4@ProcessInt|

; 260  :             }
; 261  :         ++i;

  0082c	e59d3004	 ldr         r3, [sp, #4]
  00830	e2833001	 add         r3, r3, #1
  00834	e58d3004	 str         r3, [sp, #4]

; 262  :         dwInterruptMask >>= 1;

  00838	e59d300c	 ldr         r3, [sp, #0xC]
  0083c	e1a030a3	 mov         r3, r3, lsr #1
  00840	e58d300c	 str         r3, [sp, #0xC]

; 263  :         }

  00844	eaffffd5	 b           |$LN6@ProcessInt|
  00848		 |$LN5@ProcessInt|

; 264  : 
; 265  :     if (m_pDmaController->ClearInterruptMask(m_context, dwInterruptOrigMask) == FALSE)

  00848	e59d2008	 ldr         r2, [sp, #8]
  0084c	e59d3038	 ldr         r3, [sp, #0x38]
  00850	e2833020	 add         r3, r3, #0x20
  00854	e5931000	 ldr         r1, [r3]
  00858	e59d3038	 ldr         r3, [sp, #0x38]
  0085c	e2833024	 add         r3, r3, #0x24
  00860	e593e000	 ldr         lr, [r3]
  00864	e59d3038	 ldr         r3, [sp, #0x38]
  00868	e2833024	 add         r3, r3, #0x24
  0086c	e5930000	 ldr         r0, [r3]
  00870	e59e3000	 ldr         r3, [lr]
  00874	e2833008	 add         r3, r3, #8
  00878	e5933000	 ldr         r3, [r3]
  0087c	e1a0e00f	 mov         lr, pc
  00880	e12fff13	 bx          r3
  00884	e58d0024	 str         r0, [sp, #0x24]
  00888	e59d3024	 ldr         r3, [sp, #0x24]
  0088c	e3530000	 cmp         r3, #0
  00890	1a00000d	 bne         |$LN2@ProcessInt|

; 266  :         {
; 267  :         RETAILMSG(ZONE_WARN, (L"WARN! DmaMediator::ProcessInterrupt: ",
; 268  :             L"failed to clear dma interrupt mask\r\n"
; 269  :             ));

  00894	e59f3084	 ldr         r3, [pc, #0x84]
  00898	e5933440	 ldr         r3, [r3, #0x440]
  0089c	e3130002	 tst         r3, #2
  008a0	0a000005	 beq         |$LN17@ProcessInt|
  008a4	e59f107c	 ldr         r1, [pc, #0x7C]
  008a8	e59f0074	 ldr         r0, [pc, #0x74]
  008ac	eb000000	 bl          NKDbgPrintfW
  008b0	e3a03001	 mov         r3, #1
  008b4	e58d3028	 str         r3, [sp, #0x28]
  008b8	ea000001	 b           |$LN18@ProcessInt|
  008bc		 |$LN17@ProcessInt|
  008bc	e3a03000	 mov         r3, #0
  008c0	e58d3028	 str         r3, [sp, #0x28]
  008c4		 |$LN18@ProcessInt|

; 270  :         goto cleanUp;

  008c4	ea000002	 b           |$LN1@ProcessInt|
  008c8	ea000001	 b           |$cleanUp$36071|
  008cc		 |$LN2@ProcessInt|

; 271  :         }
; 272  :     
; 273  :     rc = TRUE;

  008cc	e3a03001	 mov         r3, #1
  008d0	e58d3000	 str         r3, [sp]
  008d4		 |$LN1@ProcessInt|
  008d4		 |$LN7@ProcessInt|
  008d4		 |$cleanUp$36071|

; 274  : cleanUp:
; 275  :     DEBUGMSG(ZONE_FUNCTION, (L"-DmaMediator::ProcessInterrupt: "
; 276  :         L"(rc=%d)\r\n", rc
; 277  :         ));

  008d4	e59f3044	 ldr         r3, [pc, #0x44]
  008d8	e5933440	 ldr         r3, [r3, #0x440]
  008dc	e3130004	 tst         r3, #4
  008e0	0a000005	 beq         |$LN19@ProcessInt|
  008e4	e59d1000	 ldr         r1, [sp]
  008e8	e59f002c	 ldr         r0, [pc, #0x2C]
  008ec	eb000000	 bl          NKDbgPrintfW
  008f0	e3a03001	 mov         r3, #1
  008f4	e58d302c	 str         r3, [sp, #0x2C]
  008f8	ea000001	 b           |$LN20@ProcessInt|
  008fc		 |$LN19@ProcessInt|
  008fc	e3a03000	 mov         r3, #0
  00900	e58d302c	 str         r3, [sp, #0x2C]
  00904		 |$LN20@ProcessInt|

; 278  :     
; 279  :     return rc;

  00904	e59d3000	 ldr         r3, [sp]
  00908	e58d3010	 str         r3, [sp, #0x10]

; 280  : }

  0090c	e59d0010	 ldr         r0, [sp, #0x10]
  00910	e28dd030	 add         sp, sp, #0x30
  00914	e89d6000	 ldmia       sp, {sp, lr}
  00918	e12fff1e	 bx          lr
  0091c		 |$LN24@ProcessInt|
  0091c		 |$LN25@ProcessInt|
  0091c	00000000	 DCD         |??_C@_1FE@OKKJPLGK@?$AA?9?$AAD?$AAm?$AAa?$AAM?$AAe?$AAd?$AAi?$AAa?$AAt?$AAo?$AAr?$AA?3?$AA?3?$AAP?$AAr?$AAo?$AAc?$AAe?$AAs?$AAs?$AAI?$AAn?$AAt?$AAe?$AAr?$AAr?$AAu?$AAp?$AAt?$AA?3?$AA?5@|
  00920		 |$LN26@ProcessInt|
  00920	00000000	 DCD         |dpCurSettings|
  00924		 |$LN27@ProcessInt|
  00924	00000000	 DCD         |??_C@_1EM@KHPJDBGO@?$AAW?$AAA?$AAR?$AAN?$AA?$CB?$AA?5?$AAD?$AAm?$AAa?$AAM?$AAe?$AAd?$AAi?$AAa?$AAt?$AAo?$AAr?$AA?3?$AA?3?$AAP?$AAr?$AAo?$AAc?$AAe?$AAs?$AAs?$AAI?$AAn?$AAt?$AAe?$AAr?$AAr@|
  00928		 |$LN28@ProcessInt|
  00928	00000000	 DCD         |??_C@_1EK@LOCPFGLK@?$AAf?$AAa?$AAi?$AAl?$AAe?$AAd?$AA?5?$AAt?$AAo?$AA?5?$AAc?$AAl?$AAe?$AAa?$AAr?$AA?5?$AAd?$AAm?$AAa?$AA?5?$AAi?$AAn?$AAt?$AAe?$AAr?$AAr?$AAu?$AAp?$AAt?$AA?5?$AAm?$AAa@|
  0092c		 |$LN29@ProcessInt|
  0092c	00000000	 DCD         |??_C@_1IA@HDBEJDIO@?$AAE?$AAR?$AAR?$AAO?$AAR?$AA?$CB?$AA?5?$AAD?$AAm?$AAa?$AAM?$AAe?$AAd?$AAi?$AAa?$AAt?$AAo?$AAr?$AA?3?$AA?3?$AAP?$AAr?$AAo?$AAc?$AAe?$AAs?$AAs?$AAI?$AAn?$AAt?$AAe?$AAr@|
  00930		 |$LN30@ProcessInt|
  00930	00000000	 DCD         |??_C@_1EG@CDEDOPNL@?$AAf?$AAa?$AAi?$AAl?$AAe?$AAd?$AA?5?$AAt?$AAo?$AA?5?$AAg?$AAe?$AAt?$AA?5?$AAd?$AAm?$AAa?$AA?5?$AAi?$AAn?$AAt?$AAe?$AAr?$AAr?$AAu?$AAp?$AAt?$AA?5?$AAm?$AAa?$AAs?$AAk@|
  00934		 |$LN31@ProcessInt|
  00934	00000000	 DCD         |??_C@_1EC@CFPMHGNG@?$AA?$CL?$AAD?$AAm?$AAa?$AAM?$AAe?$AAd?$AAi?$AAa?$AAt?$AAo?$AAr?$AA?3?$AA?3?$AAP?$AAr?$AAo?$AAc?$AAe?$AAs?$AAs?$AAI?$AAn?$AAt?$AAe?$AAr?$AAr?$AAu?$AAp?$AAt?$AA?$AN?$AA?6@|
  00938		 |$M36351|

			 ENDP  ; |?ProcessInterrupt@DmaMediator@@MAAHXZ|, DmaMediator::ProcessInterrupt

	EXPORT	|??_C@_1EO@MKABNBJF@?$AA?9?$AAD?$AAm?$AAa?$AAM?$AAe?$AAd?$AAi?$AAa?$AAt?$AAo?$AAr?$AA?3?$AA?3?$AAR?$AAe?$AAs?$AAe?$AAt?$AAC?$AAh?$AAa?$AAn?$AAn?$AAe?$AAl?$AA?3?$AA?5?$AAi?$AAn?$AAd?$AAe@| [ DATA ] ; `string'
	EXPORT	|?SetEventHandler@DmaMediator@@QAAHHPAXK@Z| ; DmaMediator::SetEventHandler
	EXPORT	|??_C@_1EO@KKFIKPII@?$AA?$CL?$AAD?$AAm?$AAa?$AAM?$AAe?$AAd?$AAi?$AAa?$AAt?$AAo?$AAr?$AA?3?$AA?3?$AAR?$AAe?$AAs?$AAe?$AAt?$AAC?$AAh?$AAa?$AAn?$AAn?$AAe?$AAl?$AA?3?$AA?5?$AAi?$AAn?$AAd?$AAe@| [ DATA ] ; `string'
	EXPORT	|?ResetChannel@DmaMediator@@QAAHH@Z|	; DmaMediator::ResetChannel

  00030			 AREA	 |.pdata|, PDATA
|$T36371| DCD	|$LN10@ResetChann|
	DCD	0x40003c04

  00000			 AREA	 |.rdata|, DATA, READONLY
|??_C@_1EO@MKABNBJF@?$AA?9?$AAD?$AAm?$AAa?$AAM?$AAe?$AAd?$AAi?$AAa?$AAt?$AAo?$AAr?$AA?3?$AA?3?$AAR?$AAe?$AAs?$AAe?$AAt?$AAC?$AAh?$AAa?$AAn?$AAn?$AAe?$AAl?$AA?3?$AA?5?$AAi?$AAn?$AAd?$AAe@| DCB "-"
	DCB	0x0, "D", 0x0, "m", 0x0, "a", 0x0, "M", 0x0, "e", 0x0, "d"
	DCB	0x0, "i", 0x0, "a", 0x0, "t", 0x0, "o", 0x0, "r", 0x0, ":"
	DCB	0x0, ":", 0x0, "R", 0x0, "e", 0x0, "s", 0x0, "e", 0x0, "t"
	DCB	0x0, "C", 0x0, "h", 0x0, "a", 0x0, "n", 0x0, "n", 0x0, "e"
	DCB	0x0, "l", 0x0, ":", 0x0, " ", 0x0, "i", 0x0, "n", 0x0, "d"
	DCB	0x0, "e", 0x0, "x", 0x0, "=", 0x0, "%", 0x0, "d", 0x0, 0xd
	DCB	0x0, 0xa, 0x0, 0x0, 0x0			; `string'

  00000			 AREA	 |.rdata|, DATA, READONLY
|??_C@_1EO@KKFIKPII@?$AA?$CL?$AAD?$AAm?$AAa?$AAM?$AAe?$AAd?$AAi?$AAa?$AAt?$AAo?$AAr?$AA?3?$AA?3?$AAR?$AAe?$AAs?$AAe?$AAt?$AAC?$AAh?$AAa?$AAn?$AAn?$AAe?$AAl?$AA?3?$AA?5?$AAi?$AAn?$AAd?$AAe@| DCB "+"
	DCB	0x0, "D", 0x0, "m", 0x0, "a", 0x0, "M", 0x0, "e", 0x0, "d"
	DCB	0x0, "i", 0x0, "a", 0x0, "t", 0x0, "o", 0x0, "r", 0x0, ":"
	DCB	0x0, ":", 0x0, "R", 0x0, "e", 0x0, "s", 0x0, "e", 0x0, "t"
	DCB	0x0, "C", 0x0, "h", 0x0, "a", 0x0, "n", 0x0, "n", 0x0, "e"
	DCB	0x0, "l", 0x0, ":", 0x0, " ", 0x0, "i", 0x0, "n", 0x0, "d"
	DCB	0x0, "e", 0x0, "x", 0x0, "=", 0x0, "%", 0x0, "d", 0x0, 0xd
	DCB	0x0, 0xa, 0x0, 0x0, 0x0			; `string'
; Function compile flags: /Odtp

  00938			 AREA	 |.text|, CODE, ARM

  00938		 |?ResetChannel@DmaMediator@@QAAHH@Z| PROC ; DmaMediator::ResetChannel

; 285  : {

  00938		 |$LN10@ResetChann|
  00938	e1a0c00d	 mov         r12, sp
  0093c	e92d0003	 stmdb       sp!, {r0, r1}
  00940	e92d5000	 stmdb       sp!, {r12, lr}
  00944	e24dd010	 sub         sp, sp, #0x10
  00948		 |$M36368|

; 286  :     DEBUGMSG(ZONE_FUNCTION, (L"+DmaMediator::ResetChannel: " 
; 287  :         L"index=%d\r\n", index
; 288  :         ));

  00948	e59f30d0	 ldr         r3, [pc, #0xD0]
  0094c	e5933440	 ldr         r3, [r3, #0x440]
  00950	e3130004	 tst         r3, #4
  00954	0a000005	 beq         |$LN4@ResetChann|
  00958	e59d101c	 ldr         r1, [sp, #0x1C]
  0095c	e59f00c0	 ldr         r0, [pc, #0xC0]
  00960	eb000000	 bl          NKDbgPrintfW
  00964	e3a03001	 mov         r3, #1
  00968	e58d3008	 str         r3, [sp, #8]
  0096c	ea000001	 b           |$LN5@ResetChann|
  00970		 |$LN4@ResetChann|
  00970	e3a03000	 mov         r3, #0
  00974	e58d3008	 str         r3, [sp, #8]
  00978		 |$LN5@ResetChann|

; 289  : 
; 290  :     // disable interrupts
; 291  :     EnableInterrupt(index, FALSE);

  00978	e3a02000	 mov         r2, #0
  0097c	e59d101c	 ldr         r1, [sp, #0x1C]
  00980	e59d3018	 ldr         r3, [sp, #0x18]
  00984	e5933000	 ldr         r3, [r3]
  00988	e59d0018	 ldr         r0, [sp, #0x18]
  0098c	e5933000	 ldr         r3, [r3]
  00990	e1a0e00f	 mov         lr, pc
  00994	e12fff13	 bx          r3

; 292  : 
; 293  :     // create mask and use it to see if anything was set for the dma channel
; 294  :     DWORD dwMask = (1 << index);

  00998	e59d201c	 ldr         r2, [sp, #0x1C]
  0099c	e3a03001	 mov         r3, #1
  009a0	e1a03213	 mov         r3, r3, lsl r2
  009a4	e58d3000	 str         r3, [sp]

; 295  :     if (m_ffSIHList & dwMask)

  009a8	e59d3018	 ldr         r3, [sp, #0x18]
  009ac	e2833014	 add         r3, r3, #0x14
  009b0	e5932000	 ldr         r2, [r3]
  009b4	e59d3000	 ldr         r3, [sp]
  009b8	e1120003	 tst         r2, r3
  009bc	0a000004	 beq         |$LN1@ResetChann|

; 296  :         {
; 297  :         SetEventHandler(index, NULL, 0);

  009c0	e3a03000	 mov         r3, #0
  009c4	e3a02000	 mov         r2, #0
  009c8	e59d101c	 ldr         r1, [sp, #0x1C]
  009cc	e59d0018	 ldr         r0, [sp, #0x18]
  009d0	eb000000	 bl          |?SetEventHandler@DmaMediator@@QAAHHPAXK@Z|
  009d4		 |$LN1@ResetChann|

; 298  :         }
; 299  : 
; 300  :     DEBUGMSG(ZONE_FUNCTION, (L"-DmaMediator::ResetChannel: " 
; 301  :         L"index=%d\r\n", index
; 302  :         ));

  009d4	e59f3044	 ldr         r3, [pc, #0x44]
  009d8	e5933440	 ldr         r3, [r3, #0x440]
  009dc	e3130004	 tst         r3, #4
  009e0	0a000005	 beq         |$LN6@ResetChann|
  009e4	e59d101c	 ldr         r1, [sp, #0x1C]
  009e8	e59f002c	 ldr         r0, [pc, #0x2C]
  009ec	eb000000	 bl          NKDbgPrintfW
  009f0	e3a03001	 mov         r3, #1
  009f4	e58d300c	 str         r3, [sp, #0xC]
  009f8	ea000001	 b           |$LN7@ResetChann|
  009fc		 |$LN6@ResetChann|
  009fc	e3a03000	 mov         r3, #0
  00a00	e58d300c	 str         r3, [sp, #0xC]
  00a04		 |$LN7@ResetChann|

; 303  : 
; 304  :     return TRUE;

  00a04	e3a03001	 mov         r3, #1
  00a08	e58d3004	 str         r3, [sp, #4]

; 305  : }

  00a0c	e59d0004	 ldr         r0, [sp, #4]
  00a10	e28dd010	 add         sp, sp, #0x10
  00a14	e89d6000	 ldmia       sp, {sp, lr}
  00a18	e12fff1e	 bx          lr
  00a1c		 |$LN11@ResetChann|
  00a1c		 |$LN12@ResetChann|
  00a1c	00000000	 DCD         |??_C@_1EO@MKABNBJF@?$AA?9?$AAD?$AAm?$AAa?$AAM?$AAe?$AAd?$AAi?$AAa?$AAt?$AAo?$AAr?$AA?3?$AA?3?$AAR?$AAe?$AAs?$AAe?$AAt?$AAC?$AAh?$AAa?$AAn?$AAn?$AAe?$AAl?$AA?3?$AA?5?$AAi?$AAn?$AAd?$AAe@|
  00a20		 |$LN13@ResetChann|
  00a20	00000000	 DCD         |dpCurSettings|
  00a24		 |$LN14@ResetChann|
  00a24	00000000	 DCD         |??_C@_1EO@KKFIKPII@?$AA?$CL?$AAD?$AAm?$AAa?$AAM?$AAe?$AAd?$AAi?$AAa?$AAt?$AAo?$AAr?$AA?3?$AA?3?$AAR?$AAe?$AAs?$AAe?$AAt?$AAC?$AAh?$AAa?$AAn?$AAn?$AAe?$AAl?$AA?3?$AA?5?$AAi?$AAn?$AAd?$AAe@|
  00a28		 |$M36369|

			 ENDP  ; |?ResetChannel@DmaMediator@@QAAHH@Z|, DmaMediator::ResetChannel

	EXPORT	|??_C@_1EO@EEJOJOJJ@?$AA?9?$AAD?$AAm?$AAa?$AAM?$AAe?$AAd?$AAi?$AAa?$AAt?$AAo?$AAr?$AA?3?$AA?3?$AAS?$AAe?$AAt?$AAE?$AAv?$AAe?$AAn?$AAt?$AAH?$AAa?$AAn?$AAd?$AAl?$AAe?$AAr?$AA?$CI?$AAr?$AAc@| [ DATA ] ; `string'
	EXPORT	|??_C@_1KI@KNOHBGEA@?$AAE?$AAR?$AAR?$AAO?$AAR?$AA?$CB?$AA?5?$AAD?$AAm?$AAa?$AAM?$AAe?$AAd?$AAi?$AAa?$AAt?$AAo?$AAr?$AA?3?$AA?3?$AAS?$AAe?$AAt?$AAE?$AAv?$AAe?$AAn?$AAt?$AAH?$AAa?$AAn?$AAd@| [ DATA ] ; `string'
	EXPORT	|GetCurrentProcess|
	EXPORT	|??_C@_1KC@PNLANBE@?$AAE?$AAR?$AAR?$AAO?$AAR?$AA?$CB?$AA?5?$AAD?$AAm?$AAa?$AAM?$AAe?$AAd?$AAi?$AAa?$AAt?$AAo?$AAr?$AA?3?$AA?3?$AAS?$AAe?$AAt?$AAE?$AAv?$AAe?$AAn?$AAt?$AAH?$AAa?$AAn?$AAd@| [ DATA ] ; `string'
	EXPORT	|??_C@_1HK@FCPGKFG@?$AAW?$AAA?$AAR?$AAN?$AA?$CB?$AA?5?$AAD?$AAm?$AAa?$AAM?$AAe?$AAd?$AAi?$AAa?$AAt?$AAo?$AAr?$AA?3?$AA?3?$AAS?$AAe?$AAt?$AAE?$AAv?$AAe?$AAn?$AAt?$AAH?$AAa?$AAn?$AAd?$AAl@| [ DATA ] ; `string'
	EXPORT	|??_C@_1FK@FNONLNGN@?$AA?$CF?$AAs?$AA?3?$AA?5?$AAD?$AAE?$AAB?$AAU?$AAG?$AAC?$AAH?$AAK?$AA?5?$AAf?$AAa?$AAi?$AAl?$AAe?$AAd?$AA?5?$AAi?$AAn?$AA?5?$AAf?$AAi?$AAl?$AAe?$AA?5?$AA?$CF?$AAs?$AA?5?$AAa@| [ DATA ] ; `string'
	EXPORT	|??_C@_1BA@LEPJIIOK@?$AAU?$AAn?$AAk?$AAn?$AAo?$AAw?$AAn?$AA?$AA@| [ DATA ] ; `string'
	EXPORT	|??_C@_1KE@LMNGDPEK@?$AAC?$AA?3?$AA?2?$AAW?$AAI?$AAN?$AAC?$AAE?$AA6?$AA0?$AA0?$AA?2?$AAP?$AAL?$AAA?$AAT?$AAF?$AAO?$AAR?$AAM?$AA?2?$AAC?$AAO?$AAM?$AAM?$AAO?$AAN?$AA?2?$AAS?$AAR?$AAC?$AA?2@| [ DATA ] ; `string'
	EXPORT	|??_C@_1JE@PKCAMNBH@?$AAD?$AAm?$AAa?$AAM?$AAe?$AAd?$AAi?$AAa?$AAt?$AAo?$AAr?$AA?3?$AA?3?$AAS?$AAe?$AAt?$AAE?$AAv?$AAe?$AAn?$AAt?$AAH?$AAa?$AAn?$AAd?$AAl?$AAe?$AAr?$AA?3?$AA?5?$AAS?$AAe@| [ DATA ] ; `string'
	EXPORT	|??_C@_1JG@PGJEHJF@?$AA?$CL?$AAD?$AAm?$AAa?$AAM?$AAe?$AAd?$AAi?$AAa?$AAt?$AAo?$AAr?$AA?3?$AA?3?$AAS?$AAe?$AAt?$AAE?$AAv?$AAe?$AAn?$AAt?$AAH?$AAa?$AAn?$AAd?$AAl?$AAe?$AAr?$AA?3?$AA?5?$AAi@| [ DATA ] ; `string'
	IMPORT	|DuplicateHandle|
	IMPORT	|GetLastError|
	IMPORT	|OpenProcess|

  00038			 AREA	 |.pdata|, PDATA
|$T36402| DCD	|$LN32@SetEventHa|
	DCD	0x40010f04

  00000			 AREA	 |.rdata|, DATA, READONLY
|??_C@_1EO@EEJOJOJJ@?$AA?9?$AAD?$AAm?$AAa?$AAM?$AAe?$AAd?$AAi?$AAa?$AAt?$AAo?$AAr?$AA?3?$AA?3?$AAS?$AAe?$AAt?$AAE?$AAv?$AAe?$AAn?$AAt?$AAH?$AAa?$AAn?$AAd?$AAl?$AAe?$AAr?$AA?$CI?$AAr?$AAc@| DCB "-"
	DCB	0x0, "D", 0x0, "m", 0x0, "a", 0x0, "M", 0x0, "e", 0x0, "d"
	DCB	0x0, "i", 0x0, "a", 0x0, "t", 0x0, "o", 0x0, "r", 0x0, ":"
	DCB	0x0, ":", 0x0, "S", 0x0, "e", 0x0, "t", 0x0, "E", 0x0, "v"
	DCB	0x0, "e", 0x0, "n", 0x0, "t", 0x0, "H", 0x0, "a", 0x0, "n"
	DCB	0x0, "d", 0x0, "l", 0x0, "e", 0x0, "r", 0x0, "(", 0x0, "r"
	DCB	0x0, "c", 0x0, "=", 0x0, "%", 0x0, "d", 0x0, ")", 0x0, 0xd
	DCB	0x0, 0xa, 0x0, 0x0, 0x0			; `string'

  00000			 AREA	 |.rdata|, DATA, READONLY
|??_C@_1KI@KNOHBGEA@?$AAE?$AAR?$AAR?$AAO?$AAR?$AA?$CB?$AA?5?$AAD?$AAm?$AAa?$AAM?$AAe?$AAd?$AAi?$AAa?$AAt?$AAo?$AAr?$AA?3?$AA?3?$AAS?$AAe?$AAt?$AAE?$AAv?$AAe?$AAn?$AAt?$AAH?$AAa?$AAn?$AAd@| DCB "E"
	DCB	0x0, "R", 0x0, "R", 0x0, "O", 0x0, "R", 0x0, "!", 0x0, " "
	DCB	0x0, "D", 0x0, "m", 0x0, "a", 0x0, "M", 0x0, "e", 0x0, "d"
	DCB	0x0, "i", 0x0, "a", 0x0, "t", 0x0, "o", 0x0, "r", 0x0, ":"
	DCB	0x0, ":", 0x0, "S", 0x0, "e", 0x0, "t", 0x0, "E", 0x0, "v"
	DCB	0x0, "e", 0x0, "n", 0x0, "t", 0x0, "H", 0x0, "a", 0x0, "n"
	DCB	0x0, "d", 0x0, "l", 0x0, "e", 0x0, "r", 0x0, ":", 0x0, " "
	DCB	0x0, "u", 0x0, "n", 0x0, "a", 0x0, "b", 0x0, "l", 0x0, "e"
	DCB	0x0, " ", 0x0, "t", 0x0, "o", 0x0, " ", 0x0, "d", 0x0, "u"
	DCB	0x0, "p", 0x0, "l", 0x0, "i", 0x0, "c", 0x0, "a", 0x0, "t"
	DCB	0x0, "e", 0x0, " ", 0x0, "e", 0x0, "v", 0x0, "e", 0x0, "n"
	DCB	0x0, "t", 0x0, " ", 0x0, "h", 0x0, "a", 0x0, "n", 0x0, "d"
	DCB	0x0, "l", 0x0, "e", 0x0, " ", 0x0, "e", 0x0, "r", 0x0, "r"
	DCB	0x0, "(", 0x0, "0", 0x0, "x", 0x0, "%", 0x0, "0", 0x0, "8"
	DCB	0x0, "X", 0x0, ")", 0x0, 0xd, 0x0, 0xa, 0x0, 0x0, 0x0 ; `string'

  00000			 AREA	 |.rdata|, DATA, READONLY
|??_C@_1KC@PNLANBE@?$AAE?$AAR?$AAR?$AAO?$AAR?$AA?$CB?$AA?5?$AAD?$AAm?$AAa?$AAM?$AAe?$AAd?$AAi?$AAa?$AAt?$AAo?$AAr?$AA?3?$AA?3?$AAS?$AAe?$AAt?$AAE?$AAv?$AAe?$AAn?$AAt?$AAH?$AAa?$AAn?$AAd@| DCB "E"
	DCB	0x0, "R", 0x0, "R", 0x0, "O", 0x0, "R", 0x0, "!", 0x0, " "
	DCB	0x0, "D", 0x0, "m", 0x0, "a", 0x0, "M", 0x0, "e", 0x0, "d"
	DCB	0x0, "i", 0x0, "a", 0x0, "t", 0x0, "o", 0x0, "r", 0x0, ":"
	DCB	0x0, ":", 0x0, "S", 0x0, "e", 0x0, "t", 0x0, "E", 0x0, "v"
	DCB	0x0, "e", 0x0, "n", 0x0, "t", 0x0, "H", 0x0, "a", 0x0, "n"
	DCB	0x0, "d", 0x0, "l", 0x0, "e", 0x0, "r", 0x0, ":", 0x0, " "
	DCB	0x0, "U", 0x0, "n", 0x0, "a", 0x0, "b", 0x0, "l", 0x0, "e"
	DCB	0x0, " ", 0x0, "t", 0x0, "o", 0x0, " ", 0x0, "g", 0x0, "e"
	DCB	0x0, "t", 0x0, " ", 0x0, "p", 0x0, "r", 0x0, "o", 0x0, "c"
	DCB	0x0, "e", 0x0, "s", 0x0, "s", 0x0, " ", 0x0, "h", 0x0, "a"
	DCB	0x0, "n", 0x0, "d", 0x0, "l", 0x0, "e", 0x0, " ", 0x0, "("
	DCB	0x0, "e", 0x0, "r", 0x0, "r", 0x0, "=", 0x0, "0", 0x0, "x"
	DCB	0x0, "%", 0x0, "0", 0x0, "8", 0x0, "X", 0x0, ")", 0x0, 0xd
	DCB	0x0, 0xa, 0x0, 0x0, 0x0			; `string'

  00000			 AREA	 |.rdata|, DATA, READONLY
|??_C@_1HK@FCPGKFG@?$AAW?$AAA?$AAR?$AAN?$AA?$CB?$AA?5?$AAD?$AAm?$AAa?$AAM?$AAe?$AAd?$AAi?$AAa?$AAt?$AAo?$AAr?$AA?3?$AA?3?$AAS?$AAe?$AAt?$AAE?$AAv?$AAe?$AAn?$AAt?$AAH?$AAa?$AAn?$AAd?$AAl@| DCB "W"
	DCB	0x0, "A", 0x0, "R", 0x0, "N", 0x0, "!", 0x0, " ", 0x0, "D"
	DCB	0x0, "m", 0x0, "a", 0x0, "M", 0x0, "e", 0x0, "d", 0x0, "i"
	DCB	0x0, "a", 0x0, "t", 0x0, "o", 0x0, "r", 0x0, ":", 0x0, ":"
	DCB	0x0, "S", 0x0, "e", 0x0, "t", 0x0, "E", 0x0, "v", 0x0, "e"
	DCB	0x0, "n", 0x0, "t", 0x0, "H", 0x0, "a", 0x0, "n", 0x0, "d"
	DCB	0x0, "l", 0x0, "e", 0x0, "r", 0x0, ":", 0x0, " ", 0x0, "S"
	DCB	0x0, "I", 0x0, "H", 0x0, " ", 0x0, "a", 0x0, "l", 0x0, "r"
	DCB	0x0, "e", 0x0, "a", 0x0, "d", 0x0, "y", 0x0, " ", 0x0, "e"
	DCB	0x0, "x", 0x0, "i", 0x0, "s", 0x0, "t", 0x0, "s", 0x0, "("
	DCB	0x0, "%", 0x0, "d", 0x0, ")", 0x0, 0xd, 0x0, 0xa, 0x0, 0x0
	DCB	0x0					; `string'

  00000			 AREA	 |.rdata|, DATA, READONLY
|??_C@_1FK@FNONLNGN@?$AA?$CF?$AAs?$AA?3?$AA?5?$AAD?$AAE?$AAB?$AAU?$AAG?$AAC?$AAH?$AAK?$AA?5?$AAf?$AAa?$AAi?$AAl?$AAe?$AAd?$AA?5?$AAi?$AAn?$AA?5?$AAf?$AAi?$AAl?$AAe?$AA?5?$AA?$CF?$AAs?$AA?5?$AAa@| DCB "%"
	DCB	0x0, "s", 0x0, ":", 0x0, " ", 0x0, "D", 0x0, "E", 0x0, "B"
	DCB	0x0, "U", 0x0, "G", 0x0, "C", 0x0, "H", 0x0, "K", 0x0, " "
	DCB	0x0, "f", 0x0, "a", 0x0, "i", 0x0, "l", 0x0, "e", 0x0, "d"
	DCB	0x0, " ", 0x0, "i", 0x0, "n", 0x0, " ", 0x0, "f", 0x0, "i"
	DCB	0x0, "l", 0x0, "e", 0x0, " ", 0x0, "%", 0x0, "s", 0x0, " "
	DCB	0x0, "a", 0x0, "t", 0x0, " ", 0x0, "l", 0x0, "i", 0x0, "n"
	DCB	0x0, "e", 0x0, " ", 0x0, "%", 0x0, "d", 0x0, " ", 0x0, 0xd
	DCB	0x0, 0xa, 0x0, 0x0, 0x0			; `string'

  00000			 AREA	 |.rdata|, DATA, READONLY
|??_C@_1BA@LEPJIIOK@?$AAU?$AAn?$AAk?$AAn?$AAo?$AAw?$AAn?$AA?$AA@| DCB "U", 0x0
	DCB	"n", 0x0, "k", 0x0, "n", 0x0, "o", 0x0, "w", 0x0, "n", 0x0
	DCB	0x0, 0x0				; `string'

  00000			 AREA	 |.rdata|, DATA, READONLY
|??_C@_1KE@LMNGDPEK@?$AAC?$AA?3?$AA?2?$AAW?$AAI?$AAN?$AAC?$AAE?$AA6?$AA0?$AA0?$AA?2?$AAP?$AAL?$AAA?$AAT?$AAF?$AAO?$AAR?$AAM?$AA?2?$AAC?$AAO?$AAM?$AAM?$AAO?$AAN?$AA?2?$AAS?$AAR?$AAC?$AA?2@| DCB "C"
	DCB	0x0, ":", 0x0, "\\", 0x0, "W", 0x0, "I", 0x0, "N", 0x0, "C"
	DCB	0x0, "E", 0x0, "6", 0x0, "0", 0x0, "0", 0x0, "\\", 0x0, "P"
	DCB	0x0, "L", 0x0, "A", 0x0, "T", 0x0, "F", 0x0, "O", 0x0, "R"
	DCB	0x0, "M", 0x0, "\\", 0x0, "C", 0x0, "O", 0x0, "M", 0x0, "M"
	DCB	0x0, "O", 0x0, "N", 0x0, "\\", 0x0, "S", 0x0, "R", 0x0, "C"
	DCB	0x0, "\\", 0x0, "S", 0x0, "O", 0x0, "C", 0x0, "\\", 0x0, "C"
	DCB	0x0, "O", 0x0, "M", 0x0, "M", 0x0, "O", 0x0, "N", 0x0, "_"
	DCB	0x0, "T", 0x0, "I", 0x0, "_", 0x0, "V", 0x0, "1", 0x0, "\\"
	DCB	0x0, "C", 0x0, "O", 0x0, "M", 0x0, "M", 0x0, "O", 0x0, "N"
	DCB	0x0, "_", 0x0, "T", 0x0, "I", 0x0, "\\", 0x0, "S", 0x0, "D"
	DCB	0x0, "M", 0x0, "A", 0x0, "\\", 0x0, ".", 0x0, "\\", 0x0, "d"
	DCB	0x0, "m", 0x0, "a", 0x0, "m", 0x0, "e", 0x0, "d", 0x0, "i"
	DCB	0x0, "a", 0x0, "t", 0x0, "o", 0x0, "r", 0x0, ".", 0x0, "c"
	DCB	0x0, "p", 0x0, "p", 0x0, 0x0, 0x0	; `string'

  00000			 AREA	 |.rdata|, DATA, READONLY
|??_C@_1JE@PKCAMNBH@?$AAD?$AAm?$AAa?$AAM?$AAe?$AAd?$AAi?$AAa?$AAt?$AAo?$AAr?$AA?3?$AA?3?$AAS?$AAe?$AAt?$AAE?$AAv?$AAe?$AAn?$AAt?$AAH?$AAa?$AAn?$AAd?$AAl?$AAe?$AAr?$AA?3?$AA?5?$AAS?$AAe@| DCB "D"
	DCB	0x0, "m", 0x0, "a", 0x0, "M", 0x0, "e", 0x0, "d", 0x0, "i"
	DCB	0x0, "a", 0x0, "t", 0x0, "o", 0x0, "r", 0x0, ":", 0x0, ":"
	DCB	0x0, "S", 0x0, "e", 0x0, "t", 0x0, "E", 0x0, "v", 0x0, "e"
	DCB	0x0, "n", 0x0, "t", 0x0, "H", 0x0, "a", 0x0, "n", 0x0, "d"
	DCB	0x0, "l", 0x0, "e", 0x0, "r", 0x0, ":", 0x0, " ", 0x0, "S"
	DCB	0x0, "e", 0x0, "t", 0x0, "t", 0x0, "i", 0x0, "n", 0x0, "g"
	DCB	0x0, " ", 0x0, "e", 0x0, "v", 0x0, "e", 0x0, "n", 0x0, "t"
	DCB	0x0, " ", 0x0, "h", 0x0, "a", 0x0, "n", 0x0, "d", 0x0, "l"
	DCB	0x0, "e", 0x0, "r", 0x0, "(", 0x0, "0", 0x0, "x", 0x0, "%"
	DCB	0x0, "0", 0x0, "8", 0x0, "X", 0x0, ")", 0x0, " ", 0x0, "f"
	DCB	0x0, "o", 0x0, "r", 0x0, " ", 0x0, "i", 0x0, "n", 0x0, "d"
	DCB	0x0, "e", 0x0, "x", 0x0, "(", 0x0, "%", 0x0, "d", 0x0, ")"
	DCB	0x0, 0x0, 0x0				; `string'

  00000			 AREA	 |.rdata|, DATA, READONLY
|??_C@_1JG@PGJEHJF@?$AA?$CL?$AAD?$AAm?$AAa?$AAM?$AAe?$AAd?$AAi?$AAa?$AAt?$AAo?$AAr?$AA?3?$AA?3?$AAS?$AAe?$AAt?$AAE?$AAv?$AAe?$AAn?$AAt?$AAH?$AAa?$AAn?$AAd?$AAl?$AAe?$AAr?$AA?3?$AA?5?$AAi@| DCB "+"
	DCB	0x0, "D", 0x0, "m", 0x0, "a", 0x0, "M", 0x0, "e", 0x0, "d"
	DCB	0x0, "i", 0x0, "a", 0x0, "t", 0x0, "o", 0x0, "r", 0x0, ":"
	DCB	0x0, ":", 0x0, "S", 0x0, "e", 0x0, "t", 0x0, "E", 0x0, "v"
	DCB	0x0, "e", 0x0, "n", 0x0, "t", 0x0, "H", 0x0, "a", 0x0, "n"
	DCB	0x0, "d", 0x0, "l", 0x0, "e", 0x0, "r", 0x0, ":", 0x0, " "
	DCB	0x0, "i", 0x0, "n", 0x0, "d", 0x0, "e", 0x0, "x", 0x0, "="
	DCB	0x0, "%", 0x0, "d", 0x0, ",", 0x0, " ", 0x0, "h", 0x0, "E"
	DCB	0x0, "v", 0x0, "e", 0x0, "n", 0x0, "t", 0x0, "=", 0x0, "0"
	DCB	0x0, "x", 0x0, "%", 0x0, "0", 0x0, "8", 0x0, "X", 0x0, ","
	DCB	0x0, " ", 0x0, "p", 0x0, "r", 0x0, "o", 0x0, "c", 0x0, "e"
	DCB	0x0, "s", 0x0, "s", 0x0, "I", 0x0, "d", 0x0, "=", 0x0, "0"
	DCB	0x0, "x", 0x0, "%", 0x0, "0", 0x0, "8", 0x0, "X", 0x0, 0xd
	DCB	0x0, 0xa, 0x0, 0x0, 0x0			; `string'
; Function compile flags: /Odtp

  00a28			 AREA	 |.text|, CODE, ARM

  00a28		 |?SetEventHandler@DmaMediator@@QAAHHPAXK@Z| PROC ; DmaMediator::SetEventHandler

; 315  : {

  00a28		 |$LN32@SetEventHa|
  00a28	e1a0c00d	 mov         r12, sp
  00a2c	e92d000f	 stmdb       sp!, {r0 - r3}
  00a30	e92d5000	 stmdb       sp!, {r12, lr}
  00a34	e24dd064	 sub         sp, sp, #0x64
  00a38		 |$M36399|

; 316  :     DEBUGMSG(ZONE_FUNCTION, (L"+DmaMediator::SetEventHandler: " 
; 317  :         L"index=%d, hEvent=0x%08X, processId=0x%08X\r\n", 
; 318  :         index, hEvent, processId
; 319  :         ));

  00a38	e59f3400	 ldr         r3, [pc, #0x400]
  00a3c	e5933440	 ldr         r3, [r3, #0x440]
  00a40	e3130004	 tst         r3, #4
  00a44	0a000007	 beq         |$LN12@SetEventHa|
  00a48	e59d3078	 ldr         r3, [sp, #0x78]
  00a4c	e59d2074	 ldr         r2, [sp, #0x74]
  00a50	e59d1070	 ldr         r1, [sp, #0x70]
  00a54	e59f0404	 ldr         r0, [pc, #0x404]
  00a58	eb000000	 bl          NKDbgPrintfW
  00a5c	e3a03001	 mov         r3, #1
  00a60	e58d302c	 str         r3, [sp, #0x2C]
  00a64	ea000001	 b           |$LN13@SetEventHa|
  00a68		 |$LN12@SetEventHa|
  00a68	e3a03000	 mov         r3, #0
  00a6c	e58d302c	 str         r3, [sp, #0x2C]
  00a70		 |$LN13@SetEventHa|

; 320  :     
; 321  :     BOOL rc = FALSE;

  00a70	e3a03000	 mov         r3, #0
  00a74	e58d300c	 str         r3, [sp, #0xC]

; 322  :     HANDLE hLocalHandle = NULL;

  00a78	e3a03000	 mov         r3, #0
  00a7c	e58d3010	 str         r3, [sp, #0x10]

; 323  :     
; 324  :     DEBUGMSG(ZONE_INFO, (L"DmaMediator::SetEventHandler: "
; 325  :         L"Setting event handler(0x%08X) for index(%d)", hEvent, index
; 326  :         ));

  00a80	e59f33b8	 ldr         r3, [pc, #0x3B8]
  00a84	e5933440	 ldr         r3, [r3, #0x440]
  00a88	e3130008	 tst         r3, #8
  00a8c	0a000006	 beq         |$LN14@SetEventHa|
  00a90	e59d2070	 ldr         r2, [sp, #0x70]
  00a94	e59d1074	 ldr         r1, [sp, #0x74]
  00a98	e59f03bc	 ldr         r0, [pc, #0x3BC]
  00a9c	eb000000	 bl          NKDbgPrintfW
  00aa0	e3a03001	 mov         r3, #1
  00aa4	e58d3030	 str         r3, [sp, #0x30]
  00aa8	ea000001	 b           |$LN15@SetEventHa|
  00aac		 |$LN14@SetEventHa|
  00aac	e3a03000	 mov         r3, #0
  00ab0	e58d3030	 str         r3, [sp, #0x30]
  00ab4		 |$LN15@SetEventHa|

; 327  : 
; 328  :     // Disable/Enable interrupts for logical channel
; 329  :     EnableInterrupt(index, hEvent != NULL);

  00ab4	e59d3074	 ldr         r3, [sp, #0x74]
  00ab8	e3530000	 cmp         r3, #0
  00abc	0a000002	 beq         |$LN16@SetEventHa|
  00ac0	e3a03001	 mov         r3, #1
  00ac4	e58d3034	 str         r3, [sp, #0x34]
  00ac8	ea000001	 b           |$LN17@SetEventHa|
  00acc		 |$LN16@SetEventHa|
  00acc	e3a03000	 mov         r3, #0
  00ad0	e58d3034	 str         r3, [sp, #0x34]
  00ad4		 |$LN17@SetEventHa|
  00ad4	e59d2034	 ldr         r2, [sp, #0x34]
  00ad8	e59d1070	 ldr         r1, [sp, #0x70]
  00adc	e59d306c	 ldr         r3, [sp, #0x6C]
  00ae0	e5933000	 ldr         r3, [r3]
  00ae4	e59d006c	 ldr         r0, [sp, #0x6C]
  00ae8	e5933000	 ldr         r3, [r3]
  00aec	e1a0e00f	 mov         lr, pc
  00af0	e12fff13	 bx          r3

; 330  : 
; 331  :     ASSERT(m_pDmaChannelInfo);

  00af4	e59d306c	 ldr         r3, [sp, #0x6C]
  00af8	e283301c	 add         r3, r3, #0x1C
  00afc	e5933000	 ldr         r3, [r3]
  00b00	e3530000	 cmp         r3, #0
  00b04	0a000002	 beq         |$LN18@SetEventHa|
  00b08	e3a03001	 mov         r3, #1
  00b0c	e58d3038	 str         r3, [sp, #0x38]
  00b10	ea000008	 b           |$LN19@SetEventHa|
  00b14		 |$LN18@SetEventHa|
  00b14	e3a03c01	 mov         r3, #1, 24
  00b18	e383304b	 orr         r3, r3, #0x4B
  00b1c	e59f2334	 ldr         r2, [pc, #0x334]
  00b20	e59f132c	 ldr         r1, [pc, #0x32C]
  00b24	e59f0324	 ldr         r0, [pc, #0x324]
  00b28	eb000000	 bl          NKDbgPrintfW
  00b2c	e6000010	 __debugbreak_ce
  00b30	e3a03000	 mov         r3, #0
  00b34	e58d3038	 str         r3, [sp, #0x38]
  00b38		 |$LN19@SetEventHa|

; 332  :     ASSERT(index < m_dmaChannelCount);

  00b38	e59d306c	 ldr         r3, [sp, #0x6C]
  00b3c	e2833018	 add         r3, r3, #0x18
  00b40	e59d2070	 ldr         r2, [sp, #0x70]
  00b44	e5933000	 ldr         r3, [r3]
  00b48	e1520003	 cmp         r2, r3
  00b4c	aa000002	 bge         |$LN20@SetEventHa|
  00b50	e3a03001	 mov         r3, #1
  00b54	e58d303c	 str         r3, [sp, #0x3C]
  00b58	ea000007	 b           |$LN21@SetEventHa|
  00b5c		 |$LN20@SetEventHa|
  00b5c	e3a03f53	 mov         r3, #0x53, 30
  00b60	e59f22f0	 ldr         r2, [pc, #0x2F0]
  00b64	e59f12e8	 ldr         r1, [pc, #0x2E8]
  00b68	e59f02e0	 ldr         r0, [pc, #0x2E0]
  00b6c	eb000000	 bl          NKDbgPrintfW
  00b70	e6000010	 __debugbreak_ce
  00b74	e3a03000	 mov         r3, #0
  00b78	e58d303c	 str         r3, [sp, #0x3C]
  00b7c		 |$LN21@SetEventHa|

; 333  :     if (hEvent != NULL)

  00b7c	e59d3074	 ldr         r3, [sp, #0x74]
  00b80	e3530000	 cmp         r3, #0
  00b84	0a000071	 beq         |$LN9@SetEventHa|

; 334  :         {        
; 335  :         HANDLE hProc;
; 336  :         BOOL bResult;
; 337  :         
; 338  :         // make sure there isn't someone else already registered
; 339  :         if (m_pDmaChannelInfo[index].secondaryEventHandle != NULL)

  00b88	e59d306c	 ldr         r3, [sp, #0x6C]
  00b8c	e283001c	 add         r0, r3, #0x1C
  00b90	e59d1070	 ldr         r1, [sp, #0x70]
  00b94	e3a03008	 mov         r3, #8
  00b98	e0020391	 mul         r2, r1, r3
  00b9c	e5903000	 ldr         r3, [r0]
  00ba0	e0833002	 add         r3, r3, r2
  00ba4	e5933000	 ldr         r3, [r3]
  00ba8	e3530000	 cmp         r3, #0
  00bac	0a00000d	 beq         |$LN8@SetEventHa|

; 340  :             {
; 341  :             RETAILMSG(ZONE_WARN, (L"WARN! DmaMediator::SetEventHandler: "
; 342  :                 L"SIH already exists(%d)\r\n", index
; 343  :                 ));

  00bb0	e59f3288	 ldr         r3, [pc, #0x288]
  00bb4	e5933440	 ldr         r3, [r3, #0x440]
  00bb8	e3130002	 tst         r3, #2
  00bbc	0a000005	 beq         |$LN22@SetEventHa|
  00bc0	e59d1070	 ldr         r1, [sp, #0x70]
  00bc4	e59f0280	 ldr         r0, [pc, #0x280]
  00bc8	eb000000	 bl          NKDbgPrintfW
  00bcc	e3a03001	 mov         r3, #1
  00bd0	e58d3040	 str         r3, [sp, #0x40]
  00bd4	ea000001	 b           |$LN23@SetEventHa|
  00bd8		 |$LN22@SetEventHa|
  00bd8	e3a03000	 mov         r3, #0
  00bdc	e58d3040	 str         r3, [sp, #0x40]
  00be0		 |$LN23@SetEventHa|

; 344  :             goto cleanUp;

  00be0	ea000083	 b           |$LN7@SetEventHa|
  00be4	ea000082	 b           |$cleanUp$36118|
  00be8		 |$LN8@SetEventHa|

; 345  :             }
; 346  : 
; 347  :         // get process handle which owns the event handle
; 348  :         hProc = OpenProcess(0, FALSE, processId);

  00be8	e59d2078	 ldr         r2, [sp, #0x78]
  00bec	e3a01000	 mov         r1, #0
  00bf0	e3a00000	 mov         r0, #0
  00bf4	eb000000	 bl          OpenProcess
  00bf8	e58d0044	 str         r0, [sp, #0x44]
  00bfc	e59d3044	 ldr         r3, [sp, #0x44]
  00c00	e58d3018	 str         r3, [sp, #0x18]

; 349  :         if (hProc == NULL)

  00c04	e59d3018	 ldr         r3, [sp, #0x18]
  00c08	e3530000	 cmp         r3, #0
  00c0c	1a000017	 bne         |$LN6@SetEventHa|

; 350  :             {
; 351  :             RETAILMSG(ZONE_ERROR, (L"ERROR! DmaMediator::SetEventHandler: "
; 352  :                 L"Unable to get process handle (err=0x%08X)\r\n",
; 353  :                 GetLastError()
; 354  :                 ));

  00c10	e59f3228	 ldr         r3, [pc, #0x228]
  00c14	e5933440	 ldr         r3, [r3, #0x440]
  00c18	e3130001	 tst         r3, #1
  00c1c	0a000007	 beq         |$LN24@SetEventHa|
  00c20	eb000000	 bl          GetLastError
  00c24	e58d0048	 str         r0, [sp, #0x48]
  00c28	e59d1048	 ldr         r1, [sp, #0x48]
  00c2c	e59f0214	 ldr         r0, [pc, #0x214]
  00c30	eb000000	 bl          NKDbgPrintfW
  00c34	e3a03001	 mov         r3, #1
  00c38	e58d304c	 str         r3, [sp, #0x4C]
  00c3c	ea000001	 b           |$LN25@SetEventHa|
  00c40		 |$LN24@SetEventHa|
  00c40	e3a03000	 mov         r3, #0
  00c44	e58d304c	 str         r3, [sp, #0x4C]
  00c48		 |$LN25@SetEventHa|

; 355  :             EnableInterrupt(index, FALSE);

  00c48	e3a02000	 mov         r2, #0
  00c4c	e59d1070	 ldr         r1, [sp, #0x70]
  00c50	e59d306c	 ldr         r3, [sp, #0x6C]
  00c54	e5933000	 ldr         r3, [r3]
  00c58	e59d006c	 ldr         r0, [sp, #0x6C]
  00c5c	e5933000	 ldr         r3, [r3]
  00c60	e1a0e00f	 mov         lr, pc
  00c64	e12fff13	 bx          r3
  00c68	ea000061	 b           |$LN5@SetEventHa|

; 356  :             goto cleanUp;

  00c6c	ea000060	 b           |$cleanUp$36118|
  00c70		 |$LN6@SetEventHa|

; 357  :             }
; 358  :         
; 359  :         // create duplicate handle and close process handle
; 360  :         bResult = DuplicateHandle(hProc, hEvent, GetCurrentProcess(),
; 361  :                         &hLocalHandle, 0, FALSE, DUPLICATE_SAME_ACCESS);

  00c70	eb000000	 bl          GetCurrentProcess
  00c74	e58d0050	 str         r0, [sp, #0x50]
  00c78	e3a03002	 mov         r3, #2
  00c7c	e58d3008	 str         r3, [sp, #8]
  00c80	e3a03000	 mov         r3, #0
  00c84	e58d3004	 str         r3, [sp, #4]
  00c88	e3a03000	 mov         r3, #0
  00c8c	e58d3000	 str         r3, [sp]
  00c90	e28d3010	 add         r3, sp, #0x10
  00c94	e59d2050	 ldr         r2, [sp, #0x50]
  00c98	e59d1074	 ldr         r1, [sp, #0x74]
  00c9c	e59d0018	 ldr         r0, [sp, #0x18]
  00ca0	eb000000	 bl          DuplicateHandle
  00ca4	e58d0054	 str         r0, [sp, #0x54]
  00ca8	e59d3054	 ldr         r3, [sp, #0x54]
  00cac	e58d3014	 str         r3, [sp, #0x14]

; 362  : 
; 363  :         CloseHandle(hProc);

  00cb0	e59d0018	 ldr         r0, [sp, #0x18]
  00cb4	eb000000	 bl          CloseHandle

; 364  : 
; 365  :         // check if we have a valid local copy of event handle
; 366  :         if (bResult == FALSE)

  00cb8	e59d3014	 ldr         r3, [sp, #0x14]
  00cbc	e3530000	 cmp         r3, #0
  00cc0	1a000017	 bne         |$LN4@SetEventHa|

; 367  :             {
; 368  :             RETAILMSG(ZONE_ERROR, (L"ERROR! DmaMediator::SetEventHandler: "
; 369  :                 L"unable to duplicate event handle err(0x%08X)\r\n",
; 370  :                 GetLastError()
; 371  :                 ));

  00cc4	e59f3174	 ldr         r3, [pc, #0x174]
  00cc8	e5933440	 ldr         r3, [r3, #0x440]
  00ccc	e3130001	 tst         r3, #1
  00cd0	0a000007	 beq         |$LN26@SetEventHa|
  00cd4	eb000000	 bl          GetLastError
  00cd8	e58d0058	 str         r0, [sp, #0x58]
  00cdc	e59d1058	 ldr         r1, [sp, #0x58]
  00ce0	e59f015c	 ldr         r0, [pc, #0x15C]
  00ce4	eb000000	 bl          NKDbgPrintfW
  00ce8	e3a03001	 mov         r3, #1
  00cec	e58d305c	 str         r3, [sp, #0x5C]
  00cf0	ea000001	 b           |$LN27@SetEventHa|
  00cf4		 |$LN26@SetEventHa|
  00cf4	e3a03000	 mov         r3, #0
  00cf8	e58d305c	 str         r3, [sp, #0x5C]
  00cfc		 |$LN27@SetEventHa|

; 372  :             EnableInterrupt(index, FALSE);

  00cfc	e3a02000	 mov         r2, #0
  00d00	e59d1070	 ldr         r1, [sp, #0x70]
  00d04	e59d306c	 ldr         r3, [sp, #0x6C]
  00d08	e5933000	 ldr         r3, [r3]
  00d0c	e59d006c	 ldr         r0, [sp, #0x6C]
  00d10	e5933000	 ldr         r3, [r3]
  00d14	e1a0e00f	 mov         lr, pc
  00d18	e12fff13	 bx          r3
  00d1c	ea000034	 b           |$LN3@SetEventHa|

; 373  :             goto cleanUp;

  00d20	ea000033	 b           |$cleanUp$36118|
  00d24		 |$LN4@SetEventHa|

; 374  :             }
; 375  : 
; 376  :         // update SIH list
; 377  :         m_ffSIHList |= (1 << index);

  00d24	e59d306c	 ldr         r3, [sp, #0x6C]
  00d28	e2831014	 add         r1, r3, #0x14
  00d2c	e59d2070	 ldr         r2, [sp, #0x70]
  00d30	e3a03001	 mov         r3, #1
  00d34	e1a02213	 mov         r2, r3, lsl r2
  00d38	e5913000	 ldr         r3, [r1]
  00d3c	e1832002	 orr         r2, r3, r2
  00d40	e59d306c	 ldr         r3, [sp, #0x6C]
  00d44	e2833014	 add         r3, r3, #0x14
  00d48	e5832000	 str         r2, [r3]
  00d4c	ea00001d	 b           |$LN2@SetEventHa|
  00d50		 |$LN9@SetEventHa|

; 378  :         
; 379  :         }
; 380  :     else if (m_pDmaChannelInfo[index].secondaryEventHandle != NULL)

  00d50	e59d306c	 ldr         r3, [sp, #0x6C]
  00d54	e283001c	 add         r0, r3, #0x1C
  00d58	e59d1070	 ldr         r1, [sp, #0x70]
  00d5c	e3a03008	 mov         r3, #8
  00d60	e0020391	 mul         r2, r1, r3
  00d64	e5903000	 ldr         r3, [r0]
  00d68	e0833002	 add         r3, r3, r2
  00d6c	e5933000	 ldr         r3, [r3]
  00d70	e3530000	 cmp         r3, #0
  00d74	0a000013	 beq         |$LN1@SetEventHa|

; 381  :         {
; 382  :         // delete old handle if there was one
; 383  :         CloseHandle(m_pDmaChannelInfo[index].secondaryEventHandle);

  00d78	e59d306c	 ldr         r3, [sp, #0x6C]
  00d7c	e283001c	 add         r0, r3, #0x1C
  00d80	e59d1070	 ldr         r1, [sp, #0x70]
  00d84	e3a03008	 mov         r3, #8
  00d88	e0020391	 mul         r2, r1, r3
  00d8c	e5903000	 ldr         r3, [r0]
  00d90	e0833002	 add         r3, r3, r2
  00d94	e5930000	 ldr         r0, [r3]
  00d98	eb000000	 bl          CloseHandle

; 384  : 
; 385  :         // update SIH list
; 386  :         m_ffSIHList &= ~(1 << index);

  00d9c	e59d306c	 ldr         r3, [sp, #0x6C]
  00da0	e2831014	 add         r1, r3, #0x14
  00da4	e59d2070	 ldr         r2, [sp, #0x70]
  00da8	e3a03001	 mov         r3, #1
  00dac	e1a03213	 mov         r3, r3, lsl r2
  00db0	e1e02003	 mvn         r2, r3
  00db4	e5913000	 ldr         r3, [r1]
  00db8	e0032002	 and         r2, r3, r2
  00dbc	e59d306c	 ldr         r3, [sp, #0x6C]
  00dc0	e2833014	 add         r3, r3, #0x14
  00dc4	e5832000	 str         r2, [r3]
  00dc8		 |$LN1@SetEventHa|
  00dc8		 |$LN2@SetEventHa|

; 387  :         }
; 388  : 
; 389  :     m_pDmaChannelInfo[index].secondaryEventHandle = hLocalHandle;

  00dc8	e59d306c	 ldr         r3, [sp, #0x6C]
  00dcc	e283001c	 add         r0, r3, #0x1C
  00dd0	e59d1070	 ldr         r1, [sp, #0x70]
  00dd4	e3a03008	 mov         r3, #8
  00dd8	e0020391	 mul         r2, r1, r3
  00ddc	e5903000	 ldr         r3, [r0]
  00de0	e0832002	 add         r2, r3, r2
  00de4	e59d3010	 ldr         r3, [sp, #0x10]
  00de8	e5823000	 str         r3, [r2]

; 390  : 
; 391  :     rc = TRUE;

  00dec	e3a03001	 mov         r3, #1
  00df0	e58d300c	 str         r3, [sp, #0xC]
  00df4		 |$LN3@SetEventHa|
  00df4		 |$LN5@SetEventHa|
  00df4		 |$LN7@SetEventHa|
  00df4		 |$cleanUp$36118|

; 392  : cleanUp:
; 393  :     DEBUGMSG(ZONE_FUNCTION, (L"-DmaMediator::SetEventHandler(rc=%d)\r\n", rc));

  00df4	e59f3044	 ldr         r3, [pc, #0x44]
  00df8	e5933440	 ldr         r3, [r3, #0x440]
  00dfc	e3130004	 tst         r3, #4
  00e00	0a000005	 beq         |$LN28@SetEventHa|
  00e04	e59d100c	 ldr         r1, [sp, #0xC]
  00e08	e59f002c	 ldr         r0, [pc, #0x2C]
  00e0c	eb000000	 bl          NKDbgPrintfW
  00e10	e3a03001	 mov         r3, #1
  00e14	e58d3060	 str         r3, [sp, #0x60]
  00e18	ea000001	 b           |$LN29@SetEventHa|
  00e1c		 |$LN28@SetEventHa|
  00e1c	e3a03000	 mov         r3, #0
  00e20	e58d3060	 str         r3, [sp, #0x60]
  00e24		 |$LN29@SetEventHa|

; 394  :     return rc;

  00e24	e59d300c	 ldr         r3, [sp, #0xC]
  00e28	e58d3028	 str         r3, [sp, #0x28]

; 395  : }

  00e2c	e59d0028	 ldr         r0, [sp, #0x28]
  00e30	e28dd064	 add         sp, sp, #0x64
  00e34	e89d6000	 ldmia       sp, {sp, lr}
  00e38	e12fff1e	 bx          lr
  00e3c		 |$LN33@SetEventHa|
  00e3c		 |$LN34@SetEventHa|
  00e3c	00000000	 DCD         |??_C@_1EO@EEJOJOJJ@?$AA?9?$AAD?$AAm?$AAa?$AAM?$AAe?$AAd?$AAi?$AAa?$AAt?$AAo?$AAr?$AA?3?$AA?3?$AAS?$AAe?$AAt?$AAE?$AAv?$AAe?$AAn?$AAt?$AAH?$AAa?$AAn?$AAd?$AAl?$AAe?$AAr?$AA?$CI?$AAr?$AAc@|
  00e40		 |$LN35@SetEventHa|
  00e40	00000000	 DCD         |dpCurSettings|
  00e44		 |$LN36@SetEventHa|
  00e44	00000000	 DCD         |??_C@_1KI@KNOHBGEA@?$AAE?$AAR?$AAR?$AAO?$AAR?$AA?$CB?$AA?5?$AAD?$AAm?$AAa?$AAM?$AAe?$AAd?$AAi?$AAa?$AAt?$AAo?$AAr?$AA?3?$AA?3?$AAS?$AAe?$AAt?$AAE?$AAv?$AAe?$AAn?$AAt?$AAH?$AAa?$AAn?$AAd@|
  00e48		 |$LN37@SetEventHa|
  00e48	00000000	 DCD         |??_C@_1KC@PNLANBE@?$AAE?$AAR?$AAR?$AAO?$AAR?$AA?$CB?$AA?5?$AAD?$AAm?$AAa?$AAM?$AAe?$AAd?$AAi?$AAa?$AAt?$AAo?$AAr?$AA?3?$AA?3?$AAS?$AAe?$AAt?$AAE?$AAv?$AAe?$AAn?$AAt?$AAH?$AAa?$AAn?$AAd@|
  00e4c		 |$LN38@SetEventHa|
  00e4c	00000000	 DCD         |??_C@_1HK@FCPGKFG@?$AAW?$AAA?$AAR?$AAN?$AA?$CB?$AA?5?$AAD?$AAm?$AAa?$AAM?$AAe?$AAd?$AAi?$AAa?$AAt?$AAo?$AAr?$AA?3?$AA?3?$AAS?$AAe?$AAt?$AAE?$AAv?$AAe?$AAn?$AAt?$AAH?$AAa?$AAn?$AAd?$AAl@|
  00e50		 |$LN39@SetEventHa|
  00e50	00000000	 DCD         |??_C@_1FK@FNONLNGN@?$AA?$CF?$AAs?$AA?3?$AA?5?$AAD?$AAE?$AAB?$AAU?$AAG?$AAC?$AAH?$AAK?$AA?5?$AAf?$AAa?$AAi?$AAl?$AAe?$AAd?$AA?5?$AAi?$AAn?$AA?5?$AAf?$AAi?$AAl?$AAe?$AA?5?$AA?$CF?$AAs?$AA?5?$AAa@|
  00e54		 |$LN40@SetEventHa|
  00e54	00000000	 DCD         |??_C@_1BA@LEPJIIOK@?$AAU?$AAn?$AAk?$AAn?$AAo?$AAw?$AAn?$AA?$AA@|
  00e58		 |$LN41@SetEventHa|
  00e58	00000000	 DCD         |??_C@_1KE@LMNGDPEK@?$AAC?$AA?3?$AA?2?$AAW?$AAI?$AAN?$AAC?$AAE?$AA6?$AA0?$AA0?$AA?2?$AAP?$AAL?$AAA?$AAT?$AAF?$AAO?$AAR?$AAM?$AA?2?$AAC?$AAO?$AAM?$AAM?$AAO?$AAN?$AA?2?$AAS?$AAR?$AAC?$AA?2@|
  00e5c		 |$LN42@SetEventHa|
  00e5c	00000000	 DCD         |??_C@_1JE@PKCAMNBH@?$AAD?$AAm?$AAa?$AAM?$AAe?$AAd?$AAi?$AAa?$AAt?$AAo?$AAr?$AA?3?$AA?3?$AAS?$AAe?$AAt?$AAE?$AAv?$AAe?$AAn?$AAt?$AAH?$AAa?$AAn?$AAd?$AAl?$AAe?$AAr?$AA?3?$AA?5?$AAS?$AAe@|
  00e60		 |$LN43@SetEventHa|
  00e60	00000000	 DCD         |??_C@_1JG@PGJEHJF@?$AA?$CL?$AAD?$AAm?$AAa?$AAM?$AAe?$AAd?$AAi?$AAa?$AAt?$AAo?$AAr?$AA?3?$AA?3?$AAS?$AAe?$AAt?$AAE?$AAv?$AAe?$AAn?$AAt?$AAH?$AAa?$AAn?$AAd?$AAl?$AAe?$AAr?$AA?3?$AA?5?$AAi@|
  00e64		 |$M36400|

			 ENDP  ; |?SetEventHandler@DmaMediator@@QAAHHPAXK@Z|, DmaMediator::SetEventHandler

; File c:\wince600\public\common\sdk\inc\kfuncs.h

  00000			 AREA	 |.pdata|, PDATA
|$T36419| DCD	|$LN5@GetCurrent|
	DCD	0x40000601
; Function compile flags: /Odtp

  00000			 AREA	 |.text|, CODE, ARM

  00000		 |GetCurrentProcess| PROC

; 361  : _inline HANDLE GetCurrentProcess(void) {

  00000		 |$LN5@GetCurrent|
  00000	e24dd004	 sub         sp, sp, #4
  00004		 |$M36416|

; 362  : 	return ((HANDLE)(SH_CURPROC+SYS_HANDLE_BASE));

  00004	e3a03042	 mov         r3, #0x42
  00008	e58d3000	 str         r3, [sp]

; 363  : }

  0000c	e59d0000	 ldr         r0, [sp]
  00010	e28dd004	 add         sp, sp, #4
  00014	e12fff1e	 bx          lr
  00018		 |$M36417|

			 ENDP  ; |GetCurrentProcess|

	EXPORT	|??_C@_1EE@BKGLOJGI@?$AA?9?$AAD?$AAm?$AAa?$AAM?$AAe?$AAd?$AAi?$AAa?$AAt?$AAo?$AAr?$AA?3?$AA?3?$AAI?$AAn?$AAi?$AAt?$AAi?$AAa?$AAl?$AAi?$AAz?$AAe?$AA?$CI?$AAr?$AAc?$AA?$DN?$AA?$CF?$AAd?$AA?$CJ?$AA?$AN@| [ DATA ] ; `string'
	EXPORT	|??_C@_1IK@BGLCGHBJ@?$AAE?$AAR?$AAR?$AAO?$AAR?$AA?$CB?$AA?5?$AAD?$AAm?$AAa?$AAM?$AAe?$AAd?$AAi?$AAa?$AAt?$AAo?$AAr?$AA?3?$AA?3?$AAI?$AAn?$AAi?$AAt?$AAi?$AAa?$AAl?$AAi?$AAz?$AAe?$AA?3?$AA?5@| [ DATA ] ; `string'
	EXPORT	|??_C@_1HM@KIGJMDBN@?$AAD?$AAm?$AAa?$AAM?$AAe?$AAd?$AAi?$AAa?$AAt?$AAo?$AAr?$AA?3?$AA?3?$AAI?$AAn?$AAi?$AAt?$AAi?$AAa?$AAl?$AAi?$AAz?$AAe?$AA?3?$AA?5?$AAm?$AAe?$AAm?$AAo?$AAr?$AAy?$AA?5@| [ DATA ] ; `string'
	EXPORT	|??_C@_1EK@PPDDAJDL@?$AA?$CL?$AAD?$AAm?$AAa?$AAM?$AAe?$AAd?$AAi?$AAa?$AAt?$AAo?$AAr?$AA?3?$AA?3?$AAI?$AAn?$AAi?$AAt?$AAi?$AAa?$AAl?$AAi?$AAz?$AAe?$AA?3?$AA?5?$AAc?$AAo?$AAu?$AAn?$AAt?$AA?$DN@| [ DATA ] ; `string'
	EXPORT	|?Initialize@DmaMediator@@QAAHHQCUOMAP_DMA_LC_REGS@@@Z| ; DmaMediator::Initialize
	IMPORT	|memset|
	IMPORT	|LocalAlloc|

  00040			 AREA	 |.pdata|, PDATA
|$T36437| DCD	|$LN22@Initialize|
	DCD	0x40009504
; File c:\wince600\platform\common\src\soc\common_ti_v1\common_ti\sdma\dmamediator.cpp

  00000			 AREA	 |.rdata|, DATA, READONLY
|??_C@_1EE@BKGLOJGI@?$AA?9?$AAD?$AAm?$AAa?$AAM?$AAe?$AAd?$AAi?$AAa?$AAt?$AAo?$AAr?$AA?3?$AA?3?$AAI?$AAn?$AAi?$AAt?$AAi?$AAa?$AAl?$AAi?$AAz?$AAe?$AA?$CI?$AAr?$AAc?$AA?$DN?$AA?$CF?$AAd?$AA?$CJ?$AA?$AN@| DCB "-"
	DCB	0x0, "D", 0x0, "m", 0x0, "a", 0x0, "M", 0x0, "e", 0x0, "d"
	DCB	0x0, "i", 0x0, "a", 0x0, "t", 0x0, "o", 0x0, "r", 0x0, ":"
	DCB	0x0, ":", 0x0, "I", 0x0, "n", 0x0, "i", 0x0, "t", 0x0, "i"
	DCB	0x0, "a", 0x0, "l", 0x0, "i", 0x0, "z", 0x0, "e", 0x0, "("
	DCB	0x0, "r", 0x0, "c", 0x0, "=", 0x0, "%", 0x0, "d", 0x0, ")"
	DCB	0x0, 0xd, 0x0, 0xa, 0x0, 0x0, 0x0	; `string'

  00000			 AREA	 |.rdata|, DATA, READONLY
|??_C@_1IK@BGLCGHBJ@?$AAE?$AAR?$AAR?$AAO?$AAR?$AA?$CB?$AA?5?$AAD?$AAm?$AAa?$AAM?$AAe?$AAd?$AAi?$AAa?$AAt?$AAo?$AAr?$AA?3?$AA?3?$AAI?$AAn?$AAi?$AAt?$AAi?$AAa?$AAl?$AAi?$AAz?$AAe?$AA?3?$AA?5@| DCB "E"
	DCB	0x0, "R", 0x0, "R", 0x0, "O", 0x0, "R", 0x0, "!", 0x0, " "
	DCB	0x0, "D", 0x0, "m", 0x0, "a", 0x0, "M", 0x0, "e", 0x0, "d"
	DCB	0x0, "i", 0x0, "a", 0x0, "t", 0x0, "o", 0x0, "r", 0x0, ":"
	DCB	0x0, ":", 0x0, "I", 0x0, "n", 0x0, "i", 0x0, "t", 0x0, "i"
	DCB	0x0, "a", 0x0, "l", 0x0, "i", 0x0, "z", 0x0, "e", 0x0, ":"
	DCB	0x0, " ", 0x0, "m", 0x0, "e", 0x0, "m", 0x0, "o", 0x0, "r"
	DCB	0x0, "y", 0x0, " ", 0x0, "a", 0x0, "l", 0x0, "l", 0x0, "o"
	DCB	0x0, "c", 0x0, "a", 0x0, "t", 0x0, "i", 0x0, "o", 0x0, "n"
	DCB	0x0, " ", 0x0, "f", 0x0, "a", 0x0, "i", 0x0, "l", 0x0, "e"
	DCB	0x0, "d", 0x0, " ", 0x0, "f", 0x0, "o", 0x0, "r", 0x0, " "
	DCB	0x0, "a", 0x0, "r", 0x0, "r", 0x0, "a", 0x0, "y", 0x0, 0xd
	DCB	0x0, 0xa, 0x0, 0x0, 0x0			; `string'

  00000			 AREA	 |.rdata|, DATA, READONLY
|??_C@_1HM@KIGJMDBN@?$AAD?$AAm?$AAa?$AAM?$AAe?$AAd?$AAi?$AAa?$AAt?$AAo?$AAr?$AA?3?$AA?3?$AAI?$AAn?$AAi?$AAt?$AAi?$AAa?$AAl?$AAi?$AAz?$AAe?$AA?3?$AA?5?$AAm?$AAe?$AAm?$AAo?$AAr?$AAy?$AA?5@| DCB "D"
	DCB	0x0, "m", 0x0, "a", 0x0, "M", 0x0, "e", 0x0, "d", 0x0, "i"
	DCB	0x0, "a", 0x0, "t", 0x0, "o", 0x0, "r", 0x0, ":", 0x0, ":"
	DCB	0x0, "I", 0x0, "n", 0x0, "i", 0x0, "t", 0x0, "i", 0x0, "a"
	DCB	0x0, "l", 0x0, "i", 0x0, "z", 0x0, "e", 0x0, ":", 0x0, " "
	DCB	0x0, "m", 0x0, "e", 0x0, "m", 0x0, "o", 0x0, "r", 0x0, "y"
	DCB	0x0, " ", 0x0, "a", 0x0, "l", 0x0, "r", 0x0, "e", 0x0, "a"
	DCB	0x0, "d", 0x0, "y", 0x0, " ", 0x0, "a", 0x0, "l", 0x0, "l"
	DCB	0x0, "o", 0x0, "c", 0x0, "a", 0x0, "t", 0x0, "e", 0x0, "d"
	DCB	0x0, " ", 0x0, "f", 0x0, "o", 0x0, "r", 0x0, " ", 0x0, "a"
	DCB	0x0, "r", 0x0, "r", 0x0, "a", 0x0, "y", 0x0, 0xd, 0x0, 0xa
	DCB	0x0, 0x0, 0x0				; `string'

  00000			 AREA	 |.rdata|, DATA, READONLY
|??_C@_1EK@PPDDAJDL@?$AA?$CL?$AAD?$AAm?$AAa?$AAM?$AAe?$AAd?$AAi?$AAa?$AAt?$AAo?$AAr?$AA?3?$AA?3?$AAI?$AAn?$AAi?$AAt?$AAi?$AAa?$AAl?$AAi?$AAz?$AAe?$AA?3?$AA?5?$AAc?$AAo?$AAu?$AAn?$AAt?$AA?$DN@| DCB "+"
	DCB	0x0, "D", 0x0, "m", 0x0, "a", 0x0, "M", 0x0, "e", 0x0, "d"
	DCB	0x0, "i", 0x0, "a", 0x0, "t", 0x0, "o", 0x0, "r", 0x0, ":"
	DCB	0x0, ":", 0x0, "I", 0x0, "n", 0x0, "i", 0x0, "t", 0x0, "i"
	DCB	0x0, "a", 0x0, "l", 0x0, "i", 0x0, "z", 0x0, "e", 0x0, ":"
	DCB	0x0, " ", 0x0, "c", 0x0, "o", 0x0, "u", 0x0, "n", 0x0, "t"
	DCB	0x0, "=", 0x0, "%", 0x0, "d", 0x0, 0xd, 0x0, 0xa, 0x0, 0x0
	DCB	0x0					; `string'
; Function compile flags: /Odtp

  00e64			 AREA	 |.text|, CODE, ARM

  00e64		 |?Initialize@DmaMediator@@QAAHHQCUOMAP_DMA_LC_REGS@@@Z| PROC ; DmaMediator::Initialize

; 404  : {

  00e64		 |$LN22@Initialize|
  00e64	e1a0c00d	 mov         r12, sp
  00e68	e92d0007	 stmdb       sp!, {r0 - r2}
  00e6c	e92d5000	 stmdb       sp!, {r12, lr}
  00e70	e24dd024	 sub         sp, sp, #0x24
  00e74		 |$M36434|

; 405  :     DEBUGMSG(ZONE_FUNCTION, (L"+DmaMediator::Initialize: " 
; 406  :         L"count=%d\r\n", count
; 407  :         ));

  00e74	e59f3220	 ldr         r3, [pc, #0x220]
  00e78	e5933440	 ldr         r3, [r3, #0x440]
  00e7c	e3130004	 tst         r3, #4
  00e80	0a000005	 beq         |$LN10@Initialize|
  00e84	e59d1030	 ldr         r1, [sp, #0x30]
  00e88	e59f0224	 ldr         r0, [pc, #0x224]
  00e8c	eb000000	 bl          NKDbgPrintfW
  00e90	e3a03001	 mov         r3, #1
  00e94	e58d300c	 str         r3, [sp, #0xC]
  00e98	ea000001	 b           |$LN11@Initialize|
  00e9c		 |$LN10@Initialize|
  00e9c	e3a03000	 mov         r3, #0
  00ea0	e58d300c	 str         r3, [sp, #0xC]
  00ea4		 |$LN11@Initialize|

; 408  : 
; 409  :     BOOL rc = FALSE;

  00ea4	e3a03000	 mov         r3, #0
  00ea8	e58d3000	 str         r3, [sp]

; 410  : 
; 411  :     // make sure memory isn't already allocated
; 412  :     ASSERT(m_pDmaChannelInfo == NULL);

  00eac	e59d302c	 ldr         r3, [sp, #0x2C]
  00eb0	e283301c	 add         r3, r3, #0x1C
  00eb4	e5933000	 ldr         r3, [r3]
  00eb8	e3530000	 cmp         r3, #0
  00ebc	1a000002	 bne         |$LN12@Initialize|
  00ec0	e3a03001	 mov         r3, #1
  00ec4	e58d3010	 str         r3, [sp, #0x10]
  00ec8	ea000007	 b           |$LN13@Initialize|
  00ecc		 |$LN12@Initialize|
  00ecc	e3a03f67	 mov         r3, #0x67, 30
  00ed0	e59f21d8	 ldr         r2, [pc, #0x1D8]
  00ed4	e59f11d0	 ldr         r1, [pc, #0x1D0]
  00ed8	e59f01c8	 ldr         r0, [pc, #0x1C8]
  00edc	eb000000	 bl          NKDbgPrintfW
  00ee0	e6000010	 __debugbreak_ce
  00ee4	e3a03000	 mov         r3, #0
  00ee8	e58d3010	 str         r3, [sp, #0x10]
  00eec		 |$LN13@Initialize|

; 413  :     if (m_pDmaChannelInfo != NULL)

  00eec	e59d302c	 ldr         r3, [sp, #0x2C]
  00ef0	e283301c	 add         r3, r3, #0x1C
  00ef4	e5933000	 ldr         r3, [r3]
  00ef8	e3530000	 cmp         r3, #0
  00efc	0a00000c	 beq         |$LN7@Initialize|

; 414  :         {
; 415  :         RETAILMSG(ZONE_WARN, (L"DmaMediator::Initialize: "
; 416  :             L"memory already allocated for array\r\n"
; 417  :             ));

  00f00	e59f3194	 ldr         r3, [pc, #0x194]
  00f04	e5933440	 ldr         r3, [r3, #0x440]
  00f08	e3130002	 tst         r3, #2
  00f0c	0a000004	 beq         |$LN14@Initialize|
  00f10	e59f018c	 ldr         r0, [pc, #0x18C]
  00f14	eb000000	 bl          NKDbgPrintfW
  00f18	e3a03001	 mov         r3, #1
  00f1c	e58d3014	 str         r3, [sp, #0x14]
  00f20	ea000001	 b           |$LN15@Initialize|
  00f24		 |$LN14@Initialize|
  00f24	e3a03000	 mov         r3, #0
  00f28	e58d3014	 str         r3, [sp, #0x14]
  00f2c		 |$LN15@Initialize|

; 418  :         goto cleanUp;

  00f2c	ea000047	 b           |$LN6@Initialize|
  00f30	ea000046	 b           |$cleanUp$36142|
  00f34		 |$LN7@Initialize|

; 419  :         }
; 420  : 
; 421  :     // allocate memory and initialize
; 422  :     m_pDmaChannelInfo = (DmaChannelInfo_t*)LocalAlloc(LPTR, 
; 423  :                                         sizeof(DmaChannelInfo_t) * count);

  00f34	e59d2030	 ldr         r2, [sp, #0x30]
  00f38	e3a03008	 mov         r3, #8
  00f3c	e0010392	 mul         r1, r2, r3
  00f40	e3a00040	 mov         r0, #0x40
  00f44	eb000000	 bl          LocalAlloc
  00f48	e58d0018	 str         r0, [sp, #0x18]
  00f4c	e59d302c	 ldr         r3, [sp, #0x2C]
  00f50	e283201c	 add         r2, r3, #0x1C
  00f54	e59d3018	 ldr         r3, [sp, #0x18]
  00f58	e5823000	 str         r3, [r2]

; 424  :     if (m_pDmaChannelInfo == NULL)

  00f5c	e59d302c	 ldr         r3, [sp, #0x2C]
  00f60	e283301c	 add         r3, r3, #0x1C
  00f64	e5933000	 ldr         r3, [r3]
  00f68	e3530000	 cmp         r3, #0
  00f6c	1a00000c	 bne         |$LN5@Initialize|

; 425  :         {
; 426  :         RETAILMSG(ZONE_ERROR, (L"ERROR! DmaMediator::Initialize: "
; 427  :             L"memory allocation failed for array\r\n"
; 428  :             ));

  00f70	e59f3124	 ldr         r3, [pc, #0x124]
  00f74	e5933440	 ldr         r3, [r3, #0x440]
  00f78	e3130001	 tst         r3, #1
  00f7c	0a000004	 beq         |$LN16@Initialize|
  00f80	e59f0118	 ldr         r0, [pc, #0x118]
  00f84	eb000000	 bl          NKDbgPrintfW
  00f88	e3a03001	 mov         r3, #1
  00f8c	e58d301c	 str         r3, [sp, #0x1C]
  00f90	ea000001	 b           |$LN17@Initialize|
  00f94		 |$LN16@Initialize|
  00f94	e3a03000	 mov         r3, #0
  00f98	e58d301c	 str         r3, [sp, #0x1C]
  00f9c		 |$LN17@Initialize|

; 429  :         goto cleanUp;

  00f9c	ea00002b	 b           |$LN4@Initialize|
  00fa0	ea00002a	 b           |$cleanUp$36142|
  00fa4		 |$LN5@Initialize|

; 430  :         }
; 431  : 
; 432  :     memset(m_pDmaChannelInfo, 0, sizeof(DmaChannelInfo_t) * count);

  00fa4	e59d1030	 ldr         r1, [sp, #0x30]
  00fa8	e3a03008	 mov         r3, #8
  00fac	e0020391	 mul         r2, r1, r3
  00fb0	e3a01000	 mov         r1, #0
  00fb4	e59d302c	 ldr         r3, [sp, #0x2C]
  00fb8	e283301c	 add         r3, r3, #0x1C
  00fbc	e5930000	 ldr         r0, [r3]
  00fc0	eb000000	 bl          memset

; 433  : 
; 434  :     // copy virtual address of dma logical channels
; 435  :     m_dmaChannelCount = count;

  00fc4	e59d302c	 ldr         r3, [sp, #0x2C]
  00fc8	e2832018	 add         r2, r3, #0x18
  00fcc	e59d3030	 ldr         r3, [sp, #0x30]
  00fd0	e5823000	 str         r3, [r2]

; 436  :     for (int i = 0; i < count; ++i)

  00fd4	e3a03000	 mov         r3, #0
  00fd8	e58d3004	 str         r3, [sp, #4]
  00fdc	ea000002	 b           |$LN3@Initialize|
  00fe0		 |$LN2@Initialize|
  00fe0	e59d3004	 ldr         r3, [sp, #4]
  00fe4	e2833001	 add         r3, r3, #1
  00fe8	e58d3004	 str         r3, [sp, #4]
  00fec		 |$LN3@Initialize|
  00fec	e59d2004	 ldr         r2, [sp, #4]
  00ff0	e59d3030	 ldr         r3, [sp, #0x30]
  00ff4	e1520003	 cmp         r2, r3
  00ff8	aa00000e	 bge         |$LN1@Initialize|

; 437  :         {
; 438  :         m_pDmaChannelInfo[i].pDmaRegs = &rgDmaChannels[i];

  00ffc	e59d1004	 ldr         r1, [sp, #4]
  01000	e3a03060	 mov         r3, #0x60
  01004	e0020391	 mul         r2, r1, r3
  01008	e59d3034	 ldr         r3, [sp, #0x34]
  0100c	e083e002	 add         lr, r3, r2
  01010	e59d302c	 ldr         r3, [sp, #0x2C]
  01014	e283001c	 add         r0, r3, #0x1C
  01018	e59d1004	 ldr         r1, [sp, #4]
  0101c	e3a03008	 mov         r3, #8
  01020	e0020391	 mul         r2, r1, r3
  01024	e5903000	 ldr         r3, [r0]
  01028	e0833002	 add         r3, r3, r2
  0102c	e2833004	 add         r3, r3, #4
  01030	e583e000	 str         lr, [r3]

; 439  :         }

  01034	eaffffe9	 b           |$LN2@Initialize|
  01038		 |$LN1@Initialize|

; 440  : 
; 441  :     m_ffSIHList = 0;

  01038	e59d302c	 ldr         r3, [sp, #0x2C]
  0103c	e2832014	 add         r2, r3, #0x14
  01040	e3a03000	 mov         r3, #0
  01044	e5823000	 str         r3, [r2]

; 442  :     
; 443  :     rc = TRUE;

  01048	e3a03001	 mov         r3, #1
  0104c	e58d3000	 str         r3, [sp]
  01050		 |$LN4@Initialize|
  01050		 |$LN6@Initialize|
  01050		 |$cleanUp$36142|

; 444  : cleanUp:
; 445  :     DEBUGMSG(ZONE_FUNCTION, (L"-DmaMediator::Initialize(rc=%d)\r\n", rc));

  01050	e59f3044	 ldr         r3, [pc, #0x44]
  01054	e5933440	 ldr         r3, [r3, #0x440]
  01058	e3130004	 tst         r3, #4
  0105c	0a000005	 beq         |$LN18@Initialize|
  01060	e59d1000	 ldr         r1, [sp]
  01064	e59f002c	 ldr         r0, [pc, #0x2C]
  01068	eb000000	 bl          NKDbgPrintfW
  0106c	e3a03001	 mov         r3, #1
  01070	e58d3020	 str         r3, [sp, #0x20]
  01074	ea000001	 b           |$LN19@Initialize|
  01078		 |$LN18@Initialize|
  01078	e3a03000	 mov         r3, #0
  0107c	e58d3020	 str         r3, [sp, #0x20]
  01080		 |$LN19@Initialize|

; 446  :     return rc;

  01080	e59d3000	 ldr         r3, [sp]
  01084	e58d3008	 str         r3, [sp, #8]

; 447  : }

  01088	e59d0008	 ldr         r0, [sp, #8]
  0108c	e28dd024	 add         sp, sp, #0x24
  01090	e89d6000	 ldmia       sp, {sp, lr}
  01094	e12fff1e	 bx          lr
  01098		 |$LN23@Initialize|
  01098		 |$LN24@Initialize|
  01098	00000000	 DCD         |??_C@_1EE@BKGLOJGI@?$AA?9?$AAD?$AAm?$AAa?$AAM?$AAe?$AAd?$AAi?$AAa?$AAt?$AAo?$AAr?$AA?3?$AA?3?$AAI?$AAn?$AAi?$AAt?$AAi?$AAa?$AAl?$AAi?$AAz?$AAe?$AA?$CI?$AAr?$AAc?$AA?$DN?$AA?$CF?$AAd?$AA?$CJ?$AA?$AN@|
  0109c		 |$LN25@Initialize|
  0109c	00000000	 DCD         |dpCurSettings|
  010a0		 |$LN26@Initialize|
  010a0	00000000	 DCD         |??_C@_1IK@BGLCGHBJ@?$AAE?$AAR?$AAR?$AAO?$AAR?$AA?$CB?$AA?5?$AAD?$AAm?$AAa?$AAM?$AAe?$AAd?$AAi?$AAa?$AAt?$AAo?$AAr?$AA?3?$AA?3?$AAI?$AAn?$AAi?$AAt?$AAi?$AAa?$AAl?$AAi?$AAz?$AAe?$AA?3?$AA?5@|
  010a4		 |$LN27@Initialize|
  010a4	00000000	 DCD         |??_C@_1HM@KIGJMDBN@?$AAD?$AAm?$AAa?$AAM?$AAe?$AAd?$AAi?$AAa?$AAt?$AAo?$AAr?$AA?3?$AA?3?$AAI?$AAn?$AAi?$AAt?$AAi?$AAa?$AAl?$AAi?$AAz?$AAe?$AA?3?$AA?5?$AAm?$AAe?$AAm?$AAo?$AAr?$AAy?$AA?5@|
  010a8		 |$LN28@Initialize|
  010a8	00000000	 DCD         |??_C@_1FK@FNONLNGN@?$AA?$CF?$AAs?$AA?3?$AA?5?$AAD?$AAE?$AAB?$AAU?$AAG?$AAC?$AAH?$AAK?$AA?5?$AAf?$AAa?$AAi?$AAl?$AAe?$AAd?$AA?5?$AAi?$AAn?$AA?5?$AAf?$AAi?$AAl?$AAe?$AA?5?$AA?$CF?$AAs?$AA?5?$AAa@|
  010ac		 |$LN29@Initialize|
  010ac	00000000	 DCD         |??_C@_1BA@LEPJIIOK@?$AAU?$AAn?$AAk?$AAn?$AAo?$AAw?$AAn?$AA?$AA@|
  010b0		 |$LN30@Initialize|
  010b0	00000000	 DCD         |??_C@_1KE@LMNGDPEK@?$AAC?$AA?3?$AA?2?$AAW?$AAI?$AAN?$AAC?$AAE?$AA6?$AA0?$AA0?$AA?2?$AAP?$AAL?$AAA?$AAT?$AAF?$AAO?$AAR?$AAM?$AA?2?$AAC?$AAO?$AAM?$AAM?$AAO?$AAN?$AA?2?$AAS?$AAR?$AAC?$AA?2@|
  010b4		 |$LN31@Initialize|
  010b4	00000000	 DCD         |??_C@_1EK@PPDDAJDL@?$AA?$CL?$AAD?$AAm?$AAa?$AAM?$AAe?$AAd?$AAi?$AAa?$AAt?$AAo?$AAr?$AA?3?$AA?3?$AAI?$AAn?$AAi?$AAt?$AAi?$AAa?$AAl?$AAi?$AAz?$AAe?$AA?3?$AA?5?$AAc?$AAo?$AAu?$AAn?$AAt?$AA?$DN@|
  010b8		 |$M36435|

			 ENDP  ; |?Initialize@DmaMediator@@QAAHHQCUOMAP_DMA_LC_REGS@@@Z|, DmaMediator::Initialize

	EXPORT	|??_C@_1DK@FDEJMKEB@?$AA?9?$AAD?$AAm?$AAa?$AAM?$AAe?$AAd?$AAi?$AAa?$AAt?$AAo?$AAr?$AA?3?$AA?3?$AAU?$AAn?$AAi?$AAn?$AAi?$AAt?$AAi?$AAa?$AAl?$AAi?$AAz?$AAe?$AA?$AN?$AA?6?$AA?$AA@| [ DATA ] ; `string'
	EXPORT	|??_C@_1DK@DGKKONGK@?$AA?$CL?$AAD?$AAm?$AAa?$AAM?$AAe?$AAd?$AAi?$AAa?$AAt?$AAo?$AAr?$AA?3?$AA?3?$AAU?$AAn?$AAi?$AAn?$AAi?$AAt?$AAi?$AAa?$AAl?$AAi?$AAz?$AAe?$AA?$AN?$AA?6?$AA?$AA@| [ DATA ] ; `string'
	EXPORT	|?Uninitialize@DmaMediator@@QAAXXZ|	; DmaMediator::Uninitialize
	IMPORT	|LocalFree|

  00048			 AREA	 |.pdata|, PDATA
|$T36455| DCD	|$LN14@Uninitiali|
	DCD	0x40004f04

  00000			 AREA	 |.rdata|, DATA, READONLY
|??_C@_1DK@FDEJMKEB@?$AA?9?$AAD?$AAm?$AAa?$AAM?$AAe?$AAd?$AAi?$AAa?$AAt?$AAo?$AAr?$AA?3?$AA?3?$AAU?$AAn?$AAi?$AAn?$AAi?$AAt?$AAi?$AAa?$AAl?$AAi?$AAz?$AAe?$AA?$AN?$AA?6?$AA?$AA@| DCB "-"
	DCB	0x0, "D", 0x0, "m", 0x0, "a", 0x0, "M", 0x0, "e", 0x0, "d"
	DCB	0x0, "i", 0x0, "a", 0x0, "t", 0x0, "o", 0x0, "r", 0x0, ":"
	DCB	0x0, ":", 0x0, "U", 0x0, "n", 0x0, "i", 0x0, "n", 0x0, "i"
	DCB	0x0, "t", 0x0, "i", 0x0, "a", 0x0, "l", 0x0, "i", 0x0, "z"
	DCB	0x0, "e", 0x0, 0xd, 0x0, 0xa, 0x0, 0x0, 0x0 ; `string'

  00000			 AREA	 |.rdata|, DATA, READONLY
|??_C@_1DK@DGKKONGK@?$AA?$CL?$AAD?$AAm?$AAa?$AAM?$AAe?$AAd?$AAi?$AAa?$AAt?$AAo?$AAr?$AA?3?$AA?3?$AAU?$AAn?$AAi?$AAn?$AAi?$AAt?$AAi?$AAa?$AAl?$AAi?$AAz?$AAe?$AA?$AN?$AA?6?$AA?$AA@| DCB "+"
	DCB	0x0, "D", 0x0, "m", 0x0, "a", 0x0, "M", 0x0, "e", 0x0, "d"
	DCB	0x0, "i", 0x0, "a", 0x0, "t", 0x0, "o", 0x0, "r", 0x0, ":"
	DCB	0x0, ":", 0x0, "U", 0x0, "n", 0x0, "i", 0x0, "n", 0x0, "i"
	DCB	0x0, "t", 0x0, "i", 0x0, "a", 0x0, "l", 0x0, "i", 0x0, "z"
	DCB	0x0, "e", 0x0, 0xd, 0x0, 0xa, 0x0, 0x0, 0x0 ; `string'
; Function compile flags: /Odtp

  010b8			 AREA	 |.text|, CODE, ARM

  010b8		 |?Uninitialize@DmaMediator@@QAAXXZ| PROC ; DmaMediator::Uninitialize

; 453  : {

  010b8		 |$LN14@Uninitiali|
  010b8	e1a0c00d	 mov         r12, sp
  010bc	e92d0001	 stmdb       sp!, {r0}
  010c0	e92d5000	 stmdb       sp!, {r12, lr}
  010c4	e24dd00c	 sub         sp, sp, #0xC
  010c8		 |$M36452|

; 454  :     DEBUGMSG(ZONE_FUNCTION, (L"+DmaMediator::Uninitialize\r\n"));

  010c8	e59f311c	 ldr         r3, [pc, #0x11C]
  010cc	e5933440	 ldr         r3, [r3, #0x440]
  010d0	e3130004	 tst         r3, #4
  010d4	0a000004	 beq         |$LN8@Uninitiali|
  010d8	e59f0110	 ldr         r0, [pc, #0x110]
  010dc	eb000000	 bl          NKDbgPrintfW
  010e0	e3a03001	 mov         r3, #1
  010e4	e58d3004	 str         r3, [sp, #4]
  010e8	ea000001	 b           |$LN9@Uninitiali|
  010ec		 |$LN8@Uninitiali|
  010ec	e3a03000	 mov         r3, #0
  010f0	e58d3004	 str         r3, [sp, #4]
  010f4		 |$LN9@Uninitiali|

; 455  : 
; 456  :     // stop interrupt thread
; 457  :     StopInterruptHandler();

  010f4	e59d0014	 ldr         r0, [sp, #0x14]
  010f8	eb000000	 bl          |?StopInterruptHandler@DmaMediator@@QAAXXZ|

; 458  :     
; 459  :     if (m_pDmaChannelInfo != NULL)

  010fc	e59d3014	 ldr         r3, [sp, #0x14]
  01100	e283301c	 add         r3, r3, #0x1C
  01104	e5933000	 ldr         r3, [r3]
  01108	e3530000	 cmp         r3, #0
  0110c	0a000027	 beq         |$LN5@Uninitiali|

; 460  :         {
; 461  :         // free local copy of handles
; 462  :         for (int i = 0; i < m_dmaChannelCount; ++i)

  01110	e3a03000	 mov         r3, #0
  01114	e58d3000	 str         r3, [sp]
  01118	ea000002	 b           |$LN4@Uninitiali|
  0111c		 |$LN3@Uninitiali|
  0111c	e59d3000	 ldr         r3, [sp]
  01120	e2833001	 add         r3, r3, #1
  01124	e58d3000	 str         r3, [sp]
  01128		 |$LN4@Uninitiali|
  01128	e59d3014	 ldr         r3, [sp, #0x14]
  0112c	e2833018	 add         r3, r3, #0x18
  01130	e59d2000	 ldr         r2, [sp]
  01134	e5933000	 ldr         r3, [r3]
  01138	e1520003	 cmp         r2, r3
  0113c	aa000013	 bge         |$LN2@Uninitiali|

; 463  :             {
; 464  :             if (m_pDmaChannelInfo[i].secondaryEventHandle != NULL)

  01140	e59d3014	 ldr         r3, [sp, #0x14]
  01144	e283001c	 add         r0, r3, #0x1C
  01148	e59d1000	 ldr         r1, [sp]
  0114c	e3a03008	 mov         r3, #8
  01150	e0020391	 mul         r2, r1, r3
  01154	e5903000	 ldr         r3, [r0]
  01158	e0833002	 add         r3, r3, r2
  0115c	e5933000	 ldr         r3, [r3]
  01160	e3530000	 cmp         r3, #0
  01164	0a000008	 beq         |$LN1@Uninitiali|

; 465  :                 {
; 466  :                 CloseHandle(m_pDmaChannelInfo[i].secondaryEventHandle);

  01168	e59d3014	 ldr         r3, [sp, #0x14]
  0116c	e283001c	 add         r0, r3, #0x1C
  01170	e59d1000	 ldr         r1, [sp]
  01174	e3a03008	 mov         r3, #8
  01178	e0020391	 mul         r2, r1, r3
  0117c	e5903000	 ldr         r3, [r0]
  01180	e0833002	 add         r3, r3, r2
  01184	e5930000	 ldr         r0, [r3]
  01188	eb000000	 bl          CloseHandle
  0118c		 |$LN1@Uninitiali|

; 467  :                 }
; 468  :             }

  0118c	eaffffe2	 b           |$LN3@Uninitiali|
  01190		 |$LN2@Uninitiali|

; 469  : 
; 470  :         // free memory
; 471  :         LocalFree(m_pDmaChannelInfo);

  01190	e59d3014	 ldr         r3, [sp, #0x14]
  01194	e283301c	 add         r3, r3, #0x1C
  01198	e5930000	 ldr         r0, [r3]
  0119c	eb000000	 bl          LocalFree

; 472  :         m_pDmaChannelInfo = NULL;

  011a0	e59d3014	 ldr         r3, [sp, #0x14]
  011a4	e283201c	 add         r2, r3, #0x1C
  011a8	e3a03000	 mov         r3, #0
  011ac	e5823000	 str         r3, [r2]
  011b0		 |$LN5@Uninitiali|

; 473  :         }
; 474  : 
; 475  :     DEBUGMSG(ZONE_FUNCTION, (L"-DmaMediator::Uninitialize\r\n"));

  011b0	e59f3034	 ldr         r3, [pc, #0x34]
  011b4	e5933440	 ldr         r3, [r3, #0x440]
  011b8	e3130004	 tst         r3, #4
  011bc	0a000004	 beq         |$LN10@Uninitiali|
  011c0	e59f0020	 ldr         r0, [pc, #0x20]
  011c4	eb000000	 bl          NKDbgPrintfW
  011c8	e3a03001	 mov         r3, #1
  011cc	e58d3008	 str         r3, [sp, #8]
  011d0	ea000001	 b           |$LN11@Uninitiali|
  011d4		 |$LN10@Uninitiali|
  011d4	e3a03000	 mov         r3, #0
  011d8	e58d3008	 str         r3, [sp, #8]
  011dc		 |$LN11@Uninitiali|

; 476  : }

  011dc	e28dd00c	 add         sp, sp, #0xC
  011e0	e89d6000	 ldmia       sp, {sp, lr}
  011e4	e12fff1e	 bx          lr
  011e8		 |$LN15@Uninitiali|
  011e8		 |$LN16@Uninitiali|
  011e8	00000000	 DCD         |??_C@_1DK@FDEJMKEB@?$AA?9?$AAD?$AAm?$AAa?$AAM?$AAe?$AAd?$AAi?$AAa?$AAt?$AAo?$AAr?$AA?3?$AA?3?$AAU?$AAn?$AAi?$AAn?$AAi?$AAt?$AAi?$AAa?$AAl?$AAi?$AAz?$AAe?$AA?$AN?$AA?6?$AA?$AA@|
  011ec		 |$LN17@Uninitiali|
  011ec	00000000	 DCD         |dpCurSettings|
  011f0		 |$LN18@Uninitiali|
  011f0	00000000	 DCD         |??_C@_1DK@DGKKONGK@?$AA?$CL?$AAD?$AAm?$AAa?$AAM?$AAe?$AAd?$AAi?$AAa?$AAt?$AAo?$AAr?$AA?3?$AA?3?$AAU?$AAn?$AAi?$AAn?$AAi?$AAt?$AAi?$AAa?$AAl?$AAi?$AAz?$AAe?$AA?$AN?$AA?6?$AA?$AA@|
  011f4		 |$M36453|

			 ENDP  ; |?Uninitialize@DmaMediator@@QAAXXZ|, DmaMediator::Uninitialize

	END
