; Listing generated by Microsoft (R) Optimizing Compiler Version 14.01.60511.01 

	TTL	C:\WINCE600\PLATFORM\COMMON\SRC\SOC\PXA27X_MS_V1\DISPLAY\PXA27X_LCD\halcaps.cpp
	CODE32

  00000			 AREA	 |.drectve|, DRECTVE
	DCB	"-defaultlib:LIBCMT "
	DCB	"-defaultlib:OLDNAMES "

	EXPORT	|?cbDDCallbacks@@3U_DDHAL_DDCALLBACKS@@A| [ DATA ] ; cbDDCallbacks
	EXPORT	|?cbDDSurfaceCallbacks@@3U_DDHAL_DDSURFACECALLBACKS@@A| [ DATA ] ; cbDDSurfaceCallbacks
	EXPORT	|?g_nVideoMemorySize@@3KA| [ DATA ]	; g_nVideoMemorySize
	EXPORT	|?g_pVideoMemory@@3PAEA| [ DATA ]	; g_pVideoMemory
	EXPORT	|?g_nTransparentColor@@3KA| [ DATA ]	; g_nTransparentColor
	IMPORT	|DDGPESetColorKey|
	IMPORT	|DDGPEUnlock|
	IMPORT	|DDGPELock|
	IMPORT	|DDGPEDestroySurface|
	IMPORT	|DDGPECanCreateSurface|
	IMPORT	|DDGPEWaitForVerticalBlank|
	IMPORT	|DDGPECreateSurface|

  00000			 AREA	 |.bss|, NOINIT
|?g_nVideoMemorySize@@3KA| % 0x4			; g_nVideoMemorySize
|?g_pVideoMemory@@3PAEA| % 0x4				; g_pVideoMemory
|?g_nTransparentColor@@3KA| % 0x4			; g_nTransparentColor

  00000			 AREA	 |.data|, DATA
|?cbDDCallbacks@@3U_DDHAL_DDCALLBACKS@@A| DCD 0x1c	; cbDDCallbacks
	DCD	0x7
	DCD	|DDGPECreateSurface|
	DCD	|DDGPEWaitForVerticalBlank|
	DCD	|DDGPECanCreateSurface|
	DCD	0x0
	DCD	0x0
|?cbDDSurfaceCallbacks@@3U_DDHAL_DDSURFACECALLBACKS@@A| DCD 0x30 ; cbDDSurfaceCallbacks
	DCD	0x1d
	DCD	|DDGPEDestroySurface|
	DCD	0x0
	DCD	|DDGPELock|
	DCD	|DDGPEUnlock|
	DCD	|DDGPESetColorKey|
	DCD	0x0
	DCD	0x0
	DCD	0x0
	DCD	0x0
	DCD	0x0

  00000			 AREA	 |.rdata|, DATA, READONLY
|FourCCDescriptionTable| DCD 0x32595559
	DCD	0x10
	DCD	0xff00ff
	DCD	0xff00
	DCD	0xff000000
	DCD	0x56595559
	DCD	0x10
	DCD	0xff00ff
	DCD	0xff00
	DCD	0xff000000
	DCD	0x55595659
	DCD	0x10
	DCD	0xff00ff00
	DCD	0xff
	DCD	0xff0000
	DCD	0x59565955
	DCD	0x10
	DCD	0xff00ff00
	DCD	0xff
	DCD	0xff0000
	DCD	0x36315659
	DCD	0x10
	DCD	0xffffffff
	DCD	0xffffffff
	DCD	0xffffffff
	DCD	0x32315659
	DCD	0xc
	DCD	0xffffffff
	DCD	0xffffffff
	DCD	0xffffffff
	DCD	0x3231564e
	DCD	0xc
	DCD	0xffffffff
	DCD	0xffffffff
	DCD	0xffffffff
	DCD	0x30323449
	DCD	0xc
	DCD	0xffffffff
	DCD	0xffffffff
	DCD	0xffffffff
	DCD	0x56555949
	DCD	0xc
	DCD	0xffffffff
	DCD	0xffffffff
	DCD	0xffffffff
	EXPORT	|??_C@_1CM@JGLFDINH@?$AAL?$AAe?$AAa?$AAv?$AAi?$AAn?$AAg?$AA?5?$AAf?$AAu?$AAn?$AAc?$AAt?$AAi?$AAo?$AAn?$AA?5?$AA?$CF?$AAs?$AA?$AN?$AA?6?$AA?$AA@| [ DATA ] ; `string'
	EXPORT	|??_C@_1CO@ENKLBDPK@?$AAE?$AAn?$AAt?$AAe?$AAr?$AAi?$AAn?$AAg?$AA?5?$AAf?$AAu?$AAn?$AAc?$AAt?$AAi?$AAo?$AAn?$AA?5?$AA?$CF?$AAs?$AA?$AN?$AA?6?$AA?$AA@| [ DATA ] ; `string'
	EXPORT	|??_C@_1CC@KCLGEPJA@?$AAH?$AAa?$AAl?$AAG?$AAe?$AAt?$AAD?$AAr?$AAi?$AAv?$AAe?$AAr?$AAI?$AAn?$AAf?$AAo?$AA?$AA@| [ DATA ] ; `string'
	EXPORT	|?HalGetDriverInfo@@YAKPAU_DDHAL_GETDRIVERINFODATA@@@Z| ; HalGetDriverInfo
	IMPORT	|NKDbgPrintfW|
	IMPORT	|dpCurSettings|

  00000			 AREA	 |.pdata|, PDATA
|$T36172| DCD	|$LN9@HalGetDriv|
	DCD	0x40002b04
; File c:\wince600\platform\common\src\soc\pxa27x_ms_v1\display\pxa27x_lcd\halcaps.cpp

  00000			 AREA	 |.rdata|, DATA, READONLY
|??_C@_1CM@JGLFDINH@?$AAL?$AAe?$AAa?$AAv?$AAi?$AAn?$AAg?$AA?5?$AAf?$AAu?$AAn?$AAc?$AAt?$AAi?$AAo?$AAn?$AA?5?$AA?$CF?$AAs?$AA?$AN?$AA?6?$AA?$AA@| DCB "L"
	DCB	0x0, "e", 0x0, "a", 0x0, "v", 0x0, "i", 0x0, "n", 0x0, "g"
	DCB	0x0, " ", 0x0, "f", 0x0, "u", 0x0, "n", 0x0, "c", 0x0, "t"
	DCB	0x0, "i", 0x0, "o", 0x0, "n", 0x0, " ", 0x0, "%", 0x0, "s"
	DCB	0x0, 0xd, 0x0, 0xa, 0x0, 0x0, 0x0	; `string'

  00000			 AREA	 |.rdata|, DATA, READONLY
|??_C@_1CO@ENKLBDPK@?$AAE?$AAn?$AAt?$AAe?$AAr?$AAi?$AAn?$AAg?$AA?5?$AAf?$AAu?$AAn?$AAc?$AAt?$AAi?$AAo?$AAn?$AA?5?$AA?$CF?$AAs?$AA?$AN?$AA?6?$AA?$AA@| DCB "E"
	DCB	0x0, "n", 0x0, "t", 0x0, "e", 0x0, "r", 0x0, "i", 0x0, "n"
	DCB	0x0, "g", 0x0, " ", 0x0, "f", 0x0, "u", 0x0, "n", 0x0, "c"
	DCB	0x0, "t", 0x0, "i", 0x0, "o", 0x0, "n", 0x0, " ", 0x0, "%"
	DCB	0x0, "s", 0x0, 0xd, 0x0, 0xa, 0x0, 0x0, 0x0 ; `string'

  00000			 AREA	 |.rdata|, DATA, READONLY
|??_C@_1CC@KCLGEPJA@?$AAH?$AAa?$AAl?$AAG?$AAe?$AAt?$AAD?$AAr?$AAi?$AAv?$AAe?$AAr?$AAI?$AAn?$AAf?$AAo?$AA?$AA@| DCB "H"
	DCB	0x0, "a", 0x0, "l", 0x0, "G", 0x0, "e", 0x0, "t", 0x0, "D"
	DCB	0x0, "r", 0x0, "i", 0x0, "v", 0x0, "e", 0x0, "r", 0x0, "I"
	DCB	0x0, "n", 0x0, "f", 0x0, "o", 0x0, 0x0, 0x0 ; `string'
; Function compile flags: /Odtp

  00000			 AREA	 |.text|, CODE, ARM

  00000		 |?HalGetDriverInfo@@YAKPAU_DDHAL_GETDRIVERINFODATA@@@Z| PROC ; HalGetDriverInfo

; 82   : {

  00000		 |$LN9@HalGetDriv|
  00000	e1a0c00d	 mov         r12, sp
  00004	e92d0001	 stmdb       sp!, {r0}
  00008	e92d5000	 stmdb       sp!, {r12, lr}
  0000c	e24dd00c	 sub         sp, sp, #0xC
  00010		 |$M36169|

; 83   :     DEBUGENTER( HalGetDriverInfo );

  00010	e59f3088	 ldr         r3, [pc, #0x88]
  00014	e5933440	 ldr         r3, [r3, #0x440]
  00018	e3130010	 tst         r3, #0x10
  0001c	0a000005	 beq         |$LN3@HalGetDriv|
  00020	e59f1074	 ldr         r1, [pc, #0x74]
  00024	e59f007c	 ldr         r0, [pc, #0x7C]
  00028	eb000000	 bl          NKDbgPrintfW
  0002c	e3a03001	 mov         r3, #1
  00030	e58d3004	 str         r3, [sp, #4]
  00034	ea000001	 b           |$LN4@HalGetDriv|
  00038		 |$LN3@HalGetDriv|
  00038	e3a03000	 mov         r3, #0
  0003c	e58d3004	 str         r3, [sp, #4]
  00040		 |$LN4@HalGetDriv|

; 84   : 
; 85   :     lpInput->ddRVal = DDERR_CURRENTLYNOTAVAIL;

  00040	e59d3014	 ldr         r3, [sp, #0x14]
  00044	e2832028	 add         r2, r3, #0x28
  00048	e59f3054	 ldr         r3, [pc, #0x54]
  0004c	e5823000	 str         r3, [r2]

; 86   : 
; 87   :     DEBUGLEAVE( HalGetDriverInfo );

  00050	e59f3048	 ldr         r3, [pc, #0x48]
  00054	e5933440	 ldr         r3, [r3, #0x440]
  00058	e3130010	 tst         r3, #0x10
  0005c	0a000005	 beq         |$LN5@HalGetDriv|
  00060	e59f1034	 ldr         r1, [pc, #0x34]
  00064	e59f002c	 ldr         r0, [pc, #0x2C]
  00068	eb000000	 bl          NKDbgPrintfW
  0006c	e3a03001	 mov         r3, #1
  00070	e58d3008	 str         r3, [sp, #8]
  00074	ea000001	 b           |$LN6@HalGetDriv|
  00078		 |$LN5@HalGetDriv|
  00078	e3a03000	 mov         r3, #0
  0007c	e58d3008	 str         r3, [sp, #8]
  00080		 |$LN6@HalGetDriv|

; 88   : 
; 89   :     return (DDHAL_DRIVER_HANDLED);

  00080	e3a03001	 mov         r3, #1
  00084	e58d3000	 str         r3, [sp]

; 90   : }

  00088	e59d0000	 ldr         r0, [sp]
  0008c	e28dd00c	 add         sp, sp, #0xC
  00090	e89d6000	 ldmia       sp, {sp, lr}
  00094	e12fff1e	 bx          lr
  00098		 |$LN10@HalGetDriv|
  00098		 |$LN11@HalGetDriv|
  00098	00000000	 DCD         |??_C@_1CM@JGLFDINH@?$AAL?$AAe?$AAa?$AAv?$AAi?$AAn?$AAg?$AA?5?$AAf?$AAu?$AAn?$AAc?$AAt?$AAi?$AAo?$AAn?$AA?5?$AA?$CF?$AAs?$AA?$AN?$AA?6?$AA?$AA@|
  0009c		 |$LN12@HalGetDriv|
  0009c	00000000	 DCD         |??_C@_1CC@KCLGEPJA@?$AAH?$AAa?$AAl?$AAG?$AAe?$AAt?$AAD?$AAr?$AAi?$AAv?$AAe?$AAr?$AAI?$AAn?$AAf?$AAo?$AA?$AA@|
  000a0		 |$LN13@HalGetDriv|
  000a0	00000000	 DCD         |dpCurSettings|
  000a4		 |$LN14@HalGetDriv|
  000a4	88760028	 DCD         0x88760028
  000a8		 |$LN15@HalGetDriv|
  000a8	00000000	 DCD         |??_C@_1CO@ENKLBDPK@?$AAE?$AAn?$AAt?$AAe?$AAr?$AAi?$AAn?$AAg?$AA?5?$AAf?$AAu?$AAn?$AAc?$AAt?$AAi?$AAo?$AAn?$AA?5?$AA?$CF?$AAs?$AA?$AN?$AA?6?$AA?$AA@|
  000ac		 |$M36170|

			 ENDP  ; |?HalGetDriverInfo@@YAKPAU_DDHAL_GETDRIVERINFODATA@@@Z|, HalGetDriverInfo

	EXPORT	|??_C@_1CA@PJINHLOP@?$AAg?$AAp?$AAV?$AAi?$AAd?$AAM?$AAe?$AAm?$AA?$DN?$AA?$CF?$AA0?$AA8?$AAx?$AA?$AN?$AA?6?$AA?$AA@| [ DATA ] ; `string'
	EXPORT	|??_C@_1GK@JAOOLBDE@?$AAG?$AAe?$AAt?$AAV?$AAi?$AAr?$AAt?$AAu?$AAa?$AAl?$AAV?$AAi?$AAd?$AAe?$AAo?$AAM?$AAe?$AAm?$AAo?$AAr?$AAy?$AA?5?$AAr?$AAe?$AAt?$AAu?$AAr?$AAn?$AAe?$AAd?$AA?5?$AAa@| [ DATA ] ; `string'
	EXPORT	|buildDDHALInfo|
	IMPORT	|?GetVirtualVideoMemory@SA2Video@@QAAXPAK0@Z| ; SA2Video::GetVirtualVideoMemory
	IMPORT	|?GetDDGPE@@YAPAVDDGPE@@XZ|		; GetDDGPE
	IMPORT	|memset|

  00008			 AREA	 |.pdata|, PDATA
|$T36187| DCD	|$LN10@buildDDHAL|
	DCD	0x40008204

  00000			 AREA	 |.rdata|, DATA, READONLY
|??_C@_1CA@PJINHLOP@?$AAg?$AAp?$AAV?$AAi?$AAd?$AAM?$AAe?$AAm?$AA?$DN?$AA?$CF?$AA0?$AA8?$AAx?$AA?$AN?$AA?6?$AA?$AA@| DCB "g"
	DCB	0x0, "p", 0x0, "V", 0x0, "i", 0x0, "d", 0x0, "M", 0x0, "e"
	DCB	0x0, "m", 0x0, "=", 0x0, "%", 0x0, "0", 0x0, "8", 0x0, "x"
	DCB	0x0, 0xd, 0x0, 0xa, 0x0, 0x0, 0x0	; `string'

  00000			 AREA	 |.rdata|, DATA, READONLY
|??_C@_1GK@JAOOLBDE@?$AAG?$AAe?$AAt?$AAV?$AAi?$AAr?$AAt?$AAu?$AAa?$AAl?$AAV?$AAi?$AAd?$AAe?$AAo?$AAM?$AAe?$AAm?$AAo?$AAr?$AAy?$AA?5?$AAr?$AAe?$AAt?$AAu?$AAr?$AAn?$AAe?$AAd?$AA?5?$AAa@| DCB "G"
	DCB	0x0, "e", 0x0, "t", 0x0, "V", 0x0, "i", 0x0, "r", 0x0, "t"
	DCB	0x0, "u", 0x0, "a", 0x0, "l", 0x0, "V", 0x0, "i", 0x0, "d"
	DCB	0x0, "e", 0x0, "o", 0x0, "M", 0x0, "e", 0x0, "m", 0x0, "o"
	DCB	0x0, "r", 0x0, "y", 0x0, " ", 0x0, "r", 0x0, "e", 0x0, "t"
	DCB	0x0, "u", 0x0, "r", 0x0, "n", 0x0, "e", 0x0, "d", 0x0, " "
	DCB	0x0, "a", 0x0, "d", 0x0, "d", 0x0, "r", 0x0, "=", 0x0, "0"
	DCB	0x0, "x", 0x0, "%", 0x0, "0", 0x0, "8", 0x0, "x", 0x0, " "
	DCB	0x0, "s", 0x0, "i", 0x0, "z", 0x0, "e", 0x0, "=", 0x0, "%"
	DCB	0x0, "d", 0x0, 0xd, 0x0, 0xa, 0x0, 0x0, 0x0 ; `string'
; Function compile flags: /Odtp

  000ac			 AREA	 |.text|, CODE, ARM

  000ac		 |buildDDHALInfo| PROC

; 93   : {

  000ac		 |$LN10@buildDDHAL|
  000ac	e1a0c00d	 mov         r12, sp
  000b0	e92d0003	 stmdb       sp!, {r0, r1}
  000b4	e92d5000	 stmdb       sp!, {r12, lr}
  000b8	e24dd014	 sub         sp, sp, #0x14
  000bc		 |$M36184|

; 94   :     memset( lpddhi, 0, sizeof(DDHALINFO) );

  000bc	e3a02f47	 mov         r2, #0x47, 30
  000c0	e3a01000	 mov         r1, #0
  000c4	e59d001c	 ldr         r0, [sp, #0x1C]
  000c8	eb000000	 bl          memset

; 95   : 
; 96   :     SA2Video * pSA2Video = (SA2Video *)GetDDGPE();

  000cc	eb000000	 bl          |?GetDDGPE@@YAPAVDDGPE@@XZ|
  000d0	e58d0008	 str         r0, [sp, #8]
  000d4	e59d3008	 ldr         r3, [sp, #8]
  000d8	e58d3000	 str         r3, [sp]

; 97   : 
; 98   :     if ( !g_pVideoMemory )   // in case this is called more than once...

  000dc	e59f31c4	 ldr         r3, [pc, #0x1C4]
  000e0	e5933000	 ldr         r3, [r3]
  000e4	e3530000	 cmp         r3, #0
  000e8	1a000021	 bne         |$LN1@buildDDHAL|

; 99   :     {
; 100  :         unsigned long VideoMemoryStart;
; 101  :         pSA2Video->GetVirtualVideoMemory( &VideoMemoryStart, &g_nVideoMemorySize );

  000ec	e59f21a0	 ldr         r2, [pc, #0x1A0]
  000f0	e28d1004	 add         r1, sp, #4
  000f4	e59d0000	 ldr         r0, [sp]
  000f8	eb000000	 bl          |?GetVirtualVideoMemory@SA2Video@@QAAXPAK0@Z|

; 102  :         DEBUGMSG( GPE_ZONE_INIT,(TEXT("GetVirtualVideoMemory returned addr=0x%08x size=%d\r\n"), VideoMemoryStart, g_nVideoMemorySize));

  000fc	e59f31a8	 ldr         r3, [pc, #0x1A8]
  00100	e5933440	 ldr         r3, [r3, #0x440]
  00104	e3130020	 tst         r3, #0x20
  00108	0a000007	 beq         |$LN4@buildDDHAL|
  0010c	e59f3180	 ldr         r3, [pc, #0x180]
  00110	e5932000	 ldr         r2, [r3]
  00114	e59d1004	 ldr         r1, [sp, #4]
  00118	e59f0190	 ldr         r0, [pc, #0x190]
  0011c	eb000000	 bl          NKDbgPrintfW
  00120	e3a03001	 mov         r3, #1
  00124	e58d300c	 str         r3, [sp, #0xC]
  00128	ea000001	 b           |$LN5@buildDDHAL|
  0012c		 |$LN4@buildDDHAL|
  0012c	e3a03000	 mov         r3, #0
  00130	e58d300c	 str         r3, [sp, #0xC]
  00134		 |$LN5@buildDDHAL|

; 103  : 
; 104  :         g_pVideoMemory = (BYTE*)VideoMemoryStart;

  00134	e59d2004	 ldr         r2, [sp, #4]
  00138	e59f3168	 ldr         r3, [pc, #0x168]
  0013c	e5832000	 str         r2, [r3]

; 105  :         DEBUGMSG( GPE_ZONE_INIT,(TEXT("gpVidMem=%08x\r\n"), g_pVideoMemory ));

  00140	e59f3164	 ldr         r3, [pc, #0x164]
  00144	e5933440	 ldr         r3, [r3, #0x440]
  00148	e3130020	 tst         r3, #0x20
  0014c	0a000006	 beq         |$LN6@buildDDHAL|
  00150	e59f3150	 ldr         r3, [pc, #0x150]
  00154	e5931000	 ldr         r1, [r3]
  00158	e59f0144	 ldr         r0, [pc, #0x144]
  0015c	eb000000	 bl          NKDbgPrintfW
  00160	e3a03001	 mov         r3, #1
  00164	e58d3010	 str         r3, [sp, #0x10]
  00168	ea000001	 b           |$LN7@buildDDHAL|
  0016c		 |$LN6@buildDDHAL|
  0016c	e3a03000	 mov         r3, #0
  00170	e58d3010	 str         r3, [sp, #0x10]
  00174		 |$LN7@buildDDHAL|
  00174		 |$LN1@buildDDHAL|

; 106  :     }
; 107  : 
; 108  :     lpddhi->dwSize = sizeof(DDHALINFO);

  00174	e59d201c	 ldr         r2, [sp, #0x1C]
  00178	e3a03f47	 mov         r3, #0x47, 30
  0017c	e5823000	 str         r3, [r2]

; 109  : 
; 110  :     lpddhi->lpDDCallbacks = &cbDDCallbacks;

  00180	e59d301c	 ldr         r3, [sp, #0x1C]
  00184	e2832008	 add         r2, r3, #8
  00188	e59f3110	 ldr         r3, [pc, #0x110]
  0018c	e5823000	 str         r3, [r2]

; 111  :     lpddhi->lpDDSurfaceCallbacks = &cbDDSurfaceCallbacks;

  00190	e59d301c	 ldr         r3, [sp, #0x1C]
  00194	e283200c	 add         r2, r3, #0xC
  00198	e59f30fc	 ldr         r3, [pc, #0xFC]
  0019c	e5823000	 str         r3, [r2]

; 112  :     
; 113  :     lpddhi->GetDriverInfo = HalGetDriverInfo;

  001a0	e59d301c	 ldr         r3, [sp, #0x1C]
  001a4	e2832014	 add         r2, r3, #0x14
  001a8	e59f30e8	 ldr         r3, [pc, #0xE8]
  001ac	e5823000	 str         r3, [r2]

; 114  : 
; 115  :     lpddhi->ddCaps.dwSize = sizeof(DDCAPS);

  001b0	e59d301c	 ldr         r3, [sp, #0x1C]
  001b4	e2832018	 add         r2, r3, #0x18
  001b8	e3a03080	 mov         r3, #0x80
  001bc	e5823000	 str         r3, [r2]

; 116  : 
; 117  :     lpddhi->ddCaps.dwVidMemTotal = g_nVideoMemorySize;

  001c0	e59d301c	 ldr         r3, [sp, #0x1C]
  001c4	e283201c	 add         r2, r3, #0x1C
  001c8	e59f30c4	 ldr         r3, [pc, #0xC4]
  001cc	e5933000	 ldr         r3, [r3]
  001d0	e5823000	 str         r3, [r2]

; 118  :     lpddhi->ddCaps.dwVidMemFree = g_nVideoMemorySize;

  001d4	e59d301c	 ldr         r3, [sp, #0x1C]
  001d8	e2832020	 add         r2, r3, #0x20
  001dc	e59f30b0	 ldr         r3, [pc, #0xB0]
  001e0	e5933000	 ldr         r3, [r3]
  001e4	e5823000	 str         r3, [r2]

; 119  :     lpddhi->ddCaps.ddsCaps.dwCaps=
; 120  : 		DDSCAPS_PRIMARYSURFACE |
; 121  : 		DDSCAPS_SYSTEMMEMORY |
; 122  : 		0;

  001e8	e59d301c	 ldr         r3, [sp, #0x1C]
  001ec	e2832028	 add         r2, r3, #0x28
  001f0	e3a030c0	 mov         r3, #0xC0
  001f4	e5823000	 str         r3, [r2]

; 123  : 
; 124  :     lpddhi->ddCaps.dwPalCaps=
; 125  : 		DDPCAPS_PRIMARYSURFACE |
; 126  : 		0;

  001f8	e59d301c	 ldr         r3, [sp, #0x1C]
  001fc	e2832030	 add         r2, r3, #0x30
  00200	e3a03010	 mov         r3, #0x10
  00204	e5823000	 str         r3, [r2]

; 127  : 
; 128  :     lpddhi->ddCaps.dwBltCaps =
; 129  :         DDBLTCAPS_READSYSMEM |
; 130  :         DDBLTCAPS_WRITESYSMEM |
; 131  :         0;

  00208	e59d301c	 ldr         r3, [sp, #0x1C]
  0020c	e2832034	 add         r2, r3, #0x34
  00210	e3a03003	 mov         r3, #3
  00214	e5823000	 str         r3, [r2]

; 132  : 
; 133  :     SETROPBIT(lpddhi->ddCaps.dwRops,SRCCOPY);                   // Set bits for ROPS supported

  00218	e59d301c	 ldr         r3, [sp, #0x1C]
  0021c	e2833058	 add         r3, r3, #0x58
  00220	e5933000	 ldr         r3, [r3]
  00224	e3832a01	 orr         r2, r3, #1, 20
  00228	e59d301c	 ldr         r3, [sp, #0x1C]
  0022c	e2833058	 add         r3, r3, #0x58
  00230	e5832000	 str         r2, [r3]

; 134  :     SETROPBIT(lpddhi->ddCaps.dwRops,PATCOPY);

  00234	e59d301c	 ldr         r3, [sp, #0x1C]
  00238	e283305c	 add         r3, r3, #0x5C
  0023c	e5933000	 ldr         r3, [r3]
  00240	e3832801	 orr         r2, r3, #1, 16
  00244	e59d301c	 ldr         r3, [sp, #0x1C]
  00248	e283305c	 add         r3, r3, #0x5C
  0024c	e5832000	 str         r2, [r3]

; 135  :     SETROPBIT(lpddhi->ddCaps.dwRops,BLACKNESS);

  00250	e59d301c	 ldr         r3, [sp, #0x1C]
  00254	e2833040	 add         r3, r3, #0x40
  00258	e5933000	 ldr         r3, [r3]
  0025c	e3832001	 orr         r2, r3, #1
  00260	e59d301c	 ldr         r3, [sp, #0x1C]
  00264	e2833040	 add         r3, r3, #0x40
  00268	e5832000	 str         r2, [r3]

; 136  :     SETROPBIT(lpddhi->ddCaps.dwRops,WHITENESS);

  0026c	e59d301c	 ldr         r3, [sp, #0x1C]
  00270	e283305c	 add         r3, r3, #0x5C
  00274	e5933000	 ldr         r3, [r3]
  00278	e3832102	 orr         r2, r3, #2, 2
  0027c	e59d301c	 ldr         r3, [sp, #0x1C]
  00280	e283305c	 add         r3, r3, #0x5C
  00284	e5832000	 str         r2, [r3]

; 137  : }

  00288	e28dd014	 add         sp, sp, #0x14
  0028c	e89d6000	 ldmia       sp, {sp, lr}
  00290	e12fff1e	 bx          lr
  00294		 |$LN11@buildDDHAL|
  00294		 |$LN12@buildDDHAL|
  00294	00000000	 DCD         |?g_nVideoMemorySize@@3KA|
  00298		 |$LN13@buildDDHAL|
  00298	00000000	 DCD         |?HalGetDriverInfo@@YAKPAU_DDHAL_GETDRIVERINFODATA@@@Z|
  0029c		 |$LN14@buildDDHAL|
  0029c	00000000	 DCD         |?cbDDSurfaceCallbacks@@3U_DDHAL_DDSURFACECALLBACKS@@A|
  002a0		 |$LN15@buildDDHAL|
  002a0	00000000	 DCD         |?cbDDCallbacks@@3U_DDHAL_DDCALLBACKS@@A|
  002a4		 |$LN16@buildDDHAL|
  002a4	00000000	 DCD         |??_C@_1CA@PJINHLOP@?$AAg?$AAp?$AAV?$AAi?$AAd?$AAM?$AAe?$AAm?$AA?$DN?$AA?$CF?$AA0?$AA8?$AAx?$AA?$AN?$AA?6?$AA?$AA@|
  002a8		 |$LN17@buildDDHAL|
  002a8	00000000	 DCD         |?g_pVideoMemory@@3PAEA|
  002ac		 |$LN18@buildDDHAL|
  002ac	00000000	 DCD         |dpCurSettings|
  002b0		 |$LN19@buildDDHAL|
  002b0	00000000	 DCD         |??_C@_1GK@JAOOLBDE@?$AAG?$AAe?$AAt?$AAV?$AAi?$AAr?$AAt?$AAu?$AAa?$AAl?$AAV?$AAi?$AAd?$AAe?$AAo?$AAM?$AAe?$AAm?$AAo?$AAr?$AAy?$AA?5?$AAr?$AAe?$AAt?$AAu?$AAr?$AAn?$AAe?$AAd?$AA?5?$AAa@|
  002b4		 |$M36185|

			 ENDP  ; |buildDDHALInfo|

	END
