; Listing generated by Microsoft (R) Optimizing Compiler Version 14.01.60511.01 

	TTL	C:\WINCE600\PLATFORM\COMMON\SRC\SOC\COMMON_TI_V1\COMMON_TI\WAVEDEV2\aic23.cpp
	CODE32

  00000			 AREA	 |.drectve|, DRECTVE
	DCB	"-defaultlib:LIBCMT "
	DCB	"-defaultlib:OLDNAMES "


  00000			 AREA	 |.rdata|, DATA, READONLY
|SampleRatesTab| DCD 0x17700
	DCW	0x1d
	%	2
	DCD	0x15888
	DCW	0x3f
	%	2
	DCD	0xbb80
	DCW	0x1
	%	2
	DCD	0xac44
	DCW	0x23
	%	2
	DCD	0x7d00
	DCW	0x19
	%	2
	DCD	0x1f55
	DCW	0x2f
	%	2
	EXPORT	|??0CAIC23@@QAA@XZ|			; CAIC23::CAIC23

  00000			 AREA	 |.pdata|, PDATA
|$T38114| DCD	|$LN5@CAIC23|
	DCD	0x40001904
; Function compile flags: /Odtp
; File c:\wince600\platform\common\src\soc\common_ti_v1\common_ti\wavedev2\aic23.cpp

  00000			 AREA	 |.text|, CODE, ARM

  00000		 |??0CAIC23@@QAA@XZ| PROC		; CAIC23::CAIC23

; 34   : {

  00000		 |$LN5@CAIC23|
  00000	e1a0c00d	 mov         r12, sp
  00004	e92d0001	 stmdb       sp!, {r0}
  00008	e92d5000	 stmdb       sp!, {r12, lr}
  0000c	e24dd004	 sub         sp, sp, #4
  00010		 |$M38111|
  00010	e59d200c	 ldr         r2, [sp, #0xC]
  00014	e3a03000	 mov         r3, #0
  00018	e5823000	 str         r3, [r2]
  0001c	e59d300c	 ldr         r3, [sp, #0xC]
  00020	e2832004	 add         r2, r3, #4
  00024	e3a03007	 mov         r3, #7
  00028	e1c230b0	 strh        r3, [r2]
  0002c	e59d300c	 ldr         r3, [sp, #0xC]
  00030	e2832006	 add         r2, r3, #6
  00034	e3a03010	 mov         r3, #0x10
  00038	e1c230b0	 strh        r3, [r2]
  0003c	e59d300c	 ldr         r3, [sp, #0xC]
  00040	e2832008	 add         r2, r3, #8
  00044	e3a03000	 mov         r3, #0
  00048	e5823000	 str         r3, [r2]

; 35   : }

  0004c	e59d300c	 ldr         r3, [sp, #0xC]
  00050	e58d3000	 str         r3, [sp]
  00054	e59d0000	 ldr         r0, [sp]
  00058	e28dd004	 add         sp, sp, #4
  0005c	e89d6000	 ldmia       sp, {sp, lr}
  00060	e12fff1e	 bx          lr
  00064		 |$M38112|

			 ENDP  ; |??0CAIC23@@QAA@XZ|, CAIC23::CAIC23

	EXPORT	|??1CAIC23@@QAA@XZ|			; CAIC23::~CAIC23
	IMPORT	|I2CClose|

  00008			 AREA	 |.pdata|, PDATA
|$T38119| DCD	|$LN6@CAIC23@2|
	DCD	0x40000f03
; Function compile flags: /Odtp

  00064			 AREA	 |.text|, CODE, ARM

  00064		 |??1CAIC23@@QAA@XZ| PROC		; CAIC23::~CAIC23

; 38   : {

  00064		 |$LN6@CAIC23@2|
  00064	e1a0c00d	 mov         r12, sp
  00068	e92d0001	 stmdb       sp!, {r0}
  0006c	e92d5000	 stmdb       sp!, {r12, lr}
  00070		 |$M38116|

; 39   : 	if (m_hI2CDevice != NULL)

  00070	e59d3008	 ldr         r3, [sp, #8]
  00074	e5933000	 ldr         r3, [r3]
  00078	e3530000	 cmp         r3, #0
  0007c	0a000005	 beq         |$LN1@CAIC23@2|

; 40   : 	{
; 41   : 		I2CClose(m_hI2CDevice);

  00080	e59d3008	 ldr         r3, [sp, #8]
  00084	e5930000	 ldr         r0, [r3]
  00088	eb000000	 bl          I2CClose

; 42   : 		m_hI2CDevice = NULL;

  0008c	e59d2008	 ldr         r2, [sp, #8]
  00090	e3a03000	 mov         r3, #0
  00094	e5823000	 str         r3, [r2]
  00098		 |$LN1@CAIC23@2|

; 43   : 	}
; 44   : }

  00098	e89d6000	 ldmia       sp, {sp, lr}
  0009c	e12fff1e	 bx          lr
  000a0		 |$M38117|

			 ENDP  ; |??1CAIC23@@QAA@XZ|, CAIC23::~CAIC23

	EXPORT	|??_C@_1IK@LICONBLF@?$AA?$FL?$AAE?$AAR?$AAR?$AAO?$AAR?$AA?$FN?$AA?5?$AA?$CI?$AAL?$AA?$CC?$AAC?$AAA?$AAI?$AAC?$AA2?$AA3?$AA?3?$AA?3?$AAI?$AAn?$AAi?$AAt?$AAH?$AAa?$AAr?$AAd?$AAw?$AAa?$AAr?$AAe?$AA?3@| [ DATA ] ; `string'
	EXPORT	|?SetSampleRate@CAIC23@@AAAHK@Z|	; CAIC23::SetSampleRate
	EXPORT	|??_C@_1HO@EFMIEACB@?$AA?$FL?$AAE?$AAR?$AAR?$AAO?$AAR?$AA?$FN?$AA?5?$AA?$CI?$AAL?$AA?$CC?$AAC?$AAA?$AAI?$AAC?$AA2?$AA3?$AA?3?$AA?3?$AAI?$AAn?$AAi?$AAt?$AAH?$AAa?$AAr?$AAd?$AAw?$AAa?$AAr?$AAe?$AA?3@| [ DATA ] ; `string'
	EXPORT	|?ConfigureCodec@CAIC23@@AAAHXZ|	; CAIC23::ConfigureCodec
	EXPORT	|??_C@_1HG@GCNKLOKM@?$AA?$FL?$AAE?$AAR?$AAR?$AAO?$AAR?$AA?$FN?$AA?5?$AA?$CI?$AAL?$AA?$CC?$AAC?$AAA?$AAI?$AAC?$AA2?$AA3?$AA?3?$AA?3?$AAI?$AAn?$AAi?$AAt?$AAH?$AAa?$AAr?$AAd?$AAw?$AAa?$AAr?$AAe?$AA?3@| [ DATA ] ; `string'
	EXPORT	|?ResetCodec@CAIC23@@AAAHXZ|		; CAIC23::ResetCodec
	EXPORT	|??_C@_1HO@KJMOELFH@?$AA?$FL?$AAE?$AAR?$AAR?$AAO?$AAR?$AA?$FN?$AA?5?$AA?$CI?$AAL?$AA?$CC?$AAC?$AAA?$AAI?$AAC?$AA2?$AA3?$AA?3?$AA?3?$AAI?$AAn?$AAi?$AAt?$AAH?$AAa?$AAr?$AAd?$AAw?$AAa?$AAr?$AAe?$AA?3@| [ DATA ] ; `string'
	EXPORT	|?InitHardware@CAIC23@@QAAHKKK@Z|	; CAIC23::InitHardware
	IMPORT	|I2CSetBaudIndex|
	IMPORT	|I2CSetSubAddressMode|
	IMPORT	|I2CSetSlaveAddress|
	IMPORT	|NKDbgPrintfW|
	IMPORT	|dpCurSettings|
	IMPORT	|I2COpen|
	IMPORT	|SOCGetI2CDeviceByBus|

  00010			 AREA	 |.pdata|, PDATA
|$T38133| DCD	|$LN21@InitHardwa|
	DCD	0x40007604

  00000			 AREA	 |.rdata|, DATA, READONLY
|??_C@_1IK@LICONBLF@?$AA?$FL?$AAE?$AAR?$AAR?$AAO?$AAR?$AA?$FN?$AA?5?$AA?$CI?$AAL?$AA?$CC?$AAC?$AAA?$AAI?$AAC?$AA2?$AA3?$AA?3?$AA?3?$AAI?$AAn?$AAi?$AAt?$AAH?$AAa?$AAr?$AAd?$AAw?$AAa?$AAr?$AAe?$AA?3@| DCB "["
	DCB	0x0, "E", 0x0, "R", 0x0, "R", 0x0, "O", 0x0, "R", 0x0, "]"
	DCB	0x0, " ", 0x0, "(", 0x0, "L", 0x0, """", 0x0, "C", 0x0, "A"
	DCB	0x0, "I", 0x0, "C", 0x0, "2", 0x0, "3", 0x0, ":", 0x0, ":"
	DCB	0x0, "I", 0x0, "n", 0x0, "i", 0x0, "t", 0x0, "H", 0x0, "a"
	DCB	0x0, "r", 0x0, "d", 0x0, "w", 0x0, "a", 0x0, "r", 0x0, "e"
	DCB	0x0, ":", 0x0, " ", 0x0, "F", 0x0, "a", 0x0, "i", 0x0, "l"
	DCB	0x0, "e", 0x0, "d", 0x0, " ", 0x0, "t", 0x0, "o", 0x0, " "
	DCB	0x0, "c", 0x0, "o", 0x0, "n", 0x0, "f", 0x0, "i", 0x0, "g"
	DCB	0x0, "u", 0x0, "r", 0x0, "e", 0x0, " ", 0x0, "s", 0x0, "a"
	DCB	0x0, "m", 0x0, "p", 0x0, "l", 0x0, "e", 0x0, " ", 0x0, "r"
	DCB	0x0, "a", 0x0, "t", 0x0, "e", 0x0, """", 0x0, ")", 0x0, 0xd
	DCB	0x0, 0xa, 0x0, 0x0, 0x0			; `string'

  00000			 AREA	 |.rdata|, DATA, READONLY
|??_C@_1HO@EFMIEACB@?$AA?$FL?$AAE?$AAR?$AAR?$AAO?$AAR?$AA?$FN?$AA?5?$AA?$CI?$AAL?$AA?$CC?$AAC?$AAA?$AAI?$AAC?$AA2?$AA3?$AA?3?$AA?3?$AAI?$AAn?$AAi?$AAt?$AAH?$AAa?$AAr?$AAd?$AAw?$AAa?$AAr?$AAe?$AA?3@| DCB "["
	DCB	0x0, "E", 0x0, "R", 0x0, "R", 0x0, "O", 0x0, "R", 0x0, "]"
	DCB	0x0, " ", 0x0, "(", 0x0, "L", 0x0, """", 0x0, "C", 0x0, "A"
	DCB	0x0, "I", 0x0, "C", 0x0, "2", 0x0, "3", 0x0, ":", 0x0, ":"
	DCB	0x0, "I", 0x0, "n", 0x0, "i", 0x0, "t", 0x0, "H", 0x0, "a"
	DCB	0x0, "r", 0x0, "d", 0x0, "w", 0x0, "a", 0x0, "r", 0x0, "e"
	DCB	0x0, ":", 0x0, " ", 0x0, "F", 0x0, "a", 0x0, "i", 0x0, "l"
	DCB	0x0, "e", 0x0, "d", 0x0, " ", 0x0, "t", 0x0, "o", 0x0, " "
	DCB	0x0, "c", 0x0, "o", 0x0, "n", 0x0, "f", 0x0, "i", 0x0, "g"
	DCB	0x0, "u", 0x0, "r", 0x0, "e", 0x0, " ", 0x0, "c", 0x0, "o"
	DCB	0x0, "d", 0x0, "e", 0x0, "c", 0x0, """", 0x0, ")", 0x0, 0xd
	DCB	0x0, 0xa, 0x0, 0x0, 0x0			; `string'

  00000			 AREA	 |.rdata|, DATA, READONLY
|??_C@_1HG@GCNKLOKM@?$AA?$FL?$AAE?$AAR?$AAR?$AAO?$AAR?$AA?$FN?$AA?5?$AA?$CI?$AAL?$AA?$CC?$AAC?$AAA?$AAI?$AAC?$AA2?$AA3?$AA?3?$AA?3?$AAI?$AAn?$AAi?$AAt?$AAH?$AAa?$AAr?$AAd?$AAw?$AAa?$AAr?$AAe?$AA?3@| DCB "["
	DCB	0x0, "E", 0x0, "R", 0x0, "R", 0x0, "O", 0x0, "R", 0x0, "]"
	DCB	0x0, " ", 0x0, "(", 0x0, "L", 0x0, """", 0x0, "C", 0x0, "A"
	DCB	0x0, "I", 0x0, "C", 0x0, "2", 0x0, "3", 0x0, ":", 0x0, ":"
	DCB	0x0, "I", 0x0, "n", 0x0, "i", 0x0, "t", 0x0, "H", 0x0, "a"
	DCB	0x0, "r", 0x0, "d", 0x0, "w", 0x0, "a", 0x0, "r", 0x0, "e"
	DCB	0x0, ":", 0x0, " ", 0x0, "F", 0x0, "a", 0x0, "i", 0x0, "l"
	DCB	0x0, "e", 0x0, "d", 0x0, " ", 0x0, "t", 0x0, "o", 0x0, " "
	DCB	0x0, "r", 0x0, "e", 0x0, "s", 0x0, "e", 0x0, "t", 0x0, " "
	DCB	0x0, "c", 0x0, "o", 0x0, "d", 0x0, "e", 0x0, "c", 0x0, """"
	DCB	0x0, ")", 0x0, 0xd, 0x0, 0xa, 0x0, 0x0, 0x0 ; `string'

  00000			 AREA	 |.rdata|, DATA, READONLY
|??_C@_1HO@KJMOELFH@?$AA?$FL?$AAE?$AAR?$AAR?$AAO?$AAR?$AA?$FN?$AA?5?$AA?$CI?$AAL?$AA?$CC?$AAC?$AAA?$AAI?$AAC?$AA2?$AA3?$AA?3?$AA?3?$AAI?$AAn?$AAi?$AAt?$AAH?$AAa?$AAr?$AAd?$AAw?$AAa?$AAr?$AAe?$AA?3@| DCB "["
	DCB	0x0, "E", 0x0, "R", 0x0, "R", 0x0, "O", 0x0, "R", 0x0, "]"
	DCB	0x0, " ", 0x0, "(", 0x0, "L", 0x0, """", 0x0, "C", 0x0, "A"
	DCB	0x0, "I", 0x0, "C", 0x0, "2", 0x0, "3", 0x0, ":", 0x0, ":"
	DCB	0x0, "I", 0x0, "n", 0x0, "i", 0x0, "t", 0x0, "H", 0x0, "a"
	DCB	0x0, "r", 0x0, "d", 0x0, "w", 0x0, "a", 0x0, "r", 0x0, "e"
	DCB	0x0, ":", 0x0, " ", 0x0, "F", 0x0, "a", 0x0, "i", 0x0, "l"
	DCB	0x0, "e", 0x0, "d", 0x0, " ", 0x0, "t", 0x0, "o", 0x0, " "
	DCB	0x0, "o", 0x0, "p", 0x0, "e", 0x0, "n", 0x0, " ", 0x0, "I"
	DCB	0x0, "2", 0x0, "C", 0x0, " ", 0x0, "d", 0x0, "r", 0x0, "i"
	DCB	0x0, "v", 0x0, "e", 0x0, "r", 0x0, """", 0x0, ")", 0x0, 0xd
	DCB	0x0, 0xa, 0x0, 0x0, 0x0			; `string'
; Function compile flags: /Odtp

  000a0			 AREA	 |.text|, CODE, ARM

  000a0		 |?InitHardware@CAIC23@@QAAHKKK@Z| PROC	; CAIC23::InitHardware

; 47   : {

  000a0		 |$LN21@InitHardwa|
  000a0	e1a0c00d	 mov         r12, sp
  000a4	e92d000f	 stmdb       sp!, {r0 - r3}
  000a8	e92d5000	 stmdb       sp!, {r12, lr}
  000ac	e24dd02c	 sub         sp, sp, #0x2C
  000b0		 |$M38130|

; 48   : 	BOOL bRet = FALSE;

  000b0	e3a03000	 mov         r3, #0
  000b4	e58d3000	 str         r3, [sp]

; 49   : 
; 50   : 	// Open I2C bus
; 51   : 	m_hI2CDevice = I2COpen(SOCGetI2CDeviceByBus(I2Cbus));

  000b8	e59d003c	 ldr         r0, [sp, #0x3C]
  000bc	eb000000	 bl          SOCGetI2CDeviceByBus
  000c0	e58d0008	 str         r0, [sp, #8]
  000c4	e59d0008	 ldr         r0, [sp, #8]
  000c8	eb000000	 bl          I2COpen
  000cc	e58d000c	 str         r0, [sp, #0xC]
  000d0	e59d200c	 ldr         r2, [sp, #0xC]
  000d4	e59d3034	 ldr         r3, [sp, #0x34]
  000d8	e5832000	 str         r2, [r3]

; 52   : 	if (m_hI2CDevice == NULL)

  000dc	e59d3034	 ldr         r3, [sp, #0x34]
  000e0	e5933000	 ldr         r3, [r3]
  000e4	e3530000	 cmp         r3, #0
  000e8	1a00000c	 bne         |$LN8@InitHardwa|

; 53   : 	{
; 54   : 		ERRMSG((L"CAIC23::InitHardware: Failed to open I2C driver"));

  000ec	e59f3174	 ldr         r3, [pc, #0x174]
  000f0	e5933440	 ldr         r3, [r3, #0x440]
  000f4	e3130902	 tst         r3, #2, 18
  000f8	0a000004	 beq         |$LN11@InitHardwa|
  000fc	e59f0170	 ldr         r0, [pc, #0x170]
  00100	eb000000	 bl          NKDbgPrintfW
  00104	e3a03001	 mov         r3, #1
  00108	e58d3010	 str         r3, [sp, #0x10]
  0010c	ea000001	 b           |$LN12@InitHardwa|
  00110		 |$LN11@InitHardwa|
  00110	e3a03000	 mov         r3, #0
  00114	e58d3010	 str         r3, [sp, #0x10]
  00118		 |$LN12@InitHardwa|

; 55   : 		goto exit;

  00118	ea00004b	 b           |$LN7@InitHardwa|
  0011c	ea00004a	 b           |$exit$37985|
  00120		 |$LN8@InitHardwa|

; 56   : 	}
; 57   : 	I2CSetSlaveAddress(m_hI2CDevice, (UINT16)I2Caddr);

  00120	e59d3040	 ldr         r3, [sp, #0x40]
  00124	e1a01803	 mov         r1, r3, lsl #16
  00128	e1a01821	 mov         r1, r1, lsr #16
  0012c	e59d3034	 ldr         r3, [sp, #0x34]
  00130	e5930000	 ldr         r0, [r3]
  00134	eb000000	 bl          I2CSetSlaveAddress

; 58   : 	I2CSetSubAddressMode(m_hI2CDevice, I2C_SUBADDRESS_MODE_8);

  00138	e3a01001	 mov         r1, #1
  0013c	e59d3034	 ldr         r3, [sp, #0x34]
  00140	e5930000	 ldr         r0, [r3]
  00144	eb000000	 bl          I2CSetSubAddressMode

; 59   : 	I2CSetBaudIndex(m_hI2CDevice, I2CBrIndex);

  00148	e59d1038	 ldr         r1, [sp, #0x38]
  0014c	e59d3034	 ldr         r3, [sp, #0x34]
  00150	e5930000	 ldr         r0, [r3]
  00154	eb000000	 bl          I2CSetBaudIndex

; 60   : 
; 61   : 	// Reset Codec
; 62   : 	if (!ResetCodec())

  00158	e59d0034	 ldr         r0, [sp, #0x34]
  0015c	eb000000	 bl          |?ResetCodec@CAIC23@@AAAHXZ|
  00160	e58d0014	 str         r0, [sp, #0x14]
  00164	e59d3014	 ldr         r3, [sp, #0x14]
  00168	e3530000	 cmp         r3, #0
  0016c	1a00000c	 bne         |$LN6@InitHardwa|

; 63   : 	{
; 64   : 		ERRMSG((L"CAIC23::InitHardware: Failed to reset codec"));

  00170	e59f30f0	 ldr         r3, [pc, #0xF0]
  00174	e5933440	 ldr         r3, [r3, #0x440]
  00178	e3130902	 tst         r3, #2, 18
  0017c	0a000004	 beq         |$LN13@InitHardwa|
  00180	e59f00e8	 ldr         r0, [pc, #0xE8]
  00184	eb000000	 bl          NKDbgPrintfW
  00188	e3a03001	 mov         r3, #1
  0018c	e58d3018	 str         r3, [sp, #0x18]
  00190	ea000001	 b           |$LN14@InitHardwa|
  00194		 |$LN13@InitHardwa|
  00194	e3a03000	 mov         r3, #0
  00198	e58d3018	 str         r3, [sp, #0x18]
  0019c		 |$LN14@InitHardwa|

; 65   : 		goto exit;

  0019c	ea00002a	 b           |$LN5@InitHardwa|
  001a0	ea000029	 b           |$exit$37985|
  001a4		 |$LN6@InitHardwa|

; 66   : 	}
; 67   : 
; 68   : 	// Configure Codec
; 69   : 	if (!ConfigureCodec())

  001a4	e59d0034	 ldr         r0, [sp, #0x34]
  001a8	eb000000	 bl          |?ConfigureCodec@CAIC23@@AAAHXZ|
  001ac	e58d001c	 str         r0, [sp, #0x1C]
  001b0	e59d301c	 ldr         r3, [sp, #0x1C]
  001b4	e3530000	 cmp         r3, #0
  001b8	1a00000c	 bne         |$LN4@InitHardwa|

; 70   : 	{
; 71   :         ERRMSG((L"CAIC23::InitHardware: Failed to configure codec"));

  001bc	e59f30a4	 ldr         r3, [pc, #0xA4]
  001c0	e5933440	 ldr         r3, [r3, #0x440]
  001c4	e3130902	 tst         r3, #2, 18
  001c8	0a000004	 beq         |$LN15@InitHardwa|
  001cc	e59f0098	 ldr         r0, [pc, #0x98]
  001d0	eb000000	 bl          NKDbgPrintfW
  001d4	e3a03001	 mov         r3, #1
  001d8	e58d3020	 str         r3, [sp, #0x20]
  001dc	ea000001	 b           |$LN16@InitHardwa|
  001e0		 |$LN15@InitHardwa|
  001e0	e3a03000	 mov         r3, #0
  001e4	e58d3020	 str         r3, [sp, #0x20]
  001e8		 |$LN16@InitHardwa|

; 72   : 		goto exit;

  001e8	ea000017	 b           |$LN3@InitHardwa|
  001ec	ea000016	 b           |$exit$37985|
  001f0		 |$LN4@InitHardwa|

; 73   : 	}
; 74   : 
; 75   : 	// Set default sample rate
; 76   : 	if (!SetSampleRate(OUTPUT_SAMPLERATE))

  001f0	e3a01b2b	 mov         r1, #0x2B, 22
  001f4	e3811044	 orr         r1, r1, #0x44
  001f8	e59d0034	 ldr         r0, [sp, #0x34]
  001fc	eb000000	 bl          |?SetSampleRate@CAIC23@@AAAHK@Z|
  00200	e58d0024	 str         r0, [sp, #0x24]
  00204	e59d3024	 ldr         r3, [sp, #0x24]
  00208	e3530000	 cmp         r3, #0
  0020c	1a00000c	 bne         |$LN2@InitHardwa|

; 77   : 	{
; 78   :         ERRMSG((L"CAIC23::InitHardware: Failed to configure sample rate"));

  00210	e59f3050	 ldr         r3, [pc, #0x50]
  00214	e5933440	 ldr         r3, [r3, #0x440]
  00218	e3130902	 tst         r3, #2, 18
  0021c	0a000004	 beq         |$LN17@InitHardwa|
  00220	e59f003c	 ldr         r0, [pc, #0x3C]
  00224	eb000000	 bl          NKDbgPrintfW
  00228	e3a03001	 mov         r3, #1
  0022c	e58d3028	 str         r3, [sp, #0x28]
  00230	ea000001	 b           |$LN18@InitHardwa|
  00234		 |$LN17@InitHardwa|
  00234	e3a03000	 mov         r3, #0
  00238	e58d3028	 str         r3, [sp, #0x28]
  0023c		 |$LN18@InitHardwa|

; 79   : 		goto exit;

  0023c	ea000002	 b           |$LN1@InitHardwa|
  00240	ea000001	 b           |$exit$37985|
  00244		 |$LN2@InitHardwa|

; 80   : 	}
; 81   : 
; 82   : 	bRet = TRUE;

  00244	e3a03001	 mov         r3, #1
  00248	e58d3000	 str         r3, [sp]
  0024c		 |$LN1@InitHardwa|
  0024c		 |$LN3@InitHardwa|
  0024c		 |$LN5@InitHardwa|
  0024c		 |$LN7@InitHardwa|
  0024c		 |$exit$37985|

; 83   : 
; 84   : exit:
; 85   : 
; 86   : 	return bRet;

  0024c	e59d3000	 ldr         r3, [sp]
  00250	e58d3004	 str         r3, [sp, #4]

; 87   : }

  00254	e59d0004	 ldr         r0, [sp, #4]
  00258	e28dd02c	 add         sp, sp, #0x2C
  0025c	e89d6000	 ldmia       sp, {sp, lr}
  00260	e12fff1e	 bx          lr
  00264		 |$LN22@InitHardwa|
  00264		 |$LN23@InitHardwa|
  00264	00000000	 DCD         |??_C@_1IK@LICONBLF@?$AA?$FL?$AAE?$AAR?$AAR?$AAO?$AAR?$AA?$FN?$AA?5?$AA?$CI?$AAL?$AA?$CC?$AAC?$AAA?$AAI?$AAC?$AA2?$AA3?$AA?3?$AA?3?$AAI?$AAn?$AAi?$AAt?$AAH?$AAa?$AAr?$AAd?$AAw?$AAa?$AAr?$AAe?$AA?3@|
  00268		 |$LN24@InitHardwa|
  00268	00000000	 DCD         |dpCurSettings|
  0026c		 |$LN25@InitHardwa|
  0026c	00000000	 DCD         |??_C@_1HO@EFMIEACB@?$AA?$FL?$AAE?$AAR?$AAR?$AAO?$AAR?$AA?$FN?$AA?5?$AA?$CI?$AAL?$AA?$CC?$AAC?$AAA?$AAI?$AAC?$AA2?$AA3?$AA?3?$AA?3?$AAI?$AAn?$AAi?$AAt?$AAH?$AAa?$AAr?$AAd?$AAw?$AAa?$AAr?$AAe?$AA?3@|
  00270		 |$LN26@InitHardwa|
  00270	00000000	 DCD         |??_C@_1HG@GCNKLOKM@?$AA?$FL?$AAE?$AAR?$AAR?$AAO?$AAR?$AA?$FN?$AA?5?$AA?$CI?$AAL?$AA?$CC?$AAC?$AAA?$AAI?$AAC?$AA2?$AA3?$AA?3?$AA?3?$AAI?$AAn?$AAi?$AAt?$AAH?$AAa?$AAr?$AAd?$AAw?$AAa?$AAr?$AAe?$AA?3@|
  00274		 |$LN27@InitHardwa|
  00274	00000000	 DCD         |??_C@_1HO@KJMOELFH@?$AA?$FL?$AAE?$AAR?$AAR?$AAO?$AAR?$AA?$FN?$AA?5?$AA?$CI?$AAL?$AA?$CC?$AAC?$AAA?$AAI?$AAC?$AA2?$AA3?$AA?3?$AA?3?$AAI?$AAn?$AAi?$AAt?$AAH?$AAa?$AAr?$AAd?$AAw?$AAa?$AAr?$AAe?$AA?3@|
  00278		 |$M38131|

			 ENDP  ; |?InitHardware@CAIC23@@QAAHKKK@Z|, CAIC23::InitHardware

	EXPORT	|?I2CWriteRegister@CAIC23@@AAAHEG@Z|	; CAIC23::I2CWriteRegister
	EXPORT	|?OutputEnable@CAIC23@@QAAHH@Z|		; CAIC23::OutputEnable

  00018			 AREA	 |.pdata|, PDATA
|$T38145| DCD	|$LN8@OutputEnab|
	DCD	0x40002d04
; Function compile flags: /Odtp

  00278			 AREA	 |.text|, CODE, ARM

  00278		 |?OutputEnable@CAIC23@@QAAHH@Z| PROC	; CAIC23::OutputEnable

; 90   : {

  00278		 |$LN8@OutputEnab|
  00278	e1a0c00d	 mov         r12, sp
  0027c	e92d0003	 stmdb       sp!, {r0, r1}
  00280	e92d5000	 stmdb       sp!, {r12, lr}
  00284	e24dd00c	 sub         sp, sp, #0xC
  00288		 |$M38142|

; 91   : 	UINT16 val = m_dwPwrDownShadowReg;

  00288	e59d3014	 ldr         r3, [sp, #0x14]
  0028c	e2833004	 add         r3, r3, #4
  00290	e1d330b0	 ldrh        r3, [r3]
  00294	e1cd30b0	 strh        r3, [sp]

; 92   : 
; 93   : 	if (bEnable)

  00298	e59d3018	 ldr         r3, [sp, #0x18]
  0029c	e3530000	 cmp         r3, #0
  002a0	0a000007	 beq         |$LN3@OutputEnab|

; 94   : 	{
; 95   : 		val &= ~AIC23_PWR_DOWN_DAC;

  002a4	e1dd30b0	 ldrh        r3, [sp]
  002a8	e1a02003	 mov         r2, r3
  002ac	e3e03008	 mvn         r3, #8
  002b0	e0023003	 and         r3, r2, r3
  002b4	e1a03803	 mov         r3, r3, lsl #16
  002b8	e1a03823	 mov         r3, r3, lsr #16
  002bc	e1cd30b0	 strh        r3, [sp]

; 96   : 	}
; 97   : 	else

  002c0	ea000004	 b           |$LN2@OutputEnab|
  002c4		 |$LN3@OutputEnab|

; 98   : 	{
; 99   : 		val |= AIC23_PWR_DOWN_DAC;

  002c4	e1dd30b0	 ldrh        r3, [sp]
  002c8	e3833008	 orr         r3, r3, #8
  002cc	e1a03803	 mov         r3, r3, lsl #16
  002d0	e1a03823	 mov         r3, r3, lsr #16
  002d4	e1cd30b0	 strh        r3, [sp]
  002d8		 |$LN2@OutputEnab|

; 100  : 	}
; 101  : 
; 102  : 	if (!I2CWriteRegister(AIC23_PWR_DOWN_CTRL_ADDR, val))

  002d8	e1dd20b0	 ldrh        r2, [sp]
  002dc	e3a01006	 mov         r1, #6
  002e0	e59d0014	 ldr         r0, [sp, #0x14]
  002e4	eb000000	 bl          |?I2CWriteRegister@CAIC23@@AAAHEG@Z|
  002e8	e58d0008	 str         r0, [sp, #8]
  002ec	e59d3008	 ldr         r3, [sp, #8]
  002f0	e3530000	 cmp         r3, #0
  002f4	1a000002	 bne         |$LN1@OutputEnab|

; 103  : 	{
; 104  : 		return FALSE;

  002f8	e3a03000	 mov         r3, #0
  002fc	e58d3004	 str         r3, [sp, #4]
  00300	ea000005	 b           |$LN4@OutputEnab|
  00304		 |$LN1@OutputEnab|

; 105  : 	}
; 106  : 
; 107  : 	m_dwPwrDownShadowReg = val;

  00304	e59d3014	 ldr         r3, [sp, #0x14]
  00308	e2832004	 add         r2, r3, #4
  0030c	e1dd30b0	 ldrh        r3, [sp]
  00310	e1c230b0	 strh        r3, [r2]

; 108  : 
; 109  : 	return TRUE;

  00314	e3a03001	 mov         r3, #1
  00318	e58d3004	 str         r3, [sp, #4]
  0031c		 |$LN4@OutputEnab|

; 110  : }

  0031c	e59d0004	 ldr         r0, [sp, #4]
  00320	e28dd00c	 add         sp, sp, #0xC
  00324	e89d6000	 ldmia       sp, {sp, lr}
  00328	e12fff1e	 bx          lr
  0032c		 |$M38143|

			 ENDP  ; |?OutputEnable@CAIC23@@QAAHH@Z|, CAIC23::OutputEnable

	EXPORT	|?InputEnable@CAIC23@@QAAHH@Z|		; CAIC23::InputEnable

  00020			 AREA	 |.pdata|, PDATA
|$T38151| DCD	|$LN10@InputEnabl|
	DCD	0x40004b04
; Function compile flags: /Odtp

  0032c			 AREA	 |.text|, CODE, ARM

  0032c		 |?InputEnable@CAIC23@@QAAHH@Z| PROC	; CAIC23::InputEnable

; 113  : {

  0032c		 |$LN10@InputEnabl|
  0032c	e1a0c00d	 mov         r12, sp
  00330	e92d0003	 stmdb       sp!, {r0, r1}
  00334	e92d5000	 stmdb       sp!, {r12, lr}
  00338	e24dd00c	 sub         sp, sp, #0xC
  0033c		 |$M38148|

; 114  : 	UINT16 val = m_dwPwrDownShadowReg;

  0033c	e59d3014	 ldr         r3, [sp, #0x14]
  00340	e2833004	 add         r3, r3, #4
  00344	e1d330b0	 ldrh        r3, [r3]
  00348	e1cd30b0	 strh        r3, [sp]

; 115  : 
; 116  : 	if (bEnable)

  0034c	e59d3018	 ldr         r3, [sp, #0x18]
  00350	e3530000	 cmp         r3, #0
  00354	0a000025	 beq         |$LN5@InputEnabl|

; 117  : 	{
; 118  : 		val &= ~AIC23_PWR_DOWN_ADC;

  00358	e1dd30b0	 ldrh        r3, [sp]
  0035c	e1a02003	 mov         r2, r3
  00360	e3e03004	 mvn         r3, #4
  00364	e0023003	 and         r3, r2, r3
  00368	e1a03803	 mov         r3, r3, lsl #16
  0036c	e1a03823	 mov         r3, r3, lsr #16
  00370	e1cd30b0	 strh        r3, [sp]

; 119  : 
; 120  : 		if (m_bMicrophone)

  00374	e59d3014	 ldr         r3, [sp, #0x14]
  00378	e2833008	 add         r3, r3, #8
  0037c	e5933000	 ldr         r3, [r3]
  00380	e3530000	 cmp         r3, #0
  00384	0a00000c	 beq         |$LN4@InputEnabl|

; 121  : 		{
; 122  : 			val |= AIC23_PWR_DOWN_LINE;

  00388	e1dd30b0	 ldrh        r3, [sp]
  0038c	e3833001	 orr         r3, r3, #1
  00390	e1a03803	 mov         r3, r3, lsl #16
  00394	e1a03823	 mov         r3, r3, lsr #16
  00398	e1cd30b0	 strh        r3, [sp]

; 123  : 			val &= ~AIC23_PWR_DOWN_MIC;

  0039c	e1dd30b0	 ldrh        r3, [sp]
  003a0	e1a02003	 mov         r2, r3
  003a4	e3e03002	 mvn         r3, #2
  003a8	e0023003	 and         r3, r2, r3
  003ac	e1a03803	 mov         r3, r3, lsl #16
  003b0	e1a03823	 mov         r3, r3, lsr #16
  003b4	e1cd30b0	 strh        r3, [sp]

; 124  : 		}
; 125  : 		else

  003b8	ea00000b	 b           |$LN3@InputEnabl|
  003bc		 |$LN4@InputEnabl|

; 126  : 		{
; 127  : 			val |= AIC23_PWR_DOWN_MIC;

  003bc	e1dd30b0	 ldrh        r3, [sp]
  003c0	e3833002	 orr         r3, r3, #2
  003c4	e1a03803	 mov         r3, r3, lsl #16
  003c8	e1a03823	 mov         r3, r3, lsr #16
  003cc	e1cd30b0	 strh        r3, [sp]

; 128  : 			val &= ~AIC23_PWR_DOWN_LINE;

  003d0	e1dd30b0	 ldrh        r3, [sp]
  003d4	e1a02003	 mov         r2, r3
  003d8	e3e03001	 mvn         r3, #1
  003dc	e0023003	 and         r3, r2, r3
  003e0	e1a03803	 mov         r3, r3, lsl #16
  003e4	e1a03823	 mov         r3, r3, lsr #16
  003e8	e1cd30b0	 strh        r3, [sp]
  003ec		 |$LN3@InputEnabl|

; 129  : 		}
; 130  : 	}
; 131  : 	else

  003ec	ea000004	 b           |$LN2@InputEnabl|
  003f0		 |$LN5@InputEnabl|

; 132  : 	{
; 133  : 		val |= (AIC23_PWR_DOWN_ADC | AIC23_PWR_DOWN_MIC | AIC23_PWR_DOWN_LINE);

  003f0	e1dd30b0	 ldrh        r3, [sp]
  003f4	e3833007	 orr         r3, r3, #7
  003f8	e1a03803	 mov         r3, r3, lsl #16
  003fc	e1a03823	 mov         r3, r3, lsr #16
  00400	e1cd30b0	 strh        r3, [sp]
  00404		 |$LN2@InputEnabl|

; 134  : 	}
; 135  : 
; 136  : 	if (!I2CWriteRegister(AIC23_PWR_DOWN_CTRL_ADDR, val))

  00404	e1dd20b0	 ldrh        r2, [sp]
  00408	e3a01006	 mov         r1, #6
  0040c	e59d0014	 ldr         r0, [sp, #0x14]
  00410	eb000000	 bl          |?I2CWriteRegister@CAIC23@@AAAHEG@Z|
  00414	e58d0008	 str         r0, [sp, #8]
  00418	e59d3008	 ldr         r3, [sp, #8]
  0041c	e3530000	 cmp         r3, #0
  00420	1a000002	 bne         |$LN1@InputEnabl|

; 137  : 	{
; 138  : 		return FALSE;

  00424	e3a03000	 mov         r3, #0
  00428	e58d3004	 str         r3, [sp, #4]
  0042c	ea000005	 b           |$LN6@InputEnabl|
  00430		 |$LN1@InputEnabl|

; 139  : 	}
; 140  : 
; 141  : 	m_dwPwrDownShadowReg = val;

  00430	e59d3014	 ldr         r3, [sp, #0x14]
  00434	e2832004	 add         r2, r3, #4
  00438	e1dd30b0	 ldrh        r3, [sp]
  0043c	e1c230b0	 strh        r3, [r2]

; 142  : 
; 143  : 	return TRUE;

  00440	e3a03001	 mov         r3, #1
  00444	e58d3004	 str         r3, [sp, #4]
  00448		 |$LN6@InputEnabl|

; 144  : }

  00448	e59d0004	 ldr         r0, [sp, #4]
  0044c	e28dd00c	 add         sp, sp, #0xC
  00450	e89d6000	 ldmia       sp, {sp, lr}
  00454	e12fff1e	 bx          lr
  00458		 |$M38149|

			 ENDP  ; |?InputEnable@CAIC23@@QAAHH@Z|, CAIC23::InputEnable

	EXPORT	|?SetLineInMux@CAIC23@@QAAHH@Z|		; CAIC23::SetLineInMux

  00028			 AREA	 |.pdata|, PDATA
|$T38157| DCD	|$LN8@SetLineInM|
	DCD	0x40003104
; Function compile flags: /Odtp

  00458			 AREA	 |.text|, CODE, ARM

  00458		 |?SetLineInMux@CAIC23@@QAAHH@Z| PROC	; CAIC23::SetLineInMux

; 147  : {

  00458		 |$LN8@SetLineInM|
  00458	e1a0c00d	 mov         r12, sp
  0045c	e92d0003	 stmdb       sp!, {r0, r1}
  00460	e92d5000	 stmdb       sp!, {r12, lr}
  00464	e24dd00c	 sub         sp, sp, #0xC
  00468		 |$M38154|

; 148  : 	UINT16 val = m_dwAudioPathShadowReg;

  00468	e59d3014	 ldr         r3, [sp, #0x14]
  0046c	e2833006	 add         r3, r3, #6
  00470	e1d330b0	 ldrh        r3, [r3]
  00474	e1cd30b0	 strh        r3, [sp]

; 149  : 
; 150  : 	if (bMic)

  00478	e59d3018	 ldr         r3, [sp, #0x18]
  0047c	e3530000	 cmp         r3, #0
  00480	0a000005	 beq         |$LN3@SetLineInM|

; 151  : 	{
; 152  : 		val |= AIC23_ANALOG_PATH_INSEL;

  00484	e1dd30b0	 ldrh        r3, [sp]
  00488	e3833004	 orr         r3, r3, #4
  0048c	e1a03803	 mov         r3, r3, lsl #16
  00490	e1a03823	 mov         r3, r3, lsr #16
  00494	e1cd30b0	 strh        r3, [sp]

; 153  : 	}
; 154  : 	else

  00498	ea000006	 b           |$LN2@SetLineInM|
  0049c		 |$LN3@SetLineInM|

; 155  : 	{
; 156  : 		val &= ~AIC23_ANALOG_PATH_INSEL;

  0049c	e1dd30b0	 ldrh        r3, [sp]
  004a0	e1a02003	 mov         r2, r3
  004a4	e3e03004	 mvn         r3, #4
  004a8	e0023003	 and         r3, r2, r3
  004ac	e1a03803	 mov         r3, r3, lsl #16
  004b0	e1a03823	 mov         r3, r3, lsr #16
  004b4	e1cd30b0	 strh        r3, [sp]
  004b8		 |$LN2@SetLineInM|

; 157  : 	}
; 158  : 
; 159  : 	if (!I2CWriteRegister(AIC23_ANALOG_PATH_CTRL_ADDR, val))

  004b8	e1dd20b0	 ldrh        r2, [sp]
  004bc	e3a01004	 mov         r1, #4
  004c0	e59d0014	 ldr         r0, [sp, #0x14]
  004c4	eb000000	 bl          |?I2CWriteRegister@CAIC23@@AAAHEG@Z|
  004c8	e58d0008	 str         r0, [sp, #8]
  004cc	e59d3008	 ldr         r3, [sp, #8]
  004d0	e3530000	 cmp         r3, #0
  004d4	1a000002	 bne         |$LN1@SetLineInM|

; 160  : 	{
; 161  : 		return FALSE;

  004d8	e3a03000	 mov         r3, #0
  004dc	e58d3004	 str         r3, [sp, #4]
  004e0	ea000009	 b           |$LN4@SetLineInM|
  004e4		 |$LN1@SetLineInM|

; 162  : 	}	
; 163  : 
; 164  : 	m_dwAudioPathShadowReg = val;

  004e4	e59d3014	 ldr         r3, [sp, #0x14]
  004e8	e2832006	 add         r2, r3, #6
  004ec	e1dd30b0	 ldrh        r3, [sp]
  004f0	e1c230b0	 strh        r3, [r2]

; 165  : 	m_bMicrophone = bMic;

  004f4	e59d3014	 ldr         r3, [sp, #0x14]
  004f8	e2832008	 add         r2, r3, #8
  004fc	e59d3018	 ldr         r3, [sp, #0x18]
  00500	e5823000	 str         r3, [r2]

; 166  : 
; 167  : 	return TRUE;

  00504	e3a03001	 mov         r3, #1
  00508	e58d3004	 str         r3, [sp, #4]
  0050c		 |$LN4@SetLineInM|

; 168  : }

  0050c	e59d0004	 ldr         r0, [sp, #4]
  00510	e28dd00c	 add         sp, sp, #0xC
  00514	e89d6000	 ldmia       sp, {sp, lr}
  00518	e12fff1e	 bx          lr
  0051c		 |$M38155|

			 ENDP  ; |?SetLineInMux@CAIC23@@QAAHH@Z|, CAIC23::SetLineInMux

	EXPORT	|?SetMicBoost@CAIC23@@QAAHH@Z|		; CAIC23::SetMicBoost

  00030			 AREA	 |.pdata|, PDATA
|$T38163| DCD	|$LN8@SetMicBoos|
	DCD	0x40002d04
; Function compile flags: /Odtp

  0051c			 AREA	 |.text|, CODE, ARM

  0051c		 |?SetMicBoost@CAIC23@@QAAHH@Z| PROC	; CAIC23::SetMicBoost

; 171  : {

  0051c		 |$LN8@SetMicBoos|
  0051c	e1a0c00d	 mov         r12, sp
  00520	e92d0003	 stmdb       sp!, {r0, r1}
  00524	e92d5000	 stmdb       sp!, {r12, lr}
  00528	e24dd00c	 sub         sp, sp, #0xC
  0052c		 |$M38160|

; 172  : 	UINT16 val = m_dwAudioPathShadowReg;

  0052c	e59d3014	 ldr         r3, [sp, #0x14]
  00530	e2833006	 add         r3, r3, #6
  00534	e1d330b0	 ldrh        r3, [r3]
  00538	e1cd30b0	 strh        r3, [sp]

; 173  : 
; 174  : 	if (bMicBoost)

  0053c	e59d3018	 ldr         r3, [sp, #0x18]
  00540	e3530000	 cmp         r3, #0
  00544	0a000005	 beq         |$LN3@SetMicBoos|

; 175  : 	{
; 176  : 		val |= AIC23_ANALOG_PATH_MICB;

  00548	e1dd30b0	 ldrh        r3, [sp]
  0054c	e3833001	 orr         r3, r3, #1
  00550	e1a03803	 mov         r3, r3, lsl #16
  00554	e1a03823	 mov         r3, r3, lsr #16
  00558	e1cd30b0	 strh        r3, [sp]

; 177  : 	}
; 178  : 	else

  0055c	ea000006	 b           |$LN2@SetMicBoos|
  00560		 |$LN3@SetMicBoos|

; 179  : 	{
; 180  : 		val &= ~AIC23_ANALOG_PATH_MICB;

  00560	e1dd30b0	 ldrh        r3, [sp]
  00564	e1a02003	 mov         r2, r3
  00568	e3e03001	 mvn         r3, #1
  0056c	e0023003	 and         r3, r2, r3
  00570	e1a03803	 mov         r3, r3, lsl #16
  00574	e1a03823	 mov         r3, r3, lsr #16
  00578	e1cd30b0	 strh        r3, [sp]
  0057c		 |$LN2@SetMicBoos|

; 181  : 	}
; 182  : 
; 183  : 	if (!I2CWriteRegister(AIC23_ANALOG_PATH_CTRL_ADDR, val))

  0057c	e1dd20b0	 ldrh        r2, [sp]
  00580	e3a01004	 mov         r1, #4
  00584	e59d0014	 ldr         r0, [sp, #0x14]
  00588	eb000000	 bl          |?I2CWriteRegister@CAIC23@@AAAHEG@Z|
  0058c	e58d0008	 str         r0, [sp, #8]
  00590	e59d3008	 ldr         r3, [sp, #8]
  00594	e3530000	 cmp         r3, #0
  00598	1a000002	 bne         |$LN1@SetMicBoos|

; 184  : 	{
; 185  : 		return FALSE;

  0059c	e3a03000	 mov         r3, #0
  005a0	e58d3004	 str         r3, [sp, #4]
  005a4	ea000005	 b           |$LN4@SetMicBoos|
  005a8		 |$LN1@SetMicBoos|

; 186  : 	}	
; 187  : 
; 188  : 	m_dwAudioPathShadowReg = val;

  005a8	e59d3014	 ldr         r3, [sp, #0x14]
  005ac	e2832006	 add         r2, r3, #6
  005b0	e1dd30b0	 ldrh        r3, [sp]
  005b4	e1c230b0	 strh        r3, [r2]

; 189  : 
; 190  : 	return TRUE;

  005b8	e3a03001	 mov         r3, #1
  005bc	e58d3004	 str         r3, [sp, #4]
  005c0		 |$LN4@SetMicBoos|

; 191  : }

  005c0	e59d0004	 ldr         r0, [sp, #4]
  005c4	e28dd00c	 add         sp, sp, #0xC
  005c8	e89d6000	 ldmia       sp, {sp, lr}
  005cc	e12fff1e	 bx          lr
  005d0		 |$M38161|

			 ENDP  ; |?SetMicBoost@CAIC23@@QAAHH@Z|, CAIC23::SetMicBoost


  00038			 AREA	 |.pdata|, PDATA
|$T38169| DCD	|$LN5@ResetCodec|
	DCD	0x40000f04
; Function compile flags: /Odtp

  005d0			 AREA	 |.text|, CODE, ARM

  005d0		 |?ResetCodec@CAIC23@@AAAHXZ| PROC	; CAIC23::ResetCodec

; 194  : {

  005d0		 |$LN5@ResetCodec|
  005d0	e1a0c00d	 mov         r12, sp
  005d4	e92d0001	 stmdb       sp!, {r0}
  005d8	e92d5000	 stmdb       sp!, {r12, lr}
  005dc	e24dd008	 sub         sp, sp, #8
  005e0		 |$M38166|

; 195  : 	return I2CWriteRegister(AIC23_RESET_REG_ADDR, 0);

  005e0	e3a02000	 mov         r2, #0
  005e4	e3a0100f	 mov         r1, #0xF
  005e8	e59d0010	 ldr         r0, [sp, #0x10]
  005ec	eb000000	 bl          |?I2CWriteRegister@CAIC23@@AAAHEG@Z|
  005f0	e58d0004	 str         r0, [sp, #4]
  005f4	e59d3004	 ldr         r3, [sp, #4]
  005f8	e58d3000	 str         r3, [sp]

; 196  : }

  005fc	e59d0000	 ldr         r0, [sp]
  00600	e28dd008	 add         sp, sp, #8
  00604	e89d6000	 ldmia       sp, {sp, lr}
  00608	e12fff1e	 bx          lr
  0060c		 |$M38167|

			 ENDP  ; |?ResetCodec@CAIC23@@AAAHXZ|, CAIC23::ResetCodec


  00040			 AREA	 |.pdata|, PDATA
|$T38175| DCD	|$LN13@ConfigureC|
	DCD	0x40003e04
; Function compile flags: /Odtp

  0060c			 AREA	 |.text|, CODE, ARM

  0060c		 |?ConfigureCodec@CAIC23@@AAAHXZ| PROC	; CAIC23::ConfigureCodec

; 199  : {

  0060c		 |$LN13@ConfigureC|
  0060c	e1a0c00d	 mov         r12, sp
  00610	e92d0001	 stmdb       sp!, {r0}
  00614	e92d5000	 stmdb       sp!, {r12, lr}
  00618	e24dd018	 sub         sp, sp, #0x18
  0061c		 |$M38172|

; 200  : 	BOOL bRet = FALSE;

  0061c	e3a03000	 mov         r3, #0
  00620	e58d3000	 str         r3, [sp]

; 201  : 
; 202  : 	// Disable ADC/DAC
; 203  : 	OutputEnable(FALSE);

  00624	e3a01000	 mov         r1, #0
  00628	e59d0020	 ldr         r0, [sp, #0x20]
  0062c	eb000000	 bl          |?OutputEnable@CAIC23@@QAAHH@Z|

; 204  : 	InputEnable(FALSE);

  00630	e3a01000	 mov         r1, #0
  00634	e59d0020	 ldr         r0, [sp, #0x20]
  00638	eb000000	 bl          |?InputEnable@CAIC23@@QAAHH@Z|

; 205  : 
; 206  : 	// Select DAC
; 207  : 	if (!I2CWriteRegister(AIC23_ANALOG_PATH_CTRL_ADDR, m_dwAudioPathShadowReg))

  0063c	e59d3020	 ldr         r3, [sp, #0x20]
  00640	e2833006	 add         r3, r3, #6
  00644	e1d320b0	 ldrh        r2, [r3]
  00648	e3a01004	 mov         r1, #4
  0064c	e59d0020	 ldr         r0, [sp, #0x20]
  00650	eb000000	 bl          |?I2CWriteRegister@CAIC23@@AAAHEG@Z|
  00654	e58d0008	 str         r0, [sp, #8]
  00658	e59d3008	 ldr         r3, [sp, #8]
  0065c	e3530000	 cmp         r3, #0
  00660	1a000001	 bne         |$LN8@ConfigureC|
  00664	ea000020	 b           |$LN7@ConfigureC|

; 208  : 	{
; 209  : 		goto exit;

  00668	ea00001f	 b           |$exit$38042|
  0066c		 |$LN8@ConfigureC|

; 210  : 	}
; 211  : 
; 212  : 	// De-emphasis 44.1 kHz, High-Pass filter enable
; 213  : 	if (!I2CWriteRegister(AIC23_DIGITAL_PATH_CTRL_ADDR, 0x05))

  0066c	e3a02005	 mov         r2, #5
  00670	e3a01005	 mov         r1, #5
  00674	e59d0020	 ldr         r0, [sp, #0x20]
  00678	eb000000	 bl          |?I2CWriteRegister@CAIC23@@AAAHEG@Z|
  0067c	e58d000c	 str         r0, [sp, #0xC]
  00680	e59d300c	 ldr         r3, [sp, #0xC]
  00684	e3530000	 cmp         r3, #0
  00688	1a000001	 bne         |$LN6@ConfigureC|
  0068c	ea000016	 b           |$LN5@ConfigureC|

; 214  : 	{
; 215  : 		goto exit;

  00690	ea000015	 b           |$exit$38042|
  00694		 |$LN6@ConfigureC|

; 216  : 	}
; 217  : 
; 218  : 	// I2S Slave mode, 16 bit
; 219  : 	if (!I2CWriteRegister(AIC23_DIGITAL_FORMAT_ADDR, 0x02))

  00694	e3a02002	 mov         r2, #2
  00698	e3a01007	 mov         r1, #7
  0069c	e59d0020	 ldr         r0, [sp, #0x20]
  006a0	eb000000	 bl          |?I2CWriteRegister@CAIC23@@AAAHEG@Z|
  006a4	e58d0010	 str         r0, [sp, #0x10]
  006a8	e59d3010	 ldr         r3, [sp, #0x10]
  006ac	e3530000	 cmp         r3, #0
  006b0	1a000001	 bne         |$LN4@ConfigureC|
  006b4	ea00000c	 b           |$LN3@ConfigureC|

; 220  : 	{
; 221  : 		goto exit;

  006b8	ea00000b	 b           |$exit$38042|
  006bc		 |$LN4@ConfigureC|

; 222  : 	}
; 223  : 
; 224  : 	// Activate digital interface
; 225  : 	if (!I2CWriteRegister(AIC23_DIGITAL_ACT_ADDR, 0x01))

  006bc	e3a02001	 mov         r2, #1
  006c0	e3a01009	 mov         r1, #9
  006c4	e59d0020	 ldr         r0, [sp, #0x20]
  006c8	eb000000	 bl          |?I2CWriteRegister@CAIC23@@AAAHEG@Z|
  006cc	e58d0014	 str         r0, [sp, #0x14]
  006d0	e59d3014	 ldr         r3, [sp, #0x14]
  006d4	e3530000	 cmp         r3, #0
  006d8	1a000001	 bne         |$LN2@ConfigureC|
  006dc	ea000002	 b           |$LN1@ConfigureC|

; 226  : 	{
; 227  : 		goto exit;

  006e0	ea000001	 b           |$exit$38042|
  006e4		 |$LN2@ConfigureC|

; 228  : 	}
; 229  : 
; 230  : 	bRet = TRUE;

  006e4	e3a03001	 mov         r3, #1
  006e8	e58d3000	 str         r3, [sp]
  006ec		 |$LN1@ConfigureC|
  006ec		 |$LN3@ConfigureC|
  006ec		 |$LN5@ConfigureC|
  006ec		 |$LN7@ConfigureC|
  006ec		 |$exit$38042|

; 231  : 
; 232  : exit:
; 233  : 
; 234  : 	return bRet;

  006ec	e59d3000	 ldr         r3, [sp]
  006f0	e58d3004	 str         r3, [sp, #4]

; 235  : }

  006f4	e59d0004	 ldr         r0, [sp, #4]
  006f8	e28dd018	 add         sp, sp, #0x18
  006fc	e89d6000	 ldmia       sp, {sp, lr}
  00700	e12fff1e	 bx          lr
  00704		 |$M38173|

			 ENDP  ; |?ConfigureCodec@CAIC23@@AAAHXZ|, CAIC23::ConfigureCodec

	EXPORT	|?SetOutputVolume@CAIC23@@QAAHKG@Z|	; CAIC23::SetOutputVolume
	IMPORT	|__rt_sdiv|

  00048			 AREA	 |.pdata|, PDATA
|$T38184| DCD	|$LN9@SetOutputV|
	DCD	0x40002f04
; Function compile flags: /Odtp

  00704			 AREA	 |.text|, CODE, ARM

  00704		 |?SetOutputVolume@CAIC23@@QAAHKG@Z| PROC ; CAIC23::SetOutputVolume

; 238  : {

  00704		 |$LN9@SetOutputV|
  00704	e1a0c00d	 mov         r12, sp
  00708	e92d0007	 stmdb       sp!, {r0 - r2}
  0070c	e92d5000	 stmdb       sp!, {r12, lr}
  00710	e24dd014	 sub         sp, sp, #0x14
  00714		 |$M38181|

; 239  : 	BOOL bRet = FALSE;

  00714	e3a03000	 mov         r3, #0
  00718	e58d3004	 str         r3, [sp, #4]

; 240  : 	BYTE reg;
; 241  : 
; 242  : 	reg = (BYTE)(((val * 0x4F) / 0xFFFF) + 0x30);

  0071c	e1dd32b4	 ldrh        r3, [sp, #0x24]
  00720	e1a02003	 mov         r2, r3
  00724	e3a0304f	 mov         r3, #0x4F
  00728	e0010392	 mul         r1, r2, r3
  0072c	e3a00cff	 mov         r0, #0xFF, 24
  00730	e38000ff	 orr         r0, r0, #0xFF
  00734	eb000000	 bl          __rt_sdiv
  00738	e2803030	 add         r3, r0, #0x30
  0073c	e20330ff	 and         r3, r3, #0xFF
  00740	e5cd3000	 strb        r3, [sp]

; 243  : 	reg |= (1 << 7);	// Enable Zero-Cross detect

  00744	e5dd3000	 ldrb        r3, [sp]
  00748	e3833080	 orr         r3, r3, #0x80
  0074c	e20330ff	 and         r3, r3, #0xFF
  00750	e5cd3000	 strb        r3, [sp]

; 244  : 	
; 245  : 	if (!I2CWriteRegister(bLeft ? AIC23_LHEAD_VOL_CTRL_ADDR : AIC23_RHEAD_VOL_CTRL_ADDR, reg))

  00754	e59d3020	 ldr         r3, [sp, #0x20]
  00758	e3530000	 cmp         r3, #0
  0075c	0a000002	 beq         |$LN5@SetOutputV|
  00760	e3a03002	 mov         r3, #2
  00764	e58d300c	 str         r3, [sp, #0xC]
  00768	ea000001	 b           |$LN6@SetOutputV|
  0076c		 |$LN5@SetOutputV|
  0076c	e3a03003	 mov         r3, #3
  00770	e58d300c	 str         r3, [sp, #0xC]
  00774		 |$LN6@SetOutputV|
  00774	e5dd2000	 ldrb        r2, [sp]
  00778	e59d300c	 ldr         r3, [sp, #0xC]
  0077c	e20310ff	 and         r1, r3, #0xFF
  00780	e59d001c	 ldr         r0, [sp, #0x1C]
  00784	eb000000	 bl          |?I2CWriteRegister@CAIC23@@AAAHEG@Z|
  00788	e58d0010	 str         r0, [sp, #0x10]
  0078c	e59d3010	 ldr         r3, [sp, #0x10]
  00790	e3530000	 cmp         r3, #0
  00794	1a000001	 bne         |$LN2@SetOutputV|
  00798	ea000002	 b           |$LN1@SetOutputV|

; 246  : 	{
; 247  : 		goto exit;

  0079c	ea000001	 b           |$exit$38059|
  007a0		 |$LN2@SetOutputV|

; 248  : 	}
; 249  : 
; 250  : 	bRet = TRUE;

  007a0	e3a03001	 mov         r3, #1
  007a4	e58d3004	 str         r3, [sp, #4]
  007a8		 |$LN1@SetOutputV|
  007a8		 |$exit$38059|

; 251  : 
; 252  : exit:
; 253  : 
; 254  : 	return bRet;

  007a8	e59d3004	 ldr         r3, [sp, #4]
  007ac	e58d3008	 str         r3, [sp, #8]

; 255  : }

  007b0	e59d0008	 ldr         r0, [sp, #8]
  007b4	e28dd014	 add         sp, sp, #0x14
  007b8	e89d6000	 ldmia       sp, {sp, lr}
  007bc	e12fff1e	 bx          lr
  007c0		 |$M38182|

			 ENDP  ; |?SetOutputVolume@CAIC23@@QAAHKG@Z|, CAIC23::SetOutputVolume

	EXPORT	|?SetInputVolume@CAIC23@@QAAHKG@Z|	; CAIC23::SetInputVolume

  00050			 AREA	 |.pdata|, PDATA
|$T38192| DCD	|$LN9@SetInputVo|
	DCD	0x40002a04
; Function compile flags: /Odtp

  007c0			 AREA	 |.text|, CODE, ARM

  007c0		 |?SetInputVolume@CAIC23@@QAAHKG@Z| PROC ; CAIC23::SetInputVolume

; 258  : {

  007c0		 |$LN9@SetInputVo|
  007c0	e1a0c00d	 mov         r12, sp
  007c4	e92d0007	 stmdb       sp!, {r0 - r2}
  007c8	e92d5000	 stmdb       sp!, {r12, lr}
  007cc	e24dd014	 sub         sp, sp, #0x14
  007d0		 |$M38189|

; 259  : 	BOOL bRet = FALSE;

  007d0	e3a03000	 mov         r3, #0
  007d4	e58d3004	 str         r3, [sp, #4]

; 260  : 	BYTE reg;
; 261  : 
; 262  : 	reg = (BYTE)((val * 0x1F) / 0xFFFF);

  007d8	e1dd32b4	 ldrh        r3, [sp, #0x24]
  007dc	e1a02003	 mov         r2, r3
  007e0	e3a0301f	 mov         r3, #0x1F
  007e4	e0010392	 mul         r1, r2, r3
  007e8	e3a00cff	 mov         r0, #0xFF, 24
  007ec	e38000ff	 orr         r0, r0, #0xFF
  007f0	eb000000	 bl          __rt_sdiv
  007f4	e20030ff	 and         r3, r0, #0xFF
  007f8	e5cd3000	 strb        r3, [sp]

; 263  : 	
; 264  : 	if (!I2CWriteRegister(bLeft ? AIC23_LIN_VOL_CTRL_ADDR : AIC23_RIN_VOL_CTRL_ADDR, reg))

  007fc	e59d3020	 ldr         r3, [sp, #0x20]
  00800	e3530000	 cmp         r3, #0
  00804	0a000002	 beq         |$LN5@SetInputVo|
  00808	e3a03000	 mov         r3, #0
  0080c	e58d300c	 str         r3, [sp, #0xC]
  00810	ea000001	 b           |$LN6@SetInputVo|
  00814		 |$LN5@SetInputVo|
  00814	e3a03001	 mov         r3, #1
  00818	e58d300c	 str         r3, [sp, #0xC]
  0081c		 |$LN6@SetInputVo|
  0081c	e5dd2000	 ldrb        r2, [sp]
  00820	e59d300c	 ldr         r3, [sp, #0xC]
  00824	e20310ff	 and         r1, r3, #0xFF
  00828	e59d001c	 ldr         r0, [sp, #0x1C]
  0082c	eb000000	 bl          |?I2CWriteRegister@CAIC23@@AAAHEG@Z|
  00830	e58d0010	 str         r0, [sp, #0x10]
  00834	e59d3010	 ldr         r3, [sp, #0x10]
  00838	e3530000	 cmp         r3, #0
  0083c	1a000001	 bne         |$LN2@SetInputVo|
  00840	ea000002	 b           |$LN1@SetInputVo|

; 265  : 	{
; 266  : 		goto exit;

  00844	ea000001	 b           |$exit$38070|
  00848		 |$LN2@SetInputVo|

; 267  : 	}
; 268  : 
; 269  : 	bRet = TRUE;

  00848	e3a03001	 mov         r3, #1
  0084c	e58d3004	 str         r3, [sp, #4]
  00850		 |$LN1@SetInputVo|
  00850		 |$exit$38070|

; 270  : 
; 271  : exit:
; 272  : 
; 273  : 	return bRet;

  00850	e59d3004	 ldr         r3, [sp, #4]
  00854	e58d3008	 str         r3, [sp, #8]

; 274  : }

  00858	e59d0008	 ldr         r0, [sp, #8]
  0085c	e28dd014	 add         sp, sp, #0x14
  00860	e89d6000	 ldmia       sp, {sp, lr}
  00864	e12fff1e	 bx          lr
  00868		 |$M38190|

			 ENDP  ; |?SetInputVolume@CAIC23@@QAAHKG@Z|, CAIC23::SetInputVolume


  00058			 AREA	 |.pdata|, PDATA
|$T38198| DCD	|$LN10@SetSampleR|
	DCD	0x40003904
; Function compile flags: /Odtp

  00868			 AREA	 |.text|, CODE, ARM

  00868		 |?SetSampleRate@CAIC23@@AAAHK@Z| PROC	; CAIC23::SetSampleRate

; 277  : {

  00868		 |$LN10@SetSampleR|
  00868	e1a0c00d	 mov         r12, sp
  0086c	e92d0003	 stmdb       sp!, {r0, r1}
  00870	e92d5000	 stmdb       sp!, {r12, lr}
  00874	e24dd010	 sub         sp, sp, #0x10
  00878		 |$M38195|

; 278  : 	DWORD index = 0;

  00878	e3a03000	 mov         r3, #0
  0087c	e58d3000	 str         r3, [sp]

; 279  : 	DWORD tabSize = sizeof(SampleRatesTab)/sizeof(SampleRatesTab[0]);

  00880	e3a03006	 mov         r3, #6
  00884	e58d3004	 str         r3, [sp, #4]
  00888		 |$LN5@SetSampleR|

; 280  : 
; 281  : 	while (index < tabSize)

  00888	e59d2000	 ldr         r2, [sp]
  0088c	e59d3004	 ldr         r3, [sp, #4]
  00890	e1520003	 cmp         r2, r3
  00894	2a00000d	 bcs         |$LN4@SetSampleR|

; 282  : 	{
; 283  : 		if (val >= SampleRatesTab[index].SampleRate)

  00898	e59d1000	 ldr         r1, [sp]
  0089c	e3a03008	 mov         r3, #8
  008a0	e0020391	 mul         r2, r1, r3
  008a4	e59f309c	 ldr         r3, [pc, #0x9C]
  008a8	e0833002	 add         r3, r3, r2
  008ac	e59d201c	 ldr         r2, [sp, #0x1C]
  008b0	e5933000	 ldr         r3, [r3]
  008b4	e1520003	 cmp         r2, r3
  008b8	3a000000	 bcc         |$LN3@SetSampleR|

; 284  : 		{
; 285  : 			break;

  008bc	ea000003	 b           |$LN4@SetSampleR|
  008c0		 |$LN3@SetSampleR|

; 286  : 		}
; 287  : 		index++;

  008c0	e59d3000	 ldr         r3, [sp]
  008c4	e2833001	 add         r3, r3, #1
  008c8	e58d3000	 str         r3, [sp]

; 288  : 	}

  008cc	eaffffed	 b           |$LN5@SetSampleR|
  008d0		 |$LN4@SetSampleR|

; 289  : 
; 290  : 	// Make sure we did not pass the last value
; 291  : 	if (index >= tabSize)

  008d0	e59d2000	 ldr         r2, [sp]
  008d4	e59d3004	 ldr         r3, [sp, #4]
  008d8	e1520003	 cmp         r2, r3
  008dc	3a000002	 bcc         |$LN2@SetSampleR|

; 292  : 	{
; 293  : 		index = tabSize - 1;

  008e0	e59d3004	 ldr         r3, [sp, #4]
  008e4	e2433001	 sub         r3, r3, #1
  008e8	e58d3000	 str         r3, [sp]
  008ec		 |$LN2@SetSampleR|

; 294  : 	}
; 295  : 
; 296  : 	// Configure Sample rate
; 297  : 	if (!I2CWriteRegister(AIC23_SAMPLE_RATE_CTRL_ADDR, SampleRatesTab[index].RegVal))

  008ec	e59d1000	 ldr         r1, [sp]
  008f0	e3a03008	 mov         r3, #8
  008f4	e0020391	 mul         r2, r1, r3
  008f8	e59f3048	 ldr         r3, [pc, #0x48]
  008fc	e0833002	 add         r3, r3, r2
  00900	e2833004	 add         r3, r3, #4
  00904	e1d320b0	 ldrh        r2, [r3]
  00908	e3a01008	 mov         r1, #8
  0090c	e59d0018	 ldr         r0, [sp, #0x18]
  00910	eb000000	 bl          |?I2CWriteRegister@CAIC23@@AAAHEG@Z|
  00914	e58d000c	 str         r0, [sp, #0xC]
  00918	e59d300c	 ldr         r3, [sp, #0xC]
  0091c	e3530000	 cmp         r3, #0
  00920	1a000002	 bne         |$LN1@SetSampleR|

; 298  : 	{
; 299  : 		return FALSE;

  00924	e3a03000	 mov         r3, #0
  00928	e58d3008	 str         r3, [sp, #8]
  0092c	ea000001	 b           |$LN6@SetSampleR|
  00930		 |$LN1@SetSampleR|

; 300  : 	}
; 301  : 
; 302  : 	return TRUE;

  00930	e3a03001	 mov         r3, #1
  00934	e58d3008	 str         r3, [sp, #8]
  00938		 |$LN6@SetSampleR|

; 303  : }

  00938	e59d0008	 ldr         r0, [sp, #8]
  0093c	e28dd010	 add         sp, sp, #0x10
  00940	e89d6000	 ldmia       sp, {sp, lr}
  00944	e12fff1e	 bx          lr
  00948		 |$LN11@SetSampleR|
  00948		 |$LN12@SetSampleR|
  00948	00000000	 DCD         |SampleRatesTab|
  0094c		 |$M38196|

			 ENDP  ; |?SetSampleRate@CAIC23@@AAAHK@Z|, CAIC23::SetSampleRate

	IMPORT	|I2CWrite|

  00060			 AREA	 |.pdata|, PDATA
|$T38206| DCD	|$LN6@I2CWriteRe|
	DCD	0x40002404
; Function compile flags: /Odtp

  0094c			 AREA	 |.text|, CODE, ARM

  0094c		 |?I2CWriteRegister@CAIC23@@AAAHEG@Z| PROC ; CAIC23::I2CWriteRegister

; 306  : {

  0094c		 |$LN6@I2CWriteRe|
  0094c	e1a0c00d	 mov         r12, sp
  00950	e92d0007	 stmdb       sp!, {r0 - r2}
  00954	e92d5000	 stmdb       sp!, {r12, lr}
  00958	e24dd010	 sub         sp, sp, #0x10
  0095c		 |$M38203|

; 307  : 	BOOL bRet = TRUE;

  0095c	e3a03001	 mov         r3, #1
  00960	e58d3004	 str         r3, [sp, #4]

; 308  : 	BYTE Buf = (BYTE)(val & 0xFF);

  00964	e1dd32b0	 ldrh        r3, [sp, #0x20]
  00968	e20330ff	 and         r3, r3, #0xFF
  0096c	e20330ff	 and         r3, r3, #0xFF
  00970	e5cd3000	 strb        r3, [sp]

; 309  : 
; 310  : 	reg = (BYTE)((reg << 1) | ((val & 0x0100) >> 8));

  00974	e5dd301c	 ldrb        r3, [sp, #0x1C]
  00978	e1a02083	 mov         r2, r3, lsl #1
  0097c	e1dd32b0	 ldrh        r3, [sp, #0x20]
  00980	e2033c01	 and         r3, r3, #1, 24
  00984	e1a03443	 mov         r3, r3, asr #8
  00988	e1823003	 orr         r3, r2, r3
  0098c	e20330ff	 and         r3, r3, #0xFF
  00990	e5cd301c	 strb        r3, [sp, #0x1C]

; 311  : 
; 312  : 	if (I2CWrite(m_hI2CDevice, reg, &Buf, sizeof(Buf)) != sizeof(Buf))

  00994	e3a03001	 mov         r3, #1
  00998	e28d2000	 add         r2, sp, #0
  0099c	e5dd101c	 ldrb        r1, [sp, #0x1C]
  009a0	e59d0018	 ldr         r0, [sp, #0x18]
  009a4	e5900000	 ldr         r0, [r0]
  009a8	eb000000	 bl          I2CWrite
  009ac	e58d000c	 str         r0, [sp, #0xC]
  009b0	e59d300c	 ldr         r3, [sp, #0xC]
  009b4	e3530001	 cmp         r3, #1
  009b8	0a000001	 beq         |$LN1@I2CWriteRe|

; 313  : 	{
; 314  : 		bRet = FALSE;

  009bc	e3a03000	 mov         r3, #0
  009c0	e58d3004	 str         r3, [sp, #4]
  009c4		 |$LN1@I2CWriteRe|

; 315  : 	}
; 316  : 
; 317  : 	return bRet;

  009c4	e59d3004	 ldr         r3, [sp, #4]
  009c8	e58d3008	 str         r3, [sp, #8]

; 318  : }

  009cc	e59d0008	 ldr         r0, [sp, #8]
  009d0	e28dd010	 add         sp, sp, #0x10
  009d4	e89d6000	 ldmia       sp, {sp, lr}
  009d8	e12fff1e	 bx          lr
  009dc		 |$M38204|

			 ENDP  ; |?I2CWriteRegister@CAIC23@@AAAHEG@Z|, CAIC23::I2CWriteRegister

	END
