; Listing generated by Microsoft (R) Optimizing Compiler Version 14.01.60511.01 

	TTL	C:\WINCE600\PLATFORM\COMMON\SRC\SOC\COMMON_TI_V1\COMMON_TI\WAVEDEV2\wavemain.cpp
	CODE32

  00000			 AREA	 |.drectve|, DRECTVE
	DCB	"-defaultlib:LIBCMT "
	DCB	"-defaultlib:OLDNAMES "

	EXPORT	|dpCurSettings| [ DATA ]

  00000			 AREA	 |.data|, DATA
|dpCurSettings| DCB "W", 0x0, "a", 0x0, "v", 0x0, "e", 0x0, "D", 0x0, "r", 0x0
	DCB	"i", 0x0, "v", 0x0, "e", 0x0, "r", 0x0, 0x0, 0x0
	%	42
	DCB	"T", 0x0, "e", 0x0, "s", 0x0, "t", 0x0, 0x0, 0x0
	%	54
	DCB	"P", 0x0, "a", 0x0, "r", 0x0, "a", 0x0, "m", 0x0, "s", 0x0
	DCB	0x0, 0x0
	%	50
	DCB	"V", 0x0, "e", 0x0, "r", 0x0, "b", 0x0, "o", 0x0, "s", 0x0
	DCB	"e", 0x0, 0x0, 0x0
	%	48
	DCB	"I", 0x0, "n", 0x0, "t", 0x0, "e", 0x0, "r", 0x0, "r", 0x0
	DCB	"u", 0x0, "p", 0x0, "t", 0x0, 0x0, 0x0
	%	44
	DCB	"W", 0x0, "O", 0x0, "D", 0x0, "M", 0x0, 0x0, 0x0
	%	54
	DCB	"W", 0x0, "I", 0x0, "D", 0x0, "M", 0x0, 0x0, 0x0
	%	54
	DCB	"P", 0x0, "D", 0x0, "D", 0x0, 0x0, 0x0
	%	56
	DCB	"M", 0x0, "D", 0x0, "D", 0x0, 0x0, 0x0
	%	56
	DCB	"R", 0x0, "e", 0x0, "g", 0x0, "s", 0x0, 0x0, 0x0
	%	54
	DCB	"M", 0x0, "i", 0x0, "s", 0x0, "c", 0x0, 0x0, 0x0
	%	54
	DCB	"I", 0x0, "n", 0x0, "i", 0x0, "t", 0x0, 0x0, 0x0
	%	54
	DCB	"I", 0x0, "O", 0x0, "c", 0x0, "o", 0x0, "n", 0x0, "t", 0x0
	DCB	"r", 0x0, "o", 0x0, "l", 0x0, 0x0, 0x0
	%	44
	DCB	"A", 0x0, "l", 0x0, "l", 0x0, "o", 0x0, "c", 0x0, 0x0, 0x0
	%	52
	DCB	"F", 0x0, "u", 0x0, "n", 0x0, "c", 0x0, "t", 0x0, "i", 0x0
	DCB	"o", 0x0, "n", 0x0, 0x0, 0x0
	%	46
	DCB	"W", 0x0, "a", 0x0, "r", 0x0, "n", 0x0, "i", 0x0, "n", 0x0
	DCB	"g", 0x0, 0x0, 0x0
	%	48
	DCB	"E", 0x0, "r", 0x0, "r", 0x0, "o", 0x0, "r", 0x0, 0x0, 0x0
	%	52
	DCD	0xc000
	EXPORT	|??_C@_1CE@FMLHENHP@?$AAW?$AAA?$AAV?$AA?3?$AA?9?$AAE?$AAn?$AAt?$AAe?$AAr?$AAM?$AAu?$AAt?$AAe?$AAx?$AA?$AN?$AA?6?$AA?$AA@| [ DATA ] ; `string'
	EXPORT	|??_C@_1CE@FJALEDDB@?$AAW?$AAA?$AAV?$AA?3?$AA?$CL?$AAE?$AAn?$AAt?$AAe?$AAr?$AAM?$AAu?$AAt?$AAe?$AAx?$AA?$AN?$AA?6?$AA?$AA@| [ DATA ] ; `string'
	EXPORT	|EnterMutex|
	IMPORT	|EnterCriticalSection|
	IMPORT	|NKDbgPrintfW|

  00000			 AREA	 |.bss|, NOINIT
|s_cs|	%	0x14

  00000			 AREA	 |.pdata|, PDATA
|$T35454| DCD	|$LN9@EnterMutex|
	DCD	0x40002102
; File c:\wince600\platform\common\src\soc\common_ti_v1\common_ti\wavedev2\wavemain.cpp

  00000			 AREA	 |.rdata|, DATA, READONLY
|??_C@_1CE@FMLHENHP@?$AAW?$AAA?$AAV?$AA?3?$AA?9?$AAE?$AAn?$AAt?$AAe?$AAr?$AAM?$AAu?$AAt?$AAe?$AAx?$AA?$AN?$AA?6?$AA?$AA@| DCB "W"
	DCB	0x0, "A", 0x0, "V", 0x0, ":", 0x0, "-", 0x0, "E", 0x0, "n"
	DCB	0x0, "t", 0x0, "e", 0x0, "r", 0x0, "M", 0x0, "u", 0x0, "t"
	DCB	0x0, "e", 0x0, "x", 0x0, 0xd, 0x0, 0xa, 0x0, 0x0, 0x0 ; `string'

  00000			 AREA	 |.rdata|, DATA, READONLY
|??_C@_1CE@FJALEDDB@?$AAW?$AAA?$AAV?$AA?3?$AA?$CL?$AAE?$AAn?$AAt?$AAe?$AAr?$AAM?$AAu?$AAt?$AAe?$AAx?$AA?$AN?$AA?6?$AA?$AA@| DCB "W"
	DCB	0x0, "A", 0x0, "V", 0x0, ":", 0x0, "+", 0x0, "E", 0x0, "n"
	DCB	0x0, "t", 0x0, "e", 0x0, "r", 0x0, "M", 0x0, "u", 0x0, "t"
	DCB	0x0, "e", 0x0, "x", 0x0, 0xd, 0x0, 0xa, 0x0, 0x0, 0x0 ; `string'
; Function compile flags: /Odtp

  00000			 AREA	 |.text|, CODE, ARM

  00000		 |EnterMutex| PROC

; 68   : {

  00000		 |$LN9@EnterMutex|
  00000	e52de004	 str         lr, [sp, #-4]!
  00004	e24dd008	 sub         sp, sp, #8
  00008		 |$M35451|

; 69   :     DEBUGMSG(ZONE_FUNCTION, (L"WAV:+EnterMutex\r\n"));

  00008	e59f3068	 ldr         r3, [pc, #0x68]
  0000c	e5933440	 ldr         r3, [r3, #0x440]
  00010	e3130a02	 tst         r3, #2, 20
  00014	0a000004	 beq         |$LN3@EnterMutex|
  00018	e59f0060	 ldr         r0, [pc, #0x60]
  0001c	eb000000	 bl          NKDbgPrintfW
  00020	e3a03001	 mov         r3, #1
  00024	e58d3000	 str         r3, [sp]
  00028	ea000001	 b           |$LN4@EnterMutex|
  0002c		 |$LN3@EnterMutex|
  0002c	e3a03000	 mov         r3, #0
  00030	e58d3000	 str         r3, [sp]
  00034		 |$LN4@EnterMutex|

; 70   : 
; 71   :     ::EnterCriticalSection(&s_cs);

  00034	e59f0040	 ldr         r0, [pc, #0x40]
  00038	eb000000	 bl          EnterCriticalSection

; 72   : 
; 73   :     DEBUGMSG(ZONE_FUNCTION, (L"WAV:-EnterMutex\r\n"));

  0003c	e59f3034	 ldr         r3, [pc, #0x34]
  00040	e5933440	 ldr         r3, [r3, #0x440]
  00044	e3130a02	 tst         r3, #2, 20
  00048	0a000004	 beq         |$LN5@EnterMutex|
  0004c	e59f0020	 ldr         r0, [pc, #0x20]
  00050	eb000000	 bl          NKDbgPrintfW
  00054	e3a03001	 mov         r3, #1
  00058	e58d3004	 str         r3, [sp, #4]
  0005c	ea000001	 b           |$LN6@EnterMutex|
  00060		 |$LN5@EnterMutex|
  00060	e3a03000	 mov         r3, #0
  00064	e58d3004	 str         r3, [sp, #4]
  00068		 |$LN6@EnterMutex|

; 74   : }

  00068	e28dd008	 add         sp, sp, #8
  0006c	e49de004	 ldr         lr, [sp], #4
  00070	e12fff1e	 bx          lr
  00074		 |$LN10@EnterMutex|
  00074		 |$LN11@EnterMutex|
  00074	00000000	 DCD         |??_C@_1CE@FMLHENHP@?$AAW?$AAA?$AAV?$AA?3?$AA?9?$AAE?$AAn?$AAt?$AAe?$AAr?$AAM?$AAu?$AAt?$AAe?$AAx?$AA?$AN?$AA?6?$AA?$AA@|
  00078		 |$LN12@EnterMutex|
  00078	00000000	 DCD         |dpCurSettings|
  0007c		 |$LN13@EnterMutex|
  0007c	00000000	 DCD         |s_cs|
  00080		 |$LN14@EnterMutex|
  00080	00000000	 DCD         |??_C@_1CE@FJALEDDB@?$AAW?$AAA?$AAV?$AA?3?$AA?$CL?$AAE?$AAn?$AAt?$AAe?$AAr?$AAM?$AAu?$AAt?$AAe?$AAx?$AA?$AN?$AA?6?$AA?$AA@|
  00084		 |$M35452|

			 ENDP  ; |EnterMutex|

	EXPORT	|??_C@_1CC@NPOAEPGP@?$AAW?$AAA?$AAV?$AA?3?$AA?9?$AAE?$AAx?$AAi?$AAt?$AAM?$AAu?$AAt?$AAe?$AAx?$AA?$AN?$AA?6?$AA?$AA@| [ DATA ] ; `string'
	EXPORT	|??_C@_1CC@OADOJCNO@?$AAW?$AAA?$AAV?$AA?3?$AA?$CL?$AAE?$AAx?$AAi?$AAt?$AAM?$AAu?$AAt?$AAe?$AAx?$AA?$AN?$AA?6?$AA?$AA@| [ DATA ] ; `string'
	EXPORT	|ExitMutex|
	IMPORT	|LeaveCriticalSection|

  00008			 AREA	 |.pdata|, PDATA
|$T35468| DCD	|$LN9@ExitMutex|
	DCD	0x40002102

  00000			 AREA	 |.rdata|, DATA, READONLY
|??_C@_1CC@NPOAEPGP@?$AAW?$AAA?$AAV?$AA?3?$AA?9?$AAE?$AAx?$AAi?$AAt?$AAM?$AAu?$AAt?$AAe?$AAx?$AA?$AN?$AA?6?$AA?$AA@| DCB "W"
	DCB	0x0, "A", 0x0, "V", 0x0, ":", 0x0, "-", 0x0, "E", 0x0, "x"
	DCB	0x0, "i", 0x0, "t", 0x0, "M", 0x0, "u", 0x0, "t", 0x0, "e"
	DCB	0x0, "x", 0x0, 0xd, 0x0, 0xa, 0x0, 0x0, 0x0 ; `string'

  00000			 AREA	 |.rdata|, DATA, READONLY
|??_C@_1CC@OADOJCNO@?$AAW?$AAA?$AAV?$AA?3?$AA?$CL?$AAE?$AAx?$AAi?$AAt?$AAM?$AAu?$AAt?$AAe?$AAx?$AA?$AN?$AA?6?$AA?$AA@| DCB "W"
	DCB	0x0, "A", 0x0, "V", 0x0, ":", 0x0, "+", 0x0, "E", 0x0, "x"
	DCB	0x0, "i", 0x0, "t", 0x0, "M", 0x0, "u", 0x0, "t", 0x0, "e"
	DCB	0x0, "x", 0x0, 0xd, 0x0, 0xa, 0x0, 0x0, 0x0 ; `string'
; Function compile flags: /Odtp

  00084			 AREA	 |.text|, CODE, ARM

  00084		 |ExitMutex| PROC

; 88   : {

  00084		 |$LN9@ExitMutex|
  00084	e52de004	 str         lr, [sp, #-4]!
  00088	e24dd008	 sub         sp, sp, #8
  0008c		 |$M35465|

; 89   :     DEBUGMSG(ZONE_FUNCTION, (L"WAV:+ExitMutex\r\n"));

  0008c	e59f3068	 ldr         r3, [pc, #0x68]
  00090	e5933440	 ldr         r3, [r3, #0x440]
  00094	e3130a02	 tst         r3, #2, 20
  00098	0a000004	 beq         |$LN3@ExitMutex|
  0009c	e59f0060	 ldr         r0, [pc, #0x60]
  000a0	eb000000	 bl          NKDbgPrintfW
  000a4	e3a03001	 mov         r3, #1
  000a8	e58d3000	 str         r3, [sp]
  000ac	ea000001	 b           |$LN4@ExitMutex|
  000b0		 |$LN3@ExitMutex|
  000b0	e3a03000	 mov         r3, #0
  000b4	e58d3000	 str         r3, [sp]
  000b8		 |$LN4@ExitMutex|

; 90   : 
; 91   :     ::LeaveCriticalSection(&s_cs);

  000b8	e59f0040	 ldr         r0, [pc, #0x40]
  000bc	eb000000	 bl          LeaveCriticalSection

; 92   : 
; 93   :     DEBUGMSG(ZONE_FUNCTION, (L"WAV:-ExitMutex\r\n"));

  000c0	e59f3034	 ldr         r3, [pc, #0x34]
  000c4	e5933440	 ldr         r3, [r3, #0x440]
  000c8	e3130a02	 tst         r3, #2, 20
  000cc	0a000004	 beq         |$LN5@ExitMutex|
  000d0	e59f0020	 ldr         r0, [pc, #0x20]
  000d4	eb000000	 bl          NKDbgPrintfW
  000d8	e3a03001	 mov         r3, #1
  000dc	e58d3004	 str         r3, [sp, #4]
  000e0	ea000001	 b           |$LN6@ExitMutex|
  000e4		 |$LN5@ExitMutex|
  000e4	e3a03000	 mov         r3, #0
  000e8	e58d3004	 str         r3, [sp, #4]
  000ec		 |$LN6@ExitMutex|

; 94   : }

  000ec	e28dd008	 add         sp, sp, #8
  000f0	e49de004	 ldr         lr, [sp], #4
  000f4	e12fff1e	 bx          lr
  000f8		 |$LN10@ExitMutex|
  000f8		 |$LN11@ExitMutex|
  000f8	00000000	 DCD         |??_C@_1CC@NPOAEPGP@?$AAW?$AAA?$AAV?$AA?3?$AA?9?$AAE?$AAx?$AAi?$AAt?$AAM?$AAu?$AAt?$AAe?$AAx?$AA?$AN?$AA?6?$AA?$AA@|
  000fc		 |$LN12@ExitMutex|
  000fc	00000000	 DCD         |dpCurSettings|
  00100		 |$LN13@ExitMutex|
  00100	00000000	 DCD         |s_cs|
  00104		 |$LN14@ExitMutex|
  00104	00000000	 DCD         |??_C@_1CC@OADOJCNO@?$AAW?$AAA?$AAV?$AA?3?$AA?$CL?$AAE?$AAx?$AAi?$AAt?$AAM?$AAu?$AAt?$AAe?$AAx?$AA?$AN?$AA?6?$AA?$AA@|
  00108		 |$M35466|

			 ENDP  ; |ExitMutex|

	EXPORT	|DllMain|
	IMPORT	|DisableThreadLibraryCalls|
	IMPORT	|RegisterDbgZones|

  00010			 AREA	 |.pdata|, PDATA
|$T35479| DCD	|$LN12@DllMain|
	DCD	0x40001404
; Function compile flags: /Odtp

  00108			 AREA	 |.text|, CODE, ARM

  00108		 |DllMain| PROC

; 99   : {

  00108		 |$LN12@DllMain|
  00108	e1a0c00d	 mov         r12, sp
  0010c	e92d0007	 stmdb       sp!, {r0 - r2}
  00110	e92d5000	 stmdb       sp!, {r12, lr}
  00114	e24dd004	 sub         sp, sp, #4
  00118		 |$M35476|

; 100  : 	UNREFERENCED_PARAMETER(lpvReserved);
; 101  : 
; 102  :     switch (dwReason) {

  00118	e59d3010	 ldr         r3, [sp, #0x10]
  0011c	e3530001	 cmp         r3, #1
  00120	0a000000	 beq         |$LN5@DllMain|
  00124	ea000004	 b           |$LN1@DllMain|
  00128		 |$LN5@DllMain|

; 103  :         case DLL_PROCESS_ATTACH :
; 104  :             DEBUGREGISTER((HINSTANCE)hDLL);

  00128	e59f1024	 ldr         r1, [pc, #0x24]
  0012c	e59d000c	 ldr         r0, [sp, #0xC]
  00130	eb000000	 bl          RegisterDbgZones

; 105  :             DisableThreadLibraryCalls((HMODULE) hDLL);

  00134	e59d000c	 ldr         r0, [sp, #0xC]
  00138	eb000000	 bl          DisableThreadLibraryCalls
  0013c		 |$LN1@DllMain|

; 106  :             break;
; 107  : 
; 108  :         case DLL_PROCESS_DETACH :
; 109  :             break;
; 110  : 
; 111  :         case DLL_THREAD_DETACH :
; 112  :             break;
; 113  : 
; 114  :         case DLL_THREAD_ATTACH :
; 115  :             break;
; 116  : 
; 117  :         default :
; 118  :             break;
; 119  :     }
; 120  :     return TRUE;

  0013c	e3a03001	 mov         r3, #1
  00140	e58d3000	 str         r3, [sp]

; 121  : }

  00144	e59d0000	 ldr         r0, [sp]
  00148	e28dd004	 add         sp, sp, #4
  0014c	e89d6000	 ldmia       sp, {sp, lr}
  00150	e12fff1e	 bx          lr
  00154		 |$LN13@DllMain|
  00154		 |$LN14@DllMain|
  00154	00000000	 DCD         |dpCurSettings|
  00158		 |$M35477|

			 ENDP  ; |DllMain|

	EXPORT	|WAV_Init|
	IMPORT	|?CreateHWContext@HardwareContext@@SAHK@Z| ; HardwareContext::CreateHWContext
	IMPORT	|InitializeCriticalSection|

  00018			 AREA	 |.pdata|, PDATA
|$T35487| DCD	|$LN5@WAV_Init|
	DCD	0x40001004
; Function compile flags: /Odtp

  00158			 AREA	 |.text|, CODE, ARM

  00158		 |WAV_Init| PROC

; 189  : {

  00158		 |$LN5@WAV_Init|
  00158	e1a0c00d	 mov         r12, sp
  0015c	e92d0001	 stmdb       sp!, {r0}
  00160	e92d5000	 stmdb       sp!, {r12, lr}
  00164	e24dd008	 sub         sp, sp, #8
  00168		 |$M35484|

; 190  : 	InitializeCriticalSection(&s_cs);

  00168	e59f0024	 ldr         r0, [pc, #0x24]
  0016c	eb000000	 bl          InitializeCriticalSection

; 191  : 
; 192  :     return((DWORD)HardwareContext::CreateHWContext(Index));

  00170	e59d0010	 ldr         r0, [sp, #0x10]
  00174	eb000000	 bl          |?CreateHWContext@HardwareContext@@SAHK@Z|
  00178	e58d0004	 str         r0, [sp, #4]
  0017c	e59d3004	 ldr         r3, [sp, #4]
  00180	e58d3000	 str         r3, [sp]

; 193  : }

  00184	e59d0000	 ldr         r0, [sp]
  00188	e28dd008	 add         sp, sp, #8
  0018c	e89d6000	 ldmia       sp, {sp, lr}
  00190	e12fff1e	 bx          lr
  00194		 |$LN6@WAV_Init|
  00194		 |$LN7@WAV_Init|
  00194	00000000	 DCD         |s_cs|
  00198		 |$M35485|

			 ENDP  ; |WAV_Init|

	EXPORT	|WAV_Deinit|
	IMPORT	|?Deinit@HardwareContext@@QAAHXZ|	; HardwareContext::Deinit
	IMPORT	|?g_pHWContext@@3PAVHardwareContext@@A|	; g_pHWContext
	IMPORT	|DeleteCriticalSection|

  00020			 AREA	 |.pdata|, PDATA
|$T35495| DCD	|$LN5@WAV_Deinit|
	DCD	0x40001204
; Function compile flags: /Odtp

  00198			 AREA	 |.text|, CODE, ARM

  00198		 |WAV_Deinit| PROC

; 207  : {

  00198		 |$LN5@WAV_Deinit|
  00198	e1a0c00d	 mov         r12, sp
  0019c	e92d0001	 stmdb       sp!, {r0}
  001a0	e92d5000	 stmdb       sp!, {r12, lr}
  001a4	e24dd008	 sub         sp, sp, #8
  001a8		 |$M35492|

; 208  : 	UNREFERENCED_PARAMETER(dwData);
; 209  : 
; 210  :     DeleteCriticalSection(&s_cs);

  001a8	e59f002c	 ldr         r0, [pc, #0x2C]
  001ac	eb000000	 bl          DeleteCriticalSection

; 211  : 
; 212  :     return(g_pHWContext->Deinit());

  001b0	e59f3020	 ldr         r3, [pc, #0x20]
  001b4	e5930000	 ldr         r0, [r3]
  001b8	eb000000	 bl          |?Deinit@HardwareContext@@QAAHXZ|
  001bc	e58d0004	 str         r0, [sp, #4]
  001c0	e59d3004	 ldr         r3, [sp, #4]
  001c4	e58d3000	 str         r3, [sp]

; 213  : }

  001c8	e59d0000	 ldr         r0, [sp]
  001cc	e28dd008	 add         sp, sp, #8
  001d0	e89d6000	 ldmia       sp, {sp, lr}
  001d4	e12fff1e	 bx          lr
  001d8		 |$LN6@WAV_Deinit|
  001d8		 |$LN7@WAV_Deinit|
  001d8	00000000	 DCD         |?g_pHWContext@@3PAVHardwareContext@@A|
  001dc		 |$LN8@WAV_Deinit|
  001dc	00000000	 DCD         |s_cs|
  001e0		 |$M35493|

			 ENDP  ; |WAV_Deinit|

	EXPORT	|WAV_Open|
	IMPORT	|??2@YAPAXI@Z|				; operator new

  00028			 AREA	 |.pdata|, PDATA
|$T35507| DCD	|$LN7@WAV_Open|
	DCD	0x40001a04
; Function compile flags: /Odtp

  001e0			 AREA	 |.text|, CODE, ARM

  001e0		 |WAV_Open| PROC

; 236  : {

  001e0		 |$LN7@WAV_Open|
  001e0	e1a0c00d	 mov         r12, sp
  001e4	e92d0007	 stmdb       sp!, {r0 - r2}
  001e8	e92d5000	 stmdb       sp!, {r12, lr}
  001ec	e24dd010	 sub         sp, sp, #0x10
  001f0		 |$M35504|

; 237  : 	UNREFERENCED_PARAMETER(dwData);
; 238  : 	UNREFERENCED_PARAMETER(dwAccess);
; 239  : 	UNREFERENCED_PARAMETER(dwShareMode);
; 240  : 
; 241  :     // allocate and return handle context to efficiently verify caller trust level
; 242  :     return new DWORD(NULL); // assume untrusted. Can't tell for sure until WAV_IoControl

  001f0	e3a00004	 mov         r0, #4
  001f4	eb000000	 bl          |??2@YAPAXI@Z|
  001f8	e58d0008	 str         r0, [sp, #8]
  001fc	e59d3008	 ldr         r3, [sp, #8]
  00200	e58d3000	 str         r3, [sp]
  00204	e59d3000	 ldr         r3, [sp]
  00208	e3530000	 cmp         r3, #0
  0020c	0a000005	 beq         |$LN3@WAV_Open|
  00210	e59d2000	 ldr         r2, [sp]
  00214	e3a03000	 mov         r3, #0
  00218	e5823000	 str         r3, [r2]
  0021c	e59d3000	 ldr         r3, [sp]
  00220	e58d300c	 str         r3, [sp, #0xC]
  00224	ea000001	 b           |$LN4@WAV_Open|
  00228		 |$LN3@WAV_Open|
  00228	e3a03000	 mov         r3, #0
  0022c	e58d300c	 str         r3, [sp, #0xC]
  00230		 |$LN4@WAV_Open|
  00230	e59d300c	 ldr         r3, [sp, #0xC]
  00234	e58d3004	 str         r3, [sp, #4]

; 243  : }

  00238	e59d0004	 ldr         r0, [sp, #4]
  0023c	e28dd010	 add         sp, sp, #0x10
  00240	e89d6000	 ldmia       sp, {sp, lr}
  00244	e12fff1e	 bx          lr
  00248		 |$M35505|

			 ENDP  ; |WAV_Open|

	EXPORT	|WAV_Close|
	IMPORT	|??3@YAXPAX@Z|				; operator delete

  00030			 AREA	 |.pdata|, PDATA
|$T35514| DCD	|$LN5@WAV_Close|
	DCD	0x40000e04
; Function compile flags: /Odtp

  00248			 AREA	 |.text|, CODE, ARM

  00248		 |WAV_Close| PROC

; 257  : {

  00248		 |$LN5@WAV_Close|
  00248	e1a0c00d	 mov         r12, sp
  0024c	e92d0001	 stmdb       sp!, {r0}
  00250	e92d5000	 stmdb       sp!, {r12, lr}
  00254	e24dd008	 sub         sp, sp, #8
  00258		 |$M35511|

; 258  :     // we trust the device manager to give us a valid context to free.
; 259  :     delete pdwData;

  00258	e59d3010	 ldr         r3, [sp, #0x10]
  0025c	e58d3000	 str         r3, [sp]
  00260	e59d0000	 ldr         r0, [sp]
  00264	eb000000	 bl          |??3@YAXPAX@Z|

; 260  :     return(TRUE);

  00268	e3a03001	 mov         r3, #1
  0026c	e58d3004	 str         r3, [sp, #4]

; 261  : }

  00270	e59d0004	 ldr         r0, [sp, #4]
  00274	e28dd008	 add         sp, sp, #8
  00278	e89d6000	 ldmia       sp, {sp, lr}
  0027c	e12fff1e	 bx          lr
  00280		 |$M35512|

			 ENDP  ; |WAV_Close|

	EXPORT	|?Unlock@HardwareContext@@QAAXXZ|	; HardwareContext::Unlock
	EXPORT	|?GetInputDeviceContext@HardwareContext@@QAAPAVDeviceContext@@I@Z| ; HardwareContext::GetInputDeviceContext
	EXPORT	|?GetOutputDeviceContext@HardwareContext@@QAAPAVDeviceContext@@I@Z| ; HardwareContext::GetOutputDeviceContext
	EXPORT	|?GetNumInputDevices@HardwareContext@@QAAKXZ| ; HardwareContext::GetNumInputDevices
	EXPORT	|?GetNumOutputDevices@HardwareContext@@QAAKXZ| ; HardwareContext::GetNumOutputDevices
	EXPORT	|?Lock@HardwareContext@@QAAXXZ|		; HardwareContext::Lock
	EXPORT	|?HandleWaveMessage@@YAHPAUMMDRV_MESSAGE_PARAMS@@PAK@Z| ; HandleWaveMessage
	IMPORT	|?SetProperty@DeviceContext@@QAAKPAUtag_WAVEPROPINFO@@@Z| ; DeviceContext::SetProperty
	IMPORT	|?SetProperty@StreamContext@@QAAKPAUtag_WAVEPROPINFO@@@Z| ; StreamContext::SetProperty
	IMPORT	|?GetProperty@DeviceContext@@QAAKPAUtag_WAVEPROPINFO@@@Z| ; DeviceContext::GetProperty
	IMPORT	|?GetProperty@StreamContext@@QAAKPAUtag_WAVEPROPINFO@@@Z| ; StreamContext::GetProperty
	IMPORT	|?ForceSpeaker@HardwareContext@@QAAKH@Z| ; HardwareContext::ForceSpeaker
	IMPORT	|?ForceSpeaker@StreamContext@@QAAKH@Z|	; StreamContext::ForceSpeaker
	IMPORT	|?SetSecondaryGainLimit@DeviceContext@@QAAKKK@Z| ; DeviceContext::SetSecondaryGainLimit
	IMPORT	|?SetSecondaryGainClass@StreamContext@@QAAKK@Z| ; StreamContext::SetSecondaryGainClass
	IMPORT	|?GetRate@WaveStreamContext@@QAAKPAK@Z|	; WaveStreamContext::GetRate
	IMPORT	|?BreakLoop@StreamContext@@QAAKXZ|	; StreamContext::BreakLoop
	IMPORT	|?SetMasterVolume@@YAIK@Z|		; SetMasterVolume
	IMPORT	|?SetGain@StreamContext@@QAAKK@Z|	; StreamContext::SetGain
	IMPORT	|?GetMasterVolume@@YAKXZ|		; GetMasterVolume
	IMPORT	|?GetGain@StreamContext@@QAAKXZ|	; StreamContext::GetGain
	IMPORT	|?Release@StreamContext@@QAAJXZ|	; StreamContext::Release
	IMPORT	|?OpenStream@DeviceContext@@QAAKPAUwaveopendesc_tag@@KPAPAVStreamContext@@@Z| ; DeviceContext::OpenStream
	IMPORT	|?GetDeviceContext@StreamContext@@QAAPAVDeviceContext@@XZ| ; StreamContext::GetDeviceContext
	IMPORT	|SetLastError|
	IMPORT	|__C_specific_handler|

  00038			 AREA	 |.pdata|, PDATA
|$T35532| DCD	|$LN70@HandleWave|
	DCD	0xc0023e05
|$T35534| DCD	|$LN60@HandleWave|
	DCD	0x40000401

  00000			 AREA	 |.xdata|, DATA
|$T35530| DCD	0x1
	DCD	|$LN64@HandleWave|
	DCD	|$LN65@HandleWave|
	DCD	|$LN60@HandleWave|
	DCD	|$LN61@HandleWave|
; Function compile flags: /Odtp

  00280			 AREA	 |.text|, CODE, ARM

  00280	00000000	 DCD         |__C_specific_handler|
  00284	00000000	 DCD         |$T35530|

  00288		 |?HandleWaveMessage@@YAHPAUMMDRV_MESSAGE_PARAMS@@PAK@Z| PROC ; HandleWaveMessage

; 264  : {

  00288		 |$LN70@HandleWave|
  00288	e1a0c00d	 mov         r12, sp
  0028c	e92d0003	 stmdb       sp!, {r0, r1}
  00290	e92d5800	 stmdb       sp!, {r11, r12, lr}
  00294	e28db00c	 add         r11, sp, #0xC
  00298	e24ddf49	 sub         sp, sp, #0x49, 30
  0029c		 |$LN68@HandleWave|

; 265  :     //  set the error code to be no error first
; 266  :     SetLastError(MMSYSERR_NOERROR);

  0029c	e3a00000	 mov         r0, #0
  002a0	eb000000	 bl          SetLastError

; 267  : 
; 268  :     UINT uMsg = pParams->uMsg;

  002a4	e59b3000	 ldr         r3, [r11]
  002a8	e2833004	 add         r3, r3, #4
  002ac	e5933000	 ldr         r3, [r3]
  002b0	e50b311c	 str         r3, [r11, #-0x11C]

; 269  :     UINT uDeviceId = pParams->uDeviceId;

  002b4	e59b3000	 ldr         r3, [r11]
  002b8	e5933000	 ldr         r3, [r3]
  002bc	e50b3128	 str         r3, [r11, #-0x128]

; 270  :     DWORD dwParam1 = pParams->dwParam1;

  002c0	e59b3000	 ldr         r3, [r11]
  002c4	e283300c	 add         r3, r3, #0xC
  002c8	e5933000	 ldr         r3, [r3]
  002cc	e50b312c	 str         r3, [r11, #-0x12C]

; 271  :     DWORD dwParam2 = pParams->dwParam2;

  002d0	e59b3000	 ldr         r3, [r11]
  002d4	e2833010	 add         r3, r3, #0x10
  002d8	e5933000	 ldr         r3, [r3]
  002dc	e50b3124	 str         r3, [r11, #-0x124]

; 272  :     DWORD dwUser   = pParams->dwUser;

  002e0	e59b3000	 ldr         r3, [r11]
  002e4	e2833008	 add         r3, r3, #8
  002e8	e5933000	 ldr         r3, [r3]
  002ec	e50b3120	 str         r3, [r11, #-0x120]

; 273  :     StreamContext *pStreamContext = (StreamContext *)dwUser;

  002f0	e51b3120	 ldr         r3, [r11, #-0x120]
  002f4	e50b3118	 str         r3, [r11, #-0x118]

; 274  : 
; 275  :     DWORD dwRet;
; 276  : 
; 277  :     g_pHWContext->Lock();

  002f8	e59f388c	 ldr         r3, [pc, #0x88C]
  002fc	e5930000	 ldr         r0, [r3]
  00300	eb000000	 bl          |?Lock@HardwareContext@@QAAXXZ|
  00304		 |$LN64@HandleWave|

; 278  : 
; 279  :     _try
; 280  :     {
; 281  :         switch (uMsg)

  00304	e51b311c	 ldr         r3, [r11, #-0x11C]
  00308	e50b30c8	 str         r3, [r11, #-0xC8]
  0030c	e51b30c8	 ldr         r3, [r11, #-0xC8]
  00310	e3530b01	 cmp         r3, #1, 22
  00314	8a000049	 bhi         |$LN58@HandleWave|
  00318	e51b30c8	 ldr         r3, [r11, #-0xC8]
  0031c	e3530b01	 cmp         r3, #1, 22
  00320	0a000162	 beq         |$LN23@HandleWave|
  00324	e51b30c8	 ldr         r3, [r11, #-0xC8]
  00328	e2433003	 sub         r3, r3, #3
  0032c	e50b30c8	 str         r3, [r11, #-0xC8]
  00330	e51b30c8	 ldr         r3, [r11, #-0xC8]
  00334	e353003b	 cmp         r3, #0x3B
  00338	8a0001fb	 bhi         |$LN2@HandleWave|
  0033c	e51b20c8	 ldr         r2, [r11, #-0xC8]
  00340	e1a03102	 mov         r3, r2, lsl #2
  00344	e083300f	 add         r3, r3, pc
  00348	e5933004	 ldr         r3, [r3, #4]
  0034c	e08ff003	 add         pc, pc, r3
  00350		 |$LN73@HandleWave|
  00350		 |$LN72@HandleWave|
  00350		 |$LN74@HandleWave|
  00350	00000118	 DCD         0x118
  00354		 |$LN75@HandleWave|
  00354	00000150	 DCD         0x150
  00358		 |$LN76@HandleWave|
  00358	000002ac	 DCD         0x2ac
  0035c		 |$LN77@HandleWave|
  0035c	0000032c	 DCD         0x32c
  00360		 |$LN78@HandleWave|
  00360	000007d8	 DCD         0x7d8
  00364		 |$LN79@HandleWave|
  00364	000007d8	 DCD         0x7d8
  00368		 |$LN80@HandleWave|
  00368	00000420	 DCD         0x420
  0036c		 |$LN81@HandleWave|
  0036c	00000398	 DCD         0x398
  00370		 |$LN82@HandleWave|
  00370	0000036c	 DCD         0x36c
  00374		 |$LN83@HandleWave|
  00374	000003f4	 DCD         0x3f4
  00378		 |$LN84@HandleWave|
  00378	000003c4	 DCD         0x3c4
  0037c		 |$LN85@HandleWave|
  0037c	000007d8	 DCD         0x7d8
  00380		 |$LN86@HandleWave|
  00380	000007d8	 DCD         0x7d8
  00384		 |$LN87@HandleWave|
  00384	00000450	 DCD         0x450
  00388		 |$LN88@HandleWave|
  00388	000004a0	 DCD         0x4a0
  0038c		 |$LN89@HandleWave|
  0038c	00000538	 DCD         0x538
  00390		 |$LN90@HandleWave|
  00390	00000500	 DCD         0x500
  00394		 |$LN91@HandleWave|
  00394	000004e8	 DCD         0x4e8
  00398		 |$LN92@HandleWave|
  00398	000007d8	 DCD         0x7d8
  0039c		 |$LN93@HandleWave|
  0039c	00000238	 DCD         0x238
  003a0		 |$LN94@HandleWave|
  003a0	00000638	 DCD         0x638
  003a4		 |$LN95@HandleWave|
  003a4	00000708	 DCD         0x708
  003a8		 |$LN96@HandleWave|
  003a8	000007d8	 DCD         0x7d8
  003ac		 |$LN97@HandleWave|
  003ac	000007d8	 DCD         0x7d8
  003b0		 |$LN98@HandleWave|
  003b0	000007d8	 DCD         0x7d8
  003b4		 |$LN99@HandleWave|
  003b4	000007d8	 DCD         0x7d8
  003b8		 |$LN100@HandleWave|
  003b8	000007d8	 DCD         0x7d8
  003bc		 |$LN101@HandleWave|
  003bc	000007d8	 DCD         0x7d8
  003c0		 |$LN102@HandleWave|
  003c0	000007d8	 DCD         0x7d8
  003c4		 |$LN103@HandleWave|
  003c4	000007d8	 DCD         0x7d8
  003c8		 |$LN104@HandleWave|
  003c8	000007d8	 DCD         0x7d8
  003cc		 |$LN105@HandleWave|
  003cc	000007d8	 DCD         0x7d8
  003d0		 |$LN106@HandleWave|
  003d0	000007d8	 DCD         0x7d8
  003d4		 |$LN107@HandleWave|
  003d4	000007d8	 DCD         0x7d8
  003d8		 |$LN108@HandleWave|
  003d8	000007d8	 DCD         0x7d8
  003dc		 |$LN109@HandleWave|
  003dc	000007d8	 DCD         0x7d8
  003e0		 |$LN110@HandleWave|
  003e0	000007d8	 DCD         0x7d8
  003e4		 |$LN111@HandleWave|
  003e4	000007d8	 DCD         0x7d8
  003e8		 |$LN112@HandleWave|
  003e8	000007d8	 DCD         0x7d8
  003ec		 |$LN113@HandleWave|
  003ec	000007d8	 DCD         0x7d8
  003f0		 |$LN114@HandleWave|
  003f0	000007d8	 DCD         0x7d8
  003f4		 |$LN115@HandleWave|
  003f4	000007d8	 DCD         0x7d8
  003f8		 |$LN116@HandleWave|
  003f8	000007d8	 DCD         0x7d8
  003fc		 |$LN117@HandleWave|
  003fc	000007d8	 DCD         0x7d8
  00400		 |$LN118@HandleWave|
  00400	000007d8	 DCD         0x7d8
  00404		 |$LN119@HandleWave|
  00404	000007d8	 DCD         0x7d8
  00408		 |$LN120@HandleWave|
  00408	000007d8	 DCD         0x7d8
  0040c		 |$LN121@HandleWave|
  0040c	00000134	 DCD         0x134
  00410		 |$LN122@HandleWave|
  00410	000001c4	 DCD         0x1c4
  00414		 |$LN123@HandleWave|
  00414	000002ec	 DCD         0x2ec
  00418		 |$LN124@HandleWave|
  00418	0000032c	 DCD         0x32c
  0041c		 |$LN125@HandleWave|
  0041c	000007d8	 DCD         0x7d8
  00420		 |$LN126@HandleWave|
  00420	000007d8	 DCD         0x7d8
  00424		 |$LN127@HandleWave|
  00424	00000420	 DCD         0x420
  00428		 |$LN128@HandleWave|
  00428	0000036c	 DCD         0x36c
  0042c		 |$LN129@HandleWave|
  0042c	00000398	 DCD         0x398
  00430		 |$LN130@HandleWave|
  00430	000003f4	 DCD         0x3f4
  00434		 |$LN131@HandleWave|
  00434	000003c4	 DCD         0x3c4
  00438		 |$LN132@HandleWave|
  00438	000006a0	 DCD         0x6a0
  0043c		 |$LN133@HandleWave|
  0043c	00000770	 DCD         0x770
  00440		 |$LN58@HandleWave|
  00440	e51b20c8	 ldr         r2, [r11, #-0xC8]
  00444	e3a03b01	 mov         r3, #1, 22
  00448	e3833001	 orr         r3, r3, #1
  0044c	e1520003	 cmp         r2, r3
  00450	0a000123	 beq         |$LN20@HandleWave|
  00454	e51b20c8	 ldr         r2, [r11, #-0xC8]
  00458	e3a03b01	 mov         r3, #1, 22
  0045c	e3833002	 orr         r3, r3, #2
  00460	e1520003	 cmp         r2, r3
  00464	0a000136	 beq         |$LN17@HandleWave|
  00468	ea0001af	 b           |$LN2@HandleWave|
  0046c		 |$LN52@HandleWave|

; 282  :         {
; 283  :         case WODM_GETNUMDEVS:
; 284  :             {
; 285  :                 dwRet = g_pHWContext->GetNumOutputDevices();

  0046c	e59f3718	 ldr         r3, [pc, #0x718]
  00470	e5930000	 ldr         r0, [r3]
  00474	eb000000	 bl          |?GetNumOutputDevices@HardwareContext@@QAAKXZ|
  00478	e50b00c4	 str         r0, [r11, #-0xC4]
  0047c	e51b30c4	 ldr         r3, [r11, #-0xC4]
  00480	e50b3130	 str         r3, [r11, #-0x130]

; 286  :                 break;

  00484	ea0001aa	 b           |$LN53@HandleWave|
  00488		 |$LN51@HandleWave|

; 287  :             }
; 288  : 
; 289  :         case WIDM_GETNUMDEVS:
; 290  :             {
; 291  :                 dwRet = g_pHWContext->GetNumInputDevices();

  00488	e59f36fc	 ldr         r3, [pc, #0x6FC]
  0048c	e5930000	 ldr         r0, [r3]
  00490	eb000000	 bl          |?GetNumInputDevices@HardwareContext@@QAAKXZ|
  00494	e50b00c0	 str         r0, [r11, #-0xC0]
  00498	e51b30c0	 ldr         r3, [r11, #-0xC0]
  0049c	e50b3130	 str         r3, [r11, #-0x130]

; 292  :                 break;

  004a0	ea0001a3	 b           |$LN53@HandleWave|
  004a4		 |$LN50@HandleWave|

; 293  :             }
; 294  : 
; 295  :         case WODM_GETDEVCAPS:
; 296  :             {
; 297  :                 DeviceContext *pDeviceContext;
; 298  : 
; 299  :                 if (pStreamContext)

  004a4	e51b3118	 ldr         r3, [r11, #-0x118]
  004a8	e3530000	 cmp         r3, #0
  004ac	0a000005	 beq         |$LN49@HandleWave|

; 300  :                 {
; 301  :                     pDeviceContext=pStreamContext->GetDeviceContext();

  004b0	e51b0118	 ldr         r0, [r11, #-0x118]
  004b4	eb000000	 bl          |?GetDeviceContext@StreamContext@@QAAPAVDeviceContext@@XZ|
  004b8	e50b00bc	 str         r0, [r11, #-0xBC]
  004bc	e51b30bc	 ldr         r3, [r11, #-0xBC]
  004c0	e50b3114	 str         r3, [r11, #-0x114]

; 302  :                 }
; 303  :                 else

  004c4	ea000006	 b           |$LN48@HandleWave|
  004c8		 |$LN49@HandleWave|

; 304  :                 {
; 305  :                     pDeviceContext = g_pHWContext->GetOutputDeviceContext(uDeviceId);

  004c8	e51b1128	 ldr         r1, [r11, #-0x128]
  004cc	e59f36b8	 ldr         r3, [pc, #0x6B8]
  004d0	e5930000	 ldr         r0, [r3]
  004d4	eb000000	 bl          |?GetOutputDeviceContext@HardwareContext@@QAAPAVDeviceContext@@I@Z|
  004d8	e50b00b8	 str         r0, [r11, #-0xB8]
  004dc	e51b30b8	 ldr         r3, [r11, #-0xB8]
  004e0	e50b3114	 str         r3, [r11, #-0x114]
  004e4		 |$LN48@HandleWave|

; 306  :                 }
; 307  : 
; 308  :                 dwRet = pDeviceContext->GetDevCaps((PVOID)dwParam1,dwParam2);

  004e4	e51b2124	 ldr         r2, [r11, #-0x124]
  004e8	e51b112c	 ldr         r1, [r11, #-0x12C]
  004ec	e51b3114	 ldr         r3, [r11, #-0x114]
  004f0	e5933000	 ldr         r3, [r3]
  004f4	e283300c	 add         r3, r3, #0xC
  004f8	e51b0114	 ldr         r0, [r11, #-0x114]
  004fc	e5933000	 ldr         r3, [r3]
  00500	e1a0e00f	 mov         lr, pc
  00504	e12fff13	 bx          r3
  00508	e50b00b4	 str         r0, [r11, #-0xB4]
  0050c	e51b30b4	 ldr         r3, [r11, #-0xB4]
  00510	e50b3130	 str         r3, [r11, #-0x130]

; 309  :                 break;

  00514	ea000186	 b           |$LN53@HandleWave|
  00518		 |$LN47@HandleWave|

; 310  :             }
; 311  : 
; 312  : 
; 313  :         case WIDM_GETDEVCAPS:
; 314  :             {
; 315  :                 DeviceContext *pDeviceContext;
; 316  : 
; 317  :                 if (pStreamContext)

  00518	e51b3118	 ldr         r3, [r11, #-0x118]
  0051c	e3530000	 cmp         r3, #0
  00520	0a000005	 beq         |$LN46@HandleWave|

; 318  :                 {
; 319  :                     pDeviceContext=pStreamContext->GetDeviceContext();

  00524	e51b0118	 ldr         r0, [r11, #-0x118]
  00528	eb000000	 bl          |?GetDeviceContext@StreamContext@@QAAPAVDeviceContext@@XZ|
  0052c	e50b00b0	 str         r0, [r11, #-0xB0]
  00530	e51b30b0	 ldr         r3, [r11, #-0xB0]
  00534	e50b3110	 str         r3, [r11, #-0x110]

; 320  :                 }
; 321  :                 else

  00538	ea000006	 b           |$LN45@HandleWave|
  0053c		 |$LN46@HandleWave|

; 322  :                 {
; 323  :                     pDeviceContext = g_pHWContext->GetInputDeviceContext(uDeviceId);

  0053c	e51b1128	 ldr         r1, [r11, #-0x128]
  00540	e59f3644	 ldr         r3, [pc, #0x644]
  00544	e5930000	 ldr         r0, [r3]
  00548	eb000000	 bl          |?GetInputDeviceContext@HardwareContext@@QAAPAVDeviceContext@@I@Z|
  0054c	e50b00ac	 str         r0, [r11, #-0xAC]
  00550	e51b30ac	 ldr         r3, [r11, #-0xAC]
  00554	e50b3110	 str         r3, [r11, #-0x110]
  00558		 |$LN45@HandleWave|

; 324  :                 }
; 325  : 
; 326  :                 dwRet = pDeviceContext->GetDevCaps((PVOID)dwParam1,dwParam2);

  00558	e51b2124	 ldr         r2, [r11, #-0x124]
  0055c	e51b112c	 ldr         r1, [r11, #-0x12C]
  00560	e51b3110	 ldr         r3, [r11, #-0x110]
  00564	e5933000	 ldr         r3, [r3]
  00568	e283300c	 add         r3, r3, #0xC
  0056c	e51b0110	 ldr         r0, [r11, #-0x110]
  00570	e5933000	 ldr         r3, [r3]
  00574	e1a0e00f	 mov         lr, pc
  00578	e12fff13	 bx          r3
  0057c	e50b00a8	 str         r0, [r11, #-0xA8]
  00580	e51b30a8	 ldr         r3, [r11, #-0xA8]
  00584	e50b3130	 str         r3, [r11, #-0x130]

; 327  :                 break;

  00588	ea000169	 b           |$LN53@HandleWave|
  0058c		 |$LN44@HandleWave|

; 328  :             }
; 329  : 
; 330  :         case WODM_GETEXTDEVCAPS:
; 331  :             {
; 332  :                 DeviceContext *pDeviceContext;
; 333  : 
; 334  :                 if (pStreamContext)

  0058c	e51b3118	 ldr         r3, [r11, #-0x118]
  00590	e3530000	 cmp         r3, #0
  00594	0a000005	 beq         |$LN43@HandleWave|

; 335  :                 {
; 336  :                     pDeviceContext=pStreamContext->GetDeviceContext();

  00598	e51b0118	 ldr         r0, [r11, #-0x118]
  0059c	eb000000	 bl          |?GetDeviceContext@StreamContext@@QAAPAVDeviceContext@@XZ|
  005a0	e50b00a4	 str         r0, [r11, #-0xA4]
  005a4	e51b30a4	 ldr         r3, [r11, #-0xA4]
  005a8	e50b310c	 str         r3, [r11, #-0x10C]

; 337  :                 }
; 338  :                 else

  005ac	ea000006	 b           |$LN42@HandleWave|
  005b0		 |$LN43@HandleWave|

; 339  :                 {
; 340  :                     pDeviceContext = g_pHWContext->GetOutputDeviceContext(uDeviceId);

  005b0	e51b1128	 ldr         r1, [r11, #-0x128]
  005b4	e59f35d0	 ldr         r3, [pc, #0x5D0]
  005b8	e5930000	 ldr         r0, [r3]
  005bc	eb000000	 bl          |?GetOutputDeviceContext@HardwareContext@@QAAPAVDeviceContext@@I@Z|
  005c0	e50b00a0	 str         r0, [r11, #-0xA0]
  005c4	e51b30a0	 ldr         r3, [r11, #-0xA0]
  005c8	e50b310c	 str         r3, [r11, #-0x10C]
  005cc		 |$LN42@HandleWave|

; 341  :                 }
; 342  : 
; 343  :                 dwRet = pDeviceContext->GetExtDevCaps((PVOID)dwParam1,dwParam2);

  005cc	e51b2124	 ldr         r2, [r11, #-0x124]
  005d0	e51b112c	 ldr         r1, [r11, #-0x12C]
  005d4	e51b310c	 ldr         r3, [r11, #-0x10C]
  005d8	e5933000	 ldr         r3, [r3]
  005dc	e2833008	 add         r3, r3, #8
  005e0	e51b010c	 ldr         r0, [r11, #-0x10C]
  005e4	e5933000	 ldr         r3, [r3]
  005e8	e1a0e00f	 mov         lr, pc
  005ec	e12fff13	 bx          r3
  005f0	e50b009c	 str         r0, [r11, #-0x9C]
  005f4	e51b309c	 ldr         r3, [r11, #-0x9C]
  005f8	e50b3130	 str         r3, [r11, #-0x130]

; 344  :                 break;

  005fc	ea00014c	 b           |$LN53@HandleWave|
  00600		 |$LN41@HandleWave|

; 345  :             }
; 346  : 
; 347  :         case WODM_OPEN:
; 348  :             {
; 349  :                 // DEBUGMSG(1, (TEXT("WODM_OPEN\r\n"));
; 350  :                 DeviceContext *pDeviceContext = g_pHWContext->GetOutputDeviceContext(uDeviceId);

  00600	e51b1128	 ldr         r1, [r11, #-0x128]
  00604	e59f3580	 ldr         r3, [pc, #0x580]
  00608	e5930000	 ldr         r0, [r3]
  0060c	eb000000	 bl          |?GetOutputDeviceContext@HardwareContext@@QAAPAVDeviceContext@@I@Z|
  00610	e50b0098	 str         r0, [r11, #-0x98]
  00614	e51b3098	 ldr         r3, [r11, #-0x98]
  00618	e50b3108	 str         r3, [r11, #-0x108]

; 351  :                 dwRet = pDeviceContext->OpenStream((LPWAVEOPENDESC)dwParam1, dwParam2, (StreamContext **)dwUser);

  0061c	e51b3120	 ldr         r3, [r11, #-0x120]
  00620	e51b2124	 ldr         r2, [r11, #-0x124]
  00624	e51b112c	 ldr         r1, [r11, #-0x12C]
  00628	e51b0108	 ldr         r0, [r11, #-0x108]
  0062c	eb000000	 bl          |?OpenStream@DeviceContext@@QAAKPAUwaveopendesc_tag@@KPAPAVStreamContext@@@Z|
  00630	e50b0094	 str         r0, [r11, #-0x94]
  00634	e51b3094	 ldr         r3, [r11, #-0x94]
  00638	e50b3130	 str         r3, [r11, #-0x130]

; 352  :                 break;

  0063c	ea00013c	 b           |$LN53@HandleWave|
  00640		 |$LN40@HandleWave|

; 353  :             }
; 354  : 
; 355  :         case WIDM_OPEN:
; 356  :             {
; 357  :                 // DEBUGMSG(1, (TEXT("WIDM_OPEN\r\n"));
; 358  :                 DeviceContext *pDeviceContext = g_pHWContext->GetInputDeviceContext(uDeviceId);

  00640	e51b1128	 ldr         r1, [r11, #-0x128]
  00644	e59f3540	 ldr         r3, [pc, #0x540]
  00648	e5930000	 ldr         r0, [r3]
  0064c	eb000000	 bl          |?GetInputDeviceContext@HardwareContext@@QAAPAVDeviceContext@@I@Z|
  00650	e50b0090	 str         r0, [r11, #-0x90]
  00654	e51b3090	 ldr         r3, [r11, #-0x90]
  00658	e50b3104	 str         r3, [r11, #-0x104]

; 359  :                 dwRet = pDeviceContext->OpenStream((LPWAVEOPENDESC)dwParam1, dwParam2, (StreamContext **)dwUser);

  0065c	e51b3120	 ldr         r3, [r11, #-0x120]
  00660	e51b2124	 ldr         r2, [r11, #-0x124]
  00664	e51b112c	 ldr         r1, [r11, #-0x12C]
  00668	e51b0104	 ldr         r0, [r11, #-0x104]
  0066c	eb000000	 bl          |?OpenStream@DeviceContext@@QAAKPAUwaveopendesc_tag@@KPAPAVStreamContext@@@Z|
  00670	e50b008c	 str         r0, [r11, #-0x8C]
  00674	e51b308c	 ldr         r3, [r11, #-0x8C]
  00678	e50b3130	 str         r3, [r11, #-0x130]

; 360  :                 break;

  0067c	ea00012c	 b           |$LN53@HandleWave|
  00680		 |$LN39@HandleWave|

; 361  :             }
; 362  : 
; 363  :         case WODM_CLOSE:
; 364  :         case WIDM_CLOSE:
; 365  :             {
; 366  :                 // DEBUGMSG(1, (TEXT("WIDM_CLOSE/WODM_CLOSE\r\n"));
; 367  :                 dwRet = pStreamContext->Close();

  00680	e51b3118	 ldr         r3, [r11, #-0x118]
  00684	e5933000	 ldr         r3, [r3]
  00688	e2833008	 add         r3, r3, #8
  0068c	e51b0118	 ldr         r0, [r11, #-0x118]
  00690	e5933000	 ldr         r3, [r3]
  00694	e1a0e00f	 mov         lr, pc
  00698	e12fff13	 bx          r3
  0069c	e50b0088	 str         r0, [r11, #-0x88]
  006a0	e51b3088	 ldr         r3, [r11, #-0x88]
  006a4	e50b3130	 str         r3, [r11, #-0x130]

; 368  : 
; 369  :                 // Release stream context here, rather than inside StreamContext::Close, so that if someone
; 370  :                 // (like CMidiStream) has subclassed Close there's no chance that the object will get released
; 371  :                 // out from under them.
; 372  :                 if (dwRet==MMSYSERR_NOERROR)

  006a8	e51b3130	 ldr         r3, [r11, #-0x130]
  006ac	e3530000	 cmp         r3, #0
  006b0	1a000001	 bne         |$LN38@HandleWave|

; 373  :                 {
; 374  :                     pStreamContext->Release();

  006b4	e51b0118	 ldr         r0, [r11, #-0x118]
  006b8	eb000000	 bl          |?Release@StreamContext@@QAAJXZ|
  006bc		 |$LN38@HandleWave|

; 375  :                 }
; 376  :                 break;

  006bc	ea00011c	 b           |$LN53@HandleWave|
  006c0		 |$LN37@HandleWave|

; 377  :             }
; 378  : 
; 379  :         case WODM_RESTART:
; 380  :         case WIDM_START:
; 381  :             {
; 382  :                 dwRet = pStreamContext->Run();

  006c0	e51b3118	 ldr         r3, [r11, #-0x118]
  006c4	e5933000	 ldr         r3, [r3]
  006c8	e2833010	 add         r3, r3, #0x10
  006cc	e51b0118	 ldr         r0, [r11, #-0x118]
  006d0	e5933000	 ldr         r3, [r3]
  006d4	e1a0e00f	 mov         lr, pc
  006d8	e12fff13	 bx          r3
  006dc	e50b0084	 str         r0, [r11, #-0x84]
  006e0	e51b3084	 ldr         r3, [r11, #-0x84]
  006e4	e50b3130	 str         r3, [r11, #-0x130]

; 383  :                 break;

  006e8	ea000111	 b           |$LN53@HandleWave|
  006ec		 |$LN36@HandleWave|

; 384  :             }
; 385  : 
; 386  :         case WODM_PAUSE:
; 387  :         case WIDM_STOP:
; 388  :             {
; 389  :                 dwRet = pStreamContext->Stop();

  006ec	e51b3118	 ldr         r3, [r11, #-0x118]
  006f0	e5933000	 ldr         r3, [r3]
  006f4	e2833014	 add         r3, r3, #0x14
  006f8	e51b0118	 ldr         r0, [r11, #-0x118]
  006fc	e5933000	 ldr         r3, [r3]
  00700	e1a0e00f	 mov         lr, pc
  00704	e12fff13	 bx          r3
  00708	e50b0080	 str         r0, [r11, #-0x80]
  0070c	e51b3080	 ldr         r3, [r11, #-0x80]
  00710	e50b3130	 str         r3, [r11, #-0x130]

; 390  :                 break;

  00714	ea000106	 b           |$LN53@HandleWave|
  00718		 |$LN35@HandleWave|

; 391  :             }
; 392  : 
; 393  :         case WODM_GETPOS:
; 394  :         case WIDM_GETPOS:
; 395  :             {
; 396  :                 dwRet = pStreamContext->GetPos((PMMTIME)dwParam1);

  00718	e51b112c	 ldr         r1, [r11, #-0x12C]
  0071c	e51b3118	 ldr         r3, [r11, #-0x118]
  00720	e5933000	 ldr         r3, [r3]
  00724	e283300c	 add         r3, r3, #0xC
  00728	e51b0118	 ldr         r0, [r11, #-0x118]
  0072c	e5933000	 ldr         r3, [r3]
  00730	e1a0e00f	 mov         lr, pc
  00734	e12fff13	 bx          r3
  00738	e50b007c	 str         r0, [r11, #-0x7C]
  0073c	e51b307c	 ldr         r3, [r11, #-0x7C]
  00740	e50b3130	 str         r3, [r11, #-0x130]

; 397  :                 break;

  00744	ea0000fa	 b           |$LN53@HandleWave|
  00748		 |$LN34@HandleWave|

; 398  :             }
; 399  : 
; 400  :         case WODM_RESET:
; 401  :         case WIDM_RESET:
; 402  :             {
; 403  :                 dwRet = pStreamContext->Reset();

  00748	e51b3118	 ldr         r3, [r11, #-0x118]
  0074c	e5933000	 ldr         r3, [r3]
  00750	e2833018	 add         r3, r3, #0x18
  00754	e51b0118	 ldr         r0, [r11, #-0x118]
  00758	e5933000	 ldr         r3, [r3]
  0075c	e1a0e00f	 mov         lr, pc
  00760	e12fff13	 bx          r3
  00764	e50b0078	 str         r0, [r11, #-0x78]
  00768	e51b3078	 ldr         r3, [r11, #-0x78]
  0076c	e50b3130	 str         r3, [r11, #-0x130]

; 404  :                 break;

  00770	ea0000ef	 b           |$LN53@HandleWave|
  00774		 |$LN33@HandleWave|

; 405  :             }
; 406  : 
; 407  :         case WODM_WRITE:
; 408  :         case WIDM_ADDBUFFER:
; 409  :             {
; 410  :                 // DEBUGMSG(1, (TEXT("WODM_WRITE/WIDM_ADDBUFFER, Buffer=0x%x\r\n"),dwParam1);
; 411  :                 dwRet = pStreamContext->QueueBuffer((LPWAVEHDR)dwParam1);

  00774	e51b112c	 ldr         r1, [r11, #-0x12C]
  00778	e51b3118	 ldr         r3, [r11, #-0x118]
  0077c	e5933000	 ldr         r3, [r3]
  00780	e2833030	 add         r3, r3, #0x30
  00784	e51b0118	 ldr         r0, [r11, #-0x118]
  00788	e5933000	 ldr         r3, [r3]
  0078c	e1a0e00f	 mov         lr, pc
  00790	e12fff13	 bx          r3
  00794	e50b0074	 str         r0, [r11, #-0x74]
  00798	e51b3074	 ldr         r3, [r11, #-0x74]
  0079c	e50b3130	 str         r3, [r11, #-0x130]

; 412  :                 break;

  007a0	ea0000e3	 b           |$LN53@HandleWave|
  007a4		 |$LN32@HandleWave|

; 413  :             }
; 414  : 
; 415  :         case WODM_GETVOLUME:
; 416  :             {
; 417  :                 PDWORD pdwGain = (PDWORD)dwParam1;

  007a4	e51b312c	 ldr         r3, [r11, #-0x12C]
  007a8	e50b3100	 str         r3, [r11, #-0x100]

; 418  : 
; 419  :                 if (pStreamContext)

  007ac	e51b3118	 ldr         r3, [r11, #-0x118]
  007b0	e3530000	 cmp         r3, #0
  007b4	0a000006	 beq         |$LN31@HandleWave|

; 420  :                 {
; 421  :                     *pdwGain = pStreamContext->GetGain();

  007b8	e51b0118	 ldr         r0, [r11, #-0x118]
  007bc	eb000000	 bl          |?GetGain@StreamContext@@QAAKXZ|
  007c0	e50b0070	 str         r0, [r11, #-0x70]
  007c4	e51b2070	 ldr         r2, [r11, #-0x70]
  007c8	e51b3100	 ldr         r3, [r11, #-0x100]
  007cc	e5832000	 str         r2, [r3]

; 422  :                 }
; 423  :                 else

  007d0	ea000004	 b           |$LN30@HandleWave|
  007d4		 |$LN31@HandleWave|

; 424  :                 {
; 425  :                     *pdwGain = GetMasterVolume();

  007d4	eb000000	 bl          |?GetMasterVolume@@YAKXZ|
  007d8	e50b006c	 str         r0, [r11, #-0x6C]
  007dc	e51b206c	 ldr         r2, [r11, #-0x6C]
  007e0	e51b3100	 ldr         r3, [r11, #-0x100]
  007e4	e5832000	 str         r2, [r3]
  007e8		 |$LN30@HandleWave|

; 426  :                 }
; 427  :                 dwRet = MMSYSERR_NOERROR;

  007e8	e3a03000	 mov         r3, #0
  007ec	e50b3130	 str         r3, [r11, #-0x130]

; 428  :                 break;

  007f0	ea0000cf	 b           |$LN53@HandleWave|
  007f4		 |$LN29@HandleWave|

; 429  :             }
; 430  : 
; 431  :         case WODM_SETVOLUME:
; 432  :             {
; 433  :                 DWORD dwGain = dwParam1;

  007f4	e51b312c	 ldr         r3, [r11, #-0x12C]
  007f8	e50b30fc	 str         r3, [r11, #-0xFC]

; 434  :                 if (pStreamContext)

  007fc	e51b3118	 ldr         r3, [r11, #-0x118]
  00800	e3530000	 cmp         r3, #0
  00804	0a000006	 beq         |$LN28@HandleWave|

; 435  :                 {
; 436  :                     dwRet = pStreamContext->SetGain(dwGain);

  00808	e51b10fc	 ldr         r1, [r11, #-0xFC]
  0080c	e51b0118	 ldr         r0, [r11, #-0x118]
  00810	eb000000	 bl          |?SetGain@StreamContext@@QAAKK@Z|
  00814	e50b0068	 str         r0, [r11, #-0x68]
  00818	e51b3068	 ldr         r3, [r11, #-0x68]
  0081c	e50b3130	 str         r3, [r11, #-0x130]

; 437  :                 }
; 438  :                 else

  00820	ea000004	 b           |$LN27@HandleWave|
  00824		 |$LN28@HandleWave|

; 439  :                 {
; 440  :                     dwRet = SetMasterVolume(dwGain);

  00824	e51b00fc	 ldr         r0, [r11, #-0xFC]
  00828	eb000000	 bl          |?SetMasterVolume@@YAIK@Z|
  0082c	e50b0064	 str         r0, [r11, #-0x64]
  00830	e51b3064	 ldr         r3, [r11, #-0x64]
  00834	e50b3130	 str         r3, [r11, #-0x130]
  00838		 |$LN27@HandleWave|

; 441  :                 }
; 442  :                 break;

  00838	ea0000bd	 b           |$LN53@HandleWave|
  0083c		 |$LN26@HandleWave|

; 443  :             }
; 444  : 
; 445  :         case WODM_BREAKLOOP:
; 446  :             {
; 447  :                 dwRet = pStreamContext->BreakLoop();

  0083c	e51b0118	 ldr         r0, [r11, #-0x118]
  00840	eb000000	 bl          |?BreakLoop@StreamContext@@QAAKXZ|
  00844	e50b0060	 str         r0, [r11, #-0x60]
  00848	e51b3060	 ldr         r3, [r11, #-0x60]
  0084c	e50b3130	 str         r3, [r11, #-0x130]

; 448  :                 break;

  00850	ea0000b7	 b           |$LN53@HandleWave|
  00854		 |$LN25@HandleWave|

; 449  :             }
; 450  : 
; 451  :         case WODM_SETPLAYBACKRATE:
; 452  :             {
; 453  :                 WaveStreamContext *pWaveStream = (WaveStreamContext *)dwUser;

  00854	e51b3120	 ldr         r3, [r11, #-0x120]
  00858	e50b30f8	 str         r3, [r11, #-0xF8]

; 454  :                 dwRet = pWaveStream->SetRate(dwParam1);

  0085c	e51b112c	 ldr         r1, [r11, #-0x12C]
  00860	e51b30f8	 ldr         r3, [r11, #-0xF8]
  00864	e5933000	 ldr         r3, [r3]
  00868	e283303c	 add         r3, r3, #0x3C
  0086c	e51b00f8	 ldr         r0, [r11, #-0xF8]
  00870	e5933000	 ldr         r3, [r3]
  00874	e1a0e00f	 mov         lr, pc
  00878	e12fff13	 bx          r3
  0087c	e50b005c	 str         r0, [r11, #-0x5C]
  00880	e51b305c	 ldr         r3, [r11, #-0x5C]
  00884	e50b3130	 str         r3, [r11, #-0x130]

; 455  :                 break;

  00888	ea0000a9	 b           |$LN53@HandleWave|
  0088c		 |$LN24@HandleWave|

; 456  :             }
; 457  : 
; 458  :         case WODM_GETPLAYBACKRATE:
; 459  :             {
; 460  :                 WaveStreamContext *pWaveStream = (WaveStreamContext *)dwUser;

  0088c	e51b3120	 ldr         r3, [r11, #-0x120]
  00890	e50b30f4	 str         r3, [r11, #-0xF4]

; 461  :                 dwRet = pWaveStream->GetRate((DWORD *)dwParam1);

  00894	e51b112c	 ldr         r1, [r11, #-0x12C]
  00898	e51b00f4	 ldr         r0, [r11, #-0xF4]
  0089c	eb000000	 bl          |?GetRate@WaveStreamContext@@QAAKPAK@Z|
  008a0	e50b0058	 str         r0, [r11, #-0x58]
  008a4	e51b3058	 ldr         r3, [r11, #-0x58]
  008a8	e50b3130	 str         r3, [r11, #-0x130]

; 462  :                 break;

  008ac	ea0000a0	 b           |$LN53@HandleWave|
  008b0		 |$LN23@HandleWave|

; 463  :             }
; 464  : 
; 465  :         case MM_WOM_SETSECONDARYGAINCLASS:
; 466  :             {
; 467  :                 if (pStreamContext)

  008b0	e51b3118	 ldr         r3, [r11, #-0x118]
  008b4	e3530000	 cmp         r3, #0
  008b8	0a000006	 beq         |$LN22@HandleWave|

; 468  :                 {
; 469  :                     dwRet = pStreamContext->SetSecondaryGainClass(dwParam1);

  008bc	e51b112c	 ldr         r1, [r11, #-0x12C]
  008c0	e51b0118	 ldr         r0, [r11, #-0x118]
  008c4	eb000000	 bl          |?SetSecondaryGainClass@StreamContext@@QAAKK@Z|
  008c8	e50b0054	 str         r0, [r11, #-0x54]
  008cc	e51b3054	 ldr         r3, [r11, #-0x54]
  008d0	e50b3130	 str         r3, [r11, #-0x130]

; 470  :                 }
; 471  :                 else

  008d4	ea000001	 b           |$LN21@HandleWave|
  008d8		 |$LN22@HandleWave|

; 472  :                 {
; 473  :                     dwRet = MMSYSERR_INVALPARAM;

  008d8	e3a0300b	 mov         r3, #0xB
  008dc	e50b3130	 str         r3, [r11, #-0x130]
  008e0		 |$LN21@HandleWave|

; 474  :                 }
; 475  :                 break;

  008e0	ea000093	 b           |$LN53@HandleWave|
  008e4		 |$LN20@HandleWave|

; 476  :             }
; 477  : 
; 478  :         case MM_WOM_SETSECONDARYGAINLIMIT:
; 479  :             {
; 480  :                 DeviceContext *pDeviceContext;
; 481  :                 if (pStreamContext)

  008e4	e51b3118	 ldr         r3, [r11, #-0x118]
  008e8	e3530000	 cmp         r3, #0
  008ec	0a000005	 beq         |$LN19@HandleWave|

; 482  :                 {
; 483  :                     pDeviceContext = pStreamContext->GetDeviceContext();

  008f0	e51b0118	 ldr         r0, [r11, #-0x118]
  008f4	eb000000	 bl          |?GetDeviceContext@StreamContext@@QAAPAVDeviceContext@@XZ|
  008f8	e50b0050	 str         r0, [r11, #-0x50]
  008fc	e51b3050	 ldr         r3, [r11, #-0x50]
  00900	e50b30f0	 str         r3, [r11, #-0xF0]

; 484  :                 }
; 485  :                 else

  00904	ea000006	 b           |$LN18@HandleWave|
  00908		 |$LN19@HandleWave|

; 486  :                 {
; 487  :                     pDeviceContext = g_pHWContext->GetOutputDeviceContext(uDeviceId);

  00908	e51b1128	 ldr         r1, [r11, #-0x128]
  0090c	e59f3278	 ldr         r3, [pc, #0x278]
  00910	e5930000	 ldr         r0, [r3]
  00914	eb000000	 bl          |?GetOutputDeviceContext@HardwareContext@@QAAPAVDeviceContext@@I@Z|
  00918	e50b004c	 str         r0, [r11, #-0x4C]
  0091c	e51b304c	 ldr         r3, [r11, #-0x4C]
  00920	e50b30f0	 str         r3, [r11, #-0xF0]
  00924		 |$LN18@HandleWave|

; 488  :                 }
; 489  :                 dwRet = pDeviceContext->SetSecondaryGainLimit(dwParam1,dwParam2);

  00924	e51b2124	 ldr         r2, [r11, #-0x124]
  00928	e51b112c	 ldr         r1, [r11, #-0x12C]
  0092c	e51b00f0	 ldr         r0, [r11, #-0xF0]
  00930	eb000000	 bl          |?SetSecondaryGainLimit@DeviceContext@@QAAKKK@Z|
  00934	e50b0048	 str         r0, [r11, #-0x48]
  00938	e51b3048	 ldr         r3, [r11, #-0x48]
  0093c	e50b3130	 str         r3, [r11, #-0x130]

; 490  :                 break;

  00940	ea00007b	 b           |$LN53@HandleWave|
  00944		 |$LN17@HandleWave|

; 491  :             }
; 492  : 
; 493  :         case MM_WOM_FORCESPEAKER:
; 494  :             {
; 495  :                 if (pStreamContext)

  00944	e51b3118	 ldr         r3, [r11, #-0x118]
  00948	e3530000	 cmp         r3, #0
  0094c	0a000006	 beq         |$LN16@HandleWave|

; 496  :                 {
; 497  :                     dwRet = pStreamContext->ForceSpeaker((BOOL)dwParam1);

  00950	e51b112c	 ldr         r1, [r11, #-0x12C]
  00954	e51b0118	 ldr         r0, [r11, #-0x118]
  00958	eb000000	 bl          |?ForceSpeaker@StreamContext@@QAAKH@Z|
  0095c	e50b0044	 str         r0, [r11, #-0x44]
  00960	e51b3044	 ldr         r3, [r11, #-0x44]
  00964	e50b3130	 str         r3, [r11, #-0x130]

; 498  :                 }
; 499  :                 else

  00968	ea000006	 b           |$LN15@HandleWave|
  0096c		 |$LN16@HandleWave|

; 500  :                 {
; 501  :                     dwRet = g_pHWContext->ForceSpeaker((BOOL)dwParam1);

  0096c	e51b112c	 ldr         r1, [r11, #-0x12C]
  00970	e59f3214	 ldr         r3, [pc, #0x214]
  00974	e5930000	 ldr         r0, [r3]
  00978	eb000000	 bl          |?ForceSpeaker@HardwareContext@@QAAKH@Z|
  0097c	e50b0040	 str         r0, [r11, #-0x40]
  00980	e51b3040	 ldr         r3, [r11, #-0x40]
  00984	e50b3130	 str         r3, [r11, #-0x130]
  00988		 |$LN15@HandleWave|

; 502  :                 }
; 503  :                 break;

  00988	ea000069	 b           |$LN53@HandleWave|
  0098c		 |$LN14@HandleWave|

; 504  :             }
; 505  : 
; 506  :         case WODM_GETPROP:
; 507  :             {
; 508  :                 // DEBUGMSG(ZONE_WODM, (TEXT("WODM_GETPROP\r\n")));
; 509  : 
; 510  :                 PWAVEPROPINFO pPropInfo = (PWAVEPROPINFO) dwParam1;

  0098c	e51b312c	 ldr         r3, [r11, #-0x12C]
  00990	e50b30ec	 str         r3, [r11, #-0xEC]

; 511  :                 if (pStreamContext)

  00994	e51b3118	 ldr         r3, [r11, #-0x118]
  00998	e3530000	 cmp         r3, #0
  0099c	0a000006	 beq         |$LN13@HandleWave|

; 512  :                 {
; 513  :                     dwRet = pStreamContext->GetProperty(pPropInfo);

  009a0	e51b10ec	 ldr         r1, [r11, #-0xEC]
  009a4	e51b0118	 ldr         r0, [r11, #-0x118]
  009a8	eb000000	 bl          |?GetProperty@StreamContext@@QAAKPAUtag_WAVEPROPINFO@@@Z|
  009ac	e50b003c	 str         r0, [r11, #-0x3C]
  009b0	e51b303c	 ldr         r3, [r11, #-0x3C]
  009b4	e50b3130	 str         r3, [r11, #-0x130]

; 514  :                 }
; 515  :                 else

  009b8	ea00000c	 b           |$LN12@HandleWave|
  009bc		 |$LN13@HandleWave|

; 516  :                 {
; 517  :                     DeviceContext *pDeviceContext = g_pHWContext->GetOutputDeviceContext(uDeviceId);

  009bc	e51b1128	 ldr         r1, [r11, #-0x128]
  009c0	e59f31c4	 ldr         r3, [pc, #0x1C4]
  009c4	e5930000	 ldr         r0, [r3]
  009c8	eb000000	 bl          |?GetOutputDeviceContext@HardwareContext@@QAAPAVDeviceContext@@I@Z|
  009cc	e50b0038	 str         r0, [r11, #-0x38]
  009d0	e51b3038	 ldr         r3, [r11, #-0x38]
  009d4	e50b30e8	 str         r3, [r11, #-0xE8]

; 518  :                     dwRet = pDeviceContext->GetProperty(pPropInfo);

  009d8	e51b10ec	 ldr         r1, [r11, #-0xEC]
  009dc	e51b00e8	 ldr         r0, [r11, #-0xE8]
  009e0	eb000000	 bl          |?GetProperty@DeviceContext@@QAAKPAUtag_WAVEPROPINFO@@@Z|
  009e4	e50b0034	 str         r0, [r11, #-0x34]
  009e8	e51b3034	 ldr         r3, [r11, #-0x34]
  009ec	e50b3130	 str         r3, [r11, #-0x130]
  009f0		 |$LN12@HandleWave|

; 519  :                 }
; 520  :                 break;

  009f0	ea00004f	 b           |$LN53@HandleWave|
  009f4		 |$LN11@HandleWave|

; 521  :             }
; 522  : 
; 523  :         case WIDM_GETPROP:
; 524  :             {
; 525  :                 // DEBUGMSG(ZONE_WODM, (TEXT("WIDM_GETPROP\r\n")));
; 526  : 
; 527  :                 PWAVEPROPINFO pPropInfo = (PWAVEPROPINFO) dwParam1;

  009f4	e51b312c	 ldr         r3, [r11, #-0x12C]
  009f8	e50b30e4	 str         r3, [r11, #-0xE4]

; 528  :                 if (pStreamContext)

  009fc	e51b3118	 ldr         r3, [r11, #-0x118]
  00a00	e3530000	 cmp         r3, #0
  00a04	0a000006	 beq         |$LN10@HandleWave|

; 529  :                 {
; 530  :                     dwRet = pStreamContext->GetProperty(pPropInfo);

  00a08	e51b10e4	 ldr         r1, [r11, #-0xE4]
  00a0c	e51b0118	 ldr         r0, [r11, #-0x118]
  00a10	eb000000	 bl          |?GetProperty@StreamContext@@QAAKPAUtag_WAVEPROPINFO@@@Z|
  00a14	e50b0030	 str         r0, [r11, #-0x30]
  00a18	e51b3030	 ldr         r3, [r11, #-0x30]
  00a1c	e50b3130	 str         r3, [r11, #-0x130]

; 531  :                 }
; 532  :                 else

  00a20	ea00000c	 b           |$LN9@HandleWave|
  00a24		 |$LN10@HandleWave|

; 533  :                 {
; 534  :                     DeviceContext *pDeviceContext = g_pHWContext->GetInputDeviceContext(uDeviceId);

  00a24	e51b1128	 ldr         r1, [r11, #-0x128]
  00a28	e59f315c	 ldr         r3, [pc, #0x15C]
  00a2c	e5930000	 ldr         r0, [r3]
  00a30	eb000000	 bl          |?GetInputDeviceContext@HardwareContext@@QAAPAVDeviceContext@@I@Z|
  00a34	e50b002c	 str         r0, [r11, #-0x2C]
  00a38	e51b302c	 ldr         r3, [r11, #-0x2C]
  00a3c	e50b30e0	 str         r3, [r11, #-0xE0]

; 535  :                     dwRet = pDeviceContext->GetProperty(pPropInfo);

  00a40	e51b10e4	 ldr         r1, [r11, #-0xE4]
  00a44	e51b00e0	 ldr         r0, [r11, #-0xE0]
  00a48	eb000000	 bl          |?GetProperty@DeviceContext@@QAAKPAUtag_WAVEPROPINFO@@@Z|
  00a4c	e50b0028	 str         r0, [r11, #-0x28]
  00a50	e51b3028	 ldr         r3, [r11, #-0x28]
  00a54	e50b3130	 str         r3, [r11, #-0x130]
  00a58		 |$LN9@HandleWave|

; 536  :                 }
; 537  :                 break;

  00a58	ea000035	 b           |$LN53@HandleWave|
  00a5c		 |$LN8@HandleWave|

; 538  :             }
; 539  : 
; 540  :         case WODM_SETPROP:
; 541  :             {
; 542  :                 // DEBUGMSG(ZONE_WODM, (TEXT("WODM_SETPROP\r\n")));
; 543  : 
; 544  :                 PWAVEPROPINFO pPropInfo = (PWAVEPROPINFO) dwParam1;

  00a5c	e51b312c	 ldr         r3, [r11, #-0x12C]
  00a60	e50b30dc	 str         r3, [r11, #-0xDC]

; 545  :                 if (pStreamContext)

  00a64	e51b3118	 ldr         r3, [r11, #-0x118]
  00a68	e3530000	 cmp         r3, #0
  00a6c	0a000006	 beq         |$LN7@HandleWave|

; 546  :                 {
; 547  :                     dwRet = pStreamContext->SetProperty(pPropInfo);

  00a70	e51b10dc	 ldr         r1, [r11, #-0xDC]
  00a74	e51b0118	 ldr         r0, [r11, #-0x118]
  00a78	eb000000	 bl          |?SetProperty@StreamContext@@QAAKPAUtag_WAVEPROPINFO@@@Z|
  00a7c	e50b0024	 str         r0, [r11, #-0x24]
  00a80	e51b3024	 ldr         r3, [r11, #-0x24]
  00a84	e50b3130	 str         r3, [r11, #-0x130]

; 548  :                 }
; 549  :                 else

  00a88	ea00000c	 b           |$LN6@HandleWave|
  00a8c		 |$LN7@HandleWave|

; 550  :                 {
; 551  :                     DeviceContext *pDeviceContext = g_pHWContext->GetOutputDeviceContext(uDeviceId);

  00a8c	e51b1128	 ldr         r1, [r11, #-0x128]
  00a90	e59f30f4	 ldr         r3, [pc, #0xF4]
  00a94	e5930000	 ldr         r0, [r3]
  00a98	eb000000	 bl          |?GetOutputDeviceContext@HardwareContext@@QAAPAVDeviceContext@@I@Z|
  00a9c	e50b0020	 str         r0, [r11, #-0x20]
  00aa0	e51b3020	 ldr         r3, [r11, #-0x20]
  00aa4	e50b30d8	 str         r3, [r11, #-0xD8]

; 552  :                     dwRet = pDeviceContext->SetProperty(pPropInfo);

  00aa8	e51b10dc	 ldr         r1, [r11, #-0xDC]
  00aac	e51b00d8	 ldr         r0, [r11, #-0xD8]
  00ab0	eb000000	 bl          |?SetProperty@DeviceContext@@QAAKPAUtag_WAVEPROPINFO@@@Z|
  00ab4	e50b001c	 str         r0, [r11, #-0x1C]
  00ab8	e51b301c	 ldr         r3, [r11, #-0x1C]
  00abc	e50b3130	 str         r3, [r11, #-0x130]
  00ac0		 |$LN6@HandleWave|

; 553  :                 }
; 554  :                 break;

  00ac0	ea00001b	 b           |$LN53@HandleWave|
  00ac4		 |$LN5@HandleWave|

; 555  :             }
; 556  : 
; 557  :         case WIDM_SETPROP:
; 558  :             {
; 559  :                 // DEBUGMSG(ZONE_WODM, (TEXT("WIDM_SETPROP\r\n")));
; 560  : 
; 561  :                 PWAVEPROPINFO pPropInfo = (PWAVEPROPINFO) dwParam1;

  00ac4	e51b312c	 ldr         r3, [r11, #-0x12C]
  00ac8	e50b30d4	 str         r3, [r11, #-0xD4]

; 562  :                 if (pStreamContext)

  00acc	e51b3118	 ldr         r3, [r11, #-0x118]
  00ad0	e3530000	 cmp         r3, #0
  00ad4	0a000006	 beq         |$LN4@HandleWave|

; 563  :                 {
; 564  :                     dwRet = pStreamContext->SetProperty(pPropInfo);

  00ad8	e51b10d4	 ldr         r1, [r11, #-0xD4]
  00adc	e51b0118	 ldr         r0, [r11, #-0x118]
  00ae0	eb000000	 bl          |?SetProperty@StreamContext@@QAAKPAUtag_WAVEPROPINFO@@@Z|
  00ae4	e50b0018	 str         r0, [r11, #-0x18]
  00ae8	e51b3018	 ldr         r3, [r11, #-0x18]
  00aec	e50b3130	 str         r3, [r11, #-0x130]

; 565  :                 }
; 566  :                 else

  00af0	ea00000c	 b           |$LN3@HandleWave|
  00af4		 |$LN4@HandleWave|

; 567  :                 {
; 568  :                     DeviceContext *pDeviceContext = g_pHWContext->GetInputDeviceContext(uDeviceId);

  00af4	e51b1128	 ldr         r1, [r11, #-0x128]
  00af8	e59f308c	 ldr         r3, [pc, #0x8C]
  00afc	e5930000	 ldr         r0, [r3]
  00b00	eb000000	 bl          |?GetInputDeviceContext@HardwareContext@@QAAPAVDeviceContext@@I@Z|
  00b04	e50b0014	 str         r0, [r11, #-0x14]
  00b08	e51b3014	 ldr         r3, [r11, #-0x14]
  00b0c	e50b30d0	 str         r3, [r11, #-0xD0]

; 569  :                     dwRet = pDeviceContext->SetProperty(pPropInfo);

  00b10	e51b10d4	 ldr         r1, [r11, #-0xD4]
  00b14	e51b00d0	 ldr         r0, [r11, #-0xD0]
  00b18	eb000000	 bl          |?SetProperty@DeviceContext@@QAAKPAUtag_WAVEPROPINFO@@@Z|
  00b1c	e50b0010	 str         r0, [r11, #-0x10]
  00b20	e51b3010	 ldr         r3, [r11, #-0x10]
  00b24	e50b3130	 str         r3, [r11, #-0x130]
  00b28		 |$LN3@HandleWave|

; 570  :                 }
; 571  :                 break;

  00b28	ea000001	 b           |$LN53@HandleWave|
  00b2c		 |$LN2@HandleWave|

; 572  :             }
; 573  : 
; 574  :     // unsupported messages
; 575  :         case WODM_GETPITCH:
; 576  :         case WODM_SETPITCH:
; 577  :         case WODM_PREPARE:
; 578  :         case WODM_UNPREPARE:
; 579  :         case WIDM_PREPARE:
; 580  :         case WIDM_UNPREPARE:
; 581  :             default:
; 582  :             dwRet  = MMSYSERR_NOTSUPPORTED;

  00b2c	e3a03008	 mov         r3, #8
  00b30	e50b3130	 str         r3, [r11, #-0x130]
  00b34		 |$LN53@HandleWave|
  00b34		 |$LN65@HandleWave|

; 583  :         }
; 584  :     }

  00b34	ea000002	 b           |$LN66@HandleWave|
  00b38		 |$LN61@HandleWave|

; 586  :     {
; 587  :         dwRet  = MMSYSERR_INVALPARAM;

  00b38	e3a0300b	 mov         r3, #0xB
  00b3c	e50b3130	 str         r3, [r11, #-0x130]
  00b40	eaffffff	 b           |$LN66@HandleWave|
  00b44		 |$LN66@HandleWave|

; 588  :     }
; 589  : 
; 590  :     g_pHWContext->Unlock();

  00b44	e59f3040	 ldr         r3, [pc, #0x40]
  00b48	e5930000	 ldr         r0, [r3]
  00b4c	eb000000	 bl          |?Unlock@HardwareContext@@QAAXXZ|

; 591  : 
; 592  :     // Pass the return code back via pBufOut
; 593  :     if (pdwResult)

  00b50	e59b3004	 ldr         r3, [r11, #4]
  00b54	e3530000	 cmp         r3, #0
  00b58	0a000002	 beq         |$LN1@HandleWave|

; 594  :     {
; 595  :         *pdwResult = dwRet;

  00b5c	e51b2130	 ldr         r2, [r11, #-0x130]
  00b60	e59b3004	 ldr         r3, [r11, #4]
  00b64	e5832000	 str         r2, [r3]
  00b68		 |$LN1@HandleWave|

; 596  :     }
; 597  : 
; 598  :     return(TRUE);

  00b68	e3a03001	 mov         r3, #1
  00b6c	e50b30cc	 str         r3, [r11, #-0xCC]
  00b70		 |$LN59@HandleWave|

; 599  : }

  00b70	e51b00cc	 ldr         r0, [r11, #-0xCC]
  00b74	e24bd00c	 sub         sp, r11, #0xC
  00b78	e89d6800	 ldmia       sp, {r11, sp, lr}
  00b7c	e12fff1e	 bx          lr

			 ENDP  ; |?HandleWaveMessage@@YAHPAUMMDRV_MESSAGE_PARAMS@@PAK@Z|, HandleWaveMessage

  00b80		 |$LN60@HandleWave|
  00b80		 |$LN69@HandleWave|

; 585  :     _except (EXCEPTION_EXECUTE_HANDLER)

  00b80	e52de004	 str         lr, [sp, #-4]!
  00b84		 |$LN63@HandleWave|
  00b84		 |$LN134@HandleWave|
  00b84	e3a00001	 mov         r0, #1
  00b88		 |$LN62@HandleWave|
  00b88	e49df004	 ldr         pc, [sp], #4
  00b8c		 |$LN136@HandleWave|
  00b8c		 |$LN137@HandleWave|
  00b8c	00000000	 DCD         |?g_pHWContext@@3PAVHardwareContext@@A|
  00b90		 |$LN135@HandleWave|
  00b90		 |$LN71@HandleWave|
; File c:\wince600\platform\common\src\soc\common_ti_v1\common_ti\wavedev2\hwctxt.h

  00000			 AREA	 |.pdata|, PDATA
|$T35605| DCD	|$LN5@Lock|
	DCD	0x40000803
; Function compile flags: /Odtp

  00000			 AREA	 |.text|, CODE, ARM

  00000		 |?Lock@HardwareContext@@QAAXXZ| PROC	; HardwareContext::Lock

; 53   :     void Lock()   {EnterCriticalSection(&m_Lock);}

  00000		 |$LN5@Lock|
  00000	e1a0c00d	 mov         r12, sp
  00004	e92d0001	 stmdb       sp!, {r0}
  00008	e92d5000	 stmdb       sp!, {r12, lr}
  0000c		 |$M35602|
  0000c	e59d3008	 ldr         r3, [sp, #8]
  00010	e2830040	 add         r0, r3, #0x40
  00014	eb000000	 bl          EnterCriticalSection
  00018	e89d6000	 ldmia       sp, {sp, lr}
  0001c	e12fff1e	 bx          lr
  00020		 |$M35603|

			 ENDP  ; |?Lock@HardwareContext@@QAAXXZ|, HardwareContext::Lock


  00000			 AREA	 |.pdata|, PDATA
|$T35612| DCD	|$LN5@Unlock|
	DCD	0x40000803
; Function compile flags: /Odtp

  00000			 AREA	 |.text|, CODE, ARM

  00000		 |?Unlock@HardwareContext@@QAAXXZ| PROC	; HardwareContext::Unlock

; 54   :     void Unlock() {LeaveCriticalSection(&m_Lock);}

  00000		 |$LN5@Unlock|
  00000	e1a0c00d	 mov         r12, sp
  00004	e92d0001	 stmdb       sp!, {r0}
  00008	e92d5000	 stmdb       sp!, {r12, lr}
  0000c		 |$M35609|
  0000c	e59d3008	 ldr         r3, [sp, #8]
  00010	e2830040	 add         r0, r3, #0x40
  00014	eb000000	 bl          LeaveCriticalSection
  00018	e89d6000	 ldmia       sp, {sp, lr}
  0001c	e12fff1e	 bx          lr
  00020		 |$M35610|

			 ENDP  ; |?Unlock@HardwareContext@@QAAXXZ|, HardwareContext::Unlock


  00000			 AREA	 |.pdata|, PDATA
|$T35620| DCD	|$LN5@GetNumInpu|
	DCD	0x40000a04
; Function compile flags: /Odtp

  00000			 AREA	 |.text|, CODE, ARM

  00000		 |?GetNumInputDevices@HardwareContext@@QAAKXZ| PROC ; HardwareContext::GetNumInputDevices

; 56   :     DWORD GetNumInputDevices()  {return 1;}

  00000		 |$LN5@GetNumInpu|
  00000	e1a0c00d	 mov         r12, sp
  00004	e92d0001	 stmdb       sp!, {r0}
  00008	e92d5000	 stmdb       sp!, {r12, lr}
  0000c	e24dd004	 sub         sp, sp, #4
  00010		 |$M35617|
  00010	e3a03001	 mov         r3, #1
  00014	e58d3000	 str         r3, [sp]
  00018	e59d0000	 ldr         r0, [sp]
  0001c	e28dd004	 add         sp, sp, #4
  00020	e89d6000	 ldmia       sp, {sp, lr}
  00024	e12fff1e	 bx          lr
  00028		 |$M35618|

			 ENDP  ; |?GetNumInputDevices@HardwareContext@@QAAKXZ|, HardwareContext::GetNumInputDevices


  00000			 AREA	 |.pdata|, PDATA
|$T35628| DCD	|$LN5@GetNumOutp|
	DCD	0x40000a04
; Function compile flags: /Odtp

  00000			 AREA	 |.text|, CODE, ARM

  00000		 |?GetNumOutputDevices@HardwareContext@@QAAKXZ| PROC ; HardwareContext::GetNumOutputDevices

; 57   :     DWORD GetNumOutputDevices() {return 1;}

  00000		 |$LN5@GetNumOutp|
  00000	e1a0c00d	 mov         r12, sp
  00004	e92d0001	 stmdb       sp!, {r0}
  00008	e92d5000	 stmdb       sp!, {r12, lr}
  0000c	e24dd004	 sub         sp, sp, #4
  00010		 |$M35625|
  00010	e3a03001	 mov         r3, #1
  00014	e58d3000	 str         r3, [sp]
  00018	e59d0000	 ldr         r0, [sp]
  0001c	e28dd004	 add         sp, sp, #4
  00020	e89d6000	 ldmia       sp, {sp, lr}
  00024	e12fff1e	 bx          lr
  00028		 |$M35626|

			 ENDP  ; |?GetNumOutputDevices@HardwareContext@@QAAKXZ|, HardwareContext::GetNumOutputDevices


  00000			 AREA	 |.pdata|, PDATA
|$T35636| DCD	|$LN5@GetInputDe|
	DCD	0x40000b04
; Function compile flags: /Odtp

  00000			 AREA	 |.text|, CODE, ARM

  00000		 |?GetInputDeviceContext@HardwareContext@@QAAPAVDeviceContext@@I@Z| PROC ; HardwareContext::GetInputDeviceContext

; 61   :     {

  00000		 |$LN5@GetInputDe|
  00000	e1a0c00d	 mov         r12, sp
  00004	e92d0003	 stmdb       sp!, {r0, r1}
  00008	e92d5000	 stmdb       sp!, {r12, lr}
  0000c	e24dd004	 sub         sp, sp, #4
  00010		 |$M35633|

; 62   : 		UNREFERENCED_PARAMETER(DeviceId);
; 63   : 
; 64   : 		return &m_InputDeviceContext;

  00010	e59d300c	 ldr         r3, [sp, #0xC]
  00014	e283305c	 add         r3, r3, #0x5C
  00018	e58d3000	 str         r3, [sp]

; 65   :     }

  0001c	e59d0000	 ldr         r0, [sp]
  00020	e28dd004	 add         sp, sp, #4
  00024	e89d6000	 ldmia       sp, {sp, lr}
  00028	e12fff1e	 bx          lr
  0002c		 |$M35634|

			 ENDP  ; |?GetInputDeviceContext@HardwareContext@@QAAPAVDeviceContext@@I@Z|, HardwareContext::GetInputDeviceContext


  00000			 AREA	 |.pdata|, PDATA
|$T35644| DCD	|$LN5@GetOutputD|
	DCD	0x40000b04
; Function compile flags: /Odtp

  00000			 AREA	 |.text|, CODE, ARM

  00000		 |?GetOutputDeviceContext@HardwareContext@@QAAPAVDeviceContext@@I@Z| PROC ; HardwareContext::GetOutputDeviceContext

; 68   :     {

  00000		 |$LN5@GetOutputD|
  00000	e1a0c00d	 mov         r12, sp
  00004	e92d0003	 stmdb       sp!, {r0, r1}
  00008	e92d5000	 stmdb       sp!, {r12, lr}
  0000c	e24dd004	 sub         sp, sp, #4
  00010		 |$M35641|

; 69   : 		UNREFERENCED_PARAMETER(DeviceId);
; 70   : 
; 71   : 		return &m_OutputDeviceContext;

  00010	e59d300c	 ldr         r3, [sp, #0xC]
  00014	e283308c	 add         r3, r3, #0x8C
  00018	e58d3000	 str         r3, [sp]

; 72   :     }

  0001c	e59d0000	 ldr         r0, [sp]
  00020	e28dd004	 add         sp, sp, #4
  00024	e89d6000	 ldmia       sp, {sp, lr}
  00028	e12fff1e	 bx          lr
  0002c		 |$M35642|

			 ENDP  ; |?GetOutputDeviceContext@HardwareContext@@QAAPAVDeviceContext@@I@Z|, HardwareContext::GetOutputDeviceContext

	EXPORT	|??_C@_1EG@HNGKJHAH@?$AAW?$AAA?$AAV?$AA_?$AAI?$AAo?$AAC?$AAo?$AAn?$AAt?$AAr?$AAo?$AAl?$AA?3?$AA?5?$AAu?$AAn?$AAt?$AAr?$AAu?$AAs?$AAt?$AAe?$AAd?$AA?5?$AAp?$AAr?$AAo?$AAc?$AAe?$AAs?$AAs@| [ DATA ] ; `string'
	EXPORT	|WAV_IOControl|
	IMPORT	|?PmControlMessage@HardwareContext@@QAAHKPAEK0KPAK@Z| ; HardwareContext::PmControlMessage
	IMPORT	|?HandleMixerMessage@@YAHPAUMMDRV_MESSAGE_PARAMS@@PAK@Z| ; HandleMixerMessage
	IMPORT	|CeGetCallerTrust|

  00048			 AREA	 |.pdata|, PDATA
|$T35658| DCD	|$LN15@WAV_IOCont|
	DCD	0x40006e04
; File c:\wince600\platform\common\src\soc\common_ti_v1\common_ti\wavedev2\wavemain.cpp

  00000			 AREA	 |.rdata|, DATA, READONLY
|??_C@_1EG@HNGKJHAH@?$AAW?$AAA?$AAV?$AA_?$AAI?$AAo?$AAC?$AAo?$AAn?$AAt?$AAr?$AAo?$AAl?$AA?3?$AA?5?$AAu?$AAn?$AAt?$AAr?$AAu?$AAs?$AAt?$AAe?$AAd?$AA?5?$AAp?$AAr?$AAo?$AAc?$AAe?$AAs?$AAs@| DCB "W"
	DCB	0x0, "A", 0x0, "V", 0x0, "_", 0x0, "I", 0x0, "o", 0x0, "C"
	DCB	0x0, "o", 0x0, "n", 0x0, "t", 0x0, "r", 0x0, "o", 0x0, "l"
	DCB	0x0, ":", 0x0, " ", 0x0, "u", 0x0, "n", 0x0, "t", 0x0, "r"
	DCB	0x0, "u", 0x0, "s", 0x0, "t", 0x0, "e", 0x0, "d", 0x0, " "
	DCB	0x0, "p", 0x0, "r", 0x0, "o", 0x0, "c", 0x0, "e", 0x0, "s"
	DCB	0x0, "s", 0x0, 0xd, 0x0, 0xa, 0x0, 0x0, 0x0 ; `string'
; Function compile flags: /Odtp

  00b90			 AREA	 |.text|, CODE, ARM

  00b90		 |WAV_IOControl| PROC

; 638  : {

  00b90		 |$LN15@WAV_IOCont|
  00b90	e1a0c00d	 mov         r12, sp
  00b94	e92d000f	 stmdb       sp!, {r0 - r3}
  00b98	e92d5000	 stmdb       sp!, {r12, lr}
  00b9c	e24dd034	 sub         sp, sp, #0x34
  00ba0		 |$M35655|

; 639  : 
; 640  :     // check caller trust. if context hasn't been initialized, load from CeGetCallerTrust.
; 641  :     if (*pdwOpenData != OEM_CERTIFY_TRUST) {

  00ba0	e59d303c	 ldr         r3, [sp, #0x3C]
  00ba4	e5933000	 ldr         r3, [r3]
  00ba8	e3530002	 cmp         r3, #2
  00bac	0a000018	 beq         |$LN7@WAV_IOCont|

; 642  :         if (OEM_CERTIFY_TRUST != (*pdwOpenData = CeGetCallerTrust())) {

  00bb0	eb000000	 bl          CeGetCallerTrust
  00bb4	e58d001c	 str         r0, [sp, #0x1C]
  00bb8	e59d201c	 ldr         r2, [sp, #0x1C]
  00bbc	e59d303c	 ldr         r3, [sp, #0x3C]
  00bc0	e5832000	 str         r2, [r3]
  00bc4	e59d303c	 ldr         r3, [sp, #0x3C]
  00bc8	e5933000	 ldr         r3, [r3]
  00bcc	e3530002	 cmp         r3, #2
  00bd0	0a00000f	 beq         |$LN6@WAV_IOCont|

; 643  :             PRINTMSG(ZONE_WARN, (TEXT("WAV_IoControl: untrusted process\r\n")));

  00bd4	e59f3168	 ldr         r3, [pc, #0x168]
  00bd8	e5933440	 ldr         r3, [r3, #0x440]
  00bdc	e3130901	 tst         r3, #1, 18
  00be0	0a000004	 beq         |$LN10@WAV_IOCont|
  00be4	e59f0154	 ldr         r0, [pc, #0x154]
  00be8	eb000000	 bl          NKDbgPrintfW
  00bec	e3a03001	 mov         r3, #1
  00bf0	e58d3020	 str         r3, [sp, #0x20]
  00bf4	ea000001	 b           |$LN11@WAV_IOCont|
  00bf8		 |$LN10@WAV_IOCont|
  00bf8	e3a03000	 mov         r3, #0
  00bfc	e58d3020	 str         r3, [sp, #0x20]
  00c00		 |$LN11@WAV_IOCont|

; 644  :             SetLastError(ERROR_ACCESS_DENIED);

  00c00	e3a00005	 mov         r0, #5
  00c04	eb000000	 bl          SetLastError

; 645  :             return FALSE;

  00c08	e3a03000	 mov         r3, #0
  00c0c	e58d300c	 str         r3, [sp, #0xC]
  00c10	ea000042	 b           |$LN8@WAV_IOCont|
  00c14		 |$LN6@WAV_IOCont|
  00c14		 |$LN7@WAV_IOCont|

; 646  :         }
; 647  :     }
; 648  : 
; 649  :     switch (dwCode)

  00c14	e59d3040	 ldr         r3, [sp, #0x40]
  00c18	e58d3024	 str         r3, [sp, #0x24]
  00c1c	e59d2024	 ldr         r2, [sp, #0x24]
  00c20	e59f3114	 ldr         r3, [pc, #0x114]
  00c24	e1520003	 cmp         r2, r3
  00c28	8a000012	 bhi         |$LN12@WAV_IOCont|
  00c2c	e59d2024	 ldr         r2, [sp, #0x24]
  00c30	e59f3104	 ldr         r3, [pc, #0x104]
  00c34	e1520003	 cmp         r2, r3
  00c38	0a000026	 beq         |$LN1@WAV_IOCont|
  00c3c	e59d2024	 ldr         r2, [sp, #0x24]
  00c40	e3a0381d	 mov         r3, #0x1D, 16
  00c44	e383300c	 orr         r3, r3, #0xC
  00c48	e1520003	 cmp         r2, r3
  00c4c	0a00001a	 beq         |$LN2@WAV_IOCont|
  00c50	e59d2024	 ldr         r2, [sp, #0x24]
  00c54	e3a03832	 mov         r3, #0x32, 16
  00c58	e3833a01	 orr         r3, r3, #1, 20
  00c5c	e1520003	 cmp         r2, r3
  00c60	0a00001c	 beq         |$LN1@WAV_IOCont|
  00c64	e59d2024	 ldr         r2, [sp, #0x24]
  00c68	e59f30c8	 ldr         r3, [pc, #0xC8]
  00c6c	e1520003	 cmp         r2, r3
  00c70	0a000018	 beq         |$LN1@WAV_IOCont|
  00c74	ea000027	 b           |$LN4@WAV_IOCont|
  00c78		 |$LN12@WAV_IOCont|
  00c78	e59d2024	 ldr         r2, [sp, #0x24]
  00c7c	e59f30b0	 ldr         r3, [pc, #0xB0]
  00c80	e1520003	 cmp         r2, r3
  00c84	0a000013	 beq         |$LN1@WAV_IOCont|
  00c88	e59d2024	 ldr         r2, [sp, #0x24]
  00c8c	e3a03102	 mov         r3, #2, 2
  00c90	e3833c01	 orr         r3, r3, #1, 24
  00c94	e1520003	 cmp         r2, r3
  00c98	0a000000	 beq         |$LN3@WAV_IOCont|
  00c9c	ea00001d	 b           |$LN4@WAV_IOCont|
  00ca0		 |$LN3@WAV_IOCont|

; 650  :     {
; 651  :     case IOCTL_MIX_MESSAGE:
; 652  :         return HandleMixerMessage((PMMDRV_MESSAGE_PARAMS)pBufIn, (DWORD *)pBufOut);

  00ca0	e59d104c	 ldr         r1, [sp, #0x4C]
  00ca4	e59d0044	 ldr         r0, [sp, #0x44]
  00ca8	eb000000	 bl          |?HandleMixerMessage@@YAHPAUMMDRV_MESSAGE_PARAMS@@PAK@Z|
  00cac	e58d0028	 str         r0, [sp, #0x28]
  00cb0	e59d3028	 ldr         r3, [sp, #0x28]
  00cb4	e58d300c	 str         r3, [sp, #0xC]
  00cb8	ea000018	 b           |$LN8@WAV_IOCont|
  00cbc		 |$LN2@WAV_IOCont|

; 653  : 
; 654  :     case IOCTL_WAV_MESSAGE:
; 655  :         return HandleWaveMessage((PMMDRV_MESSAGE_PARAMS)pBufIn, (DWORD *)pBufOut);

  00cbc	e59d104c	 ldr         r1, [sp, #0x4C]
  00cc0	e59d0044	 ldr         r0, [sp, #0x44]
  00cc4	eb000000	 bl          |?HandleWaveMessage@@YAHPAUMMDRV_MESSAGE_PARAMS@@PAK@Z|
  00cc8	e58d002c	 str         r0, [sp, #0x2C]
  00ccc	e59d302c	 ldr         r3, [sp, #0x2C]
  00cd0	e58d300c	 str         r3, [sp, #0xC]
  00cd4	ea000011	 b           |$LN8@WAV_IOCont|
  00cd8		 |$LN1@WAV_IOCont|

; 656  : 
; 657  :     // Power management functions.
; 658  :     case IOCTL_POWER_CAPABILITIES:
; 659  :     case IOCTL_POWER_QUERY:
; 660  :     case IOCTL_POWER_SET:
; 661  :     case IOCTL_POWER_GET:
; 662  :         return g_pHWContext->PmControlMessage
; 663  :                             (dwCode, pBufIn, dwLenIn, pBufOut, dwLenOut, pdwActualOut);

  00cd8	e59d3054	 ldr         r3, [sp, #0x54]
  00cdc	e58d3008	 str         r3, [sp, #8]
  00ce0	e59d3050	 ldr         r3, [sp, #0x50]
  00ce4	e58d3004	 str         r3, [sp, #4]
  00ce8	e59d304c	 ldr         r3, [sp, #0x4C]
  00cec	e58d3000	 str         r3, [sp]
  00cf0	e59d3048	 ldr         r3, [sp, #0x48]
  00cf4	e59d2044	 ldr         r2, [sp, #0x44]
  00cf8	e59d1040	 ldr         r1, [sp, #0x40]
  00cfc	e59f002c	 ldr         r0, [pc, #0x2C]
  00d00	e5900000	 ldr         r0, [r0]
  00d04	eb000000	 bl          |?PmControlMessage@HardwareContext@@QAAHKPAEK0KPAK@Z|
  00d08	e58d0030	 str         r0, [sp, #0x30]
  00d0c	e59d3030	 ldr         r3, [sp, #0x30]
  00d10	e58d300c	 str         r3, [sp, #0xC]
  00d14	ea000001	 b           |$LN8@WAV_IOCont|
  00d18		 |$LN4@WAV_IOCont|

; 664  :     }
; 665  : 
; 666  :     return(FALSE);

  00d18	e3a03000	 mov         r3, #0
  00d1c	e58d300c	 str         r3, [sp, #0xC]
  00d20		 |$LN8@WAV_IOCont|

; 667  : }

  00d20	e59d000c	 ldr         r0, [sp, #0xC]
  00d24	e28dd034	 add         sp, sp, #0x34
  00d28	e89d6000	 ldmia       sp, {sp, lr}
  00d2c	e12fff1e	 bx          lr
  00d30		 |$LN16@WAV_IOCont|
  00d30		 |$LN17@WAV_IOCont|
  00d30	00000000	 DCD         |?g_pHWContext@@3PAVHardwareContext@@A|
  00d34		 |$LN18@WAV_IOCont|
  00d34	0032100c	 DCD         0x32100c
  00d38		 |$LN19@WAV_IOCont|
  00d38	00321004	 DCD         0x321004
  00d3c		 |$LN20@WAV_IOCont|
  00d3c	00321008	 DCD         0x321008
  00d40		 |$LN21@WAV_IOCont|
  00d40	00000000	 DCD         |??_C@_1EG@HNGKJHAH@?$AAW?$AAA?$AAV?$AA_?$AAI?$AAo?$AAC?$AAo?$AAn?$AAt?$AAr?$AAo?$AAl?$AA?3?$AA?5?$AAu?$AAn?$AAt?$AAr?$AAu?$AAs?$AAt?$AAe?$AAd?$AA?5?$AAp?$AAr?$AAo?$AAc?$AAe?$AAs?$AAs@|
  00d44		 |$LN22@WAV_IOCont|
  00d44	00000000	 DCD         |dpCurSettings|
  00d48		 |$M35656|

			 ENDP  ; |WAV_IOControl|

	END
