; Listing generated by Microsoft (R) Optimizing Compiler Version 14.01.60511.01 

	TTL	C:\WINCE600\PLATFORM\COMMON\SRC\SOC\COMMON_TI_V1\AM3517\OAL\PRCM\prcm_clock.c
	CODE32

  00000			 AREA	 |.drectve|, DRECTVE
	DCB	"-defaultlib:LIBCMT "
	DCB	"-defaultlib:OLDNAMES "

	EXPORT	|??_C@_1CK@MFCDILAE@?$AAP?$AAM?$AA_?$AAP?$AAR?$AAE?$AAP?$AAW?$AAS?$AAT?$AAS?$AAT?$AA_?$AAU?$AAS?$AAB?$AAH?$AAO?$AAS?$AAT?$AA?$AA@| [ DATA ] ; `string'
	EXPORT	|??_C@_1CE@DINMMLDJ@?$AAP?$AAM?$AA_?$AAP?$AAW?$AAS?$AAT?$AAS?$AAT?$AA_?$AAU?$AAS?$AAB?$AAH?$AAO?$AAS?$AAT?$AA?$AA@| [ DATA ] ; `string'
	EXPORT	|??_C@_1CI@NFFMDMCO@?$AAP?$AAM?$AA_?$AAP?$AAW?$AAS?$AAT?$AAC?$AAT?$AAR?$AAL?$AA_?$AAU?$AAS?$AAB?$AAH?$AAO?$AAS?$AAT?$AA?$AA@| [ DATA ] ; `string'
	EXPORT	|??_C@_1CC@BANAFHHA@?$AAP?$AAM?$AA_?$AAW?$AAK?$AAD?$AAE?$AAP?$AA_?$AAU?$AAS?$AAB?$AAH?$AAO?$AAS?$AAT?$AA?$AA@| [ DATA ] ; `string'
	EXPORT	|??_C@_1CA@CDELFGFE@?$AAP?$AAM?$AA_?$AAW?$AAK?$AAS?$AAT?$AA_?$AAU?$AAS?$AAB?$AAH?$AAO?$AAS?$AAT?$AA?$AA@| [ DATA ] ; `string'
	EXPORT	|??_C@_1CM@CGFHEIFF@?$AAP?$AAM?$AA_?$AAI?$AAV?$AAA?$AA2?$AAG?$AAR?$AAP?$AAS?$AAE?$AAL?$AA_?$AAU?$AAS?$AAB?$AAH?$AAO?$AAS?$AAT?$AA?$AA@| [ DATA ] ; `string'
	EXPORT	|??_C@_1CK@KEHDDHL@?$AAP?$AAM?$AA_?$AAM?$AAP?$AAU?$AAG?$AAR?$AAP?$AAS?$AAE?$AAL?$AA_?$AAU?$AAS?$AAB?$AAH?$AAO?$AAS?$AAT?$AA?$AA@| [ DATA ] ; `string'
	EXPORT	|??_C@_1CA@EPJOENIO@?$AAP?$AAM?$AA_?$AAW?$AAK?$AAE?$AAN?$AA_?$AAU?$AAS?$AAB?$AAH?$AAO?$AAS?$AAT?$AA?$AA@| [ DATA ] ; `string'
	EXPORT	|??_C@_1CC@ELENAOBE@?$AAR?$AAM?$AA_?$AAR?$AAS?$AAT?$AAS?$AAT?$AA_?$AAU?$AAS?$AAB?$AAH?$AAO?$AAS?$AAT?$AA?$AA@| [ DATA ] ; `string'
	EXPORT	|??_C@_1BI@BEADJOPF@?$AAU?$AAS?$AAB?$AAH?$AAO?$AAS?$AAT?$AA_?$AAP?$AAR?$AAM?$AA?$AA@| [ DATA ] ; `string'
	EXPORT	|??_C@_1CE@PAIDKKJJ@?$AAP?$AAM?$AA_?$AAP?$AAR?$AAE?$AAP?$AAW?$AAS?$AAT?$AAS?$AAT?$AA_?$AAN?$AAE?$AAO?$AAN?$AA?$AA@| [ DATA ] ; `string'
	EXPORT	|??_C@_1BO@FMNCDJII@?$AAP?$AAM?$AA_?$AAP?$AAW?$AAS?$AAT?$AAS?$AAT?$AA_?$AAN?$AAE?$AAO?$AAN?$AA?$AA@| [ DATA ] ; `string'
	EXPORT	|??_C@_1CC@LCEDCBK@?$AAP?$AAM?$AA_?$AAP?$AAW?$AAS?$AAT?$AAC?$AAT?$AAR?$AAL?$AA_?$AAN?$AAE?$AAO?$AAN?$AA?$AA@| [ DATA ] ; `string'
	EXPORT	|??_C@_1BM@GLAGIPO@?$AAP?$AAM?$AA_?$AAW?$AAK?$AAD?$AAE?$AAP?$AA_?$AAN?$AAE?$AAO?$AAN?$AA?$AA@| [ DATA ] ; `string'
	EXPORT	|??_C@_1BM@LBPGJMOK@?$AAR?$AAM?$AA_?$AAR?$AAS?$AAT?$AAS?$AAT?$AA_?$AAN?$AAE?$AAO?$AAN?$AA?$AA@| [ DATA ] ; `string'
	EXPORT	|??_C@_1BC@JEBNFJEB@?$AAN?$AAE?$AAO?$AAN?$AA_?$AAP?$AAR?$AAM?$AA?$AA@| [ DATA ] ; `string'
	EXPORT	|??_C@_1BO@OOEJDAGP@?$AAP?$AAR?$AAM?$AA_?$AAV?$AAO?$AAL?$AAT?$AAS?$AAE?$AAT?$AAU?$AAP?$AA2?$AA?$AA@| [ DATA ] ; `string'
	EXPORT	|??_C@_1BI@HHOAEAAO@?$AAP?$AAR?$AAM?$AA_?$AAP?$AAO?$AAL?$AAC?$AAT?$AAR?$AAL?$AA?$AA@| [ DATA ] ; `string'
	EXPORT	|??_C@_1BK@INLANGOK@?$AAP?$AAR?$AAM?$AA_?$AAC?$AAL?$AAK?$AAS?$AAE?$AAT?$AAU?$AAP?$AA?$AA@| [ DATA ] ; `string'
	EXPORT	|??_C@_1BO@HNPCCMHL@?$AAP?$AAR?$AAM?$AA_?$AAV?$AAO?$AAL?$AAT?$AAO?$AAF?$AAF?$AAS?$AAE?$AAT?$AA?$AA@| [ DATA ] ; `string'
	EXPORT	|??_C@_1BO@PMPMJPIB@?$AAP?$AAR?$AAM?$AA_?$AAV?$AAO?$AAL?$AAT?$AAS?$AAE?$AAT?$AAU?$AAP?$AA1?$AA?$AA@| [ DATA ] ; `string'
	EXPORT	|??_C@_1BA@JADOMDEP@?$AAP?$AAR?$AAM?$AA_?$AAO?$AAB?$AAS?$AA?$AA@| [ DATA ] ; `string'
	EXPORT	|??_C@_1CA@DKBCEFNM@?$AAP?$AAR?$AAM?$AA_?$AAC?$AAL?$AAK?$AAS?$AAR?$AAC?$AA_?$AAC?$AAT?$AAR?$AAL?$AA?$AA@| [ DATA ] ; `string'
	EXPORT	|??_C@_1CC@PEAEBONP@?$AAP?$AAR?$AAM?$AA_?$AAS?$AAR?$AAA?$AAM?$AA_?$AAP?$AAC?$AAH?$AAA?$AAR?$AAG?$AAE?$AA?$AA@| [ DATA ] ; `string'
	EXPORT	|??_C@_1BK@HFKALEHA@?$AAP?$AAR?$AAM?$AA_?$AAV?$AAO?$AAL?$AAT?$AAC?$AAT?$AAR?$AAL?$AA?$AA@| [ DATA ] ; `string'
	EXPORT	|??_C@_1BE@HPDPAFDK@?$AAP?$AAR?$AAM?$AA_?$AAR?$AAS?$AAT?$AAS?$AAT?$AA?$AA@| [ DATA ] ; `string'
	EXPORT	|??_C@_1BI@BLFHBCIB@?$AAP?$AAR?$AAM?$AA_?$AAR?$AAS?$AAT?$AAT?$AAI?$AAM?$AAE?$AA?$AA@| [ DATA ] ; `string'
	EXPORT	|??_C@_1BI@LGBDFDCO@?$AAP?$AAR?$AAM?$AA_?$AAR?$AAS?$AAT?$AAC?$AAT?$AAR?$AAL?$AA?$AA@| [ DATA ] ; `string'
	EXPORT	|??_C@_1CE@LCNFDOGA@?$AAP?$AAR?$AAM?$AA_?$AAV?$AAC?$AA_?$AAB?$AAY?$AAP?$AAA?$AAS?$AAS?$AA_?$AAV?$AAA?$AAL?$AA?$AA@| [ DATA ] ; `string'
	EXPORT	|??_C@_1BO@CDICEJPF@?$AAP?$AAR?$AAM?$AA_?$AAV?$AAC?$AA_?$AAI?$AA2?$AAC?$AA_?$AAC?$AAF?$AAG?$AA?$AA@| [ DATA ] ; `string'
	EXPORT	|??_C@_1BO@NIKJKLFL@?$AAP?$AAR?$AAM?$AA_?$AAV?$AAC?$AA_?$AAC?$AAH?$AA_?$AAC?$AAO?$AAN?$AAF?$AA?$AA@| [ DATA ] ; `string'
	EXPORT	|??_C@_1CC@GOJIALCP@?$AAP?$AAR?$AAM?$AA_?$AAV?$AAC?$AA_?$AAC?$AAM?$AAD?$AA_?$AAV?$AAA?$AAL?$AA_?$AA1?$AA?$AA@| [ DATA ] ; `string'
	EXPORT	|??_C@_1CC@NGCEGMEK@?$AAP?$AAR?$AAM?$AA_?$AAV?$AAC?$AA_?$AAC?$AAM?$AAD?$AA_?$AAV?$AAA?$AAL?$AA_?$AA0?$AA?$AA@| [ DATA ] ; `string'
	EXPORT	|??_C@_1CG@PFFOICKB@?$AAP?$AAR?$AAM?$AA_?$AAV?$AAC?$AA_?$AAS?$AAM?$AAP?$AAS?$AA_?$AAC?$AAM?$AAD?$AA_?$AAR?$AAA?$AA?$AA@| [ DATA ] ; `string'
	EXPORT	|??_C@_1CG@OIKDAOML@?$AAP?$AAR?$AAM?$AA_?$AAV?$AAC?$AA_?$AAS?$AAM?$AAP?$AAS?$AA_?$AAV?$AAO?$AAL?$AA_?$AAR?$AAA?$AA?$AA@| [ DATA ] ; `string'
	EXPORT	|??_C@_1BO@LBDDPNOG@?$AAP?$AAR?$AAM?$AA_?$AAV?$AAC?$AA_?$AAS?$AAM?$AAP?$AAS?$AA_?$AAS?$AAA?$AA?$AA@| [ DATA ] ; `string'
	EXPORT	|??_C@_1BO@CAKCDBHG@?$AAG?$AAl?$AAo?$AAb?$AAa?$AAl?$AA_?$AAR?$AAe?$AAg?$AA_?$AAP?$AAR?$AAM?$AA?$AA@| [ DATA ] ; `string'
	EXPORT	|??_C@_1BM@NIBECDJF@?$AAP?$AAM?$AA_?$AAP?$AAW?$AAS?$AAT?$AAS?$AAT?$AA_?$AAE?$AAM?$AAU?$AA?$AA@| [ DATA ] ; `string'
	EXPORT	|??_C@_1BK@PHFAAKFB@?$AAR?$AAM?$AA_?$AAR?$AAS?$AAT?$AAS?$AAT?$AA_?$AAE?$AAM?$AAU?$AA?$AA@| [ DATA ] ; `string'
	EXPORT	|??_C@_1BA@CAPJDCOP@?$AAE?$AAM?$AAU?$AA_?$AAP?$AAR?$AAM?$AA?$AA@| [ DATA ] ; `string'
	EXPORT	|??_C@_1CC@EPBJKNIO@?$AAP?$AAM?$AA_?$AAP?$AAR?$AAE?$AAP?$AAW?$AAS?$AAT?$AAS?$AAT?$AA_?$AAP?$AAE?$AAR?$AA?$AA@| [ DATA ] ; `string'
	EXPORT	|??_C@_1BM@JNMLKGAO@?$AAP?$AAM?$AA_?$AAP?$AAW?$AAS?$AAT?$AAS?$AAT?$AA_?$AAP?$AAE?$AAR?$AA?$AA@| [ DATA ] ; `string'
	EXPORT	|??_C@_1CA@EHOJHBAJ@?$AAP?$AAM?$AA_?$AAP?$AAW?$AAS?$AAT?$AAC?$AAT?$AAR?$AAL?$AA_?$AAP?$AAE?$AAR?$AA?$AA@| [ DATA ] ; `string'
	EXPORT	|??_C@_1BK@MOOMJEJF@?$AAP?$AAM?$AA_?$AAW?$AAK?$AAD?$AAE?$AAP?$AA_?$AAP?$AAE?$AAR?$AA?$AA@| [ DATA ] ; `string'
	EXPORT	|??_C@_1BI@NCLGDPNJ@?$AAP?$AAM?$AA_?$AAW?$AAK?$AAS?$AAT?$AA_?$AAP?$AAE?$AAR?$AA?$AA@| [ DATA ] ; `string'
	EXPORT	|??_C@_1CE@KJGLJLDH@?$AAP?$AAM?$AA_?$AAI?$AAV?$AAA?$AA2?$AAG?$AAR?$AAP?$AAS?$AAE?$AAL?$AA_?$AAP?$AAE?$AAR?$AA?$AA@| [ DATA ] ; `string'
	EXPORT	|??_C@_1CC@FABFMEFM@?$AAP?$AAM?$AA_?$AAM?$AAP?$AAU?$AAG?$AAR?$AAP?$AAS?$AAE?$AAL?$AA_?$AAP?$AAE?$AAR?$AA?$AA@| [ DATA ] ; `string'
	EXPORT	|??_C@_1BI@KKOJENJO@?$AAP?$AAM?$AA_?$AAW?$AAK?$AAE?$AAN?$AA_?$AAP?$AAE?$AAR?$AA?$AA@| [ DATA ] ; `string'
	EXPORT	|??_C@_1BK@LCIPIPMK@?$AAR?$AAM?$AA_?$AAR?$AAS?$AAT?$AAS?$AAT?$AA_?$AAP?$AAE?$AAR?$AA?$AA@| [ DATA ] ; `string'
	EXPORT	|??_C@_1BA@PLEGCGNO@?$AAP?$AAE?$AAR?$AA_?$AAP?$AAR?$AAM?$AA?$AA@| [ DATA ] ; `string'
	EXPORT	|??_C@_1CC@COMGJOJJ@?$AAP?$AAM?$AA_?$AAP?$AAR?$AAE?$AAP?$AAW?$AAS?$AAT?$AAS?$AAT?$AA_?$AAC?$AAA?$AAM?$AA?$AA@| [ DATA ] ; `string'
	EXPORT	|??_C@_1BM@PMBEJFBJ@?$AAP?$AAM?$AA_?$AAP?$AAW?$AAS?$AAT?$AAS?$AAT?$AA_?$AAC?$AAA?$AAM?$AA?$AA@| [ DATA ] ; `string'
	EXPORT	|??_C@_1CA@CGDGECBO@?$AAP?$AAM?$AA_?$AAP?$AAW?$AAS?$AAT?$AAC?$AAT?$AAR?$AAL?$AA_?$AAC?$AAA?$AAM?$AA?$AA@| [ DATA ] ; `string'
	EXPORT	|??_C@_1BK@KPDDKHIC@?$AAP?$AAM?$AA_?$AAW?$AAK?$AAD?$AAE?$AAP?$AA_?$AAC?$AAA?$AAM?$AA?$AA@| [ DATA ] ; `string'
	EXPORT	|??_C@_1BK@NDFALMNN@?$AAR?$AAM?$AA_?$AAR?$AAS?$AAT?$AAS?$AAT?$AA_?$AAC?$AAA?$AAM?$AA?$AA@| [ DATA ] ; `string'
	EXPORT	|??_C@_1BA@FDIJFBCE@?$AAC?$AAA?$AAM?$AA_?$AAP?$AAR?$AAM?$AA?$AA@| [ DATA ] ; `string'
	EXPORT	|??_C@_1CC@NKNLBELM@?$AAP?$AAM?$AA_?$AAP?$AAR?$AAE?$AAP?$AAW?$AAS?$AAT?$AAS?$AAT?$AA_?$AAD?$AAS?$AAS?$AA?$AA@| [ DATA ] ; `string'
	EXPORT	|??_C@_1BM@IAJBPDM@?$AAP?$AAM?$AA_?$AAP?$AAW?$AAS?$AAT?$AAS?$AAT?$AA_?$AAD?$AAS?$AAS?$AA?$AA@| [ DATA ] ; `string'
	EXPORT	|??_C@_1CA@NCCLMIDL@?$AAP?$AAM?$AA_?$AAP?$AAW?$AAS?$AAT?$AAC?$AAT?$AAR?$AAL?$AA_?$AAD?$AAS?$AAS?$AA?$AA@| [ DATA ] ; `string'
	EXPORT	|??_C@_1BK@FLCOCNKH@?$AAP?$AAM?$AA_?$AAW?$AAK?$AAD?$AAE?$AAP?$AA_?$AAD?$AAS?$AAS?$AA?$AA@| [ DATA ] ; `string'
	EXPORT	|??_C@_1BI@DPCLPEKM@?$AAP?$AAM?$AA_?$AAW?$AAK?$AAE?$AAN?$AA_?$AAD?$AAS?$AAS?$AA?$AA@| [ DATA ] ; `string'
	EXPORT	|??_C@_1BK@CHENDGPI@?$AAR?$AAM?$AA_?$AAR?$AAS?$AAT?$AAS?$AAT?$AA_?$AAD?$AAS?$AAS?$AA?$AA@| [ DATA ] ; `string'
	EXPORT	|??_C@_1BA@MMIFGPHC@?$AAD?$AAS?$AAS?$AA_?$AAP?$AAR?$AAM?$AA?$AA@| [ DATA ] ; `string'
	EXPORT	|??_C@_1CA@PGMOAOBH@?$AAP?$AAR?$AAM?$AA_?$AAC?$AAL?$AAK?$AAO?$AAU?$AAT?$AA_?$AAC?$AAT?$AAR?$AAL?$AA?$AA@| [ DATA ] ; `string'
	EXPORT	|??_C@_1BG@BPBPBGIA@?$AAP?$AAR?$AAM?$AA_?$AAC?$AAL?$AAK?$AAS?$AAE?$AAL?$AA?$AA@| [ DATA ] ; `string'
	EXPORT	|??_C@_1CM@BOLGGOBJ@?$AAC?$AAl?$AAo?$AAc?$AAk?$AA_?$AAC?$AAo?$AAn?$AAt?$AAr?$AAo?$AAl?$AA_?$AAR?$AAe?$AAg?$AA_?$AAP?$AAR?$AAM?$AA?$AA@| [ DATA ] ; `string'
	EXPORT	|??_C@_1BK@MHMCLHIM@?$AAP?$AAM?$AA_?$AAW?$AAK?$AAS?$AAT?$AA_?$AAW?$AAK?$AAU?$AAP?$AA?$AA@| [ DATA ] ; `string'
	EXPORT	|??_C@_1CG@NGIEHFMC@?$AAP?$AAM?$AA_?$AAI?$AAV?$AAA?$AA2?$AAG?$AAR?$AAP?$AAS?$AAE?$AAL?$AA_?$AAW?$AAK?$AAU?$AAP?$AA?$AA@| [ DATA ] ; `string'
	EXPORT	|??_C@_1CE@KLFJHCLF@?$AAP?$AAM?$AA_?$AAM?$AAP?$AAU?$AAG?$AAR?$AAP?$AAS?$AAE?$AAL?$AA_?$AAW?$AAK?$AAU?$AAP?$AA?$AA@| [ DATA ] ; `string'
	EXPORT	|??_C@_1BK@MGPBAGAB@?$AAP?$AAM?$AA_?$AAW?$AAK?$AAE?$AAN?$AA_?$AAW?$AAK?$AAU?$AAP?$AA?$AA@| [ DATA ] ; `string'
	EXPORT	|??_C@_1BC@DDJDDDAK@?$AAW?$AAK?$AAU?$AAP?$AA_?$AAP?$AAR?$AAM?$AA?$AA@| [ DATA ] ; `string'
	EXPORT	|??_C@_1CC@ODODOLAC@?$AAP?$AAM?$AA_?$AAP?$AAR?$AAE?$AAP?$AAW?$AAS?$AAT?$AAS?$AAT?$AA_?$AAS?$AAG?$AAX?$AA?$AA@| [ DATA ] ; `string'
	EXPORT	|??_C@_1BM@DBDBOAIC@?$AAP?$AAM?$AA_?$AAP?$AAW?$AAS?$AAT?$AAS?$AAT?$AA_?$AAS?$AAG?$AAX?$AA?$AA@| [ DATA ] ; `string'
	EXPORT	|??_C@_1CA@OLBDDHIF@?$AAP?$AAM?$AA_?$AAP?$AAW?$AAS?$AAT?$AAC?$AAT?$AAR?$AAL?$AA_?$AAS?$AAG?$AAX?$AA?$AA@| [ DATA ] ; `string'
	EXPORT	|??_C@_1BK@GCBGNCBJ@?$AAP?$AAM?$AA_?$AAW?$AAK?$AAD?$AAE?$AAP?$AA_?$AAS?$AAG?$AAX?$AA?$AA@| [ DATA ] ; `string'
	EXPORT	|??_C@_1BK@BOHFMJEG@?$AAR?$AAM?$AA_?$AAR?$AAS?$AAT?$AAS?$AAT?$AA_?$AAS?$AAG?$AAX?$AA?$AA@| [ DATA ] ; `string'
	EXPORT	|??_C@_1BA@NJNHLOOA@?$AAS?$AAG?$AAX?$AA_?$AAP?$AAR?$AAM?$AA?$AA@| [ DATA ] ; `string'
	EXPORT	|??_C@_1CG@JIDDONFN@?$AAP?$AAM?$AA_?$AAM?$AAP?$AAU?$AAG?$AAR?$AAP?$AAS?$AAE?$AAL?$AA3?$AA_?$AAC?$AAO?$AAR?$AAE?$AA?$AA@| [ DATA ] ; `string'
	EXPORT	|??_C@_1CI@GGCJOKBC@?$AAP?$AAM?$AA_?$AAI?$AAV?$AAA?$AA2?$AAG?$AAR?$AAP?$AAS?$AAE?$AAL?$AA3?$AA_?$AAC?$AAO?$AAR?$AAE?$AA?$AA@| [ DATA ] ; `string'
	EXPORT	|??_C@_1BM@EPPCFOGM@?$AAP?$AAM?$AA_?$AAW?$AAK?$AAE?$AAN?$AA3?$AA_?$AAC?$AAO?$AAR?$AAE?$AA?$AA@| [ DATA ] ; `string'
	EXPORT	|??_C@_1CE@PMPEKLKF@?$AAP?$AAM?$AA_?$AAP?$AAR?$AAE?$AAP?$AAW?$AAS?$AAT?$AAS?$AAT?$AA_?$AAC?$AAO?$AAR?$AAE?$AA?$AA@| [ DATA ] ; `string'
	EXPORT	|??_C@_1BO@FAKFDILE@?$AAP?$AAM?$AA_?$AAP?$AAW?$AAS?$AAT?$AAS?$AAT?$AA_?$AAC?$AAO?$AAR?$AAE?$AA?$AA@| [ DATA ] ; `string'
	EXPORT	|??_C@_1CC@HFDDDCG@?$AAP?$AAM?$AA_?$AAP?$AAW?$AAS?$AAT?$AAC?$AAT?$AAR?$AAL?$AA_?$AAC?$AAO?$AAR?$AAE?$AA?$AA@| [ DATA ] ; `string'
	EXPORT	|??_C@_1BM@HNLJDKED@?$AAP?$AAM?$AA_?$AAW?$AAK?$AAS?$AAT?$AA3?$AA_?$AAC?$AAO?$AAR?$AAE?$AA?$AA@| [ DATA ] ; `string'
	EXPORT	|??_C@_1BM@JMNHPOOO@?$AAP?$AAM?$AA_?$AAW?$AAK?$AAS?$AAT?$AA1?$AA_?$AAC?$AAO?$AAR?$AAE?$AA?$AA@| [ DATA ] ; `string'
	EXPORT	|??_C@_1CI@IHEHCOLP@?$AAP?$AAM?$AA_?$AAI?$AAV?$AAA?$AA2?$AAG?$AAR?$AAP?$AAS?$AAE?$AAL?$AA1?$AA_?$AAC?$AAO?$AAR?$AAE?$AA?$AA@| [ DATA ] ; `string'
	EXPORT	|??_C@_1CG@HJFNCJPA@?$AAP?$AAM?$AA_?$AAM?$AAP?$AAU?$AAG?$AAR?$AAP?$AAS?$AAE?$AAL?$AA1?$AA_?$AAC?$AAO?$AAR?$AAE?$AA?$AA@| [ DATA ] ; `string'
	EXPORT	|??_C@_1BM@KOJMJKMB@?$AAP?$AAM?$AA_?$AAW?$AAK?$AAE?$AAN?$AA1?$AA_?$AAC?$AAO?$AAR?$AAE?$AA?$AA@| [ DATA ] ; `string'
	EXPORT	|??_C@_1BM@LNIBJNNG@?$AAR?$AAM?$AA_?$AAR?$AAS?$AAT?$AAS?$AAT?$AA_?$AAC?$AAO?$AAR?$AAE?$AA?$AA@| [ DATA ] ; `string'
	EXPORT	|??_C@_1BC@DDNPMELP@?$AAC?$AAO?$AAR?$AAE?$AA_?$AAP?$AAR?$AAM?$AA?$AA@| [ DATA ] ; `string'
	EXPORT	|??_C@_1CC@GGGLCCOF@?$AAP?$AAM?$AA_?$AAP?$AAR?$AAE?$AAP?$AAW?$AAS?$AAT?$AAS?$AAT?$AA_?$AAM?$AAP?$AAU?$AA?$AA@| [ DATA ] ; `string'
	EXPORT	|??_C@_1BM@LELJCJGF@?$AAP?$AAM?$AA_?$AAP?$AAW?$AAS?$AAT?$AAS?$AAT?$AA_?$AAM?$AAP?$AAU?$AA?$AA@| [ DATA ] ; `string'
	EXPORT	|??_C@_1CA@GOJLPOGC@?$AAP?$AAM?$AA_?$AAP?$AAW?$AAS?$AAT?$AAC?$AAT?$AAR?$AAL?$AA_?$AAM?$AAP?$AAU?$AA?$AA@| [ DATA ] ; `string'
	EXPORT	|??_C@_1CG@EAPFPBNK@?$AAP?$AAM?$AA_?$AAE?$AAV?$AAG?$AAE?$AAN?$AAO?$AAF?$AAF?$AAT?$AAI?$AAM?$AA_?$AAM?$AAP?$AAU?$AA?$AA@| [ DATA ] ; `string'
	EXPORT	|??_C@_1CE@GDJAJDKH@?$AAP?$AAM?$AA_?$AAE?$AAV?$AAG?$AAE?$AAN?$AAO?$AAN?$AAT?$AAI?$AAM?$AA_?$AAM?$AAP?$AAU?$AA?$AA@| [ DATA ] ; `string'
	EXPORT	|??_C@_1CC@MKEFHNLB@?$AAP?$AAM?$AA_?$AAE?$AAV?$AAG?$AAE?$AAN?$AAC?$AAT?$AAR?$AAL?$AA_?$AAM?$AAP?$AAU?$AA?$AA@| [ DATA ] ; `string'
	EXPORT	|??_C@_1BK@OHJOBLPO@?$AAP?$AAM?$AA_?$AAW?$AAK?$AAD?$AAE?$AAP?$AA_?$AAM?$AAP?$AAU?$AA?$AA@| [ DATA ] ; `string'
	EXPORT	|??_C@_1BK@JLPNAAKB@?$AAR?$AAM?$AA_?$AAR?$AAS?$AAT?$AAS?$AAT?$AA_?$AAM?$AAP?$AAU?$AA?$AA@| [ DATA ] ; `string'
	EXPORT	|??_C@_1BA@ICKCOBJH@?$AAM?$AAP?$AAU?$AA_?$AAP?$AAR?$AAM?$AA?$AA@| [ DATA ] ; `string'
	EXPORT	|??_C@_1CE@BEHICOCH@?$AAP?$AAR?$AAM?$AA_?$AAI?$AAR?$AAQ?$AAE?$AAN?$AAA?$AAB?$AAL?$AAE?$AA_?$AAM?$AAP?$AAU?$AA?$AA@| [ DATA ] ; `string'
	EXPORT	|??_C@_1CE@OGNKOJLH@?$AAP?$AAR?$AAM?$AA_?$AAI?$AAR?$AAQ?$AAS?$AAT?$AAA?$AAT?$AAU?$AAS?$AA_?$AAM?$AAP?$AAU?$AA?$AA@| [ DATA ] ; `string'
	EXPORT	|??_C@_1BM@BIKNBGAP@?$AAP?$AAR?$AAM?$AA_?$AAS?$AAY?$AAS?$AAC?$AAO?$AAN?$AAF?$AAI?$AAG?$AA?$AA@| [ DATA ] ; `string'
	EXPORT	|??_C@_1BK@HJNIKPGD@?$AAP?$AAR?$AAM?$AA_?$AAR?$AAE?$AAV?$AAI?$AAS?$AAI?$AAO?$AAN?$AA?$AA@| [ DATA ] ; `string'
	EXPORT	|??_C@_1CG@MLMHCLLI@?$AAO?$AAC?$AAP?$AA_?$AAS?$AAy?$AAs?$AAt?$AAe?$AAm?$AA_?$AAR?$AAe?$AAg?$AA_?$AAP?$AAR?$AAM?$AA?$AA@| [ DATA ] ; `string'
	EXPORT	|??_C@_1CG@LPCHCII@?$AAP?$AAR?$AAM?$AA_?$AAI?$AAR?$AAQ?$AAE?$AAN?$AAA?$AAB?$AAL?$AAE?$AA_?$AAI?$AAV?$AAA?$AA2?$AA?$AA@| [ DATA ] ; `string'
	EXPORT	|??_C@_1CG@HPLDFNCD@?$AAP?$AAR?$AAM?$AA_?$AAI?$AAR?$AAQ?$AAS?$AAT?$AAA?$AAT?$AAU?$AAS?$AA_?$AAI?$AAV?$AAA?$AA2?$AA?$AA@| [ DATA ] ; `string'
	EXPORT	|??_C@_1CE@PLIIPJHM@?$AAP?$AAM?$AA_?$AAP?$AAR?$AAE?$AAP?$AAW?$AAS?$AAT?$AAS?$AAT?$AA_?$AAI?$AAV?$AAA?$AA2?$AA?$AA@| [ DATA ] ; `string'
	EXPORT	|??_C@_1BO@FHNJGKGN@?$AAP?$AAM?$AA_?$AAP?$AAW?$AAS?$AAT?$AAS?$AAT?$AA_?$AAI?$AAV?$AAA?$AA2?$AA?$AA@| [ DATA ] ; `string'
	EXPORT	|??_C@_1CC@CPGBPP@?$AAP?$AAM?$AA_?$AAP?$AAW?$AAS?$AAT?$AAC?$AAT?$AAR?$AAL?$AA_?$AAI?$AAV?$AAA?$AA2?$AA?$AA@| [ DATA ] ; `string'
	EXPORT	|??_C@_1BM@NLLDLBL@?$AAP?$AAM?$AA_?$AAW?$AAK?$AAD?$AAE?$AAP?$AA_?$AAI?$AAV?$AAA?$AA2?$AA?$AA@| [ DATA ] ; `string'
	EXPORT	|??_C@_1BM@LKPNMPAP@?$AAR?$AAM?$AA_?$AAR?$AAS?$AAT?$AAS?$AAT?$AA_?$AAI?$AAV?$AAA?$AA2?$AA?$AA@| [ DATA ] ; `string'
	EXPORT	|??_C@_1CA@GBOALOJP@?$AAR?$AAM?$AA_?$AAR?$AAS?$AAT?$AAC?$AAT?$AAR?$AAL?$AA_?$AAI?$AAV?$AAA?$AA2?$AA?$AA@| [ DATA ] ; `string'
	EXPORT	|??_C@_1BC@FAAHEALM@?$AAI?$AAV?$AAA?$AA2?$AA_?$AAP?$AAR?$AAM?$AA?$AA@| [ DATA ] ; `string'
	EXPORT	|??_C@_1CG@EKKJOCAI@?$AAC?$AAM?$AA_?$AAC?$AAL?$AAK?$AAS?$AAT?$AAS?$AAT?$AA_?$AAU?$AAS?$AAB?$AAH?$AAO?$AAS?$AAT?$AA?$AA@| [ DATA ] ; `string'
	EXPORT	|??_C@_1CK@EGBEEDCG@?$AAC?$AAM?$AA_?$AAC?$AAL?$AAK?$AAS?$AAT?$AAC?$AAT?$AAR?$AAL?$AA_?$AAU?$AAS?$AAB?$AAH?$AAO?$AAS?$AAT?$AA?$AA@| [ DATA ] ; `string'
	EXPORT	|??_C@_1CI@GKCHFPIN@?$AAC?$AAM?$AA_?$AAS?$AAL?$AAE?$AAE?$AAP?$AAD?$AAE?$AAP?$AA_?$AAU?$AAS?$AAB?$AAH?$AAO?$AAS?$AAT?$AA?$AA@| [ DATA ] ; `string'
	EXPORT	|??_C@_1CI@DGALJPCE@?$AAC?$AAM?$AA_?$AAA?$AAU?$AAT?$AAO?$AAI?$AAD?$AAL?$AAE?$AA_?$AAU?$AAS?$AAB?$AAH?$AAO?$AAS?$AAT?$AA?$AA@| [ DATA ] ; `string'
	EXPORT	|??_C@_1CE@JPANCJP@?$AAC?$AAM?$AA_?$AAI?$AAD?$AAL?$AAE?$AAS?$AAT?$AA_?$AAU?$AAS?$AAB?$AAH?$AAO?$AAS?$AAT?$AA?$AA@| [ DATA ] ; `string'
	EXPORT	|??_C@_1CE@DBMFEPI@?$AAC?$AAM?$AA_?$AAI?$AAC?$AAL?$AAK?$AAE?$AAN?$AA_?$AAU?$AAS?$AAB?$AAH?$AAO?$AAS?$AAT?$AA?$AA@| [ DATA ] ; `string'
	EXPORT	|??_C@_1CE@IOEIODMB@?$AAC?$AAM?$AA_?$AAF?$AAC?$AAL?$AAK?$AAE?$AAN?$AA_?$AAU?$AAS?$AAB?$AAH?$AAO?$AAS?$AAT?$AA?$AA@| [ DATA ] ; `string'
	EXPORT	|??_C@_1BG@GHMGBAHH@?$AAU?$AAS?$AAB?$AAH?$AAO?$AAS?$AAT?$AA_?$AAC?$AAM?$AA?$AA@| [ DATA ] ; `string'
	EXPORT	|??_C@_1CE@ECPHHBNM@?$AAC?$AAM?$AA_?$AAC?$AAL?$AAK?$AAS?$AAT?$AAC?$AAT?$AAR?$AAL?$AA_?$AAN?$AAE?$AAO?$AAN?$AA?$AA@| [ DATA ] ; `string'
	EXPORT	|??_C@_1BO@IJPLNAMK@?$AAC?$AAM?$AA_?$AAI?$AAD?$AAL?$AAE?$AAS?$AAT?$AA_?$AAN?$AAE?$AAO?$AAN?$AA?$AA@| [ DATA ] ; `string'
	EXPORT	|??_C@_1BA@HGJCCLLN@?$AAN?$AAE?$AAO?$AAN?$AA_?$AAC?$AAM?$AA?$AA@| [ DATA ] ; `string'
	EXPORT	|??_C@_1BG@JLGAJAMH@?$AAC?$AAM?$AA_?$AAP?$AAO?$AAL?$AAC?$AAT?$AAR?$AAL?$AA?$AA@| [ DATA ] ; `string'
	EXPORT	|??_C@_1BM@KLCMOAEB@?$AAG?$AAl?$AAo?$AAb?$AAa?$AAl?$AA_?$AAR?$AAe?$AAg?$AA_?$AAC?$AAM?$AA?$AA@| [ DATA ] ; `string'
	EXPORT	|??_C@_1BO@DFKMIPJP@?$AAC?$AAM?$AA_?$AAC?$AAL?$AAK?$AAS?$AAE?$AAL?$AA3?$AA_?$AAE?$AAM?$AAU?$AA?$AA@| [ DATA ] ; `string'
	EXPORT	|??_C@_1BO@KOAJMDPA@?$AAC?$AAM?$AA_?$AAC?$AAL?$AAK?$AAS?$AAE?$AAL?$AA2?$AA_?$AAE?$AAM?$AAU?$AA?$AA@| [ DATA ] ; `string'
	EXPORT	|??_C@_1BO@BBAPCNIN@?$AAC?$AAM?$AA_?$AAC?$AAL?$AAK?$AAS?$AAT?$AAS?$AAT?$AA_?$AAE?$AAM?$AAU?$AA?$AA@| [ DATA ] ; `string'
	EXPORT	|??_C@_1CC@NGILBHGG@?$AAC?$AAM?$AA_?$AAC?$AAL?$AAK?$AAS?$AAT?$AAC?$AAT?$AAR?$AAL?$AA_?$AAE?$AAM?$AAU?$AA?$AA@| [ DATA ] ; `string'
	EXPORT	|??_C@_1BO@NJJHBBAA@?$AAC?$AAM?$AA_?$AAC?$AAL?$AAK?$AAS?$AAE?$AAL?$AA1?$AA_?$AAE?$AAM?$AAU?$AA?$AA@| [ DATA ] ; `string'
	EXPORT	|??_C@_1O@HGBLPNPO@?$AAE?$AAM?$AAU?$AA_?$AAC?$AAM?$AA?$AA@| [ DATA ] ; `string'
	EXPORT	|??_C@_1BO@FENAKIBG@?$AAC?$AAM?$AA_?$AAC?$AAL?$AAK?$AAS?$AAT?$AAS?$AAT?$AA_?$AAP?$AAE?$AAR?$AA?$AA@| [ DATA ] ; `string'
	EXPORT	|??_C@_1CC@JDFEJCPN@?$AAC?$AAM?$AA_?$AAC?$AAL?$AAK?$AAS?$AAT?$AAC?$AAT?$AAR?$AAL?$AA_?$AAP?$AAE?$AAR?$AA?$AA@| [ DATA ] ; `string'
	EXPORT	|??_C@_1CA@OCEIBJJL@?$AAC?$AAM?$AA_?$AAS?$AAL?$AAE?$AAE?$AAP?$AAD?$AAE?$AAP?$AA_?$AAP?$AAE?$AAR?$AA?$AA@| [ DATA ] ; `string'
	EXPORT	|??_C@_1BM@JGBOEBBM@?$AAC?$AAM?$AA_?$AAC?$AAL?$AAK?$AAS?$AAE?$AAL?$AA_?$AAP?$AAE?$AAR?$AA?$AA@| [ DATA ] ; `string'
	EXPORT	|??_C@_1CA@HEJEIAMO@?$AAC?$AAM?$AA_?$AAA?$AAU?$AAT?$AAO?$AAI?$AAD?$AAL?$AAE?$AA_?$AAP?$AAE?$AAR?$AA?$AA@| [ DATA ] ; `string'
	EXPORT	|??_C@_1BM@FMCKMJOI@?$AAC?$AAM?$AA_?$AAI?$AAD?$AAL?$AAE?$AAS?$AAT?$AA_?$AAP?$AAE?$AAR?$AA?$AA@| [ DATA ] ; `string'
	EXPORT	|??_C@_1BM@OFLDOLJH@?$AAC?$AAM?$AA_?$AAI?$AAC?$AAL?$AAK?$AAE?$AAN?$AA_?$AAP?$AAE?$AAR?$AA?$AA@| [ DATA ] ; `string'
	EXPORT	|??_C@_1BM@DJCJPDNH@?$AAC?$AAM?$AA_?$AAF?$AAC?$AAL?$AAK?$AAE?$AAN?$AA_?$AAP?$AAE?$AAR?$AA?$AA@| [ DATA ] ; `string'
	EXPORT	|??_C@_1O@HANKMCHI@?$AAP?$AAE?$AAR?$AA_?$AAC?$AAM?$AA?$AA@| [ DATA ] ; `string'
	EXPORT	|??_C@_1BO@DFAPJLAB@?$AAC?$AAM?$AA_?$AAC?$AAL?$AAK?$AAS?$AAT?$AAS?$AAT?$AA_?$AAC?$AAA?$AAM?$AA?$AA@| [ DATA ] ; `string'
	EXPORT	|??_C@_1CC@PCILKBOK@?$AAC?$AAM?$AA_?$AAC?$AAL?$AAK?$AAS?$AAT?$AAC?$AAT?$AAR?$AAL?$AA_?$AAC?$AAA?$AAM?$AA?$AA@| [ DATA ] ; `string'
	EXPORT	|??_C@_1CA@IDJHCKIM@?$AAC?$AAM?$AA_?$AAS?$AAL?$AAE?$AAE?$AAP?$AAD?$AAE?$AAP?$AA_?$AAC?$AAA?$AAM?$AA?$AA@| [ DATA ] ; `string'
	EXPORT	|??_C@_1BM@PHMBHCAL@?$AAC?$AAM?$AA_?$AAC?$AAL?$AAK?$AAS?$AAE?$AAL?$AA_?$AAC?$AAA?$AAM?$AA?$AA@| [ DATA ] ; `string'
	EXPORT	|??_C@_1CA@BFELLDNJ@?$AAC?$AAM?$AA_?$AAA?$AAU?$AAT?$AAO?$AAI?$AAD?$AAL?$AAE?$AA_?$AAC?$AAA?$AAM?$AA?$AA@| [ DATA ] ; `string'
	EXPORT	|??_C@_1BM@DNPFPKPP@?$AAC?$AAM?$AA_?$AAI?$AAD?$AAL?$AAE?$AAS?$AAT?$AA_?$AAC?$AAA?$AAM?$AA?$AA@| [ DATA ] ; `string'
	EXPORT	|??_C@_1BM@IEGMNIIA@?$AAC?$AAM?$AA_?$AAI?$AAC?$AAL?$AAK?$AAE?$AAN?$AA_?$AAC?$AAA?$AAM?$AA?$AA@| [ DATA ] ; `string'
	EXPORT	|??_C@_1BM@FIPGMAMA@?$AAC?$AAM?$AA_?$AAF?$AAC?$AAL?$AAK?$AAE?$AAN?$AA_?$AAC?$AAA?$AAM?$AA?$AA@| [ DATA ] ; `string'
	EXPORT	|??_C@_1O@LPKKDKNF@?$AAC?$AAA?$AAM?$AA_?$AAC?$AAM?$AA?$AA@| [ DATA ] ; `string'
	EXPORT	|??_C@_1BO@MBBCBBCE@?$AAC?$AAM?$AA_?$AAC?$AAL?$AAK?$AAS?$AAT?$AAS?$AAT?$AA_?$AAD?$AAS?$AAS?$AA?$AA@| [ DATA ] ; `string'
	EXPORT	|??_C@_1CC@GJGCLMP@?$AAC?$AAM?$AA_?$AAC?$AAL?$AAK?$AAS?$AAT?$AAC?$AAT?$AAR?$AAL?$AA_?$AAD?$AAS?$AAS?$AA?$AA@| [ DATA ] ; `string'
	EXPORT	|??_C@_1CA@HHIKKAKJ@?$AAC?$AAM?$AA_?$AAS?$AAL?$AAE?$AAE?$AAP?$AAD?$AAE?$AAP?$AA_?$AAD?$AAS?$AAS?$AA?$AA@| [ DATA ] ; `string'
	EXPORT	|??_C@_1BM@DNMPICO@?$AAC?$AAM?$AA_?$AAC?$AAL?$AAK?$AAS?$AAE?$AAL?$AA_?$AAD?$AAS?$AAS?$AA?$AA@| [ DATA ] ; `string'
	EXPORT	|??_C@_1CA@OBFGDJPM@?$AAC?$AAM?$AA_?$AAA?$AAU?$AAT?$AAO?$AAI?$AAD?$AAL?$AAE?$AA_?$AAD?$AAS?$AAS?$AA?$AA@| [ DATA ] ; `string'
	EXPORT	|??_C@_1BM@MJOIHANK@?$AAC?$AAM?$AA_?$AAI?$AAD?$AAL?$AAE?$AAS?$AAT?$AA_?$AAD?$AAS?$AAS?$AA?$AA@| [ DATA ] ; `string'
	EXPORT	|??_C@_1BM@HAHBFCKF@?$AAC?$AAM?$AA_?$AAI?$AAC?$AAL?$AAK?$AAE?$AAN?$AA_?$AAD?$AAS?$AAS?$AA?$AA@| [ DATA ] ; `string'
	EXPORT	|??_C@_1BM@KMOLEKOF@?$AAC?$AAM?$AA_?$AAF?$AAC?$AAL?$AAK?$AAE?$AAN?$AA_?$AAD?$AAS?$AAS?$AA?$AA@| [ DATA ] ; `string'
	EXPORT	|??_C@_1O@DCDFCCN@?$AAD?$AAS?$AAS?$AA_?$AAC?$AAM?$AA?$AA@| [ DATA ] ; `string'
	EXPORT	|??_C@_1BO@MLHAGPEI@?$AAC?$AAM?$AA_?$AAC?$AAL?$AAK?$AAO?$AAU?$AAT?$AA_?$AAC?$AAT?$AAR?$AAL?$AA?$AA@| [ DATA ] ; `string'
	EXPORT	|??_C@_1BO@IIHNOIA@?$AAC?$AAM?$AA_?$AAC?$AAL?$AAK?$AAS?$AAE?$AAL?$AA5?$AA_?$AAP?$AAL?$AAL?$AA?$AA@| [ DATA ] ; `string'
	EXPORT	|??_C@_1BO@JDCCJCOP@?$AAC?$AAM?$AA_?$AAC?$AAL?$AAK?$AAS?$AAE?$AAL?$AA4?$AA_?$AAP?$AAL?$AAL?$AA?$AA@| [ DATA ] ; `string'
	EXPORT	|??_C@_1BO@OHLKHLGA@?$AAC?$AAM?$AA_?$AAC?$AAL?$AAK?$AAS?$AAE?$AAL?$AA3?$AA_?$AAP?$AAL?$AAL?$AA?$AA@| [ DATA ] ; `string'
	EXPORT	|??_C@_1BO@HMBPDHAP@?$AAC?$AAM?$AA_?$AAC?$AAL?$AAK?$AAS?$AAE?$AAL?$AA2?$AA_?$AAP?$AAL?$AAL?$AA?$AA@| [ DATA ] ; `string'
	EXPORT	|??_C@_1BO@LIBOFPP@?$AAC?$AAM?$AA_?$AAC?$AAL?$AAK?$AAS?$AAE?$AAL?$AA1?$AA_?$AAP?$AAL?$AAL?$AA?$AA@| [ DATA ] ; `string'
	EXPORT	|??_C@_1CC@CDHCIADO@?$AAC?$AAM?$AA_?$AAA?$AAU?$AAT?$AAO?$AAI?$AAD?$AAL?$AAE?$AA2?$AA_?$AAP?$AAL?$AAL?$AA?$AA@| [ DATA ] ; `string'
	EXPORT	|??_C@_1CA@ODFNPBKK@?$AAC?$AAM?$AA_?$AAA?$AAU?$AAT?$AAO?$AAI?$AAD?$AAL?$AAE?$AA_?$AAP?$AAL?$AAL?$AA?$AA@| [ DATA ] ; `string'
	EXPORT	|??_C@_1CC@OBCEIAAE@?$AAC?$AAM?$AA_?$AAI?$AAD?$AAL?$AAE?$AAS?$AAT?$AA2?$AA_?$AAC?$AAK?$AAG?$AAE?$AAN?$AA?$AA@| [ DATA ] ; `string'
	EXPORT	|??_C@_1CA@PFEJJBMO@?$AAC?$AAM?$AA_?$AAI?$AAD?$AAL?$AAE?$AAS?$AAT?$AA_?$AAC?$AAK?$AAG?$AAE?$AAN?$AA?$AA@| [ DATA ] ; `string'
	EXPORT	|??_C@_1BM@DGCCAOAF@?$AAC?$AAM?$AA_?$AAC?$AAL?$AAK?$AAE?$AAN?$AA2?$AA_?$AAP?$AAL?$AAL?$AA?$AA@| [ DATA ] ; `string'
	EXPORT	|??_C@_1BK@CFOGEALB@?$AAC?$AAM?$AA_?$AAC?$AAL?$AAK?$AAE?$AAN?$AA_?$AAP?$AAL?$AAL?$AA?$AA@| [ DATA ] ; `string'
	EXPORT	|??_C@_1CK@OJMCKPMK@?$AAC?$AAl?$AAo?$AAc?$AAk?$AA_?$AAC?$AAo?$AAn?$AAt?$AAr?$AAo?$AAl?$AA_?$AAR?$AAe?$AAg?$AA_?$AAC?$AAM?$AA?$AA@| [ DATA ] ; `string'
	EXPORT	|??_C@_1BO@MGPCIMBE@?$AAC?$AAM?$AA_?$AAC?$AAL?$AAK?$AAS?$AAE?$AAL?$AA_?$AAW?$AAK?$AAU?$AAP?$AA?$AA@| [ DATA ] ; `string'
	EXPORT	|??_C@_1CC@JJJPDLCF@?$AAC?$AAM?$AA_?$AAA?$AAU?$AAT?$AAO?$AAI?$AAD?$AAL?$AAE?$AA_?$AAW?$AAK?$AAU?$AAP?$AA?$AA@| [ DATA ] ; `string'
	EXPORT	|??_C@_1BO@FFEBGJIL@?$AAC?$AAM?$AA_?$AAI?$AAD?$AAL?$AAE?$AAS?$AAT?$AA_?$AAW?$AAK?$AAU?$AAP?$AA?$AA@| [ DATA ] ; `string'
	EXPORT	|??_C@_1BO@CIIGPEMP@?$AAC?$AAM?$AA_?$AAI?$AAC?$AAL?$AAK?$AAE?$AAN?$AA_?$AAW?$AAK?$AAU?$AAP?$AA?$AA@| [ DATA ] ; `string'
	EXPORT	|??_C@_1BO@MLJDPPAG@?$AAC?$AAM?$AA_?$AAF?$AAC?$AAL?$AAK?$AAE?$AAN?$AA_?$AAW?$AAK?$AAU?$AAP?$AA?$AA@| [ DATA ] ; `string'
	EXPORT	|??_C@_1BA@FJBNPKLL@?$AAW?$AAK?$AAU?$AAP?$AA_?$AAC?$AAM?$AA?$AA@| [ DATA ] ; `string'
	EXPORT	|??_C@_1BO@PICKOOJK@?$AAC?$AAM?$AA_?$AAC?$AAL?$AAK?$AAS?$AAT?$AAS?$AAT?$AA_?$AAS?$AAG?$AAX?$AA?$AA@| [ DATA ] ; `string'
	EXPORT	|??_C@_1CC@DPKONEHB@?$AAC?$AAM?$AA_?$AAC?$AAL?$AAK?$AAS?$AAT?$AAC?$AAT?$AAR?$AAL?$AA_?$AAS?$AAG?$AAX?$AA?$AA@| [ DATA ] ; `string'
	EXPORT	|??_C@_1CA@EOLCFPBH@?$AAC?$AAM?$AA_?$AAS?$AAL?$AAE?$AAE?$AAP?$AAD?$AAE?$AAP?$AA_?$AAS?$AAG?$AAX?$AA?$AA@| [ DATA ] ; `string'
	EXPORT	|??_C@_1BM@DKOEAHJA@?$AAC?$AAM?$AA_?$AAC?$AAL?$AAK?$AAS?$AAE?$AAL?$AA_?$AAS?$AAG?$AAX?$AA?$AA@| [ DATA ] ; `string'
	EXPORT	|??_C@_1BM@PANAIPGE@?$AAC?$AAM?$AA_?$AAI?$AAD?$AAL?$AAE?$AAS?$AAT?$AA_?$AAS?$AAG?$AAX?$AA?$AA@| [ DATA ] ; `string'
	EXPORT	|??_C@_1BM@EJEJKNBL@?$AAC?$AAM?$AA_?$AAI?$AAC?$AAL?$AAK?$AAE?$AAN?$AA_?$AAS?$AAG?$AAX?$AA?$AA@| [ DATA ] ; `string'
	EXPORT	|??_C@_1BM@JFNDLFFL@?$AAC?$AAM?$AA_?$AAF?$AAC?$AAL?$AAK?$AAE?$AAN?$AA_?$AAS?$AAG?$AAX?$AA?$AA@| [ DATA ] ; `string'
	EXPORT	|??_C@_1O@PHKCOJPF@?$AAS?$AAG?$AAX?$AA_?$AAC?$AAM?$AA?$AA@| [ DATA ] ; `string'
	EXPORT	|??_C@_1CA@DFAGEEPB@?$AAC?$AAM?$AA_?$AAC?$AAL?$AAK?$AAS?$AAT?$AAS?$AAT?$AA_?$AAC?$AAO?$AAR?$AAE?$AA?$AA@| [ DATA ] ; `string'
	EXPORT	|??_C@_1CE@EOIAHAOA@?$AAC?$AAM?$AA_?$AAC?$AAL?$AAK?$AAS?$AAT?$AAC?$AAT?$AAR?$AAL?$AA_?$AAC?$AAO?$AAR?$AAE?$AA?$AA@| [ DATA ] ; `string'
	EXPORT	|??_C@_1BO@BGDPDEGJ@?$AAC?$AAM?$AA_?$AAC?$AAL?$AAK?$AAS?$AAE?$AAL?$AA_?$AAC?$AAO?$AAR?$AAE?$AA?$AA@| [ DATA ] ; `string'
	EXPORT	|??_C@_1CE@OGHCKMLF@?$AAC?$AAM?$AA_?$AAA?$AAU?$AAT?$AAO?$AAI?$AAD?$AAL?$AAE?$AA3?$AA_?$AAC?$AAO?$AAR?$AAE?$AA?$AA@| [ DATA ] ; `string'
	EXPORT	|??_C@_1CE@HLHNENMD@?$AAC?$AAM?$AA_?$AAA?$AAU?$AAT?$AAO?$AAI?$AAD?$AAL?$AAE?$AA2?$AA_?$AAC?$AAO?$AAR?$AAE?$AA?$AA@| [ DATA ] ; `string'
	EXPORT	|??_C@_1CE@HBMGIBI@?$AAC?$AAM?$AA_?$AAA?$AAU?$AAT?$AAO?$AAI?$AAD?$AAL?$AAE?$AA1?$AA_?$AAC?$AAO?$AAR?$AAE?$AA?$AA@| [ DATA ] ; `string'
	EXPORT	|??_C@_1CA@FDJDMBNE@?$AAC?$AAM?$AA_?$AAI?$AAD?$AAL?$AAE?$AAS?$AAT?$AA3?$AA_?$AAC?$AAO?$AAR?$AAE?$AA?$AA@| [ DATA ] ; `string'
	EXPORT	|??_C@_1CA@MOJMCAKC@?$AAC?$AAM?$AA_?$AAI?$AAD?$AAL?$AAE?$AAS?$AAT?$AA2?$AA_?$AAC?$AAO?$AAR?$AAE?$AA?$AA@| [ DATA ] ; `string'
	EXPORT	|??_C@_1CA@LCPNAFHJ@?$AAC?$AAM?$AA_?$AAI?$AAD?$AAL?$AAE?$AAS?$AAT?$AA1?$AA_?$AAC?$AAO?$AAR?$AAE?$AA?$AA@| [ DATA ] ; `string'
	EXPORT	|??_C@_1CA@EJDINJOL@?$AAC?$AAM?$AA_?$AAI?$AAC?$AAL?$AAK?$AAE?$AAN?$AA3?$AA_?$AAC?$AAO?$AAR?$AAE?$AA?$AA@| [ DATA ] ; `string'
	EXPORT	|??_C@_1CA@NEDHDIJN@?$AAC?$AAM?$AA_?$AAI?$AAC?$AAL?$AAK?$AAE?$AAN?$AA2?$AA_?$AAC?$AAO?$AAR?$AAE?$AA?$AA@| [ DATA ] ; `string'
	EXPORT	|??_C@_1CA@KIFGBNEG@?$AAC?$AAM?$AA_?$AAI?$AAC?$AAL?$AAK?$AAE?$AAN?$AA1?$AA_?$AAC?$AAO?$AAR?$AAE?$AA?$AA@| [ DATA ] ; `string'
	EXPORT	|??_C@_1CA@MENCIPHB@?$AAC?$AAM?$AA_?$AAF?$AAC?$AAL?$AAK?$AAE?$AAN?$AA3?$AA_?$AAC?$AAO?$AAR?$AAE?$AA?$AA@| [ DATA ] ; `string'
	EXPORT	|??_C@_1CA@CFLMELNM@?$AAC?$AAM?$AA_?$AAF?$AAC?$AAL?$AAK?$AAE?$AAN?$AA1?$AA_?$AAC?$AAO?$AAR?$AAE?$AA?$AA@| [ DATA ] ; `string'
	EXPORT	|??_C@_1BA@MHLIKEJK@?$AAC?$AAO?$AAR?$AAE?$AA_?$AAC?$AAM?$AA?$AA@| [ DATA ] ; `string'
	EXPORT	|??_C@_1BO@HNKCCHHN@?$AAC?$AAM?$AA_?$AAC?$AAL?$AAK?$AAS?$AAT?$AAS?$AAT?$AA_?$AAM?$AAP?$AAU?$AA?$AA@| [ DATA ] ; `string'
	EXPORT	|??_C@_1CC@LKCGBNJG@?$AAC?$AAM?$AA_?$AAC?$AAL?$AAK?$AAS?$AAT?$AAC?$AAT?$AAR?$AAL?$AA_?$AAM?$AAP?$AAU?$AA?$AA@| [ DATA ] ; `string'
	EXPORT	|??_C@_1CG@HAJMMJGO@?$AAC?$AAM?$AA_?$AAC?$AAL?$AAK?$AAS?$AAE?$AAL?$AA2?$AA_?$AAP?$AAL?$AAL?$AA_?$AAM?$AAP?$AAU?$AA?$AA@| [ DATA ] ; `string'
	EXPORT	|??_C@_1CG@NPDFIEKE@?$AAC?$AAM?$AA_?$AAC?$AAL?$AAK?$AAS?$AAE?$AAL?$AA1?$AA_?$AAP?$AAL?$AAL?$AA_?$AAM?$AAP?$AAU?$AA?$AA@| [ DATA ] ; `string'
	EXPORT	|??_C@_1CI@CMDKJBJB@?$AAC?$AAM?$AA_?$AAA?$AAU?$AAT?$AAO?$AAI?$AAD?$AAL?$AAE?$AA_?$AAP?$AAL?$AAL?$AA_?$AAM?$AAP?$AAU?$AA?$AA@| [ DATA ] ; `string'
	EXPORT	|??_C@_1CE@BDMBNMCK@?$AAC?$AAM?$AA_?$AAI?$AAD?$AAL?$AAE?$AAS?$AAT?$AA_?$AAP?$AAL?$AAL?$AA_?$AAM?$AAP?$AAU?$AA?$AA@| [ DATA ] ; `string'
	EXPORT	|??_C@_1BM@HFFIEGID@?$AAC?$AAM?$AA_?$AAI?$AAD?$AAL?$AAE?$AAS?$AAT?$AA_?$AAM?$AAP?$AAU?$AA?$AA@| [ DATA ] ; `string'
	EXPORT	|??_C@_1CC@JNLBAGDF@?$AAC?$AAM?$AA_?$AAC?$AAL?$AAK?$AAE?$AAN?$AA_?$AAP?$AAL?$AAL?$AA_?$AAM?$AAP?$AAU?$AA?$AA@| [ DATA ] ; `string'
	EXPORT	|??_C@_1O@NHPFAPNK@?$AAM?$AAP?$AAU?$AA_?$AAC?$AAM?$AA?$AA@| [ DATA ] ; `string'
	EXPORT	|??_C@_1BK@MFOLEKL@?$AAC?$AAM?$AA_?$AAS?$AAY?$AAS?$AAC?$AAO?$AAN?$AAF?$AAI?$AAG?$AA?$AA@| [ DATA ] ; `string'
	EXPORT	|??_C@_1BI@OFDDPNDA@?$AAC?$AAM?$AA_?$AAR?$AAE?$AAV?$AAI?$AAS?$AAI?$AAO?$AAN?$AA?$AA@| [ DATA ] ; `string'
	EXPORT	|??_C@_1CE@OMIMNBBB@?$AAO?$AAC?$AAP?$AA_?$AAS?$AAy?$AAs?$AAt?$AAe?$AAm?$AA_?$AAR?$AAe?$AAg?$AA_?$AAC?$AAM?$AA?$AA@| [ DATA ] ; `string'
	EXPORT	|??_C@_1CA@DCHKBGCI@?$AAC?$AAM?$AA_?$AAC?$AAL?$AAK?$AAS?$AAT?$AAS?$AAT?$AA_?$AAI?$AAV?$AAA?$AA2?$AA?$AA@| [ DATA ] ; `string'
	EXPORT	|??_C@_1CE@EJPMCCDJ@?$AAC?$AAM?$AA_?$AAC?$AAL?$AAK?$AAS?$AAT?$AAC?$AAT?$AAR?$AAL?$AA_?$AAI?$AAV?$AAA?$AA2?$AA?$AA@| [ DATA ] ; `string'
	EXPORT	|??_C@_1CI@BECHJFPL@?$AAC?$AAM?$AA_?$AAC?$AAL?$AAK?$AAS?$AAE?$AAL?$AA2?$AA_?$AAP?$AAL?$AAL?$AA_?$AAI?$AAV?$AAA?$AA2?$AA?$AA@| [ DATA ] ; `string'
	EXPORT	|??_C@_1CI@CNFPDILL@?$AAC?$AAM?$AA_?$AAC?$AAL?$AAK?$AAS?$AAE?$AAL?$AA1?$AA_?$AAP?$AAL?$AAL?$AA_?$AAI?$AAV?$AAA?$AA2?$AA?$AA@| [ DATA ] ; `string'
	EXPORT	|??_C@_1CK@OCLDONOJ@?$AAC?$AAM?$AA_?$AAA?$AAU?$AAT?$AAO?$AAI?$AAD?$AAL?$AAE?$AA_?$AAP?$AAL?$AAL?$AA_?$AAI?$AAV?$AAA?$AA2?$AA?$AA@| [ DATA ] ; `string'
	EXPORT	|??_C@_1CG@ONOPJIEM@?$AAC?$AAM?$AA_?$AAI?$AAD?$AAL?$AAE?$AAS?$AAT?$AA_?$AAP?$AAL?$AAL?$AA_?$AAI?$AAV?$AAA?$AA2?$AA?$AA@| [ DATA ] ; `string'
	EXPORT	|??_C@_1BO@ICPAIDCP@?$AAC?$AAM?$AA_?$AAI?$AAD?$AAL?$AAE?$AAS?$AAT?$AA_?$AAI?$AAV?$AAA?$AA2?$AA?$AA@| [ DATA ] ; `string'
	EXPORT	|??_C@_1CE@EGLDCDGI@?$AAC?$AAM?$AA_?$AAC?$AAL?$AAK?$AAE?$AAN?$AA_?$AAP?$AAL?$AAL?$AA_?$AAI?$AAV?$AAA?$AA2?$AA?$AA@| [ DATA ] ; `string'
	EXPORT	|??_C@_1BO@BMCCBFKC@?$AAC?$AAM?$AA_?$AAF?$AAC?$AAL?$AAK?$AAE?$AAN?$AA_?$AAI?$AAV?$AAA?$AA2?$AA?$AA@| [ DATA ] ; `string'
	EXPORT	|??_C@_1BA@JEPMHMHH@?$AAI?$AAV?$AAA?$AA2?$AA_?$AAC?$AAM?$AA?$AA@| [ DATA ] ; `string'
	EXPORT	|??_C@_1CE@NPBICAPK@?$AAP?$AAO?$AAW?$AAE?$AAR?$AAD?$AAO?$AAM?$AAA?$AAI?$AAN?$AA_?$AAE?$AAF?$AAU?$AAS?$AAE?$AA?$AA@| [ DATA ] ; `string'
	EXPORT	|??_C@_1CA@EPPNKFHH@?$AAP?$AAO?$AAW?$AAE?$AAR?$AAD?$AAO?$AAM?$AAA?$AAI?$AAN?$AA_?$AAS?$AAG?$AAX?$AA?$AA@| [ DATA ] ; `string'
	EXPORT	|??_C@_1CC@DDKPOHKD@?$AAP?$AAO?$AAW?$AAE?$AAR?$AAD?$AAO?$AAM?$AAA?$AAI?$AAN?$AA_?$AAN?$AAE?$AAO?$AAN?$AA?$AA@| [ DATA ] ; `string'
	EXPORT	|??_C@_1CA@HGMFFKMJ@?$AAP?$AAO?$AAW?$AAE?$AAR?$AAD?$AAO?$AAM?$AAA?$AAI?$AAN?$AA_?$AAD?$AAS?$AAS?$AA?$AA@| [ DATA ] ; `string'
	EXPORT	|??_C@_1CA@MKHFGMJA@?$AAP?$AAO?$AAW?$AAE?$AAR?$AAD?$AAO?$AAM?$AAA?$AAI?$AAN?$AA_?$AAM?$AAP?$AAU?$AA?$AA@| [ DATA ] ; `string'
	EXPORT	|??_C@_1CM@IICJPBKI@?$AAP?$AAO?$AAW?$AAE?$AAR?$AAD?$AAO?$AAM?$AAA?$AAI?$AAN?$AA_?$AAE?$AAM?$AAU?$AAL?$AAA?$AAT?$AAI?$AAO?$AAN?$AA?$AA@| [ DATA ] ; `string'
	EXPORT	|??_C@_1CI@LJKMALKI@?$AAP?$AAO?$AAW?$AAE?$AAR?$AAD?$AAO?$AAM?$AAA?$AAI?$AAN?$AA_?$AAU?$AAS?$AAB?$AAH?$AAO?$AAS?$AAT?$AA?$AA@| [ DATA ] ; `string'
	EXPORT	|??_C@_1CO@GHAPCMEA@?$AAP?$AAO?$AAW?$AAE?$AAR?$AAD?$AAO?$AAM?$AAA?$AAI?$AAN?$AA_?$AAP?$AAE?$AAR?$AAI?$AAP?$AAH?$AAE?$AAR?$AAA?$AAL?$AA?$AA@| [ DATA ] ; `string'
	EXPORT	|??_C@_1CC@DPNIOGJP@?$AAP?$AAO?$AAW?$AAE?$AAR?$AAD?$AAO?$AAM?$AAA?$AAI?$AAN?$AA_?$AAC?$AAO?$AAR?$AAE?$AA?$AA@| [ DATA ] ; `string'
	EXPORT	|??_C@_1CG@GNBBGDGH@?$AAP?$AAO?$AAW?$AAE?$AAR?$AAD?$AAO?$AAM?$AAA?$AAI?$AAN?$AA_?$AAW?$AAA?$AAK?$AAE?$AAU?$AAP?$AA?$AA@| [ DATA ] ; `string'
	EXPORT	|??_C@_1CK@IEABCGNC@?$AAO?$AAM?$AAA?$AAP?$AA_?$AAD?$AAE?$AAV?$AAI?$AAC?$AAE?$AA_?$AAH?$AAS?$AAO?$AAT?$AAG?$AAU?$AAS?$AAB?$AA?$AA@| [ DATA ] ; `string'
	EXPORT	|??_C@_1CG@EDCGOPIH@?$AAO?$AAM?$AAA?$AAP?$AA_?$AAD?$AAE?$AAV?$AAI?$AAC?$AAE?$AA_?$AAC?$AAP?$AAG?$AAM?$AAA?$AAC?$AA?$AA@| [ DATA ] ; `string'
	EXPORT	|??_C@_1CC@DCMIOAOJ@?$AAO?$AAM?$AAA?$AAP?$AA_?$AAD?$AAE?$AAV?$AAI?$AAC?$AAE?$AA_?$AAH?$AAE?$AAC?$AAC?$AA?$AA@| [ DATA ] ; `string'
	EXPORT	|??_C@_1CC@MNJCOFFL@?$AAO?$AAM?$AAA?$AAP?$AA_?$AAD?$AAE?$AAV?$AAI?$AAC?$AAE?$AA_?$AAG?$AAP?$AAM?$AAC?$AA?$AA@| [ DATA ] ; `string'
	EXPORT	|??_C@_1CC@LBCPDDJD@?$AAO?$AAM?$AAA?$AAP?$AA_?$AAD?$AAE?$AAV?$AAI?$AAC?$AAE?$AA_?$AAS?$AAD?$AAM?$AAA?$AA?$AA@| [ DATA ] ; `string'
	EXPORT	|??_C@_1CE@LCDBPFF@?$AAO?$AAM?$AAA?$AAP?$AA_?$AAD?$AAE?$AAV?$AAI?$AAC?$AAE?$AA_?$AAC?$AAO?$AAU?$AAN?$AAT?$AA?$AA@| [ DATA ] ; `string'
	EXPORT	|??_C@_1CO@HGOPKO@?$AAO?$AAM?$AAA?$AAP?$AA_?$AAD?$AAE?$AAV?$AAI?$AAC?$AAE?$AA_?$AAS?$AAG?$AAX?$AA?5?$AA?$DN?$AA?5?$AA0?$AAx?$AA4?$AA8?$AA?$AA@| [ DATA ] ; `string'
	EXPORT	|??_C@_1CE@LBPKOABC@?$AAO?$AAM?$AAA?$AAP?$AA_?$AAD?$AAE?$AAV?$AAI?$AAC?$AAE?$AA_?$AAS?$AAT?$AAU?$AAB?$AA2?$AA?$AA@| [ DATA ] ; `string'
	EXPORT	|??_C@_1CE@KDEPEPPM@?$AAO?$AAM?$AAA?$AAP?$AA_?$AAD?$AAE?$AAV?$AAI?$AAC?$AAE?$AA_?$AAS?$AAT?$AAU?$AAB?$AA1?$AA?$AA@| [ DATA ] ; `string'
	EXPORT	|??_C@_1CI@CGCHDENN@?$AAO?$AAM?$AAA?$AAP?$AA_?$AAD?$AAE?$AAV?$AAI?$AAC?$AAE?$AA_?$AAG?$AAE?$AAN?$AAE?$AAR?$AAI?$AAC?$AA?$AA@| [ DATA ] ; `string'
	EXPORT	|??_C@_1CC@JFKAJPFG@?$AAO?$AAM?$AAA?$AAP?$AA_?$AAD?$AAE?$AAV?$AAI?$AAC?$AAE?$AA_?$AAV?$AAR?$AAF?$AAB?$AA?$AA@| [ DATA ] ; `string'
	EXPORT	|??_C@_1CC@DDIOJOOM@?$AAO?$AAM?$AAA?$AAP?$AA_?$AAD?$AAE?$AAV?$AAI?$AAC?$AAE?$AA_?$AAE?$AAH?$AAC?$AAI?$AA?$AA@| [ DATA ] ; `string'
	EXPORT	|??_C@_1CC@CEKMAOCF@?$AAO?$AAM?$AAA?$AAP?$AA_?$AAD?$AAE?$AAV?$AAI?$AAC?$AAE?$AA_?$AAO?$AAH?$AAC?$AAI?$AA?$AA@| [ DATA ] ; `string'
	EXPORT	|??_C@_1CK@PMNPNLDF@?$AAO?$AAM?$AAA?$AAP?$AA_?$AAD?$AAE?$AAV?$AAI?$AAC?$AAE?$AA_?$AAU?$AAS?$AAB?$AAH?$AAO?$AAS?$AAT?$AA3?$AA?$AA@| [ DATA ] ; `string'
	EXPORT	|??_C@_1CK@EEGDLMFA@?$AAO?$AAM?$AAA?$AAP?$AA_?$AAD?$AAE?$AAV?$AAI?$AAC?$AAE?$AA_?$AAU?$AAS?$AAB?$AAH?$AAO?$AAS?$AAT?$AA2?$AA?$AA@| [ DATA ] ; `string'
	EXPORT	|??_C@_1CK@FGNGBDLO@?$AAO?$AAM?$AAA?$AAP?$AA_?$AAD?$AAE?$AAV?$AAI?$AAC?$AAE?$AA_?$AAU?$AAS?$AAB?$AAH?$AAO?$AAS?$AAT?$AA1?$AA?$AA@| [ DATA ] ; `string'
	EXPORT	|??_C@_1BO@LMDKBCBP@?$AAO?$AAM?$AAA?$AAP?$AA_?$AAD?$AAE?$AAV?$AAI?$AAC?$AAE?$AA_?$AA3?$AAD?$AA?$AA@| [ DATA ] ; `string'
	EXPORT	|??_C@_1BO@HHGGMBLK@?$AAO?$AAM?$AAA?$AAP?$AA_?$AAD?$AAE?$AAV?$AAI?$AAC?$AAE?$AA_?$AA2?$AAD?$AA?$AA@| [ DATA ] ; `string'
	EXPORT	|??_C@_1CC@COEMHCN@?$AAO?$AAM?$AAA?$AAP?$AA_?$AAD?$AAE?$AAV?$AAI?$AAC?$AAE?$AA_?$AAC?$AAS?$AAI?$AA2?$AA?$AA@| [ DATA ] ; `string'
	EXPORT	|??_C@_1CC@EKFCKAJC@?$AAO?$AAM?$AAA?$AAP?$AA_?$AAD?$AAE?$AAV?$AAI?$AAC?$AAE?$AA_?$AAV?$AAP?$AAF?$AAE?$AA?$AA@| [ DATA ] ; `string'
	EXPORT	|??_C@_1CE@CMHCGOLP@?$AAO?$AAM?$AAA?$AAP?$AA_?$AAD?$AAE?$AAV?$AAI?$AAC?$AAE?$AA_?$AAT?$AAV?$AAO?$AAU?$AAT?$AA?$AA@| [ DATA ] ; `string'
	EXPORT	|??_C@_1CC@ECHFPNKJ@?$AAO?$AAM?$AAA?$AAP?$AA_?$AAD?$AAE?$AAV?$AAI?$AAC?$AAE?$AA_?$AAD?$AAS?$AAS?$AA2?$AA?$AA@| [ DATA ] ; `string'
	EXPORT	|??_C@_1CC@FAMAFCEH@?$AAO?$AAM?$AAA?$AAP?$AA_?$AAD?$AAE?$AAV?$AAI?$AAC?$AAE?$AA_?$AAD?$AAS?$AAS?$AA1?$AA?$AA@| [ DATA ] ; `string'
	EXPORT	|??_C@_1CA@FPBNMJAK@?$AAO?$AAM?$AAA?$AAP?$AA_?$AAD?$AAE?$AAV?$AAI?$AAC?$AAE?$AA_?$AAD?$AAS?$AAS?$AA?$AA@| [ DATA ] ; `string'
	EXPORT	|??_C@_1CC@FNCLKIKN@?$AAO?$AAM?$AAA?$AAP?$AA_?$AAD?$AAE?$AAV?$AAI?$AAC?$AAE?$AA_?$AAW?$AAD?$AAT?$AA3?$AA?$AA@| [ DATA ] ; `string'
	EXPORT	|??_C@_1CE@PILGIAKE@?$AAO?$AAM?$AAA?$AAP?$AA_?$AAD?$AAE?$AAV?$AAI?$AAC?$AAE?$AA_?$AAU?$AAA?$AAR?$AAT?$AA3?$AA?$AA@| [ DATA ] ; `string'
	EXPORT	|??_C@_1CK@PMHAIIAB@?$AAO?$AAM?$AAA?$AAP?$AA_?$AAD?$AAE?$AAV?$AAI?$AAC?$AAE?$AA_?$AAG?$AAP?$AAT?$AAI?$AAM?$AAE?$AAR?$AA9?$AA?$AA@| [ DATA ] ; `string'
	EXPORT	|??_C@_1CK@EEMMOPGE@?$AAO?$AAM?$AAA?$AAP?$AA_?$AAD?$AAE?$AAV?$AAI?$AAC?$AAE?$AA_?$AAG?$AAP?$AAT?$AAI?$AAM?$AAE?$AAR?$AA8?$AA?$AA@| [ DATA ] ; `string'
	EXPORT	|??_C@_1CK@BMKPPPDC@?$AAO?$AAM?$AAA?$AAP?$AA_?$AAD?$AAE?$AAV?$AAI?$AAC?$AAE?$AA_?$AAG?$AAP?$AAT?$AAI?$AAM?$AAE?$AAR?$AA7?$AA?$AA@| [ DATA ] ; `string'
	EXPORT	|??_C@_1CK@KEBDJIFH@?$AAO?$AAM?$AAA?$AAP?$AA_?$AAD?$AAE?$AAV?$AAI?$AAC?$AAE?$AA_?$AAG?$AAP?$AAT?$AAI?$AAM?$AAE?$AAR?$AA6?$AA?$AA@| [ DATA ] ; `string'
	EXPORT	|??_C@_1CK@LGKGDHLJ@?$AAO?$AAM?$AAA?$AAP?$AA_?$AAD?$AAE?$AAV?$AAI?$AAC?$AAE?$AA_?$AAG?$AAP?$AAT?$AAI?$AAM?$AAE?$AAR?$AA5?$AA?$AA@| [ DATA ] ; `string'
	EXPORT	|??_C@_1CK@OBKFANM@?$AAO?$AAM?$AAA?$AAP?$AA_?$AAD?$AAE?$AAV?$AAI?$AAC?$AAE?$AA_?$AAG?$AAP?$AAT?$AAI?$AAM?$AAE?$AAR?$AA4?$AA?$AA@| [ DATA ] ; `string'
	EXPORT	|??_C@_1CK@JDMNGIGF@?$AAO?$AAM?$AAA?$AAP?$AA_?$AAD?$AAE?$AAV?$AAI?$AAC?$AAE?$AA_?$AAG?$AAP?$AAT?$AAI?$AAM?$AAE?$AAR?$AA3?$AA?$AA@| [ DATA ] ; `string'
	EXPORT	|??_C@_1CK@CLHBAPAA@?$AAO?$AAM?$AAA?$AAP?$AA_?$AAD?$AAE?$AAV?$AAI?$AAC?$AAE?$AA_?$AAG?$AAP?$AAT?$AAI?$AAM?$AAE?$AAR?$AA2?$AA?$AA@| [ DATA ] ; `string'
	EXPORT	|??_C@_1CG@ECEBCEEN@?$AAO?$AAM?$AAA?$AAP?$AA_?$AAD?$AAE?$AAV?$AAI?$AAC?$AAE?$AA_?$AAM?$AAC?$AAB?$AAS?$AAP?$AA4?$AA?$AA@| [ DATA ] ; `string'
	EXPORT	|??_C@_1CG@NPJGBMPE@?$AAO?$AAM?$AAA?$AAP?$AA_?$AAD?$AAE?$AAV?$AAI?$AAC?$AAE?$AA_?$AAM?$AAC?$AAB?$AAS?$AAP?$AA3?$AA?$AA@| [ DATA ] ; `string'
	EXPORT	|??_C@_1CG@GHCKHLJB@?$AAO?$AAM?$AAA?$AAP?$AA_?$AAD?$AAE?$AAV?$AAI?$AAC?$AAE?$AA_?$AAM?$AAC?$AAB?$AAS?$AAP?$AA2?$AA?$AA@| [ DATA ] ; `string'
	EXPORT	|??_C@_1CE@KPOHDGAG@?$AAO?$AAM?$AAA?$AAP?$AA_?$AAD?$AAE?$AAV?$AAI?$AAC?$AAE?$AA_?$AAG?$AAP?$AAI?$AAO?$AA6?$AA?$AA@| [ DATA ] ; `string'
	EXPORT	|??_C@_1CE@LNFCJJOI@?$AAO?$AAM?$AAA?$AAP?$AA_?$AAD?$AAE?$AAV?$AAI?$AAC?$AAE?$AA_?$AAG?$AAP?$AAI?$AAO?$AA5?$AA?$AA@| [ DATA ] ; `string'
	EXPORT	|??_C@_1CE@FOOPOIN@?$AAO?$AAM?$AAA?$AAP?$AA_?$AAD?$AAE?$AAV?$AAI?$AAC?$AAE?$AA_?$AAG?$AAP?$AAI?$AAO?$AA4?$AA?$AA@| [ DATA ] ; `string'
	EXPORT	|??_C@_1CE@JIDJMGDE@?$AAO?$AAM?$AAA?$AAP?$AA_?$AAD?$AAE?$AAV?$AAI?$AAC?$AAE?$AA_?$AAG?$AAP?$AAI?$AAO?$AA3?$AA?$AA@| [ DATA ] ; `string'
	EXPORT	|??_C@_1CE@CAIFKBFB@?$AAO?$AAM?$AAA?$AAP?$AA_?$AAD?$AAE?$AAV?$AAI?$AAC?$AAE?$AA_?$AAG?$AAP?$AAI?$AAO?$AA2?$AA?$AA@| [ DATA ] ; `string'
	EXPORT	|??_C@_1CE@DCDAAOLP@?$AAO?$AAM?$AAA?$AAP?$AA_?$AAD?$AAE?$AAV?$AAI?$AAC?$AAE?$AA_?$AAG?$AAP?$AAI?$AAO?$AA1?$AA?$AA@| [ DATA ] ; `string'
	EXPORT	|??_C@_1CC@OFJHMPMI@?$AAO?$AAM?$AAA?$AAP?$AA_?$AAD?$AAE?$AAV?$AAI?$AAC?$AAE?$AA_?$AAW?$AAD?$AAT?$AA2?$AA?$AA@| [ DATA ] ; `string'
	EXPORT	|??_C@_1CC@PHCCGACG@?$AAO?$AAM?$AAA?$AAP?$AA_?$AAD?$AAE?$AAV?$AAI?$AAC?$AAE?$AA_?$AAW?$AAD?$AAT?$AA1?$AA?$AA@| [ DATA ] ; `string'
	EXPORT	|??_C@_1CI@FAKOHIJH@?$AAO?$AAM?$AAA?$AAP?$AA_?$AAD?$AAE?$AAV?$AAI?$AAC?$AAE?$AA_?$AA3?$AA2?$AAK?$AAS?$AAY?$AAN?$AAC?$AA?$AA@| [ DATA ] ; `string'
	EXPORT	|??_C@_1CM@EMAJHEGE@?$AAO?$AAM?$AAA?$AAP?$AA_?$AAD?$AAE?$AAV?$AAI?$AAC?$AAE?$AA_?$AAG?$AAP?$AAT?$AAI?$AAM?$AAE?$AAR?$AA1?$AA2?$AA?$AA@| [ DATA ] ; `string'
	EXPORT	|??_C@_1CK@DJMEKAOO@?$AAO?$AAM?$AAA?$AAP?$AA_?$AAD?$AAE?$AAV?$AAI?$AAC?$AAE?$AA_?$AAG?$AAP?$AAT?$AAI?$AAM?$AAE?$AAR?$AA1?$AA?$AA@| [ DATA ] ; `string'
	EXPORT	|??_C@_1CE@EPOGLAMA@?$AAO?$AAM?$AAA?$AAP?$AA_?$AAD?$AAE?$AAV?$AAI?$AAC?$AAE?$AA_?$AAE?$AAF?$AAU?$AAS?$AAE?$AA?$AA@| [ DATA ] ; `string'
	EXPORT	|??_C@_1BO@GEAFECNL@?$AAO?$AAM?$AAA?$AAP?$AA_?$AAD?$AAE?$AAV?$AAI?$AAC?$AAE?$AA_?$AAT?$AAS?$AA?$AA@| [ DATA ] ; `string'
	EXPORT	|??_C@_1CG@MLOIKIGB@?$AAO?$AAM?$AAA?$AAP?$AA_?$AAD?$AAE?$AAV?$AAI?$AAC?$AAE?$AA_?$AAU?$AAS?$AAB?$AAT?$AAL?$AAL?$AA?$AA@| [ DATA ] ; `string'
	EXPORT	|??_C@_1CA@LCHJOJDJ@?$AAO?$AAM?$AAA?$AAP?$AA_?$AAD?$AAE?$AAV?$AAI?$AAC?$AAE?$AA_?$AAP?$AAK?$AAA?$AA?$AA@| [ DATA ] ; `string'
	EXPORT	|??_C@_1CC@MDNKBKP@?$AAO?$AAM?$AAA?$AAP?$AA_?$AAD?$AAE?$AAV?$AAI?$AAC?$AAE?$AA_?$AAA?$AAE?$AAS?$AA1?$AA?$AA@| [ DATA ] ; `string'
	EXPORT	|??_C@_1CA@IFPKCACL@?$AAO?$AAM?$AAA?$AAP?$AA_?$AAD?$AAE?$AAV?$AAI?$AAC?$AAE?$AA_?$AAR?$AAN?$AAG?$AA?$AA@| [ DATA ] ; `string'
	EXPORT	|??_C@_1CE@OLJKGOCE@?$AAO?$AAM?$AAA?$AAP?$AA_?$AAD?$AAE?$AAV?$AAI?$AAC?$AAE?$AA_?$AAS?$AAH?$AAA?$AA1?$AA1?$AA?$AA@| [ DATA ] ; `string'
	EXPORT	|??_C@_1CC@OKBEGKOL@?$AAO?$AAM?$AAA?$AAP?$AA_?$AAD?$AAE?$AAV?$AAI?$AAC?$AAE?$AA_?$AAD?$AAE?$AAS?$AA1?$AA?$AA@| [ DATA ] ; `string'
	EXPORT	|??_C@_1CC@BOIIAOEB@?$AAO?$AAM?$AAA?$AAP?$AA_?$AAD?$AAE?$AAV?$AAI?$AAC?$AAE?$AA_?$AAA?$AAE?$AAS?$AA2?$AA?$AA@| [ DATA ] ; `string'
	EXPORT	|??_C@_1CE@PJCPMBMK@?$AAO?$AAM?$AAA?$AAP?$AA_?$AAD?$AAE?$AAV?$AAI?$AAC?$AAE?$AA_?$AAS?$AAH?$AAA?$AA1?$AA2?$AA?$AA@| [ DATA ] ; `string'
	EXPORT	|??_C@_1CC@PIKBMFAF@?$AAO?$AAM?$AAA?$AAP?$AA_?$AAD?$AAE?$AAV?$AAI?$AAC?$AAE?$AA_?$AAD?$AAE?$AAS?$AA2?$AA?$AA@| [ DATA ] ; `string'
	EXPORT	|??_C@_1CC@GMDLJAIE@?$AAO?$AAM?$AAA?$AAP?$AA_?$AAD?$AAE?$AAV?$AAI?$AAC?$AAE?$AA_?$AAM?$AAM?$AAC?$AA3?$AA?$AA@| [ DATA ] ; `string'
	EXPORT	|??_C@_1CC@NEIHPHOB@?$AAO?$AAM?$AAA?$AAP?$AA_?$AAD?$AAE?$AAV?$AAI?$AAC?$AAE?$AA_?$AAM?$AAM?$AAC?$AA2?$AA?$AA@| [ DATA ] ; `string'
	EXPORT	|??_C@_1CC@MGDCFIAP@?$AAO?$AAM?$AAA?$AAP?$AA_?$AAD?$AAE?$AAV?$AAI?$AAC?$AAE?$AA_?$AAM?$AAM?$AAC?$AA1?$AA?$AA@| [ DATA ] ; `string'
	EXPORT	|??_C@_1CA@LMGICGON@?$AAO?$AAM?$AAA?$AAP?$AA_?$AAD?$AAE?$AAV?$AAI?$AAC?$AAE?$AA_?$AAH?$AAD?$AAQ?$AA?$AA@| [ DATA ] ; `string'
	EXPORT	|??_C@_1CG@CAHLJKCL@?$AAO?$AAM?$AAA?$AAP?$AA_?$AAD?$AAE?$AAV?$AAI?$AAC?$AAE?$AA_?$AAM?$AAC?$AAS?$AAP?$AAI?$AA4?$AA?$AA@| [ DATA ] ; `string'
	EXPORT	|??_C@_1CG@LNKMKCJC@?$AAO?$AAM?$AAA?$AAP?$AA_?$AAD?$AAE?$AAV?$AAI?$AAC?$AAE?$AA_?$AAM?$AAC?$AAS?$AAP?$AAI?$AA3?$AA?$AA@| [ DATA ] ; `string'
	EXPORT	|??_C@_1CG@FBAMFPH@?$AAO?$AAM?$AAA?$AAP?$AA_?$AAD?$AAE?$AAV?$AAI?$AAC?$AAE?$AA_?$AAM?$AAC?$AAS?$AAP?$AAI?$AA2?$AA?$AA@| [ DATA ] ; `string'
	EXPORT	|??_C@_1CG@BHKFGKBJ@?$AAO?$AAM?$AAA?$AAP?$AA_?$AAD?$AAE?$AAV?$AAI?$AAC?$AAE?$AA_?$AAM?$AAC?$AAS?$AAP?$AAI?$AA1?$AA?$AA@| [ DATA ] ; `string'
	EXPORT	|??_C@_1CC@BAKALDMC@?$AAO?$AAM?$AAA?$AAP?$AA_?$AAD?$AAE?$AAV?$AAI?$AAC?$AAE?$AA_?$AAI?$AA2?$AAC?$AA3?$AA?$AA@| [ DATA ] ; `string'
	EXPORT	|??_C@_1CC@KIBMNEKH@?$AAO?$AAM?$AAA?$AAP?$AA_?$AAD?$AAE?$AAV?$AAI?$AAC?$AAE?$AA_?$AAI?$AA2?$AAC?$AA2?$AA?$AA@| [ DATA ] ; `string'
	EXPORT	|??_C@_1CC@LKKJHLEJ@?$AAO?$AAM?$AAA?$AAP?$AA_?$AAD?$AAE?$AAV?$AAI?$AAC?$AAE?$AA_?$AAI?$AA2?$AAC?$AA1?$AA?$AA@| [ DATA ] ; `string'
	EXPORT	|??_C@_1CE@EAAKOHMB@?$AAO?$AAM?$AAA?$AAP?$AA_?$AAD?$AAE?$AAV?$AAI?$AAC?$AAE?$AA_?$AAU?$AAA?$AAR?$AAT?$AA2?$AA?$AA@| [ DATA ] ; `string'
	EXPORT	|??_C@_1CE@FCLPEICP@?$AAO?$AAM?$AAA?$AAP?$AA_?$AAD?$AAE?$AAV?$AAI?$AAC?$AAE?$AA_?$AAU?$AAA?$AAR?$AAT?$AA1?$AA?$AA@| [ DATA ] ; `string'
	EXPORT	|??_C@_1CM@FOLMNLIK@?$AAO?$AAM?$AAA?$AAP?$AA_?$AAD?$AAE?$AAV?$AAI?$AAC?$AAE?$AA_?$AAG?$AAP?$AAT?$AAI?$AAM?$AAE?$AAR?$AA1?$AA1?$AA?$AA@| [ DATA ] ; `string'
	EXPORT	|??_C@_1CM@OGAALMOP@?$AAO?$AAM?$AAA?$AAP?$AA_?$AAD?$AAE?$AAV?$AAI?$AAC?$AAE?$AA_?$AAG?$AAP?$AAT?$AAI?$AAM?$AAE?$AAR?$AA1?$AA0?$AA?$AA@| [ DATA ] ; `string'
	EXPORT	|??_C@_1CG@PKPNEDCI@?$AAO?$AAM?$AAA?$AAP?$AA_?$AAD?$AAE?$AAV?$AAI?$AAC?$AAE?$AA_?$AAM?$AAC?$AAB?$AAS?$AAP?$AA5?$AA?$AA@| [ DATA ] ; `string'
	EXPORT	|??_C@_1CG@HFJPNEHP@?$AAO?$AAM?$AAA?$AAP?$AA_?$AAD?$AAE?$AAV?$AAI?$AAC?$AAE?$AA_?$AAM?$AAC?$AAB?$AAS?$AAP?$AA1?$AA?$AA@| [ DATA ] ; `string'
	EXPORT	|??_C@_1CI@GBGOEEEM@?$AAO?$AAM?$AAA?$AAP?$AA_?$AAD?$AAE?$AAV?$AAI?$AAC?$AAE?$AA_?$AAS?$AAC?$AAM?$AAC?$AAT?$AAR?$AAL?$AA?$AA@| [ DATA ] ; `string'
	EXPORT	|??_C@_1CC@LKJOOBJM@?$AAO?$AAM?$AAA?$AAP?$AA_?$AAD?$AAE?$AAV?$AAI?$AAC?$AAE?$AA_?$AAI?$AAP?$AAS?$AAS?$AA?$AA@| [ DATA ] ; `string'
	EXPORT	|??_C@_1CC@OJKGELFG@?$AAO?$AAM?$AAA?$AAP?$AA_?$AAD?$AAE?$AAV?$AAI?$AAC?$AAE?$AA_?$AAS?$AAD?$AAR?$AAC?$AA?$AA@| [ DATA ] ; `string'
	EXPORT	|??_C@_1BI@MMHHFKED@?$AAk?$AAG?$AAP?$AAT?$AA1?$AA1?$AA_?$AAF?$AAC?$AAL?$AAK?$AA?$AA@| [ DATA ] ; `string'
	EXPORT	|??_C@_1BI@FBHILLDF@?$AAk?$AAG?$AAP?$AAT?$AA1?$AA0?$AA_?$AAF?$AAC?$AAL?$AAK?$AA?$AA@| [ DATA ] ; `string'
	EXPORT	|??_C@_1CC@CDCMPIGB@?$AAk?$AAG?$AAP?$AAT?$AA9?$AA_?$AAA?$AAL?$AAW?$AAO?$AAN?$AA_?$AAF?$AAC?$AAL?$AAK?$AA?$AA@| [ DATA ] ; `string'
	EXPORT	|??_C@_1CC@MEDBFOPG@?$AAk?$AAG?$AAP?$AAT?$AA8?$AA_?$AAA?$AAL?$AAW?$AAO?$AAN?$AA_?$AAF?$AAC?$AAL?$AAK?$AA?$AA@| [ DATA ] ; `string'
	EXPORT	|??_C@_1CC@EJNLAIGM@?$AAk?$AAG?$AAP?$AAT?$AA7?$AA_?$AAA?$AAL?$AAW?$AAO?$AAN?$AA_?$AAF?$AAC?$AAL?$AAK?$AA?$AA@| [ DATA ] ; `string'
	EXPORT	|??_C@_1CC@KOMGKOPL@?$AAk?$AAG?$AAP?$AAT?$AA6?$AA_?$AAA?$AAL?$AAW?$AAO?$AAN?$AA_?$AAF?$AAC?$AAL?$AAK?$AA?$AA@| [ DATA ] ; `string'
	EXPORT	|??_C@_1CC@FMJBEDAD@?$AAk?$AAG?$AAP?$AAT?$AA5?$AA_?$AAA?$AAL?$AAW?$AAO?$AAN?$AA_?$AAF?$AAC?$AAL?$AAK?$AA?$AA@| [ DATA ] ; `string'
	EXPORT	|??_C@_1CC@LLIMOFJE@?$AAk?$AAG?$AAP?$AAT?$AA4?$AA_?$AAA?$AAL?$AAW?$AAO?$AAN?$AA_?$AAF?$AAC?$AAL?$AAK?$AA?$AA@| [ DATA ] ; `string'
	EXPORT	|??_C@_1CC@GDEPJOLC@?$AAk?$AAG?$AAP?$AAT?$AA3?$AA_?$AAA?$AAL?$AAW?$AAO?$AAN?$AA_?$AAF?$AAC?$AAL?$AAK?$AA?$AA@| [ DATA ] ; `string'
	EXPORT	|??_C@_1CC@IEFCDICF@?$AAk?$AAG?$AAP?$AAT?$AA2?$AA_?$AAA?$AAL?$AAW?$AAO?$AAN?$AA_?$AAF?$AAC?$AAL?$AAK?$AA?$AA@| [ DATA ] ; `string'
	EXPORT	|??_C@_1BG@LBMJBNDI@?$AAk?$AAG?$AAP?$AAT?$AA1?$AA_?$AAF?$AAC?$AAL?$AAK?$AA?$AA@| [ DATA ] ; `string'
	EXPORT	|??_C@_1BE@BKPHEHJG@?$AAk?$AAS?$AAG?$AAX?$AA_?$AAF?$AAC?$AAL?$AAK?$AA?$AA@| [ DATA ] ; `string'
	EXPORT	|??_C@_1BE@OHPPGGKJ@?$AAk?$AA5?$AA4?$AAM?$AA_?$AAF?$AAC?$AAL?$AAK?$AA?$AA@| [ DATA ] ; `string'
	EXPORT	|??_C@_1BE@KPIPADIA@?$AAk?$AA4?$AA8?$AAM?$AA_?$AAF?$AAC?$AAL?$AAK?$AA?$AA@| [ DATA ] ; `string'
	EXPORT	|??_C@_1BE@HMKGDKMA@?$AAk?$AA9?$AA6?$AAM?$AA_?$AAF?$AAC?$AAL?$AAK?$AA?$AA@| [ DATA ] ; `string'
	EXPORT	|??_C@_1BG@FOLAEDFM@?$AAk?$AAU?$AAS?$AAI?$AAM?$AA_?$AAF?$AAC?$AAL?$AAK?$AA?$AA@| [ DATA ] ; `string'
	EXPORT	|??_C@_1BK@FIGBAONF@?$AAk?$AAC?$AAM?$AA_?$AAU?$AAS?$AAI?$AAM?$AA_?$AAC?$AAL?$AAK?$AA?$AA@| [ DATA ] ; `string'
	EXPORT	|??_C@_1CG@INMPAIAN@?$AAk?$AAU?$AAS?$AAB?$AAH?$AAO?$AAS?$AAT?$AA_?$AA1?$AA2?$AA0?$AAM?$AA_?$AAF?$AAC?$AAL?$AAK?$AA?$AA@| [ DATA ] ; `string'
	EXPORT	|??_C@_1BK@DMMIFOKJ@?$AAk?$AAD?$AAS?$AAS?$AA_?$AAT?$AAV?$AA_?$AAF?$AAC?$AAL?$AAK?$AA?$AA@| [ DATA ] ; `string'
	EXPORT	|??_C@_1BO@KGNEDEAO@?$AAk?$AAC?$AAO?$AAR?$AAE?$AA_?$AA1?$AA2?$AAM?$AA_?$AAF?$AAC?$AAL?$AAK?$AA?$AA@| [ DATA ] ; `string'
	EXPORT	|??_C@_1BE@LPMGNIEL@?$AAk?$AA1?$AA2?$AAM?$AA_?$AAF?$AAC?$AAL?$AAK?$AA?$AA@| [ DATA ] ; `string'
	EXPORT	|??_C@_1BM@CNNCGJCM@?$AAk?$AAP?$AAE?$AAR?$AA_?$AA4?$AA8?$AAM?$AA_?$AAF?$AAC?$AAL?$AAK?$AA?$AA@| [ DATA ] ; `string'
	EXPORT	|??_C@_1CE@JDPIHICJ@?$AAk?$AAU?$AAS?$AAB?$AAH?$AAO?$AAS?$AAT?$AA_?$AA4?$AA8?$AAM?$AA_?$AAF?$AAC?$AAL?$AAK?$AA?$AA@| [ DATA ] ; `string'
	EXPORT	|??_C@_1BO@LGJNOPMF@?$AAk?$AAC?$AAO?$AAR?$AAE?$AA_?$AA4?$AA8?$AAM?$AA_?$AAF?$AAC?$AAL?$AAK?$AA?$AA@| [ DATA ] ; `string'
	EXPORT	|??_C@_1BO@MLNMBJDB@?$AAk?$AAC?$AAS?$AAI?$AA2?$AA_?$AA9?$AA6?$AAM?$AA_?$AAF?$AAC?$AAL?$AAK?$AA?$AA@| [ DATA ] ; `string'
	EXPORT	|??_C@_1BM@KGEDNEGH@?$AAk?$AAD?$AAS?$AAS?$AA_?$AA9?$AA6?$AAM?$AA_?$AAF?$AAC?$AAL?$AAK?$AA?$AA@| [ DATA ] ; `string'
	EXPORT	|??_C@_1BO@GFLENGIF@?$AAk?$AAC?$AAO?$AAR?$AAE?$AA_?$AA9?$AA6?$AAM?$AA_?$AAF?$AAC?$AAL?$AAK?$AA?$AA@| [ DATA ] ; `string'
	EXPORT	|??_C@_1BM@JEIEMPJK@?$AAk?$AAS?$AAS?$AAI?$AA_?$AAS?$AAS?$AAT?$AA_?$AAF?$AAC?$AAL?$AAK?$AA?$AA@| [ DATA ] ; `string'
	EXPORT	|??_C@_1BM@GMEGIECM@?$AAk?$AAS?$AAS?$AAI?$AA_?$AAS?$AAS?$AAR?$AA_?$AAF?$AAC?$AAL?$AAK?$AA?$AA@| [ DATA ] ; `string'
	EXPORT	|??_C@_1BI@KNLMECEA@?$AAk?$AAS?$AAR?$AA_?$AAL?$AA4?$AA_?$AAI?$AAC?$AAL?$AAK?$AA?$AA@| [ DATA ] ; `string'
	EXPORT	|??_C@_1BK@JNEICFJE@?$AAk?$AAP?$AAE?$AAR?$AA_?$AAL?$AA4?$AA_?$AAI?$AAC?$AAL?$AAK?$AA?$AA@| [ DATA ] ; `string'
	EXPORT	|??_C@_1CC@CIKJOCKA@?$AAk?$AAU?$AAS?$AAB?$AAH?$AAO?$AAS?$AAT?$AA_?$AAL?$AA4?$AA_?$AAI?$AAC?$AAL?$AAK?$AA?$AA@| [ DATA ] ; `string'
	EXPORT	|??_C@_1CC@ENGEEIGA@?$AAk?$AAU?$AAS?$AAB?$AAH?$AAO?$AAS?$AAT?$AA_?$AAL?$AA3?$AA_?$AAI?$AAC?$AAL?$AAK?$AA?$AA@| [ DATA ] ; `string'
	EXPORT	|??_C@_1BK@HKMFLLIF@?$AAk?$AAC?$AAA?$AAM?$AA_?$AAL?$AA4?$AA_?$AAI?$AAC?$AAL?$AAK?$AA?$AA@| [ DATA ] ; `string'
	EXPORT	|??_C@_1BK@BPAIBBEF@?$AAk?$AAC?$AAA?$AAM?$AA_?$AAL?$AA3?$AA_?$AAI?$AAC?$AAL?$AAK?$AA?$AA@| [ DATA ] ; `string'
	EXPORT	|??_C@_1BK@DFEEOPHB@?$AAk?$AAD?$AAS?$AAS?$AA_?$AAL?$AA4?$AA_?$AAI?$AAC?$AAL?$AAK?$AA?$AA@| [ DATA ] ; `string'
	EXPORT	|??_C@_1BK@FAIJEFLB@?$AAk?$AAD?$AAS?$AAS?$AA_?$AAL?$AA3?$AA_?$AAI?$AAC?$AAL?$AAK?$AA?$AA@| [ DATA ] ; `string'
	EXPORT	|??_C@_1BK@MMOEKMCA@?$AAk?$AAS?$AAS?$AAI?$AA_?$AAL?$AA4?$AA_?$AAI?$AAC?$AAL?$AAK?$AA?$AA@| [ DATA ] ; `string'
	EXPORT	|??_C@_1BK@NJNOEPMC@?$AAk?$AAS?$AAG?$AAX?$AA_?$AAL?$AA3?$AA_?$AAI?$AAC?$AAL?$AAK?$AA?$AA@| [ DATA ] ; `string'
	EXPORT	|??_C@_1CG@CFAPNILK@?$AAk?$AAS?$AAE?$AAC?$AAU?$AAR?$AAI?$AAT?$AAY?$AA_?$AAL?$AA4?$AA_?$AAI?$AAC?$AAL?$AAK?$AA2?$AA?$AA@| [ DATA ] ; `string'
	EXPORT	|??_C@_1CG@DHLKHHFE@?$AAk?$AAS?$AAE?$AAC?$AAU?$AAR?$AAI?$AAT?$AAY?$AA_?$AAL?$AA4?$AA_?$AAI?$AAC?$AAL?$AAK?$AA1?$AA?$AA@| [ DATA ] ; `string'
	EXPORT	|??_C@_1CE@DCCJJJCO@?$AAk?$AAS?$AAE?$AAC?$AAU?$AAR?$AAI?$AAT?$AAY?$AA_?$AAL?$AA3?$AA_?$AAI?$AAC?$AAL?$AAK?$AA?$AA@| [ DATA ] ; `string'
	EXPORT	|??_C@_1BM@GNELHHCO@?$AAk?$AAC?$AAO?$AAR?$AAE?$AA_?$AAL?$AA4?$AA_?$AAI?$AAC?$AAL?$AAK?$AA?$AA@| [ DATA ] ; `string'
	EXPORT	|??_C@_1BM@IIGNNOO@?$AAk?$AAC?$AAO?$AAR?$AAE?$AA_?$AAL?$AA3?$AA_?$AAI?$AAC?$AAL?$AAK?$AA?$AA@| [ DATA ] ; `string'
	EXPORT	|??_C@_1BI@GGLANBIM@?$AAk?$AAD?$AAP?$AAL?$AAL?$AA2?$AA_?$AAF?$AAC?$AAL?$AAK?$AA?$AA@| [ DATA ] ; `string'
	EXPORT	|??_C@_1BI@BKNBPEFH@?$AAk?$AAD?$AAP?$AAL?$AAL?$AA1?$AA_?$AAF?$AAC?$AAL?$AAK?$AA?$AA@| [ DATA ] ; `string'
	EXPORT	|??_C@_1BC@IEJPNIBD@?$AAk?$AAR?$AAM?$AA_?$AAI?$AAC?$AAL?$AAK?$AA?$AA@| [ DATA ] ; `string'
	EXPORT	|??_C@_1BK@EOKLGFAI@?$AAk?$AAU?$AAS?$AAB?$AA_?$AAL?$AA4?$AA_?$AAI?$AAC?$AAL?$AAK?$AA?$AA@| [ DATA ] ; `string'
	EXPORT	|??_C@_1BC@GADFMCD@?$AAk?$AAL?$AA4?$AA_?$AAI?$AAC?$AAL?$AAK?$AA?$AA@| [ DATA ] ; `string'
	EXPORT	|??_C@_1BC@GDMOPGOD@?$AAk?$AAL?$AA3?$AA_?$AAI?$AAC?$AAL?$AAK?$AA?$AA@| [ DATA ] ; `string'
	EXPORT	|??_C@_1CA@PCEHGMIB@?$AAk?$AA9?$AA6?$AAM?$AA_?$AAA?$AAL?$AAW?$AAO?$AAN?$AA_?$AAF?$AAC?$AAL?$AAK?$AA?$AA@| [ DATA ] ; `string'
	EXPORT	|??_C@_1BK@MCHPLJEE@?$AAk?$AAC?$AAM?$AA_?$AA9?$AA6?$AAM?$AA_?$AAF?$AAC?$AAL?$AAK?$AA?$AA@| [ DATA ] ; `string'
	EXPORT	|??_C@_1CA@BBGPJHGP@?$AAk?$AAC?$AAO?$AAR?$AAE?$AA_?$AA1?$AA2?$AA0?$AAM?$AA_?$AAF?$AAC?$AAL?$AAK?$AA?$AA@| [ DATA ] ; `string'
	EXPORT	|??_C@_1CI@EADHIPEB@?$AAk?$AAP?$AAE?$AAR?$AA_?$AA3?$AA2?$AAK?$AA_?$AAA?$AAL?$AAW?$AAO?$AAN?$AA_?$AAF?$AAC?$AAL?$AAK?$AA?$AA@| [ DATA ] ; `string'
	EXPORT	|??_C@_1BO@LPLICNLH@?$AAk?$AAW?$AAK?$AAU?$AAP?$AA_?$AA3?$AA2?$AAK?$AA_?$AAF?$AAC?$AAL?$AAK?$AA?$AA@| [ DATA ] ; `string'
	EXPORT	|??_C@_1BO@FLMCBEDL@?$AAk?$AAC?$AAO?$AAR?$AAE?$AA_?$AA3?$AA2?$AAK?$AA_?$AAF?$AAC?$AAL?$AAK?$AA?$AA@| [ DATA ] ; `string'
	EXPORT	|??_C@_1BI@BEPCGLLM@?$AAk?$AAC?$AAM?$AA_?$AA3?$AA2?$AAK?$AA_?$AAC?$AAL?$AAK?$AA?$AA@| [ DATA ] ; `string'
	EXPORT	|??_C@_1BM@CKBOGBKN@?$AAk?$AAW?$AAK?$AAU?$AAP?$AA_?$AAL?$AA4?$AA_?$AAI?$AAC?$AAL?$AAK?$AA?$AA@| [ DATA ] ; `string'
	EXPORT	|??_C@_1CC@NOFOGNB@?$AAk?$AAD?$AAS?$AAS?$AA2?$AA_?$AAA?$AAL?$AAW?$AAO?$AAN?$AA_?$AAF?$AAC?$AAL?$AAK?$AA?$AA@| [ DATA ] ; `string'
	EXPORT	|??_C@_1BI@OEECMJPN@?$AAk?$AAC?$AAM?$AA_?$AAS?$AAY?$AAS?$AA_?$AAC?$AAL?$AAK?$AA?$AA@| [ DATA ] ; `string'
	EXPORT	|??_C@_1CE@IKHPAHF@?$AAk?$AAD?$AAP?$AAL?$AAL?$AA5?$AA_?$AAA?$AAL?$AAW?$AAO?$AAN?$AA_?$AAF?$AAC?$AAL?$AAK?$AA?$AA@| [ DATA ] ; `string'
	EXPORT	|??_C@_1CE@OPLKFGOC@?$AAk?$AAD?$AAP?$AAL?$AAL?$AA4?$AA_?$AAA?$AAL?$AAW?$AAO?$AAN?$AA_?$AAF?$AAC?$AAL?$AAK?$AA?$AA@| [ DATA ] ; `string'
	EXPORT	|??_C@_1CE@DHHJCNME@?$AAk?$AAD?$AAP?$AAL?$AAL?$AA3?$AA_?$AAA?$AAL?$AAW?$AAO?$AAN?$AA_?$AAF?$AAC?$AAL?$AAK?$AA?$AA@| [ DATA ] ; `string'
	EXPORT	|??_C@_1CE@NAGEILFD@?$AAk?$AAD?$AAP?$AAL?$AAL?$AA2?$AA_?$AAA?$AAL?$AAW?$AAO?$AAN?$AA_?$AAF?$AAC?$AAL?$AAK?$AA?$AA@| [ DATA ] ; `string'
	EXPORT	|??_C@_1CE@CCDDGGKL@?$AAk?$AAD?$AAP?$AAL?$AAL?$AA1?$AA_?$AAA?$AAL?$AAW?$AAO?$AAN?$AA_?$AAF?$AAC?$AAL?$AAK?$AA?$AA@| [ DATA ] ; `string'
	EXPORT	|??_C@_1BO@OFGDLBDE@?$AAk?$AAS?$AAR?$AA_?$AAA?$AAL?$AAW?$AAO?$AAN?$AA_?$AAF?$AAC?$AAL?$AAK?$AA?$AA@| [ DATA ] ; `string'
	EXPORT	|??_C@_1CE@PPGNFPBP@?$AAk?$AAE?$AAF?$AAU?$AAS?$AAE?$AA_?$AAA?$AAL?$AAW?$AAO?$AAN?$AA_?$AAF?$AAC?$AAL?$AAK?$AA?$AA@| [ DATA ] ; `string'
	EXPORT	|??_C@_1CE@KHCGIPEA@?$AAk?$AAU?$AAS?$AAB?$AAH?$AAO?$AAS?$AAT?$AA_?$AAS?$AAA?$AAR?$AA_?$AAF?$AAC?$AAL?$AAK?$AA?$AA@| [ DATA ] ; `string'
	EXPORT	|??_C@_1CC@HCOAMGKK@?$AAk?$AAU?$AAS?$AAB?$AAT?$AAL?$AAL?$AA_?$AAS?$AAA?$AAR?$AA_?$AAF?$AAC?$AAL?$AAK?$AA?$AA@| [ DATA ] ; `string'
	EXPORT	|??_C@_1BI@CMEGODCK@?$AAk?$AAM?$AAC?$AAB?$AAS?$AAP?$AA_?$AAC?$AAL?$AAK?$AAS?$AA?$AA@| [ DATA ] ; `string'
	EXPORT	|??_C@_1CC@EOBIKDKJ@?$AAk?$AAS?$AAE?$AAC?$AAU?$AAR?$AAE?$AA_?$AA3?$AA2?$AAK?$AA_?$AAF?$AAC?$AAL?$AAK?$AA?$AA@| [ DATA ] ; `string'
	EXPORT	|??_C@_1BI@ILMCMCCC@?$AAk?$AAS?$AAY?$AAS?$AA_?$AAA?$AAL?$AAT?$AAC?$AAL?$AAK?$AA?$AA@| [ DATA ] ; `string'
	EXPORT	|??_C@_1BC@HKFDEGNL@?$AAk?$AAS?$AAY?$AAS?$AA_?$AAC?$AAL?$AAK?$AA?$AA@| [ DATA ] ; `string'
	EXPORT	|??_C@_1BE@ECNAPIHO@?$AAk?$AA3?$AA2?$AAK?$AA_?$AAF?$AAC?$AAL?$AAK?$AA?$AA@| [ DATA ] ; `string'
	EXPORT	|??_C@_1BG@DFNNJLGO@?$AAk?$AA1?$AA2?$AA0?$AAM?$AA_?$AAF?$AAC?$AAL?$AAK?$AA?$AA@| [ DATA ] ; `string'
	EXPORT	|??_C@_1CK@BAAFIMCG@?$AAk?$AAE?$AAM?$AAU?$AAL?$AA_?$AAP?$AAE?$AAR?$AA_?$AAA?$AAL?$AAW?$AAO?$AAN?$AA_?$AAC?$AAL?$AAK?$AA?5?$AA?$AA@| [ DATA ] ; `string'
	EXPORT	|??_C@_1BE@HNDENLJM@?$AAk?$AAC?$AAA?$AAM?$AA_?$AAM?$AAC?$AAL?$AAK?$AA?$AA@| [ DATA ] ; `string'
	EXPORT	|??_C@_1CC@PPLCALCJ@?$AAk?$AAD?$AAS?$AAS?$AA1?$AA_?$AAA?$AAL?$AAW?$AAO?$AAN?$AA_?$AAF?$AAC?$AAL?$AAK?$AA?$AA@| [ DATA ] ; `string'
	EXPORT	|??_C@_1CA@EIKHJGPJ@?$AAk?$AAD?$AAP?$AAL?$AAL?$AA4?$AA_?$AAM?$AA3?$AAX?$AA2?$AA_?$AAC?$AAL?$AAK?$AA?$AA@| [ DATA ] ; `string'
	EXPORT	|??_C@_1CG@DJDPLNE@?$AAk?$AAP?$AAR?$AAM?$AA_?$AA9?$AA6?$AAM?$AA_?$AAA?$AAL?$AAW?$AAO?$AAN?$AA_?$AAC?$AAL?$AAK?$AA?$AA@| [ DATA ] ; `string'
	EXPORT	|??_C@_1CK@NDKHMFDM@?$AAk?$AAE?$AAM?$AAU?$AAL?$AA_?$AAC?$AAO?$AAR?$AAE?$AA_?$AAA?$AAL?$AAW?$AAO?$AAN?$AA_?$AAC?$AAL?$AAK?$AA?$AA@| [ DATA ] ; `string'
	EXPORT	|??_C@_1BK@CKNHOHLE@?$AAk?$AAC?$AAO?$AAR?$AAE?$AAX?$AA2?$AA_?$AAF?$AAC?$AAL?$AAK?$AA?$AA@| [ DATA ] ; `string'
	EXPORT	|??_C@_1BE@KIOEPBOF@?$AAk?$AAC?$AAO?$AAR?$AAE?$AA_?$AAC?$AAL?$AAK?$AA?$AA@| [ DATA ] ; `string'
	EXPORT	|??_C@_1BM@LAPEPOFC@?$AAk?$AAD?$AAP?$AAL?$AAL?$AA2?$AA_?$AAM?$AA2?$AA_?$AAC?$AAL?$AAK?$AA?$AA@| [ DATA ] ; `string'
	EXPORT	|??_C@_1CA@KNEGPAKI@?$AAk?$AAD?$AAP?$AAL?$AAL?$AA1?$AA_?$AAM?$AA2?$AAX?$AA2?$AA_?$AAC?$AAL?$AAK?$AA?$AA@| [ DATA ] ; `string'
	EXPORT	|??_C@_1BC@HPLLDAKE@?$AAk?$AAI?$AAN?$AAT?$AA_?$AAO?$AAS?$AAC?$AA?$AA@| [ DATA ] ; `string'
	EXPORT	|??_C@_1BE@CGAEBABM@?$AAk?$AAE?$AAX?$AAT?$AA_?$AAM?$AAI?$AAS?$AAC?$AA?$AA@| [ DATA ] ; `string'
	EXPORT	|??_C@_1BC@GMCNFJOM@?$AAk?$AAE?$AAX?$AAT?$AA_?$AAA?$AAL?$AAT?$AA?$AA@| [ DATA ] ; `string'
	EXPORT	|??_C@_1BK@KJEOLNHN@?$AAk?$AAE?$AAX?$AAT?$AA_?$AAS?$AAY?$AAS?$AA_?$AAC?$AAL?$AAK?$AA?$AA@| [ DATA ] ; `string'
	EXPORT	|??_C@_1CC@LIKIOEDP@?$AAk?$AAD?$AAP?$AAL?$AAL?$AA5?$AA_?$AAC?$AAL?$AAK?$AAO?$AAU?$AAT?$AA_?$AAM?$AA2?$AA?$AA@| [ DATA ] ; `string'
	EXPORT	|??_C@_1CG@JKMHNEID@?$AAk?$AAD?$AAP?$AAL?$AAL?$AA4?$AA_?$AAC?$AAL?$AAK?$AAO?$AAU?$AAT?$AA_?$AAM?$AA6?$AAX?$AA2?$AA?$AA@| [ DATA ] ; `string'
	EXPORT	|??_C@_1CG@BEEINDGA@?$AAk?$AAD?$AAP?$AAL?$AAL?$AA4?$AA_?$AAC?$AAL?$AAK?$AAO?$AAU?$AAT?$AA_?$AAM?$AA5?$AAX?$AA2?$AA?$AA@| [ DATA ] ; `string'
	EXPORT	|??_C@_1CG@NIOCNDPO@?$AAk?$AAD?$AAP?$AAL?$AAL?$AA4?$AA_?$AAC?$AAL?$AAK?$AAO?$AAU?$AAT?$AA_?$AAM?$AA4?$AAX?$AA2?$AA?$AA@| [ DATA ] ; `string'
	EXPORT	|??_C@_1CG@NCCHNKOH@?$AAk?$AAD?$AAP?$AAL?$AAL?$AA4?$AA_?$AAC?$AAL?$AAK?$AAO?$AAU?$AAT?$AA_?$AAM?$AA3?$AAX?$AA2?$AA?$AA@| [ DATA ] ; `string'
	EXPORT	|??_C@_1CG@BOINNKHJ@?$AAk?$AAD?$AAP?$AAL?$AAL?$AA4?$AA_?$AAC?$AAL?$AAK?$AAO?$AAU?$AAT?$AA_?$AAM?$AA2?$AAX?$AA2?$AA?$AA@| [ DATA ] ; `string'
	EXPORT	|??_C@_1CG@NGCOCJLE@?$AAk?$AAD?$AAP?$AAL?$AAL?$AA3?$AA_?$AAC?$AAL?$AAK?$AAO?$AAU?$AAT?$AA_?$AAM?$AA3?$AAX?$AA2?$AA?$AA@| [ DATA ] ; `string'
	EXPORT	|??_C@_1CG@BKIECJCK@?$AAk?$AAD?$AAP?$AAL?$AAL?$AA3?$AA_?$AAC?$AAL?$AAK?$AAO?$AAU?$AAT?$AA_?$AAM?$AA2?$AAX?$AA2?$AA?$AA@| [ DATA ] ; `string'
	EXPORT	|??_C@_1CC@IJFLGGP@?$AAk?$AAD?$AAP?$AAL?$AAL?$AA3?$AA_?$AAC?$AAL?$AAK?$AAO?$AAU?$AAT?$AA_?$AAM?$AA2?$AA?$AA@| [ DATA ] ; `string'
	EXPORT	|??_C@_1CC@IJLANDEI@?$AAk?$AAD?$AAP?$AAL?$AAL?$AA2?$AA_?$AAC?$AAL?$AAK?$AAO?$AAU?$AAT?$AA_?$AAM?$AA2?$AA?$AA@| [ DATA ] ; `string'
	EXPORT	|??_C@_1CG@BJOPNDBA@?$AAk?$AAD?$AAP?$AAL?$AAL?$AA1?$AA_?$AAC?$AAL?$AAK?$AAO?$AAU?$AAT?$AA_?$AAM?$AA2?$AAX?$AA2?$AA?$AA@| [ DATA ] ; `string'
	EXPORT	|??_C@_1BG@FJDLHCCD@?$AAk?$AAE?$AAX?$AAT?$AA_?$AA3?$AA2?$AAK?$AAH?$AAZ?$AA?$AA@| [ DATA ] ; `string'
	EXPORT	|??_C@_1BE@EHNFPPJL@?$AAk?$AAD?$AAP?$AAL?$AAL?$AA_?$AAE?$AAX?$AAT?$AA?$AA@| [ DATA ] ; `string'
	EXPORT	|??_C@_1O@KGINCNBN@?$AAk?$AAD?$AAP?$AAL?$AAL?$AA5?$AA?$AA@| [ DATA ] ; `string'
	EXPORT	|??_C@_1O@BODBEKHI@?$AAk?$AAD?$AAP?$AAL?$AAL?$AA4?$AA?$AA@| [ DATA ] ; `string'
	EXPORT	|??_C@_1O@IDOGHCMB@?$AAk?$AAD?$AAP?$AAL?$AAL?$AA3?$AA?$AA@| [ DATA ] ; `string'
	EXPORT	|??_C@_1O@DLFKBFKE@?$AAk?$AAD?$AAP?$AAL?$AAL?$AA2?$AA?$AA@| [ DATA ] ; `string'
	EXPORT	|??_C@_1O@CJOPLKEK@?$AAk?$AAD?$AAP?$AAL?$AAL?$AA1?$AA?$AA@| [ DATA ] ; `string'
	EXPORT	|??_C@_1BE@KENFMBEG@?$AAk?$AAM?$AAM?$AAC?$AA_?$AAV?$AAD?$AAD?$AAS?$AA?$AA@| [ DATA ] ; `string'
	EXPORT	|??_C@_1BC@ODEKFAPK@?$AAk?$AAV?$AAD?$AAD?$AAA?$AAD?$AAA?$AAC?$AA?$AA@| [ DATA ] ; `string'
	EXPORT	|??_C@_1BA@PHFNGHLK@?$AAk?$AAV?$AAD?$AAD?$AAP?$AAL?$AAL?$AA?$AA@| [ DATA ] ; `string'
	EXPORT	|??_C@_1M@IJEGCDLI@?$AAk?$AAV?$AAD?$AAD?$AAS?$AA?$AA@| [ DATA ] ; `string'
	EXPORT	|??_C@_1BC@PPJANNEK@?$AAk?$AAV?$AAD?$AAD?$AA_?$AAE?$AAX?$AAT?$AA?$AA@| [ DATA ] ; `string'
	EXPORT	|??_C@_1M@JHALILGH@?$AAk?$AAV?$AAD?$AAD?$AA5?$AA?$AA@| [ DATA ] ; `string'
	EXPORT	|??_C@_1M@CPLHOMAC@?$AAk?$AAV?$AAD?$AAD?$AA4?$AA?$AA@| [ DATA ] ; `string'
	EXPORT	|??_C@_1M@LCGANELL@?$AAk?$AAV?$AAD?$AAD?$AA3?$AA?$AA@| [ DATA ] ; `string'
	EXPORT	|??_C@_1M@KNMLDNO@?$AAk?$AAV?$AAD?$AAD?$AA2?$AA?$AA@| [ DATA ] ; `string'
	EXPORT	|??_C@_1M@BIGJBMDA@?$AAk?$AAV?$AAD?$AAD?$AA1?$AA?$AA@| [ DATA ] ; `string'
	EXPORT	|_ssr_fclk| [ DATA ]
	EXPORT	|_dss1_fclk| [ DATA ]
	EXPORT	|_usim_fclk| [ DATA ]
	EXPORT	|_cm_usim_fclk| [ DATA ]
	EXPORT	|_sgx_fclk| [ DATA ]
	EXPORT	|_tv_fclk| [ DATA ]
	EXPORT	|s_VddTable| [ DATA ]
	EXPORT	|s_DpllTable| [ DATA ]
	EXPORT	|s_DpllClkOutTable| [ DATA ]
	EXPORT	|s_SrcClockTable| [ DATA ]
	EXPORT	|s_VddNameTable| [ DATA ]
	EXPORT	|s_DpllNameTable| [ DATA ]
	EXPORT	|s_DpllClkOutNameTable| [ DATA ]
	EXPORT	|s_SrcClockNameTable| [ DATA ]
	EXPORT	|DeviceNames| [ DATA ]
	EXPORT	|DumpRegArray| [ DATA ]

  00000			 AREA	 |.bss|, NOINIT
|s_VddTable| %	0x28

  00000			 AREA	 |.rdata|, DATA, READONLY
|??_C@_1CK@MFCDILAE@?$AAP?$AAM?$AA_?$AAP?$AAR?$AAE?$AAP?$AAW?$AAS?$AAT?$AAS?$AAT?$AA_?$AAU?$AAS?$AAB?$AAH?$AAO?$AAS?$AAT?$AA?$AA@| DCB "P"
	DCB	0x0, "M", 0x0, "_", 0x0, "P", 0x0, "R", 0x0, "E", 0x0, "P"
	DCB	0x0, "W", 0x0, "S", 0x0, "T", 0x0, "S", 0x0, "T", 0x0, "_"
	DCB	0x0, "U", 0x0, "S", 0x0, "B", 0x0, "H", 0x0, "O", 0x0, "S"
	DCB	0x0, "T", 0x0, 0x0, 0x0			; `string'

  00000			 AREA	 |.rdata|, DATA, READONLY
|??_C@_1CE@DINMMLDJ@?$AAP?$AAM?$AA_?$AAP?$AAW?$AAS?$AAT?$AAS?$AAT?$AA_?$AAU?$AAS?$AAB?$AAH?$AAO?$AAS?$AAT?$AA?$AA@| DCB "P"
	DCB	0x0, "M", 0x0, "_", 0x0, "P", 0x0, "W", 0x0, "S", 0x0, "T"
	DCB	0x0, "S", 0x0, "T", 0x0, "_", 0x0, "U", 0x0, "S", 0x0, "B"
	DCB	0x0, "H", 0x0, "O", 0x0, "S", 0x0, "T", 0x0, 0x0, 0x0 ; `string'

  00000			 AREA	 |.rdata|, DATA, READONLY
|??_C@_1CI@NFFMDMCO@?$AAP?$AAM?$AA_?$AAP?$AAW?$AAS?$AAT?$AAC?$AAT?$AAR?$AAL?$AA_?$AAU?$AAS?$AAB?$AAH?$AAO?$AAS?$AAT?$AA?$AA@| DCB "P"
	DCB	0x0, "M", 0x0, "_", 0x0, "P", 0x0, "W", 0x0, "S", 0x0, "T"
	DCB	0x0, "C", 0x0, "T", 0x0, "R", 0x0, "L", 0x0, "_", 0x0, "U"
	DCB	0x0, "S", 0x0, "B", 0x0, "H", 0x0, "O", 0x0, "S", 0x0, "T"
	DCB	0x0, 0x0, 0x0				; `string'

  00000			 AREA	 |.rdata|, DATA, READONLY
|??_C@_1CC@BANAFHHA@?$AAP?$AAM?$AA_?$AAW?$AAK?$AAD?$AAE?$AAP?$AA_?$AAU?$AAS?$AAB?$AAH?$AAO?$AAS?$AAT?$AA?$AA@| DCB "P"
	DCB	0x0, "M", 0x0, "_", 0x0, "W", 0x0, "K", 0x0, "D", 0x0, "E"
	DCB	0x0, "P", 0x0, "_", 0x0, "U", 0x0, "S", 0x0, "B", 0x0, "H"
	DCB	0x0, "O", 0x0, "S", 0x0, "T", 0x0, 0x0, 0x0 ; `string'

  00000			 AREA	 |.rdata|, DATA, READONLY
|??_C@_1CA@CDELFGFE@?$AAP?$AAM?$AA_?$AAW?$AAK?$AAS?$AAT?$AA_?$AAU?$AAS?$AAB?$AAH?$AAO?$AAS?$AAT?$AA?$AA@| DCB "P"
	DCB	0x0, "M", 0x0, "_", 0x0, "W", 0x0, "K", 0x0, "S", 0x0, "T"
	DCB	0x0, "_", 0x0, "U", 0x0, "S", 0x0, "B", 0x0, "H", 0x0, "O"
	DCB	0x0, "S", 0x0, "T", 0x0, 0x0, 0x0	; `string'

  00000			 AREA	 |.rdata|, DATA, READONLY
|??_C@_1CM@CGFHEIFF@?$AAP?$AAM?$AA_?$AAI?$AAV?$AAA?$AA2?$AAG?$AAR?$AAP?$AAS?$AAE?$AAL?$AA_?$AAU?$AAS?$AAB?$AAH?$AAO?$AAS?$AAT?$AA?$AA@| DCB "P"
	DCB	0x0, "M", 0x0, "_", 0x0, "I", 0x0, "V", 0x0, "A", 0x0, "2"
	DCB	0x0, "G", 0x0, "R", 0x0, "P", 0x0, "S", 0x0, "E", 0x0, "L"
	DCB	0x0, "_", 0x0, "U", 0x0, "S", 0x0, "B", 0x0, "H", 0x0, "O"
	DCB	0x0, "S", 0x0, "T", 0x0, 0x0, 0x0	; `string'

  00000			 AREA	 |.rdata|, DATA, READONLY
|??_C@_1CK@KEHDDHL@?$AAP?$AAM?$AA_?$AAM?$AAP?$AAU?$AAG?$AAR?$AAP?$AAS?$AAE?$AAL?$AA_?$AAU?$AAS?$AAB?$AAH?$AAO?$AAS?$AAT?$AA?$AA@| DCB "P"
	DCB	0x0, "M", 0x0, "_", 0x0, "M", 0x0, "P", 0x0, "U", 0x0, "G"
	DCB	0x0, "R", 0x0, "P", 0x0, "S", 0x0, "E", 0x0, "L", 0x0, "_"
	DCB	0x0, "U", 0x0, "S", 0x0, "B", 0x0, "H", 0x0, "O", 0x0, "S"
	DCB	0x0, "T", 0x0, 0x0, 0x0			; `string'

  00000			 AREA	 |.rdata|, DATA, READONLY
|??_C@_1CA@EPJOENIO@?$AAP?$AAM?$AA_?$AAW?$AAK?$AAE?$AAN?$AA_?$AAU?$AAS?$AAB?$AAH?$AAO?$AAS?$AAT?$AA?$AA@| DCB "P"
	DCB	0x0, "M", 0x0, "_", 0x0, "W", 0x0, "K", 0x0, "E", 0x0, "N"
	DCB	0x0, "_", 0x0, "U", 0x0, "S", 0x0, "B", 0x0, "H", 0x0, "O"
	DCB	0x0, "S", 0x0, "T", 0x0, 0x0, 0x0	; `string'

  00000			 AREA	 |.rdata|, DATA, READONLY
|??_C@_1CC@ELENAOBE@?$AAR?$AAM?$AA_?$AAR?$AAS?$AAT?$AAS?$AAT?$AA_?$AAU?$AAS?$AAB?$AAH?$AAO?$AAS?$AAT?$AA?$AA@| DCB "R"
	DCB	0x0, "M", 0x0, "_", 0x0, "R", 0x0, "S", 0x0, "T", 0x0, "S"
	DCB	0x0, "T", 0x0, "_", 0x0, "U", 0x0, "S", 0x0, "B", 0x0, "H"
	DCB	0x0, "O", 0x0, "S", 0x0, "T", 0x0, 0x0, 0x0 ; `string'

  00000			 AREA	 |.rdata|, DATA, READONLY
|??_C@_1BI@BEADJOPF@?$AAU?$AAS?$AAB?$AAH?$AAO?$AAS?$AAT?$AA_?$AAP?$AAR?$AAM?$AA?$AA@| DCB "U"
	DCB	0x0, "S", 0x0, "B", 0x0, "H", 0x0, "O", 0x0, "S", 0x0, "T"
	DCB	0x0, "_", 0x0, "P", 0x0, "R", 0x0, "M", 0x0, 0x0, 0x0 ; `string'

  00000			 AREA	 |.rdata|, DATA, READONLY
|??_C@_1CE@PAIDKKJJ@?$AAP?$AAM?$AA_?$AAP?$AAR?$AAE?$AAP?$AAW?$AAS?$AAT?$AAS?$AAT?$AA_?$AAN?$AAE?$AAO?$AAN?$AA?$AA@| DCB "P"
	DCB	0x0, "M", 0x0, "_", 0x0, "P", 0x0, "R", 0x0, "E", 0x0, "P"
	DCB	0x0, "W", 0x0, "S", 0x0, "T", 0x0, "S", 0x0, "T", 0x0, "_"
	DCB	0x0, "N", 0x0, "E", 0x0, "O", 0x0, "N", 0x0, 0x0, 0x0 ; `string'

  00000			 AREA	 |.rdata|, DATA, READONLY
|??_C@_1BO@FMNCDJII@?$AAP?$AAM?$AA_?$AAP?$AAW?$AAS?$AAT?$AAS?$AAT?$AA_?$AAN?$AAE?$AAO?$AAN?$AA?$AA@| DCB "P"
	DCB	0x0, "M", 0x0, "_", 0x0, "P", 0x0, "W", 0x0, "S", 0x0, "T"
	DCB	0x0, "S", 0x0, "T", 0x0, "_", 0x0, "N", 0x0, "E", 0x0, "O"
	DCB	0x0, "N", 0x0, 0x0, 0x0			; `string'

  00000			 AREA	 |.rdata|, DATA, READONLY
|??_C@_1CC@LCEDCBK@?$AAP?$AAM?$AA_?$AAP?$AAW?$AAS?$AAT?$AAC?$AAT?$AAR?$AAL?$AA_?$AAN?$AAE?$AAO?$AAN?$AA?$AA@| DCB "P"
	DCB	0x0, "M", 0x0, "_", 0x0, "P", 0x0, "W", 0x0, "S", 0x0, "T"
	DCB	0x0, "C", 0x0, "T", 0x0, "R", 0x0, "L", 0x0, "_", 0x0, "N"
	DCB	0x0, "E", 0x0, "O", 0x0, "N", 0x0, 0x0, 0x0 ; `string'

  00000			 AREA	 |.rdata|, DATA, READONLY
|??_C@_1BM@GLAGIPO@?$AAP?$AAM?$AA_?$AAW?$AAK?$AAD?$AAE?$AAP?$AA_?$AAN?$AAE?$AAO?$AAN?$AA?$AA@| DCB "P"
	DCB	0x0, "M", 0x0, "_", 0x0, "W", 0x0, "K", 0x0, "D", 0x0, "E"
	DCB	0x0, "P", 0x0, "_", 0x0, "N", 0x0, "E", 0x0, "O", 0x0, "N"
	DCB	0x0, 0x0, 0x0				; `string'

  00000			 AREA	 |.rdata|, DATA, READONLY
|??_C@_1BM@LBPGJMOK@?$AAR?$AAM?$AA_?$AAR?$AAS?$AAT?$AAS?$AAT?$AA_?$AAN?$AAE?$AAO?$AAN?$AA?$AA@| DCB "R"
	DCB	0x0, "M", 0x0, "_", 0x0, "R", 0x0, "S", 0x0, "T", 0x0, "S"
	DCB	0x0, "T", 0x0, "_", 0x0, "N", 0x0, "E", 0x0, "O", 0x0, "N"
	DCB	0x0, 0x0, 0x0				; `string'

  00000			 AREA	 |.rdata|, DATA, READONLY
|??_C@_1BC@JEBNFJEB@?$AAN?$AAE?$AAO?$AAN?$AA_?$AAP?$AAR?$AAM?$AA?$AA@| DCB "N"
	DCB	0x0, "E", 0x0, "O", 0x0, "N", 0x0, "_", 0x0, "P", 0x0, "R"
	DCB	0x0, "M", 0x0, 0x0, 0x0			; `string'

  00000			 AREA	 |.rdata|, DATA, READONLY
|??_C@_1BO@OOEJDAGP@?$AAP?$AAR?$AAM?$AA_?$AAV?$AAO?$AAL?$AAT?$AAS?$AAE?$AAT?$AAU?$AAP?$AA2?$AA?$AA@| DCB "P"
	DCB	0x0, "R", 0x0, "M", 0x0, "_", 0x0, "V", 0x0, "O", 0x0, "L"
	DCB	0x0, "T", 0x0, "S", 0x0, "E", 0x0, "T", 0x0, "U", 0x0, "P"
	DCB	0x0, "2", 0x0, 0x0, 0x0			; `string'

  00000			 AREA	 |.rdata|, DATA, READONLY
|??_C@_1BI@HHOAEAAO@?$AAP?$AAR?$AAM?$AA_?$AAP?$AAO?$AAL?$AAC?$AAT?$AAR?$AAL?$AA?$AA@| DCB "P"
	DCB	0x0, "R", 0x0, "M", 0x0, "_", 0x0, "P", 0x0, "O", 0x0, "L"
	DCB	0x0, "C", 0x0, "T", 0x0, "R", 0x0, "L", 0x0, 0x0, 0x0 ; `string'

  00000			 AREA	 |.rdata|, DATA, READONLY
|??_C@_1BK@INLANGOK@?$AAP?$AAR?$AAM?$AA_?$AAC?$AAL?$AAK?$AAS?$AAE?$AAT?$AAU?$AAP?$AA?$AA@| DCB "P"
	DCB	0x0, "R", 0x0, "M", 0x0, "_", 0x0, "C", 0x0, "L", 0x0, "K"
	DCB	0x0, "S", 0x0, "E", 0x0, "T", 0x0, "U", 0x0, "P", 0x0, 0x0
	DCB	0x0					; `string'

  00000			 AREA	 |.rdata|, DATA, READONLY
|??_C@_1BO@HNPCCMHL@?$AAP?$AAR?$AAM?$AA_?$AAV?$AAO?$AAL?$AAT?$AAO?$AAF?$AAF?$AAS?$AAE?$AAT?$AA?$AA@| DCB "P"
	DCB	0x0, "R", 0x0, "M", 0x0, "_", 0x0, "V", 0x0, "O", 0x0, "L"
	DCB	0x0, "T", 0x0, "O", 0x0, "F", 0x0, "F", 0x0, "S", 0x0, "E"
	DCB	0x0, "T", 0x0, 0x0, 0x0			; `string'

  00000			 AREA	 |.rdata|, DATA, READONLY
|??_C@_1BO@PMPMJPIB@?$AAP?$AAR?$AAM?$AA_?$AAV?$AAO?$AAL?$AAT?$AAS?$AAE?$AAT?$AAU?$AAP?$AA1?$AA?$AA@| DCB "P"
	DCB	0x0, "R", 0x0, "M", 0x0, "_", 0x0, "V", 0x0, "O", 0x0, "L"
	DCB	0x0, "T", 0x0, "S", 0x0, "E", 0x0, "T", 0x0, "U", 0x0, "P"
	DCB	0x0, "1", 0x0, 0x0, 0x0			; `string'

  00000			 AREA	 |.rdata|, DATA, READONLY
|??_C@_1BA@JADOMDEP@?$AAP?$AAR?$AAM?$AA_?$AAO?$AAB?$AAS?$AA?$AA@| DCB "P", 0x0
	DCB	"R", 0x0, "M", 0x0, "_", 0x0, "O", 0x0, "B", 0x0, "S", 0x0
	DCB	0x0, 0x0				; `string'

  00000			 AREA	 |.rdata|, DATA, READONLY
|??_C@_1CA@DKBCEFNM@?$AAP?$AAR?$AAM?$AA_?$AAC?$AAL?$AAK?$AAS?$AAR?$AAC?$AA_?$AAC?$AAT?$AAR?$AAL?$AA?$AA@| DCB "P"
	DCB	0x0, "R", 0x0, "M", 0x0, "_", 0x0, "C", 0x0, "L", 0x0, "K"
	DCB	0x0, "S", 0x0, "R", 0x0, "C", 0x0, "_", 0x0, "C", 0x0, "T"
	DCB	0x0, "R", 0x0, "L", 0x0, 0x0, 0x0	; `string'

  00000			 AREA	 |.rdata|, DATA, READONLY
|??_C@_1CC@PEAEBONP@?$AAP?$AAR?$AAM?$AA_?$AAS?$AAR?$AAA?$AAM?$AA_?$AAP?$AAC?$AAH?$AAA?$AAR?$AAG?$AAE?$AA?$AA@| DCB "P"
	DCB	0x0, "R", 0x0, "M", 0x0, "_", 0x0, "S", 0x0, "R", 0x0, "A"
	DCB	0x0, "M", 0x0, "_", 0x0, "P", 0x0, "C", 0x0, "H", 0x0, "A"
	DCB	0x0, "R", 0x0, "G", 0x0, "E", 0x0, 0x0, 0x0 ; `string'

  00000			 AREA	 |.rdata|, DATA, READONLY
|??_C@_1BK@HFKALEHA@?$AAP?$AAR?$AAM?$AA_?$AAV?$AAO?$AAL?$AAT?$AAC?$AAT?$AAR?$AAL?$AA?$AA@| DCB "P"
	DCB	0x0, "R", 0x0, "M", 0x0, "_", 0x0, "V", 0x0, "O", 0x0, "L"
	DCB	0x0, "T", 0x0, "C", 0x0, "T", 0x0, "R", 0x0, "L", 0x0, 0x0
	DCB	0x0					; `string'

  00000			 AREA	 |.rdata|, DATA, READONLY
|??_C@_1BE@HPDPAFDK@?$AAP?$AAR?$AAM?$AA_?$AAR?$AAS?$AAT?$AAS?$AAT?$AA?$AA@| DCB "P"
	DCB	0x0, "R", 0x0, "M", 0x0, "_", 0x0, "R", 0x0, "S", 0x0, "T"
	DCB	0x0, "S", 0x0, "T", 0x0, 0x0, 0x0	; `string'

  00000			 AREA	 |.rdata|, DATA, READONLY
|??_C@_1BI@BLFHBCIB@?$AAP?$AAR?$AAM?$AA_?$AAR?$AAS?$AAT?$AAT?$AAI?$AAM?$AAE?$AA?$AA@| DCB "P"
	DCB	0x0, "R", 0x0, "M", 0x0, "_", 0x0, "R", 0x0, "S", 0x0, "T"
	DCB	0x0, "T", 0x0, "I", 0x0, "M", 0x0, "E", 0x0, 0x0, 0x0 ; `string'

  00000			 AREA	 |.rdata|, DATA, READONLY
|??_C@_1BI@LGBDFDCO@?$AAP?$AAR?$AAM?$AA_?$AAR?$AAS?$AAT?$AAC?$AAT?$AAR?$AAL?$AA?$AA@| DCB "P"
	DCB	0x0, "R", 0x0, "M", 0x0, "_", 0x0, "R", 0x0, "S", 0x0, "T"
	DCB	0x0, "C", 0x0, "T", 0x0, "R", 0x0, "L", 0x0, 0x0, 0x0 ; `string'

  00000			 AREA	 |.rdata|, DATA, READONLY
|??_C@_1CE@LCNFDOGA@?$AAP?$AAR?$AAM?$AA_?$AAV?$AAC?$AA_?$AAB?$AAY?$AAP?$AAA?$AAS?$AAS?$AA_?$AAV?$AAA?$AAL?$AA?$AA@| DCB "P"
	DCB	0x0, "R", 0x0, "M", 0x0, "_", 0x0, "V", 0x0, "C", 0x0, "_"
	DCB	0x0, "B", 0x0, "Y", 0x0, "P", 0x0, "A", 0x0, "S", 0x0, "S"
	DCB	0x0, "_", 0x0, "V", 0x0, "A", 0x0, "L", 0x0, 0x0, 0x0 ; `string'

  00000			 AREA	 |.rdata|, DATA, READONLY
|??_C@_1BO@CDICEJPF@?$AAP?$AAR?$AAM?$AA_?$AAV?$AAC?$AA_?$AAI?$AA2?$AAC?$AA_?$AAC?$AAF?$AAG?$AA?$AA@| DCB "P"
	DCB	0x0, "R", 0x0, "M", 0x0, "_", 0x0, "V", 0x0, "C", 0x0, "_"
	DCB	0x0, "I", 0x0, "2", 0x0, "C", 0x0, "_", 0x0, "C", 0x0, "F"
	DCB	0x0, "G", 0x0, 0x0, 0x0			; `string'

  00000			 AREA	 |.rdata|, DATA, READONLY
|??_C@_1BO@NIKJKLFL@?$AAP?$AAR?$AAM?$AA_?$AAV?$AAC?$AA_?$AAC?$AAH?$AA_?$AAC?$AAO?$AAN?$AAF?$AA?$AA@| DCB "P"
	DCB	0x0, "R", 0x0, "M", 0x0, "_", 0x0, "V", 0x0, "C", 0x0, "_"
	DCB	0x0, "C", 0x0, "H", 0x0, "_", 0x0, "C", 0x0, "O", 0x0, "N"
	DCB	0x0, "F", 0x0, 0x0, 0x0			; `string'

  00000			 AREA	 |.rdata|, DATA, READONLY
|??_C@_1CC@GOJIALCP@?$AAP?$AAR?$AAM?$AA_?$AAV?$AAC?$AA_?$AAC?$AAM?$AAD?$AA_?$AAV?$AAA?$AAL?$AA_?$AA1?$AA?$AA@| DCB "P"
	DCB	0x0, "R", 0x0, "M", 0x0, "_", 0x0, "V", 0x0, "C", 0x0, "_"
	DCB	0x0, "C", 0x0, "M", 0x0, "D", 0x0, "_", 0x0, "V", 0x0, "A"
	DCB	0x0, "L", 0x0, "_", 0x0, "1", 0x0, 0x0, 0x0 ; `string'

  00000			 AREA	 |.rdata|, DATA, READONLY
|??_C@_1CC@NGCEGMEK@?$AAP?$AAR?$AAM?$AA_?$AAV?$AAC?$AA_?$AAC?$AAM?$AAD?$AA_?$AAV?$AAA?$AAL?$AA_?$AA0?$AA?$AA@| DCB "P"
	DCB	0x0, "R", 0x0, "M", 0x0, "_", 0x0, "V", 0x0, "C", 0x0, "_"
	DCB	0x0, "C", 0x0, "M", 0x0, "D", 0x0, "_", 0x0, "V", 0x0, "A"
	DCB	0x0, "L", 0x0, "_", 0x0, "0", 0x0, 0x0, 0x0 ; `string'

  00000			 AREA	 |.rdata|, DATA, READONLY
|??_C@_1CG@PFFOICKB@?$AAP?$AAR?$AAM?$AA_?$AAV?$AAC?$AA_?$AAS?$AAM?$AAP?$AAS?$AA_?$AAC?$AAM?$AAD?$AA_?$AAR?$AAA?$AA?$AA@| DCB "P"
	DCB	0x0, "R", 0x0, "M", 0x0, "_", 0x0, "V", 0x0, "C", 0x0, "_"
	DCB	0x0, "S", 0x0, "M", 0x0, "P", 0x0, "S", 0x0, "_", 0x0, "C"
	DCB	0x0, "M", 0x0, "D", 0x0, "_", 0x0, "R", 0x0, "A", 0x0, 0x0
	DCB	0x0					; `string'

  00000			 AREA	 |.rdata|, DATA, READONLY
|??_C@_1CG@OIKDAOML@?$AAP?$AAR?$AAM?$AA_?$AAV?$AAC?$AA_?$AAS?$AAM?$AAP?$AAS?$AA_?$AAV?$AAO?$AAL?$AA_?$AAR?$AAA?$AA?$AA@| DCB "P"
	DCB	0x0, "R", 0x0, "M", 0x0, "_", 0x0, "V", 0x0, "C", 0x0, "_"
	DCB	0x0, "S", 0x0, "M", 0x0, "P", 0x0, "S", 0x0, "_", 0x0, "V"
	DCB	0x0, "O", 0x0, "L", 0x0, "_", 0x0, "R", 0x0, "A", 0x0, 0x0
	DCB	0x0					; `string'

  00000			 AREA	 |.rdata|, DATA, READONLY
|??_C@_1BO@LBDDPNOG@?$AAP?$AAR?$AAM?$AA_?$AAV?$AAC?$AA_?$AAS?$AAM?$AAP?$AAS?$AA_?$AAS?$AAA?$AA?$AA@| DCB "P"
	DCB	0x0, "R", 0x0, "M", 0x0, "_", 0x0, "V", 0x0, "C", 0x0, "_"
	DCB	0x0, "S", 0x0, "M", 0x0, "P", 0x0, "S", 0x0, "_", 0x0, "S"
	DCB	0x0, "A", 0x0, 0x0, 0x0			; `string'

  00000			 AREA	 |.rdata|, DATA, READONLY
|??_C@_1BO@CAKCDBHG@?$AAG?$AAl?$AAo?$AAb?$AAa?$AAl?$AA_?$AAR?$AAe?$AAg?$AA_?$AAP?$AAR?$AAM?$AA?$AA@| DCB "G"
	DCB	0x0, "l", 0x0, "o", 0x0, "b", 0x0, "a", 0x0, "l", 0x0, "_"
	DCB	0x0, "R", 0x0, "e", 0x0, "g", 0x0, "_", 0x0, "P", 0x0, "R"
	DCB	0x0, "M", 0x0, 0x0, 0x0			; `string'

  00000			 AREA	 |.rdata|, DATA, READONLY
|??_C@_1BM@NIBECDJF@?$AAP?$AAM?$AA_?$AAP?$AAW?$AAS?$AAT?$AAS?$AAT?$AA_?$AAE?$AAM?$AAU?$AA?$AA@| DCB "P"
	DCB	0x0, "M", 0x0, "_", 0x0, "P", 0x0, "W", 0x0, "S", 0x0, "T"
	DCB	0x0, "S", 0x0, "T", 0x0, "_", 0x0, "E", 0x0, "M", 0x0, "U"
	DCB	0x0, 0x0, 0x0				; `string'

  00000			 AREA	 |.rdata|, DATA, READONLY
|??_C@_1BK@PHFAAKFB@?$AAR?$AAM?$AA_?$AAR?$AAS?$AAT?$AAS?$AAT?$AA_?$AAE?$AAM?$AAU?$AA?$AA@| DCB "R"
	DCB	0x0, "M", 0x0, "_", 0x0, "R", 0x0, "S", 0x0, "T", 0x0, "S"
	DCB	0x0, "T", 0x0, "_", 0x0, "E", 0x0, "M", 0x0, "U", 0x0, 0x0
	DCB	0x0					; `string'

  00000			 AREA	 |.rdata|, DATA, READONLY
|??_C@_1BA@CAPJDCOP@?$AAE?$AAM?$AAU?$AA_?$AAP?$AAR?$AAM?$AA?$AA@| DCB "E", 0x0
	DCB	"M", 0x0, "U", 0x0, "_", 0x0, "P", 0x0, "R", 0x0, "M", 0x0
	DCB	0x0, 0x0				; `string'

  00000			 AREA	 |.rdata|, DATA, READONLY
|??_C@_1CC@EPBJKNIO@?$AAP?$AAM?$AA_?$AAP?$AAR?$AAE?$AAP?$AAW?$AAS?$AAT?$AAS?$AAT?$AA_?$AAP?$AAE?$AAR?$AA?$AA@| DCB "P"
	DCB	0x0, "M", 0x0, "_", 0x0, "P", 0x0, "R", 0x0, "E", 0x0, "P"
	DCB	0x0, "W", 0x0, "S", 0x0, "T", 0x0, "S", 0x0, "T", 0x0, "_"
	DCB	0x0, "P", 0x0, "E", 0x0, "R", 0x0, 0x0, 0x0 ; `string'

  00000			 AREA	 |.rdata|, DATA, READONLY
|??_C@_1BM@JNMLKGAO@?$AAP?$AAM?$AA_?$AAP?$AAW?$AAS?$AAT?$AAS?$AAT?$AA_?$AAP?$AAE?$AAR?$AA?$AA@| DCB "P"
	DCB	0x0, "M", 0x0, "_", 0x0, "P", 0x0, "W", 0x0, "S", 0x0, "T"
	DCB	0x0, "S", 0x0, "T", 0x0, "_", 0x0, "P", 0x0, "E", 0x0, "R"
	DCB	0x0, 0x0, 0x0				; `string'

  00000			 AREA	 |.rdata|, DATA, READONLY
|??_C@_1CA@EHOJHBAJ@?$AAP?$AAM?$AA_?$AAP?$AAW?$AAS?$AAT?$AAC?$AAT?$AAR?$AAL?$AA_?$AAP?$AAE?$AAR?$AA?$AA@| DCB "P"
	DCB	0x0, "M", 0x0, "_", 0x0, "P", 0x0, "W", 0x0, "S", 0x0, "T"
	DCB	0x0, "C", 0x0, "T", 0x0, "R", 0x0, "L", 0x0, "_", 0x0, "P"
	DCB	0x0, "E", 0x0, "R", 0x0, 0x0, 0x0	; `string'

  00000			 AREA	 |.rdata|, DATA, READONLY
|??_C@_1BK@MOOMJEJF@?$AAP?$AAM?$AA_?$AAW?$AAK?$AAD?$AAE?$AAP?$AA_?$AAP?$AAE?$AAR?$AA?$AA@| DCB "P"
	DCB	0x0, "M", 0x0, "_", 0x0, "W", 0x0, "K", 0x0, "D", 0x0, "E"
	DCB	0x0, "P", 0x0, "_", 0x0, "P", 0x0, "E", 0x0, "R", 0x0, 0x0
	DCB	0x0					; `string'

  00000			 AREA	 |.rdata|, DATA, READONLY
|??_C@_1BI@NCLGDPNJ@?$AAP?$AAM?$AA_?$AAW?$AAK?$AAS?$AAT?$AA_?$AAP?$AAE?$AAR?$AA?$AA@| DCB "P"
	DCB	0x0, "M", 0x0, "_", 0x0, "W", 0x0, "K", 0x0, "S", 0x0, "T"
	DCB	0x0, "_", 0x0, "P", 0x0, "E", 0x0, "R", 0x0, 0x0, 0x0 ; `string'

  00000			 AREA	 |.rdata|, DATA, READONLY
|??_C@_1CE@KJGLJLDH@?$AAP?$AAM?$AA_?$AAI?$AAV?$AAA?$AA2?$AAG?$AAR?$AAP?$AAS?$AAE?$AAL?$AA_?$AAP?$AAE?$AAR?$AA?$AA@| DCB "P"
	DCB	0x0, "M", 0x0, "_", 0x0, "I", 0x0, "V", 0x0, "A", 0x0, "2"
	DCB	0x0, "G", 0x0, "R", 0x0, "P", 0x0, "S", 0x0, "E", 0x0, "L"
	DCB	0x0, "_", 0x0, "P", 0x0, "E", 0x0, "R", 0x0, 0x0, 0x0 ; `string'

  00000			 AREA	 |.rdata|, DATA, READONLY
|??_C@_1CC@FABFMEFM@?$AAP?$AAM?$AA_?$AAM?$AAP?$AAU?$AAG?$AAR?$AAP?$AAS?$AAE?$AAL?$AA_?$AAP?$AAE?$AAR?$AA?$AA@| DCB "P"
	DCB	0x0, "M", 0x0, "_", 0x0, "M", 0x0, "P", 0x0, "U", 0x0, "G"
	DCB	0x0, "R", 0x0, "P", 0x0, "S", 0x0, "E", 0x0, "L", 0x0, "_"
	DCB	0x0, "P", 0x0, "E", 0x0, "R", 0x0, 0x0, 0x0 ; `string'

  00000			 AREA	 |.rdata|, DATA, READONLY
|??_C@_1BI@KKOJENJO@?$AAP?$AAM?$AA_?$AAW?$AAK?$AAE?$AAN?$AA_?$AAP?$AAE?$AAR?$AA?$AA@| DCB "P"
	DCB	0x0, "M", 0x0, "_", 0x0, "W", 0x0, "K", 0x0, "E", 0x0, "N"
	DCB	0x0, "_", 0x0, "P", 0x0, "E", 0x0, "R", 0x0, 0x0, 0x0 ; `string'

  00000			 AREA	 |.rdata|, DATA, READONLY
|??_C@_1BK@LCIPIPMK@?$AAR?$AAM?$AA_?$AAR?$AAS?$AAT?$AAS?$AAT?$AA_?$AAP?$AAE?$AAR?$AA?$AA@| DCB "R"
	DCB	0x0, "M", 0x0, "_", 0x0, "R", 0x0, "S", 0x0, "T", 0x0, "S"
	DCB	0x0, "T", 0x0, "_", 0x0, "P", 0x0, "E", 0x0, "R", 0x0, 0x0
	DCB	0x0					; `string'

  00000			 AREA	 |.rdata|, DATA, READONLY
|??_C@_1BA@PLEGCGNO@?$AAP?$AAE?$AAR?$AA_?$AAP?$AAR?$AAM?$AA?$AA@| DCB "P", 0x0
	DCB	"E", 0x0, "R", 0x0, "_", 0x0, "P", 0x0, "R", 0x0, "M", 0x0
	DCB	0x0, 0x0				; `string'

  00000			 AREA	 |.rdata|, DATA, READONLY
|??_C@_1CC@COMGJOJJ@?$AAP?$AAM?$AA_?$AAP?$AAR?$AAE?$AAP?$AAW?$AAS?$AAT?$AAS?$AAT?$AA_?$AAC?$AAA?$AAM?$AA?$AA@| DCB "P"
	DCB	0x0, "M", 0x0, "_", 0x0, "P", 0x0, "R", 0x0, "E", 0x0, "P"
	DCB	0x0, "W", 0x0, "S", 0x0, "T", 0x0, "S", 0x0, "T", 0x0, "_"
	DCB	0x0, "C", 0x0, "A", 0x0, "M", 0x0, 0x0, 0x0 ; `string'

  00000			 AREA	 |.rdata|, DATA, READONLY
|??_C@_1BM@PMBEJFBJ@?$AAP?$AAM?$AA_?$AAP?$AAW?$AAS?$AAT?$AAS?$AAT?$AA_?$AAC?$AAA?$AAM?$AA?$AA@| DCB "P"
	DCB	0x0, "M", 0x0, "_", 0x0, "P", 0x0, "W", 0x0, "S", 0x0, "T"
	DCB	0x0, "S", 0x0, "T", 0x0, "_", 0x0, "C", 0x0, "A", 0x0, "M"
	DCB	0x0, 0x0, 0x0				; `string'

  00000			 AREA	 |.rdata|, DATA, READONLY
|??_C@_1CA@CGDGECBO@?$AAP?$AAM?$AA_?$AAP?$AAW?$AAS?$AAT?$AAC?$AAT?$AAR?$AAL?$AA_?$AAC?$AAA?$AAM?$AA?$AA@| DCB "P"
	DCB	0x0, "M", 0x0, "_", 0x0, "P", 0x0, "W", 0x0, "S", 0x0, "T"
	DCB	0x0, "C", 0x0, "T", 0x0, "R", 0x0, "L", 0x0, "_", 0x0, "C"
	DCB	0x0, "A", 0x0, "M", 0x0, 0x0, 0x0	; `string'

  00000			 AREA	 |.rdata|, DATA, READONLY
|??_C@_1BK@KPDDKHIC@?$AAP?$AAM?$AA_?$AAW?$AAK?$AAD?$AAE?$AAP?$AA_?$AAC?$AAA?$AAM?$AA?$AA@| DCB "P"
	DCB	0x0, "M", 0x0, "_", 0x0, "W", 0x0, "K", 0x0, "D", 0x0, "E"
	DCB	0x0, "P", 0x0, "_", 0x0, "C", 0x0, "A", 0x0, "M", 0x0, 0x0
	DCB	0x0					; `string'

  00000			 AREA	 |.rdata|, DATA, READONLY
|??_C@_1BK@NDFALMNN@?$AAR?$AAM?$AA_?$AAR?$AAS?$AAT?$AAS?$AAT?$AA_?$AAC?$AAA?$AAM?$AA?$AA@| DCB "R"
	DCB	0x0, "M", 0x0, "_", 0x0, "R", 0x0, "S", 0x0, "T", 0x0, "S"
	DCB	0x0, "T", 0x0, "_", 0x0, "C", 0x0, "A", 0x0, "M", 0x0, 0x0
	DCB	0x0					; `string'

  00000			 AREA	 |.rdata|, DATA, READONLY
|??_C@_1BA@FDIJFBCE@?$AAC?$AAA?$AAM?$AA_?$AAP?$AAR?$AAM?$AA?$AA@| DCB "C", 0x0
	DCB	"A", 0x0, "M", 0x0, "_", 0x0, "P", 0x0, "R", 0x0, "M", 0x0
	DCB	0x0, 0x0				; `string'

  00000			 AREA	 |.rdata|, DATA, READONLY
|??_C@_1CC@NKNLBELM@?$AAP?$AAM?$AA_?$AAP?$AAR?$AAE?$AAP?$AAW?$AAS?$AAT?$AAS?$AAT?$AA_?$AAD?$AAS?$AAS?$AA?$AA@| DCB "P"
	DCB	0x0, "M", 0x0, "_", 0x0, "P", 0x0, "R", 0x0, "E", 0x0, "P"
	DCB	0x0, "W", 0x0, "S", 0x0, "T", 0x0, "S", 0x0, "T", 0x0, "_"
	DCB	0x0, "D", 0x0, "S", 0x0, "S", 0x0, 0x0, 0x0 ; `string'

  00000			 AREA	 |.rdata|, DATA, READONLY
|??_C@_1BM@IAJBPDM@?$AAP?$AAM?$AA_?$AAP?$AAW?$AAS?$AAT?$AAS?$AAT?$AA_?$AAD?$AAS?$AAS?$AA?$AA@| DCB "P"
	DCB	0x0, "M", 0x0, "_", 0x0, "P", 0x0, "W", 0x0, "S", 0x0, "T"
	DCB	0x0, "S", 0x0, "T", 0x0, "_", 0x0, "D", 0x0, "S", 0x0, "S"
	DCB	0x0, 0x0, 0x0				; `string'

  00000			 AREA	 |.rdata|, DATA, READONLY
|??_C@_1CA@NCCLMIDL@?$AAP?$AAM?$AA_?$AAP?$AAW?$AAS?$AAT?$AAC?$AAT?$AAR?$AAL?$AA_?$AAD?$AAS?$AAS?$AA?$AA@| DCB "P"
	DCB	0x0, "M", 0x0, "_", 0x0, "P", 0x0, "W", 0x0, "S", 0x0, "T"
	DCB	0x0, "C", 0x0, "T", 0x0, "R", 0x0, "L", 0x0, "_", 0x0, "D"
	DCB	0x0, "S", 0x0, "S", 0x0, 0x0, 0x0	; `string'

  00000			 AREA	 |.rdata|, DATA, READONLY
|??_C@_1BK@FLCOCNKH@?$AAP?$AAM?$AA_?$AAW?$AAK?$AAD?$AAE?$AAP?$AA_?$AAD?$AAS?$AAS?$AA?$AA@| DCB "P"
	DCB	0x0, "M", 0x0, "_", 0x0, "W", 0x0, "K", 0x0, "D", 0x0, "E"
	DCB	0x0, "P", 0x0, "_", 0x0, "D", 0x0, "S", 0x0, "S", 0x0, 0x0
	DCB	0x0					; `string'

  00000			 AREA	 |.rdata|, DATA, READONLY
|??_C@_1BI@DPCLPEKM@?$AAP?$AAM?$AA_?$AAW?$AAK?$AAE?$AAN?$AA_?$AAD?$AAS?$AAS?$AA?$AA@| DCB "P"
	DCB	0x0, "M", 0x0, "_", 0x0, "W", 0x0, "K", 0x0, "E", 0x0, "N"
	DCB	0x0, "_", 0x0, "D", 0x0, "S", 0x0, "S", 0x0, 0x0, 0x0 ; `string'

  00000			 AREA	 |.rdata|, DATA, READONLY
|??_C@_1BK@CHENDGPI@?$AAR?$AAM?$AA_?$AAR?$AAS?$AAT?$AAS?$AAT?$AA_?$AAD?$AAS?$AAS?$AA?$AA@| DCB "R"
	DCB	0x0, "M", 0x0, "_", 0x0, "R", 0x0, "S", 0x0, "T", 0x0, "S"
	DCB	0x0, "T", 0x0, "_", 0x0, "D", 0x0, "S", 0x0, "S", 0x0, 0x0
	DCB	0x0					; `string'

  00000			 AREA	 |.rdata|, DATA, READONLY
|??_C@_1BA@MMIFGPHC@?$AAD?$AAS?$AAS?$AA_?$AAP?$AAR?$AAM?$AA?$AA@| DCB "D", 0x0
	DCB	"S", 0x0, "S", 0x0, "_", 0x0, "P", 0x0, "R", 0x0, "M", 0x0
	DCB	0x0, 0x0				; `string'

  00000			 AREA	 |.rdata|, DATA, READONLY
|??_C@_1CA@PGMOAOBH@?$AAP?$AAR?$AAM?$AA_?$AAC?$AAL?$AAK?$AAO?$AAU?$AAT?$AA_?$AAC?$AAT?$AAR?$AAL?$AA?$AA@| DCB "P"
	DCB	0x0, "R", 0x0, "M", 0x0, "_", 0x0, "C", 0x0, "L", 0x0, "K"
	DCB	0x0, "O", 0x0, "U", 0x0, "T", 0x0, "_", 0x0, "C", 0x0, "T"
	DCB	0x0, "R", 0x0, "L", 0x0, 0x0, 0x0	; `string'

  00000			 AREA	 |.rdata|, DATA, READONLY
|??_C@_1BG@BPBPBGIA@?$AAP?$AAR?$AAM?$AA_?$AAC?$AAL?$AAK?$AAS?$AAE?$AAL?$AA?$AA@| DCB "P"
	DCB	0x0, "R", 0x0, "M", 0x0, "_", 0x0, "C", 0x0, "L", 0x0, "K"
	DCB	0x0, "S", 0x0, "E", 0x0, "L", 0x0, 0x0, 0x0 ; `string'

  00000			 AREA	 |.rdata|, DATA, READONLY
|??_C@_1CM@BOLGGOBJ@?$AAC?$AAl?$AAo?$AAc?$AAk?$AA_?$AAC?$AAo?$AAn?$AAt?$AAr?$AAo?$AAl?$AA_?$AAR?$AAe?$AAg?$AA_?$AAP?$AAR?$AAM?$AA?$AA@| DCB "C"
	DCB	0x0, "l", 0x0, "o", 0x0, "c", 0x0, "k", 0x0, "_", 0x0, "C"
	DCB	0x0, "o", 0x0, "n", 0x0, "t", 0x0, "r", 0x0, "o", 0x0, "l"
	DCB	0x0, "_", 0x0, "R", 0x0, "e", 0x0, "g", 0x0, "_", 0x0, "P"
	DCB	0x0, "R", 0x0, "M", 0x0, 0x0, 0x0	; `string'

  00000			 AREA	 |.rdata|, DATA, READONLY
|??_C@_1BK@MHMCLHIM@?$AAP?$AAM?$AA_?$AAW?$AAK?$AAS?$AAT?$AA_?$AAW?$AAK?$AAU?$AAP?$AA?$AA@| DCB "P"
	DCB	0x0, "M", 0x0, "_", 0x0, "W", 0x0, "K", 0x0, "S", 0x0, "T"
	DCB	0x0, "_", 0x0, "W", 0x0, "K", 0x0, "U", 0x0, "P", 0x0, 0x0
	DCB	0x0					; `string'

  00000			 AREA	 |.rdata|, DATA, READONLY
|??_C@_1CG@NGIEHFMC@?$AAP?$AAM?$AA_?$AAI?$AAV?$AAA?$AA2?$AAG?$AAR?$AAP?$AAS?$AAE?$AAL?$AA_?$AAW?$AAK?$AAU?$AAP?$AA?$AA@| DCB "P"
	DCB	0x0, "M", 0x0, "_", 0x0, "I", 0x0, "V", 0x0, "A", 0x0, "2"
	DCB	0x0, "G", 0x0, "R", 0x0, "P", 0x0, "S", 0x0, "E", 0x0, "L"
	DCB	0x0, "_", 0x0, "W", 0x0, "K", 0x0, "U", 0x0, "P", 0x0, 0x0
	DCB	0x0					; `string'

  00000			 AREA	 |.rdata|, DATA, READONLY
|??_C@_1CE@KLFJHCLF@?$AAP?$AAM?$AA_?$AAM?$AAP?$AAU?$AAG?$AAR?$AAP?$AAS?$AAE?$AAL?$AA_?$AAW?$AAK?$AAU?$AAP?$AA?$AA@| DCB "P"
	DCB	0x0, "M", 0x0, "_", 0x0, "M", 0x0, "P", 0x0, "U", 0x0, "G"
	DCB	0x0, "R", 0x0, "P", 0x0, "S", 0x0, "E", 0x0, "L", 0x0, "_"
	DCB	0x0, "W", 0x0, "K", 0x0, "U", 0x0, "P", 0x0, 0x0, 0x0 ; `string'

  00000			 AREA	 |.rdata|, DATA, READONLY
|??_C@_1BK@MGPBAGAB@?$AAP?$AAM?$AA_?$AAW?$AAK?$AAE?$AAN?$AA_?$AAW?$AAK?$AAU?$AAP?$AA?$AA@| DCB "P"
	DCB	0x0, "M", 0x0, "_", 0x0, "W", 0x0, "K", 0x0, "E", 0x0, "N"
	DCB	0x0, "_", 0x0, "W", 0x0, "K", 0x0, "U", 0x0, "P", 0x0, 0x0
	DCB	0x0					; `string'

  00000			 AREA	 |.rdata|, DATA, READONLY
|??_C@_1BC@DDJDDDAK@?$AAW?$AAK?$AAU?$AAP?$AA_?$AAP?$AAR?$AAM?$AA?$AA@| DCB "W"
	DCB	0x0, "K", 0x0, "U", 0x0, "P", 0x0, "_", 0x0, "P", 0x0, "R"
	DCB	0x0, "M", 0x0, 0x0, 0x0			; `string'

  00000			 AREA	 |.rdata|, DATA, READONLY
|??_C@_1CC@ODODOLAC@?$AAP?$AAM?$AA_?$AAP?$AAR?$AAE?$AAP?$AAW?$AAS?$AAT?$AAS?$AAT?$AA_?$AAS?$AAG?$AAX?$AA?$AA@| DCB "P"
	DCB	0x0, "M", 0x0, "_", 0x0, "P", 0x0, "R", 0x0, "E", 0x0, "P"
	DCB	0x0, "W", 0x0, "S", 0x0, "T", 0x0, "S", 0x0, "T", 0x0, "_"
	DCB	0x0, "S", 0x0, "G", 0x0, "X", 0x0, 0x0, 0x0 ; `string'

  00000			 AREA	 |.rdata|, DATA, READONLY
|??_C@_1BM@DBDBOAIC@?$AAP?$AAM?$AA_?$AAP?$AAW?$AAS?$AAT?$AAS?$AAT?$AA_?$AAS?$AAG?$AAX?$AA?$AA@| DCB "P"
	DCB	0x0, "M", 0x0, "_", 0x0, "P", 0x0, "W", 0x0, "S", 0x0, "T"
	DCB	0x0, "S", 0x0, "T", 0x0, "_", 0x0, "S", 0x0, "G", 0x0, "X"
	DCB	0x0, 0x0, 0x0				; `string'

  00000			 AREA	 |.rdata|, DATA, READONLY
|??_C@_1CA@OLBDDHIF@?$AAP?$AAM?$AA_?$AAP?$AAW?$AAS?$AAT?$AAC?$AAT?$AAR?$AAL?$AA_?$AAS?$AAG?$AAX?$AA?$AA@| DCB "P"
	DCB	0x0, "M", 0x0, "_", 0x0, "P", 0x0, "W", 0x0, "S", 0x0, "T"
	DCB	0x0, "C", 0x0, "T", 0x0, "R", 0x0, "L", 0x0, "_", 0x0, "S"
	DCB	0x0, "G", 0x0, "X", 0x0, 0x0, 0x0	; `string'

  00000			 AREA	 |.rdata|, DATA, READONLY
|??_C@_1BK@GCBGNCBJ@?$AAP?$AAM?$AA_?$AAW?$AAK?$AAD?$AAE?$AAP?$AA_?$AAS?$AAG?$AAX?$AA?$AA@| DCB "P"
	DCB	0x0, "M", 0x0, "_", 0x0, "W", 0x0, "K", 0x0, "D", 0x0, "E"
	DCB	0x0, "P", 0x0, "_", 0x0, "S", 0x0, "G", 0x0, "X", 0x0, 0x0
	DCB	0x0					; `string'

  00000			 AREA	 |.rdata|, DATA, READONLY
|??_C@_1BK@BOHFMJEG@?$AAR?$AAM?$AA_?$AAR?$AAS?$AAT?$AAS?$AAT?$AA_?$AAS?$AAG?$AAX?$AA?$AA@| DCB "R"
	DCB	0x0, "M", 0x0, "_", 0x0, "R", 0x0, "S", 0x0, "T", 0x0, "S"
	DCB	0x0, "T", 0x0, "_", 0x0, "S", 0x0, "G", 0x0, "X", 0x0, 0x0
	DCB	0x0					; `string'

  00000			 AREA	 |.rdata|, DATA, READONLY
|??_C@_1BA@NJNHLOOA@?$AAS?$AAG?$AAX?$AA_?$AAP?$AAR?$AAM?$AA?$AA@| DCB "S", 0x0
	DCB	"G", 0x0, "X", 0x0, "_", 0x0, "P", 0x0, "R", 0x0, "M", 0x0
	DCB	0x0, 0x0				; `string'

  00000			 AREA	 |.rdata|, DATA, READONLY
|??_C@_1CG@JIDDONFN@?$AAP?$AAM?$AA_?$AAM?$AAP?$AAU?$AAG?$AAR?$AAP?$AAS?$AAE?$AAL?$AA3?$AA_?$AAC?$AAO?$AAR?$AAE?$AA?$AA@| DCB "P"
	DCB	0x0, "M", 0x0, "_", 0x0, "M", 0x0, "P", 0x0, "U", 0x0, "G"
	DCB	0x0, "R", 0x0, "P", 0x0, "S", 0x0, "E", 0x0, "L", 0x0, "3"
	DCB	0x0, "_", 0x0, "C", 0x0, "O", 0x0, "R", 0x0, "E", 0x0, 0x0
	DCB	0x0					; `string'

  00000			 AREA	 |.rdata|, DATA, READONLY
|??_C@_1CI@GGCJOKBC@?$AAP?$AAM?$AA_?$AAI?$AAV?$AAA?$AA2?$AAG?$AAR?$AAP?$AAS?$AAE?$AAL?$AA3?$AA_?$AAC?$AAO?$AAR?$AAE?$AA?$AA@| DCB "P"
	DCB	0x0, "M", 0x0, "_", 0x0, "I", 0x0, "V", 0x0, "A", 0x0, "2"
	DCB	0x0, "G", 0x0, "R", 0x0, "P", 0x0, "S", 0x0, "E", 0x0, "L"
	DCB	0x0, "3", 0x0, "_", 0x0, "C", 0x0, "O", 0x0, "R", 0x0, "E"
	DCB	0x0, 0x0, 0x0				; `string'

  00000			 AREA	 |.rdata|, DATA, READONLY
|??_C@_1BM@EPPCFOGM@?$AAP?$AAM?$AA_?$AAW?$AAK?$AAE?$AAN?$AA3?$AA_?$AAC?$AAO?$AAR?$AAE?$AA?$AA@| DCB "P"
	DCB	0x0, "M", 0x0, "_", 0x0, "W", 0x0, "K", 0x0, "E", 0x0, "N"
	DCB	0x0, "3", 0x0, "_", 0x0, "C", 0x0, "O", 0x0, "R", 0x0, "E"
	DCB	0x0, 0x0, 0x0				; `string'

  00000			 AREA	 |.rdata|, DATA, READONLY
|??_C@_1CE@PMPEKLKF@?$AAP?$AAM?$AA_?$AAP?$AAR?$AAE?$AAP?$AAW?$AAS?$AAT?$AAS?$AAT?$AA_?$AAC?$AAO?$AAR?$AAE?$AA?$AA@| DCB "P"
	DCB	0x0, "M", 0x0, "_", 0x0, "P", 0x0, "R", 0x0, "E", 0x0, "P"
	DCB	0x0, "W", 0x0, "S", 0x0, "T", 0x0, "S", 0x0, "T", 0x0, "_"
	DCB	0x0, "C", 0x0, "O", 0x0, "R", 0x0, "E", 0x0, 0x0, 0x0 ; `string'

  00000			 AREA	 |.rdata|, DATA, READONLY
|??_C@_1BO@FAKFDILE@?$AAP?$AAM?$AA_?$AAP?$AAW?$AAS?$AAT?$AAS?$AAT?$AA_?$AAC?$AAO?$AAR?$AAE?$AA?$AA@| DCB "P"
	DCB	0x0, "M", 0x0, "_", 0x0, "P", 0x0, "W", 0x0, "S", 0x0, "T"
	DCB	0x0, "S", 0x0, "T", 0x0, "_", 0x0, "C", 0x0, "O", 0x0, "R"
	DCB	0x0, "E", 0x0, 0x0, 0x0			; `string'

  00000			 AREA	 |.rdata|, DATA, READONLY
|??_C@_1CC@HFDDDCG@?$AAP?$AAM?$AA_?$AAP?$AAW?$AAS?$AAT?$AAC?$AAT?$AAR?$AAL?$AA_?$AAC?$AAO?$AAR?$AAE?$AA?$AA@| DCB "P"
	DCB	0x0, "M", 0x0, "_", 0x0, "P", 0x0, "W", 0x0, "S", 0x0, "T"
	DCB	0x0, "C", 0x0, "T", 0x0, "R", 0x0, "L", 0x0, "_", 0x0, "C"
	DCB	0x0, "O", 0x0, "R", 0x0, "E", 0x0, 0x0, 0x0 ; `string'

  00000			 AREA	 |.rdata|, DATA, READONLY
|??_C@_1BM@HNLJDKED@?$AAP?$AAM?$AA_?$AAW?$AAK?$AAS?$AAT?$AA3?$AA_?$AAC?$AAO?$AAR?$AAE?$AA?$AA@| DCB "P"
	DCB	0x0, "M", 0x0, "_", 0x0, "W", 0x0, "K", 0x0, "S", 0x0, "T"
	DCB	0x0, "3", 0x0, "_", 0x0, "C", 0x0, "O", 0x0, "R", 0x0, "E"
	DCB	0x0, 0x0, 0x0				; `string'

  00000			 AREA	 |.rdata|, DATA, READONLY
|??_C@_1BM@JMNHPOOO@?$AAP?$AAM?$AA_?$AAW?$AAK?$AAS?$AAT?$AA1?$AA_?$AAC?$AAO?$AAR?$AAE?$AA?$AA@| DCB "P"
	DCB	0x0, "M", 0x0, "_", 0x0, "W", 0x0, "K", 0x0, "S", 0x0, "T"
	DCB	0x0, "1", 0x0, "_", 0x0, "C", 0x0, "O", 0x0, "R", 0x0, "E"
	DCB	0x0, 0x0, 0x0				; `string'

  00000			 AREA	 |.rdata|, DATA, READONLY
|??_C@_1CI@IHEHCOLP@?$AAP?$AAM?$AA_?$AAI?$AAV?$AAA?$AA2?$AAG?$AAR?$AAP?$AAS?$AAE?$AAL?$AA1?$AA_?$AAC?$AAO?$AAR?$AAE?$AA?$AA@| DCB "P"
	DCB	0x0, "M", 0x0, "_", 0x0, "I", 0x0, "V", 0x0, "A", 0x0, "2"
	DCB	0x0, "G", 0x0, "R", 0x0, "P", 0x0, "S", 0x0, "E", 0x0, "L"
	DCB	0x0, "1", 0x0, "_", 0x0, "C", 0x0, "O", 0x0, "R", 0x0, "E"
	DCB	0x0, 0x0, 0x0				; `string'

  00000			 AREA	 |.rdata|, DATA, READONLY
|??_C@_1CG@HJFNCJPA@?$AAP?$AAM?$AA_?$AAM?$AAP?$AAU?$AAG?$AAR?$AAP?$AAS?$AAE?$AAL?$AA1?$AA_?$AAC?$AAO?$AAR?$AAE?$AA?$AA@| DCB "P"
	DCB	0x0, "M", 0x0, "_", 0x0, "M", 0x0, "P", 0x0, "U", 0x0, "G"
	DCB	0x0, "R", 0x0, "P", 0x0, "S", 0x0, "E", 0x0, "L", 0x0, "1"
	DCB	0x0, "_", 0x0, "C", 0x0, "O", 0x0, "R", 0x0, "E", 0x0, 0x0
	DCB	0x0					; `string'

  00000			 AREA	 |.rdata|, DATA, READONLY
|??_C@_1BM@KOJMJKMB@?$AAP?$AAM?$AA_?$AAW?$AAK?$AAE?$AAN?$AA1?$AA_?$AAC?$AAO?$AAR?$AAE?$AA?$AA@| DCB "P"
	DCB	0x0, "M", 0x0, "_", 0x0, "W", 0x0, "K", 0x0, "E", 0x0, "N"
	DCB	0x0, "1", 0x0, "_", 0x0, "C", 0x0, "O", 0x0, "R", 0x0, "E"
	DCB	0x0, 0x0, 0x0				; `string'

  00000			 AREA	 |.rdata|, DATA, READONLY
|??_C@_1BM@LNIBJNNG@?$AAR?$AAM?$AA_?$AAR?$AAS?$AAT?$AAS?$AAT?$AA_?$AAC?$AAO?$AAR?$AAE?$AA?$AA@| DCB "R"
	DCB	0x0, "M", 0x0, "_", 0x0, "R", 0x0, "S", 0x0, "T", 0x0, "S"
	DCB	0x0, "T", 0x0, "_", 0x0, "C", 0x0, "O", 0x0, "R", 0x0, "E"
	DCB	0x0, 0x0, 0x0				; `string'

  00000			 AREA	 |.rdata|, DATA, READONLY
|??_C@_1BC@DDNPMELP@?$AAC?$AAO?$AAR?$AAE?$AA_?$AAP?$AAR?$AAM?$AA?$AA@| DCB "C"
	DCB	0x0, "O", 0x0, "R", 0x0, "E", 0x0, "_", 0x0, "P", 0x0, "R"
	DCB	0x0, "M", 0x0, 0x0, 0x0			; `string'

  00000			 AREA	 |.rdata|, DATA, READONLY
|??_C@_1CC@GGGLCCOF@?$AAP?$AAM?$AA_?$AAP?$AAR?$AAE?$AAP?$AAW?$AAS?$AAT?$AAS?$AAT?$AA_?$AAM?$AAP?$AAU?$AA?$AA@| DCB "P"
	DCB	0x0, "M", 0x0, "_", 0x0, "P", 0x0, "R", 0x0, "E", 0x0, "P"
	DCB	0x0, "W", 0x0, "S", 0x0, "T", 0x0, "S", 0x0, "T", 0x0, "_"
	DCB	0x0, "M", 0x0, "P", 0x0, "U", 0x0, 0x0, 0x0 ; `string'

  00000			 AREA	 |.rdata|, DATA, READONLY
|??_C@_1BM@LELJCJGF@?$AAP?$AAM?$AA_?$AAP?$AAW?$AAS?$AAT?$AAS?$AAT?$AA_?$AAM?$AAP?$AAU?$AA?$AA@| DCB "P"
	DCB	0x0, "M", 0x0, "_", 0x0, "P", 0x0, "W", 0x0, "S", 0x0, "T"
	DCB	0x0, "S", 0x0, "T", 0x0, "_", 0x0, "M", 0x0, "P", 0x0, "U"
	DCB	0x0, 0x0, 0x0				; `string'

  00000			 AREA	 |.rdata|, DATA, READONLY
|??_C@_1CA@GOJLPOGC@?$AAP?$AAM?$AA_?$AAP?$AAW?$AAS?$AAT?$AAC?$AAT?$AAR?$AAL?$AA_?$AAM?$AAP?$AAU?$AA?$AA@| DCB "P"
	DCB	0x0, "M", 0x0, "_", 0x0, "P", 0x0, "W", 0x0, "S", 0x0, "T"
	DCB	0x0, "C", 0x0, "T", 0x0, "R", 0x0, "L", 0x0, "_", 0x0, "M"
	DCB	0x0, "P", 0x0, "U", 0x0, 0x0, 0x0	; `string'

  00000			 AREA	 |.rdata|, DATA, READONLY
|??_C@_1CG@EAPFPBNK@?$AAP?$AAM?$AA_?$AAE?$AAV?$AAG?$AAE?$AAN?$AAO?$AAF?$AAF?$AAT?$AAI?$AAM?$AA_?$AAM?$AAP?$AAU?$AA?$AA@| DCB "P"
	DCB	0x0, "M", 0x0, "_", 0x0, "E", 0x0, "V", 0x0, "G", 0x0, "E"
	DCB	0x0, "N", 0x0, "O", 0x0, "F", 0x0, "F", 0x0, "T", 0x0, "I"
	DCB	0x0, "M", 0x0, "_", 0x0, "M", 0x0, "P", 0x0, "U", 0x0, 0x0
	DCB	0x0					; `string'

  00000			 AREA	 |.rdata|, DATA, READONLY
|??_C@_1CE@GDJAJDKH@?$AAP?$AAM?$AA_?$AAE?$AAV?$AAG?$AAE?$AAN?$AAO?$AAN?$AAT?$AAI?$AAM?$AA_?$AAM?$AAP?$AAU?$AA?$AA@| DCB "P"
	DCB	0x0, "M", 0x0, "_", 0x0, "E", 0x0, "V", 0x0, "G", 0x0, "E"
	DCB	0x0, "N", 0x0, "O", 0x0, "N", 0x0, "T", 0x0, "I", 0x0, "M"
	DCB	0x0, "_", 0x0, "M", 0x0, "P", 0x0, "U", 0x0, 0x0, 0x0 ; `string'

  00000			 AREA	 |.rdata|, DATA, READONLY
|??_C@_1CC@MKEFHNLB@?$AAP?$AAM?$AA_?$AAE?$AAV?$AAG?$AAE?$AAN?$AAC?$AAT?$AAR?$AAL?$AA_?$AAM?$AAP?$AAU?$AA?$AA@| DCB "P"
	DCB	0x0, "M", 0x0, "_", 0x0, "E", 0x0, "V", 0x0, "G", 0x0, "E"
	DCB	0x0, "N", 0x0, "C", 0x0, "T", 0x0, "R", 0x0, "L", 0x0, "_"
	DCB	0x0, "M", 0x0, "P", 0x0, "U", 0x0, 0x0, 0x0 ; `string'

  00000			 AREA	 |.rdata|, DATA, READONLY
|??_C@_1BK@OHJOBLPO@?$AAP?$AAM?$AA_?$AAW?$AAK?$AAD?$AAE?$AAP?$AA_?$AAM?$AAP?$AAU?$AA?$AA@| DCB "P"
	DCB	0x0, "M", 0x0, "_", 0x0, "W", 0x0, "K", 0x0, "D", 0x0, "E"
	DCB	0x0, "P", 0x0, "_", 0x0, "M", 0x0, "P", 0x0, "U", 0x0, 0x0
	DCB	0x0					; `string'

  00000			 AREA	 |.rdata|, DATA, READONLY
|??_C@_1BK@JLPNAAKB@?$AAR?$AAM?$AA_?$AAR?$AAS?$AAT?$AAS?$AAT?$AA_?$AAM?$AAP?$AAU?$AA?$AA@| DCB "R"
	DCB	0x0, "M", 0x0, "_", 0x0, "R", 0x0, "S", 0x0, "T", 0x0, "S"
	DCB	0x0, "T", 0x0, "_", 0x0, "M", 0x0, "P", 0x0, "U", 0x0, 0x0
	DCB	0x0					; `string'

  00000			 AREA	 |.rdata|, DATA, READONLY
|??_C@_1BA@ICKCOBJH@?$AAM?$AAP?$AAU?$AA_?$AAP?$AAR?$AAM?$AA?$AA@| DCB "M", 0x0
	DCB	"P", 0x0, "U", 0x0, "_", 0x0, "P", 0x0, "R", 0x0, "M", 0x0
	DCB	0x0, 0x0				; `string'

  00000			 AREA	 |.rdata|, DATA, READONLY
|??_C@_1CE@BEHICOCH@?$AAP?$AAR?$AAM?$AA_?$AAI?$AAR?$AAQ?$AAE?$AAN?$AAA?$AAB?$AAL?$AAE?$AA_?$AAM?$AAP?$AAU?$AA?$AA@| DCB "P"
	DCB	0x0, "R", 0x0, "M", 0x0, "_", 0x0, "I", 0x0, "R", 0x0, "Q"
	DCB	0x0, "E", 0x0, "N", 0x0, "A", 0x0, "B", 0x0, "L", 0x0, "E"
	DCB	0x0, "_", 0x0, "M", 0x0, "P", 0x0, "U", 0x0, 0x0, 0x0 ; `string'

  00000			 AREA	 |.rdata|, DATA, READONLY
|??_C@_1CE@OGNKOJLH@?$AAP?$AAR?$AAM?$AA_?$AAI?$AAR?$AAQ?$AAS?$AAT?$AAA?$AAT?$AAU?$AAS?$AA_?$AAM?$AAP?$AAU?$AA?$AA@| DCB "P"
	DCB	0x0, "R", 0x0, "M", 0x0, "_", 0x0, "I", 0x0, "R", 0x0, "Q"
	DCB	0x0, "S", 0x0, "T", 0x0, "A", 0x0, "T", 0x0, "U", 0x0, "S"
	DCB	0x0, "_", 0x0, "M", 0x0, "P", 0x0, "U", 0x0, 0x0, 0x0 ; `string'

  00000			 AREA	 |.rdata|, DATA, READONLY
|??_C@_1BM@BIKNBGAP@?$AAP?$AAR?$AAM?$AA_?$AAS?$AAY?$AAS?$AAC?$AAO?$AAN?$AAF?$AAI?$AAG?$AA?$AA@| DCB "P"
	DCB	0x0, "R", 0x0, "M", 0x0, "_", 0x0, "S", 0x0, "Y", 0x0, "S"
	DCB	0x0, "C", 0x0, "O", 0x0, "N", 0x0, "F", 0x0, "I", 0x0, "G"
	DCB	0x0, 0x0, 0x0				; `string'

  00000			 AREA	 |.rdata|, DATA, READONLY
|??_C@_1BK@HJNIKPGD@?$AAP?$AAR?$AAM?$AA_?$AAR?$AAE?$AAV?$AAI?$AAS?$AAI?$AAO?$AAN?$AA?$AA@| DCB "P"
	DCB	0x0, "R", 0x0, "M", 0x0, "_", 0x0, "R", 0x0, "E", 0x0, "V"
	DCB	0x0, "I", 0x0, "S", 0x0, "I", 0x0, "O", 0x0, "N", 0x0, 0x0
	DCB	0x0					; `string'

  00000			 AREA	 |.rdata|, DATA, READONLY
|??_C@_1CG@MLMHCLLI@?$AAO?$AAC?$AAP?$AA_?$AAS?$AAy?$AAs?$AAt?$AAe?$AAm?$AA_?$AAR?$AAe?$AAg?$AA_?$AAP?$AAR?$AAM?$AA?$AA@| DCB "O"
	DCB	0x0, "C", 0x0, "P", 0x0, "_", 0x0, "S", 0x0, "y", 0x0, "s"
	DCB	0x0, "t", 0x0, "e", 0x0, "m", 0x0, "_", 0x0, "R", 0x0, "e"
	DCB	0x0, "g", 0x0, "_", 0x0, "P", 0x0, "R", 0x0, "M", 0x0, 0x0
	DCB	0x0					; `string'

  00000			 AREA	 |.rdata|, DATA, READONLY
|??_C@_1CG@LPCHCII@?$AAP?$AAR?$AAM?$AA_?$AAI?$AAR?$AAQ?$AAE?$AAN?$AAA?$AAB?$AAL?$AAE?$AA_?$AAI?$AAV?$AAA?$AA2?$AA?$AA@| DCB "P"
	DCB	0x0, "R", 0x0, "M", 0x0, "_", 0x0, "I", 0x0, "R", 0x0, "Q"
	DCB	0x0, "E", 0x0, "N", 0x0, "A", 0x0, "B", 0x0, "L", 0x0, "E"
	DCB	0x0, "_", 0x0, "I", 0x0, "V", 0x0, "A", 0x0, "2", 0x0, 0x0
	DCB	0x0					; `string'

  00000			 AREA	 |.rdata|, DATA, READONLY
|??_C@_1CG@HPLDFNCD@?$AAP?$AAR?$AAM?$AA_?$AAI?$AAR?$AAQ?$AAS?$AAT?$AAA?$AAT?$AAU?$AAS?$AA_?$AAI?$AAV?$AAA?$AA2?$AA?$AA@| DCB "P"
	DCB	0x0, "R", 0x0, "M", 0x0, "_", 0x0, "I", 0x0, "R", 0x0, "Q"
	DCB	0x0, "S", 0x0, "T", 0x0, "A", 0x0, "T", 0x0, "U", 0x0, "S"
	DCB	0x0, "_", 0x0, "I", 0x0, "V", 0x0, "A", 0x0, "2", 0x0, 0x0
	DCB	0x0					; `string'

  00000			 AREA	 |.rdata|, DATA, READONLY
|??_C@_1CE@PLIIPJHM@?$AAP?$AAM?$AA_?$AAP?$AAR?$AAE?$AAP?$AAW?$AAS?$AAT?$AAS?$AAT?$AA_?$AAI?$AAV?$AAA?$AA2?$AA?$AA@| DCB "P"
	DCB	0x0, "M", 0x0, "_", 0x0, "P", 0x0, "R", 0x0, "E", 0x0, "P"
	DCB	0x0, "W", 0x0, "S", 0x0, "T", 0x0, "S", 0x0, "T", 0x0, "_"
	DCB	0x0, "I", 0x0, "V", 0x0, "A", 0x0, "2", 0x0, 0x0, 0x0 ; `string'

  00000			 AREA	 |.rdata|, DATA, READONLY
|??_C@_1BO@FHNJGKGN@?$AAP?$AAM?$AA_?$AAP?$AAW?$AAS?$AAT?$AAS?$AAT?$AA_?$AAI?$AAV?$AAA?$AA2?$AA?$AA@| DCB "P"
	DCB	0x0, "M", 0x0, "_", 0x0, "P", 0x0, "W", 0x0, "S", 0x0, "T"
	DCB	0x0, "S", 0x0, "T", 0x0, "_", 0x0, "I", 0x0, "V", 0x0, "A"
	DCB	0x0, "2", 0x0, 0x0, 0x0			; `string'

  00000			 AREA	 |.rdata|, DATA, READONLY
|??_C@_1CC@CPGBPP@?$AAP?$AAM?$AA_?$AAP?$AAW?$AAS?$AAT?$AAC?$AAT?$AAR?$AAL?$AA_?$AAI?$AAV?$AAA?$AA2?$AA?$AA@| DCB "P"
	DCB	0x0, "M", 0x0, "_", 0x0, "P", 0x0, "W", 0x0, "S", 0x0, "T"
	DCB	0x0, "C", 0x0, "T", 0x0, "R", 0x0, "L", 0x0, "_", 0x0, "I"
	DCB	0x0, "V", 0x0, "A", 0x0, "2", 0x0, 0x0, 0x0 ; `string'

  00000			 AREA	 |.rdata|, DATA, READONLY
|??_C@_1BM@NLLDLBL@?$AAP?$AAM?$AA_?$AAW?$AAK?$AAD?$AAE?$AAP?$AA_?$AAI?$AAV?$AAA?$AA2?$AA?$AA@| DCB "P"
	DCB	0x0, "M", 0x0, "_", 0x0, "W", 0x0, "K", 0x0, "D", 0x0, "E"
	DCB	0x0, "P", 0x0, "_", 0x0, "I", 0x0, "V", 0x0, "A", 0x0, "2"
	DCB	0x0, 0x0, 0x0				; `string'

  00000			 AREA	 |.rdata|, DATA, READONLY
|??_C@_1BM@LKPNMPAP@?$AAR?$AAM?$AA_?$AAR?$AAS?$AAT?$AAS?$AAT?$AA_?$AAI?$AAV?$AAA?$AA2?$AA?$AA@| DCB "R"
	DCB	0x0, "M", 0x0, "_", 0x0, "R", 0x0, "S", 0x0, "T", 0x0, "S"
	DCB	0x0, "T", 0x0, "_", 0x0, "I", 0x0, "V", 0x0, "A", 0x0, "2"
	DCB	0x0, 0x0, 0x0				; `string'

  00000			 AREA	 |.rdata|, DATA, READONLY
|??_C@_1CA@GBOALOJP@?$AAR?$AAM?$AA_?$AAR?$AAS?$AAT?$AAC?$AAT?$AAR?$AAL?$AA_?$AAI?$AAV?$AAA?$AA2?$AA?$AA@| DCB "R"
	DCB	0x0, "M", 0x0, "_", 0x0, "R", 0x0, "S", 0x0, "T", 0x0, "C"
	DCB	0x0, "T", 0x0, "R", 0x0, "L", 0x0, "_", 0x0, "I", 0x0, "V"
	DCB	0x0, "A", 0x0, "2", 0x0, 0x0, 0x0	; `string'

  00000			 AREA	 |.rdata|, DATA, READONLY
|??_C@_1BC@FAAHEALM@?$AAI?$AAV?$AAA?$AA2?$AA_?$AAP?$AAR?$AAM?$AA?$AA@| DCB "I"
	DCB	0x0, "V", 0x0, "A", 0x0, "2", 0x0, "_", 0x0, "P", 0x0, "R"
	DCB	0x0, "M", 0x0, 0x0, 0x0			; `string'

  00000			 AREA	 |.rdata|, DATA, READONLY
|??_C@_1CG@EKKJOCAI@?$AAC?$AAM?$AA_?$AAC?$AAL?$AAK?$AAS?$AAT?$AAS?$AAT?$AA_?$AAU?$AAS?$AAB?$AAH?$AAO?$AAS?$AAT?$AA?$AA@| DCB "C"
	DCB	0x0, "M", 0x0, "_", 0x0, "C", 0x0, "L", 0x0, "K", 0x0, "S"
	DCB	0x0, "T", 0x0, "S", 0x0, "T", 0x0, "_", 0x0, "U", 0x0, "S"
	DCB	0x0, "B", 0x0, "H", 0x0, "O", 0x0, "S", 0x0, "T", 0x0, 0x0
	DCB	0x0					; `string'

  00000			 AREA	 |.rdata|, DATA, READONLY
|??_C@_1CK@EGBEEDCG@?$AAC?$AAM?$AA_?$AAC?$AAL?$AAK?$AAS?$AAT?$AAC?$AAT?$AAR?$AAL?$AA_?$AAU?$AAS?$AAB?$AAH?$AAO?$AAS?$AAT?$AA?$AA@| DCB "C"
	DCB	0x0, "M", 0x0, "_", 0x0, "C", 0x0, "L", 0x0, "K", 0x0, "S"
	DCB	0x0, "T", 0x0, "C", 0x0, "T", 0x0, "R", 0x0, "L", 0x0, "_"
	DCB	0x0, "U", 0x0, "S", 0x0, "B", 0x0, "H", 0x0, "O", 0x0, "S"
	DCB	0x0, "T", 0x0, 0x0, 0x0			; `string'

  00000			 AREA	 |.rdata|, DATA, READONLY
|??_C@_1CI@GKCHFPIN@?$AAC?$AAM?$AA_?$AAS?$AAL?$AAE?$AAE?$AAP?$AAD?$AAE?$AAP?$AA_?$AAU?$AAS?$AAB?$AAH?$AAO?$AAS?$AAT?$AA?$AA@| DCB "C"
	DCB	0x0, "M", 0x0, "_", 0x0, "S", 0x0, "L", 0x0, "E", 0x0, "E"
	DCB	0x0, "P", 0x0, "D", 0x0, "E", 0x0, "P", 0x0, "_", 0x0, "U"
	DCB	0x0, "S", 0x0, "B", 0x0, "H", 0x0, "O", 0x0, "S", 0x0, "T"
	DCB	0x0, 0x0, 0x0				; `string'

  00000			 AREA	 |.rdata|, DATA, READONLY
|??_C@_1CI@DGALJPCE@?$AAC?$AAM?$AA_?$AAA?$AAU?$AAT?$AAO?$AAI?$AAD?$AAL?$AAE?$AA_?$AAU?$AAS?$AAB?$AAH?$AAO?$AAS?$AAT?$AA?$AA@| DCB "C"
	DCB	0x0, "M", 0x0, "_", 0x0, "A", 0x0, "U", 0x0, "T", 0x0, "O"
	DCB	0x0, "I", 0x0, "D", 0x0, "L", 0x0, "E", 0x0, "_", 0x0, "U"
	DCB	0x0, "S", 0x0, "B", 0x0, "H", 0x0, "O", 0x0, "S", 0x0, "T"
	DCB	0x0, 0x0, 0x0				; `string'

  00000			 AREA	 |.rdata|, DATA, READONLY
|??_C@_1CE@JPANCJP@?$AAC?$AAM?$AA_?$AAI?$AAD?$AAL?$AAE?$AAS?$AAT?$AA_?$AAU?$AAS?$AAB?$AAH?$AAO?$AAS?$AAT?$AA?$AA@| DCB "C"
	DCB	0x0, "M", 0x0, "_", 0x0, "I", 0x0, "D", 0x0, "L", 0x0, "E"
	DCB	0x0, "S", 0x0, "T", 0x0, "_", 0x0, "U", 0x0, "S", 0x0, "B"
	DCB	0x0, "H", 0x0, "O", 0x0, "S", 0x0, "T", 0x0, 0x0, 0x0 ; `string'

  00000			 AREA	 |.rdata|, DATA, READONLY
|??_C@_1CE@DBMFEPI@?$AAC?$AAM?$AA_?$AAI?$AAC?$AAL?$AAK?$AAE?$AAN?$AA_?$AAU?$AAS?$AAB?$AAH?$AAO?$AAS?$AAT?$AA?$AA@| DCB "C"
	DCB	0x0, "M", 0x0, "_", 0x0, "I", 0x0, "C", 0x0, "L", 0x0, "K"
	DCB	0x0, "E", 0x0, "N", 0x0, "_", 0x0, "U", 0x0, "S", 0x0, "B"
	DCB	0x0, "H", 0x0, "O", 0x0, "S", 0x0, "T", 0x0, 0x0, 0x0 ; `string'

  00000			 AREA	 |.rdata|, DATA, READONLY
|??_C@_1CE@IOEIODMB@?$AAC?$AAM?$AA_?$AAF?$AAC?$AAL?$AAK?$AAE?$AAN?$AA_?$AAU?$AAS?$AAB?$AAH?$AAO?$AAS?$AAT?$AA?$AA@| DCB "C"
	DCB	0x0, "M", 0x0, "_", 0x0, "F", 0x0, "C", 0x0, "L", 0x0, "K"
	DCB	0x0, "E", 0x0, "N", 0x0, "_", 0x0, "U", 0x0, "S", 0x0, "B"
	DCB	0x0, "H", 0x0, "O", 0x0, "S", 0x0, "T", 0x0, 0x0, 0x0 ; `string'

  00000			 AREA	 |.rdata|, DATA, READONLY
|??_C@_1BG@GHMGBAHH@?$AAU?$AAS?$AAB?$AAH?$AAO?$AAS?$AAT?$AA_?$AAC?$AAM?$AA?$AA@| DCB "U"
	DCB	0x0, "S", 0x0, "B", 0x0, "H", 0x0, "O", 0x0, "S", 0x0, "T"
	DCB	0x0, "_", 0x0, "C", 0x0, "M", 0x0, 0x0, 0x0 ; `string'

  00000			 AREA	 |.rdata|, DATA, READONLY
|??_C@_1CE@ECPHHBNM@?$AAC?$AAM?$AA_?$AAC?$AAL?$AAK?$AAS?$AAT?$AAC?$AAT?$AAR?$AAL?$AA_?$AAN?$AAE?$AAO?$AAN?$AA?$AA@| DCB "C"
	DCB	0x0, "M", 0x0, "_", 0x0, "C", 0x0, "L", 0x0, "K", 0x0, "S"
	DCB	0x0, "T", 0x0, "C", 0x0, "T", 0x0, "R", 0x0, "L", 0x0, "_"
	DCB	0x0, "N", 0x0, "E", 0x0, "O", 0x0, "N", 0x0, 0x0, 0x0 ; `string'

  00000			 AREA	 |.rdata|, DATA, READONLY
|??_C@_1BO@IJPLNAMK@?$AAC?$AAM?$AA_?$AAI?$AAD?$AAL?$AAE?$AAS?$AAT?$AA_?$AAN?$AAE?$AAO?$AAN?$AA?$AA@| DCB "C"
	DCB	0x0, "M", 0x0, "_", 0x0, "I", 0x0, "D", 0x0, "L", 0x0, "E"
	DCB	0x0, "S", 0x0, "T", 0x0, "_", 0x0, "N", 0x0, "E", 0x0, "O"
	DCB	0x0, "N", 0x0, 0x0, 0x0			; `string'

  00000			 AREA	 |.rdata|, DATA, READONLY
|??_C@_1BA@HGJCCLLN@?$AAN?$AAE?$AAO?$AAN?$AA_?$AAC?$AAM?$AA?$AA@| DCB "N", 0x0
	DCB	"E", 0x0, "O", 0x0, "N", 0x0, "_", 0x0, "C", 0x0, "M", 0x0
	DCB	0x0, 0x0				; `string'

  00000			 AREA	 |.rdata|, DATA, READONLY
|??_C@_1BG@JLGAJAMH@?$AAC?$AAM?$AA_?$AAP?$AAO?$AAL?$AAC?$AAT?$AAR?$AAL?$AA?$AA@| DCB "C"
	DCB	0x0, "M", 0x0, "_", 0x0, "P", 0x0, "O", 0x0, "L", 0x0, "C"
	DCB	0x0, "T", 0x0, "R", 0x0, "L", 0x0, 0x0, 0x0 ; `string'

  00000			 AREA	 |.rdata|, DATA, READONLY
|??_C@_1BM@KLCMOAEB@?$AAG?$AAl?$AAo?$AAb?$AAa?$AAl?$AA_?$AAR?$AAe?$AAg?$AA_?$AAC?$AAM?$AA?$AA@| DCB "G"
	DCB	0x0, "l", 0x0, "o", 0x0, "b", 0x0, "a", 0x0, "l", 0x0, "_"
	DCB	0x0, "R", 0x0, "e", 0x0, "g", 0x0, "_", 0x0, "C", 0x0, "M"
	DCB	0x0, 0x0, 0x0				; `string'

  00000			 AREA	 |.rdata|, DATA, READONLY
|??_C@_1BO@DFKMIPJP@?$AAC?$AAM?$AA_?$AAC?$AAL?$AAK?$AAS?$AAE?$AAL?$AA3?$AA_?$AAE?$AAM?$AAU?$AA?$AA@| DCB "C"
	DCB	0x0, "M", 0x0, "_", 0x0, "C", 0x0, "L", 0x0, "K", 0x0, "S"
	DCB	0x0, "E", 0x0, "L", 0x0, "3", 0x0, "_", 0x0, "E", 0x0, "M"
	DCB	0x0, "U", 0x0, 0x0, 0x0			; `string'

  00000			 AREA	 |.rdata|, DATA, READONLY
|??_C@_1BO@KOAJMDPA@?$AAC?$AAM?$AA_?$AAC?$AAL?$AAK?$AAS?$AAE?$AAL?$AA2?$AA_?$AAE?$AAM?$AAU?$AA?$AA@| DCB "C"
	DCB	0x0, "M", 0x0, "_", 0x0, "C", 0x0, "L", 0x0, "K", 0x0, "S"
	DCB	0x0, "E", 0x0, "L", 0x0, "2", 0x0, "_", 0x0, "E", 0x0, "M"
	DCB	0x0, "U", 0x0, 0x0, 0x0			; `string'

  00000			 AREA	 |.rdata|, DATA, READONLY
|??_C@_1BO@BBAPCNIN@?$AAC?$AAM?$AA_?$AAC?$AAL?$AAK?$AAS?$AAT?$AAS?$AAT?$AA_?$AAE?$AAM?$AAU?$AA?$AA@| DCB "C"
	DCB	0x0, "M", 0x0, "_", 0x0, "C", 0x0, "L", 0x0, "K", 0x0, "S"
	DCB	0x0, "T", 0x0, "S", 0x0, "T", 0x0, "_", 0x0, "E", 0x0, "M"
	DCB	0x0, "U", 0x0, 0x0, 0x0			; `string'

  00000			 AREA	 |.rdata|, DATA, READONLY
|??_C@_1CC@NGILBHGG@?$AAC?$AAM?$AA_?$AAC?$AAL?$AAK?$AAS?$AAT?$AAC?$AAT?$AAR?$AAL?$AA_?$AAE?$AAM?$AAU?$AA?$AA@| DCB "C"
	DCB	0x0, "M", 0x0, "_", 0x0, "C", 0x0, "L", 0x0, "K", 0x0, "S"
	DCB	0x0, "T", 0x0, "C", 0x0, "T", 0x0, "R", 0x0, "L", 0x0, "_"
	DCB	0x0, "E", 0x0, "M", 0x0, "U", 0x0, 0x0, 0x0 ; `string'

  00000			 AREA	 |.rdata|, DATA, READONLY
|??_C@_1BO@NJJHBBAA@?$AAC?$AAM?$AA_?$AAC?$AAL?$AAK?$AAS?$AAE?$AAL?$AA1?$AA_?$AAE?$AAM?$AAU?$AA?$AA@| DCB "C"
	DCB	0x0, "M", 0x0, "_", 0x0, "C", 0x0, "L", 0x0, "K", 0x0, "S"
	DCB	0x0, "E", 0x0, "L", 0x0, "1", 0x0, "_", 0x0, "E", 0x0, "M"
	DCB	0x0, "U", 0x0, 0x0, 0x0			; `string'

  00000			 AREA	 |.rdata|, DATA, READONLY
|??_C@_1O@HGBLPNPO@?$AAE?$AAM?$AAU?$AA_?$AAC?$AAM?$AA?$AA@| DCB "E", 0x0, "M"
	DCB	0x0, "U", 0x0, "_", 0x0, "C", 0x0, "M", 0x0, 0x0, 0x0 ; `string'

  00000			 AREA	 |.rdata|, DATA, READONLY
|??_C@_1BO@FENAKIBG@?$AAC?$AAM?$AA_?$AAC?$AAL?$AAK?$AAS?$AAT?$AAS?$AAT?$AA_?$AAP?$AAE?$AAR?$AA?$AA@| DCB "C"
	DCB	0x0, "M", 0x0, "_", 0x0, "C", 0x0, "L", 0x0, "K", 0x0, "S"
	DCB	0x0, "T", 0x0, "S", 0x0, "T", 0x0, "_", 0x0, "P", 0x0, "E"
	DCB	0x0, "R", 0x0, 0x0, 0x0			; `string'

  00000			 AREA	 |.rdata|, DATA, READONLY
|??_C@_1CC@JDFEJCPN@?$AAC?$AAM?$AA_?$AAC?$AAL?$AAK?$AAS?$AAT?$AAC?$AAT?$AAR?$AAL?$AA_?$AAP?$AAE?$AAR?$AA?$AA@| DCB "C"
	DCB	0x0, "M", 0x0, "_", 0x0, "C", 0x0, "L", 0x0, "K", 0x0, "S"
	DCB	0x0, "T", 0x0, "C", 0x0, "T", 0x0, "R", 0x0, "L", 0x0, "_"
	DCB	0x0, "P", 0x0, "E", 0x0, "R", 0x0, 0x0, 0x0 ; `string'

  00000			 AREA	 |.rdata|, DATA, READONLY
|??_C@_1CA@OCEIBJJL@?$AAC?$AAM?$AA_?$AAS?$AAL?$AAE?$AAE?$AAP?$AAD?$AAE?$AAP?$AA_?$AAP?$AAE?$AAR?$AA?$AA@| DCB "C"
	DCB	0x0, "M", 0x0, "_", 0x0, "S", 0x0, "L", 0x0, "E", 0x0, "E"
	DCB	0x0, "P", 0x0, "D", 0x0, "E", 0x0, "P", 0x0, "_", 0x0, "P"
	DCB	0x0, "E", 0x0, "R", 0x0, 0x0, 0x0	; `string'

  00000			 AREA	 |.rdata|, DATA, READONLY
|??_C@_1BM@JGBOEBBM@?$AAC?$AAM?$AA_?$AAC?$AAL?$AAK?$AAS?$AAE?$AAL?$AA_?$AAP?$AAE?$AAR?$AA?$AA@| DCB "C"
	DCB	0x0, "M", 0x0, "_", 0x0, "C", 0x0, "L", 0x0, "K", 0x0, "S"
	DCB	0x0, "E", 0x0, "L", 0x0, "_", 0x0, "P", 0x0, "E", 0x0, "R"
	DCB	0x0, 0x0, 0x0				; `string'

  00000			 AREA	 |.rdata|, DATA, READONLY
|??_C@_1CA@HEJEIAMO@?$AAC?$AAM?$AA_?$AAA?$AAU?$AAT?$AAO?$AAI?$AAD?$AAL?$AAE?$AA_?$AAP?$AAE?$AAR?$AA?$AA@| DCB "C"
	DCB	0x0, "M", 0x0, "_", 0x0, "A", 0x0, "U", 0x0, "T", 0x0, "O"
	DCB	0x0, "I", 0x0, "D", 0x0, "L", 0x0, "E", 0x0, "_", 0x0, "P"
	DCB	0x0, "E", 0x0, "R", 0x0, 0x0, 0x0	; `string'

  00000			 AREA	 |.rdata|, DATA, READONLY
|??_C@_1BM@FMCKMJOI@?$AAC?$AAM?$AA_?$AAI?$AAD?$AAL?$AAE?$AAS?$AAT?$AA_?$AAP?$AAE?$AAR?$AA?$AA@| DCB "C"
	DCB	0x0, "M", 0x0, "_", 0x0, "I", 0x0, "D", 0x0, "L", 0x0, "E"
	DCB	0x0, "S", 0x0, "T", 0x0, "_", 0x0, "P", 0x0, "E", 0x0, "R"
	DCB	0x0, 0x0, 0x0				; `string'

  00000			 AREA	 |.rdata|, DATA, READONLY
|??_C@_1BM@OFLDOLJH@?$AAC?$AAM?$AA_?$AAI?$AAC?$AAL?$AAK?$AAE?$AAN?$AA_?$AAP?$AAE?$AAR?$AA?$AA@| DCB "C"
	DCB	0x0, "M", 0x0, "_", 0x0, "I", 0x0, "C", 0x0, "L", 0x0, "K"
	DCB	0x0, "E", 0x0, "N", 0x0, "_", 0x0, "P", 0x0, "E", 0x0, "R"
	DCB	0x0, 0x0, 0x0				; `string'

  00000			 AREA	 |.rdata|, DATA, READONLY
|??_C@_1BM@DJCJPDNH@?$AAC?$AAM?$AA_?$AAF?$AAC?$AAL?$AAK?$AAE?$AAN?$AA_?$AAP?$AAE?$AAR?$AA?$AA@| DCB "C"
	DCB	0x0, "M", 0x0, "_", 0x0, "F", 0x0, "C", 0x0, "L", 0x0, "K"
	DCB	0x0, "E", 0x0, "N", 0x0, "_", 0x0, "P", 0x0, "E", 0x0, "R"
	DCB	0x0, 0x0, 0x0				; `string'

  00000			 AREA	 |.rdata|, DATA, READONLY
|??_C@_1O@HANKMCHI@?$AAP?$AAE?$AAR?$AA_?$AAC?$AAM?$AA?$AA@| DCB "P", 0x0, "E"
	DCB	0x0, "R", 0x0, "_", 0x0, "C", 0x0, "M", 0x0, 0x0, 0x0 ; `string'

  00000			 AREA	 |.rdata|, DATA, READONLY
|??_C@_1BO@DFAPJLAB@?$AAC?$AAM?$AA_?$AAC?$AAL?$AAK?$AAS?$AAT?$AAS?$AAT?$AA_?$AAC?$AAA?$AAM?$AA?$AA@| DCB "C"
	DCB	0x0, "M", 0x0, "_", 0x0, "C", 0x0, "L", 0x0, "K", 0x0, "S"
	DCB	0x0, "T", 0x0, "S", 0x0, "T", 0x0, "_", 0x0, "C", 0x0, "A"
	DCB	0x0, "M", 0x0, 0x0, 0x0			; `string'

  00000			 AREA	 |.rdata|, DATA, READONLY
|??_C@_1CC@PCILKBOK@?$AAC?$AAM?$AA_?$AAC?$AAL?$AAK?$AAS?$AAT?$AAC?$AAT?$AAR?$AAL?$AA_?$AAC?$AAA?$AAM?$AA?$AA@| DCB "C"
	DCB	0x0, "M", 0x0, "_", 0x0, "C", 0x0, "L", 0x0, "K", 0x0, "S"
	DCB	0x0, "T", 0x0, "C", 0x0, "T", 0x0, "R", 0x0, "L", 0x0, "_"
	DCB	0x0, "C", 0x0, "A", 0x0, "M", 0x0, 0x0, 0x0 ; `string'

  00000			 AREA	 |.rdata|, DATA, READONLY
|??_C@_1CA@IDJHCKIM@?$AAC?$AAM?$AA_?$AAS?$AAL?$AAE?$AAE?$AAP?$AAD?$AAE?$AAP?$AA_?$AAC?$AAA?$AAM?$AA?$AA@| DCB "C"
	DCB	0x0, "M", 0x0, "_", 0x0, "S", 0x0, "L", 0x0, "E", 0x0, "E"
	DCB	0x0, "P", 0x0, "D", 0x0, "E", 0x0, "P", 0x0, "_", 0x0, "C"
	DCB	0x0, "A", 0x0, "M", 0x0, 0x0, 0x0	; `string'

  00000			 AREA	 |.rdata|, DATA, READONLY
|??_C@_1BM@PHMBHCAL@?$AAC?$AAM?$AA_?$AAC?$AAL?$AAK?$AAS?$AAE?$AAL?$AA_?$AAC?$AAA?$AAM?$AA?$AA@| DCB "C"
	DCB	0x0, "M", 0x0, "_", 0x0, "C", 0x0, "L", 0x0, "K", 0x0, "S"
	DCB	0x0, "E", 0x0, "L", 0x0, "_", 0x0, "C", 0x0, "A", 0x0, "M"
	DCB	0x0, 0x0, 0x0				; `string'

  00000			 AREA	 |.rdata|, DATA, READONLY
|??_C@_1CA@BFELLDNJ@?$AAC?$AAM?$AA_?$AAA?$AAU?$AAT?$AAO?$AAI?$AAD?$AAL?$AAE?$AA_?$AAC?$AAA?$AAM?$AA?$AA@| DCB "C"
	DCB	0x0, "M", 0x0, "_", 0x0, "A", 0x0, "U", 0x0, "T", 0x0, "O"
	DCB	0x0, "I", 0x0, "D", 0x0, "L", 0x0, "E", 0x0, "_", 0x0, "C"
	DCB	0x0, "A", 0x0, "M", 0x0, 0x0, 0x0	; `string'

  00000			 AREA	 |.rdata|, DATA, READONLY
|??_C@_1BM@DNPFPKPP@?$AAC?$AAM?$AA_?$AAI?$AAD?$AAL?$AAE?$AAS?$AAT?$AA_?$AAC?$AAA?$AAM?$AA?$AA@| DCB "C"
	DCB	0x0, "M", 0x0, "_", 0x0, "I", 0x0, "D", 0x0, "L", 0x0, "E"
	DCB	0x0, "S", 0x0, "T", 0x0, "_", 0x0, "C", 0x0, "A", 0x0, "M"
	DCB	0x0, 0x0, 0x0				; `string'

  00000			 AREA	 |.rdata|, DATA, READONLY
|??_C@_1BM@IEGMNIIA@?$AAC?$AAM?$AA_?$AAI?$AAC?$AAL?$AAK?$AAE?$AAN?$AA_?$AAC?$AAA?$AAM?$AA?$AA@| DCB "C"
	DCB	0x0, "M", 0x0, "_", 0x0, "I", 0x0, "C", 0x0, "L", 0x0, "K"
	DCB	0x0, "E", 0x0, "N", 0x0, "_", 0x0, "C", 0x0, "A", 0x0, "M"
	DCB	0x0, 0x0, 0x0				; `string'

  00000			 AREA	 |.rdata|, DATA, READONLY
|??_C@_1BM@FIPGMAMA@?$AAC?$AAM?$AA_?$AAF?$AAC?$AAL?$AAK?$AAE?$AAN?$AA_?$AAC?$AAA?$AAM?$AA?$AA@| DCB "C"
	DCB	0x0, "M", 0x0, "_", 0x0, "F", 0x0, "C", 0x0, "L", 0x0, "K"
	DCB	0x0, "E", 0x0, "N", 0x0, "_", 0x0, "C", 0x0, "A", 0x0, "M"
	DCB	0x0, 0x0, 0x0				; `string'

  00000			 AREA	 |.rdata|, DATA, READONLY
|??_C@_1O@LPKKDKNF@?$AAC?$AAA?$AAM?$AA_?$AAC?$AAM?$AA?$AA@| DCB "C", 0x0, "A"
	DCB	0x0, "M", 0x0, "_", 0x0, "C", 0x0, "M", 0x0, 0x0, 0x0 ; `string'

  00000			 AREA	 |.rdata|, DATA, READONLY
|??_C@_1BO@MBBCBBCE@?$AAC?$AAM?$AA_?$AAC?$AAL?$AAK?$AAS?$AAT?$AAS?$AAT?$AA_?$AAD?$AAS?$AAS?$AA?$AA@| DCB "C"
	DCB	0x0, "M", 0x0, "_", 0x0, "C", 0x0, "L", 0x0, "K", 0x0, "S"
	DCB	0x0, "T", 0x0, "S", 0x0, "T", 0x0, "_", 0x0, "D", 0x0, "S"
	DCB	0x0, "S", 0x0, 0x0, 0x0			; `string'

  00000			 AREA	 |.rdata|, DATA, READONLY
|??_C@_1CC@GJGCLMP@?$AAC?$AAM?$AA_?$AAC?$AAL?$AAK?$AAS?$AAT?$AAC?$AAT?$AAR?$AAL?$AA_?$AAD?$AAS?$AAS?$AA?$AA@| DCB "C"
	DCB	0x0, "M", 0x0, "_", 0x0, "C", 0x0, "L", 0x0, "K", 0x0, "S"
	DCB	0x0, "T", 0x0, "C", 0x0, "T", 0x0, "R", 0x0, "L", 0x0, "_"
	DCB	0x0, "D", 0x0, "S", 0x0, "S", 0x0, 0x0, 0x0 ; `string'

  00000			 AREA	 |.rdata|, DATA, READONLY
|??_C@_1CA@HHIKKAKJ@?$AAC?$AAM?$AA_?$AAS?$AAL?$AAE?$AAE?$AAP?$AAD?$AAE?$AAP?$AA_?$AAD?$AAS?$AAS?$AA?$AA@| DCB "C"
	DCB	0x0, "M", 0x0, "_", 0x0, "S", 0x0, "L", 0x0, "E", 0x0, "E"
	DCB	0x0, "P", 0x0, "D", 0x0, "E", 0x0, "P", 0x0, "_", 0x0, "D"
	DCB	0x0, "S", 0x0, "S", 0x0, 0x0, 0x0	; `string'

  00000			 AREA	 |.rdata|, DATA, READONLY
|??_C@_1BM@DNMPICO@?$AAC?$AAM?$AA_?$AAC?$AAL?$AAK?$AAS?$AAE?$AAL?$AA_?$AAD?$AAS?$AAS?$AA?$AA@| DCB "C"
	DCB	0x0, "M", 0x0, "_", 0x0, "C", 0x0, "L", 0x0, "K", 0x0, "S"
	DCB	0x0, "E", 0x0, "L", 0x0, "_", 0x0, "D", 0x0, "S", 0x0, "S"
	DCB	0x0, 0x0, 0x0				; `string'

  00000			 AREA	 |.rdata|, DATA, READONLY
|??_C@_1CA@OBFGDJPM@?$AAC?$AAM?$AA_?$AAA?$AAU?$AAT?$AAO?$AAI?$AAD?$AAL?$AAE?$AA_?$AAD?$AAS?$AAS?$AA?$AA@| DCB "C"
	DCB	0x0, "M", 0x0, "_", 0x0, "A", 0x0, "U", 0x0, "T", 0x0, "O"
	DCB	0x0, "I", 0x0, "D", 0x0, "L", 0x0, "E", 0x0, "_", 0x0, "D"
	DCB	0x0, "S", 0x0, "S", 0x0, 0x0, 0x0	; `string'

  00000			 AREA	 |.rdata|, DATA, READONLY
|??_C@_1BM@MJOIHANK@?$AAC?$AAM?$AA_?$AAI?$AAD?$AAL?$AAE?$AAS?$AAT?$AA_?$AAD?$AAS?$AAS?$AA?$AA@| DCB "C"
	DCB	0x0, "M", 0x0, "_", 0x0, "I", 0x0, "D", 0x0, "L", 0x0, "E"
	DCB	0x0, "S", 0x0, "T", 0x0, "_", 0x0, "D", 0x0, "S", 0x0, "S"
	DCB	0x0, 0x0, 0x0				; `string'

  00000			 AREA	 |.rdata|, DATA, READONLY
|??_C@_1BM@HAHBFCKF@?$AAC?$AAM?$AA_?$AAI?$AAC?$AAL?$AAK?$AAE?$AAN?$AA_?$AAD?$AAS?$AAS?$AA?$AA@| DCB "C"
	DCB	0x0, "M", 0x0, "_", 0x0, "I", 0x0, "C", 0x0, "L", 0x0, "K"
	DCB	0x0, "E", 0x0, "N", 0x0, "_", 0x0, "D", 0x0, "S", 0x0, "S"
	DCB	0x0, 0x0, 0x0				; `string'

  00000			 AREA	 |.rdata|, DATA, READONLY
|??_C@_1BM@KMOLEKOF@?$AAC?$AAM?$AA_?$AAF?$AAC?$AAL?$AAK?$AAE?$AAN?$AA_?$AAD?$AAS?$AAS?$AA?$AA@| DCB "C"
	DCB	0x0, "M", 0x0, "_", 0x0, "F", 0x0, "C", 0x0, "L", 0x0, "K"
	DCB	0x0, "E", 0x0, "N", 0x0, "_", 0x0, "D", 0x0, "S", 0x0, "S"
	DCB	0x0, 0x0, 0x0				; `string'

  00000			 AREA	 |.rdata|, DATA, READONLY
|??_C@_1O@DCDFCCN@?$AAD?$AAS?$AAS?$AA_?$AAC?$AAM?$AA?$AA@| DCB "D", 0x0, "S"
	DCB	0x0, "S", 0x0, "_", 0x0, "C", 0x0, "M", 0x0, 0x0, 0x0 ; `string'

  00000			 AREA	 |.rdata|, DATA, READONLY
|??_C@_1BO@MLHAGPEI@?$AAC?$AAM?$AA_?$AAC?$AAL?$AAK?$AAO?$AAU?$AAT?$AA_?$AAC?$AAT?$AAR?$AAL?$AA?$AA@| DCB "C"
	DCB	0x0, "M", 0x0, "_", 0x0, "C", 0x0, "L", 0x0, "K", 0x0, "O"
	DCB	0x0, "U", 0x0, "T", 0x0, "_", 0x0, "C", 0x0, "T", 0x0, "R"
	DCB	0x0, "L", 0x0, 0x0, 0x0			; `string'

  00000			 AREA	 |.rdata|, DATA, READONLY
|??_C@_1BO@IIHNOIA@?$AAC?$AAM?$AA_?$AAC?$AAL?$AAK?$AAS?$AAE?$AAL?$AA5?$AA_?$AAP?$AAL?$AAL?$AA?$AA@| DCB "C"
	DCB	0x0, "M", 0x0, "_", 0x0, "C", 0x0, "L", 0x0, "K", 0x0, "S"
	DCB	0x0, "E", 0x0, "L", 0x0, "5", 0x0, "_", 0x0, "P", 0x0, "L"
	DCB	0x0, "L", 0x0, 0x0, 0x0			; `string'

  00000			 AREA	 |.rdata|, DATA, READONLY
|??_C@_1BO@JDCCJCOP@?$AAC?$AAM?$AA_?$AAC?$AAL?$AAK?$AAS?$AAE?$AAL?$AA4?$AA_?$AAP?$AAL?$AAL?$AA?$AA@| DCB "C"
	DCB	0x0, "M", 0x0, "_", 0x0, "C", 0x0, "L", 0x0, "K", 0x0, "S"
	DCB	0x0, "E", 0x0, "L", 0x0, "4", 0x0, "_", 0x0, "P", 0x0, "L"
	DCB	0x0, "L", 0x0, 0x0, 0x0			; `string'

  00000			 AREA	 |.rdata|, DATA, READONLY
|??_C@_1BO@OHLKHLGA@?$AAC?$AAM?$AA_?$AAC?$AAL?$AAK?$AAS?$AAE?$AAL?$AA3?$AA_?$AAP?$AAL?$AAL?$AA?$AA@| DCB "C"
	DCB	0x0, "M", 0x0, "_", 0x0, "C", 0x0, "L", 0x0, "K", 0x0, "S"
	DCB	0x0, "E", 0x0, "L", 0x0, "3", 0x0, "_", 0x0, "P", 0x0, "L"
	DCB	0x0, "L", 0x0, 0x0, 0x0			; `string'

  00000			 AREA	 |.rdata|, DATA, READONLY
|??_C@_1BO@HMBPDHAP@?$AAC?$AAM?$AA_?$AAC?$AAL?$AAK?$AAS?$AAE?$AAL?$AA2?$AA_?$AAP?$AAL?$AAL?$AA?$AA@| DCB "C"
	DCB	0x0, "M", 0x0, "_", 0x0, "C", 0x0, "L", 0x0, "K", 0x0, "S"
	DCB	0x0, "E", 0x0, "L", 0x0, "2", 0x0, "_", 0x0, "P", 0x0, "L"
	DCB	0x0, "L", 0x0, 0x0, 0x0			; `string'

  00000			 AREA	 |.rdata|, DATA, READONLY
|??_C@_1BO@LIBOFPP@?$AAC?$AAM?$AA_?$AAC?$AAL?$AAK?$AAS?$AAE?$AAL?$AA1?$AA_?$AAP?$AAL?$AAL?$AA?$AA@| DCB "C"
	DCB	0x0, "M", 0x0, "_", 0x0, "C", 0x0, "L", 0x0, "K", 0x0, "S"
	DCB	0x0, "E", 0x0, "L", 0x0, "1", 0x0, "_", 0x0, "P", 0x0, "L"
	DCB	0x0, "L", 0x0, 0x0, 0x0			; `string'

  00000			 AREA	 |.rdata|, DATA, READONLY
|??_C@_1CC@CDHCIADO@?$AAC?$AAM?$AA_?$AAA?$AAU?$AAT?$AAO?$AAI?$AAD?$AAL?$AAE?$AA2?$AA_?$AAP?$AAL?$AAL?$AA?$AA@| DCB "C"
	DCB	0x0, "M", 0x0, "_", 0x0, "A", 0x0, "U", 0x0, "T", 0x0, "O"
	DCB	0x0, "I", 0x0, "D", 0x0, "L", 0x0, "E", 0x0, "2", 0x0, "_"
	DCB	0x0, "P", 0x0, "L", 0x0, "L", 0x0, 0x0, 0x0 ; `string'

  00000			 AREA	 |.rdata|, DATA, READONLY
|??_C@_1CA@ODFNPBKK@?$AAC?$AAM?$AA_?$AAA?$AAU?$AAT?$AAO?$AAI?$AAD?$AAL?$AAE?$AA_?$AAP?$AAL?$AAL?$AA?$AA@| DCB "C"
	DCB	0x0, "M", 0x0, "_", 0x0, "A", 0x0, "U", 0x0, "T", 0x0, "O"
	DCB	0x0, "I", 0x0, "D", 0x0, "L", 0x0, "E", 0x0, "_", 0x0, "P"
	DCB	0x0, "L", 0x0, "L", 0x0, 0x0, 0x0	; `string'

  00000			 AREA	 |.rdata|, DATA, READONLY
|??_C@_1CC@OBCEIAAE@?$AAC?$AAM?$AA_?$AAI?$AAD?$AAL?$AAE?$AAS?$AAT?$AA2?$AA_?$AAC?$AAK?$AAG?$AAE?$AAN?$AA?$AA@| DCB "C"
	DCB	0x0, "M", 0x0, "_", 0x0, "I", 0x0, "D", 0x0, "L", 0x0, "E"
	DCB	0x0, "S", 0x0, "T", 0x0, "2", 0x0, "_", 0x0, "C", 0x0, "K"
	DCB	0x0, "G", 0x0, "E", 0x0, "N", 0x0, 0x0, 0x0 ; `string'

  00000			 AREA	 |.rdata|, DATA, READONLY
|??_C@_1CA@PFEJJBMO@?$AAC?$AAM?$AA_?$AAI?$AAD?$AAL?$AAE?$AAS?$AAT?$AA_?$AAC?$AAK?$AAG?$AAE?$AAN?$AA?$AA@| DCB "C"
	DCB	0x0, "M", 0x0, "_", 0x0, "I", 0x0, "D", 0x0, "L", 0x0, "E"
	DCB	0x0, "S", 0x0, "T", 0x0, "_", 0x0, "C", 0x0, "K", 0x0, "G"
	DCB	0x0, "E", 0x0, "N", 0x0, 0x0, 0x0	; `string'

  00000			 AREA	 |.rdata|, DATA, READONLY
|??_C@_1BM@DGCCAOAF@?$AAC?$AAM?$AA_?$AAC?$AAL?$AAK?$AAE?$AAN?$AA2?$AA_?$AAP?$AAL?$AAL?$AA?$AA@| DCB "C"
	DCB	0x0, "M", 0x0, "_", 0x0, "C", 0x0, "L", 0x0, "K", 0x0, "E"
	DCB	0x0, "N", 0x0, "2", 0x0, "_", 0x0, "P", 0x0, "L", 0x0, "L"
	DCB	0x0, 0x0, 0x0				; `string'

  00000			 AREA	 |.rdata|, DATA, READONLY
|??_C@_1BK@CFOGEALB@?$AAC?$AAM?$AA_?$AAC?$AAL?$AAK?$AAE?$AAN?$AA_?$AAP?$AAL?$AAL?$AA?$AA@| DCB "C"
	DCB	0x0, "M", 0x0, "_", 0x0, "C", 0x0, "L", 0x0, "K", 0x0, "E"
	DCB	0x0, "N", 0x0, "_", 0x0, "P", 0x0, "L", 0x0, "L", 0x0, 0x0
	DCB	0x0					; `string'

  00000			 AREA	 |.rdata|, DATA, READONLY
|??_C@_1CK@OJMCKPMK@?$AAC?$AAl?$AAo?$AAc?$AAk?$AA_?$AAC?$AAo?$AAn?$AAt?$AAr?$AAo?$AAl?$AA_?$AAR?$AAe?$AAg?$AA_?$AAC?$AAM?$AA?$AA@| DCB "C"
	DCB	0x0, "l", 0x0, "o", 0x0, "c", 0x0, "k", 0x0, "_", 0x0, "C"
	DCB	0x0, "o", 0x0, "n", 0x0, "t", 0x0, "r", 0x0, "o", 0x0, "l"
	DCB	0x0, "_", 0x0, "R", 0x0, "e", 0x0, "g", 0x0, "_", 0x0, "C"
	DCB	0x0, "M", 0x0, 0x0, 0x0			; `string'

  00000			 AREA	 |.rdata|, DATA, READONLY
|??_C@_1BO@MGPCIMBE@?$AAC?$AAM?$AA_?$AAC?$AAL?$AAK?$AAS?$AAE?$AAL?$AA_?$AAW?$AAK?$AAU?$AAP?$AA?$AA@| DCB "C"
	DCB	0x0, "M", 0x0, "_", 0x0, "C", 0x0, "L", 0x0, "K", 0x0, "S"
	DCB	0x0, "E", 0x0, "L", 0x0, "_", 0x0, "W", 0x0, "K", 0x0, "U"
	DCB	0x0, "P", 0x0, 0x0, 0x0			; `string'

  00000			 AREA	 |.rdata|, DATA, READONLY
|??_C@_1CC@JJJPDLCF@?$AAC?$AAM?$AA_?$AAA?$AAU?$AAT?$AAO?$AAI?$AAD?$AAL?$AAE?$AA_?$AAW?$AAK?$AAU?$AAP?$AA?$AA@| DCB "C"
	DCB	0x0, "M", 0x0, "_", 0x0, "A", 0x0, "U", 0x0, "T", 0x0, "O"
	DCB	0x0, "I", 0x0, "D", 0x0, "L", 0x0, "E", 0x0, "_", 0x0, "W"
	DCB	0x0, "K", 0x0, "U", 0x0, "P", 0x0, 0x0, 0x0 ; `string'

  00000			 AREA	 |.rdata|, DATA, READONLY
|??_C@_1BO@FFEBGJIL@?$AAC?$AAM?$AA_?$AAI?$AAD?$AAL?$AAE?$AAS?$AAT?$AA_?$AAW?$AAK?$AAU?$AAP?$AA?$AA@| DCB "C"
	DCB	0x0, "M", 0x0, "_", 0x0, "I", 0x0, "D", 0x0, "L", 0x0, "E"
	DCB	0x0, "S", 0x0, "T", 0x0, "_", 0x0, "W", 0x0, "K", 0x0, "U"
	DCB	0x0, "P", 0x0, 0x0, 0x0			; `string'

  00000			 AREA	 |.rdata|, DATA, READONLY
|??_C@_1BO@CIIGPEMP@?$AAC?$AAM?$AA_?$AAI?$AAC?$AAL?$AAK?$AAE?$AAN?$AA_?$AAW?$AAK?$AAU?$AAP?$AA?$AA@| DCB "C"
	DCB	0x0, "M", 0x0, "_", 0x0, "I", 0x0, "C", 0x0, "L", 0x0, "K"
	DCB	0x0, "E", 0x0, "N", 0x0, "_", 0x0, "W", 0x0, "K", 0x0, "U"
	DCB	0x0, "P", 0x0, 0x0, 0x0			; `string'

  00000			 AREA	 |.rdata|, DATA, READONLY
|??_C@_1BO@MLJDPPAG@?$AAC?$AAM?$AA_?$AAF?$AAC?$AAL?$AAK?$AAE?$AAN?$AA_?$AAW?$AAK?$AAU?$AAP?$AA?$AA@| DCB "C"
	DCB	0x0, "M", 0x0, "_", 0x0, "F", 0x0, "C", 0x0, "L", 0x0, "K"
	DCB	0x0, "E", 0x0, "N", 0x0, "_", 0x0, "W", 0x0, "K", 0x0, "U"
	DCB	0x0, "P", 0x0, 0x0, 0x0			; `string'

  00000			 AREA	 |.rdata|, DATA, READONLY
|??_C@_1BA@FJBNPKLL@?$AAW?$AAK?$AAU?$AAP?$AA_?$AAC?$AAM?$AA?$AA@| DCB "W", 0x0
	DCB	"K", 0x0, "U", 0x0, "P", 0x0, "_", 0x0, "C", 0x0, "M", 0x0
	DCB	0x0, 0x0				; `string'

  00000			 AREA	 |.rdata|, DATA, READONLY
|??_C@_1BO@PICKOOJK@?$AAC?$AAM?$AA_?$AAC?$AAL?$AAK?$AAS?$AAT?$AAS?$AAT?$AA_?$AAS?$AAG?$AAX?$AA?$AA@| DCB "C"
	DCB	0x0, "M", 0x0, "_", 0x0, "C", 0x0, "L", 0x0, "K", 0x0, "S"
	DCB	0x0, "T", 0x0, "S", 0x0, "T", 0x0, "_", 0x0, "S", 0x0, "G"
	DCB	0x0, "X", 0x0, 0x0, 0x0			; `string'

  00000			 AREA	 |.rdata|, DATA, READONLY
|??_C@_1CC@DPKONEHB@?$AAC?$AAM?$AA_?$AAC?$AAL?$AAK?$AAS?$AAT?$AAC?$AAT?$AAR?$AAL?$AA_?$AAS?$AAG?$AAX?$AA?$AA@| DCB "C"
	DCB	0x0, "M", 0x0, "_", 0x0, "C", 0x0, "L", 0x0, "K", 0x0, "S"
	DCB	0x0, "T", 0x0, "C", 0x0, "T", 0x0, "R", 0x0, "L", 0x0, "_"
	DCB	0x0, "S", 0x0, "G", 0x0, "X", 0x0, 0x0, 0x0 ; `string'

  00000			 AREA	 |.rdata|, DATA, READONLY
|??_C@_1CA@EOLCFPBH@?$AAC?$AAM?$AA_?$AAS?$AAL?$AAE?$AAE?$AAP?$AAD?$AAE?$AAP?$AA_?$AAS?$AAG?$AAX?$AA?$AA@| DCB "C"
	DCB	0x0, "M", 0x0, "_", 0x0, "S", 0x0, "L", 0x0, "E", 0x0, "E"
	DCB	0x0, "P", 0x0, "D", 0x0, "E", 0x0, "P", 0x0, "_", 0x0, "S"
	DCB	0x0, "G", 0x0, "X", 0x0, 0x0, 0x0	; `string'

  00000			 AREA	 |.rdata|, DATA, READONLY
|??_C@_1BM@DKOEAHJA@?$AAC?$AAM?$AA_?$AAC?$AAL?$AAK?$AAS?$AAE?$AAL?$AA_?$AAS?$AAG?$AAX?$AA?$AA@| DCB "C"
	DCB	0x0, "M", 0x0, "_", 0x0, "C", 0x0, "L", 0x0, "K", 0x0, "S"
	DCB	0x0, "E", 0x0, "L", 0x0, "_", 0x0, "S", 0x0, "G", 0x0, "X"
	DCB	0x0, 0x0, 0x0				; `string'

  00000			 AREA	 |.rdata|, DATA, READONLY
|??_C@_1BM@PANAIPGE@?$AAC?$AAM?$AA_?$AAI?$AAD?$AAL?$AAE?$AAS?$AAT?$AA_?$AAS?$AAG?$AAX?$AA?$AA@| DCB "C"
	DCB	0x0, "M", 0x0, "_", 0x0, "I", 0x0, "D", 0x0, "L", 0x0, "E"
	DCB	0x0, "S", 0x0, "T", 0x0, "_", 0x0, "S", 0x0, "G", 0x0, "X"
	DCB	0x0, 0x0, 0x0				; `string'

  00000			 AREA	 |.rdata|, DATA, READONLY
|??_C@_1BM@EJEJKNBL@?$AAC?$AAM?$AA_?$AAI?$AAC?$AAL?$AAK?$AAE?$AAN?$AA_?$AAS?$AAG?$AAX?$AA?$AA@| DCB "C"
	DCB	0x0, "M", 0x0, "_", 0x0, "I", 0x0, "C", 0x0, "L", 0x0, "K"
	DCB	0x0, "E", 0x0, "N", 0x0, "_", 0x0, "S", 0x0, "G", 0x0, "X"
	DCB	0x0, 0x0, 0x0				; `string'

  00000			 AREA	 |.rdata|, DATA, READONLY
|??_C@_1BM@JFNDLFFL@?$AAC?$AAM?$AA_?$AAF?$AAC?$AAL?$AAK?$AAE?$AAN?$AA_?$AAS?$AAG?$AAX?$AA?$AA@| DCB "C"
	DCB	0x0, "M", 0x0, "_", 0x0, "F", 0x0, "C", 0x0, "L", 0x0, "K"
	DCB	0x0, "E", 0x0, "N", 0x0, "_", 0x0, "S", 0x0, "G", 0x0, "X"
	DCB	0x0, 0x0, 0x0				; `string'

  00000			 AREA	 |.rdata|, DATA, READONLY
|??_C@_1O@PHKCOJPF@?$AAS?$AAG?$AAX?$AA_?$AAC?$AAM?$AA?$AA@| DCB "S", 0x0, "G"
	DCB	0x0, "X", 0x0, "_", 0x0, "C", 0x0, "M", 0x0, 0x0, 0x0 ; `string'

  00000			 AREA	 |.rdata|, DATA, READONLY
|??_C@_1CA@DFAGEEPB@?$AAC?$AAM?$AA_?$AAC?$AAL?$AAK?$AAS?$AAT?$AAS?$AAT?$AA_?$AAC?$AAO?$AAR?$AAE?$AA?$AA@| DCB "C"
	DCB	0x0, "M", 0x0, "_", 0x0, "C", 0x0, "L", 0x0, "K", 0x0, "S"
	DCB	0x0, "T", 0x0, "S", 0x0, "T", 0x0, "_", 0x0, "C", 0x0, "O"
	DCB	0x0, "R", 0x0, "E", 0x0, 0x0, 0x0	; `string'

  00000			 AREA	 |.rdata|, DATA, READONLY
|??_C@_1CE@EOIAHAOA@?$AAC?$AAM?$AA_?$AAC?$AAL?$AAK?$AAS?$AAT?$AAC?$AAT?$AAR?$AAL?$AA_?$AAC?$AAO?$AAR?$AAE?$AA?$AA@| DCB "C"
	DCB	0x0, "M", 0x0, "_", 0x0, "C", 0x0, "L", 0x0, "K", 0x0, "S"
	DCB	0x0, "T", 0x0, "C", 0x0, "T", 0x0, "R", 0x0, "L", 0x0, "_"
	DCB	0x0, "C", 0x0, "O", 0x0, "R", 0x0, "E", 0x0, 0x0, 0x0 ; `string'

  00000			 AREA	 |.rdata|, DATA, READONLY
|??_C@_1BO@BGDPDEGJ@?$AAC?$AAM?$AA_?$AAC?$AAL?$AAK?$AAS?$AAE?$AAL?$AA_?$AAC?$AAO?$AAR?$AAE?$AA?$AA@| DCB "C"
	DCB	0x0, "M", 0x0, "_", 0x0, "C", 0x0, "L", 0x0, "K", 0x0, "S"
	DCB	0x0, "E", 0x0, "L", 0x0, "_", 0x0, "C", 0x0, "O", 0x0, "R"
	DCB	0x0, "E", 0x0, 0x0, 0x0			; `string'

  00000			 AREA	 |.rdata|, DATA, READONLY
|??_C@_1CE@OGHCKMLF@?$AAC?$AAM?$AA_?$AAA?$AAU?$AAT?$AAO?$AAI?$AAD?$AAL?$AAE?$AA3?$AA_?$AAC?$AAO?$AAR?$AAE?$AA?$AA@| DCB "C"
	DCB	0x0, "M", 0x0, "_", 0x0, "A", 0x0, "U", 0x0, "T", 0x0, "O"
	DCB	0x0, "I", 0x0, "D", 0x0, "L", 0x0, "E", 0x0, "3", 0x0, "_"
	DCB	0x0, "C", 0x0, "O", 0x0, "R", 0x0, "E", 0x0, 0x0, 0x0 ; `string'

  00000			 AREA	 |.rdata|, DATA, READONLY
|??_C@_1CE@HLHNENMD@?$AAC?$AAM?$AA_?$AAA?$AAU?$AAT?$AAO?$AAI?$AAD?$AAL?$AAE?$AA2?$AA_?$AAC?$AAO?$AAR?$AAE?$AA?$AA@| DCB "C"
	DCB	0x0, "M", 0x0, "_", 0x0, "A", 0x0, "U", 0x0, "T", 0x0, "O"
	DCB	0x0, "I", 0x0, "D", 0x0, "L", 0x0, "E", 0x0, "2", 0x0, "_"
	DCB	0x0, "C", 0x0, "O", 0x0, "R", 0x0, "E", 0x0, 0x0, 0x0 ; `string'

  00000			 AREA	 |.rdata|, DATA, READONLY
|??_C@_1CE@HBMGIBI@?$AAC?$AAM?$AA_?$AAA?$AAU?$AAT?$AAO?$AAI?$AAD?$AAL?$AAE?$AA1?$AA_?$AAC?$AAO?$AAR?$AAE?$AA?$AA@| DCB "C"
	DCB	0x0, "M", 0x0, "_", 0x0, "A", 0x0, "U", 0x0, "T", 0x0, "O"
	DCB	0x0, "I", 0x0, "D", 0x0, "L", 0x0, "E", 0x0, "1", 0x0, "_"
	DCB	0x0, "C", 0x0, "O", 0x0, "R", 0x0, "E", 0x0, 0x0, 0x0 ; `string'

  00000			 AREA	 |.rdata|, DATA, READONLY
|??_C@_1CA@FDJDMBNE@?$AAC?$AAM?$AA_?$AAI?$AAD?$AAL?$AAE?$AAS?$AAT?$AA3?$AA_?$AAC?$AAO?$AAR?$AAE?$AA?$AA@| DCB "C"
	DCB	0x0, "M", 0x0, "_", 0x0, "I", 0x0, "D", 0x0, "L", 0x0, "E"
	DCB	0x0, "S", 0x0, "T", 0x0, "3", 0x0, "_", 0x0, "C", 0x0, "O"
	DCB	0x0, "R", 0x0, "E", 0x0, 0x0, 0x0	; `string'

  00000			 AREA	 |.rdata|, DATA, READONLY
|??_C@_1CA@MOJMCAKC@?$AAC?$AAM?$AA_?$AAI?$AAD?$AAL?$AAE?$AAS?$AAT?$AA2?$AA_?$AAC?$AAO?$AAR?$AAE?$AA?$AA@| DCB "C"
	DCB	0x0, "M", 0x0, "_", 0x0, "I", 0x0, "D", 0x0, "L", 0x0, "E"
	DCB	0x0, "S", 0x0, "T", 0x0, "2", 0x0, "_", 0x0, "C", 0x0, "O"
	DCB	0x0, "R", 0x0, "E", 0x0, 0x0, 0x0	; `string'

  00000			 AREA	 |.rdata|, DATA, READONLY
|??_C@_1CA@LCPNAFHJ@?$AAC?$AAM?$AA_?$AAI?$AAD?$AAL?$AAE?$AAS?$AAT?$AA1?$AA_?$AAC?$AAO?$AAR?$AAE?$AA?$AA@| DCB "C"
	DCB	0x0, "M", 0x0, "_", 0x0, "I", 0x0, "D", 0x0, "L", 0x0, "E"
	DCB	0x0, "S", 0x0, "T", 0x0, "1", 0x0, "_", 0x0, "C", 0x0, "O"
	DCB	0x0, "R", 0x0, "E", 0x0, 0x0, 0x0	; `string'

  00000			 AREA	 |.rdata|, DATA, READONLY
|??_C@_1CA@EJDINJOL@?$AAC?$AAM?$AA_?$AAI?$AAC?$AAL?$AAK?$AAE?$AAN?$AA3?$AA_?$AAC?$AAO?$AAR?$AAE?$AA?$AA@| DCB "C"
	DCB	0x0, "M", 0x0, "_", 0x0, "I", 0x0, "C", 0x0, "L", 0x0, "K"
	DCB	0x0, "E", 0x0, "N", 0x0, "3", 0x0, "_", 0x0, "C", 0x0, "O"
	DCB	0x0, "R", 0x0, "E", 0x0, 0x0, 0x0	; `string'

  00000			 AREA	 |.rdata|, DATA, READONLY
|??_C@_1CA@NEDHDIJN@?$AAC?$AAM?$AA_?$AAI?$AAC?$AAL?$AAK?$AAE?$AAN?$AA2?$AA_?$AAC?$AAO?$AAR?$AAE?$AA?$AA@| DCB "C"
	DCB	0x0, "M", 0x0, "_", 0x0, "I", 0x0, "C", 0x0, "L", 0x0, "K"
	DCB	0x0, "E", 0x0, "N", 0x0, "2", 0x0, "_", 0x0, "C", 0x0, "O"
	DCB	0x0, "R", 0x0, "E", 0x0, 0x0, 0x0	; `string'

  00000			 AREA	 |.rdata|, DATA, READONLY
|??_C@_1CA@KIFGBNEG@?$AAC?$AAM?$AA_?$AAI?$AAC?$AAL?$AAK?$AAE?$AAN?$AA1?$AA_?$AAC?$AAO?$AAR?$AAE?$AA?$AA@| DCB "C"
	DCB	0x0, "M", 0x0, "_", 0x0, "I", 0x0, "C", 0x0, "L", 0x0, "K"
	DCB	0x0, "E", 0x0, "N", 0x0, "1", 0x0, "_", 0x0, "C", 0x0, "O"
	DCB	0x0, "R", 0x0, "E", 0x0, 0x0, 0x0	; `string'

  00000			 AREA	 |.rdata|, DATA, READONLY
|??_C@_1CA@MENCIPHB@?$AAC?$AAM?$AA_?$AAF?$AAC?$AAL?$AAK?$AAE?$AAN?$AA3?$AA_?$AAC?$AAO?$AAR?$AAE?$AA?$AA@| DCB "C"
	DCB	0x0, "M", 0x0, "_", 0x0, "F", 0x0, "C", 0x0, "L", 0x0, "K"
	DCB	0x0, "E", 0x0, "N", 0x0, "3", 0x0, "_", 0x0, "C", 0x0, "O"
	DCB	0x0, "R", 0x0, "E", 0x0, 0x0, 0x0	; `string'

  00000			 AREA	 |.rdata|, DATA, READONLY
|??_C@_1CA@CFLMELNM@?$AAC?$AAM?$AA_?$AAF?$AAC?$AAL?$AAK?$AAE?$AAN?$AA1?$AA_?$AAC?$AAO?$AAR?$AAE?$AA?$AA@| DCB "C"
	DCB	0x0, "M", 0x0, "_", 0x0, "F", 0x0, "C", 0x0, "L", 0x0, "K"
	DCB	0x0, "E", 0x0, "N", 0x0, "1", 0x0, "_", 0x0, "C", 0x0, "O"
	DCB	0x0, "R", 0x0, "E", 0x0, 0x0, 0x0	; `string'

  00000			 AREA	 |.rdata|, DATA, READONLY
|??_C@_1BA@MHLIKEJK@?$AAC?$AAO?$AAR?$AAE?$AA_?$AAC?$AAM?$AA?$AA@| DCB "C", 0x0
	DCB	"O", 0x0, "R", 0x0, "E", 0x0, "_", 0x0, "C", 0x0, "M", 0x0
	DCB	0x0, 0x0				; `string'

  00000			 AREA	 |.rdata|, DATA, READONLY
|??_C@_1BO@HNKCCHHN@?$AAC?$AAM?$AA_?$AAC?$AAL?$AAK?$AAS?$AAT?$AAS?$AAT?$AA_?$AAM?$AAP?$AAU?$AA?$AA@| DCB "C"
	DCB	0x0, "M", 0x0, "_", 0x0, "C", 0x0, "L", 0x0, "K", 0x0, "S"
	DCB	0x0, "T", 0x0, "S", 0x0, "T", 0x0, "_", 0x0, "M", 0x0, "P"
	DCB	0x0, "U", 0x0, 0x0, 0x0			; `string'

  00000			 AREA	 |.rdata|, DATA, READONLY
|??_C@_1CC@LKCGBNJG@?$AAC?$AAM?$AA_?$AAC?$AAL?$AAK?$AAS?$AAT?$AAC?$AAT?$AAR?$AAL?$AA_?$AAM?$AAP?$AAU?$AA?$AA@| DCB "C"
	DCB	0x0, "M", 0x0, "_", 0x0, "C", 0x0, "L", 0x0, "K", 0x0, "S"
	DCB	0x0, "T", 0x0, "C", 0x0, "T", 0x0, "R", 0x0, "L", 0x0, "_"
	DCB	0x0, "M", 0x0, "P", 0x0, "U", 0x0, 0x0, 0x0 ; `string'

  00000			 AREA	 |.rdata|, DATA, READONLY
|??_C@_1CG@HAJMMJGO@?$AAC?$AAM?$AA_?$AAC?$AAL?$AAK?$AAS?$AAE?$AAL?$AA2?$AA_?$AAP?$AAL?$AAL?$AA_?$AAM?$AAP?$AAU?$AA?$AA@| DCB "C"
	DCB	0x0, "M", 0x0, "_", 0x0, "C", 0x0, "L", 0x0, "K", 0x0, "S"
	DCB	0x0, "E", 0x0, "L", 0x0, "2", 0x0, "_", 0x0, "P", 0x0, "L"
	DCB	0x0, "L", 0x0, "_", 0x0, "M", 0x0, "P", 0x0, "U", 0x0, 0x0
	DCB	0x0					; `string'

  00000			 AREA	 |.rdata|, DATA, READONLY
|??_C@_1CG@NPDFIEKE@?$AAC?$AAM?$AA_?$AAC?$AAL?$AAK?$AAS?$AAE?$AAL?$AA1?$AA_?$AAP?$AAL?$AAL?$AA_?$AAM?$AAP?$AAU?$AA?$AA@| DCB "C"
	DCB	0x0, "M", 0x0, "_", 0x0, "C", 0x0, "L", 0x0, "K", 0x0, "S"
	DCB	0x0, "E", 0x0, "L", 0x0, "1", 0x0, "_", 0x0, "P", 0x0, "L"
	DCB	0x0, "L", 0x0, "_", 0x0, "M", 0x0, "P", 0x0, "U", 0x0, 0x0
	DCB	0x0					; `string'

  00000			 AREA	 |.rdata|, DATA, READONLY
|??_C@_1CI@CMDKJBJB@?$AAC?$AAM?$AA_?$AAA?$AAU?$AAT?$AAO?$AAI?$AAD?$AAL?$AAE?$AA_?$AAP?$AAL?$AAL?$AA_?$AAM?$AAP?$AAU?$AA?$AA@| DCB "C"
	DCB	0x0, "M", 0x0, "_", 0x0, "A", 0x0, "U", 0x0, "T", 0x0, "O"
	DCB	0x0, "I", 0x0, "D", 0x0, "L", 0x0, "E", 0x0, "_", 0x0, "P"
	DCB	0x0, "L", 0x0, "L", 0x0, "_", 0x0, "M", 0x0, "P", 0x0, "U"
	DCB	0x0, 0x0, 0x0				; `string'

  00000			 AREA	 |.rdata|, DATA, READONLY
|??_C@_1CE@BDMBNMCK@?$AAC?$AAM?$AA_?$AAI?$AAD?$AAL?$AAE?$AAS?$AAT?$AA_?$AAP?$AAL?$AAL?$AA_?$AAM?$AAP?$AAU?$AA?$AA@| DCB "C"
	DCB	0x0, "M", 0x0, "_", 0x0, "I", 0x0, "D", 0x0, "L", 0x0, "E"
	DCB	0x0, "S", 0x0, "T", 0x0, "_", 0x0, "P", 0x0, "L", 0x0, "L"
	DCB	0x0, "_", 0x0, "M", 0x0, "P", 0x0, "U", 0x0, 0x0, 0x0 ; `string'

  00000			 AREA	 |.rdata|, DATA, READONLY
|??_C@_1BM@HFFIEGID@?$AAC?$AAM?$AA_?$AAI?$AAD?$AAL?$AAE?$AAS?$AAT?$AA_?$AAM?$AAP?$AAU?$AA?$AA@| DCB "C"
	DCB	0x0, "M", 0x0, "_", 0x0, "I", 0x0, "D", 0x0, "L", 0x0, "E"
	DCB	0x0, "S", 0x0, "T", 0x0, "_", 0x0, "M", 0x0, "P", 0x0, "U"
	DCB	0x0, 0x0, 0x0				; `string'

  00000			 AREA	 |.rdata|, DATA, READONLY
|??_C@_1CC@JNLBAGDF@?$AAC?$AAM?$AA_?$AAC?$AAL?$AAK?$AAE?$AAN?$AA_?$AAP?$AAL?$AAL?$AA_?$AAM?$AAP?$AAU?$AA?$AA@| DCB "C"
	DCB	0x0, "M", 0x0, "_", 0x0, "C", 0x0, "L", 0x0, "K", 0x0, "E"
	DCB	0x0, "N", 0x0, "_", 0x0, "P", 0x0, "L", 0x0, "L", 0x0, "_"
	DCB	0x0, "M", 0x0, "P", 0x0, "U", 0x0, 0x0, 0x0 ; `string'

  00000			 AREA	 |.rdata|, DATA, READONLY
|??_C@_1O@NHPFAPNK@?$AAM?$AAP?$AAU?$AA_?$AAC?$AAM?$AA?$AA@| DCB "M", 0x0, "P"
	DCB	0x0, "U", 0x0, "_", 0x0, "C", 0x0, "M", 0x0, 0x0, 0x0 ; `string'

  00000			 AREA	 |.rdata|, DATA, READONLY
|??_C@_1BK@MFOLEKL@?$AAC?$AAM?$AA_?$AAS?$AAY?$AAS?$AAC?$AAO?$AAN?$AAF?$AAI?$AAG?$AA?$AA@| DCB "C"
	DCB	0x0, "M", 0x0, "_", 0x0, "S", 0x0, "Y", 0x0, "S", 0x0, "C"
	DCB	0x0, "O", 0x0, "N", 0x0, "F", 0x0, "I", 0x0, "G", 0x0, 0x0
	DCB	0x0					; `string'

  00000			 AREA	 |.rdata|, DATA, READONLY
|??_C@_1BI@OFDDPNDA@?$AAC?$AAM?$AA_?$AAR?$AAE?$AAV?$AAI?$AAS?$AAI?$AAO?$AAN?$AA?$AA@| DCB "C"
	DCB	0x0, "M", 0x0, "_", 0x0, "R", 0x0, "E", 0x0, "V", 0x0, "I"
	DCB	0x0, "S", 0x0, "I", 0x0, "O", 0x0, "N", 0x0, 0x0, 0x0 ; `string'

  00000			 AREA	 |.rdata|, DATA, READONLY
|??_C@_1CE@OMIMNBBB@?$AAO?$AAC?$AAP?$AA_?$AAS?$AAy?$AAs?$AAt?$AAe?$AAm?$AA_?$AAR?$AAe?$AAg?$AA_?$AAC?$AAM?$AA?$AA@| DCB "O"
	DCB	0x0, "C", 0x0, "P", 0x0, "_", 0x0, "S", 0x0, "y", 0x0, "s"
	DCB	0x0, "t", 0x0, "e", 0x0, "m", 0x0, "_", 0x0, "R", 0x0, "e"
	DCB	0x0, "g", 0x0, "_", 0x0, "C", 0x0, "M", 0x0, 0x0, 0x0 ; `string'

  00000			 AREA	 |.rdata|, DATA, READONLY
|??_C@_1CA@DCHKBGCI@?$AAC?$AAM?$AA_?$AAC?$AAL?$AAK?$AAS?$AAT?$AAS?$AAT?$AA_?$AAI?$AAV?$AAA?$AA2?$AA?$AA@| DCB "C"
	DCB	0x0, "M", 0x0, "_", 0x0, "C", 0x0, "L", 0x0, "K", 0x0, "S"
	DCB	0x0, "T", 0x0, "S", 0x0, "T", 0x0, "_", 0x0, "I", 0x0, "V"
	DCB	0x0, "A", 0x0, "2", 0x0, 0x0, 0x0	; `string'

  00000			 AREA	 |.rdata|, DATA, READONLY
|??_C@_1CE@EJPMCCDJ@?$AAC?$AAM?$AA_?$AAC?$AAL?$AAK?$AAS?$AAT?$AAC?$AAT?$AAR?$AAL?$AA_?$AAI?$AAV?$AAA?$AA2?$AA?$AA@| DCB "C"
	DCB	0x0, "M", 0x0, "_", 0x0, "C", 0x0, "L", 0x0, "K", 0x0, "S"
	DCB	0x0, "T", 0x0, "C", 0x0, "T", 0x0, "R", 0x0, "L", 0x0, "_"
	DCB	0x0, "I", 0x0, "V", 0x0, "A", 0x0, "2", 0x0, 0x0, 0x0 ; `string'

  00000			 AREA	 |.rdata|, DATA, READONLY
|??_C@_1CI@BECHJFPL@?$AAC?$AAM?$AA_?$AAC?$AAL?$AAK?$AAS?$AAE?$AAL?$AA2?$AA_?$AAP?$AAL?$AAL?$AA_?$AAI?$AAV?$AAA?$AA2?$AA?$AA@| DCB "C"
	DCB	0x0, "M", 0x0, "_", 0x0, "C", 0x0, "L", 0x0, "K", 0x0, "S"
	DCB	0x0, "E", 0x0, "L", 0x0, "2", 0x0, "_", 0x0, "P", 0x0, "L"
	DCB	0x0, "L", 0x0, "_", 0x0, "I", 0x0, "V", 0x0, "A", 0x0, "2"
	DCB	0x0, 0x0, 0x0				; `string'

  00000			 AREA	 |.rdata|, DATA, READONLY
|??_C@_1CI@CNFPDILL@?$AAC?$AAM?$AA_?$AAC?$AAL?$AAK?$AAS?$AAE?$AAL?$AA1?$AA_?$AAP?$AAL?$AAL?$AA_?$AAI?$AAV?$AAA?$AA2?$AA?$AA@| DCB "C"
	DCB	0x0, "M", 0x0, "_", 0x0, "C", 0x0, "L", 0x0, "K", 0x0, "S"
	DCB	0x0, "E", 0x0, "L", 0x0, "1", 0x0, "_", 0x0, "P", 0x0, "L"
	DCB	0x0, "L", 0x0, "_", 0x0, "I", 0x0, "V", 0x0, "A", 0x0, "2"
	DCB	0x0, 0x0, 0x0				; `string'

  00000			 AREA	 |.rdata|, DATA, READONLY
|??_C@_1CK@OCLDONOJ@?$AAC?$AAM?$AA_?$AAA?$AAU?$AAT?$AAO?$AAI?$AAD?$AAL?$AAE?$AA_?$AAP?$AAL?$AAL?$AA_?$AAI?$AAV?$AAA?$AA2?$AA?$AA@| DCB "C"
	DCB	0x0, "M", 0x0, "_", 0x0, "A", 0x0, "U", 0x0, "T", 0x0, "O"
	DCB	0x0, "I", 0x0, "D", 0x0, "L", 0x0, "E", 0x0, "_", 0x0, "P"
	DCB	0x0, "L", 0x0, "L", 0x0, "_", 0x0, "I", 0x0, "V", 0x0, "A"
	DCB	0x0, "2", 0x0, 0x0, 0x0			; `string'

  00000			 AREA	 |.rdata|, DATA, READONLY
|??_C@_1CG@ONOPJIEM@?$AAC?$AAM?$AA_?$AAI?$AAD?$AAL?$AAE?$AAS?$AAT?$AA_?$AAP?$AAL?$AAL?$AA_?$AAI?$AAV?$AAA?$AA2?$AA?$AA@| DCB "C"
	DCB	0x0, "M", 0x0, "_", 0x0, "I", 0x0, "D", 0x0, "L", 0x0, "E"
	DCB	0x0, "S", 0x0, "T", 0x0, "_", 0x0, "P", 0x0, "L", 0x0, "L"
	DCB	0x0, "_", 0x0, "I", 0x0, "V", 0x0, "A", 0x0, "2", 0x0, 0x0
	DCB	0x0					; `string'

  00000			 AREA	 |.rdata|, DATA, READONLY
|??_C@_1BO@ICPAIDCP@?$AAC?$AAM?$AA_?$AAI?$AAD?$AAL?$AAE?$AAS?$AAT?$AA_?$AAI?$AAV?$AAA?$AA2?$AA?$AA@| DCB "C"
	DCB	0x0, "M", 0x0, "_", 0x0, "I", 0x0, "D", 0x0, "L", 0x0, "E"
	DCB	0x0, "S", 0x0, "T", 0x0, "_", 0x0, "I", 0x0, "V", 0x0, "A"
	DCB	0x0, "2", 0x0, 0x0, 0x0			; `string'

  00000			 AREA	 |.rdata|, DATA, READONLY
|??_C@_1CE@EGLDCDGI@?$AAC?$AAM?$AA_?$AAC?$AAL?$AAK?$AAE?$AAN?$AA_?$AAP?$AAL?$AAL?$AA_?$AAI?$AAV?$AAA?$AA2?$AA?$AA@| DCB "C"
	DCB	0x0, "M", 0x0, "_", 0x0, "C", 0x0, "L", 0x0, "K", 0x0, "E"
	DCB	0x0, "N", 0x0, "_", 0x0, "P", 0x0, "L", 0x0, "L", 0x0, "_"
	DCB	0x0, "I", 0x0, "V", 0x0, "A", 0x0, "2", 0x0, 0x0, 0x0 ; `string'

  00000			 AREA	 |.rdata|, DATA, READONLY
|??_C@_1BO@BMCCBFKC@?$AAC?$AAM?$AA_?$AAF?$AAC?$AAL?$AAK?$AAE?$AAN?$AA_?$AAI?$AAV?$AAA?$AA2?$AA?$AA@| DCB "C"
	DCB	0x0, "M", 0x0, "_", 0x0, "F", 0x0, "C", 0x0, "L", 0x0, "K"
	DCB	0x0, "E", 0x0, "N", 0x0, "_", 0x0, "I", 0x0, "V", 0x0, "A"
	DCB	0x0, "2", 0x0, 0x0, 0x0			; `string'

  00000			 AREA	 |.rdata|, DATA, READONLY
|??_C@_1BA@JEPMHMHH@?$AAI?$AAV?$AAA?$AA2?$AA_?$AAC?$AAM?$AA?$AA@| DCB "I", 0x0
	DCB	"V", 0x0, "A", 0x0, "2", 0x0, "_", 0x0, "C", 0x0, "M", 0x0
	DCB	0x0, 0x0				; `string'

  00000			 AREA	 |.rdata|, DATA, READONLY
|??_C@_1CE@NPBICAPK@?$AAP?$AAO?$AAW?$AAE?$AAR?$AAD?$AAO?$AAM?$AAA?$AAI?$AAN?$AA_?$AAE?$AAF?$AAU?$AAS?$AAE?$AA?$AA@| DCB "P"
	DCB	0x0, "O", 0x0, "W", 0x0, "E", 0x0, "R", 0x0, "D", 0x0, "O"
	DCB	0x0, "M", 0x0, "A", 0x0, "I", 0x0, "N", 0x0, "_", 0x0, "E"
	DCB	0x0, "F", 0x0, "U", 0x0, "S", 0x0, "E", 0x0, 0x0, 0x0 ; `string'

  00000			 AREA	 |.rdata|, DATA, READONLY
|??_C@_1CA@EPPNKFHH@?$AAP?$AAO?$AAW?$AAE?$AAR?$AAD?$AAO?$AAM?$AAA?$AAI?$AAN?$AA_?$AAS?$AAG?$AAX?$AA?$AA@| DCB "P"
	DCB	0x0, "O", 0x0, "W", 0x0, "E", 0x0, "R", 0x0, "D", 0x0, "O"
	DCB	0x0, "M", 0x0, "A", 0x0, "I", 0x0, "N", 0x0, "_", 0x0, "S"
	DCB	0x0, "G", 0x0, "X", 0x0, 0x0, 0x0	; `string'

  00000			 AREA	 |.rdata|, DATA, READONLY
|??_C@_1CC@DDKPOHKD@?$AAP?$AAO?$AAW?$AAE?$AAR?$AAD?$AAO?$AAM?$AAA?$AAI?$AAN?$AA_?$AAN?$AAE?$AAO?$AAN?$AA?$AA@| DCB "P"
	DCB	0x0, "O", 0x0, "W", 0x0, "E", 0x0, "R", 0x0, "D", 0x0, "O"
	DCB	0x0, "M", 0x0, "A", 0x0, "I", 0x0, "N", 0x0, "_", 0x0, "N"
	DCB	0x0, "E", 0x0, "O", 0x0, "N", 0x0, 0x0, 0x0 ; `string'

  00000			 AREA	 |.rdata|, DATA, READONLY
|??_C@_1CA@HGMFFKMJ@?$AAP?$AAO?$AAW?$AAE?$AAR?$AAD?$AAO?$AAM?$AAA?$AAI?$AAN?$AA_?$AAD?$AAS?$AAS?$AA?$AA@| DCB "P"
	DCB	0x0, "O", 0x0, "W", 0x0, "E", 0x0, "R", 0x0, "D", 0x0, "O"
	DCB	0x0, "M", 0x0, "A", 0x0, "I", 0x0, "N", 0x0, "_", 0x0, "D"
	DCB	0x0, "S", 0x0, "S", 0x0, 0x0, 0x0	; `string'

  00000			 AREA	 |.rdata|, DATA, READONLY
|??_C@_1CA@MKHFGMJA@?$AAP?$AAO?$AAW?$AAE?$AAR?$AAD?$AAO?$AAM?$AAA?$AAI?$AAN?$AA_?$AAM?$AAP?$AAU?$AA?$AA@| DCB "P"
	DCB	0x0, "O", 0x0, "W", 0x0, "E", 0x0, "R", 0x0, "D", 0x0, "O"
	DCB	0x0, "M", 0x0, "A", 0x0, "I", 0x0, "N", 0x0, "_", 0x0, "M"
	DCB	0x0, "P", 0x0, "U", 0x0, 0x0, 0x0	; `string'

  00000			 AREA	 |.rdata|, DATA, READONLY
|??_C@_1CM@IICJPBKI@?$AAP?$AAO?$AAW?$AAE?$AAR?$AAD?$AAO?$AAM?$AAA?$AAI?$AAN?$AA_?$AAE?$AAM?$AAU?$AAL?$AAA?$AAT?$AAI?$AAO?$AAN?$AA?$AA@| DCB "P"
	DCB	0x0, "O", 0x0, "W", 0x0, "E", 0x0, "R", 0x0, "D", 0x0, "O"
	DCB	0x0, "M", 0x0, "A", 0x0, "I", 0x0, "N", 0x0, "_", 0x0, "E"
	DCB	0x0, "M", 0x0, "U", 0x0, "L", 0x0, "A", 0x0, "T", 0x0, "I"
	DCB	0x0, "O", 0x0, "N", 0x0, 0x0, 0x0	; `string'

  00000			 AREA	 |.rdata|, DATA, READONLY
|??_C@_1CI@LJKMALKI@?$AAP?$AAO?$AAW?$AAE?$AAR?$AAD?$AAO?$AAM?$AAA?$AAI?$AAN?$AA_?$AAU?$AAS?$AAB?$AAH?$AAO?$AAS?$AAT?$AA?$AA@| DCB "P"
	DCB	0x0, "O", 0x0, "W", 0x0, "E", 0x0, "R", 0x0, "D", 0x0, "O"
	DCB	0x0, "M", 0x0, "A", 0x0, "I", 0x0, "N", 0x0, "_", 0x0, "U"
	DCB	0x0, "S", 0x0, "B", 0x0, "H", 0x0, "O", 0x0, "S", 0x0, "T"
	DCB	0x0, 0x0, 0x0				; `string'

  00000			 AREA	 |.rdata|, DATA, READONLY
|??_C@_1CO@GHAPCMEA@?$AAP?$AAO?$AAW?$AAE?$AAR?$AAD?$AAO?$AAM?$AAA?$AAI?$AAN?$AA_?$AAP?$AAE?$AAR?$AAI?$AAP?$AAH?$AAE?$AAR?$AAA?$AAL?$AA?$AA@| DCB "P"
	DCB	0x0, "O", 0x0, "W", 0x0, "E", 0x0, "R", 0x0, "D", 0x0, "O"
	DCB	0x0, "M", 0x0, "A", 0x0, "I", 0x0, "N", 0x0, "_", 0x0, "P"
	DCB	0x0, "E", 0x0, "R", 0x0, "I", 0x0, "P", 0x0, "H", 0x0, "E"
	DCB	0x0, "R", 0x0, "A", 0x0, "L", 0x0, 0x0, 0x0 ; `string'

  00000			 AREA	 |.rdata|, DATA, READONLY
|??_C@_1CC@DPNIOGJP@?$AAP?$AAO?$AAW?$AAE?$AAR?$AAD?$AAO?$AAM?$AAA?$AAI?$AAN?$AA_?$AAC?$AAO?$AAR?$AAE?$AA?$AA@| DCB "P"
	DCB	0x0, "O", 0x0, "W", 0x0, "E", 0x0, "R", 0x0, "D", 0x0, "O"
	DCB	0x0, "M", 0x0, "A", 0x0, "I", 0x0, "N", 0x0, "_", 0x0, "C"
	DCB	0x0, "O", 0x0, "R", 0x0, "E", 0x0, 0x0, 0x0 ; `string'

  00000			 AREA	 |.rdata|, DATA, READONLY
|??_C@_1CG@GNBBGDGH@?$AAP?$AAO?$AAW?$AAE?$AAR?$AAD?$AAO?$AAM?$AAA?$AAI?$AAN?$AA_?$AAW?$AAA?$AAK?$AAE?$AAU?$AAP?$AA?$AA@| DCB "P"
	DCB	0x0, "O", 0x0, "W", 0x0, "E", 0x0, "R", 0x0, "D", 0x0, "O"
	DCB	0x0, "M", 0x0, "A", 0x0, "I", 0x0, "N", 0x0, "_", 0x0, "W"
	DCB	0x0, "A", 0x0, "K", 0x0, "E", 0x0, "U", 0x0, "P", 0x0, 0x0
	DCB	0x0					; `string'

  00000			 AREA	 |.rdata|, DATA, READONLY
|??_C@_1CK@IEABCGNC@?$AAO?$AAM?$AAA?$AAP?$AA_?$AAD?$AAE?$AAV?$AAI?$AAC?$AAE?$AA_?$AAH?$AAS?$AAO?$AAT?$AAG?$AAU?$AAS?$AAB?$AA?$AA@| DCB "O"
	DCB	0x0, "M", 0x0, "A", 0x0, "P", 0x0, "_", 0x0, "D", 0x0, "E"
	DCB	0x0, "V", 0x0, "I", 0x0, "C", 0x0, "E", 0x0, "_", 0x0, "H"
	DCB	0x0, "S", 0x0, "O", 0x0, "T", 0x0, "G", 0x0, "U", 0x0, "S"
	DCB	0x0, "B", 0x0, 0x0, 0x0			; `string'

  00000			 AREA	 |.rdata|, DATA, READONLY
|??_C@_1CG@EDCGOPIH@?$AAO?$AAM?$AAA?$AAP?$AA_?$AAD?$AAE?$AAV?$AAI?$AAC?$AAE?$AA_?$AAC?$AAP?$AAG?$AAM?$AAA?$AAC?$AA?$AA@| DCB "O"
	DCB	0x0, "M", 0x0, "A", 0x0, "P", 0x0, "_", 0x0, "D", 0x0, "E"
	DCB	0x0, "V", 0x0, "I", 0x0, "C", 0x0, "E", 0x0, "_", 0x0, "C"
	DCB	0x0, "P", 0x0, "G", 0x0, "M", 0x0, "A", 0x0, "C", 0x0, 0x0
	DCB	0x0					; `string'

  00000			 AREA	 |.rdata|, DATA, READONLY
|??_C@_1CC@DCMIOAOJ@?$AAO?$AAM?$AAA?$AAP?$AA_?$AAD?$AAE?$AAV?$AAI?$AAC?$AAE?$AA_?$AAH?$AAE?$AAC?$AAC?$AA?$AA@| DCB "O"
	DCB	0x0, "M", 0x0, "A", 0x0, "P", 0x0, "_", 0x0, "D", 0x0, "E"
	DCB	0x0, "V", 0x0, "I", 0x0, "C", 0x0, "E", 0x0, "_", 0x0, "H"
	DCB	0x0, "E", 0x0, "C", 0x0, "C", 0x0, 0x0, 0x0 ; `string'

  00000			 AREA	 |.rdata|, DATA, READONLY
|??_C@_1CC@MNJCOFFL@?$AAO?$AAM?$AAA?$AAP?$AA_?$AAD?$AAE?$AAV?$AAI?$AAC?$AAE?$AA_?$AAG?$AAP?$AAM?$AAC?$AA?$AA@| DCB "O"
	DCB	0x0, "M", 0x0, "A", 0x0, "P", 0x0, "_", 0x0, "D", 0x0, "E"
	DCB	0x0, "V", 0x0, "I", 0x0, "C", 0x0, "E", 0x0, "_", 0x0, "G"
	DCB	0x0, "P", 0x0, "M", 0x0, "C", 0x0, 0x0, 0x0 ; `string'

  00000			 AREA	 |.rdata|, DATA, READONLY
|??_C@_1CC@LBCPDDJD@?$AAO?$AAM?$AAA?$AAP?$AA_?$AAD?$AAE?$AAV?$AAI?$AAC?$AAE?$AA_?$AAS?$AAD?$AAM?$AAA?$AA?$AA@| DCB "O"
	DCB	0x0, "M", 0x0, "A", 0x0, "P", 0x0, "_", 0x0, "D", 0x0, "E"
	DCB	0x0, "V", 0x0, "I", 0x0, "C", 0x0, "E", 0x0, "_", 0x0, "S"
	DCB	0x0, "D", 0x0, "M", 0x0, "A", 0x0, 0x0, 0x0 ; `string'

  00000			 AREA	 |.rdata|, DATA, READONLY
|??_C@_1CE@LCDBPFF@?$AAO?$AAM?$AAA?$AAP?$AA_?$AAD?$AAE?$AAV?$AAI?$AAC?$AAE?$AA_?$AAC?$AAO?$AAU?$AAN?$AAT?$AA?$AA@| DCB "O"
	DCB	0x0, "M", 0x0, "A", 0x0, "P", 0x0, "_", 0x0, "D", 0x0, "E"
	DCB	0x0, "V", 0x0, "I", 0x0, "C", 0x0, "E", 0x0, "_", 0x0, "C"
	DCB	0x0, "O", 0x0, "U", 0x0, "N", 0x0, "T", 0x0, 0x0, 0x0 ; `string'

  00000			 AREA	 |.rdata|, DATA, READONLY
|??_C@_1CO@HGOPKO@?$AAO?$AAM?$AAA?$AAP?$AA_?$AAD?$AAE?$AAV?$AAI?$AAC?$AAE?$AA_?$AAS?$AAG?$AAX?$AA?5?$AA?$DN?$AA?5?$AA0?$AAx?$AA4?$AA8?$AA?$AA@| DCB "O"
	DCB	0x0, "M", 0x0, "A", 0x0, "P", 0x0, "_", 0x0, "D", 0x0, "E"
	DCB	0x0, "V", 0x0, "I", 0x0, "C", 0x0, "E", 0x0, "_", 0x0, "S"
	DCB	0x0, "G", 0x0, "X", 0x0, " ", 0x0, "=", 0x0, " ", 0x0, "0"
	DCB	0x0, "x", 0x0, "4", 0x0, "8", 0x0, 0x0, 0x0 ; `string'

  00000			 AREA	 |.rdata|, DATA, READONLY
|??_C@_1CE@LBPKOABC@?$AAO?$AAM?$AAA?$AAP?$AA_?$AAD?$AAE?$AAV?$AAI?$AAC?$AAE?$AA_?$AAS?$AAT?$AAU?$AAB?$AA2?$AA?$AA@| DCB "O"
	DCB	0x0, "M", 0x0, "A", 0x0, "P", 0x0, "_", 0x0, "D", 0x0, "E"
	DCB	0x0, "V", 0x0, "I", 0x0, "C", 0x0, "E", 0x0, "_", 0x0, "S"
	DCB	0x0, "T", 0x0, "U", 0x0, "B", 0x0, "2", 0x0, 0x0, 0x0 ; `string'

  00000			 AREA	 |.rdata|, DATA, READONLY
|??_C@_1CE@KDEPEPPM@?$AAO?$AAM?$AAA?$AAP?$AA_?$AAD?$AAE?$AAV?$AAI?$AAC?$AAE?$AA_?$AAS?$AAT?$AAU?$AAB?$AA1?$AA?$AA@| DCB "O"
	DCB	0x0, "M", 0x0, "A", 0x0, "P", 0x0, "_", 0x0, "D", 0x0, "E"
	DCB	0x0, "V", 0x0, "I", 0x0, "C", 0x0, "E", 0x0, "_", 0x0, "S"
	DCB	0x0, "T", 0x0, "U", 0x0, "B", 0x0, "1", 0x0, 0x0, 0x0 ; `string'

  00000			 AREA	 |.rdata|, DATA, READONLY
|??_C@_1CI@CGCHDENN@?$AAO?$AAM?$AAA?$AAP?$AA_?$AAD?$AAE?$AAV?$AAI?$AAC?$AAE?$AA_?$AAG?$AAE?$AAN?$AAE?$AAR?$AAI?$AAC?$AA?$AA@| DCB "O"
	DCB	0x0, "M", 0x0, "A", 0x0, "P", 0x0, "_", 0x0, "D", 0x0, "E"
	DCB	0x0, "V", 0x0, "I", 0x0, "C", 0x0, "E", 0x0, "_", 0x0, "G"
	DCB	0x0, "E", 0x0, "N", 0x0, "E", 0x0, "R", 0x0, "I", 0x0, "C"
	DCB	0x0, 0x0, 0x0				; `string'

  00000			 AREA	 |.rdata|, DATA, READONLY
|??_C@_1CC@JFKAJPFG@?$AAO?$AAM?$AAA?$AAP?$AA_?$AAD?$AAE?$AAV?$AAI?$AAC?$AAE?$AA_?$AAV?$AAR?$AAF?$AAB?$AA?$AA@| DCB "O"
	DCB	0x0, "M", 0x0, "A", 0x0, "P", 0x0, "_", 0x0, "D", 0x0, "E"
	DCB	0x0, "V", 0x0, "I", 0x0, "C", 0x0, "E", 0x0, "_", 0x0, "V"
	DCB	0x0, "R", 0x0, "F", 0x0, "B", 0x0, 0x0, 0x0 ; `string'

  00000			 AREA	 |.rdata|, DATA, READONLY
|??_C@_1CC@DDIOJOOM@?$AAO?$AAM?$AAA?$AAP?$AA_?$AAD?$AAE?$AAV?$AAI?$AAC?$AAE?$AA_?$AAE?$AAH?$AAC?$AAI?$AA?$AA@| DCB "O"
	DCB	0x0, "M", 0x0, "A", 0x0, "P", 0x0, "_", 0x0, "D", 0x0, "E"
	DCB	0x0, "V", 0x0, "I", 0x0, "C", 0x0, "E", 0x0, "_", 0x0, "E"
	DCB	0x0, "H", 0x0, "C", 0x0, "I", 0x0, 0x0, 0x0 ; `string'

  00000			 AREA	 |.rdata|, DATA, READONLY
|??_C@_1CC@CEKMAOCF@?$AAO?$AAM?$AAA?$AAP?$AA_?$AAD?$AAE?$AAV?$AAI?$AAC?$AAE?$AA_?$AAO?$AAH?$AAC?$AAI?$AA?$AA@| DCB "O"
	DCB	0x0, "M", 0x0, "A", 0x0, "P", 0x0, "_", 0x0, "D", 0x0, "E"
	DCB	0x0, "V", 0x0, "I", 0x0, "C", 0x0, "E", 0x0, "_", 0x0, "O"
	DCB	0x0, "H", 0x0, "C", 0x0, "I", 0x0, 0x0, 0x0 ; `string'

  00000			 AREA	 |.rdata|, DATA, READONLY
|??_C@_1CK@PMNPNLDF@?$AAO?$AAM?$AAA?$AAP?$AA_?$AAD?$AAE?$AAV?$AAI?$AAC?$AAE?$AA_?$AAU?$AAS?$AAB?$AAH?$AAO?$AAS?$AAT?$AA3?$AA?$AA@| DCB "O"
	DCB	0x0, "M", 0x0, "A", 0x0, "P", 0x0, "_", 0x0, "D", 0x0, "E"
	DCB	0x0, "V", 0x0, "I", 0x0, "C", 0x0, "E", 0x0, "_", 0x0, "U"
	DCB	0x0, "S", 0x0, "B", 0x0, "H", 0x0, "O", 0x0, "S", 0x0, "T"
	DCB	0x0, "3", 0x0, 0x0, 0x0			; `string'

  00000			 AREA	 |.rdata|, DATA, READONLY
|??_C@_1CK@EEGDLMFA@?$AAO?$AAM?$AAA?$AAP?$AA_?$AAD?$AAE?$AAV?$AAI?$AAC?$AAE?$AA_?$AAU?$AAS?$AAB?$AAH?$AAO?$AAS?$AAT?$AA2?$AA?$AA@| DCB "O"
	DCB	0x0, "M", 0x0, "A", 0x0, "P", 0x0, "_", 0x0, "D", 0x0, "E"
	DCB	0x0, "V", 0x0, "I", 0x0, "C", 0x0, "E", 0x0, "_", 0x0, "U"
	DCB	0x0, "S", 0x0, "B", 0x0, "H", 0x0, "O", 0x0, "S", 0x0, "T"
	DCB	0x0, "2", 0x0, 0x0, 0x0			; `string'

  00000			 AREA	 |.rdata|, DATA, READONLY
|??_C@_1CK@FGNGBDLO@?$AAO?$AAM?$AAA?$AAP?$AA_?$AAD?$AAE?$AAV?$AAI?$AAC?$AAE?$AA_?$AAU?$AAS?$AAB?$AAH?$AAO?$AAS?$AAT?$AA1?$AA?$AA@| DCB "O"
	DCB	0x0, "M", 0x0, "A", 0x0, "P", 0x0, "_", 0x0, "D", 0x0, "E"
	DCB	0x0, "V", 0x0, "I", 0x0, "C", 0x0, "E", 0x0, "_", 0x0, "U"
	DCB	0x0, "S", 0x0, "B", 0x0, "H", 0x0, "O", 0x0, "S", 0x0, "T"
	DCB	0x0, "1", 0x0, 0x0, 0x0			; `string'

  00000			 AREA	 |.rdata|, DATA, READONLY
|??_C@_1BO@LMDKBCBP@?$AAO?$AAM?$AAA?$AAP?$AA_?$AAD?$AAE?$AAV?$AAI?$AAC?$AAE?$AA_?$AA3?$AAD?$AA?$AA@| DCB "O"
	DCB	0x0, "M", 0x0, "A", 0x0, "P", 0x0, "_", 0x0, "D", 0x0, "E"
	DCB	0x0, "V", 0x0, "I", 0x0, "C", 0x0, "E", 0x0, "_", 0x0, "3"
	DCB	0x0, "D", 0x0, 0x0, 0x0			; `string'

  00000			 AREA	 |.rdata|, DATA, READONLY
|??_C@_1BO@HHGGMBLK@?$AAO?$AAM?$AAA?$AAP?$AA_?$AAD?$AAE?$AAV?$AAI?$AAC?$AAE?$AA_?$AA2?$AAD?$AA?$AA@| DCB "O"
	DCB	0x0, "M", 0x0, "A", 0x0, "P", 0x0, "_", 0x0, "D", 0x0, "E"
	DCB	0x0, "V", 0x0, "I", 0x0, "C", 0x0, "E", 0x0, "_", 0x0, "2"
	DCB	0x0, "D", 0x0, 0x0, 0x0			; `string'

  00000			 AREA	 |.rdata|, DATA, READONLY
|??_C@_1CC@COEMHCN@?$AAO?$AAM?$AAA?$AAP?$AA_?$AAD?$AAE?$AAV?$AAI?$AAC?$AAE?$AA_?$AAC?$AAS?$AAI?$AA2?$AA?$AA@| DCB "O"
	DCB	0x0, "M", 0x0, "A", 0x0, "P", 0x0, "_", 0x0, "D", 0x0, "E"
	DCB	0x0, "V", 0x0, "I", 0x0, "C", 0x0, "E", 0x0, "_", 0x0, "C"
	DCB	0x0, "S", 0x0, "I", 0x0, "2", 0x0, 0x0, 0x0 ; `string'

  00000			 AREA	 |.rdata|, DATA, READONLY
|??_C@_1CC@EKFCKAJC@?$AAO?$AAM?$AAA?$AAP?$AA_?$AAD?$AAE?$AAV?$AAI?$AAC?$AAE?$AA_?$AAV?$AAP?$AAF?$AAE?$AA?$AA@| DCB "O"
	DCB	0x0, "M", 0x0, "A", 0x0, "P", 0x0, "_", 0x0, "D", 0x0, "E"
	DCB	0x0, "V", 0x0, "I", 0x0, "C", 0x0, "E", 0x0, "_", 0x0, "V"
	DCB	0x0, "P", 0x0, "F", 0x0, "E", 0x0, 0x0, 0x0 ; `string'

  00000			 AREA	 |.rdata|, DATA, READONLY
|??_C@_1CE@CMHCGOLP@?$AAO?$AAM?$AAA?$AAP?$AA_?$AAD?$AAE?$AAV?$AAI?$AAC?$AAE?$AA_?$AAT?$AAV?$AAO?$AAU?$AAT?$AA?$AA@| DCB "O"
	DCB	0x0, "M", 0x0, "A", 0x0, "P", 0x0, "_", 0x0, "D", 0x0, "E"
	DCB	0x0, "V", 0x0, "I", 0x0, "C", 0x0, "E", 0x0, "_", 0x0, "T"
	DCB	0x0, "V", 0x0, "O", 0x0, "U", 0x0, "T", 0x0, 0x0, 0x0 ; `string'

  00000			 AREA	 |.rdata|, DATA, READONLY
|??_C@_1CC@ECHFPNKJ@?$AAO?$AAM?$AAA?$AAP?$AA_?$AAD?$AAE?$AAV?$AAI?$AAC?$AAE?$AA_?$AAD?$AAS?$AAS?$AA2?$AA?$AA@| DCB "O"
	DCB	0x0, "M", 0x0, "A", 0x0, "P", 0x0, "_", 0x0, "D", 0x0, "E"
	DCB	0x0, "V", 0x0, "I", 0x0, "C", 0x0, "E", 0x0, "_", 0x0, "D"
	DCB	0x0, "S", 0x0, "S", 0x0, "2", 0x0, 0x0, 0x0 ; `string'

  00000			 AREA	 |.rdata|, DATA, READONLY
|??_C@_1CC@FAMAFCEH@?$AAO?$AAM?$AAA?$AAP?$AA_?$AAD?$AAE?$AAV?$AAI?$AAC?$AAE?$AA_?$AAD?$AAS?$AAS?$AA1?$AA?$AA@| DCB "O"
	DCB	0x0, "M", 0x0, "A", 0x0, "P", 0x0, "_", 0x0, "D", 0x0, "E"
	DCB	0x0, "V", 0x0, "I", 0x0, "C", 0x0, "E", 0x0, "_", 0x0, "D"
	DCB	0x0, "S", 0x0, "S", 0x0, "1", 0x0, 0x0, 0x0 ; `string'

  00000			 AREA	 |.rdata|, DATA, READONLY
|??_C@_1CA@FPBNMJAK@?$AAO?$AAM?$AAA?$AAP?$AA_?$AAD?$AAE?$AAV?$AAI?$AAC?$AAE?$AA_?$AAD?$AAS?$AAS?$AA?$AA@| DCB "O"
	DCB	0x0, "M", 0x0, "A", 0x0, "P", 0x0, "_", 0x0, "D", 0x0, "E"
	DCB	0x0, "V", 0x0, "I", 0x0, "C", 0x0, "E", 0x0, "_", 0x0, "D"
	DCB	0x0, "S", 0x0, "S", 0x0, 0x0, 0x0	; `string'

  00000			 AREA	 |.rdata|, DATA, READONLY
|??_C@_1CC@FNCLKIKN@?$AAO?$AAM?$AAA?$AAP?$AA_?$AAD?$AAE?$AAV?$AAI?$AAC?$AAE?$AA_?$AAW?$AAD?$AAT?$AA3?$AA?$AA@| DCB "O"
	DCB	0x0, "M", 0x0, "A", 0x0, "P", 0x0, "_", 0x0, "D", 0x0, "E"
	DCB	0x0, "V", 0x0, "I", 0x0, "C", 0x0, "E", 0x0, "_", 0x0, "W"
	DCB	0x0, "D", 0x0, "T", 0x0, "3", 0x0, 0x0, 0x0 ; `string'

  00000			 AREA	 |.rdata|, DATA, READONLY
|??_C@_1CE@PILGIAKE@?$AAO?$AAM?$AAA?$AAP?$AA_?$AAD?$AAE?$AAV?$AAI?$AAC?$AAE?$AA_?$AAU?$AAA?$AAR?$AAT?$AA3?$AA?$AA@| DCB "O"
	DCB	0x0, "M", 0x0, "A", 0x0, "P", 0x0, "_", 0x0, "D", 0x0, "E"
	DCB	0x0, "V", 0x0, "I", 0x0, "C", 0x0, "E", 0x0, "_", 0x0, "U"
	DCB	0x0, "A", 0x0, "R", 0x0, "T", 0x0, "3", 0x0, 0x0, 0x0 ; `string'

  00000			 AREA	 |.rdata|, DATA, READONLY
|??_C@_1CK@PMHAIIAB@?$AAO?$AAM?$AAA?$AAP?$AA_?$AAD?$AAE?$AAV?$AAI?$AAC?$AAE?$AA_?$AAG?$AAP?$AAT?$AAI?$AAM?$AAE?$AAR?$AA9?$AA?$AA@| DCB "O"
	DCB	0x0, "M", 0x0, "A", 0x0, "P", 0x0, "_", 0x0, "D", 0x0, "E"
	DCB	0x0, "V", 0x0, "I", 0x0, "C", 0x0, "E", 0x0, "_", 0x0, "G"
	DCB	0x0, "P", 0x0, "T", 0x0, "I", 0x0, "M", 0x0, "E", 0x0, "R"
	DCB	0x0, "9", 0x0, 0x0, 0x0			; `string'

  00000			 AREA	 |.rdata|, DATA, READONLY
|??_C@_1CK@EEMMOPGE@?$AAO?$AAM?$AAA?$AAP?$AA_?$AAD?$AAE?$AAV?$AAI?$AAC?$AAE?$AA_?$AAG?$AAP?$AAT?$AAI?$AAM?$AAE?$AAR?$AA8?$AA?$AA@| DCB "O"
	DCB	0x0, "M", 0x0, "A", 0x0, "P", 0x0, "_", 0x0, "D", 0x0, "E"
	DCB	0x0, "V", 0x0, "I", 0x0, "C", 0x0, "E", 0x0, "_", 0x0, "G"
	DCB	0x0, "P", 0x0, "T", 0x0, "I", 0x0, "M", 0x0, "E", 0x0, "R"
	DCB	0x0, "8", 0x0, 0x0, 0x0			; `string'

  00000			 AREA	 |.rdata|, DATA, READONLY
|??_C@_1CK@BMKPPPDC@?$AAO?$AAM?$AAA?$AAP?$AA_?$AAD?$AAE?$AAV?$AAI?$AAC?$AAE?$AA_?$AAG?$AAP?$AAT?$AAI?$AAM?$AAE?$AAR?$AA7?$AA?$AA@| DCB "O"
	DCB	0x0, "M", 0x0, "A", 0x0, "P", 0x0, "_", 0x0, "D", 0x0, "E"
	DCB	0x0, "V", 0x0, "I", 0x0, "C", 0x0, "E", 0x0, "_", 0x0, "G"
	DCB	0x0, "P", 0x0, "T", 0x0, "I", 0x0, "M", 0x0, "E", 0x0, "R"
	DCB	0x0, "7", 0x0, 0x0, 0x0			; `string'

  00000			 AREA	 |.rdata|, DATA, READONLY
|??_C@_1CK@KEBDJIFH@?$AAO?$AAM?$AAA?$AAP?$AA_?$AAD?$AAE?$AAV?$AAI?$AAC?$AAE?$AA_?$AAG?$AAP?$AAT?$AAI?$AAM?$AAE?$AAR?$AA6?$AA?$AA@| DCB "O"
	DCB	0x0, "M", 0x0, "A", 0x0, "P", 0x0, "_", 0x0, "D", 0x0, "E"
	DCB	0x0, "V", 0x0, "I", 0x0, "C", 0x0, "E", 0x0, "_", 0x0, "G"
	DCB	0x0, "P", 0x0, "T", 0x0, "I", 0x0, "M", 0x0, "E", 0x0, "R"
	DCB	0x0, "6", 0x0, 0x0, 0x0			; `string'

  00000			 AREA	 |.rdata|, DATA, READONLY
|??_C@_1CK@LGKGDHLJ@?$AAO?$AAM?$AAA?$AAP?$AA_?$AAD?$AAE?$AAV?$AAI?$AAC?$AAE?$AA_?$AAG?$AAP?$AAT?$AAI?$AAM?$AAE?$AAR?$AA5?$AA?$AA@| DCB "O"
	DCB	0x0, "M", 0x0, "A", 0x0, "P", 0x0, "_", 0x0, "D", 0x0, "E"
	DCB	0x0, "V", 0x0, "I", 0x0, "C", 0x0, "E", 0x0, "_", 0x0, "G"
	DCB	0x0, "P", 0x0, "T", 0x0, "I", 0x0, "M", 0x0, "E", 0x0, "R"
	DCB	0x0, "5", 0x0, 0x0, 0x0			; `string'

  00000			 AREA	 |.rdata|, DATA, READONLY
|??_C@_1CK@OBKFANM@?$AAO?$AAM?$AAA?$AAP?$AA_?$AAD?$AAE?$AAV?$AAI?$AAC?$AAE?$AA_?$AAG?$AAP?$AAT?$AAI?$AAM?$AAE?$AAR?$AA4?$AA?$AA@| DCB "O"
	DCB	0x0, "M", 0x0, "A", 0x0, "P", 0x0, "_", 0x0, "D", 0x0, "E"
	DCB	0x0, "V", 0x0, "I", 0x0, "C", 0x0, "E", 0x0, "_", 0x0, "G"
	DCB	0x0, "P", 0x0, "T", 0x0, "I", 0x0, "M", 0x0, "E", 0x0, "R"
	DCB	0x0, "4", 0x0, 0x0, 0x0			; `string'

  00000			 AREA	 |.rdata|, DATA, READONLY
|??_C@_1CK@JDMNGIGF@?$AAO?$AAM?$AAA?$AAP?$AA_?$AAD?$AAE?$AAV?$AAI?$AAC?$AAE?$AA_?$AAG?$AAP?$AAT?$AAI?$AAM?$AAE?$AAR?$AA3?$AA?$AA@| DCB "O"
	DCB	0x0, "M", 0x0, "A", 0x0, "P", 0x0, "_", 0x0, "D", 0x0, "E"
	DCB	0x0, "V", 0x0, "I", 0x0, "C", 0x0, "E", 0x0, "_", 0x0, "G"
	DCB	0x0, "P", 0x0, "T", 0x0, "I", 0x0, "M", 0x0, "E", 0x0, "R"
	DCB	0x0, "3", 0x0, 0x0, 0x0			; `string'

  00000			 AREA	 |.rdata|, DATA, READONLY
|??_C@_1CK@CLHBAPAA@?$AAO?$AAM?$AAA?$AAP?$AA_?$AAD?$AAE?$AAV?$AAI?$AAC?$AAE?$AA_?$AAG?$AAP?$AAT?$AAI?$AAM?$AAE?$AAR?$AA2?$AA?$AA@| DCB "O"
	DCB	0x0, "M", 0x0, "A", 0x0, "P", 0x0, "_", 0x0, "D", 0x0, "E"
	DCB	0x0, "V", 0x0, "I", 0x0, "C", 0x0, "E", 0x0, "_", 0x0, "G"
	DCB	0x0, "P", 0x0, "T", 0x0, "I", 0x0, "M", 0x0, "E", 0x0, "R"
	DCB	0x0, "2", 0x0, 0x0, 0x0			; `string'

  00000			 AREA	 |.rdata|, DATA, READONLY
|??_C@_1CG@ECEBCEEN@?$AAO?$AAM?$AAA?$AAP?$AA_?$AAD?$AAE?$AAV?$AAI?$AAC?$AAE?$AA_?$AAM?$AAC?$AAB?$AAS?$AAP?$AA4?$AA?$AA@| DCB "O"
	DCB	0x0, "M", 0x0, "A", 0x0, "P", 0x0, "_", 0x0, "D", 0x0, "E"
	DCB	0x0, "V", 0x0, "I", 0x0, "C", 0x0, "E", 0x0, "_", 0x0, "M"
	DCB	0x0, "C", 0x0, "B", 0x0, "S", 0x0, "P", 0x0, "4", 0x0, 0x0
	DCB	0x0					; `string'

  00000			 AREA	 |.rdata|, DATA, READONLY
|??_C@_1CG@NPJGBMPE@?$AAO?$AAM?$AAA?$AAP?$AA_?$AAD?$AAE?$AAV?$AAI?$AAC?$AAE?$AA_?$AAM?$AAC?$AAB?$AAS?$AAP?$AA3?$AA?$AA@| DCB "O"
	DCB	0x0, "M", 0x0, "A", 0x0, "P", 0x0, "_", 0x0, "D", 0x0, "E"
	DCB	0x0, "V", 0x0, "I", 0x0, "C", 0x0, "E", 0x0, "_", 0x0, "M"
	DCB	0x0, "C", 0x0, "B", 0x0, "S", 0x0, "P", 0x0, "3", 0x0, 0x0
	DCB	0x0					; `string'

  00000			 AREA	 |.rdata|, DATA, READONLY
|??_C@_1CG@GHCKHLJB@?$AAO?$AAM?$AAA?$AAP?$AA_?$AAD?$AAE?$AAV?$AAI?$AAC?$AAE?$AA_?$AAM?$AAC?$AAB?$AAS?$AAP?$AA2?$AA?$AA@| DCB "O"
	DCB	0x0, "M", 0x0, "A", 0x0, "P", 0x0, "_", 0x0, "D", 0x0, "E"
	DCB	0x0, "V", 0x0, "I", 0x0, "C", 0x0, "E", 0x0, "_", 0x0, "M"
	DCB	0x0, "C", 0x0, "B", 0x0, "S", 0x0, "P", 0x0, "2", 0x0, 0x0
	DCB	0x0					; `string'

  00000			 AREA	 |.rdata|, DATA, READONLY
|??_C@_1CE@KPOHDGAG@?$AAO?$AAM?$AAA?$AAP?$AA_?$AAD?$AAE?$AAV?$AAI?$AAC?$AAE?$AA_?$AAG?$AAP?$AAI?$AAO?$AA6?$AA?$AA@| DCB "O"
	DCB	0x0, "M", 0x0, "A", 0x0, "P", 0x0, "_", 0x0, "D", 0x0, "E"
	DCB	0x0, "V", 0x0, "I", 0x0, "C", 0x0, "E", 0x0, "_", 0x0, "G"
	DCB	0x0, "P", 0x0, "I", 0x0, "O", 0x0, "6", 0x0, 0x0, 0x0 ; `string'

  00000			 AREA	 |.rdata|, DATA, READONLY
|??_C@_1CE@LNFCJJOI@?$AAO?$AAM?$AAA?$AAP?$AA_?$AAD?$AAE?$AAV?$AAI?$AAC?$AAE?$AA_?$AAG?$AAP?$AAI?$AAO?$AA5?$AA?$AA@| DCB "O"
	DCB	0x0, "M", 0x0, "A", 0x0, "P", 0x0, "_", 0x0, "D", 0x0, "E"
	DCB	0x0, "V", 0x0, "I", 0x0, "C", 0x0, "E", 0x0, "_", 0x0, "G"
	DCB	0x0, "P", 0x0, "I", 0x0, "O", 0x0, "5", 0x0, 0x0, 0x0 ; `string'

  00000			 AREA	 |.rdata|, DATA, READONLY
|??_C@_1CE@FOOPOIN@?$AAO?$AAM?$AAA?$AAP?$AA_?$AAD?$AAE?$AAV?$AAI?$AAC?$AAE?$AA_?$AAG?$AAP?$AAI?$AAO?$AA4?$AA?$AA@| DCB "O"
	DCB	0x0, "M", 0x0, "A", 0x0, "P", 0x0, "_", 0x0, "D", 0x0, "E"
	DCB	0x0, "V", 0x0, "I", 0x0, "C", 0x0, "E", 0x0, "_", 0x0, "G"
	DCB	0x0, "P", 0x0, "I", 0x0, "O", 0x0, "4", 0x0, 0x0, 0x0 ; `string'

  00000			 AREA	 |.rdata|, DATA, READONLY
|??_C@_1CE@JIDJMGDE@?$AAO?$AAM?$AAA?$AAP?$AA_?$AAD?$AAE?$AAV?$AAI?$AAC?$AAE?$AA_?$AAG?$AAP?$AAI?$AAO?$AA3?$AA?$AA@| DCB "O"
	DCB	0x0, "M", 0x0, "A", 0x0, "P", 0x0, "_", 0x0, "D", 0x0, "E"
	DCB	0x0, "V", 0x0, "I", 0x0, "C", 0x0, "E", 0x0, "_", 0x0, "G"
	DCB	0x0, "P", 0x0, "I", 0x0, "O", 0x0, "3", 0x0, 0x0, 0x0 ; `string'

  00000			 AREA	 |.rdata|, DATA, READONLY
|??_C@_1CE@CAIFKBFB@?$AAO?$AAM?$AAA?$AAP?$AA_?$AAD?$AAE?$AAV?$AAI?$AAC?$AAE?$AA_?$AAG?$AAP?$AAI?$AAO?$AA2?$AA?$AA@| DCB "O"
	DCB	0x0, "M", 0x0, "A", 0x0, "P", 0x0, "_", 0x0, "D", 0x0, "E"
	DCB	0x0, "V", 0x0, "I", 0x0, "C", 0x0, "E", 0x0, "_", 0x0, "G"
	DCB	0x0, "P", 0x0, "I", 0x0, "O", 0x0, "2", 0x0, 0x0, 0x0 ; `string'

  00000			 AREA	 |.rdata|, DATA, READONLY
|??_C@_1CE@DCDAAOLP@?$AAO?$AAM?$AAA?$AAP?$AA_?$AAD?$AAE?$AAV?$AAI?$AAC?$AAE?$AA_?$AAG?$AAP?$AAI?$AAO?$AA1?$AA?$AA@| DCB "O"
	DCB	0x0, "M", 0x0, "A", 0x0, "P", 0x0, "_", 0x0, "D", 0x0, "E"
	DCB	0x0, "V", 0x0, "I", 0x0, "C", 0x0, "E", 0x0, "_", 0x0, "G"
	DCB	0x0, "P", 0x0, "I", 0x0, "O", 0x0, "1", 0x0, 0x0, 0x0 ; `string'

  00000			 AREA	 |.rdata|, DATA, READONLY
|??_C@_1CC@OFJHMPMI@?$AAO?$AAM?$AAA?$AAP?$AA_?$AAD?$AAE?$AAV?$AAI?$AAC?$AAE?$AA_?$AAW?$AAD?$AAT?$AA2?$AA?$AA@| DCB "O"
	DCB	0x0, "M", 0x0, "A", 0x0, "P", 0x0, "_", 0x0, "D", 0x0, "E"
	DCB	0x0, "V", 0x0, "I", 0x0, "C", 0x0, "E", 0x0, "_", 0x0, "W"
	DCB	0x0, "D", 0x0, "T", 0x0, "2", 0x0, 0x0, 0x0 ; `string'

  00000			 AREA	 |.rdata|, DATA, READONLY
|??_C@_1CC@PHCCGACG@?$AAO?$AAM?$AAA?$AAP?$AA_?$AAD?$AAE?$AAV?$AAI?$AAC?$AAE?$AA_?$AAW?$AAD?$AAT?$AA1?$AA?$AA@| DCB "O"
	DCB	0x0, "M", 0x0, "A", 0x0, "P", 0x0, "_", 0x0, "D", 0x0, "E"
	DCB	0x0, "V", 0x0, "I", 0x0, "C", 0x0, "E", 0x0, "_", 0x0, "W"
	DCB	0x0, "D", 0x0, "T", 0x0, "1", 0x0, 0x0, 0x0 ; `string'

  00000			 AREA	 |.rdata|, DATA, READONLY
|??_C@_1CI@FAKOHIJH@?$AAO?$AAM?$AAA?$AAP?$AA_?$AAD?$AAE?$AAV?$AAI?$AAC?$AAE?$AA_?$AA3?$AA2?$AAK?$AAS?$AAY?$AAN?$AAC?$AA?$AA@| DCB "O"
	DCB	0x0, "M", 0x0, "A", 0x0, "P", 0x0, "_", 0x0, "D", 0x0, "E"
	DCB	0x0, "V", 0x0, "I", 0x0, "C", 0x0, "E", 0x0, "_", 0x0, "3"
	DCB	0x0, "2", 0x0, "K", 0x0, "S", 0x0, "Y", 0x0, "N", 0x0, "C"
	DCB	0x0, 0x0, 0x0				; `string'

  00000			 AREA	 |.rdata|, DATA, READONLY
|??_C@_1CM@EMAJHEGE@?$AAO?$AAM?$AAA?$AAP?$AA_?$AAD?$AAE?$AAV?$AAI?$AAC?$AAE?$AA_?$AAG?$AAP?$AAT?$AAI?$AAM?$AAE?$AAR?$AA1?$AA2?$AA?$AA@| DCB "O"
	DCB	0x0, "M", 0x0, "A", 0x0, "P", 0x0, "_", 0x0, "D", 0x0, "E"
	DCB	0x0, "V", 0x0, "I", 0x0, "C", 0x0, "E", 0x0, "_", 0x0, "G"
	DCB	0x0, "P", 0x0, "T", 0x0, "I", 0x0, "M", 0x0, "E", 0x0, "R"
	DCB	0x0, "1", 0x0, "2", 0x0, 0x0, 0x0	; `string'

  00000			 AREA	 |.rdata|, DATA, READONLY
|??_C@_1CK@DJMEKAOO@?$AAO?$AAM?$AAA?$AAP?$AA_?$AAD?$AAE?$AAV?$AAI?$AAC?$AAE?$AA_?$AAG?$AAP?$AAT?$AAI?$AAM?$AAE?$AAR?$AA1?$AA?$AA@| DCB "O"
	DCB	0x0, "M", 0x0, "A", 0x0, "P", 0x0, "_", 0x0, "D", 0x0, "E"
	DCB	0x0, "V", 0x0, "I", 0x0, "C", 0x0, "E", 0x0, "_", 0x0, "G"
	DCB	0x0, "P", 0x0, "T", 0x0, "I", 0x0, "M", 0x0, "E", 0x0, "R"
	DCB	0x0, "1", 0x0, 0x0, 0x0			; `string'

  00000			 AREA	 |.rdata|, DATA, READONLY
|??_C@_1CE@EPOGLAMA@?$AAO?$AAM?$AAA?$AAP?$AA_?$AAD?$AAE?$AAV?$AAI?$AAC?$AAE?$AA_?$AAE?$AAF?$AAU?$AAS?$AAE?$AA?$AA@| DCB "O"
	DCB	0x0, "M", 0x0, "A", 0x0, "P", 0x0, "_", 0x0, "D", 0x0, "E"
	DCB	0x0, "V", 0x0, "I", 0x0, "C", 0x0, "E", 0x0, "_", 0x0, "E"
	DCB	0x0, "F", 0x0, "U", 0x0, "S", 0x0, "E", 0x0, 0x0, 0x0 ; `string'

  00000			 AREA	 |.rdata|, DATA, READONLY
|??_C@_1BO@GEAFECNL@?$AAO?$AAM?$AAA?$AAP?$AA_?$AAD?$AAE?$AAV?$AAI?$AAC?$AAE?$AA_?$AAT?$AAS?$AA?$AA@| DCB "O"
	DCB	0x0, "M", 0x0, "A", 0x0, "P", 0x0, "_", 0x0, "D", 0x0, "E"
	DCB	0x0, "V", 0x0, "I", 0x0, "C", 0x0, "E", 0x0, "_", 0x0, "T"
	DCB	0x0, "S", 0x0, 0x0, 0x0			; `string'

  00000			 AREA	 |.rdata|, DATA, READONLY
|??_C@_1CG@MLOIKIGB@?$AAO?$AAM?$AAA?$AAP?$AA_?$AAD?$AAE?$AAV?$AAI?$AAC?$AAE?$AA_?$AAU?$AAS?$AAB?$AAT?$AAL?$AAL?$AA?$AA@| DCB "O"
	DCB	0x0, "M", 0x0, "A", 0x0, "P", 0x0, "_", 0x0, "D", 0x0, "E"
	DCB	0x0, "V", 0x0, "I", 0x0, "C", 0x0, "E", 0x0, "_", 0x0, "U"
	DCB	0x0, "S", 0x0, "B", 0x0, "T", 0x0, "L", 0x0, "L", 0x0, 0x0
	DCB	0x0					; `string'

  00000			 AREA	 |.rdata|, DATA, READONLY
|??_C@_1CA@LCHJOJDJ@?$AAO?$AAM?$AAA?$AAP?$AA_?$AAD?$AAE?$AAV?$AAI?$AAC?$AAE?$AA_?$AAP?$AAK?$AAA?$AA?$AA@| DCB "O"
	DCB	0x0, "M", 0x0, "A", 0x0, "P", 0x0, "_", 0x0, "D", 0x0, "E"
	DCB	0x0, "V", 0x0, "I", 0x0, "C", 0x0, "E", 0x0, "_", 0x0, "P"
	DCB	0x0, "K", 0x0, "A", 0x0, 0x0, 0x0	; `string'

  00000			 AREA	 |.rdata|, DATA, READONLY
|??_C@_1CC@MDNKBKP@?$AAO?$AAM?$AAA?$AAP?$AA_?$AAD?$AAE?$AAV?$AAI?$AAC?$AAE?$AA_?$AAA?$AAE?$AAS?$AA1?$AA?$AA@| DCB "O"
	DCB	0x0, "M", 0x0, "A", 0x0, "P", 0x0, "_", 0x0, "D", 0x0, "E"
	DCB	0x0, "V", 0x0, "I", 0x0, "C", 0x0, "E", 0x0, "_", 0x0, "A"
	DCB	0x0, "E", 0x0, "S", 0x0, "1", 0x0, 0x0, 0x0 ; `string'

  00000			 AREA	 |.rdata|, DATA, READONLY
|??_C@_1CA@IFPKCACL@?$AAO?$AAM?$AAA?$AAP?$AA_?$AAD?$AAE?$AAV?$AAI?$AAC?$AAE?$AA_?$AAR?$AAN?$AAG?$AA?$AA@| DCB "O"
	DCB	0x0, "M", 0x0, "A", 0x0, "P", 0x0, "_", 0x0, "D", 0x0, "E"
	DCB	0x0, "V", 0x0, "I", 0x0, "C", 0x0, "E", 0x0, "_", 0x0, "R"
	DCB	0x0, "N", 0x0, "G", 0x0, 0x0, 0x0	; `string'

  00000			 AREA	 |.rdata|, DATA, READONLY
|??_C@_1CE@OLJKGOCE@?$AAO?$AAM?$AAA?$AAP?$AA_?$AAD?$AAE?$AAV?$AAI?$AAC?$AAE?$AA_?$AAS?$AAH?$AAA?$AA1?$AA1?$AA?$AA@| DCB "O"
	DCB	0x0, "M", 0x0, "A", 0x0, "P", 0x0, "_", 0x0, "D", 0x0, "E"
	DCB	0x0, "V", 0x0, "I", 0x0, "C", 0x0, "E", 0x0, "_", 0x0, "S"
	DCB	0x0, "H", 0x0, "A", 0x0, "1", 0x0, "1", 0x0, 0x0, 0x0 ; `string'

  00000			 AREA	 |.rdata|, DATA, READONLY
|??_C@_1CC@OKBEGKOL@?$AAO?$AAM?$AAA?$AAP?$AA_?$AAD?$AAE?$AAV?$AAI?$AAC?$AAE?$AA_?$AAD?$AAE?$AAS?$AA1?$AA?$AA@| DCB "O"
	DCB	0x0, "M", 0x0, "A", 0x0, "P", 0x0, "_", 0x0, "D", 0x0, "E"
	DCB	0x0, "V", 0x0, "I", 0x0, "C", 0x0, "E", 0x0, "_", 0x0, "D"
	DCB	0x0, "E", 0x0, "S", 0x0, "1", 0x0, 0x0, 0x0 ; `string'

  00000			 AREA	 |.rdata|, DATA, READONLY
|??_C@_1CC@BOIIAOEB@?$AAO?$AAM?$AAA?$AAP?$AA_?$AAD?$AAE?$AAV?$AAI?$AAC?$AAE?$AA_?$AAA?$AAE?$AAS?$AA2?$AA?$AA@| DCB "O"
	DCB	0x0, "M", 0x0, "A", 0x0, "P", 0x0, "_", 0x0, "D", 0x0, "E"
	DCB	0x0, "V", 0x0, "I", 0x0, "C", 0x0, "E", 0x0, "_", 0x0, "A"
	DCB	0x0, "E", 0x0, "S", 0x0, "2", 0x0, 0x0, 0x0 ; `string'

  00000			 AREA	 |.rdata|, DATA, READONLY
|??_C@_1CE@PJCPMBMK@?$AAO?$AAM?$AAA?$AAP?$AA_?$AAD?$AAE?$AAV?$AAI?$AAC?$AAE?$AA_?$AAS?$AAH?$AAA?$AA1?$AA2?$AA?$AA@| DCB "O"
	DCB	0x0, "M", 0x0, "A", 0x0, "P", 0x0, "_", 0x0, "D", 0x0, "E"
	DCB	0x0, "V", 0x0, "I", 0x0, "C", 0x0, "E", 0x0, "_", 0x0, "S"
	DCB	0x0, "H", 0x0, "A", 0x0, "1", 0x0, "2", 0x0, 0x0, 0x0 ; `string'

  00000			 AREA	 |.rdata|, DATA, READONLY
|??_C@_1CC@PIKBMFAF@?$AAO?$AAM?$AAA?$AAP?$AA_?$AAD?$AAE?$AAV?$AAI?$AAC?$AAE?$AA_?$AAD?$AAE?$AAS?$AA2?$AA?$AA@| DCB "O"
	DCB	0x0, "M", 0x0, "A", 0x0, "P", 0x0, "_", 0x0, "D", 0x0, "E"
	DCB	0x0, "V", 0x0, "I", 0x0, "C", 0x0, "E", 0x0, "_", 0x0, "D"
	DCB	0x0, "E", 0x0, "S", 0x0, "2", 0x0, 0x0, 0x0 ; `string'

  00000			 AREA	 |.rdata|, DATA, READONLY
|??_C@_1CC@GMDLJAIE@?$AAO?$AAM?$AAA?$AAP?$AA_?$AAD?$AAE?$AAV?$AAI?$AAC?$AAE?$AA_?$AAM?$AAM?$AAC?$AA3?$AA?$AA@| DCB "O"
	DCB	0x0, "M", 0x0, "A", 0x0, "P", 0x0, "_", 0x0, "D", 0x0, "E"
	DCB	0x0, "V", 0x0, "I", 0x0, "C", 0x0, "E", 0x0, "_", 0x0, "M"
	DCB	0x0, "M", 0x0, "C", 0x0, "3", 0x0, 0x0, 0x0 ; `string'

  00000			 AREA	 |.rdata|, DATA, READONLY
|??_C@_1CC@NEIHPHOB@?$AAO?$AAM?$AAA?$AAP?$AA_?$AAD?$AAE?$AAV?$AAI?$AAC?$AAE?$AA_?$AAM?$AAM?$AAC?$AA2?$AA?$AA@| DCB "O"
	DCB	0x0, "M", 0x0, "A", 0x0, "P", 0x0, "_", 0x0, "D", 0x0, "E"
	DCB	0x0, "V", 0x0, "I", 0x0, "C", 0x0, "E", 0x0, "_", 0x0, "M"
	DCB	0x0, "M", 0x0, "C", 0x0, "2", 0x0, 0x0, 0x0 ; `string'

  00000			 AREA	 |.rdata|, DATA, READONLY
|??_C@_1CC@MGDCFIAP@?$AAO?$AAM?$AAA?$AAP?$AA_?$AAD?$AAE?$AAV?$AAI?$AAC?$AAE?$AA_?$AAM?$AAM?$AAC?$AA1?$AA?$AA@| DCB "O"
	DCB	0x0, "M", 0x0, "A", 0x0, "P", 0x0, "_", 0x0, "D", 0x0, "E"
	DCB	0x0, "V", 0x0, "I", 0x0, "C", 0x0, "E", 0x0, "_", 0x0, "M"
	DCB	0x0, "M", 0x0, "C", 0x0, "1", 0x0, 0x0, 0x0 ; `string'

  00000			 AREA	 |.rdata|, DATA, READONLY
|??_C@_1CA@LMGICGON@?$AAO?$AAM?$AAA?$AAP?$AA_?$AAD?$AAE?$AAV?$AAI?$AAC?$AAE?$AA_?$AAH?$AAD?$AAQ?$AA?$AA@| DCB "O"
	DCB	0x0, "M", 0x0, "A", 0x0, "P", 0x0, "_", 0x0, "D", 0x0, "E"
	DCB	0x0, "V", 0x0, "I", 0x0, "C", 0x0, "E", 0x0, "_", 0x0, "H"
	DCB	0x0, "D", 0x0, "Q", 0x0, 0x0, 0x0	; `string'

  00000			 AREA	 |.rdata|, DATA, READONLY
|??_C@_1CG@CAHLJKCL@?$AAO?$AAM?$AAA?$AAP?$AA_?$AAD?$AAE?$AAV?$AAI?$AAC?$AAE?$AA_?$AAM?$AAC?$AAS?$AAP?$AAI?$AA4?$AA?$AA@| DCB "O"
	DCB	0x0, "M", 0x0, "A", 0x0, "P", 0x0, "_", 0x0, "D", 0x0, "E"
	DCB	0x0, "V", 0x0, "I", 0x0, "C", 0x0, "E", 0x0, "_", 0x0, "M"
	DCB	0x0, "C", 0x0, "S", 0x0, "P", 0x0, "I", 0x0, "4", 0x0, 0x0
	DCB	0x0					; `string'

  00000			 AREA	 |.rdata|, DATA, READONLY
|??_C@_1CG@LNKMKCJC@?$AAO?$AAM?$AAA?$AAP?$AA_?$AAD?$AAE?$AAV?$AAI?$AAC?$AAE?$AA_?$AAM?$AAC?$AAS?$AAP?$AAI?$AA3?$AA?$AA@| DCB "O"
	DCB	0x0, "M", 0x0, "A", 0x0, "P", 0x0, "_", 0x0, "D", 0x0, "E"
	DCB	0x0, "V", 0x0, "I", 0x0, "C", 0x0, "E", 0x0, "_", 0x0, "M"
	DCB	0x0, "C", 0x0, "S", 0x0, "P", 0x0, "I", 0x0, "3", 0x0, 0x0
	DCB	0x0					; `string'

  00000			 AREA	 |.rdata|, DATA, READONLY
|??_C@_1CG@FBAMFPH@?$AAO?$AAM?$AAA?$AAP?$AA_?$AAD?$AAE?$AAV?$AAI?$AAC?$AAE?$AA_?$AAM?$AAC?$AAS?$AAP?$AAI?$AA2?$AA?$AA@| DCB "O"
	DCB	0x0, "M", 0x0, "A", 0x0, "P", 0x0, "_", 0x0, "D", 0x0, "E"
	DCB	0x0, "V", 0x0, "I", 0x0, "C", 0x0, "E", 0x0, "_", 0x0, "M"
	DCB	0x0, "C", 0x0, "S", 0x0, "P", 0x0, "I", 0x0, "2", 0x0, 0x0
	DCB	0x0					; `string'

  00000			 AREA	 |.rdata|, DATA, READONLY
|??_C@_1CG@BHKFGKBJ@?$AAO?$AAM?$AAA?$AAP?$AA_?$AAD?$AAE?$AAV?$AAI?$AAC?$AAE?$AA_?$AAM?$AAC?$AAS?$AAP?$AAI?$AA1?$AA?$AA@| DCB "O"
	DCB	0x0, "M", 0x0, "A", 0x0, "P", 0x0, "_", 0x0, "D", 0x0, "E"
	DCB	0x0, "V", 0x0, "I", 0x0, "C", 0x0, "E", 0x0, "_", 0x0, "M"
	DCB	0x0, "C", 0x0, "S", 0x0, "P", 0x0, "I", 0x0, "1", 0x0, 0x0
	DCB	0x0					; `string'

  00000			 AREA	 |.rdata|, DATA, READONLY
|??_C@_1CC@BAKALDMC@?$AAO?$AAM?$AAA?$AAP?$AA_?$AAD?$AAE?$AAV?$AAI?$AAC?$AAE?$AA_?$AAI?$AA2?$AAC?$AA3?$AA?$AA@| DCB "O"
	DCB	0x0, "M", 0x0, "A", 0x0, "P", 0x0, "_", 0x0, "D", 0x0, "E"
	DCB	0x0, "V", 0x0, "I", 0x0, "C", 0x0, "E", 0x0, "_", 0x0, "I"
	DCB	0x0, "2", 0x0, "C", 0x0, "3", 0x0, 0x0, 0x0 ; `string'

  00000			 AREA	 |.rdata|, DATA, READONLY
|??_C@_1CC@KIBMNEKH@?$AAO?$AAM?$AAA?$AAP?$AA_?$AAD?$AAE?$AAV?$AAI?$AAC?$AAE?$AA_?$AAI?$AA2?$AAC?$AA2?$AA?$AA@| DCB "O"
	DCB	0x0, "M", 0x0, "A", 0x0, "P", 0x0, "_", 0x0, "D", 0x0, "E"
	DCB	0x0, "V", 0x0, "I", 0x0, "C", 0x0, "E", 0x0, "_", 0x0, "I"
	DCB	0x0, "2", 0x0, "C", 0x0, "2", 0x0, 0x0, 0x0 ; `string'

  00000			 AREA	 |.rdata|, DATA, READONLY
|??_C@_1CC@LKKJHLEJ@?$AAO?$AAM?$AAA?$AAP?$AA_?$AAD?$AAE?$AAV?$AAI?$AAC?$AAE?$AA_?$AAI?$AA2?$AAC?$AA1?$AA?$AA@| DCB "O"
	DCB	0x0, "M", 0x0, "A", 0x0, "P", 0x0, "_", 0x0, "D", 0x0, "E"
	DCB	0x0, "V", 0x0, "I", 0x0, "C", 0x0, "E", 0x0, "_", 0x0, "I"
	DCB	0x0, "2", 0x0, "C", 0x0, "1", 0x0, 0x0, 0x0 ; `string'

  00000			 AREA	 |.rdata|, DATA, READONLY
|??_C@_1CE@EAAKOHMB@?$AAO?$AAM?$AAA?$AAP?$AA_?$AAD?$AAE?$AAV?$AAI?$AAC?$AAE?$AA_?$AAU?$AAA?$AAR?$AAT?$AA2?$AA?$AA@| DCB "O"
	DCB	0x0, "M", 0x0, "A", 0x0, "P", 0x0, "_", 0x0, "D", 0x0, "E"
	DCB	0x0, "V", 0x0, "I", 0x0, "C", 0x0, "E", 0x0, "_", 0x0, "U"
	DCB	0x0, "A", 0x0, "R", 0x0, "T", 0x0, "2", 0x0, 0x0, 0x0 ; `string'

  00000			 AREA	 |.rdata|, DATA, READONLY
|??_C@_1CE@FCLPEICP@?$AAO?$AAM?$AAA?$AAP?$AA_?$AAD?$AAE?$AAV?$AAI?$AAC?$AAE?$AA_?$AAU?$AAA?$AAR?$AAT?$AA1?$AA?$AA@| DCB "O"
	DCB	0x0, "M", 0x0, "A", 0x0, "P", 0x0, "_", 0x0, "D", 0x0, "E"
	DCB	0x0, "V", 0x0, "I", 0x0, "C", 0x0, "E", 0x0, "_", 0x0, "U"
	DCB	0x0, "A", 0x0, "R", 0x0, "T", 0x0, "1", 0x0, 0x0, 0x0 ; `string'

  00000			 AREA	 |.rdata|, DATA, READONLY
|??_C@_1CM@FOLMNLIK@?$AAO?$AAM?$AAA?$AAP?$AA_?$AAD?$AAE?$AAV?$AAI?$AAC?$AAE?$AA_?$AAG?$AAP?$AAT?$AAI?$AAM?$AAE?$AAR?$AA1?$AA1?$AA?$AA@| DCB "O"
	DCB	0x0, "M", 0x0, "A", 0x0, "P", 0x0, "_", 0x0, "D", 0x0, "E"
	DCB	0x0, "V", 0x0, "I", 0x0, "C", 0x0, "E", 0x0, "_", 0x0, "G"
	DCB	0x0, "P", 0x0, "T", 0x0, "I", 0x0, "M", 0x0, "E", 0x0, "R"
	DCB	0x0, "1", 0x0, "1", 0x0, 0x0, 0x0	; `string'

  00000			 AREA	 |.rdata|, DATA, READONLY
|??_C@_1CM@OGAALMOP@?$AAO?$AAM?$AAA?$AAP?$AA_?$AAD?$AAE?$AAV?$AAI?$AAC?$AAE?$AA_?$AAG?$AAP?$AAT?$AAI?$AAM?$AAE?$AAR?$AA1?$AA0?$AA?$AA@| DCB "O"
	DCB	0x0, "M", 0x0, "A", 0x0, "P", 0x0, "_", 0x0, "D", 0x0, "E"
	DCB	0x0, "V", 0x0, "I", 0x0, "C", 0x0, "E", 0x0, "_", 0x0, "G"
	DCB	0x0, "P", 0x0, "T", 0x0, "I", 0x0, "M", 0x0, "E", 0x0, "R"
	DCB	0x0, "1", 0x0, "0", 0x0, 0x0, 0x0	; `string'

  00000			 AREA	 |.rdata|, DATA, READONLY
|??_C@_1CG@PKPNEDCI@?$AAO?$AAM?$AAA?$AAP?$AA_?$AAD?$AAE?$AAV?$AAI?$AAC?$AAE?$AA_?$AAM?$AAC?$AAB?$AAS?$AAP?$AA5?$AA?$AA@| DCB "O"
	DCB	0x0, "M", 0x0, "A", 0x0, "P", 0x0, "_", 0x0, "D", 0x0, "E"
	DCB	0x0, "V", 0x0, "I", 0x0, "C", 0x0, "E", 0x0, "_", 0x0, "M"
	DCB	0x0, "C", 0x0, "B", 0x0, "S", 0x0, "P", 0x0, "5", 0x0, 0x0
	DCB	0x0					; `string'

  00000			 AREA	 |.rdata|, DATA, READONLY
|??_C@_1CG@HFJPNEHP@?$AAO?$AAM?$AAA?$AAP?$AA_?$AAD?$AAE?$AAV?$AAI?$AAC?$AAE?$AA_?$AAM?$AAC?$AAB?$AAS?$AAP?$AA1?$AA?$AA@| DCB "O"
	DCB	0x0, "M", 0x0, "A", 0x0, "P", 0x0, "_", 0x0, "D", 0x0, "E"
	DCB	0x0, "V", 0x0, "I", 0x0, "C", 0x0, "E", 0x0, "_", 0x0, "M"
	DCB	0x0, "C", 0x0, "B", 0x0, "S", 0x0, "P", 0x0, "1", 0x0, 0x0
	DCB	0x0					; `string'

  00000			 AREA	 |.rdata|, DATA, READONLY
|??_C@_1CI@GBGOEEEM@?$AAO?$AAM?$AAA?$AAP?$AA_?$AAD?$AAE?$AAV?$AAI?$AAC?$AAE?$AA_?$AAS?$AAC?$AAM?$AAC?$AAT?$AAR?$AAL?$AA?$AA@| DCB "O"
	DCB	0x0, "M", 0x0, "A", 0x0, "P", 0x0, "_", 0x0, "D", 0x0, "E"
	DCB	0x0, "V", 0x0, "I", 0x0, "C", 0x0, "E", 0x0, "_", 0x0, "S"
	DCB	0x0, "C", 0x0, "M", 0x0, "C", 0x0, "T", 0x0, "R", 0x0, "L"
	DCB	0x0, 0x0, 0x0				; `string'

  00000			 AREA	 |.rdata|, DATA, READONLY
|??_C@_1CC@LKJOOBJM@?$AAO?$AAM?$AAA?$AAP?$AA_?$AAD?$AAE?$AAV?$AAI?$AAC?$AAE?$AA_?$AAI?$AAP?$AAS?$AAS?$AA?$AA@| DCB "O"
	DCB	0x0, "M", 0x0, "A", 0x0, "P", 0x0, "_", 0x0, "D", 0x0, "E"
	DCB	0x0, "V", 0x0, "I", 0x0, "C", 0x0, "E", 0x0, "_", 0x0, "I"
	DCB	0x0, "P", 0x0, "S", 0x0, "S", 0x0, 0x0, 0x0 ; `string'

  00000			 AREA	 |.rdata|, DATA, READONLY
|??_C@_1CC@OJKGELFG@?$AAO?$AAM?$AAA?$AAP?$AA_?$AAD?$AAE?$AAV?$AAI?$AAC?$AAE?$AA_?$AAS?$AAD?$AAR?$AAC?$AA?$AA@| DCB "O"
	DCB	0x0, "M", 0x0, "A", 0x0, "P", 0x0, "_", 0x0, "D", 0x0, "E"
	DCB	0x0, "V", 0x0, "I", 0x0, "C", 0x0, "E", 0x0, "_", 0x0, "S"
	DCB	0x0, "D", 0x0, "R", 0x0, "C", 0x0, 0x0, 0x0 ; `string'

  00000			 AREA	 |.rdata|, DATA, READONLY
|??_C@_1BI@MMHHFKED@?$AAk?$AAG?$AAP?$AAT?$AA1?$AA1?$AA_?$AAF?$AAC?$AAL?$AAK?$AA?$AA@| DCB "k"
	DCB	0x0, "G", 0x0, "P", 0x0, "T", 0x0, "1", 0x0, "1", 0x0, "_"
	DCB	0x0, "F", 0x0, "C", 0x0, "L", 0x0, "K", 0x0, 0x0, 0x0 ; `string'

  00000			 AREA	 |.rdata|, DATA, READONLY
|??_C@_1BI@FBHILLDF@?$AAk?$AAG?$AAP?$AAT?$AA1?$AA0?$AA_?$AAF?$AAC?$AAL?$AAK?$AA?$AA@| DCB "k"
	DCB	0x0, "G", 0x0, "P", 0x0, "T", 0x0, "1", 0x0, "0", 0x0, "_"
	DCB	0x0, "F", 0x0, "C", 0x0, "L", 0x0, "K", 0x0, 0x0, 0x0 ; `string'

  00000			 AREA	 |.rdata|, DATA, READONLY
|??_C@_1CC@CDCMPIGB@?$AAk?$AAG?$AAP?$AAT?$AA9?$AA_?$AAA?$AAL?$AAW?$AAO?$AAN?$AA_?$AAF?$AAC?$AAL?$AAK?$AA?$AA@| DCB "k"
	DCB	0x0, "G", 0x0, "P", 0x0, "T", 0x0, "9", 0x0, "_", 0x0, "A"
	DCB	0x0, "L", 0x0, "W", 0x0, "O", 0x0, "N", 0x0, "_", 0x0, "F"
	DCB	0x0, "C", 0x0, "L", 0x0, "K", 0x0, 0x0, 0x0 ; `string'

  00000			 AREA	 |.rdata|, DATA, READONLY
|??_C@_1CC@MEDBFOPG@?$AAk?$AAG?$AAP?$AAT?$AA8?$AA_?$AAA?$AAL?$AAW?$AAO?$AAN?$AA_?$AAF?$AAC?$AAL?$AAK?$AA?$AA@| DCB "k"
	DCB	0x0, "G", 0x0, "P", 0x0, "T", 0x0, "8", 0x0, "_", 0x0, "A"
	DCB	0x0, "L", 0x0, "W", 0x0, "O", 0x0, "N", 0x0, "_", 0x0, "F"
	DCB	0x0, "C", 0x0, "L", 0x0, "K", 0x0, 0x0, 0x0 ; `string'

  00000			 AREA	 |.rdata|, DATA, READONLY
|??_C@_1CC@EJNLAIGM@?$AAk?$AAG?$AAP?$AAT?$AA7?$AA_?$AAA?$AAL?$AAW?$AAO?$AAN?$AA_?$AAF?$AAC?$AAL?$AAK?$AA?$AA@| DCB "k"
	DCB	0x0, "G", 0x0, "P", 0x0, "T", 0x0, "7", 0x0, "_", 0x0, "A"
	DCB	0x0, "L", 0x0, "W", 0x0, "O", 0x0, "N", 0x0, "_", 0x0, "F"
	DCB	0x0, "C", 0x0, "L", 0x0, "K", 0x0, 0x0, 0x0 ; `string'

  00000			 AREA	 |.rdata|, DATA, READONLY
|??_C@_1CC@KOMGKOPL@?$AAk?$AAG?$AAP?$AAT?$AA6?$AA_?$AAA?$AAL?$AAW?$AAO?$AAN?$AA_?$AAF?$AAC?$AAL?$AAK?$AA?$AA@| DCB "k"
	DCB	0x0, "G", 0x0, "P", 0x0, "T", 0x0, "6", 0x0, "_", 0x0, "A"
	DCB	0x0, "L", 0x0, "W", 0x0, "O", 0x0, "N", 0x0, "_", 0x0, "F"
	DCB	0x0, "C", 0x0, "L", 0x0, "K", 0x0, 0x0, 0x0 ; `string'

  00000			 AREA	 |.rdata|, DATA, READONLY
|??_C@_1CC@FMJBEDAD@?$AAk?$AAG?$AAP?$AAT?$AA5?$AA_?$AAA?$AAL?$AAW?$AAO?$AAN?$AA_?$AAF?$AAC?$AAL?$AAK?$AA?$AA@| DCB "k"
	DCB	0x0, "G", 0x0, "P", 0x0, "T", 0x0, "5", 0x0, "_", 0x0, "A"
	DCB	0x0, "L", 0x0, "W", 0x0, "O", 0x0, "N", 0x0, "_", 0x0, "F"
	DCB	0x0, "C", 0x0, "L", 0x0, "K", 0x0, 0x0, 0x0 ; `string'

  00000			 AREA	 |.rdata|, DATA, READONLY
|??_C@_1CC@LLIMOFJE@?$AAk?$AAG?$AAP?$AAT?$AA4?$AA_?$AAA?$AAL?$AAW?$AAO?$AAN?$AA_?$AAF?$AAC?$AAL?$AAK?$AA?$AA@| DCB "k"
	DCB	0x0, "G", 0x0, "P", 0x0, "T", 0x0, "4", 0x0, "_", 0x0, "A"
	DCB	0x0, "L", 0x0, "W", 0x0, "O", 0x0, "N", 0x0, "_", 0x0, "F"
	DCB	0x0, "C", 0x0, "L", 0x0, "K", 0x0, 0x0, 0x0 ; `string'

  00000			 AREA	 |.rdata|, DATA, READONLY
|??_C@_1CC@GDEPJOLC@?$AAk?$AAG?$AAP?$AAT?$AA3?$AA_?$AAA?$AAL?$AAW?$AAO?$AAN?$AA_?$AAF?$AAC?$AAL?$AAK?$AA?$AA@| DCB "k"
	DCB	0x0, "G", 0x0, "P", 0x0, "T", 0x0, "3", 0x0, "_", 0x0, "A"
	DCB	0x0, "L", 0x0, "W", 0x0, "O", 0x0, "N", 0x0, "_", 0x0, "F"
	DCB	0x0, "C", 0x0, "L", 0x0, "K", 0x0, 0x0, 0x0 ; `string'

  00000			 AREA	 |.rdata|, DATA, READONLY
|??_C@_1CC@IEFCDICF@?$AAk?$AAG?$AAP?$AAT?$AA2?$AA_?$AAA?$AAL?$AAW?$AAO?$AAN?$AA_?$AAF?$AAC?$AAL?$AAK?$AA?$AA@| DCB "k"
	DCB	0x0, "G", 0x0, "P", 0x0, "T", 0x0, "2", 0x0, "_", 0x0, "A"
	DCB	0x0, "L", 0x0, "W", 0x0, "O", 0x0, "N", 0x0, "_", 0x0, "F"
	DCB	0x0, "C", 0x0, "L", 0x0, "K", 0x0, 0x0, 0x0 ; `string'

  00000			 AREA	 |.rdata|, DATA, READONLY
|??_C@_1BG@LBMJBNDI@?$AAk?$AAG?$AAP?$AAT?$AA1?$AA_?$AAF?$AAC?$AAL?$AAK?$AA?$AA@| DCB "k"
	DCB	0x0, "G", 0x0, "P", 0x0, "T", 0x0, "1", 0x0, "_", 0x0, "F"
	DCB	0x0, "C", 0x0, "L", 0x0, "K", 0x0, 0x0, 0x0 ; `string'

  00000			 AREA	 |.rdata|, DATA, READONLY
|??_C@_1BE@BKPHEHJG@?$AAk?$AAS?$AAG?$AAX?$AA_?$AAF?$AAC?$AAL?$AAK?$AA?$AA@| DCB "k"
	DCB	0x0, "S", 0x0, "G", 0x0, "X", 0x0, "_", 0x0, "F", 0x0, "C"
	DCB	0x0, "L", 0x0, "K", 0x0, 0x0, 0x0	; `string'

  00000			 AREA	 |.rdata|, DATA, READONLY
|??_C@_1BE@OHPPGGKJ@?$AAk?$AA5?$AA4?$AAM?$AA_?$AAF?$AAC?$AAL?$AAK?$AA?$AA@| DCB "k"
	DCB	0x0, "5", 0x0, "4", 0x0, "M", 0x0, "_", 0x0, "F", 0x0, "C"
	DCB	0x0, "L", 0x0, "K", 0x0, 0x0, 0x0	; `string'

  00000			 AREA	 |.rdata|, DATA, READONLY
|??_C@_1BE@KPIPADIA@?$AAk?$AA4?$AA8?$AAM?$AA_?$AAF?$AAC?$AAL?$AAK?$AA?$AA@| DCB "k"
	DCB	0x0, "4", 0x0, "8", 0x0, "M", 0x0, "_", 0x0, "F", 0x0, "C"
	DCB	0x0, "L", 0x0, "K", 0x0, 0x0, 0x0	; `string'

  00000			 AREA	 |.rdata|, DATA, READONLY
|??_C@_1BE@HMKGDKMA@?$AAk?$AA9?$AA6?$AAM?$AA_?$AAF?$AAC?$AAL?$AAK?$AA?$AA@| DCB "k"
	DCB	0x0, "9", 0x0, "6", 0x0, "M", 0x0, "_", 0x0, "F", 0x0, "C"
	DCB	0x0, "L", 0x0, "K", 0x0, 0x0, 0x0	; `string'

  00000			 AREA	 |.rdata|, DATA, READONLY
|??_C@_1BG@FOLAEDFM@?$AAk?$AAU?$AAS?$AAI?$AAM?$AA_?$AAF?$AAC?$AAL?$AAK?$AA?$AA@| DCB "k"
	DCB	0x0, "U", 0x0, "S", 0x0, "I", 0x0, "M", 0x0, "_", 0x0, "F"
	DCB	0x0, "C", 0x0, "L", 0x0, "K", 0x0, 0x0, 0x0 ; `string'

  00000			 AREA	 |.rdata|, DATA, READONLY
|??_C@_1BK@FIGBAONF@?$AAk?$AAC?$AAM?$AA_?$AAU?$AAS?$AAI?$AAM?$AA_?$AAC?$AAL?$AAK?$AA?$AA@| DCB "k"
	DCB	0x0, "C", 0x0, "M", 0x0, "_", 0x0, "U", 0x0, "S", 0x0, "I"
	DCB	0x0, "M", 0x0, "_", 0x0, "C", 0x0, "L", 0x0, "K", 0x0, 0x0
	DCB	0x0					; `string'

  00000			 AREA	 |.rdata|, DATA, READONLY
|??_C@_1CG@INMPAIAN@?$AAk?$AAU?$AAS?$AAB?$AAH?$AAO?$AAS?$AAT?$AA_?$AA1?$AA2?$AA0?$AAM?$AA_?$AAF?$AAC?$AAL?$AAK?$AA?$AA@| DCB "k"
	DCB	0x0, "U", 0x0, "S", 0x0, "B", 0x0, "H", 0x0, "O", 0x0, "S"
	DCB	0x0, "T", 0x0, "_", 0x0, "1", 0x0, "2", 0x0, "0", 0x0, "M"
	DCB	0x0, "_", 0x0, "F", 0x0, "C", 0x0, "L", 0x0, "K", 0x0, 0x0
	DCB	0x0					; `string'

  00000			 AREA	 |.rdata|, DATA, READONLY
|??_C@_1BK@DMMIFOKJ@?$AAk?$AAD?$AAS?$AAS?$AA_?$AAT?$AAV?$AA_?$AAF?$AAC?$AAL?$AAK?$AA?$AA@| DCB "k"
	DCB	0x0, "D", 0x0, "S", 0x0, "S", 0x0, "_", 0x0, "T", 0x0, "V"
	DCB	0x0, "_", 0x0, "F", 0x0, "C", 0x0, "L", 0x0, "K", 0x0, 0x0
	DCB	0x0					; `string'

  00000			 AREA	 |.rdata|, DATA, READONLY
|??_C@_1BO@KGNEDEAO@?$AAk?$AAC?$AAO?$AAR?$AAE?$AA_?$AA1?$AA2?$AAM?$AA_?$AAF?$AAC?$AAL?$AAK?$AA?$AA@| DCB "k"
	DCB	0x0, "C", 0x0, "O", 0x0, "R", 0x0, "E", 0x0, "_", 0x0, "1"
	DCB	0x0, "2", 0x0, "M", 0x0, "_", 0x0, "F", 0x0, "C", 0x0, "L"
	DCB	0x0, "K", 0x0, 0x0, 0x0			; `string'

  00000			 AREA	 |.rdata|, DATA, READONLY
|??_C@_1BE@LPMGNIEL@?$AAk?$AA1?$AA2?$AAM?$AA_?$AAF?$AAC?$AAL?$AAK?$AA?$AA@| DCB "k"
	DCB	0x0, "1", 0x0, "2", 0x0, "M", 0x0, "_", 0x0, "F", 0x0, "C"
	DCB	0x0, "L", 0x0, "K", 0x0, 0x0, 0x0	; `string'

  00000			 AREA	 |.rdata|, DATA, READONLY
|??_C@_1BM@CNNCGJCM@?$AAk?$AAP?$AAE?$AAR?$AA_?$AA4?$AA8?$AAM?$AA_?$AAF?$AAC?$AAL?$AAK?$AA?$AA@| DCB "k"
	DCB	0x0, "P", 0x0, "E", 0x0, "R", 0x0, "_", 0x0, "4", 0x0, "8"
	DCB	0x0, "M", 0x0, "_", 0x0, "F", 0x0, "C", 0x0, "L", 0x0, "K"
	DCB	0x0, 0x0, 0x0				; `string'

  00000			 AREA	 |.rdata|, DATA, READONLY
|??_C@_1CE@JDPIHICJ@?$AAk?$AAU?$AAS?$AAB?$AAH?$AAO?$AAS?$AAT?$AA_?$AA4?$AA8?$AAM?$AA_?$AAF?$AAC?$AAL?$AAK?$AA?$AA@| DCB "k"
	DCB	0x0, "U", 0x0, "S", 0x0, "B", 0x0, "H", 0x0, "O", 0x0, "S"
	DCB	0x0, "T", 0x0, "_", 0x0, "4", 0x0, "8", 0x0, "M", 0x0, "_"
	DCB	0x0, "F", 0x0, "C", 0x0, "L", 0x0, "K", 0x0, 0x0, 0x0 ; `string'

  00000			 AREA	 |.rdata|, DATA, READONLY
|??_C@_1BO@LGJNOPMF@?$AAk?$AAC?$AAO?$AAR?$AAE?$AA_?$AA4?$AA8?$AAM?$AA_?$AAF?$AAC?$AAL?$AAK?$AA?$AA@| DCB "k"
	DCB	0x0, "C", 0x0, "O", 0x0, "R", 0x0, "E", 0x0, "_", 0x0, "4"
	DCB	0x0, "8", 0x0, "M", 0x0, "_", 0x0, "F", 0x0, "C", 0x0, "L"
	DCB	0x0, "K", 0x0, 0x0, 0x0			; `string'

  00000			 AREA	 |.rdata|, DATA, READONLY
|??_C@_1BO@MLNMBJDB@?$AAk?$AAC?$AAS?$AAI?$AA2?$AA_?$AA9?$AA6?$AAM?$AA_?$AAF?$AAC?$AAL?$AAK?$AA?$AA@| DCB "k"
	DCB	0x0, "C", 0x0, "S", 0x0, "I", 0x0, "2", 0x0, "_", 0x0, "9"
	DCB	0x0, "6", 0x0, "M", 0x0, "_", 0x0, "F", 0x0, "C", 0x0, "L"
	DCB	0x0, "K", 0x0, 0x0, 0x0			; `string'

  00000			 AREA	 |.rdata|, DATA, READONLY
|??_C@_1BM@KGEDNEGH@?$AAk?$AAD?$AAS?$AAS?$AA_?$AA9?$AA6?$AAM?$AA_?$AAF?$AAC?$AAL?$AAK?$AA?$AA@| DCB "k"
	DCB	0x0, "D", 0x0, "S", 0x0, "S", 0x0, "_", 0x0, "9", 0x0, "6"
	DCB	0x0, "M", 0x0, "_", 0x0, "F", 0x0, "C", 0x0, "L", 0x0, "K"
	DCB	0x0, 0x0, 0x0				; `string'

  00000			 AREA	 |.rdata|, DATA, READONLY
|??_C@_1BO@GFLENGIF@?$AAk?$AAC?$AAO?$AAR?$AAE?$AA_?$AA9?$AA6?$AAM?$AA_?$AAF?$AAC?$AAL?$AAK?$AA?$AA@| DCB "k"
	DCB	0x0, "C", 0x0, "O", 0x0, "R", 0x0, "E", 0x0, "_", 0x0, "9"
	DCB	0x0, "6", 0x0, "M", 0x0, "_", 0x0, "F", 0x0, "C", 0x0, "L"
	DCB	0x0, "K", 0x0, 0x0, 0x0			; `string'

  00000			 AREA	 |.rdata|, DATA, READONLY
|??_C@_1BM@JEIEMPJK@?$AAk?$AAS?$AAS?$AAI?$AA_?$AAS?$AAS?$AAT?$AA_?$AAF?$AAC?$AAL?$AAK?$AA?$AA@| DCB "k"
	DCB	0x0, "S", 0x0, "S", 0x0, "I", 0x0, "_", 0x0, "S", 0x0, "S"
	DCB	0x0, "T", 0x0, "_", 0x0, "F", 0x0, "C", 0x0, "L", 0x0, "K"
	DCB	0x0, 0x0, 0x0				; `string'

  00000			 AREA	 |.rdata|, DATA, READONLY
|??_C@_1BM@GMEGIECM@?$AAk?$AAS?$AAS?$AAI?$AA_?$AAS?$AAS?$AAR?$AA_?$AAF?$AAC?$AAL?$AAK?$AA?$AA@| DCB "k"
	DCB	0x0, "S", 0x0, "S", 0x0, "I", 0x0, "_", 0x0, "S", 0x0, "S"
	DCB	0x0, "R", 0x0, "_", 0x0, "F", 0x0, "C", 0x0, "L", 0x0, "K"
	DCB	0x0, 0x0, 0x0				; `string'

  00000			 AREA	 |.rdata|, DATA, READONLY
|??_C@_1BI@KNLMECEA@?$AAk?$AAS?$AAR?$AA_?$AAL?$AA4?$AA_?$AAI?$AAC?$AAL?$AAK?$AA?$AA@| DCB "k"
	DCB	0x0, "S", 0x0, "R", 0x0, "_", 0x0, "L", 0x0, "4", 0x0, "_"
	DCB	0x0, "I", 0x0, "C", 0x0, "L", 0x0, "K", 0x0, 0x0, 0x0 ; `string'

  00000			 AREA	 |.rdata|, DATA, READONLY
|??_C@_1BK@JNEICFJE@?$AAk?$AAP?$AAE?$AAR?$AA_?$AAL?$AA4?$AA_?$AAI?$AAC?$AAL?$AAK?$AA?$AA@| DCB "k"
	DCB	0x0, "P", 0x0, "E", 0x0, "R", 0x0, "_", 0x0, "L", 0x0, "4"
	DCB	0x0, "_", 0x0, "I", 0x0, "C", 0x0, "L", 0x0, "K", 0x0, 0x0
	DCB	0x0					; `string'

  00000			 AREA	 |.rdata|, DATA, READONLY
|??_C@_1CC@CIKJOCKA@?$AAk?$AAU?$AAS?$AAB?$AAH?$AAO?$AAS?$AAT?$AA_?$AAL?$AA4?$AA_?$AAI?$AAC?$AAL?$AAK?$AA?$AA@| DCB "k"
	DCB	0x0, "U", 0x0, "S", 0x0, "B", 0x0, "H", 0x0, "O", 0x0, "S"
	DCB	0x0, "T", 0x0, "_", 0x0, "L", 0x0, "4", 0x0, "_", 0x0, "I"
	DCB	0x0, "C", 0x0, "L", 0x0, "K", 0x0, 0x0, 0x0 ; `string'

  00000			 AREA	 |.rdata|, DATA, READONLY
|??_C@_1CC@ENGEEIGA@?$AAk?$AAU?$AAS?$AAB?$AAH?$AAO?$AAS?$AAT?$AA_?$AAL?$AA3?$AA_?$AAI?$AAC?$AAL?$AAK?$AA?$AA@| DCB "k"
	DCB	0x0, "U", 0x0, "S", 0x0, "B", 0x0, "H", 0x0, "O", 0x0, "S"
	DCB	0x0, "T", 0x0, "_", 0x0, "L", 0x0, "3", 0x0, "_", 0x0, "I"
	DCB	0x0, "C", 0x0, "L", 0x0, "K", 0x0, 0x0, 0x0 ; `string'

  00000			 AREA	 |.rdata|, DATA, READONLY
|??_C@_1BK@HKMFLLIF@?$AAk?$AAC?$AAA?$AAM?$AA_?$AAL?$AA4?$AA_?$AAI?$AAC?$AAL?$AAK?$AA?$AA@| DCB "k"
	DCB	0x0, "C", 0x0, "A", 0x0, "M", 0x0, "_", 0x0, "L", 0x0, "4"
	DCB	0x0, "_", 0x0, "I", 0x0, "C", 0x0, "L", 0x0, "K", 0x0, 0x0
	DCB	0x0					; `string'

  00000			 AREA	 |.rdata|, DATA, READONLY
|??_C@_1BK@BPAIBBEF@?$AAk?$AAC?$AAA?$AAM?$AA_?$AAL?$AA3?$AA_?$AAI?$AAC?$AAL?$AAK?$AA?$AA@| DCB "k"
	DCB	0x0, "C", 0x0, "A", 0x0, "M", 0x0, "_", 0x0, "L", 0x0, "3"
	DCB	0x0, "_", 0x0, "I", 0x0, "C", 0x0, "L", 0x0, "K", 0x0, 0x0
	DCB	0x0					; `string'

  00000			 AREA	 |.rdata|, DATA, READONLY
|??_C@_1BK@DFEEOPHB@?$AAk?$AAD?$AAS?$AAS?$AA_?$AAL?$AA4?$AA_?$AAI?$AAC?$AAL?$AAK?$AA?$AA@| DCB "k"
	DCB	0x0, "D", 0x0, "S", 0x0, "S", 0x0, "_", 0x0, "L", 0x0, "4"
	DCB	0x0, "_", 0x0, "I", 0x0, "C", 0x0, "L", 0x0, "K", 0x0, 0x0
	DCB	0x0					; `string'

  00000			 AREA	 |.rdata|, DATA, READONLY
|??_C@_1BK@FAIJEFLB@?$AAk?$AAD?$AAS?$AAS?$AA_?$AAL?$AA3?$AA_?$AAI?$AAC?$AAL?$AAK?$AA?$AA@| DCB "k"
	DCB	0x0, "D", 0x0, "S", 0x0, "S", 0x0, "_", 0x0, "L", 0x0, "3"
	DCB	0x0, "_", 0x0, "I", 0x0, "C", 0x0, "L", 0x0, "K", 0x0, 0x0
	DCB	0x0					; `string'

  00000			 AREA	 |.rdata|, DATA, READONLY
|??_C@_1BK@MMOEKMCA@?$AAk?$AAS?$AAS?$AAI?$AA_?$AAL?$AA4?$AA_?$AAI?$AAC?$AAL?$AAK?$AA?$AA@| DCB "k"
	DCB	0x0, "S", 0x0, "S", 0x0, "I", 0x0, "_", 0x0, "L", 0x0, "4"
	DCB	0x0, "_", 0x0, "I", 0x0, "C", 0x0, "L", 0x0, "K", 0x0, 0x0
	DCB	0x0					; `string'

  00000			 AREA	 |.rdata|, DATA, READONLY
|??_C@_1BK@NJNOEPMC@?$AAk?$AAS?$AAG?$AAX?$AA_?$AAL?$AA3?$AA_?$AAI?$AAC?$AAL?$AAK?$AA?$AA@| DCB "k"
	DCB	0x0, "S", 0x0, "G", 0x0, "X", 0x0, "_", 0x0, "L", 0x0, "3"
	DCB	0x0, "_", 0x0, "I", 0x0, "C", 0x0, "L", 0x0, "K", 0x0, 0x0
	DCB	0x0					; `string'

  00000			 AREA	 |.rdata|, DATA, READONLY
|??_C@_1CG@CFAPNILK@?$AAk?$AAS?$AAE?$AAC?$AAU?$AAR?$AAI?$AAT?$AAY?$AA_?$AAL?$AA4?$AA_?$AAI?$AAC?$AAL?$AAK?$AA2?$AA?$AA@| DCB "k"
	DCB	0x0, "S", 0x0, "E", 0x0, "C", 0x0, "U", 0x0, "R", 0x0, "I"
	DCB	0x0, "T", 0x0, "Y", 0x0, "_", 0x0, "L", 0x0, "4", 0x0, "_"
	DCB	0x0, "I", 0x0, "C", 0x0, "L", 0x0, "K", 0x0, "2", 0x0, 0x0
	DCB	0x0					; `string'

  00000			 AREA	 |.rdata|, DATA, READONLY
|??_C@_1CG@DHLKHHFE@?$AAk?$AAS?$AAE?$AAC?$AAU?$AAR?$AAI?$AAT?$AAY?$AA_?$AAL?$AA4?$AA_?$AAI?$AAC?$AAL?$AAK?$AA1?$AA?$AA@| DCB "k"
	DCB	0x0, "S", 0x0, "E", 0x0, "C", 0x0, "U", 0x0, "R", 0x0, "I"
	DCB	0x0, "T", 0x0, "Y", 0x0, "_", 0x0, "L", 0x0, "4", 0x0, "_"
	DCB	0x0, "I", 0x0, "C", 0x0, "L", 0x0, "K", 0x0, "1", 0x0, 0x0
	DCB	0x0					; `string'

  00000			 AREA	 |.rdata|, DATA, READONLY
|??_C@_1CE@DCCJJJCO@?$AAk?$AAS?$AAE?$AAC?$AAU?$AAR?$AAI?$AAT?$AAY?$AA_?$AAL?$AA3?$AA_?$AAI?$AAC?$AAL?$AAK?$AA?$AA@| DCB "k"
	DCB	0x0, "S", 0x0, "E", 0x0, "C", 0x0, "U", 0x0, "R", 0x0, "I"
	DCB	0x0, "T", 0x0, "Y", 0x0, "_", 0x0, "L", 0x0, "3", 0x0, "_"
	DCB	0x0, "I", 0x0, "C", 0x0, "L", 0x0, "K", 0x0, 0x0, 0x0 ; `string'

  00000			 AREA	 |.rdata|, DATA, READONLY
|??_C@_1BM@GNELHHCO@?$AAk?$AAC?$AAO?$AAR?$AAE?$AA_?$AAL?$AA4?$AA_?$AAI?$AAC?$AAL?$AAK?$AA?$AA@| DCB "k"
	DCB	0x0, "C", 0x0, "O", 0x0, "R", 0x0, "E", 0x0, "_", 0x0, "L"
	DCB	0x0, "4", 0x0, "_", 0x0, "I", 0x0, "C", 0x0, "L", 0x0, "K"
	DCB	0x0, 0x0, 0x0				; `string'

  00000			 AREA	 |.rdata|, DATA, READONLY
|??_C@_1BM@IIGNNOO@?$AAk?$AAC?$AAO?$AAR?$AAE?$AA_?$AAL?$AA3?$AA_?$AAI?$AAC?$AAL?$AAK?$AA?$AA@| DCB "k"
	DCB	0x0, "C", 0x0, "O", 0x0, "R", 0x0, "E", 0x0, "_", 0x0, "L"
	DCB	0x0, "3", 0x0, "_", 0x0, "I", 0x0, "C", 0x0, "L", 0x0, "K"
	DCB	0x0, 0x0, 0x0				; `string'

  00000			 AREA	 |.rdata|, DATA, READONLY
|??_C@_1BI@GGLANBIM@?$AAk?$AAD?$AAP?$AAL?$AAL?$AA2?$AA_?$AAF?$AAC?$AAL?$AAK?$AA?$AA@| DCB "k"
	DCB	0x0, "D", 0x0, "P", 0x0, "L", 0x0, "L", 0x0, "2", 0x0, "_"
	DCB	0x0, "F", 0x0, "C", 0x0, "L", 0x0, "K", 0x0, 0x0, 0x0 ; `string'

  00000			 AREA	 |.rdata|, DATA, READONLY
|??_C@_1BI@BKNBPEFH@?$AAk?$AAD?$AAP?$AAL?$AAL?$AA1?$AA_?$AAF?$AAC?$AAL?$AAK?$AA?$AA@| DCB "k"
	DCB	0x0, "D", 0x0, "P", 0x0, "L", 0x0, "L", 0x0, "1", 0x0, "_"
	DCB	0x0, "F", 0x0, "C", 0x0, "L", 0x0, "K", 0x0, 0x0, 0x0 ; `string'

  00000			 AREA	 |.rdata|, DATA, READONLY
|??_C@_1BC@IEJPNIBD@?$AAk?$AAR?$AAM?$AA_?$AAI?$AAC?$AAL?$AAK?$AA?$AA@| DCB "k"
	DCB	0x0, "R", 0x0, "M", 0x0, "_", 0x0, "I", 0x0, "C", 0x0, "L"
	DCB	0x0, "K", 0x0, 0x0, 0x0			; `string'

  00000			 AREA	 |.rdata|, DATA, READONLY
|??_C@_1BK@EOKLGFAI@?$AAk?$AAU?$AAS?$AAB?$AA_?$AAL?$AA4?$AA_?$AAI?$AAC?$AAL?$AAK?$AA?$AA@| DCB "k"
	DCB	0x0, "U", 0x0, "S", 0x0, "B", 0x0, "_", 0x0, "L", 0x0, "4"
	DCB	0x0, "_", 0x0, "I", 0x0, "C", 0x0, "L", 0x0, "K", 0x0, 0x0
	DCB	0x0					; `string'

  00000			 AREA	 |.rdata|, DATA, READONLY
|??_C@_1BC@GADFMCD@?$AAk?$AAL?$AA4?$AA_?$AAI?$AAC?$AAL?$AAK?$AA?$AA@| DCB "k"
	DCB	0x0, "L", 0x0, "4", 0x0, "_", 0x0, "I", 0x0, "C", 0x0, "L"
	DCB	0x0, "K", 0x0, 0x0, 0x0			; `string'

  00000			 AREA	 |.rdata|, DATA, READONLY
|??_C@_1BC@GDMOPGOD@?$AAk?$AAL?$AA3?$AA_?$AAI?$AAC?$AAL?$AAK?$AA?$AA@| DCB "k"
	DCB	0x0, "L", 0x0, "3", 0x0, "_", 0x0, "I", 0x0, "C", 0x0, "L"
	DCB	0x0, "K", 0x0, 0x0, 0x0			; `string'

  00000			 AREA	 |.rdata|, DATA, READONLY
|??_C@_1CA@PCEHGMIB@?$AAk?$AA9?$AA6?$AAM?$AA_?$AAA?$AAL?$AAW?$AAO?$AAN?$AA_?$AAF?$AAC?$AAL?$AAK?$AA?$AA@| DCB "k"
	DCB	0x0, "9", 0x0, "6", 0x0, "M", 0x0, "_", 0x0, "A", 0x0, "L"
	DCB	0x0, "W", 0x0, "O", 0x0, "N", 0x0, "_", 0x0, "F", 0x0, "C"
	DCB	0x0, "L", 0x0, "K", 0x0, 0x0, 0x0	; `string'

  00000			 AREA	 |.rdata|, DATA, READONLY
|??_C@_1BK@MCHPLJEE@?$AAk?$AAC?$AAM?$AA_?$AA9?$AA6?$AAM?$AA_?$AAF?$AAC?$AAL?$AAK?$AA?$AA@| DCB "k"
	DCB	0x0, "C", 0x0, "M", 0x0, "_", 0x0, "9", 0x0, "6", 0x0, "M"
	DCB	0x0, "_", 0x0, "F", 0x0, "C", 0x0, "L", 0x0, "K", 0x0, 0x0
	DCB	0x0					; `string'

  00000			 AREA	 |.rdata|, DATA, READONLY
|??_C@_1CA@BBGPJHGP@?$AAk?$AAC?$AAO?$AAR?$AAE?$AA_?$AA1?$AA2?$AA0?$AAM?$AA_?$AAF?$AAC?$AAL?$AAK?$AA?$AA@| DCB "k"
	DCB	0x0, "C", 0x0, "O", 0x0, "R", 0x0, "E", 0x0, "_", 0x0, "1"
	DCB	0x0, "2", 0x0, "0", 0x0, "M", 0x0, "_", 0x0, "F", 0x0, "C"
	DCB	0x0, "L", 0x0, "K", 0x0, 0x0, 0x0	; `string'

  00000			 AREA	 |.rdata|, DATA, READONLY
|??_C@_1CI@EADHIPEB@?$AAk?$AAP?$AAE?$AAR?$AA_?$AA3?$AA2?$AAK?$AA_?$AAA?$AAL?$AAW?$AAO?$AAN?$AA_?$AAF?$AAC?$AAL?$AAK?$AA?$AA@| DCB "k"
	DCB	0x0, "P", 0x0, "E", 0x0, "R", 0x0, "_", 0x0, "3", 0x0, "2"
	DCB	0x0, "K", 0x0, "_", 0x0, "A", 0x0, "L", 0x0, "W", 0x0, "O"
	DCB	0x0, "N", 0x0, "_", 0x0, "F", 0x0, "C", 0x0, "L", 0x0, "K"
	DCB	0x0, 0x0, 0x0				; `string'

  00000			 AREA	 |.rdata|, DATA, READONLY
|??_C@_1BO@LPLICNLH@?$AAk?$AAW?$AAK?$AAU?$AAP?$AA_?$AA3?$AA2?$AAK?$AA_?$AAF?$AAC?$AAL?$AAK?$AA?$AA@| DCB "k"
	DCB	0x0, "W", 0x0, "K", 0x0, "U", 0x0, "P", 0x0, "_", 0x0, "3"
	DCB	0x0, "2", 0x0, "K", 0x0, "_", 0x0, "F", 0x0, "C", 0x0, "L"
	DCB	0x0, "K", 0x0, 0x0, 0x0			; `string'

  00000			 AREA	 |.rdata|, DATA, READONLY
|??_C@_1BO@FLMCBEDL@?$AAk?$AAC?$AAO?$AAR?$AAE?$AA_?$AA3?$AA2?$AAK?$AA_?$AAF?$AAC?$AAL?$AAK?$AA?$AA@| DCB "k"
	DCB	0x0, "C", 0x0, "O", 0x0, "R", 0x0, "E", 0x0, "_", 0x0, "3"
	DCB	0x0, "2", 0x0, "K", 0x0, "_", 0x0, "F", 0x0, "C", 0x0, "L"
	DCB	0x0, "K", 0x0, 0x0, 0x0			; `string'

  00000			 AREA	 |.rdata|, DATA, READONLY
|??_C@_1BI@BEPCGLLM@?$AAk?$AAC?$AAM?$AA_?$AA3?$AA2?$AAK?$AA_?$AAC?$AAL?$AAK?$AA?$AA@| DCB "k"
	DCB	0x0, "C", 0x0, "M", 0x0, "_", 0x0, "3", 0x0, "2", 0x0, "K"
	DCB	0x0, "_", 0x0, "C", 0x0, "L", 0x0, "K", 0x0, 0x0, 0x0 ; `string'

  00000			 AREA	 |.rdata|, DATA, READONLY
|??_C@_1BM@CKBOGBKN@?$AAk?$AAW?$AAK?$AAU?$AAP?$AA_?$AAL?$AA4?$AA_?$AAI?$AAC?$AAL?$AAK?$AA?$AA@| DCB "k"
	DCB	0x0, "W", 0x0, "K", 0x0, "U", 0x0, "P", 0x0, "_", 0x0, "L"
	DCB	0x0, "4", 0x0, "_", 0x0, "I", 0x0, "C", 0x0, "L", 0x0, "K"
	DCB	0x0, 0x0, 0x0				; `string'

  00000			 AREA	 |.rdata|, DATA, READONLY
|??_C@_1CC@NOFOGNB@?$AAk?$AAD?$AAS?$AAS?$AA2?$AA_?$AAA?$AAL?$AAW?$AAO?$AAN?$AA_?$AAF?$AAC?$AAL?$AAK?$AA?$AA@| DCB "k"
	DCB	0x0, "D", 0x0, "S", 0x0, "S", 0x0, "2", 0x0, "_", 0x0, "A"
	DCB	0x0, "L", 0x0, "W", 0x0, "O", 0x0, "N", 0x0, "_", 0x0, "F"
	DCB	0x0, "C", 0x0, "L", 0x0, "K", 0x0, 0x0, 0x0 ; `string'

  00000			 AREA	 |.rdata|, DATA, READONLY
|??_C@_1BI@OEECMJPN@?$AAk?$AAC?$AAM?$AA_?$AAS?$AAY?$AAS?$AA_?$AAC?$AAL?$AAK?$AA?$AA@| DCB "k"
	DCB	0x0, "C", 0x0, "M", 0x0, "_", 0x0, "S", 0x0, "Y", 0x0, "S"
	DCB	0x0, "_", 0x0, "C", 0x0, "L", 0x0, "K", 0x0, 0x0, 0x0 ; `string'

  00000			 AREA	 |.rdata|, DATA, READONLY
|??_C@_1CE@IKHPAHF@?$AAk?$AAD?$AAP?$AAL?$AAL?$AA5?$AA_?$AAA?$AAL?$AAW?$AAO?$AAN?$AA_?$AAF?$AAC?$AAL?$AAK?$AA?$AA@| DCB "k"
	DCB	0x0, "D", 0x0, "P", 0x0, "L", 0x0, "L", 0x0, "5", 0x0, "_"
	DCB	0x0, "A", 0x0, "L", 0x0, "W", 0x0, "O", 0x0, "N", 0x0, "_"
	DCB	0x0, "F", 0x0, "C", 0x0, "L", 0x0, "K", 0x0, 0x0, 0x0 ; `string'

  00000			 AREA	 |.rdata|, DATA, READONLY
|??_C@_1CE@OPLKFGOC@?$AAk?$AAD?$AAP?$AAL?$AAL?$AA4?$AA_?$AAA?$AAL?$AAW?$AAO?$AAN?$AA_?$AAF?$AAC?$AAL?$AAK?$AA?$AA@| DCB "k"
	DCB	0x0, "D", 0x0, "P", 0x0, "L", 0x0, "L", 0x0, "4", 0x0, "_"
	DCB	0x0, "A", 0x0, "L", 0x0, "W", 0x0, "O", 0x0, "N", 0x0, "_"
	DCB	0x0, "F", 0x0, "C", 0x0, "L", 0x0, "K", 0x0, 0x0, 0x0 ; `string'

  00000			 AREA	 |.rdata|, DATA, READONLY
|??_C@_1CE@DHHJCNME@?$AAk?$AAD?$AAP?$AAL?$AAL?$AA3?$AA_?$AAA?$AAL?$AAW?$AAO?$AAN?$AA_?$AAF?$AAC?$AAL?$AAK?$AA?$AA@| DCB "k"
	DCB	0x0, "D", 0x0, "P", 0x0, "L", 0x0, "L", 0x0, "3", 0x0, "_"
	DCB	0x0, "A", 0x0, "L", 0x0, "W", 0x0, "O", 0x0, "N", 0x0, "_"
	DCB	0x0, "F", 0x0, "C", 0x0, "L", 0x0, "K", 0x0, 0x0, 0x0 ; `string'

  00000			 AREA	 |.rdata|, DATA, READONLY
|??_C@_1CE@NAGEILFD@?$AAk?$AAD?$AAP?$AAL?$AAL?$AA2?$AA_?$AAA?$AAL?$AAW?$AAO?$AAN?$AA_?$AAF?$AAC?$AAL?$AAK?$AA?$AA@| DCB "k"
	DCB	0x0, "D", 0x0, "P", 0x0, "L", 0x0, "L", 0x0, "2", 0x0, "_"
	DCB	0x0, "A", 0x0, "L", 0x0, "W", 0x0, "O", 0x0, "N", 0x0, "_"
	DCB	0x0, "F", 0x0, "C", 0x0, "L", 0x0, "K", 0x0, 0x0, 0x0 ; `string'

  00000			 AREA	 |.rdata|, DATA, READONLY
|??_C@_1CE@CCDDGGKL@?$AAk?$AAD?$AAP?$AAL?$AAL?$AA1?$AA_?$AAA?$AAL?$AAW?$AAO?$AAN?$AA_?$AAF?$AAC?$AAL?$AAK?$AA?$AA@| DCB "k"
	DCB	0x0, "D", 0x0, "P", 0x0, "L", 0x0, "L", 0x0, "1", 0x0, "_"
	DCB	0x0, "A", 0x0, "L", 0x0, "W", 0x0, "O", 0x0, "N", 0x0, "_"
	DCB	0x0, "F", 0x0, "C", 0x0, "L", 0x0, "K", 0x0, 0x0, 0x0 ; `string'

  00000			 AREA	 |.rdata|, DATA, READONLY
|??_C@_1BO@OFGDLBDE@?$AAk?$AAS?$AAR?$AA_?$AAA?$AAL?$AAW?$AAO?$AAN?$AA_?$AAF?$AAC?$AAL?$AAK?$AA?$AA@| DCB "k"
	DCB	0x0, "S", 0x0, "R", 0x0, "_", 0x0, "A", 0x0, "L", 0x0, "W"
	DCB	0x0, "O", 0x0, "N", 0x0, "_", 0x0, "F", 0x0, "C", 0x0, "L"
	DCB	0x0, "K", 0x0, 0x0, 0x0			; `string'

  00000			 AREA	 |.rdata|, DATA, READONLY
|??_C@_1CE@PPGNFPBP@?$AAk?$AAE?$AAF?$AAU?$AAS?$AAE?$AA_?$AAA?$AAL?$AAW?$AAO?$AAN?$AA_?$AAF?$AAC?$AAL?$AAK?$AA?$AA@| DCB "k"
	DCB	0x0, "E", 0x0, "F", 0x0, "U", 0x0, "S", 0x0, "E", 0x0, "_"
	DCB	0x0, "A", 0x0, "L", 0x0, "W", 0x0, "O", 0x0, "N", 0x0, "_"
	DCB	0x0, "F", 0x0, "C", 0x0, "L", 0x0, "K", 0x0, 0x0, 0x0 ; `string'

  00000			 AREA	 |.rdata|, DATA, READONLY
|??_C@_1CE@KHCGIPEA@?$AAk?$AAU?$AAS?$AAB?$AAH?$AAO?$AAS?$AAT?$AA_?$AAS?$AAA?$AAR?$AA_?$AAF?$AAC?$AAL?$AAK?$AA?$AA@| DCB "k"
	DCB	0x0, "U", 0x0, "S", 0x0, "B", 0x0, "H", 0x0, "O", 0x0, "S"
	DCB	0x0, "T", 0x0, "_", 0x0, "S", 0x0, "A", 0x0, "R", 0x0, "_"
	DCB	0x0, "F", 0x0, "C", 0x0, "L", 0x0, "K", 0x0, 0x0, 0x0 ; `string'

  00000			 AREA	 |.rdata|, DATA, READONLY
|??_C@_1CC@HCOAMGKK@?$AAk?$AAU?$AAS?$AAB?$AAT?$AAL?$AAL?$AA_?$AAS?$AAA?$AAR?$AA_?$AAF?$AAC?$AAL?$AAK?$AA?$AA@| DCB "k"
	DCB	0x0, "U", 0x0, "S", 0x0, "B", 0x0, "T", 0x0, "L", 0x0, "L"
	DCB	0x0, "_", 0x0, "S", 0x0, "A", 0x0, "R", 0x0, "_", 0x0, "F"
	DCB	0x0, "C", 0x0, "L", 0x0, "K", 0x0, 0x0, 0x0 ; `string'

  00000			 AREA	 |.rdata|, DATA, READONLY
|??_C@_1BI@CMEGODCK@?$AAk?$AAM?$AAC?$AAB?$AAS?$AAP?$AA_?$AAC?$AAL?$AAK?$AAS?$AA?$AA@| DCB "k"
	DCB	0x0, "M", 0x0, "C", 0x0, "B", 0x0, "S", 0x0, "P", 0x0, "_"
	DCB	0x0, "C", 0x0, "L", 0x0, "K", 0x0, "S", 0x0, 0x0, 0x0 ; `string'

  00000			 AREA	 |.rdata|, DATA, READONLY
|??_C@_1CC@EOBIKDKJ@?$AAk?$AAS?$AAE?$AAC?$AAU?$AAR?$AAE?$AA_?$AA3?$AA2?$AAK?$AA_?$AAF?$AAC?$AAL?$AAK?$AA?$AA@| DCB "k"
	DCB	0x0, "S", 0x0, "E", 0x0, "C", 0x0, "U", 0x0, "R", 0x0, "E"
	DCB	0x0, "_", 0x0, "3", 0x0, "2", 0x0, "K", 0x0, "_", 0x0, "F"
	DCB	0x0, "C", 0x0, "L", 0x0, "K", 0x0, 0x0, 0x0 ; `string'

  00000			 AREA	 |.rdata|, DATA, READONLY
|??_C@_1BI@ILMCMCCC@?$AAk?$AAS?$AAY?$AAS?$AA_?$AAA?$AAL?$AAT?$AAC?$AAL?$AAK?$AA?$AA@| DCB "k"
	DCB	0x0, "S", 0x0, "Y", 0x0, "S", 0x0, "_", 0x0, "A", 0x0, "L"
	DCB	0x0, "T", 0x0, "C", 0x0, "L", 0x0, "K", 0x0, 0x0, 0x0 ; `string'

  00000			 AREA	 |.rdata|, DATA, READONLY
|??_C@_1BC@HKFDEGNL@?$AAk?$AAS?$AAY?$AAS?$AA_?$AAC?$AAL?$AAK?$AA?$AA@| DCB "k"
	DCB	0x0, "S", 0x0, "Y", 0x0, "S", 0x0, "_", 0x0, "C", 0x0, "L"
	DCB	0x0, "K", 0x0, 0x0, 0x0			; `string'

  00000			 AREA	 |.rdata|, DATA, READONLY
|??_C@_1BE@ECNAPIHO@?$AAk?$AA3?$AA2?$AAK?$AA_?$AAF?$AAC?$AAL?$AAK?$AA?$AA@| DCB "k"
	DCB	0x0, "3", 0x0, "2", 0x0, "K", 0x0, "_", 0x0, "F", 0x0, "C"
	DCB	0x0, "L", 0x0, "K", 0x0, 0x0, 0x0	; `string'

  00000			 AREA	 |.rdata|, DATA, READONLY
|??_C@_1BG@DFNNJLGO@?$AAk?$AA1?$AA2?$AA0?$AAM?$AA_?$AAF?$AAC?$AAL?$AAK?$AA?$AA@| DCB "k"
	DCB	0x0, "1", 0x0, "2", 0x0, "0", 0x0, "M", 0x0, "_", 0x0, "F"
	DCB	0x0, "C", 0x0, "L", 0x0, "K", 0x0, 0x0, 0x0 ; `string'

  00000			 AREA	 |.rdata|, DATA, READONLY
|??_C@_1CK@BAAFIMCG@?$AAk?$AAE?$AAM?$AAU?$AAL?$AA_?$AAP?$AAE?$AAR?$AA_?$AAA?$AAL?$AAW?$AAO?$AAN?$AA_?$AAC?$AAL?$AAK?$AA?5?$AA?$AA@| DCB "k"
	DCB	0x0, "E", 0x0, "M", 0x0, "U", 0x0, "L", 0x0, "_", 0x0, "P"
	DCB	0x0, "E", 0x0, "R", 0x0, "_", 0x0, "A", 0x0, "L", 0x0, "W"
	DCB	0x0, "O", 0x0, "N", 0x0, "_", 0x0, "C", 0x0, "L", 0x0, "K"
	DCB	0x0, " ", 0x0, 0x0, 0x0			; `string'

  00000			 AREA	 |.rdata|, DATA, READONLY
|??_C@_1BE@HNDENLJM@?$AAk?$AAC?$AAA?$AAM?$AA_?$AAM?$AAC?$AAL?$AAK?$AA?$AA@| DCB "k"
	DCB	0x0, "C", 0x0, "A", 0x0, "M", 0x0, "_", 0x0, "M", 0x0, "C"
	DCB	0x0, "L", 0x0, "K", 0x0, 0x0, 0x0	; `string'

  00000			 AREA	 |.rdata|, DATA, READONLY
|??_C@_1CC@PPLCALCJ@?$AAk?$AAD?$AAS?$AAS?$AA1?$AA_?$AAA?$AAL?$AAW?$AAO?$AAN?$AA_?$AAF?$AAC?$AAL?$AAK?$AA?$AA@| DCB "k"
	DCB	0x0, "D", 0x0, "S", 0x0, "S", 0x0, "1", 0x0, "_", 0x0, "A"
	DCB	0x0, "L", 0x0, "W", 0x0, "O", 0x0, "N", 0x0, "_", 0x0, "F"
	DCB	0x0, "C", 0x0, "L", 0x0, "K", 0x0, 0x0, 0x0 ; `string'

  00000			 AREA	 |.rdata|, DATA, READONLY
|??_C@_1CA@EIKHJGPJ@?$AAk?$AAD?$AAP?$AAL?$AAL?$AA4?$AA_?$AAM?$AA3?$AAX?$AA2?$AA_?$AAC?$AAL?$AAK?$AA?$AA@| DCB "k"
	DCB	0x0, "D", 0x0, "P", 0x0, "L", 0x0, "L", 0x0, "4", 0x0, "_"
	DCB	0x0, "M", 0x0, "3", 0x0, "X", 0x0, "2", 0x0, "_", 0x0, "C"
	DCB	0x0, "L", 0x0, "K", 0x0, 0x0, 0x0	; `string'

  00000			 AREA	 |.rdata|, DATA, READONLY
|??_C@_1CG@DJDPLNE@?$AAk?$AAP?$AAR?$AAM?$AA_?$AA9?$AA6?$AAM?$AA_?$AAA?$AAL?$AAW?$AAO?$AAN?$AA_?$AAC?$AAL?$AAK?$AA?$AA@| DCB "k"
	DCB	0x0, "P", 0x0, "R", 0x0, "M", 0x0, "_", 0x0, "9", 0x0, "6"
	DCB	0x0, "M", 0x0, "_", 0x0, "A", 0x0, "L", 0x0, "W", 0x0, "O"
	DCB	0x0, "N", 0x0, "_", 0x0, "C", 0x0, "L", 0x0, "K", 0x0, 0x0
	DCB	0x0					; `string'

  00000			 AREA	 |.rdata|, DATA, READONLY
|??_C@_1CK@NDKHMFDM@?$AAk?$AAE?$AAM?$AAU?$AAL?$AA_?$AAC?$AAO?$AAR?$AAE?$AA_?$AAA?$AAL?$AAW?$AAO?$AAN?$AA_?$AAC?$AAL?$AAK?$AA?$AA@| DCB "k"
	DCB	0x0, "E", 0x0, "M", 0x0, "U", 0x0, "L", 0x0, "_", 0x0, "C"
	DCB	0x0, "O", 0x0, "R", 0x0, "E", 0x0, "_", 0x0, "A", 0x0, "L"
	DCB	0x0, "W", 0x0, "O", 0x0, "N", 0x0, "_", 0x0, "C", 0x0, "L"
	DCB	0x0, "K", 0x0, 0x0, 0x0			; `string'

  00000			 AREA	 |.rdata|, DATA, READONLY
|??_C@_1BK@CKNHOHLE@?$AAk?$AAC?$AAO?$AAR?$AAE?$AAX?$AA2?$AA_?$AAF?$AAC?$AAL?$AAK?$AA?$AA@| DCB "k"
	DCB	0x0, "C", 0x0, "O", 0x0, "R", 0x0, "E", 0x0, "X", 0x0, "2"
	DCB	0x0, "_", 0x0, "F", 0x0, "C", 0x0, "L", 0x0, "K", 0x0, 0x0
	DCB	0x0					; `string'

  00000			 AREA	 |.rdata|, DATA, READONLY
|??_C@_1BE@KIOEPBOF@?$AAk?$AAC?$AAO?$AAR?$AAE?$AA_?$AAC?$AAL?$AAK?$AA?$AA@| DCB "k"
	DCB	0x0, "C", 0x0, "O", 0x0, "R", 0x0, "E", 0x0, "_", 0x0, "C"
	DCB	0x0, "L", 0x0, "K", 0x0, 0x0, 0x0	; `string'

  00000			 AREA	 |.rdata|, DATA, READONLY
|??_C@_1BM@LAPEPOFC@?$AAk?$AAD?$AAP?$AAL?$AAL?$AA2?$AA_?$AAM?$AA2?$AA_?$AAC?$AAL?$AAK?$AA?$AA@| DCB "k"
	DCB	0x0, "D", 0x0, "P", 0x0, "L", 0x0, "L", 0x0, "2", 0x0, "_"
	DCB	0x0, "M", 0x0, "2", 0x0, "_", 0x0, "C", 0x0, "L", 0x0, "K"
	DCB	0x0, 0x0, 0x0				; `string'

  00000			 AREA	 |.rdata|, DATA, READONLY
|??_C@_1CA@KNEGPAKI@?$AAk?$AAD?$AAP?$AAL?$AAL?$AA1?$AA_?$AAM?$AA2?$AAX?$AA2?$AA_?$AAC?$AAL?$AAK?$AA?$AA@| DCB "k"
	DCB	0x0, "D", 0x0, "P", 0x0, "L", 0x0, "L", 0x0, "1", 0x0, "_"
	DCB	0x0, "M", 0x0, "2", 0x0, "X", 0x0, "2", 0x0, "_", 0x0, "C"
	DCB	0x0, "L", 0x0, "K", 0x0, 0x0, 0x0	; `string'

  00000			 AREA	 |.rdata|, DATA, READONLY
|??_C@_1BC@HPLLDAKE@?$AAk?$AAI?$AAN?$AAT?$AA_?$AAO?$AAS?$AAC?$AA?$AA@| DCB "k"
	DCB	0x0, "I", 0x0, "N", 0x0, "T", 0x0, "_", 0x0, "O", 0x0, "S"
	DCB	0x0, "C", 0x0, 0x0, 0x0			; `string'

  00000			 AREA	 |.rdata|, DATA, READONLY
|??_C@_1BE@CGAEBABM@?$AAk?$AAE?$AAX?$AAT?$AA_?$AAM?$AAI?$AAS?$AAC?$AA?$AA@| DCB "k"
	DCB	0x0, "E", 0x0, "X", 0x0, "T", 0x0, "_", 0x0, "M", 0x0, "I"
	DCB	0x0, "S", 0x0, "C", 0x0, 0x0, 0x0	; `string'

  00000			 AREA	 |.rdata|, DATA, READONLY
|??_C@_1BC@GMCNFJOM@?$AAk?$AAE?$AAX?$AAT?$AA_?$AAA?$AAL?$AAT?$AA?$AA@| DCB "k"
	DCB	0x0, "E", 0x0, "X", 0x0, "T", 0x0, "_", 0x0, "A", 0x0, "L"
	DCB	0x0, "T", 0x0, 0x0, 0x0			; `string'

  00000			 AREA	 |.rdata|, DATA, READONLY
|??_C@_1BK@KJEOLNHN@?$AAk?$AAE?$AAX?$AAT?$AA_?$AAS?$AAY?$AAS?$AA_?$AAC?$AAL?$AAK?$AA?$AA@| DCB "k"
	DCB	0x0, "E", 0x0, "X", 0x0, "T", 0x0, "_", 0x0, "S", 0x0, "Y"
	DCB	0x0, "S", 0x0, "_", 0x0, "C", 0x0, "L", 0x0, "K", 0x0, 0x0
	DCB	0x0					; `string'

  00000			 AREA	 |.rdata|, DATA, READONLY
|??_C@_1CC@LIKIOEDP@?$AAk?$AAD?$AAP?$AAL?$AAL?$AA5?$AA_?$AAC?$AAL?$AAK?$AAO?$AAU?$AAT?$AA_?$AAM?$AA2?$AA?$AA@| DCB "k"
	DCB	0x0, "D", 0x0, "P", 0x0, "L", 0x0, "L", 0x0, "5", 0x0, "_"
	DCB	0x0, "C", 0x0, "L", 0x0, "K", 0x0, "O", 0x0, "U", 0x0, "T"
	DCB	0x0, "_", 0x0, "M", 0x0, "2", 0x0, 0x0, 0x0 ; `string'

  00000			 AREA	 |.rdata|, DATA, READONLY
|??_C@_1CG@JKMHNEID@?$AAk?$AAD?$AAP?$AAL?$AAL?$AA4?$AA_?$AAC?$AAL?$AAK?$AAO?$AAU?$AAT?$AA_?$AAM?$AA6?$AAX?$AA2?$AA?$AA@| DCB "k"
	DCB	0x0, "D", 0x0, "P", 0x0, "L", 0x0, "L", 0x0, "4", 0x0, "_"
	DCB	0x0, "C", 0x0, "L", 0x0, "K", 0x0, "O", 0x0, "U", 0x0, "T"
	DCB	0x0, "_", 0x0, "M", 0x0, "6", 0x0, "X", 0x0, "2", 0x0, 0x0
	DCB	0x0					; `string'

  00000			 AREA	 |.rdata|, DATA, READONLY
|??_C@_1CG@BEEINDGA@?$AAk?$AAD?$AAP?$AAL?$AAL?$AA4?$AA_?$AAC?$AAL?$AAK?$AAO?$AAU?$AAT?$AA_?$AAM?$AA5?$AAX?$AA2?$AA?$AA@| DCB "k"
	DCB	0x0, "D", 0x0, "P", 0x0, "L", 0x0, "L", 0x0, "4", 0x0, "_"
	DCB	0x0, "C", 0x0, "L", 0x0, "K", 0x0, "O", 0x0, "U", 0x0, "T"
	DCB	0x0, "_", 0x0, "M", 0x0, "5", 0x0, "X", 0x0, "2", 0x0, 0x0
	DCB	0x0					; `string'

  00000			 AREA	 |.rdata|, DATA, READONLY
|??_C@_1CG@NIOCNDPO@?$AAk?$AAD?$AAP?$AAL?$AAL?$AA4?$AA_?$AAC?$AAL?$AAK?$AAO?$AAU?$AAT?$AA_?$AAM?$AA4?$AAX?$AA2?$AA?$AA@| DCB "k"
	DCB	0x0, "D", 0x0, "P", 0x0, "L", 0x0, "L", 0x0, "4", 0x0, "_"
	DCB	0x0, "C", 0x0, "L", 0x0, "K", 0x0, "O", 0x0, "U", 0x0, "T"
	DCB	0x0, "_", 0x0, "M", 0x0, "4", 0x0, "X", 0x0, "2", 0x0, 0x0
	DCB	0x0					; `string'

  00000			 AREA	 |.rdata|, DATA, READONLY
|??_C@_1CG@NCCHNKOH@?$AAk?$AAD?$AAP?$AAL?$AAL?$AA4?$AA_?$AAC?$AAL?$AAK?$AAO?$AAU?$AAT?$AA_?$AAM?$AA3?$AAX?$AA2?$AA?$AA@| DCB "k"
	DCB	0x0, "D", 0x0, "P", 0x0, "L", 0x0, "L", 0x0, "4", 0x0, "_"
	DCB	0x0, "C", 0x0, "L", 0x0, "K", 0x0, "O", 0x0, "U", 0x0, "T"
	DCB	0x0, "_", 0x0, "M", 0x0, "3", 0x0, "X", 0x0, "2", 0x0, 0x0
	DCB	0x0					; `string'

  00000			 AREA	 |.rdata|, DATA, READONLY
|??_C@_1CG@BOINNKHJ@?$AAk?$AAD?$AAP?$AAL?$AAL?$AA4?$AA_?$AAC?$AAL?$AAK?$AAO?$AAU?$AAT?$AA_?$AAM?$AA2?$AAX?$AA2?$AA?$AA@| DCB "k"
	DCB	0x0, "D", 0x0, "P", 0x0, "L", 0x0, "L", 0x0, "4", 0x0, "_"
	DCB	0x0, "C", 0x0, "L", 0x0, "K", 0x0, "O", 0x0, "U", 0x0, "T"
	DCB	0x0, "_", 0x0, "M", 0x0, "2", 0x0, "X", 0x0, "2", 0x0, 0x0
	DCB	0x0					; `string'

  00000			 AREA	 |.rdata|, DATA, READONLY
|??_C@_1CG@NGCOCJLE@?$AAk?$AAD?$AAP?$AAL?$AAL?$AA3?$AA_?$AAC?$AAL?$AAK?$AAO?$AAU?$AAT?$AA_?$AAM?$AA3?$AAX?$AA2?$AA?$AA@| DCB "k"
	DCB	0x0, "D", 0x0, "P", 0x0, "L", 0x0, "L", 0x0, "3", 0x0, "_"
	DCB	0x0, "C", 0x0, "L", 0x0, "K", 0x0, "O", 0x0, "U", 0x0, "T"
	DCB	0x0, "_", 0x0, "M", 0x0, "3", 0x0, "X", 0x0, "2", 0x0, 0x0
	DCB	0x0					; `string'

  00000			 AREA	 |.rdata|, DATA, READONLY
|??_C@_1CG@BKIECJCK@?$AAk?$AAD?$AAP?$AAL?$AAL?$AA3?$AA_?$AAC?$AAL?$AAK?$AAO?$AAU?$AAT?$AA_?$AAM?$AA2?$AAX?$AA2?$AA?$AA@| DCB "k"
	DCB	0x0, "D", 0x0, "P", 0x0, "L", 0x0, "L", 0x0, "3", 0x0, "_"
	DCB	0x0, "C", 0x0, "L", 0x0, "K", 0x0, "O", 0x0, "U", 0x0, "T"
	DCB	0x0, "_", 0x0, "M", 0x0, "2", 0x0, "X", 0x0, "2", 0x0, 0x0
	DCB	0x0					; `string'

  00000			 AREA	 |.rdata|, DATA, READONLY
|??_C@_1CC@IJFLGGP@?$AAk?$AAD?$AAP?$AAL?$AAL?$AA3?$AA_?$AAC?$AAL?$AAK?$AAO?$AAU?$AAT?$AA_?$AAM?$AA2?$AA?$AA@| DCB "k"
	DCB	0x0, "D", 0x0, "P", 0x0, "L", 0x0, "L", 0x0, "3", 0x0, "_"
	DCB	0x0, "C", 0x0, "L", 0x0, "K", 0x0, "O", 0x0, "U", 0x0, "T"
	DCB	0x0, "_", 0x0, "M", 0x0, "2", 0x0, 0x0, 0x0 ; `string'

  00000			 AREA	 |.rdata|, DATA, READONLY
|??_C@_1CC@IJLANDEI@?$AAk?$AAD?$AAP?$AAL?$AAL?$AA2?$AA_?$AAC?$AAL?$AAK?$AAO?$AAU?$AAT?$AA_?$AAM?$AA2?$AA?$AA@| DCB "k"
	DCB	0x0, "D", 0x0, "P", 0x0, "L", 0x0, "L", 0x0, "2", 0x0, "_"
	DCB	0x0, "C", 0x0, "L", 0x0, "K", 0x0, "O", 0x0, "U", 0x0, "T"
	DCB	0x0, "_", 0x0, "M", 0x0, "2", 0x0, 0x0, 0x0 ; `string'

  00000			 AREA	 |.rdata|, DATA, READONLY
|??_C@_1CG@BJOPNDBA@?$AAk?$AAD?$AAP?$AAL?$AAL?$AA1?$AA_?$AAC?$AAL?$AAK?$AAO?$AAU?$AAT?$AA_?$AAM?$AA2?$AAX?$AA2?$AA?$AA@| DCB "k"
	DCB	0x0, "D", 0x0, "P", 0x0, "L", 0x0, "L", 0x0, "1", 0x0, "_"
	DCB	0x0, "C", 0x0, "L", 0x0, "K", 0x0, "O", 0x0, "U", 0x0, "T"
	DCB	0x0, "_", 0x0, "M", 0x0, "2", 0x0, "X", 0x0, "2", 0x0, 0x0
	DCB	0x0					; `string'

  00000			 AREA	 |.rdata|, DATA, READONLY
|??_C@_1BG@FJDLHCCD@?$AAk?$AAE?$AAX?$AAT?$AA_?$AA3?$AA2?$AAK?$AAH?$AAZ?$AA?$AA@| DCB "k"
	DCB	0x0, "E", 0x0, "X", 0x0, "T", 0x0, "_", 0x0, "3", 0x0, "2"
	DCB	0x0, "K", 0x0, "H", 0x0, "Z", 0x0, 0x0, 0x0 ; `string'

  00000			 AREA	 |.rdata|, DATA, READONLY
|??_C@_1BE@EHNFPPJL@?$AAk?$AAD?$AAP?$AAL?$AAL?$AA_?$AAE?$AAX?$AAT?$AA?$AA@| DCB "k"
	DCB	0x0, "D", 0x0, "P", 0x0, "L", 0x0, "L", 0x0, "_", 0x0, "E"
	DCB	0x0, "X", 0x0, "T", 0x0, 0x0, 0x0	; `string'

  00000			 AREA	 |.rdata|, DATA, READONLY
|??_C@_1O@KGINCNBN@?$AAk?$AAD?$AAP?$AAL?$AAL?$AA5?$AA?$AA@| DCB "k", 0x0, "D"
	DCB	0x0, "P", 0x0, "L", 0x0, "L", 0x0, "5", 0x0, 0x0, 0x0 ; `string'

  00000			 AREA	 |.rdata|, DATA, READONLY
|??_C@_1O@BODBEKHI@?$AAk?$AAD?$AAP?$AAL?$AAL?$AA4?$AA?$AA@| DCB "k", 0x0, "D"
	DCB	0x0, "P", 0x0, "L", 0x0, "L", 0x0, "4", 0x0, 0x0, 0x0 ; `string'

  00000			 AREA	 |.rdata|, DATA, READONLY
|??_C@_1O@IDOGHCMB@?$AAk?$AAD?$AAP?$AAL?$AAL?$AA3?$AA?$AA@| DCB "k", 0x0, "D"
	DCB	0x0, "P", 0x0, "L", 0x0, "L", 0x0, "3", 0x0, 0x0, 0x0 ; `string'

  00000			 AREA	 |.rdata|, DATA, READONLY
|??_C@_1O@DLFKBFKE@?$AAk?$AAD?$AAP?$AAL?$AAL?$AA2?$AA?$AA@| DCB "k", 0x0, "D"
	DCB	0x0, "P", 0x0, "L", 0x0, "L", 0x0, "2", 0x0, 0x0, 0x0 ; `string'

  00000			 AREA	 |.rdata|, DATA, READONLY
|??_C@_1O@CJOPLKEK@?$AAk?$AAD?$AAP?$AAL?$AAL?$AA1?$AA?$AA@| DCB "k", 0x0, "D"
	DCB	0x0, "P", 0x0, "L", 0x0, "L", 0x0, "1", 0x0, 0x0, 0x0 ; `string'

  00000			 AREA	 |.rdata|, DATA, READONLY
|??_C@_1BE@KENFMBEG@?$AAk?$AAM?$AAM?$AAC?$AA_?$AAV?$AAD?$AAD?$AAS?$AA?$AA@| DCB "k"
	DCB	0x0, "M", 0x0, "M", 0x0, "C", 0x0, "_", 0x0, "V", 0x0, "D"
	DCB	0x0, "D", 0x0, "S", 0x0, 0x0, 0x0	; `string'

  00000			 AREA	 |.rdata|, DATA, READONLY
|??_C@_1BC@ODEKFAPK@?$AAk?$AAV?$AAD?$AAD?$AAA?$AAD?$AAA?$AAC?$AA?$AA@| DCB "k"
	DCB	0x0, "V", 0x0, "D", 0x0, "D", 0x0, "A", 0x0, "D", 0x0, "A"
	DCB	0x0, "C", 0x0, 0x0, 0x0			; `string'

  00000			 AREA	 |.rdata|, DATA, READONLY
|??_C@_1BA@PHFNGHLK@?$AAk?$AAV?$AAD?$AAD?$AAP?$AAL?$AAL?$AA?$AA@| DCB "k", 0x0
	DCB	"V", 0x0, "D", 0x0, "D", 0x0, "P", 0x0, "L", 0x0, "L", 0x0
	DCB	0x0, 0x0				; `string'

  00000			 AREA	 |.rdata|, DATA, READONLY
|??_C@_1M@IJEGCDLI@?$AAk?$AAV?$AAD?$AAD?$AAS?$AA?$AA@| DCB "k", 0x0, "V", 0x0
	DCB	"D", 0x0, "D", 0x0, "S", 0x0, 0x0, 0x0	; `string'

  00000			 AREA	 |.rdata|, DATA, READONLY
|??_C@_1BC@PPJANNEK@?$AAk?$AAV?$AAD?$AAD?$AA_?$AAE?$AAX?$AAT?$AA?$AA@| DCB "k"
	DCB	0x0, "V", 0x0, "D", 0x0, "D", 0x0, "_", 0x0, "E", 0x0, "X"
	DCB	0x0, "T", 0x0, 0x0, 0x0			; `string'

  00000			 AREA	 |.rdata|, DATA, READONLY
|??_C@_1M@JHALILGH@?$AAk?$AAV?$AAD?$AAD?$AA5?$AA?$AA@| DCB "k", 0x0, "V", 0x0
	DCB	"D", 0x0, "D", 0x0, "5", 0x0, 0x0, 0x0	; `string'

  00000			 AREA	 |.rdata|, DATA, READONLY
|??_C@_1M@CPLHOMAC@?$AAk?$AAV?$AAD?$AAD?$AA4?$AA?$AA@| DCB "k", 0x0, "V", 0x0
	DCB	"D", 0x0, "D", 0x0, "4", 0x0, 0x0, 0x0	; `string'

  00000			 AREA	 |.rdata|, DATA, READONLY
|??_C@_1M@LCGANELL@?$AAk?$AAV?$AAD?$AAD?$AA3?$AA?$AA@| DCB "k", 0x0, "V", 0x0
	DCB	"D", 0x0, "D", 0x0, "3", 0x0, 0x0, 0x0	; `string'

  00000			 AREA	 |.rdata|, DATA, READONLY
|??_C@_1M@KNMLDNO@?$AAk?$AAV?$AAD?$AAD?$AA2?$AA?$AA@| DCB "k", 0x0, "V", 0x0
	DCB	"D", 0x0, "D", 0x0, "2", 0x0, 0x0, 0x0	; `string'

  00000			 AREA	 |.rdata|, DATA, READONLY
|??_C@_1M@BIGJBMDA@?$AAk?$AAV?$AAD?$AAD?$AA1?$AA?$AA@| DCB "k", 0x0, "V", 0x0
	DCB	"D", 0x0, "D", 0x0, "1", 0x0, 0x0, 0x0	; `string'

  00000			 AREA	 |.data|, DATA
|_dpll_1| DCD	0x0
	DCD	0x0
	DCD	0x1
	DCD	0x0
	DCD	0x5
	DCD	0x1
	DCD	0x0
	DCD	0x0
	DCD	0x0
	DCD	0x1
|_dpll_2| DCD	0x0
	DCD	0x0
	DCD	0x1
	DCD	0x0
	DCD	0x1
	DCD	0x1
	DCD	0x0
	DCD	0x0
	DCD	0x0
	DCD	0x1
|_dpll_3| DCD	0x0
	DCD	0x0
	DCD	0x1
	DCD	0x0
	DCD	0x5
	DCD	0x1
	DCD	0x0
	DCD	0x0
	DCD	0x0
	DCD	0x1
|_dpll_4| DCD	0x0
	DCD	0x0
	DCD	0x1
	DCD	0x0
	DCD	0x1
	DCD	0x1
	DCD	0x0
	DCD	0x0
	DCD	0x0
	DCD	0x1
|_dpll_5| DCD	0x0
	DCD	0x0
	DCD	0x1
	DCD	0x0
	DCD	0x1
	DCD	0x1
	DCD	0x0
	DCD	0x0
	DCD	0x0
	DCD	0x1
|_ssr_fclk| DCD	0x1
	DCD	0x3
	DCD	0x1
|_dss1_fclk| DCD 0x1
	DCD	0x8
	DCD	0x10
|_usim_fclk| DCD 0x2
	DCD	0xb
	DCD	0x2
	DCD	0x43
	DCD	0x0
|_cm_usim_fclk| DCD 0x2
	DCD	0x45
	DCD	0x0
	DCD	0x9
	DCD	0x0
|_sgx_fclk| DCD	0x4
	DCD	0x2
	DCD	0x0
	DCD	0x20
	DCD	0x3
	DCD	0x5
	DCD	0x4
	DCD	0x3
	DCD	0x6
|_tv_fclk| DCD	0x2
	DCD	0x6
	DCD	0x10
	DCD	0xc
	DCD	0x0
|s_DpllTable| DCD 0x0
	DCD	0x0
	DCD	|_dpll_1|
	DCD	0x0
	DCD	0x0
	DCD	|_dpll_2|
	DCD	0x1
	DCD	0x0
	DCD	|_dpll_3|
	DCD	0x3
	DCD	0x0
	DCD	|_dpll_4|
	DCD	0x4
	DCD	0x0
	DCD	|_dpll_5|
	DCD	0x5
	DCD	0x0
	DCD	0x0
|s_DpllClkOutTable| DCD 0x5
	DCD	0x0
	DCD	0x0
	DCD	0x0
	DCD	0x1
	DCD	0x0
	DCD	0x2
	DCD	0x0
	DCD	0x2
	DCD	0x0
	DCD	0x2
	DCD	0x0
	DCD	0x3
	DCD	0x0
	DCD	0x3
	DCD	0x0
	DCD	0x3
	DCD	0x0
	DCD	0x3
	DCD	0x0
	DCD	0x3
	DCD	0x0
	DCD	0x4
	DCD	0x0
	DCD	0x5
	DCD	0x0
	DCD	0x5
	DCD	0x0
	DCD	0x5
	DCD	0x0
	%	8
|s_SrcClockTable| DCD 0x1
	DCD	0x0
	DCD	0x1
	DCD	0x0
	DCD	0x0
	DCD	0x2
	DCD	0x0
	DCD	0x1
	DCD	0x0
	DCD	0x1
	DCD	0x3
	DCD	0x0
	DCD	0x1
	DCD	0x0
	DCD	0x2
	DCD	0x4
	DCD	0x0
	DCD	0x1
	DCD	0x0
	DCD	0x3
	DCD	0x5
	DCD	0x0
	DCD	0x1
	DCD	0x0
	DCD	0x4
	DCD	0x6
	DCD	0x0
	DCD	0x1
	DCD	0x0
	DCD	0x5
	DCD	0x7
	DCD	0x0
	DCD	0x1
	DCD	0x0
	DCD	0x6
	DCD	0x8
	DCD	0x0
	DCD	0x1
	DCD	|_dss1_fclk|
	DCD	0x7
	DCD	0xa
	DCD	0x0
	DCD	0x1
	DCD	0x0
	DCD	0x8
	DCD	0xb
	DCD	0x0
	DCD	0x1
	DCD	0x0
	DCD	0x9
	DCD	0x0
	DCD	0x0
	DCD	0x1
	DCD	0x0
	DCD	0xa
	DCD	0xc
	DCD	0x0
	DCD	0x1
	DCD	0x0
	DCD	0xb
	DCD	0xd
	DCD	0x0
	DCD	0x1
	DCD	0x0
	DCD	0xc
	DCD	0xf
	DCD	0x0
	DCD	0x1
	DCD	0x0
	DCD	0xd
	DCD	0xe
	DCD	0x0
	DCD	0x1
	DCD	0x0
	DCD	0xe
	DCD	0xb
	DCD	0x0
	DCD	0x0
	DCD	0x0
	DCD	0xf
	DCD	0xb
	DCD	0x0
	DCD	0x0
	DCD	0x0
	DCD	0x10
	DCD	0xb
	DCD	0x0
	DCD	0x0
	DCD	0x0
	DCD	0x11
	DCD	0xb
	DCD	0x0
	DCD	0x0
	DCD	0x0
	DCD	0x12
	DCD	0xb
	DCD	0x0
	DCD	0x0
	DCD	0x0
	DCD	0x13
	DCD	0xb
	DCD	0x0
	DCD	0x0
	DCD	0x0
	DCD	0x14
	DCD	0xb
	DCD	0x0
	DCD	0x0
	DCD	0x0
	DCD	0x15
	DCD	0xb
	DCD	0x0
	DCD	0x0
	DCD	0x0
	DCD	0x16
	DCD	0xb
	DCD	0x0
	DCD	0x0
	DCD	0x0
	DCD	0x17
	DCD	0xb
	DCD	0x0
	DCD	0x0
	DCD	0x0
	DCD	0x18
	DCD	0xb
	DCD	0x0
	DCD	0x0
	DCD	0x0
	DCD	0x19
	DCD	0xb
	DCD	0x0
	DCD	0x0
	DCD	0x0
	DCD	0x1a
	DCD	0xa
	DCD	0x0
	DCD	0x0
	DCD	0x0
	DCD	0x1b
	DCD	0x1b
	DCD	0x0
	DCD	0x0
	DCD	0x0
	DCD	0x1c
	DCD	0xa
	DCD	0x0
	DCD	0x0
	DCD	0x0
	DCD	0x1d
	DCD	0xa
	DCD	0x0
	DCD	0x0
	DCD	0x0
	DCD	0x1e
	DCD	0x9
	DCD	0x0
	DCD	0x0
	DCD	0x0
	DCD	0x1f
	DCD	0x5
	DCD	0x0
	DCD	0x0
	DCD	0x0
	DCD	0x20
	DCD	0x5
	DCD	0x0
	DCD	0x0
	DCD	0x0
	DCD	0x21
	DCD	0x2
	DCD	0x0
	DCD	0x0
	DCD	0x0
	DCD	0x22
	DCD	0x22
	DCD	0x0
	DCD	0x0
	DCD	0x0
	DCD	0x23
	DCD	0x23
	DCD	0x0
	DCD	0x0
	DCD	0x0
	DCD	0x24
	DCD	0x23
	DCD	0x0
	DCD	0x0
	DCD	0x0
	DCD	0x25
	DCD	0x2
	DCD	0x0
	DCD	0x0
	DCD	0x0
	DCD	0x26
	DCD	0x2
	DCD	0x0
	DCD	0x0
	DCD	0x0
	DCD	0x27
	DCD	0x22
	DCD	0x0
	DCD	0x0
	DCD	0x0
	DCD	0x28
	DCD	0x23
	DCD	0x0
	DCD	0x0
	DCD	0x0
	DCD	0x29
	DCD	0x22
	DCD	0x0
	DCD	0x0
	DCD	0x0
	DCD	0x2a
	DCD	0x23
	DCD	0x0
	DCD	0x0
	DCD	0x0
	DCD	0x2b
	DCD	0x23
	DCD	0x0
	DCD	0x0
	DCD	0x0
	DCD	0x2c
	DCD	0x22
	DCD	0x0
	DCD	0x0
	DCD	0x0
	DCD	0x2d
	DCD	0x23
	DCD	0x0
	DCD	0x0
	DCD	0x0
	DCD	0x2e
	DCD	0x22
	DCD	0x0
	DCD	0x0
	DCD	0x0
	DCD	0x2f
	DCD	0x23
	DCD	0x0
	DCD	0x0
	DCD	0x0
	DCD	0x30
	DCD	0x22
	DCD	0x0
	DCD	0x0
	DCD	0x0
	DCD	0x31
	DCD	0x23
	DCD	0x0
	DCD	0x0
	DCD	0x0
	DCD	0x32
	DCD	0x22
	DCD	0x0
	DCD	0x0
	DCD	0x0
	DCD	0x33
	DCD	0x23
	DCD	0x0
	DCD	0x0
	DCD	0x0
	DCD	0x34
	DCD	0x23
	DCD	0x0
	DCD	0x0
	DCD	0x0
	DCD	0x35
	DCD	0x23
	DCD	0x0
	DCD	0x0
	DCD	0x0
	DCD	0x36
	DCD	0x3
	DCD	0x0
	DCD	0x0
	DCD	|_ssr_fclk|
	DCD	0x37
	DCD	0x3
	DCD	0x0
	DCD	0x0
	DCD	0x0
	DCD	0x38
	DCD	0x45
	DCD	0x0
	DCD	0x0
	DCD	0x0
	DCD	0x39
	DCD	0x45
	DCD	0x0
	DCD	0x0
	DCD	0x0
	DCD	0x3a
	DCD	0x45
	DCD	0x0
	DCD	0x0
	DCD	0x0
	DCD	0x3b
	DCD	0x46
	DCD	0x0
	DCD	0x0
	DCD	0x0
	DCD	0x3c
	DCD	0x46
	DCD	0x0
	DCD	0x0
	DCD	0x0
	DCD	0x3d
	DCD	0x46
	DCD	0x0
	DCD	0x0
	DCD	0x0
	DCD	0x3e
	DCD	0x46
	DCD	0x0
	DCD	0x0
	DCD	0x0
	DCD	0x3f
	DCD	0x3f
	DCD	0x0
	DCD	0x0
	DCD	0x0
	DCD	0x40
	DCD	0x47
	DCD	0x0
	DCD	0x0
	DCD	0x0
	DCD	0x41
	DCD	0x9
	DCD	0x0
	DCD	0x0
	DCD	0x0
	DCD	0x42
	DCD	0x20
	DCD	0x0
	DCD	0x0
	DCD	|_cm_usim_fclk|
	DCD	0x43
	DCD	0xb
	DCD	0x0
	DCD	0x0
	DCD	|_usim_fclk|
	DCD	0x44
	DCD	0x20
	DCD	0x0
	DCD	0x0
	DCD	0x0
	DCD	0x45
	DCD	0x20
	DCD	0x0
	DCD	0x0
	DCD	0x0
	DCD	0x46
	DCD	0x6
	DCD	0x0
	DCD	0x0
	DCD	|_tv_fclk|
	DCD	0x47
	DCD	0x2
	DCD	0x0
	DCD	0x0
	DCD	|_sgx_fclk|
	DCD	0x48
	DCD	0xa
	DCD	0x0
	DCD	0x0
	DCD	0x0
	DCD	0x49
	DCD	0xb
	DCD	0x0
	DCD	0x0
	DCD	0x0
	DCD	0x4a
	DCD	0xb
	DCD	0x0
	DCD	0x0
	DCD	0x0
	DCD	0x4b
	DCD	0xb
	DCD	0x0
	DCD	0x0
	DCD	0x0
	DCD	0x4c
	DCD	0xb
	DCD	0x0
	DCD	0x0
	DCD	0x0
	DCD	0x4d
	DCD	0xb
	DCD	0x0
	DCD	0x0
	DCD	0x0
	DCD	0x4e
	DCD	0xb
	DCD	0x0
	DCD	0x0
	DCD	0x0
	DCD	0x4f
	DCD	0xb
	DCD	0x0
	DCD	0x0
	DCD	0x0
	DCD	0x50
	DCD	0xb
	DCD	0x0
	DCD	0x0
	DCD	0x0
	DCD	0x51
	DCD	0x18
	DCD	0x0
	DCD	0x0
	DCD	0x0
	DCD	0x52
	DCD	0x18
	DCD	0x0
	DCD	0x0
	DCD	0x0
	DCD	0x53
	DCD	0x39
	DCD	0x0
	DCD	0x0
	DCD	0x0
	DCD	0x54
	DCD	0x21
	DCD	0x0
	DCD	0x0
	DCD	0x0
	DCD	0x55
	DCD	0x21
	DCD	0x0
	DCD	0x0
	DCD	0x0
	DCD	0x56
	DCD	0x21
	DCD	0x0
	DCD	0x0
	DCD	0x0
	DCD	0x57
	DCD	0x39
	DCD	0x0
	DCD	0x0
	DCD	0x0
	DCD	0x58
|?_usim_sysclk_map@?1??PrcmClockSetDivisor@@9@9| DCB 0xff ; `PrcmClockSetDivisor'::`2'::_usim_sysclk_map
	DCB	0x1
	DCB	0x2
	%	1
|?_sgx_core_clk@?1??PrcmClockSetDivisor@@9@9| DCB 0xff	; `PrcmClockSetDivisor'::`2'::_sgx_core_clk
	DCB	0xff
	DCB	0x5
	DCB	0x0
	DCB	0x1
	DCB	0xff
	DCB	0x2
	%	1
|?_sgx_96M_fclk@?1??PrcmClockSetDivisor@@9@9| DCB 0xff	; `PrcmClockSetDivisor'::`2'::_sgx_96M_fclk
	DCB	0x3
	%	2
|?_sgx_96M_192_alwon_clk@?1??PrcmClockSetDivisor@@9@9| DCB 0xff ; `PrcmClockSetDivisor'::`2'::_sgx_96M_192_alwon_clk
	DCB	0x4
	%	2
|?_sgx_corex2_fclk@?1??PrcmClockSetDivisor@@9@9| DCB 0xff ; `PrcmClockSetDivisor'::`2'::_sgx_corex2_fclk
	DCB	0xff
	DCB	0xff
	DCB	0x6
	DCB	0xff
	DCB	0x7
	%	2
|?_usim_96m_map@?1??PrcmClockSetDivisor@@9@9| DCB 0xff	; `PrcmClockSetDivisor'::`2'::_usim_96m_map
	DCB	0xff
	DCB	0x3
	DCB	0xff
	DCB	0x4
	DCB	0xff
	DCB	0xff
	DCB	0xff
	DCB	0x5
	DCB	0xff
	DCB	0x6
	%	1
|?_usim_120m_map@?1??PrcmClockSetDivisor@@9@9| DCB 0xff	; `PrcmClockSetDivisor'::`2'::_usim_120m_map
	DCB	0xff
	DCB	0xff
	DCB	0xff
	DCB	0x7
	DCB	0xff
	DCB	0xff
	DCB	0xff
	DCB	0x8
	DCB	0xff
	DCB	0xff
	DCB	0xff
	DCB	0xff
	DCB	0xff
	DCB	0xff
	DCB	0xff
	DCB	0x9
	DCB	0xff
	DCB	0xff
	DCB	0xff
	DCB	0xa
	%	3
|?_rgSysClkTbl@?1??PrcmClockGetSystemClockFrequency@@9@9| DCD 0x41400000 ; 12 ; `PrcmClockGetSystemClockFrequency'::`2'::_rgSysClkTbl
	DCD	0x41500000				; 13
	DCD	0x4199999a				; 19.2
	DCD	0x41d00000				; 26
	DCD	0x4219999a				; 38.4
	DCD	0x41866666				; 16.8
|s_VddNameTable| DCD |??_C@_1M@BIGJBMDA@?$AAk?$AAV?$AAD?$AAD?$AA1?$AA?$AA@|
	DCD	|??_C@_1M@KNMLDNO@?$AAk?$AAV?$AAD?$AAD?$AA2?$AA?$AA@|
	DCD	|??_C@_1M@LCGANELL@?$AAk?$AAV?$AAD?$AAD?$AA3?$AA?$AA@|
	DCD	|??_C@_1M@CPLHOMAC@?$AAk?$AAV?$AAD?$AAD?$AA4?$AA?$AA@|
	DCD	|??_C@_1M@JHALILGH@?$AAk?$AAV?$AAD?$AAD?$AA5?$AA?$AA@|
	DCD	|??_C@_1BC@PPJANNEK@?$AAk?$AAV?$AAD?$AAD?$AA_?$AAE?$AAX?$AAT?$AA?$AA@|
	DCD	|??_C@_1M@IJEGCDLI@?$AAk?$AAV?$AAD?$AAD?$AAS?$AA?$AA@|
	DCD	|??_C@_1BA@PHFNGHLK@?$AAk?$AAV?$AAD?$AAD?$AAP?$AAL?$AAL?$AA?$AA@|
	DCD	|??_C@_1BC@ODEKFAPK@?$AAk?$AAV?$AAD?$AAD?$AAA?$AAD?$AAA?$AAC?$AA?$AA@|
	DCD	|??_C@_1BE@KENFMBEG@?$AAk?$AAM?$AAM?$AAC?$AA_?$AAV?$AAD?$AAD?$AAS?$AA?$AA@|
|s_DpllNameTable| DCD |??_C@_1O@CJOPLKEK@?$AAk?$AAD?$AAP?$AAL?$AAL?$AA1?$AA?$AA@|
	DCD	|??_C@_1O@DLFKBFKE@?$AAk?$AAD?$AAP?$AAL?$AAL?$AA2?$AA?$AA@|
	DCD	|??_C@_1O@IDOGHCMB@?$AAk?$AAD?$AAP?$AAL?$AAL?$AA3?$AA?$AA@|
	DCD	|??_C@_1O@BODBEKHI@?$AAk?$AAD?$AAP?$AAL?$AAL?$AA4?$AA?$AA@|
	DCD	|??_C@_1O@KGINCNBN@?$AAk?$AAD?$AAP?$AAL?$AAL?$AA5?$AA?$AA@|
	DCD	|??_C@_1BE@EHNFPPJL@?$AAk?$AAD?$AAP?$AAL?$AAL?$AA_?$AAE?$AAX?$AAT?$AA?$AA@|
	%	4
|s_DpllClkOutNameTable| DCD |??_C@_1BG@FJDLHCCD@?$AAk?$AAE?$AAX?$AAT?$AA_?$AA3?$AA2?$AAK?$AAH?$AAZ?$AA?$AA@|
	DCD	|??_C@_1CG@BJOPNDBA@?$AAk?$AAD?$AAP?$AAL?$AAL?$AA1?$AA_?$AAC?$AAL?$AAK?$AAO?$AAU?$AAT?$AA_?$AAM?$AA2?$AAX?$AA2?$AA?$AA@|
	DCD	|??_C@_1CC@IJLANDEI@?$AAk?$AAD?$AAP?$AAL?$AAL?$AA2?$AA_?$AAC?$AAL?$AAK?$AAO?$AAU?$AAT?$AA_?$AAM?$AA2?$AA?$AA@|
	DCD	|??_C@_1CC@IJFLGGP@?$AAk?$AAD?$AAP?$AAL?$AAL?$AA3?$AA_?$AAC?$AAL?$AAK?$AAO?$AAU?$AAT?$AA_?$AAM?$AA2?$AA?$AA@|
	DCD	|??_C@_1CG@BKIECJCK@?$AAk?$AAD?$AAP?$AAL?$AAL?$AA3?$AA_?$AAC?$AAL?$AAK?$AAO?$AAU?$AAT?$AA_?$AAM?$AA2?$AAX?$AA2?$AA?$AA@|
	DCD	|??_C@_1CG@NGCOCJLE@?$AAk?$AAD?$AAP?$AAL?$AAL?$AA3?$AA_?$AAC?$AAL?$AAK?$AAO?$AAU?$AAT?$AA_?$AAM?$AA3?$AAX?$AA2?$AA?$AA@|
	DCD	|??_C@_1CG@BOINNKHJ@?$AAk?$AAD?$AAP?$AAL?$AAL?$AA4?$AA_?$AAC?$AAL?$AAK?$AAO?$AAU?$AAT?$AA_?$AAM?$AA2?$AAX?$AA2?$AA?$AA@|
	DCD	|??_C@_1CG@NCCHNKOH@?$AAk?$AAD?$AAP?$AAL?$AAL?$AA4?$AA_?$AAC?$AAL?$AAK?$AAO?$AAU?$AAT?$AA_?$AAM?$AA3?$AAX?$AA2?$AA?$AA@|
	DCD	|??_C@_1CG@NIOCNDPO@?$AAk?$AAD?$AAP?$AAL?$AAL?$AA4?$AA_?$AAC?$AAL?$AAK?$AAO?$AAU?$AAT?$AA_?$AAM?$AA4?$AAX?$AA2?$AA?$AA@|
	DCD	|??_C@_1CG@BEEINDGA@?$AAk?$AAD?$AAP?$AAL?$AAL?$AA4?$AA_?$AAC?$AAL?$AAK?$AAO?$AAU?$AAT?$AA_?$AAM?$AA5?$AAX?$AA2?$AA?$AA@|
	DCD	|??_C@_1CG@JKMHNEID@?$AAk?$AAD?$AAP?$AAL?$AAL?$AA4?$AA_?$AAC?$AAL?$AAK?$AAO?$AAU?$AAT?$AA_?$AAM?$AA6?$AAX?$AA2?$AA?$AA@|
	DCD	|??_C@_1CC@LIKIOEDP@?$AAk?$AAD?$AAP?$AAL?$AAL?$AA5?$AA_?$AAC?$AAL?$AAK?$AAO?$AAU?$AAT?$AA_?$AAM?$AA2?$AA?$AA@|
	DCD	|??_C@_1BK@KJEOLNHN@?$AAk?$AAE?$AAX?$AAT?$AA_?$AAS?$AAY?$AAS?$AA_?$AAC?$AAL?$AAK?$AA?$AA@|
	DCD	|??_C@_1BC@GMCNFJOM@?$AAk?$AAE?$AAX?$AAT?$AA_?$AAA?$AAL?$AAT?$AA?$AA@|
	DCD	|??_C@_1BE@CGAEBABM@?$AAk?$AAE?$AAX?$AAT?$AA_?$AAM?$AAI?$AAS?$AAC?$AA?$AA@|
	DCD	|??_C@_1BC@HPLLDAKE@?$AAk?$AAI?$AAN?$AAT?$AA_?$AAO?$AAS?$AAC?$AA?$AA@|
|s_SrcClockNameTable| DCD |??_C@_1CA@KNEGPAKI@?$AAk?$AAD?$AAP?$AAL?$AAL?$AA1?$AA_?$AAM?$AA2?$AAX?$AA2?$AA_?$AAC?$AAL?$AAK?$AA?$AA@|
	DCD	|??_C@_1BM@LAPEPOFC@?$AAk?$AAD?$AAP?$AAL?$AAL?$AA2?$AA_?$AAM?$AA2?$AA_?$AAC?$AAL?$AAK?$AA?$AA@|
	DCD	|??_C@_1BE@KIOEPBOF@?$AAk?$AAC?$AAO?$AAR?$AAE?$AA_?$AAC?$AAL?$AAK?$AA?$AA@|
	DCD	|??_C@_1BK@CKNHOHLE@?$AAk?$AAC?$AAO?$AAR?$AAE?$AAX?$AA2?$AA_?$AAF?$AAC?$AAL?$AAK?$AA?$AA@|
	DCD	|??_C@_1CK@NDKHMFDM@?$AAk?$AAE?$AAM?$AAU?$AAL?$AA_?$AAC?$AAO?$AAR?$AAE?$AA_?$AAA?$AAL?$AAW?$AAO?$AAN?$AA_?$AAC?$AAL?$AAK?$AA?$AA@|
	DCD	|??_C@_1CG@DJDPLNE@?$AAk?$AAP?$AAR?$AAM?$AA_?$AA9?$AA6?$AAM?$AA_?$AAA?$AAL?$AAW?$AAO?$AAN?$AA_?$AAC?$AAL?$AAK?$AA?$AA@|
	DCD	|??_C@_1CA@EIKHJGPJ@?$AAk?$AAD?$AAP?$AAL?$AAL?$AA4?$AA_?$AAM?$AA3?$AAX?$AA2?$AA_?$AAC?$AAL?$AAK?$AA?$AA@|
	DCD	|??_C@_1CC@PPLCALCJ@?$AAk?$AAD?$AAS?$AAS?$AA1?$AA_?$AAA?$AAL?$AAW?$AAO?$AAN?$AA_?$AAF?$AAC?$AAL?$AAK?$AA?$AA@|
	DCD	|??_C@_1BE@HNDENLJM@?$AAk?$AAC?$AAA?$AAM?$AA_?$AAM?$AAC?$AAL?$AAK?$AA?$AA@|
	DCD	|??_C@_1CK@BAAFIMCG@?$AAk?$AAE?$AAM?$AAU?$AAL?$AA_?$AAP?$AAE?$AAR?$AA_?$AAA?$AAL?$AAW?$AAO?$AAN?$AA_?$AAC?$AAL?$AAK?$AA?5?$AA?$AA@|
	DCD	|??_C@_1BG@DFNNJLGO@?$AAk?$AA1?$AA2?$AA0?$AAM?$AA_?$AAF?$AAC?$AAL?$AAK?$AA?$AA@|
	DCD	|??_C@_1BE@ECNAPIHO@?$AAk?$AA3?$AA2?$AAK?$AA_?$AAF?$AAC?$AAL?$AAK?$AA?$AA@|
	DCD	|??_C@_1BC@HKFDEGNL@?$AAk?$AAS?$AAY?$AAS?$AA_?$AAC?$AAL?$AAK?$AA?$AA@|
	DCD	|??_C@_1BI@ILMCMCCC@?$AAk?$AAS?$AAY?$AAS?$AA_?$AAA?$AAL?$AAT?$AAC?$AAL?$AAK?$AA?$AA@|
	DCD	|??_C@_1CC@EOBIKDKJ@?$AAk?$AAS?$AAE?$AAC?$AAU?$AAR?$AAE?$AA_?$AA3?$AA2?$AAK?$AA_?$AAF?$AAC?$AAL?$AAK?$AA?$AA@|
	DCD	|??_C@_1BI@CMEGODCK@?$AAk?$AAM?$AAC?$AAB?$AAS?$AAP?$AA_?$AAC?$AAL?$AAK?$AAS?$AA?$AA@|
	DCD	|??_C@_1CC@HCOAMGKK@?$AAk?$AAU?$AAS?$AAB?$AAT?$AAL?$AAL?$AA_?$AAS?$AAA?$AAR?$AA_?$AAF?$AAC?$AAL?$AAK?$AA?$AA@|
	DCD	|??_C@_1CE@KHCGIPEA@?$AAk?$AAU?$AAS?$AAB?$AAH?$AAO?$AAS?$AAT?$AA_?$AAS?$AAA?$AAR?$AA_?$AAF?$AAC?$AAL?$AAK?$AA?$AA@|
	DCD	|??_C@_1CE@PPGNFPBP@?$AAk?$AAE?$AAF?$AAU?$AAS?$AAE?$AA_?$AAA?$AAL?$AAW?$AAO?$AAN?$AA_?$AAF?$AAC?$AAL?$AAK?$AA?$AA@|
	DCD	|??_C@_1BO@OFGDLBDE@?$AAk?$AAS?$AAR?$AA_?$AAA?$AAL?$AAW?$AAO?$AAN?$AA_?$AAF?$AAC?$AAL?$AAK?$AA?$AA@|
	DCD	|??_C@_1CE@CCDDGGKL@?$AAk?$AAD?$AAP?$AAL?$AAL?$AA1?$AA_?$AAA?$AAL?$AAW?$AAO?$AAN?$AA_?$AAF?$AAC?$AAL?$AAK?$AA?$AA@|
	DCD	|??_C@_1CE@NAGEILFD@?$AAk?$AAD?$AAP?$AAL?$AAL?$AA2?$AA_?$AAA?$AAL?$AAW?$AAO?$AAN?$AA_?$AAF?$AAC?$AAL?$AAK?$AA?$AA@|
	DCD	|??_C@_1CE@DHHJCNME@?$AAk?$AAD?$AAP?$AAL?$AAL?$AA3?$AA_?$AAA?$AAL?$AAW?$AAO?$AAN?$AA_?$AAF?$AAC?$AAL?$AAK?$AA?$AA@|
	DCD	|??_C@_1CE@OPLKFGOC@?$AAk?$AAD?$AAP?$AAL?$AAL?$AA4?$AA_?$AAA?$AAL?$AAW?$AAO?$AAN?$AA_?$AAF?$AAC?$AAL?$AAK?$AA?$AA@|
	DCD	|??_C@_1CE@IKHPAHF@?$AAk?$AAD?$AAP?$AAL?$AAL?$AA5?$AA_?$AAA?$AAL?$AAW?$AAO?$AAN?$AA_?$AAF?$AAC?$AAL?$AAK?$AA?$AA@|
	DCD	|??_C@_1BI@OEECMJPN@?$AAk?$AAC?$AAM?$AA_?$AAS?$AAY?$AAS?$AA_?$AAC?$AAL?$AAK?$AA?$AA@|
	DCD	|??_C@_1CC@NOFOGNB@?$AAk?$AAD?$AAS?$AAS?$AA2?$AA_?$AAA?$AAL?$AAW?$AAO?$AAN?$AA_?$AAF?$AAC?$AAL?$AAK?$AA?$AA@|
	DCD	|??_C@_1BM@CKBOGBKN@?$AAk?$AAW?$AAK?$AAU?$AAP?$AA_?$AAL?$AA4?$AA_?$AAI?$AAC?$AAL?$AAK?$AA?$AA@|
	DCD	|??_C@_1BI@BEPCGLLM@?$AAk?$AAC?$AAM?$AA_?$AA3?$AA2?$AAK?$AA_?$AAC?$AAL?$AAK?$AA?$AA@|
	DCD	|??_C@_1BO@FLMCBEDL@?$AAk?$AAC?$AAO?$AAR?$AAE?$AA_?$AA3?$AA2?$AAK?$AA_?$AAF?$AAC?$AAL?$AAK?$AA?$AA@|
	DCD	|??_C@_1BO@LPLICNLH@?$AAk?$AAW?$AAK?$AAU?$AAP?$AA_?$AA3?$AA2?$AAK?$AA_?$AAF?$AAC?$AAL?$AAK?$AA?$AA@|
	DCD	|??_C@_1CI@EADHIPEB@?$AAk?$AAP?$AAE?$AAR?$AA_?$AA3?$AA2?$AAK?$AA_?$AAA?$AAL?$AAW?$AAO?$AAN?$AA_?$AAF?$AAC?$AAL?$AAK?$AA?$AA@|
	DCD	|??_C@_1CA@BBGPJHGP@?$AAk?$AAC?$AAO?$AAR?$AAE?$AA_?$AA1?$AA2?$AA0?$AAM?$AA_?$AAF?$AAC?$AAL?$AAK?$AA?$AA@|
	DCD	|??_C@_1BK@MCHPLJEE@?$AAk?$AAC?$AAM?$AA_?$AA9?$AA6?$AAM?$AA_?$AAF?$AAC?$AAL?$AAK?$AA?$AA@|
	DCD	|??_C@_1CA@PCEHGMIB@?$AAk?$AA9?$AA6?$AAM?$AA_?$AAA?$AAL?$AAW?$AAO?$AAN?$AA_?$AAF?$AAC?$AAL?$AAK?$AA?$AA@|
	DCD	|??_C@_1BC@GDMOPGOD@?$AAk?$AAL?$AA3?$AA_?$AAI?$AAC?$AAL?$AAK?$AA?$AA@|
	DCD	|??_C@_1BC@GADFMCD@?$AAk?$AAL?$AA4?$AA_?$AAI?$AAC?$AAL?$AAK?$AA?$AA@|
	DCD	|??_C@_1BK@EOKLGFAI@?$AAk?$AAU?$AAS?$AAB?$AA_?$AAL?$AA4?$AA_?$AAI?$AAC?$AAL?$AAK?$AA?$AA@|
	DCD	|??_C@_1BC@IEJPNIBD@?$AAk?$AAR?$AAM?$AA_?$AAI?$AAC?$AAL?$AAK?$AA?$AA@|
	DCD	|??_C@_1BI@BKNBPEFH@?$AAk?$AAD?$AAP?$AAL?$AAL?$AA1?$AA_?$AAF?$AAC?$AAL?$AAK?$AA?$AA@|
	DCD	|??_C@_1BI@GGLANBIM@?$AAk?$AAD?$AAP?$AAL?$AAL?$AA2?$AA_?$AAF?$AAC?$AAL?$AAK?$AA?$AA@|
	DCD	|??_C@_1BM@IIGNNOO@?$AAk?$AAC?$AAO?$AAR?$AAE?$AA_?$AAL?$AA3?$AA_?$AAI?$AAC?$AAL?$AAK?$AA?$AA@|
	DCD	|??_C@_1BM@GNELHHCO@?$AAk?$AAC?$AAO?$AAR?$AAE?$AA_?$AAL?$AA4?$AA_?$AAI?$AAC?$AAL?$AAK?$AA?$AA@|
	DCD	|??_C@_1CE@DCCJJJCO@?$AAk?$AAS?$AAE?$AAC?$AAU?$AAR?$AAI?$AAT?$AAY?$AA_?$AAL?$AA3?$AA_?$AAI?$AAC?$AAL?$AAK?$AA?$AA@|
	DCD	|??_C@_1CG@DHLKHHFE@?$AAk?$AAS?$AAE?$AAC?$AAU?$AAR?$AAI?$AAT?$AAY?$AA_?$AAL?$AA4?$AA_?$AAI?$AAC?$AAL?$AAK?$AA1?$AA?$AA@|
	DCD	|??_C@_1CG@CFAPNILK@?$AAk?$AAS?$AAE?$AAC?$AAU?$AAR?$AAI?$AAT?$AAY?$AA_?$AAL?$AA4?$AA_?$AAI?$AAC?$AAL?$AAK?$AA2?$AA?$AA@|
	DCD	|??_C@_1BK@NJNOEPMC@?$AAk?$AAS?$AAG?$AAX?$AA_?$AAL?$AA3?$AA_?$AAI?$AAC?$AAL?$AAK?$AA?$AA@|
	DCD	|??_C@_1BK@MMOEKMCA@?$AAk?$AAS?$AAS?$AAI?$AA_?$AAL?$AA4?$AA_?$AAI?$AAC?$AAL?$AAK?$AA?$AA@|
	DCD	|??_C@_1BK@FAIJEFLB@?$AAk?$AAD?$AAS?$AAS?$AA_?$AAL?$AA3?$AA_?$AAI?$AAC?$AAL?$AAK?$AA?$AA@|
	DCD	|??_C@_1BK@DFEEOPHB@?$AAk?$AAD?$AAS?$AAS?$AA_?$AAL?$AA4?$AA_?$AAI?$AAC?$AAL?$AAK?$AA?$AA@|
	DCD	|??_C@_1BK@BPAIBBEF@?$AAk?$AAC?$AAA?$AAM?$AA_?$AAL?$AA3?$AA_?$AAI?$AAC?$AAL?$AAK?$AA?$AA@|
	DCD	|??_C@_1BK@HKMFLLIF@?$AAk?$AAC?$AAA?$AAM?$AA_?$AAL?$AA4?$AA_?$AAI?$AAC?$AAL?$AAK?$AA?$AA@|
	DCD	|??_C@_1CC@ENGEEIGA@?$AAk?$AAU?$AAS?$AAB?$AAH?$AAO?$AAS?$AAT?$AA_?$AAL?$AA3?$AA_?$AAI?$AAC?$AAL?$AAK?$AA?$AA@|
	DCD	|??_C@_1CC@CIKJOCKA@?$AAk?$AAU?$AAS?$AAB?$AAH?$AAO?$AAS?$AAT?$AA_?$AAL?$AA4?$AA_?$AAI?$AAC?$AAL?$AAK?$AA?$AA@|
	DCD	|??_C@_1BK@JNEICFJE@?$AAk?$AAP?$AAE?$AAR?$AA_?$AAL?$AA4?$AA_?$AAI?$AAC?$AAL?$AAK?$AA?$AA@|
	DCD	|??_C@_1BI@KNLMECEA@?$AAk?$AAS?$AAR?$AA_?$AAL?$AA4?$AA_?$AAI?$AAC?$AAL?$AAK?$AA?$AA@|
	DCD	|??_C@_1BM@GMEGIECM@?$AAk?$AAS?$AAS?$AAI?$AA_?$AAS?$AAS?$AAR?$AA_?$AAF?$AAC?$AAL?$AAK?$AA?$AA@|
	DCD	|??_C@_1BM@JEIEMPJK@?$AAk?$AAS?$AAS?$AAI?$AA_?$AAS?$AAS?$AAT?$AA_?$AAF?$AAC?$AAL?$AAK?$AA?$AA@|
	DCD	|??_C@_1BO@GFLENGIF@?$AAk?$AAC?$AAO?$AAR?$AAE?$AA_?$AA9?$AA6?$AAM?$AA_?$AAF?$AAC?$AAL?$AAK?$AA?$AA@|
	DCD	|??_C@_1BM@KGEDNEGH@?$AAk?$AAD?$AAS?$AAS?$AA_?$AA9?$AA6?$AAM?$AA_?$AAF?$AAC?$AAL?$AAK?$AA?$AA@|
	DCD	|??_C@_1BO@MLNMBJDB@?$AAk?$AAC?$AAS?$AAI?$AA2?$AA_?$AA9?$AA6?$AAM?$AA_?$AAF?$AAC?$AAL?$AAK?$AA?$AA@|
	DCD	|??_C@_1BO@LGJNOPMF@?$AAk?$AAC?$AAO?$AAR?$AAE?$AA_?$AA4?$AA8?$AAM?$AA_?$AAF?$AAC?$AAL?$AAK?$AA?$AA@|
	DCD	|??_C@_1CE@JDPIHICJ@?$AAk?$AAU?$AAS?$AAB?$AAH?$AAO?$AAS?$AAT?$AA_?$AA4?$AA8?$AAM?$AA_?$AAF?$AAC?$AAL?$AAK?$AA?$AA@|
	DCD	|??_C@_1BM@CNNCGJCM@?$AAk?$AAP?$AAE?$AAR?$AA_?$AA4?$AA8?$AAM?$AA_?$AAF?$AAC?$AAL?$AAK?$AA?$AA@|
	DCD	|??_C@_1BE@LPMGNIEL@?$AAk?$AA1?$AA2?$AAM?$AA_?$AAF?$AAC?$AAL?$AAK?$AA?$AA@|
	DCD	|??_C@_1BO@KGNEDEAO@?$AAk?$AAC?$AAO?$AAR?$AAE?$AA_?$AA1?$AA2?$AAM?$AA_?$AAF?$AAC?$AAL?$AAK?$AA?$AA@|
	DCD	|??_C@_1BK@DMMIFOKJ@?$AAk?$AAD?$AAS?$AAS?$AA_?$AAT?$AAV?$AA_?$AAF?$AAC?$AAL?$AAK?$AA?$AA@|
	DCD	|??_C@_1CG@INMPAIAN@?$AAk?$AAU?$AAS?$AAB?$AAH?$AAO?$AAS?$AAT?$AA_?$AA1?$AA2?$AA0?$AAM?$AA_?$AAF?$AAC?$AAL?$AAK?$AA?$AA@|
	DCD	|??_C@_1BK@FIGBAONF@?$AAk?$AAC?$AAM?$AA_?$AAU?$AAS?$AAI?$AAM?$AA_?$AAC?$AAL?$AAK?$AA?$AA@|
	DCD	|??_C@_1BG@FOLAEDFM@?$AAk?$AAU?$AAS?$AAI?$AAM?$AA_?$AAF?$AAC?$AAL?$AAK?$AA?$AA@|
	DCD	|??_C@_1BE@HMKGDKMA@?$AAk?$AA9?$AA6?$AAM?$AA_?$AAF?$AAC?$AAL?$AAK?$AA?$AA@|
	DCD	|??_C@_1BE@KPIPADIA@?$AAk?$AA4?$AA8?$AAM?$AA_?$AAF?$AAC?$AAL?$AAK?$AA?$AA@|
	DCD	|??_C@_1BE@OHPPGGKJ@?$AAk?$AA5?$AA4?$AAM?$AA_?$AAF?$AAC?$AAL?$AAK?$AA?$AA@|
	DCD	|??_C@_1BE@BKPHEHJG@?$AAk?$AAS?$AAG?$AAX?$AA_?$AAF?$AAC?$AAL?$AAK?$AA?$AA@|
	DCD	|??_C@_1BG@LBMJBNDI@?$AAk?$AAG?$AAP?$AAT?$AA1?$AA_?$AAF?$AAC?$AAL?$AAK?$AA?$AA@|
	DCD	|??_C@_1CC@IEFCDICF@?$AAk?$AAG?$AAP?$AAT?$AA2?$AA_?$AAA?$AAL?$AAW?$AAO?$AAN?$AA_?$AAF?$AAC?$AAL?$AAK?$AA?$AA@|
	DCD	|??_C@_1CC@GDEPJOLC@?$AAk?$AAG?$AAP?$AAT?$AA3?$AA_?$AAA?$AAL?$AAW?$AAO?$AAN?$AA_?$AAF?$AAC?$AAL?$AAK?$AA?$AA@|
	DCD	|??_C@_1CC@LLIMOFJE@?$AAk?$AAG?$AAP?$AAT?$AA4?$AA_?$AAA?$AAL?$AAW?$AAO?$AAN?$AA_?$AAF?$AAC?$AAL?$AAK?$AA?$AA@|
	DCD	|??_C@_1CC@FMJBEDAD@?$AAk?$AAG?$AAP?$AAT?$AA5?$AA_?$AAA?$AAL?$AAW?$AAO?$AAN?$AA_?$AAF?$AAC?$AAL?$AAK?$AA?$AA@|
	DCD	|??_C@_1CC@KOMGKOPL@?$AAk?$AAG?$AAP?$AAT?$AA6?$AA_?$AAA?$AAL?$AAW?$AAO?$AAN?$AA_?$AAF?$AAC?$AAL?$AAK?$AA?$AA@|
	DCD	|??_C@_1CC@EJNLAIGM@?$AAk?$AAG?$AAP?$AAT?$AA7?$AA_?$AAA?$AAL?$AAW?$AAO?$AAN?$AA_?$AAF?$AAC?$AAL?$AAK?$AA?$AA@|
	DCD	|??_C@_1CC@MEDBFOPG@?$AAk?$AAG?$AAP?$AAT?$AA8?$AA_?$AAA?$AAL?$AAW?$AAO?$AAN?$AA_?$AAF?$AAC?$AAL?$AAK?$AA?$AA@|
	DCD	|??_C@_1CC@CDCMPIGB@?$AAk?$AAG?$AAP?$AAT?$AA9?$AA_?$AAA?$AAL?$AAW?$AAO?$AAN?$AA_?$AAF?$AAC?$AAL?$AAK?$AA?$AA@|
	DCD	|??_C@_1BI@FBHILLDF@?$AAk?$AAG?$AAP?$AAT?$AA1?$AA0?$AA_?$AAF?$AAC?$AAL?$AAK?$AA?$AA@|
	DCD	|??_C@_1BI@MMHHFKED@?$AAk?$AAG?$AAP?$AAT?$AA1?$AA1?$AA_?$AAF?$AAC?$AAL?$AAK?$AA?$AA@|
	%	4
|DeviceNames| DCD |??_C@_1CC@OJKGELFG@?$AAO?$AAM?$AAA?$AAP?$AA_?$AAD?$AAE?$AAV?$AAI?$AAC?$AAE?$AA_?$AAS?$AAD?$AAR?$AAC?$AA?$AA@|
	DCD	|??_C@_1CC@LKJOOBJM@?$AAO?$AAM?$AAA?$AAP?$AA_?$AAD?$AAE?$AAV?$AAI?$AAC?$AAE?$AA_?$AAI?$AAP?$AAS?$AAS?$AA?$AA@|
	DCD	|??_C@_1CI@GBGOEEEM@?$AAO?$AAM?$AAA?$AAP?$AA_?$AAD?$AAE?$AAV?$AAI?$AAC?$AAE?$AA_?$AAS?$AAC?$AAM?$AAC?$AAT?$AAR?$AAL?$AA?$AA@|
	DCD	|??_C@_1CG@HFJPNEHP@?$AAO?$AAM?$AAA?$AAP?$AA_?$AAD?$AAE?$AAV?$AAI?$AAC?$AAE?$AA_?$AAM?$AAC?$AAB?$AAS?$AAP?$AA1?$AA?$AA@|
	DCD	|??_C@_1CG@PKPNEDCI@?$AAO?$AAM?$AAA?$AAP?$AA_?$AAD?$AAE?$AAV?$AAI?$AAC?$AAE?$AA_?$AAM?$AAC?$AAB?$AAS?$AAP?$AA5?$AA?$AA@|
	DCD	|??_C@_1CM@OGAALMOP@?$AAO?$AAM?$AAA?$AAP?$AA_?$AAD?$AAE?$AAV?$AAI?$AAC?$AAE?$AA_?$AAG?$AAP?$AAT?$AAI?$AAM?$AAE?$AAR?$AA1?$AA0?$AA?$AA@|
	DCD	|??_C@_1CM@FOLMNLIK@?$AAO?$AAM?$AAA?$AAP?$AA_?$AAD?$AAE?$AAV?$AAI?$AAC?$AAE?$AA_?$AAG?$AAP?$AAT?$AAI?$AAM?$AAE?$AAR?$AA1?$AA1?$AA?$AA@|
	DCD	|??_C@_1CE@FCLPEICP@?$AAO?$AAM?$AAA?$AAP?$AA_?$AAD?$AAE?$AAV?$AAI?$AAC?$AAE?$AA_?$AAU?$AAA?$AAR?$AAT?$AA1?$AA?$AA@|
	DCD	|??_C@_1CE@EAAKOHMB@?$AAO?$AAM?$AAA?$AAP?$AA_?$AAD?$AAE?$AAV?$AAI?$AAC?$AAE?$AA_?$AAU?$AAA?$AAR?$AAT?$AA2?$AA?$AA@|
	DCD	|??_C@_1CC@LKKJHLEJ@?$AAO?$AAM?$AAA?$AAP?$AA_?$AAD?$AAE?$AAV?$AAI?$AAC?$AAE?$AA_?$AAI?$AA2?$AAC?$AA1?$AA?$AA@|
	DCD	|??_C@_1CC@KIBMNEKH@?$AAO?$AAM?$AAA?$AAP?$AA_?$AAD?$AAE?$AAV?$AAI?$AAC?$AAE?$AA_?$AAI?$AA2?$AAC?$AA2?$AA?$AA@|
	DCD	|??_C@_1CC@BAKALDMC@?$AAO?$AAM?$AAA?$AAP?$AA_?$AAD?$AAE?$AAV?$AAI?$AAC?$AAE?$AA_?$AAI?$AA2?$AAC?$AA3?$AA?$AA@|
	DCD	|??_C@_1CG@BHKFGKBJ@?$AAO?$AAM?$AAA?$AAP?$AA_?$AAD?$AAE?$AAV?$AAI?$AAC?$AAE?$AA_?$AAM?$AAC?$AAS?$AAP?$AAI?$AA1?$AA?$AA@|
	DCD	|??_C@_1CG@FBAMFPH@?$AAO?$AAM?$AAA?$AAP?$AA_?$AAD?$AAE?$AAV?$AAI?$AAC?$AAE?$AA_?$AAM?$AAC?$AAS?$AAP?$AAI?$AA2?$AA?$AA@|
	DCD	|??_C@_1CG@LNKMKCJC@?$AAO?$AAM?$AAA?$AAP?$AA_?$AAD?$AAE?$AAV?$AAI?$AAC?$AAE?$AA_?$AAM?$AAC?$AAS?$AAP?$AAI?$AA3?$AA?$AA@|
	DCD	|??_C@_1CG@CAHLJKCL@?$AAO?$AAM?$AAA?$AAP?$AA_?$AAD?$AAE?$AAV?$AAI?$AAC?$AAE?$AA_?$AAM?$AAC?$AAS?$AAP?$AAI?$AA4?$AA?$AA@|
	DCD	|??_C@_1CA@LMGICGON@?$AAO?$AAM?$AAA?$AAP?$AA_?$AAD?$AAE?$AAV?$AAI?$AAC?$AAE?$AA_?$AAH?$AAD?$AAQ?$AA?$AA@|
	DCD	|??_C@_1CC@MGDCFIAP@?$AAO?$AAM?$AAA?$AAP?$AA_?$AAD?$AAE?$AAV?$AAI?$AAC?$AAE?$AA_?$AAM?$AAM?$AAC?$AA1?$AA?$AA@|
	DCD	|??_C@_1CC@NEIHPHOB@?$AAO?$AAM?$AAA?$AAP?$AA_?$AAD?$AAE?$AAV?$AAI?$AAC?$AAE?$AA_?$AAM?$AAM?$AAC?$AA2?$AA?$AA@|
	DCD	|??_C@_1CC@GMDLJAIE@?$AAO?$AAM?$AAA?$AAP?$AA_?$AAD?$AAE?$AAV?$AAI?$AAC?$AAE?$AA_?$AAM?$AAM?$AAC?$AA3?$AA?$AA@|
	DCD	|??_C@_1CC@PIKBMFAF@?$AAO?$AAM?$AAA?$AAP?$AA_?$AAD?$AAE?$AAV?$AAI?$AAC?$AAE?$AA_?$AAD?$AAE?$AAS?$AA2?$AA?$AA@|
	DCD	|??_C@_1CE@PJCPMBMK@?$AAO?$AAM?$AAA?$AAP?$AA_?$AAD?$AAE?$AAV?$AAI?$AAC?$AAE?$AA_?$AAS?$AAH?$AAA?$AA1?$AA2?$AA?$AA@|
	DCD	|??_C@_1CC@BOIIAOEB@?$AAO?$AAM?$AAA?$AAP?$AA_?$AAD?$AAE?$AAV?$AAI?$AAC?$AAE?$AA_?$AAA?$AAE?$AAS?$AA2?$AA?$AA@|
	DCD	|??_C@_1CC@OKBEGKOL@?$AAO?$AAM?$AAA?$AAP?$AA_?$AAD?$AAE?$AAV?$AAI?$AAC?$AAE?$AA_?$AAD?$AAE?$AAS?$AA1?$AA?$AA@|
	DCD	|??_C@_1CE@OLJKGOCE@?$AAO?$AAM?$AAA?$AAP?$AA_?$AAD?$AAE?$AAV?$AAI?$AAC?$AAE?$AA_?$AAS?$AAH?$AAA?$AA1?$AA1?$AA?$AA@|
	DCD	|??_C@_1CA@IFPKCACL@?$AAO?$AAM?$AAA?$AAP?$AA_?$AAD?$AAE?$AAV?$AAI?$AAC?$AAE?$AA_?$AAR?$AAN?$AAG?$AA?$AA@|
	DCD	|??_C@_1CC@MDNKBKP@?$AAO?$AAM?$AAA?$AAP?$AA_?$AAD?$AAE?$AAV?$AAI?$AAC?$AAE?$AA_?$AAA?$AAE?$AAS?$AA1?$AA?$AA@|
	DCD	|??_C@_1CA@LCHJOJDJ@?$AAO?$AAM?$AAA?$AAP?$AA_?$AAD?$AAE?$AAV?$AAI?$AAC?$AAE?$AA_?$AAP?$AAK?$AAA?$AA?$AA@|
	DCD	|??_C@_1CG@MLOIKIGB@?$AAO?$AAM?$AAA?$AAP?$AA_?$AAD?$AAE?$AAV?$AAI?$AAC?$AAE?$AA_?$AAU?$AAS?$AAB?$AAT?$AAL?$AAL?$AA?$AA@|
	DCD	|??_C@_1BO@GEAFECNL@?$AAO?$AAM?$AAA?$AAP?$AA_?$AAD?$AAE?$AAV?$AAI?$AAC?$AAE?$AA_?$AAT?$AAS?$AA?$AA@|
	DCD	|??_C@_1CE@EPOGLAMA@?$AAO?$AAM?$AAA?$AAP?$AA_?$AAD?$AAE?$AAV?$AAI?$AAC?$AAE?$AA_?$AAE?$AAF?$AAU?$AAS?$AAE?$AA?$AA@|
	DCD	|??_C@_1CK@DJMEKAOO@?$AAO?$AAM?$AAA?$AAP?$AA_?$AAD?$AAE?$AAV?$AAI?$AAC?$AAE?$AA_?$AAG?$AAP?$AAT?$AAI?$AAM?$AAE?$AAR?$AA1?$AA?$AA@|
	DCD	|??_C@_1CM@EMAJHEGE@?$AAO?$AAM?$AAA?$AAP?$AA_?$AAD?$AAE?$AAV?$AAI?$AAC?$AAE?$AA_?$AAG?$AAP?$AAT?$AAI?$AAM?$AAE?$AAR?$AA1?$AA2?$AA?$AA@|
	DCD	|??_C@_1CI@FAKOHIJH@?$AAO?$AAM?$AAA?$AAP?$AA_?$AAD?$AAE?$AAV?$AAI?$AAC?$AAE?$AA_?$AA3?$AA2?$AAK?$AAS?$AAY?$AAN?$AAC?$AA?$AA@|
	DCD	|??_C@_1CC@PHCCGACG@?$AAO?$AAM?$AAA?$AAP?$AA_?$AAD?$AAE?$AAV?$AAI?$AAC?$AAE?$AA_?$AAW?$AAD?$AAT?$AA1?$AA?$AA@|
	DCD	|??_C@_1CC@OFJHMPMI@?$AAO?$AAM?$AAA?$AAP?$AA_?$AAD?$AAE?$AAV?$AAI?$AAC?$AAE?$AA_?$AAW?$AAD?$AAT?$AA2?$AA?$AA@|
	DCD	|??_C@_1CE@DCDAAOLP@?$AAO?$AAM?$AAA?$AAP?$AA_?$AAD?$AAE?$AAV?$AAI?$AAC?$AAE?$AA_?$AAG?$AAP?$AAI?$AAO?$AA1?$AA?$AA@|
	DCD	|??_C@_1CE@CAIFKBFB@?$AAO?$AAM?$AAA?$AAP?$AA_?$AAD?$AAE?$AAV?$AAI?$AAC?$AAE?$AA_?$AAG?$AAP?$AAI?$AAO?$AA2?$AA?$AA@|
	DCD	|??_C@_1CE@JIDJMGDE@?$AAO?$AAM?$AAA?$AAP?$AA_?$AAD?$AAE?$AAV?$AAI?$AAC?$AAE?$AA_?$AAG?$AAP?$AAI?$AAO?$AA3?$AA?$AA@|
	DCD	|??_C@_1CE@FOOPOIN@?$AAO?$AAM?$AAA?$AAP?$AA_?$AAD?$AAE?$AAV?$AAI?$AAC?$AAE?$AA_?$AAG?$AAP?$AAI?$AAO?$AA4?$AA?$AA@|
	DCD	|??_C@_1CE@LNFCJJOI@?$AAO?$AAM?$AAA?$AAP?$AA_?$AAD?$AAE?$AAV?$AAI?$AAC?$AAE?$AA_?$AAG?$AAP?$AAI?$AAO?$AA5?$AA?$AA@|
	DCD	|??_C@_1CE@KPOHDGAG@?$AAO?$AAM?$AAA?$AAP?$AA_?$AAD?$AAE?$AAV?$AAI?$AAC?$AAE?$AA_?$AAG?$AAP?$AAI?$AAO?$AA6?$AA?$AA@|
	DCD	|??_C@_1CG@GHCKHLJB@?$AAO?$AAM?$AAA?$AAP?$AA_?$AAD?$AAE?$AAV?$AAI?$AAC?$AAE?$AA_?$AAM?$AAC?$AAB?$AAS?$AAP?$AA2?$AA?$AA@|
	DCD	|??_C@_1CG@NPJGBMPE@?$AAO?$AAM?$AAA?$AAP?$AA_?$AAD?$AAE?$AAV?$AAI?$AAC?$AAE?$AA_?$AAM?$AAC?$AAB?$AAS?$AAP?$AA3?$AA?$AA@|
	DCD	|??_C@_1CG@ECEBCEEN@?$AAO?$AAM?$AAA?$AAP?$AA_?$AAD?$AAE?$AAV?$AAI?$AAC?$AAE?$AA_?$AAM?$AAC?$AAB?$AAS?$AAP?$AA4?$AA?$AA@|
	DCD	|??_C@_1CK@CLHBAPAA@?$AAO?$AAM?$AAA?$AAP?$AA_?$AAD?$AAE?$AAV?$AAI?$AAC?$AAE?$AA_?$AAG?$AAP?$AAT?$AAI?$AAM?$AAE?$AAR?$AA2?$AA?$AA@|
	DCD	|??_C@_1CK@JDMNGIGF@?$AAO?$AAM?$AAA?$AAP?$AA_?$AAD?$AAE?$AAV?$AAI?$AAC?$AAE?$AA_?$AAG?$AAP?$AAT?$AAI?$AAM?$AAE?$AAR?$AA3?$AA?$AA@|
	DCD	|??_C@_1CK@OBKFANM@?$AAO?$AAM?$AAA?$AAP?$AA_?$AAD?$AAE?$AAV?$AAI?$AAC?$AAE?$AA_?$AAG?$AAP?$AAT?$AAI?$AAM?$AAE?$AAR?$AA4?$AA?$AA@|
	DCD	|??_C@_1CK@LGKGDHLJ@?$AAO?$AAM?$AAA?$AAP?$AA_?$AAD?$AAE?$AAV?$AAI?$AAC?$AAE?$AA_?$AAG?$AAP?$AAT?$AAI?$AAM?$AAE?$AAR?$AA5?$AA?$AA@|
	DCD	|??_C@_1CK@KEBDJIFH@?$AAO?$AAM?$AAA?$AAP?$AA_?$AAD?$AAE?$AAV?$AAI?$AAC?$AAE?$AA_?$AAG?$AAP?$AAT?$AAI?$AAM?$AAE?$AAR?$AA6?$AA?$AA@|
	DCD	|??_C@_1CK@BMKPPPDC@?$AAO?$AAM?$AAA?$AAP?$AA_?$AAD?$AAE?$AAV?$AAI?$AAC?$AAE?$AA_?$AAG?$AAP?$AAT?$AAI?$AAM?$AAE?$AAR?$AA7?$AA?$AA@|
	DCD	|??_C@_1CK@EEMMOPGE@?$AAO?$AAM?$AAA?$AAP?$AA_?$AAD?$AAE?$AAV?$AAI?$AAC?$AAE?$AA_?$AAG?$AAP?$AAT?$AAI?$AAM?$AAE?$AAR?$AA8?$AA?$AA@|
	DCD	|??_C@_1CK@PMHAIIAB@?$AAO?$AAM?$AAA?$AAP?$AA_?$AAD?$AAE?$AAV?$AAI?$AAC?$AAE?$AA_?$AAG?$AAP?$AAT?$AAI?$AAM?$AAE?$AAR?$AA9?$AA?$AA@|
	DCD	|??_C@_1CE@PILGIAKE@?$AAO?$AAM?$AAA?$AAP?$AA_?$AAD?$AAE?$AAV?$AAI?$AAC?$AAE?$AA_?$AAU?$AAA?$AAR?$AAT?$AA3?$AA?$AA@|
	DCD	|??_C@_1CC@FNCLKIKN@?$AAO?$AAM?$AAA?$AAP?$AA_?$AAD?$AAE?$AAV?$AAI?$AAC?$AAE?$AA_?$AAW?$AAD?$AAT?$AA3?$AA?$AA@|
	DCD	|??_C@_1CA@FPBNMJAK@?$AAO?$AAM?$AAA?$AAP?$AA_?$AAD?$AAE?$AAV?$AAI?$AAC?$AAE?$AA_?$AAD?$AAS?$AAS?$AA?$AA@|
	DCD	|??_C@_1CC@FAMAFCEH@?$AAO?$AAM?$AAA?$AAP?$AA_?$AAD?$AAE?$AAV?$AAI?$AAC?$AAE?$AA_?$AAD?$AAS?$AAS?$AA1?$AA?$AA@|
	DCD	|??_C@_1CC@ECHFPNKJ@?$AAO?$AAM?$AAA?$AAP?$AA_?$AAD?$AAE?$AAV?$AAI?$AAC?$AAE?$AA_?$AAD?$AAS?$AAS?$AA2?$AA?$AA@|
	DCD	|??_C@_1CE@CMHCGOLP@?$AAO?$AAM?$AAA?$AAP?$AA_?$AAD?$AAE?$AAV?$AAI?$AAC?$AAE?$AA_?$AAT?$AAV?$AAO?$AAU?$AAT?$AA?$AA@|
	DCD	|??_C@_1CC@EKFCKAJC@?$AAO?$AAM?$AAA?$AAP?$AA_?$AAD?$AAE?$AAV?$AAI?$AAC?$AAE?$AA_?$AAV?$AAP?$AAF?$AAE?$AA?$AA@|
	DCD	|??_C@_1CC@COEMHCN@?$AAO?$AAM?$AAA?$AAP?$AA_?$AAD?$AAE?$AAV?$AAI?$AAC?$AAE?$AA_?$AAC?$AAS?$AAI?$AA2?$AA?$AA@|
	DCD	|??_C@_1BO@HHGGMBLK@?$AAO?$AAM?$AAA?$AAP?$AA_?$AAD?$AAE?$AAV?$AAI?$AAC?$AAE?$AA_?$AA2?$AAD?$AA?$AA@|
	DCD	|??_C@_1BO@LMDKBCBP@?$AAO?$AAM?$AAA?$AAP?$AA_?$AAD?$AAE?$AAV?$AAI?$AAC?$AAE?$AA_?$AA3?$AAD?$AA?$AA@|
	DCD	|??_C@_1CK@FGNGBDLO@?$AAO?$AAM?$AAA?$AAP?$AA_?$AAD?$AAE?$AAV?$AAI?$AAC?$AAE?$AA_?$AAU?$AAS?$AAB?$AAH?$AAO?$AAS?$AAT?$AA1?$AA?$AA@|
	DCD	|??_C@_1CK@EEGDLMFA@?$AAO?$AAM?$AAA?$AAP?$AA_?$AAD?$AAE?$AAV?$AAI?$AAC?$AAE?$AA_?$AAU?$AAS?$AAB?$AAH?$AAO?$AAS?$AAT?$AA2?$AA?$AA@|
	DCD	|??_C@_1CK@PMNPNLDF@?$AAO?$AAM?$AAA?$AAP?$AA_?$AAD?$AAE?$AAV?$AAI?$AAC?$AAE?$AA_?$AAU?$AAS?$AAB?$AAH?$AAO?$AAS?$AAT?$AA3?$AA?$AA@|
	DCD	|??_C@_1CC@CEKMAOCF@?$AAO?$AAM?$AAA?$AAP?$AA_?$AAD?$AAE?$AAV?$AAI?$AAC?$AAE?$AA_?$AAO?$AAH?$AAC?$AAI?$AA?$AA@|
	DCD	|??_C@_1CC@DDIOJOOM@?$AAO?$AAM?$AAA?$AAP?$AA_?$AAD?$AAE?$AAV?$AAI?$AAC?$AAE?$AA_?$AAE?$AAH?$AAC?$AAI?$AA?$AA@|
	DCD	|??_C@_1CC@JFKAJPFG@?$AAO?$AAM?$AAA?$AAP?$AA_?$AAD?$AAE?$AAV?$AAI?$AAC?$AAE?$AA_?$AAV?$AAR?$AAF?$AAB?$AA?$AA@|
	DCD	|??_C@_1CI@CGCHDENN@?$AAO?$AAM?$AAA?$AAP?$AA_?$AAD?$AAE?$AAV?$AAI?$AAC?$AAE?$AA_?$AAG?$AAE?$AAN?$AAE?$AAR?$AAI?$AAC?$AA?$AA@|
	DCD	|??_C@_1CE@KDEPEPPM@?$AAO?$AAM?$AAA?$AAP?$AA_?$AAD?$AAE?$AAV?$AAI?$AAC?$AAE?$AA_?$AAS?$AAT?$AAU?$AAB?$AA1?$AA?$AA@|
	DCD	|??_C@_1CE@LBPKOABC@?$AAO?$AAM?$AAA?$AAP?$AA_?$AAD?$AAE?$AAV?$AAI?$AAC?$AAE?$AA_?$AAS?$AAT?$AAU?$AAB?$AA2?$AA?$AA@|
	DCD	|??_C@_1CO@HGOPKO@?$AAO?$AAM?$AAA?$AAP?$AA_?$AAD?$AAE?$AAV?$AAI?$AAC?$AAE?$AA_?$AAS?$AAG?$AAX?$AA?5?$AA?$DN?$AA?5?$AA0?$AAx?$AA4?$AA8?$AA?$AA@|
	DCD	|??_C@_1CE@LCDBPFF@?$AAO?$AAM?$AAA?$AAP?$AA_?$AAD?$AAE?$AAV?$AAI?$AAC?$AAE?$AA_?$AAC?$AAO?$AAU?$AAN?$AAT?$AA?$AA@|
	DCD	|??_C@_1CC@LBCPDDJD@?$AAO?$AAM?$AAA?$AAP?$AA_?$AAD?$AAE?$AAV?$AAI?$AAC?$AAE?$AA_?$AAS?$AAD?$AAM?$AAA?$AA?$AA@|
	DCD	|??_C@_1CC@MNJCOFFL@?$AAO?$AAM?$AAA?$AAP?$AA_?$AAD?$AAE?$AAV?$AAI?$AAC?$AAE?$AA_?$AAG?$AAP?$AAM?$AAC?$AA?$AA@|
	DCD	|??_C@_1CC@DCMIOAOJ@?$AAO?$AAM?$AAA?$AAP?$AA_?$AAD?$AAE?$AAV?$AAI?$AAC?$AAE?$AA_?$AAH?$AAE?$AAC?$AAC?$AA?$AA@|
	DCD	|??_C@_1CG@EDCGOPIH@?$AAO?$AAM?$AAA?$AAP?$AA_?$AAD?$AAE?$AAV?$AAI?$AAC?$AAE?$AA_?$AAC?$AAP?$AAG?$AAM?$AAA?$AAC?$AA?$AA@|
	DCD	|??_C@_1CK@IEABCGNC@?$AAO?$AAM?$AAA?$AAP?$AA_?$AAD?$AAE?$AAV?$AAI?$AAC?$AAE?$AA_?$AAH?$AAS?$AAO?$AAT?$AAG?$AAU?$AAS?$AAB?$AA?$AA@|
|DomainNameTable| DCD |??_C@_1CG@GNBBGDGH@?$AAP?$AAO?$AAW?$AAE?$AAR?$AAD?$AAO?$AAM?$AAA?$AAI?$AAN?$AA_?$AAW?$AAA?$AAK?$AAE?$AAU?$AAP?$AA?$AA@|
	DCD	|??_C@_1CC@DPNIOGJP@?$AAP?$AAO?$AAW?$AAE?$AAR?$AAD?$AAO?$AAM?$AAA?$AAI?$AAN?$AA_?$AAC?$AAO?$AAR?$AAE?$AA?$AA@|
	DCD	|??_C@_1CO@GHAPCMEA@?$AAP?$AAO?$AAW?$AAE?$AAR?$AAD?$AAO?$AAM?$AAA?$AAI?$AAN?$AA_?$AAP?$AAE?$AAR?$AAI?$AAP?$AAH?$AAE?$AAR?$AAA?$AAL?$AA?$AA@|
	DCD	|??_C@_1CI@LJKMALKI@?$AAP?$AAO?$AAW?$AAE?$AAR?$AAD?$AAO?$AAM?$AAA?$AAI?$AAN?$AA_?$AAU?$AAS?$AAB?$AAH?$AAO?$AAS?$AAT?$AA?$AA@|
	DCD	|??_C@_1CM@IICJPBKI@?$AAP?$AAO?$AAW?$AAE?$AAR?$AAD?$AAO?$AAM?$AAA?$AAI?$AAN?$AA_?$AAE?$AAM?$AAU?$AAL?$AAA?$AAT?$AAI?$AAO?$AAN?$AA?$AA@|
	DCD	|??_C@_1CA@MKHFGMJA@?$AAP?$AAO?$AAW?$AAE?$AAR?$AAD?$AAO?$AAM?$AAA?$AAI?$AAN?$AA_?$AAM?$AAP?$AAU?$AA?$AA@|
	DCD	|??_C@_1CA@HGMFFKMJ@?$AAP?$AAO?$AAW?$AAE?$AAR?$AAD?$AAO?$AAM?$AAA?$AAI?$AAN?$AA_?$AAD?$AAS?$AAS?$AA?$AA@|
	DCD	|??_C@_1CC@DDKPOHKD@?$AAP?$AAO?$AAW?$AAE?$AAR?$AAD?$AAO?$AAM?$AAA?$AAI?$AAN?$AA_?$AAN?$AAE?$AAO?$AAN?$AA?$AA@|
	DCD	|??_C@_1CA@EPPNKFHH@?$AAP?$AAO?$AAW?$AAE?$AAR?$AAD?$AAO?$AAM?$AAA?$AAI?$AAN?$AA_?$AAS?$AAG?$AAX?$AA?$AA@|
	DCD	|??_C@_1CE@NPBICAPK@?$AAP?$AAO?$AAW?$AAE?$AAR?$AAD?$AAO?$AAM?$AAA?$AAI?$AAN?$AA_?$AAE?$AAF?$AAU?$AAS?$AAE?$AA?$AA@|
	%	4
|DumpRegArray| DCD |??_C@_1BA@JEPMHMHH@?$AAI?$AAV?$AAA?$AA2?$AA_?$AAC?$AAM?$AA?$AA@|
	DCD	0x0
	DCD	0x0
	DCD	0x0
	DCD	|??_C@_1BO@BMCCBFKC@?$AAC?$AAM?$AA_?$AAF?$AAC?$AAL?$AAK?$AAE?$AAN?$AA_?$AAI?$AAV?$AAA?$AA2?$AA?$AA@|
	DCD	0x20
	DCD	0x48004000
	DCD	0x0
	DCD	|??_C@_1CE@EGLDCDGI@?$AAC?$AAM?$AA_?$AAC?$AAL?$AAK?$AAE?$AAN?$AA_?$AAP?$AAL?$AAL?$AA_?$AAI?$AAV?$AAA?$AA2?$AA?$AA@|
	DCD	0x20
	DCD	0x48004004
	DCD	0x0
	DCD	|??_C@_1BO@ICPAIDCP@?$AAC?$AAM?$AA_?$AAI?$AAD?$AAL?$AAE?$AAS?$AAT?$AA_?$AAI?$AAV?$AAA?$AA2?$AA?$AA@|
	DCD	0x20
	DCD	0x48004020
	DCD	0x0
	DCD	|??_C@_1CG@ONOPJIEM@?$AAC?$AAM?$AA_?$AAI?$AAD?$AAL?$AAE?$AAS?$AAT?$AA_?$AAP?$AAL?$AAL?$AA_?$AAI?$AAV?$AAA?$AA2?$AA?$AA@|
	DCD	0x20
	DCD	0x48004024
	DCD	0x0
	DCD	|??_C@_1CK@OCLDONOJ@?$AAC?$AAM?$AA_?$AAA?$AAU?$AAT?$AAO?$AAI?$AAD?$AAL?$AAE?$AA_?$AAP?$AAL?$AAL?$AA_?$AAI?$AAV?$AAA?$AA2?$AA?$AA@|
	DCD	0x20
	DCD	0x48004034
	DCD	0x0
	DCD	|??_C@_1CI@CNFPDILL@?$AAC?$AAM?$AA_?$AAC?$AAL?$AAK?$AAS?$AAE?$AAL?$AA1?$AA_?$AAP?$AAL?$AAL?$AA_?$AAI?$AAV?$AAA?$AA2?$AA?$AA@|
	DCD	0x20
	DCD	0x48004040
	DCD	0x0
	DCD	|??_C@_1CI@BECHJFPL@?$AAC?$AAM?$AA_?$AAC?$AAL?$AAK?$AAS?$AAE?$AAL?$AA2?$AA_?$AAP?$AAL?$AAL?$AA_?$AAI?$AAV?$AAA?$AA2?$AA?$AA@|
	DCD	0x20
	DCD	0x48004044
	DCD	0x0
	DCD	|??_C@_1CE@EJPMCCDJ@?$AAC?$AAM?$AA_?$AAC?$AAL?$AAK?$AAS?$AAT?$AAC?$AAT?$AAR?$AAL?$AA_?$AAI?$AAV?$AAA?$AA2?$AA?$AA@|
	DCD	0x20
	DCD	0x48004048
	DCD	0x0
	DCD	|??_C@_1CA@DCHKBGCI@?$AAC?$AAM?$AA_?$AAC?$AAL?$AAK?$AAS?$AAT?$AAS?$AAT?$AA_?$AAI?$AAV?$AAA?$AA2?$AA?$AA@|
	DCD	0x20
	DCD	0x4800404c
	DCD	0x0
	DCD	|??_C@_1CE@OMIMNBBB@?$AAO?$AAC?$AAP?$AA_?$AAS?$AAy?$AAs?$AAt?$AAe?$AAm?$AA_?$AAR?$AAe?$AAg?$AA_?$AAC?$AAM?$AA?$AA@|
	DCD	0x20
	DCD	0x0
	DCD	0x0
	DCD	|??_C@_1BI@OFDDPNDA@?$AAC?$AAM?$AA_?$AAR?$AAE?$AAV?$AAI?$AAS?$AAI?$AAO?$AAN?$AA?$AA@|
	DCD	0x20
	DCD	0x48004800
	DCD	0x0
	DCD	|??_C@_1BK@MFOLEKL@?$AAC?$AAM?$AA_?$AAS?$AAY?$AAS?$AAC?$AAO?$AAN?$AAF?$AAI?$AAG?$AA?$AA@|
	DCD	0x20
	DCD	0x48004810
	DCD	0x0
	DCD	|??_C@_1O@NHPFAPNK@?$AAM?$AAP?$AAU?$AA_?$AAC?$AAM?$AA?$AA@|
	DCD	0x0
	DCD	0x0
	DCD	0x0
	DCD	|??_C@_1CC@JNLBAGDF@?$AAC?$AAM?$AA_?$AAC?$AAL?$AAK?$AAE?$AAN?$AA_?$AAP?$AAL?$AAL?$AA_?$AAM?$AAP?$AAU?$AA?$AA@|
	DCD	0x20
	DCD	0x48004904
	DCD	0x0
	DCD	|??_C@_1BM@HFFIEGID@?$AAC?$AAM?$AA_?$AAI?$AAD?$AAL?$AAE?$AAS?$AAT?$AA_?$AAM?$AAP?$AAU?$AA?$AA@|
	DCD	0x20
	DCD	0x48004920
	DCD	0x0
	DCD	|??_C@_1CE@BDMBNMCK@?$AAC?$AAM?$AA_?$AAI?$AAD?$AAL?$AAE?$AAS?$AAT?$AA_?$AAP?$AAL?$AAL?$AA_?$AAM?$AAP?$AAU?$AA?$AA@|
	DCD	0x20
	DCD	0x48004924
	DCD	0x0
	DCD	|??_C@_1CI@CMDKJBJB@?$AAC?$AAM?$AA_?$AAA?$AAU?$AAT?$AAO?$AAI?$AAD?$AAL?$AAE?$AA_?$AAP?$AAL?$AAL?$AA_?$AAM?$AAP?$AAU?$AA?$AA@|
	DCD	0x20
	DCD	0x48004934
	DCD	0x0
	DCD	|??_C@_1CG@NPDFIEKE@?$AAC?$AAM?$AA_?$AAC?$AAL?$AAK?$AAS?$AAE?$AAL?$AA1?$AA_?$AAP?$AAL?$AAL?$AA_?$AAM?$AAP?$AAU?$AA?$AA@|
	DCD	0x20
	DCD	0x48004940
	DCD	0x0
	DCD	|??_C@_1CG@HAJMMJGO@?$AAC?$AAM?$AA_?$AAC?$AAL?$AAK?$AAS?$AAE?$AAL?$AA2?$AA_?$AAP?$AAL?$AAL?$AA_?$AAM?$AAP?$AAU?$AA?$AA@|
	DCD	0x20
	DCD	0x48004944
	DCD	0x0
	DCD	|??_C@_1CC@LKCGBNJG@?$AAC?$AAM?$AA_?$AAC?$AAL?$AAK?$AAS?$AAT?$AAC?$AAT?$AAR?$AAL?$AA_?$AAM?$AAP?$AAU?$AA?$AA@|
	DCD	0x20
	DCD	0x48004948
	DCD	0x0
	DCD	|??_C@_1BO@HNKCCHHN@?$AAC?$AAM?$AA_?$AAC?$AAL?$AAK?$AAS?$AAT?$AAS?$AAT?$AA_?$AAM?$AAP?$AAU?$AA?$AA@|
	DCD	0x20
	DCD	0x4800494c
	DCD	0x0
	DCD	|??_C@_1BA@MHLIKEJK@?$AAC?$AAO?$AAR?$AAE?$AA_?$AAC?$AAM?$AA?$AA@|
	DCD	0x0
	DCD	0x0
	DCD	0x0
	DCD	|??_C@_1CA@CFLMELNM@?$AAC?$AAM?$AA_?$AAF?$AAC?$AAL?$AAK?$AAE?$AAN?$AA1?$AA_?$AAC?$AAO?$AAR?$AAE?$AA?$AA@|
	DCD	0x20
	DCD	0x48004a00
	DCD	0x0
	DCD	|??_C@_1CA@MENCIPHB@?$AAC?$AAM?$AA_?$AAF?$AAC?$AAL?$AAK?$AAE?$AAN?$AA3?$AA_?$AAC?$AAO?$AAR?$AAE?$AA?$AA@|
	DCD	0x20
	DCD	0x48004a08
	DCD	0x0
	DCD	|??_C@_1CA@KIFGBNEG@?$AAC?$AAM?$AA_?$AAI?$AAC?$AAL?$AAK?$AAE?$AAN?$AA1?$AA_?$AAC?$AAO?$AAR?$AAE?$AA?$AA@|
	DCD	0x20
	DCD	0x48004a10
	DCD	0x0
	DCD	|??_C@_1CA@NEDHDIJN@?$AAC?$AAM?$AA_?$AAI?$AAC?$AAL?$AAK?$AAE?$AAN?$AA2?$AA_?$AAC?$AAO?$AAR?$AAE?$AA?$AA@|
	DCD	0x20
	DCD	0x48004a14
	DCD	0x0
	DCD	|??_C@_1CA@EJDINJOL@?$AAC?$AAM?$AA_?$AAI?$AAC?$AAL?$AAK?$AAE?$AAN?$AA3?$AA_?$AAC?$AAO?$AAR?$AAE?$AA?$AA@|
	DCD	0x20
	DCD	0x48004a18
	DCD	0x0
	DCD	|??_C@_1CA@LCPNAFHJ@?$AAC?$AAM?$AA_?$AAI?$AAD?$AAL?$AAE?$AAS?$AAT?$AA1?$AA_?$AAC?$AAO?$AAR?$AAE?$AA?$AA@|
	DCD	0x20
	DCD	0x48004a20
	DCD	0x0
	DCD	|??_C@_1CA@MOJMCAKC@?$AAC?$AAM?$AA_?$AAI?$AAD?$AAL?$AAE?$AAS?$AAT?$AA2?$AA_?$AAC?$AAO?$AAR?$AAE?$AA?$AA@|
	DCD	0x20
	DCD	0x48004a24
	DCD	0x0
	DCD	|??_C@_1CA@FDJDMBNE@?$AAC?$AAM?$AA_?$AAI?$AAD?$AAL?$AAE?$AAS?$AAT?$AA3?$AA_?$AAC?$AAO?$AAR?$AAE?$AA?$AA@|
	DCD	0x20
	DCD	0x48004a28
	DCD	0x0
	DCD	|??_C@_1CE@HBMGIBI@?$AAC?$AAM?$AA_?$AAA?$AAU?$AAT?$AAO?$AAI?$AAD?$AAL?$AAE?$AA1?$AA_?$AAC?$AAO?$AAR?$AAE?$AA?$AA@|
	DCD	0x20
	DCD	0x48004a30
	DCD	0x0
	DCD	|??_C@_1CE@HLHNENMD@?$AAC?$AAM?$AA_?$AAA?$AAU?$AAT?$AAO?$AAI?$AAD?$AAL?$AAE?$AA2?$AA_?$AAC?$AAO?$AAR?$AAE?$AA?$AA@|
	DCD	0x20
	DCD	0x48004a34
	DCD	0x0
	DCD	|??_C@_1CE@OGHCKMLF@?$AAC?$AAM?$AA_?$AAA?$AAU?$AAT?$AAO?$AAI?$AAD?$AAL?$AAE?$AA3?$AA_?$AAC?$AAO?$AAR?$AAE?$AA?$AA@|
	DCD	0x20
	DCD	0x48004a38
	DCD	0x0
	DCD	|??_C@_1BO@BGDPDEGJ@?$AAC?$AAM?$AA_?$AAC?$AAL?$AAK?$AAS?$AAE?$AAL?$AA_?$AAC?$AAO?$AAR?$AAE?$AA?$AA@|
	DCD	0x20
	DCD	0x48004a40
	DCD	0x0
	DCD	|??_C@_1CE@EOIAHAOA@?$AAC?$AAM?$AA_?$AAC?$AAL?$AAK?$AAS?$AAT?$AAC?$AAT?$AAR?$AAL?$AA_?$AAC?$AAO?$AAR?$AAE?$AA?$AA@|
	DCD	0x20
	DCD	0x48004a48
	DCD	0x0
	DCD	|??_C@_1CA@DFAGEEPB@?$AAC?$AAM?$AA_?$AAC?$AAL?$AAK?$AAS?$AAT?$AAS?$AAT?$AA_?$AAC?$AAO?$AAR?$AAE?$AA?$AA@|
	DCD	0x20
	DCD	0x48004a4c
	DCD	0x0
	DCD	|??_C@_1O@PHKCOJPF@?$AAS?$AAG?$AAX?$AA_?$AAC?$AAM?$AA?$AA@|
	DCD	0x0
	DCD	0x0
	DCD	0x0
	DCD	|??_C@_1BM@JFNDLFFL@?$AAC?$AAM?$AA_?$AAF?$AAC?$AAL?$AAK?$AAE?$AAN?$AA_?$AAS?$AAG?$AAX?$AA?$AA@|
	DCD	0x20
	DCD	0x48004b00
	DCD	0x0
	DCD	|??_C@_1BM@EJEJKNBL@?$AAC?$AAM?$AA_?$AAI?$AAC?$AAL?$AAK?$AAE?$AAN?$AA_?$AAS?$AAG?$AAX?$AA?$AA@|
	DCD	0x20
	DCD	0x48004b10
	DCD	0x0
	DCD	|??_C@_1BM@PANAIPGE@?$AAC?$AAM?$AA_?$AAI?$AAD?$AAL?$AAE?$AAS?$AAT?$AA_?$AAS?$AAG?$AAX?$AA?$AA@|
	DCD	0x20
	DCD	0x48004b20
	DCD	0x0
	DCD	|??_C@_1BM@DKOEAHJA@?$AAC?$AAM?$AA_?$AAC?$AAL?$AAK?$AAS?$AAE?$AAL?$AA_?$AAS?$AAG?$AAX?$AA?$AA@|
	DCD	0x20
	DCD	0x48004b40
	DCD	0x0
	DCD	|??_C@_1CA@EOLCFPBH@?$AAC?$AAM?$AA_?$AAS?$AAL?$AAE?$AAE?$AAP?$AAD?$AAE?$AAP?$AA_?$AAS?$AAG?$AAX?$AA?$AA@|
	DCD	0x20
	DCD	0x48004b44
	DCD	0x0
	DCD	|??_C@_1CC@DPKONEHB@?$AAC?$AAM?$AA_?$AAC?$AAL?$AAK?$AAS?$AAT?$AAC?$AAT?$AAR?$AAL?$AA_?$AAS?$AAG?$AAX?$AA?$AA@|
	DCD	0x20
	DCD	0x48004b48
	DCD	0x0
	DCD	|??_C@_1BO@PICKOOJK@?$AAC?$AAM?$AA_?$AAC?$AAL?$AAK?$AAS?$AAT?$AAS?$AAT?$AA_?$AAS?$AAG?$AAX?$AA?$AA@|
	DCD	0x20
	DCD	0x48004b4c
	DCD	0x0
	DCD	|??_C@_1BA@FJBNPKLL@?$AAW?$AAK?$AAU?$AAP?$AA_?$AAC?$AAM?$AA?$AA@|
	DCD	0x0
	DCD	0x0
	DCD	0x0
	DCD	|??_C@_1BO@MLJDPPAG@?$AAC?$AAM?$AA_?$AAF?$AAC?$AAL?$AAK?$AAE?$AAN?$AA_?$AAW?$AAK?$AAU?$AAP?$AA?$AA@|
	DCD	0x20
	DCD	0x48004c00
	DCD	0x0
	DCD	|??_C@_1BO@CIIGPEMP@?$AAC?$AAM?$AA_?$AAI?$AAC?$AAL?$AAK?$AAE?$AAN?$AA_?$AAW?$AAK?$AAU?$AAP?$AA?$AA@|
	DCD	0x20
	DCD	0x48004c10
	DCD	0x0
	DCD	|??_C@_1BO@FFEBGJIL@?$AAC?$AAM?$AA_?$AAI?$AAD?$AAL?$AAE?$AAS?$AAT?$AA_?$AAW?$AAK?$AAU?$AAP?$AA?$AA@|
	DCD	0x20
	DCD	0x48004c20
	DCD	0x0
	DCD	|??_C@_1CC@JJJPDLCF@?$AAC?$AAM?$AA_?$AAA?$AAU?$AAT?$AAO?$AAI?$AAD?$AAL?$AAE?$AA_?$AAW?$AAK?$AAU?$AAP?$AA?$AA@|
	DCD	0x20
	DCD	0x48004c30
	DCD	0x0
	DCD	|??_C@_1BO@MGPCIMBE@?$AAC?$AAM?$AA_?$AAC?$AAL?$AAK?$AAS?$AAE?$AAL?$AA_?$AAW?$AAK?$AAU?$AAP?$AA?$AA@|
	DCD	0x20
	DCD	0x48004c40
	DCD	0x0
	DCD	|??_C@_1CK@OJMCKPMK@?$AAC?$AAl?$AAo?$AAc?$AAk?$AA_?$AAC?$AAo?$AAn?$AAt?$AAr?$AAo?$AAl?$AA_?$AAR?$AAe?$AAg?$AA_?$AAC?$AAM?$AA?$AA@|
	DCD	0x20
	DCD	0x0
	DCD	0x0
	DCD	|??_C@_1BK@CFOGEALB@?$AAC?$AAM?$AA_?$AAC?$AAL?$AAK?$AAE?$AAN?$AA_?$AAP?$AAL?$AAL?$AA?$AA@|
	DCD	0x20
	DCD	0x48004d00
	DCD	0x0
	DCD	|??_C@_1BM@DGCCAOAF@?$AAC?$AAM?$AA_?$AAC?$AAL?$AAK?$AAE?$AAN?$AA2?$AA_?$AAP?$AAL?$AAL?$AA?$AA@|
	DCD	0x20
	DCD	0x48004d04
	DCD	0x0
	DCD	|??_C@_1CA@PFEJJBMO@?$AAC?$AAM?$AA_?$AAI?$AAD?$AAL?$AAE?$AAS?$AAT?$AA_?$AAC?$AAK?$AAG?$AAE?$AAN?$AA?$AA@|
	DCD	0x20
	DCD	0x48004d20
	DCD	0x0
	DCD	|??_C@_1CC@OBCEIAAE@?$AAC?$AAM?$AA_?$AAI?$AAD?$AAL?$AAE?$AAS?$AAT?$AA2?$AA_?$AAC?$AAK?$AAG?$AAE?$AAN?$AA?$AA@|
	DCD	0x20
	DCD	0x48004d24
	DCD	0x0
	DCD	|??_C@_1CA@ODFNPBKK@?$AAC?$AAM?$AA_?$AAA?$AAU?$AAT?$AAO?$AAI?$AAD?$AAL?$AAE?$AA_?$AAP?$AAL?$AAL?$AA?$AA@|
	DCD	0x20
	DCD	0x48004d30
	DCD	0x0
	DCD	|??_C@_1CC@CDHCIADO@?$AAC?$AAM?$AA_?$AAA?$AAU?$AAT?$AAO?$AAI?$AAD?$AAL?$AAE?$AA2?$AA_?$AAP?$AAL?$AAL?$AA?$AA@|
	DCD	0x20
	DCD	0x48004d34
	DCD	0x0
	DCD	|??_C@_1BO@LIBOFPP@?$AAC?$AAM?$AA_?$AAC?$AAL?$AAK?$AAS?$AAE?$AAL?$AA1?$AA_?$AAP?$AAL?$AAL?$AA?$AA@|
	DCD	0x20
	DCD	0x48004d40
	DCD	0x0
	DCD	|??_C@_1BO@HMBPDHAP@?$AAC?$AAM?$AA_?$AAC?$AAL?$AAK?$AAS?$AAE?$AAL?$AA2?$AA_?$AAP?$AAL?$AAL?$AA?$AA@|
	DCD	0x20
	DCD	0x48004d44
	DCD	0x0
	DCD	|??_C@_1BO@OHLKHLGA@?$AAC?$AAM?$AA_?$AAC?$AAL?$AAK?$AAS?$AAE?$AAL?$AA3?$AA_?$AAP?$AAL?$AAL?$AA?$AA@|
	DCD	0x20
	DCD	0x48004d48
	DCD	0x0
	DCD	|??_C@_1BO@JDCCJCOP@?$AAC?$AAM?$AA_?$AAC?$AAL?$AAK?$AAS?$AAE?$AAL?$AA4?$AA_?$AAP?$AAL?$AAL?$AA?$AA@|
	DCD	0x20
	DCD	0x48004d4c
	DCD	0x0
	DCD	|??_C@_1BO@IIHNOIA@?$AAC?$AAM?$AA_?$AAC?$AAL?$AAK?$AAS?$AAE?$AAL?$AA5?$AA_?$AAP?$AAL?$AAL?$AA?$AA@|
	DCD	0x20
	DCD	0x48004d50
	DCD	0x0
	DCD	|??_C@_1BO@MLHAGPEI@?$AAC?$AAM?$AA_?$AAC?$AAL?$AAK?$AAO?$AAU?$AAT?$AA_?$AAC?$AAT?$AAR?$AAL?$AA?$AA@|
	DCD	0x20
	DCD	0x48004d70
	DCD	0x0
	DCD	|??_C@_1O@DCDFCCN@?$AAD?$AAS?$AAS?$AA_?$AAC?$AAM?$AA?$AA@|
	DCD	0x0
	DCD	0x0
	DCD	0x0
	DCD	|??_C@_1BM@KMOLEKOF@?$AAC?$AAM?$AA_?$AAF?$AAC?$AAL?$AAK?$AAE?$AAN?$AA_?$AAD?$AAS?$AAS?$AA?$AA@|
	DCD	0x20
	DCD	0x48004e00
	DCD	0x0
	DCD	|??_C@_1BM@HAHBFCKF@?$AAC?$AAM?$AA_?$AAI?$AAC?$AAL?$AAK?$AAE?$AAN?$AA_?$AAD?$AAS?$AAS?$AA?$AA@|
	DCD	0x20
	DCD	0x48004e10
	DCD	0x0
	DCD	|??_C@_1BM@MJOIHANK@?$AAC?$AAM?$AA_?$AAI?$AAD?$AAL?$AAE?$AAS?$AAT?$AA_?$AAD?$AAS?$AAS?$AA?$AA@|
	DCD	0x20
	DCD	0x48004e20
	DCD	0x0
	DCD	|??_C@_1CA@OBFGDJPM@?$AAC?$AAM?$AA_?$AAA?$AAU?$AAT?$AAO?$AAI?$AAD?$AAL?$AAE?$AA_?$AAD?$AAS?$AAS?$AA?$AA@|
	DCD	0x20
	DCD	0x48004e30
	DCD	0x0
	DCD	|??_C@_1BM@DNMPICO@?$AAC?$AAM?$AA_?$AAC?$AAL?$AAK?$AAS?$AAE?$AAL?$AA_?$AAD?$AAS?$AAS?$AA?$AA@|
	DCD	0x20
	DCD	0x48004e40
	DCD	0x0
	DCD	|??_C@_1CA@HHIKKAKJ@?$AAC?$AAM?$AA_?$AAS?$AAL?$AAE?$AAE?$AAP?$AAD?$AAE?$AAP?$AA_?$AAD?$AAS?$AAS?$AA?$AA@|
	DCD	0x20
	DCD	0x48004e44
	DCD	0x0
	DCD	|??_C@_1CC@GJGCLMP@?$AAC?$AAM?$AA_?$AAC?$AAL?$AAK?$AAS?$AAT?$AAC?$AAT?$AAR?$AAL?$AA_?$AAD?$AAS?$AAS?$AA?$AA@|
	DCD	0x20
	DCD	0x48004e48
	DCD	0x0
	DCD	|??_C@_1BO@MBBCBBCE@?$AAC?$AAM?$AA_?$AAC?$AAL?$AAK?$AAS?$AAT?$AAS?$AAT?$AA_?$AAD?$AAS?$AAS?$AA?$AA@|
	DCD	0x20
	DCD	0x48004e4c
	DCD	0x0
	DCD	|??_C@_1O@LPKKDKNF@?$AAC?$AAA?$AAM?$AA_?$AAC?$AAM?$AA?$AA@|
	DCD	0x0
	DCD	0x0
	DCD	0x0
	DCD	|??_C@_1BM@FIPGMAMA@?$AAC?$AAM?$AA_?$AAF?$AAC?$AAL?$AAK?$AAE?$AAN?$AA_?$AAC?$AAA?$AAM?$AA?$AA@|
	DCD	0x20
	DCD	0x48004f00
	DCD	0x0
	DCD	|??_C@_1BM@IEGMNIIA@?$AAC?$AAM?$AA_?$AAI?$AAC?$AAL?$AAK?$AAE?$AAN?$AA_?$AAC?$AAA?$AAM?$AA?$AA@|
	DCD	0x20
	DCD	0x48004f10
	DCD	0x0
	DCD	|??_C@_1BM@DNPFPKPP@?$AAC?$AAM?$AA_?$AAI?$AAD?$AAL?$AAE?$AAS?$AAT?$AA_?$AAC?$AAA?$AAM?$AA?$AA@|
	DCD	0x20
	DCD	0x48004f20
	DCD	0x0
	DCD	|??_C@_1CA@BFELLDNJ@?$AAC?$AAM?$AA_?$AAA?$AAU?$AAT?$AAO?$AAI?$AAD?$AAL?$AAE?$AA_?$AAC?$AAA?$AAM?$AA?$AA@|
	DCD	0x20
	DCD	0x48004f30
	DCD	0x0
	DCD	|??_C@_1BM@PHMBHCAL@?$AAC?$AAM?$AA_?$AAC?$AAL?$AAK?$AAS?$AAE?$AAL?$AA_?$AAC?$AAA?$AAM?$AA?$AA@|
	DCD	0x20
	DCD	0x48004f40
	DCD	0x0
	DCD	|??_C@_1CA@IDJHCKIM@?$AAC?$AAM?$AA_?$AAS?$AAL?$AAE?$AAE?$AAP?$AAD?$AAE?$AAP?$AA_?$AAC?$AAA?$AAM?$AA?$AA@|
	DCD	0x20
	DCD	0x48004f44
	DCD	0x0
	DCD	|??_C@_1CC@PCILKBOK@?$AAC?$AAM?$AA_?$AAC?$AAL?$AAK?$AAS?$AAT?$AAC?$AAT?$AAR?$AAL?$AA_?$AAC?$AAA?$AAM?$AA?$AA@|
	DCD	0x20
	DCD	0x48004f48
	DCD	0x0
	DCD	|??_C@_1BO@DFAPJLAB@?$AAC?$AAM?$AA_?$AAC?$AAL?$AAK?$AAS?$AAT?$AAS?$AAT?$AA_?$AAC?$AAA?$AAM?$AA?$AA@|
	DCD	0x20
	DCD	0x48004f4c
	DCD	0x0
	DCD	|??_C@_1O@HANKMCHI@?$AAP?$AAE?$AAR?$AA_?$AAC?$AAM?$AA?$AA@|
	DCD	0x0
	DCD	0x0
	DCD	0x0
	DCD	|??_C@_1BM@DJCJPDNH@?$AAC?$AAM?$AA_?$AAF?$AAC?$AAL?$AAK?$AAE?$AAN?$AA_?$AAP?$AAE?$AAR?$AA?$AA@|
	DCD	0x20
	DCD	0x48005000
	DCD	0x0
	DCD	|??_C@_1BM@OFLDOLJH@?$AAC?$AAM?$AA_?$AAI?$AAC?$AAL?$AAK?$AAE?$AAN?$AA_?$AAP?$AAE?$AAR?$AA?$AA@|
	DCD	0x20
	DCD	0x48005010
	DCD	0x0
	DCD	|??_C@_1BM@FMCKMJOI@?$AAC?$AAM?$AA_?$AAI?$AAD?$AAL?$AAE?$AAS?$AAT?$AA_?$AAP?$AAE?$AAR?$AA?$AA@|
	DCD	0x20
	DCD	0x48005020
	DCD	0x0
	DCD	|??_C@_1CA@HEJEIAMO@?$AAC?$AAM?$AA_?$AAA?$AAU?$AAT?$AAO?$AAI?$AAD?$AAL?$AAE?$AA_?$AAP?$AAE?$AAR?$AA?$AA@|
	DCD	0x20
	DCD	0x48005030
	DCD	0x0
	DCD	|??_C@_1BM@JGBOEBBM@?$AAC?$AAM?$AA_?$AAC?$AAL?$AAK?$AAS?$AAE?$AAL?$AA_?$AAP?$AAE?$AAR?$AA?$AA@|
	DCD	0x20
	DCD	0x48005040
	DCD	0x0
	DCD	|??_C@_1CA@OCEIBJJL@?$AAC?$AAM?$AA_?$AAS?$AAL?$AAE?$AAE?$AAP?$AAD?$AAE?$AAP?$AA_?$AAP?$AAE?$AAR?$AA?$AA@|
	DCD	0x20
	DCD	0x48005044
	DCD	0x0
	DCD	|??_C@_1CC@JDFEJCPN@?$AAC?$AAM?$AA_?$AAC?$AAL?$AAK?$AAS?$AAT?$AAC?$AAT?$AAR?$AAL?$AA_?$AAP?$AAE?$AAR?$AA?$AA@|
	DCD	0x20
	DCD	0x48005048
	DCD	0x0
	DCD	|??_C@_1BO@FENAKIBG@?$AAC?$AAM?$AA_?$AAC?$AAL?$AAK?$AAS?$AAT?$AAS?$AAT?$AA_?$AAP?$AAE?$AAR?$AA?$AA@|
	DCD	0x20
	DCD	0x4800504c
	DCD	0x0
	DCD	|??_C@_1O@HGBLPNPO@?$AAE?$AAM?$AAU?$AA_?$AAC?$AAM?$AA?$AA@|
	DCD	0x0
	DCD	0x0
	DCD	0x0
	DCD	|??_C@_1BO@NJJHBBAA@?$AAC?$AAM?$AA_?$AAC?$AAL?$AAK?$AAS?$AAE?$AAL?$AA1?$AA_?$AAE?$AAM?$AAU?$AA?$AA@|
	DCD	0x20
	DCD	0x48005140
	DCD	0x0
	DCD	|??_C@_1CC@NGILBHGG@?$AAC?$AAM?$AA_?$AAC?$AAL?$AAK?$AAS?$AAT?$AAC?$AAT?$AAR?$AAL?$AA_?$AAE?$AAM?$AAU?$AA?$AA@|
	DCD	0x20
	DCD	0x48005148
	DCD	0x0
	DCD	|??_C@_1BO@BBAPCNIN@?$AAC?$AAM?$AA_?$AAC?$AAL?$AAK?$AAS?$AAT?$AAS?$AAT?$AA_?$AAE?$AAM?$AAU?$AA?$AA@|
	DCD	0x20
	DCD	0x4800514c
	DCD	0x0
	DCD	|??_C@_1BO@KOAJMDPA@?$AAC?$AAM?$AA_?$AAC?$AAL?$AAK?$AAS?$AAE?$AAL?$AA2?$AA_?$AAE?$AAM?$AAU?$AA?$AA@|
	DCD	0x20
	DCD	0x48005150
	DCD	0x0
	DCD	|??_C@_1BO@DFKMIPJP@?$AAC?$AAM?$AA_?$AAC?$AAL?$AAK?$AAS?$AAE?$AAL?$AA3?$AA_?$AAE?$AAM?$AAU?$AA?$AA@|
	DCD	0x20
	DCD	0x48005154
	DCD	0x0
	DCD	|??_C@_1BM@KLCMOAEB@?$AAG?$AAl?$AAo?$AAb?$AAa?$AAl?$AA_?$AAR?$AAe?$AAg?$AA_?$AAC?$AAM?$AA?$AA@|
	DCD	0x0
	DCD	0x0
	DCD	0x0
	DCD	|??_C@_1BG@JLGAJAMH@?$AAC?$AAM?$AA_?$AAP?$AAO?$AAL?$AAC?$AAT?$AAR?$AAL?$AA?$AA@|
	DCD	0x20
	DCD	0x4800529c
	DCD	0x0
	DCD	|??_C@_1BA@HGJCCLLN@?$AAN?$AAE?$AAO?$AAN?$AA_?$AAC?$AAM?$AA?$AA@|
	DCD	0x0
	DCD	0x0
	DCD	0x0
	DCD	|??_C@_1BO@IJPLNAMK@?$AAC?$AAM?$AA_?$AAI?$AAD?$AAL?$AAE?$AAS?$AAT?$AA_?$AAN?$AAE?$AAO?$AAN?$AA?$AA@|
	DCD	0x20
	DCD	0x48005320
	DCD	0x0
	DCD	|??_C@_1CE@ECPHHBNM@?$AAC?$AAM?$AA_?$AAC?$AAL?$AAK?$AAS?$AAT?$AAC?$AAT?$AAR?$AAL?$AA_?$AAN?$AAE?$AAO?$AAN?$AA?$AA@|
	DCD	0x20
	DCD	0x48005348
	DCD	0x0
	DCD	|??_C@_1BG@GHMGBAHH@?$AAU?$AAS?$AAB?$AAH?$AAO?$AAS?$AAT?$AA_?$AAC?$AAM?$AA?$AA@|
	DCD	0x0
	DCD	0x0
	DCD	0x0
	DCD	|??_C@_1CE@IOEIODMB@?$AAC?$AAM?$AA_?$AAF?$AAC?$AAL?$AAK?$AAE?$AAN?$AA_?$AAU?$AAS?$AAB?$AAH?$AAO?$AAS?$AAT?$AA?$AA@|
	DCD	0x20
	DCD	0x48005400
	DCD	0x0
	DCD	|??_C@_1CE@DBMFEPI@?$AAC?$AAM?$AA_?$AAI?$AAC?$AAL?$AAK?$AAE?$AAN?$AA_?$AAU?$AAS?$AAB?$AAH?$AAO?$AAS?$AAT?$AA?$AA@|
	DCD	0x20
	DCD	0x48005410
	DCD	0x0
	DCD	|??_C@_1CE@JPANCJP@?$AAC?$AAM?$AA_?$AAI?$AAD?$AAL?$AAE?$AAS?$AAT?$AA_?$AAU?$AAS?$AAB?$AAH?$AAO?$AAS?$AAT?$AA?$AA@|
	DCD	0x20
	DCD	0x48005420
	DCD	0x0
	DCD	|??_C@_1CI@DGALJPCE@?$AAC?$AAM?$AA_?$AAA?$AAU?$AAT?$AAO?$AAI?$AAD?$AAL?$AAE?$AA_?$AAU?$AAS?$AAB?$AAH?$AAO?$AAS?$AAT?$AA?$AA@|
	DCD	0x20
	DCD	0x48005430
	DCD	0x0
	DCD	|??_C@_1CI@GKCHFPIN@?$AAC?$AAM?$AA_?$AAS?$AAL?$AAE?$AAE?$AAP?$AAD?$AAE?$AAP?$AA_?$AAU?$AAS?$AAB?$AAH?$AAO?$AAS?$AAT?$AA?$AA@|
	DCD	0x20
	DCD	0x48005444
	DCD	0x0
	DCD	|??_C@_1CK@EGBEEDCG@?$AAC?$AAM?$AA_?$AAC?$AAL?$AAK?$AAS?$AAT?$AAC?$AAT?$AAR?$AAL?$AA_?$AAU?$AAS?$AAB?$AAH?$AAO?$AAS?$AAT?$AA?$AA@|
	DCD	0x20
	DCD	0x48005448
	DCD	0x0
	DCD	|??_C@_1CG@EKKJOCAI@?$AAC?$AAM?$AA_?$AAC?$AAL?$AAK?$AAS?$AAT?$AAS?$AAT?$AA_?$AAU?$AAS?$AAB?$AAH?$AAO?$AAS?$AAT?$AA?$AA@|
	DCD	0x20
	DCD	0x4800544c
	DCD	0x0
	DCD	|??_C@_1BC@FAAHEALM@?$AAI?$AAV?$AAA?$AA2?$AA_?$AAP?$AAR?$AAM?$AA?$AA@|
	DCD	0x0
	DCD	0x0
	DCD	0x0
	DCD	|??_C@_1CA@GBOALOJP@?$AAR?$AAM?$AA_?$AAR?$AAS?$AAT?$AAC?$AAT?$AAR?$AAL?$AA_?$AAI?$AAV?$AAA?$AA2?$AA?$AA@|
	DCD	0x20
	DCD	0x48306050
	DCD	0x0
	DCD	|??_C@_1BM@LKPNMPAP@?$AAR?$AAM?$AA_?$AAR?$AAS?$AAT?$AAS?$AAT?$AA_?$AAI?$AAV?$AAA?$AA2?$AA?$AA@|
	DCD	0x20
	DCD	0x48306058
	DCD	0x0
	DCD	|??_C@_1BM@NLLDLBL@?$AAP?$AAM?$AA_?$AAW?$AAK?$AAD?$AAE?$AAP?$AA_?$AAI?$AAV?$AAA?$AA2?$AA?$AA@|
	DCD	0x20
	DCD	0x483060c8
	DCD	0x0
	DCD	|??_C@_1CC@CPGBPP@?$AAP?$AAM?$AA_?$AAP?$AAW?$AAS?$AAT?$AAC?$AAT?$AAR?$AAL?$AA_?$AAI?$AAV?$AAA?$AA2?$AA?$AA@|
	DCD	0x20
	DCD	0x483060e0
	DCD	0x0
	DCD	|??_C@_1BO@FHNJGKGN@?$AAP?$AAM?$AA_?$AAP?$AAW?$AAS?$AAT?$AAS?$AAT?$AA_?$AAI?$AAV?$AAA?$AA2?$AA?$AA@|
	DCD	0x20
	DCD	0x483060e4
	DCD	0x0
	DCD	|??_C@_1CE@PLIIPJHM@?$AAP?$AAM?$AA_?$AAP?$AAR?$AAE?$AAP?$AAW?$AAS?$AAT?$AAS?$AAT?$AA_?$AAI?$AAV?$AAA?$AA2?$AA?$AA@|
	DCD	0x20
	DCD	0x483060e8
	DCD	0x0
	DCD	|??_C@_1CG@HPLDFNCD@?$AAP?$AAR?$AAM?$AA_?$AAI?$AAR?$AAQ?$AAS?$AAT?$AAA?$AAT?$AAU?$AAS?$AA_?$AAI?$AAV?$AAA?$AA2?$AA?$AA@|
	DCD	0x20
	DCD	0x483060f8
	DCD	0x0
	DCD	|??_C@_1CG@LPCHCII@?$AAP?$AAR?$AAM?$AA_?$AAI?$AAR?$AAQ?$AAE?$AAN?$AAA?$AAB?$AAL?$AAE?$AA_?$AAI?$AAV?$AAA?$AA2?$AA?$AA@|
	DCD	0x20
	DCD	0x483060fc
	DCD	0x0
	DCD	|??_C@_1CG@MLMHCLLI@?$AAO?$AAC?$AAP?$AA_?$AAS?$AAy?$AAs?$AAt?$AAe?$AAm?$AA_?$AAR?$AAe?$AAg?$AA_?$AAP?$AAR?$AAM?$AA?$AA@|
	DCD	0x0
	DCD	0x0
	DCD	0x0
	DCD	|??_C@_1BK@HJNIKPGD@?$AAP?$AAR?$AAM?$AA_?$AAR?$AAE?$AAV?$AAI?$AAS?$AAI?$AAO?$AAN?$AA?$AA@|
	DCD	0x20
	DCD	0x48306804
	DCD	0x0
	DCD	|??_C@_1BM@BIKNBGAP@?$AAP?$AAR?$AAM?$AA_?$AAS?$AAY?$AAS?$AAC?$AAO?$AAN?$AAF?$AAI?$AAG?$AA?$AA@|
	DCD	0x20
	DCD	0x48306814
	DCD	0x0
	DCD	|??_C@_1CE@OGNKOJLH@?$AAP?$AAR?$AAM?$AA_?$AAI?$AAR?$AAQ?$AAS?$AAT?$AAA?$AAT?$AAU?$AAS?$AA_?$AAM?$AAP?$AAU?$AA?$AA@|
	DCD	0x20
	DCD	0x48306818
	DCD	0x0
	DCD	|??_C@_1CE@BEHICOCH@?$AAP?$AAR?$AAM?$AA_?$AAI?$AAR?$AAQ?$AAE?$AAN?$AAA?$AAB?$AAL?$AAE?$AA_?$AAM?$AAP?$AAU?$AA?$AA@|
	DCD	0x20
	DCD	0x4830681c
	DCD	0x0
	DCD	|??_C@_1BA@ICKCOBJH@?$AAM?$AAP?$AAU?$AA_?$AAP?$AAR?$AAM?$AA?$AA@|
	DCD	0x0
	DCD	0x0
	DCD	0x0
	DCD	|??_C@_1BK@JLPNAAKB@?$AAR?$AAM?$AA_?$AAR?$AAS?$AAT?$AAS?$AAT?$AA_?$AAM?$AAP?$AAU?$AA?$AA@|
	DCD	0x20
	DCD	0x48306958
	DCD	0x0
	DCD	|??_C@_1BK@OHJOBLPO@?$AAP?$AAM?$AA_?$AAW?$AAK?$AAD?$AAE?$AAP?$AA_?$AAM?$AAP?$AAU?$AA?$AA@|
	DCD	0x20
	DCD	0x483069c8
	DCD	0x0
	DCD	|??_C@_1CC@MKEFHNLB@?$AAP?$AAM?$AA_?$AAE?$AAV?$AAG?$AAE?$AAN?$AAC?$AAT?$AAR?$AAL?$AA_?$AAM?$AAP?$AAU?$AA?$AA@|
	DCD	0x20
	DCD	0x483069d4
	DCD	0x0
	DCD	|??_C@_1CE@GDJAJDKH@?$AAP?$AAM?$AA_?$AAE?$AAV?$AAG?$AAE?$AAN?$AAO?$AAN?$AAT?$AAI?$AAM?$AA_?$AAM?$AAP?$AAU?$AA?$AA@|
	DCD	0x20
	DCD	0x483069d8
	DCD	0x0
	DCD	|??_C@_1CG@EAPFPBNK@?$AAP?$AAM?$AA_?$AAE?$AAV?$AAG?$AAE?$AAN?$AAO?$AAF?$AAF?$AAT?$AAI?$AAM?$AA_?$AAM?$AAP?$AAU?$AA?$AA@|
	DCD	0x20
	DCD	0x483069dc
	DCD	0x0
	DCD	|??_C@_1CA@GOJLPOGC@?$AAP?$AAM?$AA_?$AAP?$AAW?$AAS?$AAT?$AAC?$AAT?$AAR?$AAL?$AA_?$AAM?$AAP?$AAU?$AA?$AA@|
	DCD	0x20
	DCD	0x483069e0
	DCD	0x0
	DCD	|??_C@_1BM@LELJCJGF@?$AAP?$AAM?$AA_?$AAP?$AAW?$AAS?$AAT?$AAS?$AAT?$AA_?$AAM?$AAP?$AAU?$AA?$AA@|
	DCD	0x20
	DCD	0x483069e4
	DCD	0x0
	DCD	|??_C@_1CC@GGGLCCOF@?$AAP?$AAM?$AA_?$AAP?$AAR?$AAE?$AAP?$AAW?$AAS?$AAT?$AAS?$AAT?$AA_?$AAM?$AAP?$AAU?$AA?$AA@|
	DCD	0x20
	DCD	0x483069e8
	DCD	0x0
	DCD	|??_C@_1BC@DDNPMELP@?$AAC?$AAO?$AAR?$AAE?$AA_?$AAP?$AAR?$AAM?$AA?$AA@|
	DCD	0x0
	DCD	0x0
	DCD	0x0
	DCD	|??_C@_1BM@LNIBJNNG@?$AAR?$AAM?$AA_?$AAR?$AAS?$AAT?$AAS?$AAT?$AA_?$AAC?$AAO?$AAR?$AAE?$AA?$AA@|
	DCD	0x20
	DCD	0x48306a58
	DCD	0x0
	DCD	|??_C@_1BM@KOJMJKMB@?$AAP?$AAM?$AA_?$AAW?$AAK?$AAE?$AAN?$AA1?$AA_?$AAC?$AAO?$AAR?$AAE?$AA?$AA@|
	DCD	0x20
	DCD	0x48306aa0
	DCD	0x0
	DCD	|??_C@_1CG@HJFNCJPA@?$AAP?$AAM?$AA_?$AAM?$AAP?$AAU?$AAG?$AAR?$AAP?$AAS?$AAE?$AAL?$AA1?$AA_?$AAC?$AAO?$AAR?$AAE?$AA?$AA@|
	DCD	0x20
	DCD	0x48306aa4
	DCD	0x0
	DCD	|??_C@_1CI@IHEHCOLP@?$AAP?$AAM?$AA_?$AAI?$AAV?$AAA?$AA2?$AAG?$AAR?$AAP?$AAS?$AAE?$AAL?$AA1?$AA_?$AAC?$AAO?$AAR?$AAE?$AA?$AA@|
	DCD	0x20
	DCD	0x48306aa8
	DCD	0x0
	DCD	|??_C@_1BM@JMNHPOOO@?$AAP?$AAM?$AA_?$AAW?$AAK?$AAS?$AAT?$AA1?$AA_?$AAC?$AAO?$AAR?$AAE?$AA?$AA@|
	DCD	0x20
	DCD	0x48306ab0
	DCD	0x0
	DCD	|??_C@_1BM@HNLJDKED@?$AAP?$AAM?$AA_?$AAW?$AAK?$AAS?$AAT?$AA3?$AA_?$AAC?$AAO?$AAR?$AAE?$AA?$AA@|
	DCD	0x20
	DCD	0x48306ab8
	DCD	0x0
	DCD	|??_C@_1CC@HFDDDCG@?$AAP?$AAM?$AA_?$AAP?$AAW?$AAS?$AAT?$AAC?$AAT?$AAR?$AAL?$AA_?$AAC?$AAO?$AAR?$AAE?$AA?$AA@|
	DCD	0x20
	DCD	0x48306ae0
	DCD	0x0
	DCD	|??_C@_1BO@FAKFDILE@?$AAP?$AAM?$AA_?$AAP?$AAW?$AAS?$AAT?$AAS?$AAT?$AA_?$AAC?$AAO?$AAR?$AAE?$AA?$AA@|
	DCD	0x20
	DCD	0x48306ae4
	DCD	0x0
	DCD	|??_C@_1CE@PMPEKLKF@?$AAP?$AAM?$AA_?$AAP?$AAR?$AAE?$AAP?$AAW?$AAS?$AAT?$AAS?$AAT?$AA_?$AAC?$AAO?$AAR?$AAE?$AA?$AA@|
	DCD	0x20
	DCD	0x48306ae8
	DCD	0x0
	DCD	|??_C@_1BM@EPPCFOGM@?$AAP?$AAM?$AA_?$AAW?$AAK?$AAE?$AAN?$AA3?$AA_?$AAC?$AAO?$AAR?$AAE?$AA?$AA@|
	DCD	0x20
	DCD	0x48306af0
	DCD	0x0
	DCD	|??_C@_1CI@GGCJOKBC@?$AAP?$AAM?$AA_?$AAI?$AAV?$AAA?$AA2?$AAG?$AAR?$AAP?$AAS?$AAE?$AAL?$AA3?$AA_?$AAC?$AAO?$AAR?$AAE?$AA?$AA@|
	DCD	0x20
	DCD	0x48306af4
	DCD	0x0
	DCD	|??_C@_1CG@JIDDONFN@?$AAP?$AAM?$AA_?$AAM?$AAP?$AAU?$AAG?$AAR?$AAP?$AAS?$AAE?$AAL?$AA3?$AA_?$AAC?$AAO?$AAR?$AAE?$AA?$AA@|
	DCD	0x20
	DCD	0x48306af8
	DCD	0x0
	DCD	|??_C@_1BA@NJNHLOOA@?$AAS?$AAG?$AAX?$AA_?$AAP?$AAR?$AAM?$AA?$AA@|
	DCD	0x0
	DCD	0x0
	DCD	0x0
	DCD	|??_C@_1BK@BOHFMJEG@?$AAR?$AAM?$AA_?$AAR?$AAS?$AAT?$AAS?$AAT?$AA_?$AAS?$AAG?$AAX?$AA?$AA@|
	DCD	0x20
	DCD	0x48306b58
	DCD	0x0
	DCD	|??_C@_1BK@GCBGNCBJ@?$AAP?$AAM?$AA_?$AAW?$AAK?$AAD?$AAE?$AAP?$AA_?$AAS?$AAG?$AAX?$AA?$AA@|
	DCD	0x20
	DCD	0x48306bc8
	DCD	0x0
	DCD	|??_C@_1CA@OLBDDHIF@?$AAP?$AAM?$AA_?$AAP?$AAW?$AAS?$AAT?$AAC?$AAT?$AAR?$AAL?$AA_?$AAS?$AAG?$AAX?$AA?$AA@|
	DCD	0x20
	DCD	0x48306be0
	DCD	0x0
	DCD	|??_C@_1BM@DBDBOAIC@?$AAP?$AAM?$AA_?$AAP?$AAW?$AAS?$AAT?$AAS?$AAT?$AA_?$AAS?$AAG?$AAX?$AA?$AA@|
	DCD	0x20
	DCD	0x48306be4
	DCD	0x0
	DCD	|??_C@_1CC@ODODOLAC@?$AAP?$AAM?$AA_?$AAP?$AAR?$AAE?$AAP?$AAW?$AAS?$AAT?$AAS?$AAT?$AA_?$AAS?$AAG?$AAX?$AA?$AA@|
	DCD	0x20
	DCD	0x48306be8
	DCD	0x0
	DCD	|??_C@_1BC@DDJDDDAK@?$AAW?$AAK?$AAU?$AAP?$AA_?$AAP?$AAR?$AAM?$AA?$AA@|
	DCD	0x0
	DCD	0x0
	DCD	0x0
	DCD	|??_C@_1BK@MGPBAGAB@?$AAP?$AAM?$AA_?$AAW?$AAK?$AAE?$AAN?$AA_?$AAW?$AAK?$AAU?$AAP?$AA?$AA@|
	DCD	0x20
	DCD	0x48306ca0
	DCD	0x0
	DCD	|??_C@_1CE@KLFJHCLF@?$AAP?$AAM?$AA_?$AAM?$AAP?$AAU?$AAG?$AAR?$AAP?$AAS?$AAE?$AAL?$AA_?$AAW?$AAK?$AAU?$AAP?$AA?$AA@|
	DCD	0x20
	DCD	0x48306ca4
	DCD	0x0
	DCD	|??_C@_1CG@NGIEHFMC@?$AAP?$AAM?$AA_?$AAI?$AAV?$AAA?$AA2?$AAG?$AAR?$AAP?$AAS?$AAE?$AAL?$AA_?$AAW?$AAK?$AAU?$AAP?$AA?$AA@|
	DCD	0x20
	DCD	0x48306ca8
	DCD	0x0
	DCD	|??_C@_1BK@MHMCLHIM@?$AAP?$AAM?$AA_?$AAW?$AAK?$AAS?$AAT?$AA_?$AAW?$AAK?$AAU?$AAP?$AA?$AA@|
	DCD	0x20
	DCD	0x48306cb0
	DCD	0x0
	DCD	|??_C@_1CM@BOLGGOBJ@?$AAC?$AAl?$AAo?$AAc?$AAk?$AA_?$AAC?$AAo?$AAn?$AAt?$AAr?$AAo?$AAl?$AA_?$AAR?$AAe?$AAg?$AA_?$AAP?$AAR?$AAM?$AA?$AA@|
	DCD	0x0
	DCD	0x0
	DCD	0x0
	DCD	|??_C@_1BG@BPBPBGIA@?$AAP?$AAR?$AAM?$AA_?$AAC?$AAL?$AAK?$AAS?$AAE?$AAL?$AA?$AA@|
	DCD	0x20
	DCD	0x48306d40
	DCD	0x0
	DCD	|??_C@_1CA@PGMOAOBH@?$AAP?$AAR?$AAM?$AA_?$AAC?$AAL?$AAK?$AAO?$AAU?$AAT?$AA_?$AAC?$AAT?$AAR?$AAL?$AA?$AA@|
	DCD	0x20
	DCD	0x48306d70
	DCD	0x0
	DCD	|??_C@_1BA@MMIFGPHC@?$AAD?$AAS?$AAS?$AA_?$AAP?$AAR?$AAM?$AA?$AA@|
	DCD	0x0
	DCD	0x0
	DCD	0x0
	DCD	|??_C@_1BK@CHENDGPI@?$AAR?$AAM?$AA_?$AAR?$AAS?$AAT?$AAS?$AAT?$AA_?$AAD?$AAS?$AAS?$AA?$AA@|
	DCD	0x20
	DCD	0x48306e58
	DCD	0x0
	DCD	|??_C@_1BI@DPCLPEKM@?$AAP?$AAM?$AA_?$AAW?$AAK?$AAE?$AAN?$AA_?$AAD?$AAS?$AAS?$AA?$AA@|
	DCD	0x20
