; Listing generated by Microsoft (R) Optimizing Compiler Version 14.01.60511.01 

	TTL	C:\WINCE600\PLATFORM\COMMON\SRC\SOC\OMAP5912_MS_V1\OAL\INTR\map.c
	CODE32

  00000			 AREA	 |.drectve|, DRECTVE
	DCB	"-defaultlib:LIBCMT "
	DCB	"-defaultlib:OLDNAMES "


  00000			 AREA	 |.rdata|, DATA, READONLY
|EdbgVendorIds| DCW 0x0
	DCW	0x0
	DCD	0x4033
	DCB	0x1
	DCB	"AD", 0x0
	DCW	0x1050
	DCW	0x940
	DCD	0x4005
	DCB	0x1
	DCB	"LS", 0x0
	DCW	0x1050
	DCW	0x940
	DCD	0x2078
	DCB	0x1
	DCB	"LS", 0x0
	DCW	0x10ec
	DCW	0x8029
	DCD	0xc0f0
	DCB	0x1
	DCB	"KS", 0x0
	DCW	0x10ec
	DCW	0x8129
	DCD	0x0
	DCB	0x4
	DCB	"RT", 0x0
	DCW	0x10ec
	DCW	0x8139
	DCD	0x900b
	DCB	0x4
	DCB	"RT", 0x0
	DCW	0x10ec
	DCW	0x8139
	DCD	0xd0c9
	DCB	0x4
	DCB	"RT", 0x0
	DCW	0x10ec
	DCW	0x8139
	DCD	0xe04c
	DCB	0x4
	DCB	"RT", 0x0
	DCW	0x1186
	DCW	0x1300
	DCD	0x50ba
	DCB	0x4
	DCB	"DL", 0x0
	DCW	0x100b
	DCW	0x20
	DCD	0xa0cc
	DCB	0x5
	DCB	"NG", 0x0
	DCW	0x10b7
	DCW	0x9050
	DCD	0x6008
	DCB	0x6
	DCB	"3C", 0x0
	DCW	0x10b7
	DCW	0x9200
	DCD	0x476
	DCB	0x6
	DCB	"3C", 0x0
	EXPORT	|??_C@_1CO@DBMFJBPK@?$AA?9?$AAO?$AAE?$AAM?$AAI?$AAn?$AAt?$AAe?$AAr?$AAr?$AAu?$AAp?$AAt?$AAM?$AAa?$AAp?$AAI?$AAn?$AAi?$AAt?$AA?$AN?$AA?6?$AA?$AA@| [ DATA ] ; `string'
	EXPORT	|??_C@_1CO@OKABMONB@?$AA?$CL?$AAO?$AAE?$AAM?$AAI?$AAn?$AAt?$AAe?$AAr?$AAr?$AAu?$AAp?$AAt?$AAM?$AAa?$AAp?$AAI?$AAn?$AAi?$AAt?$AA?$AN?$AA?6?$AA?$AA@| [ DATA ] ; `string'
	EXPORT	|OALIntrMapInit|
	IMPORT	|NKDbgPrintfW|
	IMPORT	|dpCurSettings|

  00000			 AREA	 |.bss|, NOINIT
|g_oalIrq2SysIntr| % 0x3c0
|g_oalSysIntr2Irq| % 0x480

  00000			 AREA	 |.pdata|, PDATA
|$T44120| DCD	|$LN18@OALIntrMap|
	DCD	0x40005802
; File c:\wince600\platform\common\src\soc\omap5912_ms_v1\oal\intr\map.c

  00000			 AREA	 |.rdata|, DATA, READONLY
|??_C@_1CO@DBMFJBPK@?$AA?9?$AAO?$AAE?$AAM?$AAI?$AAn?$AAt?$AAe?$AAr?$AAr?$AAu?$AAp?$AAt?$AAM?$AAa?$AAp?$AAI?$AAn?$AAi?$AAt?$AA?$AN?$AA?6?$AA?$AA@| DCB "-"
	DCB	0x0, "O", 0x0, "E", 0x0, "M", 0x0, "I", 0x0, "n", 0x0, "t"
	DCB	0x0, "e", 0x0, "r", 0x0, "r", 0x0, "u", 0x0, "p", 0x0, "t"
	DCB	0x0, "M", 0x0, "a", 0x0, "p", 0x0, "I", 0x0, "n", 0x0, "i"
	DCB	0x0, "t", 0x0, 0xd, 0x0, 0xa, 0x0, 0x0, 0x0 ; `string'

  00000			 AREA	 |.rdata|, DATA, READONLY
|??_C@_1CO@OKABMONB@?$AA?$CL?$AAO?$AAE?$AAM?$AAI?$AAn?$AAt?$AAe?$AAr?$AAr?$AAu?$AAp?$AAt?$AAM?$AAa?$AAp?$AAI?$AAn?$AAi?$AAt?$AA?$AN?$AA?6?$AA?$AA@| DCB "+"
	DCB	0x0, "O", 0x0, "E", 0x0, "M", 0x0, "I", 0x0, "n", 0x0, "t"
	DCB	0x0, "e", 0x0, "r", 0x0, "r", 0x0, "u", 0x0, "p", 0x0, "t"
	DCB	0x0, "M", 0x0, "a", 0x0, "p", 0x0, "I", 0x0, "n", 0x0, "i"
	DCB	0x0, "t", 0x0, 0xd, 0x0, 0xa, 0x0, 0x0, 0x0 ; `string'
; Function compile flags: /Odtp

  00000			 AREA	 |.text|, CODE, ARM

  00000		 |OALIntrMapInit| PROC

; 45   : {

  00000		 |$LN18@OALIntrMap|
  00000	e52de004	 str         lr, [sp, #-4]!
  00004	e24dd010	 sub         sp, sp, #0x10
  00008		 |$M44117|

; 46   :     UINT32 i, j;
; 47   : 
; 48   :     OALMSG(OAL_FUNC&&OAL_INTR, (L"+OEMInterruptMapInit\r\n"));

  00008	e59f3140	 ldr         r3, [pc, #0x140]
  0000c	e5933440	 ldr         r3, [r3, #0x440]
  00010	e3130004	 tst         r3, #4
  00014	0a000008	 beq         |$LN12@OALIntrMap|
  00018	e59f3130	 ldr         r3, [pc, #0x130]
  0001c	e5933440	 ldr         r3, [r3, #0x440]
  00020	e3130901	 tst         r3, #1, 18
  00024	0a000004	 beq         |$LN12@OALIntrMap|
  00028	e59f012c	 ldr         r0, [pc, #0x12C]
  0002c	eb000000	 bl          NKDbgPrintfW
  00030	e3a03001	 mov         r3, #1
  00034	e58d3008	 str         r3, [sp, #8]
  00038	ea000001	 b           |$LN13@OALIntrMap|
  0003c		 |$LN12@OALIntrMap|
  0003c	e3a03000	 mov         r3, #0
  00040	e58d3008	 str         r3, [sp, #8]
  00044		 |$LN13@OALIntrMap|

; 49   : 
; 50   :     // Initialize interrupt maps
; 51   :     for (i = 0; i < SYSINTR_MAXIMUM; i++)

  00044	e3a03000	 mov         r3, #0
  00048	e58d3000	 str         r3, [sp]
  0004c	ea000002	 b           |$LN9@OALIntrMap|
  00050		 |$LN8@OALIntrMap|
  00050	e59d3000	 ldr         r3, [sp]
  00054	e2833001	 add         r3, r3, #1
  00058	e58d3000	 str         r3, [sp]
  0005c		 |$LN9@OALIntrMap|
  0005c	e59d3000	 ldr         r3, [sp]
  00060	e3530048	 cmp         r3, #0x48
  00064	2a000015	 bcs         |$LN7@OALIntrMap|

; 52   :         {
; 53   :         for (j = 0; j < OMAP5912_IRQ_PER_SYSINTR; j++)

  00068	e3a03000	 mov         r3, #0
  0006c	e58d3004	 str         r3, [sp, #4]
  00070	ea000002	 b           |$LN6@OALIntrMap|
  00074		 |$LN5@OALIntrMap|
  00074	e59d3004	 ldr         r3, [sp, #4]
  00078	e2833001	 add         r3, r3, #1
  0007c	e58d3004	 str         r3, [sp, #4]
  00080		 |$LN6@OALIntrMap|
  00080	e59d3004	 ldr         r3, [sp, #4]
  00084	e3530004	 cmp         r3, #4
  00088	2a00000b	 bcs         |$LN4@OALIntrMap|

; 54   :             {
; 55   :             g_oalSysIntr2Irq[i][j] = OAL_INTR_IRQ_UNDEFINED;

  0008c	e59d1000	 ldr         r1, [sp]
  00090	e3a03010	 mov         r3, #0x10
  00094	e0020391	 mul         r2, r1, r3
  00098	e59f30b8	 ldr         r3, [pc, #0xB8]
  0009c	e0831002	 add         r1, r3, r2
  000a0	e59d2004	 ldr         r2, [sp, #4]
  000a4	e3a03004	 mov         r3, #4
  000a8	e0030392	 mul         r3, r2, r3
  000ac	e0812003	 add         r2, r1, r3
  000b0	e3e03000	 mvn         r3, #0
  000b4	e5823000	 str         r3, [r2]

; 56   :             }

  000b8	eaffffed	 b           |$LN5@OALIntrMap|
  000bc		 |$LN4@OALIntrMap|

; 57   :         }

  000bc	eaffffe3	 b           |$LN8@OALIntrMap|
  000c0		 |$LN7@OALIntrMap|

; 58   :     for (i = 0; i < OMAP5912_IRQ_MAXIMUM; i++)

  000c0	e3a03000	 mov         r3, #0
  000c4	e58d3000	 str         r3, [sp]
  000c8	ea000002	 b           |$LN3@OALIntrMap|
  000cc		 |$LN2@OALIntrMap|
  000cc	e59d3000	 ldr         r3, [sp]
  000d0	e2833001	 add         r3, r3, #1
  000d4	e58d3000	 str         r3, [sp]
  000d8		 |$LN3@OALIntrMap|
  000d8	e59d3000	 ldr         r3, [sp]
  000dc	e35300f0	 cmp         r3, #0xF0
  000e0	2a000007	 bcs         |$LN1@OALIntrMap|

; 59   :         {
; 60   :         g_oalIrq2SysIntr[i] = SYSINTR_UNDEFINED;

  000e4	e59d1000	 ldr         r1, [sp]
  000e8	e3a03004	 mov         r3, #4
  000ec	e0020391	 mul         r2, r1, r3
  000f0	e59f305c	 ldr         r3, [pc, #0x5C]
  000f4	e0832002	 add         r2, r3, r2
  000f8	e3e03000	 mvn         r3, #0
  000fc	e5823000	 str         r3, [r2]

; 61   :         }

  00100	eafffff1	 b           |$LN2@OALIntrMap|
  00104		 |$LN1@OALIntrMap|

; 62   : 
; 63   :     OALMSG(OAL_FUNC&&OAL_INTR, (L"-OEMInterruptMapInit\r\n"));

  00104	e59f3044	 ldr         r3, [pc, #0x44]
  00108	e5933440	 ldr         r3, [r3, #0x440]
  0010c	e3130004	 tst         r3, #4
  00110	0a000008	 beq         |$LN14@OALIntrMap|
  00114	e59f3034	 ldr         r3, [pc, #0x34]
  00118	e5933440	 ldr         r3, [r3, #0x440]
  0011c	e3130901	 tst         r3, #1, 18
  00120	0a000004	 beq         |$LN14@OALIntrMap|
  00124	e59f0020	 ldr         r0, [pc, #0x20]
  00128	eb000000	 bl          NKDbgPrintfW
  0012c	e3a03001	 mov         r3, #1
  00130	e58d300c	 str         r3, [sp, #0xC]
  00134	ea000001	 b           |$LN15@OALIntrMap|
  00138		 |$LN14@OALIntrMap|
  00138	e3a03000	 mov         r3, #0
  0013c	e58d300c	 str         r3, [sp, #0xC]
  00140		 |$LN15@OALIntrMap|

; 64   : }

  00140	e28dd010	 add         sp, sp, #0x10
  00144	e49de004	 ldr         lr, [sp], #4
  00148	e12fff1e	 bx          lr
  0014c		 |$LN19@OALIntrMap|
  0014c		 |$LN20@OALIntrMap|
  0014c	00000000	 DCD         |??_C@_1CO@DBMFJBPK@?$AA?9?$AAO?$AAE?$AAM?$AAI?$AAn?$AAt?$AAe?$AAr?$AAr?$AAu?$AAp?$AAt?$AAM?$AAa?$AAp?$AAI?$AAn?$AAi?$AAt?$AA?$AN?$AA?6?$AA?$AA@|
  00150		 |$LN21@OALIntrMap|
  00150	00000000	 DCD         |dpCurSettings|
  00154		 |$LN22@OALIntrMap|
  00154	00000000	 DCD         |g_oalIrq2SysIntr|
  00158		 |$LN23@OALIntrMap|
  00158	00000000	 DCD         |g_oalSysIntr2Irq|
  0015c		 |$LN24@OALIntrMap|
  0015c	00000000	 DCD         |??_C@_1CO@OKABMONB@?$AA?$CL?$AAO?$AAE?$AAM?$AAI?$AAn?$AAt?$AAe?$AAr?$AAr?$AAu?$AAp?$AAt?$AAM?$AAa?$AAp?$AAI?$AAn?$AAi?$AAt?$AA?$AN?$AA?6?$AA?$AA@|
  00160		 |$M44118|

			 ENDP  ; |OALIntrMapInit|

	EXPORT	|??_C@_1DE@CBLJKBBB@?$AA?9?$AAO?$AAA?$AAL?$AAI?$AAn?$AAt?$AAr?$AAS?$AAt?$AAa?$AAt?$AAi?$AAc?$AAT?$AAr?$AAa?$AAn?$AAs?$AAl?$AAa?$AAt?$AAe?$AA?$AN?$AA?6?$AA?$AA@| [ DATA ] ; `string'
	EXPORT	|??_C@_1EE@DPKCCBO@?$AA?$CL?$AAO?$AAA?$AAL?$AAI?$AAn?$AAt?$AAr?$AAS?$AAt?$AAa?$AAt?$AAi?$AAc?$AAT?$AAr?$AAa?$AAn?$AAs?$AAl?$AAa?$AAt?$AAe?$AA?$CI?$AA?$CF?$AAd?$AA?0?$AA?5?$AA?$CF?$AAd?$AA?$CJ?$AA?$AN@| [ DATA ] ; `string'
	EXPORT	|OALIntrStaticTranslate|

  00008			 AREA	 |.pdata|, PDATA
|$T44135| DCD	|$LN15@OALIntrSta|
	DCD	0x40005d04

  00000			 AREA	 |.rdata|, DATA, READONLY
|??_C@_1DE@CBLJKBBB@?$AA?9?$AAO?$AAA?$AAL?$AAI?$AAn?$AAt?$AAr?$AAS?$AAt?$AAa?$AAt?$AAi?$AAc?$AAT?$AAr?$AAa?$AAn?$AAs?$AAl?$AAa?$AAt?$AAe?$AA?$AN?$AA?6?$AA?$AA@| DCB "-"
	DCB	0x0, "O", 0x0, "A", 0x0, "L", 0x0, "I", 0x0, "n", 0x0, "t"
	DCB	0x0, "r", 0x0, "S", 0x0, "t", 0x0, "a", 0x0, "t", 0x0, "i"
	DCB	0x0, "c", 0x0, "T", 0x0, "r", 0x0, "a", 0x0, "n", 0x0, "s"
	DCB	0x0, "l", 0x0, "a", 0x0, "t", 0x0, "e", 0x0, 0xd, 0x0, 0xa
	DCB	0x0, 0x0, 0x0				; `string'

  00000			 AREA	 |.rdata|, DATA, READONLY
|??_C@_1EE@DPKCCBO@?$AA?$CL?$AAO?$AAA?$AAL?$AAI?$AAn?$AAt?$AAr?$AAS?$AAt?$AAa?$AAt?$AAi?$AAc?$AAT?$AAr?$AAa?$AAn?$AAs?$AAl?$AAa?$AAt?$AAe?$AA?$CI?$AA?$CF?$AAd?$AA?0?$AA?5?$AA?$CF?$AAd?$AA?$CJ?$AA?$AN@| DCB "+"
	DCB	0x0, "O", 0x0, "A", 0x0, "L", 0x0, "I", 0x0, "n", 0x0, "t"
	DCB	0x0, "r", 0x0, "S", 0x0, "t", 0x0, "a", 0x0, "t", 0x0, "i"
	DCB	0x0, "c", 0x0, "T", 0x0, "r", 0x0, "a", 0x0, "n", 0x0, "s"
	DCB	0x0, "l", 0x0, "a", 0x0, "t", 0x0, "e", 0x0, "(", 0x0, "%"
	DCB	0x0, "d", 0x0, ",", 0x0, " ", 0x0, "%", 0x0, "d", 0x0, ")"
	DCB	0x0, 0xd, 0x0, 0xa, 0x0, 0x0, 0x0	; `string'
; Function compile flags: /Odtp

  00160			 AREA	 |.text|, CODE, ARM

  00160		 |OALIntrStaticTranslate| PROC

; 77   : {

  00160		 |$LN15@OALIntrSta|
  00160	e1a0c00d	 mov         r12, sp
  00164	e92d0003	 stmdb       sp!, {r0, r1}
  00168	e92d5000	 stmdb       sp!, {r12, lr}
  0016c	e24dd00c	 sub         sp, sp, #0xC
  00170		 |$M44132|

; 78   :     UINT32 i;
; 79   : 
; 80   :     OALMSG(OAL_FUNC&&OAL_INTR, (
; 81   :         L"+OALIntrStaticTranslate(%d, %d)\r\n", sysIntr, irq
; 82   :         ));

  00170	e59f314c	 ldr         r3, [pc, #0x14C]
  00174	e5933440	 ldr         r3, [r3, #0x440]
  00178	e3130004	 tst         r3, #4
  0017c	0a00000a	 beq         |$LN9@OALIntrSta|
  00180	e59f313c	 ldr         r3, [pc, #0x13C]
  00184	e5933440	 ldr         r3, [r3, #0x440]
  00188	e3130901	 tst         r3, #1, 18
  0018c	0a000006	 beq         |$LN9@OALIntrSta|
  00190	e59d2018	 ldr         r2, [sp, #0x18]
  00194	e59d1014	 ldr         r1, [sp, #0x14]
  00198	e59f0130	 ldr         r0, [pc, #0x130]
  0019c	eb000000	 bl          NKDbgPrintfW
  001a0	e3a03001	 mov         r3, #1
  001a4	e58d3004	 str         r3, [sp, #4]
  001a8	ea000001	 b           |$LN10@OALIntrSta|
  001ac		 |$LN9@OALIntrSta|
  001ac	e3a03000	 mov         r3, #0
  001b0	e58d3004	 str         r3, [sp, #4]
  001b4		 |$LN10@OALIntrSta|

; 83   :     if ((irq >= OMAP5912_IRQ_MAXIMUM) || (sysIntr >= SYSINTR_MAXIMUM))

  001b4	e59d3018	 ldr         r3, [sp, #0x18]
  001b8	e35300f0	 cmp         r3, #0xF0
  001bc	2a000002	 bcs         |$LN5@OALIntrSta|
  001c0	e59d3014	 ldr         r3, [sp, #0x14]
  001c4	e3530048	 cmp         r3, #0x48
  001c8	3a000000	 bcc         |$LN6@OALIntrSta|
  001cc		 |$LN5@OALIntrSta|

; 84   :         goto cleanUp;

  001cc	ea000029	 b           |$cleanUp$43927|
  001d0		 |$LN6@OALIntrSta|

; 85   : 
; 86   :     for (i = 0; i < OMAP5912_IRQ_PER_SYSINTR; i++)

  001d0	e3a03000	 mov         r3, #0
  001d4	e58d3000	 str         r3, [sp]
  001d8	ea000002	 b           |$LN4@OALIntrSta|
  001dc		 |$LN3@OALIntrSta|
  001dc	e59d3000	 ldr         r3, [sp]
  001e0	e2833001	 add         r3, r3, #1
  001e4	e58d3000	 str         r3, [sp]
  001e8		 |$LN4@OALIntrSta|
  001e8	e59d3000	 ldr         r3, [sp]
  001ec	e3530004	 cmp         r3, #4
  001f0	2a000020	 bcs         |$LN2@OALIntrSta|

; 87   :         {
; 88   :         if (g_oalSysIntr2Irq[sysIntr][i] != OAL_INTR_IRQ_UNDEFINED) continue;

  001f4	e59d1014	 ldr         r1, [sp, #0x14]
  001f8	e3a03010	 mov         r3, #0x10
  001fc	e0020391	 mul         r2, r1, r3
  00200	e59f30c4	 ldr         r3, [pc, #0xC4]
  00204	e0831002	 add         r1, r3, r2
  00208	e59d2000	 ldr         r2, [sp]
  0020c	e3a03004	 mov         r3, #4
  00210	e0030392	 mul         r3, r2, r3
  00214	e0813003	 add         r3, r1, r3
  00218	e5933000	 ldr         r3, [r3]
  0021c	e3730001	 cmn         r3, #1
  00220	0a000000	 beq         |$LN1@OALIntrSta|
  00224	eaffffec	 b           |$LN3@OALIntrSta|
  00228		 |$LN1@OALIntrSta|

; 89   :         g_oalSysIntr2Irq[sysIntr][i] = irq;

  00228	e59d1014	 ldr         r1, [sp, #0x14]
  0022c	e3a03010	 mov         r3, #0x10
  00230	e0020391	 mul         r2, r1, r3
  00234	e59f3090	 ldr         r3, [pc, #0x90]
  00238	e0831002	 add         r1, r3, r2
  0023c	e59d2000	 ldr         r2, [sp]
  00240	e3a03004	 mov         r3, #4
  00244	e0030392	 mul         r3, r2, r3
  00248	e0812003	 add         r2, r1, r3
  0024c	e59d3018	 ldr         r3, [sp, #0x18]
  00250	e5823000	 str         r3, [r2]

; 90   :         g_oalIrq2SysIntr[irq] = sysIntr;

  00254	e59d1018	 ldr         r1, [sp, #0x18]
  00258	e3a03004	 mov         r3, #4
  0025c	e0020391	 mul         r2, r1, r3
  00260	e59f3060	 ldr         r3, [pc, #0x60]
  00264	e0832002	 add         r2, r3, r2
  00268	e59d3014	 ldr         r3, [sp, #0x14]
  0026c	e5823000	 str         r3, [r2]

; 91   :         break;

  00270	ea000000	 b           |$LN2@OALIntrSta|

; 92   :         }

  00274	eaffffd8	 b           |$LN3@OALIntrSta|
  00278		 |$LN2@OALIntrSta|
  00278		 |$cleanUp$43927|

; 93   : 
; 94   : cleanUp:
; 95   :     OALMSG(OAL_FUNC&&OAL_INTR, (L"-OALIntrStaticTranslate\r\n"));

  00278	e59f3044	 ldr         r3, [pc, #0x44]
  0027c	e5933440	 ldr         r3, [r3, #0x440]
  00280	e3130004	 tst         r3, #4
  00284	0a000008	 beq         |$LN11@OALIntrSta|
  00288	e59f3034	 ldr         r3, [pc, #0x34]
  0028c	e5933440	 ldr         r3, [r3, #0x440]
  00290	e3130901	 tst         r3, #1, 18
  00294	0a000004	 beq         |$LN11@OALIntrSta|
  00298	e59f0020	 ldr         r0, [pc, #0x20]
  0029c	eb000000	 bl          NKDbgPrintfW
  002a0	e3a03001	 mov         r3, #1
  002a4	e58d3008	 str         r3, [sp, #8]
  002a8	ea000001	 b           |$LN12@OALIntrSta|
  002ac		 |$LN11@OALIntrSta|
  002ac	e3a03000	 mov         r3, #0
  002b0	e58d3008	 str         r3, [sp, #8]
  002b4		 |$LN12@OALIntrSta|

; 96   : }

  002b4	e28dd00c	 add         sp, sp, #0xC
  002b8	e89d6000	 ldmia       sp, {sp, lr}
  002bc	e12fff1e	 bx          lr
  002c0		 |$LN16@OALIntrSta|
  002c0		 |$LN17@OALIntrSta|
  002c0	00000000	 DCD         |??_C@_1DE@CBLJKBBB@?$AA?9?$AAO?$AAA?$AAL?$AAI?$AAn?$AAt?$AAr?$AAS?$AAt?$AAa?$AAt?$AAi?$AAc?$AAT?$AAr?$AAa?$AAn?$AAs?$AAl?$AAa?$AAt?$AAe?$AA?$AN?$AA?6?$AA?$AA@|
  002c4		 |$LN18@OALIntrSta|
  002c4	00000000	 DCD         |dpCurSettings|
  002c8		 |$LN19@OALIntrSta|
  002c8	00000000	 DCD         |g_oalIrq2SysIntr|
  002cc		 |$LN20@OALIntrSta|
  002cc	00000000	 DCD         |g_oalSysIntr2Irq|
  002d0		 |$LN21@OALIntrSta|
  002d0	00000000	 DCD         |??_C@_1EE@DPKCCBO@?$AA?$CL?$AAO?$AAA?$AAL?$AAI?$AAn?$AAt?$AAr?$AAS?$AAt?$AAa?$AAt?$AAi?$AAc?$AAT?$AAr?$AAa?$AAn?$AAs?$AAl?$AAa?$AAt?$AAe?$AA?$CI?$AA?$CF?$AAd?$AA?0?$AA?5?$AA?$CF?$AAd?$AA?$CJ?$AA?$AN@|
  002d4		 |$M44133|

			 ENDP  ; |OALIntrStaticTranslate|

	EXPORT	|??_C@_1EA@JDMBMDEN@?$AA?9?$AAO?$AAA?$AAL?$AAT?$AAr?$AAa?$AAn?$AAs?$AAl?$AAa?$AAt?$AAe?$AAS?$AAy?$AAs?$AAI?$AAn?$AAt?$AAr?$AA?$CI?$AAr?$AAc?$AA?5?$AA?$DN?$AA?5?$AA?$CF?$AAd?$AA?$CJ?$AA?$AN?$AA?6?$AA?$AA@| [ DATA ] ; `string'
	EXPORT	|??_C@_1DG@HAMHNOBJ@?$AA?$CL?$AAO?$AAA?$AAL?$AAT?$AAr?$AAa?$AAn?$AAs?$AAl?$AAa?$AAt?$AAe?$AAS?$AAy?$AAs?$AAI?$AAn?$AAt?$AAr?$AA?$CI?$AA?$CF?$AAd?$AA?$CJ?$AA?$AN?$AA?6?$AA?$AA@| [ DATA ] ; `string'
	EXPORT	|OALIntrTranslateSysIntr|

  00010			 AREA	 |.pdata|, PDATA
|$T44151| DCD	|$LN10@OALIntrTra|
	DCD	0x40004004

  00000			 AREA	 |.rdata|, DATA, READONLY
|??_C@_1EA@JDMBMDEN@?$AA?9?$AAO?$AAA?$AAL?$AAT?$AAr?$AAa?$AAn?$AAs?$AAl?$AAa?$AAt?$AAe?$AAS?$AAy?$AAs?$AAI?$AAn?$AAt?$AAr?$AA?$CI?$AAr?$AAc?$AA?5?$AA?$DN?$AA?5?$AA?$CF?$AAd?$AA?$CJ?$AA?$AN?$AA?6?$AA?$AA@| DCB "-"
	DCB	0x0, "O", 0x0, "A", 0x0, "L", 0x0, "T", 0x0, "r", 0x0, "a"
	DCB	0x0, "n", 0x0, "s", 0x0, "l", 0x0, "a", 0x0, "t", 0x0, "e"
	DCB	0x0, "S", 0x0, "y", 0x0, "s", 0x0, "I", 0x0, "n", 0x0, "t"
	DCB	0x0, "r", 0x0, "(", 0x0, "r", 0x0, "c", 0x0, " ", 0x0, "="
	DCB	0x0, " ", 0x0, "%", 0x0, "d", 0x0, ")", 0x0, 0xd, 0x0, 0xa
	DCB	0x0, 0x0, 0x0				; `string'

  00000			 AREA	 |.rdata|, DATA, READONLY
|??_C@_1DG@HAMHNOBJ@?$AA?$CL?$AAO?$AAA?$AAL?$AAT?$AAr?$AAa?$AAn?$AAs?$AAl?$AAa?$AAt?$AAe?$AAS?$AAy?$AAs?$AAI?$AAn?$AAt?$AAr?$AA?$CI?$AA?$CF?$AAd?$AA?$CJ?$AA?$AN?$AA?6?$AA?$AA@| DCB "+"
	DCB	0x0, "O", 0x0, "A", 0x0, "L", 0x0, "T", 0x0, "r", 0x0, "a"
	DCB	0x0, "n", 0x0, "s", 0x0, "l", 0x0, "a", 0x0, "t", 0x0, "e"
	DCB	0x0, "S", 0x0, "y", 0x0, "s", 0x0, "I", 0x0, "n", 0x0, "t"
	DCB	0x0, "r", 0x0, "(", 0x0, "%", 0x0, "d", 0x0, ")", 0x0, 0xd
	DCB	0x0, 0xa, 0x0, 0x0, 0x0			; `string'
; Function compile flags: /Odtp

  002d4			 AREA	 |.text|, CODE, ARM

  002d4		 |OALIntrTranslateSysIntr| PROC

; 111  : {

  002d4		 |$LN10@OALIntrTra|
  002d4	e1a0c00d	 mov         r12, sp
  002d8	e92d0007	 stmdb       sp!, {r0 - r2}
  002dc	e92d5000	 stmdb       sp!, {r12, lr}
  002e0	e24dd010	 sub         sp, sp, #0x10
  002e4		 |$M44148|

; 112  :     BOOL rc;
; 113  : 
; 114  :     OALMSG(OAL_INTR&&OAL_VERBOSE, (L"+OALTranslateSysIntr(%d)\r\n", sysIntr));

  002e4	e59f30dc	 ldr         r3, [pc, #0xDC]
  002e8	e5933440	 ldr         r3, [r3, #0x440]
  002ec	e3130901	 tst         r3, #1, 18
  002f0	0a000009	 beq         |$LN4@OALIntrTra|
  002f4	e59f30cc	 ldr         r3, [pc, #0xCC]
  002f8	e5933440	 ldr         r3, [r3, #0x440]
  002fc	e3130902	 tst         r3, #2, 18
  00300	0a000005	 beq         |$LN4@OALIntrTra|
  00304	e59d1018	 ldr         r1, [sp, #0x18]
  00308	e59f00c0	 ldr         r0, [pc, #0xC0]
  0030c	eb000000	 bl          NKDbgPrintfW
  00310	e3a03001	 mov         r3, #1
  00314	e58d3008	 str         r3, [sp, #8]
  00318	ea000001	 b           |$LN5@OALIntrTra|
  0031c		 |$LN4@OALIntrTra|
  0031c	e3a03000	 mov         r3, #0
  00320	e58d3008	 str         r3, [sp, #8]
  00324		 |$LN5@OALIntrTra|

; 115  : 
; 116  :     // Valid SYSINTR?
; 117  :     if (sysIntr >= SYSINTR_MAXIMUM)

  00324	e59d3018	 ldr         r3, [sp, #0x18]
  00328	e3530048	 cmp         r3, #0x48
  0032c	3a000002	 bcc         |$LN1@OALIntrTra|

; 118  :         {
; 119  :         rc = FALSE;

  00330	e3a03000	 mov         r3, #0
  00334	e58d3000	 str         r3, [sp]

; 120  :         goto cleanUp;

  00338	ea00000b	 b           |$cleanUp$43945|
  0033c		 |$LN1@OALIntrTra|

; 121  :         }
; 122  :     *pCount = OMAP5912_IRQ_PER_SYSINTR;

  0033c	e59d201c	 ldr         r2, [sp, #0x1C]
  00340	e3a03004	 mov         r3, #4
  00344	e5823000	 str         r3, [r2]

; 123  :     *ppIrqs = g_oalSysIntr2Irq[sysIntr];

  00348	e59d1018	 ldr         r1, [sp, #0x18]
  0034c	e3a03010	 mov         r3, #0x10
  00350	e0020391	 mul         r2, r1, r3
  00354	e59f3070	 ldr         r3, [pc, #0x70]
  00358	e0832002	 add         r2, r3, r2
  0035c	e59d3020	 ldr         r3, [sp, #0x20]
  00360	e5832000	 str         r2, [r3]

; 124  :     rc = TRUE;

  00364	e3a03001	 mov         r3, #1
  00368	e58d3000	 str         r3, [sp]
  0036c		 |$cleanUp$43945|

; 125  : 
; 126  : cleanUp:
; 127  :     OALMSG(OAL_INTR&&OAL_VERBOSE, (L"-OALTranslateSysIntr(rc = %d)\r\n", rc));

  0036c	e59f3054	 ldr         r3, [pc, #0x54]
  00370	e5933440	 ldr         r3, [r3, #0x440]
  00374	e3130901	 tst         r3, #1, 18
  00378	0a000009	 beq         |$LN6@OALIntrTra|
  0037c	e59f3044	 ldr         r3, [pc, #0x44]
  00380	e5933440	 ldr         r3, [r3, #0x440]
  00384	e3130902	 tst         r3, #2, 18
  00388	0a000005	 beq         |$LN6@OALIntrTra|
  0038c	e59d1000	 ldr         r1, [sp]
  00390	e59f002c	 ldr         r0, [pc, #0x2C]
  00394	eb000000	 bl          NKDbgPrintfW
  00398	e3a03001	 mov         r3, #1
  0039c	e58d300c	 str         r3, [sp, #0xC]
  003a0	ea000001	 b           |$LN7@OALIntrTra|
  003a4		 |$LN6@OALIntrTra|
  003a4	e3a03000	 mov         r3, #0
  003a8	e58d300c	 str         r3, [sp, #0xC]
  003ac		 |$LN7@OALIntrTra|

; 128  :     return rc;

  003ac	e59d3000	 ldr         r3, [sp]
  003b0	e58d3004	 str         r3, [sp, #4]

; 129  : }

  003b4	e59d0004	 ldr         r0, [sp, #4]
  003b8	e28dd010	 add         sp, sp, #0x10
  003bc	e89d6000	 ldmia       sp, {sp, lr}
  003c0	e12fff1e	 bx          lr
  003c4		 |$LN11@OALIntrTra|
  003c4		 |$LN12@OALIntrTra|
  003c4	00000000	 DCD         |??_C@_1EA@JDMBMDEN@?$AA?9?$AAO?$AAA?$AAL?$AAT?$AAr?$AAa?$AAn?$AAs?$AAl?$AAa?$AAt?$AAe?$AAS?$AAy?$AAs?$AAI?$AAn?$AAt?$AAr?$AA?$CI?$AAr?$AAc?$AA?5?$AA?$DN?$AA?5?$AA?$CF?$AAd?$AA?$CJ?$AA?$AN?$AA?6?$AA?$AA@|
  003c8		 |$LN13@OALIntrTra|
  003c8	00000000	 DCD         |dpCurSettings|
  003cc		 |$LN14@OALIntrTra|
  003cc	00000000	 DCD         |g_oalSysIntr2Irq|
  003d0		 |$LN15@OALIntrTra|
  003d0	00000000	 DCD         |??_C@_1DG@HAMHNOBJ@?$AA?$CL?$AAO?$AAA?$AAL?$AAT?$AAr?$AAa?$AAn?$AAs?$AAl?$AAa?$AAt?$AAe?$AAS?$AAy?$AAs?$AAI?$AAn?$AAt?$AAr?$AA?$CI?$AA?$CF?$AAd?$AA?$CJ?$AA?$AN?$AA?6?$AA?$AA@|
  003d4		 |$M44149|

			 ENDP  ; |OALIntrTranslateSysIntr|

	EXPORT	|??_C@_1EK@JOJPHPGP@?$AA?9?$AAO?$AAA?$AAL?$AAI?$AAn?$AAt?$AAr?$AAT?$AAr?$AAa?$AAn?$AAs?$AAl?$AAa?$AAt?$AAe?$AAI?$AAr?$AAq?$AA?$CI?$AAs?$AAy?$AAs?$AAI?$AAn?$AAt?$AAr?$AA?5?$AA?$DN?$AA?5?$AA?$CF@| [ DATA ] ; `string'
	EXPORT	|??_C@_1DG@IAFKCJEB@?$AA?$CL?$AAO?$AAA?$AAL?$AAI?$AAn?$AAt?$AAr?$AAT?$AAr?$AAa?$AAn?$AAs?$AAl?$AAa?$AAt?$AAe?$AAI?$AAr?$AAq?$AA?$CI?$AA?$CF?$AAd?$AA?$CJ?$AA?$AN?$AA?6?$AA?$AA@| [ DATA ] ; `string'
	EXPORT	|OALIntrTranslateIrq|

  00018			 AREA	 |.pdata|, PDATA
|$T44166| DCD	|$LN10@OALIntrTra@2|
	DCD	0x40003a04

  00000			 AREA	 |.rdata|, DATA, READONLY
|??_C@_1EK@JOJPHPGP@?$AA?9?$AAO?$AAA?$AAL?$AAI?$AAn?$AAt?$AAr?$AAT?$AAr?$AAa?$AAn?$AAs?$AAl?$AAa?$AAt?$AAe?$AAI?$AAr?$AAq?$AA?$CI?$AAs?$AAy?$AAs?$AAI?$AAn?$AAt?$AAr?$AA?5?$AA?$DN?$AA?5?$AA?$CF@| DCB "-"
	DCB	0x0, "O", 0x0, "A", 0x0, "L", 0x0, "I", 0x0, "n", 0x0, "t"
	DCB	0x0, "r", 0x0, "T", 0x0, "r", 0x0, "a", 0x0, "n", 0x0, "s"
	DCB	0x0, "l", 0x0, "a", 0x0, "t", 0x0, "e", 0x0, "I", 0x0, "r"
	DCB	0x0, "q", 0x0, "(", 0x0, "s", 0x0, "y", 0x0, "s", 0x0, "I"
	DCB	0x0, "n", 0x0, "t", 0x0, "r", 0x0, " ", 0x0, "=", 0x0, " "
	DCB	0x0, "%", 0x0, "d", 0x0, ")", 0x0, 0xd, 0x0, 0xa, 0x0, 0x0
	DCB	0x0					; `string'

  00000			 AREA	 |.rdata|, DATA, READONLY
|??_C@_1DG@IAFKCJEB@?$AA?$CL?$AAO?$AAA?$AAL?$AAI?$AAn?$AAt?$AAr?$AAT?$AAr?$AAa?$AAn?$AAs?$AAl?$AAa?$AAt?$AAe?$AAI?$AAr?$AAq?$AA?$CI?$AA?$CF?$AAd?$AA?$CJ?$AA?$AN?$AA?6?$AA?$AA@| DCB "+"
	DCB	0x0, "O", 0x0, "A", 0x0, "L", 0x0, "I", 0x0, "n", 0x0, "t"
	DCB	0x0, "r", 0x0, "T", 0x0, "r", 0x0, "a", 0x0, "n", 0x0, "s"
	DCB	0x0, "l", 0x0, "a", 0x0, "t", 0x0, "e", 0x0, "I", 0x0, "r"
	DCB	0x0, "q", 0x0, "(", 0x0, "%", 0x0, "d", 0x0, ")", 0x0, 0xd
	DCB	0x0, 0xa, 0x0, 0x0, 0x0			; `string'
; Function compile flags: /Odtp

  003d4			 AREA	 |.text|, CODE, ARM

  003d4		 |OALIntrTranslateIrq| PROC

; 141  : {

  003d4		 |$LN10@OALIntrTra@2|
  003d4	e1a0c00d	 mov         r12, sp
  003d8	e92d0001	 stmdb       sp!, {r0}
  003dc	e92d5000	 stmdb       sp!, {r12, lr}
  003e0	e24dd010	 sub         sp, sp, #0x10
  003e4		 |$M44163|

; 142  :     UINT32 sysIntr = SYSINTR_UNDEFINED;

  003e4	e3e03000	 mvn         r3, #0
  003e8	e58d3000	 str         r3, [sp]

; 143  : 
; 144  :     OALMSG(OAL_FUNC&&OAL_VERBOSE, (L"+OALIntrTranslateIrq(%d)\r\n", irq));

  003ec	e59f30bc	 ldr         r3, [pc, #0xBC]
  003f0	e5933440	 ldr         r3, [r3, #0x440]
  003f4	e3130004	 tst         r3, #4
  003f8	0a000009	 beq         |$LN4@OALIntrTra@2|
  003fc	e59f30ac	 ldr         r3, [pc, #0xAC]
  00400	e5933440	 ldr         r3, [r3, #0x440]
  00404	e3130902	 tst         r3, #2, 18
  00408	0a000005	 beq         |$LN4@OALIntrTra@2|
  0040c	e59d1018	 ldr         r1, [sp, #0x18]
  00410	e59f00a0	 ldr         r0, [pc, #0xA0]
  00414	eb000000	 bl          NKDbgPrintfW
  00418	e3a03001	 mov         r3, #1
  0041c	e58d3008	 str         r3, [sp, #8]
  00420	ea000001	 b           |$LN5@OALIntrTra@2|
  00424		 |$LN4@OALIntrTra@2|
  00424	e3a03000	 mov         r3, #0
  00428	e58d3008	 str         r3, [sp, #8]
  0042c		 |$LN5@OALIntrTra@2|

; 145  : 
; 146  :     if (irq < OMAP5912_IRQ_MAXIMUM) sysIntr = g_oalIrq2SysIntr[irq];

  0042c	e59d3018	 ldr         r3, [sp, #0x18]
  00430	e35300f0	 cmp         r3, #0xF0
  00434	2a000006	 bcs         |$LN1@OALIntrTra@2|
  00438	e59d1018	 ldr         r1, [sp, #0x18]
  0043c	e3a03004	 mov         r3, #4
  00440	e0020391	 mul         r2, r1, r3
  00444	e59f3068	 ldr         r3, [pc, #0x68]
  00448	e0833002	 add         r3, r3, r2
  0044c	e5933000	 ldr         r3, [r3]
  00450	e58d3000	 str         r3, [sp]
  00454		 |$LN1@OALIntrTra@2|

; 147  : 
; 148  :     OALMSG(OAL_FUNC&&OAL_VERBOSE, (
; 149  :         L"-OALIntrTranslateIrq(sysIntr = %d)\r\n", sysIntr
; 150  :         ));

  00454	e59f3054	 ldr         r3, [pc, #0x54]
  00458	e5933440	 ldr         r3, [r3, #0x440]
  0045c	e3130004	 tst         r3, #4
  00460	0a000009	 beq         |$LN6@OALIntrTra@2|
  00464	e59f3044	 ldr         r3, [pc, #0x44]
  00468	e5933440	 ldr         r3, [r3, #0x440]
  0046c	e3130902	 tst         r3, #2, 18
  00470	0a000005	 beq         |$LN6@OALIntrTra@2|
  00474	e59d1000	 ldr         r1, [sp]
  00478	e59f002c	 ldr         r0, [pc, #0x2C]
  0047c	eb000000	 bl          NKDbgPrintfW
  00480	e3a03001	 mov         r3, #1
  00484	e58d300c	 str         r3, [sp, #0xC]
  00488	ea000001	 b           |$LN7@OALIntrTra@2|
  0048c		 |$LN6@OALIntrTra@2|
  0048c	e3a03000	 mov         r3, #0
  00490	e58d300c	 str         r3, [sp, #0xC]
  00494		 |$LN7@OALIntrTra@2|

; 151  :     return sysIntr;

  00494	e59d3000	 ldr         r3, [sp]
  00498	e58d3004	 str         r3, [sp, #4]

; 152  : }

  0049c	e59d0004	 ldr         r0, [sp, #4]
  004a0	e28dd010	 add         sp, sp, #0x10
  004a4	e89d6000	 ldmia       sp, {sp, lr}
  004a8	e12fff1e	 bx          lr
  004ac		 |$LN11@OALIntrTra@2|
  004ac		 |$LN12@OALIntrTra@2|
  004ac	00000000	 DCD         |??_C@_1EK@JOJPHPGP@?$AA?9?$AAO?$AAA?$AAL?$AAI?$AAn?$AAt?$AAr?$AAT?$AAr?$AAa?$AAn?$AAs?$AAl?$AAa?$AAt?$AAe?$AAI?$AAr?$AAq?$AA?$CI?$AAs?$AAy?$AAs?$AAI?$AAn?$AAt?$AAr?$AA?5?$AA?$DN?$AA?5?$AA?$CF@|
  004b0		 |$LN13@OALIntrTra@2|
  004b0	00000000	 DCD         |dpCurSettings|
  004b4		 |$LN14@OALIntrTra@2|
  004b4	00000000	 DCD         |g_oalIrq2SysIntr|
  004b8		 |$LN15@OALIntrTra@2|
  004b8	00000000	 DCD         |??_C@_1DG@IAFKCJEB@?$AA?$CL?$AAO?$AAA?$AAL?$AAI?$AAn?$AAt?$AAr?$AAT?$AAr?$AAa?$AAn?$AAs?$AAl?$AAa?$AAt?$AAe?$AAI?$AAr?$AAq?$AA?$CI?$AA?$CF?$AAd?$AA?$CJ?$AA?$AN?$AA?6?$AA?$AA@|
  004bc		 |$M44164|

			 ENDP  ; |OALIntrTranslateIrq|

	EXPORT	|??_C@_1EO@CCPDBEFN@?$AA?9?$AAO?$AAA?$AAL?$AAI?$AAn?$AAt?$AAr?$AAR?$AAe?$AAq?$AAu?$AAe?$AAs?$AAt?$AAS?$AAy?$AAs?$AAI?$AAn?$AAt?$AAr?$AA?$CI?$AAs?$AAy?$AAs?$AAI?$AAn?$AAt?$AAr?$AA?5?$AA?$DN@| [ DATA ] ; `string'
	EXPORT	|??_C@_1HG@GANLJKGD@?$AAE?$AAR?$AAR?$AAO?$AAR?$AA?3?$AA?5?$AAO?$AAA?$AAL?$AAI?$AAn?$AAt?$AAr?$AAR?$AAe?$AAq?$AAu?$AAe?$AAs?$AAt?$AAS?$AAy?$AAs?$AAI?$AAn?$AAt?$AAr?$AA?3?$AA?5?$AAN?$AAo@| [ DATA ] ; `string'
	EXPORT	|??_C@_1JG@CKDDKDGB@?$AAE?$AAR?$AAR?$AAO?$AAR?$AA?3?$AA?5?$AAO?$AAA?$AAL?$AAI?$AAn?$AAt?$AAr?$AAR?$AAe?$AAq?$AAu?$AAe?$AAs?$AAt?$AAS?$AAy?$AAs?$AAI?$AAn?$AAt?$AAr?$AA?3?$AA?5?$AAS?$AAt@| [ DATA ] ; `string'
	EXPORT	|??_C@_1GI@NODFOAGP@?$AAE?$AAR?$AAR?$AAO?$AAR?$AA?3?$AA?5?$AAO?$AAA?$AAL?$AAI?$AAn?$AAt?$AAr?$AAR?$AAe?$AAq?$AAu?$AAe?$AAs?$AAt?$AAS?$AAy?$AAs?$AAI?$AAn?$AAt?$AAr?$AA?3?$AA?5?$AAI?$AAR@| [ DATA ] ; `string'
	EXPORT	|??_C@_1IM@ENJFJBNJ@?$AAE?$AAR?$AAR?$AAO?$AAR?$AA?3?$AA?5?$AAO?$AAA?$AAL?$AAI?$AAn?$AAt?$AAr?$AAR?$AAe?$AAq?$AAu?$AAe?$AAs?$AAt?$AAS?$AAy?$AAs?$AAI?$AAn?$AAt?$AAr?$AA?3?$AA?5?$AAO?$AAn@| [ DATA ] ; `string'
	EXPORT	|??_C@_1FK@JNHCPMAP@?$AA?$CL?$AAO?$AAA?$AAL?$AAI?$AAn?$AAt?$AAr?$AAR?$AAe?$AAq?$AAu?$AAe?$AAs?$AAt?$AAS?$AAy?$AAs?$AAI?$AAn?$AAt?$AAr?$AA?$CI?$AA?$CF?$AAd?$AA?0?$AA?5?$AA0?$AAx?$AA?$CF?$AA0?$AA8@| [ DATA ] ; `string'
	EXPORT	|OALIntrRequestSysIntr|

  00020			 AREA	 |.pdata|, PDATA
|$T44195| DCD	|$LN57@OALIntrReq|
	DCD	0x4001a104

  00000			 AREA	 |.rdata|, DATA, READONLY
|??_C@_1EO@CCPDBEFN@?$AA?9?$AAO?$AAA?$AAL?$AAI?$AAn?$AAt?$AAr?$AAR?$AAe?$AAq?$AAu?$AAe?$AAs?$AAt?$AAS?$AAy?$AAs?$AAI?$AAn?$AAt?$AAr?$AA?$CI?$AAs?$AAy?$AAs?$AAI?$AAn?$AAt?$AAr?$AA?5?$AA?$DN@| DCB "-"
	DCB	0x0, "O", 0x0, "A", 0x0, "L", 0x0, "I", 0x0, "n", 0x0, "t"
	DCB	0x0, "r", 0x0, "R", 0x0, "e", 0x0, "q", 0x0, "u", 0x0, "e"
	DCB	0x0, "s", 0x0, "t", 0x0, "S", 0x0, "y", 0x0, "s", 0x0, "I"
	DCB	0x0, "n", 0x0, "t", 0x0, "r", 0x0, "(", 0x0, "s", 0x0, "y"
	DCB	0x0, "s", 0x0, "I", 0x0, "n", 0x0, "t", 0x0, "r", 0x0, " "
	DCB	0x0, "=", 0x0, " ", 0x0, "%", 0x0, "d", 0x0, ")", 0x0, 0xd
	DCB	0x0, 0xa, 0x0, 0x0, 0x0			; `string'

  00000			 AREA	 |.rdata|, DATA, READONLY
|??_C@_1HG@GANLJKGD@?$AAE?$AAR?$AAR?$AAO?$AAR?$AA?3?$AA?5?$AAO?$AAA?$AAL?$AAI?$AAn?$AAt?$AAr?$AAR?$AAe?$AAq?$AAu?$AAe?$AAs?$AAt?$AAS?$AAy?$AAs?$AAI?$AAn?$AAt?$AAr?$AA?3?$AA?5?$AAN?$AAo@| DCB "E"
	DCB	0x0, "R", 0x0, "R", 0x0, "O", 0x0, "R", 0x0, ":", 0x0, " "
	DCB	0x0, "O", 0x0, "A", 0x0, "L", 0x0, "I", 0x0, "n", 0x0, "t"
	DCB	0x0, "r", 0x0, "R", 0x0, "e", 0x0, "q", 0x0, "u", 0x0, "e"
	DCB	0x0, "s", 0x0, "t", 0x0, "S", 0x0, "y", 0x0, "s", 0x0, "I"
	DCB	0x0, "n", 0x0, "t", 0x0, "r", 0x0, ":", 0x0, " ", 0x0, "N"
	DCB	0x0, "o", 0x0, " ", 0x0, "a", 0x0, "v", 0x0, "a", 0x0, "i"
	DCB	0x0, "l", 0x0, "a", 0x0, "b", 0x0, "l", 0x0, "e", 0x0, " "
	DCB	0x0, "S", 0x0, "Y", 0x0, "S", 0x0, "I", 0x0, "N", 0x0, "T"
	DCB	0x0, "R", 0x0, " ", 0x0, "f", 0x0, "o", 0x0, "u", 0x0, "n"
	DCB	0x0, "d", 0x0, 0xd, 0x0, 0xa, 0x0, 0x0, 0x0 ; `string'

  00000			 AREA	 |.rdata|, DATA, READONLY
|??_C@_1JG@CKDDKDGB@?$AAE?$AAR?$AAR?$AAO?$AAR?$AA?3?$AA?5?$AAO?$AAA?$AAL?$AAI?$AAn?$AAt?$AAr?$AAR?$AAe?$AAq?$AAu?$AAe?$AAs?$AAt?$AAS?$AAy?$AAs?$AAI?$AAn?$AAt?$AAr?$AA?3?$AA?5?$AAS?$AAt@| DCB "E"
	DCB	0x0, "R", 0x0, "R", 0x0, "O", 0x0, "R", 0x0, ":", 0x0, " "
	DCB	0x0, "O", 0x0, "A", 0x0, "L", 0x0, "I", 0x0, "n", 0x0, "t"
	DCB	0x0, "r", 0x0, "R", 0x0, "e", 0x0, "q", 0x0, "u", 0x0, "e"
	DCB	0x0, "s", 0x0, "t", 0x0, "S", 0x0, "y", 0x0, "s", 0x0, "I"
	DCB	0x0, "n", 0x0, "t", 0x0, "r", 0x0, ":", 0x0, " ", 0x0, "S"
	DCB	0x0, "t", 0x0, "a", 0x0, "t", 0x0, "i", 0x0, "c", 0x0, " "
	DCB	0x0, "m", 0x0, "a", 0x0, "p", 0x0, "p", 0x0, "i", 0x0, "n"
	DCB	0x0, "g", 0x0, " ", 0x0, "f", 0x0, "o", 0x0, "r", 0x0, " "
	DCB	0x0, "I", 0x0, "R", 0x0, "Q", 0x0, " ", 0x0, "%", 0x0, "d"
	DCB	0x0, " ", 0x0, "a", 0x0, "l", 0x0, "r", 0x0, "e", 0x0, "a"
	DCB	0x0, "d", 0x0, "y", 0x0, " ", 0x0, "a", 0x0, "s", 0x0, "s"
	DCB	0x0, "i", 0x0, "g", 0x0, "n", 0x0, "e", 0x0, "d", 0x0, 0xd
	DCB	0x0, 0xa, 0x0, 0x0, 0x0			; `string'

  00000			 AREA	 |.rdata|, DATA, READONLY
|??_C@_1GI@NODFOAGP@?$AAE?$AAR?$AAR?$AAO?$AAR?$AA?3?$AA?5?$AAO?$AAA?$AAL?$AAI?$AAn?$AAt?$AAr?$AAR?$AAe?$AAq?$AAu?$AAe?$AAs?$AAt?$AAS?$AAy?$AAs?$AAI?$AAn?$AAt?$AAr?$AA?3?$AA?5?$AAI?$AAR@| DCB "E"
	DCB	0x0, "R", 0x0, "R", 0x0, "O", 0x0, "R", 0x0, ":", 0x0, " "
	DCB	0x0, "O", 0x0, "A", 0x0, "L", 0x0, "I", 0x0, "n", 0x0, "t"
	DCB	0x0, "r", 0x0, "R", 0x0, "e", 0x0, "q", 0x0, "u", 0x0, "e"
	DCB	0x0, "s", 0x0, "t", 0x0, "S", 0x0, "y", 0x0, "s", 0x0, "I"
	DCB	0x0, "n", 0x0, "t", 0x0, "r", 0x0, ":", 0x0, " ", 0x0, "I"
	DCB	0x0, "R", 0x0, "Q", 0x0, " ", 0x0, "%", 0x0, "d", 0x0, " "
	DCB	0x0, "o", 0x0, "u", 0x0, "t", 0x0, " ", 0x0, "o", 0x0, "f"
	DCB	0x0, " ", 0x0, "r", 0x0, "a", 0x0, "n", 0x0, "g", 0x0, "e"
	DCB	0x0, 0xd, 0x0, 0xa, 0x0, 0x0, 0x0	; `string'

  00000			 AREA	 |.rdata|, DATA, READONLY
|??_C@_1IM@ENJFJBNJ@?$AAE?$AAR?$AAR?$AAO?$AAR?$AA?3?$AA?5?$AAO?$AAA?$AAL?$AAI?$AAn?$AAt?$AAr?$AAR?$AAe?$AAq?$AAu?$AAe?$AAs?$AAt?$AAS?$AAy?$AAs?$AAI?$AAn?$AAt?$AAr?$AA?3?$AA?5?$AAO?$AAn@| DCB "E"
	DCB	0x0, "R", 0x0, "R", 0x0, "O", 0x0, "R", 0x0, ":", 0x0, " "
	DCB	0x0, "O", 0x0, "A", 0x0, "L", 0x0, "I", 0x0, "n", 0x0, "t"
	DCB	0x0, "r", 0x0, "R", 0x0, "e", 0x0, "q", 0x0, "u", 0x0, "e"
	DCB	0x0, "s", 0x0, "t", 0x0, "S", 0x0, "y", 0x0, "s", 0x0, "I"
	DCB	0x0, "n", 0x0, "t", 0x0, "r", 0x0, ":", 0x0, " ", 0x0, "O"
	DCB	0x0, "n", 0x0, "l", 0x0, "y", 0x0, " ", 0x0, "%", 0x0, "d"
	DCB	0x0, " ", 0x0, "I", 0x0, "R", 0x0, "Q", 0x0, "s", 0x0, " "
	DCB	0x0, "f", 0x0, "o", 0x0, "r", 0x0, " ", 0x0, "S", 0x0, "Y"
	DCB	0x0, "S", 0x0, "I", 0x0, "N", 0x0, "T", 0x0, "R", 0x0, " "
	DCB	0x0, "i", 0x0, "s", 0x0, " ", 0x0, "s", 0x0, "u", 0x0, "p"
	DCB	0x0, "p", 0x0, "o", 0x0, "r", 0x0, "t", 0x0, "e", 0x0, "d"
	DCB	0x0, 0xd, 0x0, 0xa, 0x0, 0x0, 0x0	; `string'

  00000			 AREA	 |.rdata|, DATA, READONLY
|??_C@_1FK@JNHCPMAP@?$AA?$CL?$AAO?$AAA?$AAL?$AAI?$AAn?$AAt?$AAr?$AAR?$AAe?$AAq?$AAu?$AAe?$AAs?$AAt?$AAS?$AAy?$AAs?$AAI?$AAn?$AAt?$AAr?$AA?$CI?$AA?$CF?$AAd?$AA?0?$AA?5?$AA0?$AAx?$AA?$CF?$AA0?$AA8@| DCB "+"
	DCB	0x0, "O", 0x0, "A", 0x0, "L", 0x0, "I", 0x0, "n", 0x0, "t"
	DCB	0x0, "r", 0x0, "R", 0x0, "e", 0x0, "q", 0x0, "u", 0x0, "e"
	DCB	0x0, "s", 0x0, "t", 0x0, "S", 0x0, "y", 0x0, "s", 0x0, "I"
	DCB	0x0, "n", 0x0, "t", 0x0, "r", 0x0, "(", 0x0, "%", 0x0, "d"
	DCB	0x0, ",", 0x0, " ", 0x0, "0", 0x0, "x", 0x0, "%", 0x0, "0"
	DCB	0x0, "8", 0x0, "x", 0x0, ",", 0x0, " ", 0x0, "0", 0x0, "x"
	DCB	0x0, "%", 0x0, "0", 0x0, "8", 0x0, "x", 0x0, ")", 0x0, 0xd
	DCB	0x0, 0xa, 0x0, 0x0, 0x0			; `string'
; Function compile flags: /Odtp

  004bc			 AREA	 |.text|, CODE, ARM

  004bc		 |OALIntrRequestSysIntr| PROC

; 167  : {

  004bc		 |$LN57@OALIntrReq|
  004bc	e1a0c00d	 mov         r12, sp
  004c0	e92d0007	 stmdb       sp!, {r0 - r2}
  004c4	e92d5000	 stmdb       sp!, {r12, lr}
  004c8	e24dd034	 sub         sp, sp, #0x34
  004cc		 |$M44192|

; 168  :     UINT32 sysIntr, i, j;
; 169  : 
; 170  : 
; 171  :     OALMSG(OAL_INTR&&OAL_FUNC, (
; 172  :         L"+OALIntrRequestSysIntr(%d, 0x%08x, 0x%08x)\r\n", count, pIrqs, flags
; 173  :         ));

  004cc	e59f364c	 ldr         r3, [pc, #0x64C]
  004d0	e5933440	 ldr         r3, [r3, #0x440]
  004d4	e3130901	 tst         r3, #1, 18
  004d8	0a00000b	 beq         |$LN37@OALIntrReq|
  004dc	e59f363c	 ldr         r3, [pc, #0x63C]
  004e0	e5933440	 ldr         r3, [r3, #0x440]
  004e4	e3130004	 tst         r3, #4
  004e8	0a000007	 beq         |$LN37@OALIntrReq|
  004ec	e59d3044	 ldr         r3, [sp, #0x44]
  004f0	e59d2040	 ldr         r2, [sp, #0x40]
  004f4	e59d103c	 ldr         r1, [sp, #0x3C]
  004f8	e59f063c	 ldr         r0, [pc, #0x63C]
  004fc	eb000000	 bl          NKDbgPrintfW
  00500	e3a03001	 mov         r3, #1
  00504	e58d3010	 str         r3, [sp, #0x10]
  00508	ea000001	 b           |$LN38@OALIntrReq|
  0050c		 |$LN37@OALIntrReq|
  0050c	e3a03000	 mov         r3, #0
  00510	e58d3010	 str         r3, [sp, #0x10]
  00514		 |$LN38@OALIntrReq|

; 174  : 
; 175  :     // Valid IRQ?
; 176  :     if (count > OMAP5912_IRQ_PER_SYSINTR)

  00514	e59d303c	 ldr         r3, [sp, #0x3C]
  00518	e3530004	 cmp         r3, #4
  0051c	9a00000e	 bls         |$LN34@OALIntrReq|

; 177  :         {
; 178  :         OALMSG(OAL_ERROR, (L"ERROR: OALIntrRequestSysIntr: "
; 179  :             L"Only %d IRQs for SYSINTR is supported\r\n",
; 180  :             OMAP5912_IRQ_PER_SYSINTR
; 181  :             ));

  00520	e59f35f8	 ldr         r3, [pc, #0x5F8]
  00524	e5933440	 ldr         r3, [r3, #0x440]
  00528	e3130001	 tst         r3, #1
  0052c	0a000005	 beq         |$LN39@OALIntrReq|
  00530	e3a01004	 mov         r1, #4
  00534	e59f05fc	 ldr         r0, [pc, #0x5FC]
  00538	eb000000	 bl          NKDbgPrintfW
  0053c	e3a03001	 mov         r3, #1
  00540	e58d3014	 str         r3, [sp, #0x14]
  00544	ea000001	 b           |$LN40@OALIntrReq|
  00548		 |$LN39@OALIntrReq|
  00548	e3a03000	 mov         r3, #0
  0054c	e58d3014	 str         r3, [sp, #0x14]
  00550		 |$LN40@OALIntrReq|

; 182  :         sysIntr = SYSINTR_UNDEFINED;

  00550	e3e03000	 mvn         r3, #0
  00554	e58d3000	 str         r3, [sp]

; 183  :         goto cleanUp;

  00558	ea000159	 b           |$cleanUp$43972|
  0055c		 |$LN34@OALIntrReq|

; 184  :         }
; 185  : 
; 186  :     // If static mapping is requested check if we can obtain one
; 187  :     if ((flags & OAL_INTR_STATIC) != 0)

  0055c	e59d3044	 ldr         r3, [sp, #0x44]
  00560	e3130002	 tst         r3, #2
  00564	0a000047	 beq         |$LN33@OALIntrReq|

; 188  :         {
; 189  :         for (i = 0; i < count; i++)

  00568	e3a03000	 mov         r3, #0
  0056c	e58d3004	 str         r3, [sp, #4]
  00570	ea000002	 b           |$LN32@OALIntrReq|
  00574		 |$LN31@OALIntrReq|
  00574	e59d3004	 ldr         r3, [sp, #4]
  00578	e2833001	 add         r3, r3, #1
  0057c	e58d3004	 str         r3, [sp, #4]
  00580		 |$LN32@OALIntrReq|
  00580	e59d2004	 ldr         r2, [sp, #4]
  00584	e59d303c	 ldr         r3, [sp, #0x3C]
  00588	e1520003	 cmp         r2, r3
  0058c	2a00003d	 bcs         |$LN30@OALIntrReq|

; 190  :             {
; 191  :             if (pIrqs[i] >= OMAP5912_IRQ_MAXIMUM)

  00590	e59d1004	 ldr         r1, [sp, #4]
  00594	e3a03004	 mov         r3, #4
  00598	e0020391	 mul         r2, r1, r3
  0059c	e59d3040	 ldr         r3, [sp, #0x40]
  005a0	e0833002	 add         r3, r3, r2
  005a4	e5933000	 ldr         r3, [r3]
  005a8	e35300f0	 cmp         r3, #0xF0
  005ac	3a000013	 bcc         |$LN29@OALIntrReq|

; 192  :                 {
; 193  :                 OALMSG(OAL_ERROR, (L"ERROR: OALIntrRequestSysIntr: "
; 194  :                     L"IRQ %d out of range\r\n", pIrqs[i]
; 195  :                     ));

  005b0	e59f3568	 ldr         r3, [pc, #0x568]
  005b4	e5933440	 ldr         r3, [r3, #0x440]
  005b8	e3130001	 tst         r3, #1
  005bc	0a00000a	 beq         |$LN41@OALIntrReq|
  005c0	e59d1004	 ldr         r1, [sp, #4]
  005c4	e3a03004	 mov         r3, #4
  005c8	e0020391	 mul         r2, r1, r3
  005cc	e59d3040	 ldr         r3, [sp, #0x40]
  005d0	e0833002	 add         r3, r3, r2
  005d4	e5931000	 ldr         r1, [r3]
  005d8	e59f054c	 ldr         r0, [pc, #0x54C]
  005dc	eb000000	 bl          NKDbgPrintfW
  005e0	e3a03001	 mov         r3, #1
  005e4	e58d3018	 str         r3, [sp, #0x18]
  005e8	ea000001	 b           |$LN42@OALIntrReq|
  005ec		 |$LN41@OALIntrReq|
  005ec	e3a03000	 mov         r3, #0
  005f0	e58d3018	 str         r3, [sp, #0x18]
  005f4		 |$LN42@OALIntrReq|

; 196  :                 sysIntr = SYSINTR_UNDEFINED;

  005f4	e3e03000	 mvn         r3, #0
  005f8	e58d3000	 str         r3, [sp]

; 197  :                 goto cleanUp;

  005fc	ea000130	 b           |$cleanUp$43972|
  00600		 |$LN29@OALIntrReq|

; 198  :                 }
; 199  : 
; 200  :             if (g_oalIrq2SysIntr[pIrqs[i]] != SYSINTR_UNDEFINED)

  00600	e59d1004	 ldr         r1, [sp, #4]
  00604	e3a03004	 mov         r3, #4
  00608	e0020391	 mul         r2, r1, r3
  0060c	e59d3040	 ldr         r3, [sp, #0x40]
  00610	e0833002	 add         r3, r3, r2
  00614	e5931000	 ldr         r1, [r3]
  00618	e3a03004	 mov         r3, #4
  0061c	e0020391	 mul         r2, r1, r3
  00620	e59f34fc	 ldr         r3, [pc, #0x4FC]
  00624	e0833002	 add         r3, r3, r2
  00628	e5933000	 ldr         r3, [r3]
  0062c	e3730001	 cmn         r3, #1
  00630	0a000013	 beq         |$LN28@OALIntrReq|

; 201  :                 {
; 202  :                 OALMSG(OAL_ERROR, (L"ERROR: OALIntrRequestSysIntr: "
; 203  :                     L"Static mapping for IRQ %d already assigned\r\n", pIrqs[i]
; 204  :                     ));

  00634	e59f34e4	 ldr         r3, [pc, #0x4E4]
  00638	e5933440	 ldr         r3, [r3, #0x440]
  0063c	e3130001	 tst         r3, #1
  00640	0a00000a	 beq         |$LN43@OALIntrReq|
  00644	e59d1004	 ldr         r1, [sp, #4]
  00648	e3a03004	 mov         r3, #4
  0064c	e0020391	 mul         r2, r1, r3
  00650	e59d3040	 ldr         r3, [sp, #0x40]
  00654	e0833002	 add         r3, r3, r2
  00658	e5931000	 ldr         r1, [r3]
  0065c	e59f04d0	 ldr         r0, [pc, #0x4D0]
  00660	eb000000	 bl          NKDbgPrintfW
  00664	e3a03001	 mov         r3, #1
  00668	e58d301c	 str         r3, [sp, #0x1C]
  0066c	ea000001	 b           |$LN44@OALIntrReq|
  00670		 |$LN43@OALIntrReq|
  00670	e3a03000	 mov         r3, #0
  00674	e58d301c	 str         r3, [sp, #0x1C]
  00678		 |$LN44@OALIntrReq|

; 205  :                 sysIntr = SYSINTR_UNDEFINED;

  00678	e3e03000	 mvn         r3, #0
  0067c	e58d3000	 str         r3, [sp]

; 206  :                 goto cleanUp;

  00680	ea00010f	 b           |$cleanUp$43972|
  00684		 |$LN28@OALIntrReq|

; 207  :                 }
; 208  :             }

  00684	eaffffba	 b           |$LN31@OALIntrReq|
  00688		 |$LN30@OALIntrReq|
  00688		 |$LN33@OALIntrReq|

; 209  :         }
; 210  : 
; 211  :     // If translate flag is set all IRQs must be mapped to same SYSINTR
; 212  :     if (pIrqs[0] >= OMAP5912_IRQ_MAXIMUM)

  00688	e59d3040	 ldr         r3, [sp, #0x40]
  0068c	e5933000	 ldr         r3, [r3]
  00690	e35300f0	 cmp         r3, #0xF0
  00694	3a00000f	 bcc         |$LN27@OALIntrReq|

; 213  :         {
; 214  :         OALMSG(OAL_ERROR, (L"ERROR: OALIntrRequestSysIntr: "
; 215  :             L"IRQ %d out of range\r\n", pIrqs[0]
; 216  :             ));

  00698	e59f3480	 ldr         r3, [pc, #0x480]
  0069c	e5933440	 ldr         r3, [r3, #0x440]
  006a0	e3130001	 tst         r3, #1
  006a4	0a000006	 beq         |$LN45@OALIntrReq|
  006a8	e59d3040	 ldr         r3, [sp, #0x40]
  006ac	e5931000	 ldr         r1, [r3]
  006b0	e59f0474	 ldr         r0, [pc, #0x474]
  006b4	eb000000	 bl          NKDbgPrintfW
  006b8	e3a03001	 mov         r3, #1
  006bc	e58d3020	 str         r3, [sp, #0x20]
  006c0	ea000001	 b           |$LN46@OALIntrReq|
  006c4		 |$LN45@OALIntrReq|
  006c4	e3a03000	 mov         r3, #0
  006c8	e58d3020	 str         r3, [sp, #0x20]
  006cc		 |$LN46@OALIntrReq|

; 217  :         sysIntr = SYSINTR_UNDEFINED;

  006cc	e3e03000	 mvn         r3, #0
  006d0	e58d3000	 str         r3, [sp]

; 218  :         goto cleanUp;

  006d4	ea0000fa	 b           |$cleanUp$43972|
  006d8		 |$LN27@OALIntrReq|

; 219  :         }
; 220  : 
; 221  :     if (((flags & OAL_INTR_TRANSLATE) != 0) &&
; 222  :         (g_oalIrq2SysIntr[pIrqs[0]] != SYSINTR_UNDEFINED))

  006d8	e59d3044	 ldr         r3, [sp, #0x44]
  006dc	e3130008	 tst         r3, #8
  006e0	0a000049	 beq         |$LN26@OALIntrReq|
  006e4	e59d3040	 ldr         r3, [sp, #0x40]
  006e8	e5931000	 ldr         r1, [r3]
  006ec	e3a03004	 mov         r3, #4
  006f0	e0020391	 mul         r2, r1, r3
  006f4	e59f3428	 ldr         r3, [pc, #0x428]
  006f8	e0833002	 add         r3, r3, r2
  006fc	e5933000	 ldr         r3, [r3]
  00700	e3730001	 cmn         r3, #1
  00704	0a000040	 beq         |$LN26@OALIntrReq|

; 223  :         {
; 224  :         sysIntr = g_oalIrq2SysIntr[pIrqs[0]];

  00708	e59d3040	 ldr         r3, [sp, #0x40]
  0070c	e5931000	 ldr         r1, [r3]
  00710	e3a03004	 mov         r3, #4
  00714	e0020391	 mul         r2, r1, r3
  00718	e59f3404	 ldr         r3, [pc, #0x404]
  0071c	e0833002	 add         r3, r3, r2
  00720	e5933000	 ldr         r3, [r3]
  00724	e58d3000	 str         r3, [sp]

; 225  :         // Check remaining IRQs
; 226  :         for (i = 1; i < count; i++)

  00728	e3a03001	 mov         r3, #1
  0072c	e58d3004	 str         r3, [sp, #4]
  00730	ea000002	 b           |$LN25@OALIntrReq|
  00734		 |$LN24@OALIntrReq|
  00734	e59d3004	 ldr         r3, [sp, #4]
  00738	e2833001	 add         r3, r3, #1
  0073c	e58d3004	 str         r3, [sp, #4]
  00740		 |$LN25@OALIntrReq|
  00740	e59d2004	 ldr         r2, [sp, #4]
  00744	e59d303c	 ldr         r3, [sp, #0x3C]
  00748	e1520003	 cmp         r2, r3
  0074c	2a00002d	 bcs         |$LN23@OALIntrReq|

; 227  :             {
; 228  :             if (pIrqs[i] >= OMAP5912_IRQ_MAXIMUM)

  00750	e59d1004	 ldr         r1, [sp, #4]
  00754	e3a03004	 mov         r3, #4
  00758	e0020391	 mul         r2, r1, r3
  0075c	e59d3040	 ldr         r3, [sp, #0x40]
  00760	e0833002	 add         r3, r3, r2
  00764	e5933000	 ldr         r3, [r3]
  00768	e35300f0	 cmp         r3, #0xF0
  0076c	3a000013	 bcc         |$LN22@OALIntrReq|

; 229  :                 {
; 230  :                 OALMSG(OAL_ERROR, (L"ERROR: OALIntrRequestSysIntr: "
; 231  :                     L"IRQ %d out of range\r\n", pIrqs[i]
; 232  :                     ));

  00770	e59f33a8	 ldr         r3, [pc, #0x3A8]
  00774	e5933440	 ldr         r3, [r3, #0x440]
  00778	e3130001	 tst         r3, #1
  0077c	0a00000a	 beq         |$LN47@OALIntrReq|
  00780	e59d1004	 ldr         r1, [sp, #4]
  00784	e3a03004	 mov         r3, #4
  00788	e0020391	 mul         r2, r1, r3
  0078c	e59d3040	 ldr         r3, [sp, #0x40]
  00790	e0833002	 add         r3, r3, r2
  00794	e5931000	 ldr         r1, [r3]
  00798	e59f038c	 ldr         r0, [pc, #0x38C]
  0079c	eb000000	 bl          NKDbgPrintfW
  007a0	e3a03001	 mov         r3, #1
  007a4	e58d3024	 str         r3, [sp, #0x24]
  007a8	ea000001	 b           |$LN48@OALIntrReq|
  007ac		 |$LN47@OALIntrReq|
  007ac	e3a03000	 mov         r3, #0
  007b0	e58d3024	 str         r3, [sp, #0x24]
  007b4		 |$LN48@OALIntrReq|

; 233  :                 sysIntr = SYSINTR_UNDEFINED;

  007b4	e3e03000	 mvn         r3, #0
  007b8	e58d3000	 str         r3, [sp]

; 234  :                 goto cleanUp;

  007bc	ea0000c0	 b           |$cleanUp$43972|
  007c0		 |$LN22@OALIntrReq|

; 235  :                 }
; 236  :             // If it is mapped to same SYSINTR, we are fine
; 237  :             if (g_oalIrq2SysIntr[pIrqs[i]] == sysIntr) continue;

  007c0	e59d1004	 ldr         r1, [sp, #4]
  007c4	e3a03004	 mov         r3, #4
  007c8	e0020391	 mul         r2, r1, r3
  007cc	e59d3040	 ldr         r3, [sp, #0x40]
  007d0	e0833002	 add         r3, r3, r2
  007d4	e5931000	 ldr         r1, [r3]
  007d8	e3a03004	 mov         r3, #4
  007dc	e0020391	 mul         r2, r1, r3
  007e0	e59f333c	 ldr         r3, [pc, #0x33C]
  007e4	e0833002	 add         r3, r3, r2
  007e8	e5932000	 ldr         r2, [r3]
  007ec	e59d3000	 ldr         r3, [sp]
  007f0	e1520003	 cmp         r2, r3
  007f4	1a000000	 bne         |$LN21@OALIntrReq|
  007f8	eaffffcd	 b           |$LN24@OALIntrReq|
  007fc		 |$LN21@OALIntrReq|

; 238  :             // It isn't mapped or mapped to some other SYSINTR, error...
; 239  :             sysIntr = SYSINTR_UNDEFINED;

  007fc	e3e03000	 mvn         r3, #0
  00800	e58d3000	 str         r3, [sp]

; 240  :             }

  00804	eaffffca	 b           |$LN24@OALIntrReq|
  00808		 |$LN23@OALIntrReq|

; 241  :         goto cleanUp;

  00808	ea0000ad	 b           |$cleanUp$43972|
  0080c		 |$LN26@OALIntrReq|

; 242  :         }
; 243  : 
; 244  :     // Find next available SYSINTR value...
; 245  :     for (sysIntr = SYSINTR_FIRMWARE; sysIntr < SYSINTR_MAXIMUM; sysIntr++)

  0080c	e3a03010	 mov         r3, #0x10
  00810	e58d3000	 str         r3, [sp]
  00814	ea000002	 b           |$LN20@OALIntrReq|
  00818		 |$LN19@OALIntrReq|
  00818	e59d3000	 ldr         r3, [sp]
  0081c	e2833001	 add         r3, r3, #1
  00820	e58d3000	 str         r3, [sp]
  00824		 |$LN20@OALIntrReq|
  00824	e59d3000	 ldr         r3, [sp]
  00828	e3530048	 cmp         r3, #0x48
  0082c	2a000009	 bcs         |$LN18@OALIntrReq|

; 246  :         {
; 247  :         if (g_oalSysIntr2Irq[sysIntr][0] == OAL_INTR_IRQ_UNDEFINED) break;

  00830	e59d1000	 ldr         r1, [sp]
  00834	e3a03010	 mov         r3, #0x10
  00838	e0020391	 mul         r2, r1, r3
  0083c	e59f32e4	 ldr         r3, [pc, #0x2E4]
  00840	e0833002	 add         r3, r3, r2
  00844	e5933000	 ldr         r3, [r3]
  00848	e3730001	 cmn         r3, #1
  0084c	1a000000	 bne         |$LN17@OALIntrReq|
  00850	ea000000	 b           |$LN18@OALIntrReq|
  00854		 |$LN17@OALIntrReq|

; 248  :         }

  00854	eaffffef	 b           |$LN19@OALIntrReq|
  00858		 |$LN18@OALIntrReq|

; 249  : 
; 250  :     // Any available SYSINTRs left?
; 251  :     if (sysIntr >= SYSINTR_MAXIMUM)

  00858	e59d3000	 ldr         r3, [sp]
  0085c	e3530048	 cmp         r3, #0x48
  00860	3a00000d	 bcc         |$LN16@OALIntrReq|

; 252  :         {
; 253  :         OALMSG(OAL_ERROR, (L"ERROR: OALIntrRequestSysIntr: "
; 254  :             L"No available SYSINTR found\r\n"
; 255  :             ));

  00864	e59f32b4	 ldr         r3, [pc, #0x2B4]
  00868	e5933440	 ldr         r3, [r3, #0x440]
  0086c	e3130001	 tst         r3, #1
  00870	0a000004	 beq         |$LN49@OALIntrReq|
  00874	e59f02b4	 ldr         r0, [pc, #0x2B4]
  00878	eb000000	 bl          NKDbgPrintfW
  0087c	e3a03001	 mov         r3, #1
  00880	e58d3028	 str         r3, [sp, #0x28]
  00884	ea000001	 b           |$LN50@OALIntrReq|
  00888		 |$LN49@OALIntrReq|
  00888	e3a03000	 mov         r3, #0
  0088c	e58d3028	 str         r3, [sp, #0x28]
  00890		 |$LN50@OALIntrReq|

; 256  :         sysIntr = SYSINTR_UNDEFINED;

  00890	e3e03000	 mvn         r3, #0
  00894	e58d3000	 str         r3, [sp]

; 257  :         goto cleanUp;

  00898	ea000089	 b           |$cleanUp$43972|
  0089c		 |$LN16@OALIntrReq|

; 258  :         }
; 259  : 
; 260  :     // Make SYSINTR -> IRQs association
; 261  :     for (i = 0; i < count; i++)

  0089c	e3a03000	 mov         r3, #0
  008a0	e58d3004	 str         r3, [sp, #4]
  008a4	ea000002	 b           |$LN15@OALIntrReq|
  008a8		 |$LN14@OALIntrReq|
  008a8	e59d3004	 ldr         r3, [sp, #4]
  008ac	e2833001	 add         r3, r3, #1
  008b0	e58d3004	 str         r3, [sp, #4]
  008b4		 |$LN15@OALIntrReq|
  008b4	e59d2004	 ldr         r2, [sp, #4]
  008b8	e59d303c	 ldr         r3, [sp, #0x3C]
  008bc	e1520003	 cmp         r2, r3
  008c0	2a000042	 bcs         |$LN13@OALIntrReq|

; 262  :         {
; 263  :         if (pIrqs[i] >= OMAP5912_IRQ_MAXIMUM)

  008c4	e59d1004	 ldr         r1, [sp, #4]
  008c8	e3a03004	 mov         r3, #4
  008cc	e0020391	 mul         r2, r1, r3
  008d0	e59d3040	 ldr         r3, [sp, #0x40]
  008d4	e0833002	 add         r3, r3, r2
  008d8	e5933000	 ldr         r3, [r3]
  008dc	e35300f0	 cmp         r3, #0xF0
  008e0	3a000029	 bcc         |$LN12@OALIntrReq|

; 264  :             {
; 265  :             OALMSG(OAL_ERROR, (L"ERROR: OALIntrRequestSysIntr: "
; 266  :                 L"IRQ %d out of range\r\n", pIrqs[i]
; 267  :                 ));

  008e4	e59f3234	 ldr         r3, [pc, #0x234]
  008e8	e5933440	 ldr         r3, [r3, #0x440]
  008ec	e3130001	 tst         r3, #1
  008f0	0a00000a	 beq         |$LN51@OALIntrReq|
  008f4	e59d1004	 ldr         r1, [sp, #4]
  008f8	e3a03004	 mov         r3, #4
  008fc	e0020391	 mul         r2, r1, r3
  00900	e59d3040	 ldr         r3, [sp, #0x40]
  00904	e0833002	 add         r3, r3, r2
  00908	e5931000	 ldr         r1, [r3]
  0090c	e59f0218	 ldr         r0, [pc, #0x218]
  00910	eb000000	 bl          NKDbgPrintfW
  00914	e3a03001	 mov         r3, #1
  00918	e58d302c	 str         r3, [sp, #0x2C]
  0091c	ea000001	 b           |$LN52@OALIntrReq|
  00920		 |$LN51@OALIntrReq|
  00920	e3a03000	 mov         r3, #0
  00924	e58d302c	 str         r3, [sp, #0x2C]
  00928		 |$LN52@OALIntrReq|

; 268  :             for (j = 0; j < i; j++)

  00928	e3a03000	 mov         r3, #0
  0092c	e58d3008	 str         r3, [sp, #8]
  00930	ea000002	 b           |$LN11@OALIntrReq|
  00934		 |$LN10@OALIntrReq|
  00934	e59d3008	 ldr         r3, [sp, #8]
  00938	e2833001	 add         r3, r3, #1
  0093c	e58d3008	 str         r3, [sp, #8]
  00940		 |$LN11@OALIntrReq|
  00940	e59d2008	 ldr         r2, [sp, #8]
  00944	e59d3004	 ldr         r3, [sp, #4]
  00948	e1520003	 cmp         r2, r3
  0094c	2a00000b	 bcs         |$LN9@OALIntrReq|

; 269  :                 {
; 270  :                 g_oalSysIntr2Irq[sysIntr][j] = OAL_INTR_IRQ_UNDEFINED;

  00950	e59d1000	 ldr         r1, [sp]
  00954	e3a03010	 mov         r3, #0x10
  00958	e0020391	 mul         r2, r1, r3
  0095c	e59f31c4	 ldr         r3, [pc, #0x1C4]
  00960	e0831002	 add         r1, r3, r2
  00964	e59d2008	 ldr         r2, [sp, #8]
  00968	e3a03004	 mov         r3, #4
  0096c	e0030392	 mul         r3, r2, r3
  00970	e0812003	 add         r2, r1, r3
  00974	e3e03000	 mvn         r3, #0
  00978	e5823000	 str         r3, [r2]

; 271  :                 }

  0097c	eaffffec	 b           |$LN10@OALIntrReq|
  00980		 |$LN9@OALIntrReq|

; 272  :             sysIntr = SYSINTR_UNDEFINED;

  00980	e3e03000	 mvn         r3, #0
  00984	e58d3000	 str         r3, [sp]

; 273  :             goto cleanUp;

  00988	ea00004d	 b           |$cleanUp$43972|
  0098c		 |$LN12@OALIntrReq|

; 274  :             }
; 275  :         g_oalSysIntr2Irq[sysIntr][i] = pIrqs[i];

  0098c	e59d1004	 ldr         r1, [sp, #4]
  00990	e3a03004	 mov         r3, #4
  00994	e0020391	 mul         r2, r1, r3
  00998	e59d3040	 ldr         r3, [sp, #0x40]
  0099c	e0830002	 add         r0, r3, r2
  009a0	e59d1000	 ldr         r1, [sp]
  009a4	e3a03010	 mov         r3, #0x10
  009a8	e0020391	 mul         r2, r1, r3
  009ac	e59f3174	 ldr         r3, [pc, #0x174]
  009b0	e0831002	 add         r1, r3, r2
  009b4	e59d2004	 ldr         r2, [sp, #4]
  009b8	e3a03004	 mov         r3, #4
  009bc	e0030392	 mul         r3, r2, r3
  009c0	e0812003	 add         r2, r1, r3
  009c4	e5903000	 ldr         r3, [r0]
  009c8	e5823000	 str         r3, [r2]

; 276  :         }

  009cc	eaffffb5	 b           |$LN14@OALIntrReq|
  009d0		 |$LN13@OALIntrReq|
  009d0		 |$LN8@OALIntrReq|

; 277  :     while (i < OMAP5912_IRQ_PER_SYSINTR)

  009d0	e59d3004	 ldr         r3, [sp, #4]
  009d4	e3530004	 cmp         r3, #4
  009d8	2a00000e	 bcs         |$LN7@OALIntrReq|

; 278  :         {
; 279  :         g_oalSysIntr2Irq[sysIntr][i++] = OAL_INTR_IRQ_UNDEFINED;

  009dc	e59d1000	 ldr         r1, [sp]
  009e0	e3a03010	 mov         r3, #0x10
  009e4	e0020391	 mul         r2, r1, r3
  009e8	e59f3138	 ldr         r3, [pc, #0x138]
  009ec	e0831002	 add         r1, r3, r2
  009f0	e59d2004	 ldr         r2, [sp, #4]
  009f4	e3a03004	 mov         r3, #4
  009f8	e0030392	 mul         r3, r2, r3
  009fc	e0812003	 add         r2, r1, r3
  00a00	e3e03000	 mvn         r3, #0
  00a04	e5823000	 str         r3, [r2]
  00a08	e59d3004	 ldr         r3, [sp, #4]
  00a0c	e2833001	 add         r3, r3, #1
  00a10	e58d3004	 str         r3, [sp, #4]

; 280  :         }

  00a14	eaffffed	 b           |$LN8@OALIntrReq|
  00a18		 |$LN7@OALIntrReq|

; 281  : 
; 282  :     // Make IRQ -> SYSINTR association, only if not multiply-mapped
; 283  :     if ((flags & OAL_INTR_DYNAMIC) != 0) goto cleanUp;

  00a18	e59d3044	 ldr         r3, [sp, #0x44]
  00a1c	e3130001	 tst         r3, #1
  00a20	0a000000	 beq         |$LN6@OALIntrReq|
  00a24	ea000026	 b           |$cleanUp$43972|
  00a28		 |$LN6@OALIntrReq|

; 284  : 
; 285  :     for (i = 0; i < count; i++)

  00a28	e3a03000	 mov         r3, #0
  00a2c	e58d3004	 str         r3, [sp, #4]
  00a30	ea000002	 b           |$LN5@OALIntrReq|
  00a34		 |$LN4@OALIntrReq|
  00a34	e59d3004	 ldr         r3, [sp, #4]
  00a38	e2833001	 add         r3, r3, #1
  00a3c	e58d3004	 str         r3, [sp, #4]
  00a40		 |$LN5@OALIntrReq|
  00a40	e59d2004	 ldr         r2, [sp, #4]
  00a44	e59d303c	 ldr         r3, [sp, #0x3C]
  00a48	e1520003	 cmp         r2, r3
  00a4c	2a00001c	 bcs         |$LN3@OALIntrReq|

; 286  :         {
; 287  :         if ((g_oalIrq2SysIntr[pIrqs[i]] == SYSINTR_UNDEFINED) ||
; 288  :             ((flags & OAL_INTR_FORCE_STATIC) != 0))

  00a50	e59d1004	 ldr         r1, [sp, #4]
  00a54	e3a03004	 mov         r3, #4
  00a58	e0020391	 mul         r2, r1, r3
  00a5c	e59d3040	 ldr         r3, [sp, #0x40]
  00a60	e0833002	 add         r3, r3, r2
  00a64	e5931000	 ldr         r1, [r3]
  00a68	e3a03004	 mov         r3, #4
  00a6c	e0020391	 mul         r2, r1, r3
  00a70	e59f30ac	 ldr         r3, [pc, #0xAC]
  00a74	e0833002	 add         r3, r3, r2
  00a78	e5933000	 ldr         r3, [r3]
  00a7c	e3730001	 cmn         r3, #1
  00a80	0a000002	 beq         |$LN1@OALIntrReq|
  00a84	e59d3044	 ldr         r3, [sp, #0x44]
  00a88	e3130004	 tst         r3, #4
  00a8c	0a00000b	 beq         |$LN2@OALIntrReq|
  00a90		 |$LN1@OALIntrReq|

; 289  :             {
; 290  :             g_oalIrq2SysIntr[pIrqs[i]] = sysIntr;

  00a90	e59d1004	 ldr         r1, [sp, #4]
  00a94	e3a03004	 mov         r3, #4
  00a98	e0020391	 mul         r2, r1, r3
  00a9c	e59d3040	 ldr         r3, [sp, #0x40]
  00aa0	e0833002	 add         r3, r3, r2
  00aa4	e5931000	 ldr         r1, [r3]
  00aa8	e3a03004	 mov         r3, #4
  00aac	e0020391	 mul         r2, r1, r3
  00ab0	e59f306c	 ldr         r3, [pc, #0x6C]
  00ab4	e0832002	 add         r2, r3, r2
  00ab8	e59d3000	 ldr         r3, [sp]
  00abc	e5823000	 str         r3, [r2]
  00ac0		 |$LN2@OALIntrReq|

; 291  :             }
; 292  :         }

  00ac0	eaffffdb	 b           |$LN4@OALIntrReq|
  00ac4		 |$LN3@OALIntrReq|
  00ac4		 |$cleanUp$43972|

; 293  : 
; 294  : cleanUp:
; 295  :     OALMSG(OAL_INTR&&OAL_FUNC, (
; 296  :         L"-OALIntrRequestSysIntr(sysIntr = %d)\r\n", sysIntr
; 297  :         ));

  00ac4	e59f3054	 ldr         r3, [pc, #0x54]
  00ac8	e5933440	 ldr         r3, [r3, #0x440]
  00acc	e3130901	 tst         r3, #1, 18
  00ad0	0a000009	 beq         |$LN53@OALIntrReq|
  00ad4	e59f3044	 ldr         r3, [pc, #0x44]
  00ad8	e5933440	 ldr         r3, [r3, #0x440]
  00adc	e3130004	 tst         r3, #4
  00ae0	0a000005	 beq         |$LN53@OALIntrReq|
  00ae4	e59d1000	 ldr         r1, [sp]
  00ae8	e59f002c	 ldr         r0, [pc, #0x2C]
  00aec	eb000000	 bl          NKDbgPrintfW
  00af0	e3a03001	 mov         r3, #1
  00af4	e58d3030	 str         r3, [sp, #0x30]
  00af8	ea000001	 b           |$LN54@OALIntrReq|
  00afc		 |$LN53@OALIntrReq|
  00afc	e3a03000	 mov         r3, #0
  00b00	e58d3030	 str         r3, [sp, #0x30]
  00b04		 |$LN54@OALIntrReq|

; 298  :     return sysIntr;

  00b04	e59d3000	 ldr         r3, [sp]
  00b08	e58d300c	 str         r3, [sp, #0xC]

; 299  : }

  00b0c	e59d000c	 ldr         r0, [sp, #0xC]
  00b10	e28dd034	 add         sp, sp, #0x34
  00b14	e89d6000	 ldmia       sp, {sp, lr}
  00b18	e12fff1e	 bx          lr
  00b1c		 |$LN58@OALIntrReq|
  00b1c		 |$LN59@OALIntrReq|
  00b1c	00000000	 DCD         |??_C@_1EO@CCPDBEFN@?$AA?9?$AAO?$AAA?$AAL?$AAI?$AAn?$AAt?$AAr?$AAR?$AAe?$AAq?$AAu?$AAe?$AAs?$AAt?$AAS?$AAy?$AAs?$AAI?$AAn?$AAt?$AAr?$AA?$CI?$AAs?$AAy?$AAs?$AAI?$AAn?$AAt?$AAr?$AA?5?$AA?$DN@|
  00b20		 |$LN60@OALIntrReq|
  00b20	00000000	 DCD         |dpCurSettings|
  00b24		 |$LN61@OALIntrReq|
  00b24	00000000	 DCD         |g_oalIrq2SysIntr|
  00b28		 |$LN62@OALIntrReq|
  00b28	00000000	 DCD         |g_oalSysIntr2Irq|
  00b2c		 |$LN63@OALIntrReq|
  00b2c	00000000	 DCD         |??_C@_1GI@NODFOAGP@?$AAE?$AAR?$AAR?$AAO?$AAR?$AA?3?$AA?5?$AAO?$AAA?$AAL?$AAI?$AAn?$AAt?$AAr?$AAR?$AAe?$AAq?$AAu?$AAe?$AAs?$AAt?$AAS?$AAy?$AAs?$AAI?$AAn?$AAt?$AAr?$AA?3?$AA?5?$AAI?$AAR@|
  00b30		 |$LN64@OALIntrReq|
  00b30	00000000	 DCD         |??_C@_1HG@GANLJKGD@?$AAE?$AAR?$AAR?$AAO?$AAR?$AA?3?$AA?5?$AAO?$AAA?$AAL?$AAI?$AAn?$AAt?$AAr?$AAR?$AAe?$AAq?$AAu?$AAe?$AAs?$AAt?$AAS?$AAy?$AAs?$AAI?$AAn?$AAt?$AAr?$AA?3?$AA?5?$AAN?$AAo@|
  00b34		 |$LN65@OALIntrReq|
  00b34	00000000	 DCD         |??_C@_1JG@CKDDKDGB@?$AAE?$AAR?$AAR?$AAO?$AAR?$AA?3?$AA?5?$AAO?$AAA?$AAL?$AAI?$AAn?$AAt?$AAr?$AAR?$AAe?$AAq?$AAu?$AAe?$AAs?$AAt?$AAS?$AAy?$AAs?$AAI?$AAn?$AAt?$AAr?$AA?3?$AA?5?$AAS?$AAt@|
  00b38		 |$LN66@OALIntrReq|
  00b38	00000000	 DCD         |??_C@_1IM@ENJFJBNJ@?$AAE?$AAR?$AAR?$AAO?$AAR?$AA?3?$AA?5?$AAO?$AAA?$AAL?$AAI?$AAn?$AAt?$AAr?$AAR?$AAe?$AAq?$AAu?$AAe?$AAs?$AAt?$AAS?$AAy?$AAs?$AAI?$AAn?$AAt?$AAr?$AA?3?$AA?5?$AAO?$AAn@|
  00b3c		 |$LN67@OALIntrReq|
  00b3c	00000000	 DCD         |??_C@_1FK@JNHCPMAP@?$AA?$CL?$AAO?$AAA?$AAL?$AAI?$AAn?$AAt?$AAr?$AAR?$AAe?$AAq?$AAu?$AAe?$AAs?$AAt?$AAS?$AAy?$AAs?$AAI?$AAn?$AAt?$AAr?$AA?$CI?$AA?$CF?$AAd?$AA?0?$AA?5?$AA0?$AAx?$AA?$CF?$AA0?$AA8@|
  00b40		 |$M44193|

			 ENDP  ; |OALIntrRequestSysIntr|

	EXPORT	|??_C@_1EE@GBADJBKJ@?$AA?9?$AAO?$AAA?$AAL?$AAI?$AAn?$AAt?$AAr?$AAR?$AAe?$AAl?$AAe?$AAa?$AAs?$AAe?$AAS?$AAy?$AAs?$AAI?$AAn?$AAt?$AAr?$AA?$CI?$AAr?$AAc?$AA?5?$AA?$DN?$AA?5?$AA?$CF?$AAd?$AA?$CJ?$AA?$AN@| [ DATA ] ; `string'
	EXPORT	|??_C@_1HC@BIEMDHNG@?$AAE?$AAR?$AAR?$AAO?$AAR?$AA?3?$AA?5?$AAO?$AAA?$AAL?$AAI?$AAn?$AAt?$AAr?$AAR?$AAe?$AAl?$AAe?$AAa?$AAs?$AAe?$AAS?$AAy?$AAs?$AAI?$AAn?$AAt?$AAr?$AA?3?$AA?5?$AAI?$AAn@| [ DATA ] ; `string'
	EXPORT	|??_C@_1DK@GDEEGDPM@?$AA?$CL?$AAO?$AAA?$AAL?$AAI?$AAn?$AAt?$AAr?$AAR?$AAe?$AAl?$AAe?$AAa?$AAs?$AAe?$AAS?$AAy?$AAs?$AAI?$AAn?$AAt?$AAr?$AA?$CI?$AA?$CF?$AAd?$AA?$CJ?$AA?$AN?$AA?6?$AA?$AA@| [ DATA ] ; `string'
	EXPORT	|OALIntrReleaseSysIntr|

  00028			 AREA	 |.pdata|, PDATA
|$T44217| DCD	|$LN19@OALIntrRel|
	DCD	0x40008a04

  00000			 AREA	 |.rdata|, DATA, READONLY
|??_C@_1EE@GBADJBKJ@?$AA?9?$AAO?$AAA?$AAL?$AAI?$AAn?$AAt?$AAr?$AAR?$AAe?$AAl?$AAe?$AAa?$AAs?$AAe?$AAS?$AAy?$AAs?$AAI?$AAn?$AAt?$AAr?$AA?$CI?$AAr?$AAc?$AA?5?$AA?$DN?$AA?5?$AA?$CF?$AAd?$AA?$CJ?$AA?$AN@| DCB "-"
	DCB	0x0, "O", 0x0, "A", 0x0, "L", 0x0, "I", 0x0, "n", 0x0, "t"
	DCB	0x0, "r", 0x0, "R", 0x0, "e", 0x0, "l", 0x0, "e", 0x0, "a"
	DCB	0x0, "s", 0x0, "e", 0x0, "S", 0x0, "y", 0x0, "s", 0x0, "I"
	DCB	0x0, "n", 0x0, "t", 0x0, "r", 0x0, "(", 0x0, "r", 0x0, "c"
	DCB	0x0, " ", 0x0, "=", 0x0, " ", 0x0, "%", 0x0, "d", 0x0, ")"
	DCB	0x0, 0xd, 0x0, 0xa, 0x0, 0x0, 0x0	; `string'

  00000			 AREA	 |.rdata|, DATA, READONLY
|??_C@_1HC@BIEMDHNG@?$AAE?$AAR?$AAR?$AAO?$AAR?$AA?3?$AA?5?$AAO?$AAA?$AAL?$AAI?$AAn?$AAt?$AAr?$AAR?$AAe?$AAl?$AAe?$AAa?$AAs?$AAe?$AAS?$AAy?$AAs?$AAI?$AAn?$AAt?$AAr?$AA?3?$AA?5?$AAI?$AAn@| DCB "E"
	DCB	0x0, "R", 0x0, "R", 0x0, "O", 0x0, "R", 0x0, ":", 0x0, " "
	DCB	0x0, "O", 0x0, "A", 0x0, "L", 0x0, "I", 0x0, "n", 0x0, "t"
	DCB	0x0, "r", 0x0, "R", 0x0, "e", 0x0, "l", 0x0, "e", 0x0, "a"
	DCB	0x0, "s", 0x0, "e", 0x0, "S", 0x0, "y", 0x0, "s", 0x0, "I"
	DCB	0x0, "n", 0x0, "t", 0x0, "r", 0x0, ":", 0x0, " ", 0x0, "I"
	DCB	0x0, "n", 0x0, "v", 0x0, "a", 0x0, "l", 0x0, "i", 0x0, "d"
	DCB	0x0, " ", 0x0, "s", 0x0, "y", 0x0, "s", 0x0, "I", 0x0, "n"
	DCB	0x0, "t", 0x0, "r", 0x0, " ", 0x0, "v", 0x0, "a", 0x0, "l"
	DCB	0x0, "u", 0x0, "e", 0x0, " ", 0x0, "%", 0x0, "d", 0x0, 0xd
	DCB	0x0, 0xa, 0x0, 0x0, 0x0			; `string'

  00000			 AREA	 |.rdata|, DATA, READONLY
|??_C@_1DK@GDEEGDPM@?$AA?$CL?$AAO?$AAA?$AAL?$AAI?$AAn?$AAt?$AAr?$AAR?$AAe?$AAl?$AAe?$AAa?$AAs?$AAe?$AAS?$AAy?$AAs?$AAI?$AAn?$AAt?$AAr?$AA?$CI?$AA?$CF?$AAd?$AA?$CJ?$AA?$AN?$AA?6?$AA?$AA@| DCB "+"
	DCB	0x0, "O", 0x0, "A", 0x0, "L", 0x0, "I", 0x0, "n", 0x0, "t"
	DCB	0x0, "r", 0x0, "R", 0x0, "e", 0x0, "l", 0x0, "e", 0x0, "a"
	DCB	0x0, "s", 0x0, "e", 0x0, "S", 0x0, "y", 0x0, "s", 0x0, "I"
	DCB	0x0, "n", 0x0, "t", 0x0, "r", 0x0, "(", 0x0, "%", 0x0, "d"
	DCB	0x0, ")", 0x0, 0xd, 0x0, 0xa, 0x0, 0x0, 0x0 ; `string'
; Function compile flags: /Odtp

  00b40			 AREA	 |.text|, CODE, ARM

  00b40		 |OALIntrReleaseSysIntr| PROC

; 311  : {

  00b40		 |$LN19@OALIntrRel|
  00b40	e1a0c00d	 mov         r12, sp
  00b44	e92d0001	 stmdb       sp!, {r0}
  00b48	e92d5000	 stmdb       sp!, {r12, lr}
  00b4c	e24dd01c	 sub         sp, sp, #0x1C
  00b50		 |$M44214|

; 312  :     BOOL rc = TRUE;

  00b50	e3a03001	 mov         r3, #1
  00b54	e58d3000	 str         r3, [sp]

; 313  : 
; 314  :     UINT32 i, irq;
; 315  : 
; 316  :     OALMSG(OAL_INTR&&OAL_FUNC, (L"+OALIntrReleaseSysIntr(%d)\r\n", sysIntr));

  00b58	e59f31f4	 ldr         r3, [pc, #0x1F4]
  00b5c	e5933440	 ldr         r3, [r3, #0x440]
  00b60	e3130901	 tst         r3, #1, 18
  00b64	0a000009	 beq         |$LN11@OALIntrRel|
  00b68	e59f31e4	 ldr         r3, [pc, #0x1E4]
  00b6c	e5933440	 ldr         r3, [r3, #0x440]
  00b70	e3130004	 tst         r3, #4
  00b74	0a000005	 beq         |$LN11@OALIntrRel|
  00b78	e59d1024	 ldr         r1, [sp, #0x24]
  00b7c	e59f01e0	 ldr         r0, [pc, #0x1E0]
  00b80	eb000000	 bl          NKDbgPrintfW
  00b84	e3a03001	 mov         r3, #1
  00b88	e58d3010	 str         r3, [sp, #0x10]
  00b8c	ea000001	 b           |$LN12@OALIntrRel|
  00b90		 |$LN11@OALIntrRel|
  00b90	e3a03000	 mov         r3, #0
  00b94	e58d3010	 str         r3, [sp, #0x10]
  00b98		 |$LN12@OALIntrRel|

; 317  : 
; 318  :     if ((sysIntr < SYSINTR_FIRMWARE) || (sysIntr >= SYSINTR_MAXIMUM))

  00b98	e59d3024	 ldr         r3, [sp, #0x24]
  00b9c	e3530010	 cmp         r3, #0x10
  00ba0	3a000002	 bcc         |$LN7@OALIntrRel|
  00ba4	e59d3024	 ldr         r3, [sp, #0x24]
  00ba8	e3530048	 cmp         r3, #0x48
  00bac	3a00000e	 bcc         |$LN8@OALIntrRel|
  00bb0		 |$LN7@OALIntrRel|

; 319  :         {
; 320  :         OALMSG(OAL_ERROR, (L"ERROR: OALIntrReleaseSysIntr: "
; 321  :             L"Invalid sysIntr value %d\r\n", sysIntr
; 322  :             ));

  00bb0	e59f319c	 ldr         r3, [pc, #0x19C]
  00bb4	e5933440	 ldr         r3, [r3, #0x440]
  00bb8	e3130001	 tst         r3, #1
  00bbc	0a000005	 beq         |$LN13@OALIntrRel|
  00bc0	e59d1024	 ldr         r1, [sp, #0x24]
  00bc4	e59f0194	 ldr         r0, [pc, #0x194]
  00bc8	eb000000	 bl          NKDbgPrintfW
  00bcc	e3a03001	 mov         r3, #1
  00bd0	e58d3014	 str         r3, [sp, #0x14]
  00bd4	ea000001	 b           |$LN14@OALIntrRel|
  00bd8		 |$LN13@OALIntrRel|
  00bd8	e3a03000	 mov         r3, #0
  00bdc	e58d3014	 str         r3, [sp, #0x14]
  00be0		 |$LN14@OALIntrRel|

; 323  :         rc = FALSE;

  00be0	e3a03000	 mov         r3, #0
  00be4	e58d3000	 str         r3, [sp]

; 324  :         goto cleanUp;

  00be8	ea000042	 b           |$cleanUp$44030|
  00bec		 |$LN8@OALIntrRel|

; 325  :         }
; 326  : 
; 327  :     // Release all mapping for given SYSINTR
; 328  :     for (i = 0; i < OMAP5912_IRQ_PER_SYSINTR; i++)

  00bec	e3a03000	 mov         r3, #0
  00bf0	e58d3004	 str         r3, [sp, #4]
  00bf4	ea000002	 b           |$LN6@OALIntrRel|
  00bf8		 |$LN5@OALIntrRel|
  00bf8	e59d3004	 ldr         r3, [sp, #4]
  00bfc	e2833001	 add         r3, r3, #1
  00c00	e58d3004	 str         r3, [sp, #4]
  00c04		 |$LN6@OALIntrRel|
  00c04	e59d3004	 ldr         r3, [sp, #4]
  00c08	e3530004	 cmp         r3, #4
  00c0c	2a000039	 bcs         |$LN4@OALIntrRel|

; 329  :         {
; 330  :         if (g_oalSysIntr2Irq[sysIntr][i] == OAL_INTR_IRQ_UNDEFINED) continue;

  00c10	e59d1024	 ldr         r1, [sp, #0x24]
  00c14	e3a03010	 mov         r3, #0x10
  00c18	e0020391	 mul         r2, r1, r3
  00c1c	e59f3138	 ldr         r3, [pc, #0x138]
  00c20	e0831002	 add         r1, r3, r2
  00c24	e59d2004	 ldr         r2, [sp, #4]
  00c28	e3a03004	 mov         r3, #4
  00c2c	e0030392	 mul         r3, r2, r3
  00c30	e0813003	 add         r3, r1, r3
  00c34	e5933000	 ldr         r3, [r3]
  00c38	e3730001	 cmn         r3, #1
  00c3c	1a000000	 bne         |$LN3@OALIntrRel|
  00c40	eaffffec	 b           |$LN5@OALIntrRel|
  00c44		 |$LN3@OALIntrRel|

; 331  :         // Remove the SYSINTR -> IRQ mapping
; 332  :         irq = g_oalSysIntr2Irq[sysIntr][i];

  00c44	e59d1024	 ldr         r1, [sp, #0x24]
  00c48	e3a03010	 mov         r3, #0x10
  00c4c	e0020391	 mul         r2, r1, r3
  00c50	e59f3104	 ldr         r3, [pc, #0x104]
  00c54	e0831002	 add         r1, r3, r2
  00c58	e59d2004	 ldr         r2, [sp, #4]
  00c5c	e3a03004	 mov         r3, #4
  00c60	e0030392	 mul         r3, r2, r3
  00c64	e0813003	 add         r3, r1, r3
  00c68	e5933000	 ldr         r3, [r3]
  00c6c	e58d3008	 str         r3, [sp, #8]

; 333  :         g_oalSysIntr2Irq[sysIntr][i] = OAL_INTR_IRQ_UNDEFINED;

  00c70	e59d1024	 ldr         r1, [sp, #0x24]
  00c74	e3a03010	 mov         r3, #0x10
  00c78	e0020391	 mul         r2, r1, r3
  00c7c	e59f30d8	 ldr         r3, [pc, #0xD8]
  00c80	e0831002	 add         r1, r3, r2
  00c84	e59d2004	 ldr         r2, [sp, #4]
  00c88	e3a03004	 mov         r3, #4
  00c8c	e0030392	 mul         r3, r2, r3
  00c90	e0812003	 add         r2, r1, r3
  00c94	e3e03000	 mvn         r3, #0
  00c98	e5823000	 str         r3, [r2]

; 334  :         // If there is IRQ -> SYSINTR for this IRQ release it also
; 335  :         if (irq >= OMAP5912_IRQ_MAXIMUM)

  00c9c	e59d3008	 ldr         r3, [sp, #8]
  00ca0	e35300f0	 cmp         r3, #0xF0
  00ca4	3a000002	 bcc         |$LN2@OALIntrRel|

; 336  :             {
; 337  :             rc = FALSE;

  00ca8	e3a03000	 mov         r3, #0
  00cac	e58d3000	 str         r3, [sp]

; 338  :             continue;

  00cb0	eaffffd0	 b           |$LN5@OALIntrRel|
  00cb4		 |$LN2@OALIntrRel|

; 339  :             }
; 340  :         if (g_oalIrq2SysIntr[irq] == sysIntr)

  00cb4	e59d1008	 ldr         r1, [sp, #8]
  00cb8	e3a03004	 mov         r3, #4
  00cbc	e0020391	 mul         r2, r1, r3
  00cc0	e59f3090	 ldr         r3, [pc, #0x90]
  00cc4	e0833002	 add         r3, r3, r2
  00cc8	e5932000	 ldr         r2, [r3]
  00ccc	e59d3024	 ldr         r3, [sp, #0x24]
  00cd0	e1520003	 cmp         r2, r3
  00cd4	1a000006	 bne         |$LN1@OALIntrRel|

; 341  :             {
; 342  :             g_oalIrq2SysIntr[irq] = SYSINTR_UNDEFINED;

  00cd8	e59d1008	 ldr         r1, [sp, #8]
  00cdc	e3a03004	 mov         r3, #4
  00ce0	e0020391	 mul         r2, r1, r3
  00ce4	e59f306c	 ldr         r3, [pc, #0x6C]
  00ce8	e0832002	 add         r2, r3, r2
  00cec	e3e03000	 mvn         r3, #0
  00cf0	e5823000	 str         r3, [r2]
  00cf4		 |$LN1@OALIntrRel|

; 343  :             }
; 344  :         }

  00cf4	eaffffbf	 b           |$LN5@OALIntrRel|
  00cf8		 |$LN4@OALIntrRel|
  00cf8		 |$cleanUp$44030|

; 345  : 
; 346  : cleanUp:
; 347  :     OALMSG(OAL_INTR&&OAL_FUNC, (L"-OALIntrReleaseSysIntr(rc = %d)\r\n", rc));

  00cf8	e59f3054	 ldr         r3, [pc, #0x54]
  00cfc	e5933440	 ldr         r3, [r3, #0x440]
  00d00	e3130901	 tst         r3, #1, 18
  00d04	0a000009	 beq         |$LN15@OALIntrRel|
  00d08	e59f3044	 ldr         r3, [pc, #0x44]
  00d0c	e5933440	 ldr         r3, [r3, #0x440]
  00d10	e3130004	 tst         r3, #4
  00d14	0a000005	 beq         |$LN15@OALIntrRel|
  00d18	e59d1000	 ldr         r1, [sp]
  00d1c	e59f002c	 ldr         r0, [pc, #0x2C]
  00d20	eb000000	 bl          NKDbgPrintfW
  00d24	e3a03001	 mov         r3, #1
  00d28	e58d3018	 str         r3, [sp, #0x18]
  00d2c	ea000001	 b           |$LN16@OALIntrRel|
  00d30		 |$LN15@OALIntrRel|
  00d30	e3a03000	 mov         r3, #0
  00d34	e58d3018	 str         r3, [sp, #0x18]
  00d38		 |$LN16@OALIntrRel|

; 348  :     return rc;

  00d38	e59d3000	 ldr         r3, [sp]
  00d3c	e58d300c	 str         r3, [sp, #0xC]

; 349  : }

  00d40	e59d000c	 ldr         r0, [sp, #0xC]
  00d44	e28dd01c	 add         sp, sp, #0x1C
  00d48	e89d6000	 ldmia       sp, {sp, lr}
  00d4c	e12fff1e	 bx          lr
  00d50		 |$LN20@OALIntrRel|
  00d50		 |$LN21@OALIntrRel|
  00d50	00000000	 DCD         |??_C@_1EE@GBADJBKJ@?$AA?9?$AAO?$AAA?$AAL?$AAI?$AAn?$AAt?$AAr?$AAR?$AAe?$AAl?$AAe?$AAa?$AAs?$AAe?$AAS?$AAy?$AAs?$AAI?$AAn?$AAt?$AAr?$AA?$CI?$AAr?$AAc?$AA?5?$AA?$DN?$AA?5?$AA?$CF?$AAd?$AA?$CJ?$AA?$AN@|
  00d54		 |$LN22@OALIntrRel|
  00d54	00000000	 DCD         |dpCurSettings|
  00d58		 |$LN23@OALIntrRel|
  00d58	00000000	 DCD         |g_oalIrq2SysIntr|
  00d5c		 |$LN24@OALIntrRel|
  00d5c	00000000	 DCD         |g_oalSysIntr2Irq|
  00d60		 |$LN25@OALIntrRel|
  00d60	00000000	 DCD         |??_C@_1HC@BIEMDHNG@?$AAE?$AAR?$AAR?$AAO?$AAR?$AA?3?$AA?5?$AAO?$AAA?$AAL?$AAI?$AAn?$AAt?$AAr?$AAR?$AAe?$AAl?$AAe?$AAa?$AAs?$AAe?$AAS?$AAy?$AAs?$AAI?$AAn?$AAt?$AAr?$AA?3?$AA?5?$AAI?$AAn@|
  00d64		 |$LN26@OALIntrRel|
  00d64	00000000	 DCD         |??_C@_1DK@GDEEGDPM@?$AA?$CL?$AAO?$AAA?$AAL?$AAI?$AAn?$AAt?$AAr?$AAR?$AAe?$AAl?$AAe?$AAa?$AAs?$AAe?$AAS?$AAy?$AAs?$AAI?$AAn?$AAt?$AAr?$AA?$CI?$AA?$CF?$AAd?$AA?$CJ?$AA?$AN?$AA?6?$AA?$AA@|
  00d68		 |$M44215|

			 ENDP  ; |OALIntrReleaseSysIntr|

	EXPORT	|??_C@_1DM@KHBFOEPK@?$AA?9?$AAO?$AAE?$AAM?$AAI?$AAn?$AAt?$AAe?$AAr?$AAr?$AAu?$AAp?$AAt?$AAE?$AAn?$AAa?$AAb?$AAl?$AAe?$AA?$CI?$AAr?$AAc?$AA?5?$AA?$DN?$AA?5?$AA1?$AA?$CJ?$AA?$AN?$AA?6?$AA?$AA@| [ DATA ] ; `string'
	EXPORT	|??_C@_1EI@HHGIJMMI@?$AA?$CL?$AAO?$AAE?$AAM?$AAI?$AAn?$AAt?$AAe?$AAr?$AAr?$AAu?$AAp?$AAt?$AAE?$AAn?$AAa?$AAb?$AAl?$AAe?$AA?$CI?$AA?$CF?$AAd?$AA?0?$AA?5?$AA0?$AAx?$AA?$CF?$AAx?$AA?0?$AA?5?$AA?$CF?$AAd@| [ DATA ] ; `string'
	EXPORT	|OEMInterruptEnable|
	IMPORT	|OALIntrEnableIrqs|

  00030			 AREA	 |.pdata|, PDATA
|$T44234| DCD	|$LN11@OEMInterru|
	DCD	0x40004404

  00000			 AREA	 |.rdata|, DATA, READONLY
|??_C@_1DM@KHBFOEPK@?$AA?9?$AAO?$AAE?$AAM?$AAI?$AAn?$AAt?$AAe?$AAr?$AAr?$AAu?$AAp?$AAt?$AAE?$AAn?$AAa?$AAb?$AAl?$AAe?$AA?$CI?$AAr?$AAc?$AA?5?$AA?$DN?$AA?5?$AA1?$AA?$CJ?$AA?$AN?$AA?6?$AA?$AA@| DCB "-"
	DCB	0x0, "O", 0x0, "E", 0x0, "M", 0x0, "I", 0x0, "n", 0x0, "t"
	DCB	0x0, "e", 0x0, "r", 0x0, "r", 0x0, "u", 0x0, "p", 0x0, "t"
	DCB	0x0, "E", 0x0, "n", 0x0, "a", 0x0, "b", 0x0, "l", 0x0, "e"
	DCB	0x0, "(", 0x0, "r", 0x0, "c", 0x0, " ", 0x0, "=", 0x0, " "
	DCB	0x0, "1", 0x0, ")", 0x0, 0xd, 0x0, 0xa, 0x0, 0x0, 0x0 ; `string'

  00000			 AREA	 |.rdata|, DATA, READONLY
|??_C@_1EI@HHGIJMMI@?$AA?$CL?$AAO?$AAE?$AAM?$AAI?$AAn?$AAt?$AAe?$AAr?$AAr?$AAu?$AAp?$AAt?$AAE?$AAn?$AAa?$AAb?$AAl?$AAe?$AA?$CI?$AA?$CF?$AAd?$AA?0?$AA?5?$AA0?$AAx?$AA?$CF?$AAx?$AA?0?$AA?5?$AA?$CF?$AAd@| DCB "+"
	DCB	0x0, "O", 0x0, "E", 0x0, "M", 0x0, "I", 0x0, "n", 0x0, "t"
	DCB	0x0, "e", 0x0, "r", 0x0, "r", 0x0, "u", 0x0, "p", 0x0, "t"
	DCB	0x0, "E", 0x0, "n", 0x0, "a", 0x0, "b", 0x0, "l", 0x0, "e"
	DCB	0x0, "(", 0x0, "%", 0x0, "d", 0x0, ",", 0x0, " ", 0x0, "0"
	DCB	0x0, "x", 0x0, "%", 0x0, "x", 0x0, ",", 0x0, " ", 0x0, "%"
	DCB	0x0, "d", 0x0, ")", 0x0, 0xd, 0x0, 0xa, 0x0, 0x0, 0x0 ; `string'
; Function compile flags: /Odtp

  00d68			 AREA	 |.text|, CODE, ARM

  00d68		 |OEMInterruptEnable| PROC

; 364  : {

  00d68		 |$LN11@OEMInterru|
  00d68	e1a0c00d	 mov         r12, sp
  00d6c	e92d0007	 stmdb       sp!, {r0 - r2}
  00d70	e92d5000	 stmdb       sp!, {r12, lr}
  00d74	e24dd014	 sub         sp, sp, #0x14
  00d78		 |$M44231|

; 365  :     BOOL rc = FALSE;

  00d78	e3a03000	 mov         r3, #0
  00d7c	e58d3000	 str         r3, [sp]

; 366  : 
; 367  :     OALMSG(OAL_INTR&&OAL_VERBOSE, 
; 368  :         (L"+OEMInterruptEnable(%d, 0x%x, %d)\r\n", sysIntr, pData, dataSize
; 369  :         ));

  00d80	e59f30e4	 ldr         r3, [pc, #0xE4]
  00d84	e5933440	 ldr         r3, [r3, #0x440]
  00d88	e3130901	 tst         r3, #1, 18
  00d8c	0a00000b	 beq         |$LN5@OEMInterru|
  00d90	e59f30d4	 ldr         r3, [pc, #0xD4]
  00d94	e5933440	 ldr         r3, [r3, #0x440]
  00d98	e3130902	 tst         r3, #2, 18
  00d9c	0a000007	 beq         |$LN5@OEMInterru|
  00da0	e59d3024	 ldr         r3, [sp, #0x24]
  00da4	e59d2020	 ldr         r2, [sp, #0x20]
  00da8	e59d101c	 ldr         r1, [sp, #0x1C]
  00dac	e59f00c0	 ldr         r0, [pc, #0xC0]
  00db0	eb000000	 bl          NKDbgPrintfW
  00db4	e3a03001	 mov         r3, #1
  00db8	e58d3008	 str         r3, [sp, #8]
  00dbc	ea000001	 b           |$LN6@OEMInterru|
  00dc0		 |$LN5@OEMInterru|
  00dc0	e3a03000	 mov         r3, #0
  00dc4	e58d3008	 str         r3, [sp, #8]
  00dc8		 |$LN6@OEMInterru|

; 370  : 
; 371  :     // SYSINTR_VMINI & SYSINTR_TIMING are special cases
; 372  :     if ((sysIntr == SYSINTR_VMINI) || (sysIntr == SYSINTR_TIMING))

  00dc8	e59d301c	 ldr         r3, [sp, #0x1C]
  00dcc	e353000f	 cmp         r3, #0xF
  00dd0	0a000002	 beq         |$LN1@OEMInterru|
  00dd4	e59d301c	 ldr         r3, [sp, #0x1C]
  00dd8	e353000a	 cmp         r3, #0xA
  00ddc	1a000002	 bne         |$LN2@OEMInterru|
  00de0		 |$LN1@OEMInterru|

; 373  :         {
; 374  :         rc = TRUE;

  00de0	e3a03001	 mov         r3, #1
  00de4	e58d3000	 str         r3, [sp]

; 375  :         goto cleanUp;

  00de8	ea000009	 b           |$cleanUp$44051|
  00dec		 |$LN2@OEMInterru|

; 376  :         }
; 377  : 
; 378  :     // Enable interrupts
; 379  :     rc = OALIntrEnableIrqs(OMAP5912_IRQ_PER_SYSINTR, g_oalSysIntr2Irq[sysIntr]);

  00dec	e59d101c	 ldr         r1, [sp, #0x1C]
  00df0	e3a03010	 mov         r3, #0x10
  00df4	e0020391	 mul         r2, r1, r3
  00df8	e59f3070	 ldr         r3, [pc, #0x70]
  00dfc	e0831002	 add         r1, r3, r2
  00e00	e3a00004	 mov         r0, #4
  00e04	eb000000	 bl          OALIntrEnableIrqs
  00e08	e58d000c	 str         r0, [sp, #0xC]
  00e0c	e59d300c	 ldr         r3, [sp, #0xC]
  00e10	e58d3000	 str         r3, [sp]
  00e14		 |$cleanUp$44051|

; 380  : 
; 381  : cleanUp:    
; 382  :     OALMSG(OAL_INTR&&OAL_VERBOSE, (L"-OEMInterruptEnable(rc = 1)\r\n"));

  00e14	e59f3050	 ldr         r3, [pc, #0x50]
  00e18	e5933440	 ldr         r3, [r3, #0x440]
  00e1c	e3130901	 tst         r3, #1, 18
  00e20	0a000008	 beq         |$LN7@OEMInterru|
  00e24	e59f3040	 ldr         r3, [pc, #0x40]
  00e28	e5933440	 ldr         r3, [r3, #0x440]
  00e2c	e3130902	 tst         r3, #2, 18
  00e30	0a000004	 beq         |$LN7@OEMInterru|
  00e34	e59f002c	 ldr         r0, [pc, #0x2C]
  00e38	eb000000	 bl          NKDbgPrintfW
  00e3c	e3a03001	 mov         r3, #1
  00e40	e58d3010	 str         r3, [sp, #0x10]
  00e44	ea000001	 b           |$LN8@OEMInterru|
  00e48		 |$LN7@OEMInterru|
  00e48	e3a03000	 mov         r3, #0
  00e4c	e58d3010	 str         r3, [sp, #0x10]
  00e50		 |$LN8@OEMInterru|

; 383  :     return rc;

  00e50	e59d3000	 ldr         r3, [sp]
  00e54	e58d3004	 str         r3, [sp, #4]

; 384  : }

  00e58	e59d0004	 ldr         r0, [sp, #4]
  00e5c	e28dd014	 add         sp, sp, #0x14
  00e60	e89d6000	 ldmia       sp, {sp, lr}
  00e64	e12fff1e	 bx          lr
  00e68		 |$LN12@OEMInterru|
  00e68		 |$LN13@OEMInterru|
  00e68	00000000	 DCD         |??_C@_1DM@KHBFOEPK@?$AA?9?$AAO?$AAE?$AAM?$AAI?$AAn?$AAt?$AAe?$AAr?$AAr?$AAu?$AAp?$AAt?$AAE?$AAn?$AAa?$AAb?$AAl?$AAe?$AA?$CI?$AAr?$AAc?$AA?5?$AA?$DN?$AA?5?$AA1?$AA?$CJ?$AA?$AN?$AA?6?$AA?$AA@|
  00e6c		 |$LN14@OEMInterru|
  00e6c	00000000	 DCD         |dpCurSettings|
  00e70		 |$LN15@OEMInterru|
  00e70	00000000	 DCD         |g_oalSysIntr2Irq|
  00e74		 |$LN16@OEMInterru|
  00e74	00000000	 DCD         |??_C@_1EI@HHGIJMMI@?$AA?$CL?$AAO?$AAE?$AAM?$AAI?$AAn?$AAt?$AAe?$AAr?$AAr?$AAu?$AAp?$AAt?$AAE?$AAn?$AAa?$AAb?$AAl?$AAe?$AA?$CI?$AA?$CF?$AAd?$AA?0?$AA?5?$AA0?$AAx?$AA?$CF?$AAx?$AA?0?$AA?5?$AA?$CF?$AAd@|
  00e78		 |$M44232|

			 ENDP  ; |OEMInterruptEnable|

	EXPORT	|??_C@_1CO@FKOPLHGO@?$AA?9?$AAO?$AAE?$AAM?$AAI?$AAn?$AAt?$AAe?$AAr?$AAr?$AAu?$AAp?$AAt?$AAD?$AAi?$AAs?$AAa?$AAb?$AAl?$AAe?$AA?$AN?$AA?6?$AA?$AA@| [ DATA ] ; `string'
	EXPORT	|??_C@_1DG@HOKLDENP@?$AA?$CL?$AAO?$AAE?$AAM?$AAI?$AAn?$AAt?$AAe?$AAr?$AAr?$AAu?$AAp?$AAt?$AAD?$AAi?$AAs?$AAa?$AAb?$AAl?$AAe?$AA?$CI?$AA?$CF?$AAd?$AA?$CJ?$AA?$AN?$AA?6?$AA?$AA@| [ DATA ] ; `string'
	EXPORT	|OEMInterruptDisable|
	IMPORT	|OALIntrDisableIrqs|

  00038			 AREA	 |.pdata|, PDATA
|$T44248| DCD	|$LN9@OEMInterru@2|
	DCD	0x40003104

  00000			 AREA	 |.rdata|, DATA, READONLY
|??_C@_1CO@FKOPLHGO@?$AA?9?$AAO?$AAE?$AAM?$AAI?$AAn?$AAt?$AAe?$AAr?$AAr?$AAu?$AAp?$AAt?$AAD?$AAi?$AAs?$AAa?$AAb?$AAl?$AAe?$AA?$AN?$AA?6?$AA?$AA@| DCB "-"
	DCB	0x0, "O", 0x0, "E", 0x0, "M", 0x0, "I", 0x0, "n", 0x0, "t"
	DCB	0x0, "e", 0x0, "r", 0x0, "r", 0x0, "u", 0x0, "p", 0x0, "t"
	DCB	0x0, "D", 0x0, "i", 0x0, "s", 0x0, "a", 0x0, "b", 0x0, "l"
	DCB	0x0, "e", 0x0, 0xd, 0x0, 0xa, 0x0, 0x0, 0x0 ; `string'

  00000			 AREA	 |.rdata|, DATA, READONLY
|??_C@_1DG@HOKLDENP@?$AA?$CL?$AAO?$AAE?$AAM?$AAI?$AAn?$AAt?$AAe?$AAr?$AAr?$AAu?$AAp?$AAt?$AAD?$AAi?$AAs?$AAa?$AAb?$AAl?$AAe?$AA?$CI?$AA?$CF?$AAd?$AA?$CJ?$AA?$AN?$AA?6?$AA?$AA@| DCB "+"
	DCB	0x0, "O", 0x0, "E", 0x0, "M", 0x0, "I", 0x0, "n", 0x0, "t"
	DCB	0x0, "e", 0x0, "r", 0x0, "r", 0x0, "u", 0x0, "p", 0x0, "t"
	DCB	0x0, "D", 0x0, "i", 0x0, "s", 0x0, "a", 0x0, "b", 0x0, "l"
	DCB	0x0, "e", 0x0, "(", 0x0, "%", 0x0, "d", 0x0, ")", 0x0, 0xd
	DCB	0x0, 0xa, 0x0, 0x0, 0x0			; `string'
; Function compile flags: /Odtp

  00e78			 AREA	 |.text|, CODE, ARM

  00e78		 |OEMInterruptDisable| PROC

; 396  : {

  00e78		 |$LN9@OEMInterru@2|
  00e78	e1a0c00d	 mov         r12, sp
  00e7c	e92d0001	 stmdb       sp!, {r0}
  00e80	e92d5000	 stmdb       sp!, {r12, lr}
  00e84	e24dd008	 sub         sp, sp, #8
  00e88		 |$M44245|

; 397  :     OALMSG(OAL_INTR&&OAL_VERBOSE, (L"+OEMInterruptDisable(%d)\r\n", sysIntr));

  00e88	e59f30a0	 ldr         r3, [pc, #0xA0]
  00e8c	e5933440	 ldr         r3, [r3, #0x440]
  00e90	e3130901	 tst         r3, #1, 18
  00e94	0a000009	 beq         |$LN3@OEMInterru@2|
  00e98	e59f3090	 ldr         r3, [pc, #0x90]
  00e9c	e5933440	 ldr         r3, [r3, #0x440]
  00ea0	e3130902	 tst         r3, #2, 18
  00ea4	0a000005	 beq         |$LN3@OEMInterru@2|
  00ea8	e59d1010	 ldr         r1, [sp, #0x10]
  00eac	e59f0084	 ldr         r0, [pc, #0x84]
  00eb0	eb000000	 bl          NKDbgPrintfW
  00eb4	e3a03001	 mov         r3, #1
  00eb8	e58d3000	 str         r3, [sp]
  00ebc	ea000001	 b           |$LN4@OEMInterru@2|
  00ec0		 |$LN3@OEMInterru@2|
  00ec0	e3a03000	 mov         r3, #0
  00ec4	e58d3000	 str         r3, [sp]
  00ec8		 |$LN4@OEMInterru@2|

; 398  : 
; 399  :     // Disable interrupts
; 400  :     OALIntrDisableIrqs(OMAP5912_IRQ_PER_SYSINTR, g_oalSysIntr2Irq[sysIntr]);

  00ec8	e59d1010	 ldr         r1, [sp, #0x10]
  00ecc	e3a03010	 mov         r3, #0x10
  00ed0	e0020391	 mul         r2, r1, r3
  00ed4	e59f3058	 ldr         r3, [pc, #0x58]
  00ed8	e0831002	 add         r1, r3, r2
  00edc	e3a00004	 mov         r0, #4
  00ee0	eb000000	 bl          OALIntrDisableIrqs

; 401  : 
; 402  :     OALMSG(OAL_INTR&&OAL_VERBOSE, (L"-OEMInterruptDisable\r\n"));

  00ee4	e59f3044	 ldr         r3, [pc, #0x44]
  00ee8	e5933440	 ldr         r3, [r3, #0x440]
  00eec	e3130901	 tst         r3, #1, 18
  00ef0	0a000008	 beq         |$LN5@OEMInterru@2|
  00ef4	e59f3034	 ldr         r3, [pc, #0x34]
  00ef8	e5933440	 ldr         r3, [r3, #0x440]
  00efc	e3130902	 tst         r3, #2, 18
  00f00	0a000004	 beq         |$LN5@OEMInterru@2|
  00f04	e59f0020	 ldr         r0, [pc, #0x20]
  00f08	eb000000	 bl          NKDbgPrintfW
  00f0c	e3a03001	 mov         r3, #1
  00f10	e58d3004	 str         r3, [sp, #4]
  00f14	ea000001	 b           |$LN6@OEMInterru@2|
  00f18		 |$LN5@OEMInterru@2|
  00f18	e3a03000	 mov         r3, #0
  00f1c	e58d3004	 str         r3, [sp, #4]
  00f20		 |$LN6@OEMInterru@2|

; 403  : }

  00f20	e28dd008	 add         sp, sp, #8
  00f24	e89d6000	 ldmia       sp, {sp, lr}
  00f28	e12fff1e	 bx          lr
  00f2c		 |$LN10@OEMInterru@2|
  00f2c		 |$LN11@OEMInterru@2|
  00f2c	00000000	 DCD         |??_C@_1CO@FKOPLHGO@?$AA?9?$AAO?$AAE?$AAM?$AAI?$AAn?$AAt?$AAe?$AAr?$AAr?$AAu?$AAp?$AAt?$AAD?$AAi?$AAs?$AAa?$AAb?$AAl?$AAe?$AA?$AN?$AA?6?$AA?$AA@|
  00f30		 |$LN12@OEMInterru@2|
  00f30	00000000	 DCD         |dpCurSettings|
  00f34		 |$LN13@OEMInterru@2|
  00f34	00000000	 DCD         |g_oalSysIntr2Irq|
  00f38		 |$LN14@OEMInterru@2|
  00f38	00000000	 DCD         |??_C@_1DG@HOKLDENP@?$AA?$CL?$AAO?$AAE?$AAM?$AAI?$AAn?$AAt?$AAe?$AAr?$AAr?$AAu?$AAp?$AAt?$AAD?$AAi?$AAs?$AAa?$AAb?$AAl?$AAe?$AA?$CI?$AA?$CF?$AAd?$AA?$CJ?$AA?$AN?$AA?6?$AA?$AA@|
  00f3c		 |$M44246|

			 ENDP  ; |OEMInterruptDisable|

	EXPORT	|??_C@_1CI@OPHGDEL@?$AA?9?$AAO?$AAE?$AAM?$AAI?$AAn?$AAt?$AAe?$AAr?$AAr?$AAu?$AAp?$AAt?$AAM?$AAa?$AAs?$AAk?$AA?$AN?$AA?6?$AA?$AA@| [ DATA ] ; `string'
	EXPORT	|??_C@_1DI@MFEEGIMP@?$AA?$CL?$AAO?$AAE?$AAM?$AAI?$AAn?$AAt?$AAe?$AAr?$AAr?$AAu?$AAp?$AAt?$AAM?$AAa?$AAs?$AAk?$AA?$CI?$AA?$CF?$AAd?$AA?0?$AA?5?$AA?$CF?$AAd?$AA?$CJ?$AA?$AN?$AA?6?$AA?$AA@| [ DATA ] ; `string'
	EXPORT	|OEMInterruptMask|

  00040			 AREA	 |.pdata|, PDATA
|$T44262| DCD	|$LN11@OEMInterru@3|
	DCD	0x40003d04

  00000			 AREA	 |.rdata|, DATA, READONLY
|??_C@_1CI@OPHGDEL@?$AA?9?$AAO?$AAE?$AAM?$AAI?$AAn?$AAt?$AAe?$AAr?$AAr?$AAu?$AAp?$AAt?$AAM?$AAa?$AAs?$AAk?$AA?$AN?$AA?6?$AA?$AA@| DCB "-"
	DCB	0x0, "O", 0x0, "E", 0x0, "M", 0x0, "I", 0x0, "n", 0x0, "t"
	DCB	0x0, "e", 0x0, "r", 0x0, "r", 0x0, "u", 0x0, "p", 0x0, "t"
	DCB	0x0, "M", 0x0, "a", 0x0, "s", 0x0, "k", 0x0, 0xd, 0x0, 0xa
	DCB	0x0, 0x0, 0x0				; `string'

  00000			 AREA	 |.rdata|, DATA, READONLY
|??_C@_1DI@MFEEGIMP@?$AA?$CL?$AAO?$AAE?$AAM?$AAI?$AAn?$AAt?$AAe?$AAr?$AAr?$AAu?$AAp?$AAt?$AAM?$AAa?$AAs?$AAk?$AA?$CI?$AA?$CF?$AAd?$AA?0?$AA?5?$AA?$CF?$AAd?$AA?$CJ?$AA?$AN?$AA?6?$AA?$AA@| DCB "+"
	DCB	0x0, "O", 0x0, "E", 0x0, "M", 0x0, "I", 0x0, "n", 0x0, "t"
	DCB	0x0, "e", 0x0, "r", 0x0, "r", 0x0, "u", 0x0, "p", 0x0, "t"
	DCB	0x0, "M", 0x0, "a", 0x0, "s", 0x0, "k", 0x0, "(", 0x0, "%"
	DCB	0x0, "d", 0x0, ",", 0x0, " ", 0x0, "%", 0x0, "d", 0x0, ")"
	DCB	0x0, 0xd, 0x0, 0xa, 0x0, 0x0, 0x0	; `string'
; Function compile flags: /Odtp

  00f3c			 AREA	 |.text|, CODE, ARM

  00f3c		 |OEMInterruptMask| PROC

; 417  : {

  00f3c		 |$LN11@OEMInterru@3|
  00f3c	e1a0c00d	 mov         r12, sp
  00f40	e92d0003	 stmdb       sp!, {r0, r1}
  00f44	e92d5000	 stmdb       sp!, {r12, lr}
  00f48	e24dd008	 sub         sp, sp, #8
  00f4c		 |$M44259|

; 418  :     OALMSG(OAL_INTR&&OAL_VERBOSE, (
; 419  :         L"+OEMInterruptMask(%d, %d)\r\n", sysIntr, mask
; 420  :         ));

  00f4c	e59f30d0	 ldr         r3, [pc, #0xD0]
  00f50	e5933440	 ldr         r3, [r3, #0x440]
  00f54	e3130901	 tst         r3, #1, 18
  00f58	0a00000a	 beq         |$LN5@OEMInterru@3|
  00f5c	e59f30c0	 ldr         r3, [pc, #0xC0]
  00f60	e5933440	 ldr         r3, [r3, #0x440]
  00f64	e3130902	 tst         r3, #2, 18
  00f68	0a000006	 beq         |$LN5@OEMInterru@3|
  00f6c	e59d2014	 ldr         r2, [sp, #0x14]
  00f70	e59d1010	 ldr         r1, [sp, #0x10]
  00f74	e59f00b0	 ldr         r0, [pc, #0xB0]
  00f78	eb000000	 bl          NKDbgPrintfW
  00f7c	e3a03001	 mov         r3, #1
  00f80	e58d3000	 str         r3, [sp]
  00f84	ea000001	 b           |$LN6@OEMInterru@3|
  00f88		 |$LN5@OEMInterru@3|
  00f88	e3a03000	 mov         r3, #0
  00f8c	e58d3000	 str         r3, [sp]
  00f90		 |$LN6@OEMInterru@3|

; 421  : 
; 422  :     // Based on mask enable or disable
; 423  :     if (mask)

  00f90	e59d3014	 ldr         r3, [sp, #0x14]
  00f94	e3530000	 cmp         r3, #0
  00f98	0a000007	 beq         |$LN2@OEMInterru@3|

; 424  :         {
; 425  :         OALIntrDisableIrqs(OMAP5912_IRQ_PER_SYSINTR, g_oalSysIntr2Irq[sysIntr]);

  00f9c	e59d1010	 ldr         r1, [sp, #0x10]
  00fa0	e3a03010	 mov         r3, #0x10
  00fa4	e0020391	 mul         r2, r1, r3
  00fa8	e59f3078	 ldr         r3, [pc, #0x78]
  00fac	e0831002	 add         r1, r3, r2
  00fb0	e3a00004	 mov         r0, #4
  00fb4	eb000000	 bl          OALIntrDisableIrqs

; 426  :         }
; 427  :     else 

  00fb8	ea000006	 b           |$LN1@OEMInterru@3|
  00fbc		 |$LN2@OEMInterru@3|

; 428  :         {
; 429  :         OALIntrEnableIrqs(OMAP5912_IRQ_PER_SYSINTR, g_oalSysIntr2Irq[sysIntr]);

  00fbc	e59d1010	 ldr         r1, [sp, #0x10]
  00fc0	e3a03010	 mov         r3, #0x10
  00fc4	e0020391	 mul         r2, r1, r3
  00fc8	e59f3058	 ldr         r3, [pc, #0x58]
  00fcc	e0831002	 add         r1, r3, r2
  00fd0	e3a00004	 mov         r0, #4
  00fd4	eb000000	 bl          OALIntrEnableIrqs
  00fd8		 |$LN1@OEMInterru@3|

; 430  :         }
; 431  : 
; 432  :     OALMSG(OAL_INTR&&OAL_VERBOSE, (L"-OEMInterruptMask\r\n"));

  00fd8	e59f3044	 ldr         r3, [pc, #0x44]
  00fdc	e5933440	 ldr         r3, [r3, #0x440]
  00fe0	e3130901	 tst         r3, #1, 18
  00fe4	0a000008	 beq         |$LN7@OEMInterru@3|
  00fe8	e59f3034	 ldr         r3, [pc, #0x34]
  00fec	e5933440	 ldr         r3, [r3, #0x440]
  00ff0	e3130902	 tst         r3, #2, 18
  00ff4	0a000004	 beq         |$LN7@OEMInterru@3|
  00ff8	e59f0020	 ldr         r0, [pc, #0x20]
  00ffc	eb000000	 bl          NKDbgPrintfW
  01000	e3a03001	 mov         r3, #1
  01004	e58d3004	 str         r3, [sp, #4]
  01008	ea000001	 b           |$LN8@OEMInterru@3|
  0100c		 |$LN7@OEMInterru@3|
  0100c	e3a03000	 mov         r3, #0
  01010	e58d3004	 str         r3, [sp, #4]
  01014		 |$LN8@OEMInterru@3|

; 433  : }

  01014	e28dd008	 add         sp, sp, #8
  01018	e89d6000	 ldmia       sp, {sp, lr}
  0101c	e12fff1e	 bx          lr
  01020		 |$LN12@OEMInterru@3|
  01020		 |$LN13@OEMInterru@3|
  01020	00000000	 DCD         |??_C@_1CI@OPHGDEL@?$AA?9?$AAO?$AAE?$AAM?$AAI?$AAn?$AAt?$AAe?$AAr?$AAr?$AAu?$AAp?$AAt?$AAM?$AAa?$AAs?$AAk?$AA?$AN?$AA?6?$AA?$AA@|
  01024		 |$LN14@OEMInterru@3|
  01024	00000000	 DCD         |dpCurSettings|
  01028		 |$LN15@OEMInterru@3|
  01028	00000000	 DCD         |g_oalSysIntr2Irq|
  0102c		 |$LN16@OEMInterru@3|
  0102c	00000000	 DCD         |??_C@_1DI@MFEEGIMP@?$AA?$CL?$AAO?$AAE?$AAM?$AAI?$AAn?$AAt?$AAe?$AAr?$AAr?$AAu?$AAp?$AAt?$AAM?$AAa?$AAs?$AAk?$AA?$CI?$AA?$CF?$AAd?$AA?0?$AA?5?$AA?$CF?$AAd?$AA?$CJ?$AA?$AN?$AA?6?$AA?$AA@|
  01030		 |$M44260|

			 ENDP  ; |OEMInterruptMask|

	EXPORT	|??_C@_1CI@IOEKFHHP@?$AA?9?$AAO?$AAE?$AAM?$AAI?$AAn?$AAt?$AAe?$AAr?$AAr?$AAu?$AAp?$AAt?$AAD?$AAo?$AAn?$AAe?$AA?$AN?$AA?6?$AA?$AA@| [ DATA ] ; `string'
	EXPORT	|??_C@_1DA@HAMHGFMF@?$AA?$CL?$AAO?$AAE?$AAM?$AAI?$AAn?$AAt?$AAe?$AAr?$AAr?$AAu?$AAp?$AAt?$AAD?$AAo?$AAn?$AAe?$AA?$CI?$AA?$CF?$AAd?$AA?$CJ?$AA?$AN?$AA?6?$AA?$AA@| [ DATA ] ; `string'
	EXPORT	|OEMInterruptDone|
	IMPORT	|OALIntrDoneIrqs|

  00048			 AREA	 |.pdata|, PDATA
|$T44276| DCD	|$LN9@OEMInterru@4|
	DCD	0x40003104

  00000			 AREA	 |.rdata|, DATA, READONLY
|??_C@_1CI@IOEKFHHP@?$AA?9?$AAO?$AAE?$AAM?$AAI?$AAn?$AAt?$AAe?$AAr?$AAr?$AAu?$AAp?$AAt?$AAD?$AAo?$AAn?$AAe?$AA?$AN?$AA?6?$AA?$AA@| DCB "-"
	DCB	0x0, "O", 0x0, "E", 0x0, "M", 0x0, "I", 0x0, "n", 0x0, "t"
	DCB	0x0, "e", 0x0, "r", 0x0, "r", 0x0, "u", 0x0, "p", 0x0, "t"
	DCB	0x0, "D", 0x0, "o", 0x0, "n", 0x0, "e", 0x0, 0xd, 0x0, 0xa
	DCB	0x0, 0x0, 0x0				; `string'

  00000			 AREA	 |.rdata|, DATA, READONLY
|??_C@_1DA@HAMHGFMF@?$AA?$CL?$AAO?$AAE?$AAM?$AAI?$AAn?$AAt?$AAe?$AAr?$AAr?$AAu?$AAp?$AAt?$AAD?$AAo?$AAn?$AAe?$AA?$CI?$AA?$CF?$AAd?$AA?$CJ?$AA?$AN?$AA?6?$AA?$AA@| DCB "+"
	DCB	0x0, "O", 0x0, "E", 0x0, "M", 0x0, "I", 0x0, "n", 0x0, "t"
	DCB	0x0, "e", 0x0, "r", 0x0, "r", 0x0, "u", 0x0, "p", 0x0, "t"
	DCB	0x0, "D", 0x0, "o", 0x0, "n", 0x0, "e", 0x0, "(", 0x0, "%"
	DCB	0x0, "d", 0x0, ")", 0x0, 0xd, 0x0, 0xa, 0x0, 0x0, 0x0 ; `string'
; Function compile flags: /Odtp

  01030			 AREA	 |.text|, CODE, ARM

  01030		 |OEMInterruptDone| PROC

; 447  : {

  01030		 |$LN9@OEMInterru@4|
  01030	e1a0c00d	 mov         r12, sp
  01034	e92d0001	 stmdb       sp!, {r0}
  01038	e92d5000	 stmdb       sp!, {r12, lr}
  0103c	e24dd008	 sub         sp, sp, #8
  01040		 |$M44273|

; 448  :     OALMSG(OAL_INTR&&OAL_VERBOSE, (L"+OEMInterruptDone(%d)\r\n", sysIntr));

  01040	e59f30a0	 ldr         r3, [pc, #0xA0]
  01044	e5933440	 ldr         r3, [r3, #0x440]
  01048	e3130901	 tst         r3, #1, 18
  0104c	0a000009	 beq         |$LN3@OEMInterru@4|
  01050	e59f3090	 ldr         r3, [pc, #0x90]
  01054	e5933440	 ldr         r3, [r3, #0x440]
  01058	e3130902	 tst         r3, #2, 18
  0105c	0a000005	 beq         |$LN3@OEMInterru@4|
  01060	e59d1010	 ldr         r1, [sp, #0x10]
  01064	e59f0084	 ldr         r0, [pc, #0x84]
  01068	eb000000	 bl          NKDbgPrintfW
  0106c	e3a03001	 mov         r3, #1
  01070	e58d3000	 str         r3, [sp]
  01074	ea000001	 b           |$LN4@OEMInterru@4|
  01078		 |$LN3@OEMInterru@4|
  01078	e3a03000	 mov         r3, #0
  0107c	e58d3000	 str         r3, [sp]
  01080		 |$LN4@OEMInterru@4|

; 449  : 
; 450  :     // Re-enable interrupts
; 451  :     OALIntrDoneIrqs(OMAP5912_IRQ_PER_SYSINTR, g_oalSysIntr2Irq[sysIntr]); 

  01080	e59d1010	 ldr         r1, [sp, #0x10]
  01084	e3a03010	 mov         r3, #0x10
  01088	e0020391	 mul         r2, r1, r3
  0108c	e59f3058	 ldr         r3, [pc, #0x58]
  01090	e0831002	 add         r1, r3, r2
  01094	e3a00004	 mov         r0, #4
  01098	eb000000	 bl          OALIntrDoneIrqs

; 452  :     
; 453  :     OALMSG(OAL_INTR&&OAL_VERBOSE, (L"-OEMInterruptDone\r\n"));

  0109c	e59f3044	 ldr         r3, [pc, #0x44]
  010a0	e5933440	 ldr         r3, [r3, #0x440]
  010a4	e3130901	 tst         r3, #1, 18
  010a8	0a000008	 beq         |$LN5@OEMInterru@4|
  010ac	e59f3034	 ldr         r3, [pc, #0x34]
  010b0	e5933440	 ldr         r3, [r3, #0x440]
  010b4	e3130902	 tst         r3, #2, 18
  010b8	0a000004	 beq         |$LN5@OEMInterru@4|
  010bc	e59f0020	 ldr         r0, [pc, #0x20]
  010c0	eb000000	 bl          NKDbgPrintfW
  010c4	e3a03001	 mov         r3, #1
  010c8	e58d3004	 str         r3, [sp, #4]
  010cc	ea000001	 b           |$LN6@OEMInterru@4|
  010d0		 |$LN5@OEMInterru@4|
  010d0	e3a03000	 mov         r3, #0
  010d4	e58d3004	 str         r3, [sp, #4]
  010d8		 |$LN6@OEMInterru@4|

; 454  : }

  010d8	e28dd008	 add         sp, sp, #8
  010dc	e89d6000	 ldmia       sp, {sp, lr}
  010e0	e12fff1e	 bx          lr
  010e4		 |$LN10@OEMInterru@4|
  010e4		 |$LN11@OEMInterru@4|
  010e4	00000000	 DCD         |??_C@_1CI@IOEKFHHP@?$AA?9?$AAO?$AAE?$AAM?$AAI?$AAn?$AAt?$AAe?$AAr?$AAr?$AAu?$AAp?$AAt?$AAD?$AAo?$AAn?$AAe?$AA?$AN?$AA?6?$AA?$AA@|
  010e8		 |$LN12@OEMInterru@4|
  010e8	00000000	 DCD         |dpCurSettings|
  010ec		 |$LN13@OEMInterru@4|
  010ec	00000000	 DCD         |g_oalSysIntr2Irq|
  010f0		 |$LN14@OEMInterru@4|
  010f0	00000000	 DCD         |??_C@_1DA@HAMHGFMF@?$AA?$CL?$AAO?$AAE?$AAM?$AAI?$AAn?$AAt?$AAe?$AAr?$AAr?$AAu?$AAp?$AAt?$AAD?$AAo?$AAn?$AAe?$AA?$CI?$AA?$CF?$AAd?$AA?$CJ?$AA?$AN?$AA?6?$AA?$AA@|
  010f4		 |$M44274|

			 ENDP  ; |OEMInterruptDone|

	END
