; Listing generated by Microsoft (R) Optimizing Compiler Version 14.01.60511.01 

	TTL	C:\WINCE600\PLATFORM\COMMON\SRC\SOC\PXA27X_MS_V1\XLLP\SOURCE\xllp_serialization.c
	CODE32

  00000			 AREA	 |.drectve|, DRECTVE
	DCB	"-defaultlib:LIBCMT "
	DCB	"-defaultlib:OLDNAMES "

	EXPORT	|XllpLock|
; File c:\wince600\platform\common\src\soc\pxa27x_ms_v1\xllp\source\xllp_serialization.c

  00000			 AREA	 |.pdata|, PDATA
|$T598|	DCD	|$LN5@XllpLock|
	DCD	0x40000200
; Function compile flags: /Ogspy

  00000			 AREA	 |.text|, CODE, ARM

  00000		 |XllpLock| PROC

; 17   : {

  00000		 |$LN5@XllpLock|
  00000		 |$M595|

; 18   : 	return 0;

  00000	e3a00000	 mov         r0, #0

; 19   : }

  00004	e12fff1e	 bx          lr
  00008		 |$M596|

			 ENDP  ; |XllpLock|

	EXPORT	|XllpUnlock|

  00000			 AREA	 |.pdata|, PDATA
|$T605|	DCD	|$LN5@XllpUnlock|
	DCD	0x40000100
; Function compile flags: /Ogspy

  00000			 AREA	 |.text|, CODE, ARM

  00000		 |XllpUnlock| PROC

; 22   : {

  00000		 |$LN5@XllpUnlock|
  00000		 |$M602|

; 23   : 
; 24   : }

  00000	e12fff1e	 bx          lr
  00004		 |$M603|

			 ENDP  ; |XllpUnlock|

	END
