; Listing generated by Microsoft (R) Optimizing Compiler Version 14.01.60511.01 

	TTL	C:\WINCE600\PLATFORM\COMMON\SRC\SOC\COMMON_TI_V1\COMMON_TI\SDHC\BASE\sdhc.cpp
	CODE32

  00000			 AREA	 |.drectve|, DRECTVE
	DCB	"-defaultlib:LIBCMT "
	DCB	"-defaultlib:OLDNAMES "

	EXPORT	|??_C@_1BG@PCNFFOOE@?$AAS?$AAl?$AAo?$AAt?$AAN?$AAu?$AAm?$AAb?$AAe?$AAr?$AA?$AA@| [ DATA ] ; `string'
	EXPORT	|??_C@_1BI@EJNOAJAN@?$AAS?$AAD?$AAC?$AAl?$AAo?$AAc?$AAk?$AAM?$AAo?$AAd?$AAe?$AA?$AA@| [ DATA ] ; `string'
	EXPORT	|??_C@_1CG@CNGMEHNJ@?$AAS?$AAD?$AAH?$AAi?$AAg?$AAh?$AAS?$AAp?$AAe?$AAe?$AAd?$AAS?$AAu?$AAp?$AAp?$AAo?$AAr?$AAt?$AA?$AA@| [ DATA ] ; `string'
	EXPORT	|??_C@_1BM@JHFMHONC@?$AAD?$AAM?$AAA?$AAB?$AAu?$AAf?$AAf?$AAe?$AAr?$AAS?$AAi?$AAz?$AAe?$AA?$AA@| [ DATA ] ; `string'
	EXPORT	|??_C@_1DA@KLIJNKLI@?$AAC?$AAa?$AAr?$AAd?$AAW?$AAr?$AAi?$AAt?$AAe?$AAP?$AAr?$AAo?$AAt?$AAe?$AAc?$AAt?$AAe?$AAd?$AAS?$AAt?$AAa?$AAt?$AAe?$AA?$AA@| [ DATA ] ; `string'
	EXPORT	|??_C@_1BG@HDJCPCIJ@?$AAC?$AAa?$AAr?$AAd?$AAW?$AAP?$AAG?$AAP?$AAI?$AAO?$AA?$AA@| [ DATA ] ; `string'
	EXPORT	|??_C@_1CE@MKPLCKIN@?$AAC?$AAa?$AAr?$AAd?$AAI?$AAn?$AAs?$AAe?$AAr?$AAt?$AAe?$AAd?$AAS?$AAt?$AAa?$AAt?$AAe?$AA?$AA@| [ DATA ] ; `string'
	EXPORT	|??_C@_1BO@LKNMDJEA@?$AAC?$AAa?$AAr?$AAd?$AAD?$AAe?$AAt?$AAe?$AAc?$AAt?$AAG?$AAP?$AAI?$AAO?$AA?$AA@| [ DATA ] ; `string'
	EXPORT	|??_C@_1BM@NNIPIGOJ@?$AAW?$AAa?$AAk?$AAe?$AAu?$AAp?$AAS?$AAo?$AAu?$AAr?$AAc?$AAe?$AAs?$AA?$AA@| [ DATA ] ; `string'
	EXPORT	|??_C@_1CC@LMBBBPNF@?$AAR?$AAe?$AAa?$AAd?$AAW?$AAr?$AAi?$AAt?$AAe?$AAT?$AAi?$AAm?$AAe?$AAo?$AAu?$AAt?$AA?$AA@| [ DATA ] ; `string'
	EXPORT	|??_C@_1CG@OOJEOPHC@?$AAB?$AAa?$AAs?$AAe?$AAC?$AAl?$AAo?$AAc?$AAk?$AAF?$AAr?$AAe?$AAq?$AAu?$AAe?$AAn?$AAc?$AAy?$AA?$AA@| [ DATA ] ; `string'
	EXPORT	|??_C@_1BG@NAMMPMDB@?$AAC?$AAD?$AAP?$AAr?$AAi?$AAo?$AAr?$AAi?$AAt?$AAy?$AA?$AA@| [ DATA ] ; `string'
	EXPORT	|??_C@_1BK@KBGNDCFC@?$AAS?$AAD?$AAI?$AAO?$AAP?$AAr?$AAi?$AAo?$AAr?$AAi?$AAt?$AAy?$AA?$AA@| [ DATA ] ; `string'
	EXPORT	|??_C@_1BG@BPLBIFEM@?$AAD?$AAT?$AAO?$AAT?$AAi?$AAm?$AAe?$AAo?$AAu?$AAt?$AA?$AA@| [ DATA ] ; `string'
	EXPORT	|??_C@_1BG@HKGILLAM@?$AAC?$AAT?$AAO?$AAT?$AAi?$AAm?$AAe?$AAo?$AAu?$AAt?$AA?$AA@| [ DATA ] ; `string'
	EXPORT	|??_C@_1CC@HBIKPBAC@?$AAS?$AAd?$AAM?$AAe?$AAm?$AA4?$AAB?$AAi?$AAt?$AAD?$AAi?$AAs?$AAa?$AAb?$AAl?$AAe?$AA?$AA@| [ DATA ] ; `string'
	EXPORT	|??_C@_1CA@JDJLDHKA@?$AAS?$AAd?$AAi?$AAo?$AA4?$AAB?$AAi?$AAt?$AAD?$AAi?$AAs?$AAa?$AAb?$AAl?$AAe?$AA?$AA@| [ DATA ] ; `string'
	EXPORT	|??_C@_1BO@KFEHNIN@?$AAL?$AAo?$AAw?$AAV?$AAo?$AAl?$AAt?$AAa?$AAg?$AAe?$AAS?$AAl?$AAo?$AAt?$AA?$AA@| [ DATA ] ; `string'
	EXPORT	|??_C@_1BM@MAOJDGGP@?$AAF?$AAa?$AAs?$AAt?$AAP?$AAa?$AAt?$AAh?$AA_?$AAS?$AAD?$AAI?$AAO?$AA?$AA@| [ DATA ] ; `string'
	EXPORT	|??_C@_1BO@GBHAIPGE@?$AAF?$AAa?$AAs?$AAt?$AAP?$AAa?$AAt?$AAh?$AA_?$AAS?$AAD?$AAM?$AAE?$AAM?$AA?$AA@| [ DATA ] ; `string'
	EXPORT	|??_C@_1CI@MJKCNHDK@?$AAS?$AAD?$AAI?$AAO?$AAA?$AAc?$AAt?$AAi?$AAv?$AAi?$AAt?$AAy?$AAT?$AAi?$AAm?$AAe?$AAo?$AAu?$AAt?$AA?$AA@| [ DATA ] ; `string'
	EXPORT	|??_C@_1CO@BIPPPOIB@?$AAN?$AAo?$AAn?$AAS?$AAD?$AAI?$AAO?$AAA?$AAc?$AAt?$AAi?$AAv?$AAi?$AAt?$AAy?$AAT?$AAi?$AAm?$AAe?$AAo?$AAu?$AAt?$AA?$AA@| [ DATA ] ; `string'
	EXPORT	|?szHexBuf@@3PADA| [ DATA ]		; szHexBuf
	EXPORT	|?m_cmdArrSize@CSDIOControllerBase@@2KB| [ DATA ] ; CSDIOControllerBase::m_cmdArrSize
	EXPORT	|?gwaCMD@@3PAUCMD@@A| [ DATA ]		; gwaCMD
	EXPORT	|?gwaCMD60_HS@@3UCMD@@A| [ DATA ]	; gwaCMD60_HS

  00000			 AREA	 |.bss|, NOINIT
|?szHexBuf@@3PADA| % 0x400				; szHexBuf

  00000			 AREA	 |.data|, DATA
|?gwaCMD@@3PAUCMD@@A| DCB 0x1				; gwaCMD
	DCB	0x0
	DCB	0x0
	%	1
	DCD	0x0
	DCB	0x0
	DCB	0x0
	DCB	0x1
	%	1
	DCD	0x120000
	DCB	0x1
	DCB	0x0
	DCB	0x1
	%	1
	DCD	0x90000
	DCB	0x1
	DCB	0x0
	DCB	0x1
	%	1
	DCD	0x20000
	DCB	0x1
	DCB	0x0
	DCB	0x0
	%	1
	DCD	0x0
	DCB	0x2
	DCB	0x0
	DCB	0x0
	%	1
	DCD	0x20000
	DCB	0x0
	DCB	0x1
	DCB	0x0
	%	1
	DCD	0x30000
	DCB	0x1
	DCB	0x0
	DCB	0x0
	%	1
	DCD	0x20000
	DCB	0x1
	DCB	0x0
	DCB	0x0
	%	1
	DCD	0x20000
	DCB	0x1
	DCB	0x0
	DCB	0x0
	%	1
	DCD	0x10000
	DCB	0x1
	DCB	0x0
	DCB	0x0
	%	1
	DCD	0x10000
	DCB	0x0
	DCB	0x0
	DCB	0x1
	%	1
	DCD	0x220010
	DCB	0x1
	DCB	0x0
	DCB	0x0
	%	1
	DCD	0xc30000
	DCB	0x1
	DCB	0x1
	DCB	0x0
	%	1
	DCD	0x20000
	DCB	0x0
	DCB	0x0
	DCB	0x0
	%	1
	DCD	0x0
	DCB	0x1
	DCB	0x0
	DCB	0x0
	%	1
	DCD	0x0
	DCB	0x1
	DCB	0x0
	DCB	0x0
	%	1
	DCD	0x1a0000
	DCB	0x1
	DCB	0x1
	DCB	0x0
	%	1
	DCD	0x220032
	DCB	0x1
	DCB	0x1
	DCB	0x0
	%	1
	DCD	0x220032
	DCB	0x0
	DCB	0x1
	DCB	0x0
	%	1
	DCD	0x0
	DCB	0x0
	DCB	0x1
	DCB	0x1
	%	1
	DCD	0x230000
	DCB	0x0
	DCB	0x1
	DCB	0x0
	%	1
	DCD	0x0
	DCB	0x0
	DCB	0x1
	DCB	0x0
	%	1
	DCD	0x20010
	DCB	0x0
	DCB	0x1
	DCB	0x0
	%	1
	DCD	0x0
	DCB	0x1
	DCB	0x1
	DCB	0x0
	%	1
	DCD	0x220022
	DCB	0x1
	DCB	0x1
	DCB	0x0
	%	1
	DCD	0x220022
	DCB	0x0
	DCB	0x1
	DCB	0x0
	%	1
	DCD	0x20000
	DCB	0x1
	DCB	0x0
	DCB	0x0
	%	1
	DCD	0x20000
	DCB	0x1
	DCB	0x0
	DCB	0x0
	%	1
	DCD	0x30000
	DCB	0x1
	DCB	0x0
	DCB	0x0
	%	1
	DCD	0x30000
	DCB	0x1
	DCB	0x0
	DCB	0x0
	%	1
	DCD	0x20010
	DCB	0x0
	DCB	0x0
	DCB	0x0
	%	1
	DCD	0x0
	DCB	0x1
	DCB	0x0
	DCB	0x0
	%	1
	DCD	0x0
	DCB	0x1
	DCB	0x0
	DCB	0x0
	%	1
	DCD	0x0
	DCB	0x0
	DCB	0x0
	DCB	0x0
	%	1
	DCD	0x0
	DCB	0x1
	DCB	0x0
	DCB	0x0
	%	1
	DCD	0x20000
	DCB	0x1
	DCB	0x0
	DCB	0x0
	%	1
	DCD	0x20000
	DCB	0x0
	DCB	0x0
	DCB	0x0
	%	1
	DCD	0x0
	DCB	0x1
	DCB	0x1
	DCB	0x0
	%	1
	DCD	0x30000
	DCB	0x0
	DCB	0x1
	DCB	0x0
	%	1
	DCD	0x20000
	DCB	0x1
	DCB	0x1
	DCB	0x1
	%	1
	DCD	0x20000
	DCB	0x0
	DCB	0x1
	DCB	0x0
	%	1
	DCD	0x20000
	DCB	0x1
	DCB	0x1
	DCB	0x0
	%	1
	DCD	0x20000
	DCB	0x0
	DCB	0x1
	DCB	0x0
	%	1
	DCD	0x0
	DCB	0x0
	DCB	0x1
	DCB	0x0
	%	1
	DCD	0x0
	DCB	0x0
	DCB	0x1
	DCB	0x0
	%	1
	DCD	0x0
	DCB	0x0
	DCB	0x1
	DCB	0x0
	%	1
	DCD	0x0
	DCB	0x0
	DCB	0x1
	DCB	0x0
	%	1
	DCD	0x0
	DCB	0x0
	DCB	0x1
	DCB	0x0
	%	1
	DCD	0x0
	DCB	0x0
	DCB	0x1
	DCB	0x0
	%	1
	DCD	0x0
	DCB	0x0
	DCB	0x1
	DCB	0x0
	%	1
	DCD	0x0
	DCB	0x0
	DCB	0x1
	DCB	0x0
	%	1
	DCD	0x220000
	DCB	0x2
	DCB	0x0
	DCB	0x0
	%	1
	DCD	0x20000
	DCB	0x2
	DCB	0x0
	DCB	0x0
	%	1
	DCD	0x220000
	DCB	0x0
	DCB	0x0
	DCB	0x0
	%	1
	DCD	0x0
	DCB	0x1
	DCB	0x0
	DCB	0x0
	%	1
	DCD	0x20000
	DCB	0x1
	DCB	0x0
	DCB	0x0
	%	1
	DCD	0x0
	DCB	0x0
	DCB	0x0
	DCB	0x0
	%	1
	DCD	0x0
	DCB	0x0
	DCB	0x0
	DCB	0x0
	%	1
	DCD	0x0
	DCB	0x0
	DCB	0x0
	DCB	0x0
	%	1
	DCD	0x20000
	DCB	0x0
	DCB	0x0
	DCB	0x0
	%	1
	DCD	0x0
	DCB	0x0
	DCB	0x0
	DCB	0x0
	%	1
	DCD	0x0
	DCB	0x0
	DCB	0x0
	DCB	0x0
	%	1
	DCD	0x0
	DCB	0x0
	DCB	0x0
	DCB	0x0
	%	1
	DCD	0x0
|?gwaCMD60_HS@@3UCMD@@A| DCB 0x1			; gwaCMD60_HS
	DCB	0x0
	DCB	0x0
	%	1
	DCD	0x220032

  00000			 AREA	 |.rdata|, DATA, READONLY
|s_deviceRegParams| DCD |??_C@_1CO@BIPPPOIB@?$AAN?$AAo?$AAn?$AAS?$AAD?$AAI?$AAO?$AAA?$AAc?$AAt?$AAi?$AAv?$AAi?$AAt?$AAy?$AAT?$AAi?$AAm?$AAe?$AAo?$AAu?$AAt?$AA?$AA@|
	DCD	0x1
	DCD	0x0
	DCD	0x1b0
	DCD	0x4
	DCD	0x1
	DCD	|??_C@_1CI@MJKCNHDK@?$AAS?$AAD?$AAI?$AAO?$AAA?$AAc?$AAt?$AAi?$AAv?$AAi?$AAt?$AAy?$AAT?$AAi?$AAm?$AAe?$AAo?$AAu?$AAt?$AA?$AA@|
	DCD	0x1
	DCD	0x0
	DCD	0x1b4
	DCD	0x4
	DCD	0x7d0
	DCD	|??_C@_1BO@GBHAIPGE@?$AAF?$AAa?$AAs?$AAt?$AAP?$AAa?$AAt?$AAh?$AA_?$AAS?$AAD?$AAM?$AAE?$AAM?$AA?$AA@|
	DCD	0x1
	DCD	0x0
	DCD	0x184
	DCD	0x4
	DCD	0x0
	DCD	|??_C@_1BM@MAOJDGGP@?$AAF?$AAa?$AAs?$AAt?$AAP?$AAa?$AAt?$AAh?$AA_?$AAS?$AAD?$AAI?$AAO?$AA?$AA@|
	DCD	0x1
	DCD	0x0
	DCD	0x180
	DCD	0x4
	DCD	0x1
	DCD	|??_C@_1BO@KFEHNIN@?$AAL?$AAo?$AAw?$AAV?$AAo?$AAl?$AAt?$AAa?$AAg?$AAe?$AAS?$AAl?$AAo?$AAt?$AA?$AA@|
	DCD	0x1
	DCD	0x0
	DCD	0x18c
	DCD	0x4
	DCD	0x0
	DCD	|??_C@_1CA@JDJLDHKA@?$AAS?$AAd?$AAi?$AAo?$AA4?$AAB?$AAi?$AAt?$AAD?$AAi?$AAs?$AAa?$AAb?$AAl?$AAe?$AA?$AA@|
	DCD	0x1
	DCD	0x0
	DCD	0x190
	DCD	0x4
	DCD	0x0
	DCD	|??_C@_1CC@HBIKPBAC@?$AAS?$AAd?$AAM?$AAe?$AAm?$AA4?$AAB?$AAi?$AAt?$AAD?$AAi?$AAs?$AAa?$AAb?$AAl?$AAe?$AA?$AA@|
	DCD	0x1
	DCD	0x0
	DCD	0x194
	DCD	0x4
	DCD	0x0
	DCD	|??_C@_1BG@HKGILLAM@?$AAC?$AAT?$AAO?$AAT?$AAi?$AAm?$AAe?$AAo?$AAu?$AAt?$AA?$AA@|
	DCD	0x1
	DCD	0x0
	DCD	0x140
	DCD	0x4
	DCD	0x5
	DCD	|??_C@_1BG@BPLBIFEM@?$AAD?$AAT?$AAO?$AAT?$AAi?$AAm?$AAe?$AAo?$AAu?$AAt?$AA?$AA@|
	DCD	0x1
	DCD	0x0
	DCD	0x144
	DCD	0x4
	DCD	0x200
	DCD	|??_C@_1BK@KBGNDCFC@?$AAS?$AAD?$AAI?$AAO?$AAP?$AAr?$AAi?$AAo?$AAr?$AAi?$AAt?$AAy?$AA?$AA@|
	DCD	0x1
	DCD	0x0
	DCD	0x128
	DCD	0x4
	DCD	0x97
	DCD	|??_C@_1BG@NAMMPMDB@?$AAC?$AAD?$AAP?$AAr?$AAi?$AAo?$AAr?$AAi?$AAt?$AAy?$AA?$AA@|
	DCD	0x1
	DCD	0x0
	DCD	0x12c
	DCD	0x4
	DCD	0x98
	DCD	|??_C@_1CG@OOJEOPHC@?$AAB?$AAa?$AAs?$AAe?$AAC?$AAl?$AAo?$AAc?$AAk?$AAF?$AAr?$AAe?$AAq?$AAu?$AAe?$AAn?$AAc?$AAy?$AA?$AA@|
	DCD	0x1
	DCD	0x0
	DCD	0x148
	DCD	0x4
	DCD	0x2dc6c00
	DCD	|??_C@_1CC@LMBBBPNF@?$AAR?$AAe?$AAa?$AAd?$AAW?$AAr?$AAi?$AAt?$AAe?$AAT?$AAi?$AAm?$AAe?$AAo?$AAu?$AAt?$AA?$AA@|
	DCD	0x1
	DCD	0x0
	DCD	0x150
	DCD	0x4
	DCD	0x2710
	DCD	|??_C@_1BM@NNIPIGOJ@?$AAW?$AAa?$AAk?$AAe?$AAu?$AAp?$AAS?$AAo?$AAu?$AAr?$AAc?$AAe?$AAs?$AA?$AA@|
	DCD	0x1
	DCD	0x0
	DCD	0xe8
	DCD	0x4
	DCD	0x0
	DCD	|??_C@_1BO@LKNMDJEA@?$AAC?$AAa?$AAr?$AAd?$AAD?$AAe?$AAt?$AAe?$AAc?$AAt?$AAG?$AAP?$AAI?$AAO?$AA?$AA@|
	DCD	0x1
	DCD	0x0
	DCD	0x1e4
	DCD	0x4
	DCD	0xffffffff
	DCD	|??_C@_1CE@MKPLCKIN@?$AAC?$AAa?$AAr?$AAd?$AAI?$AAn?$AAs?$AAe?$AAr?$AAt?$AAe?$AAd?$AAS?$AAt?$AAa?$AAt?$AAe?$AA?$AA@|
	DCD	0x1
	DCD	0x0
	DCD	0x1dc
	DCD	0x4
	DCD	0x0
	DCD	|??_C@_1BG@HDJCPCIJ@?$AAC?$AAa?$AAr?$AAd?$AAW?$AAP?$AAG?$AAP?$AAI?$AAO?$AA?$AA@|
	DCD	0x1
	DCD	0x0
	DCD	0x1e8
	DCD	0x4
	DCD	0xffffffff
	DCD	|??_C@_1DA@KLIJNKLI@?$AAC?$AAa?$AAr?$AAd?$AAW?$AAr?$AAi?$AAt?$AAe?$AAP?$AAr?$AAo?$AAt?$AAe?$AAc?$AAt?$AAe?$AAd?$AAS?$AAt?$AAa?$AAt?$AAe?$AA?$AA@|
	DCD	0x1
	DCD	0x0
	DCD	0x1e0
	DCD	0x4
	DCD	0x0
	DCD	|??_C@_1BM@JHFMHONC@?$AAD?$AAM?$AAA?$AAB?$AAu?$AAf?$AAf?$AAe?$AAr?$AAS?$AAi?$AAz?$AAe?$AA?$AA@|
	DCD	0x1
	DCD	0x0
	DCD	0x1fc
	DCD	0x4
	DCD	0x20000
	DCD	|??_C@_1CG@CNGMEHNJ@?$AAS?$AAD?$AAH?$AAi?$AAg?$AAh?$AAS?$AAp?$AAe?$AAe?$AAd?$AAS?$AAu?$AAp?$AAp?$AAo?$AAr?$AAt?$AA?$AA@|
	DCD	0x1
	DCD	0x0
	DCD	0x198
	DCD	0x4
	DCD	0x0
	DCD	|??_C@_1BI@EJNOAJAN@?$AAS?$AAD?$AAC?$AAl?$AAo?$AAc?$AAk?$AAM?$AAo?$AAd?$AAe?$AA?$AA@|
	DCD	0x1
	DCD	0x0
	DCD	0x19c
	DCD	0x4
	DCD	0x0
	DCD	|??_C@_1BG@PCNFFOOE@?$AAS?$AAl?$AAo?$AAt?$AAN?$AAu?$AAm?$AAb?$AAe?$AAr?$AA?$AA@|
	DCD	0x1
	DCD	0x0
	DCD	0x170
	DCD	0x4
	DCD	0x1

  00000			 AREA	 |.rdata|, DATA, READONLY
|??_C@_1BG@PCNFFOOE@?$AAS?$AAl?$AAo?$AAt?$AAN?$AAu?$AAm?$AAb?$AAe?$AAr?$AA?$AA@| DCB "S"
	DCB	0x0, "l", 0x0, "o", 0x0, "t", 0x0, "N", 0x0, "u", 0x0, "m"
	DCB	0x0, "b", 0x0, "e", 0x0, "r", 0x0, 0x0, 0x0 ; `string'

  00000			 AREA	 |.rdata|, DATA, READONLY
|??_C@_1BI@EJNOAJAN@?$AAS?$AAD?$AAC?$AAl?$AAo?$AAc?$AAk?$AAM?$AAo?$AAd?$AAe?$AA?$AA@| DCB "S"
	DCB	0x0, "D", 0x0, "C", 0x0, "l", 0x0, "o", 0x0, "c", 0x0, "k"
	DCB	0x0, "M", 0x0, "o", 0x0, "d", 0x0, "e", 0x0, 0x0, 0x0 ; `string'

  00000			 AREA	 |.rdata|, DATA, READONLY
|??_C@_1CG@CNGMEHNJ@?$AAS?$AAD?$AAH?$AAi?$AAg?$AAh?$AAS?$AAp?$AAe?$AAe?$AAd?$AAS?$AAu?$AAp?$AAp?$AAo?$AAr?$AAt?$AA?$AA@| DCB "S"
	DCB	0x0, "D", 0x0, "H", 0x0, "i", 0x0, "g", 0x0, "h", 0x0, "S"
	DCB	0x0, "p", 0x0, "e", 0x0, "e", 0x0, "d", 0x0, "S", 0x0, "u"
	DCB	0x0, "p", 0x0, "p", 0x0, "o", 0x0, "r", 0x0, "t", 0x0, 0x0
	DCB	0x0					; `string'

  00000			 AREA	 |.rdata|, DATA, READONLY
|??_C@_1BM@JHFMHONC@?$AAD?$AAM?$AAA?$AAB?$AAu?$AAf?$AAf?$AAe?$AAr?$AAS?$AAi?$AAz?$AAe?$AA?$AA@| DCB "D"
	DCB	0x0, "M", 0x0, "A", 0x0, "B", 0x0, "u", 0x0, "f", 0x0, "f"
	DCB	0x0, "e", 0x0, "r", 0x0, "S", 0x0, "i", 0x0, "z", 0x0, "e"
	DCB	0x0, 0x0, 0x0				; `string'

  00000			 AREA	 |.rdata|, DATA, READONLY
|??_C@_1DA@KLIJNKLI@?$AAC?$AAa?$AAr?$AAd?$AAW?$AAr?$AAi?$AAt?$AAe?$AAP?$AAr?$AAo?$AAt?$AAe?$AAc?$AAt?$AAe?$AAd?$AAS?$AAt?$AAa?$AAt?$AAe?$AA?$AA@| DCB "C"
	DCB	0x0, "a", 0x0, "r", 0x0, "d", 0x0, "W", 0x0, "r", 0x0, "i"
	DCB	0x0, "t", 0x0, "e", 0x0, "P", 0x0, "r", 0x0, "o", 0x0, "t"
	DCB	0x0, "e", 0x0, "c", 0x0, "t", 0x0, "e", 0x0, "d", 0x0, "S"
	DCB	0x0, "t", 0x0, "a", 0x0, "t", 0x0, "e", 0x0, 0x0, 0x0 ; `string'

  00000			 AREA	 |.rdata|, DATA, READONLY
|??_C@_1BG@HDJCPCIJ@?$AAC?$AAa?$AAr?$AAd?$AAW?$AAP?$AAG?$AAP?$AAI?$AAO?$AA?$AA@| DCB "C"
	DCB	0x0, "a", 0x0, "r", 0x0, "d", 0x0, "W", 0x0, "P", 0x0, "G"
	DCB	0x0, "P", 0x0, "I", 0x0, "O", 0x0, 0x0, 0x0 ; `string'

  00000			 AREA	 |.rdata|, DATA, READONLY
|??_C@_1CE@MKPLCKIN@?$AAC?$AAa?$AAr?$AAd?$AAI?$AAn?$AAs?$AAe?$AAr?$AAt?$AAe?$AAd?$AAS?$AAt?$AAa?$AAt?$AAe?$AA?$AA@| DCB "C"
	DCB	0x0, "a", 0x0, "r", 0x0, "d", 0x0, "I", 0x0, "n", 0x0, "s"
	DCB	0x0, "e", 0x0, "r", 0x0, "t", 0x0, "e", 0x0, "d", 0x0, "S"
	DCB	0x0, "t", 0x0, "a", 0x0, "t", 0x0, "e", 0x0, 0x0, 0x0 ; `string'

  00000			 AREA	 |.rdata|, DATA, READONLY
|??_C@_1BO@LKNMDJEA@?$AAC?$AAa?$AAr?$AAd?$AAD?$AAe?$AAt?$AAe?$AAc?$AAt?$AAG?$AAP?$AAI?$AAO?$AA?$AA@| DCB "C"
	DCB	0x0, "a", 0x0, "r", 0x0, "d", 0x0, "D", 0x0, "e", 0x0, "t"
	DCB	0x0, "e", 0x0, "c", 0x0, "t", 0x0, "G", 0x0, "P", 0x0, "I"
	DCB	0x0, "O", 0x0, 0x0, 0x0			; `string'

  00000			 AREA	 |.rdata|, DATA, READONLY
|??_C@_1BM@NNIPIGOJ@?$AAW?$AAa?$AAk?$AAe?$AAu?$AAp?$AAS?$AAo?$AAu?$AAr?$AAc?$AAe?$AAs?$AA?$AA@| DCB "W"
	DCB	0x0, "a", 0x0, "k", 0x0, "e", 0x0, "u", 0x0, "p", 0x0, "S"
	DCB	0x0, "o", 0x0, "u", 0x0, "r", 0x0, "c", 0x0, "e", 0x0, "s"
	DCB	0x0, 0x0, 0x0				; `string'

  00000			 AREA	 |.rdata|, DATA, READONLY
|??_C@_1CC@LMBBBPNF@?$AAR?$AAe?$AAa?$AAd?$AAW?$AAr?$AAi?$AAt?$AAe?$AAT?$AAi?$AAm?$AAe?$AAo?$AAu?$AAt?$AA?$AA@| DCB "R"
	DCB	0x0, "e", 0x0, "a", 0x0, "d", 0x0, "W", 0x0, "r", 0x0, "i"
	DCB	0x0, "t", 0x0, "e", 0x0, "T", 0x0, "i", 0x0, "m", 0x0, "e"
	DCB	0x0, "o", 0x0, "u", 0x0, "t", 0x0, 0x0, 0x0 ; `string'

  00000			 AREA	 |.rdata|, DATA, READONLY
|??_C@_1CG@OOJEOPHC@?$AAB?$AAa?$AAs?$AAe?$AAC?$AAl?$AAo?$AAc?$AAk?$AAF?$AAr?$AAe?$AAq?$AAu?$AAe?$AAn?$AAc?$AAy?$AA?$AA@| DCB "B"
	DCB	0x0, "a", 0x0, "s", 0x0, "e", 0x0, "C", 0x0, "l", 0x0, "o"
	DCB	0x0, "c", 0x0, "k", 0x0, "F", 0x0, "r", 0x0, "e", 0x0, "q"
	DCB	0x0, "u", 0x0, "e", 0x0, "n", 0x0, "c", 0x0, "y", 0x0, 0x0
	DCB	0x0					; `string'

  00000			 AREA	 |.rdata|, DATA, READONLY
|??_C@_1BG@NAMMPMDB@?$AAC?$AAD?$AAP?$AAr?$AAi?$AAo?$AAr?$AAi?$AAt?$AAy?$AA?$AA@| DCB "C"
	DCB	0x0, "D", 0x0, "P", 0x0, "r", 0x0, "i", 0x0, "o", 0x0, "r"
	DCB	0x0, "i", 0x0, "t", 0x0, "y", 0x0, 0x0, 0x0 ; `string'

  00000			 AREA	 |.rdata|, DATA, READONLY
|??_C@_1BK@KBGNDCFC@?$AAS?$AAD?$AAI?$AAO?$AAP?$AAr?$AAi?$AAo?$AAr?$AAi?$AAt?$AAy?$AA?$AA@| DCB "S"
	DCB	0x0, "D", 0x0, "I", 0x0, "O", 0x0, "P", 0x0, "r", 0x0, "i"
	DCB	0x0, "o", 0x0, "r", 0x0, "i", 0x0, "t", 0x0, "y", 0x0, 0x0
	DCB	0x0					; `string'

  00000			 AREA	 |.rdata|, DATA, READONLY
|??_C@_1BG@BPLBIFEM@?$AAD?$AAT?$AAO?$AAT?$AAi?$AAm?$AAe?$AAo?$AAu?$AAt?$AA?$AA@| DCB "D"
	DCB	0x0, "T", 0x0, "O", 0x0, "T", 0x0, "i", 0x0, "m", 0x0, "e"
	DCB	0x0, "o", 0x0, "u", 0x0, "t", 0x0, 0x0, 0x0 ; `string'

  00000			 AREA	 |.rdata|, DATA, READONLY
|??_C@_1BG@HKGILLAM@?$AAC?$AAT?$AAO?$AAT?$AAi?$AAm?$AAe?$AAo?$AAu?$AAt?$AA?$AA@| DCB "C"
	DCB	0x0, "T", 0x0, "O", 0x0, "T", 0x0, "i", 0x0, "m", 0x0, "e"
	DCB	0x0, "o", 0x0, "u", 0x0, "t", 0x0, 0x0, 0x0 ; `string'

  00000			 AREA	 |.rdata|, DATA, READONLY
|??_C@_1CC@HBIKPBAC@?$AAS?$AAd?$AAM?$AAe?$AAm?$AA4?$AAB?$AAi?$AAt?$AAD?$AAi?$AAs?$AAa?$AAb?$AAl?$AAe?$AA?$AA@| DCB "S"
	DCB	0x0, "d", 0x0, "M", 0x0, "e", 0x0, "m", 0x0, "4", 0x0, "B"
	DCB	0x0, "i", 0x0, "t", 0x0, "D", 0x0, "i", 0x0, "s", 0x0, "a"
	DCB	0x0, "b", 0x0, "l", 0x0, "e", 0x0, 0x0, 0x0 ; `string'

  00000			 AREA	 |.rdata|, DATA, READONLY
|??_C@_1CA@JDJLDHKA@?$AAS?$AAd?$AAi?$AAo?$AA4?$AAB?$AAi?$AAt?$AAD?$AAi?$AAs?$AAa?$AAb?$AAl?$AAe?$AA?$AA@| DCB "S"
	DCB	0x0, "d", 0x0, "i", 0x0, "o", 0x0, "4", 0x0, "B", 0x0, "i"
	DCB	0x0, "t", 0x0, "D", 0x0, "i", 0x0, "s", 0x0, "a", 0x0, "b"
	DCB	0x0, "l", 0x0, "e", 0x0, 0x0, 0x0	; `string'

  00000			 AREA	 |.rdata|, DATA, READONLY
|??_C@_1BO@KFEHNIN@?$AAL?$AAo?$AAw?$AAV?$AAo?$AAl?$AAt?$AAa?$AAg?$AAe?$AAS?$AAl?$AAo?$AAt?$AA?$AA@| DCB "L"
	DCB	0x0, "o", 0x0, "w", 0x0, "V", 0x0, "o", 0x0, "l", 0x0, "t"
	DCB	0x0, "a", 0x0, "g", 0x0, "e", 0x0, "S", 0x0, "l", 0x0, "o"
	DCB	0x0, "t", 0x0, 0x0, 0x0			; `string'

  00000			 AREA	 |.rdata|, DATA, READONLY
|??_C@_1BM@MAOJDGGP@?$AAF?$AAa?$AAs?$AAt?$AAP?$AAa?$AAt?$AAh?$AA_?$AAS?$AAD?$AAI?$AAO?$AA?$AA@| DCB "F"
	DCB	0x0, "a", 0x0, "s", 0x0, "t", 0x0, "P", 0x0, "a", 0x0, "t"
	DCB	0x0, "h", 0x0, "_", 0x0, "S", 0x0, "D", 0x0, "I", 0x0, "O"
	DCB	0x0, 0x0, 0x0				; `string'

  00000			 AREA	 |.rdata|, DATA, READONLY
|??_C@_1BO@GBHAIPGE@?$AAF?$AAa?$AAs?$AAt?$AAP?$AAa?$AAt?$AAh?$AA_?$AAS?$AAD?$AAM?$AAE?$AAM?$AA?$AA@| DCB "F"
	DCB	0x0, "a", 0x0, "s", 0x0, "t", 0x0, "P", 0x0, "a", 0x0, "t"
	DCB	0x0, "h", 0x0, "_", 0x0, "S", 0x0, "D", 0x0, "M", 0x0, "E"
	DCB	0x0, "M", 0x0, 0x0, 0x0			; `string'

  00000			 AREA	 |.rdata|, DATA, READONLY
|??_C@_1CI@MJKCNHDK@?$AAS?$AAD?$AAI?$AAO?$AAA?$AAc?$AAt?$AAi?$AAv?$AAi?$AAt?$AAy?$AAT?$AAi?$AAm?$AAe?$AAo?$AAu?$AAt?$AA?$AA@| DCB "S"
	DCB	0x0, "D", 0x0, "I", 0x0, "O", 0x0, "A", 0x0, "c", 0x0, "t"
	DCB	0x0, "i", 0x0, "v", 0x0, "i", 0x0, "t", 0x0, "y", 0x0, "T"
	DCB	0x0, "i", 0x0, "m", 0x0, "e", 0x0, "o", 0x0, "u", 0x0, "t"
	DCB	0x0, 0x0, 0x0				; `string'

  00000			 AREA	 |.rdata|, DATA, READONLY
|??_C@_1CO@BIPPPOIB@?$AAN?$AAo?$AAn?$AAS?$AAD?$AAI?$AAO?$AAA?$AAc?$AAt?$AAi?$AAv?$AAi?$AAt?$AAy?$AAT?$AAi?$AAm?$AAe?$AAo?$AAu?$AAt?$AA?$AA@| DCB "N"
	DCB	0x0, "o", 0x0, "n", 0x0, "S", 0x0, "D", 0x0, "I", 0x0, "O"
	DCB	0x0, "A", 0x0, "c", 0x0, "t", 0x0, "i", 0x0, "v", 0x0, "i"
	DCB	0x0, "t", 0x0, "y", 0x0, "T", 0x0, "i", 0x0, "m", 0x0, "e"
	DCB	0x0, "o", 0x0, "u", 0x0, "t", 0x0, 0x0, 0x0 ; `string'

  00000			 AREA	 |.rdata|, DATA, READONLY
|?m_cmdArrSize@CSDIOControllerBase@@2KB| DCD 0x20	; CSDIOControllerBase::m_cmdArrSize
	EXPORT	|??_7CSDIOControllerBase@@6B@| [ DATA ]	; CSDIOControllerBase::`vftable'
	EXPORT	|??0CSDIOControllerBase@@QAA@XZ|	; CSDIOControllerBase::CSDIOControllerBase
	EXPORT	|?InterpretCapabilities@CSDIOControllerBase@@UAAHXZ| ; CSDIOControllerBase::InterpretCapabilities
	IMPORT	|InitializeCriticalSection|
	IMPORT	|_purecall|

  00000			 AREA	 |.pdata|, PDATA
|$T45082| DCD	|$LN5@CSDIOContr|
	DCD	0x4000cf04
; File c:\wince600\platform\common\src\soc\common_ti_v1\common_ti\sdhc\base\sdhc.cpp

  00000			 AREA	 |.rdata|, DATA, READONLY
|??_7CSDIOControllerBase@@6B@| DCD |_purecall|		; CSDIOControllerBase::`vftable'
	DCD	|_purecall|
	DCD	|_purecall|
	DCD	|_purecall|
	DCD	|_purecall|
	DCD	|_purecall|
	DCD	|_purecall|
	DCD	|_purecall|
	DCD	|_purecall|
	DCD	|?InterpretCapabilities@CSDIOControllerBase@@UAAHXZ|
; Function compile flags: /Odtp

  00000			 AREA	 |.text|, CODE, ARM

  00000		 |??0CSDIOControllerBase@@QAA@XZ| PROC	; CSDIOControllerBase::CSDIOControllerBase

; 267  : {

  00000		 |$LN5@CSDIOContr|
  00000	e1a0c00d	 mov         r12, sp
  00004	e92d0001	 stmdb       sp!, {r0}
  00008	e92d5000	 stmdb       sp!, {r12, lr}
  0000c	e24dd008	 sub         sp, sp, #8
  00010		 |$M45079|
  00010	e59f2320	 ldr         r2, [pc, #0x320]
  00014	e59d3010	 ldr         r3, [sp, #0x10]
  00018	e5832000	 str         r2, [r3]

; 268  :     InitializeCriticalSection( &m_critSec );

  0001c	e59d3010	 ldr         r3, [sp, #0x10]
  00020	e28300b0	 add         r0, r3, #0xB0
  00024	eb000000	 bl          InitializeCriticalSection

; 269  :     InitializeCriticalSection( &m_powerCS );

  00028	e59d3010	 ldr         r3, [sp, #0x10]
  0002c	e28300c4	 add         r0, r3, #0xC4
  00030	eb000000	 bl          InitializeCriticalSection

; 270  :     m_fSDIOInterruptInService = FALSE;

  00034	e59d3010	 ldr         r3, [sp, #0x10]
  00038	e28320d8	 add         r2, r3, #0xD8
  0003c	e3a03000	 mov         r3, #0
  00040	e5823000	 str         r3, [r2]

; 271  :     m_fFirstTime = TRUE;

  00044	e59d3010	 ldr         r3, [sp, #0x10]
  00048	e2832f55	 add         r2, r3, #0x55, 30
  0004c	e3a03001	 mov         r3, #1
  00050	e5823000	 str         r3, [r2]

; 272  :     m_hControllerISTEvent = NULL;

  00054	e59d3010	 ldr         r3, [sp, #0x10]
  00058	e2832f46	 add         r2, r3, #0x46, 30
  0005c	e3a03000	 mov         r3, #0
  00060	e5823000	 str         r3, [r2]

; 273  :     m_htControllerIST = NULL;

  00064	e59d3010	 ldr         r3, [sp, #0x10]
  00068	e2832f47	 add         r2, r3, #0x47, 30
  0006c	e3a03000	 mov         r3, #0
  00070	e5823000	 str         r3, [r2]

; 274  :     m_dwControllerSysIntr = SYSINTR_UNDEFINED;

  00074	e59d3010	 ldr         r3, [sp, #0x10]
  00078	e2832f4d	 add         r2, r3, #0x4D, 30
  0007c	e3e03000	 mvn         r3, #0
  00080	e5823000	 str         r3, [r2]

; 275  :     m_hCardDetectEvent = NULL;

  00084	e59d3010	 ldr         r3, [sp, #0x10]
  00088	e2832e12	 add         r2, r3, #0x12, 28
  0008c	e3a03000	 mov         r3, #0
  00090	e5823000	 str         r3, [r2]

; 276  :     m_htCardDetectIST = NULL;

  00094	e59d3010	 ldr         r3, [sp, #0x10]
  00098	e2832f49	 add         r2, r3, #0x49, 30
  0009c	e3a03000	 mov         r3, #0
  000a0	e5823000	 str         r3, [r2]

; 277  :     m_fAppCmdMode = FALSE;

  000a4	e59d3010	 ldr         r3, [sp, #0x10]
  000a8	e2832f45	 add         r2, r3, #0x45, 30
  000ac	e3a03000	 mov         r3, #0
  000b0	e5823000	 str         r3, [r2]

; 278  : 
; 279  :     m_pbRegisters = NULL;

  000b4	e59d3010	 ldr         r3, [sp, #0x10]
  000b8	e2832f57	 add         r2, r3, #0x57, 30
  000bc	e3a03000	 mov         r3, #0
  000c0	e5823000	 str         r3, [r2]

; 280  :     m_fCardPresent = FALSE;

  000c4	e59d3010	 ldr         r3, [sp, #0x10]
  000c8	e28320f0	 add         r2, r3, #0xF0
  000cc	e3a03000	 mov         r3, #0
  000d0	e5823000	 str         r3, [r2]

; 281  :     m_fSDIOInterruptsEnabled = FALSE;

  000d4	e59d3010	 ldr         r3, [sp, #0x10]
  000d8	e28320f4	 add         r2, r3, #0xF4
  000dc	e3a03000	 mov         r3, #0
  000e0	e5823000	 str         r3, [r2]

; 282  :     m_pDmaBuffer = NULL;

  000e4	e59d3010	 ldr         r3, [sp, #0x10]
  000e8	e28320fc	 add         r2, r3, #0xFC
  000ec	e3a03000	 mov         r3, #0
  000f0	e5823000	 str         r3, [r2]

; 283  :     m_pCachedDmaBuffer = NULL;

  000f4	e59d3010	 ldr         r3, [sp, #0x10]
  000f8	e2832c01	 add         r2, r3, #1, 24
  000fc	e3a03000	 mov         r3, #0
  00100	e5823000	 str         r3, [r2]

; 284  :     m_pDmaBufferPhys.QuadPart = 0;

  00104	e59d3010	 ldr         r3, [sp, #0x10]
  00108	e2833f42	 add         r3, r3, #0x42, 30
  0010c	e58d3004	 str         r3, [sp, #4]
  00110	e59d2004	 ldr         r2, [sp, #4]
  00114	e3a03000	 mov         r3, #0
  00118	e5823000	 str         r3, [r2]
  0011c	e59d2004	 ldr         r2, [sp, #4]
  00120	e3a03000	 mov         r3, #0
  00124	e5823004	 str         r3, [r2, #4]

; 285  : 
; 286  :     m_dwMaxTimeout = DEFAULT_TIMEOUT_VALUE;

  00128	e59d3010	 ldr         r3, [sp, #0x10]
  0012c	e2832e15	 add         r2, r3, #0x15, 28
  00130	e3a03c27	 mov         r3, #0x27, 24
  00134	e3833010	 orr         r3, r3, #0x10
  00138	e5823000	 str         r3, [r2]

; 287  :     m_bReinsertTheCard = FALSE;

  0013c	e59d3010	 ldr         r3, [sp, #0x10]
  00140	e28320e4	 add         r2, r3, #0xE4
  00144	e3a03000	 mov         r3, #0
  00148	e5823000	 str         r3, [r2]

; 288  :     m_dwWakeupSources = 0;

  0014c	e59d3010	 ldr         r3, [sp, #0x10]
  00150	e28320e8	 add         r2, r3, #0xE8
  00154	e3a03000	 mov         r3, #0
  00158	e5823000	 str         r3, [r2]

; 289  :     m_dwCurrentWakeupSources = 0;

  0015c	e59d3010	 ldr         r3, [sp, #0x10]
  00160	e28320ec	 add         r2, r3, #0xEC
  00164	e3a03000	 mov         r3, #0
  00168	e5823000	 str         r3, [r2]

; 290  :     m_fMMCMode = FALSE;

  0016c	e59d3010	 ldr         r3, [sp, #0x10]
  00170	e28320f8	 add         r2, r3, #0xF8
  00174	e3a03000	 mov         r3, #0
  00178	e5823000	 str         r3, [r2]

; 291  : 
; 292  :     m_InternPowerState = D4;

  0017c	e59d3010	 ldr         r3, [sp, #0x10]
  00180	e28320dc	 add         r2, r3, #0xDC
  00184	e3a03004	 mov         r3, #4
  00188	e5823000	 str         r3, [r2]

; 293  :     m_ActualPowerState = D4;

  0018c	e59d3010	 ldr         r3, [sp, #0x10]
  00190	e28320e0	 add         r2, r3, #0xE0
  00194	e3a03004	 mov         r3, #4
  00198	e5823000	 str         r3, [r2]

; 294  :     m_hParentBus = NULL;

  0019c	e59d3010	 ldr         r3, [sp, #0x10]
  001a0	e28320ac	 add         r2, r3, #0xAC
  001a4	e3a03000	 mov         r3, #0
  001a8	e5823000	 str         r3, [r2]

; 295  :     m_hGPIO = NULL;

  001ac	e59d3010	 ldr         r3, [sp, #0x10]
  001b0	e2832f59	 add         r2, r3, #0x59, 30
  001b4	e3a03000	 mov         r3, #0
  001b8	e5823000	 str         r3, [r2]

; 296  : 
; 297  :     m_dwSlot = MMCSLOT_1;

  001bc	e59d3010	 ldr         r3, [sp, #0x10]
  001c0	e2832e17	 add         r2, r3, #0x17, 28
  001c4	e3a03001	 mov         r3, #1
  001c8	e5823000	 str         r3, [r2]

; 298  : 	m_dwDeviceID = OMAP_DEVICE_NONE;

  001cc	e59d3010	 ldr         r3, [sp, #0x10]
  001d0	e2832f5d	 add         r2, r3, #0x5D, 30
  001d4	e3e03000	 mvn         r3, #0
  001d8	e5823000	 str         r3, [r2]

; 299  :     m_dwSDIOCard = 0;

  001dc	e59d3010	 ldr         r3, [sp, #0x10]
  001e0	e2832f5e	 add         r2, r3, #0x5E, 30
  001e4	e3a03000	 mov         r3, #0
  001e8	e5823000	 str         r3, [r2]

; 300  :     m_fDriverShutdown = FALSE;

  001ec	e59d3010	 ldr         r3, [sp, #0x10]
  001f0	e2832e13	 add         r2, r3, #0x13, 28
  001f4	e3a03000	 mov         r3, #0
  001f8	e5823000	 str         r3, [r2]

; 301  : 
; 302  :     bRxDmaActive = FALSE;

  001fc	e59d3010	 ldr         r3, [sp, #0x10]
  00200	e2832e1d	 add         r2, r3, #0x1D, 28
  00204	e3a03000	 mov         r3, #0
  00208	e5823000	 str         r3, [r2]

; 303  :     bTxDmaActive = FALSE;

  0020c	e59d3010	 ldr         r3, [sp, #0x10]
  00210	e2832f75	 add         r2, r3, #0x75, 30
  00214	e3a03000	 mov         r3, #0
  00218	e5823000	 str         r3, [r2]

; 304  :     m_dwClockCnt = 0;

  0021c	e59d3010	 ldr         r3, [sp, #0x10]
  00220	e2832e1a	 add         r2, r3, #0x1A, 28
  00224	e3a03000	 mov         r3, #0
  00228	e5823000	 str         r3, [r2]

; 305  :     m_fCardInitialized = FALSE;

  0022c	e59d3010	 ldr         r3, [sp, #0x10]
  00230	e2832f4f	 add         r2, r3, #0x4F, 30
  00234	e3a03000	 mov         r3, #0
  00238	e5823000	 str         r3, [r2]

; 306  :     m_bExitThread = FALSE;

  0023c	e59d3010	 ldr         r3, [sp, #0x10]
  00240	e2832f69	 add         r2, r3, #0x69, 30
  00244	e3a03000	 mov         r3, #0
  00248	e5823000	 str         r3, [r2]

; 307  : 	m_hTimerThreadIST = NULL;

  0024c	e59d3010	 ldr         r3, [sp, #0x10]
  00250	e2832f6b	 add         r2, r3, #0x6B, 30
  00254	e3a03000	 mov         r3, #0
  00258	e5823000	 str         r3, [r2]

; 308  : 	m_hTimerEvent = NULL;

  0025c	e59d3010	 ldr         r3, [sp, #0x10]
  00260	e2832f6a	 add         r2, r3, #0x6A, 30
  00264	e3a03000	 mov         r3, #0
  00268	e5823000	 str         r3, [r2]

; 309  :     //m_TransferClass = NULL;
; 310  : 
; 311  :     m_pCurrentRecieveBuffer = NULL;

  0026c	e59d3010	 ldr         r3, [sp, #0x10]
  00270	e2832f7b	 add         r2, r3, #0x7B, 30
  00274	e3a03000	 mov         r3, #0
  00278	e5823000	 str         r3, [r2]

; 312  :     m_dwCurrentRecieveBufferLength = 0;

  0027c	e59d3010	 ldr         r3, [sp, #0x10]
  00280	e2832e1f	 add         r2, r3, #0x1F, 28
  00284	e3a03000	 mov         r3, #0
  00288	e5823000	 str         r3, [r2]

; 313  :     m_CardDetectInterruptStatus = 0;

  0028c	e59d3010	 ldr         r3, [sp, #0x10]
  00290	e2832f7d	 add         r2, r3, #0x7D, 30
  00294	e3a03000	 mov         r3, #0
  00298	e5823000	 str         r3, [r2]

; 314  :     m_bCommandPending = FALSE;

  0029c	e59d3010	 ldr         r3, [sp, #0x10]
  002a0	e2832f7e	 add         r2, r3, #0x7E, 30
  002a4	e3a03000	 mov         r3, #0
  002a8	e5823000	 str         r3, [r2]

; 315  : 
; 316  :     m_sContext.dwClockRate = MMCSD_CLOCK_INIT;

  002ac	e59d3010	 ldr         r3, [sp, #0x10]
  002b0	e2832c02	 add         r2, r3, #2, 24
  002b4	e3a03a61	 mov         r3, #0x61, 20
  002b8	e3833d2a	 orr         r3, r3, #0x2A, 26
  002bc	e5823000	 str         r3, [r2]

; 317  :     m_sContext.eSDHCIntr = SDHC_INTR_DISABLED;

  002c0	e59d3010	 ldr         r3, [sp, #0x10]
  002c4	e2832f81	 add         r2, r3, #0x81, 30
  002c8	e3a03000	 mov         r3, #0
  002cc	e5823000	 str         r3, [r2]

; 318  :     m_sContext.eInterfaceMode = SD_INTERFACE_SD_MMC_1BIT;

  002d0	e59d3010	 ldr         r3, [sp, #0x10]
  002d4	e2832f82	 add         r2, r3, #0x82, 30
  002d8	e3a03000	 mov         r3, #0
  002dc	e5823000	 str         r3, [r2]

; 319  : 
; 320  : #ifdef SDIO_DMA_ENABLED
; 321  : 	m_TxDmaInfo = NULL;

  002e0	e59d3010	 ldr         r3, [sp, #0x10]
  002e4	e2832098	 add         r2, r3, #0x98
  002e8	e3a03000	 mov         r3, #0
  002ec	e5823000	 str         r3, [r2]

; 322  :     m_RxDmaInfo = NULL;

  002f0	e59d3010	 ldr         r3, [sp, #0x10]
  002f4	e28320a0	 add         r2, r3, #0xA0
  002f8	e3a03000	 mov         r3, #0
  002fc	e5823000	 str         r3, [r2]

; 323  :     m_hTxDmaChannel = NULL;

  00300	e59d3010	 ldr         r3, [sp, #0x10]
  00304	e283209c	 add         r2, r3, #0x9C
  00308	e3a03000	 mov         r3, #0
  0030c	e5823000	 str         r3, [r2]

; 324  :     m_hRxDmaChannel = NULL;

  00310	e59d3010	 ldr         r3, [sp, #0x10]
  00314	e28320a4	 add         r2, r3, #0xA4
  00318	e3a03000	 mov         r3, #0
  0031c	e5823000	 str         r3, [r2]

; 325  : #endif
; 326  : }

  00320	e59d3010	 ldr         r3, [sp, #0x10]
  00324	e58d3000	 str         r3, [sp]
  00328	e59d0000	 ldr         r0, [sp]
  0032c	e28dd008	 add         sp, sp, #8
  00330	e89d6000	 ldmia       sp, {sp, lr}
  00334	e12fff1e	 bx          lr
  00338		 |$LN6@CSDIOContr|
  00338		 |$LN7@CSDIOContr|
  00338	00000000	 DCD         |??_7CSDIOControllerBase@@6B@|
  0033c		 |$M45080|

			 ENDP  ; |??0CSDIOControllerBase@@QAA@XZ|, CSDIOControllerBase::CSDIOControllerBase

	EXPORT	|??_C@_1EG@EIMIGIOI@?$AAS?$AAo?$AAf?$AAt?$AAw?$AAa?$AAr?$AAe?$AAR?$AAe?$AAs?$AAe?$AAt?$AA?$CI?$AA?$CJ?$AA?5?$AA?9?$AA?5?$AAe?$AAx?$AAi?$AAt?$AA?3?$AA?5?$AAT?$AAI?$AAM?$AAE?$AAO?$AAU?$AAT?$AA?4@| [ DATA ] ; `string'
	EXPORT	|??_C@_1FK@FNONLNGN@?$AA?$CF?$AAs?$AA?3?$AA?5?$AAD?$AAE?$AAB?$AAU?$AAG?$AAC?$AAH?$AAK?$AA?5?$AAf?$AAa?$AAi?$AAl?$AAe?$AAd?$AA?5?$AAi?$AAn?$AA?5?$AAf?$AAi?$AAl?$AAe?$AA?5?$AA?$CF?$AAs?$AA?5?$AAa@| [ DATA ] ; `string'
	EXPORT	|??_C@_1KA@CLLCPJCJ@?$AAC?$AA?3?$AA?2?$AAW?$AAI?$AAN?$AAC?$AAE?$AA6?$AA0?$AA0?$AA?2?$AAP?$AAL?$AAA?$AAT?$AAF?$AAO?$AAR?$AAM?$AA?2?$AAC?$AAO?$AAM?$AAM?$AAO?$AAN?$AA?2?$AAS?$AAR?$AAC?$AA?2@| [ DATA ] ; `string'
	EXPORT	|?SoftwareReset@CSDIOControllerBase@@QAAXK@Z| ; CSDIOControllerBase::SoftwareReset
	IMPORT	|Sleep|
	IMPORT	|GetTickCount|
	IMPORT	|NKDbgPrintfW|
	IMPORT	|dpCurSettings|

  00008			 AREA	 |.pdata|, PDATA
|$T45093| DCD	|$LN12@SoftwareRe|
	DCD	0x40004604

  00000			 AREA	 |.rdata|, DATA, READONLY
|??_C@_1EG@EIMIGIOI@?$AAS?$AAo?$AAf?$AAt?$AAw?$AAa?$AAr?$AAe?$AAR?$AAe?$AAs?$AAe?$AAt?$AA?$CI?$AA?$CJ?$AA?5?$AA?9?$AA?5?$AAe?$AAx?$AAi?$AAt?$AA?3?$AA?5?$AAT?$AAI?$AAM?$AAE?$AAO?$AAU?$AAT?$AA?4@| DCB "S"
	DCB	0x0, "o", 0x0, "f", 0x0, "t", 0x0, "w", 0x0, "a", 0x0, "r"
	DCB	0x0, "e", 0x0, "R", 0x0, "e", 0x0, "s", 0x0, "e", 0x0, "t"
	DCB	0x0, "(", 0x0, ")", 0x0, " ", 0x0, "-", 0x0, " ", 0x0, "e"
	DCB	0x0, "x", 0x0, "i", 0x0, "t", 0x0, ":", 0x0, " ", 0x0, "T"
	DCB	0x0, "I", 0x0, "M", 0x0, "E", 0x0, "O", 0x0, "U", 0x0, "T"
	DCB	0x0, ".", 0x0, 0xd, 0x0, 0xa, 0x0, 0x0, 0x0 ; `string'

  00000			 AREA	 |.rdata|, DATA, READONLY
|??_C@_1FK@FNONLNGN@?$AA?$CF?$AAs?$AA?3?$AA?5?$AAD?$AAE?$AAB?$AAU?$AAG?$AAC?$AAH?$AAK?$AA?5?$AAf?$AAa?$AAi?$AAl?$AAe?$AAd?$AA?5?$AAi?$AAn?$AA?5?$AAf?$AAi?$AAl?$AAe?$AA?5?$AA?$CF?$AAs?$AA?5?$AAa@| DCB "%"
	DCB	0x0, "s", 0x0, ":", 0x0, " ", 0x0, "D", 0x0, "E", 0x0, "B"
	DCB	0x0, "U", 0x0, "G", 0x0, "C", 0x0, "H", 0x0, "K", 0x0, " "
	DCB	0x0, "f", 0x0, "a", 0x0, "i", 0x0, "l", 0x0, "e", 0x0, "d"
	DCB	0x0, " ", 0x0, "i", 0x0, "n", 0x0, " ", 0x0, "f", 0x0, "i"
	DCB	0x0, "l", 0x0, "e", 0x0, " ", 0x0, "%", 0x0, "s", 0x0, " "
	DCB	0x0, "a", 0x0, "t", 0x0, " ", 0x0, "l", 0x0, "i", 0x0, "n"
	DCB	0x0, "e", 0x0, " ", 0x0, "%", 0x0, "d", 0x0, " ", 0x0, 0xd
	DCB	0x0, 0xa, 0x0, 0x0, 0x0			; `string'

  00000			 AREA	 |.rdata|, DATA, READONLY
|??_C@_1KA@CLLCPJCJ@?$AAC?$AA?3?$AA?2?$AAW?$AAI?$AAN?$AAC?$AAE?$AA6?$AA0?$AA0?$AA?2?$AAP?$AAL?$AAA?$AAT?$AAF?$AAO?$AAR?$AAM?$AA?2?$AAC?$AAO?$AAM?$AAM?$AAO?$AAN?$AA?2?$AAS?$AAR?$AAC?$AA?2@| DCB "C"
	DCB	0x0, ":", 0x0, "\\", 0x0, "W", 0x0, "I", 0x0, "N", 0x0, "C"
	DCB	0x0, "E", 0x0, "6", 0x0, "0", 0x0, "0", 0x0, "\\", 0x0, "P"
	DCB	0x0, "L", 0x0, "A", 0x0, "T", 0x0, "F", 0x0, "O", 0x0, "R"
	DCB	0x0, "M", 0x0, "\\", 0x0, "C", 0x0, "O", 0x0, "M", 0x0, "M"
	DCB	0x0, "O", 0x0, "N", 0x0, "\\", 0x0, "S", 0x0, "R", 0x0, "C"
	DCB	0x0, "\\", 0x0, "S", 0x0, "O", 0x0, "C", 0x0, "\\", 0x0, "C"
	DCB	0x0, "O", 0x0, "M", 0x0, "M", 0x0, "O", 0x0, "N", 0x0, "_"
	DCB	0x0, "T", 0x0, "I", 0x0, "_", 0x0, "V", 0x0, "1", 0x0, "\\"
	DCB	0x0, "C", 0x0, "O", 0x0, "M", 0x0, "M", 0x0, "O", 0x0, "N"
	DCB	0x0, "_", 0x0, "T", 0x0, "I", 0x0, "\\", 0x0, "S", 0x0, "D"
	DCB	0x0, "H", 0x0, "C", 0x0, "\\", 0x0, "B", 0x0, "A", 0x0, "S"
	DCB	0x0, "E", 0x0, "\\", 0x0, ".", 0x0, "\\", 0x0, "s", 0x0, "d"
	DCB	0x0, "h", 0x0, "c", 0x0, ".", 0x0, "c", 0x0, "p", 0x0, "p"
	DCB	0x0, 0x0, 0x0				; `string'
; Function compile flags: /Odtp

  0033c			 AREA	 |.text|, CODE, ARM

  0033c		 |?SoftwareReset@CSDIOControllerBase@@QAAXK@Z| PROC ; CSDIOControllerBase::SoftwareReset

; 357  : {

  0033c		 |$LN12@SoftwareRe|
  0033c	e1a0c00d	 mov         r12, sp
  00340	e92d0003	 stmdb       sp!, {r0, r1}
  00344	e92d5000	 stmdb       sp!, {r12, lr}
  00348	e24dd014	 sub         sp, sp, #0x14
  0034c		 |$M45090|

; 358  :     DWORD               dwCountStart;
; 359  : 
; 360  :     DEBUGCHK(sizeof(OMAP_MMCHS_REGS) % sizeof(DWORD) == 0);

  0034c	e3a03001	 mov         r3, #1
  00350	e58d3004	 str         r3, [sp, #4]
  00354	ea000007	 b           |$LN7@SoftwareRe|
  00358	e3a03f5a	 mov         r3, #0x5A, 30
  0035c	e59f20ec	 ldr         r2, [pc, #0xEC]
  00360	e59f10e4	 ldr         r1, [pc, #0xE4]
  00364	e59f00dc	 ldr         r0, [pc, #0xDC]
  00368	eb000000	 bl          NKDbgPrintfW
  0036c	e6000010	 __debugbreak_ce
  00370	e3a03000	 mov         r3, #0
  00374	e58d3004	 str         r3, [sp, #4]
  00378		 |$LN7@SoftwareRe|

; 361  : 
; 362  :     dwResetBits &= (MMCHS_SYSCTL_SRA | MMCHS_SYSCTL_SRC | MMCHS_SYSCTL_SRD);

  00378	e59d3020	 ldr         r3, [sp, #0x20]
  0037c	e2033407	 and         r3, r3, #7, 8
  00380	e58d3020	 str         r3, [sp, #0x20]

; 363  : 
; 364  :     // Reset the controller
; 365  :     SETREG32(&m_pbRegisters->MMCHS_SYSCTL, dwResetBits);

  00384	e59d301c	 ldr         r3, [sp, #0x1C]
  00388	e2833f57	 add         r3, r3, #0x57, 30
  0038c	e5933000	 ldr         r3, [r3]
  00390	e2833f4b	 add         r3, r3, #0x4B, 30
  00394	e5932000	 ldr         r2, [r3]
  00398	e59d3020	 ldr         r3, [sp, #0x20]
  0039c	e1822003	 orr         r2, r2, r3
  003a0	e59d301c	 ldr         r3, [sp, #0x1C]
  003a4	e2833f57	 add         r3, r3, #0x57, 30
  003a8	e5933000	 ldr         r3, [r3]
  003ac	e2833f4b	 add         r3, r3, #0x4B, 30
  003b0	e5832000	 str         r2, [r3]

; 366  : 
; 367  :     // get starting tick count for timeout
; 368  :     dwCountStart = GetTickCount();

  003b4	eb000000	 bl          GetTickCount
  003b8	e58d0008	 str         r0, [sp, #8]
  003bc	e59d3008	 ldr         r3, [sp, #8]
  003c0	e58d3000	 str         r3, [sp]
  003c4		 |$LN3@SoftwareRe|

; 369  : 
; 370  :     // Verify that reset has completed.
; 371  :     while ((INREG32(&m_pbRegisters->MMCHS_SYSCTL) & dwResetBits))

  003c4	e59d301c	 ldr         r3, [sp, #0x1C]
  003c8	e2833f57	 add         r3, r3, #0x57, 30
  003cc	e5933000	 ldr         r3, [r3]
  003d0	e2833f4b	 add         r3, r3, #0x4B, 30
  003d4	e5932000	 ldr         r2, [r3]
  003d8	e59d3020	 ldr         r3, [sp, #0x20]
  003dc	e1120003	 tst         r2, r3
  003e0	0a000014	 beq         |$LN2@SoftwareRe|

; 372  :     {
; 373  :         // check for timeout (see CE Help to understand how this calculation works)
; 374  :         if (GetTickCount() - dwCountStart > m_dwMaxTimeout)

  003e4	eb000000	 bl          GetTickCount
  003e8	e58d000c	 str         r0, [sp, #0xC]
  003ec	e59d200c	 ldr         r2, [sp, #0xC]
  003f0	e59d3000	 ldr         r3, [sp]
  003f4	e0422003	 sub         r2, r2, r3
  003f8	e59d301c	 ldr         r3, [sp, #0x1C]
  003fc	e2833e15	 add         r3, r3, #0x15, 28
  00400	e5933000	 ldr         r3, [r3]
  00404	e1520003	 cmp         r2, r3
  00408	9a000007	 bls         |$LN1@SoftwareRe|

; 375  :         {
; 376  :             DEBUGMSG(ZONE_ENABLE_ERROR, (TEXT("SoftwareReset() - exit: TIMEOUT.\r\n")));

  0040c	e59f0030	 ldr         r0, [pc, #0x30]
  00410	eb000000	 bl          NKDbgPrintfW
  00414	e3a03001	 mov         r3, #1
  00418	e58d3010	 str         r3, [sp, #0x10]
  0041c	ea000001	 b           |$LN9@SoftwareRe|
  00420	e3a03000	 mov         r3, #0
  00424	e58d3010	 str         r3, [sp, #0x10]
  00428		 |$LN9@SoftwareRe|

; 377  :             break;

  00428	ea000002	 b           |$LN2@SoftwareRe|
  0042c		 |$LN1@SoftwareRe|

; 378  :         }
; 379  : 
; 380  :         Sleep(0);

  0042c	e3a00000	 mov         r0, #0
  00430	eb000000	 bl          Sleep

; 381  :     }

  00434	eaffffe2	 b           |$LN3@SoftwareRe|
  00438		 |$LN2@SoftwareRe|

; 382  : }

  00438	e28dd014	 add         sp, sp, #0x14
  0043c	e89d6000	 ldmia       sp, {sp, lr}
  00440	e12fff1e	 bx          lr
  00444		 |$LN13@SoftwareRe|
  00444		 |$LN14@SoftwareRe|
  00444	00000000	 DCD         |??_C@_1EG@EIMIGIOI@?$AAS?$AAo?$AAf?$AAt?$AAw?$AAa?$AAr?$AAe?$AAR?$AAe?$AAs?$AAe?$AAt?$AA?$CI?$AA?$CJ?$AA?5?$AA?9?$AA?5?$AAe?$AAx?$AAi?$AAt?$AA?3?$AA?5?$AAT?$AAI?$AAM?$AAE?$AAO?$AAU?$AAT?$AA?4@|
  00448		 |$LN15@SoftwareRe|
  00448	00000000	 DCD         |??_C@_1FK@FNONLNGN@?$AA?$CF?$AAs?$AA?3?$AA?5?$AAD?$AAE?$AAB?$AAU?$AAG?$AAC?$AAH?$AAK?$AA?5?$AAf?$AAa?$AAi?$AAl?$AAe?$AAd?$AA?5?$AAi?$AAn?$AA?5?$AAf?$AAi?$AAl?$AAe?$AA?5?$AA?$CF?$AAs?$AA?5?$AAa@|
  0044c		 |$LN16@SoftwareRe|
  0044c	00000000	 DCD         |dpCurSettings|
  00450		 |$LN17@SoftwareRe|
  00450	00000000	 DCD         |??_C@_1KA@CLLCPJCJ@?$AAC?$AA?3?$AA?2?$AAW?$AAI?$AAN?$AAC?$AAE?$AA6?$AA0?$AA0?$AA?2?$AAP?$AAL?$AAA?$AAT?$AAF?$AAO?$AAR?$AAM?$AA?2?$AAC?$AAO?$AAM?$AAM?$AAO?$AAN?$AA?2?$AAS?$AAR?$AAC?$AA?2@|
  00454		 |$M45091|

			 ENDP  ; |?SoftwareReset@CSDIOControllerBase@@QAAXK@Z|, CSDIOControllerBase::SoftwareReset

	EXPORT	|??_C@_1FG@KBLCJKOK@?$AAS?$AAD?$AAH?$AAC?$AA?$CB?$AAE?$AAR?$AAR?$AAO?$AAR?$AA?5?$AA?9?$AA?5?$AAU?$AAn?$AAe?$AAx?$AAp?$AAe?$AAc?$AAt?$AAe?$AAd?$AA?5?$AAS?$AAD?$AA?5?$AAi?$AAn?$AAt?$AAe?$AAr@| [ DATA ] ; `string'
	EXPORT	|??_C@_1EK@IEOEGBIJ@?$AAS?$AAe?$AAt?$AAI?$AAn?$AAt?$AAe?$AAr?$AAf?$AAa?$AAc?$AAe?$AA?5?$AAM?$AAM?$AAC?$AAH?$AAS?$AA_?$AAH?$AAC?$AAT?$AAL?$AA?5?$AAv?$AAa?$AAl?$AAu?$AAe?$AA?5?$AA?$DN?$AA?5@| [ DATA ] ; `string'
	EXPORT	|?SetSDInterfaceMode@CSDIOControllerBase@@IAAXW4SD_INTERFACE_MODE@@@Z| ; CSDIOControllerBase::SetSDInterfaceMode

  00010			 AREA	 |.pdata|, PDATA
|$T45109| DCD	|$LN15@SetSDInter|
	DCD	0x40005504

  00000			 AREA	 |.rdata|, DATA, READONLY
|??_C@_1FG@KBLCJKOK@?$AAS?$AAD?$AAH?$AAC?$AA?$CB?$AAE?$AAR?$AAR?$AAO?$AAR?$AA?5?$AA?9?$AA?5?$AAU?$AAn?$AAe?$AAx?$AAp?$AAe?$AAc?$AAt?$AAe?$AAd?$AA?5?$AAS?$AAD?$AA?5?$AAi?$AAn?$AAt?$AAe?$AAr@| DCB "S"
	DCB	0x0, "D", 0x0, "H", 0x0, "C", 0x0, "!", 0x0, "E", 0x0, "R"
	DCB	0x0, "R", 0x0, "O", 0x0, "R", 0x0, " ", 0x0, "-", 0x0, " "
	DCB	0x0, "U", 0x0, "n", 0x0, "e", 0x0, "x", 0x0, "p", 0x0, "e"
	DCB	0x0, "c", 0x0, "t", 0x0, "e", 0x0, "d", 0x0, " ", 0x0, "S"
	DCB	0x0, "D", 0x0, " ", 0x0, "i", 0x0, "n", 0x0, "t", 0x0, "e"
	DCB	0x0, "r", 0x0, "f", 0x0, "a", 0x0, "c", 0x0, "e", 0x0, "("
	DCB	0x0, "%", 0x0, "d", 0x0, ")", 0x0, 0xd, 0x0, 0xa, 0x0, 0x0
	DCB	0x0					; `string'

  00000			 AREA	 |.rdata|, DATA, READONLY
|??_C@_1EK@IEOEGBIJ@?$AAS?$AAe?$AAt?$AAI?$AAn?$AAt?$AAe?$AAr?$AAf?$AAa?$AAc?$AAe?$AA?5?$AAM?$AAM?$AAC?$AAH?$AAS?$AA_?$AAH?$AAC?$AAT?$AAL?$AA?5?$AAv?$AAa?$AAl?$AAu?$AAe?$AA?5?$AA?$DN?$AA?5@| DCB "S"
	DCB	0x0, "e", 0x0, "t", 0x0, "I", 0x0, "n", 0x0, "t", 0x0, "e"
	DCB	0x0, "r", 0x0, "f", 0x0, "a", 0x0, "c", 0x0, "e", 0x0, " "
	DCB	0x0, "M", 0x0, "M", 0x0, "C", 0x0, "H", 0x0, "S", 0x0, "_"
	DCB	0x0, "H", 0x0, "C", 0x0, "T", 0x0, "L", 0x0, " ", 0x0, "v"
	DCB	0x0, "a", 0x0, "l", 0x0, "u", 0x0, "e", 0x0, " ", 0x0, "="
	DCB	0x0, " ", 0x0, "%", 0x0, "X", 0x0, 0xd, 0x0, 0xa, 0x0, 0x0
	DCB	0x0					; `string'
; Function compile flags: /Odtp

  00454			 AREA	 |.text|, CODE, ARM

  00454		 |?SetSDInterfaceMode@CSDIOControllerBase@@IAAXW4SD_INTERFACE_MODE@@@Z| PROC ; CSDIOControllerBase::SetSDInterfaceMode

; 387  : {

  00454		 |$LN15@SetSDInter|
  00454	e1a0c00d	 mov         r12, sp
  00458	e92d0003	 stmdb       sp!, {r0, r1}
  0045c	e92d5000	 stmdb       sp!, {r12, lr}
  00460	e24dd00c	 sub         sp, sp, #0xC
  00464		 |$M45106|

; 388  :     if (SD_INTERFACE_SD_MMC_1BIT == eSDInterfaceMode)

  00464	e59d3018	 ldr         r3, [sp, #0x18]
  00468	e3530000	 cmp         r3, #0
  0046c	1a00001c	 bne         |$LN4@SetSDInter|

; 389  :     {
; 390  :         CLRREG32(&m_pbRegisters->MMCHS_HCTL, MMCHS_HCTL_DTW);

  00470	e59d3014	 ldr         r3, [sp, #0x14]
  00474	e2833f57	 add         r3, r3, #0x57, 30
  00478	e5933000	 ldr         r3, [r3]
  0047c	e2833f4a	 add         r3, r3, #0x4A, 30
  00480	e5932000	 ldr         r2, [r3]
  00484	e3e03002	 mvn         r3, #2
  00488	e0022003	 and         r2, r2, r3
  0048c	e59d3014	 ldr         r3, [sp, #0x14]
  00490	e2833f57	 add         r3, r3, #0x57, 30
  00494	e5933000	 ldr         r3, [r3]
  00498	e2833f4a	 add         r3, r3, #0x4A, 30
  0049c	e5832000	 str         r2, [r3]

; 391  :         DEBUGMSG(SDCARD_ZONE_INIT,(TEXT("SetInterface MMCHS_HCTL value = %X\r\n"), m_pbRegisters->MMCHS_HCTL ));

  004a0	e59f30f8	 ldr         r3, [pc, #0xF8]
  004a4	e5933440	 ldr         r3, [r3, #0x440]
  004a8	e3130a02	 tst         r3, #2, 20
  004ac	0a000009	 beq         |$LN7@SetSDInter|
  004b0	e59d3014	 ldr         r3, [sp, #0x14]
  004b4	e2833f57	 add         r3, r3, #0x57, 30
  004b8	e5933000	 ldr         r3, [r3]
  004bc	e2833f4a	 add         r3, r3, #0x4A, 30
  004c0	e5931000	 ldr         r1, [r3]
  004c4	e59f00d8	 ldr         r0, [pc, #0xD8]
  004c8	eb000000	 bl          NKDbgPrintfW
  004cc	e3a03001	 mov         r3, #1
  004d0	e58d3000	 str         r3, [sp]
  004d4	ea000001	 b           |$LN8@SetSDInter|
  004d8		 |$LN7@SetSDInter|
  004d8	e3a03000	 mov         r3, #0
  004dc	e58d3000	 str         r3, [sp]
  004e0		 |$LN8@SetSDInter|

; 392  :     }
; 393  :     else if (SD_INTERFACE_SD_4BIT == eSDInterfaceMode)

  004e0	ea00002a	 b           |$LN3@SetSDInter|
  004e4		 |$LN4@SetSDInter|
  004e4	e59d3018	 ldr         r3, [sp, #0x18]
  004e8	e3530001	 cmp         r3, #1
  004ec	1a00001b	 bne         |$LN2@SetSDInter|

; 394  :     {
; 395  :         SETREG32(&m_pbRegisters->MMCHS_HCTL, MMCHS_HCTL_DTW);

  004f0	e59d3014	 ldr         r3, [sp, #0x14]
  004f4	e2833f57	 add         r3, r3, #0x57, 30
  004f8	e5933000	 ldr         r3, [r3]
  004fc	e2833f4a	 add         r3, r3, #0x4A, 30
  00500	e5933000	 ldr         r3, [r3]
  00504	e3832002	 orr         r2, r3, #2
  00508	e59d3014	 ldr         r3, [sp, #0x14]
  0050c	e2833f57	 add         r3, r3, #0x57, 30
  00510	e5933000	 ldr         r3, [r3]
  00514	e2833f4a	 add         r3, r3, #0x4A, 30
  00518	e5832000	 str         r2, [r3]

; 396  :         DEBUGMSG(SDCARD_ZONE_INIT,(TEXT("SetInterface MMCHS_HCTL value = %X\r\n"), m_pbRegisters->MMCHS_HCTL ));

  0051c	e59f307c	 ldr         r3, [pc, #0x7C]
  00520	e5933440	 ldr         r3, [r3, #0x440]
  00524	e3130a02	 tst         r3, #2, 20
  00528	0a000009	 beq         |$LN9@SetSDInter|
  0052c	e59d3014	 ldr         r3, [sp, #0x14]
  00530	e2833f57	 add         r3, r3, #0x57, 30
  00534	e5933000	 ldr         r3, [r3]
  00538	e2833f4a	 add         r3, r3, #0x4A, 30
  0053c	e5931000	 ldr         r1, [r3]
  00540	e59f005c	 ldr         r0, [pc, #0x5C]
  00544	eb000000	 bl          NKDbgPrintfW
  00548	e3a03001	 mov         r3, #1
  0054c	e58d3004	 str         r3, [sp, #4]
  00550	ea000001	 b           |$LN10@SetSDInter|
  00554		 |$LN9@SetSDInter|
  00554	e3a03000	 mov         r3, #0
  00558	e58d3004	 str         r3, [sp, #4]
  0055c		 |$LN10@SetSDInter|

; 397  :     }
; 398  :     else

  0055c	ea00000b	 b           |$LN1@SetSDInter|
  00560		 |$LN2@SetSDInter|

; 399  :     {
; 400  :         RETAILMSG(SDCARD_ZONE_ERROR, 
; 401  :             (L"SDHC!ERROR - Unexpected SD interface(%d)\r\n",
; 402  :             eSDInterfaceMode)
; 403  :             );

  00560	e59f3038	 ldr         r3, [pc, #0x38]
  00564	e5933440	 ldr         r3, [r3, #0x440]
  00568	e3130902	 tst         r3, #2, 18
  0056c	0a000005	 beq         |$LN11@SetSDInter|
  00570	e59d1018	 ldr         r1, [sp, #0x18]
  00574	e59f0020	 ldr         r0, [pc, #0x20]
  00578	eb000000	 bl          NKDbgPrintfW
  0057c	e3a03001	 mov         r3, #1
  00580	e58d3008	 str         r3, [sp, #8]
  00584	ea000001	 b           |$LN12@SetSDInter|
  00588		 |$LN11@SetSDInter|
  00588	e3a03000	 mov         r3, #0
  0058c	e58d3008	 str         r3, [sp, #8]
  00590		 |$LN12@SetSDInter|
  00590		 |$LN1@SetSDInter|
  00590		 |$LN3@SetSDInter|

; 404  :         }
; 405  :     }

  00590	e28dd00c	 add         sp, sp, #0xC
  00594	e89d6000	 ldmia       sp, {sp, lr}
  00598	e12fff1e	 bx          lr
  0059c		 |$LN16@SetSDInter|
  0059c		 |$LN17@SetSDInter|
  0059c	00000000	 DCD         |??_C@_1FG@KBLCJKOK@?$AAS?$AAD?$AAH?$AAC?$AA?$CB?$AAE?$AAR?$AAR?$AAO?$AAR?$AA?5?$AA?9?$AA?5?$AAU?$AAn?$AAe?$AAx?$AAp?$AAe?$AAc?$AAt?$AAe?$AAd?$AA?5?$AAS?$AAD?$AA?5?$AAi?$AAn?$AAt?$AAe?$AAr@|
  005a0		 |$LN18@SetSDInter|
  005a0	00000000	 DCD         |dpCurSettings|
  005a4		 |$LN19@SetSDInter|
  005a4	00000000	 DCD         |??_C@_1EK@IEOEGBIJ@?$AAS?$AAe?$AAt?$AAI?$AAn?$AAt?$AAe?$AAr?$AAf?$AAa?$AAc?$AAe?$AA?5?$AAM?$AAM?$AAC?$AAH?$AAS?$AA_?$AAH?$AAC?$AAT?$AAL?$AA?5?$AAv?$AAa?$AAl?$AAu?$AAe?$AA?5?$AA?$DN?$AA?5@|
  005a8		 |$M45107|

			 ENDP  ; |?SetSDInterfaceMode@CSDIOControllerBase@@IAAXW4SD_INTERFACE_MODE@@@Z|, CSDIOControllerBase::SetSDInterfaceMode

	EXPORT	|?SetClockRate@CSDIOControllerBase@@QAAXPAK@Z| ; CSDIOControllerBase::SetClockRate
	EXPORT	|?UpdateSystemClock@CSDIOControllerBase@@QAAHH@Z| ; CSDIOControllerBase::UpdateSystemClock
	EXPORT	|?SetInterface@CSDIOControllerBase@@QAAXPAU_SD_CARD_INTERFACE_EX@@@Z| ; CSDIOControllerBase::SetInterface

  00018			 AREA	 |.pdata|, PDATA
|$T45120| DCD	|$LN8@SetInterfa|
	DCD	0x40002b04
; Function compile flags: /Odtp

  005a8			 AREA	 |.text|, CODE, ARM

  005a8		 |?SetInterface@CSDIOControllerBase@@QAAXPAU_SD_CARD_INTERFACE_EX@@@Z| PROC ; CSDIOControllerBase::SetInterface

; 410  : {

  005a8		 |$LN8@SetInterfa|
  005a8	e1a0c00d	 mov         r12, sp
  005ac	e92d0003	 stmdb       sp!, {r0, r1}
  005b0	e92d5000	 stmdb       sp!, {r12, lr}
  005b4	e24dd004	 sub         sp, sp, #4
  005b8		 |$M45117|

; 411  :     if(m_ActualPowerState == D4) return;

  005b8	e59d300c	 ldr         r3, [sp, #0xC]
  005bc	e28330e0	 add         r3, r3, #0xE0
  005c0	e5933000	 ldr         r3, [r3]
  005c4	e3530004	 cmp         r3, #4
  005c8	1a000000	 bne         |$LN1@SetInterfa|
  005cc	ea00001d	 b           |$LN2@SetInterfa|
  005d0		 |$LN1@SetInterfa|

; 412  : 
; 413  :     UpdateSystemClock(TRUE);

  005d0	e3a01001	 mov         r1, #1
  005d4	e59d000c	 ldr         r0, [sp, #0xC]
  005d8	eb000000	 bl          |?UpdateSystemClock@CSDIOControllerBase@@QAAHH@Z|

; 414  : 
; 415  :     Sleep(2);

  005dc	e3a00002	 mov         r0, #2
  005e0	eb000000	 bl          Sleep

; 416  : 
; 417  :     m_sContext.eInterfaceMode = (pInterface->InterfaceModeEx.bit.sd4Bit) ? SD_INTERFACE_SD_4BIT : SD_INTERFACE_SD_MMC_1BIT;

  005e4	e59d3010	 ldr         r3, [sp, #0x10]
  005e8	e5933000	 ldr         r3, [r3]
  005ec	e3130001	 tst         r3, #1
  005f0	0a000002	 beq         |$LN4@SetInterfa|
  005f4	e3a03001	 mov         r3, #1
  005f8	e58d3000	 str         r3, [sp]
  005fc	ea000001	 b           |$LN5@SetInterfa|
  00600		 |$LN4@SetInterfa|
  00600	e3a03000	 mov         r3, #0
  00604	e58d3000	 str         r3, [sp]
  00608		 |$LN5@SetInterfa|
  00608	e59d300c	 ldr         r3, [sp, #0xC]
  0060c	e2832f82	 add         r2, r3, #0x82, 30
  00610	e59d3000	 ldr         r3, [sp]
  00614	e5823000	 str         r3, [r2]

; 418  :     SetSDInterfaceMode(m_sContext.eInterfaceMode);

  00618	e59d300c	 ldr         r3, [sp, #0xC]
  0061c	e2833f82	 add         r3, r3, #0x82, 30
  00620	e5931000	 ldr         r1, [r3]
  00624	e59d000c	 ldr         r0, [sp, #0xC]
  00628	eb000000	 bl          |?SetSDInterfaceMode@CSDIOControllerBase@@IAAXW4SD_INTERFACE_MODE@@@Z|

; 419  : 
; 420  :     SetClockRate(&pInterface->ClockRate);

  0062c	e59d3010	 ldr         r3, [sp, #0x10]
  00630	e2831004	 add         r1, r3, #4
  00634	e59d000c	 ldr         r0, [sp, #0xC]
  00638	eb000000	 bl          |?SetClockRate@CSDIOControllerBase@@QAAXPAK@Z|

; 421  :     UpdateSystemClock(FALSE);

  0063c	e3a01000	 mov         r1, #0
  00640	e59d000c	 ldr         r0, [sp, #0xC]
  00644	eb000000	 bl          |?UpdateSystemClock@CSDIOControllerBase@@QAAHH@Z|
  00648		 |$LN2@SetInterfa|

; 422  : }

  00648	e28dd004	 add         sp, sp, #4
  0064c	e89d6000	 ldmia       sp, {sp, lr}
  00650	e12fff1e	 bx          lr
  00654		 |$M45118|

			 ENDP  ; |?SetInterface@CSDIOControllerBase@@QAAXPAU_SD_CARD_INTERFACE_EX@@@Z|, CSDIOControllerBase::SetInterface

	EXPORT	|?EnableSDHCInterrupts@CSDIOControllerBase@@QAAXXZ| ; CSDIOControllerBase::EnableSDHCInterrupts
	IMPORT	|LeaveCriticalSection|
	IMPORT	|EnterCriticalSection|

  00020			 AREA	 |.pdata|, PDATA
|$T45125| DCD	|$LN5@EnableSDHC|
	DCD	0x40001d03
; Function compile flags: /Odtp

  00654			 AREA	 |.text|, CODE, ARM

  00654		 |?EnableSDHCInterrupts@CSDIOControllerBase@@QAAXXZ| PROC ; CSDIOControllerBase::EnableSDHCInterrupts

; 427  : {

  00654		 |$LN5@EnableSDHC|
  00654	e1a0c00d	 mov         r12, sp
  00658	e92d0001	 stmdb       sp!, {r0}
  0065c	e92d5000	 stmdb       sp!, {r12, lr}
  00660		 |$M45122|

; 428  :     EnterCriticalSection( &m_critSec );

  00660	e59d3008	 ldr         r3, [sp, #8]
  00664	e28300b0	 add         r0, r3, #0xB0
  00668	eb000000	 bl          EnterCriticalSection

; 429  :     OUTREG32(&m_pbRegisters->MMCHS_ISE, MMC_INT_EN_MASK);

  0066c	e59d3008	 ldr         r3, [sp, #8]
  00670	e2833f57	 add         r3, r3, #0x57, 30
  00674	e5933000	 ldr         r3, [r3]
  00678	e2832f4e	 add         r2, r3, #0x4E, 30
  0067c	e3a03833	 mov         r3, #0x33, 16
  00680	e3833033	 orr         r3, r3, #0x33
  00684	e5823000	 str         r3, [r2]

; 430  :     OUTREG32(&m_pbRegisters->MMCHS_IE,  MMC_INT_EN_MASK);

  00688	e59d3008	 ldr         r3, [sp, #8]
  0068c	e2833f57	 add         r3, r3, #0x57, 30
  00690	e5933000	 ldr         r3, [r3]
  00694	e2832f4d	 add         r2, r3, #0x4D, 30
  00698	e3a03833	 mov         r3, #0x33, 16
  0069c	e3833033	 orr         r3, r3, #0x33
  006a0	e5823000	 str         r3, [r2]

; 431  :     m_sContext.eSDHCIntr = SDHC_MMC_INTR_ENABLED;

  006a4	e59d3008	 ldr         r3, [sp, #8]
  006a8	e2832f81	 add         r2, r3, #0x81, 30
  006ac	e3a03001	 mov         r3, #1
  006b0	e5823000	 str         r3, [r2]

; 432  :     LeaveCriticalSection( &m_critSec );

  006b4	e59d3008	 ldr         r3, [sp, #8]
  006b8	e28300b0	 add         r0, r3, #0xB0
  006bc	eb000000	 bl          LeaveCriticalSection

; 433  : }

  006c0	e89d6000	 ldmia       sp, {sp, lr}
  006c4	e12fff1e	 bx          lr
  006c8		 |$M45123|

			 ENDP  ; |?EnableSDHCInterrupts@CSDIOControllerBase@@QAAXXZ|, CSDIOControllerBase::EnableSDHCInterrupts

	EXPORT	|?DisableSDHCInterrupts@CSDIOControllerBase@@QAAXXZ| ; CSDIOControllerBase::DisableSDHCInterrupts

  00028			 AREA	 |.pdata|, PDATA
|$T45130| DCD	|$LN5@DisableSDH|
	DCD	0x40001b03
; Function compile flags: /Odtp

  006c8			 AREA	 |.text|, CODE, ARM

  006c8		 |?DisableSDHCInterrupts@CSDIOControllerBase@@QAAXXZ| PROC ; CSDIOControllerBase::DisableSDHCInterrupts

; 438  : {

  006c8		 |$LN5@DisableSDH|
  006c8	e1a0c00d	 mov         r12, sp
  006cc	e92d0001	 stmdb       sp!, {r0}
  006d0	e92d5000	 stmdb       sp!, {r12, lr}
  006d4		 |$M45127|

; 439  :     EnterCriticalSection( &m_critSec );

  006d4	e59d3008	 ldr         r3, [sp, #8]
  006d8	e28300b0	 add         r0, r3, #0xB0
  006dc	eb000000	 bl          EnterCriticalSection

; 440  :     OUTREG32(&m_pbRegisters->MMCHS_ISE, 0);

  006e0	e59d3008	 ldr         r3, [sp, #8]
  006e4	e2833f57	 add         r3, r3, #0x57, 30
  006e8	e5933000	 ldr         r3, [r3]
  006ec	e2832f4e	 add         r2, r3, #0x4E, 30
  006f0	e3a03000	 mov         r3, #0
  006f4	e5823000	 str         r3, [r2]

; 441  :     OUTREG32(&m_pbRegisters->MMCHS_IE,  0);

  006f8	e59d3008	 ldr         r3, [sp, #8]
  006fc	e2833f57	 add         r3, r3, #0x57, 30
  00700	e5933000	 ldr         r3, [r3]
  00704	e2832f4d	 add         r2, r3, #0x4D, 30
  00708	e3a03000	 mov         r3, #0
  0070c	e5823000	 str         r3, [r2]

; 442  :     m_sContext.eSDHCIntr = SDHC_INTR_DISABLED;

  00710	e59d3008	 ldr         r3, [sp, #8]
  00714	e2832f81	 add         r2, r3, #0x81, 30
  00718	e3a03000	 mov         r3, #0
  0071c	e5823000	 str         r3, [r2]

; 443  :     LeaveCriticalSection( &m_critSec );

  00720	e59d3008	 ldr         r3, [sp, #8]
  00724	e28300b0	 add         r0, r3, #0xB0
  00728	eb000000	 bl          LeaveCriticalSection

; 444  : }

  0072c	e89d6000	 ldmia       sp, {sp, lr}
  00730	e12fff1e	 bx          lr
  00734		 |$M45128|

			 ENDP  ; |?DisableSDHCInterrupts@CSDIOControllerBase@@QAAXXZ|, CSDIOControllerBase::DisableSDHCInterrupts

	EXPORT	|??_C@_1EE@HBJAMAKC@?$AAC?$AAS?$AAD?$AAH?$AAC?$AAS?$AAl?$AAo?$AAt?$AA?3?$AA?3?$AAE?$AAn?$AAa?$AAb?$AAl?$AAe?$AAS?$AAD?$AAI?$AAO?$AAI?$AAn?$AAt?$AAe?$AAr?$AAr?$AAu?$AAp?$AAt?$AAs?$AA?$AN@| [ DATA ] ; `string'
	EXPORT	|??_C@_1BA@LEPJIIOK@?$AAU?$AAn?$AAk?$AAn?$AAo?$AAw?$AAn?$AA?$AA@| [ DATA ] ; `string'
	EXPORT	|?EnableSDIOInterrupts@CSDIOControllerBase@@QAAXXZ| ; CSDIOControllerBase::EnableSDIOInterrupts

  00030			 AREA	 |.pdata|, PDATA
|$T45139| DCD	|$LN10@EnableSDIO|
	DCD	0x40006c04

  00000			 AREA	 |.rdata|, DATA, READONLY
|??_C@_1EE@HBJAMAKC@?$AAC?$AAS?$AAD?$AAH?$AAC?$AAS?$AAl?$AAo?$AAt?$AA?3?$AA?3?$AAE?$AAn?$AAa?$AAb?$AAl?$AAe?$AAS?$AAD?$AAI?$AAO?$AAI?$AAn?$AAt?$AAe?$AAr?$AAr?$AAu?$AAp?$AAt?$AAs?$AA?$AN@| DCB "C"
	DCB	0x0, "S", 0x0, "D", 0x0, "H", 0x0, "C", 0x0, "S", 0x0, "l"
	DCB	0x0, "o", 0x0, "t", 0x0, ":", 0x0, ":", 0x0, "E", 0x0, "n"
	DCB	0x0, "a", 0x0, "b", 0x0, "l", 0x0, "e", 0x0, "S", 0x0, "D"
	DCB	0x0, "I", 0x0, "O", 0x0, "I", 0x0, "n", 0x0, "t", 0x0, "e"
	DCB	0x0, "r", 0x0, "r", 0x0, "u", 0x0, "p", 0x0, "t", 0x0, "s"
	DCB	0x0, 0xd, 0x0, 0xa, 0x0, 0x0, 0x0	; `string'

  00000			 AREA	 |.rdata|, DATA, READONLY
|??_C@_1BA@LEPJIIOK@?$AAU?$AAn?$AAk?$AAn?$AAo?$AAw?$AAn?$AA?$AA@| DCB "U", 0x0
	DCB	"n", 0x0, "k", 0x0, "n", 0x0, "o", 0x0, "w", 0x0, "n", 0x0
	DCB	0x0, 0x0				; `string'
; Function compile flags: /Odtp

  00734			 AREA	 |.text|, CODE, ARM

  00734		 |?EnableSDIOInterrupts@CSDIOControllerBase@@QAAXXZ| PROC ; CSDIOControllerBase::EnableSDIOInterrupts

; 449  : {

  00734		 |$LN10@EnableSDIO|
  00734	e1a0c00d	 mov         r12, sp
  00738	e92d0001	 stmdb       sp!, {r0}
  0073c	e92d5000	 stmdb       sp!, {r12, lr}
  00740	e24dd008	 sub         sp, sp, #8
  00744		 |$M45136|

; 450  :     ASSERT( !m_fSDIOInterruptsEnabled );

  00744	e59d3010	 ldr         r3, [sp, #0x10]
  00748	e28330f4	 add         r3, r3, #0xF4
  0074c	e5933000	 ldr         r3, [r3]
  00750	e3530000	 cmp         r3, #0
  00754	1a000002	 bne         |$LN4@EnableSDIO|
  00758	e3a03001	 mov         r3, #1
  0075c	e58d3000	 str         r3, [sp]
  00760	ea000008	 b           |$LN5@EnableSDIO|
  00764		 |$LN4@EnableSDIO|
  00764	e3a03c01	 mov         r3, #1, 24
  00768	e38330c2	 orr         r3, r3, #0xC2
  0076c	e59f216c	 ldr         r2, [pc, #0x16C]
  00770	e59f1164	 ldr         r1, [pc, #0x164]
  00774	e59f015c	 ldr         r0, [pc, #0x15C]
  00778	eb000000	 bl          NKDbgPrintfW
  0077c	e6000010	 __debugbreak_ce
  00780	e3a03000	 mov         r3, #0
  00784	e58d3000	 str         r3, [sp]
  00788		 |$LN5@EnableSDIO|

; 451  :     m_fSDIOInterruptsEnabled = TRUE;

  00788	e59d3010	 ldr         r3, [sp, #0x10]
  0078c	e28320f4	 add         r2, r3, #0xF4
  00790	e3a03001	 mov         r3, #1
  00794	e5823000	 str         r3, [r2]

; 452  : 
; 453  :     DEBUGMSG(SHC_INTERRUPT_ZONE, (TEXT("CSDHCSlot::EnableSDIOInterrupts\r\n")));

  00798	e59f3134	 ldr         r3, [pc, #0x134]
  0079c	e5933440	 ldr         r3, [r3, #0x440]
  007a0	e3130001	 tst         r3, #1
  007a4	0a000004	 beq         |$LN6@EnableSDIO|
  007a8	e59f0120	 ldr         r0, [pc, #0x120]
  007ac	eb000000	 bl          NKDbgPrintfW
  007b0	e3a03001	 mov         r3, #1
  007b4	e58d3004	 str         r3, [sp, #4]
  007b8	ea000001	 b           |$LN7@EnableSDIO|
  007bc		 |$LN6@EnableSDIO|
  007bc	e3a03000	 mov         r3, #0
  007c0	e58d3004	 str         r3, [sp, #4]
  007c4		 |$LN7@EnableSDIO|

; 454  : #ifdef ENABLE_RETAIL_OUTPUT
; 455  :         RETAILMSG(1, (TEXT("CSDHCSlot::EnableSDIOInterrupts\r\n")));
; 456  : #endif
; 457  :     EnterCriticalSection( &m_critSec );

  007c4	e59d3010	 ldr         r3, [sp, #0x10]
  007c8	e28300b0	 add         r0, r3, #0xB0
  007cc	eb000000	 bl          EnterCriticalSection

; 458  :     SETREG32(&m_pbRegisters->MMCHS_CON, MMCHS_CON_CTPL);

  007d0	e59d3010	 ldr         r3, [sp, #0x10]
  007d4	e2833f57	 add         r3, r3, #0x57, 30
  007d8	e5933000	 ldr         r3, [r3]
  007dc	e283302c	 add         r3, r3, #0x2C
  007e0	e5933000	 ldr         r3, [r3]
  007e4	e3832b02	 orr         r2, r3, #2, 22
  007e8	e59d3010	 ldr         r3, [sp, #0x10]
  007ec	e2833f57	 add         r3, r3, #0x57, 30
  007f0	e5933000	 ldr         r3, [r3]
  007f4	e283302c	 add         r3, r3, #0x2C
  007f8	e5832000	 str         r2, [r3]

; 459  :     if (!m_Sdio4BitDisable && (m_sContext.eInterfaceMode == SD_INTERFACE_SD_4BIT))

  007fc	e59d3010	 ldr         r3, [sp, #0x10]
  00800	e2833e19	 add         r3, r3, #0x19, 28
  00804	e5933000	 ldr         r3, [r3]
  00808	e3530000	 cmp         r3, #0
  0080c	1a00000f	 bne         |$LN1@EnableSDIO|
  00810	e59d3010	 ldr         r3, [sp, #0x10]
  00814	e2833f82	 add         r3, r3, #0x82, 30
  00818	e5933000	 ldr         r3, [r3]
  0081c	e3530001	 cmp         r3, #1
  00820	1a00000a	 bne         |$LN1@EnableSDIO|

; 460  :     {
; 461  :         SETREG32(&m_pbRegisters->MMCHS_CON, MMCHS_CON_CLKEXTFREE);

  00824	e59d3010	 ldr         r3, [sp, #0x10]
  00828	e2833f57	 add         r3, r3, #0x57, 30
  0082c	e5933000	 ldr         r3, [r3]
  00830	e283302c	 add         r3, r3, #0x2C
  00834	e5933000	 ldr         r3, [r3]
  00838	e3832801	 orr         r2, r3, #1, 16
  0083c	e59d3010	 ldr         r3, [sp, #0x10]
  00840	e2833f57	 add         r3, r3, #0x57, 30
  00844	e5933000	 ldr         r3, [r3]
  00848	e283302c	 add         r3, r3, #0x2C
  0084c	e5832000	 str         r2, [r3]
  00850		 |$LN1@EnableSDIO|

; 462  :     }
; 463  : 
; 464  :     // enable exit from smart idle mode on SD/SDIO card interrupt
; 465  :     SETREG32(&m_pbRegisters->MMCHS_ISE, MMCHS_ISE_CIRQ);

  00850	e59d3010	 ldr         r3, [sp, #0x10]
  00854	e2833f57	 add         r3, r3, #0x57, 30
  00858	e5933000	 ldr         r3, [r3]
  0085c	e2833f4e	 add         r3, r3, #0x4E, 30
  00860	e5933000	 ldr         r3, [r3]
  00864	e3832c01	 orr         r2, r3, #1, 24
  00868	e59d3010	 ldr         r3, [sp, #0x10]
  0086c	e2833f57	 add         r3, r3, #0x57, 30
  00870	e5933000	 ldr         r3, [r3]
  00874	e2833f4e	 add         r3, r3, #0x4E, 30
  00878	e5832000	 str         r2, [r3]

; 466  :     // enable SD/SDIO card interrupt
; 467  :     SETREG32(&m_pbRegisters->MMCHS_IE, MMCHS_IE_CIRQ);

  0087c	e59d3010	 ldr         r3, [sp, #0x10]
  00880	e2833f57	 add         r3, r3, #0x57, 30
  00884	e5933000	 ldr         r3, [r3]
  00888	e2833f4d	 add         r3, r3, #0x4D, 30
  0088c	e5933000	 ldr         r3, [r3]
  00890	e3832c01	 orr         r2, r3, #1, 24
  00894	e59d3010	 ldr         r3, [sp, #0x10]
  00898	e2833f57	 add         r3, r3, #0x57, 30
  0089c	e5933000	 ldr         r3, [r3]
  008a0	e2833f4d	 add         r3, r3, #0x4D, 30
  008a4	e5832000	 str         r2, [r3]

; 468  : 
; 469  :     m_sContext.eSDHCIntr = SDHC_SDIO_INTR_ENABLED;

  008a8	e59d3010	 ldr         r3, [sp, #0x10]
  008ac	e2832f81	 add         r2, r3, #0x81, 30
  008b0	e3a03002	 mov         r3, #2
  008b4	e5823000	 str         r3, [r2]

; 470  :     LeaveCriticalSection( &m_critSec );

  008b8	e59d3010	 ldr         r3, [sp, #0x10]
  008bc	e28300b0	 add         r0, r3, #0xB0
  008c0	eb000000	 bl          LeaveCriticalSection

; 471  : }

  008c4	e28dd008	 add         sp, sp, #8
  008c8	e89d6000	 ldmia       sp, {sp, lr}
  008cc	e12fff1e	 bx          lr
  008d0		 |$LN11@EnableSDIO|
  008d0		 |$LN12@EnableSDIO|
  008d0	00000000	 DCD         |??_C@_1EE@HBJAMAKC@?$AAC?$AAS?$AAD?$AAH?$AAC?$AAS?$AAl?$AAo?$AAt?$AA?3?$AA?3?$AAE?$AAn?$AAa?$AAb?$AAl?$AAe?$AAS?$AAD?$AAI?$AAO?$AAI?$AAn?$AAt?$AAe?$AAr?$AAr?$AAu?$AAp?$AAt?$AAs?$AA?$AN@|
  008d4		 |$LN13@EnableSDIO|
  008d4	00000000	 DCD         |dpCurSettings|
  008d8		 |$LN14@EnableSDIO|
  008d8	00000000	 DCD         |??_C@_1FK@FNONLNGN@?$AA?$CF?$AAs?$AA?3?$AA?5?$AAD?$AAE?$AAB?$AAU?$AAG?$AAC?$AAH?$AAK?$AA?5?$AAf?$AAa?$AAi?$AAl?$AAe?$AAd?$AA?5?$AAi?$AAn?$AA?5?$AAf?$AAi?$AAl?$AAe?$AA?5?$AA?$CF?$AAs?$AA?5?$AAa@|
  008dc		 |$LN15@EnableSDIO|
  008dc	00000000	 DCD         |??_C@_1BA@LEPJIIOK@?$AAU?$AAn?$AAk?$AAn?$AAo?$AAw?$AAn?$AA?$AA@|
  008e0		 |$LN16@EnableSDIO|
  008e0	00000000	 DCD         |??_C@_1KA@CLLCPJCJ@?$AAC?$AA?3?$AA?2?$AAW?$AAI?$AAN?$AAC?$AAE?$AA6?$AA0?$AA0?$AA?2?$AAP?$AAL?$AAA?$AAT?$AAF?$AAO?$AAR?$AAM?$AA?2?$AAC?$AAO?$AAM?$AAM?$AAO?$AAN?$AA?2?$AAS?$AAR?$AAC?$AA?2@|
  008e4		 |$M45137|

			 ENDP  ; |?EnableSDIOInterrupts@CSDIOControllerBase@@QAAXXZ|, CSDIOControllerBase::EnableSDIOInterrupts

	EXPORT	|?Set_MMC_STAT@CSDIOControllerBase@@QAAXK@Z| ; CSDIOControllerBase::Set_MMC_STAT
	EXPORT	|?Read_MMC_STAT@CSDIOControllerBase@@QAAKXZ| ; CSDIOControllerBase::Read_MMC_STAT
	EXPORT	|??_C@_1DM@MAMLMBJK@?$AAC?$AAS?$AAD?$AAH?$AAC?$AAS?$AAl?$AAo?$AAt?$AA?3?$AA?3?$AAA?$AAc?$AAk?$AAS?$AAD?$AAI?$AAO?$AAI?$AAn?$AAt?$AAe?$AAr?$AAr?$AAu?$AAp?$AAt?$AA?$AN?$AA?6?$AA?$AA@| [ DATA ] ; `string'
	EXPORT	|?AckSDIOInterrupt@CSDIOControllerBase@@QAAXXZ| ; CSDIOControllerBase::AckSDIOInterrupt
	IMPORT	|SDHCDIndicateSlotStateChange|

  00038			 AREA	 |.pdata|, PDATA
|$T45154| DCD	|$LN11@AckSDIOInt|
	DCD	0x40004f04

  00000			 AREA	 |.rdata|, DATA, READONLY
|??_C@_1DM@MAMLMBJK@?$AAC?$AAS?$AAD?$AAH?$AAC?$AAS?$AAl?$AAo?$AAt?$AA?3?$AA?3?$AAA?$AAc?$AAk?$AAS?$AAD?$AAI?$AAO?$AAI?$AAn?$AAt?$AAe?$AAr?$AAr?$AAu?$AAp?$AAt?$AA?$AN?$AA?6?$AA?$AA@| DCB "C"
	DCB	0x0, "S", 0x0, "D", 0x0, "H", 0x0, "C", 0x0, "S", 0x0, "l"
	DCB	0x0, "o", 0x0, "t", 0x0, ":", 0x0, ":", 0x0, "A", 0x0, "c"
	DCB	0x0, "k", 0x0, "S", 0x0, "D", 0x0, "I", 0x0, "O", 0x0, "I"
	DCB	0x0, "n", 0x0, "t", 0x0, "e", 0x0, "r", 0x0, "r", 0x0, "u"
	DCB	0x0, "p", 0x0, "t", 0x0, 0xd, 0x0, 0xa, 0x0, 0x0, 0x0 ; `string'
; Function compile flags: /Odtp

  008e4			 AREA	 |.text|, CODE, ARM

  008e4		 |?AckSDIOInterrupt@CSDIOControllerBase@@QAAXXZ| PROC ; CSDIOControllerBase::AckSDIOInterrupt

; 477  : {

  008e4		 |$LN11@AckSDIOInt|
  008e4	e1a0c00d	 mov         r12, sp
  008e8	e92d0001	 stmdb       sp!, {r0}
  008ec	e92d5000	 stmdb       sp!, {r12, lr}
  008f0	e24dd010	 sub         sp, sp, #0x10
  008f4		 |$M45151|

; 478  :     ASSERT( m_fSDIOInterruptsEnabled );

  008f4	e59d3018	 ldr         r3, [sp, #0x18]
  008f8	e28330f4	 add         r3, r3, #0xF4
  008fc	e5933000	 ldr         r3, [r3]
  00900	e3530000	 cmp         r3, #0
  00904	0a000002	 beq         |$LN5@AckSDIOInt|
  00908	e3a03001	 mov         r3, #1
  0090c	e58d3004	 str         r3, [sp, #4]
  00910	ea000008	 b           |$LN6@AckSDIOInt|
  00914		 |$LN5@AckSDIOInt|
  00914	e3a03c01	 mov         r3, #1, 24
  00918	e38330de	 orr         r3, r3, #0xDE
  0091c	e59f20f8	 ldr         r2, [pc, #0xF8]
  00920	e59f10f0	 ldr         r1, [pc, #0xF0]
  00924	e59f00e8	 ldr         r0, [pc, #0xE8]
  00928	eb000000	 bl          NKDbgPrintfW
  0092c	e6000010	 __debugbreak_ce
  00930	e3a03000	 mov         r3, #0
  00934	e58d3004	 str         r3, [sp, #4]
  00938		 |$LN6@AckSDIOInt|

; 479  :     DEBUGMSG(SHC_INTERRUPT_ZONE, (TEXT("CSDHCSlot::AckSDIOInterrupt\r\n")));

  00938	e59f30d0	 ldr         r3, [pc, #0xD0]
  0093c	e5933440	 ldr         r3, [r3, #0x440]
  00940	e3130001	 tst         r3, #1
  00944	0a000004	 beq         |$LN7@AckSDIOInt|
  00948	e59f00bc	 ldr         r0, [pc, #0xBC]
  0094c	eb000000	 bl          NKDbgPrintfW
  00950	e3a03001	 mov         r3, #1
  00954	e58d3008	 str         r3, [sp, #8]
  00958	ea000001	 b           |$LN8@AckSDIOInt|
  0095c		 |$LN7@AckSDIOInt|
  0095c	e3a03000	 mov         r3, #0
  00960	e58d3008	 str         r3, [sp, #8]
  00964		 |$LN8@AckSDIOInt|

; 480  : #ifdef ENABLE_RETAIL_OUTPUT
; 481  :         RETAILMSG(1, (TEXT("CSDHCSlot::AckSDIOInterrupt\r\n")));
; 482  : #endif
; 483  :     DWORD dwRegValue = Read_MMC_STAT();

  00964	e59d0018	 ldr         r0, [sp, #0x18]
  00968	eb000000	 bl          |?Read_MMC_STAT@CSDIOControllerBase@@QAAKXZ|
  0096c	e58d000c	 str         r0, [sp, #0xC]
  00970	e59d300c	 ldr         r3, [sp, #0xC]
  00974	e58d3000	 str         r3, [sp]

; 484  :     if( dwRegValue & MMCHS_STAT_CIRQ )

  00978	e59d3000	 ldr         r3, [sp]
  0097c	e3130c01	 tst         r3, #1, 24
  00980	0a000009	 beq         |$LN2@AckSDIOInt|

; 485  :     {
; 486  :         Set_MMC_STAT(MMCHS_STAT_CIRQ);

  00984	e3a01c01	 mov         r1, #1, 24
  00988	e59d0018	 ldr         r0, [sp, #0x18]
  0098c	eb000000	 bl          |?Set_MMC_STAT@CSDIOControllerBase@@QAAXK@Z|

; 487  :         SDHCDIndicateSlotStateChange(m_pHCContext, 0, DeviceInterrupting);

  00990	e3a02003	 mov         r2, #3
  00994	e3a01000	 mov         r1, #0
  00998	e59d3018	 ldr         r3, [sp, #0x18]
  0099c	e28330a8	 add         r3, r3, #0xA8
  009a0	e5930000	 ldr         r0, [r3]
  009a4	eb000000	 bl          SDHCDIndicateSlotStateChange

; 488  :     }
; 489  :     else

  009a8	ea000014	 b           |$LN1@AckSDIOInt|
  009ac		 |$LN2@AckSDIOInt|

; 490  :     {
; 491  :         EnterCriticalSection( &m_critSec );

  009ac	e59d3018	 ldr         r3, [sp, #0x18]
  009b0	e28300b0	 add         r0, r3, #0xB0
  009b4	eb000000	 bl          EnterCriticalSection

; 492  :         SETREG32(&m_pbRegisters->MMCHS_IE,  MMCHS_IE_CIRQ);

  009b8	e59d3018	 ldr         r3, [sp, #0x18]
  009bc	e2833f57	 add         r3, r3, #0x57, 30
  009c0	e5933000	 ldr         r3, [r3]
  009c4	e2833f4d	 add         r3, r3, #0x4D, 30
  009c8	e5933000	 ldr         r3, [r3]
  009cc	e3832c01	 orr         r2, r3, #1, 24
  009d0	e59d3018	 ldr         r3, [sp, #0x18]
  009d4	e2833f57	 add         r3, r3, #0x57, 30
  009d8	e5933000	 ldr         r3, [r3]
  009dc	e2833f4d	 add         r3, r3, #0x4D, 30
  009e0	e5832000	 str         r2, [r3]

; 493  :         LeaveCriticalSection( &m_critSec );

  009e4	e59d3018	 ldr         r3, [sp, #0x18]
  009e8	e28300b0	 add         r0, r3, #0xB0
  009ec	eb000000	 bl          LeaveCriticalSection

; 494  :         m_fSDIOInterruptInService = FALSE;

  009f0	e59d3018	 ldr         r3, [sp, #0x18]
  009f4	e28320d8	 add         r2, r3, #0xD8
  009f8	e3a03000	 mov         r3, #0
  009fc	e5823000	 str         r3, [r2]
  00a00		 |$LN1@AckSDIOInt|

; 495  :     }
; 496  : }

  00a00	e28dd010	 add         sp, sp, #0x10
  00a04	e89d6000	 ldmia       sp, {sp, lr}
  00a08	e12fff1e	 bx          lr
  00a0c		 |$LN12@AckSDIOInt|
  00a0c		 |$LN13@AckSDIOInt|
  00a0c	00000000	 DCD         |??_C@_1DM@MAMLMBJK@?$AAC?$AAS?$AAD?$AAH?$AAC?$AAS?$AAl?$AAo?$AAt?$AA?3?$AA?3?$AAA?$AAc?$AAk?$AAS?$AAD?$AAI?$AAO?$AAI?$AAn?$AAt?$AAe?$AAr?$AAr?$AAu?$AAp?$AAt?$AA?$AN?$AA?6?$AA?$AA@|
  00a10		 |$LN14@AckSDIOInt|
  00a10	00000000	 DCD         |dpCurSettings|
  00a14		 |$LN15@AckSDIOInt|
  00a14	00000000	 DCD         |??_C@_1FK@FNONLNGN@?$AA?$CF?$AAs?$AA?3?$AA?5?$AAD?$AAE?$AAB?$AAU?$AAG?$AAC?$AAH?$AAK?$AA?5?$AAf?$AAa?$AAi?$AAl?$AAe?$AAd?$AA?5?$AAi?$AAn?$AA?5?$AAf?$AAi?$AAl?$AAe?$AA?5?$AA?$CF?$AAs?$AA?5?$AAa@|
  00a18		 |$LN16@AckSDIOInt|
  00a18	00000000	 DCD         |??_C@_1BA@LEPJIIOK@?$AAU?$AAn?$AAk?$AAn?$AAo?$AAw?$AAn?$AA?$AA@|
  00a1c		 |$LN17@AckSDIOInt|
  00a1c	00000000	 DCD         |??_C@_1KA@CLLCPJCJ@?$AAC?$AA?3?$AA?2?$AAW?$AAI?$AAN?$AAC?$AAE?$AA6?$AA0?$AA0?$AA?2?$AAP?$AAL?$AAA?$AAT?$AAF?$AAO?$AAR?$AAM?$AA?2?$AAC?$AAO?$AAM?$AAM?$AAO?$AAN?$AA?2?$AAS?$AAR?$AAC?$AA?2@|
  00a20		 |$M45152|

			 ENDP  ; |?AckSDIOInterrupt@CSDIOControllerBase@@QAAXXZ|, CSDIOControllerBase::AckSDIOInterrupt


  00000			 AREA	 |.pdata|, PDATA
|$T45166| DCD	|$LN5@Read_MMC_S|
	DCD	0x40001604
; Function compile flags: /Odtp

  00000			 AREA	 |.text|, CODE, ARM

  00000		 |?Read_MMC_STAT@CSDIOControllerBase@@QAAKXZ| PROC ; CSDIOControllerBase::Read_MMC_STAT

; 330  : {

  00000		 |$LN5@Read_MMC_S|
  00000	e1a0c00d	 mov         r12, sp
  00004	e92d0001	 stmdb       sp!, {r0}
  00008	e92d5000	 stmdb       sp!, {r12, lr}
  0000c	e24dd008	 sub         sp, sp, #8
  00010		 |$M45163|

; 331  :     DWORD dwVal;
; 332  :     EnterCriticalSection( &m_critSec );

  00010	e59d3010	 ldr         r3, [sp, #0x10]
  00014	e28300b0	 add         r0, r3, #0xB0
  00018	eb000000	 bl          EnterCriticalSection

; 333  :     dwVal = INREG32(&m_pbRegisters->MMCHS_STAT);

  0001c	e59d3010	 ldr         r3, [sp, #0x10]
  00020	e2833f57	 add         r3, r3, #0x57, 30
  00024	e5933000	 ldr         r3, [r3]
  00028	e2833e13	 add         r3, r3, #0x13, 28
  0002c	e5933000	 ldr         r3, [r3]
  00030	e58d3000	 str         r3, [sp]

; 334  :     LeaveCriticalSection( &m_critSec );

  00034	e59d3010	 ldr         r3, [sp, #0x10]
  00038	e28300b0	 add         r0, r3, #0xB0
  0003c	eb000000	 bl          LeaveCriticalSection

; 335  :     return dwVal;

  00040	e59d3000	 ldr         r3, [sp]
  00044	e58d3004	 str         r3, [sp, #4]

; 336  : }

  00048	e59d0004	 ldr         r0, [sp, #4]
  0004c	e28dd008	 add         sp, sp, #8
  00050	e89d6000	 ldmia       sp, {sp, lr}
  00054	e12fff1e	 bx          lr
  00058		 |$M45164|

			 ENDP  ; |?Read_MMC_STAT@CSDIOControllerBase@@QAAKXZ|, CSDIOControllerBase::Read_MMC_STAT


  00000			 AREA	 |.pdata|, PDATA
|$T45173| DCD	|$LN5@Set_MMC_ST|
	DCD	0x40001103
; Function compile flags: /Odtp

  00000			 AREA	 |.text|, CODE, ARM

  00000		 |?Set_MMC_STAT@CSDIOControllerBase@@QAAXK@Z| PROC ; CSDIOControllerBase::Set_MMC_STAT

; 348  : {

  00000		 |$LN5@Set_MMC_ST|
  00000	e1a0c00d	 mov         r12, sp
  00004	e92d0003	 stmdb       sp!, {r0, r1}
  00008	e92d5000	 stmdb       sp!, {r12, lr}
  0000c		 |$M45170|

; 349  :     EnterCriticalSection( &m_critSec );

  0000c	e59d3008	 ldr         r3, [sp, #8]
  00010	e28300b0	 add         r0, r3, #0xB0
  00014	eb000000	 bl          EnterCriticalSection

; 350  :     OUTREG32(&m_pbRegisters->MMCHS_STAT, dwVal);

  00018	e59d3008	 ldr         r3, [sp, #8]
  0001c	e2833f57	 add         r3, r3, #0x57, 30
  00020	e5933000	 ldr         r3, [r3]
  00024	e2832e13	 add         r2, r3, #0x13, 28
  00028	e59d300c	 ldr         r3, [sp, #0xC]
  0002c	e5823000	 str         r3, [r2]

; 351  :     LeaveCriticalSection( &m_critSec );

  00030	e59d3008	 ldr         r3, [sp, #8]
  00034	e28300b0	 add         r0, r3, #0xB0
  00038	eb000000	 bl          LeaveCriticalSection

; 352  : }

  0003c	e89d6000	 ldmia       sp, {sp, lr}
  00040	e12fff1e	 bx          lr
  00044		 |$M45171|

			 ENDP  ; |?Set_MMC_STAT@CSDIOControllerBase@@QAAXK@Z|, CSDIOControllerBase::Set_MMC_STAT

	EXPORT	|??_C@_1EG@ODHEMBHO@?$AAC?$AAS?$AAD?$AAH?$AAC?$AAS?$AAl?$AAo?$AAt?$AA?3?$AA?3?$AAD?$AAi?$AAs?$AAa?$AAb?$AAl?$AAe?$AAS?$AAD?$AAI?$AAO?$AAI?$AAn?$AAt?$AAe?$AAr?$AAr?$AAu?$AAp?$AAt?$AAs@| [ DATA ] ; `string'
	EXPORT	|?DisableSDIOInterrupts@CSDIOControllerBase@@QAAXXZ| ; CSDIOControllerBase::DisableSDIOInterrupts

  00040			 AREA	 |.pdata|, PDATA
|$T45184| DCD	|$LN9@DisableSDI|
	DCD	0x40004e04

  00000			 AREA	 |.rdata|, DATA, READONLY
|??_C@_1EG@ODHEMBHO@?$AAC?$AAS?$AAD?$AAH?$AAC?$AAS?$AAl?$AAo?$AAt?$AA?3?$AA?3?$AAD?$AAi?$AAs?$AAa?$AAb?$AAl?$AAe?$AAS?$AAD?$AAI?$AAO?$AAI?$AAn?$AAt?$AAe?$AAr?$AAr?$AAu?$AAp?$AAt?$AAs@| DCB "C"
	DCB	0x0, "S", 0x0, "D", 0x0, "H", 0x0, "C", 0x0, "S", 0x0, "l"
	DCB	0x0, "o", 0x0, "t", 0x0, ":", 0x0, ":", 0x0, "D", 0x0, "i"
	DCB	0x0, "s", 0x0, "a", 0x0, "b", 0x0, "l", 0x0, "e", 0x0, "S"
	DCB	0x0, "D", 0x0, "I", 0x0, "O", 0x0, "I", 0x0, "n", 0x0, "t"
	DCB	0x0, "e", 0x0, "r", 0x0, "r", 0x0, "u", 0x0, "p", 0x0, "t"
	DCB	0x0, "s", 0x0, 0xd, 0x0, 0xa, 0x0, 0x0, 0x0 ; `string'
; Function compile flags: /Odtp

  00a20			 AREA	 |.text|, CODE, ARM

  00a20		 |?DisableSDIOInterrupts@CSDIOControllerBase@@QAAXXZ| PROC ; CSDIOControllerBase::DisableSDIOInterrupts

; 501  : {

  00a20		 |$LN9@DisableSDI|
  00a20	e1a0c00d	 mov         r12, sp
  00a24	e92d0001	 stmdb       sp!, {r0}
  00a28	e92d5000	 stmdb       sp!, {r12, lr}
  00a2c	e24dd008	 sub         sp, sp, #8
  00a30		 |$M45181|

; 502  :     ASSERT( m_fSDIOInterruptsEnabled );

  00a30	e59d3010	 ldr         r3, [sp, #0x10]
  00a34	e28330f4	 add         r3, r3, #0xF4
  00a38	e5933000	 ldr         r3, [r3]
  00a3c	e3530000	 cmp         r3, #0
  00a40	0a000002	 beq         |$LN3@DisableSDI|
  00a44	e3a03001	 mov         r3, #1
  00a48	e58d3000	 str         r3, [sp]
  00a4c	ea000008	 b           |$LN4@DisableSDI|
  00a50		 |$LN3@DisableSDI|
  00a50	e3a03c01	 mov         r3, #1, 24
  00a54	e38330f6	 orr         r3, r3, #0xF6
  00a58	e59f20f4	 ldr         r2, [pc, #0xF4]
  00a5c	e59f10ec	 ldr         r1, [pc, #0xEC]
  00a60	e59f00e4	 ldr         r0, [pc, #0xE4]
  00a64	eb000000	 bl          NKDbgPrintfW
  00a68	e6000010	 __debugbreak_ce
  00a6c	e3a03000	 mov         r3, #0
  00a70	e58d3000	 str         r3, [sp]
  00a74		 |$LN4@DisableSDI|

; 503  :     m_fSDIOInterruptsEnabled = FALSE;

  00a74	e59d3010	 ldr         r3, [sp, #0x10]
  00a78	e28320f4	 add         r2, r3, #0xF4
  00a7c	e3a03000	 mov         r3, #0
  00a80	e5823000	 str         r3, [r2]

; 504  : 
; 505  :     DEBUGMSG(SHC_INTERRUPT_ZONE, (TEXT("CSDHCSlot::DisableSDIOInterrupts\r\n")));

  00a84	e59f30bc	 ldr         r3, [pc, #0xBC]
  00a88	e5933440	 ldr         r3, [r3, #0x440]
  00a8c	e3130001	 tst         r3, #1
  00a90	0a000004	 beq         |$LN5@DisableSDI|
  00a94	e59f00a8	 ldr         r0, [pc, #0xA8]
  00a98	eb000000	 bl          NKDbgPrintfW
  00a9c	e3a03001	 mov         r3, #1
  00aa0	e58d3004	 str         r3, [sp, #4]
  00aa4	ea000001	 b           |$LN6@DisableSDI|
  00aa8		 |$LN5@DisableSDI|
  00aa8	e3a03000	 mov         r3, #0
  00aac	e58d3004	 str         r3, [sp, #4]
  00ab0		 |$LN6@DisableSDI|

; 506  : #ifdef ENABLE_RETAIL_OUTPUT
; 507  :         RETAILMSG(1, (TEXT("CSDHCSlot::DisableSDIOInterrupts\r\n")));
; 508  : #endif
; 509  :     EnterCriticalSection( &m_critSec );

  00ab0	e59d3010	 ldr         r3, [sp, #0x10]
  00ab4	e28300b0	 add         r0, r3, #0xB0
  00ab8	eb000000	 bl          EnterCriticalSection

; 510  :     CLRREG32(&m_pbRegisters->MMCHS_ISE, MMCHS_ISE_CIRQ);

  00abc	e59d3010	 ldr         r3, [sp, #0x10]
  00ac0	e2833f57	 add         r3, r3, #0x57, 30
  00ac4	e5933000	 ldr         r3, [r3]
  00ac8	e2833f4e	 add         r3, r3, #0x4E, 30
  00acc	e5932000	 ldr         r2, [r3]
  00ad0	e3e03c01	 mvn         r3, #1, 24
  00ad4	e0022003	 and         r2, r2, r3
  00ad8	e59d3010	 ldr         r3, [sp, #0x10]
  00adc	e2833f57	 add         r3, r3, #0x57, 30
  00ae0	e5933000	 ldr         r3, [r3]
  00ae4	e2833f4e	 add         r3, r3, #0x4E, 30
  00ae8	e5832000	 str         r2, [r3]

; 511  :     CLRREG32(&m_pbRegisters->MMCHS_IE,  MMCHS_IE_CIRQ);

  00aec	e59d3010	 ldr         r3, [sp, #0x10]
  00af0	e2833f57	 add         r3, r3, #0x57, 30
  00af4	e5933000	 ldr         r3, [r3]
  00af8	e2833f4d	 add         r3, r3, #0x4D, 30
  00afc	e5932000	 ldr         r2, [r3]
  00b00	e3e03c01	 mvn         r3, #1, 24
  00b04	e0022003	 and         r2, r2, r3
  00b08	e59d3010	 ldr         r3, [sp, #0x10]
  00b0c	e2833f57	 add         r3, r3, #0x57, 30
  00b10	e5933000	 ldr         r3, [r3]
  00b14	e2833f4d	 add         r3, r3, #0x4D, 30
  00b18	e5832000	 str         r2, [r3]

; 512  :     m_sContext.eSDHCIntr = SDHC_INTR_DISABLED;

  00b1c	e59d3010	 ldr         r3, [sp, #0x10]
  00b20	e2832f81	 add         r2, r3, #0x81, 30
  00b24	e3a03000	 mov         r3, #0
  00b28	e5823000	 str         r3, [r2]

; 513  :     LeaveCriticalSection( &m_critSec );

  00b2c	e59d3010	 ldr         r3, [sp, #0x10]
  00b30	e28300b0	 add         r0, r3, #0xB0
  00b34	eb000000	 bl          LeaveCriticalSection

; 514  : }

  00b38	e28dd008	 add         sp, sp, #8
  00b3c	e89d6000	 ldmia       sp, {sp, lr}
  00b40	e12fff1e	 bx          lr
  00b44		 |$LN10@DisableSDI|
  00b44		 |$LN11@DisableSDI|
  00b44	00000000	 DCD         |??_C@_1EG@ODHEMBHO@?$AAC?$AAS?$AAD?$AAH?$AAC?$AAS?$AAl?$AAo?$AAt?$AA?3?$AA?3?$AAD?$AAi?$AAs?$AAa?$AAb?$AAl?$AAe?$AAS?$AAD?$AAI?$AAO?$AAI?$AAn?$AAt?$AAe?$AAr?$AAr?$AAu?$AAp?$AAt?$AAs@|
  00b48		 |$LN12@DisableSDI|
  00b48	00000000	 DCD         |dpCurSettings|
  00b4c		 |$LN13@DisableSDI|
  00b4c	00000000	 DCD         |??_C@_1FK@FNONLNGN@?$AA?$CF?$AAs?$AA?3?$AA?5?$AAD?$AAE?$AAB?$AAU?$AAG?$AAC?$AAH?$AAK?$AA?5?$AAf?$AAa?$AAi?$AAl?$AAe?$AAd?$AA?5?$AAi?$AAn?$AA?5?$AAf?$AAi?$AAl?$AAe?$AA?5?$AA?$CF?$AAs?$AA?5?$AAa@|
  00b50		 |$LN14@DisableSDI|
  00b50	00000000	 DCD         |??_C@_1BA@LEPJIIOK@?$AAU?$AAn?$AAk?$AAn?$AAo?$AAw?$AAn?$AA?$AA@|
  00b54		 |$LN15@DisableSDI|
  00b54	00000000	 DCD         |??_C@_1KA@CLLCPJCJ@?$AAC?$AA?3?$AA?2?$AAW?$AAI?$AAN?$AAC?$AAE?$AA6?$AA0?$AA0?$AA?2?$AAP?$AAL?$AAA?$AAT?$AAF?$AAO?$AAR?$AAM?$AA?2?$AAC?$AAO?$AAM?$AAM?$AAO?$AAN?$AA?2?$AAS?$AAR?$AAC?$AA?2@|
  00b58		 |$M45182|

			 ENDP  ; |?DisableSDIOInterrupts@CSDIOControllerBase@@QAAXXZ|, CSDIOControllerBase::DisableSDIOInterrupts

	EXPORT	|??_C@_1HM@OPPOLJBB@?$AAS?$AAD?$AAH?$AAC?$AAS?$AAe?$AAt?$AAR?$AAa?$AAt?$AAe?$AA?5?$AA?9?$AA?5?$AAA?$AAc?$AAt?$AAu?$AAa?$AAl?$AA?5?$AAc?$AAl?$AAo?$AAc?$AAk?$AA?5?$AAr?$AAa?$AAt?$AAe?$AA?5@| [ DATA ] ; `string'
	EXPORT	|??_C@_1CE@OGFECBHL@?$AAd?$AAw?$AAD?$AAi?$AAv?$AA?5?$AA?$DN?$AA?5?$AA0?$AAx?$AA?$CF?$AAx?$AA?5?$AA0?$AAx?$AA?$CF?$AAx?$AA?$AA@| [ DATA ] ; `string'
	EXPORT	|??_C@_1EG@EMNPHMF@?$AAa?$AAc?$AAt?$AAu?$AAa?$AAl?$AA?5?$AAw?$AAD?$AAi?$AAv?$AA?5?$AA?$DN?$AA?5?$AA0?$AAx?$AA?$CF?$AAx?$AA?5?$AA?5?$AAr?$AAe?$AAq?$AAu?$AAe?$AAs?$AAt?$AAe?$AAd?$AA?3?$AA0?$AAx@| [ DATA ] ; `string'
	IMPORT	|__rt_udiv|

  00048			 AREA	 |.pdata|, PDATA
|$T45202| DCD	|$LN17@SetClockRa|
	DCD	0x4000d104

  00000			 AREA	 |.rdata|, DATA, READONLY
|??_C@_1HM@OPPOLJBB@?$AAS?$AAD?$AAH?$AAC?$AAS?$AAe?$AAt?$AAR?$AAa?$AAt?$AAe?$AA?5?$AA?9?$AA?5?$AAA?$AAc?$AAt?$AAu?$AAa?$AAl?$AA?5?$AAc?$AAl?$AAo?$AAc?$AAk?$AA?5?$AAr?$AAa?$AAt?$AAe?$AA?5@| DCB "S"
	DCB	0x0, "D", 0x0, "H", 0x0, "C", 0x0, "S", 0x0, "e", 0x0, "t"
	DCB	0x0, "R", 0x0, "a", 0x0, "t", 0x0, "e", 0x0, " ", 0x0, "-"
	DCB	0x0, " ", 0x0, "A", 0x0, "c", 0x0, "t", 0x0, "u", 0x0, "a"
	DCB	0x0, "l", 0x0, " ", 0x0, "c", 0x0, "l", 0x0, "o", 0x0, "c"
	DCB	0x0, "k", 0x0, " ", 0x0, "r", 0x0, "a", 0x0, "t", 0x0, "e"
	DCB	0x0, " ", 0x0, "=", 0x0, " ", 0x0, "0", 0x0, "x", 0x0, "%"
	DCB	0x0, "x", 0x0, ",", 0x0, " ", 0x0, "M", 0x0, "M", 0x0, "C"
	DCB	0x0, "H", 0x0, "S", 0x0, "_", 0x0, "S", 0x0, "Y", 0x0, "S"
	DCB	0x0, "C", 0x0, "T", 0x0, "L", 0x0, " ", 0x0, "=", 0x0, " "
	DCB	0x0, "0", 0x0, "x", 0x0, "%", 0x0, "x", 0x0, 0xd, 0x0, 0xa
	DCB	0x0, 0x0, 0x0				; `string'

  00000			 AREA	 |.rdata|, DATA, READONLY
|??_C@_1CE@OGFECBHL@?$AAd?$AAw?$AAD?$AAi?$AAv?$AA?5?$AA?$DN?$AA?5?$AA0?$AAx?$AA?$CF?$AAx?$AA?5?$AA0?$AAx?$AA?$CF?$AAx?$AA?$AA@| DCB "d"
	DCB	0x0, "w", 0x0, "D", 0x0, "i", 0x0, "v", 0x0, " ", 0x0, "="
	DCB	0x0, " ", 0x0, "0", 0x0, "x", 0x0, "%", 0x0, "x", 0x0, " "
	DCB	0x0, "0", 0x0, "x", 0x0, "%", 0x0, "x", 0x0, 0x0, 0x0 ; `string'

  00000			 AREA	 |.rdata|, DATA, READONLY
|??_C@_1EG@EMNPHMF@?$AAa?$AAc?$AAt?$AAu?$AAa?$AAl?$AA?5?$AAw?$AAD?$AAi?$AAv?$AA?5?$AA?$DN?$AA?5?$AA0?$AAx?$AA?$CF?$AAx?$AA?5?$AA?5?$AAr?$AAe?$AAq?$AAu?$AAe?$AAs?$AAt?$AAe?$AAd?$AA?3?$AA0?$AAx@| DCB "a"
	DCB	0x0, "c", 0x0, "t", 0x0, "u", 0x0, "a", 0x0, "l", 0x0, " "
	DCB	0x0, "w", 0x0, "D", 0x0, "i", 0x0, "v", 0x0, " ", 0x0, "="
	DCB	0x0, " ", 0x0, "0", 0x0, "x", 0x0, "%", 0x0, "x", 0x0, " "
	DCB	0x0, " ", 0x0, "r", 0x0, "e", 0x0, "q", 0x0, "u", 0x0, "e"
	DCB	0x0, "s", 0x0, "t", 0x0, "e", 0x0, "d", 0x0, ":", 0x0, "0"
	DCB	0x0, "x", 0x0, "%", 0x0, "x", 0x0, 0x0, 0x0 ; `string'
; Function compile flags: /Odtp

  00b58			 AREA	 |.text|, CODE, ARM

  00b58		 |?SetClockRate@CSDIOControllerBase@@QAAXPAK@Z| PROC ; CSDIOControllerBase::SetClockRate

; 519  : {

  00b58		 |$LN17@SetClockRa|
  00b58	e1a0c00d	 mov         r12, sp
  00b5c	e92d0003	 stmdb       sp!, {r0, r1}
  00b60	e92d5000	 stmdb       sp!, {r12, lr}
  00b64	e24dd01c	 sub         sp, sp, #0x1C
  00b68		 |$M45199|

; 520  :     DWORD dwClockRate = *pdwRate;

  00b68	e59d3028	 ldr         r3, [sp, #0x28]
  00b6c	e5933000	 ldr         r3, [r3]
  00b70	e58d3004	 str         r3, [sp, #4]

; 521  : 
; 522  :     if(dwClockRate > m_dwMaxClockRate) dwClockRate = m_dwMaxClockRate;

  00b74	e59d3024	 ldr         r3, [sp, #0x24]
  00b78	e2833f52	 add         r3, r3, #0x52, 30
  00b7c	e59d2004	 ldr         r2, [sp, #4]
  00b80	e5933000	 ldr         r3, [r3]
  00b84	e1520003	 cmp         r2, r3
  00b88	9a000003	 bls         |$LN6@SetClockRa|
  00b8c	e59d3024	 ldr         r3, [sp, #0x24]
  00b90	e2833f52	 add         r3, r3, #0x52, 30
  00b94	e5933000	 ldr         r3, [r3]
  00b98	e58d3004	 str         r3, [sp, #4]
  00b9c		 |$LN6@SetClockRa|

; 523  : 
; 524  :     // calculate the register value
; 525  :     DWORD dwDiv = (DWORD)((MMCSD_CLOCK_INPUT + dwClockRate - 1) / dwClockRate);

  00b9c	e59d2004	 ldr         r2, [sp, #4]
  00ba0	e59f32e8	 ldr         r3, [pc, #0x2E8]
  00ba4	e0823003	 add         r3, r2, r3
  00ba8	e2431001	 sub         r1, r3, #1
  00bac	e59d0004	 ldr         r0, [sp, #4]
  00bb0	eb000000	 bl          __rt_udiv
  00bb4	e58d0000	 str         r0, [sp]

; 526  : 
; 527  :     DEBUGMSG(SHC_CLOCK_ZONE, (TEXT("actual wDiv = 0x%x  requested:0x%x"), dwDiv, *pdwRate));

  00bb8	e59f32cc	 ldr         r3, [pc, #0x2CC]
  00bbc	e5933440	 ldr         r3, [r3, #0x440]
  00bc0	e3130010	 tst         r3, #0x10
  00bc4	0a000007	 beq         |$LN9@SetClockRa|
  00bc8	e59d3028	 ldr         r3, [sp, #0x28]
  00bcc	e5932000	 ldr         r2, [r3]
  00bd0	e59d1000	 ldr         r1, [sp]
  00bd4	e59f02bc	 ldr         r0, [pc, #0x2BC]
  00bd8	eb000000	 bl          NKDbgPrintfW
  00bdc	e3a03001	 mov         r3, #1
  00be0	e58d3010	 str         r3, [sp, #0x10]
  00be4	ea000001	 b           |$LN10@SetClockRa|
  00be8		 |$LN9@SetClockRa|
  00be8	e3a03000	 mov         r3, #0
  00bec	e58d3010	 str         r3, [sp, #0x10]
  00bf0		 |$LN10@SetClockRa|

; 528  :     // Only 10 bits available for the divider, so mmc base clock / 1024 is minimum.
; 529  :     if ( dwDiv > 0x03FF )

  00bf0	e59d2000	 ldr         r2, [sp]
  00bf4	e3a03c03	 mov         r3, #3, 24
  00bf8	e38330ff	 orr         r3, r3, #0xFF
  00bfc	e1520003	 cmp         r2, r3
  00c00	9a000002	 bls         |$LN5@SetClockRa|

; 530  :         dwDiv = 0x03FF;

  00c04	e3a03c03	 mov         r3, #3, 24
  00c08	e38330ff	 orr         r3, r3, #0xFF
  00c0c	e58d3000	 str         r3, [sp]
  00c10		 |$LN5@SetClockRa|

; 531  : 
; 532  :     DEBUGMSG(SHC_CLOCK_ZONE, (TEXT("dwDiv = 0x%x 0x%x"), dwDiv, *pdwRate));

  00c10	e59f3274	 ldr         r3, [pc, #0x274]
  00c14	e5933440	 ldr         r3, [r3, #0x440]
  00c18	e3130010	 tst         r3, #0x10
  00c1c	0a000007	 beq         |$LN11@SetClockRa|
  00c20	e59d3028	 ldr         r3, [sp, #0x28]
  00c24	e5932000	 ldr         r2, [r3]
  00c28	e59d1000	 ldr         r1, [sp]
  00c2c	e59f0260	 ldr         r0, [pc, #0x260]
  00c30	eb000000	 bl          NKDbgPrintfW
  00c34	e3a03001	 mov         r3, #1
  00c38	e58d3014	 str         r3, [sp, #0x14]
  00c3c	ea000001	 b           |$LN12@SetClockRa|
  00c40		 |$LN11@SetClockRa|
  00c40	e3a03000	 mov         r3, #0
  00c44	e58d3014	 str         r3, [sp, #0x14]
  00c48		 |$LN12@SetClockRa|

; 533  : 
; 534  :     // Program the divisor, but leave the rest of the register alone.
; 535  :     INT32 dwRegValue = INREG32(&m_pbRegisters->MMCHS_SYSCTL);

  00c48	e59d3024	 ldr         r3, [sp, #0x24]
  00c4c	e2833f57	 add         r3, r3, #0x57, 30
  00c50	e5933000	 ldr         r3, [r3]
  00c54	e2833f4b	 add         r3, r3, #0x4B, 30
  00c58	e5933000	 ldr         r3, [r3]
  00c5c	e58d3008	 str         r3, [sp, #8]

; 536  : 
; 537  :     dwRegValue = (dwRegValue & ~MMCHS_SYSCTL_CLKD_MASK) | MMCHS_SYSCTL_CLKD(dwDiv);

  00c60	e59d2008	 ldr         r2, [sp, #8]
  00c64	e3e03cff	 mvn         r3, #0xFF, 24
  00c68	e22330c0	 eor         r3, r3, #0xC0
  00c6c	e0022003	 and         r2, r2, r3
  00c70	e59d3000	 ldr         r3, [sp]
  00c74	e1a03303	 mov         r3, r3, lsl #6
  00c78	e1823003	 orr         r3, r2, r3
  00c7c	e58d3008	 str         r3, [sp, #8]

; 538  :     dwRegValue = (dwRegValue & ~MMCHS_SYSCTL_DTO_MASK) | MMCHS_SYSCTL_DTO(0x0e); // DTO

  00c80	e59d2008	 ldr         r2, [sp, #8]
  00c84	e3e0380f	 mvn         r3, #0xF, 16
  00c88	e0023003	 and         r3, r2, r3
  00c8c	e383380e	 orr         r3, r3, #0xE, 16
  00c90	e58d3008	 str         r3, [sp, #8]

; 539  :     dwRegValue &= ~MMCHS_SYSCTL_CEN;

  00c94	e59d2008	 ldr         r2, [sp, #8]
  00c98	e3e03004	 mvn         r3, #4
  00c9c	e0023003	 and         r3, r2, r3
  00ca0	e58d3008	 str         r3, [sp, #8]

; 540  :     dwRegValue &= ~MMCHS_SYSCTL_ICE;

  00ca4	e59d2008	 ldr         r2, [sp, #8]
  00ca8	e3e03001	 mvn         r3, #1
  00cac	e0023003	 and         r3, r2, r3
  00cb0	e58d3008	 str         r3, [sp, #8]

; 541  : 
; 542  :     CLRREG32(&m_pbRegisters->MMCHS_SYSCTL, MMCHS_SYSCTL_CEN);

  00cb4	e59d3024	 ldr         r3, [sp, #0x24]
  00cb8	e2833f57	 add         r3, r3, #0x57, 30
  00cbc	e5933000	 ldr         r3, [r3]
  00cc0	e2833f4b	 add         r3, r3, #0x4B, 30
  00cc4	e5932000	 ldr         r2, [r3]
  00cc8	e3e03004	 mvn         r3, #4
  00ccc	e0022003	 and         r2, r2, r3
  00cd0	e59d3024	 ldr         r3, [sp, #0x24]
  00cd4	e2833f57	 add         r3, r3, #0x57, 30
  00cd8	e5933000	 ldr         r3, [r3]
  00cdc	e2833f4b	 add         r3, r3, #0x4B, 30
  00ce0	e5832000	 str         r2, [r3]

; 543  : 
; 544  :     OUTREG32(&m_pbRegisters->MMCHS_SYSCTL, dwRegValue);

  00ce4	e59d3024	 ldr         r3, [sp, #0x24]
  00ce8	e2833f57	 add         r3, r3, #0x57, 30
  00cec	e5933000	 ldr         r3, [r3]
  00cf0	e2832f4b	 add         r2, r3, #0x4B, 30
  00cf4	e59d3008	 ldr         r3, [sp, #8]
  00cf8	e5823000	 str         r3, [r2]

; 545  : 
; 546  :     SETREG32(&m_pbRegisters->MMCHS_SYSCTL, MMCHS_SYSCTL_ICE); // enable internal clock

  00cfc	e59d3024	 ldr         r3, [sp, #0x24]
  00d00	e2833f57	 add         r3, r3, #0x57, 30
  00d04	e5933000	 ldr         r3, [r3]
  00d08	e2833f4b	 add         r3, r3, #0x4B, 30
  00d0c	e5933000	 ldr         r3, [r3]
  00d10	e3832001	 orr         r2, r3, #1
  00d14	e59d3024	 ldr         r3, [sp, #0x24]
  00d18	e2833f57	 add         r3, r3, #0x57, 30
  00d1c	e5933000	 ldr         r3, [r3]
  00d20	e2833f4b	 add         r3, r3, #0x4B, 30
  00d24	e5832000	 str         r2, [r3]

; 547  : 
; 548  :     DWORD dwTimeout = 500;

  00d28	e3a03f7d	 mov         r3, #0x7D, 30
  00d2c	e58d300c	 str         r3, [sp, #0xC]
  00d30		 |$LN4@SetClockRa|

; 549  :     while(((INREG32(&m_pbRegisters->MMCHS_SYSCTL) & MMCHS_SYSCTL_ICS) != MMCHS_SYSCTL_ICS) && (dwTimeout>0))

  00d30	e59d3024	 ldr         r3, [sp, #0x24]
  00d34	e2833f57	 add         r3, r3, #0x57, 30
  00d38	e5933000	 ldr         r3, [r3]
  00d3c	e2833f4b	 add         r3, r3, #0x4B, 30
  00d40	e5933000	 ldr         r3, [r3]
  00d44	e2033002	 and         r3, r3, #2
  00d48	e3530002	 cmp         r3, #2
  00d4c	0a000006	 beq         |$LN3@SetClockRa|
  00d50	e59d300c	 ldr         r3, [sp, #0xC]
  00d54	e3530000	 cmp         r3, #0
  00d58	9a000003	 bls         |$LN3@SetClockRa|

; 550  :     {
; 551  :         dwTimeout--;

  00d5c	e59d300c	 ldr         r3, [sp, #0xC]
  00d60	e2433001	 sub         r3, r3, #1
  00d64	e58d300c	 str         r3, [sp, #0xC]

; 552  :     }

  00d68	eafffff0	 b           |$LN4@SetClockRa|
  00d6c		 |$LN3@SetClockRa|

; 553  : 
; 554  :     SETREG32(&m_pbRegisters->MMCHS_SYSCTL, MMCHS_SYSCTL_CEN);

  00d6c	e59d3024	 ldr         r3, [sp, #0x24]
  00d70	e2833f57	 add         r3, r3, #0x57, 30
  00d74	e5933000	 ldr         r3, [r3]
  00d78	e2833f4b	 add         r3, r3, #0x4B, 30
  00d7c	e5933000	 ldr         r3, [r3]
  00d80	e3832004	 orr         r2, r3, #4
  00d84	e59d3024	 ldr         r3, [sp, #0x24]
  00d88	e2833f57	 add         r3, r3, #0x57, 30
  00d8c	e5933000	 ldr         r3, [r3]
  00d90	e2833f4b	 add         r3, r3, #0x4B, 30
  00d94	e5832000	 str         r2, [r3]

; 555  :     SETREG32(&m_pbRegisters->MMCHS_HCTL, MMCHS_HCTL_SDBP); // power up the card

  00d98	e59d3024	 ldr         r3, [sp, #0x24]
  00d9c	e2833f57	 add         r3, r3, #0x57, 30
  00da0	e5933000	 ldr         r3, [r3]
  00da4	e2833f4a	 add         r3, r3, #0x4A, 30
  00da8	e5933000	 ldr         r3, [r3]
  00dac	e3832c01	 orr         r2, r3, #1, 24
  00db0	e59d3024	 ldr         r3, [sp, #0x24]
  00db4	e2833f57	 add         r3, r3, #0x57, 30
  00db8	e5933000	 ldr         r3, [r3]
  00dbc	e2833f4a	 add         r3, r3, #0x4A, 30
  00dc0	e5832000	 str         r2, [r3]

; 556  : 
; 557  :     dwTimeout = 500;

  00dc4	e3a03f7d	 mov         r3, #0x7D, 30
  00dc8	e58d300c	 str         r3, [sp, #0xC]
  00dcc		 |$LN2@SetClockRa|

; 558  :     while(((INREG32(&m_pbRegisters->MMCHS_SYSCTL) & MMCHS_SYSCTL_CEN) != MMCHS_SYSCTL_CEN) && (dwTimeout>0))

  00dcc	e59d3024	 ldr         r3, [sp, #0x24]
  00dd0	e2833f57	 add         r3, r3, #0x57, 30
  00dd4	e5933000	 ldr         r3, [r3]
  00dd8	e2833f4b	 add         r3, r3, #0x4B, 30
  00ddc	e5933000	 ldr         r3, [r3]
  00de0	e2033004	 and         r3, r3, #4
  00de4	e3530004	 cmp         r3, #4
  00de8	0a000006	 beq         |$LN1@SetClockRa|
  00dec	e59d300c	 ldr         r3, [sp, #0xC]
  00df0	e3530000	 cmp         r3, #0
  00df4	9a000003	 bls         |$LN1@SetClockRa|

; 559  :     {
; 560  :         dwTimeout--;

  00df8	e59d300c	 ldr         r3, [sp, #0xC]
  00dfc	e2433001	 sub         r3, r3, #1
  00e00	e58d300c	 str         r3, [sp, #0xC]

; 561  :     }

  00e04	eafffff0	 b           |$LN2@SetClockRa|
  00e08		 |$LN1@SetClockRa|

; 562  : 
; 563  :     *pdwRate = MMCSD_CLOCK_INPUT / dwDiv;

  00e08	e59d0000	 ldr         r0, [sp]
  00e0c	e59f107c	 ldr         r1, [pc, #0x7C]
  00e10	eb000000	 bl          __rt_udiv
  00e14	e59d3028	 ldr         r3, [sp, #0x28]
  00e18	e5830000	 str         r0, [r3]

; 564  :     m_sContext.dwClockRate = MMCSD_CLOCK_INPUT / dwDiv;

  00e1c	e59d0000	 ldr         r0, [sp]
  00e20	e59f1068	 ldr         r1, [pc, #0x68]
  00e24	eb000000	 bl          __rt_udiv
  00e28	e59d3024	 ldr         r3, [sp, #0x24]
  00e2c	e2833c02	 add         r3, r3, #2, 24
  00e30	e5830000	 str         r0, [r3]

; 565  : 
; 566  :     DEBUGMSG(SHC_CLOCK_ZONE,(TEXT("SDHCSetRate - Actual clock rate = 0x%x, MMCHS_SYSCTL = 0x%x\r\n"), *pdwRate, INREG32(&m_pbRegisters->MMCHS_SYSCTL)));

  00e34	e59f3050	 ldr         r3, [pc, #0x50]
  00e38	e5933440	 ldr         r3, [r3, #0x440]
  00e3c	e3130010	 tst         r3, #0x10
  00e40	0a00000b	 beq         |$LN13@SetClockRa|
  00e44	e59d3024	 ldr         r3, [sp, #0x24]
  00e48	e2833f57	 add         r3, r3, #0x57, 30
  00e4c	e5933000	 ldr         r3, [r3]
  00e50	e2833f4b	 add         r3, r3, #0x4B, 30
  00e54	e5932000	 ldr         r2, [r3]
  00e58	e59d3028	 ldr         r3, [sp, #0x28]
  00e5c	e5931000	 ldr         r1, [r3]
  00e60	e59f0020	 ldr         r0, [pc, #0x20]
  00e64	eb000000	 bl          NKDbgPrintfW
  00e68	e3a03001	 mov         r3, #1
  00e6c	e58d3018	 str         r3, [sp, #0x18]
  00e70	ea000001	 b           |$LN14@SetClockRa|
  00e74		 |$LN13@SetClockRa|
  00e74	e3a03000	 mov         r3, #0
  00e78	e58d3018	 str         r3, [sp, #0x18]
  00e7c		 |$LN14@SetClockRa|

; 567  :     //RETAILMSG(1,(TEXT("SDHCSetRate - Actual clock rate = %d, MMCHS_SYSCTL = 0x%x\r\n"), *pdwRate, INREG32(&m_pbRegisters->MMCHS_SYSCTL)));
; 568  : }

  00e7c	e28dd01c	 add         sp, sp, #0x1C
  00e80	e89d6000	 ldmia       sp, {sp, lr}
  00e84	e12fff1e	 bx          lr
  00e88		 |$LN18@SetClockRa|
  00e88		 |$LN19@SetClockRa|
  00e88	00000000	 DCD         |??_C@_1HM@OPPOLJBB@?$AAS?$AAD?$AAH?$AAC?$AAS?$AAe?$AAt?$AAR?$AAa?$AAt?$AAe?$AA?5?$AA?9?$AA?5?$AAA?$AAc?$AAt?$AAu?$AAa?$AAl?$AA?5?$AAc?$AAl?$AAo?$AAc?$AAk?$AA?5?$AAr?$AAa?$AAt?$AAe?$AA?5@|
  00e8c		 |$LN20@SetClockRa|
  00e8c	00000000	 DCD         |dpCurSettings|
  00e90		 |$LN21@SetClockRa|
  00e90	05b8d800	 DCD         0x5b8d800
  00e94		 |$LN22@SetClockRa|
  00e94	00000000	 DCD         |??_C@_1CE@OGFECBHL@?$AAd?$AAw?$AAD?$AAi?$AAv?$AA?5?$AA?$DN?$AA?5?$AA0?$AAx?$AA?$CF?$AAx?$AA?5?$AA0?$AAx?$AA?$CF?$AAx?$AA?$AA@|
  00e98		 |$LN23@SetClockRa|
  00e98	00000000	 DCD         |??_C@_1EG@EMNPHMF@?$AAa?$AAc?$AAt?$AAu?$AAa?$AAl?$AA?5?$AAw?$AAD?$AAi?$AAv?$AA?5?$AA?$DN?$AA?5?$AA0?$AAx?$AA?$CF?$AAx?$AA?5?$AA?5?$AAr?$AAe?$AAq?$AAu?$AAe?$AAs?$AAt?$AAe?$AAd?$AA?3?$AA0?$AAx@|
  00e9c		 |$M45200|

			 ENDP  ; |?SetClockRate@CSDIOControllerBase@@QAAXPAK@Z|, CSDIOControllerBase::SetClockRate

	EXPORT	|?IsMultipleBlockReadSupported@CSDIOControllerBase@@IAAHXZ| ; CSDIOControllerBase::IsMultipleBlockReadSupported

  00050			 AREA	 |.pdata|, PDATA
|$T45214| DCD	|$LN6@IsMultiple|
	DCD	0x40001304
; Function compile flags: /Odtp

  00e9c			 AREA	 |.text|, CODE, ARM

  00e9c		 |?IsMultipleBlockReadSupported@CSDIOControllerBase@@IAAHXZ| PROC ; CSDIOControllerBase::IsMultipleBlockReadSupported

; 571  : {

  00e9c		 |$LN6@IsMultiple|
  00e9c	e1a0c00d	 mov         r12, sp
  00ea0	e92d0001	 stmdb       sp!, {r0}
  00ea4	e92d5000	 stmdb       sp!, {r12, lr}
  00ea8	e24dd008	 sub         sp, sp, #8
  00eac		 |$M45211|

; 572  :     BOOL bVal = FALSE;//TRUE;

  00eac	e3a03000	 mov         r3, #0
  00eb0	e58d3000	 str         r3, [sp]

; 573  :     // work around for a OMAP35XX silicon issue (data CRC error on READ_MULTIPLE_BLOCK command)
; 574  :     // This is present in earley processor revisions
; 575  :     if(m_dwCPURev <= CPU_FAMILY_35XX_REVISION_ES_3_0)

  00eb4	e59d3010	 ldr         r3, [sp, #0x10]
  00eb8	e2833f5f	 add         r3, r3, #0x5F, 30
  00ebc	e5933000	 ldr         r3, [r3]
  00ec0	e3530005	 cmp         r3, #5
  00ec4	8a000001	 bhi         |$LN1@IsMultiple|

; 576  :     {
; 577  :         bVal = FALSE;

  00ec8	e3a03000	 mov         r3, #0
  00ecc	e58d3000	 str         r3, [sp]
  00ed0		 |$LN1@IsMultiple|

; 578  :     }
; 579  :     return bVal;

  00ed0	e59d3000	 ldr         r3, [sp]
  00ed4	e58d3004	 str         r3, [sp, #4]

; 580  : }

  00ed8	e59d0004	 ldr         r0, [sp, #4]
  00edc	e28dd008	 add         sp, sp, #8
  00ee0	e89d6000	 ldmia       sp, {sp, lr}
  00ee4	e12fff1e	 bx          lr
  00ee8		 |$M45212|

			 ENDP  ; |?IsMultipleBlockReadSupported@CSDIOControllerBase@@IAAHXZ|, CSDIOControllerBase::IsMultipleBlockReadSupported

	EXPORT	|??_C@_1DO@OCDBIGLO@?$AAM?$AAM?$AAC?$AA?5?$AAS?$AAl?$AAo?$AAt?$AA?5?$AAn?$AAu?$AAm?$AAb?$AAe?$AAr?$AA?5?$AAi?$AAs?$AA?5?$AAn?$AAo?$AAt?$AA?5?$AAV?$AAa?$AAl?$AAi?$AAd?$AA?$AN?$AA?6?$AA?$AA@| [ DATA ] ; `string'
	EXPORT	|?SetSDVSVoltage@CSDIOControllerBase@@QAAXXZ| ; CSDIOControllerBase::SetSDVSVoltage

  00058			 AREA	 |.pdata|, PDATA
|$T45221| DCD	|$LN27@SetSDVSVol|
	DCD	0x4000a804

  00000			 AREA	 |.rdata|, DATA, READONLY
|??_C@_1DO@OCDBIGLO@?$AAM?$AAM?$AAC?$AA?5?$AAS?$AAl?$AAo?$AAt?$AA?5?$AAn?$AAu?$AAm?$AAb?$AAe?$AAr?$AA?5?$AAi?$AAs?$AA?5?$AAn?$AAo?$AAt?$AA?5?$AAV?$AAa?$AAl?$AAi?$AAd?$AA?$AN?$AA?6?$AA?$AA@| DCB "M"
	DCB	0x0, "M", 0x0, "C", 0x0, " ", 0x0, "S", 0x0, "l", 0x0, "o"
	DCB	0x0, "t", 0x0, " ", 0x0, "n", 0x0, "u", 0x0, "m", 0x0, "b"
	DCB	0x0, "e", 0x0, "r", 0x0, " ", 0x0, "i", 0x0, "s", 0x0, " "
	DCB	0x0, "n", 0x0, "o", 0x0, "t", 0x0, " ", 0x0, "V", 0x0, "a"
	DCB	0x0, "l", 0x0, "i", 0x0, "d", 0x0, 0xd, 0x0, 0xa, 0x0, 0x0
	DCB	0x0					; `string'
; Function compile flags: /Odtp

  00ee8			 AREA	 |.text|, CODE, ARM

  00ee8		 |?SetSDVSVoltage@CSDIOControllerBase@@QAAXXZ| PROC ; CSDIOControllerBase::SetSDVSVoltage

; 585  : {

  00ee8		 |$LN27@SetSDVSVol|
  00ee8	e1a0c00d	 mov         r12, sp
  00eec	e92d0001	 stmdb       sp!, {r0}
  00ef0	e92d5000	 stmdb       sp!, {r12, lr}
  00ef4	e24dd00c	 sub         sp, sp, #0xC
  00ef8		 |$M45218|

; 586  :     UINT32 val1, val2;
; 587  : 
; 588  :     if ( m_dwSlot == MMCSLOT_1 )

  00ef8	e59d3014	 ldr         r3, [sp, #0x14]
  00efc	e2833e17	 add         r3, r3, #0x17, 28
  00f00	e5933000	 ldr         r3, [r3]
  00f04	e3530001	 cmp         r3, #1
  00f08	1a000044	 bne         |$LN20@SetSDVSVol|

; 589  :     {
; 590  :         if(m_dwCPURev == CPU_FAMILY_35XX_REVISION_ES_1_0) // ES 1.0

  00f0c	e59d3014	 ldr         r3, [sp, #0x14]
  00f10	e2833f5f	 add         r3, r3, #0x5F, 30
  00f14	e5933000	 ldr         r3, [r3]
  00f18	e3530000	 cmp         r3, #0
  00f1c	1a000004	 bne         |$LN19@SetSDVSVol|

; 591  :         {
; 592  :           val1 = MMCHS_CAPA_VS30;

  00f20	e3a03402	 mov         r3, #2, 8
  00f24	e58d3004	 str         r3, [sp, #4]

; 593  :           val2 = MMCHS_HCTL_SDVS_3V0;

  00f28	e3a03b03	 mov         r3, #3, 22
  00f2c	e58d3000	 str         r3, [sp]
  00f30	ea000021	 b           |$LN18@SetSDVSVol|
  00f34		 |$LN19@SetSDVSVol|

; 594  :         }
; 595  :         else if(m_dwCPURev == CPU_FAMILY_35XX_REVISION_ES_2_0) // ES 2.0

  00f34	e59d3014	 ldr         r3, [sp, #0x14]
  00f38	e2833f5f	 add         r3, r3, #0x5F, 30
  00f3c	e5933000	 ldr         r3, [r3]
  00f40	e3530001	 cmp         r3, #1
  00f44	1a000004	 bne         |$LN17@SetSDVSVol|

; 596  :         {
; 597  :           val1 = MMCHS_CAPA_VS18;

  00f48	e3a03301	 mov         r3, #1, 6
  00f4c	e58d3004	 str         r3, [sp, #4]

; 598  :           val2 = MMCHS_HCTL_SDVS_1V8;

  00f50	e3a03c0a	 mov         r3, #0xA, 24
  00f54	e58d3000	 str         r3, [sp]
  00f58	ea000017	 b           |$LN16@SetSDVSVol|
  00f5c		 |$LN17@SetSDVSVol|

; 599  :         }
; 600  :         else if(m_dwCPURev == CPU_FAMILY_35XX_REVISION_ES_2_1) // ES 2.1

  00f5c	e59d3014	 ldr         r3, [sp, #0x14]
  00f60	e2833f5f	 add         r3, r3, #0x5F, 30
  00f64	e5933000	 ldr         r3, [r3]
  00f68	e3530002	 cmp         r3, #2
  00f6c	1a00000e	 bne         |$LN15@SetSDVSVol|

; 601  :         {
; 602  :             if (m_LowVoltageSlot)

  00f70	e59d3014	 ldr         r3, [sp, #0x14]
  00f74	e2833f63	 add         r3, r3, #0x63, 30
  00f78	e5933000	 ldr         r3, [r3]
  00f7c	e3530000	 cmp         r3, #0
  00f80	0a000004	 beq         |$LN14@SetSDVSVol|

; 603  :             {
; 604  :                 val1 = MMCHS_CAPA_VS18;

  00f84	e3a03301	 mov         r3, #1, 6
  00f88	e58d3004	 str         r3, [sp, #4]

; 605  :                 val2 = MMCHS_HCTL_SDVS_1V8;

  00f8c	e3a03c0a	 mov         r3, #0xA, 24
  00f90	e58d3000	 str         r3, [sp]

; 606  :             }
; 607  :             else

  00f94	ea000003	 b           |$LN13@SetSDVSVol|
  00f98		 |$LN14@SetSDVSVol|

; 608  :             {
; 609  :                 val1 = MMCHS_CAPA_VS30;

  00f98	e3a03402	 mov         r3, #2, 8
  00f9c	e58d3004	 str         r3, [sp, #4]

; 610  :                 val2 = MMCHS_HCTL_SDVS_3V0;

  00fa0	e3a03b03	 mov         r3, #3, 22
  00fa4	e58d3000	 str         r3, [sp]
  00fa8		 |$LN13@SetSDVSVol|

; 611  :             }
; 612  :         }
; 613  :         else // ES3.x and later

  00fa8	ea000003	 b           |$LN12@SetSDVSVol|
  00fac		 |$LN15@SetSDVSVol|

; 614  :         {
; 615  :           val1 = MMCHS_CAPA_VS30;

  00fac	e3a03402	 mov         r3, #2, 8
  00fb0	e58d3004	 str         r3, [sp, #4]

; 616  :           val2 = MMCHS_HCTL_SDVS_3V0;

  00fb4	e3a03b03	 mov         r3, #3, 22
  00fb8	e58d3000	 str         r3, [sp]
  00fbc		 |$LN12@SetSDVSVol|
  00fbc		 |$LN16@SetSDVSVol|
  00fbc		 |$LN18@SetSDVSVol|

; 617  :         }
; 618  : 
; 619  :         SETREG32(&m_pbRegisters->MMCHS_CAPA, val1);

  00fbc	e59d3014	 ldr         r3, [sp, #0x14]
  00fc0	e2833f57	 add         r3, r3, #0x57, 30
  00fc4	e5933000	 ldr         r3, [r3]
  00fc8	e2833d05	 add         r3, r3, #5, 26
  00fcc	e5932000	 ldr         r2, [r3]
  00fd0	e59d3004	 ldr         r3, [sp, #4]
  00fd4	e1822003	 orr         r2, r2, r3
  00fd8	e59d3014	 ldr         r3, [sp, #0x14]
  00fdc	e2833f57	 add         r3, r3, #0x57, 30
  00fe0	e5933000	 ldr         r3, [r3]
  00fe4	e2833d05	 add         r3, r3, #5, 26
  00fe8	e5832000	 str         r2, [r3]

; 620  :         SETREG32(&m_pbRegisters->MMCHS_HCTL, val2);

  00fec	e59d3014	 ldr         r3, [sp, #0x14]
  00ff0	e2833f57	 add         r3, r3, #0x57, 30
  00ff4	e5933000	 ldr         r3, [r3]
  00ff8	e2833f4a	 add         r3, r3, #0x4A, 30
  00ffc	e5932000	 ldr         r2, [r3]
  01000	e59d3000	 ldr         r3, [sp]
  01004	e1822003	 orr         r2, r2, r3
  01008	e59d3014	 ldr         r3, [sp, #0x14]
  0100c	e2833f57	 add         r3, r3, #0x57, 30
  01010	e5933000	 ldr         r3, [r3]
  01014	e2833f4a	 add         r3, r3, #0x4A, 30
  01018	e5832000	 str         r2, [r3]
  0101c	ea000054	 b           |$LN11@SetSDVSVol|
  01020		 |$LN20@SetSDVSVol|

; 621  :     }
; 622  :     else if (m_dwSlot == MMCSLOT_2)

  01020	e59d3014	 ldr         r3, [sp, #0x14]
  01024	e2833e17	 add         r3, r3, #0x17, 28
  01028	e5933000	 ldr         r3, [r3]
  0102c	e3530002	 cmp         r3, #2
  01030	1a000044	 bne         |$LN10@SetSDVSVol|

; 623  :     {
; 624  :         if(m_dwCPURev == CPU_FAMILY_35XX_REVISION_ES_1_0) // ES 1.0

  01034	e59d3014	 ldr         r3, [sp, #0x14]
  01038	e2833f5f	 add         r3, r3, #0x5F, 30
  0103c	e5933000	 ldr         r3, [r3]
  01040	e3530000	 cmp         r3, #0
  01044	1a000004	 bne         |$LN9@SetSDVSVol|

; 625  :         {
; 626  :           val1 = MMCHS_CAPA_VS18;

  01048	e3a03301	 mov         r3, #1, 6
  0104c	e58d3004	 str         r3, [sp, #4]

; 627  :           val2 = MMCHS_HCTL_SDVS_1V8;

  01050	e3a03c0a	 mov         r3, #0xA, 24
  01054	e58d3000	 str         r3, [sp]
  01058	ea000021	 b           |$LN8@SetSDVSVol|
  0105c		 |$LN9@SetSDVSVol|

; 628  :         }
; 629  :         else if(m_dwCPURev == CPU_FAMILY_35XX_REVISION_ES_2_0) // ES 2.0

  0105c	e59d3014	 ldr         r3, [sp, #0x14]
  01060	e2833f5f	 add         r3, r3, #0x5F, 30
  01064	e5933000	 ldr         r3, [r3]
  01068	e3530001	 cmp         r3, #1
  0106c	1a000004	 bne         |$LN7@SetSDVSVol|

; 630  :         {
; 631  :           val1 = MMCHS_CAPA_VS18;

  01070	e3a03301	 mov         r3, #1, 6
  01074	e58d3004	 str         r3, [sp, #4]

; 632  :           val2 = MMCHS_HCTL_SDVS_1V8;

  01078	e3a03c0a	 mov         r3, #0xA, 24
  0107c	e58d3000	 str         r3, [sp]
  01080	ea000017	 b           |$LN6@SetSDVSVol|
  01084		 |$LN7@SetSDVSVol|

; 633  :         }
; 634  :         else if(m_dwCPURev == CPU_FAMILY_35XX_REVISION_ES_2_1) // ES 2.1

  01084	e59d3014	 ldr         r3, [sp, #0x14]
  01088	e2833f5f	 add         r3, r3, #0x5F, 30
  0108c	e5933000	 ldr         r3, [r3]
  01090	e3530002	 cmp         r3, #2
  01094	1a00000e	 bne         |$LN5@SetSDVSVol|

; 635  :         {
; 636  :             if (m_LowVoltageSlot)

  01098	e59d3014	 ldr         r3, [sp, #0x14]
  0109c	e2833f63	 add         r3, r3, #0x63, 30
  010a0	e5933000	 ldr         r3, [r3]
  010a4	e3530000	 cmp         r3, #0
  010a8	0a000004	 beq         |$LN4@SetSDVSVol|

; 637  :             {
; 638  :                 val1 = MMCHS_CAPA_VS18;

  010ac	e3a03301	 mov         r3, #1, 6
  010b0	e58d3004	 str         r3, [sp, #4]

; 639  :                 val2 = MMCHS_HCTL_SDVS_1V8;

  010b4	e3a03c0a	 mov         r3, #0xA, 24
  010b8	e58d3000	 str         r3, [sp]

; 640  :             }
; 641  :             else

  010bc	ea000003	 b           |$LN3@SetSDVSVol|
  010c0		 |$LN4@SetSDVSVol|

; 642  :             {
; 643  :                 val1 = MMCHS_CAPA_VS30;

  010c0	e3a03402	 mov         r3, #2, 8
  010c4	e58d3004	 str         r3, [sp, #4]

; 644  :                 val2 = MMCHS_HCTL_SDVS_3V0;

  010c8	e3a03b03	 mov         r3, #3, 22
  010cc	e58d3000	 str         r3, [sp]
  010d0		 |$LN3@SetSDVSVol|

; 645  :             }
; 646  :         }
; 647  :         else // ES 3.x and later

  010d0	ea000003	 b           |$LN2@SetSDVSVol|
  010d4		 |$LN5@SetSDVSVol|

; 648  :         {
; 649  :           val1 = MMCHS_CAPA_VS18;

  010d4	e3a03301	 mov         r3, #1, 6
  010d8	e58d3004	 str         r3, [sp, #4]

; 650  :           val2 = MMCHS_HCTL_SDVS_1V8;

  010dc	e3a03c0a	 mov         r3, #0xA, 24
  010e0	e58d3000	 str         r3, [sp]
  010e4		 |$LN2@SetSDVSVol|
  010e4		 |$LN6@SetSDVSVol|
  010e4		 |$LN8@SetSDVSVol|

; 651  :         }
; 652  :         SETREG32(&m_pbRegisters->MMCHS_CAPA, val1);

  010e4	e59d3014	 ldr         r3, [sp, #0x14]
  010e8	e2833f57	 add         r3, r3, #0x57, 30
  010ec	e5933000	 ldr         r3, [r3]
  010f0	e2833d05	 add         r3, r3, #5, 26
  010f4	e5932000	 ldr         r2, [r3]
  010f8	e59d3004	 ldr         r3, [sp, #4]
  010fc	e1822003	 orr         r2, r2, r3
  01100	e59d3014	 ldr         r3, [sp, #0x14]
  01104	e2833f57	 add         r3, r3, #0x57, 30
  01108	e5933000	 ldr         r3, [r3]
  0110c	e2833d05	 add         r3, r3, #5, 26
  01110	e5832000	 str         r2, [r3]

; 653  :         SETREG32(&m_pbRegisters->MMCHS_HCTL, val2);

  01114	e59d3014	 ldr         r3, [sp, #0x14]
  01118	e2833f57	 add         r3, r3, #0x57, 30
  0111c	e5933000	 ldr         r3, [r3]
  01120	e2833f4a	 add         r3, r3, #0x4A, 30
  01124	e5932000	 ldr         r2, [r3]
  01128	e59d3000	 ldr         r3, [sp]
  0112c	e1822003	 orr         r2, r2, r3
  01130	e59d3014	 ldr         r3, [sp, #0x14]
  01134	e2833f57	 add         r3, r3, #0x57, 30
  01138	e5933000	 ldr         r3, [r3]
  0113c	e2833f4a	 add         r3, r3, #0x4A, 30
  01140	e5832000	 str         r2, [r3]

; 654  :     }
; 655  :     else

  01144	ea00000a	 b           |$LN1@SetSDVSVol|
  01148		 |$LN10@SetSDVSVol|

; 656  :     {
; 657  :         RETAILMSG(SDCARD_ZONE_WARN, (L"MMC Slot number is not Valid\r\n"));

  01148	e59f3034	 ldr         r3, [pc, #0x34]
  0114c	e5933440	 ldr         r3, [r3, #0x440]
  01150	e3130901	 tst         r3, #1, 18
  01154	0a000004	 beq         |$LN23@SetSDVSVol|
  01158	e59f0020	 ldr         r0, [pc, #0x20]
  0115c	eb000000	 bl          NKDbgPrintfW
  01160	e3a03001	 mov         r3, #1
  01164	e58d3008	 str         r3, [sp, #8]
  01168	ea000001	 b           |$LN24@SetSDVSVol|
  0116c		 |$LN23@SetSDVSVol|
  0116c	e3a03000	 mov         r3, #0
  01170	e58d3008	 str         r3, [sp, #8]
  01174		 |$LN24@SetSDVSVol|
  01174		 |$LN1@SetSDVSVol|
  01174		 |$LN11@SetSDVSVol|

; 658  :         return;
; 659  :     }
; 660  : }

  01174	e28dd00c	 add         sp, sp, #0xC
  01178	e89d6000	 ldmia       sp, {sp, lr}
  0117c	e12fff1e	 bx          lr
  01180		 |$LN28@SetSDVSVol|
  01180		 |$LN29@SetSDVSVol|
  01180	00000000	 DCD         |??_C@_1DO@OCDBIGLO@?$AAM?$AAM?$AAC?$AA?5?$AAS?$AAl?$AAo?$AAt?$AA?5?$AAn?$AAu?$AAm?$AAb?$AAe?$AAr?$AA?5?$AAi?$AAs?$AA?5?$AAn?$AAo?$AAt?$AA?5?$AAV?$AAa?$AAl?$AAi?$AAd?$AA?$AN?$AA?6?$AA?$AA@|
  01184		 |$LN30@SetSDVSVol|
  01184	00000000	 DCD         |dpCurSettings|
  01188		 |$M45219|

			 ENDP  ; |?SetSDVSVoltage@CSDIOControllerBase@@QAAXXZ|, CSDIOControllerBase::SetSDVSVoltage

	EXPORT	|?SDHCPowerTimerThreadImpl@CSDIOControllerBase@@QAAKXZ| ; CSDIOControllerBase::SDHCPowerTimerThreadImpl
	EXPORT	|?SDHCPowerTimerThread@CSDIOControllerBase@@SAKPAX@Z| ; CSDIOControllerBase::SDHCPowerTimerThread

  00060			 AREA	 |.pdata|, PDATA
|$T45230| DCD	|$LN5@SDHCPowerT|
	DCD	0x40000f04
; Function compile flags: /Odtp

  01188			 AREA	 |.text|, CODE, ARM

  01188		 |?SDHCPowerTimerThread@CSDIOControllerBase@@SAKPAX@Z| PROC ; CSDIOControllerBase::SDHCPowerTimerThread

; 672  : {

  01188		 |$LN5@SDHCPowerT|
  01188	e1a0c00d	 mov         r12, sp
  0118c	e92d0001	 stmdb       sp!, {r0}
  01190	e92d5000	 stmdb       sp!, {r12, lr}
  01194	e24dd00c	 sub         sp, sp, #0xC
  01198		 |$M45227|

; 673  :     CSDIOControllerBase *pController = (CSDIOControllerBase*)lpParameter;

  01198	e59d3014	 ldr         r3, [sp, #0x14]
  0119c	e58d3000	 str         r3, [sp]

; 674  :     return pController->SDHCPowerTimerThreadImpl();

  011a0	e59d0000	 ldr         r0, [sp]
  011a4	eb000000	 bl          |?SDHCPowerTimerThreadImpl@CSDIOControllerBase@@QAAKXZ|
  011a8	e58d0008	 str         r0, [sp, #8]
  011ac	e59d3008	 ldr         r3, [sp, #8]
  011b0	e58d3004	 str         r3, [sp, #4]

; 675  : }

  011b4	e59d0004	 ldr         r0, [sp, #4]
  011b8	e28dd00c	 add         sp, sp, #0xC
  011bc	e89d6000	 ldmia       sp, {sp, lr}
  011c0	e12fff1e	 bx          lr
  011c4		 |$M45228|

			 ENDP  ; |?SDHCPowerTimerThread@CSDIOControllerBase@@SAKPAX@Z|, CSDIOControllerBase::SDHCPowerTimerThread

	EXPORT	|?UpdateDevicePowerState@CSDIOControllerBase@@QAAXH@Z| ; CSDIOControllerBase::UpdateDevicePowerState
	EXPORT	|ResetEvent|
	EXPORT	|GetCurrentThread|
	EXPORT	|??_C@_1EO@LECFDIFC@?$AA?$CK?$AA?$CK?$AA?$CK?$AA?5?$AAs?$AAt?$AAa?$AAr?$AAt?$AA?5?$AAS?$AAD?$AAH?$AAC?$AAP?$AAo?$AAw?$AAe?$AAr?$AAT?$AAi?$AAm?$AAe?$AAr?$AAT?$AAh?$AAr?$AAe?$AAa?$AAd?$AAI?$AAm@| [ DATA ] ; `string'
	IMPORT	|WaitForSingleObject|
	IMPORT	|CeSetThreadPriority|

  00068			 AREA	 |.pdata|, PDATA
|$T45240| DCD	|$LN21@SDHCPowerT@2|
	DCD	0x40007d04

  00000			 AREA	 |.rdata|, DATA, READONLY
|??_C@_1EO@LECFDIFC@?$AA?$CK?$AA?$CK?$AA?$CK?$AA?5?$AAs?$AAt?$AAa?$AAr?$AAt?$AA?5?$AAS?$AAD?$AAH?$AAC?$AAP?$AAo?$AAw?$AAe?$AAr?$AAT?$AAi?$AAm?$AAe?$AAr?$AAT?$AAh?$AAr?$AAe?$AAa?$AAd?$AAI?$AAm@| DCB "*"
	DCB	0x0, "*", 0x0, "*", 0x0, " ", 0x0, "s", 0x0, "t", 0x0, "a"
	DCB	0x0, "r", 0x0, "t", 0x0, " ", 0x0, "S", 0x0, "D", 0x0, "H"
	DCB	0x0, "C", 0x0, "P", 0x0, "o", 0x0, "w", 0x0, "e", 0x0, "r"
	DCB	0x0, "T", 0x0, "i", 0x0, "m", 0x0, "e", 0x0, "r", 0x0, "T"
	DCB	0x0, "h", 0x0, "r", 0x0, "e", 0x0, "a", 0x0, "d", 0x0, "I"
	DCB	0x0, "m", 0x0, "p", 0x0, "l", 0x0, "(", 0x0, ")", 0x0, 0xd
	DCB	0x0, 0xa, 0x0, 0x0, 0x0			; `string'
; Function compile flags: /Odtp

  011c4			 AREA	 |.text|, CODE, ARM

  011c4		 |?SDHCPowerTimerThreadImpl@CSDIOControllerBase@@QAAKXZ| PROC ; CSDIOControllerBase::SDHCPowerTimerThreadImpl

; 684  : {

  011c4		 |$LN21@SDHCPowerT@2|
  011c4	e1a0c00d	 mov         r12, sp
  011c8	e92d0001	 stmdb       sp!, {r0}
  011cc	e92d5000	 stmdb       sp!, {r12, lr}
  011d0	e24dd014	 sub         sp, sp, #0x14
  011d4		 |$M45237|

; 685  :     DWORD nTimeout = INFINITE;

  011d4	e3e03000	 mvn         r3, #0
  011d8	e58d3000	 str         r3, [sp]

; 686  :     RETAILMSG(0, (TEXT("*** start SDHCPowerTimerThreadImpl()\r\n")));

  011dc	ea000004	 b           |$LN15@SDHCPowerT@2|
  011e0	e59f01cc	 ldr         r0, [pc, #0x1CC]
  011e4	eb000000	 bl          NKDbgPrintfW
  011e8	e3a03001	 mov         r3, #1
  011ec	e58d3008	 str         r3, [sp, #8]
  011f0	ea000001	 b           |$LN16@SDHCPowerT@2|
  011f4		 |$LN15@SDHCPowerT@2|
  011f4	e3a03000	 mov         r3, #0
  011f8	e58d3008	 str         r3, [sp, #8]
  011fc		 |$LN16@SDHCPowerT@2|

; 687  : 
; 688  :     CeSetThreadPriority(GetCurrentThread(), TIMERTHREAD_PRIORITY);

  011fc	eb000000	 bl          GetCurrentThread
  01200	e58d000c	 str         r0, [sp, #0xC]
  01204	e3a010fc	 mov         r1, #0xFC
  01208	e59d000c	 ldr         r0, [sp, #0xC]
  0120c	eb000000	 bl          CeSetThreadPriority
  01210		 |$LN12@SDHCPowerT@2|

; 689  : 
; 690  :     for(;;)
; 691  :     {
; 692  :         WaitForSingleObject(m_hTimerEvent, nTimeout);

  01210	e59d1000	 ldr         r1, [sp]
  01214	e59d301c	 ldr         r3, [sp, #0x1C]
  01218	e2833f6a	 add         r3, r3, #0x6A, 30
  0121c	e5930000	 ldr         r0, [r3]
  01220	eb000000	 bl          WaitForSingleObject

; 693  : 
; 694  :         if (m_bExitThread == TRUE) 

  01224	e59d301c	 ldr         r3, [sp, #0x1C]
  01228	e2833f69	 add         r3, r3, #0x69, 30
  0122c	e5933000	 ldr         r3, [r3]
  01230	e3530001	 cmp         r3, #1
  01234	1a000000	 bne         |$LN10@SDHCPowerT@2|

; 695  : 		    break;

  01238	ea000057	 b           |$LN11@SDHCPowerT@2|
  0123c		 |$LN10@SDHCPowerT@2|

; 696  : 
; 697  :         // serialize access to power state changes
; 698  :         EnterCriticalSection(&m_critSec);

  0123c	e59d301c	 ldr         r3, [sp, #0x1C]
  01240	e28300b0	 add         r0, r3, #0xB0
  01244	eb000000	 bl          EnterCriticalSection

; 699  : 
; 700  :         // by the time this thread got the cs hTimerEvent may
; 701  :         // have gotten resignaled.  Clear the event to  make
; 702  :         // sure the activity timer thread isn't awaken prematurely
; 703  :         //
; 704  :         ResetEvent(m_hTimerEvent);

  01248	e59d301c	 ldr         r3, [sp, #0x1C]
  0124c	e2833f6a	 add         r3, r3, #0x6A, 30
  01250	e5930000	 ldr         r0, [r3]
  01254	eb000000	 bl          ResetEvent

; 705  : 
; 706  :         // check if we need to reset the timer
; 707  :         if (m_dwClockCnt == 0)

  01258	e59d301c	 ldr         r3, [sp, #0x1C]
  0125c	e2833e1a	 add         r3, r3, #0x1A, 28
  01260	e5933000	 ldr         r3, [r3]
  01264	e3530000	 cmp         r3, #0
  01268	1a000045	 bne         |$LN9@SDHCPowerT@2|

; 708  :         {
; 709  :             // We disable the clocks only when this thread
; 710  :             // wakes-up twice in a row with no power state
; 711  :             // change to D0.  This is achieved by using the
; 712  :             // bDisablePower flag to determine if power state
; 713  :             // changed since the last time this thread woke-up
; 714  :             //
; 715  :             if ((m_bDisablePower == TRUE) || (m_fCardPresent == FALSE))

  0126c	e59d301c	 ldr         r3, [sp, #0x1C]
  01270	e2833f73	 add         r3, r3, #0x73, 30
  01274	e5933000	 ldr         r3, [r3]
  01278	e3530001	 cmp         r3, #1
  0127c	0a000004	 beq         |$LN7@SDHCPowerT@2|
  01280	e59d301c	 ldr         r3, [sp, #0x1C]
  01284	e28330f0	 add         r3, r3, #0xF0
  01288	e5933000	 ldr         r3, [r3]
  0128c	e3530000	 cmp         r3, #0
  01290	1a000021	 bne         |$LN8@SDHCPowerT@2|
  01294		 |$LN7@SDHCPowerT@2|

; 716  :             {
; 717  :                 if (m_ActualPowerState < D3)

  01294	e59d301c	 ldr         r3, [sp, #0x1C]
  01298	e28330e0	 add         r3, r3, #0xE0
  0129c	e5933000	 ldr         r3, [r3]
  012a0	e3530003	 cmp         r3, #3
  012a4	aa000019	 bge         |$LN6@SDHCPowerT@2|

; 718  :                 {
; 719  :                     // update clock control
; 720  :                     if (!m_dwSDClockMode || !m_fCardPresent /*|| !(m_dwWakeupSources & WAKEUP_SDIO)*/)

  012a8	e59d301c	 ldr         r3, [sp, #0x1C]
  012ac	e2833f67	 add         r3, r3, #0x67, 30
  012b0	e5933000	 ldr         r3, [r3]
  012b4	e3530000	 cmp         r3, #0
  012b8	0a000004	 beq         |$LN4@SDHCPowerT@2|
  012bc	e59d301c	 ldr         r3, [sp, #0x1C]
  012c0	e28330f0	 add         r3, r3, #0xF0
  012c4	e5933000	 ldr         r3, [r3]
  012c8	e3530000	 cmp         r3, #0
  012cc	1a000006	 bne         |$LN5@SDHCPowerT@2|
  012d0		 |$LN4@SDHCPowerT@2|

; 721  : 					{
; 722  :                         OUTREG32(&m_pbRegisters->MMCHS_SYSCONFIG, 
; 723  :                             MMCHS_SYSCONFIG_CLOCKACTIVITY(0) | 
; 724  :                             MMCHS_SYSCONFIG_SIDLEMODE(SIDLE_FORCE) |
; 725  :                             MMCHS_SYSCONFIG_AUTOIDLE 
; 726  :                             );

  012d0	e59d301c	 ldr         r3, [sp, #0x1C]
  012d4	e2833f57	 add         r3, r3, #0x57, 30
  012d8	e5933000	 ldr         r3, [r3]
  012dc	e2832010	 add         r2, r3, #0x10
  012e0	e3a03001	 mov         r3, #1
  012e4	e5823000	 str         r3, [r2]

; 727  :                     }
; 728  : 					else

  012e8	ea000005	 b           |$LN3@SDHCPowerT@2|
  012ec		 |$LN5@SDHCPowerT@2|

; 729  : 					{
; 730  :     	                OUTREG32(&m_pbRegisters->MMCHS_SYSCONFIG, 
; 731  : 	    				    MMCHS_SYSCONFIG_SIDLEMODE(SIDLE_IGNORE) | 
; 732  : 		    				MMCHS_SYSCONFIG_CLOCKACTIVITY(3)
; 733  : 			    			);

  012ec	e59d301c	 ldr         r3, [sp, #0x1C]
  012f0	e2833f57	 add         r3, r3, #0x57, 30
  012f4	e5933000	 ldr         r3, [r3]
  012f8	e2832010	 add         r2, r3, #0x10
  012fc	e3a03fc2	 mov         r3, #0xC2, 30
  01300	e5823000	 str         r3, [r2]
  01304		 |$LN3@SDHCPowerT@2|

; 734  :                     }
; 735  :                     UpdateDevicePowerState(FALSE);

  01304	e3a01000	 mov         r1, #0
  01308	e59d001c	 ldr         r0, [sp, #0x1C]
  0130c	eb000000	 bl          |?UpdateDevicePowerState@CSDIOControllerBase@@QAAXH@Z|
  01310		 |$LN6@SDHCPowerT@2|

; 736  :                  }
; 737  :                 nTimeout = INFINITE;

  01310	e3e03000	 mvn         r3, #0
  01314	e58d3000	 str         r3, [sp]

; 738  :             }
; 739  :             else

  01318	ea000018	 b           |$LN2@SDHCPowerT@2|
  0131c		 |$LN8@SDHCPowerT@2|

; 740  :             {
; 741  :                 // wait for activity time-out before shutting off power.
; 742  :                 m_bDisablePower = TRUE;

  0131c	e59d301c	 ldr         r3, [sp, #0x1C]
  01320	e2832f73	 add         r2, r3, #0x73, 30
  01324	e3a03001	 mov         r3, #1
  01328	e5823000	 str         r3, [r2]

; 743  :                 nTimeout = (m_fCardInitialized && !m_dwSDIOCard) ? m_nNonSDIOActivityTimeout : m_nSDIOActivityTimeout;

  0132c	e59d301c	 ldr         r3, [sp, #0x1C]
  01330	e2833f4f	 add         r3, r3, #0x4F, 30
  01334	e5933000	 ldr         r3, [r3]
  01338	e3530000	 cmp         r3, #0
  0133c	0a000009	 beq         |$LN17@SDHCPowerT@2|
  01340	e59d301c	 ldr         r3, [sp, #0x1C]
  01344	e2833f5e	 add         r3, r3, #0x5E, 30
  01348	e5933000	 ldr         r3, [r3]
  0134c	e3530000	 cmp         r3, #0
  01350	1a000004	 bne         |$LN17@SDHCPowerT@2|
  01354	e59d301c	 ldr         r3, [sp, #0x1C]
  01358	e2833e1b	 add         r3, r3, #0x1B, 28
  0135c	e5933000	 ldr         r3, [r3]
  01360	e58d3010	 str         r3, [sp, #0x10]
  01364	ea000003	 b           |$LN18@SDHCPowerT@2|
  01368		 |$LN17@SDHCPowerT@2|
  01368	e59d301c	 ldr         r3, [sp, #0x1C]
  0136c	e2833f6d	 add         r3, r3, #0x6D, 30
  01370	e5933000	 ldr         r3, [r3]
  01374	e58d3010	 str         r3, [sp, #0x10]
  01378		 |$LN18@SDHCPowerT@2|
  01378	e59d3010	 ldr         r3, [sp, #0x10]
  0137c	e58d3000	 str         r3, [sp]
  01380		 |$LN2@SDHCPowerT@2|

; 744  :             }
; 745  :         }
; 746  :         else

  01380	ea000001	 b           |$LN1@SDHCPowerT@2|
  01384		 |$LN9@SDHCPowerT@2|

; 747  :         {
; 748  :             nTimeout = INFINITE;

  01384	e3e03000	 mvn         r3, #0
  01388	e58d3000	 str         r3, [sp]
  0138c		 |$LN1@SDHCPowerT@2|

; 749  :         }
; 750  :         LeaveCriticalSection(&m_critSec);

  0138c	e59d301c	 ldr         r3, [sp, #0x1C]
  01390	e28300b0	 add         r0, r3, #0xB0
  01394	eb000000	 bl          LeaveCriticalSection

; 751  :     }

  01398	eaffff9c	 b           |$LN12@SDHCPowerT@2|
  0139c		 |$LN11@SDHCPowerT@2|

; 752  : 
; 753  :     return 1;

  0139c	e3a03001	 mov         r3, #1
  013a0	e58d3004	 str         r3, [sp, #4]

; 754  : }

  013a4	e59d0004	 ldr         r0, [sp, #4]
  013a8	e28dd014	 add         sp, sp, #0x14
  013ac	e89d6000	 ldmia       sp, {sp, lr}
  013b0	e12fff1e	 bx          lr
  013b4		 |$LN22@SDHCPowerT@2|
  013b4		 |$LN23@SDHCPowerT@2|
  013b4	00000000	 DCD         |??_C@_1EO@LECFDIFC@?$AA?$CK?$AA?$CK?$AA?$CK?$AA?5?$AAs?$AAt?$AAa?$AAr?$AAt?$AA?5?$AAS?$AAD?$AAH?$AAC?$AAP?$AAo?$AAw?$AAe?$AAr?$AAT?$AAi?$AAm?$AAe?$AAr?$AAT?$AAh?$AAr?$AAe?$AAa?$AAd?$AAI?$AAm@|
  013b8		 |$M45238|

			 ENDP  ; |?SDHCPowerTimerThreadImpl@CSDIOControllerBase@@QAAKXZ|, CSDIOControllerBase::SDHCPowerTimerThreadImpl

	IMPORT	|EventModify|
; File c:\wince600\public\common\sdk\inc\kfuncs.h

  00000			 AREA	 |.pdata|, PDATA
|$T45248| DCD	|$LN5@ResetEvent|
	DCD	0x40000e04
; Function compile flags: /Odtp

  00000			 AREA	 |.text|, CODE, ARM

  00000		 |ResetEvent| PROC

; 223  : _inline BOOL ResetEvent(HANDLE h) {

  00000		 |$LN5@ResetEvent|
  00000	e1a0c00d	 mov         r12, sp
  00004	e92d0001	 stmdb       sp!, {r0}
  00008	e92d5000	 stmdb       sp!, {r12, lr}
  0000c	e24dd008	 sub         sp, sp, #8
  00010		 |$M45245|

; 224  : 	return EventModify(h,EVENT_RESET);

  00010	e3a01002	 mov         r1, #2
  00014	e59d0010	 ldr         r0, [sp, #0x10]
  00018	eb000000	 bl          EventModify
  0001c	e58d0004	 str         r0, [sp, #4]
  00020	e59d3004	 ldr         r3, [sp, #4]
  00024	e58d3000	 str         r3, [sp]

; 225  : }

  00028	e59d0000	 ldr         r0, [sp]
  0002c	e28dd008	 add         sp, sp, #8
  00030	e89d6000	 ldmia       sp, {sp, lr}
  00034	e12fff1e	 bx          lr
  00038		 |$M45246|

			 ENDP  ; |ResetEvent|


  00000			 AREA	 |.pdata|, PDATA
|$T45256| DCD	|$LN5@GetCurrent|
	DCD	0x40000601
; Function compile flags: /Odtp

  00000			 AREA	 |.text|, CODE, ARM

  00000		 |GetCurrentThread| PROC

; 351  : _inline HANDLE GetCurrentThread(void) {

  00000		 |$LN5@GetCurrent|
  00000	e24dd004	 sub         sp, sp, #4
  00004		 |$M45253|

; 352  : 	return ((HANDLE)(SH_CURTHREAD+SYS_HANDLE_BASE));

  00004	e3a03041	 mov         r3, #0x41
  00008	e58d3000	 str         r3, [sp]

; 353  : }

  0000c	e59d0000	 ldr         r0, [sp]
  00010	e28dd004	 add         sp, sp, #4
  00014	e12fff1e	 bx          lr
  00018		 |$M45254|

			 ENDP  ; |GetCurrentThread|

	EXPORT	|SetEvent|
	EXPORT	|??_C@_1CO@NJOFCHKF@?$AA?$CL?$AAU?$AAp?$AAd?$AAa?$AAt?$AAe?$AAS?$AAy?$AAs?$AAt?$AAe?$AAm?$AAC?$AAl?$AAo?$AAc?$AAk?$AA?$CI?$AA?$CJ?$AA?$AN?$AA?6?$AA?$AA@| [ DATA ] ; `string'
	IMPORT	|InterlockedDecrement|
	IMPORT	|InterlockedIncrement|

  00070			 AREA	 |.pdata|, PDATA
|$T45266| DCD	|$LN20@UpdateSyst|
	DCD	0x40008204
; File c:\wince600\platform\common\src\soc\common_ti_v1\common_ti\sdhc\base\sdhc.cpp

  00000			 AREA	 |.rdata|, DATA, READONLY
|??_C@_1CO@NJOFCHKF@?$AA?$CL?$AAU?$AAp?$AAd?$AAa?$AAt?$AAe?$AAS?$AAy?$AAs?$AAt?$AAe?$AAm?$AAC?$AAl?$AAo?$AAc?$AAk?$AA?$CI?$AA?$CJ?$AA?$AN?$AA?6?$AA?$AA@| DCB "+"
	DCB	0x0, "U", 0x0, "p", 0x0, "d", 0x0, "a", 0x0, "t", 0x0, "e"
	DCB	0x0, "S", 0x0, "y", 0x0, "s", 0x0, "t", 0x0, "e", 0x0, "m"
	DCB	0x0, "C", 0x0, "l", 0x0, "o", 0x0, "c", 0x0, "k", 0x0, "("
	DCB	0x0, ")", 0x0, 0xd, 0x0, 0xa, 0x0, 0x0, 0x0 ; `string'
; Function compile flags: /Odtp

  013b8			 AREA	 |.text|, CODE, ARM

  013b8		 |?UpdateSystemClock@CSDIOControllerBase@@QAAHH@Z| PROC ; CSDIOControllerBase::UpdateSystemClock

; 765  : {

  013b8		 |$LN20@UpdateSyst|
  013b8	e1a0c00d	 mov         r12, sp
  013bc	e92d0003	 stmdb       sp!, {r0, r1}
  013c0	e92d5000	 stmdb       sp!, {r12, lr}
  013c4	e24dd014	 sub         sp, sp, #0x14
  013c8		 |$M45263|

; 766  :     LONG   lClockCount;
; 767  : 
; 768  :     DEBUGMSG(SDCARD_ZONE_FUNC, (L"+UpdateSystemClock()\r\n"));

  013c8	e59f31ec	 ldr         r3, [pc, #0x1EC]
  013cc	e5933440	 ldr         r3, [r3, #0x440]
  013d0	e3130b02	 tst         r3, #2, 22
  013d4	0a000004	 beq         |$LN16@UpdateSyst|
  013d8	e59f01d8	 ldr         r0, [pc, #0x1D8]
  013dc	eb000000	 bl          NKDbgPrintfW
  013e0	e3a03001	 mov         r3, #1
  013e4	e58d3008	 str         r3, [sp, #8]
  013e8	ea000001	 b           |$LN17@UpdateSyst|
  013ec		 |$LN16@UpdateSyst|
  013ec	e3a03000	 mov         r3, #0
  013f0	e58d3008	 str         r3, [sp, #8]
  013f4		 |$LN17@UpdateSyst|

; 769  : 
; 770  :     if (enable)

  013f4	e59d3020	 ldr         r3, [sp, #0x20]
  013f8	e3530000	 cmp         r3, #0
  013fc	0a000031	 beq         |$LN13@UpdateSyst|

; 771  :     {
; 772  :         lClockCount = InterlockedIncrement(&m_dwClockCnt);

  01400	e59d301c	 ldr         r3, [sp, #0x1C]
  01404	e2830e1a	 add         r0, r3, #0x1A, 28
  01408	eb000000	 bl          InterlockedIncrement
  0140c	e58d000c	 str         r0, [sp, #0xC]
  01410	e59d300c	 ldr         r3, [sp, #0xC]
  01414	e58d3000	 str         r3, [sp]

; 773  : 
; 774  :         EnterCriticalSection( &m_critSec );

  01418	e59d301c	 ldr         r3, [sp, #0x1C]
  0141c	e28300b0	 add         r0, r3, #0xB0
  01420	eb000000	 bl          EnterCriticalSection

; 775  :         m_InternPowerState = D0;

  01424	e59d301c	 ldr         r3, [sp, #0x1C]
  01428	e28320dc	 add         r2, r3, #0xDC
  0142c	e3a03000	 mov         r3, #0
  01430	e5823000	 str         r3, [r2]

; 776  :         if(lClockCount == 1)

  01434	e59d3000	 ldr         r3, [sp]
  01438	e3530001	 cmp         r3, #1
  0143c	1a000019	 bne         |$LN12@UpdateSyst|

; 777  :         {
; 778  :             if (m_ActualPowerState >= D3)

  01440	e59d301c	 ldr         r3, [sp, #0x1C]
  01444	e28330e0	 add         r3, r3, #0xE0
  01448	e5933000	 ldr         r3, [r3]
  0144c	e3530003	 cmp         r3, #3
  01450	ba000014	 blt         |$LN11@UpdateSyst|

; 779  :             {
; 780  :                 UpdateDevicePowerState(FALSE);

  01454	e3a01000	 mov         r1, #0
  01458	e59d001c	 ldr         r0, [sp, #0x1C]
  0145c	eb000000	 bl          |?UpdateDevicePowerState@CSDIOControllerBase@@QAAXH@Z|

; 781  :                 
; 782  :                 if (m_dwSDClockMode)

  01460	e59d301c	 ldr         r3, [sp, #0x1C]
  01464	e2833f67	 add         r3, r3, #0x67, 30
  01468	e5933000	 ldr         r3, [r3]
  0146c	e3530000	 cmp         r3, #0
  01470	0a000006	 beq         |$LN10@UpdateSyst|

; 783  : 				{
; 784  :                     OUTREG32(&m_pbRegisters->MMCHS_SYSCONFIG, 
; 785  :                         MMCHS_SYSCONFIG_SIDLEMODE(SIDLE_IGNORE) | 
; 786  :                         MMCHS_SYSCONFIG_CLOCKACTIVITY(3)
; 787  :                         );

  01474	e59d301c	 ldr         r3, [sp, #0x1C]
  01478	e2833f57	 add         r3, r3, #0x57, 30
  0147c	e5933000	 ldr         r3, [r3]
  01480	e2832010	 add         r2, r3, #0x10
  01484	e3a03fc2	 mov         r3, #0xC2, 30
  01488	e5823000	 str         r3, [r2]

; 788  :                 }
; 789  : 				else

  0148c	ea000005	 b           |$LN9@UpdateSyst|
  01490		 |$LN10@UpdateSyst|

; 790  : 				{
; 791  :                     // update clock control
; 792  :                     OUTREG32(&m_pbRegisters->MMCHS_SYSCONFIG, 
; 793  :                         MMCHS_SYSCONFIG_CLOCKACTIVITY(0) | 
; 794  :                         MMCHS_SYSCONFIG_SIDLEMODE(SIDLE_SMART) |
; 795  :                         MMCHS_SYSCONFIG_ENAWAKEUP |
; 796  :                         MMCHS_SYSCONFIG_AUTOIDLE 
; 797  :                         );

  01490	e59d301c	 ldr         r3, [sp, #0x1C]
  01494	e2833f57	 add         r3, r3, #0x57, 30
  01498	e5933000	 ldr         r3, [r3]
  0149c	e2832010	 add         r2, r3, #0x10
  014a0	e3a03015	 mov         r3, #0x15
  014a4	e5823000	 str         r3, [r2]
  014a8		 |$LN9@UpdateSyst|
  014a8		 |$LN11@UpdateSyst|
  014a8		 |$LN12@UpdateSyst|

; 798  :                 }
; 799  :             }
; 800  :         }
; 801  :         m_bDisablePower = FALSE;

  014a8	e59d301c	 ldr         r3, [sp, #0x1C]
  014ac	e2832f73	 add         r2, r3, #0x73, 30
  014b0	e3a03000	 mov         r3, #0
  014b4	e5823000	 str         r3, [r2]

; 802  :         LeaveCriticalSection( &m_critSec );

  014b8	e59d301c	 ldr         r3, [sp, #0x1C]
  014bc	e28300b0	 add         r0, r3, #0xB0
  014c0	eb000000	 bl          LeaveCriticalSection

; 803  :     }
; 804  :     else

  014c4	ea000035	 b           |$LN8@UpdateSyst|
  014c8		 |$LN13@UpdateSyst|

; 805  :     {
; 806  :         lClockCount = InterlockedDecrement(&m_dwClockCnt);

  014c8	e59d301c	 ldr         r3, [sp, #0x1C]
  014cc	e2830e1a	 add         r0, r3, #0x1A, 28
  014d0	eb000000	 bl          InterlockedDecrement
  014d4	e58d0010	 str         r0, [sp, #0x10]
  014d8	e59d3010	 ldr         r3, [sp, #0x10]
  014dc	e58d3000	 str         r3, [sp]

; 807  :         if(lClockCount < 0)

  014e0	e59d3000	 ldr         r3, [sp]
  014e4	e3530000	 cmp         r3, #0
  014e8	aa000003	 bge         |$LN7@UpdateSyst|

; 808  :             m_dwClockCnt = 0;

  014ec	e59d301c	 ldr         r3, [sp, #0x1C]
  014f0	e2832e1a	 add         r2, r3, #0x1A, 28
  014f4	e3a03000	 mov         r3, #0
  014f8	e5823000	 str         r3, [r2]
  014fc		 |$LN7@UpdateSyst|

; 809  : 
; 810  :         if(lClockCount <= 0)

  014fc	e59d3000	 ldr         r3, [sp]
  01500	e3530000	 cmp         r3, #0
  01504	ca000025	 bgt         |$LN6@UpdateSyst|

; 811  :         {
; 812  :             m_InternPowerState = D4;

  01508	e59d301c	 ldr         r3, [sp, #0x1C]
  0150c	e28320dc	 add         r2, r3, #0xDC
  01510	e3a03004	 mov         r3, #4
  01514	e5823000	 str         r3, [r2]

; 813  :             if (m_hTimerEvent != NULL)

  01518	e59d301c	 ldr         r3, [sp, #0x1C]
  0151c	e2833f6a	 add         r3, r3, #0x6A, 30
  01520	e5933000	 ldr         r3, [r3]
  01524	e3530000	 cmp         r3, #0
  01528	0a000004	 beq         |$LN5@UpdateSyst|

; 814  :             {
; 815  :                 SetEvent(m_hTimerEvent);

  0152c	e59d301c	 ldr         r3, [sp, #0x1C]
  01530	e2833f6a	 add         r3, r3, #0x6A, 30
  01534	e5930000	 ldr         r0, [r3]
  01538	eb000000	 bl          SetEvent

; 816  :             }
; 817  :             else

  0153c	ea000017	 b           |$LN4@UpdateSyst|
  01540		 |$LN5@UpdateSyst|

; 818  :             {
; 819  :                 if (m_ActualPowerState < D3)

  01540	e59d301c	 ldr         r3, [sp, #0x1C]
  01544	e28330e0	 add         r3, r3, #0xE0
  01548	e5933000	 ldr         r3, [r3]
  0154c	e3530003	 cmp         r3, #3
  01550	aa00000f	 bge         |$LN3@UpdateSyst|

; 820  :                 {
; 821  :                     // update clock control
; 822  :                     if (!m_dwSDClockMode || m_InternPowerState == D4)

  01554	e59d301c	 ldr         r3, [sp, #0x1C]
  01558	e2833f67	 add         r3, r3, #0x67, 30
  0155c	e5933000	 ldr         r3, [r3]
  01560	e3530000	 cmp         r3, #0
  01564	0a000004	 beq         |$LN1@UpdateSyst|
  01568	e59d301c	 ldr         r3, [sp, #0x1C]
  0156c	e28330dc	 add         r3, r3, #0xDC
  01570	e5933000	 ldr         r3, [r3]
  01574	e3530004	 cmp         r3, #4
  01578	1a000005	 bne         |$LN2@UpdateSyst|
  0157c		 |$LN1@UpdateSyst|

; 823  : 		    		{
; 824  :                         OUTREG32(&m_pbRegisters->MMCHS_SYSCONFIG, 
; 825  :                             MMCHS_SYSCONFIG_AUTOIDLE | 
; 826  :                             MMCHS_SYSCONFIG_CLOCKACTIVITY(0) | 
; 827  :                             MMCHS_SYSCONFIG_SIDLEMODE(SIDLE_FORCE)
; 828  :                             );

  0157c	e59d301c	 ldr         r3, [sp, #0x1C]
  01580	e2833f57	 add         r3, r3, #0x57, 30
  01584	e5933000	 ldr         r3, [r3]
  01588	e2832010	 add         r2, r3, #0x10
  0158c	e3a03001	 mov         r3, #1
  01590	e5823000	 str         r3, [r2]
  01594		 |$LN2@UpdateSyst|
  01594		 |$LN3@UpdateSyst|

; 829  : 					}
; 830  :                 }
; 831  :                 UpdateDevicePowerState(FALSE);

  01594	e3a01000	 mov         r1, #0
  01598	e59d001c	 ldr         r0, [sp, #0x1C]
  0159c	eb000000	 bl          |?UpdateDevicePowerState@CSDIOControllerBase@@QAAXH@Z|
  015a0		 |$LN4@UpdateSyst|
  015a0		 |$LN6@UpdateSyst|
  015a0		 |$LN8@UpdateSyst|

; 832  :             }
; 833  :         }
; 834  :     }
; 835  : 
; 836  :     return TRUE;

  015a0	e3a03001	 mov         r3, #1
  015a4	e58d3004	 str         r3, [sp, #4]

; 837  : }

  015a8	e59d0004	 ldr         r0, [sp, #4]
  015ac	e28dd014	 add         sp, sp, #0x14
  015b0	e89d6000	 ldmia       sp, {sp, lr}
  015b4	e12fff1e	 bx          lr
  015b8		 |$LN21@UpdateSyst|
  015b8		 |$LN22@UpdateSyst|
  015b8	00000000	 DCD         |??_C@_1CO@NJOFCHKF@?$AA?$CL?$AAU?$AAp?$AAd?$AAa?$AAt?$AAe?$AAS?$AAy?$AAs?$AAt?$AAe?$AAm?$AAC?$AAl?$AAo?$AAc?$AAk?$AA?$CI?$AA?$CJ?$AA?$AN?$AA?6?$AA?$AA@|
  015bc		 |$LN23@UpdateSyst|
  015bc	00000000	 DCD         |dpCurSettings|
  015c0		 |$M45264|

			 ENDP  ; |?UpdateSystemClock@CSDIOControllerBase@@QAAHH@Z|, CSDIOControllerBase::UpdateSystemClock

; File c:\wince600\public\common\sdk\inc\kfuncs.h

  00000			 AREA	 |.pdata|, PDATA
|$T45275| DCD	|$LN5@SetEvent|
	DCD	0x40000e04
; Function compile flags: /Odtp

  00000			 AREA	 |.text|, CODE, ARM

  00000		 |SetEvent| PROC

; 235  : _inline BOOL SetEvent(HANDLE h) {

  00000		 |$LN5@SetEvent|
  00000	e1a0c00d	 mov         r12, sp
  00004	e92d0001	 stmdb       sp!, {r0}
  00008	e92d5000	 stmdb       sp!, {r12, lr}
  0000c	e24dd008	 sub         sp, sp, #8
  00010		 |$M45272|

; 236  : 	return EventModify(h,EVENT_SET);

  00010	e3a01003	 mov         r1, #3
  00014	e59d0010	 ldr         r0, [sp, #0x10]
  00018	eb000000	 bl          EventModify
  0001c	e58d0004	 str         r0, [sp, #4]
  00020	e59d3004	 ldr         r3, [sp, #4]
  00024	e58d3000	 str         r3, [sp]

; 237  : }

  00028	e59d0000	 ldr         r0, [sp]
  0002c	e28dd008	 add         sp, sp, #8
  00030	e89d6000	 ldmia       sp, {sp, lr}
  00034	e12fff1e	 bx          lr
  00038		 |$M45273|

			 ENDP  ; |SetEvent|

	IMPORT	|SetDevicePowerState|

  00078			 AREA	 |.pdata|, PDATA
|$T45284| DCD	|$LN14@UpdateDevi|
	DCD	0x40005b04
; Function compile flags: /Odtp
; File c:\wince600\platform\common\src\soc\common_ti_v1\common_ti\sdhc\base\sdhc.cpp

  015c0			 AREA	 |.text|, CODE, ARM

  015c0		 |?UpdateDevicePowerState@CSDIOControllerBase@@QAAXH@Z| PROC ; CSDIOControllerBase::UpdateDevicePowerState

; 841  : {

  015c0		 |$LN14@UpdateDevi|
  015c0	e1a0c00d	 mov         r12, sp
  015c4	e92d0003	 stmdb       sp!, {r0, r1}
  015c8	e92d5000	 stmdb       sp!, {r12, lr}
  015cc	e24dd008	 sub         sp, sp, #8
  015d0		 |$M45281|

; 842  :     CEDEVICE_POWER_STATE curPowerState = D4;

  015d0	e3a03004	 mov         r3, #4
  015d4	e58d3000	 str         r3, [sp]

; 843  : 
; 844  :     // if card is present then lowest power state is D3
; 845  :     if (m_fCardPresent)

  015d8	e59d3010	 ldr         r3, [sp, #0x10]
  015dc	e28330f0	 add         r3, r3, #0xF0
  015e0	e5933000	 ldr         r3, [r3]
  015e4	e3530000	 cmp         r3, #0
  015e8	0a000001	 beq         |$LN7@UpdateDevi|

; 846  :         curPowerState = D3;

  015ec	e3a03003	 mov         r3, #3
  015f0	e58d3000	 str         r3, [sp]
  015f4		 |$LN7@UpdateDevi|

; 847  : 
; 848  :     curPowerState = min(curPowerState, m_InternPowerState);

  015f4	e59d3010	 ldr         r3, [sp, #0x10]
  015f8	e28330dc	 add         r3, r3, #0xDC
  015fc	e59d2000	 ldr         r2, [sp]
  01600	e5933000	 ldr         r3, [r3]
  01604	e1520003	 cmp         r2, r3
  01608	aa000002	 bge         |$LN10@UpdateDevi|
  0160c	e59d3000	 ldr         r3, [sp]
  01610	e58d3004	 str         r3, [sp, #4]
  01614	ea000003	 b           |$LN11@UpdateDevi|
  01618		 |$LN10@UpdateDevi|
  01618	e59d3010	 ldr         r3, [sp, #0x10]
  0161c	e28330dc	 add         r3, r3, #0xDC
  01620	e5933000	 ldr         r3, [r3]
  01624	e58d3004	 str         r3, [sp, #4]
  01628		 |$LN11@UpdateDevi|
  01628	e59d3004	 ldr         r3, [sp, #4]
  0162c	e58d3000	 str         r3, [sp]

; 849  : 
; 850  :     if((m_ActualPowerState == D4 && curPowerState < D4 ) || (m_ActualPowerState < D4 && curPowerState == D4 ))

  01630	e59d3010	 ldr         r3, [sp, #0x10]
  01634	e28330e0	 add         r3, r3, #0xE0
  01638	e5933000	 ldr         r3, [r3]
  0163c	e3530004	 cmp         r3, #4
  01640	1a000002	 bne         |$LN4@UpdateDevi|
  01644	e59d3000	 ldr         r3, [sp]
  01648	e3530004	 cmp         r3, #4
  0164c	ba000007	 blt         |$LN5@UpdateDevi|
  01650		 |$LN4@UpdateDevi|
  01650	e59d3010	 ldr         r3, [sp, #0x10]
  01654	e28330e0	 add         r3, r3, #0xE0
  01658	e5933000	 ldr         r3, [r3]
  0165c	e3530004	 cmp         r3, #4
  01660	aa00000b	 bge         |$LN6@UpdateDevi|
  01664	e59d3000	 ldr         r3, [sp]
  01668	e3530004	 cmp         r3, #4
  0166c	1a000008	 bne         |$LN6@UpdateDevi|
  01670		 |$LN5@UpdateDevi|

; 851  :         PreparePowerChange(curPowerState, bInPowerHandler);

  01670	e59d2014	 ldr         r2, [sp, #0x14]
  01674	e59d1000	 ldr         r1, [sp]
  01678	e59d3010	 ldr         r3, [sp, #0x10]
  0167c	e5933000	 ldr         r3, [r3]
  01680	e283301c	 add         r3, r3, #0x1C
  01684	e59d0010	 ldr         r0, [sp, #0x10]
  01688	e5933000	 ldr         r3, [r3]
  0168c	e1a0e00f	 mov         lr, pc
  01690	e12fff13	 bx          r3
  01694		 |$LN6@UpdateDevi|

; 852  : 
; 853  :     SetDevicePowerState( m_hParentBus, curPowerState, NULL );

  01694	e3a02000	 mov         r2, #0
  01698	e59d1000	 ldr         r1, [sp]
  0169c	e59d3010	 ldr         r3, [sp, #0x10]
  016a0	e28330ac	 add         r3, r3, #0xAC
  016a4	e5930000	 ldr         r0, [r3]
  016a8	eb000000	 bl          SetDevicePowerState

; 854  : 
; 855  :     if((m_ActualPowerState == D4 && curPowerState < D4 ) || (m_ActualPowerState < D4 && curPowerState == D4 ))

  016ac	e59d3010	 ldr         r3, [sp, #0x10]
  016b0	e28330e0	 add         r3, r3, #0xE0
  016b4	e5933000	 ldr         r3, [r3]
  016b8	e3530004	 cmp         r3, #4
  016bc	1a000002	 bne         |$LN1@UpdateDevi|
  016c0	e59d3000	 ldr         r3, [sp]
  016c4	e3530004	 cmp         r3, #4
  016c8	ba000007	 blt         |$LN2@UpdateDevi|
  016cc		 |$LN1@UpdateDevi|
  016cc	e59d3010	 ldr         r3, [sp, #0x10]
  016d0	e28330e0	 add         r3, r3, #0xE0
  016d4	e5933000	 ldr         r3, [r3]
  016d8	e3530004	 cmp         r3, #4
  016dc	aa00000b	 bge         |$LN3@UpdateDevi|
  016e0	e59d3000	 ldr         r3, [sp]
  016e4	e3530004	 cmp         r3, #4
  016e8	1a000008	 bne         |$LN3@UpdateDevi|
  016ec		 |$LN2@UpdateDevi|

; 856  :         PostPowerChange(curPowerState, bInPowerHandler);

  016ec	e59d2014	 ldr         r2, [sp, #0x14]
  016f0	e59d1000	 ldr         r1, [sp]
  016f4	e59d3010	 ldr         r3, [sp, #0x10]
  016f8	e5933000	 ldr         r3, [r3]
  016fc	e2833020	 add         r3, r3, #0x20
  01700	e59d0010	 ldr         r0, [sp, #0x10]
  01704	e5933000	 ldr         r3, [r3]
  01708	e1a0e00f	 mov         lr, pc
  0170c	e12fff13	 bx          r3
  01710		 |$LN3@UpdateDevi|

; 857  : 
; 858  :     m_ActualPowerState = curPowerState;

  01710	e59d3010	 ldr         r3, [sp, #0x10]
  01714	e28320e0	 add         r2, r3, #0xE0
  01718	e59d3000	 ldr         r3, [sp]
  0171c	e5823000	 str         r3, [r2]

; 859  : }

  01720	e28dd008	 add         sp, sp, #8
  01724	e89d6000	 ldmia       sp, {sp, lr}
  01728	e12fff1e	 bx          lr
  0172c		 |$M45282|

			 ENDP  ; |?UpdateDevicePowerState@CSDIOControllerBase@@QAAXH@Z|, CSDIOControllerBase::UpdateDevicePowerState

	EXPORT	|?SendCmdNoResp@CSDIOControllerBase@@QAAJKK@Z| ; CSDIOControllerBase::SendCmdNoResp

  00080			 AREA	 |.pdata|, PDATA
|$T45293| DCD	|$LN12@SendCmdNoR|
	DCD	0x40006d04
; Function compile flags: /Odtp

  0172c			 AREA	 |.text|, CODE, ARM

  0172c		 |?SendCmdNoResp@CSDIOControllerBase@@QAAJKK@Z| PROC ; CSDIOControllerBase::SendCmdNoResp

; 864  : {

  0172c		 |$LN12@SendCmdNoR|
  0172c	e1a0c00d	 mov         r12, sp
  01730	e92d0007	 stmdb       sp!, {r0 - r2}
  01734	e92d5000	 stmdb       sp!, {r12, lr}
  01738	e24dd018	 sub         sp, sp, #0x18
  0173c		 |$M45290|

; 865  :     DWORD MMC_CMD;
; 866  :     DWORD dwTimeout;
; 867  : 
; 868  :     OUTREG32(&m_pbRegisters->MMCHS_STAT, 0xFFFFFFFF);

  0173c	e59d3020	 ldr         r3, [sp, #0x20]
  01740	e2833f57	 add         r3, r3, #0x57, 30
  01744	e5933000	 ldr         r3, [r3]
  01748	e2832e13	 add         r2, r3, #0x13, 28
  0174c	e3e03000	 mvn         r3, #0
  01750	e5823000	 str         r3, [r2]

; 869  :     dwTimeout = 80000;

  01754	e3a03b4e	 mov         r3, #0x4E, 22
  01758	e3833080	 orr         r3, r3, #0x80
  0175c	e58d3008	 str         r3, [sp, #8]
  01760		 |$LN5@SendCmdNoR|

; 870  :     while(((INREG32(&m_pbRegisters->MMCHS_PSTATE) & MMCHS_PSTAT_CMDI)) && (dwTimeout>0))

  01760	e59d3020	 ldr         r3, [sp, #0x20]
  01764	e2833f57	 add         r3, r3, #0x57, 30
  01768	e5933000	 ldr         r3, [r3]
  0176c	e2833f49	 add         r3, r3, #0x49, 30
  01770	e5933000	 ldr         r3, [r3]
  01774	e3130001	 tst         r3, #1
  01778	0a000006	 beq         |$LN4@SendCmdNoR|
  0177c	e59d3008	 ldr         r3, [sp, #8]
  01780	e3530000	 cmp         r3, #0
  01784	9a000003	 bls         |$LN4@SendCmdNoR|

; 871  :     {
; 872  :         dwTimeout--;

  01788	e59d3008	 ldr         r3, [sp, #8]
  0178c	e2433001	 sub         r3, r3, #1
  01790	e58d3008	 str         r3, [sp, #8]

; 873  :     }

  01794	eafffff1	 b           |$LN5@SendCmdNoR|
  01798		 |$LN4@SendCmdNoR|

; 874  : 
; 875  :     MMC_CMD = MMCHS_INDX(cmd);

  01798	e59d3024	 ldr         r3, [sp, #0x24]
  0179c	e1a03c03	 mov         r3, r3, lsl #24
  017a0	e58d3004	 str         r3, [sp, #4]

; 876  :     MMC_CMD |= LOOKUP_CMD(cmd).flags;

  017a4	e59d3024	 ldr         r3, [sp, #0x24]
  017a8	e353003c	 cmp         r3, #0x3C
  017ac	1a000007	 bne         |$LN8@SendCmdNoR|
  017b0	e59d3020	 ldr         r3, [sp, #0x20]
  017b4	e2833f66	 add         r3, r3, #0x66, 30
  017b8	e5933000	 ldr         r3, [r3]
  017bc	e3530000	 cmp         r3, #0
  017c0	0a000002	 beq         |$LN8@SendCmdNoR|
  017c4	e59f3110	 ldr         r3, [pc, #0x110]
  017c8	e58d3014	 str         r3, [sp, #0x14]
  017cc	ea000005	 b           |$LN9@SendCmdNoR|
  017d0		 |$LN8@SendCmdNoR|
  017d0	e59d1024	 ldr         r1, [sp, #0x24]
  017d4	e3a03008	 mov         r3, #8
  017d8	e0020391	 mul         r2, r1, r3
  017dc	e59f30f4	 ldr         r3, [pc, #0xF4]
  017e0	e0833002	 add         r3, r3, r2
  017e4	e58d3014	 str         r3, [sp, #0x14]
  017e8		 |$LN9@SendCmdNoR|
  017e8	e59d3014	 ldr         r3, [sp, #0x14]
  017ec	e58d300c	 str         r3, [sp, #0xC]
  017f0	e59d300c	 ldr         r3, [sp, #0xC]
  017f4	e2833004	 add         r3, r3, #4
  017f8	e59d2004	 ldr         r2, [sp, #4]
  017fc	e5933000	 ldr         r3, [r3]
  01800	e1823003	 orr         r3, r2, r3
  01804	e58d3004	 str         r3, [sp, #4]

; 877  : 
; 878  :     // Program the argument into the argument registers
; 879  :     OUTREG32(&m_pbRegisters->MMCHS_ARG, arg);

  01808	e59d3020	 ldr         r3, [sp, #0x20]
  0180c	e2833f57	 add         r3, r3, #0x57, 30
  01810	e5933000	 ldr         r3, [r3]
  01814	e2832f42	 add         r2, r3, #0x42, 30
  01818	e59d3028	 ldr         r3, [sp, #0x28]
  0181c	e5823000	 str         r3, [r2]

; 880  :     // Issue the command.
; 881  :     OUTREG32(&m_pbRegisters->MMCHS_CMD, MMC_CMD);

  01820	e59d3020	 ldr         r3, [sp, #0x20]
  01824	e2833f57	 add         r3, r3, #0x57, 30
  01828	e5933000	 ldr         r3, [r3]
  0182c	e2832f43	 add         r2, r3, #0x43, 30
  01830	e59d3004	 ldr         r3, [sp, #4]
  01834	e5823000	 str         r3, [r2]

; 882  : 
; 883  :     dwTimeout = 5000;

  01838	e3a03c13	 mov         r3, #0x13, 24
  0183c	e3833088	 orr         r3, r3, #0x88
  01840	e58d3008	 str         r3, [sp, #8]
  01844		 |$LN3@SendCmdNoR|

; 884  :     DWORD dwVal;
; 885  :     while(dwTimeout > 0)

  01844	e59d3008	 ldr         r3, [sp, #8]
  01848	e3530000	 cmp         r3, #0
  0184c	9a00000f	 bls         |$LN2@SendCmdNoR|

; 886  :     {
; 887  :         dwTimeout --;

  01850	e59d3008	 ldr         r3, [sp, #8]
  01854	e2433001	 sub         r3, r3, #1
  01858	e58d3008	 str         r3, [sp, #8]

; 888  :         dwVal = INREG32(&m_pbRegisters->MMCHS_STAT);

  0185c	e59d3020	 ldr         r3, [sp, #0x20]
  01860	e2833f57	 add         r3, r3, #0x57, 30
  01864	e5933000	 ldr         r3, [r3]
  01868	e2833e13	 add         r3, r3, #0x13, 28
  0186c	e5933000	 ldr         r3, [r3]
  01870	e58d3000	 str         r3, [sp]

; 889  :         if(dwVal & (MMCHS_STAT_CC | MMCHS_STAT_CTO | MMCHS_STAT_CERR)) break;

  01874	e59d2000	 ldr         r2, [sp]
  01878	e3a03211	 mov         r3, #0x11, 4
  0187c	e3833801	 orr         r3, r3, #1, 16
  01880	e1120003	 tst         r2, r3
  01884	0a000000	 beq         |$LN1@SendCmdNoR|
  01888	ea000000	 b           |$LN2@SendCmdNoR|
  0188c		 |$LN1@SendCmdNoR|

; 890  :     }

  0188c	eaffffec	 b           |$LN3@SendCmdNoR|
  01890		 |$LN2@SendCmdNoR|

; 891  : 
; 892  :     dwVal = INREG32(&m_pbRegisters->MMCHS_STAT);

  01890	e59d3020	 ldr         r3, [sp, #0x20]
  01894	e2833f57	 add         r3, r3, #0x57, 30
  01898	e5933000	 ldr         r3, [r3]
  0189c	e2833e13	 add         r3, r3, #0x13, 28
  018a0	e5933000	 ldr         r3, [r3]
  018a4	e58d3000	 str         r3, [sp]

; 893  :     OUTREG32(&m_pbRegisters->MMCHS_STAT, dwVal);

  018a8	e59d3020	 ldr         r3, [sp, #0x20]
  018ac	e2833f57	 add         r3, r3, #0x57, 30
  018b0	e5933000	 ldr         r3, [r3]
  018b4	e2832e13	 add         r2, r3, #0x13, 28
  018b8	e59d3000	 ldr         r3, [sp]
  018bc	e5823000	 str         r3, [r2]

; 894  : 
; 895  :     // always return 0 if no response needed
; 896  :     return SD_API_STATUS_SUCCESS;

  018c0	e3a03000	 mov         r3, #0
  018c4	e58d3010	 str         r3, [sp, #0x10]

; 897  : }

  018c8	e59d0010	 ldr         r0, [sp, #0x10]
  018cc	e28dd018	 add         sp, sp, #0x18
  018d0	e89d6000	 ldmia       sp, {sp, lr}
  018d4	e12fff1e	 bx          lr
  018d8		 |$LN13@SendCmdNoR|
  018d8		 |$LN14@SendCmdNoR|
  018d8	00000000	 DCD         |?gwaCMD@@3PAUCMD@@A|
  018dc		 |$LN15@SendCmdNoR|
  018dc	00000000	 DCD         |?gwaCMD60_HS@@3UCMD@@A|
  018e0		 |$M45291|

			 ENDP  ; |?SendCmdNoResp@CSDIOControllerBase@@QAAJKK@Z|, CSDIOControllerBase::SendCmdNoResp

	EXPORT	|?SendInitSequence@CSDIOControllerBase@@QAAXXZ| ; CSDIOControllerBase::SendInitSequence

  00088			 AREA	 |.pdata|, PDATA
|$T45301| DCD	|$LN8@SendInitSe|
	DCD	0x40003e04
; Function compile flags: /Odtp

  018e0			 AREA	 |.text|, CODE, ARM

  018e0		 |?SendInitSequence@CSDIOControllerBase@@QAAXXZ| PROC ; CSDIOControllerBase::SendInitSequence

; 902  : {

  018e0		 |$LN8@SendInitSe|
  018e0	e1a0c00d	 mov         r12, sp
  018e4	e92d0001	 stmdb       sp!, {r0}
  018e8	e92d5000	 stmdb       sp!, {r12, lr}
  018ec	e24dd004	 sub         sp, sp, #4
  018f0		 |$M45298|

; 903  :     EnterCriticalSection( &m_critSec );

  018f0	e59d300c	 ldr         r3, [sp, #0xC]
  018f4	e28300b0	 add         r0, r3, #0xB0
  018f8	eb000000	 bl          EnterCriticalSection

; 904  :     OUTREG32(&m_pbRegisters->MMCHS_IE,  0xFFFFFEFF);

  018fc	e59d300c	 ldr         r3, [sp, #0xC]
  01900	e2833f57	 add         r3, r3, #0x57, 30
  01904	e5933000	 ldr         r3, [r3]
  01908	e2832f4d	 add         r2, r3, #0x4D, 30
  0190c	e3e03c01	 mvn         r3, #1, 24
  01910	e5823000	 str         r3, [r2]

; 905  :     SETREG32(&m_pbRegisters->MMCHS_CON, MMCHS_CON_INIT);

  01914	e59d300c	 ldr         r3, [sp, #0xC]
  01918	e2833f57	 add         r3, r3, #0x57, 30
  0191c	e5933000	 ldr         r3, [r3]
  01920	e283302c	 add         r3, r3, #0x2C
  01924	e5933000	 ldr         r3, [r3]
  01928	e3832002	 orr         r2, r3, #2
  0192c	e59d300c	 ldr         r3, [sp, #0xC]
  01930	e2833f57	 add         r3, r3, #0x57, 30
  01934	e5933000	 ldr         r3, [r3]
  01938	e283302c	 add         r3, r3, #0x2C
  0193c	e5832000	 str         r2, [r3]

; 906  : 
; 907  :     DWORD dwCount;
; 908  :     for(dwCount = 0; dwCount < 10; dwCount ++)

  01940	e3a03000	 mov         r3, #0
  01944	e58d3000	 str         r3, [sp]
  01948	ea000002	 b           |$LN3@SendInitSe|
  0194c		 |$LN2@SendInitSe|
  0194c	e59d3000	 ldr         r3, [sp]
  01950	e2833001	 add         r3, r3, #1
  01954	e58d3000	 str         r3, [sp]
  01958		 |$LN3@SendInitSe|
  01958	e59d3000	 ldr         r3, [sp]
  0195c	e353000a	 cmp         r3, #0xA
  01960	2a000004	 bcs         |$LN1@SendInitSe|

; 909  :     {
; 910  :         SendCmdNoResp(SD_CMD_GO_IDLE_STATE, 0xFFFFFFFF);

  01964	e3e02000	 mvn         r2, #0
  01968	e3a01000	 mov         r1, #0
  0196c	e59d000c	 ldr         r0, [sp, #0xC]
  01970	eb000000	 bl          |?SendCmdNoResp@CSDIOControllerBase@@QAAJKK@Z|

; 911  :     }

  01974	eafffff4	 b           |$LN2@SendInitSe|
  01978		 |$LN1@SendInitSe|

; 912  :     OUTREG32(&m_pbRegisters->MMCHS_STAT, 0xFFFFFFFF);

  01978	e59d300c	 ldr         r3, [sp, #0xC]
  0197c	e2833f57	 add         r3, r3, #0x57, 30
  01980	e5933000	 ldr         r3, [r3]
  01984	e2832e13	 add         r2, r3, #0x13, 28
  01988	e3e03000	 mvn         r3, #0
  0198c	e5823000	 str         r3, [r2]

; 913  :     CLRREG32(&m_pbRegisters->MMCHS_CON, MMCHS_CON_INIT);

  01990	e59d300c	 ldr         r3, [sp, #0xC]
  01994	e2833f57	 add         r3, r3, #0x57, 30
  01998	e5933000	 ldr         r3, [r3]
  0199c	e283302c	 add         r3, r3, #0x2C
  019a0	e5932000	 ldr         r2, [r3]
  019a4	e3e03002	 mvn         r3, #2
  019a8	e0022003	 and         r2, r2, r3
  019ac	e59d300c	 ldr         r3, [sp, #0xC]
  019b0	e2833f57	 add         r3, r3, #0x57, 30
  019b4	e5933000	 ldr         r3, [r3]
  019b8	e283302c	 add         r3, r3, #0x2C
  019bc	e5832000	 str         r2, [r3]

; 914  :     LeaveCriticalSection( &m_critSec );

  019c0	e59d300c	 ldr         r3, [sp, #0xC]
  019c4	e28300b0	 add         r0, r3, #0xB0
  019c8	eb000000	 bl          LeaveCriticalSection

; 915  : }

  019cc	e28dd004	 add         sp, sp, #4
  019d0	e89d6000	 ldmia       sp, {sp, lr}
  019d4	e12fff1e	 bx          lr
  019d8		 |$M45299|

			 ENDP  ; |?SendInitSequence@CSDIOControllerBase@@QAAXXZ|, CSDIOControllerBase::SendInitSequence

	EXPORT	|??_C@_1HO@LOCLBPFC@?$AAS?$AAe?$AAn?$AAd?$AAC?$AAo?$AAm?$AAm?$AAa?$AAn?$AAd?$AA?$CI?$AA?$CJ?$AA?5?$AA?9?$AA?5?$AAr?$AAe?$AAg?$AAi?$AAs?$AAt?$AAe?$AAr?$AAs?$AA?3?$AAC?$AAo?$AAm?$AAm?$AAa?$AAn@| [ DATA ] ; `string'
	EXPORT	|??_C@_1FE@OEOLMLE@?$AAS?$AAe?$AAn?$AAd?$AAC?$AAo?$AAm?$AAm?$AAa?$AAn?$AAd?$AA?3?$AA?3?$AA?5?$AAb?$AAr?$AAa?$AAn?$AAc?$AAh?$AA?5?$AAf?$AAo?$AAr?$AA?5?$AAs?$AAw?$AAi?$AAt?$AAc?$AAh?$AA?5@| [ DATA ] ; `string'
	EXPORT	|?Write_MMC_STAT@CSDIOControllerBase@@QAAXK@Z| ; CSDIOControllerBase::Write_MMC_STAT
	EXPORT	|??_C@_1JE@FAMEDKFO@?$AAS?$AAe?$AAn?$AAd?$AAC?$AAo?$AAm?$AAm?$AAa?$AAn?$AAd?$AA?5?$AA?$CI?$AAC?$AAm?$AAd?$AA?$DN?$AA0?$AAx?$AA?$CF?$AA0?$AA8?$AAX?$AA?0?$AA?5?$AAA?$AAr?$AAg?$AA?$DN?$AA0?$AAx?$AA?$CF@| [ DATA ] ; `string'
	EXPORT	|??_C@_1KE@KBBNINAM@?$AAS?$AAe?$AAn?$AAd?$AAC?$AAo?$AAm?$AAm?$AAa?$AAn?$AAd?$AA?5?$AA?$CI?$AAC?$AAm?$AAd?$AA?$DN?$AA0?$AAx?$AA?$CF?$AA0?$AA8?$AAX?$AA?0?$AA?5?$AAA?$AAr?$AAg?$AA?$DN?$AA0?$AAx?$AA?$CF@| [ DATA ] ; `string'
	EXPORT	|??_C@_1JO@GHLNKHDB@?$AAS?$AAe?$AAn?$AAd?$AAC?$AAo?$AAm?$AAm?$AAa?$AAn?$AAd?$AA?$CI?$AA?$CJ?$AA?5?$AA?9?$AA?5?$AAC?$AAm?$AAd?$AA?5?$AA?$DN?$AA?5?$AA0?$AAx?$AA?$CF?$AAx?$AA?5?$AAA?$AAr?$AAg?$AA?5?$AA?$DN@| [ DATA ] ; `string'
	EXPORT	|?SendCommand@CSDIOControllerBase@@QAAJPAU_SD_BUS_REQUEST@@@Z| ; CSDIOControllerBase::SendCommand
	IMPORT	|?SDIO_InitOutputDMA@CSDIOControllerBase@@QAAXKK@Z| ; CSDIOControllerBase::SDIO_InitOutputDMA
	IMPORT	|?SDIO_InitInputDMA@CSDIOControllerBase@@QAAXKK@Z| ; CSDIOControllerBase::SDIO_InitInputDMA

  00090			 AREA	 |.pdata|, PDATA
|$T45334| DCD	|$LN50@SendComman|
	DCD	0x40023504

  00000			 AREA	 |.rdata|, DATA, READONLY
|??_C@_1HO@LOCLBPFC@?$AAS?$AAe?$AAn?$AAd?$AAC?$AAo?$AAm?$AAm?$AAa?$AAn?$AAd?$AA?$CI?$AA?$CJ?$AA?5?$AA?9?$AA?5?$AAr?$AAe?$AAg?$AAi?$AAs?$AAt?$AAe?$AAr?$AAs?$AA?3?$AAC?$AAo?$AAm?$AAm?$AAa?$AAn@| DCB "S"
	DCB	0x0, "e", 0x0, "n", 0x0, "d", 0x0, "C", 0x0, "o", 0x0, "m"
	DCB	0x0, "m", 0x0, "a", 0x0, "n", 0x0, "d", 0x0, "(", 0x0, ")"
	DCB	0x0, " ", 0x0, "-", 0x0, " ", 0x0, "r", 0x0, "e", 0x0, "g"
	DCB	0x0, "i", 0x0, "s", 0x0, "t", 0x0, "e", 0x0, "r", 0x0, "s"
	DCB	0x0, ":", 0x0, "C", 0x0, "o", 0x0, "m", 0x0, "m", 0x0, "a"
	DCB	0x0, "n", 0x0, "d", 0x0, " ", 0x0, "=", 0x0, " ", 0x0, "0"
	DCB	0x0, "x", 0x0, "%", 0x0, "x", 0x0, ",", 0x0, " ", 0x0, "M"
	DCB	0x0, "M", 0x0, "C", 0x0, "H", 0x0, "S", 0x0, "_", 0x0, "A"
	DCB	0x0, "R", 0x0, "G", 0x0, " ", 0x0, "=", 0x0, " ", 0x0, "0"
	DCB	0x0, "x", 0x0, "%", 0x0, "x", 0x0, "%", 0x0, "x", 0x0, 0xd
	DCB	0x0, 0xa, 0x0, 0x0, 0x0			; `string'

  00000			 AREA	 |.rdata|, DATA, READONLY
|??_C@_1FE@OEOLMLE@?$AAS?$AAe?$AAn?$AAd?$AAC?$AAo?$AAm?$AAm?$AAa?$AAn?$AAd?$AA?3?$AA?3?$AA?5?$AAb?$AAr?$AAa?$AAn?$AAc?$AAh?$AA?5?$AAf?$AAo?$AAr?$AA?5?$AAs?$AAw?$AAi?$AAt?$AAc?$AAh?$AA?5@| DCB "S"
	DCB	0x0, "e", 0x0, "n", 0x0, "d", 0x0, "C", 0x0, "o", 0x0, "m"
	DCB	0x0, "m", 0x0, "a", 0x0, "n", 0x0, "d", 0x0, ":", 0x0, ":"
	DCB	0x0, " ", 0x0, "b", 0x0, "r", 0x0, "a", 0x0, "n", 0x0, "c"
	DCB	0x0, "h", 0x0, " ", 0x0, "f", 0x0, "o", 0x0, "r", 0x0, " "
	DCB	0x0, "s", 0x0, "w", 0x0, "i", 0x0, "t", 0x0, "c", 0x0, "h"
	DCB	0x0, " ", 0x0, "c", 0x0, "o", 0x0, "m", 0x0, "m", 0x0, "a"
	DCB	0x0, "n", 0x0, "d", 0x0, 0xd, 0x0, 0xa, 0x0, 0x0, 0x0 ; `string'

  00000			 AREA	 |.rdata|, DATA, READONLY
|??_C@_1JE@FAMEDKFO@?$AAS?$AAe?$AAn?$AAd?$AAC?$AAo?$AAm?$AAm?$AAa?$AAn?$AAd?$AA?5?$AA?$CI?$AAC?$AAm?$AAd?$AA?$DN?$AA0?$AAx?$AA?$CF?$AA0?$AA8?$AAX?$AA?0?$AA?5?$AAA?$AAr?$AAg?$AA?$DN?$AA0?$AAx?$AA?$CF@| DCB "S"
	DCB	0x0, "e", 0x0, "n", 0x0, "d", 0x0, "C", 0x0, "o", 0x0, "m"
	DCB	0x0, "m", 0x0, "a", 0x0, "n", 0x0, "d", 0x0, " ", 0x0, "("
	DCB	0x0, "C", 0x0, "m", 0x0, "d", 0x0, "=", 0x0, "0", 0x0, "x"
	DCB	0x0, "%", 0x0, "0", 0x0, "8", 0x0, "X", 0x0, ",", 0x0, " "
	DCB	0x0, "A", 0x0, "r", 0x0, "g", 0x0, "=", 0x0, "0", 0x0, "x"
	DCB	0x0, "%", 0x0, "0", 0x0, "8", 0x0, "x", 0x0, ",", 0x0, " "
	DCB	0x0, "R", 0x0, "e", 0x0, "s", 0x0, "p", 0x0, "T", 0x0, "y"
	DCB	0x0, "p", 0x0, "e", 0x0, "=", 0x0, "0", 0x0, "x", 0x0, "%"
	DCB	0x0, "0", 0x0, "8", 0x0, "X", 0x0, ",", 0x0, " ", 0x0, "D"
	DCB	0x0, "a", 0x0, "t", 0x0, "a", 0x0, "=", 0x0, "0", 0x0, "x"
	DCB	0x0, "%", 0x0, "x", 0x0, ")", 0x0, " ", 0x0, "s", 0x0, "t"
	DCB	0x0, "a", 0x0, "r", 0x0, "t", 0x0, "s", 0x0, 0xd, 0x0, 0xa
	DCB	0x0, 0x0, 0x0				; `string'

  00000			 AREA	 |.rdata|, DATA, READONLY
|??_C@_1KE@KBBNINAM@?$AAS?$AAe?$AAn?$AAd?$AAC?$AAo?$AAm?$AAm?$AAa?$AAn?$AAd?$AA?5?$AA?$CI?$AAC?$AAm?$AAd?$AA?$DN?$AA0?$AAx?$AA?$CF?$AA0?$AA8?$AAX?$AA?0?$AA?5?$AAA?$AAr?$AAg?$AA?$DN?$AA0?$AAx?$AA?$CF@| DCB "S"
	DCB	0x0, "e", 0x0, "n", 0x0, "d", 0x0, "C", 0x0, "o", 0x0, "m"
	DCB	0x0, "m", 0x0, "a", 0x0, "n", 0x0, "d", 0x0, " ", 0x0, "("
	DCB	0x0, "C", 0x0, "m", 0x0, "d", 0x0, "=", 0x0, "0", 0x0, "x"
	DCB	0x0, "%", 0x0, "0", 0x0, "8", 0x0, "X", 0x0, ",", 0x0, " "
	DCB	0x0, "A", 0x0, "r", 0x0, "g", 0x0, "=", 0x0, "0", 0x0, "x"
	DCB	0x0, "%", 0x0, "0", 0x0, "8", 0x0, "x", 0x0, ",", 0x0, " "
	DCB	0x0, "R", 0x0, "e", 0x0, "s", 0x0, "p", 0x0, "T", 0x0, "y"
	DCB	0x0, "p", 0x0, "e", 0x0, "=", 0x0, "0", 0x0, "x", 0x0, "%"
	DCB	0x0, "0", 0x0, "8", 0x0, "X", 0x0, ",", 0x0, " ", 0x0, "D"
	DCB	0x0, "a", 0x0, "t", 0x0, "a", 0x0, "=", 0x0, "0", 0x0, "x"
	DCB	0x0, "%", 0x0, "x", 0x0, " ", 0x0, "<", 0x0, "%", 0x0, "d"
	DCB	0x0, "x", 0x0, "%", 0x0, "d", 0x0, ">", 0x0, ")", 0x0, " "
	DCB	0x0, "s", 0x0, "t", 0x0, "a", 0x0, "r", 0x0, "t", 0x0, "s"
	DCB	0x0, 0xd, 0x0, 0xa, 0x0, 0x0, 0x0	; `string'

  00000			 AREA	 |.rdata|, DATA, READONLY
|??_C@_1JO@GHLNKHDB@?$AAS?$AAe?$AAn?$AAd?$AAC?$AAo?$AAm?$AAm?$AAa?$AAn?$AAd?$AA?$CI?$AA?$CJ?$AA?5?$AA?9?$AA?5?$AAC?$AAm?$AAd?$AA?5?$AA?$DN?$AA?5?$AA0?$AAx?$AA?$CF?$AAx?$AA?5?$AAA?$AAr?$AAg?$AA?5?$AA?$DN@| DCB "S"
	DCB	0x0, "e", 0x0, "n", 0x0, "d", 0x0, "C", 0x0, "o", 0x0, "m"
	DCB	0x0, "m", 0x0, "a", 0x0, "n", 0x0, "d", 0x0, "(", 0x0, ")"
	DCB	0x0, " ", 0x0, "-", 0x0, " ", 0x0, "C", 0x0, "m", 0x0, "d"
	DCB	0x0, " ", 0x0, "=", 0x0, " ", 0x0, "0", 0x0, "x", 0x0, "%"
	DCB	0x0, "x", 0x0, " ", 0x0, "A", 0x0, "r", 0x0, "g", 0x0, " "
	DCB	0x0, "=", 0x0, " ", 0x0, "0", 0x0, "x", 0x0, "%", 0x0, "x"
	DCB	0x0, " ", 0x0, "r", 0x0, "e", 0x0, "s", 0x0, "p", 0x0, "T"
	DCB	0x0, "y", 0x0, "p", 0x0, "e", 0x0, " ", 0x0, "=", 0x0, " "
	DCB	0x0, "0", 0x0, "x", 0x0, "%", 0x0, "x", 0x0, " ", 0x0, "m"
	DCB	0x0, "_", 0x0, "T", 0x0, "r", 0x0, "a", 0x0, "n", 0x0, "s"
	DCB	0x0, "f", 0x0, "e", 0x0, "r", 0x0, "C", 0x0, "l", 0x0, "a"
	DCB	0x0, "s", 0x0, "s", 0x0, " ", 0x0, "=", 0x0, " ", 0x0, "0"
	DCB	0x0, "x", 0x0, "%", 0x0, "x", 0x0, 0xd, 0x0, 0xa, 0x0, 0x0
	DCB	0x0					; `string'
; Function compile flags: /Odtp

  019d8			 AREA	 |.text|, CODE, ARM

  019d8		 |?SendCommand@CSDIOControllerBase@@QAAJPAU_SD_BUS_REQUEST@@@Z| PROC ; CSDIOControllerBase::SendCommand

; 920  : {

  019d8		 |$LN50@SendComman|
  019d8	e1a0c00d	 mov         r12, sp
  019dc	e92d0003	 stmdb       sp!, {r0, r1}
  019e0	e92d5000	 stmdb       sp!, {r12, lr}
  019e4	e24dd06c	 sub         sp, sp, #0x6C
  019e8		 |$M45331|

; 921  :     DWORD MMC_CMD;
; 922  :     DWORD dwTimeout;
; 923  :     DWORD Cmd = pRequest->CommandCode;

  019e8	e59d3078	 ldr         r3, [sp, #0x78]
  019ec	e2833014	 add         r3, r3, #0x14
  019f0	e5d33000	 ldrb        r3, [r3]
  019f4	e58d301c	 str         r3, [sp, #0x1C]

; 924  :     DWORD Arg = pRequest->CommandArgument;

  019f8	e59d3078	 ldr         r3, [sp, #0x78]
  019fc	e2833018	 add         r3, r3, #0x18
  01a00	e5933000	 ldr         r3, [r3]
  01a04	e58d300c	 str         r3, [sp, #0xC]

; 925  :     UINT16 respType = (UINT16)pRequest->CommandResponse.ResponseType;

  01a08	e59d3078	 ldr         r3, [sp, #0x78]
  01a0c	e283301c	 add         r3, r3, #0x1C
  01a10	e5933000	 ldr         r3, [r3]
  01a14	e1a03803	 mov         r3, r3, lsl #16
  01a18	e1a03823	 mov         r3, r3, lsr #16
  01a1c	e1cd31b8	 strh        r3, [sp, #0x18]

; 926  :     DWORD dwRegVal;
; 927  : 
; 928  :     m_TransferClass = pRequest->TransferClass;

  01a20	e59d3078	 ldr         r3, [sp, #0x78]
  01a24	e2831010	 add         r1, r3, #0x10
  01a28	e59d3074	 ldr         r3, [sp, #0x74]
  01a2c	e2832f76	 add         r2, r3, #0x76, 30
  01a30	e5913000	 ldr         r3, [r1]
  01a34	e5823000	 str         r3, [r2]

; 929  : 
; 930  :     DEBUGMSG(SHC_SEND_ZONE, (TEXT("SendCommand() - Cmd = 0x%x Arg = 0x%x respType = 0x%x m_TransferClass = 0x%x\r\n"),
; 931  :         Cmd, Arg, respType, m_TransferClass));

  01a38	e59f3850	 ldr         r3, [pc, #0x850]
  01a3c	e5933440	 ldr         r3, [r3, #0x440]
  01a40	e3130002	 tst         r3, #2
  01a44	0a00000b	 beq         |$LN28@SendComman|
  01a48	e59d3074	 ldr         r3, [sp, #0x74]
  01a4c	e2833f76	 add         r3, r3, #0x76, 30
  01a50	e5933000	 ldr         r3, [r3]
  01a54	e58d3000	 str         r3, [sp]
  01a58	e1dd31b8	 ldrh        r3, [sp, #0x18]
  01a5c	e59d200c	 ldr         r2, [sp, #0xC]
  01a60	e59d101c	 ldr         r1, [sp, #0x1C]
  01a64	e59f083c	 ldr         r0, [pc, #0x83C]
  01a68	eb000000	 bl          NKDbgPrintfW
  01a6c	e3a03001	 mov         r3, #1
  01a70	e58d3044	 str         r3, [sp, #0x44]
  01a74	ea000001	 b           |$LN29@SendComman|
  01a78		 |$LN28@SendComman|
  01a78	e3a03000	 mov         r3, #0
  01a7c	e58d3044	 str         r3, [sp, #0x44]
  01a80		 |$LN29@SendComman|

; 932  : 
; 933  :     if ((Cmd == SD_CMD_IO_RW_EXTENDED) || (Cmd == SD_CMD_IO_RW_DIRECT))

  01a80	e59d301c	 ldr         r3, [sp, #0x1C]
  01a84	e3530035	 cmp         r3, #0x35
  01a88	0a000002	 beq         |$LN24@SendComman|
  01a8c	e59d301c	 ldr         r3, [sp, #0x1C]
  01a90	e3530034	 cmp         r3, #0x34
  01a94	1a000004	 bne         |$LN25@SendComman|
  01a98		 |$LN24@SendComman|

; 934  :     {
; 935  :         m_dwSDIOCard = 1;

  01a98	e59d3074	 ldr         r3, [sp, #0x74]
  01a9c	e2832f5e	 add         r2, r3, #0x5E, 30
  01aa0	e3a03001	 mov         r3, #1
  01aa4	e5823000	 str         r3, [r2]

; 936  :     } else

  01aa8	ea000009	 b           |$LN23@SendComman|
  01aac		 |$LN25@SendComman|

; 937  :     if ((Cmd == SD_CMD_MMC_SEND_OPCOND) || (Cmd == SD_CMD_GO_IDLE_STATE))

  01aac	e59d301c	 ldr         r3, [sp, #0x1C]
  01ab0	e3530001	 cmp         r3, #1
  01ab4	0a000002	 beq         |$LN21@SendComman|
  01ab8	e59d301c	 ldr         r3, [sp, #0x1C]
  01abc	e3530000	 cmp         r3, #0
  01ac0	1a000003	 bne         |$LN22@SendComman|
  01ac4		 |$LN21@SendComman|

; 938  :     {
; 939  :         m_dwSDIOCard = 0;

  01ac4	e59d3074	 ldr         r3, [sp, #0x74]
  01ac8	e2832f5e	 add         r2, r3, #0x5E, 30
  01acc	e3a03000	 mov         r3, #0
  01ad0	e5823000	 str         r3, [r2]
  01ad4		 |$LN22@SendComman|
  01ad4		 |$LN23@SendComman|

; 940  :     }
; 941  : 
; 942  :     if( m_TransferClass == SD_READ || m_TransferClass == SD_WRITE )

  01ad4	e59d3074	 ldr         r3, [sp, #0x74]
  01ad8	e2833f76	 add         r3, r3, #0x76, 30
  01adc	e5933000	 ldr         r3, [r3]
  01ae0	e3530000	 cmp         r3, #0
  01ae4	0a000004	 beq         |$LN19@SendComman|
  01ae8	e59d3074	 ldr         r3, [sp, #0x74]
  01aec	e2833f76	 add         r3, r3, #0x76, 30
  01af0	e5933000	 ldr         r3, [r3]
  01af4	e3530001	 cmp         r3, #1
  01af8	1a000022	 bne         |$LN20@SendComman|
  01afc		 |$LN19@SendComman|

; 943  :     {
; 944  :         DEBUGMSG(SHC_SDBUS_INTERACT_ZONE, (TEXT("SendCommand (Cmd=0x%08X, Arg=0x%08x, RespType=0x%08X, Data=0x%x <%dx%d>) starts\r\n"),
; 945  :             Cmd, Arg, respType, (m_TransferClass==SD_COMMAND)?FALSE:TRUE, pRequest->NumBlocks, pRequest->BlockSize ) );

  01afc	e59f378c	 ldr         r3, [pc, #0x78C]
  01b00	e5933440	 ldr         r3, [r3, #0x440]
  01b04	e3130040	 tst         r3, #0x40
  01b08	0a00001b	 beq         |$LN32@SendComman|
  01b0c	e59d3074	 ldr         r3, [sp, #0x74]
  01b10	e2833f76	 add         r3, r3, #0x76, 30
  01b14	e5933000	 ldr         r3, [r3]
  01b18	e3530002	 cmp         r3, #2
  01b1c	1a000002	 bne         |$LN30@SendComman|
  01b20	e3a03000	 mov         r3, #0
  01b24	e58d3048	 str         r3, [sp, #0x48]
  01b28	ea000001	 b           |$LN31@SendComman|
  01b2c		 |$LN30@SendComman|
  01b2c	e3a03001	 mov         r3, #1
  01b30	e58d3048	 str         r3, [sp, #0x48]
  01b34		 |$LN31@SendComman|
  01b34	e59d3078	 ldr         r3, [sp, #0x78]
  01b38	e2833040	 add         r3, r3, #0x40
  01b3c	e5933000	 ldr         r3, [r3]
  01b40	e58d3008	 str         r3, [sp, #8]
  01b44	e59d3078	 ldr         r3, [sp, #0x78]
  01b48	e283303c	 add         r3, r3, #0x3C
  01b4c	e5933000	 ldr         r3, [r3]
  01b50	e58d3004	 str         r3, [sp, #4]
  01b54	e59d3048	 ldr         r3, [sp, #0x48]
  01b58	e58d3000	 str         r3, [sp]
  01b5c	e1dd31b8	 ldrh        r3, [sp, #0x18]
  01b60	e59d200c	 ldr         r2, [sp, #0xC]
  01b64	e59d101c	 ldr         r1, [sp, #0x1C]
  01b68	e59f0734	 ldr         r0, [pc, #0x734]
  01b6c	eb000000	 bl          NKDbgPrintfW
  01b70	e3a03001	 mov         r3, #1
  01b74	e58d304c	 str         r3, [sp, #0x4C]
  01b78	ea000001	 b           |$LN33@SendComman|
  01b7c		 |$LN32@SendComman|
  01b7c	e3a03000	 mov         r3, #0
  01b80	e58d304c	 str         r3, [sp, #0x4C]
  01b84		 |$LN33@SendComman|

; 946  : #ifdef ENABLE_RETAIL_OUTPUT
; 947  :         RETAILMSG(1, (TEXT("SendCommand (Cmd=0x%08X, Arg=0x%08x, RespType=0x%08X, Data=0x%x <%dx%d>) starts\r\n"),
; 948  :             Cmd, Arg, respType, (m_TransferClass==SD_COMMAND)?FALSE:TRUE, pRequest->NumBlocks, pRequest->BlockSize ) );
; 949  : #endif
; 950  :     }
; 951  :     else

  01b84	ea000019	 b           |$LN18@SendComman|
  01b88		 |$LN20@SendComman|

; 952  :     {
; 953  :         DEBUGMSG(SHC_SDBUS_INTERACT_ZONE, (TEXT("SendCommand (Cmd=0x%08X, Arg=0x%08x, RespType=0x%08X, Data=0x%x) starts\r\n"),
; 954  :             Cmd, Arg, respType, (m_TransferClass==SD_COMMAND)?FALSE:TRUE) );

  01b88	e59f3700	 ldr         r3, [pc, #0x700]
  01b8c	e5933440	 ldr         r3, [r3, #0x440]
  01b90	e3130040	 tst         r3, #0x40
  01b94	0a000013	 beq         |$LN36@SendComman|
  01b98	e59d3074	 ldr         r3, [sp, #0x74]
  01b9c	e2833f76	 add         r3, r3, #0x76, 30
  01ba0	e5933000	 ldr         r3, [r3]
  01ba4	e3530002	 cmp         r3, #2
  01ba8	1a000002	 bne         |$LN34@SendComman|
  01bac	e3a03000	 mov         r3, #0
  01bb0	e58d3050	 str         r3, [sp, #0x50]
  01bb4	ea000001	 b           |$LN35@SendComman|
  01bb8		 |$LN34@SendComman|
  01bb8	e3a03001	 mov         r3, #1
  01bbc	e58d3050	 str         r3, [sp, #0x50]
  01bc0		 |$LN35@SendComman|
  01bc0	e59d3050	 ldr         r3, [sp, #0x50]
  01bc4	e58d3000	 str         r3, [sp]
  01bc8	e1dd31b8	 ldrh        r3, [sp, #0x18]
  01bcc	e59d200c	 ldr         r2, [sp, #0xC]
  01bd0	e59d101c	 ldr         r1, [sp, #0x1C]
  01bd4	e59f06c4	 ldr         r0, [pc, #0x6C4]
  01bd8	eb000000	 bl          NKDbgPrintfW
  01bdc	e3a03001	 mov         r3, #1
  01be0	e58d3054	 str         r3, [sp, #0x54]
  01be4	ea000001	 b           |$LN37@SendComman|
  01be8		 |$LN36@SendComman|
  01be8	e3a03000	 mov         r3, #0
  01bec	e58d3054	 str         r3, [sp, #0x54]
  01bf0		 |$LN37@SendComman|
  01bf0		 |$LN18@SendComman|

; 955  : #ifdef ENABLE_RETAIL_OUTPUT
; 956  :         RETAILMSG(1, (TEXT("SendCommand (Cmd=0x%08X, Arg=0x%08x, RespType=0x%08X, Data=0x%x) starts\r\n"),
; 957  :             Cmd, Arg, respType, (m_TransferClass==SD_COMMAND)?FALSE:TRUE) );
; 958  : #endif
; 959  :     }
; 960  : 
; 961  :     // turn the clock on
; 962  :     //if(!(pRequest->SystemFlags & SD_FAST_PATH_AVAILABLE))
; 963  :     //   UpdateSystemClock(TRUE);
; 964  : 
; 965  :     Write_MMC_STAT(0xFFFFFFFF);

  01bf0	e3e01000	 mvn         r1, #0
  01bf4	e59d0074	 ldr         r0, [sp, #0x74]
  01bf8	eb000000	 bl          |?Write_MMC_STAT@CSDIOControllerBase@@QAAXK@Z|

; 966  :     dwTimeout = 2000;

  01bfc	e3a03e7d	 mov         r3, #0x7D, 28
  01c00	e58d3020	 str         r3, [sp, #0x20]
  01c04		 |$LN17@SendComman|

; 967  :     while(((INREG32(&m_pbRegisters->MMCHS_PSTATE) & MMCHS_PSTAT_CMDI)) && (dwTimeout>0))

  01c04	e59d3074	 ldr         r3, [sp, #0x74]
  01c08	e2833f57	 add         r3, r3, #0x57, 30
  01c0c	e5933000	 ldr         r3, [r3]
  01c10	e2833f49	 add         r3, r3, #0x49, 30
  01c14	e5933000	 ldr         r3, [r3]
  01c18	e3130001	 tst         r3, #1
  01c1c	0a000006	 beq         |$LN16@SendComman|
  01c20	e59d3020	 ldr         r3, [sp, #0x20]
  01c24	e3530000	 cmp         r3, #0
  01c28	9a000003	 bls         |$LN16@SendComman|

; 968  :     {
; 969  :         dwTimeout--;

  01c2c	e59d3020	 ldr         r3, [sp, #0x20]
  01c30	e2433001	 sub         r3, r3, #1
  01c34	e58d3020	 str         r3, [sp, #0x20]

; 970  :     }

  01c38	eafffff1	 b           |$LN17@SendComman|
  01c3c		 |$LN16@SendComman|

; 971  :     MMC_CMD = MMCHS_INDX(Cmd);

  01c3c	e59d301c	 ldr         r3, [sp, #0x1C]
  01c40	e1a03c03	 mov         r3, r3, lsl #24
  01c44	e58d3014	 str         r3, [sp, #0x14]

; 972  : 
; 973  :     // CMD6 is defined differently in MMC and SD specifications, try to identify them here 
; 974  :     // and use appropriate controller settings. 
; 975  :     if (IS_SDHC_SWITCH_COMMAND(pRequest,Cmd))

  01c48	e59d3074	 ldr         r3, [sp, #0x74]
  01c4c	e2833f66	 add         r3, r3, #0x66, 30
  01c50	e5933000	 ldr         r3, [r3]
  01c54	e3530000	 cmp         r3, #0
  01c58	0a00000a	 beq         |$LN38@SendComman|
  01c5c	e59d3078	 ldr         r3, [sp, #0x78]
  01c60	e2833010	 add         r3, r3, #0x10
  01c64	e5933000	 ldr         r3, [r3]
  01c68	e3530000	 cmp         r3, #0
  01c6c	1a000005	 bne         |$LN38@SendComman|
  01c70	e59d301c	 ldr         r3, [sp, #0x1C]
  01c74	e3530006	 cmp         r3, #6
  01c78	1a000002	 bne         |$LN38@SendComman|
  01c7c	e3a03001	 mov         r3, #1
  01c80	e58d3058	 str         r3, [sp, #0x58]
  01c84	ea000001	 b           |$LN39@SendComman|
  01c88		 |$LN38@SendComman|
  01c88	e3a03000	 mov         r3, #0
  01c8c	e58d3058	 str         r3, [sp, #0x58]
  01c90		 |$LN39@SendComman|
  01c90	e59d3058	 ldr         r3, [sp, #0x58]
  01c94	e3530000	 cmp         r3, #0
  01c98	0a000028	 beq         |$LN15@SendComman|

; 976  :     	{
; 977  :         DEBUGMSG(SHC_SDBUS_INTERACT_ZONE,(TEXT("SendCommand:: branch for switch command\r\n")));

  01c9c	e59f35ec	 ldr         r3, [pc, #0x5EC]
  01ca0	e5933440	 ldr         r3, [r3, #0x440]
  01ca4	e3130040	 tst         r3, #0x40
  01ca8	0a000004	 beq         |$LN40@SendComman|
  01cac	e59f05e8	 ldr         r0, [pc, #0x5E8]
  01cb0	eb000000	 bl          NKDbgPrintfW
  01cb4	e3a03001	 mov         r3, #1
  01cb8	e58d305c	 str         r3, [sp, #0x5C]
  01cbc	ea000001	 b           |$LN41@SendComman|
  01cc0		 |$LN40@SendComman|
  01cc0	e3a03000	 mov         r3, #0
  01cc4	e58d305c	 str         r3, [sp, #0x5C]
  01cc8		 |$LN41@SendComman|

; 978  :         MMC_CMD |= ADJUST_FOR_SDHC_SWITCH_CMD(Cmd);

  01cc8	e59d201c	 ldr         r2, [sp, #0x1C]
  01ccc	e3a0300a	 mov         r3, #0xA
  01cd0	e0030392	 mul         r3, r2, r3
  01cd4	e353003c	 cmp         r3, #0x3C
  01cd8	1a000007	 bne         |$LN42@SendComman|
  01cdc	e59d3074	 ldr         r3, [sp, #0x74]
  01ce0	e2833f66	 add         r3, r3, #0x66, 30
  01ce4	e5933000	 ldr         r3, [r3]
  01ce8	e3530000	 cmp         r3, #0
  01cec	0a000002	 beq         |$LN42@SendComman|
  01cf0	e59f35a0	 ldr         r3, [pc, #0x5A0]
  01cf4	e58d3060	 str         r3, [sp, #0x60]
  01cf8	ea000007	 b           |$LN43@SendComman|
  01cfc		 |$LN42@SendComman|
  01cfc	e59d201c	 ldr         r2, [sp, #0x1C]
  01d00	e3a0300a	 mov         r3, #0xA
  01d04	e0010392	 mul         r1, r2, r3
  01d08	e3a03008	 mov         r3, #8
  01d0c	e0020391	 mul         r2, r1, r3
  01d10	e59f357c	 ldr         r3, [pc, #0x57C]
  01d14	e0833002	 add         r3, r3, r2
  01d18	e58d3060	 str         r3, [sp, #0x60]
  01d1c		 |$LN43@SendComman|
  01d1c	e59d3060	 ldr         r3, [sp, #0x60]
  01d20	e58d3024	 str         r3, [sp, #0x24]
  01d24	e59d3024	 ldr         r3, [sp, #0x24]
  01d28	e2833004	 add         r3, r3, #4
  01d2c	e59d2014	 ldr         r2, [sp, #0x14]
  01d30	e5933000	 ldr         r3, [r3]
  01d34	e1823003	 orr         r3, r2, r3
  01d38	e58d3014	 str         r3, [sp, #0x14]

; 979  :     	}
; 980  :     else

  01d3c	ea000018	 b           |$LN14@SendComman|
  01d40		 |$LN15@SendComman|

; 981  :         MMC_CMD |= LOOKUP_CMD(Cmd).flags;

  01d40	e59d301c	 ldr         r3, [sp, #0x1C]
  01d44	e353003c	 cmp         r3, #0x3C
  01d48	1a000007	 bne         |$LN44@SendComman|
  01d4c	e59d3074	 ldr         r3, [sp, #0x74]
  01d50	e2833f66	 add         r3, r3, #0x66, 30
  01d54	e5933000	 ldr         r3, [r3]
  01d58	e3530000	 cmp         r3, #0
  01d5c	0a000002	 beq         |$LN44@SendComman|
  01d60	e59f3530	 ldr         r3, [pc, #0x530]
  01d64	e58d3064	 str         r3, [sp, #0x64]
  01d68	ea000005	 b           |$LN45@SendComman|
  01d6c		 |$LN44@SendComman|
  01d6c	e59d101c	 ldr         r1, [sp, #0x1C]
  01d70	e3a03008	 mov         r3, #8
  01d74	e0020391	 mul         r2, r1, r3
  01d78	e59f3514	 ldr         r3, [pc, #0x514]
  01d7c	e0833002	 add         r3, r3, r2
  01d80	e58d3064	 str         r3, [sp, #0x64]
  01d84		 |$LN45@SendComman|
  01d84	e59d3064	 ldr         r3, [sp, #0x64]
  01d88	e58d3028	 str         r3, [sp, #0x28]
  01d8c	e59d3028	 ldr         r3, [sp, #0x28]
  01d90	e2833004	 add         r3, r3, #4
  01d94	e59d2014	 ldr         r2, [sp, #0x14]
  01d98	e5933000	 ldr         r3, [r3]
  01d9c	e1823003	 orr         r3, r2, r3
  01da0	e58d3014	 str         r3, [sp, #0x14]
  01da4		 |$LN14@SendComman|

; 982  : 	
; 983  :     if ((Cmd == SD_CMD_SELECT_DESELECT_CARD) && (respType == NoResponse))

  01da4	e59d301c	 ldr         r3, [sp, #0x1C]
  01da8	e3530007	 cmp         r3, #7
  01dac	1a000008	 bne         |$LN13@SendComman|
  01db0	e1dd31b8	 ldrh        r3, [sp, #0x18]
  01db4	e3530000	 cmp         r3, #0
  01db8	1a000005	 bne         |$LN13@SendComman|

; 984  :     {
; 985  :         MMC_CMD &= ~MMCHS_RSP_MASK;

  01dbc	e59d2014	 ldr         r2, [sp, #0x14]
  01dc0	e3e03803	 mvn         r3, #3, 16
  01dc4	e0023003	 and         r3, r2, r3
  01dc8	e58d3014	 str         r3, [sp, #0x14]

; 986  :         MMC_CMD |= MMCHS_RSP_NONE;

  01dcc	e59d3014	 ldr         r3, [sp, #0x14]
  01dd0	e58d3014	 str         r3, [sp, #0x14]
  01dd4		 |$LN13@SendComman|

; 987  :     }
; 988  : 
; 989  :     m_fDMATransfer = FALSE;

  01dd4	e59d3074	 ldr         r3, [sp, #0x74]
  01dd8	e2832e11	 add         r2, r3, #0x11, 28
  01ddc	e3a03000	 mov         r3, #0
  01de0	e5823000	 str         r3, [r2]

; 990  :     MMC_CMD &= ~MMCHS_CMD_DE;

  01de4	e59d2014	 ldr         r2, [sp, #0x14]
  01de8	e3e03001	 mvn         r3, #1
  01dec	e0023003	 and         r3, r2, r3
  01df0	e58d3014	 str         r3, [sp, #0x14]

; 991  : 
; 992  :     if (Cmd == SD_CMD_IO_RW_EXTENDED)

  01df4	e59d301c	 ldr         r3, [sp, #0x1C]
  01df8	e3530035	 cmp         r3, #0x35
  01dfc	1a000007	 bne         |$LN12@SendComman|

; 993  :     {
; 994  :         if(pRequest->NumBlocks > 1)

  01e00	e59d3078	 ldr         r3, [sp, #0x78]
  01e04	e283303c	 add         r3, r3, #0x3C
  01e08	e5933000	 ldr         r3, [r3]
  01e0c	e3530001	 cmp         r3, #1
  01e10	9a000002	 bls         |$LN11@SendComman|

; 995  :         {
; 996  :            MMC_CMD |= MMCHS_CMD_MSBS | MMCHS_CMD_BCE;

  01e14	e59d3014	 ldr         r3, [sp, #0x14]
  01e18	e3833022	 orr         r3, r3, #0x22
  01e1c	e58d3014	 str         r3, [sp, #0x14]
  01e20		 |$LN11@SendComman|
  01e20		 |$LN12@SendComman|

; 997  :         }
; 998  :     }
; 999  : 
; 1000 :     if( m_TransferClass == SD_READ )

  01e20	e59d3074	 ldr         r3, [sp, #0x74]
  01e24	e2833f76	 add         r3, r3, #0x76, 30
  01e28	e5933000	 ldr         r3, [r3]
  01e2c	e3530000	 cmp         r3, #0
  01e30	1a000070	 bne         |$LN10@SendComman|

; 1001 :     {
; 1002 :         MMC_CMD |= MMCHS_CMD_DDIR;

  01e34	e59d3014	 ldr         r3, [sp, #0x14]
  01e38	e3833010	 orr         r3, r3, #0x10
  01e3c	e58d3014	 str         r3, [sp, #0x14]

; 1003 : 
; 1004 : #ifdef SDIO_DMA_READ_ENABLED
; 1005 :        // if we can use the DMA for transfer...
; 1006 :        if( ((( pRequest->NumBlocks > 1) && !(pRequest->SystemFlags & SD_FAST_PATH_AVAILABLE)) || 
; 1007 :        (( pRequest->NumBlocks > 0) && (pRequest->SystemFlags & SD_FAST_PATH_AVAILABLE))) &&
; 1008 :             ( TRANSFER_SIZE(pRequest) % MIN_MMC_BLOCK_SIZE == 0 ) &&
; 1009 :             ( TRANSFER_SIZE(pRequest) <= m_dwDMABufferSize ) )

  01e40	e59d3078	 ldr         r3, [sp, #0x78]
  01e44	e283303c	 add         r3, r3, #0x3C
  01e48	e5933000	 ldr         r3, [r3]
  01e4c	e3530001	 cmp         r3, #1
  01e50	9a000004	 bls         |$LN7@SendComman|
  01e54	e59d3078	 ldr         r3, [sp, #0x78]
  01e58	e283300c	 add         r3, r3, #0xC
  01e5c	e5933000	 ldr         r3, [r3]
  01e60	e3130102	 tst         r3, #2, 2
  01e64	0a000009	 beq         |$LN8@SendComman|
  01e68		 |$LN7@SendComman|
  01e68	e59d3078	 ldr         r3, [sp, #0x78]
  01e6c	e283303c	 add         r3, r3, #0x3C
  01e70	e5933000	 ldr         r3, [r3]
  01e74	e3530000	 cmp         r3, #0
  01e78	9a000046	 bls         |$LN9@SendComman|
  01e7c	e59d3078	 ldr         r3, [sp, #0x78]
  01e80	e283300c	 add         r3, r3, #0xC
  01e84	e5933000	 ldr         r3, [r3]
  01e88	e3130102	 tst         r3, #2, 2
  01e8c	0a000041	 beq         |$LN9@SendComman|
  01e90		 |$LN8@SendComman|
  01e90	e59d3078	 ldr         r3, [sp, #0x78]
  01e94	e2832040	 add         r2, r3, #0x40
  01e98	e59d3078	 ldr         r3, [sp, #0x78]
  01e9c	e283303c	 add         r3, r3, #0x3C
  01ea0	e5922000	 ldr         r2, [r2]
  01ea4	e5933000	 ldr         r3, [r3]
  01ea8	e0010392	 mul         r1, r2, r3
  01eac	e3a00004	 mov         r0, #4
  01eb0	eb000000	 bl          __rt_udiv
  01eb4	e3510000	 cmp         r1, #0
  01eb8	1a000036	 bne         |$LN9@SendComman|
  01ebc	e59d3078	 ldr         r3, [sp, #0x78]
  01ec0	e2832040	 add         r2, r3, #0x40
  01ec4	e59d3078	 ldr         r3, [sp, #0x78]
  01ec8	e283303c	 add         r3, r3, #0x3C
  01ecc	e5921000	 ldr         r1, [r2]
  01ed0	e5933000	 ldr         r3, [r3]
  01ed4	e0020391	 mul         r2, r1, r3
  01ed8	e59d3074	 ldr         r3, [sp, #0x74]
  01edc	e2833f7f	 add         r3, r3, #0x7F, 30
  01ee0	e5933000	 ldr         r3, [r3]
  01ee4	e1520003	 cmp         r2, r3
  01ee8	8a00002a	 bhi         |$LN9@SendComman|

; 1010 :         {
; 1011 :             MMC_CMD |= MMCHS_CMD_DE;

  01eec	e59d3014	 ldr         r3, [sp, #0x14]
  01ef0	e3833001	 orr         r3, r3, #1
  01ef4	e58d3014	 str         r3, [sp, #0x14]

; 1012 :             m_fDMATransfer = TRUE;

  01ef8	e59d3074	 ldr         r3, [sp, #0x74]
  01efc	e2832e11	 add         r2, r3, #0x11, 28
  01f00	e3a03001	 mov         r3, #1
  01f04	e5823000	 str         r3, [r2]

; 1013 :             // program the DMA controller
; 1014 :             EnterCriticalSection( &m_critSec );

  01f08	e59d3074	 ldr         r3, [sp, #0x74]
  01f0c	e28300b0	 add         r0, r3, #0xB0
  01f10	eb000000	 bl          EnterCriticalSection

; 1015 :             SETREG32(&m_pbRegisters->MMCHS_IE, MMCHS_IE_BRR);

  01f14	e59d3074	 ldr         r3, [sp, #0x74]
  01f18	e2833f57	 add         r3, r3, #0x57, 30
  01f1c	e5933000	 ldr         r3, [r3]
  01f20	e2833f4d	 add         r3, r3, #0x4D, 30
  01f24	e5933000	 ldr         r3, [r3]
  01f28	e3832020	 orr         r2, r3, #0x20
  01f2c	e59d3074	 ldr         r3, [sp, #0x74]
  01f30	e2833f57	 add         r3, r3, #0x57, 30
  01f34	e5933000	 ldr         r3, [r3]
  01f38	e2833f4d	 add         r3, r3, #0x4D, 30
  01f3c	e5832000	 str         r2, [r3]

; 1016 :             SETREG32(&m_pbRegisters->MMCHS_ISE, MMCHS_IE_BRR);

  01f40	e59d3074	 ldr         r3, [sp, #0x74]
  01f44	e2833f57	 add         r3, r3, #0x57, 30
  01f48	e5933000	 ldr         r3, [r3]
  01f4c	e2833f4e	 add         r3, r3, #0x4E, 30
  01f50	e5933000	 ldr         r3, [r3]
  01f54	e3832020	 orr         r2, r3, #0x20
  01f58	e59d3074	 ldr         r3, [sp, #0x74]
  01f5c	e2833f57	 add         r3, r3, #0x57, 30
  01f60	e5933000	 ldr         r3, [r3]
  01f64	e2833f4e	 add         r3, r3, #0x4E, 30
  01f68	e5832000	 str         r2, [r3]

; 1017 :             LeaveCriticalSection( &m_critSec );

  01f6c	e59d3074	 ldr         r3, [sp, #0x74]
  01f70	e28300b0	 add         r0, r3, #0xB0
  01f74	eb000000	 bl          LeaveCriticalSection

; 1018 :             SDIO_InitInputDMA( pRequest->NumBlocks,  pRequest->BlockSize);

  01f78	e59d3078	 ldr         r3, [sp, #0x78]
  01f7c	e2833040	 add         r3, r3, #0x40
  01f80	e5932000	 ldr         r2, [r3]
  01f84	e59d3078	 ldr         r3, [sp, #0x78]
  01f88	e283303c	 add         r3, r3, #0x3C
  01f8c	e5931000	 ldr         r1, [r3]
  01f90	e59d0074	 ldr         r0, [sp, #0x74]
  01f94	eb000000	 bl          |?SDIO_InitInputDMA@CSDIOControllerBase@@QAAXKK@Z|
  01f98		 |$LN9@SendComman|

; 1019 :         }
; 1020 : #endif
; 1021 :         dwRegVal = (DWORD)(pRequest->BlockSize & 0xFFFF);

  01f98	e59d3078	 ldr         r3, [sp, #0x78]
  01f9c	e2833040	 add         r3, r3, #0x40
  01fa0	e5932000	 ldr         r2, [r3]
  01fa4	e3a03cff	 mov         r3, #0xFF, 24
  01fa8	e38330ff	 orr         r3, r3, #0xFF
  01fac	e0023003	 and         r3, r2, r3
  01fb0	e58d3010	 str         r3, [sp, #0x10]

; 1022 :         dwRegVal += ((DWORD)(pRequest->NumBlocks & 0xFFFF)) << 16;

  01fb4	e59d3078	 ldr         r3, [sp, #0x78]
  01fb8	e283303c	 add         r3, r3, #0x3C
  01fbc	e5932000	 ldr         r2, [r3]
  01fc0	e3a03cff	 mov         r3, #0xFF, 24
  01fc4	e38330ff	 orr         r3, r3, #0xFF
  01fc8	e0023003	 and         r3, r2, r3
  01fcc	e1a02803	 mov         r2, r3, lsl #16
  01fd0	e59d3010	 ldr         r3, [sp, #0x10]
  01fd4	e0833002	 add         r3, r3, r2
  01fd8	e58d3010	 str         r3, [sp, #0x10]

; 1023 :         OUTREG32(&m_pbRegisters->MMCHS_BLK, dwRegVal);

  01fdc	e59d3074	 ldr         r3, [sp, #0x74]
  01fe0	e2833f57	 add         r3, r3, #0x57, 30
  01fe4	e5933000	 ldr         r3, [r3]
  01fe8	e2832f41	 add         r2, r3, #0x41, 30
  01fec	e59d3010	 ldr         r3, [sp, #0x10]
  01ff0	e5823000	 str         r3, [r2]
  01ff4	ea000075	 b           |$LN6@SendComman|
  01ff8		 |$LN10@SendComman|

; 1024 :     }
; 1025 :     else if( m_TransferClass == SD_WRITE )

  01ff8	e59d3074	 ldr         r3, [sp, #0x74]
  01ffc	e2833f76	 add         r3, r3, #0x76, 30
  02000	e5933000	 ldr         r3, [r3]
  02004	e3530001	 cmp         r3, #1
  02008	1a000070	 bne         |$LN5@SendComman|

; 1026 :     {
; 1027 :         MMC_CMD &= ~MMCHS_CMD_DDIR;

  0200c	e59d2014	 ldr         r2, [sp, #0x14]
  02010	e3e03010	 mvn         r3, #0x10
  02014	e0023003	 and         r3, r2, r3
  02018	e58d3014	 str         r3, [sp, #0x14]

; 1028 : 
; 1029 : #ifdef SDIO_DMA_WRITE_ENABLED
; 1030 :         // if we can use the DMA for transfer...
; 1031 :        if( ((( pRequest->NumBlocks > 1) && !(pRequest->SystemFlags & SD_FAST_PATH_AVAILABLE)) || 
; 1032 :        (( pRequest->NumBlocks > 0) && (pRequest->SystemFlags & SD_FAST_PATH_AVAILABLE))) &&
; 1033 :             ( TRANSFER_SIZE(pRequest) % MIN_MMC_BLOCK_SIZE == 0 ) &&
; 1034 :             ( TRANSFER_SIZE(pRequest) <= m_dwDMABufferSize ) )

  0201c	e59d3078	 ldr         r3, [sp, #0x78]
  02020	e283303c	 add         r3, r3, #0x3C
  02024	e5933000	 ldr         r3, [r3]
  02028	e3530001	 cmp         r3, #1
  0202c	9a000004	 bls         |$LN2@SendComman|
  02030	e59d3078	 ldr         r3, [sp, #0x78]
  02034	e283300c	 add         r3, r3, #0xC
  02038	e5933000	 ldr         r3, [r3]
  0203c	e3130102	 tst         r3, #2, 2
  02040	0a000009	 beq         |$LN3@SendComman|
  02044		 |$LN2@SendComman|
  02044	e59d3078	 ldr         r3, [sp, #0x78]
  02048	e283303c	 add         r3, r3, #0x3C
  0204c	e5933000	 ldr         r3, [r3]
  02050	e3530000	 cmp         r3, #0
  02054	9a000046	 bls         |$LN4@SendComman|
  02058	e59d3078	 ldr         r3, [sp, #0x78]
  0205c	e283300c	 add         r3, r3, #0xC
  02060	e5933000	 ldr         r3, [r3]
  02064	e3130102	 tst         r3, #2, 2
  02068	0a000041	 beq         |$LN4@SendComman|
  0206c		 |$LN3@SendComman|
  0206c	e59d3078	 ldr         r3, [sp, #0x78]
  02070	e2832040	 add         r2, r3, #0x40
  02074	e59d3078	 ldr         r3, [sp, #0x78]
  02078	e283303c	 add         r3, r3, #0x3C
  0207c	e5922000	 ldr         r2, [r2]
  02080	e5933000	 ldr         r3, [r3]
  02084	e0010392	 mul         r1, r2, r3
  02088	e3a00004	 mov         r0, #4
  0208c	eb000000	 bl          __rt_udiv
  02090	e3510000	 cmp         r1, #0
  02094	1a000036	 bne         |$LN4@SendComman|
  02098	e59d3078	 ldr         r3, [sp, #0x78]
  0209c	e2832040	 add         r2, r3, #0x40
  020a0	e59d3078	 ldr         r3, [sp, #0x78]
  020a4	e283303c	 add         r3, r3, #0x3C
  020a8	e5921000	 ldr         r1, [r2]
  020ac	e5933000	 ldr         r3, [r3]
  020b0	e0020391	 mul         r2, r1, r3
  020b4	e59d3074	 ldr         r3, [sp, #0x74]
  020b8	e2833f7f	 add         r3, r3, #0x7F, 30
  020bc	e5933000	 ldr         r3, [r3]
  020c0	e1520003	 cmp         r2, r3
  020c4	8a00002a	 bhi         |$LN4@SendComman|

; 1035 :         {
; 1036 :             MMC_CMD |= MMCHS_CMD_DE;

  020c8	e59d3014	 ldr         r3, [sp, #0x14]
  020cc	e3833001	 orr         r3, r3, #1
  020d0	e58d3014	 str         r3, [sp, #0x14]

; 1037 :             m_fDMATransfer = TRUE;

  020d4	e59d3074	 ldr         r3, [sp, #0x74]
  020d8	e2832e11	 add         r2, r3, #0x11, 28
  020dc	e3a03001	 mov         r3, #1
  020e0	e5823000	 str         r3, [r2]

; 1038 :             // program the DMA controller
; 1039 :             EnterCriticalSection( &m_critSec );

  020e4	e59d3074	 ldr         r3, [sp, #0x74]
  020e8	e28300b0	 add         r0, r3, #0xB0
  020ec	eb000000	 bl          EnterCriticalSection

; 1040 :             SETREG32(&m_pbRegisters->MMCHS_IE, MMCHS_IE_BWR);

  020f0	e59d3074	 ldr         r3, [sp, #0x74]
  020f4	e2833f57	 add         r3, r3, #0x57, 30
  020f8	e5933000	 ldr         r3, [r3]
  020fc	e2833f4d	 add         r3, r3, #0x4D, 30
  02100	e5933000	 ldr         r3, [r3]
  02104	e3832010	 orr         r2, r3, #0x10
  02108	e59d3074	 ldr         r3, [sp, #0x74]
  0210c	e2833f57	 add         r3, r3, #0x57, 30
  02110	e5933000	 ldr         r3, [r3]
  02114	e2833f4d	 add         r3, r3, #0x4D, 30
  02118	e5832000	 str         r2, [r3]

; 1041 :             SETREG32(&m_pbRegisters->MMCHS_ISE, MMCHS_ISE_BWR);

  0211c	e59d3074	 ldr         r3, [sp, #0x74]
  02120	e2833f57	 add         r3, r3, #0x57, 30
  02124	e5933000	 ldr         r3, [r3]
  02128	e2833f4e	 add         r3, r3, #0x4E, 30
  0212c	e5933000	 ldr         r3, [r3]
  02130	e3832010	 orr         r2, r3, #0x10
  02134	e59d3074	 ldr         r3, [sp, #0x74]
  02138	e2833f57	 add         r3, r3, #0x57, 30
  0213c	e5933000	 ldr         r3, [r3]
  02140	e2833f4e	 add         r3, r3, #0x4E, 30
  02144	e5832000	 str         r2, [r3]

; 1042 :             LeaveCriticalSection( &m_critSec );

  02148	e59d3074	 ldr         r3, [sp, #0x74]
  0214c	e28300b0	 add         r0, r3, #0xB0
  02150	eb000000	 bl          LeaveCriticalSection

; 1043 :             SDIO_InitOutputDMA( pRequest->NumBlocks,  pRequest->BlockSize );

  02154	e59d3078	 ldr         r3, [sp, #0x78]
  02158	e2833040	 add         r3, r3, #0x40
  0215c	e5932000	 ldr         r2, [r3]
  02160	e59d3078	 ldr         r3, [sp, #0x78]
  02164	e283303c	 add         r3, r3, #0x3C
  02168	e5931000	 ldr         r1, [r3]
  0216c	e59d0074	 ldr         r0, [sp, #0x74]
  02170	eb000000	 bl          |?SDIO_InitOutputDMA@CSDIOControllerBase@@QAAXKK@Z|
  02174		 |$LN4@SendComman|

; 1044 :         }
; 1045 : #endif
; 1046 :         dwRegVal = (DWORD)(pRequest->BlockSize & 0xFFFF);

  02174	e59d3078	 ldr         r3, [sp, #0x78]
  02178	e2833040	 add         r3, r3, #0x40
  0217c	e5932000	 ldr         r2, [r3]
  02180	e3a03cff	 mov         r3, #0xFF, 24
  02184	e38330ff	 orr         r3, r3, #0xFF
  02188	e0023003	 and         r3, r2, r3
  0218c	e58d3010	 str         r3, [sp, #0x10]

; 1047 :         dwRegVal += ((DWORD)(pRequest->NumBlocks & 0xFFFF)) << 16;

  02190	e59d3078	 ldr         r3, [sp, #0x78]
  02194	e283303c	 add         r3, r3, #0x3C
  02198	e5932000	 ldr         r2, [r3]
  0219c	e3a03cff	 mov         r3, #0xFF, 24
  021a0	e38330ff	 orr         r3, r3, #0xFF
  021a4	e0023003	 and         r3, r2, r3
  021a8	e1a02803	 mov         r2, r3, lsl #16
  021ac	e59d3010	 ldr         r3, [sp, #0x10]
  021b0	e0833002	 add         r3, r3, r2
  021b4	e58d3010	 str         r3, [sp, #0x10]

; 1048 :         OUTREG32(&m_pbRegisters->MMCHS_BLK, dwRegVal);

  021b8	e59d3074	 ldr         r3, [sp, #0x74]
  021bc	e2833f57	 add         r3, r3, #0x57, 30
  021c0	e5933000	 ldr         r3, [r3]
  021c4	e2832f41	 add         r2, r3, #0x41, 30
  021c8	e59d3010	 ldr         r3, [sp, #0x10]
  021cc	e5823000	 str         r3, [r2]
  021d0		 |$LN5@SendComman|
  021d0		 |$LN6@SendComman|

; 1049 :     }
; 1050 :     //check for card initialization is done.
; 1051 :     if(!m_fCardInitialized && (Cmd == SD_CMD_READ_SINGLE_BLOCK))

  021d0	e59d3074	 ldr         r3, [sp, #0x74]
  021d4	e2833f4f	 add         r3, r3, #0x4F, 30
  021d8	e5933000	 ldr         r3, [r3]
  021dc	e3530000	 cmp         r3, #0
  021e0	1a000006	 bne         |$LN1@SendComman|
  021e4	e59d301c	 ldr         r3, [sp, #0x1C]
  021e8	e3530011	 cmp         r3, #0x11
  021ec	1a000003	 bne         |$LN1@SendComman|

; 1052 :         m_fCardInitialized = TRUE;

  021f0	e59d3074	 ldr         r3, [sp, #0x74]
  021f4	e2832f4f	 add         r2, r3, #0x4F, 30
  021f8	e3a03001	 mov         r3, #1
  021fc	e5823000	 str         r3, [r2]
  02200		 |$LN1@SendComman|

; 1053 : 
; 1054 :     // Program the argument into the argument registers
; 1055 :     OUTREG32(&m_pbRegisters->MMCHS_ARG, Arg);

  02200	e59d3074	 ldr         r3, [sp, #0x74]
  02204	e2833f57	 add         r3, r3, #0x57, 30
  02208	e5933000	 ldr         r3, [r3]
  0220c	e2832f42	 add         r2, r3, #0x42, 30
  02210	e59d300c	 ldr         r3, [sp, #0xC]
  02214	e5823000	 str         r3, [r2]

; 1056 : 
; 1057 :     DEBUGMSG(SHC_SEND_ZONE, (TEXT("SendCommand() - registers:Command = 0x%x, MMCHS_ARG = 0x%x%x\r\n"), MMC_CMD, INREG32(&m_pbRegisters->MMCHS_ARG)));

  02218	e59f3070	 ldr         r3, [pc, #0x70]
  0221c	e5933440	 ldr         r3, [r3, #0x440]
  02220	e3130002	 tst         r3, #2
  02224	0a00000a	 beq         |$LN46@SendComman|
  02228	e59d3074	 ldr         r3, [sp, #0x74]
  0222c	e2833f57	 add         r3, r3, #0x57, 30
  02230	e5933000	 ldr         r3, [r3]
  02234	e2833f42	 add         r3, r3, #0x42, 30
  02238	e5932000	 ldr         r2, [r3]
  0223c	e59d1014	 ldr         r1, [sp, #0x14]
  02240	e59f0044	 ldr         r0, [pc, #0x44]
  02244	eb000000	 bl          NKDbgPrintfW
  02248	e3a03001	 mov         r3, #1
  0224c	e58d3068	 str         r3, [sp, #0x68]
  02250	ea000001	 b           |$LN47@SendComman|
  02254		 |$LN46@SendComman|
  02254	e3a03000	 mov         r3, #0
  02258	e58d3068	 str         r3, [sp, #0x68]
  0225c		 |$LN47@SendComman|

; 1058 : 
; 1059 :     // Issue the command.
; 1060 :     OUTREG32(&m_pbRegisters->MMCHS_CMD, MMC_CMD);

  0225c	e59d3074	 ldr         r3, [sp, #0x74]
  02260	e2833f57	 add         r3, r3, #0x57, 30
  02264	e5933000	 ldr         r3, [r3]
  02268	e2832f43	 add         r2, r3, #0x43, 30
  0226c	e59d3014	 ldr         r3, [sp, #0x14]
  02270	e5823000	 str         r3, [r2]

; 1061 : 
; 1062 :     return SD_API_STATUS_SUCCESS;

  02274	e3a03000	 mov         r3, #0
  02278	e58d3040	 str         r3, [sp, #0x40]

; 1063 : }

  0227c	e59d0040	 ldr         r0, [sp, #0x40]
  02280	e28dd06c	 add         sp, sp, #0x6C
  02284	e89d6000	 ldmia       sp, {sp, lr}
  02288	e12fff1e	 bx          lr
  0228c		 |$LN51@SendComman|
  0228c		 |$LN52@SendComman|
  0228c	00000000	 DCD         |??_C@_1HO@LOCLBPFC@?$AAS?$AAe?$AAn?$AAd?$AAC?$AAo?$AAm?$AAm?$AAa?$AAn?$AAd?$AA?$CI?$AA?$CJ?$AA?5?$AA?9?$AA?5?$AAr?$AAe?$AAg?$AAi?$AAs?$AAt?$AAe?$AAr?$AAs?$AA?3?$AAC?$AAo?$AAm?$AAm?$AAa?$AAn@|
  02290		 |$LN53@SendComman|
  02290	00000000	 DCD         |dpCurSettings|
  02294		 |$LN54@SendComman|
  02294	00000000	 DCD         |?gwaCMD@@3PAUCMD@@A|
  02298		 |$LN55@SendComman|
  02298	00000000	 DCD         |?gwaCMD60_HS@@3UCMD@@A|
  0229c		 |$LN56@SendComman|
  0229c	00000000	 DCD         |??_C@_1FE@OEOLMLE@?$AAS?$AAe?$AAn?$AAd?$AAC?$AAo?$AAm?$AAm?$AAa?$AAn?$AAd?$AA?3?$AA?3?$AA?5?$AAb?$AAr?$AAa?$AAn?$AAc?$AAh?$AA?5?$AAf?$AAo?$AAr?$AA?5?$AAs?$AAw?$AAi?$AAt?$AAc?$AAh?$AA?5@|
  022a0		 |$LN57@SendComman|
  022a0	00000000	 DCD         |??_C@_1JE@FAMEDKFO@?$AAS?$AAe?$AAn?$AAd?$AAC?$AAo?$AAm?$AAm?$AAa?$AAn?$AAd?$AA?5?$AA?$CI?$AAC?$AAm?$AAd?$AA?$DN?$AA0?$AAx?$AA?$CF?$AA0?$AA8?$AAX?$AA?0?$AA?5?$AAA?$AAr?$AAg?$AA?$DN?$AA0?$AAx?$AA?$CF@|
  022a4		 |$LN58@SendComman|
  022a4	00000000	 DCD         |??_C@_1KE@KBBNINAM@?$AAS?$AAe?$AAn?$AAd?$AAC?$AAo?$AAm?$AAm?$AAa?$AAn?$AAd?$AA?5?$AA?$CI?$AAC?$AAm?$AAd?$AA?$DN?$AA0?$AAx?$AA?$CF?$AA0?$AA8?$AAX?$AA?0?$AA?5?$AAA?$AAr?$AAg?$AA?$DN?$AA0?$AAx?$AA?$CF@|
  022a8		 |$LN59@SendComman|
  022a8	00000000	 DCD         |??_C@_1JO@GHLNKHDB@?$AAS?$AAe?$AAn?$AAd?$AAC?$AAo?$AAm?$AAm?$AAa?$AAn?$AAd?$AA?$CI?$AA?$CJ?$AA?5?$AA?9?$AA?5?$AAC?$AAm?$AAd?$AA?5?$AA?$DN?$AA?5?$AA0?$AAx?$AA?$CF?$AAx?$AA?5?$AAA?$AAr?$AAg?$AA?5?$AA?$DN@|
  022ac		 |$M45332|

			 ENDP  ; |?SendCommand@CSDIOControllerBase@@QAAJPAU_SD_BUS_REQUEST@@@Z|, CSDIOControllerBase::SendCommand


  00000			 AREA	 |.pdata|, PDATA
|$T45348| DCD	|$LN5@Write_MMC_|
	DCD	0x40001103
; Function compile flags: /Odtp

  00000			 AREA	 |.text|, CODE, ARM

  00000		 |?Write_MMC_STAT@CSDIOControllerBase@@QAAXK@Z| PROC ; CSDIOControllerBase::Write_MMC_STAT

; 340  : {

  00000		 |$LN5@Write_MMC_|
  00000	e1a0c00d	 mov         r12, sp
  00004	e92d0003	 stmdb       sp!, {r0, r1}
  00008	e92d5000	 stmdb       sp!, {r12, lr}
  0000c		 |$M45345|

; 341  :     EnterCriticalSection( &m_critSec );

  0000c	e59d3008	 ldr         r3, [sp, #8]
  00010	e28300b0	 add         r0, r3, #0xB0
  00014	eb000000	 bl          EnterCriticalSection

; 342  :     OUTREG32(&m_pbRegisters->MMCHS_STAT, dwVal);

  00018	e59d3008	 ldr         r3, [sp, #8]
  0001c	e2833f57	 add         r3, r3, #0x57, 30
  00020	e5933000	 ldr         r3, [r3]
  00024	e2832e13	 add         r2, r3, #0x13, 28
  00028	e59d300c	 ldr         r3, [sp, #0xC]
  0002c	e5823000	 str         r3, [r2]

; 343  :     LeaveCriticalSection( &m_critSec );

  00030	e59d3008	 ldr         r3, [sp, #8]
  00034	e28300b0	 add         r0, r3, #0xB0
  00038	eb000000	 bl          LeaveCriticalSection

; 344  : }

  0003c	e89d6000	 ldmia       sp, {sp, lr}
  00040	e12fff1e	 bx          lr
  00044		 |$M45346|

			 ENDP  ; |?Write_MMC_STAT@CSDIOControllerBase@@QAAXK@Z|, CSDIOControllerBase::Write_MMC_STAT

	EXPORT	|??_C@_1CI@ELMHMHCH@?$AAC?$AAa?$AAr?$AAd?$AAI?$AAn?$AAt?$AAe?$AAr?$AAr?$AAu?$AAp?$AAt?$AA?$CI?$AA?$CF?$AAd?$AA?$CJ?$AA?$AN?$AA?6?$AA?$AA@| [ DATA ] ; `string'
	EXPORT	|?CardInterrupt@CSDIOControllerBase@@QAAXH@Z| ; CSDIOControllerBase::CardInterrupt

  00098			 AREA	 |.pdata|, PDATA
|$T45359| DCD	|$LN9@CardInterr|
	DCD	0x40002f04

  00000			 AREA	 |.rdata|, DATA, READONLY
|??_C@_1CI@ELMHMHCH@?$AAC?$AAa?$AAr?$AAd?$AAI?$AAn?$AAt?$AAe?$AAr?$AAr?$AAu?$AAp?$AAt?$AA?$CI?$AA?$CF?$AAd?$AA?$CJ?$AA?$AN?$AA?6?$AA?$AA@| DCB "C"
	DCB	0x0, "a", 0x0, "r", 0x0, "d", 0x0, "I", 0x0, "n", 0x0, "t"
	DCB	0x0, "e", 0x0, "r", 0x0, "r", 0x0, "u", 0x0, "p", 0x0, "t"
	DCB	0x0, "(", 0x0, "%", 0x0, "d", 0x0, ")", 0x0, 0xd, 0x0, 0xa
	DCB	0x0, 0x0, 0x0				; `string'
; Function compile flags: /Odtp

  022ac			 AREA	 |.text|, CODE, ARM

  022ac		 |?CardInterrupt@CSDIOControllerBase@@QAAXH@Z| PROC ; CSDIOControllerBase::CardInterrupt

; 1070 : {

  022ac		 |$LN9@CardInterr|
  022ac	e1a0c00d	 mov         r12, sp
  022b0	e92d0003	 stmdb       sp!, {r0, r1}
  022b4	e92d5000	 stmdb       sp!, {r12, lr}
  022b8	e24dd008	 sub         sp, sp, #8
  022bc		 |$M45356|

; 1071 :     DEBUGMSG(SDCARD_ZONE_INIT, (TEXT("CardInterrupt(%d)\r\n"), bInsert));

  022bc	e59f30a0	 ldr         r3, [pc, #0xA0]
  022c0	e5933440	 ldr         r3, [r3, #0x440]
  022c4	e3130a02	 tst         r3, #2, 20
  022c8	0a000005	 beq         |$LN3@CardInterr|
  022cc	e59d1014	 ldr         r1, [sp, #0x14]
  022d0	e59f0088	 ldr         r0, [pc, #0x88]
  022d4	eb000000	 bl          NKDbgPrintfW
  022d8	e3a03001	 mov         r3, #1
  022dc	e58d3000	 str         r3, [sp]
  022e0	ea000001	 b           |$LN4@CardInterr|
  022e4		 |$LN3@CardInterr|
  022e4	e3a03000	 mov         r3, #0
  022e8	e58d3000	 str         r3, [sp]
  022ec		 |$LN4@CardInterr|

; 1072 : 
; 1073 :     EnterCriticalSection( &m_critSec );

  022ec	e59d3010	 ldr         r3, [sp, #0x10]
  022f0	e28300b0	 add         r0, r3, #0xB0
  022f4	eb000000	 bl          EnterCriticalSection

; 1074 :     m_CardDetectInterruptStatus |= (bInsert ? EXT_MMCHS_STAT_CD_INSERT_INTR : EXT_MMCHS_STAT_CD_REMOVE_INTR);

  022f8	e59d3014	 ldr         r3, [sp, #0x14]
  022fc	e3530000	 cmp         r3, #0
  02300	0a000002	 beq         |$LN5@CardInterr|
  02304	e3a03102	 mov         r3, #2, 2
  02308	e58d3004	 str         r3, [sp, #4]
  0230c	ea000001	 b           |$LN6@CardInterr|
  02310		 |$LN5@CardInterr|
  02310	e3a03101	 mov         r3, #1, 2
  02314	e58d3004	 str         r3, [sp, #4]
  02318		 |$LN6@CardInterr|
  02318	e59d3010	 ldr         r3, [sp, #0x10]
  0231c	e2833f7d	 add         r3, r3, #0x7D, 30
  02320	e5932000	 ldr         r2, [r3]
  02324	e59d3004	 ldr         r3, [sp, #4]
  02328	e1822003	 orr         r2, r2, r3
  0232c	e59d3010	 ldr         r3, [sp, #0x10]
  02330	e2833f7d	 add         r3, r3, #0x7D, 30
  02334	e5832000	 str         r2, [r3]

; 1075 :     LeaveCriticalSection( &m_critSec );

  02338	e59d3010	 ldr         r3, [sp, #0x10]
  0233c	e28300b0	 add         r0, r3, #0xB0
  02340	eb000000	 bl          LeaveCriticalSection

; 1076 : 
; 1077 :     SetEvent(m_hControllerISTEvent);

  02344	e59d3010	 ldr         r3, [sp, #0x10]
  02348	e2833f46	 add         r3, r3, #0x46, 30
  0234c	e5930000	 ldr         r0, [r3]
  02350	eb000000	 bl          SetEvent

; 1078 : }

  02354	e28dd008	 add         sp, sp, #8
  02358	e89d6000	 ldmia       sp, {sp, lr}
  0235c	e12fff1e	 bx          lr
  02360		 |$LN10@CardInterr|
  02360		 |$LN11@CardInterr|
  02360	00000000	 DCD         |??_C@_1CI@ELMHMHCH@?$AAC?$AAa?$AAr?$AAd?$AAI?$AAn?$AAt?$AAe?$AAr?$AAr?$AAu?$AAp?$AAt?$AA?$CI?$AA?$CF?$AAd?$AA?$CJ?$AA?$AN?$AA?6?$AA?$AA@|
  02364		 |$LN12@CardInterr|
  02364	00000000	 DCD         |dpCurSettings|
  02368		 |$M45357|

			 ENDP  ; |?CardInterrupt@CSDIOControllerBase@@QAAXH@Z|, CSDIOControllerBase::CardInterrupt

	EXPORT	|?HandleInsertion@CSDIOControllerBase@@QAAXXZ| ; CSDIOControllerBase::HandleInsertion
	EXPORT	|?HandleRemoval@CSDIOControllerBase@@QAAXH@Z| ; CSDIOControllerBase::HandleRemoval
	EXPORT	|?HandleCardDetectInterrupt@CSDIOControllerBase@@QAAHK@Z| ; CSDIOControllerBase::HandleCardDetectInterrupt

  000a0			 AREA	 |.pdata|, PDATA
|$T45368| DCD	|$LN7@HandleCard|
	DCD	0x40003704
; Function compile flags: /Odtp

  02368			 AREA	 |.text|, CODE, ARM

  02368		 |?HandleCardDetectInterrupt@CSDIOControllerBase@@QAAHK@Z| PROC ; CSDIOControllerBase::HandleCardDetectInterrupt

; 1083 : {

  02368		 |$LN7@HandleCard|
  02368	e1a0c00d	 mov         r12, sp
  0236c	e92d0003	 stmdb       sp!, {r0, r1}
  02370	e92d5000	 stmdb       sp!, {r12, lr}
  02374	e24dd008	 sub         sp, sp, #8
  02378		 |$M45365|

; 1084 :     BOOL    bRetValue = FALSE;

  02378	e3a03000	 mov         r3, #0
  0237c	e58d3000	 str         r3, [sp]

; 1085 : 
; 1086 :     #ifdef ENABLE_RETAIL_OUTPUT
; 1087 :         DEBUGMSG(SDCARD_ZONE_INIT, (TEXT("CardDetectInterrupt\r\n")));
; 1088 :     #endif
; 1089 : 		
; 1090 :     if (dwStatus & EXT_MMCHS_STAT_CD_REMOVE_INTR)

  02380	e59d3014	 ldr         r3, [sp, #0x14]
  02384	e3130101	 tst         r3, #1, 2
  02388	0a000012	 beq         |$LN2@HandleCard|

; 1091 :     {
; 1092 :         #ifdef ENABLE_RETAIL_OUTPUT
; 1093 :             RETAILMSG(1, (TEXT("CardDetectInterrupt: Card removed!\r\n")));
; 1094 :         #endif
; 1095 : 
; 1096 :         HandleRemoval(TRUE);

  0238c	e3a01001	 mov         r1, #1
  02390	e59d0010	 ldr         r0, [sp, #0x10]
  02394	eb000000	 bl          |?HandleRemoval@CSDIOControllerBase@@QAAXH@Z|

; 1097 : 
; 1098 :         EnterCriticalSection( &m_critSec );

  02398	e59d3010	 ldr         r3, [sp, #0x10]
  0239c	e28300b0	 add         r0, r3, #0xB0
  023a0	eb000000	 bl          EnterCriticalSection

; 1099 :         m_CardDetectInterruptStatus &= ~EXT_MMCHS_STAT_CD_REMOVE_INTR;

  023a4	e59d3010	 ldr         r3, [sp, #0x10]
  023a8	e2833f7d	 add         r3, r3, #0x7D, 30
  023ac	e5932000	 ldr         r2, [r3]
  023b0	e3e03101	 mvn         r3, #1, 2
  023b4	e0022003	 and         r2, r2, r3
  023b8	e59d3010	 ldr         r3, [sp, #0x10]
  023bc	e2833f7d	 add         r3, r3, #0x7D, 30
  023c0	e5832000	 str         r2, [r3]

; 1100 :         LeaveCriticalSection( &m_critSec );

  023c4	e59d3010	 ldr         r3, [sp, #0x10]
  023c8	e28300b0	 add         r0, r3, #0xB0
  023cc	eb000000	 bl          LeaveCriticalSection

; 1101 : 
; 1102 :         bRetValue = FALSE;

  023d0	e3a03000	 mov         r3, #0
  023d4	e58d3000	 str         r3, [sp]
  023d8		 |$LN2@HandleCard|

; 1103 :     }
; 1104 : 
; 1105 :     if (dwStatus & EXT_MMCHS_STAT_CD_INSERT_INTR)

  023d8	e59d3014	 ldr         r3, [sp, #0x14]
  023dc	e3130102	 tst         r3, #2, 2
  023e0	0a000011	 beq         |$LN1@HandleCard|

; 1106 :     {
; 1107 :         EnterCriticalSection( &m_critSec );

  023e4	e59d3010	 ldr         r3, [sp, #0x10]
  023e8	e28300b0	 add         r0, r3, #0xB0
  023ec	eb000000	 bl          EnterCriticalSection

; 1108 :         m_CardDetectInterruptStatus &= ~EXT_MMCHS_STAT_CD_INSERT_INTR;

  023f0	e59d3010	 ldr         r3, [sp, #0x10]
  023f4	e2833f7d	 add         r3, r3, #0x7D, 30
  023f8	e5932000	 ldr         r2, [r3]
  023fc	e3e03102	 mvn         r3, #2, 2
  02400	e0022003	 and         r2, r2, r3
  02404	e59d3010	 ldr         r3, [sp, #0x10]
  02408	e2833f7d	 add         r3, r3, #0x7D, 30
  0240c	e5832000	 str         r2, [r3]

; 1109 :         LeaveCriticalSection( &m_critSec );

  02410	e59d3010	 ldr         r3, [sp, #0x10]
  02414	e28300b0	 add         r0, r3, #0xB0
  02418	eb000000	 bl          LeaveCriticalSection

; 1110 : 
; 1111 :         #ifdef ENABLE_RETAIL_OUTPUT
; 1112 :             RETAILMSG(1, (TEXT("CardDetectInterrupt: Card inserted!\r\n")));
; 1113 :         #endif
; 1114 : 			
; 1115 :         HandleInsertion();

  0241c	e59d0010	 ldr         r0, [sp, #0x10]
  02420	eb000000	 bl          |?HandleInsertion@CSDIOControllerBase@@QAAXXZ|

; 1116 : 
; 1117 :         bRetValue = TRUE;

  02424	e3a03001	 mov         r3, #1
  02428	e58d3000	 str         r3, [sp]
  0242c		 |$LN1@HandleCard|

; 1118 :     }
; 1119 : 
; 1120 :     return bRetValue;

  0242c	e59d3000	 ldr         r3, [sp]
  02430	e58d3004	 str         r3, [sp, #4]

; 1121 : }

  02434	e59d0004	 ldr         r0, [sp, #4]
  02438	e28dd008	 add         sp, sp, #8
  0243c	e89d6000	 ldmia       sp, {sp, lr}
  02440	e12fff1e	 bx          lr
  02444		 |$M45366|

			 ENDP  ; |?HandleCardDetectInterrupt@CSDIOControllerBase@@QAAHK@Z|, CSDIOControllerBase::HandleCardDetectInterrupt

	EXPORT	|??_C@_1JC@HAEMKOLC@?$AAC?$AAa?$AAr?$AAd?$AA?5?$AAR?$AAe?$AAm?$AAo?$AAv?$AAa?$AAl?$AA?5?$AAD?$AAe?$AAt?$AAe?$AAc?$AAt?$AAe?$AAd?$AA?5?$AA?9?$AA?5?$AAC?$AAa?$AAn?$AAc?$AAe?$AAl?$AAi?$AAn@| [ DATA ] ; `string'
	EXPORT	|?SystemClockOn@CSDIOControllerBase@@QAAXH@Z| ; CSDIOControllerBase::SystemClockOn
	EXPORT	|??_C@_1CA@LKFKMGBK@?$AAH?$AAa?$AAn?$AAd?$AAl?$AAe?$AAR?$AAe?$AAm?$AAo?$AAv?$AAa?$AAl?$AA?$AN?$AA?6?$AA?$AA@| [ DATA ] ; `string'
	IMPORT	|SDHCDIndicateBusRequestComplete|
	IMPORT	|SDHCDGetAndLockCurrentRequest|

  000a8			 AREA	 |.pdata|, PDATA
|$T45377| DCD	|$LN16@HandleRemo|
	DCD	0x4000a104

  00000			 AREA	 |.rdata|, DATA, READONLY
|??_C@_1JC@HAEMKOLC@?$AAC?$AAa?$AAr?$AAd?$AA?5?$AAR?$AAe?$AAm?$AAo?$AAv?$AAa?$AAl?$AA?5?$AAD?$AAe?$AAt?$AAe?$AAc?$AAt?$AAe?$AAd?$AA?5?$AA?9?$AA?5?$AAC?$AAa?$AAn?$AAc?$AAe?$AAl?$AAi?$AAn@| DCB "C"
	DCB	0x0, "a", 0x0, "r", 0x0, "d", 0x0, " ", 0x0, "R", 0x0, "e"
	DCB	0x0, "m", 0x0, "o", 0x0, "v", 0x0, "a", 0x0, "l", 0x0, " "
	DCB	0x0, "D", 0x0, "e", 0x0, "t", 0x0, "e", 0x0, "c", 0x0, "t"
	DCB	0x0, "e", 0x0, "d", 0x0, " ", 0x0, "-", 0x0, " ", 0x0, "C"
	DCB	0x0, "a", 0x0, "n", 0x0, "c", 0x0, "e", 0x0, "l", 0x0, "i"
	DCB	0x0, "n", 0x0, "g", 0x0, " ", 0x0, "c", 0x0, "u", 0x0, "r"
	DCB	0x0, "r", 0x0, "e", 0x0, "n", 0x0, "t", 0x0, " ", 0x0, "r"
	DCB	0x0, "e", 0x0, "q", 0x0, "u", 0x0, "e", 0x0, "s", 0x0, "t"
	DCB	0x0, ":", 0x0, " ", 0x0, "0", 0x0, "x", 0x0, "%", 0x0, "0"
	DCB	0x0, "8", 0x0, "X", 0x0, ",", 0x0, " ", 0x0, "c", 0x0, "o"
	DCB	0x0, "m", 0x0, "m", 0x0, "a", 0x0, "n", 0x0, "d", 0x0, ":"
	DCB	0x0, " ", 0x0, "%", 0x0, "d", 0x0, 0xd, 0x0, 0xa, 0x0, 0x0
	DCB	0x0					; `string'

  00000			 AREA	 |.rdata|, DATA, READONLY
|??_C@_1CA@LKFKMGBK@?$AAH?$AAa?$AAn?$AAd?$AAl?$AAe?$AAR?$AAe?$AAm?$AAo?$AAv?$AAa?$AAl?$AA?$AN?$AA?6?$AA?$AA@| DCB "H"
	DCB	0x0, "a", 0x0, "n", 0x0, "d", 0x0, "l", 0x0, "e", 0x0, "R"
	DCB	0x0, "e", 0x0, "m", 0x0, "o", 0x0, "v", 0x0, "a", 0x0, "l"
	DCB	0x0, 0xd, 0x0, 0xa, 0x0, 0x0, 0x0	; `string'
; Function compile flags: /Odtp

  02444			 AREA	 |.text|, CODE, ARM

  02444		 |?HandleRemoval@CSDIOControllerBase@@QAAXH@Z| PROC ; CSDIOControllerBase::HandleRemoval

; 1126 : {

  02444		 |$LN16@HandleRemo|
  02444	e1a0c00d	 mov         r12, sp
  02448	e92d0003	 stmdb       sp!, {r0, r1}
  0244c	e92d5000	 stmdb       sp!, {r12, lr}
  02450	e24dd014	 sub         sp, sp, #0x14
  02454		 |$M45374|

; 1127 :     PSD_BUS_REQUEST pRequest = NULL;

  02454	e3a03000	 mov         r3, #0
  02458	e58d3000	 str         r3, [sp]

; 1128 : 
; 1129 :     m_fCardPresent = FALSE;

  0245c	e59d301c	 ldr         r3, [sp, #0x1C]
  02460	e28320f0	 add         r2, r3, #0xF0
  02464	e3a03000	 mov         r3, #0
  02468	e5823000	 str         r3, [r2]

; 1130 :     m_fMMCMode = FALSE;

  0246c	e59d301c	 ldr         r3, [sp, #0x1C]
  02470	e28320f8	 add         r2, r3, #0xF8
  02474	e3a03000	 mov         r3, #0
  02478	e5823000	 str         r3, [r2]

; 1131 : 
; 1132 :     DEBUGMSG(SDCARD_ZONE_INIT, (TEXT("HandleRemoval\r\n")));

  0247c	e59f323c	 ldr         r3, [pc, #0x23C]
  02480	e5933440	 ldr         r3, [r3, #0x440]
  02484	e3130a02	 tst         r3, #2, 20
  02488	0a000004	 beq         |$LN10@HandleRemo|
  0248c	e59f0230	 ldr         r0, [pc, #0x230]
  02490	eb000000	 bl          NKDbgPrintfW
  02494	e3a03001	 mov         r3, #1
  02498	e58d3004	 str         r3, [sp, #4]
  0249c	ea000001	 b           |$LN11@HandleRemo|
  024a0		 |$LN10@HandleRemo|
  024a0	e3a03000	 mov         r3, #0
  024a4	e58d3004	 str         r3, [sp, #4]
  024a8		 |$LN11@HandleRemo|

; 1133 : 
; 1134 :     TurnCardPowerOn();  // try to turn slot power on

  024a8	e59d301c	 ldr         r3, [sp, #0x1C]
  024ac	e5933000	 ldr         r3, [r3]
  024b0	e2833014	 add         r3, r3, #0x14
  024b4	e59d001c	 ldr         r0, [sp, #0x1C]
  024b8	e5933000	 ldr         r3, [r3]
  024bc	e1a0e00f	 mov         lr, pc
  024c0	e12fff13	 bx          r3

; 1135 : 
; 1136 :     IndicateSlotStateChange(DeviceEjected);

  024c4	e3a02001	 mov         r2, #1
  024c8	e3a01000	 mov         r1, #0
  024cc	e59d301c	 ldr         r3, [sp, #0x1C]
  024d0	e28330a8	 add         r3, r3, #0xA8
  024d4	e5930000	 ldr         r0, [r3]
  024d8	eb000000	 bl          SDHCDIndicateSlotStateChange

; 1137 :     SystemClockOn(FALSE);

  024dc	e3a01000	 mov         r1, #0
  024e0	e59d001c	 ldr         r0, [sp, #0x1C]
  024e4	eb000000	 bl          |?SystemClockOn@CSDIOControllerBase@@QAAXH@Z|

; 1138 : 
; 1139 :     // turn off SDIO interrupts
; 1140 :     if( m_fSDIOInterruptsEnabled )

  024e8	e59d301c	 ldr         r3, [sp, #0x1C]
  024ec	e28330f4	 add         r3, r3, #0xF4
  024f0	e5933000	 ldr         r3, [r3]
  024f4	e3530000	 cmp         r3, #0
  024f8	0a000001	 beq         |$LN7@HandleRemo|

; 1141 :         {
; 1142 :     DisableSDIOInterrupts();

  024fc	e59d001c	 ldr         r0, [sp, #0x1C]
  02500	eb000000	 bl          |?DisableSDIOInterrupts@CSDIOControllerBase@@QAAXXZ|
  02504		 |$LN7@HandleRemo|

; 1143 :         }
; 1144 : 
; 1145 :     if (fCancelRequest)

  02504	e59d3020	 ldr         r3, [sp, #0x20]
  02508	e3530000	 cmp         r3, #0
  0250c	0a000022	 beq         |$LN6@HandleRemo|

; 1146 :     {
; 1147 :         // get the current request
; 1148 :         pRequest = GetAndLockCurrentRequest();

  02510	e3a01000	 mov         r1, #0
  02514	e59d301c	 ldr         r3, [sp, #0x1C]
  02518	e28330a8	 add         r3, r3, #0xA8
  0251c	e5930000	 ldr         r0, [r3]
  02520	eb000000	 bl          SDHCDGetAndLockCurrentRequest
  02524	e58d0008	 str         r0, [sp, #8]
  02528	e59d3008	 ldr         r3, [sp, #8]
  0252c	e58d3000	 str         r3, [sp]

; 1149 : 
; 1150 :         if (pRequest != NULL)

  02530	e59d3000	 ldr         r3, [sp]
  02534	e3530000	 cmp         r3, #0
  02538	0a000017	 beq         |$LN5@HandleRemo|

; 1151 :         {
; 1152 :             DEBUGMSG(SDCARD_ZONE_WARN,
; 1153 :                 (TEXT("Card Removal Detected - Canceling current request: 0x%08X, command: %d\r\n"),
; 1154 :                 pRequest, pRequest->CommandCode));

  0253c	e59f317c	 ldr         r3, [pc, #0x17C]
  02540	e5933440	 ldr         r3, [r3, #0x440]
  02544	e3130901	 tst         r3, #1, 18
  02548	0a000009	 beq         |$LN12@HandleRemo|
  0254c	e59d3000	 ldr         r3, [sp]
  02550	e2833014	 add         r3, r3, #0x14
  02554	e5d33000	 ldrb        r3, [r3]
  02558	e1a02003	 mov         r2, r3
  0255c	e59d1000	 ldr         r1, [sp]
  02560	e59f0154	 ldr         r0, [pc, #0x154]
  02564	eb000000	 bl          NKDbgPrintfW
  02568	e3a03001	 mov         r3, #1
  0256c	e58d300c	 str         r3, [sp, #0xC]
  02570	ea000001	 b           |$LN13@HandleRemo|
  02574		 |$LN12@HandleRemo|
  02574	e3a03000	 mov         r3, #0
  02578	e58d300c	 str         r3, [sp, #0xC]
  0257c		 |$LN13@HandleRemo|

; 1155 :             DumpRequest(pRequest);

  0257c	e59d0000	 ldr         r0, [sp]
  02580	eb000000	 bl          |?DumpRequest@@YAXPAU_SD_BUS_REQUEST@@@Z|

; 1156 :             IndicateBusRequestComplete(pRequest, SD_API_STATUS_DEVICE_REMOVED);

  02584	e3a02147	 mov         r2, #0x47, 2
  02588	e59d1000	 ldr         r1, [sp]
  0258c	e59d301c	 ldr         r3, [sp, #0x1C]
  02590	e28330a8	 add         r3, r3, #0xA8
  02594	e5930000	 ldr         r0, [r3]
  02598	eb000000	 bl          SDHCDIndicateBusRequestComplete
  0259c		 |$LN5@HandleRemo|
  0259c		 |$LN6@HandleRemo|

; 1157 :         }
; 1158 :     }
; 1159 :     
; 1160 :     if(m_ActualPowerState == D4) return;

  0259c	e59d301c	 ldr         r3, [sp, #0x1C]
  025a0	e28330e0	 add         r3, r3, #0xE0
  025a4	e5933000	 ldr         r3, [r3]
  025a8	e3530004	 cmp         r3, #4
  025ac	1a000000	 bne         |$LN4@HandleRemo|
  025b0	ea00003e	 b           |$LN8@HandleRemo|
  025b4		 |$LN4@HandleRemo|

; 1161 :     SoftwareReset(SOFT_RESET_ALL);

  025b4	e3a01401	 mov         r1, #1, 8
  025b8	e59d001c	 ldr         r0, [sp, #0x1C]
  025bc	eb000000	 bl          |?SoftwareReset@CSDIOControllerBase@@QAAXK@Z|

; 1162 :     DisableSDHCInterrupts();

  025c0	e59d001c	 ldr         r0, [sp, #0x1C]
  025c4	eb000000	 bl          |?DisableSDHCInterrupts@CSDIOControllerBase@@QAAXXZ|

; 1163 : 
; 1164 :     if (m_dwSDClockMode)

  025c8	e59d301c	 ldr         r3, [sp, #0x1C]
  025cc	e2833f67	 add         r3, r3, #0x67, 30
  025d0	e5933000	 ldr         r3, [r3]
  025d4	e3530000	 cmp         r3, #0
  025d8	0a000005	 beq         |$LN3@HandleRemo|

; 1165 :     {
; 1166 :     // turn clock off and remove power from the slot
; 1167 :     OUTREG32(&m_pbRegisters->MMCHS_SYSCONFIG, MMCHS_SYSCONFIG_AUTOIDLE | MMCHS_SYSCONFIG_SIDLEMODE(SIDLE_FORCE));

  025dc	e59d301c	 ldr         r3, [sp, #0x1C]
  025e0	e2833f57	 add         r3, r3, #0x57, 30
  025e4	e5933000	 ldr         r3, [r3]
  025e8	e2832010	 add         r2, r3, #0x10
  025ec	e3a03001	 mov         r3, #1
  025f0	e5823000	 str         r3, [r2]
  025f4		 |$LN3@HandleRemo|

; 1168 :     }
; 1169 :     
; 1170 :     ResetEvent(m_hControllerISTEvent);

  025f4	e59d301c	 ldr         r3, [sp, #0x1C]
  025f8	e2833f46	 add         r3, r3, #0x46, 30
  025fc	e5930000	 ldr         r0, [r3]
  02600	eb000000	 bl          ResetEvent

; 1171 :     Sleep(100);

  02604	e3a00064	 mov         r0, #0x64
  02608	eb000000	 bl          Sleep

; 1172 : 
; 1173 :     m_fCardInitialized = FALSE;

  0260c	e59d301c	 ldr         r3, [sp, #0x1C]
  02610	e2832f4f	 add         r2, r3, #0x4F, 30
  02614	e3a03000	 mov         r3, #0
  02618	e5823000	 str         r3, [r2]

; 1174 : 
; 1175 :     CLRREG32(&m_pbRegisters->MMCHS_CON, MMCHS_CON_CLKEXTFREE);

  0261c	e59d301c	 ldr         r3, [sp, #0x1C]
  02620	e2833f57	 add         r3, r3, #0x57, 30
  02624	e5933000	 ldr         r3, [r3]
  02628	e283302c	 add         r3, r3, #0x2C
  0262c	e5932000	 ldr         r2, [r3]
  02630	e3e03801	 mvn         r3, #1, 16
  02634	e0022003	 and         r2, r2, r3
  02638	e59d301c	 ldr         r3, [sp, #0x1C]
  0263c	e2833f57	 add         r3, r3, #0x57, 30
  02640	e5933000	 ldr         r3, [r3]
  02644	e283302c	 add         r3, r3, #0x2C
  02648	e5832000	 str         r2, [r3]
  0264c		 |$LN2@HandleRemo|

; 1176 : 
; 1177 : #if 0
; 1178 :     // get and lock the current bus request
; 1179 :     while(SDHCDGetAndLockCurrentRequest(m_pHCContext, 0) != NULL)
; 1180 :     {
; 1181 :         CommandCompleteHandler();
; 1182 :     }
; 1183 : #else
; 1184 :     // get and lock the current bus request
; 1185 :     while((pRequest = SDHCDGetAndLockCurrentRequest(m_pHCContext, 0)) != NULL)

  0264c	e3a01000	 mov         r1, #0
  02650	e59d301c	 ldr         r3, [sp, #0x1C]
  02654	e28330a8	 add         r3, r3, #0xA8
  02658	e5930000	 ldr         r0, [r3]
  0265c	eb000000	 bl          SDHCDGetAndLockCurrentRequest
  02660	e58d0010	 str         r0, [sp, #0x10]
  02664	e59d3010	 ldr         r3, [sp, #0x10]
  02668	e58d3000	 str         r3, [sp]
  0266c	e59d3000	 ldr         r3, [sp]
  02670	e3530000	 cmp         r3, #0
  02674	0a000006	 beq         |$LN1@HandleRemo|

; 1186 :     {
; 1187 :         IndicateBusRequestComplete(pRequest, SD_API_STATUS_DEVICE_REMOVED);

  02678	e3a02147	 mov         r2, #0x47, 2
  0267c	e59d1000	 ldr         r1, [sp]
  02680	e59d301c	 ldr         r3, [sp, #0x1C]
  02684	e28330a8	 add         r3, r3, #0xA8
  02688	e5930000	 ldr         r0, [r3]
  0268c	eb000000	 bl          SDHCDIndicateBusRequestComplete

; 1188 :     }

  02690	eaffffed	 b           |$LN2@HandleRemo|
  02694		 |$LN1@HandleRemo|

; 1189 : #endif
; 1190 : 
; 1191 :     TurnCardPowerOff();  // try to turn slot power off

  02694	e59d301c	 ldr         r3, [sp, #0x1C]
  02698	e5933000	 ldr         r3, [r3]
  0269c	e2833018	 add         r3, r3, #0x18
  026a0	e59d001c	 ldr         r0, [sp, #0x1C]
  026a4	e5933000	 ldr         r3, [r3]
  026a8	e1a0e00f	 mov         lr, pc
  026ac	e12fff13	 bx          r3
  026b0		 |$LN8@HandleRemo|

; 1192 : }

  026b0	e28dd014	 add         sp, sp, #0x14
  026b4	e89d6000	 ldmia       sp, {sp, lr}
  026b8	e12fff1e	 bx          lr
  026bc		 |$LN17@HandleRemo|
  026bc		 |$LN18@HandleRemo|
  026bc	00000000	 DCD         |??_C@_1JC@HAEMKOLC@?$AAC?$AAa?$AAr?$AAd?$AA?5?$AAR?$AAe?$AAm?$AAo?$AAv?$AAa?$AAl?$AA?5?$AAD?$AAe?$AAt?$AAe?$AAc?$AAt?$AAe?$AAd?$AA?5?$AA?9?$AA?5?$AAC?$AAa?$AAn?$AAc?$AAe?$AAl?$AAi?$AAn@|
  026c0		 |$LN19@HandleRemo|
  026c0	00000000	 DCD         |dpCurSettings|
  026c4		 |$LN20@HandleRemo|
  026c4	00000000	 DCD         |??_C@_1CA@LKFKMGBK@?$AAH?$AAa?$AAn?$AAd?$AAl?$AAe?$AAR?$AAe?$AAm?$AAo?$AAv?$AAa?$AAl?$AA?$AN?$AA?6?$AA?$AA@|
  026c8		 |$M45375|

			 ENDP  ; |?HandleRemoval@CSDIOControllerBase@@QAAXH@Z|, CSDIOControllerBase::HandleRemoval

; File c:\wince600\platform\common\src\soc\common_ti_v1\common_ti\inc\sdhc.h

  00000			 AREA	 |.pdata|, PDATA
|$T45386| DCD	|$LN5@SystemCloc|
	DCD	0x40000c03
; Function compile flags: /Odtp

  00000			 AREA	 |.text|, CODE, ARM

  00000		 |?SystemClockOn@CSDIOControllerBase@@QAAXH@Z| PROC ; CSDIOControllerBase::SystemClockOn

; 194  :     VOID SystemClockOn(BOOL bInPowerHandler) {

  00000		 |$LN5@SystemCloc|
  00000	e1a0c00d	 mov         r12, sp
  00004	e92d0003	 stmdb       sp!, {r0, r1}
  00008	e92d5000	 stmdb       sp!, {r12, lr}
  0000c		 |$M45383|

; 195  :         m_InternPowerState = D0;

  0000c	e59d3008	 ldr         r3, [sp, #8]
  00010	e28320dc	 add         r2, r3, #0xDC
  00014	e3a03000	 mov         r3, #0
  00018	e5823000	 str         r3, [r2]

; 196  :         UpdateDevicePowerState(bInPowerHandler);

  0001c	e59d100c	 ldr         r1, [sp, #0xC]
  00020	e59d0008	 ldr         r0, [sp, #8]
  00024	eb000000	 bl          |?UpdateDevicePowerState@CSDIOControllerBase@@QAAXH@Z|

; 197  :     }

  00028	e89d6000	 ldmia       sp, {sp, lr}
  0002c	e12fff1e	 bx          lr
  00030		 |$M45384|

			 ENDP  ; |?SystemClockOn@CSDIOControllerBase@@QAAXH@Z|, CSDIOControllerBase::SystemClockOn

	EXPORT	|??_C@_1CA@DNEINKPE@?$AA?7?$AA?5?$AAH?$AAC?$AAP?$AAa?$AAr?$AAa?$AAm?$AA?3?$AA?5?$AA?$CF?$AAd?$AA?$AN?$AA?6?$AA?$AA@| [ DATA ] ; `string'
	EXPORT	|??_C@_1CE@KFDEONKD@?$AA?7?$AA?5?$AAB?$AAl?$AAo?$AAc?$AAk?$AAS?$AAi?$AAz?$AAe?$AA?3?$AA?5?$AA?$CF?$AAd?$AA?$AN?$AA?6?$AA?$AA@| [ DATA ] ; `string'
	EXPORT	|??_C@_1CE@PODDKJIC@?$AA?7?$AA?5?$AAN?$AAu?$AAm?$AAB?$AAl?$AAo?$AAc?$AAk?$AAs?$AA?3?$AA?5?$AA?$CF?$AAd?$AA?$AN?$AA?6?$AA?$AA@| [ DATA ] ; `string'
	EXPORT	|??_C@_1CK@MGLECOGG@?$AA?7?$AA?5?$AAR?$AAe?$AAs?$AAp?$AAo?$AAn?$AAs?$AAe?$AAT?$AAy?$AAp?$AAe?$AA?3?$AA?5?$AA?$CF?$AAd?$AA?$AN?$AA?6?$AA?$AA@| [ DATA ] ; `string'
	EXPORT	|??_C@_1CA@PIELIBDA@?$AA?7?$AA?5?$AAC?$AAo?$AAm?$AAm?$AAa?$AAn?$AAd?$AA?3?$AA?5?$AA?$CF?$AAd?$AA?$AN?$AA?6?$AA?$AA@| [ DATA ] ; `string'
	EXPORT	|??_C@_1DK@KOBHFAMI@?$AAD?$AAu?$AAm?$AAp?$AAC?$AAu?$AAr?$AAr?$AAe?$AAn?$AAt?$AAR?$AAe?$AAq?$AAu?$AAe?$AAs?$AAt?$AA?3?$AA?5?$AA0?$AAx?$AA?$CF?$AA0?$AA8?$AAX?$AA?$AN?$AA?6?$AA?$AA@| [ DATA ] ; `string'

  000b0			 AREA	 |.pdata|, PDATA
|$T45407| DCD	|$LN19@DumpReques|
	DCD	0x40007104
; File c:\wince600\platform\common\src\soc\common_ti_v1\common_ti\sdhc\base\sdhc.cpp

  00000			 AREA	 |.rdata|, DATA, READONLY
|??_C@_1CA@DNEINKPE@?$AA?7?$AA?5?$AAH?$AAC?$AAP?$AAa?$AAr?$AAa?$AAm?$AA?3?$AA?5?$AA?$CF?$AAd?$AA?$AN?$AA?6?$AA?$AA@| DCB 0x9
	DCB	0x0, " ", 0x0, "H", 0x0, "C", 0x0, "P", 0x0, "a", 0x0, "r"
	DCB	0x0, "a", 0x0, "m", 0x0, ":", 0x0, " ", 0x0, "%", 0x0, "d"
	DCB	0x0, 0xd, 0x0, 0xa, 0x0, 0x0, 0x0	; `string'

  00000			 AREA	 |.rdata|, DATA, READONLY
|??_C@_1CE@KFDEONKD@?$AA?7?$AA?5?$AAB?$AAl?$AAo?$AAc?$AAk?$AAS?$AAi?$AAz?$AAe?$AA?3?$AA?5?$AA?$CF?$AAd?$AA?$AN?$AA?6?$AA?$AA@| DCB 0x9
	DCB	0x0, " ", 0x0, "B", 0x0, "l", 0x0, "o", 0x0, "c", 0x0, "k"
	DCB	0x0, "S", 0x0, "i", 0x0, "z", 0x0, "e", 0x0, ":", 0x0, " "
	DCB	0x0, "%", 0x0, "d", 0x0, 0xd, 0x0, 0xa, 0x0, 0x0, 0x0 ; `string'

  00000			 AREA	 |.rdata|, DATA, READONLY
|??_C@_1CE@PODDKJIC@?$AA?7?$AA?5?$AAN?$AAu?$AAm?$AAB?$AAl?$AAo?$AAc?$AAk?$AAs?$AA?3?$AA?5?$AA?$CF?$AAd?$AA?$AN?$AA?6?$AA?$AA@| DCB 0x9
	DCB	0x0, " ", 0x0, "N", 0x0, "u", 0x0, "m", 0x0, "B", 0x0, "l"
	DCB	0x0, "o", 0x0, "c", 0x0, "k", 0x0, "s", 0x0, ":", 0x0, " "
	DCB	0x0, "%", 0x0, "d", 0x0, 0xd, 0x0, 0xa, 0x0, 0x0, 0x0 ; `string'

  00000			 AREA	 |.rdata|, DATA, READONLY
|??_C@_1CK@MGLECOGG@?$AA?7?$AA?5?$AAR?$AAe?$AAs?$AAp?$AAo?$AAn?$AAs?$AAe?$AAT?$AAy?$AAp?$AAe?$AA?3?$AA?5?$AA?$CF?$AAd?$AA?$AN?$AA?6?$AA?$AA@| DCB 0x9
	DCB	0x0, " ", 0x0, "R", 0x0, "e", 0x0, "s", 0x0, "p", 0x0, "o"
	DCB	0x0, "n", 0x0, "s", 0x0, "e", 0x0, "T", 0x0, "y", 0x0, "p"
	DCB	0x0, "e", 0x0, ":", 0x0, " ", 0x0, "%", 0x0, "d", 0x0, 0xd
	DCB	0x0, 0xa, 0x0, 0x0, 0x0			; `string'

  00000			 AREA	 |.rdata|, DATA, READONLY
|??_C@_1CA@PIELIBDA@?$AA?7?$AA?5?$AAC?$AAo?$AAm?$AAm?$AAa?$AAn?$AAd?$AA?3?$AA?5?$AA?$CF?$AAd?$AA?$AN?$AA?6?$AA?$AA@| DCB 0x9
	DCB	0x0, " ", 0x0, "C", 0x0, "o", 0x0, "m", 0x0, "m", 0x0, "a"
	DCB	0x0, "n", 0x0, "d", 0x0, ":", 0x0, " ", 0x0, "%", 0x0, "d"
	DCB	0x0, 0xd, 0x0, 0xa, 0x0, 0x0, 0x0	; `string'

  00000			 AREA	 |.rdata|, DATA, READONLY
|??_C@_1DK@KOBHFAMI@?$AAD?$AAu?$AAm?$AAp?$AAC?$AAu?$AAr?$AAr?$AAe?$AAn?$AAt?$AAR?$AAe?$AAq?$AAu?$AAe?$AAs?$AAt?$AA?3?$AA?5?$AA0?$AAx?$AA?$CF?$AA0?$AA8?$AAX?$AA?$AN?$AA?6?$AA?$AA@| DCB "D"
	DCB	0x0, "u", 0x0, "m", 0x0, "p", 0x0, "C", 0x0, "u", 0x0, "r"
	DCB	0x0, "r", 0x0, "e", 0x0, "n", 0x0, "t", 0x0, "R", 0x0, "e"
	DCB	0x0, "q", 0x0, "u", 0x0, "e", 0x0, "s", 0x0, "t", 0x0, ":"
	DCB	0x0, " ", 0x0, "0", 0x0, "x", 0x0, "%", 0x0, "0", 0x0, "8"
	DCB	0x0, "X", 0x0, 0xd, 0x0, 0xa, 0x0, 0x0, 0x0 ; `string'
; Function compile flags: /Odtp

  026c8			 AREA	 |.text|, CODE, ARM

  026c8		 |?DumpRequest@@YAXPAU_SD_BUS_REQUEST@@@Z| PROC ; DumpRequest

; 164  : {

  026c8		 |$LN19@DumpReques|
  026c8	e1a0c00d	 mov         r12, sp
  026cc	e92d0001	 stmdb       sp!, {r0}
  026d0	e92d5000	 stmdb       sp!, {r12, lr}
  026d4	e24dd01c	 sub         sp, sp, #0x1C
  026d8		 |$M45404|

; 165  :     DEBUGCHK(pRequest);

  026d8	e59d3024	 ldr         r3, [sp, #0x24]
  026dc	e3530000	 cmp         r3, #0
  026e0	0a000002	 beq         |$LN3@DumpReques|
  026e4	e3a03001	 mov         r3, #1
  026e8	e58d3000	 str         r3, [sp]
  026ec	ea000007	 b           |$LN4@DumpReques|
  026f0		 |$LN3@DumpReques|
  026f0	e3a030a5	 mov         r3, #0xA5
  026f4	e59f218c	 ldr         r2, [pc, #0x18C]
  026f8	e59f116c	 ldr         r1, [pc, #0x16C]
  026fc	e59f0180	 ldr         r0, [pc, #0x180]
  02700	eb000000	 bl          NKDbgPrintfW
  02704	e6000010	 __debugbreak_ce
  02708	e3a03000	 mov         r3, #0
  0270c	e58d3000	 str         r3, [sp]
  02710		 |$LN4@DumpReques|

; 166  : 
; 167  :     DEBUGMSG(SDCARD_ZONE_INIT, (TEXT("DumpCurrentRequest: 0x%08X\r\n"), pRequest));

  02710	e59f3154	 ldr         r3, [pc, #0x154]
  02714	e5933440	 ldr         r3, [r3, #0x440]
  02718	e3130a02	 tst         r3, #2, 20
  0271c	0a000005	 beq         |$LN5@DumpReques|
  02720	e59d1024	 ldr         r1, [sp, #0x24]
  02724	e59f0154	 ldr         r0, [pc, #0x154]
  02728	eb000000	 bl          NKDbgPrintfW
  0272c	e3a03001	 mov         r3, #1
  02730	e58d3004	 str         r3, [sp, #4]
  02734	ea000001	 b           |$LN6@DumpReques|
  02738		 |$LN5@DumpReques|
  02738	e3a03000	 mov         r3, #0
  0273c	e58d3004	 str         r3, [sp, #4]
  02740		 |$LN6@DumpReques|

; 168  :     DEBUGMSG(SDCARD_ZONE_INIT, (TEXT("\t Command: %d\r\n"),  pRequest->CommandCode));

  02740	e59f3124	 ldr         r3, [pc, #0x124]
  02744	e5933440	 ldr         r3, [r3, #0x440]
  02748	e3130a02	 tst         r3, #2, 20
  0274c	0a000008	 beq         |$LN7@DumpReques|
  02750	e59d3024	 ldr         r3, [sp, #0x24]
  02754	e2833014	 add         r3, r3, #0x14
  02758	e5d33000	 ldrb        r3, [r3]
  0275c	e1a01003	 mov         r1, r3
  02760	e59f0114	 ldr         r0, [pc, #0x114]
  02764	eb000000	 bl          NKDbgPrintfW
  02768	e3a03001	 mov         r3, #1
  0276c	e58d3008	 str         r3, [sp, #8]
  02770	ea000001	 b           |$LN8@DumpReques|
  02774		 |$LN7@DumpReques|
  02774	e3a03000	 mov         r3, #0
  02778	e58d3008	 str         r3, [sp, #8]
  0277c		 |$LN8@DumpReques|

; 169  :     DEBUGMSG(SDCARD_ZONE_INIT, (TEXT("\t ResponseType: %d\r\n"),  pRequest->CommandResponse.ResponseType));

  0277c	e59f30e8	 ldr         r3, [pc, #0xE8]
  02780	e5933440	 ldr         r3, [r3, #0x440]
  02784	e3130a02	 tst         r3, #2, 20
  02788	0a000007	 beq         |$LN9@DumpReques|
  0278c	e59d3024	 ldr         r3, [sp, #0x24]
  02790	e283301c	 add         r3, r3, #0x1C
  02794	e5931000	 ldr         r1, [r3]
  02798	e59f00d8	 ldr         r0, [pc, #0xD8]
  0279c	eb000000	 bl          NKDbgPrintfW
  027a0	e3a03001	 mov         r3, #1
  027a4	e58d300c	 str         r3, [sp, #0xC]
  027a8	ea000001	 b           |$LN10@DumpReques|
  027ac		 |$LN9@DumpReques|
  027ac	e3a03000	 mov         r3, #0
  027b0	e58d300c	 str         r3, [sp, #0xC]
  027b4		 |$LN10@DumpReques|

; 170  :     DEBUGMSG(SDCARD_ZONE_INIT, (TEXT("\t NumBlocks: %d\r\n"),  pRequest->NumBlocks));

  027b4	e59f30b0	 ldr         r3, [pc, #0xB0]
  027b8	e5933440	 ldr         r3, [r3, #0x440]
  027bc	e3130a02	 tst         r3, #2, 20
  027c0	0a000007	 beq         |$LN11@DumpReques|
  027c4	e59d3024	 ldr         r3, [sp, #0x24]
  027c8	e283303c	 add         r3, r3, #0x3C
  027cc	e5931000	 ldr         r1, [r3]
  027d0	e59f009c	 ldr         r0, [pc, #0x9C]
  027d4	eb000000	 bl          NKDbgPrintfW
  027d8	e3a03001	 mov         r3, #1
  027dc	e58d3010	 str         r3, [sp, #0x10]
  027e0	ea000001	 b           |$LN12@DumpReques|
  027e4		 |$LN11@DumpReques|
  027e4	e3a03000	 mov         r3, #0
  027e8	e58d3010	 str         r3, [sp, #0x10]
  027ec		 |$LN12@DumpReques|

; 171  :     DEBUGMSG(SDCARD_ZONE_INIT, (TEXT("\t BlockSize: %d\r\n"),  pRequest->BlockSize));

  027ec	e59f3078	 ldr         r3, [pc, #0x78]
  027f0	e5933440	 ldr         r3, [r3, #0x440]
  027f4	e3130a02	 tst         r3, #2, 20
  027f8	0a000007	 beq         |$LN13@DumpReques|
  027fc	e59d3024	 ldr         r3, [sp, #0x24]
  02800	e2833040	 add         r3, r3, #0x40
  02804	e5931000	 ldr         r1, [r3]
  02808	e59f0060	 ldr         r0, [pc, #0x60]
  0280c	eb000000	 bl          NKDbgPrintfW
  02810	e3a03001	 mov         r3, #1
  02814	e58d3014	 str         r3, [sp, #0x14]
  02818	ea000001	 b           |$LN14@DumpReques|
  0281c		 |$LN13@DumpReques|
  0281c	e3a03000	 mov         r3, #0
  02820	e58d3014	 str         r3, [sp, #0x14]
  02824		 |$LN14@DumpReques|

; 172  :     DEBUGMSG(SDCARD_ZONE_INIT, (TEXT("\t HCParam: %d\r\n"),    pRequest->HCParam));

  02824	e59f3040	 ldr         r3, [pc, #0x40]
  02828	e5933440	 ldr         r3, [r3, #0x440]
  0282c	e3130a02	 tst         r3, #2, 20
  02830	0a000007	 beq         |$LN15@DumpReques|
  02834	e59d3024	 ldr         r3, [sp, #0x24]
  02838	e2833044	 add         r3, r3, #0x44
  0283c	e5931000	 ldr         r1, [r3]
  02840	e59f0020	 ldr         r0, [pc, #0x20]
  02844	eb000000	 bl          NKDbgPrintfW
  02848	e3a03001	 mov         r3, #1
  0284c	e58d3018	 str         r3, [sp, #0x18]
  02850	ea000001	 b           |$LN16@DumpReques|
  02854		 |$LN15@DumpReques|
  02854	e3a03000	 mov         r3, #0
  02858	e58d3018	 str         r3, [sp, #0x18]
  0285c		 |$LN16@DumpReques|

; 173  : 
; 174  : }

  0285c	e28dd01c	 add         sp, sp, #0x1C
  02860	e89d6000	 ldmia       sp, {sp, lr}
  02864	e12fff1e	 bx          lr
  02868		 |$LN20@DumpReques|
  02868		 |$LN21@DumpReques|
  02868	00000000	 DCD         |??_C@_1CA@DNEINKPE@?$AA?7?$AA?5?$AAH?$AAC?$AAP?$AAa?$AAr?$AAa?$AAm?$AA?3?$AA?5?$AA?$CF?$AAd?$AA?$AN?$AA?6?$AA?$AA@|
  0286c		 |$LN22@DumpReques|
  0286c	00000000	 DCD         |dpCurSettings|
  02870		 |$LN23@DumpReques|
  02870	00000000	 DCD         |??_C@_1CE@KFDEONKD@?$AA?7?$AA?5?$AAB?$AAl?$AAo?$AAc?$AAk?$AAS?$AAi?$AAz?$AAe?$AA?3?$AA?5?$AA?$CF?$AAd?$AA?$AN?$AA?6?$AA?$AA@|
  02874		 |$LN24@DumpReques|
  02874	00000000	 DCD         |??_C@_1CE@PODDKJIC@?$AA?7?$AA?5?$AAN?$AAu?$AAm?$AAB?$AAl?$AAo?$AAc?$AAk?$AAs?$AA?3?$AA?5?$AA?$CF?$AAd?$AA?$AN?$AA?6?$AA?$AA@|
  02878		 |$LN25@DumpReques|
  02878	00000000	 DCD         |??_C@_1CK@MGLECOGG@?$AA?7?$AA?5?$AAR?$AAe?$AAs?$AAp?$AAo?$AAn?$AAs?$AAe?$AAT?$AAy?$AAp?$AAe?$AA?3?$AA?5?$AA?$CF?$AAd?$AA?$AN?$AA?6?$AA?$AA@|
  0287c		 |$LN26@DumpReques|
  0287c	00000000	 DCD         |??_C@_1CA@PIELIBDA@?$AA?7?$AA?5?$AAC?$AAo?$AAm?$AAm?$AAa?$AAn?$AAd?$AA?3?$AA?5?$AA?$CF?$AAd?$AA?$AN?$AA?6?$AA?$AA@|
  02880		 |$LN27@DumpReques|
  02880	00000000	 DCD         |??_C@_1DK@KOBHFAMI@?$AAD?$AAu?$AAm?$AAp?$AAC?$AAu?$AAr?$AAr?$AAe?$AAn?$AAt?$AAR?$AAe?$AAq?$AAu?$AAe?$AAs?$AAt?$AA?3?$AA?5?$AA0?$AAx?$AA?$CF?$AA0?$AA8?$AAX?$AA?$AN?$AA?6?$AA?$AA@|
  02884		 |$LN28@DumpReques|
  02884	00000000	 DCD         |??_C@_1FK@FNONLNGN@?$AA?$CF?$AAs?$AA?3?$AA?5?$AAD?$AAE?$AAB?$AAU?$AAG?$AAC?$AAH?$AAK?$AA?5?$AAf?$AAa?$AAi?$AAl?$AAe?$AAd?$AA?5?$AAi?$AAn?$AA?5?$AAf?$AAi?$AAl?$AAe?$AA?5?$AA?$CF?$AAs?$AA?5?$AAa@|
  02888		 |$LN29@DumpReques|
  02888	00000000	 DCD         |??_C@_1KA@CLLCPJCJ@?$AAC?$AA?3?$AA?2?$AAW?$AAI?$AAN?$AAC?$AAE?$AA6?$AA0?$AA0?$AA?2?$AAP?$AAL?$AAA?$AAT?$AAF?$AAO?$AAR?$AAM?$AA?2?$AAC?$AAO?$AAM?$AAM?$AAO?$AAN?$AA?2?$AAS?$AAR?$AAC?$AA?2@|
  0288c		 |$M45405|

			 ENDP  ; |?DumpRequest@@YAXPAU_SD_BUS_REQUEST@@@Z|, DumpRequest

	EXPORT	|??_C@_1CE@KDINBGED@?$AAH?$AAa?$AAn?$AAd?$AAl?$AAe?$AAI?$AAn?$AAs?$AAe?$AAr?$AAt?$AAi?$AAo?$AAn?$AA?$AN?$AA?6?$AA?$AA@| [ DATA ] ; `string'

  000b8			 AREA	 |.pdata|, PDATA
|$T45424| DCD	|$LN10@HandleInse|
	DCD	0x40006604

  00000			 AREA	 |.rdata|, DATA, READONLY
|??_C@_1CE@KDINBGED@?$AAH?$AAa?$AAn?$AAd?$AAl?$AAe?$AAI?$AAn?$AAs?$AAe?$AAr?$AAt?$AAi?$AAo?$AAn?$AA?$AN?$AA?6?$AA?$AA@| DCB "H"
	DCB	0x0, "a", 0x0, "n", 0x0, "d", 0x0, "l", 0x0, "e", 0x0, "I"
	DCB	0x0, "n", 0x0, "s", 0x0, "e", 0x0, "r", 0x0, "t", 0x0, "i"
	DCB	0x0, "o", 0x0, "n", 0x0, 0xd, 0x0, 0xa, 0x0, 0x0, 0x0 ; `string'
; Function compile flags: /Odtp

  0288c			 AREA	 |.text|, CODE, ARM

  0288c		 |?HandleInsertion@CSDIOControllerBase@@QAAXXZ| PROC ; CSDIOControllerBase::HandleInsertion

; 1197 : {

  0288c		 |$LN10@HandleInse|
  0288c	e1a0c00d	 mov         r12, sp
  02890	e92d0001	 stmdb       sp!, {r0}
  02894	e92d5000	 stmdb       sp!, {r12, lr}
  02898	e24dd00c	 sub         sp, sp, #0xC
  0289c		 |$M45421|

; 1198 :     DWORD dwClockRate = SD_DEFAULT_CARD_ID_CLOCK_RATE;

  0289c	e3a03b61	 mov         r3, #0x61, 22
  028a0	e3833e2a	 orr         r3, r3, #0x2A, 28
  028a4	e58d3000	 str         r3, [sp]

; 1199 : 
; 1200 :     DEBUGMSG(SDCARD_ZONE_INIT, (TEXT("HandleInsertion\r\n")));

  028a8	e59f3170	 ldr         r3, [pc, #0x170]
  028ac	e5933440	 ldr         r3, [r3, #0x440]
  028b0	e3130a02	 tst         r3, #2, 20
  028b4	0a000004	 beq         |$LN6@HandleInse|
  028b8	e59f015c	 ldr         r0, [pc, #0x15C]
  028bc	eb000000	 bl          NKDbgPrintfW
  028c0	e3a03001	 mov         r3, #1
  028c4	e58d3008	 str         r3, [sp, #8]
  028c8	ea000001	 b           |$LN7@HandleInse|
  028cc		 |$LN6@HandleInse|
  028cc	e3a03000	 mov         r3, #0
  028d0	e58d3008	 str         r3, [sp, #8]
  028d4		 |$LN7@HandleInse|

; 1201 : 
; 1202 :     m_fCardPresent = TRUE;

  028d4	e59d3014	 ldr         r3, [sp, #0x14]
  028d8	e28320f0	 add         r2, r3, #0xF0
  028dc	e3a03001	 mov         r3, #1
  028e0	e5823000	 str         r3, [r2]

; 1203 :     m_dwSDIOCard = 0;

  028e4	e59d3014	 ldr         r3, [sp, #0x14]
  028e8	e2832f5e	 add         r2, r3, #0x5E, 30
  028ec	e3a03000	 mov         r3, #0
  028f0	e5823000	 str         r3, [r2]

; 1204 : 
; 1205 :     // turn power to the card on
; 1206 :     TurnCardPowerOn();

  028f4	e59d3014	 ldr         r3, [sp, #0x14]
  028f8	e5933000	 ldr         r3, [r3]
  028fc	e2833014	 add         r3, r3, #0x14
  02900	e59d0014	 ldr         r0, [sp, #0x14]
  02904	e5933000	 ldr         r3, [r3]
  02908	e1a0e00f	 mov         lr, pc
  0290c	e12fff13	 bx          r3

; 1207 : 
; 1208 :     SoftwareReset(SOFT_RESET_ALL);

  02910	e3a01401	 mov         r1, #1, 8
  02914	e59d0014	 ldr         r0, [sp, #0x14]
  02918	eb000000	 bl          |?SoftwareReset@CSDIOControllerBase@@QAAXK@Z|

; 1209 : 
; 1210 :     // Check for debounce stable
; 1211 :     DWORD dwTimeout = 5000;

  0291c	e3a03c13	 mov         r3, #0x13, 24
  02920	e3833088	 orr         r3, r3, #0x88
  02924	e58d3004	 str         r3, [sp, #4]
  02928		 |$LN3@HandleInse|

; 1212 :     while(((INREG32(&m_pbRegisters->MMCHS_PSTATE) & 0x00020000)!= 0x00020000) && (dwTimeout>0))

  02928	e59d3014	 ldr         r3, [sp, #0x14]
  0292c	e2833f57	 add         r3, r3, #0x57, 30
  02930	e5933000	 ldr         r3, [r3]
  02934	e2833f49	 add         r3, r3, #0x49, 30
  02938	e5933000	 ldr         r3, [r3]
  0293c	e2033802	 and         r3, r3, #2, 16
  02940	e3530802	 cmp         r3, #2, 16
  02944	0a000006	 beq         |$LN2@HandleInse|
  02948	e59d3004	 ldr         r3, [sp, #4]
  0294c	e3530000	 cmp         r3, #0
  02950	9a000003	 bls         |$LN2@HandleInse|

; 1213 :     {
; 1214 :         dwTimeout--;

  02954	e59d3004	 ldr         r3, [sp, #4]
  02958	e2433001	 sub         r3, r3, #1
  0295c	e58d3004	 str         r3, [sp, #4]

; 1215 :     }

  02960	eafffff0	 b           |$LN3@HandleInse|
  02964		 |$LN2@HandleInse|

; 1216 : 
; 1217 :     OUTREG32(&m_pbRegisters->MMCHS_CON, 0x01 << 7); // CDP

  02964	e59d3014	 ldr         r3, [sp, #0x14]
  02968	e2833f57	 add         r3, r3, #0x57, 30
  0296c	e5933000	 ldr         r3, [r3]
  02970	e283202c	 add         r2, r3, #0x2C
  02974	e3a03080	 mov         r3, #0x80
  02978	e5823000	 str         r3, [r2]

; 1218 : 
; 1219 :     SetSDVSVoltage();

  0297c	e59d0014	 ldr         r0, [sp, #0x14]
  02980	eb000000	 bl          |?SetSDVSVoltage@CSDIOControllerBase@@QAAXXZ|

; 1220 : 
; 1221 :     SetClockRate(&dwClockRate);

  02984	e28d1000	 add         r1, sp, #0
  02988	e59d0014	 ldr         r0, [sp, #0x14]
  0298c	eb000000	 bl          |?SetClockRate@CSDIOControllerBase@@QAAXPAK@Z|

; 1222 :     if (m_LowVoltageSlot && m_dwSlot == MMCSLOT_1 && m_dwCPURev == CPU_FAMILY_35XX_REVISION_ES_2_1)

  02990	e59d3014	 ldr         r3, [sp, #0x14]
  02994	e2833f63	 add         r3, r3, #0x63, 30
  02998	e5933000	 ldr         r3, [r3]
  0299c	e3530000	 cmp         r3, #0
  029a0	0a00000b	 beq         |$LN1@HandleInse|
  029a4	e59d3014	 ldr         r3, [sp, #0x14]
  029a8	e2833e17	 add         r3, r3, #0x17, 28
  029ac	e5933000	 ldr         r3, [r3]
  029b0	e3530001	 cmp         r3, #1
  029b4	1a000006	 bne         |$LN1@HandleInse|
  029b8	e59d3014	 ldr         r3, [sp, #0x14]
  029bc	e2833f5f	 add         r3, r3, #0x5F, 30
  029c0	e5933000	 ldr         r3, [r3]
  029c4	e3530002	 cmp         r3, #2
  029c8	1a000001	 bne         |$LN1@HandleInse|

; 1223 :     {
; 1224 :         SendInitSequence();

  029cc	e59d0014	 ldr         r0, [sp, #0x14]
  029d0	eb000000	 bl          |?SendInitSequence@CSDIOControllerBase@@QAAXXZ|
  029d4		 |$LN1@HandleInse|

; 1225 :     }
; 1226 :     EnableSDHCInterrupts();

  029d4	e59d0014	 ldr         r0, [sp, #0x14]
  029d8	eb000000	 bl          |?EnableSDHCInterrupts@CSDIOControllerBase@@QAAXXZ|

; 1227 : 
; 1228 :     // indicate device arrival
; 1229 :     IndicateSlotStateChange(DeviceInserted);

  029dc	e3a02002	 mov         r2, #2
  029e0	e3a01000	 mov         r1, #0
  029e4	e59d3014	 ldr         r3, [sp, #0x14]
  029e8	e28330a8	 add         r3, r3, #0xA8
  029ec	e5930000	 ldr         r0, [r3]
  029f0	eb000000	 bl          SDHCDIndicateSlotStateChange

; 1230 : 
; 1231 :     TurnCardPowerOff();

  029f4	e59d3014	 ldr         r3, [sp, #0x14]
  029f8	e5933000	 ldr         r3, [r3]
  029fc	e2833018	 add         r3, r3, #0x18
  02a00	e59d0014	 ldr         r0, [sp, #0x14]
  02a04	e5933000	 ldr         r3, [r3]
  02a08	e1a0e00f	 mov         lr, pc
  02a0c	e12fff13	 bx          r3

; 1232 : }

  02a10	e28dd00c	 add         sp, sp, #0xC
  02a14	e89d6000	 ldmia       sp, {sp, lr}
  02a18	e12fff1e	 bx          lr
  02a1c		 |$LN11@HandleInse|
  02a1c		 |$LN12@HandleInse|
  02a1c	00000000	 DCD         |??_C@_1CE@KDINBGED@?$AAH?$AAa?$AAn?$AAd?$AAl?$AAe?$AAI?$AAn?$AAs?$AAe?$AAr?$AAt?$AAi?$AAo?$AAn?$AA?$AN?$AA?6?$AA?$AA@|
  02a20		 |$LN13@HandleInse|
  02a20	00000000	 DCD         |dpCurSettings|
  02a24		 |$M45422|

			 ENDP  ; |?HandleInsertion@CSDIOControllerBase@@QAAXXZ|, CSDIOControllerBase::HandleInsertion

	EXPORT	|??1CSDIOControllerBase@@QAA@XZ|	; CSDIOControllerBase::~CSDIOControllerBase
	IMPORT	|DeleteCriticalSection|

  000c0			 AREA	 |.pdata|, PDATA
|$T45432| DCD	|$LN5@CSDIOContr@2|
	DCD	0x40000f03
; Function compile flags: /Odtp

  02a24			 AREA	 |.text|, CODE, ARM

  02a24		 |??1CSDIOControllerBase@@QAA@XZ| PROC	; CSDIOControllerBase::~CSDIOControllerBase

; 1236 : {

  02a24		 |$LN5@CSDIOContr@2|
  02a24	e1a0c00d	 mov         r12, sp
  02a28	e92d0001	 stmdb       sp!, {r0}
  02a2c	e92d5000	 stmdb       sp!, {r12, lr}
  02a30		 |$M45429|
  02a30	e59f2024	 ldr         r2, [pc, #0x24]
  02a34	e59d3008	 ldr         r3, [sp, #8]
  02a38	e5832000	 str         r2, [r3]

; 1237 :     DeleteCriticalSection( &m_critSec );

  02a3c	e59d3008	 ldr         r3, [sp, #8]
  02a40	e28300b0	 add         r0, r3, #0xB0
  02a44	eb000000	 bl          DeleteCriticalSection

; 1238 :     DeleteCriticalSection( &m_powerCS );

  02a48	e59d3008	 ldr         r3, [sp, #8]
  02a4c	e28300c4	 add         r0, r3, #0xC4
  02a50	eb000000	 bl          DeleteCriticalSection

; 1239 : }

  02a54	e89d6000	 ldmia       sp, {sp, lr}
  02a58	e12fff1e	 bx          lr
  02a5c		 |$LN6@CSDIOContr@2|
  02a5c		 |$LN7@CSDIOContr@2|
  02a5c	00000000	 DCD         |??_7CSDIOControllerBase@@6B@|
  02a60		 |$M45430|

			 ENDP  ; |??1CSDIOControllerBase@@QAA@XZ|, CSDIOControllerBase::~CSDIOControllerBase

	EXPORT	|??1CReg@@QAA@XZ|			; CReg::~CReg
	EXPORT	|??_C@_1BK@NBDOGJEG@?$AAS?$AAD?$AAH?$AAC?$AA?5?$AA?9?$AAI?$AAn?$AAi?$AAt?$AA?$AN?$AA?6?$AA?$AA@| [ DATA ] ; `string'
	EXPORT	|?FreeHostContext@CSDIOControllerBase@@QAAXHH@Z| ; CSDIOControllerBase::FreeHostContext
	EXPORT	|?SDHCCardDetectIstThread@CSDIOControllerBase@@SAKPAX@Z| ; CSDIOControllerBase::SDHCCardDetectIstThread
	EXPORT	|??_C@_1GG@KKOKFLBP@?$AAS?$AAD?$AAH?$AAC?$AA?5?$AAF?$AAa?$AAi?$AAl?$AAe?$AAd?$AA?5?$AAt?$AAo?$AA?5?$AAr?$AAe?$AAg?$AAi?$AAs?$AAt?$AAe?$AAr?$AA?5?$AAh?$AAo?$AAs?$AAt?$AA?5?$AAc?$AAo?$AAn@| [ DATA ] ; `string'
	EXPORT	|??_C@_1GO@PIFNHAEP@?$AAI?$AAn?$AAi?$AAt?$AAi?$AAa?$AAl?$AAi?$AAz?$AAe?$AAH?$AAa?$AAr?$AAd?$AAw?$AAa?$AAr?$AAe?$AA?3?$AA?3?$AA?5?$AAE?$AAr?$AAr?$AAo?$AAr?$AA?5?$AAc?$AAo?$AAn?$AAf?$AAi@| [ DATA ] ; `string'
	EXPORT	|??_C@_1HK@NAJMOFNG@?$AAS?$AAD?$AAH?$AAC?$AAI?$AAn?$AAi?$AAt?$AAi?$AAa?$AAl?$AAi?$AAz?$AAe?$AA?3?$AA?3?$AA?5?$AAE?$AAr?$AAr?$AAo?$AAr?$AA?5?$AAa?$AAl?$AAl?$AAo?$AAc?$AAa?$AAt?$AAi?$AAn@| [ DATA ] ; `string'
	EXPORT	|??_C@_1GE@HPCKCMKC@?$AAS?$AAD?$AAH?$AAC?$AAI?$AAn?$AAi?$AAt?$AAi?$AAa?$AAl?$AAi?$AAz?$AAe?$AA?3?$AA?3?$AA?5?$AAE?$AAr?$AAr?$AAo?$AAr?$AA?5?$AAo?$AAp?$AAe?$AAn?$AAi?$AAn?$AAg?$AA?5?$AAt@| [ DATA ] ; `string'
	EXPORT	|??_C@_1FC@JCPNFEIG@?$AAS?$AAD?$AAH?$AAC?$AAI?$AAn?$AAi?$AAt?$AAi?$AAa?$AAl?$AAi?$AAz?$AAe?$AA?3?$AA?3?$AA?5?$AAE?$AAr?$AAr?$AAo?$AAr?$AA?5?$AAr?$AAe?$AAq?$AAu?$AAe?$AAs?$AAt?$AAi?$AAn@| [ DATA ] ; `string'
	EXPORT	|??_C@_1CI@OHCJFJPM@?$AAE?$AAR?$AAR?$AAO?$AAR?$AA?3?$AA?5?$AA?$CF?$AAs?$AA?5?$AAl?$AAi?$AAn?$AAe?$AA?5?$AA?$CF?$AAd?$AA?3?$AA?5?$AA?$AA@| [ DATA ] ; `string'
	EXPORT	|??_C@_1JA@BHKFNOIC@?$AAS?$AAD?$AAH?$AAC?$AA?5?$AAh?$AAo?$AAs?$AAt?$AA?5?$AAc?$AAo?$AAn?$AAt?$AAr?$AAo?$AAl?$AAl?$AAe?$AAr?$AA?5?$AAi?$AAn?$AAi?$AAt?$AAi?$AAa?$AAl?$AAi?$AAz?$AAe?$AA?3@| [ DATA ] ; `string'
	EXPORT	|??_C@_1JO@HLNGLJCK@?$AAE?$AAR?$AAR?$AAO?$AAR?$AA?3?$AA?5?$AAC?$AAS?$AAD?$AAI?$AAO?$AAC?$AAo?$AAn?$AAt?$AAr?$AAo?$AAl?$AAl?$AAe?$AAr?$AAB?$AAa?$AAs?$AAe?$AA?3?$AAI?$AAn?$AAi?$AAt?$AA?3@| [ DATA ] ; `string'
	EXPORT	|??_C@_1FG@EMFJIEOJ@?$AAS?$AAD?$AAH?$AAC?$AA?5?$AAF?$AAa?$AAi?$AAl?$AAe?$AAd?$AA?5?$AAt?$AAo?$AA?5?$AAa?$AAl?$AAl?$AAo?$AAc?$AAa?$AAt?$AAe?$AA?5?$AAc?$AAo?$AAn?$AAt?$AAe?$AAx?$AAt?$AA?3@| [ DATA ] ; `string'
	EXPORT	|??_C@_1FG@POCCLIOD@?$AAS?$AAD?$AAH?$AAC?$AA?3?$AA?5?$AAF?$AAa?$AAi?$AAl?$AAe?$AAd?$AA?5?$AAt?$AAo?$AA?5?$AAo?$AAb?$AAt?$AAa?$AAi?$AAn?$AA?5?$AAp?$AAa?$AAr?$AAe?$AAn?$AAt?$AA?5?$AAb?$AAu@| [ DATA ] ; `string'
	EXPORT	|??_C@_1DE@PNOEBOJA@?$AAS?$AAD?$AAH?$AAC?$AA?3?$AA?5?$AAC?$AAP?$AAU?$AA?5?$AAr?$AAe?$AAv?$AAi?$AAs?$AAi?$AAo?$AAn?$AA?5?$AA0?$AAx?$AA?$CF?$AAx?$AA?$AN?$AA?6?$AA?$AA@| [ DATA ] ; `string'
	EXPORT	|??_C@_1DG@MBLOOMKA@?$AAS?$AAD?$AAH?$AAC?$AA?5?$AAA?$AAc?$AAt?$AAi?$AAv?$AAe?$AA?5?$AAR?$AAe?$AAg?$AAP?$AAa?$AAt?$AAh?$AA?3?$AA?5?$AA?$CF?$AAs?$AA?5?$AA?$AN?$AA?6?$AA?$AA@| [ DATA ] ; `string'
	EXPORT	|??_C@_1BK@ICKPAAKC@?$AAS?$AAD?$AAH?$AAC?$AA?5?$AA?$CL?$AAI?$AAn?$AAi?$AAt?$AA?$AN?$AA?6?$AA?$AA@| [ DATA ] ; `string'
	EXPORT	|??0CReg@@QAA@XZ|			; CReg::CReg
	EXPORT	|?Init@CSDIOControllerBase@@QAAHPBG@Z|	; CSDIOControllerBase::Init
	IMPORT	|CreateThread|
	IMPORT	|SDHCDRegisterHostController|
	IMPORT	|SocSdhcDevconf|
	IMPORT	|MmMapIoSpace|
	IMPORT	|GetAddressByDevice|
	IMPORT	|GPIOOpen|
	IMPORT	|BSPGetSDHCCardDetect|
	IMPORT	|RequestDevicePads|
	IMPORT	|SOCGetSDHCDeviceBySlot|
	IMPORT	|GetDeviceRegistryParams|
	IMPORT	|SDHCDAllocateContext|
	IMPORT	|CreateBusAccessHandle|
	IMPORT	|KernelIoControl|
	IMPORT	|CalibrateStallCounter|

  000c8			 AREA	 |.pdata|, PDATA
|$T45479| DCD	|$LN61@Init|
	DCD	0x4001fc04

  00000			 AREA	 |.rdata|, DATA, READONLY
|??_C@_1BK@NBDOGJEG@?$AAS?$AAD?$AAH?$AAC?$AA?5?$AA?9?$AAI?$AAn?$AAi?$AAt?$AA?$AN?$AA?6?$AA?$AA@| DCB "S"
	DCB	0x0, "D", 0x0, "H", 0x0, "C", 0x0, " ", 0x0, "-", 0x0, "I"
	DCB	0x0, "n", 0x0, "i", 0x0, "t", 0x0, 0xd, 0x0, 0xa, 0x0, 0x0
	DCB	0x0					; `string'

  00000			 AREA	 |.rdata|, DATA, READONLY
|??_C@_1GG@KKOKFLBP@?$AAS?$AAD?$AAH?$AAC?$AA?5?$AAF?$AAa?$AAi?$AAl?$AAe?$AAd?$AA?5?$AAt?$AAo?$AA?5?$AAr?$AAe?$AAg?$AAi?$AAs?$AAt?$AAe?$AAr?$AA?5?$AAh?$AAo?$AAs?$AAt?$AA?5?$AAc?$AAo?$AAn@| DCB "S"
	DCB	0x0, "D", 0x0, "H", 0x0, "C", 0x0, " ", 0x0, "F", 0x0, "a"
	DCB	0x0, "i", 0x0, "l", 0x0, "e", 0x0, "d", 0x0, " ", 0x0, "t"
	DCB	0x0, "o", 0x0, " ", 0x0, "r", 0x0, "e", 0x0, "g", 0x0, "i"
	DCB	0x0, "s", 0x0, "t", 0x0, "e", 0x0, "r", 0x0, " ", 0x0, "h"
	DCB	0x0, "o", 0x0, "s", 0x0, "t", 0x0, " ", 0x0, "c", 0x0, "o"
	DCB	0x0, "n", 0x0, "t", 0x0, "r", 0x0, "o", 0x0, "l", 0x0, "l"
	DCB	0x0, "e", 0x0, "r", 0x0, ":", 0x0, " ", 0x0, "%", 0x0, "0"
	DCB	0x0, "x", 0x0, "0", 0x0, "8", 0x0, "X", 0x0, " ", 0x0, 0xd
	DCB	0x0, 0xa, 0x0, 0x0, 0x0			; `string'

  00000			 AREA	 |.rdata|, DATA, READONLY
|??_C@_1GO@PIFNHAEP@?$AAI?$AAn?$AAi?$AAt?$AAi?$AAa?$AAl?$AAi?$AAz?$AAe?$AAH?$AAa?$AAr?$AAd?$AAw?$AAa?$AAr?$AAe?$AA?3?$AA?3?$AA?5?$AAE?$AAr?$AAr?$AAo?$AAr?$AA?5?$AAc?$AAo?$AAn?$AAf?$AAi@| DCB "I"
	DCB	0x0, "n", 0x0, "i", 0x0, "t", 0x0, "i", 0x0, "a", 0x0, "l"
	DCB	0x0, "i", 0x0, "z", 0x0, "e", 0x0, "H", 0x0, "a", 0x0, "r"
	DCB	0x0, "d", 0x0, "w", 0x0, "a", 0x0, "r", 0x0, "e", 0x0, ":"
	DCB	0x0, ":", 0x0, " ", 0x0, "E", 0x0, "r", 0x0, "r", 0x0, "o"
	DCB	0x0, "r", 0x0, " ", 0x0, "c", 0x0, "o", 0x0, "n", 0x0, "f"
	DCB	0x0, "i", 0x0, "g", 0x0, "u", 0x0, "r", 0x0, "i", 0x0, "n"
	DCB	0x0, "g", 0x0, " ", 0x0, "S", 0x0, "D", 0x0, "H", 0x0, "C"
	DCB	0x0, " ", 0x0, "h", 0x0, "a", 0x0, "r", 0x0, "d", 0x0, "w"
	DCB	0x0, "a", 0x0, "r", 0x0, "e", 0x0, 0xd, 0x0, 0xa, 0x0, 0x0
	DCB	0x0					; `string'

  00000			 AREA	 |.rdata|, DATA, READONLY
|??_C@_1HK@NAJMOFNG@?$AAS?$AAD?$AAH?$AAC?$AAI?$AAn?$AAi?$AAt?$AAi?$AAa?$AAl?$AAi?$AAz?$AAe?$AA?3?$AA?3?$AA?5?$AAE?$AAr?$AAr?$AAo?$AAr?$AA?5?$AAa?$AAl?$AAl?$AAo?$AAc?$AAa?$AAt?$AAi?$AAn@| DCB "S"
	DCB	0x0, "D", 0x0, "H", 0x0, "C", 0x0, "I", 0x0, "n", 0x0, "i"
	DCB	0x0, "t", 0x0, "i", 0x0, "a", 0x0, "l", 0x0, "i", 0x0, "z"
	DCB	0x0, "e", 0x0, ":", 0x0, ":", 0x0, " ", 0x0, "E", 0x0, "r"
	DCB	0x0, "r", 0x0, "o", 0x0, "r", 0x0, " ", 0x0, "a", 0x0, "l"
	DCB	0x0, "l", 0x0, "o", 0x0, "c", 0x0, "a", 0x0, "t", 0x0, "i"
	DCB	0x0, "n", 0x0, "g", 0x0, " ", 0x0, "S", 0x0, "D", 0x0, "H"
	DCB	0x0, "C", 0x0, " ", 0x0, "c", 0x0, "o", 0x0, "n", 0x0, "t"
	DCB	0x0, "r", 0x0, "o", 0x0, "l", 0x0, "l", 0x0, "e", 0x0, "r"
	DCB	0x0, " ", 0x0, "r", 0x0, "e", 0x0, "g", 0x0, "i", 0x0, "s"
	DCB	0x0, "t", 0x0, "e", 0x0, "r", 0x0, 0xd, 0x0, 0xa, 0x0, 0x0
	DCB	0x0					; `string'

  00000			 AREA	 |.rdata|, DATA, READONLY
|??_C@_1GE@HPCKCMKC@?$AAS?$AAD?$AAH?$AAC?$AAI?$AAn?$AAi?$AAt?$AAi?$AAa?$AAl?$AAi?$AAz?$AAe?$AA?3?$AA?3?$AA?5?$AAE?$AAr?$AAr?$AAo?$AAr?$AA?5?$AAo?$AAp?$AAe?$AAn?$AAi?$AAn?$AAg?$AA?5?$AAt@| DCB "S"
	DCB	0x0, "D", 0x0, "H", 0x0, "C", 0x0, "I", 0x0, "n", 0x0, "i"
	DCB	0x0, "t", 0x0, "i", 0x0, "a", 0x0, "l", 0x0, "i", 0x0, "z"
	DCB	0x0, "e", 0x0, ":", 0x0, ":", 0x0, " ", 0x0, "E", 0x0, "r"
	DCB	0x0, "r", 0x0, "o", 0x0, "r", 0x0, " ", 0x0, "o", 0x0, "p"
	DCB	0x0, "e", 0x0, "n", 0x0, "i", 0x0, "n", 0x0, "g", 0x0, " "
	DCB	0x0, "t", 0x0, "h", 0x0, "e", 0x0, " ", 0x0, "G", 0x0, "P"
	DCB	0x0, "I", 0x0, "O", 0x0, " ", 0x0, "d", 0x0, "r", 0x0, "i"
	DCB	0x0, "v", 0x0, "e", 0x0, "r", 0x0, "!", 0x0, 0xd, 0x0, 0xa
	DCB	0x0, 0x0, 0x0				; `string'

  00000			 AREA	 |.rdata|, DATA, READONLY
|??_C@_1FC@JCPNFEIG@?$AAS?$AAD?$AAH?$AAC?$AAI?$AAn?$AAi?$AAt?$AAi?$AAa?$AAl?$AAi?$AAz?$AAe?$AA?3?$AA?3?$AA?5?$AAE?$AAr?$AAr?$AAo?$AAr?$AA?5?$AAr?$AAe?$AAq?$AAu?$AAe?$AAs?$AAt?$AAi?$AAn@| DCB "S"
	DCB	0x0, "D", 0x0, "H", 0x0, "C", 0x0, "I", 0x0, "n", 0x0, "i"
	DCB	0x0, "t", 0x0, "i", 0x0, "a", 0x0, "l", 0x0, "i", 0x0, "z"
	DCB	0x0, "e", 0x0, ":", 0x0, ":", 0x0, " ", 0x0, "E", 0x0, "r"
	DCB	0x0, "r", 0x0, "o", 0x0, "r", 0x0, " ", 0x0, "r", 0x0, "e"
	DCB	0x0, "q", 0x0, "u", 0x0, "e", 0x0, "s", 0x0, "t", 0x0, "i"
	DCB	0x0, "n", 0x0, "g", 0x0, " ", 0x0, "p", 0x0, "a", 0x0, "d"
	DCB	0x0, "s", 0x0, 0xd, 0x0, 0xa, 0x0, 0x0, 0x0 ; `string'

  00000			 AREA	 |.rdata|, DATA, READONLY
|??_C@_1CI@OHCJFJPM@?$AAE?$AAR?$AAR?$AAO?$AAR?$AA?3?$AA?5?$AA?$CF?$AAs?$AA?5?$AAl?$AAi?$AAn?$AAe?$AA?5?$AA?$CF?$AAd?$AA?3?$AA?5?$AA?$AA@| DCB "E"
	DCB	0x0, "R", 0x0, "R", 0x0, "O", 0x0, "R", 0x0, ":", 0x0, " "
	DCB	0x0, "%", 0x0, "s", 0x0, " ", 0x0, "l", 0x0, "i", 0x0, "n"
	DCB	0x0, "e", 0x0, " ", 0x0, "%", 0x0, "d", 0x0, ":", 0x0, " "
	DCB	0x0, 0x0, 0x0				; `string'

  00000			 AREA	 |.rdata|, DATA, READONLY
|??_C@_1JA@BHKFNOIC@?$AAS?$AAD?$AAH?$AAC?$AA?5?$AAh?$AAo?$AAs?$AAt?$AA?5?$AAc?$AAo?$AAn?$AAt?$AAr?$AAo?$AAl?$AAl?$AAe?$AAr?$AA?5?$AAi?$AAn?$AAi?$AAt?$AAi?$AAa?$AAl?$AAi?$AAz?$AAe?$AA?3@| DCB "S"
	DCB	0x0, "D", 0x0, "H", 0x0, "C", 0x0, " ", 0x0, "h", 0x0, "o"
	DCB	0x0, "s", 0x0, "t", 0x0, " ", 0x0, "c", 0x0, "o", 0x0, "n"
	DCB	0x0, "t", 0x0, "r", 0x0, "o", 0x0, "l", 0x0, "l", 0x0, "e"
	DCB	0x0, "r", 0x0, " ", 0x0, "i", 0x0, "n", 0x0, "i", 0x0, "t"
	DCB	0x0, "i", 0x0, "a", 0x0, "l", 0x0, "i", 0x0, "z", 0x0, "e"
	DCB	0x0, ":", 0x0, " ", 0x0, "m", 0x0, "_", 0x0, "f", 0x0, "a"
	DCB	0x0, "s", 0x0, "t", 0x0, "P", 0x0, "a", 0x0, "t", 0x0, "h"
	DCB	0x0, "S", 0x0, "D", 0x0, "I", 0x0, "O", 0x0, ":", 0x0, "%"
	DCB	0x0, "d", 0x0, " ", 0x0, "m", 0x0, "_", 0x0, "f", 0x0, "a"
	DCB	0x0, "s", 0x0, "t", 0x0, "P", 0x0, "a", 0x0, "t", 0x0, "h"
	DCB	0x0, "S", 0x0, "D", 0x0, "M", 0x0, "E", 0x0, "M", 0x0, ":"
	DCB	0x0, "%", 0x0, "d", 0x0, 0xd, 0x0, 0xa, 0x0, 0x0, 0x0 ; `string'

  00000			 AREA	 |.rdata|, DATA, READONLY
|??_C@_1JO@HLNGLJCK@?$AAE?$AAR?$AAR?$AAO?$AAR?$AA?3?$AA?5?$AAC?$AAS?$AAD?$AAI?$AAO?$AAC?$AAo?$AAn?$AAt?$AAr?$AAo?$AAl?$AAl?$AAe?$AAr?$AAB?$AAa?$AAs?$AAe?$AA?3?$AAI?$AAn?$AAi?$AAt?$AA?3@| DCB "E"
	DCB	0x0, "R", 0x0, "R", 0x0, "O", 0x0, "R", 0x0, ":", 0x0, " "
	DCB	0x0, "C", 0x0, "S", 0x0, "D", 0x0, "I", 0x0, "O", 0x0, "C"
	DCB	0x0, "o", 0x0, "n", 0x0, "t", 0x0, "r", 0x0, "o", 0x0, "l"
	DCB	0x0, "l", 0x0, "e", 0x0, "r", 0x0, "B", 0x0, "a", 0x0, "s"
	DCB	0x0, "e", 0x0, ":", 0x0, "I", 0x0, "n", 0x0, "i", 0x0, "t"
	DCB	0x0, ":", 0x0, " ", 0x0, "F", 0x0, "a", 0x0, "i", 0x0, "l"
	DCB	0x0, "e", 0x0, "d", 0x0, " ", 0x0, "r", 0x0, "e", 0x0, "a"
	DCB	0x0, "d", 0x0, " ", 0x0, "S", 0x0, "D", 0x0, "H", 0x0, "C"
	DCB	0x0, " ", 0x0, "d", 0x0, "r", 0x0, "i", 0x0, "v", 0x0, "e"
	DCB	0x0, "r", 0x0, " ", 0x0, "r", 0x0, "e", 0x0, "g", 0x0, "i"
	DCB	0x0, "s", 0x0, "t", 0x0, "r", 0x0, "y", 0x0, " ", 0x0, "p"
	DCB	0x0, "a", 0x0, "r", 0x0, "a", 0x0, "m", 0x0, "e", 0x0, "t"
	DCB	0x0, "e", 0x0, "r", 0x0, "s", 0x0, 0xd, 0x0, 0xa, 0x0, 0x0
	DCB	0x0					; `string'

  00000			 AREA	 |.rdata|, DATA, READONLY
|??_C@_1FG@EMFJIEOJ@?$AAS?$AAD?$AAH?$AAC?$AA?5?$AAF?$AAa?$AAi?$AAl?$AAe?$AAd?$AA?5?$AAt?$AAo?$AA?5?$AAa?$AAl?$AAl?$AAo?$AAc?$AAa?$AAt?$AAe?$AA?5?$AAc?$AAo?$AAn?$AAt?$AAe?$AAx?$AAt?$AA?3@| DCB "S"
	DCB	0x0, "D", 0x0, "H", 0x0, "C", 0x0, " ", 0x0, "F", 0x0, "a"
	DCB	0x0, "i", 0x0, "l", 0x0, "e", 0x0, "d", 0x0, " ", 0x0, "t"
	DCB	0x0, "o", 0x0, " ", 0x0, "a", 0x0, "l", 0x0, "l", 0x0, "o"
	DCB	0x0, "c", 0x0, "a", 0x0, "t", 0x0, "e", 0x0, " ", 0x0, "c"
	DCB	0x0, "o", 0x0, "n", 0x0, "t", 0x0, "e", 0x0, "x", 0x0, "t"
	DCB	0x0, ":", 0x0, " ", 0x0, "0", 0x0, "x", 0x0, "%", 0x0, "0"
	DCB	0x0, "8", 0x0, "X", 0x0, " ", 0x0, 0xd, 0x0, 0xa, 0x0, 0x0
	DCB	0x0					; `string'

  00000			 AREA	 |.rdata|, DATA, READONLY
|??_C@_1FG@POCCLIOD@?$AAS?$AAD?$AAH?$AAC?$AA?3?$AA?5?$AAF?$AAa?$AAi?$AAl?$AAe?$AAd?$AA?5?$AAt?$AAo?$AA?5?$AAo?$AAb?$AAt?$AAa?$AAi?$AAn?$AA?5?$AAp?$AAa?$AAr?$AAe?$AAn?$AAt?$AA?5?$AAb?$AAu@| DCB "S"
	DCB	0x0, "D", 0x0, "H", 0x0, "C", 0x0, ":", 0x0, " ", 0x0, "F"
	DCB	0x0, "a", 0x0, "i", 0x0, "l", 0x0, "e", 0x0, "d", 0x0, " "
	DCB	0x0, "t", 0x0, "o", 0x0, " ", 0x0, "o", 0x0, "b", 0x0, "t"
	DCB	0x0, "a", 0x0, "i", 0x0, "n", 0x0, " ", 0x0, "p", 0x0, "a"
	DCB	0x0, "r", 0x0, "e", 0x0, "n", 0x0, "t", 0x0, " ", 0x0, "b"
	DCB	0x0, "u", 0x0, "s", 0x0, " ", 0x0, "h", 0x0, "a", 0x0, "n"
	DCB	0x0, "d", 0x0, "l", 0x0, "e", 0x0, 0xd, 0x0, 0xa, 0x0, 0x0
	DCB	0x0					; `string'

  00000			 AREA	 |.rdata|, DATA, READONLY
|??_C@_1DE@PNOEBOJA@?$AAS?$AAD?$AAH?$AAC?$AA?3?$AA?5?$AAC?$AAP?$AAU?$AA?5?$AAr?$AAe?$AAv?$AAi?$AAs?$AAi?$AAo?$AAn?$AA?5?$AA0?$AAx?$AA?$CF?$AAx?$AA?$AN?$AA?6?$AA?$AA@| DCB "S"
	DCB	0x0, "D", 0x0, "H", 0x0, "C", 0x0, ":", 0x0, " ", 0x0, "C"
	DCB	0x0, "P", 0x0, "U", 0x0, " ", 0x0, "r", 0x0, "e", 0x0, "v"
	DCB	0x0, "i", 0x0, "s", 0x0, "i", 0x0, "o", 0x0, "n", 0x0, " "
	DCB	0x0, "0", 0x0, "x", 0x0, "%", 0x0, "x", 0x0, 0xd, 0x0, 0xa
	DCB	0x0, 0x0, 0x0				; `string'

  00000			 AREA	 |.rdata|, DATA, READONLY
|??_C@_1DG@MBLOOMKA@?$AAS?$AAD?$AAH?$AAC?$AA?5?$AAA?$AAc?$AAt?$AAi?$AAv?$AAe?$AA?5?$AAR?$AAe?$AAg?$AAP?$AAa?$AAt?$AAh?$AA?3?$AA?5?$AA?$CF?$AAs?$AA?5?$AA?$AN?$AA?6?$AA?$AA@| DCB "S"
	DCB	0x0, "D", 0x0, "H", 0x0, "C", 0x0, " ", 0x0, "A", 0x0, "c"
	DCB	0x0, "t", 0x0, "i", 0x0, "v", 0x0, "e", 0x0, " ", 0x0, "R"
	DCB	0x0, "e", 0x0, "g", 0x0, "P", 0x0, "a", 0x0, "t", 0x0, "h"
	DCB	0x0, ":", 0x0, " ", 0x0, "%", 0x0, "s", 0x0, " ", 0x0, 0xd
	DCB	0x0, 0xa, 0x0, 0x0, 0x0			; `string'

  00000			 AREA	 |.rdata|, DATA, READONLY
|??_C@_1BK@ICKPAAKC@?$AAS?$AAD?$AAH?$AAC?$AA?5?$AA?$CL?$AAI?$AAn?$AAi?$AAt?$AA?$AN?$AA?6?$AA?$AA@| DCB "S"
	DCB	0x0, "D", 0x0, "H", 0x0, "C", 0x0, " ", 0x0, "+", 0x0, "I"
	DCB	0x0, "n", 0x0, "i", 0x0, "t", 0x0, 0xd, 0x0, 0xa, 0x0, 0x0
	DCB	0x0					; `string'
; Function compile flags: /Odtp

  02a60			 AREA	 |.text|, CODE, ARM

  02a60		 |?Init@CSDIOControllerBase@@QAAHPBG@Z| PROC ; CSDIOControllerBase::Init

; 1243 : {

  02a60		 |$LN61@Init|
  02a60	e1a0c00d	 mov         r12, sp
  02a64	e92d0003	 stmdb       sp!, {r0, r1}
  02a68	e92d5000	 stmdb       sp!, {r12, lr}
  02a6c	e24dd0bc	 sub         sp, sp, #0xBC
  02a70		 |$M45476|

; 1244 :     SD_API_STATUS      status;              // SD status
; 1245 :     CReg               regDevice;           // encapsulated device key

  02a70	e28d0014	 add         r0, sp, #0x14
  02a74	eb000000	 bl          |??0CReg@@QAA@XZ|
  02a78	e58d0040	 str         r0, [sp, #0x40]

; 1246 :     DWORD              dwRet = 0;           // return value

  02a7c	e3a03000	 mov         r3, #0
  02a80	e58d3008	 str         r3, [sp, #8]

; 1247 : 
; 1248 :     PHYSICAL_ADDRESS PortAddress;
; 1249 : 
; 1250 :     DEBUGMSG(SDCARD_ZONE_INIT, (L"SDHC +Init\r\n"));

  02a84	e59f377c	 ldr         r3, [pc, #0x77C]
  02a88	e5933440	 ldr         r3, [r3, #0x440]
  02a8c	e3130a02	 tst         r3, #2, 20
  02a90	0a000004	 beq         |$LN25@Init|
  02a94	e59f07b0	 ldr         r0, [pc, #0x7B0]
  02a98	eb000000	 bl          NKDbgPrintfW
  02a9c	e3a03001	 mov         r3, #1
  02aa0	e58d3044	 str         r3, [sp, #0x44]
  02aa4	ea000001	 b           |$LN26@Init|
  02aa8		 |$LN25@Init|
  02aa8	e3a03000	 mov         r3, #0
  02aac	e58d3044	 str         r3, [sp, #0x44]
  02ab0		 |$LN26@Init|

; 1251 :     DEBUGMSG(SDCARD_ZONE_INIT, (L"SDHC Active RegPath: %s \r\n",pszActiveKey));

  02ab0	e59f3750	 ldr         r3, [pc, #0x750]
  02ab4	e5933440	 ldr         r3, [r3, #0x440]
  02ab8	e3130a02	 tst         r3, #2, 20
  02abc	0a000005	 beq         |$LN27@Init|
  02ac0	e59d10c8	 ldr         r1, [sp, #0xC8]
  02ac4	e59f077c	 ldr         r0, [pc, #0x77C]
  02ac8	eb000000	 bl          NKDbgPrintfW
  02acc	e3a03001	 mov         r3, #1
  02ad0	e58d3048	 str         r3, [sp, #0x48]
  02ad4	ea000001	 b           |$LN28@Init|
  02ad8		 |$LN27@Init|
  02ad8	e3a03000	 mov         r3, #0
  02adc	e58d3048	 str         r3, [sp, #0x48]
  02ae0		 |$LN28@Init|

; 1252 : 
; 1253 :     CalibrateStallCounter();

  02ae0	eb000000	 bl          CalibrateStallCounter

; 1254 : 
; 1255 :     m_dwCPURev = (DWORD)CPU_REVISION_UNKNOWN;

  02ae4	e59d30c4	 ldr         r3, [sp, #0xC4]
  02ae8	e2832f5f	 add         r2, r3, #0x5F, 30
  02aec	e3e03000	 mvn         r3, #0
  02af0	e5823000	 str         r3, [r2]

; 1256 :     KernelIoControl(IOCTL_HAL_GET_CPUREVISION, NULL, 0, &m_dwCPURev, sizeof(m_dwCPURev), NULL);

  02af4	e3a03000	 mov         r3, #0
  02af8	e58d3004	 str         r3, [sp, #4]
  02afc	e3a03004	 mov         r3, #4
  02b00	e58d3000	 str         r3, [sp]
  02b04	e59d30c4	 ldr         r3, [sp, #0xC4]
  02b08	e2833f5f	 add         r3, r3, #0x5F, 30
  02b0c	e3a02000	 mov         r2, #0
  02b10	e3a01000	 mov         r1, #0
  02b14	e59f0728	 ldr         r0, [pc, #0x728]
  02b18	eb000000	 bl          KernelIoControl

; 1257 :     RETAILMSG(1, (L"SDHC: CPU revision 0x%x\r\n", m_dwCPURev));

  02b1c	e59d30c4	 ldr         r3, [sp, #0xC4]
  02b20	e2833f5f	 add         r3, r3, #0x5F, 30
  02b24	e5931000	 ldr         r1, [r3]
  02b28	e59f0710	 ldr         r0, [pc, #0x710]
  02b2c	eb000000	 bl          NKDbgPrintfW
  02b30	e3a03001	 mov         r3, #1
  02b34	e58d304c	 str         r3, [sp, #0x4C]
  02b38	ea000001	 b           |$LN30@Init|
  02b3c	e3a03000	 mov         r3, #0
  02b40	e58d304c	 str         r3, [sp, #0x4C]
  02b44		 |$LN30@Init|

; 1258 : 
; 1259 :     // open the parent bus driver handle
; 1260 :     m_hParentBus = CreateBusAccessHandle(pszActiveKey);

