; Listing generated by Microsoft (R) Optimizing Compiler Version 14.01.60511.01 

	TTL	C:\WINCE600\PLATFORM\COMMON\SRC\SOC\PXA27X_MS_V1\OAL\PROFILER\profiler.c
	CODE32

  00000			 AREA	 |.drectve|, DRECTVE
	DCB	"-defaultlib:LIBCMT "
	DCB	"-defaultlib:OLDNAMES "


  00000			 AREA	 |.rdata|, DATA, READONLY
|EdbgVendorIds| DCW 0x0
	DCW	0x0
	DCD	0x4033
	DCB	0x1
	DCB	"AD", 0x0
	DCW	0x1050
	DCW	0x940
	DCD	0x4005
	DCB	0x1
	DCB	"LS", 0x0
	DCW	0x1050
	DCW	0x940
	DCD	0x2078
	DCB	0x1
	DCB	"LS", 0x0
	DCW	0x10ec
	DCW	0x8029
	DCD	0xc0f0
	DCB	0x1
	DCB	"KS", 0x0
	DCW	0x10ec
	DCW	0x8129
	DCD	0x0
	DCB	0x4
	DCB	"RT", 0x0
	DCW	0x10ec
	DCW	0x8139
	DCD	0x900b
	DCB	0x4
	DCB	"RT", 0x0
	DCW	0x10ec
	DCW	0x8139
	DCD	0xd0c9
	DCB	0x4
	DCB	"RT", 0x0
	DCW	0x10ec
	DCW	0x8139
	DCD	0xe04c
	DCB	0x4
	DCB	"RT", 0x0
	DCW	0x1186
	DCW	0x1300
	DCD	0x50ba
	DCB	0x4
	DCB	"DL", 0x0
	DCW	0x100b
	DCW	0x20
	DCD	0xa0cc
	DCB	0x5
	DCB	"NG", 0x0
	DCW	0x10b7
	DCW	0x9050
	DCD	0x6008
	DCB	0x6
	DCB	"3C", 0x0
	DCW	0x10b7
	DCW	0x9200
	DCD	0x476
	DCB	0x6
	DCB	"3C", 0x0
	EXPORT	|??_C@_1DC@ONFHCFK@?$AA?9?$AAO?$AAE?$AAM?$AAP?$AAr?$AAo?$AAf?$AAi?$AAl?$AAe?$AAT?$AAi?$AAm?$AAe?$AAr?$AAE?$AAn?$AAa?$AAb?$AAl?$AAe?$AA?$AN?$AA?6?$AA?$AA@| [ DATA ] ; `string'
	EXPORT	|OALProfileIntrHandler|
	EXPORT	|??_C@_1DK@OJEFEGCL@?$AA?$CL?$AAO?$AAE?$AAM?$AAP?$AAr?$AAo?$AAf?$AAi?$AAl?$AAe?$AAT?$AAi?$AAm?$AAe?$AAr?$AAE?$AAn?$AAa?$AAb?$AAl?$AAe?$AA?$CI?$AA?$CF?$AAd?$AA?$CJ?$AA?$AN?$AA?6?$AA?$AA@| [ DATA ] ; `string'
	EXPORT	|OEMProfileTimerEnable|
	IMPORT	|OALIntrDoneIrqs|
	IMPORT	|XllpOstConfigureMatchReg|
	IMPORT	|OALPAtoVA|
	IMPORT	|g_pProfilerISR|
	IMPORT	|INTERRUPTS_ENABLE|
	IMPORT	|g_oalTimer|
	IMPORT	|NKDbgPrintfW|
	IMPORT	|__rt_udiv|

  00000			 AREA	 |.bss|, NOINIT
|g_XllpOSTHandle| % 0x8
|g_profiler| %	0x8

  00000			 AREA	 |.pdata|, PDATA
|$T44780| DCD	|$LN6@OEMProfile|
	DCD	0x40004704
; File c:\wince600\platform\common\src\soc\pxa27x_ms_v1\oal\profiler\profiler.c

  00000			 AREA	 |.rdata|, DATA, READONLY
|??_C@_1DC@ONFHCFK@?$AA?9?$AAO?$AAE?$AAM?$AAP?$AAr?$AAo?$AAf?$AAi?$AAl?$AAe?$AAT?$AAi?$AAm?$AAe?$AAr?$AAE?$AAn?$AAa?$AAb?$AAl?$AAe?$AA?$AN?$AA?6?$AA?$AA@| DCB "-"
	DCB	0x0, "O", 0x0, "E", 0x0, "M", 0x0, "P", 0x0, "r", 0x0, "o"
	DCB	0x0, "f", 0x0, "i", 0x0, "l", 0x0, "e", 0x0, "T", 0x0, "i"
	DCB	0x0, "m", 0x0, "e", 0x0, "r", 0x0, "E", 0x0, "n", 0x0, "a"
	DCB	0x0, "b", 0x0, "l", 0x0, "e", 0x0, 0xd, 0x0, 0xa, 0x0, 0x0
	DCB	0x0					; `string'

  00000			 AREA	 |.rdata|, DATA, READONLY
|??_C@_1DK@OJEFEGCL@?$AA?$CL?$AAO?$AAE?$AAM?$AAP?$AAr?$AAo?$AAf?$AAi?$AAl?$AAe?$AAT?$AAi?$AAm?$AAe?$AAr?$AAE?$AAn?$AAa?$AAb?$AAl?$AAe?$AA?$CI?$AA?$CF?$AAd?$AA?$CJ?$AA?$AN?$AA?6?$AA?$AA@| DCB "+"
	DCB	0x0, "O", 0x0, "E", 0x0, "M", 0x0, "P", 0x0, "r", 0x0, "o"
	DCB	0x0, "f", 0x0, "i", 0x0, "l", 0x0, "e", 0x0, "T", 0x0, "i"
	DCB	0x0, "m", 0x0, "e", 0x0, "r", 0x0, "E", 0x0, "n", 0x0, "a"
	DCB	0x0, "b", 0x0, "l", 0x0, "e", 0x0, "(", 0x0, "%", 0x0, "d"
	DCB	0x0, ")", 0x0, 0xd, 0x0, 0xa, 0x0, 0x0, 0x0 ; `string'
; Function compile flags: /Odtp

  00000			 AREA	 |.text|, CODE, ARM

  00000		 |OEMProfileTimerEnable| PROC

; 54   : {

  00000		 |$LN6@OEMProfile|
  00000	e1a0c00d	 mov         r12, sp
  00004	e92d0001	 stmdb       sp!, {r0}
  00008	e92d5000	 stmdb       sp!, {r12, lr}
  0000c	e24dd014	 sub         sp, sp, #0x14
  00010		 |$M44777|

; 55   :     BOOL enabled;
; 56   :     UINT32 irq;
; 57   :     
; 58   :     OALMSG(TRUE, (L"+OEMProfileTimerEnable(%d)\r\n", interval));

  00010	e59d101c	 ldr         r1, [sp, #0x1C]
  00014	e59f00fc	 ldr         r0, [pc, #0xFC]
  00018	eb000000	 bl          NKDbgPrintfW

; 59   :     
; 60   :     // We can't enable timer second time
; 61   :     if (g_profiler.enabled) return;

  0001c	e59f30e0	 ldr         r3, [pc, #0xE0]
  00020	e5933000	 ldr         r3, [r3]
  00024	e3530000	 cmp         r3, #0
  00028	0a000000	 beq         |$LN1@OEMProfile|
  0002c	ea000030	 b           |$LN2@OEMProfile|
  00030		 |$LN1@OEMProfile|

; 62   :    
; 63   :     // How many hi-res ticks per profiler hit
; 64   :     g_profiler.countsPerHit = (g_oalTimer.countsPerMSec * interval)/1000;

  00030	e59f30dc	 ldr         r3, [pc, #0xDC]
  00034	e5932000	 ldr         r2, [r3]
  00038	e59d301c	 ldr         r3, [sp, #0x1C]
  0003c	e0010392	 mul         r1, r2, r3
  00040	e3a00ffa	 mov         r0, #0xFA, 30
  00044	eb000000	 bl          __rt_udiv
  00048	e59f30b4	 ldr         r3, [pc, #0xB4]
  0004c	e5830004	 str         r0, [r3, #4]

; 65   : 
; 66   :     // Following code should not be interrupted
; 67   :     enabled = INTERRUPTS_ENABLE(FALSE);

  00050	e3a00000	 mov         r0, #0
  00054	eb000000	 bl          INTERRUPTS_ENABLE
  00058	e58d0008	 str         r0, [sp, #8]
  0005c	e59d3008	 ldr         r3, [sp, #8]
  00060	e58d3004	 str         r3, [sp, #4]

; 68   : 
; 69   :     // Configure profiling ISR callback function.
; 70   :     g_pProfilerISR = OALProfileIntrHandler;

  00064	e59f20a4	 ldr         r2, [pc, #0xA4]
  00068	e59f309c	 ldr         r3, [pc, #0x9C]
  0006c	e5832000	 str         r2, [r3]

; 71   : 
; 72   :     // Obtain pointers to OST and INTC registers.
; 73   :     //
; 74   :     g_XllpOSTHandle.pOSTRegs  = OALPAtoVA(BULVERDE_BASE_REG_PA_OST, FALSE);

  00070	e3a01000	 mov         r1, #0
  00074	e3a00101	 mov         r0, #1, 2
  00078	e380060a	 orr         r0, r0, #0xA, 12
  0007c	eb000000	 bl          OALPAtoVA
  00080	e58d000c	 str         r0, [sp, #0xC]
  00084	e59d200c	 ldr         r2, [sp, #0xC]
  00088	e59f3078	 ldr         r3, [pc, #0x78]
  0008c	e5832000	 str         r2, [r3]

; 75   :     g_XllpOSTHandle.pINTCRegs = OALPAtoVA(BULVERDE_BASE_REG_PA_INTC, FALSE);

  00090	e3a01000	 mov         r1, #0
  00094	e3a00101	 mov         r0, #1, 2
  00098	e380060d	 orr         r0, r0, #0xD, 12
  0009c	eb000000	 bl          OALPAtoVA
  000a0	e58d0010	 str         r0, [sp, #0x10]
  000a4	e59d2010	 ldr         r2, [sp, #0x10]
  000a8	e59f3058	 ldr         r3, [pc, #0x58]
  000ac	e5832004	 str         r2, [r3, #4]

; 76   : 
; 77   :     // XLLI initializes oier and rtsr to zeroes, so no further
; 78   :     // initialization needs to be done.  Match timers and
; 79   :     // alarms are disabled.
; 80   :     //
; 81   :     // Current usage of Match registers:
; 82   :     //  M0 - Scheduler
; 83   :     //  M1 - Touch Panel
; 84   :     //  M2 - Profiler
; 85   : 
; 86   :     // Update the compare register for the next profile hit.
; 87   :     //
; 88   :     XllpOstConfigureMatchReg(
; 89   :         &g_XllpOSTHandle, MatchReg2, g_profiler.countsPerHit
; 90   :     );

  000b0	e59f304c	 ldr         r3, [pc, #0x4C]
  000b4	e5932004	 ldr         r2, [r3, #4]
  000b8	e3a01002	 mov         r1, #2
  000bc	e59f0044	 ldr         r0, [pc, #0x44]
  000c0	eb000000	 bl          XllpOstConfigureMatchReg

; 91   : 
; 92   :     // Enable interrupts
; 93   :     INTERRUPTS_ENABLE(enabled);

  000c4	e59d0004	 ldr         r0, [sp, #4]
  000c8	eb000000	 bl          INTERRUPTS_ENABLE

; 94   :     irq = IRQ_OSMR2;

  000cc	e3a0301c	 mov         r3, #0x1C
  000d0	e58d3000	 str         r3, [sp]

; 95   :     OALIntrDoneIrqs(1, &irq);

  000d4	e28d1000	 add         r1, sp, #0
  000d8	e3a00001	 mov         r0, #1
  000dc	eb000000	 bl          OALIntrDoneIrqs

; 96   : 
; 97   :     // Set flag
; 98   :     g_profiler.enabled = TRUE;

  000e0	e59f201c	 ldr         r2, [pc, #0x1C]
  000e4	e3a03001	 mov         r3, #1
  000e8	e5823000	 str         r3, [r2]

; 99   : 
; 100  :     OALMSG(TRUE, (L"-OEMProfileTimerEnable\r\n"));

  000ec	e59f000c	 ldr         r0, [pc, #0xC]
  000f0	eb000000	 bl          NKDbgPrintfW
  000f4		 |$LN2@OEMProfile|

; 101  : }

  000f4	e28dd014	 add         sp, sp, #0x14
  000f8	e89d6000	 ldmia       sp, {sp, lr}
  000fc	e12fff1e	 bx          lr
  00100		 |$LN7@OEMProfile|
  00100		 |$LN8@OEMProfile|
  00100	00000000	 DCD         |??_C@_1DC@ONFHCFK@?$AA?9?$AAO?$AAE?$AAM?$AAP?$AAr?$AAo?$AAf?$AAi?$AAl?$AAe?$AAT?$AAi?$AAm?$AAe?$AAr?$AAE?$AAn?$AAa?$AAb?$AAl?$AAe?$AA?$AN?$AA?6?$AA?$AA@|
  00104		 |$LN9@OEMProfile|
  00104	00000000	 DCD         |g_profiler|
  00108		 |$LN10@OEMProfile|
  00108	00000000	 DCD         |g_XllpOSTHandle|
  0010c		 |$LN11@OEMProfile|
  0010c	00000000	 DCD         |g_pProfilerISR|
  00110		 |$LN12@OEMProfile|
  00110	00000000	 DCD         |OALProfileIntrHandler|
  00114		 |$LN13@OEMProfile|
  00114	00000000	 DCD         |g_oalTimer|
  00118		 |$LN14@OEMProfile|
  00118	00000000	 DCD         |??_C@_1DK@OJEFEGCL@?$AA?$CL?$AAO?$AAE?$AAM?$AAP?$AAr?$AAo?$AAf?$AAi?$AAl?$AAe?$AAT?$AAi?$AAm?$AAe?$AAr?$AAE?$AAn?$AAa?$AAb?$AAl?$AAe?$AA?$CI?$AA?$CF?$AAd?$AA?$CJ?$AA?$AN?$AA?6?$AA?$AA@|
  0011c		 |$M44778|

			 ENDP  ; |OEMProfileTimerEnable|

	EXPORT	|??_C@_1DE@DGCDHBJ@?$AA?9?$AAO?$AAE?$AAM?$AAP?$AAr?$AAo?$AAf?$AAi?$AAl?$AAe?$AAT?$AAi?$AAm?$AAe?$AAr?$AAD?$AAi?$AAs?$AAa?$AAb?$AAl?$AAe?$AA?$AN?$AA?6?$AA?$AA@| [ DATA ] ; `string'
	EXPORT	|??_C@_1DI@ICCHIFPG@?$AA?$CL?$AAO?$AAE?$AAM?$AAP?$AAr?$AAo?$AAf?$AAi?$AAl?$AAe?$AAT?$AAi?$AAm?$AAe?$AAr?$AAD?$AAi?$AAs?$AAa?$AAb?$AAl?$AAe?$AA?$CI?$AA?$CJ?$AA?$AN?$AA?6?$AA?$AA@| [ DATA ] ; `string'
	EXPORT	|OEMProfileTimerDisable|
	IMPORT	|OALIntrDisableIrqs|

  00008			 AREA	 |.pdata|, PDATA
|$T44793| DCD	|$LN6@OEMProfile@2|
	DCD	0x40002402

  00000			 AREA	 |.rdata|, DATA, READONLY
|??_C@_1DE@DGCDHBJ@?$AA?9?$AAO?$AAE?$AAM?$AAP?$AAr?$AAo?$AAf?$AAi?$AAl?$AAe?$AAT?$AAi?$AAm?$AAe?$AAr?$AAD?$AAi?$AAs?$AAa?$AAb?$AAl?$AAe?$AA?$AN?$AA?6?$AA?$AA@| DCB "-"
	DCB	0x0, "O", 0x0, "E", 0x0, "M", 0x0, "P", 0x0, "r", 0x0, "o"
	DCB	0x0, "f", 0x0, "i", 0x0, "l", 0x0, "e", 0x0, "T", 0x0, "i"
	DCB	0x0, "m", 0x0, "e", 0x0, "r", 0x0, "D", 0x0, "i", 0x0, "s"
	DCB	0x0, "a", 0x0, "b", 0x0, "l", 0x0, "e", 0x0, 0xd, 0x0, 0xa
	DCB	0x0, 0x0, 0x0				; `string'

  00000			 AREA	 |.rdata|, DATA, READONLY
|??_C@_1DI@ICCHIFPG@?$AA?$CL?$AAO?$AAE?$AAM?$AAP?$AAr?$AAo?$AAf?$AAi?$AAl?$AAe?$AAT?$AAi?$AAm?$AAe?$AAr?$AAD?$AAi?$AAs?$AAa?$AAb?$AAl?$AAe?$AA?$CI?$AA?$CJ?$AA?$AN?$AA?6?$AA?$AA@| DCB "+"
	DCB	0x0, "O", 0x0, "E", 0x0, "M", 0x0, "P", 0x0, "r", 0x0, "o"
	DCB	0x0, "f", 0x0, "i", 0x0, "l", 0x0, "e", 0x0, "T", 0x0, "i"
	DCB	0x0, "m", 0x0, "e", 0x0, "r", 0x0, "D", 0x0, "i", 0x0, "s"
	DCB	0x0, "a", 0x0, "b", 0x0, "l", 0x0, "e", 0x0, "(", 0x0, ")"
	DCB	0x0, 0xd, 0x0, 0xa, 0x0, 0x0, 0x0	; `string'
; Function compile flags: /Odtp

  0011c			 AREA	 |.text|, CODE, ARM

  0011c		 |OEMProfileTimerDisable| PROC

; 112  : {

  0011c		 |$LN6@OEMProfile@2|
  0011c	e52de004	 str         lr, [sp, #-4]!
  00120	e24dd00c	 sub         sp, sp, #0xC
  00124		 |$M44790|

; 113  :     BOOL enabled;
; 114  :     UINT32 irq;
; 115  : 
; 116  :     OALMSG(TRUE, (L"+OEMProfileTimerDisable()\r\n"));

  00124	e59f007c	 ldr         r0, [pc, #0x7C]
  00128	eb000000	 bl          NKDbgPrintfW

; 117  : 
; 118  :     // No disable without enable
; 119  :     if (!g_profiler.enabled) goto cleanUp;

  0012c	e59f306c	 ldr         r3, [pc, #0x6C]
  00130	e5933000	 ldr         r3, [r3]
  00134	e3530000	 cmp         r3, #0
  00138	1a000000	 bne         |$LN1@OEMProfile@2|
  0013c	ea000011	 b           |$cleanUp$44755|
  00140		 |$LN1@OEMProfile@2|

; 120  : 
; 121  :     // Following code should not be interrupted
; 122  :     enabled = INTERRUPTS_ENABLE(FALSE);

  00140	e3a00000	 mov         r0, #0
  00144	eb000000	 bl          INTERRUPTS_ENABLE
  00148	e58d0008	 str         r0, [sp, #8]
  0014c	e59d3008	 ldr         r3, [sp, #8]
  00150	e58d3004	 str         r3, [sp, #4]

; 123  : 
; 124  :     // Disable the profile timer interrupt
; 125  :     irq = IRQ_OSMR2;

  00154	e3a0301c	 mov         r3, #0x1C
  00158	e58d3000	 str         r3, [sp]

; 126  :     OALIntrDisableIrqs(1, &irq);

  0015c	e28d1000	 add         r1, sp, #0
  00160	e3a00001	 mov         r0, #1
  00164	eb000000	 bl          OALIntrDisableIrqs

; 127  : 
; 128  :     // Deconfigure profiling ISR callback function.
; 129  :     g_pProfilerISR = NULL;

  00168	e59f2034	 ldr         r2, [pc, #0x34]
  0016c	e3a03000	 mov         r3, #0
  00170	e5823000	 str         r3, [r2]

; 130  : 
; 131  :     // Reset flag
; 132  :     g_profiler.enabled = FALSE;

  00174	e59f2024	 ldr         r2, [pc, #0x24]
  00178	e3a03000	 mov         r3, #0
  0017c	e5823000	 str         r3, [r2]

; 133  : 
; 134  :     // Enable interrupts
; 135  :     INTERRUPTS_ENABLE(enabled);

  00180	e59d0004	 ldr         r0, [sp, #4]
  00184	eb000000	 bl          INTERRUPTS_ENABLE
  00188		 |$cleanUp$44755|

; 136  : 
; 137  : cleanUp:
; 138  :     OALMSG(TRUE, (L"-OEMProfileTimerDisable\r\n"));

  00188	e59f000c	 ldr         r0, [pc, #0xC]
  0018c	eb000000	 bl          NKDbgPrintfW

; 139  : }

  00190	e28dd00c	 add         sp, sp, #0xC
  00194	e49de004	 ldr         lr, [sp], #4
  00198	e12fff1e	 bx          lr
  0019c		 |$LN7@OEMProfile@2|
  0019c		 |$LN8@OEMProfile@2|
  0019c	00000000	 DCD         |??_C@_1DE@DGCDHBJ@?$AA?9?$AAO?$AAE?$AAM?$AAP?$AAr?$AAo?$AAf?$AAi?$AAl?$AAe?$AAT?$AAi?$AAm?$AAe?$AAr?$AAD?$AAi?$AAs?$AAa?$AAb?$AAl?$AAe?$AA?$AN?$AA?6?$AA?$AA@|
  001a0		 |$LN9@OEMProfile@2|
  001a0	00000000	 DCD         |g_profiler|
  001a4		 |$LN10@OEMProfile@2|
  001a4	00000000	 DCD         |g_pProfilerISR|
  001a8		 |$LN11@OEMProfile@2|
  001a8	00000000	 DCD         |??_C@_1DI@ICCHIFPG@?$AA?$CL?$AAO?$AAE?$AAM?$AAP?$AAr?$AAo?$AAf?$AAi?$AAl?$AAe?$AAT?$AAi?$AAm?$AAe?$AAr?$AAD?$AAi?$AAs?$AAa?$AAb?$AAl?$AAe?$AA?$CI?$AA?$CJ?$AA?$AN?$AA?6?$AA?$AA@|
  001ac		 |$M44791|

			 ENDP  ; |OEMProfileTimerDisable|

	IMPORT	|ProfilerHit|

  00010			 AREA	 |.pdata|, PDATA
|$T44804| DCD	|$LN5@OALProfile|
	DCD	0x40001804
; Function compile flags: /Odtp

  001ac			 AREA	 |.text|, CODE, ARM

  001ac		 |OALProfileIntrHandler| PROC

; 151  : {

  001ac		 |$LN5@OALProfile|
  001ac	e1a0c00d	 mov         r12, sp
  001b0	e92d0001	 stmdb       sp!, {r0}
  001b4	e92d5000	 stmdb       sp!, {r12, lr}
  001b8	e24dd008	 sub         sp, sp, #8
  001bc		 |$M44801|

; 152  :     UINT32 irq;
; 153  : 
; 154  :     // Update the compare register for the next profile hit.
; 155  :     XllpOstConfigureMatchReg(
; 156  :         &g_XllpOSTHandle, MatchReg2, g_profiler.countsPerHit
; 157  :     );

  001bc	e59f3044	 ldr         r3, [pc, #0x44]
  001c0	e5932004	 ldr         r2, [r3, #4]
  001c4	e3a01002	 mov         r1, #2
  001c8	e59f0034	 ldr         r0, [pc, #0x34]
  001cc	eb000000	 bl          XllpOstConfigureMatchReg

; 158  : 
; 159  :     // First call profiler
; 160  :     ProfilerHit(ra);

  001d0	e59d0010	 ldr         r0, [sp, #0x10]
  001d4	eb000000	 bl          ProfilerHit

; 161  : 
; 162  :     // Enable interrupts
; 163  :     irq = IRQ_OSMR2;

  001d8	e3a0301c	 mov         r3, #0x1C
  001dc	e58d3000	 str         r3, [sp]

; 164  :     OALIntrDoneIrqs(1, &irq);

  001e0	e28d1000	 add         r1, sp, #0
  001e4	e3a00001	 mov         r0, #1
  001e8	eb000000	 bl          OALIntrDoneIrqs

; 165  : 
; 166  :     return SYSINTR_NOP; 

  001ec	e3a03000	 mov         r3, #0
  001f0	e58d3004	 str         r3, [sp, #4]

; 167  : }

  001f4	e59d0004	 ldr         r0, [sp, #4]
  001f8	e28dd008	 add         sp, sp, #8
  001fc	e89d6000	 ldmia       sp, {sp, lr}
  00200	e12fff1e	 bx          lr
  00204		 |$LN6@OALProfile|
  00204		 |$LN7@OALProfile|
  00204	00000000	 DCD         |g_XllpOSTHandle|
  00208		 |$LN8@OALProfile|
  00208	00000000	 DCD         |g_profiler|
  0020c		 |$M44802|

			 ENDP  ; |OALProfileIntrHandler|

	END
