; Listing generated by Microsoft (R) Optimizing Compiler Version 14.01.60511.01 

	TTL	C:\WINCE600\PLATFORM\COMMON\SRC\SOC\OMAP2420_MS_V1\DISPLAY\haldd.cpp
	CODE32

  00000			 AREA	 |.drectve|, DRECTVE
	DCB	"-defaultlib:LIBCMT "
	DCB	"-defaultlib:OLDNAMES "


  00000			 AREA	 |.rdata|, DATA, READONLY
|FourCCDescriptionTable| DCD 0x32595559
	DCD	0x10
	DCD	0xff00ff
	DCD	0xff00
	DCD	0xff000000
	DCD	0x56595559
	DCD	0x10
	DCD	0xff00ff
	DCD	0xff00
	DCD	0xff000000
	DCD	0x55595659
	DCD	0x10
	DCD	0xff00ff00
	DCD	0xff
	DCD	0xff0000
	DCD	0x59565955
	DCD	0x10
	DCD	0xff00ff00
	DCD	0xff
	DCD	0xff0000
	DCD	0x36315659
	DCD	0x10
	DCD	0xffffffff
	DCD	0xffffffff
	DCD	0xffffffff
	DCD	0x32315659
	DCD	0xc
	DCD	0xffffffff
	DCD	0xffffffff
	DCD	0xffffffff
	DCD	0x3231564e
	DCD	0xc
	DCD	0xffffffff
	DCD	0xffffffff
	DCD	0xffffffff
	DCD	0x30323449
	DCD	0xc
	DCD	0xffffffff
	DCD	0xffffffff
	DCD	0xffffffff
	DCD	0x56555949
	DCD	0xc
	DCD	0xffffffff
	DCD	0xffffffff
	DCD	0xffffffff
	EXPORT	|??_C@_1DA@PIHFOIGO@?$AA?9?$AAH?$AAa?$AAl?$AAG?$AAe?$AAt?$AAD?$AAr?$AAi?$AAv?$AAe?$AAr?$AAI?$AAn?$AAf?$AAo?$AA?3?$AA?5?$AA?$CF?$AAd?$AA?$AN?$AA?6?$AA?$AA@| [ DATA ] ; `string'
	EXPORT	|??_C@_1CI@IMIHIFNB@?$AA?$CL?$AAH?$AAa?$AAl?$AAG?$AAe?$AAt?$AAD?$AAr?$AAi?$AAv?$AAe?$AAr?$AAI?$AAn?$AAf?$AAo?$AA?$AN?$AA?6?$AA?$AA@| [ DATA ] ; `string'
	EXPORT	|?HalGetDriverInfo@@YAKPAU_DDHAL_GETDRIVERINFODATA@@@Z| ; HalGetDriverInfo
	IMPORT	|NKDbgPrintfW|
	IMPORT	|dpCurSettings|

  00000			 AREA	 |.pdata|, PDATA
|$T40245| DCD	|$LN9@HalGetDriv|
	DCD	0x40002b04
; File c:\wince600\platform\common\src\soc\omap2420_ms_v1\display\haldd.cpp

  00000			 AREA	 |.rdata|, DATA, READONLY
|??_C@_1DA@PIHFOIGO@?$AA?9?$AAH?$AAa?$AAl?$AAG?$AAe?$AAt?$AAD?$AAr?$AAi?$AAv?$AAe?$AAr?$AAI?$AAn?$AAf?$AAo?$AA?3?$AA?5?$AA?$CF?$AAd?$AA?$AN?$AA?6?$AA?$AA@| DCB "-"
	DCB	0x0, "H", 0x0, "a", 0x0, "l", 0x0, "G", 0x0, "e", 0x0, "t"
	DCB	0x0, "D", 0x0, "r", 0x0, "i", 0x0, "v", 0x0, "e", 0x0, "r"
	DCB	0x0, "I", 0x0, "n", 0x0, "f", 0x0, "o", 0x0, ":", 0x0, " "
	DCB	0x0, "%", 0x0, "d", 0x0, 0xd, 0x0, 0xa, 0x0, 0x0, 0x0 ; `string'

  00000			 AREA	 |.rdata|, DATA, READONLY
|??_C@_1CI@IMIHIFNB@?$AA?$CL?$AAH?$AAa?$AAl?$AAG?$AAe?$AAt?$AAD?$AAr?$AAi?$AAv?$AAe?$AAr?$AAI?$AAn?$AAf?$AAo?$AA?$AN?$AA?6?$AA?$AA@| DCB "+"
	DCB	0x0, "H", 0x0, "a", 0x0, "l", 0x0, "G", 0x0, "e", 0x0, "t"
	DCB	0x0, "D", 0x0, "r", 0x0, "i", 0x0, "v", 0x0, "e", 0x0, "r"
	DCB	0x0, "I", 0x0, "n", 0x0, "f", 0x0, "o", 0x0, 0xd, 0x0, 0xa
	DCB	0x0, 0x0, 0x0				; `string'
; Function compile flags: /Odtp

  00000			 AREA	 |.text|, CODE, ARM

  00000		 |?HalGetDriverInfo@@YAKPAU_DDHAL_GETDRIVERINFODATA@@@Z| PROC ; HalGetDriverInfo

; 24   : {

  00000		 |$LN9@HalGetDriv|
  00000	e1a0c00d	 mov         r12, sp
  00004	e92d0001	 stmdb       sp!, {r0}
  00008	e92d5000	 stmdb       sp!, {r12, lr}
  0000c	e24dd00c	 sub         sp, sp, #0xC
  00010		 |$M40242|

; 25   :     DEBUGMSG(GPE_ZONE_ENTER, (L"+HalGetDriverInfo\r\n"));

  00010	e59f3088	 ldr         r3, [pc, #0x88]
  00014	e5933440	 ldr         r3, [r3, #0x440]
  00018	e3130010	 tst         r3, #0x10
  0001c	0a000004	 beq         |$LN3@HalGetDriv|
  00020	e59f0080	 ldr         r0, [pc, #0x80]
  00024	eb000000	 bl          NKDbgPrintfW
  00028	e3a03001	 mov         r3, #1
  0002c	e58d3004	 str         r3, [sp, #4]
  00030	ea000001	 b           |$LN4@HalGetDriv|
  00034		 |$LN3@HalGetDriv|
  00034	e3a03000	 mov         r3, #0
  00038	e58d3004	 str         r3, [sp, #4]
  0003c		 |$LN4@HalGetDriv|

; 26   : 
; 27   :     pd->ddRVal = DDERR_CURRENTLYNOTAVAIL;

  0003c	e59d3014	 ldr         r3, [sp, #0x14]
  00040	e2832028	 add         r2, r3, #0x28
  00044	e59f3058	 ldr         r3, [pc, #0x58]
  00048	e5823000	 str         r3, [r2]

; 28   : 
; 29   :     DEBUGMSG(GPE_ZONE_ENTER, (L"-HalGetDriverInfo: %d\r\n", pd->ddRVal));

  0004c	e59f304c	 ldr         r3, [pc, #0x4C]
  00050	e5933440	 ldr         r3, [r3, #0x440]
  00054	e3130010	 tst         r3, #0x10
  00058	0a000007	 beq         |$LN5@HalGetDriv|
  0005c	e59d3014	 ldr         r3, [sp, #0x14]
  00060	e2833028	 add         r3, r3, #0x28
  00064	e5931000	 ldr         r1, [r3]
  00068	e59f002c	 ldr         r0, [pc, #0x2C]
  0006c	eb000000	 bl          NKDbgPrintfW
  00070	e3a03001	 mov         r3, #1
  00074	e58d3008	 str         r3, [sp, #8]
  00078	ea000001	 b           |$LN6@HalGetDriv|
  0007c		 |$LN5@HalGetDriv|
  0007c	e3a03000	 mov         r3, #0
  00080	e58d3008	 str         r3, [sp, #8]
  00084		 |$LN6@HalGetDriv|

; 30   :     return DDHAL_DRIVER_HANDLED;

  00084	e3a03001	 mov         r3, #1
  00088	e58d3000	 str         r3, [sp]

; 31   : }

  0008c	e59d0000	 ldr         r0, [sp]
  00090	e28dd00c	 add         sp, sp, #0xC
  00094	e89d6000	 ldmia       sp, {sp, lr}
  00098	e12fff1e	 bx          lr
  0009c		 |$LN10@HalGetDriv|
  0009c		 |$LN11@HalGetDriv|
  0009c	00000000	 DCD         |??_C@_1DA@PIHFOIGO@?$AA?9?$AAH?$AAa?$AAl?$AAG?$AAe?$AAt?$AAD?$AAr?$AAi?$AAv?$AAe?$AAr?$AAI?$AAn?$AAf?$AAo?$AA?3?$AA?5?$AA?$CF?$AAd?$AA?$AN?$AA?6?$AA?$AA@|
  000a0		 |$LN12@HalGetDriv|
  000a0	00000000	 DCD         |dpCurSettings|
  000a4		 |$LN13@HalGetDriv|
  000a4	88760028	 DCD         0x88760028
  000a8		 |$LN14@HalGetDriv|
  000a8	00000000	 DCD         |??_C@_1CI@IMIHIFNB@?$AA?$CL?$AAH?$AAa?$AAl?$AAG?$AAe?$AAt?$AAD?$AAr?$AAi?$AAv?$AAe?$AAr?$AAI?$AAn?$AAf?$AAo?$AA?$AN?$AA?6?$AA?$AA@|
  000ac		 |$M40243|

			 ENDP  ; |?HalGetDriverInfo@@YAKPAU_DDHAL_GETDRIVERINFODATA@@@Z|, HalGetDriverInfo

	END
