; Listing generated by Microsoft (R) Optimizing Compiler Version 14.01.60511.01 

	TTL	C:\WINCE600\PLATFORM\COMMON\SRC\SOC\OMAP2420_MS_V1\DISPLAY\omap2420surf.cpp
	CODE32

  00000			 AREA	 |.drectve|, DRECTVE
	DCB	"-defaultlib:LIBCMT "
	DCB	"-defaultlib:OLDNAMES "


  00000			 AREA	 |.rdata|, DATA, READONLY
|FourCCDescriptionTable| DCD 0x32595559
	DCD	0x10
	DCD	0xff00ff
	DCD	0xff00
	DCD	0xff000000
	DCD	0x56595559
	DCD	0x10
	DCD	0xff00ff
	DCD	0xff00
	DCD	0xff000000
	DCD	0x55595659
	DCD	0x10
	DCD	0xff00ff00
	DCD	0xff
	DCD	0xff0000
	DCD	0x59565955
	DCD	0x10
	DCD	0xff00ff00
	DCD	0xff
	DCD	0xff0000
	DCD	0x36315659
	DCD	0x10
	DCD	0xffffffff
	DCD	0xffffffff
	DCD	0xffffffff
	DCD	0x32315659
	DCD	0xc
	DCD	0xffffffff
	DCD	0xffffffff
	DCD	0xffffffff
	DCD	0x3231564e
	DCD	0xc
	DCD	0xffffffff
	DCD	0xffffffff
	DCD	0xffffffff
	DCD	0x30323449
	DCD	0xc
	DCD	0xffffffff
	DCD	0xffffffff
	DCD	0xffffffff
	DCD	0x56555949
	DCD	0xc
	DCD	0xffffffff
	DCD	0xffffffff
	DCD	0xffffffff
	EXPORT	|??_C@_1LG@KEMADELE@?$AAE?$AAR?$AAR?$AAO?$AAR?$AA?3?$AA?5?$AAO?$AAM?$AAA?$AAP?$AAV?$AA1?$AA0?$AA3?$AA0?$AAG?$AAP?$AAE?$AA?3?$AA?3?$AAM?$AAa?$AAp?$AAF?$AAr?$AAa?$AAm?$AAe?$AAB?$AAu?$AAf@| [ DATA ] ; `string'
	EXPORT	|??_C@_1HE@LOIJMPEH@?$AAE?$AAR?$AAR?$AAO?$AAR?$AA?3?$AA?5?$AAO?$AAM?$AAA?$AAP?$AA2?$AA4?$AA2?$AA0?$AAS?$AAu?$AAr?$AAf?$AA?3?$AA?3?$AAO?$AAM?$AAA?$AAP?$AA7?$AA3?$AA0?$AAS?$AAu?$AAr?$AAf@| [ DATA ] ; `string'
	EXPORT	|??_C@_1HO@EDKMACDD@?$AAE?$AAR?$AAR?$AAO?$AAR?$AA?3?$AA?5?$AAO?$AAM?$AAA?$AAP?$AA2?$AA4?$AA2?$AA0?$AAS?$AAu?$AAr?$AAf?$AA?3?$AA?3?$AAO?$AAM?$AAA?$AAP?$AA2?$AA4?$AA2?$AA0?$AAS?$AAu?$AAr@| [ DATA ] ; `string'
	EXPORT	|??_7OMAP2420Surf@@6B@| [ DATA ]	; OMAP2420Surf::`vftable'
	EXPORT	|??0OMAP2420Surf@@QAA@HHKPAXHW4EGPEFormat@@@Z| ; OMAP2420Surf::OMAP2420Surf
	EXPORT	|?GetDriverData@DDGPESurf@@UAAPAUDDGPEDriverData@@XZ| ; DDGPESurf::GetDriverData
	EXPORT	|?SetDriverData@DDGPESurf@@UAAXPAUDDGPEDriverData@@@Z| ; DDGPESurf::SetDriverData
	EXPORT	|?SurfaceSize@DDGPESurf@@UAAHXZ|	; DDGPESurf::SurfaceSize
	IMPORT	|UnmapViewOfFile|
	IMPORT	|VirtualCopy|
	IMPORT	|MapViewOfFile|
	IMPORT	|NKDbgPrintfW|
	IMPORT	|dpCurSettings|
	IMPORT	|CreateFileMappingW|
	IMPORT	|??0DDGPESurf@@QAA@HHPAXHW4EGPEFormat@@@Z| ; DDGPESurf::DDGPESurf
	IMPORT	|??_EOMAP2420Surf@@UAAPAXI@Z|, WEAK |??_GOMAP2420Surf@@UAAPAXI@Z| ; OMAP2420Surf::`vector deleting destructor', OMAP2420Surf::`scalar deleting destructor'
	IMPORT	|?Init@DDGPESurf@@UAAXHHPAXHW4EGPEFormat@@W4EDDGPEPixelFormat@@@Z| ; DDGPESurf::Init
	IMPORT	|?SetDDGPESurf@DDGPESurf@@UAAXPAU_DDRAWI_DDRAWSURFACE_LCL@@@Z| ; DDGPESurf::SetDDGPESurf
	IMPORT	|?Bpp@DDGPESurf@@UAAKXZ|		; DDGPESurf::Bpp
	IMPORT	|?AlignedWidth@DDGPESurf@@UAAKXZ|	; DDGPESurf::AlignedWidth
	IMPORT	|?SetColorKey@DDGPESurf@@UAAXK@Z|	; DDGPESurf::SetColorKey
	IMPORT	|?ColorKey@DDGPESurf@@UAAKXZ|		; DDGPESurf::ColorKey
	IMPORT	|?SetColorKeyMask@DDGPESurf@@UAAXK@Z|	; DDGPESurf::SetColorKeyMask
	IMPORT	|?ColorKeyMask@DDGPESurf@@UAAKXZ|	; DDGPESurf::ColorKeyMask
	IMPORT	|?SetColorKeyLow@DDGPESurf@@UAAXK@Z|	; DDGPESurf::SetColorKeyLow
	IMPORT	|?ColorKeyLow@DDGPESurf@@UAAKXZ|	; DDGPESurf::ColorKeyLow
	IMPORT	|?SetColorKeyHigh@DDGPESurf@@UAAXK@Z|	; DDGPESurf::SetColorKeyHigh
	IMPORT	|?ColorKeyHigh@DDGPESurf@@UAAKXZ|	; DDGPESurf::ColorKeyHigh
	IMPORT	|?PixelFormat@DDGPESurf@@UAA?AW4EDDGPEPixelFormat@@XZ| ; DDGPESurf::PixelFormat
	IMPORT	|?HasAlpha@DDGPESurf@@UAAHXZ|		; DDGPESurf::HasAlpha

  00000			 AREA	 |.pdata|, PDATA
|$T40348| DCD	|$LN21@OMAP2420Su|
	DCD	0x4000e404
; File c:\wince600\platform\common\src\soc\omap2420_ms_v1\display\omap2420surf.cpp

  00000			 AREA	 |.rdata|, DATA, READONLY
|??_C@_1LG@KEMADELE@?$AAE?$AAR?$AAR?$AAO?$AAR?$AA?3?$AA?5?$AAO?$AAM?$AAA?$AAP?$AAV?$AA1?$AA0?$AA3?$AA0?$AAG?$AAP?$AAE?$AA?3?$AA?3?$AAM?$AAa?$AAp?$AAF?$AAr?$AAa?$AAm?$AAe?$AAB?$AAu?$AAf@| DCB "E"
	DCB	0x0, "R", 0x0, "R", 0x0, "O", 0x0, "R", 0x0, ":", 0x0, " "
	DCB	0x0, "O", 0x0, "M", 0x0, "A", 0x0, "P", 0x0, "V", 0x0, "1"
	DCB	0x0, "0", 0x0, "3", 0x0, "0", 0x0, "G", 0x0, "P", 0x0, "E"
	DCB	0x0, ":", 0x0, ":", 0x0, "M", 0x0, "a", 0x0, "p", 0x0, "F"
	DCB	0x0, "r", 0x0, "a", 0x0, "m", 0x0, "e", 0x0, "B", 0x0, "u"
	DCB	0x0, "f", 0x0, "f", 0x0, "e", 0x0, "r", 0x0, ":", 0x0, " "
	DCB	0x0, "V", 0x0, "i", 0x0, "r", 0x0, "t", 0x0, "u", 0x0, "a"
	DCB	0x0, "l", 0x0, "C", 0x0, "o", 0x0, "p", 0x0, "y", 0x0, " "
	DCB	0x0, "f", 0x0, "a", 0x0, "i", 0x0, "l", 0x0, "e", 0x0, "d"
	DCB	0x0, " ", 0x0, "(", 0x0, "0", 0x0, "x", 0x0, "%", 0x0, "0"
	DCB	0x0, "8", 0x0, "x", 0x0, ",", 0x0, " ", 0x0, "0", 0x0, "x"
	DCB	0x0, "%", 0x0, "0", 0x0, "8", 0x0, "x", 0x0, ",", 0x0, " "
	DCB	0x0, "0", 0x0, "x", 0x0, "%", 0x0, "0", 0x0, "8", 0x0, "x"
	DCB	0x0, ",", 0x0, " ", 0x0, "0", 0x0, "x", 0x0, "%", 0x0, "0"
	DCB	0x0, "8", 0x0, "x", 0x0, ")", 0x0, 0xd, 0x0, 0xa, 0x0, 0x0
	DCB	0x0					; `string'

  00000			 AREA	 |.rdata|, DATA, READONLY
|??_C@_1HE@LOIJMPEH@?$AAE?$AAR?$AAR?$AAO?$AAR?$AA?3?$AA?5?$AAO?$AAM?$AAA?$AAP?$AA2?$AA4?$AA2?$AA0?$AAS?$AAu?$AAr?$AAf?$AA?3?$AA?3?$AAO?$AAM?$AAA?$AAP?$AA7?$AA3?$AA0?$AAS?$AAu?$AAr?$AAf@| DCB "E"
	DCB	0x0, "R", 0x0, "R", 0x0, "O", 0x0, "R", 0x0, ":", 0x0, " "
	DCB	0x0, "O", 0x0, "M", 0x0, "A", 0x0, "P", 0x0, "2", 0x0, "4"
	DCB	0x0, "2", 0x0, "0", 0x0, "S", 0x0, "u", 0x0, "r", 0x0, "f"
	DCB	0x0, ":", 0x0, ":", 0x0, "O", 0x0, "M", 0x0, "A", 0x0, "P"
	DCB	0x0, "7", 0x0, "3", 0x0, "0", 0x0, "S", 0x0, "u", 0x0, "r"
	DCB	0x0, "f", 0x0, ":", 0x0, " ", 0x0, "M", 0x0, "a", 0x0, "p"
	DCB	0x0, "V", 0x0, "i", 0x0, "e", 0x0, "w", 0x0, "O", 0x0, "f"
	DCB	0x0, "F", 0x0, "i", 0x0, "l", 0x0, "e", 0x0, " ", 0x0, "f"
	DCB	0x0, "a", 0x0, "i", 0x0, "l", 0x0, "e", 0x0, "d", 0x0, "!"
	DCB	0x0, 0xd, 0x0, 0xa, 0x0, 0x0, 0x0	; `string'

  00000			 AREA	 |.rdata|, DATA, READONLY
|??_C@_1HO@EDKMACDD@?$AAE?$AAR?$AAR?$AAO?$AAR?$AA?3?$AA?5?$AAO?$AAM?$AAA?$AAP?$AA2?$AA4?$AA2?$AA0?$AAS?$AAu?$AAr?$AAf?$AA?3?$AA?3?$AAO?$AAM?$AAA?$AAP?$AA2?$AA4?$AA2?$AA0?$AAS?$AAu?$AAr@| DCB "E"
	DCB	0x0, "R", 0x0, "R", 0x0, "O", 0x0, "R", 0x0, ":", 0x0, " "
	DCB	0x0, "O", 0x0, "M", 0x0, "A", 0x0, "P", 0x0, "2", 0x0, "4"
	DCB	0x0, "2", 0x0, "0", 0x0, "S", 0x0, "u", 0x0, "r", 0x0, "f"
	DCB	0x0, ":", 0x0, ":", 0x0, "O", 0x0, "M", 0x0, "A", 0x0, "P"
	DCB	0x0, "2", 0x0, "4", 0x0, "2", 0x0, "0", 0x0, "S", 0x0, "u"
	DCB	0x0, "r", 0x0, "f", 0x0, ":", 0x0, " ", 0x0, "C", 0x0, "r"
	DCB	0x0, "e", 0x0, "a", 0x0, "t", 0x0, "e", 0x0, "F", 0x0, "i"
	DCB	0x0, "l", 0x0, "e", 0x0, "M", 0x0, "a", 0x0, "p", 0x0, "p"
	DCB	0x0, "i", 0x0, "n", 0x0, "g", 0x0, " ", 0x0, "f", 0x0, "a"
	DCB	0x0, "i", 0x0, "l", 0x0, "e", 0x0, "d", 0x0, "!", 0x0, 0xd
	DCB	0x0, 0xa, 0x0, 0x0, 0x0			; `string'

  00000			 AREA	 |.rdata|, DATA, READONLY
|??_7OMAP2420Surf@@6B@| DCD |??_EOMAP2420Surf@@UAAPAXI@Z| ; OMAP2420Surf::`vftable'
	DCD	|?Init@DDGPESurf@@UAAXHHPAXHW4EGPEFormat@@W4EDDGPEPixelFormat@@@Z|
	DCD	|?SetDDGPESurf@DDGPESurf@@UAAXPAU_DDRAWI_DDRAWSURFACE_LCL@@@Z|
	DCD	|?Bpp@DDGPESurf@@UAAKXZ|
	DCD	|?AlignedWidth@DDGPESurf@@UAAKXZ|
	DCD	|?SetColorKey@DDGPESurf@@UAAXK@Z|
	DCD	|?ColorKey@DDGPESurf@@UAAKXZ|
	DCD	|?SetColorKeyMask@DDGPESurf@@UAAXK@Z|
	DCD	|?ColorKeyMask@DDGPESurf@@UAAKXZ|
	DCD	|?SetColorKeyLow@DDGPESurf@@UAAXK@Z|
	DCD	|?ColorKeyLow@DDGPESurf@@UAAKXZ|
	DCD	|?SetColorKeyHigh@DDGPESurf@@UAAXK@Z|
	DCD	|?ColorKeyHigh@DDGPESurf@@UAAKXZ|
	DCD	|?PixelFormat@DDGPESurf@@UAA?AW4EDDGPEPixelFormat@@XZ|
	DCD	|?HasAlpha@DDGPESurf@@UAAHXZ|
	DCD	|?GetDriverData@DDGPESurf@@UAAPAUDDGPEDriverData@@XZ|
	DCD	|?SetDriverData@DDGPESurf@@UAAXPAUDDGPEDriverData@@@Z|
	DCD	|?SurfaceSize@DDGPESurf@@UAAHXZ|
; Function compile flags: /Odtp

  00000			 AREA	 |.text|, CODE, ARM

  00000		 |??0OMAP2420Surf@@QAA@HHKPAXHW4EGPEFormat@@@Z| PROC ; OMAP2420Surf::OMAP2420Surf

; 30   : {

  00000		 |$LN21@OMAP2420Su|
  00000	e1a0c00d	 mov         r12, sp
  00004	e92d000f	 stmdb       sp!, {r0 - r3}
  00008	e92d5000	 stmdb       sp!, {r12, lr}
  0000c	e24dd058	 sub         sp, sp, #0x58
  00010		 |$M40345|
  00010	e59d3078	 ldr         r3, [sp, #0x78]
  00014	e58d3004	 str         r3, [sp, #4]
  00018	e59d3074	 ldr         r3, [sp, #0x74]
  0001c	e58d3000	 str         r3, [sp]
  00020	e59d3070	 ldr         r3, [sp, #0x70]
  00024	e59d2068	 ldr         r2, [sp, #0x68]
  00028	e59d1064	 ldr         r1, [sp, #0x64]
  0002c	e59d0060	 ldr         r0, [sp, #0x60]
  00030	eb000000	 bl          |??0DDGPESurf@@QAA@HHPAXHW4EGPEFormat@@@Z|
  00034	e58d0038	 str         r0, [sp, #0x38]
  00038	e59f234c	 ldr         r2, [pc, #0x34C]
  0003c	e59d3060	 ldr         r3, [sp, #0x60]
  00040	e5832000	 str         r2, [r3]

; 31   :     BOOL rc = FALSE;

  00044	e3a03000	 mov         r3, #0
  00048	e58d3008	 str         r3, [sp, #8]

; 32   :     UCHAR *pSurface = NULL;

  0004c	e3a03000	 mov         r3, #0
  00050	e58d300c	 str         r3, [sp, #0xC]

; 33   :     m_nOffsetInVideoMemory = pa;

  00054	e59d3060	 ldr         r3, [sp, #0x60]
  00058	e2832034	 add         r2, r3, #0x34
  0005c	e59d306c	 ldr         r3, [sp, #0x6C]
  00060	e5823000	 str         r3, [r2]

; 34   :     m_fInVideoMemory = (pa != 0);

  00064	e59d306c	 ldr         r3, [sp, #0x6C]
  00068	e3530000	 cmp         r3, #0
  0006c	0a000002	 beq         |$LN11@OMAP2420Su|
  00070	e3a03001	 mov         r3, #1
  00074	e58d303c	 str         r3, [sp, #0x3C]
  00078	ea000001	 b           |$LN12@OMAP2420Su|
  0007c		 |$LN11@OMAP2420Su|
  0007c	e3a03000	 mov         r3, #0
  00080	e58d303c	 str         r3, [sp, #0x3C]
  00084		 |$LN12@OMAP2420Su|
  00084	e59d3060	 ldr         r3, [sp, #0x60]
  00088	e2832020	 add         r2, r3, #0x20
  0008c	e59d303c	 ldr         r3, [sp, #0x3C]
  00090	e5823000	 str         r3, [r2]

; 35   :     m_hSurface = NULL;

  00094	e59d3060	 ldr         r3, [sp, #0x60]
  00098	e283207c	 add         r2, r3, #0x7C
  0009c	e3a03000	 mov         r3, #0
  000a0	e5823000	 str         r3, [r2]

; 36   :     m_pSurface = NULL;

  000a4	e59d3060	 ldr         r3, [sp, #0x60]
  000a8	e2832080	 add         r2, r3, #0x80
  000ac	e3a03000	 mov         r3, #0
  000b0	e5823000	 str         r3, [r2]

; 37   :     m_inCache = FALSE;

  000b4	e59d3060	 ldr         r3, [sp, #0x60]
  000b8	e2832084	 add         r2, r3, #0x84
  000bc	e3a03000	 mov         r3, #0
  000c0	e5823000	 str         r3, [r2]

; 38   :     m_pVidRegs = NULL;

  000c4	e59d3060	 ldr         r3, [sp, #0x60]
  000c8	e2832088	 add         r2, r3, #0x88
  000cc	e3a03000	 mov         r3, #0
  000d0	e5823000	 str         r3, [r2]

; 39   : 
; 40   :     // Create external mapping when surface is in video memory. We get to
; 41   :     // preblems with MapViewOfFile/VirtualAlloc. For whichever reason
; 42   :     // somebody allocates first page in mapped view. To workaround this
; 43   :     // issue we reserve one more page and ignore first one in virtual alloc.
; 44   :     if (m_fInVideoMemory)

  000d4	e59d3060	 ldr         r3, [sp, #0x60]
  000d8	e2833020	 add         r3, r3, #0x20
  000dc	e5933000	 ldr         r3, [r3]
  000e0	e3530000	 cmp         r3, #0
  000e4	0a00008a	 beq         |$LN8@OMAP2420Su|

; 45   :         {
; 46   :         // Get surface size
; 47   :         ULONG size = stride * height;

  000e8	e59d2074	 ldr         r2, [sp, #0x74]
  000ec	e59d3068	 ldr         r3, [sp, #0x68]
  000f0	e0030392	 mul         r3, r2, r3
  000f4	e58d3014	 str         r3, [sp, #0x14]

; 48   : 
; 49   :         // We have to align on page boundary
; 50   :         DWORD offset = pa  & (PAGE_SIZE - 1);

  000f8	e3e03b0d	 mvn         r3, #0xD, 22
  000fc	e22330fb	 eor         r3, r3, #0xFB
  00100	e5933000	 ldr         r3, [r3]
  00104	e2432001	 sub         r2, r3, #1
  00108	e59d306c	 ldr         r3, [sp, #0x6C]
  0010c	e0033002	 and         r3, r3, r2
  00110	e58d3010	 str         r3, [sp, #0x10]

; 51   :         pa &= ~(PAGE_SIZE - 1);

  00114	e3e03b0d	 mvn         r3, #0xD, 22
  00118	e22330fb	 eor         r3, r3, #0xFB
  0011c	e5933000	 ldr         r3, [r3]
  00120	e2433001	 sub         r3, r3, #1
  00124	e1e02003	 mvn         r2, r3
  00128	e59d306c	 ldr         r3, [sp, #0x6C]
  0012c	e0033002	 and         r3, r3, r2
  00130	e58d306c	 str         r3, [sp, #0x6C]

; 52   :         size += offset;

  00134	e59d2014	 ldr         r2, [sp, #0x14]
  00138	e59d3010	 ldr         r3, [sp, #0x10]
  0013c	e0823003	 add         r3, r2, r3
  00140	e58d3014	 str         r3, [sp, #0x14]

; 53   : 
; 54   :         // Create file mapping
; 55   :         m_hSurface = CreateFileMapping(
; 56   :             INVALID_HANDLE_VALUE, NULL, PAGE_READWRITE, 0, size + PAGE_SIZE,
; 57   :             NULL
; 58   :             );

  00144	e3a03000	 mov         r3, #0
  00148	e58d3004	 str         r3, [sp, #4]
  0014c	e3e03b0d	 mvn         r3, #0xD, 22
  00150	e22330fb	 eor         r3, r3, #0xFB
  00154	e59d2014	 ldr         r2, [sp, #0x14]
  00158	e5933000	 ldr         r3, [r3]
  0015c	e0823003	 add         r3, r2, r3
  00160	e58d3000	 str         r3, [sp]
  00164	e3a03000	 mov         r3, #0
  00168	e3a02004	 mov         r2, #4
  0016c	e3a01000	 mov         r1, #0
  00170	e3e00000	 mvn         r0, #0
  00174	eb000000	 bl          CreateFileMappingW
  00178	e58d0040	 str         r0, [sp, #0x40]
  0017c	e59d3060	 ldr         r3, [sp, #0x60]
  00180	e283207c	 add         r2, r3, #0x7C
  00184	e59d3040	 ldr         r3, [sp, #0x40]
  00188	e5823000	 str         r3, [r2]

; 59   :         if (m_hSurface == NULL)

  0018c	e59d3060	 ldr         r3, [sp, #0x60]
  00190	e283307c	 add         r3, r3, #0x7C
  00194	e5933000	 ldr         r3, [r3]
  00198	e3530000	 cmp         r3, #0
  0019c	1a00000b	 bne         |$LN7@OMAP2420Su|

; 60   :             {
; 61   :             DEBUGMSG(GPE_ZONE_ERROR, (L"ERROR: OMAP2420Surf::OMAP2420Surf: "
; 62   :                 L"CreateFileMapping failed!\r\n"
; 63   :                 ));

  001a0	e59f31d8	 ldr         r3, [pc, #0x1D8]
  001a4	e5933440	 ldr         r3, [r3, #0x440]
  001a8	e3130001	 tst         r3, #1
  001ac	0a000004	 beq         |$LN13@OMAP2420Su|
  001b0	e59f01d0	 ldr         r0, [pc, #0x1D0]
  001b4	eb000000	 bl          NKDbgPrintfW
  001b8	e3a03001	 mov         r3, #1
  001bc	e58d3044	 str         r3, [sp, #0x44]
  001c0	ea000001	 b           |$LN14@OMAP2420Su|
  001c4		 |$LN13@OMAP2420Su|
  001c4	e3a03000	 mov         r3, #0
  001c8	e58d3044	 str         r3, [sp, #0x44]
  001cc		 |$LN14@OMAP2420Su|

; 64   :             goto cleanUp;

  001cc	ea000052	 b           |$cleanUp$40229|
  001d0		 |$LN7@OMAP2420Su|

; 65   :             }
; 66   : 
; 67   :         pSurface = (UCHAR*)MapViewOfFile(m_hSurface, FILE_MAP_WRITE, 0, 0, 0);

  001d0	e3a03000	 mov         r3, #0
  001d4	e58d3000	 str         r3, [sp]
  001d8	e3a03000	 mov         r3, #0
  001dc	e3a02000	 mov         r2, #0
  001e0	e3a01002	 mov         r1, #2
  001e4	e59d0060	 ldr         r0, [sp, #0x60]
  001e8	e280007c	 add         r0, r0, #0x7C
  001ec	e5900000	 ldr         r0, [r0]
  001f0	eb000000	 bl          MapViewOfFile
  001f4	e58d0048	 str         r0, [sp, #0x48]
  001f8	e59d3048	 ldr         r3, [sp, #0x48]
  001fc	e58d300c	 str         r3, [sp, #0xC]

; 68   :         if (pSurface == NULL)

  00200	e59d300c	 ldr         r3, [sp, #0xC]
  00204	e3530000	 cmp         r3, #0
  00208	1a00000b	 bne         |$LN5@OMAP2420Su|

; 69   :             {
; 70   :             DEBUGMSG(GPE_ZONE_ERROR, (L"ERROR: OMAP2420Surf::OMAP730Surf: "
; 71   :                 L"MapViewOfFile failed!\r\n"
; 72   :                 ));

  0020c	e59f316c	 ldr         r3, [pc, #0x16C]
  00210	e5933440	 ldr         r3, [r3, #0x440]
  00214	e3130001	 tst         r3, #1
  00218	0a000004	 beq         |$LN15@OMAP2420Su|
  0021c	e59f0160	 ldr         r0, [pc, #0x160]
  00220	eb000000	 bl          NKDbgPrintfW
  00224	e3a03001	 mov         r3, #1
  00228	e58d304c	 str         r3, [sp, #0x4C]
  0022c	ea000001	 b           |$LN16@OMAP2420Su|
  00230		 |$LN15@OMAP2420Su|
  00230	e3a03000	 mov         r3, #0
  00234	e58d304c	 str         r3, [sp, #0x4C]
  00238		 |$LN16@OMAP2420Su|

; 73   :             goto cleanUp;

  00238	ea000037	 b           |$cleanUp$40229|
  0023c		 |$LN5@OMAP2420Su|

; 74   :             }
; 75   : 
; 76   :         if (!VirtualCopy(
; 77   :                 pSurface + PAGE_SIZE, (VOID*)(pa >> 8), size, 
; 78   :                 PAGE_READWRITE|PAGE_PHYSICAL|PAGE_NOCACHE
; 79   :                 ))

  0023c	e3a03c06	 mov         r3, #6, 24
  00240	e3833004	 orr         r3, r3, #4
  00244	e59d2014	 ldr         r2, [sp, #0x14]
  00248	e59d106c	 ldr         r1, [sp, #0x6C]
  0024c	e1a01421	 mov         r1, r1, lsr #8
  00250	e3e00b0d	 mvn         r0, #0xD, 22
  00254	e22000fb	 eor         r0, r0, #0xFB
  00258	e59de00c	 ldr         lr, [sp, #0xC]
  0025c	e5900000	 ldr         r0, [r0]
  00260	e08e0000	 add         r0, lr, r0
  00264	eb000000	 bl          VirtualCopy
  00268	e58d0050	 str         r0, [sp, #0x50]
  0026c	e59d3050	 ldr         r3, [sp, #0x50]
  00270	e3530000	 cmp         r3, #0
  00274	1a000014	 bne         |$LN3@OMAP2420Su|

; 80   :             {
; 81   :             DEBUGMSG(GPE_ZONE_ERROR, (L"ERROR: OMAPV1030GPE::MapFrameBuffer: "
; 82   :                 L"VirtualCopy failed (0x%08x, 0x%08x, 0x%08x, 0x%08x)\r\n",
; 83   :                 m_pSurface, pa >> 8, size, PAGE_READWRITE | PAGE_PHYSICAL
; 84   :                 ));

  00278	e59f3100	 ldr         r3, [pc, #0x100]
  0027c	e5933440	 ldr         r3, [r3, #0x440]
  00280	e3130001	 tst         r3, #1
  00284	0a00000d	 beq         |$LN17@OMAP2420Su|
  00288	e3a03b01	 mov         r3, #1, 22
  0028c	e3833004	 orr         r3, r3, #4
  00290	e58d3000	 str         r3, [sp]
  00294	e59d3014	 ldr         r3, [sp, #0x14]
  00298	e59d206c	 ldr         r2, [sp, #0x6C]
  0029c	e1a02422	 mov         r2, r2, lsr #8
  002a0	e59d1060	 ldr         r1, [sp, #0x60]
  002a4	e2811080	 add         r1, r1, #0x80
  002a8	e5911000	 ldr         r1, [r1]
  002ac	e59f00c8	 ldr         r0, [pc, #0xC8]
  002b0	eb000000	 bl          NKDbgPrintfW
  002b4	e3a03001	 mov         r3, #1
  002b8	e58d3054	 str         r3, [sp, #0x54]
  002bc	ea000001	 b           |$LN18@OMAP2420Su|
  002c0		 |$LN17@OMAP2420Su|
  002c0	e3a03000	 mov         r3, #0
  002c4	e58d3054	 str         r3, [sp, #0x54]
  002c8		 |$LN18@OMAP2420Su|

; 85   :             goto cleanUp;

  002c8	ea000013	 b           |$cleanUp$40229|
  002cc		 |$LN3@OMAP2420Su|

; 86   :             }
; 87   : 
; 88   :         // Adjust frame offset
; 89   :         pSurface += offset + PAGE_SIZE;

  002cc	e3e03b0d	 mvn         r3, #0xD, 22
  002d0	e22330fb	 eor         r3, r3, #0xFB
  002d4	e59d2010	 ldr         r2, [sp, #0x10]
  002d8	e5933000	 ldr         r3, [r3]
  002dc	e0822003	 add         r2, r2, r3
  002e0	e59d300c	 ldr         r3, [sp, #0xC]
  002e4	e0833002	 add         r3, r3, r2
  002e8	e58d300c	 str         r3, [sp, #0xC]

; 90   :         
; 91   :         // Save original surface address
; 92   :         m_pSurface = (UCHAR*)m_pVirtAddr;

  002ec	e59d3060	 ldr         r3, [sp, #0x60]
  002f0	e2831004	 add         r1, r3, #4
  002f4	e59d3060	 ldr         r3, [sp, #0x60]
  002f8	e2832080	 add         r2, r3, #0x80
  002fc	e5913000	 ldr         r3, [r1]
  00300	e5823000	 str         r3, [r2]

; 93   : 
; 94   :         // And replace it with mapped one...
; 95   :         m_pVirtAddr = (ADDRESS)pSurface;

  00304	e59d3060	 ldr         r3, [sp, #0x60]
  00308	e2832004	 add         r2, r3, #4
  0030c	e59d300c	 ldr         r3, [sp, #0xC]
  00310	e5823000	 str         r3, [r2]
  00314		 |$LN8@OMAP2420Su|

; 96   :         }
; 97   : 
; 98   :     rc = TRUE;

  00314	e3a03001	 mov         r3, #1
  00318	e58d3008	 str         r3, [sp, #8]
  0031c		 |$cleanUp$40229|

; 99   : 
; 100  : cleanUp:
; 101  :     if (!rc && (pSurface != NULL))

  0031c	e59d3008	 ldr         r3, [sp, #8]
  00320	e3530000	 cmp         r3, #0
  00324	1a00000e	 bne         |$LN1@OMAP2420Su|
  00328	e59d300c	 ldr         r3, [sp, #0xC]
  0032c	e3530000	 cmp         r3, #0
  00330	0a00000b	 beq         |$LN1@OMAP2420Su|

; 102  :         {
; 103  :         ADDRESS address = (ADDRESS)pSurface;

  00334	e59d300c	 ldr         r3, [sp, #0xC]
  00338	e58d3018	 str         r3, [sp, #0x18]

; 104  :         address &= ~(PAGE_SIZE - 1);

  0033c	e3e03b0d	 mvn         r3, #0xD, 22
  00340	e22330fb	 eor         r3, r3, #0xFB
  00344	e5933000	 ldr         r3, [r3]
  00348	e2433001	 sub         r3, r3, #1
  0034c	e1e02003	 mvn         r2, r3
  00350	e59d3018	 ldr         r3, [sp, #0x18]
  00354	e0033002	 and         r3, r3, r2
  00358	e58d3018	 str         r3, [sp, #0x18]

; 105  :         UnmapViewOfFile((VOID*)address);

  0035c	e59d0018	 ldr         r0, [sp, #0x18]
  00360	eb000000	 bl          UnmapViewOfFile
  00364		 |$LN1@OMAP2420Su|

; 106  :         }
; 107  : }

  00364	e59d3060	 ldr         r3, [sp, #0x60]
  00368	e58d3034	 str         r3, [sp, #0x34]
  0036c	e59d0034	 ldr         r0, [sp, #0x34]
  00370	e28dd058	 add         sp, sp, #0x58
  00374	e89d6000	 ldmia       sp, {sp, lr}
  00378	e12fff1e	 bx          lr
  0037c		 |$LN22@OMAP2420Su|
  0037c		 |$LN23@OMAP2420Su|
  0037c	00000000	 DCD         |??_C@_1LG@KEMADELE@?$AAE?$AAR?$AAR?$AAO?$AAR?$AA?3?$AA?5?$AAO?$AAM?$AAA?$AAP?$AAV?$AA1?$AA0?$AA3?$AA0?$AAG?$AAP?$AAE?$AA?3?$AA?3?$AAM?$AAa?$AAp?$AAF?$AAr?$AAa?$AAm?$AAe?$AAB?$AAu?$AAf@|
  00380		 |$LN24@OMAP2420Su|
  00380	00000000	 DCD         |dpCurSettings|
  00384		 |$LN25@OMAP2420Su|
  00384	00000000	 DCD         |??_C@_1HE@LOIJMPEH@?$AAE?$AAR?$AAR?$AAO?$AAR?$AA?3?$AA?5?$AAO?$AAM?$AAA?$AAP?$AA2?$AA4?$AA2?$AA0?$AAS?$AAu?$AAr?$AAf?$AA?3?$AA?3?$AAO?$AAM?$AAA?$AAP?$AA7?$AA3?$AA0?$AAS?$AAu?$AAr?$AAf@|
  00388		 |$LN26@OMAP2420Su|
  00388	00000000	 DCD         |??_C@_1HO@EDKMACDD@?$AAE?$AAR?$AAR?$AAO?$AAR?$AA?3?$AA?5?$AAO?$AAM?$AAA?$AAP?$AA2?$AA4?$AA2?$AA0?$AAS?$AAu?$AAr?$AAf?$AA?3?$AA?3?$AAO?$AAM?$AAA?$AAP?$AA2?$AA4?$AA2?$AA0?$AAS?$AAu?$AAr@|
  0038c		 |$LN27@OMAP2420Su|
  0038c	00000000	 DCD         |??_7OMAP2420Surf@@6B@|
  00390		 |$M40346|

			 ENDP  ; |??0OMAP2420Surf@@QAA@HHKPAXHW4EGPEFormat@@@Z|, OMAP2420Surf::OMAP2420Surf

; File c:\wince600\public\common\oak\inc\ddgpe.h

  00000			 AREA	 |.pdata|, PDATA
|$T40360| DCD	|$LN5@GetDriverD|
	DCD	0x40000c04
; Function compile flags: /Odtp

  00000			 AREA	 |.text|, CODE, ARM

  00000		 |?GetDriverData@DDGPESurf@@UAAPAUDDGPEDriverData@@XZ| PROC ; DDGPESurf::GetDriverData

; 302  : 	virtual DDGPEDriverData*		GetDriverData(void) { return m_pDriverData; }

  00000		 |$LN5@GetDriverD|
  00000	e1a0c00d	 mov         r12, sp
  00004	e92d0001	 stmdb       sp!, {r0}
  00008	e92d5000	 stmdb       sp!, {r12, lr}
  0000c	e24dd004	 sub         sp, sp, #4
  00010		 |$M40357|
  00010	e59d300c	 ldr         r3, [sp, #0xC]
  00014	e2833068	 add         r3, r3, #0x68
  00018	e5933000	 ldr         r3, [r3]
  0001c	e58d3000	 str         r3, [sp]
  00020	e59d0000	 ldr         r0, [sp]
  00024	e28dd004	 add         sp, sp, #4
  00028	e89d6000	 ldmia       sp, {sp, lr}
  0002c	e12fff1e	 bx          lr
  00030		 |$M40358|

			 ENDP  ; |?GetDriverData@DDGPESurf@@UAAPAUDDGPEDriverData@@XZ|, DDGPESurf::GetDriverData


  00000			 AREA	 |.pdata|, PDATA
|$T40367| DCD	|$LN5@SetDriverD|
	DCD	0x40000903
; Function compile flags: /Odtp

  00000			 AREA	 |.text|, CODE, ARM

  00000		 |?SetDriverData@DDGPESurf@@UAAXPAUDDGPEDriverData@@@Z| PROC ; DDGPESurf::SetDriverData

; 303  : 	virtual void					SetDriverData(DDGPEDriverData* pDriverData) { m_pDriverData = pDriverData; }

  00000		 |$LN5@SetDriverD|
  00000	e1a0c00d	 mov         r12, sp
  00004	e92d0003	 stmdb       sp!, {r0, r1}
  00008	e92d5000	 stmdb       sp!, {r12, lr}
  0000c		 |$M40364|
  0000c	e59d3008	 ldr         r3, [sp, #8]
  00010	e2832068	 add         r2, r3, #0x68
  00014	e59d300c	 ldr         r3, [sp, #0xC]
  00018	e5823000	 str         r3, [r2]
  0001c	e89d6000	 ldmia       sp, {sp, lr}
  00020	e12fff1e	 bx          lr
  00024		 |$M40365|

			 ENDP  ; |?SetDriverData@DDGPESurf@@UAAXPAUDDGPEDriverData@@@Z|, DDGPESurf::SetDriverData


  00000			 AREA	 |.pdata|, PDATA
|$T40375| DCD	|$LN5@SurfaceSiz|
	DCD	0x40000c04
; Function compile flags: /Odtp

  00000			 AREA	 |.text|, CODE, ARM

  00000		 |?SurfaceSize@DDGPESurf@@UAAHXZ| PROC	; DDGPESurf::SurfaceSize

; 304  : 	virtual int						SurfaceSize (void) { return m_dwSurfaceSize; }

  00000		 |$LN5@SurfaceSiz|
  00000	e1a0c00d	 mov         r12, sp
  00004	e92d0001	 stmdb       sp!, {r0}
  00008	e92d5000	 stmdb       sp!, {r12, lr}
  0000c	e24dd004	 sub         sp, sp, #4
  00010		 |$M40372|
  00010	e59d300c	 ldr         r3, [sp, #0xC]
  00014	e283305c	 add         r3, r3, #0x5C
  00018	e5933000	 ldr         r3, [r3]
  0001c	e58d3000	 str         r3, [sp]
  00020	e59d0000	 ldr         r0, [sp]
  00024	e28dd004	 add         sp, sp, #4
  00028	e89d6000	 ldmia       sp, {sp, lr}
  0002c	e12fff1e	 bx          lr
  00030		 |$M40373|

			 ENDP  ; |?SurfaceSize@DDGPESurf@@UAAHXZ|, DDGPESurf::SurfaceSize

	EXPORT	|??1OMAP2420Surf@@UAA@XZ|		; OMAP2420Surf::~OMAP2420Surf
	IMPORT	|??3@YAXPAX@Z|				; operator delete

  00000			 AREA	 |.pdata|, PDATA
|$T40383| DCD	|$LN6@scalar|
	DCD	0x40001104
; Function compile flags: /Odtp

  00000			 AREA	 |.text|, CODE, ARM

  00000		 |??_GOMAP2420Surf@@UAAPAXI@Z| PROC	; OMAP2420Surf::`scalar deleting destructor'
  00000		 |$LN6@scalar|
  00000	e1a0c00d	 mov         r12, sp
  00004	e92d0003	 stmdb       sp!, {r0, r1}
  00008	e92d5000	 stmdb       sp!, {r12, lr}
  0000c	e24dd004	 sub         sp, sp, #4
  00010		 |$M40380|
  00010	e59d000c	 ldr         r0, [sp, #0xC]
  00014	eb000000	 bl          |??1OMAP2420Surf@@UAA@XZ|
  00018	e59d3010	 ldr         r3, [sp, #0x10]
  0001c	e3130001	 tst         r3, #1
  00020	0a000001	 beq         |$LN1@scalar|
  00024	e59d000c	 ldr         r0, [sp, #0xC]
  00028	eb000000	 bl          |??3@YAXPAX@Z|
  0002c		 |$LN1@scalar|
  0002c	e59d300c	 ldr         r3, [sp, #0xC]
  00030	e58d3000	 str         r3, [sp]
  00034	e59d0000	 ldr         r0, [sp]
  00038	e28dd004	 add         sp, sp, #4
  0003c	e89d6000	 ldmia       sp, {sp, lr}
  00040	e12fff1e	 bx          lr
  00044		 |$M40381|

			 ENDP  ; |??_GOMAP2420Surf@@UAAPAXI@Z|, OMAP2420Surf::`scalar deleting destructor'

	IMPORT	|??1DDGPESurf@@UAA@XZ|			; DDGPESurf::~DDGPESurf
	IMPORT	|CloseHandle|

  00008			 AREA	 |.pdata|, PDATA
|$T40390| DCD	|$LN7@OMAP2420Su@2|
	DCD	0x40003504
; Function compile flags: /Odtp
; File c:\wince600\platform\common\src\soc\omap2420_ms_v1\display\omap2420surf.cpp

  00390			 AREA	 |.text|, CODE, ARM

  00390		 |??1OMAP2420Surf@@UAA@XZ| PROC		; OMAP2420Surf::~OMAP2420Surf

; 114  : {

  00390		 |$LN7@OMAP2420Su@2|
  00390	e1a0c00d	 mov         r12, sp
  00394	e92d0001	 stmdb       sp!, {r0}
  00398	e92d5000	 stmdb       sp!, {r12, lr}
  0039c	e24dd004	 sub         sp, sp, #4
  003a0		 |$M40387|
  003a0	e59f20b8	 ldr         r2, [pc, #0xB8]
  003a4	e59d300c	 ldr         r3, [sp, #0xC]
  003a8	e5832000	 str         r2, [r3]

; 115  :     // Delete surface mapping if exists
; 116  :     if (m_pSurface != NULL)

  003ac	e59d300c	 ldr         r3, [sp, #0xC]
  003b0	e2833080	 add         r3, r3, #0x80
  003b4	e5933000	 ldr         r3, [r3]
  003b8	e3530000	 cmp         r3, #0
  003bc	0a000019	 beq         |$LN2@OMAP2420Su@2|

; 117  :         {
; 118  :         ADDRESS address = m_pVirtAddr;

  003c0	e59d300c	 ldr         r3, [sp, #0xC]
  003c4	e2833004	 add         r3, r3, #4
  003c8	e5933000	 ldr         r3, [r3]
  003cc	e58d3000	 str         r3, [sp]

; 119  :         address -= PAGE_SIZE;

  003d0	e3e03b0d	 mvn         r3, #0xD, 22
  003d4	e22330fb	 eor         r3, r3, #0xFB
  003d8	e59d2000	 ldr         r2, [sp]
  003dc	e5933000	 ldr         r3, [r3]
  003e0	e0423003	 sub         r3, r2, r3
  003e4	e58d3000	 str         r3, [sp]

; 120  :         address &= ~(PAGE_SIZE - 1);

  003e8	e3e03b0d	 mvn         r3, #0xD, 22
  003ec	e22330fb	 eor         r3, r3, #0xFB
  003f0	e5933000	 ldr         r3, [r3]
  003f4	e2433001	 sub         r3, r3, #1
  003f8	e1e02003	 mvn         r2, r3
  003fc	e59d3000	 ldr         r3, [sp]
  00400	e0033002	 and         r3, r3, r2
  00404	e58d3000	 str         r3, [sp]

; 121  :         UnmapViewOfFile((VOID*)address);

  00408	e59d0000	 ldr         r0, [sp]
  0040c	eb000000	 bl          UnmapViewOfFile

; 122  :         m_pVirtAddr = (ADDRESS)m_pSurface;

  00410	e59d300c	 ldr         r3, [sp, #0xC]
  00414	e2831080	 add         r1, r3, #0x80
  00418	e59d300c	 ldr         r3, [sp, #0xC]
  0041c	e2832004	 add         r2, r3, #4
  00420	e5913000	 ldr         r3, [r1]
  00424	e5823000	 str         r3, [r2]
  00428		 |$LN2@OMAP2420Su@2|

; 123  :         }
; 124  : 
; 125  :     if (m_hSurface != NULL) CloseHandle(m_hSurface);

  00428	e59d300c	 ldr         r3, [sp, #0xC]
  0042c	e283307c	 add         r3, r3, #0x7C
  00430	e5933000	 ldr         r3, [r3]
  00434	e3530000	 cmp         r3, #0
  00438	0a000003	 beq         |$LN1@OMAP2420Su@2|
  0043c	e59d300c	 ldr         r3, [sp, #0xC]
  00440	e283307c	 add         r3, r3, #0x7C
  00444	e5930000	 ldr         r0, [r3]
  00448	eb000000	 bl          CloseHandle
  0044c		 |$LN1@OMAP2420Su@2|

; 126  : }

  0044c	e59d000c	 ldr         r0, [sp, #0xC]
  00450	eb000000	 bl          |??1DDGPESurf@@UAA@XZ|
  00454	e28dd004	 add         sp, sp, #4
  00458	e89d6000	 ldmia       sp, {sp, lr}
  0045c	e12fff1e	 bx          lr
  00460		 |$LN8@OMAP2420Su@2|
  00460		 |$LN9@OMAP2420Su@2|
  00460	00000000	 DCD         |??_7OMAP2420Surf@@6B@|
  00464		 |$M40388|

			 ENDP  ; |??1OMAP2420Surf@@UAA@XZ|, OMAP2420Surf::~OMAP2420Surf

	EXPORT	|?SurfaceOk@OMAP2420Surf@@QAAHXZ|	; OMAP2420Surf::SurfaceOk

  00010			 AREA	 |.pdata|, PDATA
|$T40400| DCD	|$LN7@SurfaceOk|
	DCD	0x40001404
; Function compile flags: /Odtp

  00464			 AREA	 |.text|, CODE, ARM

  00464		 |?SurfaceOk@OMAP2420Surf@@QAAHXZ| PROC	; OMAP2420Surf::SurfaceOk

; 139  : {

  00464		 |$LN7@SurfaceOk|
  00464	e1a0c00d	 mov         r12, sp
  00468	e92d0001	 stmdb       sp!, {r0}
  0046c	e92d5000	 stmdb       sp!, {r12, lr}
  00470	e24dd008	 sub         sp, sp, #8
  00474		 |$M40397|

; 140  :     return (m_pSurface != NULL); 

  00474	e59d3010	 ldr         r3, [sp, #0x10]
  00478	e2833080	 add         r3, r3, #0x80
  0047c	e5933000	 ldr         r3, [r3]
  00480	e3530000	 cmp         r3, #0
  00484	0a000002	 beq         |$LN3@SurfaceOk|
  00488	e3a03001	 mov         r3, #1
  0048c	e58d3004	 str         r3, [sp, #4]
  00490	ea000001	 b           |$LN4@SurfaceOk|
  00494		 |$LN3@SurfaceOk|
  00494	e3a03000	 mov         r3, #0
  00498	e58d3004	 str         r3, [sp, #4]
  0049c		 |$LN4@SurfaceOk|
  0049c	e59d3004	 ldr         r3, [sp, #4]
  004a0	e58d3000	 str         r3, [sp]

; 141  : }

  004a4	e59d0000	 ldr         r0, [sp]
  004a8	e28dd008	 add         sp, sp, #8
  004ac	e89d6000	 ldmia       sp, {sp, lr}
  004b0	e12fff1e	 bx          lr
  004b4		 |$M40398|

			 ENDP  ; |?SurfaceOk@OMAP2420Surf@@QAAHXZ|, OMAP2420Surf::SurfaceOk

	EXPORT	|?InCache@OMAP2420Surf@@QAAXXZ|		; OMAP2420Surf::InCache

  00018			 AREA	 |.pdata|, PDATA
|$T40405| DCD	|$LN5@InCache|
	DCD	0x40000903
; Function compile flags: /Odtp

  004b4			 AREA	 |.text|, CODE, ARM

  004b4		 |?InCache@OMAP2420Surf@@QAAXXZ| PROC	; OMAP2420Surf::InCache

; 152  :     ) {

  004b4		 |$LN5@InCache|
  004b4	e1a0c00d	 mov         r12, sp
  004b8	e92d0001	 stmdb       sp!, {r0}
  004bc	e92d5000	 stmdb       sp!, {r12, lr}
  004c0		 |$M40402|

; 153  :     m_inCache = TRUE; 

  004c0	e59d3008	 ldr         r3, [sp, #8]
  004c4	e2832084	 add         r2, r3, #0x84
  004c8	e3a03001	 mov         r3, #1
  004cc	e5823000	 str         r3, [r2]

; 154  :     }

  004d0	e89d6000	 ldmia       sp, {sp, lr}
  004d4	e12fff1e	 bx          lr
  004d8		 |$M40403|

			 ENDP  ; |?InCache@OMAP2420Surf@@QAAXXZ|, OMAP2420Surf::InCache

	EXPORT	|??_C@_1FK@FNONLNGN@?$AA?$CF?$AAs?$AA?3?$AA?5?$AAD?$AAE?$AAB?$AAU?$AAG?$AAC?$AAH?$AAK?$AA?5?$AAf?$AAa?$AAi?$AAl?$AAe?$AAd?$AA?5?$AAi?$AAn?$AA?5?$AAf?$AAi?$AAl?$AAe?$AA?5?$AA?$CF?$AAs?$AA?5?$AAa@| [ DATA ] ; `string'
	EXPORT	|??_C@_1BA@LEPJIIOK@?$AAU?$AAn?$AAk?$AAn?$AAo?$AAw?$AAn?$AA?$AA@| [ DATA ] ; `string'
	EXPORT	|??_C@_1JM@BHJJINPM@?$AAC?$AA?3?$AA?2?$AAW?$AAI?$AAN?$AAC?$AAE?$AA6?$AA0?$AA0?$AA?2?$AAP?$AAL?$AAA?$AAT?$AAF?$AAO?$AAR?$AAM?$AA?2?$AAC?$AAO?$AAM?$AAM?$AAO?$AAN?$AA?2?$AAS?$AAR?$AAC?$AA?2@| [ DATA ] ; `string'
	EXPORT	|?WriteBack@OMAP2420Surf@@QAAXXZ|	; OMAP2420Surf::WriteBack
	IMPORT	|CacheRangeFlush|

  00020			 AREA	 |.pdata|, PDATA
|$T40412| DCD	|$LN8@WriteBack|
	DCD	0x40002b04

  00000			 AREA	 |.rdata|, DATA, READONLY
|??_C@_1FK@FNONLNGN@?$AA?$CF?$AAs?$AA?3?$AA?5?$AAD?$AAE?$AAB?$AAU?$AAG?$AAC?$AAH?$AAK?$AA?5?$AAf?$AAa?$AAi?$AAl?$AAe?$AAd?$AA?5?$AAi?$AAn?$AA?5?$AAf?$AAi?$AAl?$AAe?$AA?5?$AA?$CF?$AAs?$AA?5?$AAa@| DCB "%"
	DCB	0x0, "s", 0x0, ":", 0x0, " ", 0x0, "D", 0x0, "E", 0x0, "B"
	DCB	0x0, "U", 0x0, "G", 0x0, "C", 0x0, "H", 0x0, "K", 0x0, " "
	DCB	0x0, "f", 0x0, "a", 0x0, "i", 0x0, "l", 0x0, "e", 0x0, "d"
	DCB	0x0, " ", 0x0, "i", 0x0, "n", 0x0, " ", 0x0, "f", 0x0, "i"
	DCB	0x0, "l", 0x0, "e", 0x0, " ", 0x0, "%", 0x0, "s", 0x0, " "
	DCB	0x0, "a", 0x0, "t", 0x0, " ", 0x0, "l", 0x0, "i", 0x0, "n"
	DCB	0x0, "e", 0x0, " ", 0x0, "%", 0x0, "d", 0x0, " ", 0x0, 0xd
	DCB	0x0, 0xa, 0x0, 0x0, 0x0			; `string'

  00000			 AREA	 |.rdata|, DATA, READONLY
|??_C@_1BA@LEPJIIOK@?$AAU?$AAn?$AAk?$AAn?$AAo?$AAw?$AAn?$AA?$AA@| DCB "U", 0x0
	DCB	"n", 0x0, "k", 0x0, "n", 0x0, "o", 0x0, "w", 0x0, "n", 0x0
	DCB	0x0, 0x0				; `string'

  00000			 AREA	 |.rdata|, DATA, READONLY
|??_C@_1JM@BHJJINPM@?$AAC?$AA?3?$AA?2?$AAW?$AAI?$AAN?$AAC?$AAE?$AA6?$AA0?$AA0?$AA?2?$AAP?$AAL?$AAA?$AAT?$AAF?$AAO?$AAR?$AAM?$AA?2?$AAC?$AAO?$AAM?$AAM?$AAO?$AAN?$AA?2?$AAS?$AAR?$AAC?$AA?2@| DCB "C"
	DCB	0x0, ":", 0x0, "\\", 0x0, "W", 0x0, "I", 0x0, "N", 0x0, "C"
	DCB	0x0, "E", 0x0, "6", 0x0, "0", 0x0, "0", 0x0, "\\", 0x0, "P"
	DCB	0x0, "L", 0x0, "A", 0x0, "T", 0x0, "F", 0x0, "O", 0x0, "R"
	DCB	0x0, "M", 0x0, "\\", 0x0, "C", 0x0, "O", 0x0, "M", 0x0, "M"
	DCB	0x0, "O", 0x0, "N", 0x0, "\\", 0x0, "S", 0x0, "R", 0x0, "C"
	DCB	0x0, "\\", 0x0, "S", 0x0, "O", 0x0, "C", 0x0, "\\", 0x0, "O"
	DCB	0x0, "M", 0x0, "A", 0x0, "P", 0x0, "2", 0x0, "4", 0x0, "2"
	DCB	0x0, "0", 0x0, "_", 0x0, "M", 0x0, "S", 0x0, "_", 0x0, "V"
	DCB	0x0, "1", 0x0, "\\", 0x0, "D", 0x0, "I", 0x0, "S", 0x0, "P"
	DCB	0x0, "L", 0x0, "A", 0x0, "Y", 0x0, "\\", 0x0, ".", 0x0, "\\"
	DCB	0x0, "o", 0x0, "m", 0x0, "a", 0x0, "p", 0x0, "2", 0x0, "4"
	DCB	0x0, "2", 0x0, "0", 0x0, "s", 0x0, "u", 0x0, "r", 0x0, "f"
	DCB	0x0, ".", 0x0, "c", 0x0, "p", 0x0, "p", 0x0, 0x0, 0x0 ; `string'
; Function compile flags: /Odtp

  004d8			 AREA	 |.text|, CODE, ARM

  004d8		 |?WriteBack@OMAP2420Surf@@QAAXXZ| PROC	; OMAP2420Surf::WriteBack

; 166  : {

  004d8		 |$LN8@WriteBack|
  004d8	e1a0c00d	 mov         r12, sp
  004dc	e92d0001	 stmdb       sp!, {r0}
  004e0	e92d5000	 stmdb       sp!, {r12, lr}
  004e4	e24dd004	 sub         sp, sp, #4
  004e8		 |$M40409|

; 167  :     ASSERT(m_pSurface != NULL);

  004e8	e59d300c	 ldr         r3, [sp, #0xC]
  004ec	e2833080	 add         r3, r3, #0x80
  004f0	e5933000	 ldr         r3, [r3]
  004f4	e3530000	 cmp         r3, #0
  004f8	0a000002	 beq         |$LN4@WriteBack|
  004fc	e3a03001	 mov         r3, #1
  00500	e58d3000	 str         r3, [sp]
  00504	ea000007	 b           |$LN5@WriteBack|
  00508		 |$LN4@WriteBack|
  00508	e3a030a7	 mov         r3, #0xA7
  0050c	e59f206c	 ldr         r2, [pc, #0x6C]
  00510	e59f1064	 ldr         r1, [pc, #0x64]
  00514	e59f005c	 ldr         r0, [pc, #0x5C]
  00518	eb000000	 bl          NKDbgPrintfW
  0051c	e6000010	 __debugbreak_ce
  00520	e3a03000	 mov         r3, #0
  00524	e58d3000	 str         r3, [sp]
  00528		 |$LN5@WriteBack|

; 168  :     if (m_pSurface != NULL)

  00528	e59d300c	 ldr         r3, [sp, #0xC]
  0052c	e2833080	 add         r3, r3, #0x80
  00530	e5933000	 ldr         r3, [r3]
  00534	e3530000	 cmp         r3, #0
  00538	0a00000b	 beq         |$LN1@WriteBack|

; 169  :         {
; 170  :         CacheRangeFlush(
; 171  :             (VOID*)m_pSurface, m_nStrideBytes * m_nHeight, CACHE_SYNC_WRITEBACK
; 172  :             );

  0053c	e3a02004	 mov         r2, #4
  00540	e59d300c	 ldr         r3, [sp, #0xC]
  00544	e2831008	 add         r1, r3, #8
  00548	e59d300c	 ldr         r3, [sp, #0xC]
  0054c	e2833030	 add         r3, r3, #0x30
  00550	e5910000	 ldr         r0, [r1]
  00554	e5933000	 ldr         r3, [r3]
  00558	e0010390	 mul         r1, r0, r3
  0055c	e59d300c	 ldr         r3, [sp, #0xC]
  00560	e2833080	 add         r3, r3, #0x80
  00564	e5930000	 ldr         r0, [r3]
  00568	eb000000	 bl          CacheRangeFlush
  0056c		 |$LN1@WriteBack|

; 173  :         }
; 174  : }

  0056c	e28dd004	 add         sp, sp, #4
  00570	e89d6000	 ldmia       sp, {sp, lr}
  00574	e12fff1e	 bx          lr
  00578		 |$LN9@WriteBack|
  00578		 |$LN10@WriteBack|
  00578	00000000	 DCD         |??_C@_1FK@FNONLNGN@?$AA?$CF?$AAs?$AA?3?$AA?5?$AAD?$AAE?$AAB?$AAU?$AAG?$AAC?$AAH?$AAK?$AA?5?$AAf?$AAa?$AAi?$AAl?$AAe?$AAd?$AA?5?$AAi?$AAn?$AA?5?$AAf?$AAi?$AAl?$AAe?$AA?5?$AA?$CF?$AAs?$AA?5?$AAa@|
  0057c		 |$LN11@WriteBack|
  0057c	00000000	 DCD         |??_C@_1BA@LEPJIIOK@?$AAU?$AAn?$AAk?$AAn?$AAo?$AAw?$AAn?$AA?$AA@|
  00580		 |$LN12@WriteBack|
  00580	00000000	 DCD         |??_C@_1JM@BHJJINPM@?$AAC?$AA?3?$AA?2?$AAW?$AAI?$AAN?$AAC?$AAE?$AA6?$AA0?$AA0?$AA?2?$AAP?$AAL?$AAA?$AAT?$AAF?$AAO?$AAR?$AAM?$AA?2?$AAC?$AAO?$AAM?$AAM?$AAO?$AAN?$AA?2?$AAS?$AAR?$AAC?$AA?2@|
  00584		 |$M40410|

			 ENDP  ; |?WriteBack@OMAP2420Surf@@QAAXXZ|, OMAP2420Surf::WriteBack

	EXPORT	|?Discard@OMAP2420Surf@@QAAXXZ|		; OMAP2420Surf::Discard

  00028			 AREA	 |.pdata|, PDATA
|$T40423| DCD	|$LN8@Discard|
	DCD	0x40003404
; Function compile flags: /Odtp

  00584			 AREA	 |.text|, CODE, ARM

  00584		 |?Discard@OMAP2420Surf@@QAAXXZ| PROC	; OMAP2420Surf::Discard

; 186  : {

  00584		 |$LN8@Discard|
  00584	e1a0c00d	 mov         r12, sp
  00588	e92d0001	 stmdb       sp!, {r0}
  0058c	e92d5000	 stmdb       sp!, {r12, lr}
  00590	e24dd004	 sub         sp, sp, #4
  00594		 |$M40420|

; 187  :     ASSERT(m_pSurface != NULL);

  00594	e59d300c	 ldr         r3, [sp, #0xC]
  00598	e2833080	 add         r3, r3, #0x80
  0059c	e5933000	 ldr         r3, [r3]
  005a0	e3530000	 cmp         r3, #0
  005a4	0a000002	 beq         |$LN4@Discard|
  005a8	e3a03001	 mov         r3, #1
  005ac	e58d3000	 str         r3, [sp]
  005b0	ea000007	 b           |$LN5@Discard|
  005b4		 |$LN4@Discard|
  005b4	e3a030bb	 mov         r3, #0xBB
  005b8	e59f2090	 ldr         r2, [pc, #0x90]
  005bc	e59f1088	 ldr         r1, [pc, #0x88]
  005c0	e59f0080	 ldr         r0, [pc, #0x80]
  005c4	eb000000	 bl          NKDbgPrintfW
  005c8	e6000010	 __debugbreak_ce
  005cc	e3a03000	 mov         r3, #0
  005d0	e58d3000	 str         r3, [sp]
  005d4		 |$LN5@Discard|

; 188  :     if ((m_inCache) && (m_pSurface != NULL))

  005d4	e59d300c	 ldr         r3, [sp, #0xC]
  005d8	e2833084	 add         r3, r3, #0x84
  005dc	e5933000	 ldr         r3, [r3]
  005e0	e3530000	 cmp         r3, #0
  005e4	0a000010	 beq         |$LN1@Discard|
  005e8	e59d300c	 ldr         r3, [sp, #0xC]
  005ec	e2833080	 add         r3, r3, #0x80
  005f0	e5933000	 ldr         r3, [r3]
  005f4	e3530000	 cmp         r3, #0
  005f8	0a00000b	 beq         |$LN1@Discard|

; 189  :         {
; 190  :         CacheRangeFlush(
; 191  :             (VOID*)m_pSurface, m_nStrideBytes * m_nHeight, CACHE_SYNC_DISCARD
; 192  :             );

  005fc	e3a02001	 mov         r2, #1
  00600	e59d300c	 ldr         r3, [sp, #0xC]
  00604	e2831008	 add         r1, r3, #8
  00608	e59d300c	 ldr         r3, [sp, #0xC]
  0060c	e2833030	 add         r3, r3, #0x30
  00610	e5910000	 ldr         r0, [r1]
  00614	e5933000	 ldr         r3, [r3]
  00618	e0010390	 mul         r1, r0, r3
  0061c	e59d300c	 ldr         r3, [sp, #0xC]
  00620	e2833080	 add         r3, r3, #0x80
  00624	e5930000	 ldr         r0, [r3]
  00628	eb000000	 bl          CacheRangeFlush
  0062c		 |$LN1@Discard|

; 193  :         }
; 194  :     m_inCache = FALSE;

  0062c	e59d300c	 ldr         r3, [sp, #0xC]
  00630	e2832084	 add         r2, r3, #0x84
  00634	e3a03000	 mov         r3, #0
  00638	e5823000	 str         r3, [r2]

; 195  : }

  0063c	e28dd004	 add         sp, sp, #4
  00640	e89d6000	 ldmia       sp, {sp, lr}
  00644	e12fff1e	 bx          lr
  00648		 |$LN9@Discard|
  00648		 |$LN10@Discard|
  00648	00000000	 DCD         |??_C@_1FK@FNONLNGN@?$AA?$CF?$AAs?$AA?3?$AA?5?$AAD?$AAE?$AAB?$AAU?$AAG?$AAC?$AAH?$AAK?$AA?5?$AAf?$AAa?$AAi?$AAl?$AAe?$AAd?$AA?5?$AAi?$AAn?$AA?5?$AAf?$AAi?$AAl?$AAe?$AA?5?$AA?$CF?$AAs?$AA?5?$AAa@|
  0064c		 |$LN11@Discard|
  0064c	00000000	 DCD         |??_C@_1BA@LEPJIIOK@?$AAU?$AAn?$AAk?$AAn?$AAo?$AAw?$AAn?$AA?$AA@|
  00650		 |$LN12@Discard|
  00650	00000000	 DCD         |??_C@_1JM@BHJJINPM@?$AAC?$AA?3?$AA?2?$AAW?$AAI?$AAN?$AAC?$AAE?$AA6?$AA0?$AA0?$AA?2?$AAP?$AAL?$AAA?$AAT?$AAF?$AAO?$AAR?$AAM?$AA?2?$AAC?$AAO?$AAM?$AAM?$AAO?$AAN?$AA?2?$AAS?$AAR?$AAC?$AA?2@|
  00654		 |$M40421|

			 ENDP  ; |?Discard@OMAP2420Surf@@QAAXXZ|, OMAP2420Surf::Discard

	END
