; Listing generated by Microsoft (R) Optimizing Compiler Version 14.01.60511.01 

	TTL	C:\WINCE600\PLATFORM\COMMON\SRC\SOC\COMMON_TI_V1\COMMON_TI\USB\USB2COM\hcddrv.cpp
	CODE32

  00000			 AREA	 |.drectve|, DRECTVE
	DCB	"-defaultlib:LIBCMT "
	DCB	"-defaultlib:OLDNAMES "

	EXPORT	|??_C@_1DK@JPBDFEOB@?$AAD?$AAE?$AAV?$AAI?$AAC?$AAE?$AA_?$AAC?$AAO?$AAN?$AAF?$AAI?$AAG?$AA_?$AAS?$AAT?$AAA?$AAT?$AAU?$AAS?$AA_?$AAI?$AAN?$AAV?$AAA?$AAL?$AAI?$AAD?$AA?$AA@| [ DATA ] ; `string'
	EXPORT	|??_C@_1DE@IMCKALLA@?$AAD?$AAE?$AAV?$AAI?$AAC?$AAE?$AA_?$AAC?$AAO?$AAN?$AAF?$AAI?$AAG?$AA_?$AAS?$AAT?$AAA?$AAT?$AAU?$AAS?$AA_?$AAD?$AAO?$AAN?$AAE?$AA?$AA@| [ DATA ] ; `string'
	EXPORT	|??_C@_1DI@CEGNOBAM@?$AAD?$AAE?$AAV?$AAI?$AAC?$AAE?$AA_?$AAC?$AAO?$AAN?$AAF?$AAI?$AAG?$AA_?$AAS?$AAT?$AAA?$AAT?$AAU?$AAS?$AA_?$AAF?$AAA?$AAI?$AAL?$AAE?$AAD?$AA?$AA@| [ DATA ] ; `string'
	EXPORT	|??_C@_1HO@PGHDEMEK@?$AAD?$AAE?$AAV?$AAI?$AAC?$AAE?$AA_?$AAC?$AAO?$AAN?$AAF?$AAI?$AAG?$AA_?$AAS?$AAT?$AAA?$AAT?$AAU?$AAS?$AA_?$AAS?$AAI?$AAG?$AAN?$AAA?$AAL?$AA_?$AAN?$AAE?$AAW?$AA_@| [ DATA ] ; `string'
	EXPORT	|??_C@_1II@FBBOBKGN@?$AAD?$AAE?$AAV?$AAI?$AAC?$AAE?$AA_?$AAC?$AAO?$AAN?$AAF?$AAI?$AAG?$AA_?$AAS?$AAT?$AAA?$AAT?$AAU?$AAS?$AA_?$AAI?$AAN?$AAS?$AAE?$AAR?$AAT?$AA_?$AAN?$AAE?$AAW?$AA_@| [ DATA ] ; `string'
	EXPORT	|??_C@_1FC@LCLFDJDO@?$AAD?$AAE?$AAV?$AAI?$AAC?$AAE?$AA_?$AAC?$AAO?$AAN?$AAF?$AAI?$AAG?$AA_?$AAS?$AAT?$AAA?$AAT?$AAU?$AAS?$AA_?$AAC?$AAR?$AAE?$AAA?$AAT?$AAE?$AA_?$AAN?$AAE?$AAW?$AA_@| [ DATA ] ; `string'
	EXPORT	|??_C@_1EI@COKEBMOE@?$AAD?$AAE?$AAV?$AAI?$AAC?$AAE?$AA_?$AAC?$AAO?$AAN?$AAF?$AAI?$AAG?$AA_?$AAS?$AAT?$AAA?$AAT?$AAU?$AAS?$AA_?$AAC?$AAR?$AAE?$AAA?$AAT?$AAE?$AA_?$AAN?$AAE?$AAW?$AA_@| [ DATA ] ; `string'
	EXPORT	|??_C@_1GG@HPGGGHKI@?$AAD?$AAE?$AAV?$AAI?$AAC?$AAE?$AA_?$AAC?$AAO?$AAN?$AAF?$AAI?$AAG?$AA_?$AAS?$AAT?$AAA?$AAT?$AAU?$AAS?$AA_?$AAS?$AAC?$AAH?$AAE?$AAD?$AAU?$AAL?$AAI?$AAN?$AAG?$AA_@| [ DATA ] ; `string'
	EXPORT	|??_C@_1HG@KPBCOGEF@?$AAD?$AAE?$AAV?$AAI?$AAC?$AAE?$AA_?$AAC?$AAO?$AAN?$AAF?$AAI?$AAG?$AA_?$AAS?$AAT?$AAA?$AAT?$AAU?$AAS?$AA_?$AAS?$AAC?$AAH?$AAE?$AAD?$AAU?$AAL?$AAI?$AAN?$AAG?$AA_@| [ DATA ] ; `string'
	EXPORT	|??_C@_1FG@CFFAAPDL@?$AAD?$AAE?$AAV?$AAI?$AAC?$AAE?$AA_?$AAC?$AAO?$AAN?$AAF?$AAI?$AAG?$AA_?$AAS?$AAT?$AAA?$AAT?$AAU?$AAS?$AA_?$AAS?$AAC?$AAH?$AAE?$AAD?$AAU?$AAL?$AAI?$AAN?$AAG?$AA_@| [ DATA ] ; `string'
	EXPORT	|??_C@_1GA@NDHJOKMM@?$AAD?$AAE?$AAV?$AAI?$AAC?$AAE?$AA_?$AAC?$AAO?$AAN?$AAF?$AAI?$AAG?$AA_?$AAS?$AAT?$AAA?$AAT?$AAU?$AAS?$AA_?$AAD?$AAE?$AAT?$AAE?$AAR?$AAM?$AAI?$AAN?$AAE?$AA_?$AAC@| [ DATA ] ; `string'
	EXPORT	|??_C@_1GM@JADKDKDC@?$AAD?$AAE?$AAV?$AAI?$AAC?$AAE?$AA_?$AAC?$AAO?$AAN?$AAF?$AAI?$AAG?$AA_?$AAS?$AAT?$AAA?$AAT?$AAU?$AAS?$AA_?$AAS?$AAC?$AAH?$AAE?$AAD?$AAU?$AAL?$AAI?$AAN?$AAG?$AA_@| [ DATA ] ; `string'
	EXPORT	|??_C@_1HM@NPLCKJLH@?$AAD?$AAE?$AAV?$AAI?$AAC?$AAE?$AA_?$AAC?$AAO?$AAN?$AAF?$AAI?$AAG?$AA_?$AAS?$AAT?$AAA?$AAT?$AAU?$AAS?$AA_?$AAS?$AAC?$AAH?$AAE?$AAD?$AAU?$AAL?$AAI?$AAN?$AAG?$AA_@| [ DATA ] ; `string'
	EXPORT	|??_C@_1HE@MEMGEMJJ@?$AAD?$AAE?$AAV?$AAI?$AAC?$AAE?$AA_?$AAC?$AAO?$AAN?$AAF?$AAI?$AAG?$AA_?$AAS?$AAT?$AAA?$AAT?$AAU?$AAS?$AA_?$AAS?$AAE?$AAT?$AAU?$AAP?$AA_?$AAC?$AAO?$AAN?$AAF?$AAI@| [ DATA ] ; `string'
	EXPORT	|??_C@_1GM@BCHKIAPP@?$AAD?$AAE?$AAV?$AAI?$AAC?$AAE?$AA_?$AAC?$AAO?$AAN?$AAF?$AAI?$AAG?$AA_?$AAS?$AAT?$AAA?$AAT?$AAU?$AAS?$AA_?$AAS?$AAC?$AAH?$AAE?$AAD?$AAU?$AAL?$AAI?$AAN?$AAG?$AA_@| [ DATA ] ; `string'
	EXPORT	|??_C@_1HM@FNPCBDHK@?$AAD?$AAE?$AAV?$AAI?$AAC?$AAE?$AA_?$AAC?$AAO?$AAN?$AAF?$AAI?$AAG?$AA_?$AAS?$AAT?$AAA?$AAT?$AAU?$AAS?$AA_?$AAS?$AAC?$AAH?$AAE?$AAD?$AAU?$AAL?$AAI?$AAN?$AAG?$AA_@| [ DATA ] ; `string'
	EXPORT	|??_C@_1EI@BBOOKHNN@?$AAD?$AAE?$AAV?$AAI?$AAC?$AAE?$AA_?$AAC?$AAO?$AAN?$AAF?$AAI?$AAG?$AA_?$AAS?$AAT?$AAA?$AAT?$AAU?$AAS?$AA_?$AAL?$AAE?$AAA?$AAV?$AAE?$AA_?$AAA?$AAD?$AAD?$AAR?$AAE@| [ DATA ] ; `string'
	EXPORT	|??_C@_1FI@LGLHPFAK@?$AAD?$AAE?$AAV?$AAI?$AAC?$AAE?$AA_?$AAC?$AAO?$AAN?$AAF?$AAI?$AAG?$AA_?$AAS?$AAT?$AAA?$AAT?$AAU?$AAS?$AA_?$AAS?$AAC?$AAH?$AAE?$AAD?$AAU?$AAL?$AAI?$AAN?$AAG?$AA_@| [ DATA ] ; `string'
	EXPORT	|??_C@_1HG@BLNLBKIO@?$AAD?$AAE?$AAV?$AAI?$AAC?$AAE?$AA_?$AAC?$AAO?$AAN?$AAF?$AAI?$AAG?$AA_?$AAS?$AAT?$AAA?$AAT?$AAU?$AAS?$AA_?$AAS?$AAC?$AAH?$AAE?$AAD?$AAU?$AAL?$AAI?$AAN?$AAG?$AA_@| [ DATA ] ; `string'
	EXPORT	|??_C@_1FG@NMCKCJLL@?$AAD?$AAE?$AAV?$AAI?$AAC?$AAE?$AA_?$AAC?$AAO?$AAN?$AAF?$AAI?$AAG?$AA_?$AAS?$AAT?$AAA?$AAT?$AAU?$AAS?$AA_?$AAR?$AAE?$AAS?$AAE?$AAT?$AA_?$AAA?$AAN?$AAD?$AA_?$AAE@| [ DATA ] ; `string'
	EXPORT	|??_C@_1EI@KNOIBOPH@?$AAD?$AAE?$AAV?$AAI?$AAC?$AAE?$AA_?$AAC?$AAO?$AAN?$AAF?$AAI?$AAG?$AA_?$AAS?$AAT?$AAA?$AAT?$AAU?$AAS?$AA_?$AAU?$AAS?$AAI?$AAN?$AAG?$AA_?$AAA?$AAD?$AAD?$AAR?$AAE@| [ DATA ] ; `string'
	EXPORT	|??_C@_1FI@COMJHLEF@?$AAD?$AAE?$AAV?$AAI?$AAC?$AAE?$AA_?$AAC?$AAO?$AAN?$AAF?$AAI?$AAG?$AA_?$AAS?$AAT?$AAA?$AAT?$AAU?$AAS?$AA_?$AAO?$AAP?$AAE?$AAN?$AAI?$AAN?$AAG?$AA_?$AAE?$AAN?$AAD@| [ DATA ] ; `string'
	EXPORT	|?g_CSection@@3UCRITICAL_SECTION@@A| [ DATA ] ; g_CSection
	EXPORT	|g_IstThreadPriority| [ DATA ]
	EXPORT	|dpCurSettings| [ DATA ]
	EXPORT	|g_dwContext| [ DATA ]
	EXPORT	|?gc_HcdFuncs@@3U_HCD_FUNCS@@A| [ DATA ] ; gc_HcdFuncs

  00000			 AREA	 |.bss|, NOINIT
|?g_CSection@@3UCRITICAL_SECTION@@A| % 0x14		; g_CSection
|g_IstThreadPriority| % 0x4
|g_dwContext| %	0x4

  00000			 AREA	 |.data|, DATA
|cszCfgStateStrings| DCD |??_C@_1FI@COMJHLEF@?$AAD?$AAE?$AAV?$AAI?$AAC?$AAE?$AA_?$AAC?$AAO?$AAN?$AAF?$AAI?$AAG?$AA_?$AAS?$AAT?$AAA?$AAT?$AAU?$AAS?$AA_?$AAO?$AAP?$AAE?$AAN?$AAI?$AAN?$AAG?$AA_?$AAE?$AAN?$AAD@|
	DCD	|??_C@_1EI@KNOIBOPH@?$AAD?$AAE?$AAV?$AAI?$AAC?$AAE?$AA_?$AAC?$AAO?$AAN?$AAF?$AAI?$AAG?$AA_?$AAS?$AAT?$AAA?$AAT?$AAU?$AAS?$AA_?$AAU?$AAS?$AAI?$AAN?$AAG?$AA_?$AAA?$AAD?$AAD?$AAR?$AAE@|
	DCD	|??_C@_1FG@NMCKCJLL@?$AAD?$AAE?$AAV?$AAI?$AAC?$AAE?$AA_?$AAC?$AAO?$AAN?$AAF?$AAI?$AAG?$AA_?$AAS?$AAT?$AAA?$AAT?$AAU?$AAS?$AA_?$AAR?$AAE?$AAS?$AAE?$AAT?$AA_?$AAA?$AAN?$AAD?$AA_?$AAE@|
	DCD	|??_C@_1HG@BLNLBKIO@?$AAD?$AAE?$AAV?$AAI?$AAC?$AAE?$AA_?$AAC?$AAO?$AAN?$AAF?$AAI?$AAG?$AA_?$AAS?$AAT?$AAA?$AAT?$AAU?$AAS?$AA_?$AAS?$AAC?$AAH?$AAE?$AAD?$AAU?$AAL?$AAI?$AAN?$AAG?$AA_@|
	DCD	|??_C@_1FI@LGLHPFAK@?$AAD?$AAE?$AAV?$AAI?$AAC?$AAE?$AA_?$AAC?$AAO?$AAN?$AAF?$AAI?$AAG?$AA_?$AAS?$AAT?$AAA?$AAT?$AAU?$AAS?$AA_?$AAS?$AAC?$AAH?$AAE?$AAD?$AAU?$AAL?$AAI?$AAN?$AAG?$AA_@|
	DCD	|??_C@_1EI@BBOOKHNN@?$AAD?$AAE?$AAV?$AAI?$AAC?$AAE?$AA_?$AAC?$AAO?$AAN?$AAF?$AAI?$AAG?$AA_?$AAS?$AAT?$AAA?$AAT?$AAU?$AAS?$AA_?$AAL?$AAE?$AAA?$AAV?$AAE?$AA_?$AAA?$AAD?$AAD?$AAR?$AAE@|
	DCD	|??_C@_1HM@FNPCBDHK@?$AAD?$AAE?$AAV?$AAI?$AAC?$AAE?$AA_?$AAC?$AAO?$AAN?$AAF?$AAI?$AAG?$AA_?$AAS?$AAT?$AAA?$AAT?$AAU?$AAS?$AA_?$AAS?$AAC?$AAH?$AAE?$AAD?$AAU?$AAL?$AAI?$AAN?$AAG?$AA_@|
	DCD	|??_C@_1GM@BCHKIAPP@?$AAD?$AAE?$AAV?$AAI?$AAC?$AAE?$AA_?$AAC?$AAO?$AAN?$AAF?$AAI?$AAG?$AA_?$AAS?$AAT?$AAA?$AAT?$AAU?$AAS?$AA_?$AAS?$AAC?$AAH?$AAE?$AAD?$AAU?$AAL?$AAI?$AAN?$AAG?$AA_@|
	DCD	|??_C@_1HE@MEMGEMJJ@?$AAD?$AAE?$AAV?$AAI?$AAC?$AAE?$AA_?$AAC?$AAO?$AAN?$AAF?$AAI?$AAG?$AA_?$AAS?$AAT?$AAA?$AAT?$AAU?$AAS?$AA_?$AAS?$AAE?$AAT?$AAU?$AAP?$AA_?$AAC?$AAO?$AAN?$AAF?$AAI@|
	DCD	|??_C@_1HM@NPLCKJLH@?$AAD?$AAE?$AAV?$AAI?$AAC?$AAE?$AA_?$AAC?$AAO?$AAN?$AAF?$AAI?$AAG?$AA_?$AAS?$AAT?$AAA?$AAT?$AAU?$AAS?$AA_?$AAS?$AAC?$AAH?$AAE?$AAD?$AAU?$AAL?$AAI?$AAN?$AAG?$AA_@|
	DCD	|??_C@_1GM@JADKDKDC@?$AAD?$AAE?$AAV?$AAI?$AAC?$AAE?$AA_?$AAC?$AAO?$AAN?$AAF?$AAI?$AAG?$AA_?$AAS?$AAT?$AAA?$AAT?$AAU?$AAS?$AA_?$AAS?$AAC?$AAH?$AAE?$AAD?$AAU?$AAL?$AAI?$AAN?$AAG?$AA_@|
	DCD	|??_C@_1GA@NDHJOKMM@?$AAD?$AAE?$AAV?$AAI?$AAC?$AAE?$AA_?$AAC?$AAO?$AAN?$AAF?$AAI?$AAG?$AA_?$AAS?$AAT?$AAA?$AAT?$AAU?$AAS?$AA_?$AAD?$AAE?$AAT?$AAE?$AAR?$AAM?$AAI?$AAN?$AAE?$AA_?$AAC@|
	DCD	|??_C@_1FG@CFFAAPDL@?$AAD?$AAE?$AAV?$AAI?$AAC?$AAE?$AA_?$AAC?$AAO?$AAN?$AAF?$AAI?$AAG?$AA_?$AAS?$AAT?$AAA?$AAT?$AAU?$AAS?$AA_?$AAS?$AAC?$AAH?$AAE?$AAD?$AAU?$AAL?$AAI?$AAN?$AAG?$AA_@|
	DCD	|??_C@_1HG@KPBCOGEF@?$AAD?$AAE?$AAV?$AAI?$AAC?$AAE?$AA_?$AAC?$AAO?$AAN?$AAF?$AAI?$AAG?$AA_?$AAS?$AAT?$AAA?$AAT?$AAU?$AAS?$AA_?$AAS?$AAC?$AAH?$AAE?$AAD?$AAU?$AAL?$AAI?$AAN?$AAG?$AA_@|
	DCD	|??_C@_1GG@HPGGGHKI@?$AAD?$AAE?$AAV?$AAI?$AAC?$AAE?$AA_?$AAC?$AAO?$AAN?$AAF?$AAI?$AAG?$AA_?$AAS?$AAT?$AAA?$AAT?$AAU?$AAS?$AA_?$AAS?$AAC?$AAH?$AAE?$AAD?$AAU?$AAL?$AAI?$AAN?$AAG?$AA_@|
	DCD	|??_C@_1EI@COKEBMOE@?$AAD?$AAE?$AAV?$AAI?$AAC?$AAE?$AA_?$AAC?$AAO?$AAN?$AAF?$AAI?$AAG?$AA_?$AAS?$AAT?$AAA?$AAT?$AAU?$AAS?$AA_?$AAC?$AAR?$AAE?$AAA?$AAT?$AAE?$AA_?$AAN?$AAE?$AAW?$AA_@|
	DCD	|??_C@_1FC@LCLFDJDO@?$AAD?$AAE?$AAV?$AAI?$AAC?$AAE?$AA_?$AAC?$AAO?$AAN?$AAF?$AAI?$AAG?$AA_?$AAS?$AAT?$AAA?$AAT?$AAU?$AAS?$AA_?$AAC?$AAR?$AAE?$AAA?$AAT?$AAE?$AA_?$AAN?$AAE?$AAW?$AA_@|
	DCD	|??_C@_1II@FBBOBKGN@?$AAD?$AAE?$AAV?$AAI?$AAC?$AAE?$AA_?$AAC?$AAO?$AAN?$AAF?$AAI?$AAG?$AA_?$AAS?$AAT?$AAA?$AAT?$AAU?$AAS?$AA_?$AAI?$AAN?$AAS?$AAE?$AAR?$AAT?$AA_?$AAN?$AAE?$AAW?$AA_@|
	DCD	|??_C@_1HO@PGHDEMEK@?$AAD?$AAE?$AAV?$AAI?$AAC?$AAE?$AA_?$AAC?$AAO?$AAN?$AAF?$AAI?$AAG?$AA_?$AAS?$AAT?$AAA?$AAT?$AAU?$AAS?$AA_?$AAS?$AAI?$AAG?$AAN?$AAA?$AAL?$AA_?$AAN?$AAE?$AAW?$AA_@|
	DCD	|??_C@_1DI@CEGNOBAM@?$AAD?$AAE?$AAV?$AAI?$AAC?$AAE?$AA_?$AAC?$AAO?$AAN?$AAF?$AAI?$AAG?$AA_?$AAS?$AAT?$AAA?$AAT?$AAU?$AAS?$AA_?$AAF?$AAA?$AAI?$AAL?$AAE?$AAD?$AA?$AA@|
	DCD	|??_C@_1DE@IMCKALLA@?$AAD?$AAE?$AAV?$AAI?$AAC?$AAE?$AA_?$AAC?$AAO?$AAN?$AAF?$AAI?$AAG?$AA_?$AAS?$AAT?$AAA?$AAT?$AAU?$AAS?$AA_?$AAD?$AAO?$AAN?$AAE?$AA?$AA@|
	DCD	|??_C@_1DK@JPBDFEOB@?$AAD?$AAE?$AAV?$AAI?$AAC?$AAE?$AA_?$AAC?$AAO?$AAN?$AAF?$AAI?$AAG?$AA_?$AAS?$AAT?$AAA?$AAT?$AAU?$AAS?$AA_?$AAI?$AAN?$AAV?$AAA?$AAL?$AAI?$AAD?$AA?$AA@|
|dpCurSettings| DCB "U", 0x0, "S", 0x0, "B", 0x0, " ", 0x0, "H", 0x0, "C", 0x0
	DCB	"D", 0x0, 0x0, 0x0
	%	48
	DCB	"U", 0x0, "h", 0x0, "c", 0x0, "d", 0x0, 0x0, 0x0
	%	54
	DCB	"I", 0x0, "n", 0x0, "i", 0x0, "t", 0x0, 0x0, 0x0
	%	54
	DCB	"R", 0x0, "e", 0x0, "g", 0x0, "i", 0x0, "s", 0x0, "t", 0x0
	DCB	"e", 0x0, "r", 0x0, "s", 0x0, 0x0, 0x0
	%	44
	DCB	"H", 0x0, "u", 0x0, "b", 0x0, 0x0, 0x0
	%	56
	DCB	"A", 0x0, "t", 0x0, "t", 0x0, "a", 0x0, "c", 0x0, "h", 0x0
	DCB	0x0, 0x0
	%	50
	DCB	"D", 0x0, "e", 0x0, "s", 0x0, "c", 0x0, "r", 0x0, "i", 0x0
	DCB	"p", 0x0, "t", 0x0, "o", 0x0, "r", 0x0, "s", 0x0, 0x0, 0x0
	%	40
	DCB	"F", 0x0, "u", 0x0, "n", 0x0, "c", 0x0, "t", 0x0, "i", 0x0
	DCB	"o", 0x0, "n", 0x0, 0x0, 0x0
	%	46
	DCB	"P", 0x0, "i", 0x0, "p", 0x0, "e", 0x0, 0x0, 0x0
	%	54
	DCB	"T", 0x0, "r", 0x0, "a", 0x0, "n", 0x0, "s", 0x0, "f", 0x0
	DCB	"e", 0x0, "r", 0x0, 0x0, 0x0
	%	46
	DCB	"Q", 0x0, "H", 0x0, 0x0, 0x0
	%	58
	DCB	"T", 0x0, "D", 0x0, 0x0, 0x0
	%	58
	DCB	"C", 0x0, "P", 0x0, "h", 0x0, "y", 0x0, "s", 0x0, "M", 0x0
	DCB	"e", 0x0, "m", 0x0, 0x0, 0x0
	%	46
	DCB	"V", 0x0, "e", 0x0, "r", 0x0, "b", 0x0, "o", 0x0, "s", 0x0
	DCB	"e", 0x0, 0x0, 0x0
	%	48
	DCB	"W", 0x0, "a", 0x0, "r", 0x0, "n", 0x0, "i", 0x0, "n", 0x0
	DCB	"g", 0x0, 0x0, 0x0
	%	48
	DCB	"E", 0x0, "r", 0x0, "r", 0x0, "o", 0x0, "r", 0x0, 0x0, 0x0
	%	52
	DCB	"U", 0x0, "n", 0x0, "u", 0x0, "s", 0x0, "e", 0x0, "d", 0x0
	DCB	0x0, 0x0
	%	50
	DCD	0x6012
|?gc_HcdFuncs@@3U_HCD_FUNCS@@A| DCD 0x34		; gc_HcdFuncs
	DCD	|HcdGetFrameNumber|
	DCD	|HcdGetFrameLength|
	DCD	|HcdSetFrameLength|
	DCD	|HcdStopAdjustingFrame|
	DCD	|HcdOpenPipe|
	DCD	|HcdClosePipe|
	DCD	|HcdResetPipe|
	DCD	|HcdIsPipeHalted|
	DCD	|HcdIssueTransfer|
	DCD	|HcdAbortTransfer|
	DCD	|HcdDisableDevice|
	DCD	|HcdSuspendResume|

  00000			 AREA	 |.rdata|, DATA, READONLY
|??_C@_1DK@JPBDFEOB@?$AAD?$AAE?$AAV?$AAI?$AAC?$AAE?$AA_?$AAC?$AAO?$AAN?$AAF?$AAI?$AAG?$AA_?$AAS?$AAT?$AAA?$AAT?$AAU?$AAS?$AA_?$AAI?$AAN?$AAV?$AAA?$AAL?$AAI?$AAD?$AA?$AA@| DCB "D"
	DCB	0x0, "E", 0x0, "V", 0x0, "I", 0x0, "C", 0x0, "E", 0x0, "_"
	DCB	0x0, "C", 0x0, "O", 0x0, "N", 0x0, "F", 0x0, "I", 0x0, "G"
	DCB	0x0, "_", 0x0, "S", 0x0, "T", 0x0, "A", 0x0, "T", 0x0, "U"
	DCB	0x0, "S", 0x0, "_", 0x0, "I", 0x0, "N", 0x0, "V", 0x0, "A"
	DCB	0x0, "L", 0x0, "I", 0x0, "D", 0x0, 0x0, 0x0 ; `string'

  00000			 AREA	 |.rdata|, DATA, READONLY
|??_C@_1DE@IMCKALLA@?$AAD?$AAE?$AAV?$AAI?$AAC?$AAE?$AA_?$AAC?$AAO?$AAN?$AAF?$AAI?$AAG?$AA_?$AAS?$AAT?$AAA?$AAT?$AAU?$AAS?$AA_?$AAD?$AAO?$AAN?$AAE?$AA?$AA@| DCB "D"
	DCB	0x0, "E", 0x0, "V", 0x0, "I", 0x0, "C", 0x0, "E", 0x0, "_"
	DCB	0x0, "C", 0x0, "O", 0x0, "N", 0x0, "F", 0x0, "I", 0x0, "G"
	DCB	0x0, "_", 0x0, "S", 0x0, "T", 0x0, "A", 0x0, "T", 0x0, "U"
	DCB	0x0, "S", 0x0, "_", 0x0, "D", 0x0, "O", 0x0, "N", 0x0, "E"
	DCB	0x0, 0x0, 0x0				; `string'

  00000			 AREA	 |.rdata|, DATA, READONLY
|??_C@_1DI@CEGNOBAM@?$AAD?$AAE?$AAV?$AAI?$AAC?$AAE?$AA_?$AAC?$AAO?$AAN?$AAF?$AAI?$AAG?$AA_?$AAS?$AAT?$AAA?$AAT?$AAU?$AAS?$AA_?$AAF?$AAA?$AAI?$AAL?$AAE?$AAD?$AA?$AA@| DCB "D"
	DCB	0x0, "E", 0x0, "V", 0x0, "I", 0x0, "C", 0x0, "E", 0x0, "_"
	DCB	0x0, "C", 0x0, "O", 0x0, "N", 0x0, "F", 0x0, "I", 0x0, "G"
	DCB	0x0, "_", 0x0, "S", 0x0, "T", 0x0, "A", 0x0, "T", 0x0, "U"
	DCB	0x0, "S", 0x0, "_", 0x0, "F", 0x0, "A", 0x0, "I", 0x0, "L"
	DCB	0x0, "E", 0x0, "D", 0x0, 0x0, 0x0	; `string'

  00000			 AREA	 |.rdata|, DATA, READONLY
|??_C@_1HO@PGHDEMEK@?$AAD?$AAE?$AAV?$AAI?$AAC?$AAE?$AA_?$AAC?$AAO?$AAN?$AAF?$AAI?$AAG?$AA_?$AAS?$AAT?$AAA?$AAT?$AAU?$AAS?$AA_?$AAS?$AAI?$AAG?$AAN?$AAA?$AAL?$AA_?$AAN?$AAE?$AAW?$AA_@| DCB "D"
	DCB	0x0, "E", 0x0, "V", 0x0, "I", 0x0, "C", 0x0, "E", 0x0, "_"
	DCB	0x0, "C", 0x0, "O", 0x0, "N", 0x0, "F", 0x0, "I", 0x0, "G"
	DCB	0x0, "_", 0x0, "S", 0x0, "T", 0x0, "A", 0x0, "T", 0x0, "U"
	DCB	0x0, "S", 0x0, "_", 0x0, "S", 0x0, "I", 0x0, "G", 0x0, "N"
	DCB	0x0, "A", 0x0, "L", 0x0, "_", 0x0, "N", 0x0, "E", 0x0, "W"
	DCB	0x0, "_", 0x0, "D", 0x0, "E", 0x0, "V", 0x0, "I", 0x0, "C"
	DCB	0x0, "E", 0x0, "_", 0x0, "E", 0x0, "N", 0x0, "T", 0x0, "E"
	DCB	0x0, "R", 0x0, "_", 0x0, "O", 0x0, "P", 0x0, "E", 0x0, "R"
	DCB	0x0, "A", 0x0, "T", 0x0, "I", 0x0, "O", 0x0, "N", 0x0, "A"
	DCB	0x0, "L", 0x0, "_", 0x0, "S", 0x0, "T", 0x0, "A", 0x0, "T"
	DCB	0x0, "E", 0x0, 0x0, 0x0			; `string'

  00000			 AREA	 |.rdata|, DATA, READONLY
|??_C@_1II@FBBOBKGN@?$AAD?$AAE?$AAV?$AAI?$AAC?$AAE?$AA_?$AAC?$AAO?$AAN?$AAF?$AAI?$AAG?$AA_?$AAS?$AAT?$AAA?$AAT?$AAU?$AAS?$AA_?$AAI?$AAN?$AAS?$AAE?$AAR?$AAT?$AA_?$AAN?$AAE?$AAW?$AA_@| DCB "D"
	DCB	0x0, "E", 0x0, "V", 0x0, "I", 0x0, "C", 0x0, "E", 0x0, "_"
	DCB	0x0, "C", 0x0, "O", 0x0, "N", 0x0, "F", 0x0, "I", 0x0, "G"
	DCB	0x0, "_", 0x0, "S", 0x0, "T", 0x0, "A", 0x0, "T", 0x0, "U"
	DCB	0x0, "S", 0x0, "_", 0x0, "I", 0x0, "N", 0x0, "S", 0x0, "E"
	DCB	0x0, "R", 0x0, "T", 0x0, "_", 0x0, "N", 0x0, "E", 0x0, "W"
	DCB	0x0, "_", 0x0, "D", 0x0, "E", 0x0, "V", 0x0, "I", 0x0, "C"
	DCB	0x0, "E", 0x0, "_", 0x0, "I", 0x0, "N", 0x0, "T", 0x0, "O"
	DCB	0x0, "_", 0x0, "U", 0x0, "P", 0x0, "S", 0x0, "T", 0x0, "R"
	DCB	0x0, "E", 0x0, "A", 0x0, "M", 0x0, "_", 0x0, "H", 0x0, "U"
	DCB	0x0, "B", 0x0, "_", 0x0, "P", 0x0, "O", 0x0, "R", 0x0, "T"
	DCB	0x0, "_", 0x0, "A", 0x0, "R", 0x0, "R", 0x0, "A", 0x0, "Y"
	DCB	0x0, 0x0, 0x0				; `string'

  00000			 AREA	 |.rdata|, DATA, READONLY
|??_C@_1FC@LCLFDJDO@?$AAD?$AAE?$AAV?$AAI?$AAC?$AAE?$AA_?$AAC?$AAO?$AAN?$AAF?$AAI?$AAG?$AA_?$AAS?$AAT?$AAA?$AAT?$AAU?$AAS?$AA_?$AAC?$AAR?$AAE?$AAA?$AAT?$AAE?$AA_?$AAN?$AAE?$AAW?$AA_@| DCB "D"
	DCB	0x0, "E", 0x0, "V", 0x0, "I", 0x0, "C", 0x0, "E", 0x0, "_"
	DCB	0x0, "C", 0x0, "O", 0x0, "N", 0x0, "F", 0x0, "I", 0x0, "G"
	DCB	0x0, "_", 0x0, "S", 0x0, "T", 0x0, "A", 0x0, "T", 0x0, "U"
	DCB	0x0, "S", 0x0, "_", 0x0, "C", 0x0, "R", 0x0, "E", 0x0, "A"
	DCB	0x0, "T", 0x0, "E", 0x0, "_", 0x0, "N", 0x0, "E", 0x0, "W"
	DCB	0x0, "_", 0x0, "F", 0x0, "U", 0x0, "N", 0x0, "C", 0x0, "T"
	DCB	0x0, "I", 0x0, "O", 0x0, "N", 0x0, 0x0, 0x0 ; `string'

  00000			 AREA	 |.rdata|, DATA, READONLY
|??_C@_1EI@COKEBMOE@?$AAD?$AAE?$AAV?$AAI?$AAC?$AAE?$AA_?$AAC?$AAO?$AAN?$AAF?$AAI?$AAG?$AA_?$AAS?$AAT?$AAA?$AAT?$AAU?$AAS?$AA_?$AAC?$AAR?$AAE?$AAA?$AAT?$AAE?$AA_?$AAN?$AAE?$AAW?$AA_@| DCB "D"
	DCB	0x0, "E", 0x0, "V", 0x0, "I", 0x0, "C", 0x0, "E", 0x0, "_"
	DCB	0x0, "C", 0x0, "O", 0x0, "N", 0x0, "F", 0x0, "I", 0x0, "G"
	DCB	0x0, "_", 0x0, "S", 0x0, "T", 0x0, "A", 0x0, "T", 0x0, "U"
	DCB	0x0, "S", 0x0, "_", 0x0, "C", 0x0, "R", 0x0, "E", 0x0, "A"
	DCB	0x0, "T", 0x0, "E", 0x0, "_", 0x0, "N", 0x0, "E", 0x0, "W"
	DCB	0x0, "_", 0x0, "H", 0x0, "U", 0x0, "B", 0x0, 0x0, 0x0 ; `string'

  00000			 AREA	 |.rdata|, DATA, READONLY
|??_C@_1GG@HPGGGHKI@?$AAD?$AAE?$AAV?$AAI?$AAC?$AAE?$AA_?$AAC?$AAO?$AAN?$AAF?$AAI?$AAG?$AA_?$AAS?$AAT?$AAA?$AAT?$AAU?$AAS?$AA_?$AAS?$AAC?$AAH?$AAE?$AAD?$AAU?$AAL?$AAI?$AAN?$AAG?$AA_@| DCB "D"
	DCB	0x0, "E", 0x0, "V", 0x0, "I", 0x0, "C", 0x0, "E", 0x0, "_"
	DCB	0x0, "C", 0x0, "O", 0x0, "N", 0x0, "F", 0x0, "I", 0x0, "G"
	DCB	0x0, "_", 0x0, "S", 0x0, "T", 0x0, "A", 0x0, "T", 0x0, "U"
	DCB	0x0, "S", 0x0, "_", 0x0, "S", 0x0, "C", 0x0, "H", 0x0, "E"
	DCB	0x0, "D", 0x0, "U", 0x0, "L", 0x0, "I", 0x0, "N", 0x0, "G"
	DCB	0x0, "_", 0x0, "G", 0x0, "E", 0x0, "T", 0x0, "_", 0x0, "H"
	DCB	0x0, "U", 0x0, "B", 0x0, "_", 0x0, "D", 0x0, "E", 0x0, "S"
	DCB	0x0, "C", 0x0, "R", 0x0, "I", 0x0, "P", 0x0, "T", 0x0, "O"
	DCB	0x0, "R", 0x0, 0x0, 0x0			; `string'

  00000			 AREA	 |.rdata|, DATA, READONLY
|??_C@_1HG@KPBCOGEF@?$AAD?$AAE?$AAV?$AAI?$AAC?$AAE?$AA_?$AAC?$AAO?$AAN?$AAF?$AAI?$AAG?$AA_?$AAS?$AAT?$AAA?$AAT?$AAU?$AAS?$AA_?$AAS?$AAC?$AAH?$AAE?$AAD?$AAU?$AAL?$AAI?$AAN?$AAG?$AA_@| DCB "D"
	DCB	0x0, "E", 0x0, "V", 0x0, "I", 0x0, "C", 0x0, "E", 0x0, "_"
	DCB	0x0, "C", 0x0, "O", 0x0, "N", 0x0, "F", 0x0, "I", 0x0, "G"
	DCB	0x0, "_", 0x0, "S", 0x0, "T", 0x0, "A", 0x0, "T", 0x0, "U"
	DCB	0x0, "S", 0x0, "_", 0x0, "S", 0x0, "C", 0x0, "H", 0x0, "E"
	DCB	0x0, "D", 0x0, "U", 0x0, "L", 0x0, "I", 0x0, "N", 0x0, "G"
	DCB	0x0, "_", 0x0, "G", 0x0, "E", 0x0, "T", 0x0, "_", 0x0, "I"
	DCB	0x0, "N", 0x0, "I", 0x0, "T", 0x0, "I", 0x0, "A", 0x0, "L"
	DCB	0x0, "_", 0x0, "H", 0x0, "U", 0x0, "B", 0x0, "_", 0x0, "D"
	DCB	0x0, "E", 0x0, "S", 0x0, "C", 0x0, "R", 0x0, "I", 0x0, "P"
	DCB	0x0, "T", 0x0, "O", 0x0, "R", 0x0, 0x0, 0x0 ; `string'

  00000			 AREA	 |.rdata|, DATA, READONLY
|??_C@_1FG@CFFAAPDL@?$AAD?$AAE?$AAV?$AAI?$AAC?$AAE?$AA_?$AAC?$AAO?$AAN?$AAF?$AAI?$AAG?$AA_?$AAS?$AAT?$AAA?$AAT?$AAU?$AAS?$AA_?$AAS?$AAC?$AAH?$AAE?$AAD?$AAU?$AAL?$AAI?$AAN?$AAG?$AA_@| DCB "D"
	DCB	0x0, "E", 0x0, "V", 0x0, "I", 0x0, "C", 0x0, "E", 0x0, "_"
	DCB	0x0, "C", 0x0, "O", 0x0, "N", 0x0, "F", 0x0, "I", 0x0, "G"
	DCB	0x0, "_", 0x0, "S", 0x0, "T", 0x0, "A", 0x0, "T", 0x0, "U"
	DCB	0x0, "S", 0x0, "_", 0x0, "S", 0x0, "C", 0x0, "H", 0x0, "E"
	DCB	0x0, "D", 0x0, "U", 0x0, "L", 0x0, "I", 0x0, "N", 0x0, "G"
	DCB	0x0, "_", 0x0, "S", 0x0, "E", 0x0, "T", 0x0, "_", 0x0, "C"
	DCB	0x0, "O", 0x0, "N", 0x0, "F", 0x0, "I", 0x0, "G", 0x0, 0x0
	DCB	0x0					; `string'

  00000			 AREA	 |.rdata|, DATA, READONLY
|??_C@_1GA@NDHJOKMM@?$AAD?$AAE?$AAV?$AAI?$AAC?$AAE?$AA_?$AAC?$AAO?$AAN?$AAF?$AAI?$AAG?$AA_?$AAS?$AAT?$AAA?$AAT?$AAU?$AAS?$AA_?$AAD?$AAE?$AAT?$AAE?$AAR?$AAM?$AAI?$AAN?$AAE?$AA_?$AAC@| DCB "D"
	DCB	0x0, "E", 0x0, "V", 0x0, "I", 0x0, "C", 0x0, "E", 0x0, "_"
	DCB	0x0, "C", 0x0, "O", 0x0, "N", 0x0, "F", 0x0, "I", 0x0, "G"
	DCB	0x0, "_", 0x0, "S", 0x0, "T", 0x0, "A", 0x0, "T", 0x0, "U"
	DCB	0x0, "S", 0x0, "_", 0x0, "D", 0x0, "E", 0x0, "T", 0x0, "E"
	DCB	0x0, "R", 0x0, "M", 0x0, "I", 0x0, "N", 0x0, "E", 0x0, "_"
	DCB	0x0, "C", 0x0, "O", 0x0, "N", 0x0, "F", 0x0, "I", 0x0, "G"
	DCB	0x0, "_", 0x0, "T", 0x0, "O", 0x0, "_", 0x0, "C", 0x0, "H"
	DCB	0x0, "O", 0x0, "O", 0x0, "S", 0x0, "E", 0x0, 0x0, 0x0 ; `string'

  00000			 AREA	 |.rdata|, DATA, READONLY
|??_C@_1GM@JADKDKDC@?$AAD?$AAE?$AAV?$AAI?$AAC?$AAE?$AA_?$AAC?$AAO?$AAN?$AAF?$AAI?$AAG?$AA_?$AAS?$AAT?$AAA?$AAT?$AAU?$AAS?$AA_?$AAS?$AAC?$AAH?$AAE?$AAD?$AAU?$AAL?$AAI?$AAN?$AAG?$AA_@| DCB "D"
	DCB	0x0, "E", 0x0, "V", 0x0, "I", 0x0, "C", 0x0, "E", 0x0, "_"
	DCB	0x0, "C", 0x0, "O", 0x0, "N", 0x0, "F", 0x0, "I", 0x0, "G"
	DCB	0x0, "_", 0x0, "S", 0x0, "T", 0x0, "A", 0x0, "T", 0x0, "U"
	DCB	0x0, "S", 0x0, "_", 0x0, "S", 0x0, "C", 0x0, "H", 0x0, "E"
	DCB	0x0, "D", 0x0, "U", 0x0, "L", 0x0, "I", 0x0, "N", 0x0, "G"
	DCB	0x0, "_", 0x0, "G", 0x0, "E", 0x0, "T", 0x0, "_", 0x0, "C"
	DCB	0x0, "O", 0x0, "N", 0x0, "F", 0x0, "I", 0x0, "G", 0x0, "_"
	DCB	0x0, "D", 0x0, "E", 0x0, "S", 0x0, "C", 0x0, "R", 0x0, "I"
	DCB	0x0, "P", 0x0, "T", 0x0, "O", 0x0, "R", 0x0, 0x0, 0x0 ; `string'

  00000			 AREA	 |.rdata|, DATA, READONLY
|??_C@_1HM@NPLCKJLH@?$AAD?$AAE?$AAV?$AAI?$AAC?$AAE?$AA_?$AAC?$AAO?$AAN?$AAF?$AAI?$AAG?$AA_?$AAS?$AAT?$AAA?$AAT?$AAU?$AAS?$AA_?$AAS?$AAC?$AAH?$AAE?$AAD?$AAU?$AAL?$AAI?$AAN?$AAG?$AA_@| DCB "D"
	DCB	0x0, "E", 0x0, "V", 0x0, "I", 0x0, "C", 0x0, "E", 0x0, "_"
	DCB	0x0, "C", 0x0, "O", 0x0, "N", 0x0, "F", 0x0, "I", 0x0, "G"
	DCB	0x0, "_", 0x0, "S", 0x0, "T", 0x0, "A", 0x0, "T", 0x0, "U"
	DCB	0x0, "S", 0x0, "_", 0x0, "S", 0x0, "C", 0x0, "H", 0x0, "E"
	DCB	0x0, "D", 0x0, "U", 0x0, "L", 0x0, "I", 0x0, "N", 0x0, "G"
	DCB	0x0, "_", 0x0, "G", 0x0, "E", 0x0, "T", 0x0, "_", 0x0, "I"
	DCB	0x0, "N", 0x0, "I", 0x0, "T", 0x0, "I", 0x0, "A", 0x0, "L"
	DCB	0x0, "_", 0x0, "C", 0x0, "O", 0x0, "N", 0x0, "F", 0x0, "I"
	DCB	0x0, "G", 0x0, "_", 0x0, "D", 0x0, "E", 0x0, "S", 0x0, "C"
	DCB	0x0, "R", 0x0, "I", 0x0, "P", 0x0, "T", 0x0, "O", 0x0, "R"
	DCB	0x0, 0x0, 0x0				; `string'

  00000			 AREA	 |.rdata|, DATA, READONLY
|??_C@_1HE@MEMGEMJJ@?$AAD?$AAE?$AAV?$AAI?$AAC?$AAE?$AA_?$AAC?$AAO?$AAN?$AAF?$AAI?$AAG?$AA_?$AAS?$AAT?$AAA?$AAT?$AAU?$AAS?$AA_?$AAS?$AAE?$AAT?$AAU?$AAP?$AA_?$AAC?$AAO?$AAN?$AAF?$AAI@| DCB "D"
	DCB	0x0, "E", 0x0, "V", 0x0, "I", 0x0, "C", 0x0, "E", 0x0, "_"
	DCB	0x0, "C", 0x0, "O", 0x0, "N", 0x0, "F", 0x0, "I", 0x0, "G"
	DCB	0x0, "_", 0x0, "S", 0x0, "T", 0x0, "A", 0x0, "T", 0x0, "U"
	DCB	0x0, "S", 0x0, "_", 0x0, "S", 0x0, "E", 0x0, "T", 0x0, "U"
	DCB	0x0, "P", 0x0, "_", 0x0, "C", 0x0, "O", 0x0, "N", 0x0, "F"
	DCB	0x0, "I", 0x0, "G", 0x0, "U", 0x0, "R", 0x0, "A", 0x0, "T"
	DCB	0x0, "I", 0x0, "O", 0x0, "N", 0x0, "_", 0x0, "D", 0x0, "E"
	DCB	0x0, "S", 0x0, "C", 0x0, "R", 0x0, "I", 0x0, "P", 0x0, "T"
	DCB	0x0, "O", 0x0, "R", 0x0, "_", 0x0, "A", 0x0, "R", 0x0, "R"
	DCB	0x0, "A", 0x0, "Y", 0x0, 0x0, 0x0	; `string'

  00000			 AREA	 |.rdata|, DATA, READONLY
|??_C@_1GM@BCHKIAPP@?$AAD?$AAE?$AAV?$AAI?$AAC?$AAE?$AA_?$AAC?$AAO?$AAN?$AAF?$AAI?$AAG?$AA_?$AAS?$AAT?$AAA?$AAT?$AAU?$AAS?$AA_?$AAS?$AAC?$AAH?$AAE?$AAD?$AAU?$AAL?$AAI?$AAN?$AAG?$AA_@| DCB "D"
	DCB	0x0, "E", 0x0, "V", 0x0, "I", 0x0, "C", 0x0, "E", 0x0, "_"
	DCB	0x0, "C", 0x0, "O", 0x0, "N", 0x0, "F", 0x0, "I", 0x0, "G"
	DCB	0x0, "_", 0x0, "S", 0x0, "T", 0x0, "A", 0x0, "T", 0x0, "U"
	DCB	0x0, "S", 0x0, "_", 0x0, "S", 0x0, "C", 0x0, "H", 0x0, "E"
	DCB	0x0, "D", 0x0, "U", 0x0, "L", 0x0, "I", 0x0, "N", 0x0, "G"
	DCB	0x0, "_", 0x0, "G", 0x0, "E", 0x0, "T", 0x0, "_", 0x0, "D"
	DCB	0x0, "E", 0x0, "V", 0x0, "I", 0x0, "C", 0x0, "E", 0x0, "_"
	DCB	0x0, "D", 0x0, "E", 0x0, "S", 0x0, "C", 0x0, "R", 0x0, "I"
	DCB	0x0, "P", 0x0, "T", 0x0, "O", 0x0, "R", 0x0, 0x0, 0x0 ; `string'

  00000			 AREA	 |.rdata|, DATA, READONLY
|??_C@_1HM@FNPCBDHK@?$AAD?$AAE?$AAV?$AAI?$AAC?$AAE?$AA_?$AAC?$AAO?$AAN?$AAF?$AAI?$AAG?$AA_?$AAS?$AAT?$AAA?$AAT?$AAU?$AAS?$AA_?$AAS?$AAC?$AAH?$AAE?$AAD?$AAU?$AAL?$AAI?$AAN?$AAG?$AA_@| DCB "D"
	DCB	0x0, "E", 0x0, "V", 0x0, "I", 0x0, "C", 0x0, "E", 0x0, "_"
	DCB	0x0, "C", 0x0, "O", 0x0, "N", 0x0, "F", 0x0, "I", 0x0, "G"
	DCB	0x0, "_", 0x0, "S", 0x0, "T", 0x0, "A", 0x0, "T", 0x0, "U"
	DCB	0x0, "S", 0x0, "_", 0x0, "S", 0x0, "C", 0x0, "H", 0x0, "E"
	DCB	0x0, "D", 0x0, "U", 0x0, "L", 0x0, "I", 0x0, "N", 0x0, "G"
	DCB	0x0, "_", 0x0, "G", 0x0, "E", 0x0, "T", 0x0, "_", 0x0, "I"
	DCB	0x0, "N", 0x0, "I", 0x0, "T", 0x0, "I", 0x0, "A", 0x0, "L"
	DCB	0x0, "_", 0x0, "D", 0x0, "E", 0x0, "V", 0x0, "I", 0x0, "C"
	DCB	0x0, "E", 0x0, "_", 0x0, "D", 0x0, "E", 0x0, "S", 0x0, "C"
	DCB	0x0, "R", 0x0, "I", 0x0, "P", 0x0, "T", 0x0, "O", 0x0, "R"
	DCB	0x0, 0x0, 0x0				; `string'

  00000			 AREA	 |.rdata|, DATA, READONLY
|??_C@_1EI@BBOOKHNN@?$AAD?$AAE?$AAV?$AAI?$AAC?$AAE?$AA_?$AAC?$AAO?$AAN?$AAF?$AAI?$AAG?$AA_?$AAS?$AAT?$AAA?$AAT?$AAU?$AAS?$AA_?$AAL?$AAE?$AAA?$AAV?$AAE?$AA_?$AAA?$AAD?$AAD?$AAR?$AAE@| DCB "D"
	DCB	0x0, "E", 0x0, "V", 0x0, "I", 0x0, "C", 0x0, "E", 0x0, "_"
	DCB	0x0, "C", 0x0, "O", 0x0, "N", 0x0, "F", 0x0, "I", 0x0, "G"
	DCB	0x0, "_", 0x0, "S", 0x0, "T", 0x0, "A", 0x0, "T", 0x0, "U"
	DCB	0x0, "S", 0x0, "_", 0x0, "L", 0x0, "E", 0x0, "A", 0x0, "V"
	DCB	0x0, "E", 0x0, "_", 0x0, "A", 0x0, "D", 0x0, "D", 0x0, "R"
	DCB	0x0, "E", 0x0, "S", 0x0, "S", 0x0, "0", 0x0, 0x0, 0x0 ; `string'

  00000			 AREA	 |.rdata|, DATA, READONLY
|??_C@_1FI@LGLHPFAK@?$AAD?$AAE?$AAV?$AAI?$AAC?$AAE?$AA_?$AAC?$AAO?$AAN?$AAF?$AAI?$AAG?$AA_?$AAS?$AAT?$AAA?$AAT?$AAU?$AAS?$AA_?$AAS?$AAC?$AAH?$AAE?$AAD?$AAU?$AAL?$AAI?$AAN?$AAG?$AA_@| DCB "D"
	DCB	0x0, "E", 0x0, "V", 0x0, "I", 0x0, "C", 0x0, "E", 0x0, "_"
	DCB	0x0, "C", 0x0, "O", 0x0, "N", 0x0, "F", 0x0, "I", 0x0, "G"
	DCB	0x0, "_", 0x0, "S", 0x0, "T", 0x0, "A", 0x0, "T", 0x0, "U"
	DCB	0x0, "S", 0x0, "_", 0x0, "S", 0x0, "C", 0x0, "H", 0x0, "E"
	DCB	0x0, "D", 0x0, "U", 0x0, "L", 0x0, "I", 0x0, "N", 0x0, "G"
	DCB	0x0, "_", 0x0, "S", 0x0, "E", 0x0, "T", 0x0, "_", 0x0, "A"
	DCB	0x0, "D", 0x0, "D", 0x0, "R", 0x0, "E", 0x0, "S", 0x0, "S"
	DCB	0x0, 0x0, 0x0				; `string'

  00000			 AREA	 |.rdata|, DATA, READONLY
|??_C@_1HG@BLNLBKIO@?$AAD?$AAE?$AAV?$AAI?$AAC?$AAE?$AA_?$AAC?$AAO?$AAN?$AAF?$AAI?$AAG?$AA_?$AAS?$AAT?$AAA?$AAT?$AAU?$AAS?$AA_?$AAS?$AAC?$AAH?$AAE?$AAD?$AAU?$AAL?$AAI?$AAN?$AAG?$AA_@| DCB "D"
	DCB	0x0, "E", 0x0, "V", 0x0, "I", 0x0, "C", 0x0, "E", 0x0, "_"
	DCB	0x0, "C", 0x0, "O", 0x0, "N", 0x0, "F", 0x0, "I", 0x0, "G"
	DCB	0x0, "_", 0x0, "S", 0x0, "T", 0x0, "A", 0x0, "T", 0x0, "U"
	DCB	0x0, "S", 0x0, "_", 0x0, "S", 0x0, "C", 0x0, "H", 0x0, "E"
	DCB	0x0, "D", 0x0, "U", 0x0, "L", 0x0, "I", 0x0, "N", 0x0, "G"
	DCB	0x0, "_", 0x0, "G", 0x0, "E", 0x0, "T", 0x0, "_", 0x0, "D"
	DCB	0x0, "E", 0x0, "V", 0x0, "I", 0x0, "C", 0x0, "E", 0x0, "_"
	DCB	0x0, "D", 0x0, "E", 0x0, "S", 0x0, "C", 0x0, "R", 0x0, "I"
	DCB	0x0, "P", 0x0, "T", 0x0, "O", 0x0, "R", 0x0, "_", 0x0, "T"
	DCB	0x0, "E", 0x0, "S", 0x0, "T", 0x0, 0x0, 0x0 ; `string'

  00000			 AREA	 |.rdata|, DATA, READONLY
|??_C@_1FG@NMCKCJLL@?$AAD?$AAE?$AAV?$AAI?$AAC?$AAE?$AA_?$AAC?$AAO?$AAN?$AAF?$AAI?$AAG?$AA_?$AAS?$AAT?$AAA?$AAT?$AAU?$AAS?$AA_?$AAR?$AAE?$AAS?$AAE?$AAT?$AA_?$AAA?$AAN?$AAD?$AA_?$AAE@| DCB "D"
	DCB	0x0, "E", 0x0, "V", 0x0, "I", 0x0, "C", 0x0, "E", 0x0, "_"
	DCB	0x0, "C", 0x0, "O", 0x0, "N", 0x0, "F", 0x0, "I", 0x0, "G"
	DCB	0x0, "_", 0x0, "S", 0x0, "T", 0x0, "A", 0x0, "T", 0x0, "U"
	DCB	0x0, "S", 0x0, "_", 0x0, "R", 0x0, "E", 0x0, "S", 0x0, "E"
	DCB	0x0, "T", 0x0, "_", 0x0, "A", 0x0, "N", 0x0, "D", 0x0, "_"
	DCB	0x0, "E", 0x0, "N", 0x0, "A", 0x0, "B", 0x0, "L", 0x0, "E"
	DCB	0x0, "_", 0x0, "P", 0x0, "O", 0x0, "R", 0x0, "T", 0x0, 0x0
	DCB	0x0					; `string'

  00000			 AREA	 |.rdata|, DATA, READONLY
|??_C@_1EI@KNOIBOPH@?$AAD?$AAE?$AAV?$AAI?$AAC?$AAE?$AA_?$AAC?$AAO?$AAN?$AAF?$AAI?$AAG?$AA_?$AAS?$AAT?$AAA?$AAT?$AAU?$AAS?$AA_?$AAU?$AAS?$AAI?$AAN?$AAG?$AA_?$AAA?$AAD?$AAD?$AAR?$AAE@| DCB "D"
	DCB	0x0, "E", 0x0, "V", 0x0, "I", 0x0, "C", 0x0, "E", 0x0, "_"
	DCB	0x0, "C", 0x0, "O", 0x0, "N", 0x0, "F", 0x0, "I", 0x0, "G"
	DCB	0x0, "_", 0x0, "S", 0x0, "T", 0x0, "A", 0x0, "T", 0x0, "U"
	DCB	0x0, "S", 0x0, "_", 0x0, "U", 0x0, "S", 0x0, "I", 0x0, "N"
	DCB	0x0, "G", 0x0, "_", 0x0, "A", 0x0, "D", 0x0, "D", 0x0, "R"
	DCB	0x0, "E", 0x0, "S", 0x0, "S", 0x0, "0", 0x0, 0x0, 0x0 ; `string'

  00000			 AREA	 |.rdata|, DATA, READONLY
|??_C@_1FI@COMJHLEF@?$AAD?$AAE?$AAV?$AAI?$AAC?$AAE?$AA_?$AAC?$AAO?$AAN?$AAF?$AAI?$AAG?$AA_?$AAS?$AAT?$AAA?$AAT?$AAU?$AAS?$AA_?$AAO?$AAP?$AAE?$AAN?$AAI?$AAN?$AAG?$AA_?$AAE?$AAN?$AAD@| DCB "D"
	DCB	0x0, "E", 0x0, "V", 0x0, "I", 0x0, "C", 0x0, "E", 0x0, "_"
	DCB	0x0, "C", 0x0, "O", 0x0, "N", 0x0, "F", 0x0, "I", 0x0, "G"
	DCB	0x0, "_", 0x0, "S", 0x0, "T", 0x0, "A", 0x0, "T", 0x0, "U"
	DCB	0x0, "S", 0x0, "_", 0x0, "O", 0x0, "P", 0x0, "E", 0x0, "N"
	DCB	0x0, "I", 0x0, "N", 0x0, "G", 0x0, "_", 0x0, "E", 0x0, "N"
	DCB	0x0, "D", 0x0, "P", 0x0, "O", 0x0, "I", 0x0, "N", 0x0, "T"
	DCB	0x0, "0", 0x0, "_", 0x0, "P", 0x0, "I", 0x0, "P", 0x0, "E"
	DCB	0x0, 0x0, 0x0				; `string'
	EXPORT	|??_C@_1DA@JAPEOLC@?$AAH?$AAC?$AAD?$AA?5?$AAd?$AAr?$AAi?$AAv?$AAe?$AAr?$AA?5?$AAD?$AAL?$AAL?$AA?5?$AAa?$AAt?$AAt?$AAa?$AAc?$AAh?$AA?$AN?$AA?6?$AA?$AA@| [ DATA ] ; `string'
	EXPORT	|DllMain|
	IMPORT	|HcdPdd_DllMain|
	IMPORT	|DeleteCriticalSection|
	IMPORT	|InitializeCriticalSection|
	IMPORT	|DisableThreadLibraryCalls|
	IMPORT	|NKDbgPrintfW|
	IMPORT	|RegisterDbgZones|

  00000			 AREA	 |.pdata|, PDATA
|$T35113| DCD	|$LN10@DllMain|
	DCD	0x40003104
; File c:\wince600\platform\common\src\soc\common_ti_v1\common_ti\usb\usb2com\hcddrv.cpp

  00000			 AREA	 |.rdata|, DATA, READONLY
|??_C@_1DA@JAPEOLC@?$AAH?$AAC?$AAD?$AA?5?$AAd?$AAr?$AAi?$AAv?$AAe?$AAr?$AA?5?$AAD?$AAL?$AAL?$AA?5?$AAa?$AAt?$AAt?$AAa?$AAc?$AAh?$AA?$AN?$AA?6?$AA?$AA@| DCB "H"
	DCB	0x0, "C", 0x0, "D", 0x0, " ", 0x0, "d", 0x0, "r", 0x0, "i"
	DCB	0x0, "v", 0x0, "e", 0x0, "r", 0x0, " ", 0x0, "D", 0x0, "L"
	DCB	0x0, "L", 0x0, " ", 0x0, "a", 0x0, "t", 0x0, "t", 0x0, "a"
	DCB	0x0, "c", 0x0, "h", 0x0, 0xd, 0x0, 0xa, 0x0, 0x0, 0x0 ; `string'
; Function compile flags: /Odtp

  00000			 AREA	 |.text|, CODE, ARM

  00000		 |DllMain| PROC

; 103  : {

  00000		 |$LN10@DllMain|
  00000	e1a0c00d	 mov         r12, sp
  00004	e92d0007	 stmdb       sp!, {r0 - r2}
  00008	e92d5000	 stmdb       sp!, {r12, lr}
  0000c	e24dd00c	 sub         sp, sp, #0xC
  00010		 |$M35110|

; 104  :     if ( dwReason == DLL_PROCESS_ATTACH ) {

  00010	e59d3018	 ldr         r3, [sp, #0x18]
  00014	e3530001	 cmp         r3, #1
  00018	1a000015	 bne         |$LN3@DllMain|

; 105  :         DEBUGREGISTER((HINSTANCE)hinstDLL);

  0001c	e59f109c	 ldr         r1, [pc, #0x9C]
  00020	e59d0014	 ldr         r0, [sp, #0x14]
  00024	eb000000	 bl          RegisterDbgZones

; 106  :         DEBUGMSG (ZONE_INIT,(TEXT("HCD driver DLL attach\r\n")));

  00028	e59f3090	 ldr         r3, [pc, #0x90]
  0002c	e5933440	 ldr         r3, [r3, #0x440]
  00030	e3130002	 tst         r3, #2
  00034	0a000004	 beq         |$LN6@DllMain|
  00038	e59f007c	 ldr         r0, [pc, #0x7C]
  0003c	eb000000	 bl          NKDbgPrintfW
  00040	e3a03001	 mov         r3, #1
  00044	e58d3004	 str         r3, [sp, #4]
  00048	ea000001	 b           |$LN7@DllMain|
  0004c		 |$LN6@DllMain|
  0004c	e3a03000	 mov         r3, #0
  00050	e58d3004	 str         r3, [sp, #4]
  00054		 |$LN7@DllMain|

; 107  :         DisableThreadLibraryCalls((HMODULE) hinstDLL);

  00054	e59d0014	 ldr         r0, [sp, #0x14]
  00058	eb000000	 bl          DisableThreadLibraryCalls

; 108  :         g_dwContext = 0;

  0005c	e59f2054	 ldr         r2, [pc, #0x54]
  00060	e3a03000	 mov         r3, #0
  00064	e5823000	 str         r3, [r2]

; 109  :         InitializeCriticalSection( &g_CSection );

  00068	e59f0044	 ldr         r0, [pc, #0x44]
  0006c	eb000000	 bl          InitializeCriticalSection
  00070	ea000004	 b           |$LN2@DllMain|
  00074		 |$LN3@DllMain|

; 110  :     }
; 111  :     else if (dwReason == DLL_PROCESS_DETACH) {

  00074	e59d3018	 ldr         r3, [sp, #0x18]
  00078	e3530000	 cmp         r3, #0
  0007c	1a000001	 bne         |$LN1@DllMain|

; 112  :         DeleteCriticalSection( &g_CSection );

  00080	e59f002c	 ldr         r0, [pc, #0x2C]
  00084	eb000000	 bl          DeleteCriticalSection
  00088		 |$LN1@DllMain|
  00088		 |$LN2@DllMain|

; 113  :     }
; 114  :     return HcdPdd_DllMain(hinstDLL, dwReason, lpvReserved);

  00088	e59d201c	 ldr         r2, [sp, #0x1C]
  0008c	e59d1018	 ldr         r1, [sp, #0x18]
  00090	e59d0014	 ldr         r0, [sp, #0x14]
  00094	eb000000	 bl          HcdPdd_DllMain
  00098	e58d0008	 str         r0, [sp, #8]
  0009c	e59d3008	 ldr         r3, [sp, #8]
  000a0	e58d3000	 str         r3, [sp]

; 115  : }

  000a4	e59d0000	 ldr         r0, [sp]
  000a8	e28dd00c	 add         sp, sp, #0xC
  000ac	e89d6000	 ldmia       sp, {sp, lr}
  000b0	e12fff1e	 bx          lr
  000b4		 |$LN11@DllMain|
  000b4		 |$LN12@DllMain|
  000b4	00000000	 DCD         |?g_CSection@@3UCRITICAL_SECTION@@A|
  000b8		 |$LN13@DllMain|
  000b8	00000000	 DCD         |g_dwContext|
  000bc		 |$LN14@DllMain|
  000bc	00000000	 DCD         |??_C@_1DA@JAPEOLC@?$AAH?$AAC?$AAD?$AA?5?$AAd?$AAr?$AAi?$AAv?$AAe?$AAr?$AA?5?$AAD?$AAL?$AAL?$AA?5?$AAa?$AAt?$AAt?$AAa?$AAc?$AAh?$AA?$AN?$AA?6?$AA?$AA@|
  000c0		 |$LN15@DllMain|
  000c0	00000000	 DCD         |dpCurSettings|
  000c4		 |$M35111|

			 ENDP  ; |DllMain|


  00008			 AREA	 |.pdata|, PDATA
|$T35124| DCD	|$LN5@HcdGetFram|
	DCD	0x40001504
; Function compile flags: /Odtp

  000c4			 AREA	 |.text|, CODE, ARM

  000c4		 |HcdGetFrameNumber| PROC

; 119  : {

  000c4		 |$LN5@HcdGetFram|
  000c4	e1a0c00d	 mov         r12, sp
  000c8	e92d0003	 stmdb       sp!, {r0, r1}
  000cc	e92d5000	 stmdb       sp!, {r12, lr}
  000d0	e24dd00c	 sub         sp, sp, #0xC
  000d4		 |$M35121|

; 120  :     CHcd * const pHcd = (CHcd *)lpvHcd;

  000d4	e59d3014	 ldr         r3, [sp, #0x14]
  000d8	e58d3000	 str         r3, [sp]

; 121  :     return pHcd->GetFrameNumber(lpdwFrameNumber);

  000dc	e59d1018	 ldr         r1, [sp, #0x18]
  000e0	e59d3000	 ldr         r3, [sp]
  000e4	e5933000	 ldr         r3, [r3]
  000e8	e2833014	 add         r3, r3, #0x14
  000ec	e59d0000	 ldr         r0, [sp]
  000f0	e5933000	 ldr         r3, [r3]
  000f4	e1a0e00f	 mov         lr, pc
  000f8	e12fff13	 bx          r3
  000fc	e58d0008	 str         r0, [sp, #8]
  00100	e59d3008	 ldr         r3, [sp, #8]
  00104	e58d3004	 str         r3, [sp, #4]

; 122  : }

  00108	e59d0004	 ldr         r0, [sp, #4]
  0010c	e28dd00c	 add         sp, sp, #0xC
  00110	e89d6000	 ldmia       sp, {sp, lr}
  00114	e12fff1e	 bx          lr
  00118		 |$M35122|

			 ENDP  ; |HcdGetFrameNumber|


  00010			 AREA	 |.pdata|, PDATA
|$T35130| DCD	|$LN5@HcdGetFram@2|
	DCD	0x40001504
; Function compile flags: /Odtp

  00118			 AREA	 |.text|, CODE, ARM

  00118		 |HcdGetFrameLength| PROC

; 125  : {

  00118		 |$LN5@HcdGetFram@2|
  00118	e1a0c00d	 mov         r12, sp
  0011c	e92d0003	 stmdb       sp!, {r0, r1}
  00120	e92d5000	 stmdb       sp!, {r12, lr}
  00124	e24dd00c	 sub         sp, sp, #0xC
  00128		 |$M35127|

; 126  :     CHcd * const pHcd = (CHcd *)lpvHcd;

  00128	e59d3014	 ldr         r3, [sp, #0x14]
  0012c	e58d3000	 str         r3, [sp]

; 127  :     return pHcd->GetFrameLength(lpuFrameLength);

  00130	e59d1018	 ldr         r1, [sp, #0x18]
  00134	e59d3000	 ldr         r3, [sp]
  00138	e5933000	 ldr         r3, [r3]
  0013c	e2833018	 add         r3, r3, #0x18
  00140	e59d0000	 ldr         r0, [sp]
  00144	e5933000	 ldr         r3, [r3]
  00148	e1a0e00f	 mov         lr, pc
  0014c	e12fff13	 bx          r3
  00150	e58d0008	 str         r0, [sp, #8]
  00154	e59d3008	 ldr         r3, [sp, #8]
  00158	e58d3004	 str         r3, [sp, #4]

; 128  : }

  0015c	e59d0004	 ldr         r0, [sp, #4]
  00160	e28dd00c	 add         sp, sp, #0xC
  00164	e89d6000	 ldmia       sp, {sp, lr}
  00168	e12fff1e	 bx          lr
  0016c		 |$M35128|

			 ENDP  ; |HcdGetFrameLength|


  00018			 AREA	 |.pdata|, PDATA
|$T35136| DCD	|$LN5@HcdSetFram|
	DCD	0x40001604
; Function compile flags: /Odtp

  0016c			 AREA	 |.text|, CODE, ARM

  0016c		 |HcdSetFrameLength| PROC

; 131  : {

  0016c		 |$LN5@HcdSetFram|
  0016c	e1a0c00d	 mov         r12, sp
  00170	e92d0007	 stmdb       sp!, {r0 - r2}
  00174	e92d5000	 stmdb       sp!, {r12, lr}
  00178	e24dd00c	 sub         sp, sp, #0xC
  0017c		 |$M35133|

; 132  :     CHcd * const pHcd = (CHcd *)lpvHcd;

  0017c	e59d3014	 ldr         r3, [sp, #0x14]
  00180	e58d3000	 str         r3, [sp]

; 133  :     return pHcd->SetFrameLength(hEvent, uFrameLength);

  00184	e1dd21bc	 ldrh        r2, [sp, #0x1C]
  00188	e59d1018	 ldr         r1, [sp, #0x18]
  0018c	e59d3000	 ldr         r3, [sp]
  00190	e5933000	 ldr         r3, [r3]
  00194	e283301c	 add         r3, r3, #0x1C
  00198	e59d0000	 ldr         r0, [sp]
  0019c	e5933000	 ldr         r3, [r3]
  001a0	e1a0e00f	 mov         lr, pc
  001a4	e12fff13	 bx          r3
  001a8	e58d0008	 str         r0, [sp, #8]
  001ac	e59d3008	 ldr         r3, [sp, #8]
  001b0	e58d3004	 str         r3, [sp, #4]

; 134  : }

  001b4	e59d0004	 ldr         r0, [sp, #4]
  001b8	e28dd00c	 add         sp, sp, #0xC
  001bc	e89d6000	 ldmia       sp, {sp, lr}
  001c0	e12fff1e	 bx          lr
  001c4		 |$M35134|

			 ENDP  ; |HcdSetFrameLength|


  00020			 AREA	 |.pdata|, PDATA
|$T35142| DCD	|$LN5@HcdStopAdj|
	DCD	0x40001404
; Function compile flags: /Odtp

  001c4			 AREA	 |.text|, CODE, ARM

  001c4		 |HcdStopAdjustingFrame| PROC

; 137  : {

  001c4		 |$LN5@HcdStopAdj|
  001c4	e1a0c00d	 mov         r12, sp
  001c8	e92d0001	 stmdb       sp!, {r0}
  001cc	e92d5000	 stmdb       sp!, {r12, lr}
  001d0	e24dd00c	 sub         sp, sp, #0xC
  001d4		 |$M35139|

; 138  :     CHcd * const pHcd = (CHcd *)lpvHcd;

  001d4	e59d3014	 ldr         r3, [sp, #0x14]
  001d8	e58d3000	 str         r3, [sp]

; 139  :     return pHcd->StopAdjustingFrame();

  001dc	e59d3000	 ldr         r3, [sp]
  001e0	e5933000	 ldr         r3, [r3]
  001e4	e2833020	 add         r3, r3, #0x20
  001e8	e59d0000	 ldr         r0, [sp]
  001ec	e5933000	 ldr         r3, [r3]
  001f0	e1a0e00f	 mov         lr, pc
  001f4	e12fff13	 bx          r3
  001f8	e58d0008	 str         r0, [sp, #8]
  001fc	e59d3008	 ldr         r3, [sp, #8]
  00200	e58d3004	 str         r3, [sp, #4]

; 140  : }

  00204	e59d0004	 ldr         r0, [sp, #4]
  00208	e28dd00c	 add         sp, sp, #0xC
  0020c	e89d6000	 ldmia       sp, {sp, lr}
  00210	e12fff1e	 bx          lr
  00214		 |$M35140|

			 ENDP  ; |HcdStopAdjustingFrame|

	IMPORT	|?OpenPipe@CHcd@@QAAHIPBU_USB_ENDPOINT_DESCRIPTOR@@PAI@Z| ; CHcd::OpenPipe

  00028			 AREA	 |.pdata|, PDATA
|$T35148| DCD	|$LN5@HcdOpenPip|
	DCD	0x40001204
; Function compile flags: /Odtp

  00214			 AREA	 |.text|, CODE, ARM

  00214		 |HcdOpenPipe| PROC

; 145  : {

  00214		 |$LN5@HcdOpenPip|
  00214	e1a0c00d	 mov         r12, sp
  00218	e92d000f	 stmdb       sp!, {r0 - r3}
  0021c	e92d5000	 stmdb       sp!, {r12, lr}
  00220	e24dd00c	 sub         sp, sp, #0xC
  00224		 |$M35145|

; 146  :     CHcd * const pHcd = (CHcd *)lpvHcd;

  00224	e59d3014	 ldr         r3, [sp, #0x14]
  00228	e58d3000	 str         r3, [sp]

; 147  :     return pHcd->OpenPipe(iDevice, lpEndpointDescriptor, lpiEndpointIndex);

  0022c	e59d3020	 ldr         r3, [sp, #0x20]
  00230	e59d201c	 ldr         r2, [sp, #0x1C]
  00234	e59d1018	 ldr         r1, [sp, #0x18]
  00238	e59d0000	 ldr         r0, [sp]
  0023c	eb000000	 bl          |?OpenPipe@CHcd@@QAAHIPBU_USB_ENDPOINT_DESCRIPTOR@@PAI@Z|
  00240	e58d0008	 str         r0, [sp, #8]
  00244	e59d3008	 ldr         r3, [sp, #8]
  00248	e58d3004	 str         r3, [sp, #4]

; 148  : }

  0024c	e59d0004	 ldr         r0, [sp, #4]
  00250	e28dd00c	 add         sp, sp, #0xC
  00254	e89d6000	 ldmia       sp, {sp, lr}
  00258	e12fff1e	 bx          lr
  0025c		 |$M35146|

			 ENDP  ; |HcdOpenPipe|

	IMPORT	|?ClosePipe@CHcd@@QAAHII@Z|		; CHcd::ClosePipe

  00030			 AREA	 |.pdata|, PDATA
|$T35154| DCD	|$LN5@HcdClosePi|
	DCD	0x40001104
; Function compile flags: /Odtp

  0025c			 AREA	 |.text|, CODE, ARM

  0025c		 |HcdClosePipe| PROC

; 151  : {

  0025c		 |$LN5@HcdClosePi|
  0025c	e1a0c00d	 mov         r12, sp
  00260	e92d0007	 stmdb       sp!, {r0 - r2}
  00264	e92d5000	 stmdb       sp!, {r12, lr}
  00268	e24dd00c	 sub         sp, sp, #0xC
  0026c		 |$M35151|

; 152  :     CHcd * const pHcd = (CHcd *)lpvHcd;

  0026c	e59d3014	 ldr         r3, [sp, #0x14]
  00270	e58d3000	 str         r3, [sp]

; 153  :     return pHcd->ClosePipe(iDevice, iEndpointIndex);

  00274	e59d201c	 ldr         r2, [sp, #0x1C]
  00278	e59d1018	 ldr         r1, [sp, #0x18]
  0027c	e59d0000	 ldr         r0, [sp]
  00280	eb000000	 bl          |?ClosePipe@CHcd@@QAAHII@Z|
  00284	e58d0008	 str         r0, [sp, #8]
  00288	e59d3008	 ldr         r3, [sp, #8]
  0028c	e58d3004	 str         r3, [sp, #4]

; 154  : }

  00290	e59d0004	 ldr         r0, [sp, #4]
  00294	e28dd00c	 add         sp, sp, #0xC
  00298	e89d6000	 ldmia       sp, {sp, lr}
  0029c	e12fff1e	 bx          lr
  002a0		 |$M35152|

			 ENDP  ; |HcdClosePipe|

	IMPORT	|?ResetPipe@CHcd@@QAAHII@Z|		; CHcd::ResetPipe

  00038			 AREA	 |.pdata|, PDATA
|$T35160| DCD	|$LN5@HcdResetPi|
	DCD	0x40001104
; Function compile flags: /Odtp

  002a0			 AREA	 |.text|, CODE, ARM

  002a0		 |HcdResetPipe| PROC

; 157  : {

  002a0		 |$LN5@HcdResetPi|
  002a0	e1a0c00d	 mov         r12, sp
  002a4	e92d0007	 stmdb       sp!, {r0 - r2}
  002a8	e92d5000	 stmdb       sp!, {r12, lr}
  002ac	e24dd00c	 sub         sp, sp, #0xC
  002b0		 |$M35157|

; 158  :     CHcd * const pHcd = (CHcd *)lpvHcd;

  002b0	e59d3014	 ldr         r3, [sp, #0x14]
  002b4	e58d3000	 str         r3, [sp]

; 159  :     return pHcd->ResetPipe(iDevice, iEndpointIndex);

  002b8	e59d201c	 ldr         r2, [sp, #0x1C]
  002bc	e59d1018	 ldr         r1, [sp, #0x18]
  002c0	e59d0000	 ldr         r0, [sp]
  002c4	eb000000	 bl          |?ResetPipe@CHcd@@QAAHII@Z|
  002c8	e58d0008	 str         r0, [sp, #8]
  002cc	e59d3008	 ldr         r3, [sp, #8]
  002d0	e58d3004	 str         r3, [sp, #4]

; 160  : }

  002d4	e59d0004	 ldr         r0, [sp, #4]
  002d8	e28dd00c	 add         sp, sp, #0xC
  002dc	e89d6000	 ldmia       sp, {sp, lr}
  002e0	e12fff1e	 bx          lr
  002e4		 |$M35158|

			 ENDP  ; |HcdResetPipe|

	IMPORT	|?IsPipeHalted@CHcd@@QAAHIIPAH@Z|	; CHcd::IsPipeHalted

  00040			 AREA	 |.pdata|, PDATA
|$T35166| DCD	|$LN5@HcdIsPipeH|
	DCD	0x40001204
; Function compile flags: /Odtp

  002e4			 AREA	 |.text|, CODE, ARM

  002e4		 |HcdIsPipeHalted| PROC

; 163  : {

  002e4		 |$LN5@HcdIsPipeH|
  002e4	e1a0c00d	 mov         r12, sp
  002e8	e92d000f	 stmdb       sp!, {r0 - r3}
  002ec	e92d5000	 stmdb       sp!, {r12, lr}
  002f0	e24dd00c	 sub         sp, sp, #0xC
  002f4		 |$M35163|

; 164  :     CHcd * const pHcd = (CHcd *)lpvHcd;

  002f4	e59d3014	 ldr         r3, [sp, #0x14]
  002f8	e58d3000	 str         r3, [sp]

; 165  :     return pHcd->IsPipeHalted(iDevice, iEndpointIndex, lpbHalted);

  002fc	e59d3020	 ldr         r3, [sp, #0x20]
  00300	e59d201c	 ldr         r2, [sp, #0x1C]
  00304	e59d1018	 ldr         r1, [sp, #0x18]
  00308	e59d0000	 ldr         r0, [sp]
  0030c	eb000000	 bl          |?IsPipeHalted@CHcd@@QAAHIIPAH@Z|
  00310	e58d0008	 str         r0, [sp, #8]
  00314	e59d3008	 ldr         r3, [sp, #8]
  00318	e58d3004	 str         r3, [sp, #4]

; 166  : }

  0031c	e59d0004	 ldr         r0, [sp, #4]
  00320	e28dd00c	 add         sp, sp, #0xC
  00324	e89d6000	 ldmia       sp, {sp, lr}
  00328	e12fff1e	 bx          lr
  0032c		 |$M35164|

			 ENDP  ; |HcdIsPipeHalted|

	IMPORT	|?IssueTransfer@CHcd@@QAAHIIP6AKPAX@Z0KPBXKKPBKK0K2PAK4PAH44@Z| ; CHcd::IssueTransfer

  00048			 AREA	 |.pdata|, PDATA
|$T35187| DCD	|$LN5@HcdIssueTr|
	DCD	0x40003004
; Function compile flags: /Odtp

  0032c			 AREA	 |.text|, CODE, ARM

  0032c		 |HcdIssueTransfer| PROC

; 175  : {

  0032c		 |$LN5@HcdIssueTr|
  0032c	e1a0c00d	 mov         r12, sp
  00330	e92d000f	 stmdb       sp!, {r0 - r3}
  00334	e92d5000	 stmdb       sp!, {r12, lr}
  00338	e24dd084	 sub         sp, sp, #0x84
  0033c		 |$M35184|

; 176  :     CHcd * const pHcd = (CHcd *)lpvHcd;

  0033c	e59d308c	 ldr         r3, [sp, #0x8C]
  00340	e58d303c	 str         r3, [sp, #0x3C]

; 177  :     return pHcd->IssueTransfer(iDevice, iEndpointIndex, lpStartAddress,
; 178  :             lpParameter, dwFlags, lpvControlHeader, dwStartingFrame, dwFrames,
; 179  :             aLengths, dwBufferSize, lpvBuffer, paBuffer, lpvCancelId,
; 180  :             adwIsochErrors, adwIsochLengths,lpfComplete, lpdwBytesTransfered,
; 181  :             lpdwError);

  00344	e59d30d4	 ldr         r3, [sp, #0xD4]
  00348	e58d3038	 str         r3, [sp, #0x38]
  0034c	e59d30d0	 ldr         r3, [sp, #0xD0]
  00350	e58d3034	 str         r3, [sp, #0x34]
  00354	e59d30cc	 ldr         r3, [sp, #0xCC]
  00358	e58d3030	 str         r3, [sp, #0x30]
  0035c	e59d30c8	 ldr         r3, [sp, #0xC8]
  00360	e58d302c	 str         r3, [sp, #0x2C]
  00364	e59d30c4	 ldr         r3, [sp, #0xC4]
  00368	e58d3028	 str         r3, [sp, #0x28]
  0036c	e59d30c0	 ldr         r3, [sp, #0xC0]
  00370	e58d3024	 str         r3, [sp, #0x24]
  00374	e59d30bc	 ldr         r3, [sp, #0xBC]
  00378	e58d3020	 str         r3, [sp, #0x20]
  0037c	e59d30b8	 ldr         r3, [sp, #0xB8]
  00380	e58d301c	 str         r3, [sp, #0x1C]
  00384	e59d30b4	 ldr         r3, [sp, #0xB4]
  00388	e58d3018	 str         r3, [sp, #0x18]
  0038c	e59d30b0	 ldr         r3, [sp, #0xB0]
  00390	e58d3014	 str         r3, [sp, #0x14]
  00394	e59d30ac	 ldr         r3, [sp, #0xAC]
  00398	e58d3010	 str         r3, [sp, #0x10]
  0039c	e59d30a8	 ldr         r3, [sp, #0xA8]
  003a0	e58d300c	 str         r3, [sp, #0xC]
  003a4	e59d30a4	 ldr         r3, [sp, #0xA4]
  003a8	e58d3008	 str         r3, [sp, #8]
  003ac	e59d30a0	 ldr         r3, [sp, #0xA0]
  003b0	e58d3004	 str         r3, [sp, #4]
  003b4	e59d309c	 ldr         r3, [sp, #0x9C]
  003b8	e58d3000	 str         r3, [sp]
  003bc	e59d3098	 ldr         r3, [sp, #0x98]
  003c0	e59d2094	 ldr         r2, [sp, #0x94]
  003c4	e59d1090	 ldr         r1, [sp, #0x90]
  003c8	e59d003c	 ldr         r0, [sp, #0x3C]
  003cc	eb000000	 bl          |?IssueTransfer@CHcd@@QAAHIIP6AKPAX@Z0KPBXKKPBKK0K2PAK4PAH44@Z|
  003d0	e58d0080	 str         r0, [sp, #0x80]
  003d4	e59d3080	 ldr         r3, [sp, #0x80]
  003d8	e58d307c	 str         r3, [sp, #0x7C]

; 182  : }

  003dc	e59d007c	 ldr         r0, [sp, #0x7C]
  003e0	e28dd084	 add         sp, sp, #0x84
  003e4	e89d6000	 ldmia       sp, {sp, lr}
  003e8	e12fff1e	 bx          lr
  003ec		 |$M35185|

			 ENDP  ; |HcdIssueTransfer|

	IMPORT	|?AbortTransfer@CHcd@@QAAHIIP6AKPAX@Z0PBX@Z| ; CHcd::AbortTransfer

  00050			 AREA	 |.pdata|, PDATA
|$T35195| DCD	|$LN5@HcdAbortTr|
	DCD	0x40001604
; Function compile flags: /Odtp

  003ec			 AREA	 |.text|, CODE, ARM

  003ec		 |HcdAbortTransfer| PROC

; 187  : {

  003ec		 |$LN5@HcdAbortTr|
  003ec	e1a0c00d	 mov         r12, sp
  003f0	e92d000f	 stmdb       sp!, {r0 - r3}
  003f4	e92d5000	 stmdb       sp!, {r12, lr}
  003f8	e24dd01c	 sub         sp, sp, #0x1C
  003fc		 |$M35192|

; 188  :     CHcd * const pHcd = (CHcd *)lpvHcd;

  003fc	e59d3024	 ldr         r3, [sp, #0x24]
  00400	e58d3008	 str         r3, [sp, #8]

; 189  :     return pHcd->AbortTransfer(iDevice, iEndpointIndex, lpStartAddress,
; 190  :             lpParameter, lpvCancelId);

  00404	e59d3038	 ldr         r3, [sp, #0x38]
  00408	e58d3004	 str         r3, [sp, #4]
  0040c	e59d3034	 ldr         r3, [sp, #0x34]
  00410	e58d3000	 str         r3, [sp]
  00414	e59d3030	 ldr         r3, [sp, #0x30]
  00418	e59d202c	 ldr         r2, [sp, #0x2C]
  0041c	e59d1028	 ldr         r1, [sp, #0x28]
  00420	e59d0008	 ldr         r0, [sp, #8]
  00424	eb000000	 bl          |?AbortTransfer@CHcd@@QAAHIIP6AKPAX@Z0PBX@Z|
  00428	e58d0018	 str         r0, [sp, #0x18]
  0042c	e59d3018	 ldr         r3, [sp, #0x18]
  00430	e58d3014	 str         r3, [sp, #0x14]

; 191  : }

  00434	e59d0014	 ldr         r0, [sp, #0x14]
  00438	e28dd01c	 add         sp, sp, #0x1C
  0043c	e89d6000	 ldmia       sp, {sp, lr}
  00440	e12fff1e	 bx          lr
  00444		 |$M35193|

			 ENDP  ; |HcdAbortTransfer|


  00058			 AREA	 |.pdata|, PDATA
|$T35201| DCD	|$LN5@HcdDisable|
	DCD	0x40001604
; Function compile flags: /Odtp

  00444			 AREA	 |.text|, CODE, ARM

  00444		 |HcdDisableDevice| PROC

; 193  : {

  00444		 |$LN5@HcdDisable|
  00444	e1a0c00d	 mov         r12, sp
  00448	e92d0007	 stmdb       sp!, {r0 - r2}
  0044c	e92d5000	 stmdb       sp!, {r12, lr}
  00450	e24dd00c	 sub         sp, sp, #0xC
  00454		 |$M35198|

; 194  :     CHcd * const pHcd = (CHcd *)lpvHcd;

  00454	e59d3014	 ldr         r3, [sp, #0x14]
  00458	e58d3000	 str         r3, [sp]

; 195  :     return pHcd->DisableDevice(iDevice,fReset);

  0045c	e59d201c	 ldr         r2, [sp, #0x1C]
  00460	e59d1018	 ldr         r1, [sp, #0x18]
  00464	e59d3000	 ldr         r3, [sp]
  00468	e5933000	 ldr         r3, [r3]
  0046c	e2833028	 add         r3, r3, #0x28
  00470	e59d0000	 ldr         r0, [sp]
  00474	e5933000	 ldr         r3, [r3]
  00478	e1a0e00f	 mov         lr, pc
  0047c	e12fff13	 bx          r3
  00480	e58d0008	 str         r0, [sp, #8]
  00484	e59d3008	 ldr         r3, [sp, #8]
  00488	e58d3004	 str         r3, [sp, #4]

; 196  : }

  0048c	e59d0004	 ldr         r0, [sp, #4]
  00490	e28dd00c	 add         sp, sp, #0xC
  00494	e89d6000	 ldmia       sp, {sp, lr}
  00498	e12fff1e	 bx          lr
  0049c		 |$M35199|

			 ENDP  ; |HcdDisableDevice|


  00060			 AREA	 |.pdata|, PDATA
|$T35207| DCD	|$LN5@HcdSuspend|
	DCD	0x40001604
; Function compile flags: /Odtp

  0049c			 AREA	 |.text|, CODE, ARM

  0049c		 |HcdSuspendResume| PROC

; 199  : {

  0049c		 |$LN5@HcdSuspend|
  0049c	e1a0c00d	 mov         r12, sp
  004a0	e92d0007	 stmdb       sp!, {r0 - r2}
  004a4	e92d5000	 stmdb       sp!, {r12, lr}
  004a8	e24dd00c	 sub         sp, sp, #0xC
  004ac		 |$M35204|

; 200  :     CHcd * const pHcd = (CHcd *)lpvHcd;

  004ac	e59d3014	 ldr         r3, [sp, #0x14]
  004b0	e58d3000	 str         r3, [sp]

; 201  :     return pHcd->SuspendResume(iDevice, fSuspend);

  004b4	e59d201c	 ldr         r2, [sp, #0x1C]
  004b8	e59d1018	 ldr         r1, [sp, #0x18]
  004bc	e59d3000	 ldr         r3, [sp]
  004c0	e5933000	 ldr         r3, [r3]
  004c4	e283302c	 add         r3, r3, #0x2C
  004c8	e59d0000	 ldr         r0, [sp]
  004cc	e5933000	 ldr         r3, [r3]
  004d0	e1a0e00f	 mov         lr, pc
  004d4	e12fff13	 bx          r3
  004d8	e58d0008	 str         r0, [sp, #8]
  004dc	e59d3008	 ldr         r3, [sp, #8]
  004e0	e58d3004	 str         r3, [sp, #4]

; 202  : }

  004e4	e59d0004	 ldr         r0, [sp, #4]
  004e8	e28dd00c	 add         sp, sp, #0xC
  004ec	e89d6000	 ldmia       sp, {sp, lr}
  004f0	e12fff1e	 bx          lr
  004f4		 |$M35205|

			 ENDP  ; |HcdSuspendResume|

	EXPORT	|??_GCPhysMem@@QAAPAXI@Z|		; CPhysMem::`scalar deleting destructor'
	EXPORT	|?InittedOK@CPhysMem@@QAAHXZ|		; CPhysMem::InittedOK
	EXPORT	|??_C@_1FK@FNONLNGN@?$AA?$CF?$AAs?$AA?3?$AA?5?$AAD?$AAE?$AAB?$AAU?$AAG?$AAC?$AAH?$AAK?$AA?5?$AAf?$AAa?$AAi?$AAl?$AAe?$AAd?$AA?5?$AAi?$AAn?$AA?5?$AAf?$AAi?$AAl?$AAe?$AA?5?$AA?$CF?$AAs?$AA?5?$AAa@| [ DATA ] ; `string'
	EXPORT	|??_C@_1BA@LEPJIIOK@?$AAU?$AAn?$AAk?$AAn?$AAo?$AAw?$AAn?$AA?$AA@| [ DATA ] ; `string'
	EXPORT	|??_C@_1KI@IDANKCAG@?$AAC?$AA?3?$AA?2?$AAW?$AAI?$AAN?$AAC?$AAE?$AA6?$AA0?$AA0?$AA?2?$AAP?$AAL?$AAA?$AAT?$AAF?$AAO?$AAR?$AAM?$AA?2?$AAC?$AAO?$AAM?$AAM?$AAO?$AAN?$AA?2?$AAS?$AAR?$AAC?$AA?2@| [ DATA ] ; `string'
	EXPORT	|HcdMdd_CreateMemoryObject|
	IMPORT	|??0CPhysMem@@QAA@KKPAE0@Z|		; CPhysMem::CPhysMem
	IMPORT	|??2@YAPAXI@Z|				; operator new

  00068			 AREA	 |.pdata|, PDATA
|$T35223| DCD	|$LN13@HcdMdd_Cre|
	DCD	0x40004f04

  00000			 AREA	 |.rdata|, DATA, READONLY
|??_C@_1FK@FNONLNGN@?$AA?$CF?$AAs?$AA?3?$AA?5?$AAD?$AAE?$AAB?$AAU?$AAG?$AAC?$AAH?$AAK?$AA?5?$AAf?$AAa?$AAi?$AAl?$AAe?$AAd?$AA?5?$AAi?$AAn?$AA?5?$AAf?$AAi?$AAl?$AAe?$AA?5?$AA?$CF?$AAs?$AA?5?$AAa@| DCB "%"
	DCB	0x0, "s", 0x0, ":", 0x0, " ", 0x0, "D", 0x0, "E", 0x0, "B"
	DCB	0x0, "U", 0x0, "G", 0x0, "C", 0x0, "H", 0x0, "K", 0x0, " "
	DCB	0x0, "f", 0x0, "a", 0x0, "i", 0x0, "l", 0x0, "e", 0x0, "d"
	DCB	0x0, " ", 0x0, "i", 0x0, "n", 0x0, " ", 0x0, "f", 0x0, "i"
	DCB	0x0, "l", 0x0, "e", 0x0, " ", 0x0, "%", 0x0, "s", 0x0, " "
	DCB	0x0, "a", 0x0, "t", 0x0, " ", 0x0, "l", 0x0, "i", 0x0, "n"
	DCB	0x0, "e", 0x0, " ", 0x0, "%", 0x0, "d", 0x0, " ", 0x0, 0xd
	DCB	0x0, 0xa, 0x0, 0x0, 0x0			; `string'

  00000			 AREA	 |.rdata|, DATA, READONLY
|??_C@_1BA@LEPJIIOK@?$AAU?$AAn?$AAk?$AAn?$AAo?$AAw?$AAn?$AA?$AA@| DCB "U", 0x0
	DCB	"n", 0x0, "k", 0x0, "n", 0x0, "o", 0x0, "w", 0x0, "n", 0x0
	DCB	0x0, 0x0				; `string'

  00000			 AREA	 |.rdata|, DATA, READONLY
|??_C@_1KI@IDANKCAG@?$AAC?$AA?3?$AA?2?$AAW?$AAI?$AAN?$AAC?$AAE?$AA6?$AA0?$AA0?$AA?2?$AAP?$AAL?$AAA?$AAT?$AAF?$AAO?$AAR?$AAM?$AA?2?$AAC?$AAO?$AAM?$AAM?$AAO?$AAN?$AA?2?$AAS?$AAR?$AAC?$AA?2@| DCB "C"
	DCB	0x0, ":", 0x0, "\\", 0x0, "W", 0x0, "I", 0x0, "N", 0x0, "C"
	DCB	0x0, "E", 0x0, "6", 0x0, "0", 0x0, "0", 0x0, "\\", 0x0, "P"
	DCB	0x0, "L", 0x0, "A", 0x0, "T", 0x0, "F", 0x0, "O", 0x0, "R"
	DCB	0x0, "M", 0x0, "\\", 0x0, "C", 0x0, "O", 0x0, "M", 0x0, "M"
	DCB	0x0, "O", 0x0, "N", 0x0, "\\", 0x0, "S", 0x0, "R", 0x0, "C"
	DCB	0x0, "\\", 0x0, "S", 0x0, "O", 0x0, "C", 0x0, "\\", 0x0, "C"
	DCB	0x0, "O", 0x0, "M", 0x0, "M", 0x0, "O", 0x0, "N", 0x0, "_"
	DCB	0x0, "T", 0x0, "I", 0x0, "_", 0x0, "V", 0x0, "1", 0x0, "\\"
	DCB	0x0, "C", 0x0, "O", 0x0, "M", 0x0, "M", 0x0, "O", 0x0, "N"
	DCB	0x0, "_", 0x0, "T", 0x0, "I", 0x0, "\\", 0x0, "U", 0x0, "S"
	DCB	0x0, "B", 0x0, "\\", 0x0, "U", 0x0, "S", 0x0, "B", 0x0, "2"
	DCB	0x0, "C", 0x0, "O", 0x0, "M", 0x0, "\\", 0x0, ".", 0x0, "\\"
	DCB	0x0, "h", 0x0, "c", 0x0, "d", 0x0, "d", 0x0, "r", 0x0, "v"
	DCB	0x0, ".", 0x0, "c", 0x0, "p", 0x0, "p", 0x0, 0x0, 0x0 ; `string'
; Function compile flags: /Odtp

  004f4			 AREA	 |.text|, CODE, ARM

  004f4		 |HcdMdd_CreateMemoryObject| PROC

; 240  : {

  004f4		 |$LN13@HcdMdd_Cre|
  004f4	e1a0c00d	 mov         r12, sp
  004f8	e92d000f	 stmdb       sp!, {r0 - r3}
  004fc	e92d5000	 stmdb       sp!, {r12, lr}
  00500	e24dd038	 sub         sp, sp, #0x38
  00504		 |$M35220|

; 241  :     //
; 242  :     // We need at least a USBPAGE for Special allocation and a PAGE for normal
; 243  :     // allocation.
; 244  :     //
; 245  :     ASSERT((cbHighPrioritySize + (2*USBPAGESIZE)) < cbSize);

  00504	e59d3044	 ldr         r3, [sp, #0x44]
  00508	e2832a02	 add         r2, r3, #2, 20
  0050c	e59d3040	 ldr         r3, [sp, #0x40]
  00510	e1520003	 cmp         r2, r3
  00514	2a000002	 bcs         |$LN5@HcdMdd_Cre|
  00518	e3a03001	 mov         r3, #1
  0051c	e58d301c	 str         r3, [sp, #0x1C]
  00520	ea000007	 b           |$LN6@HcdMdd_Cre|
  00524		 |$LN5@HcdMdd_Cre|
  00524	e3a030f5	 mov         r3, #0xF5
  00528	e59f20fc	 ldr         r2, [pc, #0xFC]
  0052c	e59f10f4	 ldr         r1, [pc, #0xF4]
  00530	e59f00ec	 ldr         r0, [pc, #0xEC]
  00534	eb000000	 bl          NKDbgPrintfW
  00538	e6000010	 __debugbreak_ce
  0053c	e3a03000	 mov         r3, #0
  00540	e58d301c	 str         r3, [sp, #0x1C]
  00544		 |$LN6@HcdMdd_Cre|

; 246  : 
; 247  :     CPhysMem * pobMem = new CPhysMem(cbSize,cbHighPrioritySize,pVirtAddr,pPhysAddr);

  00544	e3a00078	 mov         r0, #0x78
  00548	eb000000	 bl          |??2@YAPAXI@Z|
  0054c	e58d0020	 str         r0, [sp, #0x20]
  00550	e59d3020	 ldr         r3, [sp, #0x20]
  00554	e58d3008	 str         r3, [sp, #8]
  00558	e59d3008	 ldr         r3, [sp, #8]
  0055c	e3530000	 cmp         r3, #0
  00560	0a00000a	 beq         |$LN7@HcdMdd_Cre|
  00564	e59d304c	 ldr         r3, [sp, #0x4C]
  00568	e58d3000	 str         r3, [sp]
  0056c	e59d3048	 ldr         r3, [sp, #0x48]
  00570	e59d2044	 ldr         r2, [sp, #0x44]
  00574	e59d1040	 ldr         r1, [sp, #0x40]
  00578	e59d0008	 ldr         r0, [sp, #8]
  0057c	eb000000	 bl          |??0CPhysMem@@QAA@KKPAE0@Z|
  00580	e58d0024	 str         r0, [sp, #0x24]
  00584	e59d3024	 ldr         r3, [sp, #0x24]
  00588	e58d3028	 str         r3, [sp, #0x28]
  0058c	ea000001	 b           |$LN8@HcdMdd_Cre|
  00590		 |$LN7@HcdMdd_Cre|
  00590	e3a03000	 mov         r3, #0
  00594	e58d3028	 str         r3, [sp, #0x28]
  00598		 |$LN8@HcdMdd_Cre|
  00598	e59d3028	 ldr         r3, [sp, #0x28]
  0059c	e58d3004	 str         r3, [sp, #4]

; 248  :     if (pobMem)

  005a0	e59d3004	 ldr         r3, [sp, #4]
  005a4	e3530000	 cmp         r3, #0
  005a8	0a000017	 beq         |$LN2@HcdMdd_Cre|

; 249  :         if ( ! pobMem->InittedOK() ) {

  005ac	e59d0004	 ldr         r0, [sp, #4]
  005b0	eb000000	 bl          |?InittedOK@CPhysMem@@QAAHXZ|
  005b4	e58d002c	 str         r0, [sp, #0x2C]
  005b8	e59d302c	 ldr         r3, [sp, #0x2C]
  005bc	e3530000	 cmp         r3, #0
  005c0	1a000011	 bne         |$LN1@HcdMdd_Cre|

; 250  :             delete pobMem;

  005c4	e59d3004	 ldr         r3, [sp, #4]
  005c8	e58d3010	 str         r3, [sp, #0x10]
  005cc	e59d3010	 ldr         r3, [sp, #0x10]
  005d0	e58d300c	 str         r3, [sp, #0xC]
  005d4	e59d300c	 ldr         r3, [sp, #0xC]
  005d8	e3530000	 cmp         r3, #0
  005dc	0a000006	 beq         |$LN9@HcdMdd_Cre|
  005e0	e3a01001	 mov         r1, #1
  005e4	e59d000c	 ldr         r0, [sp, #0xC]
  005e8	eb000000	 bl          |??_GCPhysMem@@QAAPAXI@Z|
  005ec	e58d0030	 str         r0, [sp, #0x30]
  005f0	e59d3030	 ldr         r3, [sp, #0x30]
  005f4	e58d3034	 str         r3, [sp, #0x34]
  005f8	ea000001	 b           |$LN10@HcdMdd_Cre|
  005fc		 |$LN9@HcdMdd_Cre|
  005fc	e3a03000	 mov         r3, #0
  00600	e58d3034	 str         r3, [sp, #0x34]
  00604		 |$LN10@HcdMdd_Cre|

; 251  :             pobMem = 0;

  00604	e3a03000	 mov         r3, #0
  00608	e58d3004	 str         r3, [sp, #4]
  0060c		 |$LN1@HcdMdd_Cre|
  0060c		 |$LN2@HcdMdd_Cre|

; 252  :         }
; 253  : 
; 254  :     return pobMem;

  0060c	e59d3004	 ldr         r3, [sp, #4]
  00610	e58d3018	 str         r3, [sp, #0x18]

; 255  : }

  00614	e59d0018	 ldr         r0, [sp, #0x18]
  00618	e28dd038	 add         sp, sp, #0x38
  0061c	e89d6000	 ldmia       sp, {sp, lr}
  00620	e12fff1e	 bx          lr
  00624		 |$LN14@HcdMdd_Cre|
  00624		 |$LN15@HcdMdd_Cre|
  00624	00000000	 DCD         |??_C@_1FK@FNONLNGN@?$AA?$CF?$AAs?$AA?3?$AA?5?$AAD?$AAE?$AAB?$AAU?$AAG?$AAC?$AAH?$AAK?$AA?5?$AAf?$AAa?$AAi?$AAl?$AAe?$AAd?$AA?5?$AAi?$AAn?$AA?5?$AAf?$AAi?$AAl?$AAe?$AA?5?$AA?$CF?$AAs?$AA?5?$AAa@|
  00628		 |$LN16@HcdMdd_Cre|
  00628	00000000	 DCD         |??_C@_1BA@LEPJIIOK@?$AAU?$AAn?$AAk?$AAn?$AAo?$AAw?$AAn?$AA?$AA@|
  0062c		 |$LN17@HcdMdd_Cre|
  0062c	00000000	 DCD         |??_C@_1KI@IDANKCAG@?$AAC?$AA?3?$AA?2?$AAW?$AAI?$AAN?$AAC?$AAE?$AA6?$AA0?$AA0?$AA?2?$AAP?$AAL?$AAA?$AAT?$AAF?$AAO?$AAR?$AAM?$AA?2?$AAC?$AAO?$AAM?$AAM?$AAO?$AAN?$AA?2?$AAS?$AAR?$AAC?$AA?2@|
  00630		 |$M35221|

			 ENDP  ; |HcdMdd_CreateMemoryObject|

; File c:\wince600\platform\common\src\soc\common_ti_v1\common_ti\usb\usb2com\cphysmem.hpp

  00000			 AREA	 |.pdata|, PDATA
|$T35233| DCD	|$LN5@InittedOK|
	DCD	0x40000c04
; Function compile flags: /Odtp

  00000			 AREA	 |.text|, CODE, ARM

  00000		 |?InittedOK@CPhysMem@@QAAHXZ| PROC	; CPhysMem::InittedOK

; 128  :     InittedOK() { return m_fInitted; };

  00000		 |$LN5@InittedOK|
  00000	e1a0c00d	 mov         r12, sp
  00004	e92d0001	 stmdb       sp!, {r0}
  00008	e92d5000	 stmdb       sp!, {r12, lr}
  0000c	e24dd004	 sub         sp, sp, #4
  00010		 |$M35230|
  00010	e59d300c	 ldr         r3, [sp, #0xC]
  00014	e2833024	 add         r3, r3, #0x24
  00018	e5933000	 ldr         r3, [r3]
  0001c	e58d3000	 str         r3, [sp]
  00020	e59d0000	 ldr         r0, [sp]
  00024	e28dd004	 add         sp, sp, #4
  00028	e89d6000	 ldmia       sp, {sp, lr}
  0002c	e12fff1e	 bx          lr
  00030		 |$M35231|

			 ENDP  ; |?InittedOK@CPhysMem@@QAAHXZ|, CPhysMem::InittedOK

	IMPORT	|??3@YAXPAX@Z|				; operator delete
	IMPORT	|??1CPhysMem@@QAA@XZ|			; CPhysMem::~CPhysMem

  00000			 AREA	 |.pdata|, PDATA
|$T35241| DCD	|$LN6@scalar|
	DCD	0x40001104
; Function compile flags: /Odtp

  00000			 AREA	 |.text|, CODE, ARM

  00000		 |??_GCPhysMem@@QAAPAXI@Z| PROC		; CPhysMem::`scalar deleting destructor'
  00000		 |$LN6@scalar|
  00000	e1a0c00d	 mov         r12, sp
  00004	e92d0003	 stmdb       sp!, {r0, r1}
  00008	e92d5000	 stmdb       sp!, {r12, lr}
  0000c	e24dd004	 sub         sp, sp, #4
  00010		 |$M35238|
  00010	e59d000c	 ldr         r0, [sp, #0xC]
  00014	eb000000	 bl          |??1CPhysMem@@QAA@XZ|
  00018	e59d3010	 ldr         r3, [sp, #0x10]
  0001c	e3130001	 tst         r3, #1
  00020	0a000001	 beq         |$LN1@scalar|
  00024	e59d000c	 ldr         r0, [sp, #0xC]
  00028	eb000000	 bl          |??3@YAXPAX@Z|
  0002c		 |$LN1@scalar|
  0002c	e59d300c	 ldr         r3, [sp, #0xC]
  00030	e58d3000	 str         r3, [sp]
  00034	e59d0000	 ldr         r0, [sp]
  00038	e28dd004	 add         sp, sp, #4
  0003c	e89d6000	 ldmia       sp, {sp, lr}
  00040	e12fff1e	 bx          lr
  00044		 |$M35239|

			 ENDP  ; |??_GCPhysMem@@QAAPAXI@Z|, CPhysMem::`scalar deleting destructor'

	EXPORT	|HcdMdd_CreateHcdObject|
	IMPORT	|?CreateHCDObject@@YAPAVCHcd@@PAXPAVCPhysMem@@PBGRAEK@Z| ; CreateHCDObject

  00070			 AREA	 |.pdata|, PDATA
|$T35254| DCD	|$LN9@HcdMdd_Cre@2|
	DCD	0x40003904
; Function compile flags: /Odtp
; File c:\wince600\platform\common\src\soc\common_ti_v1\common_ti\usb\usb2com\hcddrv.cpp

  00630			 AREA	 |.text|, CODE, ARM

  00630		 |HcdMdd_CreateHcdObject| PROC

; 260  : {

  00630		 |$LN9@HcdMdd_Cre@2|
  00630	e1a0c00d	 mov         r12, sp
  00634	e92d000f	 stmdb       sp!, {r0 - r3}
  00638	e92d5000	 stmdb       sp!, {r12, lr}
  0063c	e24dd028	 sub         sp, sp, #0x28
  00640		 |$M35251|

; 261  :     CHcd * pobUhcd = CreateHCDObject(lpvUhcdPddObject,(CPhysMem *)lpvMemoryObject,szRegKey,ioPortBase,dwSysIntr);

  00640	e59d3040	 ldr         r3, [sp, #0x40]
  00644	e58d3000	 str         r3, [sp]
  00648	e59d303c	 ldr         r3, [sp, #0x3C]
  0064c	e59d2038	 ldr         r2, [sp, #0x38]
  00650	e59d1034	 ldr         r1, [sp, #0x34]
  00654	e59d0030	 ldr         r0, [sp, #0x30]
  00658	eb000000	 bl          |?CreateHCDObject@@YAPAVCHcd@@PAXPAVCPhysMem@@PBGRAEK@Z|
  0065c	e58d0018	 str         r0, [sp, #0x18]
  00660	e59d3018	 ldr         r3, [sp, #0x18]
  00664	e58d3004	 str         r3, [sp, #4]

; 262  :     
; 263  :     if ( pobUhcd != NULL ) {

  00668	e59d3004	 ldr         r3, [sp, #4]
  0066c	e3530000	 cmp         r3, #0
  00670	0a000021	 beq         |$LN2@HcdMdd_Cre@2|

; 264  :         if ( !pobUhcd->DeviceInitialize( )) {

  00674	e59d3004	 ldr         r3, [sp, #4]
  00678	e5933000	 ldr         r3, [r3]
  0067c	e283300c	 add         r3, r3, #0xC
  00680	e59d0004	 ldr         r0, [sp, #4]
  00684	e5933000	 ldr         r3, [r3]
  00688	e1a0e00f	 mov         lr, pc
  0068c	e12fff13	 bx          r3
  00690	e58d001c	 str         r0, [sp, #0x1C]
  00694	e59d301c	 ldr         r3, [sp, #0x1C]
  00698	e3530000	 cmp         r3, #0
  0069c	1a000016	 bne         |$LN1@HcdMdd_Cre@2|

; 265  :             delete pobUhcd;

  006a0	e59d3004	 ldr         r3, [sp, #4]
  006a4	e58d300c	 str         r3, [sp, #0xC]
  006a8	e59d300c	 ldr         r3, [sp, #0xC]
  006ac	e58d3008	 str         r3, [sp, #8]
  006b0	e59d3008	 ldr         r3, [sp, #8]
  006b4	e3530000	 cmp         r3, #0
  006b8	0a00000b	 beq         |$LN5@HcdMdd_Cre@2|
  006bc	e3a01001	 mov         r1, #1
  006c0	e59d3008	 ldr         r3, [sp, #8]
  006c4	e5933000	 ldr         r3, [r3]
  006c8	e2833008	 add         r3, r3, #8
  006cc	e59d0008	 ldr         r0, [sp, #8]
  006d0	e5933000	 ldr         r3, [r3]
  006d4	e1a0e00f	 mov         lr, pc
  006d8	e12fff13	 bx          r3
  006dc	e58d0020	 str         r0, [sp, #0x20]
  006e0	e59d3020	 ldr         r3, [sp, #0x20]
  006e4	e58d3024	 str         r3, [sp, #0x24]
  006e8	ea000001	 b           |$LN6@HcdMdd_Cre@2|
  006ec		 |$LN5@HcdMdd_Cre@2|
  006ec	e3a03000	 mov         r3, #0
  006f0	e58d3024	 str         r3, [sp, #0x24]
  006f4		 |$LN6@HcdMdd_Cre@2|

; 266  :             pobUhcd = NULL;

  006f4	e3a03000	 mov         r3, #0
  006f8	e58d3004	 str         r3, [sp, #4]
  006fc		 |$LN1@HcdMdd_Cre@2|
  006fc		 |$LN2@HcdMdd_Cre@2|

; 267  :         }
; 268  :     }
; 269  : 
; 270  :     return pobUhcd;

  006fc	e59d3004	 ldr         r3, [sp, #4]
  00700	e58d3014	 str         r3, [sp, #0x14]

; 271  : }

  00704	e59d0014	 ldr         r0, [sp, #0x14]
  00708	e28dd028	 add         sp, sp, #0x28
  0070c	e89d6000	 ldmia       sp, {sp, lr}
  00710	e12fff1e	 bx          lr
  00714		 |$M35252|

			 ENDP  ; |HcdMdd_CreateHcdObject|

	EXPORT	|HcdMdd_DestroyHcdObject|

  00078			 AREA	 |.pdata|, PDATA
|$T35264| DCD	|$LN7@HcdMdd_Des|
	DCD	0x40002104
; Function compile flags: /Odtp

  00714			 AREA	 |.text|, CODE, ARM

  00714		 |HcdMdd_DestroyHcdObject| PROC

; 274  : {

  00714		 |$LN7@HcdMdd_Des|
  00714	e1a0c00d	 mov         r12, sp
  00718	e92d0001	 stmdb       sp!, {r0}
  0071c	e92d5000	 stmdb       sp!, {r12, lr}
  00720	e24dd018	 sub         sp, sp, #0x18
  00724		 |$M35261|

; 275  :     CHcd * pobUhcd = (CHcd *)lpvUhcdObject;

  00724	e59d3020	 ldr         r3, [sp, #0x20]
  00728	e58d3000	 str         r3, [sp]

; 276  :     delete pobUhcd;

  0072c	e59d3000	 ldr         r3, [sp]
  00730	e58d3008	 str         r3, [sp, #8]
  00734	e59d3008	 ldr         r3, [sp, #8]
  00738	e58d3004	 str         r3, [sp, #4]
  0073c	e59d3004	 ldr         r3, [sp, #4]
  00740	e3530000	 cmp         r3, #0
  00744	0a00000b	 beq         |$LN3@HcdMdd_Des|
  00748	e3a01001	 mov         r1, #1
  0074c	e59d3004	 ldr         r3, [sp, #4]
  00750	e5933000	 ldr         r3, [r3]
  00754	e2833008	 add         r3, r3, #8
  00758	e59d0004	 ldr         r0, [sp, #4]
  0075c	e5933000	 ldr         r3, [r3]
  00760	e1a0e00f	 mov         lr, pc
  00764	e12fff13	 bx          r3
  00768	e58d0010	 str         r0, [sp, #0x10]
  0076c	e59d3010	 ldr         r3, [sp, #0x10]
  00770	e58d3014	 str         r3, [sp, #0x14]
  00774	ea000001	 b           |$LN4@HcdMdd_Des|
  00778		 |$LN3@HcdMdd_Des|
  00778	e3a03000	 mov         r3, #0
  0077c	e58d3014	 str         r3, [sp, #0x14]
  00780		 |$LN4@HcdMdd_Des|

; 277  : 
; 278  :     return TRUE;

  00780	e3a03001	 mov         r3, #1
  00784	e58d300c	 str         r3, [sp, #0xC]

; 279  : }

  00788	e59d000c	 ldr         r0, [sp, #0xC]
  0078c	e28dd018	 add         sp, sp, #0x18
  00790	e89d6000	 ldmia       sp, {sp, lr}
  00794	e12fff1e	 bx          lr
  00798		 |$M35262|

			 ENDP  ; |HcdMdd_DestroyHcdObject|

	EXPORT	|HcdMdd_DestroyMemoryObject|

  00080			 AREA	 |.pdata|, PDATA
|$T35274| DCD	|$LN7@HcdMdd_Des@2|
	DCD	0x40001c04
; Function compile flags: /Odtp

  00798			 AREA	 |.text|, CODE, ARM

  00798		 |HcdMdd_DestroyMemoryObject| PROC

; 282  : {

  00798		 |$LN7@HcdMdd_Des@2|
  00798	e1a0c00d	 mov         r12, sp
  0079c	e92d0001	 stmdb       sp!, {r0}
  007a0	e92d5000	 stmdb       sp!, {r12, lr}
  007a4	e24dd018	 sub         sp, sp, #0x18
  007a8		 |$M35271|

; 283  :     CPhysMem * pobMem = (CPhysMem *)lpvMemoryObject;

  007a8	e59d3020	 ldr         r3, [sp, #0x20]
  007ac	e58d3000	 str         r3, [sp]

; 284  :     delete pobMem;

  007b0	e59d3000	 ldr         r3, [sp]
  007b4	e58d3008	 str         r3, [sp, #8]
  007b8	e59d3008	 ldr         r3, [sp, #8]
  007bc	e58d3004	 str         r3, [sp, #4]
  007c0	e59d3004	 ldr         r3, [sp, #4]
  007c4	e3530000	 cmp         r3, #0
  007c8	0a000006	 beq         |$LN3@HcdMdd_Des@2|
  007cc	e3a01001	 mov         r1, #1
  007d0	e59d0004	 ldr         r0, [sp, #4]
  007d4	eb000000	 bl          |??_GCPhysMem@@QAAPAXI@Z|
  007d8	e58d0010	 str         r0, [sp, #0x10]
  007dc	e59d3010	 ldr         r3, [sp, #0x10]
  007e0	e58d3014	 str         r3, [sp, #0x14]
  007e4	ea000001	 b           |$LN4@HcdMdd_Des@2|
  007e8		 |$LN3@HcdMdd_Des@2|
  007e8	e3a03000	 mov         r3, #0
  007ec	e58d3014	 str         r3, [sp, #0x14]
  007f0		 |$LN4@HcdMdd_Des@2|

; 285  : 
; 286  :     return TRUE;

  007f0	e3a03001	 mov         r3, #1
  007f4	e58d300c	 str         r3, [sp, #0xC]

; 287  : }

  007f8	e59d000c	 ldr         r0, [sp, #0xC]
  007fc	e28dd018	 add         sp, sp, #0x18
  00800	e89d6000	 ldmia       sp, {sp, lr}
  00804	e12fff1e	 bx          lr
  00808		 |$M35272|

			 ENDP  ; |HcdMdd_DestroyMemoryObject|

	EXPORT	|HcdMdd_PowerUp|

  00088			 AREA	 |.pdata|, PDATA
|$T35280| DCD	|$LN5@HcdMdd_Pow|
	DCD	0x40001404
; Function compile flags: /Odtp

  00808			 AREA	 |.text|, CODE, ARM

  00808		 |HcdMdd_PowerUp| PROC

; 290  : {

  00808		 |$LN5@HcdMdd_Pow|
  00808	e1a0c00d	 mov         r12, sp
  0080c	e92d0001	 stmdb       sp!, {r0}
  00810	e92d5000	 stmdb       sp!, {r12, lr}
  00814	e24dd008	 sub         sp, sp, #8
  00818		 |$M35277|

; 291  :     CHcd * pobUhcd = (CHcd *)lpvUhcdObject;

  00818	e59d3010	 ldr         r3, [sp, #0x10]
  0081c	e58d3000	 str         r3, [sp]

; 292  :     pobUhcd->PowerMgmtCallback(FALSE);

  00820	e3a01000	 mov         r1, #0
  00824	e59d3000	 ldr         r3, [sp]
  00828	e5933000	 ldr         r3, [r3]
  0082c	e2833024	 add         r3, r3, #0x24
  00830	e59d0000	 ldr         r0, [sp]
  00834	e5933000	 ldr         r3, [r3]
  00838	e1a0e00f	 mov         lr, pc
  0083c	e12fff13	 bx          r3

; 293  : 
; 294  :     return TRUE;

  00840	e3a03001	 mov         r3, #1
  00844	e58d3004	 str         r3, [sp, #4]

; 295  : }

  00848	e59d0004	 ldr         r0, [sp, #4]
  0084c	e28dd008	 add         sp, sp, #8
  00850	e89d6000	 ldmia       sp, {sp, lr}
  00854	e12fff1e	 bx          lr
  00858		 |$M35278|

			 ENDP  ; |HcdMdd_PowerUp|

	EXPORT	|HcdMdd_PowerDown|

  00090			 AREA	 |.pdata|, PDATA
|$T35286| DCD	|$LN5@HcdMdd_Pow@2|
	DCD	0x40001404
; Function compile flags: /Odtp

  00858			 AREA	 |.text|, CODE, ARM

  00858		 |HcdMdd_PowerDown| PROC

; 298  : {

  00858		 |$LN5@HcdMdd_Pow@2|
  00858	e1a0c00d	 mov         r12, sp
  0085c	e92d0001	 stmdb       sp!, {r0}
  00860	e92d5000	 stmdb       sp!, {r12, lr}
  00864	e24dd008	 sub         sp, sp, #8
  00868		 |$M35283|

; 299  :     CHcd * pobUhcd = (CHcd *)lpvUhcdObject;

  00868	e59d3010	 ldr         r3, [sp, #0x10]
  0086c	e58d3000	 str         r3, [sp]

; 300  :     pobUhcd->PowerMgmtCallback(TRUE);

  00870	e3a01001	 mov         r1, #1
  00874	e59d3000	 ldr         r3, [sp]
  00878	e5933000	 ldr         r3, [r3]
  0087c	e2833024	 add         r3, r3, #0x24
  00880	e59d0000	 ldr         r0, [sp]
  00884	e5933000	 ldr         r3, [r3]
  00888	e1a0e00f	 mov         lr, pc
  0088c	e12fff13	 bx          r3

; 301  : 
; 302  :     return TRUE;

  00890	e3a03001	 mov         r3, #1
  00894	e58d3004	 str         r3, [sp, #4]

; 303  : }

  00898	e59d0004	 ldr         r0, [sp, #4]
  0089c	e28dd008	 add         sp, sp, #8
  008a0	e89d6000	 ldmia       sp, {sp, lr}
  008a4	e12fff1e	 bx          lr
  008a8		 |$M35284|

			 ENDP  ; |HcdMdd_PowerDown|

	EXPORT	|HcdMdd_SetCapability|

  00098			 AREA	 |.pdata|, PDATA
|$T35292| DCD	|$LN5@HcdMdd_Set|
	DCD	0x40001504
; Function compile flags: /Odtp

  008a8			 AREA	 |.text|, CODE, ARM

  008a8		 |HcdMdd_SetCapability| PROC

; 306  : {

  008a8		 |$LN5@HcdMdd_Set|
  008a8	e1a0c00d	 mov         r12, sp
  008ac	e92d0003	 stmdb       sp!, {r0, r1}
  008b0	e92d5000	 stmdb       sp!, {r12, lr}
  008b4	e24dd00c	 sub         sp, sp, #0xC
  008b8		 |$M35289|

; 307  :     CHcd * pobUhcd = (CHcd *)lpvUhcdObject;

  008b8	e59d3014	 ldr         r3, [sp, #0x14]
  008bc	e58d3000	 str         r3, [sp]

; 308  :     return pobUhcd->SetCapability(dwCapability);

  008c0	e59d1018	 ldr         r1, [sp, #0x18]
  008c4	e59d3000	 ldr         r3, [sp]
  008c8	e5933000	 ldr         r3, [r3]
  008cc	e2833048	 add         r3, r3, #0x48
  008d0	e59d0000	 ldr         r0, [sp]
  008d4	e5933000	 ldr         r3, [r3]
  008d8	e1a0e00f	 mov         lr, pc
  008dc	e12fff13	 bx          r3
  008e0	e58d0008	 str         r0, [sp, #8]
  008e4	e59d3008	 ldr         r3, [sp, #8]
  008e8	e58d3004	 str         r3, [sp, #4]

; 309  : }

  008ec	e59d0004	 ldr         r0, [sp, #4]
  008f0	e28dd00c	 add         sp, sp, #0xC
  008f4	e89d6000	 ldmia       sp, {sp, lr}
  008f8	e12fff1e	 bx          lr
  008fc		 |$M35290|

			 ENDP  ; |HcdMdd_SetCapability|

	EXPORT	|??_C@_1GG@BEPGMBBL@?$AAE?$AAH?$AAC?$AAD?$AA?$CB?$AAH?$AAC?$AAD?$AA_?$AAI?$AAn?$AAi?$AAt?$AA?5?$AAR?$AAe?$AAg?$AAQ?$AAu?$AAe?$AAr?$AAy?$AAV?$AAa?$AAl?$AAu?$AAe?$AAE?$AAx?$AA?$CI?$AA?$CF?$AAs@| [ DATA ] ; `string'
	EXPORT	|??_C@_17KACEIPNC@?$AAK?$AAe?$AAy?$AA?$AA@| [ DATA ] ; `string'
	EXPORT	|??_C@_1FM@DDECOKKC@?$AAE?$AAH?$AAC?$AAD?$AA?$CB?$AAH?$AAC?$AAD?$AA_?$AAI?$AAn?$AAi?$AAt?$AA?5?$AAR?$AAe?$AAg?$AAO?$AAp?$AAe?$AAn?$AAK?$AAe?$AAy?$AAE?$AAx?$AA?$CI?$AA?$CF?$AAs?$AA?$CJ?$AA?5?$AAr@| [ DATA ] ; `string'
	EXPORT	|??_C@_1CA@CLOGNIBH@?$AAE?$AAH?$AAC?$AAD?$AA?$CB?$AAH?$AAC?$AAD?$AA_?$AAI?$AAn?$AAi?$AAt?$AA?$AN?$AA?6?$AA?$AA@| [ DATA ] ; `string'
	EXPORT	|__$ArrayPad$| [ DATA ]
	EXPORT	|HCD_Init|
	IMPORT	|LeaveCriticalSection|
	IMPORT	|HcdPdd_Init|
	IMPORT	|EnterCriticalSection|
	IMPORT	|RegCloseKey|
	IMPORT	|RegQueryValueExW|
	IMPORT	|RegOpenKeyExW|
	IMPORT	|__security_cookie|
	IMPORT	|__GSHandlerCheck|
	IMPORT	|__security_check_cookie|

  000a0			 AREA	 |.pdata|, PDATA
|$T35312| DCD	|$LN13@HCD_Init|
	DCD	0xc0008a04

  00000			 AREA	 |.rdata|, DATA, READONLY
|??_C@_1GG@BEPGMBBL@?$AAE?$AAH?$AAC?$AAD?$AA?$CB?$AAH?$AAC?$AAD?$AA_?$AAI?$AAn?$AAi?$AAt?$AA?5?$AAR?$AAe?$AAg?$AAQ?$AAu?$AAe?$AAr?$AAy?$AAV?$AAa?$AAl?$AAu?$AAe?$AAE?$AAx?$AA?$CI?$AA?$CF?$AAs@| DCB "E"
	DCB	0x0, "H", 0x0, "C", 0x0, "D", 0x0, "!", 0x0, "H", 0x0, "C"
	DCB	0x0, "D", 0x0, "_", 0x0, "I", 0x0, "n", 0x0, "i", 0x0, "t"
	DCB	0x0, " ", 0x0, "R", 0x0, "e", 0x0, "g", 0x0, "Q", 0x0, "u"
	DCB	0x0, "e", 0x0, "r", 0x0, "y", 0x0, "V", 0x0, "a", 0x0, "l"
	DCB	0x0, "u", 0x0, "e", 0x0, "E", 0x0, "x", 0x0, "(", 0x0, "%"
	DCB	0x0, "s", 0x0, "\\", 0x0, "%", 0x0, "s", 0x0, ")", 0x0, " "
	DCB	0x0, "r", 0x0, "e", 0x0, "t", 0x0, "u", 0x0, "r", 0x0, "n"
	DCB	0x0, "e", 0x0, "d", 0x0, " ", 0x0, "%", 0x0, "d", 0x0, 0xd
	DCB	0x0, 0xa, 0x0, 0x0, 0x0			; `string'

  00000			 AREA	 |.rdata|, DATA, READONLY
|??_C@_17KACEIPNC@?$AAK?$AAe?$AAy?$AA?$AA@| DCB "K", 0x0, "e", 0x0, "y", 0x0
	DCB	0x0, 0x0				; `string'

  00000			 AREA	 |.rdata|, DATA, READONLY
|??_C@_1FM@DDECOKKC@?$AAE?$AAH?$AAC?$AAD?$AA?$CB?$AAH?$AAC?$AAD?$AA_?$AAI?$AAn?$AAi?$AAt?$AA?5?$AAR?$AAe?$AAg?$AAO?$AAp?$AAe?$AAn?$AAK?$AAe?$AAy?$AAE?$AAx?$AA?$CI?$AA?$CF?$AAs?$AA?$CJ?$AA?5?$AAr@| DCB "E"
	DCB	0x0, "H", 0x0, "C", 0x0, "D", 0x0, "!", 0x0, "H", 0x0, "C"
	DCB	0x0, "D", 0x0, "_", 0x0, "I", 0x0, "n", 0x0, "i", 0x0, "t"
	DCB	0x0, " ", 0x0, "R", 0x0, "e", 0x0, "g", 0x0, "O", 0x0, "p"
	DCB	0x0, "e", 0x0, "n", 0x0, "K", 0x0, "e", 0x0, "y", 0x0, "E"
	DCB	0x0, "x", 0x0, "(", 0x0, "%", 0x0, "s", 0x0, ")", 0x0, " "
	DCB	0x0, "r", 0x0, "e", 0x0, "t", 0x0, "u", 0x0, "r", 0x0, "n"
	DCB	0x0, "e", 0x0, "d", 0x0, " ", 0x0, "%", 0x0, "d", 0x0, "."
	DCB	0x0, 0xd, 0x0, 0xa, 0x0, 0x0, 0x0	; `string'

  00000			 AREA	 |.rdata|, DATA, READONLY
|??_C@_1CA@CLOGNIBH@?$AAE?$AAH?$AAC?$AAD?$AA?$CB?$AAH?$AAC?$AAD?$AA_?$AAI?$AAn?$AAi?$AAt?$AA?$AN?$AA?6?$AA?$AA@| DCB "E"
	DCB	0x0, "H", 0x0, "C", 0x0, "D", 0x0, "!", 0x0, "H", 0x0, "C"
	DCB	0x0, "D", 0x0, "_", 0x0, "I", 0x0, "n", 0x0, "i", 0x0, "t"
	DCB	0x0, 0xd, 0x0, 0xa, 0x0, 0x0, 0x0	; `string'

  00000			 AREA	 |.xdata|, DATA
|$T35308| DCD	0xffffffc4
; Function compile flags: /Odtp

  008fc			 AREA	 |.text|, CODE, ARM

  008fc	00000000	 DCD         |__GSHandlerCheck|
  00900	00000000	 DCD         |$T35308|

  00904		 |HCD_Init| PROC

; 319  : {

  00904		 |$LN13@HCD_Init|
  00904	e1a0c00d	 mov         r12, sp
  00908	e92d0001	 stmdb       sp!, {r0}
  0090c	e92d5000	 stmdb       sp!, {r12, lr}
  00910	e24ddf93	 sub         sp, sp, #0x93, 30
  00914		 |$M35309|
  00914	e59f320c	 ldr         r3, [pc, #0x20C]
  00918	e5933000	 ldr         r3, [r3]
  0091c	e58d321c	 str         r3, [sp, #0x21C]

; 320  :     HKEY ActiveKey;
; 321  :     WCHAR RegKeyPath[DEVKEY_LEN];
; 322  :     DWORD status;
; 323  :     DWORD ValType;
; 324  :     DWORD ValLen;
; 325  : 
; 326  :     DEBUGMSG (ZONE_INIT, (TEXT("EHCD!HCD_Init\r\n")));

  00920	e59f31f4	 ldr         r3, [pc, #0x1F4]
  00924	e5933440	 ldr         r3, [r3, #0x440]
  00928	e3130002	 tst         r3, #2
  0092c	0a000004	 beq         |$LN5@HCD_Init|
  00930	e59f01ec	 ldr         r0, [pc, #0x1EC]
  00934	eb000000	 bl          NKDbgPrintfW
  00938	e3a03001	 mov         r3, #1
  0093c	e58d3230	 str         r3, [sp, #0x230]
  00940	ea000001	 b           |$LN6@HCD_Init|
  00944		 |$LN5@HCD_Init|
  00944	e3a03000	 mov         r3, #0
  00948	e58d3230	 str         r3, [sp, #0x230]
  0094c		 |$LN6@HCD_Init|

; 327  : 
; 328  :     
; 329  :     // Open driver's ACTIVE key
; 330  :     status = RegOpenKeyEx(
; 331  :                 HKEY_LOCAL_MACHINE,
; 332  :                 (LPCWSTR)dwContext,
; 333  :                 0,
; 334  :                 0,
; 335  :                 &ActiveKey);

  0094c	e28d3014	 add         r3, sp, #0x14
  00950	e58d3000	 str         r3, [sp]
  00954	e3a03000	 mov         r3, #0
  00958	e3a02000	 mov         r2, #0
  0095c	e59d1254	 ldr         r1, [sp, #0x254]
  00960	e3a0010a	 mov         r0, #0xA, 2
  00964	eb000000	 bl          RegOpenKeyExW
  00968	e58d0234	 str         r0, [sp, #0x234]
  0096c	e59d3234	 ldr         r3, [sp, #0x234]
  00970	e58d3218	 str         r3, [sp, #0x218]

; 336  :     if (status != ERROR_SUCCESS) {

  00974	e59d3218	 ldr         r3, [sp, #0x218]
  00978	e3530000	 cmp         r3, #0
  0097c	0a000015	 beq         |$LN2@HCD_Init|

; 337  :         DEBUGMSG(ZONE_INIT|ZONE_ERROR,
; 338  :             (TEXT("EHCD!HCD_Init RegOpenKeyEx(%s) returned %d.\r\n"),
; 339  :             (LPCWSTR)dwContext, status));

  00980	e59f3194	 ldr         r3, [pc, #0x194]
  00984	e5933440	 ldr         r3, [r3, #0x440]
  00988	e2032002	 and         r2, r3, #2
  0098c	e59f3188	 ldr         r3, [pc, #0x188]
  00990	e5933440	 ldr         r3, [r3, #0x440]
  00994	e2033901	 and         r3, r3, #1, 18
  00998	e1923003	 orrs        r3, r2, r3
  0099c	0a000006	 beq         |$LN7@HCD_Init|
  009a0	e59d2218	 ldr         r2, [sp, #0x218]
  009a4	e59d1254	 ldr         r1, [sp, #0x254]
  009a8	e59f0170	 ldr         r0, [pc, #0x170]
  009ac	eb000000	 bl          NKDbgPrintfW
  009b0	e3a03001	 mov         r3, #1
  009b4	e58d3238	 str         r3, [sp, #0x238]
  009b8	ea000001	 b           |$LN8@HCD_Init|
  009bc		 |$LN7@HCD_Init|
  009bc	e3a03000	 mov         r3, #0
  009c0	e58d3238	 str         r3, [sp, #0x238]
  009c4		 |$LN8@HCD_Init|

; 340  :         return NULL;

  009c4	e59d021c	 ldr         r0, [sp, #0x21C]
  009c8	eb000000	 bl          __security_check_cookie
  009cc	e3a03000	 mov         r3, #0
  009d0	e58d3224	 str         r3, [sp, #0x224]
  009d4	ea000047	 b           |$LN3@HCD_Init|
  009d8		 |$LN2@HCD_Init|

; 341  :     }
; 342  : 
; 343  :     // Get Key value, which points to driver's key
; 344  :     ValLen = sizeof(RegKeyPath);

  009d8	e3a03c02	 mov         r3, #2, 24
  009dc	e58d3008	 str         r3, [sp, #8]

; 345  :     status = RegQueryValueEx(
; 346  :                 ActiveKey,
; 347  :                 DEVLOAD_DEVKEY_VALNAME,
; 348  :                 NULL,
; 349  :                 &ValType,
; 350  :                 (PUCHAR)RegKeyPath,
; 351  :                 &ValLen);

  009e0	e28d3008	 add         r3, sp, #8
  009e4	e58d3004	 str         r3, [sp, #4]
  009e8	e28d3018	 add         r3, sp, #0x18
  009ec	e58d3000	 str         r3, [sp]
  009f0	e28d3010	 add         r3, sp, #0x10
  009f4	e3a02000	 mov         r2, #0
  009f8	e59f1118	 ldr         r1, [pc, #0x118]
  009fc	e59d0014	 ldr         r0, [sp, #0x14]
  00a00	eb000000	 bl          RegQueryValueExW
  00a04	e58d023c	 str         r0, [sp, #0x23C]
  00a08	e59d323c	 ldr         r3, [sp, #0x23C]
  00a0c	e58d3218	 str         r3, [sp, #0x218]

; 352  :     if (status != ERROR_SUCCESS) {

  00a10	e59d3218	 ldr         r3, [sp, #0x218]
  00a14	e3530000	 cmp         r3, #0
  00a18	0a000018	 beq         |$LN1@HCD_Init|

; 353  :         DEBUGMSG(ZONE_INIT|ZONE_ERROR,
; 354  :             (TEXT("EHCD!HCD_Init RegQueryValueEx(%s\\%s) returned %d\r\n"),
; 355  :             (LPCWSTR)dwContext, DEVLOAD_DEVKEY_VALNAME, status));

  00a1c	e59f30f8	 ldr         r3, [pc, #0xF8]
  00a20	e5933440	 ldr         r3, [r3, #0x440]
  00a24	e2032002	 and         r2, r3, #2
  00a28	e59f30ec	 ldr         r3, [pc, #0xEC]
  00a2c	e5933440	 ldr         r3, [r3, #0x440]
  00a30	e2033901	 and         r3, r3, #1, 18
  00a34	e1923003	 orrs        r3, r2, r3
  00a38	0a000007	 beq         |$LN9@HCD_Init|
  00a3c	e59d3218	 ldr         r3, [sp, #0x218]
  00a40	e59f20d0	 ldr         r2, [pc, #0xD0]
  00a44	e59d1254	 ldr         r1, [sp, #0x254]
  00a48	e59f00c4	 ldr         r0, [pc, #0xC4]
  00a4c	eb000000	 bl          NKDbgPrintfW
  00a50	e3a03001	 mov         r3, #1
  00a54	e58d3240	 str         r3, [sp, #0x240]
  00a58	ea000001	 b           |$LN10@HCD_Init|
  00a5c		 |$LN9@HCD_Init|
  00a5c	e3a03000	 mov         r3, #0
  00a60	e58d3240	 str         r3, [sp, #0x240]
  00a64		 |$LN10@HCD_Init|

; 356  :         RegCloseKey(ActiveKey);

  00a64	e59d0014	 ldr         r0, [sp, #0x14]
  00a68	eb000000	 bl          RegCloseKey

; 357  :         return NULL;

  00a6c	e59d021c	 ldr         r0, [sp, #0x21C]
  00a70	eb000000	 bl          __security_check_cookie
  00a74	e3a03000	 mov         r3, #0
  00a78	e58d3224	 str         r3, [sp, #0x224]
  00a7c	ea00001d	 b           |$LN3@HCD_Init|
  00a80		 |$LN1@HCD_Init|

; 358  :     }
; 359  : 
; 360  :     RegCloseKey(ActiveKey);

  00a80	e59d0014	 ldr         r0, [sp, #0x14]
  00a84	eb000000	 bl          RegCloseKey

; 361  :     g_IstThreadPriority = GetInterruptThreadPriority((LPTSTR)dwContext);

  00a88	e59d0254	 ldr         r0, [sp, #0x254]
  00a8c	eb000000	 bl          |?GetInterruptThreadPriority@@YAKPAG@Z|
  00a90	e58d0244	 str         r0, [sp, #0x244]
  00a94	e59d2244	 ldr         r2, [sp, #0x244]
  00a98	e59f3070	 ldr         r3, [pc, #0x70]
  00a9c	e5832000	 str         r2, [r3]

; 362  :     RegKeyPath[DEVKEY_LEN-1] = 0 ;

  00aa0	e3a03000	 mov         r3, #0
  00aa4	e28dcc02	 add         r12, sp, #2, 24
  00aa8	e1cc31b6	 strh        r3, [r12, #0x16]

; 363  :     
; 364  :     EnterCriticalSection( &g_CSection );

  00aac	e59f0054	 ldr         r0, [pc, #0x54]
  00ab0	eb000000	 bl          EnterCriticalSection

; 365  :     g_dwContext = dwContext;

  00ab4	e59d2254	 ldr         r2, [sp, #0x254]
  00ab8	e59f304c	 ldr         r3, [pc, #0x4C]
  00abc	e5832000	 str         r2, [r3]

; 366  :     DWORD dwReturn =HcdPdd_Init((DWORD)RegKeyPath);

  00ac0	e28d0018	 add         r0, sp, #0x18
  00ac4	eb000000	 bl          HcdPdd_Init
  00ac8	e58d0248	 str         r0, [sp, #0x248]
  00acc	e59d3248	 ldr         r3, [sp, #0x248]
  00ad0	e58d300c	 str         r3, [sp, #0xC]

; 367  :     g_dwContext = 0;

  00ad4	e59f2030	 ldr         r2, [pc, #0x30]
  00ad8	e3a03000	 mov         r3, #0
  00adc	e5823000	 str         r3, [r2]

; 368  :     LeaveCriticalSection( &g_CSection );

  00ae0	e59f0020	 ldr         r0, [pc, #0x20]
  00ae4	eb000000	 bl          LeaveCriticalSection

; 369  :     
; 370  :     return dwReturn;

  00ae8	e59d021c	 ldr         r0, [sp, #0x21C]
  00aec	eb000000	 bl          __security_check_cookie
  00af0	e59d300c	 ldr         r3, [sp, #0xC]
  00af4	e58d3224	 str         r3, [sp, #0x224]
  00af8		 |$LN3@HCD_Init|

; 371  : }

  00af8	e59d0224	 ldr         r0, [sp, #0x224]
  00afc	e28ddf93	 add         sp, sp, #0x93, 30
  00b00	e89d6000	 ldmia       sp, {sp, lr}
  00b04	e12fff1e	 bx          lr
  00b08		 |$LN14@HCD_Init|
  00b08		 |$LN15@HCD_Init|
  00b08	00000000	 DCD         |?g_CSection@@3UCRITICAL_SECTION@@A|
  00b0c		 |$LN16@HCD_Init|
  00b0c	00000000	 DCD         |g_dwContext|
  00b10		 |$LN17@HCD_Init|
  00b10	00000000	 DCD         |g_IstThreadPriority|
  00b14		 |$LN18@HCD_Init|
  00b14	00000000	 DCD         |??_C@_1GG@BEPGMBBL@?$AAE?$AAH?$AAC?$AAD?$AA?$CB?$AAH?$AAC?$AAD?$AA_?$AAI?$AAn?$AAi?$AAt?$AA?5?$AAR?$AAe?$AAg?$AAQ?$AAu?$AAe?$AAr?$AAy?$AAV?$AAa?$AAl?$AAu?$AAe?$AAE?$AAx?$AA?$CI?$AA?$CF?$AAs@|
  00b18		 |$LN19@HCD_Init|
  00b18	00000000	 DCD         |??_C@_17KACEIPNC@?$AAK?$AAe?$AAy?$AA?$AA@|
  00b1c		 |$LN20@HCD_Init|
  00b1c	00000000	 DCD         |dpCurSettings|
  00b20		 |$LN21@HCD_Init|
  00b20	00000000	 DCD         |??_C@_1FM@DDECOKKC@?$AAE?$AAH?$AAC?$AAD?$AA?$CB?$AAH?$AAC?$AAD?$AA_?$AAI?$AAn?$AAi?$AAt?$AA?5?$AAR?$AAe?$AAg?$AAO?$AAp?$AAe?$AAn?$AAK?$AAe?$AAy?$AAE?$AAx?$AA?$CI?$AA?$CF?$AAs?$AA?$CJ?$AA?5?$AAr@|
  00b24		 |$LN22@HCD_Init|
  00b24	00000000	 DCD         |??_C@_1CA@CLOGNIBH@?$AAE?$AAH?$AAC?$AAD?$AA?$CB?$AAH?$AAC?$AAD?$AA_?$AAI?$AAn?$AAi?$AAt?$AA?$AN?$AA?6?$AA?$AA@|
  00b28		 |$LN23@HCD_Init|
  00b28	00000000	 DCD         |__security_cookie|
  00b2c		 |$M35310|

			 ENDP  ; |HCD_Init|

	EXPORT	|??_C@_1BI@BHLBGEOK@?$AAP?$AAr?$AAi?$AAo?$AAr?$AAi?$AAt?$AAy?$AA2?$AA5?$AA6?$AA?$AA@| [ DATA ] ; `string'
	IMPORT	|OpenDeviceKey|

  000a8			 AREA	 |.pdata|, PDATA
|$T35330| DCD	|$LN6@GetInterru|
	DCD	0x40002204

  00000			 AREA	 |.rdata|, DATA, READONLY
|??_C@_1BI@BHLBGEOK@?$AAP?$AAr?$AAi?$AAo?$AAr?$AAi?$AAt?$AAy?$AA2?$AA5?$AA6?$AA?$AA@| DCB "P"
	DCB	0x0, "r", 0x0, "i", 0x0, "o", 0x0, "r", 0x0, "i", 0x0, "t"
	DCB	0x0, "y", 0x0, "2", 0x0, "5", 0x0, "6", 0x0, 0x0, 0x0 ; `string'
; Function compile flags: /Odtp

  00b2c			 AREA	 |.text|, CODE, ARM

  00b2c		 |?GetInterruptThreadPriority@@YAKPAG@Z| PROC ; GetInterruptThreadPriority

; 214  : {

  00b2c		 |$LN6@GetInterru|
  00b2c	e1a0c00d	 mov         r12, sp
  00b30	e92d0001	 stmdb       sp!, {r0}
  00b34	e92d5000	 stmdb       sp!, {r12, lr}
  00b38	e24dd028	 sub         sp, sp, #0x28
  00b3c		 |$M35327|

; 215  :     HKEY hDevKey;
; 216  :     DWORD dwValType;
; 217  :     DWORD dwValLen;
; 218  :     DWORD dwPrio;
; 219  : 
; 220  :     dwPrio = DEFAULT_UHCD_IST_PRIORITY;

  00b3c	e3a03065	 mov         r3, #0x65
  00b40	e58d3008	 str         r3, [sp, #8]

; 221  : 
; 222  :     hDevKey = OpenDeviceKey(lpszActiveKey);

  00b44	e59d0030	 ldr         r0, [sp, #0x30]
  00b48	eb000000	 bl          OpenDeviceKey
  00b4c	e58d0024	 str         r0, [sp, #0x24]
  00b50	e59d3024	 ldr         r3, [sp, #0x24]
  00b54	e58d3010	 str         r3, [sp, #0x10]

; 223  :     if (hDevKey) {

  00b58	e59d3010	 ldr         r3, [sp, #0x10]
  00b5c	e3530000	 cmp         r3, #0
  00b60	0a00000c	 beq         |$LN1@GetInterru|

; 224  :         dwValLen = sizeof(DWORD);

  00b64	e3a03004	 mov         r3, #4
  00b68	e58d300c	 str         r3, [sp, #0xC]

; 225  :         RegQueryValueEx(
; 226  :             hDevKey,
; 227  :             TEXT("Priority256"),
; 228  :             NULL,
; 229  :             &dwValType,
; 230  :             (PUCHAR)&dwPrio,
; 231  :             &dwValLen);

  00b6c	e28d300c	 add         r3, sp, #0xC
  00b70	e58d3004	 str         r3, [sp, #4]
  00b74	e28d3008	 add         r3, sp, #8
  00b78	e58d3000	 str         r3, [sp]
  00b7c	e28d3014	 add         r3, sp, #0x14
  00b80	e3a02000	 mov         r2, #0
  00b84	e59f1024	 ldr         r1, [pc, #0x24]
  00b88	e59d0010	 ldr         r0, [sp, #0x10]
  00b8c	eb000000	 bl          RegQueryValueExW

; 232  :         RegCloseKey(hDevKey);

  00b90	e59d0010	 ldr         r0, [sp, #0x10]
  00b94	eb000000	 bl          RegCloseKey
  00b98		 |$LN1@GetInterru|

; 233  :     }
; 234  :     return dwPrio;

  00b98	e59d3008	 ldr         r3, [sp, #8]
  00b9c	e58d3020	 str         r3, [sp, #0x20]

; 235  : }

  00ba0	e59d0020	 ldr         r0, [sp, #0x20]
  00ba4	e28dd028	 add         sp, sp, #0x28
  00ba8	e89d6000	 ldmia       sp, {sp, lr}
  00bac	e12fff1e	 bx          lr
  00bb0		 |$LN7@GetInterru|
  00bb0		 |$LN8@GetInterru|
  00bb0	00000000	 DCD         |??_C@_1BI@BHLBGEOK@?$AAP?$AAr?$AAi?$AAo?$AAr?$AAi?$AAt?$AAy?$AA2?$AA5?$AA6?$AA?$AA@|
  00bb4		 |$M35328|

			 ENDP  ; |?GetInterruptThreadPriority@@YAKPAG@Z|, GetInterruptThreadPriority

	EXPORT	|HCD_PowerUp|
	IMPORT	|HcdPdd_PowerUp|

  000b0			 AREA	 |.pdata|, PDATA
|$T35337| DCD	|$LN5@HCD_PowerU|
	DCD	0x40000703
; Function compile flags: /Odtp

  00bb4			 AREA	 |.text|, CODE, ARM

  00bb4		 |HCD_PowerUp| PROC

; 375  : {

  00bb4		 |$LN5@HCD_PowerU|
  00bb4	e1a0c00d	 mov         r12, sp
  00bb8	e92d0001	 stmdb       sp!, {r0}
  00bbc	e92d5000	 stmdb       sp!, {r12, lr}
  00bc0		 |$M35334|

; 376  :     HcdPdd_PowerUp(hDeviceContext);

  00bc0	e59d0008	 ldr         r0, [sp, #8]
  00bc4	eb000000	 bl          HcdPdd_PowerUp

; 377  : 
; 378  :     return;
; 379  : }

  00bc8	e89d6000	 ldmia       sp, {sp, lr}
  00bcc	e12fff1e	 bx          lr
  00bd0		 |$M35335|

			 ENDP  ; |HCD_PowerUp|

	EXPORT	|HCD_PowerDown|
	IMPORT	|HcdPdd_PowerDown|

  000b8			 AREA	 |.pdata|, PDATA
|$T35342| DCD	|$LN5@HCD_PowerD|
	DCD	0x40000703
; Function compile flags: /Odtp

  00bd0			 AREA	 |.text|, CODE, ARM

  00bd0		 |HCD_PowerDown| PROC

; 383  : {

  00bd0		 |$LN5@HCD_PowerD|
  00bd0	e1a0c00d	 mov         r12, sp
  00bd4	e92d0001	 stmdb       sp!, {r0}
  00bd8	e92d5000	 stmdb       sp!, {r12, lr}
  00bdc		 |$M35339|

; 384  :     HcdPdd_PowerDown(hDeviceContext);

  00bdc	e59d0008	 ldr         r0, [sp, #8]
  00be0	eb000000	 bl          HcdPdd_PowerDown

; 385  : 
; 386  :     return;
; 387  : }

  00be4	e89d6000	 ldmia       sp, {sp, lr}
  00be8	e12fff1e	 bx          lr
  00bec		 |$M35340|

			 ENDP  ; |HCD_PowerDown|

	EXPORT	|??_C@_1CG@PDHPMGPJ@?$AAU?$AAH?$AAC?$AAD?$AA?3?$AA?5?$AAH?$AAC?$AAD?$AA_?$AAD?$AAe?$AAi?$AAn?$AAi?$AAt?$AA?$AN?$AA?6?$AA?$AA@| [ DATA ] ; `string'
	EXPORT	|HCD_Deinit|
	IMPORT	|HcdPdd_Deinit|

  000c0			 AREA	 |.pdata|, PDATA
|$T35350| DCD	|$LN7@HCD_Deinit|
	DCD	0x40001a04

  00000			 AREA	 |.rdata|, DATA, READONLY
|??_C@_1CG@PDHPMGPJ@?$AAU?$AAH?$AAC?$AAD?$AA?3?$AA?5?$AAH?$AAC?$AAD?$AA_?$AAD?$AAe?$AAi?$AAn?$AAi?$AAt?$AA?$AN?$AA?6?$AA?$AA@| DCB "U"
	DCB	0x0, "H", 0x0, "C", 0x0, "D", 0x0, ":", 0x0, " ", 0x0, "H"
	DCB	0x0, "C", 0x0, "D", 0x0, "_", 0x0, "D", 0x0, "e", 0x0, "i"
	DCB	0x0, "n", 0x0, "i", 0x0, "t", 0x0, 0xd, 0x0, 0xa, 0x0, 0x0
	DCB	0x0					; `string'
; Function compile flags: /Odtp

  00bec			 AREA	 |.text|, CODE, ARM

  00bec		 |HCD_Deinit| PROC

; 391  : {

  00bec		 |$LN7@HCD_Deinit|
  00bec	e1a0c00d	 mov         r12, sp
  00bf0	e92d0001	 stmdb       sp!, {r0}
  00bf4	e92d5000	 stmdb       sp!, {r12, lr}
  00bf8	e24dd00c	 sub         sp, sp, #0xC
  00bfc		 |$M35347|

; 392  :     DEBUGMSG (ZONE_INIT, (TEXT("UHCD: HCD_Deinit\r\n")));

  00bfc	e59f304c	 ldr         r3, [pc, #0x4C]
  00c00	e5933440	 ldr         r3, [r3, #0x440]
  00c04	e3130002	 tst         r3, #2
  00c08	0a000004	 beq         |$LN3@HCD_Deinit|
  00c0c	e59f0038	 ldr         r0, [pc, #0x38]
  00c10	eb000000	 bl          NKDbgPrintfW
  00c14	e3a03001	 mov         r3, #1
  00c18	e58d3004	 str         r3, [sp, #4]
  00c1c	ea000001	 b           |$LN4@HCD_Deinit|
  00c20		 |$LN3@HCD_Deinit|
  00c20	e3a03000	 mov         r3, #0
  00c24	e58d3004	 str         r3, [sp, #4]
  00c28		 |$LN4@HCD_Deinit|

; 393  :     return HcdPdd_Deinit(hDeviceContext);

  00c28	e59d0014	 ldr         r0, [sp, #0x14]
  00c2c	eb000000	 bl          HcdPdd_Deinit
  00c30	e58d0008	 str         r0, [sp, #8]
  00c34	e59d3008	 ldr         r3, [sp, #8]
  00c38	e58d3000	 str         r3, [sp]

; 394  : }

  00c3c	e59d0000	 ldr         r0, [sp]
  00c40	e28dd00c	 add         sp, sp, #0xC
  00c44	e89d6000	 ldmia       sp, {sp, lr}
  00c48	e12fff1e	 bx          lr
  00c4c		 |$LN8@HCD_Deinit|
  00c4c		 |$LN9@HCD_Deinit|
  00c4c	00000000	 DCD         |??_C@_1CG@PDHPMGPJ@?$AAU?$AAH?$AAC?$AAD?$AA?3?$AA?5?$AAH?$AAC?$AAD?$AA_?$AAD?$AAe?$AAi?$AAn?$AAi?$AAt?$AA?$AN?$AA?6?$AA?$AA@|
  00c50		 |$LN10@HCD_Deinit|
  00c50	00000000	 DCD         |dpCurSettings|
  00c54		 |$M35348|

			 ENDP  ; |HCD_Deinit|

	EXPORT	|HCD_Open|
	IMPORT	|HcdPdd_Open|

  000c8			 AREA	 |.pdata|, PDATA
|$T35359| DCD	|$LN5@HCD_Open|
	DCD	0x40000f04
; Function compile flags: /Odtp

  00c54			 AREA	 |.text|, CODE, ARM

  00c54		 |HCD_Open| PROC

; 399  : {

  00c54		 |$LN5@HCD_Open|
  00c54	e1a0c00d	 mov         r12, sp
  00c58	e92d0007	 stmdb       sp!, {r0 - r2}
  00c5c	e92d5000	 stmdb       sp!, {r12, lr}
  00c60	e24dd008	 sub         sp, sp, #8
  00c64		 |$M35356|

; 400  :     return HcdPdd_Open(hDeviceContext, AccessCode, ShareMode);

  00c64	e59d2018	 ldr         r2, [sp, #0x18]
  00c68	e59d1014	 ldr         r1, [sp, #0x14]
  00c6c	e59d0010	 ldr         r0, [sp, #0x10]
  00c70	eb000000	 bl          HcdPdd_Open
  00c74	e58d0004	 str         r0, [sp, #4]
  00c78	e59d3004	 ldr         r3, [sp, #4]
  00c7c	e58d3000	 str         r3, [sp]

; 401  : }

  00c80	e59d0000	 ldr         r0, [sp]
  00c84	e28dd008	 add         sp, sp, #8
  00c88	e89d6000	 ldmia       sp, {sp, lr}
  00c8c	e12fff1e	 bx          lr
  00c90		 |$M35357|

			 ENDP  ; |HCD_Open|

	EXPORT	|HCD_Close|
	IMPORT	|HcdPdd_Close|

  000d0			 AREA	 |.pdata|, PDATA
|$T35365| DCD	|$LN5@HCD_Close|
	DCD	0x40000d04
; Function compile flags: /Odtp

  00c90			 AREA	 |.text|, CODE, ARM

  00c90		 |HCD_Close| PROC

; 405  : {

  00c90		 |$LN5@HCD_Close|
  00c90	e1a0c00d	 mov         r12, sp
  00c94	e92d0001	 stmdb       sp!, {r0}
  00c98	e92d5000	 stmdb       sp!, {r12, lr}
  00c9c	e24dd008	 sub         sp, sp, #8
  00ca0		 |$M35362|

; 406  :     return HcdPdd_Close(hOpenContext);

  00ca0	e59d0010	 ldr         r0, [sp, #0x10]
  00ca4	eb000000	 bl          HcdPdd_Close
  00ca8	e58d0004	 str         r0, [sp, #4]
  00cac	e59d3004	 ldr         r3, [sp, #4]
  00cb0	e58d3000	 str         r3, [sp]

; 407  : }

  00cb4	e59d0000	 ldr         r0, [sp]
  00cb8	e28dd008	 add         sp, sp, #8
  00cbc	e89d6000	 ldmia       sp, {sp, lr}
  00cc0	e12fff1e	 bx          lr
  00cc4		 |$M35363|

			 ENDP  ; |HCD_Close|

	EXPORT	|HCD_Read|
	IMPORT	|HcdPdd_Read|

  000d8			 AREA	 |.pdata|, PDATA
|$T35371| DCD	|$LN5@HCD_Read|
	DCD	0x40000f04
; Function compile flags: /Odtp

  00cc4			 AREA	 |.text|, CODE, ARM

  00cc4		 |HCD_Read| PROC

; 411  : {

  00cc4		 |$LN5@HCD_Read|
  00cc4	e1a0c00d	 mov         r12, sp
  00cc8	e92d0007	 stmdb       sp!, {r0 - r2}
  00ccc	e92d5000	 stmdb       sp!, {r12, lr}
  00cd0	e24dd008	 sub         sp, sp, #8
  00cd4		 |$M35368|

; 412  :     return HcdPdd_Read(hOpenContext, pBuffer, Count);

  00cd4	e59d2018	 ldr         r2, [sp, #0x18]
  00cd8	e59d1014	 ldr         r1, [sp, #0x14]
  00cdc	e59d0010	 ldr         r0, [sp, #0x10]
  00ce0	eb000000	 bl          HcdPdd_Read
  00ce4	e58d0004	 str         r0, [sp, #4]
  00ce8	e59d3004	 ldr         r3, [sp, #4]
  00cec	e58d3000	 str         r3, [sp]

; 413  : }

  00cf0	e59d0000	 ldr         r0, [sp]
  00cf4	e28dd008	 add         sp, sp, #8
  00cf8	e89d6000	 ldmia       sp, {sp, lr}
  00cfc	e12fff1e	 bx          lr
  00d00		 |$M35369|

			 ENDP  ; |HCD_Read|

	EXPORT	|HCD_Write|
	IMPORT	|HcdPdd_Write|

  000e0			 AREA	 |.pdata|, PDATA
|$T35377| DCD	|$LN5@HCD_Write|
	DCD	0x40000f04
; Function compile flags: /Odtp

  00d00			 AREA	 |.text|, CODE, ARM

  00d00		 |HCD_Write| PROC

; 418  : {

  00d00		 |$LN5@HCD_Write|
  00d00	e1a0c00d	 mov         r12, sp
  00d04	e92d0007	 stmdb       sp!, {r0 - r2}
  00d08	e92d5000	 stmdb       sp!, {r12, lr}
  00d0c	e24dd008	 sub         sp, sp, #8
  00d10		 |$M35374|

; 419  :     return HcdPdd_Write(hOpenContext, pSourceBytes, NumberOfBytes);

  00d10	e59d2018	 ldr         r2, [sp, #0x18]
  00d14	e59d1014	 ldr         r1, [sp, #0x14]
  00d18	e59d0010	 ldr         r0, [sp, #0x10]
  00d1c	eb000000	 bl          HcdPdd_Write
  00d20	e58d0004	 str         r0, [sp, #4]
  00d24	e59d3004	 ldr         r3, [sp, #4]
  00d28	e58d3000	 str         r3, [sp]

; 420  : }

  00d2c	e59d0000	 ldr         r0, [sp]
  00d30	e28dd008	 add         sp, sp, #8
  00d34	e89d6000	 ldmia       sp, {sp, lr}
  00d38	e12fff1e	 bx          lr
  00d3c		 |$M35375|

			 ENDP  ; |HCD_Write|

	EXPORT	|HCD_Seek|
	IMPORT	|HcdPdd_Seek|

  000e8			 AREA	 |.pdata|, PDATA
|$T35383| DCD	|$LN5@HCD_Seek|
	DCD	0x40000f04
; Function compile flags: /Odtp

  00d3c			 AREA	 |.text|, CODE, ARM

  00d3c		 |HCD_Seek| PROC

; 424  : {

  00d3c		 |$LN5@HCD_Seek|
  00d3c	e1a0c00d	 mov         r12, sp
  00d40	e92d0007	 stmdb       sp!, {r0 - r2}
  00d44	e92d5000	 stmdb       sp!, {r12, lr}
  00d48	e24dd008	 sub         sp, sp, #8
  00d4c		 |$M35380|

; 425  :     return HcdPdd_Seek(hOpenContext, Amount, Type);

  00d4c	e59d2018	 ldr         r2, [sp, #0x18]
  00d50	e59d1014	 ldr         r1, [sp, #0x14]
  00d54	e59d0010	 ldr         r0, [sp, #0x10]
  00d58	eb000000	 bl          HcdPdd_Seek
  00d5c	e58d0004	 str         r0, [sp, #4]
  00d60	e59d3004	 ldr         r3, [sp, #4]
  00d64	e58d3000	 str         r3, [sp]

; 426  : }

  00d68	e59d0000	 ldr         r0, [sp]
  00d6c	e28dd008	 add         sp, sp, #8
  00d70	e89d6000	 ldmia       sp, {sp, lr}
  00d74	e12fff1e	 bx          lr
  00d78		 |$M35381|

			 ENDP  ; |HCD_Seek|

	EXPORT	|HCD_IOControl|
	IMPORT	|HcdPdd_IOControl|

  000f0			 AREA	 |.pdata|, PDATA
|$T35392| DCD	|$LN5@HCD_IOCont|
	DCD	0x40001604
; Function compile flags: /Odtp

  00d78			 AREA	 |.text|, CODE, ARM

  00d78		 |HCD_IOControl| PROC

; 431  : {

  00d78		 |$LN5@HCD_IOCont|
  00d78	e1a0c00d	 mov         r12, sp
  00d7c	e92d000f	 stmdb       sp!, {r0 - r3}
  00d80	e92d5000	 stmdb       sp!, {r12, lr}
  00d84	e24dd020	 sub         sp, sp, #0x20
  00d88		 |$M35389|

; 432  :     return HcdPdd_IOControl(hOpenContext, dwCode, pBufIn, dwLenIn, pBufOut,
; 433  :             dwLenOut, pdwActualOut);

  00d88	e59d3040	 ldr         r3, [sp, #0x40]
  00d8c	e58d3008	 str         r3, [sp, #8]
  00d90	e59d303c	 ldr         r3, [sp, #0x3C]
  00d94	e58d3004	 str         r3, [sp, #4]
  00d98	e59d3038	 ldr         r3, [sp, #0x38]
  00d9c	e58d3000	 str         r3, [sp]
  00da0	e59d3034	 ldr         r3, [sp, #0x34]
  00da4	e59d2030	 ldr         r2, [sp, #0x30]
  00da8	e59d102c	 ldr         r1, [sp, #0x2C]
  00dac	e59d0028	 ldr         r0, [sp, #0x28]
  00db0	eb000000	 bl          HcdPdd_IOControl
  00db4	e58d001c	 str         r0, [sp, #0x1C]
  00db8	e59d301c	 ldr         r3, [sp, #0x1C]
  00dbc	e58d3018	 str         r3, [sp, #0x18]

; 434  : }

  00dc0	e59d0018	 ldr         r0, [sp, #0x18]
  00dc4	e28dd020	 add         sp, sp, #0x20
  00dc8	e89d6000	 ldmia       sp, {sp, lr}
  00dcc	e12fff1e	 bx          lr
  00dd0		 |$M35390|

			 ENDP  ; |HCD_IOControl|

	END
