; Listing generated by Microsoft (R) Optimizing Compiler Version 14.01.60511.01 

	TTL	C:\WINCE600\PLATFORM\COMMON\SRC\SOC\PXA27X_MS_V1\HCD\bul_ohci.cpp
	CODE32

  00000			 AREA	 |.drectve|, DRECTVE
	DCB	"-defaultlib:LIBCMT "
	DCB	"-defaultlib:OLDNAMES "

	EXPORT	|??_C@_1DK@JPBDFEOB@?$AAD?$AAE?$AAV?$AAI?$AAC?$AAE?$AA_?$AAC?$AAO?$AAN?$AAF?$AAI?$AAG?$AA_?$AAS?$AAT?$AAA?$AAT?$AAU?$AAS?$AA_?$AAI?$AAN?$AAV?$AAA?$AAL?$AAI?$AAD?$AA?$AA@| [ DATA ] ; `string'
	EXPORT	|??_C@_1DE@IMCKALLA@?$AAD?$AAE?$AAV?$AAI?$AAC?$AAE?$AA_?$AAC?$AAO?$AAN?$AAF?$AAI?$AAG?$AA_?$AAS?$AAT?$AAA?$AAT?$AAU?$AAS?$AA_?$AAD?$AAO?$AAN?$AAE?$AA?$AA@| [ DATA ] ; `string'
	EXPORT	|??_C@_1DI@CEGNOBAM@?$AAD?$AAE?$AAV?$AAI?$AAC?$AAE?$AA_?$AAC?$AAO?$AAN?$AAF?$AAI?$AAG?$AA_?$AAS?$AAT?$AAA?$AAT?$AAU?$AAS?$AA_?$AAF?$AAA?$AAI?$AAL?$AAE?$AAD?$AA?$AA@| [ DATA ] ; `string'
	EXPORT	|??_C@_1HO@PGHDEMEK@?$AAD?$AAE?$AAV?$AAI?$AAC?$AAE?$AA_?$AAC?$AAO?$AAN?$AAF?$AAI?$AAG?$AA_?$AAS?$AAT?$AAA?$AAT?$AAU?$AAS?$AA_?$AAS?$AAI?$AAG?$AAN?$AAA?$AAL?$AA_?$AAN?$AAE?$AAW?$AA_@| [ DATA ] ; `string'
	EXPORT	|??_C@_1II@FBBOBKGN@?$AAD?$AAE?$AAV?$AAI?$AAC?$AAE?$AA_?$AAC?$AAO?$AAN?$AAF?$AAI?$AAG?$AA_?$AAS?$AAT?$AAA?$AAT?$AAU?$AAS?$AA_?$AAI?$AAN?$AAS?$AAE?$AAR?$AAT?$AA_?$AAN?$AAE?$AAW?$AA_@| [ DATA ] ; `string'
	EXPORT	|??_C@_1FC@LCLFDJDO@?$AAD?$AAE?$AAV?$AAI?$AAC?$AAE?$AA_?$AAC?$AAO?$AAN?$AAF?$AAI?$AAG?$AA_?$AAS?$AAT?$AAA?$AAT?$AAU?$AAS?$AA_?$AAC?$AAR?$AAE?$AAA?$AAT?$AAE?$AA_?$AAN?$AAE?$AAW?$AA_@| [ DATA ] ; `string'
	EXPORT	|??_C@_1EI@COKEBMOE@?$AAD?$AAE?$AAV?$AAI?$AAC?$AAE?$AA_?$AAC?$AAO?$AAN?$AAF?$AAI?$AAG?$AA_?$AAS?$AAT?$AAA?$AAT?$AAU?$AAS?$AA_?$AAC?$AAR?$AAE?$AAA?$AAT?$AAE?$AA_?$AAN?$AAE?$AAW?$AA_@| [ DATA ] ; `string'
	EXPORT	|??_C@_1GG@HPGGGHKI@?$AAD?$AAE?$AAV?$AAI?$AAC?$AAE?$AA_?$AAC?$AAO?$AAN?$AAF?$AAI?$AAG?$AA_?$AAS?$AAT?$AAA?$AAT?$AAU?$AAS?$AA_?$AAS?$AAC?$AAH?$AAE?$AAD?$AAU?$AAL?$AAI?$AAN?$AAG?$AA_@| [ DATA ] ; `string'
	EXPORT	|??_C@_1HG@KPBCOGEF@?$AAD?$AAE?$AAV?$AAI?$AAC?$AAE?$AA_?$AAC?$AAO?$AAN?$AAF?$AAI?$AAG?$AA_?$AAS?$AAT?$AAA?$AAT?$AAU?$AAS?$AA_?$AAS?$AAC?$AAH?$AAE?$AAD?$AAU?$AAL?$AAI?$AAN?$AAG?$AA_@| [ DATA ] ; `string'
	EXPORT	|??_C@_1FG@CFFAAPDL@?$AAD?$AAE?$AAV?$AAI?$AAC?$AAE?$AA_?$AAC?$AAO?$AAN?$AAF?$AAI?$AAG?$AA_?$AAS?$AAT?$AAA?$AAT?$AAU?$AAS?$AA_?$AAS?$AAC?$AAH?$AAE?$AAD?$AAU?$AAL?$AAI?$AAN?$AAG?$AA_@| [ DATA ] ; `string'
	EXPORT	|??_C@_1GA@NDHJOKMM@?$AAD?$AAE?$AAV?$AAI?$AAC?$AAE?$AA_?$AAC?$AAO?$AAN?$AAF?$AAI?$AAG?$AA_?$AAS?$AAT?$AAA?$AAT?$AAU?$AAS?$AA_?$AAD?$AAE?$AAT?$AAE?$AAR?$AAM?$AAI?$AAN?$AAE?$AA_?$AAC@| [ DATA ] ; `string'
	EXPORT	|??_C@_1GM@JADKDKDC@?$AAD?$AAE?$AAV?$AAI?$AAC?$AAE?$AA_?$AAC?$AAO?$AAN?$AAF?$AAI?$AAG?$AA_?$AAS?$AAT?$AAA?$AAT?$AAU?$AAS?$AA_?$AAS?$AAC?$AAH?$AAE?$AAD?$AAU?$AAL?$AAI?$AAN?$AAG?$AA_@| [ DATA ] ; `string'
	EXPORT	|??_C@_1HM@NPLCKJLH@?$AAD?$AAE?$AAV?$AAI?$AAC?$AAE?$AA_?$AAC?$AAO?$AAN?$AAF?$AAI?$AAG?$AA_?$AAS?$AAT?$AAA?$AAT?$AAU?$AAS?$AA_?$AAS?$AAC?$AAH?$AAE?$AAD?$AAU?$AAL?$AAI?$AAN?$AAG?$AA_@| [ DATA ] ; `string'
	EXPORT	|??_C@_1HE@MEMGEMJJ@?$AAD?$AAE?$AAV?$AAI?$AAC?$AAE?$AA_?$AAC?$AAO?$AAN?$AAF?$AAI?$AAG?$AA_?$AAS?$AAT?$AAA?$AAT?$AAU?$AAS?$AA_?$AAS?$AAE?$AAT?$AAU?$AAP?$AA_?$AAC?$AAO?$AAN?$AAF?$AAI@| [ DATA ] ; `string'
	EXPORT	|??_C@_1GM@BCHKIAPP@?$AAD?$AAE?$AAV?$AAI?$AAC?$AAE?$AA_?$AAC?$AAO?$AAN?$AAF?$AAI?$AAG?$AA_?$AAS?$AAT?$AAA?$AAT?$AAU?$AAS?$AA_?$AAS?$AAC?$AAH?$AAE?$AAD?$AAU?$AAL?$AAI?$AAN?$AAG?$AA_@| [ DATA ] ; `string'
	EXPORT	|??_C@_1HM@FNPCBDHK@?$AAD?$AAE?$AAV?$AAI?$AAC?$AAE?$AA_?$AAC?$AAO?$AAN?$AAF?$AAI?$AAG?$AA_?$AAS?$AAT?$AAA?$AAT?$AAU?$AAS?$AA_?$AAS?$AAC?$AAH?$AAE?$AAD?$AAU?$AAL?$AAI?$AAN?$AAG?$AA_@| [ DATA ] ; `string'
	EXPORT	|??_C@_1EI@BBOOKHNN@?$AAD?$AAE?$AAV?$AAI?$AAC?$AAE?$AA_?$AAC?$AAO?$AAN?$AAF?$AAI?$AAG?$AA_?$AAS?$AAT?$AAA?$AAT?$AAU?$AAS?$AA_?$AAL?$AAE?$AAA?$AAV?$AAE?$AA_?$AAA?$AAD?$AAD?$AAR?$AAE@| [ DATA ] ; `string'
	EXPORT	|??_C@_1FI@LGLHPFAK@?$AAD?$AAE?$AAV?$AAI?$AAC?$AAE?$AA_?$AAC?$AAO?$AAN?$AAF?$AAI?$AAG?$AA_?$AAS?$AAT?$AAA?$AAT?$AAU?$AAS?$AA_?$AAS?$AAC?$AAH?$AAE?$AAD?$AAU?$AAL?$AAI?$AAN?$AAG?$AA_@| [ DATA ] ; `string'
	EXPORT	|??_C@_1HG@BLNLBKIO@?$AAD?$AAE?$AAV?$AAI?$AAC?$AAE?$AA_?$AAC?$AAO?$AAN?$AAF?$AAI?$AAG?$AA_?$AAS?$AAT?$AAA?$AAT?$AAU?$AAS?$AA_?$AAS?$AAC?$AAH?$AAE?$AAD?$AAU?$AAL?$AAI?$AAN?$AAG?$AA_@| [ DATA ] ; `string'
	EXPORT	|??_C@_1FG@NMCKCJLL@?$AAD?$AAE?$AAV?$AAI?$AAC?$AAE?$AA_?$AAC?$AAO?$AAN?$AAF?$AAI?$AAG?$AA_?$AAS?$AAT?$AAA?$AAT?$AAU?$AAS?$AA_?$AAR?$AAE?$AAS?$AAE?$AAT?$AA_?$AAA?$AAN?$AAD?$AA_?$AAE@| [ DATA ] ; `string'
	EXPORT	|??_C@_1EI@KNOIBOPH@?$AAD?$AAE?$AAV?$AAI?$AAC?$AAE?$AA_?$AAC?$AAO?$AAN?$AAF?$AAI?$AAG?$AA_?$AAS?$AAT?$AAA?$AAT?$AAU?$AAS?$AA_?$AAU?$AAS?$AAI?$AAN?$AAG?$AA_?$AAA?$AAD?$AAD?$AAR?$AAE@| [ DATA ] ; `string'
	EXPORT	|??_C@_1FI@COMJHLEF@?$AAD?$AAE?$AAV?$AAI?$AAC?$AAE?$AA_?$AAC?$AAO?$AAN?$AAF?$AAI?$AAG?$AA_?$AAS?$AAT?$AAA?$AAT?$AAU?$AAS?$AA_?$AAO?$AAP?$AAE?$AAN?$AAI?$AAN?$AAG?$AA_?$AAE?$AAN?$AAD@| [ DATA ] ; `string'

  00000			 AREA	 |.data|, DATA
|cszCfgStateStrings| DCD |??_C@_1FI@COMJHLEF@?$AAD?$AAE?$AAV?$AAI?$AAC?$AAE?$AA_?$AAC?$AAO?$AAN?$AAF?$AAI?$AAG?$AA_?$AAS?$AAT?$AAA?$AAT?$AAU?$AAS?$AA_?$AAO?$AAP?$AAE?$AAN?$AAI?$AAN?$AAG?$AA_?$AAE?$AAN?$AAD@|
	DCD	|??_C@_1EI@KNOIBOPH@?$AAD?$AAE?$AAV?$AAI?$AAC?$AAE?$AA_?$AAC?$AAO?$AAN?$AAF?$AAI?$AAG?$AA_?$AAS?$AAT?$AAA?$AAT?$AAU?$AAS?$AA_?$AAU?$AAS?$AAI?$AAN?$AAG?$AA_?$AAA?$AAD?$AAD?$AAR?$AAE@|
	DCD	|??_C@_1FG@NMCKCJLL@?$AAD?$AAE?$AAV?$AAI?$AAC?$AAE?$AA_?$AAC?$AAO?$AAN?$AAF?$AAI?$AAG?$AA_?$AAS?$AAT?$AAA?$AAT?$AAU?$AAS?$AA_?$AAR?$AAE?$AAS?$AAE?$AAT?$AA_?$AAA?$AAN?$AAD?$AA_?$AAE@|
	DCD	|??_C@_1HG@BLNLBKIO@?$AAD?$AAE?$AAV?$AAI?$AAC?$AAE?$AA_?$AAC?$AAO?$AAN?$AAF?$AAI?$AAG?$AA_?$AAS?$AAT?$AAA?$AAT?$AAU?$AAS?$AA_?$AAS?$AAC?$AAH?$AAE?$AAD?$AAU?$AAL?$AAI?$AAN?$AAG?$AA_@|
	DCD	|??_C@_1FI@LGLHPFAK@?$AAD?$AAE?$AAV?$AAI?$AAC?$AAE?$AA_?$AAC?$AAO?$AAN?$AAF?$AAI?$AAG?$AA_?$AAS?$AAT?$AAA?$AAT?$AAU?$AAS?$AA_?$AAS?$AAC?$AAH?$AAE?$AAD?$AAU?$AAL?$AAI?$AAN?$AAG?$AA_@|
	DCD	|??_C@_1EI@BBOOKHNN@?$AAD?$AAE?$AAV?$AAI?$AAC?$AAE?$AA_?$AAC?$AAO?$AAN?$AAF?$AAI?$AAG?$AA_?$AAS?$AAT?$AAA?$AAT?$AAU?$AAS?$AA_?$AAL?$AAE?$AAA?$AAV?$AAE?$AA_?$AAA?$AAD?$AAD?$AAR?$AAE@|
	DCD	|??_C@_1HM@FNPCBDHK@?$AAD?$AAE?$AAV?$AAI?$AAC?$AAE?$AA_?$AAC?$AAO?$AAN?$AAF?$AAI?$AAG?$AA_?$AAS?$AAT?$AAA?$AAT?$AAU?$AAS?$AA_?$AAS?$AAC?$AAH?$AAE?$AAD?$AAU?$AAL?$AAI?$AAN?$AAG?$AA_@|
	DCD	|??_C@_1GM@BCHKIAPP@?$AAD?$AAE?$AAV?$AAI?$AAC?$AAE?$AA_?$AAC?$AAO?$AAN?$AAF?$AAI?$AAG?$AA_?$AAS?$AAT?$AAA?$AAT?$AAU?$AAS?$AA_?$AAS?$AAC?$AAH?$AAE?$AAD?$AAU?$AAL?$AAI?$AAN?$AAG?$AA_@|
	DCD	|??_C@_1HE@MEMGEMJJ@?$AAD?$AAE?$AAV?$AAI?$AAC?$AAE?$AA_?$AAC?$AAO?$AAN?$AAF?$AAI?$AAG?$AA_?$AAS?$AAT?$AAA?$AAT?$AAU?$AAS?$AA_?$AAS?$AAE?$AAT?$AAU?$AAP?$AA_?$AAC?$AAO?$AAN?$AAF?$AAI@|
	DCD	|??_C@_1HM@NPLCKJLH@?$AAD?$AAE?$AAV?$AAI?$AAC?$AAE?$AA_?$AAC?$AAO?$AAN?$AAF?$AAI?$AAG?$AA_?$AAS?$AAT?$AAA?$AAT?$AAU?$AAS?$AA_?$AAS?$AAC?$AAH?$AAE?$AAD?$AAU?$AAL?$AAI?$AAN?$AAG?$AA_@|
	DCD	|??_C@_1GM@JADKDKDC@?$AAD?$AAE?$AAV?$AAI?$AAC?$AAE?$AA_?$AAC?$AAO?$AAN?$AAF?$AAI?$AAG?$AA_?$AAS?$AAT?$AAA?$AAT?$AAU?$AAS?$AA_?$AAS?$AAC?$AAH?$AAE?$AAD?$AAU?$AAL?$AAI?$AAN?$AAG?$AA_@|
	DCD	|??_C@_1GA@NDHJOKMM@?$AAD?$AAE?$AAV?$AAI?$AAC?$AAE?$AA_?$AAC?$AAO?$AAN?$AAF?$AAI?$AAG?$AA_?$AAS?$AAT?$AAA?$AAT?$AAU?$AAS?$AA_?$AAD?$AAE?$AAT?$AAE?$AAR?$AAM?$AAI?$AAN?$AAE?$AA_?$AAC@|
	DCD	|??_C@_1FG@CFFAAPDL@?$AAD?$AAE?$AAV?$AAI?$AAC?$AAE?$AA_?$AAC?$AAO?$AAN?$AAF?$AAI?$AAG?$AA_?$AAS?$AAT?$AAA?$AAT?$AAU?$AAS?$AA_?$AAS?$AAC?$AAH?$AAE?$AAD?$AAU?$AAL?$AAI?$AAN?$AAG?$AA_@|
	DCD	|??_C@_1HG@KPBCOGEF@?$AAD?$AAE?$AAV?$AAI?$AAC?$AAE?$AA_?$AAC?$AAO?$AAN?$AAF?$AAI?$AAG?$AA_?$AAS?$AAT?$AAA?$AAT?$AAU?$AAS?$AA_?$AAS?$AAC?$AAH?$AAE?$AAD?$AAU?$AAL?$AAI?$AAN?$AAG?$AA_@|
	DCD	|??_C@_1GG@HPGGGHKI@?$AAD?$AAE?$AAV?$AAI?$AAC?$AAE?$AA_?$AAC?$AAO?$AAN?$AAF?$AAI?$AAG?$AA_?$AAS?$AAT?$AAA?$AAT?$AAU?$AAS?$AA_?$AAS?$AAC?$AAH?$AAE?$AAD?$AAU?$AAL?$AAI?$AAN?$AAG?$AA_@|
	DCD	|??_C@_1EI@COKEBMOE@?$AAD?$AAE?$AAV?$AAI?$AAC?$AAE?$AA_?$AAC?$AAO?$AAN?$AAF?$AAI?$AAG?$AA_?$AAS?$AAT?$AAA?$AAT?$AAU?$AAS?$AA_?$AAC?$AAR?$AAE?$AAA?$AAT?$AAE?$AA_?$AAN?$AAE?$AAW?$AA_@|
	DCD	|??_C@_1FC@LCLFDJDO@?$AAD?$AAE?$AAV?$AAI?$AAC?$AAE?$AA_?$AAC?$AAO?$AAN?$AAF?$AAI?$AAG?$AA_?$AAS?$AAT?$AAA?$AAT?$AAU?$AAS?$AA_?$AAC?$AAR?$AAE?$AAA?$AAT?$AAE?$AA_?$AAN?$AAE?$AAW?$AA_@|
	DCD	|??_C@_1II@FBBOBKGN@?$AAD?$AAE?$AAV?$AAI?$AAC?$AAE?$AA_?$AAC?$AAO?$AAN?$AAF?$AAI?$AAG?$AA_?$AAS?$AAT?$AAA?$AAT?$AAU?$AAS?$AA_?$AAI?$AAN?$AAS?$AAE?$AAR?$AAT?$AA_?$AAN?$AAE?$AAW?$AA_@|
	DCD	|??_C@_1HO@PGHDEMEK@?$AAD?$AAE?$AAV?$AAI?$AAC?$AAE?$AA_?$AAC?$AAO?$AAN?$AAF?$AAI?$AAG?$AA_?$AAS?$AAT?$AAA?$AAT?$AAU?$AAS?$AA_?$AAS?$AAI?$AAG?$AAN?$AAA?$AAL?$AA_?$AAN?$AAE?$AAW?$AA_@|
	DCD	|??_C@_1DI@CEGNOBAM@?$AAD?$AAE?$AAV?$AAI?$AAC?$AAE?$AA_?$AAC?$AAO?$AAN?$AAF?$AAI?$AAG?$AA_?$AAS?$AAT?$AAA?$AAT?$AAU?$AAS?$AA_?$AAF?$AAA?$AAI?$AAL?$AAE?$AAD?$AA?$AA@|
	DCD	|??_C@_1DE@IMCKALLA@?$AAD?$AAE?$AAV?$AAI?$AAC?$AAE?$AA_?$AAC?$AAO?$AAN?$AAF?$AAI?$AAG?$AA_?$AAS?$AAT?$AAA?$AAT?$AAU?$AAS?$AA_?$AAD?$AAO?$AAN?$AAE?$AA?$AA@|
	DCD	|??_C@_1DK@JPBDFEOB@?$AAD?$AAE?$AAV?$AAI?$AAC?$AAE?$AA_?$AAC?$AAO?$AAN?$AAF?$AAI?$AAG?$AA_?$AAS?$AAT?$AAA?$AAT?$AAU?$AAS?$AA_?$AAI?$AAN?$AAV?$AAA?$AAL?$AAI?$AAD?$AA?$AA@|

  00000			 AREA	 |.rdata|, DATA, READONLY
|??_C@_1DK@JPBDFEOB@?$AAD?$AAE?$AAV?$AAI?$AAC?$AAE?$AA_?$AAC?$AAO?$AAN?$AAF?$AAI?$AAG?$AA_?$AAS?$AAT?$AAA?$AAT?$AAU?$AAS?$AA_?$AAI?$AAN?$AAV?$AAA?$AAL?$AAI?$AAD?$AA?$AA@| DCB "D"
	DCB	0x0, "E", 0x0, "V", 0x0, "I", 0x0, "C", 0x0, "E", 0x0, "_"
	DCB	0x0, "C", 0x0, "O", 0x0, "N", 0x0, "F", 0x0, "I", 0x0, "G"
	DCB	0x0, "_", 0x0, "S", 0x0, "T", 0x0, "A", 0x0, "T", 0x0, "U"
	DCB	0x0, "S", 0x0, "_", 0x0, "I", 0x0, "N", 0x0, "V", 0x0, "A"
	DCB	0x0, "L", 0x0, "I", 0x0, "D", 0x0, 0x0, 0x0 ; `string'

  00000			 AREA	 |.rdata|, DATA, READONLY
|??_C@_1DE@IMCKALLA@?$AAD?$AAE?$AAV?$AAI?$AAC?$AAE?$AA_?$AAC?$AAO?$AAN?$AAF?$AAI?$AAG?$AA_?$AAS?$AAT?$AAA?$AAT?$AAU?$AAS?$AA_?$AAD?$AAO?$AAN?$AAE?$AA?$AA@| DCB "D"
	DCB	0x0, "E", 0x0, "V", 0x0, "I", 0x0, "C", 0x0, "E", 0x0, "_"
	DCB	0x0, "C", 0x0, "O", 0x0, "N", 0x0, "F", 0x0, "I", 0x0, "G"
	DCB	0x0, "_", 0x0, "S", 0x0, "T", 0x0, "A", 0x0, "T", 0x0, "U"
	DCB	0x0, "S", 0x0, "_", 0x0, "D", 0x0, "O", 0x0, "N", 0x0, "E"
	DCB	0x0, 0x0, 0x0				; `string'

  00000			 AREA	 |.rdata|, DATA, READONLY
|??_C@_1DI@CEGNOBAM@?$AAD?$AAE?$AAV?$AAI?$AAC?$AAE?$AA_?$AAC?$AAO?$AAN?$AAF?$AAI?$AAG?$AA_?$AAS?$AAT?$AAA?$AAT?$AAU?$AAS?$AA_?$AAF?$AAA?$AAI?$AAL?$AAE?$AAD?$AA?$AA@| DCB "D"
	DCB	0x0, "E", 0x0, "V", 0x0, "I", 0x0, "C", 0x0, "E", 0x0, "_"
	DCB	0x0, "C", 0x0, "O", 0x0, "N", 0x0, "F", 0x0, "I", 0x0, "G"
	DCB	0x0, "_", 0x0, "S", 0x0, "T", 0x0, "A", 0x0, "T", 0x0, "U"
	DCB	0x0, "S", 0x0, "_", 0x0, "F", 0x0, "A", 0x0, "I", 0x0, "L"
	DCB	0x0, "E", 0x0, "D", 0x0, 0x0, 0x0	; `string'

  00000			 AREA	 |.rdata|, DATA, READONLY
|??_C@_1HO@PGHDEMEK@?$AAD?$AAE?$AAV?$AAI?$AAC?$AAE?$AA_?$AAC?$AAO?$AAN?$AAF?$AAI?$AAG?$AA_?$AAS?$AAT?$AAA?$AAT?$AAU?$AAS?$AA_?$AAS?$AAI?$AAG?$AAN?$AAA?$AAL?$AA_?$AAN?$AAE?$AAW?$AA_@| DCB "D"
	DCB	0x0, "E", 0x0, "V", 0x0, "I", 0x0, "C", 0x0, "E", 0x0, "_"
	DCB	0x0, "C", 0x0, "O", 0x0, "N", 0x0, "F", 0x0, "I", 0x0, "G"
	DCB	0x0, "_", 0x0, "S", 0x0, "T", 0x0, "A", 0x0, "T", 0x0, "U"
	DCB	0x0, "S", 0x0, "_", 0x0, "S", 0x0, "I", 0x0, "G", 0x0, "N"
	DCB	0x0, "A", 0x0, "L", 0x0, "_", 0x0, "N", 0x0, "E", 0x0, "W"
	DCB	0x0, "_", 0x0, "D", 0x0, "E", 0x0, "V", 0x0, "I", 0x0, "C"
	DCB	0x0, "E", 0x0, "_", 0x0, "E", 0x0, "N", 0x0, "T", 0x0, "E"
	DCB	0x0, "R", 0x0, "_", 0x0, "O", 0x0, "P", 0x0, "E", 0x0, "R"
	DCB	0x0, "A", 0x0, "T", 0x0, "I", 0x0, "O", 0x0, "N", 0x0, "A"
	DCB	0x0, "L", 0x0, "_", 0x0, "S", 0x0, "T", 0x0, "A", 0x0, "T"
	DCB	0x0, "E", 0x0, 0x0, 0x0			; `string'

  00000			 AREA	 |.rdata|, DATA, READONLY
|??_C@_1II@FBBOBKGN@?$AAD?$AAE?$AAV?$AAI?$AAC?$AAE?$AA_?$AAC?$AAO?$AAN?$AAF?$AAI?$AAG?$AA_?$AAS?$AAT?$AAA?$AAT?$AAU?$AAS?$AA_?$AAI?$AAN?$AAS?$AAE?$AAR?$AAT?$AA_?$AAN?$AAE?$AAW?$AA_@| DCB "D"
	DCB	0x0, "E", 0x0, "V", 0x0, "I", 0x0, "C", 0x0, "E", 0x0, "_"
	DCB	0x0, "C", 0x0, "O", 0x0, "N", 0x0, "F", 0x0, "I", 0x0, "G"
	DCB	0x0, "_", 0x0, "S", 0x0, "T", 0x0, "A", 0x0, "T", 0x0, "U"
	DCB	0x0, "S", 0x0, "_", 0x0, "I", 0x0, "N", 0x0, "S", 0x0, "E"
	DCB	0x0, "R", 0x0, "T", 0x0, "_", 0x0, "N", 0x0, "E", 0x0, "W"
	DCB	0x0, "_", 0x0, "D", 0x0, "E", 0x0, "V", 0x0, "I", 0x0, "C"
	DCB	0x0, "E", 0x0, "_", 0x0, "I", 0x0, "N", 0x0, "T", 0x0, "O"
	DCB	0x0, "_", 0x0, "U", 0x0, "P", 0x0, "S", 0x0, "T", 0x0, "R"
	DCB	0x0, "E", 0x0, "A", 0x0, "M", 0x0, "_", 0x0, "H", 0x0, "U"
	DCB	0x0, "B", 0x0, "_", 0x0, "P", 0x0, "O", 0x0, "R", 0x0, "T"
	DCB	0x0, "_", 0x0, "A", 0x0, "R", 0x0, "R", 0x0, "A", 0x0, "Y"
	DCB	0x0, 0x0, 0x0				; `string'

  00000			 AREA	 |.rdata|, DATA, READONLY
|??_C@_1FC@LCLFDJDO@?$AAD?$AAE?$AAV?$AAI?$AAC?$AAE?$AA_?$AAC?$AAO?$AAN?$AAF?$AAI?$AAG?$AA_?$AAS?$AAT?$AAA?$AAT?$AAU?$AAS?$AA_?$AAC?$AAR?$AAE?$AAA?$AAT?$AAE?$AA_?$AAN?$AAE?$AAW?$AA_@| DCB "D"
	DCB	0x0, "E", 0x0, "V", 0x0, "I", 0x0, "C", 0x0, "E", 0x0, "_"
	DCB	0x0, "C", 0x0, "O", 0x0, "N", 0x0, "F", 0x0, "I", 0x0, "G"
	DCB	0x0, "_", 0x0, "S", 0x0, "T", 0x0, "A", 0x0, "T", 0x0, "U"
	DCB	0x0, "S", 0x0, "_", 0x0, "C", 0x0, "R", 0x0, "E", 0x0, "A"
	DCB	0x0, "T", 0x0, "E", 0x0, "_", 0x0, "N", 0x0, "E", 0x0, "W"
	DCB	0x0, "_", 0x0, "F", 0x0, "U", 0x0, "N", 0x0, "C", 0x0, "T"
	DCB	0x0, "I", 0x0, "O", 0x0, "N", 0x0, 0x0, 0x0 ; `string'

  00000			 AREA	 |.rdata|, DATA, READONLY
|??_C@_1EI@COKEBMOE@?$AAD?$AAE?$AAV?$AAI?$AAC?$AAE?$AA_?$AAC?$AAO?$AAN?$AAF?$AAI?$AAG?$AA_?$AAS?$AAT?$AAA?$AAT?$AAU?$AAS?$AA_?$AAC?$AAR?$AAE?$AAA?$AAT?$AAE?$AA_?$AAN?$AAE?$AAW?$AA_@| DCB "D"
	DCB	0x0, "E", 0x0, "V", 0x0, "I", 0x0, "C", 0x0, "E", 0x0, "_"
	DCB	0x0, "C", 0x0, "O", 0x0, "N", 0x0, "F", 0x0, "I", 0x0, "G"
	DCB	0x0, "_", 0x0, "S", 0x0, "T", 0x0, "A", 0x0, "T", 0x0, "U"
	DCB	0x0, "S", 0x0, "_", 0x0, "C", 0x0, "R", 0x0, "E", 0x0, "A"
	DCB	0x0, "T", 0x0, "E", 0x0, "_", 0x0, "N", 0x0, "E", 0x0, "W"
	DCB	0x0, "_", 0x0, "H", 0x0, "U", 0x0, "B", 0x0, 0x0, 0x0 ; `string'

  00000			 AREA	 |.rdata|, DATA, READONLY
|??_C@_1GG@HPGGGHKI@?$AAD?$AAE?$AAV?$AAI?$AAC?$AAE?$AA_?$AAC?$AAO?$AAN?$AAF?$AAI?$AAG?$AA_?$AAS?$AAT?$AAA?$AAT?$AAU?$AAS?$AA_?$AAS?$AAC?$AAH?$AAE?$AAD?$AAU?$AAL?$AAI?$AAN?$AAG?$AA_@| DCB "D"
	DCB	0x0, "E", 0x0, "V", 0x0, "I", 0x0, "C", 0x0, "E", 0x0, "_"
	DCB	0x0, "C", 0x0, "O", 0x0, "N", 0x0, "F", 0x0, "I", 0x0, "G"
	DCB	0x0, "_", 0x0, "S", 0x0, "T", 0x0, "A", 0x0, "T", 0x0, "U"
	DCB	0x0, "S", 0x0, "_", 0x0, "S", 0x0, "C", 0x0, "H", 0x0, "E"
	DCB	0x0, "D", 0x0, "U", 0x0, "L", 0x0, "I", 0x0, "N", 0x0, "G"
	DCB	0x0, "_", 0x0, "G", 0x0, "E", 0x0, "T", 0x0, "_", 0x0, "H"
	DCB	0x0, "U", 0x0, "B", 0x0, "_", 0x0, "D", 0x0, "E", 0x0, "S"
	DCB	0x0, "C", 0x0, "R", 0x0, "I", 0x0, "P", 0x0, "T", 0x0, "O"
	DCB	0x0, "R", 0x0, 0x0, 0x0			; `string'

  00000			 AREA	 |.rdata|, DATA, READONLY
|??_C@_1HG@KPBCOGEF@?$AAD?$AAE?$AAV?$AAI?$AAC?$AAE?$AA_?$AAC?$AAO?$AAN?$AAF?$AAI?$AAG?$AA_?$AAS?$AAT?$AAA?$AAT?$AAU?$AAS?$AA_?$AAS?$AAC?$AAH?$AAE?$AAD?$AAU?$AAL?$AAI?$AAN?$AAG?$AA_@| DCB "D"
	DCB	0x0, "E", 0x0, "V", 0x0, "I", 0x0, "C", 0x0, "E", 0x0, "_"
	DCB	0x0, "C", 0x0, "O", 0x0, "N", 0x0, "F", 0x0, "I", 0x0, "G"
	DCB	0x0, "_", 0x0, "S", 0x0, "T", 0x0, "A", 0x0, "T", 0x0, "U"
	DCB	0x0, "S", 0x0, "_", 0x0, "S", 0x0, "C", 0x0, "H", 0x0, "E"
	DCB	0x0, "D", 0x0, "U", 0x0, "L", 0x0, "I", 0x0, "N", 0x0, "G"
	DCB	0x0, "_", 0x0, "G", 0x0, "E", 0x0, "T", 0x0, "_", 0x0, "I"
	DCB	0x0, "N", 0x0, "I", 0x0, "T", 0x0, "I", 0x0, "A", 0x0, "L"
	DCB	0x0, "_", 0x0, "H", 0x0, "U", 0x0, "B", 0x0, "_", 0x0, "D"
	DCB	0x0, "E", 0x0, "S", 0x0, "C", 0x0, "R", 0x0, "I", 0x0, "P"
	DCB	0x0, "T", 0x0, "O", 0x0, "R", 0x0, 0x0, 0x0 ; `string'

  00000			 AREA	 |.rdata|, DATA, READONLY
|??_C@_1FG@CFFAAPDL@?$AAD?$AAE?$AAV?$AAI?$AAC?$AAE?$AA_?$AAC?$AAO?$AAN?$AAF?$AAI?$AAG?$AA_?$AAS?$AAT?$AAA?$AAT?$AAU?$AAS?$AA_?$AAS?$AAC?$AAH?$AAE?$AAD?$AAU?$AAL?$AAI?$AAN?$AAG?$AA_@| DCB "D"
	DCB	0x0, "E", 0x0, "V", 0x0, "I", 0x0, "C", 0x0, "E", 0x0, "_"
	DCB	0x0, "C", 0x0, "O", 0x0, "N", 0x0, "F", 0x0, "I", 0x0, "G"
	DCB	0x0, "_", 0x0, "S", 0x0, "T", 0x0, "A", 0x0, "T", 0x0, "U"
	DCB	0x0, "S", 0x0, "_", 0x0, "S", 0x0, "C", 0x0, "H", 0x0, "E"
	DCB	0x0, "D", 0x0, "U", 0x0, "L", 0x0, "I", 0x0, "N", 0x0, "G"
	DCB	0x0, "_", 0x0, "S", 0x0, "E", 0x0, "T", 0x0, "_", 0x0, "C"
	DCB	0x0, "O", 0x0, "N", 0x0, "F", 0x0, "I", 0x0, "G", 0x0, 0x0
	DCB	0x0					; `string'

  00000			 AREA	 |.rdata|, DATA, READONLY
|??_C@_1GA@NDHJOKMM@?$AAD?$AAE?$AAV?$AAI?$AAC?$AAE?$AA_?$AAC?$AAO?$AAN?$AAF?$AAI?$AAG?$AA_?$AAS?$AAT?$AAA?$AAT?$AAU?$AAS?$AA_?$AAD?$AAE?$AAT?$AAE?$AAR?$AAM?$AAI?$AAN?$AAE?$AA_?$AAC@| DCB "D"
	DCB	0x0, "E", 0x0, "V", 0x0, "I", 0x0, "C", 0x0, "E", 0x0, "_"
	DCB	0x0, "C", 0x0, "O", 0x0, "N", 0x0, "F", 0x0, "I", 0x0, "G"
	DCB	0x0, "_", 0x0, "S", 0x0, "T", 0x0, "A", 0x0, "T", 0x0, "U"
	DCB	0x0, "S", 0x0, "_", 0x0, "D", 0x0, "E", 0x0, "T", 0x0, "E"
	DCB	0x0, "R", 0x0, "M", 0x0, "I", 0x0, "N", 0x0, "E", 0x0, "_"
	DCB	0x0, "C", 0x0, "O", 0x0, "N", 0x0, "F", 0x0, "I", 0x0, "G"
	DCB	0x0, "_", 0x0, "T", 0x0, "O", 0x0, "_", 0x0, "C", 0x0, "H"
	DCB	0x0, "O", 0x0, "O", 0x0, "S", 0x0, "E", 0x0, 0x0, 0x0 ; `string'

  00000			 AREA	 |.rdata|, DATA, READONLY
|??_C@_1GM@JADKDKDC@?$AAD?$AAE?$AAV?$AAI?$AAC?$AAE?$AA_?$AAC?$AAO?$AAN?$AAF?$AAI?$AAG?$AA_?$AAS?$AAT?$AAA?$AAT?$AAU?$AAS?$AA_?$AAS?$AAC?$AAH?$AAE?$AAD?$AAU?$AAL?$AAI?$AAN?$AAG?$AA_@| DCB "D"
	DCB	0x0, "E", 0x0, "V", 0x0, "I", 0x0, "C", 0x0, "E", 0x0, "_"
	DCB	0x0, "C", 0x0, "O", 0x0, "N", 0x0, "F", 0x0, "I", 0x0, "G"
	DCB	0x0, "_", 0x0, "S", 0x0, "T", 0x0, "A", 0x0, "T", 0x0, "U"
	DCB	0x0, "S", 0x0, "_", 0x0, "S", 0x0, "C", 0x0, "H", 0x0, "E"
	DCB	0x0, "D", 0x0, "U", 0x0, "L", 0x0, "I", 0x0, "N", 0x0, "G"
	DCB	0x0, "_", 0x0, "G", 0x0, "E", 0x0, "T", 0x0, "_", 0x0, "C"
	DCB	0x0, "O", 0x0, "N", 0x0, "F", 0x0, "I", 0x0, "G", 0x0, "_"
	DCB	0x0, "D", 0x0, "E", 0x0, "S", 0x0, "C", 0x0, "R", 0x0, "I"
	DCB	0x0, "P", 0x0, "T", 0x0, "O", 0x0, "R", 0x0, 0x0, 0x0 ; `string'

  00000			 AREA	 |.rdata|, DATA, READONLY
|??_C@_1HM@NPLCKJLH@?$AAD?$AAE?$AAV?$AAI?$AAC?$AAE?$AA_?$AAC?$AAO?$AAN?$AAF?$AAI?$AAG?$AA_?$AAS?$AAT?$AAA?$AAT?$AAU?$AAS?$AA_?$AAS?$AAC?$AAH?$AAE?$AAD?$AAU?$AAL?$AAI?$AAN?$AAG?$AA_@| DCB "D"
	DCB	0x0, "E", 0x0, "V", 0x0, "I", 0x0, "C", 0x0, "E", 0x0, "_"
	DCB	0x0, "C", 0x0, "O", 0x0, "N", 0x0, "F", 0x0, "I", 0x0, "G"
	DCB	0x0, "_", 0x0, "S", 0x0, "T", 0x0, "A", 0x0, "T", 0x0, "U"
	DCB	0x0, "S", 0x0, "_", 0x0, "S", 0x0, "C", 0x0, "H", 0x0, "E"
	DCB	0x0, "D", 0x0, "U", 0x0, "L", 0x0, "I", 0x0, "N", 0x0, "G"
	DCB	0x0, "_", 0x0, "G", 0x0, "E", 0x0, "T", 0x0, "_", 0x0, "I"
	DCB	0x0, "N", 0x0, "I", 0x0, "T", 0x0, "I", 0x0, "A", 0x0, "L"
	DCB	0x0, "_", 0x0, "C", 0x0, "O", 0x0, "N", 0x0, "F", 0x0, "I"
	DCB	0x0, "G", 0x0, "_", 0x0, "D", 0x0, "E", 0x0, "S", 0x0, "C"
	DCB	0x0, "R", 0x0, "I", 0x0, "P", 0x0, "T", 0x0, "O", 0x0, "R"
	DCB	0x0, 0x0, 0x0				; `string'

  00000			 AREA	 |.rdata|, DATA, READONLY
|??_C@_1HE@MEMGEMJJ@?$AAD?$AAE?$AAV?$AAI?$AAC?$AAE?$AA_?$AAC?$AAO?$AAN?$AAF?$AAI?$AAG?$AA_?$AAS?$AAT?$AAA?$AAT?$AAU?$AAS?$AA_?$AAS?$AAE?$AAT?$AAU?$AAP?$AA_?$AAC?$AAO?$AAN?$AAF?$AAI@| DCB "D"
	DCB	0x0, "E", 0x0, "V", 0x0, "I", 0x0, "C", 0x0, "E", 0x0, "_"
	DCB	0x0, "C", 0x0, "O", 0x0, "N", 0x0, "F", 0x0, "I", 0x0, "G"
	DCB	0x0, "_", 0x0, "S", 0x0, "T", 0x0, "A", 0x0, "T", 0x0, "U"
	DCB	0x0, "S", 0x0, "_", 0x0, "S", 0x0, "E", 0x0, "T", 0x0, "U"
	DCB	0x0, "P", 0x0, "_", 0x0, "C", 0x0, "O", 0x0, "N", 0x0, "F"
	DCB	0x0, "I", 0x0, "G", 0x0, "U", 0x0, "R", 0x0, "A", 0x0, "T"
	DCB	0x0, "I", 0x0, "O", 0x0, "N", 0x0, "_", 0x0, "D", 0x0, "E"
	DCB	0x0, "S", 0x0, "C", 0x0, "R", 0x0, "I", 0x0, "P", 0x0, "T"
	DCB	0x0, "O", 0x0, "R", 0x0, "_", 0x0, "A", 0x0, "R", 0x0, "R"
	DCB	0x0, "A", 0x0, "Y", 0x0, 0x0, 0x0	; `string'

  00000			 AREA	 |.rdata|, DATA, READONLY
|??_C@_1GM@BCHKIAPP@?$AAD?$AAE?$AAV?$AAI?$AAC?$AAE?$AA_?$AAC?$AAO?$AAN?$AAF?$AAI?$AAG?$AA_?$AAS?$AAT?$AAA?$AAT?$AAU?$AAS?$AA_?$AAS?$AAC?$AAH?$AAE?$AAD?$AAU?$AAL?$AAI?$AAN?$AAG?$AA_@| DCB "D"
	DCB	0x0, "E", 0x0, "V", 0x0, "I", 0x0, "C", 0x0, "E", 0x0, "_"
	DCB	0x0, "C", 0x0, "O", 0x0, "N", 0x0, "F", 0x0, "I", 0x0, "G"
	DCB	0x0, "_", 0x0, "S", 0x0, "T", 0x0, "A", 0x0, "T", 0x0, "U"
	DCB	0x0, "S", 0x0, "_", 0x0, "S", 0x0, "C", 0x0, "H", 0x0, "E"
	DCB	0x0, "D", 0x0, "U", 0x0, "L", 0x0, "I", 0x0, "N", 0x0, "G"
	DCB	0x0, "_", 0x0, "G", 0x0, "E", 0x0, "T", 0x0, "_", 0x0, "D"
	DCB	0x0, "E", 0x0, "V", 0x0, "I", 0x0, "C", 0x0, "E", 0x0, "_"
	DCB	0x0, "D", 0x0, "E", 0x0, "S", 0x0, "C", 0x0, "R", 0x0, "I"
	DCB	0x0, "P", 0x0, "T", 0x0, "O", 0x0, "R", 0x0, 0x0, 0x0 ; `string'

  00000			 AREA	 |.rdata|, DATA, READONLY
|??_C@_1HM@FNPCBDHK@?$AAD?$AAE?$AAV?$AAI?$AAC?$AAE?$AA_?$AAC?$AAO?$AAN?$AAF?$AAI?$AAG?$AA_?$AAS?$AAT?$AAA?$AAT?$AAU?$AAS?$AA_?$AAS?$AAC?$AAH?$AAE?$AAD?$AAU?$AAL?$AAI?$AAN?$AAG?$AA_@| DCB "D"
	DCB	0x0, "E", 0x0, "V", 0x0, "I", 0x0, "C", 0x0, "E", 0x0, "_"
	DCB	0x0, "C", 0x0, "O", 0x0, "N", 0x0, "F", 0x0, "I", 0x0, "G"
	DCB	0x0, "_", 0x0, "S", 0x0, "T", 0x0, "A", 0x0, "T", 0x0, "U"
	DCB	0x0, "S", 0x0, "_", 0x0, "S", 0x0, "C", 0x0, "H", 0x0, "E"
	DCB	0x0, "D", 0x0, "U", 0x0, "L", 0x0, "I", 0x0, "N", 0x0, "G"
	DCB	0x0, "_", 0x0, "G", 0x0, "E", 0x0, "T", 0x0, "_", 0x0, "I"
	DCB	0x0, "N", 0x0, "I", 0x0, "T", 0x0, "I", 0x0, "A", 0x0, "L"
	DCB	0x0, "_", 0x0, "D", 0x0, "E", 0x0, "V", 0x0, "I", 0x0, "C"
	DCB	0x0, "E", 0x0, "_", 0x0, "D", 0x0, "E", 0x0, "S", 0x0, "C"
	DCB	0x0, "R", 0x0, "I", 0x0, "P", 0x0, "T", 0x0, "O", 0x0, "R"
	DCB	0x0, 0x0, 0x0				; `string'

  00000			 AREA	 |.rdata|, DATA, READONLY
|??_C@_1EI@BBOOKHNN@?$AAD?$AAE?$AAV?$AAI?$AAC?$AAE?$AA_?$AAC?$AAO?$AAN?$AAF?$AAI?$AAG?$AA_?$AAS?$AAT?$AAA?$AAT?$AAU?$AAS?$AA_?$AAL?$AAE?$AAA?$AAV?$AAE?$AA_?$AAA?$AAD?$AAD?$AAR?$AAE@| DCB "D"
	DCB	0x0, "E", 0x0, "V", 0x0, "I", 0x0, "C", 0x0, "E", 0x0, "_"
	DCB	0x0, "C", 0x0, "O", 0x0, "N", 0x0, "F", 0x0, "I", 0x0, "G"
	DCB	0x0, "_", 0x0, "S", 0x0, "T", 0x0, "A", 0x0, "T", 0x0, "U"
	DCB	0x0, "S", 0x0, "_", 0x0, "L", 0x0, "E", 0x0, "A", 0x0, "V"
	DCB	0x0, "E", 0x0, "_", 0x0, "A", 0x0, "D", 0x0, "D", 0x0, "R"
	DCB	0x0, "E", 0x0, "S", 0x0, "S", 0x0, "0", 0x0, 0x0, 0x0 ; `string'

  00000			 AREA	 |.rdata|, DATA, READONLY
|??_C@_1FI@LGLHPFAK@?$AAD?$AAE?$AAV?$AAI?$AAC?$AAE?$AA_?$AAC?$AAO?$AAN?$AAF?$AAI?$AAG?$AA_?$AAS?$AAT?$AAA?$AAT?$AAU?$AAS?$AA_?$AAS?$AAC?$AAH?$AAE?$AAD?$AAU?$AAL?$AAI?$AAN?$AAG?$AA_@| DCB "D"
	DCB	0x0, "E", 0x0, "V", 0x0, "I", 0x0, "C", 0x0, "E", 0x0, "_"
	DCB	0x0, "C", 0x0, "O", 0x0, "N", 0x0, "F", 0x0, "I", 0x0, "G"
	DCB	0x0, "_", 0x0, "S", 0x0, "T", 0x0, "A", 0x0, "T", 0x0, "U"
	DCB	0x0, "S", 0x0, "_", 0x0, "S", 0x0, "C", 0x0, "H", 0x0, "E"
	DCB	0x0, "D", 0x0, "U", 0x0, "L", 0x0, "I", 0x0, "N", 0x0, "G"
	DCB	0x0, "_", 0x0, "S", 0x0, "E", 0x0, "T", 0x0, "_", 0x0, "A"
	DCB	0x0, "D", 0x0, "D", 0x0, "R", 0x0, "E", 0x0, "S", 0x0, "S"
	DCB	0x0, 0x0, 0x0				; `string'

  00000			 AREA	 |.rdata|, DATA, READONLY
|??_C@_1HG@BLNLBKIO@?$AAD?$AAE?$AAV?$AAI?$AAC?$AAE?$AA_?$AAC?$AAO?$AAN?$AAF?$AAI?$AAG?$AA_?$AAS?$AAT?$AAA?$AAT?$AAU?$AAS?$AA_?$AAS?$AAC?$AAH?$AAE?$AAD?$AAU?$AAL?$AAI?$AAN?$AAG?$AA_@| DCB "D"
	DCB	0x0, "E", 0x0, "V", 0x0, "I", 0x0, "C", 0x0, "E", 0x0, "_"
	DCB	0x0, "C", 0x0, "O", 0x0, "N", 0x0, "F", 0x0, "I", 0x0, "G"
	DCB	0x0, "_", 0x0, "S", 0x0, "T", 0x0, "A", 0x0, "T", 0x0, "U"
	DCB	0x0, "S", 0x0, "_", 0x0, "S", 0x0, "C", 0x0, "H", 0x0, "E"
	DCB	0x0, "D", 0x0, "U", 0x0, "L", 0x0, "I", 0x0, "N", 0x0, "G"
	DCB	0x0, "_", 0x0, "G", 0x0, "E", 0x0, "T", 0x0, "_", 0x0, "D"
	DCB	0x0, "E", 0x0, "V", 0x0, "I", 0x0, "C", 0x0, "E", 0x0, "_"
	DCB	0x0, "D", 0x0, "E", 0x0, "S", 0x0, "C", 0x0, "R", 0x0, "I"
	DCB	0x0, "P", 0x0, "T", 0x0, "O", 0x0, "R", 0x0, "_", 0x0, "T"
	DCB	0x0, "E", 0x0, "S", 0x0, "T", 0x0, 0x0, 0x0 ; `string'

  00000			 AREA	 |.rdata|, DATA, READONLY
|??_C@_1FG@NMCKCJLL@?$AAD?$AAE?$AAV?$AAI?$AAC?$AAE?$AA_?$AAC?$AAO?$AAN?$AAF?$AAI?$AAG?$AA_?$AAS?$AAT?$AAA?$AAT?$AAU?$AAS?$AA_?$AAR?$AAE?$AAS?$AAE?$AAT?$AA_?$AAA?$AAN?$AAD?$AA_?$AAE@| DCB "D"
	DCB	0x0, "E", 0x0, "V", 0x0, "I", 0x0, "C", 0x0, "E", 0x0, "_"
	DCB	0x0, "C", 0x0, "O", 0x0, "N", 0x0, "F", 0x0, "I", 0x0, "G"
	DCB	0x0, "_", 0x0, "S", 0x0, "T", 0x0, "A", 0x0, "T", 0x0, "U"
	DCB	0x0, "S", 0x0, "_", 0x0, "R", 0x0, "E", 0x0, "S", 0x0, "E"
	DCB	0x0, "T", 0x0, "_", 0x0, "A", 0x0, "N", 0x0, "D", 0x0, "_"
	DCB	0x0, "E", 0x0, "N", 0x0, "A", 0x0, "B", 0x0, "L", 0x0, "E"
	DCB	0x0, "_", 0x0, "P", 0x0, "O", 0x0, "R", 0x0, "T", 0x0, 0x0
	DCB	0x0					; `string'

  00000			 AREA	 |.rdata|, DATA, READONLY
|??_C@_1EI@KNOIBOPH@?$AAD?$AAE?$AAV?$AAI?$AAC?$AAE?$AA_?$AAC?$AAO?$AAN?$AAF?$AAI?$AAG?$AA_?$AAS?$AAT?$AAA?$AAT?$AAU?$AAS?$AA_?$AAU?$AAS?$AAI?$AAN?$AAG?$AA_?$AAA?$AAD?$AAD?$AAR?$AAE@| DCB "D"
	DCB	0x0, "E", 0x0, "V", 0x0, "I", 0x0, "C", 0x0, "E", 0x0, "_"
	DCB	0x0, "C", 0x0, "O", 0x0, "N", 0x0, "F", 0x0, "I", 0x0, "G"
	DCB	0x0, "_", 0x0, "S", 0x0, "T", 0x0, "A", 0x0, "T", 0x0, "U"
	DCB	0x0, "S", 0x0, "_", 0x0, "U", 0x0, "S", 0x0, "I", 0x0, "N"
	DCB	0x0, "G", 0x0, "_", 0x0, "A", 0x0, "D", 0x0, "D", 0x0, "R"
	DCB	0x0, "E", 0x0, "S", 0x0, "S", 0x0, "0", 0x0, 0x0, 0x0 ; `string'

  00000			 AREA	 |.rdata|, DATA, READONLY
|??_C@_1FI@COMJHLEF@?$AAD?$AAE?$AAV?$AAI?$AAC?$AAE?$AA_?$AAC?$AAO?$AAN?$AAF?$AAI?$AAG?$AA_?$AAS?$AAT?$AAA?$AAT?$AAU?$AAS?$AA_?$AAO?$AAP?$AAE?$AAN?$AAI?$AAN?$AAG?$AA_?$AAE?$AAN?$AAD@| DCB "D"
	DCB	0x0, "E", 0x0, "V", 0x0, "I", 0x0, "C", 0x0, "E", 0x0, "_"
	DCB	0x0, "C", 0x0, "O", 0x0, "N", 0x0, "F", 0x0, "I", 0x0, "G"
	DCB	0x0, "_", 0x0, "S", 0x0, "T", 0x0, "A", 0x0, "T", 0x0, "U"
	DCB	0x0, "S", 0x0, "_", 0x0, "O", 0x0, "P", 0x0, "E", 0x0, "N"
	DCB	0x0, "I", 0x0, "N", 0x0, "G", 0x0, "_", 0x0, "E", 0x0, "N"
	DCB	0x0, "D", 0x0, "P", 0x0, "O", 0x0, "I", 0x0, "N", 0x0, "T"
	DCB	0x0, "0", 0x0, "_", 0x0, "P", 0x0, "I", 0x0, "P", 0x0, "E"
	DCB	0x0, 0x0, 0x0				; `string'
	EXPORT	|??_7SOhcdPdd@@6B@| [ DATA ]		; SOhcdPdd::`vftable'
	EXPORT	|??0CMiniThread@@QAA@KH@Z|		; CMiniThread::CMiniThread
	EXPORT	|??0CRegistryEdit@@QAA@PAUHKEY__@@PBG@Z| ; CRegistryEdit::CRegistryEdit
	EXPORT	|??0SOhcdPdd@@QAA@PBG@Z|		; SOhcdPdd::SOhcdPdd
	EXPORT	|?ThreadRun@SOhcdPdd@@EAAKXZ|		; SOhcdPdd::ThreadRun
	EXPORT	|?Init@SOhcdPdd@@UAAHXZ|		; SOhcdPdd::Init
	EXPORT	|?InitializeOHCI@SOhcdPdd@@UAAHXZ|	; SOhcdPdd::InitializeOHCI
	EXPORT	|?OHCI_Reset@SOhcdPdd@@MAAHXZ|		; SOhcdPdd::OHCI_Reset
	EXPORT	|?InitPddInterrupts@SOhcdPdd@@MAAHXZ|	; SOhcdPdd::InitPddInterrupts
	EXPORT	|?DisablePddInterrupts@SOhcdPdd@@MAAXXZ| ; SOhcdPdd::DisablePddInterrupts
	EXPORT	|?PowerUp@SOhcdPdd@@UAAXXZ|		; SOhcdPdd::PowerUp
	EXPORT	|?PowerDown@SOhcdPdd@@UAAXXZ|		; SOhcdPdd::PowerDown
	EXPORT	|?InitiatePowerUp@SOhcdPdd@@UAAKXZ|	; SOhcdPdd::InitiatePowerUp
	IMPORT	|wcscpy|
	IMPORT	|??2@YAPAXI@Z|				; operator new
	IMPORT	|wcslen|
	IMPORT	|CreateBusAccessHandle|
	IMPORT	|g_dwContext|
	IMPORT	|??_ESOhcdPdd@@UAAPAXI@Z|, WEAK |??_GSOhcdPdd@@UAAPAXI@Z| ; SOhcdPdd::`vector deleting destructor', SOhcdPdd::`scalar deleting destructor'
	IMPORT	|_purecall|

  00000			 AREA	 |.pdata|, PDATA
|$T38806| DCD	|$LN9@SOhcdPdd|
	DCD	0x40007f04
; File c:\wince600\platform\common\src\soc\pxa27x_ms_v1\hcd\bul_ohci.cpp

  00000			 AREA	 |.rdata|, DATA, READONLY
|??_7SOhcdPdd@@6B@| DCD |?ThreadRun@SOhcdPdd@@EAAKXZ|	; SOhcdPdd::`vftable'
	DCD	|??_ESOhcdPdd@@UAAPAXI@Z|
	DCD	|?Init@SOhcdPdd@@UAAHXZ|
	DCD	|_purecall|
	DCD	|_purecall|
	DCD	|?InitializeOHCI@SOhcdPdd@@UAAHXZ|
	DCD	|?OHCI_Reset@SOhcdPdd@@MAAHXZ|
	DCD	|?InitPddInterrupts@SOhcdPdd@@MAAHXZ|
	DCD	|?DisablePddInterrupts@SOhcdPdd@@MAAXXZ|
	DCD	|?PowerUp@SOhcdPdd@@UAAXXZ|
	DCD	|?PowerDown@SOhcdPdd@@UAAXXZ|
	DCD	|?InitiatePowerUp@SOhcdPdd@@UAAKXZ|
; Function compile flags: /Odtp

  00000			 AREA	 |.text|, CODE, ARM

  00000		 |??0SOhcdPdd@@QAA@PBG@Z| PROC		; SOhcdPdd::SOhcdPdd

; 43   : {

  00000		 |$LN9@SOhcdPdd|
  00000	e1a0c00d	 mov         r12, sp
  00004	e92d0003	 stmdb       sp!, {r0, r1}
  00008	e92d5000	 stmdb       sp!, {r12, lr}
  0000c	e24dd028	 sub         sp, sp, #0x28
  00010		 |$M38803|
  00010	e59d2034	 ldr         r2, [sp, #0x34]
  00014	e3a0110a	 mov         r1, #0xA, 2
  00018	e59d3030	 ldr         r3, [sp, #0x30]
  0001c	e2830018	 add         r0, r3, #0x18
  00020	eb000000	 bl          |??0CRegistryEdit@@QAA@PAUHKEY__@@PBG@Z|
  00024	e58d000c	 str         r0, [sp, #0xC]
  00028	e3a02001	 mov         r2, #1
  0002c	e3a01000	 mov         r1, #0
  00030	e59d0030	 ldr         r0, [sp, #0x30]
  00034	eb000000	 bl          |??0CMiniThread@@QAA@KH@Z|
  00038	e58d0010	 str         r0, [sp, #0x10]
  0003c	e59f21b4	 ldr         r2, [pc, #0x1B4]
  00040	e59d3030	 ldr         r3, [sp, #0x30]
  00044	e5832000	 str         r2, [r3]

; 44   :     m_pDCCLKReg = NULL;

  00048	e59d3030	 ldr         r3, [sp, #0x30]
  0004c	e283201c	 add         r2, r3, #0x1C
  00050	e3a03000	 mov         r3, #0
  00054	e5823000	 str         r3, [r2]

; 45   :     m_pDCUSBOHCIReg = NULL;

  00058	e59d3030	 ldr         r3, [sp, #0x30]
  0005c	e2832020	 add         r2, r3, #0x20
  00060	e3a03000	 mov         r3, #0
  00064	e5823000	 str         r3, [r2]

; 46   :     m_lpvMemoryObject = NULL;

  00068	e59d3030	 ldr         r3, [sp, #0x30]
  0006c	e2832024	 add         r2, r3, #0x24
  00070	e3a03000	 mov         r3, #0
  00074	e5823000	 str         r3, [r2]

; 47   :     m_pvDmaVirtualAddress = NULL;             // DMA buffers as seen by the CPU

  00078	e59d3030	 ldr         r3, [sp, #0x30]
  0007c	e2832040	 add         r2, r3, #0x40
  00080	e3a03000	 mov         r3, #0
  00084	e5823000	 str         r3, [r2]

; 48   :     m_dwDamBufferSize = 0;

  00088	e59d3030	 ldr         r3, [sp, #0x30]
  0008c	e2832044	 add         r2, r3, #0x44
  00090	e3a03000	 mov         r3, #0
  00094	e5823000	 str         r3, [r2]

; 49   :     m_dwSysIntr = MAXDWORD;

  00098	e59d3030	 ldr         r3, [sp, #0x30]
  0009c	e283204c	 add         r2, r3, #0x4C
  000a0	e3e03000	 mvn         r3, #0
  000a4	e5823000	 str         r3, [r2]

; 50   :     m_IsrHandle = NULL;

  000a8	e59d3030	 ldr         r3, [sp, #0x30]
  000ac	e2832050	 add         r2, r3, #0x50
  000b0	e3a03000	 mov         r3, #0
  000b4	e5823000	 str         r3, [r2]

; 51   :     m_bIsBuiltInDma = TRUE;

  000b8	e59d3030	 ldr         r3, [sp, #0x30]
  000bc	e2832034	 add         r2, r3, #0x34
  000c0	e3a03001	 mov         r3, #1
  000c4	e5823000	 str         r3, [r2]

; 52   :     m_pobMem = NULL;

  000c8	e59d3030	 ldr         r3, [sp, #0x30]
  000cc	e2832048	 add         r2, r3, #0x48
  000d0	e3a03000	 mov         r3, #0
  000d4	e5823000	 str         r3, [r2]

; 53   :     m_pobOhcd = NULL;

  000d8	e59d3030	 ldr         r3, [sp, #0x30]
  000dc	e2832054	 add         r2, r3, #0x54
  000e0	e3a03000	 mov         r3, #0
  000e4	e5823000	 str         r3, [r2]

; 54   :     m_hParentBusHandle =  CreateBusAccessHandle((LPCWSTR)g_dwContext);

  000e8	e59f3104	 ldr         r3, [pc, #0x104]
  000ec	e5930000	 ldr         r0, [r3]
  000f0	eb000000	 bl          CreateBusAccessHandle
  000f4	e58d0014	 str         r0, [sp, #0x14]
  000f8	e59d3030	 ldr         r3, [sp, #0x30]
  000fc	e283205c	 add         r2, r3, #0x5C
  00100	e59d3014	 ldr         r3, [sp, #0x14]
  00104	e5823000	 str         r3, [r2]

; 55   :     m_lpDriverReg = NULL;

  00108	e59d3030	 ldr         r3, [sp, #0x30]
  0010c	e2832058	 add         r2, r3, #0x58
  00110	e3a03000	 mov         r3, #0
  00114	e5823000	 str         r3, [r2]

; 56   :     if (lpActiveRegistry) {

  00118	e59d3034	 ldr         r3, [sp, #0x34]
  0011c	e3530000	 cmp         r3, #0
  00120	0a00002d	 beq         |$LN2@SOhcdPdd|

; 57   :         DWORD dwLen = _tcslen(lpActiveRegistry);

  00124	e59d0034	 ldr         r0, [sp, #0x34]
  00128	eb000000	 bl          wcslen
  0012c	e58d0018	 str         r0, [sp, #0x18]
  00130	e59d3018	 ldr         r3, [sp, #0x18]
  00134	e58d3000	 str         r3, [sp]

; 58   :         m_lpDriverReg = new TCHAR [ dwLen +1 ];

  00138	e59d3000	 ldr         r3, [sp]
  0013c	e2833001	 add         r3, r3, #1
  00140	e58d301c	 str         r3, [sp, #0x1C]
  00144	e59d301c	 ldr         r3, [sp, #0x1C]
  00148	e3730106	 cmn         r3, #6, 2
  0014c	8a000004	 bhi         |$LN5@SOhcdPdd|
  00150	e59d201c	 ldr         r2, [sp, #0x1C]
  00154	e3a03002	 mov         r3, #2
  00158	e0030392	 mul         r3, r2, r3
  0015c	e58d3020	 str         r3, [sp, #0x20]
  00160	ea000001	 b           |$LN6@SOhcdPdd|
  00164		 |$LN5@SOhcdPdd|
  00164	e3e03000	 mvn         r3, #0
  00168	e58d3020	 str         r3, [sp, #0x20]
  0016c		 |$LN6@SOhcdPdd|
  0016c	e59d0020	 ldr         r0, [sp, #0x20]
  00170	eb000000	 bl          |??2@YAPAXI@Z|
  00174	e58d0024	 str         r0, [sp, #0x24]
  00178	e59d3024	 ldr         r3, [sp, #0x24]
  0017c	e58d3004	 str         r3, [sp, #4]
  00180	e59d3030	 ldr         r3, [sp, #0x30]
  00184	e2832058	 add         r2, r3, #0x58
  00188	e59d3004	 ldr         r3, [sp, #4]
  0018c	e5823000	 str         r3, [r2]

; 59   :         if (m_lpDriverReg) {

  00190	e59d3030	 ldr         r3, [sp, #0x30]
  00194	e2833058	 add         r3, r3, #0x58
  00198	e5933000	 ldr         r3, [r3]
  0019c	e3530000	 cmp         r3, #0
  001a0	0a00000d	 beq         |$LN1@SOhcdPdd|

; 60   :             _tcscpy(m_lpDriverReg,lpActiveRegistry);

  001a4	e59d1034	 ldr         r1, [sp, #0x34]
  001a8	e59d3030	 ldr         r3, [sp, #0x30]
  001ac	e2833058	 add         r3, r3, #0x58
  001b0	e5930000	 ldr         r0, [r3]
  001b4	eb000000	 bl          wcscpy

; 61   :             m_lpDriverReg [ dwLen ] =0;

  001b8	e59d3030	 ldr         r3, [sp, #0x30]
  001bc	e2830058	 add         r0, r3, #0x58
  001c0	e59d1000	 ldr         r1, [sp]
  001c4	e3a03002	 mov         r3, #2
  001c8	e0020391	 mul         r2, r1, r3
  001cc	e5903000	 ldr         r3, [r0]
  001d0	e0832002	 add         r2, r3, r2
  001d4	e3a03000	 mov         r3, #0
  001d8	e1c230b0	 strh        r3, [r2]
  001dc		 |$LN1@SOhcdPdd|
  001dc		 |$LN2@SOhcdPdd|

; 62   :         }
; 63   :     }
; 64   : }

  001dc	e59d3030	 ldr         r3, [sp, #0x30]
  001e0	e58d3008	 str         r3, [sp, #8]
  001e4	e59d0008	 ldr         r0, [sp, #8]
  001e8	e28dd028	 add         sp, sp, #0x28
  001ec	e89d6000	 ldmia       sp, {sp, lr}
  001f0	e12fff1e	 bx          lr
  001f4		 |$LN10@SOhcdPdd|
  001f4		 |$LN11@SOhcdPdd|
  001f4	00000000	 DCD         |g_dwContext|
  001f8		 |$LN12@SOhcdPdd|
  001f8	00000000	 DCD         |??_7SOhcdPdd@@6B@|
  001fc		 |$M38804|

			 ENDP  ; |??0SOhcdPdd@@QAA@PBG@Z|, SOhcdPdd::SOhcdPdd

	EXPORT	|?ThreadProc@CMiniThread@@CAKPAX@Z|	; CMiniThread::ThreadProc
	EXPORT	|??_7CMiniThread@@6B@| [ DATA ]		; CMiniThread::`vftable'
	IMPORT	|CreateThread|
; File c:\wince600\public\common\oak\inc\cmthread.h

  00000			 AREA	 |.pdata|, PDATA
|$T38819| DCD	|$LN7@CMiniThrea|
	DCD	0x40003204

  00000			 AREA	 |.rdata|, DATA, READONLY
|??_7CMiniThread@@6B@| DCD |_purecall|			; CMiniThread::`vftable'
; Function compile flags: /Odtp

  00000			 AREA	 |.text|, CODE, ARM

  00000		 |??0CMiniThread@@QAA@KH@Z| PROC	; CMiniThread::CMiniThread

; 29   :     CMiniThread( DWORD dwStackSize = 0, BOOL bSuspended = FALSE )

  00000		 |$LN7@CMiniThrea|
  00000	e1a0c00d	 mov         r12, sp
  00004	e92d0007	 stmdb       sp!, {r0 - r2}
  00008	e92d5000	 stmdb       sp!, {r12, lr}
  0000c	e24dd01c	 sub         sp, sp, #0x1C
  00010		 |$M38816|
  00010	e59f20ac	 ldr         r2, [pc, #0xAC]
  00014	e59d3024	 ldr         r3, [sp, #0x24]
  00018	e5832000	 str         r2, [r3]

; 30   :     {
; 31   :         m_bTerminated = FALSE;

  0001c	e59d3024	 ldr         r3, [sp, #0x24]
  00020	e2832004	 add         r2, r3, #4
  00024	e3a03000	 mov         r3, #0
  00028	e5823000	 str         r3, [r2]

; 32   :         m_dwExitCode = ( DWORD ) - 1;

  0002c	e59d3024	 ldr         r3, [sp, #0x24]
  00030	e2832014	 add         r2, r3, #0x14
  00034	e3e03000	 mvn         r3, #0
  00038	e5823000	 str         r3, [r2]

; 33   :         m_hThreadHandle = ::CreateThread( NULL,
; 34   :                                           dwStackSize,
; 35   :                                           CMiniThread::ThreadProc,
; 36   :                                           ( LPVOID )this,
; 37   :                                           bSuspended ? CREATE_SUSPENDED : 0,
; 38   :                                           &m_dwThreadId );

  0003c	e59d302c	 ldr         r3, [sp, #0x2C]
  00040	e3530000	 cmp         r3, #0
  00044	0a000002	 beq         |$LN3@CMiniThrea|
  00048	e3a03004	 mov         r3, #4
  0004c	e58d3014	 str         r3, [sp, #0x14]
  00050	ea000001	 b           |$LN4@CMiniThrea|
  00054		 |$LN3@CMiniThrea|
  00054	e3a03000	 mov         r3, #0
  00058	e58d3014	 str         r3, [sp, #0x14]
  0005c		 |$LN4@CMiniThrea|
  0005c	e59d3024	 ldr         r3, [sp, #0x24]
  00060	e283300c	 add         r3, r3, #0xC
  00064	e58d3004	 str         r3, [sp, #4]
  00068	e59d3014	 ldr         r3, [sp, #0x14]
  0006c	e58d3000	 str         r3, [sp]
  00070	e59d3024	 ldr         r3, [sp, #0x24]
  00074	e59f2044	 ldr         r2, [pc, #0x44]
  00078	e59d1028	 ldr         r1, [sp, #0x28]
  0007c	e3a00000	 mov         r0, #0
  00080	eb000000	 bl          CreateThread
  00084	e58d0018	 str         r0, [sp, #0x18]
  00088	e59d3024	 ldr         r3, [sp, #0x24]
  0008c	e2832008	 add         r2, r3, #8
  00090	e59d3018	 ldr         r3, [sp, #0x18]
  00094	e5823000	 str         r3, [r2]

; 39   :         m_bSuspendFlag = bSuspended;

  00098	e59d3024	 ldr         r3, [sp, #0x24]
  0009c	e2832010	 add         r2, r3, #0x10
  000a0	e59d302c	 ldr         r3, [sp, #0x2C]
  000a4	e5823000	 str         r3, [r2]

; 40   :     };

  000a8	e59d3024	 ldr         r3, [sp, #0x24]
  000ac	e58d3010	 str         r3, [sp, #0x10]
  000b0	e59d0010	 ldr         r0, [sp, #0x10]
  000b4	e28dd01c	 add         sp, sp, #0x1C
  000b8	e89d6000	 ldmia       sp, {sp, lr}
  000bc	e12fff1e	 bx          lr
  000c0		 |$LN8@CMiniThrea|
  000c0		 |$LN9@CMiniThrea|
  000c0	00000000	 DCD         |?ThreadProc@CMiniThread@@CAKPAX@Z|
  000c4		 |$LN10@CMiniThrea|
  000c4	00000000	 DCD         |??_7CMiniThread@@6B@|
  000c8		 |$M38817|

			 ENDP  ; |??0CMiniThread@@QAA@KH@Z|, CMiniThread::CMiniThread

	IMPORT	|ExitThread|

  00000			 AREA	 |.pdata|, PDATA
|$T38830| DCD	|$LN5@ThreadProc|
	DCD	0x40001d04
; Function compile flags: /Odtp

  00000			 AREA	 |.text|, CODE, ARM

  00000		 |?ThreadProc@CMiniThread@@CAKPAX@Z| PROC ; CMiniThread::ThreadProc

; 154  :     {

  00000		 |$LN5@ThreadProc|
  00000	e1a0c00d	 mov         r12, sp
  00004	e92d0001	 stmdb       sp!, {r0}
  00008	e92d5000	 stmdb       sp!, {r12, lr}
  0000c	e24dd00c	 sub         sp, sp, #0xC
  00010		 |$M38827|

; 155  :         CMiniThread* pThreadPtr = ( CMiniThread* ) dParam;

  00010	e59d3014	 ldr         r3, [sp, #0x14]
  00014	e58d3000	 str         r3, [sp]

; 156  :         pThreadPtr->m_dwExitCode = pThreadPtr->ThreadRun();

  00018	e59d3000	 ldr         r3, [sp]
  0001c	e5933000	 ldr         r3, [r3]
  00020	e59d0000	 ldr         r0, [sp]
  00024	e5933000	 ldr         r3, [r3]
  00028	e1a0e00f	 mov         lr, pc
  0002c	e12fff13	 bx          r3
  00030	e58d0008	 str         r0, [sp, #8]
  00034	e59d3000	 ldr         r3, [sp]
  00038	e2832014	 add         r2, r3, #0x14
  0003c	e59d3008	 ldr         r3, [sp, #8]
  00040	e5823000	 str         r3, [r2]

; 157  :         ::ExitThread( pThreadPtr->m_dwExitCode );

  00044	e59d3000	 ldr         r3, [sp]
  00048	e2833014	 add         r3, r3, #0x14
  0004c	e5930000	 ldr         r0, [r3]
  00050	eb000000	 bl          ExitThread

; 158  :         return pThreadPtr->m_dwExitCode;

  00054	e59d3000	 ldr         r3, [sp]
  00058	e2833014	 add         r3, r3, #0x14
  0005c	e5933000	 ldr         r3, [r3]
  00060	e58d3004	 str         r3, [sp, #4]

; 159  :     };

  00064	e59d0004	 ldr         r0, [sp, #4]
  00068	e28dd00c	 add         sp, sp, #0xC
  0006c	e89d6000	 ldmia       sp, {sp, lr}
  00070	e12fff1e	 bx          lr
  00074		 |$M38828|

			 ENDP  ; |?ThreadProc@CMiniThread@@CAKPAX@Z|, CMiniThread::ThreadProc

	IMPORT	|RegOpenKeyExW|
; File c:\wince600\public\common\oak\inc\cregedit.h

  00000			 AREA	 |.pdata|, PDATA
|$T38839| DCD	|$LN7@CRegistryE|
	DCD	0x40001e04
; Function compile flags: /Odtp

  00000			 AREA	 |.text|, CODE, ARM

  00000		 |??0CRegistryEdit@@QAA@PAUHKEY__@@PBG@Z| PROC ; CRegistryEdit::CRegistryEdit

; 45   :     CRegistryEdit( HKEY hKey, LPCTSTR pszRegPath )

  00000		 |$LN7@CRegistryE|
  00000	e1a0c00d	 mov         r12, sp
  00004	e92d0007	 stmdb       sp!, {r0 - r2}
  00008	e92d5000	 stmdb       sp!, {r12, lr}
  0000c	e24dd010	 sub         sp, sp, #0x10
  00010		 |$M38836|

; 46   :     {
; 47   :         m_hDevKey = NULL;

  00010	e59d2018	 ldr         r2, [sp, #0x18]
  00014	e3a03000	 mov         r3, #0
  00018	e5823000	 str         r3, [r2]

; 48   :         if( pszRegPath )

  0001c	e59d3020	 ldr         r3, [sp, #0x20]
  00020	e3530000	 cmp         r3, #0
  00024	0a00000d	 beq         |$LN2@CRegistryE|

; 49   :         {
; 50   :             if( RegOpenKeyEx( hKey, pszRegPath, 0, 0, &m_hDevKey ) != ERROR_SUCCESS )

  00028	e59d3018	 ldr         r3, [sp, #0x18]
  0002c	e58d3000	 str         r3, [sp]
  00030	e3a03000	 mov         r3, #0
  00034	e3a02000	 mov         r2, #0
  00038	e59d1020	 ldr         r1, [sp, #0x20]
  0003c	e59d001c	 ldr         r0, [sp, #0x1C]
  00040	eb000000	 bl          RegOpenKeyExW
  00044	e58d000c	 str         r0, [sp, #0xC]
  00048	e59d300c	 ldr         r3, [sp, #0xC]
  0004c	e3530000	 cmp         r3, #0
  00050	0a000002	 beq         |$LN1@CRegistryE|

; 51   :             {
; 52   :                 m_hDevKey = NULL;

  00054	e59d2018	 ldr         r2, [sp, #0x18]
  00058	e3a03000	 mov         r3, #0
  0005c	e5823000	 str         r3, [r2]
  00060		 |$LN1@CRegistryE|
  00060		 |$LN2@CRegistryE|

; 53   :             }
; 54   :         }
; 55   :     }

  00060	e59d3018	 ldr         r3, [sp, #0x18]
  00064	e58d3008	 str         r3, [sp, #8]
  00068	e59d0008	 ldr         r0, [sp, #8]
  0006c	e28dd010	 add         sp, sp, #0x10
  00070	e89d6000	 ldmia       sp, {sp, lr}
  00074	e12fff1e	 bx          lr
  00078		 |$M38837|

			 ENDP  ; |??0CRegistryEdit@@QAA@PAUHKEY__@@PBG@Z|, CRegistryEdit::CRegistryEdit

; File c:\wince600\platform\common\src\soc\pxa27x_ms_v1\inc\bulverde_usbohci.h

  00000			 AREA	 |.pdata|, PDATA
|$T38846| DCD	|$LN5@DisablePdd|
	DCD	0x40000b03
; Function compile flags: /Odtp

  00000			 AREA	 |.text|, CODE, ARM

  00000		 |?DisablePddInterrupts@SOhcdPdd@@MAAXXZ| PROC ; SOhcdPdd::DisablePddInterrupts

; 63   :     virtual void DisablePddInterrupts() { 

  00000		 |$LN5@DisablePdd|
  00000	e1a0c00d	 mov         r12, sp
  00004	e92d0001	 stmdb       sp!, {r0}
  00008	e92d5000	 stmdb       sp!, {r12, lr}
  0000c		 |$M38843|

; 64   :         m_pDCUSBOHCIReg->uhchie = 0 ; // Mask All PDD interrupt.

  0000c	e59d3008	 ldr         r3, [sp, #8]
  00010	e2833020	 add         r3, r3, #0x20
  00014	e5933000	 ldr         r3, [r3]
  00018	e2832068	 add         r2, r3, #0x68
  0001c	e3a03000	 mov         r3, #0
  00020	e5823000	 str         r3, [r2]

; 65   :     };

  00024	e89d6000	 ldmia       sp, {sp, lr}
  00028	e12fff1e	 bx          lr
  0002c		 |$M38844|

			 ENDP  ; |?DisablePddInterrupts@SOhcdPdd@@MAAXXZ|, SOhcdPdd::DisablePddInterrupts


  00000			 AREA	 |.pdata|, PDATA
|$T38854| DCD	|$LN5@ThreadRun|
	DCD	0x40000a04
; Function compile flags: /Odtp

  00000			 AREA	 |.text|, CODE, ARM

  00000		 |?ThreadRun@SOhcdPdd@@EAAKXZ| PROC	; SOhcdPdd::ThreadRun

; 68   :     virtual DWORD ThreadRun() { return 1; }   // PDD IST

  00000		 |$LN5@ThreadRun|
  00000	e1a0c00d	 mov         r12, sp
  00004	e92d0001	 stmdb       sp!, {r0}
  00008	e92d5000	 stmdb       sp!, {r12, lr}
  0000c	e24dd004	 sub         sp, sp, #4
  00010		 |$M38851|
  00010	e3a03001	 mov         r3, #1
  00014	e58d3000	 str         r3, [sp]
  00018	e59d0000	 ldr         r0, [sp]
  0001c	e28dd004	 add         sp, sp, #4
  00020	e89d6000	 ldmia       sp, {sp, lr}
  00024	e12fff1e	 bx          lr
  00028		 |$M38852|

			 ENDP  ; |?ThreadRun@SOhcdPdd@@EAAKXZ|, SOhcdPdd::ThreadRun

	EXPORT	|??1SOhcdPdd@@UAA@XZ|			; SOhcdPdd::~SOhcdPdd
	IMPORT	|??3@YAXPAX@Z|				; operator delete

  00000			 AREA	 |.pdata|, PDATA
|$T38862| DCD	|$LN6@scalar|
	DCD	0x40001104
; Function compile flags: /Odtp

  00000			 AREA	 |.text|, CODE, ARM

  00000		 |??_GSOhcdPdd@@UAAPAXI@Z| PROC		; SOhcdPdd::`scalar deleting destructor'
  00000		 |$LN6@scalar|
  00000	e1a0c00d	 mov         r12, sp
  00004	e92d0003	 stmdb       sp!, {r0, r1}
  00008	e92d5000	 stmdb       sp!, {r12, lr}
  0000c	e24dd004	 sub         sp, sp, #4
  00010		 |$M38859|
  00010	e59d000c	 ldr         r0, [sp, #0xC]
  00014	eb000000	 bl          |??1SOhcdPdd@@UAA@XZ|
  00018	e59d3010	 ldr         r3, [sp, #0x10]
  0001c	e3130001	 tst         r3, #1
  00020	0a000001	 beq         |$LN1@scalar|
  00024	e59d000c	 ldr         r0, [sp, #0xC]
  00028	eb000000	 bl          |??3@YAXPAX@Z|
  0002c		 |$LN1@scalar|
  0002c	e59d300c	 ldr         r3, [sp, #0xC]
  00030	e58d3000	 str         r3, [sp]
  00034	e59d0000	 ldr         r0, [sp]
  00038	e28dd004	 add         sp, sp, #4
  0003c	e89d6000	 ldmia       sp, {sp, lr}
  00040	e12fff1e	 bx          lr
  00044		 |$M38860|

			 ENDP  ; |??_GSOhcdPdd@@UAAPAXI@Z|, SOhcdPdd::`scalar deleting destructor'

	EXPORT	|??1CRegistryEdit@@QAA@XZ|		; CRegistryEdit::~CRegistryEdit
	EXPORT	|??1CMiniThread@@QAA@XZ|		; CMiniThread::~CMiniThread
	EXPORT	|?ThreadTerminated@CMiniThread@@QAAHK@Z| ; CMiniThread::ThreadTerminated
	EXPORT	|?ThreadStart@CMiniThread@@QAAHXZ|	; CMiniThread::ThreadStart
	IMPORT	|CloseBusAccessHandle|
	IMPORT	|HalFreeCommonBuffer|
	IMPORT	|MmUnmapIoSpace|
	IMPORT	|HcdMdd_DestroyMemoryObject|
	IMPORT	|HcdMdd_DestroyHcdObject|
	IMPORT	|FreeIntChainHandler|

  00008			 AREA	 |.pdata|, PDATA
|$T38874| DCD	|$LN18@SOhcdPdd@2|
	DCD	0x40009404
; Function compile flags: /Odtp
; File c:\wince600\platform\common\src\soc\pxa27x_ms_v1\hcd\bul_ohci.cpp

  001fc			 AREA	 |.text|, CODE, ARM

  001fc		 |??1SOhcdPdd@@UAA@XZ| PROC		; SOhcdPdd::~SOhcdPdd

; 66   : {

  001fc		 |$LN18@SOhcdPdd@2|
  001fc	e1a0c00d	 mov         r12, sp
  00200	e92d0001	 stmdb       sp!, {r0}
  00204	e92d5000	 stmdb       sp!, {r12, lr}
  00208	e24dd01c	 sub         sp, sp, #0x1C
  0020c		 |$M38871|
  0020c	e59f2234	 ldr         r2, [pc, #0x234]
  00210	e59d3024	 ldr         r3, [sp, #0x24]
  00214	e5832000	 str         r2, [r3]

; 67   :     m_bTerminated=TRUE;

  00218	e59d3024	 ldr         r3, [sp, #0x24]
  0021c	e2832004	 add         r2, r3, #4
  00220	e3a03001	 mov         r3, #1
  00224	e5823000	 str         r3, [r2]

; 68   :     ThreadStart();

  00228	e59d0024	 ldr         r0, [sp, #0x24]
  0022c	eb000000	 bl          |?ThreadStart@CMiniThread@@QAAHXZ|

; 69   :     // Signal IST.
; 70   :     ThreadStart();

  00230	e59d0024	 ldr         r0, [sp, #0x24]
  00234	eb000000	 bl          |?ThreadStart@CMiniThread@@QAAHXZ|

; 71   :     DisablePddInterrupts();

  00238	e59d0024	 ldr         r0, [sp, #0x24]
  0023c	eb000000	 bl          |?DisablePddInterrupts@SOhcdPdd@@MAAXXZ|

; 72   :     ThreadTerminated(1000);

  00240	e3a01ffa	 mov         r1, #0xFA, 30
  00244	e59d0024	 ldr         r0, [sp, #0x24]
  00248	eb000000	 bl          |?ThreadTerminated@CMiniThread@@QAAHK@Z|

; 73   :     //
; 74   :     if (m_IsrHandle) {

  0024c	e59d3024	 ldr         r3, [sp, #0x24]
  00250	e2833050	 add         r3, r3, #0x50
  00254	e5933000	 ldr         r3, [r3]
  00258	e3530000	 cmp         r3, #0
  0025c	0a000003	 beq         |$LN11@SOhcdPdd@2|

; 75   :         FreeIntChainHandler(m_IsrHandle);

  00260	e59d3024	 ldr         r3, [sp, #0x24]
  00264	e2833050	 add         r3, r3, #0x50
  00268	e5930000	 ldr         r0, [r3]
  0026c	eb000000	 bl          FreeIntChainHandler
  00270		 |$LN11@SOhcdPdd@2|

; 76   :     }
; 77   :     
; 78   :     if ( m_pobOhcd )

  00270	e59d3024	 ldr         r3, [sp, #0x24]
  00274	e2833054	 add         r3, r3, #0x54
  00278	e5933000	 ldr         r3, [r3]
  0027c	e3530000	 cmp         r3, #0
  00280	0a000003	 beq         |$LN10@SOhcdPdd@2|

; 79   :         HcdMdd_DestroyHcdObject( m_pobOhcd );

  00284	e59d3024	 ldr         r3, [sp, #0x24]
  00288	e2833054	 add         r3, r3, #0x54
  0028c	e5930000	 ldr         r0, [r3]
  00290	eb000000	 bl          HcdMdd_DestroyHcdObject
  00294		 |$LN10@SOhcdPdd@2|

; 80   :     if (m_pobMem)

  00294	e59d3024	 ldr         r3, [sp, #0x24]
  00298	e2833048	 add         r3, r3, #0x48
  0029c	e5933000	 ldr         r3, [r3]
  002a0	e3530000	 cmp         r3, #0
  002a4	0a000003	 beq         |$LN9@SOhcdPdd@2|

; 81   :         HcdMdd_DestroyMemoryObject(m_pobMem);

  002a8	e59d3024	 ldr         r3, [sp, #0x24]
  002ac	e2833048	 add         r3, r3, #0x48
  002b0	e5930000	 ldr         r0, [r3]
  002b4	eb000000	 bl          HcdMdd_DestroyMemoryObject
  002b8		 |$LN9@SOhcdPdd@2|

; 82   :     
; 83   :     if (m_pvDmaVirtualAddress) {        

  002b8	e59d3024	 ldr         r3, [sp, #0x24]
  002bc	e2833040	 add         r3, r3, #0x40
  002c0	e5933000	 ldr         r3, [r3]
  002c4	e3530000	 cmp         r3, #0
  002c8	0a00001c	 beq         |$LN8@SOhcdPdd@2|

; 84   :         if (m_bIsBuiltInDma) {

  002cc	e59d3024	 ldr         r3, [sp, #0x24]
  002d0	e2833034	 add         r3, r3, #0x34
  002d4	e5933000	 ldr         r3, [r3]
  002d8	e3530000	 cmp         r3, #0
  002dc	0a000005	 beq         |$LN7@SOhcdPdd@2|

; 85   :             MmUnmapIoSpace(m_pvDmaVirtualAddress,0);

  002e0	e3a01000	 mov         r1, #0
  002e4	e59d3024	 ldr         r3, [sp, #0x24]
  002e8	e2833040	 add         r3, r3, #0x40
  002ec	e5930000	 ldr         r0, [r3]
  002f0	eb000000	 bl          MmUnmapIoSpace

; 86   :         }
; 87   :         else {

  002f4	ea000011	 b           |$LN6@SOhcdPdd@2|
  002f8		 |$LN7@SOhcdPdd@2|

; 88   :             HalFreeCommonBuffer(&m_AdapterObject, m_dwDamBufferSize, m_DmaPhysicalAddr, m_pvDmaVirtualAddress, FALSE);

  002f8	e3a03000	 mov         r3, #0
  002fc	e58d3004	 str         r3, [sp, #4]
  00300	e59d3024	 ldr         r3, [sp, #0x24]
  00304	e2833040	 add         r3, r3, #0x40
  00308	e5933000	 ldr         r3, [r3]
  0030c	e58d3000	 str         r3, [sp]
  00310	e59d3024	 ldr         r3, [sp, #0x24]
  00314	e2833038	 add         r3, r3, #0x38
  00318	e58d3014	 str         r3, [sp, #0x14]
  0031c	e59d3014	 ldr         r3, [sp, #0x14]
  00320	e5932000	 ldr         r2, [r3]
  00324	e5933004	 ldr         r3, [r3, #4]
  00328	e59d1024	 ldr         r1, [sp, #0x24]
  0032c	e2811044	 add         r1, r1, #0x44
  00330	e5911000	 ldr         r1, [r1]
  00334	e59d0024	 ldr         r0, [sp, #0x24]
  00338	e2800028	 add         r0, r0, #0x28
  0033c	eb000000	 bl          HalFreeCommonBuffer
  00340		 |$LN6@SOhcdPdd@2|
  00340		 |$LN8@SOhcdPdd@2|

; 89   :         }
; 90   :     }
; 91   :     if (m_lpDriverReg)

  00340	e59d3024	 ldr         r3, [sp, #0x24]
  00344	e2833058	 add         r3, r3, #0x58
  00348	e5933000	 ldr         r3, [r3]
  0034c	e3530000	 cmp         r3, #0
  00350	0a000005	 beq         |$LN5@SOhcdPdd@2|

; 92   :         delete m_lpDriverReg;

  00354	e59d3024	 ldr         r3, [sp, #0x24]
  00358	e2833058	 add         r3, r3, #0x58
  0035c	e5933000	 ldr         r3, [r3]
  00360	e58d3008	 str         r3, [sp, #8]
  00364	e59d0008	 ldr         r0, [sp, #8]
  00368	eb000000	 bl          |??3@YAXPAX@Z|
  0036c		 |$LN5@SOhcdPdd@2|

; 93   :     if (m_pDCCLKReg)

  0036c	e59d3024	 ldr         r3, [sp, #0x24]
  00370	e283301c	 add         r3, r3, #0x1C
  00374	e5933000	 ldr         r3, [r3]
  00378	e3530000	 cmp         r3, #0
  0037c	0a000004	 beq         |$LN4@SOhcdPdd@2|

; 94   :         MmUnmapIoSpace((PVOID)m_pDCCLKReg,0);

  00380	e3a01000	 mov         r1, #0
  00384	e59d3024	 ldr         r3, [sp, #0x24]
  00388	e283301c	 add         r3, r3, #0x1C
  0038c	e5930000	 ldr         r0, [r3]
  00390	eb000000	 bl          MmUnmapIoSpace
  00394		 |$LN4@SOhcdPdd@2|

; 95   :     if (m_pDCUSBOHCIReg)

  00394	e59d3024	 ldr         r3, [sp, #0x24]
  00398	e2833020	 add         r3, r3, #0x20
  0039c	e5933000	 ldr         r3, [r3]
  003a0	e3530000	 cmp         r3, #0
  003a4	0a000004	 beq         |$LN3@SOhcdPdd@2|

; 96   :         MmUnmapIoSpace((PVOID)m_pDCUSBOHCIReg,0);

  003a8	e3a01000	 mov         r1, #0
  003ac	e59d3024	 ldr         r3, [sp, #0x24]
  003b0	e2833020	 add         r3, r3, #0x20
  003b4	e5930000	 ldr         r0, [r3]
  003b8	eb000000	 bl          MmUnmapIoSpace
  003bc		 |$LN3@SOhcdPdd@2|

; 97   :     if (m_pvDmaVirtualAddress)

  003bc	e59d3024	 ldr         r3, [sp, #0x24]
  003c0	e2833040	 add         r3, r3, #0x40
  003c4	e5933000	 ldr         r3, [r3]
  003c8	e3530000	 cmp         r3, #0
  003cc	0a000004	 beq         |$LN2@SOhcdPdd@2|

; 98   :         MmUnmapIoSpace(m_pvDmaVirtualAddress,0);

  003d0	e3a01000	 mov         r1, #0
  003d4	e59d3024	 ldr         r3, [sp, #0x24]
  003d8	e2833040	 add         r3, r3, #0x40
  003dc	e5930000	 ldr         r0, [r3]
  003e0	eb000000	 bl          MmUnmapIoSpace
  003e4		 |$LN2@SOhcdPdd@2|

; 99   :     if (m_hParentBusHandle)

  003e4	e59d3024	 ldr         r3, [sp, #0x24]
  003e8	e283305c	 add         r3, r3, #0x5C
  003ec	e5933000	 ldr         r3, [r3]
  003f0	e3530000	 cmp         r3, #0
  003f4	0a000003	 beq         |$LN1@SOhcdPdd@2|

; 100  :         CloseBusAccessHandle(m_hParentBusHandle);

  003f8	e59d3024	 ldr         r3, [sp, #0x24]
  003fc	e283305c	 add         r3, r3, #0x5C
  00400	e5930000	 ldr         r0, [r3]
  00404	eb000000	 bl          CloseBusAccessHandle
  00408		 |$LN1@SOhcdPdd@2|

; 101  : 
; 102  : }

  00408	e59d0024	 ldr         r0, [sp, #0x24]
  0040c	eb000000	 bl          |??1CMiniThread@@QAA@XZ|
  00410	e59d3024	 ldr         r3, [sp, #0x24]
  00414	e3530000	 cmp         r3, #0
  00418	0a000003	 beq         |$LN14@SOhcdPdd@2|
  0041c	e59d3024	 ldr         r3, [sp, #0x24]
  00420	e2833018	 add         r3, r3, #0x18
  00424	e58d3018	 str         r3, [sp, #0x18]
  00428	ea000001	 b           |$LN15@SOhcdPdd@2|
  0042c		 |$LN14@SOhcdPdd@2|
  0042c	e3a03000	 mov         r3, #0
  00430	e58d3018	 str         r3, [sp, #0x18]
  00434		 |$LN15@SOhcdPdd@2|
  00434	e59d0018	 ldr         r0, [sp, #0x18]
  00438	eb000000	 bl          |??1CRegistryEdit@@QAA@XZ|
  0043c	e28dd01c	 add         sp, sp, #0x1C
  00440	e89d6000	 ldmia       sp, {sp, lr}
  00444	e12fff1e	 bx          lr
  00448		 |$LN19@SOhcdPdd@2|
  00448		 |$LN20@SOhcdPdd@2|
  00448	00000000	 DCD         |??_7SOhcdPdd@@6B@|
  0044c		 |$M38872|

			 ENDP  ; |??1SOhcdPdd@@UAA@XZ|, SOhcdPdd::~SOhcdPdd

	EXPORT	|?ForceTerminated@CMiniThread@@QAAHXZ|	; CMiniThread::ForceTerminated
; File c:\wince600\public\common\oak\inc\cmthread.h

  00000			 AREA	 |.pdata|, PDATA
|$T38881| DCD	|$LN5@CMiniThrea@2|
	DCD	0x40000b03
; Function compile flags: /Odtp

  00000			 AREA	 |.text|, CODE, ARM

  00000		 |??1CMiniThread@@QAA@XZ| PROC		; CMiniThread::~CMiniThread

; 44   :     {

  00000		 |$LN5@CMiniThrea@2|
  00000	e1a0c00d	 mov         r12, sp
  00004	e92d0001	 stmdb       sp!, {r0}
  00008	e92d5000	 stmdb       sp!, {r12, lr}
  0000c		 |$M38878|
  0000c	e59f2014	 ldr         r2, [pc, #0x14]
  00010	e59d3008	 ldr         r3, [sp, #8]
  00014	e5832000	 str         r2, [r3]

; 45   :         ForceTerminated();

  00018	e59d0008	 ldr         r0, [sp, #8]
  0001c	eb000000	 bl          |?ForceTerminated@CMiniThread@@QAAHXZ|

; 46   :     }

  00020	e89d6000	 ldmia       sp, {sp, lr}
  00024	e12fff1e	 bx          lr
  00028		 |$LN6@CMiniThrea@2|
  00028		 |$LN7@CMiniThrea@2|
  00028	00000000	 DCD         |??_7CMiniThread@@6B@|
  0002c		 |$M38879|

			 ENDP  ; |??1CMiniThread@@QAA@XZ|, CMiniThread::~CMiniThread

	IMPORT	|ResumeThread|

  00000			 AREA	 |.pdata|, PDATA
|$T38891| DCD	|$LN7@ThreadStar|
	DCD	0x40001e04
; Function compile flags: /Odtp

  00000			 AREA	 |.text|, CODE, ARM

  00000		 |?ThreadStart@CMiniThread@@QAAHXZ| PROC ; CMiniThread::ThreadStart

; 49   :     {

  00000		 |$LN7@ThreadStar|
  00000	e1a0c00d	 mov         r12, sp
  00004	e92d0001	 stmdb       sp!, {r0}
  00008	e92d5000	 stmdb       sp!, {r12, lr}
  0000c	e24dd008	 sub         sp, sp, #8
  00010		 |$M38888|

; 50   :         if( m_bSuspendFlag )

  00010	e59d3010	 ldr         r3, [sp, #0x10]
  00014	e2833010	 add         r3, r3, #0x10
  00018	e5933000	 ldr         r3, [r3]
  0001c	e3530000	 cmp         r3, #0
  00020	0a00000e	 beq         |$LN2@ThreadStar|

; 51   :         {
; 52   :             if( ResumeThread( m_hThreadHandle ) == ( DWORD ) ( -1 ) )

  00024	e59d3010	 ldr         r3, [sp, #0x10]
  00028	e2833008	 add         r3, r3, #8
  0002c	e5930000	 ldr         r0, [r3]
  00030	eb000000	 bl          ResumeThread
  00034	e58d0004	 str         r0, [sp, #4]
  00038	e59d3004	 ldr         r3, [sp, #4]
  0003c	e3730001	 cmn         r3, #1
  00040	1a000002	 bne         |$LN1@ThreadStar|

; 53   :             {
; 54   :                 // failure for resume somehow
; 55   :                 return FALSE;

  00044	e3a03000	 mov         r3, #0
  00048	e58d3000	 str         r3, [sp]
  0004c	ea000005	 b           |$LN3@ThreadStar|
  00050		 |$LN1@ThreadStar|

; 56   :             };
; 57   :             m_bSuspendFlag = FALSE;

  00050	e59d3010	 ldr         r3, [sp, #0x10]
  00054	e2832010	 add         r2, r3, #0x10
  00058	e3a03000	 mov         r3, #0
  0005c	e5823000	 str         r3, [r2]
  00060		 |$LN2@ThreadStar|

; 58   :         }
; 59   :         return TRUE;

  00060	e3a03001	 mov         r3, #1
  00064	e58d3000	 str         r3, [sp]
  00068		 |$LN3@ThreadStar|

; 60   :     }

  00068	e59d0000	 ldr         r0, [sp]
  0006c	e28dd008	 add         sp, sp, #8
  00070	e89d6000	 ldmia       sp, {sp, lr}
  00074	e12fff1e	 bx          lr
  00078		 |$M38889|

			 ENDP  ; |?ThreadStart@CMiniThread@@QAAHXZ|, CMiniThread::ThreadStart

	EXPORT	|?WaitThreadComplete@CMiniThread@@QAAHK@Z| ; CMiniThread::WaitThreadComplete

  00000			 AREA	 |.pdata|, PDATA
|$T38899| DCD	|$LN5@ThreadTerm|
	DCD	0x40001204
; Function compile flags: /Odtp

  00000			 AREA	 |.text|, CODE, ARM

  00000		 |?ThreadTerminated@CMiniThread@@QAAHK@Z| PROC ; CMiniThread::ThreadTerminated

; 86   :     {

  00000		 |$LN5@ThreadTerm|
  00000	e1a0c00d	 mov         r12, sp
  00004	e92d0003	 stmdb       sp!, {r0, r1}
  00008	e92d5000	 stmdb       sp!, {r12, lr}
  0000c	e24dd008	 sub         sp, sp, #8
  00010		 |$M38896|

; 87   :         m_bTerminated = TRUE;

  00010	e59d3010	 ldr         r3, [sp, #0x10]
  00014	e2832004	 add         r2, r3, #4
  00018	e3a03001	 mov         r3, #1
  0001c	e5823000	 str         r3, [r2]

; 88   :         return WaitThreadComplete( dwMilliSeconds  );

  00020	e59d1014	 ldr         r1, [sp, #0x14]
  00024	e59d0010	 ldr         r0, [sp, #0x10]
  00028	eb000000	 bl          |?WaitThreadComplete@CMiniThread@@QAAHK@Z|
  0002c	e58d0004	 str         r0, [sp, #4]
  00030	e59d3004	 ldr         r3, [sp, #4]
  00034	e58d3000	 str         r3, [sp]

; 89   :     }

  00038	e59d0000	 ldr         r0, [sp]
  0003c	e28dd008	 add         sp, sp, #8
  00040	e89d6000	 ldmia       sp, {sp, lr}
  00044	e12fff1e	 bx          lr
  00048		 |$M38897|

			 ENDP  ; |?ThreadTerminated@CMiniThread@@QAAHK@Z|, CMiniThread::ThreadTerminated

	IMPORT	|CloseHandle|
	IMPORT	|WaitForSingleObject|

  00000			 AREA	 |.pdata|, PDATA
|$T38907| DCD	|$LN8@WaitThread|
	DCD	0x40002c04
; Function compile flags: /Odtp

  00000			 AREA	 |.text|, CODE, ARM

  00000		 |?WaitThreadComplete@CMiniThread@@QAAHK@Z| PROC ; CMiniThread::WaitThreadComplete

; 92   :     {

  00000		 |$LN8@WaitThread|
  00000	e1a0c00d	 mov         r12, sp
  00004	e92d0003	 stmdb       sp!, {r0, r1}
  00008	e92d5000	 stmdb       sp!, {r12, lr}
  0000c	e24dd00c	 sub         sp, sp, #0xC
  00010		 |$M38904|

; 93   :         if( !m_hThreadHandle )

  00010	e59d3014	 ldr         r3, [sp, #0x14]
  00014	e2833008	 add         r3, r3, #8
  00018	e5933000	 ldr         r3, [r3]
  0001c	e3530000	 cmp         r3, #0
  00020	1a000002	 bne         |$LN3@WaitThread|

; 94   :         {
; 95   :             return FALSE;

  00024	e3a03000	 mov         r3, #0
  00028	e58d3000	 str         r3, [sp]
  0002c	ea00001b	 b           |$LN4@WaitThread|
  00030		 |$LN3@WaitThread|

; 96   :         };
; 97   : 
; 98   :         if( ThreadStart() )

  00030	e59d0014	 ldr         r0, [sp, #0x14]
  00034	eb000000	 bl          |?ThreadStart@CMiniThread@@QAAHXZ|
  00038	e58d0004	 str         r0, [sp, #4]
  0003c	e59d3004	 ldr         r3, [sp, #4]
  00040	e3530000	 cmp         r3, #0
  00044	0a000013	 beq         |$LN2@WaitThread|

; 99   :         {
; 100  :             if( ::WaitForSingleObject( m_hThreadHandle, dwMilliSeconds ) ==
; 101  :                 WAIT_OBJECT_0 )

  00048	e59d1018	 ldr         r1, [sp, #0x18]
  0004c	e59d3014	 ldr         r3, [sp, #0x14]
  00050	e2833008	 add         r3, r3, #8
  00054	e5930000	 ldr         r0, [r3]
  00058	eb000000	 bl          WaitForSingleObject
  0005c	e58d0008	 str         r0, [sp, #8]
  00060	e59d3008	 ldr         r3, [sp, #8]
  00064	e3530000	 cmp         r3, #0
  00068	1a00000a	 bne         |$LN1@WaitThread|

; 102  :             {
; 103  :                 // thread dead
; 104  :                 ::CloseHandle( m_hThreadHandle );

  0006c	e59d3014	 ldr         r3, [sp, #0x14]
  00070	e2833008	 add         r3, r3, #8
  00074	e5930000	 ldr         r0, [r3]
  00078	eb000000	 bl          CloseHandle

; 105  :                 m_hThreadHandle = NULL;

  0007c	e59d3014	 ldr         r3, [sp, #0x14]
  00080	e2832008	 add         r2, r3, #8
  00084	e3a03000	 mov         r3, #0
  00088	e5823000	 str         r3, [r2]

; 106  :                 return TRUE;

  0008c	e3a03001	 mov         r3, #1
  00090	e58d3000	 str         r3, [sp]
  00094	ea000001	 b           |$LN4@WaitThread|
  00098		 |$LN1@WaitThread|
  00098		 |$LN2@WaitThread|

; 107  :             }
; 108  :         }
; 109  :         return FALSE;

  00098	e3a03000	 mov         r3, #0
  0009c	e58d3000	 str         r3, [sp]
  000a0		 |$LN4@WaitThread|

; 110  :     }

  000a0	e59d0000	 ldr         r0, [sp]
  000a4	e28dd00c	 add         sp, sp, #0xC
  000a8	e89d6000	 ldmia       sp, {sp, lr}
  000ac	e12fff1e	 bx          lr
  000b0		 |$M38905|

			 ENDP  ; |?WaitThreadComplete@CMiniThread@@QAAHK@Z|, CMiniThread::WaitThreadComplete

	IMPORT	|TerminateThread|

  00000			 AREA	 |.pdata|, PDATA
|$T38915| DCD	|$LN6@ForceTermi|
	DCD	0x40002604
; Function compile flags: /Odtp

  00000			 AREA	 |.text|, CODE, ARM

  00000		 |?ForceTerminated@CMiniThread@@QAAHXZ| PROC ; CMiniThread::ForceTerminated

; 113  :     {

  00000		 |$LN6@ForceTermi|
  00000	e1a0c00d	 mov         r12, sp
  00004	e92d0001	 stmdb       sp!, {r0}
  00008	e92d5000	 stmdb       sp!, {r12, lr}
  0000c	e24dd00c	 sub         sp, sp, #0xC
  00010		 |$M38912|

; 114  :         if( m_hThreadHandle )

  00010	e59d3014	 ldr         r3, [sp, #0x14]
  00014	e2833008	 add         r3, r3, #8
  00018	e5933000	 ldr         r3, [r3]
  0001c	e3530000	 cmp         r3, #0
  00020	0a000016	 beq         |$LN1@ForceTermi|

; 115  :         {
; 116  : //#pragma prefast(suppress: 258, "Try to recover from a pathological failure")
; 117  :             BOOL bReturn = ::TerminateThread( m_hThreadHandle, ( DWORD ) - 1 ); // terminate abnormal

  00024	e3e01000	 mvn         r1, #0
  00028	e59d3014	 ldr         r3, [sp, #0x14]
  0002c	e2833008	 add         r3, r3, #8
  00030	e5930000	 ldr         r0, [r3]
  00034	eb000000	 bl          TerminateThread
  00038	e58d0008	 str         r0, [sp, #8]
  0003c	e59d3008	 ldr         r3, [sp, #8]
  00040	e58d3000	 str         r3, [sp]

; 118  :             m_dwExitCode = -1;

  00044	e59d3014	 ldr         r3, [sp, #0x14]
  00048	e2832014	 add         r2, r3, #0x14
  0004c	e3e03000	 mvn         r3, #0
  00050	e5823000	 str         r3, [r2]

; 119  :             ::CloseHandle( m_hThreadHandle );

  00054	e59d3014	 ldr         r3, [sp, #0x14]
  00058	e2833008	 add         r3, r3, #8
  0005c	e5930000	 ldr         r0, [r3]
  00060	eb000000	 bl          CloseHandle

; 120  :             m_hThreadHandle = NULL;

  00064	e59d3014	 ldr         r3, [sp, #0x14]
  00068	e2832008	 add         r2, r3, #8
  0006c	e3a03000	 mov         r3, #0
  00070	e5823000	 str         r3, [r2]

; 121  :             return bReturn;

  00074	e59d3000	 ldr         r3, [sp]
  00078	e58d3004	 str         r3, [sp, #4]
  0007c	ea000001	 b           |$LN2@ForceTermi|
  00080		 |$LN1@ForceTermi|

; 122  :         };
; 123  :         return TRUE;

  00080	e3a03001	 mov         r3, #1
  00084	e58d3004	 str         r3, [sp, #4]
  00088		 |$LN2@ForceTermi|

; 124  :     }

  00088	e59d0004	 ldr         r0, [sp, #4]
  0008c	e28dd00c	 add         sp, sp, #0xC
  00090	e89d6000	 ldmia       sp, {sp, lr}
  00094	e12fff1e	 bx          lr
  00098		 |$M38913|

			 ENDP  ; |?ForceTerminated@CMiniThread@@QAAHXZ|, CMiniThread::ForceTerminated

	IMPORT	|RegCloseKey|
; File c:\wince600\public\common\oak\inc\cregedit.h

  00000			 AREA	 |.pdata|, PDATA
|$T38922| DCD	|$LN6@CRegistryE@2|
	DCD	0x40000c03
; Function compile flags: /Odtp

  00000			 AREA	 |.text|, CODE, ARM

  00000		 |??1CRegistryEdit@@QAA@XZ| PROC	; CRegistryEdit::~CRegistryEdit

; 80   :     {

  00000		 |$LN6@CRegistryE@2|
  00000	e1a0c00d	 mov         r12, sp
  00004	e92d0001	 stmdb       sp!, {r0}
  00008	e92d5000	 stmdb       sp!, {r12, lr}
  0000c		 |$M38919|

; 81   :         if( m_hDevKey )

  0000c	e59d3008	 ldr         r3, [sp, #8]
  00010	e5933000	 ldr         r3, [r3]
  00014	e3530000	 cmp         r3, #0
  00018	0a000002	 beq         |$LN1@CRegistryE@2|

; 82   :         {
; 83   :             RegCloseKey( m_hDevKey );

  0001c	e59d3008	 ldr         r3, [sp, #8]
  00020	e5930000	 ldr         r0, [r3]
  00024	eb000000	 bl          RegCloseKey
  00028		 |$LN1@CRegistryE@2|

; 84   :         }
; 85   :     }

  00028	e89d6000	 ldmia       sp, {sp, lr}
  0002c	e12fff1e	 bx          lr
  00030		 |$M38920|

			 ENDP  ; |??1CRegistryEdit@@QAA@XZ|, CRegistryEdit::~CRegistryEdit

	EXPORT	|?TurnOnUSBHostClocks@SOhcdPdd@@QAAXXZ|	; SOhcdPdd::TurnOnUSBHostClocks
	EXPORT	|?IsKeyOpened@CRegistryEdit@@QAAHXZ|	; CRegistryEdit::IsKeyOpened
	IMPORT	|MmMapIoSpace|

  00010			 AREA	 |.pdata|, PDATA
|$T38932| DCD	|$LN8@Init|
	DCD	0x40008304
; Function compile flags: /Odtp
; File c:\wince600\platform\common\src\soc\pxa27x_ms_v1\hcd\bul_ohci.cpp

  0044c			 AREA	 |.text|, CODE, ARM

  0044c		 |?Init@SOhcdPdd@@UAAHXZ| PROC		; SOhcdPdd::Init

; 104  : {

  0044c		 |$LN8@Init|
  0044c	e1a0c00d	 mov         r12, sp
  00450	e92d0001	 stmdb       sp!, {r0}
  00454	e92d5000	 stmdb       sp!, {r12, lr}
  00458	e24dd030	 sub         sp, sp, #0x30
  0045c		 |$M38929|

; 105  :     {
; 106  :         PHYSICAL_ADDRESS ioPhysicalBase = { BULVERDE_BASE_REG_PA_CLKMGR, 0};

  0045c	e3a03441	 mov         r3, #0x41, 8
  00460	e3833603	 orr         r3, r3, #3, 12
  00464	e58d3000	 str         r3, [sp]
  00468	e3a03000	 mov         r3, #0
  0046c	e58d3004	 str         r3, [sp, #4]

; 107  :         m_pDCCLKReg = (PBULVERDE_CLKMGR_REG)MmMapIoSpace(ioPhysicalBase, sizeof(BULVERDE_CLKMGR_REG),FALSE);

  00470	e3a03000	 mov         r3, #0
  00474	e3a02010	 mov         r2, #0x10
  00478	e59d0000	 ldr         r0, [sp]
  0047c	e59d1004	 ldr         r1, [sp, #4]
  00480	eb000000	 bl          MmMapIoSpace
  00484	e58d0014	 str         r0, [sp, #0x14]
  00488	e59d3038	 ldr         r3, [sp, #0x38]
  0048c	e283201c	 add         r2, r3, #0x1C
  00490	e59d3014	 ldr         r3, [sp, #0x14]
  00494	e5823000	 str         r3, [r2]

; 108  :     }
; 109  :     {
; 110  :         PHYSICAL_ADDRESS ioPhysicalBase = { BULVERDE_BASE_REG_PA_USBH, 0};

  00498	e3a03313	 mov         r3, #0x13, 6
  0049c	e58d3008	 str         r3, [sp, #8]
  004a0	e3a03000	 mov         r3, #0
  004a4	e58d300c	 str         r3, [sp, #0xC]

; 111  :         m_pDCUSBOHCIReg = (PBULVERDE_USBOHCI_REG)MmMapIoSpace(ioPhysicalBase, sizeof(BULVERDE_USBOHCI_REG),FALSE);

  004a8	e3a03000	 mov         r3, #0
  004ac	e3a02070	 mov         r2, #0x70
  004b0	e59d0008	 ldr         r0, [sp, #8]
  004b4	e59d100c	 ldr         r1, [sp, #0xC]
  004b8	eb000000	 bl          MmMapIoSpace
  004bc	e58d0018	 str         r0, [sp, #0x18]
  004c0	e59d3038	 ldr         r3, [sp, #0x38]
  004c4	e2832020	 add         r2, r3, #0x20
  004c8	e59d3018	 ldr         r3, [sp, #0x18]
  004cc	e5823000	 str         r3, [r2]

; 112  :     }
; 113  :     if (m_pDCCLKReg && m_pDCUSBOHCIReg && IsKeyOpened()) {

  004d0	e59d3038	 ldr         r3, [sp, #0x38]
  004d4	e283301c	 add         r3, r3, #0x1C
  004d8	e5933000	 ldr         r3, [r3]
  004dc	e3530000	 cmp         r3, #0
  004e0	0a000056	 beq         |$LN1@Init|
  004e4	e59d3038	 ldr         r3, [sp, #0x38]
  004e8	e2833020	 add         r3, r3, #0x20
  004ec	e5933000	 ldr         r3, [r3]
  004f0	e3530000	 cmp         r3, #0
  004f4	0a000051	 beq         |$LN1@Init|
  004f8	e59d3038	 ldr         r3, [sp, #0x38]
  004fc	e2830018	 add         r0, r3, #0x18
  00500	eb000000	 bl          |?IsKeyOpened@CRegistryEdit@@QAAHXZ|
  00504	e58d001c	 str         r0, [sp, #0x1C]
  00508	e59d301c	 ldr         r3, [sp, #0x1C]
  0050c	e3530000	 cmp         r3, #0
  00510	0a00004a	 beq         |$LN1@Init|

; 114  :         TurnOnUSBHostClocks();

  00514	e59d0038	 ldr         r0, [sp, #0x38]
  00518	eb000000	 bl          |?TurnOnUSBHostClocks@SOhcdPdd@@QAAXXZ|

; 115  :         // Port 1
; 116  :         SetupUSBHostPWR(1);

  0051c	e3a01001	 mov         r1, #1
  00520	e59d3038	 ldr         r3, [sp, #0x38]
  00524	e5933000	 ldr         r3, [r3]
  00528	e283300c	 add         r3, r3, #0xC
  0052c	e59d0038	 ldr         r0, [sp, #0x38]
  00530	e5933000	 ldr         r3, [r3]
  00534	e1a0e00f	 mov         lr, pc
  00538	e12fff13	 bx          r3

; 117  :         SetupUSBHostPEN(1);

  0053c	e3a01001	 mov         r1, #1
  00540	e59d3038	 ldr         r3, [sp, #0x38]
  00544	e5933000	 ldr         r3, [r3]
  00548	e2833010	 add         r3, r3, #0x10
  0054c	e59d0038	 ldr         r0, [sp, #0x38]
  00550	e5933000	 ldr         r3, [r3]
  00554	e1a0e00f	 mov         lr, pc
  00558	e12fff13	 bx          r3

; 118  :         // Port 2
; 119  :         SetupUSBHostPWR(2);

  0055c	e3a01002	 mov         r1, #2
  00560	e59d3038	 ldr         r3, [sp, #0x38]
  00564	e5933000	 ldr         r3, [r3]
  00568	e283300c	 add         r3, r3, #0xC
  0056c	e59d0038	 ldr         r0, [sp, #0x38]
  00570	e5933000	 ldr         r3, [r3]
  00574	e1a0e00f	 mov         lr, pc
  00578	e12fff13	 bx          r3

; 120  :         SetupUSBHostPEN(2);

  0057c	e3a01002	 mov         r1, #2
  00580	e59d3038	 ldr         r3, [sp, #0x38]
  00584	e5933000	 ldr         r3, [r3]
  00588	e2833010	 add         r3, r3, #0x10
  0058c	e59d0038	 ldr         r0, [sp, #0x38]
  00590	e5933000	 ldr         r3, [r3]
  00594	e1a0e00f	 mov         lr, pc
  00598	e12fff13	 bx          r3

; 121  :         return (InitPddInterrupts() && OHCI_Reset() && InitializeOHCI());

  0059c	e59d3038	 ldr         r3, [sp, #0x38]
  005a0	e5933000	 ldr         r3, [r3]
  005a4	e283301c	 add         r3, r3, #0x1C
  005a8	e59d0038	 ldr         r0, [sp, #0x38]
  005ac	e5933000	 ldr         r3, [r3]
  005b0	e1a0e00f	 mov         lr, pc
  005b4	e12fff13	 bx          r3
  005b8	e58d0020	 str         r0, [sp, #0x20]
  005bc	e59d3020	 ldr         r3, [sp, #0x20]
  005c0	e3530000	 cmp         r3, #0
  005c4	0a000018	 beq         |$LN4@Init|
  005c8	e59d3038	 ldr         r3, [sp, #0x38]
  005cc	e5933000	 ldr         r3, [r3]
  005d0	e2833018	 add         r3, r3, #0x18
  005d4	e59d0038	 ldr         r0, [sp, #0x38]
  005d8	e5933000	 ldr         r3, [r3]
  005dc	e1a0e00f	 mov         lr, pc
  005e0	e12fff13	 bx          r3
  005e4	e58d0024	 str         r0, [sp, #0x24]
  005e8	e59d3024	 ldr         r3, [sp, #0x24]
  005ec	e3530000	 cmp         r3, #0
  005f0	0a00000d	 beq         |$LN4@Init|
  005f4	e59d3038	 ldr         r3, [sp, #0x38]
  005f8	e5933000	 ldr         r3, [r3]
  005fc	e2833014	 add         r3, r3, #0x14
  00600	e59d0038	 ldr         r0, [sp, #0x38]
  00604	e5933000	 ldr         r3, [r3]
  00608	e1a0e00f	 mov         lr, pc
  0060c	e12fff13	 bx          r3
  00610	e58d0028	 str         r0, [sp, #0x28]
  00614	e59d3028	 ldr         r3, [sp, #0x28]
  00618	e3530000	 cmp         r3, #0
  0061c	0a000002	 beq         |$LN4@Init|
  00620	e3a03001	 mov         r3, #1
  00624	e58d302c	 str         r3, [sp, #0x2C]
  00628	ea000001	 b           |$LN5@Init|
  0062c		 |$LN4@Init|
  0062c	e3a03000	 mov         r3, #0
  00630	e58d302c	 str         r3, [sp, #0x2C]
  00634		 |$LN5@Init|
  00634	e59d302c	 ldr         r3, [sp, #0x2C]
  00638	e58d3010	 str         r3, [sp, #0x10]
  0063c	ea000001	 b           |$LN2@Init|
  00640		 |$LN1@Init|

; 122  :     }
; 123  :     return FALSE;

  00640	e3a03000	 mov         r3, #0
  00644	e58d3010	 str         r3, [sp, #0x10]
  00648		 |$LN2@Init|

; 124  : }

  00648	e59d0010	 ldr         r0, [sp, #0x10]
  0064c	e28dd030	 add         sp, sp, #0x30
  00650	e89d6000	 ldmia       sp, {sp, lr}
  00654	e12fff1e	 bx          lr
  00658		 |$M38930|

			 ENDP  ; |?Init@SOhcdPdd@@UAAHXZ|, SOhcdPdd::Init

; File c:\wince600\public\common\oak\inc\cregedit.h

  00000			 AREA	 |.pdata|, PDATA
|$T38940| DCD	|$LN7@IsKeyOpene|
	DCD	0x40001304
; Function compile flags: /Odtp

  00000			 AREA	 |.text|, CODE, ARM

  00000		 |?IsKeyOpened@CRegistryEdit@@QAAHXZ| PROC ; CRegistryEdit::IsKeyOpened

; 171  :     {

  00000		 |$LN7@IsKeyOpene|
  00000	e1a0c00d	 mov         r12, sp
  00004	e92d0001	 stmdb       sp!, {r0}
  00008	e92d5000	 stmdb       sp!, {r12, lr}
  0000c	e24dd008	 sub         sp, sp, #8
  00010		 |$M38937|

; 172  :         return ( m_hDevKey != NULL );

  00010	e59d3010	 ldr         r3, [sp, #0x10]
  00014	e5933000	 ldr         r3, [r3]
  00018	e3530000	 cmp         r3, #0
  0001c	0a000002	 beq         |$LN3@IsKeyOpene|
  00020	e3a03001	 mov         r3, #1
  00024	e58d3004	 str         r3, [sp, #4]
  00028	ea000001	 b           |$LN4@IsKeyOpene|
  0002c		 |$LN3@IsKeyOpene|
  0002c	e3a03000	 mov         r3, #0
  00030	e58d3004	 str         r3, [sp, #4]
  00034		 |$LN4@IsKeyOpene|
  00034	e59d3004	 ldr         r3, [sp, #4]
  00038	e58d3000	 str         r3, [sp]

; 173  :     }

  0003c	e59d0000	 ldr         r0, [sp]
  00040	e28dd008	 add         sp, sp, #8
  00044	e89d6000	 ldmia       sp, {sp, lr}
  00048	e12fff1e	 bx          lr
  0004c		 |$M38938|

			 ENDP  ; |?IsKeyOpened@CRegistryEdit@@QAAHXZ|, CRegistryEdit::IsKeyOpened

	EXPORT	|??_C@_1HI@CBAPHDJH@?$AAS?$AAO?$AAh?$AAc?$AAd?$AAP?$AAd?$AAd?$AA?3?$AA?3?$AAI?$AAn?$AAi?$AAt?$AAi?$AAa?$AAl?$AAi?$AAz?$AAe?$AAO?$AAH?$AAC?$AAI?$AA?$CI?$AA?$CJ?$AA?5?$AA?9?$AA?5?$AAC?$AAa?$AAn@| [ DATA ] ; `string'
	EXPORT	|?CreateBulverdeHcdObject@@YAPAXPAX0PBGPAEK@Z| ; CreateBulverdeHcdObject
	EXPORT	|??_C@_1HO@EADNMDLG@?$AAS?$AAO?$AAh?$AAc?$AAd?$AAP?$AAd?$AAd?$AA?3?$AA?3?$AAI?$AAn?$AAi?$AAt?$AAi?$AAa?$AAl?$AAi?$AAz?$AAe?$AAO?$AAH?$AAC?$AAI?$AA?$CI?$AA?$CJ?$AA?5?$AA?9?$AA?5?$AAC?$AAa?$AAn@| [ DATA ] ; `string'
	EXPORT	|??_C@_1JE@KOLFOMMJ@?$AAS?$AAO?$AAh?$AAc?$AAd?$AAP?$AAd?$AAd?$AA?3?$AA?3?$AAI?$AAn?$AAi?$AAt?$AAi?$AAa?$AAl?$AAi?$AAz?$AAe?$AAO?$AAH?$AAC?$AAI?$AA?$CI?$AA?$CJ?$AA?5?$AA?9?$AA?5?$AAH?$AAa?$AAl@| [ DATA ] ; `string'
	EXPORT	|??_C@_1CC@NPEFILDH@?$AAP?$AAh?$AAy?$AAs?$AAi?$AAc?$AAa?$AAl?$AAP?$AAa?$AAg?$AAe?$AAS?$AAi?$AAz?$AAe?$AA?$AA@| [ DATA ] ; `string'
	EXPORT	|??_C@_1BE@HMBIFFJK@?$AAD?$AAm?$AAa?$AAM?$AAe?$AAn?$AAL?$AAe?$AAn?$AA?$AA@| [ DATA ] ; `string'
	EXPORT	|??_C@_1GG@NNNDCOE@?$AAS?$AAO?$AAh?$AAc?$AAd?$AAP?$AAd?$AAd?$AA?3?$AA?3?$AAI?$AAn?$AAi?$AAt?$AA?5?$AA?9?$AA?5?$AAC?$AAa?$AAn?$AAn?$AA?8?$AAt?$AA?5?$AAg?$AAe?$AAt?$AA?5?$AA?$CC?$AA?$CF?$AAs?$AA?$CC@| [ DATA ] ; `string'
	EXPORT	|?GetRegValue@CRegistryEdit@@QAAHPBGPAEK@Z| ; CRegistryEdit::GetRegValue
	EXPORT	|??_C@_1BG@MOACEBDO@?$AAD?$AAm?$AAa?$AAM?$AAe?$AAm?$AAB?$AAa?$AAs?$AAe?$AA?$AA@| [ DATA ] ; `string'
	EXPORT	|??_C@_1FA@DPHEKBML@?$AAO?$AAH?$AAC?$AAD?$AA?3?$AA?5?$AAK?$AAe?$AAr?$AAn?$AAe?$AAl?$AAL?$AAi?$AAb?$AAI?$AAo?$AAC?$AAo?$AAn?$AAt?$AAr?$AAo?$AAl?$AA?5?$AAc?$AAa?$AAl?$AAl?$AA?5?$AAf?$AAa@| [ DATA ] ; `string'
	EXPORT	|??_C@_1EI@LOJCLMFL@?$AAO?$AAH?$AAC?$AAD?$AA?3?$AA?5?$AAF?$AAa?$AAi?$AAl?$AAe?$AAd?$AA?5?$AAT?$AAr?$AAa?$AAn?$AAs?$AAB?$AAu?$AAs?$AAA?$AAd?$AAd?$AAr?$AAT?$AAo?$AAS?$AAt?$AAa?$AAt?$AAi@| [ DATA ] ; `string'
	EXPORT	|??_C@_1II@CDOFHEL@?$AAO?$AAH?$AAC?$AAD?$AA?3?$AA?5?$AAI?$AAn?$AAs?$AAt?$AAa?$AAl?$AAl?$AAe?$AAd?$AA?5?$AAI?$AAS?$AAR?$AA?5?$AAh?$AAa?$AAn?$AAd?$AAl?$AAe?$AAr?$AA?0?$AA?5?$AAD?$AAl?$AAl@| [ DATA ] ; `string'
	EXPORT	|??_C@_1EK@FIHEAHPG@?$AAO?$AAH?$AAC?$AAD?$AA?3?$AA?5?$AAC?$AAo?$AAu?$AAl?$AAd?$AAn?$AA?8?$AAt?$AA?5?$AAi?$AAn?$AAs?$AAt?$AAa?$AAl?$AAl?$AA?5?$AAI?$AAS?$AAR?$AA?5?$AAh?$AAa?$AAn?$AAd?$AAl@| [ DATA ] ; `string'
	EXPORT	|??_C@_1BAK@KPHFPFKN@?$AAO?$AAH?$AAC?$AAD?$AA?3?$AA?5?$AAR?$AAe?$AAa?$AAd?$AA?5?$AAc?$AAo?$AAn?$AAf?$AAi?$AAg?$AA?5?$AAf?$AAr?$AAo?$AAm?$AA?5?$AAr?$AAe?$AAg?$AAi?$AAs?$AAt?$AAr?$AAy?$AA?3@| [ DATA ] ; `string'
	EXPORT	|??_C@_15LIBIHNCL@?$AAN?$AAO?$AA?$AA@| [ DATA ] ; `string'
	EXPORT	|??_C@_17FGJJPDOI@?$AAY?$AAE?$AAS?$AA?$AA@| [ DATA ] ; `string'
	EXPORT	|??_C@_1IM@DHHKPKKF@?$AAI?$AAn?$AAi?$AAt?$AAi?$AAa?$AAl?$AAi?$AAz?$AAe?$AAO?$AAH?$AAC?$AAI?$AA?3?$AAD?$AAD?$AAK?$AAR?$AAe?$AAg?$AA_?$AAG?$AAe?$AAt?$AAW?$AAi?$AAn?$AAd?$AAo?$AAw?$AAI@| [ DATA ] ; `string'
	EXPORT	|?GetIsrInfo@CRegistryEdit@@QAAKPAU_DDKISRINFO_tag@@@Z| ; CRegistryEdit::GetIsrInfo
	EXPORT	|__$ArrayPad$| [ DATA ]
	IMPORT	|HcdMdd_CreateMemoryObject|
	IMPORT	|HalAllocateCommonBuffer|
	IMPORT	|KernelLibIoControl|
	IMPORT	|BusTransBusAddrToStatic|
	IMPORT	|LoadIntChainHandler|
	IMPORT	|NKDbgPrintfW|
	IMPORT	|dpCurSettings|
	IMPORT	|__security_cookie|
	IMPORT	|__GSHandlerCheck|
	IMPORT	|__rt_udiv|
	IMPORT	|memcpy|
	IMPORT	|__security_check_cookie|

  00018			 AREA	 |.pdata|, PDATA
|$T38991| DCD	|$LN48@Initialize|
	DCD	0xc0023604
; File c:\wince600\platform\common\src\soc\pxa27x_ms_v1\hcd\bul_ohci.cpp

  00000			 AREA	 |.rdata|, DATA, READONLY
|??_C@_1HI@CBAPHDJH@?$AAS?$AAO?$AAh?$AAc?$AAd?$AAP?$AAd?$AAd?$AA?3?$AA?3?$AAI?$AAn?$AAi?$AAt?$AAi?$AAa?$AAl?$AAi?$AAz?$AAe?$AAO?$AAH?$AAC?$AAI?$AA?$CI?$AA?$CJ?$AA?5?$AA?9?$AA?5?$AAC?$AAa?$AAn@| DCB "S"
	DCB	0x0, "O", 0x0, "h", 0x0, "c", 0x0, "d", 0x0, "P", 0x0, "d"
	DCB	0x0, "d", 0x0, ":", 0x0, ":", 0x0, "I", 0x0, "n", 0x0, "i"
	DCB	0x0, "t", 0x0, "i", 0x0, "a", 0x0, "l", 0x0, "i", 0x0, "z"
	DCB	0x0, "e", 0x0, "O", 0x0, "H", 0x0, "C", 0x0, "I", 0x0, "("
	DCB	0x0, ")", 0x0, " ", 0x0, "-", 0x0, " ", 0x0, "C", 0x0, "a"
	DCB	0x0, "n", 0x0, "n", 0x0, "'", 0x0, "t", 0x0, " ", 0x0, "C"
	DCB	0x0, "r", 0x0, "e", 0x0, "a", 0x0, "t", 0x0, "e", 0x0, "H"
	DCB	0x0, "c", 0x0, "d", 0x0, "O", 0x0, "b", 0x0, "j", 0x0, "e"
	DCB	0x0, "c", 0x0, "t", 0x0, "!", 0x0, "!", 0x0, "!", 0x0, 0xd
	DCB	0x0, 0xa, 0x0, ".", 0x0, 0xd, 0x0, 0xa, 0x0, 0x0, 0x0 ; `string'

  00000			 AREA	 |.rdata|, DATA, READONLY
|??_C@_1HO@EADNMDLG@?$AAS?$AAO?$AAh?$AAc?$AAd?$AAP?$AAd?$AAd?$AA?3?$AA?3?$AAI?$AAn?$AAi?$AAt?$AAi?$AAa?$AAl?$AAi?$AAz?$AAe?$AAO?$AAH?$AAC?$AAI?$AA?$CI?$AA?$CJ?$AA?5?$AA?9?$AA?5?$AAC?$AAa?$AAn@| DCB "S"
	DCB	0x0, "O", 0x0, "h", 0x0, "c", 0x0, "d", 0x0, "P", 0x0, "d"
	DCB	0x0, "d", 0x0, ":", 0x0, ":", 0x0, "I", 0x0, "n", 0x0, "i"
	DCB	0x0, "t", 0x0, "i", 0x0, "a", 0x0, "l", 0x0, "i", 0x0, "z"
	DCB	0x0, "e", 0x0, "O", 0x0, "H", 0x0, "C", 0x0, "I", 0x0, "("
	DCB	0x0, ")", 0x0, " ", 0x0, "-", 0x0, " ", 0x0, "C", 0x0, "a"
	DCB	0x0, "n", 0x0, "n", 0x0, "'", 0x0, "t", 0x0, " ", 0x0, "C"
	DCB	0x0, "r", 0x0, "e", 0x0, "a", 0x0, "t", 0x0, "e", 0x0, "M"
	DCB	0x0, "e", 0x0, "m", 0x0, "o", 0x0, "r", 0x0, "y", 0x0, "O"
	DCB	0x0, "b", 0x0, "j", 0x0, "e", 0x0, "c", 0x0, "t", 0x0, "!"
	DCB	0x0, "!", 0x0, "!", 0x0, 0xd, 0x0, 0xa, 0x0, ".", 0x0, 0xd
	DCB	0x0, 0xa, 0x0, 0x0, 0x0			; `string'

  00000			 AREA	 |.rdata|, DATA, READONLY
|??_C@_1JE@KOLFOMMJ@?$AAS?$AAO?$AAh?$AAc?$AAd?$AAP?$AAd?$AAd?$AA?3?$AA?3?$AAI?$AAn?$AAi?$AAt?$AAi?$AAa?$AAl?$AAi?$AAz?$AAe?$AAO?$AAH?$AAC?$AAI?$AA?$CI?$AA?$CJ?$AA?5?$AA?9?$AA?5?$AAH?$AAa?$AAl@| DCB "S"
	DCB	0x0, "O", 0x0, "h", 0x0, "c", 0x0, "d", 0x0, "P", 0x0, "d"
	DCB	0x0, "d", 0x0, ":", 0x0, ":", 0x0, "I", 0x0, "n", 0x0, "i"
	DCB	0x0, "t", 0x0, "i", 0x0, "a", 0x0, "l", 0x0, "i", 0x0, "z"
	DCB	0x0, "e", 0x0, "O", 0x0, "H", 0x0, "C", 0x0, "I", 0x0, "("
	DCB	0x0, ")", 0x0, " ", 0x0, "-", 0x0, " ", 0x0, "H", 0x0, "a"
	DCB	0x0, "l", 0x0, "A", 0x0, "l", 0x0, "l", 0x0, "o", 0x0, "c"
	DCB	0x0, "a", 0x0, "t", 0x0, "e", 0x0, "C", 0x0, "o", 0x0, "m"
	DCB	0x0, "m", 0x0, "o", 0x0, "n", 0x0, "B", 0x0, "u", 0x0, "f"
	DCB	0x0, "f", 0x0, "e", 0x0, "r", 0x0, " ", 0x0, "r", 0x0, "e"
	DCB	0x0, "t", 0x0, "u", 0x0, "r", 0x0, "n", 0x0, " ", 0x0, "F"
	DCB	0x0, "A", 0x0, "L", 0x0, "S", 0x0, "E", 0x0, "!", 0x0, "!"
	DCB	0x0, "!", 0x0, 0xd, 0x0, 0xa, 0x0, ".", 0x0, 0xd, 0x0, 0xa
	DCB	0x0, 0x0, 0x0				; `string'

  00000			 AREA	 |.rdata|, DATA, READONLY
|??_C@_1CC@NPEFILDH@?$AAP?$AAh?$AAy?$AAs?$AAi?$AAc?$AAa?$AAl?$AAP?$AAa?$AAg?$AAe?$AAS?$AAi?$AAz?$AAe?$AA?$AA@| DCB "P"
	DCB	0x0, "h", 0x0, "y", 0x0, "s", 0x0, "i", 0x0, "c", 0x0, "a"
	DCB	0x0, "l", 0x0, "P", 0x0, "a", 0x0, "g", 0x0, "e", 0x0, "S"
	DCB	0x0, "i", 0x0, "z", 0x0, "e", 0x0, 0x0, 0x0 ; `string'

  00000			 AREA	 |.rdata|, DATA, READONLY
|??_C@_1BE@HMBIFFJK@?$AAD?$AAm?$AAa?$AAM?$AAe?$AAn?$AAL?$AAe?$AAn?$AA?$AA@| DCB "D"
	DCB	0x0, "m", 0x0, "a", 0x0, "M", 0x0, "e", 0x0, "n", 0x0, "L"
	DCB	0x0, "e", 0x0, "n", 0x0, 0x0, 0x0	; `string'

  00000			 AREA	 |.rdata|, DATA, READONLY
|??_C@_1GG@NNNDCOE@?$AAS?$AAO?$AAh?$AAc?$AAd?$AAP?$AAd?$AAd?$AA?3?$AA?3?$AAI?$AAn?$AAi?$AAt?$AA?5?$AA?9?$AA?5?$AAC?$AAa?$AAn?$AAn?$AA?8?$AAt?$AA?5?$AAg?$AAe?$AAt?$AA?5?$AA?$CC?$AA?$CF?$AAs?$AA?$CC@| DCB "S"
	DCB	0x0, "O", 0x0, "h", 0x0, "c", 0x0, "d", 0x0, "P", 0x0, "d"
	DCB	0x0, "d", 0x0, ":", 0x0, ":", 0x0, "I", 0x0, "n", 0x0, "i"
	DCB	0x0, "t", 0x0, " ", 0x0, "-", 0x0, " ", 0x0, "C", 0x0, "a"
	DCB	0x0, "n", 0x0, "n", 0x0, "'", 0x0, "t", 0x0, " ", 0x0, "g"
	DCB	0x0, "e", 0x0, "t", 0x0, " ", 0x0, """", 0x0, "%", 0x0, "s"
	DCB	0x0, """", 0x0, " ", 0x0, "r", 0x0, "e", 0x0, "g", 0x0, "i"
	DCB	0x0, "s", 0x0, "t", 0x0, "r", 0x0, "y", 0x0, " ", 0x0, "v"
	DCB	0x0, "a", 0x0, "l", 0x0, "u", 0x0, "e", 0x0, ".", 0x0, 0xd
	DCB	0x0, 0xa, 0x0, 0x0, 0x0			; `string'

  00000			 AREA	 |.rdata|, DATA, READONLY
|??_C@_1BG@MOACEBDO@?$AAD?$AAm?$AAa?$AAM?$AAe?$AAm?$AAB?$AAa?$AAs?$AAe?$AA?$AA@| DCB "D"
	DCB	0x0, "m", 0x0, "a", 0x0, "M", 0x0, "e", 0x0, "m", 0x0, "B"
	DCB	0x0, "a", 0x0, "s", 0x0, "e", 0x0, 0x0, 0x0 ; `string'

  00000			 AREA	 |.rdata|, DATA, READONLY
|??_C@_1FA@DPHEKBML@?$AAO?$AAH?$AAC?$AAD?$AA?3?$AA?5?$AAK?$AAe?$AAr?$AAn?$AAe?$AAl?$AAL?$AAi?$AAb?$AAI?$AAo?$AAC?$AAo?$AAn?$AAt?$AAr?$AAo?$AAl?$AA?5?$AAc?$AAa?$AAl?$AAl?$AA?5?$AAf?$AAa@| DCB "O"
	DCB	0x0, "H", 0x0, "C", 0x0, "D", 0x0, ":", 0x0, " ", 0x0, "K"
	DCB	0x0, "e", 0x0, "r", 0x0, "n", 0x0, "e", 0x0, "l", 0x0, "L"
	DCB	0x0, "i", 0x0, "b", 0x0, "I", 0x0, "o", 0x0, "C", 0x0, "o"
	DCB	0x0, "n", 0x0, "t", 0x0, "r", 0x0, "o", 0x0, "l", 0x0, " "
	DCB	0x0, "c", 0x0, "a", 0x0, "l", 0x0, "l", 0x0, " ", 0x0, "f"
	DCB	0x0, "a", 0x0, "i", 0x0, "l", 0x0, "e", 0x0, "d", 0x0, "."
	DCB	0x0, 0xd, 0x0, 0xa, 0x0, 0x0, 0x0	; `string'

  00000			 AREA	 |.rdata|, DATA, READONLY
|??_C@_1EI@LOJCLMFL@?$AAO?$AAH?$AAC?$AAD?$AA?3?$AA?5?$AAF?$AAa?$AAi?$AAl?$AAe?$AAd?$AA?5?$AAT?$AAr?$AAa?$AAn?$AAs?$AAB?$AAu?$AAs?$AAA?$AAd?$AAd?$AAr?$AAT?$AAo?$AAS?$AAt?$AAa?$AAt?$AAi@| DCB "O"
	DCB	0x0, "H", 0x0, "C", 0x0, "D", 0x0, ":", 0x0, " ", 0x0, "F"
	DCB	0x0, "a", 0x0, "i", 0x0, "l", 0x0, "e", 0x0, "d", 0x0, " "
	DCB	0x0, "T", 0x0, "r", 0x0, "a", 0x0, "n", 0x0, "s", 0x0, "B"
	DCB	0x0, "u", 0x0, "s", 0x0, "A", 0x0, "d", 0x0, "d", 0x0, "r"
	DCB	0x0, "T", 0x0, "o", 0x0, "S", 0x0, "t", 0x0, "a", 0x0, "t"
	DCB	0x0, "i", 0x0, "c", 0x0, 0xd, 0x0, 0xa, 0x0, 0x0, 0x0 ; `string'

  00000			 AREA	 |.rdata|, DATA, READONLY
|??_C@_1II@CDOFHEL@?$AAO?$AAH?$AAC?$AAD?$AA?3?$AA?5?$AAI?$AAn?$AAs?$AAt?$AAa?$AAl?$AAl?$AAe?$AAd?$AA?5?$AAI?$AAS?$AAR?$AA?5?$AAh?$AAa?$AAn?$AAd?$AAl?$AAe?$AAr?$AA?0?$AA?5?$AAD?$AAl?$AAl@| DCB "O"
	DCB	0x0, "H", 0x0, "C", 0x0, "D", 0x0, ":", 0x0, " ", 0x0, "I"
	DCB	0x0, "n", 0x0, "s", 0x0, "t", 0x0, "a", 0x0, "l", 0x0, "l"
	DCB	0x0, "e", 0x0, "d", 0x0, " ", 0x0, "I", 0x0, "S", 0x0, "R"
	DCB	0x0, " ", 0x0, "h", 0x0, "a", 0x0, "n", 0x0, "d", 0x0, "l"
	DCB	0x0, "e", 0x0, "r", 0x0, ",", 0x0, " ", 0x0, "D", 0x0, "l"
	DCB	0x0, "l", 0x0, " ", 0x0, "=", 0x0, " ", 0x0, "'", 0x0, "%"
	DCB	0x0, "s", 0x0, "'", 0x0, ",", 0x0, " ", 0x0, "H", 0x0, "a"
	DCB	0x0, "n", 0x0, "d", 0x0, "l", 0x0, "e", 0x0, "r", 0x0, " "
	DCB	0x0, "=", 0x0, " ", 0x0, "'", 0x0, "%", 0x0, "s", 0x0, "'"
	DCB	0x0, ",", 0x0, " ", 0x0, "I", 0x0, "r", 0x0, "q", 0x0, " "
	DCB	0x0, "=", 0x0, " ", 0x0, "%", 0x0, "d", 0x0, 0xd, 0x0, 0xa
	DCB	0x0, 0x0, 0x0				; `string'

  00000			 AREA	 |.rdata|, DATA, READONLY
|??_C@_1EK@FIHEAHPG@?$AAO?$AAH?$AAC?$AAD?$AA?3?$AA?5?$AAC?$AAo?$AAu?$AAl?$AAd?$AAn?$AA?8?$AAt?$AA?5?$AAi?$AAn?$AAs?$AAt?$AAa?$AAl?$AAl?$AA?5?$AAI?$AAS?$AAR?$AA?5?$AAh?$AAa?$AAn?$AAd?$AAl@| DCB "O"
	DCB	0x0, "H", 0x0, "C", 0x0, "D", 0x0, ":", 0x0, " ", 0x0, "C"
	DCB	0x0, "o", 0x0, "u", 0x0, "l", 0x0, "d", 0x0, "n", 0x0, "'"
	DCB	0x0, "t", 0x0, " ", 0x0, "i", 0x0, "n", 0x0, "s", 0x0, "t"
	DCB	0x0, "a", 0x0, "l", 0x0, "l", 0x0, " ", 0x0, "I", 0x0, "S"
	DCB	0x0, "R", 0x0, " ", 0x0, "h", 0x0, "a", 0x0, "n", 0x0, "d"
	DCB	0x0, "l", 0x0, "e", 0x0, "r", 0x0, 0xd, 0x0, 0xa, 0x0, 0x0
	DCB	0x0					; `string'

  00000			 AREA	 |.rdata|, DATA, READONLY
|??_C@_1BAK@KPHFPFKN@?$AAO?$AAH?$AAC?$AAD?$AA?3?$AA?5?$AAR?$AAe?$AAa?$AAd?$AA?5?$AAc?$AAo?$AAn?$AAf?$AAi?$AAg?$AA?5?$AAf?$AAr?$AAo?$AAm?$AA?5?$AAr?$AAe?$AAg?$AAi?$AAs?$AAt?$AAr?$AAy?$AA?3@| DCB "O"
	DCB	0x0, "H", 0x0, "C", 0x0, "D", 0x0, ":", 0x0, " ", 0x0, "R"
	DCB	0x0, "e", 0x0, "a", 0x0, "d", 0x0, " ", 0x0, "c", 0x0, "o"
	DCB	0x0, "n", 0x0, "f", 0x0, "i", 0x0, "g", 0x0, " ", 0x0, "f"
	DCB	0x0, "r", 0x0, "o", 0x0, "m", 0x0, " ", 0x0, "r", 0x0, "e"
	DCB	0x0, "g", 0x0, "i", 0x0, "s", 0x0, "t", 0x0, "r", 0x0, "y"
	DCB	0x0, ":", 0x0, " ", 0x0, "B", 0x0, "a", 0x0, "s", 0x0, "e"
	DCB	0x0, " ", 0x0, "A", 0x0, "d", 0x0, "d", 0x0, "r", 0x0, "e"
	DCB	0x0, "s", 0x0, "s", 0x0, ":", 0x0, " ", 0x0, "0", 0x0, "x"
	DCB	0x0, "%", 0x0, "X", 0x0, ",", 0x0, " ", 0x0, "L", 0x0, "e"
	DCB	0x0, "n", 0x0, "g", 0x0, "t", 0x0, "h", 0x0, ":", 0x0, " "
	DCB	0x0, "0", 0x0, "x", 0x0, "%", 0x0, "X", 0x0, ",", 0x0, " "
	DCB	0x0, "I", 0x0, "/", 0x0, "O", 0x0, " ", 0x0, "P", 0x0, "o"
	DCB	0x0, "r", 0x0, "t", 0x0, ":", 0x0, " ", 0x0, "%", 0x0, "s"
	DCB	0x0, ",", 0x0, " ", 0x0, "S", 0x0, "y", 0x0, "s", 0x0, "I"
	DCB	0x0, "n", 0x0, "t", 0x0, "r", 0x0, ":", 0x0, " ", 0x0, "0"
	DCB	0x0, "x", 0x0, "%", 0x0, "X", 0x0, ",", 0x0, " ", 0x0, "I"
	DCB	0x0, "n", 0x0, "t", 0x0, "e", 0x0, "r", 0x0, "f", 0x0, "a"
	DCB	0x0, "c", 0x0, "e", 0x0, " ", 0x0, "T", 0x0, "y", 0x0, "p"
	DCB	0x0, "e", 0x0, ":", 0x0, " ", 0x0, "%", 0x0, "u", 0x0, ","
	DCB	0x0, " ", 0x0, "B", 0x0, "u", 0x0, "s", 0x0, " ", 0x0, "N"
	DCB	0x0, "u", 0x0, "m", 0x0, "b", 0x0, "e", 0x0, "r", 0x0, ":"
	DCB	0x0, " ", 0x0, "%", 0x0, "u", 0x0, 0xd, 0x0, 0xa, 0x0, 0x0
	DCB	0x0					; `string'

  00000			 AREA	 |.rdata|, DATA, READONLY
|??_C@_15LIBIHNCL@?$AAN?$AAO?$AA?$AA@| DCB "N", 0x0, "O", 0x0, 0x0, 0x0 ; `string'

  00000			 AREA	 |.rdata|, DATA, READONLY
|??_C@_17FGJJPDOI@?$AAY?$AAE?$AAS?$AA?$AA@| DCB "Y", 0x0, "E", 0x0, "S", 0x0
	DCB	0x0, 0x0				; `string'

  00000			 AREA	 |.rdata|, DATA, READONLY
|??_C@_1IM@DHHKPKKF@?$AAI?$AAn?$AAi?$AAt?$AAi?$AAa?$AAl?$AAi?$AAz?$AAe?$AAO?$AAH?$AAC?$AAI?$AA?3?$AAD?$AAD?$AAK?$AAR?$AAe?$AAg?$AA_?$AAG?$AAe?$AAt?$AAW?$AAi?$AAn?$AAd?$AAo?$AAw?$AAI@| DCB "I"
	DCB	0x0, "n", 0x0, "i", 0x0, "t", 0x0, "i", 0x0, "a", 0x0, "l"
	DCB	0x0, "i", 0x0, "z", 0x0, "e", 0x0, "O", 0x0, "H", 0x0, "C"
	DCB	0x0, "I", 0x0, ":", 0x0, "D", 0x0, "D", 0x0, "K", 0x0, "R"
	DCB	0x0, "e", 0x0, "g", 0x0, "_", 0x0, "G", 0x0, "e", 0x0, "t"
	DCB	0x0, "W", 0x0, "i", 0x0, "n", 0x0, "d", 0x0, "o", 0x0, "w"
	DCB	0x0, "I", 0x0, "n", 0x0, "f", 0x0, "o", 0x0, " ", 0x0, "o"
	DCB	0x0, "r", 0x0, " ", 0x0, " ", 0x0, "D", 0x0, "D", 0x0, "K"
	DCB	0x0, "R", 0x0, "e", 0x0, "g", 0x0, "_", 0x0, "G", 0x0, "e"
	DCB	0x0, "t", 0x0, "W", 0x0, "i", 0x0, "n", 0x0, "d", 0x0, "o"
	DCB	0x0, "w", 0x0, "I", 0x0, "n", 0x0, "f", 0x0, "o", 0x0, " "
	DCB	0x0, "f", 0x0, "a", 0x0, "i", 0x0, "l", 0x0, "e", 0x0, "d"
	DCB	0x0, 0xd, 0x0, 0xa, 0x0, 0x0, 0x0	; `string'

  00000			 AREA	 |.xdata|, DATA
|$T38987| DCD	0xffffff60
; Function compile flags: /Odtp

  00658			 AREA	 |.text|, CODE, ARM

  00658	00000000	 DCD         |__GSHandlerCheck|
  0065c	00000000	 DCD         |$T38987|

  00660		 |?InitializeOHCI@SOhcdPdd@@UAAHXZ| PROC ; SOhcdPdd::InitializeOHCI

; 126  : {

  00660		 |$LN48@Initialize|
  00660	e1a0c00d	 mov         r12, sp
  00664	e92d0001	 stmdb       sp!, {r0}
  00668	e92d5000	 stmdb       sp!, {r12, lr}
  0066c	e24ddf9e	 sub         sp, sp, #0x9E, 30
  00670		 |$M38988|
  00670	e59f38bc	 ldr         r3, [pc, #0x8BC]
  00674	e5933000	 ldr         r3, [r3]
  00678	e58d31e4	 str         r3, [sp, #0x1E4]

; 127  :     PUCHAR ioPortBase = NULL;

  0067c	e3a03000	 mov         r3, #0
  00680	e58d31b4	 str         r3, [sp, #0x1B4]

; 128  :     DWORD dwAddrLen;
; 129  :     DWORD dwIOSpace;
; 130  :     BOOL InstallIsr = FALSE;

  00684	e3a03000	 mov         r3, #0
  00688	e58d3088	 str         r3, [sp, #0x88]

; 131  :     BOOL fResult = FALSE;

  0068c	e3a03000	 mov         r3, #0
  00690	e58d3094	 str         r3, [sp, #0x94]

; 132  :     LPVOID pobMem = NULL;

  00694	e3a03000	 mov         r3, #0
  00698	e58d31b8	 str         r3, [sp, #0x1B8]

; 133  :     LPVOID pobOhcd = NULL;

  0069c	e3a03000	 mov         r3, #0
  006a0	e58d31b0	 str         r3, [sp, #0x1B0]

; 134  :     DWORD PhysAddr;
; 135  :     HKEY hKey=NULL;

  006a4	e3a03000	 mov         r3, #0
  006a8	e58d3090	 str         r3, [sp, #0x90]

; 136  : 
; 137  :     DDKWINDOWINFO dwi;
; 138  :     DDKISRINFO dii;
; 139  : 
; 140  :     // Setup Memory Windows For OHCI MDD code.
; 141  :     dwi.cbSize=sizeof(dwi);

  006ac	e3a03074	 mov         r3, #0x74
  006b0	e58d3014	 str         r3, [sp, #0x14]

; 142  :     PhysAddr = dwi.memWindows[0].dwBase = BULVERDE_BASE_REG_PA_USBH;

  006b4	e3a03313	 mov         r3, #0x13, 6
  006b8	e58d3058	 str         r3, [sp, #0x58]
  006bc	e59d3058	 ldr         r3, [sp, #0x58]
  006c0	e58d31a8	 str         r3, [sp, #0x1A8]

; 143  :     dwAddrLen= dwi.memWindows[0].dwLen = 0x1000;

  006c4	e3a03a01	 mov         r3, #1, 20
  006c8	e58d305c	 str         r3, [sp, #0x5C]
  006cc	e59d305c	 ldr         r3, [sp, #0x5C]
  006d0	e58d3010	 str         r3, [sp, #0x10]

; 144  :     dwi.dwInterfaceType = Internal;

  006d4	e3a03000	 mov         r3, #0
  006d8	e58d301c	 str         r3, [sp, #0x1C]

; 145  :     dwi.dwBusNumber = 0;

  006dc	e3a03000	 mov         r3, #0
  006e0	e58d3018	 str         r3, [sp, #0x18]

; 146  :     dwi.dwNumMemWindows =1;

  006e4	e3a03001	 mov         r3, #1
  006e8	e58d3054	 str         r3, [sp, #0x54]

; 147  :     dwIOSpace = 0;

  006ec	e3a03000	 mov         r3, #0
  006f0	e58d308c	 str         r3, [sp, #0x8C]

; 148  :         
; 149  :     dii.cbSize=sizeof(dii);

  006f4	e3a03f43	 mov         r3, #0x43, 30
  006f8	e58d309c	 str         r3, [sp, #0x9C]

; 150  :     if (GetIsrInfo(&dii)  != ERROR_SUCCESS) {

  006fc	e28d109c	 add         r1, sp, #0x9C
  00700	e59d3280	 ldr         r3, [sp, #0x280]
  00704	e2830018	 add         r0, r3, #0x18
  00708	eb000000	 bl          |?GetIsrInfo@CRegistryEdit@@QAAKPAU_DDKISRINFO_tag@@@Z|
  0070c	e58d0214	 str         r0, [sp, #0x214]
  00710	e59d3214	 ldr         r3, [sp, #0x214]
  00714	e3530000	 cmp         r3, #0
  00718	0a00000f	 beq         |$LN17@Initialize|

; 151  :         DEBUGMSG(ZONE_ERROR,(TEXT("InitializeOHCI:DDKReg_GetWindowInfo or  DDKReg_GetWindowInfo failed\r\n")));

  0071c	e59f37d4	 ldr         r3, [pc, #0x7D4]
  00720	e5933440	 ldr         r3, [r3, #0x440]
  00724	e3130901	 tst         r3, #1, 18
  00728	0a000004	 beq         |$LN20@Initialize|
  0072c	e59f07fc	 ldr         r0, [pc, #0x7FC]
  00730	eb000000	 bl          NKDbgPrintfW
  00734	e3a03001	 mov         r3, #1
  00738	e58d3218	 str         r3, [sp, #0x218]
  0073c	ea000001	 b           |$LN21@Initialize|
  00740		 |$LN20@Initialize|
  00740	e3a03000	 mov         r3, #0
  00744	e58d3218	 str         r3, [sp, #0x218]
  00748		 |$LN21@Initialize|

; 152  :         return FALSE;

  00748	e59d01e4	 ldr         r0, [sp, #0x1E4]
  0074c	eb000000	 bl          __security_check_cookie
  00750	e3a03000	 mov         r3, #0
  00754	e58d31e8	 str         r3, [sp, #0x1E8]
  00758	ea0001e1	 b           |$LN18@Initialize|
  0075c		 |$LN17@Initialize|

; 153  :     }
; 154  :     // Overwrite the item we know.
; 155  :     dii.dwIrq = IRQ_USBOHCI;

  0075c	e3a03003	 mov         r3, #3
  00760	e58d30a0	 str         r3, [sp, #0xA0]

; 156  :     m_dwSysIntr = dii.dwSysintr;

  00764	e59d3280	 ldr         r3, [sp, #0x280]
  00768	e283204c	 add         r2, r3, #0x4C
  0076c	e59d30a4	 ldr         r3, [sp, #0xA4]
  00770	e5823000	 str         r3, [r2]

; 157  :     DEBUGMSG(ZONE_INIT,(TEXT("OHCD: Read config from registry: Base Address: 0x%X, Length: 0x%X, I/O Port: %s, SysIntr: 0x%X, Interface Type: %u, Bus Number: %u\r\n"),
; 158  :                     PhysAddr, dwAddrLen, dwIOSpace ? L"YES" : L"NO", dii.dwSysintr, dwi.dwInterfaceType, dwi.dwBusNumber));

  00774	e59f377c	 ldr         r3, [pc, #0x77C]
  00778	e5933440	 ldr         r3, [r3, #0x440]
  0077c	e3130002	 tst         r3, #2
  00780	0a000015	 beq         |$LN24@Initialize|
  00784	e59d308c	 ldr         r3, [sp, #0x8C]
  00788	e3530000	 cmp         r3, #0
  0078c	0a000002	 beq         |$LN22@Initialize|
  00790	e59f3794	 ldr         r3, [pc, #0x794]
  00794	e58d321c	 str         r3, [sp, #0x21C]
  00798	ea000001	 b           |$LN23@Initialize|
  0079c		 |$LN22@Initialize|
  0079c	e59f3784	 ldr         r3, [pc, #0x784]
  007a0	e58d321c	 str         r3, [sp, #0x21C]
  007a4		 |$LN23@Initialize|
  007a4	e59d3018	 ldr         r3, [sp, #0x18]
  007a8	e58d3008	 str         r3, [sp, #8]
  007ac	e59d301c	 ldr         r3, [sp, #0x1C]
  007b0	e58d3004	 str         r3, [sp, #4]
  007b4	e59d30a4	 ldr         r3, [sp, #0xA4]
  007b8	e58d3000	 str         r3, [sp]
  007bc	e59d321c	 ldr         r3, [sp, #0x21C]
  007c0	e59d2010	 ldr         r2, [sp, #0x10]
  007c4	e59d11a8	 ldr         r1, [sp, #0x1A8]
  007c8	e59f0754	 ldr         r0, [pc, #0x754]
  007cc	eb000000	 bl          NKDbgPrintfW
  007d0	e3a03001	 mov         r3, #1
  007d4	e58d3220	 str         r3, [sp, #0x220]
  007d8	ea000001	 b           |$LN25@Initialize|
  007dc		 |$LN24@Initialize|
  007dc	e3a03000	 mov         r3, #0
  007e0	e58d3220	 str         r3, [sp, #0x220]
  007e4		 |$LN25@Initialize|

; 159  :     
; 160  :     ioPortBase = (PBYTE) PhysAddr;

  007e4	e59d31a8	 ldr         r3, [sp, #0x1A8]
  007e8	e58d31b4	 str         r3, [sp, #0x1B4]

; 161  :     
; 162  :     if (dii.szIsrDll[0] != 0 && dii.szIsrHandler[0]!=0 && dii.dwIrq<0xff && dii.dwIrq>0 ) {

  007ec	e1dd3ab8	 ldrh        r3, [sp, #0xA8]
  007f0	e3530000	 cmp         r3, #0
  007f4	0a00008f	 beq         |$LN16@Initialize|
  007f8	e28d3c01	 add         r3, sp, #1, 24
  007fc	e1d332b8	 ldrh        r3, [r3, #0x28]
  00800	e3530000	 cmp         r3, #0
  00804	0a00008b	 beq         |$LN16@Initialize|
  00808	e59d30a0	 ldr         r3, [sp, #0xA0]
  0080c	e35300ff	 cmp         r3, #0xFF
  00810	2a000088	 bcs         |$LN16@Initialize|
  00814	e59d30a0	 ldr         r3, [sp, #0xA0]
  00818	e3530000	 cmp         r3, #0
  0081c	9a000085	 bls         |$LN16@Initialize|

; 163  :         // Install ISR handler
; 164  :         m_IsrHandle = LoadIntChainHandler(dii.szIsrDll, dii.szIsrHandler, (BYTE)dii.dwIrq);

  00820	e59d30a0	 ldr         r3, [sp, #0xA0]
  00824	e20320ff	 and         r2, r3, #0xFF
  00828	e28d1f4a	 add         r1, sp, #0x4A, 30
  0082c	e28d00a8	 add         r0, sp, #0xA8
  00830	eb000000	 bl          LoadIntChainHandler
  00834	e58d0224	 str         r0, [sp, #0x224]
  00838	e59d3280	 ldr         r3, [sp, #0x280]
  0083c	e2832050	 add         r2, r3, #0x50
  00840	e59d3224	 ldr         r3, [sp, #0x224]
  00844	e5823000	 str         r3, [r2]

; 165  : 
; 166  :         if (!m_IsrHandle) {

  00848	e59d3280	 ldr         r3, [sp, #0x280]
  0084c	e2833050	 add         r3, r3, #0x50
  00850	e5933000	 ldr         r3, [r3]
  00854	e3530000	 cmp         r3, #0
  00858	1a00000b	 bne         |$LN15@Initialize|

; 167  :             DEBUGMSG(ZONE_ERROR, (L"OHCD: Couldn't install ISR handler\r\n"));

  0085c	e59f3694	 ldr         r3, [pc, #0x694]
  00860	e5933440	 ldr         r3, [r3, #0x440]
  00864	e3130901	 tst         r3, #1, 18
  00868	0a000004	 beq         |$LN26@Initialize|
  0086c	e59f06ac	 ldr         r0, [pc, #0x6AC]
  00870	eb000000	 bl          NKDbgPrintfW
  00874	e3a03001	 mov         r3, #1
  00878	e58d3228	 str         r3, [sp, #0x228]
  0087c	ea000001	 b           |$LN27@Initialize|
  00880		 |$LN26@Initialize|
  00880	e3a03000	 mov         r3, #0
  00884	e58d3228	 str         r3, [sp, #0x228]
  00888		 |$LN27@Initialize|

; 168  :         } else {

  00888	ea00006a	 b           |$LN14@Initialize|
  0088c		 |$LN15@Initialize|

; 169  :             GIISR_INFO Info;
; 170  :             PHYSICAL_ADDRESS PortAddress = {PhysAddr, 0};

  0088c	e59d31a8	 ldr         r3, [sp, #0x1A8]
  00890	e58d31bc	 str         r3, [sp, #0x1BC]
  00894	e3a03000	 mov         r3, #0
  00898	e58d31c0	 str         r3, [sp, #0x1C0]

; 171  :             
; 172  :             DEBUGMSG(ZONE_INIT, (L"OHCD: Installed ISR handler, Dll = '%s', Handler = '%s', Irq = %d\r\n",
; 173  :                 dii.szIsrDll, dii.szIsrHandler, dii.dwIrq));

  0089c	e59f3654	 ldr         r3, [pc, #0x654]
  008a0	e5933440	 ldr         r3, [r3, #0x440]
  008a4	e3130002	 tst         r3, #2
  008a8	0a000007	 beq         |$LN28@Initialize|
  008ac	e59d30a0	 ldr         r3, [sp, #0xA0]
  008b0	e28d2f4a	 add         r2, sp, #0x4A, 30
  008b4	e28d10a8	 add         r1, sp, #0xA8
  008b8	e59f065c	 ldr         r0, [pc, #0x65C]
  008bc	eb000000	 bl          NKDbgPrintfW
  008c0	e3a03001	 mov         r3, #1
  008c4	e58d322c	 str         r3, [sp, #0x22C]
  008c8	ea000001	 b           |$LN29@Initialize|
  008cc		 |$LN28@Initialize|
  008cc	e3a03000	 mov         r3, #0
  008d0	e58d322c	 str         r3, [sp, #0x22C]
  008d4		 |$LN29@Initialize|

; 174  :             
; 175  :             if (!BusTransBusAddrToStatic(m_hParentBusHandle,(INTERFACE_TYPE)dwi.dwInterfaceType, dwi.dwBusNumber, PortAddress, dwAddrLen, &dwIOSpace, (PVOID *)&PhysAddr)) {

  008d4	e28d3f6a	 add         r3, sp, #0x6A, 30
  008d8	e58d300c	 str         r3, [sp, #0xC]
  008dc	e28d308c	 add         r3, sp, #0x8C
  008e0	e58d3008	 str         r3, [sp, #8]
  008e4	e59d3010	 ldr         r3, [sp, #0x10]
  008e8	e58d3004	 str         r3, [sp, #4]
  008ec	e28d0000	 add         r0, sp, #0
  008f0	e28d1d07	 add         r1, sp, #7, 26
  008f4	e3a02004	 mov         r2, #4
  008f8	eb000000	 bl          memcpy
  008fc	e59d31bc	 ldr         r3, [sp, #0x1BC]
  00900	e59d2018	 ldr         r2, [sp, #0x18]
  00904	e59d101c	 ldr         r1, [sp, #0x1C]
  00908	e59d0280	 ldr         r0, [sp, #0x280]
  0090c	e280005c	 add         r0, r0, #0x5C
  00910	e5900000	 ldr         r0, [r0]
  00914	eb000000	 bl          BusTransBusAddrToStatic
  00918	e58d0230	 str         r0, [sp, #0x230]
  0091c	e59d3230	 ldr         r3, [sp, #0x230]
  00920	e3530000	 cmp         r3, #0
  00924	1a00000f	 bne         |$LN13@Initialize|

; 176  :                 DEBUGMSG(ZONE_ERROR, (L"OHCD: Failed TransBusAddrToStatic\r\n"));

  00928	e59f35c8	 ldr         r3, [pc, #0x5C8]
  0092c	e5933440	 ldr         r3, [r3, #0x440]
  00930	e3130901	 tst         r3, #1, 18
  00934	0a000004	 beq         |$LN30@Initialize|
  00938	e59f05d8	 ldr         r0, [pc, #0x5D8]
  0093c	eb000000	 bl          NKDbgPrintfW
  00940	e3a03001	 mov         r3, #1
  00944	e58d3234	 str         r3, [sp, #0x234]
  00948	ea000001	 b           |$LN31@Initialize|
  0094c		 |$LN30@Initialize|
  0094c	e3a03000	 mov         r3, #0
  00950	e58d3234	 str         r3, [sp, #0x234]
  00954		 |$LN31@Initialize|

; 177  :                 return FALSE;

  00954	e59d01e4	 ldr         r0, [sp, #0x1E4]
  00958	eb000000	 bl          __security_check_cookie
  0095c	e3a03000	 mov         r3, #0
  00960	e58d31e8	 str         r3, [sp, #0x1E8]
  00964	ea00015e	 b           |$LN18@Initialize|
  00968		 |$LN13@Initialize|

; 178  :             }
; 179  :         
; 180  :             // Set up ISR handler
; 181  :             Info.SysIntr = dii.dwSysintr;

  00968	e59d30a4	 ldr         r3, [sp, #0xA4]
  0096c	e58d31c4	 str         r3, [sp, #0x1C4]

; 182  :             Info.CheckPort = TRUE;

  00970	e3a03001	 mov         r3, #1
  00974	e58d31c8	 str         r3, [sp, #0x1C8]

; 183  :             Info.PortIsIO = (dwIOSpace) ? TRUE : FALSE;

  00978	e59d308c	 ldr         r3, [sp, #0x8C]
  0097c	e3530000	 cmp         r3, #0
  00980	0a000002	 beq         |$LN32@Initialize|
  00984	e3a03001	 mov         r3, #1
  00988	e58d3238	 str         r3, [sp, #0x238]
  0098c	ea000001	 b           |$LN33@Initialize|
  00990		 |$LN32@Initialize|
  00990	e3a03000	 mov         r3, #0
  00994	e58d3238	 str         r3, [sp, #0x238]
  00998		 |$LN33@Initialize|
  00998	e59d3238	 ldr         r3, [sp, #0x238]
  0099c	e58d31cc	 str         r3, [sp, #0x1CC]

; 184  :             Info.UseMaskReg = TRUE;

  009a0	e3a03001	 mov         r3, #1
  009a4	e58d31d0	 str         r3, [sp, #0x1D0]

; 185  :             Info.PortAddr = PhysAddr + 0x0C;

  009a8	e59d31a8	 ldr         r3, [sp, #0x1A8]
  009ac	e283300c	 add         r3, r3, #0xC
  009b0	e58d31d4	 str         r3, [sp, #0x1D4]

; 186  :             Info.PortSize = sizeof(DWORD);

  009b4	e3a03004	 mov         r3, #4
  009b8	e58d31d8	 str         r3, [sp, #0x1D8]

; 187  :             Info.MaskAddr = PhysAddr + 0x10;

  009bc	e59d31a8	 ldr         r3, [sp, #0x1A8]
  009c0	e2833010	 add         r3, r3, #0x10
  009c4	e58d31e0	 str         r3, [sp, #0x1E0]

; 188  :             
; 189  :             if (!KernelLibIoControl(m_IsrHandle, IOCTL_GIISR_INFO, &Info, sizeof(Info), NULL, 0, NULL)) {

  009c8	e3a03000	 mov         r3, #0
  009cc	e58d3008	 str         r3, [sp, #8]
  009d0	e3a03000	 mov         r3, #0
  009d4	e58d3004	 str         r3, [sp, #4]
  009d8	e3a03000	 mov         r3, #0
  009dc	e58d3000	 str         r3, [sp]
  009e0	e3a03020	 mov         r3, #0x20
  009e4	e28d2f71	 add         r2, sp, #0x71, 30
  009e8	e3a01c01	 mov         r1, #1, 24
  009ec	e59d0280	 ldr         r0, [sp, #0x280]
  009f0	e2800050	 add         r0, r0, #0x50
  009f4	e5900000	 ldr         r0, [r0]
  009f8	eb000000	 bl          KernelLibIoControl
  009fc	e58d023c	 str         r0, [sp, #0x23C]
  00a00	e59d323c	 ldr         r3, [sp, #0x23C]
  00a04	e3530000	 cmp         r3, #0
  00a08	1a00000a	 bne         |$LN12@Initialize|

; 190  :                 DEBUGMSG(ZONE_ERROR, (L"OHCD: KernelLibIoControl call failed.\r\n"));

  00a0c	e59f34e4	 ldr         r3, [pc, #0x4E4]
  00a10	e5933440	 ldr         r3, [r3, #0x440]
  00a14	e3130901	 tst         r3, #1, 18
  00a18	0a000004	 beq         |$LN34@Initialize|
  00a1c	e59f04f0	 ldr         r0, [pc, #0x4F0]
  00a20	eb000000	 bl          NKDbgPrintfW
  00a24	e3a03001	 mov         r3, #1
  00a28	e58d3240	 str         r3, [sp, #0x240]
  00a2c	ea000001	 b           |$LN35@Initialize|
  00a30		 |$LN34@Initialize|
  00a30	e3a03000	 mov         r3, #0
  00a34	e58d3240	 str         r3, [sp, #0x240]
  00a38		 |$LN35@Initialize|
  00a38		 |$LN12@Initialize|
  00a38		 |$LN14@Initialize|
  00a38		 |$LN16@Initialize|

; 191  :             }
; 192  :         }
; 193  :     }
; 194  :     DWORD dwDmaBase = 0;

  00a38	e3a03000	 mov         r3, #0
  00a3c	e58d3098	 str         r3, [sp, #0x98]

; 195  :     DWORD dwHPPhysicalMemSize = 0;

  00a40	e3a03000	 mov         r3, #0
  00a44	e58d31ac	 str         r3, [sp, #0x1AC]

; 196  :     if (!GetRegValue(BULVERDE_REG_DMA_BUFFER_PH_ADDR_VAL_NAME, (PBYTE)&dwDmaBase,BULVERDE_REG_DMA_BUFFER_PH_ADDR_VAL_LEN)) {

  00a48	e3a03004	 mov         r3, #4
  00a4c	e28d2098	 add         r2, sp, #0x98
  00a50	e59f14b8	 ldr         r1, [pc, #0x4B8]
  00a54	e59d0280	 ldr         r0, [sp, #0x280]
  00a58	e2800018	 add         r0, r0, #0x18
  00a5c	eb000000	 bl          |?GetRegValue@CRegistryEdit@@QAAHPBGPAEK@Z|
  00a60	e58d0244	 str         r0, [sp, #0x244]
  00a64	e59d3244	 ldr         r3, [sp, #0x244]
  00a68	e3530000	 cmp         r3, #0
  00a6c	1a00000d	 bne         |$LN11@Initialize|

; 197  :         DEBUGMSG(ZONE_INIT, (TEXT("SOhcdPdd::Init - Cann't get \"%s\" registry value.\r\n"),BULVERDE_REG_DMA_BUFFER_PH_ADDR_VAL_NAME));

  00a70	e59f3480	 ldr         r3, [pc, #0x480]
  00a74	e5933440	 ldr         r3, [r3, #0x440]
  00a78	e3130002	 tst         r3, #2
  00a7c	0a000005	 beq         |$LN36@Initialize|
  00a80	e59f1488	 ldr         r1, [pc, #0x488]
  00a84	e59f047c	 ldr         r0, [pc, #0x47C]
  00a88	eb000000	 bl          NKDbgPrintfW
  00a8c	e3a03001	 mov         r3, #1
  00a90	e58d3248	 str         r3, [sp, #0x248]
  00a94	ea000001	 b           |$LN37@Initialize|
  00a98		 |$LN36@Initialize|
  00a98	e3a03000	 mov         r3, #0
  00a9c	e58d3248	 str         r3, [sp, #0x248]
  00aa0		 |$LN37@Initialize|

; 198  :         dwDmaBase = 0;

  00aa0	e3a03000	 mov         r3, #0
  00aa4	e58d3098	 str         r3, [sp, #0x98]
  00aa8		 |$LN11@Initialize|

; 199  :     }
; 200  :     if (!GetRegValue(BULVERDE_REG_DMA_BUFFER_LENGTH_VAL_NAME, (PBYTE)&m_dwDamBufferSize,BULVERDE_REG_DMA_BUFFER_LENGTH_VAL_LEN)) {

  00aa8	e3a03004	 mov         r3, #4
  00aac	e59d2280	 ldr         r2, [sp, #0x280]
  00ab0	e2822044	 add         r2, r2, #0x44
  00ab4	e59f1450	 ldr         r1, [pc, #0x450]
  00ab8	e59d0280	 ldr         r0, [sp, #0x280]
  00abc	e2800018	 add         r0, r0, #0x18
  00ac0	eb000000	 bl          |?GetRegValue@CRegistryEdit@@QAAHPBGPAEK@Z|
  00ac4	e58d024c	 str         r0, [sp, #0x24C]
  00ac8	e59d324c	 ldr         r3, [sp, #0x24C]
  00acc	e3530000	 cmp         r3, #0
  00ad0	1a00000f	 bne         |$LN10@Initialize|

; 201  :         DEBUGMSG(ZONE_INIT, (TEXT("SOhcdPdd::Init - Cann't get \"%s\" registry value.\r\n"),BULVERDE_REG_DMA_BUFFER_LENGTH_VAL_NAME));

  00ad4	e59f341c	 ldr         r3, [pc, #0x41C]
  00ad8	e5933440	 ldr         r3, [r3, #0x440]
  00adc	e3130002	 tst         r3, #2
  00ae0	0a000005	 beq         |$LN38@Initialize|
  00ae4	e59f1420	 ldr         r1, [pc, #0x420]
  00ae8	e59f0418	 ldr         r0, [pc, #0x418]
  00aec	eb000000	 bl          NKDbgPrintfW
  00af0	e3a03001	 mov         r3, #1
  00af4	e58d3250	 str         r3, [sp, #0x250]
  00af8	ea000001	 b           |$LN39@Initialize|
  00afc		 |$LN38@Initialize|
  00afc	e3a03000	 mov         r3, #0
  00b00	e58d3250	 str         r3, [sp, #0x250]
  00b04		 |$LN39@Initialize|

; 202  :         m_dwDamBufferSize = 0;

  00b04	e59d3280	 ldr         r3, [sp, #0x280]
  00b08	e2832044	 add         r2, r3, #0x44
  00b0c	e3a03000	 mov         r3, #0
  00b10	e5823000	 str         r3, [r2]
  00b14		 |$LN10@Initialize|

; 203  :     }
; 204  :     if (dwDmaBase && m_dwDamBufferSize) {

  00b14	e59d3098	 ldr         r3, [sp, #0x98]
  00b18	e3530000	 cmp         r3, #0
  00b1c	0a000027	 beq         |$LN9@Initialize|
  00b20	e59d3280	 ldr         r3, [sp, #0x280]
  00b24	e2833044	 add         r3, r3, #0x44
  00b28	e5933000	 ldr         r3, [r3]
  00b2c	e3530000	 cmp         r3, #0
  00b30	0a000022	 beq         |$LN9@Initialize|

; 205  :         m_DmaPhysicalAddr.LowPart = dwDmaBase;

  00b34	e59d3280	 ldr         r3, [sp, #0x280]
  00b38	e2832038	 add         r2, r3, #0x38
  00b3c	e59d3098	 ldr         r3, [sp, #0x98]
  00b40	e5823000	 str         r3, [r2]

; 206  :         m_DmaPhysicalAddr.HighPart = 0;

  00b44	e59d3280	 ldr         r3, [sp, #0x280]
  00b48	e283203c	 add         r2, r3, #0x3C
  00b4c	e3a03000	 mov         r3, #0
  00b50	e5823000	 str         r3, [r2]

; 207  :         m_pvDmaVirtualAddress = MmMapIoSpace(m_DmaPhysicalAddr,m_dwDamBufferSize, FALSE);

  00b54	e3a03000	 mov         r3, #0
  00b58	e59d2280	 ldr         r2, [sp, #0x280]
  00b5c	e2822044	 add         r2, r2, #0x44
  00b60	e5922000	 ldr         r2, [r2]
  00b64	e59d1280	 ldr         r1, [sp, #0x280]
  00b68	e2811038	 add         r1, r1, #0x38
  00b6c	e58d1254	 str         r1, [sp, #0x254]
  00b70	e59d1254	 ldr         r1, [sp, #0x254]
  00b74	e5910000	 ldr         r0, [r1]
  00b78	e5911004	 ldr         r1, [r1, #4]
  00b7c	eb000000	 bl          MmMapIoSpace
  00b80	e58d0258	 str         r0, [sp, #0x258]
  00b84	e59d3280	 ldr         r3, [sp, #0x280]
  00b88	e2832040	 add         r2, r3, #0x40
  00b8c	e59d3258	 ldr         r3, [sp, #0x258]
  00b90	e5823000	 str         r3, [r2]

; 208  :         dwHPPhysicalMemSize = m_dwDamBufferSize / 4  ; 

  00b94	e59d3280	 ldr         r3, [sp, #0x280]
  00b98	e2833044	 add         r3, r3, #0x44
  00b9c	e5931000	 ldr         r1, [r3]
  00ba0	e3a00004	 mov         r0, #4
  00ba4	eb000000	 bl          __rt_udiv
  00ba8	e58d01ac	 str         r0, [sp, #0x1AC]

; 209  :         m_bIsBuiltInDma = TRUE;

  00bac	e59d3280	 ldr         r3, [sp, #0x280]
  00bb0	e2832034	 add         r2, r3, #0x34
  00bb4	e3a03001	 mov         r3, #1
  00bb8	e5823000	 str         r3, [r2]

; 210  :     }
; 211  :     else { // we locate DMA buffer from public pool

  00bbc	ea000071	 b           |$LN8@Initialize|
  00bc0		 |$LN9@Initialize|

; 212  :         // The PDD can supply a buffer of contiguous physical memory here, or can let the 
; 213  :         // MDD try to allocate the memory from system RAM.  We will use the HalAllocateCommonBuffer()
; 214  :         // API to allocate the memory and bus controller physical addresses and pass this information
; 215  :         // into the MDD.
; 216  :         if (GetRegValue(REG_PHYSICAL_PAGE_SIZE, (PBYTE)&m_dwDamBufferSize, REG_PHYSICAL_PAGE_SIZE_LEN)) {

  00bc0	e3a03004	 mov         r3, #4
  00bc4	e59d2280	 ldr         r2, [sp, #0x280]
  00bc8	e2822044	 add         r2, r2, #0x44
  00bcc	e59f1330	 ldr         r1, [pc, #0x330]
  00bd0	e59d0280	 ldr         r0, [sp, #0x280]
  00bd4	e2800018	 add         r0, r0, #0x18
  00bd8	eb000000	 bl          |?GetRegValue@CRegistryEdit@@QAAHPBGPAEK@Z|
  00bdc	e58d025c	 str         r0, [sp, #0x25C]
  00be0	e59d325c	 ldr         r3, [sp, #0x25C]
  00be4	e3530000	 cmp         r3, #0
  00be8	0a000024	 beq         |$LN7@Initialize|

; 217  :             dwHPPhysicalMemSize = m_dwDamBufferSize/4;

  00bec	e59d3280	 ldr         r3, [sp, #0x280]
  00bf0	e2833044	 add         r3, r3, #0x44
  00bf4	e5931000	 ldr         r1, [r3]
  00bf8	e3a00004	 mov         r0, #4
  00bfc	eb000000	 bl          __rt_udiv
  00c00	e58d01ac	 str         r0, [sp, #0x1AC]

; 218  :             m_dwDamBufferSize = (m_dwDamBufferSize+ PAGE_SIZE -1) & ~(PAGE_SIZE -1);

  00c04	e59d3280	 ldr         r3, [sp, #0x280]
  00c08	e2832044	 add         r2, r3, #0x44
  00c0c	e3e03b0d	 mvn         r3, #0xD, 22
  00c10	e22330fb	 eor         r3, r3, #0xFB
  00c14	e5922000	 ldr         r2, [r2]
  00c18	e5933000	 ldr         r3, [r3]
  00c1c	e0823003	 add         r3, r2, r3
  00c20	e2432001	 sub         r2, r3, #1
  00c24	e3e03b0d	 mvn         r3, #0xD, 22
  00c28	e22330fb	 eor         r3, r3, #0xFB
  00c2c	e5933000	 ldr         r3, [r3]
  00c30	e2433001	 sub         r3, r3, #1
  00c34	e1e03003	 mvn         r3, r3
  00c38	e0022003	 and         r2, r2, r3
  00c3c	e59d3280	 ldr         r3, [sp, #0x280]
  00c40	e2833044	 add         r3, r3, #0x44
  00c44	e5832000	 str         r2, [r3]

; 219  :             // Align with page size.        
; 220  :             dwHPPhysicalMemSize = ((dwHPPhysicalMemSize +  PAGE_SIZE -1) & ~(PAGE_SIZE -1));

  00c48	e3e03b0d	 mvn         r3, #0xD, 22
  00c4c	e22330fb	 eor         r3, r3, #0xFB
  00c50	e59d21ac	 ldr         r2, [sp, #0x1AC]
  00c54	e5933000	 ldr         r3, [r3]
  00c58	e0823003	 add         r3, r2, r3
  00c5c	e2432001	 sub         r2, r3, #1
  00c60	e3e03b0d	 mvn         r3, #0xD, 22
  00c64	e22330fb	 eor         r3, r3, #0xFB
  00c68	e5933000	 ldr         r3, [r3]
  00c6c	e2433001	 sub         r3, r3, #1
  00c70	e1e03003	 mvn         r3, r3
  00c74	e0023003	 and         r3, r2, r3
  00c78	e58d31ac	 str         r3, [sp, #0x1AC]

; 221  :         }
; 222  :         else 

  00c7c	ea000003	 b           |$LN6@Initialize|
  00c80		 |$LN7@Initialize|

; 223  :             m_dwDamBufferSize=0;

  00c80	e59d3280	 ldr         r3, [sp, #0x280]
  00c84	e2832044	 add         r2, r3, #0x44
  00c88	e3a03000	 mov         r3, #0
  00c8c	e5823000	 str         r3, [r2]
  00c90		 |$LN6@Initialize|

; 224  :         
; 225  :         if (m_dwDamBufferSize<gcTotalAvailablePhysicalMemory) { // Setup Minimun requirement.

  00c90	e59d3280	 ldr         r3, [sp, #0x280]
  00c94	e2833044	 add         r3, r3, #0x44
  00c98	e5933000	 ldr         r3, [r3]
  00c9c	e3530801	 cmp         r3, #1, 16
  00ca0	2a000005	 bcs         |$LN5@Initialize|

; 226  :             m_dwDamBufferSize = gcTotalAvailablePhysicalMemory;

  00ca4	e59d3280	 ldr         r3, [sp, #0x280]
  00ca8	e2832044	 add         r2, r3, #0x44
  00cac	e3a03801	 mov         r3, #1, 16
  00cb0	e5823000	 str         r3, [r2]

; 227  :             dwHPPhysicalMemSize = gcHighPriorityPhysicalMemory;

  00cb4	e3a03901	 mov         r3, #1, 18
  00cb8	e58d31ac	 str         r3, [sp, #0x1AC]
  00cbc		 |$LN5@Initialize|

; 228  :         }
; 229  : 
; 230  :         m_AdapterObject.ObjectSize = sizeof(DMA_ADAPTER_OBJECT);

  00cbc	e59d3280	 ldr         r3, [sp, #0x280]
  00cc0	e2832028	 add         r2, r3, #0x28
  00cc4	e3a0300c	 mov         r3, #0xC
  00cc8	e1c230b0	 strh        r3, [r2]

; 231  :         m_AdapterObject.InterfaceType = Internal;

  00ccc	e59d3280	 ldr         r3, [sp, #0x280]
  00cd0	e283202c	 add         r2, r3, #0x2C
  00cd4	e3a03000	 mov         r3, #0
  00cd8	e5823000	 str         r3, [r2]

; 232  :         m_AdapterObject.BusNumber = 0 ;

  00cdc	e59d3280	 ldr         r3, [sp, #0x280]
  00ce0	e2832030	 add         r2, r3, #0x30
  00ce4	e3a03000	 mov         r3, #0
  00ce8	e5823000	 str         r3, [r2]

; 233  :         if ((m_pvDmaVirtualAddress = HalAllocateCommonBuffer(&m_AdapterObject, m_dwDamBufferSize, &m_DmaPhysicalAddr, FALSE)) == NULL) {

  00cec	e3a03000	 mov         r3, #0
  00cf0	e59d2280	 ldr         r2, [sp, #0x280]
  00cf4	e2822038	 add         r2, r2, #0x38
  00cf8	e59d1280	 ldr         r1, [sp, #0x280]
  00cfc	e2811044	 add         r1, r1, #0x44
  00d00	e5911000	 ldr         r1, [r1]
  00d04	e59d0280	 ldr         r0, [sp, #0x280]
  00d08	e2800028	 add         r0, r0, #0x28
  00d0c	eb000000	 bl          HalAllocateCommonBuffer
  00d10	e58d0260	 str         r0, [sp, #0x260]
  00d14	e59d3280	 ldr         r3, [sp, #0x280]
  00d18	e2832040	 add         r2, r3, #0x40
  00d1c	e59d3260	 ldr         r3, [sp, #0x260]
  00d20	e5823000	 str         r3, [r2]
  00d24	e59d3280	 ldr         r3, [sp, #0x280]
  00d28	e2833040	 add         r3, r3, #0x40
  00d2c	e5933000	 ldr         r3, [r3]
  00d30	e3530000	 cmp         r3, #0
  00d34	1a00000f	 bne         |$LN4@Initialize|

; 234  :             DEBUGMSG(ZONE_INIT, (TEXT("SOhcdPdd::InitializeOHCI() - HalAllocateCommonBuffer return FALSE!!!\r\n.\r\n")));

  00d38	e59f31b8	 ldr         r3, [pc, #0x1B8]
  00d3c	e5933440	 ldr         r3, [r3, #0x440]
  00d40	e3130002	 tst         r3, #2
  00d44	0a000004	 beq         |$LN40@Initialize|
  00d48	e59f01b0	 ldr         r0, [pc, #0x1B0]
  00d4c	eb000000	 bl          NKDbgPrintfW
  00d50	e3a03001	 mov         r3, #1
  00d54	e58d3264	 str         r3, [sp, #0x264]
  00d58	ea000001	 b           |$LN41@Initialize|
  00d5c		 |$LN40@Initialize|
  00d5c	e3a03000	 mov         r3, #0
  00d60	e58d3264	 str         r3, [sp, #0x264]
  00d64		 |$LN41@Initialize|

; 235  :             return FALSE;

  00d64	e59d01e4	 ldr         r0, [sp, #0x1E4]
  00d68	eb000000	 bl          __security_check_cookie
  00d6c	e3a03000	 mov         r3, #0
  00d70	e58d31e8	 str         r3, [sp, #0x1E8]
  00d74	ea00005a	 b           |$LN18@Initialize|
  00d78		 |$LN4@Initialize|

; 236  :         }
; 237  :         m_bIsBuiltInDma = FALSE;

  00d78	e59d3280	 ldr         r3, [sp, #0x280]
  00d7c	e2832034	 add         r2, r3, #0x34
  00d80	e3a03000	 mov         r3, #0
  00d84	e5823000	 str         r3, [r2]
  00d88		 |$LN8@Initialize|

; 238  :     }
; 239  :     if (m_pvDmaVirtualAddress == NULL || 
; 240  :             !(m_pobMem = HcdMdd_CreateMemoryObject(m_dwDamBufferSize, dwHPPhysicalMemSize, (PUCHAR) m_pvDmaVirtualAddress, (PUCHAR) m_DmaPhysicalAddr.LowPart))) {

  00d88	e59d3280	 ldr         r3, [sp, #0x280]
  00d8c	e2833040	 add         r3, r3, #0x40
  00d90	e5933000	 ldr         r3, [r3]
  00d94	e3530000	 cmp         r3, #0
  00d98	0a000014	 beq         |$LN2@Initialize|
  00d9c	e59d3280	 ldr         r3, [sp, #0x280]
  00da0	e2833038	 add         r3, r3, #0x38
  00da4	e5933000	 ldr         r3, [r3]
  00da8	e59d2280	 ldr         r2, [sp, #0x280]
  00dac	e2822040	 add         r2, r2, #0x40
  00db0	e5922000	 ldr         r2, [r2]
  00db4	e59d11ac	 ldr         r1, [sp, #0x1AC]
  00db8	e59d0280	 ldr         r0, [sp, #0x280]
  00dbc	e2800044	 add         r0, r0, #0x44
  00dc0	e5900000	 ldr         r0, [r0]
  00dc4	eb000000	 bl          HcdMdd_CreateMemoryObject
  00dc8	e58d0268	 str         r0, [sp, #0x268]
  00dcc	e59d3280	 ldr         r3, [sp, #0x280]
  00dd0	e2832048	 add         r2, r3, #0x48
  00dd4	e59d3268	 ldr         r3, [sp, #0x268]
  00dd8	e5823000	 str         r3, [r2]
  00ddc	e59d3280	 ldr         r3, [sp, #0x280]
  00de0	e2833048	 add         r3, r3, #0x48
  00de4	e5933000	 ldr         r3, [r3]
  00de8	e3530000	 cmp         r3, #0
  00dec	1a00000f	 bne         |$LN3@Initialize|
  00df0		 |$LN2@Initialize|

; 241  :         DEBUGMSG(ZONE_INIT, (TEXT("SOhcdPdd::InitializeOHCI() - Cann't CreateMemoryObject!!!\r\n.\r\n")));

  00df0	e59f3100	 ldr         r3, [pc, #0x100]
  00df4	e5933440	 ldr         r3, [r3, #0x440]
  00df8	e3130002	 tst         r3, #2
  00dfc	0a000004	 beq         |$LN42@Initialize|
  00e00	e59f00f4	 ldr         r0, [pc, #0xF4]
  00e04	eb000000	 bl          NKDbgPrintfW
  00e08	e3a03001	 mov         r3, #1
  00e0c	e58d326c	 str         r3, [sp, #0x26C]
  00e10	ea000001	 b           |$LN43@Initialize|
  00e14		 |$LN42@Initialize|
  00e14	e3a03000	 mov         r3, #0
  00e18	e58d326c	 str         r3, [sp, #0x26C]
  00e1c		 |$LN43@Initialize|

; 242  :         return FALSE;

  00e1c	e59d01e4	 ldr         r0, [sp, #0x1E4]
  00e20	eb000000	 bl          __security_check_cookie
  00e24	e3a03000	 mov         r3, #0
  00e28	e58d31e8	 str         r3, [sp, #0x1E8]
  00e2c	ea00002c	 b           |$LN18@Initialize|
  00e30		 |$LN3@Initialize|

; 243  :     }
; 244  : 
; 245  :     if (!( m_pobOhcd  = CreateBulverdeHcdObject(this, m_pobMem, m_lpDriverReg, (PUCHAR)m_pDCUSBOHCIReg, m_dwSysIntr))) {

  00e30	e59d3280	 ldr         r3, [sp, #0x280]
  00e34	e283304c	 add         r3, r3, #0x4C
  00e38	e5933000	 ldr         r3, [r3]
  00e3c	e58d3000	 str         r3, [sp]
  00e40	e59d3280	 ldr         r3, [sp, #0x280]
  00e44	e2833020	 add         r3, r3, #0x20
  00e48	e5933000	 ldr         r3, [r3]
  00e4c	e59d2280	 ldr         r2, [sp, #0x280]
  00e50	e2822058	 add         r2, r2, #0x58
  00e54	e5922000	 ldr         r2, [r2]
  00e58	e59d1280	 ldr         r1, [sp, #0x280]
  00e5c	e2811048	 add         r1, r1, #0x48
  00e60	e5911000	 ldr         r1, [r1]
  00e64	e59d0280	 ldr         r0, [sp, #0x280]
  00e68	eb000000	 bl          |?CreateBulverdeHcdObject@@YAPAXPAX0PBGPAEK@Z|
  00e6c	e58d0270	 str         r0, [sp, #0x270]
  00e70	e59d3280	 ldr         r3, [sp, #0x280]
  00e74	e2832054	 add         r2, r3, #0x54
  00e78	e59d3270	 ldr         r3, [sp, #0x270]
  00e7c	e5823000	 str         r3, [r2]
  00e80	e59d3280	 ldr         r3, [sp, #0x280]
  00e84	e2833054	 add         r3, r3, #0x54
  00e88	e5933000	 ldr         r3, [r3]
  00e8c	e3530000	 cmp         r3, #0
  00e90	1a00000f	 bne         |$LN1@Initialize|

; 246  :         DEBUGMSG(ZONE_INIT, (TEXT("SOhcdPdd::InitializeOHCI() - Cann't CreateHcdObject!!!\r\n.\r\n")));

  00e94	e59f305c	 ldr         r3, [pc, #0x5C]
  00e98	e5933440	 ldr         r3, [r3, #0x440]
  00e9c	e3130002	 tst         r3, #2
  00ea0	0a000004	 beq         |$LN44@Initialize|
  00ea4	e59f0048	 ldr         r0, [pc, #0x48]
  00ea8	eb000000	 bl          NKDbgPrintfW
  00eac	e3a03001	 mov         r3, #1
  00eb0	e58d3274	 str         r3, [sp, #0x274]
  00eb4	ea000001	 b           |$LN45@Initialize|
  00eb8		 |$LN44@Initialize|
  00eb8	e3a03000	 mov         r3, #0
  00ebc	e58d3274	 str         r3, [sp, #0x274]
  00ec0		 |$LN45@Initialize|

; 247  :         return FALSE;

  00ec0	e59d01e4	 ldr         r0, [sp, #0x1E4]
  00ec4	eb000000	 bl          __security_check_cookie
  00ec8	e3a03000	 mov         r3, #0
  00ecc	e58d31e8	 str         r3, [sp, #0x1E8]
  00ed0	ea000003	 b           |$LN18@Initialize|
  00ed4		 |$LN1@Initialize|

; 248  :     }
; 249  : 
; 250  :     return TRUE;

  00ed4	e59d01e4	 ldr         r0, [sp, #0x1E4]
  00ed8	eb000000	 bl          __security_check_cookie
  00edc	e3a03001	 mov         r3, #1
  00ee0	e58d31e8	 str         r3, [sp, #0x1E8]
  00ee4		 |$LN18@Initialize|

; 251  : }

  00ee4	e59d01e8	 ldr         r0, [sp, #0x1E8]
  00ee8	e28ddf9e	 add         sp, sp, #0x9E, 30
  00eec	e89d6000	 ldmia       sp, {sp, lr}
  00ef0	e12fff1e	 bx          lr
  00ef4		 |$LN49@Initialize|
  00ef4		 |$LN50@Initialize|
  00ef4	00000000	 DCD         |??_C@_1HI@CBAPHDJH@?$AAS?$AAO?$AAh?$AAc?$AAd?$AAP?$AAd?$AAd?$AA?3?$AA?3?$AAI?$AAn?$AAi?$AAt?$AAi?$AAa?$AAl?$AAi?$AAz?$AAe?$AAO?$AAH?$AAC?$AAI?$AA?$CI?$AA?$CJ?$AA?5?$AA?9?$AA?5?$AAC?$AAa?$AAn@|
  00ef8		 |$LN51@Initialize|
  00ef8	00000000	 DCD         |dpCurSettings|
  00efc		 |$LN52@Initialize|
  00efc	00000000	 DCD         |??_C@_1HO@EADNMDLG@?$AAS?$AAO?$AAh?$AAc?$AAd?$AAP?$AAd?$AAd?$AA?3?$AA?3?$AAI?$AAn?$AAi?$AAt?$AAi?$AAa?$AAl?$AAi?$AAz?$AAe?$AAO?$AAH?$AAC?$AAI?$AA?$CI?$AA?$CJ?$AA?5?$AA?9?$AA?5?$AAC?$AAa?$AAn@|
  00f00		 |$LN53@Initialize|
  00f00	00000000	 DCD         |??_C@_1JE@KOLFOMMJ@?$AAS?$AAO?$AAh?$AAc?$AAd?$AAP?$AAd?$AAd?$AA?3?$AA?3?$AAI?$AAn?$AAi?$AAt?$AAi?$AAa?$AAl?$AAi?$AAz?$AAe?$AAO?$AAH?$AAC?$AAI?$AA?$CI?$AA?$CJ?$AA?5?$AA?9?$AA?5?$AAH?$AAa?$AAl@|
  00f04		 |$LN54@Initialize|
  00f04	00000000	 DCD         |??_C@_1CC@NPEFILDH@?$AAP?$AAh?$AAy?$AAs?$AAi?$AAc?$AAa?$AAl?$AAP?$AAa?$AAg?$AAe?$AAS?$AAi?$AAz?$AAe?$AA?$AA@|
  00f08		 |$LN55@Initialize|
  00f08	00000000	 DCD         |??_C@_1GG@NNNDCOE@?$AAS?$AAO?$AAh?$AAc?$AAd?$AAP?$AAd?$AAd?$AA?3?$AA?3?$AAI?$AAn?$AAi?$AAt?$AA?5?$AA?9?$AA?5?$AAC?$AAa?$AAn?$AAn?$AA?8?$AAt?$AA?5?$AAg?$AAe?$AAt?$AA?5?$AA?$CC?$AA?$CF?$AAs?$AA?$CC@|
  00f0c		 |$LN56@Initialize|
  00f0c	00000000	 DCD         |??_C@_1BE@HMBIFFJK@?$AAD?$AAm?$AAa?$AAM?$AAe?$AAn?$AAL?$AAe?$AAn?$AA?$AA@|
  00f10		 |$LN57@Initialize|
  00f10	00000000	 DCD         |??_C@_1BG@MOACEBDO@?$AAD?$AAm?$AAa?$AAM?$AAe?$AAm?$AAB?$AAa?$AAs?$AAe?$AA?$AA@|
  00f14		 |$LN58@Initialize|
  00f14	00000000	 DCD         |??_C@_1FA@DPHEKBML@?$AAO?$AAH?$AAC?$AAD?$AA?3?$AA?5?$AAK?$AAe?$AAr?$AAn?$AAe?$AAl?$AAL?$AAi?$AAb?$AAI?$AAo?$AAC?$AAo?$AAn?$AAt?$AAr?$AAo?$AAl?$AA?5?$AAc?$AAa?$AAl?$AAl?$AA?5?$AAf?$AAa@|
  00f18		 |$LN59@Initialize|
  00f18	00000000	 DCD         |??_C@_1EI@LOJCLMFL@?$AAO?$AAH?$AAC?$AAD?$AA?3?$AA?5?$AAF?$AAa?$AAi?$AAl?$AAe?$AAd?$AA?5?$AAT?$AAr?$AAa?$AAn?$AAs?$AAB?$AAu?$AAs?$AAA?$AAd?$AAd?$AAr?$AAT?$AAo?$AAS?$AAt?$AAa?$AAt?$AAi@|
  00f1c		 |$LN60@Initialize|
  00f1c	00000000	 DCD         |??_C@_1II@CDOFHEL@?$AAO?$AAH?$AAC?$AAD?$AA?3?$AA?5?$AAI?$AAn?$AAs?$AAt?$AAa?$AAl?$AAl?$AAe?$AAd?$AA?5?$AAI?$AAS?$AAR?$AA?5?$AAh?$AAa?$AAn?$AAd?$AAl?$AAe?$AAr?$AA?0?$AA?5?$AAD?$AAl?$AAl@|
  00f20		 |$LN61@Initialize|
  00f20	00000000	 DCD         |??_C@_1EK@FIHEAHPG@?$AAO?$AAH?$AAC?$AAD?$AA?3?$AA?5?$AAC?$AAo?$AAu?$AAl?$AAd?$AAn?$AA?8?$AAt?$AA?5?$AAi?$AAn?$AAs?$AAt?$AAa?$AAl?$AAl?$AA?5?$AAI?$AAS?$AAR?$AA?5?$AAh?$AAa?$AAn?$AAd?$AAl@|
  00f24		 |$LN62@Initialize|
  00f24	00000000	 DCD         |??_C@_1BAK@KPHFPFKN@?$AAO?$AAH?$AAC?$AAD?$AA?3?$AA?5?$AAR?$AAe?$AAa?$AAd?$AA?5?$AAc?$AAo?$AAn?$AAf?$AAi?$AAg?$AA?5?$AAf?$AAr?$AAo?$AAm?$AA?5?$AAr?$AAe?$AAg?$AAi?$AAs?$AAt?$AAr?$AAy?$AA?3@|
  00f28		 |$LN63@Initialize|
  00f28	00000000	 DCD         |??_C@_15LIBIHNCL@?$AAN?$AAO?$AA?$AA@|
  00f2c		 |$LN64@Initialize|
  00f2c	00000000	 DCD         |??_C@_17FGJJPDOI@?$AAY?$AAE?$AAS?$AA?$AA@|
  00f30		 |$LN65@Initialize|
  00f30	00000000	 DCD         |??_C@_1IM@DHHKPKKF@?$AAI?$AAn?$AAi?$AAt?$AAi?$AAa?$AAl?$AAi?$AAz?$AAe?$AAO?$AAH?$AAC?$AAI?$AA?3?$AAD?$AAD?$AAK?$AAR?$AAe?$AAg?$AA_?$AAG?$AAe?$AAt?$AAW?$AAi?$AAn?$AAd?$AAo?$AAw?$AAI@|
  00f34		 |$LN66@Initialize|
  00f34	00000000	 DCD         |__security_cookie|
  00f38		 |$M38989|

			 ENDP  ; |?InitializeOHCI@SOhcdPdd@@UAAHXZ|, SOhcdPdd::InitializeOHCI

	IMPORT	|DDKReg_GetIsrInfo|
; File c:\wince600\public\common\oak\inc\cregedit.h

  00000			 AREA	 |.pdata|, PDATA
|$T39015| DCD	|$LN7@GetIsrInfo|
	DCD	0x40001f04
; Function compile flags: /Odtp

  00000			 AREA	 |.text|, CODE, ARM

  00000		 |?GetIsrInfo@CRegistryEdit@@QAAKPAU_DDKISRINFO_tag@@@Z| PROC ; CRegistryEdit::GetIsrInfo

; 102  :     {

  00000		 |$LN7@GetIsrInfo|
  00000	e1a0c00d	 mov         r12, sp
  00004	e92d0003	 stmdb       sp!, {r0, r1}
  00008	e92d5000	 stmdb       sp!, {r12, lr}
  0000c	e24dd00c	 sub         sp, sp, #0xC
  00010		 |$M39012|

; 103  :         if( pddi && m_hDevKey )

  00010	e59d3018	 ldr         r3, [sp, #0x18]
  00014	e3530000	 cmp         r3, #0
  00018	0a000011	 beq         |$LN2@GetIsrInfo|
  0001c	e59d3014	 ldr         r3, [sp, #0x14]
  00020	e5933000	 ldr         r3, [r3]
  00024	e3530000	 cmp         r3, #0
  00028	0a00000d	 beq         |$LN2@GetIsrInfo|

; 104  :         {
; 105  :             pddi->cbSize = sizeof( DDKISRINFO );

  0002c	e59d2018	 ldr         r2, [sp, #0x18]
  00030	e3a03f43	 mov         r3, #0x43, 30
  00034	e5823000	 str         r3, [r2]

; 106  :             DWORD status = DDKReg_GetIsrInfo( m_hDevKey, pddi );

  00038	e59d1018	 ldr         r1, [sp, #0x18]
  0003c	e59d3014	 ldr         r3, [sp, #0x14]
  00040	e5930000	 ldr         r0, [r3]
  00044	eb000000	 bl          DDKReg_GetIsrInfo
  00048	e58d0008	 str         r0, [sp, #8]
  0004c	e59d3008	 ldr         r3, [sp, #8]
  00050	e58d3000	 str         r3, [sp]

; 107  :             return status;

  00054	e59d3000	 ldr         r3, [sp]
  00058	e58d3004	 str         r3, [sp, #4]
  0005c	ea000002	 b           |$LN3@GetIsrInfo|

; 108  :         }
; 109  :         else

  00060	ea000001	 b           |$LN1@GetIsrInfo|
  00064		 |$LN2@GetIsrInfo|

; 110  :         {
; 111  :             return ERROR_INVALID_FUNCTION;

  00064	e3a03001	 mov         r3, #1
  00068	e58d3004	 str         r3, [sp, #4]
  0006c		 |$LN1@GetIsrInfo|
  0006c		 |$LN3@GetIsrInfo|

; 112  :         }
; 113  :     }

  0006c	e59d0004	 ldr         r0, [sp, #4]
  00070	e28dd00c	 add         sp, sp, #0xC
  00074	e89d6000	 ldmia       sp, {sp, lr}
  00078	e12fff1e	 bx          lr
  0007c		 |$M39013|

			 ENDP  ; |?GetIsrInfo@CRegistryEdit@@QAAKPAU_DDKISRINFO_tag@@@Z|, CRegistryEdit::GetIsrInfo

	IMPORT	|RegQueryValueExW|

  00000			 AREA	 |.pdata|, PDATA
|$T39027| DCD	|$LN7@GetRegValu|
	DCD	0x40002104
; Function compile flags: /Odtp

  00000			 AREA	 |.text|, CODE, ARM

  00000		 |?GetRegValue@CRegistryEdit@@QAAHPBGPAEK@Z| PROC ; CRegistryEdit::GetRegValue

; 130  :     {

  00000		 |$LN7@GetRegValu|
  00000	e1a0c00d	 mov         r12, sp
  00004	e92d000f	 stmdb       sp!, {r0 - r3}
  00008	e92d5000	 stmdb       sp!, {r12, lr}
  0000c	e24dd024	 sub         sp, sp, #0x24
  00010		 |$M39024|

; 131  :         DWORD dwType = 0;

  00010	e3a03000	 mov         r3, #0
  00014	e58d3008	 str         r3, [sp, #8]

; 132  :         LONG status = ::RegQueryValueEx( m_hDevKey,
; 133  :                                            lpcName,
; 134  :                                            NULL,
; 135  :                                            &dwType,
; 136  :                                            lpData,
; 137  :                                            &dwDataLen );

  00018	e28d3038	 add         r3, sp, #0x38
  0001c	e58d3004	 str         r3, [sp, #4]
  00020	e59d3034	 ldr         r3, [sp, #0x34]
  00024	e58d3000	 str         r3, [sp]
  00028	e28d3008	 add         r3, sp, #8
  0002c	e3a02000	 mov         r2, #0
  00030	e59d1030	 ldr         r1, [sp, #0x30]
  00034	e59d002c	 ldr         r0, [sp, #0x2C]
  00038	e5900000	 ldr         r0, [r0]
  0003c	eb000000	 bl          RegQueryValueExW
  00040	e58d001c	 str         r0, [sp, #0x1C]
  00044	e59d301c	 ldr         r3, [sp, #0x1C]
  00048	e58d300c	 str         r3, [sp, #0xC]

; 138  :         return ( status == ERROR_SUCCESS );

  0004c	e59d300c	 ldr         r3, [sp, #0xC]
  00050	e3530000	 cmp         r3, #0
  00054	1a000002	 bne         |$LN3@GetRegValu|
  00058	e3a03001	 mov         r3, #1
  0005c	e58d3020	 str         r3, [sp, #0x20]
  00060	ea000001	 b           |$LN4@GetRegValu|
  00064		 |$LN3@GetRegValu|
  00064	e3a03000	 mov         r3, #0
  00068	e58d3020	 str         r3, [sp, #0x20]
  0006c		 |$LN4@GetRegValu|
  0006c	e59d3020	 ldr         r3, [sp, #0x20]
  00070	e58d3018	 str         r3, [sp, #0x18]

; 139  :     }

  00074	e59d0018	 ldr         r0, [sp, #0x18]
  00078	e28dd024	 add         sp, sp, #0x24
  0007c	e89d6000	 ldmia       sp, {sp, lr}
  00080	e12fff1e	 bx          lr
  00084		 |$M39025|

			 ENDP  ; |?GetRegValue@CRegistryEdit@@QAAHPBGPAEK@Z|, CRegistryEdit::GetRegValue

	EXPORT	|??_C@_1HA@NCIOOGN@?$AAS?$AAO?$AAh?$AAc?$AAd?$AAP?$AAd?$AAd?$AA?3?$AA?3?$AAI?$AAn?$AAi?$AAt?$AAP?$AAd?$AAd?$AAI?$AAn?$AAt?$AAe?$AAr?$AAr?$AAu?$AAp?$AAt?$AAs?$AA?$CI?$AA?$CJ?$AA?5?$AA?9?$AA?5@| [ DATA ] ; `string'

  00020			 AREA	 |.pdata|, PDATA
|$T39037| DCD	|$LN7@InitPddInt|
	DCD	0x40002204
; File c:\wince600\platform\common\src\soc\pxa27x_ms_v1\hcd\bul_ohci.cpp

  00000			 AREA	 |.rdata|, DATA, READONLY
|??_C@_1HA@NCIOOGN@?$AAS?$AAO?$AAh?$AAc?$AAd?$AAP?$AAd?$AAd?$AA?3?$AA?3?$AAI?$AAn?$AAi?$AAt?$AAP?$AAd?$AAd?$AAI?$AAn?$AAt?$AAe?$AAr?$AAr?$AAu?$AAp?$AAt?$AAs?$AA?$CI?$AA?$CJ?$AA?5?$AA?9?$AA?5@| DCB "S"
	DCB	0x0, "O", 0x0, "h", 0x0, "c", 0x0, "d", 0x0, "P", 0x0, "d"
	DCB	0x0, "d", 0x0, ":", 0x0, ":", 0x0, "I", 0x0, "n", 0x0, "i"
	DCB	0x0, "t", 0x0, "P", 0x0, "d", 0x0, "d", 0x0, "I", 0x0, "n"
	DCB	0x0, "t", 0x0, "e", 0x0, "r", 0x0, "r", 0x0, "u", 0x0, "p"
	DCB	0x0, "t", 0x0, "s", 0x0, "(", 0x0, ")", 0x0, " ", 0x0, "-"
	DCB	0x0, " ", 0x0, "I", 0x0, "n", 0x0, "i", 0x0, "t", 0x0, "i"
	DCB	0x0, "a", 0x0, "l", 0x0, " ", 0x0, "U", 0x0, "H", 0x0, "C"
	DCB	0x0, "H", 0x0, "I", 0x0, "E", 0x0, " ", 0x0, "=", 0x0, " "
	DCB	0x0, "0", 0x0, "x", 0x0, "%", 0x0, "x", 0x0, 0xd, 0x0, 0xa
	DCB	0x0, 0x0, 0x0				; `string'
; Function compile flags: /Odtp

  00f38			 AREA	 |.text|, CODE, ARM

  00f38		 |?InitPddInterrupts@SOhcdPdd@@MAAHXZ| PROC ; SOhcdPdd::InitPddInterrupts

; 253  : {

  00f38		 |$LN7@InitPddInt|
  00f38	e1a0c00d	 mov         r12, sp
  00f3c	e92d0001	 stmdb       sp!, {r0}
  00f40	e92d5000	 stmdb       sp!, {r12, lr}
  00f44	e24dd008	 sub         sp, sp, #8
  00f48		 |$M39034|

; 254  :     DEBUGMSG(ZONE_INIT, (TEXT("SOhcdPdd::InitPddInterrupts() - Initial UHCHIE = 0x%x\r\n"),m_pDCUSBOHCIReg->uhchie));

  00f48	e59f306c	 ldr         r3, [pc, #0x6C]
  00f4c	e5933440	 ldr         r3, [r3, #0x440]
  00f50	e3130002	 tst         r3, #2
  00f54	0a000009	 beq         |$LN3@InitPddInt|
  00f58	e59d3010	 ldr         r3, [sp, #0x10]
  00f5c	e2833020	 add         r3, r3, #0x20
  00f60	e5933000	 ldr         r3, [r3]
  00f64	e2833068	 add         r3, r3, #0x68
  00f68	e5931000	 ldr         r1, [r3]
  00f6c	e59f0044	 ldr         r0, [pc, #0x44]
  00f70	eb000000	 bl          NKDbgPrintfW
  00f74	e3a03001	 mov         r3, #1
  00f78	e58d3004	 str         r3, [sp, #4]
  00f7c	ea000001	 b           |$LN4@InitPddInt|
  00f80		 |$LN3@InitPddInt|
  00f80	e3a03000	 mov         r3, #0
  00f84	e58d3004	 str         r3, [sp, #4]
  00f88		 |$LN4@InitPddInt|

; 255  :     m_pDCUSBOHCIReg->uhchie = 0 ; // Mask All PDD interrupt.

  00f88	e59d3010	 ldr         r3, [sp, #0x10]
  00f8c	e2833020	 add         r3, r3, #0x20
  00f90	e5933000	 ldr         r3, [r3]
  00f94	e2832068	 add         r2, r3, #0x68
  00f98	e3a03000	 mov         r3, #0
  00f9c	e5823000	 str         r3, [r2]

; 256  :     return TRUE;

  00fa0	e3a03001	 mov         r3, #1
  00fa4	e58d3000	 str         r3, [sp]

; 257  : }

  00fa8	e59d0000	 ldr         r0, [sp]
  00fac	e28dd008	 add         sp, sp, #8
  00fb0	e89d6000	 ldmia       sp, {sp, lr}
  00fb4	e12fff1e	 bx          lr
  00fb8		 |$LN8@InitPddInt|
  00fb8		 |$LN9@InitPddInt|
  00fb8	00000000	 DCD         |??_C@_1HA@NCIOOGN@?$AAS?$AAO?$AAh?$AAc?$AAd?$AAP?$AAd?$AAd?$AA?3?$AA?3?$AAI?$AAn?$AAi?$AAt?$AAP?$AAd?$AAd?$AAI?$AAn?$AAt?$AAe?$AAr?$AAr?$AAu?$AAp?$AAt?$AAs?$AA?$CI?$AA?$CJ?$AA?5?$AA?9?$AA?5@|
  00fbc		 |$LN10@InitPddInt|
  00fbc	00000000	 DCD         |dpCurSettings|
  00fc0		 |$M39035|

			 ENDP  ; |?InitPddInterrupts@SOhcdPdd@@MAAHXZ|, SOhcdPdd::InitPddInterrupts

	EXPORT	|??_C@_1CI@FBMGIH@?$AAO?$AAH?$AAC?$AAI?$AA_?$AAR?$AAe?$AAs?$AAe?$AAt?$AA?3?$AA?5?$AAd?$AAo?$AAn?$AAe?$AA?4?$AA?$AN?$AA?6?$AA?$AA@| [ DATA ] ; `string'
	EXPORT	|??_C@_1EO@BOEJMDOM@?$AAO?$AAH?$AAC?$AAI?$AA_?$AAR?$AAe?$AAs?$AAe?$AAt?$AA?3?$AA?5?$AAR?$AAe?$AAs?$AAe?$AAt?$AAt?$AAi?$AAn?$AAg?$AA?5?$AAB?$AAu?$AAl?$AAv?$AAe?$AAr?$AAd?$AAe?$AA?5?$AAO@| [ DATA ] ; `string'
	IMPORT	|Sleep|

  00028			 AREA	 |.pdata|, PDATA
|$T39050| DCD	|$LN11@OHCI_Reset|
	DCD	0x40004d04

  00000			 AREA	 |.rdata|, DATA, READONLY
|??_C@_1CI@FBMGIH@?$AAO?$AAH?$AAC?$AAI?$AA_?$AAR?$AAe?$AAs?$AAe?$AAt?$AA?3?$AA?5?$AAd?$AAo?$AAn?$AAe?$AA?4?$AA?$AN?$AA?6?$AA?$AA@| DCB "O"
	DCB	0x0, "H", 0x0, "C", 0x0, "I", 0x0, "_", 0x0, "R", 0x0, "e"
	DCB	0x0, "s", 0x0, "e", 0x0, "t", 0x0, ":", 0x0, " ", 0x0, "d"
	DCB	0x0, "o", 0x0, "n", 0x0, "e", 0x0, ".", 0x0, 0xd, 0x0, 0xa
	DCB	0x0, 0x0, 0x0				; `string'

  00000			 AREA	 |.rdata|, DATA, READONLY
|??_C@_1EO@BOEJMDOM@?$AAO?$AAH?$AAC?$AAI?$AA_?$AAR?$AAe?$AAs?$AAe?$AAt?$AA?3?$AA?5?$AAR?$AAe?$AAs?$AAe?$AAt?$AAt?$AAi?$AAn?$AAg?$AA?5?$AAB?$AAu?$AAl?$AAv?$AAe?$AAr?$AAd?$AAe?$AA?5?$AAO@| DCB "O"
	DCB	0x0, "H", 0x0, "C", 0x0, "I", 0x0, "_", 0x0, "R", 0x0, "e"
	DCB	0x0, "s", 0x0, "e", 0x0, "t", 0x0, ":", 0x0, " ", 0x0, "R"
	DCB	0x0, "e", 0x0, "s", 0x0, "e", 0x0, "t", 0x0, "t", 0x0, "i"
	DCB	0x0, "n", 0x0, "g", 0x0, " ", 0x0, "B", 0x0, "u", 0x0, "l"
	DCB	0x0, "v", 0x0, "e", 0x0, "r", 0x0, "d", 0x0, "e", 0x0, " "
	DCB	0x0, "O", 0x0, "H", 0x0, "C", 0x0, "I", 0x0, ".", 0x0, 0xd
	DCB	0x0, 0xa, 0x0, 0x0, 0x0			; `string'
; Function compile flags: /Odtp

  00fc0			 AREA	 |.text|, CODE, ARM

  00fc0		 |?OHCI_Reset@SOhcdPdd@@MAAHXZ| PROC	; SOhcdPdd::OHCI_Reset

; 260  : {

  00fc0		 |$LN11@OHCI_Reset|
  00fc0	e1a0c00d	 mov         r12, sp
  00fc4	e92d0001	 stmdb       sp!, {r0}
  00fc8	e92d5000	 stmdb       sp!, {r12, lr}
  00fcc	e24dd018	 sub         sp, sp, #0x18
  00fd0		 |$M39047|

; 261  :    DEBUGMSG(ZONE_INIT,(TEXT("OHCI_Reset: Resetting Bulverde OHCI.\r\n")));

  00fd0	e59f3118	 ldr         r3, [pc, #0x118]
  00fd4	e5933440	 ldr         r3, [r3, #0x440]
  00fd8	e3130002	 tst         r3, #2
  00fdc	0a000004	 beq         |$LN5@OHCI_Reset|
  00fe0	e59f0104	 ldr         r0, [pc, #0x104]
  00fe4	eb000000	 bl          NKDbgPrintfW
  00fe8	e3a03001	 mov         r3, #1
  00fec	e58d3004	 str         r3, [sp, #4]
  00ff0	ea000001	 b           |$LN6@OHCI_Reset|
  00ff4		 |$LN5@OHCI_Reset|
  00ff4	e3a03000	 mov         r3, #0
  00ff8	e58d3004	 str         r3, [sp, #4]
  00ffc		 |$LN6@OHCI_Reset|

; 262  : 
; 263  :    // Do the reset for the Bulverde part.
; 264  :    // Two levels of reset need to be initiated:
; 265  :    //	The OHCI core needs to be reset via the FHR bit,
; 266  :    //	then the OHCI system bus interface needs to be reset via the FSBIR bit.
; 267  : 
; 268  :     // reset the OHC core and all OHC blocks driven by the 12 MHz clock, eg. write fifo, etc.
; 269  :     m_pDCUSBOHCIReg->uhchr |=  XLLP_USBOHCI_UHCHR_FHR;

  00ffc	e59d3020	 ldr         r3, [sp, #0x20]
  01000	e2833020	 add         r3, r3, #0x20
  01004	e5933000	 ldr         r3, [r3]
  01008	e2833064	 add         r3, r3, #0x64
  0100c	e58d3008	 str         r3, [sp, #8]
  01010	e59d3008	 ldr         r3, [sp, #8]
  01014	e5933000	 ldr         r3, [r3]
  01018	e3832002	 orr         r2, r3, #2
  0101c	e59d3008	 ldr         r3, [sp, #8]
  01020	e5832000	 str         r2, [r3]

; 270  :     Sleep(1);

  01024	e3a00001	 mov         r0, #1
  01028	eb000000	 bl          Sleep

; 271  :     m_pDCUSBOHCIReg->uhchr &= ~XLLP_USBOHCI_UHCHR_FHR;

  0102c	e59d3020	 ldr         r3, [sp, #0x20]
  01030	e2833020	 add         r3, r3, #0x20
  01034	e5933000	 ldr         r3, [r3]
  01038	e2833064	 add         r3, r3, #0x64
  0103c	e58d300c	 str         r3, [sp, #0xC]
  01040	e59d300c	 ldr         r3, [sp, #0xC]
  01044	e5932000	 ldr         r2, [r3]
  01048	e3e03002	 mvn         r3, #2
  0104c	e0022003	 and         r2, r2, r3
  01050	e59d300c	 ldr         r3, [sp, #0xC]
  01054	e5832000	 str         r2, [r3]

; 272  : 
; 273  :     // reset the OHC system bus interface, eg. SBI, DMA blocks, fifos, etc.
; 274  :     m_pDCUSBOHCIReg->uhchr |=  XLLP_USBOHCI_UHCHR_FSBIR;

  01058	e59d3020	 ldr         r3, [sp, #0x20]
  0105c	e2833020	 add         r3, r3, #0x20
  01060	e5933000	 ldr         r3, [r3]
  01064	e2833064	 add         r3, r3, #0x64
  01068	e58d3010	 str         r3, [sp, #0x10]
  0106c	e59d3010	 ldr         r3, [sp, #0x10]
  01070	e5933000	 ldr         r3, [r3]
  01074	e3832001	 orr         r2, r3, #1
  01078	e59d3010	 ldr         r3, [sp, #0x10]
  0107c	e5832000	 str         r2, [r3]
  01080		 |$LN2@OHCI_Reset|

; 275  :     while( m_pDCUSBOHCIReg->uhchr & XLLP_USBOHCI_UHCHR_FSBIR );	// auto clears in 3 system bus clocks

  01080	e59d3020	 ldr         r3, [sp, #0x20]
  01084	e2833020	 add         r3, r3, #0x20
  01088	e5933000	 ldr         r3, [r3]
  0108c	e2833064	 add         r3, r3, #0x64
  01090	e5933000	 ldr         r3, [r3]
  01094	e3130001	 tst         r3, #1
  01098	0a000000	 beq         |$LN1@OHCI_Reset|
  0109c	eafffff7	 b           |$LN2@OHCI_Reset|
  010a0		 |$LN1@OHCI_Reset|

; 276  : 
; 277  :     DEBUGMSG(m_pDCUSBOHCIReg,(TEXT("OHCI_Reset: done.\r\n")));

  010a0	e59d3020	 ldr         r3, [sp, #0x20]
  010a4	e2833020	 add         r3, r3, #0x20
  010a8	e5933000	 ldr         r3, [r3]
  010ac	e3530000	 cmp         r3, #0
  010b0	0a000004	 beq         |$LN7@OHCI_Reset|
  010b4	e59f002c	 ldr         r0, [pc, #0x2C]
  010b8	eb000000	 bl          NKDbgPrintfW
  010bc	e3a03001	 mov         r3, #1
  010c0	e58d3014	 str         r3, [sp, #0x14]
  010c4	ea000001	 b           |$LN8@OHCI_Reset|
  010c8		 |$LN7@OHCI_Reset|
  010c8	e3a03000	 mov         r3, #0
  010cc	e58d3014	 str         r3, [sp, #0x14]
  010d0		 |$LN8@OHCI_Reset|

; 278  :     return TRUE;

  010d0	e3a03001	 mov         r3, #1
  010d4	e58d3000	 str         r3, [sp]

; 279  : }

  010d8	e59d0000	 ldr         r0, [sp]
  010dc	e28dd018	 add         sp, sp, #0x18
  010e0	e89d6000	 ldmia       sp, {sp, lr}
  010e4	e12fff1e	 bx          lr
  010e8		 |$LN12@OHCI_Reset|
  010e8		 |$LN13@OHCI_Reset|
  010e8	00000000	 DCD         |??_C@_1CI@FBMGIH@?$AAO?$AAH?$AAC?$AAI?$AA_?$AAR?$AAe?$AAs?$AAe?$AAt?$AA?3?$AA?5?$AAd?$AAo?$AAn?$AAe?$AA?4?$AA?$AN?$AA?6?$AA?$AA@|
  010ec		 |$LN14@OHCI_Reset|
  010ec	00000000	 DCD         |??_C@_1EO@BOEJMDOM@?$AAO?$AAH?$AAC?$AAI?$AA_?$AAR?$AAe?$AAs?$AAe?$AAt?$AA?3?$AA?5?$AAR?$AAe?$AAs?$AAe?$AAt?$AAt?$AAi?$AAn?$AAg?$AA?5?$AAB?$AAu?$AAl?$AAv?$AAe?$AAr?$AAd?$AAe?$AA?5?$AAO@|
  010f0		 |$LN15@OHCI_Reset|
  010f0	00000000	 DCD         |dpCurSettings|
  010f4		 |$M39048|

			 ENDP  ; |?OHCI_Reset@SOhcdPdd@@MAAHXZ|, SOhcdPdd::OHCI_Reset

	EXPORT	|??_C@_1KG@OBNGMIMP@?$AAT?$AAu?$AAr?$AAn?$AAO?$AAn?$AAU?$AAS?$AAB?$AAH?$AAo?$AAs?$AAt?$AAC?$AAl?$AAo?$AAc?$AAk?$AAs?$AA?3?$AA?5?$AAF?$AAi?$AAn?$AAa?$AAl?$AA?5?$AA?5?$AA?5?$AAV?$AAa?$AAl@| [ DATA ] ; `string'
	EXPORT	|??_C@_1KG@GOCFMBAI@?$AAT?$AAu?$AAr?$AAn?$AAO?$AAn?$AAU?$AAS?$AAB?$AAH?$AAo?$AAs?$AAt?$AAC?$AAl?$AAo?$AAc?$AAk?$AAs?$AA?3?$AA?5?$AAI?$AAn?$AAi?$AAt?$AAi?$AAa?$AAl?$AA?5?$AAV?$AAa?$AAl@| [ DATA ] ; `string'

  00030			 AREA	 |.pdata|, PDATA
|$T39065| DCD	|$LN9@TurnOnUSBH|
	DCD	0x40005204

  00000			 AREA	 |.rdata|, DATA, READONLY
|??_C@_1KG@OBNGMIMP@?$AAT?$AAu?$AAr?$AAn?$AAO?$AAn?$AAU?$AAS?$AAB?$AAH?$AAo?$AAs?$AAt?$AAC?$AAl?$AAo?$AAc?$AAk?$AAs?$AA?3?$AA?5?$AAF?$AAi?$AAn?$AAa?$AAl?$AA?5?$AA?5?$AA?5?$AAV?$AAa?$AAl@| DCB "T"
	DCB	0x0, "u", 0x0, "r", 0x0, "n", 0x0, "O", 0x0, "n", 0x0, "U"
	DCB	0x0, "S", 0x0, "B", 0x0, "H", 0x0, "o", 0x0, "s", 0x0, "t"
	DCB	0x0, "C", 0x0, "l", 0x0, "o", 0x0, "c", 0x0, "k", 0x0, "s"
	DCB	0x0, ":", 0x0, " ", 0x0, "F", 0x0, "i", 0x0, "n", 0x0, "a"
	DCB	0x0, "l", 0x0, " ", 0x0, " ", 0x0, " ", 0x0, "V", 0x0, "a"
	DCB	0x0, "l", 0x0, "u", 0x0, "e", 0x0, "s", 0x0, ":", 0x0, " "
	DCB	0x0, "c", 0x0, "c", 0x0, "c", 0x0, "r", 0x0, ":", 0x0, " "
	DCB	0x0, "%", 0x0, "0", 0x0, "8", 0x0, "x", 0x0, " ", 0x0, "c"
	DCB	0x0, "k", 0x0, "e", 0x0, "n", 0x0, ":", 0x0, " ", 0x0, "%"
	DCB	0x0, "0", 0x0, "8", 0x0, "x", 0x0, " ", 0x0, "o", 0x0, "s"
	DCB	0x0, "c", 0x0, "c", 0x0, ":", 0x0, " ", 0x0, "%", 0x0, "0"
	DCB	0x0, "8", 0x0, "x", 0x0, " ", 0x0, "c", 0x0, "c", 0x0, "s"
	DCB	0x0, "r", 0x0, ":", 0x0, " ", 0x0, "%", 0x0, "0", 0x0, "8"
	DCB	0x0, "x", 0x0, 0xa, 0x0, 0xd, 0x0, 0x0, 0x0 ; `string'

  00000			 AREA	 |.rdata|, DATA, READONLY
|??_C@_1KG@GOCFMBAI@?$AAT?$AAu?$AAr?$AAn?$AAO?$AAn?$AAU?$AAS?$AAB?$AAH?$AAo?$AAs?$AAt?$AAC?$AAl?$AAo?$AAc?$AAk?$AAs?$AA?3?$AA?5?$AAI?$AAn?$AAi?$AAt?$AAi?$AAa?$AAl?$AA?5?$AAV?$AAa?$AAl@| DCB "T"
	DCB	0x0, "u", 0x0, "r", 0x0, "n", 0x0, "O", 0x0, "n", 0x0, "U"
	DCB	0x0, "S", 0x0, "B", 0x0, "H", 0x0, "o", 0x0, "s", 0x0, "t"
	DCB	0x0, "C", 0x0, "l", 0x0, "o", 0x0, "c", 0x0, "k", 0x0, "s"
	DCB	0x0, ":", 0x0, " ", 0x0, "I", 0x0, "n", 0x0, "i", 0x0, "t"
	DCB	0x0, "i", 0x0, "a", 0x0, "l", 0x0, " ", 0x0, "V", 0x0, "a"
	DCB	0x0, "l", 0x0, "u", 0x0, "e", 0x0, "s", 0x0, ":", 0x0, " "
	DCB	0x0, "c", 0x0, "c", 0x0, "c", 0x0, "r", 0x0, ":", 0x0, " "
	DCB	0x0, "%", 0x0, "0", 0x0, "8", 0x0, "x", 0x0, " ", 0x0, "c"
	DCB	0x0, "k", 0x0, "e", 0x0, "n", 0x0, ":", 0x0, " ", 0x0, "%"
	DCB	0x0, "0", 0x0, "8", 0x0, "x", 0x0, " ", 0x0, "o", 0x0, "s"
	DCB	0x0, "c", 0x0, "c", 0x0, ":", 0x0, " ", 0x0, "%", 0x0, "0"
	DCB	0x0, "8", 0x0, "x", 0x0, " ", 0x0, "c", 0x0, "c", 0x0, "s"
	DCB	0x0, "r", 0x0, ":", 0x0, " ", 0x0, "%", 0x0, "0", 0x0, "8"
	DCB	0x0, "x", 0x0, 0xa, 0x0, 0xd, 0x0, 0x0, 0x0 ; `string'
; Function compile flags: /Odtp

  010f4			 AREA	 |.text|, CODE, ARM

  010f4		 |?TurnOnUSBHostClocks@SOhcdPdd@@QAAXXZ| PROC ; SOhcdPdd::TurnOnUSBHostClocks

; 288  : {

  010f4		 |$LN9@TurnOnUSBH|
  010f4	e1a0c00d	 mov         r12, sp
  010f8	e92d0001	 stmdb       sp!, {r0}
  010fc	e92d5000	 stmdb       sp!, {r12, lr}
  01100	e24dd018	 sub         sp, sp, #0x18
  01104		 |$M39062|

; 289  :     // The clock enable bit for the USB Host OHCI block in Bulverde
; 290  :     // is bit number 20.
; 291  :     DEBUGMSG(ZONE_INIT,(TEXT("TurnOnUSBHostClocks: Initial Values: cccr: %08x cken: %08x oscc: %08x ccsr: %08x\n\r"), m_pDCCLKReg->cccr, m_pDCCLKReg->cken, m_pDCCLKReg->oscc, m_pDCCLKReg->ccsr));

  01104	e59f3128	 ldr         r3, [pc, #0x128]
  01108	e5933440	 ldr         r3, [r3, #0x440]
  0110c	e3130002	 tst         r3, #2
  01110	0a000018	 beq         |$LN3@TurnOnUSBH|
  01114	e59d3020	 ldr         r3, [sp, #0x20]
  01118	e283301c	 add         r3, r3, #0x1C
  0111c	e5933000	 ldr         r3, [r3]
  01120	e283300c	 add         r3, r3, #0xC
  01124	e5933000	 ldr         r3, [r3]
  01128	e58d3000	 str         r3, [sp]
  0112c	e59d3020	 ldr         r3, [sp, #0x20]
  01130	e283301c	 add         r3, r3, #0x1C
  01134	e5933000	 ldr         r3, [r3]
  01138	e2833008	 add         r3, r3, #8
  0113c	e5933000	 ldr         r3, [r3]
  01140	e59d2020	 ldr         r2, [sp, #0x20]
  01144	e282201c	 add         r2, r2, #0x1C
  01148	e5922000	 ldr         r2, [r2]
  0114c	e2822004	 add         r2, r2, #4
  01150	e5922000	 ldr         r2, [r2]
  01154	e59d1020	 ldr         r1, [sp, #0x20]
  01158	e281101c	 add         r1, r1, #0x1C
  0115c	e5911000	 ldr         r1, [r1]
  01160	e5911000	 ldr         r1, [r1]
  01164	e59f00cc	 ldr         r0, [pc, #0xCC]
  01168	eb000000	 bl          NKDbgPrintfW
  0116c	e3a03001	 mov         r3, #1
  01170	e58d300c	 str         r3, [sp, #0xC]
  01174	ea000001	 b           |$LN4@TurnOnUSBH|
  01178		 |$LN3@TurnOnUSBH|
  01178	e3a03000	 mov         r3, #0
  0117c	e58d300c	 str         r3, [sp, #0xC]
  01180		 |$LN4@TurnOnUSBH|

; 292  :     m_pDCCLKReg->cken |= XLLP_CLKEN_USBHOST;

  01180	e59d3020	 ldr         r3, [sp, #0x20]
  01184	e283301c	 add         r3, r3, #0x1C
  01188	e5933000	 ldr         r3, [r3]
  0118c	e2833004	 add         r3, r3, #4
  01190	e58d3010	 str         r3, [sp, #0x10]
  01194	e59d3010	 ldr         r3, [sp, #0x10]
  01198	e5933000	 ldr         r3, [r3]
  0119c	e3832b01	 orr         r2, r3, #1, 22
  011a0	e59d3010	 ldr         r3, [sp, #0x10]
  011a4	e5832000	 str         r2, [r3]

; 293  :     DEBUGMSG(ZONE_INIT,(TEXT("TurnOnUSBHostClocks: Final   Values: cccr: %08x cken: %08x oscc: %08x ccsr: %08x\n\r"), m_pDCCLKReg->cccr, m_pDCCLKReg->cken, m_pDCCLKReg->oscc, m_pDCCLKReg->ccsr));

  011a8	e59f3084	 ldr         r3, [pc, #0x84]
  011ac	e5933440	 ldr         r3, [r3, #0x440]
  011b0	e3130002	 tst         r3, #2
  011b4	0a000018	 beq         |$LN5@TurnOnUSBH|
  011b8	e59d3020	 ldr         r3, [sp, #0x20]
  011bc	e283301c	 add         r3, r3, #0x1C
  011c0	e5933000	 ldr         r3, [r3]
  011c4	e283300c	 add         r3, r3, #0xC
  011c8	e5933000	 ldr         r3, [r3]
  011cc	e58d3000	 str         r3, [sp]
  011d0	e59d3020	 ldr         r3, [sp, #0x20]
  011d4	e283301c	 add         r3, r3, #0x1C
  011d8	e5933000	 ldr         r3, [r3]
  011dc	e2833008	 add         r3, r3, #8
  011e0	e5933000	 ldr         r3, [r3]
  011e4	e59d2020	 ldr         r2, [sp, #0x20]
  011e8	e282201c	 add         r2, r2, #0x1C
  011ec	e5922000	 ldr         r2, [r2]
  011f0	e2822004	 add         r2, r2, #4
  011f4	e5922000	 ldr         r2, [r2]
  011f8	e59d1020	 ldr         r1, [sp, #0x20]
  011fc	e281101c	 add         r1, r1, #0x1C
  01200	e5911000	 ldr         r1, [r1]
  01204	e5911000	 ldr         r1, [r1]
  01208	e59f0020	 ldr         r0, [pc, #0x20]
  0120c	eb000000	 bl          NKDbgPrintfW
  01210	e3a03001	 mov         r3, #1
  01214	e58d3014	 str         r3, [sp, #0x14]
  01218	ea000001	 b           |$LN6@TurnOnUSBH|
  0121c		 |$LN5@TurnOnUSBH|
  0121c	e3a03000	 mov         r3, #0
  01220	e58d3014	 str         r3, [sp, #0x14]
  01224		 |$LN6@TurnOnUSBH|

; 294  : }

  01224	e28dd018	 add         sp, sp, #0x18
  01228	e89d6000	 ldmia       sp, {sp, lr}
  0122c	e12fff1e	 bx          lr
  01230		 |$LN10@TurnOnUSBH|
  01230		 |$LN11@TurnOnUSBH|
  01230	00000000	 DCD         |??_C@_1KG@OBNGMIMP@?$AAT?$AAu?$AAr?$AAn?$AAO?$AAn?$AAU?$AAS?$AAB?$AAH?$AAo?$AAs?$AAt?$AAC?$AAl?$AAo?$AAc?$AAk?$AAs?$AA?3?$AA?5?$AAF?$AAi?$AAn?$AAa?$AAl?$AA?5?$AA?5?$AA?5?$AAV?$AAa?$AAl@|
  01234		 |$LN12@TurnOnUSBH|
  01234	00000000	 DCD         |dpCurSettings|
  01238		 |$LN13@TurnOnUSBH|
  01238	00000000	 DCD         |??_C@_1KG@GOCFMBAI@?$AAT?$AAu?$AAr?$AAn?$AAO?$AAn?$AAU?$AAS?$AAB?$AAH?$AAo?$AAs?$AAt?$AAC?$AAl?$AAo?$AAc?$AAk?$AAs?$AA?3?$AA?5?$AAI?$AAn?$AAi?$AAt?$AAi?$AAa?$AAl?$AA?5?$AAV?$AAa?$AAl@|
  0123c		 |$M39063|

			 ENDP  ; |?TurnOnUSBHostClocks@SOhcdPdd@@QAAXXZ|, SOhcdPdd::TurnOnUSBHostClocks

	EXPORT	|??_C@_1KG@LDILKOP@?$AAT?$AAu?$AAr?$AAn?$AAO?$AAf?$AAU?$AAS?$AAB?$AAH?$AAo?$AAs?$AAt?$AAC?$AAl?$AAo?$AAc?$AAk?$AAs?$AA?3?$AA?5?$AAF?$AAi?$AAn?$AAa?$AAl?$AA?5?$AA?5?$AA?5?$AAV?$AAa?$AAl@| [ DATA ] ; `string'
	EXPORT	|??_C@_1KG@IEMLLDCI@?$AAT?$AAu?$AAr?$AAn?$AAO?$AAf?$AAU?$AAS?$AAB?$AAH?$AAo?$AAs?$AAt?$AAC?$AAl?$AAo?$AAc?$AAk?$AAs?$AA?3?$AA?5?$AAI?$AAn?$AAi?$AAt?$AAi?$AAa?$AAl?$AA?5?$AAV?$AAa?$AAl@| [ DATA ] ; `string'
	EXPORT	|?TurnOffUSBHostClocks@SOhcdPdd@@QAAXXZ| ; SOhcdPdd::TurnOffUSBHostClocks

  00038			 AREA	 |.pdata|, PDATA
|$T39080| DCD	|$LN9@TurnOffUSB|
	DCD	0x40005304

  00000			 AREA	 |.rdata|, DATA, READONLY
|??_C@_1KG@LDILKOP@?$AAT?$AAu?$AAr?$AAn?$AAO?$AAf?$AAU?$AAS?$AAB?$AAH?$AAo?$AAs?$AAt?$AAC?$AAl?$AAo?$AAc?$AAk?$AAs?$AA?3?$AA?5?$AAF?$AAi?$AAn?$AAa?$AAl?$AA?5?$AA?5?$AA?5?$AAV?$AAa?$AAl@| DCB "T"
	DCB	0x0, "u", 0x0, "r", 0x0, "n", 0x0, "O", 0x0, "f", 0x0, "U"
	DCB	0x0, "S", 0x0, "B", 0x0, "H", 0x0, "o", 0x0, "s", 0x0, "t"
	DCB	0x0, "C", 0x0, "l", 0x0, "o", 0x0, "c", 0x0, "k", 0x0, "s"
	DCB	0x0, ":", 0x0, " ", 0x0, "F", 0x0, "i", 0x0, "n", 0x0, "a"
	DCB	0x0, "l", 0x0, " ", 0x0, " ", 0x0, " ", 0x0, "V", 0x0, "a"
	DCB	0x0, "l", 0x0, "u", 0x0, "e", 0x0, "s", 0x0, ":", 0x0, " "
	DCB	0x0, "c", 0x0, "c", 0x0, "c", 0x0, "r", 0x0, ":", 0x0, " "
	DCB	0x0, "%", 0x0, "0", 0x0, "8", 0x0, "x", 0x0, " ", 0x0, "c"
	DCB	0x0, "k", 0x0, "e", 0x0, "n", 0x0, ":", 0x0, " ", 0x0, "%"
	DCB	0x0, "0", 0x0, "8", 0x0, "x", 0x0, " ", 0x0, "o", 0x0, "s"
	DCB	0x0, "c", 0x0, "c", 0x0, ":", 0x0, " ", 0x0, "%", 0x0, "0"
	DCB	0x0, "8", 0x0, "x", 0x0, " ", 0x0, "c", 0x0, "c", 0x0, "s"
	DCB	0x0, "r", 0x0, ":", 0x0, " ", 0x0, "%", 0x0, "0", 0x0, "8"
	DCB	0x0, "x", 0x0, 0xa, 0x0, 0xd, 0x0, 0x0, 0x0 ; `string'

  00000			 AREA	 |.rdata|, DATA, READONLY
|??_C@_1KG@IEMLLDCI@?$AAT?$AAu?$AAr?$AAn?$AAO?$AAf?$AAU?$AAS?$AAB?$AAH?$AAo?$AAs?$AAt?$AAC?$AAl?$AAo?$AAc?$AAk?$AAs?$AA?3?$AA?5?$AAI?$AAn?$AAi?$AAt?$AAi?$AAa?$AAl?$AA?5?$AAV?$AAa?$AAl@| DCB "T"
	DCB	0x0, "u", 0x0, "r", 0x0, "n", 0x0, "O", 0x0, "f", 0x0, "U"
	DCB	0x0, "S", 0x0, "B", 0x0, "H", 0x0, "o", 0x0, "s", 0x0, "t"
	DCB	0x0, "C", 0x0, "l", 0x0, "o", 0x0, "c", 0x0, "k", 0x0, "s"
	DCB	0x0, ":", 0x0, " ", 0x0, "I", 0x0, "n", 0x0, "i", 0x0, "t"
	DCB	0x0, "i", 0x0, "a", 0x0, "l", 0x0, " ", 0x0, "V", 0x0, "a"
	DCB	0x0, "l", 0x0, "u", 0x0, "e", 0x0, "s", 0x0, ":", 0x0, " "
	DCB	0x0, "c", 0x0, "c", 0x0, "c", 0x0, "r", 0x0, ":", 0x0, " "
	DCB	0x0, "%", 0x0, "0", 0x0, "8", 0x0, "x", 0x0, " ", 0x0, "c"
	DCB	0x0, "k", 0x0, "e", 0x0, "n", 0x0, ":", 0x0, " ", 0x0, "%"
	DCB	0x0, "0", 0x0, "8", 0x0, "x", 0x0, " ", 0x0, "o", 0x0, "s"
	DCB	0x0, "c", 0x0, "c", 0x0, ":", 0x0, " ", 0x0, "%", 0x0, "0"
	DCB	0x0, "8", 0x0, "x", 0x0, " ", 0x0, "c", 0x0, "c", 0x0, "s"
	DCB	0x0, "r", 0x0, ":", 0x0, " ", 0x0, "%", 0x0, "0", 0x0, "8"
	DCB	0x0, "x", 0x0, 0xa, 0x0, 0xd, 0x0, 0x0, 0x0 ; `string'
; Function compile flags: /Odtp

  0123c			 AREA	 |.text|, CODE, ARM

  0123c		 |?TurnOffUSBHostClocks@SOhcdPdd@@QAAXXZ| PROC ; SOhcdPdd::TurnOffUSBHostClocks

; 303  : {

  0123c		 |$LN9@TurnOffUSB|
  0123c	e1a0c00d	 mov         r12, sp
  01240	e92d0001	 stmdb       sp!, {r0}
  01244	e92d5000	 stmdb       sp!, {r12, lr}
  01248	e24dd018	 sub         sp, sp, #0x18
  0124c		 |$M39077|

; 304  :     // The clock enable bit for the USB Host OHCI block in Bulverde
; 305  :     // is bit number 20.
; 306  :     DEBUGMSG(ZONE_INIT,(TEXT("TurnOfUSBHostClocks: Initial Values: cccr: %08x cken: %08x oscc: %08x ccsr: %08x\n\r"), m_pDCCLKReg->cccr, m_pDCCLKReg->cken, m_pDCCLKReg->oscc, m_pDCCLKReg->ccsr));

  0124c	e59f312c	 ldr         r3, [pc, #0x12C]
  01250	e5933440	 ldr         r3, [r3, #0x440]
  01254	e3130002	 tst         r3, #2
  01258	0a000018	 beq         |$LN3@TurnOffUSB|
  0125c	e59d3020	 ldr         r3, [sp, #0x20]
  01260	e283301c	 add         r3, r3, #0x1C
  01264	e5933000	 ldr         r3, [r3]
  01268	e283300c	 add         r3, r3, #0xC
  0126c	e5933000	 ldr         r3, [r3]
  01270	e58d3000	 str         r3, [sp]
  01274	e59d3020	 ldr         r3, [sp, #0x20]
  01278	e283301c	 add         r3, r3, #0x1C
  0127c	e5933000	 ldr         r3, [r3]
  01280	e2833008	 add         r3, r3, #8
  01284	e5933000	 ldr         r3, [r3]
  01288	e59d2020	 ldr         r2, [sp, #0x20]
  0128c	e282201c	 add         r2, r2, #0x1C
  01290	e5922000	 ldr         r2, [r2]
  01294	e2822004	 add         r2, r2, #4
  01298	e5922000	 ldr         r2, [r2]
  0129c	e59d1020	 ldr         r1, [sp, #0x20]
  012a0	e281101c	 add         r1, r1, #0x1C
  012a4	e5911000	 ldr         r1, [r1]
  012a8	e5911000	 ldr         r1, [r1]
  012ac	e59f00d0	 ldr         r0, [pc, #0xD0]
  012b0	eb000000	 bl          NKDbgPrintfW
  012b4	e3a03001	 mov         r3, #1
  012b8	e58d300c	 str         r3, [sp, #0xC]
  012bc	ea000001	 b           |$LN4@TurnOffUSB|
  012c0		 |$LN3@TurnOffUSB|
  012c0	e3a03000	 mov         r3, #0
  012c4	e58d300c	 str         r3, [sp, #0xC]
  012c8		 |$LN4@TurnOffUSB|

; 307  :     m_pDCCLKReg->cken &= ~XLLP_CLKEN_USBHOST;

  012c8	e59d3020	 ldr         r3, [sp, #0x20]
  012cc	e283301c	 add         r3, r3, #0x1C
  012d0	e5933000	 ldr         r3, [r3]
  012d4	e2833004	 add         r3, r3, #4
  012d8	e58d3010	 str         r3, [sp, #0x10]
  012dc	e59d3010	 ldr         r3, [sp, #0x10]
  012e0	e5932000	 ldr         r2, [r3]
  012e4	e3e03b01	 mvn         r3, #1, 22
  012e8	e0022003	 and         r2, r2, r3
  012ec	e59d3010	 ldr         r3, [sp, #0x10]
  012f0	e5832000	 str         r2, [r3]

; 308  :     DEBUGMSG(ZONE_INIT,(TEXT("TurnOfUSBHostClocks: Final   Values: cccr: %08x cken: %08x oscc: %08x ccsr: %08x\n\r"), m_pDCCLKReg->cccr, m_pDCCLKReg->cken, m_pDCCLKReg->oscc, m_pDCCLKReg->ccsr));

  012f4	e59f3084	 ldr         r3, [pc, #0x84]
  012f8	e5933440	 ldr         r3, [r3, #0x440]
  012fc	e3130002	 tst         r3, #2
  01300	0a000018	 beq         |$LN5@TurnOffUSB|
  01304	e59d3020	 ldr         r3, [sp, #0x20]
  01308	e283301c	 add         r3, r3, #0x1C
  0130c	e5933000	 ldr         r3, [r3]
  01310	e283300c	 add         r3, r3, #0xC
  01314	e5933000	 ldr         r3, [r3]
  01318	e58d3000	 str         r3, [sp]
  0131c	e59d3020	 ldr         r3, [sp, #0x20]
  01320	e283301c	 add         r3, r3, #0x1C
  01324	e5933000	 ldr         r3, [r3]
  01328	e2833008	 add         r3, r3, #8
  0132c	e5933000	 ldr         r3, [r3]
  01330	e59d2020	 ldr         r2, [sp, #0x20]
  01334	e282201c	 add         r2, r2, #0x1C
  01338	e5922000	 ldr         r2, [r2]
  0133c	e2822004	 add         r2, r2, #4
  01340	e5922000	 ldr         r2, [r2]
  01344	e59d1020	 ldr         r1, [sp, #0x20]
  01348	e281101c	 add         r1, r1, #0x1C
  0134c	e5911000	 ldr         r1, [r1]
  01350	e5911000	 ldr         r1, [r1]
  01354	e59f0020	 ldr         r0, [pc, #0x20]
  01358	eb000000	 bl          NKDbgPrintfW
  0135c	e3a03001	 mov         r3, #1
  01360	e58d3014	 str         r3, [sp, #0x14]
  01364	ea000001	 b           |$LN6@TurnOffUSB|
  01368		 |$LN5@TurnOffUSB|
  01368	e3a03000	 mov         r3, #0
  0136c	e58d3014	 str         r3, [sp, #0x14]
  01370		 |$LN6@TurnOffUSB|

; 309  : }

  01370	e28dd018	 add         sp, sp, #0x18
  01374	e89d6000	 ldmia       sp, {sp, lr}
  01378	e12fff1e	 bx          lr
  0137c		 |$LN10@TurnOffUSB|
  0137c		 |$LN11@TurnOffUSB|
  0137c	00000000	 DCD         |??_C@_1KG@LDILKOP@?$AAT?$AAu?$AAr?$AAn?$AAO?$AAf?$AAU?$AAS?$AAB?$AAH?$AAo?$AAs?$AAt?$AAC?$AAl?$AAo?$AAc?$AAk?$AAs?$AA?3?$AA?5?$AAF?$AAi?$AAn?$AAa?$AAl?$AA?5?$AA?5?$AA?5?$AAV?$AAa?$AAl@|
  01380		 |$LN12@TurnOffUSB|
  01380	00000000	 DCD         |dpCurSettings|
  01384		 |$LN13@TurnOffUSB|
  01384	00000000	 DCD         |??_C@_1KG@IEMLLDCI@?$AAT?$AAu?$AAr?$AAn?$AAO?$AAf?$AAU?$AAS?$AAB?$AAH?$AAo?$AAs?$AAt?$AAC?$AAl?$AAo?$AAc?$AAk?$AAs?$AA?3?$AA?5?$AAI?$AAn?$AAi?$AAt?$AAi?$AAa?$AAl?$AA?5?$AAV?$AAa?$AAl@|
  01388		 |$M39078|

			 ENDP  ; |?TurnOffUSBHostClocks@SOhcdPdd@@QAAXXZ|, SOhcdPdd::TurnOffUSBHostClocks

	EXPORT	|?SelectUSBHOSTPowerManagementMode@SOhcdPdd@@QAAXHHPAH@Z| ; SOhcdPdd::SelectUSBHOSTPowerManagementMode

  00040			 AREA	 |.pdata|, PDATA
|$T39095| DCD	|$LN25@SelectUSBH|
	DCD	0x4000a204
; Function compile flags: /Odtp

  01388			 AREA	 |.text|, CODE, ARM

  01388		 |?SelectUSBHOSTPowerManagementMode@SOhcdPdd@@QAAXHHPAH@Z| PROC ; SOhcdPdd::SelectUSBHOSTPowerManagementMode

; 318  : {

  01388		 |$LN25@SelectUSBH|
  01388	e1a0c00d	 mov         r12, sp
  0138c	e92d000f	 stmdb       sp!, {r0 - r3}
  01390	e92d5000	 stmdb       sp!, {r12, lr}
  01394	e24dd030	 sub         sp, sp, #0x30
  01398		 |$M39092|

; 319  :     switch(Mode) {

  01398	e59d303c	 ldr         r3, [sp, #0x3C]
  0139c	e58d3008	 str         r3, [sp, #8]
  013a0	e59d3008	 ldr         r3, [sp, #8]
  013a4	e3530003	 cmp         r3, #3
  013a8	8a000095	 bhi         |$LN13@SelectUSBH|
  013ac	e59d2008	 ldr         r2, [sp, #8]
  013b0	e1a03102	 mov         r3, r2, lsl #2
  013b4	e083300f	 add         r3, r3, pc
  013b8	e5933004	 ldr         r3, [r3, #4]
  013bc	e08ff003	 add         pc, pc, r3
  013c0		 |$LN18@SelectUSBH|
  013c0		 |$LN17@SelectUSBH|
  013c0		 |$LN19@SelectUSBH|
  013c0	0000000c	 DCD         0xc
  013c4		 |$LN20@SelectUSBH|
  013c4	00000038	 DCD         0x38
  013c8		 |$LN21@SelectUSBH|
  013c8	0000006c	 DCD         0x6c
  013cc		 |$LN22@SelectUSBH|
  013cc	00000128	 DCD         0x128
  013d0		 |$LN12@SelectUSBH|

; 320  :       case XLLP_USBOHCI_PPM_NPS:
; 321  :         // set NO Power Switching mode
; 322  :         m_pDCUSBOHCIReg->uhcrhda |= XLLP_USBOHCI_UHCRHDA_NPS;			

  013d0	e59d3038	 ldr         r3, [sp, #0x38]
  013d4	e2833020	 add         r3, r3, #0x20
  013d8	e5933000	 ldr         r3, [r3]
  013dc	e2833048	 add         r3, r3, #0x48
  013e0	e58d300c	 str         r3, [sp, #0xC]
  013e4	e59d300c	 ldr         r3, [sp, #0xC]
  013e8	e5933000	 ldr         r3, [r3]
  013ec	e3832c02	 orr         r2, r3, #2, 24
  013f0	e59d300c	 ldr         r3, [sp, #0xC]
  013f4	e5832000	 str         r2, [r3]

; 323  :         break;

  013f8	ea000081	 b           |$LN13@SelectUSBH|
  013fc		 |$LN11@SelectUSBH|

; 324  : 
; 325  :       case XLLP_USBOHCI_PPM_GLOBAL:
; 326  :         // make sure the NO Power Switching mode bit is OFF so Power Switching can occur
; 327  :         // make sure the PSM bit is CLEAR, which allows all ports to be controlled with 
; 328  :         // the GLOBAL set and clear power commands
; 329  :         m_pDCUSBOHCIReg->uhcrhda &= ~(XLLP_USBOHCI_UHCRHDA_NPS|XLLP_USBOHCI_UHCRHDA_PSM_PERPORT);

  013fc	e59d3038	 ldr         r3, [sp, #0x38]
  01400	e2833020	 add         r3, r3, #0x20
  01404	e5933000	 ldr         r3, [r3]
  01408	e2833048	 add         r3, r3, #0x48
  0140c	e58d3010	 str         r3, [sp, #0x10]
  01410	e59d3010	 ldr         r3, [sp, #0x10]
  01414	e5932000	 ldr         r2, [r3]
  01418	e3e03c02	 mvn         r3, #2, 24
  0141c	e2233001	 eor         r3, r3, #1
  01420	e0022003	 and         r2, r2, r3
  01424	e59d3010	 ldr         r3, [sp, #0x10]
  01428	e5832000	 str         r2, [r3]

; 330  :         break;

  0142c	ea000074	 b           |$LN13@SelectUSBH|
  01430		 |$LN10@SelectUSBH|

; 331  : 
; 332  :       case XLLP_USBOHCI_PPM_PERPORT:
; 333  :         // make sure the NO Power Switching mode bit is OFF so Power Switching can occur
; 334  :         // make sure the PSM bit is SET, which allows all ports to be controlled with 
; 335  :         // the PER PORT set and clear power commands
; 336  :         m_pDCUSBOHCIReg->uhcrhda &= ~XLLP_USBOHCI_UHCRHDA_NPS;

  01430	e59d3038	 ldr         r3, [sp, #0x38]
  01434	e2833020	 add         r3, r3, #0x20
  01438	e5933000	 ldr         r3, [r3]
  0143c	e2833048	 add         r3, r3, #0x48
  01440	e58d3014	 str         r3, [sp, #0x14]
  01444	e59d3014	 ldr         r3, [sp, #0x14]
  01448	e5932000	 ldr         r2, [r3]
  0144c	e3e03c02	 mvn         r3, #2, 24
  01450	e0022003	 and         r2, r2, r3
  01454	e59d3014	 ldr         r3, [sp, #0x14]
  01458	e5832000	 str         r2, [r3]

; 337  :         m_pDCUSBOHCIReg->uhcrhda |=  XLLP_USBOHCI_UHCRHDA_PSM_PERPORT;

  0145c	e59d3038	 ldr         r3, [sp, #0x38]
  01460	e2833020	 add         r3, r3, #0x20
  01464	e5933000	 ldr         r3, [r3]
  01468	e2833048	 add         r3, r3, #0x48
  0146c	e58d3018	 str         r3, [sp, #0x18]
  01470	e59d3018	 ldr         r3, [sp, #0x18]
  01474	e5933000	 ldr         r3, [r3]
  01478	e3832001	 orr         r2, r3, #1
  0147c	e59d3018	 ldr         r3, [sp, #0x18]
  01480	e5832000	 str         r2, [r3]

; 338  : 
; 339  :         // set the power management mode for each individual port to Per Port.
; 340  :         {
; 341  :             int p;
; 342  : 
; 343  :             for( p = 0; p < NumPorts; p++ ) {

  01484	e3a03000	 mov         r3, #0
  01488	e58d3000	 str         r3, [sp]
  0148c	ea000002	 b           |$LN9@SelectUSBH|
  01490		 |$LN8@SelectUSBH|
  01490	e59d3000	 ldr         r3, [sp]
  01494	e2833001	 add         r3, r3, #1
  01498	e58d3000	 str         r3, [sp]
  0149c		 |$LN9@SelectUSBH|
  0149c	e59d2000	 ldr         r2, [sp]
  014a0	e59d3040	 ldr         r3, [sp, #0x40]
  014a4	e1520003	 cmp         r2, r3
  014a8	aa00000e	 bge         |$LN7@SelectUSBH|

; 344  :                 m_pDCUSBOHCIReg->uhcrhdb |= (unsigned int)( 1u << (p+17) );	// port 1 begins at bit 17

  014ac	e59d3038	 ldr         r3, [sp, #0x38]
  014b0	e2833020	 add         r3, r3, #0x20
  014b4	e5933000	 ldr         r3, [r3]
  014b8	e283304c	 add         r3, r3, #0x4C
  014bc	e58d301c	 str         r3, [sp, #0x1C]
  014c0	e59d3000	 ldr         r3, [sp]
  014c4	e2832011	 add         r2, r3, #0x11
  014c8	e3a03001	 mov         r3, #1
  014cc	e1a02213	 mov         r2, r3, lsl r2
  014d0	e59d301c	 ldr         r3, [sp, #0x1C]
  014d4	e5933000	 ldr         r3, [r3]
  014d8	e1832002	 orr         r2, r3, r2
  014dc	e59d301c	 ldr         r3, [sp, #0x1C]
  014e0	e5832000	 str         r2, [r3]

; 345  :             }

  014e4	eaffffe9	 b           |$LN8@SelectUSBH|
  014e8		 |$LN7@SelectUSBH|

; 346  :         }
; 347  : 
; 348  :         break;

  014e8	ea000045	 b           |$LN13@SelectUSBH|
  014ec		 |$LN6@SelectUSBH|

; 349  : 
; 350  :       case XLLP_USBOHCI_PPM_MIXED:
; 351  :         // make sure the NO Power Switching mode bit is OFF so Power Switching can occur
; 352  :         // make sure the PSM bit is SET, which allows all ports to be controlled with 
; 353  :         // the PER PORT set and clear power commands
; 354  :         m_pDCUSBOHCIReg->uhcrhda &= ~XLLP_USBOHCI_UHCRHDA_NPS;

  014ec	e59d3038	 ldr         r3, [sp, #0x38]
  014f0	e2833020	 add         r3, r3, #0x20
  014f4	e5933000	 ldr         r3, [r3]
  014f8	e2833048	 add         r3, r3, #0x48
  014fc	e58d3020	 str         r3, [sp, #0x20]
  01500	e59d3020	 ldr         r3, [sp, #0x20]
  01504	e5932000	 ldr         r2, [r3]
  01508	e3e03c02	 mvn         r3, #2, 24
  0150c	e0022003	 and         r2, r2, r3
  01510	e59d3020	 ldr         r3, [sp, #0x20]
  01514	e5832000	 str         r2, [r3]

; 355  :         m_pDCUSBOHCIReg->uhcrhda |=  XLLP_USBOHCI_UHCRHDA_PSM_PERPORT;

  01518	e59d3038	 ldr         r3, [sp, #0x38]
  0151c	e2833020	 add         r3, r3, #0x20
  01520	e5933000	 ldr         r3, [r3]
  01524	e2833048	 add         r3, r3, #0x48
  01528	e58d3024	 str         r3, [sp, #0x24]
  0152c	e59d3024	 ldr         r3, [sp, #0x24]
  01530	e5933000	 ldr         r3, [r3]
  01534	e3832001	 orr         r2, r3, #1
  01538	e59d3024	 ldr         r3, [sp, #0x24]
  0153c	e5832000	 str         r2, [r3]

; 356  : 
; 357  :         // set the power management mode for each individual port to Per Port.
; 358  :         // if the value in the PortMode array is non-zero, set Per Port mode for the port.
; 359  :         // if the value in the PortMode array is zero, set Global mode for the port
; 360  :         {
; 361  :         int		p;
; 362  : 
; 363  :         for( p = 0; p < NumPorts; p++ ) {

  01540	e3a03000	 mov         r3, #0
  01544	e58d3004	 str         r3, [sp, #4]
  01548	ea000002	 b           |$LN5@SelectUSBH|
  0154c		 |$LN4@SelectUSBH|
  0154c	e59d3004	 ldr         r3, [sp, #4]
  01550	e2833001	 add         r3, r3, #1
  01554	e58d3004	 str         r3, [sp, #4]
  01558		 |$LN5@SelectUSBH|
  01558	e59d2004	 ldr         r2, [sp, #4]
  0155c	e59d3040	 ldr         r3, [sp, #0x40]
  01560	e1520003	 cmp         r2, r3
  01564	aa000026	 bge         |$LN3@SelectUSBH|

; 364  :             if( PortMode[p] ) {

  01568	e59d1004	 ldr         r1, [sp, #4]
  0156c	e3a03004	 mov         r3, #4
  01570	e0020391	 mul         r2, r1, r3
  01574	e59d3044	 ldr         r3, [sp, #0x44]
  01578	e0833002	 add         r3, r3, r2
  0157c	e5933000	 ldr         r3, [r3]
  01580	e3530000	 cmp         r3, #0
  01584	0a00000e	 beq         |$LN2@SelectUSBH|

; 365  :                 m_pDCUSBOHCIReg->uhcrhdb |= (unsigned int)( 1u << (p+17) );	// port 1 begins at bit 17

  01588	e59d3038	 ldr         r3, [sp, #0x38]
  0158c	e2833020	 add         r3, r3, #0x20
  01590	e5933000	 ldr         r3, [r3]
  01594	e283304c	 add         r3, r3, #0x4C
  01598	e58d3028	 str         r3, [sp, #0x28]
  0159c	e59d3004	 ldr         r3, [sp, #4]
  015a0	e2832011	 add         r2, r3, #0x11
  015a4	e3a03001	 mov         r3, #1
  015a8	e1a02213	 mov         r2, r3, lsl r2
  015ac	e59d3028	 ldr         r3, [sp, #0x28]
  015b0	e5933000	 ldr         r3, [r3]
  015b4	e1832002	 orr         r2, r3, r2
  015b8	e59d3028	 ldr         r3, [sp, #0x28]
  015bc	e5832000	 str         r2, [r3]

; 366  :             }
; 367  :             else   {

  015c0	ea00000e	 b           |$LN1@SelectUSBH|
  015c4		 |$LN2@SelectUSBH|

; 368  :                 m_pDCUSBOHCIReg->uhcrhdb &= ~(unsigned int)( 1u << (p+17) );	// port 1 begins at bit 17

  015c4	e59d3038	 ldr         r3, [sp, #0x38]
  015c8	e2833020	 add         r3, r3, #0x20
  015cc	e5933000	 ldr         r3, [r3]
  015d0	e283304c	 add         r3, r3, #0x4C
  015d4	e58d302c	 str         r3, [sp, #0x2C]
  015d8	e59d3004	 ldr         r3, [sp, #4]
  015dc	e2832011	 add         r2, r3, #0x11
  015e0	e3a03001	 mov         r3, #1
  015e4	e1a03213	 mov         r3, r3, lsl r2
  015e8	e1e02003	 mvn         r2, r3
  015ec	e59d302c	 ldr         r3, [sp, #0x2C]
  015f0	e5933000	 ldr         r3, [r3]
  015f4	e0032002	 and         r2, r3, r2
  015f8	e59d302c	 ldr         r3, [sp, #0x2C]
  015fc	e5832000	 str         r2, [r3]
  01600		 |$LN1@SelectUSBH|

; 369  :             }
; 370  : 
; 371  :             }

  01600	eaffffd1	 b           |$LN4@SelectUSBH|
  01604		 |$LN3@SelectUSBH|
  01604		 |$LN13@SelectUSBH|

; 372  :         }
; 373  : 
; 374  :         break;
; 375  :     }
; 376  : }

  01604	e28dd030	 add         sp, sp, #0x30
  01608	e89d6000	 ldmia       sp, {sp, lr}
  0160c	e12fff1e	 bx          lr
  01610		 |$M39093|

			 ENDP  ; |?SelectUSBHOSTPowerManagementMode@SOhcdPdd@@QAAXHHPAH@Z|, SOhcdPdd::SelectUSBHOSTPowerManagementMode

	EXPORT	|??_C@_1GI@EHBKOCKA@?$AAS?$AAO?$AAh?$AAc?$AAd?$AAP?$AAd?$AAd?$AA?3?$AA?3?$AAI?$AAn?$AAi?$AAt?$AAi?$AAa?$AAt?$AAe?$AAP?$AAo?$AAw?$AAe?$AAr?$AAU?$AAp?$AA?3?$AA?5?$AAm?$AA_?$AAp?$AAD?$AAC@| [ DATA ] ; `string'

  00048			 AREA	 |.pdata|, PDATA
|$T39103| DCD	|$LN7@InitiatePo|
	DCD	0x40004804

  00000			 AREA	 |.rdata|, DATA, READONLY
|??_C@_1GI@EHBKOCKA@?$AAS?$AAO?$AAh?$AAc?$AAd?$AAP?$AAd?$AAd?$AA?3?$AA?3?$AAI?$AAn?$AAi?$AAt?$AAi?$AAa?$AAt?$AAe?$AAP?$AAo?$AAw?$AAe?$AAr?$AAU?$AAp?$AA?3?$AA?5?$AAm?$AA_?$AAp?$AAD?$AAC@| DCB "S"
	DCB	0x0, "O", 0x0, "h", 0x0, "c", 0x0, "d", 0x0, "P", 0x0, "d"
	DCB	0x0, "d", 0x0, ":", 0x0, ":", 0x0, "I", 0x0, "n", 0x0, "i"
	DCB	0x0, "t", 0x0, "i", 0x0, "a", 0x0, "t", 0x0, "e", 0x0, "P"
	DCB	0x0, "o", 0x0, "w", 0x0, "e", 0x0, "r", 0x0, "U", 0x0, "p"
	DCB	0x0, ":", 0x0, " ", 0x0, "m", 0x0, "_", 0x0, "p", 0x0, "D"
	DCB	0x0, "C", 0x0, "U", 0x0, "S", 0x0, "B", 0x0, "O", 0x0, "H"
	DCB	0x0, "C", 0x0, "I", 0x0, "R", 0x0, "e", 0x0, "g", 0x0, ":"
	DCB	0x0, " ", 0x0, "%", 0x0, "0", 0x0, "8", 0x0, "x", 0x0, "."
	DCB	0x0, 0xd, 0x0, 0xa, 0x0, 0x0, 0x0	; `string'
; Function compile flags: /Odtp

  01610			 AREA	 |.text|, CODE, ARM

  01610		 |?InitiatePowerUp@SOhcdPdd@@UAAKXZ| PROC ; SOhcdPdd::InitiatePowerUp

; 384  : {

  01610		 |$LN7@InitiatePo|
  01610	e1a0c00d	 mov         r12, sp
  01614	e92d0001	 stmdb       sp!, {r0}
  01618	e92d5000	 stmdb       sp!, {r12, lr}
  0161c	e24dd008	 sub         sp, sp, #8
  01620		 |$M39100|

; 385  :     DEBUGMSG(ZONE_INIT,(TEXT("SOhcdPdd::InitiatePowerUp: m_pDCUSBOHCIReg: %08x.\r\n"), m_pDCUSBOHCIReg));

  01620	e59f3104	 ldr         r3, [pc, #0x104]
  01624	e5933440	 ldr         r3, [r3, #0x440]
  01628	e3130002	 tst         r3, #2
  0162c	0a000007	 beq         |$LN3@InitiatePo|
  01630	e59d3010	 ldr         r3, [sp, #0x10]
  01634	e2833020	 add         r3, r3, #0x20
  01638	e5931000	 ldr         r1, [r3]
  0163c	e59f00e4	 ldr         r0, [pc, #0xE4]
  01640	eb000000	 bl          NKDbgPrintfW
  01644	e3a03001	 mov         r3, #1
  01648	e58d3004	 str         r3, [sp, #4]
  0164c	ea000001	 b           |$LN4@InitiatePo|
  01650		 |$LN3@InitiatePo|
  01650	e3a03000	 mov         r3, #0
  01654	e58d3004	 str         r3, [sp, #4]
  01658		 |$LN4@InitiatePo|

; 386  : 
; 387  : 
; 388  :     TurnOnUSBHostClocks();	// make sure the ohci block is running (eg. getting clocked)

  01658	e59d0010	 ldr         r0, [sp, #0x10]
  0165c	eb000000	 bl          |?TurnOnUSBHostClocks@SOhcdPdd@@QAAXXZ|

; 389  :     // Port 1
; 390  :     SetupUSBHostPWR(1);		// this sets up Pwr 1 notification using gpio 88 as input in alternate function 1 mode

  01660	e3a01001	 mov         r1, #1
  01664	e59d3010	 ldr         r3, [sp, #0x10]
  01668	e5933000	 ldr         r3, [r3]
  0166c	e283300c	 add         r3, r3, #0xC
  01670	e59d0010	 ldr         r0, [sp, #0x10]
  01674	e5933000	 ldr         r3, [r3]
  01678	e1a0e00f	 mov         lr, pc
  0167c	e12fff13	 bx          r3

; 391  :     SetupUSBHostPEN(1);		// this sets up Pwr 1 enable using gpio 89 as output in alternate function 2 mode

  01680	e3a01001	 mov         r1, #1
  01684	e59d3010	 ldr         r3, [sp, #0x10]
  01688	e5933000	 ldr         r3, [r3]
  0168c	e2833010	 add         r3, r3, #0x10
  01690	e59d0010	 ldr         r0, [sp, #0x10]
  01694	e5933000	 ldr         r3, [r3]
  01698	e1a0e00f	 mov         lr, pc
  0169c	e12fff13	 bx          r3

; 392  :     // Port 2
; 393  :     SetupUSBHostPWR(2);		// this sets up Pwr 2 notification using gpio 88 as input in alternate function 1 mode

  016a0	e3a01002	 mov         r1, #2
  016a4	e59d3010	 ldr         r3, [sp, #0x10]
  016a8	e5933000	 ldr         r3, [r3]
  016ac	e283300c	 add         r3, r3, #0xC
  016b0	e59d0010	 ldr         r0, [sp, #0x10]
  016b4	e5933000	 ldr         r3, [r3]
  016b8	e1a0e00f	 mov         lr, pc
  016bc	e12fff13	 bx          r3

; 394  :     SetupUSBHostPEN(2);		// this sets up Pwr 2 enable using gpio 89 as output in alternate function 2 mode

  016c0	e3a01002	 mov         r1, #2
  016c4	e59d3010	 ldr         r3, [sp, #0x10]
  016c8	e5933000	 ldr         r3, [r3]
  016cc	e2833010	 add         r3, r3, #0x10
  016d0	e59d0010	 ldr         r0, [sp, #0x10]
  016d4	e5933000	 ldr         r3, [r3]
  016d8	e1a0e00f	 mov         lr, pc
  016dc	e12fff13	 bx          r3

; 395  :     
; 396  :     //TurnOnUSBHostPorts();	// probably only do this after the rest of the ohci is set up.
; 397  :     //TestUSBHostPEN(0);
; 398  :     SelectUSBHOSTPowerManagementMode( XLLP_USBOHCI_PPM_NPS, 0, 0 );

  016e0	e3a03000	 mov         r3, #0
  016e4	e3a02000	 mov         r2, #0
  016e8	e3a01000	 mov         r1, #0
  016ec	e59d0010	 ldr         r0, [sp, #0x10]
  016f0	eb000000	 bl          |?SelectUSBHOSTPowerManagementMode@SOhcdPdd@@QAAXHHPAH@Z|

; 399  :     
; 400  :     OHCI_Reset();

  016f4	e59d3010	 ldr         r3, [sp, #0x10]
  016f8	e5933000	 ldr         r3, [r3]
  016fc	e2833018	 add         r3, r3, #0x18
  01700	e59d0010	 ldr         r0, [sp, #0x10]
  01704	e5933000	 ldr         r3, [r3]
  01708	e1a0e00f	 mov         lr, pc
  0170c	e12fff13	 bx          r3

; 401  :     return 0;

  01710	e3a03000	 mov         r3, #0
  01714	e58d3000	 str         r3, [sp]

; 402  : }

  01718	e59d0000	 ldr         r0, [sp]
  0171c	e28dd008	 add         sp, sp, #8
  01720	e89d6000	 ldmia       sp, {sp, lr}
  01724	e12fff1e	 bx          lr
  01728		 |$LN8@InitiatePo|
  01728		 |$LN9@InitiatePo|
  01728	00000000	 DCD         |??_C@_1GI@EHBKOCKA@?$AAS?$AAO?$AAh?$AAc?$AAd?$AAP?$AAd?$AAd?$AA?3?$AA?3?$AAI?$AAn?$AAi?$AAt?$AAi?$AAa?$AAt?$AAe?$AAP?$AAo?$AAw?$AAe?$AAr?$AAU?$AAp?$AA?3?$AA?5?$AAm?$AA_?$AAp?$AAD?$AAC@|
  0172c		 |$LN10@InitiatePo|
  0172c	00000000	 DCD         |dpCurSettings|
  01730		 |$M39101|

			 ENDP  ; |?InitiatePowerUp@SOhcdPdd@@UAAKXZ|, SOhcdPdd::InitiatePowerUp

	IMPORT	|HcdMdd_PowerUp|

  00050			 AREA	 |.pdata|, PDATA
|$T39111| DCD	|$LN5@PowerUp|
	DCD	0x40000903
; Function compile flags: /Odtp

  01730			 AREA	 |.text|, CODE, ARM

  01730		 |?PowerUp@SOhcdPdd@@UAAXXZ| PROC	; SOhcdPdd::PowerUp

; 404  : {

  01730		 |$LN5@PowerUp|
  01730	e1a0c00d	 mov         r12, sp
  01734	e92d0001	 stmdb       sp!, {r0}
  01738	e92d5000	 stmdb       sp!, {r12, lr}
  0173c		 |$M39108|

; 405  :     HcdMdd_PowerUp(m_pobOhcd);

  0173c	e59d3008	 ldr         r3, [sp, #8]
  01740	e2833054	 add         r3, r3, #0x54
  01744	e5930000	 ldr         r0, [r3]
  01748	eb000000	 bl          HcdMdd_PowerUp

; 406  : }

  0174c	e89d6000	 ldmia       sp, {sp, lr}
  01750	e12fff1e	 bx          lr
  01754		 |$M39109|

			 ENDP  ; |?PowerUp@SOhcdPdd@@UAAXXZ|, SOhcdPdd::PowerUp

	IMPORT	|HcdMdd_PowerDown|

  00058			 AREA	 |.pdata|, PDATA
|$T39116| DCD	|$LN5@PowerDown|
	DCD	0x40002004
; Function compile flags: /Odtp

  01754			 AREA	 |.text|, CODE, ARM

  01754		 |?PowerDown@SOhcdPdd@@UAAXXZ| PROC	; SOhcdPdd::PowerDown

; 409  : {

  01754		 |$LN5@PowerDown|
  01754	e1a0c00d	 mov         r12, sp
  01758	e92d0001	 stmdb       sp!, {r0}
  0175c	e92d5000	 stmdb       sp!, {r12, lr}
  01760	e24dd008	 sub         sp, sp, #8
  01764		 |$M39113|

; 410  : 
; 411  :     // let the MDD do its processing (including putting the HC into reset)
; 412  :     HcdMdd_PowerDown(m_pobOhcd);

  01764	e59d3010	 ldr         r3, [sp, #0x10]
  01768	e2833054	 add         r3, r3, #0x54
  0176c	e5930000	 ldr         r0, [r3]
  01770	eb000000	 bl          HcdMdd_PowerDown

; 413  : 
; 414  :     // disable the USB port as described in section 6.1.4.4 of the SA-1111 companion
; 415  :     // chip documentation:
; 416  :     // (1) Reset HC (done by MDD)
; 417  :     // (2) wait 10 us
; 418  :     // (3) clear global power enable bit
; 419  :     // (4) set the standby enable bit
; 420  :     // (5) stop the usb clock
; 421  :     //usWait(10);                     // must not block or do operations illegal in interrupt context
; 422  :     m_pDCUSBOHCIReg->uhcrhda &= ~ ((1 << 8) | (1 << 9));     // set global power switch mode

  01774	e59d3010	 ldr         r3, [sp, #0x10]
  01778	e2833020	 add         r3, r3, #0x20
  0177c	e5933000	 ldr         r3, [r3]
  01780	e2833048	 add         r3, r3, #0x48
  01784	e58d3000	 str         r3, [sp]
  01788	e59d3000	 ldr         r3, [sp]
  0178c	e5932000	 ldr         r2, [r3]
  01790	e3e03c03	 mvn         r3, #3, 24
  01794	e0022003	 and         r2, r2, r3
  01798	e59d3000	 ldr         r3, [sp]
  0179c	e5832000	 str         r2, [r3]

; 423  :     m_pDCUSBOHCIReg->uhcrhs |= 0x0001;                   // clear global power

  017a0	e59d3010	 ldr         r3, [sp, #0x10]
  017a4	e2833020	 add         r3, r3, #0x20
  017a8	e5933000	 ldr         r3, [r3]
  017ac	e2833050	 add         r3, r3, #0x50
  017b0	e58d3004	 str         r3, [sp, #4]
  017b4	e59d3004	 ldr         r3, [sp, #4]
  017b8	e5933000	 ldr         r3, [r3]
  017bc	e3832001	 orr         r2, r3, #1
  017c0	e59d3004	 ldr         r3, [sp, #4]
  017c4	e5832000	 str         r2, [r3]

; 424  : };

  017c8	e28dd008	 add         sp, sp, #8
  017cc	e89d6000	 ldmia       sp, {sp, lr}
  017d0	e12fff1e	 bx          lr
  017d4		 |$M39114|

			 ENDP  ; |?PowerDown@SOhcdPdd@@UAAXXZ|, SOhcdPdd::PowerDown

	EXPORT	|HcdPdd_DllMain|

  00060			 AREA	 |.pdata|, PDATA
|$T39122| DCD	|$LN5@HcdPdd_Dll|
	DCD	0x40000a04
; Function compile flags: /Odtp

  017d4			 AREA	 |.text|, CODE, ARM

  017d4		 |HcdPdd_DllMain| PROC

; 434  : {

  017d4		 |$LN5@HcdPdd_Dll|
  017d4	e1a0c00d	 mov         r12, sp
  017d8	e92d0007	 stmdb       sp!, {r0 - r2}
  017dc	e92d5000	 stmdb       sp!, {r12, lr}
  017e0	e24dd004	 sub         sp, sp, #4
  017e4		 |$M39119|

; 435  :     return TRUE;

  017e4	e3a03001	 mov         r3, #1
  017e8	e58d3000	 str         r3, [sp]

; 436  : }

  017ec	e59d0000	 ldr         r0, [sp]
  017f0	e28dd004	 add         sp, sp, #4
  017f4	e89d6000	 ldmia       sp, {sp, lr}
  017f8	e12fff1e	 bx          lr
  017fc		 |$M39120|

			 ENDP  ; |HcdPdd_DllMain|

	EXPORT	|HcdPdd_InitiatePowerUp|

  00068			 AREA	 |.pdata|, PDATA
|$T39127| DCD	|$LN6@HcdPdd_Ini|
	DCD	0x40001304
; Function compile flags: /Odtp

  017fc			 AREA	 |.text|, CODE, ARM

  017fc		 |HcdPdd_InitiatePowerUp| PROC

; 439  : {

  017fc		 |$LN6@HcdPdd_Ini|
  017fc	e1a0c00d	 mov         r12, sp
  01800	e92d0001	 stmdb       sp!, {r0}
  01804	e92d5000	 stmdb       sp!, {r12, lr}
  01808	e24dd004	 sub         sp, sp, #4
  0180c		 |$M39124|

; 440  :     SOhcdPdd * pPddObject = (SOhcdPdd *)hDeviceContext;

  0180c	e59d300c	 ldr         r3, [sp, #0xC]
  01810	e58d3000	 str         r3, [sp]

; 441  :     if (pPddObject)

  01814	e59d3000	 ldr         r3, [sp]
  01818	e3530000	 cmp         r3, #0
  0181c	0a000006	 beq         |$LN1@HcdPdd_Ini|

; 442  :         pPddObject->InitiatePowerUp();

  01820	e59d3000	 ldr         r3, [sp]
  01824	e5933000	 ldr         r3, [r3]
  01828	e283302c	 add         r3, r3, #0x2C
  0182c	e59d0000	 ldr         r0, [sp]
  01830	e5933000	 ldr         r3, [r3]
  01834	e1a0e00f	 mov         lr, pc
  01838	e12fff13	 bx          r3
  0183c		 |$LN1@HcdPdd_Ini|

; 443  :     
; 444  :     return;
; 445  : }

  0183c	e28dd004	 add         sp, sp, #4
  01840	e89d6000	 ldmia       sp, {sp, lr}
  01844	e12fff1e	 bx          lr
  01848		 |$M39125|

			 ENDP  ; |HcdPdd_InitiatePowerUp|

	EXPORT	|??_C@_1GM@CNBIDP@?$AAH?$AAc?$AAd?$AAP?$AAd?$AAd?$AA_?$AAI?$AAn?$AAi?$AAt?$AA?3?$AA?5?$AAC?$AAh?$AAe?$AAc?$AAk?$AAi?$AAn?$AAg?$AA?5?$AAS?$AAW?$AA1?$AA8?$AA?5?$AA?9?$AA?5?$AAc?$AAo?$AAn@| [ DATA ] ; `string'
	EXPORT	|HcdPdd_Init|
	IMPORT	|?CreateBulverdeOhci@@YAPAVSOhcdPdd@@PBG@Z| ; CreateBulverdeOhci

  00070			 AREA	 |.pdata|, PDATA
|$T39139| DCD	|$LN11@HcdPdd_Ini@2|
	DCD	0x40004504

  00000			 AREA	 |.rdata|, DATA, READONLY
|??_C@_1GM@CNBIDP@?$AAH?$AAc?$AAd?$AAP?$AAd?$AAd?$AA_?$AAI?$AAn?$AAi?$AAt?$AA?3?$AA?5?$AAC?$AAh?$AAe?$AAc?$AAk?$AAi?$AAn?$AAg?$AA?5?$AAS?$AAW?$AA1?$AA8?$AA?5?$AA?9?$AA?5?$AAc?$AAo?$AAn@| DCB "H"
	DCB	0x0, "c", 0x0, "d", 0x0, "P", 0x0, "d", 0x0, "d", 0x0, "_"
	DCB	0x0, "I", 0x0, "n", 0x0, "i", 0x0, "t", 0x0, ":", 0x0, " "
	DCB	0x0, "C", 0x0, "h", 0x0, "e", 0x0, "c", 0x0, "k", 0x0, "i"
	DCB	0x0, "n", 0x0, "g", 0x0, " ", 0x0, "S", 0x0, "W", 0x0, "1"
	DCB	0x0, "8", 0x0, " ", 0x0, "-", 0x0, " ", 0x0, "c", 0x0, "o"
	DCB	0x0, "n", 0x0, "t", 0x0, "r", 0x0, "o", 0x0, "l", 0x0, "s"
	DCB	0x0, " ", 0x0, "O", 0x0, "H", 0x0, "C", 0x0, "I", 0x0, " "
	DCB	0x0, "l", 0x0, "o", 0x0, "a", 0x0, "d", 0x0, "i", 0x0, "n"
	DCB	0x0, "g", 0x0, ".", 0x0, 0xd, 0x0, 0xa, 0x0, 0x0, 0x0 ; `string'
; Function compile flags: /Odtp

  01848			 AREA	 |.text|, CODE, ARM

  01848		 |HcdPdd_Init| PROC

; 459  : {

  01848		 |$LN11@HcdPdd_Ini@2|
  01848	e1a0c00d	 mov         r12, sp
  0184c	e92d0001	 stmdb       sp!, {r0}
  01850	e92d5000	 stmdb       sp!, {r12, lr}
  01854	e24dd024	 sub         sp, sp, #0x24
  01858		 |$M39136|

; 460  :     SOhcdPdd *  pPddObject = CreateBulverdeOhci((LPCTSTR)dwContext);

  01858	e59d002c	 ldr         r0, [sp, #0x2C]
  0185c	eb000000	 bl          |?CreateBulverdeOhci@@YAPAVSOhcdPdd@@PBG@Z|
  01860	e58d0010	 str         r0, [sp, #0x10]
  01864	e59d3010	 ldr         r3, [sp, #0x10]
  01868	e58d3000	 str         r3, [sp]

; 461  : 
; 462  :     if (pPddObject && pPddObject->Init()) {

  0186c	e59d3000	 ldr         r3, [sp]
  01870	e3530000	 cmp         r3, #0
  01874	0a000018	 beq         |$LN2@HcdPdd_Ini@2|
  01878	e59d3000	 ldr         r3, [sp]
  0187c	e5933000	 ldr         r3, [r3]
  01880	e2833008	 add         r3, r3, #8
  01884	e59d0000	 ldr         r0, [sp]
  01888	e5933000	 ldr         r3, [r3]
  0188c	e1a0e00f	 mov         lr, pc
  01890	e12fff13	 bx          r3
  01894	e58d0014	 str         r0, [sp, #0x14]
  01898	e59d3014	 ldr         r3, [sp, #0x14]
  0189c	e3530000	 cmp         r3, #0
  018a0	0a00000d	 beq         |$LN2@HcdPdd_Ini@2|

; 463  :         DEBUGMSG(ZONE_INIT, (TEXT("HcdPdd_Init: Checking SW18 - controls OHCI loading.\r\n")));

  018a4	e59f30ac	 ldr         r3, [pc, #0xAC]
  018a8	e5933440	 ldr         r3, [r3, #0x440]
  018ac	e3130002	 tst         r3, #2
  018b0	0a000004	 beq         |$LN5@HcdPdd_Ini@2|
  018b4	e59f0098	 ldr         r0, [pc, #0x98]
  018b8	eb000000	 bl          NKDbgPrintfW
  018bc	e3a03001	 mov         r3, #1
  018c0	e58d3018	 str         r3, [sp, #0x18]
  018c4	ea000001	 b           |$LN6@HcdPdd_Ini@2|
  018c8		 |$LN5@HcdPdd_Ini@2|
  018c8	e3a03000	 mov         r3, #0
  018cc	e58d3018	 str         r3, [sp, #0x18]
  018d0		 |$LN6@HcdPdd_Ini@2|

; 464  :         return (DWORD) pPddObject ;

  018d0	e59d3000	 ldr         r3, [sp]
  018d4	e58d300c	 str         r3, [sp, #0xC]
  018d8	ea000019	 b           |$LN3@HcdPdd_Ini@2|
  018dc		 |$LN2@HcdPdd_Ini@2|

; 465  :     }
; 466  :     if (pPddObject)

  018dc	e59d3000	 ldr         r3, [sp]
  018e0	e3530000	 cmp         r3, #0
  018e4	0a000014	 beq         |$LN1@HcdPdd_Ini@2|

; 467  :         delete pPddObject;

  018e8	e59d3000	 ldr         r3, [sp]
  018ec	e58d3008	 str         r3, [sp, #8]
  018f0	e59d3008	 ldr         r3, [sp, #8]
  018f4	e58d3004	 str         r3, [sp, #4]
  018f8	e59d3004	 ldr         r3, [sp, #4]
  018fc	e3530000	 cmp         r3, #0
  01900	0a00000b	 beq         |$LN7@HcdPdd_Ini@2|
  01904	e3a01001	 mov         r1, #1
  01908	e59d3004	 ldr         r3, [sp, #4]
  0190c	e5933000	 ldr         r3, [r3]
  01910	e2833004	 add         r3, r3, #4
  01914	e59d0004	 ldr         r0, [sp, #4]
  01918	e5933000	 ldr         r3, [r3]
  0191c	e1a0e00f	 mov         lr, pc
  01920	e12fff13	 bx          r3
  01924	e58d001c	 str         r0, [sp, #0x1C]
  01928	e59d301c	 ldr         r3, [sp, #0x1C]
  0192c	e58d3020	 str         r3, [sp, #0x20]
  01930	ea000001	 b           |$LN8@HcdPdd_Ini@2|
  01934		 |$LN7@HcdPdd_Ini@2|
  01934	e3a03000	 mov         r3, #0
  01938	e58d3020	 str         r3, [sp, #0x20]
  0193c		 |$LN8@HcdPdd_Ini@2|
  0193c		 |$LN1@HcdPdd_Ini@2|

; 468  :     return (DWORD)NULL;

  0193c	e3a03000	 mov         r3, #0
  01940	e58d300c	 str         r3, [sp, #0xC]
  01944		 |$LN3@HcdPdd_Ini@2|

; 469  : }

  01944	e59d000c	 ldr         r0, [sp, #0xC]
  01948	e28dd024	 add         sp, sp, #0x24
  0194c	e89d6000	 ldmia       sp, {sp, lr}
  01950	e12fff1e	 bx          lr
  01954		 |$LN12@HcdPdd_Ini@2|
  01954		 |$LN13@HcdPdd_Ini@2|
  01954	00000000	 DCD         |??_C@_1GM@CNBIDP@?$AAH?$AAc?$AAd?$AAP?$AAd?$AAd?$AA_?$AAI?$AAn?$AAi?$AAt?$AA?3?$AA?5?$AAC?$AAh?$AAe?$AAc?$AAk?$AAi?$AAn?$AAg?$AA?5?$AAS?$AAW?$AA1?$AA8?$AA?5?$AA?9?$AA?5?$AAc?$AAo?$AAn@|
  01958		 |$LN14@HcdPdd_Ini@2|
  01958	00000000	 DCD         |dpCurSettings|
  0195c		 |$M39137|

			 ENDP  ; |HcdPdd_Init|

	EXPORT	|HcdPdd_CheckConfigPower|

  00078			 AREA	 |.pdata|, PDATA
|$T39150| DCD	|$LN7@HcdPdd_Che|
	DCD	0x40001404
; Function compile flags: /Odtp

  0195c			 AREA	 |.text|, CODE, ARM

  0195c		 |HcdPdd_CheckConfigPower| PROC

; 485  : {

  0195c		 |$LN7@HcdPdd_Che|
  0195c	e1a0c00d	 mov         r12, sp
  01960	e92d0007	 stmdb       sp!, {r0 - r2}
  01964	e92d5000	 stmdb       sp!, {r12, lr}
  01968	e24dd008	 sub         sp, sp, #8
  0196c		 |$M39147|

; 486  :     return ((dwCfgPower + dwTotalPower) > 500) ? FALSE : TRUE;

  0196c	e59d2014	 ldr         r2, [sp, #0x14]
  01970	e59d3018	 ldr         r3, [sp, #0x18]
  01974	e0823003	 add         r3, r2, r3
  01978	e3530f7d	 cmp         r3, #0x7D, 30
  0197c	9a000002	 bls         |$LN3@HcdPdd_Che|
  01980	e3a03000	 mov         r3, #0
  01984	e58d3004	 str         r3, [sp, #4]
  01988	ea000001	 b           |$LN4@HcdPdd_Che|
  0198c		 |$LN3@HcdPdd_Che|
  0198c	e3a03001	 mov         r3, #1
  01990	e58d3004	 str         r3, [sp, #4]
  01994		 |$LN4@HcdPdd_Che|
  01994	e59d3004	 ldr         r3, [sp, #4]
  01998	e58d3000	 str         r3, [sp]

; 487  : }

  0199c	e59d0000	 ldr         r0, [sp]
  019a0	e28dd008	 add         sp, sp, #8
  019a4	e89d6000	 ldmia       sp, {sp, lr}
  019a8	e12fff1e	 bx          lr
  019ac		 |$M39148|

			 ENDP  ; |HcdPdd_CheckConfigPower|

	EXPORT	|??_C@_1GA@NEMEOJCD@?$AAH?$AAc?$AAd?$AAP?$AAd?$AAd?$AA_?$AAP?$AAo?$AAw?$AAe?$AAr?$AAU?$AAp?$AA?3?$AA?5?$AAN?$AAe?$AAe?$AAd?$AA?5?$AAt?$AAo?$AA?5?$AAa?$AAd?$AAd?$AA?5?$AAB?$AAu?$AAl?$AAv@| [ DATA ] ; `string'
	EXPORT	|??_C@_1DC@GGCLKKHD@?$AAH?$AAc?$AAd?$AAP?$AAd?$AAd?$AA_?$AAP?$AAo?$AAw?$AAe?$AAr?$AAU?$AAp?$AA?3?$AA?5?$AAe?$AAn?$AAt?$AAe?$AAr?$AA?4?$AA?6?$AA?$AN?$AA?$AA@| [ DATA ] ; `string'
	EXPORT	|HcdPdd_PowerUp|

  00080			 AREA	 |.pdata|, PDATA
|$T39159| DCD	|$LN10@HcdPdd_Pow|
	DCD	0x40002c04

  00000			 AREA	 |.rdata|, DATA, READONLY
|??_C@_1GA@NEMEOJCD@?$AAH?$AAc?$AAd?$AAP?$AAd?$AAd?$AA_?$AAP?$AAo?$AAw?$AAe?$AAr?$AAU?$AAp?$AA?3?$AA?5?$AAN?$AAe?$AAe?$AAd?$AA?5?$AAt?$AAo?$AA?5?$AAa?$AAd?$AAd?$AA?5?$AAB?$AAu?$AAl?$AAv@| DCB "H"
	DCB	0x0, "c", 0x0, "d", 0x0, "P", 0x0, "d", 0x0, "d", 0x0, "_"
	DCB	0x0, "P", 0x0, "o", 0x0, "w", 0x0, "e", 0x0, "r", 0x0, "U"
	DCB	0x0, "p", 0x0, ":", 0x0, " ", 0x0, "N", 0x0, "e", 0x0, "e"
	DCB	0x0, "d", 0x0, " ", 0x0, "t", 0x0, "o", 0x0, " ", 0x0, "a"
	DCB	0x0, "d", 0x0, "d", 0x0, " ", 0x0, "B", 0x0, "u", 0x0, "l"
	DCB	0x0, "v", 0x0, "e", 0x0, "r", 0x0, "d", 0x0, "e", 0x0, " "
	DCB	0x0, "s", 0x0, "u", 0x0, "p", 0x0, "p", 0x0, "o", 0x0, "r"
	DCB	0x0, "t", 0x0, ".", 0x0, 0xa, 0x0, 0xd, 0x0, 0x0, 0x0 ; `string'

  00000			 AREA	 |.rdata|, DATA, READONLY
|??_C@_1DC@GGCLKKHD@?$AAH?$AAc?$AAd?$AAP?$AAd?$AAd?$AA_?$AAP?$AAo?$AAw?$AAe?$AAr?$AAU?$AAp?$AA?3?$AA?5?$AAe?$AAn?$AAt?$AAe?$AAr?$AA?4?$AA?6?$AA?$AN?$AA?$AA@| DCB "H"
	DCB	0x0, "c", 0x0, "d", 0x0, "P", 0x0, "d", 0x0, "d", 0x0, "_"
	DCB	0x0, "P", 0x0, "o", 0x0, "w", 0x0, "e", 0x0, "r", 0x0, "U"
	DCB	0x0, "p", 0x0, ":", 0x0, " ", 0x0, "e", 0x0, "n", 0x0, "t"
	DCB	0x0, "e", 0x0, "r", 0x0, ".", 0x0, 0xa, 0x0, 0xd, 0x0, 0x0
	DCB	0x0					; `string'
; Function compile flags: /Odtp

  019ac			 AREA	 |.text|, CODE, ARM

  019ac		 |HcdPdd_PowerUp| PROC

; 490  : {

  019ac		 |$LN10@HcdPdd_Pow|
  019ac	e1a0c00d	 mov         r12, sp
  019b0	e92d0001	 stmdb       sp!, {r0}
  019b4	e92d5000	 stmdb       sp!, {r12, lr}
  019b8	e24dd00c	 sub         sp, sp, #0xC
  019bc		 |$M39156|

; 491  :     SOhcdPdd * pPddObject = (SOhcdPdd *)hDeviceContext;

  019bc	e59d3014	 ldr         r3, [sp, #0x14]
  019c0	e58d3000	 str         r3, [sp]

; 492  :     DEBUGMSG(ZONE_INIT, (TEXT("HcdPdd_PowerUp: enter.\n\r")));

  019c4	e59f3088	 ldr         r3, [pc, #0x88]
  019c8	e5933440	 ldr         r3, [r3, #0x440]
  019cc	e3130002	 tst         r3, #2
  019d0	0a000004	 beq         |$LN4@HcdPdd_Pow|
  019d4	e59f007c	 ldr         r0, [pc, #0x7C]
  019d8	eb000000	 bl          NKDbgPrintfW
  019dc	e3a03001	 mov         r3, #1
  019e0	e58d3004	 str         r3, [sp, #4]
  019e4	ea000001	 b           |$LN5@HcdPdd_Pow|
  019e8		 |$LN4@HcdPdd_Pow|
  019e8	e3a03000	 mov         r3, #0
  019ec	e58d3004	 str         r3, [sp, #4]
  019f0		 |$LN5@HcdPdd_Pow|

; 493  :     if (pPddObject)

  019f0	e59d3000	 ldr         r3, [sp]
  019f4	e3530000	 cmp         r3, #0
  019f8	0a000006	 beq         |$LN1@HcdPdd_Pow|

; 494  :         pPddObject->PowerUp();

  019fc	e59d3000	 ldr         r3, [sp]
  01a00	e5933000	 ldr         r3, [r3]
  01a04	e2833024	 add         r3, r3, #0x24
  01a08	e59d0000	 ldr         r0, [sp]
  01a0c	e5933000	 ldr         r3, [r3]
  01a10	e1a0e00f	 mov         lr, pc
  01a14	e12fff13	 bx          r3
  01a18		 |$LN1@HcdPdd_Pow|

; 495  :     DEBUGMSG(ZONE_INIT, (TEXT("HcdPdd_PowerUp: Need to add Bulverde support.\n\r")));

  01a18	e59f3034	 ldr         r3, [pc, #0x34]
  01a1c	e5933440	 ldr         r3, [r3, #0x440]
  01a20	e3130002	 tst         r3, #2
  01a24	0a000004	 beq         |$LN6@HcdPdd_Pow|
  01a28	e59f0020	 ldr         r0, [pc, #0x20]
  01a2c	eb000000	 bl          NKDbgPrintfW
  01a30	e3a03001	 mov         r3, #1
  01a34	e58d3008	 str         r3, [sp, #8]
  01a38	ea000001	 b           |$LN7@HcdPdd_Pow|
  01a3c		 |$LN6@HcdPdd_Pow|
  01a3c	e3a03000	 mov         r3, #0
  01a40	e58d3008	 str         r3, [sp, #8]
  01a44		 |$LN7@HcdPdd_Pow|

; 496  :     return;
; 497  : }

  01a44	e28dd00c	 add         sp, sp, #0xC
  01a48	e89d6000	 ldmia       sp, {sp, lr}
  01a4c	e12fff1e	 bx          lr
  01a50		 |$LN11@HcdPdd_Pow|
  01a50		 |$LN12@HcdPdd_Pow|
  01a50	00000000	 DCD         |??_C@_1GA@NEMEOJCD@?$AAH?$AAc?$AAd?$AAP?$AAd?$AAd?$AA_?$AAP?$AAo?$AAw?$AAe?$AAr?$AAU?$AAp?$AA?3?$AA?5?$AAN?$AAe?$AAe?$AAd?$AA?5?$AAt?$AAo?$AA?5?$AAa?$AAd?$AAd?$AA?5?$AAB?$AAu?$AAl?$AAv@|
  01a54		 |$LN13@HcdPdd_Pow|
  01a54	00000000	 DCD         |dpCurSettings|
  01a58		 |$LN14@HcdPdd_Pow|
  01a58	00000000	 DCD         |??_C@_1DC@GGCLKKHD@?$AAH?$AAc?$AAd?$AAP?$AAd?$AAd?$AA_?$AAP?$AAo?$AAw?$AAe?$AAr?$AAU?$AAp?$AA?3?$AA?5?$AAe?$AAn?$AAt?$AAe?$AAr?$AA?4?$AA?6?$AA?$AN?$AA?$AA@|
  01a5c		 |$M39157|

			 ENDP  ; |HcdPdd_PowerUp|

	EXPORT	|??_C@_1GE@FMFAEOJB@?$AAH?$AAc?$AAd?$AAP?$AAd?$AAd?$AA_?$AAP?$AAo?$AAw?$AAe?$AAr?$AAD?$AAo?$AAw?$AAn?$AA?3?$AA?5?$AAN?$AAe?$AAe?$AAd?$AA?5?$AAt?$AAo?$AA?5?$AAa?$AAd?$AAd?$AA?5?$AAB?$AAu@| [ DATA ] ; `string'
	EXPORT	|??_C@_1DG@EJILENPF@?$AAH?$AAc?$AAd?$AAP?$AAd?$AAd?$AA_?$AAP?$AAo?$AAw?$AAe?$AAr?$AAD?$AAo?$AAw?$AAn?$AA?3?$AA?5?$AAe?$AAn?$AAt?$AAe?$AAr?$AA?4?$AA?6?$AA?$AN?$AA?$AA@| [ DATA ] ; `string'
	EXPORT	|HcdPdd_PowerDown|

  00088			 AREA	 |.pdata|, PDATA
|$T39172| DCD	|$LN10@HcdPdd_Pow@2|
	DCD	0x40002c04

  00000			 AREA	 |.rdata|, DATA, READONLY
|??_C@_1GE@FMFAEOJB@?$AAH?$AAc?$AAd?$AAP?$AAd?$AAd?$AA_?$AAP?$AAo?$AAw?$AAe?$AAr?$AAD?$AAo?$AAw?$AAn?$AA?3?$AA?5?$AAN?$AAe?$AAe?$AAd?$AA?5?$AAt?$AAo?$AA?5?$AAa?$AAd?$AAd?$AA?5?$AAB?$AAu@| DCB "H"
	DCB	0x0, "c", 0x0, "d", 0x0, "P", 0x0, "d", 0x0, "d", 0x0, "_"
	DCB	0x0, "P", 0x0, "o", 0x0, "w", 0x0, "e", 0x0, "r", 0x0, "D"
	DCB	0x0, "o", 0x0, "w", 0x0, "n", 0x0, ":", 0x0, " ", 0x0, "N"
	DCB	0x0, "e", 0x0, "e", 0x0, "d", 0x0, " ", 0x0, "t", 0x0, "o"
	DCB	0x0, " ", 0x0, "a", 0x0, "d", 0x0, "d", 0x0, " ", 0x0, "B"
	DCB	0x0, "u", 0x0, "l", 0x0, "v", 0x0, "e", 0x0, "r", 0x0, "d"
	DCB	0x0, "e", 0x0, " ", 0x0, "s", 0x0, "u", 0x0, "p", 0x0, "p"
	DCB	0x0, "o", 0x0, "r", 0x0, "t", 0x0, ".", 0x0, 0xa, 0x0, 0xd
	DCB	0x0, 0x0, 0x0				; `string'

  00000			 AREA	 |.rdata|, DATA, READONLY
|??_C@_1DG@EJILENPF@?$AAH?$AAc?$AAd?$AAP?$AAd?$AAd?$AA_?$AAP?$AAo?$AAw?$AAe?$AAr?$AAD?$AAo?$AAw?$AAn?$AA?3?$AA?5?$AAe?$AAn?$AAt?$AAe?$AAr?$AA?4?$AA?6?$AA?$AN?$AA?$AA@| DCB "H"
	DCB	0x0, "c", 0x0, "d", 0x0, "P", 0x0, "d", 0x0, "d", 0x0, "_"
	DCB	0x0, "P", 0x0, "o", 0x0, "w", 0x0, "e", 0x0, "r", 0x0, "D"
	DCB	0x0, "o", 0x0, "w", 0x0, "n", 0x0, ":", 0x0, " ", 0x0, "e"
	DCB	0x0, "n", 0x0, "t", 0x0, "e", 0x0, "r", 0x0, ".", 0x0, 0xa
	DCB	0x0, 0xd, 0x0, 0x0, 0x0			; `string'
; Function compile flags: /Odtp

  01a5c			 AREA	 |.text|, CODE, ARM

  01a5c		 |HcdPdd_PowerDown| PROC

; 500  : {

  01a5c		 |$LN10@HcdPdd_Pow@2|
  01a5c	e1a0c00d	 mov         r12, sp
  01a60	e92d0001	 stmdb       sp!, {r0}
  01a64	e92d5000	 stmdb       sp!, {r12, lr}
  01a68	e24dd00c	 sub         sp, sp, #0xC
  01a6c		 |$M39169|

; 501  :     SOhcdPdd * pPddObject = (SOhcdPdd *)hDeviceContext;

  01a6c	e59d3014	 ldr         r3, [sp, #0x14]
  01a70	e58d3000	 str         r3, [sp]

; 502  :     DEBUGMSG(ZONE_INIT, (TEXT("HcdPdd_PowerDown: enter.\n\r")));

  01a74	e59f3088	 ldr         r3, [pc, #0x88]
  01a78	e5933440	 ldr         r3, [r3, #0x440]
  01a7c	e3130002	 tst         r3, #2
  01a80	0a000004	 beq         |$LN4@HcdPdd_Pow@2|
  01a84	e59f007c	 ldr         r0, [pc, #0x7C]
  01a88	eb000000	 bl          NKDbgPrintfW
  01a8c	e3a03001	 mov         r3, #1
  01a90	e58d3004	 str         r3, [sp, #4]
  01a94	ea000001	 b           |$LN5@HcdPdd_Pow@2|
  01a98		 |$LN4@HcdPdd_Pow@2|
  01a98	e3a03000	 mov         r3, #0
  01a9c	e58d3004	 str         r3, [sp, #4]
  01aa0		 |$LN5@HcdPdd_Pow@2|

; 503  :     if (pPddObject)

  01aa0	e59d3000	 ldr         r3, [sp]
  01aa4	e3530000	 cmp         r3, #0
  01aa8	0a000006	 beq         |$LN1@HcdPdd_Pow@2|

; 504  :         pPddObject->PowerDown();

  01aac	e59d3000	 ldr         r3, [sp]
  01ab0	e5933000	 ldr         r3, [r3]
  01ab4	e2833028	 add         r3, r3, #0x28
  01ab8	e59d0000	 ldr         r0, [sp]
  01abc	e5933000	 ldr         r3, [r3]
  01ac0	e1a0e00f	 mov         lr, pc
  01ac4	e12fff13	 bx          r3
  01ac8		 |$LN1@HcdPdd_Pow@2|

; 505  : 
; 506  :     DEBUGMSG(ZONE_INIT, (TEXT("HcdPdd_PowerDown: Need to add Bulverde support.\n\r")));

  01ac8	e59f3034	 ldr         r3, [pc, #0x34]
  01acc	e5933440	 ldr         r3, [r3, #0x440]
  01ad0	e3130002	 tst         r3, #2
  01ad4	0a000004	 beq         |$LN6@HcdPdd_Pow@2|
  01ad8	e59f0020	 ldr         r0, [pc, #0x20]
  01adc	eb000000	 bl          NKDbgPrintfW
  01ae0	e3a03001	 mov         r3, #1
  01ae4	e58d3008	 str         r3, [sp, #8]
  01ae8	ea000001	 b           |$LN7@HcdPdd_Pow@2|
  01aec		 |$LN6@HcdPdd_Pow@2|
  01aec	e3a03000	 mov         r3, #0
  01af0	e58d3008	 str         r3, [sp, #8]
  01af4		 |$LN7@HcdPdd_Pow@2|

; 507  :     return;
; 508  : }

  01af4	e28dd00c	 add         sp, sp, #0xC
  01af8	e89d6000	 ldmia       sp, {sp, lr}
  01afc	e12fff1e	 bx          lr
  01b00		 |$LN11@HcdPdd_Pow@2|
  01b00		 |$LN12@HcdPdd_Pow@2|
  01b00	00000000	 DCD         |??_C@_1GE@FMFAEOJB@?$AAH?$AAc?$AAd?$AAP?$AAd?$AAd?$AA_?$AAP?$AAo?$AAw?$AAe?$AAr?$AAD?$AAo?$AAw?$AAn?$AA?3?$AA?5?$AAN?$AAe?$AAe?$AAd?$AA?5?$AAt?$AAo?$AA?5?$AAa?$AAd?$AAd?$AA?5?$AAB?$AAu@|
  01b04		 |$LN13@HcdPdd_Pow@2|
  01b04	00000000	 DCD         |dpCurSettings|
  01b08		 |$LN14@HcdPdd_Pow@2|
  01b08	00000000	 DCD         |??_C@_1DG@EJILENPF@?$AAH?$AAc?$AAd?$AAP?$AAd?$AAd?$AA_?$AAP?$AAo?$AAw?$AAe?$AAr?$AAD?$AAo?$AAw?$AAn?$AA?3?$AA?5?$AAe?$AAn?$AAt?$AAe?$AAr?$AA?4?$AA?6?$AA?$AN?$AA?$AA@|
  01b0c		 |$M39170|

			 ENDP  ; |HcdPdd_PowerDown|

	EXPORT	|HcdPdd_Deinit|

  00090			 AREA	 |.pdata|, PDATA
|$T39186| DCD	|$LN8@HcdPdd_Dei|
	DCD	0x40002404
; Function compile flags: /Odtp

  01b0c			 AREA	 |.text|, CODE, ARM

  01b0c		 |HcdPdd_Deinit| PROC

; 512  : {

  01b0c		 |$LN8@HcdPdd_Dei|
  01b0c	e1a0c00d	 mov         r12, sp
  01b10	e92d0001	 stmdb       sp!, {r0}
  01b14	e92d5000	 stmdb       sp!, {r12, lr}
  01b18	e24dd018	 sub         sp, sp, #0x18
  01b1c		 |$M39183|

; 513  :     SOhcdPdd * pPddObject = (SOhcdPdd *)hDeviceContext;

  01b1c	e59d3020	 ldr         r3, [sp, #0x20]
  01b20	e58d3000	 str         r3, [sp]

; 514  :     if (pPddObject)

  01b24	e59d3000	 ldr         r3, [sp]
  01b28	e3530000	 cmp         r3, #0
  01b2c	0a000014	 beq         |$LN1@HcdPdd_Dei|

; 515  :         delete pPddObject;

  01b30	e59d3000	 ldr         r3, [sp]
  01b34	e58d3008	 str         r3, [sp, #8]
  01b38	e59d3008	 ldr         r3, [sp, #8]
  01b3c	e58d3004	 str         r3, [sp, #4]
  01b40	e59d3004	 ldr         r3, [sp, #4]
  01b44	e3530000	 cmp         r3, #0
  01b48	0a00000b	 beq         |$LN4@HcdPdd_Dei|
  01b4c	e3a01001	 mov         r1, #1
  01b50	e59d3004	 ldr         r3, [sp, #4]
  01b54	e5933000	 ldr         r3, [r3]
  01b58	e2833004	 add         r3, r3, #4
  01b5c	e59d0004	 ldr         r0, [sp, #4]
  01b60	e5933000	 ldr         r3, [r3]
  01b64	e1a0e00f	 mov         lr, pc
  01b68	e12fff13	 bx          r3
  01b6c	e58d0010	 str         r0, [sp, #0x10]
  01b70	e59d3010	 ldr         r3, [sp, #0x10]
  01b74	e58d3014	 str         r3, [sp, #0x14]
  01b78	ea000001	 b           |$LN5@HcdPdd_Dei|
  01b7c		 |$LN4@HcdPdd_Dei|
  01b7c	e3a03000	 mov         r3, #0
  01b80	e58d3014	 str         r3, [sp, #0x14]
  01b84		 |$LN5@HcdPdd_Dei|
  01b84		 |$LN1@HcdPdd_Dei|

; 516  :     return TRUE;

  01b84	e3a03001	 mov         r3, #1
  01b88	e58d300c	 str         r3, [sp, #0xC]

; 517  : }

  01b8c	e59d000c	 ldr         r0, [sp, #0xC]
  01b90	e28dd018	 add         sp, sp, #0x18
  01b94	e89d6000	 ldmia       sp, {sp, lr}
  01b98	e12fff1e	 bx          lr
  01b9c		 |$M39184|

			 ENDP  ; |HcdPdd_Deinit|

	EXPORT	|HcdPdd_Open|

  00098			 AREA	 |.pdata|, PDATA
|$T39192| DCD	|$LN5@HcdPdd_Ope|
	DCD	0x40000a04
; Function compile flags: /Odtp

  01b9c			 AREA	 |.text|, CODE, ARM

  01b9c		 |HcdPdd_Open| PROC

; 522  : {

  01b9c		 |$LN5@HcdPdd_Ope|
  01b9c	e1a0c00d	 mov         r12, sp
  01ba0	e92d0007	 stmdb       sp!, {r0 - r2}
  01ba4	e92d5000	 stmdb       sp!, {r12, lr}
  01ba8	e24dd004	 sub         sp, sp, #4
  01bac		 |$M39189|

; 523  : 
; 524  :     return 1; // we can be opened, but only once!

  01bac	e3a03001	 mov         r3, #1
  01bb0	e58d3000	 str         r3, [sp]

; 525  : }

  01bb4	e59d0000	 ldr         r0, [sp]
  01bb8	e28dd004	 add         sp, sp, #4
  01bbc	e89d6000	 ldmia       sp, {sp, lr}
  01bc0	e12fff1e	 bx          lr
  01bc4		 |$M39190|

			 ENDP  ; |HcdPdd_Open|

	EXPORT	|HcdPdd_Close|

  000a0			 AREA	 |.pdata|, PDATA
|$T39198| DCD	|$LN5@HcdPdd_Clo|
	DCD	0x40000a04
; Function compile flags: /Odtp

  01bc4			 AREA	 |.text|, CODE, ARM

  01bc4		 |HcdPdd_Close| PROC

; 529  : {

  01bc4		 |$LN5@HcdPdd_Clo|
  01bc4	e1a0c00d	 mov         r12, sp
  01bc8	e92d0001	 stmdb       sp!, {r0}
  01bcc	e92d5000	 stmdb       sp!, {r12, lr}
  01bd0	e24dd004	 sub         sp, sp, #4
  01bd4		 |$M39195|

; 530  :     return TRUE;

  01bd4	e3a03001	 mov         r3, #1
  01bd8	e58d3000	 str         r3, [sp]

; 531  : }

  01bdc	e59d0000	 ldr         r0, [sp]
  01be0	e28dd004	 add         sp, sp, #4
  01be4	e89d6000	 ldmia       sp, {sp, lr}
  01be8	e12fff1e	 bx          lr
  01bec		 |$M39196|

			 ENDP  ; |HcdPdd_Close|

	EXPORT	|HcdPdd_Read|

  000a8			 AREA	 |.pdata|, PDATA
|$T39204| DCD	|$LN5@HcdPdd_Rea|
	DCD	0x40000a04
; Function compile flags: /Odtp

  01bec			 AREA	 |.text|, CODE, ARM

  01bec		 |HcdPdd_Read| PROC

; 535  : {

  01bec		 |$LN5@HcdPdd_Rea|
  01bec	e1a0c00d	 mov         r12, sp
  01bf0	e92d0007	 stmdb       sp!, {r0 - r2}
  01bf4	e92d5000	 stmdb       sp!, {r12, lr}
  01bf8	e24dd004	 sub         sp, sp, #4
  01bfc		 |$M39201|

; 536  :     return (DWORD)-1; // an error occured

  01bfc	e3e03000	 mvn         r3, #0
  01c00	e58d3000	 str         r3, [sp]

; 537  : }

  01c04	e59d0000	 ldr         r0, [sp]
  01c08	e28dd004	 add         sp, sp, #4
  01c0c	e89d6000	 ldmia       sp, {sp, lr}
  01c10	e12fff1e	 bx          lr
  01c14		 |$M39202|

			 ENDP  ; |HcdPdd_Read|

	EXPORT	|HcdPdd_Write|

  000b0			 AREA	 |.pdata|, PDATA
|$T39210| DCD	|$LN5@HcdPdd_Wri|
	DCD	0x40000a04
; Function compile flags: /Odtp

  01c14			 AREA	 |.text|, CODE, ARM

  01c14		 |HcdPdd_Write| PROC

; 542  : {

  01c14		 |$LN5@HcdPdd_Wri|
  01c14	e1a0c00d	 mov         r12, sp
  01c18	e92d0007	 stmdb       sp!, {r0 - r2}
  01c1c	e92d5000	 stmdb       sp!, {r12, lr}
  01c20	e24dd004	 sub         sp, sp, #4
  01c24		 |$M39207|

; 543  :     return (DWORD)-1;

  01c24	e3e03000	 mvn         r3, #0
  01c28	e58d3000	 str         r3, [sp]

; 544  : }

  01c2c	e59d0000	 ldr         r0, [sp]
  01c30	e28dd004	 add         sp, sp, #4
  01c34	e89d6000	 ldmia       sp, {sp, lr}
  01c38	e12fff1e	 bx          lr
  01c3c		 |$M39208|

			 ENDP  ; |HcdPdd_Write|

	EXPORT	|HcdPdd_Seek|

  000b8			 AREA	 |.pdata|, PDATA
|$T39216| DCD	|$LN5@HcdPdd_See|
	DCD	0x40000a04
; Function compile flags: /Odtp

  01c3c			 AREA	 |.text|, CODE, ARM

  01c3c		 |HcdPdd_Seek| PROC

; 548  : {

  01c3c		 |$LN5@HcdPdd_See|
  01c3c	e1a0c00d	 mov         r12, sp
  01c40	e92d0007	 stmdb       sp!, {r0 - r2}
  01c44	e92d5000	 stmdb       sp!, {r12, lr}
  01c48	e24dd004	 sub         sp, sp, #4
  01c4c		 |$M39213|

; 549  :     return (DWORD)-1;

  01c4c	e3e03000	 mvn         r3, #0
  01c50	e58d3000	 str         r3, [sp]

; 550  : }

  01c54	e59d0000	 ldr         r0, [sp]
  01c58	e28dd004	 add         sp, sp, #4
  01c5c	e89d6000	 ldmia       sp, {sp, lr}
  01c60	e12fff1e	 bx          lr
  01c64		 |$M39214|

			 ENDP  ; |HcdPdd_Seek|

	EXPORT	|HcdPdd_IOControl|

  000c0			 AREA	 |.pdata|, PDATA
|$T39222| DCD	|$LN5@HcdPdd_IOC|
	DCD	0x40000a04
; Function compile flags: /Odtp

  01c64			 AREA	 |.text|, CODE, ARM

  01c64		 |HcdPdd_IOControl| PROC

; 555  : {

  01c64		 |$LN5@HcdPdd_IOC|
  01c64	e1a0c00d	 mov         r12, sp
  01c68	e92d000f	 stmdb       sp!, {r0 - r3}
  01c6c	e92d5000	 stmdb       sp!, {r12, lr}
  01c70	e24dd004	 sub         sp, sp, #4
  01c74		 |$M39219|

; 556  :     return FALSE;

  01c74	e3a03000	 mov         r3, #0
  01c78	e58d3000	 str         r3, [sp]

; 557  : }

  01c7c	e59d0000	 ldr         r0, [sp]
  01c80	e28dd004	 add         sp, sp, #4
  01c84	e89d6000	 ldmia       sp, {sp, lr}
  01c88	e12fff1e	 bx          lr
  01c8c		 |$M39220|

			 ENDP  ; |HcdPdd_IOControl|

	EXPORT	|??0CBulverdeOhcd@@QAA@PAXPAVCPhysMem@@PBGRAEK@Z| ; CBulverdeOhcd::CBulverdeOhcd

  000c8			 AREA	 |.pdata|, PDATA
|$T39237| DCD	|$LN11@CreateBulv|
	DCD	0x40004f04
; Function compile flags: /Odtp

  01c8c			 AREA	 |.text|, CODE, ARM

  01c8c		 |?CreateBulverdeHcdObject@@YAPAXPAX0PBGPAEK@Z| PROC ; CreateBulverdeHcdObject

; 617  : {

  01c8c		 |$LN11@CreateBulv|
  01c8c	e1a0c00d	 mov         r12, sp
  01c90	e92d000f	 stmdb       sp!, {r0 - r3}
  01c94	e92d5000	 stmdb       sp!, {r12, lr}
  01c98	e24dd03c	 sub         sp, sp, #0x3C
  01c9c		 |$M39234|

; 618  :     CHcd * pobHcd = new CBulverdeOhcd (lpvHcdPddObject, (CPhysMem *)lpvMemoryObject,szRegKey,ioPortBase,dwSysIntr) ;

  01c9c	e3a00fa2	 mov         r0, #0xA2, 30
  01ca0	eb000000	 bl          |??2@YAPAXI@Z|
  01ca4	e58d0024	 str         r0, [sp, #0x24]
  01ca8	e59d3024	 ldr         r3, [sp, #0x24]
  01cac	e58d300c	 str         r3, [sp, #0xC]
  01cb0	e59d300c	 ldr         r3, [sp, #0xC]
  01cb4	e3530000	 cmp         r3, #0
  01cb8	0a00000c	 beq         |$LN5@CreateBulv|
  01cbc	e59d3054	 ldr         r3, [sp, #0x54]
  01cc0	e58d3004	 str         r3, [sp, #4]
  01cc4	e59d3050	 ldr         r3, [sp, #0x50]
  01cc8	e58d3000	 str         r3, [sp]
  01ccc	e59d304c	 ldr         r3, [sp, #0x4C]
  01cd0	e59d2048	 ldr         r2, [sp, #0x48]
  01cd4	e59d1044	 ldr         r1, [sp, #0x44]
  01cd8	e59d000c	 ldr         r0, [sp, #0xC]
  01cdc	eb000000	 bl          |??0CBulverdeOhcd@@QAA@PAXPAVCPhysMem@@PBGRAEK@Z|
  01ce0	e58d0028	 str         r0, [sp, #0x28]
  01ce4	e59d3028	 ldr         r3, [sp, #0x28]
  01ce8	e58d302c	 str         r3, [sp, #0x2C]
  01cec	ea000001	 b           |$LN6@CreateBulv|
  01cf0		 |$LN5@CreateBulv|
  01cf0	e3a03000	 mov         r3, #0
  01cf4	e58d302c	 str         r3, [sp, #0x2C]
  01cf8		 |$LN6@CreateBulv|
  01cf8	e59d302c	 ldr         r3, [sp, #0x2C]
  01cfc	e58d3008	 str         r3, [sp, #8]

; 619  :     if ( pobHcd != NULL ) {

  01d00	e59d3008	 ldr         r3, [sp, #8]
  01d04	e3530000	 cmp         r3, #0
  01d08	0a000028	 beq         |$LN2@CreateBulv|

; 620  : 
; 621  :         ((CBulverdeOhcd*)pobHcd)->LoadHcdCapability(szRegKey);

  01d0c	e59d104c	 ldr         r1, [sp, #0x4C]
  01d10	e59d3008	 ldr         r3, [sp, #8]
  01d14	e5933000	 ldr         r3, [r3]
  01d18	e2833060	 add         r3, r3, #0x60
  01d1c	e59d0008	 ldr         r0, [sp, #8]
  01d20	e5933000	 ldr         r3, [r3]
  01d24	e1a0e00f	 mov         lr, pc
  01d28	e12fff13	 bx          r3

; 622  : 
; 623  :         if ( !pobHcd->DeviceInitialize( )) {

  01d2c	e59d3008	 ldr         r3, [sp, #8]
  01d30	e5933000	 ldr         r3, [r3]
  01d34	e2833004	 add         r3, r3, #4
  01d38	e59d0008	 ldr         r0, [sp, #8]
  01d3c	e5933000	 ldr         r3, [r3]
  01d40	e1a0e00f	 mov         lr, pc
  01d44	e12fff13	 bx          r3
  01d48	e58d0030	 str         r0, [sp, #0x30]
  01d4c	e59d3030	 ldr         r3, [sp, #0x30]
  01d50	e3530000	 cmp         r3, #0
  01d54	1a000015	 bne         |$LN1@CreateBulv|

; 624  :             delete pobHcd;

  01d58	e59d3008	 ldr         r3, [sp, #8]
  01d5c	e58d3014	 str         r3, [sp, #0x14]
  01d60	e59d3014	 ldr         r3, [sp, #0x14]
  01d64	e58d3010	 str         r3, [sp, #0x10]
  01d68	e59d3010	 ldr         r3, [sp, #0x10]
  01d6c	e3530000	 cmp         r3, #0
  01d70	0a00000a	 beq         |$LN7@CreateBulv|
  01d74	e3a01001	 mov         r1, #1
  01d78	e59d3010	 ldr         r3, [sp, #0x10]
  01d7c	e5933000	 ldr         r3, [r3]
  01d80	e59d0010	 ldr         r0, [sp, #0x10]
  01d84	e5933000	 ldr         r3, [r3]
  01d88	e1a0e00f	 mov         lr, pc
  01d8c	e12fff13	 bx          r3
  01d90	e58d0034	 str         r0, [sp, #0x34]
  01d94	e59d3034	 ldr         r3, [sp, #0x34]
  01d98	e58d3038	 str         r3, [sp, #0x38]
  01d9c	ea000001	 b           |$LN8@CreateBulv|
  01da0		 |$LN7@CreateBulv|
  01da0	e3a03000	 mov         r3, #0
  01da4	e58d3038	 str         r3, [sp, #0x38]
  01da8		 |$LN8@CreateBulv|

; 625  :             pobHcd = NULL;

  01da8	e3a03000	 mov         r3, #0
  01dac	e58d3008	 str         r3, [sp, #8]
  01db0		 |$LN1@CreateBulv|
  01db0		 |$LN2@CreateBulv|

; 626  :         }
; 627  :     }
; 628  : 
; 629  :     return pobHcd;

  01db0	e59d3008	 ldr         r3, [sp, #8]
  01db4	e58d3020	 str         r3, [sp, #0x20]

; 630  : }

  01db8	e59d0020	 ldr         r0, [sp, #0x20]
  01dbc	e28dd03c	 add         sp, sp, #0x3C
  01dc0	e89d6000	 ldmia       sp, {sp, lr}
  01dc4	e12fff1e	 bx          lr
  01dc8		 |$M39235|

			 ENDP  ; |?CreateBulverdeHcdObject@@YAPAXPAX0PBGPAEK@Z|, CreateBulverdeHcdObject

	EXPORT	|??_7CBulverdeOhcd@@6B@| [ DATA ]	; CBulverdeOhcd::`vftable'
	EXPORT	|?GetCapability@CHW@@UAAKXZ|		; CHW::GetCapability
	EXPORT	|?ResumeNotification@CHcd@@MAAHXZ|	; CHcd::ResumeNotification
	EXPORT	|?SignalCheckForDoneTransfers@COhcd@@UAAXK@Z| ; COhcd::SignalCheckForDoneTransfers
	EXPORT	|?GetNumberOfDownStreamPort@CBulverdeOhcd@@UAAEXZ| ; CBulverdeOhcd::GetNumberOfDownStreamPort
	EXPORT	|?LoadHcdCapability@CBulverdeOhcd@@UAAXPBG@Z| ; CBulverdeOhcd::LoadHcdCapability
	IMPORT	|??0COhcd@@QAA@PAXPAVCPhysMem@@PBGRAEK@Z| ; COhcd::COhcd
	IMPORT	|??_ECBulverdeOhcd@@UAAPAXI@Z|, WEAK |??_GCBulverdeOhcd@@UAAPAXI@Z| ; CBulverdeOhcd::`vector deleting destructor', CBulverdeOhcd::`scalar deleting destructor'
	IMPORT	|?DeviceInitialize@COhcd@@UAAHXZ|	; COhcd::DeviceInitialize
	IMPORT	|?DeviceDeInitialize@COhcd@@UAAXXZ|	; COhcd::DeviceDeInitialize
	IMPORT	|?GetFrameNumber@CHW@@UAAHPAK@Z|	; CHW::GetFrameNumber
	IMPORT	|?GetFrameLength@CHW@@UAAHPAG@Z|	; CHW::GetFrameLength
	IMPORT	|?SetFrameLength@CHW@@UAAHPAXG@Z|	; CHW::SetFrameLength
	IMPORT	|?StopAdjustingFrame@CHW@@UAAHXZ|	; CHW::StopAdjustingFrame
	IMPORT	|?PowerMgmtCallback@CHW@@UAAXH@Z|	; CHW::PowerMgmtCallback
	IMPORT	|?DisableDevice@CHcd@@UAAHIH@Z|		; CHcd::DisableDevice
	IMPORT	|?SuspendResume@CHcd@@UAAHIH@Z|		; CHcd::SuspendResume
	IMPORT	|?DidPortStatusChange@CHW@@UAAHE@Z|	; CHW::DidPortStatusChange
	IMPORT	|?GetPortStatus@CHW@@UAAHEAAU_USB_HUB_AND_PORT_STATUS@@@Z| ; CHW::GetPortStatus
	IMPORT	|?RootHubFeature@CHW@@UAAHEEG@Z|	; CHW::RootHubFeature
	IMPORT	|?ResetAndEnablePort@CHW@@UAAHE@Z|	; CHW::ResetAndEnablePort
	IMPORT	|?DisablePort@CHW@@UAAXE@Z|		; CHW::DisablePort
	IMPORT	|?WaitForPortStatusChange@CHW@@UAAHPAX@Z| ; CHW::WaitForPortStatusChange
	IMPORT	|?SetCapability@CHW@@UAAKK@Z|		; CHW::SetCapability
	IMPORT	|?SuspendHC@CHW@@UAAHXZ|		; CHW::SuspendHC
	IMPORT	|?Initialize@CHW@@UAAHXZ|		; CHW::Initialize
	IMPORT	|?DeInitialize@CHW@@UAAXXZ|		; CHW::DeInitialize

  00000			 AREA	 |.pdata|, PDATA
|$T39245| DCD	|$LN5@CBulverdeO|
	DCD	0x40001804

  00000			 AREA	 |.rdata|, DATA, READONLY
|??_7CBulverdeOhcd@@6B@| DCD |??_ECBulverdeOhcd@@UAAPAXI@Z| ; CBulverdeOhcd::`vftable'
	DCD	|?DeviceInitialize@COhcd@@UAAHXZ|
	DCD	|?DeviceDeInitialize@COhcd@@UAAXXZ|
	DCD	|?GetFrameNumber@CHW@@UAAHPAK@Z|
	DCD	|?GetFrameLength@CHW@@UAAHPAG@Z|
	DCD	|?SetFrameLength@CHW@@UAAHPAXG@Z|
	DCD	|?StopAdjustingFrame@CHW@@UAAHXZ|
	DCD	|?PowerMgmtCallback@CHW@@UAAXH@Z|
	DCD	|?DisableDevice@CHcd@@UAAHIH@Z|
	DCD	|?SuspendResume@CHcd@@UAAHIH@Z|
	DCD	|?DidPortStatusChange@CHW@@UAAHE@Z|
	DCD	|?GetPortStatus@CHW@@UAAHEAAU_USB_HUB_AND_PORT_STATUS@@@Z|
	DCD	|?RootHubFeature@CHW@@UAAHEEG@Z|
	DCD	|?ResetAndEnablePort@CHW@@UAAHE@Z|
	DCD	|?DisablePort@CHW@@UAAXE@Z|
	DCD	|?WaitForPortStatusChange@CHW@@UAAHPAX@Z|
	DCD	|?SetCapability@CHW@@UAAKK@Z|
	DCD	|?GetCapability@CHW@@UAAKXZ|
	DCD	|?SuspendHC@CHW@@UAAHXZ|
	DCD	|?ResumeNotification@CHcd@@MAAHXZ|
	DCD	|?Initialize@CHW@@UAAHXZ|
	DCD	|?DeInitialize@CHW@@UAAXXZ|
	DCD	|?SignalCheckForDoneTransfers@COhcd@@UAAXK@Z|
	DCD	|?GetNumberOfDownStreamPort@CBulverdeOhcd@@UAAEXZ|
	DCD	|?LoadHcdCapability@CBulverdeOhcd@@UAAXPBG@Z|
; Function compile flags: /Odtp

  00000			 AREA	 |.text|, CODE, ARM

  00000		 |??0CBulverdeOhcd@@QAA@PAXPAVCPhysMem@@PBGRAEK@Z| PROC ; CBulverdeOhcd::CBulverdeOhcd

; 569  :     { ; }

  00000		 |$LN5@CBulverdeO|
  00000	e1a0c00d	 mov         r12, sp
  00004	e92d000f	 stmdb       sp!, {r0 - r3}
  00008	e92d5000	 stmdb       sp!, {r12, lr}
  0000c	e24dd018	 sub         sp, sp, #0x18
  00010		 |$M39242|
  00010	e59d3034	 ldr         r3, [sp, #0x34]
  00014	e58d3004	 str         r3, [sp, #4]
  00018	e59d3030	 ldr         r3, [sp, #0x30]
  0001c	e58d3000	 str         r3, [sp]
  00020	e59d302c	 ldr         r3, [sp, #0x2C]
  00024	e59d2028	 ldr         r2, [sp, #0x28]
  00028	e59d1024	 ldr         r1, [sp, #0x24]
  0002c	e59d0020	 ldr         r0, [sp, #0x20]
  00030	eb000000	 bl          |??0COhcd@@QAA@PAXPAVCPhysMem@@PBGRAEK@Z|
  00034	e58d0014	 str         r0, [sp, #0x14]
  00038	e59f201c	 ldr         r2, [pc, #0x1C]
  0003c	e59d3020	 ldr         r3, [sp, #0x20]
  00040	e5832000	 str         r2, [r3]
  00044	e59d3020	 ldr         r3, [sp, #0x20]
  00048	e58d3010	 str         r3, [sp, #0x10]
  0004c	e59d0010	 ldr         r0, [sp, #0x10]
  00050	e28dd018	 add         sp, sp, #0x18
  00054	e89d6000	 ldmia       sp, {sp, lr}
  00058	e12fff1e	 bx          lr
  0005c		 |$LN6@CBulverdeO|
  0005c		 |$LN7@CBulverdeO|
  0005c	00000000	 DCD         |??_7CBulverdeOhcd@@6B@|
  00060		 |$M39243|

			 ENDP  ; |??0CBulverdeOhcd@@QAA@PAXPAVCPhysMem@@PBGRAEK@Z|, CBulverdeOhcd::CBulverdeOhcd

	EXPORT	|?Unlock@LockObject@@QAAXXZ|		; LockObject::Unlock
	EXPORT	|?Lock@LockObject@@QAAXXZ|		; LockObject::Lock
; File c:\wince600\public\common\oak\drivers\usb\hcd\common\hcd.hpp

  00000			 AREA	 |.pdata|, PDATA
|$T39255| DCD	|$LN6@ResumeNoti|
	DCD	0x40003d04
; Function compile flags: /Odtp

  00000			 AREA	 |.text|, CODE, ARM

  00000		 |?ResumeNotification@CHcd@@MAAHXZ| PROC ; CHcd::ResumeNotification

; 130  :     virtual BOOL ResumeNotification ()  {

  00000		 |$LN6@ResumeNoti|
  00000	e1a0c00d	 mov         r12, sp
  00004	e92d0001	 stmdb       sp!, {r0}
  00008	e92d5000	 stmdb       sp!, {r12, lr}
  0000c	e24dd00c	 sub         sp, sp, #0xC
  00010		 |$M39252|

; 131  :         Lock();

  00010	e59d3014	 ldr         r3, [sp, #0x14]
  00014	e2830004	 add         r0, r3, #4
  00018	eb000000	 bl          |?Lock@LockObject@@QAAXXZ|

; 132  :         BOOL fReturn = FALSE;

  0001c	e3a03000	 mov         r3, #0
  00020	e58d3000	 str         r3, [sp]

; 133  :         if (m_pCRootHub) {

  00024	e59d3014	 ldr         r3, [sp, #0x14]
  00028	e28330ac	 add         r3, r3, #0xAC
  0002c	e5933000	 ldr         r3, [r3]
  00030	e3530000	 cmp         r3, #0
  00034	0a000025	 beq         |$LN1@ResumeNoti|

; 134  :             fReturn = m_pCRootHub->ResumeNotification();

  00038	e59d3014	 ldr         r3, [sp, #0x14]
  0003c	e28330ac	 add         r3, r3, #0xAC
  00040	e5932000	 ldr         r2, [r3]
  00044	e59d3014	 ldr         r3, [sp, #0x14]
  00048	e28330ac	 add         r3, r3, #0xAC
  0004c	e5930000	 ldr         r0, [r3]
  00050	e5923000	 ldr         r3, [r2]
  00054	e283302c	 add         r3, r3, #0x2C
  00058	e5933000	 ldr         r3, [r3]
  0005c	e1a0e00f	 mov         lr, pc
  00060	e12fff13	 bx          r3
  00064	e58d0008	 str         r0, [sp, #8]
  00068	e59d3008	 ldr         r3, [sp, #8]
  0006c	e58d3000	 str         r3, [sp]

; 135  :             m_pCRootHub->NotifyOnSuspendedResumed(FALSE);

  00070	e3a01000	 mov         r1, #0
  00074	e59d3014	 ldr         r3, [sp, #0x14]
  00078	e28330ac	 add         r3, r3, #0xAC
  0007c	e5932000	 ldr         r2, [r3]
  00080	e59d3014	 ldr         r3, [sp, #0x14]
  00084	e28330ac	 add         r3, r3, #0xAC
  00088	e5930000	 ldr         r0, [r3]
  0008c	e5923000	 ldr         r3, [r2]
  00090	e2833030	 add         r3, r3, #0x30
  00094	e5933000	 ldr         r3, [r3]
  00098	e1a0e00f	 mov         lr, pc
  0009c	e12fff13	 bx          r3

; 136  :             m_pCRootHub->NotifyOnSuspendedResumed(TRUE);

  000a0	e3a01001	 mov         r1, #1
  000a4	e59d3014	 ldr         r3, [sp, #0x14]
  000a8	e28330ac	 add         r3, r3, #0xAC
  000ac	e5932000	 ldr         r2, [r3]
  000b0	e59d3014	 ldr         r3, [sp, #0x14]
  000b4	e28330ac	 add         r3, r3, #0xAC
  000b8	e5930000	 ldr         r0, [r3]
  000bc	e5923000	 ldr         r3, [r2]
  000c0	e2833030	 add         r3, r3, #0x30
  000c4	e5933000	 ldr         r3, [r3]
  000c8	e1a0e00f	 mov         lr, pc
  000cc	e12fff13	 bx          r3
  000d0		 |$LN1@ResumeNoti|

; 137  :             
; 138  :         }
; 139  :         Unlock();

  000d0	e59d3014	 ldr         r3, [sp, #0x14]
  000d4	e2830004	 add         r0, r3, #4
  000d8	eb000000	 bl          |?Unlock@LockObject@@QAAXXZ|

; 140  :         return fReturn;

  000dc	e59d3000	 ldr         r3, [sp]
  000e0	e58d3004	 str         r3, [sp, #4]

; 141  :     }

  000e4	e59d0004	 ldr         r0, [sp, #4]
  000e8	e28dd00c	 add         sp, sp, #0xC
  000ec	e89d6000	 ldmia       sp, {sp, lr}
  000f0	e12fff1e	 bx          lr
  000f4		 |$M39253|

			 ENDP  ; |?ResumeNotification@CHcd@@MAAHXZ|, CHcd::ResumeNotification

	IMPORT	|EnterCriticalSection|
; File c:\wince600\public\common\oak\drivers\usb\hcd\common\sync.hpp

  00000			 AREA	 |.pdata|, PDATA
|$T39262| DCD	|$LN5@Lock|
	DCD	0x40000703
; Function compile flags: /Odtp

  00000			 AREA	 |.text|, CODE, ARM

  00000		 |?Lock@LockObject@@QAAXXZ| PROC	; LockObject::Lock

; 74   :     void Lock(void) { EnterCriticalSection(&m_CSection); };

  00000		 |$LN5@Lock|
  00000	e1a0c00d	 mov         r12, sp
  00004	e92d0001	 stmdb       sp!, {r0}
  00008	e92d5000	 stmdb       sp!, {r12, lr}
  0000c		 |$M39259|
  0000c	e59d0008	 ldr         r0, [sp, #8]
  00010	eb000000	 bl          EnterCriticalSection
  00014	e89d6000	 ldmia       sp, {sp, lr}
  00018	e12fff1e	 bx          lr
  0001c		 |$M39260|

			 ENDP  ; |?Lock@LockObject@@QAAXXZ|, LockObject::Lock

	IMPORT	|LeaveCriticalSection|

  00000			 AREA	 |.pdata|, PDATA
|$T39269| DCD	|$LN5@Unlock|
	DCD	0x40000703
; Function compile flags: /Odtp

  00000			 AREA	 |.text|, CODE, ARM

  00000		 |?Unlock@LockObject@@QAAXXZ| PROC	; LockObject::Unlock

; 75   :     void Unlock(void) {LeaveCriticalSection( &m_CSection); };

  00000		 |$LN5@Unlock|
  00000	e1a0c00d	 mov         r12, sp
  00004	e92d0001	 stmdb       sp!, {r0}
  00008	e92d5000	 stmdb       sp!, {r12, lr}
  0000c		 |$M39266|
  0000c	e59d0008	 ldr         r0, [sp, #8]
  00010	eb000000	 bl          LeaveCriticalSection
  00014	e89d6000	 ldmia       sp, {sp, lr}
  00018	e12fff1e	 bx          lr
  0001c		 |$M39267|

			 ENDP  ; |?Unlock@LockObject@@QAAXXZ|, LockObject::Unlock

; File c:\wince600\public\common\oak\drivers\usb\hcd\ohcd2\chw.hpp

  00000			 AREA	 |.pdata|, PDATA
|$T39277| DCD	|$LN5@GetCapabil|
	DCD	0x40000c04
; Function compile flags: /Odtp

  00000			 AREA	 |.text|, CODE, ARM

  00000		 |?GetCapability@CHW@@UAAKXZ| PROC	; CHW::GetCapability

; 314  :     DWORD   GetCapability() { return m_dwCapability; };

  00000		 |$LN5@GetCapabil|
  00000	e1a0c00d	 mov         r12, sp
  00004	e92d0001	 stmdb       sp!, {r0}
  00008	e92d5000	 stmdb       sp!, {r12, lr}
  0000c	e24dd004	 sub         sp, sp, #4
  00010		 |$M39274|
  00010	e59d300c	 ldr         r3, [sp, #0xC]
  00014	e2833e11	 add         r3, r3, #0x11, 28
  00018	e5933000	 ldr         r3, [r3]
  0001c	e58d3000	 str         r3, [sp]
  00020	e59d0000	 ldr         r0, [sp]
  00024	e28dd004	 add         sp, sp, #4
  00028	e89d6000	 ldmia       sp, {sp, lr}
  0002c	e12fff1e	 bx          lr
  00030		 |$M39275|

			 ENDP  ; |?GetCapability@CHW@@UAAKXZ|, CHW::GetCapability

	IMPORT	|?SignalCheckForDoneTransfers@CHCCAera@@QAAXK@Z| ; CHCCAera::SignalCheckForDoneTransfers
; File c:\wince600\public\common\oak\drivers\usb\hcd\ohcd2\cohcd.hpp

  00000			 AREA	 |.pdata|, PDATA
|$T39284| DCD	|$LN5@SignalChec|
	DCD	0x40000903
; Function compile flags: /Odtp

  00000			 AREA	 |.text|, CODE, ARM

  00000		 |?SignalCheckForDoneTransfers@COhcd@@UAAXK@Z| PROC ; COhcd::SignalCheckForDoneTransfers

; 62   :     virtual void SignalCheckForDoneTransfers( DWORD paDoneHead ) { CHCCAera::SignalCheckForDoneTransfers(paDoneHead); };

  00000		 |$LN5@SignalChec|
  00000	e1a0c00d	 mov         r12, sp
  00004	e92d0003	 stmdb       sp!, {r0, r1}
  00008	e92d5000	 stmdb       sp!, {r12, lr}
  0000c		 |$M39281|
  0000c	e59d100c	 ldr         r1, [sp, #0xC]
  00010	e59d3008	 ldr         r3, [sp, #8]
  00014	e2830e12	 add         r0, r3, #0x12, 28
  00018	eb000000	 bl          |?SignalCheckForDoneTransfers@CHCCAera@@QAAXK@Z|
  0001c	e89d6000	 ldmia       sp, {sp, lr}
  00020	e12fff1e	 bx          lr
  00024		 |$M39282|

			 ENDP  ; |?SignalCheckForDoneTransfers@COhcd@@UAAXK@Z|, COhcd::SignalCheckForDoneTransfers

	EXPORT	|?GetNumberOfDownStreamPort@CHW@@UAAEXZ| ; CHW::GetNumberOfDownStreamPort
; File c:\wince600\platform\common\src\soc\pxa27x_ms_v1\hcd\bul_ohci.cpp

  00000			 AREA	 |.pdata|, PDATA
|$T39292| DCD	|$LN5@GetNumberO|
	DCD	0x40000f04
; Function compile flags: /Odtp

  00000			 AREA	 |.text|, CODE, ARM

  00000		 |?GetNumberOfDownStreamPort@CBulverdeOhcd@@UAAEXZ| PROC ; CBulverdeOhcd::GetNumberOfDownStreamPort

; 574  :     virtual UCHAR GetNumberOfDownStreamPort()  {

  00000		 |$LN5@GetNumberO|
  00000	e1a0c00d	 mov         r12, sp
  00004	e92d0001	 stmdb       sp!, {r0}
  00008	e92d5000	 stmdb       sp!, {r12, lr}
  0000c	e24dd008	 sub         sp, sp, #8
  00010		 |$M39289|

; 575  :         return (COhcd::GetNumberOfDownStreamPort()+1) ;

  00010	e59d0010	 ldr         r0, [sp, #0x10]
  00014	eb000000	 bl          |?GetNumberOfDownStreamPort@CHW@@UAAEXZ|
  00018	e5cd0004	 strb        r0, [sp, #4]
  0001c	e5dd3004	 ldrb        r3, [sp, #4]
  00020	e2833001	 add         r3, r3, #1
  00024	e20330ff	 and         r3, r3, #0xFF
  00028	e5cd3000	 strb        r3, [sp]

; 576  :     }

  0002c	e5dd0000	 ldrb        r0, [sp]
  00030	e28dd008	 add         sp, sp, #8
  00034	e89d6000	 ldmia       sp, {sp, lr}
  00038	e12fff1e	 bx          lr
  0003c		 |$M39290|

			 ENDP  ; |?GetNumberOfDownStreamPort@CBulverdeOhcd@@UAAEXZ|, CBulverdeOhcd::GetNumberOfDownStreamPort

; File c:\wince600\public\common\oak\drivers\usb\hcd\ohcd2\chw.hpp

  00000			 AREA	 |.pdata|, PDATA
|$T39300| DCD	|$LN5@GetNumberO@2|
	DCD	0x40001004
; Function compile flags: /Odtp

  00000			 AREA	 |.text|, CODE, ARM

  00000		 |?GetNumberOfDownStreamPort@CHW@@UAAEXZ| PROC ; CHW::GetNumberOfDownStreamPort

; 228  :     virtual UCHAR GetNumberOfDownStreamPort()  {

  00000		 |$LN5@GetNumberO@2|
  00000	e1a0c00d	 mov         r12, sp
  00004	e92d0001	 stmdb       sp!, {r0}
  00008	e92d5000	 stmdb       sp!, {r12, lr}
  0000c	e24dd004	 sub         sp, sp, #4
  00010		 |$M39297|

; 229  :         return m_portBase->HcRhDescriptorA.NDP ;

  00010	e59d300c	 ldr         r3, [sp, #0xC]
  00014	e28330c4	 add         r3, r3, #0xC4
  00018	e5933000	 ldr         r3, [r3]
  0001c	e2833048	 add         r3, r3, #0x48
  00020	e5933000	 ldr         r3, [r3]
  00024	e20330ff	 and         r3, r3, #0xFF
  00028	e20330ff	 and         r3, r3, #0xFF
  0002c	e5cd3000	 strb        r3, [sp]

; 230  :     }

  00030	e5dd0000	 ldrb        r0, [sp]
  00034	e28dd004	 add         sp, sp, #4
  00038	e89d6000	 ldmia       sp, {sp, lr}
  0003c	e12fff1e	 bx          lr
  00040		 |$M39298|

			 ENDP  ; |?GetNumberOfDownStreamPort@CHW@@UAAEXZ|, CHW::GetNumberOfDownStreamPort

	EXPORT	|??_C@_1HO@JAACFAMH@?$AAC?$AAB?$AAu?$AAl?$AAv?$AAe?$AAr?$AAd?$AAe?$AAO?$AAh?$AAc?$AAd?$AA?3?$AAL?$AAo?$AAa?$AAd?$AAH?$AAc?$AAd?$AAC?$AAa?$AAp?$AAa?$AAb?$AAi?$AAl?$AAi?$AAt?$AAy?$AA?3@| [ DATA ] ; `string'
	EXPORT	|??_C@_1BM@KKKMKIHE@?$AAH?$AAc?$AAd?$AAC?$AAa?$AAp?$AAa?$AAb?$AAi?$AAl?$AAi?$AAt?$AAy?$AA?$AA@| [ DATA ] ; `string'
	EXPORT	|??_C@_1HI@DCBJNMEJ@?$AAC?$AAB?$AAu?$AAl?$AAv?$AAe?$AAr?$AAd?$AAe?$AAO?$AAh?$AAc?$AAd?$AA?3?$AAL?$AAo?$AAa?$AAd?$AAH?$AAc?$AAd?$AAC?$AAa?$AAp?$AAa?$AAb?$AAi?$AAl?$AAi?$AAt?$AAy?$AA?3@| [ DATA ] ; `string'
; File c:\wince600\platform\common\src\soc\pxa27x_ms_v1\hcd\bul_ohci.cpp

  00000			 AREA	 |.pdata|, PDATA
|$T39314| DCD	|$LN13@LoadHcdCap|
	DCD	0x40005704

  00000			 AREA	 |.rdata|, DATA, READONLY
|??_C@_1HO@JAACFAMH@?$AAC?$AAB?$AAu?$AAl?$AAv?$AAe?$AAr?$AAd?$AAe?$AAO?$AAh?$AAc?$AAd?$AA?3?$AAL?$AAo?$AAa?$AAd?$AAH?$AAc?$AAd?$AAC?$AAa?$AAp?$AAa?$AAb?$AAi?$AAl?$AAi?$AAt?$AAy?$AA?3@| DCB "C"
	DCB	0x0, "B", 0x0, "u", 0x0, "l", 0x0, "v", 0x0, "e", 0x0, "r"
	DCB	0x0, "d", 0x0, "e", 0x0, "O", 0x0, "h", 0x0, "c", 0x0, "d"
	DCB	0x0, ":", 0x0, "L", 0x0, "o", 0x0, "a", 0x0, "d", 0x0, "H"
	DCB	0x0, "c", 0x0, "d", 0x0, "C", 0x0, "a", 0x0, "p", 0x0, "a"
	DCB	0x0, "b", 0x0, "i", 0x0, "l", 0x0, "i", 0x0, "t", 0x0, "y"
	DCB	0x0, ":", 0x0, ":", 0x0, " ", 0x0, "F", 0x0, "a", 0x0, "i"
	DCB	0x0, "l", 0x0, "e", 0x0, "d", 0x0, " ", 0x0, "o", 0x0, "p"
	DCB	0x0, "e", 0x0, "n", 0x0, "i", 0x0, "n", 0x0, "g", 0x0, " "
	DCB	0x0, "H", 0x0, "K", 0x0, "L", 0x0, "M", 0x0, "\\", 0x0, "%"
	DCB	0x0, "s", 0x0, "\\", 0x0, "%", 0x0, "s", 0x0, " ", 0x0, 0xd
	DCB	0x0, 0xa, 0x0, 0x0, 0x0			; `string'

  00000			 AREA	 |.rdata|, DATA, READONLY
|??_C@_1BM@KKKMKIHE@?$AAH?$AAc?$AAd?$AAC?$AAa?$AAp?$AAa?$AAb?$AAi?$AAl?$AAi?$AAt?$AAy?$AA?$AA@| DCB "H"
	DCB	0x0, "c", 0x0, "d", 0x0, "C", 0x0, "a", 0x0, "p", 0x0, "a"
	DCB	0x0, "b", 0x0, "i", 0x0, "l", 0x0, "i", 0x0, "t", 0x0, "y"
	DCB	0x0, 0x0, 0x0				; `string'

  00000			 AREA	 |.rdata|, DATA, READONLY
|??_C@_1HI@DCBJNMEJ@?$AAC?$AAB?$AAu?$AAl?$AAv?$AAe?$AAr?$AAd?$AAe?$AAO?$AAh?$AAc?$AAd?$AA?3?$AAL?$AAo?$AAa?$AAd?$AAH?$AAc?$AAd?$AAC?$AAa?$AAp?$AAa?$AAb?$AAi?$AAl?$AAi?$AAt?$AAy?$AA?3@| DCB "C"
	DCB	0x0, "B", 0x0, "u", 0x0, "l", 0x0, "v", 0x0, "e", 0x0, "r"
	DCB	0x0, "d", 0x0, "e", 0x0, "O", 0x0, "h", 0x0, "c", 0x0, "d"
	DCB	0x0, ":", 0x0, "L", 0x0, "o", 0x0, "a", 0x0, "d", 0x0, "H"
	DCB	0x0, "c", 0x0, "d", 0x0, "C", 0x0, "a", 0x0, "p", 0x0, "a"
	DCB	0x0, "b", 0x0, "i", 0x0, "l", 0x0, "i", 0x0, "t", 0x0, "y"
	DCB	0x0, ":", 0x0, ":", 0x0, " ", 0x0, "F", 0x0, "a", 0x0, "i"
	DCB	0x0, "l", 0x0, "e", 0x0, "d", 0x0, " ", 0x0, "o", 0x0, "p"
	DCB	0x0, "e", 0x0, "n", 0x0, "i", 0x0, "n", 0x0, "g", 0x0, " "
	DCB	0x0, "H", 0x0, "K", 0x0, "L", 0x0, "M", 0x0, "\\", 0x0, "%"
	DCB	0x0, "s", 0x0, " ", 0x0, 0xd, 0x0, 0xa, 0x0, 0x0, 0x0 ; `string'
; Function compile flags: /Odtp

  00000			 AREA	 |.text|, CODE, ARM

  00000		 |?LoadHcdCapability@CBulverdeOhcd@@UAAXPBG@Z| PROC ; CBulverdeOhcd::LoadHcdCapability

; 581  :     virtual void LoadHcdCapability( IN LPCWSTR szDriverRegistryKey) {

  00000		 |$LN13@LoadHcdCap|
  00000	e1a0c00d	 mov         r12, sp
  00004	e92d0003	 stmdb       sp!, {r0, r1}
  00008	e92d5000	 stmdb       sp!, {r12, lr}
  0000c	e24dd034	 sub         sp, sp, #0x34
  00010		 |$M39311|

; 582  :         LONG  regError;
; 583  :         DWORD dwDataSize;
; 584  :         HKEY  hKey = NULL;

  00010	e3a03000	 mov         r3, #0
  00014	e58d300c	 str         r3, [sp, #0xC]

; 585  :         DWORD dwHcdCapability=0;

  00018	e3a03000	 mov         r3, #0
  0001c	e58d3008	 str         r3, [sp, #8]

; 586  : 
; 587  :         // Open the driver registry key
; 588  :         regError = RegOpenKeyEx(HKEY_LOCAL_MACHINE,szDriverRegistryKey,0,KEY_ALL_ACCESS,&hKey);

  00020	e28d300c	 add         r3, sp, #0xC
  00024	e58d3000	 str         r3, [sp]
  00028	e3a0380f	 mov         r3, #0xF, 16
  0002c	e383303f	 orr         r3, r3, #0x3F
  00030	e3a02000	 mov         r2, #0
  00034	e59d1040	 ldr         r1, [sp, #0x40]
  00038	e3a0010a	 mov         r0, #0xA, 2
  0003c	eb000000	 bl          RegOpenKeyExW
  00040	e58d0024	 str         r0, [sp, #0x24]
  00044	e59d3024	 ldr         r3, [sp, #0x24]
  00048	e58d3010	 str         r3, [sp, #0x10]

; 589  :         if (regError != ERROR_SUCCESS)

  0004c	e59d3010	 ldr         r3, [sp, #0x10]
  00050	e3530000	 cmp         r3, #0
  00054	0a00000d	 beq         |$LN4@LoadHcdCap|

; 590  :         {
; 591  :             DEBUGMSG(ZONE_INIT,(TEXT("CBulverdeOhcd:LoadHcdCapability:: Failed opening HKLM\\%s \r\n"), szDriverRegistryKey));

  00058	e59f30f4	 ldr         r3, [pc, #0xF4]
  0005c	e5933440	 ldr         r3, [r3, #0x440]
  00060	e3130002	 tst         r3, #2
  00064	0a000005	 beq         |$LN7@LoadHcdCap|
  00068	e59d1040	 ldr         r1, [sp, #0x40]
  0006c	e59f00e4	 ldr         r0, [pc, #0xE4]
  00070	eb000000	 bl          NKDbgPrintfW
  00074	e3a03001	 mov         r3, #1
  00078	e58d3028	 str         r3, [sp, #0x28]
  0007c	ea000001	 b           |$LN8@LoadHcdCap|
  00080		 |$LN7@LoadHcdCap|
  00080	e3a03000	 mov         r3, #0
  00084	e58d3028	 str         r3, [sp, #0x28]
  00088		 |$LN8@LoadHcdCap|

; 592  :             hKey = NULL;

  00088	e3a03000	 mov         r3, #0
  0008c	e58d300c	 str         r3, [sp, #0xC]
  00090		 |$LN4@LoadHcdCap|

; 593  :         }
; 594  :             
; 595  :         // Get "HcdCapability"
; 596  :         if (hKey)

  00090	e59d300c	 ldr         r3, [sp, #0xC]
  00094	e3530000	 cmp         r3, #0
  00098	0a000026	 beq         |$LN3@LoadHcdCap|

; 597  :         {
; 598  :             dwDataSize = sizeof(dwHcdCapability);

  0009c	e3a03004	 mov         r3, #4
  000a0	e58d3014	 str         r3, [sp, #0x14]

; 599  :             regError = RegQueryValueEx(hKey,HCD_CAPABILITY_VALNAME,NULL,NULL,(LPBYTE)&dwHcdCapability,&dwDataSize);

  000a4	e28d3014	 add         r3, sp, #0x14
  000a8	e58d3004	 str         r3, [sp, #4]
  000ac	e28d3008	 add         r3, sp, #8
  000b0	e58d3000	 str         r3, [sp]
  000b4	e3a03000	 mov         r3, #0
  000b8	e3a02000	 mov         r2, #0
  000bc	e59f108c	 ldr         r1, [pc, #0x8C]
  000c0	e59d000c	 ldr         r0, [sp, #0xC]
  000c4	eb000000	 bl          RegQueryValueExW
  000c8	e58d002c	 str         r0, [sp, #0x2C]
  000cc	e59d302c	 ldr         r3, [sp, #0x2C]
  000d0	e58d3010	 str         r3, [sp, #0x10]

; 600  :             if (regError == ERROR_SUCCESS)

  000d4	e59d3010	 ldr         r3, [sp, #0x10]
  000d8	e3530000	 cmp         r3, #0
  000dc	1a000008	 bne         |$LN2@LoadHcdCap|

; 601  :             {
; 602  :                 this->SetCapability(dwHcdCapability);

  000e0	e59d1008	 ldr         r1, [sp, #8]
  000e4	e59d303c	 ldr         r3, [sp, #0x3C]
  000e8	e5933000	 ldr         r3, [r3]
  000ec	e2833040	 add         r3, r3, #0x40
  000f0	e59d003c	 ldr         r0, [sp, #0x3C]
  000f4	e5933000	 ldr         r3, [r3]
  000f8	e1a0e00f	 mov         lr, pc
  000fc	e12fff13	 bx          r3

; 603  :             }
; 604  :             else

  00100	ea00000c	 b           |$LN1@LoadHcdCap|
  00104		 |$LN2@LoadHcdCap|

; 605  :             {
; 606  :                 DEBUGMSG(ZONE_INIT,(TEXT("CBulverdeOhcd:LoadHcdCapability:: Failed opening HKLM\\%s\\%s \r\n"), szDriverRegistryKey,HCD_CAPABILITY_VALNAME));

  00104	e59f3048	 ldr         r3, [pc, #0x48]
  00108	e5933440	 ldr         r3, [r3, #0x440]
  0010c	e3130002	 tst         r3, #2
  00110	0a000006	 beq         |$LN9@LoadHcdCap|
  00114	e59f2034	 ldr         r2, [pc, #0x34]
  00118	e59d1040	 ldr         r1, [sp, #0x40]
  0011c	e59f0028	 ldr         r0, [pc, #0x28]
  00120	eb000000	 bl          NKDbgPrintfW
  00124	e3a03001	 mov         r3, #1
  00128	e58d3030	 str         r3, [sp, #0x30]
  0012c	ea000001	 b           |$LN10@LoadHcdCap|
  00130		 |$LN9@LoadHcdCap|
  00130	e3a03000	 mov         r3, #0
  00134	e58d3030	 str         r3, [sp, #0x30]
  00138		 |$LN10@LoadHcdCap|
  00138		 |$LN1@LoadHcdCap|
  00138		 |$LN3@LoadHcdCap|

; 607  :             }
; 608  :         }
; 609  : 
; 610  :         RegCloseKey (hKey);

  00138	e59d000c	 ldr         r0, [sp, #0xC]
  0013c	eb000000	 bl          RegCloseKey

; 611  :     }

  00140	e28dd034	 add         sp, sp, #0x34
  00144	e89d6000	 ldmia       sp, {sp, lr}
  00148	e12fff1e	 bx          lr
  0014c		 |$LN14@LoadHcdCap|
  0014c		 |$LN15@LoadHcdCap|
  0014c	00000000	 DCD         |??_C@_1HO@JAACFAMH@?$AAC?$AAB?$AAu?$AAl?$AAv?$AAe?$AAr?$AAd?$AAe?$AAO?$AAh?$AAc?$AAd?$AA?3?$AAL?$AAo?$AAa?$AAd?$AAH?$AAc?$AAd?$AAC?$AAa?$AAp?$AAa?$AAb?$AAi?$AAl?$AAi?$AAt?$AAy?$AA?3@|
  00150		 |$LN16@LoadHcdCap|
  00150	00000000	 DCD         |??_C@_1BM@KKKMKIHE@?$AAH?$AAc?$AAd?$AAC?$AAa?$AAp?$AAa?$AAb?$AAi?$AAl?$AAi?$AAt?$AAy?$AA?$AA@|
  00154		 |$LN17@LoadHcdCap|
  00154	00000000	 DCD         |dpCurSettings|
  00158		 |$LN18@LoadHcdCap|
  00158	00000000	 DCD         |??_C@_1HI@DCBJNMEJ@?$AAC?$AAB?$AAu?$AAl?$AAv?$AAe?$AAr?$AAd?$AAe?$AAO?$AAh?$AAc?$AAd?$AA?3?$AAL?$AAo?$AAa?$AAd?$AAH?$AAc?$AAd?$AAC?$AAa?$AAp?$AAa?$AAb?$AAi?$AAl?$AAi?$AAt?$AAy?$AA?3@|
  0015c		 |$M39312|

			 ENDP  ; |?LoadHcdCapability@CBulverdeOhcd@@UAAXPBG@Z|, CBulverdeOhcd::LoadHcdCapability

	EXPORT	|??1CBulverdeOhcd@@UAA@XZ|		; CBulverdeOhcd::~CBulverdeOhcd

  00000			 AREA	 |.pdata|, PDATA
|$T39327| DCD	|$LN6@scalar@2|
	DCD	0x40001104
; Function compile flags: /Odtp

  00000			 AREA	 |.text|, CODE, ARM

  00000		 |??_GCBulverdeOhcd@@UAAPAXI@Z| PROC	; CBulverdeOhcd::`scalar deleting destructor'
  00000		 |$LN6@scalar@2|
  00000	e1a0c00d	 mov         r12, sp
  00004	e92d0003	 stmdb       sp!, {r0, r1}
  00008	e92d5000	 stmdb       sp!, {r12, lr}
  0000c	e24dd004	 sub         sp, sp, #4
  00010		 |$M39324|
  00010	e59d000c	 ldr         r0, [sp, #0xC]
  00014	eb000000	 bl          |??1CBulverdeOhcd@@UAA@XZ|
  00018	e59d3010	 ldr         r3, [sp, #0x10]
  0001c	e3130001	 tst         r3, #1
  00020	0a000001	 beq         |$LN1@scalar@2|
  00024	e59d000c	 ldr         r0, [sp, #0xC]
  00028	eb000000	 bl          |??3@YAXPAX@Z|
  0002c		 |$LN1@scalar@2|
  0002c	e59d300c	 ldr         r3, [sp, #0xC]
  00030	e58d3000	 str         r3, [sp]
  00034	e59d0000	 ldr         r0, [sp]
  00038	e28dd004	 add         sp, sp, #4
  0003c	e89d6000	 ldmia       sp, {sp, lr}
  00040	e12fff1e	 bx          lr
  00044		 |$M39325|

			 ENDP  ; |??_GCBulverdeOhcd@@UAAPAXI@Z|, CBulverdeOhcd::`scalar deleting destructor'

	IMPORT	|??1COhcd@@UAA@XZ|			; COhcd::~COhcd

  00000			 AREA	 |.pdata|, PDATA
|$T39334| DCD	|$LN5@CBulverdeO@2|
	DCD	0x40000703
; Function compile flags: /Odtp

  00000			 AREA	 |.text|, CODE, ARM

  00000		 |??1CBulverdeOhcd@@UAA@XZ| PROC	; CBulverdeOhcd::~CBulverdeOhcd
  00000		 |$LN5@CBulverdeO@2|
  00000	e1a0c00d	 mov         r12, sp
  00004	e92d0001	 stmdb       sp!, {r0}
  00008	e92d5000	 stmdb       sp!, {r12, lr}
  0000c		 |$M39331|
  0000c	e59d0008	 ldr         r0, [sp, #8]
  00010	eb000000	 bl          |??1COhcd@@UAA@XZ|
  00014	e89d6000	 ldmia       sp, {sp, lr}
  00018	e12fff1e	 bx          lr
  0001c		 |$M39332|

			 ENDP  ; |??1CBulverdeOhcd@@UAA@XZ|, CBulverdeOhcd::~CBulverdeOhcd

	END
