; Listing generated by Microsoft (R) Optimizing Compiler Version 14.01.60511.01 

	TTL	C:\WINCE600\PLATFORM\COMMON\SRC\SOC\COMMON_TI_V1\COMMON_TI\DSS\DDGPE\haldebug.cpp
	CODE32

  00000			 AREA	 |.drectve|, DRECTVE
	DCB	"-defaultlib:LIBCMT "
	DCB	"-defaultlib:OLDNAMES "


  00000			 AREA	 |.rdata|, DATA, READONLY
|FourCCDescriptionTable| DCD 0x32595559
	DCD	0x10
	DCD	0xff00ff
	DCD	0xff00
	DCD	0xff000000
	DCD	0x56595559
	DCD	0x10
	DCD	0xff00ff
	DCD	0xff00
	DCD	0xff000000
	DCD	0x55595659
	DCD	0x10
	DCD	0xff00ff00
	DCD	0xff
	DCD	0xff0000
	DCD	0x59565955
	DCD	0x10
	DCD	0xff00ff00
	DCD	0xff
	DCD	0xff0000
	DCD	0x36315659
	DCD	0x10
	DCD	0xffffffff
	DCD	0xffffffff
	DCD	0xffffffff
	DCD	0x32315659
	DCD	0xc
	DCD	0xffffffff
	DCD	0xffffffff
	DCD	0xffffffff
	DCD	0x3231564e
	DCD	0xc
	DCD	0xffffffff
	DCD	0xffffffff
	DCD	0xffffffff
	DCD	0x30323449
	DCD	0xc
	DCD	0xffffffff
	DCD	0xffffffff
	DCD	0xffffffff
	DCD	0x56555949
	DCD	0xc
	DCD	0xffffffff
	DCD	0xffffffff
	DCD	0xffffffff
	EXPORT	|??_C@_1EG@NKKEICAM@?$AAp?$AAd?$AA?9?$AA?$DO?$AAb?$AAI?$AAs?$AAD?$AAi?$AAf?$AAf?$AAe?$AAr?$AAe?$AAn?$AAt?$AAP?$AAi?$AAx?$AAe?$AAl?$AAF?$AAo?$AAr?$AAm?$AAa?$AAt?$AA?5?$AA?$DN?$AA?5?$AA?$CF?$AAd@| [ DATA ] ; `string'
	EXPORT	|?DumpDDSURFACEDESC@@YAXPAU_DDSURFACEDESC@@@Z| ; DumpDDSURFACEDESC
	EXPORT	|??_C@_1EA@ELEPLMKJ@?$AAL?$AAP?$AAD?$AAD?$AAH?$AAA?$AAL?$AA_?$AAC?$AAA?$AAN?$AAC?$AAR?$AAE?$AAA?$AAT?$AAE?$AAS?$AAU?$AAR?$AAF?$AAA?$AAC?$AAE?$AAD?$AAA?$AAT?$AAA?$AA?3?$AA?$AN?$AA?6?$AA?$AA@| [ DATA ] ; `string'
	EXPORT	|?DumpDD_CANCREATESURFACE@@YAXPAU_DDHAL_CANCREATESURFACEDATA@@@Z| ; DumpDD_CANCREATESURFACE
	IMPORT	|NKDbgPrintfW|
	IMPORT	|dpCurSettings|

  00000			 AREA	 |.pdata|, PDATA
|$T42526| DCD	|$LN9@DumpDD_CAN|
	DCD	0x40002704
; File c:\wince600\platform\common\src\soc\common_ti_v1\common_ti\dss\ddgpe\haldebug.cpp

  00000			 AREA	 |.rdata|, DATA, READONLY
|??_C@_1EG@NKKEICAM@?$AAp?$AAd?$AA?9?$AA?$DO?$AAb?$AAI?$AAs?$AAD?$AAi?$AAf?$AAf?$AAe?$AAr?$AAe?$AAn?$AAt?$AAP?$AAi?$AAx?$AAe?$AAl?$AAF?$AAo?$AAr?$AAm?$AAa?$AAt?$AA?5?$AA?$DN?$AA?5?$AA?$CF?$AAd@| DCB "p"
	DCB	0x0, "d", 0x0, "-", 0x0, ">", 0x0, "b", 0x0, "I", 0x0, "s"
	DCB	0x0, "D", 0x0, "i", 0x0, "f", 0x0, "f", 0x0, "e", 0x0, "r"
	DCB	0x0, "e", 0x0, "n", 0x0, "t", 0x0, "P", 0x0, "i", 0x0, "x"
	DCB	0x0, "e", 0x0, "l", 0x0, "F", 0x0, "o", 0x0, "r", 0x0, "m"
	DCB	0x0, "a", 0x0, "t", 0x0, " ", 0x0, "=", 0x0, " ", 0x0, "%"
	DCB	0x0, "d", 0x0, 0xd, 0x0, 0xa, 0x0, 0x0, 0x0 ; `string'

  00000			 AREA	 |.rdata|, DATA, READONLY
|??_C@_1EA@ELEPLMKJ@?$AAL?$AAP?$AAD?$AAD?$AAH?$AAA?$AAL?$AA_?$AAC?$AAA?$AAN?$AAC?$AAR?$AAE?$AAA?$AAT?$AAE?$AAS?$AAU?$AAR?$AAF?$AAA?$AAC?$AAE?$AAD?$AAA?$AAT?$AAA?$AA?3?$AA?$AN?$AA?6?$AA?$AA@| DCB "L"
	DCB	0x0, "P", 0x0, "D", 0x0, "D", 0x0, "H", 0x0, "A", 0x0, "L"
	DCB	0x0, "_", 0x0, "C", 0x0, "A", 0x0, "N", 0x0, "C", 0x0, "R"
	DCB	0x0, "E", 0x0, "A", 0x0, "T", 0x0, "E", 0x0, "S", 0x0, "U"
	DCB	0x0, "R", 0x0, "F", 0x0, "A", 0x0, "C", 0x0, "E", 0x0, "D"
	DCB	0x0, "A", 0x0, "T", 0x0, "A", 0x0, ":", 0x0, 0xd, 0x0, 0xa
	DCB	0x0, 0x0, 0x0				; `string'
; Function compile flags: /Odtp

  00000			 AREA	 |.text|, CODE, ARM

  00000		 |?DumpDD_CANCREATESURFACE@@YAXPAU_DDHAL_CANCREATESURFACEDATA@@@Z| PROC ; DumpDD_CANCREATESURFACE

; 22   : {

  00000		 |$LN9@DumpDD_CAN|
  00000	e1a0c00d	 mov         r12, sp
  00004	e92d0001	 stmdb       sp!, {r0}
  00008	e92d5000	 stmdb       sp!, {r12, lr}
  0000c	e24dd008	 sub         sp, sp, #8
  00010		 |$M42523|

; 23   :     DEBUGMSG(GPE_ZONE_DDRAW_HAL, (L"LPDDHAL_CANCREATESURFACEDATA:\r\n"));

  00010	e59f307c	 ldr         r3, [pc, #0x7C]
  00014	e5933440	 ldr         r3, [r3, #0x440]
  00018	e3130902	 tst         r3, #2, 18
  0001c	0a000004	 beq         |$LN3@DumpDD_CAN|
  00020	e59f0070	 ldr         r0, [pc, #0x70]
  00024	eb000000	 bl          NKDbgPrintfW
  00028	e3a03001	 mov         r3, #1
  0002c	e58d3000	 str         r3, [sp]
  00030	ea000001	 b           |$LN4@DumpDD_CAN|
  00034		 |$LN3@DumpDD_CAN|
  00034	e3a03000	 mov         r3, #0
  00038	e58d3000	 str         r3, [sp]
  0003c		 |$LN4@DumpDD_CAN|

; 24   :     DumpDDSURFACEDESC(pd->lpDDSurfaceDesc);

  0003c	e59d3010	 ldr         r3, [sp, #0x10]
  00040	e2833004	 add         r3, r3, #4
  00044	e5930000	 ldr         r0, [r3]
  00048	eb000000	 bl          |?DumpDDSURFACEDESC@@YAXPAU_DDSURFACEDESC@@@Z|

; 25   :     DEBUGMSG(GPE_ZONE_DDRAW_HAL, (L"pd->bIsDifferentPixelFormat = %d\r\n", pd->bIsDifferentPixelFormat));

  0004c	e59f3040	 ldr         r3, [pc, #0x40]
  00050	e5933440	 ldr         r3, [r3, #0x440]
  00054	e3130902	 tst         r3, #2, 18
  00058	0a000007	 beq         |$LN5@DumpDD_CAN|
  0005c	e59d3010	 ldr         r3, [sp, #0x10]
  00060	e2833008	 add         r3, r3, #8
  00064	e5931000	 ldr         r1, [r3]
  00068	e59f0020	 ldr         r0, [pc, #0x20]
  0006c	eb000000	 bl          NKDbgPrintfW
  00070	e3a03001	 mov         r3, #1
  00074	e58d3004	 str         r3, [sp, #4]
  00078	ea000001	 b           |$LN6@DumpDD_CAN|
  0007c		 |$LN5@DumpDD_CAN|
  0007c	e3a03000	 mov         r3, #0
  00080	e58d3004	 str         r3, [sp, #4]
  00084		 |$LN6@DumpDD_CAN|

; 26   : }

  00084	e28dd008	 add         sp, sp, #8
  00088	e89d6000	 ldmia       sp, {sp, lr}
  0008c	e12fff1e	 bx          lr
  00090		 |$LN10@DumpDD_CAN|
  00090		 |$LN11@DumpDD_CAN|
  00090	00000000	 DCD         |??_C@_1EG@NKKEICAM@?$AAp?$AAd?$AA?9?$AA?$DO?$AAb?$AAI?$AAs?$AAD?$AAi?$AAf?$AAf?$AAe?$AAr?$AAe?$AAn?$AAt?$AAP?$AAi?$AAx?$AAe?$AAl?$AAF?$AAo?$AAr?$AAm?$AAa?$AAt?$AA?5?$AA?$DN?$AA?5?$AA?$CF?$AAd@|
  00094		 |$LN12@DumpDD_CAN|
  00094	00000000	 DCD         |dpCurSettings|
  00098		 |$LN13@DumpDD_CAN|
  00098	00000000	 DCD         |??_C@_1EA@ELEPLMKJ@?$AAL?$AAP?$AAD?$AAD?$AAH?$AAA?$AAL?$AA_?$AAC?$AAA?$AAN?$AAC?$AAR?$AAE?$AAA?$AAT?$AAE?$AAS?$AAU?$AAR?$AAF?$AAA?$AAC?$AAE?$AAD?$AAA?$AAT?$AAA?$AA?3?$AA?$AN?$AA?6?$AA?$AA@|
  0009c		 |$M42524|

			 ENDP  ; |?DumpDD_CANCREATESURFACE@@YAXPAU_DDHAL_CANCREATESURFACEDATA@@@Z|, DumpDD_CANCREATESURFACE

	EXPORT	|??_C@_1DG@NCKFBBH@?$AAp?$AAd?$AA?9?$AA?$DO?$AAl?$AAp?$AAl?$AAp?$AAS?$AAL?$AAi?$AAs?$AAt?$AA?$FL?$AA?$CF?$AAd?$AA?$FN?$AA?5?$AA?$DN?$AA?5?$AA0?$AAx?$AA?$CF?$AAx?$AA?$AN?$AA?6?$AA?$AA@| [ DATA ] ; `string'
	EXPORT	|??_C@_1CE@DHKJCDBA@?$AAp?$AAd?$AA?9?$AA?$DO?$AAd?$AAw?$AAS?$AAC?$AAn?$AAt?$AA?5?$AA?$DN?$AA?5?$AA?$CF?$AAd?$AA?$AN?$AA?6?$AA?$AA@| [ DATA ] ; `string'
	EXPORT	|??_C@_1DK@HDAKOOAM@?$AAL?$AAP?$AAD?$AAD?$AAH?$AAA?$AAL?$AA_?$AAC?$AAR?$AAE?$AAA?$AAT?$AAE?$AAS?$AAU?$AAR?$AAF?$AAA?$AAC?$AAE?$AAD?$AAA?$AAT?$AAA?$AA?3?$AA?$AN?$AA?6?$AA?$AA@| [ DATA ] ; `string'
	EXPORT	|?DumpDD_CREATESURFACE@@YAXPAU_DDHAL_CREATESURFACEDATA@@@Z| ; DumpDD_CREATESURFACE

  00008			 AREA	 |.pdata|, PDATA
|$T42541| DCD	|$LN14@DumpDD_CRE|
	DCD	0x40004904

  00000			 AREA	 |.rdata|, DATA, READONLY
|??_C@_1DG@NCKFBBH@?$AAp?$AAd?$AA?9?$AA?$DO?$AAl?$AAp?$AAl?$AAp?$AAS?$AAL?$AAi?$AAs?$AAt?$AA?$FL?$AA?$CF?$AAd?$AA?$FN?$AA?5?$AA?$DN?$AA?5?$AA0?$AAx?$AA?$CF?$AAx?$AA?$AN?$AA?6?$AA?$AA@| DCB "p"
	DCB	0x0, "d", 0x0, "-", 0x0, ">", 0x0, "l", 0x0, "p", 0x0, "l"
	DCB	0x0, "p", 0x0, "S", 0x0, "L", 0x0, "i", 0x0, "s", 0x0, "t"
	DCB	0x0, "[", 0x0, "%", 0x0, "d", 0x0, "]", 0x0, " ", 0x0, "="
	DCB	0x0, " ", 0x0, "0", 0x0, "x", 0x0, "%", 0x0, "x", 0x0, 0xd
	DCB	0x0, 0xa, 0x0, 0x0, 0x0			; `string'

  00000			 AREA	 |.rdata|, DATA, READONLY
|??_C@_1CE@DHKJCDBA@?$AAp?$AAd?$AA?9?$AA?$DO?$AAd?$AAw?$AAS?$AAC?$AAn?$AAt?$AA?5?$AA?$DN?$AA?5?$AA?$CF?$AAd?$AA?$AN?$AA?6?$AA?$AA@| DCB "p"
	DCB	0x0, "d", 0x0, "-", 0x0, ">", 0x0, "d", 0x0, "w", 0x0, "S"
	DCB	0x0, "C", 0x0, "n", 0x0, "t", 0x0, " ", 0x0, "=", 0x0, " "
	DCB	0x0, "%", 0x0, "d", 0x0, 0xd, 0x0, 0xa, 0x0, 0x0, 0x0 ; `string'

  00000			 AREA	 |.rdata|, DATA, READONLY
|??_C@_1DK@HDAKOOAM@?$AAL?$AAP?$AAD?$AAD?$AAH?$AAA?$AAL?$AA_?$AAC?$AAR?$AAE?$AAA?$AAT?$AAE?$AAS?$AAU?$AAR?$AAF?$AAA?$AAC?$AAE?$AAD?$AAA?$AAT?$AAA?$AA?3?$AA?$AN?$AA?6?$AA?$AA@| DCB "L"
	DCB	0x0, "P", 0x0, "D", 0x0, "D", 0x0, "H", 0x0, "A", 0x0, "L"
	DCB	0x0, "_", 0x0, "C", 0x0, "R", 0x0, "E", 0x0, "A", 0x0, "T"
	DCB	0x0, "E", 0x0, "S", 0x0, "U", 0x0, "R", 0x0, "F", 0x0, "A"
	DCB	0x0, "C", 0x0, "E", 0x0, "D", 0x0, "A", 0x0, "T", 0x0, "A"
	DCB	0x0, ":", 0x0, 0xd, 0x0, 0xa, 0x0, 0x0, 0x0 ; `string'
; Function compile flags: /Odtp

  0009c			 AREA	 |.text|, CODE, ARM

  0009c		 |?DumpDD_CREATESURFACE@@YAXPAU_DDHAL_CREATESURFACEDATA@@@Z| PROC ; DumpDD_CREATESURFACE

; 33   : {

  0009c		 |$LN14@DumpDD_CRE|
  0009c	e1a0c00d	 mov         r12, sp
  000a0	e92d0001	 stmdb       sp!, {r0}
  000a4	e92d5000	 stmdb       sp!, {r12, lr}
  000a8	e24dd010	 sub         sp, sp, #0x10
  000ac		 |$M42538|

; 34   :     DWORD   i;
; 35   : 
; 36   :     DEBUGMSG(GPE_ZONE_DDRAW_HAL, (L"LPDDHAL_CREATESURFACEDATA:\r\n"));

  000ac	e59f3100	 ldr         r3, [pc, #0x100]
  000b0	e5933440	 ldr         r3, [r3, #0x440]
  000b4	e3130902	 tst         r3, #2, 18
  000b8	0a000004	 beq         |$LN6@DumpDD_CRE|
  000bc	e59f00f8	 ldr         r0, [pc, #0xF8]
  000c0	eb000000	 bl          NKDbgPrintfW
  000c4	e3a03001	 mov         r3, #1
  000c8	e58d3004	 str         r3, [sp, #4]
  000cc	ea000001	 b           |$LN7@DumpDD_CRE|
  000d0		 |$LN6@DumpDD_CRE|
  000d0	e3a03000	 mov         r3, #0
  000d4	e58d3004	 str         r3, [sp, #4]
  000d8		 |$LN7@DumpDD_CRE|

; 37   :     DumpDDSURFACEDESC(pd->lpDDSurfaceDesc);

  000d8	e59d3018	 ldr         r3, [sp, #0x18]
  000dc	e2833004	 add         r3, r3, #4
  000e0	e5930000	 ldr         r0, [r3]
  000e4	eb000000	 bl          |?DumpDDSURFACEDESC@@YAXPAU_DDSURFACEDESC@@@Z|

; 38   :     DEBUGMSG(GPE_ZONE_DDRAW_HAL, (L"pd->dwSCnt = %d\r\n", pd->dwSCnt));

  000e8	e59f30c4	 ldr         r3, [pc, #0xC4]
  000ec	e5933440	 ldr         r3, [r3, #0x440]
  000f0	e3130902	 tst         r3, #2, 18
  000f4	0a000007	 beq         |$LN8@DumpDD_CRE|
  000f8	e59d3018	 ldr         r3, [sp, #0x18]
  000fc	e2833008	 add         r3, r3, #8
  00100	e5931000	 ldr         r1, [r3]
  00104	e59f00ac	 ldr         r0, [pc, #0xAC]
  00108	eb000000	 bl          NKDbgPrintfW
  0010c	e3a03001	 mov         r3, #1
  00110	e58d3008	 str         r3, [sp, #8]
  00114	ea000001	 b           |$LN9@DumpDD_CRE|
  00118		 |$LN8@DumpDD_CRE|
  00118	e3a03000	 mov         r3, #0
  0011c	e58d3008	 str         r3, [sp, #8]
  00120		 |$LN9@DumpDD_CRE|

; 39   :     
; 40   :     for( i = 0; i < pd->dwSCnt; i++ )

  00120	e3a03000	 mov         r3, #0
  00124	e58d3000	 str         r3, [sp]
  00128	ea000002	 b           |$LN3@DumpDD_CRE|
  0012c		 |$LN2@DumpDD_CRE|
  0012c	e59d3000	 ldr         r3, [sp]
  00130	e2833001	 add         r3, r3, #1
  00134	e58d3000	 str         r3, [sp]
  00138		 |$LN3@DumpDD_CRE|
  00138	e59d3018	 ldr         r3, [sp, #0x18]
  0013c	e2833008	 add         r3, r3, #8
  00140	e59d2000	 ldr         r2, [sp]
  00144	e5933000	 ldr         r3, [r3]
  00148	e1520003	 cmp         r2, r3
  0014c	2a000014	 bcs         |$LN1@DumpDD_CRE|

; 41   :     {
; 42   :         DEBUGMSG(GPE_ZONE_DDRAW_HAL, (L"pd->lplpSList[%d] = 0x%x\r\n", i, pd->lplpSList[i]));

  00150	e59f305c	 ldr         r3, [pc, #0x5C]
  00154	e5933440	 ldr         r3, [r3, #0x440]
  00158	e3130902	 tst         r3, #2, 18
  0015c	0a00000d	 beq         |$LN10@DumpDD_CRE|
  00160	e59d3018	 ldr         r3, [sp, #0x18]
  00164	e283000c	 add         r0, r3, #0xC
  00168	e59d1000	 ldr         r1, [sp]
  0016c	e3a03004	 mov         r3, #4
  00170	e0020391	 mul         r2, r1, r3
  00174	e5903000	 ldr         r3, [r0]
  00178	e0833002	 add         r3, r3, r2
  0017c	e5932000	 ldr         r2, [r3]
  00180	e59d1000	 ldr         r1, [sp]
  00184	e59f0024	 ldr         r0, [pc, #0x24]
  00188	eb000000	 bl          NKDbgPrintfW
  0018c	e3a03001	 mov         r3, #1
  00190	e58d300c	 str         r3, [sp, #0xC]
  00194	ea000001	 b           |$LN11@DumpDD_CRE|
  00198		 |$LN10@DumpDD_CRE|
  00198	e3a03000	 mov         r3, #0
  0019c	e58d300c	 str         r3, [sp, #0xC]
  001a0		 |$LN11@DumpDD_CRE|

; 43   :     }

  001a0	eaffffe1	 b           |$LN2@DumpDD_CRE|
  001a4		 |$LN1@DumpDD_CRE|

; 44   : }

  001a4	e28dd010	 add         sp, sp, #0x10
  001a8	e89d6000	 ldmia       sp, {sp, lr}
  001ac	e12fff1e	 bx          lr
  001b0		 |$LN15@DumpDD_CRE|
  001b0		 |$LN16@DumpDD_CRE|
  001b0	00000000	 DCD         |??_C@_1DG@NCKFBBH@?$AAp?$AAd?$AA?9?$AA?$DO?$AAl?$AAp?$AAl?$AAp?$AAS?$AAL?$AAi?$AAs?$AAt?$AA?$FL?$AA?$CF?$AAd?$AA?$FN?$AA?5?$AA?$DN?$AA?5?$AA0?$AAx?$AA?$CF?$AAx?$AA?$AN?$AA?6?$AA?$AA@|
  001b4		 |$LN17@DumpDD_CRE|
  001b4	00000000	 DCD         |dpCurSettings|
  001b8		 |$LN18@DumpDD_CRE|
  001b8	00000000	 DCD         |??_C@_1CE@DHKJCDBA@?$AAp?$AAd?$AA?9?$AA?$DO?$AAd?$AAw?$AAS?$AAC?$AAn?$AAt?$AA?5?$AA?$DN?$AA?5?$AA?$CF?$AAd?$AA?$AN?$AA?6?$AA?$AA@|
  001bc		 |$LN19@DumpDD_CRE|
  001bc	00000000	 DCD         |??_C@_1DK@HDAKOOAM@?$AAL?$AAP?$AAD?$AAD?$AAH?$AAA?$AAL?$AA_?$AAC?$AAR?$AAE?$AAA?$AAT?$AAE?$AAS?$AAU?$AAR?$AAF?$AAA?$AAC?$AAE?$AAD?$AAA?$AAT?$AAA?$AA?3?$AA?$AN?$AA?6?$AA?$AA@|
  001c0		 |$M42539|

			 ENDP  ; |?DumpDD_CREATESURFACE@@YAXPAU_DDHAL_CREATESURFACEDATA@@@Z|, DumpDD_CREATESURFACE

	EXPORT	|??_C@_1CO@JNKGJKJD@?$AA?5?$AA?5?$AAD?$AAD?$AAF?$AAL?$AAI?$AAP?$AA_?$AAW?$AAA?$AAI?$AAT?$AAV?$AAS?$AAY?$AAN?$AAC?$AA?$DL?$AA?5?$AA?$AN?$AA?6?$AA?$AA@| [ DATA ] ; `string'
	EXPORT	|??_C@_1DC@POAEGME@?$AA?5?$AA?5?$AAD?$AAD?$AAF?$AAL?$AAI?$AAP?$AA_?$AAW?$AAA?$AAI?$AAT?$AAN?$AAO?$AAT?$AAB?$AAU?$AAS?$AAY?$AA?$DL?$AA?5?$AA?$AN?$AA?6?$AA?$AA@| [ DATA ] ; `string'
	EXPORT	|??_C@_1CO@HGAFOKLM@?$AA?5?$AA?5?$AAD?$AAD?$AAF?$AAL?$AAI?$AAP?$AA_?$AAI?$AAN?$AAT?$AAE?$AAR?$AAV?$AAA?$AAL?$AA4?$AA?$DL?$AA?5?$AA?$AN?$AA?6?$AA?$AA@| [ DATA ] ; `string'
	EXPORT	|??_C@_1CO@JJDIEPFM@?$AA?5?$AA?5?$AAD?$AAD?$AAF?$AAL?$AAI?$AAP?$AA_?$AAI?$AAN?$AAT?$AAE?$AAR?$AAV?$AAA?$AAL?$AA2?$AA?$DL?$AA?5?$AA?$AN?$AA?6?$AA?$AA@| [ DATA ] ; `string'
	EXPORT	|??_C@_1CO@OOKGJNKM@?$AA?5?$AA?5?$AAD?$AAD?$AAF?$AAL?$AAI?$AAP?$AA_?$AAI?$AAN?$AAT?$AAE?$AAR?$AAV?$AAA?$AAL?$AA1?$AA?$DL?$AA?5?$AA?$AN?$AA?6?$AA?$AA@| [ DATA ] ; `string'
	EXPORT	|??_C@_1CC@IJIBDJHI@?$AA?5?$AA?5?$AAD?$AAD?$AAF?$AAL?$AAI?$AAP?$AA_?$AAO?$AAD?$AAD?$AA?$DL?$AA?5?$AA?$AN?$AA?6?$AA?$AA@| [ DATA ] ; `string'
	EXPORT	|??_C@_1CE@CFICOGND@?$AA?5?$AA?5?$AAD?$AAD?$AAF?$AAL?$AAI?$AAP?$AA_?$AAE?$AAV?$AAE?$AAN?$AA?$DL?$AA?5?$AA?$AN?$AA?6?$AA?$AA@| [ DATA ] ; `string'
	EXPORT	|??_C@_1EE@EDEFPOBH@?$AAp?$AAd?$AA?9?$AA?$DO?$AAd?$AAw?$AAF?$AAl?$AAa?$AAg?$AAs?$AA?5?$AA?5?$AA?5?$AA?5?$AA?5?$AA?5?$AA?5?$AA?5?$AA?5?$AA?5?$AA?5?$AA?5?$AA?5?$AA?5?$AA?$DN?$AA?5?$AA0?$AAx?$AA?$CF?$AAx?$AA?$AN@| [ DATA ] ; `string'
	EXPORT	|??_C@_1EE@LELPNPKN@?$AAp?$AAd?$AA?9?$AA?$DO?$AAl?$AAp?$AAS?$AAu?$AAr?$AAf?$AAT?$AAa?$AAr?$AAg?$AA?5?$AAv?$AAi?$AAd?$AAm?$AAe?$AAm?$AA?5?$AA?5?$AA?5?$AA?5?$AA?$DN?$AA?5?$AA0?$AAx?$AA?$CF?$AAx?$AA?$AN@| [ DATA ] ; `string'
	EXPORT	|??_C@_1EE@PCCGGCAA@?$AAp?$AAd?$AA?9?$AA?$DO?$AAl?$AAp?$AAS?$AAu?$AAr?$AAf?$AAT?$AAa?$AAr?$AAg?$AA?5?$AAd?$AAd?$AAs?$AAu?$AAr?$AAf?$AA?5?$AA?5?$AA?5?$AA?5?$AA?$DN?$AA?5?$AA0?$AAx?$AA?$CF?$AAx?$AA?$AN@| [ DATA ] ; `string'
	EXPORT	|??_C@_1EE@FHNCIGLE@?$AAp?$AAd?$AA?9?$AA?$DO?$AAl?$AAp?$AAS?$AAu?$AAr?$AAf?$AAT?$AAa?$AAr?$AAg?$AA?5?$AA?5?$AA?5?$AA?5?$AA?5?$AA?5?$AA?5?$AA?5?$AA?5?$AA?5?$AA?5?$AA?$DN?$AA?5?$AA0?$AAx?$AA?$CF?$AAx?$AA?$AN@| [ DATA ] ; `string'
	EXPORT	|??_C@_1EE@IHCGKEDJ@?$AAp?$AAd?$AA?9?$AA?$DO?$AAl?$AAp?$AAS?$AAu?$AAr?$AAf?$AAC?$AAu?$AAr?$AAr?$AA?5?$AAv?$AAi?$AAd?$AAm?$AAe?$AAm?$AA?5?$AA?5?$AA?5?$AA?5?$AA?$DN?$AA?5?$AA0?$AAx?$AA?$CF?$AAx?$AA?$AN@| [ DATA ] ; `string'
	EXPORT	|?Buffer@GPESurf@@QAAPAXXZ|		; GPESurf::Buffer
	EXPORT	|??_C@_1EE@MBLPBJJE@?$AAp?$AAd?$AA?9?$AA?$DO?$AAl?$AAp?$AAS?$AAu?$AAr?$AAf?$AAC?$AAu?$AAr?$AAr?$AA?5?$AAd?$AAd?$AAs?$AAu?$AAr?$AAf?$AA?5?$AA?5?$AA?5?$AA?5?$AA?$DN?$AA?5?$AA0?$AAx?$AA?$CF?$AAx?$AA?$AN@| [ DATA ] ; `string'
	EXPORT	|??_C@_1EE@GEELPNCA@?$AAp?$AAd?$AA?9?$AA?$DO?$AAl?$AAp?$AAS?$AAu?$AAr?$AAf?$AAC?$AAu?$AAr?$AAr?$AA?5?$AA?5?$AA?5?$AA?5?$AA?5?$AA?5?$AA?5?$AA?5?$AA?5?$AA?5?$AA?5?$AA?$DN?$AA?5?$AA0?$AAx?$AA?$CF?$AAx?$AA?$AN@| [ DATA ] ; `string'
	EXPORT	|??_C@_1CI@KAFDCBDD@?$AAL?$AAP?$AAD?$AAD?$AAH?$AAA?$AAL?$AA_?$AAF?$AAL?$AAI?$AAP?$AAD?$AAA?$AAT?$AAA?$AA?3?$AA?$AN?$AA?6?$AA?$AA@| [ DATA ] ; `string'
	EXPORT	|?DumpDD_FLIP@@YAXPAU_DDHAL_FLIPDATA@@@Z| ; DumpDD_FLIP
	IMPORT	|?GetDDGPESurf@DDGPESurf@@SAPAV1@PAU_DDRAWI_DDRAWSURFACE_LCL@@@Z| ; DDGPESurf::GetDDGPESurf

  00010			 AREA	 |.pdata|, PDATA
|$T42581| DCD	|$LN42@DumpDD_FLI|
	DCD	0x40010004

  00000			 AREA	 |.rdata|, DATA, READONLY
|??_C@_1CO@JNKGJKJD@?$AA?5?$AA?5?$AAD?$AAD?$AAF?$AAL?$AAI?$AAP?$AA_?$AAW?$AAA?$AAI?$AAT?$AAV?$AAS?$AAY?$AAN?$AAC?$AA?$DL?$AA?5?$AA?$AN?$AA?6?$AA?$AA@| DCB " "
	DCB	0x0, " ", 0x0, "D", 0x0, "D", 0x0, "F", 0x0, "L", 0x0, "I"
	DCB	0x0, "P", 0x0, "_", 0x0, "W", 0x0, "A", 0x0, "I", 0x0, "T"
	DCB	0x0, "V", 0x0, "S", 0x0, "Y", 0x0, "N", 0x0, "C", 0x0, ";"
	DCB	0x0, " ", 0x0, 0xd, 0x0, 0xa, 0x0, 0x0, 0x0 ; `string'

  00000			 AREA	 |.rdata|, DATA, READONLY
|??_C@_1DC@POAEGME@?$AA?5?$AA?5?$AAD?$AAD?$AAF?$AAL?$AAI?$AAP?$AA_?$AAW?$AAA?$AAI?$AAT?$AAN?$AAO?$AAT?$AAB?$AAU?$AAS?$AAY?$AA?$DL?$AA?5?$AA?$AN?$AA?6?$AA?$AA@| DCB " "
	DCB	0x0, " ", 0x0, "D", 0x0, "D", 0x0, "F", 0x0, "L", 0x0, "I"
	DCB	0x0, "P", 0x0, "_", 0x0, "W", 0x0, "A", 0x0, "I", 0x0, "T"
	DCB	0x0, "N", 0x0, "O", 0x0, "T", 0x0, "B", 0x0, "U", 0x0, "S"
	DCB	0x0, "Y", 0x0, ";", 0x0, " ", 0x0, 0xd, 0x0, 0xa, 0x0, 0x0
	DCB	0x0					; `string'

  00000			 AREA	 |.rdata|, DATA, READONLY
|??_C@_1CO@HGAFOKLM@?$AA?5?$AA?5?$AAD?$AAD?$AAF?$AAL?$AAI?$AAP?$AA_?$AAI?$AAN?$AAT?$AAE?$AAR?$AAV?$AAA?$AAL?$AA4?$AA?$DL?$AA?5?$AA?$AN?$AA?6?$AA?$AA@| DCB " "
	DCB	0x0, " ", 0x0, "D", 0x0, "D", 0x0, "F", 0x0, "L", 0x0, "I"
	DCB	0x0, "P", 0x0, "_", 0x0, "I", 0x0, "N", 0x0, "T", 0x0, "E"
	DCB	0x0, "R", 0x0, "V", 0x0, "A", 0x0, "L", 0x0, "4", 0x0, ";"
	DCB	0x0, " ", 0x0, 0xd, 0x0, 0xa, 0x0, 0x0, 0x0 ; `string'

  00000			 AREA	 |.rdata|, DATA, READONLY
|??_C@_1CO@JJDIEPFM@?$AA?5?$AA?5?$AAD?$AAD?$AAF?$AAL?$AAI?$AAP?$AA_?$AAI?$AAN?$AAT?$AAE?$AAR?$AAV?$AAA?$AAL?$AA2?$AA?$DL?$AA?5?$AA?$AN?$AA?6?$AA?$AA@| DCB " "
	DCB	0x0, " ", 0x0, "D", 0x0, "D", 0x0, "F", 0x0, "L", 0x0, "I"
	DCB	0x0, "P", 0x0, "_", 0x0, "I", 0x0, "N", 0x0, "T", 0x0, "E"
	DCB	0x0, "R", 0x0, "V", 0x0, "A", 0x0, "L", 0x0, "2", 0x0, ";"
	DCB	0x0, " ", 0x0, 0xd, 0x0, 0xa, 0x0, 0x0, 0x0 ; `string'

  00000			 AREA	 |.rdata|, DATA, READONLY
|??_C@_1CO@OOKGJNKM@?$AA?5?$AA?5?$AAD?$AAD?$AAF?$AAL?$AAI?$AAP?$AA_?$AAI?$AAN?$AAT?$AAE?$AAR?$AAV?$AAA?$AAL?$AA1?$AA?$DL?$AA?5?$AA?$AN?$AA?6?$AA?$AA@| DCB " "
	DCB	0x0, " ", 0x0, "D", 0x0, "D", 0x0, "F", 0x0, "L", 0x0, "I"
	DCB	0x0, "P", 0x0, "_", 0x0, "I", 0x0, "N", 0x0, "T", 0x0, "E"
	DCB	0x0, "R", 0x0, "V", 0x0, "A", 0x0, "L", 0x0, "1", 0x0, ";"
	DCB	0x0, " ", 0x0, 0xd, 0x0, 0xa, 0x0, 0x0, 0x0 ; `string'

  00000			 AREA	 |.rdata|, DATA, READONLY
|??_C@_1CC@IJIBDJHI@?$AA?5?$AA?5?$AAD?$AAD?$AAF?$AAL?$AAI?$AAP?$AA_?$AAO?$AAD?$AAD?$AA?$DL?$AA?5?$AA?$AN?$AA?6?$AA?$AA@| DCB " "
	DCB	0x0, " ", 0x0, "D", 0x0, "D", 0x0, "F", 0x0, "L", 0x0, "I"
	DCB	0x0, "P", 0x0, "_", 0x0, "O", 0x0, "D", 0x0, "D", 0x0, ";"
	DCB	0x0, " ", 0x0, 0xd, 0x0, 0xa, 0x0, 0x0, 0x0 ; `string'

  00000			 AREA	 |.rdata|, DATA, READONLY
|??_C@_1CE@CFICOGND@?$AA?5?$AA?5?$AAD?$AAD?$AAF?$AAL?$AAI?$AAP?$AA_?$AAE?$AAV?$AAE?$AAN?$AA?$DL?$AA?5?$AA?$AN?$AA?6?$AA?$AA@| DCB " "
	DCB	0x0, " ", 0x0, "D", 0x0, "D", 0x0, "F", 0x0, "L", 0x0, "I"
	DCB	0x0, "P", 0x0, "_", 0x0, "E", 0x0, "V", 0x0, "E", 0x0, "N"
	DCB	0x0, ";", 0x0, " ", 0x0, 0xd, 0x0, 0xa, 0x0, 0x0, 0x0 ; `string'

  00000			 AREA	 |.rdata|, DATA, READONLY
|??_C@_1EE@EDEFPOBH@?$AAp?$AAd?$AA?9?$AA?$DO?$AAd?$AAw?$AAF?$AAl?$AAa?$AAg?$AAs?$AA?5?$AA?5?$AA?5?$AA?5?$AA?5?$AA?5?$AA?5?$AA?5?$AA?5?$AA?5?$AA?5?$AA?5?$AA?5?$AA?5?$AA?$DN?$AA?5?$AA0?$AAx?$AA?$CF?$AAx?$AA?$AN@| DCB "p"
	DCB	0x0, "d", 0x0, "-", 0x0, ">", 0x0, "d", 0x0, "w", 0x0, "F"
	DCB	0x0, "l", 0x0, "a", 0x0, "g", 0x0, "s", 0x0, " ", 0x0, " "
	DCB	0x0, " ", 0x0, " ", 0x0, " ", 0x0, " ", 0x0, " ", 0x0, " "
	DCB	0x0, " ", 0x0, " ", 0x0, " ", 0x0, " ", 0x0, " ", 0x0, " "
	DCB	0x0, "=", 0x0, " ", 0x0, "0", 0x0, "x", 0x0, "%", 0x0, "x"
	DCB	0x0, 0xd, 0x0, 0xa, 0x0, 0x0, 0x0	; `string'

  00000			 AREA	 |.rdata|, DATA, READONLY
|??_C@_1EE@LELPNPKN@?$AAp?$AAd?$AA?9?$AA?$DO?$AAl?$AAp?$AAS?$AAu?$AAr?$AAf?$AAT?$AAa?$AAr?$AAg?$AA?5?$AAv?$AAi?$AAd?$AAm?$AAe?$AAm?$AA?5?$AA?5?$AA?5?$AA?5?$AA?$DN?$AA?5?$AA0?$AAx?$AA?$CF?$AAx?$AA?$AN@| DCB "p"
	DCB	0x0, "d", 0x0, "-", 0x0, ">", 0x0, "l", 0x0, "p", 0x0, "S"
	DCB	0x0, "u", 0x0, "r", 0x0, "f", 0x0, "T", 0x0, "a", 0x0, "r"
	DCB	0x0, "g", 0x0, " ", 0x0, "v", 0x0, "i", 0x0, "d", 0x0, "m"
	DCB	0x0, "e", 0x0, "m", 0x0, " ", 0x0, " ", 0x0, " ", 0x0, " "
	DCB	0x0, "=", 0x0, " ", 0x0, "0", 0x0, "x", 0x0, "%", 0x0, "x"
	DCB	0x0, 0xd, 0x0, 0xa, 0x0, 0x0, 0x0	; `string'

  00000			 AREA	 |.rdata|, DATA, READONLY
|??_C@_1EE@PCCGGCAA@?$AAp?$AAd?$AA?9?$AA?$DO?$AAl?$AAp?$AAS?$AAu?$AAr?$AAf?$AAT?$AAa?$AAr?$AAg?$AA?5?$AAd?$AAd?$AAs?$AAu?$AAr?$AAf?$AA?5?$AA?5?$AA?5?$AA?5?$AA?$DN?$AA?5?$AA0?$AAx?$AA?$CF?$AAx?$AA?$AN@| DCB "p"
	DCB	0x0, "d", 0x0, "-", 0x0, ">", 0x0, "l", 0x0, "p", 0x0, "S"
	DCB	0x0, "u", 0x0, "r", 0x0, "f", 0x0, "T", 0x0, "a", 0x0, "r"
	DCB	0x0, "g", 0x0, " ", 0x0, "d", 0x0, "d", 0x0, "s", 0x0, "u"
	DCB	0x0, "r", 0x0, "f", 0x0, " ", 0x0, " ", 0x0, " ", 0x0, " "
	DCB	0x0, "=", 0x0, " ", 0x0, "0", 0x0, "x", 0x0, "%", 0x0, "x"
	DCB	0x0, 0xd, 0x0, 0xa, 0x0, 0x0, 0x0	; `string'

  00000			 AREA	 |.rdata|, DATA, READONLY
|??_C@_1EE@FHNCIGLE@?$AAp?$AAd?$AA?9?$AA?$DO?$AAl?$AAp?$AAS?$AAu?$AAr?$AAf?$AAT?$AAa?$AAr?$AAg?$AA?5?$AA?5?$AA?5?$AA?5?$AA?5?$AA?5?$AA?5?$AA?5?$AA?5?$AA?5?$AA?5?$AA?$DN?$AA?5?$AA0?$AAx?$AA?$CF?$AAx?$AA?$AN@| DCB "p"
	DCB	0x0, "d", 0x0, "-", 0x0, ">", 0x0, "l", 0x0, "p", 0x0, "S"
	DCB	0x0, "u", 0x0, "r", 0x0, "f", 0x0, "T", 0x0, "a", 0x0, "r"
	DCB	0x0, "g", 0x0, " ", 0x0, " ", 0x0, " ", 0x0, " ", 0x0, " "
	DCB	0x0, " ", 0x0, " ", 0x0, " ", 0x0, " ", 0x0, " ", 0x0, " "
	DCB	0x0, "=", 0x0, " ", 0x0, "0", 0x0, "x", 0x0, "%", 0x0, "x"
	DCB	0x0, 0xd, 0x0, 0xa, 0x0, 0x0, 0x0	; `string'

  00000			 AREA	 |.rdata|, DATA, READONLY
|??_C@_1EE@IHCGKEDJ@?$AAp?$AAd?$AA?9?$AA?$DO?$AAl?$AAp?$AAS?$AAu?$AAr?$AAf?$AAC?$AAu?$AAr?$AAr?$AA?5?$AAv?$AAi?$AAd?$AAm?$AAe?$AAm?$AA?5?$AA?5?$AA?5?$AA?5?$AA?$DN?$AA?5?$AA0?$AAx?$AA?$CF?$AAx?$AA?$AN@| DCB "p"
	DCB	0x0, "d", 0x0, "-", 0x0, ">", 0x0, "l", 0x0, "p", 0x0, "S"
	DCB	0x0, "u", 0x0, "r", 0x0, "f", 0x0, "C", 0x0, "u", 0x0, "r"
	DCB	0x0, "r", 0x0, " ", 0x0, "v", 0x0, "i", 0x0, "d", 0x0, "m"
	DCB	0x0, "e", 0x0, "m", 0x0, " ", 0x0, " ", 0x0, " ", 0x0, " "
	DCB	0x0, "=", 0x0, " ", 0x0, "0", 0x0, "x", 0x0, "%", 0x0, "x"
	DCB	0x0, 0xd, 0x0, 0xa, 0x0, 0x0, 0x0	; `string'

  00000			 AREA	 |.rdata|, DATA, READONLY
|??_C@_1EE@MBLPBJJE@?$AAp?$AAd?$AA?9?$AA?$DO?$AAl?$AAp?$AAS?$AAu?$AAr?$AAf?$AAC?$AAu?$AAr?$AAr?$AA?5?$AAd?$AAd?$AAs?$AAu?$AAr?$AAf?$AA?5?$AA?5?$AA?5?$AA?5?$AA?$DN?$AA?5?$AA0?$AAx?$AA?$CF?$AAx?$AA?$AN@| DCB "p"
	DCB	0x0, "d", 0x0, "-", 0x0, ">", 0x0, "l", 0x0, "p", 0x0, "S"
	DCB	0x0, "u", 0x0, "r", 0x0, "f", 0x0, "C", 0x0, "u", 0x0, "r"
	DCB	0x0, "r", 0x0, " ", 0x0, "d", 0x0, "d", 0x0, "s", 0x0, "u"
	DCB	0x0, "r", 0x0, "f", 0x0, " ", 0x0, " ", 0x0, " ", 0x0, " "
	DCB	0x0, "=", 0x0, " ", 0x0, "0", 0x0, "x", 0x0, "%", 0x0, "x"
	DCB	0x0, 0xd, 0x0, 0xa, 0x0, 0x0, 0x0	; `string'

  00000			 AREA	 |.rdata|, DATA, READONLY
|??_C@_1EE@GEELPNCA@?$AAp?$AAd?$AA?9?$AA?$DO?$AAl?$AAp?$AAS?$AAu?$AAr?$AAf?$AAC?$AAu?$AAr?$AAr?$AA?5?$AA?5?$AA?5?$AA?5?$AA?5?$AA?5?$AA?5?$AA?5?$AA?5?$AA?5?$AA?5?$AA?$DN?$AA?5?$AA0?$AAx?$AA?$CF?$AAx?$AA?$AN@| DCB "p"
	DCB	0x0, "d", 0x0, "-", 0x0, ">", 0x0, "l", 0x0, "p", 0x0, "S"
	DCB	0x0, "u", 0x0, "r", 0x0, "f", 0x0, "C", 0x0, "u", 0x0, "r"
	DCB	0x0, "r", 0x0, " ", 0x0, " ", 0x0, " ", 0x0, " ", 0x0, " "
	DCB	0x0, " ", 0x0, " ", 0x0, " ", 0x0, " ", 0x0, " ", 0x0, " "
	DCB	0x0, "=", 0x0, " ", 0x0, "0", 0x0, "x", 0x0, "%", 0x0, "x"
	DCB	0x0, 0xd, 0x0, 0xa, 0x0, 0x0, 0x0	; `string'

  00000			 AREA	 |.rdata|, DATA, READONLY
|??_C@_1CI@KAFDCBDD@?$AAL?$AAP?$AAD?$AAD?$AAH?$AAA?$AAL?$AA_?$AAF?$AAL?$AAI?$AAP?$AAD?$AAA?$AAT?$AAA?$AA?3?$AA?$AN?$AA?6?$AA?$AA@| DCB "L"
	DCB	0x0, "P", 0x0, "D", 0x0, "D", 0x0, "H", 0x0, "A", 0x0, "L"
	DCB	0x0, "_", 0x0, "F", 0x0, "L", 0x0, "I", 0x0, "P", 0x0, "D"
	DCB	0x0, "A", 0x0, "T", 0x0, "A", 0x0, ":", 0x0, 0xd, 0x0, 0xa
	DCB	0x0, 0x0, 0x0				; `string'
; Function compile flags: /Odtp

  001c0			 AREA	 |.text|, CODE, ARM

  001c0		 |?DumpDD_FLIP@@YAXPAU_DDHAL_FLIPDATA@@@Z| PROC ; DumpDD_FLIP

; 51   : {

  001c0		 |$LN42@DumpDD_FLI|
  001c0	e1a0c00d	 mov         r12, sp
  001c4	e92d0001	 stmdb       sp!, {r0}
  001c8	e92d5000	 stmdb       sp!, {r12, lr}
  001cc	e24dd054	 sub         sp, sp, #0x54
  001d0		 |$M42578|

; 52   :     DDGPESurf*  surfCurr = DDGPESurf::GetDDGPESurf(pd->lpSurfCurr);

  001d0	e59d305c	 ldr         r3, [sp, #0x5C]
  001d4	e2833004	 add         r3, r3, #4
  001d8	e5930000	 ldr         r0, [r3]
  001dc	eb000000	 bl          |?GetDDGPESurf@DDGPESurf@@SAPAV1@PAU_DDRAWI_DDRAWSURFACE_LCL@@@Z|
  001e0	e58d0008	 str         r0, [sp, #8]
  001e4	e59d3008	 ldr         r3, [sp, #8]
  001e8	e58d3000	 str         r3, [sp]

; 53   :     DDGPESurf*  surfTarg = DDGPESurf::GetDDGPESurf(pd->lpSurfTarg);

  001ec	e59d305c	 ldr         r3, [sp, #0x5C]
  001f0	e2833008	 add         r3, r3, #8
  001f4	e5930000	 ldr         r0, [r3]
  001f8	eb000000	 bl          |?GetDDGPESurf@DDGPESurf@@SAPAV1@PAU_DDRAWI_DDRAWSURFACE_LCL@@@Z|
  001fc	e58d000c	 str         r0, [sp, #0xC]
  00200	e59d300c	 ldr         r3, [sp, #0xC]
  00204	e58d3004	 str         r3, [sp, #4]

; 54   : 
; 55   :     DEBUGMSG(GPE_ZONE_DDRAW_HAL, (L"LPDDHAL_FLIPDATA:\r\n"));

  00208	e59f3374	 ldr         r3, [pc, #0x374]
  0020c	e5933440	 ldr         r3, [r3, #0x440]
  00210	e3130902	 tst         r3, #2, 18
  00214	0a000004	 beq         |$LN10@DumpDD_FLI|
  00218	e59f039c	 ldr         r0, [pc, #0x39C]
  0021c	eb000000	 bl          NKDbgPrintfW
  00220	e3a03001	 mov         r3, #1
  00224	e58d3010	 str         r3, [sp, #0x10]
  00228	ea000001	 b           |$LN11@DumpDD_FLI|
  0022c		 |$LN10@DumpDD_FLI|
  0022c	e3a03000	 mov         r3, #0
  00230	e58d3010	 str         r3, [sp, #0x10]
  00234		 |$LN11@DumpDD_FLI|

; 56   :     DEBUGMSG(GPE_ZONE_DDRAW_HAL, (L"pd->lpSurfCurr           = 0x%x\r\n", pd->lpSurfCurr));

  00234	e59f3348	 ldr         r3, [pc, #0x348]
  00238	e5933440	 ldr         r3, [r3, #0x440]
  0023c	e3130902	 tst         r3, #2, 18
  00240	0a000007	 beq         |$LN12@DumpDD_FLI|
  00244	e59d305c	 ldr         r3, [sp, #0x5C]
  00248	e2833004	 add         r3, r3, #4
  0024c	e5931000	 ldr         r1, [r3]
  00250	e59f0360	 ldr         r0, [pc, #0x360]
  00254	eb000000	 bl          NKDbgPrintfW
  00258	e3a03001	 mov         r3, #1
  0025c	e58d3014	 str         r3, [sp, #0x14]
  00260	ea000001	 b           |$LN13@DumpDD_FLI|
  00264		 |$LN12@DumpDD_FLI|
  00264	e3a03000	 mov         r3, #0
  00268	e58d3014	 str         r3, [sp, #0x14]
  0026c		 |$LN13@DumpDD_FLI|

; 57   :     DEBUGMSG(GPE_ZONE_DDRAW_HAL, (L"pd->lpSurfCurr ddsurf    = 0x%x\r\n", surfCurr));

  0026c	e59f3310	 ldr         r3, [pc, #0x310]
  00270	e5933440	 ldr         r3, [r3, #0x440]
  00274	e3130902	 tst         r3, #2, 18
  00278	0a000005	 beq         |$LN14@DumpDD_FLI|
  0027c	e59d1000	 ldr         r1, [sp]
  00280	e59f032c	 ldr         r0, [pc, #0x32C]
  00284	eb000000	 bl          NKDbgPrintfW
  00288	e3a03001	 mov         r3, #1
  0028c	e58d3018	 str         r3, [sp, #0x18]
  00290	ea000001	 b           |$LN15@DumpDD_FLI|
  00294		 |$LN14@DumpDD_FLI|
  00294	e3a03000	 mov         r3, #0
  00298	e58d3018	 str         r3, [sp, #0x18]
  0029c		 |$LN15@DumpDD_FLI|

; 58   :     DEBUGMSG(GPE_ZONE_DDRAW_HAL, (L"pd->lpSurfCurr vidmem    = 0x%x\r\n", surfCurr->Buffer()));

  0029c	e59f32e0	 ldr         r3, [pc, #0x2E0]
  002a0	e5933440	 ldr         r3, [r3, #0x440]
  002a4	e3130902	 tst         r3, #2, 18
  002a8	0a000008	 beq         |$LN16@DumpDD_FLI|
  002ac	e59d0000	 ldr         r0, [sp]
  002b0	eb000000	 bl          |?Buffer@GPESurf@@QAAPAXXZ|
  002b4	e58d001c	 str         r0, [sp, #0x1C]
  002b8	e59d101c	 ldr         r1, [sp, #0x1C]
  002bc	e59f02ec	 ldr         r0, [pc, #0x2EC]
  002c0	eb000000	 bl          NKDbgPrintfW
  002c4	e3a03001	 mov         r3, #1
  002c8	e58d3020	 str         r3, [sp, #0x20]
  002cc	ea000001	 b           |$LN17@DumpDD_FLI|
  002d0		 |$LN16@DumpDD_FLI|
  002d0	e3a03000	 mov         r3, #0
  002d4	e58d3020	 str         r3, [sp, #0x20]
  002d8		 |$LN17@DumpDD_FLI|

; 59   :     DEBUGMSG(GPE_ZONE_DDRAW_HAL, (L"pd->lpSurfTarg           = 0x%x\r\n", pd->lpSurfTarg));

  002d8	e59f32a4	 ldr         r3, [pc, #0x2A4]
  002dc	e5933440	 ldr         r3, [r3, #0x440]
  002e0	e3130902	 tst         r3, #2, 18
  002e4	0a000007	 beq         |$LN18@DumpDD_FLI|
  002e8	e59d305c	 ldr         r3, [sp, #0x5C]
  002ec	e2833008	 add         r3, r3, #8
  002f0	e5931000	 ldr         r1, [r3]
  002f4	e59f02b0	 ldr         r0, [pc, #0x2B0]
  002f8	eb000000	 bl          NKDbgPrintfW
  002fc	e3a03001	 mov         r3, #1
  00300	e58d3024	 str         r3, [sp, #0x24]
  00304	ea000001	 b           |$LN19@DumpDD_FLI|
  00308		 |$LN18@DumpDD_FLI|
  00308	e3a03000	 mov         r3, #0
  0030c	e58d3024	 str         r3, [sp, #0x24]
  00310		 |$LN19@DumpDD_FLI|

; 60   :     DEBUGMSG(GPE_ZONE_DDRAW_HAL, (L"pd->lpSurfTarg ddsurf    = 0x%x\r\n", surfTarg));

  00310	e59f326c	 ldr         r3, [pc, #0x26C]
  00314	e5933440	 ldr         r3, [r3, #0x440]
  00318	e3130902	 tst         r3, #2, 18
  0031c	0a000005	 beq         |$LN20@DumpDD_FLI|
  00320	e59d1004	 ldr         r1, [sp, #4]
  00324	e59f027c	 ldr         r0, [pc, #0x27C]
  00328	eb000000	 bl          NKDbgPrintfW
  0032c	e3a03001	 mov         r3, #1
  00330	e58d3028	 str         r3, [sp, #0x28]
  00334	ea000001	 b           |$LN21@DumpDD_FLI|
  00338		 |$LN20@DumpDD_FLI|
  00338	e3a03000	 mov         r3, #0
  0033c	e58d3028	 str         r3, [sp, #0x28]
  00340		 |$LN21@DumpDD_FLI|

; 61   :     DEBUGMSG(GPE_ZONE_DDRAW_HAL, (L"pd->lpSurfTarg vidmem    = 0x%x\r\n", surfTarg->Buffer()));

  00340	e59f323c	 ldr         r3, [pc, #0x23C]
  00344	e5933440	 ldr         r3, [r3, #0x440]
  00348	e3130902	 tst         r3, #2, 18
  0034c	0a000008	 beq         |$LN22@DumpDD_FLI|
  00350	e59d0004	 ldr         r0, [sp, #4]
  00354	eb000000	 bl          |?Buffer@GPESurf@@QAAPAXXZ|
  00358	e58d002c	 str         r0, [sp, #0x2C]
  0035c	e59d102c	 ldr         r1, [sp, #0x2C]
  00360	e59f023c	 ldr         r0, [pc, #0x23C]
  00364	eb000000	 bl          NKDbgPrintfW
  00368	e3a03001	 mov         r3, #1
  0036c	e58d3030	 str         r3, [sp, #0x30]
  00370	ea000001	 b           |$LN23@DumpDD_FLI|
  00374		 |$LN22@DumpDD_FLI|
  00374	e3a03000	 mov         r3, #0
  00378	e58d3030	 str         r3, [sp, #0x30]
  0037c		 |$LN23@DumpDD_FLI|

; 62   :     DEBUGMSG(GPE_ZONE_DDRAW_HAL, (L"pd->dwFlags              = 0x%x\r\n", pd->dwFlags ));

  0037c	e59f3200	 ldr         r3, [pc, #0x200]
  00380	e5933440	 ldr         r3, [r3, #0x440]
  00384	e3130902	 tst         r3, #2, 18
  00388	0a000007	 beq         |$LN24@DumpDD_FLI|
  0038c	e59d305c	 ldr         r3, [sp, #0x5C]
  00390	e283300c	 add         r3, r3, #0xC
  00394	e5931000	 ldr         r1, [r3]
  00398	e59f0200	 ldr         r0, [pc, #0x200]
  0039c	eb000000	 bl          NKDbgPrintfW
  003a0	e3a03001	 mov         r3, #1
  003a4	e58d3034	 str         r3, [sp, #0x34]
  003a8	ea000001	 b           |$LN25@DumpDD_FLI|
  003ac		 |$LN24@DumpDD_FLI|
  003ac	e3a03000	 mov         r3, #0
  003b0	e58d3034	 str         r3, [sp, #0x34]
  003b4		 |$LN25@DumpDD_FLI|

; 63   : 
; 64   :     if( pd->dwFlags & DDFLIP_EVEN )

  003b4	e59d305c	 ldr         r3, [sp, #0x5C]
  003b8	e283300c	 add         r3, r3, #0xC
  003bc	e5933000	 ldr         r3, [r3]
  003c0	e3130002	 tst         r3, #2
  003c4	0a00000a	 beq         |$LN7@DumpDD_FLI|

; 65   :         DEBUGMSG(GPE_ZONE_DDRAW_HAL, (TEXT("  DDFLIP_EVEN; \r\n")));

  003c8	e59f31b4	 ldr         r3, [pc, #0x1B4]
  003cc	e5933440	 ldr         r3, [r3, #0x440]
  003d0	e3130902	 tst         r3, #2, 18
  003d4	0a000004	 beq         |$LN26@DumpDD_FLI|
  003d8	e59f01bc	 ldr         r0, [pc, #0x1BC]
  003dc	eb000000	 bl          NKDbgPrintfW
  003e0	e3a03001	 mov         r3, #1
  003e4	e58d3038	 str         r3, [sp, #0x38]
  003e8	ea000001	 b           |$LN27@DumpDD_FLI|
  003ec		 |$LN26@DumpDD_FLI|
  003ec	e3a03000	 mov         r3, #0
  003f0	e58d3038	 str         r3, [sp, #0x38]
  003f4		 |$LN27@DumpDD_FLI|
  003f4		 |$LN7@DumpDD_FLI|

; 66   :     if( pd->dwFlags & DDFLIP_ODD )

  003f4	e59d305c	 ldr         r3, [sp, #0x5C]
  003f8	e283300c	 add         r3, r3, #0xC
  003fc	e5933000	 ldr         r3, [r3]
  00400	e3130004	 tst         r3, #4
  00404	0a00000a	 beq         |$LN6@DumpDD_FLI|

; 67   :         DEBUGMSG(GPE_ZONE_DDRAW_HAL, (TEXT("  DDFLIP_ODD; \r\n")));

  00408	e59f3174	 ldr         r3, [pc, #0x174]
  0040c	e5933440	 ldr         r3, [r3, #0x440]
  00410	e3130902	 tst         r3, #2, 18
  00414	0a000004	 beq         |$LN28@DumpDD_FLI|
  00418	e59f0178	 ldr         r0, [pc, #0x178]
  0041c	eb000000	 bl          NKDbgPrintfW
  00420	e3a03001	 mov         r3, #1
  00424	e58d303c	 str         r3, [sp, #0x3C]
  00428	ea000001	 b           |$LN29@DumpDD_FLI|
  0042c		 |$LN28@DumpDD_FLI|
  0042c	e3a03000	 mov         r3, #0
  00430	e58d303c	 str         r3, [sp, #0x3C]
  00434		 |$LN29@DumpDD_FLI|
  00434		 |$LN6@DumpDD_FLI|

; 68   :     if( pd->dwFlags & DDFLIP_INTERVAL1 )

  00434	e59d305c	 ldr         r3, [sp, #0x5C]
  00438	e283300c	 add         r3, r3, #0xC
  0043c	e5933000	 ldr         r3, [r3]
  00440	e3130401	 tst         r3, #1, 8
  00444	0a00000a	 beq         |$LN5@DumpDD_FLI|

; 69   :         DEBUGMSG(GPE_ZONE_DDRAW_HAL, (TEXT("  DDFLIP_INTERVAL1; \r\n")));

  00448	e59f3134	 ldr         r3, [pc, #0x134]
  0044c	e5933440	 ldr         r3, [r3, #0x440]
  00450	e3130902	 tst         r3, #2, 18
  00454	0a000004	 beq         |$LN30@DumpDD_FLI|
  00458	e59f0134	 ldr         r0, [pc, #0x134]
  0045c	eb000000	 bl          NKDbgPrintfW
  00460	e3a03001	 mov         r3, #1
  00464	e58d3040	 str         r3, [sp, #0x40]
  00468	ea000001	 b           |$LN31@DumpDD_FLI|
  0046c		 |$LN30@DumpDD_FLI|
  0046c	e3a03000	 mov         r3, #0
  00470	e58d3040	 str         r3, [sp, #0x40]
  00474		 |$LN31@DumpDD_FLI|
  00474		 |$LN5@DumpDD_FLI|

; 70   :     if( pd->dwFlags & DDFLIP_INTERVAL2 )

  00474	e59d305c	 ldr         r3, [sp, #0x5C]
  00478	e283300c	 add         r3, r3, #0xC
  0047c	e5933000	 ldr         r3, [r3]
  00480	e3130402	 tst         r3, #2, 8
  00484	0a00000a	 beq         |$LN4@DumpDD_FLI|

; 71   :         DEBUGMSG(GPE_ZONE_DDRAW_HAL, (TEXT("  DDFLIP_INTERVAL2; \r\n")));

  00488	e59f30f4	 ldr         r3, [pc, #0xF4]
  0048c	e5933440	 ldr         r3, [r3, #0x440]
  00490	e3130902	 tst         r3, #2, 18
  00494	0a000004	 beq         |$LN32@DumpDD_FLI|
  00498	e59f00f0	 ldr         r0, [pc, #0xF0]
  0049c	eb000000	 bl          NKDbgPrintfW
  004a0	e3a03001	 mov         r3, #1
  004a4	e58d3044	 str         r3, [sp, #0x44]
  004a8	ea000001	 b           |$LN33@DumpDD_FLI|
  004ac		 |$LN32@DumpDD_FLI|
  004ac	e3a03000	 mov         r3, #0
  004b0	e58d3044	 str         r3, [sp, #0x44]
  004b4		 |$LN33@DumpDD_FLI|
  004b4		 |$LN4@DumpDD_FLI|

; 72   :     if( pd->dwFlags & DDFLIP_INTERVAL4 )

  004b4	e59d305c	 ldr         r3, [sp, #0x5C]
  004b8	e283300c	 add         r3, r3, #0xC
  004bc	e5933000	 ldr         r3, [r3]
  004c0	e3130301	 tst         r3, #1, 6
  004c4	0a00000a	 beq         |$LN3@DumpDD_FLI|

; 73   :         DEBUGMSG(GPE_ZONE_DDRAW_HAL, (TEXT("  DDFLIP_INTERVAL4; \r\n")));

  004c8	e59f30b4	 ldr         r3, [pc, #0xB4]
  004cc	e5933440	 ldr         r3, [r3, #0x440]
  004d0	e3130902	 tst         r3, #2, 18
  004d4	0a000004	 beq         |$LN34@DumpDD_FLI|
  004d8	e59f00ac	 ldr         r0, [pc, #0xAC]
  004dc	eb000000	 bl          NKDbgPrintfW
  004e0	e3a03001	 mov         r3, #1
  004e4	e58d3048	 str         r3, [sp, #0x48]
  004e8	ea000001	 b           |$LN35@DumpDD_FLI|
  004ec		 |$LN34@DumpDD_FLI|
  004ec	e3a03000	 mov         r3, #0
  004f0	e58d3048	 str         r3, [sp, #0x48]
  004f4		 |$LN35@DumpDD_FLI|
  004f4		 |$LN3@DumpDD_FLI|

; 74   :     if( pd->dwFlags & DDFLIP_WAITNOTBUSY )

  004f4	e59d305c	 ldr         r3, [sp, #0x5C]
  004f8	e283300c	 add         r3, r3, #0xC
  004fc	e5933000	 ldr         r3, [r3]
  00500	e3130008	 tst         r3, #8
  00504	0a00000a	 beq         |$LN2@DumpDD_FLI|

; 75   :         DEBUGMSG(GPE_ZONE_DDRAW_HAL, (TEXT("  DDFLIP_WAITNOTBUSY; \r\n")));

  00508	e59f3074	 ldr         r3, [pc, #0x74]
  0050c	e5933440	 ldr         r3, [r3, #0x440]
  00510	e3130902	 tst         r3, #2, 18
  00514	0a000004	 beq         |$LN36@DumpDD_FLI|
  00518	e59f0068	 ldr         r0, [pc, #0x68]
  0051c	eb000000	 bl          NKDbgPrintfW
  00520	e3a03001	 mov         r3, #1
  00524	e58d304c	 str         r3, [sp, #0x4C]
  00528	ea000001	 b           |$LN37@DumpDD_FLI|
  0052c		 |$LN36@DumpDD_FLI|
  0052c	e3a03000	 mov         r3, #0
  00530	e58d304c	 str         r3, [sp, #0x4C]
  00534		 |$LN37@DumpDD_FLI|
  00534		 |$LN2@DumpDD_FLI|

; 76   :     if( pd->dwFlags & DDFLIP_WAITVSYNC )

  00534	e59d305c	 ldr         r3, [sp, #0x5C]
  00538	e283300c	 add         r3, r3, #0xC
  0053c	e5933000	 ldr         r3, [r3]
  00540	e3130001	 tst         r3, #1
  00544	0a00000a	 beq         |$LN1@DumpDD_FLI|

; 77   :         DEBUGMSG(GPE_ZONE_DDRAW_HAL, (TEXT("  DDFLIP_WAITVSYNC; \r\n")));

  00548	e59f3034	 ldr         r3, [pc, #0x34]
  0054c	e5933440	 ldr         r3, [r3, #0x440]
  00550	e3130902	 tst         r3, #2, 18
  00554	0a000004	 beq         |$LN38@DumpDD_FLI|
  00558	e59f0020	 ldr         r0, [pc, #0x20]
  0055c	eb000000	 bl          NKDbgPrintfW
  00560	e3a03001	 mov         r3, #1
  00564	e58d3050	 str         r3, [sp, #0x50]
  00568	ea000001	 b           |$LN39@DumpDD_FLI|
  0056c		 |$LN38@DumpDD_FLI|
  0056c	e3a03000	 mov         r3, #0
  00570	e58d3050	 str         r3, [sp, #0x50]
  00574		 |$LN39@DumpDD_FLI|
  00574		 |$LN1@DumpDD_FLI|

; 78   :     
; 79   : }

  00574	e28dd054	 add         sp, sp, #0x54
  00578	e89d6000	 ldmia       sp, {sp, lr}
  0057c	e12fff1e	 bx          lr
  00580		 |$LN43@DumpDD_FLI|
  00580		 |$LN44@DumpDD_FLI|
  00580	00000000	 DCD         |??_C@_1CO@JNKGJKJD@?$AA?5?$AA?5?$AAD?$AAD?$AAF?$AAL?$AAI?$AAP?$AA_?$AAW?$AAA?$AAI?$AAT?$AAV?$AAS?$AAY?$AAN?$AAC?$AA?$DL?$AA?5?$AA?$AN?$AA?6?$AA?$AA@|
  00584		 |$LN45@DumpDD_FLI|
  00584	00000000	 DCD         |dpCurSettings|
  00588		 |$LN46@DumpDD_FLI|
  00588	00000000	 DCD         |??_C@_1DC@POAEGME@?$AA?5?$AA?5?$AAD?$AAD?$AAF?$AAL?$AAI?$AAP?$AA_?$AAW?$AAA?$AAI?$AAT?$AAN?$AAO?$AAT?$AAB?$AAU?$AAS?$AAY?$AA?$DL?$AA?5?$AA?$AN?$AA?6?$AA?$AA@|
  0058c		 |$LN47@DumpDD_FLI|
  0058c	00000000	 DCD         |??_C@_1CO@HGAFOKLM@?$AA?5?$AA?5?$AAD?$AAD?$AAF?$AAL?$AAI?$AAP?$AA_?$AAI?$AAN?$AAT?$AAE?$AAR?$AAV?$AAA?$AAL?$AA4?$AA?$DL?$AA?5?$AA?$AN?$AA?6?$AA?$AA@|
  00590		 |$LN48@DumpDD_FLI|
  00590	00000000	 DCD         |??_C@_1CO@JJDIEPFM@?$AA?5?$AA?5?$AAD?$AAD?$AAF?$AAL?$AAI?$AAP?$AA_?$AAI?$AAN?$AAT?$AAE?$AAR?$AAV?$AAA?$AAL?$AA2?$AA?$DL?$AA?5?$AA?$AN?$AA?6?$AA?$AA@|
  00594		 |$LN49@DumpDD_FLI|
  00594	00000000	 DCD         |??_C@_1CO@OOKGJNKM@?$AA?5?$AA?5?$AAD?$AAD?$AAF?$AAL?$AAI?$AAP?$AA_?$AAI?$AAN?$AAT?$AAE?$AAR?$AAV?$AAA?$AAL?$AA1?$AA?$DL?$AA?5?$AA?$AN?$AA?6?$AA?$AA@|
  00598		 |$LN50@DumpDD_FLI|
  00598	00000000	 DCD         |??_C@_1CC@IJIBDJHI@?$AA?5?$AA?5?$AAD?$AAD?$AAF?$AAL?$AAI?$AAP?$AA_?$AAO?$AAD?$AAD?$AA?$DL?$AA?5?$AA?$AN?$AA?6?$AA?$AA@|
  0059c		 |$LN51@DumpDD_FLI|
  0059c	00000000	 DCD         |??_C@_1CE@CFICOGND@?$AA?5?$AA?5?$AAD?$AAD?$AAF?$AAL?$AAI?$AAP?$AA_?$AAE?$AAV?$AAE?$AAN?$AA?$DL?$AA?5?$AA?$AN?$AA?6?$AA?$AA@|
  005a0		 |$LN52@DumpDD_FLI|
  005a0	00000000	 DCD         |??_C@_1EE@EDEFPOBH@?$AAp?$AAd?$AA?9?$AA?$DO?$AAd?$AAw?$AAF?$AAl?$AAa?$AAg?$AAs?$AA?5?$AA?5?$AA?5?$AA?5?$AA?5?$AA?5?$AA?5?$AA?5?$AA?5?$AA?5?$AA?5?$AA?5?$AA?5?$AA?5?$AA?$DN?$AA?5?$AA0?$AAx?$AA?$CF?$AAx?$AA?$AN@|
  005a4		 |$LN53@DumpDD_FLI|
  005a4	00000000	 DCD         |??_C@_1EE@LELPNPKN@?$AAp?$AAd?$AA?9?$AA?$DO?$AAl?$AAp?$AAS?$AAu?$AAr?$AAf?$AAT?$AAa?$AAr?$AAg?$AA?5?$AAv?$AAi?$AAd?$AAm?$AAe?$AAm?$AA?5?$AA?5?$AA?5?$AA?5?$AA?$DN?$AA?5?$AA0?$AAx?$AA?$CF?$AAx?$AA?$AN@|
  005a8		 |$LN54@DumpDD_FLI|
  005a8	00000000	 DCD         |??_C@_1EE@PCCGGCAA@?$AAp?$AAd?$AA?9?$AA?$DO?$AAl?$AAp?$AAS?$AAu?$AAr?$AAf?$AAT?$AAa?$AAr?$AAg?$AA?5?$AAd?$AAd?$AAs?$AAu?$AAr?$AAf?$AA?5?$AA?5?$AA?5?$AA?5?$AA?$DN?$AA?5?$AA0?$AAx?$AA?$CF?$AAx?$AA?$AN@|
  005ac		 |$LN55@DumpDD_FLI|
  005ac	00000000	 DCD         |??_C@_1EE@FHNCIGLE@?$AAp?$AAd?$AA?9?$AA?$DO?$AAl?$AAp?$AAS?$AAu?$AAr?$AAf?$AAT?$AAa?$AAr?$AAg?$AA?5?$AA?5?$AA?5?$AA?5?$AA?5?$AA?5?$AA?5?$AA?5?$AA?5?$AA?5?$AA?5?$AA?$DN?$AA?5?$AA0?$AAx?$AA?$CF?$AAx?$AA?$AN@|
  005b0		 |$LN56@DumpDD_FLI|
  005b0	00000000	 DCD         |??_C@_1EE@IHCGKEDJ@?$AAp?$AAd?$AA?9?$AA?$DO?$AAl?$AAp?$AAS?$AAu?$AAr?$AAf?$AAC?$AAu?$AAr?$AAr?$AA?5?$AAv?$AAi?$AAd?$AAm?$AAe?$AAm?$AA?5?$AA?5?$AA?5?$AA?5?$AA?$DN?$AA?5?$AA0?$AAx?$AA?$CF?$AAx?$AA?$AN@|
  005b4		 |$LN57@DumpDD_FLI|
  005b4	00000000	 DCD         |??_C@_1EE@MBLPBJJE@?$AAp?$AAd?$AA?9?$AA?$DO?$AAl?$AAp?$AAS?$AAu?$AAr?$AAf?$AAC?$AAu?$AAr?$AAr?$AA?5?$AAd?$AAd?$AAs?$AAu?$AAr?$AAf?$AA?5?$AA?5?$AA?5?$AA?5?$AA?$DN?$AA?5?$AA0?$AAx?$AA?$CF?$AAx?$AA?$AN@|
  005b8		 |$LN58@DumpDD_FLI|
  005b8	00000000	 DCD         |??_C@_1EE@GEELPNCA@?$AAp?$AAd?$AA?9?$AA?$DO?$AAl?$AAp?$AAS?$AAu?$AAr?$AAf?$AAC?$AAu?$AAr?$AAr?$AA?5?$AA?5?$AA?5?$AA?5?$AA?5?$AA?5?$AA?5?$AA?5?$AA?5?$AA?5?$AA?5?$AA?$DN?$AA?5?$AA0?$AAx?$AA?$CF?$AAx?$AA?$AN@|
  005bc		 |$LN59@DumpDD_FLI|
  005bc	00000000	 DCD         |??_C@_1CI@KAFDCBDD@?$AAL?$AAP?$AAD?$AAD?$AAH?$AAA?$AAL?$AA_?$AAF?$AAL?$AAI?$AAP?$AAD?$AAA?$AAT?$AAA?$AA?3?$AA?$AN?$AA?6?$AA?$AA@|
  005c0		 |$M42579|

			 ENDP  ; |?DumpDD_FLIP@@YAXPAU_DDHAL_FLIPDATA@@@Z|, DumpDD_FLIP

; File c:\wince600\public\common\oak\inc\gpe.h

  00000			 AREA	 |.pdata|, PDATA
|$T42604| DCD	|$LN5@Buffer|
	DCD	0x40000c04
; Function compile flags: /Odtp

  00000			 AREA	 |.text|, CODE, ARM

  00000		 |?Buffer@GPESurf@@QAAPAXXZ| PROC	; GPESurf::Buffer

; 201  :     {

  00000		 |$LN5@Buffer|
  00000	e1a0c00d	 mov         r12, sp
  00004	e92d0001	 stmdb       sp!, {r0}
  00008	e92d5000	 stmdb       sp!, {r12, lr}
  0000c	e24dd004	 sub         sp, sp, #4
  00010		 |$M42601|

; 202  :         return (void *)m_pVirtAddr;

  00010	e59d300c	 ldr         r3, [sp, #0xC]
  00014	e2833004	 add         r3, r3, #4
  00018	e5933000	 ldr         r3, [r3]
  0001c	e58d3000	 str         r3, [sp]

; 203  :     }

  00020	e59d0000	 ldr         r0, [sp]
  00024	e28dd004	 add         sp, sp, #4
  00028	e89d6000	 ldmia       sp, {sp, lr}
  0002c	e12fff1e	 bx          lr
  00030		 |$M42602|

			 ENDP  ; |?Buffer@GPESurf@@QAAPAXXZ|, GPESurf::Buffer

	EXPORT	|??_C@_1DC@DHMFGCPJ@?$AA?5?$AA?5?$AAD?$AAD?$AAL?$AAO?$AAC?$AAK?$AA_?$AAW?$AAA?$AAI?$AAT?$AAN?$AAO?$AAT?$AAB?$AAU?$AAS?$AAY?$AA?$DL?$AA?5?$AA?$AN?$AA?6?$AA?$AA@| [ DATA ] ; `string'
	EXPORT	|??_C@_1CO@DGNNOLEH@?$AA?5?$AA?5?$AAD?$AAD?$AAL?$AAO?$AAC?$AAK?$AA_?$AAW?$AAR?$AAI?$AAT?$AAE?$AAO?$AAN?$AAL?$AAY?$AA?$DL?$AA?5?$AA?$AN?$AA?6?$AA?$AA@| [ DATA ] ; `string'
	EXPORT	|??_C@_1CM@CBKBKPHP@?$AA?5?$AA?5?$AAD?$AAD?$AAL?$AAO?$AAC?$AAK?$AA_?$AAR?$AAE?$AAA?$AAD?$AAO?$AAN?$AAL?$AAY?$AA?$DL?$AA?5?$AA?$AN?$AA?6?$AA?$AA@| [ DATA ] ; `string'
	EXPORT	|??_C@_1CK@CCHFCAAC@?$AA?5?$AA?5?$AAD?$AAD?$AAL?$AAO?$AAC?$AAK?$AA_?$AAD?$AAI?$AAS?$AAC?$AAA?$AAR?$AAD?$AA?$DL?$AA?5?$AA?$AN?$AA?6?$AA?$AA@| [ DATA ] ; `string'
	EXPORT	|??_C@_1EE@LGKJMAFM@?$AAp?$AAd?$AA?9?$AA?$DO?$AAl?$AAp?$AAS?$AAu?$AAr?$AAf?$AAD?$AAa?$AAt?$AAa?$AA?5?$AA?5?$AA?5?$AA?5?$AA?5?$AA?5?$AA?5?$AA?5?$AA?5?$AA?5?$AA?5?$AA?$DN?$AA?5?$AA0?$AAx?$AA?$CF?$AAx?$AA?$AN@| [ DATA ] ; `string'
	EXPORT	|??_C@_1FK@CNBNJJIP@?$AAp?$AAd?$AA?9?$AA?$DO?$AAr?$AAA?$AAr?$AAe?$AAa?$AA?5?$AA?5?$AA?5?$AA?5?$AA?5?$AA?5?$AA?5?$AA?5?$AA?5?$AA?5?$AA?5?$AA?5?$AA?5?$AA?5?$AA?5?$AA?5?$AA?$DN?$AA?5?$AA?$CI?$AA?$CF?$AAd?$AA?0?$AA?$CF@| [ DATA ] ; `string'
	EXPORT	|??_C@_1EA@KDOOBPB@?$AAp?$AAd?$AA?9?$AA?$DO?$AAb?$AAH?$AAa?$AAs?$AAR?$AAe?$AAc?$AAt?$AA?5?$AA?5?$AA?5?$AA?5?$AA?5?$AA?5?$AA?5?$AA?5?$AA?5?$AA?5?$AA?5?$AA?5?$AA?5?$AA?$DN?$AA?5?$AA?$CF?$AAd?$AA?$AN?$AA?6?$AA?$AA@| [ DATA ] ; `string'
	EXPORT	|??_C@_1EE@FHBBIGLO@?$AAp?$AAd?$AA?9?$AA?$DO?$AAl?$AAp?$AAD?$AAD?$AAS?$AAu?$AAr?$AAf?$AAa?$AAc?$AAe?$AA?5?$AAv?$AAi?$AAd?$AAm?$AAe?$AAm?$AA?5?$AA?5?$AA?5?$AA?$DN?$AA?5?$AA0?$AAx?$AA?$CF?$AAx?$AA?$AN@| [ DATA ] ; `string'
	EXPORT	|??_C@_1EE@NOJCDMLG@?$AAp?$AAd?$AA?9?$AA?$DO?$AAl?$AAp?$AAD?$AAD?$AAS?$AAu?$AAr?$AAf?$AAa?$AAc?$AAe?$AA?5?$AA?5?$AA?5?$AA?5?$AA?5?$AA?5?$AA?5?$AA?5?$AA?5?$AA?5?$AA?$DN?$AA?5?$AA0?$AAx?$AA?$CF?$AAx?$AA?$AN@| [ DATA ] ; `string'
	EXPORT	|??_C@_1CI@BGHMPDIK@?$AAL?$AAP?$AAD?$AAD?$AAH?$AAA?$AAL?$AA_?$AAL?$AAO?$AAC?$AAK?$AAD?$AAA?$AAT?$AAA?$AA?3?$AA?$AN?$AA?6?$AA?$AA@| [ DATA ] ; `string'
	EXPORT	|?DumpDD_LOCK@@YAXPAU_DDHAL_LOCKDATA@@@Z| ; DumpDD_LOCK

  00018			 AREA	 |.pdata|, PDATA
|$T42634| DCD	|$LN31@DumpDD_LOC|
	DCD	0x4000c404
; File c:\wince600\platform\common\src\soc\common_ti_v1\common_ti\dss\ddgpe\haldebug.cpp

  00000			 AREA	 |.rdata|, DATA, READONLY
|??_C@_1DC@DHMFGCPJ@?$AA?5?$AA?5?$AAD?$AAD?$AAL?$AAO?$AAC?$AAK?$AA_?$AAW?$AAA?$AAI?$AAT?$AAN?$AAO?$AAT?$AAB?$AAU?$AAS?$AAY?$AA?$DL?$AA?5?$AA?$AN?$AA?6?$AA?$AA@| DCB " "
	DCB	0x0, " ", 0x0, "D", 0x0, "D", 0x0, "L", 0x0, "O", 0x0, "C"
	DCB	0x0, "K", 0x0, "_", 0x0, "W", 0x0, "A", 0x0, "I", 0x0, "T"
	DCB	0x0, "N", 0x0, "O", 0x0, "T", 0x0, "B", 0x0, "U", 0x0, "S"
	DCB	0x0, "Y", 0x0, ";", 0x0, " ", 0x0, 0xd, 0x0, 0xa, 0x0, 0x0
	DCB	0x0					; `string'

  00000			 AREA	 |.rdata|, DATA, READONLY
|??_C@_1CO@DGNNOLEH@?$AA?5?$AA?5?$AAD?$AAD?$AAL?$AAO?$AAC?$AAK?$AA_?$AAW?$AAR?$AAI?$AAT?$AAE?$AAO?$AAN?$AAL?$AAY?$AA?$DL?$AA?5?$AA?$AN?$AA?6?$AA?$AA@| DCB " "
	DCB	0x0, " ", 0x0, "D", 0x0, "D", 0x0, "L", 0x0, "O", 0x0, "C"
	DCB	0x0, "K", 0x0, "_", 0x0, "W", 0x0, "R", 0x0, "I", 0x0, "T"
	DCB	0x0, "E", 0x0, "O", 0x0, "N", 0x0, "L", 0x0, "Y", 0x0, ";"
	DCB	0x0, " ", 0x0, 0xd, 0x0, 0xa, 0x0, 0x0, 0x0 ; `string'

  00000			 AREA	 |.rdata|, DATA, READONLY
|??_C@_1CM@CBKBKPHP@?$AA?5?$AA?5?$AAD?$AAD?$AAL?$AAO?$AAC?$AAK?$AA_?$AAR?$AAE?$AAA?$AAD?$AAO?$AAN?$AAL?$AAY?$AA?$DL?$AA?5?$AA?$AN?$AA?6?$AA?$AA@| DCB " "
	DCB	0x0, " ", 0x0, "D", 0x0, "D", 0x0, "L", 0x0, "O", 0x0, "C"
	DCB	0x0, "K", 0x0, "_", 0x0, "R", 0x0, "E", 0x0, "A", 0x0, "D"
	DCB	0x0, "O", 0x0, "N", 0x0, "L", 0x0, "Y", 0x0, ";", 0x0, " "
	DCB	0x0, 0xd, 0x0, 0xa, 0x0, 0x0, 0x0	; `string'

  00000			 AREA	 |.rdata|, DATA, READONLY
|??_C@_1CK@CCHFCAAC@?$AA?5?$AA?5?$AAD?$AAD?$AAL?$AAO?$AAC?$AAK?$AA_?$AAD?$AAI?$AAS?$AAC?$AAA?$AAR?$AAD?$AA?$DL?$AA?5?$AA?$AN?$AA?6?$AA?$AA@| DCB " "
	DCB	0x0, " ", 0x0, "D", 0x0, "D", 0x0, "L", 0x0, "O", 0x0, "C"
	DCB	0x0, "K", 0x0, "_", 0x0, "D", 0x0, "I", 0x0, "S", 0x0, "C"
	DCB	0x0, "A", 0x0, "R", 0x0, "D", 0x0, ";", 0x0, " ", 0x0, 0xd
	DCB	0x0, 0xa, 0x0, 0x0, 0x0			; `string'

  00000			 AREA	 |.rdata|, DATA, READONLY
|??_C@_1EE@LGKJMAFM@?$AAp?$AAd?$AA?9?$AA?$DO?$AAl?$AAp?$AAS?$AAu?$AAr?$AAf?$AAD?$AAa?$AAt?$AAa?$AA?5?$AA?5?$AA?5?$AA?5?$AA?5?$AA?5?$AA?5?$AA?5?$AA?5?$AA?5?$AA?5?$AA?$DN?$AA?5?$AA0?$AAx?$AA?$CF?$AAx?$AA?$AN@| DCB "p"
	DCB	0x0, "d", 0x0, "-", 0x0, ">", 0x0, "l", 0x0, "p", 0x0, "S"
	DCB	0x0, "u", 0x0, "r", 0x0, "f", 0x0, "D", 0x0, "a", 0x0, "t"
	DCB	0x0, "a", 0x0, " ", 0x0, " ", 0x0, " ", 0x0, " ", 0x0, " "
	DCB	0x0, " ", 0x0, " ", 0x0, " ", 0x0, " ", 0x0, " ", 0x0, " "
	DCB	0x0, "=", 0x0, " ", 0x0, "0", 0x0, "x", 0x0, "%", 0x0, "x"
	DCB	0x0, 0xd, 0x0, 0xa, 0x0, 0x0, 0x0	; `string'

  00000			 AREA	 |.rdata|, DATA, READONLY
|??_C@_1FK@CNBNJJIP@?$AAp?$AAd?$AA?9?$AA?$DO?$AAr?$AAA?$AAr?$AAe?$AAa?$AA?5?$AA?5?$AA?5?$AA?5?$AA?5?$AA?5?$AA?5?$AA?5?$AA?5?$AA?5?$AA?5?$AA?5?$AA?5?$AA?5?$AA?5?$AA?5?$AA?$DN?$AA?5?$AA?$CI?$AA?$CF?$AAd?$AA?0?$AA?$CF@| DCB "p"
	DCB	0x0, "d", 0x0, "-", 0x0, ">", 0x0, "r", 0x0, "A", 0x0, "r"
	DCB	0x0, "e", 0x0, "a", 0x0, " ", 0x0, " ", 0x0, " ", 0x0, " "
	DCB	0x0, " ", 0x0, " ", 0x0, " ", 0x0, " ", 0x0, " ", 0x0, " "
	DCB	0x0, " ", 0x0, " ", 0x0, " ", 0x0, " ", 0x0, " ", 0x0, " "
	DCB	0x0, "=", 0x0, " ", 0x0, "(", 0x0, "%", 0x0, "d", 0x0, ","
	DCB	0x0, "%", 0x0, "d", 0x0, ")", 0x0, " ", 0x0, "(", 0x0, "%"
	DCB	0x0, "d", 0x0, ",", 0x0, "%", 0x0, "d", 0x0, ")", 0x0, 0xd
	DCB	0x0, 0xa, 0x0, 0x0, 0x0			; `string'

  00000			 AREA	 |.rdata|, DATA, READONLY
|??_C@_1EA@KDOOBPB@?$AAp?$AAd?$AA?9?$AA?$DO?$AAb?$AAH?$AAa?$AAs?$AAR?$AAe?$AAc?$AAt?$AA?5?$AA?5?$AA?5?$AA?5?$AA?5?$AA?5?$AA?5?$AA?5?$AA?5?$AA?5?$AA?5?$AA?5?$AA?5?$AA?$DN?$AA?5?$AA?$CF?$AAd?$AA?$AN?$AA?6?$AA?$AA@| DCB "p"
	DCB	0x0, "d", 0x0, "-", 0x0, ">", 0x0, "b", 0x0, "H", 0x0, "a"
	DCB	0x0, "s", 0x0, "R", 0x0, "e", 0x0, "c", 0x0, "t", 0x0, " "
	DCB	0x0, " ", 0x0, " ", 0x0, " ", 0x0, " ", 0x0, " ", 0x0, " "
	DCB	0x0, " ", 0x0, " ", 0x0, " ", 0x0, " ", 0x0, " ", 0x0, " "
	DCB	0x0, "=", 0x0, " ", 0x0, "%", 0x0, "d", 0x0, 0xd, 0x0, 0xa
	DCB	0x0, 0x0, 0x0				; `string'

  00000			 AREA	 |.rdata|, DATA, READONLY
|??_C@_1EE@FHBBIGLO@?$AAp?$AAd?$AA?9?$AA?$DO?$AAl?$AAp?$AAD?$AAD?$AAS?$AAu?$AAr?$AAf?$AAa?$AAc?$AAe?$AA?5?$AAv?$AAi?$AAd?$AAm?$AAe?$AAm?$AA?5?$AA?5?$AA?5?$AA?$DN?$AA?5?$AA0?$AAx?$AA?$CF?$AAx?$AA?$AN@| DCB "p"
	DCB	0x0, "d", 0x0, "-", 0x0, ">", 0x0, "l", 0x0, "p", 0x0, "D"
	DCB	0x0, "D", 0x0, "S", 0x0, "u", 0x0, "r", 0x0, "f", 0x0, "a"
	DCB	0x0, "c", 0x0, "e", 0x0, " ", 0x0, "v", 0x0, "i", 0x0, "d"
	DCB	0x0, "m", 0x0, "e", 0x0, "m", 0x0, " ", 0x0, " ", 0x0, " "
	DCB	0x0, "=", 0x0, " ", 0x0, "0", 0x0, "x", 0x0, "%", 0x0, "x"
	DCB	0x0, 0xd, 0x0, 0xa, 0x0, 0x0, 0x0	; `string'

  00000			 AREA	 |.rdata|, DATA, READONLY
|??_C@_1EE@NOJCDMLG@?$AAp?$AAd?$AA?9?$AA?$DO?$AAl?$AAp?$AAD?$AAD?$AAS?$AAu?$AAr?$AAf?$AAa?$AAc?$AAe?$AA?5?$AA?5?$AA?5?$AA?5?$AA?5?$AA?5?$AA?5?$AA?5?$AA?5?$AA?5?$AA?$DN?$AA?5?$AA0?$AAx?$AA?$CF?$AAx?$AA?$AN@| DCB "p"
	DCB	0x0, "d", 0x0, "-", 0x0, ">", 0x0, "l", 0x0, "p", 0x0, "D"
	DCB	0x0, "D", 0x0, "S", 0x0, "u", 0x0, "r", 0x0, "f", 0x0, "a"
	DCB	0x0, "c", 0x0, "e", 0x0, " ", 0x0, " ", 0x0, " ", 0x0, " "
	DCB	0x0, " ", 0x0, " ", 0x0, " ", 0x0, " ", 0x0, " ", 0x0, " "
	DCB	0x0, "=", 0x0, " ", 0x0, "0", 0x0, "x", 0x0, "%", 0x0, "x"
	DCB	0x0, 0xd, 0x0, 0xa, 0x0, 0x0, 0x0	; `string'

  00000			 AREA	 |.rdata|, DATA, READONLY
|??_C@_1CI@BGHMPDIK@?$AAL?$AAP?$AAD?$AAD?$AAH?$AAA?$AAL?$AA_?$AAL?$AAO?$AAC?$AAK?$AAD?$AAA?$AAT?$AAA?$AA?3?$AA?$AN?$AA?6?$AA?$AA@| DCB "L"
	DCB	0x0, "P", 0x0, "D", 0x0, "D", 0x0, "H", 0x0, "A", 0x0, "L"
	DCB	0x0, "_", 0x0, "L", 0x0, "O", 0x0, "C", 0x0, "K", 0x0, "D"
	DCB	0x0, "A", 0x0, "T", 0x0, "A", 0x0, ":", 0x0, 0xd, 0x0, 0xa
	DCB	0x0, 0x0, 0x0				; `string'
; Function compile flags: /Odtp

  005c0			 AREA	 |.text|, CODE, ARM

  005c0		 |?DumpDD_LOCK@@YAXPAU_DDHAL_LOCKDATA@@@Z| PROC ; DumpDD_LOCK

; 86   : {

  005c0		 |$LN31@DumpDD_LOC|
  005c0	e1a0c00d	 mov         r12, sp
  005c4	e92d0001	 stmdb       sp!, {r0}
  005c8	e92d5000	 stmdb       sp!, {r12, lr}
  005cc	e24dd040	 sub         sp, sp, #0x40
  005d0		 |$M42631|

; 87   :     DDGPESurf*  surfCurr = DDGPESurf::GetDDGPESurf(pd->lpDDSurface);

  005d0	e59d3048	 ldr         r3, [sp, #0x48]
  005d4	e2833004	 add         r3, r3, #4
  005d8	e5930000	 ldr         r0, [r3]
  005dc	eb000000	 bl          |?GetDDGPESurf@DDGPESurf@@SAPAV1@PAU_DDRAWI_DDRAWSURFACE_LCL@@@Z|
  005e0	e58d000c	 str         r0, [sp, #0xC]
  005e4	e59d300c	 ldr         r3, [sp, #0xC]
  005e8	e58d3004	 str         r3, [sp, #4]

; 88   : 
; 89   :     DEBUGMSG(GPE_ZONE_DDRAW_HAL, (L"LPDDHAL_LOCKDATA:\r\n"));

  005ec	e59f32b0	 ldr         r3, [pc, #0x2B0]
  005f0	e5933440	 ldr         r3, [r3, #0x440]
  005f4	e3130902	 tst         r3, #2, 18
  005f8	0a000004	 beq         |$LN7@DumpDD_LOC|
  005fc	e59f02c8	 ldr         r0, [pc, #0x2C8]
  00600	eb000000	 bl          NKDbgPrintfW
  00604	e3a03001	 mov         r3, #1
  00608	e58d3010	 str         r3, [sp, #0x10]
  0060c	ea000001	 b           |$LN8@DumpDD_LOC|
  00610		 |$LN7@DumpDD_LOC|
  00610	e3a03000	 mov         r3, #0
  00614	e58d3010	 str         r3, [sp, #0x10]
  00618		 |$LN8@DumpDD_LOC|

; 90   :     DEBUGMSG(GPE_ZONE_DDRAW_HAL, (L"pd->lpDDSurface          = 0x%x\r\n", pd->lpDDSurface));

  00618	e59f3284	 ldr         r3, [pc, #0x284]
  0061c	e5933440	 ldr         r3, [r3, #0x440]
  00620	e3130902	 tst         r3, #2, 18
  00624	0a000007	 beq         |$LN9@DumpDD_LOC|
  00628	e59d3048	 ldr         r3, [sp, #0x48]
  0062c	e2833004	 add         r3, r3, #4
  00630	e5931000	 ldr         r1, [r3]
  00634	e59f028c	 ldr         r0, [pc, #0x28C]
  00638	eb000000	 bl          NKDbgPrintfW
  0063c	e3a03001	 mov         r3, #1
  00640	e58d3014	 str         r3, [sp, #0x14]
  00644	ea000001	 b           |$LN10@DumpDD_LOC|
  00648		 |$LN9@DumpDD_LOC|
  00648	e3a03000	 mov         r3, #0
  0064c	e58d3014	 str         r3, [sp, #0x14]
  00650		 |$LN10@DumpDD_LOC|

; 91   :     DEBUGMSG(GPE_ZONE_DDRAW_HAL, (L"pd->lpDDSurface vidmem   = 0x%x\r\n", surfCurr->Buffer()));

  00650	e59f324c	 ldr         r3, [pc, #0x24C]
  00654	e5933440	 ldr         r3, [r3, #0x440]
  00658	e3130902	 tst         r3, #2, 18
  0065c	0a000008	 beq         |$LN11@DumpDD_LOC|
  00660	e59d0004	 ldr         r0, [sp, #4]
  00664	eb000000	 bl          |?Buffer@GPESurf@@QAAPAXXZ|
  00668	e58d0018	 str         r0, [sp, #0x18]
  0066c	e59d1018	 ldr         r1, [sp, #0x18]
  00670	e59f024c	 ldr         r0, [pc, #0x24C]
  00674	eb000000	 bl          NKDbgPrintfW
  00678	e3a03001	 mov         r3, #1
  0067c	e58d301c	 str         r3, [sp, #0x1C]
  00680	ea000001	 b           |$LN12@DumpDD_LOC|
  00684		 |$LN11@DumpDD_LOC|
  00684	e3a03000	 mov         r3, #0
  00688	e58d301c	 str         r3, [sp, #0x1C]
  0068c		 |$LN12@DumpDD_LOC|

; 92   :     DEBUGMSG(GPE_ZONE_DDRAW_HAL, (L"pd->bHasRect             = %d\r\n", pd->bHasRect));

  0068c	e59f3210	 ldr         r3, [pc, #0x210]
  00690	e5933440	 ldr         r3, [r3, #0x440]
  00694	e3130902	 tst         r3, #2, 18
  00698	0a000007	 beq         |$LN13@DumpDD_LOC|
  0069c	e59d3048	 ldr         r3, [sp, #0x48]
  006a0	e2833008	 add         r3, r3, #8
  006a4	e5931000	 ldr         r1, [r3]
  006a8	e59f0210	 ldr         r0, [pc, #0x210]
  006ac	eb000000	 bl          NKDbgPrintfW
  006b0	e3a03001	 mov         r3, #1
  006b4	e58d3020	 str         r3, [sp, #0x20]
  006b8	ea000001	 b           |$LN14@DumpDD_LOC|
  006bc		 |$LN13@DumpDD_LOC|
  006bc	e3a03000	 mov         r3, #0
  006c0	e58d3020	 str         r3, [sp, #0x20]
  006c4		 |$LN14@DumpDD_LOC|

; 93   :     DEBUGMSG(GPE_ZONE_DDRAW_HAL, (L"pd->rArea                = (%d,%d) (%d,%d)\r\n", pd->rArea.left, pd->rArea.top, pd->rArea.right, pd->rArea.bottom ));

  006c4	e59f31d8	 ldr         r3, [pc, #0x1D8]
  006c8	e5933440	 ldr         r3, [r3, #0x440]
  006cc	e3130902	 tst         r3, #2, 18
  006d0	0a000011	 beq         |$LN15@DumpDD_LOC|
  006d4	e59d3048	 ldr         r3, [sp, #0x48]
  006d8	e2833018	 add         r3, r3, #0x18
  006dc	e5933000	 ldr         r3, [r3]
  006e0	e58d3000	 str         r3, [sp]
  006e4	e59d3048	 ldr         r3, [sp, #0x48]
  006e8	e2833014	 add         r3, r3, #0x14
  006ec	e5933000	 ldr         r3, [r3]
  006f0	e59d2048	 ldr         r2, [sp, #0x48]
  006f4	e2822010	 add         r2, r2, #0x10
  006f8	e5922000	 ldr         r2, [r2]
  006fc	e59d1048	 ldr         r1, [sp, #0x48]
  00700	e281100c	 add         r1, r1, #0xC
  00704	e5911000	 ldr         r1, [r1]
  00708	e59f01ac	 ldr         r0, [pc, #0x1AC]
  0070c	eb000000	 bl          NKDbgPrintfW
  00710	e3a03001	 mov         r3, #1
  00714	e58d3024	 str         r3, [sp, #0x24]
  00718	ea000001	 b           |$LN16@DumpDD_LOC|
  0071c		 |$LN15@DumpDD_LOC|
  0071c	e3a03000	 mov         r3, #0
  00720	e58d3024	 str         r3, [sp, #0x24]
  00724		 |$LN16@DumpDD_LOC|

; 94   :     DEBUGMSG(GPE_ZONE_DDRAW_HAL, (L"pd->lpSurfData           = 0x%x\r\n", pd->lpSurfData));

  00724	e59f3178	 ldr         r3, [pc, #0x178]
  00728	e5933440	 ldr         r3, [r3, #0x440]
  0072c	e3130902	 tst         r3, #2, 18
  00730	0a000007	 beq         |$LN17@DumpDD_LOC|
  00734	e59d3048	 ldr         r3, [sp, #0x48]
  00738	e2833020	 add         r3, r3, #0x20
  0073c	e5931000	 ldr         r1, [r3]
  00740	e59f0170	 ldr         r0, [pc, #0x170]
  00744	eb000000	 bl          NKDbgPrintfW
  00748	e3a03001	 mov         r3, #1
  0074c	e58d3028	 str         r3, [sp, #0x28]
  00750	ea000001	 b           |$LN18@DumpDD_LOC|
  00754		 |$LN17@DumpDD_LOC|
  00754	e3a03000	 mov         r3, #0
  00758	e58d3028	 str         r3, [sp, #0x28]
  0075c		 |$LN18@DumpDD_LOC|

; 95   :     DEBUGMSG(GPE_ZONE_DDRAW_HAL, (L"pd->dwFlags              = 0x%x\r\n", pd->dwFlags ));

  0075c	e59f3140	 ldr         r3, [pc, #0x140]
  00760	e5933440	 ldr         r3, [r3, #0x440]
  00764	e3130902	 tst         r3, #2, 18
  00768	0a000007	 beq         |$LN19@DumpDD_LOC|
  0076c	e59d3048	 ldr         r3, [sp, #0x48]
  00770	e283301c	 add         r3, r3, #0x1C
  00774	e5931000	 ldr         r1, [r3]
  00778	e59f0134	 ldr         r0, [pc, #0x134]
  0077c	eb000000	 bl          NKDbgPrintfW
  00780	e3a03001	 mov         r3, #1
  00784	e58d302c	 str         r3, [sp, #0x2C]
  00788	ea000001	 b           |$LN20@DumpDD_LOC|
  0078c		 |$LN19@DumpDD_LOC|
  0078c	e3a03000	 mov         r3, #0
  00790	e58d302c	 str         r3, [sp, #0x2C]
  00794		 |$LN20@DumpDD_LOC|

; 96   : 
; 97   :     if( pd->dwFlags & DDLOCK_DISCARD )

  00794	e59d3048	 ldr         r3, [sp, #0x48]
  00798	e283301c	 add         r3, r3, #0x1C
  0079c	e5933000	 ldr         r3, [r3]
  007a0	e3130004	 tst         r3, #4
  007a4	0a00000a	 beq         |$LN4@DumpDD_LOC|

; 98   :         DEBUGMSG(GPE_ZONE_DDRAW_HAL, (TEXT("  DDLOCK_DISCARD; \r\n")));

  007a8	e59f30f4	 ldr         r3, [pc, #0xF4]
  007ac	e5933440	 ldr         r3, [r3, #0x440]
  007b0	e3130902	 tst         r3, #2, 18
  007b4	0a000004	 beq         |$LN21@DumpDD_LOC|
  007b8	e59f00f0	 ldr         r0, [pc, #0xF0]
  007bc	eb000000	 bl          NKDbgPrintfW
  007c0	e3a03001	 mov         r3, #1
  007c4	e58d3030	 str         r3, [sp, #0x30]
  007c8	ea000001	 b           |$LN22@DumpDD_LOC|
  007cc		 |$LN21@DumpDD_LOC|
  007cc	e3a03000	 mov         r3, #0
  007d0	e58d3030	 str         r3, [sp, #0x30]
  007d4		 |$LN22@DumpDD_LOC|
  007d4		 |$LN4@DumpDD_LOC|

; 99   :     if( pd->dwFlags & DDLOCK_READONLY )

  007d4	e59d3048	 ldr         r3, [sp, #0x48]
  007d8	e283301c	 add         r3, r3, #0x1C
  007dc	e5933000	 ldr         r3, [r3]
  007e0	e3130001	 tst         r3, #1
  007e4	0a00000a	 beq         |$LN3@DumpDD_LOC|

; 100  :         DEBUGMSG(GPE_ZONE_DDRAW_HAL, (TEXT("  DDLOCK_READONLY; \r\n")));

  007e8	e59f30b4	 ldr         r3, [pc, #0xB4]
  007ec	e5933440	 ldr         r3, [r3, #0x440]
  007f0	e3130902	 tst         r3, #2, 18
  007f4	0a000004	 beq         |$LN23@DumpDD_LOC|
  007f8	e59f00ac	 ldr         r0, [pc, #0xAC]
  007fc	eb000000	 bl          NKDbgPrintfW
  00800	e3a03001	 mov         r3, #1
  00804	e58d3034	 str         r3, [sp, #0x34]
  00808	ea000001	 b           |$LN24@DumpDD_LOC|
  0080c		 |$LN23@DumpDD_LOC|
  0080c	e3a03000	 mov         r3, #0
  00810	e58d3034	 str         r3, [sp, #0x34]
  00814		 |$LN24@DumpDD_LOC|
  00814		 |$LN3@DumpDD_LOC|

; 101  :     if( pd->dwFlags & DDLOCK_WRITEONLY )

  00814	e59d3048	 ldr         r3, [sp, #0x48]
  00818	e283301c	 add         r3, r3, #0x1C
  0081c	e5933000	 ldr         r3, [r3]
  00820	e3130002	 tst         r3, #2
  00824	0a00000a	 beq         |$LN2@DumpDD_LOC|

; 102  :         DEBUGMSG(GPE_ZONE_DDRAW_HAL, (TEXT("  DDLOCK_WRITEONLY; \r\n")));

  00828	e59f3074	 ldr         r3, [pc, #0x74]
  0082c	e5933440	 ldr         r3, [r3, #0x440]
  00830	e3130902	 tst         r3, #2, 18
  00834	0a000004	 beq         |$LN25@DumpDD_LOC|
  00838	e59f0068	 ldr         r0, [pc, #0x68]
  0083c	eb000000	 bl          NKDbgPrintfW
  00840	e3a03001	 mov         r3, #1
  00844	e58d3038	 str         r3, [sp, #0x38]
  00848	ea000001	 b           |$LN26@DumpDD_LOC|
  0084c		 |$LN25@DumpDD_LOC|
  0084c	e3a03000	 mov         r3, #0
  00850	e58d3038	 str         r3, [sp, #0x38]
  00854		 |$LN26@DumpDD_LOC|
  00854		 |$LN2@DumpDD_LOC|

; 103  :     if( pd->dwFlags & DDLOCK_WAITNOTBUSY )

  00854	e59d3048	 ldr         r3, [sp, #0x48]
  00858	e283301c	 add         r3, r3, #0x1C
  0085c	e5933000	 ldr         r3, [r3]
  00860	e3130008	 tst         r3, #8
  00864	0a00000a	 beq         |$LN1@DumpDD_LOC|

; 104  :         DEBUGMSG(GPE_ZONE_DDRAW_HAL, (TEXT("  DDLOCK_WAITNOTBUSY; \r\n")));

  00868	e59f3034	 ldr         r3, [pc, #0x34]
  0086c	e5933440	 ldr         r3, [r3, #0x440]
  00870	e3130902	 tst         r3, #2, 18
  00874	0a000004	 beq         |$LN27@DumpDD_LOC|
  00878	e59f0020	 ldr         r0, [pc, #0x20]
  0087c	eb000000	 bl          NKDbgPrintfW
  00880	e3a03001	 mov         r3, #1
  00884	e58d303c	 str         r3, [sp, #0x3C]
  00888	ea000001	 b           |$LN28@DumpDD_LOC|
  0088c		 |$LN27@DumpDD_LOC|
  0088c	e3a03000	 mov         r3, #0
  00890	e58d303c	 str         r3, [sp, #0x3C]
  00894		 |$LN28@DumpDD_LOC|
  00894		 |$LN1@DumpDD_LOC|

; 105  : }

  00894	e28dd040	 add         sp, sp, #0x40
  00898	e89d6000	 ldmia       sp, {sp, lr}
  0089c	e12fff1e	 bx          lr
  008a0		 |$LN32@DumpDD_LOC|
  008a0		 |$LN33@DumpDD_LOC|
  008a0	00000000	 DCD         |??_C@_1DC@DHMFGCPJ@?$AA?5?$AA?5?$AAD?$AAD?$AAL?$AAO?$AAC?$AAK?$AA_?$AAW?$AAA?$AAI?$AAT?$AAN?$AAO?$AAT?$AAB?$AAU?$AAS?$AAY?$AA?$DL?$AA?5?$AA?$AN?$AA?6?$AA?$AA@|
  008a4		 |$LN34@DumpDD_LOC|
  008a4	00000000	 DCD         |dpCurSettings|
  008a8		 |$LN35@DumpDD_LOC|
  008a8	00000000	 DCD         |??_C@_1CO@DGNNOLEH@?$AA?5?$AA?5?$AAD?$AAD?$AAL?$AAO?$AAC?$AAK?$AA_?$AAW?$AAR?$AAI?$AAT?$AAE?$AAO?$AAN?$AAL?$AAY?$AA?$DL?$AA?5?$AA?$AN?$AA?6?$AA?$AA@|
  008ac		 |$LN36@DumpDD_LOC|
  008ac	00000000	 DCD         |??_C@_1CM@CBKBKPHP@?$AA?5?$AA?5?$AAD?$AAD?$AAL?$AAO?$AAC?$AAK?$AA_?$AAR?$AAE?$AAA?$AAD?$AAO?$AAN?$AAL?$AAY?$AA?$DL?$AA?5?$AA?$AN?$AA?6?$AA?$AA@|
  008b0		 |$LN37@DumpDD_LOC|
  008b0	00000000	 DCD         |??_C@_1CK@CCHFCAAC@?$AA?5?$AA?5?$AAD?$AAD?$AAL?$AAO?$AAC?$AAK?$AA_?$AAD?$AAI?$AAS?$AAC?$AAA?$AAR?$AAD?$AA?$DL?$AA?5?$AA?$AN?$AA?6?$AA?$AA@|
  008b4		 |$LN38@DumpDD_LOC|
  008b4	00000000	 DCD         |??_C@_1EE@EDEFPOBH@?$AAp?$AAd?$AA?9?$AA?$DO?$AAd?$AAw?$AAF?$AAl?$AAa?$AAg?$AAs?$AA?5?$AA?5?$AA?5?$AA?5?$AA?5?$AA?5?$AA?5?$AA?5?$AA?5?$AA?5?$AA?5?$AA?5?$AA?5?$AA?5?$AA?$DN?$AA?5?$AA0?$AAx?$AA?$CF?$AAx?$AA?$AN@|
  008b8		 |$LN39@DumpDD_LOC|
  008b8	00000000	 DCD         |??_C@_1EE@LGKJMAFM@?$AAp?$AAd?$AA?9?$AA?$DO?$AAl?$AAp?$AAS?$AAu?$AAr?$AAf?$AAD?$AAa?$AAt?$AAa?$AA?5?$AA?5?$AA?5?$AA?5?$AA?5?$AA?5?$AA?5?$AA?5?$AA?5?$AA?5?$AA?5?$AA?$DN?$AA?5?$AA0?$AAx?$AA?$CF?$AAx?$AA?$AN@|
  008bc		 |$LN40@DumpDD_LOC|
  008bc	00000000	 DCD         |??_C@_1FK@CNBNJJIP@?$AAp?$AAd?$AA?9?$AA?$DO?$AAr?$AAA?$AAr?$AAe?$AAa?$AA?5?$AA?5?$AA?5?$AA?5?$AA?5?$AA?5?$AA?5?$AA?5?$AA?5?$AA?5?$AA?5?$AA?5?$AA?5?$AA?5?$AA?5?$AA?5?$AA?$DN?$AA?5?$AA?$CI?$AA?$CF?$AAd?$AA?0?$AA?$CF@|
  008c0		 |$LN41@DumpDD_LOC|
  008c0	00000000	 DCD         |??_C@_1EA@KDOOBPB@?$AAp?$AAd?$AA?9?$AA?$DO?$AAb?$AAH?$AAa?$AAs?$AAR?$AAe?$AAc?$AAt?$AA?5?$AA?5?$AA?5?$AA?5?$AA?5?$AA?5?$AA?5?$AA?5?$AA?5?$AA?5?$AA?5?$AA?5?$AA?5?$AA?$DN?$AA?5?$AA?$CF?$AAd?$AA?$AN?$AA?6?$AA?$AA@|
  008c4		 |$LN42@DumpDD_LOC|
  008c4	00000000	 DCD         |??_C@_1EE@FHBBIGLO@?$AAp?$AAd?$AA?9?$AA?$DO?$AAl?$AAp?$AAD?$AAD?$AAS?$AAu?$AAr?$AAf?$AAa?$AAc?$AAe?$AA?5?$AAv?$AAi?$AAd?$AAm?$AAe?$AAm?$AA?5?$AA?5?$AA?5?$AA?$DN?$AA?5?$AA0?$AAx?$AA?$CF?$AAx?$AA?$AN@|
  008c8		 |$LN43@DumpDD_LOC|
  008c8	00000000	 DCD         |??_C@_1EE@NOJCDMLG@?$AAp?$AAd?$AA?9?$AA?$DO?$AAl?$AAp?$AAD?$AAD?$AAS?$AAu?$AAr?$AAf?$AAa?$AAc?$AAe?$AA?5?$AA?5?$AA?5?$AA?5?$AA?5?$AA?5?$AA?5?$AA?5?$AA?5?$AA?5?$AA?$DN?$AA?5?$AA0?$AAx?$AA?$CF?$AAx?$AA?$AN@|
  008cc		 |$LN44@DumpDD_LOC|
  008cc	00000000	 DCD         |??_C@_1CI@BGHMPDIK@?$AAL?$AAP?$AAD?$AAD?$AAH?$AAA?$AAL?$AA_?$AAL?$AAO?$AAC?$AAK?$AAD?$AAA?$AAT?$AAA?$AA?3?$AA?$AN?$AA?6?$AA?$AA@|
  008d0		 |$M42632|

			 ENDP  ; |?DumpDD_LOCK@@YAXPAU_DDHAL_LOCKDATA@@@Z|, DumpDD_LOCK

	EXPORT	|??_C@_1CM@LDJEHHL@?$AAL?$AAP?$AAD?$AAD?$AAH?$AAA?$AAL?$AA_?$AAU?$AAN?$AAL?$AAO?$AAC?$AAK?$AAD?$AAA?$AAT?$AAA?$AA?3?$AA?$AN?$AA?6?$AA?$AA@| [ DATA ] ; `string'
	EXPORT	|?DumpDD_UNLOCK@@YAXPAU_DDHAL_UNLOCKDATA@@@Z| ; DumpDD_UNLOCK

  00020			 AREA	 |.pdata|, PDATA
|$T42658| DCD	|$LN11@DumpDD_UNL|
	DCD	0x40003a04

  00000			 AREA	 |.rdata|, DATA, READONLY
|??_C@_1CM@LDJEHHL@?$AAL?$AAP?$AAD?$AAD?$AAH?$AAA?$AAL?$AA_?$AAU?$AAN?$AAL?$AAO?$AAC?$AAK?$AAD?$AAA?$AAT?$AAA?$AA?3?$AA?$AN?$AA?6?$AA?$AA@| DCB "L"
	DCB	0x0, "P", 0x0, "D", 0x0, "D", 0x0, "H", 0x0, "A", 0x0, "L"
	DCB	0x0, "_", 0x0, "U", 0x0, "N", 0x0, "L", 0x0, "O", 0x0, "C"
	DCB	0x0, "K", 0x0, "D", 0x0, "A", 0x0, "T", 0x0, "A", 0x0, ":"
	DCB	0x0, 0xd, 0x0, 0xa, 0x0, 0x0, 0x0	; `string'
; Function compile flags: /Odtp

  008d0			 AREA	 |.text|, CODE, ARM

  008d0		 |?DumpDD_UNLOCK@@YAXPAU_DDHAL_UNLOCKDATA@@@Z| PROC ; DumpDD_UNLOCK

; 112  : {

  008d0		 |$LN11@DumpDD_UNL|
  008d0	e1a0c00d	 mov         r12, sp
  008d4	e92d0001	 stmdb       sp!, {r0}
  008d8	e92d5000	 stmdb       sp!, {r12, lr}
  008dc	e24dd018	 sub         sp, sp, #0x18
  008e0		 |$M42655|

; 113  :     DDGPESurf*  surfCurr = DDGPESurf::GetDDGPESurf(pd->lpDDSurface);

  008e0	e59d3020	 ldr         r3, [sp, #0x20]
  008e4	e2833004	 add         r3, r3, #4
  008e8	e5930000	 ldr         r0, [r3]
  008ec	eb000000	 bl          |?GetDDGPESurf@DDGPESurf@@SAPAV1@PAU_DDRAWI_DDRAWSURFACE_LCL@@@Z|
  008f0	e58d0004	 str         r0, [sp, #4]
  008f4	e59d3004	 ldr         r3, [sp, #4]
  008f8	e58d3000	 str         r3, [sp]

; 114  : 
; 115  :     DEBUGMSG(GPE_ZONE_DDRAW_HAL, (L"LPDDHAL_UNLOCKDATA:\r\n"));

  008fc	e59f30a8	 ldr         r3, [pc, #0xA8]
  00900	e5933440	 ldr         r3, [r3, #0x440]
  00904	e3130902	 tst         r3, #2, 18
  00908	0a000004	 beq         |$LN3@DumpDD_UNL|
  0090c	e59f00a0	 ldr         r0, [pc, #0xA0]
  00910	eb000000	 bl          NKDbgPrintfW
  00914	e3a03001	 mov         r3, #1
  00918	e58d3008	 str         r3, [sp, #8]
  0091c	ea000001	 b           |$LN4@DumpDD_UNL|
  00920		 |$LN3@DumpDD_UNL|
  00920	e3a03000	 mov         r3, #0
  00924	e58d3008	 str         r3, [sp, #8]
  00928		 |$LN4@DumpDD_UNL|

; 116  :     DEBUGMSG(GPE_ZONE_DDRAW_HAL, (L"pd->lpDDSurface          = 0x%x\r\n", pd->lpDDSurface));

  00928	e59f307c	 ldr         r3, [pc, #0x7C]
  0092c	e5933440	 ldr         r3, [r3, #0x440]
  00930	e3130902	 tst         r3, #2, 18
  00934	0a000007	 beq         |$LN5@DumpDD_UNL|
  00938	e59d3020	 ldr         r3, [sp, #0x20]
  0093c	e2833004	 add         r3, r3, #4
  00940	e5931000	 ldr         r1, [r3]
  00944	e59f0064	 ldr         r0, [pc, #0x64]
  00948	eb000000	 bl          NKDbgPrintfW
  0094c	e3a03001	 mov         r3, #1
  00950	e58d300c	 str         r3, [sp, #0xC]
  00954	ea000001	 b           |$LN6@DumpDD_UNL|
  00958		 |$LN5@DumpDD_UNL|
  00958	e3a03000	 mov         r3, #0
  0095c	e58d300c	 str         r3, [sp, #0xC]
  00960		 |$LN6@DumpDD_UNL|

; 117  :     DEBUGMSG(GPE_ZONE_DDRAW_HAL, (L"pd->lpDDSurface vidmem   = 0x%x\r\n", surfCurr->Buffer()));

  00960	e59f3044	 ldr         r3, [pc, #0x44]
  00964	e5933440	 ldr         r3, [r3, #0x440]
  00968	e3130902	 tst         r3, #2, 18
  0096c	0a000008	 beq         |$LN7@DumpDD_UNL|
  00970	e59d0000	 ldr         r0, [sp]
  00974	eb000000	 bl          |?Buffer@GPESurf@@QAAPAXXZ|
  00978	e58d0010	 str         r0, [sp, #0x10]
  0097c	e59d1010	 ldr         r1, [sp, #0x10]
  00980	e59f0020	 ldr         r0, [pc, #0x20]
  00984	eb000000	 bl          NKDbgPrintfW
  00988	e3a03001	 mov         r3, #1
  0098c	e58d3014	 str         r3, [sp, #0x14]
  00990	ea000001	 b           |$LN8@DumpDD_UNL|
  00994		 |$LN7@DumpDD_UNL|
  00994	e3a03000	 mov         r3, #0
  00998	e58d3014	 str         r3, [sp, #0x14]
  0099c		 |$LN8@DumpDD_UNL|

; 118  : }

  0099c	e28dd018	 add         sp, sp, #0x18
  009a0	e89d6000	 ldmia       sp, {sp, lr}
  009a4	e12fff1e	 bx          lr
  009a8		 |$LN12@DumpDD_UNL|
  009a8		 |$LN13@DumpDD_UNL|
  009a8	00000000	 DCD         |??_C@_1EE@FHBBIGLO@?$AAp?$AAd?$AA?9?$AA?$DO?$AAl?$AAp?$AAD?$AAD?$AAS?$AAu?$AAr?$AAf?$AAa?$AAc?$AAe?$AA?5?$AAv?$AAi?$AAd?$AAm?$AAe?$AAm?$AA?5?$AA?5?$AA?5?$AA?$DN?$AA?5?$AA0?$AAx?$AA?$CF?$AAx?$AA?$AN@|
  009ac		 |$LN14@DumpDD_UNL|
  009ac	00000000	 DCD         |dpCurSettings|
  009b0		 |$LN15@DumpDD_UNL|
  009b0	00000000	 DCD         |??_C@_1EE@NOJCDMLG@?$AAp?$AAd?$AA?9?$AA?$DO?$AAl?$AAp?$AAD?$AAD?$AAS?$AAu?$AAr?$AAf?$AAa?$AAc?$AAe?$AA?5?$AA?5?$AA?5?$AA?5?$AA?5?$AA?5?$AA?5?$AA?5?$AA?5?$AA?5?$AA?$DN?$AA?5?$AA0?$AAx?$AA?$CF?$AAx?$AA?$AN@|
  009b4		 |$LN16@DumpDD_UNL|
  009b4	00000000	 DCD         |??_C@_1CM@LDJEHHL@?$AAL?$AAP?$AAD?$AAD?$AAH?$AAA?$AAL?$AA_?$AAU?$AAN?$AAL?$AAO?$AAC?$AAK?$AAD?$AAA?$AAT?$AAA?$AA?3?$AA?$AN?$AA?6?$AA?$AA@|
  009b8		 |$M42656|

			 ENDP  ; |?DumpDD_UNLOCK@@YAXPAU_DDHAL_UNLOCKDATA@@@Z|, DumpDD_UNLOCK

	EXPORT	|?DumpDDCOLORKEY@@YAXU_DDCOLORKEY@@@Z|	; DumpDDCOLORKEY
	EXPORT	|??_C@_1BI@GLAMIBHG@?$AAp?$AAd?$AA?9?$AA?$DO?$AAc?$AAk?$AAN?$AAe?$AAw?$AA?$AN?$AA?6?$AA?$AA@| [ DATA ] ; `string'
	EXPORT	|??_C@_1CM@JBKHIAKA@?$AA?5?$AA?5?$AAD?$AAD?$AAC?$AAK?$AAE?$AAY?$AA_?$AAS?$AAR?$AAC?$AAO?$AAV?$AAE?$AAR?$AAL?$AAA?$AAY?$AA?$DL?$AA?5?$AA?$AA@| [ DATA ] ; `string'
	EXPORT	|??_C@_1CE@MHEGHEPB@?$AA?5?$AA?5?$AAD?$AAD?$AAC?$AAK?$AAE?$AAY?$AA_?$AAS?$AAR?$AAC?$AAB?$AAL?$AAT?$AA?$DL?$AA?5?$AA?$AA@| [ DATA ] ; `string'
	EXPORT	|??_C@_1CO@ODEMEAHB@?$AA?5?$AA?5?$AAD?$AAD?$AAC?$AAK?$AAE?$AAY?$AA_?$AAD?$AAE?$AAS?$AAT?$AAO?$AAV?$AAE?$AAR?$AAL?$AAA?$AAY?$AA?$DL?$AA?5?$AA?$AA@| [ DATA ] ; `string'
	EXPORT	|??_C@_1CG@PBDHENGC@?$AA?5?$AA?5?$AAD?$AAD?$AAC?$AAK?$AAE?$AAY?$AA_?$AAD?$AAE?$AAS?$AAT?$AAB?$AAL?$AAT?$AA?$DL?$AA?5?$AA?$AA@| [ DATA ] ; `string'
	EXPORT	|??_C@_1CM@EMBEMKAF@?$AA?5?$AA?5?$AAD?$AAD?$AAC?$AAK?$AAE?$AAY?$AA_?$AAC?$AAO?$AAL?$AAO?$AAR?$AAS?$AAP?$AAA?$AAC?$AAE?$AA?$DL?$AA?5?$AA?$AA@| [ DATA ] ; `string'
	EXPORT	|??_C@_1DC@OIDCGDIB@?$AAp?$AAd?$AA?9?$AA?$DO?$AAd?$AAw?$AAF?$AAl?$AAa?$AAg?$AAs?$AA?5?$AA?5?$AA?5?$AA?5?$AA?5?$AA?$DN?$AA?5?$AA0?$AAx?$AA?$CF?$AAx?$AA?$AN?$AA?6?$AA?$AA@| [ DATA ] ; `string'
	EXPORT	|??_C@_1DC@DIIECNGO@?$AAp?$AAd?$AA?9?$AA?$DO?$AAl?$AAp?$AAD?$AAD?$AAS?$AAu?$AAr?$AAf?$AAa?$AAc?$AAe?$AA?5?$AA?$DN?$AA?5?$AA0?$AAx?$AA?$CF?$AAx?$AA?$AN?$AA?6?$AA?$AA@| [ DATA ] ; `string'
	EXPORT	|??_C@_1DG@OEJBCAKM@?$AAL?$AAP?$AAD?$AAD?$AAH?$AAA?$AAL?$AA_?$AAS?$AAE?$AAT?$AAC?$AAO?$AAL?$AAO?$AAR?$AAK?$AAE?$AAY?$AAD?$AAA?$AAT?$AAA?$AA?3?$AA?$AN?$AA?6?$AA?$AA@| [ DATA ] ; `string'
	EXPORT	|?DumpDD_SETCOLORKEY@@YAXPAU_DDHAL_SETCOLORKEYDATA@@@Z| ; DumpDD_SETCOLORKEY

  00028			 AREA	 |.pdata|, PDATA
|$T42686| DCD	|$LN28@DumpDD_SET|
	DCD	0x40009a04

  00000			 AREA	 |.rdata|, DATA, READONLY
|??_C@_1BI@GLAMIBHG@?$AAp?$AAd?$AA?9?$AA?$DO?$AAc?$AAk?$AAN?$AAe?$AAw?$AA?$AN?$AA?6?$AA?$AA@| DCB "p"
	DCB	0x0, "d", 0x0, "-", 0x0, ">", 0x0, "c", 0x0, "k", 0x0, "N"
	DCB	0x0, "e", 0x0, "w", 0x0, 0xd, 0x0, 0xa, 0x0, 0x0, 0x0 ; `string'

  00000			 AREA	 |.rdata|, DATA, READONLY
|??_C@_1CM@JBKHIAKA@?$AA?5?$AA?5?$AAD?$AAD?$AAC?$AAK?$AAE?$AAY?$AA_?$AAS?$AAR?$AAC?$AAO?$AAV?$AAE?$AAR?$AAL?$AAA?$AAY?$AA?$DL?$AA?5?$AA?$AA@| DCB " "
	DCB	0x0, " ", 0x0, "D", 0x0, "D", 0x0, "C", 0x0, "K", 0x0, "E"
	DCB	0x0, "Y", 0x0, "_", 0x0, "S", 0x0, "R", 0x0, "C", 0x0, "O"
	DCB	0x0, "V", 0x0, "E", 0x0, "R", 0x0, "L", 0x0, "A", 0x0, "Y"
	DCB	0x0, ";", 0x0, " ", 0x0, 0x0, 0x0	; `string'

  00000			 AREA	 |.rdata|, DATA, READONLY
|??_C@_1CE@MHEGHEPB@?$AA?5?$AA?5?$AAD?$AAD?$AAC?$AAK?$AAE?$AAY?$AA_?$AAS?$AAR?$AAC?$AAB?$AAL?$AAT?$AA?$DL?$AA?5?$AA?$AA@| DCB " "
	DCB	0x0, " ", 0x0, "D", 0x0, "D", 0x0, "C", 0x0, "K", 0x0, "E"
	DCB	0x0, "Y", 0x0, "_", 0x0, "S", 0x0, "R", 0x0, "C", 0x0, "B"
	DCB	0x0, "L", 0x0, "T", 0x0, ";", 0x0, " ", 0x0, 0x0, 0x0 ; `string'

  00000			 AREA	 |.rdata|, DATA, READONLY
|??_C@_1CO@ODEMEAHB@?$AA?5?$AA?5?$AAD?$AAD?$AAC?$AAK?$AAE?$AAY?$AA_?$AAD?$AAE?$AAS?$AAT?$AAO?$AAV?$AAE?$AAR?$AAL?$AAA?$AAY?$AA?$DL?$AA?5?$AA?$AA@| DCB " "
	DCB	0x0, " ", 0x0, "D", 0x0, "D", 0x0, "C", 0x0, "K", 0x0, "E"
	DCB	0x0, "Y", 0x0, "_", 0x0, "D", 0x0, "E", 0x0, "S", 0x0, "T"
	DCB	0x0, "O", 0x0, "V", 0x0, "E", 0x0, "R", 0x0, "L", 0x0, "A"
	DCB	0x0, "Y", 0x0, ";", 0x0, " ", 0x0, 0x0, 0x0 ; `string'

  00000			 AREA	 |.rdata|, DATA, READONLY
|??_C@_1CG@PBDHENGC@?$AA?5?$AA?5?$AAD?$AAD?$AAC?$AAK?$AAE?$AAY?$AA_?$AAD?$AAE?$AAS?$AAT?$AAB?$AAL?$AAT?$AA?$DL?$AA?5?$AA?$AA@| DCB " "
	DCB	0x0, " ", 0x0, "D", 0x0, "D", 0x0, "C", 0x0, "K", 0x0, "E"
	DCB	0x0, "Y", 0x0, "_", 0x0, "D", 0x0, "E", 0x0, "S", 0x0, "T"
	DCB	0x0, "B", 0x0, "L", 0x0, "T", 0x0, ";", 0x0, " ", 0x0, 0x0
	DCB	0x0					; `string'

  00000			 AREA	 |.rdata|, DATA, READONLY
|??_C@_1CM@EMBEMKAF@?$AA?5?$AA?5?$AAD?$AAD?$AAC?$AAK?$AAE?$AAY?$AA_?$AAC?$AAO?$AAL?$AAO?$AAR?$AAS?$AAP?$AAA?$AAC?$AAE?$AA?$DL?$AA?5?$AA?$AA@| DCB " "
	DCB	0x0, " ", 0x0, "D", 0x0, "D", 0x0, "C", 0x0, "K", 0x0, "E"
	DCB	0x0, "Y", 0x0, "_", 0x0, "C", 0x0, "O", 0x0, "L", 0x0, "O"
	DCB	0x0, "R", 0x0, "S", 0x0, "P", 0x0, "A", 0x0, "C", 0x0, "E"
	DCB	0x0, ";", 0x0, " ", 0x0, 0x0, 0x0	; `string'

  00000			 AREA	 |.rdata|, DATA, READONLY
|??_C@_1DC@OIDCGDIB@?$AAp?$AAd?$AA?9?$AA?$DO?$AAd?$AAw?$AAF?$AAl?$AAa?$AAg?$AAs?$AA?5?$AA?5?$AA?5?$AA?5?$AA?5?$AA?$DN?$AA?5?$AA0?$AAx?$AA?$CF?$AAx?$AA?$AN?$AA?6?$AA?$AA@| DCB "p"
	DCB	0x0, "d", 0x0, "-", 0x0, ">", 0x0, "d", 0x0, "w", 0x0, "F"
	DCB	0x0, "l", 0x0, "a", 0x0, "g", 0x0, "s", 0x0, " ", 0x0, " "
	DCB	0x0, " ", 0x0, " ", 0x0, " ", 0x0, "=", 0x0, " ", 0x0, "0"
	DCB	0x0, "x", 0x0, "%", 0x0, "x", 0x0, 0xd, 0x0, 0xa, 0x0, 0x0
	DCB	0x0					; `string'

  00000			 AREA	 |.rdata|, DATA, READONLY
|??_C@_1DC@DIIECNGO@?$AAp?$AAd?$AA?9?$AA?$DO?$AAl?$AAp?$AAD?$AAD?$AAS?$AAu?$AAr?$AAf?$AAa?$AAc?$AAe?$AA?5?$AA?$DN?$AA?5?$AA0?$AAx?$AA?$CF?$AAx?$AA?$AN?$AA?6?$AA?$AA@| DCB "p"
	DCB	0x0, "d", 0x0, "-", 0x0, ">", 0x0, "l", 0x0, "p", 0x0, "D"
	DCB	0x0, "D", 0x0, "S", 0x0, "u", 0x0, "r", 0x0, "f", 0x0, "a"
	DCB	0x0, "c", 0x0, "e", 0x0, " ", 0x0, "=", 0x0, " ", 0x0, "0"
	DCB	0x0, "x", 0x0, "%", 0x0, "x", 0x0, 0xd, 0x0, 0xa, 0x0, 0x0
	DCB	0x0					; `string'

  00000			 AREA	 |.rdata|, DATA, READONLY
|??_C@_1DG@OEJBCAKM@?$AAL?$AAP?$AAD?$AAD?$AAH?$AAA?$AAL?$AA_?$AAS?$AAE?$AAT?$AAC?$AAO?$AAL?$AAO?$AAR?$AAK?$AAE?$AAY?$AAD?$AAA?$AAT?$AAA?$AA?3?$AA?$AN?$AA?6?$AA?$AA@| DCB "L"
	DCB	0x0, "P", 0x0, "D", 0x0, "D", 0x0, "H", 0x0, "A", 0x0, "L"
	DCB	0x0, "_", 0x0, "S", 0x0, "E", 0x0, "T", 0x0, "C", 0x0, "O"
	DCB	0x0, "L", 0x0, "O", 0x0, "R", 0x0, "K", 0x0, "E", 0x0, "Y"
	DCB	0x0, "D", 0x0, "A", 0x0, "T", 0x0, "A", 0x0, ":", 0x0, 0xd
	DCB	0x0, 0xa, 0x0, 0x0, 0x0			; `string'
; Function compile flags: /Odtp

  009b8			 AREA	 |.text|, CODE, ARM

  009b8		 |?DumpDD_SETCOLORKEY@@YAXPAU_DDHAL_SETCOLORKEYDATA@@@Z| PROC ; DumpDD_SETCOLORKEY

; 125  : {

  009b8		 |$LN28@DumpDD_SET|
  009b8	e1a0c00d	 mov         r12, sp
  009bc	e92d0001	 stmdb       sp!, {r0}
  009c0	e92d5000	 stmdb       sp!, {r12, lr}
  009c4	e24dd028	 sub         sp, sp, #0x28
  009c8		 |$M42683|

; 126  :     DEBUGMSG(GPE_ZONE_DDRAW_HAL, (L"LPDDHAL_SETCOLORKEYDATA:\r\n"));

  009c8	e59f322c	 ldr         r3, [pc, #0x22C]
  009cc	e5933440	 ldr         r3, [r3, #0x440]
  009d0	e3130902	 tst         r3, #2, 18
  009d4	0a000004	 beq         |$LN8@DumpDD_SET|
  009d8	e59f023c	 ldr         r0, [pc, #0x23C]
  009dc	eb000000	 bl          NKDbgPrintfW
  009e0	e3a03001	 mov         r3, #1
  009e4	e58d3000	 str         r3, [sp]
  009e8	ea000001	 b           |$LN9@DumpDD_SET|
  009ec		 |$LN8@DumpDD_SET|
  009ec	e3a03000	 mov         r3, #0
  009f0	e58d3000	 str         r3, [sp]
  009f4		 |$LN9@DumpDD_SET|

; 127  :     DEBUGMSG(GPE_ZONE_DDRAW_HAL, (L"pd->lpDDSurface = 0x%x\r\n", pd->lpDDSurface));

  009f4	e59f3200	 ldr         r3, [pc, #0x200]
  009f8	e5933440	 ldr         r3, [r3, #0x440]
  009fc	e3130902	 tst         r3, #2, 18
  00a00	0a000007	 beq         |$LN10@DumpDD_SET|
  00a04	e59d3030	 ldr         r3, [sp, #0x30]
  00a08	e2833004	 add         r3, r3, #4
  00a0c	e5931000	 ldr         r1, [r3]
  00a10	e59f0200	 ldr         r0, [pc, #0x200]
  00a14	eb000000	 bl          NKDbgPrintfW
  00a18	e3a03001	 mov         r3, #1
  00a1c	e58d3004	 str         r3, [sp, #4]
  00a20	ea000001	 b           |$LN11@DumpDD_SET|
  00a24		 |$LN10@DumpDD_SET|
  00a24	e3a03000	 mov         r3, #0
  00a28	e58d3004	 str         r3, [sp, #4]
  00a2c		 |$LN11@DumpDD_SET|

; 128  :     DEBUGMSG(GPE_ZONE_DDRAW_HAL, (L"pd->dwFlags     = 0x%x\r\n", pd->dwFlags));

  00a2c	e59f31c8	 ldr         r3, [pc, #0x1C8]
  00a30	e5933440	 ldr         r3, [r3, #0x440]
  00a34	e3130902	 tst         r3, #2, 18
  00a38	0a000007	 beq         |$LN12@DumpDD_SET|
  00a3c	e59d3030	 ldr         r3, [sp, #0x30]
  00a40	e2833008	 add         r3, r3, #8
  00a44	e5931000	 ldr         r1, [r3]
  00a48	e59f01c4	 ldr         r0, [pc, #0x1C4]
  00a4c	eb000000	 bl          NKDbgPrintfW
  00a50	e3a03001	 mov         r3, #1
  00a54	e58d3008	 str         r3, [sp, #8]
  00a58	ea000001	 b           |$LN13@DumpDD_SET|
  00a5c		 |$LN12@DumpDD_SET|
  00a5c	e3a03000	 mov         r3, #0
  00a60	e58d3008	 str         r3, [sp, #8]
  00a64		 |$LN13@DumpDD_SET|

; 129  : 
; 130  :     if( pd->dwFlags & DDCKEY_COLORSPACE)

  00a64	e59d3030	 ldr         r3, [sp, #0x30]
  00a68	e2833008	 add         r3, r3, #8
  00a6c	e5933000	 ldr         r3, [r3]
  00a70	e3130001	 tst         r3, #1
  00a74	0a00000a	 beq         |$LN5@DumpDD_SET|

; 131  :         DEBUGMSG(GPE_ZONE_DDRAW_HAL, (TEXT("  DDCKEY_COLORSPACE; ")));

  00a78	e59f317c	 ldr         r3, [pc, #0x17C]
  00a7c	e5933440	 ldr         r3, [r3, #0x440]
  00a80	e3130902	 tst         r3, #2, 18
  00a84	0a000004	 beq         |$LN14@DumpDD_SET|
  00a88	e59f0180	 ldr         r0, [pc, #0x180]
  00a8c	eb000000	 bl          NKDbgPrintfW
  00a90	e3a03001	 mov         r3, #1
  00a94	e58d300c	 str         r3, [sp, #0xC]
  00a98	ea000001	 b           |$LN15@DumpDD_SET|
  00a9c		 |$LN14@DumpDD_SET|
  00a9c	e3a03000	 mov         r3, #0
  00aa0	e58d300c	 str         r3, [sp, #0xC]
  00aa4		 |$LN15@DumpDD_SET|
  00aa4		 |$LN5@DumpDD_SET|

; 132  :     if( pd->dwFlags & DDCKEY_DESTBLT)

  00aa4	e59d3030	 ldr         r3, [sp, #0x30]
  00aa8	e2833008	 add         r3, r3, #8
  00aac	e5933000	 ldr         r3, [r3]
  00ab0	e3130002	 tst         r3, #2
  00ab4	0a00000a	 beq         |$LN4@DumpDD_SET|

; 133  :         DEBUGMSG(GPE_ZONE_DDRAW_HAL, (TEXT("  DDCKEY_DESTBLT; ")));

  00ab8	e59f313c	 ldr         r3, [pc, #0x13C]
  00abc	e5933440	 ldr         r3, [r3, #0x440]
  00ac0	e3130902	 tst         r3, #2, 18
  00ac4	0a000004	 beq         |$LN16@DumpDD_SET|
  00ac8	e59f013c	 ldr         r0, [pc, #0x13C]
  00acc	eb000000	 bl          NKDbgPrintfW
  00ad0	e3a03001	 mov         r3, #1
  00ad4	e58d3010	 str         r3, [sp, #0x10]
  00ad8	ea000001	 b           |$LN17@DumpDD_SET|
  00adc		 |$LN16@DumpDD_SET|
  00adc	e3a03000	 mov         r3, #0
  00ae0	e58d3010	 str         r3, [sp, #0x10]
  00ae4		 |$LN17@DumpDD_SET|
  00ae4		 |$LN4@DumpDD_SET|

; 134  :     if( pd->dwFlags & DDCKEY_DESTOVERLAY)

  00ae4	e59d3030	 ldr         r3, [sp, #0x30]
  00ae8	e2833008	 add         r3, r3, #8
  00aec	e5933000	 ldr         r3, [r3]
  00af0	e3130004	 tst         r3, #4
  00af4	0a00000a	 beq         |$LN3@DumpDD_SET|

; 135  :         DEBUGMSG(GPE_ZONE_DDRAW_HAL, (TEXT("  DDCKEY_DESTOVERLAY; ")));

  00af8	e59f30fc	 ldr         r3, [pc, #0xFC]
  00afc	e5933440	 ldr         r3, [r3, #0x440]
  00b00	e3130902	 tst         r3, #2, 18
  00b04	0a000004	 beq         |$LN18@DumpDD_SET|
  00b08	e59f00f8	 ldr         r0, [pc, #0xF8]
  00b0c	eb000000	 bl          NKDbgPrintfW
  00b10	e3a03001	 mov         r3, #1
  00b14	e58d3014	 str         r3, [sp, #0x14]
  00b18	ea000001	 b           |$LN19@DumpDD_SET|
  00b1c		 |$LN18@DumpDD_SET|
  00b1c	e3a03000	 mov         r3, #0
  00b20	e58d3014	 str         r3, [sp, #0x14]
  00b24		 |$LN19@DumpDD_SET|
  00b24		 |$LN3@DumpDD_SET|

; 136  :     if( pd->dwFlags & DDCKEY_SRCBLT)

  00b24	e59d3030	 ldr         r3, [sp, #0x30]
  00b28	e2833008	 add         r3, r3, #8
  00b2c	e5933000	 ldr         r3, [r3]
  00b30	e3130008	 tst         r3, #8
  00b34	0a00000a	 beq         |$LN2@DumpDD_SET|

; 137  :         DEBUGMSG(GPE_ZONE_DDRAW_HAL, (TEXT("  DDCKEY_SRCBLT; ")));

  00b38	e59f30bc	 ldr         r3, [pc, #0xBC]
  00b3c	e5933440	 ldr         r3, [r3, #0x440]
  00b40	e3130902	 tst         r3, #2, 18
  00b44	0a000004	 beq         |$LN20@DumpDD_SET|
  00b48	e59f00b4	 ldr         r0, [pc, #0xB4]
  00b4c	eb000000	 bl          NKDbgPrintfW
  00b50	e3a03001	 mov         r3, #1
  00b54	e58d3018	 str         r3, [sp, #0x18]
  00b58	ea000001	 b           |$LN21@DumpDD_SET|
  00b5c		 |$LN20@DumpDD_SET|
  00b5c	e3a03000	 mov         r3, #0
  00b60	e58d3018	 str         r3, [sp, #0x18]
  00b64		 |$LN21@DumpDD_SET|
  00b64		 |$LN2@DumpDD_SET|

; 138  :     if( pd->dwFlags & DDCKEY_SRCOVERLAY)

  00b64	e59d3030	 ldr         r3, [sp, #0x30]
  00b68	e2833008	 add         r3, r3, #8
  00b6c	e5933000	 ldr         r3, [r3]
  00b70	e3130010	 tst         r3, #0x10
  00b74	0a00000a	 beq         |$LN1@DumpDD_SET|

; 139  :         DEBUGMSG(GPE_ZONE_DDRAW_HAL, (TEXT("  DDCKEY_SRCOVERLAY; ")));

  00b78	e59f307c	 ldr         r3, [pc, #0x7C]
  00b7c	e5933440	 ldr         r3, [r3, #0x440]
  00b80	e3130902	 tst         r3, #2, 18
  00b84	0a000004	 beq         |$LN22@DumpDD_SET|
  00b88	e59f0070	 ldr         r0, [pc, #0x70]
  00b8c	eb000000	 bl          NKDbgPrintfW
  00b90	e3a03001	 mov         r3, #1
  00b94	e58d301c	 str         r3, [sp, #0x1C]
  00b98	ea000001	 b           |$LN23@DumpDD_SET|
  00b9c		 |$LN22@DumpDD_SET|
  00b9c	e3a03000	 mov         r3, #0
  00ba0	e58d301c	 str         r3, [sp, #0x1C]
  00ba4		 |$LN23@DumpDD_SET|
  00ba4		 |$LN1@DumpDD_SET|

; 140  : 
; 141  :     DEBUGMSG(GPE_ZONE_DDRAW_HAL, (L"pd->ckNew\r\n"));

  00ba4	e59f3050	 ldr         r3, [pc, #0x50]
  00ba8	e5933440	 ldr         r3, [r3, #0x440]
  00bac	e3130902	 tst         r3, #2, 18
  00bb0	0a000004	 beq         |$LN24@DumpDD_SET|
  00bb4	e59f003c	 ldr         r0, [pc, #0x3C]
  00bb8	eb000000	 bl          NKDbgPrintfW
  00bbc	e3a03001	 mov         r3, #1
  00bc0	e58d3020	 str         r3, [sp, #0x20]
  00bc4	ea000001	 b           |$LN25@DumpDD_SET|
  00bc8		 |$LN24@DumpDD_SET|
  00bc8	e3a03000	 mov         r3, #0
  00bcc	e58d3020	 str         r3, [sp, #0x20]
  00bd0		 |$LN25@DumpDD_SET|

; 142  :     DumpDDCOLORKEY(pd->ckNew);

  00bd0	e59d3030	 ldr         r3, [sp, #0x30]
  00bd4	e283300c	 add         r3, r3, #0xC
  00bd8	e58d3024	 str         r3, [sp, #0x24]
  00bdc	e59d3024	 ldr         r3, [sp, #0x24]
  00be0	e5930000	 ldr         r0, [r3]
  00be4	e5931004	 ldr         r1, [r3, #4]
  00be8	eb000000	 bl          |?DumpDDCOLORKEY@@YAXU_DDCOLORKEY@@@Z|

; 143  : }

  00bec	e28dd028	 add         sp, sp, #0x28
  00bf0	e89d6000	 ldmia       sp, {sp, lr}
  00bf4	e12fff1e	 bx          lr
  00bf8		 |$LN29@DumpDD_SET|
  00bf8		 |$LN30@DumpDD_SET|
  00bf8	00000000	 DCD         |??_C@_1BI@GLAMIBHG@?$AAp?$AAd?$AA?9?$AA?$DO?$AAc?$AAk?$AAN?$AAe?$AAw?$AA?$AN?$AA?6?$AA?$AA@|
  00bfc		 |$LN31@DumpDD_SET|
  00bfc	00000000	 DCD         |dpCurSettings|
  00c00		 |$LN32@DumpDD_SET|
  00c00	00000000	 DCD         |??_C@_1CM@JBKHIAKA@?$AA?5?$AA?5?$AAD?$AAD?$AAC?$AAK?$AAE?$AAY?$AA_?$AAS?$AAR?$AAC?$AAO?$AAV?$AAE?$AAR?$AAL?$AAA?$AAY?$AA?$DL?$AA?5?$AA?$AA@|
  00c04		 |$LN33@DumpDD_SET|
  00c04	00000000	 DCD         |??_C@_1CE@MHEGHEPB@?$AA?5?$AA?5?$AAD?$AAD?$AAC?$AAK?$AAE?$AAY?$AA_?$AAS?$AAR?$AAC?$AAB?$AAL?$AAT?$AA?$DL?$AA?5?$AA?$AA@|
  00c08		 |$LN34@DumpDD_SET|
  00c08	00000000	 DCD         |??_C@_1CO@ODEMEAHB@?$AA?5?$AA?5?$AAD?$AAD?$AAC?$AAK?$AAE?$AAY?$AA_?$AAD?$AAE?$AAS?$AAT?$AAO?$AAV?$AAE?$AAR?$AAL?$AAA?$AAY?$AA?$DL?$AA?5?$AA?$AA@|
  00c0c		 |$LN35@DumpDD_SET|
  00c0c	00000000	 DCD         |??_C@_1CG@PBDHENGC@?$AA?5?$AA?5?$AAD?$AAD?$AAC?$AAK?$AAE?$AAY?$AA_?$AAD?$AAE?$AAS?$AAT?$AAB?$AAL?$AAT?$AA?$DL?$AA?5?$AA?$AA@|
  00c10		 |$LN36@DumpDD_SET|
  00c10	00000000	 DCD         |??_C@_1CM@EMBEMKAF@?$AA?5?$AA?5?$AAD?$AAD?$AAC?$AAK?$AAE?$AAY?$AA_?$AAC?$AAO?$AAL?$AAO?$AAR?$AAS?$AAP?$AAA?$AAC?$AAE?$AA?$DL?$AA?5?$AA?$AA@|
  00c14		 |$LN37@DumpDD_SET|
  00c14	00000000	 DCD         |??_C@_1DC@OIDCGDIB@?$AAp?$AAd?$AA?9?$AA?$DO?$AAd?$AAw?$AAF?$AAl?$AAa?$AAg?$AAs?$AA?5?$AA?5?$AA?5?$AA?5?$AA?5?$AA?$DN?$AA?5?$AA0?$AAx?$AA?$CF?$AAx?$AA?$AN?$AA?6?$AA?$AA@|
  00c18		 |$LN38@DumpDD_SET|
  00c18	00000000	 DCD         |??_C@_1DC@DIIECNGO@?$AAp?$AAd?$AA?9?$AA?$DO?$AAl?$AAp?$AAD?$AAD?$AAS?$AAu?$AAr?$AAf?$AAa?$AAc?$AAe?$AA?5?$AA?$DN?$AA?5?$AA0?$AAx?$AA?$CF?$AAx?$AA?$AN?$AA?6?$AA?$AA@|
  00c1c		 |$LN39@DumpDD_SET|
  00c1c	00000000	 DCD         |??_C@_1DG@OEJBCAKM@?$AAL?$AAP?$AAD?$AAD?$AAH?$AAA?$AAL?$AA_?$AAS?$AAE?$AAT?$AAC?$AAO?$AAL?$AAO?$AAR?$AAK?$AAE?$AAY?$AAD?$AAA?$AAT?$AAA?$AA?3?$AA?$AN?$AA?6?$AA?$AA@|
  00c20		 |$M42684|

			 ENDP  ; |?DumpDD_SETCOLORKEY@@YAXPAU_DDHAL_SETCOLORKEYDATA@@@Z|, DumpDD_SETCOLORKEY

	EXPORT	|??_C@_1BK@HJMCCJCO@?$AA?5?$AA?5?$AA?$CF?$AAd?$AA?3?$AA?5?$AA0?$AAx?$AA?$CF?$AAx?$AA?$AN?$AA?6?$AA?$AA@| [ DATA ] ; `string'
	EXPORT	|??_C@_1CG@LIMHBHMM@?$AAO?$AAv?$AAe?$AAr?$AAl?$AAa?$AAy?$AA?5?$AAZ?$AA?9?$AAo?$AAr?$AAd?$AAe?$AAr?$AA?3?$AA?$AN?$AA?6?$AA?$AA@| [ DATA ] ; `string'
	EXPORT	|?DumpDDOVERLAYFX@@YAXU_DDOVERLAYFX@@@Z| ; DumpDDOVERLAYFX
	EXPORT	|??_C@_1CA@FFAPGPBE@?$AAp?$AAd?$AA?9?$AA?$DO?$AAo?$AAv?$AAe?$AAr?$AAl?$AAa?$AAy?$AAF?$AAX?$AA?$AN?$AA?6?$AA?$AA@| [ DATA ] ; `string'
	EXPORT	|??_C@_1DE@JHFOECMB@?$AA?5?$AA?5?$AAD?$AAD?$AAO?$AAV?$AAE?$AAR?$AA_?$AAK?$AAE?$AAY?$AAS?$AAR?$AAC?$AAO?$AAV?$AAE?$AAR?$AAR?$AAI?$AAD?$AAE?$AA?$DL?$AA?5?$AA?$AA@| [ DATA ] ; `string'
	EXPORT	|??_C@_1CE@DAPKFPFC@?$AA?5?$AA?5?$AAD?$AAD?$AAO?$AAV?$AAE?$AAR?$AA_?$AAK?$AAE?$AAY?$AAS?$AAR?$AAC?$AA?$DL?$AA?5?$AA?$AA@| [ DATA ] ; `string'
	EXPORT	|??_C@_1DG@GAOBFMAA@?$AA?5?$AA?5?$AAD?$AAD?$AAO?$AAV?$AAE?$AAR?$AA_?$AAK?$AAE?$AAY?$AAD?$AAE?$AAS?$AAT?$AAO?$AAV?$AAE?$AAR?$AAR?$AAI?$AAD?$AAE?$AA?$DL?$AA?5?$AA?$AA@| [ DATA ] ; `string'
	EXPORT	|??_C@_1CG@OPOALPAP@?$AA?5?$AA?5?$AAD?$AAD?$AAO?$AAV?$AAE?$AAR?$AA_?$AAK?$AAE?$AAY?$AAD?$AAE?$AAS?$AAT?$AA?$DL?$AA?5?$AA?$AA@| [ DATA ] ; `string'
	EXPORT	|??_C@_1DA@PKJGOFML@?$AA?5?$AA?5?$AAD?$AAD?$AAO?$AAV?$AAE?$AAR?$AA_?$AAM?$AAI?$AAR?$AAR?$AAO?$AAR?$AAU?$AAP?$AAD?$AAO?$AAW?$AAN?$AA?$DL?$AA?5?$AA?$AA@| [ DATA ] ; `string'
	EXPORT	|??_C@_1DG@IPODHGDC@?$AA?5?$AA?5?$AAD?$AAD?$AAO?$AAV?$AAE?$AAR?$AA_?$AAM?$AAI?$AAR?$AAR?$AAO?$AAR?$AAL?$AAE?$AAF?$AAT?$AAR?$AAI?$AAG?$AAH?$AAT?$AA?$DL?$AA?5?$AA?$AA@| [ DATA ] ; `string'
	EXPORT	|??_C@_1CK@HPMFCGMJ@?$AA?5?$AA?5?$AAD?$AAD?$AAO?$AAV?$AAE?$AAR?$AA_?$AAW?$AAA?$AAI?$AAT?$AAV?$AAS?$AAY?$AAN?$AAC?$AA?$DL?$AA?5?$AA?$AA@| [ DATA ] ; `string'
	EXPORT	|??_C@_1CO@HBMPIBPK@?$AA?5?$AA?5?$AAD?$AAD?$AAO?$AAV?$AAE?$AAR?$AA_?$AAW?$AAA?$AAI?$AAT?$AAN?$AAO?$AAT?$AAB?$AAU?$AAS?$AAY?$AA?$DL?$AA?5?$AA?$AA@| [ DATA ] ; `string'
	EXPORT	|??_C@_1CI@JGPMEBEE@?$AA?5?$AA?5?$AAD?$AAD?$AAO?$AAV?$AAE?$AAR?$AA_?$AAA?$AAU?$AAT?$AAO?$AAF?$AAL?$AAI?$AAP?$AA?$DL?$AA?5?$AA?$AA@| [ DATA ] ; `string'
	EXPORT	|??_C@_1CA@ECEKEADO@?$AA?5?$AA?5?$AAD?$AAD?$AAO?$AAV?$AAE?$AAR?$AA_?$AAH?$AAI?$AAD?$AAE?$AA?$DL?$AA?5?$AA?$AA@| [ DATA ] ; `string'
	EXPORT	|??_C@_1CA@DGBLMGHB@?$AA?5?$AA?5?$AAD?$AAD?$AAO?$AAV?$AAE?$AAR?$AA_?$AAS?$AAH?$AAO?$AAW?$AA?$DL?$AA?5?$AA?$AA@| [ DATA ] ; `string'
	EXPORT	|??_C@_1CO@CJIKNMJB@?$AA?5?$AA?5?$AAD?$AAD?$AAO?$AAV?$AAE?$AAR?$AA_?$AAA?$AAL?$AAP?$AAH?$AAA?$AAS?$AAR?$AAC?$AAN?$AAE?$AAG?$AA?$DL?$AA?5?$AA?$AA@| [ DATA ] ; `string'
	EXPORT	|??_C@_1CI@EOOMLMHM@?$AA?5?$AA?5?$AAD?$AAD?$AAO?$AAV?$AAE?$AAR?$AA_?$AAA?$AAL?$AAP?$AAH?$AAA?$AAS?$AAR?$AAC?$AA?$DL?$AA?5?$AA?$AA@| [ DATA ] ; `string'
	EXPORT	|??_C@_1DA@DMCJCCAH@?$AA?5?$AA?5?$AAD?$AAD?$AAO?$AAV?$AAE?$AAR?$AA_?$AAA?$AAL?$AAP?$AAH?$AAA?$AAD?$AAE?$AAS?$AAT?$AAN?$AAE?$AAG?$AA?$DL?$AA?5?$AA?$AA@| [ DATA ] ; `string'
	EXPORT	|??_C@_1CK@NNOEHLPH@?$AA?5?$AA?5?$AAD?$AAD?$AAO?$AAV?$AAE?$AAR?$AA_?$AAA?$AAL?$AAP?$AAH?$AAA?$AAD?$AAE?$AAS?$AAT?$AA?$DL?$AA?5?$AA?$AA@| [ DATA ] ; `string'
	EXPORT	|??_C@_1DM@FNDGBEDA@?$AA?5?$AA?5?$AAD?$AAD?$AAO?$AAV?$AAE?$AAR?$AA_?$AAA?$AAL?$AAP?$AAH?$AAA?$AAC?$AAO?$AAN?$AAS?$AAT?$AAO?$AAV?$AAE?$AAR?$AAR?$AAI?$AAD?$AAE?$AA?$DL?$AA?5?$AA?$AA@| [ DATA ] ; `string'
	EXPORT	|??_C@_1DK@PEDOBHHJ@?$AAp?$AAd?$AA?9?$AA?$DO?$AAd?$AAw?$AAF?$AAl?$AAa?$AAg?$AAs?$AA?5?$AA?5?$AA?5?$AA?5?$AA?5?$AA?5?$AA?5?$AA?5?$AA?5?$AA?$DN?$AA?5?$AA0?$AAx?$AA?$CF?$AAx?$AA?$AN?$AA?6?$AA?$AA@| [ DATA ] ; `string'
	EXPORT	|??_C@_1FA@IDHPJFOM@?$AAp?$AAd?$AA?9?$AA?$DO?$AAr?$AAS?$AAr?$AAc?$AA?5?$AA?5?$AA?5?$AA?5?$AA?5?$AA?5?$AA?5?$AA?5?$AA?5?$AA?5?$AA?5?$AA?5?$AA?$DN?$AA?5?$AA?$CI?$AA?$CF?$AAd?$AA?0?$AA?$CF?$AAd?$AA?$CJ?$AA?5?$AA?$CI?$AA?$CF@| [ DATA ] ; `string'
	EXPORT	|??_C@_1DK@ODCMFCLF@?$AAp?$AAd?$AA?9?$AA?$DO?$AAl?$AAp?$AAD?$AAD?$AAS?$AAr?$AAc?$AAS?$AAu?$AAr?$AAf?$AAa?$AAc?$AAe?$AA?5?$AA?5?$AA?$DN?$AA?5?$AA0?$AAx?$AA?$CF?$AAx?$AA?$AN?$AA?6?$AA?$AA@| [ DATA ] ; `string'
	EXPORT	|??_C@_1FA@NLBNKKEK@?$AAp?$AAd?$AA?9?$AA?$DO?$AAr?$AAD?$AAe?$AAs?$AAt?$AA?5?$AA?5?$AA?5?$AA?5?$AA?5?$AA?5?$AA?5?$AA?5?$AA?5?$AA?5?$AA?5?$AA?$DN?$AA?5?$AA?$CI?$AA?$CF?$AAd?$AA?0?$AA?$CF?$AAd?$AA?$CJ?$AA?5?$AA?$CI?$AA?$CF@| [ DATA ] ; `string'
	EXPORT	|??_C@_1DK@FGFNACKJ@?$AAp?$AAd?$AA?9?$AA?$DO?$AAl?$AAp?$AAD?$AAD?$AAD?$AAe?$AAs?$AAt?$AAS?$AAu?$AAr?$AAf?$AAa?$AAc?$AAe?$AA?5?$AA?$DN?$AA?5?$AA0?$AAx?$AA?$CF?$AAx?$AA?$AN?$AA?6?$AA?$AA@| [ DATA ] ; `string'
	EXPORT	|??_C@_1DK@MNFOKEMP@?$AAL?$AAP?$AAD?$AAD?$AAH?$AAA?$AAL?$AA_?$AAU?$AAP?$AAD?$AAA?$AAT?$AAE?$AAO?$AAV?$AAE?$AAR?$AAL?$AAA?$AAY?$AAD?$AAA?$AAT?$AAA?$AA?3?$AA?$AN?$AA?6?$AA?$AA@| [ DATA ] ; `string'
	EXPORT	|?DumpDD_UPDATEOVERLAY@@YAXPAU_DDHAL_UPDATEOVERLAYDATA@@@Z| ; DumpDD_UPDATEOVERLAY
	IMPORT	|memcpy|

  00030			 AREA	 |.pdata|, PDATA
|$T42755| DCD	|$LN73@DumpDD_UPD|
	DCD	0x4001d004

  00000			 AREA	 |.rdata|, DATA, READONLY
|??_C@_1BK@HJMCCJCO@?$AA?5?$AA?5?$AA?$CF?$AAd?$AA?3?$AA?5?$AA0?$AAx?$AA?$CF?$AAx?$AA?$AN?$AA?6?$AA?$AA@| DCB " "
	DCB	0x0, " ", 0x0, "%", 0x0, "d", 0x0, ":", 0x0, " ", 0x0, "0"
	DCB	0x0, "x", 0x0, "%", 0x0, "x", 0x0, 0xd, 0x0, 0xa, 0x0, 0x0
	DCB	0x0					; `string'

  00000			 AREA	 |.rdata|, DATA, READONLY
|??_C@_1CG@LIMHBHMM@?$AAO?$AAv?$AAe?$AAr?$AAl?$AAa?$AAy?$AA?5?$AAZ?$AA?9?$AAo?$AAr?$AAd?$AAe?$AAr?$AA?3?$AA?$AN?$AA?6?$AA?$AA@| DCB "O"
	DCB	0x0, "v", 0x0, "e", 0x0, "r", 0x0, "l", 0x0, "a", 0x0, "y"
	DCB	0x0, " ", 0x0, "Z", 0x0, "-", 0x0, "o", 0x0, "r", 0x0, "d"
	DCB	0x0, "e", 0x0, "r", 0x0, ":", 0x0, 0xd, 0x0, 0xa, 0x0, 0x0
	DCB	0x0					; `string'

  00000			 AREA	 |.rdata|, DATA, READONLY
|??_C@_1CA@FFAPGPBE@?$AAp?$AAd?$AA?9?$AA?$DO?$AAo?$AAv?$AAe?$AAr?$AAl?$AAa?$AAy?$AAF?$AAX?$AA?$AN?$AA?6?$AA?$AA@| DCB "p"
	DCB	0x0, "d", 0x0, "-", 0x0, ">", 0x0, "o", 0x0, "v", 0x0, "e"
	DCB	0x0, "r", 0x0, "l", 0x0, "a", 0x0, "y", 0x0, "F", 0x0, "X"
	DCB	0x0, 0xd, 0x0, 0xa, 0x0, 0x0, 0x0	; `string'

  00000			 AREA	 |.rdata|, DATA, READONLY
|??_C@_1DE@JHFOECMB@?$AA?5?$AA?5?$AAD?$AAD?$AAO?$AAV?$AAE?$AAR?$AA_?$AAK?$AAE?$AAY?$AAS?$AAR?$AAC?$AAO?$AAV?$AAE?$AAR?$AAR?$AAI?$AAD?$AAE?$AA?$DL?$AA?5?$AA?$AA@| DCB " "
	DCB	0x0, " ", 0x0, "D", 0x0, "D", 0x0, "O", 0x0, "V", 0x0, "E"
	DCB	0x0, "R", 0x0, "_", 0x0, "K", 0x0, "E", 0x0, "Y", 0x0, "S"
	DCB	0x0, "R", 0x0, "C", 0x0, "O", 0x0, "V", 0x0, "E", 0x0, "R"
	DCB	0x0, "R", 0x0, "I", 0x0, "D", 0x0, "E", 0x0, ";", 0x0, " "
	DCB	0x0, 0x0, 0x0				; `string'

  00000			 AREA	 |.rdata|, DATA, READONLY
|??_C@_1CE@DAPKFPFC@?$AA?5?$AA?5?$AAD?$AAD?$AAO?$AAV?$AAE?$AAR?$AA_?$AAK?$AAE?$AAY?$AAS?$AAR?$AAC?$AA?$DL?$AA?5?$AA?$AA@| DCB " "
	DCB	0x0, " ", 0x0, "D", 0x0, "D", 0x0, "O", 0x0, "V", 0x0, "E"
	DCB	0x0, "R", 0x0, "_", 0x0, "K", 0x0, "E", 0x0, "Y", 0x0, "S"
	DCB	0x0, "R", 0x0, "C", 0x0, ";", 0x0, " ", 0x0, 0x0, 0x0 ; `string'

  00000			 AREA	 |.rdata|, DATA, READONLY
|??_C@_1DG@GAOBFMAA@?$AA?5?$AA?5?$AAD?$AAD?$AAO?$AAV?$AAE?$AAR?$AA_?$AAK?$AAE?$AAY?$AAD?$AAE?$AAS?$AAT?$AAO?$AAV?$AAE?$AAR?$AAR?$AAI?$AAD?$AAE?$AA?$DL?$AA?5?$AA?$AA@| DCB " "
	DCB	0x0, " ", 0x0, "D", 0x0, "D", 0x0, "O", 0x0, "V", 0x0, "E"
	DCB	0x0, "R", 0x0, "_", 0x0, "K", 0x0, "E", 0x0, "Y", 0x0, "D"
	DCB	0x0, "E", 0x0, "S", 0x0, "T", 0x0, "O", 0x0, "V", 0x0, "E"
	DCB	0x0, "R", 0x0, "R", 0x0, "I", 0x0, "D", 0x0, "E", 0x0, ";"
	DCB	0x0, " ", 0x0, 0x0, 0x0			; `string'

  00000			 AREA	 |.rdata|, DATA, READONLY
|??_C@_1CG@OPOALPAP@?$AA?5?$AA?5?$AAD?$AAD?$AAO?$AAV?$AAE?$AAR?$AA_?$AAK?$AAE?$AAY?$AAD?$AAE?$AAS?$AAT?$AA?$DL?$AA?5?$AA?$AA@| DCB " "
	DCB	0x0, " ", 0x0, "D", 0x0, "D", 0x0, "O", 0x0, "V", 0x0, "E"
	DCB	0x0, "R", 0x0, "_", 0x0, "K", 0x0, "E", 0x0, "Y", 0x0, "D"
	DCB	0x0, "E", 0x0, "S", 0x0, "T", 0x0, ";", 0x0, " ", 0x0, 0x0
	DCB	0x0					; `string'

  00000			 AREA	 |.rdata|, DATA, READONLY
|??_C@_1DA@PKJGOFML@?$AA?5?$AA?5?$AAD?$AAD?$AAO?$AAV?$AAE?$AAR?$AA_?$AAM?$AAI?$AAR?$AAR?$AAO?$AAR?$AAU?$AAP?$AAD?$AAO?$AAW?$AAN?$AA?$DL?$AA?5?$AA?$AA@| DCB " "
	DCB	0x0, " ", 0x0, "D", 0x0, "D", 0x0, "O", 0x0, "V", 0x0, "E"
	DCB	0x0, "R", 0x0, "_", 0x0, "M", 0x0, "I", 0x0, "R", 0x0, "R"
	DCB	0x0, "O", 0x0, "R", 0x0, "U", 0x0, "P", 0x0, "D", 0x0, "O"
	DCB	0x0, "W", 0x0, "N", 0x0, ";", 0x0, " ", 0x0, 0x0, 0x0 ; `string'

  00000			 AREA	 |.rdata|, DATA, READONLY
|??_C@_1DG@IPODHGDC@?$AA?5?$AA?5?$AAD?$AAD?$AAO?$AAV?$AAE?$AAR?$AA_?$AAM?$AAI?$AAR?$AAR?$AAO?$AAR?$AAL?$AAE?$AAF?$AAT?$AAR?$AAI?$AAG?$AAH?$AAT?$AA?$DL?$AA?5?$AA?$AA@| DCB " "
	DCB	0x0, " ", 0x0, "D", 0x0, "D", 0x0, "O", 0x0, "V", 0x0, "E"
	DCB	0x0, "R", 0x0, "_", 0x0, "M", 0x0, "I", 0x0, "R", 0x0, "R"
	DCB	0x0, "O", 0x0, "R", 0x0, "L", 0x0, "E", 0x0, "F", 0x0, "T"
	DCB	0x0, "R", 0x0, "I", 0x0, "G", 0x0, "H", 0x0, "T", 0x0, ";"
	DCB	0x0, " ", 0x0, 0x0, 0x0			; `string'

  00000			 AREA	 |.rdata|, DATA, READONLY
|??_C@_1CK@HPMFCGMJ@?$AA?5?$AA?5?$AAD?$AAD?$AAO?$AAV?$AAE?$AAR?$AA_?$AAW?$AAA?$AAI?$AAT?$AAV?$AAS?$AAY?$AAN?$AAC?$AA?$DL?$AA?5?$AA?$AA@| DCB " "
	DCB	0x0, " ", 0x0, "D", 0x0, "D", 0x0, "O", 0x0, "V", 0x0, "E"
	DCB	0x0, "R", 0x0, "_", 0x0, "W", 0x0, "A", 0x0, "I", 0x0, "T"
	DCB	0x0, "V", 0x0, "S", 0x0, "Y", 0x0, "N", 0x0, "C", 0x0, ";"
	DCB	0x0, " ", 0x0, 0x0, 0x0			; `string'

  00000			 AREA	 |.rdata|, DATA, READONLY
|??_C@_1CO@HBMPIBPK@?$AA?5?$AA?5?$AAD?$AAD?$AAO?$AAV?$AAE?$AAR?$AA_?$AAW?$AAA?$AAI?$AAT?$AAN?$AAO?$AAT?$AAB?$AAU?$AAS?$AAY?$AA?$DL?$AA?5?$AA?$AA@| DCB " "
	DCB	0x0, " ", 0x0, "D", 0x0, "D", 0x0, "O", 0x0, "V", 0x0, "E"
	DCB	0x0, "R", 0x0, "_", 0x0, "W", 0x0, "A", 0x0, "I", 0x0, "T"
	DCB	0x0, "N", 0x0, "O", 0x0, "T", 0x0, "B", 0x0, "U", 0x0, "S"
	DCB	0x0, "Y", 0x0, ";", 0x0, " ", 0x0, 0x0, 0x0 ; `string'

  00000			 AREA	 |.rdata|, DATA, READONLY
|??_C@_1CI@JGPMEBEE@?$AA?5?$AA?5?$AAD?$AAD?$AAO?$AAV?$AAE?$AAR?$AA_?$AAA?$AAU?$AAT?$AAO?$AAF?$AAL?$AAI?$AAP?$AA?$DL?$AA?5?$AA?$AA@| DCB " "
	DCB	0x0, " ", 0x0, "D", 0x0, "D", 0x0, "O", 0x0, "V", 0x0, "E"
	DCB	0x0, "R", 0x0, "_", 0x0, "A", 0x0, "U", 0x0, "T", 0x0, "O"
	DCB	0x0, "F", 0x0, "L", 0x0, "I", 0x0, "P", 0x0, ";", 0x0, " "
	DCB	0x0, 0x0, 0x0				; `string'

  00000			 AREA	 |.rdata|, DATA, READONLY
|??_C@_1CA@ECEKEADO@?$AA?5?$AA?5?$AAD?$AAD?$AAO?$AAV?$AAE?$AAR?$AA_?$AAH?$AAI?$AAD?$AAE?$AA?$DL?$AA?5?$AA?$AA@| DCB " "
	DCB	0x0, " ", 0x0, "D", 0x0, "D", 0x0, "O", 0x0, "V", 0x0, "E"
	DCB	0x0, "R", 0x0, "_", 0x0, "H", 0x0, "I", 0x0, "D", 0x0, "E"
	DCB	0x0, ";", 0x0, " ", 0x0, 0x0, 0x0	; `string'

  00000			 AREA	 |.rdata|, DATA, READONLY
|??_C@_1CA@DGBLMGHB@?$AA?5?$AA?5?$AAD?$AAD?$AAO?$AAV?$AAE?$AAR?$AA_?$AAS?$AAH?$AAO?$AAW?$AA?$DL?$AA?5?$AA?$AA@| DCB " "
	DCB	0x0, " ", 0x0, "D", 0x0, "D", 0x0, "O", 0x0, "V", 0x0, "E"
	DCB	0x0, "R", 0x0, "_", 0x0, "S", 0x0, "H", 0x0, "O", 0x0, "W"
	DCB	0x0, ";", 0x0, " ", 0x0, 0x0, 0x0	; `string'

  00000			 AREA	 |.rdata|, DATA, READONLY
|??_C@_1CO@CJIKNMJB@?$AA?5?$AA?5?$AAD?$AAD?$AAO?$AAV?$AAE?$AAR?$AA_?$AAA?$AAL?$AAP?$AAH?$AAA?$AAS?$AAR?$AAC?$AAN?$AAE?$AAG?$AA?$DL?$AA?5?$AA?$AA@| DCB " "
	DCB	0x0, " ", 0x0, "D", 0x0, "D", 0x0, "O", 0x0, "V", 0x0, "E"
	DCB	0x0, "R", 0x0, "_", 0x0, "A", 0x0, "L", 0x0, "P", 0x0, "H"
	DCB	0x0, "A", 0x0, "S", 0x0, "R", 0x0, "C", 0x0, "N", 0x0, "E"
	DCB	0x0, "G", 0x0, ";", 0x0, " ", 0x0, 0x0, 0x0 ; `string'

  00000			 AREA	 |.rdata|, DATA, READONLY
|??_C@_1CI@EOOMLMHM@?$AA?5?$AA?5?$AAD?$AAD?$AAO?$AAV?$AAE?$AAR?$AA_?$AAA?$AAL?$AAP?$AAH?$AAA?$AAS?$AAR?$AAC?$AA?$DL?$AA?5?$AA?$AA@| DCB " "
	DCB	0x0, " ", 0x0, "D", 0x0, "D", 0x0, "O", 0x0, "V", 0x0, "E"
	DCB	0x0, "R", 0x0, "_", 0x0, "A", 0x0, "L", 0x0, "P", 0x0, "H"
	DCB	0x0, "A", 0x0, "S", 0x0, "R", 0x0, "C", 0x0, ";", 0x0, " "
	DCB	0x0, 0x0, 0x0				; `string'

  00000			 AREA	 |.rdata|, DATA, READONLY
|??_C@_1DA@DMCJCCAH@?$AA?5?$AA?5?$AAD?$AAD?$AAO?$AAV?$AAE?$AAR?$AA_?$AAA?$AAL?$AAP?$AAH?$AAA?$AAD?$AAE?$AAS?$AAT?$AAN?$AAE?$AAG?$AA?$DL?$AA?5?$AA?$AA@| DCB " "
	DCB	0x0, " ", 0x0, "D", 0x0, "D", 0x0, "O", 0x0, "V", 0x0, "E"
	DCB	0x0, "R", 0x0, "_", 0x0, "A", 0x0, "L", 0x0, "P", 0x0, "H"
	DCB	0x0, "A", 0x0, "D", 0x0, "E", 0x0, "S", 0x0, "T", 0x0, "N"
	DCB	0x0, "E", 0x0, "G", 0x0, ";", 0x0, " ", 0x0, 0x0, 0x0 ; `string'

  00000			 AREA	 |.rdata|, DATA, READONLY
|??_C@_1CK@NNOEHLPH@?$AA?5?$AA?5?$AAD?$AAD?$AAO?$AAV?$AAE?$AAR?$AA_?$AAA?$AAL?$AAP?$AAH?$AAA?$AAD?$AAE?$AAS?$AAT?$AA?$DL?$AA?5?$AA?$AA@| DCB " "
	DCB	0x0, " ", 0x0, "D", 0x0, "D", 0x0, "O", 0x0, "V", 0x0, "E"
	DCB	0x0, "R", 0x0, "_", 0x0, "A", 0x0, "L", 0x0, "P", 0x0, "H"
	DCB	0x0, "A", 0x0, "D", 0x0, "E", 0x0, "S", 0x0, "T", 0x0, ";"
	DCB	0x0, " ", 0x0, 0x0, 0x0			; `string'

  00000			 AREA	 |.rdata|, DATA, READONLY
|??_C@_1DM@FNDGBEDA@?$AA?5?$AA?5?$AAD?$AAD?$AAO?$AAV?$AAE?$AAR?$AA_?$AAA?$AAL?$AAP?$AAH?$AAA?$AAC?$AAO?$AAN?$AAS?$AAT?$AAO?$AAV?$AAE?$AAR?$AAR?$AAI?$AAD?$AAE?$AA?$DL?$AA?5?$AA?$AA@| DCB " "
	DCB	0x0, " ", 0x0, "D", 0x0, "D", 0x0, "O", 0x0, "V", 0x0, "E"
	DCB	0x0, "R", 0x0, "_", 0x0, "A", 0x0, "L", 0x0, "P", 0x0, "H"
	DCB	0x0, "A", 0x0, "C", 0x0, "O", 0x0, "N", 0x0, "S", 0x0, "T"
	DCB	0x0, "O", 0x0, "V", 0x0, "E", 0x0, "R", 0x0, "R", 0x0, "I"
	DCB	0x0, "D", 0x0, "E", 0x0, ";", 0x0, " ", 0x0, 0x0, 0x0 ; `string'

  00000			 AREA	 |.rdata|, DATA, READONLY
|??_C@_1DK@PEDOBHHJ@?$AAp?$AAd?$AA?9?$AA?$DO?$AAd?$AAw?$AAF?$AAl?$AAa?$AAg?$AAs?$AA?5?$AA?5?$AA?5?$AA?5?$AA?5?$AA?5?$AA?5?$AA?5?$AA?5?$AA?$DN?$AA?5?$AA0?$AAx?$AA?$CF?$AAx?$AA?$AN?$AA?6?$AA?$AA@| DCB "p"
	DCB	0x0, "d", 0x0, "-", 0x0, ">", 0x0, "d", 0x0, "w", 0x0, "F"
	DCB	0x0, "l", 0x0, "a", 0x0, "g", 0x0, "s", 0x0, " ", 0x0, " "
	DCB	0x0, " ", 0x0, " ", 0x0, " ", 0x0, " ", 0x0, " ", 0x0, " "
	DCB	0x0, " ", 0x0, "=", 0x0, " ", 0x0, "0", 0x0, "x", 0x0, "%"
	DCB	0x0, "x", 0x0, 0xd, 0x0, 0xa, 0x0, 0x0, 0x0 ; `string'

  00000			 AREA	 |.rdata|, DATA, READONLY
|??_C@_1FA@IDHPJFOM@?$AAp?$AAd?$AA?9?$AA?$DO?$AAr?$AAS?$AAr?$AAc?$AA?5?$AA?5?$AA?5?$AA?5?$AA?5?$AA?5?$AA?5?$AA?5?$AA?5?$AA?5?$AA?5?$AA?5?$AA?$DN?$AA?5?$AA?$CI?$AA?$CF?$AAd?$AA?0?$AA?$CF?$AAd?$AA?$CJ?$AA?5?$AA?$CI?$AA?$CF@| DCB "p"
	DCB	0x0, "d", 0x0, "-", 0x0, ">", 0x0, "r", 0x0, "S", 0x0, "r"
	DCB	0x0, "c", 0x0, " ", 0x0, " ", 0x0, " ", 0x0, " ", 0x0, " "
	DCB	0x0, " ", 0x0, " ", 0x0, " ", 0x0, " ", 0x0, " ", 0x0, " "
	DCB	0x0, " ", 0x0, "=", 0x0, " ", 0x0, "(", 0x0, "%", 0x0, "d"
	DCB	0x0, ",", 0x0, "%", 0x0, "d", 0x0, ")", 0x0, " ", 0x0, "("
	DCB	0x0, "%", 0x0, "d", 0x0, ",", 0x0, "%", 0x0, "d", 0x0, ")"
	DCB	0x0, 0xd, 0x0, 0xa, 0x0, 0x0, 0x0	; `string'

  00000			 AREA	 |.rdata|, DATA, READONLY
|??_C@_1DK@ODCMFCLF@?$AAp?$AAd?$AA?9?$AA?$DO?$AAl?$AAp?$AAD?$AAD?$AAS?$AAr?$AAc?$AAS?$AAu?$AAr?$AAf?$AAa?$AAc?$AAe?$AA?5?$AA?5?$AA?$DN?$AA?5?$AA0?$AAx?$AA?$CF?$AAx?$AA?$AN?$AA?6?$AA?$AA@| DCB "p"
	DCB	0x0, "d", 0x0, "-", 0x0, ">", 0x0, "l", 0x0, "p", 0x0, "D"
	DCB	0x0, "D", 0x0, "S", 0x0, "r", 0x0, "c", 0x0, "S", 0x0, "u"
	DCB	0x0, "r", 0x0, "f", 0x0, "a", 0x0, "c", 0x0, "e", 0x0, " "
	DCB	0x0, " ", 0x0, "=", 0x0, " ", 0x0, "0", 0x0, "x", 0x0, "%"
	DCB	0x0, "x", 0x0, 0xd, 0x0, 0xa, 0x0, 0x0, 0x0 ; `string'

  00000			 AREA	 |.rdata|, DATA, READONLY
|??_C@_1FA@NLBNKKEK@?$AAp?$AAd?$AA?9?$AA?$DO?$AAr?$AAD?$AAe?$AAs?$AAt?$AA?5?$AA?5?$AA?5?$AA?5?$AA?5?$AA?5?$AA?5?$AA?5?$AA?5?$AA?5?$AA?5?$AA?$DN?$AA?5?$AA?$CI?$AA?$CF?$AAd?$AA?0?$AA?$CF?$AAd?$AA?$CJ?$AA?5?$AA?$CI?$AA?$CF@| DCB "p"
	DCB	0x0, "d", 0x0, "-", 0x0, ">", 0x0, "r", 0x0, "D", 0x0, "e"
	DCB	0x0, "s", 0x0, "t", 0x0, " ", 0x0, " ", 0x0, " ", 0x0, " "
	DCB	0x0, " ", 0x0, " ", 0x0, " ", 0x0, " ", 0x0, " ", 0x0, " "
	DCB	0x0, " ", 0x0, "=", 0x0, " ", 0x0, "(", 0x0, "%", 0x0, "d"
	DCB	0x0, ",", 0x0, "%", 0x0, "d", 0x0, ")", 0x0, " ", 0x0, "("
	DCB	0x0, "%", 0x0, "d", 0x0, ",", 0x0, "%", 0x0, "d", 0x0, ")"
	DCB	0x0, 0xd, 0x0, 0xa, 0x0, 0x0, 0x0	; `string'

  00000			 AREA	 |.rdata|, DATA, READONLY
|??_C@_1DK@FGFNACKJ@?$AAp?$AAd?$AA?9?$AA?$DO?$AAl?$AAp?$AAD?$AAD?$AAD?$AAe?$AAs?$AAt?$AAS?$AAu?$AAr?$AAf?$AAa?$AAc?$AAe?$AA?5?$AA?$DN?$AA?5?$AA0?$AAx?$AA?$CF?$AAx?$AA?$AN?$AA?6?$AA?$AA@| DCB "p"
	DCB	0x0, "d", 0x0, "-", 0x0, ">", 0x0, "l", 0x0, "p", 0x0, "D"
	DCB	0x0, "D", 0x0, "D", 0x0, "e", 0x0, "s", 0x0, "t", 0x0, "S"
	DCB	0x0, "u", 0x0, "r", 0x0, "f", 0x0, "a", 0x0, "c", 0x0, "e"
	DCB	0x0, " ", 0x0, "=", 0x0, " ", 0x0, "0", 0x0, "x", 0x0, "%"
	DCB	0x0, "x", 0x0, 0xd, 0x0, 0xa, 0x0, 0x0, 0x0 ; `string'

  00000			 AREA	 |.rdata|, DATA, READONLY
|??_C@_1DK@MNFOKEMP@?$AAL?$AAP?$AAD?$AAD?$AAH?$AAA?$AAL?$AA_?$AAU?$AAP?$AAD?$AAA?$AAT?$AAE?$AAO?$AAV?$AAE?$AAR?$AAL?$AAA?$AAY?$AAD?$AAA?$AAT?$AAA?$AA?3?$AA?$AN?$AA?6?$AA?$AA@| DCB "L"
	DCB	0x0, "P", 0x0, "D", 0x0, "D", 0x0, "H", 0x0, "A", 0x0, "L"
	DCB	0x0, "_", 0x0, "U", 0x0, "P", 0x0, "D", 0x0, "A", 0x0, "T"
	DCB	0x0, "E", 0x0, "O", 0x0, "V", 0x0, "E", 0x0, "R", 0x0, "L"
	DCB	0x0, "A", 0x0, "Y", 0x0, "D", 0x0, "A", 0x0, "T", 0x0, "A"
	DCB	0x0, ":", 0x0, 0xd, 0x0, 0xa, 0x0, 0x0, 0x0 ; `string'
; Function compile flags: /Odtp

  00c20			 AREA	 |.text|, CODE, ARM

  00c20		 |?DumpDD_UPDATEOVERLAY@@YAXPAU_DDHAL_UPDATEOVERLAYDATA@@@Z| PROC ; DumpDD_UPDATEOVERLAY

; 150  : {

  00c20		 |$LN73@DumpDD_UPD|
  00c20	e1a0c00d	 mov         r12, sp
  00c24	e92d0001	 stmdb       sp!, {r0}
  00c28	e92d5000	 stmdb       sp!, {r12, lr}
  00c2c	e24dd080	 sub         sp, sp, #0x80
  00c30		 |$M42752|

; 151  :     DWORD   i = 0;

  00c30	e3a03000	 mov         r3, #0
  00c34	e58d300c	 str         r3, [sp, #0xC]

; 152  :     
; 153  :     DEBUGMSG(GPE_ZONE_DDRAW_HAL, (L"LPDDHAL_UPDATEOVERLAYDATA:\r\n"));

  00c38	e59f36bc	 ldr         r3, [pc, #0x6BC]
  00c3c	e5933440	 ldr         r3, [r3, #0x440]
  00c40	e3130902	 tst         r3, #2, 18
  00c44	0a000004	 beq         |$LN21@DumpDD_UPD|
  00c48	e59f070c	 ldr         r0, [pc, #0x70C]
  00c4c	eb000000	 bl          NKDbgPrintfW
  00c50	e3a03001	 mov         r3, #1
  00c54	e58d3018	 str         r3, [sp, #0x18]
  00c58	ea000001	 b           |$LN22@DumpDD_UPD|
  00c5c		 |$LN21@DumpDD_UPD|
  00c5c	e3a03000	 mov         r3, #0
  00c60	e58d3018	 str         r3, [sp, #0x18]
  00c64		 |$LN22@DumpDD_UPD|

; 154  :     DEBUGMSG(GPE_ZONE_DDRAW_HAL, (L"pd->lpDDDestSurface = 0x%x\r\n", pd->lpDDDestSurface));

  00c64	e59f3690	 ldr         r3, [pc, #0x690]
  00c68	e5933440	 ldr         r3, [r3, #0x440]
  00c6c	e3130902	 tst         r3, #2, 18
  00c70	0a000007	 beq         |$LN23@DumpDD_UPD|
  00c74	e59d3088	 ldr         r3, [sp, #0x88]
  00c78	e2833004	 add         r3, r3, #4
  00c7c	e5931000	 ldr         r1, [r3]
  00c80	e59f06d0	 ldr         r0, [pc, #0x6D0]
  00c84	eb000000	 bl          NKDbgPrintfW
  00c88	e3a03001	 mov         r3, #1
  00c8c	e58d301c	 str         r3, [sp, #0x1C]
  00c90	ea000001	 b           |$LN24@DumpDD_UPD|
  00c94		 |$LN23@DumpDD_UPD|
  00c94	e3a03000	 mov         r3, #0
  00c98	e58d301c	 str         r3, [sp, #0x1C]
  00c9c		 |$LN24@DumpDD_UPD|

; 155  :     DEBUGMSG(GPE_ZONE_DDRAW_HAL, (L"pd->rDest           = (%d,%d) (%d,%d)\r\n", pd->rDest.left, pd->rDest.top, pd->rDest.right, pd->rDest.bottom ));

  00c9c	e59f3658	 ldr         r3, [pc, #0x658]
  00ca0	e5933440	 ldr         r3, [r3, #0x440]
  00ca4	e3130902	 tst         r3, #2, 18
  00ca8	0a000011	 beq         |$LN25@DumpDD_UPD|
  00cac	e59d3088	 ldr         r3, [sp, #0x88]
  00cb0	e2833014	 add         r3, r3, #0x14
  00cb4	e5933000	 ldr         r3, [r3]
  00cb8	e58d3000	 str         r3, [sp]
  00cbc	e59d3088	 ldr         r3, [sp, #0x88]
  00cc0	e2833010	 add         r3, r3, #0x10
  00cc4	e5933000	 ldr         r3, [r3]
  00cc8	e59d2088	 ldr         r2, [sp, #0x88]
  00ccc	e282200c	 add         r2, r2, #0xC
  00cd0	e5922000	 ldr         r2, [r2]
  00cd4	e59d1088	 ldr         r1, [sp, #0x88]
  00cd8	e2811008	 add         r1, r1, #8
  00cdc	e5911000	 ldr         r1, [r1]
  00ce0	e59f066c	 ldr         r0, [pc, #0x66C]
  00ce4	eb000000	 bl          NKDbgPrintfW
  00ce8	e3a03001	 mov         r3, #1
  00cec	e58d3020	 str         r3, [sp, #0x20]
  00cf0	ea000001	 b           |$LN26@DumpDD_UPD|
  00cf4		 |$LN25@DumpDD_UPD|
  00cf4	e3a03000	 mov         r3, #0
  00cf8	e58d3020	 str         r3, [sp, #0x20]
  00cfc		 |$LN26@DumpDD_UPD|

; 156  :     DEBUGMSG(GPE_ZONE_DDRAW_HAL, (L"pd->lpDDSrcSurface  = 0x%x\r\n", pd->lpDDSrcSurface));

  00cfc	e59f35f8	 ldr         r3, [pc, #0x5F8]
  00d00	e5933440	 ldr         r3, [r3, #0x440]
  00d04	e3130902	 tst         r3, #2, 18
  00d08	0a000007	 beq         |$LN27@DumpDD_UPD|
  00d0c	e59d3088	 ldr         r3, [sp, #0x88]
  00d10	e2833018	 add         r3, r3, #0x18
  00d14	e5931000	 ldr         r1, [r3]
  00d18	e59f0630	 ldr         r0, [pc, #0x630]
  00d1c	eb000000	 bl          NKDbgPrintfW
  00d20	e3a03001	 mov         r3, #1
  00d24	e58d3024	 str         r3, [sp, #0x24]
  00d28	ea000001	 b           |$LN28@DumpDD_UPD|
  00d2c		 |$LN27@DumpDD_UPD|
  00d2c	e3a03000	 mov         r3, #0
  00d30	e58d3024	 str         r3, [sp, #0x24]
  00d34		 |$LN28@DumpDD_UPD|

; 157  :     DEBUGMSG(GPE_ZONE_DDRAW_HAL, (L"pd->rSrc            = (%d,%d) (%d,%d)\r\n", pd->rSrc.left, pd->rSrc.top, pd->rSrc.right, pd->rSrc.bottom ));

  00d34	e59f35c0	 ldr         r3, [pc, #0x5C0]
  00d38	e5933440	 ldr         r3, [r3, #0x440]
  00d3c	e3130902	 tst         r3, #2, 18
  00d40	0a000011	 beq         |$LN29@DumpDD_UPD|
  00d44	e59d3088	 ldr         r3, [sp, #0x88]
  00d48	e2833028	 add         r3, r3, #0x28
  00d4c	e5933000	 ldr         r3, [r3]
  00d50	e58d3000	 str         r3, [sp]
  00d54	e59d3088	 ldr         r3, [sp, #0x88]
  00d58	e2833024	 add         r3, r3, #0x24
  00d5c	e5933000	 ldr         r3, [r3]
  00d60	e59d2088	 ldr         r2, [sp, #0x88]
  00d64	e2822020	 add         r2, r2, #0x20
  00d68	e5922000	 ldr         r2, [r2]
  00d6c	e59d1088	 ldr         r1, [sp, #0x88]
  00d70	e281101c	 add         r1, r1, #0x1C
  00d74	e5911000	 ldr         r1, [r1]
  00d78	e59f05cc	 ldr         r0, [pc, #0x5CC]
  00d7c	eb000000	 bl          NKDbgPrintfW
  00d80	e3a03001	 mov         r3, #1
  00d84	e58d3028	 str         r3, [sp, #0x28]
  00d88	ea000001	 b           |$LN30@DumpDD_UPD|
  00d8c		 |$LN29@DumpDD_UPD|
  00d8c	e3a03000	 mov         r3, #0
  00d90	e58d3028	 str         r3, [sp, #0x28]
  00d94		 |$LN30@DumpDD_UPD|

; 158  : 
; 159  :     DEBUGMSG(GPE_ZONE_DDRAW_HAL, (L"pd->dwFlags         = 0x%x\r\n", pd->dwFlags));

  00d94	e59f3560	 ldr         r3, [pc, #0x560]
  00d98	e5933440	 ldr         r3, [r3, #0x440]
  00d9c	e3130902	 tst         r3, #2, 18
  00da0	0a000007	 beq         |$LN31@DumpDD_UPD|
  00da4	e59d3088	 ldr         r3, [sp, #0x88]
  00da8	e283302c	 add         r3, r3, #0x2C
  00dac	e5931000	 ldr         r1, [r3]
  00db0	e59f0590	 ldr         r0, [pc, #0x590]
  00db4	eb000000	 bl          NKDbgPrintfW
  00db8	e3a03001	 mov         r3, #1
  00dbc	e58d302c	 str         r3, [sp, #0x2C]
  00dc0	ea000001	 b           |$LN32@DumpDD_UPD|
  00dc4		 |$LN31@DumpDD_UPD|
  00dc4	e3a03000	 mov         r3, #0
  00dc8	e58d302c	 str         r3, [sp, #0x2C]
  00dcc		 |$LN32@DumpDD_UPD|

; 160  :     if( pd->dwFlags & DDOVER_ALPHACONSTOVERRIDE)

  00dcc	e59d3088	 ldr         r3, [sp, #0x88]
  00dd0	e283302c	 add         r3, r3, #0x2C
  00dd4	e5933000	 ldr         r3, [r3]
  00dd8	e3130010	 tst         r3, #0x10
  00ddc	0a00000a	 beq         |$LN18@DumpDD_UPD|

; 161  :         DEBUGMSG(GPE_ZONE_DDRAW_HAL, (TEXT("  DDOVER_ALPHACONSTOVERRIDE; ")));

  00de0	e59f3514	 ldr         r3, [pc, #0x514]
  00de4	e5933440	 ldr         r3, [r3, #0x440]
  00de8	e3130902	 tst         r3, #2, 18
  00dec	0a000004	 beq         |$LN33@DumpDD_UPD|
  00df0	e59f054c	 ldr         r0, [pc, #0x54C]
  00df4	eb000000	 bl          NKDbgPrintfW
  00df8	e3a03001	 mov         r3, #1
  00dfc	e58d3030	 str         r3, [sp, #0x30]
  00e00	ea000001	 b           |$LN34@DumpDD_UPD|
  00e04		 |$LN33@DumpDD_UPD|
  00e04	e3a03000	 mov         r3, #0
  00e08	e58d3030	 str         r3, [sp, #0x30]
  00e0c		 |$LN34@DumpDD_UPD|
  00e0c		 |$LN18@DumpDD_UPD|

; 162  :     if( pd->dwFlags & DDOVER_ALPHADEST)

  00e0c	e59d3088	 ldr         r3, [sp, #0x88]
  00e10	e283302c	 add         r3, r3, #0x2C
  00e14	e5933000	 ldr         r3, [r3]
  00e18	e3130001	 tst         r3, #1
  00e1c	0a00000a	 beq         |$LN17@DumpDD_UPD|

; 163  :         DEBUGMSG(GPE_ZONE_DDRAW_HAL, (TEXT("  DDOVER_ALPHADEST; ")));

  00e20	e59f34d4	 ldr         r3, [pc, #0x4D4]
  00e24	e5933440	 ldr         r3, [r3, #0x440]
  00e28	e3130902	 tst         r3, #2, 18
  00e2c	0a000004	 beq         |$LN35@DumpDD_UPD|
  00e30	e59f0508	 ldr         r0, [pc, #0x508]
  00e34	eb000000	 bl          NKDbgPrintfW
  00e38	e3a03001	 mov         r3, #1
  00e3c	e58d3034	 str         r3, [sp, #0x34]
  00e40	ea000001	 b           |$LN36@DumpDD_UPD|
  00e44		 |$LN35@DumpDD_UPD|
  00e44	e3a03000	 mov         r3, #0
  00e48	e58d3034	 str         r3, [sp, #0x34]
  00e4c		 |$LN36@DumpDD_UPD|
  00e4c		 |$LN17@DumpDD_UPD|

; 164  :     if( pd->dwFlags & DDOVER_ALPHADESTNEG)

  00e4c	e59d3088	 ldr         r3, [sp, #0x88]
  00e50	e283302c	 add         r3, r3, #0x2C
  00e54	e5933000	 ldr         r3, [r3]
  00e58	e3130002	 tst         r3, #2
  00e5c	0a00000a	 beq         |$LN16@DumpDD_UPD|

; 165  :         DEBUGMSG(GPE_ZONE_DDRAW_HAL, (TEXT("  DDOVER_ALPHADESTNEG; ")));

  00e60	e59f3494	 ldr         r3, [pc, #0x494]
  00e64	e5933440	 ldr         r3, [r3, #0x440]
  00e68	e3130902	 tst         r3, #2, 18
  00e6c	0a000004	 beq         |$LN37@DumpDD_UPD|
  00e70	e59f04c4	 ldr         r0, [pc, #0x4C4]
  00e74	eb000000	 bl          NKDbgPrintfW
  00e78	e3a03001	 mov         r3, #1
  00e7c	e58d3038	 str         r3, [sp, #0x38]
  00e80	ea000001	 b           |$LN38@DumpDD_UPD|
  00e84		 |$LN37@DumpDD_UPD|
  00e84	e3a03000	 mov         r3, #0
  00e88	e58d3038	 str         r3, [sp, #0x38]
  00e8c		 |$LN38@DumpDD_UPD|
  00e8c		 |$LN16@DumpDD_UPD|

; 166  :     if( pd->dwFlags & DDOVER_ALPHASRC)

  00e8c	e59d3088	 ldr         r3, [sp, #0x88]
  00e90	e283302c	 add         r3, r3, #0x2C
  00e94	e5933000	 ldr         r3, [r3]
  00e98	e3130004	 tst         r3, #4
  00e9c	0a00000a	 beq         |$LN15@DumpDD_UPD|

; 167  :         DEBUGMSG(GPE_ZONE_DDRAW_HAL, (TEXT("  DDOVER_ALPHASRC; ")));

  00ea0	e59f3454	 ldr         r3, [pc, #0x454]
  00ea4	e5933440	 ldr         r3, [r3, #0x440]
  00ea8	e3130902	 tst         r3, #2, 18
  00eac	0a000004	 beq         |$LN39@DumpDD_UPD|
  00eb0	e59f0480	 ldr         r0, [pc, #0x480]
  00eb4	eb000000	 bl          NKDbgPrintfW
  00eb8	e3a03001	 mov         r3, #1
  00ebc	e58d303c	 str         r3, [sp, #0x3C]
  00ec0	ea000001	 b           |$LN40@DumpDD_UPD|
  00ec4		 |$LN39@DumpDD_UPD|
  00ec4	e3a03000	 mov         r3, #0
  00ec8	e58d303c	 str         r3, [sp, #0x3C]
  00ecc		 |$LN40@DumpDD_UPD|
  00ecc		 |$LN15@DumpDD_UPD|

; 168  :     if( pd->dwFlags & DDOVER_ALPHASRCNEG)

  00ecc	e59d3088	 ldr         r3, [sp, #0x88]
  00ed0	e283302c	 add         r3, r3, #0x2C
  00ed4	e5933000	 ldr         r3, [r3]
  00ed8	e3130008	 tst         r3, #8
  00edc	0a00000a	 beq         |$LN14@DumpDD_UPD|

; 169  :         DEBUGMSG(GPE_ZONE_DDRAW_HAL, (TEXT("  DDOVER_ALPHASRCNEG; ")));

  00ee0	e59f3414	 ldr         r3, [pc, #0x414]
  00ee4	e5933440	 ldr         r3, [r3, #0x440]
  00ee8	e3130902	 tst         r3, #2, 18
  00eec	0a000004	 beq         |$LN41@DumpDD_UPD|
  00ef0	e59f043c	 ldr         r0, [pc, #0x43C]
  00ef4	eb000000	 bl          NKDbgPrintfW
  00ef8	e3a03001	 mov         r3, #1
  00efc	e58d3040	 str         r3, [sp, #0x40]
  00f00	ea000001	 b           |$LN42@DumpDD_UPD|
  00f04		 |$LN41@DumpDD_UPD|
  00f04	e3a03000	 mov         r3, #0
  00f08	e58d3040	 str         r3, [sp, #0x40]
  00f0c		 |$LN42@DumpDD_UPD|
  00f0c		 |$LN14@DumpDD_UPD|

; 170  :     if( pd->dwFlags & DDOVER_SHOW)

  00f0c	e59d3088	 ldr         r3, [sp, #0x88]
  00f10	e283302c	 add         r3, r3, #0x2C
  00f14	e5933000	 ldr         r3, [r3]
  00f18	e3130b01	 tst         r3, #1, 22
  00f1c	0a00000a	 beq         |$LN13@DumpDD_UPD|

; 171  :         DEBUGMSG(GPE_ZONE_DDRAW_HAL, (TEXT("  DDOVER_SHOW; ")));

  00f20	e59f33d4	 ldr         r3, [pc, #0x3D4]
  00f24	e5933440	 ldr         r3, [r3, #0x440]
  00f28	e3130902	 tst         r3, #2, 18
  00f2c	0a000004	 beq         |$LN43@DumpDD_UPD|
  00f30	e59f03f8	 ldr         r0, [pc, #0x3F8]
  00f34	eb000000	 bl          NKDbgPrintfW
  00f38	e3a03001	 mov         r3, #1
  00f3c	e58d3044	 str         r3, [sp, #0x44]
  00f40	ea000001	 b           |$LN44@DumpDD_UPD|
  00f44		 |$LN43@DumpDD_UPD|
  00f44	e3a03000	 mov         r3, #0
  00f48	e58d3044	 str         r3, [sp, #0x44]
  00f4c		 |$LN44@DumpDD_UPD|
  00f4c		 |$LN13@DumpDD_UPD|

; 172  :     if( pd->dwFlags & DDOVER_HIDE)

  00f4c	e59d3088	 ldr         r3, [sp, #0x88]
  00f50	e283302c	 add         r3, r3, #0x2C
  00f54	e5933000	 ldr         r3, [r3]
  00f58	e3130020	 tst         r3, #0x20
  00f5c	0a00000a	 beq         |$LN12@DumpDD_UPD|

; 173  :         DEBUGMSG(GPE_ZONE_DDRAW_HAL, (TEXT("  DDOVER_HIDE; ")));

  00f60	e59f3394	 ldr         r3, [pc, #0x394]
  00f64	e5933440	 ldr         r3, [r3, #0x440]
  00f68	e3130902	 tst         r3, #2, 18
  00f6c	0a000004	 beq         |$LN45@DumpDD_UPD|
  00f70	e59f03b4	 ldr         r0, [pc, #0x3B4]
  00f74	eb000000	 bl          NKDbgPrintfW
  00f78	e3a03001	 mov         r3, #1
  00f7c	e58d3048	 str         r3, [sp, #0x48]
  00f80	ea000001	 b           |$LN46@DumpDD_UPD|
  00f84		 |$LN45@DumpDD_UPD|
  00f84	e3a03000	 mov         r3, #0
  00f88	e58d3048	 str         r3, [sp, #0x48]
  00f8c		 |$LN46@DumpDD_UPD|
  00f8c		 |$LN12@DumpDD_UPD|

; 174  :     if( pd->dwFlags & DDOVER_AUTOFLIP)

  00f8c	e59d3088	 ldr         r3, [sp, #0x88]
  00f90	e283302c	 add         r3, r3, #0x2C
  00f94	e5933000	 ldr         r3, [r3]
  00f98	e3130601	 tst         r3, #1, 12
  00f9c	0a00000a	 beq         |$LN11@DumpDD_UPD|

; 175  :         DEBUGMSG(GPE_ZONE_DDRAW_HAL, (TEXT("  DDOVER_AUTOFLIP; ")));

  00fa0	e59f3354	 ldr         r3, [pc, #0x354]
  00fa4	e5933440	 ldr         r3, [r3, #0x440]
  00fa8	e3130902	 tst         r3, #2, 18
  00fac	0a000004	 beq         |$LN47@DumpDD_UPD|
  00fb0	e59f0370	 ldr         r0, [pc, #0x370]
  00fb4	eb000000	 bl          NKDbgPrintfW
  00fb8	e3a03001	 mov         r3, #1
  00fbc	e58d304c	 str         r3, [sp, #0x4C]
  00fc0	ea000001	 b           |$LN48@DumpDD_UPD|
  00fc4		 |$LN47@DumpDD_UPD|
  00fc4	e3a03000	 mov         r3, #0
  00fc8	e58d304c	 str         r3, [sp, #0x4C]
  00fcc		 |$LN48@DumpDD_UPD|
  00fcc		 |$LN11@DumpDD_UPD|

; 176  :     if( pd->dwFlags & DDOVER_WAITNOTBUSY)

  00fcc	e59d3088	 ldr         r3, [sp, #0x88]
  00fd0	e283302c	 add         r3, r3, #0x2C
  00fd4	e5933000	 ldr         r3, [r3]
  00fd8	e3130901	 tst         r3, #1, 18
  00fdc	0a00000a	 beq         |$LN10@DumpDD_UPD|

; 177  :         DEBUGMSG(GPE_ZONE_DDRAW_HAL, (TEXT("  DDOVER_WAITNOTBUSY; ")));

  00fe0	e59f3314	 ldr         r3, [pc, #0x314]
  00fe4	e5933440	 ldr         r3, [r3, #0x440]
  00fe8	e3130902	 tst         r3, #2, 18
  00fec	0a000004	 beq         |$LN49@DumpDD_UPD|
  00ff0	e59f032c	 ldr         r0, [pc, #0x32C]
  00ff4	eb000000	 bl          NKDbgPrintfW
  00ff8	e3a03001	 mov         r3, #1
  00ffc	e58d3050	 str         r3, [sp, #0x50]
  01000	ea000001	 b           |$LN50@DumpDD_UPD|
  01004		 |$LN49@DumpDD_UPD|
  01004	e3a03000	 mov         r3, #0
  01008	e58d3050	 str         r3, [sp, #0x50]
  0100c		 |$LN50@DumpDD_UPD|
  0100c		 |$LN10@DumpDD_UPD|

; 178  :     if( pd->dwFlags & DDOVER_WAITVSYNC)

  0100c	e59d3088	 ldr         r3, [sp, #0x88]
  01010	e283302c	 add         r3, r3, #0x2C
  01014	e5933000	 ldr         r3, [r3]
  01018	e3130902	 tst         r3, #2, 18
  0101c	0a00000a	 beq         |$LN9@DumpDD_UPD|

; 179  :         DEBUGMSG(GPE_ZONE_DDRAW_HAL, (TEXT("  DDOVER_WAITVSYNC; ")));

  01020	e59f32d4	 ldr         r3, [pc, #0x2D4]
  01024	e5933440	 ldr         r3, [r3, #0x440]
  01028	e3130902	 tst         r3, #2, 18
  0102c	0a000004	 beq         |$LN51@DumpDD_UPD|
  01030	e59f02e8	 ldr         r0, [pc, #0x2E8]
  01034	eb000000	 bl          NKDbgPrintfW
  01038	e3a03001	 mov         r3, #1
  0103c	e58d3054	 str         r3, [sp, #0x54]
  01040	ea000001	 b           |$LN52@DumpDD_UPD|
  01044		 |$LN51@DumpDD_UPD|
  01044	e3a03000	 mov         r3, #0
  01048	e58d3054	 str         r3, [sp, #0x54]
  0104c		 |$LN52@DumpDD_UPD|
  0104c		 |$LN9@DumpDD_UPD|

; 180  :     if( pd->dwFlags & DDOVER_MIRRORLEFTRIGHT)

  0104c	e59d3088	 ldr         r3, [sp, #0x88]
  01050	e283302c	 add         r3, r3, #0x2C
  01054	e5933000	 ldr         r3, [r3]
  01058	e3130a01	 tst         r3, #1, 20
  0105c	0a00000a	 beq         |$LN8@DumpDD_UPD|

; 181  :         DEBUGMSG(GPE_ZONE_DDRAW_HAL, (TEXT("  DDOVER_MIRRORLEFTRIGHT; ")));

  01060	e59f3294	 ldr         r3, [pc, #0x294]
  01064	e5933440	 ldr         r3, [r3, #0x440]
  01068	e3130902	 tst         r3, #2, 18
  0106c	0a000004	 beq         |$LN53@DumpDD_UPD|
  01070	e59f02a4	 ldr         r0, [pc, #0x2A4]
  01074	eb000000	 bl          NKDbgPrintfW
  01078	e3a03001	 mov         r3, #1
  0107c	e58d3058	 str         r3, [sp, #0x58]
  01080	ea000001	 b           |$LN54@DumpDD_UPD|
  01084		 |$LN53@DumpDD_UPD|
  01084	e3a03000	 mov         r3, #0
  01088	e58d3058	 str         r3, [sp, #0x58]
  0108c		 |$LN54@DumpDD_UPD|
  0108c		 |$LN8@DumpDD_UPD|

; 182  :     if( pd->dwFlags & DDOVER_MIRRORUPDOWN)

  0108c	e59d3088	 ldr         r3, [sp, #0x88]
  01090	e283302c	 add         r3, r3, #0x2C
  01094	e5933000	 ldr         r3, [r3]
  01098	e3130a02	 tst         r3, #2, 20
  0109c	0a00000a	 beq         |$LN7@DumpDD_UPD|

; 183  :         DEBUGMSG(GPE_ZONE_DDRAW_HAL, (TEXT("  DDOVER_MIRRORUPDOWN; ")));

  010a0	e59f3254	 ldr         r3, [pc, #0x254]
  010a4	e5933440	 ldr         r3, [r3, #0x440]
  010a8	e3130902	 tst         r3, #2, 18
  010ac	0a000004	 beq         |$LN55@DumpDD_UPD|
  010b0	e59f0260	 ldr         r0, [pc, #0x260]
  010b4	eb000000	 bl          NKDbgPrintfW
  010b8	e3a03001	 mov         r3, #1
  010bc	e58d305c	 str         r3, [sp, #0x5C]
  010c0	ea000001	 b           |$LN56@DumpDD_UPD|
  010c4		 |$LN55@DumpDD_UPD|
  010c4	e3a03000	 mov         r3, #0
  010c8	e58d305c	 str         r3, [sp, #0x5C]
  010cc		 |$LN56@DumpDD_UPD|
  010cc		 |$LN7@DumpDD_UPD|

; 184  :     if( pd->dwFlags & DDOVER_KEYDEST)

  010cc	e59d3088	 ldr         r3, [sp, #0x88]
  010d0	e283302c	 add         r3, r3, #0x2C
  010d4	e5933000	 ldr         r3, [r3]
  010d8	e3130040	 tst         r3, #0x40
  010dc	0a00000a	 beq         |$LN6@DumpDD_UPD|

; 185  :         DEBUGMSG(GPE_ZONE_DDRAW_HAL, (TEXT("  DDOVER_KEYDEST; ")));

  010e0	e59f3214	 ldr         r3, [pc, #0x214]
  010e4	e5933440	 ldr         r3, [r3, #0x440]
  010e8	e3130902	 tst         r3, #2, 18
  010ec	0a000004	 beq         |$LN57@DumpDD_UPD|
  010f0	e59f021c	 ldr         r0, [pc, #0x21C]
  010f4	eb000000	 bl          NKDbgPrintfW
  010f8	e3a03001	 mov         r3, #1
  010fc	e58d3060	 str         r3, [sp, #0x60]
  01100	ea000001	 b           |$LN58@DumpDD_UPD|
  01104		 |$LN57@DumpDD_UPD|
  01104	e3a03000	 mov         r3, #0
  01108	e58d3060	 str         r3, [sp, #0x60]
  0110c		 |$LN58@DumpDD_UPD|
  0110c		 |$LN6@DumpDD_UPD|

; 186  :     if( pd->dwFlags & DDOVER_KEYDESTOVERRIDE)

  0110c	e59d3088	 ldr         r3, [sp, #0x88]
  01110	e283302c	 add         r3, r3, #0x2C
  01114	e5933000	 ldr         r3, [r3]
  01118	e3130080	 tst         r3, #0x80
  0111c	0a00000a	 beq         |$LN5@DumpDD_UPD|

; 187  :         DEBUGMSG(GPE_ZONE_DDRAW_HAL, (TEXT("  DDOVER_KEYDESTOVERRIDE; ")));

  01120	e59f31d4	 ldr         r3, [pc, #0x1D4]
  01124	e5933440	 ldr         r3, [r3, #0x440]
  01128	e3130902	 tst         r3, #2, 18
  0112c	0a000004	 beq         |$LN59@DumpDD_UPD|
  01130	e59f01d8	 ldr         r0, [pc, #0x1D8]
  01134	eb000000	 bl          NKDbgPrintfW
  01138	e3a03001	 mov         r3, #1
  0113c	e58d3064	 str         r3, [sp, #0x64]
  01140	ea000001	 b           |$LN60@DumpDD_UPD|
  01144		 |$LN59@DumpDD_UPD|
  01144	e3a03000	 mov         r3, #0
  01148	e58d3064	 str         r3, [sp, #0x64]
  0114c		 |$LN60@DumpDD_UPD|
  0114c		 |$LN5@DumpDD_UPD|

; 188  :     if( pd->dwFlags & DDOVER_KEYSRC)

  0114c	e59d3088	 ldr         r3, [sp, #0x88]
  01150	e283302c	 add         r3, r3, #0x2C
  01154	e5933000	 ldr         r3, [r3]
  01158	e3130c01	 tst         r3, #1, 24
  0115c	0a00000a	 beq         |$LN4@DumpDD_UPD|

; 189  :         DEBUGMSG(GPE_ZONE_DDRAW_HAL, (TEXT("  DDOVER_KEYSRC; ")));

  01160	e59f3194	 ldr         r3, [pc, #0x194]
  01164	e5933440	 ldr         r3, [r3, #0x440]
  01168	e3130902	 tst         r3, #2, 18
  0116c	0a000004	 beq         |$LN61@DumpDD_UPD|
  01170	e59f0194	 ldr         r0, [pc, #0x194]
  01174	eb000000	 bl          NKDbgPrintfW
  01178	e3a03001	 mov         r3, #1
  0117c	e58d3068	 str         r3, [sp, #0x68]
  01180	ea000001	 b           |$LN62@DumpDD_UPD|
  01184		 |$LN61@DumpDD_UPD|
  01184	e3a03000	 mov         r3, #0
  01188	e58d3068	 str         r3, [sp, #0x68]
  0118c		 |$LN62@DumpDD_UPD|
  0118c		 |$LN4@DumpDD_UPD|

; 190  :     if( pd->dwFlags & DDOVER_KEYSRCOVERRIDE)

  0118c	e59d3088	 ldr         r3, [sp, #0x88]
  01190	e283302c	 add         r3, r3, #0x2C
  01194	e5933000	 ldr         r3, [r3]
  01198	e3130c02	 tst         r3, #2, 24
  0119c	0a00000a	 beq         |$LN3@DumpDD_UPD|

; 191  :         DEBUGMSG(GPE_ZONE_DDRAW_HAL, (TEXT("  DDOVER_KEYSRCOVERRIDE; ")));

  011a0	e59f3154	 ldr         r3, [pc, #0x154]
  011a4	e5933440	 ldr         r3, [r3, #0x440]
  011a8	e3130902	 tst         r3, #2, 18
  011ac	0a000004	 beq         |$LN63@DumpDD_UPD|
  011b0	e59f0150	 ldr         r0, [pc, #0x150]
  011b4	eb000000	 bl          NKDbgPrintfW
  011b8	e3a03001	 mov         r3, #1
  011bc	e58d306c	 str         r3, [sp, #0x6C]
  011c0	ea000001	 b           |$LN64@DumpDD_UPD|
  011c4		 |$LN63@DumpDD_UPD|
  011c4	e3a03000	 mov         r3, #0
  011c8	e58d306c	 str         r3, [sp, #0x6C]
  011cc		 |$LN64@DumpDD_UPD|
  011cc		 |$LN3@DumpDD_UPD|

; 192  : 
; 193  :     DEBUGMSG(GPE_ZONE_DDRAW_HAL, (L"pd->overlayFX\r\n"));    

  011cc	e59f3128	 ldr         r3, [pc, #0x128]
  011d0	e5933440	 ldr         r3, [r3, #0x440]
  011d4	e3130902	 tst         r3, #2, 18
  011d8	0a000004	 beq         |$LN65@DumpDD_UPD|
  011dc	e59f0120	 ldr         r0, [pc, #0x120]
  011e0	eb000000	 bl          NKDbgPrintfW
  011e4	e3a03001	 mov         r3, #1
  011e8	e58d3070	 str         r3, [sp, #0x70]
  011ec	ea000001	 b           |$LN66@DumpDD_UPD|
  011f0		 |$LN65@DumpDD_UPD|
  011f0	e3a03000	 mov         r3, #0
  011f4	e58d3070	 str         r3, [sp, #0x70]
  011f8		 |$LN66@DumpDD_UPD|

; 194  :     DumpDDOVERLAYFX(pd->overlayFX);

  011f8	e59d3088	 ldr         r3, [sp, #0x88]
  011fc	e2833030	 add         r3, r3, #0x30
  01200	e58d3074	 str         r3, [sp, #0x74]
  01204	e28d0000	 add         r0, sp, #0
  01208	e59d3074	 ldr         r3, [sp, #0x74]
  0120c	e2831010	 add         r1, r3, #0x10
  01210	e3a0200c	 mov         r2, #0xC
  01214	eb000000	 bl          memcpy
  01218	e59d3074	 ldr         r3, [sp, #0x74]
  0121c	e5930000	 ldr         r0, [r3]
  01220	e5931004	 ldr         r1, [r3, #4]
  01224	e5932008	 ldr         r2, [r3, #8]
  01228	e593300c	 ldr         r3, [r3, #0xC]
  0122c	eb000000	 bl          |?DumpDDOVERLAYFX@@YAXU_DDOVERLAYFX@@@Z|

; 195  : 
; 196  :     DEBUGMSG(GPE_ZONE_DDRAW_HAL, (L"Overlay Z-order:\r\n"));    

  01230	e59f30c4	 ldr         r3, [pc, #0xC4]
  01234	e5933440	 ldr         r3, [r3, #0x440]
  01238	e3130902	 tst         r3, #2, 18
  0123c	0a000004	 beq         |$LN67@DumpDD_UPD|
  01240	e59f00b8	 ldr         r0, [pc, #0xB8]
  01244	eb000000	 bl          NKDbgPrintfW
  01248	e3a03001	 mov         r3, #1
  0124c	e58d3078	 str         r3, [sp, #0x78]
  01250	ea000001	 b           |$LN68@DumpDD_UPD|
  01254		 |$LN67@DumpDD_UPD|
  01254	e3a03000	 mov         r3, #0
  01258	e58d3078	 str         r3, [sp, #0x78]
  0125c		 |$LN68@DumpDD_UPD|
  0125c		 |$LN2@DumpDD_UPD|

; 197  :     while( pd->lpDD->pOverlays[i] )

  0125c	e59d3088	 ldr         r3, [sp, #0x88]
  01260	e5933000	 ldr         r3, [r3]
  01264	e2830ffa	 add         r0, r3, #0xFA, 30
  01268	e59d100c	 ldr         r1, [sp, #0xC]
  0126c	e3a03004	 mov         r3, #4
  01270	e0020391	 mul         r2, r1, r3
  01274	e5903000	 ldr         r3, [r0]
  01278	e0833002	 add         r3, r3, r2
  0127c	e5933000	 ldr         r3, [r3]
  01280	e3530000	 cmp         r3, #0
  01284	0a000018	 beq         |$LN1@DumpDD_UPD|

; 198  :     {
; 199  :         DEBUGMSG(GPE_ZONE_DDRAW_HAL, (L"  %d: 0x%x\r\n", i, pd->lpDD->pOverlays[i]));    

  01288	e59f306c	 ldr         r3, [pc, #0x6C]
  0128c	e5933440	 ldr         r3, [r3, #0x440]
  01290	e3130902	 tst         r3, #2, 18
  01294	0a00000e	 beq         |$LN69@DumpDD_UPD|
  01298	e59d3088	 ldr         r3, [sp, #0x88]
  0129c	e5933000	 ldr         r3, [r3]
  012a0	e2830ffa	 add         r0, r3, #0xFA, 30
  012a4	e59d100c	 ldr         r1, [sp, #0xC]
  012a8	e3a03004	 mov         r3, #4
  012ac	e0020391	 mul         r2, r1, r3
  012b0	e5903000	 ldr         r3, [r0]
  012b4	e0833002	 add         r3, r3, r2
  012b8	e5932000	 ldr         r2, [r3]
  012bc	e59d100c	 ldr         r1, [sp, #0xC]
  012c0	e59f0030	 ldr         r0, [pc, #0x30]
  012c4	eb000000	 bl          NKDbgPrintfW
  012c8	e3a03001	 mov         r3, #1
  012cc	e58d307c	 str         r3, [sp, #0x7C]
  012d0	ea000001	 b           |$LN70@DumpDD_UPD|
  012d4		 |$LN69@DumpDD_UPD|
  012d4	e3a03000	 mov         r3, #0
  012d8	e58d307c	 str         r3, [sp, #0x7C]
  012dc		 |$LN70@DumpDD_UPD|

; 200  :         i++;

  012dc	e59d300c	 ldr         r3, [sp, #0xC]
  012e0	e2833001	 add         r3, r3, #1
  012e4	e58d300c	 str         r3, [sp, #0xC]

; 201  :     }

  012e8	eaffffdb	 b           |$LN2@DumpDD_UPD|
  012ec		 |$LN1@DumpDD_UPD|

; 202  : }

  012ec	e28dd080	 add         sp, sp, #0x80
  012f0	e89d6000	 ldmia       sp, {sp, lr}
  012f4	e12fff1e	 bx          lr
  012f8		 |$LN74@DumpDD_UPD|
  012f8		 |$LN75@DumpDD_UPD|
  012f8	00000000	 DCD         |??_C@_1BK@HJMCCJCO@?$AA?5?$AA?5?$AA?$CF?$AAd?$AA?3?$AA?5?$AA0?$AAx?$AA?$CF?$AAx?$AA?$AN?$AA?6?$AA?$AA@|
  012fc		 |$LN76@DumpDD_UPD|
  012fc	00000000	 DCD         |dpCurSettings|
  01300		 |$LN77@DumpDD_UPD|
  01300	00000000	 DCD         |??_C@_1CG@LIMHBHMM@?$AAO?$AAv?$AAe?$AAr?$AAl?$AAa?$AAy?$AA?5?$AAZ?$AA?9?$AAo?$AAr?$AAd?$AAe?$AAr?$AA?3?$AA?$AN?$AA?6?$AA?$AA@|
  01304		 |$LN78@DumpDD_UPD|
  01304	00000000	 DCD         |??_C@_1CA@FFAPGPBE@?$AAp?$AAd?$AA?9?$AA?$DO?$AAo?$AAv?$AAe?$AAr?$AAl?$AAa?$AAy?$AAF?$AAX?$AA?$AN?$AA?6?$AA?$AA@|
  01308		 |$LN79@DumpDD_UPD|
  01308	00000000	 DCD         |??_C@_1DE@JHFOECMB@?$AA?5?$AA?5?$AAD?$AAD?$AAO?$AAV?$AAE?$AAR?$AA_?$AAK?$AAE?$AAY?$AAS?$AAR?$AAC?$AAO?$AAV?$AAE?$AAR?$AAR?$AAI?$AAD?$AAE?$AA?$DL?$AA?5?$AA?$AA@|
  0130c		 |$LN80@DumpDD_UPD|
  0130c	00000000	 DCD         |??_C@_1CE@DAPKFPFC@?$AA?5?$AA?5?$AAD?$AAD?$AAO?$AAV?$AAE?$AAR?$AA_?$AAK?$AAE?$AAY?$AAS?$AAR?$AAC?$AA?$DL?$AA?5?$AA?$AA@|
  01310		 |$LN81@DumpDD_UPD|
  01310	00000000	 DCD         |??_C@_1DG@GAOBFMAA@?$AA?5?$AA?5?$AAD?$AAD?$AAO?$AAV?$AAE?$AAR?$AA_?$AAK?$AAE?$AAY?$AAD?$AAE?$AAS?$AAT?$AAO?$AAV?$AAE?$AAR?$AAR?$AAI?$AAD?$AAE?$AA?$DL?$AA?5?$AA?$AA@|
  01314		 |$LN82@DumpDD_UPD|
  01314	00000000	 DCD         |??_C@_1CG@OPOALPAP@?$AA?5?$AA?5?$AAD?$AAD?$AAO?$AAV?$AAE?$AAR?$AA_?$AAK?$AAE?$AAY?$AAD?$AAE?$AAS?$AAT?$AA?$DL?$AA?5?$AA?$AA@|
  01318		 |$LN83@DumpDD_UPD|
  01318	00000000	 DCD         |??_C@_1DA@PKJGOFML@?$AA?5?$AA?5?$AAD?$AAD?$AAO?$AAV?$AAE?$AAR?$AA_?$AAM?$AAI?$AAR?$AAR?$AAO?$AAR?$AAU?$AAP?$AAD?$AAO?$AAW?$AAN?$AA?$DL?$AA?5?$AA?$AA@|
  0131c		 |$LN84@DumpDD_UPD|
  0131c	00000000	 DCD         |??_C@_1DG@IPODHGDC@?$AA?5?$AA?5?$AAD?$AAD?$AAO?$AAV?$AAE?$AAR?$AA_?$AAM?$AAI?$AAR?$AAR?$AAO?$AAR?$AAL?$AAE?$AAF?$AAT?$AAR?$AAI?$AAG?$AAH?$AAT?$AA?$DL?$AA?5?$AA?$AA@|
  01320		 |$LN85@DumpDD_UPD|
  01320	00000000	 DCD         |??_C@_1CK@HPMFCGMJ@?$AA?5?$AA?5?$AAD?$AAD?$AAO?$AAV?$AAE?$AAR?$AA_?$AAW?$AAA?$AAI?$AAT?$AAV?$AAS?$AAY?$AAN?$AAC?$AA?$DL?$AA?5?$AA?$AA@|
  01324		 |$LN86@DumpDD_UPD|
  01324	00000000	 DCD         |??_C@_1CO@HBMPIBPK@?$AA?5?$AA?5?$AAD?$AAD?$AAO?$AAV?$AAE?$AAR?$AA_?$AAW?$AAA?$AAI?$AAT?$AAN?$AAO?$AAT?$AAB?$AAU?$AAS?$AAY?$AA?$DL?$AA?5?$AA?$AA@|
  01328		 |$LN87@DumpDD_UPD|
  01328	00000000	 DCD         |??_C@_1CI@JGPMEBEE@?$AA?5?$AA?5?$AAD?$AAD?$AAO?$AAV?$AAE?$AAR?$AA_?$AAA?$AAU?$AAT?$AAO?$AAF?$AAL?$AAI?$AAP?$AA?$DL?$AA?5?$AA?$AA@|
  0132c		 |$LN88@DumpDD_UPD|
  0132c	00000000	 DCD         |??_C@_1CA@ECEKEADO@?$AA?5?$AA?5?$AAD?$AAD?$AAO?$AAV?$AAE?$AAR?$AA_?$AAH?$AAI?$AAD?$AAE?$AA?$DL?$AA?5?$AA?$AA@|
  01330		 |$LN89@DumpDD_UPD|
  01330	00000000	 DCD         |??_C@_1CA@DGBLMGHB@?$AA?5?$AA?5?$AAD?$AAD?$AAO?$AAV?$AAE?$AAR?$AA_?$AAS?$AAH?$AAO?$AAW?$AA?$DL?$AA?5?$AA?$AA@|
  01334		 |$LN90@DumpDD_UPD|
  01334	00000000	 DCD         |??_C@_1CO@CJIKNMJB@?$AA?5?$AA?5?$AAD?$AAD?$AAO?$AAV?$AAE?$AAR?$AA_?$AAA?$AAL?$AAP?$AAH?$AAA?$AAS?$AAR?$AAC?$AAN?$AAE?$AAG?$AA?$DL?$AA?5?$AA?$AA@|
  01338		 |$LN91@DumpDD_UPD|
  01338	00000000	 DCD         |??_C@_1CI@EOOMLMHM@?$AA?5?$AA?5?$AAD?$AAD?$AAO?$AAV?$AAE?$AAR?$AA_?$AAA?$AAL?$AAP?$AAH?$AAA?$AAS?$AAR?$AAC?$AA?$DL?$AA?5?$AA?$AA@|
  0133c		 |$LN92@DumpDD_UPD|
  0133c	00000000	 DCD         |??_C@_1DA@DMCJCCAH@?$AA?5?$AA?5?$AAD?$AAD?$AAO?$AAV?$AAE?$AAR?$AA_?$AAA?$AAL?$AAP?$AAH?$AAA?$AAD?$AAE?$AAS?$AAT?$AAN?$AAE?$AAG?$AA?$DL?$AA?5?$AA?$AA@|
  01340		 |$LN93@DumpDD_UPD|
  01340	00000000	 DCD         |??_C@_1CK@NNOEHLPH@?$AA?5?$AA?5?$AAD?$AAD?$AAO?$AAV?$AAE?$AAR?$AA_?$AAA?$AAL?$AAP?$AAH?$AAA?$AAD?$AAE?$AAS?$AAT?$AA?$DL?$AA?5?$AA?$AA@|
  01344		 |$LN94@DumpDD_UPD|
  01344	00000000	 DCD         |??_C@_1DM@FNDGBEDA@?$AA?5?$AA?5?$AAD?$AAD?$AAO?$AAV?$AAE?$AAR?$AA_?$AAA?$AAL?$AAP?$AAH?$AAA?$AAC?$AAO?$AAN?$AAS?$AAT?$AAO?$AAV?$AAE?$AAR?$AAR?$AAI?$AAD?$AAE?$AA?$DL?$AA?5?$AA?$AA@|
  01348		 |$LN95@DumpDD_UPD|
  01348	00000000	 DCD         |??_C@_1DK@PEDOBHHJ@?$AAp?$AAd?$AA?9?$AA?$DO?$AAd?$AAw?$AAF?$AAl?$AAa?$AAg?$AAs?$AA?5?$AA?5?$AA?5?$AA?5?$AA?5?$AA?5?$AA?5?$AA?5?$AA?5?$AA?$DN?$AA?5?$AA0?$AAx?$AA?$CF?$AAx?$AA?$AN?$AA?6?$AA?$AA@|
  0134c		 |$LN96@DumpDD_UPD|
  0134c	00000000	 DCD         |??_C@_1FA@IDHPJFOM@?$AAp?$AAd?$AA?9?$AA?$DO?$AAr?$AAS?$AAr?$AAc?$AA?5?$AA?5?$AA?5?$AA?5?$AA?5?$AA?5?$AA?5?$AA?5?$AA?5?$AA?5?$AA?5?$AA?5?$AA?$DN?$AA?5?$AA?$CI?$AA?$CF?$AAd?$AA?0?$AA?$CF?$AAd?$AA?$CJ?$AA?5?$AA?$CI?$AA?$CF@|
  01350		 |$LN97@DumpDD_UPD|
  01350	00000000	 DCD         |??_C@_1DK@ODCMFCLF@?$AAp?$AAd?$AA?9?$AA?$DO?$AAl?$AAp?$AAD?$AAD?$AAS?$AAr?$AAc?$AAS?$AAu?$AAr?$AAf?$AAa?$AAc?$AAe?$AA?5?$AA?5?$AA?$DN?$AA?5?$AA0?$AAx?$AA?$CF?$AAx?$AA?$AN?$AA?6?$AA?$AA@|
  01354		 |$LN98@DumpDD_UPD|
  01354	00000000	 DCD         |??_C@_1FA@NLBNKKEK@?$AAp?$AAd?$AA?9?$AA?$DO?$AAr?$AAD?$AAe?$AAs?$AAt?$AA?5?$AA?5?$AA?5?$AA?5?$AA?5?$AA?5?$AA?5?$AA?5?$AA?5?$AA?5?$AA?5?$AA?$DN?$AA?5?$AA?$CI?$AA?$CF?$AAd?$AA?0?$AA?$CF?$AAd?$AA?$CJ?$AA?5?$AA?$CI?$AA?$CF@|
  01358		 |$LN99@DumpDD_UPD|
  01358	00000000	 DCD         |??_C@_1DK@FGFNACKJ@?$AAp?$AAd?$AA?9?$AA?$DO?$AAl?$AAp?$AAD?$AAD?$AAD?$AAe?$AAs?$AAt?$AAS?$AAu?$AAr?$AAf?$AAa?$AAc?$AAe?$AA?5?$AA?$DN?$AA?5?$AA0?$AAx?$AA?$CF?$AAx?$AA?$AN?$AA?6?$AA?$AA@|
  0135c		 |$LN100@DumpDD_UPD|
  0135c	00000000	 DCD         |??_C@_1DK@MNFOKEMP@?$AAL?$AAP?$AAD?$AAD?$AAH?$AAA?$AAL?$AA_?$AAU?$AAP?$AAD?$AAA?$AAT?$AAE?$AAO?$AAV?$AAE?$AAR?$AAL?$AAA?$AAY?$AAD?$AAA?$AAT?$AAA?$AA?3?$AA?$AN?$AA?6?$AA?$AA@|
  01360		 |$M42753|

			 ENDP  ; |?DumpDD_UPDATEOVERLAY@@YAXPAU_DDHAL_UPDATEOVERLAYDATA@@@Z|, DumpDD_UPDATEOVERLAY

	EXPORT	|??_C@_1DG@EBPLHGJH@?$AAp?$AAd?$AA?9?$AA?$DO?$AAl?$AAY?$AAP?$AAo?$AAs?$AA?5?$AA?5?$AA?5?$AA?5?$AA?5?$AA?5?$AA?5?$AA?5?$AA?5?$AA?5?$AA?5?$AA?$DN?$AA?5?$AA?$CF?$AAd?$AA?$AN?$AA?6?$AA?$AA@| [ DATA ] ; `string'
	EXPORT	|??_C@_1DG@GLNDEOPF@?$AAp?$AAd?$AA?9?$AA?$DO?$AAl?$AAX?$AAP?$AAo?$AAs?$AA?5?$AA?5?$AA?5?$AA?5?$AA?5?$AA?5?$AA?5?$AA?5?$AA?5?$AA?5?$AA?5?$AA?$DN?$AA?5?$AA?$CF?$AAd?$AA?$AN?$AA?6?$AA?$AA@| [ DATA ] ; `string'
	EXPORT	|??_C@_1EE@FNOPGFGN@?$AAL?$AAP?$AAD?$AAD?$AAH?$AAA?$AAL?$AA_?$AAS?$AAE?$AAT?$AAO?$AAV?$AAE?$AAR?$AAL?$AAA?$AAY?$AAP?$AAO?$AAS?$AAI?$AAT?$AAI?$AAO?$AAN?$AAD?$AAA?$AAT?$AAA?$AA?3?$AA?$AN@| [ DATA ] ; `string'
	EXPORT	|?DumpDD_SETOVERLAYPOSITION@@YAXPAU_DDHAL_SETOVERLAYPOSITIONDATA@@@Z| ; DumpDD_SETOVERLAYPOSITION

  00038			 AREA	 |.pdata|, PDATA
|$T42797| DCD	|$LN15@DumpDD_SET@2|
	DCD	0x40005004

  00000			 AREA	 |.rdata|, DATA, READONLY
|??_C@_1DG@EBPLHGJH@?$AAp?$AAd?$AA?9?$AA?$DO?$AAl?$AAY?$AAP?$AAo?$AAs?$AA?5?$AA?5?$AA?5?$AA?5?$AA?5?$AA?5?$AA?5?$AA?5?$AA?5?$AA?5?$AA?5?$AA?$DN?$AA?5?$AA?$CF?$AAd?$AA?$AN?$AA?6?$AA?$AA@| DCB "p"
	DCB	0x0, "d", 0x0, "-", 0x0, ">", 0x0, "l", 0x0, "Y", 0x0, "P"
	DCB	0x0, "o", 0x0, "s", 0x0, " ", 0x0, " ", 0x0, " ", 0x0, " "
	DCB	0x0, " ", 0x0, " ", 0x0, " ", 0x0, " ", 0x0, " ", 0x0, " "
	DCB	0x0, " ", 0x0, "=", 0x0, " ", 0x0, "%", 0x0, "d", 0x0, 0xd
	DCB	0x0, 0xa, 0x0, 0x0, 0x0			; `string'

  00000			 AREA	 |.rdata|, DATA, READONLY
|??_C@_1DG@GLNDEOPF@?$AAp?$AAd?$AA?9?$AA?$DO?$AAl?$AAX?$AAP?$AAo?$AAs?$AA?5?$AA?5?$AA?5?$AA?5?$AA?5?$AA?5?$AA?5?$AA?5?$AA?5?$AA?5?$AA?5?$AA?$DN?$AA?5?$AA?$CF?$AAd?$AA?$AN?$AA?6?$AA?$AA@| DCB "p"
	DCB	0x0, "d", 0x0, "-", 0x0, ">", 0x0, "l", 0x0, "X", 0x0, "P"
	DCB	0x0, "o", 0x0, "s", 0x0, " ", 0x0, " ", 0x0, " ", 0x0, " "
	DCB	0x0, " ", 0x0, " ", 0x0, " ", 0x0, " ", 0x0, " ", 0x0, " "
	DCB	0x0, " ", 0x0, "=", 0x0, " ", 0x0, "%", 0x0, "d", 0x0, 0xd
	DCB	0x0, 0xa, 0x0, 0x0, 0x0			; `string'

  00000			 AREA	 |.rdata|, DATA, READONLY
|??_C@_1EE@FNOPGFGN@?$AAL?$AAP?$AAD?$AAD?$AAH?$AAA?$AAL?$AA_?$AAS?$AAE?$AAT?$AAO?$AAV?$AAE?$AAR?$AAL?$AAA?$AAY?$AAP?$AAO?$AAS?$AAI?$AAT?$AAI?$AAO?$AAN?$AAD?$AAA?$AAT?$AAA?$AA?3?$AA?$AN@| DCB "L"
	DCB	0x0, "P", 0x0, "D", 0x0, "D", 0x0, "H", 0x0, "A", 0x0, "L"
	DCB	0x0, "_", 0x0, "S", 0x0, "E", 0x0, "T", 0x0, "O", 0x0, "V"
	DCB	0x0, "E", 0x0, "R", 0x0, "L", 0x0, "A", 0x0, "Y", 0x0, "P"
	DCB	0x0, "O", 0x0, "S", 0x0, "I", 0x0, "T", 0x0, "I", 0x0, "O"
	DCB	0x0, "N", 0x0, "D", 0x0, "A", 0x0, "T", 0x0, "A", 0x0, ":"
	DCB	0x0, 0xd, 0x0, 0xa, 0x0, 0x0, 0x0	; `string'
; Function compile flags: /Odtp

  01360			 AREA	 |.text|, CODE, ARM

  01360		 |?DumpDD_SETOVERLAYPOSITION@@YAXPAU_DDHAL_SETOVERLAYPOSITIONDATA@@@Z| PROC ; DumpDD_SETOVERLAYPOSITION

; 209  : {

  01360		 |$LN15@DumpDD_SET@2|
  01360	e1a0c00d	 mov         r12, sp
  01364	e92d0001	 stmdb       sp!, {r0}
  01368	e92d5000	 stmdb       sp!, {r12, lr}
  0136c	e24dd014	 sub         sp, sp, #0x14
  01370		 |$M42794|

; 210  :     DEBUGMSG(GPE_ZONE_DDRAW_HAL, (L"LPDDHAL_SETOVERLAYPOSITIONDATA:\r\n"));

  01370	e59f3114	 ldr         r3, [pc, #0x114]
  01374	e5933440	 ldr         r3, [r3, #0x440]
  01378	e3130902	 tst         r3, #2, 18
  0137c	0a000004	 beq         |$LN3@DumpDD_SET@2|
  01380	e59f0114	 ldr         r0, [pc, #0x114]
  01384	eb000000	 bl          NKDbgPrintfW
  01388	e3a03001	 mov         r3, #1
  0138c	e58d3000	 str         r3, [sp]
  01390	ea000001	 b           |$LN4@DumpDD_SET@2|
  01394		 |$LN3@DumpDD_SET@2|
  01394	e3a03000	 mov         r3, #0
  01398	e58d3000	 str         r3, [sp]
  0139c		 |$LN4@DumpDD_SET@2|

; 211  :     DEBUGMSG(GPE_ZONE_DDRAW_HAL, (L"pd->lpDDDestSurface = 0x%x\r\n", pd->lpDDDestSurface));

  0139c	e59f30e8	 ldr         r3, [pc, #0xE8]
  013a0	e5933440	 ldr         r3, [r3, #0x440]
  013a4	e3130902	 tst         r3, #2, 18
  013a8	0a000007	 beq         |$LN5@DumpDD_SET@2|
  013ac	e59d301c	 ldr         r3, [sp, #0x1C]
  013b0	e2833008	 add         r3, r3, #8
  013b4	e5931000	 ldr         r1, [r3]
  013b8	e59f00d8	 ldr         r0, [pc, #0xD8]
  013bc	eb000000	 bl          NKDbgPrintfW
  013c0	e3a03001	 mov         r3, #1
  013c4	e58d3004	 str         r3, [sp, #4]
  013c8	ea000001	 b           |$LN6@DumpDD_SET@2|
  013cc		 |$LN5@DumpDD_SET@2|
  013cc	e3a03000	 mov         r3, #0
  013d0	e58d3004	 str         r3, [sp, #4]
  013d4		 |$LN6@DumpDD_SET@2|

; 212  :     DEBUGMSG(GPE_ZONE_DDRAW_HAL, (L"pd->lpDDSrcSurface  = 0x%x\r\n", pd->lpDDSrcSurface));

  013d4	e59f30b0	 ldr         r3, [pc, #0xB0]
  013d8	e5933440	 ldr         r3, [r3, #0x440]
  013dc	e3130902	 tst         r3, #2, 18
  013e0	0a000007	 beq         |$LN7@DumpDD_SET@2|
  013e4	e59d301c	 ldr         r3, [sp, #0x1C]
  013e8	e2833004	 add         r3, r3, #4
  013ec	e5931000	 ldr         r1, [r3]
  013f0	e59f009c	 ldr         r0, [pc, #0x9C]
  013f4	eb000000	 bl          NKDbgPrintfW
  013f8	e3a03001	 mov         r3, #1
  013fc	e58d3008	 str         r3, [sp, #8]
  01400	ea000001	 b           |$LN8@DumpDD_SET@2|
  01404		 |$LN7@DumpDD_SET@2|
  01404	e3a03000	 mov         r3, #0
  01408	e58d3008	 str         r3, [sp, #8]
  0140c		 |$LN8@DumpDD_SET@2|

; 213  :     DEBUGMSG(GPE_ZONE_DDRAW_HAL, (L"pd->lXPos           = %d\r\n", pd->lXPos));

  0140c	e59f3078	 ldr         r3, [pc, #0x78]
  01410	e5933440	 ldr         r3, [r3, #0x440]
  01414	e3130902	 tst         r3, #2, 18
  01418	0a000007	 beq         |$LN9@DumpDD_SET@2|
  0141c	e59d301c	 ldr         r3, [sp, #0x1C]
  01420	e283300c	 add         r3, r3, #0xC
  01424	e5931000	 ldr         r1, [r3]
  01428	e59f0060	 ldr         r0, [pc, #0x60]
  0142c	eb000000	 bl          NKDbgPrintfW
  01430	e3a03001	 mov         r3, #1
  01434	e58d300c	 str         r3, [sp, #0xC]
  01438	ea000001	 b           |$LN10@DumpDD_SET@2|
  0143c		 |$LN9@DumpDD_SET@2|
  0143c	e3a03000	 mov         r3, #0
  01440	e58d300c	 str         r3, [sp, #0xC]
  01444		 |$LN10@DumpDD_SET@2|

; 214  :     DEBUGMSG(GPE_ZONE_DDRAW_HAL, (L"pd->lYPos           = %d\r\n", pd->lYPos));

  01444	e59f3040	 ldr         r3, [pc, #0x40]
  01448	e5933440	 ldr         r3, [r3, #0x440]
  0144c	e3130902	 tst         r3, #2, 18
  01450	0a000007	 beq         |$LN11@DumpDD_SET@2|
  01454	e59d301c	 ldr         r3, [sp, #0x1C]
  01458	e2833010	 add         r3, r3, #0x10
  0145c	e5931000	 ldr         r1, [r3]
  01460	e59f0020	 ldr         r0, [pc, #0x20]
  01464	eb000000	 bl          NKDbgPrintfW
  01468	e3a03001	 mov         r3, #1
  0146c	e58d3010	 str         r3, [sp, #0x10]
  01470	ea000001	 b           |$LN12@DumpDD_SET@2|
  01474		 |$LN11@DumpDD_SET@2|
  01474	e3a03000	 mov         r3, #0
  01478	e58d3010	 str         r3, [sp, #0x10]
  0147c		 |$LN12@DumpDD_SET@2|

; 215  : }

  0147c	e28dd014	 add         sp, sp, #0x14
  01480	e89d6000	 ldmia       sp, {sp, lr}
  01484	e12fff1e	 bx          lr
  01488		 |$LN16@DumpDD_SET@2|
  01488		 |$LN17@DumpDD_SET@2|
  01488	00000000	 DCD         |??_C@_1DG@EBPLHGJH@?$AAp?$AAd?$AA?9?$AA?$DO?$AAl?$AAY?$AAP?$AAo?$AAs?$AA?5?$AA?5?$AA?5?$AA?5?$AA?5?$AA?5?$AA?5?$AA?5?$AA?5?$AA?5?$AA?5?$AA?$DN?$AA?5?$AA?$CF?$AAd?$AA?$AN?$AA?6?$AA?$AA@|
  0148c		 |$LN18@DumpDD_SET@2|
  0148c	00000000	 DCD         |dpCurSettings|
  01490		 |$LN19@DumpDD_SET@2|
  01490	00000000	 DCD         |??_C@_1DG@GLNDEOPF@?$AAp?$AAd?$AA?9?$AA?$DO?$AAl?$AAX?$AAP?$AAo?$AAs?$AA?5?$AA?5?$AA?5?$AA?5?$AA?5?$AA?5?$AA?5?$AA?5?$AA?5?$AA?5?$AA?5?$AA?$DN?$AA?5?$AA?$CF?$AAd?$AA?$AN?$AA?6?$AA?$AA@|
  01494		 |$LN20@DumpDD_SET@2|
  01494	00000000	 DCD         |??_C@_1DK@ODCMFCLF@?$AAp?$AAd?$AA?9?$AA?$DO?$AAl?$AAp?$AAD?$AAD?$AAS?$AAr?$AAc?$AAS?$AAu?$AAr?$AAf?$AAa?$AAc?$AAe?$AA?5?$AA?5?$AA?$DN?$AA?5?$AA0?$AAx?$AA?$CF?$AAx?$AA?$AN?$AA?6?$AA?$AA@|
  01498		 |$LN21@DumpDD_SET@2|
  01498	00000000	 DCD         |??_C@_1DK@FGFNACKJ@?$AAp?$AAd?$AA?9?$AA?$DO?$AAl?$AAp?$AAD?$AAD?$AAD?$AAe?$AAs?$AAt?$AAS?$AAu?$AAr?$AAf?$AAa?$AAc?$AAe?$AA?5?$AA?$DN?$AA?5?$AA0?$AAx?$AA?$CF?$AAx?$AA?$AN?$AA?6?$AA?$AA@|
  0149c		 |$LN22@DumpDD_SET@2|
  0149c	00000000	 DCD         |??_C@_1EE@FNOPGFGN@?$AAL?$AAP?$AAD?$AAD?$AAH?$AAA?$AAL?$AA_?$AAS?$AAE?$AAT?$AAO?$AAV?$AAE?$AAR?$AAL?$AAA?$AAY?$AAP?$AAO?$AAS?$AAI?$AAT?$AAI?$AAO?$AAN?$AAD?$AAA?$AAT?$AAA?$AA?3?$AA?$AN@|
  014a0		 |$M42795|

			 ENDP  ; |?DumpDD_SETOVERLAYPOSITION@@YAXPAU_DDHAL_SETOVERLAYPOSITIONDATA@@@Z|, DumpDD_SETOVERLAYPOSITION

	EXPORT	|??_C@_1CC@CAPFMNKJ@?$AAD?$AAD?$AAS?$AAD?$AA_?$AAC?$AAK?$AAS?$AAR?$AAC?$AAB?$AAL?$AAT?$AA?3?$AA?$AN?$AA?6?$AA?$AA@| [ DATA ] ; `string'
	EXPORT	|??_C@_1CE@DPLIJLHE@?$AAD?$AAD?$AAS?$AAD?$AA_?$AAC?$AAK?$AAD?$AAE?$AAS?$AAT?$AAB?$AAL?$AAT?$AA?3?$AA?$AN?$AA?6?$AA?$AA@| [ DATA ] ; `string'
	EXPORT	|??_C@_1CK@ENIEJDFM@?$AAD?$AAD?$AAS?$AAD?$AA_?$AAC?$AAK?$AAS?$AAR?$AAC?$AAO?$AAV?$AAE?$AAR?$AAL?$AAA?$AAY?$AA?3?$AA?$AN?$AA?6?$AA?$AA@| [ DATA ] ; `string'
	EXPORT	|??_C@_1CM@MBOPDFPN@?$AAD?$AAD?$AAS?$AAD?$AA_?$AAC?$AAK?$AAD?$AAE?$AAS?$AAT?$AAO?$AAV?$AAE?$AAR?$AAL?$AAA?$AAY?$AA?3?$AA?$AN?$AA?6?$AA?$AA@| [ DATA ] ; `string'
	EXPORT	|??_C@_1DI@MPHLGNDP@?$AAD?$AAD?$AAS?$AAD?$AA_?$AAS?$AAU?$AAR?$AAF?$AAA?$AAC?$AAE?$AAS?$AAI?$AAZ?$AAE?$AA?5?$AA?5?$AA?5?$AA?5?$AA?5?$AA?$DN?$AA?5?$AA?$CF?$AAd?$AA?$AN?$AA?6?$AA?$AA@| [ DATA ] ; `string'
	EXPORT	|??_C@_1DI@JDCBLCHO@?$AAD?$AAD?$AAS?$AAD?$AA_?$AAR?$AAE?$AAF?$AAR?$AAE?$AAS?$AAH?$AAR?$AAA?$AAT?$AAE?$AA?5?$AA?5?$AA?5?$AA?5?$AA?5?$AA?$DN?$AA?5?$AA?$CF?$AAd?$AA?$AN?$AA?6?$AA?$AA@| [ DATA ] ; `string'
	EXPORT	|??_C@_1DM@GAFOIFOL@?$AAD?$AAD?$AAS?$AAD?$AA_?$AAL?$AAP?$AAS?$AAU?$AAR?$AAF?$AAA?$AAC?$AAE?$AA?5?$AA?5?$AA?5?$AA?5?$AA?5?$AA?5?$AA?5?$AA?$DN?$AA?5?$AA0?$AAx?$AA?$CF?$AAx?$AA?$AN?$AA?6?$AA?$AA@| [ DATA ] ; `string'
	EXPORT	|??_C@_1DI@PAAIMNCP@?$AAD?$AAD?$AAS?$AAD?$AA_?$AAB?$AAA?$AAC?$AAK?$AAB?$AAU?$AAF?$AAF?$AAE?$AAR?$AAC?$AAO?$AAU?$AAN?$AAT?$AA?5?$AA?$DN?$AA?5?$AA?$CF?$AAd?$AA?$AN?$AA?6?$AA?$AA@| [ DATA ] ; `string'
	EXPORT	|??_C@_1DI@MHNCPLMN@?$AAD?$AAD?$AAS?$AAD?$AA_?$AAX?$AAP?$AAI?$AAT?$AAC?$AAH?$AA?5?$AA?5?$AA?5?$AA?5?$AA?5?$AA?5?$AA?5?$AA?5?$AA?5?$AA?5?$AA?$DN?$AA?5?$AA?$CF?$AAd?$AA?$AN?$AA?6?$AA?$AA@| [ DATA ] ; `string'
	EXPORT	|??_C@_1DI@BMHCGGDG@?$AAD?$AAD?$AAS?$AAD?$AA_?$AAP?$AAI?$AAT?$AAC?$AAH?$AA?5?$AA?5?$AA?5?$AA?5?$AA?5?$AA?5?$AA?5?$AA?5?$AA?5?$AA?5?$AA?5?$AA?$DN?$AA?5?$AA?$CF?$AAd?$AA?$AN?$AA?6?$AA?$AA@| [ DATA ] ; `string'
	EXPORT	|??_C@_1DI@JGHEMMJC@?$AAD?$AAD?$AAS?$AAD?$AA_?$AAH?$AAE?$AAI?$AAG?$AAH?$AAT?$AA?5?$AA?5?$AA?5?$AA?5?$AA?5?$AA?5?$AA?5?$AA?5?$AA?5?$AA?5?$AA?$DN?$AA?5?$AA?$CF?$AAd?$AA?$AN?$AA?6?$AA?$AA@| [ DATA ] ; `string'
	EXPORT	|??_C@_1DI@KFJDDLEJ@?$AAD?$AAD?$AAS?$AAD?$AA_?$AAW?$AAI?$AAD?$AAT?$AAH?$AA?5?$AA?5?$AA?5?$AA?5?$AA?5?$AA?5?$AA?5?$AA?5?$AA?5?$AA?5?$AA?5?$AA?$DN?$AA?5?$AA?$CF?$AAd?$AA?$AN?$AA?6?$AA?$AA@| [ DATA ] ; `string'
	EXPORT	|?DumpDDSCAPS@@YAXU_DDSCAPS@@@Z|	; DumpDDSCAPS
	EXPORT	|??_C@_1BG@LGPCMLEK@?$AAD?$AAD?$AAS?$AAC?$AAA?$AAP?$AAS?$AA?3?$AA?$AN?$AA?6?$AA?$AA@| [ DATA ] ; `string'
	EXPORT	|?DumpDDPIXELFORMAT@@YAXU_DDPIXELFORMAT@@@Z| ; DumpDDPIXELFORMAT
	EXPORT	|??_C@_1CC@PFIOOMNI@?$AAD?$AAD?$AAP?$AAI?$AAX?$AAE?$AAL?$AAF?$AAO?$AAR?$AAM?$AAA?$AAT?$AA?3?$AA?$AN?$AA?6?$AA?$AA@| [ DATA ] ; `string'

  00040			 AREA	 |.pdata|, PDATA
|$T42837| DCD	|$LN47@DumpDDSURF|
	DCD	0x40013e04

  00000			 AREA	 |.rdata|, DATA, READONLY
|??_C@_1CC@CAPFMNKJ@?$AAD?$AAD?$AAS?$AAD?$AA_?$AAC?$AAK?$AAS?$AAR?$AAC?$AAB?$AAL?$AAT?$AA?3?$AA?$AN?$AA?6?$AA?$AA@| DCB "D"
	DCB	0x0, "D", 0x0, "S", 0x0, "D", 0x0, "_", 0x0, "C", 0x0, "K"
	DCB	0x0, "S", 0x0, "R", 0x0, "C", 0x0, "B", 0x0, "L", 0x0, "T"
	DCB	0x0, ":", 0x0, 0xd, 0x0, 0xa, 0x0, 0x0, 0x0 ; `string'

  00000			 AREA	 |.rdata|, DATA, READONLY
|??_C@_1CE@DPLIJLHE@?$AAD?$AAD?$AAS?$AAD?$AA_?$AAC?$AAK?$AAD?$AAE?$AAS?$AAT?$AAB?$AAL?$AAT?$AA?3?$AA?$AN?$AA?6?$AA?$AA@| DCB "D"
	DCB	0x0, "D", 0x0, "S", 0x0, "D", 0x0, "_", 0x0, "C", 0x0, "K"
	DCB	0x0, "D", 0x0, "E", 0x0, "S", 0x0, "T", 0x0, "B", 0x0, "L"
	DCB	0x0, "T", 0x0, ":", 0x0, 0xd, 0x0, 0xa, 0x0, 0x0, 0x0 ; `string'

  00000			 AREA	 |.rdata|, DATA, READONLY
|??_C@_1CK@ENIEJDFM@?$AAD?$AAD?$AAS?$AAD?$AA_?$AAC?$AAK?$AAS?$AAR?$AAC?$AAO?$AAV?$AAE?$AAR?$AAL?$AAA?$AAY?$AA?3?$AA?$AN?$AA?6?$AA?$AA@| DCB "D"
	DCB	0x0, "D", 0x0, "S", 0x0, "D", 0x0, "_", 0x0, "C", 0x0, "K"
	DCB	0x0, "S", 0x0, "R", 0x0, "C", 0x0, "O", 0x0, "V", 0x0, "E"
	DCB	0x0, "R", 0x0, "L", 0x0, "A", 0x0, "Y", 0x0, ":", 0x0, 0xd
	DCB	0x0, 0xa, 0x0, 0x0, 0x0			; `string'

  00000			 AREA	 |.rdata|, DATA, READONLY
|??_C@_1CM@MBOPDFPN@?$AAD?$AAD?$AAS?$AAD?$AA_?$AAC?$AAK?$AAD?$AAE?$AAS?$AAT?$AAO?$AAV?$AAE?$AAR?$AAL?$AAA?$AAY?$AA?3?$AA?$AN?$AA?6?$AA?$AA@| DCB "D"
	DCB	0x0, "D", 0x0, "S", 0x0, "D", 0x0, "_", 0x0, "C", 0x0, "K"
	DCB	0x0, "D", 0x0, "E", 0x0, "S", 0x0, "T", 0x0, "O", 0x0, "V"
	DCB	0x0, "E", 0x0, "R", 0x0, "L", 0x0, "A", 0x0, "Y", 0x0, ":"
	DCB	0x0, 0xd, 0x0, 0xa, 0x0, 0x0, 0x0	; `string'

  00000			 AREA	 |.rdata|, DATA, READONLY
|??_C@_1DI@MPHLGNDP@?$AAD?$AAD?$AAS?$AAD?$AA_?$AAS?$AAU?$AAR?$AAF?$AAA?$AAC?$AAE?$AAS?$AAI?$AAZ?$AAE?$AA?5?$AA?5?$AA?5?$AA?5?$AA?5?$AA?$DN?$AA?5?$AA?$CF?$AAd?$AA?$AN?$AA?6?$AA?$AA@| DCB "D"
	DCB	0x0, "D", 0x0, "S", 0x0, "D", 0x0, "_", 0x0, "S", 0x0, "U"
	DCB	0x0, "R", 0x0, "F", 0x0, "A", 0x0, "C", 0x0, "E", 0x0, "S"
	DCB	0x0, "I", 0x0, "Z", 0x0, "E", 0x0, " ", 0x0, " ", 0x0, " "
	DCB	0x0, " ", 0x0, " ", 0x0, "=", 0x0, " ", 0x0, "%", 0x0, "d"
	DCB	0x0, 0xd, 0x0, 0xa, 0x0, 0x0, 0x0	; `string'

  00000			 AREA	 |.rdata|, DATA, READONLY
|??_C@_1DI@JDCBLCHO@?$AAD?$AAD?$AAS?$AAD?$AA_?$AAR?$AAE?$AAF?$AAR?$AAE?$AAS?$AAH?$AAR?$AAA?$AAT?$AAE?$AA?5?$AA?5?$AA?5?$AA?5?$AA?5?$AA?$DN?$AA?5?$AA?$CF?$AAd?$AA?$AN?$AA?6?$AA?$AA@| DCB "D"
	DCB	0x0, "D", 0x0, "S", 0x0, "D", 0x0, "_", 0x0, "R", 0x0, "E"
	DCB	0x0, "F", 0x0, "R", 0x0, "E", 0x0, "S", 0x0, "H", 0x0, "R"
	DCB	0x0, "A", 0x0, "T", 0x0, "E", 0x0, " ", 0x0, " ", 0x0, " "
	DCB	0x0, " ", 0x0, " ", 0x0, "=", 0x0, " ", 0x0, "%", 0x0, "d"
	DCB	0x0, 0xd, 0x0, 0xa, 0x0, 0x0, 0x0	; `string'

  00000			 AREA	 |.rdata|, DATA, READONLY
|??_C@_1DM@GAFOIFOL@?$AAD?$AAD?$AAS?$AAD?$AA_?$AAL?$AAP?$AAS?$AAU?$AAR?$AAF?$AAA?$AAC?$AAE?$AA?5?$AA?5?$AA?5?$AA?5?$AA?5?$AA?5?$AA?5?$AA?$DN?$AA?5?$AA0?$AAx?$AA?$CF?$AAx?$AA?$AN?$AA?6?$AA?$AA@| DCB "D"
	DCB	0x0, "D", 0x0, "S", 0x0, "D", 0x0, "_", 0x0, "L", 0x0, "P"
	DCB	0x0, "S", 0x0, "U", 0x0, "R", 0x0, "F", 0x0, "A", 0x0, "C"
	DCB	0x0, "E", 0x0, " ", 0x0, " ", 0x0, " ", 0x0, " ", 0x0, " "
	DCB	0x0, " ", 0x0, " ", 0x0, "=", 0x0, " ", 0x0, "0", 0x0, "x"
	DCB	0x0, "%", 0x0, "x", 0x0, 0xd, 0x0, 0xa, 0x0, 0x0, 0x0 ; `string'

  00000			 AREA	 |.rdata|, DATA, READONLY
|??_C@_1DI@PAAIMNCP@?$AAD?$AAD?$AAS?$AAD?$AA_?$AAB?$AAA?$AAC?$AAK?$AAB?$AAU?$AAF?$AAF?$AAE?$AAR?$AAC?$AAO?$AAU?$AAN?$AAT?$AA?5?$AA?$DN?$AA?5?$AA?$CF?$AAd?$AA?$AN?$AA?6?$AA?$AA@| DCB "D"
	DCB	0x0, "D", 0x0, "S", 0x0, "D", 0x0, "_", 0x0, "B", 0x0, "A"
	DCB	0x0, "C", 0x0, "K", 0x0, "B", 0x0, "U", 0x0, "F", 0x0, "F"
	DCB	0x0, "E", 0x0, "R", 0x0, "C", 0x0, "O", 0x0, "U", 0x0, "N"
	DCB	0x0, "T", 0x0, " ", 0x0, "=", 0x0, " ", 0x0, "%", 0x0, "d"
	DCB	0x0, 0xd, 0x0, 0xa, 0x0, 0x0, 0x0	; `string'

  00000			 AREA	 |.rdata|, DATA, READONLY
|??_C@_1DI@MHNCPLMN@?$AAD?$AAD?$AAS?$AAD?$AA_?$AAX?$AAP?$AAI?$AAT?$AAC?$AAH?$AA?5?$AA?5?$AA?5?$AA?5?$AA?5?$AA?5?$AA?5?$AA?5?$AA?5?$AA?5?$AA?$DN?$AA?5?$AA?$CF?$AAd?$AA?$AN?$AA?6?$AA?$AA@| DCB "D"
	DCB	0x0, "D", 0x0, "S", 0x0, "D", 0x0, "_", 0x0, "X", 0x0, "P"
	DCB	0x0, "I", 0x0, "T", 0x0, "C", 0x0, "H", 0x0, " ", 0x0, " "
	DCB	0x0, " ", 0x0, " ", 0x0, " ", 0x0, " ", 0x0, " ", 0x0, " "
	DCB	0x0, " ", 0x0, " ", 0x0, "=", 0x0, " ", 0x0, "%", 0x0, "d"
	DCB	0x0, 0xd, 0x0, 0xa, 0x0, 0x0, 0x0	; `string'

  00000			 AREA	 |.rdata|, DATA, READONLY
|??_C@_1DI@BMHCGGDG@?$AAD?$AAD?$AAS?$AAD?$AA_?$AAP?$AAI?$AAT?$AAC?$AAH?$AA?5?$AA?5?$AA?5?$AA?5?$AA?5?$AA?5?$AA?5?$AA?5?$AA?5?$AA?5?$AA?5?$AA?$DN?$AA?5?$AA?$CF?$AAd?$AA?$AN?$AA?6?$AA?$AA@| DCB "D"
	DCB	0x0, "D", 0x0, "S", 0x0, "D", 0x0, "_", 0x0, "P", 0x0, "I"
	DCB	0x0, "T", 0x0, "C", 0x0, "H", 0x0, " ", 0x0, " ", 0x0, " "
	DCB	0x0, " ", 0x0, " ", 0x0, " ", 0x0, " ", 0x0, " ", 0x0, " "
	DCB	0x0, " ", 0x0, " ", 0x0, "=", 0x0, " ", 0x0, "%", 0x0, "d"
	DCB	0x0, 0xd, 0x0, 0xa, 0x0, 0x0, 0x0	; `string'

  00000			 AREA	 |.rdata|, DATA, READONLY
|??_C@_1DI@JGHEMMJC@?$AAD?$AAD?$AAS?$AAD?$AA_?$AAH?$AAE?$AAI?$AAG?$AAH?$AAT?$AA?5?$AA?5?$AA?5?$AA?5?$AA?5?$AA?5?$AA?5?$AA?5?$AA?5?$AA?5?$AA?$DN?$AA?5?$AA?$CF?$AAd?$AA?$AN?$AA?6?$AA?$AA@| DCB "D"
	DCB	0x0, "D", 0x0, "S", 0x0, "D", 0x0, "_", 0x0, "H", 0x0, "E"
	DCB	0x0, "I", 0x0, "G", 0x0, "H", 0x0, "T", 0x0, " ", 0x0, " "
	DCB	0x0, " ", 0x0, " ", 0x0, " ", 0x0, " ", 0x0, " ", 0x0, " "
	DCB	0x0, " ", 0x0, " ", 0x0, "=", 0x0, " ", 0x0, "%", 0x0, "d"
	DCB	0x0, 0xd, 0x0, 0xa, 0x0, 0x0, 0x0	; `string'

  00000			 AREA	 |.rdata|, DATA, READONLY
|??_C@_1DI@KFJDDLEJ@?$AAD?$AAD?$AAS?$AAD?$AA_?$AAW?$AAI?$AAD?$AAT?$AAH?$AA?5?$AA?5?$AA?5?$AA?5?$AA?5?$AA?5?$AA?5?$AA?5?$AA?5?$AA?5?$AA?5?$AA?$DN?$AA?5?$AA?$CF?$AAd?$AA?$AN?$AA?6?$AA?$AA@| DCB "D"
	DCB	0x0, "D", 0x0, "S", 0x0, "D", 0x0, "_", 0x0, "W", 0x0, "I"
	DCB	0x0, "D", 0x0, "T", 0x0, "H", 0x0, " ", 0x0, " ", 0x0, " "
	DCB	0x0, " ", 0x0, " ", 0x0, " ", 0x0, " ", 0x0, " ", 0x0, " "
	DCB	0x0, " ", 0x0, " ", 0x0, "=", 0x0, " ", 0x0, "%", 0x0, "d"
	DCB	0x0, 0xd, 0x0, 0xa, 0x0, 0x0, 0x0	; `string'

  00000			 AREA	 |.rdata|, DATA, READONLY
|??_C@_1BG@LGPCMLEK@?$AAD?$AAD?$AAS?$AAC?$AAA?$AAP?$AAS?$AA?3?$AA?$AN?$AA?6?$AA?$AA@| DCB "D"
	DCB	0x0, "D", 0x0, "S", 0x0, "C", 0x0, "A", 0x0, "P", 0x0, "S"
	DCB	0x0, ":", 0x0, 0xd, 0x0, 0xa, 0x0, 0x0, 0x0 ; `string'

  00000			 AREA	 |.rdata|, DATA, READONLY
|??_C@_1CC@PFIOOMNI@?$AAD?$AAD?$AAP?$AAI?$AAX?$AAE?$AAL?$AAF?$AAO?$AAR?$AAM?$AAA?$AAT?$AA?3?$AA?$AN?$AA?6?$AA?$AA@| DCB "D"
	DCB	0x0, "D", 0x0, "P", 0x0, "I", 0x0, "X", 0x0, "E", 0x0, "L"
	DCB	0x0, "F", 0x0, "O", 0x0, "R", 0x0, "M", 0x0, "A", 0x0, "T"
	DCB	0x0, ":", 0x0, 0xd, 0x0, 0xa, 0x0, 0x0, 0x0 ; `string'
; Function compile flags: /Odtp

  014a0			 AREA	 |.text|, CODE, ARM

  014a0		 |?DumpDDSURFACEDESC@@YAXPAU_DDSURFACEDESC@@@Z| PROC ; DumpDDSURFACEDESC

; 222  : {

  014a0		 |$LN47@DumpDDSURF|
  014a0	e1a0c00d	 mov         r12, sp
  014a4	e92d0001	 stmdb       sp!, {r0}
  014a8	e92d5000	 stmdb       sp!, {r12, lr}
  014ac	e24dd060	 sub         sp, sp, #0x60
  014b0		 |$M42834|

; 223  :     if( lpDDSurfaceDesc->dwFlags  & DDSD_PIXELFORMAT )

  014b0	e59d3068	 ldr         r3, [sp, #0x68]
  014b4	e2833004	 add         r3, r3, #4
  014b8	e5933000	 ldr         r3, [r3]
  014bc	e3130a01	 tst         r3, #1, 20
  014c0	0a000018	 beq         |$LN14@DumpDDSURF|

; 224  :     {
; 225  :         DEBUGMSG(GPE_ZONE_DDRAW_HAL, (TEXT("DDPIXELFORMAT:\r\n")));

  014c4	e59f3494	 ldr         r3, [pc, #0x494]
  014c8	e5933440	 ldr         r3, [r3, #0x440]
  014cc	e3130902	 tst         r3, #2, 18
  014d0	0a000004	 beq         |$LN17@DumpDDSURF|
  014d4	e59f04b8	 ldr         r0, [pc, #0x4B8]
  014d8	eb000000	 bl          NKDbgPrintfW
  014dc	e3a03001	 mov         r3, #1
  014e0	e58d3010	 str         r3, [sp, #0x10]
  014e4	ea000001	 b           |$LN18@DumpDDSURF|
  014e8		 |$LN17@DumpDDSURF|
  014e8	e3a03000	 mov         r3, #0
  014ec	e58d3010	 str         r3, [sp, #0x10]
  014f0		 |$LN18@DumpDDSURF|

; 226  :         DumpDDPIXELFORMAT(lpDDSurfaceDesc->ddpfPixelFormat);

  014f0	e59d3068	 ldr         r3, [sp, #0x68]
  014f4	e2833044	 add         r3, r3, #0x44
  014f8	e58d3014	 str         r3, [sp, #0x14]
  014fc	e28d0000	 add         r0, sp, #0
  01500	e59d3014	 ldr         r3, [sp, #0x14]
  01504	e2831010	 add         r1, r3, #0x10
  01508	e3a02010	 mov         r2, #0x10
  0150c	eb000000	 bl          memcpy
  01510	e59d3014	 ldr         r3, [sp, #0x14]
  01514	e5930000	 ldr         r0, [r3]
  01518	e5931004	 ldr         r1, [r3, #4]
  0151c	e5932008	 ldr         r2, [r3, #8]
  01520	e593300c	 ldr         r3, [r3, #0xC]
  01524	eb000000	 bl          |?DumpDDPIXELFORMAT@@YAXU_DDPIXELFORMAT@@@Z|
  01528		 |$LN14@DumpDDSURF|

; 227  :     }
; 228  :     
; 229  :     if( lpDDSurfaceDesc->dwFlags  & DDSD_CAPS )

  01528	e59d3068	 ldr         r3, [sp, #0x68]
  0152c	e2833004	 add         r3, r3, #4
  01530	e5933000	 ldr         r3, [r3]
  01534	e3130001	 tst         r3, #1
  01538	0a000010	 beq         |$LN13@DumpDDSURF|

; 230  :     {
; 231  :         DEBUGMSG(GPE_ZONE_DDRAW_HAL, (TEXT("DDSCAPS:\r\n")));

  0153c	e59f341c	 ldr         r3, [pc, #0x41C]
  01540	e5933440	 ldr         r3, [r3, #0x440]
  01544	e3130902	 tst         r3, #2, 18
  01548	0a000004	 beq         |$LN19@DumpDDSURF|
  0154c	e59f043c	 ldr         r0, [pc, #0x43C]
  01550	eb000000	 bl          NKDbgPrintfW
  01554	e3a03001	 mov         r3, #1
  01558	e58d3018	 str         r3, [sp, #0x18]
  0155c	ea000001	 b           |$LN20@DumpDDSURF|
  01560		 |$LN19@DumpDDSURF|
  01560	e3a03000	 mov         r3, #0
  01564	e58d3018	 str         r3, [sp, #0x18]
  01568		 |$LN20@DumpDDSURF|

; 232  :         DumpDDSCAPS(lpDDSurfaceDesc->ddsCaps);

  01568	e59d3068	 ldr         r3, [sp, #0x68]
  0156c	e2833064	 add         r3, r3, #0x64
  01570	e58d301c	 str         r3, [sp, #0x1C]
  01574	e59d301c	 ldr         r3, [sp, #0x1C]
  01578	e5930000	 ldr         r0, [r3]
  0157c	eb000000	 bl          |?DumpDDSCAPS@@YAXU_DDSCAPS@@@Z|
  01580		 |$LN13@DumpDDSURF|

; 233  :     }
; 234  : 
; 235  :     if( lpDDSurfaceDesc->dwFlags  & DDSD_WIDTH )

  01580	e59d3068	 ldr         r3, [sp, #0x68]
  01584	e2833004	 add         r3, r3, #4
  01588	e5933000	 ldr         r3, [r3]
  0158c	e3130004	 tst         r3, #4
  01590	0a00000d	 beq         |$LN12@DumpDDSURF|

; 236  :         DEBUGMSG(GPE_ZONE_DDRAW_HAL, (TEXT("DDSD_WIDTH           = %d\r\n"), lpDDSurfaceDesc->dwWidth));

  01594	e59f33c4	 ldr         r3, [pc, #0x3C4]
  01598	e5933440	 ldr         r3, [r3, #0x440]
  0159c	e3130902	 tst         r3, #2, 18
  015a0	0a000007	 beq         |$LN21@DumpDDSURF|
  015a4	e59d3068	 ldr         r3, [sp, #0x68]
  015a8	e283300c	 add         r3, r3, #0xC
  015ac	e5931000	 ldr         r1, [r3]
  015b0	e59f03d4	 ldr         r0, [pc, #0x3D4]
  015b4	eb000000	 bl          NKDbgPrintfW
  015b8	e3a03001	 mov         r3, #1
  015bc	e58d3020	 str         r3, [sp, #0x20]
  015c0	ea000001	 b           |$LN22@DumpDDSURF|
  015c4		 |$LN21@DumpDDSURF|
  015c4	e3a03000	 mov         r3, #0
  015c8	e58d3020	 str         r3, [sp, #0x20]
  015cc		 |$LN22@DumpDDSURF|
  015cc		 |$LN12@DumpDDSURF|

; 237  :     if( lpDDSurfaceDesc->dwFlags  & DDSD_WIDTH )

  015cc	e59d3068	 ldr         r3, [sp, #0x68]
  015d0	e2833004	 add         r3, r3, #4
  015d4	e5933000	 ldr         r3, [r3]
  015d8	e3130004	 tst         r3, #4
  015dc	0a00000d	 beq         |$LN11@DumpDDSURF|

; 238  :         DEBUGMSG(GPE_ZONE_DDRAW_HAL, (TEXT("DDSD_HEIGHT          = %d\r\n"), lpDDSurfaceDesc->dwHeight));

  015e0	e59f3378	 ldr         r3, [pc, #0x378]
  015e4	e5933440	 ldr         r3, [r3, #0x440]
  015e8	e3130902	 tst         r3, #2, 18
  015ec	0a000007	 beq         |$LN23@DumpDDSURF|
  015f0	e59d3068	 ldr         r3, [sp, #0x68]
  015f4	e2833008	 add         r3, r3, #8
  015f8	e5931000	 ldr         r1, [r3]
  015fc	e59f0384	 ldr         r0, [pc, #0x384]
  01600	eb000000	 bl          NKDbgPrintfW
  01604	e3a03001	 mov         r3, #1
  01608	e58d3024	 str         r3, [sp, #0x24]
  0160c	ea000001	 b           |$LN24@DumpDDSURF|
  01610		 |$LN23@DumpDDSURF|
  01610	e3a03000	 mov         r3, #0
  01614	e58d3024	 str         r3, [sp, #0x24]
  01618		 |$LN24@DumpDDSURF|
  01618		 |$LN11@DumpDDSURF|

; 239  :     if( lpDDSurfaceDesc->dwFlags  & DDSD_PITCH )

  01618	e59d3068	 ldr         r3, [sp, #0x68]
  0161c	e2833004	 add         r3, r3, #4
  01620	e5933000	 ldr         r3, [r3]
  01624	e3130008	 tst         r3, #8
  01628	0a00000d	 beq         |$LN10@DumpDDSURF|

; 240  :         DEBUGMSG(GPE_ZONE_DDRAW_HAL, (TEXT("DDSD_PITCH           = %d\r\n"), lpDDSurfaceDesc->lPitch));

  0162c	e59f332c	 ldr         r3, [pc, #0x32C]
  01630	e5933440	 ldr         r3, [r3, #0x440]
  01634	e3130902	 tst         r3, #2, 18
  01638	0a000007	 beq         |$LN25@DumpDDSURF|
  0163c	e59d3068	 ldr         r3, [sp, #0x68]
  01640	e2833010	 add         r3, r3, #0x10
  01644	e5931000	 ldr         r1, [r3]
  01648	e59f0334	 ldr         r0, [pc, #0x334]
  0164c	eb000000	 bl          NKDbgPrintfW
  01650	e3a03001	 mov         r3, #1
  01654	e58d3028	 str         r3, [sp, #0x28]
  01658	ea000001	 b           |$LN26@DumpDDSURF|
  0165c		 |$LN25@DumpDDSURF|
  0165c	e3a03000	 mov         r3, #0
  01660	e58d3028	 str         r3, [sp, #0x28]
  01664		 |$LN26@DumpDDSURF|
  01664		 |$LN10@DumpDDSURF|

; 241  :     if( lpDDSurfaceDesc->dwFlags  & DDSD_XPITCH )

  01664	e59d3068	 ldr         r3, [sp, #0x68]
  01668	e2833004	 add         r3, r3, #4
  0166c	e5933000	 ldr         r3, [r3]
  01670	e3130010	 tst         r3, #0x10
  01674	0a00000d	 beq         |$LN9@DumpDDSURF|

; 242  :         DEBUGMSG(GPE_ZONE_DDRAW_HAL, (TEXT("DDSD_XPITCH          = %d\r\n"), lpDDSurfaceDesc->lXPitch));

  01678	e59f32e0	 ldr         r3, [pc, #0x2E0]
  0167c	e5933440	 ldr         r3, [r3, #0x440]
  01680	e3130902	 tst         r3, #2, 18
  01684	0a000007	 beq         |$LN27@DumpDDSURF|
  01688	e59d3068	 ldr         r3, [sp, #0x68]
  0168c	e2833014	 add         r3, r3, #0x14
  01690	e5931000	 ldr         r1, [r3]
  01694	e59f02e4	 ldr         r0, [pc, #0x2E4]
  01698	eb000000	 bl          NKDbgPrintfW
  0169c	e3a03001	 mov         r3, #1
  016a0	e58d302c	 str         r3, [sp, #0x2C]
  016a4	ea000001	 b           |$LN28@DumpDDSURF|
  016a8		 |$LN27@DumpDDSURF|
  016a8	e3a03000	 mov         r3, #0
  016ac	e58d302c	 str         r3, [sp, #0x2C]
  016b0		 |$LN28@DumpDDSURF|
  016b0		 |$LN9@DumpDDSURF|

; 243  :     if( lpDDSurfaceDesc->dwFlags  & DDSD_BACKBUFFERCOUNT )

  016b0	e59d3068	 ldr         r3, [sp, #0x68]
  016b4	e2833004	 add         r3, r3, #4
  016b8	e5933000	 ldr         r3, [r3]
  016bc	e3130020	 tst         r3, #0x20
  016c0	0a00000d	 beq         |$LN8@DumpDDSURF|

; 244  :         DEBUGMSG(GPE_ZONE_DDRAW_HAL, (TEXT("DDSD_BACKBUFFERCOUNT = %d\r\n"), lpDDSurfaceDesc->dwBackBufferCount));

  016c4	e59f3294	 ldr         r3, [pc, #0x294]
  016c8	e5933440	 ldr         r3, [r3, #0x440]
  016cc	e3130902	 tst         r3, #2, 18
  016d0	0a000007	 beq         |$LN29@DumpDDSURF|
  016d4	e59d3068	 ldr         r3, [sp, #0x68]
  016d8	e2833018	 add         r3, r3, #0x18
  016dc	e5931000	 ldr         r1, [r3]
  016e0	e59f0294	 ldr         r0, [pc, #0x294]
  016e4	eb000000	 bl          NKDbgPrintfW
  016e8	e3a03001	 mov         r3, #1
  016ec	e58d3030	 str         r3, [sp, #0x30]
  016f0	ea000001	 b           |$LN30@DumpDDSURF|
  016f4		 |$LN29@DumpDDSURF|
  016f4	e3a03000	 mov         r3, #0
  016f8	e58d3030	 str         r3, [sp, #0x30]
  016fc		 |$LN30@DumpDDSURF|
  016fc		 |$LN8@DumpDDSURF|

; 245  :     if( lpDDSurfaceDesc->dwFlags  & DDSD_LPSURFACE )

  016fc	e59d3068	 ldr         r3, [sp, #0x68]
  01700	e2833004	 add         r3, r3, #4
  01704	e5933000	 ldr         r3, [r3]
  01708	e3130b02	 tst         r3, #2, 22
  0170c	0a00000d	 beq         |$LN7@DumpDDSURF|

; 246  :         DEBUGMSG(GPE_ZONE_DDRAW_HAL, (TEXT("DDSD_LPSURFACE       = 0x%x\r\n"), lpDDSurfaceDesc->lpSurface));

  01710	e59f3248	 ldr         r3, [pc, #0x248]
  01714	e5933440	 ldr         r3, [r3, #0x440]
  01718	e3130902	 tst         r3, #2, 18
  0171c	0a000007	 beq         |$LN31@DumpDDSURF|
  01720	e59d3068	 ldr         r3, [sp, #0x68]
  01724	e2833020	 add         r3, r3, #0x20
  01728	e5931000	 ldr         r1, [r3]
  0172c	e59f0244	 ldr         r0, [pc, #0x244]
  01730	eb000000	 bl          NKDbgPrintfW
  01734	e3a03001	 mov         r3, #1
  01738	e58d3034	 str         r3, [sp, #0x34]
  0173c	ea000001	 b           |$LN32@DumpDDSURF|
  01740		 |$LN31@DumpDDSURF|
  01740	e3a03000	 mov         r3, #0
  01744	e58d3034	 str         r3, [sp, #0x34]
  01748		 |$LN32@DumpDDSURF|
  01748		 |$LN7@DumpDDSURF|

; 247  :     if( lpDDSurfaceDesc->dwFlags  & DDSD_REFRESHRATE )

  01748	e59d3068	 ldr         r3, [sp, #0x68]
  0174c	e2833004	 add         r3, r3, #4
  01750	e5933000	 ldr         r3, [r3]
  01754	e3130701	 tst         r3, #1, 14
  01758	0a00000d	 beq         |$LN6@DumpDDSURF|

; 248  :         DEBUGMSG(GPE_ZONE_DDRAW_HAL, (TEXT("DDSD_REFRESHRATE     = %d\r\n"), lpDDSurfaceDesc->dwRefreshRate));

  0175c	e59f31fc	 ldr         r3, [pc, #0x1FC]
  01760	e5933440	 ldr         r3, [r3, #0x440]
  01764	e3130902	 tst         r3, #2, 18
  01768	0a000007	 beq         |$LN33@DumpDDSURF|
  0176c	e59d3068	 ldr         r3, [sp, #0x68]
  01770	e283301c	 add         r3, r3, #0x1C
  01774	e5931000	 ldr         r1, [r3]
  01778	e59f01f4	 ldr         r0, [pc, #0x1F4]
  0177c	eb000000	 bl          NKDbgPrintfW
  01780	e3a03001	 mov         r3, #1
  01784	e58d3038	 str         r3, [sp, #0x38]
  01788	ea000001	 b           |$LN34@DumpDDSURF|
  0178c		 |$LN33@DumpDDSURF|
  0178c	e3a03000	 mov         r3, #0
  01790	e58d3038	 str         r3, [sp, #0x38]
  01794		 |$LN34@DumpDDSURF|
  01794		 |$LN6@DumpDDSURF|

; 249  :     if( lpDDSurfaceDesc->dwFlags  & DDSD_SURFACESIZE )

  01794	e59d3068	 ldr         r3, [sp, #0x68]
  01798	e2833004	 add         r3, r3, #4
  0179c	e5933000	 ldr         r3, [r3]
  017a0	e3130702	 tst         r3, #2, 14
  017a4	0a00000d	 beq         |$LN5@DumpDDSURF|

; 250  :         DEBUGMSG(GPE_ZONE_DDRAW_HAL, (TEXT("DDSD_SURFACESIZE     = %d\r\n"), lpDDSurfaceDesc->dwSurfaceSize));

  017a8	e59f31b0	 ldr         r3, [pc, #0x1B0]
  017ac	e5933440	 ldr         r3, [r3, #0x440]
  017b0	e3130902	 tst         r3, #2, 18
  017b4	0a000007	 beq         |$LN35@DumpDDSURF|
  017b8	e59d3068	 ldr         r3, [sp, #0x68]
  017bc	e2833068	 add         r3, r3, #0x68
  017c0	e5931000	 ldr         r1, [r3]
  017c4	e59f01a4	 ldr         r0, [pc, #0x1A4]
  017c8	eb000000	 bl          NKDbgPrintfW
  017cc	e3a03001	 mov         r3, #1
  017d0	e58d303c	 str         r3, [sp, #0x3C]
  017d4	ea000001	 b           |$LN36@DumpDDSURF|
  017d8		 |$LN35@DumpDDSURF|
  017d8	e3a03000	 mov         r3, #0
  017dc	e58d303c	 str         r3, [sp, #0x3C]
  017e0		 |$LN36@DumpDDSURF|
  017e0		 |$LN5@DumpDDSURF|

; 251  : 
; 252  : 
; 253  :     if( lpDDSurfaceDesc->dwFlags  & DDSD_CKDESTOVERLAY )

  017e0	e59d3068	 ldr         r3, [sp, #0x68]
  017e4	e2833004	 add         r3, r3, #4
  017e8	e5933000	 ldr         r3, [r3]
  017ec	e3130a02	 tst         r3, #2, 20
  017f0	0a000011	 beq         |$LN4@DumpDDSURF|

; 254  :     {
; 255  :         DEBUGMSG(GPE_ZONE_DDRAW_HAL, (TEXT("DDSD_CKDESTOVERLAY:\r\n")));

  017f4	e59f3164	 ldr         r3, [pc, #0x164]
  017f8	e5933440	 ldr         r3, [r3, #0x440]
  017fc	e3130902	 tst         r3, #2, 18
  01800	0a000004	 beq         |$LN37@DumpDDSURF|
  01804	e59f0160	 ldr         r0, [pc, #0x160]
  01808	eb000000	 bl          NKDbgPrintfW
  0180c	e3a03001	 mov         r3, #1
  01810	e58d3040	 str         r3, [sp, #0x40]
  01814	ea000001	 b           |$LN38@DumpDDSURF|
  01818		 |$LN37@DumpDDSURF|
  01818	e3a03000	 mov         r3, #0
  0181c	e58d3040	 str         r3, [sp, #0x40]
  01820		 |$LN38@DumpDDSURF|

; 256  :         DumpDDCOLORKEY(lpDDSurfaceDesc->ddckCKDestOverlay);

  01820	e59d3068	 ldr         r3, [sp, #0x68]
  01824	e2833024	 add         r3, r3, #0x24
  01828	e58d3044	 str         r3, [sp, #0x44]
  0182c	e59d3044	 ldr         r3, [sp, #0x44]
  01830	e5930000	 ldr         r0, [r3]
  01834	e5931004	 ldr         r1, [r3, #4]
  01838	eb000000	 bl          |?DumpDDCOLORKEY@@YAXU_DDCOLORKEY@@@Z|
  0183c		 |$LN4@DumpDDSURF|

; 257  :     }
; 258  : 
; 259  :     if( lpDDSurfaceDesc->dwFlags  & DDSD_CKSRCOVERLAY )

  0183c	e59d3068	 ldr         r3, [sp, #0x68]
  01840	e2833004	 add         r3, r3, #4
  01844	e5933000	 ldr         r3, [r3]
  01848	e3130902	 tst         r3, #2, 18
  0184c	0a000011	 beq         |$LN3@DumpDDSURF|

; 260  :     {
; 261  :         DEBUGMSG(GPE_ZONE_DDRAW_HAL, (TEXT("DDSD_CKSRCOVERLAY:\r\n")));

  01850	e59f3108	 ldr         r3, [pc, #0x108]
  01854	e5933440	 ldr         r3, [r3, #0x440]
  01858	e3130902	 tst         r3, #2, 18
  0185c	0a000004	 beq         |$LN39@DumpDDSURF|
  01860	e59f0100	 ldr         r0, [pc, #0x100]
  01864	eb000000	 bl          NKDbgPrintfW
  01868	e3a03001	 mov         r3, #1
  0186c	e58d3048	 str         r3, [sp, #0x48]
  01870	ea000001	 b           |$LN40@DumpDDSURF|
  01874		 |$LN39@DumpDDSURF|
  01874	e3a03000	 mov         r3, #0
  01878	e58d3048	 str         r3, [sp, #0x48]
  0187c		 |$LN40@DumpDDSURF|

; 262  :         DumpDDCOLORKEY(lpDDSurfaceDesc->ddckCKSrcOverlay);

  0187c	e59d3068	 ldr         r3, [sp, #0x68]
  01880	e2833034	 add         r3, r3, #0x34
  01884	e58d304c	 str         r3, [sp, #0x4C]
  01888	e59d304c	 ldr         r3, [sp, #0x4C]
  0188c	e5930000	 ldr         r0, [r3]
  01890	e5931004	 ldr         r1, [r3, #4]
  01894	eb000000	 bl          |?DumpDDCOLORKEY@@YAXU_DDCOLORKEY@@@Z|
  01898		 |$LN3@DumpDDSURF|

; 263  :     }
; 264  :     
; 265  :     if( lpDDSurfaceDesc->dwFlags  & DDSD_CKDESTBLT )

  01898	e59d3068	 ldr         r3, [sp, #0x68]
  0189c	e2833004	 add         r3, r3, #4
  018a0	e5933000	 ldr         r3, [r3]
  018a4	e3130901	 tst         r3, #1, 18
  018a8	0a000011	 beq         |$LN2@DumpDDSURF|

; 266  :     {
; 267  :         DEBUGMSG(GPE_ZONE_DDRAW_HAL, (TEXT("DDSD_CKDESTBLT:\r\n")));

  018ac	e59f30ac	 ldr         r3, [pc, #0xAC]
  018b0	e5933440	 ldr         r3, [r3, #0x440]
  018b4	e3130902	 tst         r3, #2, 18
  018b8	0a000004	 beq         |$LN41@DumpDDSURF|
  018bc	e59f00a0	 ldr         r0, [pc, #0xA0]
  018c0	eb000000	 bl          NKDbgPrintfW
  018c4	e3a03001	 mov         r3, #1
  018c8	e58d3050	 str         r3, [sp, #0x50]
  018cc	ea000001	 b           |$LN42@DumpDDSURF|
  018d0		 |$LN41@DumpDDSURF|
  018d0	e3a03000	 mov         r3, #0
  018d4	e58d3050	 str         r3, [sp, #0x50]
  018d8		 |$LN42@DumpDDSURF|

; 268  :         DumpDDCOLORKEY(lpDDSurfaceDesc->ddckCKDestBlt);

  018d8	e59d3068	 ldr         r3, [sp, #0x68]
  018dc	e283302c	 add         r3, r3, #0x2C
  018e0	e58d3054	 str         r3, [sp, #0x54]
  018e4	e59d3054	 ldr         r3, [sp, #0x54]
  018e8	e5930000	 ldr         r0, [r3]
  018ec	e5931004	 ldr         r1, [r3, #4]
  018f0	eb000000	 bl          |?DumpDDCOLORKEY@@YAXU_DDCOLORKEY@@@Z|
  018f4		 |$LN2@DumpDDSURF|

; 269  :     }
; 270  :     
; 271  :     if( lpDDSurfaceDesc->dwFlags  & DDSD_CKSRCBLT )

  018f4	e59d3068	 ldr         r3, [sp, #0x68]
  018f8	e2833004	 add         r3, r3, #4
  018fc	e5933000	 ldr         r3, [r3]
  01900	e3130801	 tst         r3, #1, 16
  01904	0a000011	 beq         |$LN1@DumpDDSURF|

; 272  :     {
; 273  :         DEBUGMSG(GPE_ZONE_DDRAW_HAL, (TEXT("DDSD_CKSRCBLT:\r\n")));

  01908	e59f3050	 ldr         r3, [pc, #0x50]
  0190c	e5933440	 ldr         r3, [r3, #0x440]
  01910	e3130902	 tst         r3, #2, 18
  01914	0a000004	 beq         |$LN43@DumpDDSURF|
  01918	e59f003c	 ldr         r0, [pc, #0x3C]
  0191c	eb000000	 bl          NKDbgPrintfW
  01920	e3a03001	 mov         r3, #1
  01924	e58d3058	 str         r3, [sp, #0x58]
  01928	ea000001	 b           |$LN44@DumpDDSURF|
  0192c		 |$LN43@DumpDDSURF|
  0192c	e3a03000	 mov         r3, #0
  01930	e58d3058	 str         r3, [sp, #0x58]
  01934		 |$LN44@DumpDDSURF|

; 274  :         DumpDDCOLORKEY(lpDDSurfaceDesc->ddckCKSrcBlt);

  01934	e59d3068	 ldr         r3, [sp, #0x68]
  01938	e283303c	 add         r3, r3, #0x3C
  0193c	e58d305c	 str         r3, [sp, #0x5C]
  01940	e59d305c	 ldr         r3, [sp, #0x5C]
  01944	e5930000	 ldr         r0, [r3]
  01948	e5931004	 ldr         r1, [r3, #4]
  0194c	eb000000	 bl          |?DumpDDCOLORKEY@@YAXU_DDCOLORKEY@@@Z|
  01950		 |$LN1@DumpDDSURF|

; 275  :     }
; 276  : }

  01950	e28dd060	 add         sp, sp, #0x60
  01954	e89d6000	 ldmia       sp, {sp, lr}
  01958	e12fff1e	 bx          lr
  0195c		 |$LN48@DumpDDSURF|
  0195c		 |$LN49@DumpDDSURF|
  0195c	00000000	 DCD         |??_C@_1CC@CAPFMNKJ@?$AAD?$AAD?$AAS?$AAD?$AA_?$AAC?$AAK?$AAS?$AAR?$AAC?$AAB?$AAL?$AAT?$AA?3?$AA?$AN?$AA?6?$AA?$AA@|
  01960		 |$LN50@DumpDDSURF|
  01960	00000000	 DCD         |dpCurSettings|
  01964		 |$LN51@DumpDDSURF|
  01964	00000000	 DCD         |??_C@_1CE@DPLIJLHE@?$AAD?$AAD?$AAS?$AAD?$AA_?$AAC?$AAK?$AAD?$AAE?$AAS?$AAT?$AAB?$AAL?$AAT?$AA?3?$AA?$AN?$AA?6?$AA?$AA@|
  01968		 |$LN52@DumpDDSURF|
  01968	00000000	 DCD         |??_C@_1CK@ENIEJDFM@?$AAD?$AAD?$AAS?$AAD?$AA_?$AAC?$AAK?$AAS?$AAR?$AAC?$AAO?$AAV?$AAE?$AAR?$AAL?$AAA?$AAY?$AA?3?$AA?$AN?$AA?6?$AA?$AA@|
  0196c		 |$LN53@DumpDDSURF|
  0196c	00000000	 DCD         |??_C@_1CM@MBOPDFPN@?$AAD?$AAD?$AAS?$AAD?$AA_?$AAC?$AAK?$AAD?$AAE?$AAS?$AAT?$AAO?$AAV?$AAE?$AAR?$AAL?$AAA?$AAY?$AA?3?$AA?$AN?$AA?6?$AA?$AA@|
  01970		 |$LN54@DumpDDSURF|
  01970	00000000	 DCD         |??_C@_1DI@MPHLGNDP@?$AAD?$AAD?$AAS?$AAD?$AA_?$AAS?$AAU?$AAR?$AAF?$AAA?$AAC?$AAE?$AAS?$AAI?$AAZ?$AAE?$AA?5?$AA?5?$AA?5?$AA?5?$AA?5?$AA?$DN?$AA?5?$AA?$CF?$AAd?$AA?$AN?$AA?6?$AA?$AA@|
  01974		 |$LN55@DumpDDSURF|
  01974	00000000	 DCD         |??_C@_1DI@JDCBLCHO@?$AAD?$AAD?$AAS?$AAD?$AA_?$AAR?$AAE?$AAF?$AAR?$AAE?$AAS?$AAH?$AAR?$AAA?$AAT?$AAE?$AA?5?$AA?5?$AA?5?$AA?5?$AA?5?$AA?$DN?$AA?5?$AA?$CF?$AAd?$AA?$AN?$AA?6?$AA?$AA@|
  01978		 |$LN56@DumpDDSURF|
  01978	00000000	 DCD         |??_C@_1DM@GAFOIFOL@?$AAD?$AAD?$AAS?$AAD?$AA_?$AAL?$AAP?$AAS?$AAU?$AAR?$AAF?$AAA?$AAC?$AAE?$AA?5?$AA?5?$AA?5?$AA?5?$AA?5?$AA?5?$AA?5?$AA?$DN?$AA?5?$AA0?$AAx?$AA?$CF?$AAx?$AA?$AN?$AA?6?$AA?$AA@|
  0197c		 |$LN57@DumpDDSURF|
  0197c	00000000	 DCD         |??_C@_1DI@PAAIMNCP@?$AAD?$AAD?$AAS?$AAD?$AA_?$AAB?$AAA?$AAC?$AAK?$AAB?$AAU?$AAF?$AAF?$AAE?$AAR?$AAC?$AAO?$AAU?$AAN?$AAT?$AA?5?$AA?$DN?$AA?5?$AA?$CF?$AAd?$AA?$AN?$AA?6?$AA?$AA@|
  01980		 |$LN58@DumpDDSURF|
  01980	00000000	 DCD         |??_C@_1DI@MHNCPLMN@?$AAD?$AAD?$AAS?$AAD?$AA_?$AAX?$AAP?$AAI?$AAT?$AAC?$AAH?$AA?5?$AA?5?$AA?5?$AA?5?$AA?5?$AA?5?$AA?5?$AA?5?$AA?5?$AA?5?$AA?$DN?$AA?5?$AA?$CF?$AAd?$AA?$AN?$AA?6?$AA?$AA@|
  01984		 |$LN59@DumpDDSURF|
  01984	00000000	 DCD         |??_C@_1DI@BMHCGGDG@?$AAD?$AAD?$AAS?$AAD?$AA_?$AAP?$AAI?$AAT?$AAC?$AAH?$AA?5?$AA?5?$AA?5?$AA?5?$AA?5?$AA?5?$AA?5?$AA?5?$AA?5?$AA?5?$AA?5?$AA?$DN?$AA?5?$AA?$CF?$AAd?$AA?$AN?$AA?6?$AA?$AA@|
  01988		 |$LN60@DumpDDSURF|
  01988	00000000	 DCD         |??_C@_1DI@JGHEMMJC@?$AAD?$AAD?$AAS?$AAD?$AA_?$AAH?$AAE?$AAI?$AAG?$AAH?$AAT?$AA?5?$AA?5?$AA?5?$AA?5?$AA?5?$AA?5?$AA?5?$AA?5?$AA?5?$AA?5?$AA?$DN?$AA?5?$AA?$CF?$AAd?$AA?$AN?$AA?6?$AA?$AA@|
  0198c		 |$LN61@DumpDDSURF|
  0198c	00000000	 DCD         |??_C@_1DI@KFJDDLEJ@?$AAD?$AAD?$AAS?$AAD?$AA_?$AAW?$AAI?$AAD?$AAT?$AAH?$AA?5?$AA?5?$AA?5?$AA?5?$AA?5?$AA?5?$AA?5?$AA?5?$AA?5?$AA?5?$AA?5?$AA?$DN?$AA?5?$AA?$CF?$AAd?$AA?$AN?$AA?6?$AA?$AA@|
  01990		 |$LN62@DumpDDSURF|
  01990	00000000	 DCD         |??_C@_1BG@LGPCMLEK@?$AAD?$AAD?$AAS?$AAC?$AAA?$AAP?$AAS?$AA?3?$AA?$AN?$AA?6?$AA?$AA@|
  01994		 |$LN63@DumpDDSURF|
  01994	00000000	 DCD         |??_C@_1CC@PFIOOMNI@?$AAD?$AAD?$AAP?$AAI?$AAX?$AAE?$AAL?$AAF?$AAO?$AAR?$AAM?$AAA?$AAT?$AA?3?$AA?$AN?$AA?6?$AA?$AA@|
  01998		 |$M42835|

			 ENDP  ; |?DumpDDSURFACEDESC@@YAXPAU_DDSURFACEDESC@@@Z|, DumpDDSURFACEDESC

	EXPORT	|??_C@_1FK@JBJAFMJO@?$AA?5?$AA?5?$AAD?$AAD?$AAP?$AAI?$AAX?$AAE?$AAL?$AAF?$AAO?$AAR?$AAM?$AAA?$AAT?$AA?5?$AAd?$AAw?$AAR?$AAG?$AAB?$AAA?$AAl?$AAp?$AAh?$AAa?$AAB?$AAi?$AAt?$AAM?$AAa?$AAs@| [ DATA ] ; `string'
	EXPORT	|??_C@_1FK@MOLBBKEC@?$AA?5?$AA?5?$AAD?$AAD?$AAP?$AAI?$AAX?$AAE?$AAL?$AAF?$AAO?$AAR?$AAM?$AAA?$AAT?$AA?5?$AAd?$AAw?$AAB?$AAB?$AAi?$AAt?$AAM?$AAa?$AAs?$AAk?$AA?5?$AA?$CI?$AAV?$AA?$CJ?$AA?5?$AA?5@| [ DATA ] ; `string'
	EXPORT	|??_C@_1FK@KEAEOGHG@?$AA?5?$AA?5?$AAD?$AAD?$AAP?$AAI?$AAX?$AAE?$AAL?$AAF?$AAO?$AAR?$AAM?$AAA?$AAT?$AA?5?$AAd?$AAw?$AAG?$AAB?$AAi?$AAt?$AAM?$AAa?$AAs?$AAk?$AA?5?$AA?$CI?$AAU?$AA?$CJ?$AA?5?$AA?5@| [ DATA ] ; `string'
	EXPORT	|??_C@_1FK@NEAHLJFB@?$AA?5?$AA?5?$AAD?$AAD?$AAP?$AAI?$AAX?$AAE?$AAL?$AAF?$AAO?$AAR?$AAM?$AAA?$AAT?$AA?5?$AAd?$AAw?$AAR?$AAB?$AAi?$AAt?$AAM?$AAa?$AAs?$AAk?$AA?5?$AA?$CI?$AAY?$AA?$CJ?$AA?5?$AA?5@| [ DATA ] ; `string'
	EXPORT	|??_C@_1FC@HEHDCKEI@?$AA?5?$AA?5?$AAD?$AAD?$AAP?$AAI?$AAX?$AAE?$AAL?$AAF?$AAO?$AAR?$AAM?$AAA?$AAT?$AA?5?$AAd?$AAw?$AAR?$AAG?$AAB?$AAB?$AAi?$AAt?$AAC?$AAo?$AAu?$AAn?$AAt?$AA?5?$AA?5?$AA?5@| [ DATA ] ; `string'
	EXPORT	|??_C@_1FG@MGBJIJCP@?$AA?5?$AA?5?$AAD?$AAD?$AAP?$AAI?$AAX?$AAE?$AAL?$AAF?$AAO?$AAR?$AAM?$AAA?$AAT?$AA?5?$AAd?$AAw?$AAF?$AAo?$AAu?$AAr?$AAC?$AAC?$AA?5?$AA?$DN?$AA?5?$AA0?$AAx?$AA?$CF?$AAx?$AA?5@| [ DATA ] ; `string'
	EXPORT	|??_C@_1DA@GJCFNHAF@?$AA?5?$AA?5?$AA?5?$AA?5?$AAD?$AAD?$AAP?$AAF?$AA_?$AAA?$AAL?$AAP?$AAH?$AAA?$AAP?$AAR?$AAE?$AAM?$AAU?$AAL?$AAT?$AA?$DL?$AA?5?$AA?$AA@| [ DATA ] ; `string'
	EXPORT	|??_C@_1BO@CFCKCGCK@?$AA?5?$AA?5?$AA?5?$AA?5?$AAD?$AAD?$AAP?$AAF?$AA_?$AAR?$AAG?$AAB?$AA?$DL?$AA?5?$AA?$AA@| [ DATA ] ; `string'
	EXPORT	|??_C@_1DE@NINPMJGN@?$AA?5?$AA?5?$AA?5?$AA?5?$AAD?$AAD?$AAP?$AAF?$AA_?$AAP?$AAA?$AAL?$AAE?$AAT?$AAT?$AAE?$AAI?$AAN?$AAD?$AAE?$AAX?$AAE?$AAD?$AA?$DL?$AA?5?$AA?$AA@| [ DATA ] ; `string'
	EXPORT	|??_C@_1CE@KKGOMBOM@?$AA?5?$AA?5?$AA?5?$AA?5?$AAD?$AAD?$AAP?$AAF?$AA_?$AAF?$AAO?$AAU?$AAR?$AAC?$AAC?$AA?$DL?$AA?5?$AA?$AA@| [ DATA ] ; `string'
	EXPORT	|??_C@_1CC@HIGEGJGL@?$AA?5?$AA?5?$AA?5?$AA?5?$AAD?$AAD?$AAP?$AAF?$AA_?$AAA?$AAL?$AAP?$AAH?$AAA?$AA?$DL?$AA?5?$AA?$AA@| [ DATA ] ; `string'
	EXPORT	|??_C@_1CO@DCDKMDAL@?$AA?5?$AA?5?$AA?5?$AA?5?$AAD?$AAD?$AAP?$AAF?$AA_?$AAA?$AAL?$AAP?$AAH?$AAA?$AAP?$AAI?$AAX?$AAE?$AAL?$AAS?$AA?$DL?$AA?5?$AA?$AA@| [ DATA ] ; `string'
	EXPORT	|??_C@_1EE@CGAHCANJ@?$AA?5?$AA?5?$AAD?$AAD?$AAP?$AAI?$AAX?$AAE?$AAL?$AAF?$AAO?$AAR?$AAM?$AAA?$AAT?$AA?5?$AAd?$AAw?$AAF?$AAl?$AAa?$AAg?$AAs?$AA?5?$AA?5?$AA?$DN?$AA?5?$AA0?$AAx?$AA?$CF?$AAx?$AA?$AN@| [ DATA ] ; `string'

  00048			 AREA	 |.pdata|, PDATA
|$T42886| DCD	|$LN37@DumpDDPIXE|
	DCD	0x4000cc04

  00000			 AREA	 |.rdata|, DATA, READONLY
|??_C@_1FK@JBJAFMJO@?$AA?5?$AA?5?$AAD?$AAD?$AAP?$AAI?$AAX?$AAE?$AAL?$AAF?$AAO?$AAR?$AAM?$AAA?$AAT?$AA?5?$AAd?$AAw?$AAR?$AAG?$AAB?$AAA?$AAl?$AAp?$AAh?$AAa?$AAB?$AAi?$AAt?$AAM?$AAa?$AAs@| DCB " "
	DCB	0x0, " ", 0x0, "D", 0x0, "D", 0x0, "P", 0x0, "I", 0x0, "X"
	DCB	0x0, "E", 0x0, "L", 0x0, "F", 0x0, "O", 0x0, "R", 0x0, "M"
	DCB	0x0, "A", 0x0, "T", 0x0, " ", 0x0, "d", 0x0, "w", 0x0, "R"
	DCB	0x0, "G", 0x0, "B", 0x0, "A", 0x0, "l", 0x0, "p", 0x0, "h"
	DCB	0x0, "a", 0x0, "B", 0x0, "i", 0x0, "t", 0x0, "M", 0x0, "a"
	DCB	0x0, "s", 0x0, "k", 0x0, " ", 0x0, "=", 0x0, " ", 0x0, "0"
	DCB	0x0, "x", 0x0, "%", 0x0, "0", 0x0, "8", 0x0, "x", 0x0, 0xd
	DCB	0x0, 0xa, 0x0, 0x0, 0x0			; `string'

  00000			 AREA	 |.rdata|, DATA, READONLY
|??_C@_1FK@MOLBBKEC@?$AA?5?$AA?5?$AAD?$AAD?$AAP?$AAI?$AAX?$AAE?$AAL?$AAF?$AAO?$AAR?$AAM?$AAA?$AAT?$AA?5?$AAd?$AAw?$AAB?$AAB?$AAi?$AAt?$AAM?$AAa?$AAs?$AAk?$AA?5?$AA?$CI?$AAV?$AA?$CJ?$AA?5?$AA?5@| DCB " "
	DCB	0x0, " ", 0x0, "D", 0x0, "D", 0x0, "P", 0x0, "I", 0x0, "X"
	DCB	0x0, "E", 0x0, "L", 0x0, "F", 0x0, "O", 0x0, "R", 0x0, "M"
	DCB	0x0, "A", 0x0, "T", 0x0, " ", 0x0, "d", 0x0, "w", 0x0, "B"
	DCB	0x0, "B", 0x0, "i", 0x0, "t", 0x0, "M", 0x0, "a", 0x0, "s"
	DCB	0x0, "k", 0x0, " ", 0x0, "(", 0x0, "V", 0x0, ")", 0x0, " "
	DCB	0x0, " ", 0x0, " ", 0x0, " ", 0x0, "=", 0x0, " ", 0x0, "0"
	DCB	0x0, "x", 0x0, "%", 0x0, "0", 0x0, "8", 0x0, "x", 0x0, 0xd
	DCB	0x0, 0xa, 0x0, 0x0, 0x0			; `string'

  00000			 AREA	 |.rdata|, DATA, READONLY
|??_C@_1FK@KEAEOGHG@?$AA?5?$AA?5?$AAD?$AAD?$AAP?$AAI?$AAX?$AAE?$AAL?$AAF?$AAO?$AAR?$AAM?$AAA?$AAT?$AA?5?$AAd?$AAw?$AAG?$AAB?$AAi?$AAt?$AAM?$AAa?$AAs?$AAk?$AA?5?$AA?$CI?$AAU?$AA?$CJ?$AA?5?$AA?5@| DCB " "
	DCB	0x0, " ", 0x0, "D", 0x0, "D", 0x0, "P", 0x0, "I", 0x0, "X"
	DCB	0x0, "E", 0x0, "L", 0x0, "F", 0x0, "O", 0x0, "R", 0x0, "M"
	DCB	0x0, "A", 0x0, "T", 0x0, " ", 0x0, "d", 0x0, "w", 0x0, "G"
	DCB	0x0, "B", 0x0, "i", 0x0, "t", 0x0, "M", 0x0, "a", 0x0, "s"
	DCB	0x0, "k", 0x0, " ", 0x0, "(", 0x0, "U", 0x0, ")", 0x0, " "
	DCB	0x0, " ", 0x0, " ", 0x0, " ", 0x0, "=", 0x0, " ", 0x0, "0"
	DCB	0x0, "x", 0x0, "%", 0x0, "0", 0x0, "8", 0x0, "x", 0x0, 0xd
	DCB	0x0, 0xa, 0x0, 0x0, 0x0			; `string'

  00000			 AREA	 |.rdata|, DATA, READONLY
|??_C@_1FK@NEAHLJFB@?$AA?5?$AA?5?$AAD?$AAD?$AAP?$AAI?$AAX?$AAE?$AAL?$AAF?$AAO?$AAR?$AAM?$AAA?$AAT?$AA?5?$AAd?$AAw?$AAR?$AAB?$AAi?$AAt?$AAM?$AAa?$AAs?$AAk?$AA?5?$AA?$CI?$AAY?$AA?$CJ?$AA?5?$AA?5@| DCB " "
	DCB	0x0, " ", 0x0, "D", 0x0, "D", 0x0, "P", 0x0, "I", 0x0, "X"
	DCB	0x0, "E", 0x0, "L", 0x0, "F", 0x0, "O", 0x0, "R", 0x0, "M"
	DCB	0x0, "A", 0x0, "T", 0x0, " ", 0x0, "d", 0x0, "w", 0x0, "R"
	DCB	0x0, "B", 0x0, "i", 0x0, "t", 0x0, "M", 0x0, "a", 0x0, "s"
	DCB	0x0, "k", 0x0, " ", 0x0, "(", 0x0, "Y", 0x0, ")", 0x0, " "
	DCB	0x0, " ", 0x0, " ", 0x0, " ", 0x0, "=", 0x0, " ", 0x0, "0"
	DCB	0x0, "x", 0x0, "%", 0x0, "0", 0x0, "8", 0x0, "x", 0x0, 0xd
	DCB	0x0, 0xa, 0x0, 0x0, 0x0			; `string'

  00000			 AREA	 |.rdata|, DATA, READONLY
|??_C@_1FC@HEHDCKEI@?$AA?5?$AA?5?$AAD?$AAD?$AAP?$AAI?$AAX?$AAE?$AAL?$AAF?$AAO?$AAR?$AAM?$AAA?$AAT?$AA?5?$AAd?$AAw?$AAR?$AAG?$AAB?$AAB?$AAi?$AAt?$AAC?$AAo?$AAu?$AAn?$AAt?$AA?5?$AA?5?$AA?5@| DCB " "
	DCB	0x0, " ", 0x0, "D", 0x0, "D", 0x0, "P", 0x0, "I", 0x0, "X"
	DCB	0x0, "E", 0x0, "L", 0x0, "F", 0x0, "O", 0x0, "R", 0x0, "M"
	DCB	0x0, "A", 0x0, "T", 0x0, " ", 0x0, "d", 0x0, "w", 0x0, "R"
	DCB	0x0, "G", 0x0, "B", 0x0, "B", 0x0, "i", 0x0, "t", 0x0, "C"
	DCB	0x0, "o", 0x0, "u", 0x0, "n", 0x0, "t", 0x0, " ", 0x0, " "
	DCB	0x0, " ", 0x0, " ", 0x0, " ", 0x0, "=", 0x0, " ", 0x0, "%"
	DCB	0x0, "d", 0x0, 0xd, 0x0, 0xa, 0x0, 0x0, 0x0 ; `string'

  00000			 AREA	 |.rdata|, DATA, READONLY
|??_C@_1FG@MGBJIJCP@?$AA?5?$AA?5?$AAD?$AAD?$AAP?$AAI?$AAX?$AAE?$AAL?$AAF?$AAO?$AAR?$AAM?$AAA?$AAT?$AA?5?$AAd?$AAw?$AAF?$AAo?$AAu?$AAr?$AAC?$AAC?$AA?5?$AA?$DN?$AA?5?$AA0?$AAx?$AA?$CF?$AAx?$AA?5@| DCB " "
	DCB	0x0, " ", 0x0, "D", 0x0, "D", 0x0, "P", 0x0, "I", 0x0, "X"
	DCB	0x0, "E", 0x0, "L", 0x0, "F", 0x0, "O", 0x0, "R", 0x0, "M"
	DCB	0x0, "A", 0x0, "T", 0x0, " ", 0x0, "d", 0x0, "w", 0x0, "F"
	DCB	0x0, "o", 0x0, "u", 0x0, "r", 0x0, "C", 0x0, "C", 0x0, " "
	DCB	0x0, "=", 0x0, " ", 0x0, "0", 0x0, "x", 0x0, "%", 0x0, "x"
	DCB	0x0, " ", 0x0, "%", 0x0, "c", 0x0, "%", 0x0, "c", 0x0, "%"
	DCB	0x0, "c", 0x0, "%", 0x0, "c", 0x0, 0xd, 0x0, 0xa, 0x0, 0x0
	DCB	0x0					; `string'

  00000			 AREA	 |.rdata|, DATA, READONLY
|??_C@_1DA@GJCFNHAF@?$AA?5?$AA?5?$AA?5?$AA?5?$AAD?$AAD?$AAP?$AAF?$AA_?$AAA?$AAL?$AAP?$AAH?$AAA?$AAP?$AAR?$AAE?$AAM?$AAU?$AAL?$AAT?$AA?$DL?$AA?5?$AA?$AA@| DCB " "
	DCB	0x0, " ", 0x0, " ", 0x0, " ", 0x0, "D", 0x0, "D", 0x0, "P"
	DCB	0x0, "F", 0x0, "_", 0x0, "A", 0x0, "L", 0x0, "P", 0x0, "H"
	DCB	0x0, "A", 0x0, "P", 0x0, "R", 0x0, "E", 0x0, "M", 0x0, "U"
	DCB	0x0, "L", 0x0, "T", 0x0, ";", 0x0, " ", 0x0, 0x0, 0x0 ; `string'

  00000			 AREA	 |.rdata|, DATA, READONLY
|??_C@_1BO@CFCKCGCK@?$AA?5?$AA?5?$AA?5?$AA?5?$AAD?$AAD?$AAP?$AAF?$AA_?$AAR?$AAG?$AAB?$AA?$DL?$AA?5?$AA?$AA@| DCB " "
	DCB	0x0, " ", 0x0, " ", 0x0, " ", 0x0, "D", 0x0, "D", 0x0, "P"
	DCB	0x0, "F", 0x0, "_", 0x0, "R", 0x0, "G", 0x0, "B", 0x0, ";"
	DCB	0x0, " ", 0x0, 0x0, 0x0			; `string'

  00000			 AREA	 |.rdata|, DATA, READONLY
|??_C@_1DE@NINPMJGN@?$AA?5?$AA?5?$AA?5?$AA?5?$AAD?$AAD?$AAP?$AAF?$AA_?$AAP?$AAA?$AAL?$AAE?$AAT?$AAT?$AAE?$AAI?$AAN?$AAD?$AAE?$AAX?$AAE?$AAD?$AA?$DL?$AA?5?$AA?$AA@| DCB " "
	DCB	0x0, " ", 0x0, " ", 0x0, " ", 0x0, "D", 0x0, "D", 0x0, "P"
	DCB	0x0, "F", 0x0, "_", 0x0, "P", 0x0, "A", 0x0, "L", 0x0, "E"
	DCB	0x0, "T", 0x0, "T", 0x0, "E", 0x0, "I", 0x0, "N", 0x0, "D"
	DCB	0x0, "E", 0x0, "X", 0x0, "E", 0x0, "D", 0x0, ";", 0x0, " "
	DCB	0x0, 0x0, 0x0				; `string'

  00000			 AREA	 |.rdata|, DATA, READONLY
|??_C@_1CE@KKGOMBOM@?$AA?5?$AA?5?$AA?5?$AA?5?$AAD?$AAD?$AAP?$AAF?$AA_?$AAF?$AAO?$AAU?$AAR?$AAC?$AAC?$AA?$DL?$AA?5?$AA?$AA@| DCB " "
	DCB	0x0, " ", 0x0, " ", 0x0, " ", 0x0, "D", 0x0, "D", 0x0, "P"
	DCB	0x0, "F", 0x0, "_", 0x0, "F", 0x0, "O", 0x0, "U", 0x0, "R"
	DCB	0x0, "C", 0x0, "C", 0x0, ";", 0x0, " ", 0x0, 0x0, 0x0 ; `string'

  00000			 AREA	 |.rdata|, DATA, READONLY
|??_C@_1CC@HIGEGJGL@?$AA?5?$AA?5?$AA?5?$AA?5?$AAD?$AAD?$AAP?$AAF?$AA_?$AAA?$AAL?$AAP?$AAH?$AAA?$AA?$DL?$AA?5?$AA?$AA@| DCB " "
	DCB	0x0, " ", 0x0, " ", 0x0, " ", 0x0, "D", 0x0, "D", 0x0, "P"
	DCB	0x0, "F", 0x0, "_", 0x0, "A", 0x0, "L", 0x0, "P", 0x0, "H"
	DCB	0x0, "A", 0x0, ";", 0x0, " ", 0x0, 0x0, 0x0 ; `string'

  00000			 AREA	 |.rdata|, DATA, READONLY
|??_C@_1CO@DCDKMDAL@?$AA?5?$AA?5?$AA?5?$AA?5?$AAD?$AAD?$AAP?$AAF?$AA_?$AAA?$AAL?$AAP?$AAH?$AAA?$AAP?$AAI?$AAX?$AAE?$AAL?$AAS?$AA?$DL?$AA?5?$AA?$AA@| DCB " "
	DCB	0x0, " ", 0x0, " ", 0x0, " ", 0x0, "D", 0x0, "D", 0x0, "P"
	DCB	0x0, "F", 0x0, "_", 0x0, "A", 0x0, "L", 0x0, "P", 0x0, "H"
	DCB	0x0, "A", 0x0, "P", 0x0, "I", 0x0, "X", 0x0, "E", 0x0, "L"
	DCB	0x0, "S", 0x0, ";", 0x0, " ", 0x0, 0x0, 0x0 ; `string'

  00000			 AREA	 |.rdata|, DATA, READONLY
|??_C@_1EE@CGAHCANJ@?$AA?5?$AA?5?$AAD?$AAD?$AAP?$AAI?$AAX?$AAE?$AAL?$AAF?$AAO?$AAR?$AAM?$AAA?$AAT?$AA?5?$AAd?$AAw?$AAF?$AAl?$AAa?$AAg?$AAs?$AA?5?$AA?5?$AA?$DN?$AA?5?$AA0?$AAx?$AA?$CF?$AAx?$AA?$AN@| DCB " "
	DCB	0x0, " ", 0x0, "D", 0x0, "D", 0x0, "P", 0x0, "I", 0x0, "X"
	DCB	0x0, "E", 0x0, "L", 0x0, "F", 0x0, "O", 0x0, "R", 0x0, "M"
	DCB	0x0, "A", 0x0, "T", 0x0, " ", 0x0, "d", 0x0, "w", 0x0, "F"
	DCB	0x0, "l", 0x0, "a", 0x0, "g", 0x0, "s", 0x0, " ", 0x0, " "
	DCB	0x0, "=", 0x0, " ", 0x0, "0", 0x0, "x", 0x0, "%", 0x0, "x"
	DCB	0x0, 0xd, 0x0, 0xa, 0x0, 0x0, 0x0	; `string'
; Function compile flags: /Odtp

  01998			 AREA	 |.text|, CODE, ARM

  01998		 |?DumpDDPIXELFORMAT@@YAXU_DDPIXELFORMAT@@@Z| PROC ; DumpDDPIXELFORMAT

; 283  : {

  01998		 |$LN37@DumpDDPIXE|
  01998	e1a0c00d	 mov         r12, sp
  0199c	e92d000f	 stmdb       sp!, {r0 - r3}
  019a0	e92d5000	 stmdb       sp!, {r12, lr}
  019a4	e24dd048	 sub         sp, sp, #0x48
  019a8		 |$M42883|

; 284  :     UCHAR   *p = (UCHAR*) &ddPixelFormat.dwFourCC;

  019a8	e28d3058	 add         r3, sp, #0x58
  019ac	e58d3008	 str         r3, [sp, #8]

; 285  :     
; 286  :     DEBUGMSG(GPE_ZONE_DDRAW_HAL, (TEXT("  DDPIXELFORMAT dwFlags  = 0x%x\r\n"), ddPixelFormat.dwFlags));

  019b0	e59f32dc	 ldr         r3, [pc, #0x2DC]
  019b4	e5933440	 ldr         r3, [r3, #0x440]
  019b8	e3130902	 tst         r3, #2, 18
  019bc	0a000005	 beq         |$LN9@DumpDDPIXE|
  019c0	e59d1054	 ldr         r1, [sp, #0x54]
  019c4	e59f02f8	 ldr         r0, [pc, #0x2F8]
  019c8	eb000000	 bl          NKDbgPrintfW
  019cc	e3a03001	 mov         r3, #1
  019d0	e58d3014	 str         r3, [sp, #0x14]
  019d4	ea000001	 b           |$LN10@DumpDDPIXE|
  019d8		 |$LN9@DumpDDPIXE|
  019d8	e3a03000	 mov         r3, #0
  019dc	e58d3014	 str         r3, [sp, #0x14]
  019e0		 |$LN10@DumpDDPIXE|

; 287  : 
; 288  :     if( ddPixelFormat.dwFlags & DDPF_ALPHAPIXELS)

  019e0	e59d3054	 ldr         r3, [sp, #0x54]
  019e4	e3130001	 tst         r3, #1
  019e8	0a00000a	 beq         |$LN6@DumpDDPIXE|

; 289  :         DEBUGMSG(GPE_ZONE_DDRAW_HAL, (TEXT("    DDPF_ALPHAPIXELS; ")));

  019ec	e59f32a0	 ldr         r3, [pc, #0x2A0]
  019f0	e5933440	 ldr         r3, [r3, #0x440]
  019f4	e3130902	 tst         r3, #2, 18
  019f8	0a000004	 beq         |$LN11@DumpDDPIXE|
  019fc	e59f02bc	 ldr         r0, [pc, #0x2BC]
  01a00	eb000000	 bl          NKDbgPrintfW
  01a04	e3a03001	 mov         r3, #1
  01a08	e58d3018	 str         r3, [sp, #0x18]
  01a0c	ea000001	 b           |$LN12@DumpDDPIXE|
  01a10		 |$LN11@DumpDDPIXE|
  01a10	e3a03000	 mov         r3, #0
  01a14	e58d3018	 str         r3, [sp, #0x18]
  01a18		 |$LN12@DumpDDPIXE|
  01a18		 |$LN6@DumpDDPIXE|

; 290  :     if( ddPixelFormat.dwFlags & DDPF_ALPHA)

  01a18	e59d3054	 ldr         r3, [sp, #0x54]
  01a1c	e3130002	 tst         r3, #2
  01a20	0a00000a	 beq         |$LN5@DumpDDPIXE|

; 291  :         DEBUGMSG(GPE_ZONE_DDRAW_HAL, (TEXT("    DDPF_ALPHA; ")));

  01a24	e59f3268	 ldr         r3, [pc, #0x268]
  01a28	e5933440	 ldr         r3, [r3, #0x440]
  01a2c	e3130902	 tst         r3, #2, 18
  01a30	0a000004	 beq         |$LN13@DumpDDPIXE|
  01a34	e59f0280	 ldr         r0, [pc, #0x280]
  01a38	eb000000	 bl          NKDbgPrintfW
  01a3c	e3a03001	 mov         r3, #1
  01a40	e58d301c	 str         r3, [sp, #0x1C]
  01a44	ea000001	 b           |$LN14@DumpDDPIXE|
  01a48		 |$LN13@DumpDDPIXE|
  01a48	e3a03000	 mov         r3, #0
  01a4c	e58d301c	 str         r3, [sp, #0x1C]
  01a50		 |$LN14@DumpDDPIXE|
  01a50		 |$LN5@DumpDDPIXE|

; 292  :     if( ddPixelFormat.dwFlags & DDPF_FOURCC)

  01a50	e59d3054	 ldr         r3, [sp, #0x54]
  01a54	e3130004	 tst         r3, #4
  01a58	0a00000a	 beq         |$LN4@DumpDDPIXE|

; 293  :         DEBUGMSG(GPE_ZONE_DDRAW_HAL, (TEXT("    DDPF_FOURCC; ")));

  01a5c	e59f3230	 ldr         r3, [pc, #0x230]
  01a60	e5933440	 ldr         r3, [r3, #0x440]
  01a64	e3130902	 tst         r3, #2, 18
  01a68	0a000004	 beq         |$LN15@DumpDDPIXE|
  01a6c	e59f0244	 ldr         r0, [pc, #0x244]
  01a70	eb000000	 bl          NKDbgPrintfW
  01a74	e3a03001	 mov         r3, #1
  01a78	e58d3020	 str         r3, [sp, #0x20]
  01a7c	ea000001	 b           |$LN16@DumpDDPIXE|
  01a80		 |$LN15@DumpDDPIXE|
  01a80	e3a03000	 mov         r3, #0
  01a84	e58d3020	 str         r3, [sp, #0x20]
  01a88		 |$LN16@DumpDDPIXE|
  01a88		 |$LN4@DumpDDPIXE|

; 294  :     if( ddPixelFormat.dwFlags & DDPF_PALETTEINDEXED)

  01a88	e59d3054	 ldr         r3, [sp, #0x54]
  01a8c	e3130020	 tst         r3, #0x20
  01a90	0a00000a	 beq         |$LN3@DumpDDPIXE|

; 295  :         DEBUGMSG(GPE_ZONE_DDRAW_HAL, (TEXT("    DDPF_PALETTEINDEXED; ")));

  01a94	e59f31f8	 ldr         r3, [pc, #0x1F8]
  01a98	e5933440	 ldr         r3, [r3, #0x440]
  01a9c	e3130902	 tst         r3, #2, 18
  01aa0	0a000004	 beq         |$LN17@DumpDDPIXE|
  01aa4	e59f0208	 ldr         r0, [pc, #0x208]
  01aa8	eb000000	 bl          NKDbgPrintfW
  01aac	e3a03001	 mov         r3, #1
  01ab0	e58d3024	 str         r3, [sp, #0x24]
  01ab4	ea000001	 b           |$LN18@DumpDDPIXE|
  01ab8		 |$LN17@DumpDDPIXE|
  01ab8	e3a03000	 mov         r3, #0
  01abc	e58d3024	 str         r3, [sp, #0x24]
  01ac0		 |$LN18@DumpDDPIXE|
  01ac0		 |$LN3@DumpDDPIXE|

; 296  :     if( ddPixelFormat.dwFlags & DDPF_RGB)

  01ac0	e59d3054	 ldr         r3, [sp, #0x54]
  01ac4	e3130040	 tst         r3, #0x40
  01ac8	0a00000a	 beq         |$LN2@DumpDDPIXE|

; 297  :         DEBUGMSG(GPE_ZONE_DDRAW_HAL, (TEXT("    DDPF_RGB; ")));

  01acc	e59f31c0	 ldr         r3, [pc, #0x1C0]
  01ad0	e5933440	 ldr         r3, [r3, #0x440]
  01ad4	e3130902	 tst         r3, #2, 18
  01ad8	0a000004	 beq         |$LN19@DumpDDPIXE|
  01adc	e59f01cc	 ldr         r0, [pc, #0x1CC]
  01ae0	eb000000	 bl          NKDbgPrintfW
  01ae4	e3a03001	 mov         r3, #1
  01ae8	e58d3028	 str         r3, [sp, #0x28]
  01aec	ea000001	 b           |$LN20@DumpDDPIXE|
  01af0		 |$LN19@DumpDDPIXE|
  01af0	e3a03000	 mov         r3, #0
  01af4	e58d3028	 str         r3, [sp, #0x28]
  01af8		 |$LN20@DumpDDPIXE|
  01af8		 |$LN2@DumpDDPIXE|

; 298  :     if( ddPixelFormat.dwFlags & DDPF_ALPHAPREMULT)

  01af8	e59d3054	 ldr         r3, [sp, #0x54]
  01afc	e3130902	 tst         r3, #2, 18
  01b00	0a00000a	 beq         |$LN1@DumpDDPIXE|

; 299  :         DEBUGMSG(GPE_ZONE_DDRAW_HAL, (TEXT("    DDPF_ALPHAPREMULT; ")));

  01b04	e59f3188	 ldr         r3, [pc, #0x188]
  01b08	e5933440	 ldr         r3, [r3, #0x440]
  01b0c	e3130902	 tst         r3, #2, 18
  01b10	0a000004	 beq         |$LN21@DumpDDPIXE|
  01b14	e59f0190	 ldr         r0, [pc, #0x190]
  01b18	eb000000	 bl          NKDbgPrintfW
  01b1c	e3a03001	 mov         r3, #1
  01b20	e58d302c	 str         r3, [sp, #0x2C]
  01b24	ea000001	 b           |$LN22@DumpDDPIXE|
  01b28		 |$LN21@DumpDDPIXE|
  01b28	e3a03000	 mov         r3, #0
  01b2c	e58d302c	 str         r3, [sp, #0x2C]
  01b30		 |$LN22@DumpDDPIXE|
  01b30		 |$LN1@DumpDDPIXE|

; 300  : 
; 301  :     DEBUGMSG(GPE_ZONE_DDRAW_HAL, (TEXT("  DDPIXELFORMAT dwFourCC = 0x%x %c%c%c%c\r\n"), ddPixelFormat.dwFourCC, p[0], p[1], p[2], p[3]));

  01b30	e59f315c	 ldr         r3, [pc, #0x15C]
  01b34	e5933440	 ldr         r3, [r3, #0x440]
  01b38	e3130902	 tst         r3, #2, 18
  01b3c	0a000012	 beq         |$LN23@DumpDDPIXE|
  01b40	e59d3008	 ldr         r3, [sp, #8]
  01b44	e2833003	 add         r3, r3, #3
  01b48	e5d33000	 ldrb        r3, [r3]
  01b4c	e58d3004	 str         r3, [sp, #4]
  01b50	e59d3008	 ldr         r3, [sp, #8]
  01b54	e2833002	 add         r3, r3, #2
  01b58	e5d33000	 ldrb        r3, [r3]
  01b5c	e58d3000	 str         r3, [sp]
  01b60	e59d3008	 ldr         r3, [sp, #8]
  01b64	e2833001	 add         r3, r3, #1
  01b68	e5d33000	 ldrb        r3, [r3]
  01b6c	e59d2008	 ldr         r2, [sp, #8]
  01b70	e5d22000	 ldrb        r2, [r2]
  01b74	e59d1058	 ldr         r1, [sp, #0x58]
  01b78	e59f0128	 ldr         r0, [pc, #0x128]
  01b7c	eb000000	 bl          NKDbgPrintfW
  01b80	e3a03001	 mov         r3, #1
  01b84	e58d3030	 str         r3, [sp, #0x30]
  01b88	ea000001	 b           |$LN24@DumpDDPIXE|
  01b8c		 |$LN23@DumpDDPIXE|
  01b8c	e3a03000	 mov         r3, #0
  01b90	e58d3030	 str         r3, [sp, #0x30]
  01b94		 |$LN24@DumpDDPIXE|

; 302  : 
; 303  :     DEBUGMSG(GPE_ZONE_DDRAW_HAL, (TEXT("  DDPIXELFORMAT dwRGBBitCount     = %d\r\n"), ddPixelFormat.dwRGBBitCount));

  01b94	e59f30f8	 ldr         r3, [pc, #0xF8]
  01b98	e5933440	 ldr         r3, [r3, #0x440]
  01b9c	e3130902	 tst         r3, #2, 18
  01ba0	0a000005	 beq         |$LN25@DumpDDPIXE|
  01ba4	e59d105c	 ldr         r1, [sp, #0x5C]
  01ba8	e59f00f4	 ldr         r0, [pc, #0xF4]
  01bac	eb000000	 bl          NKDbgPrintfW
  01bb0	e3a03001	 mov         r3, #1
  01bb4	e58d3034	 str         r3, [sp, #0x34]
  01bb8	ea000001	 b           |$LN26@DumpDDPIXE|
  01bbc		 |$LN25@DumpDDPIXE|
  01bbc	e3a03000	 mov         r3, #0
  01bc0	e58d3034	 str         r3, [sp, #0x34]
  01bc4		 |$LN26@DumpDDPIXE|

; 304  :     DEBUGMSG(GPE_ZONE_DDRAW_HAL, (TEXT("  DDPIXELFORMAT dwRBitMask (Y)    = 0x%08x\r\n"), ddPixelFormat.dwRBitMask));

  01bc4	e59f30c8	 ldr         r3, [pc, #0xC8]
  01bc8	e5933440	 ldr         r3, [r3, #0x440]
  01bcc	e3130902	 tst         r3, #2, 18
  01bd0	0a000005	 beq         |$LN27@DumpDDPIXE|
  01bd4	e59d1060	 ldr         r1, [sp, #0x60]
  01bd8	e59f00c0	 ldr         r0, [pc, #0xC0]
  01bdc	eb000000	 bl          NKDbgPrintfW
  01be0	e3a03001	 mov         r3, #1
  01be4	e58d3038	 str         r3, [sp, #0x38]
  01be8	ea000001	 b           |$LN28@DumpDDPIXE|
  01bec		 |$LN27@DumpDDPIXE|
  01bec	e3a03000	 mov         r3, #0
  01bf0	e58d3038	 str         r3, [sp, #0x38]
  01bf4		 |$LN28@DumpDDPIXE|

; 305  :     DEBUGMSG(GPE_ZONE_DDRAW_HAL, (TEXT("  DDPIXELFORMAT dwGBitMask (U)    = 0x%08x\r\n"), ddPixelFormat.dwGBitMask));

  01bf4	e59f3098	 ldr         r3, [pc, #0x98]
  01bf8	e5933440	 ldr         r3, [r3, #0x440]
  01bfc	e3130902	 tst         r3, #2, 18
  01c00	0a000005	 beq         |$LN29@DumpDDPIXE|
  01c04	e59d1064	 ldr         r1, [sp, #0x64]
  01c08	e59f008c	 ldr         r0, [pc, #0x8C]
  01c0c	eb000000	 bl          NKDbgPrintfW
  01c10	e3a03001	 mov         r3, #1
  01c14	e58d303c	 str         r3, [sp, #0x3C]
  01c18	ea000001	 b           |$LN30@DumpDDPIXE|
  01c1c		 |$LN29@DumpDDPIXE|
  01c1c	e3a03000	 mov         r3, #0
  01c20	e58d303c	 str         r3, [sp, #0x3C]
  01c24		 |$LN30@DumpDDPIXE|

; 306  :     DEBUGMSG(GPE_ZONE_DDRAW_HAL, (TEXT("  DDPIXELFORMAT dwBBitMask (V)    = 0x%08x\r\n"), ddPixelFormat.dwBBitMask));

  01c24	e59f3068	 ldr         r3, [pc, #0x68]
  01c28	e5933440	 ldr         r3, [r3, #0x440]
  01c2c	e3130902	 tst         r3, #2, 18
  01c30	0a000005	 beq         |$LN31@DumpDDPIXE|
  01c34	e59d1068	 ldr         r1, [sp, #0x68]
  01c38	e59f0058	 ldr         r0, [pc, #0x58]
  01c3c	eb000000	 bl          NKDbgPrintfW
  01c40	e3a03001	 mov         r3, #1
  01c44	e58d3040	 str         r3, [sp, #0x40]
  01c48	ea000001	 b           |$LN32@DumpDDPIXE|
  01c4c		 |$LN31@DumpDDPIXE|
  01c4c	e3a03000	 mov         r3, #0
  01c50	e58d3040	 str         r3, [sp, #0x40]
  01c54		 |$LN32@DumpDDPIXE|

; 307  :     DEBUGMSG(GPE_ZONE_DDRAW_HAL, (TEXT("  DDPIXELFORMAT dwRGBAlphaBitMask = 0x%08x\r\n"), ddPixelFormat.dwRGBAlphaBitMask));

  01c54	e59f3038	 ldr         r3, [pc, #0x38]
  01c58	e5933440	 ldr         r3, [r3, #0x440]
  01c5c	e3130902	 tst         r3, #2, 18
  01c60	0a000005	 beq         |$LN33@DumpDDPIXE|
  01c64	e59d106c	 ldr         r1, [sp, #0x6C]
  01c68	e59f0020	 ldr         r0, [pc, #0x20]
  01c6c	eb000000	 bl          NKDbgPrintfW
  01c70	e3a03001	 mov         r3, #1
  01c74	e58d3044	 str         r3, [sp, #0x44]
  01c78	ea000001	 b           |$LN34@DumpDDPIXE|
  01c7c		 |$LN33@DumpDDPIXE|
  01c7c	e3a03000	 mov         r3, #0
  01c80	e58d3044	 str         r3, [sp, #0x44]
  01c84		 |$LN34@DumpDDPIXE|

; 308  : }

  01c84	e28dd048	 add         sp, sp, #0x48
  01c88	e89d6000	 ldmia       sp, {sp, lr}
  01c8c	e12fff1e	 bx          lr
  01c90		 |$LN38@DumpDDPIXE|
  01c90		 |$LN39@DumpDDPIXE|
  01c90	00000000	 DCD         |??_C@_1FK@JBJAFMJO@?$AA?5?$AA?5?$AAD?$AAD?$AAP?$AAI?$AAX?$AAE?$AAL?$AAF?$AAO?$AAR?$AAM?$AAA?$AAT?$AA?5?$AAd?$AAw?$AAR?$AAG?$AAB?$AAA?$AAl?$AAp?$AAh?$AAa?$AAB?$AAi?$AAt?$AAM?$AAa?$AAs@|
  01c94		 |$LN40@DumpDDPIXE|
  01c94	00000000	 DCD         |dpCurSettings|
  01c98		 |$LN41@DumpDDPIXE|
  01c98	00000000	 DCD         |??_C@_1FK@MOLBBKEC@?$AA?5?$AA?5?$AAD?$AAD?$AAP?$AAI?$AAX?$AAE?$AAL?$AAF?$AAO?$AAR?$AAM?$AAA?$AAT?$AA?5?$AAd?$AAw?$AAB?$AAB?$AAi?$AAt?$AAM?$AAa?$AAs?$AAk?$AA?5?$AA?$CI?$AAV?$AA?$CJ?$AA?5?$AA?5@|
  01c9c		 |$LN42@DumpDDPIXE|
  01c9c	00000000	 DCD         |??_C@_1FK@KEAEOGHG@?$AA?5?$AA?5?$AAD?$AAD?$AAP?$AAI?$AAX?$AAE?$AAL?$AAF?$AAO?$AAR?$AAM?$AAA?$AAT?$AA?5?$AAd?$AAw?$AAG?$AAB?$AAi?$AAt?$AAM?$AAa?$AAs?$AAk?$AA?5?$AA?$CI?$AAU?$AA?$CJ?$AA?5?$AA?5@|
  01ca0		 |$LN43@DumpDDPIXE|
  01ca0	00000000	 DCD         |??_C@_1FK@NEAHLJFB@?$AA?5?$AA?5?$AAD?$AAD?$AAP?$AAI?$AAX?$AAE?$AAL?$AAF?$AAO?$AAR?$AAM?$AAA?$AAT?$AA?5?$AAd?$AAw?$AAR?$AAB?$AAi?$AAt?$AAM?$AAa?$AAs?$AAk?$AA?5?$AA?$CI?$AAY?$AA?$CJ?$AA?5?$AA?5@|
  01ca4		 |$LN44@DumpDDPIXE|
  01ca4	00000000	 DCD         |??_C@_1FC@HEHDCKEI@?$AA?5?$AA?5?$AAD?$AAD?$AAP?$AAI?$AAX?$AAE?$AAL?$AAF?$AAO?$AAR?$AAM?$AAA?$AAT?$AA?5?$AAd?$AAw?$AAR?$AAG?$AAB?$AAB?$AAi?$AAt?$AAC?$AAo?$AAu?$AAn?$AAt?$AA?5?$AA?5?$AA?5@|
  01ca8		 |$LN45@DumpDDPIXE|
  01ca8	00000000	 DCD         |??_C@_1FG@MGBJIJCP@?$AA?5?$AA?5?$AAD?$AAD?$AAP?$AAI?$AAX?$AAE?$AAL?$AAF?$AAO?$AAR?$AAM?$AAA?$AAT?$AA?5?$AAd?$AAw?$AAF?$AAo?$AAu?$AAr?$AAC?$AAC?$AA?5?$AA?$DN?$AA?5?$AA0?$AAx?$AA?$CF?$AAx?$AA?5@|
  01cac		 |$LN46@DumpDDPIXE|
  01cac	00000000	 DCD         |??_C@_1DA@GJCFNHAF@?$AA?5?$AA?5?$AA?5?$AA?5?$AAD?$AAD?$AAP?$AAF?$AA_?$AAA?$AAL?$AAP?$AAH?$AAA?$AAP?$AAR?$AAE?$AAM?$AAU?$AAL?$AAT?$AA?$DL?$AA?5?$AA?$AA@|
  01cb0		 |$LN47@DumpDDPIXE|
  01cb0	00000000	 DCD         |??_C@_1BO@CFCKCGCK@?$AA?5?$AA?5?$AA?5?$AA?5?$AAD?$AAD?$AAP?$AAF?$AA_?$AAR?$AAG?$AAB?$AA?$DL?$AA?5?$AA?$AA@|
  01cb4		 |$LN48@DumpDDPIXE|
  01cb4	00000000	 DCD         |??_C@_1DE@NINPMJGN@?$AA?5?$AA?5?$AA?5?$AA?5?$AAD?$AAD?$AAP?$AAF?$AA_?$AAP?$AAA?$AAL?$AAE?$AAT?$AAT?$AAE?$AAI?$AAN?$AAD?$AAE?$AAX?$AAE?$AAD?$AA?$DL?$AA?5?$AA?$AA@|
  01cb8		 |$LN49@DumpDDPIXE|
  01cb8	00000000	 DCD         |??_C@_1CE@KKGOMBOM@?$AA?5?$AA?5?$AA?5?$AA?5?$AAD?$AAD?$AAP?$AAF?$AA_?$AAF?$AAO?$AAU?$AAR?$AAC?$AAC?$AA?$DL?$AA?5?$AA?$AA@|
  01cbc		 |$LN50@DumpDDPIXE|
  01cbc	00000000	 DCD         |??_C@_1CC@HIGEGJGL@?$AA?5?$AA?5?$AA?5?$AA?5?$AAD?$AAD?$AAP?$AAF?$AA_?$AAA?$AAL?$AAP?$AAH?$AAA?$AA?$DL?$AA?5?$AA?$AA@|
  01cc0		 |$LN51@DumpDDPIXE|
  01cc0	00000000	 DCD         |??_C@_1CO@DCDKMDAL@?$AA?5?$AA?5?$AA?5?$AA?5?$AAD?$AAD?$AAP?$AAF?$AA_?$AAA?$AAL?$AAP?$AAH?$AAA?$AAP?$AAI?$AAX?$AAE?$AAL?$AAS?$AA?$DL?$AA?5?$AA?$AA@|
  01cc4		 |$LN52@DumpDDPIXE|
  01cc4	00000000	 DCD         |??_C@_1EE@CGAHCANJ@?$AA?5?$AA?5?$AAD?$AAD?$AAP?$AAI?$AAX?$AAE?$AAL?$AAF?$AAO?$AAR?$AAM?$AAA?$AAT?$AA?5?$AAd?$AAw?$AAF?$AAl?$AAa?$AAg?$AAs?$AA?5?$AA?5?$AA?$DN?$AA?5?$AA0?$AAx?$AA?$CF?$AAx?$AA?$AN@|
  01cc8		 |$M42884|

			 ENDP  ; |?DumpDDPIXELFORMAT@@YAXU_DDPIXELFORMAT@@@Z|, DumpDDPIXELFORMAT

	EXPORT	|??_C@_1EA@HNIHCHDG@?$AA?5?$AA?5?$AAD?$AAD?$AAO?$AAV?$AAE?$AAR?$AAL?$AAA?$AAY?$AAF?$AAX?$AA?5?$AAd?$AAc?$AAk?$AAS?$AAr?$AAc?$AAC?$AAo?$AAl?$AAo?$AAr?$AAk?$AAe?$AAy?$AA?3?$AA?$AN?$AA?6?$AA?$AA@| [ DATA ] ; `string'
	EXPORT	|??_C@_1EC@NFODCNKE@?$AA?5?$AA?5?$AAD?$AAD?$AAO?$AAV?$AAE?$AAR?$AAL?$AAA?$AAY?$AAF?$AAX?$AA?5?$AAd?$AAc?$AAk?$AAD?$AAe?$AAs?$AAt?$AAC?$AAo?$AAl?$AAo?$AAr?$AAk?$AAe?$AAy?$AA?3?$AA?$AN?$AA?6@| [ DATA ] ; `string'
	EXPORT	|??_C@_1FK@KMBIKDDC@?$AA?5?$AA?5?$AAD?$AAD?$AAO?$AAV?$AAE?$AAR?$AAL?$AAA?$AAY?$AAF?$AAX?$AA?5?$AAd?$AAw?$AAA?$AAl?$AAp?$AAh?$AAa?$AAC?$AAo?$AAn?$AAs?$AAt?$AA?5?$AA?5?$AA?5?$AA?5?$AA?5?$AA?5@| [ DATA ] ; `string'
	EXPORT	|??_C@_1FK@LNPGLNMG@?$AA?5?$AA?5?$AAD?$AAD?$AAO?$AAV?$AAE?$AAR?$AAL?$AAA?$AAY?$AAF?$AAX?$AA?5?$AAd?$AAw?$AAA?$AAl?$AAp?$AAh?$AAa?$AAC?$AAo?$AAn?$AAs?$AAt?$AAB?$AAi?$AAt?$AAD?$AAe?$AAp@| [ DATA ] ; `string'

  00050			 AREA	 |.pdata|, PDATA
|$T42914| DCD	|$LN13@DumpDDOVER|
	DCD	0x40004004

  00000			 AREA	 |.rdata|, DATA, READONLY
|??_C@_1EA@HNIHCHDG@?$AA?5?$AA?5?$AAD?$AAD?$AAO?$AAV?$AAE?$AAR?$AAL?$AAA?$AAY?$AAF?$AAX?$AA?5?$AAd?$AAc?$AAk?$AAS?$AAr?$AAc?$AAC?$AAo?$AAl?$AAo?$AAr?$AAk?$AAe?$AAy?$AA?3?$AA?$AN?$AA?6?$AA?$AA@| DCB " "
	DCB	0x0, " ", 0x0, "D", 0x0, "D", 0x0, "O", 0x0, "V", 0x0, "E"
	DCB	0x0, "R", 0x0, "L", 0x0, "A", 0x0, "Y", 0x0, "F", 0x0, "X"
	DCB	0x0, " ", 0x0, "d", 0x0, "c", 0x0, "k", 0x0, "S", 0x0, "r"
	DCB	0x0, "c", 0x0, "C", 0x0, "o", 0x0, "l", 0x0, "o", 0x0, "r"
	DCB	0x0, "k", 0x0, "e", 0x0, "y", 0x0, ":", 0x0, 0xd, 0x0, 0xa
	DCB	0x0, 0x0, 0x0				; `string'

  00000			 AREA	 |.rdata|, DATA, READONLY
|??_C@_1EC@NFODCNKE@?$AA?5?$AA?5?$AAD?$AAD?$AAO?$AAV?$AAE?$AAR?$AAL?$AAA?$AAY?$AAF?$AAX?$AA?5?$AAd?$AAc?$AAk?$AAD?$AAe?$AAs?$AAt?$AAC?$AAo?$AAl?$AAo?$AAr?$AAk?$AAe?$AAy?$AA?3?$AA?$AN?$AA?6@| DCB " "
	DCB	0x0, " ", 0x0, "D", 0x0, "D", 0x0, "O", 0x0, "V", 0x0, "E"
	DCB	0x0, "R", 0x0, "L", 0x0, "A", 0x0, "Y", 0x0, "F", 0x0, "X"
	DCB	0x0, " ", 0x0, "d", 0x0, "c", 0x0, "k", 0x0, "D", 0x0, "e"
	DCB	0x0, "s", 0x0, "t", 0x0, "C", 0x0, "o", 0x0, "l", 0x0, "o"
	DCB	0x0, "r", 0x0, "k", 0x0, "e", 0x0, "y", 0x0, ":", 0x0, 0xd
	DCB	0x0, 0xa, 0x0, 0x0, 0x0			; `string'

  00000			 AREA	 |.rdata|, DATA, READONLY
|??_C@_1FK@KMBIKDDC@?$AA?5?$AA?5?$AAD?$AAD?$AAO?$AAV?$AAE?$AAR?$AAL?$AAA?$AAY?$AAF?$AAX?$AA?5?$AAd?$AAw?$AAA?$AAl?$AAp?$AAh?$AAa?$AAC?$AAo?$AAn?$AAs?$AAt?$AA?5?$AA?5?$AA?5?$AA?5?$AA?5?$AA?5@| DCB " "
	DCB	0x0, " ", 0x0, "D", 0x0, "D", 0x0, "O", 0x0, "V", 0x0, "E"
	DCB	0x0, "R", 0x0, "L", 0x0, "A", 0x0, "Y", 0x0, "F", 0x0, "X"
	DCB	0x0, " ", 0x0, "d", 0x0, "w", 0x0, "A", 0x0, "l", 0x0, "p"
	DCB	0x0, "h", 0x0, "a", 0x0, "C", 0x0, "o", 0x0, "n", 0x0, "s"
	DCB	0x0, "t", 0x0, " ", 0x0, " ", 0x0, " ", 0x0, " ", 0x0, " "
	DCB	0x0, " ", 0x0, " ", 0x0, " ", 0x0, " ", 0x0, " ", 0x0, "="
	DCB	0x0, " ", 0x0, "0", 0x0, "x", 0x0, "%", 0x0, "x", 0x0, 0xd
	DCB	0x0, 0xa, 0x0, 0x0, 0x0			; `string'

  00000			 AREA	 |.rdata|, DATA, READONLY
|??_C@_1FK@LNPGLNMG@?$AA?5?$AA?5?$AAD?$AAD?$AAO?$AAV?$AAE?$AAR?$AAL?$AAA?$AAY?$AAF?$AAX?$AA?5?$AAd?$AAw?$AAA?$AAl?$AAp?$AAh?$AAa?$AAC?$AAo?$AAn?$AAs?$AAt?$AAB?$AAi?$AAt?$AAD?$AAe?$AAp@| DCB " "
	DCB	0x0, " ", 0x0, "D", 0x0, "D", 0x0, "O", 0x0, "V", 0x0, "E"
	DCB	0x0, "R", 0x0, "L", 0x0, "A", 0x0, "Y", 0x0, "F", 0x0, "X"
	DCB	0x0, " ", 0x0, "d", 0x0, "w", 0x0, "A", 0x0, "l", 0x0, "p"
	DCB	0x0, "h", 0x0, "a", 0x0, "C", 0x0, "o", 0x0, "n", 0x0, "s"
	DCB	0x0, "t", 0x0, "B", 0x0, "i", 0x0, "t", 0x0, "D", 0x0, "e"
	DCB	0x0, "p", 0x0, "t", 0x0, "h", 0x0, " ", 0x0, " ", 0x0, "="
	DCB	0x0, " ", 0x0, "0", 0x0, "x", 0x0, "%", 0x0, "x", 0x0, 0xd
	DCB	0x0, 0xa, 0x0, 0x0, 0x0			; `string'
; Function compile flags: /Odtp

  01cc8			 AREA	 |.text|, CODE, ARM

  01cc8		 |?DumpDDOVERLAYFX@@YAXU_DDOVERLAYFX@@@Z| PROC ; DumpDDOVERLAYFX

; 315  : {

  01cc8		 |$LN13@DumpDDOVER|
  01cc8	e1a0c00d	 mov         r12, sp
  01ccc	e92d000f	 stmdb       sp!, {r0 - r3}
  01cd0	e92d5000	 stmdb       sp!, {r12, lr}
  01cd4	e24dd010	 sub         sp, sp, #0x10
  01cd8		 |$M42911|

; 316  :     DEBUGMSG(GPE_ZONE_DDRAW_HAL, (TEXT("  DDOVERLAYFX dwAlphaConstBitDepth  = 0x%x\r\n"), ddOverlayFX.dwAlphaConstBitDepth));

  01cd8	e59f30d8	 ldr         r3, [pc, #0xD8]
  01cdc	e5933440	 ldr         r3, [r3, #0x440]
  01ce0	e3130902	 tst         r3, #2, 18
  01ce4	0a000005	 beq         |$LN3@DumpDDOVER|
  01ce8	e59d101c	 ldr         r1, [sp, #0x1C]
  01cec	e59f00d0	 ldr         r0, [pc, #0xD0]
  01cf0	eb000000	 bl          NKDbgPrintfW
  01cf4	e3a03001	 mov         r3, #1
  01cf8	e58d3000	 str         r3, [sp]
  01cfc	ea000001	 b           |$LN4@DumpDDOVER|
  01d00		 |$LN3@DumpDDOVER|
  01d00	e3a03000	 mov         r3, #0
  01d04	e58d3000	 str         r3, [sp]
  01d08		 |$LN4@DumpDDOVER|

; 317  :     DEBUGMSG(GPE_ZONE_DDRAW_HAL, (TEXT("  DDOVERLAYFX dwAlphaConst          = 0x%x\r\n"), ddOverlayFX.dwAlphaConst));

  01d08	e59f30a8	 ldr         r3, [pc, #0xA8]
  01d0c	e5933440	 ldr         r3, [r3, #0x440]
  01d10	e3130902	 tst         r3, #2, 18
  01d14	0a000005	 beq         |$LN5@DumpDDOVER|
  01d18	e59d1020	 ldr         r1, [sp, #0x20]
  01d1c	e59f009c	 ldr         r0, [pc, #0x9C]
  01d20	eb000000	 bl          NKDbgPrintfW
  01d24	e3a03001	 mov         r3, #1
  01d28	e58d3004	 str         r3, [sp, #4]
  01d2c	ea000001	 b           |$LN6@DumpDDOVER|
  01d30		 |$LN5@DumpDDOVER|
  01d30	e3a03000	 mov         r3, #0
  01d34	e58d3004	 str         r3, [sp, #4]
  01d38		 |$LN6@DumpDDOVER|

; 318  : 
; 319  :     DEBUGMSG(GPE_ZONE_DDRAW_HAL, (TEXT("  DDOVERLAYFX dckDestColorkey:\r\n")));

  01d38	e59f3078	 ldr         r3, [pc, #0x78]
  01d3c	e5933440	 ldr         r3, [r3, #0x440]
  01d40	e3130902	 tst         r3, #2, 18
  01d44	0a000004	 beq         |$LN7@DumpDDOVER|
  01d48	e59f006c	 ldr         r0, [pc, #0x6C]
  01d4c	eb000000	 bl          NKDbgPrintfW
  01d50	e3a03001	 mov         r3, #1
  01d54	e58d3008	 str         r3, [sp, #8]
  01d58	ea000001	 b           |$LN8@DumpDDOVER|
  01d5c		 |$LN7@DumpDDOVER|
  01d5c	e3a03000	 mov         r3, #0
  01d60	e58d3008	 str         r3, [sp, #8]
  01d64		 |$LN8@DumpDDOVER|

; 320  :     DumpDDCOLORKEY(ddOverlayFX.dckDestColorkey);

  01d64	e59d0024	 ldr         r0, [sp, #0x24]
  01d68	e59d1028	 ldr         r1, [sp, #0x28]
  01d6c	eb000000	 bl          |?DumpDDCOLORKEY@@YAXU_DDCOLORKEY@@@Z|

; 321  : 
; 322  :     DEBUGMSG(GPE_ZONE_DDRAW_HAL, (TEXT("  DDOVERLAYFX dckSrcColorkey:\r\n")));

  01d70	e59f3040	 ldr         r3, [pc, #0x40]
  01d74	e5933440	 ldr         r3, [r3, #0x440]
  01d78	e3130902	 tst         r3, #2, 18
  01d7c	0a000004	 beq         |$LN9@DumpDDOVER|
  01d80	e59f002c	 ldr         r0, [pc, #0x2C]
  01d84	eb000000	 bl          NKDbgPrintfW
  01d88	e3a03001	 mov         r3, #1
  01d8c	e58d300c	 str         r3, [sp, #0xC]
  01d90	ea000001	 b           |$LN10@DumpDDOVER|
  01d94		 |$LN9@DumpDDOVER|
  01d94	e3a03000	 mov         r3, #0
  01d98	e58d300c	 str         r3, [sp, #0xC]
  01d9c		 |$LN10@DumpDDOVER|

; 323  :     DumpDDCOLORKEY(ddOverlayFX.dckSrcColorkey);

  01d9c	e59d002c	 ldr         r0, [sp, #0x2C]
  01da0	e59d1030	 ldr         r1, [sp, #0x30]
  01da4	eb000000	 bl          |?DumpDDCOLORKEY@@YAXU_DDCOLORKEY@@@Z|

; 324  : }

  01da8	e28dd010	 add         sp, sp, #0x10
  01dac	e89d6000	 ldmia       sp, {sp, lr}
  01db0	e12fff1e	 bx          lr
  01db4		 |$LN14@DumpDDOVER|
  01db4		 |$LN15@DumpDDOVER|
  01db4	00000000	 DCD         |??_C@_1EA@HNIHCHDG@?$AA?5?$AA?5?$AAD?$AAD?$AAO?$AAV?$AAE?$AAR?$AAL?$AAA?$AAY?$AAF?$AAX?$AA?5?$AAd?$AAc?$AAk?$AAS?$AAr?$AAc?$AAC?$AAo?$AAl?$AAo?$AAr?$AAk?$AAe?$AAy?$AA?3?$AA?$AN?$AA?6?$AA?$AA@|
  01db8		 |$LN16@DumpDDOVER|
  01db8	00000000	 DCD         |dpCurSettings|
  01dbc		 |$LN17@DumpDDOVER|
  01dbc	00000000	 DCD         |??_C@_1EC@NFODCNKE@?$AA?5?$AA?5?$AAD?$AAD?$AAO?$AAV?$AAE?$AAR?$AAL?$AAA?$AAY?$AAF?$AAX?$AA?5?$AAd?$AAc?$AAk?$AAD?$AAe?$AAs?$AAt?$AAC?$AAo?$AAl?$AAo?$AAr?$AAk?$AAe?$AAy?$AA?3?$AA?$AN?$AA?6@|
  01dc0		 |$LN18@DumpDDOVER|
  01dc0	00000000	 DCD         |??_C@_1FK@KMBIKDDC@?$AA?5?$AA?5?$AAD?$AAD?$AAO?$AAV?$AAE?$AAR?$AAL?$AAA?$AAY?$AAF?$AAX?$AA?5?$AAd?$AAw?$AAA?$AAl?$AAp?$AAh?$AAa?$AAC?$AAo?$AAn?$AAs?$AAt?$AA?5?$AA?5?$AA?5?$AA?5?$AA?5?$AA?5@|
  01dc4		 |$LN19@DumpDDOVER|
  01dc4	00000000	 DCD         |??_C@_1FK@LNPGLNMG@?$AA?5?$AA?5?$AAD?$AAD?$AAO?$AAV?$AAE?$AAR?$AAL?$AAA?$AAY?$AAF?$AAX?$AA?5?$AAd?$AAw?$AAA?$AAl?$AAp?$AAh?$AAa?$AAC?$AAo?$AAn?$AAs?$AAt?$AAB?$AAi?$AAt?$AAD?$AAe?$AAp@|
  01dc8		 |$M42912|

			 ENDP  ; |?DumpDDOVERLAYFX@@YAXU_DDOVERLAYFX@@@Z|, DumpDDOVERLAYFX

	EXPORT	|??_C@_1EA@NOMCOIAO@?$AA?5?$AA?5?$AAD?$AAD?$AAC?$AAO?$AAL?$AAO?$AAR?$AAK?$AAE?$AAY?$AA?5?$AAd?$AAw?$AAH?$AAi?$AAg?$AAh?$AAV?$AAa?$AAl?$AA?5?$AA?$DN?$AA?5?$AA0?$AAx?$AA?$CF?$AAx?$AA?$AN?$AA?6?$AA?$AA@| [ DATA ] ; `string'
	EXPORT	|??_C@_1EA@LIFNNCND@?$AA?5?$AA?5?$AAD?$AAD?$AAC?$AAO?$AAL?$AAO?$AAR?$AAK?$AAE?$AAY?$AA?5?$AAd?$AAw?$AAL?$AAo?$AAw?$AAV?$AAa?$AAl?$AA?5?$AA?5?$AA?$DN?$AA?5?$AA0?$AAx?$AA?$CF?$AAx?$AA?$AN?$AA?6?$AA?$AA@| [ DATA ] ; `string'

  00058			 AREA	 |.pdata|, PDATA
|$T42929| DCD	|$LN9@DumpDDCOLO|
	DCD	0x40002204

  00000			 AREA	 |.rdata|, DATA, READONLY
|??_C@_1EA@NOMCOIAO@?$AA?5?$AA?5?$AAD?$AAD?$AAC?$AAO?$AAL?$AAO?$AAR?$AAK?$AAE?$AAY?$AA?5?$AAd?$AAw?$AAH?$AAi?$AAg?$AAh?$AAV?$AAa?$AAl?$AA?5?$AA?$DN?$AA?5?$AA0?$AAx?$AA?$CF?$AAx?$AA?$AN?$AA?6?$AA?$AA@| DCB " "
	DCB	0x0, " ", 0x0, "D", 0x0, "D", 0x0, "C", 0x0, "O", 0x0, "L"
	DCB	0x0, "O", 0x0, "R", 0x0, "K", 0x0, "E", 0x0, "Y", 0x0, " "
	DCB	0x0, "d", 0x0, "w", 0x0, "H", 0x0, "i", 0x0, "g", 0x0, "h"
	DCB	0x0, "V", 0x0, "a", 0x0, "l", 0x0, " ", 0x0, "=", 0x0, " "
	DCB	0x0, "0", 0x0, "x", 0x0, "%", 0x0, "x", 0x0, 0xd, 0x0, 0xa
	DCB	0x0, 0x0, 0x0				; `string'

  00000			 AREA	 |.rdata|, DATA, READONLY
|??_C@_1EA@LIFNNCND@?$AA?5?$AA?5?$AAD?$AAD?$AAC?$AAO?$AAL?$AAO?$AAR?$AAK?$AAE?$AAY?$AA?5?$AAd?$AAw?$AAL?$AAo?$AAw?$AAV?$AAa?$AAl?$AA?5?$AA?5?$AA?$DN?$AA?5?$AA0?$AAx?$AA?$CF?$AAx?$AA?$AN?$AA?6?$AA?$AA@| DCB " "
	DCB	0x0, " ", 0x0, "D", 0x0, "D", 0x0, "C", 0x0, "O", 0x0, "L"
	DCB	0x0, "O", 0x0, "R", 0x0, "K", 0x0, "E", 0x0, "Y", 0x0, " "
	DCB	0x0, "d", 0x0, "w", 0x0, "L", 0x0, "o", 0x0, "w", 0x0, "V"
	DCB	0x0, "a", 0x0, "l", 0x0, " ", 0x0, " ", 0x0, "=", 0x0, " "
	DCB	0x0, "0", 0x0, "x", 0x0, "%", 0x0, "x", 0x0, 0xd, 0x0, 0xa
	DCB	0x0, 0x0, 0x0				; `string'
; Function compile flags: /Odtp

  01dc8			 AREA	 |.text|, CODE, ARM

  01dc8		 |?DumpDDCOLORKEY@@YAXU_DDCOLORKEY@@@Z| PROC ; DumpDDCOLORKEY

; 331  : {

  01dc8		 |$LN9@DumpDDCOLO|
  01dc8	e1a0c00d	 mov         r12, sp
  01dcc	e92d0003	 stmdb       sp!, {r0, r1}
  01dd0	e92d5000	 stmdb       sp!, {r12, lr}
  01dd4	e24dd008	 sub         sp, sp, #8
  01dd8		 |$M42926|

; 332  :     DEBUGMSG(GPE_ZONE_DDRAW_HAL, (TEXT("  DDCOLORKEY dwLowVal  = 0x%x\r\n"), ddColorKey.dwColorSpaceLowValue));

  01dd8	e59f3068	 ldr         r3, [pc, #0x68]
  01ddc	e5933440	 ldr         r3, [r3, #0x440]
  01de0	e3130902	 tst         r3, #2, 18
  01de4	0a000005	 beq         |$LN3@DumpDDCOLO|
  01de8	e59d1010	 ldr         r1, [sp, #0x10]
  01dec	e59f0058	 ldr         r0, [pc, #0x58]
  01df0	eb000000	 bl          NKDbgPrintfW
  01df4	e3a03001	 mov         r3, #1
  01df8	e58d3000	 str         r3, [sp]
  01dfc	ea000001	 b           |$LN4@DumpDDCOLO|
  01e00		 |$LN3@DumpDDCOLO|
  01e00	e3a03000	 mov         r3, #0
  01e04	e58d3000	 str         r3, [sp]
  01e08		 |$LN4@DumpDDCOLO|

; 333  :     DEBUGMSG(GPE_ZONE_DDRAW_HAL, (TEXT("  DDCOLORKEY dwHighVal = 0x%x\r\n"), ddColorKey.dwColorSpaceHighValue));

  01e08	e59f3038	 ldr         r3, [pc, #0x38]
  01e0c	e5933440	 ldr         r3, [r3, #0x440]
  01e10	e3130902	 tst         r3, #2, 18
  01e14	0a000005	 beq         |$LN5@DumpDDCOLO|
  01e18	e59d1014	 ldr         r1, [sp, #0x14]
  01e1c	e59f0020	 ldr         r0, [pc, #0x20]
  01e20	eb000000	 bl          NKDbgPrintfW
  01e24	e3a03001	 mov         r3, #1
  01e28	e58d3004	 str         r3, [sp, #4]
  01e2c	ea000001	 b           |$LN6@DumpDDCOLO|
  01e30		 |$LN5@DumpDDCOLO|
  01e30	e3a03000	 mov         r3, #0
  01e34	e58d3004	 str         r3, [sp, #4]
  01e38		 |$LN6@DumpDDCOLO|

; 334  : }

  01e38	e28dd008	 add         sp, sp, #8
  01e3c	e89d6000	 ldmia       sp, {sp, lr}
  01e40	e12fff1e	 bx          lr
  01e44		 |$LN10@DumpDDCOLO|
  01e44		 |$LN11@DumpDDCOLO|
  01e44	00000000	 DCD         |??_C@_1EA@NOMCOIAO@?$AA?5?$AA?5?$AAD?$AAD?$AAC?$AAO?$AAL?$AAO?$AAR?$AAK?$AAE?$AAY?$AA?5?$AAd?$AAw?$AAH?$AAi?$AAg?$AAh?$AAV?$AAa?$AAl?$AA?5?$AA?$DN?$AA?5?$AA0?$AAx?$AA?$CF?$AAx?$AA?$AN?$AA?6?$AA?$AA@|
  01e48		 |$LN12@DumpDDCOLO|
  01e48	00000000	 DCD         |dpCurSettings|
  01e4c		 |$LN13@DumpDDCOLO|
  01e4c	00000000	 DCD         |??_C@_1EA@LIFNNCND@?$AA?5?$AA?5?$AAD?$AAD?$AAC?$AAO?$AAL?$AAO?$AAR?$AAK?$AAE?$AAY?$AA?5?$AAd?$AAw?$AAL?$AAo?$AAw?$AAV?$AAa?$AAl?$AA?5?$AA?5?$AA?$DN?$AA?5?$AA0?$AAx?$AA?$CF?$AAx?$AA?$AN?$AA?6?$AA?$AA@|
  01e50		 |$M42927|

			 ENDP  ; |?DumpDDCOLORKEY@@YAXU_DDCOLORKEY@@@Z|, DumpDDCOLORKEY

	EXPORT	|??_C@_1CI@LKNJGHLM@?$AA?5?$AA?5?$AAD?$AAD?$AAS?$AAC?$AAA?$AAP?$AAS?$AA_?$AAD?$AAY?$AAN?$AAA?$AAM?$AAI?$AAC?$AA?$DL?$AA?5?$AA?$AA@| [ DATA ] ; `string'
	EXPORT	|??_C@_1DI@DMBJKNLC@?$AA?5?$AA?5?$AAD?$AAD?$AAS?$AAC?$AAA?$AAP?$AAS?$AA_?$AAN?$AAO?$AAT?$AAU?$AAS?$AAE?$AAR?$AAL?$AAO?$AAC?$AAK?$AAA?$AAB?$AAL?$AAE?$AA?$DL?$AA?5?$AA?$AA@| [ DATA ] ; `string'
	EXPORT	|??_C@_1EA@OAKLEHDL@?$AA?5?$AA?5?$AAD?$AAD?$AAS?$AAC?$AAA?$AAP?$AAS?$AA_?$AAH?$AAA?$AAR?$AAD?$AAW?$AAA?$AAR?$AAE?$AAD?$AAE?$AAI?$AAN?$AAT?$AAE?$AAR?$AAL?$AAA?$AAC?$AAE?$AA?$DL?$AA?5?$AA?$AA@| [ DATA ] ; `string'
	EXPORT	|??_C@_1CK@MAGGNMOI@?$AA?5?$AA?5?$AAD?$AAD?$AAS?$AAC?$AAA?$AAP?$AAS?$AA_?$AAR?$AAE?$AAA?$AAD?$AAO?$AAN?$AAL?$AAY?$AA?$DL?$AA?5?$AA?$AA@| [ DATA ] ; `string'
	EXPORT	|??_C@_1CM@LDEBMFEG@?$AA?5?$AA?5?$AAD?$AAD?$AAS?$AAC?$AAA?$AAP?$AAS?$AA_?$AAV?$AAI?$AAD?$AAE?$AAO?$AAP?$AAO?$AAR?$AAT?$AA?$DL?$AA?5?$AA?$AA@| [ DATA ] ; `string'
	EXPORT	|??_C@_1CM@JBFKFHGH@?$AA?5?$AA?5?$AAD?$AAD?$AAS?$AAC?$AAA?$AAP?$AAS?$AA_?$AAW?$AAR?$AAI?$AAT?$AAE?$AAO?$AAN?$AAL?$AAY?$AA?$DL?$AA?5?$AA?$AA@| [ DATA ] ; `string'
	EXPORT	|??_C@_1CI@DGICKLBO@?$AA?5?$AA?5?$AAD?$AAD?$AAS?$AAC?$AAA?$AAP?$AAS?$AA_?$AAP?$AAA?$AAL?$AAE?$AAT?$AAT?$AAE?$AA?$DL?$AA?5?$AA?$AA@| [ DATA ] ; `string'
	EXPORT	|??_C@_1CC@OKPAOFJI@?$AA?5?$AA?5?$AAD?$AAD?$AAS?$AAC?$AAA?$AAP?$AAS?$AA_?$AAF?$AAL?$AAI?$AAP?$AA?$DL?$AA?5?$AA?$AA@| [ DATA ] ; `string'
	EXPORT	|??_C@_1CE@MFHKMCCP@?$AA?5?$AA?5?$AAD?$AAD?$AAS?$AAC?$AAA?$AAP?$AAS?$AA_?$AAA?$AAL?$AAP?$AAH?$AAA?$AA?$DL?$AA?5?$AA?$AA@| [ DATA ] ; `string'
	EXPORT	|??_C@_1DC@FLAGKI@?$AA?5?$AA?5?$AAD?$AAD?$AAS?$AAC?$AAA?$AAP?$AAS?$AA_?$AAS?$AAY?$AAS?$AAT?$AAE?$AAM?$AAM?$AAE?$AAM?$AAO?$AAR?$AAY?$AA?$DL?$AA?5?$AA?$AA@| [ DATA ] ; `string'
	EXPORT	|??_C@_1DA@KGGENKNO@?$AA?5?$AA?5?$AAD?$AAD?$AAS?$AAC?$AAA?$AAP?$AAS?$AA_?$AAV?$AAI?$AAD?$AAE?$AAO?$AAM?$AAE?$AAM?$AAO?$AAR?$AAY?$AA?$DL?$AA?5?$AA?$AA@| [ DATA ] ; `string'
	EXPORT	|??_C@_1DG@ICFILOJO@?$AA?5?$AA?5?$AAD?$AAD?$AAS?$AAC?$AAA?$AAP?$AAS?$AA_?$AAP?$AAR?$AAI?$AAM?$AAA?$AAR?$AAY?$AAS?$AAU?$AAR?$AAF?$AAA?$AAC?$AAE?$AA?$DL?$AA?5?$AA?$AA@| [ DATA ] ; `string'
	EXPORT	|??_C@_1CO@IFJGNONM@?$AA?5?$AA?5?$AAD?$AAD?$AAS?$AAC?$AAA?$AAP?$AAS?$AA_?$AAB?$AAA?$AAC?$AAK?$AAB?$AAU?$AAF?$AAF?$AAE?$AAR?$AA?$DL?$AA?5?$AA?$AA@| [ DATA ] ; `string'
	EXPORT	|??_C@_1DA@DCFKKDPE@?$AA?5?$AA?5?$AAD?$AAD?$AAS?$AAC?$AAA?$AAP?$AAS?$AA_?$AAF?$AAR?$AAO?$AAN?$AAT?$AAB?$AAU?$AAF?$AAF?$AAE?$AAR?$AA?$DL?$AA?5?$AA?$AA@| [ DATA ] ; `string'
	EXPORT	|??_C@_1CI@FLNFELNO@?$AA?5?$AA?5?$AAD?$AAD?$AAS?$AAC?$AAA?$AAP?$AAS?$AA_?$AAO?$AAV?$AAE?$AAR?$AAL?$AAA?$AAY?$AA?$DL?$AA?5?$AA?$AA@| [ DATA ] ; `string'

  00060			 AREA	 |.pdata|, PDATA
|$T42968| DCD	|$LN50@DumpDDSCAP|
	DCD	0x4000e904

  00000			 AREA	 |.rdata|, DATA, READONLY
|??_C@_1CI@LKNJGHLM@?$AA?5?$AA?5?$AAD?$AAD?$AAS?$AAC?$AAA?$AAP?$AAS?$AA_?$AAD?$AAY?$AAN?$AAA?$AAM?$AAI?$AAC?$AA?$DL?$AA?5?$AA?$AA@| DCB " "
	DCB	0x0, " ", 0x0, "D", 0x0, "D", 0x0, "S", 0x0, "C", 0x0, "A"
	DCB	0x0, "P", 0x0, "S", 0x0, "_", 0x0, "D", 0x0, "Y", 0x0, "N"
	DCB	0x0, "A", 0x0, "M", 0x0, "I", 0x0, "C", 0x0, ";", 0x0, " "
	DCB	0x0, 0x0, 0x0				; `string'

  00000			 AREA	 |.rdata|, DATA, READONLY
|??_C@_1DI@DMBJKNLC@?$AA?5?$AA?5?$AAD?$AAD?$AAS?$AAC?$AAA?$AAP?$AAS?$AA_?$AAN?$AAO?$AAT?$AAU?$AAS?$AAE?$AAR?$AAL?$AAO?$AAC?$AAK?$AAA?$AAB?$AAL?$AAE?$AA?$DL?$AA?5?$AA?$AA@| DCB " "
	DCB	0x0, " ", 0x0, "D", 0x0, "D", 0x0, "S", 0x0, "C", 0x0, "A"
	DCB	0x0, "P", 0x0, "S", 0x0, "_", 0x0, "N", 0x0, "O", 0x0, "T"
	DCB	0x0, "U", 0x0, "S", 0x0, "E", 0x0, "R", 0x0, "L", 0x0, "O"
	DCB	0x0, "C", 0x0, "K", 0x0, "A", 0x0, "B", 0x0, "L", 0x0, "E"
	DCB	0x0, ";", 0x0, " ", 0x0, 0x0, 0x0	; `string'

  00000			 AREA	 |.rdata|, DATA, READONLY
|??_C@_1EA@OAKLEHDL@?$AA?5?$AA?5?$AAD?$AAD?$AAS?$AAC?$AAA?$AAP?$AAS?$AA_?$AAH?$AAA?$AAR?$AAD?$AAW?$AAA?$AAR?$AAE?$AAD?$AAE?$AAI?$AAN?$AAT?$AAE?$AAR?$AAL?$AAA?$AAC?$AAE?$AA?$DL?$AA?5?$AA?$AA@| DCB " "
	DCB	0x0, " ", 0x0, "D", 0x0, "D", 0x0, "S", 0x0, "C", 0x0, "A"
	DCB	0x0, "P", 0x0, "S", 0x0, "_", 0x0, "H", 0x0, "A", 0x0, "R"
	DCB	0x0, "D", 0x0, "W", 0x0, "A", 0x0, "R", 0x0, "E", 0x0, "D"
	DCB	0x0, "E", 0x0, "I", 0x0, "N", 0x0, "T", 0x0, "E", 0x0, "R"
	DCB	0x0, "L", 0x0, "A", 0x0, "C", 0x0, "E", 0x0, ";", 0x0, " "
	DCB	0x0, 0x0, 0x0				; `string'

  00000			 AREA	 |.rdata|, DATA, READONLY
|??_C@_1CK@MAGGNMOI@?$AA?5?$AA?5?$AAD?$AAD?$AAS?$AAC?$AAA?$AAP?$AAS?$AA_?$AAR?$AAE?$AAA?$AAD?$AAO?$AAN?$AAL?$AAY?$AA?$DL?$AA?5?$AA?$AA@| DCB " "
	DCB	0x0, " ", 0x0, "D", 0x0, "D", 0x0, "S", 0x0, "C", 0x0, "A"
	DCB	0x0, "P", 0x0, "S", 0x0, "_", 0x0, "R", 0x0, "E", 0x0, "A"
	DCB	0x0, "D", 0x0, "O", 0x0, "N", 0x0, "L", 0x0, "Y", 0x0, ";"
	DCB	0x0, " ", 0x0, 0x0, 0x0			; `string'

  00000			 AREA	 |.rdata|, DATA, READONLY
|??_C@_1CM@LDEBMFEG@?$AA?5?$AA?5?$AAD?$AAD?$AAS?$AAC?$AAA?$AAP?$AAS?$AA_?$AAV?$AAI?$AAD?$AAE?$AAO?$AAP?$AAO?$AAR?$AAT?$AA?$DL?$AA?5?$AA?$AA@| DCB " "
	DCB	0x0, " ", 0x0, "D", 0x0, "D", 0x0, "S", 0x0, "C", 0x0, "A"
	DCB	0x0, "P", 0x0, "S", 0x0, "_", 0x0, "V", 0x0, "I", 0x0, "D"
	DCB	0x0, "E", 0x0, "O", 0x0, "P", 0x0, "O", 0x0, "R", 0x0, "T"
	DCB	0x0, ";", 0x0, " ", 0x0, 0x0, 0x0	; `string'

  00000			 AREA	 |.rdata|, DATA, READONLY
|??_C@_1CM@JBFKFHGH@?$AA?5?$AA?5?$AAD?$AAD?$AAS?$AAC?$AAA?$AAP?$AAS?$AA_?$AAW?$AAR?$AAI?$AAT?$AAE?$AAO?$AAN?$AAL?$AAY?$AA?$DL?$AA?5?$AA?$AA@| DCB " "
	DCB	0x0, " ", 0x0, "D", 0x0, "D", 0x0, "S", 0x0, "C", 0x0, "A"
	DCB	0x0, "P", 0x0, "S", 0x0, "_", 0x0, "W", 0x0, "R", 0x0, "I"
	DCB	0x0, "T", 0x0, "E", 0x0, "O", 0x0, "N", 0x0, "L", 0x0, "Y"
	DCB	0x0, ";", 0x0, " ", 0x0, 0x0, 0x0	; `string'

  00000			 AREA	 |.rdata|, DATA, READONLY
|??_C@_1CI@DGICKLBO@?$AA?5?$AA?5?$AAD?$AAD?$AAS?$AAC?$AAA?$AAP?$AAS?$AA_?$AAP?$AAA?$AAL?$AAE?$AAT?$AAT?$AAE?$AA?$DL?$AA?5?$AA?$AA@| DCB " "
	DCB	0x0, " ", 0x0, "D", 0x0, "D", 0x0, "S", 0x0, "C", 0x0, "A"
	DCB	0x0, "P", 0x0, "S", 0x0, "_", 0x0, "P", 0x0, "A", 0x0, "L"
	DCB	0x0, "E", 0x0, "T", 0x0, "T", 0x0, "E", 0x0, ";", 0x0, " "
	DCB	0x0, 0x0, 0x0				; `string'

  00000			 AREA	 |.rdata|, DATA, READONLY
|??_C@_1CC@OKPAOFJI@?$AA?5?$AA?5?$AAD?$AAD?$AAS?$AAC?$AAA?$AAP?$AAS?$AA_?$AAF?$AAL?$AAI?$AAP?$AA?$DL?$AA?5?$AA?$AA@| DCB " "
	DCB	0x0, " ", 0x0, "D", 0x0, "D", 0x0, "S", 0x0, "C", 0x0, "A"
	DCB	0x0, "P", 0x0, "S", 0x0, "_", 0x0, "F", 0x0, "L", 0x0, "I"
	DCB	0x0, "P", 0x0, ";", 0x0, " ", 0x0, 0x0, 0x0 ; `string'

  00000			 AREA	 |.rdata|, DATA, READONLY
|??_C@_1CE@MFHKMCCP@?$AA?5?$AA?5?$AAD?$AAD?$AAS?$AAC?$AAA?$AAP?$AAS?$AA_?$AAA?$AAL?$AAP?$AAH?$AAA?$AA?$DL?$AA?5?$AA?$AA@| DCB " "
	DCB	0x0, " ", 0x0, "D", 0x0, "D", 0x0, "S", 0x0, "C", 0x0, "A"
	DCB	0x0, "P", 0x0, "S", 0x0, "_", 0x0, "A", 0x0, "L", 0x0, "P"
	DCB	0x0, "H", 0x0, "A", 0x0, ";", 0x0, " ", 0x0, 0x0, 0x0 ; `string'

  00000			 AREA	 |.rdata|, DATA, READONLY
|??_C@_1DC@FLAGKI@?$AA?5?$AA?5?$AAD?$AAD?$AAS?$AAC?$AAA?$AAP?$AAS?$AA_?$AAS?$AAY?$AAS?$AAT?$AAE?$AAM?$AAM?$AAE?$AAM?$AAO?$AAR?$AAY?$AA?$DL?$AA?5?$AA?$AA@| DCB " "
	DCB	0x0, " ", 0x0, "D", 0x0, "D", 0x0, "S", 0x0, "C", 0x0, "A"
	DCB	0x0, "P", 0x0, "S", 0x0, "_", 0x0, "S", 0x0, "Y", 0x0, "S"
	DCB	0x0, "T", 0x0, "E", 0x0, "M", 0x0, "M", 0x0, "E", 0x0, "M"
	DCB	0x0, "O", 0x0, "R", 0x0, "Y", 0x0, ";", 0x0, " ", 0x0, 0x0
	DCB	0x0					; `string'

  00000			 AREA	 |.rdata|, DATA, READONLY
|??_C@_1DA@KGGENKNO@?$AA?5?$AA?5?$AAD?$AAD?$AAS?$AAC?$AAA?$AAP?$AAS?$AA_?$AAV?$AAI?$AAD?$AAE?$AAO?$AAM?$AAE?$AAM?$AAO?$AAR?$AAY?$AA?$DL?$AA?5?$AA?$AA@| DCB " "
	DCB	0x0, " ", 0x0, "D", 0x0, "D", 0x0, "S", 0x0, "C", 0x0, "A"
	DCB	0x0, "P", 0x0, "S", 0x0, "_", 0x0, "V", 0x0, "I", 0x0, "D"
	DCB	0x0, "E", 0x0, "O", 0x0, "M", 0x0, "E", 0x0, "M", 0x0, "O"
	DCB	0x0, "R", 0x0, "Y", 0x0, ";", 0x0, " ", 0x0, 0x0, 0x0 ; `string'

  00000			 AREA	 |.rdata|, DATA, READONLY
|??_C@_1DG@ICFILOJO@?$AA?5?$AA?5?$AAD?$AAD?$AAS?$AAC?$AAA?$AAP?$AAS?$AA_?$AAP?$AAR?$AAI?$AAM?$AAA?$AAR?$AAY?$AAS?$AAU?$AAR?$AAF?$AAA?$AAC?$AAE?$AA?$DL?$AA?5?$AA?$AA@| DCB " "
	DCB	0x0, " ", 0x0, "D", 0x0, "D", 0x0, "S", 0x0, "C", 0x0, "A"
	DCB	0x0, "P", 0x0, "S", 0x0, "_", 0x0, "P", 0x0, "R", 0x0, "I"
	DCB	0x0, "M", 0x0, "A", 0x0, "R", 0x0, "Y", 0x0, "S", 0x0, "U"
	DCB	0x0, "R", 0x0, "F", 0x0, "A", 0x0, "C", 0x0, "E", 0x0, ";"
	DCB	0x0, " ", 0x0, 0x0, 0x0			; `string'

  00000			 AREA	 |.rdata|, DATA, READONLY
|??_C@_1CO@IFJGNONM@?$AA?5?$AA?5?$AAD?$AAD?$AAS?$AAC?$AAA?$AAP?$AAS?$AA_?$AAB?$AAA?$AAC?$AAK?$AAB?$AAU?$AAF?$AAF?$AAE?$AAR?$AA?$DL?$AA?5?$AA?$AA@| DCB " "
	DCB	0x0, " ", 0x0, "D", 0x0, "D", 0x0, "S", 0x0, "C", 0x0, "A"
	DCB	0x0, "P", 0x0, "S", 0x0, "_", 0x0, "B", 0x0, "A", 0x0, "C"
	DCB	0x0, "K", 0x0, "B", 0x0, "U", 0x0, "F", 0x0, "F", 0x0, "E"
	DCB	0x0, "R", 0x0, ";", 0x0, " ", 0x0, 0x0, 0x0 ; `string'

  00000			 AREA	 |.rdata|, DATA, READONLY
|??_C@_1DA@DCFKKDPE@?$AA?5?$AA?5?$AAD?$AAD?$AAS?$AAC?$AAA?$AAP?$AAS?$AA_?$AAF?$AAR?$AAO?$AAN?$AAT?$AAB?$AAU?$AAF?$AAF?$AAE?$AAR?$AA?$DL?$AA?5?$AA?$AA@| DCB " "
	DCB	0x0, " ", 0x0, "D", 0x0, "D", 0x0, "S", 0x0, "C", 0x0, "A"
	DCB	0x0, "P", 0x0, "S", 0x0, "_", 0x0, "F", 0x0, "R", 0x0, "O"
	DCB	0x0, "N", 0x0, "T", 0x0, "B", 0x0, "U", 0x0, "F", 0x0, "F"
	DCB	0x0, "E", 0x0, "R", 0x0, ";", 0x0, " ", 0x0, 0x0, 0x0 ; `string'

  00000			 AREA	 |.rdata|, DATA, READONLY
|??_C@_1CI@FLNFELNO@?$AA?5?$AA?5?$AAD?$AAD?$AAS?$AAC?$AAA?$AAP?$AAS?$AA_?$AAO?$AAV?$AAE?$AAR?$AAL?$AAA?$AAY?$AA?$DL?$AA?5?$AA?$AA@| DCB " "
	DCB	0x0, " ", 0x0, "D", 0x0, "D", 0x0, "S", 0x0, "C", 0x0, "A"
	DCB	0x0, "P", 0x0, "S", 0x0, "_", 0x0, "O", 0x0, "V", 0x0, "E"
	DCB	0x0, "R", 0x0, "L", 0x0, "A", 0x0, "Y", 0x0, ";", 0x0, " "
	DCB	0x0, 0x0, 0x0				; `string'
; Function compile flags: /Odtp

  01e50			 AREA	 |.text|, CODE, ARM

  01e50		 |?DumpDDSCAPS@@YAXU_DDSCAPS@@@Z| PROC	; DumpDDSCAPS

; 341  : {

  01e50		 |$LN50@DumpDDSCAP|
  01e50	e1a0c00d	 mov         r12, sp
  01e54	e92d0001	 stmdb       sp!, {r0}
  01e58	e92d5000	 stmdb       sp!, {r12, lr}
  01e5c	e24dd03c	 sub         sp, sp, #0x3C
  01e60		 |$M42965|

; 342  :     if( ddsCaps.dwCaps & DDSCAPS_OVERLAY )

  01e60	e59d3044	 ldr         r3, [sp, #0x44]
  01e64	e3130010	 tst         r3, #0x10
  01e68	0a00000a	 beq         |$LN15@DumpDDSCAP|

; 343  :         DEBUGMSG(GPE_ZONE_DDRAW_HAL, (TEXT("  DDSCAPS_OVERLAY; ")));

  01e6c	e59f3344	 ldr         r3, [pc, #0x344]
  01e70	e5933440	 ldr         r3, [r3, #0x440]
  01e74	e3130902	 tst         r3, #2, 18
  01e78	0a000004	 beq         |$LN18@DumpDDSCAP|
  01e7c	e59f036c	 ldr         r0, [pc, #0x36C]
  01e80	eb000000	 bl          NKDbgPrintfW
  01e84	e3a03001	 mov         r3, #1
  01e88	e58d3000	 str         r3, [sp]
  01e8c	ea000001	 b           |$LN19@DumpDDSCAP|
  01e90		 |$LN18@DumpDDSCAP|
  01e90	e3a03000	 mov         r3, #0
  01e94	e58d3000	 str         r3, [sp]
  01e98		 |$LN19@DumpDDSCAP|
  01e98		 |$LN15@DumpDDSCAP|

; 344  :     if( ddsCaps.dwCaps & DDSCAPS_FRONTBUFFER )

  01e98	e59d3044	 ldr         r3, [sp, #0x44]
  01e9c	e3130008	 tst         r3, #8
  01ea0	0a00000a	 beq         |$LN14@DumpDDSCAP|

; 345  :         DEBUGMSG(GPE_ZONE_DDRAW_HAL, (TEXT("  DDSCAPS_FRONTBUFFER; ")));

  01ea4	e59f330c	 ldr         r3, [pc, #0x30C]
  01ea8	e5933440	 ldr         r3, [r3, #0x440]
  01eac	e3130902	 tst         r3, #2, 18
  01eb0	0a000004	 beq         |$LN20@DumpDDSCAP|
  01eb4	e59f0330	 ldr         r0, [pc, #0x330]
  01eb8	eb000000	 bl          NKDbgPrintfW
  01ebc	e3a03001	 mov         r3, #1
  01ec0	e58d3004	 str         r3, [sp, #4]
  01ec4	ea000001	 b           |$LN21@DumpDDSCAP|
  01ec8		 |$LN20@DumpDDSCAP|
  01ec8	e3a03000	 mov         r3, #0
  01ecc	e58d3004	 str         r3, [sp, #4]
  01ed0		 |$LN21@DumpDDSCAP|
  01ed0		 |$LN14@DumpDDSCAP|

; 346  :     if( ddsCaps.dwCaps & DDSCAPS_BACKBUFFER )

  01ed0	e59d3044	 ldr         r3, [sp, #0x44]
  01ed4	e3130002	 tst         r3, #2
  01ed8	0a00000a	 beq         |$LN13@DumpDDSCAP|

; 347  :         DEBUGMSG(GPE_ZONE_DDRAW_HAL, (TEXT("  DDSCAPS_BACKBUFFER; ")));

  01edc	e59f32d4	 ldr         r3, [pc, #0x2D4]
  01ee0	e5933440	 ldr         r3, [r3, #0x440]
  01ee4	e3130902	 tst         r3, #2, 18
  01ee8	0a000004	 beq         |$LN22@DumpDDSCAP|
  01eec	e59f02f4	 ldr         r0, [pc, #0x2F4]
  01ef0	eb000000	 bl          NKDbgPrintfW
  01ef4	e3a03001	 mov         r3, #1
  01ef8	e58d3008	 str         r3, [sp, #8]
  01efc	ea000001	 b           |$LN23@DumpDDSCAP|
  01f00		 |$LN22@DumpDDSCAP|
  01f00	e3a03000	 mov         r3, #0
  01f04	e58d3008	 str         r3, [sp, #8]
  01f08		 |$LN23@DumpDDSCAP|
  01f08		 |$LN13@DumpDDSCAP|

; 348  :     if( ddsCaps.dwCaps & DDSCAPS_PRIMARYSURFACE )

  01f08	e59d3044	 ldr         r3, [sp, #0x44]
  01f0c	e3130040	 tst         r3, #0x40
  01f10	0a00000a	 beq         |$LN12@DumpDDSCAP|

; 349  :         DEBUGMSG(GPE_ZONE_DDRAW_HAL, (TEXT("  DDSCAPS_PRIMARYSURFACE; ")));

  01f14	e59f329c	 ldr         r3, [pc, #0x29C]
  01f18	e5933440	 ldr         r3, [r3, #0x440]
  01f1c	e3130902	 tst         r3, #2, 18
  01f20	0a000004	 beq         |$LN24@DumpDDSCAP|
  01f24	e59f02b8	 ldr         r0, [pc, #0x2B8]
  01f28	eb000000	 bl          NKDbgPrintfW
  01f2c	e3a03001	 mov         r3, #1
  01f30	e58d300c	 str         r3, [sp, #0xC]
  01f34	ea000001	 b           |$LN25@DumpDDSCAP|
  01f38		 |$LN24@DumpDDSCAP|
  01f38	e3a03000	 mov         r3, #0
  01f3c	e58d300c	 str         r3, [sp, #0xC]
  01f40		 |$LN25@DumpDDSCAP|
  01f40		 |$LN12@DumpDDSCAP|

; 350  :     if( ddsCaps.dwCaps & DDSCAPS_VIDEOMEMORY )

  01f40	e59d3044	 ldr         r3, [sp, #0x44]
  01f44	e3130c01	 tst         r3, #1, 24
  01f48	0a00000a	 beq         |$LN11@DumpDDSCAP|

; 351  :         DEBUGMSG(GPE_ZONE_DDRAW_HAL, (TEXT("  DDSCAPS_VIDEOMEMORY; ")));

  01f4c	e59f3264	 ldr         r3, [pc, #0x264]
  01f50	e5933440	 ldr         r3, [r3, #0x440]
  01f54	e3130902	 tst         r3, #2, 18
  01f58	0a000004	 beq         |$LN26@DumpDDSCAP|
  01f5c	e59f027c	 ldr         r0, [pc, #0x27C]
  01f60	eb000000	 bl          NKDbgPrintfW
  01f64	e3a03001	 mov         r3, #1
  01f68	e58d3010	 str         r3, [sp, #0x10]
  01f6c	ea000001	 b           |$LN27@DumpDDSCAP|
  01f70		 |$LN26@DumpDDSCAP|
  01f70	e3a03000	 mov         r3, #0
  01f74	e58d3010	 str         r3, [sp, #0x10]
  01f78		 |$LN27@DumpDDSCAP|
  01f78		 |$LN11@DumpDDSCAP|

; 352  :     if( ddsCaps.dwCaps & DDSCAPS_SYSTEMMEMORY )

  01f78	e59d3044	 ldr         r3, [sp, #0x44]
  01f7c	e3130080	 tst         r3, #0x80
  01f80	0a00000a	 beq         |$LN10@DumpDDSCAP|

; 353  :         DEBUGMSG(GPE_ZONE_DDRAW_HAL, (TEXT("  DDSCAPS_SYSTEMMEMORY; ")));

  01f84	e59f322c	 ldr         r3, [pc, #0x22C]
  01f88	e5933440	 ldr         r3, [r3, #0x440]
  01f8c	e3130902	 tst         r3, #2, 18
  01f90	0a000004	 beq         |$LN28@DumpDDSCAP|
  01f94	e59f0240	 ldr         r0, [pc, #0x240]
  01f98	eb000000	 bl          NKDbgPrintfW
  01f9c	e3a03001	 mov         r3, #1
  01fa0	e58d3014	 str         r3, [sp, #0x14]
  01fa4	ea000001	 b           |$LN29@DumpDDSCAP|
  01fa8		 |$LN28@DumpDDSCAP|
  01fa8	e3a03000	 mov         r3, #0
  01fac	e58d3014	 str         r3, [sp, #0x14]
  01fb0		 |$LN29@DumpDDSCAP|
  01fb0		 |$LN10@DumpDDSCAP|

; 354  :     if( ddsCaps.dwCaps & DDSCAPS_ALPHA )

  01fb0	e59d3044	 ldr         r3, [sp, #0x44]
  01fb4	e3130001	 tst         r3, #1
  01fb8	0a00000a	 beq         |$LN9@DumpDDSCAP|

; 355  :         DEBUGMSG(GPE_ZONE_DDRAW_HAL, (TEXT("  DDSCAPS_ALPHA; ")));

  01fbc	e59f31f4	 ldr         r3, [pc, #0x1F4]
  01fc0	e5933440	 ldr         r3, [r3, #0x440]
  01fc4	e3130902	 tst         r3, #2, 18
  01fc8	0a000004	 beq         |$LN30@DumpDDSCAP|
  01fcc	e59f0204	 ldr         r0, [pc, #0x204]
  01fd0	eb000000	 bl          NKDbgPrintfW
  01fd4	e3a03001	 mov         r3, #1
  01fd8	e58d3018	 str         r3, [sp, #0x18]
  01fdc	ea000001	 b           |$LN31@DumpDDSCAP|
  01fe0		 |$LN30@DumpDDSCAP|
  01fe0	e3a03000	 mov         r3, #0
  01fe4	e58d3018	 str         r3, [sp, #0x18]
  01fe8		 |$LN31@DumpDDSCAP|
  01fe8		 |$LN9@DumpDDSCAP|

; 356  :     if( ddsCaps.dwCaps & DDSCAPS_FLIP )

  01fe8	e59d3044	 ldr         r3, [sp, #0x44]
  01fec	e3130004	 tst         r3, #4
  01ff0	0a00000a	 beq         |$LN8@DumpDDSCAP|

; 357  :         DEBUGMSG(GPE_ZONE_DDRAW_HAL, (TEXT("  DDSCAPS_FLIP; ")));

  01ff4	e59f31bc	 ldr         r3, [pc, #0x1BC]
  01ff8	e5933440	 ldr         r3, [r3, #0x440]
  01ffc	e3130902	 tst         r3, #2, 18
  02000	0a000004	 beq         |$LN32@DumpDDSCAP|
  02004	e59f01c8	 ldr         r0, [pc, #0x1C8]
  02008	eb000000	 bl          NKDbgPrintfW
  0200c	e3a03001	 mov         r3, #1
  02010	e58d301c	 str         r3, [sp, #0x1C]
  02014	ea000001	 b           |$LN33@DumpDDSCAP|
  02018		 |$LN32@DumpDDSCAP|
  02018	e3a03000	 mov         r3, #0
  0201c	e58d301c	 str         r3, [sp, #0x1C]
  02020		 |$LN33@DumpDDSCAP|
  02020		 |$LN8@DumpDDSCAP|

; 358  :     if( ddsCaps.dwCaps & DDSCAPS_PALETTE )

  02020	e59d3044	 ldr         r3, [sp, #0x44]
  02024	e3130020	 tst         r3, #0x20
  02028	0a00000a	 beq         |$LN7@DumpDDSCAP|

; 359  :         DEBUGMSG(GPE_ZONE_DDRAW_HAL, (TEXT("  DDSCAPS_PALETTE; ")));

  0202c	e59f3184	 ldr         r3, [pc, #0x184]
  02030	e5933440	 ldr         r3, [r3, #0x440]
  02034	e3130902	 tst         r3, #2, 18
  02038	0a000004	 beq         |$LN34@DumpDDSCAP|
  0203c	e59f018c	 ldr         r0, [pc, #0x18C]
  02040	eb000000	 bl          NKDbgPrintfW
  02044	e3a03001	 mov         r3, #1
  02048	e58d3020	 str         r3, [sp, #0x20]
  0204c	ea000001	 b           |$LN35@DumpDDSCAP|
  02050		 |$LN34@DumpDDSCAP|
  02050	e3a03000	 mov         r3, #0
  02054	e58d3020	 str         r3, [sp, #0x20]
  02058		 |$LN35@DumpDDSCAP|
  02058		 |$LN7@DumpDDSCAP|

; 360  :     if( ddsCaps.dwCaps & DDSCAPS_WRITEONLY )

  02058	e59d3044	 ldr         r3, [sp, #0x44]
  0205c	e3130c02	 tst         r3, #2, 24
  02060	0a00000a	 beq         |$LN6@DumpDDSCAP|

; 361  :         DEBUGMSG(GPE_ZONE_DDRAW_HAL, (TEXT("  DDSCAPS_WRITEONLY; ")));

  02064	e59f314c	 ldr         r3, [pc, #0x14C]
  02068	e5933440	 ldr         r3, [r3, #0x440]
  0206c	e3130902	 tst         r3, #2, 18
  02070	0a000004	 beq         |$LN36@DumpDDSCAP|
  02074	e59f0150	 ldr         r0, [pc, #0x150]
  02078	eb000000	 bl          NKDbgPrintfW
  0207c	e3a03001	 mov         r3, #1
  02080	e58d3024	 str         r3, [sp, #0x24]
  02084	ea000001	 b           |$LN37@DumpDDSCAP|
  02088		 |$LN36@DumpDDSCAP|
  02088	e3a03000	 mov         r3, #0
  0208c	e58d3024	 str         r3, [sp, #0x24]
  02090		 |$LN37@DumpDDSCAP|
  02090		 |$LN6@DumpDDSCAP|

; 362  :     if( ddsCaps.dwCaps & DDSCAPS_VIDEOPORT )

  02090	e59d3044	 ldr         r3, [sp, #0x44]
  02094	e3130b01	 tst         r3, #1, 22
  02098	0a00000a	 beq         |$LN5@DumpDDSCAP|

; 363  :         DEBUGMSG(GPE_ZONE_DDRAW_HAL, (TEXT("  DDSCAPS_VIDEOPORT; ")));

  0209c	e59f3114	 ldr         r3, [pc, #0x114]
  020a0	e5933440	 ldr         r3, [r3, #0x440]
  020a4	e3130902	 tst         r3, #2, 18
  020a8	0a000004	 beq         |$LN38@DumpDDSCAP|
  020ac	e59f0114	 ldr         r0, [pc, #0x114]
  020b0	eb000000	 bl          NKDbgPrintfW
  020b4	e3a03001	 mov         r3, #1
  020b8	e58d3028	 str         r3, [sp, #0x28]
  020bc	ea000001	 b           |$LN39@DumpDDSCAP|
  020c0		 |$LN38@DumpDDSCAP|
  020c0	e3a03000	 mov         r3, #0
  020c4	e58d3028	 str         r3, [sp, #0x28]
  020c8		 |$LN39@DumpDDSCAP|
  020c8		 |$LN5@DumpDDSCAP|

; 364  :     if( ddsCaps.dwCaps & DDSCAPS_READONLY )

  020c8	e59d3044	 ldr         r3, [sp, #0x44]
  020cc	e3130b02	 tst         r3, #2, 22
  020d0	0a00000a	 beq         |$LN4@DumpDDSCAP|

; 365  :         DEBUGMSG(GPE_ZONE_DDRAW_HAL, (TEXT("  DDSCAPS_READONLY; ")));

  020d4	e59f30dc	 ldr         r3, [pc, #0xDC]
  020d8	e5933440	 ldr         r3, [r3, #0x440]
  020dc	e3130902	 tst         r3, #2, 18
  020e0	0a000004	 beq         |$LN40@DumpDDSCAP|
  020e4	e59f00d8	 ldr         r0, [pc, #0xD8]
  020e8	eb000000	 bl          NKDbgPrintfW
  020ec	e3a03001	 mov         r3, #1
  020f0	e58d302c	 str         r3, [sp, #0x2C]
  020f4	ea000001	 b           |$LN41@DumpDDSCAP|
  020f8		 |$LN40@DumpDDSCAP|
  020f8	e3a03000	 mov         r3, #0
  020fc	e58d302c	 str         r3, [sp, #0x2C]
  02100		 |$LN41@DumpDDSCAP|
  02100		 |$LN4@DumpDDSCAP|

; 366  :     if( ddsCaps.dwCaps & DDSCAPS_HARDWAREDEINTERLACE )

  02100	e59d3044	 ldr         r3, [sp, #0x44]
  02104	e3130a01	 tst         r3, #1, 20
  02108	0a00000a	 beq         |$LN3@DumpDDSCAP|

; 367  :         DEBUGMSG(GPE_ZONE_DDRAW_HAL, (TEXT("  DDSCAPS_HARDWAREDEINTERLACE; ")));

  0210c	e59f30a4	 ldr         r3, [pc, #0xA4]
  02110	e5933440	 ldr         r3, [r3, #0x440]
  02114	e3130902	 tst         r3, #2, 18
  02118	0a000004	 beq         |$LN42@DumpDDSCAP|
  0211c	e59f009c	 ldr         r0, [pc, #0x9C]
  02120	eb000000	 bl          NKDbgPrintfW
  02124	e3a03001	 mov         r3, #1
  02128	e58d3030	 str         r3, [sp, #0x30]
  0212c	ea000001	 b           |$LN43@DumpDDSCAP|
  02130		 |$LN42@DumpDDSCAP|
  02130	e3a03000	 mov         r3, #0
  02134	e58d3030	 str         r3, [sp, #0x30]
  02138		 |$LN43@DumpDDSCAP|
  02138		 |$LN3@DumpDDSCAP|

; 368  :     if( ddsCaps.dwCaps & DDSCAPS_NOTUSERLOCKABLE )

  02138	e59d3044	 ldr         r3, [sp, #0x44]
  0213c	e3130a02	 tst         r3, #2, 20
  02140	0a00000a	 beq         |$LN2@DumpDDSCAP|

; 369  :         DEBUGMSG(GPE_ZONE_DDRAW_HAL, (TEXT("  DDSCAPS_NOTUSERLOCKABLE; ")));

  02144	e59f306c	 ldr         r3, [pc, #0x6C]
  02148	e5933440	 ldr         r3, [r3, #0x440]
  0214c	e3130902	 tst         r3, #2, 18
  02150	0a000004	 beq         |$LN44@DumpDDSCAP|
  02154	e59f0060	 ldr         r0, [pc, #0x60]
  02158	eb000000	 bl          NKDbgPrintfW
  0215c	e3a03001	 mov         r3, #1
  02160	e58d3034	 str         r3, [sp, #0x34]
  02164	ea000001	 b           |$LN45@DumpDDSCAP|
  02168		 |$LN44@DumpDDSCAP|
  02168	e3a03000	 mov         r3, #0
  0216c	e58d3034	 str         r3, [sp, #0x34]
  02170		 |$LN45@DumpDDSCAP|
  02170		 |$LN2@DumpDDSCAP|

; 370  :     if( ddsCaps.dwCaps & DDSCAPS_DYNAMIC )

  02170	e59d3044	 ldr         r3, [sp, #0x44]
  02174	e3130901	 tst         r3, #1, 18
  02178	0a00000a	 beq         |$LN1@DumpDDSCAP|

; 371  :         DEBUGMSG(GPE_ZONE_DDRAW_HAL, (TEXT("  DDSCAPS_DYNAMIC; ")));

  0217c	e59f3034	 ldr         r3, [pc, #0x34]
  02180	e5933440	 ldr         r3, [r3, #0x440]
  02184	e3130902	 tst         r3, #2, 18
  02188	0a000004	 beq         |$LN46@DumpDDSCAP|
  0218c	e59f0020	 ldr         r0, [pc, #0x20]
  02190	eb000000	 bl          NKDbgPrintfW
  02194	e3a03001	 mov         r3, #1
  02198	e58d3038	 str         r3, [sp, #0x38]
  0219c	ea000001	 b           |$LN47@DumpDDSCAP|
  021a0		 |$LN46@DumpDDSCAP|
  021a0	e3a03000	 mov         r3, #0
  021a4	e58d3038	 str         r3, [sp, #0x38]
  021a8		 |$LN47@DumpDDSCAP|
  021a8		 |$LN1@DumpDDSCAP|

; 372  : }

  021a8	e28dd03c	 add         sp, sp, #0x3C
  021ac	e89d6000	 ldmia       sp, {sp, lr}
  021b0	e12fff1e	 bx          lr
  021b4		 |$LN51@DumpDDSCAP|
  021b4		 |$LN52@DumpDDSCAP|
  021b4	00000000	 DCD         |??_C@_1CI@LKNJGHLM@?$AA?5?$AA?5?$AAD?$AAD?$AAS?$AAC?$AAA?$AAP?$AAS?$AA_?$AAD?$AAY?$AAN?$AAA?$AAM?$AAI?$AAC?$AA?$DL?$AA?5?$AA?$AA@|
  021b8		 |$LN53@DumpDDSCAP|
  021b8	00000000	 DCD         |dpCurSettings|
  021bc		 |$LN54@DumpDDSCAP|
  021bc	00000000	 DCD         |??_C@_1DI@DMBJKNLC@?$AA?5?$AA?5?$AAD?$AAD?$AAS?$AAC?$AAA?$AAP?$AAS?$AA_?$AAN?$AAO?$AAT?$AAU?$AAS?$AAE?$AAR?$AAL?$AAO?$AAC?$AAK?$AAA?$AAB?$AAL?$AAE?$AA?$DL?$AA?5?$AA?$AA@|
  021c0		 |$LN55@DumpDDSCAP|
  021c0	00000000	 DCD         |??_C@_1EA@OAKLEHDL@?$AA?5?$AA?5?$AAD?$AAD?$AAS?$AAC?$AAA?$AAP?$AAS?$AA_?$AAH?$AAA?$AAR?$AAD?$AAW?$AAA?$AAR?$AAE?$AAD?$AAE?$AAI?$AAN?$AAT?$AAE?$AAR?$AAL?$AAA?$AAC?$AAE?$AA?$DL?$AA?5?$AA?$AA@|
  021c4		 |$LN56@DumpDDSCAP|
  021c4	00000000	 DCD         |??_C@_1CK@MAGGNMOI@?$AA?5?$AA?5?$AAD?$AAD?$AAS?$AAC?$AAA?$AAP?$AAS?$AA_?$AAR?$AAE?$AAA?$AAD?$AAO?$AAN?$AAL?$AAY?$AA?$DL?$AA?5?$AA?$AA@|
  021c8		 |$LN57@DumpDDSCAP|
  021c8	00000000	 DCD         |??_C@_1CM@LDEBMFEG@?$AA?5?$AA?5?$AAD?$AAD?$AAS?$AAC?$AAA?$AAP?$AAS?$AA_?$AAV?$AAI?$AAD?$AAE?$AAO?$AAP?$AAO?$AAR?$AAT?$AA?$DL?$AA?5?$AA?$AA@|
  021cc		 |$LN58@DumpDDSCAP|
  021cc	00000000	 DCD         |??_C@_1CM@JBFKFHGH@?$AA?5?$AA?5?$AAD?$AAD?$AAS?$AAC?$AAA?$AAP?$AAS?$AA_?$AAW?$AAR?$AAI?$AAT?$AAE?$AAO?$AAN?$AAL?$AAY?$AA?$DL?$AA?5?$AA?$AA@|
  021d0		 |$LN59@DumpDDSCAP|
  021d0	00000000	 DCD         |??_C@_1CI@DGICKLBO@?$AA?5?$AA?5?$AAD?$AAD?$AAS?$AAC?$AAA?$AAP?$AAS?$AA_?$AAP?$AAA?$AAL?$AAE?$AAT?$AAT?$AAE?$AA?$DL?$AA?5?$AA?$AA@|
  021d4		 |$LN60@DumpDDSCAP|
  021d4	00000000	 DCD         |??_C@_1CC@OKPAOFJI@?$AA?5?$AA?5?$AAD?$AAD?$AAS?$AAC?$AAA?$AAP?$AAS?$AA_?$AAF?$AAL?$AAI?$AAP?$AA?$DL?$AA?5?$AA?$AA@|
  021d8		 |$LN61@DumpDDSCAP|
  021d8	00000000	 DCD         |??_C@_1CE@MFHKMCCP@?$AA?5?$AA?5?$AAD?$AAD?$AAS?$AAC?$AAA?$AAP?$AAS?$AA_?$AAA?$AAL?$AAP?$AAH?$AAA?$AA?$DL?$AA?5?$AA?$AA@|
  021dc		 |$LN62@DumpDDSCAP|
  021dc	00000000	 DCD         |??_C@_1DC@FLAGKI@?$AA?5?$AA?5?$AAD?$AAD?$AAS?$AAC?$AAA?$AAP?$AAS?$AA_?$AAS?$AAY?$AAS?$AAT?$AAE?$AAM?$AAM?$AAE?$AAM?$AAO?$AAR?$AAY?$AA?$DL?$AA?5?$AA?$AA@|
  021e0		 |$LN63@DumpDDSCAP|
  021e0	00000000	 DCD         |??_C@_1DA@KGGENKNO@?$AA?5?$AA?5?$AAD?$AAD?$AAS?$AAC?$AAA?$AAP?$AAS?$AA_?$AAV?$AAI?$AAD?$AAE?$AAO?$AAM?$AAE?$AAM?$AAO?$AAR?$AAY?$AA?$DL?$AA?5?$AA?$AA@|
  021e4		 |$LN64@DumpDDSCAP|
  021e4	00000000	 DCD         |??_C@_1DG@ICFILOJO@?$AA?5?$AA?5?$AAD?$AAD?$AAS?$AAC?$AAA?$AAP?$AAS?$AA_?$AAP?$AAR?$AAI?$AAM?$AAA?$AAR?$AAY?$AAS?$AAU?$AAR?$AAF?$AAA?$AAC?$AAE?$AA?$DL?$AA?5?$AA?$AA@|
  021e8		 |$LN65@DumpDDSCAP|
  021e8	00000000	 DCD         |??_C@_1CO@IFJGNONM@?$AA?5?$AA?5?$AAD?$AAD?$AAS?$AAC?$AAA?$AAP?$AAS?$AA_?$AAB?$AAA?$AAC?$AAK?$AAB?$AAU?$AAF?$AAF?$AAE?$AAR?$AA?$DL?$AA?5?$AA?$AA@|
  021ec		 |$LN66@DumpDDSCAP|
  021ec	00000000	 DCD         |??_C@_1DA@DCFKKDPE@?$AA?5?$AA?5?$AAD?$AAD?$AAS?$AAC?$AAA?$AAP?$AAS?$AA_?$AAF?$AAR?$AAO?$AAN?$AAT?$AAB?$AAU?$AAF?$AAF?$AAE?$AAR?$AA?$DL?$AA?5?$AA?$AA@|
  021f0		 |$LN67@DumpDDSCAP|
  021f0	00000000	 DCD         |??_C@_1CI@FLNFELNO@?$AA?5?$AA?5?$AAD?$AAD?$AAS?$AAC?$AAA?$AAP?$AAS?$AA_?$AAO?$AAV?$AAE?$AAR?$AAL?$AAA?$AAY?$AA?$DL?$AA?5?$AA?$AA@|
  021f4		 |$M42966|

			 ENDP  ; |?DumpDDSCAPS@@YAXU_DDSCAPS@@@Z|, DumpDDSCAPS

	END
