; Listing generated by Microsoft (R) Optimizing Compiler Version 14.01.60511.01 

	TTL	C:\WINCE600\PLATFORM\COMMON\SRC\SOC\COMMON_TI_V1\COMMON_TI\DSS\DDGPE\omap_ddgpe.cpp
	CODE32

  00000			 AREA	 |.drectve|, DRECTVE
	DCB	"-defaultlib:LIBCMT "
	DCB	"-defaultlib:OLDNAMES "

	EXPORT	|??_C@_1BO@HCEKBOCE@?$AAR?$AAe?$AAs?$AAi?$AAz?$AAe?$AAU?$AAs?$AAi?$AAn?$AAg?$AAI?$AAS?$AAP?$AA?$AA@| [ DATA ] ; `string'
	EXPORT	|??_C@_1BO@HIDEFDND@?$AAE?$AAn?$AAa?$AAb?$AAl?$AAe?$AAN?$AAe?$AAo?$AAn?$AAB?$AAl?$AAt?$AAs?$AA?$AA@| [ DATA ] ; `string'
	EXPORT	|??_C@_1DG@EMDCEMCN@?$AAE?$AAn?$AAa?$AAb?$AAl?$AAe?$AAW?$AAa?$AAi?$AAt?$AAF?$AAo?$AAr?$AAV?$AAe?$AAr?$AAt?$AAi?$AAc?$AAa?$AAl?$AAB?$AAl?$AAa?$AAn?$AAk?$AA?$AA@| [ DATA ] ; `string'
	EXPORT	|??_C@_1CA@KKOABDHG@?$AAE?$AAn?$AAa?$AAb?$AAl?$AAe?$AAG?$AAa?$AAm?$AAm?$AAa?$AAC?$AAo?$AAr?$AAr?$AA?$AA@| [ DATA ] ; `string'
	EXPORT	|??_C@_1BI@OHOBMFLJ@?$AAI?$AAS?$AAT?$AAP?$AAr?$AAi?$AAo?$AAr?$AAi?$AAt?$AAy?$AA?$AA@| [ DATA ] ; `string'
	EXPORT	|??_C@_17JOPIDIGL@?$AAI?$AAR?$AAQ?$AA?$AA@| [ DATA ] ; `string'
	EXPORT	|??_C@_1O@EHICLELI@?$AAC?$AAu?$AAr?$AAs?$AAo?$AAr?$AA?$AA@| [ DATA ] ; `string'
	EXPORT	|??_C@_1BO@LANIIAMF@?$AAT?$AAV?$AAO?$AAu?$AAt?$AA_?$AAO?$AAf?$AAf?$AAs?$AAe?$AAt?$AA_?$AAH?$AA?$AA@| [ DATA ] ; `string'
	EXPORT	|??_C@_1BO@LIKCMHAM@?$AAT?$AAV?$AAO?$AAu?$AAt?$AA_?$AAO?$AAf?$AAf?$AAs?$AAe?$AAt?$AA_?$AAW?$AA?$AA@| [ DATA ] ; `string'
	EXPORT	|??_C@_1BO@CGJCBLII@?$AAT?$AAV?$AAO?$AAu?$AAt?$AA_?$AAR?$AAe?$AAs?$AAi?$AAz?$AAe?$AA_?$AAH?$AA?$AA@| [ DATA ] ; `string'
	EXPORT	|??_C@_1BO@COOIFMEB@?$AAT?$AAV?$AAO?$AAu?$AAt?$AA_?$AAR?$AAe?$AAs?$AAi?$AAz?$AAe?$AA_?$AAW?$AA?$AA@| [ DATA ] ; `string'
	EXPORT	|??_C@_1CI@DIIAOCFK@?$AAT?$AAV?$AAO?$AAu?$AAt?$AA_?$AAA?$AAs?$AAp?$AAe?$AAc?$AAt?$AAR?$AAa?$AAt?$AAi?$AAo?$AA_?$AAH?$AA?$AA@| [ DATA ] ; `string'
	EXPORT	|??_C@_1CI@DAPKKFJD@?$AAT?$AAV?$AAO?$AAu?$AAt?$AA_?$AAA?$AAs?$AAp?$AAe?$AAc?$AAt?$AAR?$AAa?$AAt?$AAi?$AAo?$AA_?$AAW?$AA?$AA@| [ DATA ] ; `string'
	EXPORT	|??_C@_1CE@JFOFAJOP@?$AAT?$AAV?$AAO?$AAu?$AAt?$AA_?$AAF?$AAi?$AAl?$AAt?$AAe?$AAr?$AAL?$AAe?$AAv?$AAe?$AAl?$AA?$AA@| [ DATA ] ; `string'
	EXPORT	|??_C@_1M@EAFCNFBE@?$AAT?$AAV?$AAO?$AAu?$AAt?$AA?$AA@| [ DATA ] ; `string'
	EXPORT	|??_C@_1M@EJCCJHHO@?$AAA?$AAn?$AAg?$AAl?$AAe?$AA?$AA@| [ DATA ] ; `string'
	EXPORT	|??_C@_1CA@JFJPPHPE@?$AAO?$AAf?$AAf?$AAs?$AAc?$AAr?$AAe?$AAe?$AAn?$AAM?$AAe?$AAm?$AAo?$AAr?$AAy?$AA?$AA@| [ DATA ] ; `string'
	EXPORT	|??_C@_1BG@FALMIFAM@?$AAS?$AAu?$AAr?$AAf?$AAa?$AAc?$AAe?$AAM?$AAg?$AAr?$AA?$AA@| [ DATA ] ; `string'
	EXPORT	|?g_Globals@@3VOMAPDDGPEGlobals@@A| [ DATA ] ; g_Globals
	EXPORT	|dpCurSettings| [ DATA ]
	EXPORT	|?g_pGPE@@3PAVDDGPE@@A| [ DATA ]	; g_pGPE

  00000			 AREA	 |.bss|, NOINIT
|?g_Globals@@3VOMAPDDGPEGlobals@@A| % 0x250		; g_Globals
|?g_pGPE@@3PAVDDGPE@@A| % 0x4				; g_pGPE

  00000			 AREA	 |.rdata|, DATA, READONLY
|??_C@_1BO@HCEKBOCE@?$AAR?$AAe?$AAs?$AAi?$AAz?$AAe?$AAU?$AAs?$AAi?$AAn?$AAg?$AAI?$AAS?$AAP?$AA?$AA@| DCB "R"
	DCB	0x0, "e", 0x0, "s", 0x0, "i", 0x0, "z", 0x0, "e", 0x0, "U"
	DCB	0x0, "s", 0x0, "i", 0x0, "n", 0x0, "g", 0x0, "I", 0x0, "S"
	DCB	0x0, "P", 0x0, 0x0, 0x0			; `string'

  00000			 AREA	 |.rdata|, DATA, READONLY
|??_C@_1BO@HIDEFDND@?$AAE?$AAn?$AAa?$AAb?$AAl?$AAe?$AAN?$AAe?$AAo?$AAn?$AAB?$AAl?$AAt?$AAs?$AA?$AA@| DCB "E"
	DCB	0x0, "n", 0x0, "a", 0x0, "b", 0x0, "l", 0x0, "e", 0x0, "N"
	DCB	0x0, "e", 0x0, "o", 0x0, "n", 0x0, "B", 0x0, "l", 0x0, "t"
	DCB	0x0, "s", 0x0, 0x0, 0x0			; `string'

  00000			 AREA	 |.rdata|, DATA, READONLY
|??_C@_1DG@EMDCEMCN@?$AAE?$AAn?$AAa?$AAb?$AAl?$AAe?$AAW?$AAa?$AAi?$AAt?$AAF?$AAo?$AAr?$AAV?$AAe?$AAr?$AAt?$AAi?$AAc?$AAa?$AAl?$AAB?$AAl?$AAa?$AAn?$AAk?$AA?$AA@| DCB "E"
	DCB	0x0, "n", 0x0, "a", 0x0, "b", 0x0, "l", 0x0, "e", 0x0, "W"
	DCB	0x0, "a", 0x0, "i", 0x0, "t", 0x0, "F", 0x0, "o", 0x0, "r"
	DCB	0x0, "V", 0x0, "e", 0x0, "r", 0x0, "t", 0x0, "i", 0x0, "c"
	DCB	0x0, "a", 0x0, "l", 0x0, "B", 0x0, "l", 0x0, "a", 0x0, "n"
	DCB	0x0, "k", 0x0, 0x0, 0x0			; `string'

  00000			 AREA	 |.rdata|, DATA, READONLY
|??_C@_1CA@KKOABDHG@?$AAE?$AAn?$AAa?$AAb?$AAl?$AAe?$AAG?$AAa?$AAm?$AAm?$AAa?$AAC?$AAo?$AAr?$AAr?$AA?$AA@| DCB "E"
	DCB	0x0, "n", 0x0, "a", 0x0, "b", 0x0, "l", 0x0, "e", 0x0, "G"
	DCB	0x0, "a", 0x0, "m", 0x0, "m", 0x0, "a", 0x0, "C", 0x0, "o"
	DCB	0x0, "r", 0x0, "r", 0x0, 0x0, 0x0	; `string'

  00000			 AREA	 |.rdata|, DATA, READONLY
|??_C@_1BI@OHOBMFLJ@?$AAI?$AAS?$AAT?$AAP?$AAr?$AAi?$AAo?$AAr?$AAi?$AAt?$AAy?$AA?$AA@| DCB "I"
	DCB	0x0, "S", 0x0, "T", 0x0, "P", 0x0, "r", 0x0, "i", 0x0, "o"
	DCB	0x0, "r", 0x0, "i", 0x0, "t", 0x0, "y", 0x0, 0x0, 0x0 ; `string'

  00000			 AREA	 |.rdata|, DATA, READONLY
|??_C@_17JOPIDIGL@?$AAI?$AAR?$AAQ?$AA?$AA@| DCB "I", 0x0, "R", 0x0, "Q", 0x0
	DCB	0x0, 0x0				; `string'

  00000			 AREA	 |.rdata|, DATA, READONLY
|??_C@_1O@EHICLELI@?$AAC?$AAu?$AAr?$AAs?$AAo?$AAr?$AA?$AA@| DCB "C", 0x0, "u"
	DCB	0x0, "r", 0x0, "s", 0x0, "o", 0x0, "r", 0x0, 0x0, 0x0 ; `string'

  00000			 AREA	 |.rdata|, DATA, READONLY
|??_C@_1BO@LANIIAMF@?$AAT?$AAV?$AAO?$AAu?$AAt?$AA_?$AAO?$AAf?$AAf?$AAs?$AAe?$AAt?$AA_?$AAH?$AA?$AA@| DCB "T"
	DCB	0x0, "V", 0x0, "O", 0x0, "u", 0x0, "t", 0x0, "_", 0x0, "O"
	DCB	0x0, "f", 0x0, "f", 0x0, "s", 0x0, "e", 0x0, "t", 0x0, "_"
	DCB	0x0, "H", 0x0, 0x0, 0x0			; `string'

  00000			 AREA	 |.rdata|, DATA, READONLY
|??_C@_1BO@LIKCMHAM@?$AAT?$AAV?$AAO?$AAu?$AAt?$AA_?$AAO?$AAf?$AAf?$AAs?$AAe?$AAt?$AA_?$AAW?$AA?$AA@| DCB "T"
	DCB	0x0, "V", 0x0, "O", 0x0, "u", 0x0, "t", 0x0, "_", 0x0, "O"
	DCB	0x0, "f", 0x0, "f", 0x0, "s", 0x0, "e", 0x0, "t", 0x0, "_"
	DCB	0x0, "W", 0x0, 0x0, 0x0			; `string'

  00000			 AREA	 |.rdata|, DATA, READONLY
|??_C@_1BO@CGJCBLII@?$AAT?$AAV?$AAO?$AAu?$AAt?$AA_?$AAR?$AAe?$AAs?$AAi?$AAz?$AAe?$AA_?$AAH?$AA?$AA@| DCB "T"
	DCB	0x0, "V", 0x0, "O", 0x0, "u", 0x0, "t", 0x0, "_", 0x0, "R"
	DCB	0x0, "e", 0x0, "s", 0x0, "i", 0x0, "z", 0x0, "e", 0x0, "_"
	DCB	0x0, "H", 0x0, 0x0, 0x0			; `string'

  00000			 AREA	 |.rdata|, DATA, READONLY
|??_C@_1BO@COOIFMEB@?$AAT?$AAV?$AAO?$AAu?$AAt?$AA_?$AAR?$AAe?$AAs?$AAi?$AAz?$AAe?$AA_?$AAW?$AA?$AA@| DCB "T"
	DCB	0x0, "V", 0x0, "O", 0x0, "u", 0x0, "t", 0x0, "_", 0x0, "R"
	DCB	0x0, "e", 0x0, "s", 0x0, "i", 0x0, "z", 0x0, "e", 0x0, "_"
	DCB	0x0, "W", 0x0, 0x0, 0x0			; `string'

  00000			 AREA	 |.rdata|, DATA, READONLY
|??_C@_1CI@DIIAOCFK@?$AAT?$AAV?$AAO?$AAu?$AAt?$AA_?$AAA?$AAs?$AAp?$AAe?$AAc?$AAt?$AAR?$AAa?$AAt?$AAi?$AAo?$AA_?$AAH?$AA?$AA@| DCB "T"
	DCB	0x0, "V", 0x0, "O", 0x0, "u", 0x0, "t", 0x0, "_", 0x0, "A"
	DCB	0x0, "s", 0x0, "p", 0x0, "e", 0x0, "c", 0x0, "t", 0x0, "R"
	DCB	0x0, "a", 0x0, "t", 0x0, "i", 0x0, "o", 0x0, "_", 0x0, "H"
	DCB	0x0, 0x0, 0x0				; `string'

  00000			 AREA	 |.rdata|, DATA, READONLY
|??_C@_1CI@DAPKKFJD@?$AAT?$AAV?$AAO?$AAu?$AAt?$AA_?$AAA?$AAs?$AAp?$AAe?$AAc?$AAt?$AAR?$AAa?$AAt?$AAi?$AAo?$AA_?$AAW?$AA?$AA@| DCB "T"
	DCB	0x0, "V", 0x0, "O", 0x0, "u", 0x0, "t", 0x0, "_", 0x0, "A"
	DCB	0x0, "s", 0x0, "p", 0x0, "e", 0x0, "c", 0x0, "t", 0x0, "R"
	DCB	0x0, "a", 0x0, "t", 0x0, "i", 0x0, "o", 0x0, "_", 0x0, "W"
	DCB	0x0, 0x0, 0x0				; `string'

  00000			 AREA	 |.rdata|, DATA, READONLY
|??_C@_1CE@JFOFAJOP@?$AAT?$AAV?$AAO?$AAu?$AAt?$AA_?$AAF?$AAi?$AAl?$AAt?$AAe?$AAr?$AAL?$AAe?$AAv?$AAe?$AAl?$AA?$AA@| DCB "T"
	DCB	0x0, "V", 0x0, "O", 0x0, "u", 0x0, "t", 0x0, "_", 0x0, "F"
	DCB	0x0, "i", 0x0, "l", 0x0, "t", 0x0, "e", 0x0, "r", 0x0, "L"
	DCB	0x0, "e", 0x0, "v", 0x0, "e", 0x0, "l", 0x0, 0x0, 0x0 ; `string'

  00000			 AREA	 |.rdata|, DATA, READONLY
|??_C@_1M@EAFCNFBE@?$AAT?$AAV?$AAO?$AAu?$AAt?$AA?$AA@| DCB "T", 0x0, "V", 0x0
	DCB	"O", 0x0, "u", 0x0, "t", 0x0, 0x0, 0x0	; `string'

  00000			 AREA	 |.rdata|, DATA, READONLY
|??_C@_1M@EJCCJHHO@?$AAA?$AAn?$AAg?$AAl?$AAe?$AA?$AA@| DCB "A", 0x0, "n", 0x0
	DCB	"g", 0x0, "l", 0x0, "e", 0x0, 0x0, 0x0	; `string'

  00000			 AREA	 |.rdata|, DATA, READONLY
|??_C@_1CA@JFJPPHPE@?$AAO?$AAf?$AAf?$AAs?$AAc?$AAr?$AAe?$AAe?$AAn?$AAM?$AAe?$AAm?$AAo?$AAr?$AAy?$AA?$AA@| DCB "O"
	DCB	0x0, "f", 0x0, "f", 0x0, "s", 0x0, "c", 0x0, "r", 0x0, "e"
	DCB	0x0, "e", 0x0, "n", 0x0, "M", 0x0, "e", 0x0, "m", 0x0, "o"
	DCB	0x0, "r", 0x0, "y", 0x0, 0x0, 0x0	; `string'

  00000			 AREA	 |.rdata|, DATA, READONLY
|??_C@_1BG@FALMIFAM@?$AAS?$AAu?$AAr?$AAf?$AAa?$AAc?$AAe?$AAM?$AAg?$AAr?$AA?$AA@| DCB "S"
	DCB	0x0, "u", 0x0, "r", 0x0, "f", 0x0, "a", 0x0, "c", 0x0, "e"
	DCB	0x0, "M", 0x0, "g", 0x0, "r", 0x0, 0x0, 0x0 ; `string'

  00000			 AREA	 |.data|, DATA
|dpCurSettings| DCB "O", 0x0, "M", 0x0, "A", 0x0, "P", 0x0, "D", 0x0, "D", 0x0
	DCB	"G", 0x0, "P", 0x0, "E", 0x0, " ", 0x0, "D", 0x0, "r", 0x0
	DCB	"i", 0x0, "v", 0x0, "e", 0x0, "r", 0x0, 0x0, 0x0
	%	30
	DCB	"E", 0x0, "r", 0x0, "r", 0x0, "o", 0x0, "r", 0x0, "s", 0x0
	DCB	0x0, 0x0
	%	50
	DCB	"W", 0x0, "a", 0x0, "r", 0x0, "n", 0x0, "i", 0x0, "n", 0x0
	DCB	"g", 0x0, "s", 0x0, 0x0, 0x0
	%	46
	DCB	"P", 0x0, "e", 0x0, "r", 0x0, "f", 0x0, "o", 0x0, "r", 0x0
	DCB	"m", 0x0, "a", 0x0, "n", 0x0, "c", 0x0, "e", 0x0, 0x0, 0x0
	%	40
	DCB	"T", 0x0, "e", 0x0, "m", 0x0, "p", 0x0, "o", 0x0, "r", 0x0
	DCB	"a", 0x0, "r", 0x0, "y", 0x0, " ", 0x0, "t", 0x0, "e", 0x0
	DCB	"s", 0x0, "t", 0x0, "s", 0x0, 0x0, 0x0
	%	32
	DCB	"E", 0x0, "n", 0x0, "t", 0x0, "e", 0x0, "r", 0x0, ",", 0x0
	DCB	"E", 0x0, "x", 0x0, "i", 0x0, "t", 0x0, 0x0, 0x0
	%	42
	DCB	"I", 0x0, "n", 0x0, "i", 0x0, "t", 0x0, "i", 0x0, "a", 0x0
	DCB	"l", 0x0, "i", 0x0, "z", 0x0, "e", 0x0, 0x0, 0x0
	%	42
	DCB	"B", 0x0, "l", 0x0, "t", 0x0, " ", 0x0, "C", 0x0, "a", 0x0
	DCB	"l", 0x0, "l", 0x0, "s", 0x0, 0x0, 0x0
	%	44
	DCB	"B", 0x0, "l", 0x0, "t", 0x0, " ", 0x0, "V", 0x0, "e", 0x0
	DCB	"r", 0x0, "b", 0x0, "o", 0x0, "s", 0x0, "e", 0x0, 0x0, 0x0
	%	40
	DCB	"S", 0x0, "u", 0x0, "r", 0x0, "f", 0x0, "a", 0x0, "c", 0x0
	DCB	"e", 0x0, " ", 0x0, "C", 0x0, "r", 0x0, "e", 0x0, "a", 0x0
	DCB	"t", 0x0, "e", 0x0, 0x0, 0x0
	%	34
	DCB	"F", 0x0, "l", 0x0, "i", 0x0, "p", 0x0, 0x0, 0x0
	%	54
	DCB	"L", 0x0, "i", 0x0, "n", 0x0, "e", 0x0, 0x0, 0x0
	%	54
	DCB	"H", 0x0, "a", 0x0, "r", 0x0, "d", 0x0, "w", 0x0, "a", 0x0
	DCB	"r", 0x0, "e", 0x0, 0x0, 0x0
	%	46
	DCB	"P", 0x0, "o", 0x0, "l", 0x0, "y", 0x0, "g", 0x0, "o", 0x0
	DCB	"n", 0x0, 0x0, 0x0
	%	48
	DCB	"C", 0x0, "u", 0x0, "r", 0x0, "s", 0x0, "o", 0x0, "r", 0x0
	DCB	0x0, 0x0
	%	50
	DCB	"V", 0x0, "i", 0x0, "d", 0x0, "e", 0x0, "o", 0x0, " ", 0x0
	DCB	"M", 0x0, "e", 0x0, "m", 0x0, "o", 0x0, "r", 0x0, "y", 0x0
	DCB	0x0, 0x0
	%	38
	DCB	"D", 0x0, "D", 0x0, "r", 0x0, "a", 0x0, "w", 0x0, " ", 0x0
	DCB	"H", 0x0, "A", 0x0, "L", 0x0, 0x0, 0x0
	%	44
	DCD	0xc803

  00000			 AREA	 |.rdata|, DATA, READONLY
|FourCCDescriptionTable| DCD 0x32595559
	DCD	0x10
	DCD	0xff00ff
	DCD	0xff00
	DCD	0xff000000
	DCD	0x56595559
	DCD	0x10
	DCD	0xff00ff
	DCD	0xff00
	DCD	0xff000000
	DCD	0x55595659
	DCD	0x10
	DCD	0xff00ff00
	DCD	0xff
	DCD	0xff0000
	DCD	0x59565955
	DCD	0x10
	DCD	0xff00ff00
	DCD	0xff
	DCD	0xff0000
	DCD	0x36315659
	DCD	0x10
	DCD	0xffffffff
	DCD	0xffffffff
	DCD	0xffffffff
	DCD	0x32315659
	DCD	0xc
	DCD	0xffffffff
	DCD	0xffffffff
	DCD	0xffffffff
	DCD	0x3231564e
	DCD	0xc
	DCD	0xffffffff
	DCD	0xffffffff
	DCD	0xffffffff
	DCD	0x30323449
	DCD	0xc
	DCD	0xffffffff
	DCD	0xffffffff
	DCD	0xffffffff
	DCD	0x56555949
	DCD	0xc
	DCD	0xffffffff
	DCD	0xffffffff
	DCD	0xffffffff
	%	4
|g_deviceRegParams| DCD |??_C@_1BG@FALMIFAM@?$AAS?$AAu?$AAr?$AAf?$AAa?$AAc?$AAe?$AAM?$AAg?$AAr?$AA?$AA@|
	DCD	0x1
	DCD	0x0
	DCD	0x0
	DCD	0x4
	DCD	0x1
	DCD	|??_C@_1CA@JFJPPHPE@?$AAO?$AAf?$AAf?$AAs?$AAc?$AAr?$AAe?$AAe?$AAn?$AAM?$AAe?$AAm?$AAo?$AAr?$AAy?$AA?$AA@|
	DCD	0x1
	DCD	0x0
	DCD	0x8
	DCD	0x4
	DCD	0x400000
	DCD	|??_C@_1M@EJCCJHHO@?$AAA?$AAn?$AAg?$AAl?$AAe?$AA?$AA@|
	DCD	0x1
	DCD	0x0
	DCD	0x4
	DCD	0x4
	DCD	0x0
	DCD	|??_C@_1M@EAFCNFBE@?$AAT?$AAV?$AAO?$AAu?$AAt?$AA?$AA@|
	DCD	0x1
	DCD	0x0
	DCD	0x214
	DCD	0x4
	DCD	0x0
	DCD	|??_C@_1CE@JFOFAJOP@?$AAT?$AAV?$AAO?$AAu?$AAt?$AA_?$AAF?$AAi?$AAl?$AAt?$AAe?$AAr?$AAL?$AAe?$AAv?$AAe?$AAl?$AA?$AA@|
	DCD	0x1
	DCD	0x0
	DCD	0x218
	DCD	0x4
	DCD	0x0
	DCD	|??_C@_1CI@DAPKKFJD@?$AAT?$AAV?$AAO?$AAu?$AAt?$AA_?$AAA?$AAs?$AAp?$AAe?$AAc?$AAt?$AAR?$AAa?$AAt?$AAi?$AAo?$AA_?$AAW?$AA?$AA@|
	DCD	0x1
	DCD	0x0
	DCD	0x21c
	DCD	0x4
	DCD	0x4
	DCD	|??_C@_1CI@DIIAOCFK@?$AAT?$AAV?$AAO?$AAu?$AAt?$AA_?$AAA?$AAs?$AAp?$AAe?$AAc?$AAt?$AAR?$AAa?$AAt?$AAi?$AAo?$AA_?$AAH?$AA?$AA@|
	DCD	0x1
	DCD	0x0
	DCD	0x220
	DCD	0x4
	DCD	0x3
	DCD	|??_C@_1BO@COOIFMEB@?$AAT?$AAV?$AAO?$AAu?$AAt?$AA_?$AAR?$AAe?$AAs?$AAi?$AAz?$AAe?$AA_?$AAW?$AA?$AA@|
	DCD	0x1
	DCD	0x0
	DCD	0x224
	DCD	0x4
	DCD	0x5a
	DCD	|??_C@_1BO@CGJCBLII@?$AAT?$AAV?$AAO?$AAu?$AAt?$AA_?$AAR?$AAe?$AAs?$AAi?$AAz?$AAe?$AA_?$AAH?$AA?$AA@|
	DCD	0x1
	DCD	0x0
	DCD	0x228
	DCD	0x4
	DCD	0x5a
	DCD	|??_C@_1BO@LIKCMHAM@?$AAT?$AAV?$AAO?$AAu?$AAt?$AA_?$AAO?$AAf?$AAf?$AAs?$AAe?$AAt?$AA_?$AAW?$AA?$AA@|
	DCD	0x1
	DCD	0x0
	DCD	0x22c
	DCD	0x4
	DCD	0x8
	DCD	|??_C@_1BO@LANIIAMF@?$AAT?$AAV?$AAO?$AAu?$AAt?$AA_?$AAO?$AAf?$AAf?$AAs?$AAe?$AAt?$AA_?$AAH?$AA?$AA@|
	DCD	0x1
	DCD	0x0
	DCD	0x230
	DCD	0x4
	DCD	0x0
	DCD	|??_C@_1O@EHICLELI@?$AAC?$AAu?$AAr?$AAs?$AAo?$AAr?$AA?$AA@|
	DCD	0x1
	DCD	0x0
	DCD	0x234
	DCD	0x4
	DCD	0x0
	DCD	|??_C@_17JOPIDIGL@?$AAI?$AAR?$AAQ?$AA?$AA@|
	DCD	0x1
	DCD	0x0
	DCD	0x238
	DCD	0x4
	DCD	0x0
	DCD	|??_C@_1BI@OHOBMFLJ@?$AAI?$AAS?$AAT?$AAP?$AAr?$AAi?$AAo?$AAr?$AAi?$AAt?$AAy?$AA?$AA@|
	DCD	0x1
	DCD	0x0
	DCD	0x23c
	DCD	0x4
	DCD	0x64
	DCD	|??_C@_1CA@KKOABDHG@?$AAE?$AAn?$AAa?$AAb?$AAl?$AAe?$AAG?$AAa?$AAm?$AAm?$AAa?$AAC?$AAo?$AAr?$AAr?$AA?$AA@|
	DCD	0x1
	DCD	0x0
	DCD	0x240
	DCD	0x4
	DCD	0x1
	DCD	|??_C@_1DG@EMDCEMCN@?$AAE?$AAn?$AAa?$AAb?$AAl?$AAe?$AAW?$AAa?$AAi?$AAt?$AAF?$AAo?$AAr?$AAV?$AAe?$AAr?$AAt?$AAi?$AAc?$AAa?$AAl?$AAB?$AAl?$AAa?$AAn?$AAk?$AA?$AA@|
	DCD	0x1
	DCD	0x0
	DCD	0x244
	DCD	0x4
	DCD	0x0
	DCD	|??_C@_1BO@HIDEFDND@?$AAE?$AAn?$AAa?$AAb?$AAl?$AAe?$AAN?$AAe?$AAo?$AAn?$AAB?$AAl?$AAt?$AAs?$AA?$AA@|
	DCD	0x1
	DCD	0x0
	DCD	0x248
	DCD	0x4
	DCD	0x0
	DCD	|??_C@_1BO@HCEKBOCE@?$AAR?$AAe?$AAs?$AAi?$AAz?$AAe?$AAU?$AAs?$AAi?$AAn?$AAg?$AAI?$AAS?$AAP?$AA?$AA@|
	DCD	0x1
	DCD	0x0
	DCD	0x24c
	DCD	0x4
	DCD	0x0
	EXPORT	|??_C@_1FK@HPEDNOJB@?$AAE?$AAR?$AAR?$AAO?$AAR?$AA?3?$AA?5?$AAD?$AAi?$AAs?$AAp?$AAl?$AAa?$AAy?$AAI?$AAn?$AAi?$AAt?$AA?5?$AAf?$AAa?$AAi?$AAl?$AAe?$AAd?$AA?5?$AAt?$AAo?$AA?5?$AAr?$AAe?$AAa@| [ DATA ] ; `string'
	EXPORT	|??_C@_1GE@HGLMGOCG@?$AAD?$AAi?$AAs?$AAp?$AAl?$AAa?$AAy?$AA?5?$AAD?$AAi?$AAs?$AAp?$AAl?$AAa?$AAy?$AAI?$AAn?$AAi?$AAt?$AA?0?$AA?5?$AAN?$AAU?$AAL?$AAL?$AA?5?$AAp?$AAs?$AAz?$AAI?$AAn?$AAs@| [ DATA ] ; `string'
	EXPORT	|??_C@_1CG@BEPCNIEH@?$AAS?$AAy?$AAs?$AAt?$AAe?$AAm?$AA?2?$AAG?$AAD?$AAI?$AA?2?$AAD?$AAr?$AAi?$AAv?$AAe?$AAr?$AAs?$AA?$AA@| [ DATA ] ; `string'
	EXPORT	|??_C@_1CM@BJNJDCBM@?$AAD?$AAi?$AAs?$AAp?$AAl?$AAa?$AAy?$AA?5?$AAD?$AAi?$AAs?$AAp?$AAl?$AAa?$AAy?$AAI?$AAn?$AAi?$AAt?$AA?$AN?$AA?6?$AA?$AA@| [ DATA ] ; `string'
	EXPORT	|DisplayInit|
	IMPORT	|wcscpy|
	IMPORT	|GetDeviceRegistryParams|
	IMPORT	|NKDbgPrintfW|

  00000			 AREA	 |.pdata|, PDATA
|$T43162| DCD	|$LN14@DisplayIni|
	DCD	0x40004b04
; File c:\wince600\platform\common\src\soc\common_ti_v1\common_ti\dss\ddgpe\omap_ddgpe.cpp

  00000			 AREA	 |.rdata|, DATA, READONLY
|??_C@_1FK@HPEDNOJB@?$AAE?$AAR?$AAR?$AAO?$AAR?$AA?3?$AA?5?$AAD?$AAi?$AAs?$AAp?$AAl?$AAa?$AAy?$AAI?$AAn?$AAi?$AAt?$AA?5?$AAf?$AAa?$AAi?$AAl?$AAe?$AAd?$AA?5?$AAt?$AAo?$AA?5?$AAr?$AAe?$AAa@| DCB "E"
	DCB	0x0, "R", 0x0, "R", 0x0, "O", 0x0, "R", 0x0, ":", 0x0, " "
	DCB	0x0, "D", 0x0, "i", 0x0, "s", 0x0, "p", 0x0, "l", 0x0, "a"
	DCB	0x0, "y", 0x0, "I", 0x0, "n", 0x0, "i", 0x0, "t", 0x0, " "
	DCB	0x0, "f", 0x0, "a", 0x0, "i", 0x0, "l", 0x0, "e", 0x0, "d"
	DCB	0x0, " ", 0x0, "t", 0x0, "o", 0x0, " ", 0x0, "r", 0x0, "e"
	DCB	0x0, "a", 0x0, "d", 0x0, " ", 0x0, "r", 0x0, "e", 0x0, "g"
	DCB	0x0, "i", 0x0, "s", 0x0, "t", 0x0, "r", 0x0, "y", 0x0, 0xd
	DCB	0x0, 0xa, 0x0, 0x0, 0x0			; `string'

  00000			 AREA	 |.rdata|, DATA, READONLY
|??_C@_1GE@HGLMGOCG@?$AAD?$AAi?$AAs?$AAp?$AAl?$AAa?$AAy?$AA?5?$AAD?$AAi?$AAs?$AAp?$AAl?$AAa?$AAy?$AAI?$AAn?$AAi?$AAt?$AA?0?$AA?5?$AAN?$AAU?$AAL?$AAL?$AA?5?$AAp?$AAs?$AAz?$AAI?$AAn?$AAs@| DCB "D"
	DCB	0x0, "i", 0x0, "s", 0x0, "p", 0x0, "l", 0x0, "a", 0x0, "y"
	DCB	0x0, " ", 0x0, "D", 0x0, "i", 0x0, "s", 0x0, "p", 0x0, "l"
	DCB	0x0, "a", 0x0, "y", 0x0, "I", 0x0, "n", 0x0, "i", 0x0, "t"
	DCB	0x0, ",", 0x0, " ", 0x0, "N", 0x0, "U", 0x0, "L", 0x0, "L"
	DCB	0x0, " ", 0x0, "p", 0x0, "s", 0x0, "z", 0x0, "I", 0x0, "n"
	DCB	0x0, "s", 0x0, "t", 0x0, "a", 0x0, "n", 0x0, "c", 0x0, "e"
	DCB	0x0, ",", 0x0, " ", 0x0, "u", 0x0, "s", 0x0, "i", 0x0, "n"
	DCB	0x0, "g", 0x0, " ", 0x0, "%", 0x0, "s", 0x0, 0xd, 0x0, 0xa
	DCB	0x0, 0x0, 0x0				; `string'

  00000			 AREA	 |.rdata|, DATA, READONLY
|??_C@_1CG@BEPCNIEH@?$AAS?$AAy?$AAs?$AAt?$AAe?$AAm?$AA?2?$AAG?$AAD?$AAI?$AA?2?$AAD?$AAr?$AAi?$AAv?$AAe?$AAr?$AAs?$AA?$AA@| DCB "S"
	DCB	0x0, "y", 0x0, "s", 0x0, "t", 0x0, "e", 0x0, "m", 0x0, "\\"
	DCB	0x0, "G", 0x0, "D", 0x0, "I", 0x0, "\\", 0x0, "D", 0x0, "r"
	DCB	0x0, "i", 0x0, "v", 0x0, "e", 0x0, "r", 0x0, "s", 0x0, 0x0
	DCB	0x0					; `string'

  00000			 AREA	 |.rdata|, DATA, READONLY
|??_C@_1CM@BJNJDCBM@?$AAD?$AAi?$AAs?$AAp?$AAl?$AAa?$AAy?$AA?5?$AAD?$AAi?$AAs?$AAp?$AAl?$AAa?$AAy?$AAI?$AAn?$AAi?$AAt?$AA?$AN?$AA?6?$AA?$AA@| DCB "D"
	DCB	0x0, "i", 0x0, "s", 0x0, "p", 0x0, "l", 0x0, "a", 0x0, "y"
	DCB	0x0, " ", 0x0, "D", 0x0, "i", 0x0, "s", 0x0, "p", 0x0, "l"
	DCB	0x0, "a", 0x0, "y", 0x0, "I", 0x0, "n", 0x0, "i", 0x0, "t"
	DCB	0x0, 0xd, 0x0, 0xa, 0x0, 0x0, 0x0	; `string'
; Function compile flags: /Odtp

  00000			 AREA	 |.text|, CODE, ARM

  00000		 |DisplayInit| PROC

; 133  : {

  00000		 |$LN14@DisplayIni|
  00000	e1a0c00d	 mov         r12, sp
  00004	e92d0003	 stmdb       sp!, {r0, r1}
  00008	e92d5000	 stmdb       sp!, {r12, lr}
  0000c	e24dd014	 sub         sp, sp, #0x14
  00010		 |$M43159|

; 134  :     UNREFERENCED_PARAMETER(dwNumMonitors);
; 135  :     DEBUGMSG(GPE_ZONE_INIT, (L"Display DisplayInit\r\n"));

  00010	e59f3100	 ldr         r3, [pc, #0x100]
  00014	e5933440	 ldr         r3, [r3, #0x440]
  00018	e3130020	 tst         r3, #0x20
  0001c	0a000004	 beq         |$LN6@DisplayIni|
  00020	e59f0100	 ldr         r0, [pc, #0x100]
  00024	eb000000	 bl          NKDbgPrintfW
  00028	e3a03001	 mov         r3, #1
  0002c	e58d3004	 str         r3, [sp, #4]
  00030	ea000001	 b           |$LN7@DisplayIni|
  00034		 |$LN6@DisplayIni|
  00034	e3a03000	 mov         r3, #0
  00038	e58d3004	 str         r3, [sp, #4]
  0003c		 |$LN7@DisplayIni|

; 136  : 
; 137  :     // called with pszInstance set to NULL for non-PCI display drivers...
; 138  :     if (pszInstance == NULL)

  0003c	e59d301c	 ldr         r3, [sp, #0x1C]
  00040	e3530000	 cmp         r3, #0
  00044	1a00000d	 bne         |$LN3@DisplayIni|

; 139  :     {
; 140  :         pszInstance = L"System\\GDI\\Drivers";

  00048	e59f30d4	 ldr         r3, [pc, #0xD4]
  0004c	e58d301c	 str         r3, [sp, #0x1C]

; 141  :         DEBUGMSG(GPE_ZONE_INIT, (L"Display DisplayInit, NULL pszInstance, using %s\r\n", pszInstance));

  00050	e59f30c0	 ldr         r3, [pc, #0xC0]
  00054	e5933440	 ldr         r3, [r3, #0x440]
  00058	e3130020	 tst         r3, #0x20
  0005c	0a000005	 beq         |$LN8@DisplayIni|
  00060	e59d101c	 ldr         r1, [sp, #0x1C]
  00064	e59f00b4	 ldr         r0, [pc, #0xB4]
  00068	eb000000	 bl          NKDbgPrintfW
  0006c	e3a03001	 mov         r3, #1
  00070	e58d3008	 str         r3, [sp, #8]
  00074	ea000001	 b           |$LN9@DisplayIni|
  00078		 |$LN8@DisplayIni|
  00078	e3a03000	 mov         r3, #0
  0007c	e58d3008	 str         r3, [sp, #8]
  00080		 |$LN9@DisplayIni|
  00080		 |$LN3@DisplayIni|

; 142  :     }
; 143  :     
; 144  :     //  Read display driver initialization parameters
; 145  :     if( GetDeviceRegistryParams(pszInstance, &g_Globals, dimof(g_deviceRegParams),
; 146  :         g_deviceRegParams) != ERROR_SUCCESS)

  00080	e59f3094	 ldr         r3, [pc, #0x94]
  00084	e3a02012	 mov         r2, #0x12
  00088	e59f1080	 ldr         r1, [pc, #0x80]
  0008c	e59d001c	 ldr         r0, [sp, #0x1C]
  00090	eb000000	 bl          GetDeviceRegistryParams
  00094	e58d000c	 str         r0, [sp, #0xC]
  00098	e59d300c	 ldr         r3, [sp, #0xC]
  0009c	e3530000	 cmp         r3, #0
  000a0	0a00000d	 beq         |$LN2@DisplayIni|

; 147  :     {
; 148  :         DEBUGMSG(GPE_ZONE_ERROR, (L"ERROR: DisplayInit failed to read registry\r\n"));

  000a4	e59f306c	 ldr         r3, [pc, #0x6C]
  000a8	e5933440	 ldr         r3, [r3, #0x440]
  000ac	e3130001	 tst         r3, #1
  000b0	0a000004	 beq         |$LN10@DisplayIni|
  000b4	e59f0058	 ldr         r0, [pc, #0x58]
  000b8	eb000000	 bl          NKDbgPrintfW
  000bc	e3a03001	 mov         r3, #1
  000c0	e58d3010	 str         r3, [sp, #0x10]
  000c4	ea000001	 b           |$LN11@DisplayIni|
  000c8		 |$LN10@DisplayIni|
  000c8	e3a03000	 mov         r3, #0
  000cc	e58d3010	 str         r3, [sp, #0x10]
  000d0		 |$LN11@DisplayIni|

; 149  :         return FALSE;

  000d0	e3a03000	 mov         r3, #0
  000d4	e58d3000	 str         r3, [sp]
  000d8	ea000008	 b           |$LN4@DisplayIni|
  000dc		 |$LN2@DisplayIni|

; 150  :     }
; 151  :     if (pszInstance != NULL) _tcscpy(g_Globals.m_szContext, pszInstance);

  000dc	e59d301c	 ldr         r3, [sp, #0x1C]
  000e0	e3530000	 cmp         r3, #0
  000e4	0a000003	 beq         |$LN1@DisplayIni|
  000e8	e59d101c	 ldr         r1, [sp, #0x1C]
  000ec	e59f301c	 ldr         r3, [pc, #0x1C]
  000f0	e283000c	 add         r0, r3, #0xC
  000f4	eb000000	 bl          wcscpy
  000f8		 |$LN1@DisplayIni|

; 152  : 
; 153  :     return TRUE;

  000f8	e3a03001	 mov         r3, #1
  000fc	e58d3000	 str         r3, [sp]
  00100		 |$LN4@DisplayIni|

; 154  : }

  00100	e59d0000	 ldr         r0, [sp]
  00104	e28dd014	 add         sp, sp, #0x14
  00108	e89d6000	 ldmia       sp, {sp, lr}
  0010c	e12fff1e	 bx          lr
  00110		 |$LN15@DisplayIni|
  00110		 |$LN16@DisplayIni|
  00110	00000000	 DCD         |?g_Globals@@3VOMAPDDGPEGlobals@@A|
  00114		 |$LN17@DisplayIni|
  00114	00000000	 DCD         |??_C@_1FK@HPEDNOJB@?$AAE?$AAR?$AAR?$AAO?$AAR?$AA?3?$AA?5?$AAD?$AAi?$AAs?$AAp?$AAl?$AAa?$AAy?$AAI?$AAn?$AAi?$AAt?$AA?5?$AAf?$AAa?$AAi?$AAl?$AAe?$AAd?$AA?5?$AAt?$AAo?$AA?5?$AAr?$AAe?$AAa@|
  00118		 |$LN18@DisplayIni|
  00118	00000000	 DCD         |dpCurSettings|
  0011c		 |$LN19@DisplayIni|
  0011c	00000000	 DCD         |g_deviceRegParams|
  00120		 |$LN20@DisplayIni|
  00120	00000000	 DCD         |??_C@_1GE@HGLMGOCG@?$AAD?$AAi?$AAs?$AAp?$AAl?$AAa?$AAy?$AA?5?$AAD?$AAi?$AAs?$AAp?$AAl?$AAa?$AAy?$AAI?$AAn?$AAi?$AAt?$AA?0?$AA?5?$AAN?$AAU?$AAL?$AAL?$AA?5?$AAp?$AAs?$AAz?$AAI?$AAn?$AAs@|
  00124		 |$LN21@DisplayIni|
  00124	00000000	 DCD         |??_C@_1CG@BEPCNIEH@?$AAS?$AAy?$AAs?$AAt?$AAe?$AAm?$AA?2?$AAG?$AAD?$AAI?$AA?2?$AAD?$AAr?$AAi?$AAv?$AAe?$AAr?$AAs?$AA?$AA@|
  00128		 |$LN22@DisplayIni|
  00128	00000000	 DCD         |??_C@_1CM@BJNJDCBM@?$AAD?$AAi?$AAs?$AAp?$AAl?$AAa?$AAy?$AA?5?$AAD?$AAi?$AAs?$AAp?$AAl?$AAa?$AAy?$AAI?$AAn?$AAi?$AAt?$AA?$AN?$AA?6?$AA?$AA@|
  0012c		 |$M43160|

			 ENDP  ; |DisplayInit|

	EXPORT	|DrvEnableDriver|
	IMPORT	|?GPEEnableDriver@@YAHKKPAUtagDrvEnableData@@PAU_ENGCALLBACKS@@@Z| ; GPEEnableDriver

  00008			 AREA	 |.pdata|, PDATA
|$T43176| DCD	|$LN5@DrvEnableD|
	DCD	0x40001004
; Function compile flags: /Odtp

  0012c			 AREA	 |.text|, CODE, ARM

  0012c		 |DrvEnableDriver| PROC

; 164  : {

  0012c		 |$LN5@DrvEnableD|
  0012c	e1a0c00d	 mov         r12, sp
  00130	e92d000f	 stmdb       sp!, {r0 - r3}
  00134	e92d5000	 stmdb       sp!, {r12, lr}
  00138	e24dd008	 sub         sp, sp, #8
  0013c		 |$M43173|

; 165  :     return GPEEnableDriver(engineVersion, cj, data, engineCallbacks);

  0013c	e59d301c	 ldr         r3, [sp, #0x1C]
  00140	e59d2018	 ldr         r2, [sp, #0x18]
  00144	e59d1014	 ldr         r1, [sp, #0x14]
  00148	e59d0010	 ldr         r0, [sp, #0x10]
  0014c	eb000000	 bl          |?GPEEnableDriver@@YAHKKPAUtagDrvEnableData@@PAU_ENGCALLBACKS@@@Z|
  00150	e58d0004	 str         r0, [sp, #4]
  00154	e59d3004	 ldr         r3, [sp, #4]
  00158	e58d3000	 str         r3, [sp]

; 166  : }

  0015c	e59d0000	 ldr         r0, [sp]
  00160	e28dd008	 add         sp, sp, #8
  00164	e89d6000	 ldmia       sp, {sp, lr}
  00168	e12fff1e	 bx          lr
  0016c		 |$M43174|

			 ENDP  ; |DrvEnableDriver|

	EXPORT	|DrvGetMasks|

  00010			 AREA	 |.pdata|, PDATA
|$T43182| DCD	|$LN6@DrvGetMask|
	DCD	0x40001d04
; Function compile flags: /Odtp

  0016c			 AREA	 |.text|, CODE, ARM

  0016c		 |DrvGetMasks| PROC

; 175  : {

  0016c		 |$LN6@DrvGetMask|
  0016c	e1a0c00d	 mov         r12, sp
  00170	e92d0001	 stmdb       sp!, {r0}
  00174	e92d5000	 stmdb       sp!, {r12, lr}
  00178	e24dd00c	 sub         sp, sp, #0xC
  0017c		 |$M43179|

; 176  :     ULONG*  pMasks = NULL;

  0017c	e3a03000	 mov         r3, #0
  00180	e58d3000	 str         r3, [sp]

; 177  : 
; 178  :     UNREFERENCED_PARAMETER(dhpdev);
; 179  :     
; 180  :     //  Return masks for selected mode
; 181  :     if( g_pGPE )

  00184	e59f3050	 ldr         r3, [pc, #0x50]
  00188	e5933000	 ldr         r3, [r3]
  0018c	e3530000	 cmp         r3, #0
  00190	0a00000b	 beq         |$LN1@DrvGetMask|

; 182  :     {
; 183  :         pMasks = ((OMAPDDGPE*)g_pGPE)->GetMasks();

  00194	e59f3040	 ldr         r3, [pc, #0x40]
  00198	e5933000	 ldr         r3, [r3]
  0019c	e5933000	 ldr         r3, [r3]
  001a0	e28320e8	 add         r2, r3, #0xE8
  001a4	e59f3030	 ldr         r3, [pc, #0x30]
  001a8	e5930000	 ldr         r0, [r3]
  001ac	e5923000	 ldr         r3, [r2]
  001b0	e1a0e00f	 mov         lr, pc
  001b4	e12fff13	 bx          r3
  001b8	e58d0008	 str         r0, [sp, #8]
  001bc	e59d3008	 ldr         r3, [sp, #8]
  001c0	e58d3000	 str         r3, [sp]
  001c4		 |$LN1@DrvGetMask|

; 184  :     }
; 185  :     
; 186  :     //  Return
; 187  :     return pMasks;

  001c4	e59d3000	 ldr         r3, [sp]
  001c8	e58d3004	 str         r3, [sp, #4]

; 188  : }

  001cc	e59d0004	 ldr         r0, [sp, #4]
  001d0	e28dd00c	 add         sp, sp, #0xC
  001d4	e89d6000	 ldmia       sp, {sp, lr}
  001d8	e12fff1e	 bx          lr
  001dc		 |$LN7@DrvGetMask|
  001dc		 |$LN8@DrvGetMask|
  001dc	00000000	 DCD         |?g_pGPE@@3PAVDDGPE@@A|
  001e0		 |$M43180|

			 ENDP  ; |DrvGetMasks|

	EXPORT	|?getAngle@@YAKK@Z|			; getAngle

  00018			 AREA	 |.pdata|, PDATA
|$T43197| DCD	|$LN19@getAngle|
	DCD	0x40002a04
; Function compile flags: /Odtp

  001e0			 AREA	 |.text|, CODE, ARM

  001e0		 |?getAngle@@YAKK@Z| PROC		; getAngle

; 192  : {

  001e0		 |$LN19@getAngle|
  001e0	e1a0c00d	 mov         r12, sp
  001e4	e92d0001	 stmdb       sp!, {r0}
  001e8	e92d5000	 stmdb       sp!, {r12, lr}
  001ec	e24dd00c	 sub         sp, sp, #0xC
  001f0		 |$M43194|

; 193  :     DWORD angle = 0;

  001f0	e3a03000	 mov         r3, #0
  001f4	e58d3000	 str         r3, [sp]

; 194  :     switch(orientation)

  001f8	e59d3014	 ldr         r3, [sp, #0x14]
  001fc	e58d3008	 str         r3, [sp, #8]
  00200	e59d3008	 ldr         r3, [sp, #8]
  00204	e3530004	 cmp         r3, #4
  00208	8a000016	 bhi         |$LN1@getAngle|
  0020c	e59d2008	 ldr         r2, [sp, #8]
  00210	e1a03102	 mov         r3, r2, lsl #2
  00214	e083300f	 add         r3, r3, pc
  00218	e5933004	 ldr         r3, [r3, #4]
  0021c	e08ff003	 add         pc, pc, r3
  00220		 |$LN11@getAngle|
  00220		 |$LN10@getAngle|
  00220		 |$LN12@getAngle|
  00220	00000010	 DCD         0x10
  00224		 |$LN13@getAngle|
  00224	0000001c	 DCD         0x1c
  00228		 |$LN14@getAngle|
  00228	00000028	 DCD         0x28
  0022c		 |$LN15@getAngle|
  0022c	00000044	 DCD         0x44
  00230		 |$LN16@getAngle|
  00230	00000034	 DCD         0x34
  00234		 |$LN5@getAngle|

; 195  :     {
; 196  :         case DMDO_0:
; 197  :             angle=0;

  00234	e3a03000	 mov         r3, #0
  00238	e58d3000	 str         r3, [sp]

; 198  :             break;

  0023c	ea00000b	 b           |$LN6@getAngle|
  00240		 |$LN4@getAngle|

; 199  :         case DMDO_90:
; 200  :             angle=90;

  00240	e3a0305a	 mov         r3, #0x5A
  00244	e58d3000	 str         r3, [sp]

; 201  :             break;

  00248	ea000008	 b           |$LN6@getAngle|
  0024c		 |$LN3@getAngle|

; 202  :         case DMDO_180:
; 203  :             angle=180;

  0024c	e3a030b4	 mov         r3, #0xB4
  00250	e58d3000	 str         r3, [sp]

; 204  :             break;

  00254	ea000005	 b           |$LN6@getAngle|
  00258		 |$LN2@getAngle|

; 205  :         case DMDO_270:
; 206  :             angle=270;

  00258	e3a03c01	 mov         r3, #1, 24
  0025c	e383300e	 orr         r3, r3, #0xE
  00260	e58d3000	 str         r3, [sp]

; 207  :             break;

  00264	ea000001	 b           |$LN6@getAngle|
  00268		 |$LN1@getAngle|

; 208  :         default:
; 209  :             angle=0;

  00268	e3a03000	 mov         r3, #0
  0026c	e58d3000	 str         r3, [sp]
  00270		 |$LN6@getAngle|

; 210  :             break;
; 211  :     }
; 212  :     return angle;

  00270	e59d3000	 ldr         r3, [sp]
  00274	e58d3004	 str         r3, [sp, #4]

; 213  : }

  00278	e59d0004	 ldr         r0, [sp, #4]
  0027c	e28dd00c	 add         sp, sp, #0xC
  00280	e89d6000	 ldmia       sp, {sp, lr}
  00284	e12fff1e	 bx          lr
  00288		 |$M43195|

			 ENDP  ; |?getAngle@@YAKK@Z|, getAngle

	EXPORT	|?getOrientation@@YAKK@Z|		; getOrientation

  00020			 AREA	 |.pdata|, PDATA
|$T43204| DCD	|$LN13@getOrienta|
	DCD	0x40002f04
; Function compile flags: /Odtp

  00288			 AREA	 |.text|, CODE, ARM

  00288		 |?getOrientation@@YAKK@Z| PROC		; getOrientation

; 217  : {

  00288		 |$LN13@getOrienta|
  00288	e1a0c00d	 mov         r12, sp
  0028c	e92d0001	 stmdb       sp!, {r0}
  00290	e92d5000	 stmdb       sp!, {r12, lr}
  00294	e24dd00c	 sub         sp, sp, #0xC
  00298		 |$M43201|

; 218  :     DWORD orientation = 0;

  00298	e3a03000	 mov         r3, #0
  0029c	e58d3000	 str         r3, [sp]

; 219  :     switch(angle)

  002a0	e59d3014	 ldr         r3, [sp, #0x14]
  002a4	e58d3008	 str         r3, [sp, #8]
  002a8	e59d3008	 ldr         r3, [sp, #8]
  002ac	e35300b4	 cmp         r3, #0xB4
  002b0	8a000009	 bhi         |$LN10@getOrienta|
  002b4	e59d3008	 ldr         r3, [sp, #8]
  002b8	e35300b4	 cmp         r3, #0xB4
  002bc	0a000012	 beq         |$LN3@getOrienta|
  002c0	e59d3008	 ldr         r3, [sp, #8]
  002c4	e3530000	 cmp         r3, #0
  002c8	0a000009	 beq         |$LN5@getOrienta|
  002cc	e59d3008	 ldr         r3, [sp, #8]
  002d0	e353005a	 cmp         r3, #0x5A
  002d4	0a000009	 beq         |$LN4@getOrienta|
  002d8	ea000011	 b           |$LN1@getOrienta|
  002dc		 |$LN10@getOrienta|
  002dc	e59d2008	 ldr         r2, [sp, #8]
  002e0	e3a03c01	 mov         r3, #1, 24
  002e4	e383300e	 orr         r3, r3, #0xE
  002e8	e1520003	 cmp         r2, r3
  002ec	0a000009	 beq         |$LN2@getOrienta|
  002f0	ea00000b	 b           |$LN1@getOrienta|
  002f4		 |$LN5@getOrienta|

; 220  :     {
; 221  :         case 0:
; 222  :             orientation=DMDO_0;

  002f4	e3a03000	 mov         r3, #0
  002f8	e58d3000	 str         r3, [sp]

; 223  :             break;

  002fc	ea00000a	 b           |$LN6@getOrienta|
  00300		 |$LN4@getOrienta|

; 224  :         case 90:
; 225  :             orientation=DMDO_90;

  00300	e3a03001	 mov         r3, #1
  00304	e58d3000	 str         r3, [sp]

; 226  :             break;

  00308	ea000007	 b           |$LN6@getOrienta|
  0030c		 |$LN3@getOrienta|

; 227  :         case 180:
; 228  :             orientation=DMDO_180;

  0030c	e3a03002	 mov         r3, #2
  00310	e58d3000	 str         r3, [sp]

; 229  :             break;

  00314	ea000004	 b           |$LN6@getOrienta|
  00318		 |$LN2@getOrienta|

; 230  :         case 270:
; 231  :             orientation=DMDO_270;

  00318	e3a03004	 mov         r3, #4
  0031c	e58d3000	 str         r3, [sp]

; 232  :             break;

  00320	ea000001	 b           |$LN6@getOrienta|
  00324		 |$LN1@getOrienta|

; 233  :         default:
; 234  :             orientation=DMDO_0;

  00324	e3a03000	 mov         r3, #0
  00328	e58d3000	 str         r3, [sp]
  0032c		 |$LN6@getOrienta|

; 235  :             break;
; 236  :     }
; 237  :     return orientation;

  0032c	e59d3000	 ldr         r3, [sp]
  00330	e58d3004	 str         r3, [sp, #4]

; 238  : }

  00334	e59d0004	 ldr         r0, [sp, #4]
  00338	e28dd00c	 add         sp, sp, #0xC
  0033c	e89d6000	 ldmia       sp, {sp, lr}
  00340	e12fff1e	 bx          lr
  00344		 |$M43202|

			 ENDP  ; |?getOrientation@@YAKK@Z|, getOrientation

	EXPORT	|?PixelFormatToDDGPEFormat@OMAPDDGPE@@SA?AW4EDDGPEPixelFormat@@W4OMAP_DSS_PIXELFORMAT@@@Z| ; OMAPDDGPE::PixelFormatToDDGPEFormat
	EXPORT	|?PixelFormatToGPEFormat@OMAPDDGPE@@SA?AW4EGPEFormat@@W4OMAP_DSS_PIXELFORMAT@@@Z| ; OMAPDDGPE::PixelFormatToGPEFormat
	EXPORT	|?PixelFormatToBpp@OMAPDDGPE@@SAKW4OMAP_DSS_PIXELFORMAT@@@Z| ; OMAPDDGPE::PixelFormatToBpp
	EXPORT	|?GetLCDPixelFormat@OMAPDisplayController@@QAA?AW4OMAP_DSS_PIXELFORMAT@@XZ| ; OMAPDisplayController::GetLCDPixelFormat
	EXPORT	|?GetLCDHeight@OMAPDisplayController@@QAAKXZ| ; OMAPDisplayController::GetLCDHeight
	EXPORT	|?GetLCDWidth@OMAPDisplayController@@QAAKXZ| ; OMAPDisplayController::GetLCDWidth
	EXPORT	|??_C@_1FM@NGKLCFKD@?$AAE?$AAR?$AAR?$AAO?$AAR?$AA?3?$AA?5?$AAU?$AAn?$AAa?$AAb?$AAl?$AAe?$AA?5?$AAt?$AAo?$AA?5?$AAi?$AAn?$AAi?$AAt?$AAi?$AAa?$AAl?$AAi?$AAz?$AAe?$AA?5?$AAs?$AAu?$AAr?$AAf@| [ DATA ] ; `string'
	EXPORT	|??_C@_1FI@DAAEFBJG@?$AAE?$AAR?$AAR?$AAO?$AAR?$AA?3?$AA?5?$AAU?$AAn?$AAa?$AAb?$AAl?$AAe?$AA?5?$AAt?$AAo?$AA?5?$AAa?$AAl?$AAl?$AAo?$AAc?$AAa?$AAt?$AAe?$AA?5?$AAs?$AAu?$AAr?$AAf?$AAa?$AAc@| [ DATA ] ; `string'
	EXPORT	|??_C@_1FM@MHAHIEFN@?$AAE?$AAR?$AAR?$AAO?$AAR?$AA?3?$AA?5?$AAU?$AAn?$AAa?$AAb?$AAl?$AAe?$AA?5?$AAt?$AAo?$AA?5?$AAi?$AAn?$AAi?$AAt?$AAi?$AAa?$AAl?$AAi?$AAz?$AAe?$AA?5?$AAD?$AAS?$AAS?$AA?5@| [ DATA ] ; `string'
	EXPORT	|??_C@_1EE@LPEPPACB@?$AAE?$AAR?$AAR?$AAO?$AAR?$AA?3?$AA?5?$AAU?$AAn?$AAa?$AAb?$AAl?$AAe?$AA?5?$AAt?$AAo?$AA?5?$AAi?$AAn?$AAi?$AAt?$AAi?$AAa?$AAl?$AAi?$AAz?$AAe?$AA?5?$AAL?$AAC?$AAD?$AA?$AN@| [ DATA ] ; `string'
	EXPORT	|??_C@_1GC@IKJCGOEK@?$AAE?$AAR?$AAR?$AAO?$AAR?$AA?3?$AA?5?$AAU?$AAn?$AAa?$AAb?$AAl?$AAe?$AA?5?$AAt?$AAo?$AA?5?$AAi?$AAn?$AAi?$AAt?$AAi?$AAa?$AAl?$AAi?$AAz?$AAe?$AA?5?$AAd?$AAi?$AAs?$AAp@| [ DATA ] ; `string'
	EXPORT	|??_C@_1FO@GKBABLBK@?$AAE?$AAR?$AAR?$AAO?$AAR?$AA?3?$AA?5?$AAU?$AAn?$AAa?$AAb?$AAl?$AAe?$AA?5?$AAt?$AAo?$AA?5?$AAa?$AAl?$AAl?$AAo?$AAc?$AAa?$AAt?$AAe?$AA?5?$AAd?$AAi?$AAs?$AAp?$AAl?$AAa@| [ DATA ] ; `string'
	EXPORT	|??_C@_1GG@MOFFINCC@?$AAE?$AAR?$AAR?$AAO?$AAR?$AA?3?$AA?5?$AAF?$AAa?$AAi?$AAl?$AAe?$AAd?$AA?5?$AAa?$AAd?$AAv?$AAe?$AAr?$AAt?$AAi?$AAs?$AAe?$AA?5?$AAd?$AAi?$AAs?$AAp?$AAl?$AAa?$AAy?$AA?5@| [ DATA ] ; `string'
	EXPORT	|??_C@_1FK@NHLAPMED@?$AAE?$AAR?$AAR?$AAO?$AAR?$AA?3?$AA?5?$AAF?$AAa?$AAi?$AAl?$AAe?$AAd?$AA?5?$AAt?$AAo?$AA?5?$AAr?$AAe?$AAt?$AAr?$AAi?$AAe?$AAv?$AAe?$AA?5?$AAm?$AAo?$AAd?$AAu?$AAl?$AAe@| [ DATA ] ; `string'
	EXPORT	|??_C@_1HC@GOHHDCGP@?$AAE?$AAR?$AAR?$AAO?$AAR?$AA?3?$AA?5?$AAF?$AAa?$AAi?$AAl?$AAe?$AAd?$AA?5?$AAc?$AAo?$AAn?$AAv?$AAe?$AAr?$AAt?$AA?5?$AAd?$AAi?$AAs?$AAp?$AAl?$AAa?$AAy?$AA?5?$AAp?$AAo@| [ DATA ] ; `string'
	EXPORT	|??_C@_1EO@BHDHHEGO@?$AA?$HL?$AAE?$AAB?$AA9?$AA1?$AAC?$AA7?$AAC?$AA9?$AA?9?$AA8?$AAB?$AAF?$AA6?$AA?9?$AA4?$AAa?$AA2?$AAd?$AA?9?$AA9?$AAA?$AAB?$AA8?$AA?9?$AA6?$AA9?$AA7?$AA2?$AA4?$AAE?$AAE@| [ DATA ] ; `string'
	EXPORT	|??_C@_1CO@GLGGGNMB@?$AAO?$AAM?$AAA?$AAP?$AAD?$AAD?$AAG?$AAP?$AAE?$AA?3?$AA?3?$AAO?$AAM?$AAA?$AAP?$AAD?$AAD?$AAG?$AAP?$AAE?$AA?$AN?$AA?6?$AA?$AA@| [ DATA ] ; `string'
	EXPORT	|??_7OMAPDDGPE@@6B@| [ DATA ]		; OMAPDDGPE::`vftable'
	EXPORT	|__$ArrayPad$| [ DATA ]
	EXPORT	|??0OMAPDDGPE@@QAA@XZ|			; OMAPDDGPE::OMAPDDGPE
	EXPORT	|?BltPrepare@OMAPDDGPE@@UAAJPAUGPEBltParms@@@Z| ; OMAPDDGPE::BltPrepare
	EXPORT	|?BltComplete@OMAPDDGPE@@UAAJPAUGPEBltParms@@@Z| ; OMAPDDGPE::BltComplete
	EXPORT	|?Line@OMAPDDGPE@@UAAJPAUGPELineParms@@W4EGPEPhase@@@Z| ; OMAPDDGPE::Line
	EXPORT	|?SetPointerShape@OMAPDDGPE@@UAAJPAVGPESurf@@0HHHH@Z| ; OMAPDDGPE::SetPointerShape
	EXPORT	|?MovePointer@OMAPDDGPE@@UAAJHH@Z|	; OMAPDDGPE::MovePointer
	EXPORT	|?SetPalette@OMAPDDGPE@@UAAJPBUtagPALETTEENTRY@@GG@Z| ; OMAPDDGPE::SetPalette
	EXPORT	|?GetModeInfo@OMAPDDGPE@@UAAJPAUGPEMode@@H@Z| ; OMAPDDGPE::GetModeInfo
	EXPORT	|?NumModes@OMAPDDGPE@@UAAHXZ|		; OMAPDDGPE::NumModes
	EXPORT	|?SetMode@OMAPDDGPE@@UAAJHPAPAUHPALETTE__@@@Z| ; OMAPDDGPE::SetMode
	EXPORT	|?DrvEscape@OMAPDDGPE@@UAAKPAU_SURFOBJ@@KKPAXK1@Z| ; OMAPDDGPE::DrvEscape
	EXPORT	|?GetPhysicalModeId@DDGPE@@UAAKXZ|	; DDGPE::GetPhysicalModeId
	EXPORT	|?GetModeInfoEx@OMAPDDGPE@@UAAJPAUGPEModeEx@@H@Z| ; OMAPDDGPE::GetModeInfoEx
	EXPORT	|?GetDriverData@DDGPE@@UAAPAUDDGPEDriverData@@XZ| ; DDGPE::GetDriverData
	EXPORT	|?SetDriverData@DDGPE@@UAAXPAUDDGPEDriverData@@@Z| ; DDGPE::SetDriverData
	EXPORT	|?GetPrimaryPixelFormat@OMAPDDGPE@@UAA?AW4OMAP_DSS_PIXELFORMAT@@XZ| ; OMAPDDGPE::GetPrimaryPixelFormat
	EXPORT	|?GetMasks@OMAPDDGPE@@UAAPAKXZ|		; OMAPDDGPE::GetMasks
	EXPORT	|?Lock@OMAPDDGPE@@UAAXXZ|		; OMAPDDGPE::Lock
	EXPORT	|?Unlock@OMAPDDGPE@@UAAXXZ|		; OMAPDDGPE::Unlock
	EXPORT	|?DDHALInfo@OMAPDDGPE@@UAAXPAU_DDHALINFO@@K@Z| ; OMAPDDGPE::DDHALInfo
	IMPORT	|InitializeCriticalSection|
	IMPORT	|memset|
	IMPORT	|?SetSurfaceMgr@OMAPDisplayController@@QAAHPAVOMAPSurfaceManager@@@Z| ; OMAPDisplayController::SetSurfaceMgr
	IMPORT	|??0OMAPVrfbSurfaceManager@@QAA@XZ|	; OMAPVrfbSurfaceManager::OMAPVrfbSurfaceManager
	IMPORT	|??0OMAPFlatSurfaceManager@@QAA@XZ|	; OMAPFlatSurfaceManager::OMAPFlatSurfaceManager
	IMPORT	|?InitInterrupts@OMAPDisplayController@@QAAHKK@Z| ; OMAPDisplayController::InitInterrupts
	IMPORT	|?InitLCD@OMAPDisplayController@@QAAHXZ| ; OMAPDisplayController::InitLCD
	IMPORT	|?InitController@OMAPDisplayController@@QAAHHHH@Z| ; OMAPDisplayController::InitController
	IMPORT	|?DVISelect@OMAPDisplayController@@QAAHH@Z| ; OMAPDisplayController::DVISelect
	IMPORT	|LcdPdd_DVI_Enabled|
	IMPORT	|??0OMAPDisplayController@@QAA@XZ|	; OMAPDisplayController::OMAPDisplayController
	IMPORT	|??2@YAPAXI@Z|				; operator new
	IMPORT	|AdvertiseInterface|
	IMPORT	|GetModuleFileNameW|
	IMPORT	|g_hmodDisplayDll|
	IMPORT	|??0DDGPE@@QAA@XZ|			; DDGPE::DDGPE
	IMPORT	|__security_cookie|
	IMPORT	|__GSHandlerCheck|
	IMPORT	|__security_check_cookie|
	IMPORT	|??_EOMAPDDGPE@@UAAPAXI@Z|, WEAK |??_GOMAPDDGPE@@UAAPAXI@Z| ; OMAPDDGPE::`vector deleting destructor', OMAPDDGPE::`scalar deleting destructor'
	IMPORT	|?AllocSurface@OMAPDDGPE@@UAAJPAPAVGPESurf@@HHW4EGPEFormat@@H@Z| ; OMAPDDGPE::AllocSurface
	IMPORT	|?GetPalette@GPE@@UAAJPAPAUtagPALETTEENTRY@@PAG@Z| ; GPE::GetPalette
	IMPORT	|?InVBlank@OMAPDDGPE@@UAAHXZ|		; OMAPDDGPE::InVBlank
	IMPORT	|?IsPaletteSettable@GPE@@UAAHXZ|	; GPE::IsPaletteSettable
	IMPORT	|?ContrastControl@GPE@@UAAHKPAK@Z|	; GPE::ContrastControl
	IMPORT	|?PowerHandler@GPE@@UAAXH@Z|		; GPE::PowerHandler
	IMPORT	|?GetGraphicsCaps@GPE@@UAAKXZ|		; GPE::GetGraphicsCaps
	IMPORT	|?GetPhysicalVideoMemory@GPE@@UAAXPAK0@Z| ; GPE::GetPhysicalVideoMemory
	IMPORT	|?SetVisibleSurface@GPE@@UAAXPAVGPESurf@@@Z| ; GPE::SetVisibleSurface
	IMPORT	|?FlipInProgress@OMAPDDGPE@@UAAHXZ|	; OMAPDDGPE::FlipInProgress
	IMPORT	|?WaitForVBlank@OMAPDDGPE@@UAAXXZ|	; OMAPDDGPE::WaitForVBlank
	IMPORT	|?SurfaceBusyFlipping@GPE@@UAAHPAVGPESurf@@@Z| ; GPE::SurfaceBusyFlipping
	IMPORT	|?IsBusy@OMAPDDGPE@@UAAHXZ|		; OMAPDDGPE::IsBusy
	IMPORT	|?WaitForNotBusy@OMAPDDGPE@@UAAXXZ|	; OMAPDDGPE::WaitForNotBusy
	IMPORT	|?AvailableVideoMemory@GPE@@UAAKXZ|	; GPE::AvailableVideoMemory
	IMPORT	|?ScanLine@GPE@@UAAHXZ|			; GPE::ScanLine
	IMPORT	|?ProcessCommandBlock@GPE@@UAAJPAE@Z|	; GPE::ProcessCommandBlock
	IMPORT	|?GetScreenDimensions@GPE@@UAAHPAUGPEScreenProps@@@Z| ; GPE::GetScreenDimensions
	IMPORT	|?GetClearTypeRGBMasks@GPE@@UAAPAKXZ|	; GPE::GetClearTypeRGBMasks
	IMPORT	|?DisablePrimary@GPE@@UAAHXZ|		; GPE::DisablePrimary
	IMPORT	|?AllocSurface@DDGPE@@UAAJPAPAVDDGPESurf@@PAUDDGPEAllocSurfaceData@@@Z| ; DDGPE::AllocSurface
	IMPORT	|?AllocSurface@OMAPDDGPE@@UAAJPAPAVDDGPESurf@@HHW4EGPEFormat@@W4EDDGPEPixelFormat@@H@Z| ; OMAPDDGPE::AllocSurface
	IMPORT	|?AllocVideoSurface@DDGPE@@UAAJPAU_DDRAWI_DDRAWSURFACE_LCL@@PAUDDGPEAllocSurfaceData@@PAK@Z| ; DDGPE::AllocVideoSurface
	IMPORT	|?AllocVideoSurface@DDGPE@@UAAJPAPAVDDGPESurf@@PAUDDGPEAllocSurfaceData@@PAK@Z| ; DDGPE::AllocVideoSurface
	IMPORT	|?AllocVideoSurface@DDGPE@@UAAJPAU_DDRAWI_DDRAWSURFACE_LCL@@HHW4EGPEFormat@@W4EDDGPEPixelFormat@@PAK@Z| ; DDGPE::AllocVideoSurface
	IMPORT	|?AllocVideoSurface@DDGPE@@UAAJPAPAVDDGPESurf@@HHW4EGPEFormat@@W4EDDGPEPixelFormat@@PAK@Z| ; DDGPE::AllocVideoSurface
	IMPORT	|?AllocBackBuffer@DDGPE@@UAAJPAU_DDRAWI_DDRAWSURFACE_LCL@@@Z| ; DDGPE::AllocBackBuffer
	IMPORT	|?WrapSurface@DDGPE@@UAAJPAU_DDRAWI_DDRAWSURFACE_LCL@@PAUDDGPEAllocSurfaceData@@@Z| ; DDGPE::WrapSurface
	IMPORT	|?WrapSurface@DDGPE@@UAAJPAPAVDDGPESurf@@PAUDDGPEAllocSurfaceData@@@Z| ; DDGPE::WrapSurface
	IMPORT	|?WrapSurface@DDGPE@@UAAJPAU_DDRAWI_DDRAWSURFACE_LCL@@HHW4EGPEFormat@@W4EDDGPEPixelFormat@@PAEH@Z| ; DDGPE::WrapSurface
	IMPORT	|?WrapSurface@DDGPE@@UAAJPAPAVDDGPESurf@@HHW4EGPEFormat@@W4EDDGPEPixelFormat@@PAEH@Z| ; DDGPE::WrapSurface
	IMPORT	|?WrapSurface@DDGPE@@UAAJPAU_DDRAWI_DDRAWSURFACE_LCL@@HHW4EGPEFormat@@W4EDDGPEPixelFormat@@HH@Z| ; DDGPE::WrapSurface
	IMPORT	|?BltPrepare@DDGPE@@UAAJPAUDDGPEBltParms@@@Z| ; DDGPE::BltPrepare
	IMPORT	|?PerformBlt@DDGPE@@UAAJPAUDDGPEBltParms@@@Z| ; DDGPE::PerformBlt
	IMPORT	|?BltExpanded@DDGPE@@UAAJPAVDDGPESurf@@00PBUtagRECT@@1KKK@Z| ; DDGPE::BltExpanded
	IMPORT	|?BltExpanded@DDGPE@@UAAJPAVDDGPESurf@@000PAU_CLIPOBJ@@PAU_XLATEOBJ@@PBUtagRECT@@3KKK@Z| ; DDGPE::BltExpanded
	IMPORT	|?SetVisibleSurface@DDGPE@@UAAXPAVGPESurf@@KH@Z| ; DDGPE::SetVisibleSurface
	IMPORT	|?SetVisibleSurface@DDGPE@@UAAXPAVGPESurf@@H@Z| ; DDGPE::SetVisibleSurface
	IMPORT	|?DetectMode@DDGPE@@UAAJPAKKKW4EGPEFormat@@W4EDDGPEPixelFormat@@PAU_DDPIXELFORMAT@@@Z| ; DDGPE::DetectMode
	IMPORT	|?DetectPixelFormat@DDGPE@@UAAJKPAU_DDPIXELFORMAT@@PAW4EGPEFormat@@PAW4EDDGPEPixelFormat@@@Z| ; DDGPE::DetectPixelFormat
	IMPORT	|?InDisplay@DDGPE@@UAAHXZ|		; DDGPE::InDisplay
	IMPORT	|?SetMode@DDGPE@@UAAJHPAPAUHPALETTE__@@H@Z| ; DDGPE::SetMode
	IMPORT	|?AllocSurface@OMAPDDGPE@@UAAJPAPAVOMAPDDGPESurface@@W4OMAP_DSS_PIXELFORMAT@@HH@Z| ; OMAPDDGPE::AllocSurface

  00028			 AREA	 |.pdata|, PDATA
|$T43295| DCD	|$LN91@OMAPDDGPE|
	DCD	0xc0039a04

  00000			 AREA	 |.rdata|, DATA, READONLY
|??_C@_1FM@NGKLCFKD@?$AAE?$AAR?$AAR?$AAO?$AAR?$AA?3?$AA?5?$AAU?$AAn?$AAa?$AAb?$AAl?$AAe?$AA?5?$AAt?$AAo?$AA?5?$AAi?$AAn?$AAi?$AAt?$AAi?$AAa?$AAl?$AAi?$AAz?$AAe?$AA?5?$AAs?$AAu?$AAr?$AAf@| DCB "E"
	DCB	0x0, "R", 0x0, "R", 0x0, "O", 0x0, "R", 0x0, ":", 0x0, " "
	DCB	0x0, "U", 0x0, "n", 0x0, "a", 0x0, "b", 0x0, "l", 0x0, "e"
	DCB	0x0, " ", 0x0, "t", 0x0, "o", 0x0, " ", 0x0, "i", 0x0, "n"
	DCB	0x0, "i", 0x0, "t", 0x0, "i", 0x0, "a", 0x0, "l", 0x0, "i"
	DCB	0x0, "z", 0x0, "e", 0x0, " ", 0x0, "s", 0x0, "u", 0x0, "r"
	DCB	0x0, "f", 0x0, "a", 0x0, "c", 0x0, "e", 0x0, " ", 0x0, "m"
	DCB	0x0, "a", 0x0, "n", 0x0, "a", 0x0, "g", 0x0, "e", 0x0, "r"
	DCB	0x0, 0xd, 0x0, 0xa, 0x0, 0x0, 0x0	; `string'

  00000			 AREA	 |.rdata|, DATA, READONLY
|??_C@_1FI@DAAEFBJG@?$AAE?$AAR?$AAR?$AAO?$AAR?$AA?3?$AA?5?$AAU?$AAn?$AAa?$AAb?$AAl?$AAe?$AA?5?$AAt?$AAo?$AA?5?$AAa?$AAl?$AAl?$AAo?$AAc?$AAa?$AAt?$AAe?$AA?5?$AAs?$AAu?$AAr?$AAf?$AAa?$AAc@| DCB "E"
	DCB	0x0, "R", 0x0, "R", 0x0, "O", 0x0, "R", 0x0, ":", 0x0, " "
	DCB	0x0, "U", 0x0, "n", 0x0, "a", 0x0, "b", 0x0, "l", 0x0, "e"
	DCB	0x0, " ", 0x0, "t", 0x0, "o", 0x0, " ", 0x0, "a", 0x0, "l"
	DCB	0x0, "l", 0x0, "o", 0x0, "c", 0x0, "a", 0x0, "t", 0x0, "e"
	DCB	0x0, " ", 0x0, "s", 0x0, "u", 0x0, "r", 0x0, "f", 0x0, "a"
	DCB	0x0, "c", 0x0, "e", 0x0, " ", 0x0, "m", 0x0, "a", 0x0, "n"
	DCB	0x0, "a", 0x0, "g", 0x0, "e", 0x0, "r", 0x0, 0xd, 0x0, 0xa
	DCB	0x0, 0x0, 0x0				; `string'

  00000			 AREA	 |.rdata|, DATA, READONLY
|??_C@_1FM@MHAHIEFN@?$AAE?$AAR?$AAR?$AAO?$AAR?$AA?3?$AA?5?$AAU?$AAn?$AAa?$AAb?$AAl?$AAe?$AA?5?$AAt?$AAo?$AA?5?$AAi?$AAn?$AAi?$AAt?$AAi?$AAa?$AAl?$AAi?$AAz?$AAe?$AA?5?$AAD?$AAS?$AAS?$AA?5@| DCB "E"
	DCB	0x0, "R", 0x0, "R", 0x0, "O", 0x0, "R", 0x0, ":", 0x0, " "
	DCB	0x0, "U", 0x0, "n", 0x0, "a", 0x0, "b", 0x0, "l", 0x0, "e"
	DCB	0x0, " ", 0x0, "t", 0x0, "o", 0x0, " ", 0x0, "i", 0x0, "n"
	DCB	0x0, "i", 0x0, "t", 0x0, "i", 0x0, "a", 0x0, "l", 0x0, "i"
	DCB	0x0, "z", 0x0, "e", 0x0, " ", 0x0, "D", 0x0, "S", 0x0, "S"
	DCB	0x0, " ", 0x0, "i", 0x0, "n", 0x0, "t", 0x0, "e", 0x0, "r"
	DCB	0x0, "r", 0x0, "u", 0x0, "p", 0x0, "t", 0x0, "s", 0x0, "!"
	DCB	0x0, 0xd, 0x0, 0xa, 0x0, 0x0, 0x0	; `string'

  00000			 AREA	 |.rdata|, DATA, READONLY
|??_C@_1EE@LPEPPACB@?$AAE?$AAR?$AAR?$AAO?$AAR?$AA?3?$AA?5?$AAU?$AAn?$AAa?$AAb?$AAl?$AAe?$AA?5?$AAt?$AAo?$AA?5?$AAi?$AAn?$AAi?$AAt?$AAi?$AAa?$AAl?$AAi?$AAz?$AAe?$AA?5?$AAL?$AAC?$AAD?$AA?$AN@| DCB "E"
	DCB	0x0, "R", 0x0, "R", 0x0, "O", 0x0, "R", 0x0, ":", 0x0, " "
	DCB	0x0, "U", 0x0, "n", 0x0, "a", 0x0, "b", 0x0, "l", 0x0, "e"
	DCB	0x0, " ", 0x0, "t", 0x0, "o", 0x0, " ", 0x0, "i", 0x0, "n"
	DCB	0x0, "i", 0x0, "t", 0x0, "i", 0x0, "a", 0x0, "l", 0x0, "i"
	DCB	0x0, "z", 0x0, "e", 0x0, " ", 0x0, "L", 0x0, "C", 0x0, "D"
	DCB	0x0, 0xd, 0x0, 0xa, 0x0, 0x0, 0x0	; `string'

  00000			 AREA	 |.rdata|, DATA, READONLY
|??_C@_1GC@IKJCGOEK@?$AAE?$AAR?$AAR?$AAO?$AAR?$AA?3?$AA?5?$AAU?$AAn?$AAa?$AAb?$AAl?$AAe?$AA?5?$AAt?$AAo?$AA?5?$AAi?$AAn?$AAi?$AAt?$AAi?$AAa?$AAl?$AAi?$AAz?$AAe?$AA?5?$AAd?$AAi?$AAs?$AAp@| DCB "E"
	DCB	0x0, "R", 0x0, "R", 0x0, "O", 0x0, "R", 0x0, ":", 0x0, " "
	DCB	0x0, "U", 0x0, "n", 0x0, "a", 0x0, "b", 0x0, "l", 0x0, "e"
	DCB	0x0, " ", 0x0, "t", 0x0, "o", 0x0, " ", 0x0, "i", 0x0, "n"
	DCB	0x0, "i", 0x0, "t", 0x0, "i", 0x0, "a", 0x0, "l", 0x0, "i"
	DCB	0x0, "z", 0x0, "e", 0x0, " ", 0x0, "d", 0x0, "i", 0x0, "s"
	DCB	0x0, "p", 0x0, "l", 0x0, "a", 0x0, "y", 0x0, " ", 0x0, "c"
	DCB	0x0, "o", 0x0, "n", 0x0, "t", 0x0, "r", 0x0, "o", 0x0, "l"
	DCB	0x0, "l", 0x0, "e", 0x0, "r", 0x0, 0xd, 0x0, 0xa, 0x0, 0x0
	DCB	0x0					; `string'

  00000			 AREA	 |.rdata|, DATA, READONLY
|??_C@_1FO@GKBABLBK@?$AAE?$AAR?$AAR?$AAO?$AAR?$AA?3?$AA?5?$AAU?$AAn?$AAa?$AAb?$AAl?$AAe?$AA?5?$AAt?$AAo?$AA?5?$AAa?$AAl?$AAl?$AAo?$AAc?$AAa?$AAt?$AAe?$AA?5?$AAd?$AAi?$AAs?$AAp?$AAl?$AAa@| DCB "E"
	DCB	0x0, "R", 0x0, "R", 0x0, "O", 0x0, "R", 0x0, ":", 0x0, " "
	DCB	0x0, "U", 0x0, "n", 0x0, "a", 0x0, "b", 0x0, "l", 0x0, "e"
	DCB	0x0, " ", 0x0, "t", 0x0, "o", 0x0, " ", 0x0, "a", 0x0, "l"
	DCB	0x0, "l", 0x0, "o", 0x0, "c", 0x0, "a", 0x0, "t", 0x0, "e"
	DCB	0x0, " ", 0x0, "d", 0x0, "i", 0x0, "s", 0x0, "p", 0x0, "l"
	DCB	0x0, "a", 0x0, "y", 0x0, " ", 0x0, "c", 0x0, "o", 0x0, "n"
	DCB	0x0, "t", 0x0, "r", 0x0, "o", 0x0, "l", 0x0, "l", 0x0, "e"
	DCB	0x0, "r", 0x0, 0xd, 0x0, 0xa, 0x0, 0x0, 0x0 ; `string'

  00000			 AREA	 |.rdata|, DATA, READONLY
|??_C@_1GG@MOFFINCC@?$AAE?$AAR?$AAR?$AAO?$AAR?$AA?3?$AA?5?$AAF?$AAa?$AAi?$AAl?$AAe?$AAd?$AA?5?$AAa?$AAd?$AAv?$AAe?$AAr?$AAt?$AAi?$AAs?$AAe?$AA?5?$AAd?$AAi?$AAs?$AAp?$AAl?$AAa?$AAy?$AA?5@| DCB "E"
	DCB	0x0, "R", 0x0, "R", 0x0, "O", 0x0, "R", 0x0, ":", 0x0, " "
	DCB	0x0, "F", 0x0, "a", 0x0, "i", 0x0, "l", 0x0, "e", 0x0, "d"
	DCB	0x0, " ", 0x0, "a", 0x0, "d", 0x0, "v", 0x0, "e", 0x0, "r"
	DCB	0x0, "t", 0x0, "i", 0x0, "s", 0x0, "e", 0x0, " ", 0x0, "d"
	DCB	0x0, "i", 0x0, "s", 0x0, "p", 0x0, "l", 0x0, "a", 0x0, "y"
	DCB	0x0, " ", 0x0, "p", 0x0, "o", 0x0, "w", 0x0, "e", 0x0, "r"
	DCB	0x0, " ", 0x0, "c", 0x0, "l", 0x0, "a", 0x0, "s", 0x0, "s"
	DCB	0x0, " ", 0x0, "'", 0x0, "%", 0x0, "s", 0x0, "'", 0x0, 0xd
	DCB	0x0, 0xa, 0x0, 0x0, 0x0			; `string'

  00000			 AREA	 |.rdata|, DATA, READONLY
|??_C@_1FK@NHLAPMED@?$AAE?$AAR?$AAR?$AAO?$AAR?$AA?3?$AA?5?$AAF?$AAa?$AAi?$AAl?$AAe?$AAd?$AA?5?$AAt?$AAo?$AA?5?$AAr?$AAe?$AAt?$AAr?$AAi?$AAe?$AAv?$AAe?$AA?5?$AAm?$AAo?$AAd?$AAu?$AAl?$AAe@| DCB "E"
	DCB	0x0, "R", 0x0, "R", 0x0, "O", 0x0, "R", 0x0, ":", 0x0, " "
	DCB	0x0, "F", 0x0, "a", 0x0, "i", 0x0, "l", 0x0, "e", 0x0, "d"
	DCB	0x0, " ", 0x0, "t", 0x0, "o", 0x0, " ", 0x0, "r", 0x0, "e"
	DCB	0x0, "t", 0x0, "r", 0x0, "i", 0x0, "e", 0x0, "v", 0x0, "e"
	DCB	0x0, " ", 0x0, "m", 0x0, "o", 0x0, "d", 0x0, "u", 0x0, "l"
	DCB	0x0, "e", 0x0, " ", 0x0, "f", 0x0, "i", 0x0, "l", 0x0, "e"
	DCB	0x0, " ", 0x0, "n", 0x0, "a", 0x0, "m", 0x0, "e", 0x0, 0xd
	DCB	0x0, 0xa, 0x0, 0x0, 0x0			; `string'

  00000			 AREA	 |.rdata|, DATA, READONLY
|??_C@_1HC@GOHHDCGP@?$AAE?$AAR?$AAR?$AAO?$AAR?$AA?3?$AA?5?$AAF?$AAa?$AAi?$AAl?$AAe?$AAd?$AA?5?$AAc?$AAo?$AAn?$AAv?$AAe?$AAr?$AAt?$AA?5?$AAd?$AAi?$AAs?$AAp?$AAl?$AAa?$AAy?$AA?5?$AAp?$AAo@| DCB "E"
	DCB	0x0, "R", 0x0, "R", 0x0, "O", 0x0, "R", 0x0, ":", 0x0, " "
	DCB	0x0, "F", 0x0, "a", 0x0, "i", 0x0, "l", 0x0, "e", 0x0, "d"
	DCB	0x0, " ", 0x0, "c", 0x0, "o", 0x0, "n", 0x0, "v", 0x0, "e"
	DCB	0x0, "r", 0x0, "t", 0x0, " ", 0x0, "d", 0x0, "i", 0x0, "s"
	DCB	0x0, "p", 0x0, "l", 0x0, "a", 0x0, "y", 0x0, " ", 0x0, "p"
	DCB	0x0, "o", 0x0, "w", 0x0, "e", 0x0, "r", 0x0, " ", 0x0, "c"
	DCB	0x0, "l", 0x0, "a", 0x0, "s", 0x0, "s", 0x0, " ", 0x0, "'"
	DCB	0x0, "%", 0x0, "s", 0x0, "'", 0x0, " ", 0x0, "t", 0x0, "o"
	DCB	0x0, " ", 0x0, "G", 0x0, "U", 0x0, "I", 0x0, "D", 0x0, 0xd
	DCB	0x0, 0xa, 0x0, 0x0, 0x0			; `string'

  00000			 AREA	 |.rdata|, DATA, READONLY
|??_C@_1EO@BHDHHEGO@?$AA?$HL?$AAE?$AAB?$AA9?$AA1?$AAC?$AA7?$AAC?$AA9?$AA?9?$AA8?$AAB?$AAF?$AA6?$AA?9?$AA4?$AAa?$AA2?$AAd?$AA?9?$AA9?$AAA?$AAB?$AA8?$AA?9?$AA6?$AA9?$AA7?$AA2?$AA4?$AAE?$AAE@| DCB "{"
	DCB	0x0, "E", 0x0, "B", 0x0, "9", 0x0, "1", 0x0, "C", 0x0, "7"
	DCB	0x0, "C", 0x0, "9", 0x0, "-", 0x0, "8", 0x0, "B", 0x0, "F"
	DCB	0x0, "6", 0x0, "-", 0x0, "4", 0x0, "a", 0x0, "2", 0x0, "d"
	DCB	0x0, "-", 0x0, "9", 0x0, "A", 0x0, "B", 0x0, "8", 0x0, "-"
	DCB	0x0, "6", 0x0, "9", 0x0, "7", 0x0, "2", 0x0, "4", 0x0, "E"
	DCB	0x0, "E", 0x0, "D", 0x0, "9", 0x0, "7", 0x0, "D", 0x0, "1"
	DCB	0x0, "}", 0x0, 0x0, 0x0			; `string'

  00000			 AREA	 |.rdata|, DATA, READONLY
|??_C@_1CO@GLGGGNMB@?$AAO?$AAM?$AAA?$AAP?$AAD?$AAD?$AAG?$AAP?$AAE?$AA?3?$AA?3?$AAO?$AAM?$AAA?$AAP?$AAD?$AAD?$AAG?$AAP?$AAE?$AA?$AN?$AA?6?$AA?$AA@| DCB "O"
	DCB	0x0, "M", 0x0, "A", 0x0, "P", 0x0, "D", 0x0, "D", 0x0, "G"
	DCB	0x0, "P", 0x0, "E", 0x0, ":", 0x0, ":", 0x0, "O", 0x0, "M"
	DCB	0x0, "A", 0x0, "P", 0x0, "D", 0x0, "D", 0x0, "G", 0x0, "P"
	DCB	0x0, "E", 0x0, 0xd, 0x0, 0xa, 0x0, 0x0, 0x0 ; `string'

  00000			 AREA	 |.rdata|, DATA, READONLY
|??_7OMAPDDGPE@@6B@| DCD |??_EOMAPDDGPE@@UAAPAXI@Z|	; OMAPDDGPE::`vftable'
	DCD	|?BltPrepare@OMAPDDGPE@@UAAJPAUGPEBltParms@@@Z|
	DCD	|?BltComplete@OMAPDDGPE@@UAAJPAUGPEBltParms@@@Z|
	DCD	|?Line@OMAPDDGPE@@UAAJPAUGPELineParms@@W4EGPEPhase@@@Z|
	DCD	|?AllocSurface@OMAPDDGPE@@UAAJPAPAVGPESurf@@HHW4EGPEFormat@@H@Z|
	DCD	|?SetPointerShape@OMAPDDGPE@@UAAJPAVGPESurf@@0HHHH@Z|
	DCD	|?MovePointer@OMAPDDGPE@@UAAJHH@Z|
	DCD	|?SetPalette@OMAPDDGPE@@UAAJPBUtagPALETTEENTRY@@GG@Z|
	DCD	|?GetPalette@GPE@@UAAJPAPAUtagPALETTEENTRY@@PAG@Z|
	DCD	|?GetModeInfo@OMAPDDGPE@@UAAJPAUGPEMode@@H@Z|
	DCD	|?NumModes@OMAPDDGPE@@UAAHXZ|
	DCD	|?SetMode@OMAPDDGPE@@UAAJHPAPAUHPALETTE__@@@Z|
	DCD	|?InVBlank@OMAPDDGPE@@UAAHXZ|
	DCD	|?IsPaletteSettable@GPE@@UAAHXZ|
	DCD	|?ContrastControl@GPE@@UAAHKPAK@Z|
	DCD	|?PowerHandler@GPE@@UAAXH@Z|
	DCD	|?DrvEscape@OMAPDDGPE@@UAAKPAU_SURFOBJ@@KKPAXK1@Z|
	DCD	|?GetGraphicsCaps@GPE@@UAAKXZ|
	DCD	|?GetPhysicalVideoMemory@GPE@@UAAXPAK0@Z|
	DCD	|?SetVisibleSurface@GPE@@UAAXPAVGPESurf@@@Z|
	DCD	|?FlipInProgress@OMAPDDGPE@@UAAHXZ|
	DCD	|?WaitForVBlank@OMAPDDGPE@@UAAXXZ|
	DCD	|?SurfaceBusyFlipping@GPE@@UAAHPAVGPESurf@@@Z|
	DCD	|?IsBusy@OMAPDDGPE@@UAAHXZ|
	DCD	|?WaitForNotBusy@OMAPDDGPE@@UAAXXZ|
	DCD	|?AvailableVideoMemory@GPE@@UAAKXZ|
	DCD	|?ScanLine@GPE@@UAAHXZ|
	DCD	|?ProcessCommandBlock@GPE@@UAAJPAE@Z|
	DCD	|?GetScreenDimensions@GPE@@UAAHPAUGPEScreenProps@@@Z|
	DCD	|?GetClearTypeRGBMasks@GPE@@UAAPAKXZ|
	DCD	|?DisablePrimary@GPE@@UAAHXZ|
	DCD	|?AllocSurface@DDGPE@@UAAJPAPAVDDGPESurf@@PAUDDGPEAllocSurfaceData@@@Z|
	DCD	|?AllocSurface@OMAPDDGPE@@UAAJPAPAVDDGPESurf@@HHW4EGPEFormat@@W4EDDGPEPixelFormat@@H@Z|
	DCD	|?AllocVideoSurface@DDGPE@@UAAJPAU_DDRAWI_DDRAWSURFACE_LCL@@PAUDDGPEAllocSurfaceData@@PAK@Z|
	DCD	|?AllocVideoSurface@DDGPE@@UAAJPAPAVDDGPESurf@@PAUDDGPEAllocSurfaceData@@PAK@Z|
	DCD	|?AllocVideoSurface@DDGPE@@UAAJPAU_DDRAWI_DDRAWSURFACE_LCL@@HHW4EGPEFormat@@W4EDDGPEPixelFormat@@PAK@Z|
	DCD	|?AllocVideoSurface@DDGPE@@UAAJPAPAVDDGPESurf@@HHW4EGPEFormat@@W4EDDGPEPixelFormat@@PAK@Z|
	DCD	|?AllocBackBuffer@DDGPE@@UAAJPAU_DDRAWI_DDRAWSURFACE_LCL@@@Z|
	DCD	|?WrapSurface@DDGPE@@UAAJPAU_DDRAWI_DDRAWSURFACE_LCL@@PAUDDGPEAllocSurfaceData@@@Z|
	DCD	|?WrapSurface@DDGPE@@UAAJPAPAVDDGPESurf@@PAUDDGPEAllocSurfaceData@@@Z|
	DCD	|?WrapSurface@DDGPE@@UAAJPAU_DDRAWI_DDRAWSURFACE_LCL@@HHW4EGPEFormat@@W4EDDGPEPixelFormat@@PAEH@Z|
	DCD	|?WrapSurface@DDGPE@@UAAJPAPAVDDGPESurf@@HHW4EGPEFormat@@W4EDDGPEPixelFormat@@PAEH@Z|
	DCD	|?WrapSurface@DDGPE@@UAAJPAU_DDRAWI_DDRAWSURFACE_LCL@@HHW4EGPEFormat@@W4EDDGPEPixelFormat@@HH@Z|
	DCD	|?BltPrepare@DDGPE@@UAAJPAUDDGPEBltParms@@@Z|
	DCD	|?PerformBlt@DDGPE@@UAAJPAUDDGPEBltParms@@@Z|
	DCD	|?BltExpanded@DDGPE@@UAAJPAVDDGPESurf@@00PBUtagRECT@@1KKK@Z|
	DCD	|?BltExpanded@DDGPE@@UAAJPAVDDGPESurf@@000PAU_CLIPOBJ@@PAU_XLATEOBJ@@PBUtagRECT@@3KKK@Z|
	DCD	|?SetVisibleSurface@DDGPE@@UAAXPAVGPESurf@@KH@Z|
	DCD	|?SetVisibleSurface@DDGPE@@UAAXPAVGPESurf@@H@Z|
	DCD	|?DetectMode@DDGPE@@UAAJPAKKKW4EGPEFormat@@W4EDDGPEPixelFormat@@PAU_DDPIXELFORMAT@@@Z|
	DCD	|?DetectPixelFormat@DDGPE@@UAAJKPAU_DDPIXELFORMAT@@PAW4EGPEFormat@@PAW4EDDGPEPixelFormat@@@Z|
	DCD	|?GetPhysicalModeId@DDGPE@@UAAKXZ|
	DCD	|?InDisplay@DDGPE@@UAAHXZ|
	DCD	|?GetModeInfoEx@OMAPDDGPE@@UAAJPAUGPEModeEx@@H@Z|
	DCD	|?SetMode@DDGPE@@UAAJHPAPAUHPALETTE__@@H@Z|
	DCD	|?GetDriverData@DDGPE@@UAAPAUDDGPEDriverData@@XZ|
	DCD	|?SetDriverData@DDGPE@@UAAXPAUDDGPEDriverData@@@Z|
	DCD	|?GetPrimaryPixelFormat@OMAPDDGPE@@UAA?AW4OMAP_DSS_PIXELFORMAT@@XZ|
	DCD	|?GetMasks@OMAPDDGPE@@UAAPAKXZ|
	DCD	|?Lock@OMAPDDGPE@@UAAXXZ|
	DCD	|?Unlock@OMAPDDGPE@@UAAXXZ|
	DCD	|?AllocSurface@OMAPDDGPE@@UAAJPAPAVOMAPDDGPESurface@@W4OMAP_DSS_PIXELFORMAT@@HH@Z|
	DCD	|?DDHALInfo@OMAPDDGPE@@UAAXPAU_DDHALINFO@@K@Z|

  00000			 AREA	 |.xdata|, DATA
|$T43291| DCD	0xfffffee0
; Function compile flags: /Odtp

  00344			 AREA	 |.text|, CODE, ARM

  00344	00000000	 DCD         |__GSHandlerCheck|
  00348	00000000	 DCD         |$T43291|

  0034c		 |??0OMAPDDGPE@@QAA@XZ| PROC		; OMAPDDGPE::OMAPDDGPE

; 246  : {

  0034c		 |$LN91@OMAPDDGPE|
  0034c	e1a0c00d	 mov         r12, sp
  00350	e92d0001	 stmdb       sp!, {r0}
  00354	e92d5000	 stmdb       sp!, {r12, lr}
  00358	e24dde37	 sub         sp, sp, #0x37, 28
  0035c		 |$M43292|
  0035c	e59f3e4c	 ldr         r3, [pc, #0xE4C]
  00360	e5933000	 ldr         r3, [r3]
  00364	e58d325c	 str         r3, [sp, #0x25C]
  00368	e59d0378	 ldr         r0, [sp, #0x378]
  0036c	eb000000	 bl          |??0DDGPE@@QAA@XZ|
  00370	e58d0264	 str         r0, [sp, #0x264]
  00374	e59f2e30	 ldr         r2, [pc, #0xE30]
  00378	e59d3378	 ldr         r3, [sp, #0x378]
  0037c	e5832000	 str         r2, [r3]

; 247  :     GUID    guid;
; 248  :     DWORD   dwWidth,
; 249  :             dwHeight;
; 250  :     TCHAR   szTemp[MAX_PATH];
; 251  : 
; 252  :     DEBUGMSG(GPE_ZONE_INIT,(TEXT("OMAPDDGPE::OMAPDDGPE\r\n")));

  00380	e59f3df4	 ldr         r3, [pc, #0xDF4]
  00384	e5933440	 ldr         r3, [r3, #0x440]
  00388	e3130020	 tst         r3, #0x20
  0038c	0a000004	 beq         |$LN24@OMAPDDGPE|
  00390	e59f0e10	 ldr         r0, [pc, #0xE10]
  00394	eb000000	 bl          NKDbgPrintfW
  00398	e3a03001	 mov         r3, #1
  0039c	e58d3268	 str         r3, [sp, #0x268]
  003a0	ea000001	 b           |$LN25@OMAPDDGPE|
  003a4		 |$LN24@OMAPDDGPE|
  003a4	e3a03000	 mov         r3, #0
  003a8	e58d3268	 str         r3, [sp, #0x268]
  003ac		 |$LN25@OMAPDDGPE|

; 253  : 
; 254  : 
; 255  :     //  No overlay surfaces enabled
; 256  :     m_pOverlay1Surf = NULL;

  003ac	e59d3378	 ldr         r3, [sp, #0x378]
  003b0	e28320c0	 add         r2, r3, #0xC0
  003b4	e3a03000	 mov         r3, #0
  003b8	e5823000	 str         r3, [r2]

; 257  :     m_pOverlay2Surf = NULL;

  003bc	e59d3378	 ldr         r3, [sp, #0x378]
  003c0	e28320c4	 add         r2, r3, #0xC4
  003c4	e3a03000	 mov         r3, #0
  003c8	e5823000	 str         r3, [r2]

; 258  : 
; 259  :     //  No TV out surface
; 260  :     m_pTVSurf = NULL;

  003cc	e59d3378	 ldr         r3, [sp, #0x378]
  003d0	e2832f42	 add         r2, r3, #0x42, 30
  003d4	e3a03000	 mov         r3, #0
  003d8	e5823000	 str         r3, [r2]

; 261  : 
; 262  :     //  No GAPI game surface
; 263  :     m_bGameEnable = FALSE;

  003dc	e59d3378	 ldr         r3, [sp, #0x378]
  003e0	e2832f4e	 add         r2, r3, #0x4E, 30
  003e4	e3a03000	 mov         r3, #0
  003e8	e5823000	 str         r3, [r2]

; 264  :     m_bGameScale  = TRUE;

  003ec	e59d3378	 ldr         r3, [sp, #0x378]
  003f0	e2832f4f	 add         r2, r3, #0x4F, 30
  003f4	e3a03001	 mov         r3, #1
  003f8	e5823000	 str         r3, [r2]

; 265  :     m_pGameSurf   = NULL;

  003fc	e59d3378	 ldr         r3, [sp, #0x378]
  00400	e2832d05	 add         r2, r3, #5, 26
  00404	e3a03000	 mov         r3, #0
  00408	e5823000	 str         r3, [r2]

; 266  :     
; 267  :     m_bHdmiEnable = FALSE;

  0040c	e59d3378	 ldr         r3, [sp, #0x378]
  00410	e2832f51	 add         r2, r3, #0x51, 30
  00414	e3a03000	 mov         r3, #0
  00418	e5823000	 str         r3, [r2]

; 268  :     //  Defaults for TV Out settings
; 269  :     m_eTVPipeline           = OMAP_DSS_PIPELINE_VIDEO2;

  0041c	e59d3378	 ldr         r3, [sp, #0x378]
  00420	e2832f43	 add         r2, r3, #0x43, 30
  00424	e3a03002	 mov         r3, #2
  00428	e5823000	 str         r3, [r2]

; 270  : 
; 271  : 
; 272  :     // Convert display power class to GUID
; 273  :     if (!ConvertStringToGuid(PMCLASS_DISPLAY, &guid))

  0042c	e28d1000	 add         r1, sp, #0
  00430	e59f0d6c	 ldr         r0, [pc, #0xD6C]
  00434	eb000000	 bl          |?ConvertStringToGuid@@YAHPBGPAU_GUID@@@Z|
  00438	e58d026c	 str         r0, [sp, #0x26C]
  0043c	e59d326c	 ldr         r3, [sp, #0x26C]
  00440	e3530000	 cmp         r3, #0
  00444	1a00000b	 bne         |$LN21@OMAPDDGPE|

; 274  :     {
; 275  :         DEBUGMSG(GPE_ZONE_ERROR, (L"ERROR: Failed convert display power class '%s' to GUID\r\n"));

  00448	e59f3d2c	 ldr         r3, [pc, #0xD2C]
  0044c	e5933440	 ldr         r3, [r3, #0x440]
  00450	e3130001	 tst         r3, #1
  00454	0a000004	 beq         |$LN26@OMAPDDGPE|
  00458	e59f0d40	 ldr         r0, [pc, #0xD40]
  0045c	eb000000	 bl          NKDbgPrintfW
  00460	e3a03001	 mov         r3, #1
  00464	e58d3270	 str         r3, [sp, #0x270]
  00468	ea000001	 b           |$LN27@OMAPDDGPE|
  0046c		 |$LN26@OMAPDDGPE|
  0046c	e3a03000	 mov         r3, #0
  00470	e58d3270	 str         r3, [sp, #0x270]
  00474		 |$LN27@OMAPDDGPE|

; 276  :         return;

  00474	ea000336	 b           |$LN22@OMAPDDGPE|
  00478		 |$LN21@OMAPDDGPE|

; 277  :     }
; 278  : 
; 279  : 	// Get module's file name
; 280  : 	if (!GetModuleFileName(g_hmodDisplayDll, szTemp, sizeof(szTemp) / sizeof(szTemp[0])))

  00478	e3a02f41	 mov         r2, #0x41, 30
  0047c	e28d1018	 add         r1, sp, #0x18
  00480	e59f3d14	 ldr         r3, [pc, #0xD14]
  00484	e5930000	 ldr         r0, [r3]
  00488	eb000000	 bl          GetModuleFileNameW
  0048c	e58d0274	 str         r0, [sp, #0x274]
  00490	e59d3274	 ldr         r3, [sp, #0x274]
  00494	e3530000	 cmp         r3, #0
  00498	1a00000b	 bne         |$LN20@OMAPDDGPE|

; 281  : 	{
; 282  :         DEBUGMSG(GPE_ZONE_ERROR, (L"ERROR: Failed to retrieve module file name\r\n"));

  0049c	e59f3cd8	 ldr         r3, [pc, #0xCD8]
  004a0	e5933440	 ldr         r3, [r3, #0x440]
  004a4	e3130001	 tst         r3, #1
  004a8	0a000004	 beq         |$LN28@OMAPDDGPE|
  004ac	e59f0ce4	 ldr         r0, [pc, #0xCE4]
  004b0	eb000000	 bl          NKDbgPrintfW
  004b4	e3a03001	 mov         r3, #1
  004b8	e58d3278	 str         r3, [sp, #0x278]
  004bc	ea000001	 b           |$LN29@OMAPDDGPE|
  004c0		 |$LN28@OMAPDDGPE|
  004c0	e3a03000	 mov         r3, #0
  004c4	e58d3278	 str         r3, [sp, #0x278]
  004c8		 |$LN29@OMAPDDGPE|

; 283  :         return;

  004c8	ea000321	 b           |$LN22@OMAPDDGPE|
  004cc		 |$LN20@OMAPDDGPE|

; 284  : 	}
; 285  : 
; 286  :     // Advertise power class interface
; 287  :     if (!AdvertiseInterface(&guid, szTemp, TRUE))

  004cc	e3a02001	 mov         r2, #1
  004d0	e28d1018	 add         r1, sp, #0x18
  004d4	e28d0000	 add         r0, sp, #0
  004d8	eb000000	 bl          AdvertiseInterface
  004dc	e58d027c	 str         r0, [sp, #0x27C]
  004e0	e59d327c	 ldr         r3, [sp, #0x27C]
  004e4	e3530000	 cmp         r3, #0
  004e8	1a00000b	 bne         |$LN19@OMAPDDGPE|

; 288  :     {
; 289  :         DEBUGMSG(GPE_ZONE_ERROR, (L"ERROR: Failed advertise display power class '%s'\r\n"));

  004ec	e59f3c88	 ldr         r3, [pc, #0xC88]
  004f0	e5933440	 ldr         r3, [r3, #0x440]
  004f4	e3130001	 tst         r3, #1
  004f8	0a000004	 beq         |$LN30@OMAPDDGPE|
  004fc	e59f0c90	 ldr         r0, [pc, #0xC90]
  00500	eb000000	 bl          NKDbgPrintfW
  00504	e3a03001	 mov         r3, #1
  00508	e58d3280	 str         r3, [sp, #0x280]
  0050c	ea000001	 b           |$LN31@OMAPDDGPE|
  00510		 |$LN30@OMAPDDGPE|
  00510	e3a03000	 mov         r3, #0
  00514	e58d3280	 str         r3, [sp, #0x280]
  00518		 |$LN31@OMAPDDGPE|

; 290  :         return;

  00518	ea00030d	 b           |$LN22@OMAPDDGPE|
  0051c		 |$LN19@OMAPDDGPE|

; 291  :     }
; 292  : 
; 293  : 
; 294  :     //  Allocate display controller
; 295  :     m_pDisplayContr = new OMAPDisplayController();

  0051c	e3a00c05	 mov         r0, #5, 24
  00520	e380003c	 orr         r0, r0, #0x3C
  00524	eb000000	 bl          |??2@YAPAXI@Z|
  00528	e58d0284	 str         r0, [sp, #0x284]
  0052c	e59d3284	 ldr         r3, [sp, #0x284]
  00530	e58d3220	 str         r3, [sp, #0x220]
  00534	e59d3220	 ldr         r3, [sp, #0x220]
  00538	e3530000	 cmp         r3, #0
  0053c	0a000005	 beq         |$LN32@OMAPDDGPE|
  00540	e59d0220	 ldr         r0, [sp, #0x220]
  00544	eb000000	 bl          |??0OMAPDisplayController@@QAA@XZ|
  00548	e58d0288	 str         r0, [sp, #0x288]
  0054c	e59d3288	 ldr         r3, [sp, #0x288]
  00550	e58d328c	 str         r3, [sp, #0x28C]
  00554	ea000001	 b           |$LN33@OMAPDDGPE|
  00558		 |$LN32@OMAPDDGPE|
  00558	e3a03000	 mov         r3, #0
  0055c	e58d328c	 str         r3, [sp, #0x28C]
  00560		 |$LN33@OMAPDDGPE|
  00560	e59d3378	 ldr         r3, [sp, #0x378]
  00564	e28320b0	 add         r2, r3, #0xB0
  00568	e59d328c	 ldr         r3, [sp, #0x28C]
  0056c	e5823000	 str         r3, [r2]

; 296  :     if (m_pDisplayContr == NULL)

  00570	e59d3378	 ldr         r3, [sp, #0x378]
  00574	e28330b0	 add         r3, r3, #0xB0
  00578	e5933000	 ldr         r3, [r3]
  0057c	e3530000	 cmp         r3, #0
  00580	1a00000b	 bne         |$LN18@OMAPDDGPE|

; 297  :     {
; 298  :         DEBUGMSG (GPE_ZONE_ERROR, (L"ERROR: Unable to allocate display controller\r\n"));

  00584	e59f3bf0	 ldr         r3, [pc, #0xBF0]
  00588	e5933440	 ldr         r3, [r3, #0x440]
  0058c	e3130001	 tst         r3, #1
  00590	0a000004	 beq         |$LN34@OMAPDDGPE|
  00594	e59f0bf4	 ldr         r0, [pc, #0xBF4]
  00598	eb000000	 bl          NKDbgPrintfW
  0059c	e3a03001	 mov         r3, #1
  005a0	e58d3290	 str         r3, [sp, #0x290]
  005a4	ea000001	 b           |$LN35@OMAPDDGPE|
  005a8		 |$LN34@OMAPDDGPE|
  005a8	e3a03000	 mov         r3, #0
  005ac	e58d3290	 str         r3, [sp, #0x290]
  005b0		 |$LN35@OMAPDDGPE|

; 299  :         return;

  005b0	ea0002e7	 b           |$LN22@OMAPDDGPE|
  005b4		 |$LN18@OMAPDDGPE|

; 300  :     }
; 301  : 
; 302  :     // Is resize using ISP resizer enabled?
; 303  :     m_bDssIspRszEnabled = (g_Globals.m_dwDssIspRszEnabled) ? TRUE : FALSE; 

  005b4	e59f3bb8	 ldr         r3, [pc, #0xBB8]
  005b8	e593324c	 ldr         r3, [r3, #0x24C]
  005bc	e3530000	 cmp         r3, #0
  005c0	0a000002	 beq         |$LN36@OMAPDDGPE|
  005c4	e3a03001	 mov         r3, #1
  005c8	e58d3294	 str         r3, [sp, #0x294]
  005cc	ea000001	 b           |$LN37@OMAPDDGPE|
  005d0		 |$LN36@OMAPDDGPE|
  005d0	e3a03000	 mov         r3, #0
  005d4	e58d3294	 str         r3, [sp, #0x294]
  005d8		 |$LN37@OMAPDDGPE|
  005d8	e59d3378	 ldr         r3, [sp, #0x378]
  005dc	e2832f52	 add         r2, r3, #0x52, 30
  005e0	e59d3294	 ldr         r3, [sp, #0x294]
  005e4	e5823000	 str         r3, [r2]

; 304  : 
; 305  :     //  Initial settings for DVI
; 306  :     m_bDVIEnable = LcdPdd_DVI_Enabled();

  005e8	eb000000	 bl          LcdPdd_DVI_Enabled
  005ec	e58d0298	 str         r0, [sp, #0x298]
  005f0	e59d3378	 ldr         r3, [sp, #0x378]
  005f4	e2832e13	 add         r2, r3, #0x13, 28
  005f8	e59d3298	 ldr         r3, [sp, #0x298]
  005fc	e5823000	 str         r3, [r2]

; 307  :     m_pDisplayContr->DVISelect(m_bDVIEnable);

  00600	e59d3378	 ldr         r3, [sp, #0x378]
  00604	e2833e13	 add         r3, r3, #0x13, 28
  00608	e5931000	 ldr         r1, [r3]
  0060c	e59d3378	 ldr         r3, [sp, #0x378]
  00610	e28330b0	 add         r3, r3, #0xB0
  00614	e5930000	 ldr         r0, [r3]
  00618	eb000000	 bl          |?DVISelect@OMAPDisplayController@@QAAHH@Z|

; 308  :     
; 309  :     //  Setting for Gamma Correction
; 310  :     m_bEnableGammaCorr = (g_Globals.m_dwEnableGammaCorr) ? TRUE : FALSE;

  0061c	e59f3b50	 ldr         r3, [pc, #0xB50]
  00620	e5933240	 ldr         r3, [r3, #0x240]
  00624	e3530000	 cmp         r3, #0
  00628	0a000002	 beq         |$LN38@OMAPDDGPE|
  0062c	e3a03001	 mov         r3, #1
  00630	e58d329c	 str         r3, [sp, #0x29C]
  00634	ea000001	 b           |$LN39@OMAPDDGPE|
  00638		 |$LN38@OMAPDDGPE|
  00638	e3a03000	 mov         r3, #0
  0063c	e58d329c	 str         r3, [sp, #0x29C]
  00640		 |$LN39@OMAPDDGPE|
  00640	e59d3378	 ldr         r3, [sp, #0x378]
  00644	e2832f4d	 add         r2, r3, #0x4D, 30
  00648	e59d329c	 ldr         r3, [sp, #0x29C]
  0064c	e5823000	 str         r3, [r2]

; 311  : 
; 312  :     //  Initialize the controller
; 313  :     if( m_pDisplayContr->InitController(m_bEnableGammaCorr, g_Globals.m_dwEnableWaitForVerticalBlank,m_bDssIspRszEnabled) == FALSE )

  00650	e59d3378	 ldr         r3, [sp, #0x378]
  00654	e2833f52	 add         r3, r3, #0x52, 30
  00658	e5933000	 ldr         r3, [r3]
  0065c	e59f2b10	 ldr         r2, [pc, #0xB10]
  00660	e5922244	 ldr         r2, [r2, #0x244]
  00664	e59d1378	 ldr         r1, [sp, #0x378]
  00668	e2811f4d	 add         r1, r1, #0x4D, 30
  0066c	e5911000	 ldr         r1, [r1]
  00670	e59d0378	 ldr         r0, [sp, #0x378]
  00674	e28000b0	 add         r0, r0, #0xB0
  00678	e5900000	 ldr         r0, [r0]
  0067c	eb000000	 bl          |?InitController@OMAPDisplayController@@QAAHHHH@Z|
  00680	e58d02a0	 str         r0, [sp, #0x2A0]
  00684	e59d32a0	 ldr         r3, [sp, #0x2A0]
  00688	e3530000	 cmp         r3, #0
  0068c	1a000025	 bne         |$LN17@OMAPDDGPE|

; 314  :     {
; 315  :         DEBUGMSG (GPE_ZONE_ERROR, (L"ERROR: Unable to initialize display controller\r\n"));

  00690	e59f3ae4	 ldr         r3, [pc, #0xAE4]
  00694	e5933440	 ldr         r3, [r3, #0x440]
  00698	e3130001	 tst         r3, #1
  0069c	0a000004	 beq         |$LN40@OMAPDDGPE|
  006a0	e59f0ae4	 ldr         r0, [pc, #0xAE4]
  006a4	eb000000	 bl          NKDbgPrintfW
  006a8	e3a03001	 mov         r3, #1
  006ac	e58d32a4	 str         r3, [sp, #0x2A4]
  006b0	ea000001	 b           |$LN41@OMAPDDGPE|
  006b4		 |$LN40@OMAPDDGPE|
  006b4	e3a03000	 mov         r3, #0
  006b8	e58d32a4	 str         r3, [sp, #0x2A4]
  006bc		 |$LN41@OMAPDDGPE|

; 316  :         delete m_pDisplayContr;

  006bc	e59d3378	 ldr         r3, [sp, #0x378]
  006c0	e28330b0	 add         r3, r3, #0xB0
  006c4	e5933000	 ldr         r3, [r3]
  006c8	e58d3228	 str         r3, [sp, #0x228]
  006cc	e59d3228	 ldr         r3, [sp, #0x228]
  006d0	e58d3224	 str         r3, [sp, #0x224]
  006d4	e59d3224	 ldr         r3, [sp, #0x224]
  006d8	e3530000	 cmp         r3, #0
  006dc	0a00000a	 beq         |$LN42@OMAPDDGPE|
  006e0	e3a01001	 mov         r1, #1
  006e4	e59d3224	 ldr         r3, [sp, #0x224]
  006e8	e5933000	 ldr         r3, [r3]
  006ec	e59d0224	 ldr         r0, [sp, #0x224]
  006f0	e5933000	 ldr         r3, [r3]
  006f4	e1a0e00f	 mov         lr, pc
  006f8	e12fff13	 bx          r3
  006fc	e58d02a8	 str         r0, [sp, #0x2A8]
  00700	e59d32a8	 ldr         r3, [sp, #0x2A8]
  00704	e58d32ac	 str         r3, [sp, #0x2AC]
  00708	ea000001	 b           |$LN43@OMAPDDGPE|
  0070c		 |$LN42@OMAPDDGPE|
  0070c	e3a03000	 mov         r3, #0
  00710	e58d32ac	 str         r3, [sp, #0x2AC]
  00714		 |$LN43@OMAPDDGPE|

; 317  :         m_pDisplayContr = NULL;

  00714	e59d3378	 ldr         r3, [sp, #0x378]
  00718	e28320b0	 add         r2, r3, #0xB0
  0071c	e3a03000	 mov         r3, #0
  00720	e5823000	 str         r3, [r2]

; 318  :         return;

  00724	ea00028a	 b           |$LN22@OMAPDDGPE|
  00728		 |$LN17@OMAPDDGPE|

; 319  :     }
; 320  : 
; 321  :     //  Initialize the LCD
; 322  :     if( m_pDisplayContr->InitLCD() == FALSE )

  00728	e59d3378	 ldr         r3, [sp, #0x378]
  0072c	e28330b0	 add         r3, r3, #0xB0
  00730	e5930000	 ldr         r0, [r3]
  00734	eb000000	 bl          |?InitLCD@OMAPDisplayController@@QAAHXZ|
  00738	e58d02b0	 str         r0, [sp, #0x2B0]
  0073c	e59d32b0	 ldr         r3, [sp, #0x2B0]
  00740	e3530000	 cmp         r3, #0
  00744	1a000025	 bne         |$LN16@OMAPDDGPE|

; 323  :     {
; 324  :         DEBUGMSG (GPE_ZONE_ERROR, (L"ERROR: Unable to initialize LCD\r\n"));

  00748	e59f3a2c	 ldr         r3, [pc, #0xA2C]
  0074c	e5933440	 ldr         r3, [r3, #0x440]
  00750	e3130001	 tst         r3, #1
  00754	0a000004	 beq         |$LN44@OMAPDDGPE|
  00758	e59f0a28	 ldr         r0, [pc, #0xA28]
  0075c	eb000000	 bl          NKDbgPrintfW
  00760	e3a03001	 mov         r3, #1
  00764	e58d32b4	 str         r3, [sp, #0x2B4]
  00768	ea000001	 b           |$LN45@OMAPDDGPE|
  0076c		 |$LN44@OMAPDDGPE|
  0076c	e3a03000	 mov         r3, #0
  00770	e58d32b4	 str         r3, [sp, #0x2B4]
  00774		 |$LN45@OMAPDDGPE|

; 325  :         delete m_pDisplayContr;

  00774	e59d3378	 ldr         r3, [sp, #0x378]
  00778	e28330b0	 add         r3, r3, #0xB0
  0077c	e5933000	 ldr         r3, [r3]
  00780	e58d3230	 str         r3, [sp, #0x230]
  00784	e59d3230	 ldr         r3, [sp, #0x230]
  00788	e58d322c	 str         r3, [sp, #0x22C]
  0078c	e59d322c	 ldr         r3, [sp, #0x22C]
  00790	e3530000	 cmp         r3, #0
  00794	0a00000a	 beq         |$LN46@OMAPDDGPE|
  00798	e3a01001	 mov         r1, #1
  0079c	e59d322c	 ldr         r3, [sp, #0x22C]
  007a0	e5933000	 ldr         r3, [r3]
  007a4	e59d022c	 ldr         r0, [sp, #0x22C]
  007a8	e5933000	 ldr         r3, [r3]
  007ac	e1a0e00f	 mov         lr, pc
  007b0	e12fff13	 bx          r3
  007b4	e58d02b8	 str         r0, [sp, #0x2B8]
  007b8	e59d32b8	 ldr         r3, [sp, #0x2B8]
  007bc	e58d32bc	 str         r3, [sp, #0x2BC]
  007c0	ea000001	 b           |$LN47@OMAPDDGPE|
  007c4		 |$LN46@OMAPDDGPE|
  007c4	e3a03000	 mov         r3, #0
  007c8	e58d32bc	 str         r3, [sp, #0x2BC]
  007cc		 |$LN47@OMAPDDGPE|

; 326  :         m_pDisplayContr = NULL;

  007cc	e59d3378	 ldr         r3, [sp, #0x378]
  007d0	e28320b0	 add         r2, r3, #0xB0
  007d4	e3a03000	 mov         r3, #0
  007d8	e5823000	 str         r3, [r2]

; 327  :         return;

  007dc	ea00025c	 b           |$LN22@OMAPDDGPE|
  007e0		 |$LN16@OMAPDDGPE|

; 328  :     }
; 329  : 
; 330  :     //  Initialize the DSS interrupt handler
; 331  :     if( m_pDisplayContr->InitInterrupts(g_Globals.m_dwDSSIRQ, g_Globals.m_dwISTPriority) == FALSE )

  007e0	e59f398c	 ldr         r3, [pc, #0x98C]
  007e4	e593223c	 ldr         r2, [r3, #0x23C]
  007e8	e59f3984	 ldr         r3, [pc, #0x984]
  007ec	e5931238	 ldr         r1, [r3, #0x238]
  007f0	e59d3378	 ldr         r3, [sp, #0x378]
  007f4	e28330b0	 add         r3, r3, #0xB0
  007f8	e5930000	 ldr         r0, [r3]
  007fc	eb000000	 bl          |?InitInterrupts@OMAPDisplayController@@QAAHKK@Z|
  00800	e58d02c0	 str         r0, [sp, #0x2C0]
  00804	e59d32c0	 ldr         r3, [sp, #0x2C0]
  00808	e3530000	 cmp         r3, #0
  0080c	1a000025	 bne         |$LN15@OMAPDDGPE|

; 332  :     {
; 333  :         DEBUGMSG (GPE_ZONE_ERROR, (L"ERROR: Unable to initialize DSS interrupts!\r\n"));

  00810	e59f3964	 ldr         r3, [pc, #0x964]
  00814	e5933440	 ldr         r3, [r3, #0x440]
  00818	e3130001	 tst         r3, #1
  0081c	0a000004	 beq         |$LN48@OMAPDDGPE|
  00820	e59f095c	 ldr         r0, [pc, #0x95C]
  00824	eb000000	 bl          NKDbgPrintfW
  00828	e3a03001	 mov         r3, #1
  0082c	e58d32c4	 str         r3, [sp, #0x2C4]
  00830	ea000001	 b           |$LN49@OMAPDDGPE|
  00834		 |$LN48@OMAPDDGPE|
  00834	e3a03000	 mov         r3, #0
  00838	e58d32c4	 str         r3, [sp, #0x2C4]
  0083c		 |$LN49@OMAPDDGPE|

; 334  :         delete m_pDisplayContr;

  0083c	e59d3378	 ldr         r3, [sp, #0x378]
  00840	e28330b0	 add         r3, r3, #0xB0
  00844	e5933000	 ldr         r3, [r3]
  00848	e58d3238	 str         r3, [sp, #0x238]
  0084c	e59d3238	 ldr         r3, [sp, #0x238]
  00850	e58d3234	 str         r3, [sp, #0x234]
  00854	e59d3234	 ldr         r3, [sp, #0x234]
  00858	e3530000	 cmp         r3, #0
  0085c	0a00000a	 beq         |$LN50@OMAPDDGPE|
  00860	e3a01001	 mov         r1, #1
  00864	e59d3234	 ldr         r3, [sp, #0x234]
  00868	e5933000	 ldr         r3, [r3]
  0086c	e59d0234	 ldr         r0, [sp, #0x234]
  00870	e5933000	 ldr         r3, [r3]
  00874	e1a0e00f	 mov         lr, pc
  00878	e12fff13	 bx          r3
  0087c	e58d02c8	 str         r0, [sp, #0x2C8]
  00880	e59d32c8	 ldr         r3, [sp, #0x2C8]
  00884	e58d32cc	 str         r3, [sp, #0x2CC]
  00888	ea000001	 b           |$LN51@OMAPDDGPE|
  0088c		 |$LN50@OMAPDDGPE|
  0088c	e3a03000	 mov         r3, #0
  00890	e58d32cc	 str         r3, [sp, #0x2CC]
  00894		 |$LN51@OMAPDDGPE|

; 335  :         m_pDisplayContr = NULL;

  00894	e59d3378	 ldr         r3, [sp, #0x378]
  00898	e28320b0	 add         r2, r3, #0xB0
  0089c	e3a03000	 mov         r3, #0
  008a0	e5823000	 str         r3, [r2]

; 336  :         return;

  008a4	ea00022a	 b           |$LN22@OMAPDDGPE|
  008a8		 |$LN15@OMAPDDGPE|

; 337  :     }
; 338  : 
; 339  :     //  Allocate and intialize surface memory manager
; 340  :     switch( g_Globals.m_dwSurfaceMgr )

  008a8	e59f38c4	 ldr         r3, [pc, #0x8C4]
  008ac	e5933000	 ldr         r3, [r3]
  008b0	e58d32d0	 str         r3, [sp, #0x2D0]
  008b4	e59d32d0	 ldr         r3, [sp, #0x2D0]
  008b8	e3530000	 cmp         r3, #0
  008bc	0a000003	 beq         |$LN12@OMAPDDGPE|
  008c0	e59d32d0	 ldr         r3, [sp, #0x2D0]
  008c4	e3530001	 cmp         r3, #1
  008c8	0a000015	 beq         |$LN11@OMAPDDGPE|
  008cc	ea000029	 b           |$LN10@OMAPDDGPE|
  008d0		 |$LN12@OMAPDDGPE|

; 341  :     {
; 342  :         case SURFACEMGR_FLAT:
; 343  :     m_pSurfaceMgr = new OMAPFlatSurfaceManager();

  008d0	e3a00020	 mov         r0, #0x20
  008d4	eb000000	 bl          |??2@YAPAXI@Z|
  008d8	e58d02d4	 str         r0, [sp, #0x2D4]
  008dc	e59d32d4	 ldr         r3, [sp, #0x2D4]
  008e0	e58d323c	 str         r3, [sp, #0x23C]
  008e4	e59d323c	 ldr         r3, [sp, #0x23C]
  008e8	e3530000	 cmp         r3, #0
  008ec	0a000005	 beq         |$LN52@OMAPDDGPE|
  008f0	e59d023c	 ldr         r0, [sp, #0x23C]
  008f4	eb000000	 bl          |??0OMAPFlatSurfaceManager@@QAA@XZ|
  008f8	e58d02d8	 str         r0, [sp, #0x2D8]
  008fc	e59d32d8	 ldr         r3, [sp, #0x2D8]
  00900	e58d32dc	 str         r3, [sp, #0x2DC]
  00904	ea000001	 b           |$LN53@OMAPDDGPE|
  00908		 |$LN52@OMAPDDGPE|
  00908	e3a03000	 mov         r3, #0
  0090c	e58d32dc	 str         r3, [sp, #0x2DC]
  00910		 |$LN53@OMAPDDGPE|
  00910	e59d3378	 ldr         r3, [sp, #0x378]
  00914	e28320b4	 add         r2, r3, #0xB4
  00918	e59d32dc	 ldr         r3, [sp, #0x2DC]
  0091c	e5823000	 str         r3, [r2]

; 344  :             break;

  00920	ea000018	 b           |$LN13@OMAPDDGPE|
  00924		 |$LN11@OMAPDDGPE|

; 345  : 
; 346  :         case SURFACEMGR_VRFB:
; 347  :             m_pSurfaceMgr = new OMAPVrfbSurfaceManager();

  00924	e3a00024	 mov         r0, #0x24
  00928	eb000000	 bl          |??2@YAPAXI@Z|
  0092c	e58d02e0	 str         r0, [sp, #0x2E0]
  00930	e59d32e0	 ldr         r3, [sp, #0x2E0]
  00934	e58d3240	 str         r3, [sp, #0x240]
  00938	e59d3240	 ldr         r3, [sp, #0x240]
  0093c	e3530000	 cmp         r3, #0
  00940	0a000005	 beq         |$LN54@OMAPDDGPE|
  00944	e59d0240	 ldr         r0, [sp, #0x240]
  00948	eb000000	 bl          |??0OMAPVrfbSurfaceManager@@QAA@XZ|
  0094c	e58d02e4	 str         r0, [sp, #0x2E4]
  00950	e59d32e4	 ldr         r3, [sp, #0x2E4]
  00954	e58d32e8	 str         r3, [sp, #0x2E8]
  00958	ea000001	 b           |$LN55@OMAPDDGPE|
  0095c		 |$LN54@OMAPDDGPE|
  0095c	e3a03000	 mov         r3, #0
  00960	e58d32e8	 str         r3, [sp, #0x2E8]
  00964		 |$LN55@OMAPDDGPE|
  00964	e59d3378	 ldr         r3, [sp, #0x378]
  00968	e28320b4	 add         r2, r3, #0xB4
  0096c	e59d32e8	 ldr         r3, [sp, #0x2E8]
  00970	e5823000	 str         r3, [r2]

; 348  :             break;

  00974	ea000003	 b           |$LN13@OMAPDDGPE|
  00978		 |$LN10@OMAPDDGPE|

; 349  : 
; 350  :         default:
; 351  :             m_pSurfaceMgr = NULL;

  00978	e59d3378	 ldr         r3, [sp, #0x378]
  0097c	e28320b4	 add         r2, r3, #0xB4
  00980	e3a03000	 mov         r3, #0
  00984	e5823000	 str         r3, [r2]
  00988		 |$LN13@OMAPDDGPE|

; 352  :             break;
; 353  :     }
; 354  : 
; 355  :     if (m_pSurfaceMgr == NULL)

  00988	e59d3378	 ldr         r3, [sp, #0x378]
  0098c	e28330b4	 add         r3, r3, #0xB4
  00990	e5933000	 ldr         r3, [r3]
  00994	e3530000	 cmp         r3, #0
  00998	1a000025	 bne         |$LN9@OMAPDDGPE|

; 356  :     {
; 357  :         DEBUGMSG (GPE_ZONE_ERROR, (L"ERROR: Unable to allocate surface manager\r\n"));

  0099c	e59f37d8	 ldr         r3, [pc, #0x7D8]
  009a0	e5933440	 ldr         r3, [r3, #0x440]
  009a4	e3130001	 tst         r3, #1
  009a8	0a000004	 beq         |$LN56@OMAPDDGPE|
  009ac	e59f07cc	 ldr         r0, [pc, #0x7CC]
  009b0	eb000000	 bl          NKDbgPrintfW
  009b4	e3a03001	 mov         r3, #1
  009b8	e58d32ec	 str         r3, [sp, #0x2EC]
  009bc	ea000001	 b           |$LN57@OMAPDDGPE|
  009c0		 |$LN56@OMAPDDGPE|
  009c0	e3a03000	 mov         r3, #0
  009c4	e58d32ec	 str         r3, [sp, #0x2EC]
  009c8		 |$LN57@OMAPDDGPE|

; 358  :         delete m_pDisplayContr;

  009c8	e59d3378	 ldr         r3, [sp, #0x378]
  009cc	e28330b0	 add         r3, r3, #0xB0
  009d0	e5933000	 ldr         r3, [r3]
  009d4	e58d3248	 str         r3, [sp, #0x248]
  009d8	e59d3248	 ldr         r3, [sp, #0x248]
  009dc	e58d3244	 str         r3, [sp, #0x244]
  009e0	e59d3244	 ldr         r3, [sp, #0x244]
  009e4	e3530000	 cmp         r3, #0
  009e8	0a00000a	 beq         |$LN58@OMAPDDGPE|
  009ec	e3a01001	 mov         r1, #1
  009f0	e59d3244	 ldr         r3, [sp, #0x244]
  009f4	e5933000	 ldr         r3, [r3]
  009f8	e59d0244	 ldr         r0, [sp, #0x244]
  009fc	e5933000	 ldr         r3, [r3]
  00a00	e1a0e00f	 mov         lr, pc
  00a04	e12fff13	 bx          r3
  00a08	e58d02f0	 str         r0, [sp, #0x2F0]
  00a0c	e59d32f0	 ldr         r3, [sp, #0x2F0]
  00a10	e58d32f4	 str         r3, [sp, #0x2F4]
  00a14	ea000001	 b           |$LN59@OMAPDDGPE|
  00a18		 |$LN58@OMAPDDGPE|
  00a18	e3a03000	 mov         r3, #0
  00a1c	e58d32f4	 str         r3, [sp, #0x2F4]
  00a20		 |$LN59@OMAPDDGPE|

; 359  :         m_pDisplayContr = NULL;

  00a20	e59d3378	 ldr         r3, [sp, #0x378]
  00a24	e28320b0	 add         r2, r3, #0xB0
  00a28	e3a03000	 mov         r3, #0
  00a2c	e5823000	 str         r3, [r2]

; 360  :         return;

  00a30	ea0001c7	 b           |$LN22@OMAPDDGPE|
  00a34		 |$LN9@OMAPDDGPE|

; 361  :     }
; 362  : 
; 363  :     if( m_pSurfaceMgr->Initialize(g_Globals.m_dwOffscreenMemory) == FALSE )

  00a34	e59f3738	 ldr         r3, [pc, #0x738]
  00a38	e5931008	 ldr         r1, [r3, #8]
  00a3c	e59d3378	 ldr         r3, [sp, #0x378]
  00a40	e28330b4	 add         r3, r3, #0xB4
  00a44	e5932000	 ldr         r2, [r3]
  00a48	e59d3378	 ldr         r3, [sp, #0x378]
  00a4c	e28330b4	 add         r3, r3, #0xB4
  00a50	e5930000	 ldr         r0, [r3]
  00a54	e5923000	 ldr         r3, [r2]
  00a58	e2833004	 add         r3, r3, #4
  00a5c	e5933000	 ldr         r3, [r3]
  00a60	e1a0e00f	 mov         lr, pc
  00a64	e12fff13	 bx          r3
  00a68	e58d02f8	 str         r0, [sp, #0x2F8]
  00a6c	e59d32f8	 ldr         r3, [sp, #0x2F8]
  00a70	e3530000	 cmp         r3, #0
  00a74	1a00003f	 bne         |$LN8@OMAPDDGPE|

; 364  :     {
; 365  :         DEBUGMSG (GPE_ZONE_ERROR, (L"ERROR: Unable to initialize surface manager\r\n"));

  00a78	e59f36fc	 ldr         r3, [pc, #0x6FC]
  00a7c	e5933440	 ldr         r3, [r3, #0x440]
  00a80	e3130001	 tst         r3, #1
  00a84	0a000004	 beq         |$LN60@OMAPDDGPE|
  00a88	e59f06e8	 ldr         r0, [pc, #0x6E8]
  00a8c	eb000000	 bl          NKDbgPrintfW
  00a90	e3a03001	 mov         r3, #1
  00a94	e58d32fc	 str         r3, [sp, #0x2FC]
  00a98	ea000001	 b           |$LN61@OMAPDDGPE|
  00a9c		 |$LN60@OMAPDDGPE|
  00a9c	e3a03000	 mov         r3, #0
  00aa0	e58d32fc	 str         r3, [sp, #0x2FC]
  00aa4		 |$LN61@OMAPDDGPE|

; 366  :         delete m_pDisplayContr;

  00aa4	e59d3378	 ldr         r3, [sp, #0x378]
  00aa8	e28330b0	 add         r3, r3, #0xB0
  00aac	e5933000	 ldr         r3, [r3]
  00ab0	e58d3250	 str         r3, [sp, #0x250]
  00ab4	e59d3250	 ldr         r3, [sp, #0x250]
  00ab8	e58d324c	 str         r3, [sp, #0x24C]
  00abc	e59d324c	 ldr         r3, [sp, #0x24C]
  00ac0	e3530000	 cmp         r3, #0
  00ac4	0a00000a	 beq         |$LN62@OMAPDDGPE|
  00ac8	e3a01001	 mov         r1, #1
  00acc	e59d324c	 ldr         r3, [sp, #0x24C]
  00ad0	e5933000	 ldr         r3, [r3]
  00ad4	e59d024c	 ldr         r0, [sp, #0x24C]
  00ad8	e5933000	 ldr         r3, [r3]
  00adc	e1a0e00f	 mov         lr, pc
  00ae0	e12fff13	 bx          r3
  00ae4	e58d0300	 str         r0, [sp, #0x300]
  00ae8	e59d3300	 ldr         r3, [sp, #0x300]
  00aec	e58d3304	 str         r3, [sp, #0x304]
  00af0	ea000001	 b           |$LN63@OMAPDDGPE|
  00af4		 |$LN62@OMAPDDGPE|
  00af4	e3a03000	 mov         r3, #0
  00af8	e58d3304	 str         r3, [sp, #0x304]
  00afc		 |$LN63@OMAPDDGPE|

; 367  :         delete m_pSurfaceMgr;

  00afc	e59d3378	 ldr         r3, [sp, #0x378]
  00b00	e28330b4	 add         r3, r3, #0xB4
  00b04	e5933000	 ldr         r3, [r3]
  00b08	e58d3258	 str         r3, [sp, #0x258]
  00b0c	e59d3258	 ldr         r3, [sp, #0x258]
  00b10	e58d3254	 str         r3, [sp, #0x254]
  00b14	e59d3254	 ldr         r3, [sp, #0x254]
  00b18	e3530000	 cmp         r3, #0
  00b1c	0a00000a	 beq         |$LN64@OMAPDDGPE|
  00b20	e3a01001	 mov         r1, #1
  00b24	e59d3254	 ldr         r3, [sp, #0x254]
  00b28	e5933000	 ldr         r3, [r3]
  00b2c	e59d0254	 ldr         r0, [sp, #0x254]
  00b30	e5933000	 ldr         r3, [r3]
  00b34	e1a0e00f	 mov         lr, pc
  00b38	e12fff13	 bx          r3
  00b3c	e58d0308	 str         r0, [sp, #0x308]
  00b40	e59d3308	 ldr         r3, [sp, #0x308]
  00b44	e58d330c	 str         r3, [sp, #0x30C]
  00b48	ea000001	 b           |$LN65@OMAPDDGPE|
  00b4c		 |$LN64@OMAPDDGPE|
  00b4c	e3a03000	 mov         r3, #0
  00b50	e58d330c	 str         r3, [sp, #0x30C]
  00b54		 |$LN65@OMAPDDGPE|

; 368  :         m_pDisplayContr = NULL;

  00b54	e59d3378	 ldr         r3, [sp, #0x378]
  00b58	e28320b0	 add         r2, r3, #0xB0
  00b5c	e3a03000	 mov         r3, #0
  00b60	e5823000	 str         r3, [r2]

; 369  :         m_pSurfaceMgr = NULL;

  00b64	e59d3378	 ldr         r3, [sp, #0x378]
  00b68	e28320b4	 add         r2, r3, #0xB4
  00b6c	e3a03000	 mov         r3, #0
  00b70	e5823000	 str         r3, [r2]

; 370  :         return;

  00b74	ea000176	 b           |$LN22@OMAPDDGPE|
  00b78		 |$LN8@OMAPDDGPE|

; 371  :     }
; 372  : 
; 373  : 
; 374  :     //  Associate the surface manager with the display controller
; 375  :     m_pDisplayContr->SetSurfaceMgr( m_pSurfaceMgr );

  00b78	e59d3378	 ldr         r3, [sp, #0x378]
  00b7c	e28330b4	 add         r3, r3, #0xB4
  00b80	e5931000	 ldr         r1, [r3]
  00b84	e59d3378	 ldr         r3, [sp, #0x378]
  00b88	e28330b0	 add         r3, r3, #0xB0
  00b8c	e5930000	 ldr         r0, [r3]
  00b90	eb000000	 bl          |?SetSurfaceMgr@OMAPDisplayController@@QAAHPAVOMAPSurfaceManager@@@Z|

; 376  : 
; 377  :     //  Initial settings for TV out
; 378  :     m_bTVOutEnable          = (g_Globals.m_dwTVOutEnable) ? TRUE : FALSE;

  00b94	e59f35d8	 ldr         r3, [pc, #0x5D8]
  00b98	e5933214	 ldr         r3, [r3, #0x214]
  00b9c	e3530000	 cmp         r3, #0
  00ba0	0a000002	 beq         |$LN66@OMAPDDGPE|
  00ba4	e3a03001	 mov         r3, #1
  00ba8	e58d3310	 str         r3, [sp, #0x310]
  00bac	ea000001	 b           |$LN67@OMAPDDGPE|
  00bb0		 |$LN66@OMAPDDGPE|
  00bb0	e3a03000	 mov         r3, #0
  00bb4	e58d3310	 str         r3, [sp, #0x310]
  00bb8		 |$LN67@OMAPDDGPE|
  00bb8	e59d3378	 ldr         r3, [sp, #0x378]
  00bbc	e2832e11	 add         r2, r3, #0x11, 28
  00bc0	e59d3310	 ldr         r3, [sp, #0x310]
  00bc4	e5823000	 str         r3, [r2]

; 379  :     m_dwTvOut_FilterLevel   = (g_Globals.m_dwTvOut_FilterLevel <= TVOUT_SETTINGS_MAX_FILTER) ? g_Globals.m_dwTvOut_FilterLevel : TVOUT_SETTINGS_MAX_FILTER;

  00bc8	e59f35a4	 ldr         r3, [pc, #0x5A4]
  00bcc	e5933218	 ldr         r3, [r3, #0x218]
  00bd0	e3530000	 cmp         r3, #0
  00bd4	8a000003	 bhi         |$LN68@OMAPDDGPE|
  00bd8	e59f3594	 ldr         r3, [pc, #0x594]
  00bdc	e5933218	 ldr         r3, [r3, #0x218]
  00be0	e58d3314	 str         r3, [sp, #0x314]
  00be4	ea000001	 b           |$LN69@OMAPDDGPE|
  00be8		 |$LN68@OMAPDDGPE|
  00be8	e3a03000	 mov         r3, #0
  00bec	e58d3314	 str         r3, [sp, #0x314]
  00bf0		 |$LN69@OMAPDDGPE|
  00bf0	e59d3378	 ldr         r3, [sp, #0x378]
  00bf4	e2832f45	 add         r2, r3, #0x45, 30
  00bf8	e59d3314	 ldr         r3, [sp, #0x314]
  00bfc	e5823000	 str         r3, [r2]

; 380  :     m_dwTvOut_AspectRatio_W = (g_Globals.m_dwTvOut_AspectRatio_W > 0) ? g_Globals.m_dwTvOut_AspectRatio_W : 1;

  00c00	e59f356c	 ldr         r3, [pc, #0x56C]
  00c04	e593321c	 ldr         r3, [r3, #0x21C]
  00c08	e3530000	 cmp         r3, #0
  00c0c	9a000003	 bls         |$LN70@OMAPDDGPE|
  00c10	e59f355c	 ldr         r3, [pc, #0x55C]
  00c14	e593321c	 ldr         r3, [r3, #0x21C]
  00c18	e58d3318	 str         r3, [sp, #0x318]
  00c1c	ea000001	 b           |$LN71@OMAPDDGPE|
  00c20		 |$LN70@OMAPDDGPE|
  00c20	e3a03001	 mov         r3, #1
  00c24	e58d3318	 str         r3, [sp, #0x318]
  00c28		 |$LN71@OMAPDDGPE|
  00c28	e59d3378	 ldr         r3, [sp, #0x378]
  00c2c	e2832f46	 add         r2, r3, #0x46, 30
  00c30	e59d3318	 ldr         r3, [sp, #0x318]
  00c34	e5823000	 str         r3, [r2]

; 381  :     m_dwTvOut_AspectRatio_H = (g_Globals.m_dwTvOut_AspectRatio_H > 0) ? g_Globals.m_dwTvOut_AspectRatio_H : 1;

  00c38	e59f3534	 ldr         r3, [pc, #0x534]
  00c3c	e5933220	 ldr         r3, [r3, #0x220]
  00c40	e3530000	 cmp         r3, #0
  00c44	9a000003	 bls         |$LN72@OMAPDDGPE|
  00c48	e59f3524	 ldr         r3, [pc, #0x524]
  00c4c	e5933220	 ldr         r3, [r3, #0x220]
  00c50	e58d331c	 str         r3, [sp, #0x31C]
  00c54	ea000001	 b           |$LN73@OMAPDDGPE|
  00c58		 |$LN72@OMAPDDGPE|
  00c58	e3a03001	 mov         r3, #1
  00c5c	e58d331c	 str         r3, [sp, #0x31C]
  00c60		 |$LN73@OMAPDDGPE|
  00c60	e59d3378	 ldr         r3, [sp, #0x378]
  00c64	e2832f47	 add         r2, r3, #0x47, 30
  00c68	e59d331c	 ldr         r3, [sp, #0x31C]
  00c6c	e5823000	 str         r3, [r2]

; 382  :     m_dwTvOut_Resize_W      = (g_Globals.m_dwTvOut_Resize_W  <= TVOUT_SETTINGS_MAX_RESIZE) ? g_Globals.m_dwTvOut_Resize_W : TVOUT_SETTINGS_MAX_RESIZE;

  00c70	e59f34fc	 ldr         r3, [pc, #0x4FC]
  00c74	e5933224	 ldr         r3, [r3, #0x224]
  00c78	e3530064	 cmp         r3, #0x64
  00c7c	8a000003	 bhi         |$LN74@OMAPDDGPE|
  00c80	e59f34ec	 ldr         r3, [pc, #0x4EC]
  00c84	e5933224	 ldr         r3, [r3, #0x224]
  00c88	e58d3320	 str         r3, [sp, #0x320]
  00c8c	ea000001	 b           |$LN75@OMAPDDGPE|
  00c90		 |$LN74@OMAPDDGPE|
  00c90	e3a03064	 mov         r3, #0x64
  00c94	e58d3320	 str         r3, [sp, #0x320]
  00c98		 |$LN75@OMAPDDGPE|
  00c98	e59d3378	 ldr         r3, [sp, #0x378]
  00c9c	e2832e12	 add         r2, r3, #0x12, 28
  00ca0	e59d3320	 ldr         r3, [sp, #0x320]
  00ca4	e5823000	 str         r3, [r2]

; 383  :     m_dwTvOut_Resize_W      = (g_Globals.m_dwTvOut_Resize_W  >= TVOUT_SETTINGS_MIN_RESIZE) ? g_Globals.m_dwTvOut_Resize_W : TVOUT_SETTINGS_MIN_RESIZE;

  00ca8	e59f34c4	 ldr         r3, [pc, #0x4C4]
  00cac	e5933224	 ldr         r3, [r3, #0x224]
  00cb0	e3530050	 cmp         r3, #0x50
  00cb4	3a000003	 bcc         |$LN76@OMAPDDGPE|
  00cb8	e59f34b4	 ldr         r3, [pc, #0x4B4]
  00cbc	e5933224	 ldr         r3, [r3, #0x224]
  00cc0	e58d3324	 str         r3, [sp, #0x324]
  00cc4	ea000001	 b           |$LN77@OMAPDDGPE|
  00cc8		 |$LN76@OMAPDDGPE|
  00cc8	e3a03050	 mov         r3, #0x50
  00ccc	e58d3324	 str         r3, [sp, #0x324]
  00cd0		 |$LN77@OMAPDDGPE|
  00cd0	e59d3378	 ldr         r3, [sp, #0x378]
  00cd4	e2832e12	 add         r2, r3, #0x12, 28
  00cd8	e59d3324	 ldr         r3, [sp, #0x324]
  00cdc	e5823000	 str         r3, [r2]

; 384  :     m_dwTvOut_Resize_H      = (g_Globals.m_dwTvOut_Resize_H  <= TVOUT_SETTINGS_MAX_RESIZE) ? g_Globals.m_dwTvOut_Resize_H : TVOUT_SETTINGS_MAX_RESIZE;

  00ce0	e59f348c	 ldr         r3, [pc, #0x48C]
  00ce4	e5933228	 ldr         r3, [r3, #0x228]
  00ce8	e3530064	 cmp         r3, #0x64
  00cec	8a000003	 bhi         |$LN78@OMAPDDGPE|
  00cf0	e59f347c	 ldr         r3, [pc, #0x47C]
  00cf4	e5933228	 ldr         r3, [r3, #0x228]
  00cf8	e58d3328	 str         r3, [sp, #0x328]
  00cfc	ea000001	 b           |$LN79@OMAPDDGPE|
  00d00		 |$LN78@OMAPDDGPE|
  00d00	e3a03064	 mov         r3, #0x64
  00d04	e58d3328	 str         r3, [sp, #0x328]
  00d08		 |$LN79@OMAPDDGPE|
  00d08	e59d3378	 ldr         r3, [sp, #0x378]
  00d0c	e2832f49	 add         r2, r3, #0x49, 30
  00d10	e59d3328	 ldr         r3, [sp, #0x328]
  00d14	e5823000	 str         r3, [r2]

; 385  :     m_dwTvOut_Resize_H      = (g_Globals.m_dwTvOut_Resize_H  >= TVOUT_SETTINGS_MIN_RESIZE) ? g_Globals.m_dwTvOut_Resize_H : TVOUT_SETTINGS_MIN_RESIZE;

  00d18	e59f3454	 ldr         r3, [pc, #0x454]
  00d1c	e5933228	 ldr         r3, [r3, #0x228]
  00d20	e3530050	 cmp         r3, #0x50
  00d24	3a000003	 bcc         |$LN80@OMAPDDGPE|
  00d28	e59f3444	 ldr         r3, [pc, #0x444]
  00d2c	e5933228	 ldr         r3, [r3, #0x228]
  00d30	e58d332c	 str         r3, [sp, #0x32C]
  00d34	ea000001	 b           |$LN81@OMAPDDGPE|
  00d38		 |$LN80@OMAPDDGPE|
  00d38	e3a03050	 mov         r3, #0x50
  00d3c	e58d332c	 str         r3, [sp, #0x32C]
  00d40		 |$LN81@OMAPDDGPE|
  00d40	e59d3378	 ldr         r3, [sp, #0x378]
  00d44	e2832f49	 add         r2, r3, #0x49, 30
  00d48	e59d332c	 ldr         r3, [sp, #0x32C]
  00d4c	e5823000	 str         r3, [r2]

; 386  :     m_lTvOut_Offset_W       = g_Globals.m_lTvOut_Offset_W;      

  00d50	e59d3378	 ldr         r3, [sp, #0x378]
  00d54	e2832f4a	 add         r2, r3, #0x4A, 30
  00d58	e59f3414	 ldr         r3, [pc, #0x414]
  00d5c	e593322c	 ldr         r3, [r3, #0x22C]
  00d60	e5823000	 str         r3, [r2]

; 387  :     m_lTvOut_Offset_H       = g_Globals.m_lTvOut_Offset_H;      

  00d64	e59d3378	 ldr         r3, [sp, #0x378]
  00d68	e2832f4b	 add         r2, r3, #0x4B, 30
  00d6c	e59f3400	 ldr         r3, [pc, #0x400]
  00d70	e5933230	 ldr         r3, [r3, #0x230]
  00d74	e5823000	 str         r3, [r2]

; 388  :     
; 389  :     //  Check for initial screen orientation
; 390  :     if( m_pSurfaceMgr->SupportsRotation() == TRUE )

  00d78	e59d3378	 ldr         r3, [sp, #0x378]
  00d7c	e28330b4	 add         r3, r3, #0xB4
  00d80	e5932000	 ldr         r2, [r3]
  00d84	e59d3378	 ldr         r3, [sp, #0x378]
  00d88	e28330b4	 add         r3, r3, #0xB4
  00d8c	e5930000	 ldr         r0, [r3]
  00d90	e5923000	 ldr         r3, [r2]
  00d94	e2833020	 add         r3, r3, #0x20
  00d98	e5933000	 ldr         r3, [r3]
  00d9c	e1a0e00f	 mov         lr, pc
  00da0	e12fff13	 bx          r3
  00da4	e58d0330	 str         r0, [sp, #0x330]
  00da8	e59d3330	 ldr         r3, [sp, #0x330]
  00dac	e3530001	 cmp         r3, #1
  00db0	1a00004d	 bne         |$LN7@OMAPDDGPE|

; 391  :     {
; 392  :         //  Set initial rotation angle
; 393  :         switch( g_Globals.m_dwRotationAngle )

  00db4	e59f33b8	 ldr         r3, [pc, #0x3B8]
  00db8	e5933004	 ldr         r3, [r3, #4]
  00dbc	e58d3334	 str         r3, [sp, #0x334]
  00dc0	e59d3334	 ldr         r3, [sp, #0x334]
  00dc4	e3530004	 cmp         r3, #4
  00dc8	8a000031	 bhi         |$LN2@OMAPDDGPE|
  00dcc	e59d2334	 ldr         r2, [sp, #0x334]
  00dd0	e1a03102	 mov         r3, r2, lsl #2
  00dd4	e083300f	 add         r3, r3, pc
  00dd8	e5933004	 ldr         r3, [r3, #4]
  00ddc	e08ff003	 add         pc, pc, r3
  00de0		 |$LN83@OMAPDDGPE|
  00de0		 |$LN82@OMAPDDGPE|
  00de0		 |$LN84@OMAPDDGPE|
  00de0	00000010	 DCD         0x10
  00de4		 |$LN85@OMAPDDGPE|
  00de4	00000060	 DCD         0x60
  00de8		 |$LN86@OMAPDDGPE|
  00de8	00000010	 DCD         0x10
  00dec		 |$LN87@OMAPDDGPE|
  00dec	000000b0	 DCD         0xb0
  00df0		 |$LN88@OMAPDDGPE|
  00df0	00000060	 DCD         0x60
  00df4		 |$LN4@OMAPDDGPE|

; 394  :         {
; 395  :             case DMDO_0:
; 396  :             case DMDO_180:
; 397  :                 //  Valid rotation values
; 398  :                 m_iGraphicsRotate = g_Globals.m_dwRotationAngle;

  00df4	e59d3378	 ldr         r3, [sp, #0x378]
  00df8	e2832098	 add         r2, r3, #0x98
  00dfc	e59f3370	 ldr         r3, [pc, #0x370]
  00e00	e5933004	 ldr         r3, [r3, #4]
  00e04	e5823000	 str         r3, [r2]

; 399  :                 dwWidth  = m_pDisplayContr->GetLCDWidth();

  00e08	e59d3378	 ldr         r3, [sp, #0x378]
  00e0c	e28330b0	 add         r3, r3, #0xB0
  00e10	e5930000	 ldr         r0, [r3]
  00e14	eb000000	 bl          |?GetLCDWidth@OMAPDisplayController@@QAAKXZ|
  00e18	e58d0338	 str         r0, [sp, #0x338]
  00e1c	e59d3338	 ldr         r3, [sp, #0x338]
  00e20	e58d3014	 str         r3, [sp, #0x14]

; 400  :                 dwHeight = m_pDisplayContr->GetLCDHeight();

  00e24	e59d3378	 ldr         r3, [sp, #0x378]
  00e28	e28330b0	 add         r3, r3, #0xB0
  00e2c	e5930000	 ldr         r0, [r3]
  00e30	eb000000	 bl          |?GetLCDHeight@OMAPDisplayController@@QAAKXZ|
  00e34	e58d033c	 str         r0, [sp, #0x33C]
  00e38	e59d333c	 ldr         r3, [sp, #0x33C]
  00e3c	e58d3010	 str         r3, [sp, #0x10]

; 401  :                 break;

  00e40	ea000028	 b           |$LN5@OMAPDDGPE|
  00e44		 |$LN3@OMAPDDGPE|

; 402  : 
; 403  :             case DMDO_90:
; 404  :             case DMDO_270:
; 405  :                 //  Valid rotation values
; 406  :                 m_iGraphicsRotate = g_Globals.m_dwRotationAngle;

  00e44	e59d3378	 ldr         r3, [sp, #0x378]
  00e48	e2832098	 add         r2, r3, #0x98
  00e4c	e59f3320	 ldr         r3, [pc, #0x320]
  00e50	e5933004	 ldr         r3, [r3, #4]
  00e54	e5823000	 str         r3, [r2]

; 407  :                 dwWidth  = m_pDisplayContr->GetLCDHeight();

  00e58	e59d3378	 ldr         r3, [sp, #0x378]
  00e5c	e28330b0	 add         r3, r3, #0xB0
  00e60	e5930000	 ldr         r0, [r3]
  00e64	eb000000	 bl          |?GetLCDHeight@OMAPDisplayController@@QAAKXZ|
  00e68	e58d0340	 str         r0, [sp, #0x340]
  00e6c	e59d3340	 ldr         r3, [sp, #0x340]
  00e70	e58d3014	 str         r3, [sp, #0x14]

; 408  :                 dwHeight = m_pDisplayContr->GetLCDWidth();

  00e74	e59d3378	 ldr         r3, [sp, #0x378]
  00e78	e28330b0	 add         r3, r3, #0xB0
  00e7c	e5930000	 ldr         r0, [r3]
  00e80	eb000000	 bl          |?GetLCDWidth@OMAPDisplayController@@QAAKXZ|
  00e84	e58d0344	 str         r0, [sp, #0x344]
  00e88	e59d3344	 ldr         r3, [sp, #0x344]
  00e8c	e58d3010	 str         r3, [sp, #0x10]

; 409  :                 break;

  00e90	ea000014	 b           |$LN5@OMAPDDGPE|
  00e94		 |$LN2@OMAPDDGPE|

; 410  :                 
; 411  :             default:
; 412  :                 //  Default to angle 0                
; 413  :                 m_iGraphicsRotate = DMDO_0;

  00e94	e59d3378	 ldr         r3, [sp, #0x378]
  00e98	e2832098	 add         r2, r3, #0x98
  00e9c	e3a03000	 mov         r3, #0
  00ea0	e5823000	 str         r3, [r2]

; 414  :                 g_Globals.m_dwRotationAngle = DMDO_0;

  00ea4	e59f22c8	 ldr         r2, [pc, #0x2C8]
  00ea8	e3a03000	 mov         r3, #0
  00eac	e5823004	 str         r3, [r2, #4]

; 415  :                 dwWidth  = m_pDisplayContr->GetLCDWidth();

  00eb0	e59d3378	 ldr         r3, [sp, #0x378]
  00eb4	e28330b0	 add         r3, r3, #0xB0
  00eb8	e5930000	 ldr         r0, [r3]
  00ebc	eb000000	 bl          |?GetLCDWidth@OMAPDisplayController@@QAAKXZ|
  00ec0	e58d0348	 str         r0, [sp, #0x348]
  00ec4	e59d3348	 ldr         r3, [sp, #0x348]
  00ec8	e58d3014	 str         r3, [sp, #0x14]

; 416  :                 dwHeight = m_pDisplayContr->GetLCDHeight();

  00ecc	e59d3378	 ldr         r3, [sp, #0x378]
  00ed0	e28330b0	 add         r3, r3, #0xB0
  00ed4	e5930000	 ldr         r0, [r3]
  00ed8	eb000000	 bl          |?GetLCDHeight@OMAPDisplayController@@QAAKXZ|
  00edc	e58d034c	 str         r0, [sp, #0x34C]
  00ee0	e59d334c	 ldr         r3, [sp, #0x34C]
  00ee4	e58d3010	 str         r3, [sp, #0x10]
  00ee8		 |$LN5@OMAPDDGPE|

; 417  :                 break;
; 418  :         }
; 419  :     }
; 420  :     else

  00ee8	ea000014	 b           |$LN1@OMAPDDGPE|
  00eec		 |$LN7@OMAPDDGPE|

; 421  :     {
; 422  :         //  Default values for non-rotatable surface managers
; 423  :         m_iGraphicsRotate = DMDO_0;

  00eec	e59d3378	 ldr         r3, [sp, #0x378]
  00ef0	e2832098	 add         r2, r3, #0x98
  00ef4	e3a03000	 mov         r3, #0
  00ef8	e5823000	 str         r3, [r2]

; 424  :         g_Globals.m_dwRotationAngle = DMDO_0;

  00efc	e59f2270	 ldr         r2, [pc, #0x270]
  00f00	e3a03000	 mov         r3, #0
  00f04	e5823004	 str         r3, [r2, #4]

; 425  :         dwWidth  = m_pDisplayContr->GetLCDWidth();

  00f08	e59d3378	 ldr         r3, [sp, #0x378]
  00f0c	e28330b0	 add         r3, r3, #0xB0
  00f10	e5930000	 ldr         r0, [r3]
  00f14	eb000000	 bl          |?GetLCDWidth@OMAPDisplayController@@QAAKXZ|
  00f18	e58d0350	 str         r0, [sp, #0x350]
  00f1c	e59d3350	 ldr         r3, [sp, #0x350]
  00f20	e58d3014	 str         r3, [sp, #0x14]

; 426  :         dwHeight = m_pDisplayContr->GetLCDHeight();

  00f24	e59d3378	 ldr         r3, [sp, #0x378]
  00f28	e28330b0	 add         r3, r3, #0xB0
  00f2c	e5930000	 ldr         r0, [r3]
  00f30	eb000000	 bl          |?GetLCDHeight@OMAPDisplayController@@QAAKXZ|
  00f34	e58d0354	 str         r0, [sp, #0x354]
  00f38	e59d3354	 ldr         r3, [sp, #0x354]
  00f3c	e58d3010	 str         r3, [sp, #0x10]
  00f40		 |$LN1@OMAPDDGPE|

; 427  :     }
; 428  : 
; 429  : 
; 430  :     //  Update GPE attributes to match LCD defaults
; 431  :     m_nScreenWidth  = dwWidth;

  00f40	e59d3378	 ldr         r3, [sp, #0x378]
  00f44	e2832008	 add         r2, r3, #8
  00f48	e59d3014	 ldr         r3, [sp, #0x14]
  00f4c	e5823000	 str         r3, [r2]

; 432  :     m_nScreenHeight = dwHeight;

  00f50	e59d3378	 ldr         r3, [sp, #0x378]
  00f54	e283200c	 add         r2, r3, #0xC
  00f58	e59d3010	 ldr         r3, [sp, #0x10]
  00f5c	e5823000	 str         r3, [r2]

; 433  :     
; 434  :     m_pModeEx = &m_gpeDefaultMode;

  00f60	e59d3378	 ldr         r3, [sp, #0x378]
  00f64	e2832040	 add         r2, r3, #0x40
  00f68	e59d3378	 ldr         r3, [sp, #0x378]
  00f6c	e2833024	 add         r3, r3, #0x24
  00f70	e5832000	 str         r2, [r3]

; 435  :     m_pMode = &m_gpeDefaultMode.modeInfo;

  00f74	e59d3378	 ldr         r3, [sp, #0x378]
  00f78	e2832040	 add         r2, r3, #0x40
  00f7c	e59d3378	 ldr         r3, [sp, #0x378]
  00f80	e2833010	 add         r3, r3, #0x10
  00f84	e5832000	 str         r2, [r3]

; 436  :     memset(m_pModeEx, 0, sizeof(GPEModeEx));

  00f88	e3a02058	 mov         r2, #0x58
  00f8c	e3a01000	 mov         r1, #0
  00f90	e59d3378	 ldr         r3, [sp, #0x378]
  00f94	e2833024	 add         r3, r3, #0x24
  00f98	e5930000	 ldr         r0, [r3]
  00f9c	eb000000	 bl          memset

; 437  :     m_pModeEx->dwSize = sizeof(GPEModeEx);

  00fa0	e59d3378	 ldr         r3, [sp, #0x378]
  00fa4	e2833024	 add         r3, r3, #0x24
  00fa8	e5933000	 ldr         r3, [r3]
  00fac	e2832018	 add         r2, r3, #0x18
  00fb0	e3a03058	 mov         r3, #0x58
  00fb4	e5823000	 str         r3, [r2]

; 438  :     m_pModeEx->dwVersion = GPEMODEEX_CURRENTVERSION;

  00fb8	e59d3378	 ldr         r3, [sp, #0x378]
  00fbc	e2833024	 add         r3, r3, #0x24
  00fc0	e5933000	 ldr         r3, [r3]
  00fc4	e2832020	 add         r2, r3, #0x20
  00fc8	e3a03000	 mov         r3, #0
  00fcc	e5823000	 str         r3, [r2]

; 439  : 
; 440  :     m_pMode->modeId = 0;

  00fd0	e59d3378	 ldr         r3, [sp, #0x378]
  00fd4	e2833010	 add         r3, r3, #0x10
  00fd8	e5932000	 ldr         r2, [r3]
  00fdc	e3a03000	 mov         r3, #0
  00fe0	e5823000	 str         r3, [r2]

; 441  :     m_pMode->width = dwWidth;

  00fe4	e59d3378	 ldr         r3, [sp, #0x378]
  00fe8	e2833010	 add         r3, r3, #0x10
  00fec	e5933000	 ldr         r3, [r3]
  00ff0	e2832004	 add         r2, r3, #4
  00ff4	e59d3014	 ldr         r3, [sp, #0x14]
  00ff8	e5823000	 str         r3, [r2]

; 442  :     m_pMode->height = dwHeight;

  00ffc	e59d3378	 ldr         r3, [sp, #0x378]
  01000	e2833010	 add         r3, r3, #0x10
  01004	e5933000	 ldr         r3, [r3]
  01008	e2832008	 add         r2, r3, #8
  0100c	e59d3010	 ldr         r3, [sp, #0x10]
  01010	e5823000	 str         r3, [r2]

; 443  :     m_pMode->frequency = 60;

  01014	e59d3378	 ldr         r3, [sp, #0x378]
  01018	e2833010	 add         r3, r3, #0x10
  0101c	e5933000	 ldr         r3, [r3]
  01020	e2832010	 add         r2, r3, #0x10
  01024	e3a0303c	 mov         r3, #0x3C
  01028	e5823000	 str         r3, [r2]

; 444  :     m_pMode->Bpp = OMAPDDGPE::PixelFormatToBpp(m_pDisplayContr->GetLCDPixelFormat());

  0102c	e59d3378	 ldr         r3, [sp, #0x378]
  01030	e28330b0	 add         r3, r3, #0xB0
  01034	e5930000	 ldr         r0, [r3]
  01038	eb000000	 bl          |?GetLCDPixelFormat@OMAPDisplayController@@QAA?AW4OMAP_DSS_PIXELFORMAT@@XZ|
  0103c	e58d0358	 str         r0, [sp, #0x358]
  01040	e59d0358	 ldr         r0, [sp, #0x358]
  01044	eb000000	 bl          |?PixelFormatToBpp@OMAPDDGPE@@SAKW4OMAP_DSS_PIXELFORMAT@@@Z|
  01048	e58d035c	 str         r0, [sp, #0x35C]
  0104c	e59d3378	 ldr         r3, [sp, #0x378]
  01050	e2833010	 add         r3, r3, #0x10
  01054	e5933000	 ldr         r3, [r3]
  01058	e283200c	 add         r2, r3, #0xC
  0105c	e59d335c	 ldr         r3, [sp, #0x35C]
  01060	e5823000	 str         r3, [r2]

; 445  :     m_pMode->format = OMAPDDGPE::PixelFormatToGPEFormat(m_pDisplayContr->GetLCDPixelFormat());

  01064	e59d3378	 ldr         r3, [sp, #0x378]
  01068	e28330b0	 add         r3, r3, #0xB0
  0106c	e5930000	 ldr         r0, [r3]
  01070	eb000000	 bl          |?GetLCDPixelFormat@OMAPDisplayController@@QAA?AW4OMAP_DSS_PIXELFORMAT@@XZ|
  01074	e58d0360	 str         r0, [sp, #0x360]
  01078	e59d0360	 ldr         r0, [sp, #0x360]
  0107c	eb000000	 bl          |?PixelFormatToGPEFormat@OMAPDDGPE@@SA?AW4EGPEFormat@@W4OMAP_DSS_PIXELFORMAT@@@Z|
  01080	e58d0364	 str         r0, [sp, #0x364]
  01084	e59d3378	 ldr         r3, [sp, #0x378]
  01088	e2833010	 add         r3, r3, #0x10
  0108c	e5933000	 ldr         r3, [r3]
  01090	e2832014	 add         r2, r3, #0x14
  01094	e59d3364	 ldr         r3, [sp, #0x364]
  01098	e5823000	 str         r3, [r2]

; 446  :     m_pModeEx->ePixelFormat = OMAPDDGPE::PixelFormatToDDGPEFormat(m_pDisplayContr->GetLCDPixelFormat());

  0109c	e59d3378	 ldr         r3, [sp, #0x378]
  010a0	e28330b0	 add         r3, r3, #0xB0
  010a4	e5930000	 ldr         r0, [r3]
  010a8	eb000000	 bl          |?GetLCDPixelFormat@OMAPDisplayController@@QAA?AW4OMAP_DSS_PIXELFORMAT@@XZ|
  010ac	e58d0368	 str         r0, [sp, #0x368]
  010b0	e59d0368	 ldr         r0, [sp, #0x368]
  010b4	eb000000	 bl          |?PixelFormatToDDGPEFormat@OMAPDDGPE@@SA?AW4EDDGPEPixelFormat@@W4OMAP_DSS_PIXELFORMAT@@@Z|
  010b8	e58d036c	 str         r0, [sp, #0x36C]
  010bc	e59d3378	 ldr         r3, [sp, #0x378]
  010c0	e2833024	 add         r3, r3, #0x24
  010c4	e5933000	 ldr         r3, [r3]
  010c8	e2832034	 add         r2, r3, #0x34
  010cc	e59d336c	 ldr         r3, [sp, #0x36C]
  010d0	e5823000	 str         r3, [r2]

; 447  : 
; 448  :     
; 449  :     //  Initialize a critical section for display driver operations that need serialization
; 450  :     InitializeCriticalSection( &m_csOperationLock );

  010d4	e59d3378	 ldr         r3, [sp, #0x378]
  010d8	e283009c	 add         r0, r3, #0x9C
  010dc	eb000000	 bl          InitializeCriticalSection

; 451  : 
; 452  :     m_cursorVisible = FALSE;

  010e0	e59d3378	 ldr         r3, [sp, #0x378]
  010e4	e2832e15	 add         r2, r3, #0x15, 28
  010e8	e3a03000	 mov         r3, #0
  010ec	e5823000	 str         r3, [r2]

; 453  :     m_cursorDisabled = TRUE;

  010f0	e59d3378	 ldr         r3, [sp, #0x378]
  010f4	e2832f53	 add         r2, r3, #0x53, 30
  010f8	e3a03001	 mov         r3, #1
  010fc	e5823000	 str         r3, [r2]

; 454  :     m_cursorForcedOff = FALSE;

  01100	e59d3378	 ldr         r3, [sp, #0x378]
  01104	e2832f55	 add         r2, r3, #0x55, 30
  01108	e3a03000	 mov         r3, #0
  0110c	e5823000	 str         r3, [r2]

; 455  :     memset(&m_cursorRect, 0x0, sizeof(m_cursorRect));

  01110	e3a02010	 mov         r2, #0x10
  01114	e3a01000	 mov         r1, #0
  01118	e59d3378	 ldr         r3, [sp, #0x378]
  0111c	e2830f56	 add         r0, r3, #0x56, 30
  01120	eb000000	 bl          memset

; 456  :     m_cursorStore = NULL;

  01124	e59d3378	 ldr         r3, [sp, #0x378]
  01128	e2832f5e	 add         r2, r3, #0x5E, 30
  0112c	e3a03000	 mov         r3, #0
  01130	e5823000	 str         r3, [r2]

; 457  :     m_cursorXor = NULL;

  01134	e59d3378	 ldr         r3, [sp, #0x378]
  01138	e2832f5f	 add         r2, r3, #0x5F, 30
  0113c	e3a03000	 mov         r3, #0
  01140	e5823000	 str         r3, [r2]

; 458  :     m_cursorAnd = NULL;

  01144	e59d3378	 ldr         r3, [sp, #0x378]
  01148	e2832d06	 add         r2, r3, #6, 26
  0114c	e3a03000	 mov         r3, #0
  01150	e5823000	 str         r3, [r2]
  01154		 |$LN22@OMAPDDGPE|

; 459  : 	
; 460  : #if DEBUG_NEON_MEMORY_LEAK
; 461  :     m_bNeonBlt = FALSE;
; 462  : 	m_dwNeonBltCount = 0;
; 463  :     m_dwNeonBltCountLastMessage = 0;
; 464  : 	m_dwAvailPhysDelta = 0;
; 465  : 	m_dwAvailPageFileDelta = 0;
; 466  : #endif
; 467  : }

  01154	e59d025c	 ldr         r0, [sp, #0x25C]
  01158	eb000000	 bl          __security_check_cookie
  0115c	e59d3378	 ldr         r3, [sp, #0x378]
  01160	e58d3260	 str         r3, [sp, #0x260]
  01164	e59d0260	 ldr         r0, [sp, #0x260]
  01168	e28dde37	 add         sp, sp, #0x37, 28
  0116c	e89d6000	 ldmia       sp, {sp, lr}
  01170	e12fff1e	 bx          lr
  01174		 |$LN92@OMAPDDGPE|
  01174		 |$LN93@OMAPDDGPE|
  01174	00000000	 DCD         |?g_Globals@@3VOMAPDDGPEGlobals@@A|
  01178		 |$LN94@OMAPDDGPE|
  01178	00000000	 DCD         |??_C@_1FM@NGKLCFKD@?$AAE?$AAR?$AAR?$AAO?$AAR?$AA?3?$AA?5?$AAU?$AAn?$AAa?$AAb?$AAl?$AAe?$AA?5?$AAt?$AAo?$AA?5?$AAi?$AAn?$AAi?$AAt?$AAi?$AAa?$AAl?$AAi?$AAz?$AAe?$AA?5?$AAs?$AAu?$AAr?$AAf@|
  0117c		 |$LN95@OMAPDDGPE|
  0117c	00000000	 DCD         |dpCurSettings|
  01180		 |$LN96@OMAPDDGPE|
  01180	00000000	 DCD         |??_C@_1FI@DAAEFBJG@?$AAE?$AAR?$AAR?$AAO?$AAR?$AA?3?$AA?5?$AAU?$AAn?$AAa?$AAb?$AAl?$AAe?$AA?5?$AAt?$AAo?$AA?5?$AAa?$AAl?$AAl?$AAo?$AAc?$AAa?$AAt?$AAe?$AA?5?$AAs?$AAu?$AAr?$AAf?$AAa?$AAc@|
  01184		 |$LN97@OMAPDDGPE|
  01184	00000000	 DCD         |??_C@_1FM@MHAHIEFN@?$AAE?$AAR?$AAR?$AAO?$AAR?$AA?3?$AA?5?$AAU?$AAn?$AAa?$AAb?$AAl?$AAe?$AA?5?$AAt?$AAo?$AA?5?$AAi?$AAn?$AAi?$AAt?$AAi?$AAa?$AAl?$AAi?$AAz?$AAe?$AA?5?$AAD?$AAS?$AAS?$AA?5@|
  01188		 |$LN98@OMAPDDGPE|
  01188	00000000	 DCD         |??_C@_1EE@LPEPPACB@?$AAE?$AAR?$AAR?$AAO?$AAR?$AA?3?$AA?5?$AAU?$AAn?$AAa?$AAb?$AAl?$AAe?$AA?5?$AAt?$AAo?$AA?5?$AAi?$AAn?$AAi?$AAt?$AAi?$AAa?$AAl?$AAi?$AAz?$AAe?$AA?5?$AAL?$AAC?$AAD?$AA?$AN@|
  0118c		 |$LN99@OMAPDDGPE|
  0118c	00000000	 DCD         |??_C@_1GC@IKJCGOEK@?$AAE?$AAR?$AAR?$AAO?$AAR?$AA?3?$AA?5?$AAU?$AAn?$AAa?$AAb?$AAl?$AAe?$AA?5?$AAt?$AAo?$AA?5?$AAi?$AAn?$AAi?$AAt?$AAi?$AAa?$AAl?$AAi?$AAz?$AAe?$AA?5?$AAd?$AAi?$AAs?$AAp@|
  01190		 |$LN100@OMAPDDGPE|
  01190	00000000	 DCD         |??_C@_1FO@GKBABLBK@?$AAE?$AAR?$AAR?$AAO?$AAR?$AA?3?$AA?5?$AAU?$AAn?$AAa?$AAb?$AAl?$AAe?$AA?5?$AAt?$AAo?$AA?5?$AAa?$AAl?$AAl?$AAo?$AAc?$AAa?$AAt?$AAe?$AA?5?$AAd?$AAi?$AAs?$AAp?$AAl?$AAa@|
  01194		 |$LN101@OMAPDDGPE|
  01194	00000000	 DCD         |??_C@_1GG@MOFFINCC@?$AAE?$AAR?$AAR?$AAO?$AAR?$AA?3?$AA?5?$AAF?$AAa?$AAi?$AAl?$AAe?$AAd?$AA?5?$AAa?$AAd?$AAv?$AAe?$AAr?$AAt?$AAi?$AAs?$AAe?$AA?5?$AAd?$AAi?$AAs?$AAp?$AAl?$AAa?$AAy?$AA?5@|
  01198		 |$LN102@OMAPDDGPE|
  01198	00000000	 DCD         |??_C@_1FK@NHLAPMED@?$AAE?$AAR?$AAR?$AAO?$AAR?$AA?3?$AA?5?$AAF?$AAa?$AAi?$AAl?$AAe?$AAd?$AA?5?$AAt?$AAo?$AA?5?$AAr?$AAe?$AAt?$AAr?$AAi?$AAe?$AAv?$AAe?$AA?5?$AAm?$AAo?$AAd?$AAu?$AAl?$AAe@|
  0119c		 |$LN103@OMAPDDGPE|
  0119c	00000000	 DCD         |g_hmodDisplayDll|
  011a0		 |$LN104@OMAPDDGPE|
  011a0	00000000	 DCD         |??_C@_1HC@GOHHDCGP@?$AAE?$AAR?$AAR?$AAO?$AAR?$AA?3?$AA?5?$AAF?$AAa?$AAi?$AAl?$AAe?$AAd?$AA?5?$AAc?$AAo?$AAn?$AAv?$AAe?$AAr?$AAt?$AA?5?$AAd?$AAi?$AAs?$AAp?$AAl?$AAa?$AAy?$AA?5?$AAp?$AAo@|
  011a4		 |$LN105@OMAPDDGPE|
  011a4	00000000	 DCD         |??_C@_1EO@BHDHHEGO@?$AA?$HL?$AAE?$AAB?$AA9?$AA1?$AAC?$AA7?$AAC?$AA9?$AA?9?$AA8?$AAB?$AAF?$AA6?$AA?9?$AA4?$AAa?$AA2?$AAd?$AA?9?$AA9?$AAA?$AAB?$AA8?$AA?9?$AA6?$AA9?$AA7?$AA2?$AA4?$AAE?$AAE@|
  011a8		 |$LN106@OMAPDDGPE|
  011a8	00000000	 DCD         |??_C@_1CO@GLGGGNMB@?$AAO?$AAM?$AAA?$AAP?$AAD?$AAD?$AAG?$AAP?$AAE?$AA?3?$AA?3?$AAO?$AAM?$AAA?$AAP?$AAD?$AAD?$AAG?$AAP?$AAE?$AA?$AN?$AA?6?$AA?$AA@|
  011ac		 |$LN107@OMAPDDGPE|
  011ac	00000000	 DCD         |??_7OMAPDDGPE@@6B@|
  011b0		 |$LN108@OMAPDDGPE|
  011b0	00000000	 DCD         |__security_cookie|
  011b4		 |$M43293|

			 ENDP  ; |??0OMAPDDGPE@@QAA@XZ|, OMAPDDGPE::OMAPDDGPE

; File c:\wince600\public\common\oak\inc\ddgpe.h

  00000			 AREA	 |.pdata|, PDATA
|$T43318| DCD	|$LN5@GetPhysica|
	DCD	0x40000c04
; Function compile flags: /Odtp

  00000			 AREA	 |.text|, CODE, ARM

  00000		 |?GetPhysicalModeId@DDGPE@@UAAKXZ| PROC ; DDGPE::GetPhysicalModeId

; 486  : 	virtual DWORD	GetPhysicalModeId	(void) { return m_dwPhysicalModeID; }	// Get current hardware mode (mode of ddraw primary)

  00000		 |$LN5@GetPhysica|
  00000	e1a0c00d	 mov         r12, sp
  00004	e92d0001	 stmdb       sp!, {r0}
  00008	e92d5000	 stmdb       sp!, {r12, lr}
  0000c	e24dd004	 sub         sp, sp, #4
  00010		 |$M43315|
  00010	e59d300c	 ldr         r3, [sp, #0xC]
  00014	e2833028	 add         r3, r3, #0x28
  00018	e5933000	 ldr         r3, [r3]
  0001c	e58d3000	 str         r3, [sp]
  00020	e59d0000	 ldr         r0, [sp]
  00024	e28dd004	 add         sp, sp, #4
  00028	e89d6000	 ldmia       sp, {sp, lr}
  0002c	e12fff1e	 bx          lr
  00030		 |$M43316|

			 ENDP  ; |?GetPhysicalModeId@DDGPE@@UAAKXZ|, DDGPE::GetPhysicalModeId


  00000			 AREA	 |.pdata|, PDATA
|$T43326| DCD	|$LN5@GetDriverD|
	DCD	0x40000c04
; Function compile flags: /Odtp

  00000			 AREA	 |.text|, CODE, ARM

  00000		 |?GetDriverData@DDGPE@@UAAPAUDDGPEDriverData@@XZ| PROC ; DDGPE::GetDriverData

; 502  : 	virtual DDGPEDriverData*		GetDriverData(void) { return m_pDriverData; }

  00000		 |$LN5@GetDriverD|
  00000	e1a0c00d	 mov         r12, sp
  00004	e92d0001	 stmdb       sp!, {r0}
  00008	e92d5000	 stmdb       sp!, {r12, lr}
  0000c	e24dd004	 sub         sp, sp, #4
  00010		 |$M43323|
  00010	e59d300c	 ldr         r3, [sp, #0xC]
  00014	e283302c	 add         r3, r3, #0x2C
  00018	e5933000	 ldr         r3, [r3]
  0001c	e58d3000	 str         r3, [sp]
  00020	e59d0000	 ldr         r0, [sp]
  00024	e28dd004	 add         sp, sp, #4
  00028	e89d6000	 ldmia       sp, {sp, lr}
  0002c	e12fff1e	 bx          lr
  00030		 |$M43324|

			 ENDP  ; |?GetDriverData@DDGPE@@UAAPAUDDGPEDriverData@@XZ|, DDGPE::GetDriverData


  00000			 AREA	 |.pdata|, PDATA
|$T43333| DCD	|$LN5@SetDriverD|
	DCD	0x40000903
; Function compile flags: /Odtp

  00000			 AREA	 |.text|, CODE, ARM

  00000		 |?SetDriverData@DDGPE@@UAAXPAUDDGPEDriverData@@@Z| PROC ; DDGPE::SetDriverData

; 503  : 	virtual void					SetDriverData(DDGPEDriverData* pDriverData) { m_pDriverData = pDriverData; }

  00000		 |$LN5@SetDriverD|
  00000	e1a0c00d	 mov         r12, sp
  00004	e92d0003	 stmdb       sp!, {r0, r1}
  00008	e92d5000	 stmdb       sp!, {r12, lr}
  0000c		 |$M43330|
  0000c	e59d3008	 ldr         r3, [sp, #8]
  00010	e283202c	 add         r2, r3, #0x2C
  00014	e59d300c	 ldr         r3, [sp, #0xC]
  00018	e5823000	 str         r3, [r2]
  0001c	e89d6000	 ldmia       sp, {sp, lr}
  00020	e12fff1e	 bx          lr
  00024		 |$M43331|

			 ENDP  ; |?SetDriverData@DDGPE@@UAAXPAUDDGPEDriverData@@@Z|, DDGPE::SetDriverData

; File c:\wince600\platform\common\src\soc\common_ti_v1\common_ti\dss\inc\dssai.h

  00000			 AREA	 |.pdata|, PDATA
|$T43341| DCD	|$LN5@GetLCDPixe|
	DCD	0x40000d04
; Function compile flags: /Odtp

  00000			 AREA	 |.text|, CODE, ARM

  00000		 |?GetLCDPixelFormat@OMAPDisplayController@@QAA?AW4OMAP_DSS_PIXELFORMAT@@XZ| PROC ; OMAPDisplayController::GetLCDPixelFormat

; 302  :     OMAP_DSS_PIXELFORMAT    GetLCDPixelFormat() { return m_eLcdPixelFormat; }

  00000		 |$LN5@GetLCDPixe|
  00000	e1a0c00d	 mov         r12, sp
  00004	e92d0001	 stmdb       sp!, {r0}
  00008	e92d5000	 stmdb       sp!, {r12, lr}
  0000c	e24dd004	 sub         sp, sp, #4
  00010		 |$M43338|
  00010	e59d300c	 ldr         r3, [sp, #0xC]
  00014	e2833b01	 add         r3, r3, #1, 22
  00018	e28330a4	 add         r3, r3, #0xA4
  0001c	e5933000	 ldr         r3, [r3]
  00020	e58d3000	 str         r3, [sp]
  00024	e59d0000	 ldr         r0, [sp]
  00028	e28dd004	 add         sp, sp, #4
  0002c	e89d6000	 ldmia       sp, {sp, lr}
  00030	e12fff1e	 bx          lr
  00034		 |$M43339|

			 ENDP  ; |?GetLCDPixelFormat@OMAPDisplayController@@QAA?AW4OMAP_DSS_PIXELFORMAT@@XZ|, OMAPDisplayController::GetLCDPixelFormat


  00000			 AREA	 |.pdata|, PDATA
|$T43349| DCD	|$LN5@GetLCDWidt|
	DCD	0x40000d04
; Function compile flags: /Odtp

  00000			 AREA	 |.text|, CODE, ARM

  00000		 |?GetLCDWidth@OMAPDisplayController@@QAAKXZ| PROC ; OMAPDisplayController::GetLCDWidth

; 303  :     DWORD                   GetLCDWidth() { return m_dwLcdWidth; }

  00000		 |$LN5@GetLCDWidt|
  00000	e1a0c00d	 mov         r12, sp
  00004	e92d0001	 stmdb       sp!, {r0}
  00008	e92d5000	 stmdb       sp!, {r12, lr}
  0000c	e24dd004	 sub         sp, sp, #4
  00010		 |$M43346|
  00010	e59d300c	 ldr         r3, [sp, #0xC]
  00014	e2833b01	 add         r3, r3, #1, 22
  00018	e28330a8	 add         r3, r3, #0xA8
  0001c	e5933000	 ldr         r3, [r3]
  00020	e58d3000	 str         r3, [sp]
  00024	e59d0000	 ldr         r0, [sp]
  00028	e28dd004	 add         sp, sp, #4
  0002c	e89d6000	 ldmia       sp, {sp, lr}
  00030	e12fff1e	 bx          lr
  00034		 |$M43347|

			 ENDP  ; |?GetLCDWidth@OMAPDisplayController@@QAAKXZ|, OMAPDisplayController::GetLCDWidth


  00000			 AREA	 |.pdata|, PDATA
|$T43357| DCD	|$LN5@GetLCDHeig|
	DCD	0x40000d04
; Function compile flags: /Odtp

  00000			 AREA	 |.text|, CODE, ARM

  00000		 |?GetLCDHeight@OMAPDisplayController@@QAAKXZ| PROC ; OMAPDisplayController::GetLCDHeight

; 304  :     DWORD                   GetLCDHeight() { return m_dwLcdHeight; }

  00000		 |$LN5@GetLCDHeig|
  00000	e1a0c00d	 mov         r12, sp
  00004	e92d0001	 stmdb       sp!, {r0}
  00008	e92d5000	 stmdb       sp!, {r12, lr}
  0000c	e24dd004	 sub         sp, sp, #4
  00010		 |$M43354|
  00010	e59d300c	 ldr         r3, [sp, #0xC]
  00014	e2833b01	 add         r3, r3, #1, 22
  00018	e28330ac	 add         r3, r3, #0xAC
  0001c	e5933000	 ldr         r3, [r3]
  00020	e58d3000	 str         r3, [sp]
  00024	e59d0000	 ldr         r0, [sp]
  00028	e28dd004	 add         sp, sp, #4
  0002c	e89d6000	 ldmia       sp, {sp, lr}
  00030	e12fff1e	 bx          lr
  00034		 |$M43355|

			 ENDP  ; |?GetLCDHeight@OMAPDisplayController@@QAAKXZ|, OMAPDisplayController::GetLCDHeight

	IMPORT	|EnterCriticalSection|
; File c:\wince600\platform\common\src\soc\common_ti_v1\common_ti\dss\inc\omap_ddgpe.h

  00000			 AREA	 |.pdata|, PDATA
|$T43364| DCD	|$LN5@Lock|
	DCD	0x40000803
; Function compile flags: /Odtp

  00000			 AREA	 |.text|, CODE, ARM

  00000		 |?Lock@OMAPDDGPE@@UAAXXZ| PROC		; OMAPDDGPE::Lock

; 531  :     Lock() { EnterCriticalSection( &m_csOperationLock ); }

  00000		 |$LN5@Lock|
  00000	e1a0c00d	 mov         r12, sp
  00004	e92d0001	 stmdb       sp!, {r0}
  00008	e92d5000	 stmdb       sp!, {r12, lr}
  0000c		 |$M43361|
  0000c	e59d3008	 ldr         r3, [sp, #8]
  00010	e283009c	 add         r0, r3, #0x9C
  00014	eb000000	 bl          EnterCriticalSection
  00018	e89d6000	 ldmia       sp, {sp, lr}
  0001c	e12fff1e	 bx          lr
  00020		 |$M43362|

			 ENDP  ; |?Lock@OMAPDDGPE@@UAAXXZ|, OMAPDDGPE::Lock

	IMPORT	|LeaveCriticalSection|

  00000			 AREA	 |.pdata|, PDATA
|$T43371| DCD	|$LN5@Unlock|
	DCD	0x40000803
; Function compile flags: /Odtp

  00000			 AREA	 |.text|, CODE, ARM

  00000		 |?Unlock@OMAPDDGPE@@UAAXXZ| PROC	; OMAPDDGPE::Unlock

; 535  :     Unlock() { LeaveCriticalSection( &m_csOperationLock ); }

  00000		 |$LN5@Unlock|
  00000	e1a0c00d	 mov         r12, sp
  00004	e92d0001	 stmdb       sp!, {r0}
  00008	e92d5000	 stmdb       sp!, {r12, lr}
  0000c		 |$M43368|
  0000c	e59d3008	 ldr         r3, [sp, #8]
  00010	e283009c	 add         r0, r3, #0x9C
  00014	eb000000	 bl          LeaveCriticalSection
  00018	e89d6000	 ldmia       sp, {sp, lr}
  0001c	e12fff1e	 bx          lr
  00020		 |$M43369|

			 ENDP  ; |?Unlock@OMAPDDGPE@@UAAXXZ|, OMAPDDGPE::Unlock

	EXPORT	|??1OMAPDDGPE@@UAA@XZ|			; OMAPDDGPE::~OMAPDDGPE
	IMPORT	|??3@YAXPAX@Z|				; operator delete

  00000			 AREA	 |.pdata|, PDATA
|$T43379| DCD	|$LN6@scalar|
	DCD	0x40001104
; Function compile flags: /Odtp

  00000			 AREA	 |.text|, CODE, ARM

  00000		 |??_GOMAPDDGPE@@UAAPAXI@Z| PROC	; OMAPDDGPE::`scalar deleting destructor'
  00000		 |$LN6@scalar|
  00000	e1a0c00d	 mov         r12, sp
  00004	e92d0003	 stmdb       sp!, {r0, r1}
  00008	e92d5000	 stmdb       sp!, {r12, lr}
  0000c	e24dd004	 sub         sp, sp, #4
  00010		 |$M43376|
  00010	e59d000c	 ldr         r0, [sp, #0xC]
  00014	eb000000	 bl          |??1OMAPDDGPE@@UAA@XZ|
  00018	e59d3010	 ldr         r3, [sp, #0x10]
  0001c	e3130001	 tst         r3, #1
  00020	0a000001	 beq         |$LN1@scalar|
  00024	e59d000c	 ldr         r0, [sp, #0xC]
  00028	eb000000	 bl          |??3@YAXPAX@Z|
  0002c		 |$LN1@scalar|
  0002c	e59d300c	 ldr         r3, [sp, #0xC]
  00030	e58d3000	 str         r3, [sp]
  00034	e59d0000	 ldr         r0, [sp]
  00038	e28dd004	 add         sp, sp, #4
  0003c	e89d6000	 ldmia       sp, {sp, lr}
  00040	e12fff1e	 bx          lr
  00044		 |$M43377|

			 ENDP  ; |??_GOMAPDDGPE@@UAAPAXI@Z|, OMAPDDGPE::`scalar deleting destructor'

	IMPORT	|??1DDGPE@@UAA@XZ|			; DDGPE::~DDGPE

  00030			 AREA	 |.pdata|, PDATA
|$T43386| DCD	|$LN5@OMAPDDGPE@2|
	DCD	0x40000b03
; Function compile flags: /Odtp
; File c:\wince600\platform\common\src\soc\common_ti_v1\common_ti\dss\ddgpe\omap_ddgpe.cpp

  011b4			 AREA	 |.text|, CODE, ARM

  011b4		 |??1OMAPDDGPE@@UAA@XZ| PROC		; OMAPDDGPE::~OMAPDDGPE

; 471  : {

  011b4		 |$LN5@OMAPDDGPE@2|
  011b4	e1a0c00d	 mov         r12, sp
  011b8	e92d0001	 stmdb       sp!, {r0}
  011bc	e92d5000	 stmdb       sp!, {r12, lr}
  011c0		 |$M43383|
  011c0	e59f2014	 ldr         r2, [pc, #0x14]
  011c4	e59d3008	 ldr         r3, [sp, #8]
  011c8	e5832000	 str         r2, [r3]

; 472  :     //  Display driver never unloads
; 473  : #if 0
; 474  :     delete [] m_cursorStore; 
; 475  :     m_cursorStore = NULL;
; 476  :     delete [] m_cursorXor; 
; 477  :     m_cursorXor = NULL;
; 478  :     delete [] m_cursorAnd; 
; 479  :     m_cursorAnd = NULL;
; 480  : #endif
; 481  : }

  011cc	e59d0008	 ldr         r0, [sp, #8]
  011d0	eb000000	 bl          |??1DDGPE@@UAA@XZ|
  011d4	e89d6000	 ldmia       sp, {sp, lr}
  011d8	e12fff1e	 bx          lr
  011dc		 |$LN6@OMAPDDGPE@2|
  011dc		 |$LN7@OMAPDDGPE@2|
  011dc	00000000	 DCD         |??_7OMAPDDGPE@@6B@|
  011e0		 |$M43384|

			 ENDP  ; |??1OMAPDDGPE@@UAA@XZ|, OMAPDDGPE::~OMAPDDGPE

	EXPORT	|??_C@_1CM@KNELOMIM@?$AAO?$AAM?$AAA?$AAP?$AAD?$AAD?$AAG?$AAP?$AAE?$AA?3?$AA?3?$AAN?$AAu?$AAm?$AAM?$AAo?$AAd?$AAe?$AAs?$AA?$AN?$AA?6?$AA?$AA@| [ DATA ] ; `string'

  00038			 AREA	 |.pdata|, PDATA
|$T43396| DCD	|$LN7@NumModes|
	DCD	0x40001704

  00000			 AREA	 |.rdata|, DATA, READONLY
|??_C@_1CM@KNELOMIM@?$AAO?$AAM?$AAA?$AAP?$AAD?$AAD?$AAG?$AAP?$AAE?$AA?3?$AA?3?$AAN?$AAu?$AAm?$AAM?$AAo?$AAd?$AAe?$AAs?$AA?$AN?$AA?6?$AA?$AA@| DCB "O"
	DCB	0x0, "M", 0x0, "A", 0x0, "P", 0x0, "D", 0x0, "D", 0x0, "G"
	DCB	0x0, "P", 0x0, "E", 0x0, ":", 0x0, ":", 0x0, "N", 0x0, "u"
	DCB	0x0, "m", 0x0, "M", 0x0, "o", 0x0, "d", 0x0, "e", 0x0, "s"
	DCB	0x0, 0xd, 0x0, 0xa, 0x0, 0x0, 0x0	; `string'
; Function compile flags: /Odtp

  011e0			 AREA	 |.text|, CODE, ARM

  011e0		 |?NumModes@OMAPDDGPE@@UAAHXZ| PROC	; OMAPDDGPE::NumModes

; 486  : {

  011e0		 |$LN7@NumModes|
  011e0	e1a0c00d	 mov         r12, sp
  011e4	e92d0001	 stmdb       sp!, {r0}
  011e8	e92d5000	 stmdb       sp!, {r12, lr}
  011ec	e24dd008	 sub         sp, sp, #8
  011f0		 |$M43393|

; 487  :     DEBUGMSG (GPE_ZONE_INIT, (TEXT("OMAPDDGPE::NumModes\r\n")));

  011f0	e59f3040	 ldr         r3, [pc, #0x40]
  011f4	e5933440	 ldr         r3, [r3, #0x440]
  011f8	e3130020	 tst         r3, #0x20
  011fc	0a000004	 beq         |$LN3@NumModes|
  01200	e59f002c	 ldr         r0, [pc, #0x2C]
  01204	eb000000	 bl          NKDbgPrintfW
  01208	e3a03001	 mov         r3, #1
  0120c	e58d3004	 str         r3, [sp, #4]
  01210	ea000001	 b           |$LN4@NumModes|
  01214		 |$LN3@NumModes|
  01214	e3a03000	 mov         r3, #0
  01218	e58d3004	 str         r3, [sp, #4]
  0121c		 |$LN4@NumModes|

; 488  : 
; 489  :     //  Return number of modes (the display driver allows only one active mode at a time)
; 490  :     return 1;

  0121c	e3a03001	 mov         r3, #1
  01220	e58d3000	 str         r3, [sp]

; 491  : }

  01224	e59d0000	 ldr         r0, [sp]
  01228	e28dd008	 add         sp, sp, #8
  0122c	e89d6000	 ldmia       sp, {sp, lr}
  01230	e12fff1e	 bx          lr
  01234		 |$LN8@NumModes|
  01234		 |$LN9@NumModes|
  01234	00000000	 DCD         |??_C@_1CM@KNELOMIM@?$AAO?$AAM?$AAA?$AAP?$AAD?$AAD?$AAG?$AAP?$AAE?$AA?3?$AA?3?$AAN?$AAu?$AAm?$AAM?$AAo?$AAd?$AAe?$AAs?$AA?$AN?$AA?6?$AA?$AA@|
  01238		 |$LN10@NumModes|
  01238	00000000	 DCD         |dpCurSettings|
  0123c		 |$M43394|

			 ENDP  ; |?NumModes@OMAPDDGPE@@UAAHXZ|, OMAPDDGPE::NumModes

	EXPORT	|??_C@_1DC@KEPGACNP@?$AAO?$AAM?$AAA?$AAP?$AAD?$AAD?$AAG?$AAP?$AAE?$AA?3?$AA?3?$AAG?$AAe?$AAt?$AAM?$AAo?$AAd?$AAe?$AAI?$AAn?$AAf?$AAo?$AA?$AN?$AA?6?$AA?$AA@| [ DATA ] ; `string'
	IMPORT	|memcpy|

  00040			 AREA	 |.pdata|, PDATA
|$T43408| DCD	|$LN9@GetModeInf|
	DCD	0x40002d04

  00000			 AREA	 |.rdata|, DATA, READONLY
|??_C@_1DC@KEPGACNP@?$AAO?$AAM?$AAA?$AAP?$AAD?$AAD?$AAG?$AAP?$AAE?$AA?3?$AA?3?$AAG?$AAe?$AAt?$AAM?$AAo?$AAd?$AAe?$AAI?$AAn?$AAf?$AAo?$AA?$AN?$AA?6?$AA?$AA@| DCB "O"
	DCB	0x0, "M", 0x0, "A", 0x0, "P", 0x0, "D", 0x0, "D", 0x0, "G"
	DCB	0x0, "P", 0x0, "E", 0x0, ":", 0x0, ":", 0x0, "G", 0x0, "e"
	DCB	0x0, "t", 0x0, "M", 0x0, "o", 0x0, "d", 0x0, "e", 0x0, "I"
	DCB	0x0, "n", 0x0, "f", 0x0, "o", 0x0, 0xd, 0x0, 0xa, 0x0, 0x0
	DCB	0x0					; `string'
; Function compile flags: /Odtp

  0123c			 AREA	 |.text|, CODE, ARM

  0123c		 |?GetModeInfo@OMAPDDGPE@@UAAJPAUGPEMode@@H@Z| PROC ; OMAPDDGPE::GetModeInfo

; 499  : {

  0123c		 |$LN9@GetModeInf|
  0123c	e1a0c00d	 mov         r12, sp
  01240	e92d0007	 stmdb       sp!, {r0 - r2}
  01244	e92d5000	 stmdb       sp!, {r12, lr}
  01248	e24dd008	 sub         sp, sp, #8
  0124c		 |$M43405|

; 500  :     DEBUGMSG (GPE_ZONE_INIT, (TEXT("OMAPDDGPE::GetModeInfo\r\n")));

  0124c	e59f3098	 ldr         r3, [pc, #0x98]
  01250	e5933440	 ldr         r3, [r3, #0x440]
  01254	e3130020	 tst         r3, #0x20
  01258	0a000004	 beq         |$LN5@GetModeInf|
  0125c	e59f0084	 ldr         r0, [pc, #0x84]
  01260	eb000000	 bl          NKDbgPrintfW
  01264	e3a03001	 mov         r3, #1
  01268	e58d3004	 str         r3, [sp, #4]
  0126c	ea000001	 b           |$LN6@GetModeInf|
  01270		 |$LN5@GetModeInf|
  01270	e3a03000	 mov         r3, #0
  01274	e58d3004	 str         r3, [sp, #4]
  01278		 |$LN6@GetModeInf|

; 501  : 
; 502  :     //  Check display controller enabled
; 503  :     if( m_pDisplayContr == NULL )

  01278	e59d3010	 ldr         r3, [sp, #0x10]
  0127c	e28330b0	 add         r3, r3, #0xB0
  01280	e5933000	 ldr         r3, [r3]
  01284	e3530000	 cmp         r3, #0
  01288	1a000003	 bne         |$LN2@GetModeInf|

; 504  :         return E_FAIL;

  0128c	e3a03116	 mov         r3, #0x16, 2
  01290	e3833901	 orr         r3, r3, #1, 18
  01294	e58d3000	 str         r3, [sp]
  01298	ea00000d	 b           |$LN3@GetModeInf|
  0129c		 |$LN2@GetModeInf|

; 505  : 
; 506  :     //  Return info about selected mode
; 507  :     if( modeNumber == 0 )

  0129c	e59d3018	 ldr         r3, [sp, #0x18]
  012a0	e3530000	 cmp         r3, #0
  012a4	1a000008	 bne         |$LN1@GetModeInf|

; 508  :     {
; 509  :         *pMode = *m_pMode;

  012a8	e59d3010	 ldr         r3, [sp, #0x10]
  012ac	e2833010	 add         r3, r3, #0x10
  012b0	e5931000	 ldr         r1, [r3]
  012b4	e59d0014	 ldr         r0, [sp, #0x14]
  012b8	e3a02018	 mov         r2, #0x18
  012bc	eb000000	 bl          memcpy

; 510  :         return S_OK;

  012c0	e3a03000	 mov         r3, #0
  012c4	e58d3000	 str         r3, [sp]
  012c8	ea000001	 b           |$LN3@GetModeInf|
  012cc		 |$LN1@GetModeInf|

; 511  :     }
; 512  : 
; 513  :     return E_INVALIDARG;

  012cc	e59f3010	 ldr         r3, [pc, #0x10]
  012d0	e58d3000	 str         r3, [sp]
  012d4		 |$LN3@GetModeInf|

; 514  : }

  012d4	e59d0000	 ldr         r0, [sp]
  012d8	e28dd008	 add         sp, sp, #8
  012dc	e89d6000	 ldmia       sp, {sp, lr}
  012e0	e12fff1e	 bx          lr
  012e4		 |$LN10@GetModeInf|
  012e4		 |$LN11@GetModeInf|
  012e4	80070057	 DCD         0x80070057
  012e8		 |$LN12@GetModeInf|
  012e8	00000000	 DCD         |??_C@_1DC@KEPGACNP@?$AAO?$AAM?$AAA?$AAP?$AAD?$AAD?$AAG?$AAP?$AAE?$AA?3?$AA?3?$AAG?$AAe?$AAt?$AAM?$AAo?$AAd?$AAe?$AAI?$AAn?$AAf?$AAo?$AA?$AN?$AA?6?$AA?$AA@|
  012ec		 |$LN13@GetModeInf|
  012ec	00000000	 DCD         |dpCurSettings|
  012f0		 |$M43406|

			 ENDP  ; |?GetModeInfo@OMAPDDGPE@@UAAJPAUGPEMode@@H@Z|, OMAPDDGPE::GetModeInfo

	EXPORT	|??_C@_1DG@FONFHOGI@?$AAO?$AAM?$AAA?$AAP?$AAD?$AAD?$AAG?$AAP?$AAE?$AA?3?$AA?3?$AAG?$AAe?$AAt?$AAM?$AAo?$AAd?$AAe?$AAI?$AAn?$AAf?$AAo?$AAE?$AAx?$AA?$AN?$AA?6?$AA?$AA@| [ DATA ] ; `string'

  00048			 AREA	 |.pdata|, PDATA
|$T43420| DCD	|$LN9@GetModeInf@2|
	DCD	0x40002d04

  00000			 AREA	 |.rdata|, DATA, READONLY
|??_C@_1DG@FONFHOGI@?$AAO?$AAM?$AAA?$AAP?$AAD?$AAD?$AAG?$AAP?$AAE?$AA?3?$AA?3?$AAG?$AAe?$AAt?$AAM?$AAo?$AAd?$AAe?$AAI?$AAn?$AAf?$AAo?$AAE?$AAx?$AA?$AN?$AA?6?$AA?$AA@| DCB "O"
	DCB	0x0, "M", 0x0, "A", 0x0, "P", 0x0, "D", 0x0, "D", 0x0, "G"
	DCB	0x0, "P", 0x0, "E", 0x0, ":", 0x0, ":", 0x0, "G", 0x0, "e"
	DCB	0x0, "t", 0x0, "M", 0x0, "o", 0x0, "d", 0x0, "e", 0x0, "I"
	DCB	0x0, "n", 0x0, "f", 0x0, "o", 0x0, "E", 0x0, "x", 0x0, 0xd
	DCB	0x0, 0xa, 0x0, 0x0, 0x0			; `string'
; Function compile flags: /Odtp

  012f0			 AREA	 |.text|, CODE, ARM

  012f0		 |?GetModeInfoEx@OMAPDDGPE@@UAAJPAUGPEModeEx@@H@Z| PROC ; OMAPDDGPE::GetModeInfoEx

; 522  : {

  012f0		 |$LN9@GetModeInf@2|
  012f0	e1a0c00d	 mov         r12, sp
  012f4	e92d0007	 stmdb       sp!, {r0 - r2}
  012f8	e92d5000	 stmdb       sp!, {r12, lr}
  012fc	e24dd008	 sub         sp, sp, #8
  01300		 |$M43417|

; 523  :     DEBUGMSG (GPE_ZONE_INIT, (TEXT("OMAPDDGPE::GetModeInfoEx\r\n")));

  01300	e59f3098	 ldr         r3, [pc, #0x98]
  01304	e5933440	 ldr         r3, [r3, #0x440]
  01308	e3130020	 tst         r3, #0x20
  0130c	0a000004	 beq         |$LN5@GetModeInf@2|
  01310	e59f0084	 ldr         r0, [pc, #0x84]
  01314	eb000000	 bl          NKDbgPrintfW
  01318	e3a03001	 mov         r3, #1
  0131c	e58d3004	 str         r3, [sp, #4]
  01320	ea000001	 b           |$LN6@GetModeInf@2|
  01324		 |$LN5@GetModeInf@2|
  01324	e3a03000	 mov         r3, #0
  01328	e58d3004	 str         r3, [sp, #4]
  0132c		 |$LN6@GetModeInf@2|

; 524  : 
; 525  :     //  Check display controller enabled
; 526  :     if( m_pDisplayContr == NULL )

  0132c	e59d3010	 ldr         r3, [sp, #0x10]
  01330	e28330b0	 add         r3, r3, #0xB0
  01334	e5933000	 ldr         r3, [r3]
  01338	e3530000	 cmp         r3, #0
  0133c	1a000003	 bne         |$LN2@GetModeInf@2|

; 527  :         return E_FAIL;

  01340	e3a03116	 mov         r3, #0x16, 2
  01344	e3833901	 orr         r3, r3, #1, 18
  01348	e58d3000	 str         r3, [sp]
  0134c	ea00000d	 b           |$LN3@GetModeInf@2|
  01350		 |$LN2@GetModeInf@2|

; 528  : 
; 529  :     //  Return info about selected mode
; 530  :     if( modeNumber == 0 )

  01350	e59d3018	 ldr         r3, [sp, #0x18]
  01354	e3530000	 cmp         r3, #0
  01358	1a000008	 bne         |$LN1@GetModeInf@2|

; 531  :     {
; 532  :         *pModeEx = *m_pModeEx;

  0135c	e59d3010	 ldr         r3, [sp, #0x10]
  01360	e2833024	 add         r3, r3, #0x24
  01364	e5931000	 ldr         r1, [r3]
  01368	e59d0014	 ldr         r0, [sp, #0x14]
  0136c	e3a02058	 mov         r2, #0x58
  01370	eb000000	 bl          memcpy

; 533  :         return S_OK;

  01374	e3a03000	 mov         r3, #0
  01378	e58d3000	 str         r3, [sp]
  0137c	ea000001	 b           |$LN3@GetModeInf@2|
  01380		 |$LN1@GetModeInf@2|

; 534  :     }
; 535  : 
; 536  :     return E_INVALIDARG;

  01380	e59f3010	 ldr         r3, [pc, #0x10]
  01384	e58d3000	 str         r3, [sp]
  01388		 |$LN3@GetModeInf@2|

; 537  : }

  01388	e59d0000	 ldr         r0, [sp]
  0138c	e28dd008	 add         sp, sp, #8
  01390	e89d6000	 ldmia       sp, {sp, lr}
  01394	e12fff1e	 bx          lr
  01398		 |$LN10@GetModeInf@2|
  01398		 |$LN11@GetModeInf@2|
  01398	80070057	 DCD         0x80070057
  0139c		 |$LN12@GetModeInf@2|
  0139c	00000000	 DCD         |??_C@_1DG@FONFHOGI@?$AAO?$AAM?$AAA?$AAP?$AAD?$AAD?$AAG?$AAP?$AAE?$AA?3?$AA?3?$AAG?$AAe?$AAt?$AAM?$AAo?$AAd?$AAe?$AAI?$AAn?$AAf?$AAo?$AAE?$AAx?$AA?$AN?$AA?6?$AA?$AA@|
  013a0		 |$LN13@GetModeInf@2|
  013a0	00000000	 DCD         |dpCurSettings|
  013a4		 |$M43418|

			 ENDP  ; |?GetModeInfoEx@OMAPDDGPE@@UAAJPAUGPEModeEx@@H@Z|, OMAPDDGPE::GetModeInfoEx

	EXPORT	|??_C@_1EG@PJNCKJAB@?$AAO?$AAM?$AAA?$AAP?$AAD?$AAD?$AAG?$AAP?$AAE?$AA?3?$AA?3?$AAG?$AAe?$AAt?$AAP?$AAr?$AAi?$AAm?$AAa?$AAr?$AAy?$AAP?$AAi?$AAx?$AAe?$AAl?$AAF?$AAo?$AAr?$AAm?$AAa?$AAt@| [ DATA ] ; `string'

  00050			 AREA	 |.pdata|, PDATA
|$T43432| DCD	|$LN7@GetPrimary|
	DCD	0x40001c04

  00000			 AREA	 |.rdata|, DATA, READONLY
|??_C@_1EG@PJNCKJAB@?$AAO?$AAM?$AAA?$AAP?$AAD?$AAD?$AAG?$AAP?$AAE?$AA?3?$AA?3?$AAG?$AAe?$AAt?$AAP?$AAr?$AAi?$AAm?$AAa?$AAr?$AAy?$AAP?$AAi?$AAx?$AAe?$AAl?$AAF?$AAo?$AAr?$AAm?$AAa?$AAt@| DCB "O"
	DCB	0x0, "M", 0x0, "A", 0x0, "P", 0x0, "D", 0x0, "D", 0x0, "G"
	DCB	0x0, "P", 0x0, "E", 0x0, ":", 0x0, ":", 0x0, "G", 0x0, "e"
	DCB	0x0, "t", 0x0, "P", 0x0, "r", 0x0, "i", 0x0, "m", 0x0, "a"
	DCB	0x0, "r", 0x0, "y", 0x0, "P", 0x0, "i", 0x0, "x", 0x0, "e"
	DCB	0x0, "l", 0x0, "F", 0x0, "o", 0x0, "r", 0x0, "m", 0x0, "a"
	DCB	0x0, "t", 0x0, 0xd, 0x0, 0xa, 0x0, 0x0, 0x0 ; `string'
; Function compile flags: /Odtp

  013a4			 AREA	 |.text|, CODE, ARM

  013a4		 |?GetPrimaryPixelFormat@OMAPDDGPE@@UAA?AW4OMAP_DSS_PIXELFORMAT@@XZ| PROC ; OMAPDDGPE::GetPrimaryPixelFormat

; 542  : {

  013a4		 |$LN7@GetPrimary|
  013a4	e1a0c00d	 mov         r12, sp
  013a8	e92d0001	 stmdb       sp!, {r0}
  013ac	e92d5000	 stmdb       sp!, {r12, lr}
  013b0	e24dd00c	 sub         sp, sp, #0xC
  013b4		 |$M43429|

; 543  :     DEBUGMSG (GPE_ZONE_INIT, (TEXT("OMAPDDGPE::GetPrimaryPixelFormat\r\n")));

  013b4	e59f3054	 ldr         r3, [pc, #0x54]
  013b8	e5933440	 ldr         r3, [r3, #0x440]
  013bc	e3130020	 tst         r3, #0x20
  013c0	0a000004	 beq         |$LN3@GetPrimary|
  013c4	e59f0040	 ldr         r0, [pc, #0x40]
  013c8	eb000000	 bl          NKDbgPrintfW
  013cc	e3a03001	 mov         r3, #1
  013d0	e58d3004	 str         r3, [sp, #4]
  013d4	ea000001	 b           |$LN4@GetPrimary|
  013d8		 |$LN3@GetPrimary|
  013d8	e3a03000	 mov         r3, #0
  013dc	e58d3004	 str         r3, [sp, #4]
  013e0		 |$LN4@GetPrimary|

; 544  : 
; 545  :     //  Return pixel format of primary LCD    
; 546  :     return m_pDisplayContr->GetLCDPixelFormat();

  013e0	e59d3014	 ldr         r3, [sp, #0x14]
  013e4	e28330b0	 add         r3, r3, #0xB0
  013e8	e5930000	 ldr         r0, [r3]
  013ec	eb000000	 bl          |?GetLCDPixelFormat@OMAPDisplayController@@QAA?AW4OMAP_DSS_PIXELFORMAT@@XZ|
  013f0	e58d0008	 str         r0, [sp, #8]
  013f4	e59d3008	 ldr         r3, [sp, #8]
  013f8	e58d3000	 str         r3, [sp]

; 547  : }

  013fc	e59d0000	 ldr         r0, [sp]
  01400	e28dd00c	 add         sp, sp, #0xC
  01404	e89d6000	 ldmia       sp, {sp, lr}
  01408	e12fff1e	 bx          lr
  0140c		 |$LN8@GetPrimary|
  0140c		 |$LN9@GetPrimary|
  0140c	00000000	 DCD         |??_C@_1EG@PJNCKJAB@?$AAO?$AAM?$AAA?$AAP?$AAD?$AAD?$AAG?$AAP?$AAE?$AA?3?$AA?3?$AAG?$AAe?$AAt?$AAP?$AAr?$AAi?$AAm?$AAa?$AAr?$AAy?$AAP?$AAi?$AAx?$AAe?$AAl?$AAF?$AAo?$AAr?$AAm?$AAa?$AAt@|
  01410		 |$LN10@GetPrimary|
  01410	00000000	 DCD         |dpCurSettings|
  01414		 |$M43430|

			 ENDP  ; |?GetPrimaryPixelFormat@OMAPDDGPE@@UAA?AW4OMAP_DSS_PIXELFORMAT@@XZ|, OMAPDDGPE::GetPrimaryPixelFormat

	EXPORT	|??_C@_1EC@MNPJBNCJ@?$AAE?$AAR?$AAR?$AAO?$AAR?$AA?3?$AA?5?$AAI?$AAn?$AAv?$AAa?$AAl?$AAi?$AAd?$AA?5?$AAm?$AAo?$AAd?$AAe?$AAI?$AAd?$AA?5?$AAv?$AAa?$AAl?$AAu?$AAe?$AA?5?$AA?$CF?$AAd?$AA?$AN?$AA?6@| [ DATA ] ; `string'
	EXPORT	|?PixelFormatToBitMask@OMAPDDGPE@@SAHW4OMAP_DSS_PIXELFORMAT@@PAK111@Z| ; OMAPDDGPE::PixelFormatToBitMask
	EXPORT	|?PixelFormat@OMAPSurface@@QAA?AW4OMAP_DSS_PIXELFORMAT@@XZ| ; OMAPSurface::PixelFormat
	EXPORT	|??_C@_1FI@EOMLOOKK@?$AAE?$AAR?$AAR?$AAO?$AAR?$AA?3?$AA?5?$AAU?$AAn?$AAa?$AAb?$AAl?$AAe?$AA?5?$AAt?$AAo?$AA?5?$AAe?$AAn?$AAa?$AAb?$AAl?$AAe?$AA?5?$AAg?$AAr?$AAa?$AAp?$AAh?$AAi?$AAc?$AAs@| [ DATA ] ; `string'
	EXPORT	|??_C@_1GI@LDOCGIDM@?$AAE?$AAR?$AAR?$AAO?$AAR?$AA?3?$AA?5?$AAU?$AAn?$AAa?$AAb?$AAl?$AAe?$AA?5?$AAt?$AAo?$AA?5?$AAs?$AAe?$AAt?$AA?5?$AAg?$AAr?$AAa?$AAp?$AAh?$AAi?$AAc?$AAs?$AA?5?$AAp?$AAi@| [ DATA ] ; `string'
	EXPORT	|?OmapSurface@OMAPDDGPESurface@@QAAPAVOMAPSurface@@XZ| ; OMAPDDGPESurface::OmapSurface
	EXPORT	|??_C@_1FI@FGBBFJN@?$AAE?$AAR?$AAR?$AAO?$AAR?$AA?3?$AA?5?$AAU?$AAn?$AAa?$AAb?$AAl?$AAe?$AA?5?$AAt?$AAo?$AA?5?$AAa?$AAl?$AAl?$AAo?$AAc?$AAa?$AAt?$AAe?$AA?5?$AAp?$AAr?$AAi?$AAm?$AAa?$AAr@| [ DATA ] ; `string'
	EXPORT	|??_C@_1CK@KICMJMOM@?$AAO?$AAM?$AAA?$AAP?$AAD?$AAD?$AAG?$AAP?$AAE?$AA?3?$AA?3?$AAS?$AAe?$AAt?$AAM?$AAo?$AAd?$AAe?$AA?$AN?$AA?6?$AA?$AA@| [ DATA ] ; `string'
	IMPORT	|EngCreatePalette|
	IMPORT	|?DetermineTvOutSurface@OMAPDDGPE@@QAAXH@Z| ; OMAPDDGPE::DetermineTvOutSurface
	IMPORT	|?EnableTvOut@OMAPDisplayController@@QAAHH@Z| ; OMAPDisplayController::EnableTvOut
	IMPORT	|?EnablePipeline@OMAPDisplayController@@QAAHW4OMAP_DSS_PIPELINE@@@Z| ; OMAPDisplayController::EnablePipeline
	IMPORT	|?SetPipelineAttribs@OMAPDisplayController@@QAAHW4OMAP_DSS_PIPELINE@@W4OMAP_DSS_DESTINATION@@PAVOMAPSurface@@KK@Z| ; OMAPDisplayController::SetPipelineAttribs
	IMPORT	|?RotatePipeline@OMAPDisplayController@@QAAHW4OMAP_DSS_PIPELINE@@W4OMAP_DSS_ROTATION@@@Z| ; OMAPDisplayController::RotatePipeline

  00058			 AREA	 |.pdata|, PDATA
|$T43466| DCD	|$LN41@SetMode|
	DCD	0x4001b904

  00000			 AREA	 |.rdata|, DATA, READONLY
|??_C@_1EC@MNPJBNCJ@?$AAE?$AAR?$AAR?$AAO?$AAR?$AA?3?$AA?5?$AAI?$AAn?$AAv?$AAa?$AAl?$AAi?$AAd?$AA?5?$AAm?$AAo?$AAd?$AAe?$AAI?$AAd?$AA?5?$AAv?$AAa?$AAl?$AAu?$AAe?$AA?5?$AA?$CF?$AAd?$AA?$AN?$AA?6@| DCB "E"
	DCB	0x0, "R", 0x0, "R", 0x0, "O", 0x0, "R", 0x0, ":", 0x0, " "
	DCB	0x0, "I", 0x0, "n", 0x0, "v", 0x0, "a", 0x0, "l", 0x0, "i"
	DCB	0x0, "d", 0x0, " ", 0x0, "m", 0x0, "o", 0x0, "d", 0x0, "e"
	DCB	0x0, "I", 0x0, "d", 0x0, " ", 0x0, "v", 0x0, "a", 0x0, "l"
	DCB	0x0, "u", 0x0, "e", 0x0, " ", 0x0, "%", 0x0, "d", 0x0, 0xd
	DCB	0x0, 0xa, 0x0, 0x0, 0x0			; `string'

  00000			 AREA	 |.rdata|, DATA, READONLY
|??_C@_1FI@EOMLOOKK@?$AAE?$AAR?$AAR?$AAO?$AAR?$AA?3?$AA?5?$AAU?$AAn?$AAa?$AAb?$AAl?$AAe?$AA?5?$AAt?$AAo?$AA?5?$AAe?$AAn?$AAa?$AAb?$AAl?$AAe?$AA?5?$AAg?$AAr?$AAa?$AAp?$AAh?$AAi?$AAc?$AAs@| DCB "E"
	DCB	0x0, "R", 0x0, "R", 0x0, "O", 0x0, "R", 0x0, ":", 0x0, " "
	DCB	0x0, "U", 0x0, "n", 0x0, "a", 0x0, "b", 0x0, "l", 0x0, "e"
	DCB	0x0, " ", 0x0, "t", 0x0, "o", 0x0, " ", 0x0, "e", 0x0, "n"
	DCB	0x0, "a", 0x0, "b", 0x0, "l", 0x0, "e", 0x0, " ", 0x0, "g"
	DCB	0x0, "r", 0x0, "a", 0x0, "p", 0x0, "h", 0x0, "i", 0x0, "c"
	DCB	0x0, "s", 0x0, " ", 0x0, "p", 0x0, "i", 0x0, "p", 0x0, "e"
	DCB	0x0, "l", 0x0, "i", 0x0, "n", 0x0, "e", 0x0, 0xd, 0x0, 0xa
	DCB	0x0, 0x0, 0x0				; `string'

  00000			 AREA	 |.rdata|, DATA, READONLY
|??_C@_1GI@LDOCGIDM@?$AAE?$AAR?$AAR?$AAO?$AAR?$AA?3?$AA?5?$AAU?$AAn?$AAa?$AAb?$AAl?$AAe?$AA?5?$AAt?$AAo?$AA?5?$AAs?$AAe?$AAt?$AA?5?$AAg?$AAr?$AAa?$AAp?$AAh?$AAi?$AAc?$AAs?$AA?5?$AAp?$AAi@| DCB "E"
	DCB	0x0, "R", 0x0, "R", 0x0, "O", 0x0, "R", 0x0, ":", 0x0, " "
	DCB	0x0, "U", 0x0, "n", 0x0, "a", 0x0, "b", 0x0, "l", 0x0, "e"
	DCB	0x0, " ", 0x0, "t", 0x0, "o", 0x0, " ", 0x0, "s", 0x0, "e"
	DCB	0x0, "t", 0x0, " ", 0x0, "g", 0x0, "r", 0x0, "a", 0x0, "p"
	DCB	0x0, "h", 0x0, "i", 0x0, "c", 0x0, "s", 0x0, " ", 0x0, "p"
	DCB	0x0, "i", 0x0, "p", 0x0, "e", 0x0, "l", 0x0, "i", 0x0, "n"
	DCB	0x0, "e", 0x0, " ", 0x0, "a", 0x0, "t", 0x0, "t", 0x0, "r"
	DCB	0x0, "i", 0x0, "b", 0x0, "u", 0x0, "t", 0x0, "e", 0x0, "s"
	DCB	0x0, 0xd, 0x0, 0xa, 0x0, 0x0, 0x0	; `string'

  00000			 AREA	 |.rdata|, DATA, READONLY
|??_C@_1FI@FGBBFJN@?$AAE?$AAR?$AAR?$AAO?$AAR?$AA?3?$AA?5?$AAU?$AAn?$AAa?$AAb?$AAl?$AAe?$AA?5?$AAt?$AAo?$AA?5?$AAa?$AAl?$AAl?$AAo?$AAc?$AAa?$AAt?$AAe?$AA?5?$AAp?$AAr?$AAi?$AAm?$AAa?$AAr@| DCB "E"
	DCB	0x0, "R", 0x0, "R", 0x0, "O", 0x0, "R", 0x0, ":", 0x0, " "
	DCB	0x0, "U", 0x0, "n", 0x0, "a", 0x0, "b", 0x0, "l", 0x0, "e"
	DCB	0x0, " ", 0x0, "t", 0x0, "o", 0x0, " ", 0x0, "a", 0x0, "l"
	DCB	0x0, "l", 0x0, "o", 0x0, "c", 0x0, "a", 0x0, "t", 0x0, "e"
	DCB	0x0, " ", 0x0, "p", 0x0, "r", 0x0, "i", 0x0, "m", 0x0, "a"
	DCB	0x0, "r", 0x0, "y", 0x0, " ", 0x0, "s", 0x0, "u", 0x0, "r"
	DCB	0x0, "f", 0x0, "a", 0x0, "c", 0x0, "e", 0x0, 0xd, 0x0, 0xa
	DCB	0x0, 0x0, 0x0				; `string'

  00000			 AREA	 |.rdata|, DATA, READONLY
|??_C@_1CK@KICMJMOM@?$AAO?$AAM?$AAA?$AAP?$AAD?$AAD?$AAG?$AAP?$AAE?$AA?3?$AA?3?$AAS?$AAe?$AAt?$AAM?$AAo?$AAd?$AAe?$AA?$AN?$AA?6?$AA?$AA@| DCB "O"
	DCB	0x0, "M", 0x0, "A", 0x0, "P", 0x0, "D", 0x0, "D", 0x0, "G"
	DCB	0x0, "P", 0x0, "E", 0x0, ":", 0x0, ":", 0x0, "S", 0x0, "e"
	DCB	0x0, "t", 0x0, "M", 0x0, "o", 0x0, "d", 0x0, "e", 0x0, 0xd
	DCB	0x0, 0xa, 0x0, 0x0, 0x0			; `string'
; Function compile flags: /Odtp

  01414			 AREA	 |.text|, CODE, ARM

  01414		 |?SetMode@OMAPDDGPE@@UAAJHPAPAUHPALETTE__@@@Z| PROC ; OMAPDDGPE::SetMode

; 555  : {

  01414		 |$LN41@SetMode|
  01414	e1a0c00d	 mov         r12, sp
  01418	e92d0007	 stmdb       sp!, {r0 - r2}
  0141c	e92d5010	 stmdb       sp!, {r4, r12, lr}
  01420	e24dd0ac	 sub         sp, sp, #0xAC
  01424		 |$M43463|

; 556  :     SCODE   scResult = E_FAIL;

  01424	e3a03116	 mov         r3, #0x16, 2
  01428	e3833901	 orr         r3, r3, #1, 18
  0142c	e58d3008	 str         r3, [sp, #8]

; 557  :     BOOL    bResult;
; 558  : 
; 559  :     DEBUGMSG(GPE_ZONE_INIT,(TEXT("OMAPDDGPE::SetMode\r\n")));

  01430	e59f36a8	 ldr         r3, [pc, #0x6A8]
  01434	e5933440	 ldr         r3, [r3, #0x440]
  01438	e3130020	 tst         r3, #0x20
  0143c	0a000004	 beq         |$LN20@SetMode|
  01440	e59f06ac	 ldr         r0, [pc, #0x6AC]
  01444	eb000000	 bl          NKDbgPrintfW
  01448	e3a03001	 mov         r3, #1
  0144c	e58d3040	 str         r3, [sp, #0x40]
  01450	ea000001	 b           |$LN21@SetMode|
  01454		 |$LN20@SetMode|
  01454	e3a03000	 mov         r3, #0
  01458	e58d3040	 str         r3, [sp, #0x40]
  0145c		 |$LN21@SetMode|

; 560  : 
; 561  : 
; 562  :     //  Check display controller enabled
; 563  :     if( m_pDisplayContr == NULL )

  0145c	e59d30b8	 ldr         r3, [sp, #0xB8]
  01460	e28330b0	 add         r3, r3, #0xB0
  01464	e5933000	 ldr         r3, [r3]
  01468	e3530000	 cmp         r3, #0
  0146c	1a000003	 bne         |$LN17@SetMode|

; 564  :         return E_FAIL;

  01470	e3a03116	 mov         r3, #0x16, 2
  01474	e3833901	 orr         r3, r3, #1, 18
  01478	e58d3024	 str         r3, [sp, #0x24]
  0147c	ea000191	 b           |$LN18@SetMode|
  01480		 |$LN17@SetMode|

; 565  : 
; 566  :     //  Only a single, default mode is supported
; 567  :     if( modeId == 0 )

  01480	e59d30bc	 ldr         r3, [sp, #0xBC]
  01484	e3530000	 cmp         r3, #0
  01488	1a00017e	 bne         |$LN16@SetMode|

; 568  :     {
; 569  :         //  Allocate display primary surface for LCD
; 570  :         scResult = AllocSurface(
; 571  :                         &m_pPrimarySurf,
; 572  :                         m_pDisplayContr->GetLCDPixelFormat(),
; 573  :                         m_pDisplayContr->GetLCDWidth(),
; 574  :                         m_pDisplayContr->GetLCDHeight() );

  0148c	e59d30b8	 ldr         r3, [sp, #0xB8]
  01490	e28330b0	 add         r3, r3, #0xB0
  01494	e5930000	 ldr         r0, [r3]
  01498	eb000000	 bl          |?GetLCDHeight@OMAPDisplayController@@QAAKXZ|
  0149c	e58d0044	 str         r0, [sp, #0x44]
  014a0	e59d30b8	 ldr         r3, [sp, #0xB8]
  014a4	e28330b0	 add         r3, r3, #0xB0
  014a8	e5930000	 ldr         r0, [r3]
  014ac	eb000000	 bl          |?GetLCDWidth@OMAPDisplayController@@QAAKXZ|
  014b0	e58d0048	 str         r0, [sp, #0x48]
  014b4	e59d30b8	 ldr         r3, [sp, #0xB8]
  014b8	e28330b0	 add         r3, r3, #0xB0
  014bc	e5930000	 ldr         r0, [r3]
  014c0	eb000000	 bl          |?GetLCDPixelFormat@OMAPDisplayController@@QAA?AW4OMAP_DSS_PIXELFORMAT@@XZ|
  014c4	e58d004c	 str         r0, [sp, #0x4C]
  014c8	e59d3044	 ldr         r3, [sp, #0x44]
  014cc	e58d3000	 str         r3, [sp]
  014d0	e59d3048	 ldr         r3, [sp, #0x48]
  014d4	e59d204c	 ldr         r2, [sp, #0x4C]
  014d8	e59d10b8	 ldr         r1, [sp, #0xB8]
  014dc	e28110bc	 add         r1, r1, #0xBC
  014e0	e59d00b8	 ldr         r0, [sp, #0xB8]
  014e4	e5900000	 ldr         r0, [r0]
  014e8	e280e0f4	 add         lr, r0, #0xF4
  014ec	e59d00b8	 ldr         r0, [sp, #0xB8]
  014f0	e59e4000	 ldr         r4, [lr]
  014f4	e1a0e00f	 mov         lr, pc
  014f8	e12fff14	 bx          r4
  014fc	e58d0050	 str         r0, [sp, #0x50]
  01500	e59d3050	 ldr         r3, [sp, #0x50]
  01504	e58d3008	 str         r3, [sp, #8]

; 575  :         if (scResult != S_OK)

  01508	e59d3008	 ldr         r3, [sp, #8]
  0150c	e3530000	 cmp         r3, #0
  01510	0a00000c	 beq         |$LN15@SetMode|

; 576  :         {
; 577  :             DEBUGMSG (GPE_ZONE_ERROR, (L"ERROR: Unable to allocate primary surface\r\n"));

  01514	e59f35c4	 ldr         r3, [pc, #0x5C4]
  01518	e5933440	 ldr         r3, [r3, #0x440]
  0151c	e3130001	 tst         r3, #1
  01520	0a000004	 beq         |$LN22@SetMode|
  01524	e59f05c4	 ldr         r0, [pc, #0x5C4]
  01528	eb000000	 bl          NKDbgPrintfW
  0152c	e3a03001	 mov         r3, #1
  01530	e58d3054	 str         r3, [sp, #0x54]
  01534	ea000001	 b           |$LN23@SetMode|
  01538		 |$LN22@SetMode|
  01538	e3a03000	 mov         r3, #0
  0153c	e58d3054	 str         r3, [sp, #0x54]
  01540		 |$LN23@SetMode|

; 578  :             goto cleanUp;

  01540	ea00015e	 b           |$LN14@SetMode|
  01544	ea00015d	 b           |$cleanUp$42313|
  01548		 |$LN15@SetMode|

; 579  :         }
; 580  : 
; 581  :         //  Set GPE primary surface pointer
; 582  :         m_pPrimarySurface = m_pPrimarySurf;

  01548	e59d30b8	 ldr         r3, [sp, #0xB8]
  0154c	e28310bc	 add         r1, r3, #0xBC
  01550	e59d30b8	 ldr         r3, [sp, #0xB8]
  01554	e2832004	 add         r2, r3, #4
  01558	e5913000	 ldr         r3, [r1]
  0155c	e5823000	 str         r3, [r2]

; 583  : 
; 584  : 
; 585  :         //  Set the desired initial rotation angle if rotation is supported by the surface manager
; 586  :         if( m_pSurfaceMgr->SupportsRotation() == TRUE )

  01560	e59d30b8	 ldr         r3, [sp, #0xB8]
  01564	e28330b4	 add         r3, r3, #0xB4
  01568	e5932000	 ldr         r2, [r3]
  0156c	e59d30b8	 ldr         r3, [sp, #0xB8]
  01570	e28330b4	 add         r3, r3, #0xB4
  01574	e5930000	 ldr         r0, [r3]
  01578	e5923000	 ldr         r3, [r2]
  0157c	e2833020	 add         r3, r3, #0x20
  01580	e5933000	 ldr         r3, [r3]
  01584	e1a0e00f	 mov         lr, pc
  01588	e12fff13	 bx          r3
  0158c	e58d0058	 str         r0, [sp, #0x58]
  01590	e59d3058	 ldr         r3, [sp, #0x58]
  01594	e3530001	 cmp         r3, #1
  01598	1a00005c	 bne         |$LN13@SetMode|

; 587  :         {
; 588  :             //  Change width and height of primary surface, but not the surface angle of the GPE surface
; 589  :             //  Have the display controller rotate the output of the primary surface
; 590  :             switch( m_iGraphicsRotate )

  0159c	e59d30b8	 ldr         r3, [sp, #0xB8]
  015a0	e2833098	 add         r3, r3, #0x98
  015a4	e5933000	 ldr         r3, [r3]
  015a8	e58d305c	 str         r3, [sp, #0x5C]
  015ac	e59d305c	 ldr         r3, [sp, #0x5C]
  015b0	e3530004	 cmp         r3, #4
  015b4	8a000055	 bhi         |$LN11@SetMode|
  015b8	e59d205c	 ldr         r2, [sp, #0x5C]
  015bc	e1a03102	 mov         r3, r2, lsl #2
  015c0	e083300f	 add         r3, r3, pc
  015c4	e5933004	 ldr         r3, [r3, #4]
  015c8	e08ff003	 add         pc, pc, r3
  015cc		 |$LN33@SetMode|
  015cc		 |$LN32@SetMode|
  015cc		 |$LN34@SetMode|
  015cc	00000010	 DCD         0x10
  015d0		 |$LN35@SetMode|
  015d0	0000005c	 DCD         0x5c
  015d4		 |$LN36@SetMode|
  015d4	000000a8	 DCD         0xa8
  015d8		 |$LN37@SetMode|
  015d8	00000140	 DCD         0x140
  015dc		 |$LN38@SetMode|
  015dc	000000f4	 DCD         0xf4
  015e0		 |$LN10@SetMode|

; 591  :             {
; 592  :                 case DMDO_0:
; 593  :                     //  Set the rotation and orientation of the primary surface
; 594  :                     m_pPrimarySurf->SetOrientation( OMAP_SURF_ORIENTATION_STANDARD );

  015e0	e3a01000	 mov         r1, #0
  015e4	e59d30b8	 ldr         r3, [sp, #0xB8]
  015e8	e28330bc	 add         r3, r3, #0xBC
  015ec	e5932000	 ldr         r2, [r3]
  015f0	e59d30b8	 ldr         r3, [sp, #0xB8]
  015f4	e28330bc	 add         r3, r3, #0xBC
  015f8	e5930000	 ldr         r0, [r3]
  015fc	e5923000	 ldr         r3, [r2]
  01600	e2833048	 add         r3, r3, #0x48
  01604	e5933000	 ldr         r3, [r3]
  01608	e1a0e00f	 mov         lr, pc
  0160c	e12fff13	 bx          r3

; 595  :                     
; 596  :                     //  Set the output rotation angle for the pipeline
; 597  :                     m_pDisplayContr->RotatePipeline( OMAP_DSS_PIPELINE_GFX, OMAP_DSS_ROTATION_0 );

  01610	e3a02000	 mov         r2, #0
  01614	e3a01000	 mov         r1, #0
  01618	e59d30b8	 ldr         r3, [sp, #0xB8]
  0161c	e28330b0	 add         r3, r3, #0xB0
  01620	e5930000	 ldr         r0, [r3]
  01624	eb000000	 bl          |?RotatePipeline@OMAPDisplayController@@QAAHW4OMAP_DSS_PIPELINE@@W4OMAP_DSS_ROTATION@@@Z|

; 598  :                     break;

  01628	ea000038	 b           |$LN11@SetMode|
  0162c		 |$LN9@SetMode|

; 599  : 
; 600  :                 case DMDO_90:
; 601  :                     //  Set the rotation and orientation of the primary surface
; 602  :                     m_pPrimarySurf->SetOrientation( OMAP_SURF_ORIENTATION_ROTATED );

  0162c	e3a01001	 mov         r1, #1
  01630	e59d30b8	 ldr         r3, [sp, #0xB8]
  01634	e28330bc	 add         r3, r3, #0xBC
  01638	e5932000	 ldr         r2, [r3]
  0163c	e59d30b8	 ldr         r3, [sp, #0xB8]
  01640	e28330bc	 add         r3, r3, #0xBC
  01644	e5930000	 ldr         r0, [r3]
  01648	e5923000	 ldr         r3, [r2]
  0164c	e2833048	 add         r3, r3, #0x48
  01650	e5933000	 ldr         r3, [r3]
  01654	e1a0e00f	 mov         lr, pc
  01658	e12fff13	 bx          r3

; 603  :                     
; 604  :                     //  Set the output rotation angle for the pipeline
; 605  :                     m_pDisplayContr->RotatePipeline( OMAP_DSS_PIPELINE_GFX, OMAP_DSS_ROTATION_90 );

  0165c	e3a0205a	 mov         r2, #0x5A
  01660	e3a01000	 mov         r1, #0
  01664	e59d30b8	 ldr         r3, [sp, #0xB8]
  01668	e28330b0	 add         r3, r3, #0xB0
  0166c	e5930000	 ldr         r0, [r3]
  01670	eb000000	 bl          |?RotatePipeline@OMAPDisplayController@@QAAHW4OMAP_DSS_PIPELINE@@W4OMAP_DSS_ROTATION@@@Z|

; 606  :                     break;

  01674	ea000025	 b           |$LN11@SetMode|
  01678		 |$LN8@SetMode|

; 607  : 
; 608  :                 case DMDO_180:
; 609  :                     //  Set the rotation and orientation of the primary surface
; 610  :                     m_pPrimarySurf->SetOrientation( OMAP_SURF_ORIENTATION_STANDARD );

  01678	e3a01000	 mov         r1, #0
  0167c	e59d30b8	 ldr         r3, [sp, #0xB8]
  01680	e28330bc	 add         r3, r3, #0xBC
  01684	e5932000	 ldr         r2, [r3]
  01688	e59d30b8	 ldr         r3, [sp, #0xB8]
  0168c	e28330bc	 add         r3, r3, #0xBC
  01690	e5930000	 ldr         r0, [r3]
  01694	e5923000	 ldr         r3, [r2]
  01698	e2833048	 add         r3, r3, #0x48
  0169c	e5933000	 ldr         r3, [r3]
  016a0	e1a0e00f	 mov         lr, pc
  016a4	e12fff13	 bx          r3

; 611  :                     
; 612  :                     //  Set the output rotation angle for the pipeline
; 613  :                     m_pDisplayContr->RotatePipeline( OMAP_DSS_PIPELINE_GFX, OMAP_DSS_ROTATION_180 );

  016a8	e3a020b4	 mov         r2, #0xB4
  016ac	e3a01000	 mov         r1, #0
  016b0	e59d30b8	 ldr         r3, [sp, #0xB8]
  016b4	e28330b0	 add         r3, r3, #0xB0
  016b8	e5930000	 ldr         r0, [r3]
  016bc	eb000000	 bl          |?RotatePipeline@OMAPDisplayController@@QAAHW4OMAP_DSS_PIPELINE@@W4OMAP_DSS_ROTATION@@@Z|

; 614  :                     break;

  016c0	ea000012	 b           |$LN11@SetMode|
  016c4		 |$LN7@SetMode|

; 615  : 
; 616  :                 case DMDO_270:
; 617  :                     //  Set the rotation and orientation of the primary surface
; 618  :                     m_pPrimarySurf->SetOrientation( OMAP_SURF_ORIENTATION_ROTATED );

  016c4	e3a01001	 mov         r1, #1
  016c8	e59d30b8	 ldr         r3, [sp, #0xB8]
  016cc	e28330bc	 add         r3, r3, #0xBC
  016d0	e5932000	 ldr         r2, [r3]
  016d4	e59d30b8	 ldr         r3, [sp, #0xB8]
  016d8	e28330bc	 add         r3, r3, #0xBC
  016dc	e5930000	 ldr         r0, [r3]
  016e0	e5923000	 ldr         r3, [r2]
  016e4	e2833048	 add         r3, r3, #0x48
  016e8	e5933000	 ldr         r3, [r3]
  016ec	e1a0e00f	 mov         lr, pc
  016f0	e12fff13	 bx          r3

; 619  :                     
; 620  :                     //  Set the output rotation angle for the pipeline
; 621  :                     m_pDisplayContr->RotatePipeline( OMAP_DSS_PIPELINE_GFX, OMAP_DSS_ROTATION_270 );

  016f4	e3a02c01	 mov         r2, #1, 24
  016f8	e382200e	 orr         r2, r2, #0xE
  016fc	e3a01000	 mov         r1, #0
  01700	e59d30b8	 ldr         r3, [sp, #0xB8]
  01704	e28330b0	 add         r3, r3, #0xB0
  01708	e5930000	 ldr         r0, [r3]
  0170c	eb000000	 bl          |?RotatePipeline@OMAPDisplayController@@QAAHW4OMAP_DSS_PIPELINE@@W4OMAP_DSS_ROTATION@@@Z|
  01710		 |$LN11@SetMode|
  01710		 |$LN13@SetMode|

; 622  :                     break;
; 623  :             }
; 624  :         }
; 625  :         
; 626  : 
; 627  :         //  Setup the attributes of the primary surface pipeline to match LCD attributes
; 628  :         bResult = m_pDisplayContr->SetPipelineAttribs(
; 629  :                                     OMAP_DSS_PIPELINE_GFX,
; 630  :                                     OMAP_DSS_DESTINATION_LCD,
; 631  :                                     m_pPrimarySurf->OmapSurface() );

  01710	e59d30b8	 ldr         r3, [sp, #0xB8]
  01714	e28330bc	 add         r3, r3, #0xBC
  01718	e5930000	 ldr         r0, [r3]
  0171c	eb000000	 bl          |?OmapSurface@OMAPDDGPESurface@@QAAPAVOMAPSurface@@XZ|
  01720	e58d0060	 str         r0, [sp, #0x60]
  01724	e3a03000	 mov         r3, #0
  01728	e58d3004	 str         r3, [sp, #4]
  0172c	e3a03000	 mov         r3, #0
  01730	e58d3000	 str         r3, [sp]
  01734	e59d3060	 ldr         r3, [sp, #0x60]
  01738	e3a02000	 mov         r2, #0
  0173c	e3a01000	 mov         r1, #0
  01740	e59d00b8	 ldr         r0, [sp, #0xB8]
  01744	e28000b0	 add         r0, r0, #0xB0
  01748	e5900000	 ldr         r0, [r0]
  0174c	eb000000	 bl          |?SetPipelineAttribs@OMAPDisplayController@@QAAHW4OMAP_DSS_PIPELINE@@W4OMAP_DSS_DESTINATION@@PAVOMAPSurface@@KK@Z|
  01750	e58d0064	 str         r0, [sp, #0x64]
  01754	e59d3064	 ldr         r3, [sp, #0x64]
  01758	e58d300c	 str         r3, [sp, #0xC]

; 632  :         if( bResult == FALSE )

  0175c	e59d300c	 ldr         r3, [sp, #0xC]
  01760	e3530000	 cmp         r3, #0
  01764	1a00000c	 bne         |$LN6@SetMode|

; 633  :         {
; 634  :             DEBUGMSG (GPE_ZONE_ERROR, (L"ERROR: Unable to set graphics pipeline attributes\r\n"));

  01768	e59f3370	 ldr         r3, [pc, #0x370]
  0176c	e5933440	 ldr         r3, [r3, #0x440]
  01770	e3130001	 tst         r3, #1
  01774	0a000004	 beq         |$LN24@SetMode|
  01778	e59f036c	 ldr         r0, [pc, #0x36C]
  0177c	eb000000	 bl          NKDbgPrintfW
  01780	e3a03001	 mov         r3, #1
  01784	e58d3068	 str         r3, [sp, #0x68]
  01788	ea000001	 b           |$LN25@SetMode|
  0178c		 |$LN24@SetMode|
  0178c	e3a03000	 mov         r3, #0
  01790	e58d3068	 str         r3, [sp, #0x68]
  01794		 |$LN25@SetMode|

; 635  :             goto cleanUp;

  01794	ea0000c9	 b           |$LN5@SetMode|
  01798	ea0000c8	 b           |$cleanUp$42313|
  0179c		 |$LN6@SetMode|

; 636  :         }
; 637  : 
; 638  :         //  Enable the pipeline
; 639  :         bResult = m_pDisplayContr->EnablePipeline(
; 640  :                                     OMAP_DSS_PIPELINE_GFX );

  0179c	e3a01000	 mov         r1, #0
  017a0	e59d30b8	 ldr         r3, [sp, #0xB8]
  017a4	e28330b0	 add         r3, r3, #0xB0
  017a8	e5930000	 ldr         r0, [r3]
  017ac	eb000000	 bl          |?EnablePipeline@OMAPDisplayController@@QAAHW4OMAP_DSS_PIPELINE@@@Z|
  017b0	e58d006c	 str         r0, [sp, #0x6C]
  017b4	e59d306c	 ldr         r3, [sp, #0x6C]
  017b8	e58d300c	 str         r3, [sp, #0xC]

; 641  :         if( bResult == FALSE )

  017bc	e59d300c	 ldr         r3, [sp, #0xC]
  017c0	e3530000	 cmp         r3, #0
  017c4	1a00000c	 bne         |$LN4@SetMode|

; 642  :         {
; 643  :             DEBUGMSG (GPE_ZONE_ERROR, (L"ERROR: Unable to enable graphics pipeline\r\n"));

  017c8	e59f3310	 ldr         r3, [pc, #0x310]
  017cc	e5933440	 ldr         r3, [r3, #0x440]
  017d0	e3130001	 tst         r3, #1
  017d4	0a000004	 beq         |$LN26@SetMode|
  017d8	e59f0308	 ldr         r0, [pc, #0x308]
  017dc	eb000000	 bl          NKDbgPrintfW
  017e0	e3a03001	 mov         r3, #1
  017e4	e58d3070	 str         r3, [sp, #0x70]
  017e8	ea000001	 b           |$LN27@SetMode|
  017ec		 |$LN26@SetMode|
  017ec	e3a03000	 mov         r3, #0
  017f0	e58d3070	 str         r3, [sp, #0x70]
  017f4		 |$LN27@SetMode|

; 644  :             goto cleanUp;

  017f4	ea0000b1	 b           |$LN3@SetMode|
  017f8	ea0000b0	 b           |$cleanUp$42313|
  017fc		 |$LN4@SetMode|

; 645  :         }
; 646  : 
; 647  : 
; 648  :         //  Enable/disable TV out accordingly
; 649  :         m_pDisplayContr->EnableTvOut( m_bTVOutEnable );

  017fc	e59d30b8	 ldr         r3, [sp, #0xB8]
  01800	e2833e11	 add         r3, r3, #0x11, 28
  01804	e5931000	 ldr         r1, [r3]
  01808	e59d30b8	 ldr         r3, [sp, #0xB8]
  0180c	e28330b0	 add         r3, r3, #0xB0
  01810	e5930000	 ldr         r0, [r3]
  01814	eb000000	 bl          |?EnableTvOut@OMAPDisplayController@@QAAHH@Z|

; 650  : 
; 651  :         //  Get the best surface to display on the TV
; 652  :         DetermineTvOutSurface();

  01818	e3a01000	 mov         r1, #0
  0181c	e59d00b8	 ldr         r0, [sp, #0xB8]
  01820	eb000000	 bl          |?DetermineTvOutSurface@OMAPDDGPE@@QAAXH@Z|

; 653  : 
; 654  : 
; 655  :         //  Update extended mode information
; 656  :         m_pMode->width = m_pPrimarySurf->OmapSurface()->Width();

  01824	e59d30b8	 ldr         r3, [sp, #0xB8]
  01828	e28330bc	 add         r3, r3, #0xBC
  0182c	e5930000	 ldr         r0, [r3]
  01830	eb000000	 bl          |?OmapSurface@OMAPDDGPESurface@@QAAPAVOMAPSurface@@XZ|
  01834	e58d0074	 str         r0, [sp, #0x74]
  01838	e59d3074	 ldr         r3, [sp, #0x74]
  0183c	e58d3078	 str         r3, [sp, #0x78]
  01840	e3a01000	 mov         r1, #0
  01844	e59d0078	 ldr         r0, [sp, #0x78]
  01848	e59d3078	 ldr         r3, [sp, #0x78]
  0184c	e5933000	 ldr         r3, [r3]
  01850	e2833008	 add         r3, r3, #8
  01854	e5933000	 ldr         r3, [r3]
  01858	e1a0e00f	 mov         lr, pc
  0185c	e12fff13	 bx          r3
  01860	e58d007c	 str         r0, [sp, #0x7C]
  01864	e59d30b8	 ldr         r3, [sp, #0xB8]
  01868	e2833010	 add         r3, r3, #0x10
  0186c	e5933000	 ldr         r3, [r3]
  01870	e2832004	 add         r2, r3, #4
  01874	e59d307c	 ldr         r3, [sp, #0x7C]
  01878	e5823000	 str         r3, [r2]

; 657  :         m_pMode->height = m_pPrimarySurf->OmapSurface()->Height();

  0187c	e59d30b8	 ldr         r3, [sp, #0xB8]
  01880	e28330bc	 add         r3, r3, #0xBC
  01884	e5930000	 ldr         r0, [r3]
  01888	eb000000	 bl          |?OmapSurface@OMAPDDGPESurface@@QAAPAVOMAPSurface@@XZ|
  0188c	e58d0080	 str         r0, [sp, #0x80]
  01890	e59d3080	 ldr         r3, [sp, #0x80]
  01894	e58d3084	 str         r3, [sp, #0x84]
  01898	e3a01000	 mov         r1, #0
  0189c	e59d0084	 ldr         r0, [sp, #0x84]
  018a0	e59d3084	 ldr         r3, [sp, #0x84]
  018a4	e5933000	 ldr         r3, [r3]
  018a8	e283300c	 add         r3, r3, #0xC
  018ac	e5933000	 ldr         r3, [r3]
  018b0	e1a0e00f	 mov         lr, pc
  018b4	e12fff13	 bx          r3
  018b8	e58d0088	 str         r0, [sp, #0x88]
  018bc	e59d30b8	 ldr         r3, [sp, #0xB8]
  018c0	e2833010	 add         r3, r3, #0x10
  018c4	e5933000	 ldr         r3, [r3]
  018c8	e2832008	 add         r2, r3, #8
  018cc	e59d3088	 ldr         r3, [sp, #0x88]
  018d0	e5823000	 str         r3, [r2]

; 658  :         m_pModeEx->lPitch = m_pPrimarySurf->OmapSurface()->Stride();

  018d4	e59d30b8	 ldr         r3, [sp, #0xB8]
  018d8	e28330bc	 add         r3, r3, #0xBC
  018dc	e5930000	 ldr         r0, [r3]
  018e0	eb000000	 bl          |?OmapSurface@OMAPDDGPESurface@@QAAPAVOMAPSurface@@XZ|
  018e4	e58d008c	 str         r0, [sp, #0x8C]
  018e8	e59d308c	 ldr         r3, [sp, #0x8C]
  018ec	e58d3090	 str         r3, [sp, #0x90]
  018f0	e3a01000	 mov         r1, #0
  018f4	e59d0090	 ldr         r0, [sp, #0x90]
  018f8	e59d3090	 ldr         r3, [sp, #0x90]
  018fc	e5933000	 ldr         r3, [r3]
  01900	e2833010	 add         r3, r3, #0x10
  01904	e5933000	 ldr         r3, [r3]
  01908	e1a0e00f	 mov         lr, pc
  0190c	e12fff13	 bx          r3
  01910	e58d0094	 str         r0, [sp, #0x94]
  01914	e59d30b8	 ldr         r3, [sp, #0xB8]
  01918	e2833024	 add         r3, r3, #0x24
  0191c	e5933000	 ldr         r3, [r3]
  01920	e2832040	 add         r2, r3, #0x40
  01924	e59d3094	 ldr         r3, [sp, #0x94]
  01928	e5823000	 str         r3, [r2]

; 659  :                 
; 660  :         OMAPDDGPE::PixelFormatToBitMask(m_pPrimarySurf->OmapSurface()->PixelFormat(), 
; 661  :                                         &m_pModeEx->dwAlphaBitMask,
; 662  :                                         &m_pModeEx->dwRBitMask,
; 663  :                                         &m_pModeEx->dwGBitMask,
; 664  :                                         &m_pModeEx->dwBBitMask);

  0192c	e59d30b8	 ldr         r3, [sp, #0xB8]
  01930	e28330bc	 add         r3, r3, #0xBC
  01934	e5930000	 ldr         r0, [r3]
  01938	eb000000	 bl          |?OmapSurface@OMAPDDGPESurface@@QAAPAVOMAPSurface@@XZ|
  0193c	e58d0098	 str         r0, [sp, #0x98]
  01940	e59d0098	 ldr         r0, [sp, #0x98]
  01944	eb000000	 bl          |?PixelFormat@OMAPSurface@@QAA?AW4OMAP_DSS_PIXELFORMAT@@XZ|
  01948	e58d009c	 str         r0, [sp, #0x9C]
  0194c	e59d30b8	 ldr         r3, [sp, #0xB8]
  01950	e2833024	 add         r3, r3, #0x24
  01954	e5933000	 ldr         r3, [r3]
  01958	e2833050	 add         r3, r3, #0x50
  0195c	e58d3000	 str         r3, [sp]
  01960	e59d30b8	 ldr         r3, [sp, #0xB8]
  01964	e2833024	 add         r3, r3, #0x24
  01968	e5933000	 ldr         r3, [r3]
  0196c	e283304c	 add         r3, r3, #0x4C
  01970	e59d20b8	 ldr         r2, [sp, #0xB8]
  01974	e2822024	 add         r2, r2, #0x24
  01978	e5922000	 ldr         r2, [r2]
  0197c	e2822048	 add         r2, r2, #0x48
  01980	e59d10b8	 ldr         r1, [sp, #0xB8]
  01984	e2811024	 add         r1, r1, #0x24
  01988	e5911000	 ldr         r1, [r1]
  0198c	e2811054	 add         r1, r1, #0x54
  01990	e59d009c	 ldr         r0, [sp, #0x9C]
  01994	eb000000	 bl          |?PixelFormatToBitMask@OMAPDDGPE@@SAHW4OMAP_DSS_PIXELFORMAT@@PAK111@Z|

; 665  : 
; 666  : 
; 667  :         //  Allocate palette for selected mode
; 668  :         if (palette)

  01998	e59d30c0	 ldr         r3, [sp, #0xC0]
  0199c	e3530000	 cmp         r3, #0
  019a0	0a000035	 beq         |$LN2@SetMode|

; 669  :         {
; 670  :             ULONG   uNumColors = (m_pModeEx->dwAlphaBitMask == 0) ? 3 : 4;

  019a4	e59d30b8	 ldr         r3, [sp, #0xB8]
  019a8	e2833024	 add         r3, r3, #0x24
  019ac	e5933000	 ldr         r3, [r3]
  019b0	e2833054	 add         r3, r3, #0x54
  019b4	e5933000	 ldr         r3, [r3]
  019b8	e3530000	 cmp         r3, #0
  019bc	1a000002	 bne         |$LN28@SetMode|
  019c0	e3a03003	 mov         r3, #3
  019c4	e58d30a0	 str         r3, [sp, #0xA0]
  019c8	ea000001	 b           |$LN29@SetMode|
  019cc		 |$LN28@SetMode|
  019cc	e3a03004	 mov         r3, #4
  019d0	e58d30a0	 str         r3, [sp, #0xA0]
  019d4		 |$LN29@SetMode|
  019d4	e59d30a0	 ldr         r3, [sp, #0xA0]
  019d8	e58d3020	 str         r3, [sp, #0x20]

; 671  :             ULONG   uColors[4];
; 672  : 
; 673  :             //  Colors are always in RGBA order
; 674  :             uColors[0] = m_pModeEx->dwRBitMask;

  019dc	e59d30b8	 ldr         r3, [sp, #0xB8]
  019e0	e2833024	 add         r3, r3, #0x24
  019e4	e5933000	 ldr         r3, [r3]
  019e8	e2833048	 add         r3, r3, #0x48
  019ec	e5933000	 ldr         r3, [r3]
  019f0	e58d3010	 str         r3, [sp, #0x10]

; 675  :             uColors[1] = m_pModeEx->dwGBitMask;

  019f4	e59d30b8	 ldr         r3, [sp, #0xB8]
  019f8	e2833024	 add         r3, r3, #0x24
  019fc	e5933000	 ldr         r3, [r3]
  01a00	e283304c	 add         r3, r3, #0x4C
  01a04	e5933000	 ldr         r3, [r3]
  01a08	e58d3014	 str         r3, [sp, #0x14]

; 676  :             uColors[2] = m_pModeEx->dwBBitMask;

  01a0c	e59d30b8	 ldr         r3, [sp, #0xB8]
  01a10	e2833024	 add         r3, r3, #0x24
  01a14	e5933000	 ldr         r3, [r3]
  01a18	e2833050	 add         r3, r3, #0x50
  01a1c	e5933000	 ldr         r3, [r3]
  01a20	e58d3018	 str         r3, [sp, #0x18]

; 677  :             uColors[3] = m_pModeEx->dwAlphaBitMask;

  01a24	e59d30b8	 ldr         r3, [sp, #0xB8]
  01a28	e2833024	 add         r3, r3, #0x24
  01a2c	e5933000	 ldr         r3, [r3]
  01a30	e2833054	 add         r3, r3, #0x54
  01a34	e5933000	 ldr         r3, [r3]
  01a38	e58d301c	 str         r3, [sp, #0x1C]

; 678  : 
; 679  :             //  Create palette info for selected mode
; 680  :             *palette = EngCreatePalette (
; 681  :                             PAL_BITFIELDS,
; 682  :                             uNumColors,
; 683  :                             uColors,
; 684  :                             0,
; 685  :                             0,
; 686  :                             0);

  01a3c	e3a03000	 mov         r3, #0
  01a40	e58d3004	 str         r3, [sp, #4]
  01a44	e3a03000	 mov         r3, #0
  01a48	e58d3000	 str         r3, [sp]
  01a4c	e3a03000	 mov         r3, #0
  01a50	e28d2010	 add         r2, sp, #0x10
  01a54	e59d1020	 ldr         r1, [sp, #0x20]
  01a58	e3a00002	 mov         r0, #2
  01a5c	e59fe080	 ldr         lr, [pc, #0x80]
  01a60	e59e4000	 ldr         r4, [lr]
  01a64	e1a0e00f	 mov         lr, pc
  01a68	e12fff14	 bx          r4
  01a6c	e58d00a4	 str         r0, [sp, #0xA4]
  01a70	e59d20a4	 ldr         r2, [sp, #0xA4]
  01a74	e59d30c0	 ldr         r3, [sp, #0xC0]
  01a78	e5832000	 str         r2, [r3]
  01a7c		 |$LN2@SetMode|

; 687  :         }
; 688  : 
; 689  :         //  Success
; 690  :         scResult = S_OK;

  01a7c	e3a03000	 mov         r3, #0
  01a80	e58d3008	 str         r3, [sp, #8]

; 691  :     }
; 692  :     else

  01a84	ea00000d	 b           |$LN1@SetMode|
  01a88		 |$LN16@SetMode|

; 693  :     {
; 694  :         DEBUGMSG (GPE_ZONE_ERROR, (L"ERROR: Invalid modeId value %d\r\n", modeId));

  01a88	e59f3050	 ldr         r3, [pc, #0x50]
  01a8c	e5933440	 ldr         r3, [r3, #0x440]
  01a90	e3130001	 tst         r3, #1
  01a94	0a000005	 beq         |$LN30@SetMode|
  01a98	e59d10bc	 ldr         r1, [sp, #0xBC]
  01a9c	e59f0038	 ldr         r0, [pc, #0x38]
  01aa0	eb000000	 bl          NKDbgPrintfW
  01aa4	e3a03001	 mov         r3, #1
  01aa8	e58d30a8	 str         r3, [sp, #0xA8]
  01aac	ea000001	 b           |$LN31@SetMode|
  01ab0		 |$LN30@SetMode|
  01ab0	e3a03000	 mov         r3, #0
  01ab4	e58d30a8	 str         r3, [sp, #0xA8]
  01ab8		 |$LN31@SetMode|

; 695  :         scResult = E_INVALIDARG;

  01ab8	e59f3018	 ldr         r3, [pc, #0x18]
  01abc	e58d3008	 str         r3, [sp, #8]
  01ac0		 |$LN1@SetMode|
  01ac0		 |$LN3@SetMode|
  01ac0		 |$LN5@SetMode|
  01ac0		 |$LN14@SetMode|
  01ac0		 |$cleanUp$42313|

; 696  :     }
; 697  : 
; 698  : cleanUp:
; 699  :     //  Retrun result
; 700  :     return scResult;

  01ac0	e59d3008	 ldr         r3, [sp, #8]
  01ac4	e58d3024	 str         r3, [sp, #0x24]
  01ac8		 |$LN18@SetMode|

; 701  : }

  01ac8	e59d0024	 ldr         r0, [sp, #0x24]
  01acc	e28dd0ac	 add         sp, sp, #0xAC
  01ad0	e89d6010	 ldmia       sp, {r4, sp, lr}
  01ad4	e12fff1e	 bx          lr
  01ad8		 |$LN42@SetMode|
  01ad8		 |$LN43@SetMode|
  01ad8	80070057	 DCD         0x80070057
  01adc		 |$LN44@SetMode|
  01adc	00000000	 DCD         |??_C@_1EC@MNPJBNCJ@?$AAE?$AAR?$AAR?$AAO?$AAR?$AA?3?$AA?5?$AAI?$AAn?$AAv?$AAa?$AAl?$AAi?$AAd?$AA?5?$AAm?$AAo?$AAd?$AAe?$AAI?$AAd?$AA?5?$AAv?$AAa?$AAl?$AAu?$AAe?$AA?5?$AA?$CF?$AAd?$AA?$AN?$AA?6@|
  01ae0		 |$LN45@SetMode|
  01ae0	00000000	 DCD         |dpCurSettings|
  01ae4		 |$LN46@SetMode|
  01ae4	00000000	 DCD         |EngCreatePalette|
  01ae8		 |$LN47@SetMode|
  01ae8	00000000	 DCD         |??_C@_1FI@EOMLOOKK@?$AAE?$AAR?$AAR?$AAO?$AAR?$AA?3?$AA?5?$AAU?$AAn?$AAa?$AAb?$AAl?$AAe?$AA?5?$AAt?$AAo?$AA?5?$AAe?$AAn?$AAa?$AAb?$AAl?$AAe?$AA?5?$AAg?$AAr?$AAa?$AAp?$AAh?$AAi?$AAc?$AAs@|
  01aec		 |$LN48@SetMode|
  01aec	00000000	 DCD         |??_C@_1GI@LDOCGIDM@?$AAE?$AAR?$AAR?$AAO?$AAR?$AA?3?$AA?5?$AAU?$AAn?$AAa?$AAb?$AAl?$AAe?$AA?5?$AAt?$AAo?$AA?5?$AAs?$AAe?$AAt?$AA?5?$AAg?$AAr?$AAa?$AAp?$AAh?$AAi?$AAc?$AAs?$AA?5?$AAp?$AAi@|
  01af0		 |$LN49@SetMode|
  01af0	00000000	 DCD         |??_C@_1FI@FGBBFJN@?$AAE?$AAR?$AAR?$AAO?$AAR?$AA?3?$AA?5?$AAU?$AAn?$AAa?$AAb?$AAl?$AAe?$AA?5?$AAt?$AAo?$AA?5?$AAa?$AAl?$AAl?$AAo?$AAc?$AAa?$AAt?$AAe?$AA?5?$AAp?$AAr?$AAi?$AAm?$AAa?$AAr@|
  01af4		 |$LN50@SetMode|
  01af4	00000000	 DCD         |??_C@_1CK@KICMJMOM@?$AAO?$AAM?$AAA?$AAP?$AAD?$AAD?$AAG?$AAP?$AAE?$AA?3?$AA?3?$AAS?$AAe?$AAt?$AAM?$AAo?$AAd?$AAe?$AA?$AN?$AA?6?$AA?$AA@|
  01af8		 |$M43464|

			 ENDP  ; |?SetMode@OMAPDDGPE@@UAAJHPAPAUHPALETTE__@@@Z|, OMAPDDGPE::SetMode

; File c:\wince600\platform\common\src\soc\common_ti_v1\common_ti\dss\inc\dssai.h

  00000			 AREA	 |.pdata|, PDATA
|$T43481| DCD	|$LN5@PixelForma|
	DCD	0x40000c04
; Function compile flags: /Odtp

  00000			 AREA	 |.text|, CODE, ARM

  00000		 |?PixelFormat@OMAPSurface@@QAA?AW4OMAP_DSS_PIXELFORMAT@@XZ| PROC ; OMAPSurface::PixelFormat

; 760  :     OMAP_DSS_PIXELFORMAT    PixelFormat() { return m_ePixelFormat; }

  00000		 |$LN5@PixelForma|
  00000	e1a0c00d	 mov         r12, sp
  00004	e92d0001	 stmdb       sp!, {r0}
  00008	e92d5000	 stmdb       sp!, {r12, lr}
  0000c	e24dd004	 sub         sp, sp, #4
  00010		 |$M43478|
  00010	e59d300c	 ldr         r3, [sp, #0xC]
  00014	e2833004	 add         r3, r3, #4
  00018	e5933000	 ldr         r3, [r3]
  0001c	e58d3000	 str         r3, [sp]
  00020	e59d0000	 ldr         r0, [sp]
  00024	e28dd004	 add         sp, sp, #4
  00028	e89d6000	 ldmia       sp, {sp, lr}
  0002c	e12fff1e	 bx          lr
  00030		 |$M43479|

			 ENDP  ; |?PixelFormat@OMAPSurface@@QAA?AW4OMAP_DSS_PIXELFORMAT@@XZ|, OMAPSurface::PixelFormat

; File c:\wince600\platform\common\src\soc\common_ti_v1\common_ti\dss\inc\omap_ddgpe.h

  00000			 AREA	 |.pdata|, PDATA
|$T43489| DCD	|$LN5@OmapSurfac|
	DCD	0x40000c04
; Function compile flags: /Odtp

  00000			 AREA	 |.text|, CODE, ARM

  00000		 |?OmapSurface@OMAPDDGPESurface@@QAAPAVOMAPSurface@@XZ| PROC ; OMAPDDGPESurface::OmapSurface

; 102  :     OMAPSurface*        OmapSurface() { return m_pSurface; }

  00000		 |$LN5@OmapSurfac|
  00000	e1a0c00d	 mov         r12, sp
  00004	e92d0001	 stmdb       sp!, {r0}
  00008	e92d5000	 stmdb       sp!, {r12, lr}
  0000c	e24dd004	 sub         sp, sp, #4
  00010		 |$M43486|
  00010	e59d300c	 ldr         r3, [sp, #0xC]
  00014	e283307c	 add         r3, r3, #0x7C
  00018	e5933000	 ldr         r3, [r3]
  0001c	e58d3000	 str         r3, [sp]
  00020	e59d0000	 ldr         r0, [sp]
  00024	e28dd004	 add         sp, sp, #4
  00028	e89d6000	 ldmia       sp, {sp, lr}
  0002c	e12fff1e	 bx          lr
  00030		 |$M43487|

			 ENDP  ; |?OmapSurface@OMAPDDGPESurface@@QAAPAVOMAPSurface@@XZ|, OMAPDDGPESurface::OmapSurface

	EXPORT	|??_C@_1DA@GOBNHOND@?$AAO?$AAM?$AAA?$AAP?$AAD?$AAD?$AAG?$AAP?$AAE?$AA?3?$AA?3?$AAS?$AAe?$AAt?$AAP?$AAa?$AAl?$AAe?$AAt?$AAt?$AAe?$AA?$AN?$AA?6?$AA?$AA@| [ DATA ] ; `string'

  00060			 AREA	 |.pdata|, PDATA
|$T43499| DCD	|$LN7@SetPalette|
	DCD	0x40001704
; File c:\wince600\platform\common\src\soc\common_ti_v1\common_ti\dss\ddgpe\omap_ddgpe.cpp

  00000			 AREA	 |.rdata|, DATA, READONLY
|??_C@_1DA@GOBNHOND@?$AAO?$AAM?$AAA?$AAP?$AAD?$AAD?$AAG?$AAP?$AAE?$AA?3?$AA?3?$AAS?$AAe?$AAt?$AAP?$AAa?$AAl?$AAe?$AAt?$AAt?$AAe?$AA?$AN?$AA?6?$AA?$AA@| DCB "O"
	DCB	0x0, "M", 0x0, "A", 0x0, "P", 0x0, "D", 0x0, "D", 0x0, "G"
	DCB	0x0, "P", 0x0, "E", 0x0, ":", 0x0, ":", 0x0, "S", 0x0, "e"
	DCB	0x0, "t", 0x0, "P", 0x0, "a", 0x0, "l", 0x0, "e", 0x0, "t"
	DCB	0x0, "t", 0x0, "e", 0x0, 0xd, 0x0, 0xa, 0x0, 0x0, 0x0 ; `string'
; Function compile flags: /Odtp

  01af8			 AREA	 |.text|, CODE, ARM

  01af8		 |?SetPalette@OMAPDDGPE@@UAAJPBUtagPALETTEENTRY@@GG@Z| PROC ; OMAPDDGPE::SetPalette

; 710  : {

  01af8		 |$LN7@SetPalette|
  01af8	e1a0c00d	 mov         r12, sp
  01afc	e92d000f	 stmdb       sp!, {r0 - r3}
  01b00	e92d5000	 stmdb       sp!, {r12, lr}
  01b04	e24dd008	 sub         sp, sp, #8
  01b08		 |$M43496|

; 711  :     UNREFERENCED_PARAMETER(source);
; 712  :     UNREFERENCED_PARAMETER(firstEntry);
; 713  :     UNREFERENCED_PARAMETER(numEntries);
; 714  :     DEBUGMSG (GPE_ZONE_INIT, (TEXT("OMAPDDGPE::SetPalette\r\n")));

  01b08	e59f3040	 ldr         r3, [pc, #0x40]
  01b0c	e5933440	 ldr         r3, [r3, #0x440]
  01b10	e3130020	 tst         r3, #0x20
  01b14	0a000004	 beq         |$LN3@SetPalette|
  01b18	e59f002c	 ldr         r0, [pc, #0x2C]
  01b1c	eb000000	 bl          NKDbgPrintfW
  01b20	e3a03001	 mov         r3, #1
  01b24	e58d3004	 str         r3, [sp, #4]
  01b28	ea000001	 b           |$LN4@SetPalette|
  01b2c		 |$LN3@SetPalette|
  01b2c	e3a03000	 mov         r3, #0
  01b30	e58d3004	 str         r3, [sp, #4]
  01b34		 |$LN4@SetPalette|

; 715  :     return    S_OK;

  01b34	e3a03000	 mov         r3, #0
  01b38	e58d3000	 str         r3, [sp]

; 716  : }

  01b3c	e59d0000	 ldr         r0, [sp]
  01b40	e28dd008	 add         sp, sp, #8
  01b44	e89d6000	 ldmia       sp, {sp, lr}
  01b48	e12fff1e	 bx          lr
  01b4c		 |$LN8@SetPalette|
  01b4c		 |$LN9@SetPalette|
  01b4c	00000000	 DCD         |??_C@_1DA@GOBNHOND@?$AAO?$AAM?$AAA?$AAP?$AAD?$AAD?$AAG?$AAP?$AAE?$AA?3?$AA?3?$AAS?$AAe?$AAt?$AAP?$AAa?$AAl?$AAe?$AAt?$AAt?$AAe?$AA?$AN?$AA?6?$AA?$AA@|
  01b50		 |$LN10@SetPalette|
  01b50	00000000	 DCD         |dpCurSettings|
  01b54		 |$M43497|

			 ENDP  ; |?SetPalette@OMAPDDGPE@@UAAJPBUtagPALETTEENTRY@@GG@Z|, OMAPDDGPE::SetPalette

	EXPORT	|??_C@_1EC@DBKMPIKC@?$AA?5?$AA?5?$AA?5?$AA?5?$AAv?$AAi?$AAd?$AAe?$AAo?$AAM?$AAe?$AAm?$AAo?$AAr?$AAy?$AAF?$AAr?$AAe?$AAe?$AA?5?$AA?5?$AA?5?$AA?$DN?$AA?5?$AA0?$AAx?$AA?$CF?$AA0?$AA8?$AAx?$AA?$AN?$AA?6@| [ DATA ] ; `string'
	EXPORT	|??_C@_1EC@IMEGDLNM@?$AA?5?$AA?5?$AA?5?$AA?5?$AAv?$AAi?$AAd?$AAe?$AAo?$AAM?$AAe?$AAm?$AAo?$AAr?$AAy?$AAS?$AAi?$AAz?$AAe?$AA?5?$AA?5?$AA?5?$AA?$DN?$AA?5?$AA0?$AAx?$AA?$CF?$AA0?$AA8?$AAx?$AA?$AN?$AA?6@| [ DATA ] ; `string'
	EXPORT	|??_C@_1EC@JFKHFFLJ@?$AA?5?$AA?5?$AA?5?$AA?5?$AAv?$AAi?$AAr?$AAt?$AAu?$AAa?$AAl?$AAM?$AAe?$AAm?$AAo?$AAr?$AAy?$AAB?$AAa?$AAs?$AAe?$AA?5?$AA?$DN?$AA?5?$AA0?$AAx?$AA?$CF?$AA0?$AA8?$AAx?$AA?$AN?$AA?6@| [ DATA ] ; `string'
	EXPORT	|??_C@_1EG@FEEBIFDH@?$AAO?$AAM?$AAA?$AAP?$AAD?$AAD?$AAG?$AAP?$AAE?$AA?3?$AA?3?$AAG?$AAe?$AAt?$AAV?$AAi?$AAr?$AAt?$AAu?$AAa?$AAl?$AAV?$AAi?$AAd?$AAe?$AAo?$AAM?$AAe?$AAm?$AAo?$AAr?$AAy@| [ DATA ] ; `string'
	EXPORT	|?GetVirtualVideoMemory@OMAPDDGPE@@QAAXPAK00@Z| ; OMAPDDGPE::GetVirtualVideoMemory

  00068			 AREA	 |.pdata|, PDATA
|$T43515| DCD	|$LN13@GetVirtual|
	DCD	0x40006b04

  00000			 AREA	 |.rdata|, DATA, READONLY
|??_C@_1EC@DBKMPIKC@?$AA?5?$AA?5?$AA?5?$AA?5?$AAv?$AAi?$AAd?$AAe?$AAo?$AAM?$AAe?$AAm?$AAo?$AAr?$AAy?$AAF?$AAr?$AAe?$AAe?$AA?5?$AA?5?$AA?5?$AA?$DN?$AA?5?$AA0?$AAx?$AA?$CF?$AA0?$AA8?$AAx?$AA?$AN?$AA?6@| DCB " "
	DCB	0x0, " ", 0x0, " ", 0x0, " ", 0x0, "v", 0x0, "i", 0x0, "d"
	DCB	0x0, "e", 0x0, "o", 0x0, "M", 0x0, "e", 0x0, "m", 0x0, "o"
	DCB	0x0, "r", 0x0, "y", 0x0, "F", 0x0, "r", 0x0, "e", 0x0, "e"
	DCB	0x0, " ", 0x0, " ", 0x0, " ", 0x0, "=", 0x0, " ", 0x0, "0"
	DCB	0x0, "x", 0x0, "%", 0x0, "0", 0x0, "8", 0x0, "x", 0x0, 0xd
	DCB	0x0, 0xa, 0x0, 0x0, 0x0			; `string'

  00000			 AREA	 |.rdata|, DATA, READONLY
|??_C@_1EC@IMEGDLNM@?$AA?5?$AA?5?$AA?5?$AA?5?$AAv?$AAi?$AAd?$AAe?$AAo?$AAM?$AAe?$AAm?$AAo?$AAr?$AAy?$AAS?$AAi?$AAz?$AAe?$AA?5?$AA?5?$AA?5?$AA?$DN?$AA?5?$AA0?$AAx?$AA?$CF?$AA0?$AA8?$AAx?$AA?$AN?$AA?6@| DCB " "
	DCB	0x0, " ", 0x0, " ", 0x0, " ", 0x0, "v", 0x0, "i", 0x0, "d"
	DCB	0x0, "e", 0x0, "o", 0x0, "M", 0x0, "e", 0x0, "m", 0x0, "o"
	DCB	0x0, "r", 0x0, "y", 0x0, "S", 0x0, "i", 0x0, "z", 0x0, "e"
	DCB	0x0, " ", 0x0, " ", 0x0, " ", 0x0, "=", 0x0, " ", 0x0, "0"
	DCB	0x0, "x", 0x0, "%", 0x0, "0", 0x0, "8", 0x0, "x", 0x0, 0xd
	DCB	0x0, 0xa, 0x0, 0x0, 0x0			; `string'

  00000			 AREA	 |.rdata|, DATA, READONLY
|??_C@_1EC@JFKHFFLJ@?$AA?5?$AA?5?$AA?5?$AA?5?$AAv?$AAi?$AAr?$AAt?$AAu?$AAa?$AAl?$AAM?$AAe?$AAm?$AAo?$AAr?$AAy?$AAB?$AAa?$AAs?$AAe?$AA?5?$AA?$DN?$AA?5?$AA0?$AAx?$AA?$CF?$AA0?$AA8?$AAx?$AA?$AN?$AA?6@| DCB " "
	DCB	0x0, " ", 0x0, " ", 0x0, " ", 0x0, "v", 0x0, "i", 0x0, "r"
	DCB	0x0, "t", 0x0, "u", 0x0, "a", 0x0, "l", 0x0, "M", 0x0, "e"
	DCB	0x0, "m", 0x0, "o", 0x0, "r", 0x0, "y", 0x0, "B", 0x0, "a"
	DCB	0x0, "s", 0x0, "e", 0x0, " ", 0x0, "=", 0x0, " ", 0x0, "0"
	DCB	0x0, "x", 0x0, "%", 0x0, "0", 0x0, "8", 0x0, "x", 0x0, 0xd
	DCB	0x0, 0xa, 0x0, 0x0, 0x0			; `string'

  00000			 AREA	 |.rdata|, DATA, READONLY
|??_C@_1EG@FEEBIFDH@?$AAO?$AAM?$AAA?$AAP?$AAD?$AAD?$AAG?$AAP?$AAE?$AA?3?$AA?3?$AAG?$AAe?$AAt?$AAV?$AAi?$AAr?$AAt?$AAu?$AAa?$AAl?$AAV?$AAi?$AAd?$AAe?$AAo?$AAM?$AAe?$AAm?$AAo?$AAr?$AAy@| DCB "O"
	DCB	0x0, "M", 0x0, "A", 0x0, "P", 0x0, "D", 0x0, "D", 0x0, "G"
	DCB	0x0, "P", 0x0, "E", 0x0, ":", 0x0, ":", 0x0, "G", 0x0, "e"
	DCB	0x0, "t", 0x0, "V", 0x0, "i", 0x0, "r", 0x0, "t", 0x0, "u"
	DCB	0x0, "a", 0x0, "l", 0x0, "V", 0x0, "i", 0x0, "d", 0x0, "e"
	DCB	0x0, "o", 0x0, "M", 0x0, "e", 0x0, "m", 0x0, "o", 0x0, "r"
	DCB	0x0, "y", 0x0, 0xd, 0x0, 0xa, 0x0, 0x0, 0x0 ; `string'
; Function compile flags: /Odtp

  01b54			 AREA	 |.text|, CODE, ARM

  01b54		 |?GetVirtualVideoMemory@OMAPDDGPE@@QAAXPAK00@Z| PROC ; OMAPDDGPE::GetVirtualVideoMemory

; 725  : {

  01b54		 |$LN13@GetVirtual|
  01b54	e1a0c00d	 mov         r12, sp
  01b58	e92d000f	 stmdb       sp!, {r0 - r3}
  01b5c	e92d5000	 stmdb       sp!, {r12, lr}
  01b60	e24dd01c	 sub         sp, sp, #0x1C
  01b64		 |$M43512|

; 726  :     DEBUGMSG (GPE_ZONE_VIDEOMEMORY, (TEXT("OMAPDDGPE::GetVirtualVideoMemory\r\n")));

  01b64	e59f3184	 ldr         r3, [pc, #0x184]
  01b68	e5933440	 ldr         r3, [r3, #0x440]
  01b6c	e3130901	 tst         r3, #1, 18
  01b70	0a000004	 beq         |$LN3@GetVirtual|
  01b74	e59f0180	 ldr         r0, [pc, #0x180]
  01b78	eb000000	 bl          NKDbgPrintfW
  01b7c	e3a03001	 mov         r3, #1
  01b80	e58d3000	 str         r3, [sp]
  01b84	ea000001	 b           |$LN4@GetVirtual|
  01b88		 |$LN3@GetVirtual|
  01b88	e3a03000	 mov         r3, #0
  01b8c	e58d3000	 str         r3, [sp]
  01b90		 |$LN4@GetVirtual|

; 727  : 
; 728  :     *virtualMemoryBase = (ULONG) m_pSurfaceMgr->VirtualBaseAddr();

  01b90	e59d3024	 ldr         r3, [sp, #0x24]
  01b94	e28330b4	 add         r3, r3, #0xB4
  01b98	e5932000	 ldr         r2, [r3]
  01b9c	e59d3024	 ldr         r3, [sp, #0x24]
  01ba0	e28330b4	 add         r3, r3, #0xB4
  01ba4	e5930000	 ldr         r0, [r3]
  01ba8	e5923000	 ldr         r3, [r2]
  01bac	e2833010	 add         r3, r3, #0x10
  01bb0	e5933000	 ldr         r3, [r3]
  01bb4	e1a0e00f	 mov         lr, pc
  01bb8	e12fff13	 bx          r3
  01bbc	e58d0004	 str         r0, [sp, #4]
  01bc0	e59d2004	 ldr         r2, [sp, #4]
  01bc4	e59d3028	 ldr         r3, [sp, #0x28]
  01bc8	e5832000	 str         r2, [r3]

; 729  :     *videoMemorySize   = m_pSurfaceMgr->TotalMemorySize();

  01bcc	e59d3024	 ldr         r3, [sp, #0x24]
  01bd0	e28330b4	 add         r3, r3, #0xB4
  01bd4	e5932000	 ldr         r2, [r3]
  01bd8	e59d3024	 ldr         r3, [sp, #0x24]
  01bdc	e28330b4	 add         r3, r3, #0xB4
  01be0	e5930000	 ldr         r0, [r3]
  01be4	e5923000	 ldr         r3, [r2]
  01be8	e2833008	 add         r3, r3, #8
  01bec	e5933000	 ldr         r3, [r3]
  01bf0	e1a0e00f	 mov         lr, pc
  01bf4	e12fff13	 bx          r3
  01bf8	e58d0008	 str         r0, [sp, #8]
  01bfc	e59d2008	 ldr         r2, [sp, #8]
  01c00	e59d302c	 ldr         r3, [sp, #0x2C]
  01c04	e5832000	 str         r2, [r3]

; 730  :     *videoMemoryFree   = m_pSurfaceMgr->FreeMemorySize();

  01c08	e59d3024	 ldr         r3, [sp, #0x24]
  01c0c	e28330b4	 add         r3, r3, #0xB4
  01c10	e5932000	 ldr         r2, [r3]
  01c14	e59d3024	 ldr         r3, [sp, #0x24]
  01c18	e28330b4	 add         r3, r3, #0xB4
  01c1c	e5930000	 ldr         r0, [r3]
  01c20	e5923000	 ldr         r3, [r2]
  01c24	e283300c	 add         r3, r3, #0xC
  01c28	e5933000	 ldr         r3, [r3]
  01c2c	e1a0e00f	 mov         lr, pc
  01c30	e12fff13	 bx          r3
  01c34	e58d000c	 str         r0, [sp, #0xC]
  01c38	e59d200c	 ldr         r2, [sp, #0xC]
  01c3c	e59d3030	 ldr         r3, [sp, #0x30]
  01c40	e5832000	 str         r2, [r3]

; 731  : 
; 732  :     DEBUGMSG (GPE_ZONE_VIDEOMEMORY, (TEXT("    virtualMemoryBase = 0x%08x\r\n"), *virtualMemoryBase));

  01c44	e59f30a4	 ldr         r3, [pc, #0xA4]
  01c48	e5933440	 ldr         r3, [r3, #0x440]
  01c4c	e3130901	 tst         r3, #1, 18
  01c50	0a000006	 beq         |$LN5@GetVirtual|
  01c54	e59d3028	 ldr         r3, [sp, #0x28]
  01c58	e5931000	 ldr         r1, [r3]
  01c5c	e59f0094	 ldr         r0, [pc, #0x94]
  01c60	eb000000	 bl          NKDbgPrintfW
  01c64	e3a03001	 mov         r3, #1
  01c68	e58d3010	 str         r3, [sp, #0x10]
  01c6c	ea000001	 b           |$LN6@GetVirtual|
  01c70		 |$LN5@GetVirtual|
  01c70	e3a03000	 mov         r3, #0
  01c74	e58d3010	 str         r3, [sp, #0x10]
  01c78		 |$LN6@GetVirtual|

; 733  :     DEBUGMSG (GPE_ZONE_VIDEOMEMORY, (TEXT("    videoMemorySize   = 0x%08x\r\n"), *videoMemorySize));

  01c78	e59f3070	 ldr         r3, [pc, #0x70]
  01c7c	e5933440	 ldr         r3, [r3, #0x440]
  01c80	e3130901	 tst         r3, #1, 18
  01c84	0a000006	 beq         |$LN7@GetVirtual|
  01c88	e59d302c	 ldr         r3, [sp, #0x2C]
  01c8c	e5931000	 ldr         r1, [r3]
  01c90	e59f005c	 ldr         r0, [pc, #0x5C]
  01c94	eb000000	 bl          NKDbgPrintfW
  01c98	e3a03001	 mov         r3, #1
  01c9c	e58d3014	 str         r3, [sp, #0x14]
  01ca0	ea000001	 b           |$LN8@GetVirtual|
  01ca4		 |$LN7@GetVirtual|
  01ca4	e3a03000	 mov         r3, #0
  01ca8	e58d3014	 str         r3, [sp, #0x14]
  01cac		 |$LN8@GetVirtual|

; 734  :     DEBUGMSG (GPE_ZONE_VIDEOMEMORY, (TEXT("    videoMemoryFree   = 0x%08x\r\n"), *videoMemoryFree));

  01cac	e59f303c	 ldr         r3, [pc, #0x3C]
  01cb0	e5933440	 ldr         r3, [r3, #0x440]
  01cb4	e3130901	 tst         r3, #1, 18
  01cb8	0a000006	 beq         |$LN9@GetVirtual|
  01cbc	e59d3030	 ldr         r3, [sp, #0x30]
  01cc0	e5931000	 ldr         r1, [r3]
  01cc4	e59f0020	 ldr         r0, [pc, #0x20]
  01cc8	eb000000	 bl          NKDbgPrintfW
  01ccc	e3a03001	 mov         r3, #1
  01cd0	e58d3018	 str         r3, [sp, #0x18]
  01cd4	ea000001	 b           |$LN10@GetVirtual|
  01cd8		 |$LN9@GetVirtual|
  01cd8	e3a03000	 mov         r3, #0
  01cdc	e58d3018	 str         r3, [sp, #0x18]
  01ce0		 |$LN10@GetVirtual|

; 735  : }

  01ce0	e28dd01c	 add         sp, sp, #0x1C
  01ce4	e89d6000	 ldmia       sp, {sp, lr}
  01ce8	e12fff1e	 bx          lr
  01cec		 |$LN14@GetVirtual|
  01cec		 |$LN15@GetVirtual|
  01cec	00000000	 DCD         |??_C@_1EC@DBKMPIKC@?$AA?5?$AA?5?$AA?5?$AA?5?$AAv?$AAi?$AAd?$AAe?$AAo?$AAM?$AAe?$AAm?$AAo?$AAr?$AAy?$AAF?$AAr?$AAe?$AAe?$AA?5?$AA?5?$AA?5?$AA?$DN?$AA?5?$AA0?$AAx?$AA?$CF?$AA0?$AA8?$AAx?$AA?$AN?$AA?6@|
  01cf0		 |$LN16@GetVirtual|
  01cf0	00000000	 DCD         |dpCurSettings|
  01cf4		 |$LN17@GetVirtual|
  01cf4	00000000	 DCD         |??_C@_1EC@IMEGDLNM@?$AA?5?$AA?5?$AA?5?$AA?5?$AAv?$AAi?$AAd?$AAe?$AAo?$AAM?$AAe?$AAm?$AAo?$AAr?$AAy?$AAS?$AAi?$AAz?$AAe?$AA?5?$AA?5?$AA?5?$AA?$DN?$AA?5?$AA0?$AAx?$AA?$CF?$AA0?$AA8?$AAx?$AA?$AN?$AA?6@|
  01cf8		 |$LN18@GetVirtual|
  01cf8	00000000	 DCD         |??_C@_1EC@JFKHFFLJ@?$AA?5?$AA?5?$AA?5?$AA?5?$AAv?$AAi?$AAr?$AAt?$AAu?$AAa?$AAl?$AAM?$AAe?$AAm?$AAo?$AAr?$AAy?$AAB?$AAa?$AAs?$AAe?$AA?5?$AA?$DN?$AA?5?$AA0?$AAx?$AA?$CF?$AA0?$AA8?$AAx?$AA?$AN?$AA?6@|
  01cfc		 |$LN19@GetVirtual|
  01cfc	00000000	 DCD         |??_C@_1EG@FEEBIFDH@?$AAO?$AAM?$AAA?$AAP?$AAD?$AAD?$AAG?$AAP?$AAE?$AA?3?$AA?3?$AAG?$AAe?$AAt?$AAV?$AAi?$AAr?$AAt?$AAu?$AAa?$AAl?$AAV?$AAi?$AAd?$AAe?$AAo?$AAM?$AAe?$AAm?$AAo?$AAr?$AAy@|
  01d00		 |$M43513|

			 ENDP  ; |?GetVirtualVideoMemory@OMAPDDGPE@@QAAXPAK00@Z|, OMAPDDGPE::GetVirtualVideoMemory


  00070			 AREA	 |.pdata|, PDATA
|$T43526| DCD	|$LN5@DDHALInfo|
	DCD	0x40000503
; Function compile flags: /Odtp

  01d00			 AREA	 |.text|, CODE, ARM

  01d00		 |?DDHALInfo@OMAPDDGPE@@UAAXPAU_DDHALINFO@@K@Z| PROC ; OMAPDDGPE::DDHALInfo

; 774  : {

  01d00		 |$LN5@DDHALInfo|
  01d00	e1a0c00d	 mov         r12, sp
  01d04	e92d0007	 stmdb       sp!, {r0 - r2}
  01d08	e92d5000	 stmdb       sp!, {r12, lr}
  01d0c		 |$M43523|

; 775  :     UNREFERENCED_PARAMETER(lpddhi);
; 776  :     UNREFERENCED_PARAMETER(modeidx);
; 777  : }

  01d0c	e89d6000	 ldmia       sp, {sp, lr}
  01d10	e12fff1e	 bx          lr
  01d14		 |$M43524|

			 ENDP  ; |?DDHALInfo@OMAPDDGPE@@UAAXPAU_DDHALINFO@@K@Z|, OMAPDDGPE::DDHALInfo

	EXPORT	|??_C@_1CM@JIJECANM@?$AAO?$AAM?$AAA?$AAP?$AAD?$AAD?$AAG?$AAP?$AAE?$AA?3?$AA?3?$AAG?$AAe?$AAt?$AAM?$AAa?$AAs?$AAk?$AAs?$AA?$AN?$AA?6?$AA?$AA@| [ DATA ] ; `string'

  00078			 AREA	 |.pdata|, PDATA
|$T43534| DCD	|$LN7@GetMasks|
	DCD	0x40001a04

  00000			 AREA	 |.rdata|, DATA, READONLY
|??_C@_1CM@JIJECANM@?$AAO?$AAM?$AAA?$AAP?$AAD?$AAD?$AAG?$AAP?$AAE?$AA?3?$AA?3?$AAG?$AAe?$AAt?$AAM?$AAa?$AAs?$AAk?$AAs?$AA?$AN?$AA?6?$AA?$AA@| DCB "O"
	DCB	0x0, "M", 0x0, "A", 0x0, "P", 0x0, "D", 0x0, "D", 0x0, "G"
	DCB	0x0, "P", 0x0, "E", 0x0, ":", 0x0, ":", 0x0, "G", 0x0, "e"
	DCB	0x0, "t", 0x0, "M", 0x0, "a", 0x0, "s", 0x0, "k", 0x0, "s"
	DCB	0x0, 0xd, 0x0, 0xa, 0x0, 0x0, 0x0	; `string'
; Function compile flags: /Odtp

  01d14			 AREA	 |.text|, CODE, ARM

  01d14		 |?GetMasks@OMAPDDGPE@@UAAPAKXZ| PROC	; OMAPDDGPE::GetMasks

; 782  : {

  01d14		 |$LN7@GetMasks|
  01d14	e1a0c00d	 mov         r12, sp
  01d18	e92d0001	 stmdb       sp!, {r0}
  01d1c	e92d5000	 stmdb       sp!, {r12, lr}
  01d20	e24dd008	 sub         sp, sp, #8
  01d24		 |$M43531|

; 783  :     DEBUGMSG (GPE_ZONE_HW, (TEXT("OMAPDDGPE::GetMasks\r\n")));

  01d24	e59f304c	 ldr         r3, [pc, #0x4C]
  01d28	e5933440	 ldr         r3, [r3, #0x440]
  01d2c	e3130b02	 tst         r3, #2, 22
  01d30	0a000004	 beq         |$LN3@GetMasks|
  01d34	e59f0038	 ldr         r0, [pc, #0x38]
  01d38	eb000000	 bl          NKDbgPrintfW
  01d3c	e3a03001	 mov         r3, #1
  01d40	e58d3004	 str         r3, [sp, #4]
  01d44	ea000001	 b           |$LN4@GetMasks|
  01d48		 |$LN3@GetMasks|
  01d48	e3a03000	 mov         r3, #0
  01d4c	e58d3004	 str         r3, [sp, #4]
  01d50		 |$LN4@GetMasks|

; 784  : 
; 785  :     //  Return RGB masks for selected mode
; 786  :     return &(m_pModeEx->dwRBitMask);

  01d50	e59d3010	 ldr         r3, [sp, #0x10]
  01d54	e2833024	 add         r3, r3, #0x24
  01d58	e5933000	 ldr         r3, [r3]
  01d5c	e2833048	 add         r3, r3, #0x48
  01d60	e58d3000	 str         r3, [sp]

; 787  : }

  01d64	e59d0000	 ldr         r0, [sp]
  01d68	e28dd008	 add         sp, sp, #8
  01d6c	e89d6000	 ldmia       sp, {sp, lr}
  01d70	e12fff1e	 bx          lr
  01d74		 |$LN8@GetMasks|
  01d74		 |$LN9@GetMasks|
  01d74	00000000	 DCD         |??_C@_1CM@JIJECANM@?$AAO?$AAM?$AAA?$AAP?$AAD?$AAD?$AAG?$AAP?$AAE?$AA?3?$AA?3?$AAG?$AAe?$AAt?$AAM?$AAa?$AAs?$AAk?$AAs?$AA?$AN?$AA?6?$AA?$AA@|
  01d78		 |$LN10@GetMasks|
  01d78	00000000	 DCD         |dpCurSettings|
  01d7c		 |$M43532|

			 ENDP  ; |?GetMasks@OMAPDDGPE@@UAAPAKXZ|, OMAPDDGPE::GetMasks

	EXPORT	|??_C@_1FG@NOMDPDH@?$AA?9?$AAO?$AAM?$AAA?$AAP?$AAD?$AAD?$AAG?$AAP?$AAE?$AA?3?$AA?3?$AAS?$AAe?$AAt?$AAP?$AAo?$AAi?$AAn?$AAt?$AAe?$AAr?$AAS?$AAh?$AAa?$AAp?$AAe?$AA?$CI?$AAs?$AAc?$AA?5?$AA?$DN@| [ DATA ] ; `string'
	EXPORT	|?Stride@GPESurf@@QAAHXZ|		; GPESurf::Stride
	EXPORT	|?Buffer@GPESurf@@QAAPAXXZ|		; GPESurf::Buffer
	EXPORT	|??_C@_1JE@NHFELEGK@?$AAO?$AAM?$AAA?$AAP?$AAD?$AAD?$AAG?$AAP?$AAE?$AA?3?$AA?3?$AAS?$AAe?$AAt?$AAP?$AAo?$AAi?$AAn?$AAt?$AAe?$AAr?$AAS?$AAh?$AAa?$AAp?$AAe?$AA?3?$AA?5?$AAM?$AAe?$AAm?$AAo@| [ DATA ] ; `string'
	EXPORT	|??_C@_1HC@OEGJCIPI@?$AAO?$AAM?$AAA?$AAP?$AAD?$AAD?$AAG?$AAP?$AAE?$AA?3?$AA?3?$AAS?$AAe?$AAt?$AAP?$AAo?$AAi?$AAn?$AAt?$AAe?$AAr?$AAS?$AAh?$AAa?$AAp?$AAe?$AA?3?$AA?5?$AAI?$AAn?$AAv?$AAa@| [ DATA ] ; `string'
	EXPORT	|?CursorOff@OMAPDDGPE@@QAAXXZ|		; OMAPDDGPE::CursorOff
	EXPORT	|??_C@_1HM@BHCEIJNF@?$AA?$CL?$AAO?$AAM?$AAA?$AAP?$AAD?$AAD?$AAG?$AAP?$AAE?$AA?3?$AA?3?$AAS?$AAe?$AAt?$AAP?$AAo?$AAi?$AAn?$AAt?$AAe?$AAr?$AAS?$AAh?$AAa?$AAp?$AAe?$AA?$CI?$AA0?$AAx?$AA?$CF?$AA0@| [ DATA ] ; `string'

  00080			 AREA	 |.pdata|, PDATA
|$T43564| DCD	|$LN35@SetPointer|
	DCD	0x40017704

  00000			 AREA	 |.rdata|, DATA, READONLY
|??_C@_1FG@NOMDPDH@?$AA?9?$AAO?$AAM?$AAA?$AAP?$AAD?$AAD?$AAG?$AAP?$AAE?$AA?3?$AA?3?$AAS?$AAe?$AAt?$AAP?$AAo?$AAi?$AAn?$AAt?$AAe?$AAr?$AAS?$AAh?$AAa?$AAp?$AAe?$AA?$CI?$AAs?$AAc?$AA?5?$AA?$DN@| DCB "-"
	DCB	0x0, "O", 0x0, "M", 0x0, "A", 0x0, "P", 0x0, "D", 0x0, "D"
	DCB	0x0, "G", 0x0, "P", 0x0, "E", 0x0, ":", 0x0, ":", 0x0, "S"
	DCB	0x0, "e", 0x0, "t", 0x0, "P", 0x0, "o", 0x0, "i", 0x0, "n"
	DCB	0x0, "t", 0x0, "e", 0x0, "r", 0x0, "S", 0x0, "h", 0x0, "a"
	DCB	0x0, "p", 0x0, "e", 0x0, "(", 0x0, "s", 0x0, "c", 0x0, " "
	DCB	0x0, "=", 0x0, " ", 0x0, "0", 0x0, "x", 0x0, "%", 0x0, "0"
	DCB	0x0, "8", 0x0, "x", 0x0, ")", 0x0, 0xd, 0x0, 0xa, 0x0, 0x0
	DCB	0x0					; `string'

  00000			 AREA	 |.rdata|, DATA, READONLY
|??_C@_1JE@NHFELEGK@?$AAO?$AAM?$AAA?$AAP?$AAD?$AAD?$AAG?$AAP?$AAE?$AA?3?$AA?3?$AAS?$AAe?$AAt?$AAP?$AAo?$AAi?$AAn?$AAt?$AAe?$AAr?$AAS?$AAh?$AAa?$AAp?$AAe?$AA?3?$AA?5?$AAM?$AAe?$AAm?$AAo@| DCB "O"
	DCB	0x0, "M", 0x0, "A", 0x0, "P", 0x0, "D", 0x0, "D", 0x0, "G"
	DCB	0x0, "P", 0x0, "E", 0x0, ":", 0x0, ":", 0x0, "S", 0x0, "e"
	DCB	0x0, "t", 0x0, "P", 0x0, "o", 0x0, "i", 0x0, "n", 0x0, "t"
	DCB	0x0, "e", 0x0, "r", 0x0, "S", 0x0, "h", 0x0, "a", 0x0, "p"
	DCB	0x0, "e", 0x0, ":", 0x0, " ", 0x0, "M", 0x0, "e", 0x0, "m"
	DCB	0x0, "o", 0x0, "r", 0x0, "y", 0x0, " ", 0x0, "a", 0x0, "l"
	DCB	0x0, "l", 0x0, "o", 0x0, "c", 0x0, "a", 0x0, "t", 0x0, "i"
	DCB	0x0, "o", 0x0, "n", 0x0, " ", 0x0, "f", 0x0, "o", 0x0, "r"
	DCB	0x0, " ", 0x0, "c", 0x0, "u", 0x0, "r", 0x0, "s", 0x0, "o"
	DCB	0x0, "r", 0x0, " ", 0x0, "b", 0x0, "u", 0x0, "f", 0x0, "f"
	DCB	0x0, "e", 0x0, "r", 0x0, "s", 0x0, " ", 0x0, "f", 0x0, "a"
	DCB	0x0, "i", 0x0, "l", 0x0, "e", 0x0, "d", 0x0, 0xd, 0x0, 0xa
	DCB	0x0, 0x0, 0x0				; `string'

  00000			 AREA	 |.rdata|, DATA, READONLY
|??_C@_1HC@OEGJCIPI@?$AAO?$AAM?$AAA?$AAP?$AAD?$AAD?$AAG?$AAP?$AAE?$AA?3?$AA?3?$AAS?$AAe?$AAt?$AAP?$AAo?$AAi?$AAn?$AAt?$AAe?$AAr?$AAS?$AAh?$AAa?$AAp?$AAe?$AA?3?$AA?5?$AAI?$AAn?$AAv?$AAa@| DCB "O"
	DCB	0x0, "M", 0x0, "A", 0x0, "P", 0x0, "D", 0x0, "D", 0x0, "G"
	DCB	0x0, "P", 0x0, "E", 0x0, ":", 0x0, ":", 0x0, "S", 0x0, "e"
	DCB	0x0, "t", 0x0, "P", 0x0, "o", 0x0, "i", 0x0, "n", 0x0, "t"
	DCB	0x0, "e", 0x0, "r", 0x0, "S", 0x0, "h", 0x0, "a", 0x0, "p"
	DCB	0x0, "e", 0x0, ":", 0x0, " ", 0x0, "I", 0x0, "n", 0x0, "v"
	DCB	0x0, "a", 0x0, "l", 0x0, "i", 0x0, "d", 0x0, " ", 0x0, "c"
	DCB	0x0, "u", 0x0, "r", 0x0, "s", 0x0, "o", 0x0, "r", 0x0, " "
	DCB	0x0, "s", 0x0, "i", 0x0, "z", 0x0, "e", 0x0, " ", 0x0, "%"
	DCB	0x0, "d", 0x0, ",", 0x0, " ", 0x0, "%", 0x0, "d", 0x0, 0xd
	DCB	0x0, 0xa, 0x0, 0x0, 0x0			; `string'

  00000			 AREA	 |.rdata|, DATA, READONLY
|??_C@_1HM@BHCEIJNF@?$AA?$CL?$AAO?$AAM?$AAA?$AAP?$AAD?$AAD?$AAG?$AAP?$AAE?$AA?3?$AA?3?$AAS?$AAe?$AAt?$AAP?$AAo?$AAi?$AAn?$AAt?$AAe?$AAr?$AAS?$AAh?$AAa?$AAp?$AAe?$AA?$CI?$AA0?$AAx?$AA?$CF?$AA0@| DCB "+"
	DCB	0x0, "O", 0x0, "M", 0x0, "A", 0x0, "P", 0x0, "D", 0x0, "D"
	DCB	0x0, "G", 0x0, "P", 0x0, "E", 0x0, ":", 0x0, ":", 0x0, "S"
	DCB	0x0, "e", 0x0, "t", 0x0, "P", 0x0, "o", 0x0, "i", 0x0, "n"
	DCB	0x0, "t", 0x0, "e", 0x0, "r", 0x0, "S", 0x0, "h", 0x0, "a"
	DCB	0x0, "p", 0x0, "e", 0x0, "(", 0x0, "0", 0x0, "x", 0x0, "%"
	DCB	0x0, "0", 0x0, "8", 0x0, "x", 0x0, ",", 0x0, " ", 0x0, "0"
	DCB	0x0, "x", 0x0, "%", 0x0, "0", 0x0, "8", 0x0, "x", 0x0, ","
	DCB	0x0, " ", 0x0, "%", 0x0, "d", 0x0, ",", 0x0, " ", 0x0, "%"
	DCB	0x0, "d", 0x0, ",", 0x0, " ", 0x0, "%", 0x0, "d", 0x0, ","
	DCB	0x0, " ", 0x0, "%", 0x0, "d", 0x0, ")", 0x0, 0xd, 0x0, 0xa
	DCB	0x0, 0x0, 0x0				; `string'
; Function compile flags: /Odtp

  01d7c			 AREA	 |.text|, CODE, ARM

  01d7c		 |?SetPointerShape@OMAPDDGPE@@UAAJPAVGPESurf@@0HHHH@Z| PROC ; OMAPDDGPE::SetPointerShape

; 799  : {

  01d7c		 |$LN35@SetPointer|
  01d7c	e1a0c00d	 mov         r12, sp
  01d80	e92d000f	 stmdb       sp!, {r0 - r3}
  01d84	e92d5000	 stmdb       sp!, {r12, lr}
  01d88	e24dd09c	 sub         sp, sp, #0x9C
  01d8c		 |$M43561|

; 800  :     SCODE sc = S_OK;

  01d8c	e3a03000	 mov         r3, #0
  01d90	e58d3038	 str         r3, [sp, #0x38]

; 801  :     UCHAR *pAndPtr, *pXorPtr, *pAndLine, *pXorLine;
; 802  :     UCHAR andPtr, xorPtr, mask;
; 803  :     ULONG size;
; 804  :     int bytesPerPixel;
; 805  :     int row, col, i;
; 806  : 
; 807  :     UNREFERENCED_PARAMETER(pColorSurf);
; 808  : 
; 809  :     if (!g_Globals.m_dwCursorEnable)

  01d94	e59f35b8	 ldr         r3, [pc, #0x5B8]
  01d98	e5933234	 ldr         r3, [r3, #0x234]
  01d9c	e3530000	 cmp         r3, #0
  01da0	1a000002	 bne         |$LN18@SetPointer|

; 810  :         return S_OK;

  01da4	e3a03000	 mov         r3, #0
  01da8	e58d3054	 str         r3, [sp, #0x54]
  01dac	ea00015f	 b           |$LN19@SetPointer|
  01db0		 |$LN18@SetPointer|

; 811  : 
; 812  :     DEBUGMSG(GPE_ZONE_CURSOR, (
; 813  :         L"+OMAPDDGPE::SetPointerShape(0x%08x, 0x%08x, %d, %d, %d, %d)\r\n",
; 814  :         pMask, pColorSurf, xHotspot, yHotspot, xSize, ySize
; 815  :     ));

  01db0	e59f358c	 ldr         r3, [pc, #0x58C]
  01db4	e5933440	 ldr         r3, [r3, #0x440]
  01db8	e3130a02	 tst         r3, #2, 20
  01dbc	0a00000d	 beq         |$LN21@SetPointer|
  01dc0	e59d30bc	 ldr         r3, [sp, #0xBC]
  01dc4	e58d3008	 str         r3, [sp, #8]
  01dc8	e59d30b8	 ldr         r3, [sp, #0xB8]
  01dcc	e58d3004	 str         r3, [sp, #4]
  01dd0	e59d30b4	 ldr         r3, [sp, #0xB4]
  01dd4	e58d3000	 str         r3, [sp]
  01dd8	e59d30b0	 ldr         r3, [sp, #0xB0]
  01ddc	e59d20ac	 ldr         r2, [sp, #0xAC]
  01de0	e59d10a8	 ldr         r1, [sp, #0xA8]
  01de4	e59f0564	 ldr         r0, [pc, #0x564]
  01de8	eb000000	 bl          NKDbgPrintfW
  01dec	e3a03001	 mov         r3, #1
  01df0	e58d3064	 str         r3, [sp, #0x64]
  01df4	ea000001	 b           |$LN22@SetPointer|
  01df8		 |$LN21@SetPointer|
  01df8	e3a03000	 mov         r3, #0
  01dfc	e58d3064	 str         r3, [sp, #0x64]
  01e00		 |$LN22@SetPointer|

; 816  : 
; 817  :     Lock();

  01e00	e59d30a4	 ldr         r3, [sp, #0xA4]
  01e04	e5933000	 ldr         r3, [r3]
  01e08	e28330ec	 add         r3, r3, #0xEC
  01e0c	e59d00a4	 ldr         r0, [sp, #0xA4]
  01e10	e5933000	 ldr         r3, [r3]
  01e14	e1a0e00f	 mov         lr, pc
  01e18	e12fff13	 bx          r3

; 818  : 
; 819  :     // Turn current cursor off
; 820  :     CursorOff();

  01e1c	e59d00a4	 ldr         r0, [sp, #0xA4]
  01e20	eb000000	 bl          |?CursorOff@OMAPDDGPE@@QAAXXZ|

; 821  : 
; 822  :     // Release memory associated with old cursor
; 823  :     delete [] m_cursorStore; 

  01e24	e59d30a4	 ldr         r3, [sp, #0xA4]
  01e28	e2833f5e	 add         r3, r3, #0x5E, 30
  01e2c	e5933000	 ldr         r3, [r3]
  01e30	e58d303c	 str         r3, [sp, #0x3C]
  01e34	e59d003c	 ldr         r0, [sp, #0x3C]
  01e38	eb000000	 bl          |??3@YAXPAX@Z|

; 824  :     m_cursorStore = NULL;

  01e3c	e59d30a4	 ldr         r3, [sp, #0xA4]
  01e40	e2832f5e	 add         r2, r3, #0x5E, 30
  01e44	e3a03000	 mov         r3, #0
  01e48	e5823000	 str         r3, [r2]

; 825  :     delete [] m_cursorXor; 

  01e4c	e59d30a4	 ldr         r3, [sp, #0xA4]
  01e50	e2833f5f	 add         r3, r3, #0x5F, 30
  01e54	e5933000	 ldr         r3, [r3]
  01e58	e58d3040	 str         r3, [sp, #0x40]
  01e5c	e59d0040	 ldr         r0, [sp, #0x40]
  01e60	eb000000	 bl          |??3@YAXPAX@Z|

; 826  :     m_cursorXor = NULL;

  01e64	e59d30a4	 ldr         r3, [sp, #0xA4]
  01e68	e2832f5f	 add         r2, r3, #0x5F, 30
  01e6c	e3a03000	 mov         r3, #0
  01e70	e5823000	 str         r3, [r2]

; 827  :     delete [] m_cursorAnd; 

  01e74	e59d30a4	 ldr         r3, [sp, #0xA4]
  01e78	e2833d06	 add         r3, r3, #6, 26
  01e7c	e5933000	 ldr         r3, [r3]
  01e80	e58d3044	 str         r3, [sp, #0x44]
  01e84	e59d0044	 ldr         r0, [sp, #0x44]
  01e88	eb000000	 bl          |??3@YAXPAX@Z|

; 828  :     m_cursorAnd = NULL;

  01e8c	e59d30a4	 ldr         r3, [sp, #0xA4]
  01e90	e2832d06	 add         r2, r3, #6, 26
  01e94	e3a03000	 mov         r3, #0
  01e98	e5823000	 str         r3, [r2]

; 829  : 
; 830  :     // Is there a new mask?
; 831  :     if (pMask == NULL) 

  01e9c	e59d30a8	 ldr         r3, [sp, #0xA8]
  01ea0	e3530000	 cmp         r3, #0
  01ea4	1a000004	 bne         |$LN17@SetPointer|

; 832  :     {
; 833  :         // No, so tag as disabled
; 834  :         m_cursorDisabled = TRUE;

  01ea8	e59d30a4	 ldr         r3, [sp, #0xA4]
  01eac	e2832f53	 add         r2, r3, #0x53, 30
  01eb0	e3a03001	 mov         r3, #1
  01eb4	e5823000	 str         r3, [r2]

; 835  :     } 
; 836  :     else 

  01eb8	ea000107	 b           |$LN16@SetPointer|
  01ebc		 |$LN17@SetPointer|

; 837  :     {
; 838  :         // Yes, so tag as not disabled
; 839  :         m_cursorDisabled = FALSE;

  01ebc	e59d30a4	 ldr         r3, [sp, #0xA4]
  01ec0	e2832f53	 add         r2, r3, #0x53, 30
  01ec4	e3a03000	 mov         r3, #0
  01ec8	e5823000	 str         r3, [r2]

; 840  : 
; 841  :         // Check if cursor size is correct
; 842  :         if (xSize > m_nScreenWidth || ySize > m_nScreenHeight) 

  01ecc	e59d30a4	 ldr         r3, [sp, #0xA4]
  01ed0	e2833008	 add         r3, r3, #8
  01ed4	e59d20b8	 ldr         r2, [sp, #0xB8]
  01ed8	e5933000	 ldr         r3, [r3]
  01edc	e1520003	 cmp         r2, r3
  01ee0	ca000005	 bgt         |$LN14@SetPointer|
  01ee4	e59d30a4	 ldr         r3, [sp, #0xA4]
  01ee8	e283300c	 add         r3, r3, #0xC
  01eec	e59d20bc	 ldr         r2, [sp, #0xBC]
  01ef0	e5933000	 ldr         r3, [r3]
  01ef4	e1520003	 cmp         r2, r3
  01ef8	da000011	 ble         |$LN15@SetPointer|
  01efc		 |$LN14@SetPointer|

; 843  :         {
; 844  :             DEBUGMSG(GPE_ZONE_ERROR, (L"OMAPDDGPE::SetPointerShape: "
; 845  :                 L"Invalid cursor size %d, %d\r\n", xSize, ySize
; 846  :             ));

  01efc	e59f3440	 ldr         r3, [pc, #0x440]
  01f00	e5933440	 ldr         r3, [r3, #0x440]
  01f04	e3130001	 tst         r3, #1
  01f08	0a000006	 beq         |$LN23@SetPointer|
  01f0c	e59d20bc	 ldr         r2, [sp, #0xBC]
  01f10	e59d10b8	 ldr         r1, [sp, #0xB8]
  01f14	e59f0430	 ldr         r0, [pc, #0x430]
  01f18	eb000000	 bl          NKDbgPrintfW
  01f1c	e3a03001	 mov         r3, #1
  01f20	e58d3068	 str         r3, [sp, #0x68]
  01f24	ea000001	 b           |$LN24@SetPointer|
  01f28		 |$LN23@SetPointer|
  01f28	e3a03000	 mov         r3, #0
  01f2c	e58d3068	 str         r3, [sp, #0x68]
  01f30		 |$LN24@SetPointer|

; 847  :             sc = E_FAIL;

  01f30	e3a03116	 mov         r3, #0x16, 2
  01f34	e3833901	 orr         r3, r3, #1, 18
  01f38	e58d3038	 str         r3, [sp, #0x38]
  01f3c	ea0000e6	 b           |$LN13@SetPointer|

; 848  :             goto cleanUp;

  01f40	ea0000e5	 b           |$cleanUp$42411|
  01f44		 |$LN15@SetPointer|

; 849  :         }
; 850  :         
; 851  :         // How many bytes we need per pixel on screen
; 852  :         bytesPerPixel = (m_pMode->Bpp + 7) >> 3;

  01f44	e59d30a4	 ldr         r3, [sp, #0xA4]
  01f48	e2833010	 add         r3, r3, #0x10
  01f4c	e5933000	 ldr         r3, [r3]
  01f50	e283300c	 add         r3, r3, #0xC
  01f54	e5933000	 ldr         r3, [r3]
  01f58	e2833007	 add         r3, r3, #7
  01f5c	e1a031c3	 mov         r3, r3, asr #3
  01f60	e58d3024	 str         r3, [sp, #0x24]

; 853  : 
; 854  :         // Cursor mask & store size
; 855  :         size = xSize * ySize * bytesPerPixel;

  01f64	e59d10b8	 ldr         r1, [sp, #0xB8]
  01f68	e59d30bc	 ldr         r3, [sp, #0xBC]
  01f6c	e0020391	 mul         r2, r1, r3
  01f70	e59d3024	 ldr         r3, [sp, #0x24]
  01f74	e0030392	 mul         r3, r2, r3
  01f78	e58d3028	 str         r3, [sp, #0x28]

; 856  :         
; 857  :         // Allocate memory based on new cursor size
; 858  :         m_cursorStore = new UCHAR[size];

  01f7c	e59d0028	 ldr         r0, [sp, #0x28]
  01f80	eb000000	 bl          |??2@YAPAXI@Z|
  01f84	e58d006c	 str         r0, [sp, #0x6C]
  01f88	e59d306c	 ldr         r3, [sp, #0x6C]
  01f8c	e58d3048	 str         r3, [sp, #0x48]
  01f90	e59d30a4	 ldr         r3, [sp, #0xA4]
  01f94	e2832f5e	 add         r2, r3, #0x5E, 30
  01f98	e59d3048	 ldr         r3, [sp, #0x48]
  01f9c	e5823000	 str         r3, [r2]

; 859  :         m_cursorXor   = new UCHAR[size];

  01fa0	e59d0028	 ldr         r0, [sp, #0x28]
  01fa4	eb000000	 bl          |??2@YAPAXI@Z|
  01fa8	e58d0070	 str         r0, [sp, #0x70]
  01fac	e59d3070	 ldr         r3, [sp, #0x70]
  01fb0	e58d304c	 str         r3, [sp, #0x4C]
  01fb4	e59d30a4	 ldr         r3, [sp, #0xA4]
  01fb8	e2832f5f	 add         r2, r3, #0x5F, 30
  01fbc	e59d304c	 ldr         r3, [sp, #0x4C]
  01fc0	e5823000	 str         r3, [r2]

; 860  :         m_cursorAnd   = new UCHAR[size];

  01fc4	e59d0028	 ldr         r0, [sp, #0x28]
  01fc8	eb000000	 bl          |??2@YAPAXI@Z|
  01fcc	e58d0074	 str         r0, [sp, #0x74]
  01fd0	e59d3074	 ldr         r3, [sp, #0x74]
  01fd4	e58d3050	 str         r3, [sp, #0x50]
  01fd8	e59d30a4	 ldr         r3, [sp, #0xA4]
  01fdc	e2832d06	 add         r2, r3, #6, 26
  01fe0	e59d3050	 ldr         r3, [sp, #0x50]
  01fe4	e5823000	 str         r3, [r2]

; 861  : 
; 862  :         if (m_cursorStore == NULL || m_cursorXor == NULL || m_cursorAnd == NULL) 

  01fe8	e59d30a4	 ldr         r3, [sp, #0xA4]
  01fec	e2833f5e	 add         r3, r3, #0x5E, 30
  01ff0	e5933000	 ldr         r3, [r3]
  01ff4	e3530000	 cmp         r3, #0
  01ff8	0a000009	 beq         |$LN11@SetPointer|
  01ffc	e59d30a4	 ldr         r3, [sp, #0xA4]
  02000	e2833f5f	 add         r3, r3, #0x5F, 30
  02004	e5933000	 ldr         r3, [r3]
  02008	e3530000	 cmp         r3, #0
  0200c	0a000004	 beq         |$LN11@SetPointer|
  02010	e59d30a4	 ldr         r3, [sp, #0xA4]
  02014	e2833d06	 add         r3, r3, #6, 26
  02018	e5933000	 ldr         r3, [r3]
  0201c	e3530000	 cmp         r3, #0
  02020	1a00000f	 bne         |$LN12@SetPointer|
  02024		 |$LN11@SetPointer|

; 863  :         {
; 864  :             DEBUGMSG(GPE_ZONE_ERROR, (L"OMAPDDGPE::SetPointerShape: "
; 865  :                 L"Memory allocation for cursor buffers failed\r\n"
; 866  :             ));

  02024	e59f3318	 ldr         r3, [pc, #0x318]
  02028	e5933440	 ldr         r3, [r3, #0x440]
  0202c	e3130001	 tst         r3, #1
  02030	0a000004	 beq         |$LN25@SetPointer|
  02034	e59f030c	 ldr         r0, [pc, #0x30C]
  02038	eb000000	 bl          NKDbgPrintfW
  0203c	e3a03001	 mov         r3, #1
  02040	e58d3078	 str         r3, [sp, #0x78]
  02044	ea000001	 b           |$LN26@SetPointer|
  02048		 |$LN25@SetPointer|
  02048	e3a03000	 mov         r3, #0
  0204c	e58d3078	 str         r3, [sp, #0x78]
  02050		 |$LN26@SetPointer|

; 867  :             sc = E_OUTOFMEMORY;

  02050	e3a0313a	 mov         r3, #0x3A, 2
  02054	e3833807	 orr         r3, r3, #7, 16
  02058	e58d3038	 str         r3, [sp, #0x38]
  0205c	ea00009e	 b           |$LN10@SetPointer|

; 868  :             goto cleanUp;

  02060	ea00009d	 b           |$cleanUp$42411|
  02064		 |$LN12@SetPointer|

; 869  :         }
; 870  : 
; 871  :         // Store size and hotspot for new cursor
; 872  :         m_cursorSize.x = xSize;

  02064	e59d30a4	 ldr         r3, [sp, #0xA4]
  02068	e2832f5a	 add         r2, r3, #0x5A, 30
  0206c	e59d30b8	 ldr         r3, [sp, #0xB8]
  02070	e5823000	 str         r3, [r2]

; 873  :         m_cursorSize.y = ySize;

  02074	e59d30a4	 ldr         r3, [sp, #0xA4]
  02078	e2832f5b	 add         r2, r3, #0x5B, 30
  0207c	e59d30bc	 ldr         r3, [sp, #0xBC]
  02080	e5823000	 str         r3, [r2]

; 874  :         m_cursorHotspot.x = xHotspot;

  02084	e59d30a4	 ldr         r3, [sp, #0xA4]
  02088	e2832e17	 add         r2, r3, #0x17, 28
  0208c	e59d30b0	 ldr         r3, [sp, #0xB0]
  02090	e5823000	 str         r3, [r2]

; 875  :         m_cursorHotspot.y = yHotspot;

  02094	e59d30a4	 ldr         r3, [sp, #0xA4]
  02098	e2832f5d	 add         r2, r3, #0x5D, 30
  0209c	e59d30b4	 ldr         r3, [sp, #0xB4]
  020a0	e5823000	 str         r3, [r2]

; 876  : 
; 877  :         // Pointers to AND and XOR masks
; 878  :         pAndPtr = (UCHAR*)pMask->Buffer();

  020a4	e59d00a8	 ldr         r0, [sp, #0xA8]
  020a8	eb000000	 bl          |?Buffer@GPESurf@@QAAPAXXZ|
  020ac	e58d007c	 str         r0, [sp, #0x7C]
  020b0	e59d307c	 ldr         r3, [sp, #0x7C]
  020b4	e58d302c	 str         r3, [sp, #0x2C]

; 879  :         pXorPtr = (UCHAR*)pMask->Buffer() + (ySize * pMask->Stride());

  020b8	e59d00a8	 ldr         r0, [sp, #0xA8]
  020bc	eb000000	 bl          |?Buffer@GPESurf@@QAAPAXXZ|
  020c0	e58d0080	 str         r0, [sp, #0x80]
  020c4	e59d00a8	 ldr         r0, [sp, #0xA8]
  020c8	eb000000	 bl          |?Stride@GPESurf@@QAAHXZ|
  020cc	e58d0084	 str         r0, [sp, #0x84]
  020d0	e59d10bc	 ldr         r1, [sp, #0xBC]
  020d4	e59d3084	 ldr         r3, [sp, #0x84]
  020d8	e0020391	 mul         r2, r1, r3
  020dc	e59d3080	 ldr         r3, [sp, #0x80]
  020e0	e0833002	 add         r3, r3, r2
  020e4	e58d3034	 str         r3, [sp, #0x34]

; 880  : 
; 881  :         // store OR and AND mask for new cursor
; 882  :         for (row = 0; row < ySize; row++) 

  020e8	e3a03000	 mov         r3, #0
  020ec	e58d3020	 str         r3, [sp, #0x20]
  020f0	ea000002	 b           |$LN9@SetPointer|
  020f4		 |$LN8@SetPointer|
  020f4	e59d3020	 ldr         r3, [sp, #0x20]
  020f8	e2833001	 add         r3, r3, #1
  020fc	e58d3020	 str         r3, [sp, #0x20]
  02100		 |$LN9@SetPointer|
  02100	e59d2020	 ldr         r2, [sp, #0x20]
  02104	e59d30bc	 ldr         r3, [sp, #0xBC]
  02108	e1520003	 cmp         r2, r3
  0210c	aa000072	 bge         |$LN7@SetPointer|

; 883  :         {
; 884  :             pAndLine = &m_cursorAnd[row * xSize * bytesPerPixel];

  02110	e59d30a4	 ldr         r3, [sp, #0xA4]
  02114	e2830d06	 add         r0, r3, #6, 26
  02118	e59d2020	 ldr         r2, [sp, #0x20]
  0211c	e59d30b8	 ldr         r3, [sp, #0xB8]
  02120	e0010392	 mul         r1, r2, r3
  02124	e59d3024	 ldr         r3, [sp, #0x24]
  02128	e0020391	 mul         r2, r1, r3
  0212c	e5903000	 ldr         r3, [r0]
  02130	e0833002	 add         r3, r3, r2
  02134	e58d301c	 str         r3, [sp, #0x1C]

; 885  :             pXorLine = &m_cursorXor[row * xSize * bytesPerPixel];

  02138	e59d30a4	 ldr         r3, [sp, #0xA4]
  0213c	e2830f5f	 add         r0, r3, #0x5F, 30
  02140	e59d2020	 ldr         r2, [sp, #0x20]
  02144	e59d30b8	 ldr         r3, [sp, #0xB8]
  02148	e0010392	 mul         r1, r2, r3
  0214c	e59d3024	 ldr         r3, [sp, #0x24]
  02150	e0020391	 mul         r2, r1, r3
  02154	e5903000	 ldr         r3, [r0]
  02158	e0833002	 add         r3, r3, r2
  0215c	e58d3010	 str         r3, [sp, #0x10]

; 886  :             for (col = 0; col < xSize; col++) 

  02160	e3a03000	 mov         r3, #0
  02164	e58d300c	 str         r3, [sp, #0xC]
  02168	ea000002	 b           |$LN6@SetPointer|
  0216c		 |$LN5@SetPointer|
  0216c	e59d300c	 ldr         r3, [sp, #0xC]
  02170	e2833001	 add         r3, r3, #1
  02174	e58d300c	 str         r3, [sp, #0xC]
  02178		 |$LN6@SetPointer|
  02178	e59d200c	 ldr         r2, [sp, #0xC]
  0217c	e59d30b8	 ldr         r3, [sp, #0xB8]
  02180	e1520003	 cmp         r2, r3
  02184	aa000053	 bge         |$LN4@SetPointer|

; 887  :             {
; 888  :                 andPtr = pAndPtr[row * pMask->Stride() + (col >> 3)];

  02188	e59d00a8	 ldr         r0, [sp, #0xA8]
  0218c	eb000000	 bl          |?Stride@GPESurf@@QAAHXZ|
  02190	e58d0088	 str         r0, [sp, #0x88]
  02194	e59d1020	 ldr         r1, [sp, #0x20]
  02198	e59d3088	 ldr         r3, [sp, #0x88]
  0219c	e0020391	 mul         r2, r1, r3
  021a0	e59d300c	 ldr         r3, [sp, #0xC]
  021a4	e1a031c3	 mov         r3, r3, asr #3
  021a8	e0822003	 add         r2, r2, r3
  021ac	e59d302c	 ldr         r3, [sp, #0x2C]
  021b0	e0833002	 add         r3, r3, r2
  021b4	e5d33000	 ldrb        r3, [r3]
  021b8	e5cd3031	 strb        r3, [sp, #0x31]

; 889  :                 xorPtr = pXorPtr[row * pMask->Stride() + (col >> 3)];

  021bc	e59d00a8	 ldr         r0, [sp, #0xA8]
  021c0	eb000000	 bl          |?Stride@GPESurf@@QAAHXZ|
  021c4	e58d008c	 str         r0, [sp, #0x8C]
  021c8	e59d1020	 ldr         r1, [sp, #0x20]
  021cc	e59d308c	 ldr         r3, [sp, #0x8C]
  021d0	e0020391	 mul         r2, r1, r3
  021d4	e59d300c	 ldr         r3, [sp, #0xC]
  021d8	e1a031c3	 mov         r3, r3, asr #3
  021dc	e0822003	 add         r2, r2, r3
  021e0	e59d3034	 ldr         r3, [sp, #0x34]
  021e4	e0833002	 add         r3, r3, r2
  021e8	e5d33000	 ldrb        r3, [r3]
  021ec	e5cd3030	 strb        r3, [sp, #0x30]

; 890  :                 mask = (UCHAR) (0x80 >> (col & 0x7));

  021f0	e59d300c	 ldr         r3, [sp, #0xC]
  021f4	e2032007	 and         r2, r3, #7
  021f8	e3a03080	 mov         r3, #0x80
  021fc	e1a03253	 mov         r3, r3, asr r2
  02200	e20330ff	 and         r3, r3, #0xFF
  02204	e5cd3018	 strb        r3, [sp, #0x18]

; 891  :                 for (i = 0; i < bytesPerPixel; i++) 

  02208	e3a03000	 mov         r3, #0
  0220c	e58d3014	 str         r3, [sp, #0x14]
  02210	ea000002	 b           |$LN3@SetPointer|
  02214		 |$LN2@SetPointer|
  02214	e59d3014	 ldr         r3, [sp, #0x14]
  02218	e2833001	 add         r3, r3, #1
  0221c	e58d3014	 str         r3, [sp, #0x14]
  02220		 |$LN3@SetPointer|
  02220	e59d2014	 ldr         r2, [sp, #0x14]
  02224	e59d3024	 ldr         r3, [sp, #0x24]
  02228	e1520003	 cmp         r2, r3
  0222c	aa000028	 bge         |$LN1@SetPointer|

; 892  :                 {
; 893  :                     pAndLine[col * bytesPerPixel + i] = andPtr&mask ? 0xFF : 0x00;

  02230	e5dd3031	 ldrb        r3, [sp, #0x31]
  02234	e1a02003	 mov         r2, r3
  02238	e5dd3018	 ldrb        r3, [sp, #0x18]
  0223c	e1120003	 tst         r2, r3
  02240	0a000002	 beq         |$LN27@SetPointer|
  02244	e3a030ff	 mov         r3, #0xFF
  02248	e58d3090	 str         r3, [sp, #0x90]
  0224c	ea000001	 b           |$LN28@SetPointer|
  02250		 |$LN27@SetPointer|
  02250	e3a03000	 mov         r3, #0
  02254	e58d3090	 str         r3, [sp, #0x90]
  02258		 |$LN28@SetPointer|
  02258	e59d3090	 ldr         r3, [sp, #0x90]
  0225c	e20300ff	 and         r0, r3, #0xFF
  02260	e59d100c	 ldr         r1, [sp, #0xC]
  02264	e59d3024	 ldr         r3, [sp, #0x24]
  02268	e0020391	 mul         r2, r1, r3
  0226c	e59d3014	 ldr         r3, [sp, #0x14]
  02270	e0822003	 add         r2, r2, r3
  02274	e59d301c	 ldr         r3, [sp, #0x1C]
  02278	e0833002	 add         r3, r3, r2
  0227c	e5c30000	 strb        r0, [r3]

; 894  :                     pXorLine[col * bytesPerPixel + i] = xorPtr&mask ? 0xFF : 0x00;

  02280	e5dd3030	 ldrb        r3, [sp, #0x30]
  02284	e1a02003	 mov         r2, r3
  02288	e5dd3018	 ldrb        r3, [sp, #0x18]
  0228c	e1120003	 tst         r2, r3
  02290	0a000002	 beq         |$LN29@SetPointer|
  02294	e3a030ff	 mov         r3, #0xFF
  02298	e58d3094	 str         r3, [sp, #0x94]
  0229c	ea000001	 b           |$LN30@SetPointer|
  022a0		 |$LN29@SetPointer|
  022a0	e3a03000	 mov         r3, #0
  022a4	e58d3094	 str         r3, [sp, #0x94]
  022a8		 |$LN30@SetPointer|
  022a8	e59d3094	 ldr         r3, [sp, #0x94]
  022ac	e20300ff	 and         r0, r3, #0xFF
  022b0	e59d100c	 ldr         r1, [sp, #0xC]
  022b4	e59d3024	 ldr         r3, [sp, #0x24]
  022b8	e0020391	 mul         r2, r1, r3
  022bc	e59d3014	 ldr         r3, [sp, #0x14]
  022c0	e0822003	 add         r2, r2, r3
  022c4	e59d3010	 ldr         r3, [sp, #0x10]
  022c8	e0833002	 add         r3, r3, r2
  022cc	e5c30000	 strb        r0, [r3]

; 895  :                 }                    

  022d0	eaffffcf	 b           |$LN2@SetPointer|
  022d4		 |$LN1@SetPointer|

; 896  :             }

  022d4	eaffffa4	 b           |$LN5@SetPointer|
  022d8		 |$LN4@SetPointer|

; 897  :         }

  022d8	eaffff85	 b           |$LN8@SetPointer|
  022dc		 |$LN7@SetPointer|
  022dc		 |$LN16@SetPointer|
  022dc		 |$LN10@SetPointer|
  022dc		 |$LN13@SetPointer|
  022dc		 |$cleanUp$42411|

; 898  :     }
; 899  : 
; 900  : cleanUp:
; 901  :     Unlock();

  022dc	e59d30a4	 ldr         r3, [sp, #0xA4]
  022e0	e5933000	 ldr         r3, [r3]
  022e4	e28330f0	 add         r3, r3, #0xF0
  022e8	e59d00a4	 ldr         r0, [sp, #0xA4]
  022ec	e5933000	 ldr         r3, [r3]
  022f0	e1a0e00f	 mov         lr, pc
  022f4	e12fff13	 bx          r3

; 902  :     DEBUGMSG(GPE_ZONE_CURSOR, (L"-OMAPDDGPE::SetPointerShape(sc = 0x%08x)\r\n", sc));

  022f8	e59f3044	 ldr         r3, [pc, #0x44]
  022fc	e5933440	 ldr         r3, [r3, #0x440]
  02300	e3130a02	 tst         r3, #2, 20
  02304	0a000005	 beq         |$LN31@SetPointer|
  02308	e59d1038	 ldr         r1, [sp, #0x38]
  0230c	e59f002c	 ldr         r0, [pc, #0x2C]
  02310	eb000000	 bl          NKDbgPrintfW
  02314	e3a03001	 mov         r3, #1
  02318	e58d3098	 str         r3, [sp, #0x98]
  0231c	ea000001	 b           |$LN32@SetPointer|
  02320		 |$LN31@SetPointer|
  02320	e3a03000	 mov         r3, #0
  02324	e58d3098	 str         r3, [sp, #0x98]
  02328		 |$LN32@SetPointer|

; 903  :     return sc;

  02328	e59d3038	 ldr         r3, [sp, #0x38]
  0232c	e58d3054	 str         r3, [sp, #0x54]
  02330		 |$LN19@SetPointer|

; 904  : }

  02330	e59d0054	 ldr         r0, [sp, #0x54]
  02334	e28dd09c	 add         sp, sp, #0x9C
  02338	e89d6000	 ldmia       sp, {sp, lr}
  0233c	e12fff1e	 bx          lr
  02340		 |$LN36@SetPointer|
  02340		 |$LN37@SetPointer|
  02340	00000000	 DCD         |??_C@_1FG@NOMDPDH@?$AA?9?$AAO?$AAM?$AAA?$AAP?$AAD?$AAD?$AAG?$AAP?$AAE?$AA?3?$AA?3?$AAS?$AAe?$AAt?$AAP?$AAo?$AAi?$AAn?$AAt?$AAe?$AAr?$AAS?$AAh?$AAa?$AAp?$AAe?$AA?$CI?$AAs?$AAc?$AA?5?$AA?$DN@|
  02344		 |$LN38@SetPointer|
  02344	00000000	 DCD         |dpCurSettings|
  02348		 |$LN39@SetPointer|
  02348	00000000	 DCD         |??_C@_1JE@NHFELEGK@?$AAO?$AAM?$AAA?$AAP?$AAD?$AAD?$AAG?$AAP?$AAE?$AA?3?$AA?3?$AAS?$AAe?$AAt?$AAP?$AAo?$AAi?$AAn?$AAt?$AAe?$AAr?$AAS?$AAh?$AAa?$AAp?$AAe?$AA?3?$AA?5?$AAM?$AAe?$AAm?$AAo@|
  0234c		 |$LN40@SetPointer|
  0234c	00000000	 DCD         |??_C@_1HC@OEGJCIPI@?$AAO?$AAM?$AAA?$AAP?$AAD?$AAD?$AAG?$AAP?$AAE?$AA?3?$AA?3?$AAS?$AAe?$AAt?$AAP?$AAo?$AAi?$AAn?$AAt?$AAe?$AAr?$AAS?$AAh?$AAa?$AAp?$AAe?$AA?3?$AA?5?$AAI?$AAn?$AAv?$AAa@|
  02350		 |$LN41@SetPointer|
  02350	00000000	 DCD         |??_C@_1HM@BHCEIJNF@?$AA?$CL?$AAO?$AAM?$AAA?$AAP?$AAD?$AAD?$AAG?$AAP?$AAE?$AA?3?$AA?3?$AAS?$AAe?$AAt?$AAP?$AAo?$AAi?$AAn?$AAt?$AAe?$AAr?$AAS?$AAh?$AAa?$AAp?$AAe?$AA?$CI?$AA0?$AAx?$AA?$CF?$AA0@|
  02354		 |$LN42@SetPointer|
  02354	00000000	 DCD         |?g_Globals@@3VOMAPDDGPEGlobals@@A|
  02358		 |$M43562|

			 ENDP  ; |?SetPointerShape@OMAPDDGPE@@UAAJPAVGPESurf@@0HHHH@Z|, OMAPDDGPE::SetPointerShape

; File c:\wince600\public\common\oak\inc\gpe.h

  00000			 AREA	 |.pdata|, PDATA
|$T43577| DCD	|$LN5@Stride|
	DCD	0x40000c04
; Function compile flags: /Odtp

  00000			 AREA	 |.text|, CODE, ARM

  00000		 |?Stride@GPESurf@@QAAHXZ| PROC		; GPESurf::Stride

; 177  :     {

  00000		 |$LN5@Stride|
  00000	e1a0c00d	 mov         r12, sp
  00004	e92d0001	 stmdb       sp!, {r0}
  00008	e92d5000	 stmdb       sp!, {r12, lr}
  0000c	e24dd004	 sub         sp, sp, #4
  00010		 |$M43574|

; 178  :         return m_nStrideBytes;

  00010	e59d300c	 ldr         r3, [sp, #0xC]
  00014	e2833008	 add         r3, r3, #8
  00018	e5933000	 ldr         r3, [r3]
  0001c	e58d3000	 str         r3, [sp]

; 179  :     }

  00020	e59d0000	 ldr         r0, [sp]
  00024	e28dd004	 add         sp, sp, #4
  00028	e89d6000	 ldmia       sp, {sp, lr}
  0002c	e12fff1e	 bx          lr
  00030		 |$M43575|

			 ENDP  ; |?Stride@GPESurf@@QAAHXZ|, GPESurf::Stride


  00000			 AREA	 |.pdata|, PDATA
|$T43585| DCD	|$LN5@Buffer|
	DCD	0x40000c04
; Function compile flags: /Odtp

  00000			 AREA	 |.text|, CODE, ARM

  00000		 |?Buffer@GPESurf@@QAAPAXXZ| PROC	; GPESurf::Buffer

; 201  :     {

  00000		 |$LN5@Buffer|
  00000	e1a0c00d	 mov         r12, sp
  00004	e92d0001	 stmdb       sp!, {r0}
  00008	e92d5000	 stmdb       sp!, {r12, lr}
  0000c	e24dd004	 sub         sp, sp, #4
  00010		 |$M43582|

; 202  :         return (void *)m_pVirtAddr;

  00010	e59d300c	 ldr         r3, [sp, #0xC]
  00014	e2833004	 add         r3, r3, #4
  00018	e5933000	 ldr         r3, [r3]
  0001c	e58d3000	 str         r3, [sp]

; 203  :     }

  00020	e59d0000	 ldr         r0, [sp]
  00024	e28dd004	 add         sp, sp, #4
  00028	e89d6000	 ldmia       sp, {sp, lr}
  0002c	e12fff1e	 bx          lr
  00030		 |$M43583|

			 ENDP  ; |?Buffer@GPESurf@@QAAPAXXZ|, GPESurf::Buffer

	EXPORT	|??_C@_1EO@PKONCBBL@?$AA?9?$AAO?$AAM?$AAA?$AAP?$AAD?$AAD?$AAG?$AAP?$AAE?$AA?3?$AA?3?$AAM?$AAo?$AAv?$AAe?$AAP?$AAo?$AAi?$AAn?$AAt?$AAe?$AAr?$AA?$CI?$AAs?$AAc?$AA?5?$AA?$DN?$AA?5?$AA0?$AAx?$AA?$CF@| [ DATA ] ; `string'
	EXPORT	|?CursorOn@OMAPDDGPE@@QAAXXZ|		; OMAPDDGPE::CursorOn
	EXPORT	|??_C@_1EE@GKMHIICJ@?$AA?$CL?$AAO?$AAM?$AAA?$AAP?$AAD?$AAD?$AAG?$AAP?$AAE?$AA?3?$AA?3?$AAM?$AAo?$AAv?$AAe?$AAP?$AAo?$AAi?$AAn?$AAt?$AAe?$AAr?$AA?$CI?$AA?$CF?$AAd?$AA?0?$AA?5?$AA?$CF?$AAd?$AA?$CJ?$AA?$AN@| [ DATA ] ; `string'

  00088			 AREA	 |.pdata|, PDATA
|$T43597| DCD	|$LN12@MovePointe|
	DCD	0x40006a04
; File c:\wince600\platform\common\src\soc\common_ti_v1\common_ti\dss\ddgpe\omap_ddgpe.cpp

  00000			 AREA	 |.rdata|, DATA, READONLY
|??_C@_1EO@PKONCBBL@?$AA?9?$AAO?$AAM?$AAA?$AAP?$AAD?$AAD?$AAG?$AAP?$AAE?$AA?3?$AA?3?$AAM?$AAo?$AAv?$AAe?$AAP?$AAo?$AAi?$AAn?$AAt?$AAe?$AAr?$AA?$CI?$AAs?$AAc?$AA?5?$AA?$DN?$AA?5?$AA0?$AAx?$AA?$CF@| DCB "-"
	DCB	0x0, "O", 0x0, "M", 0x0, "A", 0x0, "P", 0x0, "D", 0x0, "D"
	DCB	0x0, "G", 0x0, "P", 0x0, "E", 0x0, ":", 0x0, ":", 0x0, "M"
	DCB	0x0, "o", 0x0, "v", 0x0, "e", 0x0, "P", 0x0, "o", 0x0, "i"
	DCB	0x0, "n", 0x0, "t", 0x0, "e", 0x0, "r", 0x0, "(", 0x0, "s"
	DCB	0x0, "c", 0x0, " ", 0x0, "=", 0x0, " ", 0x0, "0", 0x0, "x"
	DCB	0x0, "%", 0x0, "0", 0x0, "8", 0x0, "x", 0x0, ")", 0x0, 0xd
	DCB	0x0, 0xa, 0x0, 0x0, 0x0			; `string'

  00000			 AREA	 |.rdata|, DATA, READONLY
|??_C@_1EE@GKMHIICJ@?$AA?$CL?$AAO?$AAM?$AAA?$AAP?$AAD?$AAD?$AAG?$AAP?$AAE?$AA?3?$AA?3?$AAM?$AAo?$AAv?$AAe?$AAP?$AAo?$AAi?$AAn?$AAt?$AAe?$AAr?$AA?$CI?$AA?$CF?$AAd?$AA?0?$AA?5?$AA?$CF?$AAd?$AA?$CJ?$AA?$AN@| DCB "+"
	DCB	0x0, "O", 0x0, "M", 0x0, "A", 0x0, "P", 0x0, "D", 0x0, "D"
	DCB	0x0, "G", 0x0, "P", 0x0, "E", 0x0, ":", 0x0, ":", 0x0, "M"
	DCB	0x0, "o", 0x0, "v", 0x0, "e", 0x0, "P", 0x0, "o", 0x0, "i"
	DCB	0x0, "n", 0x0, "t", 0x0, "e", 0x0, "r", 0x0, "(", 0x0, "%"
	DCB	0x0, "d", 0x0, ",", 0x0, " ", 0x0, "%", 0x0, "d", 0x0, ")"
	DCB	0x0, 0xd, 0x0, 0xa, 0x0, 0x0, 0x0	; `string'
; Function compile flags: /Odtp

  02358			 AREA	 |.text|, CODE, ARM

  02358		 |?MovePointer@OMAPDDGPE@@UAAJHH@Z| PROC ; OMAPDDGPE::MovePointer

; 912  : {

  02358		 |$LN12@MovePointe|
  02358	e1a0c00d	 mov         r12, sp
  0235c	e92d0007	 stmdb       sp!, {r0 - r2}
  02360	e92d5000	 stmdb       sp!, {r12, lr}
  02364	e24dd00c	 sub         sp, sp, #0xC
  02368		 |$M43594|

; 913  :     if (!g_Globals.m_dwCursorEnable)

  02368	e59f318c	 ldr         r3, [pc, #0x18C]
  0236c	e5933234	 ldr         r3, [r3, #0x234]
  02370	e3530000	 cmp         r3, #0
  02374	1a000002	 bne         |$LN3@MovePointe|

; 914  :         return S_OK;

  02378	e3a03000	 mov         r3, #0
  0237c	e58d3000	 str         r3, [sp]
  02380	ea000056	 b           |$LN4@MovePointe|
  02384		 |$LN3@MovePointe|

; 915  : 
; 916  :     DEBUGMSG(GPE_ZONE_CURSOR, (L"+OMAPDDGPE::MovePointer(%d, %d)\r\n", xPosition, yPosition));

  02384	e59f3168	 ldr         r3, [pc, #0x168]
  02388	e5933440	 ldr         r3, [r3, #0x440]
  0238c	e3130a02	 tst         r3, #2, 20
  02390	0a000006	 beq         |$LN6@MovePointe|
  02394	e59d201c	 ldr         r2, [sp, #0x1C]
  02398	e59d1018	 ldr         r1, [sp, #0x18]
  0239c	e59f0154	 ldr         r0, [pc, #0x154]
  023a0	eb000000	 bl          NKDbgPrintfW
  023a4	e3a03001	 mov         r3, #1
  023a8	e58d3004	 str         r3, [sp, #4]
  023ac	ea000001	 b           |$LN7@MovePointe|
  023b0		 |$LN6@MovePointe|
  023b0	e3a03000	 mov         r3, #0
  023b4	e58d3004	 str         r3, [sp, #4]
  023b8		 |$LN7@MovePointe|

; 917  : 
; 918  :     Lock();

  023b8	e59d3014	 ldr         r3, [sp, #0x14]
  023bc	e5933000	 ldr         r3, [r3]
  023c0	e28330ec	 add         r3, r3, #0xEC
  023c4	e59d0014	 ldr         r0, [sp, #0x14]
  023c8	e5933000	 ldr         r3, [r3]
  023cc	e1a0e00f	 mov         lr, pc
  023d0	e12fff13	 bx          r3

; 919  : 
; 920  :     CursorOff();

  023d4	e59d0014	 ldr         r0, [sp, #0x14]
  023d8	eb000000	 bl          |?CursorOff@OMAPDDGPE@@QAAXXZ|

; 921  : 
; 922  :     if (xPosition != -1 || yPosition != -1) 

  023dc	e59d3018	 ldr         r3, [sp, #0x18]
  023e0	e3730001	 cmn         r3, #1
  023e4	1a000002	 bne         |$LN1@MovePointe|
  023e8	e59d301c	 ldr         r3, [sp, #0x1C]
  023ec	e3730001	 cmn         r3, #1
  023f0	0a000025	 beq         |$LN2@MovePointe|
  023f4		 |$LN1@MovePointe|

; 923  :     {
; 924  :         // Compute new cursor rect
; 925  :         m_cursorRect.left = xPosition - m_cursorHotspot.x;

  023f4	e59d3014	 ldr         r3, [sp, #0x14]
  023f8	e2833e17	 add         r3, r3, #0x17, 28
  023fc	e59d2018	 ldr         r2, [sp, #0x18]
  02400	e5933000	 ldr         r3, [r3]
  02404	e0422003	 sub         r2, r2, r3
  02408	e59d3014	 ldr         r3, [sp, #0x14]
  0240c	e2833f56	 add         r3, r3, #0x56, 30
  02410	e5832000	 str         r2, [r3]

; 926  :         m_cursorRect.right = m_cursorRect.left + m_cursorSize.x;

  02414	e59d3014	 ldr         r3, [sp, #0x14]
  02418	e2832f56	 add         r2, r3, #0x56, 30
  0241c	e59d3014	 ldr         r3, [sp, #0x14]
  02420	e2833f5a	 add         r3, r3, #0x5A, 30
  02424	e5922000	 ldr         r2, [r2]
  02428	e5933000	 ldr         r3, [r3]
  0242c	e0822003	 add         r2, r2, r3
  02430	e59d3014	 ldr         r3, [sp, #0x14]
  02434	e2833e16	 add         r3, r3, #0x16, 28
  02438	e5832000	 str         r2, [r3]

; 927  :         m_cursorRect.top = yPosition - m_cursorHotspot.y;

  0243c	e59d3014	 ldr         r3, [sp, #0x14]
  02440	e2833f5d	 add         r3, r3, #0x5D, 30
  02444	e59d201c	 ldr         r2, [sp, #0x1C]
  02448	e5933000	 ldr         r3, [r3]
  0244c	e0422003	 sub         r2, r2, r3
  02450	e59d3014	 ldr         r3, [sp, #0x14]
  02454	e2833f57	 add         r3, r3, #0x57, 30
  02458	e5832000	 str         r2, [r3]

; 928  :         m_cursorRect.bottom = m_cursorRect.top + m_cursorSize.y;

  0245c	e59d3014	 ldr         r3, [sp, #0x14]
  02460	e2832f57	 add         r2, r3, #0x57, 30
  02464	e59d3014	 ldr         r3, [sp, #0x14]
  02468	e2833f5b	 add         r3, r3, #0x5B, 30
  0246c	e5922000	 ldr         r2, [r2]
  02470	e5933000	 ldr         r3, [r3]
  02474	e0822003	 add         r2, r2, r3
  02478	e59d3014	 ldr         r3, [sp, #0x14]
  0247c	e2833f59	 add         r3, r3, #0x59, 30
  02480	e5832000	 str         r2, [r3]

; 929  :         CursorOn();

  02484	e59d0014	 ldr         r0, [sp, #0x14]
  02488	eb000000	 bl          |?CursorOn@OMAPDDGPE@@QAAXXZ|
  0248c		 |$LN2@MovePointe|

; 930  :     }
; 931  : 
; 932  :     Unlock();

  0248c	e59d3014	 ldr         r3, [sp, #0x14]
  02490	e5933000	 ldr         r3, [r3]
  02494	e28330f0	 add         r3, r3, #0xF0
  02498	e59d0014	 ldr         r0, [sp, #0x14]
  0249c	e5933000	 ldr         r3, [r3]
  024a0	e1a0e00f	 mov         lr, pc
  024a4	e12fff13	 bx          r3

; 933  :     
; 934  :     DEBUGMSG(GPE_ZONE_CURSOR, (L"-OMAPDDGPE::MovePointer(sc = 0x%08x)\r\n", S_OK));

  024a8	e59f3044	 ldr         r3, [pc, #0x44]
  024ac	e5933440	 ldr         r3, [r3, #0x440]
  024b0	e3130a02	 tst         r3, #2, 20
  024b4	0a000005	 beq         |$LN8@MovePointe|
  024b8	e3a01000	 mov         r1, #0
  024bc	e59f002c	 ldr         r0, [pc, #0x2C]
  024c0	eb000000	 bl          NKDbgPrintfW
  024c4	e3a03001	 mov         r3, #1
  024c8	e58d3008	 str         r3, [sp, #8]
  024cc	ea000001	 b           |$LN9@MovePointe|
  024d0		 |$LN8@MovePointe|
  024d0	e3a03000	 mov         r3, #0
  024d4	e58d3008	 str         r3, [sp, #8]
  024d8		 |$LN9@MovePointe|

; 935  :     return  S_OK;

  024d8	e3a03000	 mov         r3, #0
  024dc	e58d3000	 str         r3, [sp]
  024e0		 |$LN4@MovePointe|

; 936  : }

  024e0	e59d0000	 ldr         r0, [sp]
  024e4	e28dd00c	 add         sp, sp, #0xC
  024e8	e89d6000	 ldmia       sp, {sp, lr}
  024ec	e12fff1e	 bx          lr
  024f0		 |$LN13@MovePointe|
  024f0		 |$LN14@MovePointe|
  024f0	00000000	 DCD         |??_C@_1EO@PKONCBBL@?$AA?9?$AAO?$AAM?$AAA?$AAP?$AAD?$AAD?$AAG?$AAP?$AAE?$AA?3?$AA?3?$AAM?$AAo?$AAv?$AAe?$AAP?$AAo?$AAi?$AAn?$AAt?$AAe?$AAr?$AA?$CI?$AAs?$AAc?$AA?5?$AA?$DN?$AA?5?$AA0?$AAx?$AA?$CF@|
  024f4		 |$LN15@MovePointe|
  024f4	00000000	 DCD         |dpCurSettings|
  024f8		 |$LN16@MovePointe|
  024f8	00000000	 DCD         |??_C@_1EE@GKMHIICJ@?$AA?$CL?$AAO?$AAM?$AAA?$AAP?$AAD?$AAD?$AAG?$AAP?$AAE?$AA?3?$AA?3?$AAM?$AAo?$AAv?$AAe?$AAP?$AAo?$AAi?$AAn?$AAt?$AAe?$AAr?$AA?$CI?$AA?$CF?$AAd?$AA?0?$AA?5?$AA?$CF?$AAd?$AA?$CJ?$AA?$AN@|
  024fc		 |$LN17@MovePointe|
  024fc	00000000	 DCD         |?g_Globals@@3VOMAPDDGPEGlobals@@A|
  02500		 |$M43595|

			 ENDP  ; |?MovePointer@OMAPDDGPE@@UAAJHH@Z|, OMAPDDGPE::MovePointer

	EXPORT	|??_C@_1HA@OCEFLDPL@?$AAO?$AAM?$AAA?$AAP?$AAD?$AAD?$AAG?$AAP?$AAE?$AA?3?$AA?3?$AAW?$AAr?$AAa?$AAp?$AAp?$AAe?$AAd?$AAE?$AAm?$AAu?$AAl?$AAa?$AAt?$AAe?$AAd?$AAL?$AAi?$AAn?$AAe?$AA?3?$AA?5@| [ DATA ] ; `string'
	EXPORT	|?WrappedEmulatedLine@OMAPDDGPE@@AAAJPAUGPELineParms@@@Z| ; OMAPDDGPE::WrappedEmulatedLine
	IMPORT	|?EmulatedLine@GPE@@QAAJPAUGPELineParms@@@Z| ; GPE::EmulatedLine
	IMPORT	|?RotateRectl@GPE@@QAAXPAU_RECTL@@@Z|	; GPE::RotateRectl
	IMPORT	|__rt_udiv|

  00090			 AREA	 |.pdata|, PDATA
|$T43621| DCD	|$LN34@WrappedEmu|
	DCD	0x40015104

  00000			 AREA	 |.rdata|, DATA, READONLY
|??_C@_1HA@OCEFLDPL@?$AAO?$AAM?$AAA?$AAP?$AAD?$AAD?$AAG?$AAP?$AAE?$AA?3?$AA?3?$AAW?$AAr?$AAa?$AAp?$AAp?$AAe?$AAd?$AAE?$AAm?$AAu?$AAl?$AAa?$AAt?$AAe?$AAd?$AAL?$AAi?$AAn?$AAe?$AA?3?$AA?5@| DCB "O"
	DCB	0x0, "M", 0x0, "A", 0x0, "P", 0x0, "D", 0x0, "D", 0x0, "G"
	DCB	0x0, "P", 0x0, "E", 0x0, ":", 0x0, ":", 0x0, "W", 0x0, "r"
	DCB	0x0, "a", 0x0, "p", 0x0, "p", 0x0, "e", 0x0, "d", 0x0, "E"
	DCB	0x0, "m", 0x0, "u", 0x0, "l", 0x0, "a", 0x0, "t", 0x0, "e"
	DCB	0x0, "d", 0x0, "L", 0x0, "i", 0x0, "n", 0x0, "e", 0x0, ":"
	DCB	0x0, " ", 0x0, "I", 0x0, "n", 0x0, "v", 0x0, "a", 0x0, "l"
	DCB	0x0, "i", 0x0, "d", 0x0, " ", 0x0, "d", 0x0, "i", 0x0, "r"
	DCB	0x0, "e", 0x0, "c", 0x0, "t", 0x0, "i", 0x0, "o", 0x0, "n"
	DCB	0x0, ":", 0x0, " ", 0x0, "%", 0x0, "d", 0x0, 0xd, 0x0, 0xa
	DCB	0x0, 0x0, 0x0				; `string'
; Function compile flags: /Odtp

  02500			 AREA	 |.text|, CODE, ARM

  02500		 |?WrappedEmulatedLine@OMAPDDGPE@@AAAJPAUGPELineParms@@@Z| PROC ; OMAPDDGPE::WrappedEmulatedLine

; 947  : {

  02500		 |$LN34@WrappedEmu|
  02500	e1a0c00d	 mov         r12, sp
  02504	e92d0003	 stmdb       sp!, {r0, r1}
  02508	e92d5000	 stmdb       sp!, {r12, lr}
  0250c	e24dd038	 sub         sp, sp, #0x38
  02510		 |$M43618|

; 948  :     SCODE sc;
; 949  :     RECT bounds;
; 950  :     int N_plus_1;
; 951  : 
; 952  :     Lock();

  02510	e59d3040	 ldr         r3, [sp, #0x40]
  02514	e5933000	 ldr         r3, [r3]
  02518	e28330ec	 add         r3, r3, #0xEC
  0251c	e59d0040	 ldr         r0, [sp, #0x40]
  02520	e5933000	 ldr         r3, [r3]
  02524	e1a0e00f	 mov         lr, pc
  02528	e12fff13	 bx          r3

; 953  :     
; 954  :     // If cursor is on check for line overlap
; 955  :     if (m_cursorVisible && !m_cursorDisabled) 

  0252c	e59d3040	 ldr         r3, [sp, #0x40]
  02530	e2833e15	 add         r3, r3, #0x15, 28
  02534	e5933000	 ldr         r3, [r3]
  02538	e3530000	 cmp         r3, #0
  0253c	0a000111	 beq         |$LN17@WrappedEmu|
  02540	e59d3040	 ldr         r3, [sp, #0x40]
  02544	e2833f53	 add         r3, r3, #0x53, 30
  02548	e5933000	 ldr         r3, [r3]
  0254c	e3530000	 cmp         r3, #0
  02550	1a00010c	 bne         |$LN17@WrappedEmu|

; 956  :     {
; 957  :         // Calculate the bounding-rect to determine overlap with cursor
; 958  :         if (lineParameters->dN) 

  02554	e59d3044	 ldr         r3, [sp, #0x44]
  02558	e2833014	 add         r3, r3, #0x14
  0255c	e5933000	 ldr         r3, [r3]
  02560	e3530000	 cmp         r3, #0
  02564	0a00000d	 beq         |$LN16@WrappedEmu|

; 959  :         {
; 960  :             // The line has a diagonal component
; 961  :             N_plus_1 = 2 + (
; 962  :                 (lineParameters->cPels * lineParameters->dN)/lineParameters->dM
; 963  :             );

  02568	e59d3044	 ldr         r3, [sp, #0x44]
  0256c	e283200c	 add         r2, r3, #0xC
  02570	e59d3044	 ldr         r3, [sp, #0x44]
  02574	e2833014	 add         r3, r3, #0x14
  02578	e5922000	 ldr         r2, [r2]
  0257c	e5933000	 ldr         r3, [r3]
  02580	e0010392	 mul         r1, r2, r3
  02584	e59d3044	 ldr         r3, [sp, #0x44]
  02588	e2833010	 add         r3, r3, #0x10
  0258c	e5930000	 ldr         r0, [r3]
  02590	eb000000	 bl          __rt_udiv
  02594	e2803002	 add         r3, r0, #2
  02598	e58d3000	 str         r3, [sp]

; 964  :         } 
; 965  :         else 

  0259c	ea000001	 b           |$LN15@WrappedEmu|
  025a0		 |$LN16@WrappedEmu|

; 966  :         {
; 967  :             N_plus_1 = 1;

  025a0	e3a03001	 mov         r3, #1
  025a4	e58d3000	 str         r3, [sp]
  025a8		 |$LN15@WrappedEmu|

; 968  :         }
; 969  : 
; 970  :         switch (lineParameters->iDir) 

  025a8	e59d3044	 ldr         r3, [sp, #0x44]
  025ac	e283301c	 add         r3, r3, #0x1C
  025b0	e5933000	 ldr         r3, [r3]
  025b4	e58d302c	 str         r3, [sp, #0x2C]
  025b8	e59d302c	 ldr         r3, [sp, #0x2C]
  025bc	e3530007	 cmp         r3, #7
  025c0	8a0000c0	 bhi         |$LN4@WrappedEmu|
  025c4	e59d202c	 ldr         r2, [sp, #0x2C]
  025c8	e1a03102	 mov         r3, r2, lsl #2
  025cc	e083300f	 add         r3, r3, pc
  025d0	e5933004	 ldr         r3, [r3, #4]
  025d4	e08ff003	 add         pc, pc, r3
  025d8		 |$LN23@WrappedEmu|
  025d8		 |$LN22@WrappedEmu|
  025d8		 |$LN24@WrappedEmu|
  025d8	0000001c	 DCD         0x1c
  025dc		 |$LN25@WrappedEmu|
  025dc	00000074	 DCD         0x74
  025e0		 |$LN26@WrappedEmu|
  025e0	000000cc	 DCD         0xcc
  025e4		 |$LN27@WrappedEmu|
  025e4	00000128	 DCD         0x128
  025e8		 |$LN28@WrappedEmu|
  025e8	00000180	 DCD         0x180
  025ec		 |$LN29@WrappedEmu|
  025ec	000001dc	 DCD         0x1dc
  025f0		 |$LN30@WrappedEmu|
  025f0	00000238	 DCD         0x238
  025f4		 |$LN31@WrappedEmu|
  025f4	00000290	 DCD         0x290
  025f8		 |$LN12@WrappedEmu|

; 971  :         {
; 972  :             case 0:
; 973  :                 bounds.left = lineParameters->xStart;

  025f8	e59d3044	 ldr         r3, [sp, #0x44]
  025fc	e2833004	 add         r3, r3, #4
  02600	e5933000	 ldr         r3, [r3]
  02604	e58d3004	 str         r3, [sp, #4]

; 974  :                 bounds.top = lineParameters->yStart;

  02608	e59d3044	 ldr         r3, [sp, #0x44]
  0260c	e2833008	 add         r3, r3, #8
  02610	e5933000	 ldr         r3, [r3]
  02614	e58d3008	 str         r3, [sp, #8]

; 975  :                 bounds.right = lineParameters->xStart + lineParameters->cPels + 1;

  02618	e59d3044	 ldr         r3, [sp, #0x44]
  0261c	e2832004	 add         r2, r3, #4
  02620	e59d3044	 ldr         r3, [sp, #0x44]
  02624	e283300c	 add         r3, r3, #0xC
  02628	e5922000	 ldr         r2, [r2]
  0262c	e5933000	 ldr         r3, [r3]
  02630	e0823003	 add         r3, r2, r3
  02634	e2833001	 add         r3, r3, #1
  02638	e58d300c	 str         r3, [sp, #0xC]

; 976  :                 bounds.bottom = bounds.top + N_plus_1;

  0263c	e59d2008	 ldr         r2, [sp, #8]
  02640	e59d3000	 ldr         r3, [sp]
  02644	e0823003	 add         r3, r2, r3
  02648	e58d3010	 str         r3, [sp, #0x10]

; 977  :                 break;

  0264c	ea0000af	 b           |$LN13@WrappedEmu|
  02650		 |$LN11@WrappedEmu|

; 978  : 
; 979  :             case 1:
; 980  :                 bounds.left = lineParameters->xStart;

  02650	e59d3044	 ldr         r3, [sp, #0x44]
  02654	e2833004	 add         r3, r3, #4
  02658	e5933000	 ldr         r3, [r3]
  0265c	e58d3004	 str         r3, [sp, #4]

; 981  :                 bounds.top = lineParameters->yStart;

  02660	e59d3044	 ldr         r3, [sp, #0x44]
  02664	e2833008	 add         r3, r3, #8
  02668	e5933000	 ldr         r3, [r3]
  0266c	e58d3008	 str         r3, [sp, #8]

; 982  :                 bounds.bottom = lineParameters->yStart + lineParameters->cPels + 1;

  02670	e59d3044	 ldr         r3, [sp, #0x44]
  02674	e2832008	 add         r2, r3, #8
  02678	e59d3044	 ldr         r3, [sp, #0x44]
  0267c	e283300c	 add         r3, r3, #0xC
  02680	e5922000	 ldr         r2, [r2]
  02684	e5933000	 ldr         r3, [r3]
  02688	e0823003	 add         r3, r2, r3
  0268c	e2833001	 add         r3, r3, #1
  02690	e58d3010	 str         r3, [sp, #0x10]

; 983  :                 bounds.right = bounds.left + N_plus_1;

  02694	e59d2004	 ldr         r2, [sp, #4]
  02698	e59d3000	 ldr         r3, [sp]
  0269c	e0823003	 add         r3, r2, r3
  026a0	e58d300c	 str         r3, [sp, #0xC]

; 984  :                 break;

  026a4	ea000099	 b           |$LN13@WrappedEmu|
  026a8		 |$LN10@WrappedEmu|

; 985  : 
; 986  :             case 2:
; 987  :                 bounds.right = lineParameters->xStart + 1;

  026a8	e59d3044	 ldr         r3, [sp, #0x44]
  026ac	e2833004	 add         r3, r3, #4
  026b0	e5933000	 ldr         r3, [r3]
  026b4	e2833001	 add         r3, r3, #1
  026b8	e58d300c	 str         r3, [sp, #0xC]

; 988  :                 bounds.top = lineParameters->yStart;

  026bc	e59d3044	 ldr         r3, [sp, #0x44]
  026c0	e2833008	 add         r3, r3, #8
  026c4	e5933000	 ldr         r3, [r3]
  026c8	e58d3008	 str         r3, [sp, #8]

; 989  :                 bounds.bottom = lineParameters->yStart + lineParameters->cPels + 1;

  026cc	e59d3044	 ldr         r3, [sp, #0x44]
  026d0	e2832008	 add         r2, r3, #8
  026d4	e59d3044	 ldr         r3, [sp, #0x44]
  026d8	e283300c	 add         r3, r3, #0xC
  026dc	e5922000	 ldr         r2, [r2]
  026e0	e5933000	 ldr         r3, [r3]
  026e4	e0823003	 add         r3, r2, r3
  026e8	e2833001	 add         r3, r3, #1
  026ec	e58d3010	 str         r3, [sp, #0x10]

; 990  :                 bounds.left = bounds.right - N_plus_1;

  026f0	e59d200c	 ldr         r2, [sp, #0xC]
  026f4	e59d3000	 ldr         r3, [sp]
  026f8	e0423003	 sub         r3, r2, r3
  026fc	e58d3004	 str         r3, [sp, #4]

; 991  :                 break;

  02700	ea000082	 b           |$LN13@WrappedEmu|
  02704		 |$LN9@WrappedEmu|

; 992  : 
; 993  :             case 3:
; 994  :                 bounds.right = lineParameters->xStart + 1;

  02704	e59d3044	 ldr         r3, [sp, #0x44]
  02708	e2833004	 add         r3, r3, #4
  0270c	e5933000	 ldr         r3, [r3]
  02710	e2833001	 add         r3, r3, #1
  02714	e58d300c	 str         r3, [sp, #0xC]

; 995  :                 bounds.top = lineParameters->yStart;

  02718	e59d3044	 ldr         r3, [sp, #0x44]
  0271c	e2833008	 add         r3, r3, #8
  02720	e5933000	 ldr         r3, [r3]
  02724	e58d3008	 str         r3, [sp, #8]

; 996  :                 bounds.left = lineParameters->xStart - lineParameters->cPels;

  02728	e59d3044	 ldr         r3, [sp, #0x44]
  0272c	e2832004	 add         r2, r3, #4
  02730	e59d3044	 ldr         r3, [sp, #0x44]
  02734	e283300c	 add         r3, r3, #0xC
  02738	e5922000	 ldr         r2, [r2]
  0273c	e5933000	 ldr         r3, [r3]
  02740	e0423003	 sub         r3, r2, r3
  02744	e58d3004	 str         r3, [sp, #4]

; 997  :                 bounds.bottom = bounds.top + N_plus_1;

  02748	e59d2008	 ldr         r2, [sp, #8]
  0274c	e59d3000	 ldr         r3, [sp]
  02750	e0823003	 add         r3, r2, r3
  02754	e58d3010	 str         r3, [sp, #0x10]

; 998  :                 break;

  02758	ea00006c	 b           |$LN13@WrappedEmu|
  0275c		 |$LN8@WrappedEmu|

; 999  : 
; 1000 :             case 4:
; 1001 :                 bounds.right = lineParameters->xStart + 1;

  0275c	e59d3044	 ldr         r3, [sp, #0x44]
  02760	e2833004	 add         r3, r3, #4
  02764	e5933000	 ldr         r3, [r3]
  02768	e2833001	 add         r3, r3, #1
  0276c	e58d300c	 str         r3, [sp, #0xC]

; 1002 :                 bounds.bottom = lineParameters->yStart + 1;

  02770	e59d3044	 ldr         r3, [sp, #0x44]
  02774	e2833008	 add         r3, r3, #8
  02778	e5933000	 ldr         r3, [r3]
  0277c	e2833001	 add         r3, r3, #1
  02780	e58d3010	 str         r3, [sp, #0x10]

; 1003 :                 bounds.left = lineParameters->xStart - lineParameters->cPels;

  02784	e59d3044	 ldr         r3, [sp, #0x44]
  02788	e2832004	 add         r2, r3, #4
  0278c	e59d3044	 ldr         r3, [sp, #0x44]
  02790	e283300c	 add         r3, r3, #0xC
  02794	e5922000	 ldr         r2, [r2]
  02798	e5933000	 ldr         r3, [r3]
  0279c	e0423003	 sub         r3, r2, r3
  027a0	e58d3004	 str         r3, [sp, #4]

; 1004 :                 bounds.top = bounds.bottom - N_plus_1;

  027a4	e59d2010	 ldr         r2, [sp, #0x10]
  027a8	e59d3000	 ldr         r3, [sp]
  027ac	e0423003	 sub         r3, r2, r3
  027b0	e58d3008	 str         r3, [sp, #8]

; 1005 :                 break;

  027b4	ea000055	 b           |$LN13@WrappedEmu|
  027b8		 |$LN7@WrappedEmu|

; 1006 : 
; 1007 :             case 5:
; 1008 :                 bounds.right = lineParameters->xStart + 1;

  027b8	e59d3044	 ldr         r3, [sp, #0x44]
  027bc	e2833004	 add         r3, r3, #4
  027c0	e5933000	 ldr         r3, [r3]
  027c4	e2833001	 add         r3, r3, #1
  027c8	e58d300c	 str         r3, [sp, #0xC]

; 1009 :                 bounds.bottom = lineParameters->yStart + 1;

  027cc	e59d3044	 ldr         r3, [sp, #0x44]
  027d0	e2833008	 add         r3, r3, #8
  027d4	e5933000	 ldr         r3, [r3]
  027d8	e2833001	 add         r3, r3, #1
  027dc	e58d3010	 str         r3, [sp, #0x10]

; 1010 :                 bounds.top = lineParameters->yStart - lineParameters->cPels;

  027e0	e59d3044	 ldr         r3, [sp, #0x44]
  027e4	e2832008	 add         r2, r3, #8
  027e8	e59d3044	 ldr         r3, [sp, #0x44]
  027ec	e283300c	 add         r3, r3, #0xC
  027f0	e5922000	 ldr         r2, [r2]
  027f4	e5933000	 ldr         r3, [r3]
  027f8	e0423003	 sub         r3, r2, r3
  027fc	e58d3008	 str         r3, [sp, #8]

; 1011 :                 bounds.left = bounds.right - N_plus_1;

  02800	e59d200c	 ldr         r2, [sp, #0xC]
  02804	e59d3000	 ldr         r3, [sp]
  02808	e0423003	 sub         r3, r2, r3
  0280c	e58d3004	 str         r3, [sp, #4]

; 1012 :                 break;

  02810	ea00003e	 b           |$LN13@WrappedEmu|
  02814		 |$LN6@WrappedEmu|

; 1013 : 
; 1014 :             case 6:
; 1015 :                 bounds.left = lineParameters->xStart;

  02814	e59d3044	 ldr         r3, [sp, #0x44]
  02818	e2833004	 add         r3, r3, #4
  0281c	e5933000	 ldr         r3, [r3]
  02820	e58d3004	 str         r3, [sp, #4]

; 1016 :                 bounds.bottom = lineParameters->yStart + 1;

  02824	e59d3044	 ldr         r3, [sp, #0x44]
  02828	e2833008	 add         r3, r3, #8
  0282c	e5933000	 ldr         r3, [r3]
  02830	e2833001	 add         r3, r3, #1
  02834	e58d3010	 str         r3, [sp, #0x10]

; 1017 :                 bounds.top = lineParameters->yStart - lineParameters->cPels;

  02838	e59d3044	 ldr         r3, [sp, #0x44]
  0283c	e2832008	 add         r2, r3, #8
  02840	e59d3044	 ldr         r3, [sp, #0x44]
  02844	e283300c	 add         r3, r3, #0xC
  02848	e5922000	 ldr         r2, [r2]
  0284c	e5933000	 ldr         r3, [r3]
  02850	e0423003	 sub         r3, r2, r3
  02854	e58d3008	 str         r3, [sp, #8]

; 1018 :                 bounds.right = bounds.left + N_plus_1;

  02858	e59d2004	 ldr         r2, [sp, #4]
  0285c	e59d3000	 ldr         r3, [sp]
  02860	e0823003	 add         r3, r2, r3
  02864	e58d300c	 str         r3, [sp, #0xC]

; 1019 :                 break;

  02868	ea000028	 b           |$LN13@WrappedEmu|
  0286c		 |$LN5@WrappedEmu|

; 1020 : 
; 1021 :             case 7:
; 1022 :                 bounds.left = lineParameters->xStart;

  0286c	e59d3044	 ldr         r3, [sp, #0x44]
  02870	e2833004	 add         r3, r3, #4
  02874	e5933000	 ldr         r3, [r3]
  02878	e58d3004	 str         r3, [sp, #4]

; 1023 :                 bounds.bottom = lineParameters->yStart + 1;

  0287c	e59d3044	 ldr         r3, [sp, #0x44]
  02880	e2833008	 add         r3, r3, #8
  02884	e5933000	 ldr         r3, [r3]
  02888	e2833001	 add         r3, r3, #1
  0288c	e58d3010	 str         r3, [sp, #0x10]

; 1024 :                 bounds.right = lineParameters->xStart + lineParameters->cPels + 1;

  02890	e59d3044	 ldr         r3, [sp, #0x44]
  02894	e2832004	 add         r2, r3, #4
  02898	e59d3044	 ldr         r3, [sp, #0x44]
  0289c	e283300c	 add         r3, r3, #0xC
  028a0	e5922000	 ldr         r2, [r2]
  028a4	e5933000	 ldr         r3, [r3]
  028a8	e0823003	 add         r3, r2, r3
  028ac	e2833001	 add         r3, r3, #1
  028b0	e58d300c	 str         r3, [sp, #0xC]

; 1025 :                 bounds.top = bounds.bottom - N_plus_1;

  028b4	e59d2010	 ldr         r2, [sp, #0x10]
  028b8	e59d3000	 ldr         r3, [sp]
  028bc	e0423003	 sub         r3, r2, r3
  028c0	e58d3008	 str         r3, [sp, #8]

; 1026 :                 break;

  028c4	ea000011	 b           |$LN13@WrappedEmu|
  028c8		 |$LN4@WrappedEmu|

; 1027 : 
; 1028 :             default:
; 1029 :                 DEBUGMSG(GPE_ZONE_ERROR,(L"OMAPDDGPE::WrappedEmulatedLine: "
; 1030 :                     L"Invalid direction: %d\r\n", lineParameters->iDir
; 1031 :                 ));

  028c8	e59f3170	 ldr         r3, [pc, #0x170]
  028cc	e5933440	 ldr         r3, [r3, #0x440]
  028d0	e3130001	 tst         r3, #1
  028d4	0a000007	 beq         |$LN20@WrappedEmu|
  028d8	e59d3044	 ldr         r3, [sp, #0x44]
  028dc	e283301c	 add         r3, r3, #0x1C
  028e0	e5931000	 ldr         r1, [r3]
  028e4	e59f0150	 ldr         r0, [pc, #0x150]
  028e8	eb000000	 bl          NKDbgPrintfW
  028ec	e3a03001	 mov         r3, #1
  028f0	e58d3030	 str         r3, [sp, #0x30]
  028f4	ea000001	 b           |$LN21@WrappedEmu|
  028f8		 |$LN20@WrappedEmu|
  028f8	e3a03000	 mov         r3, #0
  028fc	e58d3030	 str         r3, [sp, #0x30]
  02900		 |$LN21@WrappedEmu|

; 1032 :                 sc = E_INVALIDARG;

  02900	e59f3130	 ldr         r3, [pc, #0x130]
  02904	e58d3014	 str         r3, [sp, #0x14]
  02908	ea000044	 b           |$LN3@WrappedEmu|

; 1033 :                 goto cleanUp;

  0290c	ea000043	 b           |$cleanUp$42483|
  02910		 |$LN13@WrappedEmu|

; 1034 :         }
; 1035 : 
; 1036 :         // If line overlap cursor, turn if off
; 1037 :         RECTL cursorRect = m_cursorRect;

  02910	e59d3040	 ldr         r3, [sp, #0x40]
  02914	e2831f56	 add         r1, r3, #0x56, 30
  02918	e28d0018	 add         r0, sp, #0x18
  0291c	e3a02010	 mov         r2, #0x10
  02920	eb000000	 bl          memcpy

; 1038 :         RotateRectl(&cursorRect);

  02924	e28d1018	 add         r1, sp, #0x18
  02928	e59d0040	 ldr         r0, [sp, #0x40]
  0292c	eb000000	 bl          |?RotateRectl@GPE@@QAAXPAU_RECTL@@@Z|

; 1039 : 
; 1040 :         if (cursorRect.top < bounds.bottom && 
; 1041 :             cursorRect.bottom > bounds.top &&
; 1042 :             cursorRect.left < bounds.right && 
; 1043 :             cursorRect.right > bounds.left
; 1044 :         ) 

  02930	e59d201c	 ldr         r2, [sp, #0x1C]
  02934	e59d3010	 ldr         r3, [sp, #0x10]
  02938	e1520003	 cmp         r2, r3
  0293c	aa000011	 bge         |$LN2@WrappedEmu|
  02940	e59d2024	 ldr         r2, [sp, #0x24]
  02944	e59d3008	 ldr         r3, [sp, #8]
  02948	e1520003	 cmp         r2, r3
  0294c	da00000d	 ble         |$LN2@WrappedEmu|
  02950	e59d2018	 ldr         r2, [sp, #0x18]
  02954	e59d300c	 ldr         r3, [sp, #0xC]
  02958	e1520003	 cmp         r2, r3
  0295c	aa000009	 bge         |$LN2@WrappedEmu|
  02960	e59d2020	 ldr         r2, [sp, #0x20]
  02964	e59d3004	 ldr         r3, [sp, #4]
  02968	e1520003	 cmp         r2, r3
  0296c	da000005	 ble         |$LN2@WrappedEmu|

; 1045 :         { 
; 1046 :             CursorOff();

  02970	e59d0040	 ldr         r0, [sp, #0x40]
  02974	eb000000	 bl          |?CursorOff@OMAPDDGPE@@QAAXXZ|

; 1047 :             m_cursorForcedOff = TRUE;

  02978	e59d3040	 ldr         r3, [sp, #0x40]
  0297c	e2832f55	 add         r2, r3, #0x55, 30
  02980	e3a03001	 mov         r3, #1
  02984	e5823000	 str         r3, [r2]
  02988		 |$LN2@WrappedEmu|
  02988		 |$LN17@WrappedEmu|

; 1048 :         }            
; 1049 :     }
; 1050 : 
; 1051 :     Unlock();

  02988	e59d3040	 ldr         r3, [sp, #0x40]
  0298c	e5933000	 ldr         r3, [r3]
  02990	e28330f0	 add         r3, r3, #0xF0
  02994	e59d0040	 ldr         r0, [sp, #0x40]
  02998	e5933000	 ldr         r3, [r3]
  0299c	e1a0e00f	 mov         lr, pc
  029a0	e12fff13	 bx          r3

; 1052 :     
; 1053 :     // Do emulated line
; 1054 :     sc = EmulatedLine(lineParameters);

  029a4	e59d1044	 ldr         r1, [sp, #0x44]
  029a8	e59d0040	 ldr         r0, [sp, #0x40]
  029ac	eb000000	 bl          |?EmulatedLine@GPE@@QAAJPAUGPELineParms@@@Z|
  029b0	e58d0034	 str         r0, [sp, #0x34]
  029b4	e59d3034	 ldr         r3, [sp, #0x34]
  029b8	e58d3014	 str         r3, [sp, #0x14]

; 1055 : 
; 1056 :     // If cursor was forced off turn it back on
; 1057 :     if (m_cursorForcedOff) 

  029bc	e59d3040	 ldr         r3, [sp, #0x40]
  029c0	e2833f55	 add         r3, r3, #0x55, 30
  029c4	e5933000	 ldr         r3, [r3]
  029c8	e3530000	 cmp         r3, #0
  029cc	0a000013	 beq         |$LN1@WrappedEmu|

; 1058 :     {
; 1059 :         m_cursorForcedOff = FALSE;

  029d0	e59d3040	 ldr         r3, [sp, #0x40]
  029d4	e2832f55	 add         r2, r3, #0x55, 30
  029d8	e3a03000	 mov         r3, #0
  029dc	e5823000	 str         r3, [r2]

; 1060 :         Lock();

  029e0	e59d3040	 ldr         r3, [sp, #0x40]
  029e4	e5933000	 ldr         r3, [r3]
  029e8	e28330ec	 add         r3, r3, #0xEC
  029ec	e59d0040	 ldr         r0, [sp, #0x40]
  029f0	e5933000	 ldr         r3, [r3]
  029f4	e1a0e00f	 mov         lr, pc
  029f8	e12fff13	 bx          r3

; 1061 :         CursorOn();

  029fc	e59d0040	 ldr         r0, [sp, #0x40]
  02a00	eb000000	 bl          |?CursorOn@OMAPDDGPE@@QAAXXZ|

; 1062 :         Unlock();

  02a04	e59d3040	 ldr         r3, [sp, #0x40]
  02a08	e5933000	 ldr         r3, [r3]
  02a0c	e28330f0	 add         r3, r3, #0xF0
  02a10	e59d0040	 ldr         r0, [sp, #0x40]
  02a14	e5933000	 ldr         r3, [r3]
  02a18	e1a0e00f	 mov         lr, pc
  02a1c	e12fff13	 bx          r3
  02a20		 |$LN1@WrappedEmu|
  02a20		 |$LN3@WrappedEmu|
  02a20		 |$cleanUp$42483|

; 1063 :     }
; 1064 : 
; 1065 : cleanUp:
; 1066 :     return sc;

  02a20	e59d3014	 ldr         r3, [sp, #0x14]
  02a24	e58d3028	 str         r3, [sp, #0x28]

; 1067 : }

  02a28	e59d0028	 ldr         r0, [sp, #0x28]
  02a2c	e28dd038	 add         sp, sp, #0x38
  02a30	e89d6000	 ldmia       sp, {sp, lr}
  02a34	e12fff1e	 bx          lr
  02a38		 |$LN35@WrappedEmu|
  02a38		 |$LN36@WrappedEmu|
  02a38	80070057	 DCD         0x80070057
  02a3c		 |$LN37@WrappedEmu|
  02a3c	00000000	 DCD         |??_C@_1HA@OCEFLDPL@?$AAO?$AAM?$AAA?$AAP?$AAD?$AAD?$AAG?$AAP?$AAE?$AA?3?$AA?3?$AAW?$AAr?$AAa?$AAp?$AAp?$AAe?$AAd?$AAE?$AAm?$AAu?$AAl?$AAa?$AAt?$AAe?$AAd?$AAL?$AAi?$AAn?$AAe?$AA?3?$AA?5@|
  02a40		 |$LN38@WrappedEmu|
  02a40	00000000	 DCD         |dpCurSettings|
  02a44		 |$M43619|

			 ENDP  ; |?WrappedEmulatedLine@OMAPDDGPE@@AAAJPAUGPELineParms@@@Z|, OMAPDDGPE::WrappedEmulatedLine

	EXPORT	|??_C@_1CE@GIIPMDEG@?$AAO?$AAM?$AAA?$AAP?$AAD?$AAD?$AAG?$AAP?$AAE?$AA?3?$AA?3?$AAL?$AAi?$AAn?$AAe?$AA?$AN?$AA?6?$AA?$AA@| [ DATA ] ; `string'

  00098			 AREA	 |.pdata|, PDATA
|$T43633| DCD	|$LN13@Line|
	DCD	0x40002e04

  00000			 AREA	 |.rdata|, DATA, READONLY
|??_C@_1CE@GIIPMDEG@?$AAO?$AAM?$AAA?$AAP?$AAD?$AAD?$AAG?$AAP?$AAE?$AA?3?$AA?3?$AAL?$AAi?$AAn?$AAe?$AA?$AN?$AA?6?$AA?$AA@| DCB "O"
	DCB	0x0, "M", 0x0, "A", 0x0, "P", 0x0, "D", 0x0, "D", 0x0, "G"
	DCB	0x0, "P", 0x0, "E", 0x0, ":", 0x0, ":", 0x0, "L", 0x0, "i"
	DCB	0x0, "n", 0x0, "e", 0x0, 0xd, 0x0, 0xa, 0x0, 0x0, 0x0 ; `string'
; Function compile flags: /Odtp

  02a44			 AREA	 |.text|, CODE, ARM

  02a44		 |?Line@OMAPDDGPE@@UAAJPAUGPELineParms@@W4EGPEPhase@@@Z| PROC ; OMAPDDGPE::Line

; 1076 : {

  02a44		 |$LN13@Line|
  02a44	e1a0c00d	 mov         r12, sp
  02a48	e92d0007	 stmdb       sp!, {r0 - r2}
  02a4c	e92d5000	 stmdb       sp!, {r12, lr}
  02a50	e24dd008	 sub         sp, sp, #8
  02a54		 |$M43630|

; 1077 :     DEBUGMSG (GPE_ZONE_LINE, (TEXT("OMAPDDGPE::Line\r\n")));

  02a54	e59f309c	 ldr         r3, [pc, #0x9C]
  02a58	e5933440	 ldr         r3, [r3, #0x440]
  02a5c	e3130b01	 tst         r3, #1, 22
  02a60	0a000004	 beq         |$LN9@Line|
  02a64	e59f0088	 ldr         r0, [pc, #0x88]
  02a68	eb000000	 bl          NKDbgPrintfW
  02a6c	e3a03001	 mov         r3, #1
  02a70	e58d3004	 str         r3, [sp, #4]
  02a74	ea000001	 b           |$LN10@Line|
  02a78		 |$LN9@Line|
  02a78	e3a03000	 mov         r3, #0
  02a7c	e58d3004	 str         r3, [sp, #4]
  02a80		 |$LN10@Line|

; 1078 : 
; 1079 :     if (phase == gpeSingle || phase == gpePrepare)

  02a80	e59d3018	 ldr         r3, [sp, #0x18]
  02a84	e3530000	 cmp         r3, #0
  02a88	0a000002	 beq         |$LN5@Line|
  02a8c	e59d3018	 ldr         r3, [sp, #0x18]
  02a90	e3530001	 cmp         r3, #1
  02a94	1a00000e	 bne         |$LN6@Line|
  02a98		 |$LN5@Line|

; 1080 :     {
; 1081 :         DispPerfStart (ROP_LINE);
; 1082 : 
; 1083 :         if (lineParameters->pDst != m_pPrimarySurface)

  02a98	e59d3014	 ldr         r3, [sp, #0x14]
  02a9c	e2832028	 add         r2, r3, #0x28
  02aa0	e59d3010	 ldr         r3, [sp, #0x10]
  02aa4	e2833004	 add         r3, r3, #4
  02aa8	e5922000	 ldr         r2, [r2]
  02aac	e5933000	 ldr         r3, [r3]
  02ab0	e1520003	 cmp         r2, r3
  02ab4	0a000003	 beq         |$LN4@Line|

; 1084 :         {
; 1085 :             lineParameters->pLine = &GPE::EmulatedLine;

  02ab8	e59f2030	 ldr         r2, [pc, #0x30]
  02abc	e59d3014	 ldr         r3, [sp, #0x14]
  02ac0	e5832000	 str         r2, [r3]

; 1086 :         }
; 1087 :         else

  02ac4	ea000002	 b           |$LN3@Line|
  02ac8		 |$LN4@Line|

; 1088 :         {
; 1089 :             lineParameters->pLine = (SCODE (GPE::*)(struct GPELineParms *))&OMAPDDGPE::WrappedEmulatedLine;

  02ac8	e59f201c	 ldr         r2, [pc, #0x1C]
  02acc	e59d3014	 ldr         r3, [sp, #0x14]
  02ad0	e5832000	 str         r2, [r3]
  02ad4		 |$LN3@Line|
  02ad4		 |$LN6@Line|

; 1090 :         }
; 1091 :     }
; 1092 :     else if (phase == gpeComplete)
; 1093 :     {
; 1094 :         DispPerfEnd (0);
