; Listing generated by Microsoft (R) Optimizing Compiler Version 14.01.60511.01 

	TTL	C:\WINCE600\PLATFORM\COMMON\SRC\SOC\COMMON_TI_V1\AM3517\USB\USBOTG\usbotgpdd.cpp
	CODE32

  00000			 AREA	 |.drectve|, DRECTVE
	DCB	"-defaultlib:LIBCMT "
	DCB	"-defaultlib:OLDNAMES "

	EXPORT	|??_C@_1BM@HMKOMOIP@?$AAU?$AAS?$AAB?$AAO?$AAT?$AAG?$AA_?$AAb?$AA_?$AAh?$AAo?$AAs?$AAt?$AA?$AA@| [ DATA ] ; `string'
	EXPORT	|??_C@_1CG@GIBBLIFM@?$AAU?$AAS?$AAB?$AAO?$AAT?$AAG?$AA_?$AAb?$AA_?$AAw?$AAa?$AAi?$AAt?$AA_?$AAa?$AAc?$AAo?$AAn?$AA?$AA@| [ DATA ] ; `string'
	EXPORT	|??_C@_1CI@KIMGJPDD@?$AAU?$AAS?$AAB?$AAO?$AAT?$AAG?$AA_?$AAb?$AA_?$AAp?$AAe?$AAr?$AAi?$AAp?$AAh?$AAe?$AAr?$AAa?$AAl?$AA?$AA@| [ DATA ] ; `string'
	EXPORT	|??_C@_1CE@DODPDAG@?$AAU?$AAS?$AAB?$AAO?$AAT?$AAG?$AA_?$AAb?$AA_?$AAs?$AAr?$AAp?$AA_?$AAi?$AAn?$AAi?$AAt?$AA?$AA@| [ DATA ] ; `string'
	EXPORT	|??_C@_1BM@NECDDJFD@?$AAU?$AAS?$AAB?$AAO?$AAT?$AAG?$AA_?$AAb?$AA_?$AAi?$AAd?$AAl?$AAe?$AA?$AA@| [ DATA ] ; `string'
	EXPORT	|??_C@_1CE@NFCDLKIG@?$AAU?$AAS?$AAB?$AAO?$AAT?$AAG?$AA_?$AAa?$AA_?$AAv?$AAb?$AAu?$AAs?$AA_?$AAe?$AAr?$AAr?$AA?$AA@| [ DATA ] ; `string'
	EXPORT	|??_C@_1CI@JGPIJILK@?$AAU?$AAS?$AAB?$AAO?$AAT?$AAG?$AA_?$AAa?$AA_?$AAw?$AAa?$AAi?$AAt?$AA_?$AAv?$AAf?$AAa?$AAl?$AAl?$AA?$AA@| [ DATA ] ; `string'
	EXPORT	|??_C@_1CI@FKJBHCML@?$AAU?$AAS?$AAB?$AAO?$AAT?$AAG?$AA_?$AAa?$AA_?$AAp?$AAe?$AAr?$AAi?$AAp?$AAh?$AAe?$AAr?$AAa?$AAl?$AA?$AA@| [ DATA ] ; `string'
	EXPORT	|??_C@_1CC@PJBGLBHA@?$AAU?$AAS?$AAB?$AAO?$AAT?$AAG?$AA_?$AAa?$AA_?$AAs?$AAu?$AAs?$AAp?$AAe?$AAn?$AAd?$AA?$AA@| [ DATA ] ; `string'
	EXPORT	|??_C@_1BM@MPOLFE@?$AAU?$AAS?$AAB?$AAO?$AAT?$AAG?$AA_?$AAa?$AA_?$AAh?$AAo?$AAs?$AAt?$AA?$AA@| [ DATA ] ; `string'
	EXPORT	|??_C@_1CG@NLDIKKHH@?$AAU?$AAS?$AAB?$AAO?$AAT?$AAG?$AA_?$AAa?$AA_?$AAw?$AAa?$AAi?$AAt?$AA_?$AAb?$AAc?$AAo?$AAn?$AA?$AA@| [ DATA ] ; `string'
	EXPORT	|??_C@_1CI@OENAFNFJ@?$AAU?$AAS?$AAB?$AAO?$AAT?$AAG?$AA_?$AAa?$AA_?$AAw?$AAa?$AAi?$AAt?$AA_?$AAv?$AAr?$AAi?$AAs?$AAe?$AA?$AA@| [ DATA ] ; `string'
	EXPORT	|??_C@_1BM@KIECBMII@?$AAU?$AAS?$AAB?$AAO?$AAT?$AAG?$AA_?$AAa?$AA_?$AAi?$AAd?$AAl?$AAe?$AA?$AA@| [ DATA ] ; `string'
	EXPORT	|??_C@_1CM@MEEFJFCC@?$AAU?$AAS?$AAB?$AAO?$AAT?$AAG?$AA_?$AAs?$AAt?$AAa?$AAt?$AAe?$AAs?$AA_?$AAu?$AAn?$AAk?$AAn?$AAo?$AAw?$AAn?$AA?$AA@| [ DATA ] ; `string'
	EXPORT	|?g_cppOtgStateString@@3PAPBGA| [ DATA ] ; g_cppOtgStateString

  00000			 AREA	 |.data|, DATA
|?g_cppOtgStateString@@3PAPBGA| DCD |??_C@_1CM@MEEFJFCC@?$AAU?$AAS?$AAB?$AAO?$AAT?$AAG?$AA_?$AAs?$AAt?$AAa?$AAt?$AAe?$AAs?$AA_?$AAu?$AAn?$AAk?$AAn?$AAo?$AAw?$AAn?$AA?$AA@| ; g_cppOtgStateString
	DCD	|??_C@_1BM@KIECBMII@?$AAU?$AAS?$AAB?$AAO?$AAT?$AAG?$AA_?$AAa?$AA_?$AAi?$AAd?$AAl?$AAe?$AA?$AA@|
	DCD	|??_C@_1CI@OENAFNFJ@?$AAU?$AAS?$AAB?$AAO?$AAT?$AAG?$AA_?$AAa?$AA_?$AAw?$AAa?$AAi?$AAt?$AA_?$AAv?$AAr?$AAi?$AAs?$AAe?$AA?$AA@|
	DCD	|??_C@_1CG@NLDIKKHH@?$AAU?$AAS?$AAB?$AAO?$AAT?$AAG?$AA_?$AAa?$AA_?$AAw?$AAa?$AAi?$AAt?$AA_?$AAb?$AAc?$AAo?$AAn?$AA?$AA@|
	DCD	|??_C@_1BM@MPOLFE@?$AAU?$AAS?$AAB?$AAO?$AAT?$AAG?$AA_?$AAa?$AA_?$AAh?$AAo?$AAs?$AAt?$AA?$AA@|
	DCD	|??_C@_1CC@PJBGLBHA@?$AAU?$AAS?$AAB?$AAO?$AAT?$AAG?$AA_?$AAa?$AA_?$AAs?$AAu?$AAs?$AAp?$AAe?$AAn?$AAd?$AA?$AA@|
	DCD	|??_C@_1CI@FKJBHCML@?$AAU?$AAS?$AAB?$AAO?$AAT?$AAG?$AA_?$AAa?$AA_?$AAp?$AAe?$AAr?$AAi?$AAp?$AAh?$AAe?$AAr?$AAa?$AAl?$AA?$AA@|
	DCD	|??_C@_1CI@JGPIJILK@?$AAU?$AAS?$AAB?$AAO?$AAT?$AAG?$AA_?$AAa?$AA_?$AAw?$AAa?$AAi?$AAt?$AA_?$AAv?$AAf?$AAa?$AAl?$AAl?$AA?$AA@|
	DCD	|??_C@_1CE@NFCDLKIG@?$AAU?$AAS?$AAB?$AAO?$AAT?$AAG?$AA_?$AAa?$AA_?$AAv?$AAb?$AAu?$AAs?$AA_?$AAe?$AAr?$AAr?$AA?$AA@|
	DCD	|??_C@_1BM@NECDDJFD@?$AAU?$AAS?$AAB?$AAO?$AAT?$AAG?$AA_?$AAb?$AA_?$AAi?$AAd?$AAl?$AAe?$AA?$AA@|
	DCD	|??_C@_1CE@DODPDAG@?$AAU?$AAS?$AAB?$AAO?$AAT?$AAG?$AA_?$AAb?$AA_?$AAs?$AAr?$AAp?$AA_?$AAi?$AAn?$AAi?$AAt?$AA?$AA@|
	DCD	|??_C@_1CI@KIMGJPDD@?$AAU?$AAS?$AAB?$AAO?$AAT?$AAG?$AA_?$AAb?$AA_?$AAp?$AAe?$AAr?$AAi?$AAp?$AAh?$AAe?$AAr?$AAa?$AAl?$AA?$AA@|
	DCD	|??_C@_1CG@GIBBLIFM@?$AAU?$AAS?$AAB?$AAO?$AAT?$AAG?$AA_?$AAb?$AA_?$AAw?$AAa?$AAi?$AAt?$AA_?$AAa?$AAc?$AAo?$AAn?$AA?$AA@|
	DCD	|??_C@_1BM@HMKOMOIP@?$AAU?$AAS?$AAB?$AAO?$AAT?$AAG?$AA_?$AAb?$AA_?$AAh?$AAo?$AAs?$AAt?$AA?$AA@|

  00000			 AREA	 |.rdata|, DATA, READONLY
|??_C@_1BM@HMKOMOIP@?$AAU?$AAS?$AAB?$AAO?$AAT?$AAG?$AA_?$AAb?$AA_?$AAh?$AAo?$AAs?$AAt?$AA?$AA@| DCB "U"
	DCB	0x0, "S", 0x0, "B", 0x0, "O", 0x0, "T", 0x0, "G", 0x0, "_"
	DCB	0x0, "b", 0x0, "_", 0x0, "h", 0x0, "o", 0x0, "s", 0x0, "t"
	DCB	0x0, 0x0, 0x0				; `string'

  00000			 AREA	 |.rdata|, DATA, READONLY
|??_C@_1CG@GIBBLIFM@?$AAU?$AAS?$AAB?$AAO?$AAT?$AAG?$AA_?$AAb?$AA_?$AAw?$AAa?$AAi?$AAt?$AA_?$AAa?$AAc?$AAo?$AAn?$AA?$AA@| DCB "U"
	DCB	0x0, "S", 0x0, "B", 0x0, "O", 0x0, "T", 0x0, "G", 0x0, "_"
	DCB	0x0, "b", 0x0, "_", 0x0, "w", 0x0, "a", 0x0, "i", 0x0, "t"
	DCB	0x0, "_", 0x0, "a", 0x0, "c", 0x0, "o", 0x0, "n", 0x0, 0x0
	DCB	0x0					; `string'

  00000			 AREA	 |.rdata|, DATA, READONLY
|??_C@_1CI@KIMGJPDD@?$AAU?$AAS?$AAB?$AAO?$AAT?$AAG?$AA_?$AAb?$AA_?$AAp?$AAe?$AAr?$AAi?$AAp?$AAh?$AAe?$AAr?$AAa?$AAl?$AA?$AA@| DCB "U"
	DCB	0x0, "S", 0x0, "B", 0x0, "O", 0x0, "T", 0x0, "G", 0x0, "_"
	DCB	0x0, "b", 0x0, "_", 0x0, "p", 0x0, "e", 0x0, "r", 0x0, "i"
	DCB	0x0, "p", 0x0, "h", 0x0, "e", 0x0, "r", 0x0, "a", 0x0, "l"
	DCB	0x0, 0x0, 0x0				; `string'

  00000			 AREA	 |.rdata|, DATA, READONLY
|??_C@_1CE@DODPDAG@?$AAU?$AAS?$AAB?$AAO?$AAT?$AAG?$AA_?$AAb?$AA_?$AAs?$AAr?$AAp?$AA_?$AAi?$AAn?$AAi?$AAt?$AA?$AA@| DCB "U"
	DCB	0x0, "S", 0x0, "B", 0x0, "O", 0x0, "T", 0x0, "G", 0x0, "_"
	DCB	0x0, "b", 0x0, "_", 0x0, "s", 0x0, "r", 0x0, "p", 0x0, "_"
	DCB	0x0, "i", 0x0, "n", 0x0, "i", 0x0, "t", 0x0, 0x0, 0x0 ; `string'

  00000			 AREA	 |.rdata|, DATA, READONLY
|??_C@_1BM@NECDDJFD@?$AAU?$AAS?$AAB?$AAO?$AAT?$AAG?$AA_?$AAb?$AA_?$AAi?$AAd?$AAl?$AAe?$AA?$AA@| DCB "U"
	DCB	0x0, "S", 0x0, "B", 0x0, "O", 0x0, "T", 0x0, "G", 0x0, "_"
	DCB	0x0, "b", 0x0, "_", 0x0, "i", 0x0, "d", 0x0, "l", 0x0, "e"
	DCB	0x0, 0x0, 0x0				; `string'

  00000			 AREA	 |.rdata|, DATA, READONLY
|??_C@_1CE@NFCDLKIG@?$AAU?$AAS?$AAB?$AAO?$AAT?$AAG?$AA_?$AAa?$AA_?$AAv?$AAb?$AAu?$AAs?$AA_?$AAe?$AAr?$AAr?$AA?$AA@| DCB "U"
	DCB	0x0, "S", 0x0, "B", 0x0, "O", 0x0, "T", 0x0, "G", 0x0, "_"
	DCB	0x0, "a", 0x0, "_", 0x0, "v", 0x0, "b", 0x0, "u", 0x0, "s"
	DCB	0x0, "_", 0x0, "e", 0x0, "r", 0x0, "r", 0x0, 0x0, 0x0 ; `string'

  00000			 AREA	 |.rdata|, DATA, READONLY
|??_C@_1CI@JGPIJILK@?$AAU?$AAS?$AAB?$AAO?$AAT?$AAG?$AA_?$AAa?$AA_?$AAw?$AAa?$AAi?$AAt?$AA_?$AAv?$AAf?$AAa?$AAl?$AAl?$AA?$AA@| DCB "U"
	DCB	0x0, "S", 0x0, "B", 0x0, "O", 0x0, "T", 0x0, "G", 0x0, "_"
	DCB	0x0, "a", 0x0, "_", 0x0, "w", 0x0, "a", 0x0, "i", 0x0, "t"
	DCB	0x0, "_", 0x0, "v", 0x0, "f", 0x0, "a", 0x0, "l", 0x0, "l"
	DCB	0x0, 0x0, 0x0				; `string'

  00000			 AREA	 |.rdata|, DATA, READONLY
|??_C@_1CI@FKJBHCML@?$AAU?$AAS?$AAB?$AAO?$AAT?$AAG?$AA_?$AAa?$AA_?$AAp?$AAe?$AAr?$AAi?$AAp?$AAh?$AAe?$AAr?$AAa?$AAl?$AA?$AA@| DCB "U"
	DCB	0x0, "S", 0x0, "B", 0x0, "O", 0x0, "T", 0x0, "G", 0x0, "_"
	DCB	0x0, "a", 0x0, "_", 0x0, "p", 0x0, "e", 0x0, "r", 0x0, "i"
	DCB	0x0, "p", 0x0, "h", 0x0, "e", 0x0, "r", 0x0, "a", 0x0, "l"
	DCB	0x0, 0x0, 0x0				; `string'

  00000			 AREA	 |.rdata|, DATA, READONLY
|??_C@_1CC@PJBGLBHA@?$AAU?$AAS?$AAB?$AAO?$AAT?$AAG?$AA_?$AAa?$AA_?$AAs?$AAu?$AAs?$AAp?$AAe?$AAn?$AAd?$AA?$AA@| DCB "U"
	DCB	0x0, "S", 0x0, "B", 0x0, "O", 0x0, "T", 0x0, "G", 0x0, "_"
	DCB	0x0, "a", 0x0, "_", 0x0, "s", 0x0, "u", 0x0, "s", 0x0, "p"
	DCB	0x0, "e", 0x0, "n", 0x0, "d", 0x0, 0x0, 0x0 ; `string'

  00000			 AREA	 |.rdata|, DATA, READONLY
|??_C@_1BM@MPOLFE@?$AAU?$AAS?$AAB?$AAO?$AAT?$AAG?$AA_?$AAa?$AA_?$AAh?$AAo?$AAs?$AAt?$AA?$AA@| DCB "U"
	DCB	0x0, "S", 0x0, "B", 0x0, "O", 0x0, "T", 0x0, "G", 0x0, "_"
	DCB	0x0, "a", 0x0, "_", 0x0, "h", 0x0, "o", 0x0, "s", 0x0, "t"
	DCB	0x0, 0x0, 0x0				; `string'

  00000			 AREA	 |.rdata|, DATA, READONLY
|??_C@_1CG@NLDIKKHH@?$AAU?$AAS?$AAB?$AAO?$AAT?$AAG?$AA_?$AAa?$AA_?$AAw?$AAa?$AAi?$AAt?$AA_?$AAb?$AAc?$AAo?$AAn?$AA?$AA@| DCB "U"
	DCB	0x0, "S", 0x0, "B", 0x0, "O", 0x0, "T", 0x0, "G", 0x0, "_"
	DCB	0x0, "a", 0x0, "_", 0x0, "w", 0x0, "a", 0x0, "i", 0x0, "t"
	DCB	0x0, "_", 0x0, "b", 0x0, "c", 0x0, "o", 0x0, "n", 0x0, 0x0
	DCB	0x0					; `string'

  00000			 AREA	 |.rdata|, DATA, READONLY
|??_C@_1CI@OENAFNFJ@?$AAU?$AAS?$AAB?$AAO?$AAT?$AAG?$AA_?$AAa?$AA_?$AAw?$AAa?$AAi?$AAt?$AA_?$AAv?$AAr?$AAi?$AAs?$AAe?$AA?$AA@| DCB "U"
	DCB	0x0, "S", 0x0, "B", 0x0, "O", 0x0, "T", 0x0, "G", 0x0, "_"
	DCB	0x0, "a", 0x0, "_", 0x0, "w", 0x0, "a", 0x0, "i", 0x0, "t"
	DCB	0x0, "_", 0x0, "v", 0x0, "r", 0x0, "i", 0x0, "s", 0x0, "e"
	DCB	0x0, 0x0, 0x0				; `string'

  00000			 AREA	 |.rdata|, DATA, READONLY
|??_C@_1BM@KIECBMII@?$AAU?$AAS?$AAB?$AAO?$AAT?$AAG?$AA_?$AAa?$AA_?$AAi?$AAd?$AAl?$AAe?$AA?$AA@| DCB "U"
	DCB	0x0, "S", 0x0, "B", 0x0, "O", 0x0, "T", 0x0, "G", 0x0, "_"
	DCB	0x0, "a", 0x0, "_", 0x0, "i", 0x0, "d", 0x0, "l", 0x0, "e"
	DCB	0x0, 0x0, 0x0				; `string'

  00000			 AREA	 |.rdata|, DATA, READONLY
|??_C@_1CM@MEEFJFCC@?$AAU?$AAS?$AAB?$AAO?$AAT?$AAG?$AA_?$AAs?$AAt?$AAa?$AAt?$AAe?$AAs?$AA_?$AAu?$AAn?$AAk?$AAn?$AAo?$AAw?$AAn?$AA?$AA@| DCB "U"
	DCB	0x0, "S", 0x0, "B", 0x0, "O", 0x0, "T", 0x0, "G", 0x0, "_"
	DCB	0x0, "s", 0x0, "t", 0x0, "a", 0x0, "t", 0x0, "e", 0x0, "s"
	DCB	0x0, "_", 0x0, "u", 0x0, "n", 0x0, "k", 0x0, "n", 0x0, "o"
	DCB	0x0, "w", 0x0, "n", 0x0, 0x0, 0x0	; `string'
	EXPORT	|?ChipCfgLock@CAM35xOTG@@IAAXH@Z|	; CAM35xOTG::ChipCfgLock

  00000			 AREA	 |.pdata|, PDATA
|$T40519| DCD	|$LN5@ChipCfgLoc|
	DCD	0x40000503
; Function compile flags: /Odtp
; File c:\wince600\platform\common\src\soc\common_ti_v1\am3517\usb\usbotg\usbotgpdd.cpp

  00000			 AREA	 |.text|, CODE, ARM

  00000		 |?ChipCfgLock@CAM35xOTG@@IAAXH@Z| PROC	; CAM35xOTG::ChipCfgLock

; 54   : {

  00000		 |$LN5@ChipCfgLoc|
  00000	e1a0c00d	 mov         r12, sp
  00004	e92d0003	 stmdb       sp!, {r0, r1}
  00008	e92d5000	 stmdb       sp!, {r12, lr}
  0000c		 |$M40516|

; 55   : 	UNREFERENCED_PARAMETER(lock);
; 56   : 
; 57   : 	// Not available on AM3517
; 58   : }

  0000c	e89d6000	 ldmia       sp, {sp, lr}
  00010	e12fff1e	 bx          lr
  00014		 |$M40517|

			 ENDP  ; |?ChipCfgLock@CAM35xOTG@@IAAXH@Z|, CAM35xOTG::ChipCfgLock

	EXPORT	|??_C@_1DO@BDCABFA@?$AA?9?$AAC?$AAA?$AAM?$AA3?$AA5?$AAx?$AAO?$AAT?$AAG?$AA?3?$AA?3?$AAS?$AAt?$AAa?$AAr?$AAt?$AAU?$AAS?$AAB?$AAM?$AAo?$AAd?$AAu?$AAl?$AAe?$AA?$CI?$AA?$CJ?$AA?$AN?$AA?6?$AA?$AA@| [ DATA ] ; `string'
	EXPORT	|??_C@_1DO@DIIEMPC@?$AA?$CL?$AAC?$AAA?$AAM?$AA3?$AA5?$AAx?$AAO?$AAT?$AAG?$AA?3?$AA?3?$AAS?$AAt?$AAa?$AAr?$AAt?$AAU?$AAS?$AAB?$AAM?$AAo?$AAd?$AAu?$AAl?$AAe?$AA?$CI?$AA?$CJ?$AA?$AN?$AA?6?$AA?$AA@| [ DATA ] ; `string'
	EXPORT	|?StartUSBModule@CAM35xOTG@@QAAXXZ|	; CAM35xOTG::StartUSBModule
	IMPORT	|Sleep|
	IMPORT	|NKDbgPrintfW|
	IMPORT	|dpCurSettings|

  00008			 AREA	 |.pdata|, PDATA
|$T40528| DCD	|$LN11@StartUSBMo|
	DCD	0x40008204

  00000			 AREA	 |.rdata|, DATA, READONLY
|??_C@_1DO@BDCABFA@?$AA?9?$AAC?$AAA?$AAM?$AA3?$AA5?$AAx?$AAO?$AAT?$AAG?$AA?3?$AA?3?$AAS?$AAt?$AAa?$AAr?$AAt?$AAU?$AAS?$AAB?$AAM?$AAo?$AAd?$AAu?$AAl?$AAe?$AA?$CI?$AA?$CJ?$AA?$AN?$AA?6?$AA?$AA@| DCB "-"
	DCB	0x0, "C", 0x0, "A", 0x0, "M", 0x0, "3", 0x0, "5", 0x0, "x"
	DCB	0x0, "O", 0x0, "T", 0x0, "G", 0x0, ":", 0x0, ":", 0x0, "S"
	DCB	0x0, "t", 0x0, "a", 0x0, "r", 0x0, "t", 0x0, "U", 0x0, "S"
	DCB	0x0, "B", 0x0, "M", 0x0, "o", 0x0, "d", 0x0, "u", 0x0, "l"
	DCB	0x0, "e", 0x0, "(", 0x0, ")", 0x0, 0xd, 0x0, 0xa, 0x0, 0x0
	DCB	0x0					; `string'

  00000			 AREA	 |.rdata|, DATA, READONLY
|??_C@_1DO@DIIEMPC@?$AA?$CL?$AAC?$AAA?$AAM?$AA3?$AA5?$AAx?$AAO?$AAT?$AAG?$AA?3?$AA?3?$AAS?$AAt?$AAa?$AAr?$AAt?$AAU?$AAS?$AAB?$AAM?$AAo?$AAd?$AAu?$AAl?$AAe?$AA?$CI?$AA?$CJ?$AA?$AN?$AA?6?$AA?$AA@| DCB "+"
	DCB	0x0, "C", 0x0, "A", 0x0, "M", 0x0, "3", 0x0, "5", 0x0, "x"
	DCB	0x0, "O", 0x0, "T", 0x0, "G", 0x0, ":", 0x0, ":", 0x0, "S"
	DCB	0x0, "t", 0x0, "a", 0x0, "r", 0x0, "t", 0x0, "U", 0x0, "S"
	DCB	0x0, "B", 0x0, "M", 0x0, "o", 0x0, "d", 0x0, "u", 0x0, "l"
	DCB	0x0, "e", 0x0, "(", 0x0, ")", 0x0, 0xd, 0x0, 0xa, 0x0, 0x0
	DCB	0x0					; `string'
; Function compile flags: /Odtp

  00014			 AREA	 |.text|, CODE, ARM

  00014		 |?StartUSBModule@CAM35xOTG@@QAAXXZ| PROC ; CAM35xOTG::StartUSBModule

; 61   : {

  00014		 |$LN11@StartUSBMo|
  00014	e1a0c00d	 mov         r12, sp
  00018	e92d0001	 stmdb       sp!, {r0}
  0001c	e92d5000	 stmdb       sp!, {r12, lr}
  00020	e24dd00c	 sub         sp, sp, #0xC
  00024		 |$M40525|

; 62   :     DWORD nPhyCtl = 0;

  00024	e3a03000	 mov         r3, #0
  00028	e58d3000	 str         r3, [sp]

; 63   : 
; 64   :     DEBUGMSG(ZONE_OTG_FUNCTION,(TEXT("+CAM35xOTG::StartUSBModule()\r\n")));

  0002c	e59f31e0	 ldr         r3, [pc, #0x1E0]
  00030	e5933440	 ldr         r3, [r3, #0x440]
  00034	e3130a02	 tst         r3, #2, 20
  00038	0a000004	 beq         |$LN5@StartUSBMo|
  0003c	e59f01d4	 ldr         r0, [pc, #0x1D4]
  00040	eb000000	 bl          NKDbgPrintfW
  00044	e3a03001	 mov         r3, #1
  00048	e58d3004	 str         r3, [sp, #4]
  0004c	ea000001	 b           |$LN6@StartUSBMo|
  00050		 |$LN5@StartUSBMo|
  00050	e3a03000	 mov         r3, #0
  00054	e58d3004	 str         r3, [sp, #4]
  00058		 |$LN6@StartUSBMo|

; 65   : 
; 66   :     nPhyCtl = m_pSysConfRegs->CONTROL_DEVCONF2;

  00058	e59d3014	 ldr         r3, [sp, #0x14]
  0005c	e28330e8	 add         r3, r3, #0xE8
  00060	e5933000	 ldr         r3, [r3]
  00064	e2833e31	 add         r3, r3, #0x31, 28
  00068	e5933000	 ldr         r3, [r3]
  0006c	e58d3000	 str         r3, [sp]

; 67   :         
; 68   : 	// Global Reset 
; 69   : 	SETREG32(&m_pSysConfRegs->CONTROL_IP_SW_RESET, USB20OTGSS_SW_RST);

  00070	e59d3014	 ldr         r3, [sp, #0x14]
  00074	e28330e8	 add         r3, r3, #0xE8
  00078	e5933000	 ldr         r3, [r3]
  0007c	e2833fca	 add         r3, r3, #0xCA, 30
  00080	e5933000	 ldr         r3, [r3]
  00084	e3832001	 orr         r2, r3, #1
  00088	e59d3014	 ldr         r3, [sp, #0x14]
  0008c	e28330e8	 add         r3, r3, #0xE8
  00090	e5933000	 ldr         r3, [r3]
  00094	e2833fca	 add         r3, r3, #0xCA, 30
  00098	e5832000	 str         r2, [r3]

; 70   : 	Sleep(10);

  0009c	e3a0000a	 mov         r0, #0xA
  000a0	eb000000	 bl          Sleep

; 71   : 	CLRREG32(&m_pSysConfRegs->CONTROL_IP_SW_RESET, USB20OTGSS_SW_RST);

  000a4	e59d3014	 ldr         r3, [sp, #0x14]
  000a8	e28330e8	 add         r3, r3, #0xE8
  000ac	e5933000	 ldr         r3, [r3]
  000b0	e2833fca	 add         r3, r3, #0xCA, 30
  000b4	e5932000	 ldr         r2, [r3]
  000b8	e3e03001	 mvn         r3, #1
  000bc	e0022003	 and         r2, r2, r3
  000c0	e59d3014	 ldr         r3, [sp, #0x14]
  000c4	e28330e8	 add         r3, r3, #0xE8
  000c8	e5933000	 ldr         r3, [r3]
  000cc	e2833fca	 add         r3, r3, #0xCA, 30
  000d0	e5832000	 str         r2, [r3]

; 72   : 
; 73   : 	// Reset the controller
; 74   : 	SETREG32(&m_pUsbRegs->CTRLR, OTG_CONTROL_RESET);

  000d4	e59d3014	 ldr         r3, [sp, #0x14]
  000d8	e28330ec	 add         r3, r3, #0xEC
  000dc	e5933000	 ldr         r3, [r3]
  000e0	e2833004	 add         r3, r3, #4
  000e4	e5933000	 ldr         r3, [r3]
  000e8	e3832001	 orr         r2, r3, #1
  000ec	e59d3014	 ldr         r3, [sp, #0x14]
  000f0	e28330ec	 add         r3, r3, #0xEC
  000f4	e5933000	 ldr         r3, [r3]
  000f8	e2833004	 add         r3, r3, #4
  000fc	e5832000	 str         r2, [r3]

; 75   : 
; 76   : 	Sleep(10);

  00100	e3a0000a	 mov         r0, #0xA
  00104	eb000000	 bl          Sleep

; 77   : 
; 78   :     // Unlock USBPHY_CTL reg
; 79   :     ChipCfgLock(FALSE);

  00108	e3a01000	 mov         r1, #0
  0010c	e59d0014	 ldr         r0, [sp, #0x14]
  00110	eb000000	 bl          |?ChipCfgLock@CAM35xOTG@@IAAXH@Z|

; 80   : 
; 81   :     // Take Phy out of reset
; 82   :     nPhyCtl &= ~(DEVCONF2_USBOTG_PHY_RESET);

  00114	e59d2000	 ldr         r2, [sp]
  00118	e3e03010	 mvn         r3, #0x10
  0011c	e0023003	 and         r3, r2, r3
  00120	e58d3000	 str         r3, [sp]

; 83   :     m_pSysConfRegs->CONTROL_DEVCONF2 = nPhyCtl;

  00124	e59d3014	 ldr         r3, [sp, #0x14]
  00128	e28330e8	 add         r3, r3, #0xE8
  0012c	e5933000	 ldr         r3, [r3]
  00130	e2832e31	 add         r2, r3, #0x31, 28
  00134	e59d3000	 ldr         r3, [sp]
  00138	e5823000	 str         r3, [r2]

; 84   : 
; 85   :     // configure normal USB operation
; 86   :     nPhyCtl &= ~(DEVCONF2_USBOTG_OTGMODE);

  0013c	e59d2000	 ldr         r2, [sp]
  00140	e3e03903	 mvn         r3, #3, 18
  00144	e0023003	 and         r3, r2, r3
  00148	e58d3000	 str         r3, [sp]

; 87   :         
; 88   :     // Start on-chip PHY and PLL's
; 89   :     nPhyCtl |= (DEVCONF2_USBOTG_PHY_PLLON    |
; 90   : 				DEVCONF2_USBOTG_SESSENDEN    |
; 91   : 				DEVCONF2_USBOTG_VBUSDETECTEN |
; 92   : 				DEVCONF2_USBOTG_DATAPOLARITY ) ;

  0014c	e59d2000	 ldr         r2, [sp]
  00150	e3a03a03	 mov         r3, #3, 20
  00154	e3833022	 orr         r3, r3, #0x22
  00158	e1823003	 orr         r3, r2, r3
  0015c	e58d3000	 str         r3, [sp]

; 93   : 
; 94   :     nPhyCtl &= ~(DEVCONF2_USBOTG_PHY_PD		 |
; 95   : 				 DEVCONF2_USBOTG_POWERDOWNOTG);

  00160	e59d2000	 ldr         r2, [sp]
  00164	e3e0300c	 mvn         r3, #0xC
  00168	e0023003	 and         r3, r2, r3
  0016c	e58d3000	 str         r3, [sp]

; 96   : 
; 97   :     m_pSysConfRegs->CONTROL_DEVCONF2 = nPhyCtl;

  00170	e59d3014	 ldr         r3, [sp, #0x14]
  00174	e28330e8	 add         r3, r3, #0xE8
  00178	e5933000	 ldr         r3, [r3]
  0017c	e2832e31	 add         r2, r3, #0x31, 28
  00180	e59d3000	 ldr         r3, [sp]
  00184	e5823000	 str         r3, [r2]

; 98   :     Sleep(1);

  00188	e3a00001	 mov         r0, #1
  0018c	eb000000	 bl          Sleep
  00190		 |$LN2@StartUSBMo|

; 99   : 
; 100  :     // wait until ready
; 101  :     while ((m_pSysConfRegs->CONTROL_DEVCONF2 & DEVCONF2_USBOTG_PWR_CLKGOOD) != DEVCONF2_USBOTG_PWR_CLKGOOD)

  00190	e59d3014	 ldr         r3, [sp, #0x14]
  00194	e28330e8	 add         r3, r3, #0xE8
  00198	e5933000	 ldr         r3, [r3]
  0019c	e2833e31	 add         r3, r3, #0x31, 28
  001a0	e5933000	 ldr         r3, [r3]
  001a4	e2033080	 and         r3, r3, #0x80
  001a8	e3530080	 cmp         r3, #0x80
  001ac	0a000002	 beq         |$LN1@StartUSBMo|

; 102  :         Sleep(5);

  001b0	e3a00005	 mov         r0, #5
  001b4	eb000000	 bl          Sleep
  001b8	eafffff4	 b           |$LN2@StartUSBMo|
  001bc		 |$LN1@StartUSBMo|

; 103  : 
; 104  :     // Lock USBPHY_CTL reg
; 105  :     ChipCfgLock(TRUE);

  001bc	e3a01001	 mov         r1, #1
  001c0	e59d0014	 ldr         r0, [sp, #0x14]
  001c4	eb000000	 bl          |?ChipCfgLock@CAM35xOTG@@IAAXH@Z|

; 106  : 
; 107  :     // Enable USB state polling
; 108  :     m_bEnablePolling = TRUE;

  001c8	e59d3014	 ldr         r3, [sp, #0x14]
  001cc	e28320fc	 add         r2, r3, #0xFC
  001d0	e3a03001	 mov         r3, #1
  001d4	e5823000	 str         r3, [r2]

; 109  : 
; 110  :     DEBUGMSG(ZONE_OTG_FUNCTION,(TEXT("-CAM35xOTG::StartUSBModule()\r\n")));

  001d8	e59f3034	 ldr         r3, [pc, #0x34]
  001dc	e5933440	 ldr         r3, [r3, #0x440]
  001e0	e3130a02	 tst         r3, #2, 20
  001e4	0a000004	 beq         |$LN7@StartUSBMo|
  001e8	e59f0020	 ldr         r0, [pc, #0x20]
  001ec	eb000000	 bl          NKDbgPrintfW
  001f0	e3a03001	 mov         r3, #1
  001f4	e58d3008	 str         r3, [sp, #8]
  001f8	ea000001	 b           |$LN8@StartUSBMo|
  001fc		 |$LN7@StartUSBMo|
  001fc	e3a03000	 mov         r3, #0
  00200	e58d3008	 str         r3, [sp, #8]
  00204		 |$LN8@StartUSBMo|

; 111  : }

  00204	e28dd00c	 add         sp, sp, #0xC
  00208	e89d6000	 ldmia       sp, {sp, lr}
  0020c	e12fff1e	 bx          lr
  00210		 |$LN12@StartUSBMo|
  00210		 |$LN13@StartUSBMo|
  00210	00000000	 DCD         |??_C@_1DO@BDCABFA@?$AA?9?$AAC?$AAA?$AAM?$AA3?$AA5?$AAx?$AAO?$AAT?$AAG?$AA?3?$AA?3?$AAS?$AAt?$AAa?$AAr?$AAt?$AAU?$AAS?$AAB?$AAM?$AAo?$AAd?$AAu?$AAl?$AAe?$AA?$CI?$AA?$CJ?$AA?$AN?$AA?6?$AA?$AA@|
  00214		 |$LN14@StartUSBMo|
  00214	00000000	 DCD         |dpCurSettings|
  00218		 |$LN15@StartUSBMo|
  00218	00000000	 DCD         |??_C@_1DO@DIIEMPC@?$AA?$CL?$AAC?$AAA?$AAM?$AA3?$AA5?$AAx?$AAO?$AAT?$AAG?$AA?3?$AA?3?$AAS?$AAt?$AAa?$AAr?$AAt?$AAU?$AAS?$AAB?$AAM?$AAo?$AAd?$AAu?$AAl?$AAe?$AA?$CI?$AA?$CJ?$AA?$AN?$AA?6?$AA?$AA@|
  0021c		 |$M40526|

			 ENDP  ; |?StartUSBModule@CAM35xOTG@@QAAXXZ|, CAM35xOTG::StartUSBModule

	EXPORT	|??_C@_1DE@BPALFFKK@?$AA?9?$AAC?$AAA?$AAM?$AA3?$AA5?$AAx?$AAO?$AAT?$AAG?$AA?3?$AA?3?$AAC?$AAA?$AAM?$AA3?$AA5?$AAx?$AAO?$AAT?$AAG?$AA?$CI?$AA?$CJ?$AA?$AN?$AA?6?$AA?$AA@| [ DATA ] ; `string'
	EXPORT	|??_C@_1DE@LANAFLMF@?$AA?$CL?$AAC?$AAA?$AAM?$AA3?$AA5?$AAx?$AAO?$AAT?$AAG?$AA?3?$AA?3?$AAC?$AAA?$AAM?$AA3?$AA5?$AAx?$AAO?$AAT?$AAG?$AA?$CI?$AA?$CJ?$AA?$AN?$AA?6?$AA?$AA@| [ DATA ] ; `string'
	EXPORT	|??_7CAM35xOTG@@6B@| [ DATA ]		; CAM35xOTG::`vftable'
	EXPORT	|??0CAM35xOTG@@QAA@PBG@Z|		; CAM35xOTG::CAM35xOTG
	EXPORT	|?Init@CAM35xOTG@@UAAHXZ|		; CAM35xOTG::Init
	EXPORT	|?PostInit@CAM35xOTG@@UAAHXZ|		; CAM35xOTG::PostInit
	EXPORT	|?PowerUp@CAM35xOTG@@UAAHXZ|		; CAM35xOTG::PowerUp
	EXPORT	|?PowerDown@CAM35xOTG@@UAAHXZ|		; CAM35xOTG::PowerDown
	EXPORT	|?Open@USBOTG@@UAAHKK@Z|		; USBOTG::Open
	EXPORT	|?Close@DefaultBusDriver@@UAAHXZ|	; DefaultBusDriver::Close
	EXPORT	|?IOControl@CAM35xOTG@@UAAHKPAEK0KPAK@Z| ; CAM35xOTG::IOControl
	EXPORT	|?IsChildRemoved@DefaultBusDriver@@UAAHPBG@Z| ; DefaultBusDriver::IsChildRemoved
	EXPORT	|?CreateFunctionDeviceFolder@USBOTG@@UAAPAVDeviceFolder@@PBG0KKKKPAXK0@Z| ; USBOTG::CreateFunctionDeviceFolder
	EXPORT	|?CreateHostDeviceFolder@USBOTG@@UAAPAVDeviceFolder@@PBG0KKKKPAXK0@Z| ; USBOTG::CreateHostDeviceFolder
	EXPORT	|?UsbOtgConfigure@CAM35xOTG@@UAA?AW4USBOTG_MODE@@W42@@Z| ; CAM35xOTG::UsbOtgConfigure
	EXPORT	|?NewStateAction@CAM35xOTG@@UAAHW4USBOTG_STATES@@T_USBOTG_OUTPUT@@@Z| ; CAM35xOTG::NewStateAction
	EXPORT	|?UpdateInput@CAM35xOTG@@UAAHXZ|	; CAM35xOTG::UpdateInput
	EXPORT	|?SessionRequest@CAM35xOTG@@UAAHHH@Z|	; CAM35xOTG::SessionRequest
	EXPORT	|?DischargVBus@CAM35xOTG@@UAAHXZ|	; CAM35xOTG::DischargVBus
	EXPORT	|?IsSE0@CAM35xOTG@@UAAHXZ|		; CAM35xOTG::IsSE0
	EXPORT	|?GetOtgAConnectEvent@USBOTG@@UAAPAXXZ|	; USBOTG::GetOtgAConnectEvent
	EXPORT	|?SetChildDevicePowerState@USBOTG@@UAAHPAU_CE_BUS_POWER_STATE@@@Z| ; USBOTG::SetChildDevicePowerState
	EXPORT	|?GetChildDevicePowerState@USBOTG@@UAAHPAU_CE_BUS_POWER_STATE@@@Z| ; USBOTG::GetChildDevicePowerState
	EXPORT	|?UpdatePowerState@CAM35xOTG@@UAAHXZ|	; CAM35xOTG::UpdatePowerState
	EXPORT	|?GetPowerCapabilities@USBOTG@@UAA?AU_POWER_CAPABILITIES@@XZ| ; USBOTG::GetPowerCapabilities
	IMPORT	|StringCchCopyW|
	IMPORT	|??2@YAPAXI@Z|				; operator new
	IMPORT	|wcslen|
	IMPORT	|CreateEventW|
	IMPORT	|CreateBusAccessHandle|
	IMPORT	|??0USBOTG@@QAA@PBG@Z|			; USBOTG::USBOTG
	IMPORT	|??_ECAM35xOTG@@UAAPAXI@Z|, WEAK |??_GCAM35xOTG@@UAAPAXI@Z| ; CAM35xOTG::`vector deleting destructor', CAM35xOTG::`scalar deleting destructor'
	IMPORT	|?TranslateChildBusAddr@DefaultBusDriver@@UAAHPAU_CE_BUS_TRANSLATE_BUS_ADDR@@@Z| ; DefaultBusDriver::TranslateChildBusAddr
	IMPORT	|?TranslateChildSystemAddr@DefaultBusDriver@@UAAHPAU_CE_BUS_TRANSLATE_SYSTEM_ADDR@@@Z| ; DefaultBusDriver::TranslateChildSystemAddr
	IMPORT	|?SetChildDevicePowerState@DefaultBusDriver@@UAAHPAU_CE_BUS_POWER_STATE@@PAPAVDeviceFolder@@@Z| ; DefaultBusDriver::SetChildDevicePowerState
	IMPORT	|?GetChildDevicePowerState@DefaultBusDriver@@UAAHPAU_CE_BUS_POWER_STATE@@PAPAVDeviceFolder@@@Z| ; DefaultBusDriver::GetChildDevicePowerState
	IMPORT	|?SetChildDeviceConfigurationData@DefaultBusDriver@@UAAHPAU_CE_BUS_DEVICE_CONFIGURATION_DATA@@PAPAVDeviceFolder@@@Z| ; DefaultBusDriver::SetChildDeviceConfigurationData
	IMPORT	|?GetChildDeviceConfigurationData@DefaultBusDriver@@UAAHPAU_CE_BUS_DEVICE_CONFIGURATION_DATA@@PAPAVDeviceFolder@@@Z| ; DefaultBusDriver::GetChildDeviceConfigurationData
	IMPORT	|?ActivateChild@DefaultBusDriver@@UAAHPBG@Z| ; DefaultBusDriver::ActivateChild
	IMPORT	|?DeactivateChild@DefaultBusDriver@@UAAHPBG@Z| ; DefaultBusDriver::DeactivateChild
	IMPORT	|?GetChildByName@DefaultBusDriver@@UAAPAVDeviceFolder@@PBGPAPAV2@@Z| ; DefaultBusDriver::GetChildByName
	IMPORT	|?InsertChild@DefaultBusDriver@@UAAHPAVDeviceFolder@@@Z| ; DefaultBusDriver::InsertChild
	IMPORT	|?RemoveChildByName@DefaultBusDriver@@UAAHPBG@Z| ; DefaultBusDriver::RemoveChildByName
	IMPORT	|?RemoveChildByFolder@DefaultBusDriver@@UAAHPAVDeviceFolder@@@Z| ; DefaultBusDriver::RemoveChildByFolder
	IMPORT	|?GetBusNamePrefix@USBOTG@@UAAKPAGK@Z|	; USBOTG::GetBusNamePrefix
	IMPORT	|?FastIOControl@DefaultBusDriver@@UAAHKPAEK0KPAKPAPAVDeviceFolder@@@Z| ; DefaultBusDriver::FastIOControl
	IMPORT	|?ActivateAllChildDrivers@USBOTG@@UAAHXZ| ; USBOTG::ActivateAllChildDrivers
	IMPORT	|?LoadUnloadHCD@USBOTG@@UAAHH@Z|	; USBOTG::LoadUnloadHCD
	IMPORT	|?LoadUnloadUSBFN@USBOTG@@UAAHH@Z|	; USBOTG::LoadUnloadUSBFN
	IMPORT	|?EventNotification@USBOTG@@UAAHXZ|	; USBOTG::EventNotification
	IMPORT	|?TimeOut@USBOTG@@UAAHW4USBOTG_WATCHITEM@@@Z| ; USBOTG::TimeOut
	IMPORT	|?GetOTGEnableBit@USBOTG@@UAAEPBG@Z|	; USBOTG::GetOTGEnableBit
	IMPORT	|?OtgRequestBus@USBOTG@@UAAHH@Z|	; USBOTG::OtgRequestBus
	IMPORT	|?OtgDropBus@USBOTG@@UAAHH@Z|		; USBOTG::OtgDropBus
	IMPORT	|?OtgSuspendBus@USBOTG@@UAAHPBGH@Z|	; USBOTG::OtgSuspendBus
	IMPORT	|?OtgEnableHNP@USBOTG@@UAAHPBGH@Z|	; USBOTG::OtgEnableHNP
	IMPORT	|?OTGNotifyDetach@USBOTG@@UAAHPBG@Z|	; USBOTG::OTGNotifyDetach
	IMPORT	|?OTGUSBFNNotfyActive@USBOTG@@UAAHPBGH@Z| ; USBOTG::OTGUSBFNNotfyActive
	IMPORT	|?OTGHCDNotfyAccept@USBOTG@@UAAHPBGH@Z|	; USBOTG::OTGHCDNotfyAccept
	IMPORT	|?EnterState@USBOTG@@MAAHW4USBOTG_STATES@@@Z| ; USBOTG::EnterState
	IMPORT	|?StateChange@USBOTG@@MAA?AW4USBOTG_STATES@@W42@@Z| ; USBOTG::StateChange

  00010			 AREA	 |.pdata|, PDATA
|$T40545| DCD	|$LN13@CAM35xOTG|
	DCD	0x40007904

  00000			 AREA	 |.rdata|, DATA, READONLY
|??_C@_1DE@BPALFFKK@?$AA?9?$AAC?$AAA?$AAM?$AA3?$AA5?$AAx?$AAO?$AAT?$AAG?$AA?3?$AA?3?$AAC?$AAA?$AAM?$AA3?$AA5?$AAx?$AAO?$AAT?$AAG?$AA?$CI?$AA?$CJ?$AA?$AN?$AA?6?$AA?$AA@| DCB "-"
	DCB	0x0, "C", 0x0, "A", 0x0, "M", 0x0, "3", 0x0, "5", 0x0, "x"
	DCB	0x0, "O", 0x0, "T", 0x0, "G", 0x0, ":", 0x0, ":", 0x0, "C"
	DCB	0x0, "A", 0x0, "M", 0x0, "3", 0x0, "5", 0x0, "x", 0x0, "O"
	DCB	0x0, "T", 0x0, "G", 0x0, "(", 0x0, ")", 0x0, 0xd, 0x0, 0xa
	DCB	0x0, 0x0, 0x0				; `string'

  00000			 AREA	 |.rdata|, DATA, READONLY
|??_C@_1DE@LANAFLMF@?$AA?$CL?$AAC?$AAA?$AAM?$AA3?$AA5?$AAx?$AAO?$AAT?$AAG?$AA?3?$AA?3?$AAC?$AAA?$AAM?$AA3?$AA5?$AAx?$AAO?$AAT?$AAG?$AA?$CI?$AA?$CJ?$AA?$AN?$AA?6?$AA?$AA@| DCB "+"
	DCB	0x0, "C", 0x0, "A", 0x0, "M", 0x0, "3", 0x0, "5", 0x0, "x"
	DCB	0x0, "O", 0x0, "T", 0x0, "G", 0x0, ":", 0x0, ":", 0x0, "C"
	DCB	0x0, "A", 0x0, "M", 0x0, "3", 0x0, "5", 0x0, "x", 0x0, "O"
	DCB	0x0, "T", 0x0, "G", 0x0, "(", 0x0, ")", 0x0, 0xd, 0x0, 0xa
	DCB	0x0, 0x0, 0x0				; `string'

  00000			 AREA	 |.rdata|, DATA, READONLY
|??_7CAM35xOTG@@6B@| DCD |?Init@CAM35xOTG@@UAAHXZ|	; CAM35xOTG::`vftable'
	DCD	|?PostInit@CAM35xOTG@@UAAHXZ|
	DCD	|??_ECAM35xOTG@@UAAPAXI@Z|
	DCD	|?TranslateChildBusAddr@DefaultBusDriver@@UAAHPAU_CE_BUS_TRANSLATE_BUS_ADDR@@@Z|
	DCD	|?TranslateChildSystemAddr@DefaultBusDriver@@UAAHPAU_CE_BUS_TRANSLATE_SYSTEM_ADDR@@@Z|
	DCD	|?SetChildDevicePowerState@DefaultBusDriver@@UAAHPAU_CE_BUS_POWER_STATE@@PAPAVDeviceFolder@@@Z|
	DCD	|?GetChildDevicePowerState@DefaultBusDriver@@UAAHPAU_CE_BUS_POWER_STATE@@PAPAVDeviceFolder@@@Z|
	DCD	|?SetChildDeviceConfigurationData@DefaultBusDriver@@UAAHPAU_CE_BUS_DEVICE_CONFIGURATION_DATA@@PAPAVDeviceFolder@@@Z|
	DCD	|?GetChildDeviceConfigurationData@DefaultBusDriver@@UAAHPAU_CE_BUS_DEVICE_CONFIGURATION_DATA@@PAPAVDeviceFolder@@@Z|
	DCD	|?ActivateChild@DefaultBusDriver@@UAAHPBG@Z|
	DCD	|?DeactivateChild@DefaultBusDriver@@UAAHPBG@Z|
	DCD	|?PowerUp@CAM35xOTG@@UAAHXZ|
	DCD	|?PowerDown@CAM35xOTG@@UAAHXZ|
	DCD	|?Open@USBOTG@@UAAHKK@Z|
	DCD	|?Close@DefaultBusDriver@@UAAHXZ|
	DCD	|?IOControl@CAM35xOTG@@UAAHKPAEK0KPAK@Z|
	DCD	|?GetChildByName@DefaultBusDriver@@UAAPAVDeviceFolder@@PBGPAPAV2@@Z|
	DCD	|?InsertChild@DefaultBusDriver@@UAAHPAVDeviceFolder@@@Z|
	DCD	|?RemoveChildByName@DefaultBusDriver@@UAAHPBG@Z|
	DCD	|?RemoveChildByFolder@DefaultBusDriver@@UAAHPAVDeviceFolder@@@Z|
	DCD	|?IsChildRemoved@DefaultBusDriver@@UAAHPBG@Z|
	DCD	|?GetBusNamePrefix@USBOTG@@UAAKPAGK@Z|
	DCD	|?FastIOControl@DefaultBusDriver@@UAAHKPAEK0KPAKPAPAVDeviceFolder@@@Z|
	DCD	|?CreateFunctionDeviceFolder@USBOTG@@UAAPAVDeviceFolder@@PBG0KKKKPAXK0@Z|
	DCD	|?CreateHostDeviceFolder@USBOTG@@UAAPAVDeviceFolder@@PBG0KKKKPAXK0@Z|
	DCD	|?ActivateAllChildDrivers@USBOTG@@UAAHXZ|
	DCD	|?LoadUnloadHCD@USBOTG@@UAAHH@Z|
	DCD	|?LoadUnloadUSBFN@USBOTG@@UAAHH@Z|
	DCD	|?UsbOtgConfigure@CAM35xOTG@@UAA?AW4USBOTG_MODE@@W42@@Z|
	DCD	|?EventNotification@USBOTG@@UAAHXZ|
	DCD	|?TimeOut@USBOTG@@UAAHW4USBOTG_WATCHITEM@@@Z|
	DCD	|?NewStateAction@CAM35xOTG@@UAAHW4USBOTG_STATES@@T_USBOTG_OUTPUT@@@Z|
	DCD	|?UpdateInput@CAM35xOTG@@UAAHXZ|
	DCD	|?SessionRequest@CAM35xOTG@@UAAHHH@Z|
	DCD	|?DischargVBus@CAM35xOTG@@UAAHXZ|
	DCD	|?IsSE0@CAM35xOTG@@UAAHXZ|
	DCD	|?GetOTGEnableBit@USBOTG@@UAAEPBG@Z|
	DCD	|?OtgRequestBus@USBOTG@@UAAHH@Z|
	DCD	|?OtgDropBus@USBOTG@@UAAHH@Z|
	DCD	|?OtgSuspendBus@USBOTG@@UAAHPBGH@Z|
	DCD	|?OtgEnableHNP@USBOTG@@UAAHPBGH@Z|
	DCD	|?OTGNotifyDetach@USBOTG@@UAAHPBG@Z|
	DCD	|?OTGUSBFNNotfyActive@USBOTG@@UAAHPBGH@Z|
	DCD	|?OTGHCDNotfyAccept@USBOTG@@UAAHPBGH@Z|
	DCD	|?GetOtgAConnectEvent@USBOTG@@UAAPAXXZ|
	DCD	|?SetChildDevicePowerState@USBOTG@@UAAHPAU_CE_BUS_POWER_STATE@@@Z|
	DCD	|?GetChildDevicePowerState@USBOTG@@UAAHPAU_CE_BUS_POWER_STATE@@@Z|
	DCD	|?UpdatePowerState@CAM35xOTG@@UAAHXZ|
	DCD	|?GetPowerCapabilities@USBOTG@@UAA?AU_POWER_CAPABILITIES@@XZ|
	DCD	|?EnterState@USBOTG@@MAAHW4USBOTG_STATES@@@Z|
	DCD	|?StateChange@USBOTG@@MAA?AW4USBOTG_STATES@@W42@@Z|
; Function compile flags: /Odtp

  0021c			 AREA	 |.text|, CODE, ARM

  0021c		 |??0CAM35xOTG@@QAA@PBG@Z| PROC		; CAM35xOTG::CAM35xOTG

; 115  : {

  0021c		 |$LN13@CAM35xOTG|
  0021c	e1a0c00d	 mov         r12, sp
  00220	e92d0003	 stmdb       sp!, {r0, r1}
  00224	e92d5000	 stmdb       sp!, {r12, lr}
  00228	e24dd030	 sub         sp, sp, #0x30
  0022c		 |$M40542|
  0022c	e59d103c	 ldr         r1, [sp, #0x3C]
  00230	e59d0038	 ldr         r0, [sp, #0x38]
  00234	eb000000	 bl          |??0USBOTG@@QAA@PBG@Z|
  00238	e58d000c	 str         r0, [sp, #0xC]
  0023c	e59f21b8	 ldr         r2, [pc, #0x1B8]
  00240	e59d3038	 ldr         r3, [sp, #0x38]
  00244	e5832000	 str         r2, [r3]

; 116  :     DEBUGMSG(ZONE_OTG_FUNCTION,(TEXT("+CAM35xOTG::CAM35xOTG()\r\n")));

  00248	e59f31a4	 ldr         r3, [pc, #0x1A4]
  0024c	e5933440	 ldr         r3, [r3, #0x440]
  00250	e3130a02	 tst         r3, #2, 20
  00254	0a000004	 beq         |$LN5@CAM35xOTG|
  00258	e59f0198	 ldr         r0, [pc, #0x198]
  0025c	eb000000	 bl          NKDbgPrintfW
  00260	e3a03001	 mov         r3, #1
  00264	e58d3010	 str         r3, [sp, #0x10]
  00268	ea000001	 b           |$LN6@CAM35xOTG|
  0026c		 |$LN5@CAM35xOTG|
  0026c	e3a03000	 mov         r3, #0
  00270	e58d3010	 str         r3, [sp, #0x10]
  00274		 |$LN6@CAM35xOTG|

; 117  : 
; 118  :     m_hParent = CreateBusAccessHandle(lpActivePath);

  00274	e59d003c	 ldr         r0, [sp, #0x3C]
  00278	eb000000	 bl          CreateBusAccessHandle
  0027c	e58d0014	 str         r0, [sp, #0x14]
  00280	e59d3038	 ldr         r3, [sp, #0x38]
  00284	e28320dc	 add         r2, r3, #0xDC
  00288	e59d3014	 ldr         r3, [sp, #0x14]
  0028c	e5823000	 str         r3, [r2]

; 119  : 
; 120  :     // Initialize hardware register pointers
; 121  :     m_pUsbRegs = NULL;

  00290	e59d3038	 ldr         r3, [sp, #0x38]
  00294	e28320ec	 add         r2, r3, #0xEC
  00298	e3a03000	 mov         r3, #0
  0029c	e5823000	 str         r3, [r2]

; 122  :     m_pSysConfRegs = NULL;

  002a0	e59d3038	 ldr         r3, [sp, #0x38]
  002a4	e28320e8	 add         r2, r3, #0xE8
  002a8	e3a03000	 mov         r3, #0
  002ac	e5823000	 str         r3, [r2]

; 123  : 	m_bFunctionMode = FALSE;

  002b0	e59d3038	 ldr         r3, [sp, #0x38]
  002b4	e2832c01	 add         r2, r3, #1, 24
  002b8	e3a03000	 mov         r3, #0
  002bc	e5823000	 str         r3, [r2]

; 124  : 	m_bHostMode = FALSE;

  002c0	e59d3038	 ldr         r3, [sp, #0x38]
  002c4	e2832f42	 add         r2, r3, #0x42, 30
  002c8	e3a03000	 mov         r3, #0
  002cc	e5823000	 str         r3, [r2]

; 125  : 
; 126  :     // Initialize polling parameters
; 127  :     m_hPollThreadExitEvent = CreateEvent( NULL, TRUE, FALSE, NULL);

  002d0	e3a03000	 mov         r3, #0
  002d4	e3a02000	 mov         r2, #0
  002d8	e3a01001	 mov         r1, #1
  002dc	e3a00000	 mov         r0, #0
  002e0	eb000000	 bl          CreateEventW
  002e4	e58d0018	 str         r0, [sp, #0x18]
  002e8	e59d3038	 ldr         r3, [sp, #0x38]
  002ec	e28320f0	 add         r2, r3, #0xF0
  002f0	e59d3018	 ldr         r3, [sp, #0x18]
  002f4	e5823000	 str         r3, [r2]

; 128  :     m_PollTimeout = INFINITE; // Initialise poll period to safe value

  002f8	e59d3038	 ldr         r3, [sp, #0x38]
  002fc	e28320f4	 add         r2, r3, #0xF4
  00300	e3e03000	 mvn         r3, #0
  00304	e5823000	 str         r3, [r2]

; 129  : 
; 130  :     if (lpActivePath) 

  00308	e59d303c	 ldr         r3, [sp, #0x3C]
  0030c	e3530000	 cmp         r3, #0
  00310	0a000025	 beq         |$LN2@CAM35xOTG|

; 131  :     {
; 132  :         DWORD dwLength = _tcslen(lpActivePath) + 1;

  00314	e59d003c	 ldr         r0, [sp, #0x3C]
  00318	eb000000	 bl          wcslen
  0031c	e58d001c	 str         r0, [sp, #0x1C]
  00320	e59d301c	 ldr         r3, [sp, #0x1C]
  00324	e2833001	 add         r3, r3, #1
  00328	e58d3000	 str         r3, [sp]

; 133  :         m_ActiveKeyPath = new TCHAR [ dwLength ] ;

  0032c	e59d3000	 ldr         r3, [sp]
  00330	e58d3020	 str         r3, [sp, #0x20]
  00334	e59d3020	 ldr         r3, [sp, #0x20]
  00338	e3730106	 cmn         r3, #6, 2
  0033c	8a000004	 bhi         |$LN7@CAM35xOTG|
  00340	e59d2020	 ldr         r2, [sp, #0x20]
  00344	e3a03002	 mov         r3, #2
  00348	e0030392	 mul         r3, r2, r3
  0034c	e58d3024	 str         r3, [sp, #0x24]
  00350	ea000001	 b           |$LN8@CAM35xOTG|
  00354		 |$LN7@CAM35xOTG|
  00354	e3e03000	 mvn         r3, #0
  00358	e58d3024	 str         r3, [sp, #0x24]
  0035c		 |$LN8@CAM35xOTG|
  0035c	e59d0024	 ldr         r0, [sp, #0x24]
  00360	eb000000	 bl          |??2@YAPAXI@Z|
  00364	e58d0028	 str         r0, [sp, #0x28]
  00368	e59d3028	 ldr         r3, [sp, #0x28]
  0036c	e58d3004	 str         r3, [sp, #4]
  00370	e59d3038	 ldr         r3, [sp, #0x38]
  00374	e28320e0	 add         r2, r3, #0xE0
  00378	e59d3004	 ldr         r3, [sp, #4]
  0037c	e5823000	 str         r3, [r2]

; 134  :         if (m_ActiveKeyPath)

  00380	e59d3038	 ldr         r3, [sp, #0x38]
  00384	e28330e0	 add         r3, r3, #0xE0
  00388	e5933000	 ldr         r3, [r3]
  0038c	e3530000	 cmp         r3, #0
  00390	0a000005	 beq         |$LN1@CAM35xOTG|

; 135  :             StringCchCopy( m_ActiveKeyPath, dwLength, lpActivePath );

  00394	e59d203c	 ldr         r2, [sp, #0x3C]
  00398	e59d1000	 ldr         r1, [sp]
  0039c	e59d3038	 ldr         r3, [sp, #0x38]
  003a0	e28330e0	 add         r3, r3, #0xE0
  003a4	e5930000	 ldr         r0, [r3]
  003a8	eb000000	 bl          StringCchCopyW
  003ac		 |$LN1@CAM35xOTG|
  003ac		 |$LN2@CAM35xOTG|

; 136  :     }
; 137  : 
; 138  :     DEBUGMSG(ZONE_OTG_FUNCTION,(TEXT("-CAM35xOTG::CAM35xOTG()\r\n")));

  003ac	e59f3040	 ldr         r3, [pc, #0x40]
  003b0	e5933440	 ldr         r3, [r3, #0x440]
  003b4	e3130a02	 tst         r3, #2, 20
  003b8	0a000004	 beq         |$LN9@CAM35xOTG|
  003bc	e59f002c	 ldr         r0, [pc, #0x2C]
  003c0	eb000000	 bl          NKDbgPrintfW
  003c4	e3a03001	 mov         r3, #1
  003c8	e58d302c	 str         r3, [sp, #0x2C]
  003cc	ea000001	 b           |$LN10@CAM35xOTG|
  003d0		 |$LN9@CAM35xOTG|
  003d0	e3a03000	 mov         r3, #0
  003d4	e58d302c	 str         r3, [sp, #0x2C]
  003d8		 |$LN10@CAM35xOTG|

; 139  : }

  003d8	e59d3038	 ldr         r3, [sp, #0x38]
  003dc	e58d3008	 str         r3, [sp, #8]
  003e0	e59d0008	 ldr         r0, [sp, #8]
  003e4	e28dd030	 add         sp, sp, #0x30
  003e8	e89d6000	 ldmia       sp, {sp, lr}
  003ec	e12fff1e	 bx          lr
  003f0		 |$LN14@CAM35xOTG|
  003f0		 |$LN15@CAM35xOTG|
  003f0	00000000	 DCD         |??_C@_1DE@BPALFFKK@?$AA?9?$AAC?$AAA?$AAM?$AA3?$AA5?$AAx?$AAO?$AAT?$AAG?$AA?3?$AA?3?$AAC?$AAA?$AAM?$AA3?$AA5?$AAx?$AAO?$AAT?$AAG?$AA?$CI?$AA?$CJ?$AA?$AN?$AA?6?$AA?$AA@|
  003f4		 |$LN16@CAM35xOTG|
  003f4	00000000	 DCD         |dpCurSettings|
  003f8		 |$LN17@CAM35xOTG|
  003f8	00000000	 DCD         |??_C@_1DE@LANAFLMF@?$AA?$CL?$AAC?$AAA?$AAM?$AA3?$AA5?$AAx?$AAO?$AAT?$AAG?$AA?3?$AA?3?$AAC?$AAA?$AAM?$AA3?$AA5?$AAx?$AAO?$AAT?$AAG?$AA?$CI?$AA?$CJ?$AA?$AN?$AA?6?$AA?$AA@|
  003fc		 |$LN18@CAM35xOTG|
  003fc	00000000	 DCD         |??_7CAM35xOTG@@6B@|
  00400		 |$M40543|

			 ENDP  ; |??0CAM35xOTG@@QAA@PBG@Z|, CAM35xOTG::CAM35xOTG

; File c:\wince600\public\common\oak\inc\defbus.h

  00000			 AREA	 |.pdata|, PDATA
|$T40556| DCD	|$LN5@Close|
	DCD	0x40000a04
; Function compile flags: /Odtp

  00000			 AREA	 |.text|, CODE, ARM

  00000		 |?Close@DefaultBusDriver@@UAAHXZ| PROC	; DefaultBusDriver::Close

; 150  :     virtual BOOL  Close() { return TRUE; };

  00000		 |$LN5@Close|
  00000	e1a0c00d	 mov         r12, sp
  00004	e92d0001	 stmdb       sp!, {r0}
  00008	e92d5000	 stmdb       sp!, {r12, lr}
  0000c	e24dd004	 sub         sp, sp, #4
  00010		 |$M40553|
  00010	e3a03001	 mov         r3, #1
  00014	e58d3000	 str         r3, [sp]
  00018	e59d0000	 ldr         r0, [sp]
  0001c	e28dd004	 add         sp, sp, #4
  00020	e89d6000	 ldmia       sp, {sp, lr}
  00024	e12fff1e	 bx          lr
  00028		 |$M40554|

			 ENDP  ; |?Close@DefaultBusDriver@@UAAHXZ|, DefaultBusDriver::Close


  00000			 AREA	 |.pdata|, PDATA
|$T40564| DCD	|$LN5@IsChildRem|
	DCD	0x40000a04
; Function compile flags: /Odtp

  00000			 AREA	 |.text|, CODE, ARM

  00000		 |?IsChildRemoved@DefaultBusDriver@@UAAHPBG@Z| PROC ; DefaultBusDriver::IsChildRemoved

; 162  :     virtual BOOL IsChildRemoved(LPCTSTR lpChildName) { return FALSE; }; // Can not be removed for default driver.

  00000		 |$LN5@IsChildRem|
  00000	e1a0c00d	 mov         r12, sp
  00004	e92d0003	 stmdb       sp!, {r0, r1}
  00008	e92d5000	 stmdb       sp!, {r12, lr}
  0000c	e24dd004	 sub         sp, sp, #4
  00010		 |$M40561|
  00010	e3a03000	 mov         r3, #0
  00014	e58d3000	 str         r3, [sp]
  00018	e59d0000	 ldr         r0, [sp]
  0001c	e28dd004	 add         sp, sp, #4
  00020	e89d6000	 ldmia       sp, {sp, lr}
  00024	e12fff1e	 bx          lr
  00028		 |$M40562|

			 ENDP  ; |?IsChildRemoved@DefaultBusDriver@@UAAHPBG@Z|, DefaultBusDriver::IsChildRemoved

	IMPORT	|??0DeviceFolder@@QAA@PBG0KKKKPAXK0@Z|	; DeviceFolder::DeviceFolder
; File c:\wince600\public\common\oak\inc\usbotg.hpp

  00000			 AREA	 |.pdata|, PDATA
|$T40581| DCD	|$LN7@CreateFunc|
	DCD	0x40002904
; Function compile flags: /Odtp

  00000			 AREA	 |.text|, CODE, ARM

  00000		 |?CreateFunctionDeviceFolder@USBOTG@@UAAPAVDeviceFolder@@PBG0KKKKPAXK0@Z| PROC ; USBOTG::CreateFunctionDeviceFolder

; 173  :     virtual DeviceFolder * CreateFunctionDeviceFolder(LPCTSTR lpBusName,LPCTSTR lpTemplateRegPath,DWORD dwBusType, DWORD BusNumber,DWORD DeviceNumber,DWORD FunctionNumber,HANDLE hParent,DWORD dwMaxInitReg=MAX_INIT_REG,LPCTSTR lpDeviceBusName = NULL) {

  00000		 |$LN7@CreateFunc|
  00000	e1a0c00d	 mov         r12, sp
  00004	e92d000f	 stmdb       sp!, {r0 - r3}
  00008	e92d5000	 stmdb       sp!, {r12, lr}
  0000c	e24dd044	 sub         sp, sp, #0x44
  00010		 |$M40578|

; 174  :         return new DeviceFolder(lpBusName,lpTemplateRegPath,dwBusType,BusNumber,DeviceNumber,FunctionNumber,hParent,dwMaxInitReg,lpDeviceBusName);

  00010	e3a00060	 mov         r0, #0x60
  00014	eb000000	 bl          |??2@YAPAXI@Z|
  00018	e58d0038	 str         r0, [sp, #0x38]
  0001c	e59d3038	 ldr         r3, [sp, #0x38]
  00020	e58d3018	 str         r3, [sp, #0x18]
  00024	e59d3018	 ldr         r3, [sp, #0x18]
  00028	e3530000	 cmp         r3, #0
  0002c	0a000014	 beq         |$LN3@CreateFunc|
  00030	e59d3070	 ldr         r3, [sp, #0x70]
  00034	e58d3014	 str         r3, [sp, #0x14]
  00038	e59d306c	 ldr         r3, [sp, #0x6C]
  0003c	e58d3010	 str         r3, [sp, #0x10]
  00040	e59d3068	 ldr         r3, [sp, #0x68]
  00044	e58d300c	 str         r3, [sp, #0xC]
  00048	e59d3064	 ldr         r3, [sp, #0x64]
  0004c	e58d3008	 str         r3, [sp, #8]
  00050	e59d3060	 ldr         r3, [sp, #0x60]
  00054	e58d3004	 str         r3, [sp, #4]
  00058	e59d305c	 ldr         r3, [sp, #0x5C]
  0005c	e58d3000	 str         r3, [sp]
  00060	e59d3058	 ldr         r3, [sp, #0x58]
  00064	e59d2054	 ldr         r2, [sp, #0x54]
  00068	e59d1050	 ldr         r1, [sp, #0x50]
  0006c	e59d0018	 ldr         r0, [sp, #0x18]
  00070	eb000000	 bl          |??0DeviceFolder@@QAA@PBG0KKKKPAXK0@Z|
  00074	e58d003c	 str         r0, [sp, #0x3C]
  00078	e59d303c	 ldr         r3, [sp, #0x3C]
  0007c	e58d3040	 str         r3, [sp, #0x40]
  00080	ea000001	 b           |$LN4@CreateFunc|
  00084		 |$LN3@CreateFunc|
  00084	e3a03000	 mov         r3, #0
  00088	e58d3040	 str         r3, [sp, #0x40]
  0008c		 |$LN4@CreateFunc|
  0008c	e59d3040	 ldr         r3, [sp, #0x40]
  00090	e58d3034	 str         r3, [sp, #0x34]

; 175  :     }

  00094	e59d0034	 ldr         r0, [sp, #0x34]
  00098	e28dd044	 add         sp, sp, #0x44
  0009c	e89d6000	 ldmia       sp, {sp, lr}
  000a0	e12fff1e	 bx          lr
  000a4		 |$M40579|

			 ENDP  ; |?CreateFunctionDeviceFolder@USBOTG@@UAAPAVDeviceFolder@@PBG0KKKKPAXK0@Z|, USBOTG::CreateFunctionDeviceFolder


  00000			 AREA	 |.pdata|, PDATA
|$T40598| DCD	|$LN7@CreateHost|
	DCD	0x40002904
; Function compile flags: /Odtp

  00000			 AREA	 |.text|, CODE, ARM

  00000		 |?CreateHostDeviceFolder@USBOTG@@UAAPAVDeviceFolder@@PBG0KKKKPAXK0@Z| PROC ; USBOTG::CreateHostDeviceFolder

; 176  :     virtual DeviceFolder * CreateHostDeviceFolder(LPCTSTR lpBusName,LPCTSTR lpTemplateRegPath,DWORD dwBusType, DWORD BusNumber,DWORD DeviceNumber,DWORD FunctionNumber,HANDLE hParent,DWORD dwMaxInitReg=MAX_INIT_REG,LPCTSTR lpDeviceBusName = NULL) {

  00000		 |$LN7@CreateHost|
  00000	e1a0c00d	 mov         r12, sp
  00004	e92d000f	 stmdb       sp!, {r0 - r3}
  00008	e92d5000	 stmdb       sp!, {r12, lr}
  0000c	e24dd044	 sub         sp, sp, #0x44
  00010		 |$M40595|

; 177  :         return new DeviceFolder(lpBusName,lpTemplateRegPath,dwBusType,BusNumber,DeviceNumber,FunctionNumber,hParent,dwMaxInitReg,lpDeviceBusName);

  00010	e3a00060	 mov         r0, #0x60
  00014	eb000000	 bl          |??2@YAPAXI@Z|
  00018	e58d0038	 str         r0, [sp, #0x38]
  0001c	e59d3038	 ldr         r3, [sp, #0x38]
  00020	e58d3018	 str         r3, [sp, #0x18]
  00024	e59d3018	 ldr         r3, [sp, #0x18]
  00028	e3530000	 cmp         r3, #0
  0002c	0a000014	 beq         |$LN3@CreateHost|
  00030	e59d3070	 ldr         r3, [sp, #0x70]
  00034	e58d3014	 str         r3, [sp, #0x14]
  00038	e59d306c	 ldr         r3, [sp, #0x6C]
  0003c	e58d3010	 str         r3, [sp, #0x10]
  00040	e59d3068	 ldr         r3, [sp, #0x68]
  00044	e58d300c	 str         r3, [sp, #0xC]
  00048	e59d3064	 ldr         r3, [sp, #0x64]
  0004c	e58d3008	 str         r3, [sp, #8]
  00050	e59d3060	 ldr         r3, [sp, #0x60]
  00054	e58d3004	 str         r3, [sp, #4]
  00058	e59d305c	 ldr         r3, [sp, #0x5C]
  0005c	e58d3000	 str         r3, [sp]
  00060	e59d3058	 ldr         r3, [sp, #0x58]
  00064	e59d2054	 ldr         r2, [sp, #0x54]
  00068	e59d1050	 ldr         r1, [sp, #0x50]
  0006c	e59d0018	 ldr         r0, [sp, #0x18]
  00070	eb000000	 bl          |??0DeviceFolder@@QAA@PBG0KKKKPAXK0@Z|
  00074	e58d003c	 str         r0, [sp, #0x3C]
  00078	e59d303c	 ldr         r3, [sp, #0x3C]
  0007c	e58d3040	 str         r3, [sp, #0x40]
  00080	ea000001	 b           |$LN4@CreateHost|
  00084		 |$LN3@CreateHost|
  00084	e3a03000	 mov         r3, #0
  00088	e58d3040	 str         r3, [sp, #0x40]
  0008c		 |$LN4@CreateHost|
  0008c	e59d3040	 ldr         r3, [sp, #0x40]
  00090	e58d3034	 str         r3, [sp, #0x34]

; 178  :     }

  00094	e59d0034	 ldr         r0, [sp, #0x34]
  00098	e28dd044	 add         sp, sp, #0x44
  0009c	e89d6000	 ldmia       sp, {sp, lr}
  000a0	e12fff1e	 bx          lr
  000a4		 |$M40596|

			 ENDP  ; |?CreateHostDeviceFolder@USBOTG@@UAAPAVDeviceFolder@@PBG0KKKKPAXK0@Z|, USBOTG::CreateHostDeviceFolder


  00000			 AREA	 |.pdata|, PDATA
|$T40606| DCD	|$LN5@Open|
	DCD	0x40000a04
; Function compile flags: /Odtp

  00000			 AREA	 |.text|, CODE, ARM

  00000		 |?Open@USBOTG@@UAAHKK@Z| PROC		; USBOTG::Open

; 185  :     virtual BOOL  Open( DWORD   AccessCode,   DWORD   Share) { return TRUE; };

  00000		 |$LN5@Open|
  00000	e1a0c00d	 mov         r12, sp
  00004	e92d0007	 stmdb       sp!, {r0 - r2}
  00008	e92d5000	 stmdb       sp!, {r12, lr}
  0000c	e24dd004	 sub         sp, sp, #4
  00010		 |$M40603|
  00010	e3a03001	 mov         r3, #1
  00014	e58d3000	 str         r3, [sp]
  00018	e59d0000	 ldr         r0, [sp]
  0001c	e28dd004	 add         sp, sp, #4
  00020	e89d6000	 ldmia       sp, {sp, lr}
  00024	e12fff1e	 bx          lr
  00028		 |$M40604|

			 ENDP  ; |?Open@USBOTG@@UAAHKK@Z|, USBOTG::Open


  00000			 AREA	 |.pdata|, PDATA
|$T40614| DCD	|$LN5@GetOtgACon|
	DCD	0x40000c04
; Function compile flags: /Odtp

  00000			 AREA	 |.text|, CODE, ARM

  00000		 |?GetOtgAConnectEvent@USBOTG@@UAAPAXXZ| PROC ; USBOTG::GetOtgAConnectEvent

; 208  :     virtual HANDLE GetOtgAConnectEvent() { return m_hAConnectEvent; };

  00000		 |$LN5@GetOtgACon|
  00000	e1a0c00d	 mov         r12, sp
  00004	e92d0001	 stmdb       sp!, {r0}
  00008	e92d5000	 stmdb       sp!, {r12, lr}
  0000c	e24dd004	 sub         sp, sp, #4
  00010		 |$M40611|
  00010	e59d300c	 ldr         r3, [sp, #0xC]
  00014	e283309c	 add         r3, r3, #0x9C
  00018	e5933000	 ldr         r3, [r3]
  0001c	e58d3000	 str         r3, [sp]
  00020	e59d0000	 ldr         r0, [sp]
  00024	e28dd004	 add         sp, sp, #4
  00028	e89d6000	 ldmia       sp, {sp, lr}
  0002c	e12fff1e	 bx          lr
  00030		 |$M40612|

			 ENDP  ; |?GetOtgAConnectEvent@USBOTG@@UAAPAXXZ|, USBOTG::GetOtgAConnectEvent


  00000			 AREA	 |.pdata|, PDATA
|$T40622| DCD	|$LN5@SetChildDe|
	DCD	0x40000a04
; Function compile flags: /Odtp

  00000			 AREA	 |.text|, CODE, ARM

  00000		 |?SetChildDevicePowerState@USBOTG@@UAAHPAU_CE_BUS_POWER_STATE@@@Z| PROC ; USBOTG::SetChildDevicePowerState

; 210  :     virtual BOOL SetChildDevicePowerState(PCE_BUS_POWER_STATE ) { return FALSE; };

  00000		 |$LN5@SetChildDe|
  00000	e1a0c00d	 mov         r12, sp
  00004	e92d0003	 stmdb       sp!, {r0, r1}
  00008	e92d5000	 stmdb       sp!, {r12, lr}
  0000c	e24dd004	 sub         sp, sp, #4
  00010		 |$M40619|
  00010	e3a03000	 mov         r3, #0
  00014	e58d3000	 str         r3, [sp]
  00018	e59d0000	 ldr         r0, [sp]
  0001c	e28dd004	 add         sp, sp, #4
  00020	e89d6000	 ldmia       sp, {sp, lr}
  00024	e12fff1e	 bx          lr
  00028		 |$M40620|

			 ENDP  ; |?SetChildDevicePowerState@USBOTG@@UAAHPAU_CE_BUS_POWER_STATE@@@Z|, USBOTG::SetChildDevicePowerState


  00000			 AREA	 |.pdata|, PDATA
|$T40630| DCD	|$LN5@GetChildDe|
	DCD	0x40000a04
; Function compile flags: /Odtp

  00000			 AREA	 |.text|, CODE, ARM

  00000		 |?GetChildDevicePowerState@USBOTG@@UAAHPAU_CE_BUS_POWER_STATE@@@Z| PROC ; USBOTG::GetChildDevicePowerState

; 211  :     virtual BOOL GetChildDevicePowerState(PCE_BUS_POWER_STATE) { return FALSE; };

  00000		 |$LN5@GetChildDe|
  00000	e1a0c00d	 mov         r12, sp
  00004	e92d0003	 stmdb       sp!, {r0, r1}
  00008	e92d5000	 stmdb       sp!, {r12, lr}
  0000c	e24dd004	 sub         sp, sp, #4
  00010		 |$M40627|
  00010	e3a03000	 mov         r3, #0
  00014	e58d3000	 str         r3, [sp]
  00018	e59d0000	 ldr         r0, [sp]
  0001c	e28dd004	 add         sp, sp, #4
  00020	e89d6000	 ldmia       sp, {sp, lr}
  00024	e12fff1e	 bx          lr
  00028		 |$M40628|

			 ENDP  ; |?GetChildDevicePowerState@USBOTG@@UAAHPAU_CE_BUS_POWER_STATE@@@Z|, USBOTG::GetChildDevicePowerState

	IMPORT	|memcpy|

  00000			 AREA	 |.pdata|, PDATA
|$T40639| DCD	|$LN5@GetPowerCa|
	DCD	0x40000f04
; Function compile flags: /Odtp

  00000			 AREA	 |.text|, CODE, ARM

  00000		 |?GetPowerCapabilities@USBOTG@@UAA?AU_POWER_CAPABILITIES@@XZ| PROC ; USBOTG::GetPowerCapabilities

; 215  :     virtual POWER_CAPABILITIES GetPowerCapabilities() { return m_PowerCapabilities; };

  00000		 |$LN5@GetPowerCa|
  00000	e1a0c00d	 mov         r12, sp
  00004	e92d0003	 stmdb       sp!, {r0, r1}
  00008	e92d5000	 stmdb       sp!, {r12, lr}
  0000c	e24dd004	 sub         sp, sp, #4
  00010		 |$M40636|
  00010	e59d300c	 ldr         r3, [sp, #0xC]
  00014	e28310a0	 add         r1, r3, #0xA0
  00018	e59d0010	 ldr         r0, [sp, #0x10]
  0001c	e3a02030	 mov         r2, #0x30
  00020	eb000000	 bl          memcpy
  00024	e59d3010	 ldr         r3, [sp, #0x10]
  00028	e58d3000	 str         r3, [sp]
  0002c	e59d0000	 ldr         r0, [sp]
  00030	e28dd004	 add         sp, sp, #4
  00034	e89d6000	 ldmia       sp, {sp, lr}
  00038	e12fff1e	 bx          lr
  0003c		 |$M40637|

			 ENDP  ; |?GetPowerCapabilities@USBOTG@@UAA?AU_POWER_CAPABILITIES@@XZ|, USBOTG::GetPowerCapabilities

; File c:\wince600\platform\common\src\soc\common_ti_v1\am3517\usb\usbotg\usbotgpdd.h

  00000			 AREA	 |.pdata|, PDATA
|$T40647| DCD	|$LN5@DischargVB|
	DCD	0x40000a04
; Function compile flags: /Odtp

  00000			 AREA	 |.text|, CODE, ARM

  00000		 |?DischargVBus@CAM35xOTG@@UAAHXZ| PROC	; CAM35xOTG::DischargVBus

; 32   :     BOOL    DischargVBus()  { return TRUE; };

  00000		 |$LN5@DischargVB|
  00000	e1a0c00d	 mov         r12, sp
  00004	e92d0001	 stmdb       sp!, {r0}
  00008	e92d5000	 stmdb       sp!, {r12, lr}
  0000c	e24dd004	 sub         sp, sp, #4
  00010		 |$M40644|
  00010	e3a03001	 mov         r3, #1
  00014	e58d3000	 str         r3, [sp]
  00018	e59d0000	 ldr         r0, [sp]
  0001c	e28dd004	 add         sp, sp, #4
  00020	e89d6000	 ldmia       sp, {sp, lr}
  00024	e12fff1e	 bx          lr
  00028		 |$M40645|

			 ENDP  ; |?DischargVBus@CAM35xOTG@@UAAHXZ|, CAM35xOTG::DischargVBus


  00000			 AREA	 |.pdata|, PDATA
|$T40655| DCD	|$LN5@UsbOtgConf|
	DCD	0x40000a04
; Function compile flags: /Odtp

  00000			 AREA	 |.text|, CODE, ARM

  00000		 |?UsbOtgConfigure@CAM35xOTG@@UAA?AW4USBOTG_MODE@@W42@@Z| PROC ; CAM35xOTG::UsbOtgConfigure

; 37   :     USBOTG_MODE UsbOtgConfigure(USBOTG_MODE usbOtgMode ) { return usbOtgMode; };

  00000		 |$LN5@UsbOtgConf|
  00000	e1a0c00d	 mov         r12, sp
  00004	e92d0003	 stmdb       sp!, {r0, r1}
  00008	e92d5000	 stmdb       sp!, {r12, lr}
  0000c	e24dd004	 sub         sp, sp, #4
  00010		 |$M40652|
  00010	e59d3010	 ldr         r3, [sp, #0x10]
  00014	e58d3000	 str         r3, [sp]
  00018	e59d0000	 ldr         r0, [sp]
  0001c	e28dd004	 add         sp, sp, #4
  00020	e89d6000	 ldmia       sp, {sp, lr}
  00024	e12fff1e	 bx          lr
  00028		 |$M40653|

			 ENDP  ; |?UsbOtgConfigure@CAM35xOTG@@UAA?AW4USBOTG_MODE@@W42@@Z|, CAM35xOTG::UsbOtgConfigure

	EXPORT	|??1CAM35xOTG@@UAA@XZ|			; CAM35xOTG::~CAM35xOTG
	IMPORT	|??3@YAXPAX@Z|				; operator delete

  00000			 AREA	 |.pdata|, PDATA
|$T40663| DCD	|$LN6@scalar|
	DCD	0x40001104
; Function compile flags: /Odtp

  00000			 AREA	 |.text|, CODE, ARM

  00000		 |??_GCAM35xOTG@@UAAPAXI@Z| PROC	; CAM35xOTG::`scalar deleting destructor'
  00000		 |$LN6@scalar|
  00000	e1a0c00d	 mov         r12, sp
  00004	e92d0003	 stmdb       sp!, {r0, r1}
  00008	e92d5000	 stmdb       sp!, {r12, lr}
  0000c	e24dd004	 sub         sp, sp, #4
  00010		 |$M40660|
  00010	e59d000c	 ldr         r0, [sp, #0xC]
  00014	eb000000	 bl          |??1CAM35xOTG@@UAA@XZ|
  00018	e59d3010	 ldr         r3, [sp, #0x10]
  0001c	e3130001	 tst         r3, #1
  00020	0a000001	 beq         |$LN1@scalar|
  00024	e59d000c	 ldr         r0, [sp, #0xC]
  00028	eb000000	 bl          |??3@YAXPAX@Z|
  0002c		 |$LN1@scalar|
  0002c	e59d300c	 ldr         r3, [sp, #0xC]
  00030	e58d3000	 str         r3, [sp]
  00034	e59d0000	 ldr         r0, [sp]
  00038	e28dd004	 add         sp, sp, #4
  0003c	e89d6000	 ldmia       sp, {sp, lr}
  00040	e12fff1e	 bx          lr
  00044		 |$M40661|

			 ENDP  ; |??_GCAM35xOTG@@UAAPAXI@Z|, CAM35xOTG::`scalar deleting destructor'

	EXPORT	|??_C@_1CO@JBJLOJJA@?$AA?9?$AAC?$AAA?$AAM?$AA3?$AA5?$AAx?$AAO?$AAT?$AAG?$AA?3?$AA?3?$AAI?$AAn?$AAi?$AAt?$AA?$CI?$AA?$CF?$AAd?$AA?$CJ?$AA?$AN?$AA?6?$AA?$AA@| [ DATA ] ; `string'
	EXPORT	|??_C@_1IG@BHCIGOHM@?$AAC?$AAA?$AAM?$AA3?$AA5?$AAx?$AAO?$AAT?$AAG?$AA?3?$AA?3?$AAI?$AAn?$AAi?$AAt?$AA?3?$AA?5?$AAE?$AAR?$AAR?$AAO?$AAR?$AA?3?$AA?5?$AAN?$AAU?$AAL?$AAL?$AA?5?$AAA?$AAc?$AAt@| [ DATA ] ; `string'
	EXPORT	|??_C@_1HI@MGINACGH@?$AAC?$AAA?$AAM?$AA3?$AA5?$AAx?$AAO?$AAT?$AAG?$AA?3?$AA?3?$AAI?$AAn?$AAi?$AAt?$AA?3?$AA?5?$AAF?$AAa?$AAi?$AAl?$AAe?$AAd?$AA?5?$AAt?$AAo?$AA?5?$AAr?$AAe?$AAa?$AAd?$AA?5@| [ DATA ] ; `string'
	EXPORT	|?RegQueryValueExW@CRegistryEdit@@QAAHPBGPAKPAE1@Z| ; CRegistryEdit::RegQueryValueExW
	EXPORT	|??_C@_1BI@JFGLCKEJ@?$AAP?$AAo?$AAl?$AAl?$AAT?$AAi?$AAm?$AAe?$AAo?$AAu?$AAt?$AA?$AA@| [ DATA ] ; `string'
	EXPORT	|??_C@_1GO@MPLFHIJK@?$AAC?$AAA?$AAM?$AA3?$AA5?$AAx?$AAO?$AAT?$AAG?$AA?3?$AA?3?$AAI?$AAn?$AAi?$AAt?$AA?3?$AA?5?$AAE?$AAR?$AAR?$AAO?$AAR?$AA?3?$AA?5?$AAf?$AAa?$AAi?$AAl?$AAe?$AAd?$AA?5?$AAt@| [ DATA ] ; `string'
	EXPORT	|?PollThread@CAM35xOTG@@KAKPAX@Z|	; CAM35xOTG::PollThread
	EXPORT	|??_C@_1HG@FEANEGDF@?$AAC?$AAA?$AAM?$AA3?$AA5?$AAx?$AAO?$AAT?$AAG?$AA?3?$AA?3?$AAI?$AAn?$AAi?$AAt?$AA?3?$AA?5?$AAE?$AAR?$AAR?$AAO?$AAR?$AA?3?$AA?5?$AAf?$AAa?$AAi?$AAl?$AAe?$AAd?$AA?5?$AAt@| [ DATA ] ; `string'
	EXPORT	|??_C@_1CK@JFACBFOB@?$AA?$CL?$AAC?$AAA?$AAM?$AA3?$AA5?$AAx?$AAO?$AAT?$AAG?$AA?3?$AA?3?$AAI?$AAn?$AAi?$AAt?$AA?$CI?$AA?$CJ?$AA?$AN?$AA?6?$AA?$AA@| [ DATA ] ; `string'
	IMPORT	|CreateThread|
	IMPORT	|?Init@USBOTG@@UAAHXZ|			; USBOTG::Init
	IMPORT	|MmMapIoSpace|

  00018			 AREA	 |.pdata|, PDATA
|$T40686| DCD	|$LN27@Init|
	DCD	0x4000c104
; File c:\wince600\platform\common\src\soc\common_ti_v1\am3517\usb\usbotg\usbotgpdd.cpp

  00000			 AREA	 |.rdata|, DATA, READONLY
|??_C@_1CO@JBJLOJJA@?$AA?9?$AAC?$AAA?$AAM?$AA3?$AA5?$AAx?$AAO?$AAT?$AAG?$AA?3?$AA?3?$AAI?$AAn?$AAi?$AAt?$AA?$CI?$AA?$CF?$AAd?$AA?$CJ?$AA?$AN?$AA?6?$AA?$AA@| DCB "-"
	DCB	0x0, "C", 0x0, "A", 0x0, "M", 0x0, "3", 0x0, "5", 0x0, "x"
	DCB	0x0, "O", 0x0, "T", 0x0, "G", 0x0, ":", 0x0, ":", 0x0, "I"
	DCB	0x0, "n", 0x0, "i", 0x0, "t", 0x0, "(", 0x0, "%", 0x0, "d"
	DCB	0x0, ")", 0x0, 0xd, 0x0, 0xa, 0x0, 0x0, 0x0 ; `string'

  00000			 AREA	 |.rdata|, DATA, READONLY
|??_C@_1IG@BHCIGOHM@?$AAC?$AAA?$AAM?$AA3?$AA5?$AAx?$AAO?$AAT?$AAG?$AA?3?$AA?3?$AAI?$AAn?$AAi?$AAt?$AA?3?$AA?5?$AAE?$AAR?$AAR?$AAO?$AAR?$AA?3?$AA?5?$AAN?$AAU?$AAL?$AAL?$AA?5?$AAA?$AAc?$AAt@| DCB "C"
	DCB	0x0, "A", 0x0, "M", 0x0, "3", 0x0, "5", 0x0, "x", 0x0, "O"
	DCB	0x0, "T", 0x0, "G", 0x0, ":", 0x0, ":", 0x0, "I", 0x0, "n"
	DCB	0x0, "i", 0x0, "t", 0x0, ":", 0x0, " ", 0x0, "E", 0x0, "R"
	DCB	0x0, "R", 0x0, "O", 0x0, "R", 0x0, ":", 0x0, " ", 0x0, "N"
	DCB	0x0, "U", 0x0, "L", 0x0, "L", 0x0, " ", 0x0, "A", 0x0, "c"
	DCB	0x0, "t", 0x0, "i", 0x0, "v", 0x0, "e", 0x0, "K", 0x0, "e"
	DCB	0x0, "y", 0x0, "P", 0x0, "a", 0x0, "t", 0x0, "h", 0x0, " "
	DCB	0x0, "o", 0x0, "r", 0x0, " ", 0x0, "b", 0x0, "a", 0x0, "s"
	DCB	0x0, "e", 0x0, " ", 0x0, "I", 0x0, "n", 0x0, "i", 0x0, "t"
	DCB	0x0, "(", 0x0, ")", 0x0, " ", 0x0, "f", 0x0, "a", 0x0, "i"
	DCB	0x0, "l", 0x0, "e", 0x0, "d", 0x0, 0xd, 0x0, 0xa, 0x0, 0x0
	DCB	0x0					; `string'

  00000			 AREA	 |.rdata|, DATA, READONLY
|??_C@_1HI@MGINACGH@?$AAC?$AAA?$AAM?$AA3?$AA5?$AAx?$AAO?$AAT?$AAG?$AA?3?$AA?3?$AAI?$AAn?$AAi?$AAt?$AA?3?$AA?5?$AAF?$AAa?$AAi?$AAl?$AAe?$AAd?$AA?5?$AAt?$AAo?$AA?5?$AAr?$AAe?$AAa?$AAd?$AA?5@| DCB "C"
	DCB	0x0, "A", 0x0, "M", 0x0, "3", 0x0, "5", 0x0, "x", 0x0, "O"
	DCB	0x0, "T", 0x0, "G", 0x0, ":", 0x0, ":", 0x0, "I", 0x0, "n"
	DCB	0x0, "i", 0x0, "t", 0x0, ":", 0x0, " ", 0x0, "F", 0x0, "a"
	DCB	0x0, "i", 0x0, "l", 0x0, "e", 0x0, "d", 0x0, " ", 0x0, "t"
	DCB	0x0, "o", 0x0, " ", 0x0, "r", 0x0, "e", 0x0, "a", 0x0, "d"
	DCB	0x0, " ", 0x0, "P", 0x0, "o", 0x0, "l", 0x0, "l", 0x0, "T"
	DCB	0x0, "i", 0x0, "m", 0x0, "e", 0x0, "o", 0x0, "u", 0x0, "t"
	DCB	0x0, " ", 0x0, "f", 0x0, "r", 0x0, "o", 0x0, "m", 0x0, " "
	DCB	0x0, "r", 0x0, "e", 0x0, "g", 0x0, "i", 0x0, "s", 0x0, "t"
	DCB	0x0, "r", 0x0, "y", 0x0, 0xd, 0x0, 0xa, 0x0, 0x0, 0x0 ; `string'

  00000			 AREA	 |.rdata|, DATA, READONLY
|??_C@_1BI@JFGLCKEJ@?$AAP?$AAo?$AAl?$AAl?$AAT?$AAi?$AAm?$AAe?$AAo?$AAu?$AAt?$AA?$AA@| DCB "P"
	DCB	0x0, "o", 0x0, "l", 0x0, "l", 0x0, "T", 0x0, "i", 0x0, "m"
	DCB	0x0, "e", 0x0, "o", 0x0, "u", 0x0, "t", 0x0, 0x0, 0x0 ; `string'

  00000			 AREA	 |.rdata|, DATA, READONLY
|??_C@_1GO@MPLFHIJK@?$AAC?$AAA?$AAM?$AA3?$AA5?$AAx?$AAO?$AAT?$AAG?$AA?3?$AA?3?$AAI?$AAn?$AAi?$AAt?$AA?3?$AA?5?$AAE?$AAR?$AAR?$AAO?$AAR?$AA?3?$AA?5?$AAf?$AAa?$AAi?$AAl?$AAe?$AAd?$AA?5?$AAt@| DCB "C"
	DCB	0x0, "A", 0x0, "M", 0x0, "3", 0x0, "5", 0x0, "x", 0x0, "O"
	DCB	0x0, "T", 0x0, "G", 0x0, ":", 0x0, ":", 0x0, "I", 0x0, "n"
	DCB	0x0, "i", 0x0, "t", 0x0, ":", 0x0, " ", 0x0, "E", 0x0, "R"
	DCB	0x0, "R", 0x0, "O", 0x0, "R", 0x0, ":", 0x0, " ", 0x0, "f"
	DCB	0x0, "a", 0x0, "i", 0x0, "l", 0x0, "e", 0x0, "d", 0x0, " "
	DCB	0x0, "t", 0x0, "o", 0x0, " ", 0x0, "c", 0x0, "r", 0x0, "e"
	DCB	0x0, "a", 0x0, "t", 0x0, "e", 0x0, " ", 0x0, "p", 0x0, "o"
	DCB	0x0, "l", 0x0, "l", 0x0, " ", 0x0, "t", 0x0, "h", 0x0, "r"
	DCB	0x0, "e", 0x0, "a", 0x0, "d", 0x0, 0xd, 0x0, 0xa, 0x0, 0x0
	DCB	0x0					; `string'

  00000			 AREA	 |.rdata|, DATA, READONLY
|??_C@_1HG@FEANEGDF@?$AAC?$AAA?$AAM?$AA3?$AA5?$AAx?$AAO?$AAT?$AAG?$AA?3?$AA?3?$AAI?$AAn?$AAi?$AAt?$AA?3?$AA?5?$AAE?$AAR?$AAR?$AAO?$AAR?$AA?3?$AA?5?$AAf?$AAa?$AAi?$AAl?$AAe?$AAd?$AA?5?$AAt@| DCB "C"
	DCB	0x0, "A", 0x0, "M", 0x0, "3", 0x0, "5", 0x0, "x", 0x0, "O"
	DCB	0x0, "T", 0x0, "G", 0x0, ":", 0x0, ":", 0x0, "I", 0x0, "n"
	DCB	0x0, "i", 0x0, "t", 0x0, ":", 0x0, " ", 0x0, "E", 0x0, "R"
	DCB	0x0, "R", 0x0, "O", 0x0, "R", 0x0, ":", 0x0, " ", 0x0, "f"
	DCB	0x0, "a", 0x0, "i", 0x0, "l", 0x0, "e", 0x0, "d", 0x0, " "
	DCB	0x0, "t", 0x0, "o", 0x0, " ", 0x0, "m", 0x0, "a", 0x0, "p"
	DCB	0x0, " ", 0x0, "h", 0x0, "a", 0x0, "r", 0x0, "d", 0x0, "w"
	DCB	0x0, "a", 0x0, "r", 0x0, "e", 0x0, " ", 0x0, "r", 0x0, "e"
	DCB	0x0, "g", 0x0, "i", 0x0, "s", 0x0, "t", 0x0, "e", 0x0, "r"
	DCB	0x0, "s", 0x0, 0xd, 0x0, 0xa, 0x0, 0x0, 0x0 ; `string'

  00000			 AREA	 |.rdata|, DATA, READONLY
|??_C@_1CK@JFACBFOB@?$AA?$CL?$AAC?$AAA?$AAM?$AA3?$AA5?$AAx?$AAO?$AAT?$AAG?$AA?3?$AA?3?$AAI?$AAn?$AAi?$AAt?$AA?$CI?$AA?$CJ?$AA?$AN?$AA?6?$AA?$AA@| DCB "+"
	DCB	0x0, "C", 0x0, "A", 0x0, "M", 0x0, "3", 0x0, "5", 0x0, "x"
	DCB	0x0, "O", 0x0, "T", 0x0, "G", 0x0, ":", 0x0, ":", 0x0, "I"
	DCB	0x0, "n", 0x0, "i", 0x0, "t", 0x0, "(", 0x0, ")", 0x0, 0xd
	DCB	0x0, 0xa, 0x0, 0x0, 0x0			; `string'
; Function compile flags: /Odtp

  00400			 AREA	 |.text|, CODE, ARM

  00400		 |?Init@CAM35xOTG@@UAAHXZ| PROC		; CAM35xOTG::Init

; 142  : {

  00400		 |$LN27@Init|
  00400	e1a0c00d	 mov         r12, sp
  00404	e92d0001	 stmdb       sp!, {r0}
  00408	e92d5000	 stmdb       sp!, {r12, lr}
  0040c	e24dd058	 sub         sp, sp, #0x58
  00410		 |$M40683|

; 143  :     PHYSICAL_ADDRESS PA;
; 144  :     BOOL rc = FALSE;

  00410	e3a03000	 mov         r3, #0
  00414	e58d300c	 str         r3, [sp, #0xC]

; 145  :     DWORD dwType, dwLength;
; 146  : 
; 147  :     DEBUGMSG(ZONE_OTG_FUNCTION,(TEXT("+CAM35xOTG::Init()\r\n")));

  00418	e59f32c0	 ldr         r3, [pc, #0x2C0]
  0041c	e5933440	 ldr         r3, [r3, #0x440]
  00420	e3130a02	 tst         r3, #2, 20
  00424	0a000004	 beq         |$LN13@Init|
  00428	e59f02d0	 ldr         r0, [pc, #0x2D0]
  0042c	eb000000	 bl          NKDbgPrintfW
  00430	e3a03001	 mov         r3, #1
  00434	e58d302c	 str         r3, [sp, #0x2C]
  00438	ea000001	 b           |$LN14@Init|
  0043c		 |$LN13@Init|
  0043c	e3a03000	 mov         r3, #0
  00440	e58d302c	 str         r3, [sp, #0x2C]
  00444		 |$LN14@Init|

; 148  : 
; 149  :     // Map USB registers
; 150  :     PA.QuadPart = AM3517_USB0_REGS_PA;

  00444	e3a03317	 mov         r3, #0x17, 6
  00448	e3833701	 orr         r3, r3, #1, 14
  0044c	e58d3014	 str         r3, [sp, #0x14]
  00450	e3a03000	 mov         r3, #0
  00454	e58d3018	 str         r3, [sp, #0x18]

; 151  :     m_pUsbRegs = (CSL_UsbRegs *)MmMapIoSpace (PA, sizeof(CSL_UsbRegs), FALSE);

  00458	e3a03000	 mov         r3, #0
  0045c	e3a02b02	 mov         r2, #2, 22
  00460	e3822018	 orr         r2, r2, #0x18
  00464	e59d0014	 ldr         r0, [sp, #0x14]
  00468	e59d1018	 ldr         r1, [sp, #0x18]
  0046c	eb000000	 bl          MmMapIoSpace
  00470	e58d0030	 str         r0, [sp, #0x30]
  00474	e59d3060	 ldr         r3, [sp, #0x60]
  00478	e28320ec	 add         r2, r3, #0xEC
  0047c	e59d3030	 ldr         r3, [sp, #0x30]
  00480	e5823000	 str         r3, [r2]

; 152  : 
; 153  :     // Map System Configuration registers
; 154  :     PA.QuadPart = (LONGLONG)OMAP_SYSC_GENERAL_REGS_PA;

  00484	e59f3270	 ldr         r3, [pc, #0x270]
  00488	e58d3014	 str         r3, [sp, #0x14]
  0048c	e3a03000	 mov         r3, #0
  00490	e58d3018	 str         r3, [sp, #0x18]

; 155  :     m_pSysConfRegs = (OMAP_SYSC_GENERAL_REGS*)MmMapIoSpace(PA, sizeof(OMAP_SYSC_GENERAL_REGS), FALSE);

  00494	e3a03000	 mov         r3, #0
  00498	e3a02ea6	 mov         r2, #0xA6, 28
  0049c	e59d0014	 ldr         r0, [sp, #0x14]
  004a0	e59d1018	 ldr         r1, [sp, #0x18]
  004a4	eb000000	 bl          MmMapIoSpace
  004a8	e58d0034	 str         r0, [sp, #0x34]
  004ac	e59d3060	 ldr         r3, [sp, #0x60]
  004b0	e28320e8	 add         r2, r3, #0xE8
  004b4	e59d3034	 ldr         r3, [sp, #0x34]
  004b8	e5823000	 str         r3, [r2]

; 156  : 
; 157  :     // Check registers mapped OK
; 158  :     if ((m_pUsbRegs == NULL)||
; 159  :         (m_pSysConfRegs == NULL))

  004bc	e59d3060	 ldr         r3, [sp, #0x60]
  004c0	e28330ec	 add         r3, r3, #0xEC
  004c4	e5933000	 ldr         r3, [r3]
  004c8	e3530000	 cmp         r3, #0
  004cc	0a000004	 beq         |$LN9@Init|
  004d0	e59d3060	 ldr         r3, [sp, #0x60]
  004d4	e28330e8	 add         r3, r3, #0xE8
  004d8	e5933000	 ldr         r3, [r3]
  004dc	e3530000	 cmp         r3, #0
  004e0	1a00000c	 bne         |$LN10@Init|
  004e4		 |$LN9@Init|

; 160  :     {
; 161  :         DEBUGMSG(ZONE_OTG_ERROR,(TEXT("CAM35xOTG::Init: ERROR: failed to map hardware registers\r\n")));

  004e4	e59f31f4	 ldr         r3, [pc, #0x1F4]
  004e8	e5933440	 ldr         r3, [r3, #0x440]
  004ec	e3130902	 tst         r3, #2, 18
  004f0	0a000004	 beq         |$LN15@Init|
  004f4	e59f01fc	 ldr         r0, [pc, #0x1FC]
  004f8	eb000000	 bl          NKDbgPrintfW
  004fc	e3a03001	 mov         r3, #1
  00500	e58d3038	 str         r3, [sp, #0x38]
  00504	ea000001	 b           |$LN16@Init|
  00508		 |$LN15@Init|
  00508	e3a03000	 mov         r3, #0
  0050c	e58d3038	 str         r3, [sp, #0x38]
  00510		 |$LN16@Init|

; 162  :         goto cleanUp;

  00510	ea00005f	 b           |$LN8@Init|
  00514	ea00005e	 b           |$cleanUp$40003|
  00518		 |$LN10@Init|

; 163  :     }
; 164  : 
; 165  :     if ((m_ActiveKeyPath != NULL)
; 166  :       &&(USBOTG::Init()))

  00518	e59d3060	 ldr         r3, [sp, #0x60]
  0051c	e28330e0	 add         r3, r3, #0xE0
  00520	e5933000	 ldr         r3, [r3]
  00524	e3530000	 cmp         r3, #0
  00528	0a000044	 beq         |$LN7@Init|
  0052c	e59d0060	 ldr         r0, [sp, #0x60]
  00530	eb000000	 bl          |?Init@USBOTG@@UAAHXZ|
  00534	e58d003c	 str         r0, [sp, #0x3C]
  00538	e59d303c	 ldr         r3, [sp, #0x3C]
  0053c	e3530000	 cmp         r3, #0
  00540	0a00003e	 beq         |$LN7@Init|

; 167  :     {
; 168  :         // Create thread to poll USB status
; 169  :         m_hPollThread = CreateThread(NULL, 0, PollThread, this, 0, NULL);

  00544	e3a03000	 mov         r3, #0
  00548	e58d3004	 str         r3, [sp, #4]
  0054c	e3a03000	 mov         r3, #0
  00550	e58d3000	 str         r3, [sp]
  00554	e59d3060	 ldr         r3, [sp, #0x60]
  00558	e59f2194	 ldr         r2, [pc, #0x194]
  0055c	e3a01000	 mov         r1, #0
  00560	e3a00000	 mov         r0, #0
  00564	eb000000	 bl          CreateThread
  00568	e58d0040	 str         r0, [sp, #0x40]
  0056c	e59d3060	 ldr         r3, [sp, #0x60]
  00570	e28320e4	 add         r2, r3, #0xE4
  00574	e59d3040	 ldr         r3, [sp, #0x40]
  00578	e5823000	 str         r3, [r2]

; 170  :         if (m_hPollThread == NULL)

  0057c	e59d3060	 ldr         r3, [sp, #0x60]
  00580	e28330e4	 add         r3, r3, #0xE4
  00584	e5933000	 ldr         r3, [r3]
  00588	e3530000	 cmp         r3, #0
  0058c	1a00000c	 bne         |$LN6@Init|

; 171  :         {
; 172  :             DEBUGMSG(ZONE_OTG_ERROR,(TEXT("CAM35xOTG::Init: ERROR: failed to create poll thread\r\n")));

  00590	e59f3148	 ldr         r3, [pc, #0x148]
  00594	e5933440	 ldr         r3, [r3, #0x440]
  00598	e3130902	 tst         r3, #2, 18
  0059c	0a000004	 beq         |$LN17@Init|
  005a0	e59f0148	 ldr         r0, [pc, #0x148]
  005a4	eb000000	 bl          NKDbgPrintfW
  005a8	e3a03001	 mov         r3, #1
  005ac	e58d3044	 str         r3, [sp, #0x44]
  005b0	ea000001	 b           |$LN18@Init|
  005b4		 |$LN17@Init|
  005b4	e3a03000	 mov         r3, #0
  005b8	e58d3044	 str         r3, [sp, #0x44]
  005bc		 |$LN18@Init|

; 173  :             goto cleanUp;

  005bc	ea000034	 b           |$LN5@Init|
  005c0	ea000033	 b           |$cleanUp$40003|
  005c4		 |$LN6@Init|

; 174  :         }
; 175  : 
; 176  :         // Determine if USB 1.1 is in use
; 177  : 		m_bUSB11Enabled = FALSE; // Not available on AM3517

  005c4	e59d3060	 ldr         r3, [sp, #0x60]
  005c8	e28320f8	 add         r2, r3, #0xF8
  005cc	e3a03000	 mov         r3, #0
  005d0	e5823000	 str         r3, [r2]

; 178  : 
; 179  :         // Read poll timeout from registry
; 180  :         if (!RegQueryValueEx((L"PollTimeout"),&dwType,(PBYTE)&m_PollTimeout,&dwLength)) 

  005d4	e28d3010	 add         r3, sp, #0x10
  005d8	e58d3000	 str         r3, [sp]
  005dc	e59d3060	 ldr         r3, [sp, #0x60]
  005e0	e28330f4	 add         r3, r3, #0xF4
  005e4	e28d2008	 add         r2, sp, #8
  005e8	e59f10fc	 ldr         r1, [pc, #0xFC]
  005ec	e59d0060	 ldr         r0, [sp, #0x60]
  005f0	e280002c	 add         r0, r0, #0x2C
  005f4	eb000000	 bl          |?RegQueryValueExW@CRegistryEdit@@QAAHPBGPAKPAE1@Z|
  005f8	e58d0048	 str         r0, [sp, #0x48]
  005fc	e59d3048	 ldr         r3, [sp, #0x48]
  00600	e3530000	 cmp         r3, #0
  00604	1a00000c	 bne         |$LN4@Init|

; 181  :         {
; 182  :             DEBUGMSG(ZONE_OTG_ERROR, (TEXT("CAM35xOTG::Init: Failed to read PollTimeout from registry\r\n")));

  00608	e59f30d0	 ldr         r3, [pc, #0xD0]
  0060c	e5933440	 ldr         r3, [r3, #0x440]
  00610	e3130902	 tst         r3, #2, 18
  00614	0a000004	 beq         |$LN19@Init|
  00618	e59f00c8	 ldr         r0, [pc, #0xC8]
  0061c	eb000000	 bl          NKDbgPrintfW
  00620	e3a03001	 mov         r3, #1
  00624	e58d304c	 str         r3, [sp, #0x4C]
  00628	ea000001	 b           |$LN20@Init|
  0062c		 |$LN19@Init|
  0062c	e3a03000	 mov         r3, #0
  00630	e58d304c	 str         r3, [sp, #0x4C]
  00634		 |$LN20@Init|

; 183  :             goto cleanUp;

  00634	ea000016	 b           |$LN3@Init|
  00638	ea000015	 b           |$cleanUp$40003|
  0063c		 |$LN4@Init|

; 184  :         }
; 185  :     }
; 186  :     else

  0063c	ea00000c	 b           |$LN2@Init|
  00640		 |$LN7@Init|

; 187  :     {
; 188  :         DEBUGMSG(ZONE_OTG_ERROR,(TEXT("CAM35xOTG::Init: ERROR: NULL ActiveKeyPath or base Init() failed\r\n")));

  00640	e59f3098	 ldr         r3, [pc, #0x98]
  00644	e5933440	 ldr         r3, [r3, #0x440]
  00648	e3130902	 tst         r3, #2, 18
  0064c	0a000004	 beq         |$LN21@Init|
  00650	e59f008c	 ldr         r0, [pc, #0x8C]
  00654	eb000000	 bl          NKDbgPrintfW
  00658	e3a03001	 mov         r3, #1
  0065c	e58d3050	 str         r3, [sp, #0x50]
  00660	ea000001	 b           |$LN22@Init|
  00664		 |$LN21@Init|
  00664	e3a03000	 mov         r3, #0
  00668	e58d3050	 str         r3, [sp, #0x50]
  0066c		 |$LN22@Init|

; 189  :         goto cleanUp;

  0066c	ea000008	 b           |$LN1@Init|
  00670	ea000007	 b           |$cleanUp$40003|
  00674		 |$LN2@Init|

; 190  :     }
; 191  : 
; 192  : 	m_RequestedPowerState = D0;

  00674	e59d3060	 ldr         r3, [sp, #0x60]
  00678	e28320d0	 add         r2, r3, #0xD0
  0067c	e3a03000	 mov         r3, #0
  00680	e5823000	 str         r3, [r2]

; 193  : 
; 194  : 	// Start the USB module
; 195  :     StartUSBModule();

  00684	e59d0060	 ldr         r0, [sp, #0x60]
  00688	eb000000	 bl          |?StartUSBModule@CAM35xOTG@@QAAXXZ|

; 196  : 
; 197  :     rc = TRUE;

  0068c	e3a03001	 mov         r3, #1
  00690	e58d300c	 str         r3, [sp, #0xC]
  00694		 |$LN1@Init|
  00694		 |$LN3@Init|
  00694		 |$LN5@Init|
  00694		 |$LN8@Init|
  00694		 |$cleanUp$40003|

; 198  : 
; 199  : cleanUp:
; 200  :     DEBUGMSG(ZONE_OTG_FUNCTION,(TEXT("-CAM35xOTG::Init(%d)\r\n"), rc));

  00694	e59f3044	 ldr         r3, [pc, #0x44]
  00698	e5933440	 ldr         r3, [r3, #0x440]
  0069c	e3130a02	 tst         r3, #2, 20
  006a0	0a000005	 beq         |$LN23@Init|
  006a4	e59d100c	 ldr         r1, [sp, #0xC]
  006a8	e59f002c	 ldr         r0, [pc, #0x2C]
  006ac	eb000000	 bl          NKDbgPrintfW
  006b0	e3a03001	 mov         r3, #1
  006b4	e58d3054	 str         r3, [sp, #0x54]
  006b8	ea000001	 b           |$LN24@Init|
  006bc		 |$LN23@Init|
  006bc	e3a03000	 mov         r3, #0
  006c0	e58d3054	 str         r3, [sp, #0x54]
  006c4		 |$LN24@Init|

; 201  :     return rc;

  006c4	e59d300c	 ldr         r3, [sp, #0xC]
  006c8	e58d3028	 str         r3, [sp, #0x28]

; 202  : }

  006cc	e59d0028	 ldr         r0, [sp, #0x28]
  006d0	e28dd058	 add         sp, sp, #0x58
  006d4	e89d6000	 ldmia       sp, {sp, lr}
  006d8	e12fff1e	 bx          lr
  006dc		 |$LN28@Init|
  006dc		 |$LN29@Init|
  006dc	00000000	 DCD         |??_C@_1CO@JBJLOJJA@?$AA?9?$AAC?$AAA?$AAM?$AA3?$AA5?$AAx?$AAO?$AAT?$AAG?$AA?3?$AA?3?$AAI?$AAn?$AAi?$AAt?$AA?$CI?$AA?$CF?$AAd?$AA?$CJ?$AA?$AN?$AA?6?$AA?$AA@|
  006e0		 |$LN30@Init|
  006e0	00000000	 DCD         |dpCurSettings|
  006e4		 |$LN31@Init|
  006e4	00000000	 DCD         |??_C@_1IG@BHCIGOHM@?$AAC?$AAA?$AAM?$AA3?$AA5?$AAx?$AAO?$AAT?$AAG?$AA?3?$AA?3?$AAI?$AAn?$AAi?$AAt?$AA?3?$AA?5?$AAE?$AAR?$AAR?$AAO?$AAR?$AA?3?$AA?5?$AAN?$AAU?$AAL?$AAL?$AA?5?$AAA?$AAc?$AAt@|
  006e8		 |$LN32@Init|
  006e8	00000000	 DCD         |??_C@_1HI@MGINACGH@?$AAC?$AAA?$AAM?$AA3?$AA5?$AAx?$AAO?$AAT?$AAG?$AA?3?$AA?3?$AAI?$AAn?$AAi?$AAt?$AA?3?$AA?5?$AAF?$AAa?$AAi?$AAl?$AAe?$AAd?$AA?5?$AAt?$AAo?$AA?5?$AAr?$AAe?$AAa?$AAd?$AA?5@|
  006ec		 |$LN33@Init|
  006ec	00000000	 DCD         |??_C@_1BI@JFGLCKEJ@?$AAP?$AAo?$AAl?$AAl?$AAT?$AAi?$AAm?$AAe?$AAo?$AAu?$AAt?$AA?$AA@|
  006f0		 |$LN34@Init|
  006f0	00000000	 DCD         |??_C@_1GO@MPLFHIJK@?$AAC?$AAA?$AAM?$AA3?$AA5?$AAx?$AAO?$AAT?$AAG?$AA?3?$AA?3?$AAI?$AAn?$AAi?$AAt?$AA?3?$AA?5?$AAE?$AAR?$AAR?$AAO?$AAR?$AA?3?$AA?5?$AAf?$AAa?$AAi?$AAl?$AAe?$AAd?$AA?5?$AAt@|
  006f4		 |$LN35@Init|
  006f4	00000000	 DCD         |?PollThread@CAM35xOTG@@KAKPAX@Z|
  006f8		 |$LN36@Init|
  006f8	00000000	 DCD         |??_C@_1HG@FEANEGDF@?$AAC?$AAA?$AAM?$AA3?$AA5?$AAx?$AAO?$AAT?$AAG?$AA?3?$AA?3?$AAI?$AAn?$AAi?$AAt?$AA?3?$AA?5?$AAE?$AAR?$AAR?$AAO?$AAR?$AA?3?$AA?5?$AAf?$AAa?$AAi?$AAl?$AAe?$AAd?$AA?5?$AAt@|
  006fc		 |$LN37@Init|
  006fc	48002270	 DCD         0x48002270
  00700		 |$LN38@Init|
  00700	00000000	 DCD         |??_C@_1CK@JFACBFOB@?$AA?$CL?$AAC?$AAA?$AAM?$AA3?$AA5?$AAx?$AAO?$AAT?$AAG?$AA?3?$AA?3?$AAI?$AAn?$AAi?$AAt?$AA?$CI?$AA?$CJ?$AA?$AN?$AA?6?$AA?$AA@|
  00704		 |$M40684|

			 ENDP  ; |?Init@CAM35xOTG@@UAAHXZ|, CAM35xOTG::Init

	IMPORT	|RegQueryValueExW|
; File c:\wince600\public\common\oak\inc\cregedit.h

  00000			 AREA	 |.pdata|, PDATA
|$T40707| DCD	|$LN7@RegQueryVa|
	DCD	0x40001f04
; Function compile flags: /Odtp

  00000			 AREA	 |.text|, CODE, ARM

  00000		 |?RegQueryValueExW@CRegistryEdit@@QAAHPBGPAKPAE1@Z| PROC ; CRegistryEdit::RegQueryValueExW

; 145  :     {

  00000		 |$LN7@RegQueryVa|
  00000	e1a0c00d	 mov         r12, sp
  00004	e92d000f	 stmdb       sp!, {r0 - r3}
  00008	e92d5000	 stmdb       sp!, {r12, lr}
  0000c	e24dd020	 sub         sp, sp, #0x20
  00010		 |$M40704|

; 146  :         LONG status = ::RegQueryValueEx( m_hDevKey,
; 147  :                                            lpcName,
; 148  :                                            NULL,
; 149  :                                            pdwType,
; 150  :                                            lpData,
; 151  :                                            pdwDataLen );

  00010	e59d3038	 ldr         r3, [sp, #0x38]
  00014	e58d3004	 str         r3, [sp, #4]
  00018	e59d3034	 ldr         r3, [sp, #0x34]
  0001c	e58d3000	 str         r3, [sp]
  00020	e59d3030	 ldr         r3, [sp, #0x30]
  00024	e3a02000	 mov         r2, #0
  00028	e59d102c	 ldr         r1, [sp, #0x2C]
  0002c	e59d0028	 ldr         r0, [sp, #0x28]
  00030	e5900000	 ldr         r0, [r0]
  00034	eb000000	 bl          RegQueryValueExW
  00038	e58d0018	 str         r0, [sp, #0x18]
  0003c	e59d3018	 ldr         r3, [sp, #0x18]
  00040	e58d3008	 str         r3, [sp, #8]

; 152  :         return ( status == ERROR_SUCCESS );

  00044	e59d3008	 ldr         r3, [sp, #8]
  00048	e3530000	 cmp         r3, #0
  0004c	1a000002	 bne         |$LN3@RegQueryVa|
  00050	e3a03001	 mov         r3, #1
  00054	e58d301c	 str         r3, [sp, #0x1C]
  00058	ea000001	 b           |$LN4@RegQueryVa|
  0005c		 |$LN3@RegQueryVa|
  0005c	e3a03000	 mov         r3, #0
  00060	e58d301c	 str         r3, [sp, #0x1C]
  00064		 |$LN4@RegQueryVa|
  00064	e59d301c	 ldr         r3, [sp, #0x1C]
  00068	e58d3014	 str         r3, [sp, #0x14]

; 153  :     };

  0006c	e59d0014	 ldr         r0, [sp, #0x14]
  00070	e28dd020	 add         sp, sp, #0x20
  00074	e89d6000	 ldmia       sp, {sp, lr}
  00078	e12fff1e	 bx          lr
  0007c		 |$M40705|

			 ENDP  ; |?RegQueryValueExW@CRegistryEdit@@QAAHPBGPAKPAE1@Z|, CRegistryEdit::RegQueryValueExW

	EXPORT	|??_C@_1DG@BDLOGJCF@?$AA?9?$AAC?$AAA?$AAM?$AA3?$AA5?$AAx?$AAO?$AAT?$AAG?$AA?3?$AA?3?$AAP?$AAo?$AAs?$AAt?$AAI?$AAn?$AAi?$AAt?$AA?$CI?$AA?$CF?$AAd?$AA?$CJ?$AA?$AN?$AA?6?$AA?$AA@| [ DATA ] ; `string'
	EXPORT	|??_C@_1DC@GDJBGEEN@?$AA?$CL?$AAC?$AAA?$AAM?$AA3?$AA5?$AAx?$AAO?$AAT?$AAG?$AA?3?$AA?3?$AAP?$AAo?$AAs?$AAt?$AAI?$AAn?$AAi?$AAt?$AA?$CI?$AA?$CJ?$AA?$AN?$AA?6?$AA?$AA@| [ DATA ] ; `string'
	IMPORT	|?PostInit@USBOTG@@UAAHXZ|		; USBOTG::PostInit

  00020			 AREA	 |.pdata|, PDATA
|$T40719| DCD	|$LN9@PostInit|
	DCD	0x40003604
; File c:\wince600\platform\common\src\soc\common_ti_v1\am3517\usb\usbotg\usbotgpdd.cpp

  00000			 AREA	 |.rdata|, DATA, READONLY
|??_C@_1DG@BDLOGJCF@?$AA?9?$AAC?$AAA?$AAM?$AA3?$AA5?$AAx?$AAO?$AAT?$AAG?$AA?3?$AA?3?$AAP?$AAo?$AAs?$AAt?$AAI?$AAn?$AAi?$AAt?$AA?$CI?$AA?$CF?$AAd?$AA?$CJ?$AA?$AN?$AA?6?$AA?$AA@| DCB "-"
	DCB	0x0, "C", 0x0, "A", 0x0, "M", 0x0, "3", 0x0, "5", 0x0, "x"
	DCB	0x0, "O", 0x0, "T", 0x0, "G", 0x0, ":", 0x0, ":", 0x0, "P"
	DCB	0x0, "o", 0x0, "s", 0x0, "t", 0x0, "I", 0x0, "n", 0x0, "i"
	DCB	0x0, "t", 0x0, "(", 0x0, "%", 0x0, "d", 0x0, ")", 0x0, 0xd
	DCB	0x0, 0xa, 0x0, 0x0, 0x0			; `string'

  00000			 AREA	 |.rdata|, DATA, READONLY
|??_C@_1DC@GDJBGEEN@?$AA?$CL?$AAC?$AAA?$AAM?$AA3?$AA5?$AAx?$AAO?$AAT?$AAG?$AA?3?$AA?3?$AAP?$AAo?$AAs?$AAt?$AAI?$AAn?$AAi?$AAt?$AA?$CI?$AA?$CJ?$AA?$AN?$AA?6?$AA?$AA@| DCB "+"
	DCB	0x0, "C", 0x0, "A", 0x0, "M", 0x0, "3", 0x0, "5", 0x0, "x"
	DCB	0x0, "O", 0x0, "T", 0x0, "G", 0x0, ":", 0x0, ":", 0x0, "P"
	DCB	0x0, "o", 0x0, "s", 0x0, "t", 0x0, "I", 0x0, "n", 0x0, "i"
	DCB	0x0, "t", 0x0, "(", 0x0, ")", 0x0, 0xd, 0x0, 0xa, 0x0, 0x0
	DCB	0x0					; `string'
; Function compile flags: /Odtp

  00704			 AREA	 |.text|, CODE, ARM

  00704		 |?PostInit@CAM35xOTG@@UAAHXZ| PROC	; CAM35xOTG::PostInit

; 205  : {

  00704		 |$LN9@PostInit|
  00704	e1a0c00d	 mov         r12, sp
  00708	e92d0001	 stmdb       sp!, {r0}
  0070c	e92d5000	 stmdb       sp!, {r12, lr}
  00710	e24dd014	 sub         sp, sp, #0x14
  00714		 |$M40716|

; 206  :     BOOL rc = FALSE;

  00714	e3a03000	 mov         r3, #0
  00718	e58d3000	 str         r3, [sp]

; 207  :     DEBUGMSG(ZONE_OTG_FUNCTION,(TEXT("+CAM35xOTG::PostInit()\r\n")));

  0071c	e59f30b0	 ldr         r3, [pc, #0xB0]
  00720	e5933440	 ldr         r3, [r3, #0x440]
  00724	e3130a02	 tst         r3, #2, 20
  00728	0a000004	 beq         |$LN3@PostInit|
  0072c	e59f00a4	 ldr         r0, [pc, #0xA4]
  00730	eb000000	 bl          NKDbgPrintfW
  00734	e3a03001	 mov         r3, #1
  00738	e58d3008	 str         r3, [sp, #8]
  0073c	ea000001	 b           |$LN4@PostInit|
  00740		 |$LN3@PostInit|
  00740	e3a03000	 mov         r3, #0
  00744	e58d3008	 str         r3, [sp, #8]
  00748		 |$LN4@PostInit|

; 208  : 
; 209  :     // Default setting to be client mode
; 210  :     m_UsbOtgState = USBOTG_b_idle;

  00748	e59d301c	 ldr         r3, [sp, #0x1C]
  0074c	e2832070	 add         r2, r3, #0x70
  00750	e3a03009	 mov         r3, #9
  00754	e5823000	 str         r3, [r2]

; 211  :     m_UsbOtgInput.bit.id = 1;

  00758	e59d301c	 ldr         r3, [sp, #0x1C]
  0075c	e283304c	 add         r3, r3, #0x4C
  00760	e5933000	 ldr         r3, [r3]
  00764	e3832902	 orr         r2, r3, #2, 18
  00768	e59d301c	 ldr         r3, [sp, #0x1C]
  0076c	e283304c	 add         r3, r3, #0x4C
  00770	e5832000	 str         r2, [r3]

; 212  :     rc = USBOTG::PostInit();

  00774	e59d001c	 ldr         r0, [sp, #0x1C]
  00778	eb000000	 bl          |?PostInit@USBOTG@@UAAHXZ|
  0077c	e58d000c	 str         r0, [sp, #0xC]
  00780	e59d300c	 ldr         r3, [sp, #0xC]
  00784	e58d3000	 str         r3, [sp]

; 213  : 
; 214  :     DEBUGMSG(ZONE_OTG_FUNCTION,(TEXT("-CAM35xOTG::PostInit(%d)\r\n"), rc));

  00788	e59f3044	 ldr         r3, [pc, #0x44]
  0078c	e5933440	 ldr         r3, [r3, #0x440]
  00790	e3130a02	 tst         r3, #2, 20
  00794	0a000005	 beq         |$LN5@PostInit|
  00798	e59d1000	 ldr         r1, [sp]
  0079c	e59f002c	 ldr         r0, [pc, #0x2C]
  007a0	eb000000	 bl          NKDbgPrintfW
  007a4	e3a03001	 mov         r3, #1
  007a8	e58d3010	 str         r3, [sp, #0x10]
  007ac	ea000001	 b           |$LN6@PostInit|
  007b0		 |$LN5@PostInit|
  007b0	e3a03000	 mov         r3, #0
  007b4	e58d3010	 str         r3, [sp, #0x10]
  007b8		 |$LN6@PostInit|

; 215  :     return rc;

  007b8	e59d3000	 ldr         r3, [sp]
  007bc	e58d3004	 str         r3, [sp, #4]

; 216  : }

  007c0	e59d0004	 ldr         r0, [sp, #4]
  007c4	e28dd014	 add         sp, sp, #0x14
  007c8	e89d6000	 ldmia       sp, {sp, lr}
  007cc	e12fff1e	 bx          lr
  007d0		 |$LN10@PostInit|
  007d0		 |$LN11@PostInit|
  007d0	00000000	 DCD         |??_C@_1DG@BDLOGJCF@?$AA?9?$AAC?$AAA?$AAM?$AA3?$AA5?$AAx?$AAO?$AAT?$AAG?$AA?3?$AA?3?$AAP?$AAo?$AAs?$AAt?$AAI?$AAn?$AAi?$AAt?$AA?$CI?$AA?$CF?$AAd?$AA?$CJ?$AA?$AN?$AA?6?$AA?$AA@|
  007d4		 |$LN12@PostInit|
  007d4	00000000	 DCD         |dpCurSettings|
  007d8		 |$LN13@PostInit|
  007d8	00000000	 DCD         |??_C@_1DC@GDJBGEEN@?$AA?$CL?$AAC?$AAA?$AAM?$AA3?$AA5?$AAx?$AAO?$AAT?$AAG?$AA?3?$AA?3?$AAP?$AAo?$AAs?$AAt?$AAI?$AAn?$AAi?$AAt?$AA?$CI?$AA?$CJ?$AA?$AN?$AA?6?$AA?$AA@|
  007dc		 |$M40717|

			 ENDP  ; |?PostInit@CAM35xOTG@@UAAHXZ|, CAM35xOTG::PostInit

	EXPORT	|??_C@_1DG@ONPDLFKM@?$AA?9?$AAC?$AAA?$AAM?$AA3?$AA5?$AAx?$AAO?$AAT?$AAG?$AA?3?$AA?3?$AA?$HO?$AAC?$AAA?$AAM?$AA3?$AA5?$AAx?$AAO?$AAT?$AAG?$AA?$CI?$AA?$CJ?$AA?$AN?$AA?6?$AA?$AA@| [ DATA ] ; `string'
	EXPORT	|??_C@_1GM@HPNCAHCD@?$AAC?$AAA?$AAM?$AA3?$AA5?$AAx?$AAO?$AAT?$AAG?$AA?3?$AA?3?$AA?$HO?$AAC?$AAA?$AAM?$AA3?$AA5?$AAx?$AAO?$AAT?$AAG?$AA?$CI?$AA?$CJ?$AA?3?$AA?5?$AAt?$AAe?$AAr?$AAm?$AAi?$AAn?$AAa@| [ DATA ] ; `string'
	EXPORT	|SetEvent|
	EXPORT	|??_C@_1DG@OICOEABI@?$AA?$CL?$AAC?$AAA?$AAM?$AA3?$AA5?$AAx?$AAO?$AAT?$AAG?$AA?3?$AA?3?$AA?$HO?$AAC?$AAA?$AAM?$AA3?$AA5?$AAx?$AAO?$AAT?$AAG?$AA?$CI?$AA?$CJ?$AA?$AN?$AA?6?$AA?$AA@| [ DATA ] ; `string'
	IMPORT	|??1USBOTG@@UAA@XZ|			; USBOTG::~USBOTG
	IMPORT	|MmUnmapIoSpace|
	IMPORT	|CloseHandle|
	IMPORT	|TerminateThread|
	IMPORT	|WaitForSingleObject|

  00028			 AREA	 |.pdata|, PDATA
|$T40734| DCD	|$LN14@CAM35xOTG@2|
	DCD	0x40006504

  00000			 AREA	 |.rdata|, DATA, READONLY
|??_C@_1DG@ONPDLFKM@?$AA?9?$AAC?$AAA?$AAM?$AA3?$AA5?$AAx?$AAO?$AAT?$AAG?$AA?3?$AA?3?$AA?$HO?$AAC?$AAA?$AAM?$AA3?$AA5?$AAx?$AAO?$AAT?$AAG?$AA?$CI?$AA?$CJ?$AA?$AN?$AA?6?$AA?$AA@| DCB "-"
	DCB	0x0, "C", 0x0, "A", 0x0, "M", 0x0, "3", 0x0, "5", 0x0, "x"
	DCB	0x0, "O", 0x0, "T", 0x0, "G", 0x0, ":", 0x0, ":", 0x0, "~"
	DCB	0x0, "C", 0x0, "A", 0x0, "M", 0x0, "3", 0x0, "5", 0x0, "x"
	DCB	0x0, "O", 0x0, "T", 0x0, "G", 0x0, "(", 0x0, ")", 0x0, 0xd
	DCB	0x0, 0xa, 0x0, 0x0, 0x0			; `string'

  00000			 AREA	 |.rdata|, DATA, READONLY
|??_C@_1GM@HPNCAHCD@?$AAC?$AAA?$AAM?$AA3?$AA5?$AAx?$AAO?$AAT?$AAG?$AA?3?$AA?3?$AA?$HO?$AAC?$AAA?$AAM?$AA3?$AA5?$AAx?$AAO?$AAT?$AAG?$AA?$CI?$AA?$CJ?$AA?3?$AA?5?$AAt?$AAe?$AAr?$AAm?$AAi?$AAn?$AAa@| DCB "C"
	DCB	0x0, "A", 0x0, "M", 0x0, "3", 0x0, "5", 0x0, "x", 0x0, "O"
	DCB	0x0, "T", 0x0, "G", 0x0, ":", 0x0, ":", 0x0, "~", 0x0, "C"
	DCB	0x0, "A", 0x0, "M", 0x0, "3", 0x0, "5", 0x0, "x", 0x0, "O"
	DCB	0x0, "T", 0x0, "G", 0x0, "(", 0x0, ")", 0x0, ":", 0x0, " "
	DCB	0x0, "t", 0x0, "e", 0x0, "r", 0x0, "m", 0x0, "i", 0x0, "n"
	DCB	0x0, "a", 0x0, "t", 0x0, "i", 0x0, "n", 0x0, "g", 0x0, " "
	DCB	0x0, "p", 0x0, "o", 0x0, "l", 0x0, "l", 0x0, " ", 0x0, "t"
	DCB	0x0, "h", 0x0, "r", 0x0, "e", 0x0, "a", 0x0, "d", 0x0, "."
	DCB	0x0, ".", 0x0, ".", 0x0, 0xd, 0x0, 0xa, 0x0, 0x0, 0x0 ; `string'

  00000			 AREA	 |.rdata|, DATA, READONLY
|??_C@_1DG@OICOEABI@?$AA?$CL?$AAC?$AAA?$AAM?$AA3?$AA5?$AAx?$AAO?$AAT?$AAG?$AA?3?$AA?3?$AA?$HO?$AAC?$AAA?$AAM?$AA3?$AA5?$AAx?$AAO?$AAT?$AAG?$AA?$CI?$AA?$CJ?$AA?$AN?$AA?6?$AA?$AA@| DCB "+"
	DCB	0x0, "C", 0x0, "A", 0x0, "M", 0x0, "3", 0x0, "5", 0x0, "x"
	DCB	0x0, "O", 0x0, "T", 0x0, "G", 0x0, ":", 0x0, ":", 0x0, "~"
	DCB	0x0, "C", 0x0, "A", 0x0, "M", 0x0, "3", 0x0, "5", 0x0, "x"
	DCB	0x0, "O", 0x0, "T", 0x0, "G", 0x0, "(", 0x0, ")", 0x0, 0xd
	DCB	0x0, 0xa, 0x0, 0x0, 0x0			; `string'
; Function compile flags: /Odtp

  007dc			 AREA	 |.text|, CODE, ARM

  007dc		 |??1CAM35xOTG@@UAA@XZ| PROC		; CAM35xOTG::~CAM35xOTG

; 219  : {

  007dc		 |$LN14@CAM35xOTG@2|
  007dc	e1a0c00d	 mov         r12, sp
  007e0	e92d0001	 stmdb       sp!, {r0}
  007e4	e92d5000	 stmdb       sp!, {r12, lr}
  007e8	e24dd010	 sub         sp, sp, #0x10
  007ec		 |$M40731|
  007ec	e59f2178	 ldr         r2, [pc, #0x178]
  007f0	e59d3018	 ldr         r3, [sp, #0x18]
  007f4	e5832000	 str         r2, [r3]

; 220  :     DEBUGMSG(ZONE_OTG_FUNCTION,(TEXT("+CAM35xOTG::~CAM35xOTG()\r\n")));

  007f8	e59f3160	 ldr         r3, [pc, #0x160]
  007fc	e5933440	 ldr         r3, [r3, #0x440]
  00800	e3130a02	 tst         r3, #2, 20
  00804	0a000004	 beq         |$LN6@CAM35xOTG@2|
  00808	e59f0158	 ldr         r0, [pc, #0x158]
  0080c	eb000000	 bl          NKDbgPrintfW
  00810	e3a03001	 mov         r3, #1
  00814	e58d3000	 str         r3, [sp]
  00818	ea000001	 b           |$LN7@CAM35xOTG@2|
  0081c		 |$LN6@CAM35xOTG@2|
  0081c	e3a03000	 mov         r3, #0
  00820	e58d3000	 str         r3, [sp]
  00824		 |$LN7@CAM35xOTG@2|

; 221  : 
; 222  :     // Terminate polling thread
; 223  :     SetEvent(m_hPollThreadExitEvent);

  00824	e59d3018	 ldr         r3, [sp, #0x18]
  00828	e28330f0	 add         r3, r3, #0xF0
  0082c	e5930000	 ldr         r0, [r3]
  00830	eb000000	 bl          SetEvent

; 224  :     if(WaitForSingleObject(m_hPollThread, m_PollTimeout) == WAIT_TIMEOUT)

  00834	e59d3018	 ldr         r3, [sp, #0x18]
  00838	e28330f4	 add         r3, r3, #0xF4
  0083c	e5931000	 ldr         r1, [r3]
  00840	e59d3018	 ldr         r3, [sp, #0x18]
  00844	e28330e4	 add         r3, r3, #0xE4
  00848	e5930000	 ldr         r0, [r3]
  0084c	eb000000	 bl          WaitForSingleObject
  00850	e58d0004	 str         r0, [sp, #4]
  00854	e59d2004	 ldr         r2, [sp, #4]
  00858	e3a03c01	 mov         r3, #1, 24
  0085c	e3833002	 orr         r3, r3, #2
  00860	e1520003	 cmp         r2, r3
  00864	1a00000f	 bne         |$LN3@CAM35xOTG@2|

; 225  :     {
; 226  :         // force thread termination
; 227  :         DEBUGMSG(ZONE_OTG_FUNCTION,(TEXT("CAM35xOTG::~CAM35xOTG(): terminating poll thread...\r\n")));

  00868	e59f30f0	 ldr         r3, [pc, #0xF0]
  0086c	e5933440	 ldr         r3, [r3, #0x440]
  00870	e3130a02	 tst         r3, #2, 20
  00874	0a000004	 beq         |$LN8@CAM35xOTG@2|
  00878	e59f00e4	 ldr         r0, [pc, #0xE4]
  0087c	eb000000	 bl          NKDbgPrintfW
  00880	e3a03001	 mov         r3, #1
  00884	e58d3008	 str         r3, [sp, #8]
  00888	ea000001	 b           |$LN9@CAM35xOTG@2|
  0088c		 |$LN8@CAM35xOTG@2|
  0088c	e3a03000	 mov         r3, #0
  00890	e58d3008	 str         r3, [sp, #8]
  00894		 |$LN9@CAM35xOTG@2|

; 228  : #pragma warning(push)
; 229  : #pragma warning(disable: 6258)
; 230  :         TerminateThread(m_hPollThread, 0);

  00894	e3a01000	 mov         r1, #0
  00898	e59d3018	 ldr         r3, [sp, #0x18]
  0089c	e28330e4	 add         r3, r3, #0xE4
  008a0	e5930000	 ldr         r0, [r3]
  008a4	eb000000	 bl          TerminateThread
  008a8		 |$LN3@CAM35xOTG@2|

; 231  : #pragma warning(push)
; 232  :     }
; 233  : 
; 234  :     // Clean up event handle
; 235  :     CloseHandle(m_hPollThreadExitEvent);

  008a8	e59d3018	 ldr         r3, [sp, #0x18]
  008ac	e28330f0	 add         r3, r3, #0xF0
  008b0	e5930000	 ldr         r0, [r3]
  008b4	eb000000	 bl          CloseHandle

; 236  :     CloseHandle(m_hPollThread);

  008b8	e59d3018	 ldr         r3, [sp, #0x18]
  008bc	e28330e4	 add         r3, r3, #0xE4
  008c0	e5930000	 ldr         r0, [r3]
  008c4	eb000000	 bl          CloseHandle

; 237  : 
; 238  :     // Deallocate hardware register pointers
; 239  :     if (m_pUsbRegs)

  008c8	e59d3018	 ldr         r3, [sp, #0x18]
  008cc	e28330ec	 add         r3, r3, #0xEC
  008d0	e5933000	 ldr         r3, [r3]
  008d4	e3530000	 cmp         r3, #0
  008d8	0a000005	 beq         |$LN2@CAM35xOTG@2|

; 240  :         MmUnmapIoSpace(m_pUsbRegs, sizeof(CSL_UsbRegs));

  008dc	e3a01b02	 mov         r1, #2, 22
  008e0	e3811018	 orr         r1, r1, #0x18
  008e4	e59d3018	 ldr         r3, [sp, #0x18]
  008e8	e28330ec	 add         r3, r3, #0xEC
  008ec	e5930000	 ldr         r0, [r3]
  008f0	eb000000	 bl          MmUnmapIoSpace
  008f4		 |$LN2@CAM35xOTG@2|

; 241  :     if (m_pSysConfRegs)

  008f4	e59d3018	 ldr         r3, [sp, #0x18]
  008f8	e28330e8	 add         r3, r3, #0xE8
  008fc	e5933000	 ldr         r3, [r3]
  00900	e3530000	 cmp         r3, #0
  00904	0a000004	 beq         |$LN1@CAM35xOTG@2|

; 242  :         MmUnmapIoSpace(m_pSysConfRegs, sizeof(OMAP_SYSC_GENERAL_REGS));

  00908	e3a01ea6	 mov         r1, #0xA6, 28
  0090c	e59d3018	 ldr         r3, [sp, #0x18]
  00910	e28330e8	 add         r3, r3, #0xE8
  00914	e5930000	 ldr         r0, [r3]
  00918	eb000000	 bl          MmUnmapIoSpace
  0091c		 |$LN1@CAM35xOTG@2|

; 243  : 
; 244  :     DEBUGMSG(ZONE_OTG_FUNCTION,(TEXT("-CAM35xOTG::~CAM35xOTG()\r\n")));

  0091c	e59f303c	 ldr         r3, [pc, #0x3C]
  00920	e5933440	 ldr         r3, [r3, #0x440]
  00924	e3130a02	 tst         r3, #2, 20
  00928	0a000004	 beq         |$LN10@CAM35xOTG@2|
  0092c	e59f0028	 ldr         r0, [pc, #0x28]
  00930	eb000000	 bl          NKDbgPrintfW
  00934	e3a03001	 mov         r3, #1
  00938	e58d300c	 str         r3, [sp, #0xC]
  0093c	ea000001	 b           |$LN11@CAM35xOTG@2|
  00940		 |$LN10@CAM35xOTG@2|
  00940	e3a03000	 mov         r3, #0
  00944	e58d300c	 str         r3, [sp, #0xC]
  00948		 |$LN11@CAM35xOTG@2|

; 245  : }

  00948	e59d0018	 ldr         r0, [sp, #0x18]
  0094c	eb000000	 bl          |??1USBOTG@@UAA@XZ|
  00950	e28dd010	 add         sp, sp, #0x10
  00954	e89d6000	 ldmia       sp, {sp, lr}
  00958	e12fff1e	 bx          lr
  0095c		 |$LN15@CAM35xOTG@2|
  0095c		 |$LN16@CAM35xOTG@2|
  0095c	00000000	 DCD         |??_C@_1DG@ONPDLFKM@?$AA?9?$AAC?$AAA?$AAM?$AA3?$AA5?$AAx?$AAO?$AAT?$AAG?$AA?3?$AA?3?$AA?$HO?$AAC?$AAA?$AAM?$AA3?$AA5?$AAx?$AAO?$AAT?$AAG?$AA?$CI?$AA?$CJ?$AA?$AN?$AA?6?$AA?$AA@|
  00960		 |$LN17@CAM35xOTG@2|
  00960	00000000	 DCD         |dpCurSettings|
  00964		 |$LN18@CAM35xOTG@2|
  00964	00000000	 DCD         |??_C@_1GM@HPNCAHCD@?$AAC?$AAA?$AAM?$AA3?$AA5?$AAx?$AAO?$AAT?$AAG?$AA?3?$AA?3?$AA?$HO?$AAC?$AAA?$AAM?$AA3?$AA5?$AAx?$AAO?$AAT?$AAG?$AA?$CI?$AA?$CJ?$AA?3?$AA?5?$AAt?$AAe?$AAr?$AAm?$AAi?$AAn?$AAa@|
  00968		 |$LN19@CAM35xOTG@2|
  00968	00000000	 DCD         |??_C@_1DG@OICOEABI@?$AA?$CL?$AAC?$AAA?$AAM?$AA3?$AA5?$AAx?$AAO?$AAT?$AAG?$AA?3?$AA?3?$AA?$HO?$AAC?$AAA?$AAM?$AA3?$AA5?$AAx?$AAO?$AAT?$AAG?$AA?$CI?$AA?$CJ?$AA?$AN?$AA?6?$AA?$AA@|
  0096c		 |$LN20@CAM35xOTG@2|
  0096c	00000000	 DCD         |??_7CAM35xOTG@@6B@|
  00970		 |$M40732|

			 ENDP  ; |??1CAM35xOTG@@UAA@XZ|, CAM35xOTG::~CAM35xOTG

	IMPORT	|EventModify|
; File c:\wince600\public\common\sdk\inc\kfuncs.h

  00000			 AREA	 |.pdata|, PDATA
|$T40746| DCD	|$LN5@SetEvent|
	DCD	0x40000e04
; Function compile flags: /Odtp

  00000			 AREA	 |.text|, CODE, ARM

  00000		 |SetEvent| PROC

; 235  : _inline BOOL SetEvent(HANDLE h) {

  00000		 |$LN5@SetEvent|
  00000	e1a0c00d	 mov         r12, sp
  00004	e92d0001	 stmdb       sp!, {r0}
  00008	e92d5000	 stmdb       sp!, {r12, lr}
  0000c	e24dd008	 sub         sp, sp, #8
  00010		 |$M40743|

; 236  : 	return EventModify(h,EVENT_SET);

  00010	e3a01003	 mov         r1, #3
  00014	e59d0010	 ldr         r0, [sp, #0x10]
  00018	eb000000	 bl          EventModify
  0001c	e58d0004	 str         r0, [sp, #4]
  00020	e59d3004	 ldr         r3, [sp, #4]
  00024	e58d3000	 str         r3, [sp]

; 237  : }

  00028	e59d0000	 ldr         r0, [sp]
  0002c	e28dd008	 add         sp, sp, #8
  00030	e89d6000	 ldmia       sp, {sp, lr}
  00034	e12fff1e	 bx          lr
  00038		 |$M40744|

			 ENDP  ; |SetEvent|

	EXPORT	|??_C@_1DA@JCOOMJEC@?$AA?9?$AAC?$AAA?$AAM?$AA3?$AA5?$AAx?$AAO?$AAT?$AAG?$AA?3?$AA?3?$AAP?$AAo?$AAw?$AAe?$AAr?$AAU?$AAp?$AA?$CI?$AA?$CJ?$AA?$AN?$AA?6?$AA?$AA@| [ DATA ] ; `string'
	EXPORT	|??_C@_1DA@BPEKKDIK@?$AA?$CL?$AAC?$AAA?$AAM?$AA3?$AA5?$AAx?$AAO?$AAT?$AAG?$AA?3?$AA?3?$AAP?$AAo?$AAw?$AAe?$AAr?$AAU?$AAp?$AA?$CI?$AA?$CJ?$AA?$AN?$AA?6?$AA?$AA@| [ DATA ] ; `string'

  00030			 AREA	 |.pdata|, PDATA
|$T40758| DCD	|$LN9@PowerUp|
	DCD	0x40002304
; File c:\wince600\platform\common\src\soc\common_ti_v1\am3517\usb\usbotg\usbotgpdd.cpp

  00000			 AREA	 |.rdata|, DATA, READONLY
|??_C@_1DA@JCOOMJEC@?$AA?9?$AAC?$AAA?$AAM?$AA3?$AA5?$AAx?$AAO?$AAT?$AAG?$AA?3?$AA?3?$AAP?$AAo?$AAw?$AAe?$AAr?$AAU?$AAp?$AA?$CI?$AA?$CJ?$AA?$AN?$AA?6?$AA?$AA@| DCB "-"
	DCB	0x0, "C", 0x0, "A", 0x0, "M", 0x0, "3", 0x0, "5", 0x0, "x"
	DCB	0x0, "O", 0x0, "T", 0x0, "G", 0x0, ":", 0x0, ":", 0x0, "P"
	DCB	0x0, "o", 0x0, "w", 0x0, "e", 0x0, "r", 0x0, "U", 0x0, "p"
	DCB	0x0, "(", 0x0, ")", 0x0, 0xd, 0x0, 0xa, 0x0, 0x0, 0x0 ; `string'

  00000			 AREA	 |.rdata|, DATA, READONLY
|??_C@_1DA@BPEKKDIK@?$AA?$CL?$AAC?$AAA?$AAM?$AA3?$AA5?$AAx?$AAO?$AAT?$AAG?$AA?3?$AA?3?$AAP?$AAo?$AAw?$AAe?$AAr?$AAU?$AAp?$AA?$CI?$AA?$CJ?$AA?$AN?$AA?6?$AA?$AA@| DCB "+"
	DCB	0x0, "C", 0x0, "A", 0x0, "M", 0x0, "3", 0x0, "5", 0x0, "x"
	DCB	0x0, "O", 0x0, "T", 0x0, "G", 0x0, ":", 0x0, ":", 0x0, "P"
	DCB	0x0, "o", 0x0, "w", 0x0, "e", 0x0, "r", 0x0, "U", 0x0, "p"
	DCB	0x0, "(", 0x0, ")", 0x0, 0xd, 0x0, 0xa, 0x0, 0x0, 0x0 ; `string'
; Function compile flags: /Odtp

  00970			 AREA	 |.text|, CODE, ARM

  00970		 |?PowerUp@CAM35xOTG@@UAAHXZ| PROC	; CAM35xOTG::PowerUp

; 248  : {

  00970		 |$LN9@PowerUp|
  00970	e1a0c00d	 mov         r12, sp
  00974	e92d0001	 stmdb       sp!, {r0}
  00978	e92d5000	 stmdb       sp!, {r12, lr}
  0097c	e24dd00c	 sub         sp, sp, #0xC
  00980		 |$M40755|

; 249  :     DEBUGMSG(ZONE_OTG_FUNCTION,(TEXT("+CAM35xOTG::PowerUp()\r\n")));

  00980	e59f306c	 ldr         r3, [pc, #0x6C]
  00984	e5933440	 ldr         r3, [r3, #0x440]
  00988	e3130a02	 tst         r3, #2, 20
  0098c	0a000004	 beq         |$LN3@PowerUp|
  00990	e59f0060	 ldr         r0, [pc, #0x60]
  00994	eb000000	 bl          NKDbgPrintfW
  00998	e3a03001	 mov         r3, #1
  0099c	e58d3004	 str         r3, [sp, #4]
  009a0	ea000001	 b           |$LN4@PowerUp|
  009a4		 |$LN3@PowerUp|
  009a4	e3a03000	 mov         r3, #0
  009a8	e58d3004	 str         r3, [sp, #4]
  009ac		 |$LN4@PowerUp|

; 250  : 
; 251  : 	DEBUGMSG(ZONE_OTG_FUNCTION,(TEXT("-CAM35xOTG::PowerUp()\r\n")));

  009ac	e59f3040	 ldr         r3, [pc, #0x40]
  009b0	e5933440	 ldr         r3, [r3, #0x440]
  009b4	e3130a02	 tst         r3, #2, 20
  009b8	0a000004	 beq         |$LN5@PowerUp|
  009bc	e59f002c	 ldr         r0, [pc, #0x2C]
  009c0	eb000000	 bl          NKDbgPrintfW
  009c4	e3a03001	 mov         r3, #1
  009c8	e58d3008	 str         r3, [sp, #8]
  009cc	ea000001	 b           |$LN6@PowerUp|
  009d0		 |$LN5@PowerUp|
  009d0	e3a03000	 mov         r3, #0
  009d4	e58d3008	 str         r3, [sp, #8]
  009d8		 |$LN6@PowerUp|

; 252  :     return TRUE;

  009d8	e3a03001	 mov         r3, #1
  009dc	e58d3000	 str         r3, [sp]

; 253  : }

  009e0	e59d0000	 ldr         r0, [sp]
  009e4	e28dd00c	 add         sp, sp, #0xC
  009e8	e89d6000	 ldmia       sp, {sp, lr}
  009ec	e12fff1e	 bx          lr
  009f0		 |$LN10@PowerUp|
  009f0		 |$LN11@PowerUp|
  009f0	00000000	 DCD         |??_C@_1DA@JCOOMJEC@?$AA?9?$AAC?$AAA?$AAM?$AA3?$AA5?$AAx?$AAO?$AAT?$AAG?$AA?3?$AA?3?$AAP?$AAo?$AAw?$AAe?$AAr?$AAU?$AAp?$AA?$CI?$AA?$CJ?$AA?$AN?$AA?6?$AA?$AA@|
  009f4		 |$LN12@PowerUp|
  009f4	00000000	 DCD         |dpCurSettings|
  009f8		 |$LN13@PowerUp|
  009f8	00000000	 DCD         |??_C@_1DA@BPEKKDIK@?$AA?$CL?$AAC?$AAA?$AAM?$AA3?$AA5?$AAx?$AAO?$AAT?$AAG?$AA?3?$AA?3?$AAP?$AAo?$AAw?$AAe?$AAr?$AAU?$AAp?$AA?$CI?$AA?$CJ?$AA?$AN?$AA?6?$AA?$AA@|
  009fc		 |$M40756|

			 ENDP  ; |?PowerUp@CAM35xOTG@@UAAHXZ|, CAM35xOTG::PowerUp

	EXPORT	|??_C@_1DE@OAGJNNKB@?$AA?9?$AAC?$AAA?$AAM?$AA3?$AA5?$AAx?$AAO?$AAT?$AAG?$AA?3?$AA?3?$AAP?$AAo?$AAw?$AAe?$AAr?$AAD?$AAo?$AAw?$AAn?$AA?$CI?$AA?$CJ?$AA?$AN?$AA?6?$AA?$AA@| [ DATA ] ; `string'
	EXPORT	|??_C@_1DE@EPLCNDMO@?$AA?$CL?$AAC?$AAA?$AAM?$AA3?$AA5?$AAx?$AAO?$AAT?$AAG?$AA?3?$AA?3?$AAP?$AAo?$AAw?$AAe?$AAr?$AAD?$AAo?$AAw?$AAn?$AA?$CI?$AA?$CJ?$AA?$AN?$AA?6?$AA?$AA@| [ DATA ] ; `string'

  00038			 AREA	 |.pdata|, PDATA
|$T40772| DCD	|$LN9@PowerDown|
	DCD	0x40002304

  00000			 AREA	 |.rdata|, DATA, READONLY
|??_C@_1DE@OAGJNNKB@?$AA?9?$AAC?$AAA?$AAM?$AA3?$AA5?$AAx?$AAO?$AAT?$AAG?$AA?3?$AA?3?$AAP?$AAo?$AAw?$AAe?$AAr?$AAD?$AAo?$AAw?$AAn?$AA?$CI?$AA?$CJ?$AA?$AN?$AA?6?$AA?$AA@| DCB "-"
	DCB	0x0, "C", 0x0, "A", 0x0, "M", 0x0, "3", 0x0, "5", 0x0, "x"
	DCB	0x0, "O", 0x0, "T", 0x0, "G", 0x0, ":", 0x0, ":", 0x0, "P"
	DCB	0x0, "o", 0x0, "w", 0x0, "e", 0x0, "r", 0x0, "D", 0x0, "o"
	DCB	0x0, "w", 0x0, "n", 0x0, "(", 0x0, ")", 0x0, 0xd, 0x0, 0xa
	DCB	0x0, 0x0, 0x0				; `string'

  00000			 AREA	 |.rdata|, DATA, READONLY
|??_C@_1DE@EPLCNDMO@?$AA?$CL?$AAC?$AAA?$AAM?$AA3?$AA5?$AAx?$AAO?$AAT?$AAG?$AA?3?$AA?3?$AAP?$AAo?$AAw?$AAe?$AAr?$AAD?$AAo?$AAw?$AAn?$AA?$CI?$AA?$CJ?$AA?$AN?$AA?6?$AA?$AA@| DCB "+"
	DCB	0x0, "C", 0x0, "A", 0x0, "M", 0x0, "3", 0x0, "5", 0x0, "x"
	DCB	0x0, "O", 0x0, "T", 0x0, "G", 0x0, ":", 0x0, ":", 0x0, "P"
	DCB	0x0, "o", 0x0, "w", 0x0, "e", 0x0, "r", 0x0, "D", 0x0, "o"
	DCB	0x0, "w", 0x0, "n", 0x0, "(", 0x0, ")", 0x0, 0xd, 0x0, 0xa
	DCB	0x0, 0x0, 0x0				; `string'
; Function compile flags: /Odtp

  009fc			 AREA	 |.text|, CODE, ARM

  009fc		 |?PowerDown@CAM35xOTG@@UAAHXZ| PROC	; CAM35xOTG::PowerDown

; 256  : {

  009fc		 |$LN9@PowerDown|
  009fc	e1a0c00d	 mov         r12, sp
  00a00	e92d0001	 stmdb       sp!, {r0}
  00a04	e92d5000	 stmdb       sp!, {r12, lr}
  00a08	e24dd00c	 sub         sp, sp, #0xC
  00a0c		 |$M40769|

; 257  :     DEBUGMSG(ZONE_OTG_FUNCTION,(TEXT("+CAM35xOTG::PowerDown()\r\n")));

  00a0c	e59f306c	 ldr         r3, [pc, #0x6C]
  00a10	e5933440	 ldr         r3, [r3, #0x440]
  00a14	e3130a02	 tst         r3, #2, 20
  00a18	0a000004	 beq         |$LN3@PowerDown|
  00a1c	e59f0060	 ldr         r0, [pc, #0x60]
  00a20	eb000000	 bl          NKDbgPrintfW
  00a24	e3a03001	 mov         r3, #1
  00a28	e58d3004	 str         r3, [sp, #4]
  00a2c	ea000001	 b           |$LN4@PowerDown|
  00a30		 |$LN3@PowerDown|
  00a30	e3a03000	 mov         r3, #0
  00a34	e58d3004	 str         r3, [sp, #4]
  00a38		 |$LN4@PowerDown|

; 258  : 	
; 259  : 	DEBUGMSG(ZONE_OTG_FUNCTION,(TEXT("-CAM35xOTG::PowerDown()\r\n")));

  00a38	e59f3040	 ldr         r3, [pc, #0x40]
  00a3c	e5933440	 ldr         r3, [r3, #0x440]
  00a40	e3130a02	 tst         r3, #2, 20
  00a44	0a000004	 beq         |$LN5@PowerDown|
  00a48	e59f002c	 ldr         r0, [pc, #0x2C]
  00a4c	eb000000	 bl          NKDbgPrintfW
  00a50	e3a03001	 mov         r3, #1
  00a54	e58d3008	 str         r3, [sp, #8]
  00a58	ea000001	 b           |$LN6@PowerDown|
  00a5c		 |$LN5@PowerDown|
  00a5c	e3a03000	 mov         r3, #0
  00a60	e58d3008	 str         r3, [sp, #8]
  00a64		 |$LN6@PowerDown|

; 260  :     return TRUE;

  00a64	e3a03001	 mov         r3, #1
  00a68	e58d3000	 str         r3, [sp]

; 261  : }

  00a6c	e59d0000	 ldr         r0, [sp]
  00a70	e28dd00c	 add         sp, sp, #0xC
  00a74	e89d6000	 ldmia       sp, {sp, lr}
  00a78	e12fff1e	 bx          lr
  00a7c		 |$LN10@PowerDown|
  00a7c		 |$LN11@PowerDown|
  00a7c	00000000	 DCD         |??_C@_1DE@OAGJNNKB@?$AA?9?$AAC?$AAA?$AAM?$AA3?$AA5?$AAx?$AAO?$AAT?$AAG?$AA?3?$AA?3?$AAP?$AAo?$AAw?$AAe?$AAr?$AAD?$AAo?$AAw?$AAn?$AA?$CI?$AA?$CJ?$AA?$AN?$AA?6?$AA?$AA@|
  00a80		 |$LN12@PowerDown|
  00a80	00000000	 DCD         |dpCurSettings|
  00a84		 |$LN13@PowerDown|
  00a84	00000000	 DCD         |??_C@_1DE@EPLCNDMO@?$AA?$CL?$AAC?$AAA?$AAM?$AA3?$AA5?$AAx?$AAO?$AAT?$AAG?$AA?3?$AA?3?$AAP?$AAo?$AAw?$AAe?$AAr?$AAD?$AAo?$AAw?$AAn?$AA?$CI?$AA?$CJ?$AA?$AN?$AA?6?$AA?$AA@|
  00a88		 |$M40770|

			 ENDP  ; |?PowerDown@CAM35xOTG@@UAAHXZ|, CAM35xOTG::PowerDown

	EXPORT	|?FunctionMode@CAM35xOTG@@IAAXH@Z|	; CAM35xOTG::FunctionMode
	EXPORT	|?HostMode@CAM35xOTG@@IAAXH@Z|		; CAM35xOTG::HostMode
	EXPORT	|?UnloadDrivers@@YAKPAVCAM35xOTG@@@Z|	; UnloadDrivers

  00040			 AREA	 |.pdata|, PDATA
|$T40782| DCD	|$LN5@UnloadDriv|
	DCD	0x40001004
; Function compile flags: /Odtp

  00a88			 AREA	 |.text|, CODE, ARM

  00a88		 |?UnloadDrivers@@YAKPAVCAM35xOTG@@@Z| PROC ; UnloadDrivers

; 263  : {

  00a88		 |$LN5@UnloadDriv|
  00a88	e1a0c00d	 mov         r12, sp
  00a8c	e92d0001	 stmdb       sp!, {r0}
  00a90	e92d5000	 stmdb       sp!, {r12, lr}
  00a94	e24dd004	 sub         sp, sp, #4
  00a98		 |$M40779|

; 264  :     pOTG->HostMode(FALSE);

  00a98	e3a01000	 mov         r1, #0
  00a9c	e59d000c	 ldr         r0, [sp, #0xC]
  00aa0	eb000000	 bl          |?HostMode@CAM35xOTG@@IAAXH@Z|

; 265  :     pOTG->FunctionMode(FALSE);

  00aa4	e3a01000	 mov         r1, #0
  00aa8	e59d000c	 ldr         r0, [sp, #0xC]
  00aac	eb000000	 bl          |?FunctionMode@CAM35xOTG@@IAAXH@Z|

; 266  :     return 0;

  00ab0	e3a03000	 mov         r3, #0
  00ab4	e58d3000	 str         r3, [sp]

; 267  : }

  00ab8	e59d0000	 ldr         r0, [sp]
  00abc	e28dd004	 add         sp, sp, #4
  00ac0	e89d6000	 ldmia       sp, {sp, lr}
  00ac4	e12fff1e	 bx          lr
  00ac8		 |$M40780|

			 ENDP  ; |?UnloadDrivers@@YAKPAVCAM35xOTG@@@Z|, UnloadDrivers

	EXPORT	|??_C@_1EM@OGIGMLAE@?$AA?9?$AAC?$AAO?$AAM?$AAA?$AAP?$AAL?$AA1?$AA3?$AAx?$AAO?$AAT?$AAG?$AA?3?$AA?3?$AAU?$AAp?$AAd?$AAa?$AAt?$AAe?$AAP?$AAo?$AAw?$AAe?$AAr?$AAS?$AAt?$AAa?$AAt?$AAe?$AA?$CI@| [ DATA ] ; `string'
	EXPORT	|??_C@_1IA@LAMHPFLF@?$AAC?$AAO?$AAM?$AAA?$AAP?$AAL?$AA1?$AA3?$AAx?$AAO?$AAT?$AAG?$AA?3?$AA?3?$AAU?$AAp?$AAd?$AAa?$AAt?$AAe?$AAP?$AAo?$AAw?$AAe?$AAr?$AAS?$AAt?$AAa?$AAt?$AAe?$AA?3?$AA?5@| [ DATA ] ; `string'
	EXPORT	|??_C@_1GE@FMGPFEPI@?$AA?5?$AAC?$AAA?$AAM?$AA3?$AA5?$AAx?$AAO?$AAT?$AAG?$AA?3?$AA?3?$AAP?$AAo?$AAw?$AAe?$AAr?$AAD?$AAo?$AAw?$AAn?$AA?3?$AA?5?$AAR?$AAe?$AAl?$AAe?$AAa?$AAs?$AAe?$AAD?$AAe@| [ DATA ] ; `string'
	EXPORT	|??_C@_1OC@HMIFGNBA@?$AAd?$AAr?$AAi?$AAv?$AAe?$AAr?$AA?5?$AAu?$AAn?$AAl?$AAo?$AAa?$AAd?$AAi?$AAn?$AAg?$AA?5?$AAt?$AAi?$AAm?$AAe?$AAd?$AA?5?$AAo?$AAu?$AAt?$AA?4?$AA?5?$AAm?$AAa?$AAy?$AAb@| [ DATA ] ; `string'
	EXPORT	|??_C@_1GA@DMPHBL@?$AA?5?$AAC?$AAA?$AAM?$AA3?$AA5?$AAx?$AAO?$AAT?$AAG?$AA?3?$AA?3?$AAP?$AAo?$AAw?$AAe?$AAr?$AAU?$AAp?$AA?3?$AA?5?$AAR?$AAe?$AAq?$AAu?$AAe?$AAs?$AAt?$AAD?$AAe?$AAv?$AAi@| [ DATA ] ; `string'
	EXPORT	|??_C@_1CI@OHCJFJPM@?$AAE?$AAR?$AAR?$AAO?$AAR?$AA?3?$AA?5?$AA?$CF?$AAs?$AA?5?$AAl?$AAi?$AAn?$AAe?$AA?5?$AA?$CF?$AAd?$AA?3?$AA?5?$AA?$AA@| [ DATA ] ; `string'
	EXPORT	|??_C@_1KG@INLIEDAD@?$AAC?$AA?3?$AA?2?$AAW?$AAI?$AAN?$AAC?$AAE?$AA6?$AA0?$AA0?$AA?2?$AAP?$AAL?$AAA?$AAT?$AAF?$AAO?$AAR?$AAM?$AA?2?$AAC?$AAO?$AAM?$AAM?$AAO?$AAN?$AA?2?$AAS?$AAR?$AAC?$AA?2@| [ DATA ] ; `string'
	EXPORT	|??_C@_1EC@GABKJBDM@?$AA?$CL?$AAC?$AAA?$AAM?$AA3?$AA5?$AAx?$AAO?$AAT?$AAG?$AA?3?$AA?3?$AAU?$AAp?$AAd?$AAa?$AAt?$AAe?$AAP?$AAo?$AAw?$AAe?$AAr?$AAS?$AAt?$AAa?$AAt?$AAe?$AA?$CI?$AA?$CJ?$AA?$AN?$AA?6@| [ DATA ] ; `string'
	IMPORT	|ReleaseDevicePads|
	IMPORT	|RequestDevicePads|
	IMPORT	|EnableDeviceClocks|

  00048			 AREA	 |.pdata|, PDATA
|$T40802| DCD	|$LN31@UpdatePowe|
	DCD	0x40015704

  00000			 AREA	 |.rdata|, DATA, READONLY
|??_C@_1EM@OGIGMLAE@?$AA?9?$AAC?$AAO?$AAM?$AAA?$AAP?$AAL?$AA1?$AA3?$AAx?$AAO?$AAT?$AAG?$AA?3?$AA?3?$AAU?$AAp?$AAd?$AAa?$AAt?$AAe?$AAP?$AAo?$AAw?$AAe?$AAr?$AAS?$AAt?$AAa?$AAt?$AAe?$AA?$CI@| DCB "-"
	DCB	0x0, "C", 0x0, "O", 0x0, "M", 0x0, "A", 0x0, "P", 0x0, "L"
	DCB	0x0, "1", 0x0, "3", 0x0, "x", 0x0, "O", 0x0, "T", 0x0, "G"
	DCB	0x0, ":", 0x0, ":", 0x0, "U", 0x0, "p", 0x0, "d", 0x0, "a"
	DCB	0x0, "t", 0x0, "e", 0x0, "P", 0x0, "o", 0x0, "w", 0x0, "e"
	DCB	0x0, "r", 0x0, "S", 0x0, "t", 0x0, "a", 0x0, "t", 0x0, "e"
	DCB	0x0, "(", 0x0, "%", 0x0, "d", 0x0, ")", 0x0, 0xd, 0x0, 0xa
	DCB	0x0, 0x0, 0x0				; `string'

  00000			 AREA	 |.rdata|, DATA, READONLY
|??_C@_1IA@LAMHPFLF@?$AAC?$AAO?$AAM?$AAA?$AAP?$AAL?$AA1?$AA3?$AAx?$AAO?$AAT?$AAG?$AA?3?$AA?3?$AAU?$AAp?$AAd?$AAa?$AAt?$AAe?$AAP?$AAo?$AAw?$AAe?$AAr?$AAS?$AAt?$AAa?$AAt?$AAe?$AA?3?$AA?5@| DCB "C"
	DCB	0x0, "O", 0x0, "M", 0x0, "A", 0x0, "P", 0x0, "L", 0x0, "1"
	DCB	0x0, "3", 0x0, "x", 0x0, "O", 0x0, "T", 0x0, "G", 0x0, ":"
	DCB	0x0, ":", 0x0, "U", 0x0, "p", 0x0, "d", 0x0, "a", 0x0, "t"
	DCB	0x0, "e", 0x0, "P", 0x0, "o", 0x0, "w", 0x0, "e", 0x0, "r"
	DCB	0x0, "S", 0x0, "t", 0x0, "a", 0x0, "t", 0x0, "e", 0x0, ":"
	DCB	0x0, " ", 0x0, "d", 0x0, "o", 0x0, " ", 0x0, "n", 0x0, "o"
	DCB	0x0, "t", 0x0, " ", 0x0, "s", 0x0, "u", 0x0, "p", 0x0, "p"
	DCB	0x0, "o", 0x0, "r", 0x0, "t", 0x0, " ", 0x0, "p", 0x0, "o"
	DCB	0x0, "w", 0x0, "e", 0x0, "r", 0x0, " ", 0x0, "s", 0x0, "t"
	DCB	0x0, "a", 0x0, "t", 0x0, "e", 0x0, " ", 0x0, "%", 0x0, "d"
	DCB	0x0, 0xd, 0x0, 0xa, 0x0, 0x0, 0x0	; `string'

  00000			 AREA	 |.rdata|, DATA, READONLY
|??_C@_1GE@FMGPFEPI@?$AA?5?$AAC?$AAA?$AAM?$AA3?$AA5?$AAx?$AAO?$AAT?$AAG?$AA?3?$AA?3?$AAP?$AAo?$AAw?$AAe?$AAr?$AAD?$AAo?$AAw?$AAn?$AA?3?$AA?5?$AAR?$AAe?$AAl?$AAe?$AAa?$AAs?$AAe?$AAD?$AAe@| DCB " "
	DCB	0x0, "C", 0x0, "A", 0x0, "M", 0x0, "3", 0x0, "5", 0x0, "x"
	DCB	0x0, "O", 0x0, "T", 0x0, "G", 0x0, ":", 0x0, ":", 0x0, "P"
	DCB	0x0, "o", 0x0, "w", 0x0, "e", 0x0, "r", 0x0, "D", 0x0, "o"
	DCB	0x0, "w", 0x0, "n", 0x0, ":", 0x0, " ", 0x0, "R", 0x0, "e"
	DCB	0x0, "l", 0x0, "e", 0x0, "a", 0x0, "s", 0x0, "e", 0x0, "D"
	DCB	0x0, "e", 0x0, "v", 0x0, "i", 0x0, "c", 0x0, "e", 0x0, "P"
	DCB	0x0, "a", 0x0, "d", 0x0, "s", 0x0, " ", 0x0, "f", 0x0, "a"
	DCB	0x0, "i", 0x0, "l", 0x0, "e", 0x0, "d", 0x0, 0xd, 0x0, 0xa
	DCB	0x0, 0x0, 0x0				; `string'

  00000			 AREA	 |.rdata|, DATA, READONLY
|??_C@_1OC@HMIFGNBA@?$AAd?$AAr?$AAi?$AAv?$AAe?$AAr?$AA?5?$AAu?$AAn?$AAl?$AAo?$AAa?$AAd?$AAi?$AAn?$AAg?$AA?5?$AAt?$AAi?$AAm?$AAe?$AAd?$AA?5?$AAo?$AAu?$AAt?$AA?4?$AA?5?$AAm?$AAa?$AAy?$AAb@| DCB "d"
	DCB	0x0, "r", 0x0, "i", 0x0, "v", 0x0, "e", 0x0, "r", 0x0, " "
	DCB	0x0, "u", 0x0, "n", 0x0, "l", 0x0, "o", 0x0, "a", 0x0, "d"
	DCB	0x0, "i", 0x0, "n", 0x0, "g", 0x0, " ", 0x0, "t", 0x0, "i"
	DCB	0x0, "m", 0x0, "e", 0x0, "d", 0x0, " ", 0x0, "o", 0x0, "u"
	DCB	0x0, "t", 0x0, ".", 0x0, " ", 0x0, "m", 0x0, "a", 0x0, "y"
	DCB	0x0, "b", 0x0, "e", 0x0, " ", 0x0, "b", 0x0, "e", 0x0, "c"
	DCB	0x0, "a", 0x0, "u", 0x0, "s", 0x0, "e", 0x0, " ", 0x0, "t"
	DCB	0x0, "h", 0x0, "e", 0x0, " ", 0x0, "s", 0x0, "u", 0x0, "s"
	DCB	0x0, "p", 0x0, "e", 0x0, "n", 0x0, "d", 0x0, " ", 0x0, "o"
	DCB	0x0, "r", 0x0, "d", 0x0, "e", 0x0, "r", 0x0, " ", 0x0, "c"
	DCB	0x0, "a", 0x0, "m", 0x0, "e", 0x0, " ", 0x0, "f", 0x0, "r"
	DCB	0x0, "o", 0x0, "m", 0x0, " ", 0x0, "t", 0x0, "h", 0x0, "e"
	DCB	0x0, " ", 0x0, "U", 0x0, "S", 0x0, "B", 0x0, " ", 0x0, "d"
	DCB	0x0, "e", 0x0, "v", 0x0, "i", 0x0, "c", 0x0, "e", 0x0, " "
	DCB	0x0, "(", 0x0, "p", 0x0, "o", 0x0, "w", 0x0, "e", 0x0, "r"
	DCB	0x0, " ", 0x0, "k", 0x0, "e", 0x0, "y", 0x0, " ", 0x0, "o"
	DCB	0x0, "f", 0x0, " ", 0x0, "a", 0x0, " ", 0x0, "k", 0x0, "e"
	DCB	0x0, "y", 0x0, "b", 0x0, "a", 0x0, "o", 0x0, "r", 0x0, "d"
	DCB	0x0, ")", 0x0, 0xd, 0x0, 0xa, 0x0, 0x0, 0x0 ; `string'

  00000			 AREA	 |.rdata|, DATA, READONLY
|??_C@_1GA@DMPHBL@?$AA?5?$AAC?$AAA?$AAM?$AA3?$AA5?$AAx?$AAO?$AAT?$AAG?$AA?3?$AA?3?$AAP?$AAo?$AAw?$AAe?$AAr?$AAU?$AAp?$AA?3?$AA?5?$AAR?$AAe?$AAq?$AAu?$AAe?$AAs?$AAt?$AAD?$AAe?$AAv?$AAi@| DCB " "
	DCB	0x0, "C", 0x0, "A", 0x0, "M", 0x0, "3", 0x0, "5", 0x0, "x"
	DCB	0x0, "O", 0x0, "T", 0x0, "G", 0x0, ":", 0x0, ":", 0x0, "P"
	DCB	0x0, "o", 0x0, "w", 0x0, "e", 0x0, "r", 0x0, "U", 0x0, "p"
	DCB	0x0, ":", 0x0, " ", 0x0, "R", 0x0, "e", 0x0, "q", 0x0, "u"
	DCB	0x0, "e", 0x0, "s", 0x0, "t", 0x0, "D", 0x0, "e", 0x0, "v"
	DCB	0x0, "i", 0x0, "c", 0x0, "e", 0x0, "P", 0x0, "a", 0x0, "d"
	DCB	0x0, "s", 0x0, " ", 0x0, "f", 0x0, "a", 0x0, "i", 0x0, "l"
	DCB	0x0, "e", 0x0, "d", 0x0, 0xd, 0x0, 0xa, 0x0, 0x0, 0x0 ; `string'

  00000			 AREA	 |.rdata|, DATA, READONLY
|??_C@_1CI@OHCJFJPM@?$AAE?$AAR?$AAR?$AAO?$AAR?$AA?3?$AA?5?$AA?$CF?$AAs?$AA?5?$AAl?$AAi?$AAn?$AAe?$AA?5?$AA?$CF?$AAd?$AA?3?$AA?5?$AA?$AA@| DCB "E"
	DCB	0x0, "R", 0x0, "R", 0x0, "O", 0x0, "R", 0x0, ":", 0x0, " "
	DCB	0x0, "%", 0x0, "s", 0x0, " ", 0x0, "l", 0x0, "i", 0x0, "n"
	DCB	0x0, "e", 0x0, " ", 0x0, "%", 0x0, "d", 0x0, ":", 0x0, " "
	DCB	0x0, 0x0, 0x0				; `string'

  00000			 AREA	 |.rdata|, DATA, READONLY
|??_C@_1KG@INLIEDAD@?$AAC?$AA?3?$AA?2?$AAW?$AAI?$AAN?$AAC?$AAE?$AA6?$AA0?$AA0?$AA?2?$AAP?$AAL?$AAA?$AAT?$AAF?$AAO?$AAR?$AAM?$AA?2?$AAC?$AAO?$AAM?$AAM?$AAO?$AAN?$AA?2?$AAS?$AAR?$AAC?$AA?2@| DCB "C"
	DCB	0x0, ":", 0x0, "\\", 0x0, "W", 0x0, "I", 0x0, "N", 0x0, "C"
	DCB	0x0, "E", 0x0, "6", 0x0, "0", 0x0, "0", 0x0, "\\", 0x0, "P"
	DCB	0x0, "L", 0x0, "A", 0x0, "T", 0x0, "F", 0x0, "O", 0x0, "R"
	DCB	0x0, "M", 0x0, "\\", 0x0, "C", 0x0, "O", 0x0, "M", 0x0, "M"
	DCB	0x0, "O", 0x0, "N", 0x0, "\\", 0x0, "S", 0x0, "R", 0x0, "C"
	DCB	0x0, "\\", 0x0, "S", 0x0, "O", 0x0, "C", 0x0, "\\", 0x0, "C"
	DCB	0x0, "O", 0x0, "M", 0x0, "M", 0x0, "O", 0x0, "N", 0x0, "_"
	DCB	0x0, "T", 0x0, "I", 0x0, "_", 0x0, "V", 0x0, "1", 0x0, "\\"
	DCB	0x0, "A", 0x0, "M", 0x0, "3", 0x0, "5", 0x0, "1", 0x0, "7"
	DCB	0x0, "\\", 0x0, "U", 0x0, "S", 0x0, "B", 0x0, "\\", 0x0, "U"
	DCB	0x0, "S", 0x0, "B", 0x0, "O", 0x0, "T", 0x0, "G", 0x0, "\\"
	DCB	0x0, ".", 0x0, "\\", 0x0, "u", 0x0, "s", 0x0, "b", 0x0, "o"
	DCB	0x0, "t", 0x0, "g", 0x0, "p", 0x0, "d", 0x0, "d", 0x0, "."
	DCB	0x0, "c", 0x0, "p", 0x0, "p", 0x0, 0x0, 0x0 ; `string'

  00000			 AREA	 |.rdata|, DATA, READONLY
|??_C@_1EC@GABKJBDM@?$AA?$CL?$AAC?$AAA?$AAM?$AA3?$AA5?$AAx?$AAO?$AAT?$AAG?$AA?3?$AA?3?$AAU?$AAp?$AAd?$AAa?$AAt?$AAe?$AAP?$AAo?$AAw?$AAe?$AAr?$AAS?$AAt?$AAa?$AAt?$AAe?$AA?$CI?$AA?$CJ?$AA?$AN?$AA?6@| DCB "+"
	DCB	0x0, "C", 0x0, "A", 0x0, "M", 0x0, "3", 0x0, "5", 0x0, "x"
	DCB	0x0, "O", 0x0, "T", 0x0, "G", 0x0, ":", 0x0, ":", 0x0, "U"
	DCB	0x0, "p", 0x0, "d", 0x0, "a", 0x0, "t", 0x0, "e", 0x0, "P"
	DCB	0x0, "o", 0x0, "w", 0x0, "e", 0x0, "r", 0x0, "S", 0x0, "t"
	DCB	0x0, "a", 0x0, "t", 0x0, "e", 0x0, "(", 0x0, ")", 0x0, 0xd
	DCB	0x0, 0xa, 0x0, 0x0, 0x0			; `string'
; Function compile flags: /Odtp

  00ac8			 AREA	 |.text|, CODE, ARM

  00ac8		 |?UpdatePowerState@CAM35xOTG@@UAAHXZ| PROC ; CAM35xOTG::UpdatePowerState

; 270  : {

  00ac8		 |$LN31@UpdatePowe|
  00ac8	e1a0c00d	 mov         r12, sp
  00acc	e92d0001	 stmdb       sp!, {r0}
  00ad0	e92d5000	 stmdb       sp!, {r12, lr}
  00ad4	e24dd048	 sub         sp, sp, #0x48
  00ad8		 |$M40799|

; 271  :     BOOL rc = FALSE;

  00ad8	e3a03000	 mov         r3, #0
  00adc	e58d3008	 str         r3, [sp, #8]

; 272  : 	UINT32 nPhyCtl = 0;

  00ae0	e3a03000	 mov         r3, #0
  00ae4	e58d300c	 str         r3, [sp, #0xC]

; 273  :     
; 274  : 	DEBUGMSG(ZONE_OTG_FUNCTION,(TEXT("+CAM35xOTG::UpdatePowerState()\r\n")));

  00ae8	e59f350c	 ldr         r3, [pc, #0x50C]
  00aec	e5933440	 ldr         r3, [r3, #0x440]
  00af0	e3130a02	 tst         r3, #2, 20
  00af4	0a000004	 beq         |$LN17@UpdatePowe|
  00af8	e59f0520	 ldr         r0, [pc, #0x520]
  00afc	eb000000	 bl          NKDbgPrintfW
  00b00	e3a03001	 mov         r3, #1
  00b04	e58d301c	 str         r3, [sp, #0x1C]
  00b08	ea000001	 b           |$LN18@UpdatePowe|
  00b0c		 |$LN17@UpdatePowe|
  00b0c	e3a03000	 mov         r3, #0
  00b10	e58d301c	 str         r3, [sp, #0x1C]
  00b14		 |$LN18@UpdatePowe|

; 275  : 
; 276  :     // Apply the requested power state
; 277  :     switch(m_RequestedPowerState)

  00b14	e59d3050	 ldr         r3, [sp, #0x50]
  00b18	e28330d0	 add         r3, r3, #0xD0
  00b1c	e5933000	 ldr         r3, [r3]
  00b20	e58d3020	 str         r3, [sp, #0x20]
  00b24	e59d3020	 ldr         r3, [sp, #0x20]
  00b28	e3530000	 cmp         r3, #0
  00b2c	0a000006	 beq         |$LN12@UpdatePowe|
  00b30	e59d3020	 ldr         r3, [sp, #0x20]
  00b34	e3530002	 cmp         r3, #2
  00b38	da00010e	 ble         |$LN1@UpdatePowe|
  00b3c	e59d3020	 ldr         r3, [sp, #0x20]
  00b40	e3530004	 cmp         r3, #4
  00b44	da000095	 ble         |$LN7@UpdatePowe|
  00b48	ea00010a	 b           |$LN1@UpdatePowe|
  00b4c		 |$LN12@UpdatePowe|

; 278  :     {
; 279  :     case D0:
; 280  : 
; 281  : 	    // Global Reset 
; 282  : 		SETREG32(&m_pSysConfRegs->CONTROL_IP_SW_RESET, USB20OTGSS_SW_RST);

  00b4c	e59d3050	 ldr         r3, [sp, #0x50]
  00b50	e28330e8	 add         r3, r3, #0xE8
  00b54	e5933000	 ldr         r3, [r3]
  00b58	e2833fca	 add         r3, r3, #0xCA, 30
  00b5c	e5933000	 ldr         r3, [r3]
  00b60	e3832001	 orr         r2, r3, #1
  00b64	e59d3050	 ldr         r3, [sp, #0x50]
  00b68	e28330e8	 add         r3, r3, #0xE8
  00b6c	e5933000	 ldr         r3, [r3]
  00b70	e2833fca	 add         r3, r3, #0xCA, 30
  00b74	e5832000	 str         r2, [r3]

; 283  : 		Sleep(10);

  00b78	e3a0000a	 mov         r0, #0xA
  00b7c	eb000000	 bl          Sleep

; 284  : 		CLRREG32(&m_pSysConfRegs->CONTROL_IP_SW_RESET, USB20OTGSS_SW_RST);

  00b80	e59d3050	 ldr         r3, [sp, #0x50]
  00b84	e28330e8	 add         r3, r3, #0xE8
  00b88	e5933000	 ldr         r3, [r3]
  00b8c	e2833fca	 add         r3, r3, #0xCA, 30
  00b90	e5932000	 ldr         r2, [r3]
  00b94	e3e03001	 mvn         r3, #1
  00b98	e0022003	 and         r2, r2, r3
  00b9c	e59d3050	 ldr         r3, [sp, #0x50]
  00ba0	e28330e8	 add         r3, r3, #0xE8
  00ba4	e5933000	 ldr         r3, [r3]
  00ba8	e2833fca	 add         r3, r3, #0xCA, 30
  00bac	e5832000	 str         r2, [r3]

; 285  :      	
; 286  : 		// Enable Clocks
; 287  : 		EnableDeviceClocks(OMAP_DEVICE_HSOTGUSB, TRUE);

  00bb0	e3a01001	 mov         r1, #1
  00bb4	e3a0004f	 mov         r0, #0x4F
  00bb8	eb000000	 bl          EnableDeviceClocks

; 288  : 
; 289  : 		// Request pads
; 290  : 		if (!RequestDevicePads(OMAP_DEVICE_HSOTGUSB))

  00bbc	e3a0004f	 mov         r0, #0x4F
  00bc0	eb000000	 bl          RequestDevicePads
  00bc4	e58d0024	 str         r0, [sp, #0x24]
  00bc8	e59d3024	 ldr         r3, [sp, #0x24]
  00bcc	e3530000	 cmp         r3, #0
  00bd0	1a00000b	 bne         |$LN11@UpdatePowe|

; 291  : 		{
; 292  : 			ERRORMSG(ZONE_ERROR,
; 293  : 				(L" CAM35xOTG::PowerUp: RequestDevicePads failed\r\n"));

  00bd4	e3a02c01	 mov         r2, #1, 24
  00bd8	e3822025	 orr         r2, r2, #0x25
  00bdc	e59f1428	 ldr         r1, [pc, #0x428]
  00be0	e59f0420	 ldr         r0, [pc, #0x420]
  00be4	eb000000	 bl          NKDbgPrintfW
  00be8	e59f042c	 ldr         r0, [pc, #0x42C]
  00bec	eb000000	 bl          NKDbgPrintfW
  00bf0	e3a03001	 mov         r3, #1
  00bf4	e58d3028	 str         r3, [sp, #0x28]
  00bf8	ea000001	 b           |$LN20@UpdatePowe|
  00bfc	e3a03000	 mov         r3, #0
  00c00	e58d3028	 str         r3, [sp, #0x28]
  00c04		 |$LN20@UpdatePowe|
  00c04		 |$LN11@UpdatePowe|

; 294  : 		}
; 295  : 
; 296  : 	    // Reset the controller
; 297  : 		SETREG32(&m_pUsbRegs->CTRLR, OTG_CONTROL_RESET);

  00c04	e59d3050	 ldr         r3, [sp, #0x50]
  00c08	e28330ec	 add         r3, r3, #0xEC
  00c0c	e5933000	 ldr         r3, [r3]
  00c10	e2833004	 add         r3, r3, #4
  00c14	e5933000	 ldr         r3, [r3]
  00c18	e3832001	 orr         r2, r3, #1
  00c1c	e59d3050	 ldr         r3, [sp, #0x50]
  00c20	e28330ec	 add         r3, r3, #0xEC
  00c24	e5933000	 ldr         r3, [r3]
  00c28	e2833004	 add         r3, r3, #4
  00c2c	e5832000	 str         r2, [r3]

; 298  : 
; 299  :         Sleep(10);

  00c30	e3a0000a	 mov         r0, #0xA
  00c34	eb000000	 bl          Sleep

; 300  : 
; 301  :         // Unlock USBPHY_CTL reg
; 302  :         ChipCfgLock(FALSE);

  00c38	e3a01000	 mov         r1, #0
  00c3c	e59d0050	 ldr         r0, [sp, #0x50]
  00c40	eb000000	 bl          |?ChipCfgLock@CAM35xOTG@@IAAXH@Z|

; 303  : 
; 304  : 		MASKREG32(&m_pSysConfRegs->CONTROL_DEVCONF2, DEVCONF2_USBOTG_REFFREQ, DEVCONF2_USBOTG_REFFREQ_13MHZ);

  00c44	e59d3050	 ldr         r3, [sp, #0x50]
  00c48	e28330e8	 add         r3, r3, #0xE8
  00c4c	e5933000	 ldr         r3, [r3]
  00c50	e2833e31	 add         r3, r3, #0x31, 28
  00c54	e5932000	 ldr         r2, [r3]
  00c58	e3e03c0f	 mvn         r3, #0xF, 24
  00c5c	e0023003	 and         r3, r2, r3
  00c60	e3832c06	 orr         r2, r3, #6, 24
  00c64	e59d3050	 ldr         r3, [sp, #0x50]
  00c68	e28330e8	 add         r3, r3, #0xE8
  00c6c	e5933000	 ldr         r3, [r3]
  00c70	e2833e31	 add         r3, r3, #0x31, 28
  00c74	e5832000	 str         r2, [r3]

; 305  : 
; 306  : 		SETREG32(&m_pSysConfRegs->CONTROL_DEVCONF2, DEVCONF2_USBOTG_PHY_PLLON		|
; 307  : 													DEVCONF2_USBOTG_SESSENDEN		|
; 308  : 													DEVCONF2_USBOTG_VBUSDETECTEN	|
; 309  : 													DEVCONF2_USBOTG_REFFREQ_13MHZ	|
; 310  : 													DEVCONF2_USBOTG_DATAPOLARITY	);

  00c78	e59d3050	 ldr         r3, [sp, #0x50]
  00c7c	e28330e8	 add         r3, r3, #0xE8
  00c80	e5933000	 ldr         r3, [r3]
  00c84	e2833e31	 add         r3, r3, #0x31, 28
  00c88	e5932000	 ldr         r2, [r3]
  00c8c	e3a03c36	 mov         r3, #0x36, 24
  00c90	e3833022	 orr         r3, r3, #0x22
  00c94	e1822003	 orr         r2, r2, r3
  00c98	e59d3050	 ldr         r3, [sp, #0x50]
  00c9c	e28330e8	 add         r3, r3, #0xE8
  00ca0	e5933000	 ldr         r3, [r3]
  00ca4	e2833e31	 add         r3, r3, #0x31, 28
  00ca8	e5832000	 str         r2, [r3]

; 311  : 
; 312  : 		CLRREG32(&m_pSysConfRegs->CONTROL_DEVCONF2, DEVCONF2_USBOTG_PHY_RESET		|
; 313  : 													DEVCONF2_USBOTG_OTGMODE			|
; 314  : 													DEVCONF2_USBOTG_POWERDOWNOTG	|
; 315  : 													DEVCONF2_USBPHY_GPIO_MODE		|
; 316  : 													DEVCONF2_USBOTG_PHY_PD			);

  00cac	e59d3050	 ldr         r3, [sp, #0x50]
  00cb0	e28330e8	 add         r3, r3, #0xE8
  00cb4	e5933000	 ldr         r3, [r3]
  00cb8	e2833e31	 add         r3, r3, #0x31, 28
  00cbc	e5932000	 ldr         r2, [r3]
  00cc0	e59f3350	 ldr         r3, [pc, #0x350]
  00cc4	e0022003	 and         r2, r2, r3
  00cc8	e59d3050	 ldr         r3, [sp, #0x50]
  00ccc	e28330e8	 add         r3, r3, #0xE8
  00cd0	e5933000	 ldr         r3, [r3]
  00cd4	e2833e31	 add         r3, r3, #0x31, 28
  00cd8	e5832000	 str         r2, [r3]

; 317  : 		Sleep(1);

  00cdc	e3a00001	 mov         r0, #1
  00ce0	eb000000	 bl          Sleep
  00ce4		 |$LN10@UpdatePowe|

; 318  : 
; 319  :         // wait until ready
; 320  :         while ((m_pSysConfRegs->CONTROL_DEVCONF2 & DEVCONF2_USBOTG_PWR_CLKGOOD) != DEVCONF2_USBOTG_PWR_CLKGOOD)

  00ce4	e59d3050	 ldr         r3, [sp, #0x50]
  00ce8	e28330e8	 add         r3, r3, #0xE8
  00cec	e5933000	 ldr         r3, [r3]
  00cf0	e2833e31	 add         r3, r3, #0x31, 28
  00cf4	e5933000	 ldr         r3, [r3]
  00cf8	e2033080	 and         r3, r3, #0x80
  00cfc	e3530080	 cmp         r3, #0x80
  00d00	0a000002	 beq         |$LN9@UpdatePowe|

; 321  :             Sleep(5);

  00d04	e3a00005	 mov         r0, #5
  00d08	eb000000	 bl          Sleep
  00d0c	eafffff4	 b           |$LN10@UpdatePowe|
  00d10		 |$LN9@UpdatePowe|

; 322  : 
; 323  :         // Lock USBPHY_CTL reg
; 324  :         ChipCfgLock(TRUE);

  00d10	e3a01001	 mov         r1, #1
  00d14	e59d0050	 ldr         r0, [sp, #0x50]
  00d18	eb000000	 bl          |?ChipCfgLock@CAM35xOTG@@IAAXH@Z|

; 325  : 
; 326  :         if(m_bFunctionMode && (m_pUsbRegs->DEVCTL & CSL_USB_DEVCTL_BDEVICE_MASK))

  00d1c	e59d3050	 ldr         r3, [sp, #0x50]
  00d20	e2833c01	 add         r3, r3, #1, 24
  00d24	e5933000	 ldr         r3, [r3]
  00d28	e3530000	 cmp         r3, #0
  00d2c	0a000014	 beq         |$LN8@UpdatePowe|
  00d30	e59d3050	 ldr         r3, [sp, #0x50]
  00d34	e28330ec	 add         r3, r3, #0xEC
  00d38	e5933000	 ldr         r3, [r3]
  00d3c	e2833e46	 add         r3, r3, #0x46, 28
  00d40	e5d33000	 ldrb        r3, [r3]
  00d44	e3130080	 tst         r3, #0x80
  00d48	0a00000d	 beq         |$LN8@UpdatePowe|

; 327  :         {
; 328  :             //SOFTCONN
; 329  :             m_pUsbRegs->POWER |= CSL_USB_POWER_SOFTCONN_MASK;

  00d4c	e59d3050	 ldr         r3, [sp, #0x50]
  00d50	e28330ec	 add         r3, r3, #0xEC
  00d54	e5933000	 ldr         r3, [r3]
  00d58	e2833b01	 add         r3, r3, #1, 22
  00d5c	e2833001	 add         r3, r3, #1
  00d60	e5d33000	 ldrb        r3, [r3]
  00d64	e3831040	 orr         r1, r3, #0x40
  00d68	e59d3050	 ldr         r3, [sp, #0x50]
  00d6c	e28330ec	 add         r3, r3, #0xEC
  00d70	e5933000	 ldr         r3, [r3]
  00d74	e2833b01	 add         r3, r3, #1, 22
  00d78	e2832001	 add         r2, r3, #1
  00d7c	e20130ff	 and         r3, r1, #0xFF
  00d80	e5c23000	 strb        r3, [r2]
  00d84		 |$LN8@UpdatePowe|

; 330  :         }
; 331  : 
; 332  :         // Enable USB state polling
; 333  :         m_bEnablePolling = TRUE;

  00d84	e59d3050	 ldr         r3, [sp, #0x50]
  00d88	e28320fc	 add         r2, r3, #0xFC
  00d8c	e3a03001	 mov         r3, #1
  00d90	e5823000	 str         r3, [r2]

; 334  : 
; 335  :         rc = TRUE;

  00d94	e3a03001	 mov         r3, #1
  00d98	e58d3008	 str         r3, [sp, #8]

; 336  :         break;

  00d9c	ea000083	 b           |$LN13@UpdatePowe|
  00da0		 |$LN7@UpdatePowe|

; 337  :     case D3:
; 338  :     case D4:
; 339  : 
; 340  :         // Disable USB state polling
; 341  :         m_bEnablePolling = FALSE;

  00da0	e59d3050	 ldr         r3, [sp, #0x50]
  00da4	e28320fc	 add         r2, r3, #0xFC
  00da8	e3a03000	 mov         r3, #0
  00dac	e5823000	 str         r3, [r2]

; 342  : 
; 343  :         if (WaitForSingleObject(
; 344  :             CreateThread(NULL,0,(LPTHREAD_START_ROUTINE)UnloadDrivers,this,0,NULL)
; 345  :             ,2000) != WAIT_OBJECT_0)

  00db0	e3a03000	 mov         r3, #0
  00db4	e58d3004	 str         r3, [sp, #4]
  00db8	e3a03000	 mov         r3, #0
  00dbc	e58d3000	 str         r3, [sp]
  00dc0	e59d3050	 ldr         r3, [sp, #0x50]
  00dc4	e59f2248	 ldr         r2, [pc, #0x248]
  00dc8	e3a01000	 mov         r1, #0
  00dcc	e3a00000	 mov         r0, #0
  00dd0	eb000000	 bl          CreateThread
  00dd4	e58d002c	 str         r0, [sp, #0x2C]
  00dd8	e3a01e7d	 mov         r1, #0x7D, 28
  00ddc	e59d002c	 ldr         r0, [sp, #0x2C]
  00de0	eb000000	 bl          WaitForSingleObject
  00de4	e58d0030	 str         r0, [sp, #0x30]
  00de8	e59d3030	 ldr         r3, [sp, #0x30]
  00dec	e3530000	 cmp         r3, #0
  00df0	0a000006	 beq         |$LN6@UpdatePowe|

; 346  :         {
; 347  :             RETAILMSG(1,(TEXT("driver unloading timed out. maybe because the suspend order came from the USB device (power key of a keybaord)\r\n")));

  00df4	e59f0214	 ldr         r0, [pc, #0x214]
  00df8	eb000000	 bl          NKDbgPrintfW
  00dfc	e3a03001	 mov         r3, #1
  00e00	e58d3034	 str         r3, [sp, #0x34]
  00e04	ea000001	 b           |$LN22@UpdatePowe|
  00e08	e3a03000	 mov         r3, #0
  00e0c	e58d3034	 str         r3, [sp, #0x34]
  00e10		 |$LN22@UpdatePowe|
  00e10		 |$LN6@UpdatePowe|

; 348  :         }
; 349  :         
; 350  :         nPhyCtl = INREG32(&m_pSysConfRegs->CONTROL_DEVCONF2);

  00e10	e59d3050	 ldr         r3, [sp, #0x50]
  00e14	e28330e8	 add         r3, r3, #0xE8
  00e18	e5933000	 ldr         r3, [r3]
  00e1c	e2833e31	 add         r3, r3, #0x31, 28
  00e20	e5933000	 ldr         r3, [r3]
  00e24	e58d300c	 str         r3, [sp, #0xC]

; 351  : 
; 352  :         // End the session for host        
; 353  :         m_pUsbRegs->DEVCTL &= ~CSL_USB_DEVCTL_SESSION_MASK;

  00e28	e59d3050	 ldr         r3, [sp, #0x50]
  00e2c	e28330ec	 add         r3, r3, #0xEC
  00e30	e5933000	 ldr         r3, [r3]
  00e34	e2833e46	 add         r3, r3, #0x46, 28
  00e38	e5d32000	 ldrb        r2, [r3]
  00e3c	e3e03001	 mvn         r3, #1
  00e40	e0021003	 and         r1, r2, r3
  00e44	e59d3050	 ldr         r3, [sp, #0x50]
  00e48	e28330ec	 add         r3, r3, #0xEC
  00e4c	e5933000	 ldr         r3, [r3]
  00e50	e2832e46	 add         r2, r3, #0x46, 28
  00e54	e20130ff	 and         r3, r1, #0xFF
  00e58	e5c23000	 strb        r3, [r2]

; 354  : 
; 355  :         // Disconnect peripheral
; 356  :         m_pUsbRegs->POWER &= ~CSL_USB_POWER_SOFTCONN_MASK;

  00e5c	e59d3050	 ldr         r3, [sp, #0x50]
  00e60	e28330ec	 add         r3, r3, #0xEC
  00e64	e5933000	 ldr         r3, [r3]
  00e68	e2833b01	 add         r3, r3, #1, 22
  00e6c	e2833001	 add         r3, r3, #1
  00e70	e5d32000	 ldrb        r2, [r3]
  00e74	e3e03040	 mvn         r3, #0x40
  00e78	e0021003	 and         r1, r2, r3
  00e7c	e59d3050	 ldr         r3, [sp, #0x50]
  00e80	e28330ec	 add         r3, r3, #0xEC
  00e84	e5933000	 ldr         r3, [r3]
  00e88	e2833b01	 add         r3, r3, #1, 22
  00e8c	e2832001	 add         r2, r3, #1
  00e90	e20130ff	 and         r3, r1, #0xFF
  00e94	e5c23000	 strb        r3, [r2]

; 357  :         
; 358  : 
; 359  :         // Unlock USBPHY_CTL reg
; 360  :         ChipCfgLock(FALSE);

  00e98	e3a01000	 mov         r1, #0
  00e9c	e59d0050	 ldr         r0, [sp, #0x50]
  00ea0	eb000000	 bl          |?ChipCfgLock@CAM35xOTG@@IAAXH@Z|

; 361  : 
; 362  : 		// Only power down the USB2.0 PHY if USB1.1 PHY not in use
; 363  : 		if (!m_bUSB11Enabled)

  00ea4	e59d3050	 ldr         r3, [sp, #0x50]
  00ea8	e28330f8	 add         r3, r3, #0xF8
  00eac	e5933000	 ldr         r3, [r3]
  00eb0	e3530000	 cmp         r3, #0
  00eb4	1a000002	 bne         |$LN5@UpdatePowe|

; 364  : 		{
; 365  : 			nPhyCtl |= DEVCONF2_USBOTG_PHY_PD;

  00eb8	e59d300c	 ldr         r3, [sp, #0xC]
  00ebc	e3833008	 orr         r3, r3, #8
  00ec0	e58d300c	 str         r3, [sp, #0xC]
  00ec4		 |$LN5@UpdatePowe|

; 366  : 		}
; 367  : 
; 368  : 		// Power down the OTG
; 369  : 		nPhyCtl |= DEVCONF2_USBOTG_POWERDOWNOTG;

  00ec4	e59d300c	 ldr         r3, [sp, #0xC]
  00ec8	e3833004	 orr         r3, r3, #4
  00ecc	e58d300c	 str         r3, [sp, #0xC]

; 370  : 		OUTREG32(&m_pSysConfRegs->CONTROL_DEVCONF2, nPhyCtl);

  00ed0	e59d3050	 ldr         r3, [sp, #0x50]
  00ed4	e28330e8	 add         r3, r3, #0xE8
  00ed8	e5933000	 ldr         r3, [r3]
  00edc	e2832e31	 add         r2, r3, #0x31, 28
  00ee0	e59d300c	 ldr         r3, [sp, #0xC]
  00ee4	e5823000	 str         r3, [r2]

; 371  : 
; 372  :         // Lock USBPHY_CTL reg
; 373  :         ChipCfgLock(TRUE);

  00ee8	e3a01001	 mov         r1, #1
  00eec	e59d0050	 ldr         r0, [sp, #0x50]
  00ef0	eb000000	 bl          |?ChipCfgLock@CAM35xOTG@@IAAXH@Z|

; 374  : 
; 375  : 		// Release pads
; 376  : 		if (!ReleaseDevicePads(OMAP_DEVICE_HSOTGUSB))

  00ef4	e3a0004f	 mov         r0, #0x4F
  00ef8	eb000000	 bl          ReleaseDevicePads
  00efc	e58d0038	 str         r0, [sp, #0x38]
  00f00	e59d3038	 ldr         r3, [sp, #0x38]
  00f04	e3530000	 cmp         r3, #0
  00f08	1a00000b	 bne         |$LN4@UpdatePowe|

; 377  : 		{
; 378  : 			ERRORMSG(ZONE_ERROR,
; 379  : 				(L" CAM35xOTG::PowerDown: ReleaseDevicePads failed\r\n"));

  00f0c	e3a02c01	 mov         r2, #1, 24
  00f10	e382207b	 orr         r2, r2, #0x7B
  00f14	e59f10f0	 ldr         r1, [pc, #0xF0]
  00f18	e59f00e8	 ldr         r0, [pc, #0xE8]
  00f1c	eb000000	 bl          NKDbgPrintfW
  00f20	e59f00dc	 ldr         r0, [pc, #0xDC]
  00f24	eb000000	 bl          NKDbgPrintfW
  00f28	e3a03001	 mov         r3, #1
  00f2c	e58d303c	 str         r3, [sp, #0x3C]
  00f30	ea000001	 b           |$LN24@UpdatePowe|
  00f34	e3a03000	 mov         r3, #0
  00f38	e58d303c	 str         r3, [sp, #0x3C]
  00f3c		 |$LN24@UpdatePowe|
  00f3c		 |$LN4@UpdatePowe|

; 380  : 		}
; 381  : 
; 382  :         // Clocks off (leave enabled if USB1.1 in use)
; 383  :         if (!m_bUSB11Enabled)

  00f3c	e59d3050	 ldr         r3, [sp, #0x50]
  00f40	e28330f8	 add         r3, r3, #0xF8
  00f44	e5933000	 ldr         r3, [r3]
  00f48	e3530000	 cmp         r3, #0
  00f4c	1a000003	 bne         |$LN3@UpdatePowe|

; 384  : 			EnableDeviceClocks(OMAP_DEVICE_HSOTGUSB, FALSE);

  00f50	e3a01000	 mov         r1, #0
  00f54	e3a0004f	 mov         r0, #0x4F
  00f58	eb000000	 bl          EnableDeviceClocks

; 385  :         else

  00f5c	ea000002	 b           |$LN2@UpdatePowe|
  00f60		 |$LN3@UpdatePowe|

; 386  : 			EnableDeviceClocks(OMAP_DEVICE_HSOTGUSB, TRUE);

  00f60	e3a01001	 mov         r1, #1
  00f64	e3a0004f	 mov         r0, #0x4F
  00f68	eb000000	 bl          EnableDeviceClocks
  00f6c		 |$LN2@UpdatePowe|

; 387  : 
; 388  : 
; 389  :         rc = TRUE;    

  00f6c	e3a03001	 mov         r3, #1
  00f70	e58d3008	 str         r3, [sp, #8]

; 390  :         break;

  00f74	ea00000d	 b           |$LN13@UpdatePowe|
  00f78		 |$LN1@UpdatePowe|

; 391  :     default:
; 392  :         DEBUGMSG(ZONE_OTG_ERROR,(TEXT("COMAPL13xOTG::UpdatePowerState: do not support power state %d\r\n"), m_RequestedPowerState));

  00f78	e59f307c	 ldr         r3, [pc, #0x7C]
  00f7c	e5933440	 ldr         r3, [r3, #0x440]
  00f80	e3130902	 tst         r3, #2, 18
  00f84	0a000007	 beq         |$LN25@UpdatePowe|
  00f88	e59d3050	 ldr         r3, [sp, #0x50]
  00f8c	e28330d0	 add         r3, r3, #0xD0
  00f90	e5931000	 ldr         r1, [r3]
  00f94	e59f0064	 ldr         r0, [pc, #0x64]
  00f98	eb000000	 bl          NKDbgPrintfW
  00f9c	e3a03001	 mov         r3, #1
  00fa0	e58d3040	 str         r3, [sp, #0x40]
  00fa4	ea000001	 b           |$LN26@UpdatePowe|
  00fa8		 |$LN25@UpdatePowe|
  00fa8	e3a03000	 mov         r3, #0
  00fac	e58d3040	 str         r3, [sp, #0x40]
  00fb0		 |$LN26@UpdatePowe|
  00fb0		 |$LN13@UpdatePowe|

; 393  :         break;
; 394  :     }
; 395  : 
; 396  :     DEBUGMSG(ZONE_OTG_FUNCTION,(TEXT("-COMAPL13xOTG::UpdatePowerState(%d)\r\n"), rc));

  00fb0	e59f3044	 ldr         r3, [pc, #0x44]
  00fb4	e5933440	 ldr         r3, [r3, #0x440]
  00fb8	e3130a02	 tst         r3, #2, 20
  00fbc	0a000005	 beq         |$LN27@UpdatePowe|
  00fc0	e59d1008	 ldr         r1, [sp, #8]
  00fc4	e59f002c	 ldr         r0, [pc, #0x2C]
  00fc8	eb000000	 bl          NKDbgPrintfW
  00fcc	e3a03001	 mov         r3, #1
  00fd0	e58d3044	 str         r3, [sp, #0x44]
  00fd4	ea000001	 b           |$LN28@UpdatePowe|
  00fd8		 |$LN27@UpdatePowe|
  00fd8	e3a03000	 mov         r3, #0
  00fdc	e58d3044	 str         r3, [sp, #0x44]
  00fe0		 |$LN28@UpdatePowe|

; 397  : 
; 398  :     return rc;

  00fe0	e59d3008	 ldr         r3, [sp, #8]
  00fe4	e58d3018	 str         r3, [sp, #0x18]

; 399  : }

  00fe8	e59d0018	 ldr         r0, [sp, #0x18]
  00fec	e28dd048	 add         sp, sp, #0x48
  00ff0	e89d6000	 ldmia       sp, {sp, lr}
  00ff4	e12fff1e	 bx          lr
  00ff8		 |$LN32@UpdatePowe|
  00ff8		 |$LN33@UpdatePowe|
  00ff8	00000000	 DCD         |??_C@_1EM@OGIGMLAE@?$AA?9?$AAC?$AAO?$AAM?$AAA?$AAP?$AAL?$AA1?$AA3?$AAx?$AAO?$AAT?$AAG?$AA?3?$AA?3?$AAU?$AAp?$AAd?$AAa?$AAt?$AAe?$AAP?$AAo?$AAw?$AAe?$AAr?$AAS?$AAt?$AAa?$AAt?$AAe?$AA?$CI@|
  00ffc		 |$LN34@UpdatePowe|
  00ffc	00000000	 DCD         |dpCurSettings|
  01000		 |$LN35@UpdatePowe|
  01000	00000000	 DCD         |??_C@_1IA@LAMHPFLF@?$AAC?$AAO?$AAM?$AAA?$AAP?$AAL?$AA1?$AA3?$AAx?$AAO?$AAT?$AAG?$AA?3?$AA?3?$AAU?$AAp?$AAd?$AAa?$AAt?$AAe?$AAP?$AAo?$AAw?$AAe?$AAr?$AAS?$AAt?$AAa?$AAt?$AAe?$AA?3?$AA?5@|
  01004		 |$LN36@UpdatePowe|
  01004	00000000	 DCD         |??_C@_1GE@FMGPFEPI@?$AA?5?$AAC?$AAA?$AAM?$AA3?$AA5?$AAx?$AAO?$AAT?$AAG?$AA?3?$AA?3?$AAP?$AAo?$AAw?$AAe?$AAr?$AAD?$AAo?$AAw?$AAn?$AA?3?$AA?5?$AAR?$AAe?$AAl?$AAe?$AAa?$AAs?$AAe?$AAD?$AAe@|
  01008		 |$LN37@UpdatePowe|
  01008	00000000	 DCD         |??_C@_1CI@OHCJFJPM@?$AAE?$AAR?$AAR?$AAO?$AAR?$AA?3?$AA?5?$AA?$CF?$AAs?$AA?5?$AAl?$AAi?$AAn?$AAe?$AA?5?$AA?$CF?$AAd?$AA?3?$AA?5?$AA?$AA@|
  0100c		 |$LN38@UpdatePowe|
  0100c	00000000	 DCD         |??_C@_1KG@INLIEDAD@?$AAC?$AA?3?$AA?2?$AAW?$AAI?$AAN?$AAC?$AAE?$AA6?$AA0?$AA0?$AA?2?$AAP?$AAL?$AAA?$AAT?$AAF?$AAO?$AAR?$AAM?$AA?2?$AAC?$AAO?$AAM?$AAM?$AAO?$AAN?$AA?2?$AAS?$AAR?$AAC?$AA?2@|
  01010		 |$LN39@UpdatePowe|
  01010	00000000	 DCD         |??_C@_1OC@HMIFGNBA@?$AAd?$AAr?$AAi?$AAv?$AAe?$AAr?$AA?5?$AAu?$AAn?$AAl?$AAo?$AAa?$AAd?$AAi?$AAn?$AAg?$AA?5?$AAt?$AAi?$AAm?$AAe?$AAd?$AA?5?$AAo?$AAu?$AAt?$AA?4?$AA?5?$AAm?$AAa?$AAy?$AAb@|
  01014		 |$LN40@UpdatePowe|
  01014	00000000	 DCD         |?UnloadDrivers@@YAKPAVCAM35xOTG@@@Z|
  01018		 |$LN41@UpdatePowe|
  01018	ff7f3fe3	 DCD         0xff7f3fe3
  0101c		 |$LN42@UpdatePowe|
  0101c	00000000	 DCD         |??_C@_1GA@DMPHBL@?$AA?5?$AAC?$AAA?$AAM?$AA3?$AA5?$AAx?$AAO?$AAT?$AAG?$AA?3?$AA?3?$AAP?$AAo?$AAw?$AAe?$AAr?$AAU?$AAp?$AA?3?$AA?5?$AAR?$AAe?$AAq?$AAu?$AAe?$AAs?$AAt?$AAD?$AAe?$AAv?$AAi@|
  01020		 |$LN43@UpdatePowe|
  01020	00000000	 DCD         |??_C@_1EC@GABKJBDM@?$AA?$CL?$AAC?$AAA?$AAM?$AA3?$AA5?$AAx?$AAO?$AAT?$AAG?$AA?3?$AA?3?$AAU?$AAp?$AAd?$AAa?$AAt?$AAe?$AAP?$AAo?$AAw?$AAe?$AAr?$AAS?$AAt?$AAa?$AAt?$AAe?$AA?$CI?$AA?$CJ?$AA?$AN?$AA?6@|
  01024		 |$M40800|

			 ENDP  ; |?UpdatePowerState@CAM35xOTG@@UAAHXZ|, CAM35xOTG::UpdatePowerState

	EXPORT	|??_C@_1DI@IBJPNOMA@?$AA?9?$AAC?$AAA?$AAM?$AA3?$AA5?$AAx?$AAO?$AAT?$AAG?$AA?3?$AA?3?$AAI?$AAo?$AAC?$AAo?$AAn?$AAt?$AAr?$AAo?$AAl?$AA?$CI?$AA?$CF?$AAd?$AA?$CJ?$AA?$AN?$AA?6?$AA?$AA@| [ DATA ] ; `string'
	EXPORT	|?IOControl@DefaultBusDriver@@UAAHKPAEK0KPAK@Z| ; DefaultBusDriver::IOControl
	EXPORT	|??_C@_1GE@FEBFFJNN@?$AAC?$AAA?$AAM?$AA3?$AA5?$AAx?$AAO?$AAT?$AAG?$AA?3?$AA?3?$AAI?$AAO?$AAC?$AAo?$AAn?$AAt?$AAr?$AAo?$AAl?$AA?3?$AA?5?$AAI?$AAO?$AAC?$AAT?$AAL?$AA_?$AAB?$AAU?$AAS?$AA_@| [ DATA ] ; `string'
	EXPORT	|??_C@_1FA@CKDJMIBF@?$AAC?$AAA?$AAM?$AA3?$AA5?$AAx?$AAO?$AAT?$AAG?$AA?3?$AA?3?$AAI?$AAO?$AAC?$AAo?$AAn?$AAt?$AAr?$AAo?$AAl?$AA?3?$AA?5?$AAI?$AAO?$AAC?$AAT?$AAL?$AA_?$AAP?$AAO?$AAW?$AAE@| [ DATA ] ; `string'
	EXPORT	|??_C@_1FI@DEFCGBNB@?$AAC?$AAA?$AAM?$AA3?$AA5?$AAx?$AAO?$AAT?$AAG?$AA?3?$AA?3?$AAI?$AAO?$AAC?$AAo?$AAn?$AAt?$AAr?$AAo?$AAl?$AA?3?$AAI?$AAO?$AAC?$AAT?$AAL?$AA_?$AAP?$AAO?$AAW?$AAE?$AAR@| [ DATA ] ; `string'
	EXPORT	|??_C@_1FA@CFCHBOJG@?$AAC?$AAA?$AAM?$AA3?$AA5?$AAx?$AAO?$AAT?$AAG?$AA?3?$AA?3?$AAI?$AAO?$AAC?$AAo?$AAn?$AAt?$AAr?$AAo?$AAl?$AA?3?$AA?5?$AAI?$AAO?$AAC?$AAT?$AAL?$AA_?$AAP?$AAO?$AAW?$AAE@| [ DATA ] ; `string'
	EXPORT	|??_C@_1DI@MMOBLGDC@?$AA?$CL?$AAC?$AAA?$AAM?$AA3?$AA5?$AAx?$AAO?$AAT?$AAG?$AA?3?$AA?3?$AAI?$AAo?$AAC?$AAo?$AAn?$AAt?$AAr?$AAo?$AAl?$AA?$CI?$AA?$CF?$AAd?$AA?$CJ?$AA?$AN?$AA?6?$AA?$AA@| [ DATA ] ; `string'
	IMPORT	|?IOControl@USBOTG@@UAAHKPAEK0KPAK@Z|	; USBOTG::IOControl
	IMPORT	|SetLastError|

  00050			 AREA	 |.pdata|, PDATA
|$T40838| DCD	|$LN34@IOControl|
	DCD	0x4000df04

  00000			 AREA	 |.rdata|, DATA, READONLY
|??_C@_1DI@IBJPNOMA@?$AA?9?$AAC?$AAA?$AAM?$AA3?$AA5?$AAx?$AAO?$AAT?$AAG?$AA?3?$AA?3?$AAI?$AAo?$AAC?$AAo?$AAn?$AAt?$AAr?$AAo?$AAl?$AA?$CI?$AA?$CF?$AAd?$AA?$CJ?$AA?$AN?$AA?6?$AA?$AA@| DCB "-"
	DCB	0x0, "C", 0x0, "A", 0x0, "M", 0x0, "3", 0x0, "5", 0x0, "x"
	DCB	0x0, "O", 0x0, "T", 0x0, "G", 0x0, ":", 0x0, ":", 0x0, "I"
	DCB	0x0, "o", 0x0, "C", 0x0, "o", 0x0, "n", 0x0, "t", 0x0, "r"
	DCB	0x0, "o", 0x0, "l", 0x0, "(", 0x0, "%", 0x0, "d", 0x0, ")"
	DCB	0x0, 0xd, 0x0, 0xa, 0x0, 0x0, 0x0	; `string'

  00000			 AREA	 |.rdata|, DATA, READONLY
|??_C@_1GE@FEBFFJNN@?$AAC?$AAA?$AAM?$AA3?$AA5?$AAx?$AAO?$AAT?$AAG?$AA?3?$AA?3?$AAI?$AAO?$AAC?$AAo?$AAn?$AAt?$AAr?$AAo?$AAl?$AA?3?$AA?5?$AAI?$AAO?$AAC?$AAT?$AAL?$AA_?$AAB?$AAU?$AAS?$AA_@| DCB "C"
	DCB	0x0, "A", 0x0, "M", 0x0, "3", 0x0, "5", 0x0, "x", 0x0, "O"
	DCB	0x0, "T", 0x0, "G", 0x0, ":", 0x0, ":", 0x0, "I", 0x0, "O"
	DCB	0x0, "C", 0x0, "o", 0x0, "n", 0x0, "t", 0x0, "r", 0x0, "o"
	DCB	0x0, "l", 0x0, ":", 0x0, " ", 0x0, "I", 0x0, "O", 0x0, "C"
	DCB	0x0, "T", 0x0, "L", 0x0, "_", 0x0, "B", 0x0, "U", 0x0, "S"
	DCB	0x0, "_", 0x0, "S", 0x0, "E", 0x0, "T", 0x0, "_", 0x0, "P"
	DCB	0x0, "O", 0x0, "W", 0x0, "E", 0x0, "R", 0x0, "_", 0x0, "S"
	DCB	0x0, "T", 0x0, "A", 0x0, "T", 0x0, "E", 0x0, 0xd, 0x0, 0xa
	DCB	0x0, 0x0, 0x0				; `string'

  00000			 AREA	 |.rdata|, DATA, READONLY
|??_C@_1FA@CKDJMIBF@?$AAC?$AAA?$AAM?$AA3?$AA5?$AAx?$AAO?$AAT?$AAG?$AA?3?$AA?3?$AAI?$AAO?$AAC?$AAo?$AAn?$AAt?$AAr?$AAo?$AAl?$AA?3?$AA?5?$AAI?$AAO?$AAC?$AAT?$AAL?$AA_?$AAP?$AAO?$AAW?$AAE@| DCB "C"
	DCB	0x0, "A", 0x0, "M", 0x0, "3", 0x0, "5", 0x0, "x", 0x0, "O"
	DCB	0x0, "T", 0x0, "G", 0x0, ":", 0x0, ":", 0x0, "I", 0x0, "O"
	DCB	0x0, "C", 0x0, "o", 0x0, "n", 0x0, "t", 0x0, "r", 0x0, "o"
	DCB	0x0, "l", 0x0, ":", 0x0, " ", 0x0, "I", 0x0, "O", 0x0, "C"
	DCB	0x0, "T", 0x0, "L", 0x0, "_", 0x0, "P", 0x0, "O", 0x0, "W"
	DCB	0x0, "E", 0x0, "R", 0x0, "_", 0x0, "G", 0x0, "E", 0x0, "T"
	DCB	0x0, 0xd, 0x0, 0xa, 0x0, 0x0, 0x0	; `string'

  00000			 AREA	 |.rdata|, DATA, READONLY
|??_C@_1FI@DEFCGBNB@?$AAC?$AAA?$AAM?$AA3?$AA5?$AAx?$AAO?$AAT?$AAG?$AA?3?$AA?3?$AAI?$AAO?$AAC?$AAo?$AAn?$AAt?$AAr?$AAo?$AAl?$AA?3?$AAI?$AAO?$AAC?$AAT?$AAL?$AA_?$AAP?$AAO?$AAW?$AAE?$AAR@| DCB "C"
	DCB	0x0, "A", 0x0, "M", 0x0, "3", 0x0, "5", 0x0, "x", 0x0, "O"
	DCB	0x0, "T", 0x0, "G", 0x0, ":", 0x0, ":", 0x0, "I", 0x0, "O"
	DCB	0x0, "C", 0x0, "o", 0x0, "n", 0x0, "t", 0x0, "r", 0x0, "o"
	DCB	0x0, "l", 0x0, ":", 0x0, "I", 0x0, "O", 0x0, "C", 0x0, "T"
	DCB	0x0, "L", 0x0, "_", 0x0, "P", 0x0, "O", 0x0, "W", 0x0, "E"
	DCB	0x0, "R", 0x0, "_", 0x0, "S", 0x0, "E", 0x0, "T", 0x0, ":"
	DCB	0x0, " ", 0x0, "D", 0x0, "%", 0x0, "d", 0x0, 0xd, 0x0, 0xa
	DCB	0x0, 0x0, 0x0				; `string'

  00000			 AREA	 |.rdata|, DATA, READONLY
|??_C@_1FA@CFCHBOJG@?$AAC?$AAA?$AAM?$AA3?$AA5?$AAx?$AAO?$AAT?$AAG?$AA?3?$AA?3?$AAI?$AAO?$AAC?$AAo?$AAn?$AAt?$AAr?$AAo?$AAl?$AA?3?$AA?5?$AAI?$AAO?$AAC?$AAT?$AAL?$AA_?$AAP?$AAO?$AAW?$AAE@| DCB "C"
	DCB	0x0, "A", 0x0, "M", 0x0, "3", 0x0, "5", 0x0, "x", 0x0, "O"
	DCB	0x0, "T", 0x0, "G", 0x0, ":", 0x0, ":", 0x0, "I", 0x0, "O"
	DCB	0x0, "C", 0x0, "o", 0x0, "n", 0x0, "t", 0x0, "r", 0x0, "o"
	DCB	0x0, "l", 0x0, ":", 0x0, " ", 0x0, "I", 0x0, "O", 0x0, "C"
	DCB	0x0, "T", 0x0, "L", 0x0, "_", 0x0, "P", 0x0, "O", 0x0, "W"
	DCB	0x0, "E", 0x0, "R", 0x0, "_", 0x0, "S", 0x0, "E", 0x0, "T"
	DCB	0x0, 0xd, 0x0, 0xa, 0x0, 0x0, 0x0	; `string'

  00000			 AREA	 |.rdata|, DATA, READONLY
|??_C@_1DI@MMOBLGDC@?$AA?$CL?$AAC?$AAA?$AAM?$AA3?$AA5?$AAx?$AAO?$AAT?$AAG?$AA?3?$AA?3?$AAI?$AAo?$AAC?$AAo?$AAn?$AAt?$AAr?$AAo?$AAl?$AA?$CI?$AA?$CF?$AAd?$AA?$CJ?$AA?$AN?$AA?6?$AA?$AA@| DCB "+"
	DCB	0x0, "C", 0x0, "A", 0x0, "M", 0x0, "3", 0x0, "5", 0x0, "x"
	DCB	0x0, "O", 0x0, "T", 0x0, "G", 0x0, ":", 0x0, ":", 0x0, "I"
	DCB	0x0, "o", 0x0, "C", 0x0, "o", 0x0, "n", 0x0, "t", 0x0, "r"
	DCB	0x0, "o", 0x0, "l", 0x0, "(", 0x0, "%", 0x0, "d", 0x0, ")"
	DCB	0x0, 0xd, 0x0, 0xa, 0x0, 0x0, 0x0	; `string'
; Function compile flags: /Odtp

  01024			 AREA	 |.text|, CODE, ARM

  01024		 |?IOControl@CAM35xOTG@@UAAHKPAEK0KPAK@Z| PROC ; CAM35xOTG::IOControl

; 402  : {

  01024		 |$LN34@IOControl|
  01024	e1a0c00d	 mov         r12, sp
  01028	e92d000f	 stmdb       sp!, {r0 - r3}
  0102c	e92d5000	 stmdb       sp!, {r12, lr}
  01030	e24dd060	 sub         sp, sp, #0x60
  01034		 |$M40835|

; 403  :     BOOL bReturn = FALSE;

  01034	e3a03000	 mov         r3, #0
  01038	e58d300c	 str         r3, [sp, #0xC]

; 404  : 
; 405  :     DEBUGMSG(ZONE_OTG_FUNCTION,(TEXT("+CAM35xOTG::IoControl(%d)\r\n"), dwCode));

  0103c	e59f333c	 ldr         r3, [pc, #0x33C]
  01040	e5933440	 ldr         r3, [r3, #0x440]
  01044	e3130a02	 tst         r3, #2, 20
  01048	0a000005	 beq         |$LN20@IOControl|
  0104c	e59d106c	 ldr         r1, [sp, #0x6C]
  01050	e59f0344	 ldr         r0, [pc, #0x344]
  01054	eb000000	 bl          NKDbgPrintfW
  01058	e3a03001	 mov         r3, #1
  0105c	e58d3038	 str         r3, [sp, #0x38]
  01060	ea000001	 b           |$LN21@IOControl|
  01064		 |$LN20@IOControl|
  01064	e3a03000	 mov         r3, #0
  01068	e58d3038	 str         r3, [sp, #0x38]
  0106c		 |$LN21@IOControl|

; 406  : 
; 407  :     switch (dwCode) 

  0106c	e59d306c	 ldr         r3, [sp, #0x6C]
  01070	e58d303c	 str         r3, [sp, #0x3C]
  01074	e59d203c	 ldr         r2, [sp, #0x3C]
  01078	e3a0382a	 mov         r3, #0x2A, 16
  0107c	e3833010	 orr         r3, r3, #0x10
  01080	e1520003	 cmp         r2, r3
  01084	0a00006a	 beq         |$LN5@IOControl|
  01088	e59d203c	 ldr         r2, [sp, #0x3C]
  0108c	e59f3304	 ldr         r3, [pc, #0x304]
  01090	e1520003	 cmp         r2, r3
  01094	0a000042	 beq         |$LN10@IOControl|
  01098	e59d203c	 ldr         r2, [sp, #0x3C]
  0109c	e59f32f0	 ldr         r3, [pc, #0x2F0]
  010a0	e1520003	 cmp         r2, r3
  010a4	0a000000	 beq         |$LN15@IOControl|
  010a8	ea000093	 b           |$LN1@IOControl|
  010ac		 |$LN15@IOControl|

; 408  :     {
; 409  :         // Reimplemented IOCTL_POWER_SET in PDD layer, as the code
; 410  :         // in the MDD has a bug (it always returns FALSE!)
; 411  :         case IOCTL_POWER_SET:
; 412  :             DEBUGMSG(ZONE_OTG_STATE,(TEXT("CAM35xOTG::IOControl: IOCTL_POWER_SET\r\n")));

  010ac	e59f32cc	 ldr         r3, [pc, #0x2CC]
  010b0	e5933440	 ldr         r3, [r3, #0x440]
  010b4	e3130a01	 tst         r3, #1, 20
  010b8	0a000004	 beq         |$LN22@IOControl|
  010bc	e59f02cc	 ldr         r0, [pc, #0x2CC]
  010c0	eb000000	 bl          NKDbgPrintfW
  010c4	e3a03001	 mov         r3, #1
  010c8	e58d3040	 str         r3, [sp, #0x40]
  010cc	ea000001	 b           |$LN23@IOControl|
  010d0		 |$LN22@IOControl|
  010d0	e3a03000	 mov         r3, #0
  010d4	e58d3040	 str         r3, [sp, #0x40]
  010d8		 |$LN23@IOControl|

; 413  :             if (!pBufOut || dwLenOut < sizeof(CEDEVICE_POWER_STATE)) {

  010d8	e59d3078	 ldr         r3, [sp, #0x78]
  010dc	e3530000	 cmp         r3, #0
  010e0	0a000002	 beq         |$LN13@IOControl|
  010e4	e59d307c	 ldr         r3, [sp, #0x7C]
  010e8	e3530004	 cmp         r3, #4
  010ec	2a000004	 bcs         |$LN14@IOControl|
  010f0		 |$LN13@IOControl|

; 414  :                 SetLastError(ERROR_INVALID_PARAMETER);

  010f0	e3a00057	 mov         r0, #0x57
  010f4	eb000000	 bl          SetLastError

; 415  :                 bReturn = FALSE;

  010f8	e3a03000	 mov         r3, #0
  010fc	e58d300c	 str         r3, [sp, #0xC]

; 416  :             } else {

  01100	ea000026	 b           |$LN12@IOControl|
  01104		 |$LN14@IOControl|

; 417  :                 m_RequestedPowerState = *(PCEDEVICE_POWER_STATE) pBufOut;

  01104	e59d3068	 ldr         r3, [sp, #0x68]
  01108	e28320d0	 add         r2, r3, #0xD0
  0110c	e59d3078	 ldr         r3, [sp, #0x78]
  01110	e5933000	 ldr         r3, [r3]
  01114	e5823000	 str         r3, [r2]

; 418  :                 m_IsThisPowerManaged = TRUE;

  01118	e59d3068	 ldr         r3, [sp, #0x68]
  0111c	e28320d4	 add         r2, r3, #0xD4
  01120	e3a03001	 mov         r3, #1
  01124	e5823000	 str         r3, [r2]

; 419  :                 DEBUGMSG(ZONE_OTG_STATE, (TEXT("CAM35xOTG::IOControl:IOCTL_POWER_SET: D%d\r\n"), m_RequestedPowerState));

  01128	e59f3250	 ldr         r3, [pc, #0x250]
  0112c	e5933440	 ldr         r3, [r3, #0x440]
  01130	e3130a01	 tst         r3, #1, 20
  01134	0a000007	 beq         |$LN24@IOControl|
  01138	e59d3068	 ldr         r3, [sp, #0x68]
  0113c	e28330d0	 add         r3, r3, #0xD0
  01140	e5931000	 ldr         r1, [r3]
  01144	e59f0240	 ldr         r0, [pc, #0x240]
  01148	eb000000	 bl          NKDbgPrintfW
  0114c	e3a03001	 mov         r3, #1
  01150	e58d3044	 str         r3, [sp, #0x44]
  01154	ea000001	 b           |$LN25@IOControl|
  01158		 |$LN24@IOControl|
  01158	e3a03000	 mov         r3, #0
  0115c	e58d3044	 str         r3, [sp, #0x44]
  01160		 |$LN25@IOControl|

; 420  :                 bReturn = UpdatePowerState();

  01160	e59d3068	 ldr         r3, [sp, #0x68]
  01164	e5933000	 ldr         r3, [r3]
  01168	e28330bc	 add         r3, r3, #0xBC
  0116c	e59d0068	 ldr         r0, [sp, #0x68]
  01170	e5933000	 ldr         r3, [r3]
  01174	e1a0e00f	 mov         lr, pc
  01178	e12fff13	 bx          r3
  0117c	e58d0048	 str         r0, [sp, #0x48]
  01180	e59d3048	 ldr         r3, [sp, #0x48]
  01184	e58d300c	 str         r3, [sp, #0xC]

; 421  :                 // did we set the device power?
; 422  :                 if (pdwActualOut) {

  01188	e59d3080	 ldr         r3, [sp, #0x80]
  0118c	e3530000	 cmp         r3, #0
  01190	0a000002	 beq         |$LN11@IOControl|

; 423  :                     *pdwActualOut = sizeof(CEDEVICE_POWER_STATE);

  01194	e59d2080	 ldr         r2, [sp, #0x80]
  01198	e3a03004	 mov         r3, #4
  0119c	e5823000	 str         r3, [r2]
  011a0		 |$LN11@IOControl|
  011a0		 |$LN12@IOControl|

; 424  :                 }
; 425  :             }
; 426  :             break;

  011a0	ea000063	 b           |$LN16@IOControl|
  011a4		 |$LN10@IOControl|

; 427  :         // Implemented IOCTL_POWER_GET in PDD layer, as the MDD
; 428  :         // layer does not implement this IOCTL
; 429  :         case IOCTL_POWER_GET: // gets the current device power state
; 430  :             DEBUGMSG(ZONE_OTG_STATE,(TEXT("CAM35xOTG::IOControl: IOCTL_POWER_GET\r\n")));

  011a4	e59f31d4	 ldr         r3, [pc, #0x1D4]
  011a8	e5933440	 ldr         r3, [r3, #0x440]
  011ac	e3130a01	 tst         r3, #1, 20
  011b0	0a000004	 beq         |$LN26@IOControl|
  011b4	e59f01cc	 ldr         r0, [pc, #0x1CC]
  011b8	eb000000	 bl          NKDbgPrintfW
  011bc	e3a03001	 mov         r3, #1
  011c0	e58d304c	 str         r3, [sp, #0x4C]
  011c4	ea000001	 b           |$LN27@IOControl|
  011c8		 |$LN26@IOControl|
  011c8	e3a03000	 mov         r3, #0
  011cc	e58d304c	 str         r3, [sp, #0x4C]
  011d0		 |$LN27@IOControl|

; 431  :             if (!pBufOut || dwLenOut < sizeof(CEDEVICE_POWER_STATE)) {

  011d0	e59d3078	 ldr         r3, [sp, #0x78]
  011d4	e3530000	 cmp         r3, #0
  011d8	0a000002	 beq         |$LN8@IOControl|
  011dc	e59d307c	 ldr         r3, [sp, #0x7C]
  011e0	e3530004	 cmp         r3, #4
  011e4	2a000004	 bcs         |$LN9@IOControl|
  011e8		 |$LN8@IOControl|

; 432  :                 SetLastError(ERROR_INVALID_PARAMETER);

  011e8	e3a00057	 mov         r0, #0x57
  011ec	eb000000	 bl          SetLastError

; 433  :                 bReturn = FALSE;

  011f0	e3a03000	 mov         r3, #0
  011f4	e58d300c	 str         r3, [sp, #0xC]

; 434  :             } else {

  011f8	ea00000c	 b           |$LN7@IOControl|
  011fc		 |$LN9@IOControl|

; 435  :                 *(PCEDEVICE_POWER_STATE) pBufOut = m_RequestedPowerState;

  011fc	e59d3068	 ldr         r3, [sp, #0x68]
  01200	e28330d0	 add         r3, r3, #0xD0
  01204	e5932000	 ldr         r2, [r3]
  01208	e59d3078	 ldr         r3, [sp, #0x78]
  0120c	e5832000	 str         r2, [r3]

; 436  :                 if (pdwActualOut) {

  01210	e59d3080	 ldr         r3, [sp, #0x80]
  01214	e3530000	 cmp         r3, #0
  01218	0a000002	 beq         |$LN6@IOControl|

; 437  :                     *pdwActualOut = sizeof(CEDEVICE_POWER_STATE);

  0121c	e59d2080	 ldr         r2, [sp, #0x80]
  01220	e3a03004	 mov         r3, #4
  01224	e5823000	 str         r3, [r2]
  01228		 |$LN6@IOControl|

; 438  :                 }                
; 439  :                 bReturn = TRUE;

  01228	e3a03001	 mov         r3, #1
  0122c	e58d300c	 str         r3, [sp, #0xC]
  01230		 |$LN7@IOControl|

; 440  :             }
; 441  :             break;

  01230	ea00003f	 b           |$LN16@IOControl|
  01234		 |$LN5@IOControl|

; 442  :         // Implemented IOCTL_BUS_SET_POWER_STATE in PDD layer, as the MDD
; 443  :         // layer uses default bus driver with wrong parameters
; 444  : 		case IOCTL_BUS_SET_POWER_STATE:
; 445  : 			DEBUGMSG(ZONE_OTG_STATE,(TEXT("CAM35xOTG::IOControl: IOCTL_BUS_SET_POWER_STATE\r\n")));

  01234	e59f3144	 ldr         r3, [pc, #0x144]
  01238	e5933440	 ldr         r3, [r3, #0x440]
  0123c	e3130a01	 tst         r3, #1, 20
  01240	0a000004	 beq         |$LN28@IOControl|
  01244	e59f0138	 ldr         r0, [pc, #0x138]
  01248	eb000000	 bl          NKDbgPrintfW
  0124c	e3a03001	 mov         r3, #1
  01250	e58d3050	 str         r3, [sp, #0x50]
  01254	ea000001	 b           |$LN29@IOControl|
  01258		 |$LN28@IOControl|
  01258	e3a03000	 mov         r3, #0
  0125c	e58d3050	 str         r3, [sp, #0x50]
  01260		 |$LN29@IOControl|

; 446  :             if ((pBufIn == NULL) || (dwLenIn < sizeof(CE_BUS_POWER_STATE))) {

  01260	e59d3070	 ldr         r3, [sp, #0x70]
  01264	e3530000	 cmp         r3, #0
  01268	0a000002	 beq         |$LN3@IOControl|
  0126c	e59d3074	 ldr         r3, [sp, #0x74]
  01270	e353000c	 cmp         r3, #0xC
  01274	2a000004	 bcs         |$LN4@IOControl|
  01278		 |$LN3@IOControl|

; 447  :                 SetLastError(ERROR_INVALID_PARAMETER);

  01278	e3a00057	 mov         r0, #0x57
  0127c	eb000000	 bl          SetLastError

; 448  :                 bReturn = FALSE;

  01280	e3a03000	 mov         r3, #0
  01284	e58d300c	 str         r3, [sp, #0xC]

; 449  : 			} else {

  01288	ea00001a	 b           |$LN2@IOControl|
  0128c		 |$LN4@IOControl|

; 450  : 				CE_BUS_POWER_STATE* state = (CE_BUS_POWER_STATE *)pBufIn;

  0128c	e59d3070	 ldr         r3, [sp, #0x70]
  01290	e58d3018	 str         r3, [sp, #0x18]

; 451  : 				CEDDK_BUS_POWER_STATE ceddkPowerState;
; 452  : 
; 453  : 				ceddkPowerState.DevicePowerState = *(state->lpceDevicePowerState);

  01294	e59d3018	 ldr         r3, [sp, #0x18]
  01298	e2833004	 add         r3, r3, #4
  0129c	e5933000	 ldr         r3, [r3]
  012a0	e5933000	 ldr         r3, [r3]
  012a4	e58d3010	 str         r3, [sp, #0x10]

; 454  : 				ceddkPowerState.lpReserved = state->lpReserved;

  012a8	e59d3018	 ldr         r3, [sp, #0x18]
  012ac	e2833008	 add         r3, r3, #8
  012b0	e5933000	 ldr         r3, [r3]
  012b4	e58d3014	 str         r3, [sp, #0x14]

; 455  : 
; 456  : 				bReturn = DefaultBusDriver::IOControl(IOCTL_BUS_SET_POWER_STATE, 
; 457  : 											(PBYTE)state->lpDeviceBusName, sizeof(state->lpDeviceBusName), 
; 458  : 											(PBYTE)&ceddkPowerState, sizeof(CEDDK_BUS_POWER_STATE),
; 459  : 											pdwActualOut) ;

  012b8	e59d3080	 ldr         r3, [sp, #0x80]
  012bc	e58d3008	 str         r3, [sp, #8]
  012c0	e3a03008	 mov         r3, #8
  012c4	e58d3004	 str         r3, [sp, #4]
  012c8	e28d3010	 add         r3, sp, #0x10
  012cc	e58d3000	 str         r3, [sp]
  012d0	e3a03004	 mov         r3, #4
  012d4	e59d2018	 ldr         r2, [sp, #0x18]
  012d8	e5922000	 ldr         r2, [r2]
  012dc	e3a0182a	 mov         r1, #0x2A, 16
  012e0	e3811010	 orr         r1, r1, #0x10
  012e4	e59d0068	 ldr         r0, [sp, #0x68]
  012e8	eb000000	 bl          |?IOControl@DefaultBusDriver@@UAAHKPAEK0KPAK@Z|
  012ec	e58d0054	 str         r0, [sp, #0x54]
  012f0	e59d3054	 ldr         r3, [sp, #0x54]
  012f4	e58d300c	 str         r3, [sp, #0xC]
  012f8		 |$LN2@IOControl|

; 460  : 			}
; 461  : 
; 462  : 			break;

  012f8	ea00000d	 b           |$LN16@IOControl|
  012fc		 |$LN1@IOControl|

; 463  :         default:    
; 464  :             bReturn = USBOTG::IOControl(dwCode,pBufIn,dwLenIn,pBufOut,dwLenOut,pdwActualOut);

  012fc	e59d3080	 ldr         r3, [sp, #0x80]
  01300	e58d3008	 str         r3, [sp, #8]
  01304	e59d307c	 ldr         r3, [sp, #0x7C]
  01308	e58d3004	 str         r3, [sp, #4]
  0130c	e59d3078	 ldr         r3, [sp, #0x78]
  01310	e58d3000	 str         r3, [sp]
  01314	e59d3074	 ldr         r3, [sp, #0x74]
  01318	e59d2070	 ldr         r2, [sp, #0x70]
  0131c	e59d106c	 ldr         r1, [sp, #0x6C]
  01320	e59d0068	 ldr         r0, [sp, #0x68]
  01324	eb000000	 bl          |?IOControl@USBOTG@@UAAHKPAEK0KPAK@Z|
  01328	e58d0058	 str         r0, [sp, #0x58]
  0132c	e59d3058	 ldr         r3, [sp, #0x58]
  01330	e58d300c	 str         r3, [sp, #0xC]
  01334		 |$LN16@IOControl|

; 465  :             break;
; 466  :     }
; 467  : 
; 468  :     DEBUGMSG(ZONE_OTG_FUNCTION,(TEXT("-CAM35xOTG::IoControl(%d)\r\n"), bReturn));

  01334	e59f3044	 ldr         r3, [pc, #0x44]
  01338	e5933440	 ldr         r3, [r3, #0x440]
  0133c	e3130a02	 tst         r3, #2, 20
  01340	0a000005	 beq         |$LN30@IOControl|
  01344	e59d100c	 ldr         r1, [sp, #0xC]
  01348	e59f002c	 ldr         r0, [pc, #0x2C]
  0134c	eb000000	 bl          NKDbgPrintfW
  01350	e3a03001	 mov         r3, #1
  01354	e58d305c	 str         r3, [sp, #0x5C]
  01358	ea000001	 b           |$LN31@IOControl|
  0135c		 |$LN30@IOControl|
  0135c	e3a03000	 mov         r3, #0
  01360	e58d305c	 str         r3, [sp, #0x5C]
  01364		 |$LN31@IOControl|

; 469  :     return bReturn;

  01364	e59d300c	 ldr         r3, [sp, #0xC]
  01368	e58d3034	 str         r3, [sp, #0x34]

; 470  : }

  0136c	e59d0034	 ldr         r0, [sp, #0x34]
  01370	e28dd060	 add         sp, sp, #0x60
  01374	e89d6000	 ldmia       sp, {sp, lr}
  01378	e12fff1e	 bx          lr
  0137c		 |$LN35@IOControl|
  0137c		 |$LN36@IOControl|
  0137c	00000000	 DCD         |??_C@_1DI@IBJPNOMA@?$AA?9?$AAC?$AAA?$AAM?$AA3?$AA5?$AAx?$AAO?$AAT?$AAG?$AA?3?$AA?3?$AAI?$AAo?$AAC?$AAo?$AAn?$AAt?$AAr?$AAo?$AAl?$AA?$CI?$AA?$CF?$AAd?$AA?$CJ?$AA?$AN?$AA?6?$AA?$AA@|
  01380		 |$LN37@IOControl|
  01380	00000000	 DCD         |dpCurSettings|
  01384		 |$LN38@IOControl|
  01384	00000000	 DCD         |??_C@_1GE@FEBFFJNN@?$AAC?$AAA?$AAM?$AA3?$AA5?$AAx?$AAO?$AAT?$AAG?$AA?3?$AA?3?$AAI?$AAO?$AAC?$AAo?$AAn?$AAt?$AAr?$AAo?$AAl?$AA?3?$AA?5?$AAI?$AAO?$AAC?$AAT?$AAL?$AA_?$AAB?$AAU?$AAS?$AA_@|
  01388		 |$LN39@IOControl|
  01388	00000000	 DCD         |??_C@_1FA@CKDJMIBF@?$AAC?$AAA?$AAM?$AA3?$AA5?$AAx?$AAO?$AAT?$AAG?$AA?3?$AA?3?$AAI?$AAO?$AAC?$AAo?$AAn?$AAt?$AAr?$AAo?$AAl?$AA?3?$AA?5?$AAI?$AAO?$AAC?$AAT?$AAL?$AA_?$AAP?$AAO?$AAW?$AAE@|
  0138c		 |$LN40@IOControl|
  0138c	00000000	 DCD         |??_C@_1FI@DEFCGBNB@?$AAC?$AAA?$AAM?$AA3?$AA5?$AAx?$AAO?$AAT?$AAG?$AA?3?$AA?3?$AAI?$AAO?$AAC?$AAo?$AAn?$AAt?$AAr?$AAo?$AAl?$AA?3?$AAI?$AAO?$AAC?$AAT?$AAL?$AA_?$AAP?$AAO?$AAW?$AAE?$AAR@|
  01390		 |$LN41@IOControl|
  01390	00000000	 DCD         |??_C@_1FA@CFCHBOJG@?$AAC?$AAA?$AAM?$AA3?$AA5?$AAx?$AAO?$AAT?$AAG?$AA?3?$AA?3?$AAI?$AAO?$AAC?$AAo?$AAn?$AAt?$AAr?$AAo?$AAl?$AA?3?$AA?5?$AAI?$AAO?$AAC?$AAT?$AAL?$AA_?$AAP?$AAO?$AAW?$AAE@|
  01394		 |$LN42@IOControl|
  01394	00321008	 DCD         0x321008
  01398		 |$LN43@IOControl|
  01398	00321004	 DCD         0x321004
  0139c		 |$LN44@IOControl|
  0139c	00000000	 DCD         |??_C@_1DI@MMOBLGDC@?$AA?$CL?$AAC?$AAA?$AAM?$AA3?$AA5?$AAx?$AAO?$AAT?$AAG?$AA?3?$AA?3?$AAI?$AAo?$AAC?$AAo?$AAn?$AAt?$AAr?$AAo?$AAl?$AA?$CI?$AA?$CF?$AAd?$AA?$CJ?$AA?$AN?$AA?6?$AA?$AA@|
  013a0		 |$M40836|

			 ENDP  ; |?IOControl@CAM35xOTG@@UAAHKPAEK0KPAK@Z|, CAM35xOTG::IOControl

; File c:\wince600\public\common\oak\inc\defbus.h

  00000			 AREA	 |.pdata|, PDATA
|$T40858| DCD	|$LN5@IOControl@2|
	DCD	0x40001d04
; Function compile flags: /Odtp

  00000			 AREA	 |.text|, CODE, ARM

  00000		 |?IOControl@DefaultBusDriver@@UAAHKPAEK0KPAK@Z| PROC ; DefaultBusDriver::IOControl

; 152  :               PDWORD pdwActualOut) {

  00000		 |$LN5@IOControl@2|
  00000	e1a0c00d	 mov         r12, sp
  00004	e92d000f	 stmdb       sp!, {r0 - r3}
  00008	e92d5010	 stmdb       sp!, {r4, r12, lr}
  0000c	e24dd028	 sub         sp, sp, #0x28
  00010		 |$M40855|

; 153  :         return FastIOControl(dwCode,pBufIn,dwLenIn, pBufOut, dwLenOut, pdwActualOut, NULL) ;

  00010	e3a03000	 mov         r3, #0
  00014	e58d300c	 str         r3, [sp, #0xC]
  00018	e59d304c	 ldr         r3, [sp, #0x4C]
  0001c	e58d3008	 str         r3, [sp, #8]
  00020	e59d3048	 ldr         r3, [sp, #0x48]
  00024	e58d3004	 str         r3, [sp, #4]
  00028	e59d3044	 ldr         r3, [sp, #0x44]
  0002c	e58d3000	 str         r3, [sp]
  00030	e59d3040	 ldr         r3, [sp, #0x40]
  00034	e59d203c	 ldr         r2, [sp, #0x3C]
  00038	e59d1038	 ldr         r1, [sp, #0x38]
  0003c	e59d0034	 ldr         r0, [sp, #0x34]
  00040	e5900000	 ldr         r0, [r0]
  00044	e280e058	 add         lr, r0, #0x58
  00048	e59d0034	 ldr         r0, [sp, #0x34]
  0004c	e59e4000	 ldr         r4, [lr]
  00050	e1a0e00f	 mov         lr, pc
  00054	e12fff14	 bx          r4
  00058	e58d0024	 str         r0, [sp, #0x24]
  0005c	e59d3024	 ldr         r3, [sp, #0x24]
  00060	e58d3020	 str         r3, [sp, #0x20]

; 154  :     }

  00064	e59d0020	 ldr         r0, [sp, #0x20]
  00068	e28dd028	 add         sp, sp, #0x28
  0006c	e89d6010	 ldmia       sp, {r4, sp, lr}
  00070	e12fff1e	 bx          lr
  00074		 |$M40856|

			 ENDP  ; |?IOControl@DefaultBusDriver@@UAAHKPAEK0KPAK@Z|, DefaultBusDriver::IOControl

	EXPORT	|??_C@_1DO@MENFAEJL@?$AA?9?$AAC?$AAA?$AAM?$AA3?$AA5?$AAx?$AAO?$AAT?$AAG?$AA?3?$AA?3?$AAS?$AAe?$AAs?$AAs?$AAi?$AAo?$AAn?$AAR?$AAe?$AAq?$AAu?$AAe?$AAs?$AAt?$AA?$CI?$AA?$CJ?$AA?$AN?$AA?6?$AA?$AA@| [ DATA ] ; `string'
	EXPORT	|??_C@_1EI@OADAEPBA@?$AA?$CL?$AAC?$AAA?$AAM?$AA3?$AA5?$AAx?$AAO?$AAT?$AAG?$AA?3?$AA?3?$AAS?$AAe?$AAs?$AAs?$AAi?$AAo?$AAn?$AAR?$AAe?$AAq?$AAu?$AAe?$AAs?$AAt?$AA?$CI?$AA?$CF?$AAd?$AA?0?$AA?$CF?$AAd@| [ DATA ] ; `string'

  00058			 AREA	 |.pdata|, PDATA
|$T40870| DCD	|$LN12@SessionReq|
	DCD	0x40003804
; File c:\wince600\platform\common\src\soc\common_ti_v1\am3517\usb\usbotg\usbotgpdd.cpp

  00000			 AREA	 |.rdata|, DATA, READONLY
|??_C@_1DO@MENFAEJL@?$AA?9?$AAC?$AAA?$AAM?$AA3?$AA5?$AAx?$AAO?$AAT?$AAG?$AA?3?$AA?3?$AAS?$AAe?$AAs?$AAs?$AAi?$AAo?$AAn?$AAR?$AAe?$AAq?$AAu?$AAe?$AAs?$AAt?$AA?$CI?$AA?$CJ?$AA?$AN?$AA?6?$AA?$AA@| DCB "-"
	DCB	0x0, "C", 0x0, "A", 0x0, "M", 0x0, "3", 0x0, "5", 0x0, "x"
	DCB	0x0, "O", 0x0, "T", 0x0, "G", 0x0, ":", 0x0, ":", 0x0, "S"
	DCB	0x0, "e", 0x0, "s", 0x0, "s", 0x0, "i", 0x0, "o", 0x0, "n"
	DCB	0x0, "R", 0x0, "e", 0x0, "q", 0x0, "u", 0x0, "e", 0x0, "s"
	DCB	0x0, "t", 0x0, "(", 0x0, ")", 0x0, 0xd, 0x0, 0xa, 0x0, 0x0
	DCB	0x0					; `string'

  00000			 AREA	 |.rdata|, DATA, READONLY
|??_C@_1EI@OADAEPBA@?$AA?$CL?$AAC?$AAA?$AAM?$AA3?$AA5?$AAx?$AAO?$AAT?$AAG?$AA?3?$AA?3?$AAS?$AAe?$AAs?$AAs?$AAi?$AAo?$AAn?$AAR?$AAe?$AAq?$AAu?$AAe?$AAs?$AAt?$AA?$CI?$AA?$CF?$AAd?$AA?0?$AA?$CF?$AAd@| DCB "+"
	DCB	0x0, "C", 0x0, "A", 0x0, "M", 0x0, "3", 0x0, "5", 0x0, "x"
	DCB	0x0, "O", 0x0, "T", 0x0, "G", 0x0, ":", 0x0, ":", 0x0, "S"
	DCB	0x0, "e", 0x0, "s", 0x0, "s", 0x0, "i", 0x0, "o", 0x0, "n"
	DCB	0x0, "R", 0x0, "e", 0x0, "q", 0x0, "u", 0x0, "e", 0x0, "s"
	DCB	0x0, "t", 0x0, "(", 0x0, "%", 0x0, "d", 0x0, ",", 0x0, "%"
	DCB	0x0, "d", 0x0, ")", 0x0, 0xd, 0x0, 0xa, 0x0, 0x0, 0x0 ; `string'
; Function compile flags: /Odtp

  013a0			 AREA	 |.text|, CODE, ARM

  013a0		 |?SessionRequest@CAM35xOTG@@UAAHHH@Z| PROC ; CAM35xOTG::SessionRequest

; 474  : {

  013a0		 |$LN12@SessionReq|
  013a0	e1a0c00d	 mov         r12, sp
  013a4	e92d0007	 stmdb       sp!, {r0 - r2}
  013a8	e92d5000	 stmdb       sp!, {r12, lr}
  013ac	e24dd00c	 sub         sp, sp, #0xC
  013b0		 |$M40867|

; 475  :     DEBUGMSG(ZONE_OTG_FUNCTION,(TEXT("+CAM35xOTG::SessionRequest(%d,%d)\r\n"), fPulseLocConn, fPulseChrgVBus));

  013b0	e59f30c0	 ldr         r3, [pc, #0xC0]
  013b4	e5933440	 ldr         r3, [r3, #0x440]
  013b8	e3130a02	 tst         r3, #2, 20
  013bc	0a000006	 beq         |$LN6@SessionReq|
  013c0	e59d201c	 ldr         r2, [sp, #0x1C]
  013c4	e59d1018	 ldr         r1, [sp, #0x18]
  013c8	e59f00ac	 ldr         r0, [pc, #0xAC]
  013cc	eb000000	 bl          NKDbgPrintfW
  013d0	e3a03001	 mov         r3, #1
  013d4	e58d3004	 str         r3, [sp, #4]
  013d8	ea000001	 b           |$LN7@SessionReq|
  013dc		 |$LN6@SessionReq|
  013dc	e3a03000	 mov         r3, #0
  013e0	e58d3004	 str         r3, [sp, #4]
  013e4		 |$LN7@SessionReq|

; 476  : 
; 477  :     if (fPulseLocConn || fPulseChrgVBus)

  013e4	e59d3018	 ldr         r3, [sp, #0x18]
  013e8	e3530000	 cmp         r3, #0
  013ec	1a000002	 bne         |$LN2@SessionReq|
  013f0	e59d301c	 ldr         r3, [sp, #0x1C]
  013f4	e3530000	 cmp         r3, #0
  013f8	0a000006	 beq         |$LN3@SessionReq|
  013fc		 |$LN2@SessionReq|

; 478  :     {
; 479  :         // Set session bit
; 480  :         m_pUsbRegs->DEVCTL = BIT0;

  013fc	e59d3014	 ldr         r3, [sp, #0x14]
  01400	e28330ec	 add         r3, r3, #0xEC
  01404	e5933000	 ldr         r3, [r3]
  01408	e2832e46	 add         r2, r3, #0x46, 28
  0140c	e3a03001	 mov         r3, #1
  01410	e5c23000	 strb        r3, [r2]

; 481  :     }
; 482  :     else

  01414	ea000005	 b           |$LN1@SessionReq|
  01418		 |$LN3@SessionReq|

; 483  :     {
; 484  :         // Clear session bit
; 485  :         m_pUsbRegs->DEVCTL = 0;

  01418	e59d3014	 ldr         r3, [sp, #0x14]
  0141c	e28330ec	 add         r3, r3, #0xEC
  01420	e5933000	 ldr         r3, [r3]
  01424	e2832e46	 add         r2, r3, #0x46, 28
  01428	e3a03000	 mov         r3, #0
  0142c	e5c23000	 strb        r3, [r2]
  01430		 |$LN1@SessionReq|

; 486  :     }
; 487  : 
; 488  :     DEBUGMSG(ZONE_OTG_FUNCTION,(TEXT("-CAM35xOTG::SessionRequest()\r\n")));

  01430	e59f3040	 ldr         r3, [pc, #0x40]
  01434	e5933440	 ldr         r3, [r3, #0x440]
  01438	e3130a02	 tst         r3, #2, 20
  0143c	0a000004	 beq         |$LN8@SessionReq|
  01440	e59f002c	 ldr         r0, [pc, #0x2C]
  01444	eb000000	 bl          NKDbgPrintfW
  01448	e3a03001	 mov         r3, #1
  0144c	e58d3008	 str         r3, [sp, #8]
  01450	ea000001	 b           |$LN9@SessionReq|
  01454		 |$LN8@SessionReq|
  01454	e3a03000	 mov         r3, #0
  01458	e58d3008	 str         r3, [sp, #8]
  0145c		 |$LN9@SessionReq|

; 489  :     return TRUE;

  0145c	e3a03001	 mov         r3, #1
  01460	e58d3000	 str         r3, [sp]

; 490  : }

  01464	e59d0000	 ldr         r0, [sp]
  01468	e28dd00c	 add         sp, sp, #0xC
  0146c	e89d6000	 ldmia       sp, {sp, lr}
  01470	e12fff1e	 bx          lr
  01474		 |$LN13@SessionReq|
  01474		 |$LN14@SessionReq|
  01474	00000000	 DCD         |??_C@_1DO@MENFAEJL@?$AA?9?$AAC?$AAA?$AAM?$AA3?$AA5?$AAx?$AAO?$AAT?$AAG?$AA?3?$AA?3?$AAS?$AAe?$AAs?$AAs?$AAi?$AAo?$AAn?$AAR?$AAe?$AAq?$AAu?$AAe?$AAs?$AAt?$AA?$CI?$AA?$CJ?$AA?$AN?$AA?6?$AA?$AA@|
  01478		 |$LN15@SessionReq|
  01478	00000000	 DCD         |dpCurSettings|
  0147c		 |$LN16@SessionReq|
  0147c	00000000	 DCD         |??_C@_1EI@OADAEPBA@?$AA?$CL?$AAC?$AAA?$AAM?$AA3?$AA5?$AAx?$AAO?$AAT?$AAG?$AA?3?$AA?3?$AAS?$AAe?$AAs?$AAs?$AAi?$AAo?$AAn?$AAR?$AAe?$AAq?$AAu?$AAe?$AAs?$AAt?$AA?$CI?$AA?$CF?$AAd?$AA?0?$AA?$CF?$AAd@|
  01480		 |$M40868|

			 ENDP  ; |?SessionRequest@CAM35xOTG@@UAAHHH@Z|, CAM35xOTG::SessionRequest

	EXPORT	|??_C@_1DO@HDFFKFEK@?$AA?9?$AAC?$AAA?$AAM?$AA3?$AA5?$AAx?$AAO?$AAT?$AAG?$AA?3?$AA?3?$AAN?$AAe?$AAw?$AAS?$AAt?$AAa?$AAt?$AAe?$AAA?$AAc?$AAt?$AAi?$AAo?$AAn?$AA?$CI?$AA?$CJ?$AA?$AN?$AA?6?$AA?$AA@| [ DATA ] ; `string'
	EXPORT	|??_C@_1CG@LNGOFFHD@?$AAU?$AAS?$AAB?$AAO?$AAT?$AAG?$AA?5?$AAs?$AAt?$AAa?$AAt?$AAe?$AA?3?$AA?5?$AA?$CF?$AAs?$AA?6?$AA?$AN?$AA?$AA@| [ DATA ] ; `string'
	EXPORT	|??_C@_1DO@HBOPOIOI@?$AA?$CL?$AAC?$AAA?$AAM?$AA3?$AA5?$AAx?$AAO?$AAT?$AAG?$AA?3?$AA?3?$AAN?$AAe?$AAw?$AAS?$AAt?$AAa?$AAt?$AAe?$AAA?$AAc?$AAt?$AAi?$AAo?$AAn?$AA?$CI?$AA?$CJ?$AA?$AN?$AA?6?$AA?$AA@| [ DATA ] ; `string'

  00060			 AREA	 |.pdata|, PDATA
|$T40886| DCD	|$LN18@NewStateAc|
	DCD	0x40006204

  00000			 AREA	 |.rdata|, DATA, READONLY
|??_C@_1DO@HDFFKFEK@?$AA?9?$AAC?$AAA?$AAM?$AA3?$AA5?$AAx?$AAO?$AAT?$AAG?$AA?3?$AA?3?$AAN?$AAe?$AAw?$AAS?$AAt?$AAa?$AAt?$AAe?$AAA?$AAc?$AAt?$AAi?$AAo?$AAn?$AA?$CI?$AA?$CJ?$AA?$AN?$AA?6?$AA?$AA@| DCB "-"
	DCB	0x0, "C", 0x0, "A", 0x0, "M", 0x0, "3", 0x0, "5", 0x0, "x"
	DCB	0x0, "O", 0x0, "T", 0x0, "G", 0x0, ":", 0x0, ":", 0x0, "N"
	DCB	0x0, "e", 0x0, "w", 0x0, "S", 0x0, "t", 0x0, "a", 0x0, "t"
	DCB	0x0, "e", 0x0, "A", 0x0, "c", 0x0, "t", 0x0, "i", 0x0, "o"
	DCB	0x0, "n", 0x0, "(", 0x0, ")", 0x0, 0xd, 0x0, 0xa, 0x0, 0x0
	DCB	0x0					; `string'

  00000			 AREA	 |.rdata|, DATA, READONLY
|??_C@_1CG@LNGOFFHD@?$AAU?$AAS?$AAB?$AAO?$AAT?$AAG?$AA?5?$AAs?$AAt?$AAa?$AAt?$AAe?$AA?3?$AA?5?$AA?$CF?$AAs?$AA?6?$AA?$AN?$AA?$AA@| DCB "U"
	DCB	0x0, "S", 0x0, "B", 0x0, "O", 0x0, "T", 0x0, "G", 0x0, " "
	DCB	0x0, "s", 0x0, "t", 0x0, "a", 0x0, "t", 0x0, "e", 0x0, ":"
	DCB	0x0, " ", 0x0, "%", 0x0, "s", 0x0, 0xa, 0x0, 0xd, 0x0, 0x0
	DCB	0x0					; `string'

  00000			 AREA	 |.rdata|, DATA, READONLY
|??_C@_1DO@HBOPOIOI@?$AA?$CL?$AAC?$AAA?$AAM?$AA3?$AA5?$AAx?$AAO?$AAT?$AAG?$AA?3?$AA?3?$AAN?$AAe?$AAw?$AAS?$AAt?$AAa?$AAt?$AAe?$AAA?$AAc?$AAt?$AAi?$AAo?$AAn?$AA?$CI?$AA?$CJ?$AA?$AN?$AA?6?$AA?$AA@| DCB "+"
	DCB	0x0, "C", 0x0, "A", 0x0, "M", 0x0, "3", 0x0, "5", 0x0, "x"
	DCB	0x0, "O", 0x0, "T", 0x0, "G", 0x0, ":", 0x0, ":", 0x0, "N"
	DCB	0x0, "e", 0x0, "w", 0x0, "S", 0x0, "t", 0x0, "a", 0x0, "t"
	DCB	0x0, "e", 0x0, "A", 0x0, "c", 0x0, "t", 0x0, "i", 0x0, "o"
	DCB	0x0, "n", 0x0, "(", 0x0, ")", 0x0, 0xd, 0x0, 0xa, 0x0, 0x0
	DCB	0x0					; `string'
; Function compile flags: /Odtp

  01480			 AREA	 |.text|, CODE, ARM

  01480		 |?NewStateAction@CAM35xOTG@@UAAHW4USBOTG_STATES@@T_USBOTG_OUTPUT@@@Z| PROC ; CAM35xOTG::NewStateAction

; 493  : {

  01480		 |$LN18@NewStateAc|
  01480	e1a0c00d	 mov         r12, sp
  01484	e92d0007	 stmdb       sp!, {r0 - r2}
  01488	e92d5000	 stmdb       sp!, {r12, lr}
  0148c	e24dd014	 sub         sp, sp, #0x14
  01490		 |$M40883|

; 494  : 	UNREFERENCED_PARAMETER(usbOtgOutput);
; 495  : 
; 496  :     DEBUGMSG(ZONE_OTG_FUNCTION, (TEXT("+CAM35xOTG::NewStateAction()\r\n")));

  01490	e59f3160	 ldr         r3, [pc, #0x160]
  01494	e5933440	 ldr         r3, [r3, #0x440]
  01498	e3130a02	 tst         r3, #2, 20
  0149c	0a000004	 beq         |$LN10@NewStateAc|
  014a0	e59f015c	 ldr         r0, [pc, #0x15C]
  014a4	eb000000	 bl          NKDbgPrintfW
  014a8	e3a03001	 mov         r3, #1
  014ac	e58d3004	 str         r3, [sp, #4]
  014b0	ea000001	 b           |$LN11@NewStateAc|
  014b4		 |$LN10@NewStateAc|
  014b4	e3a03000	 mov         r3, #0
  014b8	e58d3004	 str         r3, [sp, #4]
  014bc		 |$LN11@NewStateAc|

; 497  : 
; 498  :     DEBUGMSG(ZONE_OTG_FUNCTION, (TEXT("USBOTG state: %s\n\r"), g_cppOtgStateString[usbOtgState]));

  014bc	e59f3134	 ldr         r3, [pc, #0x134]
  014c0	e5933440	 ldr         r3, [r3, #0x440]
  014c4	e3130a02	 tst         r3, #2, 20
  014c8	0a00000a	 beq         |$LN12@NewStateAc|
  014cc	e59d1020	 ldr         r1, [sp, #0x20]
  014d0	e3a03004	 mov         r3, #4
  014d4	e0020391	 mul         r2, r1, r3
  014d8	e59f3120	 ldr         r3, [pc, #0x120]
  014dc	e0833002	 add         r3, r3, r2
  014e0	e5931000	 ldr         r1, [r3]
  014e4	e59f0110	 ldr         r0, [pc, #0x110]
  014e8	eb000000	 bl          NKDbgPrintfW
  014ec	e3a03001	 mov         r3, #1
  014f0	e58d3008	 str         r3, [sp, #8]
  014f4	ea000001	 b           |$LN13@NewStateAc|
  014f8		 |$LN12@NewStateAc|
  014f8	e3a03000	 mov         r3, #0
  014fc	e58d3008	 str         r3, [sp, #8]
  01500		 |$LN13@NewStateAc|

; 499  : 
; 500  :     // Load correct driver for current state
; 501  :     switch(usbOtgState)

  01500	e59d3020	 ldr         r3, [sp, #0x20]
  01504	e58d300c	 str         r3, [sp, #0xC]
  01508	e59d300c	 ldr         r3, [sp, #0xC]
  0150c	e3530004	 cmp         r3, #4
  01510	0a000006	 beq         |$LN5@NewStateAc|
  01514	e59d300c	 ldr         r3, [sp, #0xC]
  01518	e3530007	 cmp         r3, #7
  0151c	0a000010	 beq         |$LN2@NewStateAc|
  01520	e59d300c	 ldr         r3, [sp, #0xC]
  01524	e353000b	 cmp         r3, #0xB
  01528	0a000009	 beq         |$LN3@NewStateAc|
  0152c	ea000019	 b           |$LN1@NewStateAc|
  01530		 |$LN5@NewStateAc|

; 502  :     {        
; 503  :         case USBOTG_a_host:
; 504  :         // in host mode
; 505  :         if (m_UsbOtgInput.bit.b_conn != 0)

  01530	e59d301c	 ldr         r3, [sp, #0x1C]
  01534	e283304c	 add         r3, r3, #0x4C
  01538	e5933000	 ldr         r3, [r3]
  0153c	e3130b02	 tst         r3, #2, 22
  01540	0a000002	 beq         |$LN4@NewStateAc|

; 506  :         {
; 507  :             HostMode(TRUE);            

  01544	e3a01001	 mov         r1, #1
  01548	e59d001c	 ldr         r0, [sp, #0x1C]
  0154c	eb000000	 bl          |?HostMode@CAM35xOTG@@IAAXH@Z|
  01550		 |$LN4@NewStateAc|

; 508  :         }
; 509  :         break;

  01550	ea000016	 b           |$LN6@NewStateAc|
  01554		 |$LN3@NewStateAc|

; 510  :     case USBOTG_b_peripheral:
; 511  :         // in function mode
; 512  :         FunctionMode(TRUE);

  01554	e3a01001	 mov         r1, #1
  01558	e59d001c	 ldr         r0, [sp, #0x1C]
  0155c	eb000000	 bl          |?FunctionMode@CAM35xOTG@@IAAXH@Z|

; 513  :         break;

  01560	ea000012	 b           |$LN6@NewStateAc|
  01564		 |$LN2@NewStateAc|

; 514  :     case USBOTG_a_wait_vfall:
; 515  :         // Clear session bit
; 516  :         m_pUsbRegs->DEVCTL &= ~CSL_USB_DEVCTL_SESSION_MASK;

  01564	e59d301c	 ldr         r3, [sp, #0x1C]
  01568	e28330ec	 add         r3, r3, #0xEC
  0156c	e5933000	 ldr         r3, [r3]
  01570	e2833e46	 add         r3, r3, #0x46, 28
  01574	e5d32000	 ldrb        r2, [r3]
  01578	e3e03001	 mvn         r3, #1
  0157c	e0021003	 and         r1, r2, r3
  01580	e59d301c	 ldr         r3, [sp, #0x1C]
  01584	e28330ec	 add         r3, r3, #0xEC
  01588	e5933000	 ldr         r3, [r3]
  0158c	e2832e46	 add         r2, r3, #0x46, 28
  01590	e20130ff	 and         r3, r1, #0xFF
  01594	e5c23000	 strb        r3, [r2]
  01598		 |$LN1@NewStateAc|

; 517  :         // Deliberate fallthrough
; 518  :     default:
; 519  :         // In neither host nor function,
; 520  :         // unload both drivers
; 521  :         HostMode(FALSE);

  01598	e3a01000	 mov         r1, #0
  0159c	e59d001c	 ldr         r0, [sp, #0x1C]
  015a0	eb000000	 bl          |?HostMode@CAM35xOTG@@IAAXH@Z|

; 522  :         FunctionMode(FALSE);

  015a4	e3a01000	 mov         r1, #0
  015a8	e59d001c	 ldr         r0, [sp, #0x1C]
  015ac	eb000000	 bl          |?FunctionMode@CAM35xOTG@@IAAXH@Z|
  015b0		 |$LN6@NewStateAc|

; 523  :         break;
; 524  :     }
; 525  : 
; 526  :     DEBUGMSG(ZONE_OTG_FUNCTION,(TEXT("-CAM35xOTG::NewStateAction()\r\n")));

  015b0	e59f3040	 ldr         r3, [pc, #0x40]
  015b4	e5933440	 ldr         r3, [r3, #0x440]
  015b8	e3130a02	 tst         r3, #2, 20
  015bc	0a000004	 beq         |$LN14@NewStateAc|
  015c0	e59f002c	 ldr         r0, [pc, #0x2C]
  015c4	eb000000	 bl          NKDbgPrintfW
  015c8	e3a03001	 mov         r3, #1
  015cc	e58d3010	 str         r3, [sp, #0x10]
  015d0	ea000001	 b           |$LN15@NewStateAc|
  015d4		 |$LN14@NewStateAc|
  015d4	e3a03000	 mov         r3, #0
  015d8	e58d3010	 str         r3, [sp, #0x10]
  015dc		 |$LN15@NewStateAc|

; 527  : 
; 528  :     // Always returning FALSE means the MDD progresses through the USBOTG state machine 
; 529  :     // more slowly. This helps the case where a host cable is attached with no device.
; 530  :     return FALSE;

  015dc	e3a03000	 mov         r3, #0
  015e0	e58d3000	 str         r3, [sp]

; 531  : }

  015e4	e59d0000	 ldr         r0, [sp]
  015e8	e28dd014	 add         sp, sp, #0x14
  015ec	e89d6000	 ldmia       sp, {sp, lr}
  015f0	e12fff1e	 bx          lr
  015f4		 |$LN19@NewStateAc|
  015f4		 |$LN20@NewStateAc|
  015f4	00000000	 DCD         |??_C@_1DO@HDFFKFEK@?$AA?9?$AAC?$AAA?$AAM?$AA3?$AA5?$AAx?$AAO?$AAT?$AAG?$AA?3?$AA?3?$AAN?$AAe?$AAw?$AAS?$AAt?$AAa?$AAt?$AAe?$AAA?$AAc?$AAt?$AAi?$AAo?$AAn?$AA?$CI?$AA?$CJ?$AA?$AN?$AA?6?$AA?$AA@|
  015f8		 |$LN21@NewStateAc|
  015f8	00000000	 DCD         |dpCurSettings|
  015fc		 |$LN22@NewStateAc|
  015fc	00000000	 DCD         |??_C@_1CG@LNGOFFHD@?$AAU?$AAS?$AAB?$AAO?$AAT?$AAG?$AA?5?$AAs?$AAt?$AAa?$AAt?$AAe?$AA?3?$AA?5?$AA?$CF?$AAs?$AA?6?$AA?$AN?$AA?$AA@|
  01600		 |$LN23@NewStateAc|
  01600	00000000	 DCD         |?g_cppOtgStateString@@3PAPBGA|
  01604		 |$LN24@NewStateAc|
  01604	00000000	 DCD         |??_C@_1DO@HBOPOIOI@?$AA?$CL?$AAC?$AAA?$AAM?$AA3?$AA5?$AAx?$AAO?$AAT?$AAG?$AA?3?$AA?3?$AAN?$AAe?$AAw?$AAS?$AAt?$AAa?$AAt?$AAe?$AAA?$AAc?$AAt?$AAi?$AAo?$AAn?$AA?$CI?$AA?$CJ?$AA?$AN?$AA?6?$AA?$AA@|
  01608		 |$M40884|

			 ENDP  ; |?NewStateAction@CAM35xOTG@@UAAHW4USBOTG_STATES@@T_USBOTG_OUTPUT@@@Z|, CAM35xOTG::NewStateAction

	EXPORT	|??_C@_1CM@NCGAKHLK@?$AA?9?$AAC?$AAA?$AAM?$AA3?$AA5?$AAx?$AAO?$AAT?$AAG?$AA?3?$AA?3?$AAI?$AAs?$AAS?$AAE?$AA0?$AA?$CI?$AA?$CJ?$AA?$AN?$AA?6?$AA?$AA@| [ DATA ] ; `string'
	EXPORT	|??_C@_1CM@COJADGPG@?$AA?$CL?$AAC?$AAA?$AAM?$AA3?$AA5?$AAx?$AAO?$AAT?$AAG?$AA?3?$AA?3?$AAI?$AAs?$AAS?$AAE?$AA0?$AA?$CI?$AA?$CJ?$AA?$AN?$AA?6?$AA?$AA@| [ DATA ] ; `string'

  00068			 AREA	 |.pdata|, PDATA
|$T40902| DCD	|$LN9@IsSE0|
	DCD	0x40002304

  00000			 AREA	 |.rdata|, DATA, READONLY
|??_C@_1CM@NCGAKHLK@?$AA?9?$AAC?$AAA?$AAM?$AA3?$AA5?$AAx?$AAO?$AAT?$AAG?$AA?3?$AA?3?$AAI?$AAs?$AAS?$AAE?$AA0?$AA?$CI?$AA?$CJ?$AA?$AN?$AA?6?$AA?$AA@| DCB "-"
	DCB	0x0, "C", 0x0, "A", 0x0, "M", 0x0, "3", 0x0, "5", 0x0, "x"
	DCB	0x0, "O", 0x0, "T", 0x0, "G", 0x0, ":", 0x0, ":", 0x0, "I"
	DCB	0x0, "s", 0x0, "S", 0x0, "E", 0x0, "0", 0x0, "(", 0x0, ")"
	DCB	0x0, 0xd, 0x0, 0xa, 0x0, 0x0, 0x0	; `string'

  00000			 AREA	 |.rdata|, DATA, READONLY
|??_C@_1CM@COJADGPG@?$AA?$CL?$AAC?$AAA?$AAM?$AA3?$AA5?$AAx?$AAO?$AAT?$AAG?$AA?3?$AA?3?$AAI?$AAs?$AAS?$AAE?$AA0?$AA?$CI?$AA?$CJ?$AA?$AN?$AA?6?$AA?$AA@| DCB "+"
	DCB	0x0, "C", 0x0, "A", 0x0, "M", 0x0, "3", 0x0, "5", 0x0, "x"
	DCB	0x0, "O", 0x0, "T", 0x0, "G", 0x0, ":", 0x0, ":", 0x0, "I"
	DCB	0x0, "s", 0x0, "S", 0x0, "E", 0x0, "0", 0x0, "(", 0x0, ")"
	DCB	0x0, 0xd, 0x0, 0xa, 0x0, 0x0, 0x0	; `string'
; Function compile flags: /Odtp

  01608			 AREA	 |.text|, CODE, ARM

  01608		 |?IsSE0@CAM35xOTG@@UAAHXZ| PROC	; CAM35xOTG::IsSE0

; 534  : {

  01608		 |$LN9@IsSE0|
  01608	e1a0c00d	 mov         r12, sp
  0160c	e92d0001	 stmdb       sp!, {r0}
  01610	e92d5000	 stmdb       sp!, {r12, lr}
  01614	e24dd00c	 sub         sp, sp, #0xC
  01618		 |$M40899|

; 535  :     DEBUGMSG(ZONE_OTG_FUNCTION,(TEXT("+CAM35xOTG::IsSE0()\r\n")));

  01618	e59f306c	 ldr         r3, [pc, #0x6C]
  0161c	e5933440	 ldr         r3, [r3, #0x440]
  01620	e3130a02	 tst         r3, #2, 20
  01624	0a000004	 beq         |$LN3@IsSE0|
  01628	e59f0060	 ldr         r0, [pc, #0x60]
  0162c	eb000000	 bl          NKDbgPrintfW
  01630	e3a03001	 mov         r3, #1
  01634	e58d3004	 str         r3, [sp, #4]
  01638	ea000001	 b           |$LN4@IsSE0|
  0163c		 |$LN3@IsSE0|
  0163c	e3a03000	 mov         r3, #0
  01640	e58d3004	 str         r3, [sp, #4]
  01644		 |$LN4@IsSE0|

; 536  :     DEBUGMSG(ZONE_OTG_FUNCTION,(TEXT("-CAM35xOTG::IsSE0()\r\n")));

  01644	e59f3040	 ldr         r3, [pc, #0x40]
  01648	e5933440	 ldr         r3, [r3, #0x440]
  0164c	e3130a02	 tst         r3, #2, 20
  01650	0a000004	 beq         |$LN5@IsSE0|
  01654	e59f002c	 ldr         r0, [pc, #0x2C]
  01658	eb000000	 bl          NKDbgPrintfW
  0165c	e3a03001	 mov         r3, #1
  01660	e58d3008	 str         r3, [sp, #8]
  01664	ea000001	 b           |$LN6@IsSE0|
  01668		 |$LN5@IsSE0|
  01668	e3a03000	 mov         r3, #0
  0166c	e58d3008	 str         r3, [sp, #8]
  01670		 |$LN6@IsSE0|

; 537  :     return FALSE;

  01670	e3a03000	 mov         r3, #0
  01674	e58d3000	 str         r3, [sp]

; 538  : }

  01678	e59d0000	 ldr         r0, [sp]
  0167c	e28dd00c	 add         sp, sp, #0xC
  01680	e89d6000	 ldmia       sp, {sp, lr}
  01684	e12fff1e	 bx          lr
  01688		 |$LN10@IsSE0|
  01688		 |$LN11@IsSE0|
  01688	00000000	 DCD         |??_C@_1CM@NCGAKHLK@?$AA?9?$AAC?$AAA?$AAM?$AA3?$AA5?$AAx?$AAO?$AAT?$AAG?$AA?3?$AA?3?$AAI?$AAs?$AAS?$AAE?$AA0?$AA?$CI?$AA?$CJ?$AA?$AN?$AA?6?$AA?$AA@|
  0168c		 |$LN12@IsSE0|
  0168c	00000000	 DCD         |dpCurSettings|
  01690		 |$LN13@IsSE0|
  01690	00000000	 DCD         |??_C@_1CM@COJADGPG@?$AA?$CL?$AAC?$AAA?$AAM?$AA3?$AA5?$AAx?$AAO?$AAT?$AAG?$AA?3?$AA?3?$AAI?$AAs?$AAS?$AAE?$AA0?$AA?$CI?$AA?$CJ?$AA?$AN?$AA?6?$AA?$AA@|
  01694		 |$M40900|

			 ENDP  ; |?IsSE0@CAM35xOTG@@UAAHXZ|, CAM35xOTG::IsSE0

	EXPORT	|??_C@_1DI@LEJFGFPF@?$AA?9?$AAC?$AAA?$AAM?$AA3?$AA5?$AAx?$AAO?$AAT?$AAG?$AA?3?$AA?3?$AAU?$AAp?$AAd?$AAa?$AAt?$AAe?$AAI?$AAn?$AAp?$AAu?$AAt?$AA?$CI?$AA?$CJ?$AA?$AN?$AA?6?$AA?$AA@| [ DATA ] ; `string'
	EXPORT	|??_C@_1FK@BDFDEBNF@?$AAC?$AAA?$AAM?$AA3?$AA5?$AAx?$AAO?$AAT?$AAG?$AA?3?$AA?3?$AAU?$AAp?$AAd?$AAa?$AAt?$AAe?$AAI?$AAn?$AAp?$AAu?$AAt?$AA?3?$AAm?$AA_?$AAU?$AAs?$AAb?$AAO?$AAt?$AAg?$AAI@| [ DATA ] ; `string'
	EXPORT	|??_C@_1EM@BAKFOPIN@?$AA?5?$AA?5?$AA?5?$AA?5?$AAV?$AAB?$AAu?$AAs?$AA?3?$AA?5?$AAE?$AAR?$AAR?$AAO?$AAR?$AA?0?$AA?5?$AAi?$AAn?$AAv?$AAa?$AAl?$AAi?$AAd?$AA?5?$AAs?$AAt?$AAa?$AAt?$AAe?$AA?5?$AA?$CI@| [ DATA ] ; `string'
	EXPORT	|??_C@_1DI@DHGEFFNH@?$AA?5?$AA?5?$AA?5?$AA?5?$AAV?$AAB?$AAu?$AAs?$AA?3?$AA?5?$AAA?$AAb?$AAo?$AAv?$AAe?$AA?5?$AAV?$AAB?$AAu?$AAs?$AAV?$AAa?$AAl?$AAi?$AAd?$AA?$AN?$AA?6?$AA?$AA@| [ DATA ] ; `string'
	EXPORT	|??_C@_1FE@KKEGKKAC@?$AA?5?$AA?5?$AA?5?$AA?5?$AAV?$AAB?$AAu?$AAs?$AA?3?$AA?5?$AAA?$AAb?$AAo?$AAv?$AAe?$AA?5?$AAA?$AAV?$AAa?$AAl?$AAi?$AAd?$AA?0?$AA?5?$AAb?$AAe?$AAl?$AAo?$AAw?$AA?5?$AAV?$AAB@| [ DATA ] ; `string'
	EXPORT	|??_C@_1FI@OJHGDKKH@?$AA?5?$AA?5?$AA?5?$AA?5?$AAV?$AAB?$AAu?$AAs?$AA?3?$AA?5?$AAA?$AAb?$AAo?$AAv?$AAe?$AA?5?$AAS?$AAe?$AAs?$AAs?$AAi?$AAo?$AAn?$AA?5?$AAE?$AAn?$AAd?$AA?0?$AA?5?$AAb?$AAe?$AAl@| [ DATA ] ; `string'
	EXPORT	|??_C@_1DM@FDJPLJDI@?$AA?5?$AA?5?$AA?5?$AA?5?$AAV?$AAB?$AAu?$AAs?$AA?3?$AA?5?$AAB?$AAe?$AAl?$AAo?$AAw?$AA?5?$AAS?$AAe?$AAs?$AAs?$AAi?$AAo?$AAn?$AA?5?$AAE?$AAn?$AAd?$AA?$AN?$AA?6?$AA?$AA@| [ DATA ] ; `string'
	EXPORT	|??_C@_1CE@DBCCDAAN@?$AA?5?$AA?5?$AA?5?$AA?5?$AAS?$AAe?$AAs?$AAs?$AAi?$AAo?$AAn?$AA?5?$AAE?$AAn?$AAd?$AA?$AN?$AA?6?$AA?$AA@| [ DATA ] ; `string'
	EXPORT	|??_C@_1CC@DOKJKEPL@?$AA?5?$AA?5?$AA?5?$AA?5?$AA?8?$AAB?$AA?8?$AA?5?$AAd?$AAe?$AAv?$AAi?$AAc?$AAe?$AA?$AN?$AA?6?$AA?$AA@| [ DATA ] ; `string'
	EXPORT	|??_C@_1CG@IMJPMPKN@?$AA?5?$AA?5?$AA?5?$AA?5?$AAh?$AAo?$AAs?$AAt?$AA?5?$AAm?$AAo?$AAd?$AAe?$AA?5?$AAO?$AAN?$AA?$AN?$AA?6?$AA?$AA@| [ DATA ] ; `string'
	EXPORT	|??_C@_1CI@FOKNPIJ@?$AA?5?$AA?5?$AA?5?$AA?5?$AAh?$AAo?$AAs?$AAt?$AA?5?$AAm?$AAo?$AAd?$AAe?$AA?5?$AAO?$AAF?$AAF?$AA?$AN?$AA?6?$AA?$AA@| [ DATA ] ; `string'
	EXPORT	|??_C@_1CC@GGLHANND@?$AA?5?$AA?5?$AA?5?$AA?5?$AA?8?$AAA?$AA?8?$AA?5?$AAd?$AAe?$AAv?$AAi?$AAc?$AAe?$AA?$AN?$AA?6?$AA?$AA@| [ DATA ] ; `string'
	EXPORT	|??_C@_1CI@HBFENGAK@?$AA?5?$AA?5?$AA?5?$AA?5?$AAS?$AAe?$AAs?$AAs?$AAi?$AAo?$AAn?$AA?5?$AAV?$AAa?$AAl?$AAi?$AAd?$AA?$AN?$AA?6?$AA?$AA@| [ DATA ] ; `string'
	EXPORT	|??_C@_1FC@NBFAKGKL@?$AAD?$AAE?$AAV?$AAC?$AAT?$AAL?$AA?5?$AA0?$AAx?$AA?$CF?$AAx?$AA?0?$AA?5?$AAC?$AAF?$AAG?$AAC?$AAH?$AAI?$AAP?$AA2?$AA?5?$AA0?$AAx?$AA?$CF?$AAx?$AA?0?$AA?5?$AAS?$AAT?$AAA?$AAT@| [ DATA ] ; `string'
	EXPORT	|??_C@_1DI@PJOLANAH@?$AA?$CL?$AAC?$AAA?$AAM?$AA3?$AA5?$AAx?$AAO?$AAT?$AAG?$AA?3?$AA?3?$AAU?$AAp?$AAd?$AAa?$AAt?$AAe?$AAI?$AAn?$AAp?$AAu?$AAt?$AA?$CI?$AA?$CJ?$AA?$AN?$AA?6?$AA?$AA@| [ DATA ] ; `string'

  00070			 AREA	 |.pdata|, PDATA
|$T40948| DCD	|$LN54@UpdateInpu|
	DCD	0x40015d04

  00000			 AREA	 |.rdata|, DATA, READONLY
|??_C@_1DI@LEJFGFPF@?$AA?9?$AAC?$AAA?$AAM?$AA3?$AA5?$AAx?$AAO?$AAT?$AAG?$AA?3?$AA?3?$AAU?$AAp?$AAd?$AAa?$AAt?$AAe?$AAI?$AAn?$AAp?$AAu?$AAt?$AA?$CI?$AA?$CJ?$AA?$AN?$AA?6?$AA?$AA@| DCB "-"
	DCB	0x0, "C", 0x0, "A", 0x0, "M", 0x0, "3", 0x0, "5", 0x0, "x"
	DCB	0x0, "O", 0x0, "T", 0x0, "G", 0x0, ":", 0x0, ":", 0x0, "U"
	DCB	0x0, "p", 0x0, "d", 0x0, "a", 0x0, "t", 0x0, "e", 0x0, "I"
	DCB	0x0, "n", 0x0, "p", 0x0, "u", 0x0, "t", 0x0, "(", 0x0, ")"
	DCB	0x0, 0xd, 0x0, 0xa, 0x0, 0x0, 0x0	; `string'

  00000			 AREA	 |.rdata|, DATA, READONLY
|??_C@_1FK@BDFDEBNF@?$AAC?$AAA?$AAM?$AA3?$AA5?$AAx?$AAO?$AAT?$AAG?$AA?3?$AA?3?$AAU?$AAp?$AAd?$AAa?$AAt?$AAe?$AAI?$AAn?$AAp?$AAu?$AAt?$AA?3?$AAm?$AA_?$AAU?$AAs?$AAb?$AAO?$AAt?$AAg?$AAI@| DCB "C"
	DCB	0x0, "A", 0x0, "M", 0x0, "3", 0x0, "5", 0x0, "x", 0x0, "O"
	DCB	0x0, "T", 0x0, "G", 0x0, ":", 0x0, ":", 0x0, "U", 0x0, "p"
	DCB	0x0, "d", 0x0, "a", 0x0, "t", 0x0, "e", 0x0, "I", 0x0, "n"
	DCB	0x0, "p", 0x0, "u", 0x0, "t", 0x0, ":", 0x0, "m", 0x0, "_"
	DCB	0x0, "U", 0x0, "s", 0x0, "b", 0x0, "O", 0x0, "t", 0x0, "g"
	DCB	0x0, "I", 0x0, "n", 0x0, "p", 0x0, "u", 0x0, "t", 0x0, "."
	DCB	0x0, "u", 0x0, "l", 0x0, "=", 0x0, "%", 0x0, "x", 0x0, 0xd
	DCB	0x0, 0xa, 0x0, 0x0, 0x0			; `string'

  00000			 AREA	 |.rdata|, DATA, READONLY
|??_C@_1EM@BAKFOPIN@?$AA?5?$AA?5?$AA?5?$AA?5?$AAV?$AAB?$AAu?$AAs?$AA?3?$AA?5?$AAE?$AAR?$AAR?$AAO?$AAR?$AA?0?$AA?5?$AAi?$AAn?$AAv?$AAa?$AAl?$AAi?$AAd?$AA?5?$AAs?$AAt?$AAa?$AAt?$AAe?$AA?5?$AA?$CI@| DCB " "
	DCB	0x0, " ", 0x0, " ", 0x0, " ", 0x0, "V", 0x0, "B", 0x0, "u"
	DCB	0x0, "s", 0x0, ":", 0x0, " ", 0x0, "E", 0x0, "R", 0x0, "R"
	DCB	0x0, "O", 0x0, "R", 0x0, ",", 0x0, " ", 0x0, "i", 0x0, "n"
	DCB	0x0, "v", 0x0, "a", 0x0, "l", 0x0, "i", 0x0, "d", 0x0, " "
	DCB	0x0, "s", 0x0, "t", 0x0, "a", 0x0, "t", 0x0, "e", 0x0, " "
	DCB	0x0, "(", 0x0, "%", 0x0, "d", 0x0, ")", 0x0, 0xd, 0x0, 0xa
	DCB	0x0, 0x0, 0x0				; `string'

  00000			 AREA	 |.rdata|, DATA, READONLY
|??_C@_1DI@DHGEFFNH@?$AA?5?$AA?5?$AA?5?$AA?5?$AAV?$AAB?$AAu?$AAs?$AA?3?$AA?5?$AAA?$AAb?$AAo?$AAv?$AAe?$AA?5?$AAV?$AAB?$AAu?$AAs?$AAV?$AAa?$AAl?$AAi?$AAd?$AA?$AN?$AA?6?$AA?$AA@| DCB " "
	DCB	0x0, " ", 0x0, " ", 0x0, " ", 0x0, "V", 0x0, "B", 0x0, "u"
	DCB	0x0, "s", 0x0, ":", 0x0, " ", 0x0, "A", 0x0, "b", 0x0, "o"
	DCB	0x0, "v", 0x0, "e", 0x0, " ", 0x0, "V", 0x0, "B", 0x0, "u"
	DCB	0x0, "s", 0x0, "V", 0x0, "a", 0x0, "l", 0x0, "i", 0x0, "d"
	DCB	0x0, 0xd, 0x0, 0xa, 0x0, 0x0, 0x0	; `string'

  00000			 AREA	 |.rdata|, DATA, READONLY
|??_C@_1FE@KKEGKKAC@?$AA?5?$AA?5?$AA?5?$AA?5?$AAV?$AAB?$AAu?$AAs?$AA?3?$AA?5?$AAA?$AAb?$AAo?$AAv?$AAe?$AA?5?$AAA?$AAV?$AAa?$AAl?$AAi?$AAd?$AA?0?$AA?5?$AAb?$AAe?$AAl?$AAo?$AAw?$AA?5?$AAV?$AAB@| DCB " "
	DCB	0x0, " ", 0x0, " ", 0x0, " ", 0x0, "V", 0x0, "B", 0x0, "u"
	DCB	0x0, "s", 0x0, ":", 0x0, " ", 0x0, "A", 0x0, "b", 0x0, "o"
	DCB	0x0, "v", 0x0, "e", 0x0, " ", 0x0, "A", 0x0, "V", 0x0, "a"
	DCB	0x0, "l", 0x0, "i", 0x0, "d", 0x0, ",", 0x0, " ", 0x0, "b"
	DCB	0x0, "e", 0x0, "l", 0x0, "o", 0x0, "w", 0x0, " ", 0x0, "V"
	DCB	0x0, "B", 0x0, "u", 0x0, "s", 0x0, "V", 0x0, "a", 0x0, "l"
	DCB	0x0, "i", 0x0, "d", 0x0, 0xd, 0x0, 0xa, 0x0, 0x0, 0x0 ; `string'

  00000			 AREA	 |.rdata|, DATA, READONLY
|??_C@_1FI@OJHGDKKH@?$AA?5?$AA?5?$AA?5?$AA?5?$AAV?$AAB?$AAu?$AAs?$AA?3?$AA?5?$AAA?$AAb?$AAo?$AAv?$AAe?$AA?5?$AAS?$AAe?$AAs?$AAs?$AAi?$AAo?$AAn?$AA?5?$AAE?$AAn?$AAd?$AA?0?$AA?5?$AAb?$AAe?$AAl@| DCB " "
	DCB	0x0, " ", 0x0, " ", 0x0, " ", 0x0, "V", 0x0, "B", 0x0, "u"
	DCB	0x0, "s", 0x0, ":", 0x0, " ", 0x0, "A", 0x0, "b", 0x0, "o"
	DCB	0x0, "v", 0x0, "e", 0x0, " ", 0x0, "S", 0x0, "e", 0x0, "s"
	DCB	0x0, "s", 0x0, "i", 0x0, "o", 0x0, "n", 0x0, " ", 0x0, "E"
	DCB	0x0, "n", 0x0, "d", 0x0, ",", 0x0, " ", 0x0, "b", 0x0, "e"
	DCB	0x0, "l", 0x0, "o", 0x0, "w", 0x0, " ", 0x0, "A", 0x0, "V"
	DCB	0x0, "a", 0x0, "l", 0x0, "i", 0x0, "d", 0x0, 0xd, 0x0, 0xa
	DCB	0x0, 0x0, 0x0				; `string'

  00000			 AREA	 |.rdata|, DATA, READONLY
|??_C@_1DM@FDJPLJDI@?$AA?5?$AA?5?$AA?5?$AA?5?$AAV?$AAB?$AAu?$AAs?$AA?3?$AA?5?$AAB?$AAe?$AAl?$AAo?$AAw?$AA?5?$AAS?$AAe?$AAs?$AAs?$AAi?$AAo?$AAn?$AA?5?$AAE?$AAn?$AAd?$AA?$AN?$AA?6?$AA?$AA@| DCB " "
	DCB	0x0, " ", 0x0, " ", 0x0, " ", 0x0, "V", 0x0, "B", 0x0, "u"
	DCB	0x0, "s", 0x0, ":", 0x0, " ", 0x0, "B", 0x0, "e", 0x0, "l"
	DCB	0x0, "o", 0x0, "w", 0x0, " ", 0x0, "S", 0x0, "e", 0x0, "s"
	DCB	0x0, "s", 0x0, "i", 0x0, "o", 0x0, "n", 0x0, " ", 0x0, "E"
	DCB	0x0, "n", 0x0, "d", 0x0, 0xd, 0x0, 0xa, 0x0, 0x0, 0x0 ; `string'

  00000			 AREA	 |.rdata|, DATA, READONLY
|??_C@_1CE@DBCCDAAN@?$AA?5?$AA?5?$AA?5?$AA?5?$AAS?$AAe?$AAs?$AAs?$AAi?$AAo?$AAn?$AA?5?$AAE?$AAn?$AAd?$AA?$AN?$AA?6?$AA?$AA@| DCB " "
	DCB	0x0, " ", 0x0, " ", 0x0, " ", 0x0, "S", 0x0, "e", 0x0, "s"
	DCB	0x0, "s", 0x0, "i", 0x0, "o", 0x0, "n", 0x0, " ", 0x0, "E"
	DCB	0x0, "n", 0x0, "d", 0x0, 0xd, 0x0, 0xa, 0x0, 0x0, 0x0 ; `string'

  00000			 AREA	 |.rdata|, DATA, READONLY
|??_C@_1CC@DOKJKEPL@?$AA?5?$AA?5?$AA?5?$AA?5?$AA?8?$AAB?$AA?8?$AA?5?$AAd?$AAe?$AAv?$AAi?$AAc?$AAe?$AA?$AN?$AA?6?$AA?$AA@| DCB " "
	DCB	0x0, " ", 0x0, " ", 0x0, " ", 0x0, "'", 0x0, "B", 0x0, "'"
	DCB	0x0, " ", 0x0, "d", 0x0, "e", 0x0, "v", 0x0, "i", 0x0, "c"
	DCB	0x0, "e", 0x0, 0xd, 0x0, 0xa, 0x0, 0x0, 0x0 ; `string'

  00000			 AREA	 |.rdata|, DATA, READONLY
|??_C@_1CG@IMJPMPKN@?$AA?5?$AA?5?$AA?5?$AA?5?$AAh?$AAo?$AAs?$AAt?$AA?5?$AAm?$AAo?$AAd?$AAe?$AA?5?$AAO?$AAN?$AA?$AN?$AA?6?$AA?$AA@| DCB " "
	DCB	0x0, " ", 0x0, " ", 0x0, " ", 0x0, "h", 0x0, "o", 0x0, "s"
	DCB	0x0, "t", 0x0, " ", 0x0, "m", 0x0, "o", 0x0, "d", 0x0, "e"
	DCB	0x0, " ", 0x0, "O", 0x0, "N", 0x0, 0xd, 0x0, 0xa, 0x0, 0x0
	DCB	0x0					; `string'

  00000			 AREA	 |.rdata|, DATA, READONLY
|??_C@_1CI@FOKNPIJ@?$AA?5?$AA?5?$AA?5?$AA?5?$AAh?$AAo?$AAs?$AAt?$AA?5?$AAm?$AAo?$AAd?$AAe?$AA?5?$AAO?$AAF?$AAF?$AA?$AN?$AA?6?$AA?$AA@| DCB " "
	DCB	0x0, " ", 0x0, " ", 0x0, " ", 0x0, "h", 0x0, "o", 0x0, "s"
	DCB	0x0, "t", 0x0, " ", 0x0, "m", 0x0, "o", 0x0, "d", 0x0, "e"
	DCB	0x0, " ", 0x0, "O", 0x0, "F", 0x0, "F", 0x0, 0xd, 0x0, 0xa
	DCB	0x0, 0x0, 0x0				; `string'

  00000			 AREA	 |.rdata|, DATA, READONLY
|??_C@_1CC@GGLHANND@?$AA?5?$AA?5?$AA?5?$AA?5?$AA?8?$AAA?$AA?8?$AA?5?$AAd?$AAe?$AAv?$AAi?$AAc?$AAe?$AA?$AN?$AA?6?$AA?$AA@| DCB " "
	DCB	0x0, " ", 0x0, " ", 0x0, " ", 0x0, "'", 0x0, "A", 0x0, "'"
	DCB	0x0, " ", 0x0, "d", 0x0, "e", 0x0, "v", 0x0, "i", 0x0, "c"
	DCB	0x0, "e", 0x0, 0xd, 0x0, 0xa, 0x0, 0x0, 0x0 ; `string'

  00000			 AREA	 |.rdata|, DATA, READONLY
|??_C@_1CI@HBFENGAK@?$AA?5?$AA?5?$AA?5?$AA?5?$AAS?$AAe?$AAs?$AAs?$AAi?$AAo?$AAn?$AA?5?$AAV?$AAa?$AAl?$AAi?$AAd?$AA?$AN?$AA?6?$AA?$AA@| DCB " "
	DCB	0x0, " ", 0x0, " ", 0x0, " ", 0x0, "S", 0x0, "e", 0x0, "s"
	DCB	0x0, "s", 0x0, "i", 0x0, "o", 0x0, "n", 0x0, " ", 0x0, "V"
	DCB	0x0, "a", 0x0, "l", 0x0, "i", 0x0, "d", 0x0, 0xd, 0x0, 0xa
	DCB	0x0, 0x0, 0x0				; `string'

  00000			 AREA	 |.rdata|, DATA, READONLY
|??_C@_1FC@NBFAKGKL@?$AAD?$AAE?$AAV?$AAC?$AAT?$AAL?$AA?5?$AA0?$AAx?$AA?$CF?$AAx?$AA?0?$AA?5?$AAC?$AAF?$AAG?$AAC?$AAH?$AAI?$AAP?$AA2?$AA?5?$AA0?$AAx?$AA?$CF?$AAx?$AA?0?$AA?5?$AAS?$AAT?$AAA?$AAT@| DCB "D"
	DCB	0x0, "E", 0x0, "V", 0x0, "C", 0x0, "T", 0x0, "L", 0x0, " "
	DCB	0x0, "0", 0x0, "x", 0x0, "%", 0x0, "x", 0x0, ",", 0x0, " "
	DCB	0x0, "C", 0x0, "F", 0x0, "G", 0x0, "C", 0x0, "H", 0x0, "I"
	DCB	0x0, "P", 0x0, "2", 0x0, " ", 0x0, "0", 0x0, "x", 0x0, "%"
	DCB	0x0, "x", 0x0, ",", 0x0, " ", 0x0, "S", 0x0, "T", 0x0, "A"
	DCB	0x0, "T", 0x0, "R", 0x0, " ", 0x0, "0", 0x0, "x", 0x0, "%"
	DCB	0x0, "x", 0x0, 0xd, 0x0, 0xa, 0x0, 0x0, 0x0 ; `string'

  00000			 AREA	 |.rdata|, DATA, READONLY
|??_C@_1DI@PJOLANAH@?$AA?$CL?$AAC?$AAA?$AAM?$AA3?$AA5?$AAx?$AAO?$AAT?$AAG?$AA?3?$AA?3?$AAU?$AAp?$AAd?$AAa?$AAt?$AAe?$AAI?$AAn?$AAp?$AAu?$AAt?$AA?$CI?$AA?$CJ?$AA?$AN?$AA?6?$AA?$AA@| DCB "+"
	DCB	0x0, "C", 0x0, "A", 0x0, "M", 0x0, "3", 0x0, "5", 0x0, "x"
	DCB	0x0, "O", 0x0, "T", 0x0, "G", 0x0, ":", 0x0, ":", 0x0, "U"
	DCB	0x0, "p", 0x0, "d", 0x0, "a", 0x0, "t", 0x0, "e", 0x0, "I"
	DCB	0x0, "n", 0x0, "p", 0x0, "u", 0x0, "t", 0x0, "(", 0x0, ")"
	DCB	0x0, 0xd, 0x0, 0xa, 0x0, 0x0, 0x0	; `string'
; Function compile flags: /Odtp

  01694			 AREA	 |.text|, CODE, ARM

  01694		 |?UpdateInput@CAM35xOTG@@UAAHXZ| PROC	; CAM35xOTG::UpdateInput

; 541  : {

  01694		 |$LN54@UpdateInpu|
  01694	e1a0c00d	 mov         r12, sp
  01698	e92d0001	 stmdb       sp!, {r0}
  0169c	e92d5000	 stmdb       sp!, {r12, lr}
  016a0	e24dd054	 sub         sp, sp, #0x54
  016a4		 |$M40945|

; 542  :     UINT8 devctl = 0;

  016a4	e3a03000	 mov         r3, #0
  016a8	e5cd3008	 strb        r3, [sp, #8]

; 543  :     UINT8 vbus = 0;

  016ac	e3a03000	 mov         r3, #0
  016b0	e5cd3000	 strb        r3, [sp]

; 544  :     UINT32 cfgchip2 = 0;

  016b4	e3a03000	 mov         r3, #0
  016b8	e58d3004	 str         r3, [sp, #4]

; 545  :     UINT32 statr = 0;

  016bc	e3a03000	 mov         r3, #0
  016c0	e58d300c	 str         r3, [sp, #0xC]

; 546  : 
; 547  :     DEBUGMSG(ZONE_OTG_FUNCTION,(TEXT("+CAM35xOTG::UpdateInput()\r\n")));

  016c4	e59f3500	 ldr         r3, [pc, #0x500]
  016c8	e5933440	 ldr         r3, [r3, #0x440]
  016cc	e3130a02	 tst         r3, #2, 20
  016d0	0a000004	 beq         |$LN16@UpdateInpu|
  016d4	e59f0528	 ldr         r0, [pc, #0x528]
  016d8	eb000000	 bl          NKDbgPrintfW
  016dc	e3a03001	 mov         r3, #1
  016e0	e58d3014	 str         r3, [sp, #0x14]
  016e4	ea000001	 b           |$LN17@UpdateInpu|
  016e8		 |$LN16@UpdateInpu|
  016e8	e3a03000	 mov         r3, #0
  016ec	e58d3014	 str         r3, [sp, #0x14]
  016f0		 |$LN17@UpdateInpu|

; 548  : 
; 549  :     // read USB controller registers
; 550  :     devctl = m_pUsbRegs->DEVCTL;

  016f0	e59d305c	 ldr         r3, [sp, #0x5C]
  016f4	e28330ec	 add         r3, r3, #0xEC
  016f8	e5933000	 ldr         r3, [r3]
  016fc	e2833e46	 add         r3, r3, #0x46, 28
  01700	e5d33000	 ldrb        r3, [r3]
  01704	e5cd3008	 strb        r3, [sp, #8]

; 551  : 	cfgchip2 = m_pSysConfRegs->CONTROL_DEVCONF2;

  01708	e59d305c	 ldr         r3, [sp, #0x5C]
  0170c	e28330e8	 add         r3, r3, #0xE8
  01710	e5933000	 ldr         r3, [r3]
  01714	e2833e31	 add         r3, r3, #0x31, 28
  01718	e5933000	 ldr         r3, [r3]
  0171c	e58d3004	 str         r3, [sp, #4]

; 552  :     statr = m_pUsbRegs->STATR;

  01720	e59d305c	 ldr         r3, [sp, #0x5C]
  01724	e28330ec	 add         r3, r3, #0xEC
  01728	e5933000	 ldr         r3, [r3]
  0172c	e2833008	 add         r3, r3, #8
  01730	e5933000	 ldr         r3, [r3]
  01734	e58d300c	 str         r3, [sp, #0xC]

; 553  :     DEBUGMSG(ZONE_OTG_FUNCTION,
; 554  :         (TEXT("DEVCTL 0x%x, CFGCHIP2 0x%x, STATR 0x%x\r\n"), devctl, cfgchip2, statr));

  01738	e59f348c	 ldr         r3, [pc, #0x48C]
  0173c	e5933440	 ldr         r3, [r3, #0x440]
  01740	e3130a02	 tst         r3, #2, 20
  01744	0a000007	 beq         |$LN18@UpdateInpu|
  01748	e59d300c	 ldr         r3, [sp, #0xC]
  0174c	e59d2004	 ldr         r2, [sp, #4]
  01750	e5dd1008	 ldrb        r1, [sp, #8]
  01754	e59f04a4	 ldr         r0, [pc, #0x4A4]
  01758	eb000000	 bl          NKDbgPrintfW
  0175c	e3a03001	 mov         r3, #1
  01760	e58d3018	 str         r3, [sp, #0x18]
  01764	ea000001	 b           |$LN19@UpdateInpu|
  01768		 |$LN18@UpdateInpu|
  01768	e3a03000	 mov         r3, #0
  0176c	e58d3018	 str         r3, [sp, #0x18]
  01770		 |$LN19@UpdateInpu|

; 555  : 
; 556  :     // fix some bits of MDD input to ensure
; 557  :     // correct movement about the state machine
; 558  :     m_UsbOtgInput.bit.a_bus_drop = 0;

  01770	e59d305c	 ldr         r3, [sp, #0x5C]
  01774	e283304c	 add         r3, r3, #0x4C
  01778	e5932000	 ldr         r2, [r3]
  0177c	e3e03001	 mvn         r3, #1
  01780	e0022003	 and         r2, r2, r3
  01784	e59d305c	 ldr         r3, [sp, #0x5C]
  01788	e283304c	 add         r3, r3, #0x4C
  0178c	e5832000	 str         r2, [r3]

; 559  :     m_UsbOtgInput.bit.a_bus_req = 1;

  01790	e59d305c	 ldr         r3, [sp, #0x5C]
  01794	e283304c	 add         r3, r3, #0x4C
  01798	e5933000	 ldr         r3, [r3]
  0179c	e3832002	 orr         r2, r3, #2
  017a0	e59d305c	 ldr         r3, [sp, #0x5C]
  017a4	e283304c	 add         r3, r3, #0x4C
  017a8	e5832000	 str         r2, [r3]

; 560  : 
; 561  :     // check to see if a session is active
; 562  :     if(devctl & CSL_USB_DEVCTL_SESSION_MASK)

  017ac	e5dd3008	 ldrb        r3, [sp, #8]
  017b0	e3130001	 tst         r3, #1
  017b4	0a00005d	 beq         |$LN13@UpdateInpu|

; 563  :     {
; 564  :         // Session valid
; 565  :         DEBUGMSG(ZONE_OTG_FUNCTION,(TEXT("    Session Valid\r\n")));

  017b8	e59f340c	 ldr         r3, [pc, #0x40C]
  017bc	e5933440	 ldr         r3, [r3, #0x440]
  017c0	e3130a02	 tst         r3, #2, 20
  017c4	0a000004	 beq         |$LN20@UpdateInpu|
  017c8	e59f042c	 ldr         r0, [pc, #0x42C]
  017cc	eb000000	 bl          NKDbgPrintfW
  017d0	e3a03001	 mov         r3, #1
  017d4	e58d301c	 str         r3, [sp, #0x1C]
  017d8	ea000001	 b           |$LN21@UpdateInpu|
  017dc		 |$LN20@UpdateInpu|
  017dc	e3a03000	 mov         r3, #0
  017e0	e58d301c	 str         r3, [sp, #0x1C]
  017e4		 |$LN21@UpdateInpu|

; 566  : 
; 567  :         // Determine A or B device
; 568  :         if((devctl & CSL_USB_DEVCTL_BDEVICE_MASK) == 0)

  017e4	e5dd3008	 ldrb        r3, [sp, #8]
  017e8	e3130080	 tst         r3, #0x80
  017ec	1a00003c	 bne         |$LN12@UpdateInpu|

; 569  :         {
; 570  :             // 'A' device
; 571  :             DEBUGMSG(ZONE_OTG_FUNCTION,(TEXT("    'A' device\r\n")));

  017f0	e59f33d4	 ldr         r3, [pc, #0x3D4]
  017f4	e5933440	 ldr         r3, [r3, #0x440]
  017f8	e3130a02	 tst         r3, #2, 20
  017fc	0a000004	 beq         |$LN22@UpdateInpu|
  01800	e59f03f0	 ldr         r0, [pc, #0x3F0]
  01804	eb000000	 bl          NKDbgPrintfW
  01808	e3a03001	 mov         r3, #1
  0180c	e58d3020	 str         r3, [sp, #0x20]
  01810	ea000001	 b           |$LN23@UpdateInpu|
  01814		 |$LN22@UpdateInpu|
  01814	e3a03000	 mov         r3, #0
  01818	e58d3020	 str         r3, [sp, #0x20]
  0181c		 |$LN23@UpdateInpu|

; 572  :             m_UsbOtgInput.bit.id = 0;

  0181c	e59d305c	 ldr         r3, [sp, #0x5C]
  01820	e283304c	 add         r3, r3, #0x4C
  01824	e5932000	 ldr         r2, [r3]
  01828	e3e03902	 mvn         r3, #2, 18
  0182c	e0022003	 and         r2, r2, r3
  01830	e59d305c	 ldr         r3, [sp, #0x5C]
  01834	e283304c	 add         r3, r3, #0x4C
  01838	e5832000	 str         r2, [r3]

; 573  : 
; 574  :             if((devctl & CSL_USB_DEVCTL_HOSTMODE_MASK) == 0)

  0183c	e5dd3008	 ldrb        r3, [sp, #8]
  01840	e3130004	 tst         r3, #4
  01844	1a000013	 bne         |$LN11@UpdateInpu|

; 575  :             {
; 576  :                 // The controller has dropped host mode, 
; 577  :                 // so no device is attached
; 578  :                 m_UsbOtgInput.bit.b_conn = 0;

  01848	e59d305c	 ldr         r3, [sp, #0x5C]
  0184c	e283304c	 add         r3, r3, #0x4C
  01850	e5932000	 ldr         r2, [r3]
  01854	e3e03b02	 mvn         r3, #2, 22
  01858	e0022003	 and         r2, r2, r3
  0185c	e59d305c	 ldr         r3, [sp, #0x5C]
  01860	e283304c	 add         r3, r3, #0x4C
  01864	e5832000	 str         r2, [r3]

; 579  :                 DEBUGMSG(ZONE_OTG_FUNCTION,(TEXT("    host mode OFF\r\n")));

  01868	e59f335c	 ldr         r3, [pc, #0x35C]
  0186c	e5933440	 ldr         r3, [r3, #0x440]
  01870	e3130a02	 tst         r3, #2, 20
  01874	0a000004	 beq         |$LN24@UpdateInpu|
  01878	e59f0374	 ldr         r0, [pc, #0x374]
  0187c	eb000000	 bl          NKDbgPrintfW
  01880	e3a03001	 mov         r3, #1
  01884	e58d3024	 str         r3, [sp, #0x24]
  01888	ea000001	 b           |$LN25@UpdateInpu|
  0188c		 |$LN24@UpdateInpu|
  0188c	e3a03000	 mov         r3, #0
  01890	e58d3024	 str         r3, [sp, #0x24]
  01894		 |$LN25@UpdateInpu|

; 580  :            }
; 581  :             else

  01894	ea000011	 b           |$LN10@UpdateInpu|
  01898		 |$LN11@UpdateInpu|

; 582  :             {
; 583  :                 // Operating as host, B device connected
; 584  :                 m_UsbOtgInput.bit.b_conn = 1;

  01898	e59d305c	 ldr         r3, [sp, #0x5C]
  0189c	e283304c	 add         r3, r3, #0x4C
  018a0	e5933000	 ldr         r3, [r3]
  018a4	e3832b02	 orr         r2, r3, #2, 22
  018a8	e59d305c	 ldr         r3, [sp, #0x5C]
  018ac	e283304c	 add         r3, r3, #0x4C
  018b0	e5832000	 str         r2, [r3]

; 585  :                 DEBUGMSG(ZONE_OTG_FUNCTION,(TEXT("    host mode ON\r\n")));

  018b4	e59f3310	 ldr         r3, [pc, #0x310]
  018b8	e5933440	 ldr         r3, [r3, #0x440]
  018bc	e3130a02	 tst         r3, #2, 20
  018c0	0a000004	 beq         |$LN26@UpdateInpu|
  018c4	e59f0324	 ldr         r0, [pc, #0x324]
  018c8	eb000000	 bl          NKDbgPrintfW
  018cc	e3a03001	 mov         r3, #1
  018d0	e58d3028	 str         r3, [sp, #0x28]
  018d4	ea000001	 b           |$LN27@UpdateInpu|
  018d8		 |$LN26@UpdateInpu|
  018d8	e3a03000	 mov         r3, #0
  018dc	e58d3028	 str         r3, [sp, #0x28]
  018e0		 |$LN27@UpdateInpu|
  018e0		 |$LN10@UpdateInpu|

; 586  :             }
; 587  :         }
; 588  :         else

  018e0	ea000011	 b           |$LN9@UpdateInpu|
  018e4		 |$LN12@UpdateInpu|

; 589  :         {
; 590  :             // 'B' device
; 591  :             DEBUGMSG(ZONE_OTG_FUNCTION,(TEXT("    'B' device\r\n")));

  018e4	e59f32e0	 ldr         r3, [pc, #0x2E0]
  018e8	e5933440	 ldr         r3, [r3, #0x440]
  018ec	e3130a02	 tst         r3, #2, 20
  018f0	0a000004	 beq         |$LN28@UpdateInpu|
  018f4	e59f02f0	 ldr         r0, [pc, #0x2F0]
  018f8	eb000000	 bl          NKDbgPrintfW
  018fc	e3a03001	 mov         r3, #1
  01900	e58d302c	 str         r3, [sp, #0x2C]
  01904	ea000001	 b           |$LN29@UpdateInpu|
  01908		 |$LN28@UpdateInpu|
  01908	e3a03000	 mov         r3, #0
  0190c	e58d302c	 str         r3, [sp, #0x2C]
  01910		 |$LN29@UpdateInpu|

; 592  :             m_UsbOtgInput.bit.id = 1;

  01910	e59d305c	 ldr         r3, [sp, #0x5C]
  01914	e283304c	 add         r3, r3, #0x4C
  01918	e5933000	 ldr         r3, [r3]
  0191c	e3832902	 orr         r2, r3, #2, 18
  01920	e59d305c	 ldr         r3, [sp, #0x5C]
  01924	e283304c	 add         r3, r3, #0x4C
  01928	e5832000	 str         r2, [r3]
  0192c		 |$LN9@UpdateInpu|

; 593  :         }
; 594  :     }
; 595  :     else

  0192c	ea000018	 b           |$LN8@UpdateInpu|
  01930		 |$LN13@UpdateInpu|

; 596  :     {
; 597  :         DEBUGMSG(ZONE_OTG_FUNCTION,(TEXT("    Session End\r\n")));

  01930	e59f3294	 ldr         r3, [pc, #0x294]
  01934	e5933440	 ldr         r3, [r3, #0x440]
  01938	e3130a02	 tst         r3, #2, 20
  0193c	0a000004	 beq         |$LN30@UpdateInpu|
  01940	e59f02a0	 ldr         r0, [pc, #0x2A0]
  01944	eb000000	 bl          NKDbgPrintfW
  01948	e3a03001	 mov         r3, #1
  0194c	e58d3030	 str         r3, [sp, #0x30]
  01950	ea000001	 b           |$LN31@UpdateInpu|
  01954		 |$LN30@UpdateInpu|
  01954	e3a03000	 mov         r3, #0
  01958	e58d3030	 str         r3, [sp, #0x30]
  0195c		 |$LN31@UpdateInpu|

; 598  : 
; 599  :         // no session active, set the session bit 
; 600  :         // to identify USB mode
; 601  :         m_pUsbRegs->DEVCTL |= CSL_USB_DEVCTL_SESSION_MASK;

  0195c	e59d305c	 ldr         r3, [sp, #0x5C]
  01960	e28330ec	 add         r3, r3, #0xEC
  01964	e5933000	 ldr         r3, [r3]
  01968	e2833e46	 add         r3, r3, #0x46, 28
  0196c	e5d33000	 ldrb        r3, [r3]
  01970	e3831001	 orr         r1, r3, #1
  01974	e59d305c	 ldr         r3, [sp, #0x5C]
  01978	e28330ec	 add         r3, r3, #0xEC
  0197c	e5933000	 ldr         r3, [r3]
  01980	e2832e46	 add         r2, r3, #0x46, 28
  01984	e20130ff	 and         r3, r1, #0xFF
  01988	e5c23000	 strb        r3, [r2]

; 602  :         Sleep(100);

  0198c	e3a00064	 mov         r0, #0x64
  01990	eb000000	 bl          Sleep
  01994		 |$LN8@UpdateInpu|

; 603  :     }
; 604  : 
; 605  :     // Vbus
; 606  :     m_UsbOtgInput.bit.a_vbus_vld = 0;

  01994	e59d305c	 ldr         r3, [sp, #0x5C]
  01998	e283304c	 add         r3, r3, #0x4C
  0199c	e5932000	 ldr         r2, [r3]
  019a0	e3e03080	 mvn         r3, #0x80
  019a4	e0022003	 and         r2, r2, r3
  019a8	e59d305c	 ldr         r3, [sp, #0x5C]
  019ac	e283304c	 add         r3, r3, #0x4C
  019b0	e5832000	 str         r2, [r3]

; 607  :     m_UsbOtgInput.bit.b_sess_vld = 0;

  019b4	e59d305c	 ldr         r3, [sp, #0x5C]
  019b8	e283304c	 add         r3, r3, #0x4C
  019bc	e5932000	 ldr         r2, [r3]
  019c0	e3e03901	 mvn         r3, #1, 18
  019c4	e0022003	 and         r2, r2, r3
  019c8	e59d305c	 ldr         r3, [sp, #0x5C]
  019cc	e283304c	 add         r3, r3, #0x4C
  019d0	e5832000	 str         r2, [r3]

; 608  :     vbus = (devctl & CSL_USB_DEVCTL_VBUS_MASK) >> CSL_USB_DEVCTL_VBUS_SHIFT;

  019d4	e5dd3008	 ldrb        r3, [sp, #8]
  019d8	e2033018	 and         r3, r3, #0x18
  019dc	e1a031a3	 mov         r3, r3, lsr #3
  019e0	e20330ff	 and         r3, r3, #0xFF
  019e4	e5cd3000	 strb        r3, [sp]

; 609  :     switch(vbus)

  019e8	e5dd3000	 ldrb        r3, [sp]
  019ec	e58d3034	 str         r3, [sp, #0x34]
  019f0	e59d3034	 ldr         r3, [sp, #0x34]
  019f4	e3530003	 cmp         r3, #3
  019f8	8a000046	 bhi         |$LN1@UpdateInpu|
  019fc	e59d2034	 ldr         r2, [sp, #0x34]
  01a00	e1a03102	 mov         r3, r2, lsl #2
  01a04	e083300f	 add         r3, r3, pc
  01a08	e5933004	 ldr         r3, [r3, #4]
  01a0c	e08ff003	 add         pc, pc, r3
  01a10		 |$LN47@UpdateInpu|
  01a10		 |$LN46@UpdateInpu|
  01a10		 |$LN48@UpdateInpu|
  01a10	0000000c	 DCD         0xc
  01a14		 |$LN49@UpdateInpu|
  01a14	0000003c	 DCD         0x3c
  01a18		 |$LN50@UpdateInpu|
  01a18	0000006c	 DCD         0x6c
  01a1c		 |$LN51@UpdateInpu|
  01a1c	0000009c	 DCD         0x9c
  01a20		 |$LN5@UpdateInpu|

; 610  :     {
; 611  :     case 0:
; 612  :         DEBUGMSG(ZONE_OTG_FUNCTION,(TEXT("    VBus: Below Session End\r\n")));

  01a20	e59f31a4	 ldr         r3, [pc, #0x1A4]
  01a24	e5933440	 ldr         r3, [r3, #0x440]
  01a28	e3130a02	 tst         r3, #2, 20
  01a2c	0a000004	 beq         |$LN32@UpdateInpu|
  01a30	e59f01ac	 ldr         r0, [pc, #0x1AC]
  01a34	eb000000	 bl          NKDbgPrintfW
  01a38	e3a03001	 mov         r3, #1
  01a3c	e58d3038	 str         r3, [sp, #0x38]
  01a40	ea000001	 b           |$LN33@UpdateInpu|
  01a44		 |$LN32@UpdateInpu|
  01a44	e3a03000	 mov         r3, #0
  01a48	e58d3038	 str         r3, [sp, #0x38]
  01a4c		 |$LN33@UpdateInpu|

; 613  :         break;

  01a4c	ea00003e	 b           |$LN6@UpdateInpu|
  01a50		 |$LN4@UpdateInpu|

; 614  :     case 1:
; 615  :         DEBUGMSG(ZONE_OTG_FUNCTION,(TEXT("    VBus: Above Session End, below AValid\r\n")));

  01a50	e59f3174	 ldr         r3, [pc, #0x174]
  01a54	e5933440	 ldr         r3, [r3, #0x440]
  01a58	e3130a02	 tst         r3, #2, 20
  01a5c	0a000004	 beq         |$LN34@UpdateInpu|
  01a60	e59f0178	 ldr         r0, [pc, #0x178]
  01a64	eb000000	 bl          NKDbgPrintfW
  01a68	e3a03001	 mov         r3, #1
  01a6c	e58d303c	 str         r3, [sp, #0x3C]
  01a70	ea000001	 b           |$LN35@UpdateInpu|
  01a74		 |$LN34@UpdateInpu|
  01a74	e3a03000	 mov         r3, #0
  01a78	e58d303c	 str         r3, [sp, #0x3C]
  01a7c		 |$LN35@UpdateInpu|

; 616  :         break;

  01a7c	ea000032	 b           |$LN6@UpdateInpu|
  01a80		 |$LN3@UpdateInpu|

; 617  :     case 2:
; 618  :         DEBUGMSG(ZONE_OTG_FUNCTION,(TEXT("    VBus: Above AValid, below VBusValid\r\n")));

  01a80	e59f3144	 ldr         r3, [pc, #0x144]
  01a84	e5933440	 ldr         r3, [r3, #0x440]
  01a88	e3130a02	 tst         r3, #2, 20
  01a8c	0a000004	 beq         |$LN36@UpdateInpu|
  01a90	e59f0144	 ldr         r0, [pc, #0x144]
  01a94	eb000000	 bl          NKDbgPrintfW
  01a98	e3a03001	 mov         r3, #1
  01a9c	e58d3040	 str         r3, [sp, #0x40]
  01aa0	ea000001	 b           |$LN37@UpdateInpu|
  01aa4		 |$LN36@UpdateInpu|
  01aa4	e3a03000	 mov         r3, #0
  01aa8	e58d3040	 str         r3, [sp, #0x40]
  01aac		 |$LN37@UpdateInpu|

; 619  :         break;

  01aac	ea000026	 b           |$LN6@UpdateInpu|
  01ab0		 |$LN2@UpdateInpu|

; 620  :     case 3:
; 621  :         DEBUGMSG(ZONE_OTG_FUNCTION,(TEXT("    VBus: Above VBusValid\r\n")));

  01ab0	e59f3114	 ldr         r3, [pc, #0x114]
  01ab4	e5933440	 ldr         r3, [r3, #0x440]
  01ab8	e3130a02	 tst         r3, #2, 20
  01abc	0a000004	 beq         |$LN38@UpdateInpu|
  01ac0	e59f0110	 ldr         r0, [pc, #0x110]
  01ac4	eb000000	 bl          NKDbgPrintfW
  01ac8	e3a03001	 mov         r3, #1
  01acc	e58d3044	 str         r3, [sp, #0x44]
  01ad0	ea000001	 b           |$LN39@UpdateInpu|
  01ad4		 |$LN38@UpdateInpu|
  01ad4	e3a03000	 mov         r3, #0
  01ad8	e58d3044	 str         r3, [sp, #0x44]
  01adc		 |$LN39@UpdateInpu|

; 622  :         // The bus voltage is good. 
; 623  :         // In 'A' mode, this means the host is driving the bus OK (Vbus valid)
; 624  :         // In 'B' mode, this means a connected device is driving the bus OK. 
; 625  :         m_UsbOtgInput.bit.a_vbus_vld = 1;

  01adc	e59d305c	 ldr         r3, [sp, #0x5C]
  01ae0	e283304c	 add         r3, r3, #0x4C
  01ae4	e5933000	 ldr         r3, [r3]
  01ae8	e3832080	 orr         r2, r3, #0x80
  01aec	e59d305c	 ldr         r3, [sp, #0x5C]
  01af0	e283304c	 add         r3, r3, #0x4C
  01af4	e5832000	 str         r2, [r3]

; 626  :         m_UsbOtgInput.bit.b_sess_vld = 1;

  01af8	e59d305c	 ldr         r3, [sp, #0x5C]
  01afc	e283304c	 add         r3, r3, #0x4C
  01b00	e5933000	 ldr         r3, [r3]
  01b04	e3832901	 orr         r2, r3, #1, 18
  01b08	e59d305c	 ldr         r3, [sp, #0x5C]
  01b0c	e283304c	 add         r3, r3, #0x4C
  01b10	e5832000	 str         r2, [r3]

; 627  :         break;

  01b14	ea00000c	 b           |$LN6@UpdateInpu|
  01b18		 |$LN1@UpdateInpu|

; 628  :     default:
; 629  :         DEBUGMSG(ZONE_OTG_FUNCTION,(TEXT("    VBus: ERROR, invalid state (%d)\r\n"), vbus));

  01b18	e59f30ac	 ldr         r3, [pc, #0xAC]
  01b1c	e5933440	 ldr         r3, [r3, #0x440]
  01b20	e3130a02	 tst         r3, #2, 20
  01b24	0a000006	 beq         |$LN40@UpdateInpu|
  01b28	e5dd3000	 ldrb        r3, [sp]
  01b2c	e1a01003	 mov         r1, r3
  01b30	e59f009c	 ldr         r0, [pc, #0x9C]
  01b34	eb000000	 bl          NKDbgPrintfW
  01b38	e3a03001	 mov         r3, #1
  01b3c	e58d3048	 str         r3, [sp, #0x48]
  01b40	ea000001	 b           |$LN41@UpdateInpu|
  01b44		 |$LN40@UpdateInpu|
  01b44	e3a03000	 mov         r3, #0
  01b48	e58d3048	 str         r3, [sp, #0x48]
  01b4c		 |$LN41@UpdateInpu|
  01b4c		 |$LN6@UpdateInpu|

; 630  :         break;
; 631  :     }
; 632  : 
; 633  :     DEBUGMSG(ZONE_OTG_FUNCTION, 
; 634  :         (L"CAM35xOTG::UpdateInput:m_UsbOtgInput.ul=%x\r\n",m_UsbOtgInput.ul));

  01b4c	e59f3078	 ldr         r3, [pc, #0x78]
  01b50	e5933440	 ldr         r3, [r3, #0x440]
  01b54	e3130a02	 tst         r3, #2, 20
  01b58	0a000007	 beq         |$LN42@UpdateInpu|
  01b5c	e59d305c	 ldr         r3, [sp, #0x5C]
  01b60	e283304c	 add         r3, r3, #0x4C
  01b64	e5931000	 ldr         r1, [r3]
  01b68	e59f0060	 ldr         r0, [pc, #0x60]
  01b6c	eb000000	 bl          NKDbgPrintfW
  01b70	e3a03001	 mov         r3, #1
  01b74	e58d304c	 str         r3, [sp, #0x4C]
  01b78	ea000001	 b           |$LN43@UpdateInpu|
  01b7c		 |$LN42@UpdateInpu|
  01b7c	e3a03000	 mov         r3, #0
  01b80	e58d304c	 str         r3, [sp, #0x4C]
  01b84		 |$LN43@UpdateInpu|

; 635  :     DEBUGMSG(ZONE_OTG_FUNCTION,(TEXT("-CAM35xOTG::UpdateInput()\r\n")));

  01b84	e59f3040	 ldr         r3, [pc, #0x40]
  01b88	e5933440	 ldr         r3, [r3, #0x440]
  01b8c	e3130a02	 tst         r3, #2, 20
  01b90	0a000004	 beq         |$LN44@UpdateInpu|
  01b94	e59f002c	 ldr         r0, [pc, #0x2C]
  01b98	eb000000	 bl          NKDbgPrintfW
  01b9c	e3a03001	 mov         r3, #1
  01ba0	e58d3050	 str         r3, [sp, #0x50]
  01ba4	ea000001	 b           |$LN45@UpdateInpu|
  01ba8		 |$LN44@UpdateInpu|
  01ba8	e3a03000	 mov         r3, #0
  01bac	e58d3050	 str         r3, [sp, #0x50]
  01bb0		 |$LN45@UpdateInpu|

; 636  :     return TRUE;

  01bb0	e3a03001	 mov         r3, #1
  01bb4	e58d3010	 str         r3, [sp, #0x10]

; 637  : }

  01bb8	e59d0010	 ldr         r0, [sp, #0x10]
  01bbc	e28dd054	 add         sp, sp, #0x54
  01bc0	e89d6000	 ldmia       sp, {sp, lr}
  01bc4	e12fff1e	 bx          lr
  01bc8		 |$LN55@UpdateInpu|
  01bc8		 |$LN56@UpdateInpu|
  01bc8	00000000	 DCD         |??_C@_1DI@LEJFGFPF@?$AA?9?$AAC?$AAA?$AAM?$AA3?$AA5?$AAx?$AAO?$AAT?$AAG?$AA?3?$AA?3?$AAU?$AAp?$AAd?$AAa?$AAt?$AAe?$AAI?$AAn?$AAp?$AAu?$AAt?$AA?$CI?$AA?$CJ?$AA?$AN?$AA?6?$AA?$AA@|
  01bcc		 |$LN57@UpdateInpu|
  01bcc	00000000	 DCD         |dpCurSettings|
  01bd0		 |$LN58@UpdateInpu|
  01bd0	00000000	 DCD         |??_C@_1FK@BDFDEBNF@?$AAC?$AAA?$AAM?$AA3?$AA5?$AAx?$AAO?$AAT?$AAG?$AA?3?$AA?3?$AAU?$AAp?$AAd?$AAa?$AAt?$AAe?$AAI?$AAn?$AAp?$AAu?$AAt?$AA?3?$AAm?$AA_?$AAU?$AAs?$AAb?$AAO?$AAt?$AAg?$AAI@|
  01bd4		 |$LN59@UpdateInpu|
  01bd4	00000000	 DCD         |??_C@_1EM@BAKFOPIN@?$AA?5?$AA?5?$AA?5?$AA?5?$AAV?$AAB?$AAu?$AAs?$AA?3?$AA?5?$AAE?$AAR?$AAR?$AAO?$AAR?$AA?0?$AA?5?$AAi?$AAn?$AAv?$AAa?$AAl?$AAi?$AAd?$AA?5?$AAs?$AAt?$AAa?$AAt?$AAe?$AA?5?$AA?$CI@|
  01bd8		 |$LN60@UpdateInpu|
  01bd8	00000000	 DCD         |??_C@_1DI@DHGEFFNH@?$AA?5?$AA?5?$AA?5?$AA?5?$AAV?$AAB?$AAu?$AAs?$AA?3?$AA?5?$AAA?$AAb?$AAo?$AAv?$AAe?$AA?5?$AAV?$AAB?$AAu?$AAs?$AAV?$AAa?$AAl?$AAi?$AAd?$AA?$AN?$AA?6?$AA?$AA@|
  01bdc		 |$LN61@UpdateInpu|
  01bdc	00000000	 DCD         |??_C@_1FE@KKEGKKAC@?$AA?5?$AA?5?$AA?5?$AA?5?$AAV?$AAB?$AAu?$AAs?$AA?3?$AA?5?$AAA?$AAb?$AAo?$AAv?$AAe?$AA?5?$AAA?$AAV?$AAa?$AAl?$AAi?$AAd?$AA?0?$AA?5?$AAb?$AAe?$AAl?$AAo?$AAw?$AA?5?$AAV?$AAB@|
  01be0		 |$LN62@UpdateInpu|
  01be0	00000000	 DCD         |??_C@_1FI@OJHGDKKH@?$AA?5?$AA?5?$AA?5?$AA?5?$AAV?$AAB?$AAu?$AAs?$AA?3?$AA?5?$AAA?$AAb?$AAo?$AAv?$AAe?$AA?5?$AAS?$AAe?$AAs?$AAs?$AAi?$AAo?$AAn?$AA?5?$AAE?$AAn?$AAd?$AA?0?$AA?5?$AAb?$AAe?$AAl@|
  01be4		 |$LN63@UpdateInpu|
  01be4	00000000	 DCD         |??_C@_1DM@FDJPLJDI@?$AA?5?$AA?5?$AA?5?$AA?5?$AAV?$AAB?$AAu?$AAs?$AA?3?$AA?5?$AAB?$AAe?$AAl?$AAo?$AAw?$AA?5?$AAS?$AAe?$AAs?$AAs?$AAi?$AAo?$AAn?$AA?5?$AAE?$AAn?$AAd?$AA?$AN?$AA?6?$AA?$AA@|
  01be8		 |$LN64@UpdateInpu|
  01be8	00000000	 DCD         |??_C@_1CE@DBCCDAAN@?$AA?5?$AA?5?$AA?5?$AA?5?$AAS?$AAe?$AAs?$AAs?$AAi?$AAo?$AAn?$AA?5?$AAE?$AAn?$AAd?$AA?$AN?$AA?6?$AA?$AA@|
  01bec		 |$LN65@UpdateInpu|
  01bec	00000000	 DCD         |??_C@_1CC@DOKJKEPL@?$AA?5?$AA?5?$AA?5?$AA?5?$AA?8?$AAB?$AA?8?$AA?5?$AAd?$AAe?$AAv?$AAi?$AAc?$AAe?$AA?$AN?$AA?6?$AA?$AA@|
  01bf0		 |$LN66@UpdateInpu|
  01bf0	00000000	 DCD         |??_C@_1CG@IMJPMPKN@?$AA?5?$AA?5?$AA?5?$AA?5?$AAh?$AAo?$AAs?$AAt?$AA?5?$AAm?$AAo?$AAd?$AAe?$AA?5?$AAO?$AAN?$AA?$AN?$AA?6?$AA?$AA@|
  01bf4		 |$LN67@UpdateInpu|
  01bf4	00000000	 DCD         |??_C@_1CI@FOKNPIJ@?$AA?5?$AA?5?$AA?5?$AA?5?$AAh?$AAo?$AAs?$AAt?$AA?5?$AAm?$AAo?$AAd?$AAe?$AA?5?$AAO?$AAF?$AAF?$AA?$AN?$AA?6?$AA?$AA@|
  01bf8		 |$LN68@UpdateInpu|
  01bf8	00000000	 DCD         |??_C@_1CC@GGLHANND@?$AA?5?$AA?5?$AA?5?$AA?5?$AA?8?$AAA?$AA?8?$AA?5?$AAd?$AAe?$AAv?$AAi?$AAc?$AAe?$AA?$AN?$AA?6?$AA?$AA@|
  01bfc		 |$LN69@UpdateInpu|
  01bfc	00000000	 DCD         |??_C@_1CI@HBFENGAK@?$AA?5?$AA?5?$AA?5?$AA?5?$AAS?$AAe?$AAs?$AAs?$AAi?$AAo?$AAn?$AA?5?$AAV?$AAa?$AAl?$AAi?$AAd?$AA?$AN?$AA?6?$AA?$AA@|
  01c00		 |$LN70@UpdateInpu|
  01c00	00000000	 DCD         |??_C@_1FC@NBFAKGKL@?$AAD?$AAE?$AAV?$AAC?$AAT?$AAL?$AA?5?$AA0?$AAx?$AA?$CF?$AAx?$AA?0?$AA?5?$AAC?$AAF?$AAG?$AAC?$AAH?$AAI?$AAP?$AA2?$AA?5?$AA0?$AAx?$AA?$CF?$AAx?$AA?0?$AA?5?$AAS?$AAT?$AAA?$AAT@|
  01c04		 |$LN71@UpdateInpu|
  01c04	00000000	 DCD         |??_C@_1DI@PJOLANAH@?$AA?$CL?$AAC?$AAA?$AAM?$AA3?$AA5?$AAx?$AAO?$AAT?$AAG?$AA?3?$AA?3?$AAU?$AAp?$AAd?$AAa?$AAt?$AAe?$AAI?$AAn?$AAp?$AAu?$AAt?$AA?$CI?$AA?$CJ?$AA?$AN?$AA?6?$AA?$AA@|
  01c08		 |$M40946|

			 ENDP  ; |?UpdateInput@CAM35xOTG@@UAAHXZ|, CAM35xOTG::UpdateInput

	EXPORT	|??_C@_1DG@BNOKLFGJ@?$AA?9?$AAC?$AAA?$AAM?$AA3?$AA5?$AAx?$AAO?$AAT?$AAG?$AA?3?$AA?3?$AAP?$AAo?$AAl?$AAl?$AAT?$AAh?$AAr?$AAe?$AAa?$AAd?$AA?$CI?$AA?$CJ?$AA?$AN?$AA?6?$AA?$AA@| [ DATA ] ; `string'
	EXPORT	|??_C@_1HI@HBBCJPFO@?$AAC?$AAA?$AAM?$AA3?$AA5?$AAx?$AAO?$AAT?$AAG?$AA?3?$AA?3?$AAP?$AAo?$AAl?$AAl?$AAT?$AAh?$AAr?$AAe?$AAa?$AAd?$AA?$CI?$AA?$CJ?$AA?3?$AA?5?$AAE?$AAR?$AAR?$AAO?$AAR?$AA?3?$AA?5@| [ DATA ] ; `string'
	EXPORT	|??_C@_1EM@PAPMAMIO@?$AAC?$AAA?$AAM?$AA3?$AA5?$AAx?$AAO?$AAT?$AAG?$AA?3?$AA?3?$AAP?$AAo?$AAl?$AAl?$AAT?$AAh?$AAr?$AAe?$AAa?$AAd?$AA?$CI?$AA?$CJ?$AA?3?$AA?5?$AAP?$AAo?$AAl?$AAl?$AAi?$AAn?$AAg@| [ DATA ] ; `string'
	EXPORT	|??_C@_1GA@BKGKIKGN@?$AAC?$AAA?$AAM?$AA3?$AA5?$AAx?$AAO?$AAT?$AAG?$AA?3?$AA?3?$AAP?$AAo?$AAl?$AAl?$AAT?$AAh?$AAr?$AAe?$AAa?$AAd?$AA?$CI?$AA?$CJ?$AA?3?$AA?5?$AAE?$AAx?$AAi?$AAt?$AA?5?$AAe?$AAv@| [ DATA ] ; `string'
	EXPORT	|??_C@_1DG@BIDHEANN@?$AA?$CL?$AAC?$AAA?$AAM?$AA3?$AA5?$AAx?$AAO?$AAT?$AAG?$AA?3?$AA?3?$AAP?$AAo?$AAl?$AAl?$AAT?$AAh?$AAr?$AAe?$AAa?$AAd?$AA?$CI?$AA?$CJ?$AA?$AN?$AA?6?$AA?$AA@| [ DATA ] ; `string'

  00078			 AREA	 |.pdata|, PDATA
|$T40981| DCD	|$LN25@PollThread|
	DCD	0x40007f04

  00000			 AREA	 |.rdata|, DATA, READONLY
|??_C@_1DG@BNOKLFGJ@?$AA?9?$AAC?$AAA?$AAM?$AA3?$AA5?$AAx?$AAO?$AAT?$AAG?$AA?3?$AA?3?$AAP?$AAo?$AAl?$AAl?$AAT?$AAh?$AAr?$AAe?$AAa?$AAd?$AA?$CI?$AA?$CJ?$AA?$AN?$AA?6?$AA?$AA@| DCB "-"
	DCB	0x0, "C", 0x0, "A", 0x0, "M", 0x0, "3", 0x0, "5", 0x0, "x"
	DCB	0x0, "O", 0x0, "T", 0x0, "G", 0x0, ":", 0x0, ":", 0x0, "P"
	DCB	0x0, "o", 0x0, "l", 0x0, "l", 0x0, "T", 0x0, "h", 0x0, "r"
	DCB	0x0, "e", 0x0, "a", 0x0, "d", 0x0, "(", 0x0, ")", 0x0, 0xd
	DCB	0x0, 0xa, 0x0, 0x0, 0x0			; `string'

  00000			 AREA	 |.rdata|, DATA, READONLY
|??_C@_1HI@HBBCJPFO@?$AAC?$AAA?$AAM?$AA3?$AA5?$AAx?$AAO?$AAT?$AAG?$AA?3?$AA?3?$AAP?$AAo?$AAl?$AAl?$AAT?$AAh?$AAr?$AAe?$AAa?$AAd?$AA?$CI?$AA?$CJ?$AA?3?$AA?5?$AAE?$AAR?$AAR?$AAO?$AAR?$AA?3?$AA?5@| DCB "C"
	DCB	0x0, "A", 0x0, "M", 0x0, "3", 0x0, "5", 0x0, "x", 0x0, "O"
	DCB	0x0, "T", 0x0, "G", 0x0, ":", 0x0, ":", 0x0, "P", 0x0, "o"
	DCB	0x0, "l", 0x0, "l", 0x0, "T", 0x0, "h", 0x0, "r", 0x0, "e"
	DCB	0x0, "a", 0x0, "d", 0x0, "(", 0x0, ")", 0x0, ":", 0x0, " "
	DCB	0x0, "E", 0x0, "R", 0x0, "R", 0x0, "O", 0x0, "R", 0x0, ":"
	DCB	0x0, " ", 0x0, "i", 0x0, "n", 0x0, "v", 0x0, "a", 0x0, "l"
	DCB	0x0, "i", 0x0, "d", 0x0, " ", 0x0, "c", 0x0, "o", 0x0, "n"
	DCB	0x0, "t", 0x0, "e", 0x0, "x", 0x0, "t", 0x0, " ", 0x0, "p"
	DCB	0x0, "a", 0x0, "r", 0x0, "a", 0x0, "m", 0x0, "e", 0x0, "t"
	DCB	0x0, "e", 0x0, "r", 0x0, 0xd, 0x0, 0xa, 0x0, 0x0, 0x0 ; `string'

  00000			 AREA	 |.rdata|, DATA, READONLY
|??_C@_1EM@PAPMAMIO@?$AAC?$AAA?$AAM?$AA3?$AA5?$AAx?$AAO?$AAT?$AAG?$AA?3?$AA?3?$AAP?$AAo?$AAl?$AAl?$AAT?$AAh?$AAr?$AAe?$AAa?$AAd?$AA?$CI?$AA?$CJ?$AA?3?$AA?5?$AAP?$AAo?$AAl?$AAl?$AAi?$AAn?$AAg@| DCB "C"
	DCB	0x0, "A", 0x0, "M", 0x0, "3", 0x0, "5", 0x0, "x", 0x0, "O"
	DCB	0x0, "T", 0x0, "G", 0x0, ":", 0x0, ":", 0x0, "P", 0x0, "o"
	DCB	0x0, "l", 0x0, "l", 0x0, "T", 0x0, "h", 0x0, "r", 0x0, "e"
	DCB	0x0, "a", 0x0, "d", 0x0, "(", 0x0, ")", 0x0, ":", 0x0, " "
	DCB	0x0, "P", 0x0, "o", 0x0, "l", 0x0, "l", 0x0, "i", 0x0, "n"
	DCB	0x0, "g", 0x0, ".", 0x0, ".", 0x0, ".", 0x0, 0xd, 0x0, 0xa
	DCB	0x0, 0x0, 0x0				; `string'

  00000			 AREA	 |.rdata|, DATA, READONLY
|??_C@_1GA@BKGKIKGN@?$AAC?$AAA?$AAM?$AA3?$AA5?$AAx?$AAO?$AAT?$AAG?$AA?3?$AA?3?$AAP?$AAo?$AAl?$AAl?$AAT?$AAh?$AAr?$AAe?$AAa?$AAd?$AA?$CI?$AA?$CJ?$AA?3?$AA?5?$AAE?$AAx?$AAi?$AAt?$AA?5?$AAe?$AAv@| DCB "C"
	DCB	0x0, "A", 0x0, "M", 0x0, "3", 0x0, "5", 0x0, "x", 0x0, "O"
	DCB	0x0, "T", 0x0, "G", 0x0, ":", 0x0, ":", 0x0, "P", 0x0, "o"
	DCB	0x0, "l", 0x0, "l", 0x0, "T", 0x0, "h", 0x0, "r", 0x0, "e"
	DCB	0x0, "a", 0x0, "d", 0x0, "(", 0x0, ")", 0x0, ":", 0x0, " "
	DCB	0x0, "E", 0x0, "x", 0x0, "i", 0x0, "t", 0x0, " ", 0x0, "e"
	DCB	0x0, "v", 0x0, "e", 0x0, "n", 0x0, "t", 0x0, " ", 0x0, "s"
	DCB	0x0, "i", 0x0, "g", 0x0, "n", 0x0, "a", 0x0, "l", 0x0, "l"
	DCB	0x0, "e", 0x0, "d", 0x0, 0xd, 0x0, 0xa, 0x0, 0x0, 0x0 ; `string'

  00000			 AREA	 |.rdata|, DATA, READONLY
|??_C@_1DG@BIDHEANN@?$AA?$CL?$AAC?$AAA?$AAM?$AA3?$AA5?$AAx?$AAO?$AAT?$AAG?$AA?3?$AA?3?$AAP?$AAo?$AAl?$AAl?$AAT?$AAh?$AAr?$AAe?$AAa?$AAd?$AA?$CI?$AA?$CJ?$AA?$AN?$AA?6?$AA?$AA@| DCB "+"
	DCB	0x0, "C", 0x0, "A", 0x0, "M", 0x0, "3", 0x0, "5", 0x0, "x"
	DCB	0x0, "O", 0x0, "T", 0x0, "G", 0x0, ":", 0x0, ":", 0x0, "P"
	DCB	0x0, "o", 0x0, "l", 0x0, "l", 0x0, "T", 0x0, "h", 0x0, "r"
	DCB	0x0, "e", 0x0, "a", 0x0, "d", 0x0, "(", 0x0, ")", 0x0, 0xd
	DCB	0x0, 0xa, 0x0, 0x0, 0x0			; `string'
; Function compile flags: /Odtp

  01c08			 AREA	 |.text|, CODE, ARM

  01c08		 |?PollThread@CAM35xOTG@@KAKPAX@Z| PROC	; CAM35xOTG::PollThread

; 640  : {

  01c08		 |$LN25@PollThread|
  01c08	e1a0c00d	 mov         r12, sp
  01c0c	e92d0001	 stmdb       sp!, {r0}
  01c10	e92d5000	 stmdb       sp!, {r12, lr}
  01c14	e24dd028	 sub         sp, sp, #0x28
  01c18		 |$M40978|

; 641  :     BOOL bTerminate = FALSE;

  01c18	e3a03000	 mov         r3, #0
  01c1c	e58d3000	 str         r3, [sp]

; 642  :     CAM35xOTG *context = (CAM35xOTG *)data;

  01c20	e59d3030	 ldr         r3, [sp, #0x30]
  01c24	e58d3004	 str         r3, [sp, #4]

; 643  :     DEBUGMSG(ZONE_OTG_FUNCTION,(TEXT("+CAM35xOTG::PollThread()\r\n")));

  01c28	e59f31c0	 ldr         r3, [pc, #0x1C0]
  01c2c	e5933440	 ldr         r3, [r3, #0x440]
  01c30	e3130a02	 tst         r3, #2, 20
  01c34	0a000004	 beq         |$LN13@PollThread|
  01c38	e59f01c0	 ldr         r0, [pc, #0x1C0]
  01c3c	eb000000	 bl          NKDbgPrintfW
  01c40	e3a03001	 mov         r3, #1
  01c44	e58d300c	 str         r3, [sp, #0xC]
  01c48	ea000001	 b           |$LN14@PollThread|
  01c4c		 |$LN13@PollThread|
  01c4c	e3a03000	 mov         r3, #0
  01c50	e58d300c	 str         r3, [sp, #0xC]
  01c54		 |$LN14@PollThread|

; 644  :        
; 645  :     if(context != NULL)

  01c54	e59d3004	 ldr         r3, [sp, #4]
  01c58	e3530000	 cmp         r3, #0
  01c5c	0a000046	 beq         |$LN10@PollThread|
  01c60		 |$LN9@PollThread|

; 646  :     {
; 647  :         while (!bTerminate) 

  01c60	e59d3000	 ldr         r3, [sp]
  01c64	e3530000	 cmp         r3, #0
  01c68	1a000042	 bne         |$LN8@PollThread|

; 648  :         {
; 649  :             switch (WaitForSingleObject(context->m_hPollThreadExitEvent, context->m_PollTimeout))

  01c6c	e59d3004	 ldr         r3, [sp, #4]
  01c70	e28330f4	 add         r3, r3, #0xF4
  01c74	e5931000	 ldr         r1, [r3]
  01c78	e59d3004	 ldr         r3, [sp, #4]
  01c7c	e28330f0	 add         r3, r3, #0xF0
  01c80	e5930000	 ldr         r0, [r3]
  01c84	eb000000	 bl          WaitForSingleObject
  01c88	e58d0010	 str         r0, [sp, #0x10]
  01c8c	e59d3010	 ldr         r3, [sp, #0x10]
  01c90	e58d3014	 str         r3, [sp, #0x14]
  01c94	e59d3014	 ldr         r3, [sp, #0x14]
  01c98	e3530000	 cmp         r3, #0
  01c9c	0a000005	 beq         |$LN5@PollThread|
  01ca0	e59d2014	 ldr         r2, [sp, #0x14]
  01ca4	e3a03c01	 mov         r3, #1, 24
  01ca8	e3833002	 orr         r3, r3, #2
  01cac	e1520003	 cmp         r2, r3
  01cb0	0a00000e	 beq         |$LN4@PollThread|
  01cb4	ea00002c	 b           |$LN2@PollThread|
  01cb8		 |$LN5@PollThread|

; 650  :             {
; 651  :             case WAIT_OBJECT_0:
; 652  :                 DEBUGMSG(ZONE_OTG_FUNCTION,(TEXT("CAM35xOTG::PollThread(): Exit event signalled\r\n")));

  01cb8	e59f3130	 ldr         r3, [pc, #0x130]
  01cbc	e5933440	 ldr         r3, [r3, #0x440]
  01cc0	e3130a02	 tst         r3, #2, 20
  01cc4	0a000004	 beq         |$LN15@PollThread|
  01cc8	e59f012c	 ldr         r0, [pc, #0x12C]
  01ccc	eb000000	 bl          NKDbgPrintfW
  01cd0	e3a03001	 mov         r3, #1
  01cd4	e58d3018	 str         r3, [sp, #0x18]
  01cd8	ea000001	 b           |$LN16@PollThread|
  01cdc		 |$LN15@PollThread|
  01cdc	e3a03000	 mov         r3, #0
  01ce0	e58d3018	 str         r3, [sp, #0x18]
  01ce4		 |$LN16@PollThread|

; 653  :                 bTerminate = TRUE;

  01ce4	e3a03001	 mov         r3, #1
  01ce8	e58d3000	 str         r3, [sp]

; 654  :                 break;

  01cec	ea000020	 b           |$LN6@PollThread|
  01cf0		 |$LN4@PollThread|

; 655  :             case WAIT_TIMEOUT:
; 656  :                 DEBUGMSG(ZONE_OTG_FUNCTION,(TEXT("CAM35xOTG::PollThread(): Polling...\r\n")));

  01cf0	e59f30f8	 ldr         r3, [pc, #0xF8]
  01cf4	e5933440	 ldr         r3, [r3, #0x440]
  01cf8	e3130a02	 tst         r3, #2, 20
  01cfc	0a000004	 beq         |$LN17@PollThread|
  01d00	e59f00f0	 ldr         r0, [pc, #0xF0]
  01d04	eb000000	 bl          NKDbgPrintfW
  01d08	e3a03001	 mov         r3, #1
  01d0c	e58d301c	 str         r3, [sp, #0x1C]
  01d10	ea000001	 b           |$LN18@PollThread|
  01d14		 |$LN17@PollThread|
  01d14	e3a03000	 mov         r3, #0
  01d18	e58d301c	 str         r3, [sp, #0x1C]
  01d1c		 |$LN18@PollThread|

; 657  :                 // Call MDD to query system state. 
; 658  :                 // (This is turn calls UpdateInput, which 
; 659  :                 // sets the bits of m_UsbOtgInput to expose
; 660  :                 // the USB state)
; 661  :                 if(context->m_bEnablePolling)

  01d1c	e59d3004	 ldr         r3, [sp, #4]
  01d20	e28330fc	 add         r3, r3, #0xFC
  01d24	e5933000	 ldr         r3, [r3]
  01d28	e3530000	 cmp         r3, #0
  01d2c	0a00000d	 beq         |$LN3@PollThread|

; 662  :                 {
; 663  :                     context->UpdateInput();

  01d30	e59d3004	 ldr         r3, [sp, #4]
  01d34	e5933000	 ldr         r3, [r3]
  01d38	e2833080	 add         r3, r3, #0x80
  01d3c	e59d0004	 ldr         r0, [sp, #4]
  01d40	e5933000	 ldr         r3, [r3]
  01d44	e1a0e00f	 mov         lr, pc
  01d48	e12fff13	 bx          r3

; 664  :                     context->EventNotification();

  01d4c	e59d3004	 ldr         r3, [sp, #4]
  01d50	e5933000	 ldr         r3, [r3]
  01d54	e2833074	 add         r3, r3, #0x74
  01d58	e59d0004	 ldr         r0, [sp, #4]
  01d5c	e5933000	 ldr         r3, [r3]
  01d60	e1a0e00f	 mov         lr, pc
  01d64	e12fff13	 bx          r3
  01d68		 |$LN3@PollThread|

; 665  :                 }
; 666  :                 break;

  01d68	ea000001	 b           |$LN6@PollThread|
  01d6c		 |$LN2@PollThread|

; 667  :             default:
; 668  :                 // error!
; 669  :                 bTerminate = TRUE;

  01d6c	e3a03001	 mov         r3, #1
  01d70	e58d3000	 str         r3, [sp]
  01d74		 |$LN6@PollThread|

; 670  :                 break;
; 671  :             }
; 672  :         }

  01d74	eaffffb9	 b           |$LN9@PollThread|
  01d78		 |$LN8@PollThread|

; 673  :     }
; 674  :     else

  01d78	ea00000a	 b           |$LN1@PollThread|
  01d7c		 |$LN10@PollThread|

; 675  :         DEBUGMSG(ZONE_OTG_ERROR,(TEXT("CAM35xOTG::PollThread(): ERROR: invalid context parameter\r\n")));

  01d7c	e59f306c	 ldr         r3, [pc, #0x6C]
  01d80	e5933440	 ldr         r3, [r3, #0x440]
  01d84	e3130902	 tst         r3, #2, 18
  01d88	0a000004	 beq         |$LN19@PollThread|
  01d8c	e59f0060	 ldr         r0, [pc, #0x60]
  01d90	eb000000	 bl          NKDbgPrintfW
  01d94	e3a03001	 mov         r3, #1
  01d98	e58d3020	 str         r3, [sp, #0x20]
  01d9c	ea000001	 b           |$LN20@PollThread|
  01da0		 |$LN19@PollThread|
  01da0	e3a03000	 mov         r3, #0
  01da4	e58d3020	 str         r3, [sp, #0x20]
  01da8		 |$LN20@PollThread|
  01da8		 |$LN1@PollThread|

; 676  : 
; 677  :     DEBUGMSG(ZONE_OTG_FUNCTION,(TEXT("-CAM35xOTG::PollThread()\r\n")));

  01da8	e59f3040	 ldr         r3, [pc, #0x40]
  01dac	e5933440	 ldr         r3, [r3, #0x440]
  01db0	e3130a02	 tst         r3, #2, 20
  01db4	0a000004	 beq         |$LN21@PollThread|
  01db8	e59f002c	 ldr         r0, [pc, #0x2C]
  01dbc	eb000000	 bl          NKDbgPrintfW
  01dc0	e3a03001	 mov         r3, #1
  01dc4	e58d3024	 str         r3, [sp, #0x24]
  01dc8	ea000001	 b           |$LN22@PollThread|
  01dcc		 |$LN21@PollThread|
  01dcc	e3a03000	 mov         r3, #0
  01dd0	e58d3024	 str         r3, [sp, #0x24]
  01dd4		 |$LN22@PollThread|

; 678  :     return 0;

  01dd4	e3a03000	 mov         r3, #0
  01dd8	e58d3008	 str         r3, [sp, #8]

; 679  : }

  01ddc	e59d0008	 ldr         r0, [sp, #8]
  01de0	e28dd028	 add         sp, sp, #0x28
  01de4	e89d6000	 ldmia       sp, {sp, lr}
  01de8	e12fff1e	 bx          lr
  01dec		 |$LN26@PollThread|
  01dec		 |$LN27@PollThread|
  01dec	00000000	 DCD         |??_C@_1DG@BNOKLFGJ@?$AA?9?$AAC?$AAA?$AAM?$AA3?$AA5?$AAx?$AAO?$AAT?$AAG?$AA?3?$AA?3?$AAP?$AAo?$AAl?$AAl?$AAT?$AAh?$AAr?$AAe?$AAa?$AAd?$AA?$CI?$AA?$CJ?$AA?$AN?$AA?6?$AA?$AA@|
  01df0		 |$LN28@PollThread|
  01df0	00000000	 DCD         |dpCurSettings|
  01df4		 |$LN29@PollThread|
  01df4	00000000	 DCD         |??_C@_1HI@HBBCJPFO@?$AAC?$AAA?$AAM?$AA3?$AA5?$AAx?$AAO?$AAT?$AAG?$AA?3?$AA?3?$AAP?$AAo?$AAl?$AAl?$AAT?$AAh?$AAr?$AAe?$AAa?$AAd?$AA?$CI?$AA?$CJ?$AA?3?$AA?5?$AAE?$AAR?$AAR?$AAO?$AAR?$AA?3?$AA?5@|
  01df8		 |$LN30@PollThread|
  01df8	00000000	 DCD         |??_C@_1EM@PAPMAMIO@?$AAC?$AAA?$AAM?$AA3?$AA5?$AAx?$AAO?$AAT?$AAG?$AA?3?$AA?3?$AAP?$AAo?$AAl?$AAl?$AAT?$AAh?$AAr?$AAe?$AAa?$AAd?$AA?$CI?$AA?$CJ?$AA?3?$AA?5?$AAP?$AAo?$AAl?$AAl?$AAi?$AAn?$AAg@|
  01dfc		 |$LN31@PollThread|
  01dfc	00000000	 DCD         |??_C@_1GA@BKGKIKGN@?$AAC?$AAA?$AAM?$AA3?$AA5?$AAx?$AAO?$AAT?$AAG?$AA?3?$AA?3?$AAP?$AAo?$AAl?$AAl?$AAT?$AAh?$AAr?$AAe?$AAa?$AAd?$AA?$CI?$AA?$CJ?$AA?3?$AA?5?$AAE?$AAx?$AAi?$AAt?$AA?5?$AAe?$AAv@|
  01e00		 |$LN32@PollThread|
  01e00	00000000	 DCD         |??_C@_1DG@BIDHEANN@?$AA?$CL?$AAC?$AAA?$AAM?$AA3?$AA5?$AAx?$AAO?$AAT?$AAG?$AA?3?$AA?3?$AAP?$AAo?$AAl?$AAl?$AAT?$AAh?$AAr?$AAe?$AAa?$AAd?$AA?$CI?$AA?$CJ?$AA?$AN?$AA?6?$AA?$AA@|
  01e04		 |$M40979|

			 ENDP  ; |?PollThread@CAM35xOTG@@KAKPAX@Z|, CAM35xOTG::PollThread

	EXPORT	|??_C@_1EM@OLDPLBGN@?$AAC?$AAA?$AAM?$AA3?$AA5?$AAx?$AAO?$AAT?$AAG?$AA?3?$AA?3?$AAH?$AAo?$AAs?$AAt?$AAM?$AAo?$AAd?$AAe?$AA?$CI?$AA?$CJ?$AA?3?$AA?5?$AA?$CF?$AAs?$AA?5?$AAh?$AAo?$AAs?$AAt?$AA?5?$AAm@| [ DATA ] ; `string'
	EXPORT	|??_C@_1BA@JGFCMEBJ@?$AAl?$AAe?$AAa?$AAv?$AAi?$AAn?$AAg?$AA?$AA@| [ DATA ] ; `string'
	EXPORT	|??_C@_1BC@GIDDIKMK@?$AAe?$AAn?$AAt?$AAe?$AAr?$AAi?$AAn?$AAg?$AA?$AA@| [ DATA ] ; `string'

  00080			 AREA	 |.pdata|, PDATA
|$T41001| DCD	|$LN14@HostMode|
	DCD	0x40004104

  00000			 AREA	 |.rdata|, DATA, READONLY
|??_C@_1EM@OLDPLBGN@?$AAC?$AAA?$AAM?$AA3?$AA5?$AAx?$AAO?$AAT?$AAG?$AA?3?$AA?3?$AAH?$AAo?$AAs?$AAt?$AAM?$AAo?$AAd?$AAe?$AA?$CI?$AA?$CJ?$AA?3?$AA?5?$AA?$CF?$AAs?$AA?5?$AAh?$AAo?$AAs?$AAt?$AA?5?$AAm@| DCB "C"
	DCB	0x0, "A", 0x0, "M", 0x0, "3", 0x0, "5", 0x0, "x", 0x0, "O"
	DCB	0x0, "T", 0x0, "G", 0x0, ":", 0x0, ":", 0x0, "H", 0x0, "o"
	DCB	0x0, "s", 0x0, "t", 0x0, "M", 0x0, "o", 0x0, "d", 0x0, "e"
	DCB	0x0, "(", 0x0, ")", 0x0, ":", 0x0, " ", 0x0, "%", 0x0, "s"
	DCB	0x0, " ", 0x0, "h", 0x0, "o", 0x0, "s", 0x0, "t", 0x0, " "
	DCB	0x0, "m", 0x0, "o", 0x0, "d", 0x0, "e", 0x0, 0xd, 0x0, 0xa
	DCB	0x0, 0x0, 0x0				; `string'

  00000			 AREA	 |.rdata|, DATA, READONLY
|??_C@_1BA@JGFCMEBJ@?$AAl?$AAe?$AAa?$AAv?$AAi?$AAn?$AAg?$AA?$AA@| DCB "l", 0x0
	DCB	"e", 0x0, "a", 0x0, "v", 0x0, "i", 0x0, "n", 0x0, "g", 0x0
	DCB	0x0, 0x0				; `string'

  00000			 AREA	 |.rdata|, DATA, READONLY
|??_C@_1BC@GIDDIKMK@?$AAe?$AAn?$AAt?$AAe?$AAr?$AAi?$AAn?$AAg?$AA?$AA@| DCB "e"
	DCB	0x0, "n", 0x0, "t", 0x0, "e", 0x0, "r", 0x0, "i", 0x0, "n"
	DCB	0x0, "g", 0x0, 0x0, 0x0			; `string'
; Function compile flags: /Odtp

  01e04			 AREA	 |.text|, CODE, ARM

  01e04		 |?HostMode@CAM35xOTG@@IAAXH@Z| PROC	; CAM35xOTG::HostMode

; 682  : {

  01e04		 |$LN14@HostMode|
  01e04	e1a0c00d	 mov         r12, sp
  01e08	e92d0003	 stmdb       sp!, {r0, r1}
  01e0c	e92d5000	 stmdb       sp!, {r12, lr}
  01e10	e24dd010	 sub         sp, sp, #0x10
  01e14		 |$M40998|

; 683  :     // only need to load/unload if required
; 684  :     // state is different from current one
; 685  :     if(m_bHostMode != start)

  01e14	e59d3018	 ldr         r3, [sp, #0x18]
  01e18	e2833f42	 add         r3, r3, #0x42, 30
  01e1c	e5932000	 ldr         r2, [r3]
  01e20	e59d301c	 ldr         r3, [sp, #0x1C]
  01e24	e1520003	 cmp         r2, r3
  01e28	0a00002f	 beq         |$LN1@HostMode|

; 686  :     {
; 687  :         DEBUGMSG(ZONE_OTG_FUNCTION,(TEXT("CAM35xOTG::HostMode(): %s host mode\r\n"), start? (L"entering"):(L"leaving")));

  01e2c	e59f30d0	 ldr         r3, [pc, #0xD0]
  01e30	e5933440	 ldr         r3, [r3, #0x440]
  01e34	e3130a02	 tst         r3, #2, 20
  01e38	0a00000d	 beq         |$LN6@HostMode|
  01e3c	e59d301c	 ldr         r3, [sp, #0x1C]
  01e40	e3530000	 cmp         r3, #0
  01e44	0a000002	 beq         |$LN4@HostMode|
  01e48	e59f30b0	 ldr         r3, [pc, #0xB0]
  01e4c	e58d3000	 str         r3, [sp]
  01e50	ea000001	 b           |$LN5@HostMode|
  01e54		 |$LN4@HostMode|
  01e54	e59f30a0	 ldr         r3, [pc, #0xA0]
  01e58	e58d3000	 str         r3, [sp]
  01e5c		 |$LN5@HostMode|
  01e5c	e59d1000	 ldr         r1, [sp]
  01e60	e59f0090	 ldr         r0, [pc, #0x90]
  01e64	eb000000	 bl          NKDbgPrintfW
  01e68	e3a03001	 mov         r3, #1
  01e6c	e58d3004	 str         r3, [sp, #4]
  01e70	ea000001	 b           |$LN7@HostMode|
  01e74		 |$LN6@HostMode|
  01e74	e3a03000	 mov         r3, #0
  01e78	e58d3004	 str         r3, [sp, #4]
  01e7c		 |$LN7@HostMode|

; 688  :         RETAILMSG(TRUE,(TEXT("CAM35xOTG::HostMode(): %s host mode\r\n"), start? (L"entering"):(L"leaving")));

  01e7c	e59d301c	 ldr         r3, [sp, #0x1C]
  01e80	e3530000	 cmp         r3, #0
  01e84	0a000002	 beq         |$LN8@HostMode|
  01e88	e59f3070	 ldr         r3, [pc, #0x70]
  01e8c	e58d3008	 str         r3, [sp, #8]
  01e90	ea000001	 b           |$LN9@HostMode|
  01e94		 |$LN8@HostMode|
  01e94	e59f3060	 ldr         r3, [pc, #0x60]
  01e98	e58d3008	 str         r3, [sp, #8]
  01e9c		 |$LN9@HostMode|
  01e9c	e59d1008	 ldr         r1, [sp, #8]
  01ea0	e59f0050	 ldr         r0, [pc, #0x50]
  01ea4	eb000000	 bl          NKDbgPrintfW
  01ea8	e3a03001	 mov         r3, #1
  01eac	e58d300c	 str         r3, [sp, #0xC]
  01eb0	ea000001	 b           |$LN11@HostMode|
  01eb4	e3a03000	 mov         r3, #0
  01eb8	e58d300c	 str         r3, [sp, #0xC]
  01ebc		 |$LN11@HostMode|

; 689  : 		m_bHostMode = start;

  01ebc	e59d3018	 ldr         r3, [sp, #0x18]
  01ec0	e2832f42	 add         r2, r3, #0x42, 30
  01ec4	e59d301c	 ldr         r3, [sp, #0x1C]
  01ec8	e5823000	 str         r3, [r2]

; 690  :         LoadUnloadHCD(start);

  01ecc	e59d101c	 ldr         r1, [sp, #0x1C]
  01ed0	e59d3018	 ldr         r3, [sp, #0x18]
  01ed4	e5933000	 ldr         r3, [r3]
  01ed8	e2833068	 add         r3, r3, #0x68
  01edc	e59d0018	 ldr         r0, [sp, #0x18]
  01ee0	e5933000	 ldr         r3, [r3]
  01ee4	e1a0e00f	 mov         lr, pc
  01ee8	e12fff13	 bx          r3
  01eec		 |$LN1@HostMode|

; 691  :     }
; 692  : }

  01eec	e28dd010	 add         sp, sp, #0x10
  01ef0	e89d6000	 ldmia       sp, {sp, lr}
  01ef4	e12fff1e	 bx          lr
  01ef8		 |$LN15@HostMode|
  01ef8		 |$LN16@HostMode|
  01ef8	00000000	 DCD         |??_C@_1EM@OLDPLBGN@?$AAC?$AAA?$AAM?$AA3?$AA5?$AAx?$AAO?$AAT?$AAG?$AA?3?$AA?3?$AAH?$AAo?$AAs?$AAt?$AAM?$AAo?$AAd?$AAe?$AA?$CI?$AA?$CJ?$AA?3?$AA?5?$AA?$CF?$AAs?$AA?5?$AAh?$AAo?$AAs?$AAt?$AA?5?$AAm@|
  01efc		 |$LN17@HostMode|
  01efc	00000000	 DCD         |??_C@_1BA@JGFCMEBJ@?$AAl?$AAe?$AAa?$AAv?$AAi?$AAn?$AAg?$AA?$AA@|
  01f00		 |$LN18@HostMode|
  01f00	00000000	 DCD         |??_C@_1BC@GIDDIKMK@?$AAe?$AAn?$AAt?$AAe?$AAr?$AAi?$AAn?$AAg?$AA?$AA@|
  01f04		 |$LN19@HostMode|
  01f04	00000000	 DCD         |dpCurSettings|
  01f08		 |$M40999|

			 ENDP  ; |?HostMode@CAM35xOTG@@IAAXH@Z|, CAM35xOTG::HostMode

	EXPORT	|??_C@_1FM@IOICPNLH@?$AAC?$AAA?$AAM?$AA3?$AA5?$AAx?$AAO?$AAT?$AAG?$AA?3?$AA?3?$AAF?$AAu?$AAn?$AAc?$AAt?$AAi?$AAo?$AAn?$AAM?$AAo?$AAd?$AAe?$AA?$CI?$AA?$CJ?$AA?3?$AA?5?$AA?$CF?$AAs?$AA?5?$AAf?$AAu@| [ DATA ] ; `string'
	EXPORT	|??_C@_1GA@BEPLHAC@?$AAC?$AAA?$AAM?$AA3?$AA5?$AAx?$AAO?$AAT?$AAG?$AA?3?$AA?3?$AAF?$AAu?$AAn?$AAc?$AAt?$AAi?$AAo?$AAn?$AAM?$AAo?$AAd?$AAe?$AA?$CI?$AA?$CJ?$AA?5?$AAr?$AAe?$AAc?$AAu?$AAr?$AAs@| [ DATA ] ; `string'

  00088			 AREA	 |.pdata|, PDATA
|$T41021| DCD	|$LN17@FunctionMo|
	DCD	0x40005b04

  00000			 AREA	 |.rdata|, DATA, READONLY
|??_C@_1FM@IOICPNLH@?$AAC?$AAA?$AAM?$AA3?$AA5?$AAx?$AAO?$AAT?$AAG?$AA?3?$AA?3?$AAF?$AAu?$AAn?$AAc?$AAt?$AAi?$AAo?$AAn?$AAM?$AAo?$AAd?$AAe?$AA?$CI?$AA?$CJ?$AA?3?$AA?5?$AA?$CF?$AAs?$AA?5?$AAf?$AAu@| DCB "C"
	DCB	0x0, "A", 0x0, "M", 0x0, "3", 0x0, "5", 0x0, "x", 0x0, "O"
	DCB	0x0, "T", 0x0, "G", 0x0, ":", 0x0, ":", 0x0, "F", 0x0, "u"
	DCB	0x0, "n", 0x0, "c", 0x0, "t", 0x0, "i", 0x0, "o", 0x0, "n"
	DCB	0x0, "M", 0x0, "o", 0x0, "d", 0x0, "e", 0x0, "(", 0x0, ")"
	DCB	0x0, ":", 0x0, " ", 0x0, "%", 0x0, "s", 0x0, " ", 0x0, "f"
	DCB	0x0, "u", 0x0, "n", 0x0, "c", 0x0, "t", 0x0, "i", 0x0, "o"
	DCB	0x0, "n", 0x0, " ", 0x0, "m", 0x0, "o", 0x0, "d", 0x0, "e"
	DCB	0x0, 0xd, 0x0, 0xa, 0x0, 0x0, 0x0	; `string'

  00000			 AREA	 |.rdata|, DATA, READONLY
|??_C@_1GA@BEPLHAC@?$AAC?$AAA?$AAM?$AA3?$AA5?$AAx?$AAO?$AAT?$AAG?$AA?3?$AA?3?$AAF?$AAu?$AAn?$AAc?$AAt?$AAi?$AAo?$AAn?$AAM?$AAo?$AAd?$AAe?$AA?$CI?$AA?$CJ?$AA?5?$AAr?$AAe?$AAc?$AAu?$AAr?$AAs@| DCB "C"
	DCB	0x0, "A", 0x0, "M", 0x0, "3", 0x0, "5", 0x0, "x", 0x0, "O"
	DCB	0x0, "T", 0x0, "G", 0x0, ":", 0x0, ":", 0x0, "F", 0x0, "u"
	DCB	0x0, "n", 0x0, "c", 0x0, "t", 0x0, "i", 0x0, "o", 0x0, "n"
	DCB	0x0, "M", 0x0, "o", 0x0, "d", 0x0, "e", 0x0, "(", 0x0, ")"
	DCB	0x0, " ", 0x0, "r", 0x0, "e", 0x0, "c", 0x0, "u", 0x0, "r"
	DCB	0x0, "s", 0x0, "i", 0x0, "o", 0x0, "n", 0x0, " ", 0x0, "p"
	DCB	0x0, "r", 0x0, "e", 0x0, "v", 0x0, "e", 0x0, "n", 0x0, "t"
	DCB	0x0, "e", 0x0, "d", 0x0, 0xd, 0x0, 0xa, 0x0, 0x0, 0x0 ; `string'
; Function compile flags: /Odtp

  01f08			 AREA	 |.text|, CODE, ARM

  01f08		 |?FunctionMode@CAM35xOTG@@IAAXH@Z| PROC ; CAM35xOTG::FunctionMode

; 695  : {    

  01f08		 |$LN17@FunctionMo|
  01f08	e1a0c00d	 mov         r12, sp
  01f0c	e92d0003	 stmdb       sp!, {r0, r1}
  01f10	e92d5000	 stmdb       sp!, {r12, lr}
  01f14	e24dd014	 sub         sp, sp, #0x14
  01f18		 |$M41018|

; 696  :     if (m_InFunctionModeFn)

  01f18	e59d301c	 ldr         r3, [sp, #0x1C]
  01f1c	e2833f41	 add         r3, r3, #0x41, 30
  01f20	e5933000	 ldr         r3, [r3]
  01f24	e3530000	 cmp         r3, #0
  01f28	0a00000b	 beq         |$LN2@FunctionMo|

; 697  :     {
; 698  :         DEBUGMSG(ZONE_OTG_FUNCTION,(TEXT("CAM35xOTG::FunctionMode() recursion prevented\r\n")));

  01f2c	e59f3138	 ldr         r3, [pc, #0x138]
  01f30	e5933440	 ldr         r3, [r3, #0x440]
  01f34	e3130a02	 tst         r3, #2, 20
  01f38	0a000004	 beq         |$LN5@FunctionMo|
  01f3c	e59f012c	 ldr         r0, [pc, #0x12C]
  01f40	eb000000	 bl          NKDbgPrintfW
  01f44	e3a03001	 mov         r3, #1
  01f48	e58d3000	 str         r3, [sp]
  01f4c	ea000001	 b           |$LN6@FunctionMo|
  01f50		 |$LN5@FunctionMo|
  01f50	e3a03000	 mov         r3, #0
  01f54	e58d3000	 str         r3, [sp]
  01f58		 |$LN6@FunctionMo|

; 699  :         return;

  01f58	ea00003d	 b           |$LN3@FunctionMo|
  01f5c		 |$LN2@FunctionMo|

; 700  :     }
; 701  :     m_InFunctionModeFn = TRUE;

  01f5c	e59d301c	 ldr         r3, [sp, #0x1C]
  01f60	e2832f41	 add         r2, r3, #0x41, 30
  01f64	e3a03001	 mov         r3, #1
  01f68	e5823000	 str         r3, [r2]

; 702  :     // only need to load/unload if required
; 703  :     // state is different from current one
; 704  :     if(m_bFunctionMode != start)

  01f6c	e59d301c	 ldr         r3, [sp, #0x1C]
  01f70	e2833c01	 add         r3, r3, #1, 24
  01f74	e5932000	 ldr         r2, [r3]
  01f78	e59d3020	 ldr         r3, [sp, #0x20]
  01f7c	e1520003	 cmp         r2, r3
  01f80	0a00002f	 beq         |$LN1@FunctionMo|

; 705  :     {
; 706  :         DEBUGMSG(ZONE_OTG_FUNCTION,(TEXT("CAM35xOTG::FunctionMode(): %s function mode\r\n"), start? (L"entering"):(L"leaving")));

  01f84	e59f30e0	 ldr         r3, [pc, #0xE0]
  01f88	e5933440	 ldr         r3, [r3, #0x440]
  01f8c	e3130a02	 tst         r3, #2, 20
  01f90	0a00000d	 beq         |$LN9@FunctionMo|
  01f94	e59d3020	 ldr         r3, [sp, #0x20]
  01f98	e3530000	 cmp         r3, #0
  01f9c	0a000002	 beq         |$LN7@FunctionMo|
  01fa0	e59f30c0	 ldr         r3, [pc, #0xC0]
  01fa4	e58d3004	 str         r3, [sp, #4]
  01fa8	ea000001	 b           |$LN8@FunctionMo|
  01fac		 |$LN7@FunctionMo|
  01fac	e59f30b0	 ldr         r3, [pc, #0xB0]
  01fb0	e58d3004	 str         r3, [sp, #4]
  01fb4		 |$LN8@FunctionMo|
  01fb4	e59d1004	 ldr         r1, [sp, #4]
  01fb8	e59f00a0	 ldr         r0, [pc, #0xA0]
  01fbc	eb000000	 bl          NKDbgPrintfW
  01fc0	e3a03001	 mov         r3, #1
  01fc4	e58d3008	 str         r3, [sp, #8]
  01fc8	ea000001	 b           |$LN10@FunctionMo|
  01fcc		 |$LN9@FunctionMo|
  01fcc	e3a03000	 mov         r3, #0
  01fd0	e58d3008	 str         r3, [sp, #8]
  01fd4		 |$LN10@FunctionMo|

; 707  : 		RETAILMSG(TRUE,(TEXT("CAM35xOTG::FunctionMode(): %s function mode\r\n"), start? (L"entering"):(L"leaving")));

  01fd4	e59d3020	 ldr         r3, [sp, #0x20]
  01fd8	e3530000	 cmp         r3, #0
  01fdc	0a000002	 beq         |$LN11@FunctionMo|
  01fe0	e59f3080	 ldr         r3, [pc, #0x80]
  01fe4	e58d300c	 str         r3, [sp, #0xC]
  01fe8	ea000001	 b           |$LN12@FunctionMo|
  01fec		 |$LN11@FunctionMo|
  01fec	e59f3070	 ldr         r3, [pc, #0x70]
  01ff0	e58d300c	 str         r3, [sp, #0xC]
  01ff4		 |$LN12@FunctionMo|
  01ff4	e59d100c	 ldr         r1, [sp, #0xC]
  01ff8	e59f0060	 ldr         r0, [pc, #0x60]
  01ffc	eb000000	 bl          NKDbgPrintfW
  02000	e3a03001	 mov         r3, #1
  02004	e58d3010	 str         r3, [sp, #0x10]
  02008	ea000001	 b           |$LN14@FunctionMo|
  0200c	e3a03000	 mov         r3, #0
  02010	e58d3010	 str         r3, [sp, #0x10]
  02014		 |$LN14@FunctionMo|

; 708  :         m_bFunctionMode = start;

  02014	e59d301c	 ldr         r3, [sp, #0x1C]
  02018	e2832c01	 add         r2, r3, #1, 24
  0201c	e59d3020	 ldr         r3, [sp, #0x20]
  02020	e5823000	 str         r3, [r2]

; 709  :         LoadUnloadUSBFN(start);

  02024	e59d1020	 ldr         r1, [sp, #0x20]
  02028	e59d301c	 ldr         r3, [sp, #0x1C]
  0202c	e5933000	 ldr         r3, [r3]
  02030	e283306c	 add         r3, r3, #0x6C
  02034	e59d001c	 ldr         r0, [sp, #0x1C]
  02038	e5933000	 ldr         r3, [r3]
  0203c	e1a0e00f	 mov         lr, pc
  02040	e12fff13	 bx          r3
  02044		 |$LN1@FunctionMo|

; 710  :     }
; 711  : 	m_InFunctionModeFn = FALSE;

  02044	e59d301c	 ldr         r3, [sp, #0x1C]
  02048	e2832f41	 add         r2, r3, #0x41, 30
  0204c	e3a03000	 mov         r3, #0
  02050	e5823000	 str         r3, [r2]
  02054		 |$LN3@FunctionMo|

; 712  : }

  02054	e28dd014	 add         sp, sp, #0x14
  02058	e89d6000	 ldmia       sp, {sp, lr}
  0205c	e12fff1e	 bx          lr
  02060		 |$LN18@FunctionMo|
  02060		 |$LN19@FunctionMo|
  02060	00000000	 DCD         |??_C@_1FM@IOICPNLH@?$AAC?$AAA?$AAM?$AA3?$AA5?$AAx?$AAO?$AAT?$AAG?$AA?3?$AA?3?$AAF?$AAu?$AAn?$AAc?$AAt?$AAi?$AAo?$AAn?$AAM?$AAo?$AAd?$AAe?$AA?$CI?$AA?$CJ?$AA?3?$AA?5?$AA?$CF?$AAs?$AA?5?$AAf?$AAu@|
  02064		 |$LN20@FunctionMo|
  02064	00000000	 DCD         |??_C@_1BA@JGFCMEBJ@?$AAl?$AAe?$AAa?$AAv?$AAi?$AAn?$AAg?$AA?$AA@|
  02068		 |$LN21@FunctionMo|
  02068	00000000	 DCD         |??_C@_1BC@GIDDIKMK@?$AAe?$AAn?$AAt?$AAe?$AAr?$AAi?$AAn?$AAg?$AA?$AA@|
  0206c		 |$LN22@FunctionMo|
  0206c	00000000	 DCD         |dpCurSettings|
  02070		 |$LN23@FunctionMo|
  02070	00000000	 DCD         |??_C@_1GA@BEPLHAC@?$AAC?$AAA?$AAM?$AA3?$AA5?$AAx?$AAO?$AAT?$AAG?$AA?3?$AA?3?$AAF?$AAu?$AAn?$AAc?$AAt?$AAi?$AAo?$AAn?$AAM?$AAo?$AAd?$AAe?$AA?$CI?$AA?$CJ?$AA?5?$AAr?$AAe?$AAc?$AAu?$AAr?$AAs@|
  02074		 |$M41019|

			 ENDP  ; |?FunctionMode@CAM35xOTG@@IAAXH@Z|, CAM35xOTG::FunctionMode

	EXPORT	|?CreateUSBOTGObject@@YAPAVUSBOTG@@PAG@Z| ; CreateUSBOTGObject

  00090			 AREA	 |.pdata|, PDATA
|$T41036| DCD	|$LN7@CreateUSBO|
	DCD	0x40001b04
; Function compile flags: /Odtp

  02074			 AREA	 |.text|, CODE, ARM

  02074		 |?CreateUSBOTGObject@@YAPAVUSBOTG@@PAG@Z| PROC ; CreateUSBOTGObject

; 716  : {

  02074		 |$LN7@CreateUSBO|
  02074	e1a0c00d	 mov         r12, sp
  02078	e92d0001	 stmdb       sp!, {r0}
  0207c	e92d5000	 stmdb       sp!, {r12, lr}
  02080	e24dd014	 sub         sp, sp, #0x14
  02084		 |$M41033|

; 717  :     return new CAM35xOTG(lpActivePath);

  02084	e3a00f43	 mov         r0, #0x43, 30
  02088	eb000000	 bl          |??2@YAPAXI@Z|
  0208c	e58d0008	 str         r0, [sp, #8]
  02090	e59d3008	 ldr         r3, [sp, #8]
  02094	e58d3000	 str         r3, [sp]
  02098	e59d3000	 ldr         r3, [sp]
  0209c	e3530000	 cmp         r3, #0
  020a0	0a000006	 beq         |$LN3@CreateUSBO|
  020a4	e59d101c	 ldr         r1, [sp, #0x1C]
  020a8	e59d0000	 ldr         r0, [sp]
  020ac	eb000000	 bl          |??0CAM35xOTG@@QAA@PBG@Z|
  020b0	e58d000c	 str         r0, [sp, #0xC]
  020b4	e59d300c	 ldr         r3, [sp, #0xC]
  020b8	e58d3010	 str         r3, [sp, #0x10]
  020bc	ea000001	 b           |$LN4@CreateUSBO|
  020c0		 |$LN3@CreateUSBO|
  020c0	e3a03000	 mov         r3, #0
  020c4	e58d3010	 str         r3, [sp, #0x10]
  020c8		 |$LN4@CreateUSBO|
  020c8	e59d3010	 ldr         r3, [sp, #0x10]
  020cc	e58d3004	 str         r3, [sp, #4]

; 718  : }

  020d0	e59d0004	 ldr         r0, [sp, #4]
  020d4	e28dd014	 add         sp, sp, #0x14
  020d8	e89d6000	 ldmia       sp, {sp, lr}
  020dc	e12fff1e	 bx          lr
  020e0		 |$M41034|

			 ENDP  ; |?CreateUSBOTGObject@@YAPAVUSBOTG@@PAG@Z|, CreateUSBOTGObject

	EXPORT	|?DeleteUSBOTGObject@@YAXPAVUSBOTG@@@Z|	; DeleteUSBOTGObject

  00098			 AREA	 |.pdata|, PDATA
|$T41045| DCD	|$LN8@DeleteUSBO|
	DCD	0x40001f04
; Function compile flags: /Odtp

  020e0			 AREA	 |.text|, CODE, ARM

  020e0		 |?DeleteUSBOTGObject@@YAXPAVUSBOTG@@@Z| PROC ; DeleteUSBOTGObject

; 720  : {

  020e0		 |$LN8@DeleteUSBO|
  020e0	e1a0c00d	 mov         r12, sp
  020e4	e92d0001	 stmdb       sp!, {r0}
  020e8	e92d5000	 stmdb       sp!, {r12, lr}
  020ec	e24dd010	 sub         sp, sp, #0x10
  020f0		 |$M41042|

; 721  :     if (pUsbOtg)

  020f0	e59d3018	 ldr         r3, [sp, #0x18]
  020f4	e3530000	 cmp         r3, #0
  020f8	0a000014	 beq         |$LN1@DeleteUSBO|

; 722  :         delete pUsbOtg;

  020fc	e59d3018	 ldr         r3, [sp, #0x18]
  02100	e58d3004	 str         r3, [sp, #4]
  02104	e59d3004	 ldr         r3, [sp, #4]
  02108	e58d3000	 str         r3, [sp]
  0210c	e59d3000	 ldr         r3, [sp]
  02110	e3530000	 cmp         r3, #0
  02114	0a00000b	 beq         |$LN4@DeleteUSBO|
  02118	e3a01001	 mov         r1, #1
  0211c	e59d3000	 ldr         r3, [sp]
  02120	e5933000	 ldr         r3, [r3]
  02124	e2833008	 add         r3, r3, #8
  02128	e59d0000	 ldr         r0, [sp]
  0212c	e5933000	 ldr         r3, [r3]
  02130	e1a0e00f	 mov         lr, pc
  02134	e12fff13	 bx          r3
  02138	e58d0008	 str         r0, [sp, #8]
  0213c	e59d3008	 ldr         r3, [sp, #8]
  02140	e58d300c	 str         r3, [sp, #0xC]
  02144	ea000001	 b           |$LN5@DeleteUSBO|
  02148		 |$LN4@DeleteUSBO|
  02148	e3a03000	 mov         r3, #0
  0214c	e58d300c	 str         r3, [sp, #0xC]
  02150		 |$LN5@DeleteUSBO|
  02150		 |$LN1@DeleteUSBO|

; 723  : }

  02150	e28dd010	 add         sp, sp, #0x10
  02154	e89d6000	 ldmia       sp, {sp, lr}
  02158	e12fff1e	 bx          lr
  0215c		 |$M41043|

			 ENDP  ; |?DeleteUSBOTGObject@@YAXPAVUSBOTG@@@Z|, DeleteUSBOTGObject

	END
