; Listing generated by Microsoft (R) Optimizing Compiler Version 14.01.60511.01 

	TTL	C:\WINCE600\PLATFORM\COMMON\SRC\SOC\COMMON_TI_V1\COMMON_TI\BUS\MDD\defaultbuschildcontainer.cpp
	CODE32

  00000			 AREA	 |.drectve|, DRECTVE
	DCB	"/include:?_factory@?$$singleton@V?$$free_list@$$0GE@Vall"
	DCB	"ocator@ce@@@ce@@$$03V?$$static_allocator@V?$$free_list@$$"
	DCB	"0GE@Vallocator@ce@@@ce@@$$03@2@@ce@@1Ulock_factory@12@A "
	DCB	"-defaultlib:LIBCMT "
	DCB	"-defaultlib:OLDNAMES "

	EXPORT	|?AddRef@RefCount_t@@QAAJXZ|		; RefCount_t::AddRef
	EXPORT	|??_7DefaultBusChildContainer_t@@6B@| [ DATA ] ; DefaultBusChildContainer_t::`vftable'
	EXPORT	|??0?$list@PAVBusDriverChild_t@@Vallocator@ce@@@ce@@QAA@XZ| ; ce::list<BusDriverChild_t *,ce::allocator>::list<BusDriverChild_t *,ce::allocator>
	EXPORT	|??0DefaultBusChildContainer_t@@IAA@PAVBusDriver_t@@@Z| ; DefaultBusChildContainer_t::DefaultBusChildContainer_t
	EXPORT	|?Init@DefaultBusChildContainer_t@@UAAHPBG@Z| ; DefaultBusChildContainer_t::Init
	EXPORT	|?FindChildByName@DefaultBusChildContainer_t@@UAAPAVBusDriverChild_t@@PBG@Z| ; DefaultBusChildContainer_t::FindChildByName
	EXPORT	|?FindChildByDriverId@DefaultBusChildContainer_t@@UAAPAVBusDriverChild_t@@I@Z| ; DefaultBusChildContainer_t::FindChildByDriverId
	EXPORT	|?RemoveChild@DefaultBusChildContainer_t@@UAAXPAVBusDriverChild_t@@@Z| ; DefaultBusChildContainer_t::RemoveChild
	IMPORT	|??_EDefaultBusChildContainer_t@@MAAPAXI@Z|, WEAK |??_GDefaultBusChildContainer_t@@MAAPAXI@Z| ; DefaultBusChildContainer_t::`vector deleting destructor', DefaultBusChildContainer_t::`scalar deleting destructor'

  00000			 AREA	 |.pdata|, PDATA
|$T38879| DCD	|$LN5@DefaultBus|
	DCD	0x40001a04
; File c:\wince600\platform\common\src\soc\common_ti_v1\common_ti\bus\mdd\defaultbuschildcontainer.cpp

  00000			 AREA	 |.rdata|, DATA, READONLY
|??_7DefaultBusChildContainer_t@@6B@| DCD |??_EDefaultBusChildContainer_t@@MAAPAXI@Z| ; DefaultBusChildContainer_t::`vftable'
	DCD	|?Init@DefaultBusChildContainer_t@@UAAHPBG@Z|
	DCD	|?FindChildByName@DefaultBusChildContainer_t@@UAAPAVBusDriverChild_t@@PBG@Z|
	DCD	|?FindChildByDriverId@DefaultBusChildContainer_t@@UAAPAVBusDriverChild_t@@I@Z|
	DCD	|?RemoveChild@DefaultBusChildContainer_t@@UAAXPAVBusDriverChild_t@@@Z|
; Function compile flags: /Odtp

  00000			 AREA	 |.text|, CODE, ARM

  00000		 |??0DefaultBusChildContainer_t@@IAA@PAVBusDriver_t@@@Z| PROC ; DefaultBusChildContainer_t::DefaultBusChildContainer_t

; 25   : {

  00000		 |$LN5@DefaultBus|
  00000	e1a0c00d	 mov         r12, sp
  00004	e92d0003	 stmdb       sp!, {r0, r1}
  00008	e92d5000	 stmdb       sp!, {r12, lr}
  0000c	e24dd008	 sub         sp, sp, #8
  00010		 |$M38876|
  00010	e59d3010	 ldr         r3, [sp, #0x10]
  00014	e2830004	 add         r0, r3, #4
  00018	eb000000	 bl          |??0?$list@PAVBusDriverChild_t@@Vallocator@ce@@@ce@@QAA@XZ|
  0001c	e58d0004	 str         r0, [sp, #4]
  00020	e59f203c	 ldr         r2, [pc, #0x3C]
  00024	e59d3010	 ldr         r3, [sp, #0x10]
  00028	e5832000	 str         r2, [r3]
  0002c	e59d3010	 ldr         r3, [sp, #0x10]
  00030	e2832014	 add         r2, r3, #0x14
  00034	e59d3014	 ldr         r3, [sp, #0x14]
  00038	e5823000	 str         r3, [r2]

; 26   :     // We get copy of pointer
; 27   :     m_pBus->AddRef();

  0003c	e59d3010	 ldr         r3, [sp, #0x10]
  00040	e2833014	 add         r3, r3, #0x14
  00044	e5930000	 ldr         r0, [r3]
  00048	eb000000	 bl          |?AddRef@RefCount_t@@QAAJXZ|

; 28   : }

  0004c	e59d3010	 ldr         r3, [sp, #0x10]
  00050	e58d3000	 str         r3, [sp]
  00054	e59d0000	 ldr         r0, [sp]
  00058	e28dd008	 add         sp, sp, #8
  0005c	e89d6000	 ldmia       sp, {sp, lr}
  00060	e12fff1e	 bx          lr
  00064		 |$LN6@DefaultBus|
  00064		 |$LN7@DefaultBus|
  00064	00000000	 DCD         |??_7DefaultBusChildContainer_t@@6B@|
  00068		 |$M38877|

			 ENDP  ; |??0DefaultBusChildContainer_t@@IAA@PAVBusDriver_t@@@Z|, DefaultBusChildContainer_t::DefaultBusChildContainer_t

	IMPORT	|InterlockedIncrement|
; File c:\wince600\platform\common\src\soc\common_ti_v1\common_ti\bus\inc\driver.hxx

  00000			 AREA	 |.pdata|, PDATA
|$T38887| DCD	|$LN5@AddRef|
	DCD	0x40000e04
; Function compile flags: /Odtp

  00000			 AREA	 |.text|, CODE, ARM

  00000		 |?AddRef@RefCount_t@@QAAJXZ| PROC	; RefCount_t::AddRef

; 54   :         ) { 

  00000		 |$LN5@AddRef|
  00000	e1a0c00d	 mov         r12, sp
  00004	e92d0001	 stmdb       sp!, {r0}
  00008	e92d5000	 stmdb       sp!, {r12, lr}
  0000c	e24dd008	 sub         sp, sp, #8
  00010		 |$M38884|

; 55   :         return InterlockedIncrement(&m_refCount);

  00010	e59d3010	 ldr         r3, [sp, #0x10]
  00014	e2830004	 add         r0, r3, #4
  00018	eb000000	 bl          InterlockedIncrement
  0001c	e58d0004	 str         r0, [sp, #4]
  00020	e59d3004	 ldr         r3, [sp, #4]
  00024	e58d3000	 str         r3, [sp]

; 56   :         };

  00028	e59d0000	 ldr         r0, [sp]
  0002c	e28dd008	 add         sp, sp, #8
  00030	e89d6000	 ldmia       sp, {sp, lr}
  00034	e12fff1e	 bx          lr
  00038		 |$M38885|

			 ENDP  ; |?AddRef@RefCount_t@@QAAJXZ|, RefCount_t::AddRef

	EXPORT	|??1DefaultBusChildContainer_t@@MAA@XZ|	; DefaultBusChildContainer_t::~DefaultBusChildContainer_t
	IMPORT	|??3@YAXPAX@Z|				; operator delete

  00000			 AREA	 |.pdata|, PDATA
|$T38895| DCD	|$LN6@scalar|
	DCD	0x40001104
; Function compile flags: /Odtp

  00000			 AREA	 |.text|, CODE, ARM

  00000		 |??_GDefaultBusChildContainer_t@@MAAPAXI@Z| PROC ; DefaultBusChildContainer_t::`scalar deleting destructor'
  00000		 |$LN6@scalar|
  00000	e1a0c00d	 mov         r12, sp
  00004	e92d0003	 stmdb       sp!, {r0, r1}
  00008	e92d5000	 stmdb       sp!, {r12, lr}
  0000c	e24dd004	 sub         sp, sp, #4
  00010		 |$M38892|
  00010	e59d000c	 ldr         r0, [sp, #0xC]
  00014	eb000000	 bl          |??1DefaultBusChildContainer_t@@MAA@XZ|
  00018	e59d3010	 ldr         r3, [sp, #0x10]
  0001c	e3130001	 tst         r3, #1
  00020	0a000001	 beq         |$LN1@scalar|
  00024	e59d000c	 ldr         r0, [sp, #0xC]
  00028	eb000000	 bl          |??3@YAXPAX@Z|
  0002c		 |$LN1@scalar|
  0002c	e59d300c	 ldr         r3, [sp, #0xC]
  00030	e58d3000	 str         r3, [sp]
  00034	e59d0000	 ldr         r0, [sp]
  00038	e28dd004	 add         sp, sp, #4
  0003c	e89d6000	 ldmia       sp, {sp, lr}
  00040	e12fff1e	 bx          lr
  00044		 |$M38893|

			 ENDP  ; |??_GDefaultBusChildContainer_t@@MAAPAXI@Z|, DefaultBusChildContainer_t::`scalar deleting destructor'

	EXPORT	|??1?$list@PAVBusDriverChild_t@@Vallocator@ce@@@ce@@QAA@XZ| ; ce::list<BusDriverChild_t *,ce::allocator>::~list<BusDriverChild_t *,ce::allocator>
	EXPORT	|?Release@RefCount_t@@QAAJXZ|		; RefCount_t::Release

  00008			 AREA	 |.pdata|, PDATA
|$T38904| DCD	|$LN7@DefaultBus@2|
	DCD	0x40001a04
; Function compile flags: /Odtp
; File c:\wince600\platform\common\src\soc\common_ti_v1\common_ti\bus\mdd\defaultbuschildcontainer.cpp

  00068			 AREA	 |.text|, CODE, ARM

  00068		 |??1DefaultBusChildContainer_t@@MAA@XZ| PROC ; DefaultBusChildContainer_t::~DefaultBusChildContainer_t

; 37   : {

  00068		 |$LN7@DefaultBus@2|
  00068	e1a0c00d	 mov         r12, sp
  0006c	e92d0001	 stmdb       sp!, {r0}
  00070	e92d5000	 stmdb       sp!, {r12, lr}
  00074	e24dd004	 sub         sp, sp, #4
  00078		 |$M38901|
  00078	e59f204c	 ldr         r2, [pc, #0x4C]
  0007c	e59d300c	 ldr         r3, [sp, #0xC]
  00080	e5832000	 str         r2, [r3]

; 38   :     // We need to release reference
; 39   :     m_pBus->Release();

  00084	e59d300c	 ldr         r3, [sp, #0xC]
  00088	e2833014	 add         r3, r3, #0x14
  0008c	e5930000	 ldr         r0, [r3]
  00090	eb000000	 bl          |?Release@RefCount_t@@QAAJXZ|

; 40   : }

  00094	e59d300c	 ldr         r3, [sp, #0xC]
  00098	e3530000	 cmp         r3, #0
  0009c	0a000003	 beq         |$LN3@DefaultBus@2|
  000a0	e59d300c	 ldr         r3, [sp, #0xC]
  000a4	e2833004	 add         r3, r3, #4
  000a8	e58d3000	 str         r3, [sp]
  000ac	ea000001	 b           |$LN4@DefaultBus@2|
  000b0		 |$LN3@DefaultBus@2|
  000b0	e3a03000	 mov         r3, #0
  000b4	e58d3000	 str         r3, [sp]
  000b8		 |$LN4@DefaultBus@2|
  000b8	e59d0000	 ldr         r0, [sp]
  000bc	eb000000	 bl          |??1?$list@PAVBusDriverChild_t@@Vallocator@ce@@@ce@@QAA@XZ|
  000c0	e28dd004	 add         sp, sp, #4
  000c4	e89d6000	 ldmia       sp, {sp, lr}
  000c8	e12fff1e	 bx          lr
  000cc		 |$LN8@DefaultBus@2|
  000cc		 |$LN9@DefaultBus@2|
  000cc	00000000	 DCD         |??_7DefaultBusChildContainer_t@@6B@|
  000d0		 |$M38902|

			 ENDP  ; |??1DefaultBusChildContainer_t@@MAA@XZ|, DefaultBusChildContainer_t::~DefaultBusChildContainer_t

	IMPORT	|InterlockedDecrement|
; File c:\wince600\platform\common\src\soc\common_ti_v1\common_ti\bus\inc\driver.hxx

  00000			 AREA	 |.pdata|, PDATA
|$T38916| DCD	|$LN8@Release|
	DCD	0x40002704
; Function compile flags: /Odtp

  00000			 AREA	 |.text|, CODE, ARM

  00000		 |?Release@RefCount_t@@QAAJXZ| PROC	; RefCount_t::Release

; 59   :         ) {

  00000		 |$LN8@Release|
  00000	e1a0c00d	 mov         r12, sp
  00004	e92d0001	 stmdb       sp!, {r0}
  00008	e92d5000	 stmdb       sp!, {r12, lr}
  0000c	e24dd01c	 sub         sp, sp, #0x1C
  00010		 |$M38913|

; 60   :         LONG count = InterlockedDecrement(&m_refCount);

  00010	e59d3024	 ldr         r3, [sp, #0x24]
  00014	e2830004	 add         r0, r3, #4
  00018	eb000000	 bl          InterlockedDecrement
  0001c	e58d0010	 str         r0, [sp, #0x10]
  00020	e59d3010	 ldr         r3, [sp, #0x10]
  00024	e58d3000	 str         r3, [sp]

; 61   :         if (count <= 0) delete this;

  00028	e59d3000	 ldr         r3, [sp]
  0002c	e3530000	 cmp         r3, #0
  00030	ca000013	 bgt         |$LN1@Release|
  00034	e59d3024	 ldr         r3, [sp, #0x24]
  00038	e58d3008	 str         r3, [sp, #8]
  0003c	e59d3008	 ldr         r3, [sp, #8]
  00040	e58d3004	 str         r3, [sp, #4]
  00044	e59d3004	 ldr         r3, [sp, #4]
  00048	e3530000	 cmp         r3, #0
  0004c	0a00000a	 beq         |$LN4@Release|
  00050	e3a01001	 mov         r1, #1
  00054	e59d3004	 ldr         r3, [sp, #4]
  00058	e5933000	 ldr         r3, [r3]
  0005c	e59d0004	 ldr         r0, [sp, #4]
  00060	e5933000	 ldr         r3, [r3]
  00064	e1a0e00f	 mov         lr, pc
  00068	e12fff13	 bx          r3
  0006c	e58d0014	 str         r0, [sp, #0x14]
  00070	e59d3014	 ldr         r3, [sp, #0x14]
  00074	e58d3018	 str         r3, [sp, #0x18]
  00078	ea000001	 b           |$LN5@Release|
  0007c		 |$LN4@Release|
  0007c	e3a03000	 mov         r3, #0
  00080	e58d3018	 str         r3, [sp, #0x18]
  00084		 |$LN5@Release|
  00084		 |$LN1@Release|

; 62   :         return count;

  00084	e59d3000	 ldr         r3, [sp]
  00088	e58d300c	 str         r3, [sp, #0xC]

; 63   :         };

  0008c	e59d000c	 ldr         r0, [sp, #0xC]
  00090	e28dd01c	 add         sp, sp, #0x1C
  00094	e89d6000	 ldmia       sp, {sp, lr}
  00098	e12fff1e	 bx          lr
  0009c		 |$M38914|

			 ENDP  ; |?Release@RefCount_t@@QAAJXZ|, RefCount_t::Release

	EXPORT	|??1?$_string_t@G$0BA@U?$char_traits@G@ce@@Vallocator@2@@ce@@QAA@XZ| ; ce::_string_t<unsigned short,16,ce::char_traits<unsigned short>,ce::allocator>::~_string_t<unsigned short,16,ce::char_traits<unsigned short>,ce::allocator>
	EXPORT	|??1?$vector@KVallocator@ce@@U?$incremental_growth@$09@2@@ce@@QAA@XZ| ; ce::vector<unsigned long,ce::allocator,ce::incremental_growth<10> >::~vector<unsigned long,ce::allocator,ce::incremental_growth<10> >
	EXPORT	|??$insert@K@?$vector@KVallocator@ce@@U?$incremental_growth@$09@2@@ce@@QAAPAKPAKABK@Z| ; ce::vector<unsigned long,ce::allocator,ce::incremental_growth<10> >::insert<unsigned long>
	EXPORT	|??$insert@PAVBusDriverChild_t@@@?$list@PAVBusDriverChild_t@@Vallocator@ce@@@ce@@QAA?AViterator@01@V201@ABQAVBusDriverChild_t@@@Z| ; ce::list<BusDriverChild_t *,ce::allocator>::insert<BusDriverChild_t *>
	EXPORT	|??Eiterator@?$list@PAVBusDriverChild_t@@Vallocator@ce@@@ce@@QAA?AV012@H@Z| ; ce::list<BusDriverChild_t *,ce::allocator>::iterator::operator++
	EXPORT	|??9iterator@?$list@PAVBusDriverChild_t@@Vallocator@ce@@@ce@@QBA_NABV012@@Z| ; ce::list<BusDriverChild_t *,ce::allocator>::iterator::operator!=
	EXPORT	|?begin@?$vector@KVallocator@ce@@U?$incremental_growth@$09@2@@ce@@QAAPAKXZ| ; ce::vector<unsigned long,ce::allocator,ce::incremental_growth<10> >::begin
	EXPORT	|?end@?$list@PAVBusDriverChild_t@@Vallocator@ce@@@ce@@QAA?AViterator@12@XZ| ; ce::list<BusDriverChild_t *,ce::allocator>::end
	EXPORT	|?begin@?$list@PAVBusDriverChild_t@@Vallocator@ce@@@ce@@QAA?AViterator@12@XZ| ; ce::list<BusDriverChild_t *,ce::allocator>::begin
	EXPORT	|?RegQueryValue@ce@@YAJPAUHKEY__@@PBGAAKK@Z| ; ce::RegQueryValue
	EXPORT	|??_C@_1M@PJMPBMAL@?$AAO?$AAr?$AAd?$AAe?$AAr?$AA?$AA@| [ DATA ] ; `string'
	EXPORT	|??B?$_string_t@G$0BA@U?$char_traits@G@ce@@Vallocator@2@@ce@@QBAPBGXZ| ; ce::_string_t<unsigned short,16,ce::char_traits<unsigned short>,ce::allocator>::operator unsigned short const *
	EXPORT	|?insert@?$_string_t@G$0BA@U?$char_traits@G@ce@@Vallocator@2@@ce@@QAA_NIPBG@Z| ; ce::_string_t<unsigned short,16,ce::char_traits<unsigned short>,ce::allocator>::insert
	EXPORT	|??_C@_13FPGAJAPJ@?$AA?2?$AA?$AA@| [ DATA ] ; `string'
	EXPORT	|??$RegEnumKey@$0BA@U?$char_traits@G@ce@@Vallocator@2@@ce@@YAJPAUHKEY__@@KAAV?$_string_t@G$0BA@U?$char_traits@G@ce@@Vallocator@2@@0@@Z| ; ce::RegEnumKey<16,ce::char_traits<unsigned short>,ce::allocator>
	EXPORT	|?RegQueryInfoKeySubKeys@ce@@YAJPAUHKEY__@@AAK@Z| ; ce::RegQueryInfoKeySubKeys
	EXPORT	|??0?$vector@KVallocator@ce@@U?$incremental_growth@$09@2@@ce@@QAA@XZ| ; ce::vector<unsigned long,ce::allocator,ce::incremental_growth<10> >::vector<unsigned long,ce::allocator,ce::incremental_growth<10> >
	EXPORT	|??0?$_string_t@G$0BA@U?$char_traits@G@ce@@Vallocator@2@@ce@@QAA@XZ| ; ce::_string_t<unsigned short,16,ce::char_traits<unsigned short>,ce::allocator>::_string_t<unsigned short,16,ce::char_traits<unsigned short>,ce::allocator>
	EXPORT	|__$ArrayPad$| [ DATA ]
	IMPORT	|RegCloseKey|
	IMPORT	|RegOpenKeyExW|
	IMPORT	|__security_cookie|
	IMPORT	|__GSHandlerCheck|
	IMPORT	|__security_check_cookie|

  00010			 AREA	 |.pdata|, PDATA
|$T38934| DCD	|$LN19@Init|
	DCD	0xc000cd04
; File c:\wince600\platform\common\src\soc\common_ti_v1\common_ti\bus\mdd\defaultbuschildcontainer.cpp

  00000			 AREA	 |.rdata|, DATA, READONLY
|??_C@_1M@PJMPBMAL@?$AAO?$AAr?$AAd?$AAe?$AAr?$AA?$AA@| DCB "O", 0x0, "r", 0x0
	DCB	"d", 0x0, "e", 0x0, "r", 0x0, 0x0, 0x0	; `string'

  00000			 AREA	 |.rdata|, DATA, READONLY
|??_C@_13FPGAJAPJ@?$AA?2?$AA?$AA@| DCB "\\", 0x0, 0x0, 0x0 ; `string'

  00000			 AREA	 |.xdata|, DATA
|$T38930| DCD	0xffffffac
; Function compile flags: /Odtp

  000d0			 AREA	 |.text|, CODE, ARM

  000d0	00000000	 DCD         |__GSHandlerCheck|
  000d4	00000000	 DCD         |$T38930|

  000d8		 |?Init@DefaultBusChildContainer_t@@UAAHPBG@Z| PROC ; DefaultBusChildContainer_t::Init

; 51   : {

  000d8		 |$LN19@Init|
  000d8	e1a0c00d	 mov         r12, sp
  000dc	e92d0003	 stmdb       sp!, {r0, r1}
  000e0	e92d5000	 stmdb       sp!, {r12, lr}
  000e4	e24dd0bc	 sub         sp, sp, #0xBC
  000e8		 |$M38931|
  000e8	e59f3318	 ldr         r3, [pc, #0x318]
  000ec	e5933000	 ldr         r3, [r3]
  000f0	e58d3078	 str         r3, [sp, #0x78]

; 52   :     BOOL rc = FALSE;

  000f4	e3a03000	 mov         r3, #0
  000f8	e58d3004	 str         r3, [sp, #4]

; 53   :     HKEY hKey = NULL, hChildKey;

  000fc	e3a03000	 mov         r3, #0
  00100	e58d3008	 str         r3, [sp, #8]

; 54   :     LONG code;
; 55   :     DWORD subKeys;
; 56   :     ce::wstring keyName;

  00104	e28d0010	 add         r0, sp, #0x10
  00108	eb000000	 bl          |??0?$_string_t@G$0BA@U?$char_traits@G@ce@@Vallocator@2@@ce@@QAA@XZ|
  0010c	e58d0088	 str         r0, [sp, #0x88]

; 57   :     BusDriverChild_t* pChild;
; 58   :     ce::vector<DWORD> orders;

  00110	e28d0044	 add         r0, sp, #0x44
  00114	eb000000	 bl          |??0?$vector@KVallocator@ce@@U?$incremental_growth@$09@2@@ce@@QAA@XZ|
  00118	e58d008c	 str         r0, [sp, #0x8C]

; 59   :     DWORD order;
; 60   : 
; 61   : 
; 62   :     // Open template registry key
; 63   :     code = RegOpenKeyEx(
; 64   :         HKEY_LOCAL_MACHINE, busRegistryKey, 0, 0, &hKey
; 65   :         );

  0011c	e28d3008	 add         r3, sp, #8
  00120	e58d3000	 str         r3, [sp]
  00124	e3a03000	 mov         r3, #0
  00128	e3a02000	 mov         r2, #0
  0012c	e59d10c8	 ldr         r1, [sp, #0xC8]
  00130	e3a0010a	 mov         r0, #0xA, 2
  00134	eb000000	 bl          RegOpenKeyExW
  00138	e58d0090	 str         r0, [sp, #0x90]
  0013c	e59d3090	 ldr         r3, [sp, #0x90]
  00140	e58d3040	 str         r3, [sp, #0x40]

; 66   :     if (code != ERROR_SUCCESS)

  00144	e59d3040	 ldr         r3, [sp, #0x40]
  00148	e3530000	 cmp         r3, #0
  0014c	0a000000	 beq         |$LN14@Init|

; 67   :         {
; 68   :         goto cleanUp;

  00150	ea000097	 b           |$cleanUp$37607|
  00154		 |$LN14@Init|

; 69   :         }
; 70   : 
; 71   :     // Find number of subkeys
; 72   :     code = ce::RegQueryInfoKeySubKeys(hKey, subKeys);

  00154	e28d1050	 add         r1, sp, #0x50
  00158	e59d0008	 ldr         r0, [sp, #8]
  0015c	eb000000	 bl          |?RegQueryInfoKeySubKeys@ce@@YAJPAUHKEY__@@AAK@Z|
  00160	e58d0094	 str         r0, [sp, #0x94]
  00164	e59d3094	 ldr         r3, [sp, #0x94]
  00168	e58d3040	 str         r3, [sp, #0x40]

; 73   :     if (code != ERROR_SUCCESS)

  0016c	e59d3040	 ldr         r3, [sp, #0x40]
  00170	e3530000	 cmp         r3, #0
  00174	0a000000	 beq         |$LN12@Init|

; 74   :         {
; 75   :         goto cleanUp;

  00178	ea00008d	 b           |$cleanUp$37607|
  0017c		 |$LN12@Init|

; 76   :         }
; 77   : 
; 78   :     for (DWORD index = 0; index < subKeys; index++)

  0017c	e3a03000	 mov         r3, #0
  00180	e58d305c	 str         r3, [sp, #0x5C]
  00184	ea000002	 b           |$LN10@Init|
  00188		 |$LN9@Init|
  00188	e59d305c	 ldr         r3, [sp, #0x5C]
  0018c	e2833001	 add         r3, r3, #1
  00190	e58d305c	 str         r3, [sp, #0x5C]
  00194		 |$LN10@Init|
  00194	e59d205c	 ldr         r2, [sp, #0x5C]
  00198	e59d3050	 ldr         r3, [sp, #0x50]
  0019c	e1520003	 cmp         r2, r3
  001a0	2a000081	 bcs         |$LN8@Init|

; 79   :         {
; 80   :         // Get subkey name
; 81   :         code = ce::RegEnumKey(hKey, index, keyName);

  001a4	e28d2010	 add         r2, sp, #0x10
  001a8	e59d105c	 ldr         r1, [sp, #0x5C]
  001ac	e59d0008	 ldr         r0, [sp, #8]
  001b0	eb000000	 bl          |??$RegEnumKey@$0BA@U?$char_traits@G@ce@@Vallocator@2@@ce@@YAJPAUHKEY__@@KAAV?$_string_t@G$0BA@U?$char_traits@G@ce@@Vallocator@2@@0@@Z|
  001b4	e58d0098	 str         r0, [sp, #0x98]
  001b8	e59d3098	 ldr         r3, [sp, #0x98]
  001bc	e58d3040	 str         r3, [sp, #0x40]

; 82   :         if (code != ERROR_SUCCESS)

  001c0	e59d3040	 ldr         r3, [sp, #0x40]
  001c4	e3530000	 cmp         r3, #0
  001c8	0a000000	 beq         |$LN7@Init|

; 83   :             {
; 84   :             continue;

  001cc	eaffffed	 b           |$LN9@Init|
  001d0		 |$LN7@Init|

; 85   :             }
; 86   :         // Get full name
; 87   :         keyName.insert(0, L"\\");

  001d0	e59f222c	 ldr         r2, [pc, #0x22C]
  001d4	e3a01000	 mov         r1, #0
  001d8	e28d0010	 add         r0, sp, #0x10
  001dc	eb000000	 bl          |?insert@?$_string_t@G$0BA@U?$char_traits@G@ce@@Vallocator@2@@ce@@QAA_NIPBG@Z|

; 88   :         keyName.insert(0, busRegistryKey);                

  001e0	e59d20c8	 ldr         r2, [sp, #0xC8]
  001e4	e3a01000	 mov         r1, #0
  001e8	e28d0010	 add         r0, sp, #0x10
  001ec	eb000000	 bl          |?insert@?$_string_t@G$0BA@U?$char_traits@G@ce@@Vallocator@2@@ce@@QAA_NIPBG@Z|

; 89   : 
; 90   :         // Create child device object
; 91   :         pChild = m_pBus->CreateBusDeviceChild(keyName);

  001f0	e28d0010	 add         r0, sp, #0x10
  001f4	eb000000	 bl          |??B?$_string_t@G$0BA@U?$char_traits@G@ce@@Vallocator@2@@ce@@QBAPBGXZ|
  001f8	e58d009c	 str         r0, [sp, #0x9C]
  001fc	e59d109c	 ldr         r1, [sp, #0x9C]
  00200	e59d30c4	 ldr         r3, [sp, #0xC4]
  00204	e2833014	 add         r3, r3, #0x14
  00208	e5932000	 ldr         r2, [r3]
  0020c	e59d30c4	 ldr         r3, [sp, #0xC4]
  00210	e2833014	 add         r3, r3, #0x14
  00214	e5930000	 ldr         r0, [r3]
  00218	e5923000	 ldr         r3, [r2]
  0021c	e2833020	 add         r3, r3, #0x20
  00220	e5933000	 ldr         r3, [r3]
  00224	e1a0e00f	 mov         lr, pc
  00228	e12fff13	 bx          r3
  0022c	e58d00a0	 str         r0, [sp, #0xA0]
  00230	e59d30a0	 ldr         r3, [sp, #0xA0]
  00234	e58d300c	 str         r3, [sp, #0xC]

; 92   :         if (pChild == NULL)

  00238	e59d300c	 ldr         r3, [sp, #0xC]
  0023c	e3530000	 cmp         r3, #0
  00240	1a000000	 bne         |$LN6@Init|

; 93   :             {
; 94   :             continue;

  00244	eaffffcf	 b           |$LN9@Init|
  00248		 |$LN6@Init|

; 95   :             }
; 96   : 
; 97   :         // Initialize child device object
; 98   :         if (!pChild->Init(index, keyName))

  00248	e28d0010	 add         r0, sp, #0x10
  0024c	eb000000	 bl          |??B?$_string_t@G$0BA@U?$char_traits@G@ce@@Vallocator@2@@ce@@QBAPBGXZ|
  00250	e58d00a4	 str         r0, [sp, #0xA4]
  00254	e59d20a4	 ldr         r2, [sp, #0xA4]
  00258	e59d105c	 ldr         r1, [sp, #0x5C]
  0025c	e59d300c	 ldr         r3, [sp, #0xC]
  00260	e5933000	 ldr         r3, [r3]
  00264	e2833004	 add         r3, r3, #4
  00268	e59d000c	 ldr         r0, [sp, #0xC]
  0026c	e5933000	 ldr         r3, [r3]
  00270	e1a0e00f	 mov         lr, pc
  00274	e12fff13	 bx          r3
  00278	e58d00a8	 str         r0, [sp, #0xA8]
  0027c	e59d30a8	 ldr         r3, [sp, #0xA8]
  00280	e3530000	 cmp         r3, #0
  00284	1a000002	 bne         |$LN5@Init|

; 99   :             {
; 100  :             // This will result in delete
; 101  :             pChild->Release();

  00288	e59d000c	 ldr         r0, [sp, #0xC]
  0028c	eb000000	 bl          |?Release@RefCount_t@@QAAJXZ|

; 102  :             continue;

  00290	eaffffbc	 b           |$LN9@Init|
  00294		 |$LN5@Init|

; 103  :             }
; 104  : 
; 105  :         // Get load order information
; 106  :         code = RegOpenKeyEx(
; 107  :             HKEY_LOCAL_MACHINE, keyName, 0, 0, &hChildKey
; 108  :             );

  00294	e28d0010	 add         r0, sp, #0x10
  00298	eb000000	 bl          |??B?$_string_t@G$0BA@U?$char_traits@G@ce@@Vallocator@2@@ce@@QBAPBGXZ|
  0029c	e58d00ac	 str         r0, [sp, #0xAC]
  002a0	e28d3058	 add         r3, sp, #0x58
  002a4	e58d3000	 str         r3, [sp]
  002a8	e3a03000	 mov         r3, #0
  002ac	e3a02000	 mov         r2, #0
  002b0	e59d10ac	 ldr         r1, [sp, #0xAC]
  002b4	e3a0010a	 mov         r0, #0xA, 2
  002b8	eb000000	 bl          RegOpenKeyExW
  002bc	e58d00b0	 str         r0, [sp, #0xB0]
  002c0	e59d30b0	 ldr         r3, [sp, #0xB0]
  002c4	e58d3040	 str         r3, [sp, #0x40]

; 109  :         if (code != ERROR_SUCCESS)

  002c8	e59d3040	 ldr         r3, [sp, #0x40]
  002cc	e3530000	 cmp         r3, #0
  002d0	0a000002	 beq         |$LN4@Init|

; 110  :             {
; 111  :             // This will result in delete
; 112  :             pChild->Release();

  002d4	e59d000c	 ldr         r0, [sp, #0xC]
  002d8	eb000000	 bl          |?Release@RefCount_t@@QAAJXZ|

; 113  :             continue;

  002dc	eaffffa9	 b           |$LN9@Init|
  002e0		 |$LN4@Init|

; 114  :             }
; 115  :         // Get order value or use default one
; 116  :         ce::RegQueryValue(hChildKey, L"Order", order, 0xFFFFFFFF);

  002e0	e3e03000	 mvn         r3, #0
  002e4	e28d2054	 add         r2, sp, #0x54
  002e8	e59f1110	 ldr         r1, [pc, #0x110]
  002ec	e59d0058	 ldr         r0, [sp, #0x58]
  002f0	eb000000	 bl          |?RegQueryValue@ce@@YAJPAUHKEY__@@PBGAAKK@Z|

; 117  :         RegCloseKey(hChildKey);

  002f4	e59d0058	 ldr         r0, [sp, #0x58]
  002f8	eb000000	 bl          RegCloseKey

; 118  :         
; 119  :         // Add child object to array based on order 
; 120  :         iterator ppChild = begin();

  002fc	e28d1064	 add         r1, sp, #0x64
  00300	e59d30c4	 ldr         r3, [sp, #0xC4]
  00304	e2830004	 add         r0, r3, #4
  00308	eb000000	 bl          |?begin@?$list@PAVBusDriverChild_t@@Vallocator@ce@@@ce@@QAA?AViterator@12@XZ|

; 121  :         iterator ppChildEnd = end();

  0030c	e28d1068	 add         r1, sp, #0x68
  00310	e59d30c4	 ldr         r3, [sp, #0xC4]
  00314	e2830004	 add         r0, r3, #4
  00318	eb000000	 bl          |?end@?$list@PAVBusDriverChild_t@@Vallocator@ce@@@ce@@QAA?AViterator@12@XZ|

; 122  :         ce::vector<DWORD>::iterator pOrder = orders.begin();

  0031c	e28d0044	 add         r0, sp, #0x44
  00320	eb000000	 bl          |?begin@?$vector@KVallocator@ce@@U?$incremental_growth@$09@2@@ce@@QAAPAKXZ|
  00324	e58d00b4	 str         r0, [sp, #0xB4]
  00328	e59d30b4	 ldr         r3, [sp, #0xB4]
  0032c	e58d3060	 str         r3, [sp, #0x60]
  00330		 |$LN3@Init|

; 123  :         while ((ppChild != ppChildEnd) && (*pOrder <= order))

  00330	e28d1068	 add         r1, sp, #0x68
  00334	e28d0064	 add         r0, sp, #0x64
  00338	eb000000	 bl          |??9iterator@?$list@PAVBusDriverChild_t@@Vallocator@ce@@@ce@@QBA_NABV012@@Z|
  0033c	e5cd00b8	 strb        r0, [sp, #0xB8]
  00340	e5dd30b8	 ldrb        r3, [sp, #0xB8]
  00344	e3530000	 cmp         r3, #0
  00348	0a00000c	 beq         |$LN2@Init|
  0034c	e59d3060	 ldr         r3, [sp, #0x60]
  00350	e5932000	 ldr         r2, [r3]
  00354	e59d3054	 ldr         r3, [sp, #0x54]
  00358	e1520003	 cmp         r2, r3
  0035c	8a000007	 bhi         |$LN2@Init|

; 124  :             {
; 125  :             ppChild++;

  00360	e3a02000	 mov         r2, #0
  00364	e28d106c	 add         r1, sp, #0x6C
  00368	e28d0064	 add         r0, sp, #0x64
  0036c	eb000000	 bl          |??Eiterator@?$list@PAVBusDriverChild_t@@Vallocator@ce@@@ce@@QAA?AV012@H@Z|

; 126  :             pOrder++;

  00370	e59d3060	 ldr         r3, [sp, #0x60]
  00374	e2833004	 add         r3, r3, #4
  00378	e58d3060	 str         r3, [sp, #0x60]

; 127  :             }

  0037c	eaffffeb	 b           |$LN3@Init|
  00380		 |$LN2@Init|

; 128  : 
; 129  :         // Insert 
; 130  :         insert(ppChild, pChild);

  00380	e28d300c	 add         r3, sp, #0xC
  00384	e59d2064	 ldr         r2, [sp, #0x64]
  00388	e28d1070	 add         r1, sp, #0x70
  0038c	e59d00c4	 ldr         r0, [sp, #0xC4]
  00390	e2800004	 add         r0, r0, #4
  00394	eb000000	 bl          |??$insert@PAVBusDriverChild_t@@@?$list@PAVBusDriverChild_t@@Vallocator@ce@@@ce@@QAA?AViterator@01@V201@ABQAVBusDriverChild_t@@@Z|

; 131  :         orders.insert(pOrder, order);

  00398	e28d2054	 add         r2, sp, #0x54
  0039c	e59d1060	 ldr         r1, [sp, #0x60]
  003a0	e28d0044	 add         r0, sp, #0x44
  003a4	eb000000	 bl          |??$insert@K@?$vector@KVallocator@ce@@U?$incremental_growth@$09@2@@ce@@QAAPAKPAKABK@Z|

; 132  :         
; 133  :     }

  003a8	eaffff76	 b           |$LN9@Init|
  003ac		 |$LN8@Init|

; 134  :     
; 135  :     rc = TRUE;

  003ac	e3a03001	 mov         r3, #1
  003b0	e58d3004	 str         r3, [sp, #4]
  003b4		 |$cleanUp$37607|

; 136  :     
; 137  : cleanUp:
; 138  :     if (hKey != NULL) RegCloseKey(hKey);

  003b4	e59d3008	 ldr         r3, [sp, #8]
  003b8	e3530000	 cmp         r3, #0
  003bc	0a000001	 beq         |$LN1@Init|
  003c0	e59d0008	 ldr         r0, [sp, #8]
  003c4	eb000000	 bl          RegCloseKey
  003c8		 |$LN1@Init|

; 139  :     return rc;

  003c8	e59d3004	 ldr         r3, [sp, #4]
  003cc	e58d3074	 str         r3, [sp, #0x74]
  003d0	e28d0044	 add         r0, sp, #0x44
  003d4	eb000000	 bl          |??1?$vector@KVallocator@ce@@U?$incremental_growth@$09@2@@ce@@QAA@XZ|
  003d8	e28d0010	 add         r0, sp, #0x10
  003dc	eb000000	 bl          |??1?$_string_t@G$0BA@U?$char_traits@G@ce@@Vallocator@2@@ce@@QAA@XZ|
  003e0	e59d0078	 ldr         r0, [sp, #0x78]
  003e4	eb000000	 bl          __security_check_cookie
  003e8	e59d3074	 ldr         r3, [sp, #0x74]
  003ec	e58d3084	 str         r3, [sp, #0x84]

; 140  : }

  003f0	e59d0084	 ldr         r0, [sp, #0x84]
  003f4	e28dd0bc	 add         sp, sp, #0xBC
  003f8	e89d6000	 ldmia       sp, {sp, lr}
  003fc	e12fff1e	 bx          lr
  00400		 |$LN20@Init|
  00400		 |$LN21@Init|
  00400	00000000	 DCD         |??_C@_1M@PJMPBMAL@?$AAO?$AAr?$AAd?$AAe?$AAr?$AA?$AA@|
  00404		 |$LN22@Init|
  00404	00000000	 DCD         |??_C@_13FPGAJAPJ@?$AA?2?$AA?$AA@|
  00408		 |$LN23@Init|
  00408	00000000	 DCD         |__security_cookie|
  0040c		 |$M38932|

			 ENDP  ; |?Init@DefaultBusChildContainer_t@@UAAHPBG@Z|, DefaultBusChildContainer_t::Init

	IMPORT	|RegQueryValueExW|
; File c:\wince600\platform\common\src\soc\common_ti_v1\common_ti\bus\inc\registry.hxx

  00000			 AREA	 |.pdata|, PDATA
|$T38946| DCD	|$LN6@RegQueryVa|
	DCD	0x40001e04
; Function compile flags: /Odtp

  00000			 AREA	 |.text|, CODE, ARM

  00000		 |?RegQueryValue@ce@@YAJPAUHKEY__@@PBGAAKK@Z| PROC ; ce::RegQueryValue

; 31   : {

  00000		 |$LN6@RegQueryVa|
  00000	e1a0c00d	 mov         r12, sp
  00004	e92d000f	 stmdb       sp!, {r0 - r3}
  00008	e92d5000	 stmdb       sp!, {r12, lr}
  0000c	e24dd020	 sub         sp, sp, #0x20
  00010		 |$M38943|

; 32   :     LONG code;
; 33   :     DWORD size = sizeof(DWORD);

  00010	e3a03004	 mov         r3, #4
  00014	e58d300c	 str         r3, [sp, #0xC]

; 34   :     
; 35   :     code = RegQueryValueEx(
; 36   :         hKey, name, NULL, NULL, reinterpret_cast<BYTE*>(&value), &size
; 37   :         );

  00018	e28d300c	 add         r3, sp, #0xC
  0001c	e58d3004	 str         r3, [sp, #4]
  00020	e59d3030	 ldr         r3, [sp, #0x30]
  00024	e58d3000	 str         r3, [sp]
  00028	e3a03000	 mov         r3, #0
  0002c	e3a02000	 mov         r2, #0
  00030	e59d102c	 ldr         r1, [sp, #0x2C]
  00034	e59d0028	 ldr         r0, [sp, #0x28]
  00038	eb000000	 bl          RegQueryValueExW
  0003c	e58d001c	 str         r0, [sp, #0x1C]
  00040	e59d301c	 ldr         r3, [sp, #0x1C]
  00044	e58d3008	 str         r3, [sp, #8]

; 38   :     if (code != ERROR_SUCCESS) value = defaultValue;

  00048	e59d3008	 ldr         r3, [sp, #8]
  0004c	e3530000	 cmp         r3, #0
  00050	0a000002	 beq         |$LN1@RegQueryVa|
  00054	e59d2034	 ldr         r2, [sp, #0x34]
  00058	e59d3030	 ldr         r3, [sp, #0x30]
  0005c	e5832000	 str         r2, [r3]
  00060		 |$LN1@RegQueryVa|

; 39   :     return code;

  00060	e59d3008	 ldr         r3, [sp, #8]
  00064	e58d3018	 str         r3, [sp, #0x18]

; 40   : }

  00068	e59d0018	 ldr         r0, [sp, #0x18]
  0006c	e28dd020	 add         sp, sp, #0x20
  00070	e89d6000	 ldmia       sp, {sp, lr}
  00074	e12fff1e	 bx          lr
  00078		 |$M38944|

			 ENDP  ; |?RegQueryValue@ce@@YAJPAUHKEY__@@PBGAAKK@Z|, ce::RegQueryValue

	IMPORT	|RegQueryInfoKeyW|

  00000			 AREA	 |.pdata|, PDATA
|$T38962| DCD	|$LN5@RegQueryIn|
	DCD	0x40002004
; Function compile flags: /Odtp

  00000			 AREA	 |.text|, CODE, ARM

  00000		 |?RegQueryInfoKeySubKeys@ce@@YAJPAUHKEY__@@AAK@Z| PROC ; ce::RegQueryInfoKeySubKeys

; 85   : {

  00000		 |$LN5@RegQueryIn|
  00000	e1a0c00d	 mov         r12, sp
  00004	e92d0003	 stmdb       sp!, {r0, r1}
  00008	e92d5000	 stmdb       sp!, {r12, lr}
  0000c	e24dd048	 sub         sp, sp, #0x48
  00010		 |$M38959|

; 86   :     return RegQueryInfoKey(
; 87   :         hKey, NULL, NULL, NULL, &count, NULL, NULL, NULL, NULL, NULL, NULL, NULL
; 88   :         );

  00010	e3a03000	 mov         r3, #0
  00014	e58d301c	 str         r3, [sp, #0x1C]
  00018	e3a03000	 mov         r3, #0
  0001c	e58d3018	 str         r3, [sp, #0x18]
  00020	e3a03000	 mov         r3, #0
  00024	e58d3014	 str         r3, [sp, #0x14]
  00028	e3a03000	 mov         r3, #0
  0002c	e58d3010	 str         r3, [sp, #0x10]
  00030	e3a03000	 mov         r3, #0
  00034	e58d300c	 str         r3, [sp, #0xC]
  00038	e3a03000	 mov         r3, #0
  0003c	e58d3008	 str         r3, [sp, #8]
  00040	e3a03000	 mov         r3, #0
  00044	e58d3004	 str         r3, [sp, #4]
  00048	e59d3054	 ldr         r3, [sp, #0x54]
  0004c	e58d3000	 str         r3, [sp]
  00050	e3a03000	 mov         r3, #0
  00054	e3a02000	 mov         r2, #0
  00058	e3a01000	 mov         r1, #0
  0005c	e59d0050	 ldr         r0, [sp, #0x50]
  00060	eb000000	 bl          RegQueryInfoKeyW
  00064	e58d0044	 str         r0, [sp, #0x44]
  00068	e59d3044	 ldr         r3, [sp, #0x44]
  0006c	e58d3040	 str         r3, [sp, #0x40]

; 89   : }    

  00070	e59d0040	 ldr         r0, [sp, #0x40]
  00074	e28dd048	 add         sp, sp, #0x48
  00078	e89d6000	 ldmia       sp, {sp, lr}
  0007c	e12fff1e	 bx          lr
  00080		 |$M38960|

			 ENDP  ; |?RegQueryInfoKeySubKeys@ce@@YAJPAUHKEY__@@AAK@Z|, ce::RegQueryInfoKeySubKeys

	EXPORT	|??Diterator@?$list@PAVBusDriverChild_t@@Vallocator@ce@@@ce@@QBAAAPAVBusDriverChild_t@@XZ| ; ce::list<BusDriverChild_t *,ce::allocator>::iterator::operator*
	EXPORT	|??_C@_1M@KCNCFNNL@?$AA$?$AAb?$AAu?$AAs?$AA?2?$AA?$AA@| [ DATA ] ; `string'
	IMPORT	|_wcsicmp|
	IMPORT	|_wcsnicmp|

  00018			 AREA	 |.pdata|, PDATA
|$T38974| DCD	|$LN11@FindChildB|
	DCD	0x40005604
; File c:\wince600\platform\common\src\soc\common_ti_v1\common_ti\bus\mdd\defaultbuschildcontainer.cpp

  00000			 AREA	 |.rdata|, DATA, READONLY
|??_C@_1M@KCNCFNNL@?$AA$?$AAb?$AAu?$AAs?$AA?2?$AA?$AA@| DCB "$$", 0x0, "b"
	DCB	0x0, "u", 0x0, "s", 0x0, "\\", 0x0, 0x0, 0x0 ; `string'
; Function compile flags: /Odtp

  0040c			 AREA	 |.text|, CODE, ARM

  0040c		 |?FindChildByName@DefaultBusChildContainer_t@@UAAPAVBusDriverChild_t@@PBG@Z| PROC ; DefaultBusChildContainer_t::FindChildByName

; 151  : {

  0040c		 |$LN11@FindChildB|
  0040c	e1a0c00d	 mov         r12, sp
  00410	e92d0003	 stmdb       sp!, {r0, r1}
  00414	e92d5000	 stmdb       sp!, {r12, lr}
  00418	e24dd040	 sub         sp, sp, #0x40
  0041c		 |$M38971|

; 152  :     BusDriverChild_t *pChild = NULL;

  0041c	e3a03000	 mov         r3, #0
  00420	e58d3000	 str         r3, [sp]

; 153  :     DWORD offset;
; 154  : 
; 155  :     offset = (wcsnicmp(deviceName, L"$bus\\", 5) == 0) ? 5 : 0;

  00424	e3a02005	 mov         r2, #5
  00428	e59f1130	 ldr         r1, [pc, #0x130]
  0042c	e59d004c	 ldr         r0, [sp, #0x4C]
  00430	eb000000	 bl          _wcsnicmp
  00434	e58d001c	 str         r0, [sp, #0x1C]
  00438	e59d301c	 ldr         r3, [sp, #0x1C]
  0043c	e3530000	 cmp         r3, #0
  00440	1a000002	 bne         |$LN7@FindChildB|
  00444	e3a03005	 mov         r3, #5
  00448	e58d3020	 str         r3, [sp, #0x20]
  0044c	ea000001	 b           |$LN8@FindChildB|
  00450		 |$LN7@FindChildB|
  00450	e3a03000	 mov         r3, #0
  00454	e58d3020	 str         r3, [sp, #0x20]
  00458		 |$LN8@FindChildB|
  00458	e59d3020	 ldr         r3, [sp, #0x20]
  0045c	e58d3004	 str         r3, [sp, #4]

; 156  : 
; 157  :     // Look for device by walking through list
; 158  :     for (iterator ppChild = begin(); ppChild != end(); ppChild++)

  00460	e28d1008	 add         r1, sp, #8
  00464	e59d3048	 ldr         r3, [sp, #0x48]
  00468	e2830004	 add         r0, r3, #4
  0046c	eb000000	 bl          |?begin@?$list@PAVBusDriverChild_t@@Vallocator@ce@@@ce@@QAA?AViterator@12@XZ|
  00470	ea000003	 b           |$LN4@FindChildB|
  00474		 |$LN3@FindChildB|
  00474	e3a02000	 mov         r2, #0
  00478	e28d1010	 add         r1, sp, #0x10
  0047c	e28d0008	 add         r0, sp, #8
  00480	eb000000	 bl          |??Eiterator@?$list@PAVBusDriverChild_t@@Vallocator@ce@@@ce@@QAA?AV012@H@Z|
  00484		 |$LN4@FindChildB|
  00484	e28d1014	 add         r1, sp, #0x14
  00488	e59d3048	 ldr         r3, [sp, #0x48]
  0048c	e2830004	 add         r0, r3, #4
  00490	eb000000	 bl          |?end@?$list@PAVBusDriverChild_t@@Vallocator@ce@@@ce@@QAA?AViterator@12@XZ|
  00494	e58d0024	 str         r0, [sp, #0x24]
  00498	e59d1024	 ldr         r1, [sp, #0x24]
  0049c	e28d0008	 add         r0, sp, #8
  004a0	eb000000	 bl          |??9iterator@?$list@PAVBusDriverChild_t@@Vallocator@ce@@@ce@@QBA_NABV012@@Z|
  004a4	e5cd0028	 strb        r0, [sp, #0x28]
  004a8	e5dd3028	 ldrb        r3, [sp, #0x28]
  004ac	e3530000	 cmp         r3, #0
  004b0	0a000024	 beq         |$LN2@FindChildB|

; 159  :         {
; 160  :         LPCWSTR childName = (*ppChild)->DeviceName();

  004b4	e28d0008	 add         r0, sp, #8
  004b8	eb000000	 bl          |??Diterator@?$list@PAVBusDriverChild_t@@Vallocator@ce@@@ce@@QBAAAPAVBusDriverChild_t@@XZ|
  004bc	e58d002c	 str         r0, [sp, #0x2C]
  004c0	e59d302c	 ldr         r3, [sp, #0x2C]
  004c4	e5933000	 ldr         r3, [r3]
  004c8	e58d3030	 str         r3, [sp, #0x30]
  004cc	e59d3030	 ldr         r3, [sp, #0x30]
  004d0	e5933000	 ldr         r3, [r3]
  004d4	e283300c	 add         r3, r3, #0xC
  004d8	e59d0030	 ldr         r0, [sp, #0x30]
  004dc	e5933000	 ldr         r3, [r3]
  004e0	e1a0e00f	 mov         lr, pc
  004e4	e12fff13	 bx          r3
  004e8	e58d0034	 str         r0, [sp, #0x34]
  004ec	e59d3034	 ldr         r3, [sp, #0x34]
  004f0	e58d300c	 str         r3, [sp, #0xC]

; 161  : 
; 162  :         if (wcsicmp(childName, &deviceName[offset]) == 0) 

  004f4	e59d1004	 ldr         r1, [sp, #4]
  004f8	e3a03002	 mov         r3, #2
  004fc	e0020391	 mul         r2, r1, r3
  00500	e59d304c	 ldr         r3, [sp, #0x4C]
  00504	e0831002	 add         r1, r3, r2
  00508	e59d000c	 ldr         r0, [sp, #0xC]
  0050c	eb000000	 bl          _wcsicmp
  00510	e58d0038	 str         r0, [sp, #0x38]
  00514	e59d3038	 ldr         r3, [sp, #0x38]
  00518	e3530000	 cmp         r3, #0
  0051c	1a000008	 bne         |$LN1@FindChildB|

; 163  :             {
; 164  :             // Following the rule of COM.  Since we are returning a 
; 165  :             // pointer to an object we need to perform the addref
; 166  :             // and client needs to perform the release.
; 167  :             pChild = *ppChild;

  00520	e28d0008	 add         r0, sp, #8
  00524	eb000000	 bl          |??Diterator@?$list@PAVBusDriverChild_t@@Vallocator@ce@@@ce@@QBAAAPAVBusDriverChild_t@@XZ|
  00528	e58d003c	 str         r0, [sp, #0x3C]
  0052c	e59d303c	 ldr         r3, [sp, #0x3C]
  00530	e5933000	 ldr         r3, [r3]
  00534	e58d3000	 str         r3, [sp]

; 168  :             pChild->AddRef();

  00538	e59d0000	 ldr         r0, [sp]
  0053c	eb000000	 bl          |?AddRef@RefCount_t@@QAAJXZ|

; 169  :             break;

  00540	ea000000	 b           |$LN2@FindChildB|
  00544		 |$LN1@FindChildB|

; 170  :             }
; 171  :         }

  00544	eaffffca	 b           |$LN3@FindChildB|
  00548		 |$LN2@FindChildB|

; 172  :         
; 173  :     return pChild;

  00548	e59d3000	 ldr         r3, [sp]
  0054c	e58d3018	 str         r3, [sp, #0x18]

; 174  : }

  00550	e59d0018	 ldr         r0, [sp, #0x18]
  00554	e28dd040	 add         sp, sp, #0x40
  00558	e89d6000	 ldmia       sp, {sp, lr}
  0055c	e12fff1e	 bx          lr
  00560		 |$LN12@FindChildB|
  00560		 |$LN13@FindChildB|
  00560	00000000	 DCD         |??_C@_1M@KCNCFNNL@?$AA$?$AAb?$AAu?$AAs?$AA?2?$AA?$AA@|
  00564		 |$M38972|

			 ENDP  ; |?FindChildByName@DefaultBusChildContainer_t@@UAAPAVBusDriverChild_t@@PBG@Z|, DefaultBusChildContainer_t::FindChildByName


  00020			 AREA	 |.pdata|, PDATA
|$T38984| DCD	|$LN9@FindChildB@2|
	DCD	0x40003d04
; Function compile flags: /Odtp

  00564			 AREA	 |.text|, CODE, ARM

  00564		 |?FindChildByDriverId@DefaultBusChildContainer_t@@UAAPAVBusDriverChild_t@@I@Z| PROC ; DefaultBusChildContainer_t::FindChildByDriverId

; 185  : {

  00564		 |$LN9@FindChildB@2|
  00564	e1a0c00d	 mov         r12, sp
  00568	e92d0003	 stmdb       sp!, {r0, r1}
  0056c	e92d5000	 stmdb       sp!, {r12, lr}
  00570	e24dd02c	 sub         sp, sp, #0x2C
  00574		 |$M38981|

; 186  :     BusDriverChild_t *pChild = NULL;

  00574	e3a03000	 mov         r3, #0
  00578	e58d3000	 str         r3, [sp]

; 187  : 
; 188  :     // Look for device by walking through list
; 189  :     for (iterator ppChild = begin(); ppChild != end(); ppChild++)

  0057c	e28d1004	 add         r1, sp, #4
  00580	e59d3034	 ldr         r3, [sp, #0x34]
  00584	e2830004	 add         r0, r3, #4
  00588	eb000000	 bl          |?begin@?$list@PAVBusDriverChild_t@@Vallocator@ce@@@ce@@QAA?AViterator@12@XZ|
  0058c	ea000003	 b           |$LN4@FindChildB@2|
  00590		 |$LN3@FindChildB@2|
  00590	e3a02000	 mov         r2, #0
  00594	e28d1008	 add         r1, sp, #8
  00598	e28d0004	 add         r0, sp, #4
  0059c	eb000000	 bl          |??Eiterator@?$list@PAVBusDriverChild_t@@Vallocator@ce@@@ce@@QAA?AV012@H@Z|
  005a0		 |$LN4@FindChildB@2|
  005a0	e28d100c	 add         r1, sp, #0xC
  005a4	e59d3034	 ldr         r3, [sp, #0x34]
  005a8	e2830004	 add         r0, r3, #4
  005ac	eb000000	 bl          |?end@?$list@PAVBusDriverChild_t@@Vallocator@ce@@@ce@@QAA?AViterator@12@XZ|
  005b0	e58d0014	 str         r0, [sp, #0x14]
  005b4	e59d1014	 ldr         r1, [sp, #0x14]
  005b8	e28d0004	 add         r0, sp, #4
  005bc	eb000000	 bl          |??9iterator@?$list@PAVBusDriverChild_t@@Vallocator@ce@@@ce@@QBA_NABV012@@Z|
  005c0	e5cd0018	 strb        r0, [sp, #0x18]
  005c4	e5dd3018	 ldrb        r3, [sp, #0x18]
  005c8	e3530000	 cmp         r3, #0
  005cc	0a00001b	 beq         |$LN2@FindChildB@2|

; 190  :         {
; 191  :         if ((*ppChild)->DriverId() == driverId) 

  005d0	e28d0004	 add         r0, sp, #4
  005d4	eb000000	 bl          |??Diterator@?$list@PAVBusDriverChild_t@@Vallocator@ce@@@ce@@QBAAAPAVBusDriverChild_t@@XZ|
  005d8	e58d001c	 str         r0, [sp, #0x1C]
  005dc	e59d301c	 ldr         r3, [sp, #0x1C]
  005e0	e5933000	 ldr         r3, [r3]
  005e4	e58d3020	 str         r3, [sp, #0x20]
  005e8	e59d3020	 ldr         r3, [sp, #0x20]
  005ec	e5933000	 ldr         r3, [r3]
  005f0	e2833008	 add         r3, r3, #8
  005f4	e59d0020	 ldr         r0, [sp, #0x20]
  005f8	e5933000	 ldr         r3, [r3]
  005fc	e1a0e00f	 mov         lr, pc
  00600	e12fff13	 bx          r3
  00604	e58d0024	 str         r0, [sp, #0x24]
  00608	e59d2024	 ldr         r2, [sp, #0x24]
  0060c	e59d3038	 ldr         r3, [sp, #0x38]
  00610	e1520003	 cmp         r2, r3
  00614	1a000008	 bne         |$LN1@FindChildB@2|

; 192  :             {
; 193  :             // Following the rule of COM.  Since we are returning a 
; 194  :             // pointer to an object we need to perform the addref
; 195  :             // and client needs to perform the release.
; 196  :             pChild = *ppChild;

  00618	e28d0004	 add         r0, sp, #4
  0061c	eb000000	 bl          |??Diterator@?$list@PAVBusDriverChild_t@@Vallocator@ce@@@ce@@QBAAAPAVBusDriverChild_t@@XZ|
  00620	e58d0028	 str         r0, [sp, #0x28]
  00624	e59d3028	 ldr         r3, [sp, #0x28]
  00628	e5933000	 ldr         r3, [r3]
  0062c	e58d3000	 str         r3, [sp]

; 197  :             pChild->AddRef();

  00630	e59d0000	 ldr         r0, [sp]
  00634	eb000000	 bl          |?AddRef@RefCount_t@@QAAJXZ|

; 198  :             break;

  00638	ea000000	 b           |$LN2@FindChildB@2|
  0063c		 |$LN1@FindChildB@2|

; 199  :             }
; 200  :         }

  0063c	eaffffd3	 b           |$LN3@FindChildB@2|
  00640		 |$LN2@FindChildB@2|

; 201  :         
; 202  :     return pChild;

  00640	e59d3000	 ldr         r3, [sp]
  00644	e58d3010	 str         r3, [sp, #0x10]

; 203  : }

  00648	e59d0010	 ldr         r0, [sp, #0x10]
  0064c	e28dd02c	 add         sp, sp, #0x2C
  00650	e89d6000	 ldmia       sp, {sp, lr}
  00654	e12fff1e	 bx          lr
  00658		 |$M38982|

			 ENDP  ; |?FindChildByDriverId@DefaultBusChildContainer_t@@UAAPAVBusDriverChild_t@@I@Z|, DefaultBusChildContainer_t::FindChildByDriverId

	EXPORT	|??Eiterator@?$list@PAVBusDriverChild_t@@Vallocator@ce@@@ce@@QAAAAV012@XZ| ; ce::list<BusDriverChild_t *,ce::allocator>::iterator::operator++
	EXPORT	|?erase@?$list@PAVBusDriverChild_t@@Vallocator@ce@@@ce@@QAA?AViterator@12@V312@@Z| ; ce::list<BusDriverChild_t *,ce::allocator>::erase

  00028			 AREA	 |.pdata|, PDATA
|$T38991| DCD	|$LN8@RemoveChil|
	DCD	0x40002a04
; Function compile flags: /Odtp

  00658			 AREA	 |.text|, CODE, ARM

  00658		 |?RemoveChild@DefaultBusChildContainer_t@@UAAXPAVBusDriverChild_t@@@Z| PROC ; DefaultBusChildContainer_t::RemoveChild

; 214  : {

  00658		 |$LN8@RemoveChil|
  00658	e1a0c00d	 mov         r12, sp
  0065c	e92d0003	 stmdb       sp!, {r0, r1}
  00660	e92d5000	 stmdb       sp!, {r12, lr}
  00664	e24dd018	 sub         sp, sp, #0x18
  00668		 |$M38988|

; 215  :     iterator it = begin();

  00668	e28d1000	 add         r1, sp, #0
  0066c	e59d3020	 ldr         r3, [sp, #0x20]
  00670	e2830004	 add         r0, r3, #4
  00674	eb000000	 bl          |?begin@?$list@PAVBusDriverChild_t@@Vallocator@ce@@@ce@@QAA?AViterator@12@XZ|
  00678		 |$LN3@RemoveChil|

; 216  :     while(it != end())

  00678	e28d1004	 add         r1, sp, #4
  0067c	e59d3020	 ldr         r3, [sp, #0x20]
  00680	e2830004	 add         r0, r3, #4
  00684	eb000000	 bl          |?end@?$list@PAVBusDriverChild_t@@Vallocator@ce@@@ce@@QAA?AViterator@12@XZ|
  00688	e58d000c	 str         r0, [sp, #0xC]
  0068c	e59d100c	 ldr         r1, [sp, #0xC]
  00690	e28d0000	 add         r0, sp, #0
  00694	eb000000	 bl          |??9iterator@?$list@PAVBusDriverChild_t@@Vallocator@ce@@@ce@@QBA_NABV012@@Z|
  00698	e5cd0010	 strb        r0, [sp, #0x10]
  0069c	e5dd3010	 ldrb        r3, [sp, #0x10]
  006a0	e3530000	 cmp         r3, #0
  006a4	0a000012	 beq         |$LN2@RemoveChil|

; 217  :         {
; 218  :         if (*it == pChild)

  006a8	e28d0000	 add         r0, sp, #0
  006ac	eb000000	 bl          |??Diterator@?$list@PAVBusDriverChild_t@@Vallocator@ce@@@ce@@QBAAAPAVBusDriverChild_t@@XZ|
  006b0	e58d0014	 str         r0, [sp, #0x14]
  006b4	e59d3014	 ldr         r3, [sp, #0x14]
  006b8	e5932000	 ldr         r2, [r3]
  006bc	e59d3024	 ldr         r3, [sp, #0x24]
  006c0	e1520003	 cmp         r2, r3
  006c4	1a000007	 bne         |$LN1@RemoveChil|

; 219  :             {
; 220  :             erase(it);

  006c8	e59d2000	 ldr         r2, [sp]
  006cc	e28d1008	 add         r1, sp, #8
  006d0	e59d3020	 ldr         r3, [sp, #0x20]
  006d4	e2830004	 add         r0, r3, #4
  006d8	eb000000	 bl          |?erase@?$list@PAVBusDriverChild_t@@Vallocator@ce@@@ce@@QAA?AViterator@12@V312@@Z|

; 221  :             pChild->Release();

  006dc	e59d0024	 ldr         r0, [sp, #0x24]
  006e0	eb000000	 bl          |?Release@RefCount_t@@QAAJXZ|

; 222  :             break;

  006e4	ea000002	 b           |$LN2@RemoveChil|
  006e8		 |$LN1@RemoveChil|

; 223  :             }
; 224  :         ++it;

  006e8	e28d0000	 add         r0, sp, #0
  006ec	eb000000	 bl          |??Eiterator@?$list@PAVBusDriverChild_t@@Vallocator@ce@@@ce@@QAAAAV012@XZ|

; 225  :         }

  006f0	eaffffe0	 b           |$LN3@RemoveChil|
  006f4		 |$LN2@RemoveChil|

; 226  : }

  006f4	e28dd018	 add         sp, sp, #0x18
  006f8	e89d6000	 ldmia       sp, {sp, lr}
  006fc	e12fff1e	 bx          lr
  00700		 |$M38989|

			 ENDP  ; |?RemoveChild@DefaultBusChildContainer_t@@UAAXPAVBusDriverChild_t@@@Z|, DefaultBusChildContainer_t::RemoveChild

	EXPORT	|??_C@_1NE@DLHOEDJM@?$AA?$AN?$AA?6?$AA?$CK?$AA?$CK?$AA?$CK?$AA?5?$AAA?$AAS?$AAS?$AAE?$AAR?$AAT?$AAI?$AAO?$AAN?$AA?5?$AAF?$AAA?$AAI?$AAL?$AAE?$AAD?$AA?5?$AAi?$AAn?$AA?5?$AAC?$AA?3?$AA?2?$AAW?$AAI?$AAN@| [ DATA ] ; `string'
	EXPORT	|??_C@_1NE@EMMCPGHA@?$AA?$AN?$AA?6?$AA?$CK?$AA?$CK?$AA?$CK?$AA?5?$AAA?$AAS?$AAS?$AAE?$AAR?$AAT?$AAI?$AAO?$AAN?$AA?5?$AAF?$AAA?$AAI?$AAL?$AAE?$AAD?$AA?5?$AAi?$AAn?$AA?5?$AAC?$AA?3?$AA?2?$AAW?$AAI?$AAN@| [ DATA ] ; `string'
	IMPORT	|OutputDebugStringW|
; File c:\wince600\public\common\oak\inc\list.hxx

  00000			 AREA	 |.pdata|, PDATA
|$T38999| DCD	|$LN7@list|
	DCD	0x40003704

  00000			 AREA	 |.rdata|, DATA, READONLY
|??_C@_1NE@DLHOEDJM@?$AA?$AN?$AA?6?$AA?$CK?$AA?$CK?$AA?$CK?$AA?5?$AAA?$AAS?$AAS?$AAE?$AAR?$AAT?$AAI?$AAO?$AAN?$AA?5?$AAF?$AAA?$AAI?$AAL?$AAE?$AAD?$AA?5?$AAi?$AAn?$AA?5?$AAC?$AA?3?$AA?2?$AAW?$AAI?$AAN@| DCB 0xd
	DCB	0x0, 0xa, 0x0, "*", 0x0, "*", 0x0, "*", 0x0, " ", 0x0, "A"
	DCB	0x0, "S", 0x0, "S", 0x0, "E", 0x0, "R", 0x0, "T", 0x0, "I"
	DCB	0x0, "O", 0x0, "N", 0x0, " ", 0x0, "F", 0x0, "A", 0x0, "I"
	DCB	0x0, "L", 0x0, "E", 0x0, "D", 0x0, " ", 0x0, "i", 0x0, "n"
	DCB	0x0, " ", 0x0, "C", 0x0, ":", 0x0, "\\", 0x0, "W", 0x0, "I"
	DCB	0x0, "N", 0x0, "C", 0x0, "E", 0x0, "6", 0x0, "0", 0x0, "0"
	DCB	0x0, "\\", 0x0, "p", 0x0, "u", 0x0, "b", 0x0, "l", 0x0, "i"
	DCB	0x0, "c", 0x0, "\\", 0x0, "c", 0x0, "o", 0x0, "m", 0x0, "m"
	DCB	0x0, "o", 0x0, "n", 0x0, "\\", 0x0, "o", 0x0, "a", 0x0, "k"
	DCB	0x0, "\\", 0x0, "i", 0x0, "n", 0x0, "c", 0x0, "\\", 0x0, "l"
	DCB	0x0, "i", 0x0, "s", 0x0, "t", 0x0, ".", 0x0, "h", 0x0, "x"
	DCB	0x0, "x", 0x0, "(", 0x0, "1", 0x0, "8", 0x0, "0", 0x0, ")"
	DCB	0x0, ":", 0x0, 0xd, 0x0, 0xa, 0x0, "&", 0x0, "_", 0x0, "H"
	DCB	0x0, "e", 0x0, "a", 0x0, "d", 0x0, "-", 0x0, ">", 0x0, "_"
	DCB	0x0, "N", 0x0, "e", 0x0, "x", 0x0, "t", 0x0, " ", 0x0, "="
	DCB	0x0, "=", 0x0, " ", 0x0, "&", 0x0, "_", 0x0, "H", 0x0, "e"
	DCB	0x0, "a", 0x0, "d", 0x0, "N", 0x0, "e", 0x0, "x", 0x0, "t"
	DCB	0x0, 0xd, 0x0, 0xa, 0x0, 0x0, 0x0	; `string'

  00000			 AREA	 |.rdata|, DATA, READONLY
|??_C@_1NE@EMMCPGHA@?$AA?$AN?$AA?6?$AA?$CK?$AA?$CK?$AA?$CK?$AA?5?$AAA?$AAS?$AAS?$AAE?$AAR?$AAT?$AAI?$AAO?$AAN?$AA?5?$AAF?$AAA?$AAI?$AAL?$AAE?$AAD?$AA?5?$AAi?$AAn?$AA?5?$AAC?$AA?3?$AA?2?$AAW?$AAI?$AAN@| DCB 0xd
	DCB	0x0, 0xa, 0x0, "*", 0x0, "*", 0x0, "*", 0x0, " ", 0x0, "A"
	DCB	0x0, "S", 0x0, "S", 0x0, "E", 0x0, "R", 0x0, "T", 0x0, "I"
	DCB	0x0, "O", 0x0, "N", 0x0, " ", 0x0, "F", 0x0, "A", 0x0, "I"
	DCB	0x0, "L", 0x0, "E", 0x0, "D", 0x0, " ", 0x0, "i", 0x0, "n"
	DCB	0x0, " ", 0x0, "C", 0x0, ":", 0x0, "\\", 0x0, "W", 0x0, "I"
	DCB	0x0, "N", 0x0, "C", 0x0, "E", 0x0, "6", 0x0, "0", 0x0, "0"
	DCB	0x0, "\\", 0x0, "p", 0x0, "u", 0x0, "b", 0x0, "l", 0x0, "i"
	DCB	0x0, "c", 0x0, "\\", 0x0, "c", 0x0, "o", 0x0, "m", 0x0, "m"
	DCB	0x0, "o", 0x0, "n", 0x0, "\\", 0x0, "o", 0x0, "a", 0x0, "k"
	DCB	0x0, "\\", 0x0, "i", 0x0, "n", 0x0, "c", 0x0, "\\", 0x0, "l"
	DCB	0x0, "i", 0x0, "s", 0x0, "t", 0x0, ".", 0x0, "h", 0x0, "x"
	DCB	0x0, "x", 0x0, "(", 0x0, "1", 0x0, "7", 0x0, "9", 0x0, ")"
	DCB	0x0, ":", 0x0, 0xd, 0x0, 0xa, 0x0, "&", 0x0, "_", 0x0, "H"
	DCB	0x0, "e", 0x0, "a", 0x0, "d", 0x0, "-", 0x0, ">", 0x0, "_"
	DCB	0x0, "P", 0x0, "r", 0x0, "e", 0x0, "v", 0x0, " ", 0x0, "="
	DCB	0x0, "=", 0x0, " ", 0x0, "&", 0x0, "_", 0x0, "H", 0x0, "e"
	DCB	0x0, "a", 0x0, "d", 0x0, "P", 0x0, "r", 0x0, "e", 0x0, "v"
	DCB	0x0, 0xd, 0x0, 0xa, 0x0, 0x0, 0x0	; `string'
; Function compile flags: /Odtp

  00000			 AREA	 |.text|, CODE, ARM

  00000		 |??0?$list@PAVBusDriverChild_t@@Vallocator@ce@@@ce@@QAA@XZ| PROC ; ce::list<BusDriverChild_t *,ce::allocator>::list<BusDriverChild_t *,ce::allocator>

; 177  :     {

  00000		 |$LN7@list|
  00000	e1a0c00d	 mov         r12, sp
  00004	e92d0001	 stmdb       sp!, {r0}
  00008	e92d5000	 stmdb       sp!, {r12, lr}
  0000c	e24dd004	 sub         sp, sp, #4
  00010		 |$M38996|
  00010	e59d300c	 ldr         r3, [sp, #0xC]
  00014	e2833004	 add         r3, r3, #4
  00018	e2432004	 sub         r2, r3, #4
  0001c	e59d300c	 ldr         r3, [sp, #0xC]
  00020	e5832000	 str         r2, [r3]
  00024	e59d300c	 ldr         r3, [sp, #0xC]
  00028	e283200c	 add         r2, r3, #0xC
  0002c	e3a03000	 mov         r3, #0
  00030	e5823000	 str         r3, [r2]

; 178  :         // _HeadPrev and _HeadNext must have the same sizes and relative layout as _Node::_Prev and _Node::_Next
; 179  :         assert(&_Head->_Prev == &_HeadPrev);

  00034	e59d300c	 ldr         r3, [sp, #0xC]
  00038	e5933000	 ldr         r3, [r3]
  0003c	e2832008	 add         r2, r3, #8
  00040	e59d300c	 ldr         r3, [sp, #0xC]
  00044	e2833008	 add         r3, r3, #8
  00048	e1520003	 cmp         r2, r3
  0004c	0a000002	 beq         |$LN3@list|
  00050	e59f0080	 ldr         r0, [pc, #0x80]
  00054	eb000000	 bl          OutputDebugStringW
  00058	e6000010	 __debugbreak_ce
  0005c		 |$LN3@list|

; 180  :         assert(&_Head->_Next == &_HeadNext);

  0005c	e59d300c	 ldr         r3, [sp, #0xC]
  00060	e5933000	 ldr         r3, [r3]
  00064	e2832004	 add         r2, r3, #4
  00068	e59d300c	 ldr         r3, [sp, #0xC]
  0006c	e2833004	 add         r3, r3, #4
  00070	e1520003	 cmp         r2, r3
  00074	0a000002	 beq         |$LN4@list|
  00078	e59f0054	 ldr         r0, [pc, #0x54]
  0007c	eb000000	 bl          OutputDebugStringW
  00080	e6000010	 __debugbreak_ce
  00084		 |$LN4@list|

; 181  :         
; 182  :         _Head->_Prev = _Head->_Next = _Head;

  00084	e59d300c	 ldr         r3, [sp, #0xC]
  00088	e5933000	 ldr         r3, [r3]
  0008c	e2832004	 add         r2, r3, #4
  00090	e59d300c	 ldr         r3, [sp, #0xC]
  00094	e5933000	 ldr         r3, [r3]
  00098	e5823000	 str         r3, [r2]
  0009c	e59d300c	 ldr         r3, [sp, #0xC]
  000a0	e5933000	 ldr         r3, [r3]
  000a4	e2831004	 add         r1, r3, #4
  000a8	e59d300c	 ldr         r3, [sp, #0xC]
  000ac	e5933000	 ldr         r3, [r3]
  000b0	e2832008	 add         r2, r3, #8
  000b4	e5913000	 ldr         r3, [r1]
  000b8	e5823000	 str         r3, [r2]

; 183  :     }

  000bc	e59d300c	 ldr         r3, [sp, #0xC]
  000c0	e58d3000	 str         r3, [sp]
  000c4	e59d0000	 ldr         r0, [sp]
  000c8	e28dd004	 add         sp, sp, #4
  000cc	e89d6000	 ldmia       sp, {sp, lr}
  000d0	e12fff1e	 bx          lr
  000d4		 |$LN8@list|
  000d4		 |$LN9@list|
  000d4	00000000	 DCD         |??_C@_1NE@DLHOEDJM@?$AA?$AN?$AA?6?$AA?$CK?$AA?$CK?$AA?$CK?$AA?5?$AAA?$AAS?$AAS?$AAE?$AAR?$AAT?$AAI?$AAO?$AAN?$AA?5?$AAF?$AAA?$AAI?$AAL?$AAE?$AAD?$AA?5?$AAi?$AAn?$AA?5?$AAC?$AA?3?$AA?2?$AAW?$AAI?$AAN@|
  000d8		 |$LN10@list|
  000d8	00000000	 DCD         |??_C@_1NE@EMMCPGHA@?$AA?$AN?$AA?6?$AA?$CK?$AA?$CK?$AA?$CK?$AA?5?$AAA?$AAS?$AAS?$AAE?$AAR?$AAT?$AAI?$AAO?$AAN?$AA?5?$AAF?$AAA?$AAI?$AAL?$AAE?$AAD?$AA?5?$AAi?$AAn?$AA?5?$AAC?$AA?3?$AA?2?$AAW?$AAI?$AAN@|
  000dc		 |$M38997|

			 ENDP  ; |??0?$list@PAVBusDriverChild_t@@Vallocator@ce@@@ce@@QAA@XZ|, ce::list<BusDriverChild_t *,ce::allocator>::list<BusDriverChild_t *,ce::allocator>

	EXPORT	|?clear@?$list@PAVBusDriverChild_t@@Vallocator@ce@@@ce@@QAAXXZ| ; ce::list<BusDriverChild_t *,ce::allocator>::clear

  00000			 AREA	 |.pdata|, PDATA
|$T39009| DCD	|$LN5@list@2|
	DCD	0x40000703
; Function compile flags: /Odtp

  00000			 AREA	 |.text|, CODE, ARM

  00000		 |??1?$list@PAVBusDriverChild_t@@Vallocator@ce@@@ce@@QAA@XZ| PROC ; ce::list<BusDriverChild_t *,ce::allocator>::~list<BusDriverChild_t *,ce::allocator>

; 214  :     {

  00000		 |$LN5@list@2|
  00000	e1a0c00d	 mov         r12, sp
  00004	e92d0001	 stmdb       sp!, {r0}
  00008	e92d5000	 stmdb       sp!, {r12, lr}
  0000c		 |$M39006|

; 215  :         clear();

  0000c	e59d0008	 ldr         r0, [sp, #8]
  00010	eb000000	 bl          |?clear@?$list@PAVBusDriverChild_t@@Vallocator@ce@@@ce@@QAAXXZ|

; 216  :     }

  00014	e89d6000	 ldmia       sp, {sp, lr}
  00018	e12fff1e	 bx          lr
  0001c		 |$M39007|

			 ENDP  ; |??1?$list@PAVBusDriverChild_t@@Vallocator@ce@@@ce@@QAA@XZ|, ce::list<BusDriverChild_t *,ce::allocator>::~list<BusDriverChild_t *,ce::allocator>

	EXPORT	|??0iterator@?$list@PAVBusDriverChild_t@@Vallocator@ce@@@ce@@QAA@PAU_Node@12@@Z| ; ce::list<BusDriverChild_t *,ce::allocator>::iterator::iterator

  00000			 AREA	 |.pdata|, PDATA
|$T39017| DCD	|$LN5@begin|
	DCD	0x40001004
; Function compile flags: /Odtp

  00000			 AREA	 |.text|, CODE, ARM

  00000		 |?begin@?$list@PAVBusDriverChild_t@@Vallocator@ce@@@ce@@QAA?AViterator@12@XZ| PROC ; ce::list<BusDriverChild_t *,ce::allocator>::begin

; 229  :         {return (iterator(_Head->_Next)); }

  00000		 |$LN5@begin|
  00000	e1a0c00d	 mov         r12, sp
  00004	e92d0003	 stmdb       sp!, {r0, r1}
  00008	e92d5000	 stmdb       sp!, {r12, lr}
  0000c	e24dd004	 sub         sp, sp, #4
  00010		 |$M39014|
  00010	e59d300c	 ldr         r3, [sp, #0xC]
  00014	e5933000	 ldr         r3, [r3]
  00018	e2833004	 add         r3, r3, #4
  0001c	e5931000	 ldr         r1, [r3]
  00020	e59d0010	 ldr         r0, [sp, #0x10]
  00024	eb000000	 bl          |??0iterator@?$list@PAVBusDriverChild_t@@Vallocator@ce@@@ce@@QAA@PAU_Node@12@@Z|
  00028	e59d3010	 ldr         r3, [sp, #0x10]
  0002c	e58d3000	 str         r3, [sp]
  00030	e59d0000	 ldr         r0, [sp]
  00034	e28dd004	 add         sp, sp, #4
  00038	e89d6000	 ldmia       sp, {sp, lr}
  0003c	e12fff1e	 bx          lr
  00040		 |$M39015|

			 ENDP  ; |?begin@?$list@PAVBusDriverChild_t@@Vallocator@ce@@@ce@@QAA?AViterator@12@XZ|, ce::list<BusDriverChild_t *,ce::allocator>::begin


  00000			 AREA	 |.pdata|, PDATA
|$T39025| DCD	|$LN5@end|
	DCD	0x40000e04
; Function compile flags: /Odtp

  00000			 AREA	 |.text|, CODE, ARM

  00000		 |?end@?$list@PAVBusDriverChild_t@@Vallocator@ce@@@ce@@QAA?AViterator@12@XZ| PROC ; ce::list<BusDriverChild_t *,ce::allocator>::end

; 236  :         {return (iterator(_Head)); }

  00000		 |$LN5@end|
  00000	e1a0c00d	 mov         r12, sp
  00004	e92d0003	 stmdb       sp!, {r0, r1}
  00008	e92d5000	 stmdb       sp!, {r12, lr}
  0000c	e24dd004	 sub         sp, sp, #4
  00010		 |$M39022|
  00010	e59d300c	 ldr         r3, [sp, #0xC]
  00014	e5931000	 ldr         r1, [r3]
  00018	e59d0010	 ldr         r0, [sp, #0x10]
  0001c	eb000000	 bl          |??0iterator@?$list@PAVBusDriverChild_t@@Vallocator@ce@@@ce@@QAA@PAU_Node@12@@Z|
  00020	e59d3010	 ldr         r3, [sp, #0x10]
  00024	e58d3000	 str         r3, [sp]
  00028	e59d0000	 ldr         r0, [sp]
  0002c	e28dd004	 add         sp, sp, #4
  00030	e89d6000	 ldmia       sp, {sp, lr}
  00034	e12fff1e	 bx          lr
  00038		 |$M39023|

			 ENDP  ; |?end@?$list@PAVBusDriverChild_t@@Vallocator@ce@@@ce@@QAA?AViterator@12@XZ|, ce::list<BusDriverChild_t *,ce::allocator>::end

	EXPORT	|?_Freenode@?$list@PAVBusDriverChild_t@@Vallocator@ce@@@ce@@IAAXPAU_Node@12@@Z| ; ce::list<BusDriverChild_t *,ce::allocator>::_Freenode
	EXPORT	|??_C@_1LO@OOGIKPKN@?$AA?$AN?$AA?6?$AA?$CK?$AA?$CK?$AA?$CK?$AA?5?$AAA?$AAS?$AAS?$AAE?$AAR?$AAT?$AAI?$AAO?$AAN?$AA?5?$AAF?$AAA?$AAI?$AAL?$AAE?$AAD?$AA?5?$AAi?$AAn?$AA?5?$AAC?$AA?3?$AA?2?$AAW?$AAI?$AAN@| [ DATA ] ; `string'
	EXPORT	|??_C@_1LO@BAOOMFHO@?$AA?$AN?$AA?6?$AA?$CK?$AA?$CK?$AA?$CK?$AA?5?$AAA?$AAS?$AAS?$AAE?$AAR?$AAT?$AAI?$AAO?$AAN?$AA?5?$AAF?$AAA?$AAI?$AAL?$AAE?$AAD?$AA?5?$AAi?$AAn?$AA?5?$AAC?$AA?3?$AA?2?$AAW?$AAI?$AAN@| [ DATA ] ; `string'
	EXPORT	|??_C@_1LA@GONEHALC@?$AA?$AN?$AA?6?$AA?$CK?$AA?$CK?$AA?$CK?$AA?5?$AAA?$AAS?$AAS?$AAE?$AAR?$AAT?$AAI?$AAO?$AAN?$AA?5?$AAF?$AAA?$AAI?$AAL?$AAE?$AAD?$AA?5?$AAi?$AAn?$AA?5?$AAC?$AA?3?$AA?2?$AAW?$AAI?$AAN@| [ DATA ] ; `string'
	EXPORT	|?_MyNode@const_iterator@?$list@PAVBusDriverChild_t@@Vallocator@ce@@@ce@@QBAPAU_Node@23@XZ| ; ce::list<BusDriverChild_t *,ce::allocator>::const_iterator::_MyNode
	EXPORT	|??_C@_1LK@NOAKHIEP@?$AA?$AN?$AA?6?$AA?$CK?$AA?$CK?$AA?$CK?$AA?5?$AAA?$AAS?$AAS?$AAE?$AAR?$AAT?$AAI?$AAO?$AAN?$AA?5?$AAF?$AAA?$AAI?$AAL?$AAE?$AAD?$AA?5?$AAi?$AAn?$AA?5?$AAC?$AA?3?$AA?2?$AAW?$AAI?$AAN@| [ DATA ] ; `string'
	IMPORT	|memcpy|

  00000			 AREA	 |.pdata|, PDATA
|$T39040| DCD	|$LN9@erase|
	DCD	0x40005a04

  00000			 AREA	 |.rdata|, DATA, READONLY
|??_C@_1LO@OOGIKPKN@?$AA?$AN?$AA?6?$AA?$CK?$AA?$CK?$AA?$CK?$AA?5?$AAA?$AAS?$AAS?$AAE?$AAR?$AAT?$AAI?$AAO?$AAN?$AA?5?$AAF?$AAA?$AAI?$AAL?$AAE?$AAD?$AA?5?$AAi?$AAn?$AA?5?$AAC?$AA?3?$AA?2?$AAW?$AAI?$AAN@| DCB 0xd
	DCB	0x0, 0xa, 0x0, "*", 0x0, "*", 0x0, "*", 0x0, " ", 0x0, "A"
	DCB	0x0, "S", 0x0, "S", 0x0, "E", 0x0, "R", 0x0, "T", 0x0, "I"
	DCB	0x0, "O", 0x0, "N", 0x0, " ", 0x0, "F", 0x0, "A", 0x0, "I"
	DCB	0x0, "L", 0x0, "E", 0x0, "D", 0x0, " ", 0x0, "i", 0x0, "n"
	DCB	0x0, " ", 0x0, "C", 0x0, ":", 0x0, "\\", 0x0, "W", 0x0, "I"
	DCB	0x0, "N", 0x0, "C", 0x0, "E", 0x0, "6", 0x0, "0", 0x0, "0"
	DCB	0x0, "\\", 0x0, "p", 0x0, "u", 0x0, "b", 0x0, "l", 0x0, "i"
	DCB	0x0, "c", 0x0, "\\", 0x0, "c", 0x0, "o", 0x0, "m", 0x0, "m"
	DCB	0x0, "o", 0x0, "n", 0x0, "\\", 0x0, "o", 0x0, "a", 0x0, "k"
	DCB	0x0, "\\", 0x0, "i", 0x0, "n", 0x0, "c", 0x0, "\\", 0x0, "l"
	DCB	0x0, "i", 0x0, "s", 0x0, "t", 0x0, ".", 0x0, "h", 0x0, "x"
	DCB	0x0, "x", 0x0, "(", 0x0, "3", 0x0, "6", 0x0, "8", 0x0, ")"
	DCB	0x0, ":", 0x0, 0xd, 0x0, 0xa, 0x0, "W", 0x0, "h", 0x0, "e"
	DCB	0x0, "r", 0x0, "e", 0x0, "N", 0x0, "o", 0x0, "d", 0x0, "e"
	DCB	0x0, "-", 0x0, ">", 0x0, "_", 0x0, "N", 0x0, "e", 0x0, "x"
	DCB	0x0, "t", 0x0, 0xd, 0x0, 0xa, 0x0, 0x0, 0x0 ; `string'

  00000			 AREA	 |.rdata|, DATA, READONLY
|??_C@_1LO@BAOOMFHO@?$AA?$AN?$AA?6?$AA?$CK?$AA?$CK?$AA?$CK?$AA?5?$AAA?$AAS?$AAS?$AAE?$AAR?$AAT?$AAI?$AAO?$AAN?$AA?5?$AAF?$AAA?$AAI?$AAL?$AAE?$AAD?$AA?5?$AAi?$AAn?$AA?5?$AAC?$AA?3?$AA?2?$AAW?$AAI?$AAN@| DCB 0xd
	DCB	0x0, 0xa, 0x0, "*", 0x0, "*", 0x0, "*", 0x0, " ", 0x0, "A"
	DCB	0x0, "S", 0x0, "S", 0x0, "E", 0x0, "R", 0x0, "T", 0x0, "I"
	DCB	0x0, "O", 0x0, "N", 0x0, " ", 0x0, "F", 0x0, "A", 0x0, "I"
	DCB	0x0, "L", 0x0, "E", 0x0, "D", 0x0, " ", 0x0, "i", 0x0, "n"
	DCB	0x0, " ", 0x0, "C", 0x0, ":", 0x0, "\\", 0x0, "W", 0x0, "I"
	DCB	0x0, "N", 0x0, "C", 0x0, "E", 0x0, "6", 0x0, "0", 0x0, "0"
	DCB	0x0, "\\", 0x0, "p", 0x0, "u", 0x0, "b", 0x0, "l", 0x0, "i"
	DCB	0x0, "c", 0x0, "\\", 0x0, "c", 0x0, "o", 0x0, "m", 0x0, "m"
	DCB	0x0, "o", 0x0, "n", 0x0, "\\", 0x0, "o", 0x0, "a", 0x0, "k"
	DCB	0x0, "\\", 0x0, "i", 0x0, "n", 0x0, "c", 0x0, "\\", 0x0, "l"
	DCB	0x0, "i", 0x0, "s", 0x0, "t", 0x0, ".", 0x0, "h", 0x0, "x"
	DCB	0x0, "x", 0x0, "(", 0x0, "3", 0x0, "6", 0x0, "6", 0x0, ")"
	DCB	0x0, ":", 0x0, 0xd, 0x0, 0xa, 0x0, "W", 0x0, "h", 0x0, "e"
	DCB	0x0, "r", 0x0, "e", 0x0, "N", 0x0, "o", 0x0, "d", 0x0, "e"
	DCB	0x0, "-", 0x0, ">", 0x0, "_", 0x0, "P", 0x0, "r", 0x0, "e"
	DCB	0x0, "v", 0x0, 0xd, 0x0, 0xa, 0x0, 0x0, 0x0 ; `string'

  00000			 AREA	 |.rdata|, DATA, READONLY
|??_C@_1LA@GONEHALC@?$AA?$AN?$AA?6?$AA?$CK?$AA?$CK?$AA?$CK?$AA?5?$AAA?$AAS?$AAS?$AAE?$AAR?$AAT?$AAI?$AAO?$AAN?$AA?5?$AAF?$AAA?$AAI?$AAL?$AAE?$AAD?$AA?5?$AAi?$AAn?$AA?5?$AAC?$AA?3?$AA?2?$AAW?$AAI?$AAN@| DCB 0xd
	DCB	0x0, 0xa, 0x0, "*", 0x0, "*", 0x0, "*", 0x0, " ", 0x0, "A"
	DCB	0x0, "S", 0x0, "S", 0x0, "E", 0x0, "R", 0x0, "T", 0x0, "I"
	DCB	0x0, "O", 0x0, "N", 0x0, " ", 0x0, "F", 0x0, "A", 0x0, "I"
	DCB	0x0, "L", 0x0, "E", 0x0, "D", 0x0, " ", 0x0, "i", 0x0, "n"
	DCB	0x0, " ", 0x0, "C", 0x0, ":", 0x0, "\\", 0x0, "W", 0x0, "I"
	DCB	0x0, "N", 0x0, "C", 0x0, "E", 0x0, "6", 0x0, "0", 0x0, "0"
	DCB	0x0, "\\", 0x0, "p", 0x0, "u", 0x0, "b", 0x0, "l", 0x0, "i"
	DCB	0x0, "c", 0x0, "\\", 0x0, "c", 0x0, "o", 0x0, "m", 0x0, "m"
	DCB	0x0, "o", 0x0, "n", 0x0, "\\", 0x0, "o", 0x0, "a", 0x0, "k"
	DCB	0x0, "\\", 0x0, "i", 0x0, "n", 0x0, "c", 0x0, "\\", 0x0, "l"
	DCB	0x0, "i", 0x0, "s", 0x0, "t", 0x0, ".", 0x0, "h", 0x0, "x"
	DCB	0x0, "x", 0x0, "(", 0x0, "3", 0x0, "6", 0x0, "4", 0x0, ")"
	DCB	0x0, ":", 0x0, 0xd, 0x0, 0xa, 0x0, "W", 0x0, "h", 0x0, "e"
	DCB	0x0, "r", 0x0, "e", 0x0, "N", 0x0, "o", 0x0, "d", 0x0, "e"
	DCB	0x0, 0xd, 0x0, 0xa, 0x0, 0x0, 0x0	; `string'

  00000			 AREA	 |.rdata|, DATA, READONLY
|??_C@_1LK@NOAKHIEP@?$AA?$AN?$AA?6?$AA?$CK?$AA?$CK?$AA?$CK?$AA?5?$AAA?$AAS?$AAS?$AAE?$AAR?$AAT?$AAI?$AAO?$AAN?$AA?5?$AAF?$AAA?$AAI?$AAL?$AAE?$AAD?$AA?5?$AAi?$AAn?$AA?5?$AAC?$AA?3?$AA?2?$AAW?$AAI?$AAN@| DCB 0xd
	DCB	0x0, 0xa, 0x0, "*", 0x0, "*", 0x0, "*", 0x0, " ", 0x0, "A"
	DCB	0x0, "S", 0x0, "S", 0x0, "E", 0x0, "R", 0x0, "T", 0x0, "I"
	DCB	0x0, "O", 0x0, "N", 0x0, " ", 0x0, "F", 0x0, "A", 0x0, "I"
	DCB	0x0, "L", 0x0, "E", 0x0, "D", 0x0, " ", 0x0, "i", 0x0, "n"
	DCB	0x0, " ", 0x0, "C", 0x0, ":", 0x0, "\\", 0x0, "W", 0x0, "I"
	DCB	0x0, "N", 0x0, "C", 0x0, "E", 0x0, "6", 0x0, "0", 0x0, "0"
	DCB	0x0, "\\", 0x0, "p", 0x0, "u", 0x0, "b", 0x0, "l", 0x0, "i"
	DCB	0x0, "c", 0x0, "\\", 0x0, "c", 0x0, "o", 0x0, "m", 0x0, "m"
	DCB	0x0, "o", 0x0, "n", 0x0, "\\", 0x0, "o", 0x0, "a", 0x0, "k"
	DCB	0x0, "\\", 0x0, "i", 0x0, "n", 0x0, "c", 0x0, "\\", 0x0, "l"
	DCB	0x0, "i", 0x0, "s", 0x0, "t", 0x0, ".", 0x0, "h", 0x0, "x"
	DCB	0x0, "x", 0x0, "(", 0x0, "3", 0x0, "6", 0x0, "0", 0x0, ")"
	DCB	0x0, ":", 0x0, 0xd, 0x0, 0xa, 0x0, "W", 0x0, "h", 0x0, "e"
	DCB	0x0, "r", 0x0, "e", 0x0, " ", 0x0, "!", 0x0, "=", 0x0, " "
	DCB	0x0, "e", 0x0, "n", 0x0, "d", 0x0, "(", 0x0, ")", 0x0, 0xd
	DCB	0x0, 0xa, 0x0, 0x0, 0x0			; `string'
; Function compile flags: /Odtp

  00000			 AREA	 |.text|, CODE, ARM

  00000		 |?erase@?$list@PAVBusDriverChild_t@@Vallocator@ce@@@ce@@QAA?AViterator@12@V312@@Z| PROC ; ce::list<BusDriverChild_t *,ce::allocator>::erase

; 359  :     {

  00000		 |$LN9@erase|
  00000	e1a0c00d	 mov         r12, sp
  00004	e92d000f	 stmdb       sp!, {r0 - r3}
  00008	e92d5000	 stmdb       sp!, {r12, lr}
  0000c	e24dd020	 sub         sp, sp, #0x20
  00010		 |$M39037|

; 360  :         assert(Where != end());

  00010	e28d1004	 add         r1, sp, #4
  00014	e59d0028	 ldr         r0, [sp, #0x28]
  00018	eb000000	 bl          |?end@?$list@PAVBusDriverChild_t@@Vallocator@ce@@@ce@@QAA?AViterator@12@XZ|
  0001c	e58d0010	 str         r0, [sp, #0x10]
  00020	e59d1010	 ldr         r1, [sp, #0x10]
  00024	e28d0030	 add         r0, sp, #0x30
  00028	eb000000	 bl          |??9iterator@?$list@PAVBusDriverChild_t@@Vallocator@ce@@@ce@@QBA_NABV012@@Z|
  0002c	e5cd0014	 strb        r0, [sp, #0x14]
  00030	e5dd3014	 ldrb        r3, [sp, #0x14]
  00034	e3530000	 cmp         r3, #0
  00038	1a000002	 bne         |$LN3@erase|
  0003c	e59f0120	 ldr         r0, [pc, #0x120]
  00040	eb000000	 bl          OutputDebugStringW
  00044	e6000010	 __debugbreak_ce
  00048		 |$LN3@erase|

; 361  :         
; 362  :         _NodePtr WhereNode = (Where++)._MyNode();

  00048	e3a02000	 mov         r2, #0
  0004c	e28d1008	 add         r1, sp, #8
  00050	e28d0030	 add         r0, sp, #0x30
  00054	eb000000	 bl          |??Eiterator@?$list@PAVBusDriverChild_t@@Vallocator@ce@@@ce@@QAA?AV012@H@Z|
  00058	e58d0018	 str         r0, [sp, #0x18]
  0005c	e59d0018	 ldr         r0, [sp, #0x18]
  00060	eb000000	 bl          |?_MyNode@const_iterator@?$list@PAVBusDriverChild_t@@Vallocator@ce@@@ce@@QBAPAU_Node@23@XZ|
  00064	e58d001c	 str         r0, [sp, #0x1C]
  00068	e59d301c	 ldr         r3, [sp, #0x1C]
  0006c	e58d3000	 str         r3, [sp]

; 363  : 
; 364  :         assert(WhereNode);

  00070	e59d3000	 ldr         r3, [sp]
  00074	e3530000	 cmp         r3, #0
  00078	1a000002	 bne         |$LN4@erase|
  0007c	e59f00dc	 ldr         r0, [pc, #0xDC]
  00080	eb000000	 bl          OutputDebugStringW
  00084	e6000010	 __debugbreak_ce
  00088		 |$LN4@erase|

; 365  :         __assume(WhereNode);
; 366  :         assert(WhereNode->_Prev);

  00088	e59d3000	 ldr         r3, [sp]
  0008c	e2833008	 add         r3, r3, #8
  00090	e5933000	 ldr         r3, [r3]
  00094	e3530000	 cmp         r3, #0
  00098	1a000002	 bne         |$LN5@erase|
  0009c	e59f00b8	 ldr         r0, [pc, #0xB8]
  000a0	eb000000	 bl          OutputDebugStringW
  000a4	e6000010	 __debugbreak_ce
  000a8		 |$LN5@erase|

; 367  :         __assume(WhereNode->_Prev);
; 368  :         assert(WhereNode->_Next);

  000a8	e59d3000	 ldr         r3, [sp]
  000ac	e2833004	 add         r3, r3, #4
  000b0	e5933000	 ldr         r3, [r3]
  000b4	e3530000	 cmp         r3, #0
  000b8	1a000002	 bne         |$LN6@erase|
  000bc	e59f0094	 ldr         r0, [pc, #0x94]
  000c0	eb000000	 bl          OutputDebugStringW
  000c4	e6000010	 __debugbreak_ce
  000c8		 |$LN6@erase|

; 369  :         __assume(WhereNode->_Next);
; 370  :         
; 371  :         WhereNode->_Prev->_Next = WhereNode->_Next;

  000c8	e59d3000	 ldr         r3, [sp]
  000cc	e2831004	 add         r1, r3, #4
  000d0	e59d3000	 ldr         r3, [sp]
  000d4	e2833008	 add         r3, r3, #8
  000d8	e5933000	 ldr         r3, [r3]
  000dc	e2832004	 add         r2, r3, #4
  000e0	e5913000	 ldr         r3, [r1]
  000e4	e5823000	 str         r3, [r2]

; 372  :         WhereNode->_Next->_Prev = WhereNode->_Prev;

  000e8	e59d3000	 ldr         r3, [sp]
  000ec	e2831008	 add         r1, r3, #8
  000f0	e59d3000	 ldr         r3, [sp]
  000f4	e2833004	 add         r3, r3, #4
  000f8	e5933000	 ldr         r3, [r3]
  000fc	e2832008	 add         r2, r3, #8
  00100	e5913000	 ldr         r3, [r1]
  00104	e5823000	 str         r3, [r2]

; 373  :         
; 374  :         WhereNode->_Value.~T();
; 375  :         _Freenode(WhereNode);

  00108	e59d1000	 ldr         r1, [sp]
  0010c	e59d0028	 ldr         r0, [sp, #0x28]
  00110	eb000000	 bl          |?_Freenode@?$list@PAVBusDriverChild_t@@Vallocator@ce@@@ce@@IAAXPAU_Node@12@@Z|

; 376  :         
; 377  :         --_Size;

  00114	e59d3028	 ldr         r3, [sp, #0x28]
  00118	e283300c	 add         r3, r3, #0xC
  0011c	e5933000	 ldr         r3, [r3]
  00120	e2432001	 sub         r2, r3, #1
  00124	e59d3028	 ldr         r3, [sp, #0x28]
  00128	e283300c	 add         r3, r3, #0xC
  0012c	e5832000	 str         r2, [r3]

; 378  :         
; 379  :         return Where;

  00130	e59d002c	 ldr         r0, [sp, #0x2C]
  00134	e28d1030	 add         r1, sp, #0x30
  00138	e3a02004	 mov         r2, #4
  0013c	eb000000	 bl          memcpy
  00140	e59d302c	 ldr         r3, [sp, #0x2C]
  00144	e58d300c	 str         r3, [sp, #0xC]

; 380  :     }

  00148	e59d000c	 ldr         r0, [sp, #0xC]
  0014c	e28dd020	 add         sp, sp, #0x20
  00150	e89d6000	 ldmia       sp, {sp, lr}
  00154	e12fff1e	 bx          lr
  00158		 |$LN10@erase|
  00158		 |$LN11@erase|
  00158	00000000	 DCD         |??_C@_1LO@OOGIKPKN@?$AA?$AN?$AA?6?$AA?$CK?$AA?$CK?$AA?$CK?$AA?5?$AAA?$AAS?$AAS?$AAE?$AAR?$AAT?$AAI?$AAO?$AAN?$AA?5?$AAF?$AAA?$AAI?$AAL?$AAE?$AAD?$AA?5?$AAi?$AAn?$AA?5?$AAC?$AA?3?$AA?2?$AAW?$AAI?$AAN@|
  0015c		 |$LN12@erase|
  0015c	00000000	 DCD         |??_C@_1LO@BAOOMFHO@?$AA?$AN?$AA?6?$AA?$CK?$AA?$CK?$AA?$CK?$AA?5?$AAA?$AAS?$AAS?$AAE?$AAR?$AAT?$AAI?$AAO?$AAN?$AA?5?$AAF?$AAA?$AAI?$AAL?$AAE?$AAD?$AA?5?$AAi?$AAn?$AA?5?$AAC?$AA?3?$AA?2?$AAW?$AAI?$AAN@|
  00160		 |$LN13@erase|
  00160	00000000	 DCD         |??_C@_1LA@GONEHALC@?$AA?$AN?$AA?6?$AA?$CK?$AA?$CK?$AA?$CK?$AA?5?$AAA?$AAS?$AAS?$AAE?$AAR?$AAT?$AAI?$AAO?$AAN?$AA?5?$AAF?$AAA?$AAI?$AAL?$AAE?$AAD?$AA?5?$AAi?$AAn?$AA?5?$AAC?$AA?3?$AA?2?$AAW?$AAI?$AAN@|
  00164		 |$LN14@erase|
  00164	00000000	 DCD         |??_C@_1LK@NOAKHIEP@?$AA?$AN?$AA?6?$AA?$CK?$AA?$CK?$AA?$CK?$AA?5?$AAA?$AAS?$AAS?$AAE?$AAR?$AAT?$AAI?$AAO?$AAN?$AA?5?$AAF?$AAA?$AAI?$AAL?$AAE?$AAD?$AA?5?$AAi?$AAn?$AA?5?$AAC?$AA?3?$AA?2?$AAW?$AAI?$AAN@|
  00168		 |$M39038|

			 ENDP  ; |?erase@?$list@PAVBusDriverChild_t@@Vallocator@ce@@@ce@@QAA?AViterator@12@V312@@Z|, ce::list<BusDriverChild_t *,ce::allocator>::erase

	EXPORT	|?_Init@?$_string_t@G$0BA@U?$char_traits@G@ce@@Vallocator@2@@ce@@IAAXXZ| ; ce::_string_t<unsigned short,16,ce::char_traits<unsigned short>,ce::allocator>::_Init
; File c:\wince600\public\common\oak\inc\string.hxx

  00000			 AREA	 |.pdata|, PDATA
|$T39053| DCD	|$LN5@string_t|
	DCD	0x40000c04
; Function compile flags: /Odtp

  00000			 AREA	 |.text|, CODE, ARM

  00000		 |??0?$_string_t@G$0BA@U?$char_traits@G@ce@@Vallocator@2@@ce@@QAA@XZ| PROC ; ce::_string_t<unsigned short,16,ce::char_traits<unsigned short>,ce::allocator>::_string_t<unsigned short,16,ce::char_traits<unsigned short>,ce::allocator>

; 185  :     _string_t()

  00000		 |$LN5@string_t|
  00000	e1a0c00d	 mov         r12, sp
  00004	e92d0001	 stmdb       sp!, {r0}
  00008	e92d5000	 stmdb       sp!, {r12, lr}
  0000c	e24dd004	 sub         sp, sp, #4
  00010		 |$M39050|
  00010	e59d000c	 ldr         r0, [sp, #0xC]
  00014	eb000000	 bl          |?_Init@?$_string_t@G$0BA@U?$char_traits@G@ce@@Vallocator@2@@ce@@IAAXXZ|

; 186  :         {_Init(); }

  00018	e59d300c	 ldr         r3, [sp, #0xC]
  0001c	e58d3000	 str         r3, [sp]
  00020	e59d0000	 ldr         r0, [sp]
  00024	e28dd004	 add         sp, sp, #4
  00028	e89d6000	 ldmia       sp, {sp, lr}
  0002c	e12fff1e	 bx          lr
  00030		 |$M39051|

			 ENDP  ; |??0?$_string_t@G$0BA@U?$char_traits@G@ce@@Vallocator@2@@ce@@QAA@XZ|, ce::_string_t<unsigned short,16,ce::char_traits<unsigned short>,ce::allocator>::_string_t<unsigned short,16,ce::char_traits<unsigned short>,ce::allocator>

	EXPORT	|?deallocate@allocator@ce@@QBAXPAXI@Z|	; ce::allocator::deallocate
	EXPORT	|??_C@_1MG@GFIOAJGC@?$AA?$AN?$AA?6?$AA?$CK?$AA?$CK?$AA?$CK?$AA?5?$AAA?$AAS?$AAS?$AAE?$AAR?$AAT?$AAI?$AAO?$AAN?$AA?5?$AAF?$AAA?$AAI?$AAL?$AAE?$AAD?$AA?5?$AAi?$AAn?$AA?5?$AAC?$AA?3?$AA?2?$AAW?$AAI?$AAN@| [ DATA ] ; `string'
	EXPORT	|??_C@_1LK@MIFDEEMM@?$AA?$AN?$AA?6?$AA?$CK?$AA?$CK?$AA?$CK?$AA?5?$AAA?$AAS?$AAS?$AAE?$AAR?$AAT?$AAI?$AAO?$AAN?$AA?5?$AAF?$AAA?$AAI?$AAL?$AAE?$AAD?$AA?5?$AAi?$AAn?$AA?5?$AAC?$AA?3?$AA?2?$AAW?$AAI?$AAN@| [ DATA ] ; `string'

  00000			 AREA	 |.pdata|, PDATA
|$T39062| DCD	|$LN8@string_t@2|
	DCD	0x40002f03

  00000			 AREA	 |.rdata|, DATA, READONLY
|??_C@_1MG@GFIOAJGC@?$AA?$AN?$AA?6?$AA?$CK?$AA?$CK?$AA?$CK?$AA?5?$AAA?$AAS?$AAS?$AAE?$AAR?$AAT?$AAI?$AAO?$AAN?$AA?5?$AAF?$AAA?$AAI?$AAL?$AAE?$AAD?$AA?5?$AAi?$AAn?$AA?5?$AAC?$AA?3?$AA?2?$AAW?$AAI?$AAN@| DCB 0xd
	DCB	0x0, 0xa, 0x0, "*", 0x0, "*", 0x0, "*", 0x0, " ", 0x0, "A"
	DCB	0x0, "S", 0x0, "S", 0x0, "E", 0x0, "R", 0x0, "T", 0x0, "I"
	DCB	0x0, "O", 0x0, "N", 0x0, " ", 0x0, "F", 0x0, "A", 0x0, "I"
	DCB	0x0, "L", 0x0, "E", 0x0, "D", 0x0, " ", 0x0, "i", 0x0, "n"
	DCB	0x0, " ", 0x0, "C", 0x0, ":", 0x0, "\\", 0x0, "W", 0x0, "I"
	DCB	0x0, "N", 0x0, "C", 0x0, "E", 0x0, "6", 0x0, "0", 0x0, "0"
	DCB	0x0, "\\", 0x0, "p", 0x0, "u", 0x0, "b", 0x0, "l", 0x0, "i"
	DCB	0x0, "c", 0x0, "\\", 0x0, "c", 0x0, "o", 0x0, "m", 0x0, "m"
	DCB	0x0, "o", 0x0, "n", 0x0, "\\", 0x0, "o", 0x0, "a", 0x0, "k"
	DCB	0x0, "\\", 0x0, "i", 0x0, "n", 0x0, "c", 0x0, "\\", 0x0, "s"
	DCB	0x0, "t", 0x0, "r", 0x0, "i", 0x0, "n", 0x0, "g", 0x0, "."
	DCB	0x0, "h", 0x0, "x", 0x0, "x", 0x0, "(", 0x0, "2", 0x0, "2"
	DCB	0x0, "1", 0x0, ")", 0x0, ":", 0x0, 0xd, 0x0, 0xa, 0x0, "_"
	DCB	0x0, "P", 0x0, "t", 0x0, "r", 0x0, "[", 0x0, "_", 0x0, "R"
	DCB	0x0, "e", 0x0, "s", 0x0, "]", 0x0, " ", 0x0, "=", 0x0, "="
	DCB	0x0, " ", 0x0, "T", 0x0, "(", 0x0, "0", 0x0, ")", 0x0, 0xd
	DCB	0x0, 0xa, 0x0, 0x0, 0x0			; `string'

  00000			 AREA	 |.rdata|, DATA, READONLY
|??_C@_1LK@MIFDEEMM@?$AA?$AN?$AA?6?$AA?$CK?$AA?$CK?$AA?$CK?$AA?5?$AAA?$AAS?$AAS?$AAE?$AAR?$AAT?$AAI?$AAO?$AAN?$AA?5?$AAF?$AAA?$AAI?$AAL?$AAE?$AAD?$AA?5?$AAi?$AAn?$AA?5?$AAC?$AA?3?$AA?2?$AAW?$AAI?$AAN@| DCB 0xd
	DCB	0x0, 0xa, 0x0, "*", 0x0, "*", 0x0, "*", 0x0, " ", 0x0, "A"
	DCB	0x0, "S", 0x0, "S", 0x0, "E", 0x0, "R", 0x0, "T", 0x0, "I"
	DCB	0x0, "O", 0x0, "N", 0x0, " ", 0x0, "F", 0x0, "A", 0x0, "I"
	DCB	0x0, "L", 0x0, "E", 0x0, "D", 0x0, " ", 0x0, "i", 0x0, "n"
	DCB	0x0, " ", 0x0, "C", 0x0, ":", 0x0, "\\", 0x0, "W", 0x0, "I"
	DCB	0x0, "N", 0x0, "C", 0x0, "E", 0x0, "6", 0x0, "0", 0x0, "0"
	DCB	0x0, "\\", 0x0, "p", 0x0, "u", 0x0, "b", 0x0, "l", 0x0, "i"
	DCB	0x0, "c", 0x0, "\\", 0x0, "c", 0x0, "o", 0x0, "m", 0x0, "m"
	DCB	0x0, "o", 0x0, "n", 0x0, "\\", 0x0, "o", 0x0, "a", 0x0, "k"
	DCB	0x0, "\\", 0x0, "i", 0x0, "n", 0x0, "c", 0x0, "\\", 0x0, "s"
	DCB	0x0, "t", 0x0, "r", 0x0, "i", 0x0, "n", 0x0, "g", 0x0, "."
	DCB	0x0, "h", 0x0, "x", 0x0, "x", 0x0, "(", 0x0, "2", 0x0, "2"
	DCB	0x0, "0", 0x0, ")", 0x0, ":", 0x0, 0xd, 0x0, 0xa, 0x0, "_"
	DCB	0x0, "L", 0x0, "e", 0x0, "n", 0x0, " ", 0x0, "<", 0x0, "="
	DCB	0x0, " ", 0x0, "_", 0x0, "R", 0x0, "e", 0x0, "s", 0x0, 0xd
	DCB	0x0, 0xa, 0x0, 0x0, 0x0			; `string'
; Function compile flags: /Odtp

  00000			 AREA	 |.text|, CODE, ARM

  00000		 |??1?$_string_t@G$0BA@U?$char_traits@G@ce@@Vallocator@2@@ce@@QAA@XZ| PROC ; ce::_string_t<unsigned short,16,ce::char_traits<unsigned short>,ce::allocator>::~_string_t<unsigned short,16,ce::char_traits<unsigned short>,ce::allocator>

; 219  :     {

  00000		 |$LN8@string_t@2|
  00000	e1a0c00d	 mov         r12, sp
  00004	e92d0001	 stmdb       sp!, {r0}
  00008	e92d5000	 stmdb       sp!, {r12, lr}
  0000c		 |$M39059|

; 220  :         assert(_Len <= _Res);

  0000c	e59d3008	 ldr         r3, [sp, #8]
  00010	e2832028	 add         r2, r3, #0x28
  00014	e59d3008	 ldr         r3, [sp, #8]
  00018	e283302c	 add         r3, r3, #0x2C
  0001c	e5922000	 ldr         r2, [r2]
  00020	e5933000	 ldr         r3, [r3]
  00024	e1520003	 cmp         r2, r3
  00028	9a000002	 bls         |$LN4@string_t@2|
  0002c	e59f0084	 ldr         r0, [pc, #0x84]
  00030	eb000000	 bl          OutputDebugStringW
  00034	e6000010	 __debugbreak_ce
  00038		 |$LN4@string_t@2|

; 221  :         assert(_Ptr[_Res] == T(0));

  00038	e59d3008	 ldr         r3, [sp, #8]
  0003c	e283302c	 add         r3, r3, #0x2C
  00040	e5931000	 ldr         r1, [r3]
  00044	e3a03002	 mov         r3, #2
  00048	e0020391	 mul         r2, r1, r3
  0004c	e59d3008	 ldr         r3, [sp, #8]
  00050	e5933000	 ldr         r3, [r3]
  00054	e0833002	 add         r3, r3, r2
  00058	e1d330b0	 ldrh        r3, [r3]
  0005c	e3530000	 cmp         r3, #0
  00060	0a000002	 beq         |$LN5@string_t@2|
  00064	e59f0048	 ldr         r0, [pc, #0x48]
  00068	eb000000	 bl          OutputDebugStringW
  0006c	e6000010	 __debugbreak_ce
  00070		 |$LN5@string_t@2|

; 222  :         
; 223  :         if(_Res != _BUF_SIZE)

  00070	e59d3008	 ldr         r3, [sp, #8]
  00074	e283302c	 add         r3, r3, #0x2C
  00078	e5933000	 ldr         r3, [r3]
  0007c	e3530010	 cmp         r3, #0x10
  00080	0a000009	 beq         |$LN1@string_t@2|

; 224  :             deallocate(_Ptr, (_Res + 1) * sizeof(T));

  00084	e59d3008	 ldr         r3, [sp, #8]
  00088	e283302c	 add         r3, r3, #0x2C
  0008c	e5933000	 ldr         r3, [r3]
  00090	e2831001	 add         r1, r3, #1
  00094	e3a03002	 mov         r3, #2
  00098	e0020391	 mul         r2, r1, r3
  0009c	e59d3008	 ldr         r3, [sp, #8]
  000a0	e5931000	 ldr         r1, [r3]
  000a4	e59d0008	 ldr         r0, [sp, #8]
  000a8	eb000000	 bl          |?deallocate@allocator@ce@@QBAXPAXI@Z|
  000ac		 |$LN1@string_t@2|

; 225  :     }

  000ac	e89d6000	 ldmia       sp, {sp, lr}
  000b0	e12fff1e	 bx          lr
  000b4		 |$LN9@string_t@2|
  000b4		 |$LN10@string_t@2|
  000b4	00000000	 DCD         |??_C@_1MG@GFIOAJGC@?$AA?$AN?$AA?6?$AA?$CK?$AA?$CK?$AA?$CK?$AA?5?$AAA?$AAS?$AAS?$AAE?$AAR?$AAT?$AAI?$AAO?$AAN?$AA?5?$AAF?$AAA?$AAI?$AAL?$AAE?$AAD?$AA?5?$AAi?$AAn?$AA?5?$AAC?$AA?3?$AA?2?$AAW?$AAI?$AAN@|
  000b8		 |$LN11@string_t@2|
  000b8	00000000	 DCD         |??_C@_1LK@MIFDEEMM@?$AA?$AN?$AA?6?$AA?$CK?$AA?$CK?$AA?$CK?$AA?5?$AAA?$AAS?$AAS?$AAE?$AAR?$AAT?$AAI?$AAO?$AAN?$AA?5?$AAF?$AAA?$AAI?$AAL?$AAE?$AAD?$AA?5?$AAi?$AAn?$AA?5?$AAC?$AA?3?$AA?2?$AAW?$AAI?$AAN@|
  000bc		 |$M39060|

			 ENDP  ; |??1?$_string_t@G$0BA@U?$char_traits@G@ce@@Vallocator@2@@ce@@QAA@XZ|, ce::_string_t<unsigned short,16,ce::char_traits<unsigned short>,ce::allocator>::~_string_t<unsigned short,16,ce::char_traits<unsigned short>,ce::allocator>

; File c:\wince600\public\common\oak\inc\allocator.hxx

  00000			 AREA	 |.pdata|, PDATA
|$T39072| DCD	|$LN5@deallocate|
	DCD	0x40000703
; Function compile flags: /Odtp

  00000			 AREA	 |.text|, CODE, ARM

  00000		 |?deallocate@allocator@ce@@QBAXPAXI@Z| PROC ; ce::allocator::deallocate

; 109  :         {operator delete(Ptr); }

  00000		 |$LN5@deallocate|
  00000	e1a0c00d	 mov         r12, sp
  00004	e92d0007	 stmdb       sp!, {r0 - r2}
  00008	e92d5000	 stmdb       sp!, {r12, lr}
  0000c		 |$M39069|
  0000c	e59d000c	 ldr         r0, [sp, #0xC]
  00010	eb000000	 bl          |??3@YAXPAX@Z|
  00014	e89d6000	 ldmia       sp, {sp, lr}
  00018	e12fff1e	 bx          lr
  0001c		 |$M39070|

			 ENDP  ; |?deallocate@allocator@ce@@QBAXPAXI@Z|, ce::allocator::deallocate

; File c:\wince600\public\common\oak\inc\string.hxx

  00000			 AREA	 |.pdata|, PDATA
|$T39080| DCD	|$LN5@operator|
	DCD	0x40000b04
; Function compile flags: /Odtp

  00000			 AREA	 |.text|, CODE, ARM

  00000		 |??B?$_string_t@G$0BA@U?$char_traits@G@ce@@Vallocator@2@@ce@@QBAPBGXZ| PROC ; ce::_string_t<unsigned short,16,ce::char_traits<unsigned short>,ce::allocator>::operator unsigned short const *

; 249  :         {return _Ptr; }

  00000		 |$LN5@operator|
  00000	e1a0c00d	 mov         r12, sp
  00004	e92d0001	 stmdb       sp!, {r0}
  00008	e92d5000	 stmdb       sp!, {r12, lr}
  0000c	e24dd004	 sub         sp, sp, #4
  00010		 |$M39077|
  00010	e59d300c	 ldr         r3, [sp, #0xC]
  00014	e5933000	 ldr         r3, [r3]
  00018	e58d3000	 str         r3, [sp]
  0001c	e59d0000	 ldr         r0, [sp]
  00020	e28dd004	 add         sp, sp, #4
  00024	e89d6000	 ldmia       sp, {sp, lr}
  00028	e12fff1e	 bx          lr
  0002c		 |$M39078|

			 ENDP  ; |??B?$_string_t@G$0BA@U?$char_traits@G@ce@@Vallocator@2@@ce@@QBAPBGXZ|, ce::_string_t<unsigned short,16,ce::char_traits<unsigned short>,ce::allocator>::operator unsigned short const *

	EXPORT	|?insert@?$_string_t@G$0BA@U?$char_traits@G@ce@@Vallocator@2@@ce@@QAA_NIPBGI@Z| ; ce::_string_t<unsigned short,16,ce::char_traits<unsigned short>,ce::allocator>::insert
	EXPORT	|?length@?$basic_char_traits@G@ce@@SAIPBG@Z| ; ce::basic_char_traits<unsigned short>::length

  00000			 AREA	 |.pdata|, PDATA
|$T39088| DCD	|$LN5@insert|
	DCD	0x40001304
; Function compile flags: /Odtp

  00000			 AREA	 |.text|, CODE, ARM

  00000		 |?insert@?$_string_t@G$0BA@U?$char_traits@G@ce@@Vallocator@2@@ce@@QAA_NIPBG@Z| PROC ; ce::_string_t<unsigned short,16,ce::char_traits<unsigned short>,ce::allocator>::insert

; 342  :         {return insert(_Off, _S, _Tr::length(_S)); }

  00000		 |$LN5@insert|
  00000	e1a0c00d	 mov         r12, sp
  00004	e92d0007	 stmdb       sp!, {r0 - r2}
  00008	e92d5000	 stmdb       sp!, {r12, lr}
  0000c	e24dd00c	 sub         sp, sp, #0xC
  00010		 |$M39085|
  00010	e59d001c	 ldr         r0, [sp, #0x1C]
  00014	eb000000	 bl          |?length@?$basic_char_traits@G@ce@@SAIPBG@Z|
  00018	e58d0004	 str         r0, [sp, #4]
  0001c	e59d3004	 ldr         r3, [sp, #4]
  00020	e59d201c	 ldr         r2, [sp, #0x1C]
  00024	e59d1018	 ldr         r1, [sp, #0x18]
  00028	e59d0014	 ldr         r0, [sp, #0x14]
  0002c	eb000000	 bl          |?insert@?$_string_t@G$0BA@U?$char_traits@G@ce@@Vallocator@2@@ce@@QAA_NIPBGI@Z|
  00030	e5cd0008	 strb        r0, [sp, #8]
  00034	e5dd3008	 ldrb        r3, [sp, #8]
  00038	e5cd3000	 strb        r3, [sp]
  0003c	e5dd0000	 ldrb        r0, [sp]
  00040	e28dd00c	 add         sp, sp, #0xC
  00044	e89d6000	 ldmia       sp, {sp, lr}
  00048	e12fff1e	 bx          lr
  0004c		 |$M39086|

			 ENDP  ; |?insert@?$_string_t@G$0BA@U?$char_traits@G@ce@@Vallocator@2@@ce@@QAA_NIPBG@Z|, ce::_string_t<unsigned short,16,ce::char_traits<unsigned short>,ce::allocator>::insert

; File c:\wince600\public\common\oak\inc\vector.hxx

  00000			 AREA	 |.pdata|, PDATA
|$T39096| DCD	|$LN5@vector|
	DCD	0x40001504
; Function compile flags: /Odtp

  00000			 AREA	 |.text|, CODE, ARM

  00000		 |??0?$vector@KVallocator@ce@@U?$incremental_growth@$09@2@@ce@@QAA@XZ| PROC ; ce::vector<unsigned long,ce::allocator,ce::incremental_growth<10> >::vector<unsigned long,ce::allocator,ce::incremental_growth<10> >

; 127  :         {}

  00000		 |$LN5@vector|
  00000	e1a0c00d	 mov         r12, sp
  00004	e92d0001	 stmdb       sp!, {r0}
  00008	e92d5000	 stmdb       sp!, {r12, lr}
  0000c	e24dd004	 sub         sp, sp, #4
  00010		 |$M39093|
  00010	e59d200c	 ldr         r2, [sp, #0xC]
  00014	e3a03000	 mov         r3, #0
  00018	e5823000	 str         r3, [r2]
  0001c	e59d300c	 ldr         r3, [sp, #0xC]
  00020	e2832004	 add         r2, r3, #4
  00024	e3a03000	 mov         r3, #0
  00028	e5823000	 str         r3, [r2]
  0002c	e59d300c	 ldr         r3, [sp, #0xC]
  00030	e2832008	 add         r2, r3, #8
  00034	e3a03000	 mov         r3, #0
  00038	e5823000	 str         r3, [r2]
  0003c	e59d300c	 ldr         r3, [sp, #0xC]
  00040	e58d3000	 str         r3, [sp]
  00044	e59d0000	 ldr         r0, [sp]
  00048	e28dd004	 add         sp, sp, #4
  0004c	e89d6000	 ldmia       sp, {sp, lr}
  00050	e12fff1e	 bx          lr
  00054		 |$M39094|

			 ENDP  ; |??0?$vector@KVallocator@ce@@U?$incremental_growth@$09@2@@ce@@QAA@XZ|, ce::vector<unsigned long,ce::allocator,ce::incremental_growth<10> >::vector<unsigned long,ce::allocator,ce::incremental_growth<10> >

	EXPORT	|?capacity@?$vector@KVallocator@ce@@U?$incremental_growth@$09@2@@ce@@QBAIXZ| ; ce::vector<unsigned long,ce::allocator,ce::incremental_growth<10> >::capacity
	EXPORT	|?clear@?$vector@KVallocator@ce@@U?$incremental_growth@$09@2@@ce@@QAAXXZ| ; ce::vector<unsigned long,ce::allocator,ce::incremental_growth<10> >::clear

  00000			 AREA	 |.pdata|, PDATA
|$T39103| DCD	|$LN5@vector@2|
	DCD	0x40001304
; Function compile flags: /Odtp

  00000			 AREA	 |.text|, CODE, ARM

  00000		 |??1?$vector@KVallocator@ce@@U?$incremental_growth@$09@2@@ce@@QAA@XZ| PROC ; ce::vector<unsigned long,ce::allocator,ce::incremental_growth<10> >::~vector<unsigned long,ce::allocator,ce::incremental_growth<10> >

; 167  :     {

  00000		 |$LN5@vector@2|
  00000	e1a0c00d	 mov         r12, sp
  00004	e92d0001	 stmdb       sp!, {r0}
  00008	e92d5000	 stmdb       sp!, {r12, lr}
  0000c	e24dd004	 sub         sp, sp, #4
  00010		 |$M39100|

; 168  :         // clear all elements in vector
; 169  :         clear();

  00010	e59d000c	 ldr         r0, [sp, #0xC]
  00014	eb000000	 bl          |?clear@?$vector@KVallocator@ce@@U?$incremental_growth@$09@2@@ce@@QAAXXZ|

; 170  : 
; 171  :         // delete memory
; 172  :         deallocate(_First, capacity() * sizeof(T));

  00018	e59d000c	 ldr         r0, [sp, #0xC]
  0001c	eb000000	 bl          |?capacity@?$vector@KVallocator@ce@@U?$incremental_growth@$09@2@@ce@@QBAIXZ|
  00020	e58d0000	 str         r0, [sp]
  00024	e59d1000	 ldr         r1, [sp]
  00028	e3a03004	 mov         r3, #4
  0002c	e0020391	 mul         r2, r1, r3
  00030	e59d300c	 ldr         r3, [sp, #0xC]
  00034	e5931000	 ldr         r1, [r3]
  00038	e59d000c	 ldr         r0, [sp, #0xC]
  0003c	eb000000	 bl          |?deallocate@allocator@ce@@QBAXPAXI@Z|

; 173  :     }

  00040	e28dd004	 add         sp, sp, #4
  00044	e89d6000	 ldmia       sp, {sp, lr}
  00048	e12fff1e	 bx          lr
  0004c		 |$M39101|

			 ENDP  ; |??1?$vector@KVallocator@ce@@U?$incremental_growth@$09@2@@ce@@QAA@XZ|, ce::vector<unsigned long,ce::allocator,ce::incremental_growth<10> >::~vector<unsigned long,ce::allocator,ce::incremental_growth<10> >


  00000			 AREA	 |.pdata|, PDATA
|$T39111| DCD	|$LN5@begin@2|
	DCD	0x40000b04
; Function compile flags: /Odtp

  00000			 AREA	 |.text|, CODE, ARM

  00000		 |?begin@?$vector@KVallocator@ce@@U?$incremental_growth@$09@2@@ce@@QAAPAKXZ| PROC ; ce::vector<unsigned long,ce::allocator,ce::incremental_growth<10> >::begin

; 188  :         {return _First; }

  00000		 |$LN5@begin@2|
  00000	e1a0c00d	 mov         r12, sp
  00004	e92d0001	 stmdb       sp!, {r0}
  00008	e92d5000	 stmdb       sp!, {r12, lr}
  0000c	e24dd004	 sub         sp, sp, #4
  00010		 |$M39108|
  00010	e59d300c	 ldr         r3, [sp, #0xC]
  00014	e5933000	 ldr         r3, [r3]
  00018	e58d3000	 str         r3, [sp]
  0001c	e59d0000	 ldr         r0, [sp]
  00020	e28dd004	 add         sp, sp, #4
  00024	e89d6000	 ldmia       sp, {sp, lr}
  00028	e12fff1e	 bx          lr
  0002c		 |$M39109|

			 ENDP  ; |?begin@?$vector@KVallocator@ce@@U?$incremental_growth@$09@2@@ce@@QAAPAKXZ|, ce::vector<unsigned long,ce::allocator,ce::incremental_growth<10> >::begin

; File c:\wince600\public\common\oak\inc\list.hxx

  00000			 AREA	 |.pdata|, PDATA
|$T39119| DCD	|$LN5@operator@2|
	DCD	0x40000b04
; Function compile flags: /Odtp

  00000			 AREA	 |.text|, CODE, ARM

  00000		 |??Diterator@?$list@PAVBusDriverChild_t@@Vallocator@ce@@@ce@@QBAAAPAVBusDriverChild_t@@XZ| PROC ; ce::list<BusDriverChild_t *,ce::allocator>::iterator::operator*

; 526  :             {return _Ptr->_Value; }

  00000		 |$LN5@operator@2|
  00000	e1a0c00d	 mov         r12, sp
  00004	e92d0001	 stmdb       sp!, {r0}
  00008	e92d5000	 stmdb       sp!, {r12, lr}
  0000c	e24dd004	 sub         sp, sp, #4
  00010		 |$M39116|
  00010	e59d300c	 ldr         r3, [sp, #0xC]
  00014	e5933000	 ldr         r3, [r3]
  00018	e58d3000	 str         r3, [sp]
  0001c	e59d0000	 ldr         r0, [sp]
  00020	e28dd004	 add         sp, sp, #4
  00024	e89d6000	 ldmia       sp, {sp, lr}
  00028	e12fff1e	 bx          lr
  0002c		 |$M39117|

			 ENDP  ; |??Diterator@?$list@PAVBusDriverChild_t@@Vallocator@ce@@@ce@@QBAAAPAVBusDriverChild_t@@XZ|, ce::list<BusDriverChild_t *,ce::allocator>::iterator::operator*


  00000			 AREA	 |.pdata|, PDATA
|$T39127| DCD	|$LN5@operator@3|
	DCD	0x40001004
; Function compile flags: /Odtp

  00000			 AREA	 |.text|, CODE, ARM

  00000		 |??Eiterator@?$list@PAVBusDriverChild_t@@Vallocator@ce@@@ce@@QAAAAV012@XZ| PROC ; ce::list<BusDriverChild_t *,ce::allocator>::iterator::operator++

; 530  :             {_Ptr = _Ptr->_Next;

  00000		 |$LN5@operator@3|
  00000	e1a0c00d	 mov         r12, sp
  00004	e92d0001	 stmdb       sp!, {r0}
  00008	e92d5000	 stmdb       sp!, {r12, lr}
  0000c	e24dd004	 sub         sp, sp, #4
  00010		 |$M39124|
  00010	e59d300c	 ldr         r3, [sp, #0xC]
  00014	e5933000	 ldr         r3, [r3]
  00018	e2833004	 add         r3, r3, #4
  0001c	e5932000	 ldr         r2, [r3]
  00020	e59d300c	 ldr         r3, [sp, #0xC]
  00024	e5832000	 str         r2, [r3]

; 531  :             return (*this); }

  00028	e59d300c	 ldr         r3, [sp, #0xC]
  0002c	e58d3000	 str         r3, [sp]
  00030	e59d0000	 ldr         r0, [sp]
  00034	e28dd004	 add         sp, sp, #4
  00038	e89d6000	 ldmia       sp, {sp, lr}
  0003c	e12fff1e	 bx          lr
  00040		 |$M39125|

			 ENDP  ; |??Eiterator@?$list@PAVBusDriverChild_t@@Vallocator@ce@@@ce@@QAAAAV012@XZ|, ce::list<BusDriverChild_t *,ce::allocator>::iterator::operator++


  00000			 AREA	 |.pdata|, PDATA
|$T39135| DCD	|$LN5@operator@4|
	DCD	0x40001404
; Function compile flags: /Odtp

  00000			 AREA	 |.text|, CODE, ARM

  00000		 |??Eiterator@?$list@PAVBusDriverChild_t@@Vallocator@ce@@@ce@@QAA?AV012@H@Z| PROC ; ce::list<BusDriverChild_t *,ce::allocator>::iterator::operator++

; 533  :             {iterator Tmp = *this;

  00000		 |$LN5@operator@4|
  00000	e1a0c00d	 mov         r12, sp
  00004	e92d0007	 stmdb       sp!, {r0 - r2}
  00008	e92d5000	 stmdb       sp!, {r12, lr}
  0000c	e24dd008	 sub         sp, sp, #8
  00010		 |$M39132|
  00010	e59d1010	 ldr         r1, [sp, #0x10]
  00014	e28d0000	 add         r0, sp, #0
  00018	e3a02004	 mov         r2, #4
  0001c	eb000000	 bl          memcpy

; 534  :             ++*this;

  00020	e59d0010	 ldr         r0, [sp, #0x10]
  00024	eb000000	 bl          |??Eiterator@?$list@PAVBusDriverChild_t@@Vallocator@ce@@@ce@@QAAAAV012@XZ|

; 535  :             return (Tmp); }

  00028	e59d0014	 ldr         r0, [sp, #0x14]
  0002c	e28d1000	 add         r1, sp, #0
  00030	e3a02004	 mov         r2, #4
  00034	eb000000	 bl          memcpy
  00038	e59d3014	 ldr         r3, [sp, #0x14]
  0003c	e58d3004	 str         r3, [sp, #4]
  00040	e59d0004	 ldr         r0, [sp, #4]
  00044	e28dd008	 add         sp, sp, #8
  00048	e89d6000	 ldmia       sp, {sp, lr}
  0004c	e12fff1e	 bx          lr
  00050		 |$M39133|

			 ENDP  ; |??Eiterator@?$list@PAVBusDriverChild_t@@Vallocator@ce@@@ce@@QAA?AV012@H@Z|, ce::list<BusDriverChild_t *,ce::allocator>::iterator::operator++

	EXPORT	|??8iterator@?$list@PAVBusDriverChild_t@@Vallocator@ce@@@ce@@QBA_NABV012@@Z| ; ce::list<BusDriverChild_t *,ce::allocator>::iterator::operator==

  00000			 AREA	 |.pdata|, PDATA
|$T39145| DCD	|$LN7@operator@5|
	DCD	0x40001704
; Function compile flags: /Odtp

  00000			 AREA	 |.text|, CODE, ARM

  00000		 |??9iterator@?$list@PAVBusDriverChild_t@@Vallocator@ce@@@ce@@QBA_NABV012@@Z| PROC ; ce::list<BusDriverChild_t *,ce::allocator>::iterator::operator!=

; 546  :             {return (!(*this == it)); }

  00000		 |$LN7@operator@5|
  00000	e1a0c00d	 mov         r12, sp
  00004	e92d0003	 stmdb       sp!, {r0, r1}
  00008	e92d5000	 stmdb       sp!, {r12, lr}
  0000c	e24dd00c	 sub         sp, sp, #0xC
  00010		 |$M39142|
  00010	e59d1018	 ldr         r1, [sp, #0x18]
  00014	e59d0014	 ldr         r0, [sp, #0x14]
  00018	eb000000	 bl          |??8iterator@?$list@PAVBusDriverChild_t@@Vallocator@ce@@@ce@@QBA_NABV012@@Z|
  0001c	e5cd0004	 strb        r0, [sp, #4]
  00020	e5dd3004	 ldrb        r3, [sp, #4]
  00024	e3530000	 cmp         r3, #0
  00028	1a000002	 bne         |$LN3@operator@5|
  0002c	e3a03001	 mov         r3, #1
  00030	e58d3008	 str         r3, [sp, #8]
  00034	ea000001	 b           |$LN4@operator@5|
  00038		 |$LN3@operator@5|
  00038	e3a03000	 mov         r3, #0
  0003c	e58d3008	 str         r3, [sp, #8]
  00040		 |$LN4@operator@5|
  00040	e59d3008	 ldr         r3, [sp, #8]
  00044	e20330ff	 and         r3, r3, #0xFF
  00048	e5cd3000	 strb        r3, [sp]
  0004c	e5dd0000	 ldrb        r0, [sp]
  00050	e28dd00c	 add         sp, sp, #0xC
  00054	e89d6000	 ldmia       sp, {sp, lr}
  00058	e12fff1e	 bx          lr
  0005c		 |$M39143|

			 ENDP  ; |??9iterator@?$list@PAVBusDriverChild_t@@Vallocator@ce@@@ce@@QBA_NABV012@@Z|, ce::list<BusDriverChild_t *,ce::allocator>::iterator::operator!=

; File c:\wince600\public\common\oak\inc\string.hxx

  00000			 AREA	 |.pdata|, PDATA
|$T39153| DCD	|$LN9@length|
	DCD	0x40001e04
; Function compile flags: /Odtp

  00000			 AREA	 |.text|, CODE, ARM

  00000		 |?length@?$basic_char_traits@G@ce@@SAIPBG@Z| PROC ; ce::basic_char_traits<unsigned short>::length

; 706  :     {

  00000		 |$LN9@length|
  00000	e1a0c00d	 mov         r12, sp
  00004	e92d0001	 stmdb       sp!, {r0}
  00008	e92d5000	 stmdb       sp!, {r12, lr}
  0000c	e24dd008	 sub         sp, sp, #8
  00010		 |$M39150|

; 707  :         if(_U)

  00010	e59d3010	 ldr         r3, [sp, #0x10]
  00014	e3530000	 cmp         r3, #0
  00018	0a000010	 beq         |$LN4@length|

; 708  :         {
; 709  :             const T *eos = _U;

  0001c	e59d3010	 ldr         r3, [sp, #0x10]
  00020	e58d3000	 str         r3, [sp]
  00024		 |$LN3@length|

; 710  : 
; 711  :             while(*eos)

  00024	e59d3000	 ldr         r3, [sp]
  00028	e1d330b0	 ldrh        r3, [r3]
  0002c	e3530000	 cmp         r3, #0
  00030	0a000003	 beq         |$LN2@length|

; 712  :                 ++eos;

  00034	e59d3000	 ldr         r3, [sp]
  00038	e2833002	 add         r3, r3, #2
  0003c	e58d3000	 str         r3, [sp]
  00040	eafffff7	 b           |$LN3@length|
  00044		 |$LN2@length|

; 713  : 
; 714  :             return (size_t)(eos - _U);

  00044	e59d2000	 ldr         r2, [sp]
  00048	e59d3010	 ldr         r3, [sp, #0x10]
  0004c	e0423003	 sub         r3, r2, r3
  00050	e1a030c3	 mov         r3, r3, asr #1
  00054	e58d3004	 str         r3, [sp, #4]
  00058	ea000002	 b           |$LN5@length|

; 715  :         }
; 716  :         else

  0005c	ea000001	 b           |$LN1@length|
  00060		 |$LN4@length|

; 717  :             return 0;

  00060	e3a03000	 mov         r3, #0
  00064	e58d3004	 str         r3, [sp, #4]
  00068		 |$LN1@length|
  00068		 |$LN5@length|

; 718  :     }

  00068	e59d0004	 ldr         r0, [sp, #4]
  0006c	e28dd008	 add         sp, sp, #8
  00070	e89d6000	 ldmia       sp, {sp, lr}
  00074	e12fff1e	 bx          lr
  00078		 |$M39151|

			 ENDP  ; |?length@?$basic_char_traits@G@ce@@SAIPBG@Z|, ce::basic_char_traits<unsigned short>::length

	EXPORT	|?erase@?$list@PAVBusDriverChild_t@@Vallocator@ce@@@ce@@QAA?AViterator@12@V312@0@Z| ; ce::list<BusDriverChild_t *,ce::allocator>::erase
; File c:\wince600\public\common\oak\inc\list.hxx

  00000			 AREA	 |.pdata|, PDATA
|$T39163| DCD	|$LN5@clear|
	DCD	0x40001a04
; Function compile flags: /Odtp

  00000			 AREA	 |.text|, CODE, ARM

  00000		 |?clear@?$list@PAVBusDriverChild_t@@Vallocator@ce@@@ce@@QAAXXZ| PROC ; ce::list<BusDriverChild_t *,ce::allocator>::clear

; 265  :         {erase(begin(), end());}

  00000		 |$LN5@clear|
  00000	e1a0c00d	 mov         r12, sp
  00004	e92d0001	 stmdb       sp!, {r0}
  00008	e92d5000	 stmdb       sp!, {r12, lr}
  0000c	e24dd01c	 sub         sp, sp, #0x1C
  00010		 |$M39160|
  00010	e28d1000	 add         r1, sp, #0
  00014	e59d0024	 ldr         r0, [sp, #0x24]
  00018	eb000000	 bl          |?end@?$list@PAVBusDriverChild_t@@Vallocator@ce@@@ce@@QAA?AViterator@12@XZ|
  0001c	e58d000c	 str         r0, [sp, #0xC]
  00020	e28d1004	 add         r1, sp, #4
  00024	e59d0024	 ldr         r0, [sp, #0x24]
  00028	eb000000	 bl          |?begin@?$list@PAVBusDriverChild_t@@Vallocator@ce@@@ce@@QAA?AViterator@12@XZ|
  0002c	e58d0010	 str         r0, [sp, #0x10]
  00030	e59d300c	 ldr         r3, [sp, #0xC]
  00034	e58d3014	 str         r3, [sp, #0x14]
  00038	e59d3014	 ldr         r3, [sp, #0x14]
  0003c	e5933000	 ldr         r3, [r3]
  00040	e59d2010	 ldr         r2, [sp, #0x10]
  00044	e58d2018	 str         r2, [sp, #0x18]
  00048	e59d2018	 ldr         r2, [sp, #0x18]
  0004c	e5922000	 ldr         r2, [r2]
  00050	e28d1008	 add         r1, sp, #8
  00054	e59d0024	 ldr         r0, [sp, #0x24]
  00058	eb000000	 bl          |?erase@?$list@PAVBusDriverChild_t@@Vallocator@ce@@@ce@@QAA?AViterator@12@V312@0@Z|
  0005c	e28dd01c	 add         sp, sp, #0x1C
  00060	e89d6000	 ldmia       sp, {sp, lr}
  00064	e12fff1e	 bx          lr
  00068		 |$M39161|

			 ENDP  ; |?clear@?$list@PAVBusDriverChild_t@@Vallocator@ce@@@ce@@QAAXXZ|, ce::list<BusDriverChild_t *,ce::allocator>::clear


  00000			 AREA	 |.pdata|, PDATA
|$T39170| DCD	|$LN5@Freenode|
	DCD	0x40000903
; Function compile flags: /Odtp

  00000			 AREA	 |.text|, CODE, ARM

  00000		 |?_Freenode@?$list@PAVBusDriverChild_t@@Vallocator@ce@@@ce@@IAAXPAU_Node@12@@Z| PROC ; ce::list<BusDriverChild_t *,ce::allocator>::_Freenode

; 574  :         {deallocate(Node, sizeof(_Node)); }

  00000		 |$LN5@Freenode|
  00000	e1a0c00d	 mov         r12, sp
  00004	e92d0003	 stmdb       sp!, {r0, r1}
  00008	e92d5000	 stmdb       sp!, {r12, lr}
  0000c		 |$M39167|
  0000c	e3a0200c	 mov         r2, #0xC
  00010	e59d100c	 ldr         r1, [sp, #0xC]
  00014	e59d0008	 ldr         r0, [sp, #8]
  00018	eb000000	 bl          |?deallocate@allocator@ce@@QBAXPAXI@Z|
  0001c	e89d6000	 ldmia       sp, {sp, lr}
  00020	e12fff1e	 bx          lr
  00024		 |$M39168|

			 ENDP  ; |?_Freenode@?$list@PAVBusDriverChild_t@@Vallocator@ce@@@ce@@IAAXPAU_Node@12@@Z|, ce::list<BusDriverChild_t *,ce::allocator>::_Freenode

	EXPORT	|?_Eos@?$_string_t@G$0BA@U?$char_traits@G@ce@@Vallocator@2@@ce@@IAAXI@Z| ; ce::_string_t<unsigned short,16,ce::char_traits<unsigned short>,ce::allocator>::_Eos
	EXPORT	|?copy@?$basic_char_traits@G@ce@@SAPAGPAGPBGI@Z| ; ce::basic_char_traits<unsigned short>::copy
	EXPORT	|?_Grow@?$_string_t@G$0BA@U?$char_traits@G@ce@@Vallocator@2@@ce@@IAA_NI@Z| ; ce::_string_t<unsigned short,16,ce::char_traits<unsigned short>,ce::allocator>::_Grow
	EXPORT	|??_C@_1NO@EPJCCCDB@?$AA?$AN?$AA?6?$AA?$CK?$AA?$CK?$AA?$CK?$AA?5?$AAA?$AAS?$AAS?$AAE?$AAR?$AAT?$AAI?$AAO?$AAN?$AA?5?$AAF?$AAA?$AAI?$AAL?$AAE?$AAD?$AA?5?$AAi?$AAn?$AA?5?$AAC?$AA?3?$AA?2?$AAW?$AAI?$AAN@| [ DATA ] ; `string'
; File c:\wince600\public\common\oak\inc\string.hxx

  00000			 AREA	 |.pdata|, PDATA
|$T39179| DCD	|$LN9@insert@2|
	DCD	0x40005e04

  00000			 AREA	 |.rdata|, DATA, READONLY
|??_C@_1NO@EPJCCCDB@?$AA?$AN?$AA?6?$AA?$CK?$AA?$CK?$AA?$CK?$AA?5?$AAA?$AAS?$AAS?$AAE?$AAR?$AAT?$AAI?$AAO?$AAN?$AA?5?$AAF?$AAA?$AAI?$AAL?$AAE?$AAD?$AA?5?$AAi?$AAn?$AA?5?$AAC?$AA?3?$AA?2?$AAW?$AAI?$AAN@| DCB 0xd
	DCB	0x0, 0xa, 0x0, "*", 0x0, "*", 0x0, "*", 0x0, " ", 0x0, "A"
	DCB	0x0, "S", 0x0, "S", 0x0, "E", 0x0, "R", 0x0, "T", 0x0, "I"
	DCB	0x0, "O", 0x0, "N", 0x0, " ", 0x0, "F", 0x0, "A", 0x0, "I"
	DCB	0x0, "L", 0x0, "E", 0x0, "D", 0x0, " ", 0x0, "i", 0x0, "n"
	DCB	0x0, " ", 0x0, "C", 0x0, ":", 0x0, "\\", 0x0, "W", 0x0, "I"
	DCB	0x0, "N", 0x0, "C", 0x0, "E", 0x0, "6", 0x0, "0", 0x0, "0"
	DCB	0x0, "\\", 0x0, "p", 0x0, "u", 0x0, "b", 0x0, "l", 0x0, "i"
	DCB	0x0, "c", 0x0, "\\", 0x0, "c", 0x0, "o", 0x0, "m", 0x0, "m"
	DCB	0x0, "o", 0x0, "n", 0x0, "\\", 0x0, "o", 0x0, "a", 0x0, "k"
	DCB	0x0, "\\", 0x0, "i", 0x0, "n", 0x0, "c", 0x0, "\\", 0x0, "s"
	DCB	0x0, "t", 0x0, "r", 0x0, "i", 0x0, "n", 0x0, "g", 0x0, "."
	DCB	0x0, "h", 0x0, "x", 0x0, "x", 0x0, "(", 0x0, "3", 0x0, "4"
	DCB	0x0, "8", 0x0, ")", 0x0, ":", 0x0, 0xd, 0x0, 0xa, 0x0, "_"
	DCB	0x0, "S", 0x0, " ", 0x0, "<", 0x0, " ", 0x0, "_", 0x0, "P"
	DCB	0x0, "t", 0x0, "r", 0x0, " ", 0x0, "|", 0x0, "|", 0x0, " "
	DCB	0x0, "_", 0x0, "S", 0x0, " ", 0x0, ">", 0x0, "=", 0x0, " "
	DCB	0x0, "_", 0x0, "P", 0x0, "t", 0x0, "r", 0x0, " ", 0x0, "+"
	DCB	0x0, " ", 0x0, "_", 0x0, "L", 0x0, "e", 0x0, "n", 0x0, 0xd
	DCB	0x0, 0xa, 0x0, 0x0, 0x0			; `string'
; Function compile flags: /Odtp

  00000			 AREA	 |.text|, CODE, ARM

  00000		 |?insert@?$_string_t@G$0BA@U?$char_traits@G@ce@@Vallocator@2@@ce@@QAA_NIPBGI@Z| PROC ; ce::_string_t<unsigned short,16,ce::char_traits<unsigned short>,ce::allocator>::insert

; 346  :     {

  00000		 |$LN9@insert@2|
  00000	e1a0c00d	 mov         r12, sp
  00004	e92d000f	 stmdb       sp!, {r0 - r3}
  00008	e92d5000	 stmdb       sp!, {r12, lr}
  0000c	e24dd00c	 sub         sp, sp, #0xC
  00010		 |$M39176|

; 347  :         // behavior of insert is undefined when inserting substring
; 348  :         assert(_S < _Ptr || _S >= _Ptr + _Len);

  00010	e59d201c	 ldr         r2, [sp, #0x1C]
  00014	e59d3014	 ldr         r3, [sp, #0x14]
  00018	e5933000	 ldr         r3, [r3]
  0001c	e1520003	 cmp         r2, r3
  00020	3a00000d	 bcc         |$LN6@insert@2|
  00024	e59d3014	 ldr         r3, [sp, #0x14]
  00028	e2833028	 add         r3, r3, #0x28
  0002c	e5931000	 ldr         r1, [r3]
  00030	e3a03002	 mov         r3, #2
  00034	e0020391	 mul         r2, r1, r3
  00038	e59d3014	 ldr         r3, [sp, #0x14]
  0003c	e5933000	 ldr         r3, [r3]
  00040	e0832002	 add         r2, r3, r2
  00044	e59d301c	 ldr         r3, [sp, #0x1C]
  00048	e1530002	 cmp         r3, r2
  0004c	2a000002	 bcs         |$LN6@insert@2|
  00050	e59f011c	 ldr         r0, [pc, #0x11C]
  00054	eb000000	 bl          OutputDebugStringW
  00058	e6000010	 __debugbreak_ce
  0005c		 |$LN6@insert@2|

; 349  :         
; 350  :         if(0 < _Count)

  0005c	e59d3020	 ldr         r3, [sp, #0x20]
  00060	e3530000	 cmp         r3, #0
  00064	9a00003c	 bls         |$LN3@insert@2|

; 351  :         {
; 352  :             size_type _Num;
; 353  :             
; 354  :             if(_Len + _Count >= _Len &&     // protect against integer overflow
; 355  :                _Grow(_Num = _Len + _Count))

  00068	e59d3014	 ldr         r3, [sp, #0x14]
  0006c	e2833028	 add         r3, r3, #0x28
  00070	e5932000	 ldr         r2, [r3]
  00074	e59d3020	 ldr         r3, [sp, #0x20]
  00078	e0822003	 add         r2, r2, r3
  0007c	e59d3014	 ldr         r3, [sp, #0x14]
  00080	e2833028	 add         r3, r3, #0x28
  00084	e5933000	 ldr         r3, [r3]
  00088	e1520003	 cmp         r2, r3
  0008c	3a00002f	 bcc         |$LN2@insert@2|
  00090	e59d3014	 ldr         r3, [sp, #0x14]
  00094	e2833028	 add         r3, r3, #0x28
  00098	e5932000	 ldr         r2, [r3]
  0009c	e59d3020	 ldr         r3, [sp, #0x20]
  000a0	e0823003	 add         r3, r2, r3
  000a4	e58d3000	 str         r3, [sp]
  000a8	e59d1000	 ldr         r1, [sp]
  000ac	e59d0014	 ldr         r0, [sp, #0x14]
  000b0	eb000000	 bl          |?_Grow@?$_string_t@G$0BA@U?$char_traits@G@ce@@Vallocator@2@@ce@@IAA_NI@Z|
  000b4	e5cd0008	 strb        r0, [sp, #8]
  000b8	e5dd3008	 ldrb        r3, [sp, #8]
  000bc	e3530000	 cmp         r3, #0
  000c0	0a000022	 beq         |$LN2@insert@2|

; 356  :             {
; 357  :                 _Tr::copy(_Ptr + _Off + _Count, _Ptr + _Off, _Len - _Off);

  000c4	e59d3014	 ldr         r3, [sp, #0x14]
  000c8	e2833028	 add         r3, r3, #0x28
  000cc	e5932000	 ldr         r2, [r3]
  000d0	e59d3018	 ldr         r3, [sp, #0x18]
  000d4	e0422003	 sub         r2, r2, r3
  000d8	e59d0018	 ldr         r0, [sp, #0x18]
  000dc	e3a03002	 mov         r3, #2
  000e0	e0010390	 mul         r1, r0, r3
  000e4	e59d3014	 ldr         r3, [sp, #0x14]
  000e8	e5933000	 ldr         r3, [r3]
  000ec	e0831001	 add         r1, r3, r1
  000f0	e59de018	 ldr         lr, [sp, #0x18]
  000f4	e3a03002	 mov         r3, #2
  000f8	e000039e	 mul         r0, lr, r3
  000fc	e59d3014	 ldr         r3, [sp, #0x14]
  00100	e5933000	 ldr         r3, [r3]
  00104	e083e000	 add         lr, r3, r0
  00108	e59d0020	 ldr         r0, [sp, #0x20]
  0010c	e3a03002	 mov         r3, #2
  00110	e0030390	 mul         r3, r0, r3
  00114	e08e0003	 add         r0, lr, r3
  00118	eb000000	 bl          |?copy@?$basic_char_traits@G@ce@@SAPAGPAGPBGI@Z|

; 358  :                 _Tr::copy(_Ptr + _Off, _S, _Count);

  0011c	e59d2020	 ldr         r2, [sp, #0x20]
  00120	e59d101c	 ldr         r1, [sp, #0x1C]
  00124	e59de018	 ldr         lr, [sp, #0x18]
  00128	e3a03002	 mov         r3, #2
  0012c	e000039e	 mul         r0, lr, r3
  00130	e59d3014	 ldr         r3, [sp, #0x14]
  00134	e5933000	 ldr         r3, [r3]
  00138	e0830000	 add         r0, r3, r0
  0013c	eb000000	 bl          |?copy@?$basic_char_traits@G@ce@@SAPAGPAGPBGI@Z|

; 359  :                 _Eos(_Num);

  00140	e59d1000	 ldr         r1, [sp]
  00144	e59d0014	 ldr         r0, [sp, #0x14]
  00148	eb000000	 bl          |?_Eos@?$_string_t@G$0BA@U?$char_traits@G@ce@@Vallocator@2@@ce@@IAAXI@Z|

; 360  :             }
; 361  :             else

  0014c	ea000002	 b           |$LN1@insert@2|
  00150		 |$LN2@insert@2|

; 362  :                 return false;

  00150	e3a03000	 mov         r3, #0
  00154	e5cd3004	 strb        r3, [sp, #4]
  00158	ea000001	 b           |$LN4@insert@2|
  0015c		 |$LN1@insert@2|
  0015c		 |$LN3@insert@2|

; 363  :         }
; 364  :         
; 365  :         return true;

  0015c	e3a03001	 mov         r3, #1
  00160	e5cd3004	 strb        r3, [sp, #4]
  00164		 |$LN4@insert@2|

; 366  :     }

  00164	e5dd0004	 ldrb        r0, [sp, #4]
  00168	e28dd00c	 add         sp, sp, #0xC
  0016c	e89d6000	 ldmia       sp, {sp, lr}
  00170	e12fff1e	 bx          lr
  00174		 |$LN10@insert@2|
  00174		 |$LN11@insert@2|
  00174	00000000	 DCD         |??_C@_1NO@EPJCCCDB@?$AA?$AN?$AA?6?$AA?$CK?$AA?$CK?$AA?$CK?$AA?5?$AAA?$AAS?$AAS?$AAE?$AAR?$AAT?$AAI?$AAO?$AAN?$AA?5?$AAF?$AAA?$AAI?$AAL?$AAE?$AAD?$AA?5?$AAi?$AAn?$AA?5?$AAC?$AA?3?$AA?2?$AAW?$AAI?$AAN@|
  00178		 |$M39177|

			 ENDP  ; |?insert@?$_string_t@G$0BA@U?$char_traits@G@ce@@Vallocator@2@@ce@@QAA_NIPBGI@Z|, ce::_string_t<unsigned short,16,ce::char_traits<unsigned short>,ce::allocator>::insert


  00000			 AREA	 |.pdata|, PDATA
|$T39188| DCD	|$LN5@Init@2|
	DCD	0x40001a03
; Function compile flags: /Odtp

  00000			 AREA	 |.text|, CODE, ARM

  00000		 |?_Init@?$_string_t@G$0BA@U?$char_traits@G@ce@@Vallocator@2@@ce@@IAAXXZ| PROC ; ce::_string_t<unsigned short,16,ce::char_traits<unsigned short>,ce::allocator>::_Init

; 512  :     {

  00000		 |$LN5@Init@2|
  00000	e1a0c00d	 mov         r12, sp
  00004	e92d0001	 stmdb       sp!, {r0}
  00008	e92d5000	 stmdb       sp!, {r12, lr}
  0000c		 |$M39185|

; 513  :         _Res = _BUF_SIZE;

  0000c	e59d3008	 ldr         r3, [sp, #8]
  00010	e283202c	 add         r2, r3, #0x2C
  00014	e3a03010	 mov         r3, #0x10
  00018	e5823000	 str         r3, [r2]

; 514  :         _Ptr = _Buf;

  0001c	e59d3008	 ldr         r3, [sp, #8]
  00020	e2832004	 add         r2, r3, #4
  00024	e59d3008	 ldr         r3, [sp, #8]
  00028	e5832000	 str         r2, [r3]

; 515  :         _Ptr[_Res] = T(0);

  0002c	e59d3008	 ldr         r3, [sp, #8]
  00030	e283302c	 add         r3, r3, #0x2C
  00034	e5931000	 ldr         r1, [r3]
  00038	e3a03002	 mov         r3, #2
  0003c	e0020391	 mul         r2, r1, r3
  00040	e59d3008	 ldr         r3, [sp, #8]
  00044	e5933000	 ldr         r3, [r3]
  00048	e0832002	 add         r2, r3, r2
  0004c	e3a03000	 mov         r3, #0
  00050	e1c230b0	 strh        r3, [r2]

; 516  :         _Eos(0);

  00054	e3a01000	 mov         r1, #0
  00058	e59d0008	 ldr         r0, [sp, #8]
  0005c	eb000000	 bl          |?_Eos@?$_string_t@G$0BA@U?$char_traits@G@ce@@Vallocator@2@@ce@@IAAXI@Z|

; 517  :     }

  00060	e89d6000	 ldmia       sp, {sp, lr}
  00064	e12fff1e	 bx          lr
  00068		 |$M39186|

			 ENDP  ; |?_Init@?$_string_t@G$0BA@U?$char_traits@G@ce@@Vallocator@2@@ce@@IAAXXZ|, ce::_string_t<unsigned short,16,ce::char_traits<unsigned short>,ce::allocator>::_Init

	EXPORT	|?erase@?$vector@KVallocator@ce@@U?$incremental_growth@$09@2@@ce@@QAAXPAK0@Z| ; ce::vector<unsigned long,ce::allocator,ce::incremental_growth<10> >::erase
	EXPORT	|?end@?$vector@KVallocator@ce@@U?$incremental_growth@$09@2@@ce@@QAAPAKXZ| ; ce::vector<unsigned long,ce::allocator,ce::incremental_growth<10> >::end
; File c:\wince600\public\common\oak\inc\vector.hxx

  00000			 AREA	 |.pdata|, PDATA
|$T39195| DCD	|$LN5@clear@2|
	DCD	0x40001104
; Function compile flags: /Odtp

  00000			 AREA	 |.text|, CODE, ARM

  00000		 |?clear@?$vector@KVallocator@ce@@U?$incremental_growth@$09@2@@ce@@QAAXXZ| PROC ; ce::vector<unsigned long,ce::allocator,ce::incremental_growth<10> >::clear

; 270  :     {

  00000		 |$LN5@clear@2|
  00000	e1a0c00d	 mov         r12, sp
  00004	e92d0001	 stmdb       sp!, {r0}
  00008	e92d5000	 stmdb       sp!, {r12, lr}
  0000c	e24dd008	 sub         sp, sp, #8
  00010		 |$M39192|

; 271  :         erase(begin(), end());

  00010	e59d0010	 ldr         r0, [sp, #0x10]
  00014	eb000000	 bl          |?end@?$vector@KVallocator@ce@@U?$incremental_growth@$09@2@@ce@@QAAPAKXZ|
  00018	e58d0000	 str         r0, [sp]
  0001c	e59d0010	 ldr         r0, [sp, #0x10]
  00020	eb000000	 bl          |?begin@?$vector@KVallocator@ce@@U?$incremental_growth@$09@2@@ce@@QAAPAKXZ|
  00024	e58d0004	 str         r0, [sp, #4]
  00028	e59d2000	 ldr         r2, [sp]
  0002c	e59d1004	 ldr         r1, [sp, #4]
  00030	e59d0010	 ldr         r0, [sp, #0x10]
  00034	eb000000	 bl          |?erase@?$vector@KVallocator@ce@@U?$incremental_growth@$09@2@@ce@@QAAXPAK0@Z|

; 272  :     }

  00038	e28dd008	 add         sp, sp, #8
  0003c	e89d6000	 ldmia       sp, {sp, lr}
  00040	e12fff1e	 bx          lr
  00044		 |$M39193|

			 ENDP  ; |?clear@?$vector@KVallocator@ce@@U?$incremental_growth@$09@2@@ce@@QAAXXZ|, ce::vector<unsigned long,ce::allocator,ce::incremental_growth<10> >::clear


  00000			 AREA	 |.pdata|, PDATA
|$T39203| DCD	|$LN5@capacity|
	DCD	0x40001004
; Function compile flags: /Odtp

  00000			 AREA	 |.text|, CODE, ARM

  00000		 |?capacity@?$vector@KVallocator@ce@@U?$incremental_growth@$09@2@@ce@@QBAIXZ| PROC ; ce::vector<unsigned long,ce::allocator,ce::incremental_growth<10> >::capacity

; 283  :         {return _End - _First; }

  00000		 |$LN5@capacity|
  00000	e1a0c00d	 mov         r12, sp
  00004	e92d0001	 stmdb       sp!, {r0}
  00008	e92d5000	 stmdb       sp!, {r12, lr}
  0000c	e24dd004	 sub         sp, sp, #4
  00010		 |$M39200|
  00010	e59d300c	 ldr         r3, [sp, #0xC]
  00014	e2833008	 add         r3, r3, #8
  00018	e5932000	 ldr         r2, [r3]
  0001c	e59d300c	 ldr         r3, [sp, #0xC]
  00020	e5933000	 ldr         r3, [r3]
  00024	e0423003	 sub         r3, r2, r3
  00028	e1a03143	 mov         r3, r3, asr #2
  0002c	e58d3000	 str         r3, [sp]
  00030	e59d0000	 ldr         r0, [sp]
  00034	e28dd004	 add         sp, sp, #4
  00038	e89d6000	 ldmia       sp, {sp, lr}
  0003c	e12fff1e	 bx          lr
  00040		 |$M39201|

			 ENDP  ; |?capacity@?$vector@KVallocator@ce@@U?$incremental_growth@$09@2@@ce@@QBAIXZ|, ce::vector<unsigned long,ce::allocator,ce::incremental_growth<10> >::capacity

	EXPORT	|??0const_iterator@?$list@PAVBusDriverChild_t@@Vallocator@ce@@@ce@@QAA@PAU_Node@12@@Z| ; ce::list<BusDriverChild_t *,ce::allocator>::const_iterator::const_iterator
; File c:\wince600\public\common\oak\inc\list.hxx

  00000			 AREA	 |.pdata|, PDATA
|$T39211| DCD	|$LN5@iterator|
	DCD	0x40000d04
; Function compile flags: /Odtp

  00000			 AREA	 |.text|, CODE, ARM

  00000		 |??0iterator@?$list@PAVBusDriverChild_t@@Vallocator@ce@@@ce@@QAA@PAU_Node@12@@Z| PROC ; ce::list<BusDriverChild_t *,ce::allocator>::iterator::iterator

; 523  :         iterator(_NodePtr _P)

  00000		 |$LN5@iterator|
  00000	e1a0c00d	 mov         r12, sp
  00004	e92d0003	 stmdb       sp!, {r0, r1}
  00008	e92d5000	 stmdb       sp!, {r12, lr}
  0000c	e24dd004	 sub         sp, sp, #4
  00010		 |$M39208|
  00010	e59d1010	 ldr         r1, [sp, #0x10]
  00014	e59d000c	 ldr         r0, [sp, #0xC]
  00018	eb000000	 bl          |??0const_iterator@?$list@PAVBusDriverChild_t@@Vallocator@ce@@@ce@@QAA@PAU_Node@12@@Z|
  0001c	e59d300c	 ldr         r3, [sp, #0xC]
  00020	e58d3000	 str         r3, [sp]
  00024	e59d0000	 ldr         r0, [sp]
  00028	e28dd004	 add         sp, sp, #4
  0002c	e89d6000	 ldmia       sp, {sp, lr}
  00030	e12fff1e	 bx          lr
  00034		 |$M39209|

			 ENDP  ; |??0iterator@?$list@PAVBusDriverChild_t@@Vallocator@ce@@@ce@@QAA@PAU_Node@12@@Z|, ce::list<BusDriverChild_t *,ce::allocator>::iterator::iterator


  00000			 AREA	 |.pdata|, PDATA
|$T39221| DCD	|$LN7@operator@6|
	DCD	0x40001604
; Function compile flags: /Odtp

  00000			 AREA	 |.text|, CODE, ARM

  00000		 |??8iterator@?$list@PAVBusDriverChild_t@@Vallocator@ce@@@ce@@QBA_NABV012@@Z| PROC ; ce::list<BusDriverChild_t *,ce::allocator>::iterator::operator==

; 544  :             {return (_Ptr == it._Ptr); }

  00000		 |$LN7@operator@6|
  00000	e1a0c00d	 mov         r12, sp
  00004	e92d0003	 stmdb       sp!, {r0, r1}
  00008	e92d5000	 stmdb       sp!, {r12, lr}
  0000c	e24dd008	 sub         sp, sp, #8
  00010		 |$M39218|
  00010	e59d3010	 ldr         r3, [sp, #0x10]
  00014	e5932000	 ldr         r2, [r3]
  00018	e59d3014	 ldr         r3, [sp, #0x14]
  0001c	e5933000	 ldr         r3, [r3]
  00020	e1520003	 cmp         r2, r3
  00024	1a000002	 bne         |$LN3@operator@6|
  00028	e3a03001	 mov         r3, #1
  0002c	e58d3004	 str         r3, [sp, #4]
  00030	ea000001	 b           |$LN4@operator@6|
  00034		 |$LN3@operator@6|
  00034	e3a03000	 mov         r3, #0
  00038	e58d3004	 str         r3, [sp, #4]
  0003c		 |$LN4@operator@6|
  0003c	e59d3004	 ldr         r3, [sp, #4]
  00040	e20330ff	 and         r3, r3, #0xFF
  00044	e5cd3000	 strb        r3, [sp]
  00048	e5dd0000	 ldrb        r0, [sp]
  0004c	e28dd008	 add         sp, sp, #8
  00050	e89d6000	 ldmia       sp, {sp, lr}
  00054	e12fff1e	 bx          lr
  00058		 |$M39219|

			 ENDP  ; |??8iterator@?$list@PAVBusDriverChild_t@@Vallocator@ce@@@ce@@QBA_NABV012@@Z|, ce::list<BusDriverChild_t *,ce::allocator>::iterator::operator==


  00000			 AREA	 |.pdata|, PDATA
|$T39229| DCD	|$LN5@MyNode|
	DCD	0x40000b04
; Function compile flags: /Odtp

  00000			 AREA	 |.text|, CODE, ARM

  00000		 |?_MyNode@const_iterator@?$list@PAVBusDriverChild_t@@Vallocator@ce@@@ce@@QBAPAU_Node@23@XZ| PROC ; ce::list<BusDriverChild_t *,ce::allocator>::const_iterator::_MyNode

; 511  :             {return (_Ptr); }

  00000		 |$LN5@MyNode|
  00000	e1a0c00d	 mov         r12, sp
  00004	e92d0001	 stmdb       sp!, {r0}
  00008	e92d5000	 stmdb       sp!, {r12, lr}
  0000c	e24dd004	 sub         sp, sp, #4
  00010		 |$M39226|
  00010	e59d300c	 ldr         r3, [sp, #0xC]
  00014	e5933000	 ldr         r3, [r3]
  00018	e58d3000	 str         r3, [sp]
  0001c	e59d0000	 ldr         r0, [sp]
  00020	e28dd004	 add         sp, sp, #4
  00024	e89d6000	 ldmia       sp, {sp, lr}
  00028	e12fff1e	 bx          lr
  0002c		 |$M39227|

			 ENDP  ; |?_MyNode@const_iterator@?$list@PAVBusDriverChild_t@@Vallocator@ce@@@ce@@QBAPAU_Node@23@XZ|, ce::list<BusDriverChild_t *,ce::allocator>::const_iterator::_MyNode

	IMPORT	|memmove|
; File c:\wince600\public\common\oak\inc\string.hxx

  00000			 AREA	 |.pdata|, PDATA
|$T39237| DCD	|$LN5@copy|
	DCD	0x40001104
; Function compile flags: /Odtp

  00000			 AREA	 |.text|, CODE, ARM

  00000		 |?copy@?$basic_char_traits@G@ce@@SAPAGPAGPBGI@Z| PROC ; ce::basic_char_traits<unsigned short>::copy

; 700  :         {return (T*)memmove(_U, _V, _N * sizeof(T)); }

  00000		 |$LN5@copy|
  00000	e1a0c00d	 mov         r12, sp
  00004	e92d0007	 stmdb       sp!, {r0 - r2}
  00008	e92d5000	 stmdb       sp!, {r12, lr}
  0000c	e24dd008	 sub         sp, sp, #8
  00010		 |$M39234|
  00010	e59d1018	 ldr         r1, [sp, #0x18]
  00014	e3a03002	 mov         r3, #2
  00018	e0020391	 mul         r2, r1, r3
  0001c	e59d1014	 ldr         r1, [sp, #0x14]
  00020	e59d0010	 ldr         r0, [sp, #0x10]
  00024	eb000000	 bl          memmove
  00028	e58d0004	 str         r0, [sp, #4]
  0002c	e59d3004	 ldr         r3, [sp, #4]
  00030	e58d3000	 str         r3, [sp]
  00034	e59d0000	 ldr         r0, [sp]
  00038	e28dd008	 add         sp, sp, #8
  0003c	e89d6000	 ldmia       sp, {sp, lr}
  00040	e12fff1e	 bx          lr
  00044		 |$M39235|

			 ENDP  ; |?copy@?$basic_char_traits@G@ce@@SAPAGPAGPBGI@Z|, ce::basic_char_traits<unsigned short>::copy

; File c:\wince600\public\common\oak\inc\list.hxx

  00000			 AREA	 |.pdata|, PDATA
|$T39247| DCD	|$LN7@erase@2|
	DCD	0x40002204
; Function compile flags: /Odtp

  00000			 AREA	 |.text|, CODE, ARM

  00000		 |?erase@?$list@PAVBusDriverChild_t@@Vallocator@ce@@@ce@@QAA?AViterator@12@V312@0@Z| PROC ; ce::list<BusDriverChild_t *,ce::allocator>::erase

; 383  :     {    

  00000		 |$LN7@erase@2|
  00000	e1a0c00d	 mov         r12, sp
  00004	e92d000f	 stmdb       sp!, {r0 - r3}
  00008	e92d5000	 stmdb       sp!, {r12, lr}
  0000c	e24dd018	 sub         sp, sp, #0x18
  00010		 |$M39244|
  00010		 |$LN2@erase@2|

; 384  :         while (First != Last)

  00010	e28d102c	 add         r1, sp, #0x2C
  00014	e28d0028	 add         r0, sp, #0x28
  00018	eb000000	 bl          |??9iterator@?$list@PAVBusDriverChild_t@@Vallocator@ce@@@ce@@QBA_NABV012@@Z|
  0001c	e5cd000c	 strb        r0, [sp, #0xC]
  00020	e5dd300c	 ldrb        r3, [sp, #0xC]
  00024	e3530000	 cmp         r3, #0
  00028	0a00000c	 beq         |$LN1@erase@2|

; 385  :             erase(First++);

  0002c	e3a02000	 mov         r2, #0
  00030	e28d1000	 add         r1, sp, #0
  00034	e28d0028	 add         r0, sp, #0x28
  00038	eb000000	 bl          |??Eiterator@?$list@PAVBusDriverChild_t@@Vallocator@ce@@@ce@@QAA?AV012@H@Z|
  0003c	e58d0010	 str         r0, [sp, #0x10]
  00040	e59d3010	 ldr         r3, [sp, #0x10]
  00044	e58d3014	 str         r3, [sp, #0x14]
  00048	e59d3014	 ldr         r3, [sp, #0x14]
  0004c	e5932000	 ldr         r2, [r3]
  00050	e28d1004	 add         r1, sp, #4
  00054	e59d0020	 ldr         r0, [sp, #0x20]
  00058	eb000000	 bl          |?erase@?$list@PAVBusDriverChild_t@@Vallocator@ce@@@ce@@QAA?AViterator@12@V312@@Z|
  0005c	eaffffeb	 b           |$LN2@erase@2|
  00060		 |$LN1@erase@2|

; 386  :         
; 387  :         return First; 

  00060	e59d0024	 ldr         r0, [sp, #0x24]
  00064	e28d1028	 add         r1, sp, #0x28
  00068	e3a02004	 mov         r2, #4
  0006c	eb000000	 bl          memcpy
  00070	e59d3024	 ldr         r3, [sp, #0x24]
  00074	e58d3008	 str         r3, [sp, #8]

; 388  :     }

  00078	e59d0008	 ldr         r0, [sp, #8]
  0007c	e28dd018	 add         sp, sp, #0x18
  00080	e89d6000	 ldmia       sp, {sp, lr}
  00084	e12fff1e	 bx          lr
  00088		 |$M39245|

			 ENDP  ; |?erase@?$list@PAVBusDriverChild_t@@Vallocator@ce@@@ce@@QAA?AViterator@12@V312@0@Z|, ce::list<BusDriverChild_t *,ce::allocator>::erase

	EXPORT	|??_C@_1LG@NOBEJLPK@?$AA?$AN?$AA?6?$AA?$CK?$AA?$CK?$AA?$CK?$AA?5?$AAA?$AAS?$AAS?$AAE?$AAR?$AAT?$AAI?$AAO?$AAN?$AA?5?$AAF?$AAA?$AAI?$AAL?$AAE?$AAD?$AA?5?$AAi?$AAn?$AA?5?$AAC?$AA?3?$AA?2?$AAW?$AAI?$AAN@| [ DATA ] ; `string'
	EXPORT	|?allocate@allocator@ce@@QBAPAXI@Z|	; ce::allocator::allocate
	IMPORT	|__rt_udiv|
; File c:\wince600\public\common\oak\inc\string.hxx

  00000			 AREA	 |.pdata|, PDATA
|$T39257| DCD	|$LN11@Grow|
	DCD	0x40006e04

  00000			 AREA	 |.rdata|, DATA, READONLY
|??_C@_1LG@NOBEJLPK@?$AA?$AN?$AA?6?$AA?$CK?$AA?$CK?$AA?$CK?$AA?5?$AAA?$AAS?$AAS?$AAE?$AAR?$AAT?$AAI?$AAO?$AAN?$AA?5?$AAF?$AAA?$AAI?$AAL?$AAE?$AAD?$AA?5?$AAi?$AAn?$AA?5?$AAC?$AA?3?$AA?2?$AAW?$AAI?$AAN@| DCB 0xd
	DCB	0x0, 0xa, 0x0, "*", 0x0, "*", 0x0, "*", 0x0, " ", 0x0, "A"
	DCB	0x0, "S", 0x0, "S", 0x0, "E", 0x0, "R", 0x0, "T", 0x0, "I"
	DCB	0x0, "O", 0x0, "N", 0x0, " ", 0x0, "F", 0x0, "A", 0x0, "I"
	DCB	0x0, "L", 0x0, "E", 0x0, "D", 0x0, " ", 0x0, "i", 0x0, "n"
	DCB	0x0, " ", 0x0, "C", 0x0, ":", 0x0, "\\", 0x0, "W", 0x0, "I"
	DCB	0x0, "N", 0x0, "C", 0x0, "E", 0x0, "6", 0x0, "0", 0x0, "0"
	DCB	0x0, "\\", 0x0, "p", 0x0, "u", 0x0, "b", 0x0, "l", 0x0, "i"
	DCB	0x0, "c", 0x0, "\\", 0x0, "c", 0x0, "o", 0x0, "m", 0x0, "m"
	DCB	0x0, "o", 0x0, "n", 0x0, "\\", 0x0, "o", 0x0, "a", 0x0, "k"
	DCB	0x0, "\\", 0x0, "i", 0x0, "n", 0x0, "c", 0x0, "\\", 0x0, "s"
	DCB	0x0, "t", 0x0, "r", 0x0, "i", 0x0, "n", 0x0, "g", 0x0, "."
	DCB	0x0, "h", 0x0, "x", 0x0, "x", 0x0, "(", 0x0, "5", 0x0, "5"
	DCB	0x0, "1", 0x0, ")", 0x0, ":", 0x0, 0xd, 0x0, 0xa, 0x0, "_"
	DCB	0x0, "R", 0x0, "e", 0x0, "s", 0x0, " ", 0x0, ">", 0x0, "="
	DCB	0x0, " ", 0x0, "_", 0x0, "N", 0x0, 0xd, 0x0, 0xa, 0x0, 0x0
	DCB	0x0					; `string'
; Function compile flags: /Odtp

  00000			 AREA	 |.text|, CODE, ARM

  00000		 |?_Grow@?$_string_t@G$0BA@U?$char_traits@G@ce@@Vallocator@2@@ce@@IAA_NI@Z| PROC ; ce::_string_t<unsigned short,16,ce::char_traits<unsigned short>,ce::allocator>::_Grow

; 521  :     {

  00000		 |$LN11@Grow|
  00000	e1a0c00d	 mov         r12, sp
  00004	e92d0003	 stmdb       sp!, {r0, r1}
  00008	e92d5010	 stmdb       sp!, {r4, r12, lr}
  0000c	e24dd014	 sub         sp, sp, #0x14
  00010		 |$M39254|

; 522  :         if(_Res < _N)

  00010	e59d3020	 ldr         r3, [sp, #0x20]
  00014	e283302c	 add         r3, r3, #0x2C
  00018	e5932000	 ldr         r2, [r3]
  0001c	e59d3024	 ldr         r3, [sp, #0x24]
  00020	e1520003	 cmp         r2, r3
  00024	2a000053	 bcs         |$LN5@Grow|

; 523  :         {
; 524  :             // try to grow exponentially
; 525  :             size_type _NewRes = _Res + _Res / 2;

  00028	e59d3020	 ldr         r3, [sp, #0x20]
  0002c	e283402c	 add         r4, r3, #0x2C
  00030	e59d3020	 ldr         r3, [sp, #0x20]
  00034	e283302c	 add         r3, r3, #0x2C
  00038	e5931000	 ldr         r1, [r3]
  0003c	e3a00002	 mov         r0, #2
  00040	eb000000	 bl          __rt_udiv
  00044	e5943000	 ldr         r3, [r4]
  00048	e0833000	 add         r3, r3, r0
  0004c	e58d3004	 str         r3, [sp, #4]

; 526  :             
; 527  :             if(_NewRes < _N)

  00050	e59d2004	 ldr         r2, [sp, #4]
  00054	e59d3024	 ldr         r3, [sp, #0x24]
  00058	e1520003	 cmp         r2, r3
  0005c	2a000001	 bcs         |$LN4@Grow|

; 528  :                 _NewRes = _N;

  00060	e59d3024	 ldr         r3, [sp, #0x24]
  00064	e58d3004	 str         r3, [sp, #4]
  00068		 |$LN4@Grow|

; 529  :             
; 530  :             T* _New = reinterpret_cast<T*>(allocate((_NewRes + 1) * sizeof(T)));

  00068	e59d3004	 ldr         r3, [sp, #4]
  0006c	e2832001	 add         r2, r3, #1
  00070	e3a03002	 mov         r3, #2
  00074	e0010392	 mul         r1, r2, r3
  00078	e59d0020	 ldr         r0, [sp, #0x20]
  0007c	eb000000	 bl          |?allocate@allocator@ce@@QBAPAXI@Z|
  00080	e58d000c	 str         r0, [sp, #0xC]
  00084	e59d300c	 ldr         r3, [sp, #0xC]
  00088	e58d3000	 str         r3, [sp]

; 531  : 
; 532  :             if(!_New)

  0008c	e59d3000	 ldr         r3, [sp]
  00090	e3530000	 cmp         r3, #0
  00094	1a000010	 bne         |$LN3@Grow|

; 533  :             {
; 534  :                 // if allocation failed, retry with exact size required
; 535  :                 _New = reinterpret_cast<T*>(allocate(((_NewRes = _N) + 1) * sizeof(T)));

  00098	e59d3024	 ldr         r3, [sp, #0x24]
  0009c	e58d3004	 str         r3, [sp, #4]
  000a0	e59d3004	 ldr         r3, [sp, #4]
  000a4	e2832001	 add         r2, r3, #1
  000a8	e3a03002	 mov         r3, #2
  000ac	e0010392	 mul         r1, r2, r3
  000b0	e59d0020	 ldr         r0, [sp, #0x20]
  000b4	eb000000	 bl          |?allocate@allocator@ce@@QBAPAXI@Z|
  000b8	e58d0010	 str         r0, [sp, #0x10]
  000bc	e59d3010	 ldr         r3, [sp, #0x10]
  000c0	e58d3000	 str         r3, [sp]

; 536  :                 
; 537  :                 if(!_New)

  000c4	e59d3000	 ldr         r3, [sp]
  000c8	e3530000	 cmp         r3, #0
  000cc	1a000002	 bne         |$LN2@Grow|

; 538  :                     return false;

  000d0	e3a03000	 mov         r3, #0
  000d4	e5cd3008	 strb        r3, [sp, #8]
  000d8	ea000031	 b           |$LN6@Grow|
  000dc		 |$LN2@Grow|
  000dc		 |$LN3@Grow|

; 539  :             }
; 540  :             
; 541  :             _Tr::copy(_New, _Ptr, _Res);

  000dc	e59d3020	 ldr         r3, [sp, #0x20]
  000e0	e283302c	 add         r3, r3, #0x2C
  000e4	e5932000	 ldr         r2, [r3]
  000e8	e59d3020	 ldr         r3, [sp, #0x20]
  000ec	e5931000	 ldr         r1, [r3]
  000f0	e59d0000	 ldr         r0, [sp]
  000f4	eb000000	 bl          |?copy@?$basic_char_traits@G@ce@@SAPAGPAGPBGI@Z|

; 542  : 
; 543  :             if(_Res != _BUF_SIZE)

  000f8	e59d3020	 ldr         r3, [sp, #0x20]
  000fc	e283302c	 add         r3, r3, #0x2C
  00100	e5933000	 ldr         r3, [r3]
  00104	e3530010	 cmp         r3, #0x10
  00108	0a000009	 beq         |$LN1@Grow|

; 544  :                 deallocate(_Ptr, (_Res + 1) * sizeof(T));

  0010c	e59d3020	 ldr         r3, [sp, #0x20]
  00110	e283302c	 add         r3, r3, #0x2C
  00114	e5933000	 ldr         r3, [r3]
  00118	e2831001	 add         r1, r3, #1
  0011c	e3a03002	 mov         r3, #2
  00120	e0020391	 mul         r2, r1, r3
  00124	e59d3020	 ldr         r3, [sp, #0x20]
  00128	e5931000	 ldr         r1, [r3]
  0012c	e59d0020	 ldr         r0, [sp, #0x20]
  00130	eb000000	 bl          |?deallocate@allocator@ce@@QBAXPAXI@Z|
  00134		 |$LN1@Grow|

; 545  : 
; 546  :             _Ptr = _New;

  00134	e59d2000	 ldr         r2, [sp]
  00138	e59d3020	 ldr         r3, [sp, #0x20]
  0013c	e5832000	 str         r2, [r3]

; 547  :             _Res = _NewRes;

  00140	e59d3020	 ldr         r3, [sp, #0x20]
  00144	e283202c	 add         r2, r3, #0x2C
  00148	e59d3004	 ldr         r3, [sp, #4]
  0014c	e5823000	 str         r3, [r2]

; 548  :             _Ptr[_Res] = T(0);

  00150	e59d3020	 ldr         r3, [sp, #0x20]
  00154	e283302c	 add         r3, r3, #0x2C
  00158	e5931000	 ldr         r1, [r3]
  0015c	e3a03002	 mov         r3, #2
  00160	e0020391	 mul         r2, r1, r3
  00164	e59d3020	 ldr         r3, [sp, #0x20]
  00168	e5933000	 ldr         r3, [r3]
  0016c	e0832002	 add         r2, r3, r2
  00170	e3a03000	 mov         r3, #0
  00174	e1c230b0	 strh        r3, [r2]
  00178		 |$LN5@Grow|

; 549  :         }
; 550  :         
; 551  :         assert(_Res >= _N);

  00178	e59d3020	 ldr         r3, [sp, #0x20]
  0017c	e283302c	 add         r3, r3, #0x2C
  00180	e5932000	 ldr         r2, [r3]
  00184	e59d3024	 ldr         r3, [sp, #0x24]
  00188	e1520003	 cmp         r2, r3
  0018c	2a000002	 bcs         |$LN8@Grow|
  00190	e59f001c	 ldr         r0, [pc, #0x1C]
  00194	eb000000	 bl          OutputDebugStringW
  00198	e6000010	 __debugbreak_ce
  0019c		 |$LN8@Grow|

; 552  : 
; 553  :         return true;

  0019c	e3a03001	 mov         r3, #1
  001a0	e5cd3008	 strb        r3, [sp, #8]
  001a4		 |$LN6@Grow|

; 554  :     }

  001a4	e5dd0008	 ldrb        r0, [sp, #8]
  001a8	e28dd014	 add         sp, sp, #0x14
  001ac	e89d6010	 ldmia       sp, {r4, sp, lr}
  001b0	e12fff1e	 bx          lr
  001b4		 |$LN12@Grow|
  001b4		 |$LN13@Grow|
  001b4	00000000	 DCD         |??_C@_1LG@NOBEJLPK@?$AA?$AN?$AA?6?$AA?$CK?$AA?$CK?$AA?$CK?$AA?5?$AAA?$AAS?$AAS?$AAE?$AAR?$AAT?$AAI?$AAO?$AAN?$AA?5?$AAF?$AAA?$AAI?$AAL?$AAE?$AAD?$AA?5?$AAi?$AAn?$AA?5?$AAC?$AA?3?$AA?2?$AAW?$AAI?$AAN@|
  001b8		 |$M39255|

			 ENDP  ; |?_Grow@?$_string_t@G$0BA@U?$char_traits@G@ce@@Vallocator@2@@ce@@IAA_NI@Z|, ce::_string_t<unsigned short,16,ce::char_traits<unsigned short>,ce::allocator>::_Grow

	IMPORT	|??2@YAPAXI@Z|				; operator new
; File c:\wince600\public\common\oak\inc\allocator.hxx

  00000			 AREA	 |.pdata|, PDATA
|$T39267| DCD	|$LN5@allocate|
	DCD	0x40000d04
; Function compile flags: /Odtp

  00000			 AREA	 |.text|, CODE, ARM

  00000		 |?allocate@allocator@ce@@QBAPAXI@Z| PROC ; ce::allocator::allocate

; 106  :         {return operator new(Size); }

  00000		 |$LN5@allocate|
  00000	e1a0c00d	 mov         r12, sp
  00004	e92d0003	 stmdb       sp!, {r0, r1}
  00008	e92d5000	 stmdb       sp!, {r12, lr}
  0000c	e24dd008	 sub         sp, sp, #8
  00010		 |$M39264|
  00010	e59d0014	 ldr         r0, [sp, #0x14]
  00014	eb000000	 bl          |??2@YAPAXI@Z|
  00018	e58d0004	 str         r0, [sp, #4]
  0001c	e59d3004	 ldr         r3, [sp, #4]
  00020	e58d3000	 str         r3, [sp]
  00024	e59d0000	 ldr         r0, [sp]
  00028	e28dd008	 add         sp, sp, #8
  0002c	e89d6000	 ldmia       sp, {sp, lr}
  00030	e12fff1e	 bx          lr
  00034		 |$M39265|

			 ENDP  ; |?allocate@allocator@ce@@QBAPAXI@Z|, ce::allocator::allocate

	EXPORT	|??_C@_1LG@HNACKIEM@?$AA?$AN?$AA?6?$AA?$CK?$AA?$CK?$AA?$CK?$AA?5?$AAA?$AAS?$AAS?$AAE?$AAR?$AAT?$AAI?$AAO?$AAN?$AA?5?$AAF?$AAA?$AAI?$AAL?$AAE?$AAD?$AA?5?$AAi?$AAn?$AA?5?$AAC?$AA?3?$AA?2?$AAW?$AAI?$AAN@| [ DATA ] ; `string'
; File c:\wince600\public\common\oak\inc\string.hxx

  00000			 AREA	 |.pdata|, PDATA
|$T39275| DCD	|$LN6@Eos|
	DCD	0x40001b03

  00000			 AREA	 |.rdata|, DATA, READONLY
|??_C@_1LG@HNACKIEM@?$AA?$AN?$AA?6?$AA?$CK?$AA?$CK?$AA?$CK?$AA?5?$AAA?$AAS?$AAS?$AAE?$AAR?$AAT?$AAI?$AAO?$AAN?$AA?5?$AAF?$AAA?$AAI?$AAL?$AAE?$AAD?$AA?5?$AAi?$AAn?$AA?5?$AAC?$AA?3?$AA?2?$AAW?$AAI?$AAN@| DCB 0xd
	DCB	0x0, 0xa, 0x0, "*", 0x0, "*", 0x0, "*", 0x0, " ", 0x0, "A"
	DCB	0x0, "S", 0x0, "S", 0x0, "E", 0x0, "R", 0x0, "T", 0x0, "I"
	DCB	0x0, "O", 0x0, "N", 0x0, " ", 0x0, "F", 0x0, "A", 0x0, "I"
	DCB	0x0, "L", 0x0, "E", 0x0, "D", 0x0, " ", 0x0, "i", 0x0, "n"
	DCB	0x0, " ", 0x0, "C", 0x0, ":", 0x0, "\\", 0x0, "W", 0x0, "I"
	DCB	0x0, "N", 0x0, "C", 0x0, "E", 0x0, "6", 0x0, "0", 0x0, "0"
	DCB	0x0, "\\", 0x0, "p", 0x0, "u", 0x0, "b", 0x0, "l", 0x0, "i"
	DCB	0x0, "c", 0x0, "\\", 0x0, "c", 0x0, "o", 0x0, "m", 0x0, "m"
	DCB	0x0, "o", 0x0, "n", 0x0, "\\", 0x0, "o", 0x0, "a", 0x0, "k"
	DCB	0x0, "\\", 0x0, "i", 0x0, "n", 0x0, "c", 0x0, "\\", 0x0, "s"
	DCB	0x0, "t", 0x0, "r", 0x0, "i", 0x0, "n", 0x0, "g", 0x0, "."
	DCB	0x0, "h", 0x0, "x", 0x0, "x", 0x0, "(", 0x0, "5", 0x0, "5"
	DCB	0x0, "9", 0x0, ")", 0x0, ":", 0x0, 0xd, 0x0, 0xa, 0x0, "_"
	DCB	0x0, "N", 0x0, " ", 0x0, "<", 0x0, "=", 0x0, " ", 0x0, "_"
	DCB	0x0, "R", 0x0, "e", 0x0, "s", 0x0, 0xd, 0x0, 0xa, 0x0, 0x0
	DCB	0x0					; `string'
; Function compile flags: /Odtp

  00000			 AREA	 |.text|, CODE, ARM

  00000		 |?_Eos@?$_string_t@G$0BA@U?$char_traits@G@ce@@Vallocator@2@@ce@@IAAXI@Z| PROC ; ce::_string_t<unsigned short,16,ce::char_traits<unsigned short>,ce::allocator>::_Eos

; 558  :     {

  00000		 |$LN6@Eos|
  00000	e1a0c00d	 mov         r12, sp
  00004	e92d0003	 stmdb       sp!, {r0, r1}
  00008	e92d5000	 stmdb       sp!, {r12, lr}
  0000c		 |$M39272|

; 559  :         assert(_N <= _Res);

  0000c	e59d3008	 ldr         r3, [sp, #8]
  00010	e283302c	 add         r3, r3, #0x2C
  00014	e59d200c	 ldr         r2, [sp, #0xC]
  00018	e5933000	 ldr         r3, [r3]
  0001c	e1520003	 cmp         r2, r3
  00020	9a000002	 bls         |$LN3@Eos|
  00024	e59f003c	 ldr         r0, [pc, #0x3C]
  00028	eb000000	 bl          OutputDebugStringW
  0002c	e6000010	 __debugbreak_ce
  00030		 |$LN3@Eos|

; 560  :         
; 561  :         _Ptr[_Len = _N] = T();

  00030	e59d3008	 ldr         r3, [sp, #8]
  00034	e2832028	 add         r2, r3, #0x28
  00038	e59d300c	 ldr         r3, [sp, #0xC]
  0003c	e5823000	 str         r3, [r2]
  00040	e59d100c	 ldr         r1, [sp, #0xC]
  00044	e3a03002	 mov         r3, #2
  00048	e0020391	 mul         r2, r1, r3
  0004c	e59d3008	 ldr         r3, [sp, #8]
  00050	e5933000	 ldr         r3, [r3]
  00054	e0832002	 add         r2, r3, r2
  00058	e3a03000	 mov         r3, #0
  0005c	e1c230b0	 strh        r3, [r2]

; 562  :     }

  00060	e89d6000	 ldmia       sp, {sp, lr}
  00064	e12fff1e	 bx          lr
  00068		 |$LN7@Eos|
  00068		 |$LN8@Eos|
  00068	00000000	 DCD         |??_C@_1LG@HNACKIEM@?$AA?$AN?$AA?6?$AA?$CK?$AA?$CK?$AA?$CK?$AA?5?$AAA?$AAS?$AAS?$AAE?$AAR?$AAT?$AAI?$AAO?$AAN?$AA?5?$AAF?$AAA?$AAI?$AAL?$AAE?$AAD?$AA?5?$AAi?$AAn?$AA?5?$AAC?$AA?3?$AA?2?$AAW?$AAI?$AAN@|
  0006c		 |$M39273|

			 ENDP  ; |?_Eos@?$_string_t@G$0BA@U?$char_traits@G@ce@@Vallocator@2@@ce@@IAAXI@Z|, ce::_string_t<unsigned short,16,ce::char_traits<unsigned short>,ce::allocator>::_Eos

; File c:\wince600\public\common\oak\inc\vector.hxx

  00000			 AREA	 |.pdata|, PDATA
|$T39285| DCD	|$LN5@end@2|
	DCD	0x40000c04
; Function compile flags: /Odtp

  00000			 AREA	 |.text|, CODE, ARM

  00000		 |?end@?$vector@KVallocator@ce@@U?$incremental_growth@$09@2@@ce@@QAAPAKXZ| PROC ; ce::vector<unsigned long,ce::allocator,ce::incremental_growth<10> >::end

; 195  :         {return _Last; }

  00000		 |$LN5@end@2|
  00000	e1a0c00d	 mov         r12, sp
  00004	e92d0001	 stmdb       sp!, {r0}
  00008	e92d5000	 stmdb       sp!, {r12, lr}
  0000c	e24dd004	 sub         sp, sp, #4
  00010		 |$M39282|
  00010	e59d300c	 ldr         r3, [sp, #0xC]
  00014	e2833004	 add         r3, r3, #4
  00018	e5933000	 ldr         r3, [r3]
  0001c	e58d3000	 str         r3, [sp]
  00020	e59d0000	 ldr         r0, [sp]
  00024	e28dd004	 add         sp, sp, #4
  00028	e89d6000	 ldmia       sp, {sp, lr}
  0002c	e12fff1e	 bx          lr
  00030		 |$M39283|

			 ENDP  ; |?end@?$vector@KVallocator@ce@@U?$incremental_growth@$09@2@@ce@@QAAPAKXZ|, ce::vector<unsigned long,ce::allocator,ce::incremental_growth<10> >::end

	EXPORT	|?_MoveBackward@?$vector@KVallocator@ce@@U?$incremental_growth@$09@2@@ce@@IAAXPAK00@Z| ; ce::vector<unsigned long,ce::allocator,ce::incremental_growth<10> >::_MoveBackward
	EXPORT	|??_C@_1LI@JIABEKDO@?$AA?$AN?$AA?6?$AA?$CK?$AA?$CK?$AA?$CK?$AA?5?$AAA?$AAS?$AAS?$AAE?$AAR?$AAT?$AAI?$AAO?$AAN?$AA?5?$AAF?$AAA?$AAI?$AAL?$AAE?$AAD?$AA?5?$AAi?$AAn?$AA?5?$AAC?$AA?3?$AA?2?$AAW?$AAI?$AAN@| [ DATA ] ; `string'
	EXPORT	|??_C@_1LM@NOEKMNEP@?$AA?$AN?$AA?6?$AA?$CK?$AA?$CK?$AA?$CK?$AA?5?$AAA?$AAS?$AAS?$AAE?$AAR?$AAT?$AAI?$AAO?$AAN?$AA?5?$AAF?$AAA?$AAI?$AAL?$AAE?$AAD?$AA?5?$AAi?$AAn?$AA?5?$AAC?$AA?3?$AA?2?$AAW?$AAI?$AAN@| [ DATA ] ; `string'
	EXPORT	|??_C@_1LC@MFNPILBG@?$AA?$AN?$AA?6?$AA?$CK?$AA?$CK?$AA?$CK?$AA?5?$AAA?$AAS?$AAS?$AAE?$AAR?$AAT?$AAI?$AAO?$AAN?$AA?5?$AAF?$AAA?$AAI?$AAL?$AAE?$AAD?$AA?5?$AAi?$AAn?$AA?5?$AAC?$AA?3?$AA?2?$AAW?$AAI?$AAN@| [ DATA ] ; `string'

  00000			 AREA	 |.pdata|, PDATA
|$T39295| DCD	|$LN8@erase@3|
	DCD	0x40003a04

  00000			 AREA	 |.rdata|, DATA, READONLY
|??_C@_1LI@JIABEKDO@?$AA?$AN?$AA?6?$AA?$CK?$AA?$CK?$AA?$CK?$AA?5?$AAA?$AAS?$AAS?$AAE?$AAR?$AAT?$AAI?$AAO?$AAN?$AA?5?$AAF?$AAA?$AAI?$AAL?$AAE?$AAD?$AA?5?$AAi?$AAn?$AA?5?$AAC?$AA?3?$AA?2?$AAW?$AAI?$AAN@| DCB 0xd
	DCB	0x0, 0xa, 0x0, "*", 0x0, "*", 0x0, "*", 0x0, " ", 0x0, "A"
	DCB	0x0, "S", 0x0, "S", 0x0, "E", 0x0, "R", 0x0, "T", 0x0, "I"
	DCB	0x0, "O", 0x0, "N", 0x0, " ", 0x0, "F", 0x0, "A", 0x0, "I"
	DCB	0x0, "L", 0x0, "E", 0x0, "D", 0x0, " ", 0x0, "i", 0x0, "n"
	DCB	0x0, " ", 0x0, "C", 0x0, ":", 0x0, "\\", 0x0, "W", 0x0, "I"
	DCB	0x0, "N", 0x0, "C", 0x0, "E", 0x0, "6", 0x0, "0", 0x0, "0"
	DCB	0x0, "\\", 0x0, "p", 0x0, "u", 0x0, "b", 0x0, "l", 0x0, "i"
	DCB	0x0, "c", 0x0, "\\", 0x0, "c", 0x0, "o", 0x0, "m", 0x0, "m"
	DCB	0x0, "o", 0x0, "n", 0x0, "\\", 0x0, "o", 0x0, "a", 0x0, "k"
	DCB	0x0, "\\", 0x0, "i", 0x0, "n", 0x0, "c", 0x0, "\\", 0x0, "v"
	DCB	0x0, "e", 0x0, "c", 0x0, "t", 0x0, "o", 0x0, "r", 0x0, "."
	DCB	0x0, "h", 0x0, "x", 0x0, "x", 0x0, "(", 0x0, "3", 0x0, "9"
	DCB	0x0, "3", 0x0, ")", 0x0, ":", 0x0, 0xd, 0x0, 0xa, 0x0, "_"
	DCB	0x0, "L", 0x0, " ", 0x0, "<", 0x0, "=", 0x0, " ", 0x0, "e"
	DCB	0x0, "n", 0x0, "d", 0x0, "(", 0x0, ")", 0x0, 0xd, 0x0, 0xa
	DCB	0x0, 0x0, 0x0				; `string'

  00000			 AREA	 |.rdata|, DATA, READONLY
|??_C@_1LM@NOEKMNEP@?$AA?$AN?$AA?6?$AA?$CK?$AA?$CK?$AA?$CK?$AA?5?$AAA?$AAS?$AAS?$AAE?$AAR?$AAT?$AAI?$AAO?$AAN?$AA?5?$AAF?$AAA?$AAI?$AAL?$AAE?$AAD?$AA?5?$AAi?$AAn?$AA?5?$AAC?$AA?3?$AA?2?$AAW?$AAI?$AAN@| DCB 0xd
	DCB	0x0, 0xa, 0x0, "*", 0x0, "*", 0x0, "*", 0x0, " ", 0x0, "A"
	DCB	0x0, "S", 0x0, "S", 0x0, "E", 0x0, "R", 0x0, "T", 0x0, "I"
	DCB	0x0, "O", 0x0, "N", 0x0, " ", 0x0, "F", 0x0, "A", 0x0, "I"
	DCB	0x0, "L", 0x0, "E", 0x0, "D", 0x0, " ", 0x0, "i", 0x0, "n"
	DCB	0x0, " ", 0x0, "C", 0x0, ":", 0x0, "\\", 0x0, "W", 0x0, "I"
	DCB	0x0, "N", 0x0, "C", 0x0, "E", 0x0, "6", 0x0, "0", 0x0, "0"
	DCB	0x0, "\\", 0x0, "p", 0x0, "u", 0x0, "b", 0x0, "l", 0x0, "i"
	DCB	0x0, "c", 0x0, "\\", 0x0, "c", 0x0, "o", 0x0, "m", 0x0, "m"
	DCB	0x0, "o", 0x0, "n", 0x0, "\\", 0x0, "o", 0x0, "a", 0x0, "k"
	DCB	0x0, "\\", 0x0, "i", 0x0, "n", 0x0, "c", 0x0, "\\", 0x0, "v"
	DCB	0x0, "e", 0x0, "c", 0x0, "t", 0x0, "o", 0x0, "r", 0x0, "."
	DCB	0x0, "h", 0x0, "x", 0x0, "x", 0x0, "(", 0x0, "3", 0x0, "9"
	DCB	0x0, "2", 0x0, ")", 0x0, ":", 0x0, 0xd, 0x0, 0xa, 0x0, "_"
	DCB	0x0, "F", 0x0, " ", 0x0, ">", 0x0, "=", 0x0, " ", 0x0, "b"
	DCB	0x0, "e", 0x0, "g", 0x0, "i", 0x0, "n", 0x0, "(", 0x0, ")"
	DCB	0x0, 0xd, 0x0, 0xa, 0x0, 0x0, 0x0	; `string'

  00000			 AREA	 |.rdata|, DATA, READONLY
|??_C@_1LC@MFNPILBG@?$AA?$AN?$AA?6?$AA?$CK?$AA?$CK?$AA?$CK?$AA?5?$AAA?$AAS?$AAS?$AAE?$AAR?$AAT?$AAI?$AAO?$AAN?$AA?5?$AAF?$AAA?$AAI?$AAL?$AAE?$AAD?$AA?5?$AAi?$AAn?$AA?5?$AAC?$AA?3?$AA?2?$AAW?$AAI?$AAN@| DCB 0xd
	DCB	0x0, 0xa, 0x0, "*", 0x0, "*", 0x0, "*", 0x0, " ", 0x0, "A"
	DCB	0x0, "S", 0x0, "S", 0x0, "E", 0x0, "R", 0x0, "T", 0x0, "I"
	DCB	0x0, "O", 0x0, "N", 0x0, " ", 0x0, "F", 0x0, "A", 0x0, "I"
	DCB	0x0, "L", 0x0, "E", 0x0, "D", 0x0, " ", 0x0, "i", 0x0, "n"
	DCB	0x0, " ", 0x0, "C", 0x0, ":", 0x0, "\\", 0x0, "W", 0x0, "I"
	DCB	0x0, "N", 0x0, "C", 0x0, "E", 0x0, "6", 0x0, "0", 0x0, "0"
	DCB	0x0, "\\", 0x0, "p", 0x0, "u", 0x0, "b", 0x0, "l", 0x0, "i"
	DCB	0x0, "c", 0x0, "\\", 0x0, "c", 0x0, "o", 0x0, "m", 0x0, "m"
	DCB	0x0, "o", 0x0, "n", 0x0, "\\", 0x0, "o", 0x0, "a", 0x0, "k"
	DCB	0x0, "\\", 0x0, "i", 0x0, "n", 0x0, "c", 0x0, "\\", 0x0, "v"
	DCB	0x0, "e", 0x0, "c", 0x0, "t", 0x0, "o", 0x0, "r", 0x0, "."
	DCB	0x0, "h", 0x0, "x", 0x0, "x", 0x0, "(", 0x0, "3", 0x0, "9"
	DCB	0x0, "1", 0x0, ")", 0x0, ":", 0x0, 0xd, 0x0, 0xa, 0x0, "_"
	DCB	0x0, "F", 0x0, " ", 0x0, "<", 0x0, "=", 0x0, " ", 0x0, "_"
	DCB	0x0, "L", 0x0, 0xd, 0x0, 0xa, 0x0, 0x0, 0x0 ; `string'
; Function compile flags: /Odtp

  00000			 AREA	 |.text|, CODE, ARM

  00000		 |?erase@?$vector@KVallocator@ce@@U?$incremental_growth@$09@2@@ce@@QAAXPAK0@Z| PROC ; ce::vector<unsigned long,ce::allocator,ce::incremental_growth<10> >::erase

; 390  :     {

  00000		 |$LN8@erase@3|
  00000	e1a0c00d	 mov         r12, sp
  00004	e92d0007	 stmdb       sp!, {r0 - r2}
  00008	e92d5000	 stmdb       sp!, {r12, lr}
  0000c	e24dd00c	 sub         sp, sp, #0xC
  00010		 |$M39292|

; 391  :         assert(_F <= _L);

  00010	e59d2018	 ldr         r2, [sp, #0x18]
  00014	e59d301c	 ldr         r3, [sp, #0x1C]
  00018	e1520003	 cmp         r2, r3
  0001c	9a000002	 bls         |$LN3@erase@3|
  00020	e59f00bc	 ldr         r0, [pc, #0xBC]
  00024	eb000000	 bl          OutputDebugStringW
  00028	e6000010	 __debugbreak_ce
  0002c		 |$LN3@erase@3|

; 392  :         assert(_F >= begin());

  0002c	e59d0014	 ldr         r0, [sp, #0x14]
  00030	eb000000	 bl          |?begin@?$vector@KVallocator@ce@@U?$incremental_growth@$09@2@@ce@@QAAPAKXZ|
  00034	e58d0000	 str         r0, [sp]
  00038	e59d2018	 ldr         r2, [sp, #0x18]
  0003c	e59d3000	 ldr         r3, [sp]
  00040	e1520003	 cmp         r2, r3
  00044	2a000002	 bcs         |$LN4@erase@3|
  00048	e59f0090	 ldr         r0, [pc, #0x90]
  0004c	eb000000	 bl          OutputDebugStringW
  00050	e6000010	 __debugbreak_ce
  00054		 |$LN4@erase@3|

; 393  :         assert(_L <= end());

  00054	e59d0014	 ldr         r0, [sp, #0x14]
  00058	eb000000	 bl          |?end@?$vector@KVallocator@ce@@U?$incremental_growth@$09@2@@ce@@QAAPAKXZ|
  0005c	e58d0004	 str         r0, [sp, #4]
  00060	e59d201c	 ldr         r2, [sp, #0x1C]
  00064	e59d3004	 ldr         r3, [sp, #4]
  00068	e1520003	 cmp         r2, r3
  0006c	9a000002	 bls         |$LN5@erase@3|
  00070	e59f0064	 ldr         r0, [pc, #0x64]
  00074	eb000000	 bl          OutputDebugStringW
  00078	e6000010	 __debugbreak_ce
  0007c		 |$LN5@erase@3|

; 394  :         
; 395  :         _MoveBackward(_L, end(), _F);

  0007c	e59d0014	 ldr         r0, [sp, #0x14]
  00080	eb000000	 bl          |?end@?$vector@KVallocator@ce@@U?$incremental_growth@$09@2@@ce@@QAAPAKXZ|
  00084	e58d0008	 str         r0, [sp, #8]
  00088	e59d3018	 ldr         r3, [sp, #0x18]
  0008c	e59d2008	 ldr         r2, [sp, #8]
  00090	e59d101c	 ldr         r1, [sp, #0x1C]
  00094	e59d0014	 ldr         r0, [sp, #0x14]
  00098	eb000000	 bl          |?_MoveBackward@?$vector@KVallocator@ce@@U?$incremental_growth@$09@2@@ce@@IAAXPAK00@Z|

; 396  :         
; 397  :         
; 398  :         _Last -= _L - _F;

  0009c	e59d3014	 ldr         r3, [sp, #0x14]
  000a0	e2830004	 add         r0, r3, #4
  000a4	e59d201c	 ldr         r2, [sp, #0x1C]
  000a8	e59d3018	 ldr         r3, [sp, #0x18]
  000ac	e0423003	 sub         r3, r2, r3
  000b0	e1a01143	 mov         r1, r3, asr #2
  000b4	e3a03004	 mov         r3, #4
  000b8	e0020391	 mul         r2, r1, r3
  000bc	e5903000	 ldr         r3, [r0]
  000c0	e0432002	 sub         r2, r3, r2
  000c4	e59d3014	 ldr         r3, [sp, #0x14]
  000c8	e2833004	 add         r3, r3, #4
  000cc	e5832000	 str         r2, [r3]

; 399  :     }

  000d0	e28dd00c	 add         sp, sp, #0xC
  000d4	e89d6000	 ldmia       sp, {sp, lr}
  000d8	e12fff1e	 bx          lr
  000dc		 |$LN9@erase@3|
  000dc		 |$LN10@erase@3|
  000dc	00000000	 DCD         |??_C@_1LI@JIABEKDO@?$AA?$AN?$AA?6?$AA?$CK?$AA?$CK?$AA?$CK?$AA?5?$AAA?$AAS?$AAS?$AAE?$AAR?$AAT?$AAI?$AAO?$AAN?$AA?5?$AAF?$AAA?$AAI?$AAL?$AAE?$AAD?$AA?5?$AAi?$AAn?$AA?5?$AAC?$AA?3?$AA?2?$AAW?$AAI?$AAN@|
  000e0		 |$LN11@erase@3|
  000e0	00000000	 DCD         |??_C@_1LM@NOEKMNEP@?$AA?$AN?$AA?6?$AA?$CK?$AA?$CK?$AA?$CK?$AA?5?$AAA?$AAS?$AAS?$AAE?$AAR?$AAT?$AAI?$AAO?$AAN?$AA?5?$AAF?$AAA?$AAI?$AAL?$AAE?$AAD?$AA?5?$AAi?$AAn?$AA?5?$AAC?$AA?3?$AA?2?$AAW?$AAI?$AAN@|
  000e4		 |$LN12@erase@3|
  000e4	00000000	 DCD         |??_C@_1LC@MFNPILBG@?$AA?$AN?$AA?6?$AA?$CK?$AA?$CK?$AA?$CK?$AA?5?$AAA?$AAS?$AAS?$AAE?$AAR?$AAT?$AAI?$AAO?$AAN?$AA?5?$AAF?$AAA?$AAI?$AAL?$AAE?$AAD?$AA?5?$AAi?$AAn?$AA?5?$AAC?$AA?3?$AA?2?$AAW?$AAI?$AAN@|
  000e8		 |$M39293|

			 ENDP  ; |?erase@?$vector@KVallocator@ce@@U?$incremental_growth@$09@2@@ce@@QAAXPAK0@Z|, ce::vector<unsigned long,ce::allocator,ce::incremental_growth<10> >::erase

; File c:\wince600\public\common\oak\inc\list.hxx

  00000			 AREA	 |.pdata|, PDATA
|$T39307| DCD	|$LN5@const_iter|
	DCD	0x40000d04
; Function compile flags: /Odtp

  00000			 AREA	 |.text|, CODE, ARM

  00000		 |??0const_iterator@?$list@PAVBusDriverChild_t@@Vallocator@ce@@@ce@@QAA@PAU_Node@12@@Z| PROC ; ce::list<BusDriverChild_t *,ce::allocator>::const_iterator::const_iterator

; 484  :         const_iterator(_NodePtr _P)

  00000		 |$LN5@const_iter|
  00000	e1a0c00d	 mov         r12, sp
  00004	e92d0003	 stmdb       sp!, {r0, r1}
  00008	e92d5000	 stmdb       sp!, {r12, lr}
  0000c	e24dd004	 sub         sp, sp, #4
  00010		 |$M39304|
  00010	e59d2010	 ldr         r2, [sp, #0x10]
  00014	e59d300c	 ldr         r3, [sp, #0xC]
  00018	e5832000	 str         r2, [r3]
  0001c	e59d300c	 ldr         r3, [sp, #0xC]
  00020	e58d3000	 str         r3, [sp]
  00024	e59d0000	 ldr         r0, [sp]
  00028	e28dd004	 add         sp, sp, #4
  0002c	e89d6000	 ldmia       sp, {sp, lr}
  00030	e12fff1e	 bx          lr
  00034		 |$M39305|

			 ENDP  ; |??0const_iterator@?$list@PAVBusDriverChild_t@@Vallocator@ce@@@ce@@QAA@PAU_Node@12@@Z|, ce::list<BusDriverChild_t *,ce::allocator>::const_iterator::const_iterator

	EXPORT	|?_Destroy@?$vector@KVallocator@ce@@U?$incremental_growth@$09@2@@ce@@IAAXPAK0@Z| ; ce::vector<unsigned long,ce::allocator,ce::incremental_growth<10> >::_Destroy
	EXPORT	|??2@YAPAXIPAX@Z|			; operator new
	EXPORT	|??_C@_1LC@LJPOOOKI@?$AA?$AN?$AA?6?$AA?$CK?$AA?$CK?$AA?$CK?$AA?5?$AAA?$AAS?$AAS?$AAE?$AAR?$AAT?$AAI?$AAO?$AAN?$AA?5?$AAF?$AAA?$AAI?$AAL?$AAE?$AAD?$AA?5?$AAi?$AAn?$AA?5?$AAC?$AA?3?$AA?2?$AAW?$AAI?$AAN@| [ DATA ] ; `string'
	EXPORT	|??_C@_1LC@HKJHKEFI@?$AA?$AN?$AA?6?$AA?$CK?$AA?$CK?$AA?$CK?$AA?5?$AAA?$AAS?$AAS?$AAE?$AAR?$AAT?$AAI?$AAO?$AAN?$AA?5?$AAF?$AAA?$AAI?$AAL?$AAE?$AAD?$AA?5?$AAi?$AAn?$AA?5?$AAC?$AA?3?$AA?2?$AAW?$AAI?$AAN@| [ DATA ] ; `string'
	EXPORT	|??_C@_1NK@ELBMEDBM@?$AA?$AN?$AA?6?$AA?$CK?$AA?$CK?$AA?$CK?$AA?5?$AAA?$AAS?$AAS?$AAE?$AAR?$AAT?$AAI?$AAO?$AAN?$AA?5?$AAF?$AAA?$AAI?$AAL?$AAE?$AAD?$AA?5?$AAi?$AAn?$AA?5?$AAC?$AA?3?$AA?2?$AAW?$AAI?$AAN@| [ DATA ] ; `string'
	EXPORT	|??_C@_1NK@HEIKBHLH@?$AA?$AN?$AA?6?$AA?$CK?$AA?$CK?$AA?$CK?$AA?5?$AAA?$AAS?$AAS?$AAE?$AAR?$AAT?$AAI?$AAO?$AAN?$AA?5?$AAF?$AAA?$AAI?$AAL?$AAE?$AAD?$AA?5?$AAi?$AAn?$AA?5?$AAC?$AA?3?$AA?2?$AAW?$AAI?$AAN@| [ DATA ] ; `string'
	EXPORT	|??_C@_1NK@DEBNFCJC@?$AA?$AN?$AA?6?$AA?$CK?$AA?$CK?$AA?$CK?$AA?5?$AAA?$AAS?$AAS?$AAE?$AAR?$AAT?$AAI?$AAO?$AAN?$AA?5?$AAF?$AAA?$AAI?$AAL?$AAE?$AAD?$AA?5?$AAi?$AAn?$AA?5?$AAC?$AA?3?$AA?2?$AAW?$AAI?$AAN@| [ DATA ] ; `string'
; File c:\wince600\public\common\oak\inc\vector.hxx

  00000			 AREA	 |.pdata|, PDATA
|$T39325| DCD	|$LN18@MoveBackwa|
	DCD	0x40006f04

  00000			 AREA	 |.rdata|, DATA, READONLY
|??_C@_1LC@LJPOOOKI@?$AA?$AN?$AA?6?$AA?$CK?$AA?$CK?$AA?$CK?$AA?5?$AAA?$AAS?$AAS?$AAE?$AAR?$AAT?$AAI?$AAO?$AAN?$AA?5?$AAF?$AAA?$AAI?$AAL?$AAE?$AAD?$AA?5?$AAi?$AAn?$AA?5?$AAC?$AA?3?$AA?2?$AAW?$AAI?$AAN@| DCB 0xd
	DCB	0x0, 0xa, 0x0, "*", 0x0, "*", 0x0, "*", 0x0, " ", 0x0, "A"
	DCB	0x0, "S", 0x0, "S", 0x0, "E", 0x0, "R", 0x0, "T", 0x0, "I"
	DCB	0x0, "O", 0x0, "N", 0x0, " ", 0x0, "F", 0x0, "A", 0x0, "I"
	DCB	0x0, "L", 0x0, "E", 0x0, "D", 0x0, " ", 0x0, "i", 0x0, "n"
	DCB	0x0, " ", 0x0, "C", 0x0, ":", 0x0, "\\", 0x0, "W", 0x0, "I"
	DCB	0x0, "N", 0x0, "C", 0x0, "E", 0x0, "6", 0x0, "0", 0x0, "0"
	DCB	0x0, "\\", 0x0, "p", 0x0, "u", 0x0, "b", 0x0, "l", 0x0, "i"
	DCB	0x0, "c", 0x0, "\\", 0x0, "c", 0x0, "o", 0x0, "m", 0x0, "m"
	DCB	0x0, "o", 0x0, "n", 0x0, "\\", 0x0, "o", 0x0, "a", 0x0, "k"
	DCB	0x0, "\\", 0x0, "i", 0x0, "n", 0x0, "c", 0x0, "\\", 0x0, "v"
	DCB	0x0, "e", 0x0, "c", 0x0, "t", 0x0, "o", 0x0, "r", 0x0, "."
	DCB	0x0, "h", 0x0, "x", 0x0, "x", 0x0, "(", 0x0, "4", 0x0, "7"
	DCB	0x0, "0", 0x0, ")", 0x0, ":", 0x0, 0xd, 0x0, 0xa, 0x0, "_"
	DCB	0x0, "P", 0x0, " ", 0x0, "<", 0x0, "=", 0x0, " ", 0x0, "_"
	DCB	0x0, "F", 0x0, 0xd, 0x0, 0xa, 0x0, 0x0, 0x0 ; `string'

  00000			 AREA	 |.rdata|, DATA, READONLY
|??_C@_1LC@HKJHKEFI@?$AA?$AN?$AA?6?$AA?$CK?$AA?$CK?$AA?$CK?$AA?5?$AAA?$AAS?$AAS?$AAE?$AAR?$AAT?$AAI?$AAO?$AAN?$AA?5?$AAF?$AAA?$AAI?$AAL?$AAE?$AAD?$AA?5?$AAi?$AAn?$AA?5?$AAC?$AA?3?$AA?2?$AAW?$AAI?$AAN@| DCB 0xd
	DCB	0x0, 0xa, 0x0, "*", 0x0, "*", 0x0, "*", 0x0, " ", 0x0, "A"
	DCB	0x0, "S", 0x0, "S", 0x0, "E", 0x0, "R", 0x0, "T", 0x0, "I"
	DCB	0x0, "O", 0x0, "N", 0x0, " ", 0x0, "F", 0x0, "A", 0x0, "I"
	DCB	0x0, "L", 0x0, "E", 0x0, "D", 0x0, " ", 0x0, "i", 0x0, "n"
	DCB	0x0, " ", 0x0, "C", 0x0, ":", 0x0, "\\", 0x0, "W", 0x0, "I"
	DCB	0x0, "N", 0x0, "C", 0x0, "E", 0x0, "6", 0x0, "0", 0x0, "0"
	DCB	0x0, "\\", 0x0, "p", 0x0, "u", 0x0, "b", 0x0, "l", 0x0, "i"
	DCB	0x0, "c", 0x0, "\\", 0x0, "c", 0x0, "o", 0x0, "m", 0x0, "m"
	DCB	0x0, "o", 0x0, "n", 0x0, "\\", 0x0, "o", 0x0, "a", 0x0, "k"
	DCB	0x0, "\\", 0x0, "i", 0x0, "n", 0x0, "c", 0x0, "\\", 0x0, "v"
	DCB	0x0, "e", 0x0, "c", 0x0, "t", 0x0, "o", 0x0, "r", 0x0, "."
	DCB	0x0, "h", 0x0, "x", 0x0, "x", 0x0, "(", 0x0, "4", 0x0, "6"
	DCB	0x0, "9", 0x0, ")", 0x0, ":", 0x0, 0xd, 0x0, 0xa, 0x0, "_"
	DCB	0x0, "F", 0x0, " ", 0x0, "<", 0x0, "=", 0x0, " ", 0x0, "_"
	DCB	0x0, "L", 0x0, 0xd, 0x0, 0xa, 0x0, 0x0, 0x0 ; `string'

  00000			 AREA	 |.rdata|, DATA, READONLY
|??_C@_1NK@ELBMEDBM@?$AA?$AN?$AA?6?$AA?$CK?$AA?$CK?$AA?$CK?$AA?5?$AAA?$AAS?$AAS?$AAE?$AAR?$AAT?$AAI?$AAO?$AAN?$AA?5?$AAF?$AAA?$AAI?$AAL?$AAE?$AAD?$AA?5?$AAi?$AAn?$AA?5?$AAC?$AA?3?$AA?2?$AAW?$AAI?$AAN@| DCB 0xd
	DCB	0x0, 0xa, 0x0, "*", 0x0, "*", 0x0, "*", 0x0, " ", 0x0, "A"
	DCB	0x0, "S", 0x0, "S", 0x0, "E", 0x0, "R", 0x0, "T", 0x0, "I"
	DCB	0x0, "O", 0x0, "N", 0x0, " ", 0x0, "F", 0x0, "A", 0x0, "I"
	DCB	0x0, "L", 0x0, "E", 0x0, "D", 0x0, " ", 0x0, "i", 0x0, "n"
	DCB	0x0, " ", 0x0, "C", 0x0, ":", 0x0, "\\", 0x0, "W", 0x0, "I"
	DCB	0x0, "N", 0x0, "C", 0x0, "E", 0x0, "6", 0x0, "0", 0x0, "0"
	DCB	0x0, "\\", 0x0, "p", 0x0, "u", 0x0, "b", 0x0, "l", 0x0, "i"
	DCB	0x0, "c", 0x0, "\\", 0x0, "c", 0x0, "o", 0x0, "m", 0x0, "m"
	DCB	0x0, "o", 0x0, "n", 0x0, "\\", 0x0, "o", 0x0, "a", 0x0, "k"
	DCB	0x0, "\\", 0x0, "i", 0x0, "n", 0x0, "c", 0x0, "\\", 0x0, "v"
	DCB	0x0, "e", 0x0, "c", 0x0, "t", 0x0, "o", 0x0, "r", 0x0, "."
	DCB	0x0, "h", 0x0, "x", 0x0, "x", 0x0, "(", 0x0, "4", 0x0, "6"
	DCB	0x0, "8", 0x0, ")", 0x0, ":", 0x0, 0xd, 0x0, 0xa, 0x0, "_"
	DCB	0x0, "P", 0x0, " ", 0x0, ">", 0x0, "=", 0x0, " ", 0x0, "b"
	DCB	0x0, "e", 0x0, "g", 0x0, "i", 0x0, "n", 0x0, "(", 0x0, ")"
	DCB	0x0, " ", 0x0, "&", 0x0, "&", 0x0, " ", 0x0, "_", 0x0, "P"
	DCB	0x0, " ", 0x0, "<", 0x0, "=", 0x0, " ", 0x0, "e", 0x0, "n"
	DCB	0x0, "d", 0x0, "(", 0x0, ")", 0x0, 0xd, 0x0, 0xa, 0x0, 0x0
	DCB	0x0					; `string'

  00000			 AREA	 |.rdata|, DATA, READONLY
|??_C@_1NK@HEIKBHLH@?$AA?$AN?$AA?6?$AA?$CK?$AA?$CK?$AA?$CK?$AA?5?$AAA?$AAS?$AAS?$AAE?$AAR?$AAT?$AAI?$AAO?$AAN?$AA?5?$AAF?$AAA?$AAI?$AAL?$AAE?$AAD?$AA?5?$AAi?$AAn?$AA?5?$AAC?$AA?3?$AA?2?$AAW?$AAI?$AAN@| DCB 0xd
	DCB	0x0, 0xa, 0x0, "*", 0x0, "*", 0x0, "*", 0x0, " ", 0x0, "A"
	DCB	0x0, "S", 0x0, "S", 0x0, "E", 0x0, "R", 0x0, "T", 0x0, "I"
	DCB	0x0, "O", 0x0, "N", 0x0, " ", 0x0, "F", 0x0, "A", 0x0, "I"
	DCB	0x0, "L", 0x0, "E", 0x0, "D", 0x0, " ", 0x0, "i", 0x0, "n"
	DCB	0x0, " ", 0x0, "C", 0x0, ":", 0x0, "\\", 0x0, "W", 0x0, "I"
	DCB	0x0, "N", 0x0, "C", 0x0, "E", 0x0, "6", 0x0, "0", 0x0, "0"
	DCB	0x0, "\\", 0x0, "p", 0x0, "u", 0x0, "b", 0x0, "l", 0x0, "i"
	DCB	0x0, "c", 0x0, "\\", 0x0, "c", 0x0, "o", 0x0, "m", 0x0, "m"
	DCB	0x0, "o", 0x0, "n", 0x0, "\\", 0x0, "o", 0x0, "a", 0x0, "k"
	DCB	0x0, "\\", 0x0, "i", 0x0, "n", 0x0, "c", 0x0, "\\", 0x0, "v"
	DCB	0x0, "e", 0x0, "c", 0x0, "t", 0x0, "o", 0x0, "r", 0x0, "."
	DCB	0x0, "h", 0x0, "x", 0x0, "x", 0x0, "(", 0x0, "4", 0x0, "6"
	DCB	0x0, "7", 0x0, ")", 0x0, ":", 0x0, 0xd, 0x0, 0xa, 0x0, "_"
	DCB	0x0, "L", 0x0, " ", 0x0, ">", 0x0, "=", 0x0, " ", 0x0, "b"
	DCB	0x0, "e", 0x0, "g", 0x0, "i", 0x0, "n", 0x0, "(", 0x0, ")"
	DCB	0x0, " ", 0x0, "&", 0x0, "&", 0x0, " ", 0x0, "_", 0x0, "L"
	DCB	0x0, " ", 0x0, "<", 0x0, "=", 0x0, " ", 0x0, "e", 0x0, "n"
	DCB	0x0, "d", 0x0, "(", 0x0, ")", 0x0, 0xd, 0x0, 0xa, 0x0, 0x0
	DCB	0x0					; `string'

  00000			 AREA	 |.rdata|, DATA, READONLY
|??_C@_1NK@DEBNFCJC@?$AA?$AN?$AA?6?$AA?$CK?$AA?$CK?$AA?$CK?$AA?5?$AAA?$AAS?$AAS?$AAE?$AAR?$AAT?$AAI?$AAO?$AAN?$AA?5?$AAF?$AAA?$AAI?$AAL?$AAE?$AAD?$AA?5?$AAi?$AAn?$AA?5?$AAC?$AA?3?$AA?2?$AAW?$AAI?$AAN@| DCB 0xd
	DCB	0x0, 0xa, 0x0, "*", 0x0, "*", 0x0, "*", 0x0, " ", 0x0, "A"
	DCB	0x0, "S", 0x0, "S", 0x0, "E", 0x0, "R", 0x0, "T", 0x0, "I"
	DCB	0x0, "O", 0x0, "N", 0x0, " ", 0x0, "F", 0x0, "A", 0x0, "I"
	DCB	0x0, "L", 0x0, "E", 0x0, "D", 0x0, " ", 0x0, "i", 0x0, "n"
	DCB	0x0, " ", 0x0, "C", 0x0, ":", 0x0, "\\", 0x0, "W", 0x0, "I"
	DCB	0x0, "N", 0x0, "C", 0x0, "E", 0x0, "6", 0x0, "0", 0x0, "0"
	DCB	0x0, "\\", 0x0, "p", 0x0, "u", 0x0, "b", 0x0, "l", 0x0, "i"
	DCB	0x0, "c", 0x0, "\\", 0x0, "c", 0x0, "o", 0x0, "m", 0x0, "m"
	DCB	0x0, "o", 0x0, "n", 0x0, "\\", 0x0, "o", 0x0, "a", 0x0, "k"
	DCB	0x0, "\\", 0x0, "i", 0x0, "n", 0x0, "c", 0x0, "\\", 0x0, "v"
	DCB	0x0, "e", 0x0, "c", 0x0, "t", 0x0, "o", 0x0, "r", 0x0, "."
	DCB	0x0, "h", 0x0, "x", 0x0, "x", 0x0, "(", 0x0, "4", 0x0, "6"
	DCB	0x0, "6", 0x0, ")", 0x0, ":", 0x0, 0xd, 0x0, 0xa, 0x0, "_"
	DCB	0x0, "F", 0x0, " ", 0x0, ">", 0x0, "=", 0x0, " ", 0x0, "b"
	DCB	0x0, "e", 0x0, "g", 0x0, "i", 0x0, "n", 0x0, "(", 0x0, ")"
	DCB	0x0, " ", 0x0, "&", 0x0, "&", 0x0, " ", 0x0, "_", 0x0, "F"
	DCB	0x0, " ", 0x0, "<", 0x0, "=", 0x0, " ", 0x0, "e", 0x0, "n"
	DCB	0x0, "d", 0x0, "(", 0x0, ")", 0x0, 0xd, 0x0, 0xa, 0x0, 0x0
	DCB	0x0					; `string'
; Function compile flags: /Odtp

  00000			 AREA	 |.text|, CODE, ARM

  00000		 |?_MoveBackward@?$vector@KVallocator@ce@@U?$incremental_growth@$09@2@@ce@@IAAXPAK00@Z| PROC ; ce::vector<unsigned long,ce::allocator,ce::incremental_growth<10> >::_MoveBackward

; 465  :     {

  00000		 |$LN18@MoveBackwa|
  00000	e1a0c00d	 mov         r12, sp
  00004	e92d000f	 stmdb       sp!, {r0 - r3}
  00008	e92d5000	 stmdb       sp!, {r12, lr}
  0000c	e24dd024	 sub         sp, sp, #0x24
  00010		 |$M39322|

; 466  :         assert(_F >= begin() && _F <= end());

  00010	e59d002c	 ldr         r0, [sp, #0x2C]
  00014	eb000000	 bl          |?begin@?$vector@KVallocator@ce@@U?$incremental_growth@$09@2@@ce@@QAAPAKXZ|
  00018	e58d0004	 str         r0, [sp, #4]
  0001c	e59d2030	 ldr         r2, [sp, #0x30]
  00020	e59d3004	 ldr         r3, [sp, #4]
  00024	e1520003	 cmp         r2, r3
  00028	3a000006	 bcc         |$LN6@MoveBackwa|
  0002c	e59d002c	 ldr         r0, [sp, #0x2C]
  00030	eb000000	 bl          |?end@?$vector@KVallocator@ce@@U?$incremental_growth@$09@2@@ce@@QAAPAKXZ|
  00034	e58d0008	 str         r0, [sp, #8]
  00038	e59d2030	 ldr         r2, [sp, #0x30]
  0003c	e59d3008	 ldr         r3, [sp, #8]
  00040	e1520003	 cmp         r2, r3
  00044	9a000002	 bls         |$LN7@MoveBackwa|
  00048		 |$LN6@MoveBackwa|
  00048	e59f0168	 ldr         r0, [pc, #0x168]
  0004c	eb000000	 bl          OutputDebugStringW
  00050	e6000010	 __debugbreak_ce
  00054		 |$LN7@MoveBackwa|

; 467  :         assert(_L >= begin() && _L <= end());

  00054	e59d002c	 ldr         r0, [sp, #0x2C]
  00058	eb000000	 bl          |?begin@?$vector@KVallocator@ce@@U?$incremental_growth@$09@2@@ce@@QAAPAKXZ|
  0005c	e58d000c	 str         r0, [sp, #0xC]
  00060	e59d2034	 ldr         r2, [sp, #0x34]
  00064	e59d300c	 ldr         r3, [sp, #0xC]
  00068	e1520003	 cmp         r2, r3
  0006c	3a000006	 bcc         |$LN8@MoveBackwa|
  00070	e59d002c	 ldr         r0, [sp, #0x2C]
  00074	eb000000	 bl          |?end@?$vector@KVallocator@ce@@U?$incremental_growth@$09@2@@ce@@QAAPAKXZ|
  00078	e58d0010	 str         r0, [sp, #0x10]
  0007c	e59d2034	 ldr         r2, [sp, #0x34]
  00080	e59d3010	 ldr         r3, [sp, #0x10]
  00084	e1520003	 cmp         r2, r3
  00088	9a000002	 bls         |$LN9@MoveBackwa|
  0008c		 |$LN8@MoveBackwa|
  0008c	e59f0120	 ldr         r0, [pc, #0x120]
  00090	eb000000	 bl          OutputDebugStringW
  00094	e6000010	 __debugbreak_ce
  00098		 |$LN9@MoveBackwa|

; 468  :         assert(_P >= begin() && _P <= end());

  00098	e59d002c	 ldr         r0, [sp, #0x2C]
  0009c	eb000000	 bl          |?begin@?$vector@KVallocator@ce@@U?$incremental_growth@$09@2@@ce@@QAAPAKXZ|
  000a0	e58d0014	 str         r0, [sp, #0x14]
  000a4	e59d2038	 ldr         r2, [sp, #0x38]
  000a8	e59d3014	 ldr         r3, [sp, #0x14]
  000ac	e1520003	 cmp         r2, r3
  000b0	3a000006	 bcc         |$LN10@MoveBackwa|
  000b4	e59d002c	 ldr         r0, [sp, #0x2C]
  000b8	eb000000	 bl          |?end@?$vector@KVallocator@ce@@U?$incremental_growth@$09@2@@ce@@QAAPAKXZ|
  000bc	e58d0018	 str         r0, [sp, #0x18]
  000c0	e59d2038	 ldr         r2, [sp, #0x38]
  000c4	e59d3018	 ldr         r3, [sp, #0x18]
  000c8	e1520003	 cmp         r2, r3
  000cc	9a000002	 bls         |$LN11@MoveBackwa|
  000d0		 |$LN10@MoveBackwa|
  000d0	e59f00d8	 ldr         r0, [pc, #0xD8]
  000d4	eb000000	 bl          OutputDebugStringW
  000d8	e6000010	 __debugbreak_ce
  000dc		 |$LN11@MoveBackwa|

; 469  :         assert(_F <= _L);

  000dc	e59d2030	 ldr         r2, [sp, #0x30]
  000e0	e59d3034	 ldr         r3, [sp, #0x34]
  000e4	e1520003	 cmp         r2, r3
  000e8	9a000002	 bls         |$LN12@MoveBackwa|
  000ec	e59f00b8	 ldr         r0, [pc, #0xB8]
  000f0	eb000000	 bl          OutputDebugStringW
  000f4	e6000010	 __debugbreak_ce
  000f8		 |$LN12@MoveBackwa|

; 470  :         assert(_P <= _F);

  000f8	e59d2038	 ldr         r2, [sp, #0x38]
  000fc	e59d3030	 ldr         r3, [sp, #0x30]
  00100	e1520003	 cmp         r2, r3
  00104	9a000002	 bls         |$LN13@MoveBackwa|
  00108	e59f0098	 ldr         r0, [pc, #0x98]
  0010c	eb000000	 bl          OutputDebugStringW
  00110	e6000010	 __debugbreak_ce
  00114		 |$LN13@MoveBackwa|

; 471  :         
; 472  :         //
; 473  :         // Starting from first item in the range, destroy existing item at new position
; 474  :         // and then re-construct item being move in there.
; 475  :         //
; 476  :         for(; _F != _L; ++_P, ++_F)

  00114	ea000005	 b           |$LN3@MoveBackwa|
  00118		 |$LN2@MoveBackwa|
  00118	e59d3038	 ldr         r3, [sp, #0x38]
  0011c	e2833004	 add         r3, r3, #4
  00120	e58d3038	 str         r3, [sp, #0x38]
  00124	e59d3030	 ldr         r3, [sp, #0x30]
  00128	e2833004	 add         r3, r3, #4
  0012c	e58d3030	 str         r3, [sp, #0x30]
  00130		 |$LN3@MoveBackwa|
  00130	e59d2030	 ldr         r2, [sp, #0x30]
  00134	e59d3034	 ldr         r3, [sp, #0x34]
  00138	e1520003	 cmp         r2, r3
  0013c	0a000012	 beq         |$LN1@MoveBackwa|

; 477  :         {
; 478  :             _P->~T();
; 479  :             new (_P) T(*_F);

  00140	e59d1038	 ldr         r1, [sp, #0x38]
  00144	e3a00004	 mov         r0, #4
  00148	eb000000	 bl          |??2@YAPAXIPAX@Z|
  0014c	e58d001c	 str         r0, [sp, #0x1C]
  00150	e59d301c	 ldr         r3, [sp, #0x1C]
  00154	e58d3000	 str         r3, [sp]
  00158	e59d3000	 ldr         r3, [sp]
  0015c	e3530000	 cmp         r3, #0
  00160	0a000006	 beq         |$LN14@MoveBackwa|
  00164	e59d3030	 ldr         r3, [sp, #0x30]
  00168	e5932000	 ldr         r2, [r3]
  0016c	e59d3000	 ldr         r3, [sp]
  00170	e5832000	 str         r2, [r3]
  00174	e59d3000	 ldr         r3, [sp]
  00178	e58d3020	 str         r3, [sp, #0x20]
  0017c	ea000001	 b           |$LN15@MoveBackwa|
  00180		 |$LN14@MoveBackwa|
  00180	e3a03000	 mov         r3, #0
  00184	e58d3020	 str         r3, [sp, #0x20]
  00188		 |$LN15@MoveBackwa|

; 480  :         }

  00188	eaffffe2	 b           |$LN2@MoveBackwa|
  0018c		 |$LN1@MoveBackwa|

; 481  :         
; 482  :         // Destroy moved items that were not overwritten by other moved items
; 483  :         _Destroy(_P, _L);

  0018c	e59d2034	 ldr         r2, [sp, #0x34]
  00190	e59d1038	 ldr         r1, [sp, #0x38]
  00194	e59d002c	 ldr         r0, [sp, #0x2C]
  00198	eb000000	 bl          |?_Destroy@?$vector@KVallocator@ce@@U?$incremental_growth@$09@2@@ce@@IAAXPAK0@Z|

; 484  :     }

  0019c	e28dd024	 add         sp, sp, #0x24
  001a0	e89d6000	 ldmia       sp, {sp, lr}
  001a4	e12fff1e	 bx          lr
  001a8		 |$LN19@MoveBackwa|
  001a8		 |$LN20@MoveBackwa|
  001a8	00000000	 DCD         |??_C@_1LC@LJPOOOKI@?$AA?$AN?$AA?6?$AA?$CK?$AA?$CK?$AA?$CK?$AA?5?$AAA?$AAS?$AAS?$AAE?$AAR?$AAT?$AAI?$AAO?$AAN?$AA?5?$AAF?$AAA?$AAI?$AAL?$AAE?$AAD?$AA?5?$AAi?$AAn?$AA?5?$AAC?$AA?3?$AA?2?$AAW?$AAI?$AAN@|
  001ac		 |$LN21@MoveBackwa|
  001ac	00000000	 DCD         |??_C@_1LC@HKJHKEFI@?$AA?$AN?$AA?6?$AA?$CK?$AA?$CK?$AA?$CK?$AA?5?$AAA?$AAS?$AAS?$AAE?$AAR?$AAT?$AAI?$AAO?$AAN?$AA?5?$AAF?$AAA?$AAI?$AAL?$AAE?$AAD?$AA?5?$AAi?$AAn?$AA?5?$AAC?$AA?3?$AA?2?$AAW?$AAI?$AAN@|
  001b0		 |$LN22@MoveBackwa|
  001b0	00000000	 DCD         |??_C@_1NK@ELBMEDBM@?$AA?$AN?$AA?6?$AA?$CK?$AA?$CK?$AA?$CK?$AA?5?$AAA?$AAS?$AAS?$AAE?$AAR?$AAT?$AAI?$AAO?$AAN?$AA?5?$AAF?$AAA?$AAI?$AAL?$AAE?$AAD?$AA?5?$AAi?$AAn?$AA?5?$AAC?$AA?3?$AA?2?$AAW?$AAI?$AAN@|
  001b4		 |$LN23@MoveBackwa|
  001b4	00000000	 DCD         |??_C@_1NK@HEIKBHLH@?$AA?$AN?$AA?6?$AA?$CK?$AA?$CK?$AA?$CK?$AA?5?$AAA?$AAS?$AAS?$AAE?$AAR?$AAT?$AAI?$AAO?$AAN?$AA?5?$AAF?$AAA?$AAI?$AAL?$AAE?$AAD?$AA?5?$AAi?$AAn?$AA?5?$AAC?$AA?3?$AA?2?$AAW?$AAI?$AAN@|
  001b8		 |$LN24@MoveBackwa|
  001b8	00000000	 DCD         |??_C@_1NK@DEBNFCJC@?$AA?$AN?$AA?6?$AA?$CK?$AA?$CK?$AA?$CK?$AA?5?$AAA?$AAS?$AAS?$AAE?$AAR?$AAT?$AAI?$AAO?$AAN?$AA?5?$AAF?$AAA?$AAI?$AAL?$AAE?$AAD?$AA?5?$AAi?$AAn?$AA?5?$AAC?$AA?3?$AA?2?$AAW?$AAI?$AAN@|
  001bc		 |$M39323|

			 ENDP  ; |?_MoveBackward@?$vector@KVallocator@ce@@U?$incremental_growth@$09@2@@ce@@IAAXPAK00@Z|, ce::vector<unsigned long,ce::allocator,ce::incremental_growth<10> >::_MoveBackward

; File c:\wince600\public\common\sdk\inc\new

  00000			 AREA	 |.pdata|, PDATA
|$T39339| DCD	|$LN5@operator@7|
	DCD	0x40000a04
; Function compile flags: /Odtp

  00000			 AREA	 |.text|, CODE, ARM

  00000		 |??2@YAPAXIPAX@Z| PROC			; operator new

; 73   :     {return (_P); }

  00000		 |$LN5@operator@7|
  00000	e1a0c00d	 mov         r12, sp
  00004	e92d0003	 stmdb       sp!, {r0, r1}
  00008	e92d5000	 stmdb       sp!, {r12, lr}
  0000c	e24dd004	 sub         sp, sp, #4
  00010		 |$M39336|
  00010	e59d3010	 ldr         r3, [sp, #0x10]
  00014	e58d3000	 str         r3, [sp]
  00018	e59d0000	 ldr         r0, [sp]
  0001c	e28dd004	 add         sp, sp, #4
  00020	e89d6000	 ldmia       sp, {sp, lr}
  00024	e12fff1e	 bx          lr
  00028		 |$M39337|

			 ENDP  ; |??2@YAPAXIPAX@Z|, operator new

; File c:\wince600\public\common\oak\inc\vector.hxx

  00000			 AREA	 |.pdata|, PDATA
|$T39346| DCD	|$LN8@Destroy|
	DCD	0x40000e03
; Function compile flags: /Odtp

  00000			 AREA	 |.text|, CODE, ARM

  00000		 |?_Destroy@?$vector@KVallocator@ce@@U?$incremental_growth@$09@2@@ce@@IAAXPAK0@Z| PROC ; ce::vector<unsigned long,ce::allocator,ce::incremental_growth<10> >::_Destroy

; 423  :     {

  00000		 |$LN8@Destroy|
  00000	e1a0c00d	 mov         r12, sp
  00004	e92d0007	 stmdb       sp!, {r0 - r2}
  00008	e92d5000	 stmdb       sp!, {r12, lr}
  0000c		 |$M39343|

; 424  :         for (; _F != _L; ++_F)

  0000c	ea000002	 b           |$LN3@Destroy|
  00010		 |$LN2@Destroy|
  00010	e59d300c	 ldr         r3, [sp, #0xC]
  00014	e2833004	 add         r3, r3, #4
  00018	e58d300c	 str         r3, [sp, #0xC]
  0001c		 |$LN3@Destroy|
  0001c	e59d200c	 ldr         r2, [sp, #0xC]
  00020	e59d3010	 ldr         r3, [sp, #0x10]
  00024	e1520003	 cmp         r2, r3
  00028	0a000000	 beq         |$LN1@Destroy|

; 425  :             _F->~T();

  0002c	eafffff7	 b           |$LN2@Destroy|
  00030		 |$LN1@Destroy|

; 426  :     }

  00030	e89d6000	 ldmia       sp, {sp, lr}
  00034	e12fff1e	 bx          lr
  00038		 |$M39344|

			 ENDP  ; |?_Destroy@?$vector@KVallocator@ce@@U?$incremental_growth@$09@2@@ce@@IAAXPAK0@Z|, ce::vector<unsigned long,ce::allocator,ce::incremental_growth<10> >::_Destroy

	EXPORT	|?resize@?$_string_t@G$0BA@U?$char_traits@G@ce@@Vallocator@2@@ce@@QAA_NI@Z| ; ce::_string_t<unsigned short,16,ce::char_traits<unsigned short>,ce::allocator>::resize
	EXPORT	|?reserve@?$_string_t@G$0BA@U?$char_traits@G@ce@@Vallocator@2@@ce@@QAA_NI@Z| ; ce::_string_t<unsigned short,16,ce::char_traits<unsigned short>,ce::allocator>::reserve
	EXPORT	|??1_buffer@?$_string_t@G$0BA@U?$char_traits@G@ce@@Vallocator@2@@ce@@QAA@XZ| ; ce::_string_t<unsigned short,16,ce::char_traits<unsigned short>,ce::allocator>::_buffer::~_buffer
	EXPORT	|??B_buffer@?$_string_t@G$0BA@U?$char_traits@G@ce@@Vallocator@2@@ce@@QAAPAGXZ| ; ce::_string_t<unsigned short,16,ce::char_traits<unsigned short>,ce::allocator>::_buffer::operator unsigned short *
	EXPORT	|?get_buffer@?$_string_t@G$0BA@U?$char_traits@G@ce@@Vallocator@2@@ce@@QAA?AV_buffer@12@XZ| ; ce::_string_t<unsigned short,16,ce::char_traits<unsigned short>,ce::allocator>::get_buffer
	EXPORT	|?capacity@?$_string_t@G$0BA@U?$char_traits@G@ce@@Vallocator@2@@ce@@QBAIXZ| ; ce::_string_t<unsigned short,16,ce::char_traits<unsigned short>,ce::allocator>::capacity
	IMPORT	|RegEnumKeyExW|
; File c:\wince600\platform\common\src\soc\common_ti_v1\common_ti\bus\inc\registry.hxx

  00000			 AREA	 |.pdata|, PDATA
|$T39362| DCD	|$LN11@RegEnumKey|
	DCD	0x40004a04
; Function compile flags: /Odtp

  00000			 AREA	 |.text|, CODE, ARM

  00000		 |??$RegEnumKey@$0BA@U?$char_traits@G@ce@@Vallocator@2@@ce@@YAJPAUHKEY__@@KAAV?$_string_t@G$0BA@U?$char_traits@G@ce@@Vallocator@2@@0@@Z| PROC ; ce::RegEnumKey<16,ce::char_traits<unsigned short>,ce::allocator>

; 101  : {

  00000		 |$LN11@RegEnumKey|
  00000	e1a0c00d	 mov         r12, sp
  00004	e92d0007	 stmdb       sp!, {r0 - r2}
  00008	e92d5000	 stmdb       sp!, {r12, lr}
  0000c	e24dd050	 sub         sp, sp, #0x50
  00010		 |$M39359|

; 102  :     LONG code;
; 103  :     DWORD size = 0;

  00010	e3a03000	 mov         r3, #0
  00014	e58d3014	 str         r3, [sp, #0x14]
  00018		 |$LN4@RegEnumKey|

; 104  : 
; 105  :     while ((code = RegEnumKeyEx(
; 106  :         hKey, index, static_cast<LPWSTR>(value.get_buffer()),
; 107  :         &(size = value.capacity()), NULL, NULL, NULL, NULL
; 108  :         )) == ERROR_MORE_DATA)

  00018	e59d0060	 ldr         r0, [sp, #0x60]
  0001c	eb000000	 bl          |?capacity@?$_string_t@G$0BA@U?$char_traits@G@ce@@Vallocator@2@@ce@@QBAIXZ|
  00020	e58d0034	 str         r0, [sp, #0x34]
  00024	e59d3034	 ldr         r3, [sp, #0x34]
  00028	e58d3014	 str         r3, [sp, #0x14]
  0002c	e28d101c	 add         r1, sp, #0x1C
  00030	e59d0060	 ldr         r0, [sp, #0x60]
  00034	eb000000	 bl          |?get_buffer@?$_string_t@G$0BA@U?$char_traits@G@ce@@Vallocator@2@@ce@@QAA?AV_buffer@12@XZ|
  00038	e58d0038	 str         r0, [sp, #0x38]
  0003c	e59d3038	 ldr         r3, [sp, #0x38]
  00040	e58d303c	 str         r3, [sp, #0x3C]
  00044	e59d003c	 ldr         r0, [sp, #0x3C]
  00048	eb000000	 bl          |??B_buffer@?$_string_t@G$0BA@U?$char_traits@G@ce@@Vallocator@2@@ce@@QAAPAGXZ|
  0004c	e58d0040	 str         r0, [sp, #0x40]
  00050	e3a03000	 mov         r3, #0
  00054	e58d300c	 str         r3, [sp, #0xC]
  00058	e3a03000	 mov         r3, #0
  0005c	e58d3008	 str         r3, [sp, #8]
  00060	e3a03000	 mov         r3, #0
  00064	e58d3004	 str         r3, [sp, #4]
  00068	e3a03000	 mov         r3, #0
  0006c	e58d3000	 str         r3, [sp]
  00070	e28d3014	 add         r3, sp, #0x14
  00074	e59d2040	 ldr         r2, [sp, #0x40]
  00078	e59d105c	 ldr         r1, [sp, #0x5C]
  0007c	e59d0058	 ldr         r0, [sp, #0x58]
  00080	eb000000	 bl          RegEnumKeyExW
  00084	e58d0044	 str         r0, [sp, #0x44]
  00088	e59d3044	 ldr         r3, [sp, #0x44]
  0008c	e58d3010	 str         r3, [sp, #0x10]
  00090	e59d3010	 ldr         r3, [sp, #0x10]
  00094	e35300ea	 cmp         r3, #0xEA
  00098	1a000002	 bne         |$LN7@RegEnumKey|
  0009c	e3a03001	 mov         r3, #1
  000a0	e58d3048	 str         r3, [sp, #0x48]
  000a4	ea000001	 b           |$LN8@RegEnumKey|
  000a8		 |$LN7@RegEnumKey|
  000a8	e3a03000	 mov         r3, #0
  000ac	e58d3048	 str         r3, [sp, #0x48]
  000b0		 |$LN8@RegEnumKey|
  000b0	e59d3048	 ldr         r3, [sp, #0x48]
  000b4	e20330ff	 and         r3, r3, #0xFF
  000b8	e5cd3018	 strb        r3, [sp, #0x18]
  000bc	e28d001c	 add         r0, sp, #0x1C
  000c0	eb000000	 bl          |??1_buffer@?$_string_t@G$0BA@U?$char_traits@G@ce@@Vallocator@2@@ce@@QAA@XZ|
  000c4	e5dd3018	 ldrb        r3, [sp, #0x18]
  000c8	e3530000	 cmp         r3, #0
  000cc	0a000009	 beq         |$LN3@RegEnumKey|

; 109  :         {
; 110  :         if (!value.reserve(size + 1)) break;

  000d0	e59d3014	 ldr         r3, [sp, #0x14]
  000d4	e2831001	 add         r1, r3, #1
  000d8	e59d0060	 ldr         r0, [sp, #0x60]
  000dc	eb000000	 bl          |?reserve@?$_string_t@G$0BA@U?$char_traits@G@ce@@Vallocator@2@@ce@@QAA_NI@Z|
  000e0	e5cd004c	 strb        r0, [sp, #0x4C]
  000e4	e5dd304c	 ldrb        r3, [sp, #0x4C]
  000e8	e3530000	 cmp         r3, #0
  000ec	1a000000	 bne         |$LN2@RegEnumKey|
  000f0	ea000000	 b           |$LN3@RegEnumKey|
  000f4		 |$LN2@RegEnumKey|

; 111  :         }

  000f4	eaffffc7	 b           |$LN4@RegEnumKey|
  000f8		 |$LN3@RegEnumKey|

; 112  : 
; 113  :     if (code == ERROR_SUCCESS)

  000f8	e59d3010	 ldr         r3, [sp, #0x10]
  000fc	e3530000	 cmp         r3, #0
  00100	1a000002	 bne         |$LN1@RegEnumKey|

; 114  :         {
; 115  :         value.resize(size);

  00104	e59d1014	 ldr         r1, [sp, #0x14]
  00108	e59d0060	 ldr         r0, [sp, #0x60]
  0010c	eb000000	 bl          |?resize@?$_string_t@G$0BA@U?$char_traits@G@ce@@Vallocator@2@@ce@@QAA_NI@Z|
  00110		 |$LN1@RegEnumKey|

; 116  :         }
; 117  :     
; 118  :     return code;

  00110	e59d3010	 ldr         r3, [sp, #0x10]
  00114	e58d3030	 str         r3, [sp, #0x30]

; 119  : }

  00118	e59d0030	 ldr         r0, [sp, #0x30]
  0011c	e28dd050	 add         sp, sp, #0x50
  00120	e89d6000	 ldmia       sp, {sp, lr}
  00124	e12fff1e	 bx          lr
  00128		 |$M39360|

			 ENDP  ; |??$RegEnumKey@$0BA@U?$char_traits@G@ce@@Vallocator@2@@ce@@YAJPAUHKEY__@@KAAV?$_string_t@G$0BA@U?$char_traits@G@ce@@Vallocator@2@@0@@Z|, ce::RegEnumKey<16,ce::char_traits<unsigned short>,ce::allocator>

	EXPORT	|?_Buynode@?$list@PAVBusDriverChild_t@@Vallocator@ce@@@ce@@IAAPAU_Node@12@PAU312@@Z| ; ce::list<BusDriverChild_t *,ce::allocator>::_Buynode
; File c:\wince600\public\common\oak\inc\list.hxx

  00000			 AREA	 |.pdata|, PDATA
|$T39373| DCD	|$LN8@insert@3|
	DCD	0x40003104
; Function compile flags: /Odtp

  00000			 AREA	 |.text|, CODE, ARM

  00000		 |??$insert@PAVBusDriverChild_t@@@?$list@PAVBusDriverChild_t@@Vallocator@ce@@@ce@@QAA?AViterator@01@V201@ABQAVBusDriverChild_t@@@Z| PROC ; ce::list<BusDriverChild_t *,ce::allocator>::insert<BusDriverChild_t *>

; 269  :     iterator insert(iterator Where, const _Val& Value)

  00000		 |$LN8@insert@3|
  00000	e1a0c00d	 mov         r12, sp
  00004	e92d000f	 stmdb       sp!, {r0 - r3}
  00008	e92d5000	 stmdb       sp!, {r12, lr}
  0000c	e24dd01c	 sub         sp, sp, #0x1C
  00010		 |$M39370|

; 270  :     {
; 271  :         _NodePtr NewNode = _Buynode(Where._MyNode());

  00010	e28d002c	 add         r0, sp, #0x2C
  00014	eb000000	 bl          |?_MyNode@const_iterator@?$list@PAVBusDriverChild_t@@Vallocator@ce@@@ce@@QBAPAU_Node@23@XZ|
  00018	e58d000c	 str         r0, [sp, #0xC]
  0001c	e59d100c	 ldr         r1, [sp, #0xC]
  00020	e59d0024	 ldr         r0, [sp, #0x24]
  00024	eb000000	 bl          |?_Buynode@?$list@PAVBusDriverChild_t@@Vallocator@ce@@@ce@@IAAPAU_Node@12@PAU312@@Z|
  00028	e58d0010	 str         r0, [sp, #0x10]
  0002c	e59d3010	 ldr         r3, [sp, #0x10]
  00030	e58d3000	 str         r3, [sp]

; 272  :         
; 273  :         if(NewNode == NULL)

  00034	e59d3000	 ldr         r3, [sp]
  00038	e3530000	 cmp         r3, #0
  0003c	1a000005	 bne         |$LN1@insert@3|

; 274  :             return end();

  00040	e59d1028	 ldr         r1, [sp, #0x28]
  00044	e59d0024	 ldr         r0, [sp, #0x24]
  00048	eb000000	 bl          |?end@?$list@PAVBusDriverChild_t@@Vallocator@ce@@@ce@@QAA?AViterator@12@XZ|
  0004c	e59d3028	 ldr         r3, [sp, #0x28]
  00050	e58d3008	 str         r3, [sp, #8]
  00054	ea000016	 b           |$LN2@insert@3|
  00058		 |$LN1@insert@3|

; 275  : 
; 276  :         // To avoid using operator& for type T (which may be overloaded)
; 277  :         // we are constructing item in the memory pointed to by NewNode.
; 278  :         // This assumes that _Value is the first member.
; 279  :         new (NewNode) T(Value);

  00058	e59d1000	 ldr         r1, [sp]
  0005c	e3a00004	 mov         r0, #4
  00060	eb000000	 bl          |??2@YAPAXIPAX@Z|
  00064	e58d0014	 str         r0, [sp, #0x14]
  00068	e59d3014	 ldr         r3, [sp, #0x14]
  0006c	e58d3004	 str         r3, [sp, #4]
  00070	e59d3004	 ldr         r3, [sp, #4]
  00074	e3530000	 cmp         r3, #0
  00078	0a000006	 beq         |$LN4@insert@3|
  0007c	e59d3030	 ldr         r3, [sp, #0x30]
  00080	e5932000	 ldr         r2, [r3]
  00084	e59d3004	 ldr         r3, [sp, #4]
  00088	e5832000	 str         r2, [r3]
  0008c	e59d3004	 ldr         r3, [sp, #4]
  00090	e58d3018	 str         r3, [sp, #0x18]
  00094	ea000001	 b           |$LN5@insert@3|
  00098		 |$LN4@insert@3|
  00098	e3a03000	 mov         r3, #0
  0009c	e58d3018	 str         r3, [sp, #0x18]
  000a0		 |$LN5@insert@3|

; 280  :         
; 281  :         return NewNode;

  000a0	e59d1000	 ldr         r1, [sp]
  000a4	e59d0028	 ldr         r0, [sp, #0x28]
  000a8	eb000000	 bl          |??0iterator@?$list@PAVBusDriverChild_t@@Vallocator@ce@@@ce@@QAA@PAU_Node@12@@Z|
  000ac	e59d3028	 ldr         r3, [sp, #0x28]
  000b0	e58d3008	 str         r3, [sp, #8]
  000b4		 |$LN2@insert@3|

; 282  :     }

  000b4	e59d0008	 ldr         r0, [sp, #8]
  000b8	e28dd01c	 add         sp, sp, #0x1C
  000bc	e89d6000	 ldmia       sp, {sp, lr}
  000c0	e12fff1e	 bx          lr
  000c4		 |$M39371|

			 ENDP  ; |??$insert@PAVBusDriverChild_t@@@?$list@PAVBusDriverChild_t@@Vallocator@ce@@@ce@@QAA?AViterator@01@V201@ABQAVBusDriverChild_t@@@Z|, ce::list<BusDriverChild_t *,ce::allocator>::insert<BusDriverChild_t *>

	EXPORT	|??$insert@K@?$vector@KVallocator@ce@@U?$incremental_growth@$09@2@@ce@@QAA_NPAKIABK@Z| ; ce::vector<unsigned long,ce::allocator,ce::incremental_growth<10> >::insert<unsigned long>
; File c:\wince600\public\common\oak\inc\vector.hxx

  00000			 AREA	 |.pdata|, PDATA
|$T39381| DCD	|$LN6@insert@4|
	DCD	0x40002804
; Function compile flags: /Odtp

  00000			 AREA	 |.text|, CODE, ARM

  00000		 |??$insert@K@?$vector@KVallocator@ce@@U?$incremental_growth@$09@2@@ce@@QAAPAKPAKABK@Z| PROC ; ce::vector<unsigned long,ce::allocator,ce::incremental_growth<10> >::insert<unsigned long>

; 372  :     iterator insert(iterator _Where, const _Val& _X)

  00000		 |$LN6@insert@4|
  00000	e1a0c00d	 mov         r12, sp
  00004	e92d0007	 stmdb       sp!, {r0 - r2}
  00008	e92d5000	 stmdb       sp!, {r12, lr}
  0000c	e24dd018	 sub         sp, sp, #0x18
  00010		 |$M39378|

; 373  :     {
; 374  :         size_type _O = _Where - begin();

  00010	e59d0020	 ldr         r0, [sp, #0x20]
  00014	eb000000	 bl          |?begin@?$vector@KVallocator@ce@@U?$incremental_growth@$09@2@@ce@@QAAPAKXZ|
  00018	e58d0008	 str         r0, [sp, #8]
  0001c	e59d2024	 ldr         r2, [sp, #0x24]
  00020	e59d3008	 ldr         r3, [sp, #8]
  00024	e0423003	 sub         r3, r2, r3
  00028	e1a03143	 mov         r3, r3, asr #2
  0002c	e58d3000	 str         r3, [sp]

; 375  :         
; 376  :         if(!insert(_Where, 1, _X))

  00030	e59d3028	 ldr         r3, [sp, #0x28]
  00034	e3a02001	 mov         r2, #1
  00038	e59d1024	 ldr         r1, [sp, #0x24]
  0003c	e59d0020	 ldr         r0, [sp, #0x20]
  00040	eb000000	 bl          |??$insert@K@?$vector@KVallocator@ce@@U?$incremental_growth@$09@2@@ce@@QAA_NPAKIABK@Z|
  00044	e5cd000c	 strb        r0, [sp, #0xC]
  00048	e5dd300c	 ldrb        r3, [sp, #0xC]
  0004c	e3530000	 cmp         r3, #0
  00050	1a000005	 bne         |$LN1@insert@4|

; 377  :             return end();

  00054	e59d0020	 ldr         r0, [sp, #0x20]
  00058	eb000000	 bl          |?end@?$vector@KVallocator@ce@@U?$incremental_growth@$09@2@@ce@@QAAPAKXZ|
  0005c	e58d0010	 str         r0, [sp, #0x10]
  00060	e59d3010	 ldr         r3, [sp, #0x10]
  00064	e58d3004	 str         r3, [sp, #4]
  00068	ea000008	 b           |$LN2@insert@4|
  0006c		 |$LN1@insert@4|

; 378  :         
; 379  :         //
; 380  :         // Insertion may require that vector is reallocated so
; 381  :         // the final possition of the inserted item might not be 
; 382  :         // the same as _Where
; 383  :         //
; 384  :         return begin() + _O;

  0006c	e59d0020	 ldr         r0, [sp, #0x20]
  00070	eb000000	 bl          |?begin@?$vector@KVallocator@ce@@U?$incremental_growth@$09@2@@ce@@QAAPAKXZ|
  00074	e58d0014	 str         r0, [sp, #0x14]
  00078	e59d1000	 ldr         r1, [sp]
  0007c	e3a03004	 mov         r3, #4
  00080	e0020391	 mul         r2, r1, r3
  00084	e59d3014	 ldr         r3, [sp, #0x14]
  00088	e0833002	 add         r3, r3, r2
  0008c	e58d3004	 str         r3, [sp, #4]
  00090		 |$LN2@insert@4|

; 385  :     }

  00090	e59d0004	 ldr         r0, [sp, #4]
  00094	e28dd018	 add         sp, sp, #0x18
  00098	e89d6000	 ldmia       sp, {sp, lr}
  0009c	e12fff1e	 bx          lr
  000a0		 |$M39379|

			 ENDP  ; |??$insert@K@?$vector@KVallocator@ce@@U?$incremental_growth@$09@2@@ce@@QAAPAKPAKABK@Z|, ce::vector<unsigned long,ce::allocator,ce::incremental_growth<10> >::insert<unsigned long>

	EXPORT	|??_C@_1LO@JDHEDOPL@?$AA?$AN?$AA?6?$AA?$CK?$AA?$CK?$AA?$CK?$AA?5?$AAA?$AAS?$AAS?$AAE?$AAR?$AAT?$AAI?$AAO?$AAN?$AA?5?$AAF?$AAA?$AAI?$AAL?$AAE?$AAD?$AA?5?$AAi?$AAn?$AA?5?$AAC?$AA?3?$AA?2?$AAW?$AAI?$AAN@| [ DATA ] ; `string'
	EXPORT	|??_C@_1LA@EKOJONDG@?$AA?$AN?$AA?6?$AA?$CK?$AA?$CK?$AA?$CK?$AA?5?$AAA?$AAS?$AAS?$AAE?$AAR?$AAT?$AAI?$AAO?$AAN?$AA?5?$AAF?$AAA?$AAI?$AAL?$AAE?$AAD?$AA?5?$AAi?$AAn?$AA?5?$AAC?$AA?3?$AA?2?$AAW?$AAI?$AAN@| [ DATA ] ; `string'
; File c:\wince600\public\common\oak\inc\list.hxx

  00000			 AREA	 |.pdata|, PDATA
|$T39391| DCD	|$LN9@Buynode|
	DCD	0x40004204

  00000			 AREA	 |.rdata|, DATA, READONLY
|??_C@_1LO@JDHEDOPL@?$AA?$AN?$AA?6?$AA?$CK?$AA?$CK?$AA?$CK?$AA?5?$AAA?$AAS?$AAS?$AAE?$AAR?$AAT?$AAI?$AAO?$AAN?$AA?5?$AAF?$AAA?$AAI?$AAL?$AAE?$AAD?$AA?5?$AAi?$AAn?$AA?5?$AAC?$AA?3?$AA?2?$AAW?$AAI?$AAN@| DCB 0xd
	DCB	0x0, 0xa, 0x0, "*", 0x0, "*", 0x0, "*", 0x0, " ", 0x0, "A"
	DCB	0x0, "S", 0x0, "S", 0x0, "E", 0x0, "R", 0x0, "T", 0x0, "I"
	DCB	0x0, "O", 0x0, "N", 0x0, " ", 0x0, "F", 0x0, "A", 0x0, "I"
	DCB	0x0, "L", 0x0, "E", 0x0, "D", 0x0, " ", 0x0, "i", 0x0, "n"
	DCB	0x0, " ", 0x0, "C", 0x0, ":", 0x0, "\\", 0x0, "W", 0x0, "I"
	DCB	0x0, "N", 0x0, "C", 0x0, "E", 0x0, "6", 0x0, "0", 0x0, "0"
	DCB	0x0, "\\", 0x0, "p", 0x0, "u", 0x0, "b", 0x0, "l", 0x0, "i"
	DCB	0x0, "c", 0x0, "\\", 0x0, "c", 0x0, "o", 0x0, "m", 0x0, "m"
	DCB	0x0, "o", 0x0, "n", 0x0, "\\", 0x0, "o", 0x0, "a", 0x0, "k"
	DCB	0x0, "\\", 0x0, "i", 0x0, "n", 0x0, "c", 0x0, "\\", 0x0, "l"
	DCB	0x0, "i", 0x0, "s", 0x0, "t", 0x0, ".", 0x0, "h", 0x0, "x"
	DCB	0x0, "x", 0x0, "(", 0x0, "5", 0x0, "5", 0x0, "4", 0x0, ")"
	DCB	0x0, ":", 0x0, 0xd, 0x0, 0xa, 0x0, "W", 0x0, "h", 0x0, "e"
	DCB	0x0, "r", 0x0, "e", 0x0, "N", 0x0, "o", 0x0, "d", 0x0, "e"
	DCB	0x0, "-", 0x0, ">", 0x0, "_", 0x0, "P", 0x0, "r", 0x0, "e"
	DCB	0x0, "v", 0x0, 0xd, 0x0, 0xa, 0x0, 0x0, 0x0 ; `string'

  00000			 AREA	 |.rdata|, DATA, READONLY
|??_C@_1LA@EKOJONDG@?$AA?$AN?$AA?6?$AA?$CK?$AA?$CK?$AA?$CK?$AA?5?$AAA?$AAS?$AAS?$AAE?$AAR?$AAT?$AAI?$AAO?$AAN?$AA?5?$AAF?$AAA?$AAI?$AAL?$AAE?$AAD?$AA?5?$AAi?$AAn?$AA?5?$AAC?$AA?3?$AA?2?$AAW?$AAI?$AAN@| DCB 0xd
	DCB	0x0, 0xa, 0x0, "*", 0x0, "*", 0x0, "*", 0x0, " ", 0x0, "A"
	DCB	0x0, "S", 0x0, "S", 0x0, "E", 0x0, "R", 0x0, "T", 0x0, "I"
	DCB	0x0, "O", 0x0, "N", 0x0, " ", 0x0, "F", 0x0, "A", 0x0, "I"
	DCB	0x0, "L", 0x0, "E", 0x0, "D", 0x0, " ", 0x0, "i", 0x0, "n"
	DCB	0x0, " ", 0x0, "C", 0x0, ":", 0x0, "\\", 0x0, "W", 0x0, "I"
	DCB	0x0, "N", 0x0, "C", 0x0, "E", 0x0, "6", 0x0, "0", 0x0, "0"
	DCB	0x0, "\\", 0x0, "p", 0x0, "u", 0x0, "b", 0x0, "l", 0x0, "i"
	DCB	0x0, "c", 0x0, "\\", 0x0, "c", 0x0, "o", 0x0, "m", 0x0, "m"
	DCB	0x0, "o", 0x0, "n", 0x0, "\\", 0x0, "o", 0x0, "a", 0x0, "k"
	DCB	0x0, "\\", 0x0, "i", 0x0, "n", 0x0, "c", 0x0, "\\", 0x0, "l"
	DCB	0x0, "i", 0x0, "s", 0x0, "t", 0x0, ".", 0x0, "h", 0x0, "x"
	DCB	0x0, "x", 0x0, "(", 0x0, "5", 0x0, "5", 0x0, "2", 0x0, ")"
	DCB	0x0, ":", 0x0, 0xd, 0x0, 0xa, 0x0, "W", 0x0, "h", 0x0, "e"
	DCB	0x0, "r", 0x0, "e", 0x0, "N", 0x0, "o", 0x0, "d", 0x0, "e"
	DCB	0x0, 0xd, 0x0, 0xa, 0x0, 0x0, 0x0	; `string'
; Function compile flags: /Odtp

  00000			 AREA	 |.text|, CODE, ARM

  00000		 |?_Buynode@?$list@PAVBusDriverChild_t@@Vallocator@ce@@@ce@@IAAPAU_Node@12@PAU312@@Z| PROC ; ce::list<BusDriverChild_t *,ce::allocator>::_Buynode

; 551  :     {

  00000		 |$LN9@Buynode|
  00000	e1a0c00d	 mov         r12, sp
  00004	e92d0003	 stmdb       sp!, {r0, r1}
  00008	e92d5000	 stmdb       sp!, {r12, lr}
  0000c	e24dd00c	 sub         sp, sp, #0xC
  00010		 |$M39388|

; 552  :         assert(WhereNode);

  00010	e59d3018	 ldr         r3, [sp, #0x18]
  00014	e3530000	 cmp         r3, #0
  00018	1a000002	 bne         |$LN5@Buynode|
  0001c	e59f00e0	 ldr         r0, [pc, #0xE0]
  00020	eb000000	 bl          OutputDebugStringW
  00024	e6000010	 __debugbreak_ce
  00028		 |$LN5@Buynode|

; 553  :         __assume(WhereNode);
; 554  :         assert(WhereNode->_Prev);

  00028	e59d3018	 ldr         r3, [sp, #0x18]
  0002c	e2833008	 add         r3, r3, #8
  00030	e5933000	 ldr         r3, [r3]
  00034	e3530000	 cmp         r3, #0
  00038	1a000002	 bne         |$LN6@Buynode|
  0003c	e59f00bc	 ldr         r0, [pc, #0xBC]
  00040	eb000000	 bl          OutputDebugStringW
  00044	e6000010	 __debugbreak_ce
  00048		 |$LN6@Buynode|

; 555  :         __assume(WhereNode->_Prev);
; 556  :         
; 557  :         if(_NodePtr NewNode = (_NodePtr)allocate(sizeof(_Node)))

  00048	e3a0100c	 mov         r1, #0xC
  0004c	e59d0014	 ldr         r0, [sp, #0x14]
  00050	eb000000	 bl          |?allocate@allocator@ce@@QBAPAXI@Z|
  00054	e58d0008	 str         r0, [sp, #8]
  00058	e59d3008	 ldr         r3, [sp, #8]
  0005c	e58d3000	 str         r3, [sp]
  00060	e59d3000	 ldr         r3, [sp]
  00064	e3530000	 cmp         r3, #0
  00068	0a00001e	 beq         |$LN2@Buynode|

; 558  :         {
; 559  :             NewNode->_Next = WhereNode;

  0006c	e59d3000	 ldr         r3, [sp]
  00070	e2832004	 add         r2, r3, #4
  00074	e59d3018	 ldr         r3, [sp, #0x18]
  00078	e5823000	 str         r3, [r2]

; 560  :             NewNode->_Prev = WhereNode->_Prev;

  0007c	e59d3018	 ldr         r3, [sp, #0x18]
  00080	e2831008	 add         r1, r3, #8
  00084	e59d3000	 ldr         r3, [sp]
  00088	e2832008	 add         r2, r3, #8
  0008c	e5913000	 ldr         r3, [r1]
  00090	e5823000	 str         r3, [r2]

; 561  :             
; 562  :             WhereNode->_Prev->_Next = NewNode;

  00094	e59d3018	 ldr         r3, [sp, #0x18]
  00098	e2833008	 add         r3, r3, #8
  0009c	e5933000	 ldr         r3, [r3]
  000a0	e2832004	 add         r2, r3, #4
  000a4	e59d3000	 ldr         r3, [sp]
  000a8	e5823000	 str         r3, [r2]

; 563  :             WhereNode->_Prev = NewNode;

  000ac	e59d3018	 ldr         r3, [sp, #0x18]
  000b0	e2832008	 add         r2, r3, #8
  000b4	e59d3000	 ldr         r3, [sp]
  000b8	e5823000	 str         r3, [r2]

; 564  :             
; 565  :             ++_Size;

  000bc	e59d3014	 ldr         r3, [sp, #0x14]
  000c0	e283300c	 add         r3, r3, #0xC
  000c4	e5933000	 ldr         r3, [r3]
  000c8	e2832001	 add         r2, r3, #1
  000cc	e59d3014	 ldr         r3, [sp, #0x14]
  000d0	e283300c	 add         r3, r3, #0xC
  000d4	e5832000	 str         r2, [r3]

; 566  :             
; 567  :             return NewNode;

  000d8	e59d3000	 ldr         r3, [sp]
  000dc	e58d3004	 str         r3, [sp, #4]
  000e0	ea000002	 b           |$LN3@Buynode|

; 568  :         }
; 569  :         else

  000e4	ea000001	 b           |$LN1@Buynode|
  000e8		 |$LN2@Buynode|

; 570  :             return NULL;

  000e8	e3a03000	 mov         r3, #0
  000ec	e58d3004	 str         r3, [sp, #4]
  000f0		 |$LN1@Buynode|
  000f0		 |$LN3@Buynode|

; 571  :     }

  000f0	e59d0004	 ldr         r0, [sp, #4]
  000f4	e28dd00c	 add         sp, sp, #0xC
  000f8	e89d6000	 ldmia       sp, {sp, lr}
  000fc	e12fff1e	 bx          lr
  00100		 |$LN10@Buynode|
  00100		 |$LN11@Buynode|
  00100	00000000	 DCD         |??_C@_1LO@JDHEDOPL@?$AA?$AN?$AA?6?$AA?$CK?$AA?$CK?$AA?$CK?$AA?5?$AAA?$AAS?$AAS?$AAE?$AAR?$AAT?$AAI?$AAO?$AAN?$AA?5?$AAF?$AAA?$AAI?$AAL?$AAE?$AAD?$AA?5?$AAi?$AAn?$AA?5?$AAC?$AA?3?$AA?2?$AAW?$AAI?$AAN@|
  00104		 |$LN12@Buynode|
  00104	00000000	 DCD         |??_C@_1LA@EKOJONDG@?$AA?$AN?$AA?6?$AA?$CK?$AA?$CK?$AA?$CK?$AA?5?$AAA?$AAS?$AAS?$AAE?$AAR?$AAT?$AAI?$AAO?$AAN?$AA?5?$AAF?$AAA?$AAI?$AAL?$AAE?$AAD?$AA?5?$AAi?$AAn?$AA?5?$AAC?$AA?3?$AA?2?$AAW?$AAI?$AAN@|
  00108		 |$M39389|

			 ENDP  ; |?_Buynode@?$list@PAVBusDriverChild_t@@Vallocator@ce@@@ce@@IAAPAU_Node@12@PAU312@@Z|, ce::list<BusDriverChild_t *,ce::allocator>::_Buynode

; File c:\wince600\public\common\oak\inc\string.hxx

  00000			 AREA	 |.pdata|, PDATA
|$T39402| DCD	|$LN5@capacity@2|
	DCD	0x40000c04
; Function compile flags: /Odtp

  00000			 AREA	 |.text|, CODE, ARM

  00000		 |?capacity@?$_string_t@G$0BA@U?$char_traits@G@ce@@Vallocator@2@@ce@@QBAIXZ| PROC ; ce::_string_t<unsigned short,16,ce::char_traits<unsigned short>,ce::allocator>::capacity

; 237  :         {return _Res; } 

  00000		 |$LN5@capacity@2|
  00000	e1a0c00d	 mov         r12, sp
  00004	e92d0001	 stmdb       sp!, {r0}
  00008	e92d5000	 stmdb       sp!, {r12, lr}
  0000c	e24dd004	 sub         sp, sp, #4
  00010		 |$M39399|
  00010	e59d300c	 ldr         r3, [sp, #0xC]
  00014	e283302c	 add         r3, r3, #0x2C
  00018	e5933000	 ldr         r3, [r3]
  0001c	e58d3000	 str         r3, [sp]
  00020	e59d0000	 ldr         r0, [sp]
  00024	e28dd004	 add         sp, sp, #4
  00028	e89d6000	 ldmia       sp, {sp, lr}
  0002c	e12fff1e	 bx          lr
  00030		 |$M39400|

			 ENDP  ; |?capacity@?$_string_t@G$0BA@U?$char_traits@G@ce@@Vallocator@2@@ce@@QBAIXZ|, ce::_string_t<unsigned short,16,ce::char_traits<unsigned short>,ce::allocator>::capacity


  00000			 AREA	 |.pdata|, PDATA
|$T39410| DCD	|$LN5@reserve|
	DCD	0x40000e04
; Function compile flags: /Odtp

  00000			 AREA	 |.text|, CODE, ARM

  00000		 |?reserve@?$_string_t@G$0BA@U?$char_traits@G@ce@@Vallocator@2@@ce@@QAA_NI@Z| PROC ; ce::_string_t<unsigned short,16,ce::char_traits<unsigned short>,ce::allocator>::reserve

; 245  :         {return _Grow(_N); }

  00000		 |$LN5@reserve|
  00000	e1a0c00d	 mov         r12, sp
  00004	e92d0003	 stmdb       sp!, {r0, r1}
  00008	e92d5000	 stmdb       sp!, {r12, lr}
  0000c	e24dd008	 sub         sp, sp, #8
  00010		 |$M39407|
  00010	e59d1014	 ldr         r1, [sp, #0x14]
  00014	e59d0010	 ldr         r0, [sp, #0x10]
  00018	eb000000	 bl          |?_Grow@?$_string_t@G$0BA@U?$char_traits@G@ce@@Vallocator@2@@ce@@IAA_NI@Z|
  0001c	e5cd0004	 strb        r0, [sp, #4]
  00020	e5dd3004	 ldrb        r3, [sp, #4]
  00024	e5cd3000	 strb        r3, [sp]
  00028	e5dd0000	 ldrb        r0, [sp]
  0002c	e28dd008	 add         sp, sp, #8
  00030	e89d6000	 ldmia       sp, {sp, lr}
  00034	e12fff1e	 bx          lr
  00038		 |$M39408|

			 ENDP  ; |?reserve@?$_string_t@G$0BA@U?$char_traits@G@ce@@Vallocator@2@@ce@@QAA_NI@Z|, ce::_string_t<unsigned short,16,ce::char_traits<unsigned short>,ce::allocator>::reserve


  00000			 AREA	 |.pdata|, PDATA
|$T39418| DCD	|$LN6@resize|
	DCD	0x40001704
; Function compile flags: /Odtp

  00000			 AREA	 |.text|, CODE, ARM

  00000		 |?resize@?$_string_t@G$0BA@U?$char_traits@G@ce@@Vallocator@2@@ce@@QAA_NI@Z| PROC ; ce::_string_t<unsigned short,16,ce::char_traits<unsigned short>,ce::allocator>::resize

; 383  :     {

  00000		 |$LN6@resize|
  00000	e1a0c00d	 mov         r12, sp
  00004	e92d0003	 stmdb       sp!, {r0, r1}
  00008	e92d5000	 stmdb       sp!, {r12, lr}
  0000c	e24dd008	 sub         sp, sp, #8
  00010		 |$M39415|

; 384  :         if(_Grow(_N))

  00010	e59d1014	 ldr         r1, [sp, #0x14]
  00014	e59d0010	 ldr         r0, [sp, #0x10]
  00018	eb000000	 bl          |?_Grow@?$_string_t@G$0BA@U?$char_traits@G@ce@@Vallocator@2@@ce@@IAA_NI@Z|
  0001c	e5cd0004	 strb        r0, [sp, #4]
  00020	e5dd3004	 ldrb        r3, [sp, #4]
  00024	e3530000	 cmp         r3, #0
  00028	0a000005	 beq         |$LN1@resize|

; 385  :         {
; 386  :             _Eos(_N);

  0002c	e59d1014	 ldr         r1, [sp, #0x14]
  00030	e59d0010	 ldr         r0, [sp, #0x10]
  00034	eb000000	 bl          |?_Eos@?$_string_t@G$0BA@U?$char_traits@G@ce@@Vallocator@2@@ce@@IAAXI@Z|

; 387  :             
; 388  :             return true;

  00038	e3a03001	 mov         r3, #1
  0003c	e5cd3000	 strb        r3, [sp]
  00040	ea000001	 b           |$LN2@resize|
  00044		 |$LN1@resize|

; 389  :         }
; 390  :         
; 391  :         return false;

  00044	e3a03000	 mov         r3, #0
  00048	e5cd3000	 strb        r3, [sp]
  0004c		 |$LN2@resize|

; 392  :     }

  0004c	e5dd0000	 ldrb        r0, [sp]
  00050	e28dd008	 add         sp, sp, #8
  00054	e89d6000	 ldmia       sp, {sp, lr}
  00058	e12fff1e	 bx          lr
  0005c		 |$M39416|

			 ENDP  ; |?resize@?$_string_t@G$0BA@U?$char_traits@G@ce@@Vallocator@2@@ce@@QAA_NI@Z|, ce::_string_t<unsigned short,16,ce::char_traits<unsigned short>,ce::allocator>::resize

	EXPORT	|??0_buffer@?$_string_t@G$0BA@U?$char_traits@G@ce@@Vallocator@2@@ce@@QAA@PAV12@@Z| ; ce::_string_t<unsigned short,16,ce::char_traits<unsigned short>,ce::allocator>::_buffer::_buffer

  00000			 AREA	 |.pdata|, PDATA
|$T39426| DCD	|$LN5@get_buffer|
	DCD	0x40000e04
; Function compile flags: /Odtp

  00000			 AREA	 |.text|, CODE, ARM

  00000		 |?get_buffer@?$_string_t@G$0BA@U?$char_traits@G@ce@@Vallocator@2@@ce@@QAA?AV_buffer@12@XZ| PROC ; ce::_string_t<unsigned short,16,ce::char_traits<unsigned short>,ce::allocator>::get_buffer

; 396  :         {return this; }

  00000		 |$LN5@get_buffer|
  00000	e1a0c00d	 mov         r12, sp
  00004	e92d0003	 stmdb       sp!, {r0, r1}
  00008	e92d5000	 stmdb       sp!, {r12, lr}
  0000c	e24dd008	 sub         sp, sp, #8
  00010		 |$M39423|
  00010	e59d1010	 ldr         r1, [sp, #0x10]
  00014	e59d0014	 ldr         r0, [sp, #0x14]
  00018	eb000000	 bl          |??0_buffer@?$_string_t@G$0BA@U?$char_traits@G@ce@@Vallocator@2@@ce@@QAA@PAV12@@Z|
  0001c	e58d0004	 str         r0, [sp, #4]
  00020	e59d3014	 ldr         r3, [sp, #0x14]
  00024	e58d3000	 str         r3, [sp]
  00028	e59d0000	 ldr         r0, [sp]
  0002c	e28dd008	 add         sp, sp, #8
  00030	e89d6000	 ldmia       sp, {sp, lr}
  00034	e12fff1e	 bx          lr
  00038		 |$M39424|

			 ENDP  ; |?get_buffer@?$_string_t@G$0BA@U?$char_traits@G@ce@@Vallocator@2@@ce@@QAA?AV_buffer@12@XZ|, ce::_string_t<unsigned short,16,ce::char_traits<unsigned short>,ce::allocator>::get_buffer


  00000			 AREA	 |.pdata|, PDATA
|$T39433| DCD	|$LN5@buffer|
	DCD	0x40001004
; Function compile flags: /Odtp

  00000			 AREA	 |.text|, CODE, ARM

  00000		 |??1_buffer@?$_string_t@G$0BA@U?$char_traits@G@ce@@Vallocator@2@@ce@@QAA@XZ| PROC ; ce::_string_t<unsigned short,16,ce::char_traits<unsigned short>,ce::allocator>::_buffer::~_buffer

; 590  :             {_Str->_Eos(_Tr::length(_Str->_Ptr)); }

  00000		 |$LN5@buffer|
  00000	e1a0c00d	 mov         r12, sp
  00004	e92d0001	 stmdb       sp!, {r0}
  00008	e92d5000	 stmdb       sp!, {r12, lr}
  0000c	e24dd004	 sub         sp, sp, #4
  00010		 |$M39430|
  00010	e59d300c	 ldr         r3, [sp, #0xC]
  00014	e5933000	 ldr         r3, [r3]
  00018	e5930000	 ldr         r0, [r3]
  0001c	eb000000	 bl          |?length@?$basic_char_traits@G@ce@@SAIPBG@Z|
  00020	e58d0000	 str         r0, [sp]
  00024	e59d1000	 ldr         r1, [sp]
  00028	e59d300c	 ldr         r3, [sp, #0xC]
  0002c	e5930000	 ldr         r0, [r3]
  00030	eb000000	 bl          |?_Eos@?$_string_t@G$0BA@U?$char_traits@G@ce@@Vallocator@2@@ce@@IAAXI@Z|
  00034	e28dd004	 add         sp, sp, #4
  00038	e89d6000	 ldmia       sp, {sp, lr}
  0003c	e12fff1e	 bx          lr
  00040		 |$M39431|

			 ENDP  ; |??1_buffer@?$_string_t@G$0BA@U?$char_traits@G@ce@@Vallocator@2@@ce@@QAA@XZ|, ce::_string_t<unsigned short,16,ce::char_traits<unsigned short>,ce::allocator>::_buffer::~_buffer


  00000			 AREA	 |.pdata|, PDATA
|$T39441| DCD	|$LN5@operator@8|
	DCD	0x40000c04
; Function compile flags: /Odtp

  00000			 AREA	 |.text|, CODE, ARM

  00000		 |??B_buffer@?$_string_t@G$0BA@U?$char_traits@G@ce@@Vallocator@2@@ce@@QAAPAGXZ| PROC ; ce::_string_t<unsigned short,16,ce::char_traits<unsigned short>,ce::allocator>::_buffer::operator unsigned short *

; 593  :             {return _Str->_Ptr; }

  00000		 |$LN5@operator@8|
  00000	e1a0c00d	 mov         r12, sp
  00004	e92d0001	 stmdb       sp!, {r0}
  00008	e92d5000	 stmdb       sp!, {r12, lr}
  0000c	e24dd004	 sub         sp, sp, #4
  00010		 |$M39438|
  00010	e59d300c	 ldr         r3, [sp, #0xC]
  00014	e5933000	 ldr         r3, [r3]
  00018	e5933000	 ldr         r3, [r3]
  0001c	e58d3000	 str         r3, [sp]
  00020	e59d0000	 ldr         r0, [sp]
  00024	e28dd004	 add         sp, sp, #4
  00028	e89d6000	 ldmia       sp, {sp, lr}
  0002c	e12fff1e	 bx          lr
  00030		 |$M39439|

			 ENDP  ; |??B_buffer@?$_string_t@G$0BA@U?$char_traits@G@ce@@Vallocator@2@@ce@@QAAPAGXZ|, ce::_string_t<unsigned short,16,ce::char_traits<unsigned short>,ce::allocator>::_buffer::operator unsigned short *


  00000			 AREA	 |.pdata|, PDATA
|$T39449| DCD	|$LN5@buffer@2|
	DCD	0x40000d04
; Function compile flags: /Odtp

  00000			 AREA	 |.text|, CODE, ARM

  00000		 |??0_buffer@?$_string_t@G$0BA@U?$char_traits@G@ce@@Vallocator@2@@ce@@QAA@PAV12@@Z| PROC ; ce::_string_t<unsigned short,16,ce::char_traits<unsigned short>,ce::allocator>::_buffer::_buffer

; 587  :             {}

  00000		 |$LN5@buffer@2|
  00000	e1a0c00d	 mov         r12, sp
  00004	e92d0003	 stmdb       sp!, {r0, r1}
  00008	e92d5000	 stmdb       sp!, {r12, lr}
  0000c	e24dd004	 sub         sp, sp, #4
  00010		 |$M39446|
  00010	e59d2010	 ldr         r2, [sp, #0x10]
  00014	e59d300c	 ldr         r3, [sp, #0xC]
  00018	e5832000	 str         r2, [r3]
  0001c	e59d300c	 ldr         r3, [sp, #0xC]
  00020	e58d3000	 str         r3, [sp]
  00024	e59d0000	 ldr         r0, [sp]
  00028	e28dd004	 add         sp, sp, #4
  0002c	e89d6000	 ldmia       sp, {sp, lr}
  00030	e12fff1e	 bx          lr
  00034		 |$M39447|

			 ENDP  ; |??0_buffer@?$_string_t@G$0BA@U?$char_traits@G@ce@@Vallocator@2@@ce@@QAA@PAV12@@Z|, ce::_string_t<unsigned short,16,ce::char_traits<unsigned short>,ce::allocator>::_buffer::_buffer

	EXPORT	|?_MoveForward@?$vector@KVallocator@ce@@U?$incremental_growth@$09@2@@ce@@IAAXPAK00@Z| ; ce::vector<unsigned long,ce::allocator,ce::incremental_growth<10> >::_MoveForward
	EXPORT	|?_Copy@?$vector@KVallocator@ce@@U?$incremental_growth@$09@2@@ce@@IAAPAKPBK0PAK@Z| ; ce::vector<unsigned long,ce::allocator,ce::incremental_growth<10> >::_Copy
	EXPORT	|?get_growth@?$incremental_growth@$09@ce@@SAIIII@Z| ; ce::incremental_growth<10>::get_growth
	EXPORT	|?size@?$vector@KVallocator@ce@@U?$incremental_growth@$09@2@@ce@@QBAIXZ| ; ce::vector<unsigned long,ce::allocator,ce::incremental_growth<10> >::size
	EXPORT	|??_C@_1MA@GGNFAFPM@?$AA?$AN?$AA?6?$AA?$CK?$AA?$CK?$AA?$CK?$AA?5?$AAA?$AAS?$AAS?$AAE?$AAR?$AAT?$AAI?$AAO?$AAN?$AA?5?$AAF?$AAA?$AAI?$AAL?$AAE?$AAD?$AA?5?$AAi?$AAn?$AA?5?$AAC?$AA?3?$AA?2?$AAW?$AAI?$AAN@| [ DATA ] ; `string'
	EXPORT	|??_C@_1ME@HADFIOJC@?$AA?$AN?$AA?6?$AA?$CK?$AA?$CK?$AA?$CK?$AA?5?$AAA?$AAS?$AAS?$AAE?$AAR?$AAT?$AAI?$AAO?$AAN?$AA?5?$AAF?$AAA?$AAI?$AAL?$AAE?$AAD?$AA?5?$AAi?$AAn?$AA?5?$AAC?$AA?3?$AA?2?$AAW?$AAI?$AAN@| [ DATA ] ; `string'
; File c:\wince600\public\common\oak\inc\vector.hxx

  00000			 AREA	 |.pdata|, PDATA
|$T39465| DCD	|$LN23@insert@5|
	DCD	0x4000ea04

  00000			 AREA	 |.rdata|, DATA, READONLY
|??_C@_1MA@GGNFAFPM@?$AA?$AN?$AA?6?$AA?$CK?$AA?$CK?$AA?$CK?$AA?5?$AAA?$AAS?$AAS?$AAE?$AAR?$AAT?$AAI?$AAO?$AAN?$AA?5?$AAF?$AAA?$AAI?$AAL?$AAE?$AAD?$AA?5?$AAi?$AAn?$AA?5?$AAC?$AA?3?$AA?2?$AAW?$AAI?$AAN@| DCB 0xd
	DCB	0x0, 0xa, 0x0, "*", 0x0, "*", 0x0, "*", 0x0, " ", 0x0, "A"
	DCB	0x0, "S", 0x0, "S", 0x0, "E", 0x0, "R", 0x0, "T", 0x0, "I"
	DCB	0x0, "O", 0x0, "N", 0x0, " ", 0x0, "F", 0x0, "A", 0x0, "I"
	DCB	0x0, "L", 0x0, "E", 0x0, "D", 0x0, " ", 0x0, "i", 0x0, "n"
	DCB	0x0, " ", 0x0, "C", 0x0, ":", 0x0, "\\", 0x0, "W", 0x0, "I"
	DCB	0x0, "N", 0x0, "C", 0x0, "E", 0x0, "6", 0x0, "0", 0x0, "0"
	DCB	0x0, "\\", 0x0, "p", 0x0, "u", 0x0, "b", 0x0, "l", 0x0, "i"
	DCB	0x0, "c", 0x0, "\\", 0x0, "c", 0x0, "o", 0x0, "m", 0x0, "m"
	DCB	0x0, "o", 0x0, "n", 0x0, "\\", 0x0, "o", 0x0, "a", 0x0, "k"
	DCB	0x0, "\\", 0x0, "i", 0x0, "n", 0x0, "c", 0x0, "\\", 0x0, "v"
	DCB	0x0, "e", 0x0, "c", 0x0, "t", 0x0, "o", 0x0, "r", 0x0, "."
	DCB	0x0, "h", 0x0, "x", 0x0, "x", 0x0, "(", 0x0, "3", 0x0, "0"
	DCB	0x0, "2", 0x0, ")", 0x0, ":", 0x0, 0xd, 0x0, 0xa, 0x0, "_"
	DCB	0x0, "W", 0x0, "h", 0x0, "e", 0x0, "r", 0x0, "e", 0x0, " "
	DCB	0x0, "<", 0x0, "=", 0x0, " ", 0x0, "e", 0x0, "n", 0x0, "d"
	DCB	0x0, "(", 0x0, ")", 0x0, 0xd, 0x0, 0xa, 0x0, 0x0, 0x0 ; `string'

  00000			 AREA	 |.rdata|, DATA, READONLY
|??_C@_1ME@HADFIOJC@?$AA?$AN?$AA?6?$AA?$CK?$AA?$CK?$AA?$CK?$AA?5?$AAA?$AAS?$AAS?$AAE?$AAR?$AAT?$AAI?$AAO?$AAN?$AA?5?$AAF?$AAA?$AAI?$AAL?$AAE?$AAD?$AA?5?$AAi?$AAn?$AA?5?$AAC?$AA?3?$AA?2?$AAW?$AAI?$AAN@| DCB 0xd
	DCB	0x0, 0xa, 0x0, "*", 0x0, "*", 0x0, "*", 0x0, " ", 0x0, "A"
	DCB	0x0, "S", 0x0, "S", 0x0, "E", 0x0, "R", 0x0, "T", 0x0, "I"
	DCB	0x0, "O", 0x0, "N", 0x0, " ", 0x0, "F", 0x0, "A", 0x0, "I"
	DCB	0x0, "L", 0x0, "E", 0x0, "D", 0x0, " ", 0x0, "i", 0x0, "n"
	DCB	0x0, " ", 0x0, "C", 0x0, ":", 0x0, "\\", 0x0, "W", 0x0, "I"
	DCB	0x0, "N", 0x0, "C", 0x0, "E", 0x0, "6", 0x0, "0", 0x0, "0"
	DCB	0x0, "\\", 0x0, "p", 0x0, "u", 0x0, "b", 0x0, "l", 0x0, "i"
	DCB	0x0, "c", 0x0, "\\", 0x0, "c", 0x0, "o", 0x0, "m", 0x0, "m"
	DCB	0x0, "o", 0x0, "n", 0x0, "\\", 0x0, "o", 0x0, "a", 0x0, "k"
	DCB	0x0, "\\", 0x0, "i", 0x0, "n", 0x0, "c", 0x0, "\\", 0x0, "v"
	DCB	0x0, "e", 0x0, "c", 0x0, "t", 0x0, "o", 0x0, "r", 0x0, "."
	DCB	0x0, "h", 0x0, "x", 0x0, "x", 0x0, "(", 0x0, "3", 0x0, "0"
	DCB	0x0, "1", 0x0, ")", 0x0, ":", 0x0, 0xd, 0x0, 0xa, 0x0, "_"
	DCB	0x0, "W", 0x0, "h", 0x0, "e", 0x0, "r", 0x0, "e", 0x0, " "
	DCB	0x0, ">", 0x0, "=", 0x0, " ", 0x0, "b", 0x0, "e", 0x0, "g"
	DCB	0x0, "i", 0x0, "n", 0x0, "(", 0x0, ")", 0x0, 0xd, 0x0, 0xa
	DCB	0x0, 0x0, 0x0				; `string'
; Function compile flags: /Odtp

  00000			 AREA	 |.text|, CODE, ARM

  00000		 |??$insert@K@?$vector@KVallocator@ce@@U?$incremental_growth@$09@2@@ce@@QAA_NPAKIABK@Z| PROC ; ce::vector<unsigned long,ce::allocator,ce::incremental_growth<10> >::insert<unsigned long>

; 299  :     bool insert(iterator _Where, size_type _N, const _Val& _X)

  00000		 |$LN23@insert@5|
  00000	e1a0c00d	 mov         r12, sp
  00004	e92d000f	 stmdb       sp!, {r0 - r3}
  00008	e92d5000	 stmdb       sp!, {r12, lr}
  0000c	e24dd074	 sub         sp, sp, #0x74
  00010		 |$M39462|

; 300  :     {
; 301  :         assert(_Where >= begin());

  00010	e59d007c	 ldr         r0, [sp, #0x7C]
  00014	eb000000	 bl          |?begin@?$vector@KVallocator@ce@@U?$incremental_growth@$09@2@@ce@@QAAPAKXZ|
  00018	e58d001c	 str         r0, [sp, #0x1C]
  0001c	e59d2080	 ldr         r2, [sp, #0x80]
  00020	e59d301c	 ldr         r3, [sp, #0x1C]
  00024	e1520003	 cmp         r2, r3
  00028	2a000002	 bcs         |$LN15@insert@5|
  0002c	e59f0370	 ldr         r0, [pc, #0x370]
  00030	eb000000	 bl          OutputDebugStringW
  00034	e6000010	 __debugbreak_ce
  00038		 |$LN15@insert@5|

; 302  :         assert(_Where <= end());

  00038	e59d007c	 ldr         r0, [sp, #0x7C]
  0003c	eb000000	 bl          |?end@?$vector@KVallocator@ce@@U?$incremental_growth@$09@2@@ce@@QAAPAKXZ|
  00040	e58d0020	 str         r0, [sp, #0x20]
  00044	e59d2080	 ldr         r2, [sp, #0x80]
  00048	e59d3020	 ldr         r3, [sp, #0x20]
  0004c	e1520003	 cmp         r2, r3
  00050	9a000002	 bls         |$LN16@insert@5|
  00054	e59f0344	 ldr         r0, [pc, #0x344]
  00058	eb000000	 bl          OutputDebugStringW
  0005c	e6000010	 __debugbreak_ce
  00060		 |$LN16@insert@5|

; 303  :         
; 304  :         if(_N > capacity() - size())

  00060	e59d007c	 ldr         r0, [sp, #0x7C]
  00064	eb000000	 bl          |?capacity@?$vector@KVallocator@ce@@U?$incremental_growth@$09@2@@ce@@QBAIXZ|
  00068	e58d0024	 str         r0, [sp, #0x24]
  0006c	e59d007c	 ldr         r0, [sp, #0x7C]
  00070	eb000000	 bl          |?size@?$vector@KVallocator@ce@@U?$incremental_growth@$09@2@@ce@@QBAIXZ|
  00074	e58d0028	 str         r0, [sp, #0x28]
  00078	e59d2024	 ldr         r2, [sp, #0x24]
  0007c	e59d3028	 ldr         r3, [sp, #0x28]
  00080	e0422003	 sub         r2, r2, r3
  00084	e59d3084	 ldr         r3, [sp, #0x84]
  00088	e1530002	 cmp         r3, r2
  0008c	9a00008d	 bls         |$LN12@insert@5|

; 305  :         {
; 306  :             //
; 307  :             // The vector doesn't have space for _N additional items so it has to grow
; 308  :             //
; 309  :             size_t _GrowBy = _Tr::get_growth(size(), capacity(), _N);

  00090	e59d007c	 ldr         r0, [sp, #0x7C]
  00094	eb000000	 bl          |?capacity@?$vector@KVallocator@ce@@U?$incremental_growth@$09@2@@ce@@QBAIXZ|
  00098	e58d002c	 str         r0, [sp, #0x2C]
  0009c	e59d007c	 ldr         r0, [sp, #0x7C]
  000a0	eb000000	 bl          |?size@?$vector@KVallocator@ce@@U?$incremental_growth@$09@2@@ce@@QBAIXZ|
  000a4	e58d0030	 str         r0, [sp, #0x30]
  000a8	e59d2084	 ldr         r2, [sp, #0x84]
  000ac	e59d102c	 ldr         r1, [sp, #0x2C]
  000b0	e59d0030	 ldr         r0, [sp, #0x30]
  000b4	eb000000	 bl          |?get_growth@?$incremental_growth@$09@ce@@SAIIII@Z|
  000b8	e58d0034	 str         r0, [sp, #0x34]
  000bc	e59d3034	 ldr         r3, [sp, #0x34]
  000c0	e58d300c	 str         r3, [sp, #0xC]

; 310  :             
; 311  :             if(_GrowBy < _N)

  000c4	e59d200c	 ldr         r2, [sp, #0xC]
  000c8	e59d3084	 ldr         r3, [sp, #0x84]
  000cc	e1520003	 cmp         r2, r3
  000d0	2a000002	 bcs         |$LN11@insert@5|

; 312  :                 return false; // integer overflow or faulty growth policy

  000d4	e3a03000	 mov         r3, #0
  000d8	e5cd3018	 strb        r3, [sp, #0x18]
  000dc	ea0000ab	 b           |$LN13@insert@5|
  000e0		 |$LN11@insert@5|

; 313  :             
; 314  :             size_type _NewCapacity = size() + _GrowBy;

  000e0	e59d007c	 ldr         r0, [sp, #0x7C]
  000e4	eb000000	 bl          |?size@?$vector@KVallocator@ce@@U?$incremental_growth@$09@2@@ce@@QBAIXZ|
  000e8	e58d0038	 str         r0, [sp, #0x38]
  000ec	e59d2038	 ldr         r2, [sp, #0x38]
  000f0	e59d300c	 ldr         r3, [sp, #0xC]
  000f4	e0823003	 add         r3, r2, r3
  000f8	e58d3004	 str         r3, [sp, #4]

; 315  :             
; 316  :             // protected against integer overflow
; 317  :             if(_NewCapacity > ULONG_MAX / sizeof(T) ||
; 318  :                _NewCapacity < size())

  000fc	e59d3004	 ldr         r3, [sp, #4]
  00100	e3730107	 cmn         r3, #7, 2
  00104	8a000006	 bhi         |$LN9@insert@5|
  00108	e59d007c	 ldr         r0, [sp, #0x7C]
  0010c	eb000000	 bl          |?size@?$vector@KVallocator@ce@@U?$incremental_growth@$09@2@@ce@@QBAIXZ|
  00110	e58d003c	 str         r0, [sp, #0x3C]
  00114	e59d2004	 ldr         r2, [sp, #4]
  00118	e59d303c	 ldr         r3, [sp, #0x3C]
  0011c	e1520003	 cmp         r2, r3
  00120	2a000002	 bcs         |$LN10@insert@5|
  00124		 |$LN9@insert@5|

; 319  :             {
; 320  :                 return false;

  00124	e3a03000	 mov         r3, #0
  00128	e5cd3018	 strb        r3, [sp, #0x18]
  0012c	ea000097	 b           |$LN13@insert@5|
  00130		 |$LN10@insert@5|

; 321  :             }
; 322  :             
; 323  :             iterator _New = reinterpret_cast<iterator>(allocate(_NewCapacity * sizeof(T)));

  00130	e59d2004	 ldr         r2, [sp, #4]
  00134	e3a03004	 mov         r3, #4
  00138	e0010392	 mul         r1, r2, r3
  0013c	e59d007c	 ldr         r0, [sp, #0x7C]
  00140	eb000000	 bl          |?allocate@allocator@ce@@QBAPAXI@Z|
  00144	e58d0040	 str         r0, [sp, #0x40]
  00148	e59d3040	 ldr         r3, [sp, #0x40]
  0014c	e58d3000	 str         r3, [sp]

; 324  :             
; 325  :             if(NULL == _New)

  00150	e59d3000	 ldr         r3, [sp]
  00154	e3530000	 cmp         r3, #0
  00158	1a000002	 bne         |$LN8@insert@5|

; 326  :                 return false;

  0015c	e3a03000	 mov         r3, #0
  00160	e5cd3018	 strb        r3, [sp, #0x18]
  00164	ea000089	 b           |$LN13@insert@5|
  00168		 |$LN8@insert@5|

; 327  :                 
; 328  :             //
; 329  :             // Copy items from the beginning to the insertion possition
; 330  :             //
; 331  :             iterator _Item = _Copy(begin(), _Where, _New);

  00168	e59d007c	 ldr         r0, [sp, #0x7C]
  0016c	eb000000	 bl          |?begin@?$vector@KVallocator@ce@@U?$incremental_growth@$09@2@@ce@@QAAPAKXZ|
  00170	e58d0044	 str         r0, [sp, #0x44]
  00174	e59d3000	 ldr         r3, [sp]
  00178	e59d2080	 ldr         r2, [sp, #0x80]
  0017c	e59d1044	 ldr         r1, [sp, #0x44]
  00180	e59d007c	 ldr         r0, [sp, #0x7C]
  00184	eb000000	 bl          |?_Copy@?$vector@KVallocator@ce@@U?$incremental_growth@$09@2@@ce@@IAAPAKPBK0PAK@Z|
  00188	e58d0048	 str         r0, [sp, #0x48]
  0018c	e59d3048	 ldr         r3, [sp, #0x48]
  00190	e58d3008	 str         r3, [sp, #8]
  00194	ea000005	 b           |$LN7@insert@5|
  00198		 |$LN6@insert@5|

; 332  :             
; 333  :             //
; 334  :             // Insert new item(s)
; 335  :             //
; 336  :             for(; _N > 0; --_N, ++_Item)

  00198	e59d3084	 ldr         r3, [sp, #0x84]
  0019c	e2433001	 sub         r3, r3, #1
  001a0	e58d3084	 str         r3, [sp, #0x84]
  001a4	e59d3008	 ldr         r3, [sp, #8]
  001a8	e2833004	 add         r3, r3, #4
  001ac	e58d3008	 str         r3, [sp, #8]
  001b0		 |$LN7@insert@5|
  001b0	e59d3084	 ldr         r3, [sp, #0x84]
  001b4	e3530000	 cmp         r3, #0
  001b8	9a000012	 bls         |$LN5@insert@5|

; 337  :                 new (_Item)T(_X);

  001bc	e59d1008	 ldr         r1, [sp, #8]
  001c0	e3a00004	 mov         r0, #4
  001c4	eb000000	 bl          |??2@YAPAXIPAX@Z|
  001c8	e58d004c	 str         r0, [sp, #0x4C]
  001cc	e59d304c	 ldr         r3, [sp, #0x4C]
  001d0	e58d3010	 str         r3, [sp, #0x10]
  001d4	e59d3010	 ldr         r3, [sp, #0x10]
  001d8	e3530000	 cmp         r3, #0
  001dc	0a000006	 beq         |$LN17@insert@5|
  001e0	e59d3088	 ldr         r3, [sp, #0x88]
  001e4	e5932000	 ldr         r2, [r3]
  001e8	e59d3010	 ldr         r3, [sp, #0x10]
  001ec	e5832000	 str         r2, [r3]
  001f0	e59d3010	 ldr         r3, [sp, #0x10]
  001f4	e58d3050	 str         r3, [sp, #0x50]
  001f8	ea000001	 b           |$LN18@insert@5|
  001fc		 |$LN17@insert@5|
  001fc	e3a03000	 mov         r3, #0
  00200	e58d3050	 str         r3, [sp, #0x50]
  00204		 |$LN18@insert@5|
  00204	eaffffe3	 b           |$LN6@insert@5|
  00208		 |$LN5@insert@5|

; 338  :                 
; 339  :             //
; 340  :             // Copy items from the insertion possition to the end
; 341  :             //
; 342  :             _Item = _Copy(_Where, end(), _Item);

  00208	e59d007c	 ldr         r0, [sp, #0x7C]
  0020c	eb000000	 bl          |?end@?$vector@KVallocator@ce@@U?$incremental_growth@$09@2@@ce@@QAAPAKXZ|
  00210	e58d0054	 str         r0, [sp, #0x54]
  00214	e59d3008	 ldr         r3, [sp, #8]
  00218	e59d2054	 ldr         r2, [sp, #0x54]
  0021c	e59d1080	 ldr         r1, [sp, #0x80]
  00220	e59d007c	 ldr         r0, [sp, #0x7C]
  00224	eb000000	 bl          |?_Copy@?$vector@KVallocator@ce@@U?$incremental_growth@$09@2@@ce@@IAAPAKPBK0PAK@Z|
  00228	e58d0058	 str         r0, [sp, #0x58]
  0022c	e59d3058	 ldr         r3, [sp, #0x58]
  00230	e58d3008	 str         r3, [sp, #8]

; 343  :             
; 344  :             //
; 345  :             // Destroy elements and deallocate old memory
; 346  :             //
; 347  :             _Destroy(begin(), end());

  00234	e59d007c	 ldr         r0, [sp, #0x7C]
  00238	eb000000	 bl          |?end@?$vector@KVallocator@ce@@U?$incremental_growth@$09@2@@ce@@QAAPAKXZ|
  0023c	e58d005c	 str         r0, [sp, #0x5C]
  00240	e59d007c	 ldr         r0, [sp, #0x7C]
  00244	eb000000	 bl          |?begin@?$vector@KVallocator@ce@@U?$incremental_growth@$09@2@@ce@@QAAPAKXZ|
  00248	e58d0060	 str         r0, [sp, #0x60]
  0024c	e59d205c	 ldr         r2, [sp, #0x5C]
  00250	e59d1060	 ldr         r1, [sp, #0x60]
  00254	e59d007c	 ldr         r0, [sp, #0x7C]
  00258	eb000000	 bl          |?_Destroy@?$vector@KVallocator@ce@@U?$incremental_growth@$09@2@@ce@@IAAXPAK0@Z|

; 348  :             deallocate(_First, capacity() * sizeof(T));

  0025c	e59d007c	 ldr         r0, [sp, #0x7C]
  00260	eb000000	 bl          |?capacity@?$vector@KVallocator@ce@@U?$incremental_growth@$09@2@@ce@@QBAIXZ|
  00264	e58d0064	 str         r0, [sp, #0x64]
  00268	e59d1064	 ldr         r1, [sp, #0x64]
  0026c	e3a03004	 mov         r3, #4
  00270	e0020391	 mul         r2, r1, r3
  00274	e59d307c	 ldr         r3, [sp, #0x7C]
  00278	e5931000	 ldr         r1, [r3]
  0027c	e59d007c	 ldr         r0, [sp, #0x7C]
  00280	eb000000	 bl          |?deallocate@allocator@ce@@QBAXPAXI@Z|

; 349  :             
; 350  :             _First = _New;

  00284	e59d2000	 ldr         r2, [sp]
  00288	e59d307c	 ldr         r3, [sp, #0x7C]
  0028c	e5832000	 str         r2, [r3]

; 351  :             _Last = _Item;

  00290	e59d307c	 ldr         r3, [sp, #0x7C]
  00294	e2832004	 add         r2, r3, #4
  00298	e59d3008	 ldr         r3, [sp, #8]
  0029c	e5823000	 str         r3, [r2]

; 352  :             _End = _First + _NewCapacity;

  002a0	e59d1004	 ldr         r1, [sp, #4]
  002a4	e3a03004	 mov         r3, #4
  002a8	e0020391	 mul         r2, r1, r3
  002ac	e59d307c	 ldr         r3, [sp, #0x7C]
  002b0	e5933000	 ldr         r3, [r3]
  002b4	e0832002	 add         r2, r3, r2
  002b8	e59d307c	 ldr         r3, [sp, #0x7C]
  002bc	e2833008	 add         r3, r3, #8
  002c0	e5832000	 str         r2, [r3]

; 353  :         }
; 354  :         else

  002c4	ea00002f	 b           |$LN4@insert@5|
  002c8		 |$LN12@insert@5|

; 355  :         {
; 356  :             //
; 357  :             // Vector has enough space, we need to move existing items and insert new ones
; 358  :             //
; 359  :             _MoveForward(_Where, end(), _Where + _N);

  002c8	e59d007c	 ldr         r0, [sp, #0x7C]
  002cc	eb000000	 bl          |?end@?$vector@KVallocator@ce@@U?$incremental_growth@$09@2@@ce@@QAAPAKXZ|
  002d0	e58d0068	 str         r0, [sp, #0x68]
  002d4	e59d1084	 ldr         r1, [sp, #0x84]
  002d8	e3a03004	 mov         r3, #4
  002dc	e0020391	 mul         r2, r1, r3
  002e0	e59d3080	 ldr         r3, [sp, #0x80]
  002e4	e0833002	 add         r3, r3, r2
  002e8	e59d2068	 ldr         r2, [sp, #0x68]
  002ec	e59d1080	 ldr         r1, [sp, #0x80]
  002f0	e59d007c	 ldr         r0, [sp, #0x7C]
  002f4	eb000000	 bl          |?_MoveForward@?$vector@KVallocator@ce@@U?$incremental_growth@$09@2@@ce@@IAAXPAK00@Z|
  002f8	ea00000c	 b           |$LN3@insert@5|
  002fc		 |$LN2@insert@5|

; 360  :             
; 361  :             //
; 362  :             // Insert new item(s)
; 363  :             //
; 364  :             for(; _N > 0; --_N, ++_Where, ++_Last)

  002fc	e59d3084	 ldr         r3, [sp, #0x84]
  00300	e2433001	 sub         r3, r3, #1
  00304	e58d3084	 str         r3, [sp, #0x84]
  00308	e59d3080	 ldr         r3, [sp, #0x80]
  0030c	e2833004	 add         r3, r3, #4
  00310	e58d3080	 str         r3, [sp, #0x80]
  00314	e59d307c	 ldr         r3, [sp, #0x7C]
  00318	e2833004	 add         r3, r3, #4
  0031c	e5933000	 ldr         r3, [r3]
  00320	e2832004	 add         r2, r3, #4
  00324	e59d307c	 ldr         r3, [sp, #0x7C]
  00328	e2833004	 add         r3, r3, #4
  0032c	e5832000	 str         r2, [r3]
  00330		 |$LN3@insert@5|
  00330	e59d3084	 ldr         r3, [sp, #0x84]
  00334	e3530000	 cmp         r3, #0
  00338	9a000012	 bls         |$LN1@insert@5|

; 365  :                 new (_Where)T(_X);

  0033c	e59d1080	 ldr         r1, [sp, #0x80]
  00340	e3a00004	 mov         r0, #4
  00344	eb000000	 bl          |??2@YAPAXIPAX@Z|
  00348	e58d006c	 str         r0, [sp, #0x6C]
  0034c	e59d306c	 ldr         r3, [sp, #0x6C]
  00350	e58d3014	 str         r3, [sp, #0x14]
  00354	e59d3014	 ldr         r3, [sp, #0x14]
  00358	e3530000	 cmp         r3, #0
  0035c	0a000006	 beq         |$LN19@insert@5|
  00360	e59d3088	 ldr         r3, [sp, #0x88]
  00364	e5932000	 ldr         r2, [r3]
  00368	e59d3014	 ldr         r3, [sp, #0x14]
  0036c	e5832000	 str         r2, [r3]
  00370	e59d3014	 ldr         r3, [sp, #0x14]
  00374	e58d3070	 str         r3, [sp, #0x70]
  00378	ea000001	 b           |$LN20@insert@5|
  0037c		 |$LN19@insert@5|
  0037c	e3a03000	 mov         r3, #0
  00380	e58d3070	 str         r3, [sp, #0x70]
  00384		 |$LN20@insert@5|
  00384	eaffffdc	 b           |$LN2@insert@5|
  00388		 |$LN1@insert@5|
  00388		 |$LN4@insert@5|

; 366  :         }
; 367  :         
; 368  :         return true;

  00388	e3a03001	 mov         r3, #1
  0038c	e5cd3018	 strb        r3, [sp, #0x18]
  00390		 |$LN13@insert@5|

; 369  :     }

  00390	e5dd0018	 ldrb        r0, [sp, #0x18]
  00394	e28dd074	 add         sp, sp, #0x74
  00398	e89d6000	 ldmia       sp, {sp, lr}
  0039c	e12fff1e	 bx          lr
  003a0		 |$LN24@insert@5|
  003a0		 |$LN25@insert@5|
  003a0	00000000	 DCD         |??_C@_1MA@GGNFAFPM@?$AA?$AN?$AA?6?$AA?$CK?$AA?$CK?$AA?$CK?$AA?5?$AAA?$AAS?$AAS?$AAE?$AAR?$AAT?$AAI?$AAO?$AAN?$AA?5?$AAF?$AAA?$AAI?$AAL?$AAE?$AAD?$AA?5?$AAi?$AAn?$AA?5?$AAC?$AA?3?$AA?2?$AAW?$AAI?$AAN@|
  003a4		 |$LN26@insert@5|
  003a4	00000000	 DCD         |??_C@_1ME@HADFIOJC@?$AA?$AN?$AA?6?$AA?$CK?$AA?$CK?$AA?$CK?$AA?5?$AAA?$AAS?$AAS?$AAE?$AAR?$AAT?$AAI?$AAO?$AAN?$AA?5?$AAF?$AAA?$AAI?$AAL?$AAE?$AAD?$AA?5?$AAi?$AAn?$AA?5?$AAC?$AA?3?$AA?2?$AAW?$AAI?$AAN@|
  003a8		 |$M39463|

			 ENDP  ; |??$insert@K@?$vector@KVallocator@ce@@U?$incremental_growth@$09@2@@ce@@QAA_NPAKIABK@Z|, ce::vector<unsigned long,ce::allocator,ce::incremental_growth<10> >::insert<unsigned long>


  00000			 AREA	 |.pdata|, PDATA
|$T39476| DCD	|$LN5@size|
	DCD	0x40001004
; Function compile flags: /Odtp

  00000			 AREA	 |.text|, CODE, ARM

  00000		 |?size@?$vector@KVallocator@ce@@U?$incremental_growth@$09@2@@ce@@QBAIXZ| PROC ; ce::vector<unsigned long,ce::allocator,ce::incremental_growth<10> >::size

; 279  :         {return _Last - _First; }

  00000		 |$LN5@size|
  00000	e1a0c00d	 mov         r12, sp
  00004	e92d0001	 stmdb       sp!, {r0}
  00008	e92d5000	 stmdb       sp!, {r12, lr}
  0000c	e24dd004	 sub         sp, sp, #4
  00010		 |$M39473|
  00010	e59d300c	 ldr         r3, [sp, #0xC]
  00014	e2833004	 add         r3, r3, #4
  00018	e5932000	 ldr         r2, [r3]
  0001c	e59d300c	 ldr         r3, [sp, #0xC]
  00020	e5933000	 ldr         r3, [r3]
  00024	e0423003	 sub         r3, r2, r3
  00028	e1a03143	 mov         r3, r3, asr #2
  0002c	e58d3000	 str         r3, [sp]
  00030	e59d0000	 ldr         r0, [sp]
  00034	e28dd004	 add         sp, sp, #4
  00038	e89d6000	 ldmia       sp, {sp, lr}
  0003c	e12fff1e	 bx          lr
  00040		 |$M39474|

			 ENDP  ; |?size@?$vector@KVallocator@ce@@U?$incremental_growth@$09@2@@ce@@QBAIXZ|, ce::vector<unsigned long,ce::allocator,ce::incremental_growth<10> >::size

	EXPORT	|??_C@_1LC@CPAIIFOC@?$AA?$AN?$AA?6?$AA?$CK?$AA?$CK?$AA?$CK?$AA?5?$AAA?$AAS?$AAS?$AAE?$AAR?$AAT?$AAI?$AAO?$AAN?$AA?5?$AAF?$AAA?$AAI?$AAL?$AAE?$AAD?$AA?5?$AAi?$AAn?$AA?5?$AAC?$AA?3?$AA?2?$AAW?$AAI?$AAN@| [ DATA ] ; `string'

  00000			 AREA	 |.pdata|, PDATA
|$T39488| DCD	|$LN11@Copy|
	DCD	0x40003004

  00000			 AREA	 |.rdata|, DATA, READONLY
|??_C@_1LC@CPAIIFOC@?$AA?$AN?$AA?6?$AA?$CK?$AA?$CK?$AA?$CK?$AA?5?$AAA?$AAS?$AAS?$AAE?$AAR?$AAT?$AAI?$AAO?$AAN?$AA?5?$AAF?$AAA?$AAI?$AAL?$AAE?$AAD?$AA?5?$AAi?$AAn?$AA?5?$AAC?$AA?3?$AA?2?$AAW?$AAI?$AAN@| DCB 0xd
	DCB	0x0, 0xa, 0x0, "*", 0x0, "*", 0x0, "*", 0x0, " ", 0x0, "A"
	DCB	0x0, "S", 0x0, "S", 0x0, "E", 0x0, "R", 0x0, "T", 0x0, "I"
	DCB	0x0, "O", 0x0, "N", 0x0, " ", 0x0, "F", 0x0, "A", 0x0, "I"
	DCB	0x0, "L", 0x0, "E", 0x0, "D", 0x0, " ", 0x0, "i", 0x0, "n"
	DCB	0x0, " ", 0x0, "C", 0x0, ":", 0x0, "\\", 0x0, "W", 0x0, "I"
	DCB	0x0, "N", 0x0, "C", 0x0, "E", 0x0, "6", 0x0, "0", 0x0, "0"
	DCB	0x0, "\\", 0x0, "p", 0x0, "u", 0x0, "b", 0x0, "l", 0x0, "i"
	DCB	0x0, "c", 0x0, "\\", 0x0, "c", 0x0, "o", 0x0, "m", 0x0, "m"
	DCB	0x0, "o", 0x0, "n", 0x0, "\\", 0x0, "o", 0x0, "a", 0x0, "k"
	DCB	0x0, "\\", 0x0, "i", 0x0, "n", 0x0, "c", 0x0, "\\", 0x0, "v"
	DCB	0x0, "e", 0x0, "c", 0x0, "t", 0x0, "o", 0x0, "r", 0x0, "."
	DCB	0x0, "h", 0x0, "x", 0x0, "x", 0x0, "(", 0x0, "4", 0x0, "3"
	DCB	0x0, "1", 0x0, ")", 0x0, ":", 0x0, 0xd, 0x0, 0xa, 0x0, "_"
	DCB	0x0, "F", 0x0, " ", 0x0, "<", 0x0, "=", 0x0, " ", 0x0, "_"
	DCB	0x0, "L", 0x0, 0xd, 0x0, 0xa, 0x0, 0x0, 0x0 ; `string'
; Function compile flags: /Odtp

  00000			 AREA	 |.text|, CODE, ARM

  00000		 |?_Copy@?$vector@KVallocator@ce@@U?$incremental_growth@$09@2@@ce@@IAAPAKPBK0PAK@Z| PROC ; ce::vector<unsigned long,ce::allocator,ce::incremental_growth<10> >::_Copy

; 430  :     {

  00000		 |$LN11@Copy|
  00000	e1a0c00d	 mov         r12, sp
  00004	e92d000f	 stmdb       sp!, {r0 - r3}
  00008	e92d5000	 stmdb       sp!, {r12, lr}
  0000c	e24dd010	 sub         sp, sp, #0x10
  00010		 |$M39485|

; 431  :         assert(_F <= _L);

  00010	e59d201c	 ldr         r2, [sp, #0x1C]
  00014	e59d3020	 ldr         r3, [sp, #0x20]
  00018	e1520003	 cmp         r2, r3
  0001c	9a000002	 bls         |$LN6@Copy|
  00020	e59f0094	 ldr         r0, [pc, #0x94]
  00024	eb000000	 bl          OutputDebugStringW
  00028	e6000010	 __debugbreak_ce
  0002c		 |$LN6@Copy|

; 432  :         
; 433  :         for(; _F != _L; ++_P, ++_F)

  0002c	ea000005	 b           |$LN3@Copy|
  00030		 |$LN2@Copy|
  00030	e59d3024	 ldr         r3, [sp, #0x24]
  00034	e2833004	 add         r3, r3, #4
  00038	e58d3024	 str         r3, [sp, #0x24]
  0003c	e59d301c	 ldr         r3, [sp, #0x1C]
  00040	e2833004	 add         r3, r3, #4
  00044	e58d301c	 str         r3, [sp, #0x1C]
  00048		 |$LN3@Copy|
  00048	e59d201c	 ldr         r2, [sp, #0x1C]
  0004c	e59d3020	 ldr         r3, [sp, #0x20]
  00050	e1520003	 cmp         r2, r3
  00054	0a000012	 beq         |$LN1@Copy|

; 434  :             new (_P) T(*_F);

  00058	e59d1024	 ldr         r1, [sp, #0x24]
  0005c	e3a00004	 mov         r0, #4
  00060	eb000000	 bl          |??2@YAPAXIPAX@Z|
  00064	e58d0008	 str         r0, [sp, #8]
  00068	e59d3008	 ldr         r3, [sp, #8]
  0006c	e58d3000	 str         r3, [sp]
  00070	e59d3000	 ldr         r3, [sp]
  00074	e3530000	 cmp         r3, #0
  00078	0a000006	 beq         |$LN7@Copy|
  0007c	e59d301c	 ldr         r3, [sp, #0x1C]
  00080	e5932000	 ldr         r2, [r3]
  00084	e59d3000	 ldr         r3, [sp]
  00088	e5832000	 str         r2, [r3]
  0008c	e59d3000	 ldr         r3, [sp]
  00090	e58d300c	 str         r3, [sp, #0xC]
  00094	ea000001	 b           |$LN8@Copy|
  00098		 |$LN7@Copy|
  00098	e3a03000	 mov         r3, #0
  0009c	e58d300c	 str         r3, [sp, #0xC]
  000a0		 |$LN8@Copy|
  000a0	eaffffe2	 b           |$LN2@Copy|
  000a4		 |$LN1@Copy|

; 435  :         
; 436  :         return (_P);

  000a4	e59d3024	 ldr         r3, [sp, #0x24]
  000a8	e58d3004	 str         r3, [sp, #4]

; 437  :     }

  000ac	e59d0004	 ldr         r0, [sp, #4]
  000b0	e28dd010	 add         sp, sp, #0x10
  000b4	e89d6000	 ldmia       sp, {sp, lr}
  000b8	e12fff1e	 bx          lr
  000bc		 |$LN12@Copy|
  000bc		 |$LN13@Copy|
  000bc	00000000	 DCD         |??_C@_1LC@CPAIIFOC@?$AA?$AN?$AA?6?$AA?$CK?$AA?$CK?$AA?$CK?$AA?5?$AAA?$AAS?$AAS?$AAE?$AAR?$AAT?$AAI?$AAO?$AAN?$AA?5?$AAF?$AAA?$AAI?$AAL?$AAE?$AAD?$AA?5?$AAi?$AAn?$AA?5?$AAC?$AA?3?$AA?2?$AAW?$AAI?$AAN@|
  000c0		 |$M39486|

			 ENDP  ; |?_Copy@?$vector@KVallocator@ce@@U?$incremental_growth@$09@2@@ce@@IAAPAKPBK0PAK@Z|, ce::vector<unsigned long,ce::allocator,ce::incremental_growth<10> >::_Copy

	EXPORT	|??_C@_1LA@DAEAMJMC@?$AA?$AN?$AA?6?$AA?$CK?$AA?$CK?$AA?$CK?$AA?5?$AAA?$AAS?$AAS?$AAE?$AAR?$AAT?$AAI?$AAO?$AAN?$AA?5?$AAF?$AAA?$AAI?$AAL?$AAE?$AAD?$AA?5?$AAi?$AAn?$AA?5?$AAC?$AA?3?$AA?2?$AAW?$AAI?$AAN@| [ DATA ] ; `string'
	EXPORT	|??_C@_1LC@MCEJADJO@?$AA?$AN?$AA?6?$AA?$CK?$AA?$CK?$AA?$CK?$AA?5?$AAA?$AAS?$AAS?$AAE?$AAR?$AAT?$AAI?$AAO?$AAN?$AA?5?$AAF?$AAA?$AAI?$AAL?$AAE?$AAD?$AA?5?$AAi?$AAn?$AA?5?$AAC?$AA?3?$AA?2?$AAW?$AAI?$AAN@| [ DATA ] ; `string'
	EXPORT	|??_C@_1MO@ENDNKPMG@?$AA?$AN?$AA?6?$AA?$CK?$AA?$CK?$AA?$CK?$AA?5?$AAA?$AAS?$AAS?$AAE?$AAR?$AAT?$AAI?$AAO?$AAN?$AA?5?$AAF?$AAA?$AAI?$AAL?$AAE?$AAD?$AA?5?$AAi?$AAn?$AA?5?$AAC?$AA?3?$AA?2?$AAW?$AAI?$AAN@| [ DATA ] ; `string'
	EXPORT	|??_C@_1MO@FAHOHNFE@?$AA?$AN?$AA?6?$AA?$CK?$AA?$CK?$AA?$CK?$AA?5?$AAA?$AAS?$AAS?$AAE?$AAR?$AAT?$AAI?$AAO?$AAN?$AA?5?$AAF?$AAA?$AAI?$AAL?$AAE?$AAD?$AA?5?$AAi?$AAn?$AA?5?$AAC?$AA?3?$AA?2?$AAW?$AAI?$AAN@| [ DATA ] ; `string'
	EXPORT	|??_C@_1NI@GEABNEAC@?$AA?$AN?$AA?6?$AA?$CK?$AA?$CK?$AA?$CK?$AA?5?$AAA?$AAS?$AAS?$AAE?$AAR?$AAT?$AAI?$AAO?$AAN?$AA?5?$AAF?$AAA?$AAI?$AAL?$AAE?$AAD?$AA?5?$AAi?$AAn?$AA?5?$AAC?$AA?3?$AA?2?$AAW?$AAI?$AAN@| [ DATA ] ; `string'
	EXPORT	|??_C@_1NK@EIAICBLN@?$AA?$AN?$AA?6?$AA?$CK?$AA?$CK?$AA?$CK?$AA?5?$AAA?$AAS?$AAS?$AAE?$AAR?$AAT?$AAI?$AAO?$AAN?$AA?5?$AAF?$AAA?$AAI?$AAL?$AAE?$AAD?$AA?5?$AAi?$AAn?$AA?5?$AAC?$AA?3?$AA?2?$AAW?$AAI?$AAN@| [ DATA ] ; `string'
	EXPORT	|??_C@_1NK@FKEGIBGC@?$AA?$AN?$AA?6?$AA?$CK?$AA?$CK?$AA?$CK?$AA?5?$AAA?$AAS?$AAS?$AAE?$AAR?$AAT?$AAI?$AAO?$AAN?$AA?5?$AAF?$AAA?$AAI?$AAL?$AAE?$AAD?$AA?5?$AAi?$AAn?$AA?5?$AAC?$AA?3?$AA?2?$AAW?$AAI?$AAN@| [ DATA ] ; `string'

  00000			 AREA	 |.pdata|, PDATA
|$T39510| DCD	|$LN20@MoveForwar|
	DCD	0x40009904

  00000			 AREA	 |.rdata|, DATA, READONLY
|??_C@_1LA@DAEAMJMC@?$AA?$AN?$AA?6?$AA?$CK?$AA?$CK?$AA?$CK?$AA?5?$AAA?$AAS?$AAS?$AAE?$AAR?$AAT?$AAI?$AAO?$AAN?$AA?5?$AAF?$AAA?$AAI?$AAL?$AAE?$AAD?$AA?5?$AAi?$AAn?$AA?5?$AAC?$AA?3?$AA?2?$AAW?$AAI?$AAN@| DCB 0xd
	DCB	0x0, 0xa, 0x0, "*", 0x0, "*", 0x0, "*", 0x0, " ", 0x0, "A"
	DCB	0x0, "S", 0x0, "S", 0x0, "E", 0x0, "R", 0x0, "T", 0x0, "I"
	DCB	0x0, "O", 0x0, "N", 0x0, " ", 0x0, "F", 0x0, "A", 0x0, "I"
	DCB	0x0, "L", 0x0, "E", 0x0, "D", 0x0, " ", 0x0, "i", 0x0, "n"
	DCB	0x0, " ", 0x0, "C", 0x0, ":", 0x0, "\\", 0x0, "W", 0x0, "I"
	DCB	0x0, "N", 0x0, "C", 0x0, "E", 0x0, "6", 0x0, "0", 0x0, "0"
	DCB	0x0, "\\", 0x0, "p", 0x0, "u", 0x0, "b", 0x0, "l", 0x0, "i"
	DCB	0x0, "c", 0x0, "\\", 0x0, "c", 0x0, "o", 0x0, "m", 0x0, "m"
	DCB	0x0, "o", 0x0, "n", 0x0, "\\", 0x0, "o", 0x0, "a", 0x0, "k"
	DCB	0x0, "\\", 0x0, "i", 0x0, "n", 0x0, "c", 0x0, "\\", 0x0, "v"
	DCB	0x0, "e", 0x0, "c", 0x0, "t", 0x0, "o", 0x0, "r", 0x0, "."
	DCB	0x0, "h", 0x0, "x", 0x0, "x", 0x0, "(", 0x0, "4", 0x0, "4"
	DCB	0x0, "9", 0x0, ")", 0x0, ":", 0x0, 0xd, 0x0, 0xa, 0x0, "_"
	DCB	0x0, "P", 0x0, " ", 0x0, ">", 0x0, " ", 0x0, "_", 0x0, "F"
	DCB	0x0, 0xd, 0x0, 0xa, 0x0, 0x0, 0x0	; `string'

  00000			 AREA	 |.rdata|, DATA, READONLY
|??_C@_1LC@MCEJADJO@?$AA?$AN?$AA?6?$AA?$CK?$AA?$CK?$AA?$CK?$AA?5?$AAA?$AAS?$AAS?$AAE?$AAR?$AAT?$AAI?$AAO?$AAN?$AA?5?$AAF?$AAA?$AAI?$AAL?$AAE?$AAD?$AA?5?$AAi?$AAn?$AA?5?$AAC?$AA?3?$AA?2?$AAW?$AAI?$AAN@| DCB 0xd
	DCB	0x0, 0xa, 0x0, "*", 0x0, "*", 0x0, "*", 0x0, " ", 0x0, "A"
	DCB	0x0, "S", 0x0, "S", 0x0, "E", 0x0, "R", 0x0, "T", 0x0, "I"
	DCB	0x0, "O", 0x0, "N", 0x0, " ", 0x0, "F", 0x0, "A", 0x0, "I"
	DCB	0x0, "L", 0x0, "E", 0x0, "D", 0x0, " ", 0x0, "i", 0x0, "n"
	DCB	0x0, " ", 0x0, "C", 0x0, ":", 0x0, "\\", 0x0, "W", 0x0, "I"
	DCB	0x0, "N", 0x0, "C", 0x0, "E", 0x0, "6", 0x0, "0", 0x0, "0"
	DCB	0x0, "\\", 0x0, "p", 0x0, "u", 0x0, "b", 0x0, "l", 0x0, "i"
	DCB	0x0, "c", 0x0, "\\", 0x0, "c", 0x0, "o", 0x0, "m", 0x0, "m"
	DCB	0x0, "o", 0x0, "n", 0x0, "\\", 0x0, "o", 0x0, "a", 0x0, "k"
	DCB	0x0, "\\", 0x0, "i", 0x0, "n", 0x0, "c", 0x0, "\\", 0x0, "v"
	DCB	0x0, "e", 0x0, "c", 0x0, "t", 0x0, "o", 0x0, "r", 0x0, "."
	DCB	0x0, "h", 0x0, "x", 0x0, "x", 0x0, "(", 0x0, "4", 0x0, "4"
	DCB	0x0, "8", 0x0, ")", 0x0, ":", 0x0, 0xd, 0x0, 0xa, 0x0, "_"
	DCB	0x0, "F", 0x0, " ", 0x0, "<", 0x0, "=", 0x0, " ", 0x0, "_"
	DCB	0x0, "L", 0x0, 0xd, 0x0, 0xa, 0x0, 0x0, 0x0 ; `string'

  00000			 AREA	 |.rdata|, DATA, READONLY
|??_C@_1MO@ENDNKPMG@?$AA?$AN?$AA?6?$AA?$CK?$AA?$CK?$AA?$CK?$AA?5?$AAA?$AAS?$AAS?$AAE?$AAR?$AAT?$AAI?$AAO?$AAN?$AA?5?$AAF?$AAA?$AAI?$AAL?$AAE?$AAD?$AA?5?$AAi?$AAn?$AA?5?$AAC?$AA?3?$AA?2?$AAW?$AAI?$AAN@| DCB 0xd
	DCB	0x0, 0xa, 0x0, "*", 0x0, "*", 0x0, "*", 0x0, " ", 0x0, "A"
	DCB	0x0, "S", 0x0, "S", 0x0, "E", 0x0, "R", 0x0, "T", 0x0, "I"
	DCB	0x0, "O", 0x0, "N", 0x0, " ", 0x0, "F", 0x0, "A", 0x0, "I"
	DCB	0x0, "L", 0x0, "E", 0x0, "D", 0x0, " ", 0x0, "i", 0x0, "n"
	DCB	0x0, " ", 0x0, "C", 0x0, ":", 0x0, "\\", 0x0, "W", 0x0, "I"
	DCB	0x0, "N", 0x0, "C", 0x0, "E", 0x0, "6", 0x0, "0", 0x0, "0"
	DCB	0x0, "\\", 0x0, "p", 0x0, "u", 0x0, "b", 0x0, "l", 0x0, "i"
	DCB	0x0, "c", 0x0, "\\", 0x0, "c", 0x0, "o", 0x0, "m", 0x0, "m"
	DCB	0x0, "o", 0x0, "n", 0x0, "\\", 0x0, "o", 0x0, "a", 0x0, "k"
	DCB	0x0, "\\", 0x0, "i", 0x0, "n", 0x0, "c", 0x0, "\\", 0x0, "v"
	DCB	0x0, "e", 0x0, "c", 0x0, "t", 0x0, "o", 0x0, "r", 0x0, "."
	DCB	0x0, "h", 0x0, "x", 0x0, "x", 0x0, "(", 0x0, "4", 0x0, "4"
	DCB	0x0, "7", 0x0, ")", 0x0, ":", 0x0, 0xd, 0x0, 0xa, 0x0, "_"
	DCB	0x0, "P", 0x0, " ", 0x0, "+", 0x0, " ", 0x0, "(", 0x0, "_"
	DCB	0x0, "L", 0x0, " ", 0x0, "-", 0x0, " ", 0x0, "_", 0x0, "F"
	DCB	0x0, ")", 0x0, " ", 0x0, "<", 0x0, "=", 0x0, " ", 0x0, "_"
	DCB	0x0, "E", 0x0, "n", 0x0, "d", 0x0, 0xd, 0x0, 0xa, 0x0, 0x0
	DCB	0x0					; `string'

  00000			 AREA	 |.rdata|, DATA, READONLY
|??_C@_1MO@FAHOHNFE@?$AA?$AN?$AA?6?$AA?$CK?$AA?$CK?$AA?$CK?$AA?5?$AAA?$AAS?$AAS?$AAE?$AAR?$AAT?$AAI?$AAO?$AAN?$AA?5?$AAF?$AAA?$AAI?$AAL?$AAE?$AAD?$AA?5?$AAi?$AAn?$AA?5?$AAC?$AA?3?$AA?2?$AAW?$AAI?$AAN@| DCB 0xd
	DCB	0x0, 0xa, 0x0, "*", 0x0, "*", 0x0, "*", 0x0, " ", 0x0, "A"
	DCB	0x0, "S", 0x0, "S", 0x0, "E", 0x0, "R", 0x0, "T", 0x0, "I"
	DCB	0x0, "O", 0x0, "N", 0x0, " ", 0x0, "F", 0x0, "A", 0x0, "I"
	DCB	0x0, "L", 0x0, "E", 0x0, "D", 0x0, " ", 0x0, "i", 0x0, "n"
	DCB	0x0, " ", 0x0, "C", 0x0, ":", 0x0, "\\", 0x0, "W", 0x0, "I"
	DCB	0x0, "N", 0x0, "C", 0x0, "E", 0x0, "6", 0x0, "0", 0x0, "0"
	DCB	0x0, "\\", 0x0, "p", 0x0, "u", 0x0, "b", 0x0, "l", 0x0, "i"
	DCB	0x0, "c", 0x0, "\\", 0x0, "c", 0x0, "o", 0x0, "m", 0x0, "m"
	DCB	0x0, "o", 0x0, "n", 0x0, "\\", 0x0, "o", 0x0, "a", 0x0, "k"
	DCB	0x0, "\\", 0x0, "i", 0x0, "n", 0x0, "c", 0x0, "\\", 0x0, "v"
	DCB	0x0, "e", 0x0, "c", 0x0, "t", 0x0, "o", 0x0, "r", 0x0, "."
	DCB	0x0, "h", 0x0, "x", 0x0, "x", 0x0, "(", 0x0, "4", 0x0, "4"
	DCB	0x0, "6", 0x0, ")", 0x0, ":", 0x0, 0xd, 0x0, 0xa, 0x0, "_"
	DCB	0x0, "P", 0x0, " ", 0x0, "+", 0x0, " ", 0x0, "(", 0x0, "_"
	DCB	0x0, "L", 0x0, " ", 0x0, "-", 0x0, " ", 0x0, "_", 0x0, "F"
	DCB	0x0, ")", 0x0, " ", 0x0, ">", 0x0, " ", 0x0, "e", 0x0, "n"
	DCB	0x0, "d", 0x0, "(", 0x0, ")", 0x0, 0xd, 0x0, 0xa, 0x0, 0x0
	DCB	0x0					; `string'

  00000			 AREA	 |.rdata|, DATA, READONLY
|??_C@_1NI@GEABNEAC@?$AA?$AN?$AA?6?$AA?$CK?$AA?$CK?$AA?$CK?$AA?5?$AAA?$AAS?$AAS?$AAE?$AAR?$AAT?$AAI?$AAO?$AAN?$AA?5?$AAF?$AAA?$AAI?$AAL?$AAE?$AAD?$AA?5?$AAi?$AAn?$AA?5?$AAC?$AA?3?$AA?2?$AAW?$AAI?$AAN@| DCB 0xd
	DCB	0x0, 0xa, 0x0, "*", 0x0, "*", 0x0, "*", 0x0, " ", 0x0, "A"
	DCB	0x0, "S", 0x0, "S", 0x0, "E", 0x0, "R", 0x0, "T", 0x0, "I"
	DCB	0x0, "O", 0x0, "N", 0x0, " ", 0x0, "F", 0x0, "A", 0x0, "I"
	DCB	0x0, "L", 0x0, "E", 0x0, "D", 0x0, " ", 0x0, "i", 0x0, "n"
	DCB	0x0, " ", 0x0, "C", 0x0, ":", 0x0, "\\", 0x0, "W", 0x0, "I"
	DCB	0x0, "N", 0x0, "C", 0x0, "E", 0x0, "6", 0x0, "0", 0x0, "0"
	DCB	0x0, "\\", 0x0, "p", 0x0, "u", 0x0, "b", 0x0, "l", 0x0, "i"
	DCB	0x0, "c", 0x0, "\\", 0x0, "c", 0x0, "o", 0x0, "m", 0x0, "m"
	DCB	0x0, "o", 0x0, "n", 0x0, "\\", 0x0, "o", 0x0, "a", 0x0, "k"
	DCB	0x0, "\\", 0x0, "i", 0x0, "n", 0x0, "c", 0x0, "\\", 0x0, "v"
	DCB	0x0, "e", 0x0, "c", 0x0, "t", 0x0, "o", 0x0, "r", 0x0, "."
	DCB	0x0, "h", 0x0, "x", 0x0, "x", 0x0, "(", 0x0, "4", 0x0, "4"
	DCB	0x0, "5", 0x0, ")", 0x0, ":", 0x0, 0xd, 0x0, 0xa, 0x0, "_"
	DCB	0x0, "P", 0x0, " ", 0x0, ">", 0x0, "=", 0x0, " ", 0x0, "b"
	DCB	0x0, "e", 0x0, "g", 0x0, "i", 0x0, "n", 0x0, "(", 0x0, ")"
	DCB	0x0, " ", 0x0, "&", 0x0, "&", 0x0, " ", 0x0, "_", 0x0, "P"
	DCB	0x0, " ", 0x0, "<", 0x0, "=", 0x0, " ", 0x0, "_", 0x0, "E"
	DCB	0x0, "n", 0x0, "d", 0x0, 0xd, 0x0, 0xa, 0x0, 0x0, 0x0 ; `string'

  00000			 AREA	 |.rdata|, DATA, READONLY
|??_C@_1NK@EIAICBLN@?$AA?$AN?$AA?6?$AA?$CK?$AA?$CK?$AA?$CK?$AA?5?$AAA?$AAS?$AAS?$AAE?$AAR?$AAT?$AAI?$AAO?$AAN?$AA?5?$AAF?$AAA?$AAI?$AAL?$AAE?$AAD?$AA?5?$AAi?$AAn?$AA?5?$AAC?$AA?3?$AA?2?$AAW?$AAI?$AAN@| DCB 0xd
	DCB	0x0, 0xa, 0x0, "*", 0x0, "*", 0x0, "*", 0x0, " ", 0x0, "A"
	DCB	0x0, "S", 0x0, "S", 0x0, "E", 0x0, "R", 0x0, "T", 0x0, "I"
	DCB	0x0, "O", 0x0, "N", 0x0, " ", 0x0, "F", 0x0, "A", 0x0, "I"
	DCB	0x0, "L", 0x0, "E", 0x0, "D", 0x0, " ", 0x0, "i", 0x0, "n"
	DCB	0x0, " ", 0x0, "C", 0x0, ":", 0x0, "\\", 0x0, "W", 0x0, "I"
	DCB	0x0, "N", 0x0, "C", 0x0, "E", 0x0, "6", 0x0, "0", 0x0, "0"
	DCB	0x0, "\\", 0x0, "p", 0x0, "u", 0x0, "b", 0x0, "l", 0x0, "i"
	DCB	0x0, "c", 0x0, "\\", 0x0, "c", 0x0, "o", 0x0, "m", 0x0, "m"
	DCB	0x0, "o", 0x0, "n", 0x0, "\\", 0x0, "o", 0x0, "a", 0x0, "k"
	DCB	0x0, "\\", 0x0, "i", 0x0, "n", 0x0, "c", 0x0, "\\", 0x0, "v"
	DCB	0x0, "e", 0x0, "c", 0x0, "t", 0x0, "o", 0x0, "r", 0x0, "."
	DCB	0x0, "h", 0x0, "x", 0x0, "x", 0x0, "(", 0x0, "4", 0x0, "4"
	DCB	0x0, "4", 0x0, ")", 0x0, ":", 0x0, 0xd, 0x0, 0xa, 0x0, "_"
	DCB	0x0, "L", 0x0, " ", 0x0, ">", 0x0, "=", 0x0, " ", 0x0, "b"
	DCB	0x0, "e", 0x0, "g", 0x0, "i", 0x0, "n", 0x0, "(", 0x0, ")"
	DCB	0x0, " ", 0x0, "&", 0x0, "&", 0x0, " ", 0x0, "_", 0x0, "L"
	DCB	0x0, " ", 0x0, "<", 0x0, "=", 0x0, " ", 0x0, "e", 0x0, "n"
	DCB	0x0, "d", 0x0, "(", 0x0, ")", 0x0, 0xd, 0x0, 0xa, 0x0, 0x0
	DCB	0x0					; `string'

  00000			 AREA	 |.rdata|, DATA, READONLY
|??_C@_1NK@FKEGIBGC@?$AA?$AN?$AA?6?$AA?$CK?$AA?$CK?$AA?$CK?$AA?5?$AAA?$AAS?$AAS?$AAE?$AAR?$AAT?$AAI?$AAO?$AAN?$AA?5?$AAF?$AAA?$AAI?$AAL?$AAE?$AAD?$AA?5?$AAi?$AAn?$AA?5?$AAC?$AA?3?$AA?2?$AAW?$AAI?$AAN@| DCB 0xd
	DCB	0x0, 0xa, 0x0, "*", 0x0, "*", 0x0, "*", 0x0, " ", 0x0, "A"
	DCB	0x0, "S", 0x0, "S", 0x0, "E", 0x0, "R", 0x0, "T", 0x0, "I"
	DCB	0x0, "O", 0x0, "N", 0x0, " ", 0x0, "F", 0x0, "A", 0x0, "I"
	DCB	0x0, "L", 0x0, "E", 0x0, "D", 0x0, " ", 0x0, "i", 0x0, "n"
	DCB	0x0, " ", 0x0, "C", 0x0, ":", 0x0, "\\", 0x0, "W", 0x0, "I"
	DCB	0x0, "N", 0x0, "C", 0x0, "E", 0x0, "6", 0x0, "0", 0x0, "0"
	DCB	0x0, "\\", 0x0, "p", 0x0, "u", 0x0, "b", 0x0, "l", 0x0, "i"
	DCB	0x0, "c", 0x0, "\\", 0x0, "c", 0x0, "o", 0x0, "m", 0x0, "m"
	DCB	0x0, "o", 0x0, "n", 0x0, "\\", 0x0, "o", 0x0, "a", 0x0, "k"
	DCB	0x0, "\\", 0x0, "i", 0x0, "n", 0x0, "c", 0x0, "\\", 0x0, "v"
	DCB	0x0, "e", 0x0, "c", 0x0, "t", 0x0, "o", 0x0, "r", 0x0, "."
	DCB	0x0, "h", 0x0, "x", 0x0, "x", 0x0, "(", 0x0, "4", 0x0, "4"
	DCB	0x0, "3", 0x0, ")", 0x0, ":", 0x0, 0xd, 0x0, 0xa, 0x0, "_"
	DCB	0x0, "F", 0x0, " ", 0x0, ">", 0x0, "=", 0x0, " ", 0x0, "b"
	DCB	0x0, "e", 0x0, "g", 0x0, "i", 0x0, "n", 0x0, "(", 0x0, ")"
	DCB	0x0, " ", 0x0, "&", 0x0, "&", 0x0, " ", 0x0, "_", 0x0, "F"
	DCB	0x0, " ", 0x0, "<", 0x0, "=", 0x0, " ", 0x0, "e", 0x0, "n"
	DCB	0x0, "d", 0x0, "(", 0x0, ")", 0x0, 0xd, 0x0, 0xa, 0x0, 0x0
	DCB	0x0					; `string'
; Function compile flags: /Odtp

  00000			 AREA	 |.text|, CODE, ARM

  00000		 |?_MoveForward@?$vector@KVallocator@ce@@U?$incremental_growth@$09@2@@ce@@IAAXPAK00@Z| PROC ; ce::vector<unsigned long,ce::allocator,ce::incremental_growth<10> >::_MoveForward

; 442  :     {

  00000		 |$LN20@MoveForwar|
  00000	e1a0c00d	 mov         r12, sp
  00004	e92d000f	 stmdb       sp!, {r0 - r3}
  00008	e92d5000	 stmdb       sp!, {r12, lr}
  0000c	e24dd024	 sub         sp, sp, #0x24
  00010		 |$M39507|

; 443  :         assert(_F >= begin() && _F <= end());

  00010	e59d002c	 ldr         r0, [sp, #0x2C]
  00014	eb000000	 bl          |?begin@?$vector@KVallocator@ce@@U?$incremental_growth@$09@2@@ce@@QAAPAKXZ|
  00018	e58d0004	 str         r0, [sp, #4]
  0001c	e59d2030	 ldr         r2, [sp, #0x30]
  00020	e59d3004	 ldr         r3, [sp, #4]
  00024	e1520003	 cmp         r2, r3
  00028	3a000006	 bcc         |$LN6@MoveForwar|
  0002c	e59d002c	 ldr         r0, [sp, #0x2C]
  00030	eb000000	 bl          |?end@?$vector@KVallocator@ce@@U?$incremental_growth@$09@2@@ce@@QAAPAKXZ|
  00034	e58d0008	 str         r0, [sp, #8]
  00038	e59d2030	 ldr         r2, [sp, #0x30]
  0003c	e59d3008	 ldr         r3, [sp, #8]
  00040	e1520003	 cmp         r2, r3
  00044	9a000002	 bls         |$LN7@MoveForwar|
  00048		 |$LN6@MoveForwar|
  00048	e59f0210	 ldr         r0, [pc, #0x210]
  0004c	eb000000	 bl          OutputDebugStringW
  00050	e6000010	 __debugbreak_ce
  00054		 |$LN7@MoveForwar|

; 444  :         assert(_L >= begin() && _L <= end());

  00054	e59d002c	 ldr         r0, [sp, #0x2C]
  00058	eb000000	 bl          |?begin@?$vector@KVallocator@ce@@U?$incremental_growth@$09@2@@ce@@QAAPAKXZ|
  0005c	e58d000c	 str         r0, [sp, #0xC]
  00060	e59d2034	 ldr         r2, [sp, #0x34]
  00064	e59d300c	 ldr         r3, [sp, #0xC]
  00068	e1520003	 cmp         r2, r3
  0006c	3a000006	 bcc         |$LN8@MoveForwar|
  00070	e59d002c	 ldr         r0, [sp, #0x2C]
  00074	eb000000	 bl          |?end@?$vector@KVallocator@ce@@U?$incremental_growth@$09@2@@ce@@QAAPAKXZ|
  00078	e58d0010	 str         r0, [sp, #0x10]
  0007c	e59d2034	 ldr         r2, [sp, #0x34]
  00080	e59d3010	 ldr         r3, [sp, #0x10]
  00084	e1520003	 cmp         r2, r3
  00088	9a000002	 bls         |$LN9@MoveForwar|
  0008c		 |$LN8@MoveForwar|
  0008c	e59f01c8	 ldr         r0, [pc, #0x1C8]
  00090	eb000000	 bl          OutputDebugStringW
  00094	e6000010	 __debugbreak_ce
  00098		 |$LN9@MoveForwar|

; 445  :         assert(_P >= begin() && _P <= _End);

  00098	e59d002c	 ldr         r0, [sp, #0x2C]
  0009c	eb000000	 bl          |?begin@?$vector@KVallocator@ce@@U?$incremental_growth@$09@2@@ce@@QAAPAKXZ|
  000a0	e58d0014	 str         r0, [sp, #0x14]
  000a4	e59d2038	 ldr         r2, [sp, #0x38]
  000a8	e59d3014	 ldr         r3, [sp, #0x14]
  000ac	e1520003	 cmp         r2, r3
  000b0	3a000005	 bcc         |$LN10@MoveForwar|
  000b4	e59d302c	 ldr         r3, [sp, #0x2C]
  000b8	e2833008	 add         r3, r3, #8
  000bc	e59d2038	 ldr         r2, [sp, #0x38]
  000c0	e5933000	 ldr         r3, [r3]
  000c4	e1520003	 cmp         r2, r3
  000c8	9a000002	 bls         |$LN11@MoveForwar|
  000cc		 |$LN10@MoveForwar|
  000cc	e59f0184	 ldr         r0, [pc, #0x184]
  000d0	eb000000	 bl          OutputDebugStringW
  000d4	e6000010	 __debugbreak_ce
  000d8		 |$LN11@MoveForwar|

; 446  :         assert(_P + (_L - _F) > end());

  000d8	e59d002c	 ldr         r0, [sp, #0x2C]
  000dc	eb000000	 bl          |?end@?$vector@KVallocator@ce@@U?$incremental_growth@$09@2@@ce@@QAAPAKXZ|
  000e0	e58d0018	 str         r0, [sp, #0x18]
  000e4	e59d2034	 ldr         r2, [sp, #0x34]
  000e8	e59d3030	 ldr         r3, [sp, #0x30]
  000ec	e0423003	 sub         r3, r2, r3
  000f0	e1a01143	 mov         r1, r3, asr #2
  000f4	e3a03004	 mov         r3, #4
  000f8	e0020391	 mul         r2, r1, r3
  000fc	e59d3038	 ldr         r3, [sp, #0x38]
  00100	e0832002	 add         r2, r3, r2
  00104	e59d3018	 ldr         r3, [sp, #0x18]
  00108	e1520003	 cmp         r2, r3
  0010c	8a000002	 bhi         |$LN12@MoveForwar|
  00110	e59f013c	 ldr         r0, [pc, #0x13C]
  00114	eb000000	 bl          OutputDebugStringW
  00118	e6000010	 __debugbreak_ce
  0011c		 |$LN12@MoveForwar|

; 447  :         assert(_P + (_L - _F) <= _End);

  0011c	e59d2034	 ldr         r2, [sp, #0x34]
  00120	e59d3030	 ldr         r3, [sp, #0x30]
  00124	e0423003	 sub         r3, r2, r3
  00128	e1a01143	 mov         r1, r3, asr #2
  0012c	e3a03004	 mov         r3, #4
  00130	e0020391	 mul         r2, r1, r3
  00134	e59d3038	 ldr         r3, [sp, #0x38]
  00138	e0832002	 add         r2, r3, r2
  0013c	e59d302c	 ldr         r3, [sp, #0x2C]
  00140	e2833008	 add         r3, r3, #8
  00144	e5933000	 ldr         r3, [r3]
  00148	e1520003	 cmp         r2, r3
  0014c	9a000002	 bls         |$LN13@MoveForwar|
  00150	e59f00f8	 ldr         r0, [pc, #0xF8]
  00154	eb000000	 bl          OutputDebugStringW
  00158	e6000010	 __debugbreak_ce
  0015c		 |$LN13@MoveForwar|

; 448  :         assert(_F <= _L);

  0015c	e59d2030	 ldr         r2, [sp, #0x30]
  00160	e59d3034	 ldr         r3, [sp, #0x34]
  00164	e1520003	 cmp         r2, r3
  00168	9a000002	 bls         |$LN14@MoveForwar|
  0016c	e59f00d8	 ldr         r0, [pc, #0xD8]
  00170	eb000000	 bl          OutputDebugStringW
  00174	e6000010	 __debugbreak_ce
  00178		 |$LN14@MoveForwar|

; 449  :         assert(_P > _F);

  00178	e59d2038	 ldr         r2, [sp, #0x38]
  0017c	e59d3030	 ldr         r3, [sp, #0x30]
  00180	e1520003	 cmp         r2, r3
  00184	8a000002	 bhi         |$LN15@MoveForwar|
  00188	e59f00b8	 ldr         r0, [pc, #0xB8]
  0018c	eb000000	 bl          OutputDebugStringW
  00190	e6000010	 __debugbreak_ce
  00194		 |$LN15@MoveForwar|

; 450  :         
; 451  :         //
; 452  :         // Starting from last item in the range, re-construct the items
; 453  :         // in their new position and destroy them in the old position.
; 454  :         //
; 455  :         for(--_L, _P += _L - _F; _L >= _F; --_P, --_L)

  00194	e59d3034	 ldr         r3, [sp, #0x34]
  00198	e2433004	 sub         r3, r3, #4
  0019c	e58d3034	 str         r3, [sp, #0x34]
  001a0	e59d2034	 ldr         r2, [sp, #0x34]
  001a4	e59d3030	 ldr         r3, [sp, #0x30]
  001a8	e0423003	 sub         r3, r2, r3
  001ac	e1a01143	 mov         r1, r3, asr #2
  001b0	e3a03004	 mov         r3, #4
  001b4	e0020391	 mul         r2, r1, r3
  001b8	e59d3038	 ldr         r3, [sp, #0x38]
  001bc	e0833002	 add         r3, r3, r2
  001c0	e58d3038	 str         r3, [sp, #0x38]
  001c4	ea000005	 b           |$LN3@MoveForwar|
  001c8		 |$LN2@MoveForwar|
  001c8	e59d3038	 ldr         r3, [sp, #0x38]
  001cc	e2433004	 sub         r3, r3, #4
  001d0	e58d3038	 str         r3, [sp, #0x38]
  001d4	e59d3034	 ldr         r3, [sp, #0x34]
  001d8	e2433004	 sub         r3, r3, #4
  001dc	e58d3034	 str         r3, [sp, #0x34]
  001e0		 |$LN3@MoveForwar|
  001e0	e59d2034	 ldr         r2, [sp, #0x34]
  001e4	e59d3030	 ldr         r3, [sp, #0x30]
  001e8	e1520003	 cmp         r2, r3
  001ec	3a000012	 bcc         |$LN1@MoveForwar|

; 456  :         {
; 457  :             new (_P) T(*_L);

  001f0	e59d1038	 ldr         r1, [sp, #0x38]
  001f4	e3a00004	 mov         r0, #4
  001f8	eb000000	 bl          |??2@YAPAXIPAX@Z|
  001fc	e58d001c	 str         r0, [sp, #0x1C]
  00200	e59d301c	 ldr         r3, [sp, #0x1C]
  00204	e58d3000	 str         r3, [sp]
  00208	e59d3000	 ldr         r3, [sp]
  0020c	e3530000	 cmp         r3, #0
  00210	0a000006	 beq         |$LN16@MoveForwar|
  00214	e59d3034	 ldr         r3, [sp, #0x34]
  00218	e5932000	 ldr         r2, [r3]
  0021c	e59d3000	 ldr         r3, [sp]
  00220	e5832000	 str         r2, [r3]
  00224	e59d3000	 ldr         r3, [sp]
  00228	e58d3020	 str         r3, [sp, #0x20]
  0022c	ea000001	 b           |$LN17@MoveForwar|
  00230		 |$LN16@MoveForwar|
  00230	e3a03000	 mov         r3, #0
  00234	e58d3020	 str         r3, [sp, #0x20]
  00238		 |$LN17@MoveForwar|

; 458  :             _L->~T();
; 459  :         }

  00238	eaffffe2	 b           |$LN2@MoveForwar|
  0023c		 |$LN1@MoveForwar|

; 460  :     }

  0023c	e28dd024	 add         sp, sp, #0x24
  00240	e89d6000	 ldmia       sp, {sp, lr}
  00244	e12fff1e	 bx          lr
  00248		 |$LN21@MoveForwar|
  00248		 |$LN22@MoveForwar|
  00248	00000000	 DCD         |??_C@_1LA@DAEAMJMC@?$AA?$AN?$AA?6?$AA?$CK?$AA?$CK?$AA?$CK?$AA?5?$AAA?$AAS?$AAS?$AAE?$AAR?$AAT?$AAI?$AAO?$AAN?$AA?5?$AAF?$AAA?$AAI?$AAL?$AAE?$AAD?$AA?5?$AAi?$AAn?$AA?5?$AAC?$AA?3?$AA?2?$AAW?$AAI?$AAN@|
  0024c		 |$LN23@MoveForwar|
  0024c	00000000	 DCD         |??_C@_1LC@MCEJADJO@?$AA?$AN?$AA?6?$AA?$CK?$AA?$CK?$AA?$CK?$AA?5?$AAA?$AAS?$AAS?$AAE?$AAR?$AAT?$AAI?$AAO?$AAN?$AA?5?$AAF?$AAA?$AAI?$AAL?$AAE?$AAD?$AA?5?$AAi?$AAn?$AA?5?$AAC?$AA?3?$AA?2?$AAW?$AAI?$AAN@|
  00250		 |$LN24@MoveForwar|
  00250	00000000	 DCD         |??_C@_1MO@ENDNKPMG@?$AA?$AN?$AA?6?$AA?$CK?$AA?$CK?$AA?$CK?$AA?5?$AAA?$AAS?$AAS?$AAE?$AAR?$AAT?$AAI?$AAO?$AAN?$AA?5?$AAF?$AAA?$AAI?$AAL?$AAE?$AAD?$AA?5?$AAi?$AAn?$AA?5?$AAC?$AA?3?$AA?2?$AAW?$AAI?$AAN@|
  00254		 |$LN25@MoveForwar|
  00254	00000000	 DCD         |??_C@_1MO@FAHOHNFE@?$AA?$AN?$AA?6?$AA?$CK?$AA?$CK?$AA?$CK?$AA?5?$AAA?$AAS?$AAS?$AAE?$AAR?$AAT?$AAI?$AAO?$AAN?$AA?5?$AAF?$AAA?$AAI?$AAL?$AAE?$AAD?$AA?5?$AAi?$AAn?$AA?5?$AAC?$AA?3?$AA?2?$AAW?$AAI?$AAN@|
  00258		 |$LN26@MoveForwar|
  00258	00000000	 DCD         |??_C@_1NI@GEABNEAC@?$AA?$AN?$AA?6?$AA?$CK?$AA?$CK?$AA?$CK?$AA?5?$AAA?$AAS?$AAS?$AAE?$AAR?$AAT?$AAI?$AAO?$AAN?$AA?5?$AAF?$AAA?$AAI?$AAL?$AAE?$AAD?$AA?5?$AAi?$AAn?$AA?5?$AAC?$AA?3?$AA?2?$AAW?$AAI?$AAN@|
  0025c		 |$LN27@MoveForwar|
  0025c	00000000	 DCD         |??_C@_1NK@EIAICBLN@?$AA?$AN?$AA?6?$AA?$CK?$AA?$CK?$AA?$CK?$AA?5?$AAA?$AAS?$AAS?$AAE?$AAR?$AAT?$AAI?$AAO?$AAN?$AA?5?$AAF?$AAA?$AAI?$AAL?$AAE?$AAD?$AA?5?$AAi?$AAn?$AA?5?$AAC?$AA?3?$AA?2?$AAW?$AAI?$AAN@|
  00260		 |$LN28@MoveForwar|
  00260	00000000	 DCD         |??_C@_1NK@FKEGIBGC@?$AA?$AN?$AA?6?$AA?$CK?$AA?$CK?$AA?$CK?$AA?5?$AAA?$AAS?$AAS?$AAE?$AAR?$AAT?$AAI?$AAO?$AAN?$AA?5?$AAF?$AAA?$AAI?$AAL?$AAE?$AAD?$AA?5?$AAi?$AAn?$AA?5?$AAC?$AA?3?$AA?2?$AAW?$AAI?$AAN@|
  00264		 |$M39508|

			 ENDP  ; |?_MoveForward@?$vector@KVallocator@ce@@U?$incremental_growth@$09@2@@ce@@IAAXPAK00@Z|, ce::vector<unsigned long,ce::allocator,ce::incremental_growth<10> >::_MoveForward


  00000			 AREA	 |.pdata|, PDATA
|$T39526| DCD	|$LN5@get_growth|
	DCD	0x40000b04
; Function compile flags: /Odtp

  00000			 AREA	 |.text|, CODE, ARM

  00000		 |?get_growth@?$incremental_growth@$09@ce@@SAIIII@Z| PROC ; ce::incremental_growth<10>::get_growth

; 99   :         {return Need + Increment; }

  00000		 |$LN5@get_growth|
  00000	e1a0c00d	 mov         r12, sp
  00004	e92d0007	 stmdb       sp!, {r0 - r2}
  00008	e92d5000	 stmdb       sp!, {r12, lr}
  0000c	e24dd004	 sub         sp, sp, #4
  00010		 |$M39523|
  00010	e59d3014	 ldr         r3, [sp, #0x14]
  00014	e283300a	 add         r3, r3, #0xA
  00018	e58d3000	 str         r3, [sp]
  0001c	e59d0000	 ldr         r0, [sp]
  00020	e28dd004	 add         sp, sp, #4
  00024	e89d6000	 ldmia       sp, {sp, lr}
  00028	e12fff1e	 bx          lr
  0002c		 |$M39524|

			 ENDP  ; |?get_growth@?$incremental_growth@$09@ce@@SAIIII@Z|, ce::incremental_growth<10>::get_growth

	EXPORT	|??0lock_factory@?$singleton@V?$free_list@$0GE@Vallocator@ce@@@ce@@$03V?$static_allocator@V?$free_list@$0GE@Vallocator@ce@@@ce@@$03@2@@ce@@QAA@XZ| ; ce::singleton<ce::free_list<100,ce::allocator>,4,ce::static_allocator<ce::free_list<100,ce::allocator>,4> >::lock_factory::lock_factory
; File c:\wince600\public\common\oak\inc\singleton.hxx

  00000			 AREA	 |.pdata|, PDATA
|$T39533| DCD	|$LN5@factory|
	DCD	0x40000601
; Function compile flags: /Odtp

  00000			 AREA	 |.text$yc|, CODE, ARM

  00000		 |??__E?_factory@?$singleton@V?$free_list@$0GE@Vallocator@ce@@@ce@@$03V?$static_allocator@V?$free_list@$0GE@Vallocator@ce@@@ce@@$03@2@@ce@@1Ulock_factory@12@A@@YAXXZ| PROC ; `dynamic initializer for 'ce::singleton<ce::free_list<100,ce::allocator>,4,ce::static_allocator<ce::free_list<100,ce::allocator>,4> >::_factory''

; 390  :     {

  00000		 |$LN5@factory|
  00000	e52de004	 str         lr, [sp, #-4]!
  00004		 |$M39530|
  00004	e59f0008	 ldr         r0, [pc, #8]
  00008	eb000000	 bl          |??0lock_factory@?$singleton@V?$free_list@$0GE@Vallocator@ce@@@ce@@$03V?$static_allocator@V?$free_list@$0GE@Vallocator@ce@@@ce@@$03@2@@ce@@QAA@XZ|
  0000c	e49de004	 ldr         lr, [sp], #4
  00010	e12fff1e	 bx          lr
  00014		 |$LN6@factory|
  00014		 |$LN7@factory|
  00014	00000000	 DCD         |?_factory@?$singleton@V?$free_list@$0GE@Vallocator@ce@@@ce@@$03V?$static_allocator@V?$free_list@$0GE@Vallocator@ce@@@ce@@$03@2@@ce@@1Ulock_factory@12@A|
  00018		 |$M39531|

			 ENDP  ; |??__E?_factory@?$singleton@V?$free_list@$0GE@Vallocator@ce@@@ce@@$03V?$static_allocator@V?$free_list@$0GE@Vallocator@ce@@@ce@@$03@2@@ce@@1Ulock_factory@12@A@@YAXXZ|, `dynamic initializer for 'ce::singleton<ce::free_list<100,ce::allocator>,4,ce::static_allocator<ce::free_list<100,ce::allocator>,4> >::_factory''

	EXPORT	|?get_lock@?$singleton@V?$free_list@$0GE@Vallocator@ce@@@ce@@$03V?$static_allocator@V?$free_list@$0GE@Vallocator@ce@@@ce@@$03@2@@ce@@KAAAVcritical_section@2@XZ| ; ce::singleton<ce::free_list<100,ce::allocator>,4,ce::static_allocator<ce::free_list<100,ce::allocator>,4> >::get_lock

  00000			 AREA	 |.pdata|, PDATA
|$T39543| DCD	|$LN5@lock_facto|
	DCD	0x40000b04
; Function compile flags: /Odtp

  00000			 AREA	 |.text|, CODE, ARM

  00000		 |??0lock_factory@?$singleton@V?$free_list@$0GE@Vallocator@ce@@@ce@@$03V?$static_allocator@V?$free_list@$0GE@Vallocator@ce@@@ce@@$03@2@@ce@@QAA@XZ| PROC ; ce::singleton<ce::free_list<100,ce::allocator>,4,ce::static_allocator<ce::free_list<100,ce::allocator>,4> >::lock_factory::lock_factory

; 339  :         lock_factory()

  00000		 |$LN5@lock_facto|
  00000	e1a0c00d	 mov         r12, sp
  00004	e92d0001	 stmdb       sp!, {r0}
  00008	e92d5000	 stmdb       sp!, {r12, lr}
  0000c	e24dd004	 sub         sp, sp, #4
  00010		 |$M39540|
  00010	eb000000	 bl          |?get_lock@?$singleton@V?$free_list@$0GE@Vallocator@ce@@@ce@@$03V?$static_allocator@V?$free_list@$0GE@Vallocator@ce@@@ce@@$03@2@@ce@@KAAAVcritical_section@2@XZ|

; 340  :             {get_lock(); }

  00014	e59d300c	 ldr         r3, [sp, #0xC]
  00018	e58d3000	 str         r3, [sp]
  0001c	e59d0000	 ldr         r0, [sp]
  00020	e28dd004	 add         sp, sp, #4
  00024	e89d6000	 ldmia       sp, {sp, lr}
  00028	e12fff1e	 bx          lr
  0002c		 |$M39541|

			 ENDP  ; |??0lock_factory@?$singleton@V?$free_list@$0GE@Vallocator@ce@@@ce@@$03V?$static_allocator@V?$free_list@$0GE@Vallocator@ce@@@ce@@$03@2@@ce@@QAA@XZ|, ce::singleton<ce::free_list<100,ce::allocator>,4,ce::static_allocator<ce::free_list<100,ce::allocator>,4> >::lock_factory::lock_factory

	EXPORT	|??__Fcs@?1??get_lock@?$singleton@V?$free_list@$0GE@Vallocator@ce@@@ce@@$03V?$static_allocator@V?$free_list@$0GE@Vallocator@ce@@@ce@@$03@2@@ce@@KAAAVcritical_section@2@XZ@YAXXZ| ; `ce::singleton<ce::free_list<100,ce::allocator>,4,ce::static_allocator<ce::free_list<100,ce::allocator>,4> >::get_lock'::`2'::`dynamic atexit destructor for 'cs''
	EXPORT	|??0critical_section@ce@@QAA@XZ|	; ce::critical_section::critical_section
	EXPORT	|?cs@?1??get_lock@?$singleton@V?$free_list@$0GE@Vallocator@ce@@@ce@@$03V?$static_allocator@V?$free_list@$0GE@Vallocator@ce@@@ce@@$03@2@@ce@@KAAAVcritical_section@3@XZ@4V43@A| [ DATA ] ; `ce::singleton<ce::free_list<100,ce::allocator>,4,ce::static_allocator<ce::free_list<100,ce::allocator>,4> >::get_lock'::`2'::cs
	EXPORT	|??_B?1??get_lock@?$singleton@V?$free_list@$0GE@Vallocator@ce@@@ce@@$03V?$static_allocator@V?$free_list@$0GE@Vallocator@ce@@@ce@@$03@2@@ce@@KAAAVcritical_section@2@XZ@51| [ DATA ] ; `ce::singleton<ce::free_list<100,ce::allocator>,4,ce::static_allocator<ce::free_list<100,ce::allocator>,4> >::get_lock'::`2'::`local static guard'
	IMPORT	|atexit|

  00000			 AREA	 |.bss|, NOINIT
|?cs@?1??get_lock@?$singleton@V?$free_list@$0GE@Vallocator@ce@@@ce@@$03V?$static_allocator@V?$free_list@$0GE@Vallocator@ce@@@ce@@$03@2@@ce@@KAAAVcritical_section@3@XZ@4V43@A| % 0x14 ; `ce::singleton<ce::free_list<100,ce::allocator>,4,ce::static_allocator<ce::free_list<100,ce::allocator>,4> >::get_lock'::`2'::cs

  00000			 AREA	 |.bss|, NOINIT
|??_B?1??get_lock@?$singleton@V?$free_list@$0GE@Vallocator@ce@@@ce@@$03V?$static_allocator@V?$free_list@$0GE@Vallocator@ce@@@ce@@$03@2@@ce@@KAAAVcritical_section@2@XZ@51| % 0x4 ; `ce::singleton<ce::free_list<100,ce::allocator>,4,ce::static_allocator<ce::free_list<100,ce::allocator>,4> >::get_lock'::`2'::`local static guard'

  00000			 AREA	 |.pdata|, PDATA
|$T39551| DCD	|$LN6@get_lock|
	DCD	0x40001b02
; Function compile flags: /Odtp

  00000			 AREA	 |.text|, CODE, ARM

  00000		 |?get_lock@?$singleton@V?$free_list@$0GE@Vallocator@ce@@@ce@@$03V?$static_allocator@V?$free_list@$0GE@Vallocator@ce@@@ce@@$03@2@@ce@@KAAAVcritical_section@2@XZ| PROC ; ce::singleton<ce::free_list<100,ce::allocator>,4,ce::static_allocator<ce::free_list<100,ce::allocator>,4> >::get_lock

; 320  :     {

  00000		 |$LN6@get_lock|
  00000	e52de004	 str         lr, [sp, #-4]!
  00004	e24dd008	 sub         sp, sp, #8
  00008		 |$M39548|

; 321  :         static critical_section cs;

  00008	e59f3058	 ldr         r3, [pc, #0x58]
  0000c	e5933000	 ldr         r3, [r3]
  00010	e3130001	 tst         r3, #1
  00014	1a000008	 bne         |$LN1@get_lock|
  00018	e59f3048	 ldr         r3, [pc, #0x48]
  0001c	e5933000	 ldr         r3, [r3]
  00020	e3832001	 orr         r2, r3, #1
  00024	e59f303c	 ldr         r3, [pc, #0x3C]
  00028	e5832000	 str         r2, [r3]
  0002c	e59f0028	 ldr         r0, [pc, #0x28]
  00030	eb000000	 bl          |??0critical_section@ce@@QAA@XZ|
  00034	e59f0028	 ldr         r0, [pc, #0x28]
  00038	eb000000	 bl          atexit
  0003c		 |$LN1@get_lock|

; 322  :         
; 323  :         //
; 324  :         // This statement forces compiler to instantiate _factory member
; 325  :         // thus assuring that lock_factory ctor is called. 
; 326  :         //
; 327  :         lock_factory* volatile p = &_factory;

  0003c	e59f301c	 ldr         r3, [pc, #0x1C]
  00040	e58d3000	 str         r3, [sp]

; 328  : 
; 329  :         return cs;

  00044	e59f3010	 ldr         r3, [pc, #0x10]
  00048	e58d3004	 str         r3, [sp, #4]

; 330  :     }

  0004c	e59d0004	 ldr         r0, [sp, #4]
  00050	e28dd008	 add         sp, sp, #8
  00054	e49de004	 ldr         lr, [sp], #4
  00058	e12fff1e	 bx          lr
  0005c		 |$LN7@get_lock|
  0005c		 |$LN8@get_lock|
  0005c	00000000	 DCD         |?cs@?1??get_lock@?$singleton@V?$free_list@$0GE@Vallocator@ce@@@ce@@$03V?$static_allocator@V?$free_list@$0GE@Vallocator@ce@@@ce@@$03@2@@ce@@KAAAVcritical_section@3@XZ@4V43@A|
  00060		 |$LN9@get_lock|
  00060	00000000	 DCD         |?_factory@?$singleton@V?$free_list@$0GE@Vallocator@ce@@@ce@@$03V?$static_allocator@V?$free_list@$0GE@Vallocator@ce@@@ce@@$03@2@@ce@@1Ulock_factory@12@A|
  00064		 |$LN10@get_lock|
  00064	00000000	 DCD         |??__Fcs@?1??get_lock@?$singleton@V?$free_list@$0GE@Vallocator@ce@@@ce@@$03V?$static_allocator@V?$free_list@$0GE@Vallocator@ce@@@ce@@$03@2@@ce@@KAAAVcritical_section@2@XZ@YAXXZ|
  00068		 |$LN11@get_lock|
  00068	00000000	 DCD         |??_B?1??get_lock@?$singleton@V?$free_list@$0GE@Vallocator@ce@@@ce@@$03V?$static_allocator@V?$free_list@$0GE@Vallocator@ce@@@ce@@$03@2@@ce@@KAAAVcritical_section@2@XZ@51|
  0006c		 |$M39549|

			 ENDP  ; |?get_lock@?$singleton@V?$free_list@$0GE@Vallocator@ce@@@ce@@$03V?$static_allocator@V?$free_list@$0GE@Vallocator@ce@@@ce@@$03@2@@ce@@KAAAVcritical_section@2@XZ|, ce::singleton<ce::free_list<100,ce::allocator>,4,ce::static_allocator<ce::free_list<100,ce::allocator>,4> >::get_lock

	IMPORT	|InitializeCriticalSection|
; File c:\wince600\public\common\oak\inc\sync.hxx

  00000			 AREA	 |.pdata|, PDATA
|$T39564| DCD	|$LN5@critical_s|
	DCD	0x40000c04
; Function compile flags: /Odtp

  00000			 AREA	 |.text|, CODE, ARM

  00000		 |??0critical_section@ce@@QAA@XZ| PROC	; ce::critical_section::critical_section

; 125  :     critical_section()

  00000		 |$LN5@critical_s|
  00000	e1a0c00d	 mov         r12, sp
  00004	e92d0001	 stmdb       sp!, {r0}
  00008	e92d5000	 stmdb       sp!, {r12, lr}
  0000c	e24dd004	 sub         sp, sp, #4
  00010		 |$M39561|
  00010	e59d000c	 ldr         r0, [sp, #0xC]
  00014	eb000000	 bl          InitializeCriticalSection
  00018	e59d300c	 ldr         r3, [sp, #0xC]
  0001c	e58d3000	 str         r3, [sp]
  00020	e59d0000	 ldr         r0, [sp]
  00024	e28dd004	 add         sp, sp, #4
  00028	e89d6000	 ldmia       sp, {sp, lr}
  0002c	e12fff1e	 bx          lr
  00030		 |$M39562|

			 ENDP  ; |??0critical_section@ce@@QAA@XZ|, ce::critical_section::critical_section

	EXPORT	|??1critical_section@ce@@QAA@XZ|	; ce::critical_section::~critical_section

