; Listing generated by Microsoft (R) Optimizing Compiler Version 14.01.60511.01 

	TTL	C:\WINCE600\PLATFORM\COMMON\SRC\SOC\COMMON_TI_V1\COMMON_TI\BUS\MDD\defaultbuscontext.cpp
	CODE32

  00000			 AREA	 |.drectve|, DRECTVE
	DCB	"-defaultlib:LIBCMT "
	DCB	"-defaultlib:OLDNAMES "

	EXPORT	|?AddRef@RefCount_t@@QAAJXZ|		; RefCount_t::AddRef
	EXPORT	|??_7DefaultBusContext_t@@6B@| [ DATA ]	; DefaultBusContext_t::`vftable'
	EXPORT	|??0BusDriverContext_t@@QAA@XZ|		; BusDriverContext_t::BusDriverContext_t
	EXPORT	|??0DefaultBusContext_t@@IAA@PAVBusDriver_t@@@Z| ; DefaultBusContext_t::DefaultBusContext_t
	EXPORT	|?Read@DriverContext_t@@UAAKPAXK@Z|	; DriverContext_t::Read
	EXPORT	|?Write@DriverContext_t@@UAAKPAXK@Z|	; DriverContext_t::Write
	EXPORT	|?Seek@DriverContext_t@@UAAKJG@Z|	; DriverContext_t::Seek
	EXPORT	|?Close@DefaultBusContext_t@@UAAHXZ|	; DefaultBusContext_t::Close
	EXPORT	|?PreClose@DriverContext_t@@UAAHXZ|	; DriverContext_t::PreClose
	EXPORT	|?IOControl@DefaultBusContext_t@@UAAHKPAEK0KPAK@Z| ; DefaultBusContext_t::IOControl
	IMPORT	|??_EDefaultBusContext_t@@MAAPAXI@Z|, WEAK |??_GDefaultBusContext_t@@MAAPAXI@Z| ; DefaultBusContext_t::`vector deleting destructor', DefaultBusContext_t::`scalar deleting destructor'

  00000			 AREA	 |.pdata|, PDATA
|$T34411| DCD	|$LN5@DefaultBus|
	DCD	0x40001d04
; File c:\wince600\platform\common\src\soc\common_ti_v1\common_ti\bus\mdd\defaultbuscontext.cpp

  00000			 AREA	 |.rdata|, DATA, READONLY
|??_7DefaultBusContext_t@@6B@| DCD |??_EDefaultBusContext_t@@MAAPAXI@Z| ; DefaultBusContext_t::`vftable'
	DCD	|?Read@DriverContext_t@@UAAKPAXK@Z|
	DCD	|?Write@DriverContext_t@@UAAKPAXK@Z|
	DCD	|?Seek@DriverContext_t@@UAAKJG@Z|
	DCD	|?Close@DefaultBusContext_t@@UAAHXZ|
	DCD	|?PreClose@DriverContext_t@@UAAHXZ|
	DCD	|?IOControl@DefaultBusContext_t@@UAAHKPAEK0KPAK@Z|
; Function compile flags: /Odtp

  00000			 AREA	 |.text|, CODE, ARM

  00000		 |??0DefaultBusContext_t@@IAA@PAVBusDriver_t@@@Z| PROC ; DefaultBusContext_t::DefaultBusContext_t

; 23   : {

  00000		 |$LN5@DefaultBus|
  00000	e1a0c00d	 mov         r12, sp
  00004	e92d0003	 stmdb       sp!, {r0, r1}
  00008	e92d5000	 stmdb       sp!, {r12, lr}
  0000c	e24dd008	 sub         sp, sp, #8
  00010		 |$M34408|
  00010	e59d0010	 ldr         r0, [sp, #0x10]
  00014	eb000000	 bl          |??0BusDriverContext_t@@QAA@XZ|
  00018	e58d0004	 str         r0, [sp, #4]
  0001c	e59f204c	 ldr         r2, [pc, #0x4C]
  00020	e59d3010	 ldr         r3, [sp, #0x10]
  00024	e5832000	 str         r2, [r3]
  00028	e59d3010	 ldr         r3, [sp, #0x10]
  0002c	e2832008	 add         r2, r3, #8
  00030	e59d3014	 ldr         r3, [sp, #0x14]
  00034	e5823000	 str         r3, [r2]
  00038	e59d3010	 ldr         r3, [sp, #0x10]
  0003c	e283200c	 add         r2, r3, #0xC
  00040	e3a03000	 mov         r3, #0
  00044	e5823000	 str         r3, [r2]

; 24   :     // We made copy of pointer
; 25   :     m_pBus->AddRef();

  00048	e59d3010	 ldr         r3, [sp, #0x10]
  0004c	e2833008	 add         r3, r3, #8
  00050	e5930000	 ldr         r0, [r3]
  00054	eb000000	 bl          |?AddRef@RefCount_t@@QAAJXZ|

; 26   : }

  00058	e59d3010	 ldr         r3, [sp, #0x10]
  0005c	e58d3000	 str         r3, [sp]
  00060	e59d0000	 ldr         r0, [sp]
  00064	e28dd008	 add         sp, sp, #8
  00068	e89d6000	 ldmia       sp, {sp, lr}
  0006c	e12fff1e	 bx          lr
  00070		 |$LN6@DefaultBus|
  00070		 |$LN7@DefaultBus|
  00070	00000000	 DCD         |??_7DefaultBusContext_t@@6B@|
  00074		 |$M34409|

			 ENDP  ; |??0DefaultBusContext_t@@IAA@PAVBusDriver_t@@@Z|, DefaultBusContext_t::DefaultBusContext_t

	IMPORT	|InterlockedIncrement|
; File c:\wince600\platform\common\src\soc\common_ti_v1\common_ti\bus\inc\driver.hxx

  00000			 AREA	 |.pdata|, PDATA
|$T34419| DCD	|$LN5@AddRef|
	DCD	0x40000e04
; Function compile flags: /Odtp

  00000			 AREA	 |.text|, CODE, ARM

  00000		 |?AddRef@RefCount_t@@QAAJXZ| PROC	; RefCount_t::AddRef

; 54   :         ) { 

  00000		 |$LN5@AddRef|
  00000	e1a0c00d	 mov         r12, sp
  00004	e92d0001	 stmdb       sp!, {r0}
  00008	e92d5000	 stmdb       sp!, {r12, lr}
  0000c	e24dd008	 sub         sp, sp, #8
  00010		 |$M34416|

; 55   :         return InterlockedIncrement(&m_refCount);

  00010	e59d3010	 ldr         r3, [sp, #0x10]
  00014	e2830004	 add         r0, r3, #4
  00018	eb000000	 bl          InterlockedIncrement
  0001c	e58d0004	 str         r0, [sp, #4]
  00020	e59d3004	 ldr         r3, [sp, #4]
  00024	e58d3000	 str         r3, [sp]

; 56   :         };

  00028	e59d0000	 ldr         r0, [sp]
  0002c	e28dd008	 add         sp, sp, #8
  00030	e89d6000	 ldmia       sp, {sp, lr}
  00034	e12fff1e	 bx          lr
  00038		 |$M34417|

			 ENDP  ; |?AddRef@RefCount_t@@QAAJXZ|, RefCount_t::AddRef


  00000			 AREA	 |.pdata|, PDATA
|$T34427| DCD	|$LN5@Read|
	DCD	0x40000a04
; Function compile flags: /Odtp

  00000			 AREA	 |.text|, CODE, ARM

  00000		 |?Read@DriverContext_t@@UAAKPAXK@Z| PROC ; DriverContext_t::Read

; 157  :         ) {

  00000		 |$LN5@Read|
  00000	e1a0c00d	 mov         r12, sp
  00004	e92d0007	 stmdb       sp!, {r0 - r2}
  00008	e92d5000	 stmdb       sp!, {r12, lr}
  0000c	e24dd004	 sub         sp, sp, #4
  00010		 |$M34424|

; 158  :         return (DWORD) -1;

  00010	e3e03000	 mvn         r3, #0
  00014	e58d3000	 str         r3, [sp]

; 159  :         }

  00018	e59d0000	 ldr         r0, [sp]
  0001c	e28dd004	 add         sp, sp, #4
  00020	e89d6000	 ldmia       sp, {sp, lr}
  00024	e12fff1e	 bx          lr
  00028		 |$M34425|

			 ENDP  ; |?Read@DriverContext_t@@UAAKPAXK@Z|, DriverContext_t::Read


  00000			 AREA	 |.pdata|, PDATA
|$T34435| DCD	|$LN5@Write|
	DCD	0x40000a04
; Function compile flags: /Odtp

  00000			 AREA	 |.text|, CODE, ARM

  00000		 |?Write@DriverContext_t@@UAAKPAXK@Z| PROC ; DriverContext_t::Write

; 167  :         ) {

  00000		 |$LN5@Write|
  00000	e1a0c00d	 mov         r12, sp
  00004	e92d0007	 stmdb       sp!, {r0 - r2}
  00008	e92d5000	 stmdb       sp!, {r12, lr}
  0000c	e24dd004	 sub         sp, sp, #4
  00010		 |$M34432|

; 168  :         return (DWORD) -1;

  00010	e3e03000	 mvn         r3, #0
  00014	e58d3000	 str         r3, [sp]

; 169  :         }

  00018	e59d0000	 ldr         r0, [sp]
  0001c	e28dd004	 add         sp, sp, #4
  00020	e89d6000	 ldmia       sp, {sp, lr}
  00024	e12fff1e	 bx          lr
  00028		 |$M34433|

			 ENDP  ; |?Write@DriverContext_t@@UAAKPAXK@Z|, DriverContext_t::Write


  00000			 AREA	 |.pdata|, PDATA
|$T34443| DCD	|$LN5@Seek|
	DCD	0x40000a04
; Function compile flags: /Odtp

  00000			 AREA	 |.text|, CODE, ARM

  00000		 |?Seek@DriverContext_t@@UAAKJG@Z| PROC	; DriverContext_t::Seek

; 177  :         ) {

  00000		 |$LN5@Seek|
  00000	e1a0c00d	 mov         r12, sp
  00004	e92d0007	 stmdb       sp!, {r0 - r2}
  00008	e92d5000	 stmdb       sp!, {r12, lr}
  0000c	e24dd004	 sub         sp, sp, #4
  00010		 |$M34440|

; 178  :         return (DWORD) -1;

  00010	e3e03000	 mvn         r3, #0
  00014	e58d3000	 str         r3, [sp]

; 179  :         }

  00018	e59d0000	 ldr         r0, [sp]
  0001c	e28dd004	 add         sp, sp, #4
  00020	e89d6000	 ldmia       sp, {sp, lr}
  00024	e12fff1e	 bx          lr
  00028		 |$M34441|

			 ENDP  ; |?Seek@DriverContext_t@@UAAKJG@Z|, DriverContext_t::Seek


  00000			 AREA	 |.pdata|, PDATA
|$T34451| DCD	|$LN5@PreClose|
	DCD	0x40000a04
; Function compile flags: /Odtp

  00000			 AREA	 |.text|, CODE, ARM

  00000		 |?PreClose@DriverContext_t@@UAAHXZ| PROC ; DriverContext_t::PreClose

; 192  :         {

  00000		 |$LN5@PreClose|
  00000	e1a0c00d	 mov         r12, sp
  00004	e92d0001	 stmdb       sp!, {r0}
  00008	e92d5000	 stmdb       sp!, {r12, lr}
  0000c	e24dd004	 sub         sp, sp, #4
  00010		 |$M34448|

; 193  :         return TRUE;

  00010	e3a03001	 mov         r3, #1
  00014	e58d3000	 str         r3, [sp]

; 194  :         };

  00018	e59d0000	 ldr         r0, [sp]
  0001c	e28dd004	 add         sp, sp, #4
  00020	e89d6000	 ldmia       sp, {sp, lr}
  00024	e12fff1e	 bx          lr
  00028		 |$M34449|

			 ENDP  ; |?PreClose@DriverContext_t@@UAAHXZ|, DriverContext_t::PreClose

	EXPORT	|??1DefaultBusContext_t@@MAA@XZ|	; DefaultBusContext_t::~DefaultBusContext_t
	IMPORT	|??3@YAXPAX@Z|				; operator delete

  00000			 AREA	 |.pdata|, PDATA
|$T34459| DCD	|$LN6@scalar|
	DCD	0x40001104
; Function compile flags: /Odtp

  00000			 AREA	 |.text|, CODE, ARM

  00000		 |??_GDefaultBusContext_t@@MAAPAXI@Z| PROC ; DefaultBusContext_t::`scalar deleting destructor'
  00000		 |$LN6@scalar|
  00000	e1a0c00d	 mov         r12, sp
  00004	e92d0003	 stmdb       sp!, {r0, r1}
  00008	e92d5000	 stmdb       sp!, {r12, lr}
  0000c	e24dd004	 sub         sp, sp, #4
  00010		 |$M34456|
  00010	e59d000c	 ldr         r0, [sp, #0xC]
  00014	eb000000	 bl          |??1DefaultBusContext_t@@MAA@XZ|
  00018	e59d3010	 ldr         r3, [sp, #0x10]
  0001c	e3130001	 tst         r3, #1
  00020	0a000001	 beq         |$LN1@scalar|
  00024	e59d000c	 ldr         r0, [sp, #0xC]
  00028	eb000000	 bl          |??3@YAXPAX@Z|
  0002c		 |$LN1@scalar|
  0002c	e59d300c	 ldr         r3, [sp, #0xC]
  00030	e58d3000	 str         r3, [sp]
  00034	e59d0000	 ldr         r0, [sp]
  00038	e28dd004	 add         sp, sp, #4
  0003c	e89d6000	 ldmia       sp, {sp, lr}
  00040	e12fff1e	 bx          lr
  00044		 |$M34457|

			 ENDP  ; |??_GDefaultBusContext_t@@MAAPAXI@Z|, DefaultBusContext_t::`scalar deleting destructor'

	EXPORT	|??_7BusDriverContext_t@@6B@| [ DATA ]	; BusDriverContext_t::`vftable'
	EXPORT	|??0DriverContext_t@@QAA@XZ|		; DriverContext_t::DriverContext_t
	EXPORT	|?IOControl@DriverContext_t@@UAAHKPAEK0KPAK@Z| ; DriverContext_t::IOControl
	IMPORT	|??_EBusDriverContext_t@@UAAPAXI@Z|, WEAK |??_GBusDriverContext_t@@UAAPAXI@Z| ; BusDriverContext_t::`vector deleting destructor', BusDriverContext_t::`scalar deleting destructor'
	IMPORT	|_purecall|

  00000			 AREA	 |.pdata|, PDATA
|$T34467| DCD	|$LN5@BusDriverC|
	DCD	0x40001104

  00000			 AREA	 |.rdata|, DATA, READONLY
|??_7BusDriverContext_t@@6B@| DCD |??_EBusDriverContext_t@@UAAPAXI@Z| ; BusDriverContext_t::`vftable'
	DCD	|?Read@DriverContext_t@@UAAKPAXK@Z|
	DCD	|?Write@DriverContext_t@@UAAKPAXK@Z|
	DCD	|?Seek@DriverContext_t@@UAAKJG@Z|
	DCD	|_purecall|
	DCD	|?PreClose@DriverContext_t@@UAAHXZ|
	DCD	|?IOControl@DriverContext_t@@UAAHKPAEK0KPAK@Z|
; Function compile flags: /Odtp

  00000			 AREA	 |.text|, CODE, ARM

  00000		 |??0BusDriverContext_t@@QAA@XZ| PROC	; BusDriverContext_t::BusDriverContext_t
  00000		 |$LN5@BusDriverC|
  00000	e1a0c00d	 mov         r12, sp
  00004	e92d0001	 stmdb       sp!, {r0}
  00008	e92d5000	 stmdb       sp!, {r12, lr}
  0000c	e24dd008	 sub         sp, sp, #8
  00010		 |$M34464|
  00010	e59d0010	 ldr         r0, [sp, #0x10]
  00014	eb000000	 bl          |??0DriverContext_t@@QAA@XZ|
  00018	e58d0004	 str         r0, [sp, #4]
  0001c	e59f201c	 ldr         r2, [pc, #0x1C]
  00020	e59d3010	 ldr         r3, [sp, #0x10]
  00024	e5832000	 str         r2, [r3]
  00028	e59d3010	 ldr         r3, [sp, #0x10]
  0002c	e58d3000	 str         r3, [sp]
  00030	e59d0000	 ldr         r0, [sp]
  00034	e28dd008	 add         sp, sp, #8
  00038	e89d6000	 ldmia       sp, {sp, lr}
  0003c	e12fff1e	 bx          lr
  00040		 |$LN6@BusDriverC|
  00040		 |$LN7@BusDriverC|
  00040	00000000	 DCD         |??_7BusDriverContext_t@@6B@|
  00044		 |$M34465|

			 ENDP  ; |??0BusDriverContext_t@@QAA@XZ|, BusDriverContext_t::BusDriverContext_t


  00000			 AREA	 |.pdata|, PDATA
|$T34477| DCD	|$LN5@IOControl|
	DCD	0x40000a04
; Function compile flags: /Odtp

  00000			 AREA	 |.text|, CODE, ARM

  00000		 |?IOControl@DriverContext_t@@UAAHKPAEK0KPAK@Z| PROC ; DriverContext_t::IOControl

; 206  :         ) {

  00000		 |$LN5@IOControl|
  00000	e1a0c00d	 mov         r12, sp
  00004	e92d000f	 stmdb       sp!, {r0 - r3}
  00008	e92d5000	 stmdb       sp!, {r12, lr}
  0000c	e24dd004	 sub         sp, sp, #4
  00010		 |$M34474|

; 207  :         return FALSE;

  00010	e3a03000	 mov         r3, #0
  00014	e58d3000	 str         r3, [sp]

; 208  :         };

  00018	e59d0000	 ldr         r0, [sp]
  0001c	e28dd004	 add         sp, sp, #4
  00020	e89d6000	 ldmia       sp, {sp, lr}
  00024	e12fff1e	 bx          lr
  00028		 |$M34475|

			 ENDP  ; |?IOControl@DriverContext_t@@UAAHKPAEK0KPAK@Z|, DriverContext_t::IOControl

	EXPORT	|??1BusDriverContext_t@@UAA@XZ|		; BusDriverContext_t::~BusDriverContext_t

  00000			 AREA	 |.pdata|, PDATA
|$T34485| DCD	|$LN6@scalar@2|
	DCD	0x40001104
; Function compile flags: /Odtp

  00000			 AREA	 |.text|, CODE, ARM

  00000		 |??_GBusDriverContext_t@@UAAPAXI@Z| PROC ; BusDriverContext_t::`scalar deleting destructor'
  00000		 |$LN6@scalar@2|
  00000	e1a0c00d	 mov         r12, sp
  00004	e92d0003	 stmdb       sp!, {r0, r1}
  00008	e92d5000	 stmdb       sp!, {r12, lr}
  0000c	e24dd004	 sub         sp, sp, #4
  00010		 |$M34482|
  00010	e59d000c	 ldr         r0, [sp, #0xC]
  00014	eb000000	 bl          |??1BusDriverContext_t@@UAA@XZ|
  00018	e59d3010	 ldr         r3, [sp, #0x10]
  0001c	e3130001	 tst         r3, #1
  00020	0a000001	 beq         |$LN1@scalar@2|
  00024	e59d000c	 ldr         r0, [sp, #0xC]
  00028	eb000000	 bl          |??3@YAXPAX@Z|
  0002c		 |$LN1@scalar@2|
  0002c	e59d300c	 ldr         r3, [sp, #0xC]
  00030	e58d3000	 str         r3, [sp]
  00034	e59d0000	 ldr         r0, [sp]
  00038	e28dd004	 add         sp, sp, #4
  0003c	e89d6000	 ldmia       sp, {sp, lr}
  00040	e12fff1e	 bx          lr
  00044		 |$M34483|

			 ENDP  ; |??_GBusDriverContext_t@@UAAPAXI@Z|, BusDriverContext_t::`scalar deleting destructor'

	EXPORT	|??1DriverContext_t@@UAA@XZ|		; DriverContext_t::~DriverContext_t

  00000			 AREA	 |.pdata|, PDATA
|$T34492| DCD	|$LN5@BusDriverC@2|
	DCD	0x40000703
; Function compile flags: /Odtp

  00000			 AREA	 |.text|, CODE, ARM

  00000		 |??1BusDriverContext_t@@UAA@XZ| PROC	; BusDriverContext_t::~BusDriverContext_t
  00000		 |$LN5@BusDriverC@2|
  00000	e1a0c00d	 mov         r12, sp
  00004	e92d0001	 stmdb       sp!, {r0}
  00008	e92d5000	 stmdb       sp!, {r12, lr}
  0000c		 |$M34489|
  0000c	e59d0008	 ldr         r0, [sp, #8]
  00010	eb000000	 bl          |??1DriverContext_t@@UAA@XZ|
  00014	e89d6000	 ldmia       sp, {sp, lr}
  00018	e12fff1e	 bx          lr
  0001c		 |$M34490|

			 ENDP  ; |??1BusDriverContext_t@@UAA@XZ|, BusDriverContext_t::~BusDriverContext_t

	EXPORT	|??_7DriverContext_t@@6B@| [ DATA ]	; DriverContext_t::`vftable'
	EXPORT	|??0RefCount_t@@IAA@XZ|			; RefCount_t::RefCount_t
	IMPORT	|??_EDriverContext_t@@UAAPAXI@Z|, WEAK |??_GDriverContext_t@@UAAPAXI@Z| ; DriverContext_t::`vector deleting destructor', DriverContext_t::`scalar deleting destructor'

  00000			 AREA	 |.pdata|, PDATA
|$T34500| DCD	|$LN5@DriverCont|
	DCD	0x40001104

  00000			 AREA	 |.rdata|, DATA, READONLY
|??_7DriverContext_t@@6B@| DCD |??_EDriverContext_t@@UAAPAXI@Z| ; DriverContext_t::`vftable'
	DCD	|?Read@DriverContext_t@@UAAKPAXK@Z|
	DCD	|?Write@DriverContext_t@@UAAKPAXK@Z|
	DCD	|?Seek@DriverContext_t@@UAAKJG@Z|
	DCD	|_purecall|
	DCD	|?PreClose@DriverContext_t@@UAAHXZ|
	DCD	|?IOControl@DriverContext_t@@UAAHKPAEK0KPAK@Z|
; Function compile flags: /Odtp

  00000			 AREA	 |.text|, CODE, ARM

  00000		 |??0DriverContext_t@@QAA@XZ| PROC	; DriverContext_t::DriverContext_t
  00000		 |$LN5@DriverCont|
  00000	e1a0c00d	 mov         r12, sp
  00004	e92d0001	 stmdb       sp!, {r0}
  00008	e92d5000	 stmdb       sp!, {r12, lr}
  0000c	e24dd008	 sub         sp, sp, #8
  00010		 |$M34497|
  00010	e59d0010	 ldr         r0, [sp, #0x10]
  00014	eb000000	 bl          |??0RefCount_t@@IAA@XZ|
  00018	e58d0004	 str         r0, [sp, #4]
  0001c	e59f201c	 ldr         r2, [pc, #0x1C]
  00020	e59d3010	 ldr         r3, [sp, #0x10]
  00024	e5832000	 str         r2, [r3]
  00028	e59d3010	 ldr         r3, [sp, #0x10]
  0002c	e58d3000	 str         r3, [sp]
  00030	e59d0000	 ldr         r0, [sp]
  00034	e28dd008	 add         sp, sp, #8
  00038	e89d6000	 ldmia       sp, {sp, lr}
  0003c	e12fff1e	 bx          lr
  00040		 |$LN6@DriverCont|
  00040		 |$LN7@DriverCont|
  00040	00000000	 DCD         |??_7DriverContext_t@@6B@|
  00044		 |$M34498|

			 ENDP  ; |??0DriverContext_t@@QAA@XZ|, DriverContext_t::DriverContext_t

	EXPORT	|??_7RefCount_t@@6B@| [ DATA ]		; RefCount_t::`vftable'
	IMPORT	|??_ERefCount_t@@MAAPAXI@Z|, WEAK |??_GRefCount_t@@MAAPAXI@Z| ; RefCount_t::`vector deleting destructor', RefCount_t::`scalar deleting destructor'

  00000			 AREA	 |.pdata|, PDATA
|$T34510| DCD	|$LN5@RefCount_t|
	DCD	0x40001204

  00000			 AREA	 |.rdata|, DATA, READONLY
|??_7RefCount_t@@6B@| DCD |??_ERefCount_t@@MAAPAXI@Z|	; RefCount_t::`vftable'
; Function compile flags: /Odtp

  00000			 AREA	 |.text|, CODE, ARM

  00000		 |??0RefCount_t@@IAA@XZ| PROC		; RefCount_t::RefCount_t

; 44   :     RefCount_t(

  00000		 |$LN5@RefCount_t|
  00000	e1a0c00d	 mov         r12, sp
  00004	e92d0001	 stmdb       sp!, {r0}
  00008	e92d5000	 stmdb       sp!, {r12, lr}
  0000c	e24dd004	 sub         sp, sp, #4
  00010		 |$M34507|
  00010	e59f202c	 ldr         r2, [pc, #0x2C]
  00014	e59d300c	 ldr         r3, [sp, #0xC]
  00018	e5832000	 str         r2, [r3]

; 45   :         ) {
; 46   :         m_refCount = 1;

  0001c	e59d300c	 ldr         r3, [sp, #0xC]
  00020	e2832004	 add         r2, r3, #4
  00024	e3a03001	 mov         r3, #1
  00028	e5823000	 str         r3, [r2]

; 47   :         };

  0002c	e59d300c	 ldr         r3, [sp, #0xC]
  00030	e58d3000	 str         r3, [sp]
  00034	e59d0000	 ldr         r0, [sp]
  00038	e28dd004	 add         sp, sp, #4
  0003c	e89d6000	 ldmia       sp, {sp, lr}
  00040	e12fff1e	 bx          lr
  00044		 |$LN6@RefCount_t|
  00044		 |$LN7@RefCount_t|
  00044	00000000	 DCD         |??_7RefCount_t@@6B@|
  00048		 |$M34508|

			 ENDP  ; |??0RefCount_t@@IAA@XZ|, RefCount_t::RefCount_t

	EXPORT	|??1RefCount_t@@MAA@XZ|			; RefCount_t::~RefCount_t

  00000			 AREA	 |.pdata|, PDATA
|$T34520| DCD	|$LN6@scalar@3|
	DCD	0x40001104
; Function compile flags: /Odtp

  00000			 AREA	 |.text|, CODE, ARM

  00000		 |??_GRefCount_t@@MAAPAXI@Z| PROC	; RefCount_t::`scalar deleting destructor'
  00000		 |$LN6@scalar@3|
  00000	e1a0c00d	 mov         r12, sp
  00004	e92d0003	 stmdb       sp!, {r0, r1}
  00008	e92d5000	 stmdb       sp!, {r12, lr}
  0000c	e24dd004	 sub         sp, sp, #4
  00010		 |$M34517|
  00010	e59d000c	 ldr         r0, [sp, #0xC]
  00014	eb000000	 bl          |??1RefCount_t@@MAA@XZ|
  00018	e59d3010	 ldr         r3, [sp, #0x10]
  0001c	e3130001	 tst         r3, #1
  00020	0a000001	 beq         |$LN1@scalar@3|
  00024	e59d000c	 ldr         r0, [sp, #0xC]
  00028	eb000000	 bl          |??3@YAXPAX@Z|
  0002c		 |$LN1@scalar@3|
  0002c	e59d300c	 ldr         r3, [sp, #0xC]
  00030	e58d3000	 str         r3, [sp]
  00034	e59d0000	 ldr         r0, [sp]
  00038	e28dd004	 add         sp, sp, #4
  0003c	e89d6000	 ldmia       sp, {sp, lr}
  00040	e12fff1e	 bx          lr
  00044		 |$M34518|

			 ENDP  ; |??_GRefCount_t@@MAAPAXI@Z|, RefCount_t::`scalar deleting destructor'


  00000			 AREA	 |.pdata|, PDATA
|$T34527| DCD	|$LN5@RefCount_t@2|
	DCD	0x40000903
; Function compile flags: /Odtp

  00000			 AREA	 |.text|, CODE, ARM

  00000		 |??1RefCount_t@@MAA@XZ| PROC		; RefCount_t::~RefCount_t

; 50   :         ) { };

  00000		 |$LN5@RefCount_t@2|
  00000	e1a0c00d	 mov         r12, sp
  00004	e92d0001	 stmdb       sp!, {r0}
  00008	e92d5000	 stmdb       sp!, {r12, lr}
  0000c		 |$M34524|
  0000c	e59f200c	 ldr         r2, [pc, #0xC]
  00010	e59d3008	 ldr         r3, [sp, #8]
  00014	e5832000	 str         r2, [r3]
  00018	e89d6000	 ldmia       sp, {sp, lr}
  0001c	e12fff1e	 bx          lr
  00020		 |$LN6@RefCount_t@2|
  00020		 |$LN7@RefCount_t@2|
  00020	00000000	 DCD         |??_7RefCount_t@@6B@|
  00024		 |$M34525|

			 ENDP  ; |??1RefCount_t@@MAA@XZ|, RefCount_t::~RefCount_t


  00000			 AREA	 |.pdata|, PDATA
|$T34536| DCD	|$LN5@DriverCont@2|
	DCD	0x40000703
; Function compile flags: /Odtp

  00000			 AREA	 |.text|, CODE, ARM

  00000		 |??1DriverContext_t@@UAA@XZ| PROC	; DriverContext_t::~DriverContext_t
  00000		 |$LN5@DriverCont@2|
  00000	e1a0c00d	 mov         r12, sp
  00004	e92d0001	 stmdb       sp!, {r0}
  00008	e92d5000	 stmdb       sp!, {r12, lr}
  0000c		 |$M34533|
  0000c	e59d0008	 ldr         r0, [sp, #8]
  00010	eb000000	 bl          |??1RefCount_t@@MAA@XZ|
  00014	e89d6000	 ldmia       sp, {sp, lr}
  00018	e12fff1e	 bx          lr
  0001c		 |$M34534|

			 ENDP  ; |??1DriverContext_t@@UAA@XZ|, DriverContext_t::~DriverContext_t


  00000			 AREA	 |.pdata|, PDATA
|$T34544| DCD	|$LN6@scalar@4|
	DCD	0x40001104
; Function compile flags: /Odtp

  00000			 AREA	 |.text|, CODE, ARM

  00000		 |??_GDriverContext_t@@UAAPAXI@Z| PROC	; DriverContext_t::`scalar deleting destructor'
  00000		 |$LN6@scalar@4|
  00000	e1a0c00d	 mov         r12, sp
  00004	e92d0003	 stmdb       sp!, {r0, r1}
  00008	e92d5000	 stmdb       sp!, {r12, lr}
  0000c	e24dd004	 sub         sp, sp, #4
  00010		 |$M34541|
  00010	e59d000c	 ldr         r0, [sp, #0xC]
  00014	eb000000	 bl          |??1DriverContext_t@@UAA@XZ|
  00018	e59d3010	 ldr         r3, [sp, #0x10]
  0001c	e3130001	 tst         r3, #1
  00020	0a000001	 beq         |$LN1@scalar@4|
  00024	e59d000c	 ldr         r0, [sp, #0xC]
  00028	eb000000	 bl          |??3@YAXPAX@Z|
  0002c		 |$LN1@scalar@4|
  0002c	e59d300c	 ldr         r3, [sp, #0xC]
  00030	e58d3000	 str         r3, [sp]
  00034	e59d0000	 ldr         r0, [sp]
  00038	e28dd004	 add         sp, sp, #4
  0003c	e89d6000	 ldmia       sp, {sp, lr}
  00040	e12fff1e	 bx          lr
  00044		 |$M34542|

			 ENDP  ; |??_GDriverContext_t@@UAAPAXI@Z|, DriverContext_t::`scalar deleting destructor'

	EXPORT	|?Release@RefCount_t@@QAAJXZ|		; RefCount_t::Release

  00008			 AREA	 |.pdata|, PDATA
|$T34551| DCD	|$LN6@DefaultBus@2|
	DCD	0x40001803
; Function compile flags: /Odtp
; File c:\wince600\platform\common\src\soc\common_ti_v1\common_ti\bus\mdd\defaultbuscontext.cpp

  00074			 AREA	 |.text|, CODE, ARM

  00074		 |??1DefaultBusContext_t@@MAA@XZ| PROC	; DefaultBusContext_t::~DefaultBusContext_t

; 35   : {

  00074		 |$LN6@DefaultBus@2|
  00074	e1a0c00d	 mov         r12, sp
  00078	e92d0001	 stmdb       sp!, {r0}
  0007c	e92d5000	 stmdb       sp!, {r12, lr}
  00080		 |$M34548|
  00080	e59f2048	 ldr         r2, [pc, #0x48]
  00084	e59d3008	 ldr         r3, [sp, #8]
  00088	e5832000	 str         r2, [r3]

; 36   :     // If we have associated child device, release it
; 37   :     if (m_pChild != NULL) m_pChild->Release();

  0008c	e59d3008	 ldr         r3, [sp, #8]
  00090	e283300c	 add         r3, r3, #0xC
  00094	e5933000	 ldr         r3, [r3]
  00098	e3530000	 cmp         r3, #0
  0009c	0a000003	 beq         |$LN1@DefaultBus@2|
  000a0	e59d3008	 ldr         r3, [sp, #8]
  000a4	e283300c	 add         r3, r3, #0xC
  000a8	e5930000	 ldr         r0, [r3]
  000ac	eb000000	 bl          |?Release@RefCount_t@@QAAJXZ|
  000b0		 |$LN1@DefaultBus@2|

; 38   :     // We need to release reference
; 39   :     m_pBus->Release();

  000b0	e59d3008	 ldr         r3, [sp, #8]
  000b4	e2833008	 add         r3, r3, #8
  000b8	e5930000	 ldr         r0, [r3]
  000bc	eb000000	 bl          |?Release@RefCount_t@@QAAJXZ|

; 40   : }

  000c0	e59d0008	 ldr         r0, [sp, #8]
  000c4	eb000000	 bl          |??1BusDriverContext_t@@UAA@XZ|
  000c8	e89d6000	 ldmia       sp, {sp, lr}
  000cc	e12fff1e	 bx          lr
  000d0		 |$LN7@DefaultBus@2|
  000d0		 |$LN8@DefaultBus@2|
  000d0	00000000	 DCD         |??_7DefaultBusContext_t@@6B@|
  000d4		 |$M34549|

			 ENDP  ; |??1DefaultBusContext_t@@MAA@XZ|, DefaultBusContext_t::~DefaultBusContext_t

	IMPORT	|InterlockedDecrement|
; File c:\wince600\platform\common\src\soc\common_ti_v1\common_ti\bus\inc\driver.hxx

  00000			 AREA	 |.pdata|, PDATA
|$T34563| DCD	|$LN8@Release|
	DCD	0x40002704
; Function compile flags: /Odtp

  00000			 AREA	 |.text|, CODE, ARM

  00000		 |?Release@RefCount_t@@QAAJXZ| PROC	; RefCount_t::Release

; 59   :         ) {

  00000		 |$LN8@Release|
  00000	e1a0c00d	 mov         r12, sp
  00004	e92d0001	 stmdb       sp!, {r0}
  00008	e92d5000	 stmdb       sp!, {r12, lr}
  0000c	e24dd01c	 sub         sp, sp, #0x1C
  00010		 |$M34560|

; 60   :         LONG count = InterlockedDecrement(&m_refCount);

  00010	e59d3024	 ldr         r3, [sp, #0x24]
  00014	e2830004	 add         r0, r3, #4
  00018	eb000000	 bl          InterlockedDecrement
  0001c	e58d0010	 str         r0, [sp, #0x10]
  00020	e59d3010	 ldr         r3, [sp, #0x10]
  00024	e58d3000	 str         r3, [sp]

; 61   :         if (count <= 0) delete this;

  00028	e59d3000	 ldr         r3, [sp]
  0002c	e3530000	 cmp         r3, #0
  00030	ca000013	 bgt         |$LN1@Release|
  00034	e59d3024	 ldr         r3, [sp, #0x24]
  00038	e58d3008	 str         r3, [sp, #8]
  0003c	e59d3008	 ldr         r3, [sp, #8]
  00040	e58d3004	 str         r3, [sp, #4]
  00044	e59d3004	 ldr         r3, [sp, #4]
  00048	e3530000	 cmp         r3, #0
  0004c	0a00000a	 beq         |$LN4@Release|
  00050	e3a01001	 mov         r1, #1
  00054	e59d3004	 ldr         r3, [sp, #4]
  00058	e5933000	 ldr         r3, [r3]
  0005c	e59d0004	 ldr         r0, [sp, #4]
  00060	e5933000	 ldr         r3, [r3]
  00064	e1a0e00f	 mov         lr, pc
  00068	e12fff13	 bx          r3
  0006c	e58d0014	 str         r0, [sp, #0x14]
  00070	e59d3014	 ldr         r3, [sp, #0x14]
  00074	e58d3018	 str         r3, [sp, #0x18]
  00078	ea000001	 b           |$LN5@Release|
  0007c		 |$LN4@Release|
  0007c	e3a03000	 mov         r3, #0
  00080	e58d3018	 str         r3, [sp, #0x18]
  00084		 |$LN5@Release|
  00084		 |$LN1@Release|

; 62   :         return count;

  00084	e59d3000	 ldr         r3, [sp]
  00088	e58d300c	 str         r3, [sp, #0xC]

; 63   :         };

  0008c	e59d000c	 ldr         r0, [sp, #0xC]
  00090	e28dd01c	 add         sp, sp, #0x1C
  00094	e89d6000	 ldmia       sp, {sp, lr}
  00098	e12fff1e	 bx          lr
  0009c		 |$M34561|

			 ENDP  ; |?Release@RefCount_t@@QAAJXZ|, RefCount_t::Release


  00010			 AREA	 |.pdata|, PDATA
|$T34571| DCD	|$LN5@Close|
	DCD	0x40001704
; Function compile flags: /Odtp
; File c:\wince600\platform\common\src\soc\common_ti_v1\common_ti\bus\mdd\defaultbuscontext.cpp

  000d4			 AREA	 |.text|, CODE, ARM

  000d4		 |?Close@DefaultBusContext_t@@UAAHXZ| PROC ; DefaultBusContext_t::Close

; 52   : {

  000d4		 |$LN5@Close|
  000d4	e1a0c00d	 mov         r12, sp
  000d8	e92d0001	 stmdb       sp!, {r0}
  000dc	e92d5000	 stmdb       sp!, {r12, lr}
  000e0	e24dd008	 sub         sp, sp, #8
  000e4		 |$M34568|

; 53   :     return m_pBus->Close(this);

  000e4	e59d1010	 ldr         r1, [sp, #0x10]
  000e8	e59d3010	 ldr         r3, [sp, #0x10]
  000ec	e2833008	 add         r3, r3, #8
  000f0	e5932000	 ldr         r2, [r3]
  000f4	e59d3010	 ldr         r3, [sp, #0x10]
  000f8	e2833008	 add         r3, r3, #8
  000fc	e5930000	 ldr         r0, [r3]
  00100	e5923000	 ldr         r3, [r2]
  00104	e283301c	 add         r3, r3, #0x1C
  00108	e5933000	 ldr         r3, [r3]
  0010c	e1a0e00f	 mov         lr, pc
  00110	e12fff13	 bx          r3
  00114	e58d0004	 str         r0, [sp, #4]
  00118	e59d3004	 ldr         r3, [sp, #4]
  0011c	e58d3000	 str         r3, [sp]

; 54   : }

  00120	e59d0000	 ldr         r0, [sp]
  00124	e28dd008	 add         sp, sp, #8
  00128	e89d6000	 ldmia       sp, {sp, lr}
  0012c	e12fff1e	 bx          lr
  00130		 |$M34569|

			 ENDP  ; |?Close@DefaultBusContext_t@@UAAHXZ|, DefaultBusContext_t::Close

	EXPORT	|?FindChildByName@DefaultBusContext_t@@IAAPAVBusDriverChild_t@@PBG@Z| ; DefaultBusContext_t::FindChildByName
	IMPORT	|wcslen|
	IMPORT	|SetLastError|
	IMPORT	|memcpy|

  00018			 AREA	 |.pdata|, PDATA
|$T34604| DCD	|$LN65@IOControl@2|
	DCD	0x4001c404
; Function compile flags: /Odtp

  00130			 AREA	 |.text|, CODE, ARM

  00130		 |?IOControl@DefaultBusContext_t@@UAAHKPAEK0KPAK@Z| PROC ; DefaultBusContext_t::IOControl

; 72   : {

  00130		 |$LN65@IOControl@2|
  00130	e1a0c00d	 mov         r12, sp
  00134	e92d000f	 stmdb       sp!, {r0 - r3}
  00138	e92d5010	 stmdb       sp!, {r4, r12, lr}
  0013c	e24dd0f4	 sub         sp, sp, #0xF4
  00140		 |$M34601|

; 73   :     BOOL rc = FALSE;

  00140	e3a03000	 mov         r3, #0
  00144	e58d300c	 str         r3, [sp, #0xC]

; 74   : 
; 75   :     switch (code)

  00148	e59d3104	 ldr         r3, [sp, #0x104]
  0014c	e58d30a4	 str         r3, [sp, #0xA4]
  00150	e59d20a4	 ldr         r2, [sp, #0xA4]
  00154	e3a0382a	 mov         r3, #0x2A, 16
  00158	e3833018	 orr         r3, r3, #0x18
  0015c	e1520003	 cmp         r2, r3
  00160	8a000022	 bhi         |$LN42@IOControl@2|
  00164	e59d20a4	 ldr         r2, [sp, #0xA4]
  00168	e3a0382a	 mov         r3, #0x2A, 16
  0016c	e3833018	 orr         r3, r3, #0x18
  00170	e1520003	 cmp         r2, r3
  00174	0a0000fa	 beq         |$LN19@IOControl@2|
  00178	e59d20a4	 ldr         r2, [sp, #0xA4]
  0017c	e3a0382a	 mov         r3, #0x2A, 16
  00180	e3833004	 orr         r3, r3, #4
  00184	e0423003	 sub         r3, r2, r3
  00188	e58d30a4	 str         r3, [sp, #0xA4]
  0018c	e59d30a4	 ldr         r3, [sp, #0xA4]
  00190	e3530010	 cmp         r3, #0x10
  00194	8a0001a3	 bhi         |$LN38@IOControl@2|
  00198	e59d20a4	 ldr         r2, [sp, #0xA4]
  0019c	e1a03102	 mov         r3, r2, lsl #2
  001a0	e083300f	 add         r3, r3, pc
  001a4	e5933004	 ldr         r3, [r3, #4]
  001a8	e08ff003	 add         pc, pc, r3
  001ac		 |$LN45@IOControl@2|
  001ac		 |$LN44@IOControl@2|
  001ac		 |$LN46@IOControl@2|
  001ac	00000158	 DCD         0x158
  001b0		 |$LN47@IOControl@2|
  001b0	00000678	 DCD         0x678
  001b4		 |$LN48@IOControl@2|
  001b4	00000678	 DCD         0x678
  001b8		 |$LN49@IOControl@2|
  001b8	00000678	 DCD         0x678
  001bc		 |$LN50@IOControl@2|
  001bc	00000214	 DCD         0x214
  001c0		 |$LN51@IOControl@2|
  001c0	00000678	 DCD         0x678
  001c4		 |$LN52@IOControl@2|
  001c4	00000678	 DCD         0x678
  001c8		 |$LN53@IOControl@2|
  001c8	00000678	 DCD         0x678
  001cc		 |$LN54@IOControl@2|
  001cc	000002c8	 DCD         0x2c8
  001d0		 |$LN55@IOControl@2|
  001d0	00000678	 DCD         0x678
  001d4		 |$LN56@IOControl@2|
  001d4	00000678	 DCD         0x678
  001d8		 |$LN57@IOControl@2|
  001d8	00000678	 DCD         0x678
  001dc		 |$LN58@IOControl@2|
  001dc	000002c8	 DCD         0x2c8
  001e0		 |$LN59@IOControl@2|
  001e0	00000678	 DCD         0x678
  001e4		 |$LN60@IOControl@2|
  001e4	00000678	 DCD         0x678
  001e8		 |$LN61@IOControl@2|
  001e8	00000678	 DCD         0x678
  001ec		 |$LN62@IOControl@2|
  001ec	000003b4	 DCD         0x3b4
  001f0		 |$LN42@IOControl@2|
  001f0	e59d20a4	 ldr         r2, [sp, #0xA4]
  001f4	e3a0382a	 mov         r3, #0x2A, 16
  001f8	e3833048	 orr         r3, r3, #0x48
  001fc	e1520003	 cmp         r2, r3
  00200	8a00000f	 bhi         |$LN43@IOControl@2|
  00204	e59d20a4	 ldr         r2, [sp, #0xA4]
  00208	e3a0382a	 mov         r3, #0x2A, 16
  0020c	e3833048	 orr         r3, r3, #0x48
  00210	e1520003	 cmp         r2, r3
  00214	0a000015	 beq         |$LN37@IOControl@2|
  00218	e59d20a4	 ldr         r2, [sp, #0xA4]
  0021c	e3a0382a	 mov         r3, #0x2A, 16
  00220	e3833040	 orr         r3, r3, #0x40
  00224	e1520003	 cmp         r2, r3
  00228	0a000110	 beq         |$LN12@IOControl@2|
  0022c	e59d20a4	 ldr         r2, [sp, #0xA4]
  00230	e3a0382a	 mov         r3, #0x2A, 16
  00234	e3833044	 orr         r3, r3, #0x44
  00238	e1520003	 cmp         r2, r3
  0023c	0a00010b	 beq         |$LN12@IOControl@2|
  00240	ea000178	 b           |$LN38@IOControl@2|
  00244		 |$LN43@IOControl@2|
  00244	e59d20a4	 ldr         r2, [sp, #0xA4]
  00248	e3a0382a	 mov         r3, #0x2A, 16
  0024c	e3833080	 orr         r3, r3, #0x80
  00250	e1520003	 cmp         r2, r3
  00254	0a000141	 beq         |$LN5@IOControl@2|
  00258	e59d20a4	 ldr         r2, [sp, #0xA4]
  0025c	e3a0382a	 mov         r3, #0x2A, 16
  00260	e3833084	 orr         r3, r3, #0x84
  00264	e1520003	 cmp         r2, r3
  00268	0a00000f	 beq         |$LN36@IOControl@2|
  0026c	ea00016d	 b           |$LN38@IOControl@2|
  00270		 |$LN37@IOControl@2|

; 76   :         {
; 77   :         
; 78   :         case IOCTL_BUS_POSTINIT: 
; 79   :             rc = m_pBus->IoCtlPostInit();

  00270	e59d3100	 ldr         r3, [sp, #0x100]
  00274	e2833008	 add         r3, r3, #8
  00278	e5932000	 ldr         r2, [r3]
  0027c	e59d3100	 ldr         r3, [sp, #0x100]
  00280	e2833008	 add         r3, r3, #8
  00284	e5930000	 ldr         r0, [r3]
  00288	e5923000	 ldr         r3, [r2]
  0028c	e2833024	 add         r3, r3, #0x24
  00290	e5933000	 ldr         r3, [r3]
  00294	e1a0e00f	 mov         lr, pc
  00298	e12fff13	 bx          r3
  0029c	e58d00a8	 str         r0, [sp, #0xA8]
  002a0	e59d30a8	 ldr         r3, [sp, #0xA8]
  002a4	e58d300c	 str         r3, [sp, #0xC]

; 80   :             break;

  002a8	ea00015e	 b           |$LN38@IOControl@2|
  002ac		 |$LN36@IOControl@2|

; 81   : 
; 82   :         case IOCTL_BUS_NAME_PREFIX:
; 83   :             {
; 84   :             DWORD size = m_pBus->IoCtlBusNamePrefix(
; 85   :                 reinterpret_cast<LPWSTR>(pOutBuffer),  outSize
; 86   :                 );

  002ac	e59d2114	 ldr         r2, [sp, #0x114]
  002b0	e59d1110	 ldr         r1, [sp, #0x110]
  002b4	e59d3100	 ldr         r3, [sp, #0x100]
  002b8	e2833008	 add         r3, r3, #8
  002bc	e593e000	 ldr         lr, [r3]
  002c0	e59d3100	 ldr         r3, [sp, #0x100]
  002c4	e2833008	 add         r3, r3, #8
  002c8	e5930000	 ldr         r0, [r3]
  002cc	e59e3000	 ldr         r3, [lr]
  002d0	e2833028	 add         r3, r3, #0x28
  002d4	e5933000	 ldr         r3, [r3]
  002d8	e1a0e00f	 mov         lr, pc
  002dc	e12fff13	 bx          r3
  002e0	e58d00ac	 str         r0, [sp, #0xAC]
  002e4	e59d30ac	 ldr         r3, [sp, #0xAC]
  002e8	e58d3010	 str         r3, [sp, #0x10]

; 87   :             if (pOutSize != NULL) *pOutSize = size;

  002ec	e59d3118	 ldr         r3, [sp, #0x118]
  002f0	e3530000	 cmp         r3, #0
  002f4	0a000002	 beq         |$LN35@IOControl@2|
  002f8	e59d2010	 ldr         r2, [sp, #0x10]
  002fc	e59d3118	 ldr         r3, [sp, #0x118]
  00300	e5832000	 str         r2, [r3]
  00304		 |$LN35@IOControl@2|

; 88   :             }
; 89   :             break;

  00304	ea000147	 b           |$LN38@IOControl@2|
  00308		 |$LN34@IOControl@2|

; 90   :             
; 91   :         case IOCTL_BUS_TRANSLATE_BUS_ADDRESS:
; 92   :             if ((pInBuffer == NULL) || 
; 93   :                 (inSize < sizeof(CE_BUS_TRANSLATE_BUS_ADDR)))

  00308	e59d3108	 ldr         r3, [sp, #0x108]
  0030c	e3530000	 cmp         r3, #0
  00310	0a000002	 beq         |$LN32@IOControl@2|
  00314	e59d310c	 ldr         r3, [sp, #0x10C]
  00318	e3530020	 cmp         r3, #0x20
  0031c	2a000002	 bcs         |$LN33@IOControl@2|
  00320		 |$LN32@IOControl@2|

; 94   :                 {
; 95   :                 SetLastError(ERROR_INVALID_PARAMETER);

  00320	e3a00057	 mov         r0, #0x57
  00324	eb000000	 bl          SetLastError

; 96   :                 break;

  00328	ea00013e	 b           |$LN38@IOControl@2|
  0032c		 |$LN33@IOControl@2|

; 97   :                 }
; 98   :             {
; 99   :             CE_BUS_TRANSLATE_BUS_ADDR busTrans;
; 100  : 
; 101  :             // Cast pInBuffer
; 102  :             busTrans = *(CE_BUS_TRANSLATE_BUS_ADDR *)pInBuffer;

  0032c	e59d1108	 ldr         r1, [sp, #0x108]
  00330	e28d0018	 add         r0, sp, #0x18
  00334	e3a02020	 mov         r2, #0x20
  00338	eb000000	 bl          memcpy

; 103  : 
; 104  :             // Get child to be called
; 105  :             BusDriverChild_t* pChild = FindChildByName(
; 106  :                 busTrans.lpDeviceBusName
; 107  :                 );

  0033c	e59d1018	 ldr         r1, [sp, #0x18]
  00340	e59d0100	 ldr         r0, [sp, #0x100]
  00344	eb000000	 bl          |?FindChildByName@DefaultBusContext_t@@IAAPAVBusDriverChild_t@@PBG@Z|
  00348	e58d00b0	 str         r0, [sp, #0xB0]
  0034c	e59d30b0	 ldr         r3, [sp, #0xB0]
  00350	e58d3014	 str         r3, [sp, #0x14]

; 108  :             // If we can't find child by name, we get incorrect name
; 109  :             if (pChild == NULL)

  00354	e59d3014	 ldr         r3, [sp, #0x14]
  00358	e3530000	 cmp         r3, #0
  0035c	1a000002	 bne         |$LN31@IOControl@2|

; 110  :                 {
; 111  :                 SetLastError(ERROR_INVALID_PARAMETER);

  00360	e3a00057	 mov         r0, #0x57
  00364	eb000000	 bl          SetLastError

; 112  :                 break;

  00368	ea00012e	 b           |$LN38@IOControl@2|
  0036c		 |$LN31@IOControl@2|

; 113  :                 }
; 114  :             // Call child function
; 115  :             rc = pChild->IoCtlTranslateBusAddress(
; 116  :                 busTrans.InterfaceType, busTrans.BusNumber, 
; 117  :                 busTrans.BusAddress, busTrans.AddressSpace, 
; 118  :                 busTrans.TranslatedAddress
; 119  :                 );

  0036c	e59d3034	 ldr         r3, [sp, #0x34]
  00370	e58d3008	 str         r3, [sp, #8]
  00374	e59d3030	 ldr         r3, [sp, #0x30]
  00378	e58d3004	 str         r3, [sp, #4]
  0037c	e28d0000	 add         r0, sp, #0
  00380	e28d102c	 add         r1, sp, #0x2C
  00384	e3a02004	 mov         r2, #4
  00388	eb000000	 bl          memcpy
  0038c	e59d3028	 ldr         r3, [sp, #0x28]
  00390	e59d2020	 ldr         r2, [sp, #0x20]
  00394	e59d101c	 ldr         r1, [sp, #0x1C]
  00398	e59d0014	 ldr         r0, [sp, #0x14]
  0039c	e5900000	 ldr         r0, [r0]
  003a0	e280e010	 add         lr, r0, #0x10
  003a4	e59d0014	 ldr         r0, [sp, #0x14]
  003a8	e59e4000	 ldr         r4, [lr]
  003ac	e1a0e00f	 mov         lr, pc
  003b0	e12fff14	 bx          r4
  003b4	e58d00b4	 str         r0, [sp, #0xB4]
  003b8	e59d30b4	 ldr         r3, [sp, #0xB4]
  003bc	e58d300c	 str         r3, [sp, #0xC]

; 120  :             }
; 121  :             break;

  003c0	ea000118	 b           |$LN38@IOControl@2|
  003c4		 |$LN30@IOControl@2|

; 122  :             
; 123  :         case IOCTL_BUS_TRANSLATE_SYSTEM_ADDRESS:
; 124  :             if ((pInBuffer == NULL) || 
; 125  :                 (inSize < sizeof(CE_BUS_TRANSLATE_SYSTEM_ADDR)))

  003c4	e59d3108	 ldr         r3, [sp, #0x108]
  003c8	e3530000	 cmp         r3, #0
  003cc	0a000002	 beq         |$LN28@IOControl@2|
  003d0	e59d310c	 ldr         r3, [sp, #0x10C]
  003d4	e3530020	 cmp         r3, #0x20
  003d8	2a000002	 bcs         |$LN29@IOControl@2|
  003dc		 |$LN28@IOControl@2|

; 126  :                 {
; 127  :                 SetLastError(ERROR_INVALID_PARAMETER);

  003dc	e3a00057	 mov         r0, #0x57
  003e0	eb000000	 bl          SetLastError

; 128  :                 break;

  003e4	ea00010f	 b           |$LN38@IOControl@2|
  003e8		 |$LN29@IOControl@2|

; 129  :                 }
; 130  :             {
; 131  :             CE_BUS_TRANSLATE_SYSTEM_ADDR busTrans;
; 132  : 
; 133  :             // Cast pInbuffer    
; 134  :             busTrans = *(CE_BUS_TRANSLATE_SYSTEM_ADDR *)pInBuffer;

  003e8	e59d1108	 ldr         r1, [sp, #0x108]
  003ec	e28d003c	 add         r0, sp, #0x3C
  003f0	e3a02020	 mov         r2, #0x20
  003f4	eb000000	 bl          memcpy

; 135  : 
; 136  :             // Get child to be called
; 137  :             BusDriverChild_t* pChild = FindChildByName(
; 138  :                 busTrans.lpDeviceBusName
; 139  :                 );

  003f8	e59d103c	 ldr         r1, [sp, #0x3C]
  003fc	e59d0100	 ldr         r0, [sp, #0x100]
  00400	eb000000	 bl          |?FindChildByName@DefaultBusContext_t@@IAAPAVBusDriverChild_t@@PBG@Z|
  00404	e58d00b8	 str         r0, [sp, #0xB8]
  00408	e59d30b8	 ldr         r3, [sp, #0xB8]
  0040c	e58d3038	 str         r3, [sp, #0x38]

; 140  :             // If we can't find child by name, we get incorrect name
; 141  :             if (pChild == NULL)

  00410	e59d3038	 ldr         r3, [sp, #0x38]
  00414	e3530000	 cmp         r3, #0
  00418	1a000002	 bne         |$LN27@IOControl@2|

; 142  :                 {
; 143  :                 SetLastError(ERROR_INVALID_PARAMETER);

  0041c	e3a00057	 mov         r0, #0x57
  00420	eb000000	 bl          SetLastError

; 144  :                 break;

  00424	ea0000ff	 b           |$LN38@IOControl@2|
  00428		 |$LN27@IOControl@2|

; 145  :                 }
; 146  :             // Call child function
; 147  :             rc = pChild->IoCtlTranslateSystemAddress(
; 148  :                     busTrans.InterfaceType, busTrans.BusNumber, 
; 149  :                     busTrans.SystemAddress, busTrans.TranslatedAddress
; 150  :                     );

  00428	e59d3054	 ldr         r3, [sp, #0x54]
  0042c	e58d3004	 str         r3, [sp, #4]
  00430	e28d0000	 add         r0, sp, #0
  00434	e28d1050	 add         r1, sp, #0x50
  00438	e3a02004	 mov         r2, #4
  0043c	eb000000	 bl          memcpy
  00440	e59d304c	 ldr         r3, [sp, #0x4C]
  00444	e59d2044	 ldr         r2, [sp, #0x44]
  00448	e59d1040	 ldr         r1, [sp, #0x40]
  0044c	e59d0038	 ldr         r0, [sp, #0x38]
  00450	e5900000	 ldr         r0, [r0]
  00454	e280e014	 add         lr, r0, #0x14
  00458	e59d0038	 ldr         r0, [sp, #0x38]
  0045c	e59e4000	 ldr         r4, [lr]
  00460	e1a0e00f	 mov         lr, pc
  00464	e12fff14	 bx          r4
  00468	e58d00bc	 str         r0, [sp, #0xBC]
  0046c	e59d30bc	 ldr         r3, [sp, #0xBC]
  00470	e58d300c	 str         r3, [sp, #0xC]

; 151  :             }
; 152  :             break;

  00474	ea0000eb	 b           |$LN38@IOControl@2|
  00478		 |$LN26@IOControl@2|

; 153  : 
; 154  :         case IOCTL_BUS_GET_POWER_STATE:
; 155  :         case IOCTL_BUS_SET_POWER_STATE:
; 156  :             if ((pInBuffer == NULL) || 
; 157  :                 (inSize < sizeof(CE_BUS_POWER_STATE)))

  00478	e59d3108	 ldr         r3, [sp, #0x108]
  0047c	e3530000	 cmp         r3, #0
  00480	0a000002	 beq         |$LN24@IOControl@2|
  00484	e59d310c	 ldr         r3, [sp, #0x10C]
  00488	e353000c	 cmp         r3, #0xC
  0048c	2a000002	 bcs         |$LN25@IOControl@2|
  00490		 |$LN24@IOControl@2|

; 158  :                 {
; 159  :                 SetLastError(ERROR_INVALID_PARAMETER);

  00490	e3a00057	 mov         r0, #0x57
  00494	eb000000	 bl          SetLastError

; 160  :                 break;

  00498	ea0000e2	 b           |$LN38@IOControl@2|
  0049c		 |$LN25@IOControl@2|

; 161  :                 }
; 162  :             {
; 163  :             CE_BUS_POWER_STATE state;
; 164  : 
; 165  :             // Cast pInBuffer
; 166  :             state = *(CE_BUS_POWER_STATE *)pInBuffer;

  0049c	e59d1108	 ldr         r1, [sp, #0x108]
  004a0	e28d0060	 add         r0, sp, #0x60
  004a4	e3a0200c	 mov         r2, #0xC
  004a8	eb000000	 bl          memcpy

; 167  : 
; 168  :             // Get child to be called
; 169  :             BusDriverChild_t* pChild = FindChildByName(
; 170  :                 state.lpDeviceBusName
; 171  :                 );

  004ac	e59d1060	 ldr         r1, [sp, #0x60]
  004b0	e59d0100	 ldr         r0, [sp, #0x100]
  004b4	eb000000	 bl          |?FindChildByName@DefaultBusContext_t@@IAAPAVBusDriverChild_t@@PBG@Z|
  004b8	e58d00c0	 str         r0, [sp, #0xC0]
  004bc	e59d30c0	 ldr         r3, [sp, #0xC0]
  004c0	e58d305c	 str         r3, [sp, #0x5C]

; 172  :             // If we can't find child by name, we get incorrect name
; 173  :             if (pChild == NULL)

  004c4	e59d305c	 ldr         r3, [sp, #0x5C]
  004c8	e3530000	 cmp         r3, #0
  004cc	1a000002	 bne         |$LN23@IOControl@2|

; 174  :                 {
; 175  :                 SetLastError(ERROR_INVALID_PARAMETER);

  004d0	e3a00057	 mov         r0, #0x57
  004d4	eb000000	 bl          SetLastError

; 176  :                 break;

  004d8	ea0000d2	 b           |$LN38@IOControl@2|
  004dc		 |$LN23@IOControl@2|

; 177  :                 }
; 178  :             // Call child function
; 179  :             if (code == IOCTL_BUS_GET_POWER_STATE)

  004dc	e59d2104	 ldr         r2, [sp, #0x104]
  004e0	e3a0382a	 mov         r3, #0x2A, 16
  004e4	e383300c	 orr         r3, r3, #0xC
  004e8	e1520003	 cmp         r2, r3
  004ec	1a00000b	 bne         |$LN22@IOControl@2|

; 180  :                 {
; 181  :                 rc = pChild->IoCtlGetPowerState(state.lpceDevicePowerState);

  004f0	e59d1064	 ldr         r1, [sp, #0x64]
  004f4	e59d305c	 ldr         r3, [sp, #0x5C]
  004f8	e5933000	 ldr         r3, [r3]
  004fc	e2833018	 add         r3, r3, #0x18
  00500	e59d005c	 ldr         r0, [sp, #0x5C]
  00504	e5933000	 ldr         r3, [r3]
  00508	e1a0e00f	 mov         lr, pc
  0050c	e12fff13	 bx          r3
  00510	e58d00c4	 str         r0, [sp, #0xC4]
  00514	e59d30c4	 ldr         r3, [sp, #0xC4]
  00518	e58d300c	 str         r3, [sp, #0xC]
  0051c	ea00000f	 b           |$LN21@IOControl@2|
  00520		 |$LN22@IOControl@2|

; 182  :                 }
; 183  :             else if (code == IOCTL_BUS_SET_POWER_STATE)

  00520	e59d2104	 ldr         r2, [sp, #0x104]
  00524	e3a0382a	 mov         r3, #0x2A, 16
  00528	e3833010	 orr         r3, r3, #0x10
  0052c	e1520003	 cmp         r2, r3
  00530	1a00000a	 bne         |$LN20@IOControl@2|

; 184  :                 {
; 185  :                 rc = pChild->IoCtlSetPowerState(state.lpceDevicePowerState);

  00534	e59d1064	 ldr         r1, [sp, #0x64]
  00538	e59d305c	 ldr         r3, [sp, #0x5C]
  0053c	e5933000	 ldr         r3, [r3]
  00540	e283301c	 add         r3, r3, #0x1C
  00544	e59d005c	 ldr         r0, [sp, #0x5C]
  00548	e5933000	 ldr         r3, [r3]
  0054c	e1a0e00f	 mov         lr, pc
  00550	e12fff13	 bx          r3
  00554	e58d00c8	 str         r0, [sp, #0xC8]
  00558	e59d30c8	 ldr         r3, [sp, #0xC8]
  0055c	e58d300c	 str         r3, [sp, #0xC]
  00560		 |$LN20@IOControl@2|
  00560		 |$LN21@IOControl@2|

; 186  :                 }
; 187  :             }
; 188  :             break;

  00560	ea0000b0	 b           |$LN38@IOControl@2|
  00564		 |$LN19@IOControl@2|

; 189  : 
; 190  :         case IOCTL_BUS_GET_CONFIGURE_DATA:        
; 191  :         case IOCTL_BUS_SET_CONFIGURE_DATA:
; 192  :             if ((pInBuffer == NULL) || 
; 193  :                 (inSize < sizeof(CE_BUS_DEVICE_CONFIGURATION_DATA)))

  00564	e59d3108	 ldr         r3, [sp, #0x108]
  00568	e3530000	 cmp         r3, #0
  0056c	0a000002	 beq         |$LN17@IOControl@2|
  00570	e59d310c	 ldr         r3, [sp, #0x10C]
  00574	e3530014	 cmp         r3, #0x14
  00578	2a000002	 bcs         |$LN18@IOControl@2|
  0057c		 |$LN17@IOControl@2|

; 194  :                 {
; 195  :                 SetLastError(ERROR_INVALID_PARAMETER);

  0057c	e3a00057	 mov         r0, #0x57
  00580	eb000000	 bl          SetLastError

; 196  :                 break;

  00584	ea0000a7	 b           |$LN38@IOControl@2|
  00588		 |$LN18@IOControl@2|

; 197  :                 }
; 198  :             {
; 199  :             CE_BUS_DEVICE_CONFIGURATION_DATA data;
; 200  : 
; 201  :             // Cast pInBuffer
; 202  :             data = *(CE_BUS_DEVICE_CONFIGURATION_DATA*)pInBuffer;

  00588	e59d1108	 ldr         r1, [sp, #0x108]
  0058c	e28d0070	 add         r0, sp, #0x70
  00590	e3a02014	 mov         r2, #0x14
  00594	eb000000	 bl          memcpy

; 203  : 
; 204  :             // Get child to be called
; 205  :             BusDriverChild_t* pChild = FindChildByName(data.lpDeviceBusName);

  00598	e59d1070	 ldr         r1, [sp, #0x70]
  0059c	e59d0100	 ldr         r0, [sp, #0x100]
  005a0	eb000000	 bl          |?FindChildByName@DefaultBusContext_t@@IAAPAVBusDriverChild_t@@PBG@Z|
  005a4	e58d00cc	 str         r0, [sp, #0xCC]
  005a8	e59d30cc	 ldr         r3, [sp, #0xCC]
  005ac	e58d306c	 str         r3, [sp, #0x6C]

; 206  :             // If we can't find child by name, we get incorrect name
; 207  :             if (pChild == NULL)

  005b0	e59d306c	 ldr         r3, [sp, #0x6C]
  005b4	e3530000	 cmp         r3, #0
  005b8	1a000002	 bne         |$LN16@IOControl@2|

; 208  :                 {
; 209  :                 SetLastError(ERROR_INVALID_PARAMETER);

  005bc	e3a00057	 mov         r0, #0x57
  005c0	eb000000	 bl          SetLastError

; 210  :                 break;

  005c4	ea000097	 b           |$LN38@IOControl@2|
  005c8		 |$LN16@IOControl@2|

; 211  :                 }
; 212  :             // Call child function
; 213  :             if (code == IOCTL_BUS_GET_CONFIGURE_DATA)

  005c8	e59d2104	 ldr         r2, [sp, #0x104]
  005cc	e3a0382a	 mov         r3, #0x2A, 16
  005d0	e3833014	 orr         r3, r3, #0x14
  005d4	e1520003	 cmp         r2, r3
  005d8	1a00000f	 bne         |$LN15@IOControl@2|

; 214  :                 {
; 215  :                 rc = pChild->IoCtlGetConfigurationData(
; 216  :                     data.dwSpace, data.dwOffset, data.dwLength, data.pBuffer
; 217  :                     );

  005dc	e59d3080	 ldr         r3, [sp, #0x80]
  005e0	e58d3000	 str         r3, [sp]
  005e4	e59d307c	 ldr         r3, [sp, #0x7C]
  005e8	e59d2078	 ldr         r2, [sp, #0x78]
  005ec	e59d1074	 ldr         r1, [sp, #0x74]
  005f0	e59d006c	 ldr         r0, [sp, #0x6C]
  005f4	e5900000	 ldr         r0, [r0]
  005f8	e280e020	 add         lr, r0, #0x20
  005fc	e59d006c	 ldr         r0, [sp, #0x6C]
  00600	e59e4000	 ldr         r4, [lr]
  00604	e1a0e00f	 mov         lr, pc
  00608	e12fff14	 bx          r4
  0060c	e58d00d0	 str         r0, [sp, #0xD0]
  00610	e59d30d0	 ldr         r3, [sp, #0xD0]
  00614	e58d300c	 str         r3, [sp, #0xC]
  00618	ea000013	 b           |$LN14@IOControl@2|
  0061c		 |$LN15@IOControl@2|

; 218  :                 }
; 219  :             else if (code == IOCTL_BUS_SET_CONFIGURE_DATA)

  0061c	e59d2104	 ldr         r2, [sp, #0x104]
  00620	e3a0382a	 mov         r3, #0x2A, 16
  00624	e3833018	 orr         r3, r3, #0x18
  00628	e1520003	 cmp         r2, r3
  0062c	1a00000e	 bne         |$LN13@IOControl@2|

; 220  :                 {
; 221  :                 rc = pChild->IoCtlSetConfigurationData(
; 222  :                     data.dwSpace, data.dwOffset, data.dwLength, data.pBuffer
; 223  :                     );

  00630	e59d3080	 ldr         r3, [sp, #0x80]
  00634	e58d3000	 str         r3, [sp]
  00638	e59d307c	 ldr         r3, [sp, #0x7C]
  0063c	e59d2078	 ldr         r2, [sp, #0x78]
  00640	e59d1074	 ldr         r1, [sp, #0x74]
  00644	e59d006c	 ldr         r0, [sp, #0x6C]
  00648	e5900000	 ldr         r0, [r0]
  0064c	e280e024	 add         lr, r0, #0x24
  00650	e59d006c	 ldr         r0, [sp, #0x6C]
  00654	e59e4000	 ldr         r4, [lr]
  00658	e1a0e00f	 mov         lr, pc
  0065c	e12fff14	 bx          r4
  00660	e58d00d4	 str         r0, [sp, #0xD4]
  00664	e59d30d4	 ldr         r3, [sp, #0xD4]
  00668	e58d300c	 str         r3, [sp, #0xC]
  0066c		 |$LN13@IOControl@2|
  0066c		 |$LN14@IOControl@2|

; 224  :                 }
; 225  :             }
; 226  :             break;

  0066c	ea00006d	 b           |$LN38@IOControl@2|
  00670		 |$LN12@IOControl@2|

; 227  : 
; 228  :         case IOCTL_BUS_ACTIVATE_CHILD:
; 229  :         case IOCTL_BUS_DEACTIVATE_CHILD:
; 230  :             if ((pInBuffer == NULL) || 
; 231  :                 (inSize < (wcslen((WCHAR*)pInBuffer) + 1) * sizeof(WCHAR)))

  00670	e59d3108	 ldr         r3, [sp, #0x108]
  00674	e3530000	 cmp         r3, #0
  00678	0a000009	 beq         |$LN10@IOControl@2|
  0067c	e59d0108	 ldr         r0, [sp, #0x108]
  00680	eb000000	 bl          wcslen
  00684	e58d00d8	 str         r0, [sp, #0xD8]
  00688	e59d30d8	 ldr         r3, [sp, #0xD8]
  0068c	e2831001	 add         r1, r3, #1
  00690	e3a03002	 mov         r3, #2
  00694	e0020391	 mul         r2, r1, r3
  00698	e59d310c	 ldr         r3, [sp, #0x10C]
  0069c	e1530002	 cmp         r3, r2
  006a0	2a000002	 bcs         |$LN11@IOControl@2|
  006a4		 |$LN10@IOControl@2|

; 232  :                 {
; 233  :                 SetLastError(ERROR_INVALID_PARAMETER);

  006a4	e3a00057	 mov         r0, #0x57
  006a8	eb000000	 bl          SetLastError

; 234  :                 break;

  006ac	ea00005d	 b           |$LN38@IOControl@2|
  006b0		 |$LN11@IOControl@2|

; 235  :                 }
; 236  :             {
; 237  :             // Get child to be called
; 238  :             BusDriverChild_t* pChild = FindChildByName((WCHAR*)pInBuffer);

  006b0	e59d1108	 ldr         r1, [sp, #0x108]
  006b4	e59d0100	 ldr         r0, [sp, #0x100]
  006b8	eb000000	 bl          |?FindChildByName@DefaultBusContext_t@@IAAPAVBusDriverChild_t@@PBG@Z|
  006bc	e58d00dc	 str         r0, [sp, #0xDC]
  006c0	e59d30dc	 ldr         r3, [sp, #0xDC]
  006c4	e58d3084	 str         r3, [sp, #0x84]

; 239  : 
; 240  :             // If we can't find child by name, we get incorrect name
; 241  :             if (pChild == NULL)

  006c8	e59d3084	 ldr         r3, [sp, #0x84]
  006cc	e3530000	 cmp         r3, #0
  006d0	1a000002	 bne         |$LN9@IOControl@2|

; 242  :                 {
; 243  :                 SetLastError(ERROR_INVALID_PARAMETER);

  006d4	e3a00057	 mov         r0, #0x57
  006d8	eb000000	 bl          SetLastError

; 244  :                 break;

  006dc	ea000051	 b           |$LN38@IOControl@2|
  006e0		 |$LN9@IOControl@2|

; 245  :                 }
; 246  :             // Call child function
; 247  :             if (code == IOCTL_BUS_ACTIVATE_CHILD)

  006e0	e59d2104	 ldr         r2, [sp, #0x104]
  006e4	e3a0382a	 mov         r3, #0x2A, 16
  006e8	e3833040	 orr         r3, r3, #0x40
  006ec	e1520003	 cmp         r2, r3
  006f0	1a00000a	 bne         |$LN8@IOControl@2|

; 248  :                 {
; 249  :                 rc = pChild->IoCtlActivateChild();

  006f4	e59d3084	 ldr         r3, [sp, #0x84]
  006f8	e5933000	 ldr         r3, [r3]
  006fc	e2833028	 add         r3, r3, #0x28
  00700	e59d0084	 ldr         r0, [sp, #0x84]
  00704	e5933000	 ldr         r3, [r3]
  00708	e1a0e00f	 mov         lr, pc
  0070c	e12fff13	 bx          r3
  00710	e58d00e0	 str         r0, [sp, #0xE0]
  00714	e59d30e0	 ldr         r3, [sp, #0xE0]
  00718	e58d300c	 str         r3, [sp, #0xC]
  0071c	ea00000e	 b           |$LN7@IOControl@2|
  00720		 |$LN8@IOControl@2|

; 250  :                 }
; 251  :             else if (code == IOCTL_BUS_DEACTIVATE_CHILD)

  00720	e59d2104	 ldr         r2, [sp, #0x104]
  00724	e3a0382a	 mov         r3, #0x2A, 16
  00728	e3833044	 orr         r3, r3, #0x44
  0072c	e1520003	 cmp         r2, r3
  00730	1a000009	 bne         |$LN6@IOControl@2|

; 252  :                 {
; 253  :                 rc = pChild->IoCtlDeactivateChild();

  00734	e59d3084	 ldr         r3, [sp, #0x84]
  00738	e5933000	 ldr         r3, [r3]
  0073c	e283302c	 add         r3, r3, #0x2C
  00740	e59d0084	 ldr         r0, [sp, #0x84]
  00744	e5933000	 ldr         r3, [r3]
  00748	e1a0e00f	 mov         lr, pc
  0074c	e12fff13	 bx          r3
  00750	e58d00e4	 str         r0, [sp, #0xE4]
  00754	e59d30e4	 ldr         r3, [sp, #0xE4]
  00758	e58d300c	 str         r3, [sp, #0xC]
  0075c		 |$LN6@IOControl@2|
  0075c		 |$LN7@IOControl@2|

; 254  :                 }
; 255  :             }
; 256  :             break;

  0075c	ea000031	 b           |$LN38@IOControl@2|
  00760		 |$LN5@IOControl@2|

; 257  : 
; 258  :         case IOCTL_BUS_IS_CHILD_REMOVED:
; 259  :             if (pOutSize != NULL) *pOutSize = sizeof(BOOL);

  00760	e59d3118	 ldr         r3, [sp, #0x118]
  00764	e3530000	 cmp         r3, #0
  00768	0a000002	 beq         |$LN4@IOControl@2|
  0076c	e59d2118	 ldr         r2, [sp, #0x118]
  00770	e3a03004	 mov         r3, #4
  00774	e5823000	 str         r3, [r2]
  00778		 |$LN4@IOControl@2|

; 260  :             if ((pInBuffer == NULL) || 
; 261  :                 (inSize < (wcslen((WCHAR*)pInBuffer) + 1) * sizeof(WCHAR)) ||
; 262  :                 (pOutBuffer == NULL) || (outSize < sizeof(BOOL)))

  00778	e59d3108	 ldr         r3, [sp, #0x108]
  0077c	e3530000	 cmp         r3, #0
  00780	0a00000f	 beq         |$LN2@IOControl@2|
  00784	e59d0108	 ldr         r0, [sp, #0x108]
  00788	eb000000	 bl          wcslen
  0078c	e58d00e8	 str         r0, [sp, #0xE8]
  00790	e59d30e8	 ldr         r3, [sp, #0xE8]
  00794	e2831001	 add         r1, r3, #1
  00798	e3a03002	 mov         r3, #2
  0079c	e0020391	 mul         r2, r1, r3
  007a0	e59d310c	 ldr         r3, [sp, #0x10C]
  007a4	e1530002	 cmp         r3, r2
  007a8	3a000005	 bcc         |$LN2@IOControl@2|
  007ac	e59d3110	 ldr         r3, [sp, #0x110]
  007b0	e3530000	 cmp         r3, #0
  007b4	0a000002	 beq         |$LN2@IOControl@2|
  007b8	e59d3114	 ldr         r3, [sp, #0x114]
  007bc	e3530004	 cmp         r3, #4
  007c0	2a000002	 bcs         |$LN3@IOControl@2|
  007c4		 |$LN2@IOControl@2|

; 263  :                 {
; 264  :                 SetLastError(ERROR_INVALID_PARAMETER);

  007c4	e3a00057	 mov         r0, #0x57
  007c8	eb000000	 bl          SetLastError

; 265  :                 break;

  007cc	ea000015	 b           |$LN38@IOControl@2|
  007d0		 |$LN3@IOControl@2|

; 266  :                 }
; 267  :             {
; 268  :             // Get child to be called
; 269  :             BusDriverChild_t* pChild = FindChildByName((WCHAR*)pInBuffer);

  007d0	e59d1108	 ldr         r1, [sp, #0x108]
  007d4	e59d0100	 ldr         r0, [sp, #0x100]
  007d8	eb000000	 bl          |?FindChildByName@DefaultBusContext_t@@IAAPAVBusDriverChild_t@@PBG@Z|
  007dc	e58d00ec	 str         r0, [sp, #0xEC]
  007e0	e59d30ec	 ldr         r3, [sp, #0xEC]
  007e4	e58d3088	 str         r3, [sp, #0x88]

; 270  : 
; 271  :             // If we can't find child by name, we get incorrect name
; 272  :             if (pChild == NULL)

  007e8	e59d3088	 ldr         r3, [sp, #0x88]
  007ec	e3530000	 cmp         r3, #0
  007f0	1a000002	 bne         |$LN1@IOControl@2|

; 273  :                 {
; 274  :                 SetLastError(ERROR_INVALID_PARAMETER);

  007f4	e3a00057	 mov         r0, #0x57
  007f8	eb000000	 bl          SetLastError

; 275  :                 break;

  007fc	ea000009	 b           |$LN38@IOControl@2|
  00800		 |$LN1@IOControl@2|

; 276  :                 }
; 277  :             // Call child function
; 278  :             rc = pChild->IoCtlIsChildRemoved();

  00800	e59d3088	 ldr         r3, [sp, #0x88]
  00804	e5933000	 ldr         r3, [r3]
  00808	e2833030	 add         r3, r3, #0x30
  0080c	e59d0088	 ldr         r0, [sp, #0x88]
  00810	e5933000	 ldr         r3, [r3]
  00814	e1a0e00f	 mov         lr, pc
  00818	e12fff13	 bx          r3
  0081c	e58d00f0	 str         r0, [sp, #0xF0]
  00820	e59d30f0	 ldr         r3, [sp, #0xF0]
  00824	e58d300c	 str         r3, [sp, #0xC]
  00828		 |$LN38@IOControl@2|

; 279  :             }
; 280  :             break;
; 281  :         }
; 282  :     
; 283  :     return rc;

  00828	e59d300c	 ldr         r3, [sp, #0xC]
  0082c	e58d30a0	 str         r3, [sp, #0xA0]

; 284  : }

  00830	e59d00a0	 ldr         r0, [sp, #0xA0]
  00834	e28dd0f4	 add         sp, sp, #0xF4
  00838	e89d6010	 ldmia       sp, {r4, sp, lr}
  0083c	e12fff1e	 bx          lr
  00840		 |$M34602|

			 ENDP  ; |?IOControl@DefaultBusContext_t@@UAAHKPAEK0KPAK@Z|, DefaultBusContext_t::IOControl


  00020			 AREA	 |.pdata|, PDATA
|$T34610| DCD	|$LN7@FindChildB|
	DCD	0x40002904
; Function compile flags: /Odtp

  00840			 AREA	 |.text|, CODE, ARM

  00840		 |?FindChildByName@DefaultBusContext_t@@IAAPAVBusDriverChild_t@@PBG@Z| PROC ; DefaultBusContext_t::FindChildByName

; 300  : {

  00840		 |$LN7@FindChildB|
  00840	e1a0c00d	 mov         r12, sp
  00844	e92d0003	 stmdb       sp!, {r0, r1}
  00848	e92d5000	 stmdb       sp!, {r12, lr}
  0084c	e24dd00c	 sub         sp, sp, #0xC
  00850		 |$M34607|

; 301  :     BusDriverChild_t* pChild;
; 302  : 
; 303  :     if (m_pChild == NULL)

  00850	e59d3014	 ldr         r3, [sp, #0x14]
  00854	e283300c	 add         r3, r3, #0xC
  00858	e5933000	 ldr         r3, [r3]
  0085c	e3530000	 cmp         r3, #0
  00860	1a000015	 bne         |$LN2@FindChildB|

; 304  :         {
; 305  :         // We don't need add reference count as it is done by
; 306  :         // FindChildByName method...
; 307  :         pChild = m_pChild = m_pBus->FindChildByName(childName);

  00864	e59d1018	 ldr         r1, [sp, #0x18]
  00868	e59d3014	 ldr         r3, [sp, #0x14]
  0086c	e2833008	 add         r3, r3, #8
  00870	e5932000	 ldr         r2, [r3]
  00874	e59d3014	 ldr         r3, [sp, #0x14]
  00878	e2833008	 add         r3, r3, #8
  0087c	e5930000	 ldr         r0, [r3]
  00880	e5923000	 ldr         r3, [r2]
  00884	e283302c	 add         r3, r3, #0x2C
  00888	e5933000	 ldr         r3, [r3]
  0088c	e1a0e00f	 mov         lr, pc
  00890	e12fff13	 bx          r3
  00894	e58d0008	 str         r0, [sp, #8]
  00898	e59d3014	 ldr         r3, [sp, #0x14]
  0089c	e283200c	 add         r2, r3, #0xC
  008a0	e59d3008	 ldr         r3, [sp, #8]
  008a4	e5823000	 str         r3, [r2]
  008a8	e59d3014	 ldr         r3, [sp, #0x14]
  008ac	e283300c	 add         r3, r3, #0xC
  008b0	e5933000	 ldr         r3, [r3]
  008b4	e58d3000	 str         r3, [sp]

; 308  :         }
; 309  :     else

  008b8	ea000003	 b           |$LN1@FindChildB|
  008bc		 |$LN2@FindChildB|

; 310  :         {
; 311  :         pChild = m_pChild;

  008bc	e59d3014	 ldr         r3, [sp, #0x14]
  008c0	e283300c	 add         r3, r3, #0xC
  008c4	e5933000	 ldr         r3, [r3]
  008c8	e58d3000	 str         r3, [sp]
  008cc		 |$LN1@FindChildB|

; 312  :         }
; 313  : 
; 314  :     return pChild;

  008cc	e59d3000	 ldr         r3, [sp]
  008d0	e58d3004	 str         r3, [sp, #4]

; 315  : }    

  008d4	e59d0004	 ldr         r0, [sp, #4]
  008d8	e28dd00c	 add         sp, sp, #0xC
  008dc	e89d6000	 ldmia       sp, {sp, lr}
  008e0	e12fff1e	 bx          lr
  008e4		 |$M34608|

			 ENDP  ; |?FindChildByName@DefaultBusContext_t@@IAAPAVBusDriverChild_t@@PBG@Z|, DefaultBusContext_t::FindChildByName

	END
