; Listing generated by Microsoft (R) Optimizing Compiler Version 14.01.60511.01 

	TTL	C:\WINCE600\PLATFORM\COMMON\SRC\SOC\COMMON_TI_V1\COMMON_TI\DSS\DSSAI\dssai.cpp
	CODE32

  00000			 AREA	 |.drectve|, DRECTVE
	DCB	"-defaultlib:LIBCMT "
	DCB	"-defaultlib:OLDNAMES "

	EXPORT	|?g_rgPipelineMapping@@3PAUOMAPPipelineConfig@@A| [ DATA ] ; g_rgPipelineMapping
	EXPORT	|?g_rgPipelineScaling@@3PAUOMAPPipelineScaling@@A| [ DATA ] ; g_rgPipelineScaling
	EXPORT	|?g_dwDestinationRefCnt@@3PAKA| [ DATA ] ; g_dwDestinationRefCnt

  00000			 AREA	 |.bss|, NOINIT
|?g_rgPipelineMapping@@3PAUOMAPPipelineConfig@@A| % 0x60 ; g_rgPipelineMapping
|?g_dwDestinationRefCnt@@3PAKA| % 0x8			; g_dwDestinationRefCnt

  00000			 AREA	 |.data|, DATA
|?g_rgPipelineScaling@@3PAUOMAPPipelineScaling@@A| DCD 0x1 ; g_rgPipelineScaling
	DCD	0x1
	DCD	0x0
	DCD	0x1
	DCD	0x1
	DCD	0x0
	DCD	0x1
	DCD	0x1
	DCD	0x0
	EXPORT	|SetEvent|
	IMPORT	|EventModify|
; File c:\wince600\public\common\sdk\inc\kfuncs.h

  00000			 AREA	 |.pdata|, PDATA
|$T40345| DCD	|$LN5@SetEvent|
	DCD	0x40000501
; Function compile flags: /Ogspy

  00000			 AREA	 |.text|, CODE, ARM

  00000		 |SetEvent| PROC

; 235  : _inline BOOL SetEvent(HANDLE h) {

  00000		 |$LN5@SetEvent|
  00000	e52de004	 str         lr, [sp, #-4]!
  00004		 |$M40342|

; 236  : 	return EventModify(h,EVENT_SET);

  00004	e3a01003	 mov         r1, #3
  00008	eb000000	 bl          EventModify

; 237  : }

  0000c	e49de004	 ldr         lr, [sp], #4
  00010	e12fff1e	 bx          lr
  00014		 |$M40343|

			 ENDP  ; |SetEvent|

	EXPORT	|?GetLCDWidth@OMAPDisplayController@@QAAKXZ| ; OMAPDisplayController::GetLCDWidth
; File c:\wince600\platform\common\src\soc\common_ti_v1\common_ti\dss\inc\dssai.h

  00000			 AREA	 |.pdata|, PDATA
|$T40355| DCD	|$LN5@GetLCDWidt|
	DCD	0x40000200
; Function compile flags: /Ogspy

  00000			 AREA	 |.text|, CODE, ARM

  00000		 |?GetLCDWidth@OMAPDisplayController@@QAAKXZ| PROC ; OMAPDisplayController::GetLCDWidth

; 303  :     DWORD                   GetLCDWidth() { return m_dwLcdWidth; }

  00000		 |$LN5@GetLCDWidt|
  00000		 |$M40352|
  00000	e59004a8	 ldr         r0, [r0, #0x4A8]
  00004	e12fff1e	 bx          lr
  00008		 |$M40353|

			 ENDP  ; |?GetLCDWidth@OMAPDisplayController@@QAAKXZ|, OMAPDisplayController::GetLCDWidth

	EXPORT	|?GetLCDHeight@OMAPDisplayController@@QAAKXZ| ; OMAPDisplayController::GetLCDHeight

  00000			 AREA	 |.pdata|, PDATA
|$T40365| DCD	|$LN5@GetLCDHeig|
	DCD	0x40000200
; Function compile flags: /Ogspy

  00000			 AREA	 |.text|, CODE, ARM

  00000		 |?GetLCDHeight@OMAPDisplayController@@QAAKXZ| PROC ; OMAPDisplayController::GetLCDHeight

; 304  :     DWORD                   GetLCDHeight() { return m_dwLcdHeight; }

  00000		 |$LN5@GetLCDHeig|
  00000		 |$M40362|
  00000	e59004ac	 ldr         r0, [r0, #0x4AC]
  00004	e12fff1e	 bx          lr
  00008		 |$M40363|

			 ENDP  ; |?GetLCDHeight@OMAPDisplayController@@QAAKXZ|, OMAPDisplayController::GetLCDHeight

	EXPORT	|?PixelFormat@OMAPSurface@@QAA?AW4OMAP_DSS_PIXELFORMAT@@XZ| ; OMAPSurface::PixelFormat

  00000			 AREA	 |.pdata|, PDATA
|$T40375| DCD	|$LN5@PixelForma|
	DCD	0x40000200
; Function compile flags: /Ogspy

  00000			 AREA	 |.text|, CODE, ARM

  00000		 |?PixelFormat@OMAPSurface@@QAA?AW4OMAP_DSS_PIXELFORMAT@@XZ| PROC ; OMAPSurface::PixelFormat

; 760  :     OMAP_DSS_PIXELFORMAT    PixelFormat() { return m_ePixelFormat; }

  00000		 |$LN5@PixelForma|
  00000		 |$M40372|
  00000	e5900004	 ldr         r0, [r0, #4]
  00004	e12fff1e	 bx          lr
  00008		 |$M40373|

			 ENDP  ; |?PixelFormat@OMAPSurface@@QAA?AW4OMAP_DSS_PIXELFORMAT@@XZ|, OMAPSurface::PixelFormat

	EXPORT	|?PixelSize@OMAPSurface@@QAAKXZ|	; OMAPSurface::PixelSize

  00000			 AREA	 |.pdata|, PDATA
|$T40385| DCD	|$LN5@PixelSize|
	DCD	0x40000200
; Function compile flags: /Ogspy

  00000			 AREA	 |.text|, CODE, ARM

  00000		 |?PixelSize@OMAPSurface@@QAAKXZ| PROC	; OMAPSurface::PixelSize

; 762  :     DWORD                   PixelSize() { return m_dwPixelSize; }

  00000		 |$LN5@PixelSize|
  00000		 |$M40382|
  00000	e5900008	 ldr         r0, [r0, #8]
  00004	e12fff1e	 bx          lr
  00008		 |$M40383|

			 ENDP  ; |?PixelSize@OMAPSurface@@QAAKXZ|, OMAPSurface::PixelSize

	EXPORT	|?ResizeParams@OMAPSurface@@QAAPAURSZParams_t@@XZ| ; OMAPSurface::ResizeParams

  00000			 AREA	 |.pdata|, PDATA
|$T40395| DCD	|$LN5@ResizePara|
	DCD	0x40000200
; Function compile flags: /Ogspy

  00000			 AREA	 |.text|, CODE, ARM

  00000		 |?ResizeParams@OMAPSurface@@QAAPAURSZParams_t@@XZ| PROC ; OMAPSurface::ResizeParams

; 772  :     RSZParams_t *           ResizeParams() { return &m_sRSZParams; }

  00000		 |$LN5@ResizePara|
  00000		 |$M40392|
  00000	e2800038	 add         r0, r0, #0x38
  00004	e12fff1e	 bx          lr
  00008		 |$M40393|

			 ENDP  ; |?ResizeParams@OMAPSurface@@QAAPAURSZParams_t@@XZ|, OMAPSurface::ResizeParams

	EXPORT	|?OmapAssocSurface@OMAPSurface@@QAAPAV1@XZ| ; OMAPSurface::OmapAssocSurface

  00000			 AREA	 |.pdata|, PDATA
|$T40405| DCD	|$LN5@OmapAssocS|
	DCD	0x40000200
; Function compile flags: /Ogspy

  00000			 AREA	 |.text|, CODE, ARM

  00000		 |?OmapAssocSurface@OMAPSurface@@QAAPAV1@XZ| PROC ; OMAPSurface::OmapAssocSurface

; 776  :     OMAPSurface *           OmapAssocSurface(){return m_pAssocSurface;}    

  00000		 |$LN5@OmapAssocS|
  00000		 |$M40402|
  00000	e59000a0	 ldr         r0, [r0, #0xA0]
  00004	e12fff1e	 bx          lr
  00008		 |$M40403|

			 ENDP  ; |?OmapAssocSurface@OMAPSurface@@QAAPAV1@XZ|, OMAPSurface::OmapAssocSurface

	EXPORT	|??0OMAPDisplayController@@QAA@XZ|	; OMAPDisplayController::OMAPDisplayController
	EXPORT	|??_7OMAPDisplayController@@6B@| [ DATA ] ; OMAPDisplayController::`vftable'
	IMPORT	|SOCGetDSSInfo|
	IMPORT	|LcdPdd_DVI_Enabled|
	IMPORT	|?g_dwColorSpaceCoeff_BT601_Limited@@3PAKA| ; g_dwColorSpaceCoeff_BT601_Limited
	IMPORT	|??_EOMAPDisplayController@@UAAPAXI@Z|, WEAK |??_GOMAPDisplayController@@UAAPAXI@Z| ; OMAPDisplayController::`vector deleting destructor', OMAPDisplayController::`scalar deleting destructor'
; File c:\wince600\platform\common\src\soc\common_ti_v1\common_ti\dss\dssai\dssai.cpp

  00000			 AREA	 |.pdata|, PDATA
|$T40415| DCD	|$LN7@OMAPDispla|
	DCD	0x40002b01

  00000			 AREA	 |.rdata|, DATA, READONLY
|??_7OMAPDisplayController@@6B@| DCD |??_EOMAPDisplayController@@UAAPAXI@Z| ; OMAPDisplayController::`vftable'
; Function compile flags: /Ogspy

  00000			 AREA	 |.text|, CODE, ARM

  00000		 |??0OMAPDisplayController@@QAA@XZ| PROC ; OMAPDisplayController::OMAPDisplayController

; 112  : {

  00000		 |$LN7@OMAPDispla|
  00000	e92d4030	 stmdb       sp!, {r4, r5, lr}
  00004		 |$M40412|
  00004	e1a04000	 mov         r4, r0
  00008	e59f3098	 ldr         r3, [pc, #0x98]

; 113  :     m_pDSSRegs = NULL;
; 114  :     m_pDispRegs = NULL;
; 115  :     m_pVencRegs = NULL;
; 116  :     
; 117  :     m_dwPowerLevel = D4;

  0000c	e3a02004	 mov         r2, #4
  00010	e3a05000	 mov         r5, #0
  00014	e8840028	 stmia       r4, {r3, r5}
  00018	e5845008	 str         r5, [r4, #8]
  0001c	e584500c	 str         r5, [r4, #0xC]
  00020	e5842488	 str         r2, [r4, #0x488]

; 118  :     
; 119  :     m_bTVEnable = FALSE;

  00024	e58454b4	 str         r5, [r4, #0x4B4]

; 120  :     m_bHDMIEnable = FALSE;

  00028	e58454c8	 str         r5, [r4, #0x4C8]

; 121  : 
; 122  :     if (LcdPdd_DVI_Enabled())

  0002c	eb000000	 bl          LcdPdd_DVI_Enabled

; 123  :         m_bDVIEnable = TRUE;
; 124  :     else
; 125  :         m_bDVIEnable = FALSE;
; 126  : 
; 127  :     m_bGammaEnable = TRUE;
; 128  :    	m_dwEnableWaitForVerticalBlank = FALSE;
; 129  :     m_bDssIspRszEnabled = FALSE;
; 130  :     m_lastVsyncIRQStatus = 0;
; 131  :     
; 132  :     m_dwContrastLevel = DEFAULT_CONTRAST_LEVEL;
; 133  :     m_pGammaBufVirt = NULL;
; 134  :     
; 135  :     m_bDssIntThreadExit = FALSE;
; 136  :     m_hDssIntEvent = NULL;
; 137  :     m_hDssIntThread = NULL;
; 138  :     m_dwDssSysIntr = 0;
; 139  : 
; 140  :     m_dwVsyncPeriod = 0;
; 141  :     m_hVsyncEvent = NULL;
; 142  :     m_hVsyncEventSGX = NULL;
; 143  : 
; 144  :     m_hScanLineEvent = NULL;
; 145  :     
; 146  :     m_pColorSpaceCoeffs = g_dwColorSpaceCoeff_BT601_Limited;

  00030	e59f306c	 ldr         r3, [pc, #0x6C]
  00034	e3500000	 cmp         r0, #0
  00038	e3a0e001	 mov         lr, #1

; 147  :     
; 148  :     m_bLPREnable = FALSE;
; 149  : 
; 150  :     m_hSmartReflexPolicyAdapter = NULL;
; 151  : 
; 152  :     SOCGetDSSInfo(&m_dssinfo);

  0003c	e2842c05	 add         r2, r4, #5, 24
  00040	e3a01003	 mov         r1, #3
  00044	1584e4cc	 strne       lr, [r4, #0x4CC]
  00048	e282001c	 add         r0, r2, #0x1C
  0004c	058454cc	 streq       r5, [r4, #0x4CC]
  00050	e58434a0	 str         r3, [r4, #0x4A0]
  00054	e584e4dc	 str         lr, [r4, #0x4DC]
  00058	e5845500	 str         r5, [r4, #0x500]
  0005c	e5845514	 str         r5, [r4, #0x514]
  00060	e5845538	 str         r5, [r4, #0x538]
  00064	e284ce4d	 add         r12, r4, #0x4D, 28
  00068	e88c0022	 stmia       r12, {r1, r5}
  0006c	e58454f0	 str         r5, [r4, #0x4F0]
  00070	e58454e4	 str         r5, [r4, #0x4E4]
  00074	e58454e8	 str         r5, [r4, #0x4E8]
  00078	e58454ec	 str         r5, [r4, #0x4EC]
  0007c	e58454fc	 str         r5, [r4, #0x4FC]
  00080	e58454f4	 str         r5, [r4, #0x4F4]
  00084	e58454f8	 str         r5, [r4, #0x4F8]
  00088	e5845504	 str         r5, [r4, #0x504]
  0008c	e5845510	 str         r5, [r4, #0x510]
  00090	e5845518	 str         r5, [r4, #0x518]
  00094	eb000000	 bl          SOCGetDSSInfo

; 153  : }

  00098	e1a00004	 mov         r0, r4
  0009c	e8bd4030	 ldmia       sp!, {r4, r5, lr}
  000a0	e12fff1e	 bx          lr
  000a4		 |$LN8@OMAPDispla|
  000a4		 |$LN9@OMAPDispla|
  000a4	00000000	 DCD         |?g_dwColorSpaceCoeff_BT601_Limited@@3PAKA|
  000a8		 |$LN10@OMAPDispla|
  000a8	00000000	 DCD         |??_7OMAPDisplayController@@6B@|
  000ac		 |$M40413|

			 ENDP  ; |??0OMAPDisplayController@@QAA@XZ|, OMAPDisplayController::OMAPDisplayController

	EXPORT	|?UninitInterrupts@OMAPDisplayController@@QAAXXZ| ; OMAPDisplayController::UninitInterrupts
	IMPORT	|CloseHandle|
	IMPORT	|WaitForSingleObject|
	IMPORT	|KernelIoControl|
	IMPORT	|InterruptDisable|
; File c:\wince600\public\common\sdk\inc\kfuncs.h

  00000			 AREA	 |.pdata|, PDATA
|$T40430| DCD	|$LN12@UninitInte|
	DCD	0x40003502
; Function compile flags: /Ogspy
; File c:\wince600\platform\common\src\soc\common_ti_v1\common_ti\dss\dssai\dssai.cpp

  00000			 AREA	 |.text|, CODE, ARM

  00000		 |?UninitInterrupts@OMAPDisplayController@@QAAXXZ| PROC ; OMAPDisplayController::UninitInterrupts

; 490  : {

  00000		 |$LN12@UninitInte|
  00000	e92d4030	 stmdb       sp!, {r4, r5, lr}
  00004	e24dd008	 sub         sp, sp, #8
  00008		 |$M40427|
  00008	e1a04000	 mov         r4, r0

; 491  :     // unregister system interrupt
; 492  :     if (m_dwDssSysIntr != 0)

  0000c	e59434ec	 ldr         r3, [r4, #0x4EC]
  00010	e3a05000	 mov         r5, #0
  00014	e3530000	 cmp         r3, #0
  00018	0a00000a	 beq         |$LN5@UninitInte|

; 493  :     {
; 494  :         InterruptDisable(m_dwDssSysIntr);

  0001c	e1a00003	 mov         r0, r3
  00020	eb000000	 bl          InterruptDisable

; 495  :         KernelIoControl(
; 496  :             IOCTL_HAL_RELEASE_SYSINTR, &m_dwDssSysIntr,
; 497  :             sizeof(m_dwDssSysIntr), NULL, 0, NULL
; 498  :             );

  00024	e59f00a4	 ldr         r0, [pc, #0xA4]
  00028	e2843b01	 add         r3, r4, #1, 22
  0002c	e28310ec	 add         r1, r3, #0xEC
  00030	e3a03000	 mov         r3, #0
  00034	e3a02004	 mov         r2, #4
  00038	e58d5004	 str         r5, [sp, #4]
  0003c	e58d5000	 str         r5, [sp]
  00040	eb000000	 bl          KernelIoControl

; 499  : 
; 500  :         // reinit
; 501  :         m_dwDssSysIntr = 0;

  00044	e58454ec	 str         r5, [r4, #0x4EC]
  00048		 |$LN5@UninitInte|

; 502  :     }
; 503  : 
; 504  :     // stop thread
; 505  :     if (m_hDssIntEvent != NULL)

  00048	e59434e4	 ldr         r3, [r4, #0x4E4]
  0004c	e1b00003	 movs        r0, r3
  00050	0a00000f	 beq         |$LN4@UninitInte|

; 506  :     {
; 507  :         if (m_hDssIntThread != NULL)

  00054	e59434e8	 ldr         r3, [r4, #0x4E8]
  00058	e3530000	 cmp         r3, #0
  0005c	0a000009	 beq         |$LN3@UninitInte|

; 508  :         {
; 509  :             // Signal stop to thread
; 510  :             m_bDssIntThreadExit = TRUE;

  00060	e3a03001	 mov         r3, #1

; 511  : 
; 512  :             // Set event to wake it
; 513  :             SetEvent(m_hDssIntEvent);

  00064	e3a01003	 mov         r1, #3
  00068	e58434f0	 str         r3, [r4, #0x4F0]
  0006c	eb000000	 bl          EventModify

; 514  : 
; 515  :             // Wait until thread exits
; 516  :             WaitForSingleObject(m_hDssIntThread, INFINITE);

  00070	e59404e8	 ldr         r0, [r4, #0x4E8]
  00074	e3e01000	 mvn         r1, #0
  00078	eb000000	 bl          WaitForSingleObject

; 517  : 
; 518  :             // Close handle
; 519  :             CloseHandle(m_hDssIntThread);

  0007c	e59404e8	 ldr         r0, [r4, #0x4E8]
  00080	eb000000	 bl          CloseHandle

; 520  : 
; 521  :             // reinit
; 522  :             m_hDssIntThread = NULL;

  00084	e58454e8	 str         r5, [r4, #0x4E8]
  00088		 |$LN3@UninitInte|

; 523  :         }
; 524  : 
; 525  :         // close event handle
; 526  :         CloseHandle(m_hDssIntEvent);

  00088	e59404e4	 ldr         r0, [r4, #0x4E4]
  0008c	eb000000	 bl          CloseHandle

; 527  :         m_hDssIntEvent = NULL;

  00090	e58454e4	 str         r5, [r4, #0x4E4]
  00094		 |$LN4@UninitInte|

; 528  :     }
; 529  : 
; 530  :     if(m_hVsyncEvent != NULL)

  00094	e59434f4	 ldr         r3, [r4, #0x4F4]
  00098	e3530000	 cmp         r3, #0
  0009c	0a000002	 beq         |$LN2@UninitInte|

; 531  :     {
; 532  :         CloseHandle(m_hVsyncEvent);

  000a0	e1a00003	 mov         r0, r3
  000a4	eb000000	 bl          CloseHandle

; 533  :         m_hVsyncEvent = NULL;

  000a8	e58454f4	 str         r5, [r4, #0x4F4]
  000ac		 |$LN2@UninitInte|

; 534  :     }
; 535  : 
; 536  :     if(m_hScanLineEvent != NULL)

  000ac	e5943504	 ldr         r3, [r4, #0x504]
  000b0	e3530000	 cmp         r3, #0
  000b4	0a000002	 beq         |$LN1@UninitInte|

; 537  :     {
; 538  :         CloseHandle(m_hScanLineEvent);

  000b8	e1a00003	 mov         r0, r3
  000bc	eb000000	 bl          CloseHandle

; 539  :         m_hScanLineEvent = NULL;

  000c0	e5845504	 str         r5, [r4, #0x504]
  000c4		 |$LN1@UninitInte|

; 540  :     }
; 541  : 
; 542  : }

  000c4	e28dd008	 add         sp, sp, #8
  000c8	e8bd4030	 ldmia       sp!, {r4, r5, lr}
  000cc	e12fff1e	 bx          lr
  000d0		 |$LN13@UninitInte|
  000d0		 |$LN14@UninitInte|
  000d0	010100d8	 DCD         0x10100d8
  000d4		 |$M40428|

			 ENDP  ; |?UninitInterrupts@OMAPDisplayController@@QAAXXZ|, OMAPDisplayController::UninitInterrupts

	EXPORT	|?SetSurfaceMgr@OMAPDisplayController@@QAAHPAVOMAPSurfaceManager@@@Z| ; OMAPDisplayController::SetSurfaceMgr

  00000			 AREA	 |.pdata|, PDATA
|$T40443| DCD	|$LN5@SetSurface|
	DCD	0x40000300
; Function compile flags: /Ogspy

  00000			 AREA	 |.text|, CODE, ARM

  00000		 |?SetSurfaceMgr@OMAPDisplayController@@QAAHPAVOMAPSurfaceManager@@@Z| PROC ; OMAPDisplayController::SetSurfaceMgr

; 765  : {

  00000		 |$LN5@SetSurface|
  00000		 |$M40440|

; 766  :     //  Reference the given surface mamager
; 767  :     m_pSurfaceMgr = pSurfMgr;

  00000	e58014e0	 str         r1, [r0, #0x4E0]

; 768  :     
; 769  :     //  Return result
; 770  :     return TRUE;

  00004	e3a00001	 mov         r0, #1

; 771  : }

  00008	e12fff1e	 bx          lr
  0000c		 |$M40441|

			 ENDP  ; |?SetSurfaceMgr@OMAPDisplayController@@QAAHPAVOMAPSurfaceManager@@@Z|, OMAPDisplayController::SetSurfaceMgr

	EXPORT	|?GetFIRCoef@@YAXPAXKKK@Z|		; GetFIRCoef
	IMPORT	|?g_coef_M8@@3PAY07EA|			; g_coef_M8
	IMPORT	|?g_coef_M9@@3PAY07EA|			; g_coef_M9
	IMPORT	|?g_coef_M10@@3PAY07EA|			; g_coef_M10
	IMPORT	|?g_coef_M11@@3PAY07EA|			; g_coef_M11
	IMPORT	|?g_coef_M12@@3PAY07EA|			; g_coef_M12
	IMPORT	|?g_coef_M13@@3PAY07EA|			; g_coef_M13
	IMPORT	|?g_coef_M14@@3PAY07EA|			; g_coef_M14
	IMPORT	|?g_coef_M16@@3PAY07EA|			; g_coef_M16
	IMPORT	|?g_coef_M19@@3PAY07EA|			; g_coef_M19
	IMPORT	|?g_coef_M22@@3PAY07EA|			; g_coef_M22
	IMPORT	|?g_coef_M26@@3PAY07EA|			; g_coef_M26
	IMPORT	|?g_coef_M32@@3PAY07EA|			; g_coef_M32
	IMPORT	|?g_coef3_M8@@3PAY07EA|			; g_coef3_M8
	IMPORT	|?g_coef3_M16@@3PAY07EA|		; g_coef3_M16
	IMPORT	|memcpy|

  00000			 AREA	 |.pdata|, PDATA
|$T40458| DCD	|$LN38@GetFIRCoef|
	DCD	0x40005001
; Function compile flags: /Ogspy

  00000			 AREA	 |.text|, CODE, ARM

  00000		 |?GetFIRCoef@@YAXPAXKKK@Z| PROC	; GetFIRCoef

; 1034 : {

  00000		 |$LN38@GetFIRCoef|
  00000	e52de004	 str         lr, [sp, #-4]!
  00004		 |$M40455|

; 1035 :     if (dwTaps == 3)

  00004	e3510003	 cmp         r1, #3
  00008	1a000008	 bne         |$LN30@GetFIRCoef|

; 1036 :     {
; 1037 :         if (dwPhaseInc > (128*14))  {memcpy(pCoeffs, g_coef3_M16, sizeof(g_coef3_M16));}

  0000c	e3520c07	 cmp         r2, #7, 24
  00010	859f1124	 ldrhi       r1, [pc, #0x124]
  00014	8a000037	 bhi         |$LN34@GetFIRCoef|

; 1038 :         else if (dwFlickerFilter)   {memcpy(pCoeffs, g_coef3_M16, sizeof(g_coef3_M16));}

  00018	e3530000	 cmp         r3, #0
  0001c	159f1118	 ldrne       r1, [pc, #0x118]
  00020	e3a02028	 mov         r2, #0x28
  00024	1a000034	 bne         |$LN35@GetFIRCoef|

; 1039 :         else                        {memcpy(pCoeffs, g_coef3_M8, sizeof(g_coef3_M8));  }

  00028	e59f1108	 ldr         r1, [pc, #0x108]

; 1040 :     }
; 1041 :     else //dwTaps == 5

  0002c	ea000032	 b           |$LN35@GetFIRCoef|
  00030		 |$LN30@GetFIRCoef|

; 1042 :     {
; 1043 :         if(dwPhaseInc > (128*26))                               {memcpy(pCoeffs, g_coef_M32, sizeof(g_coef_M32));}

  00030	e3520c0d	 cmp         r2, #0xD, 24
  00034	859f10f8	 ldrhi       r1, [pc, #0xF8]
  00038	8a00002e	 bhi         |$LN34@GetFIRCoef|

; 1044 :         else if (dwPhaseInc > (128*22))                         {memcpy(pCoeffs, g_coef_M26, sizeof(g_coef_M26));}

  0003c	e3520c0b	 cmp         r2, #0xB, 24
  00040	859f10e8	 ldrhi       r1, [pc, #0xE8]
  00044	8a00002b	 bhi         |$LN34@GetFIRCoef|

; 1045 :         else if (dwPhaseInc > (128*19))                         {memcpy(pCoeffs, g_coef_M22, sizeof(g_coef_M22));}

  00048	e3520d26	 cmp         r2, #0x26, 26
  0004c	859f10d8	 ldrhi       r1, [pc, #0xD8]
  00050	8a000028	 bhi         |$LN34@GetFIRCoef|

; 1046 :         else if (dwPhaseInc > (128*16))                         {memcpy(pCoeffs, g_coef_M19, sizeof(g_coef_M19));}

  00054	e3520b02	 cmp         r2, #2, 22
  00058	859f10c8	 ldrhi       r1, [pc, #0xC8]
  0005c	8a000025	 bhi         |$LN34@GetFIRCoef|

; 1047 :         else if (dwPhaseInc > (128*14))                         {memcpy(pCoeffs, g_coef_M16, sizeof(g_coef_M16));}

  00060	e3520c07	 cmp         r2, #7, 24
  00064	9a000001	 bls         |$LN16@GetFIRCoef|
  00068		 |$LN33@GetFIRCoef|
  00068	e59f10b4	 ldr         r1, [pc, #0xB4]
  0006c	ea000021	 b           |$LN34@GetFIRCoef|
  00070		 |$LN16@GetFIRCoef|

; 1048 :         else if ((dwPhaseInc > (128*13)) && (!dwFlickerFilter)) {memcpy(pCoeffs, g_coef_M14, sizeof(g_coef_M14));}

  00070	e3520d1a	 cmp         r2, #0x1A, 26
  00074	9a000002	 bls         |$LN14@GetFIRCoef|
  00078	e3530000	 cmp         r3, #0
  0007c	059f109c	 ldreq       r1, [pc, #0x9C]
  00080	0a00001c	 beq         |$LN34@GetFIRCoef|
  00084		 |$LN14@GetFIRCoef|

; 1049 :         else if ((dwPhaseInc > (128*12)) && (!dwFlickerFilter)) {memcpy(pCoeffs, g_coef_M13, sizeof(g_coef_M13));}

  00084	e3520c06	 cmp         r2, #6, 24
  00088	9a000002	 bls         |$LN12@GetFIRCoef|
  0008c	e3530000	 cmp         r3, #0
  00090	059f1084	 ldreq       r1, [pc, #0x84]
  00094	0a000017	 beq         |$LN34@GetFIRCoef|
  00098		 |$LN12@GetFIRCoef|

; 1050 :         else if ((dwPhaseInc > (128*11)) && (!dwFlickerFilter)) {memcpy(pCoeffs, g_coef_M12, sizeof(g_coef_M12));}

  00098	e3520d16	 cmp         r2, #0x16, 26
  0009c	9a000002	 bls         |$LN10@GetFIRCoef|
  000a0	e3530000	 cmp         r3, #0
  000a4	059f106c	 ldreq       r1, [pc, #0x6C]
  000a8	0a000012	 beq         |$LN34@GetFIRCoef|
  000ac		 |$LN10@GetFIRCoef|

; 1051 :         else if ((dwPhaseInc > (128*10)) && (!dwFlickerFilter)) {memcpy(pCoeffs, g_coef_M11, sizeof(g_coef_M11));}

  000ac	e3520c05	 cmp         r2, #5, 24
  000b0	9a000002	 bls         |$LN8@GetFIRCoef|
  000b4	e3530000	 cmp         r3, #0
  000b8	059f1054	 ldreq       r1, [pc, #0x54]
  000bc	0a00000d	 beq         |$LN34@GetFIRCoef|
  000c0		 |$LN8@GetFIRCoef|

; 1052 :         else if ((dwPhaseInc > (128*9))  && (!dwFlickerFilter)) {memcpy(pCoeffs, g_coef_M10, sizeof(g_coef_M10));}

  000c0	e3520d12	 cmp         r2, #0x12, 26
  000c4	9a000002	 bls         |$LN6@GetFIRCoef|
  000c8	e3530000	 cmp         r3, #0
  000cc	059f103c	 ldreq       r1, [pc, #0x3C]
  000d0	0a000008	 beq         |$LN34@GetFIRCoef|
  000d4		 |$LN6@GetFIRCoef|

; 1053 :         else if ((dwPhaseInc > (128*8))  && (!dwFlickerFilter)) {memcpy(pCoeffs, g_coef_M9,  sizeof(g_coef_M9)); }

  000d4	e3520b01	 cmp         r2, #1, 22
  000d8	9a000003	 bls         |$LN4@GetFIRCoef|
  000dc	e3530000	 cmp         r3, #0
  000e0	1affffe0	 bne         |$LN33@GetFIRCoef|
  000e4	e59f1020	 ldr         r1, [pc, #0x20]
  000e8	ea000002	 b           |$LN34@GetFIRCoef|
  000ec		 |$LN4@GetFIRCoef|

; 1054 :         else if (dwFlickerFilter)                               {memcpy(pCoeffs, g_coef_M16, sizeof(g_coef_M16));}

  000ec	e3530000	 cmp         r3, #0
  000f0	1affffdc	 bne         |$LN33@GetFIRCoef|

; 1055 :         else                                                    {memcpy(pCoeffs, g_coef_M8,  sizeof(g_coef_M8)); }

  000f4	e59f100c	 ldr         r1, [pc, #0xC]
  000f8		 |$LN34@GetFIRCoef|
  000f8	e3a02028	 mov         r2, #0x28
  000fc		 |$LN35@GetFIRCoef|
  000fc	eb000000	 bl          memcpy

; 1056 :   }
; 1057 : }

  00100	e49de004	 ldr         lr, [sp], #4
  00104	e12fff1e	 bx          lr
  00108		 |$LN39@GetFIRCoef|
  00108		 |$LN40@GetFIRCoef|
  00108	00000000	 DCD         |?g_coef_M8@@3PAY07EA|
  0010c		 |$LN41@GetFIRCoef|
  0010c	00000000	 DCD         |?g_coef_M9@@3PAY07EA|
  00110		 |$LN42@GetFIRCoef|
  00110	00000000	 DCD         |?g_coef_M10@@3PAY07EA|
  00114		 |$LN43@GetFIRCoef|
  00114	00000000	 DCD         |?g_coef_M11@@3PAY07EA|
  00118		 |$LN44@GetFIRCoef|
  00118	00000000	 DCD         |?g_coef_M12@@3PAY07EA|
  0011c		 |$LN45@GetFIRCoef|
  0011c	00000000	 DCD         |?g_coef_M13@@3PAY07EA|
  00120		 |$LN46@GetFIRCoef|
  00120	00000000	 DCD         |?g_coef_M14@@3PAY07EA|
  00124		 |$LN47@GetFIRCoef|
  00124	00000000	 DCD         |?g_coef_M16@@3PAY07EA|
  00128		 |$LN48@GetFIRCoef|
  00128	00000000	 DCD         |?g_coef_M19@@3PAY07EA|
  0012c		 |$LN49@GetFIRCoef|
  0012c	00000000	 DCD         |?g_coef_M22@@3PAY07EA|
  00130		 |$LN50@GetFIRCoef|
  00130	00000000	 DCD         |?g_coef_M26@@3PAY07EA|
  00134		 |$LN51@GetFIRCoef|
  00134	00000000	 DCD         |?g_coef_M32@@3PAY07EA|
  00138		 |$LN52@GetFIRCoef|
  00138	00000000	 DCD         |?g_coef3_M8@@3PAY07EA|
  0013c		 |$LN53@GetFIRCoef|
  0013c	00000000	 DCD         |?g_coef3_M16@@3PAY07EA|
  00140		 |$M40456|

			 ENDP  ; |?GetFIRCoef@@YAXPAXKKK@Z|, GetFIRCoef

	EXPORT	|?NeedISPResizer@@YAHKKK@Z|		; NeedISPResizer
	IMPORT	|__utod|
	IMPORT	|__muld|
	IMPORT	|ceil|
	IMPORT	|__dtou|

  00000			 AREA	 |.pdata|, PDATA
|$T40495| DCD	|$LN14@NeedISPRes|
	DCD	0x40002b01
; Function compile flags: /Ogspy

  00000			 AREA	 |.text|, CODE, ARM

  00000		 |?NeedISPResizer@@YAHKKK@Z| PROC	; NeedISPResizer

; 1061 : {

  00000		 |$LN14@NeedISPRes|
  00000	e92d40f0	 stmdb       sp!, {r4 - r7, lr}
  00004		 |$M40492|
  00004	e1a06002	 mov         r6, r2
  00008	e1a04001	 mov         r4, r1

; 1062 :     DWORD totalScaleRequired;
; 1063 : 
; 1064 :     /* Not using ISP resizer for upsampling */    
; 1065 :     if ((dwHorzScale<1024) || (dwVertScale<1024))

  0000c	e3500b01	 cmp         r0, #1, 22
  00010	3a000022	 bcc         |$LN4@NeedISPRes|
  00014	e3540b01	 cmp         r4, #1, 22
  00018	3a000020	 bcc         |$LN4@NeedISPRes|

; 1067 :     /* no scalar needed */
; 1068 :     if ((dwHorzScale==1024) && (dwVertScale==1024))

  0001c	e3500b01	 cmp         r0, #1, 22
  00020	1a000001	 bne         |$LN3@NeedISPRes|
  00024	e3540b01	 cmp         r4, #1, 22

; 1069 :         return FALSE;

  00028	0a00001c	 beq         |$LN4@NeedISPRes|
  0002c		 |$LN3@NeedISPRes|

; 1070 : 
; 1071 :     /* all other cases involve downsampling */
; 1072 :     dwHorzScale=(DWORD)ceil((double)dwHorzScale/1024);

  0002c	eb000000	 bl          __utod
  00030	e3a075fd	 mov         r7, #0xFD, 10
  00034	e3873601	 orr         r3, r7, #1, 12
  00038	e3a02000	 mov         r2, #0
  0003c	eb000000	 bl          __muld
  00040	eb000000	 bl          ceil
  00044	eb000000	 bl          __dtou
  00048	e1a05000	 mov         r5, r0

; 1073 :     dwVertScale=(DWORD)ceil((double)dwVertScale/1024);

  0004c	e1a00004	 mov         r0, r4
  00050	eb000000	 bl          __utod
  00054	e3a02000	 mov         r2, #0
  00058	e3873601	 orr         r3, r7, #1, 12
  0005c	eb000000	 bl          __muld
  00060	eb000000	 bl          ceil
  00064	eb000000	 bl          __dtou

; 1074 : 
; 1075 :     totalScaleRequired=((dwHorzScale==1)?0:dwHorzScale)+
; 1076 :                         ((dwVertScale==1)?0:dwVertScale);

  00068	e3550001	 cmp         r5, #1
  0006c	03a03000	 moveq       r3, #0
  00070	11a03005	 movne       r3, r5
  00074	e3500001	 cmp         r0, #1
  00078	03a02000	 moveq       r2, #0
  0007c	11a02000	 movne       r2, r0
  00080	e0823003	 add         r3, r2, r3

; 1077 :                         
; 1078 :     if ((totalScaleRequired>PCD) && (dwHorzScale<=4) && (dwVertScale<=4))

  00084	e1530006	 cmp         r3, r6
  00088	9a000004	 bls         |$LN4@NeedISPRes|
  0008c	e3550004	 cmp         r5, #4
  00090	93500004	 cmpls       r0, #4

; 1079 :     {
; 1080 :         return TRUE;

  00094	93a00001	 movls       r0, #1

; 1081 :     }
; 1082 :     else
; 1083 :     {
; 1084 :         return FALSE;
; 1085 :     }
; 1086 :         
; 1087 : }

  00098	98bd40f0	 ldmlsia     sp!, {r4 - r7, lr}
  0009c	912fff1e	 bxls        lr
  000a0		 |$LN4@NeedISPRes|

; 1066 :         return FALSE;

  000a0	e3a00000	 mov         r0, #0

; 1081 :     }
; 1082 :     else
; 1083 :     {
; 1084 :         return FALSE;
; 1085 :     }
; 1086 :         
; 1087 : }

  000a4	e8bd40f0	 ldmia       sp!, {r4 - r7, lr}
  000a8	e12fff1e	 bx          lr
  000ac		 |$M40493|

			 ENDP  ; |?NeedISPResizer@@YAHKKK@Z|, NeedISPResizer

	EXPORT	|?SetContrastLevel@OMAPDisplayController@@QAAHK@Z| ; OMAPDisplayController::SetContrastLevel
	IMPORT	|?g_dwGammaTable@@3PAY0BAA@KA|		; g_dwGammaTable

  00000			 AREA	 |.pdata|, PDATA
|$T40508| DCD	|$LN7@SetContras|
	DCD	0x40001001
; Function compile flags: /Ogspy

  00000			 AREA	 |.text|, CODE, ARM

  00000		 |?SetContrastLevel@OMAPDisplayController@@QAAHK@Z| PROC ; OMAPDisplayController::SetContrastLevel

; 3384 : {

  00000		 |$LN7@SetContras|
  00000	e92d4010	 stmdb       sp!, {r4, lr}
  00004		 |$M40505|
  00004	e1a0e001	 mov         lr, r1
  00008	e1a04000	 mov         r4, r0

; 3385 :     //  Set contrast level by copying in new gamma correction curve
; 3386 :     m_dwContrastLevel = (dwContrastLevel < NUM_CONTRAST_LEVELS) ? dwContrastLevel : NUM_CONTRAST_LEVELS - 1;
; 3387 : 
; 3388 :     //  Copy the selected table to the gamma physical memory location
; 3389 :     memcpy(m_pGammaBufVirt, &(g_dwGammaTable[(NUM_CONTRAST_LEVELS - 1) - m_dwContrastLevel][0]), NUM_GAMMA_VALS*sizeof(DWORD));

  0000c	e59f3028	 ldr         r3, [pc, #0x28]
  00010	e35e0007	 cmp         lr, #7
  00014	e59404d4	 ldr         r0, [r4, #0x4D4]
  00018	e2833b06	 add         r3, r3, #6, 22
  0001c	23a0e006	 movcs       lr, #6
  00020	e043150e	 sub         r1, r3, lr, lsl #10
  00024	e3a02b01	 mov         r2, #1, 22
  00028	e584e4d0	 str         lr, [r4, #0x4D0]
  0002c	eb000000	 bl          memcpy

; 3390 :     return TRUE;

  00030	e3a00001	 mov         r0, #1

; 3391 : }

  00034	e8bd4010	 ldmia       sp!, {r4, lr}
  00038	e12fff1e	 bx          lr
  0003c		 |$LN8@SetContras|
  0003c		 |$LN9@SetContras|
  0003c	00000000	 DCD         |?g_dwGammaTable@@3PAY0BAA@KA|
  00040		 |$M40506|

			 ENDP  ; |?SetContrastLevel@OMAPDisplayController@@QAAHK@Z|, OMAPDisplayController::SetContrastLevel

	EXPORT	|?SetTvOutFilterLevel@OMAPDisplayController@@QAAHK@Z| ; OMAPDisplayController::SetTvOutFilterLevel

  00000			 AREA	 |.pdata|, PDATA
|$T40521| DCD	|$LN5@SetTvOutFi|
	DCD	0x40000300
; Function compile flags: /Ogspy

  00000			 AREA	 |.text|, CODE, ARM

  00000		 |?SetTvOutFilterLevel@OMAPDisplayController@@QAAHK@Z| PROC ; OMAPDisplayController::SetTvOutFilterLevel

; 4029 : {

  00000		 |$LN5@SetTvOutFi|
  00000		 |$M40518|

; 4030 :     //  Set flicker filter level
; 4031 :     m_dwTVFilterLevel = dwTVFilterLevel;

  00000	e58014b8	 str         r1, [r0, #0x4B8]

; 4032 :     return TRUE;

  00004	e3a00001	 mov         r0, #1

; 4033 : }

  00008	e12fff1e	 bx          lr
  0000c		 |$M40519|

			 ENDP  ; |?SetTvOutFilterLevel@OMAPDisplayController@@QAAHK@Z|, OMAPDisplayController::SetTvOutFilterLevel

	EXPORT	|?DVISelect@OMAPDisplayController@@QAAHH@Z| ; OMAPDisplayController::DVISelect
	IMPORT	|LcdPdd_DVI_Select|

  00000			 AREA	 |.pdata|, PDATA
|$T40531| DCD	|$LN5@DVISelect|
	DCD	0x40000601
; Function compile flags: /Ogspy

  00000			 AREA	 |.text|, CODE, ARM

  00000		 |?DVISelect@OMAPDisplayController@@QAAHH@Z| PROC ; OMAPDisplayController::DVISelect

; 4162 : {

  00000		 |$LN5@DVISelect|
  00000	e52de004	 str         lr, [sp, #-4]!
  00004		 |$M40528|

; 4163 :     LcdPdd_DVI_Select(bSelectDVI);

  00004	e1a00001	 mov         r0, r1
  00008	eb000000	 bl          LcdPdd_DVI_Select

; 4164 :     return TRUE;

  0000c	e3a00001	 mov         r0, #1

; 4165 : }

  00010	e49de004	 ldr         lr, [sp], #4
  00014	e12fff1e	 bx          lr
  00018		 |$M40529|

			 ENDP  ; |?DVISelect@OMAPDisplayController@@QAAHH@Z|, OMAPDisplayController::DVISelect

	EXPORT	|?EnableDVI@OMAPDisplayController@@QAAHH@Z| ; OMAPDisplayController::EnableDVI
	IMPORT	|LcdPdd_SetPowerLevel|

  00000			 AREA	 |.pdata|, PDATA
|$T40543| DCD	|$LN8@EnableDVI|
	DCD	0x40001601
; Function compile flags: /Ogspy

  00000			 AREA	 |.text|, CODE, ARM

  00000		 |?EnableDVI@OMAPDisplayController@@QAAHH@Z| PROC ; OMAPDisplayController::EnableDVI

; 4172 : {

  00000		 |$LN8@EnableDVI|
  00000	e92d4010	 stmdb       sp!, {r4, lr}
  00004		 |$M40540|
  00004	e3510000	 cmp         r1, #0
  00008	e1a04000	 mov         r4, r0

; 4173 :     BOOL    bResult = FALSE;
; 4174 : 
; 4175 :     //  Enable/disable DVI
; 4176 :     if ( bEnable )
; 4177 :     {
; 4178 :         //  Enable DVI        
; 4179 :         LcdPdd_SetPowerLevel(D4);

  0000c	e3a00004	 mov         r0, #4
  00010	0a000006	 beq         |$LN2@EnableDVI|
  00014	eb000000	 bl          LcdPdd_SetPowerLevel

; 4180 :         LcdPdd_DVI_Select(TRUE);

  00018	e3a00001	 mov         r0, #1
  0001c	eb000000	 bl          LcdPdd_DVI_Select

; 4181 :         LcdPdd_SetPowerLevel(D0);

  00020	e3a00000	 mov         r0, #0
  00024	eb000000	 bl          LcdPdd_SetPowerLevel

; 4182 :         m_bDVIEnable = TRUE;

  00028	e3a03001	 mov         r3, #1

; 4183 :     }
; 4184 :     else

  0002c	ea000005	 b           |$LN5@EnableDVI|
  00030		 |$LN2@EnableDVI|

; 4185 :     {
; 4186 :         //  Disable DVI        
; 4187 :         LcdPdd_SetPowerLevel(D4);

  00030	eb000000	 bl          LcdPdd_SetPowerLevel

; 4188 :         LcdPdd_DVI_Select(FALSE);

  00034	e3a00000	 mov         r0, #0
  00038	eb000000	 bl          LcdPdd_DVI_Select

; 4189 :         LcdPdd_SetPowerLevel(D0);

  0003c	e3a00000	 mov         r0, #0
  00040	eb000000	 bl          LcdPdd_SetPowerLevel

; 4190 :         m_bDVIEnable = FALSE;

  00044	e3a03000	 mov         r3, #0
  00048		 |$LN5@EnableDVI|
  00048	e58434cc	 str         r3, [r4, #0x4CC]

; 4191 :     }
; 4192 : 
; 4193 :     //  Success
; 4194 :     bResult = TRUE;
; 4195 : 
; 4196 :     //  Return result
; 4197 :     return bResult;

  0004c	e3a00001	 mov         r0, #1

; 4198 : }

  00050	e8bd4010	 ldmia       sp!, {r4, lr}
  00054	e12fff1e	 bx          lr
  00058		 |$M40541|

			 ENDP  ; |?EnableDVI@OMAPDisplayController@@QAAHH@Z|, OMAPDisplayController::EnableDVI

	EXPORT	|?AccessRegs@OMAPDisplayController@@IAAHXZ| ; OMAPDisplayController::AccessRegs
	IMPORT	|EnterCriticalSection|

  00000			 AREA	 |.pdata|, PDATA
|$T40554| DCD	|$LN9@AccessRegs|
	DCD	0x40001101
; Function compile flags: /Ogspy

  00000			 AREA	 |.text|, CODE, ARM

  00000		 |?AccessRegs@OMAPDisplayController@@IAAHXZ| PROC ; OMAPDisplayController::AccessRegs

; 4347 : {

  00000		 |$LN9@AccessRegs|
  00000	e92d4030	 stmdb       sp!, {r4, r5, lr}
  00004		 |$M40551|
  00004	e1a04000	 mov         r4, r0

; 4348 :     BOOL    bResult = FALSE;
; 4349 : 
; 4350 :     //  Ensures that DSS regs can be accessed at current power level
; 4351 :     //  Locks power level at current level until ReleaseRegs called
; 4352 :     //  Returns FALSE if power level is too low to access regs
; 4353 : 
; 4354 :     //  Lock access to power level
; 4355 :     EnterCriticalSection( &m_csPowerLock );

  00008	e2843b01	 add         r3, r4, #1, 22
  0000c	e283008c	 add         r0, r3, #0x8C
  00010	e3a05000	 mov         r5, #0
  00014	eb000000	 bl          EnterCriticalSection

; 4356 :     
; 4357 :     //  Check power level
; 4358 :     switch( m_dwPowerLevel )

  00018	e5943488	 ldr         r3, [r4, #0x488]
  0001c	e3530002	 cmp         r3, #2
  00020	9a000003	 bls         |$LN2@AccessRegs|
  00024	e3530004	 cmp         r3, #4
  00028	8a000002	 bhi         |$LN3@AccessRegs|

; 4365 :             break;
; 4366 : 
; 4367 :         case D3:
; 4368 :         case D4:
; 4369 :             //  Clocks are off at this level
; 4370 :             bResult = FALSE;

  0002c	e3a05000	 mov         r5, #0

; 4371 :             break;

  00030	ea000000	 b           |$LN3@AccessRegs|
  00034		 |$LN2@AccessRegs|

; 4359 :     {
; 4360 :         case D0:
; 4361 :         case D1:
; 4362 :         case D2:
; 4363 :             //  Clocks are on at this level
; 4364 :             bResult = TRUE;

  00034	e3a05001	 mov         r5, #1
  00038		 |$LN3@AccessRegs|

; 4372 :     }
; 4373 :     
; 4374 :     //  Return result
; 4375 :     return bResult;
; 4376 : }

  00038	e1a00005	 mov         r0, r5
  0003c	e8bd4030	 ldmia       sp!, {r4, r5, lr}
  00040	e12fff1e	 bx          lr
  00044		 |$M40552|

			 ENDP  ; |?AccessRegs@OMAPDisplayController@@IAAHXZ|, OMAPDisplayController::AccessRegs

	EXPORT	|?ReleaseRegs@OMAPDisplayController@@IAAHXZ| ; OMAPDisplayController::ReleaseRegs
	IMPORT	|LeaveCriticalSection|

  00000			 AREA	 |.pdata|, PDATA
|$T40564| DCD	|$LN5@ReleaseReg|
	DCD	0x40000701
; Function compile flags: /Ogspy

  00000			 AREA	 |.text|, CODE, ARM

  00000		 |?ReleaseRegs@OMAPDisplayController@@IAAHXZ| PROC ; OMAPDisplayController::ReleaseRegs

; 4381 : {

  00000		 |$LN5@ReleaseReg|
  00000	e52de004	 str         lr, [sp, #-4]!
  00004		 |$M40561|

; 4382 :     //  Releases power lock
; 4383 :     LeaveCriticalSection( &m_csPowerLock );

  00004	e2803b01	 add         r3, r0, #1, 22
  00008	e283008c	 add         r0, r3, #0x8C
  0000c	eb000000	 bl          LeaveCriticalSection

; 4384 :     return TRUE;

  00010	e3a00001	 mov         r0, #1

; 4385 : }

  00014	e49de004	 ldr         lr, [sp], #4
  00018	e12fff1e	 bx          lr
  0001c		 |$M40562|

			 ENDP  ; |?ReleaseRegs@OMAPDisplayController@@IAAHXZ|, OMAPDisplayController::ReleaseRegs

	EXPORT	|?FlushRegs@OMAPDisplayController@@IAAHK@Z| ; OMAPDisplayController::FlushRegs
	IMPORT	|StallExecution|

  00000			 AREA	 |.pdata|, PDATA
|$T40583| DCD	|$LN15@FlushRegs|
	DCD	0x40001901
; Function compile flags: /Ogspy

  00000			 AREA	 |.text|, CODE, ARM

  00000		 |?FlushRegs@OMAPDisplayController@@IAAHK@Z| PROC ; OMAPDisplayController::FlushRegs

; 4392 : {

  00000		 |$LN15@FlushRegs|
  00000	e92d4070	 stmdb       sp!, {r4 - r6, lr}
  00004		 |$M40580|
  00004	e1a05001	 mov         r5, r1
  00008	e1a06000	 mov         r6, r0

; 4393 :     DWORD   dwTimeout = DISPLAY_TIMEOUT;
; 4394 : 
; 4395 :     //  Ensure that registers can be flushed
; 4396 :     while(((INREG32(&m_pDispRegs->DISPC_CONTROL) & dwDestGo) == dwDestGo) &&  (dwTimeout-- > 0))

  0000c	e3a0401e	 mov         r4, #0x1E
  00010	ea000004	 b           |$LN12@FlushRegs|
  00014		 |$LL3@FlushRegs|
  00014	e3540000	 cmp         r4, #0
  00018	e2444001	 sub         r4, r4, #1
  0001c	0a000006	 beq         |$LN10@FlushRegs|

; 4397 :     {
; 4398 :         // delay
; 4399 :         StallExecution(10);

  00020	e3a0000a	 mov         r0, #0xA
  00024	eb000000	 bl          StallExecution
  00028		 |$LN12@FlushRegs|
  00028	e5963008	 ldr         r3, [r6, #8]
  0002c	e5933040	 ldr         r3, [r3, #0x40]
  00030	e0033005	 and         r3, r3, r5
  00034	e1530005	 cmp         r3, r5
  00038	0afffff5	 beq         |$LL3@FlushRegs|
  0003c		 |$LN10@FlushRegs|

; 4400 :     }
; 4401 : 
; 4402 :     if( dwTimeout == 0 )
; 4403 :     {
; 4404 :         DEBUGMSG(ZONE_ERROR, (L"ERROR: OMAPDisplayController::FlushRegs: "
; 4405 :              L"Failed to flush regs\r\n"
; 4406 :             ));
; 4407 :     }
; 4408 : 
; 4409 :     //  Flush the shadow registers
; 4410 :     SETREG32( &m_pDispRegs->DISPC_CONTROL, dwDestGo );

  0003c	e5962008	 ldr         r2, [r6, #8]

; 4411 : 
; 4412 : 
; 4413 :     //  Return result
; 4414 :     return (dwTimeout > 0);

  00040	e3540000	 cmp         r4, #0
  00044	13a00001	 movne       r0, #1
  00048	e5923040	 ldr         r3, [r2, #0x40]
  0004c	e1833005	 orr         r3, r3, r5
  00050	e5823040	 str         r3, [r2, #0x40]

; 4415 : }

  00054	18bd4070	 ldmneia     sp!, {r4 - r6, lr}

; 4411 : 
; 4412 : 
; 4413 :     //  Return result
; 4414 :     return (dwTimeout > 0);

  00058	03a00000	 moveq       r0, #0

; 4415 : }

  0005c	08bd4070	 ldmeqia     sp!, {r4 - r6, lr}
  00060	e12fff1e	 bx          lr
  00064		 |$M40581|

			 ENDP  ; |?FlushRegs@OMAPDisplayController@@IAAHK@Z|, OMAPDisplayController::FlushRegs

	EXPORT	|?WaitForFlushDone@OMAPDisplayController@@IAAHK@Z| ; OMAPDisplayController::WaitForFlushDone
	IMPORT	|Sleep|

  00000			 AREA	 |.pdata|, PDATA
|$T40600| DCD	|$LN13@WaitForFlu|
	DCD	0x40001a01
; Function compile flags: /Ogspy

  00000			 AREA	 |.text|, CODE, ARM

  00000		 |?WaitForFlushDone@OMAPDisplayController@@IAAHK@Z| PROC ; OMAPDisplayController::WaitForFlushDone

; 4422 : {

  00000		 |$LN13@WaitForFlu|
  00000	e92d4070	 stmdb       sp!, {r4 - r6, lr}
  00004		 |$M40597|
  00004	e1a05001	 mov         r5, r1
  00008	e1a06000	 mov         r6, r0

; 4423 :     DWORD dwTimeout = DISPLAY_TIMEOUT;
; 4424 :     
; 4425 :     //  Ensure that registers can be flushed
; 4426 :     while(((INREG32(&m_pDispRegs->DISPC_CONTROL) & dwDestGo) == dwDestGo) &&  (dwTimeout-- > 0))

  0000c	e5963008	 ldr         r3, [r6, #8]
  00010	e3a0401e	 mov         r4, #0x1E
  00014	e5933040	 ldr         r3, [r3, #0x40]
  00018	e0033005	 and         r3, r3, r5
  0001c	e1530005	 cmp         r3, r5
  00020	1a00000d	 bne         |$LN10@WaitForFlu|
  00024		 |$LL3@WaitForFlu|
  00024	e3540000	 cmp         r4, #0
  00028	e2444001	 sub         r4, r4, #1
  0002c	0a000006	 beq         |$LN2@WaitForFlu|

; 4427 :     {
; 4428 :         // delay = 1ms
; 4429 :         Sleep(1);

  00030	e3a00001	 mov         r0, #1
  00034	eb000000	 bl          Sleep
  00038	e5963008	 ldr         r3, [r6, #8]
  0003c	e5933040	 ldr         r3, [r3, #0x40]
  00040	e0033005	 and         r3, r3, r5
  00044	e1530005	 cmp         r3, r5
  00048	0afffff5	 beq         |$LL3@WaitForFlu|
  0004c		 |$LN2@WaitForFlu|

; 4430 :     }
; 4431 :     
; 4432 :     if( dwTimeout == 0 )
; 4433 :     {
; 4434 :         DEBUGMSG(ZONE_ERROR, (L"ERROR: OMAPDisplayController::FlushRegs: "
; 4435 :              L"Failed to flush regs\r\n"
; 4436 :             ));
; 4437 :     }
; 4438 :     
; 4439 :     return (dwTimeout > 0);

  0004c	e3540000	 cmp         r4, #0
  00050	03a00000	 moveq       r0, #0

; 4440 :     
; 4441 : }    

  00054	08bd4070	 ldmeqia     sp!, {r4 - r6, lr}
  00058	012fff1e	 bxeq        lr
  0005c		 |$LN10@WaitForFlu|

; 4430 :     }
; 4431 :     
; 4432 :     if( dwTimeout == 0 )
; 4433 :     {
; 4434 :         DEBUGMSG(ZONE_ERROR, (L"ERROR: OMAPDisplayController::FlushRegs: "
; 4435 :              L"Failed to flush regs\r\n"
; 4436 :             ));
; 4437 :     }
; 4438 :     
; 4439 :     return (dwTimeout > 0);

  0005c	e3a00001	 mov         r0, #1

; 4440 :     
; 4441 : }    

  00060	e8bd4070	 ldmia       sp!, {r4 - r6, lr}
  00064	e12fff1e	 bx          lr
  00068		 |$M40598|

			 ENDP  ; |?WaitForFlushDone@OMAPDisplayController@@IAAHK@Z|, OMAPDisplayController::WaitForFlushDone

	EXPORT	|?RequestClock@OMAPDisplayController@@IAAHK@Z| ; OMAPDisplayController::RequestClock
	IMPORT	|EnableDeviceClocks|

  00000			 AREA	 |.pdata|, PDATA
|$T40610| DCD	|$LN5@RequestClo|
	DCD	0x40000601
; Function compile flags: /Ogspy

  00000			 AREA	 |.text|, CODE, ARM

  00000		 |?RequestClock@OMAPDisplayController@@IAAHK@Z| PROC ; OMAPDisplayController::RequestClock

; 4447 : {

  00000		 |$LN5@RequestClo|
  00000	e52de004	 str         lr, [sp, #-4]!
  00004		 |$M40607|
  00004	e1a00001	 mov         r0, r1

; 4448 :     return EnableDeviceClocks(dwClock, TRUE);

  00008	e3a01001	 mov         r1, #1
  0000c	eb000000	 bl          EnableDeviceClocks

; 4449 : }

  00010	e49de004	 ldr         lr, [sp], #4
  00014	e12fff1e	 bx          lr
  00018		 |$M40608|

			 ENDP  ; |?RequestClock@OMAPDisplayController@@IAAHK@Z|, OMAPDisplayController::RequestClock

	EXPORT	|?ReleaseClock@OMAPDisplayController@@IAAHK@Z| ; OMAPDisplayController::ReleaseClock

  00000			 AREA	 |.pdata|, PDATA
|$T40620| DCD	|$LN5@ReleaseClo|
	DCD	0x40000601
; Function compile flags: /Ogspy

  00000			 AREA	 |.text|, CODE, ARM

  00000		 |?ReleaseClock@OMAPDisplayController@@IAAHK@Z| PROC ; OMAPDisplayController::ReleaseClock

; 4456 : {

  00000		 |$LN5@ReleaseClo|
  00000	e52de004	 str         lr, [sp, #-4]!
  00004		 |$M40617|
  00004	e1a00001	 mov         r0, r1

; 4457 :     return EnableDeviceClocks(dwClock, FALSE);

  00008	e3a01000	 mov         r1, #0
  0000c	eb000000	 bl          EnableDeviceClocks

; 4458 : }

  00010	e49de004	 ldr         lr, [sp], #4
  00014	e12fff1e	 bx          lr
  00018		 |$M40618|

			 ENDP  ; |?ReleaseClock@OMAPDisplayController@@IAAHK@Z|, OMAPDisplayController::ReleaseClock

	EXPORT	|?WaitForFrameDone@OMAPDisplayController@@IAAHK@Z| ; OMAPDisplayController::WaitForFrameDone

  00000			 AREA	 |.pdata|, PDATA
|$T40636| DCD	|$LN13@WaitForFra|
	DCD	0x40001801
; Function compile flags: /Ogspy

  00000			 AREA	 |.text|, CODE, ARM

  00000		 |?WaitForFrameDone@OMAPDisplayController@@IAAHK@Z| PROC ; OMAPDisplayController::WaitForFrameDone

; 4465 : {

  00000		 |$LN13@WaitForFra|
  00000	e92d4070	 stmdb       sp!, {r4 - r6, lr}
  00004		 |$M40633|
  00004	e1a04001	 mov         r4, r1
  00008	e1a05000	 mov         r5, r0

; 4466 :     //  Wait for VYSNC status
; 4467 :     OUTREG32( &m_pDispRegs->DISPC_IRQSTATUS, DISPC_IRQSTATUS_FRAMEDONE );

  0000c	e5953008	 ldr         r3, [r5, #8]
  00010	e3a06001	 mov         r6, #1
  00014	e5836018	 str         r6, [r3, #0x18]

; 4468 :     while (((INREG32(&m_pDispRegs->DISPC_IRQSTATUS) & DISPC_IRQSTATUS_FRAMEDONE) == 0) && (dwTimeout-- > 0))

  00018	ea000004	 b           |$LN10@WaitForFra|
  0001c		 |$LL3@WaitForFra|
  0001c	e3540000	 cmp         r4, #0
  00020	e2444001	 sub         r4, r4, #1
  00024	0a000005	 beq         |$LN8@WaitForFra|

; 4469 :     {
; 4470 :         // delay
; 4471 :         Sleep(1);

  00028	e3a00001	 mov         r0, #1
  0002c	eb000000	 bl          Sleep
  00030		 |$LN10@WaitForFra|
  00030	e5953008	 ldr         r3, [r5, #8]
  00034	e5933018	 ldr         r3, [r3, #0x18]
  00038	e3130001	 tst         r3, #1
  0003c	0afffff6	 beq         |$LL3@WaitForFra|
  00040		 |$LN8@WaitForFra|

; 4472 :     }
; 4473 : 
; 4474 :     if ( dwTimeout == 0 )

  00040	e3540000	 cmp         r4, #0

; 4475 :     {
; 4476 :         DEBUGMSG(ZONE_ERROR, (L"ERROR: OMAPDisplayController::WaitForFrameDone: timeout\r\n"));
; 4477 :         return FALSE;

  00044	03a00000	 moveq       r0, #0

; 4484 : }

  00048	08bd4070	 ldmeqia     sp!, {r4 - r6, lr}

; 4478 :     }
; 4479 : 
; 4480 :     //  Clear the status
; 4481 :     OUTREG32( &m_pDispRegs->DISPC_IRQSTATUS, DISPC_IRQSTATUS_FRAMEDONE );

  0004c	15953008	 ldrne       r3, [r5, #8]

; 4482 : 
; 4483 :     return TRUE;

  00050	13a00001	 movne       r0, #1
  00054	15836018	 strne       r6, [r3, #0x18]

; 4484 : }

  00058	18bd4070	 ldmneia     sp!, {r4 - r6, lr}
  0005c	e12fff1e	 bx          lr
  00060		 |$M40634|

			 ENDP  ; |?WaitForFrameDone@OMAPDisplayController@@IAAHK@Z|, OMAPDisplayController::WaitForFrameDone

	EXPORT	|?WaitForIRQ@OMAPDisplayController@@IAAHKK@Z| ; OMAPDisplayController::WaitForIRQ

  00000			 AREA	 |.pdata|, PDATA
|$T40656| DCD	|$LN17@WaitForIRQ|
	DCD	0x40001f01
; Function compile flags: /Ogspy

  00000			 AREA	 |.text|, CODE, ARM

  00000		 |?WaitForIRQ@OMAPDisplayController@@IAAHKK@Z| PROC ; OMAPDisplayController::WaitForIRQ

; 4492 : {

  00000		 |$LN17@WaitForIRQ|
  00000	e92d4070	 stmdb       sp!, {r4 - r6, lr}
  00004		 |$M40653|
  00004	e1a04002	 mov         r4, r2
  00008	e1a06001	 mov         r6, r1
  0000c	e1a05000	 mov         r5, r0

; 4493 :     if(AccessRegs() == FALSE)

  00010	eb000000	 bl          |?AccessRegs@OMAPDisplayController@@IAAHXZ|
  00014	e3500000	 cmp         r0, #0
  00018	0a000011	 beq         |$cleanup$39554|

; 4494 :     {
; 4495 :         goto cleanup;
; 4496 :     }
; 4497 : 
; 4498 : 
; 4499 :     //  Wait for VYSNC status
; 4500 :     SETREG32( &m_pDispRegs->DISPC_IRQSTATUS, dwIRQ );

  0001c	e595e008	 ldr         lr, [r5, #8]
  00020	e59e3018	 ldr         r3, [lr, #0x18]
  00024	e1833006	 orr         r3, r3, r6
  00028	e58e3018	 str         r3, [lr, #0x18]

; 4501 :     while(((INREG32(&m_pDispRegs->DISPC_IRQSTATUS) & dwIRQ) == 0) && (dwTimeout-- > 0))

  0002c	ea000004	 b           |$LN14@WaitForIRQ|
  00030		 |$LL3@WaitForIRQ|
  00030	e3540000	 cmp         r4, #0
  00034	e2444001	 sub         r4, r4, #1
  00038	0a000005	 beq         |$LN12@WaitForIRQ|

; 4502 :     {
; 4503 :         // delay
; 4504 :         Sleep(1);

  0003c	e3a00001	 mov         r0, #1
  00040	eb000000	 bl          Sleep
  00044		 |$LN14@WaitForIRQ|
  00044	e5953008	 ldr         r3, [r5, #8]
  00048	e5933018	 ldr         r3, [r3, #0x18]
  0004c	e1130006	 tst         r3, r6
  00050	0afffff6	 beq         |$LL3@WaitForIRQ|
  00054		 |$LN12@WaitForIRQ|

; 4505 :     }
; 4506 : 
; 4507 :     if( dwTimeout == 0 )
; 4508 :     {
; 4509 :         DEBUGMSG(ZONE_ERROR, (L"ERROR: OMAPDisplayController::WaitForIRQ: "
; 4510 :              L"IRQ = 0x%X failed to happen before timeout\r\n", dwIRQ
; 4511 :             ));
; 4512 :     }
; 4513 : 
; 4514 :     //  Clear the status
; 4515 :     SETREG32( &m_pDispRegs->DISPC_IRQSTATUS, dwIRQ );

  00054	e5952008	 ldr         r2, [r5, #8]
  00058	e5923018	 ldr         r3, [r2, #0x18]
  0005c	e1833006	 orr         r3, r3, r6
  00060	e5823018	 str         r3, [r2, #0x18]
  00064		 |$cleanup$39554|

; 4516 :     
; 4517 : cleanup:
; 4518 : 
; 4519 :     ReleaseRegs();

  00064	e2853b01	 add         r3, r5, #1, 22
  00068	e283008c	 add         r0, r3, #0x8C
  0006c	eb000000	 bl          LeaveCriticalSection

; 4520 : 
; 4521 :     //  Status
; 4522 :     return TRUE;

  00070	e3a00001	 mov         r0, #1

; 4523 : }

  00074	e8bd4070	 ldmia       sp!, {r4 - r6, lr}
  00078	e12fff1e	 bx          lr
  0007c		 |$M40654|

			 ENDP  ; |?WaitForIRQ@OMAPDisplayController@@IAAHKK@Z|, OMAPDisplayController::WaitForIRQ

	EXPORT	|?PixelFormatToPixelSize@OMAPDisplayController@@SAKW4OMAP_DSS_PIXELFORMAT@@@Z| ; OMAPDisplayController::PixelFormatToPixelSize

  00000			 AREA	 |.pdata|, PDATA
|$T40667| DCD	|$LN9@PixelForma@2|
	DCD	0x40001300
; Function compile flags: /Ogspy

  00000			 AREA	 |.text|, CODE, ARM

  00000		 |?PixelFormatToPixelSize@OMAPDisplayController@@SAKW4OMAP_DSS_PIXELFORMAT@@@Z| PROC ; OMAPDisplayController::PixelFormatToPixelSize

; 4530 : {

  00000		 |$LN9@PixelForma@2|
  00000		 |$M40664|

; 4531 :     DWORD   dwResult = 1;

  00000	e3a03001	 mov         r3, #1

; 4532 :     
; 4533 :     //  Convert pixel format into bytes per pixel
; 4534 :     switch( ePixelFormat )

  00004	e3500005	 cmp         r0, #5
  00008	ba00000d	 blt         |$LN3@PixelForma@2|
  0000c	e3500006	 cmp         r0, #6
  00010	da00000a	 ble         |$LN2@PixelForma@2|
  00014	e3500008	 cmp         r0, #8
  00018	0a000005	 beq         |$LN1@PixelForma@2|
  0001c	e3500009	 cmp         r0, #9
  00020	da000007	 ble         |$LN3@PixelForma@2|
  00024	e350000b	 cmp         r0, #0xB
  00028	da000004	 ble         |$LN2@PixelForma@2|
  0002c	e350000d	 cmp         r0, #0xD
  00030	ca000003	 bgt         |$LN3@PixelForma@2|
  00034		 |$LN1@PixelForma@2|

; 4542 :             break;
; 4543 : 
; 4544 :         case OMAP_DSS_PIXELFORMAT_RGB32:
; 4545 :         case OMAP_DSS_PIXELFORMAT_ARGB32:
; 4546 :         case OMAP_DSS_PIXELFORMAT_RGBA32:
; 4547 :             //  4 bytes per pixel
; 4548 :             dwResult = 4;

  00034	e3a03004	 mov         r3, #4

; 4549 :             break;
; 4550 :     }
; 4551 : 
; 4552 :     //  Return result
; 4553 :     return dwResult;
; 4554 : }

  00038	e1a00003	 mov         r0, r3
  0003c	e12fff1e	 bx          lr
  00040		 |$LN2@PixelForma@2|

; 4535 :     {
; 4536 :         case OMAP_DSS_PIXELFORMAT_RGB16:
; 4537 :         case OMAP_DSS_PIXELFORMAT_ARGB16:
; 4538 :         case OMAP_DSS_PIXELFORMAT_YUV2:
; 4539 :         case OMAP_DSS_PIXELFORMAT_UYVY:
; 4540 :             //  2 bytes per pixel
; 4541 :             dwResult = 2;

  00040	e3a03002	 mov         r3, #2
  00044		 |$LN3@PixelForma@2|

; 4549 :             break;
; 4550 :     }
; 4551 : 
; 4552 :     //  Return result
; 4553 :     return dwResult;
; 4554 : }

  00044	e1a00003	 mov         r0, r3
  00048	e12fff1e	 bx          lr
  0004c		 |$M40665|

			 ENDP  ; |?PixelFormatToPixelSize@OMAPDisplayController@@SAKW4OMAP_DSS_PIXELFORMAT@@@Z|, OMAPDisplayController::PixelFormatToPixelSize

	EXPORT	|?EnableVSyncInterruptEx@OMAPDisplayController@@QAAHXZ| ; OMAPDisplayController::EnableVSyncInterruptEx

  00000			 AREA	 |.pdata|, PDATA
|$T40684| DCD	|$LN13@EnableVSyn|
	DCD	0x40002601
; Function compile flags: /Ogspy

  00000			 AREA	 |.text|, CODE, ARM

  00000		 |?EnableVSyncInterruptEx@OMAPDisplayController@@QAAHXZ| PROC ; OMAPDisplayController::EnableVSyncInterruptEx

; 4558 : {

  00000		 |$LN13@EnableVSyn|
  00000	e92d4030	 stmdb       sp!, {r4, r5, lr}
  00004		 |$M40681|
  00004	e1a05000	 mov         r5, r0

; 4559 :     BOOL bInterruptAlreadyEnabled = FALSE;
; 4560 :     DWORD irqEnableStatus;
; 4561 :     
; 4562 :     if (!m_dwEnableWaitForVerticalBlank)

  00008	e5953500	 ldr         r3, [r5, #0x500]
  0000c	e3a04000	 mov         r4, #0
  00010	e3530000	 cmp         r3, #0

; 4563 :         return FALSE;

  00014	03a04000	 moveq       r4, #0
  00018	0a00001b	 beq         |$LN5@EnableVSyn|

; 4564 : 
; 4565 :     if(AccessRegs() == FALSE)

  0001c	e1a00005	 mov         r0, r5
  00020	eb000000	 bl          |?AccessRegs@OMAPDisplayController@@IAAHXZ|
  00024	e3500000	 cmp         r0, #0
  00028	0a000014	 beq         |$cleanup$39585|

; 4566 :     {
; 4567 :         goto cleanup;
; 4568 :     }
; 4569 : 
; 4570 :     irqEnableStatus = INREG32(&m_pDispRegs->DISPC_IRQENABLE);

  0002c	e5951008	 ldr         r1, [r5, #8]
  00030	e591201c	 ldr         r2, [r1, #0x1C]

; 4571 :     bInterruptAlreadyEnabled = ((irqEnableStatus & DISPC_IRQENABLE_VSYNC) == DISPC_IRQENABLE_VSYNC) ||
; 4572 :                                 ((irqEnableStatus & DISPC_IRQSTATUS_EVSYNC_EVEN) == DISPC_IRQSTATUS_EVSYNC_EVEN) ||
; 4573 :                                 ((irqEnableStatus & DISPC_IRQSTATUS_EVSYNC_ODD) == DISPC_IRQSTATUS_EVSYNC_ODD);

  00034	e2023002	 and         r3, r2, #2
  00038	e3530002	 cmp         r3, #2
  0003c	0a000005	 beq         |$LN7@EnableVSyn|
  00040	e2023004	 and         r3, r2, #4
  00044	e3530004	 cmp         r3, #4
  00048	12023008	 andne       r3, r2, #8
  0004c	13530008	 cmpne       r3, #8
  00050	13a04000	 movne       r4, #0
  00054	1a000000	 bne         |$LN8@EnableVSyn|
  00058		 |$LN7@EnableVSyn|
  00058	e3a04001	 mov         r4, #1
  0005c		 |$LN8@EnableVSyn|

; 4574 :                         
; 4575 :                                 
; 4576 :     
; 4577 :     SETREG32(&m_pDispRegs->DISPC_IRQENABLE, DISPC_IRQENABLE_VSYNC);

  0005c	e591301c	 ldr         r3, [r1, #0x1C]
  00060	e3833002	 orr         r3, r3, #2
  00064	e581301c	 str         r3, [r1, #0x1C]

; 4578 :     if(m_bTVEnable == TRUE)

  00068	e59534b4	 ldr         r3, [r5, #0x4B4]
  0006c	e3530001	 cmp         r3, #1

; 4579 :     {
; 4580 :         SETREG32(&m_pDispRegs->DISPC_IRQENABLE, DISPC_IRQENABLE_EVSYNC_EVEN | DISPC_IRQENABLE_EVSYNC_ODD);

  00070	05952008	 ldreq       r2, [r5, #8]
  00074	0592301c	 ldreq       r3, [r2, #0x1C]
  00078	0383300c	 orreq       r3, r3, #0xC
  0007c	0582301c	 streq       r3, [r2, #0x1C]
  00080		 |$cleanup$39585|

; 4581 :     }
; 4582 : 
; 4583 : 
; 4584 : cleanup:
; 4585 : 
; 4586 :     ReleaseRegs();

  00080	e2853b01	 add         r3, r5, #1, 22
  00084	e283008c	 add         r0, r3, #0x8C
  00088	eb000000	 bl          LeaveCriticalSection

; 4587 :     return bInterruptAlreadyEnabled;

  0008c		 |$LN5@EnableVSyn|

; 4588 : }

  0008c	e1a00004	 mov         r0, r4
  00090	e8bd4030	 ldmia       sp!, {r4, r5, lr}
  00094	e12fff1e	 bx          lr
  00098		 |$M40682|

			 ENDP  ; |?EnableVSyncInterruptEx@OMAPDisplayController@@QAAHXZ|, OMAPDisplayController::EnableVSyncInterruptEx

	EXPORT	|?EnableVSyncInterrupt@OMAPDisplayController@@QAAXXZ| ; OMAPDisplayController::EnableVSyncInterrupt

  00000			 AREA	 |.pdata|, PDATA
|$T40695| DCD	|$LN10@EnableVSyn@2|
	DCD	0x40001401
; Function compile flags: /Ogspy

  00000			 AREA	 |.text|, CODE, ARM

  00000		 |?EnableVSyncInterrupt@OMAPDisplayController@@QAAXXZ| PROC ; OMAPDisplayController::EnableVSyncInterrupt

; 4592 : {

  00000		 |$LN10@EnableVSyn@2|
  00000	e92d4010	 stmdb       sp!, {r4, lr}
  00004		 |$M40692|
  00004	e1a04000	 mov         r4, r0

; 4593 :     if(AccessRegs() == FALSE)

  00008	eb000000	 bl          |?AccessRegs@OMAPDisplayController@@IAAHXZ|
  0000c	e3500000	 cmp         r0, #0
  00010	0a000009	 beq         |$cleanup$39599|

; 4594 :     {
; 4595 :         goto cleanup;
; 4596 :     }
; 4597 : 
; 4598 :     SETREG32(&m_pDispRegs->DISPC_IRQENABLE, DISPC_IRQENABLE_VSYNC);

  00014	e5942008	 ldr         r2, [r4, #8]
  00018	e592301c	 ldr         r3, [r2, #0x1C]
  0001c	e3833002	 orr         r3, r3, #2
  00020	e582301c	 str         r3, [r2, #0x1C]

; 4599 :     if(m_bTVEnable == TRUE)

  00024	e59434b4	 ldr         r3, [r4, #0x4B4]
  00028	e3530001	 cmp         r3, #1

; 4600 :     {
; 4601 :         SETREG32(&m_pDispRegs->DISPC_IRQENABLE, DISPC_IRQENABLE_EVSYNC_EVEN | DISPC_IRQENABLE_EVSYNC_ODD);

  0002c	05942008	 ldreq       r2, [r4, #8]
  00030	0592301c	 ldreq       r3, [r2, #0x1C]
  00034	0383300c	 orreq       r3, r3, #0xC
  00038	0582301c	 streq       r3, [r2, #0x1C]
  0003c		 |$cleanup$39599|

; 4602 :     }
; 4603 : 
; 4604 : cleanup:
; 4605 : 
; 4606 :     ReleaseRegs();

  0003c	e2843b01	 add         r3, r4, #1, 22
  00040	e283008c	 add         r0, r3, #0x8C
  00044	eb000000	 bl          LeaveCriticalSection

; 4607 : }

  00048	e8bd4010	 ldmia       sp!, {r4, lr}
  0004c	e12fff1e	 bx          lr
  00050		 |$M40693|

			 ENDP  ; |?EnableVSyncInterrupt@OMAPDisplayController@@QAAXXZ|, OMAPDisplayController::EnableVSyncInterrupt

	EXPORT	|?DisableVSyncInterrupt@OMAPDisplayController@@QAAXXZ| ; OMAPDisplayController::DisableVSyncInterrupt

  00000			 AREA	 |.pdata|, PDATA
|$T40706| DCD	|$LN10@DisableVSy|
	DCD	0x40001601
; Function compile flags: /Ogspy

  00000			 AREA	 |.text|, CODE, ARM

  00000		 |?DisableVSyncInterrupt@OMAPDisplayController@@QAAXXZ| PROC ; OMAPDisplayController::DisableVSyncInterrupt

; 4611 : {

  00000		 |$LN10@DisableVSy|
  00000	e92d4010	 stmdb       sp!, {r4, lr}
  00004		 |$M40703|
  00004	e1a04000	 mov         r4, r0

; 4612 :     
; 4613 :     m_lastVsyncIRQStatus = 0;

  00008	e3a03000	 mov         r3, #0
  0000c	e5843538	 str         r3, [r4, #0x538]

; 4614 :     if(AccessRegs() == FALSE)

  00010	eb000000	 bl          |?AccessRegs@OMAPDisplayController@@IAAHXZ|
  00014	e3500000	 cmp         r0, #0
  00018	0a000009	 beq         |$cleanup$39612|

; 4615 :     {
; 4616 :         goto cleanup;
; 4617 :     }
; 4618 :         
; 4619 :     CLRREG32(&m_pDispRegs->DISPC_IRQENABLE, DISPC_IRQENABLE_VSYNC);

  0001c	e5942008	 ldr         r2, [r4, #8]
  00020	e592301c	 ldr         r3, [r2, #0x1C]
  00024	e3c33002	 bic         r3, r3, #2
  00028	e582301c	 str         r3, [r2, #0x1C]

; 4620 :     if(m_bTVEnable == TRUE)

  0002c	e59434b4	 ldr         r3, [r4, #0x4B4]
  00030	e3530001	 cmp         r3, #1

; 4621 :     {
; 4622 :         CLRREG32(&m_pDispRegs->DISPC_IRQENABLE, DISPC_IRQENABLE_EVSYNC_EVEN | DISPC_IRQENABLE_EVSYNC_ODD);

  00034	05942008	 ldreq       r2, [r4, #8]
  00038	0592301c	 ldreq       r3, [r2, #0x1C]
  0003c	03c3300c	 biceq       r3, r3, #0xC
  00040	0582301c	 streq       r3, [r2, #0x1C]
  00044		 |$cleanup$39612|

; 4623 :     }
; 4624 : 
; 4625 : cleanup:
; 4626 : 
; 4627 :     ReleaseRegs();

  00044	e2843b01	 add         r3, r4, #1, 22
  00048	e283008c	 add         r0, r3, #0x8C
  0004c	eb000000	 bl          LeaveCriticalSection

; 4628 : }

  00050	e8bd4010	 ldmia       sp!, {r4, lr}
  00054	e12fff1e	 bx          lr
  00058		 |$M40704|

			 ENDP  ; |?DisableVSyncInterrupt@OMAPDisplayController@@QAAXXZ|, OMAPDisplayController::DisableVSyncInterrupt

	EXPORT	|?InVSync@OMAPDisplayController@@QAAHH@Z| ; OMAPDisplayController::InVSync

  00000			 AREA	 |.pdata|, PDATA
|$T40728| DCD	|$LN18@InVSync|
	DCD	0x40003701
; Function compile flags: /Ogspy

  00000			 AREA	 |.text|, CODE, ARM

  00000		 |?InVSync@OMAPDisplayController@@QAAHH@Z| PROC ; OMAPDisplayController::InVSync

; 4632 : {

  00000		 |$LN18@InVSync|
  00000	e92d40f0	 stmdb       sp!, {r4 - r7, lr}
  00004		 |$M40725|
  00004	e1a07001	 mov         r7, r1
  00008	e1a05000	 mov         r5, r0

; 4633 :     BOOL bInVSync = FALSE;
; 4634 :     DWORD irqStatus = 0;
; 4635 :     BOOL  lcdVsync = FALSE;
; 4636 :     //Alwasy set to true, in case tv-out is disabled.
; 4637 :     BOOL  tvVsync = TRUE;
; 4638 : 
; 4639 :     if (!m_dwEnableWaitForVerticalBlank)

  0000c	e5953500	 ldr         r3, [r5, #0x500]
  00010	e3a04000	 mov         r4, #0
  00014	e3a06001	 mov         r6, #1
  00018	e3530000	 cmp         r3, #0

; 4640 :         return TRUE;

  0001c	03a04001	 moveq       r4, #1
  00020	0a00002a	 beq         |$LN8@InVSync|

; 4641 : 
; 4642 :     if(AccessRegs() == FALSE)

  00024	e1a00005	 mov         r0, r5
  00028	eb000000	 bl          |?AccessRegs@OMAPDisplayController@@IAAHXZ|
  0002c	e3500000	 cmp         r0, #0

; 4643 :     {
; 4644 :         bInVSync = TRUE;

  00030	03a04001	 moveq       r4, #1
  00034	0a000022	 beq         |$cleanup$39631|

; 4645 :         goto cleanup;
; 4646 :     }
; 4647 : 
; 4648 :     irqStatus = INREG32(&m_pDispRegs->DISPC_IRQSTATUS);

  00038	e5950008	 ldr         r0, [r5, #8]
  0003c	e5901018	 ldr         r1, [r0, #0x18]

; 4649 :     lcdVsync = (irqStatus & DISPC_IRQSTATUS_VSYNC) == DISPC_IRQSTATUS_VSYNC;

  00040	e2013002	 and         r3, r1, #2
  00044	e3530002	 cmp         r3, #2

; 4650 :     if(m_bTVEnable == TRUE)

  00048	e59534b4	 ldr         r3, [r5, #0x4B4]
  0004c	03a02001	 moveq       r2, #1
  00050	13a02000	 movne       r2, #0
  00054	e3530001	 cmp         r3, #1
  00058	1a000005	 bne         |$LN13@InVSync|

; 4651 :     {
; 4652 :         tvVsync = ((irqStatus & DISPC_IRQSTATUS_EVSYNC_EVEN) == DISPC_IRQSTATUS_EVSYNC_EVEN) ||
; 4653 :                   ((irqStatus & DISPC_IRQSTATUS_EVSYNC_ODD) == DISPC_IRQSTATUS_EVSYNC_ODD);

  0005c	e2013004	 and         r3, r1, #4
  00060	e3530004	 cmp         r3, #4
  00064	12013008	 andne       r3, r1, #8
  00068	13530008	 cmpne       r3, #8
  0006c	13a06000	 movne       r6, #0
  00070	03a06001	 moveq       r6, #1
  00074		 |$LN13@InVSync|

; 4654 :           
; 4655 :     }
; 4656 :     //If tv-out is enabled we also need to check of it's VSYNC signal. Once both have been asserted then 
; 4657 :     //we can say that Vsync has occurred. 
; 4658 :     if( lcdVsync && tvVsync)

  00074	e3520000	 cmp         r2, #0
  00078	0a000011	 beq         |$cleanup$39631|
  0007c	e3560000	 cmp         r6, #0
  00080	0a00000f	 beq         |$cleanup$39631|

; 4659 :     {
; 4660 :         bInVSync = TRUE;

  00084	e3a04001	 mov         r4, #1

; 4661 : 
; 4662 :         if(bClearStatus)

  00088	e3570000	 cmp         r7, #0
  0008c	0a00000c	 beq         |$cleanup$39631|

; 4663 :         {
; 4664 :             SETREG32(&m_pDispRegs->DISPC_IRQSTATUS, DISPC_IRQSTATUS_VSYNC);

  00090	e5903018	 ldr         r3, [r0, #0x18]
  00094	e3833002	 orr         r3, r3, #2
  00098	e5803018	 str         r3, [r0, #0x18]

; 4665 :             if(m_bTVEnable == TRUE)

  0009c	e59534b4	 ldr         r3, [r5, #0x4B4]
  000a0	e3530001	 cmp         r3, #1

; 4666 :             {
; 4667 :                 SETREG32(&m_pDispRegs->DISPC_IRQSTATUS, DISPC_IRQSTATUS_EVSYNC_EVEN); 

  000a4	05952008	 ldreq       r2, [r5, #8]
  000a8	05923018	 ldreq       r3, [r2, #0x18]
  000ac	03833004	 orreq       r3, r3, #4
  000b0	05823018	 streq       r3, [r2, #0x18]

; 4668 :                 SETREG32(&m_pDispRegs->DISPC_IRQSTATUS, DISPC_IRQSTATUS_EVSYNC_ODD); 

  000b4	05952008	 ldreq       r2, [r5, #8]
  000b8	05923018	 ldreq       r3, [r2, #0x18]
  000bc	03833008	 orreq       r3, r3, #8
  000c0	05823018	 streq       r3, [r2, #0x18]
  000c4		 |$cleanup$39631|

; 4669 :             }
; 4670 :         }
; 4671 :     }
; 4672 : 
; 4673 : cleanup:
; 4674 : 
; 4675 :     ReleaseRegs();

  000c4	e2853b01	 add         r3, r5, #1, 22
  000c8	e283008c	 add         r0, r3, #0x8C
  000cc	eb000000	 bl          LeaveCriticalSection

; 4676 : 
; 4677 :     return bInVSync;

  000d0		 |$LN8@InVSync|

; 4678 : }

  000d0	e1a00004	 mov         r0, r4
  000d4	e8bd40f0	 ldmia       sp!, {r4 - r7, lr}
  000d8	e12fff1e	 bx          lr
  000dc		 |$M40726|

			 ENDP  ; |?InVSync@OMAPDisplayController@@QAAHH@Z|, OMAPDisplayController::InVSync

	EXPORT	|?WaitForVsync@OMAPDisplayController@@QAAXXZ| ; OMAPDisplayController::WaitForVsync

  00000			 AREA	 |.pdata|, PDATA
|$T40737| DCD	|$LN8@WaitForVsy|
	DCD	0x40001401
; Function compile flags: /Ogspy

  00000			 AREA	 |.text|, CODE, ARM

  00000		 |?WaitForVsync@OMAPDisplayController@@QAAXXZ| PROC ; OMAPDisplayController::WaitForVsync

; 4682 : {

  00000		 |$LN8@WaitForVsy|
  00000	e92d4030	 stmdb       sp!, {r4, r5, lr}
  00004		 |$M40734|
  00004	e1a05000	 mov         r5, r0

; 4683 :     BOOL bVsyncPreviouslyEnabled = FALSE;
; 4684 : 
; 4685 :     if (!m_dwEnableWaitForVerticalBlank)

  00008	e5953500	 ldr         r3, [r5, #0x500]
  0000c	e3530000	 cmp         r3, #0
  00010	0a00000c	 beq         |$LN1@WaitForVsy|

; 4686 :         return;
; 4687 : 
; 4688 :     if(!InVSync(TRUE))

  00014	e3a01001	 mov         r1, #1
  00018	eb000000	 bl          |?InVSync@OMAPDisplayController@@QAAHH@Z|
  0001c	e3500000	 cmp         r0, #0
  00020	1a000008	 bne         |$LN1@WaitForVsy|

; 4689 :     {             
; 4690 :         bVsyncPreviouslyEnabled = EnableVSyncInterruptEx();

  00024	e1a00005	 mov         r0, r5
  00028	eb000000	 bl          |?EnableVSyncInterruptEx@OMAPDisplayController@@QAAHXZ|

; 4691 :         WaitForSingleObject(m_hVsyncEvent, m_dwVsyncPeriod);

  0002c	e59514fc	 ldr         r1, [r5, #0x4FC]
  00030	e1a04000	 mov         r4, r0
  00034	e59504f4	 ldr         r0, [r5, #0x4F4]
  00038	eb000000	 bl          WaitForSingleObject

; 4692 :         //SGX may have turned on the vsync interrupt, keep it on if that's the case.
; 4693 :         if(!bVsyncPreviouslyEnabled)

  0003c	e3540000	 cmp         r4, #0

; 4694 :         {
; 4695 :             DisableVSyncInterrupt();

  00040	01a00005	 moveq       r0, r5
  00044	0b000000	 bleq        |?DisableVSyncInterrupt@OMAPDisplayController@@QAAXXZ|
  00048		 |$LN1@WaitForVsy|

; 4696 :         }
; 4697 :     }
; 4698 : }

  00048	e8bd4030	 ldmia       sp!, {r4, r5, lr}
  0004c	e12fff1e	 bx          lr
  00050		 |$M40735|

			 ENDP  ; |?WaitForVsync@OMAPDisplayController@@QAAXXZ|, OMAPDisplayController::WaitForVsync

	EXPORT	|?EnableScanLineInterrupt@OMAPDisplayController@@QAAXK@Z| ; OMAPDisplayController::EnableScanLineInterrupt

  00000			 AREA	 |.pdata|, PDATA
|$T40749| DCD	|$LN11@EnableScan|
	DCD	0x40001d01
; Function compile flags: /Ogspy

  00000			 AREA	 |.text|, CODE, ARM

  00000		 |?EnableScanLineInterrupt@OMAPDisplayController@@QAAXK@Z| PROC ; OMAPDisplayController::EnableScanLineInterrupt

; 4702 : {

  00000		 |$LN11@EnableScan|
  00000	e92d4030	 stmdb       sp!, {r4, r5, lr}
  00004		 |$M40746|
  00004	e1a05001	 mov         r5, r1
  00008	e1a04000	 mov         r4, r0

; 4703 :     if (!m_dwEnableWaitForVerticalBlank)

  0000c	e5943500	 ldr         r3, [r4, #0x500]
  00010	e3530000	 cmp         r3, #0
  00014	0a000014	 beq         |$LN7@EnableScan|

; 4704 :         return;
; 4705 : 
; 4706 :     if(AccessRegs() == FALSE)

  00018	eb000000	 bl          |?AccessRegs@OMAPDisplayController@@IAAHXZ|
  0001c	e3500000	 cmp         r0, #0
  00020	0a00000e	 beq         |$cleanup$39660|

; 4707 :     {
; 4708 :         goto cleanup;
; 4709 :     }
; 4710 : 
; 4711 :     //  Program line number to interrupt on
; 4712 :     if(INREG32(&m_pDispRegs->DISPC_LINE_NUMBER) != dwLineNumber)

  00024	e5942008	 ldr         r2, [r4, #8]
  00028	e5923060	 ldr         r3, [r2, #0x60]
  0002c	e1530005	 cmp         r3, r5

; 4713 :     {
; 4714 :         OUTREG32(&m_pDispRegs->DISPC_LINE_NUMBER, dwLineNumber);
; 4715 :         FlushRegs(DISPC_CONTROL_GOLCD);

  00030	13a01020	 movne       r1, #0x20
  00034	11a00004	 movne       r0, r4
  00038	15825060	 strne       r5, [r2, #0x60]
  0003c	1b000000	 blne        |?FlushRegs@OMAPDisplayController@@IAAHK@Z|

; 4716 :     }
; 4717 : 
; 4718 :     //  Enable                                
; 4719 :     SETREG32(&m_pDispRegs->DISPC_IRQSTATUS, DISPC_IRQSTATUS_PROGRAMMEDLINENUMBER);

  00040	e5942008	 ldr         r2, [r4, #8]
  00044	e5923018	 ldr         r3, [r2, #0x18]
  00048	e3833020	 orr         r3, r3, #0x20
  0004c	e5823018	 str         r3, [r2, #0x18]

; 4720 :     SETREG32(&m_pDispRegs->DISPC_IRQENABLE, DISPC_IRQENABLE_PROGRAMMEDLINENUMBER);

  00050	e5942008	 ldr         r2, [r4, #8]
  00054	e592301c	 ldr         r3, [r2, #0x1C]
  00058	e3833020	 orr         r3, r3, #0x20
  0005c	e582301c	 str         r3, [r2, #0x1C]
  00060		 |$cleanup$39660|

; 4721 : 
; 4722 : cleanup:
; 4723 :     ReleaseRegs();

  00060	e2843b01	 add         r3, r4, #1, 22
  00064	e283008c	 add         r0, r3, #0x8C
  00068	eb000000	 bl          LeaveCriticalSection
  0006c		 |$LN7@EnableScan|

; 4724 : }

  0006c	e8bd4030	 ldmia       sp!, {r4, r5, lr}
  00070	e12fff1e	 bx          lr
  00074		 |$M40747|

			 ENDP  ; |?EnableScanLineInterrupt@OMAPDisplayController@@QAAXK@Z|, OMAPDisplayController::EnableScanLineInterrupt

	EXPORT	|?DisableScanLineInterrupt@OMAPDisplayController@@QAAXXZ| ; OMAPDisplayController::DisableScanLineInterrupt

  00000			 AREA	 |.pdata|, PDATA
|$T40760| DCD	|$LN10@DisableSca|
	DCD	0x40001401
; Function compile flags: /Ogspy

  00000			 AREA	 |.text|, CODE, ARM

  00000		 |?DisableScanLineInterrupt@OMAPDisplayController@@QAAXXZ| PROC ; OMAPDisplayController::DisableScanLineInterrupt

; 4728 : {

  00000		 |$LN10@DisableSca|
  00000	e92d4010	 stmdb       sp!, {r4, lr}
  00004		 |$M40757|
  00004	e1a04000	 mov         r4, r0

; 4729 :     if (!m_dwEnableWaitForVerticalBlank)

  00008	e5943500	 ldr         r3, [r4, #0x500]
  0000c	e3530000	 cmp         r3, #0
  00010	0a00000c	 beq         |$LN6@DisableSca|

; 4730 :         return;
; 4731 : 
; 4732 :     if(AccessRegs() == FALSE)

  00014	eb000000	 bl          |?AccessRegs@OMAPDisplayController@@IAAHXZ|
  00018	e3500000	 cmp         r0, #0

; 4733 :     {
; 4734 :         goto cleanup;
; 4735 :     }
; 4736 : 
; 4737 :     //  Disable interrupt
; 4738 :     SETREG32(&m_pDispRegs->DISPC_IRQSTATUS, DISPC_IRQSTATUS_PROGRAMMEDLINENUMBER);

  0001c	15942008	 ldrne       r2, [r4, #8]

; 4739 :     CLRREG32(&m_pDispRegs->DISPC_IRQENABLE, DISPC_IRQENABLE_PROGRAMMEDLINENUMBER);

  00020	15923018	 ldrne       r3, [r2, #0x18]
  00024	13833020	 orrne       r3, r3, #0x20
  00028	15823018	 strne       r3, [r2, #0x18]
  0002c	15942008	 ldrne       r2, [r4, #8]
  00030	1592301c	 ldrne       r3, [r2, #0x1C]
  00034	13c33020	 bicne       r3, r3, #0x20
  00038	1582301c	 strne       r3, [r2, #0x1C]
  0003c		 |$cleanup$39677|

; 4740 : 
; 4741 : cleanup:
; 4742 :     ReleaseRegs();

  0003c	e2843b01	 add         r3, r4, #1, 22
  00040	e283008c	 add         r0, r3, #0x8C
  00044	eb000000	 bl          LeaveCriticalSection
  00048		 |$LN6@DisableSca|

; 4743 : }

  00048	e8bd4010	 ldmia       sp!, {r4, lr}
  0004c	e12fff1e	 bx          lr
  00050		 |$M40758|

			 ENDP  ; |?DisableScanLineInterrupt@OMAPDisplayController@@QAAXXZ|, OMAPDisplayController::DisableScanLineInterrupt

	EXPORT	|?GetScanLine@OMAPDisplayController@@QAAKXZ| ; OMAPDisplayController::GetScanLine

  00000			 AREA	 |.pdata|, PDATA
|$T40774| DCD	|$LN9@GetScanLin|
	DCD	0x40000d01
; Function compile flags: /Ogspy

  00000			 AREA	 |.text|, CODE, ARM

  00000		 |?GetScanLine@OMAPDisplayController@@QAAKXZ| PROC ; OMAPDisplayController::GetScanLine

; 4747 : {

  00000		 |$LN9@GetScanLin|
  00000	e92d4030	 stmdb       sp!, {r4, r5, lr}
  00004		 |$M40771|
  00004	e1a04000	 mov         r4, r0

; 4748 :     DWORD scanLine = 0;
; 4749 :     if(AccessRegs() == FALSE)

  00008	e3a05000	 mov         r5, #0
  0000c	eb000000	 bl          |?AccessRegs@OMAPDisplayController@@IAAHXZ|
  00010	e3500000	 cmp         r0, #0

; 4750 :     {
; 4751 :         goto cleanup;
; 4752 :     }
; 4753 : 
; 4754 :     //  Get current scanline value
; 4755 :     scanLine = INREG32(&m_pDispRegs->DISPC_LINE_STATUS);

  00014	15943008	 ldrne       r3, [r4, #8]
  00018	1593505c	 ldrne       r5, [r3, #0x5C]
  0001c		 |$cleanup$39690|

; 4756 : 
; 4757 : cleanup:
; 4758 :     ReleaseRegs();

  0001c	e2843b01	 add         r3, r4, #1, 22
  00020	e283008c	 add         r0, r3, #0x8C
  00024	eb000000	 bl          LeaveCriticalSection

; 4759 :     return scanLine;
; 4760 : }

  00028	e1a00005	 mov         r0, r5
  0002c	e8bd4030	 ldmia       sp!, {r4, r5, lr}
  00030	e12fff1e	 bx          lr
  00034		 |$M40772|

			 ENDP  ; |?GetScanLine@OMAPDisplayController@@QAAKXZ|, OMAPDisplayController::GetScanLine

	EXPORT	|?WaitForScanLine@OMAPDisplayController@@QAAXK@Z| ; OMAPDisplayController::WaitForScanLine

  00000			 AREA	 |.pdata|, PDATA
|$T40783| DCD	|$LN6@WaitForSca|
	DCD	0x40000d01
; Function compile flags: /Ogspy

  00000			 AREA	 |.text|, CODE, ARM

  00000		 |?WaitForScanLine@OMAPDisplayController@@QAAXK@Z| PROC ; OMAPDisplayController::WaitForScanLine

; 4764 : {

  00000		 |$LN6@WaitForSca|
  00000	e92d4010	 stmdb       sp!, {r4, lr}
  00004		 |$M40780|
  00004	e1a04000	 mov         r4, r0

; 4765 :     if (!m_dwEnableWaitForVerticalBlank)

  00008	e5943500	 ldr         r3, [r4, #0x500]
  0000c	e3530000	 cmp         r3, #0
  00010	0a000005	 beq         |$LN2@WaitForSca|

; 4766 :         return;
; 4767 : 
; 4768 :     //  Enable the scanline interrupt for the given line number and wait
; 4769 :     EnableScanLineInterrupt(dwLineNumber);

  00014	eb000000	 bl          |?EnableScanLineInterrupt@OMAPDisplayController@@QAAXK@Z|

; 4770 :     WaitForSingleObject(m_hScanLineEvent, m_dwVsyncPeriod);

  00018	e59414fc	 ldr         r1, [r4, #0x4FC]
  0001c	e5940504	 ldr         r0, [r4, #0x504]
  00020	eb000000	 bl          WaitForSingleObject

; 4771 :     DisableScanLineInterrupt();

  00024	e1a00004	 mov         r0, r4
  00028	eb000000	 bl          |?DisableScanLineInterrupt@OMAPDisplayController@@QAAXXZ|
  0002c		 |$LN2@WaitForSca|

; 4772 : }

  0002c	e8bd4010	 ldmia       sp!, {r4, lr}
  00030	e12fff1e	 bx          lr
  00034		 |$M40781|

			 ENDP  ; |?WaitForScanLine@OMAPDisplayController@@QAAXK@Z|, OMAPDisplayController::WaitForScanLine

	EXPORT	|?SetClipping@OMAPSurface@@UAAHPAUtagRECT@@@Z| ; OMAPSurface::SetClipping
	IMPORT	|IntersectRect|

  00000			 AREA	 |.pdata|, PDATA
|$T40799| DCD	|$LN8@SetClippin@2|
	DCD	0x40002a02
; Function compile flags: /Ogspy

  00000			 AREA	 |.text|, CODE, ARM

  00000		 |?SetClipping@OMAPSurface@@UAAHPAUtagRECT@@@Z| PROC ; OMAPSurface::SetClipping

; 4776 : {

  00000		 |$LN8@SetClippin@2|
  00000	e92d4070	 stmdb       sp!, {r4 - r6, lr}
  00004	e24dd010	 sub         sp, sp, #0x10
  00008		 |$M40796|
  00008	e1b05001	 movs        r5, r1
  0000c	e1a04000	 mov         r4, r0

; 4777 :     BOOL    bResult;
; 4778 :     RECT    rcSurf;
; 4779 :     
; 4780 :     //  Set the rect of the entire surface
; 4781 :     rcSurf.left = 0;
; 4782 :     rcSurf.top = 0;
; 4783 :     rcSurf.right = m_dwWidth;

  00010	e5943010	 ldr         r3, [r4, #0x10]

; 4784 :     rcSurf.bottom = m_dwHeight;

  00014	e5942014	 ldr         r2, [r4, #0x14]
  00018	e3a01000	 mov         r1, #0
  0001c	e3a00000	 mov         r0, #0
  00020	e58d3008	 str         r3, [sp, #8]
  00024	e58d200c	 str         r2, [sp, #0xC]

; 4785 :     
; 4786 :     //  Set the clipping region of the surface
; 4787 :     if( pClipRect == NULL )
; 4788 :     {
; 4789 :         //  No clipping; use entire surface size
; 4790 :         m_rcClip = rcSurf;

  00028	05843020	 streq       r3, [r4, #0x20]
  0002c	05842024	 streq       r2, [r4, #0x24]
  00030	e58d1000	 str         r1, [sp]
  00034	e58d0004	 str         r0, [sp, #4]
  00038	05841018	 streq       r1, [r4, #0x18]
  0003c	0584001c	 streq       r0, [r4, #0x1C]

; 4791 :         bResult = TRUE;

  00040	03a06001	 moveq       r6, #1
  00044	0a000004	 beq         |$LN2@SetClippin@2|

; 4792 :     }
; 4793 :     else
; 4794 :     {
; 4795 :         //  Find intersection of surface rect and clipping rect
; 4796 :         bResult = IntersectRect( &m_rcClip, &rcSurf, pClipRect );

  00048	e1a02005	 mov         r2, r5
  0004c	e28d1000	 add         r1, sp, #0
  00050	e2840018	 add         r0, r4, #0x18
  00054	eb000000	 bl          IntersectRect
  00058	e1a06000	 mov         r6, r0
  0005c		 |$LN2@SetClippin@2|

; 4797 :     }
; 4798 :     
; 4799 :     UpdateClipping(pClipRect);

  0005c	e5943000	 ldr         r3, [r4]
  00060	e1a01005	 mov         r1, r5
  00064	e1a00004	 mov         r0, r4
  00068	e5933024	 ldr         r3, [r3, #0x24]
  0006c	e1a0e00f	 mov         lr, pc
  00070	e12fff13	 bx          r3

; 4800 : 
; 4801 :     //  Update the given clipping rect
; 4802 :     if( pClipRect )

  00074	e3550000	 cmp         r5, #0

; 4803 :         *pClipRect = m_rcClip;

  00078	15943018	 ldrne       r3, [r4, #0x18]

; 4804 : 
; 4805 :     //  Return result
; 4806 :     return bResult;
; 4807 : }

  0007c	e1a00006	 mov         r0, r6
  00080	15853000	 strne       r3, [r5]
  00084	1594301c	 ldrne       r3, [r4, #0x1C]
  00088	15853004	 strne       r3, [r5, #4]
  0008c	15943020	 ldrne       r3, [r4, #0x20]
  00090	15853008	 strne       r3, [r5, #8]
  00094	15943024	 ldrne       r3, [r4, #0x24]
  00098	1585300c	 strne       r3, [r5, #0xC]
  0009c	e28dd010	 add         sp, sp, #0x10
  000a0	e8bd4070	 ldmia       sp!, {r4 - r6, lr}
  000a4	e12fff1e	 bx          lr
  000a8		 |$M40797|

			 ENDP  ; |?SetClipping@OMAPSurface@@UAAHPAUtagRECT@@@Z|, OMAPSurface::SetClipping

	EXPORT	|?UpdateClipping@OMAPSurface@@UAAHPAUtagRECT@@@Z| ; OMAPSurface::UpdateClipping

  00000			 AREA	 |.pdata|, PDATA
|$T40810| DCD	|$LN6@UpdateClip|
	DCD	0x40000c01
; Function compile flags: /Ogspy

  00000			 AREA	 |.text|, CODE, ARM

  00000		 |?UpdateClipping@OMAPSurface@@UAAHPAUtagRECT@@@Z| PROC ; OMAPSurface::UpdateClipping

; 4811 : {

  00000		 |$LN6@UpdateClip|
  00000	e92d4010	 stmdb       sp!, {r4, lr}
  00004		 |$M40807|
  00004	e3510000	 cmp         r1, #0

; 4812 :     BOOL bResult = FALSE;
; 4813 : 
; 4814 :     // Could change to to ensure rectangle alignment with different
; 4815 :     // scale and decimation factors...
; 4816 :     
; 4817 :     //Force the clipping rectangle to fall in a pack pixel boundary
; 4818 :     if (pClipRect != NULL)
; 4819 :     {
; 4820 :         AdjustClippingRect(&m_rcClip, 2, 2);

  00008	15901000	 ldrne       r1, [r0]
  0000c	13a03002	 movne       r3, #2
  00010	13a02002	 movne       r2, #2
  00014	1591402c	 ldrne       r4, [r1, #0x2C]
  00018	12801018	 addne       r1, r0, #0x18
  0001c	11a0e00f	 movne       lr, pc
  00020	112fff14	 bxne        r4

; 4821 :     }
; 4822 :     
; 4823 :     bResult = TRUE;
; 4824 :     return bResult;

  00024	e3a00001	 mov         r0, #1

; 4825 : }

  00028	e8bd4010	 ldmia       sp!, {r4, lr}
  0002c	e12fff1e	 bx          lr
  00030		 |$M40808|

			 ENDP  ; |?UpdateClipping@OMAPSurface@@UAAHPAUtagRECT@@@Z|, OMAPSurface::UpdateClipping

	EXPORT	|?GetClipping@OMAPSurface@@UAA?AUtagRECT@@XZ| ; OMAPSurface::GetClipping

  00000			 AREA	 |.pdata|, PDATA
|$T40821| DCD	|$LN5@GetClippin|
	DCD	0x40000c01
; Function compile flags: /Ogspy

  00000			 AREA	 |.text|, CODE, ARM

  00000		 |?GetClipping@OMAPSurface@@UAA?AUtagRECT@@XZ| PROC ; OMAPSurface::GetClipping

; 4829 : {

  00000		 |$LN5@GetClippin|
  00000	e52de004	 str         lr, [sp, #-4]!
  00004		 |$M40818|

; 4830 :     return m_rcClip;

  00004	e5903018	 ldr         r3, [r0, #0x18]
  00008	e590201c	 ldr         r2, [r0, #0x1C]
  0000c	e590e020	 ldr         lr, [r0, #0x20]
  00010	e5900024	 ldr         r0, [r0, #0x24]
  00014	e5813000	 str         r3, [r1]
  00018	e5812004	 str         r2, [r1, #4]
  0001c	e581000c	 str         r0, [r1, #0xC]

; 4831 : }

  00020	e1a00001	 mov         r0, r1
  00024	e581e008	 str         lr, [r1, #8]
  00028	e49de004	 ldr         lr, [sp], #4
  0002c	e12fff1e	 bx          lr
  00030		 |$M40819|

			 ENDP  ; |?GetClipping@OMAPSurface@@UAA?AUtagRECT@@XZ|, OMAPSurface::GetClipping

	EXPORT	|?AdjustClippingRect@OMAPSurface@@UAAHPAUtagRECT@@EE@Z| ; OMAPSurface::AdjustClippingRect
	IMPORT	|__rt_sdiv|

  00000			 AREA	 |.pdata|, PDATA
|$T40834| DCD	|$LN12@AdjustClip|
	DCD	0x40002a01
; Function compile flags: /Ogspy

  00000			 AREA	 |.text|, CODE, ARM

  00000		 |?AdjustClippingRect@OMAPSurface@@UAAHPAUtagRECT@@EE@Z| PROC ; OMAPSurface::AdjustClippingRect

; 4835 : {

  00000		 |$LN12@AdjustClip|
  00000	e92d40f0	 stmdb       sp!, {r4 - r7, lr}
  00004		 |$M40831|
  00004	e1a05003	 mov         r5, r3
  00008	e1a06002	 mov         r6, r2
  0000c	e1b04001	 movs        r4, r1

; 4836 :     BOOL bResult = FALSE;
; 4837 : 
; 4838 :     if(srcRect == NULL)
; 4839 :     {
; 4840 :         DEBUGMSG(ZONE_ERROR,
; 4841 :             (TEXT("%S: ERROR: Null rectangle passed!\r\n"), __FUNCTION__));
; 4842 :         return bResult;

  00010	03a00000	 moveq       r0, #0

; 4861 : 
; 4862 : }

  00014	08bd40f0	 ldmeqia     sp!, {r4 - r7, lr}
  00018	012fff1e	 bxeq        lr

; 4843 :     }
; 4844 :     if(vertValue > 1)

  0001c	e3550001	 cmp         r5, #1
  00020	9a00000d	 bls         |$LN4@AdjustClip|

; 4845 :     {
; 4846 :         if( ((srcRect->top)%vertValue)!= 0)

  00024	e5941004	 ldr         r1, [r4, #4]
  00028	e1a00005	 mov         r0, r5
  0002c	e1a07005	 mov         r7, r5
  00030	eb000000	 bl          __rt_sdiv
  00034	e3510000	 cmp         r1, #0

; 4847 :             CEIL_MULT(srcRect->top, vertValue);

  00038	12803001	 addne       r3, r0, #1

; 4848 :         if( ((srcRect->bottom)%vertValue)!= 0)

  0003c	e594100c	 ldr         r1, [r4, #0xC]
  00040	10020793	 mulne       r2, r3, r7
  00044	e1a00005	 mov         r0, r5
  00048	15842004	 strne       r2, [r4, #4]
  0004c	eb000000	 bl          __rt_sdiv
  00050	e3510000	 cmp         r1, #0

; 4849 :             FLOOR_MULT(srcRect->bottom, vertValue);

  00054	10030790	 mulne       r3, r0, r7
  00058	1584300c	 strne       r3, [r4, #0xC]
  0005c		 |$LN4@AdjustClip|

; 4850 :     }
; 4851 :     if(horzValue > 1)

  0005c	e3560001	 cmp         r6, #1
  00060	9a00000d	 bls         |$LN1@AdjustClip|

; 4852 :     {
; 4853 :         if( ((srcRect->left)%horzValue)!= 0)

  00064	e5941000	 ldr         r1, [r4]
  00068	e1a00006	 mov         r0, r6
  0006c	e1a05006	 mov         r5, r6
  00070	eb000000	 bl          __rt_sdiv
  00074	e3510000	 cmp         r1, #0

; 4854 :             CEIL_MULT(srcRect->left, horzValue);

  00078	12803001	 addne       r3, r0, #1

; 4855 :         if( ((srcRect->right)%horzValue)!= 0)

  0007c	e5941008	 ldr         r1, [r4, #8]
  00080	10020593	 mulne       r2, r3, r5
  00084	e1a00006	 mov         r0, r6
  00088	15842000	 strne       r2, [r4]
  0008c	eb000000	 bl          __rt_sdiv
  00090	e3510000	 cmp         r1, #0

; 4856 :             FLOOR_MULT(srcRect->right, horzValue);

  00094	10030590	 mulne       r3, r0, r5
  00098	15843008	 strne       r3, [r4, #8]
  0009c		 |$LN1@AdjustClip|

; 4857 :     }
; 4858 : 
; 4859 :     bResult = TRUE;
; 4860 :     return bResult;

  0009c	e3a00001	 mov         r0, #1

; 4861 : 
; 4862 : }

  000a0	e8bd40f0	 ldmia       sp!, {r4 - r7, lr}
  000a4	e12fff1e	 bx          lr
  000a8		 |$M40832|

			 ENDP  ; |?AdjustClippingRect@OMAPSurface@@UAAHPAUtagRECT@@EE@Z|, OMAPSurface::AdjustClippingRect

	EXPORT	|?SetHorizontalScaling@OMAPSurface@@UAAHK@Z| ; OMAPSurface::SetHorizontalScaling

  00000			 AREA	 |.pdata|, PDATA
|$T40846| DCD	|$LN10@SetHorizon|
	DCD	0x40001a01
; Function compile flags: /Ogspy

  00000			 AREA	 |.text|, CODE, ARM

  00000		 |?SetHorizontalScaling@OMAPSurface@@UAAHK@Z| PROC ; OMAPSurface::SetHorizontalScaling

; 4866 : {

  00000		 |$LN10@SetHorizon|
  00000	e92d4010	 stmdb       sp!, {r4, lr}
  00004		 |$M40843|
  00004	e3510000	 cmp         r1, #0

; 4867 :     BOOL    bResult;
; 4868 : 
; 4869 :     //  Validate scaling factor
; 4870 :     switch( dwScaleFactor )

  00008	0a000008	 beq         |$LN2@SetHorizon|
  0000c	e3510002	 cmp         r1, #2
  00010	9a000003	 bls         |$LN3@SetHorizon|
  00014	e3510004	 cmp         r1, #4
  00018	0a000001	 beq         |$LN3@SetHorizon|
  0001c	e3510008	 cmp         r1, #8
  00020	1a000002	 bne         |$LN2@SetHorizon|
  00024		 |$LN3@SetHorizon|

; 4871 :     {
; 4872 :         case 1:
; 4873 :         case 2:
; 4874 :         case 4:
; 4875 :         case 8:
; 4876 :             //  Valid scaling factors
; 4877 :             m_dwHorizScale = dwScaleFactor;

  00024	e5801028	 str         r1, [r0, #0x28]

; 4878 :             bResult = TRUE;

  00028	e3a04001	 mov         r4, #1

; 4879 :             break;

  0002c	ea000000	 b           |$LN4@SetHorizon|
  00030		 |$LN2@SetHorizon|

; 4880 :                     
; 4881 :         default:
; 4882 :             //  Invalid
; 4883 :             bResult = FALSE;

  00030	e3a04000	 mov         r4, #0
  00034		 |$LN4@SetHorizon|

; 4884 :             break;
; 4885 :     }
; 4886 : 
; 4887 :     if ((m_pAssocSurface) && (m_eSurfaceType==OMAP_SURFACE_NORMAL))

  00034	e59030a0	 ldr         r3, [r0, #0xA0]
  00038	e1b02003	 movs        r2, r3
  0003c	0a000006	 beq         |$LN1@SetHorizon|
  00040	e590309c	 ldr         r3, [r0, #0x9C]
  00044	e3530000	 cmp         r3, #0

; 4888 :         m_pAssocSurface->SetHorizontalScaling(dwScaleFactor);

  00048	05923000	 ldreq       r3, [r2]
  0004c	01a00002	 moveq       r0, r2
  00050	05933030	 ldreq       r3, [r3, #0x30]
  00054	01a0e00f	 moveq       lr, pc
  00058	012fff13	 bxeq        r3
  0005c		 |$LN1@SetHorizon|

; 4889 :     
; 4890 :     //  Return result
; 4891 :     return bResult;
; 4892 : }

  0005c	e1a00004	 mov         r0, r4
  00060	e8bd4010	 ldmia       sp!, {r4, lr}
  00064	e12fff1e	 bx          lr
  00068		 |$M40844|

			 ENDP  ; |?SetHorizontalScaling@OMAPSurface@@UAAHK@Z|, OMAPSurface::SetHorizontalScaling

	EXPORT	|?SetVerticalScaling@OMAPSurface@@UAAHK@Z| ; OMAPSurface::SetVerticalScaling

  00000			 AREA	 |.pdata|, PDATA
|$T40858| DCD	|$LN10@SetVertica|
	DCD	0x40001a01
; Function compile flags: /Ogspy

  00000			 AREA	 |.text|, CODE, ARM

  00000		 |?SetVerticalScaling@OMAPSurface@@UAAHK@Z| PROC ; OMAPSurface::SetVerticalScaling

; 4896 : {

  00000		 |$LN10@SetVertica|
  00000	e92d4010	 stmdb       sp!, {r4, lr}
  00004		 |$M40855|
  00004	e3510000	 cmp         r1, #0

; 4897 :     BOOL    bResult;
; 4898 : 
; 4899 :     //  Validate scaling factor
; 4900 :     switch( dwScaleFactor )

  00008	0a000008	 beq         |$LN2@SetVertica|
  0000c	e3510002	 cmp         r1, #2
  00010	9a000003	 bls         |$LN3@SetVertica|
  00014	e3510004	 cmp         r1, #4
  00018	0a000001	 beq         |$LN3@SetVertica|
  0001c	e3510008	 cmp         r1, #8
  00020	1a000002	 bne         |$LN2@SetVertica|
  00024		 |$LN3@SetVertica|

; 4901 :     {
; 4902 :         case 1:
; 4903 :         case 2:
; 4904 :         case 4:
; 4905 :         case 8:
; 4906 :             //  Valid scaling factors
; 4907 :             m_dwVertScale = dwScaleFactor;

  00024	e580102c	 str         r1, [r0, #0x2C]

; 4908 :             bResult = TRUE;

  00028	e3a04001	 mov         r4, #1

; 4909 :             break;

  0002c	ea000000	 b           |$LN4@SetVertica|
  00030		 |$LN2@SetVertica|

; 4910 :                     
; 4911 :         default:
; 4912 :             //  Invalid
; 4913 :             bResult = FALSE;

  00030	e3a04000	 mov         r4, #0
  00034		 |$LN4@SetVertica|

; 4914 :             break;
; 4915 :     }
; 4916 : 
; 4917 :     if ((m_pAssocSurface) && (m_eSurfaceType==OMAP_SURFACE_NORMAL))

  00034	e59030a0	 ldr         r3, [r0, #0xA0]
  00038	e1b02003	 movs        r2, r3
  0003c	0a000006	 beq         |$LN1@SetVertica|
  00040	e590309c	 ldr         r3, [r0, #0x9C]
  00044	e3530000	 cmp         r3, #0

; 4918 :         m_pAssocSurface->SetVerticalScaling(dwScaleFactor);

  00048	05923000	 ldreq       r3, [r2]
  0004c	01a00002	 moveq       r0, r2
  00050	05933034	 ldreq       r3, [r3, #0x34]
  00054	01a0e00f	 moveq       lr, pc
  00058	012fff13	 bxeq        r3
  0005c		 |$LN1@SetVertica|

; 4919 :     
; 4920 :     //  Return result
; 4921 :     return bResult;
; 4922 : }

  0005c	e1a00004	 mov         r0, r4
  00060	e8bd4010	 ldmia       sp!, {r4, lr}
  00064	e12fff1e	 bx          lr
  00068		 |$M40856|

			 ENDP  ; |?SetVerticalScaling@OMAPSurface@@UAAHK@Z|, OMAPSurface::SetVerticalScaling

	EXPORT	|?SetSurfaceType@OMAPSurface@@QAAHW4OMAP_SURFACE_TYPE@@@Z| ; OMAPSurface::SetSurfaceType

  00000			 AREA	 |.pdata|, PDATA
|$T40869| DCD	|$LN5@SetSurface@2|
	DCD	0x40000300
; Function compile flags: /Ogspy

  00000			 AREA	 |.text|, CODE, ARM

  00000		 |?SetSurfaceType@OMAPSurface@@QAAHW4OMAP_SURFACE_TYPE@@@Z| PROC ; OMAPSurface::SetSurfaceType

; 4930 : {

  00000		 |$LN5@SetSurface@2|
  00000		 |$M40866|

; 4931 :     m_eSurfaceType = eSurfaceType;

  00000	e580109c	 str         r1, [r0, #0x9C]

; 4932 :     return TRUE;

  00004	e3a00001	 mov         r0, #1

; 4933 : }

  00008	e12fff1e	 bx          lr
  0000c		 |$M40867|

			 ENDP  ; |?SetSurfaceType@OMAPSurface@@QAAHW4OMAP_SURFACE_TYPE@@@Z|, OMAPSurface::SetSurfaceType

	EXPORT	|?SetAssocSurface@OMAPSurface@@QAAHPAV1@@Z| ; OMAPSurface::SetAssocSurface

  00000			 AREA	 |.pdata|, PDATA
|$T40880| DCD	|$LN5@SetAssocSu|
	DCD	0x40000300
; Function compile flags: /Ogspy

  00000			 AREA	 |.text|, CODE, ARM

  00000		 |?SetAssocSurface@OMAPSurface@@QAAHPAV1@@Z| PROC ; OMAPSurface::SetAssocSurface

; 4940 : {

  00000		 |$LN5@SetAssocSu|
  00000		 |$M40877|

; 4941 :     m_pAssocSurface = pAssocSurface;

  00000	e58010a0	 str         r1, [r0, #0xA0]

; 4942 :     return TRUE;

  00004	e3a00001	 mov         r0, #1

; 4943 : }

  00008	e12fff1e	 bx          lr
  0000c		 |$M40878|

			 ENDP  ; |?SetAssocSurface@OMAPSurface@@QAAHPAV1@@Z|, OMAPSurface::SetAssocSurface

	EXPORT	|?UseResizer@OMAPSurface@@QAAHH@Z|	; OMAPSurface::UseResizer

  00000			 AREA	 |.pdata|, PDATA
|$T40891| DCD	|$LN7@UseResizer|
	DCD	0x40000800
; Function compile flags: /Ogspy

  00000			 AREA	 |.text|, CODE, ARM

  00000		 |?UseResizer@OMAPSurface@@QAAHH@Z| PROC ; OMAPSurface::UseResizer

; 4950 : {

  00000		 |$LN7@UseResizer|
  00000		 |$M40888|

; 4951 :     if (m_pAssocSurface)

  00000	e59030a0	 ldr         r3, [r0, #0xA0]
  00004	e3530000	 cmp         r3, #0

; 4952 :         m_bUseResizer = bUseResizer;

  00008	15801030	 strne       r1, [r0, #0x30]

; 4955 :     return m_bUseResizer;

  0000c	11a00001	 movne       r0, r1

; 4953 :     else /* force to false if Assoc Surface is not allocated */
; 4954 :         m_bUseResizer = FALSE;

  00010	03a03000	 moveq       r3, #0
  00014	05803030	 streq       r3, [r0, #0x30]

; 4955 :     return m_bUseResizer;

  00018	01a00003	 moveq       r0, r3

; 4956 : }

  0001c	e12fff1e	 bx          lr
  00020		 |$M40889|

			 ENDP  ; |?UseResizer@OMAPSurface@@QAAHH@Z|, OMAPSurface::UseResizer

	EXPORT	|?isResizerEnabled@OMAPSurface@@QAAHXZ|	; OMAPSurface::isResizerEnabled

  00000			 AREA	 |.pdata|, PDATA
|$T40901| DCD	|$LN5@isResizerE|
	DCD	0x40000200
; Function compile flags: /Ogspy

  00000			 AREA	 |.text|, CODE, ARM

  00000		 |?isResizerEnabled@OMAPSurface@@QAAHXZ| PROC ; OMAPSurface::isResizerEnabled

; 4961 : {

  00000		 |$LN5@isResizerE|
  00000		 |$M40898|

; 4962 :     return m_bUseResizer;

  00000	e5900030	 ldr         r0, [r0, #0x30]

; 4963 : }

  00004	e12fff1e	 bx          lr
  00008		 |$M40899|

			 ENDP  ; |?isResizerEnabled@OMAPSurface@@QAAHXZ|, OMAPSurface::isResizerEnabled

	EXPORT	|?GetRSZHandle@OMAPSurface@@QAAPAXH@Z|	; OMAPSurface::GetRSZHandle
	EXPORT	|??_C@_1M@JCBPODIL@?$AAR?$AAS?$AAZ?$AA1?$AA?3?$AA?$AA@| [ DATA ] ; `string'
	IMPORT	|CreateFileW|

  00000			 AREA	 |.pdata|, PDATA
|$T40912| DCD	|$LN7@GetRSZHand|
	DCD	0x40001a02

  00000			 AREA	 |.rdata|, DATA, READONLY
|??_C@_1M@JCBPODIL@?$AAR?$AAS?$AAZ?$AA1?$AA?3?$AA?$AA@| DCB "R", 0x0, "S", 0x0
	DCB	"Z", 0x0, "1", 0x0, ":", 0x0, 0x0, 0x0	; `string'
; Function compile flags: /Ogspy

  00000			 AREA	 |.text|, CODE, ARM

  00000		 |?GetRSZHandle@OMAPSurface@@QAAPAXH@Z| PROC ; OMAPSurface::GetRSZHandle

; 4967 : {

  00000		 |$LN7@GetRSZHand|
  00000	e92d4030	 stmdb       sp!, {r4, r5, lr}
  00004	e24dd00c	 sub         sp, sp, #0xC
  00008		 |$M40909|
  00008	e1a04000	 mov         r4, r0

; 4968 :     if ((m_hRSZHandle == NULL) && alloc)

  0000c	e5943034	 ldr         r3, [r4, #0x34]
  00010	e3530000	 cmp         r3, #0
  00014	1a00000e	 bne         |$LN1@GetRSZHand|
  00018	e3510000	 cmp         r1, #0
  0001c	0a00000c	 beq         |$LN1@GetRSZHand|

; 4969 :     {
; 4970 :         m_hRSZHandle = CreateFile( _T("RSZ1:"), 
; 4971 :                                         GENERIC_READ | GENERIC_WRITE, 0, NULL,
; 4972 :                                         OPEN_EXISTING, 0, 0 );

  00020	e59f003c	 ldr         r0, [pc, #0x3C]
  00024	e3a0e003	 mov         lr, #3
  00028	e3a05000	 mov         r5, #0
  0002c	e3a03000	 mov         r3, #0
  00030	e3a02000	 mov         r2, #0
  00034	e3a01103	 mov         r1, #3, 2
  00038	e58d5008	 str         r5, [sp, #8]
  0003c	e58d5004	 str         r5, [sp, #4]
  00040	e58de000	 str         lr, [sp]
  00044	eb000000	 bl          CreateFileW

; 4973 :         if (m_hRSZHandle == INVALID_HANDLE_VALUE)

  00048	e3700001	 cmn         r0, #1
  0004c	e5840034	 str         r0, [r4, #0x34]

; 4974 :             m_hRSZHandle = NULL;

  00050	05845034	 streq       r5, [r4, #0x34]
  00054		 |$LN1@GetRSZHand|

; 4975 : 
; 4976 :         DEBUGMSG(ZONE_WARNING, (L"GetRSZHandle: Open handle 0x%x \r\n",m_hRSZHandle));
; 4977 :         
; 4978 :     }
; 4979 :     return m_hRSZHandle;

  00054	e5940034	 ldr         r0, [r4, #0x34]

; 4980 : }

  00058	e28dd00c	 add         sp, sp, #0xC
  0005c	e8bd4030	 ldmia       sp!, {r4, r5, lr}
  00060	e12fff1e	 bx          lr
  00064		 |$LN8@GetRSZHand|
  00064		 |$LN9@GetRSZHand|
  00064	00000000	 DCD         |??_C@_1M@JCBPODIL@?$AAR?$AAS?$AAZ?$AA1?$AA?3?$AA?$AA@|
  00068		 |$M40910|

			 ENDP  ; |?GetRSZHandle@OMAPSurface@@QAAPAXH@Z|, OMAPSurface::GetRSZHandle

	EXPORT	|?SetRSZHandle@OMAPSurface@@QAAXPAXH@Z|	; OMAPSurface::SetRSZHandle

  00000			 AREA	 |.pdata|, PDATA
|$T40924| DCD	|$LN6@SetRSZHand|
	DCD	0x40000f01
; Function compile flags: /Ogspy

  00000			 AREA	 |.text|, CODE, ARM

  00000		 |?SetRSZHandle@OMAPSurface@@QAAXPAXH@Z| PROC ; OMAPSurface::SetRSZHandle

; 4983 : {

  00000		 |$LN6@SetRSZHand|
  00000	e92d4030	 stmdb       sp!, {r4, r5, lr}
  00004		 |$M40921|
  00004	e1a05001	 mov         r5, r1
  00008	e1a04000	 mov         r4, r0

; 4984 :     if ((m_hRSZHandle != NULL) && freeHandle)

  0000c	e5943034	 ldr         r3, [r4, #0x34]
  00010	e3530000	 cmp         r3, #0
  00014	0a000005	 beq         |$LN1@SetRSZHand|
  00018	e3520000	 cmp         r2, #0
  0001c	0a000003	 beq         |$LN1@SetRSZHand|

; 4985 :     {        
; 4986 :         CloseHandle(m_hRSZHandle);

  00020	e1a00003	 mov         r0, r3
  00024	eb000000	 bl          CloseHandle

; 4987 :         
; 4988 :         m_hRSZHandle = NULL;

  00028	e3a03000	 mov         r3, #0
  0002c	e5843034	 str         r3, [r4, #0x34]
  00030		 |$LN1@SetRSZHand|

; 4989 :     }
; 4990 : 
; 4991 :     m_hRSZHandle = rszHandle;

  00030	e5845034	 str         r5, [r4, #0x34]

; 4992 : }

  00034	e8bd4030	 ldmia       sp!, {r4, r5, lr}
  00038	e12fff1e	 bx          lr
  0003c		 |$M40922|

			 ENDP  ; |?SetRSZHandle@OMAPSurface@@QAAXPAXH@Z|, OMAPSurface::SetRSZHandle

	EXPORT	|?ConfigResizerParams@OMAPSurface@@QAAHPAUtagRECT@@0W4OMAP_DSS_ROTATION@@@Z| ; OMAPSurface::ConfigResizerParams
	IMPORT	|DeviceIoControl|

  00000			 AREA	 |.pdata|, PDATA
|$T40937| DCD	|$LN10@ConfigResi|
	DCD	0x40004e02
; Function compile flags: /Ogspy

  00000			 AREA	 |.text|, CODE, ARM

  00000		 |?ConfigResizerParams@OMAPSurface@@QAAHPAUtagRECT@@0W4OMAP_DSS_ROTATION@@@Z| PROC ; OMAPSurface::ConfigResizerParams

; 4996 : {	

  00000		 |$LN10@ConfigResi|
  00000	e92d47f0	 stmdb       sp!, {r4 - r10, lr}
  00004	e24dd010	 sub         sp, sp, #0x10
  00008		 |$M40934|
  00008	e1a06003	 mov         r6, r3
  0000c	e1a08002	 mov         r8, r2
  00010	e1a07001	 mov         r7, r1
  00014	e1a09000	 mov         r9, r0

; 4997 :     BOOL retCode = FALSE;
; 4998 :      
; 4999 :     //m_sRSZParams.ulReadAddr;
; 5000 :     m_sRSZParams.ulReadOffset = Stride(eRotation); /* input width * 2 */

  00018	e599e000	 ldr         lr, [r9]
  0001c	e1a01006	 mov         r1, r6
  00020	e59e4010	 ldr         r4, [lr, #0x10]
  00024	e1a0e00f	 mov         lr, pc
  00028	e12fff14	 bx          r4

; 5001 :     m_sRSZParams.ulReadAddrOffset = 0;
; 5002 :     m_sRSZParams.ulOutOffset = Stride(eRotation);     

  0002c	e599e000	 ldr         lr, [r9]
  00030	e1a04000	 mov         r4, r0
  00034	e3a0a000	 mov         r10, #0
  00038	e59e5010	 ldr         r5, [lr, #0x10]
  0003c	e1a01006	 mov         r1, r6
  00040	e1a00009	 mov         r0, r9
  00044	e289c03c	 add         r12, r9, #0x3C
  00048	e88c0410	 stmia       r12, {r4, r10}
  0004c	e1a0e00f	 mov         lr, pc
  00050	e12fff15	 bx          r5

; 5003 :     //m_sRSZParams.ulWriteAddr;
; 5004 : 
; 5005 :     m_sRSZParams.ulInputImageWidth = pSrcRect->right - pSrcRect->left;
; 5006 :     m_sRSZParams.ulInputImageHeight = pSrcRect->bottom - pSrcRect->top;
; 5007 : 
; 5008 :     m_sRSZParams.ulOutputImageWidth = pDestRect->right - pDestRect->left;
; 5009 :     m_sRSZParams.ulOutputImageHeight = pDestRect->bottom - pDestRect->top;
; 5010 :     m_sRSZParams.h_startphase = RSZ_DEFAULTSTPHASE;
; 5011 :     m_sRSZParams.v_startphase = RSZ_DEFAULTSTPHASE;
; 5012 :     //m_sRSZParams.h_resz;
; 5013 :     //m_sRSZParams.v_resz;
; 5014 :     //m_sRSZParams.algo;
; 5015 :     m_sRSZParams.width = m_sRSZParams.ulInputImageWidth;
; 5016 :     m_sRSZParams.height = m_sRSZParams.ulInputImageHeight;
; 5017 :     m_sRSZParams.cropTop = 0;
; 5018 :     m_sRSZParams.cropLeft = 0;     
; 5019 :     m_sRSZParams.cropWidth = m_sRSZParams.ulOutputImageWidth;
; 5020 :     m_sRSZParams.cropHeight = m_sRSZParams.ulOutputImageHeight;
; 5021 :     m_sRSZParams.bReadFromMemory = TRUE;
; 5022 :     m_sRSZParams.enableZoom = FALSE;
; 5023 :     m_sRSZParams.ulZoomFactor = 0;
; 5024 :     if (m_ePixelFormat == OMAP_DSS_PIXELFORMAT_UYVY)

  00054	e3a05001	 mov         r5, #1
  00058	e5890090	 str         r0, [r9, #0x90]
  0005c	e597e008	 ldr         lr, [r7, #8]
  00060	e5973000	 ldr         r3, [r7]
  00064	e5994004	 ldr         r4, [r9, #4]
  00068	e04e3003	 sub         r3, lr, r3
  0006c	e5893048	 str         r3, [r9, #0x48]
  00070	e597200c	 ldr         r2, [r7, #0xC]
  00074	e5973004	 ldr         r3, [r7, #4]
  00078	e599e048	 ldr         lr, [r9, #0x48]
  0007c	e354000b	 cmp         r4, #0xB
  00080	e0423003	 sub         r3, r2, r3
  00084	e589304c	 str         r3, [r9, #0x4C]
  00088	e5982008	 ldr         r2, [r8, #8]
  0008c	e5983000	 ldr         r3, [r8]
  00090	e599004c	 ldr         r0, [r9, #0x4C]
  00094	e0423003	 sub         r3, r2, r3
  00098	e5893050	 str         r3, [r9, #0x50]
  0009c	e598200c	 ldr         r2, [r8, #0xC]
  000a0	e5983004	 ldr         r3, [r8, #4]
  000a4	e5991050	 ldr         r1, [r9, #0x50]
  000a8	e589505c	 str         r5, [r9, #0x5C]
  000ac	e0423003	 sub         r3, r2, r3
  000b0	e289c054	 add         r12, r9, #0x54
  000b4	e88c0028	 stmia       r12, {r3, r5}
  000b8	e5993054	 ldr         r3, [r9, #0x54]
  000bc	e589e06c	 str         lr, [r9, #0x6C]
  000c0	e289c070	 add         r12, r9, #0x70
  000c4	e88c0401	 stmia       r12, {r0, r10}
  000c8	e589307c	 str         r3, [r9, #0x7C]
  000cc	e589a078	 str         r10, [r9, #0x78]
  000d0	e289c080	 add         r12, r9, #0x80
  000d4	e88c0422	 stmia       r12, {r1, r5, r10}
  000d8	e589a08c	 str         r10, [r9, #0x8C]

; 5025 :     {
; 5026 :         m_sRSZParams.ulInpType = RSZ_INTYPE_YCBCR422_16BIT; 

  000dc	0589a098	 streq       r10, [r9, #0x98]

; 5027 :         m_sRSZParams.ulPixFmt = RSZ_PIX_FMT_UYVY; 

  000e0	0589a094	 streq       r10, [r9, #0x94]
  000e4	0a000003	 beq         |$LN2@ConfigResi|

; 5028 :     }
; 5029 :     else if (m_ePixelFormat == OMAP_DSS_PIXELFORMAT_YUV2)        

  000e8	e354000a	 cmp         r4, #0xA
  000ec	1a00000d	 bne         |$LN3@ConfigResi|

; 5030 :     {
; 5031 :         m_sRSZParams.ulInpType = RSZ_INTYPE_YCBCR422_16BIT; 
; 5032 :         m_sRSZParams.ulPixFmt = RSZ_PIX_FMT_YUYV; 

  000f0	e289c094	 add         r12, r9, #0x94
  000f4	e88c0420	 stmia       r12, {r5, r10}
  000f8		 |$LN2@ConfigResi|

; 5038 :     }
; 5039 :     
; 5040 :     retCode = DeviceIoControl (  m_hRSZHandle,
; 5041 :                                  RSZ_IOCTL_SET_PARAMS,
; 5042 :                                  (LPVOID)&m_sRSZParams, 
; 5043 :                                  sizeof (RSZParams_t), 
; 5044 :                                  (LPVOID)&m_sRSZParams, 
; 5045 :                                  sizeof (RSZParams_t), NULL, NULL);

  000f8	e5990034	 ldr         r0, [r9, #0x34]
  000fc	e289e038	 add         lr, r9, #0x38
  00100	e3a04064	 mov         r4, #0x64
  00104	e1a0200e	 mov         r2, lr
  00108	e3a03064	 mov         r3, #0x64
  0010c	e3a01002	 mov         r1, #2
  00110	e58da00c	 str         r10, [sp, #0xC]
  00114	e58da008	 str         r10, [sp, #8]
  00118	e58d4004	 str         r4, [sp, #4]
  0011c	e58de000	 str         lr, [sp]
  00120	eb000000	 bl          DeviceIoControl

; 5046 : 
; 5047 :     if (!retCode)     
; 5048 :         DEBUGMSG(ZONE_WARNING, (L"ConfigResizerParams: handle 0x%x returned retCode %d \r\n",m_hRSZHandle,retCode));
; 5049 : 
; 5050 : 
; 5051 :      return retCode;

  00124	ea000000	 b           |$LN6@ConfigResi|
  00128		 |$LN3@ConfigResi|

; 5033 :     }
; 5034 :     else
; 5035 :     {
; 5036 :         DEBUGMSG(ZONE_WARNING, (L"ConfigResizerParams: Unsupported pixel type %d \r\n",m_ePixelFormat));
; 5037 :         return FALSE;

  00128	e3a00000	 mov         r0, #0
  0012c		 |$LN6@ConfigResi|

; 5052 :      
; 5053 : }

  0012c	e28dd010	 add         sp, sp, #0x10
  00130	e8bd47f0	 ldmia       sp!, {r4 - r10, lr}
  00134	e12fff1e	 bx          lr
  00138		 |$M40935|

			 ENDP  ; |?ConfigResizerParams@OMAPSurface@@QAAHPAUtagRECT@@0W4OMAP_DSS_ROTATION@@@Z|, OMAPSurface::ConfigResizerParams

	EXPORT	|?StartResizer@OMAPSurface@@QAAHKK@Z|	; OMAPSurface::StartResizer

  00000			 AREA	 |.pdata|, PDATA
|$T40950| DCD	|$LN8@StartResiz|
	DCD	0x40001d02
; Function compile flags: /Ogspy

  00000			 AREA	 |.text|, CODE, ARM

  00000		 |?StartResizer@OMAPSurface@@QAAHKK@Z| PROC ; OMAPSurface::StartResizer

; 5056 : {

  00000		 |$LN8@StartResiz|
  00000	e92d40f0	 stmdb       sp!, {r4 - r7, lr}
  00004	e24dd010	 sub         sp, sp, #0x10
  00008		 |$M40947|
  00008	e1a06002	 mov         r6, r2
  0000c	e1a04001	 mov         r4, r1
  00010	e1a05000	 mov         r5, r0

; 5057 :     BOOL retCode = FALSE;   
; 5058 :     DWORD dwInAddrOffset = 0;

  00014	e3a0e000	 mov         lr, #0

; 5059 :     if (dwInAddr%32!=0)

  00018	e214101f	 ands        r1, r4, #0x1F
  0001c	0a000004	 beq         |$LN2@StartResiz|

; 5060 :     {
; 5061 :         dwInAddrOffset=dwInAddr&0x1F;
; 5062 :         dwInAddr=(dwInAddr>>5)<<5;
; 5063 :         if (m_sRSZParams.ulInpType == RSZ_INTYPE_YCBCR422_16BIT)

  00020	e5953098	 ldr         r3, [r5, #0x98]
  00024	e1a0e001	 mov         lr, r1
  00028	e3c4401f	 bic         r4, r4, #0x1F
  0002c	e3530000	 cmp         r3, #0

; 5064 :             dwInAddrOffset/=2;

  00030	01a0e0a1	 moveq       lr, r1, lsr #1
  00034		 |$LN2@StartResiz|

; 5065 :     }
; 5066 :     m_sRSZParams.ulReadAddr = dwInAddr;
; 5067 :     m_sRSZParams.ulWriteAddr = dwOutAddr;
; 5068 :     m_sRSZParams.cropLeft = dwInAddrOffset;
; 5069 :     retCode = DeviceIoControl ( m_hRSZHandle,
; 5070 :                                  RSZ_IOCTL_START_RESIZER,
; 5071 :                                  (LPVOID)&m_sRSZParams, 
; 5072 :                                  sizeof (RSZParams_t), 
; 5073 :                                  NULL, 0, NULL, NULL);

  00034	e5950034	 ldr         r0, [r5, #0x34]
  00038	e3a07000	 mov         r7, #0
  0003c	e3a03064	 mov         r3, #0x64
  00040	e2852038	 add         r2, r5, #0x38
  00044	e3a01004	 mov         r1, #4
  00048	e5854038	 str         r4, [r5, #0x38]
  0004c	e5856044	 str         r6, [r5, #0x44]
  00050	e585e078	 str         lr, [r5, #0x78]
  00054	e58d700c	 str         r7, [sp, #0xC]
  00058	e58d7008	 str         r7, [sp, #8]
  0005c	e58d7004	 str         r7, [sp, #4]
  00060	e58d7000	 str         r7, [sp]
  00064	eb000000	 bl          DeviceIoControl

; 5074 :     if (!retCode)     
; 5075 :         DEBUGMSG(ZONE_WARNING, (L"StartResizer: handle 0x%x inAddr 0x%x outAddr 0x%x cropLeft %d returned retCode %d",
; 5076 :                         m_hRSZHandle,dwInAddr,dwOutAddr,dwInAddrOffset,retCode));
; 5077 : 
; 5078 :     return retCode;
; 5079 : }

  00068	e28dd010	 add         sp, sp, #0x10
  0006c	e8bd40f0	 ldmia       sp!, {r4 - r7, lr}
  00070	e12fff1e	 bx          lr
  00074		 |$M40948|

			 ENDP  ; |?StartResizer@OMAPSurface@@QAAHKK@Z|, OMAPSurface::StartResizer

	EXPORT	|?EnableOverlayOptimization@OMAPDisplayController@@QAAXH@Z| ; OMAPDisplayController::EnableOverlayOptimization
; File c:\wince600\platform\common\src\soc\common_ti_v1\common_ti\dss\inc\dssai.h

  00000			 AREA	 |.pdata|, PDATA
|$T40976| DCD	|$LN18@EnableOver|
	DCD	0x40004501
; Function compile flags: /Ogspy
; File c:\wince600\platform\common\src\soc\common_ti_v1\common_ti\dss\dssai\dssai.cpp

  00000			 AREA	 |.text|, CODE, ARM

  00000		 |?EnableOverlayOptimization@OMAPDisplayController@@QAAXH@Z| PROC ; OMAPDisplayController::EnableOverlayOptimization

; 5144 : {

  00000		 |$LN18@EnableOver|
  00000	e92d43f0	 stmdb       sp!, {r4 - r9, lr}
  00004		 |$M40973|
  00004	e3510000	 cmp         r1, #0

; 5145 :     DWORD dwWindowSkip = 0;  

  00008	e3a02000	 mov         r2, #0

; 5146 : 
; 5147 :     //Enable Overlay optimization if no colorkeying, no alpha blending and only VID1 layer is visible
; 5148 :     //going to LCD destination
; 5149 :     if( bEnable &&
; 5150 :         g_rgPipelineMapping[OMAP_DSS_PIPELINE_GFX].pSurface != NULL &&           
; 5151 :         g_rgPipelineMapping[OMAP_DSS_PIPELINE_GFX].bEnabled == TRUE &&
; 5152 :         g_rgPipelineMapping[OMAP_DSS_PIPELINE_VIDEO1].eDestination == OMAP_DSS_DESTINATION_LCD &&
; 5153 :         g_rgPipelineMapping[OMAP_DSS_PIPELINE_VIDEO1].bEnabled == TRUE &&
; 5154 :         g_rgPipelineMapping[OMAP_DSS_PIPELINE_VIDEO2].bEnabled == FALSE && 
; 5155 :         (INREG32(&m_pDispRegs->DISPC_CONFIG) & DISPC_CONFIG_TCKLCDENABLE) == 0 &&
; 5156 :         (INREG32( &m_pDispRegs->DISPC_CONFIG) & DISPC_CONFIG_LCDALPHABLENDERENABLE) == 0)

  0000c	0a000035	 beq         |$LN3@EnableOver|
  00010	e59f10f8	 ldr         r1, [pc, #0xF8]
  00014	e5915008	 ldr         r5, [r1, #8]
  00018	e3550000	 cmp         r5, #0
  0001c	0a000031	 beq         |$LN3@EnableOver|
  00020	e5913000	 ldr         r3, [r1]
  00024	e3530001	 cmp         r3, #1
  00028	1a00002e	 bne         |$LN3@EnableOver|
  0002c	e5913024	 ldr         r3, [r1, #0x24]
  00030	e3530000	 cmp         r3, #0
  00034	1a00002b	 bne         |$LN3@EnableOver|
  00038	e5913020	 ldr         r3, [r1, #0x20]
  0003c	e3530001	 cmp         r3, #1
  00040	1a000028	 bne         |$LN3@EnableOver|
  00044	e5913040	 ldr         r3, [r1, #0x40]
  00048	e3530000	 cmp         r3, #0
  0004c	1a000025	 bne         |$LN3@EnableOver|
  00050	e590e008	 ldr         lr, [r0, #8]
  00054	e59e3044	 ldr         r3, [lr, #0x44]
  00058	e3130b01	 tst         r3, #1, 22
  0005c	1a000021	 bne         |$LN3@EnableOver|
  00060	e59e3044	 ldr         r3, [lr, #0x44]
  00064	e3130701	 tst         r3, #1, 14
  00068	1a00001e	 bne         |$LN3@EnableOver|

; 5157 :     {
; 5158 :          //Assume overlay destination is always contained within the GFX window inclusive  
; 5159 :         OMAPSurface *pGFXSurface = g_rgPipelineMapping[OMAP_DSS_PIPELINE_GFX].pSurface;             
; 5160 :         DWORD dwGFXWidth = g_rgPipelineMapping[OMAP_DSS_PIPELINE_GFX].dwDestWidth;
; 5161 :         DWORD dwGFXHeight = g_rgPipelineMapping[OMAP_DSS_PIPELINE_GFX].dwDestHeight;
; 5162 :         DWORD dwDestWidth = g_rgPipelineMapping[OMAP_DSS_PIPELINE_VIDEO1].dwDestWidth;
; 5163 :         DWORD dwDestHeight = g_rgPipelineMapping[OMAP_DSS_PIPELINE_VIDEO1].dwDestHeight;
; 5164 :         DWORD dwPosX =  INREG32(&m_pDispRegs->tDISPC_VID1.POSITION) & 0xFFFF;

  0006c	e59e20c4	 ldr         r2, [lr, #0xC4]
  00070	e5919014	 ldr         r9, [r1, #0x14]
  00074	e5914034	 ldr         r4, [r1, #0x34]
  00078	e3a03cff	 mov         r3, #0xFF, 24

; 5165 :         DWORD dwGFXPixInc = INREG32(&m_pDispRegs->DISPC_GFX_PIXEL_INC);
; 5166 :         DWORD dwGFXRowInc = INREG32(&m_pDispRegs->DISPC_GFX_ROW_INC);

  0007c	e59e60b0	 ldr         r6, [lr, #0xB0]
  00080	e38330ff	 orr         r3, r3, #0xFF
  00084	e5918038	 ldr         r8, [r1, #0x38]
  00088	e59ee0ac	 ldr         lr, [lr, #0xAC]
  0008c	e0027003	 and         r7, r2, r3

; 5167 :                
; 5168 :         //Simulate how the DMA controller would skip bytes
; 5169 :         //1.after every pixel read DMA controller index = index + BPP-1
; 5170 :         //2.After every pixel read, index = index+PIXEL_INC, unless it's the last pixel in the row
; 5171 :         //3.At the end of each row, index = index+ROW_INC       
; 5172 :         if( (dwDestWidth == dwGFXWidth) && (dwDestHeight == dwGFXHeight) )

  00090	e1540009	 cmp         r4, r9
  00094	1a00000b	 bne         |$LN5@EnableOver|
  00098	e5913018	 ldr         r3, [r1, #0x18]
  0009c	e1580003	 cmp         r8, r3

; 5173 :         {
; 5174 :             //  Whole video layer covers GFX
; 5175 :             dwWindowSkip = 0;

  000a0	03a02000	 moveq       r2, #0
  000a4	0a00000f	 beq         |$LN3@EnableOver|

; 5176 :         }
; 5177 :         else if(dwDestWidth == dwGFXWidth)
; 5178 :         {               
; 5179 :             DWORD dwPixIncPerRow = dwGFXPixInc*(dwDestWidth-1);
; 5180 :             DWORD dwByteReadsPerRow = dwDestWidth*(pGFXSurface->PixelSize()-1);

  000a8	e5953008	 ldr         r3, [r5, #8]
  000ac	e2441001	 sub         r1, r4, #1
  000b0	e2433001	 sub         r3, r3, #1
  000b4	e0020493	 mul         r2, r3, r4
  000b8	e0232691	 mla         r3, r1, r6, r2

; 5181 :             dwWindowSkip = dwDestHeight*(dwPixIncPerRow+dwByteReadsPerRow+dwGFXRowInc);         

  000bc	e083300e	 add         r3, r3, lr
  000c0	e0020893	 mul         r2, r3, r8

; 5182 :         }        
; 5183 :         else  

  000c4	ea000007	 b           |$LN3@EnableOver|
  000c8		 |$LN5@EnableOver|

; 5184 :         {              
; 5185 :             dwWindowSkip = dwDestWidth*(dwGFXPixInc+(pGFXSurface->PixelSize()-1));  

  000c8	e5953008	 ldr         r3, [r5, #8]

; 5186 :             if(dwPosX != 0 && (dwPosX+dwDestWidth) != dwGFXWidth)

  000cc	e3570000	 cmp         r7, #0
  000d0	e0833006	 add         r3, r3, r6
  000d4	e2433001	 sub         r3, r3, #1
  000d8	e0020493	 mul         r2, r3, r4
  000dc	10873004	 addne       r3, r7, r4
  000e0	11530009	 cmpne       r3, r9

; 5187 :             {
; 5188 :                 //additional pixel increment needed
; 5189 :                 dwWindowSkip +=dwGFXPixInc;  

  000e4	10822006	 addne       r2, r2, r6
  000e8		 |$LN3@EnableOver|

; 5190 :             }
; 5191 :         }                        
; 5192 :     }
; 5193 : 
; 5194 : 
; 5195 :     //  Set window skip value
; 5196 :     OUTREG32(&m_pDispRegs->DISPC_GFX_WINDOW_SKIP, dwWindowSkip);

  000e8	e5903008	 ldr         r3, [r0, #8]

; 5197 : 
; 5198 :     //  Enable/disable window skip
; 5199 :     if( dwWindowSkip != 0 )

  000ec	e3520000	 cmp         r2, #0
  000f0	e58320b4	 str         r2, [r3, #0xB4]

; 5200 :         SETREG32(&m_pDispRegs->DISPC_CONTROL, DISPC_CONTROL_OVERLAY_OPTIMIZATION);        

  000f4	e5902008	 ldr         r2, [r0, #8]
  000f8	e5923040	 ldr         r3, [r2, #0x40]
  000fc	13833a01	 orrne       r3, r3, #1, 20

; 5201 :     else
; 5202 :         CLRREG32(&m_pDispRegs->DISPC_CONTROL, DISPC_CONTROL_OVERLAY_OPTIMIZATION);        

  00100	03c33a01	 biceq       r3, r3, #1, 20
  00104	e5823040	 str         r3, [r2, #0x40]

; 5203 : }

  00108	e8bd43f0	 ldmia       sp!, {r4 - r9, lr}
  0010c	e12fff1e	 bx          lr
  00110		 |$LN19@EnableOver|
  00110		 |$LN20@EnableOver|
  00110	00000000	 DCD         |?g_rgPipelineMapping@@3PAUOMAPPipelineConfig@@A|
  00114		 |$M40974|

			 ENDP  ; |?EnableOverlayOptimization@OMAPDisplayController@@QAAXH@Z|, OMAPDisplayController::EnableOverlayOptimization

	EXPORT	|?SetDssFclk@OMAPDisplayController@@IAAHW4OMAP_DSS_FCLK@@W4OMAP_DSS_FCLKVALUE@@@Z| ; OMAPDisplayController::SetDssFclk

  00000			 AREA	 |.pdata|, PDATA
|$T40987| DCD	|$LN5@SetDssFclk|
	DCD	0x40000200
; Function compile flags: /Ogspy

  00000			 AREA	 |.text|, CODE, ARM

  00000		 |?SetDssFclk@OMAPDisplayController@@IAAHW4OMAP_DSS_FCLK@@W4OMAP_DSS_FCLKVALUE@@@Z| PROC ; OMAPDisplayController::SetDssFclk

; 5211 : {

  00000		 |$LN5@SetDssFclk|
  00000		 |$M40984|

; 5212 :     BOOL bRet = TRUE;
; 5213 :     
; 5214 :     UNREFERENCED_PARAMETER(eDssFclkValue);
; 5215 :     UNREFERENCED_PARAMETER(eDssFclkSource);
; 5216 : 
; 5217 :     return bRet;

  00000	e3a00001	 mov         r0, #1

; 5218 : }

  00004	e12fff1e	 bx          lr
  00008		 |$M40985|

			 ENDP  ; |?SetDssFclk@OMAPDisplayController@@IAAHW4OMAP_DSS_FCLK@@W4OMAP_DSS_FCLKVALUE@@@Z|, OMAPDisplayController::SetDssFclk

	EXPORT	|?InitDsiPll@OMAPDisplayController@@IAAHXZ| ; OMAPDisplayController::InitDsiPll
	EXPORT	|??_C@_1CI@BKOMHDDL@?$AAD?$AAS?$AAI?$AA?5?$AAP?$AAL?$AAL?$AA?5?$AAn?$AAo?$AAt?$AA?5?$AAr?$AAe?$AAs?$AAe?$AAt?$AA?$AN?$AA?6?$AA?$AA@| [ DATA ] ; `string'
	EXPORT	|??_C@_1DO@OPIOMKJF@?$AAU?$AAn?$AAa?$AAb?$AAl?$AAe?$AA?5?$AAt?$AAo?$AA?5?$AAt?$AAu?$AAr?$AAn?$AA?5?$AAo?$AAn?$AA?5?$AAD?$AAS?$AAI?$AA?5?$AAP?$AAL?$AAL?$AA?5?$AA?$CF?$AAx?$AA?$AN?$AA?6?$AA?$AA@| [ DATA ] ; `string'
	EXPORT	|??_C@_1GA@HEOPJPGD@?$AAE?$AAR?$AAR?$AAO?$AAR?$AA?3?$AA?5?$AAI?$AAn?$AAi?$AAt?$AAD?$AAS?$AAI?$AAP?$AAL?$AAL?$AA?3?$AA?3?$AAF?$AAa?$AAi?$AAl?$AAe?$AAd?$AA?5?$AAt?$AAo?$AA?5?$AAr?$AAe?$AAs@| [ DATA ] ; `string'
	IMPORT	|NKDbgPrintfW|

  00000			 AREA	 |.pdata|, PDATA
|$T41019| DCD	|$LN33@InitDsiPll|
	DCD	0x40004c01

  00000			 AREA	 |.rdata|, DATA, READONLY
|??_C@_1CI@BKOMHDDL@?$AAD?$AAS?$AAI?$AA?5?$AAP?$AAL?$AAL?$AA?5?$AAn?$AAo?$AAt?$AA?5?$AAr?$AAe?$AAs?$AAe?$AAt?$AA?$AN?$AA?6?$AA?$AA@| DCB "D"
	DCB	0x0, "S", 0x0, "I", 0x0, " ", 0x0, "P", 0x0, "L", 0x0, "L"
	DCB	0x0, " ", 0x0, "n", 0x0, "o", 0x0, "t", 0x0, " ", 0x0, "r"
	DCB	0x0, "e", 0x0, "s", 0x0, "e", 0x0, "t", 0x0, 0xd, 0x0, 0xa
	DCB	0x0, 0x0, 0x0				; `string'

  00000			 AREA	 |.rdata|, DATA, READONLY
|??_C@_1DO@OPIOMKJF@?$AAU?$AAn?$AAa?$AAb?$AAl?$AAe?$AA?5?$AAt?$AAo?$AA?5?$AAt?$AAu?$AAr?$AAn?$AA?5?$AAo?$AAn?$AA?5?$AAD?$AAS?$AAI?$AA?5?$AAP?$AAL?$AAL?$AA?5?$AA?$CF?$AAx?$AA?$AN?$AA?6?$AA?$AA@| DCB "U"
	DCB	0x0, "n", 0x0, "a", 0x0, "b", 0x0, "l", 0x0, "e", 0x0, " "
	DCB	0x0, "t", 0x0, "o", 0x0, " ", 0x0, "t", 0x0, "u", 0x0, "r"
	DCB	0x0, "n", 0x0, " ", 0x0, "o", 0x0, "n", 0x0, " ", 0x0, "D"
	DCB	0x0, "S", 0x0, "I", 0x0, " ", 0x0, "P", 0x0, "L", 0x0, "L"
	DCB	0x0, " ", 0x0, "%", 0x0, "x", 0x0, 0xd, 0x0, 0xa, 0x0, 0x0
	DCB	0x0					; `string'

  00000			 AREA	 |.rdata|, DATA, READONLY
|??_C@_1GA@HEOPJPGD@?$AAE?$AAR?$AAR?$AAO?$AAR?$AA?3?$AA?5?$AAI?$AAn?$AAi?$AAt?$AAD?$AAS?$AAI?$AAP?$AAL?$AAL?$AA?3?$AA?3?$AAF?$AAa?$AAi?$AAl?$AAe?$AAd?$AA?5?$AAt?$AAo?$AA?5?$AAr?$AAe?$AAs@| DCB "E"
	DCB	0x0, "R", 0x0, "R", 0x0, "O", 0x0, "R", 0x0, ":", 0x0, " "
	DCB	0x0, "I", 0x0, "n", 0x0, "i", 0x0, "t", 0x0, "D", 0x0, "S"
	DCB	0x0, "I", 0x0, "P", 0x0, "L", 0x0, "L", 0x0, ":", 0x0, ":"
	DCB	0x0, "F", 0x0, "a", 0x0, "i", 0x0, "l", 0x0, "e", 0x0, "d"
	DCB	0x0, " ", 0x0, "t", 0x0, "o", 0x0, " ", 0x0, "r", 0x0, "e"
	DCB	0x0, "s", 0x0, "e", 0x0, "t", 0x0, " ", 0x0, "D", 0x0, "S"
	DCB	0x0, "I", 0x0, " ", 0x0, "M", 0x0, "o", 0x0, "d", 0x0, "u"
	DCB	0x0, "l", 0x0, "e", 0x0, 0xd, 0x0, 0xa, 0x0, 0x0, 0x0 ; `string'
; Function compile flags: /Ogspy

  00000			 AREA	 |.text|, CODE, ARM

  00000		 |?InitDsiPll@OMAPDisplayController@@IAAHXZ| PROC ; OMAPDisplayController::InitDsiPll

; 5223 : {

  00000		 |$LN33@InitDsiPll|
  00000	e92d40f0	 stmdb       sp!, {r4 - r7, lr}
  00004		 |$M41016|
  00004	e1a07000	 mov         r7, r0

; 5224 :     BOOL  bRet = TRUE;
; 5225 :     ULONG count = 100;                  //count for timed status check
; 5226 :     ULONG value;
; 5227 :     
; 5228 :     // PCLKFREE should be set for DSI
; 5229 :     value  = INREG32( &m_pDispRegs->DISPC_CONTROL);

  00008	e5972008	 ldr         r2, [r7, #8]
  0000c	e3a06001	 mov         r6, #1
  00010	e3a04064	 mov         r4, #0x64
  00014	e5923040	 ldr         r3, [r2, #0x40]

; 5230 :     value |= DISPC_CONTROL_PCKFREEENABLE_ENABLED;

  00018	e3833302	 orr         r3, r3, #2, 6

; 5231 :     OUTREG32( &m_pDispRegs->DISPC_CONTROL, value);

  0001c	e5823040	 str         r3, [r2, #0x40]

; 5232 : 
; 5233 :     // Reset the DSI protocol engine
; 5234 :     SETREG32( &m_pDSIRegs->DSI_SYSCONFIG, SYSCONFIG_SOFTRESET);

  00020	e5972010	 ldr         r2, [r7, #0x10]
  00024	e5923010	 ldr         r3, [r2, #0x10]
  00028	e3833002	 orr         r3, r3, #2
  0002c	e5823010	 str         r3, [r2, #0x10]

; 5235 : 
; 5236 :     // Wait for reset to complete
; 5237 :     while (((INREG32(&m_pDSIRegs->DSI_SYSSTATUS)) != SYSSTATUS_RESETDONE) && (--count))

  00030	ea000003	 b           |$LN30@InitDsiPll|
  00034		 |$LL15@InitDsiPll|
  00034	e2544001	 subs        r4, r4, #1
  00038	0a000025	 beq         |$LN28@InitDsiPll|

; 5238 :     {
; 5239 :         StallExecution(1000);

  0003c	e3a00ffa	 mov         r0, #0xFA, 30
  00040	eb000000	 bl          StallExecution
  00044		 |$LN30@InitDsiPll|
  00044	e5973010	 ldr         r3, [r7, #0x10]
  00048	e5933014	 ldr         r3, [r3, #0x14]
  0004c	e3530001	 cmp         r3, #1
  00050	1afffff7	 bne         |$LL15@InitDsiPll|

; 5247 :         goto Clean;
; 5248 :     }
; 5249 : 
; 5250 :     //  Configure for idle during inactivity
; 5251 :     OUTREG32( &m_pDSIRegs->DSI_SYSCONFIG,  
; 5252 :                 SYSCONFIG_AUTOIDLE  |
; 5253 :                 SYSCONFIG_ENAWAKEUP |
; 5254 :                 SYSCONFIG_SMARTIDLE
; 5255 :                 );

  00054	e5973010	 ldr         r3, [r7, #0x10]
  00058	e3a02015	 mov         r2, #0x15
  0005c	e3e01103	 mvn         r1, #3, 2
  00060	e5832010	 str         r2, [r3, #0x10]

; 5256 : 
; 5257 :     // Clear the DSI IRQ status
; 5258 :     value = INREG32( &m_pDSIRegs->DSI_IRQSTATUS);

  00064	e5972010	 ldr         r2, [r7, #0x10]

; 5259 :     OUTREG32( &m_pDSIRegs->DSI_IRQSTATUS, value);
; 5260 : 
; 5261 :     // Enable the Pwr to the DSI sub modules
; 5262 :     value  = INREG32( &m_pDSIRegs->DSI_CLK_CTRL);
; 5263 :     // clear the current pwr cmd value
; 5264 :     value  = (value & ~(DSI_CLK_CTRL_PLL_PWR_CMD_MASK));

  00068	e2210a02	 eor         r0, r1, #2, 20
  0006c	e3a01102	 mov         r1, #2, 2
  00070	e5923018	 ldr         r3, [r2, #0x18]

; 5265 :     // set the pwr cmd for enabling pwr to PLL and HS DIVIDER
; 5266 :     value |= (DSI_CLK_CTRL_PLL_PWR_CMD_ON_PLLANDHS)|(1 << 13);

  00074	e3811a02	 orr         r1, r1, #2, 20

; 5267 :     OUTREG32( &m_pDSIRegs->DSI_CLK_CTRL, value);
; 5268 : 
; 5269 :     // Check whether the power status is changed
; 5270 :     count = 1000;

  00078	e3a05ffa	 mov         r5, #0xFA, 30
  0007c	e5823018	 str         r3, [r2, #0x18]
  00080	e5972010	 ldr         r2, [r7, #0x10]
  00084	e5923054	 ldr         r3, [r2, #0x54]
  00088	e0033000	 and         r3, r3, r0
  0008c	e1833001	 orr         r3, r3, r1
  00090	e5823054	 str         r3, [r2, #0x54]
  00094		 |$LL11@InitDsiPll|

; 5271 :     do
; 5272 :     {
; 5273 :         value = INREG32( &m_pDSIRegs->DSI_CLK_CTRL);

  00094	e5973010	 ldr         r3, [r7, #0x10]

; 5274 :         value = (value & DSI_CLK_CTRL_PLL_PWR_STATUS_ON_PLLANDHS);
; 5275 :         StallExecution(1000);

  00098	e3a00ffa	 mov         r0, #0xFA, 30
  0009c	e5934054	 ldr         r4, [r3, #0x54]
  000a0	eb000000	 bl          StallExecution

; 5276 :     }
; 5277 :     while ((value == 0) && (--count));

  000a4	e3140202	 tst         r4, #2, 4
  000a8	1a000001	 bne         |$LN8@InitDsiPll|
  000ac	e2555001	 subs        r5, r5, #1
  000b0	1afffff7	 bne         |$LL11@InitDsiPll|
  000b4		 |$LN8@InitDsiPll|

; 5278 : 
; 5279 :     if (count == 0)

  000b4	e3550000	 cmp         r5, #0
  000b8	1a000009	 bne         |$LN7@InitDsiPll|

; 5280 :     {
; 5281 :         bRet = FALSE;
; 5282 :         RETAILMSG(1,(L"Unable to turn on DSI PLL %x\r\n",
; 5283 :             INREG32(&m_pDSIRegs->DSI_CLK_CTRL)\
; 5284 :             ));

  000bc	e5973010	 ldr         r3, [r7, #0x10]
  000c0	e59f0064	 ldr         r0, [pc, #0x64]
  000c4	e3a06000	 mov         r6, #0
  000c8	e5931054	 ldr         r1, [r3, #0x54]
  000cc	eb000000	 bl          NKDbgPrintfW

; 5302 :     }
; 5303 : 
; 5304 : Clean:

  000d0	ea000010	 b           |$Clean$39896|
  000d4		 |$LN28@InitDsiPll|

; 5240 :     }
; 5241 : 
; 5242 :     if (count == 0)
; 5243 :     {
; 5244 :         RETAILMSG(1,(L"ERROR: InitDSIPLL::"
; 5245 :                      L"Failed to reset DSI Module\r\n"));

  000d4	e59f004c	 ldr         r0, [pc, #0x4C]
  000d8	eb000000	 bl          NKDbgPrintfW

; 5246 :         bRet = FALSE;

  000dc	e3a06000	 mov         r6, #0
  000e0	ea00000c	 b           |$Clean$39896|
  000e4		 |$LN7@InitDsiPll|

; 5285 :         goto Clean;
; 5286 :     }
; 5287 : 
; 5288 :     // Check for the PLL reset complete status
; 5289 :     count = 100;

  000e4	e3a05064	 mov         r5, #0x64
  000e8		 |$LL5@InitDsiPll|

; 5290 :     do
; 5291 :     {
; 5292 :         value = INREG32( &m_pDSIPLLRegs->DSI_PLL_STATUS);

  000e8	e5973014	 ldr         r3, [r7, #0x14]

; 5293 :         value = (value & DSI_PLLCTRL_RESET_DONE_STATUS);
; 5294 :         StallExecution(1000);

  000ec	e3a00ffa	 mov         r0, #0xFA, 30
  000f0	e5934004	 ldr         r4, [r3, #4]
  000f4	eb000000	 bl          StallExecution

; 5295 :     }
; 5296 :     while ((value == 0) && (--count));

  000f8	e3140001	 tst         r4, #1
  000fc	1a000001	 bne         |$LN2@InitDsiPll|
  00100	e2555001	 subs        r5, r5, #1
  00104	1afffff7	 bne         |$LL5@InitDsiPll|
  00108		 |$LN2@InitDsiPll|

; 5297 : 
; 5298 :     if (count == 0)

  00108	e3550000	 cmp         r5, #0

; 5299 :     {
; 5300 :         bRet = FALSE;
; 5301 :         RETAILMSG(1,(L"DSI PLL not reset\r\n"));

  0010c	059f0010	 ldreq       r0, [pc, #0x10]
  00110	03a06000	 moveq       r6, #0
  00114	0b000000	 bleq        NKDbgPrintfW
  00118		 |$Clean$39896|

; 5305 :     return bRet;
; 5306 : }

  00118	e1a00006	 mov         r0, r6
  0011c	e8bd40f0	 ldmia       sp!, {r4 - r7, lr}
  00120	e12fff1e	 bx          lr
  00124		 |$LN34@InitDsiPll|
  00124		 |$LN35@InitDsiPll|
  00124	00000000	 DCD         |??_C@_1CI@BKOMHDDL@?$AAD?$AAS?$AAI?$AA?5?$AAP?$AAL?$AAL?$AA?5?$AAn?$AAo?$AAt?$AA?5?$AAr?$AAe?$AAs?$AAe?$AAt?$AA?$AN?$AA?6?$AA?$AA@|
  00128		 |$LN36@InitDsiPll|
  00128	00000000	 DCD         |??_C@_1GA@HEOPJPGD@?$AAE?$AAR?$AAR?$AAO?$AAR?$AA?3?$AA?5?$AAI?$AAn?$AAi?$AAt?$AAD?$AAS?$AAI?$AAP?$AAL?$AAL?$AA?3?$AA?3?$AAF?$AAa?$AAi?$AAl?$AAe?$AAd?$AA?5?$AAt?$AAo?$AA?5?$AAr?$AAe?$AAs@|
  0012c		 |$LN37@InitDsiPll|
  0012c	00000000	 DCD         |??_C@_1DO@OPIOMKJF@?$AAU?$AAn?$AAa?$AAb?$AAl?$AAe?$AA?5?$AAt?$AAo?$AA?5?$AAt?$AAu?$AAr?$AAn?$AA?5?$AAo?$AAn?$AA?5?$AAD?$AAS?$AAI?$AA?5?$AAP?$AAL?$AAL?$AA?5?$AA?$CF?$AAx?$AA?$AN?$AA?6?$AA?$AA@|
  00130		 |$M41017|

			 ENDP  ; |?InitDsiPll@OMAPDisplayController@@IAAHXZ|, OMAPDisplayController::InitDsiPll

	EXPORT	|?DeInitDsiPll@OMAPDisplayController@@IAAHXZ| ; OMAPDisplayController::DeInitDsiPll

  00000			 AREA	 |.pdata|, PDATA
|$T41038| DCD	|$LN5@DeInitDsiP|
	DCD	0x40001b00
; Function compile flags: /Ogspy

  00000			 AREA	 |.text|, CODE, ARM

  00000		 |?DeInitDsiPll@OMAPDisplayController@@IAAHXZ| PROC ; OMAPDisplayController::DeInitDsiPll

; 5311 : {

  00000		 |$LN5@DeInitDsiP|
  00000		 |$M41035|
  00000	e1a01000	 mov         r1, r0

; 5312 :     BOOL bRet = TRUE;
; 5313 :     DWORD dwRegValue = 0;
; 5314 :     
; 5315 :     // clear the DSI IRQ status
; 5316 :     dwRegValue = INREG32( &m_pDSIRegs->DSI_IRQSTATUS);

  00004	e5912010	 ldr         r2, [r1, #0x10]

; 5317 :     OUTREG32( &m_pDSIRegs->DSI_IRQSTATUS, dwRegValue);
; 5318 :     
; 5319 :     // configure the DSI PLL for bypass mode before updating PLL
; 5320 :     SETREG32( &m_pDSIPLLRegs->DSI_PLL_CONFIGURATION2, DSI_PLL_IDLE);
; 5321 : 
; 5322 :     // select the manual mode of PLL update
; 5323 :     dwRegValue = INREG32( &m_pDSIPLLRegs->DSI_PLL_CONTROL);
; 5324 :     dwRegValue = dwRegValue & ~(DSI_PLL_AUTOMODE);
; 5325 :     OUTREG32( &m_pDSIPLLRegs->DSI_PLL_CONTROL, dwRegValue);
; 5326 : 
; 5327 :     // disable DSIPHY clock and set HSDIV in bypass mode
; 5328 :     dwRegValue = INREG32( &m_pDSIPLLRegs->DSI_PLL_CONFIGURATION2);
; 5329 :     dwRegValue = dwRegValue & ~(DSIPHY_CLKINEN);
; 5330 :     dwRegValue = dwRegValue | DSI_HSDIVBYPASS;
; 5331 :     OUTREG32( &m_pDSIPLLRegs->DSI_PLL_CONFIGURATION2, dwRegValue);
; 5332 :     
; 5333 :     // PCLKFREE should be set for DSI
; 5334 :     dwRegValue = INREG32( &m_pDispRegs->DISPC_CONTROL);
; 5335 :     dwRegValue = dwRegValue | DISPC_CONTROL_PCKFREEENABLE_ENABLED;
; 5336 :     OUTREG32( &m_pDispRegs->DISPC_CONTROL, dwRegValue);
; 5337 :     
; 5338 :     // issue Power off cmd to DSI
; 5339 :     dwRegValue = INREG32( &m_pDSIRegs->DSI_CLK_CTRL);
; 5340 :     dwRegValue = (dwRegValue & ~(DSI_CLK_CTRL_PLL_PWR_CMD_MASK));
; 5341 :     dwRegValue = dwRegValue | DSI_CLK_CTRL_PLL_PWR_CMD_OFF;
; 5342 :     OUTREG32( &m_pDSIRegs->DSI_CLK_CTRL, dwRegValue);
; 5343 : 
; 5344 :     return bRet;

  00008	e3a00001	 mov         r0, #1
  0000c	e5923018	 ldr         r3, [r2, #0x18]
  00010	e5823018	 str         r3, [r2, #0x18]
  00014	e5912014	 ldr         r2, [r1, #0x14]
  00018	e5923010	 ldr         r3, [r2, #0x10]
  0001c	e3833001	 orr         r3, r3, #1
  00020	e5823010	 str         r3, [r2, #0x10]
  00024	e5912014	 ldr         r2, [r1, #0x14]
  00028	e5923000	 ldr         r3, [r2]
  0002c	e3c33001	 bic         r3, r3, #1
  00030	e5823000	 str         r3, [r2]
  00034	e5912014	 ldr         r2, [r1, #0x14]
  00038	e5923010	 ldr         r3, [r2, #0x10]
  0003c	e3c33901	 bic         r3, r3, #1, 18
  00040	e3833601	 orr         r3, r3, #1, 12
  00044	e5823010	 str         r3, [r2, #0x10]
  00048	e5912008	 ldr         r2, [r1, #8]
  0004c	e5923040	 ldr         r3, [r2, #0x40]
  00050	e3833302	 orr         r3, r3, #2, 6
  00054	e5823040	 str         r3, [r2, #0x40]
  00058	e5912010	 ldr         r2, [r1, #0x10]
  0005c	e5923054	 ldr         r3, [r2, #0x54]
  00060	e3c33103	 bic         r3, r3, #3, 2
  00064	e5823054	 str         r3, [r2, #0x54]

; 5345 : }

  00068	e12fff1e	 bx          lr
  0006c		 |$M41036|

			 ENDP  ; |?DeInitDsiPll@OMAPDisplayController@@IAAHXZ|, OMAPDisplayController::DeInitDsiPll

	EXPORT	|?ConfigureDsiPll@OMAPDisplayController@@QAAHK@Z| ; OMAPDisplayController::ConfigureDsiPll
	EXPORT	|??_C@_1DC@EGPANNCF@?$AAD?$AAS?$AAI?$AA?5?$AAP?$AAL?$AAL?$AA?5?$AAL?$AAo?$AAc?$AAk?$AA?5?$AAt?$AAi?$AAm?$AAe?$AAd?$AA?5?$AAo?$AAu?$AAt?$AA?$AN?$AA?6?$AA?$AA@| [ DATA ] ; `string'
	EXPORT	|??_C@_1CK@PPIENFCI@?$AAD?$AAS?$AAI?$AA?5?$AAP?$AAL?$AAL?$AA?5?$AAG?$AAo?$AA?5?$AAn?$AAo?$AAt?$AA?5?$AAs?$AAe?$AAt?$AA?$AN?$AA?6?$AA?$AA@| [ DATA ] ; `string'
	EXPORT	|??_C@_1HE@BACIAFEL@?$AAC?$AAo?$AAn?$AAf?$AAi?$AAg?$AAu?$AAr?$AAe?$AAD?$AAs?$AAi?$AAP?$AAl?$AAl?$AA?3?$AAC?$AAa?$AAn?$AAn?$AAo?$AAt?$AA?5?$AAc?$AAo?$AAn?$AAf?$AAi?$AAg?$AAu?$AAr?$AAe@| [ DATA ] ; `string'
	IMPORT	|GetSystemClockFrequency|
	IMPORT	|__rt_udiv|

  00000			 AREA	 |.pdata|, PDATA
|$T41083| DCD	|$LN36@ConfigureD|
	DCD	0x40007401

  00000			 AREA	 |.rdata|, DATA, READONLY
|??_C@_1DC@EGPANNCF@?$AAD?$AAS?$AAI?$AA?5?$AAP?$AAL?$AAL?$AA?5?$AAL?$AAo?$AAc?$AAk?$AA?5?$AAt?$AAi?$AAm?$AAe?$AAd?$AA?5?$AAo?$AAu?$AAt?$AA?$AN?$AA?6?$AA?$AA@| DCB "D"
	DCB	0x0, "S", 0x0, "I", 0x0, " ", 0x0, "P", 0x0, "L", 0x0, "L"
	DCB	0x0, " ", 0x0, "L", 0x0, "o", 0x0, "c", 0x0, "k", 0x0, " "
	DCB	0x0, "t", 0x0, "i", 0x0, "m", 0x0, "e", 0x0, "d", 0x0, " "
	DCB	0x0, "o", 0x0, "u", 0x0, "t", 0x0, 0xd, 0x0, 0xa, 0x0, 0x0
	DCB	0x0					; `string'

  00000			 AREA	 |.rdata|, DATA, READONLY
|??_C@_1CK@PPIENFCI@?$AAD?$AAS?$AAI?$AA?5?$AAP?$AAL?$AAL?$AA?5?$AAG?$AAo?$AA?5?$AAn?$AAo?$AAt?$AA?5?$AAs?$AAe?$AAt?$AA?$AN?$AA?6?$AA?$AA@| DCB "D"
	DCB	0x0, "S", 0x0, "I", 0x0, " ", 0x0, "P", 0x0, "L", 0x0, "L"
	DCB	0x0, " ", 0x0, "G", 0x0, "o", 0x0, " ", 0x0, "n", 0x0, "o"
	DCB	0x0, "t", 0x0, " ", 0x0, "s", 0x0, "e", 0x0, "t", 0x0, 0xd
	DCB	0x0, 0xa, 0x0, 0x0, 0x0			; `string'

  00000			 AREA	 |.rdata|, DATA, READONLY
|??_C@_1HE@BACIAFEL@?$AAC?$AAo?$AAn?$AAf?$AAi?$AAg?$AAu?$AAr?$AAe?$AAD?$AAs?$AAi?$AAP?$AAl?$AAl?$AA?3?$AAC?$AAa?$AAn?$AAn?$AAo?$AAt?$AA?5?$AAc?$AAo?$AAn?$AAf?$AAi?$AAg?$AAu?$AAr?$AAe@| DCB "C"
	DCB	0x0, "o", 0x0, "n", 0x0, "f", 0x0, "i", 0x0, "g", 0x0, "u"
	DCB	0x0, "r", 0x0, "e", 0x0, "D", 0x0, "s", 0x0, "i", 0x0, "P"
	DCB	0x0, "l", 0x0, "l", 0x0, ":", 0x0, "C", 0x0, "a", 0x0, "n"
	DCB	0x0, "n", 0x0, "o", 0x0, "t", 0x0, " ", 0x0, "c", 0x0, "o"
	DCB	0x0, "n", 0x0, "f", 0x0, "i", 0x0, "g", 0x0, "u", 0x0, "r"
	DCB	0x0, "e", 0x0, " ", 0x0, "D", 0x0, "S", 0x0, "I", 0x0, " "
	DCB	0x0, "f", 0x0, "o", 0x0, "r", 0x0, " ", 0x0, "g", 0x0, "i"
	DCB	0x0, "v", 0x0, "e", 0x0, "n", 0x0, " ", 0x0, "f", 0x0, "r"
	DCB	0x0, "e", 0x0, "q", 0x0, ":", 0x0, " ", 0x0, "%", 0x0, "d"
	DCB	0x0, 0xd, 0x0, 0xa, 0x0, 0x0, 0x0	; `string'
; Function compile flags: /Ogspy

  00000			 AREA	 |.text|, CODE, ARM

  00000		 |?ConfigureDsiPll@OMAPDisplayController@@QAAHK@Z| PROC ; OMAPDisplayController::ConfigureDsiPll

; 5350 : {

  00000		 |$LN36@ConfigureD|
  00000	e92d47f0	 stmdb       sp!, {r4 - r10, lr}
  00004		 |$M41080|
  00004	e1a08001	 mov         r8, r1
  00008	e1a06000	 mov         r6, r0

; 5351 : 
; 5352 :     BOOL  bRet = TRUE;

  0000c	e3a07001	 mov         r7, #1

; 5353 :     ULONG count = 100;                  //count for timed status check
; 5354 :     ULONG m,n,m3,m4;                    //variables for PLL freq configuration
; 5355 :     ULONG fint    = DSI_PLL_FREQINT;    //internal ref frequency for PLL
; 5356 :     ULONG sysClk  = GetSystemClockFrequency();

  00010	eb000000	 bl          GetSystemClockFrequency
  00014	e3a0397a	 mov         r3, #0x7A, 18

; 5357 :     ULONG value;
; 5358 :     ULONG dsiPhyClock;
; 5359 :     ULONG highFreqDiv = 0;
; 5360 :     ULONG pllConfig1,pllConfig2; // variables for PLLConfig1 & 2
; 5361 : 
; 5362 : 
; 5363 :     //  Check clock bounds
; 5364 :     if (clockFreq < fint ) // || clockFreq > DSS_FCLK_MAX)

  00018	e3833d12	 orr         r3, r3, #0x12, 26
  0001c	e1580003	 cmp         r8, r3
  00020	e1a0e000	 mov         lr, r0
  00024	e3a09000	 mov         r9, #0
  00028	2a000004	 bcs         |$LN14@ConfigureD|

; 5365 :     {
; 5366 :         bRet = FALSE;
; 5367 :         RETAILMSG(1,(L"ConfigureDsiPll:"
; 5368 :                      L"Cannot configure DSI for given freq: %d\r\n",
; 5369 :                      clockFreq));

  0002c	e59f0198	 ldr         r0, [pc, #0x198]
  00030	e1a01008	 mov         r1, r8
  00034	e3a07000	 mov         r7, #0
  00038	eb000000	 bl          NKDbgPrintfW

; 5370 :         goto Clean;

  0003c	ea00005c	 b           |$Clean$39964|
  00040		 |$LN14@ConfigureD|

; 5371 :     }
; 5372 : 
; 5373 :     // Calculate the dsiPhyClock
; 5374 :     // Number of Lanes for DSI = 2
; 5375 :     // DSI PHY clock = 2 * data rate * NumberOfLanes
; 5376 :     dsiPhyClock = clockFreq * 2 * 2;
; 5377 : 
; 5378 :     // The steps for m and n calculation are to ensure the DSI PLL generates
; 5379 :     // DSI1_PLL_FCLK.
; 5380 : 
; 5381 :     // Use the formula for deriving m, m3 and m4 values
; 5382 :     //                             2xRegM       SYSCLK
; 5383 :     //             dsiPhyClock =  -------- x -------------
; 5384 :     //                            REGN + 1   HIGHFREQDIV+1
; 5385 : 
; 5386 :     // Set the highfreq divider if the input clock is > 32Mhz
; 5387 :     if (sysClk > DSI_HIGHFREQ_MAX)
; 5388 :         highFreqDiv = 1;
; 5389 : 
; 5390 :     n  = (sysClk/fint/(highFreqDiv+1)) - 1;

  00040	e59f5180	 ldr         r5, [pc, #0x180]
  00044	e3a0377a	 mov         r3, #0x7A, 14
  00048	e3833b12	 orr         r3, r3, #0x12, 22
  0004c	e15e0003	 cmp         lr, r3
  00050	e083259e	 umull       r2, r3, lr, r5
  00054	83a09001	 movhi       r9, #1
  00058	e2894001	 add         r4, r9, #1
  0005c	e1a019a3	 mov         r1, r3, lsr #19
  00060	e1a00004	 mov         r0, r4
  00064	e1a0a108	 mov         r10, r8, lsl #2
  00068	eb000000	 bl          __rt_udiv

; 5391 : 
; 5392 :     m = (dsiPhyClock*(highFreqDiv+1))/(2*fint);

  0006c	e00e0a94	 mul         lr, r4, r10
  00070	e1a04000	 mov         r4, r0
  00074	e082359e	 umull       r3, r2, lr, r5

; 5393 : 
; 5394 :     // calculate m3 value DSI1_PLL_FCLK (m3)
; 5395 :     m3 = (dsiPhyClock/clockFreq) - 1;

  00078	e1a00008	 mov         r0, r8
  0007c	e1a0100a	 mov         r1, r10
  00080	e1a05a22	 mov         r5, r2, lsr #20
  00084	e2448001	 sub         r8, r4, #1
  00088	eb000000	 bl          __rt_udiv
  0008c	e2404001	 sub         r4, r0, #1

; 5396 : 
; 5397 :     // m4 value is actually used by DSI module and we can set it
; 5398 :     // as the same value of m3.
; 5399 :     m4 = m3;
; 5400 : 
; 5401 :     DEBUGMSG(1,(L"N:%d M:%d M3:%d M4:%d\r\n",
; 5402 :                    n,m,m3,m4
; 5403 :                    ));
; 5404 : 
; 5405 :     // Enable the Pwr to the DSI sub modules
; 5406 :     value  = INREG32( &m_pDSIRegs->DSI_CLK_CTRL);

  00090	e5963010	 ldr         r3, [r6, #0x10]
  00094	e5933054	 ldr         r3, [r3, #0x54]

; 5407 :     if ((value & DSI_CLK_CTRL_PLL_PWR_STATUS_ON_PLLANDHS) != 0)

  00098	e3130202	 tst         r3, #2, 4

; 5408 :     {
; 5409 :         InitDsiPll();

  0009c	11a00006	 movne       r0, r6
  000a0	1b000000	 blne        |?InitDsiPll@OMAPDisplayController@@IAAHXZ|

; 5410 :     }
; 5411 :     
; 5412 :     // Configure the DSI PLL for bypass mode before updating PLL
; 5413 :     SETREG32( &m_pDSIPLLRegs->DSI_PLL_CONFIGURATION2, DSI_PLL_IDLE);

  000a4	e5962014	 ldr         r2, [r6, #0x14]

; 5414 : 
; 5415 :     // Select the manual mode of PLL update
; 5416 :     value = INREG32( &m_pDSIPLLRegs->DSI_PLL_CONTROL);
; 5417 :     value = value & ~(DSI_PLL_AUTOMODE);
; 5418 :     OUTREG32( &m_pDSIPLLRegs->DSI_PLL_CONTROL, value);
; 5419 : 
; 5420 :     // DSIPHY clock is disabled and HSDIV in bypass mode
; 5421 :     pllConfig2  = INREG32( &m_pDSIPLLRegs->DSI_PLL_CONFIGURATION2);
; 5422 :     pllConfig2  = pllConfig2 & ~(DSIPHY_CLKINEN);
; 5423 :     pllConfig2  = pllConfig2 | DSI_HSDIVBYPASS;
; 5424 :     OUTREG32( &m_pDSIPLLRegs->DSI_PLL_CONFIGURATION2, pllConfig2);
; 5425 : 
; 5426 :     // Input clock to PLL is SYSCLK
; 5427 :     pllConfig2  = pllConfig2 & ~(DSI_PLL_CLKSEL_PCLKFREE);
; 5428 : 
; 5429 :     // Program high freq divider
; 5430 :     if (highFreqDiv != 0)

  000a8	e3590000	 cmp         r9, #0
  000ac	e5923010	 ldr         r3, [r2, #0x10]
  000b0	e3833001	 orr         r3, r3, #1
  000b4	e5823010	 str         r3, [r2, #0x10]
  000b8	e5962014	 ldr         r2, [r6, #0x14]
  000bc	e5923000	 ldr         r3, [r2]
  000c0	e3c33001	 bic         r3, r3, #1
  000c4	e5823000	 str         r3, [r2]
  000c8	e5962014	 ldr         r2, [r6, #0x14]
  000cc	e5923010	 ldr         r3, [r2, #0x10]
  000d0	e3c33901	 bic         r3, r3, #1, 18
  000d4	e3833601	 orr         r3, r3, #1, 12
  000d8	e5823010	 str         r3, [r2, #0x10]
  000dc	e3c33b02	 bic         r3, r3, #2, 22

; 5431 :     {
; 5432 :         pllConfig2 |= DSI_PLL_HIGHFREQ_PIXELCLKBY2;

  000e0	13831a01	 orrne       r1, r3, #1, 20

; 5433 :     }
; 5434 :     else
; 5435 :     {
; 5436 :         pllConfig2 &= ~(DSI_PLL_HIGHFREQ_PIXELCLKBY2);

  000e4	03c31a01	 biceq       r1, r3, #1, 20

; 5437 :     }
; 5438 : 
; 5439 :     OUTREG32( &m_pDSIPLLRegs->DSI_PLL_CONFIGURATION2, pllConfig2);

  000e8	e5962014	 ldr         r2, [r6, #0x14]

; 5440 : 
; 5441 :     // Configure the divisor values
; 5442 :     pllConfig1 =  DSI_PLL_REGN(n)
; 5443 :                  |DSI_PLL_REGM(m)
; 5444 :                  |DSS_CLOCK_DIV(m3)
; 5445 :                  |DSIPROTO_CLOCK_DIV(m4)
; 5446 :                  |DSI_PLL_STOPMODE  
; 5447 :                  ;
; 5448 : 
; 5449 :     OUTREG32( &m_pDSIPLLRegs->DSI_PLL_CONFIGURATION1, pllConfig1);

  000ec	e1843204	 orr         r3, r4, r4, lsl #4
  000f0	e1853583	 orr         r3, r5, r3, lsl #11
  000f4	e1883383	 orr         r3, r8, r3, lsl #7
  000f8	e5821010	 str         r1, [r2, #0x10]
  000fc	e5962014	 ldr         r2, [r6, #0x14]
  00100	e1a03083	 mov         r3, r3, lsl #1
  00104	e3833001	 orr         r3, r3, #1
  00108	e582300c	 str         r3, [r2, #0xC]

; 5450 : 
; 5451 :     // Enable the DSS clock divider from HSDIV
; 5452 :     pllConfig2 |=  DSS_CLOCK_EN
; 5453 :                   |DSI_PROTO_CLOCK_EN
; 5454 :                   |DSI_PLL_FREQSEL(DSI_PLL_FREQSELVAL)
; 5455 :                   |DSI_PLL_REFEN
; 5456 :                   ;
; 5457 :     OUTREG32( &m_pDSIPLLRegs->DSI_PLL_CONFIGURATION2, pllConfig2);

  0010c	e3a03a52	 mov         r3, #0x52, 20
  00110	e5962014	 ldr         r2, [r6, #0x14]
  00114	e383300e	 orr         r3, r3, #0xE
  00118	e1813003	 orr         r3, r1, r3
  0011c	e5823010	 str         r3, [r2, #0x10]

; 5458 : 
; 5459 :     // Set HSDIV and CLK from DSI PLL
; 5460 :     pllConfig2 &= ~(DSI_HSDIVBYPASS);
; 5461 :     OUTREG32( &m_pDSIPLLRegs->DSI_PLL_CONFIGURATION2, pllConfig2);

  00120	e5962014	 ldr         r2, [r6, #0x14]
  00124	e3c33601	 bic         r3, r3, #1, 12

; 5462 : 
; 5463 :     // Let the Pll go out of idle
; 5464 :     CLRREG32( &m_pDSIPLLRegs->DSI_PLL_CONFIGURATION2, DSI_PLL_IDLE);
; 5465 :     
; 5466 :     // Start the PLL locking by setting PLL GO
; 5467 :     OUTREG32( &m_pDSIPLLRegs->DSI_PLL_GO, DSI_PLL_GO_CMD);

  00128	e3a01001	 mov         r1, #1
  0012c	e5823010	 str         r3, [r2, #0x10]
  00130	e5962014	 ldr         r2, [r6, #0x14]

; 5468 : 
; 5469 :     count = 100;

  00134	e3a04064	 mov         r4, #0x64
  00138	e5923010	 ldr         r3, [r2, #0x10]
  0013c	e3c33001	 bic         r3, r3, #1
  00140	e5823010	 str         r3, [r2, #0x10]
  00144	e5963014	 ldr         r3, [r6, #0x14]
  00148	e5831008	 str         r1, [r3, #8]

; 5470 :     // Waiting for the lock request to be issued to PLL
; 5471 :     while ((INREG32( &m_pDSIPLLRegs->DSI_PLL_GO) != 0) && (--count))

  0014c	ea000003	 b           |$LN30@ConfigureD|
  00150		 |$LL8@ConfigureD|
  00150	e2544001	 subs        r4, r4, #1
  00154	0a000007	 beq         |$LN28@ConfigureD|

; 5472 :     {
; 5473 :         StallExecution(1000);

  00158	e3a00ffa	 mov         r0, #0xFA, 30
  0015c	eb000000	 bl          StallExecution
  00160		 |$LN30@ConfigureD|
  00160	e5963014	 ldr         r3, [r6, #0x14]
  00164	e5933008	 ldr         r3, [r3, #8]
  00168	e3530000	 cmp         r3, #0
  0016c	1afffff7	 bne         |$LL8@ConfigureD|

; 5481 :         goto Clean;
; 5482 :     }
; 5483 : 
; 5484 :     // Wait for the PLL to be locked
; 5485 :     count = 1000;
; 5486 :     while (((INREG32( &m_pDSIPLLRegs->DSI_PLL_STATUS) & DSI_PLL_LOCK_STATUS) != 
; 5487 :               DSI_PLL_LOCK_STATUS) && (--count))

  00170	e3a04ffa	 mov         r4, #0xFA, 30
  00174	ea000005	 b           |$LN33@ConfigureD|
  00178		 |$LN28@ConfigureD|

; 5474 :     }
; 5475 : 
; 5476 :     if (count == 0)
; 5477 :     {
; 5478 :         /* lock request timed out */
; 5479 :         bRet = FALSE;
; 5480 :         RETAILMSG(1,(L"DSI PLL Go not set\r\n"));

  00178	e59f0044	 ldr         r0, [pc, #0x44]

; 5497 :         goto Clean;
; 5498 :     }
; 5499 :     
; 5500 :     
; 5501 :     
; 5502 : Clean:

  0017c	ea00000a	 b           |$LN31@ConfigureD|
  00180		 |$LL4@ConfigureD|

; 5481 :         goto Clean;
; 5482 :     }
; 5483 : 
; 5484 :     // Wait for the PLL to be locked
; 5485 :     count = 1000;
; 5486 :     while (((INREG32( &m_pDSIPLLRegs->DSI_PLL_STATUS) & DSI_PLL_LOCK_STATUS) != 
; 5487 :               DSI_PLL_LOCK_STATUS) && (--count))

  00180	e2544001	 subs        r4, r4, #1
  00184	0a000007	 beq         |$LN27@ConfigureD|

; 5488 :     {
; 5489 :         StallExecution(1000);

  00188	e3a00ffa	 mov         r0, #0xFA, 30
  0018c	eb000000	 bl          StallExecution
  00190		 |$LN33@ConfigureD|
  00190	e5963014	 ldr         r3, [r6, #0x14]
  00194	e5933004	 ldr         r3, [r3, #4]
  00198	e2033002	 and         r3, r3, #2
  0019c	e3530002	 cmp         r3, #2
  001a0	1afffff6	 bne         |$LL4@ConfigureD|

; 5490 :     }
; 5491 : 
; 5492 :     // check the PLL lock status for timeout
; 5493 :     if (count == 0)

  001a4	ea000002	 b           |$Clean$39964|
  001a8		 |$LN27@ConfigureD|

; 5494 :     {
; 5495 :         bRet = FALSE;
; 5496 :         RETAILMSG(1,(L"DSI PLL Lock timed out\r\n"));

  001a8	e59f0010	 ldr         r0, [pc, #0x10]
  001ac		 |$LN31@ConfigureD|
  001ac	e3a07000	 mov         r7, #0
  001b0	eb000000	 bl          NKDbgPrintfW
  001b4		 |$Clean$39964|

; 5503 : 
; 5504 :   return bRet;
; 5505 : }

  001b4	e1a00007	 mov         r0, r7
  001b8	e8bd47f0	 ldmia       sp!, {r4 - r10, lr}
  001bc	e12fff1e	 bx          lr
  001c0		 |$LN37@ConfigureD|
  001c0		 |$LN38@ConfigureD|
  001c0	00000000	 DCD         |??_C@_1DC@EGPANNCF@?$AAD?$AAS?$AAI?$AA?5?$AAP?$AAL?$AAL?$AA?5?$AAL?$AAo?$AAc?$AAk?$AA?5?$AAt?$AAi?$AAm?$AAe?$AAd?$AA?5?$AAo?$AAu?$AAt?$AA?$AN?$AA?6?$AA?$AA@|
  001c4		 |$LN39@ConfigureD|
  001c4	00000000	 DCD         |??_C@_1CK@PPIENFCI@?$AAD?$AAS?$AAI?$AA?5?$AAP?$AAL?$AAL?$AA?5?$AAG?$AAo?$AA?5?$AAn?$AAo?$AAt?$AA?5?$AAs?$AAe?$AAt?$AA?$AN?$AA?6?$AA?$AA@|
  001c8		 |$LN40@ConfigureD|
  001c8	431bde83	 DCD         0x431bde83
  001cc		 |$LN41@ConfigureD|
  001cc	00000000	 DCD         |??_C@_1HE@BACIAFEL@?$AAC?$AAo?$AAn?$AAf?$AAi?$AAg?$AAu?$AAr?$AAe?$AAD?$AAs?$AAi?$AAP?$AAl?$AAl?$AA?3?$AAC?$AAa?$AAn?$AAn?$AAo?$AAt?$AA?5?$AAc?$AAo?$AAn?$AAf?$AAi?$AAg?$AAu?$AAr?$AAe@|
  001d0		 |$M41081|

			 ENDP  ; |?ConfigureDsiPll@OMAPDisplayController@@QAAHK@Z|, OMAPDisplayController::ConfigureDsiPll

	EXPORT	|?SwitchDssFclk@OMAPDisplayController@@IAAHW4OMAP_DSS_FCLK@@W4OMAP_DSS_FCLKVALUE@@@Z| ; OMAPDisplayController::SwitchDssFclk

  00000			 AREA	 |.pdata|, PDATA
|$T41109| DCD	|$LN15@SwitchDssF|
	DCD	0x40002801
; Function compile flags: /Ogspy

  00000			 AREA	 |.text|, CODE, ARM

  00000		 |?SwitchDssFclk@OMAPDisplayController@@IAAHW4OMAP_DSS_FCLK@@W4OMAP_DSS_FCLKVALUE@@@Z| PROC ; OMAPDisplayController::SwitchDssFclk

; 5514 : {

  00000		 |$LN15@SwitchDssF|
  00000	e92d4070	 stmdb       sp!, {r4 - r6, lr}
  00004		 |$M41106|
  00004	e1a0e002	 mov         lr, r2
  00008	e3510000	 cmp         r1, #0
  0000c	e1a04000	 mov         r4, r0

; 5515 :     DWORD dssStatusBit = 1;
; 5516 :     DWORD count     = 100;
; 5517 :     DWORD bitMask   = 1;
; 5518 :     DWORD sdiStatus = 0;
; 5519 :     DWORD reg,
; 5520 :           lcd = 1,
; 5521 :           pcd = 1;
; 5522 :           
; 5523 :     if ( eFclkSrc == OMAP_DSS_FCLK_DSS1ALWON )
; 5524 :     {
; 5525 :         // Change the source clock to DSS
; 5526 :         CLRREG32( &m_pDSSRegs->DSS_CONTROL, 
; 5527 :                     DSS_CONTROL_DISPC_CLK_SWITCH_DSI1_PLL
; 5528 :                     );

  00010	05941004	 ldreq       r1, [r4, #4]
  00014	e3a05001	 mov         r5, #1
  00018	e3a06064	 mov         r6, #0x64

; 5529 :         dssStatusBit = 1;

  0001c	05913040	 ldreq       r3, [r1, #0x40]
  00020	03a05001	 moveq       r5, #1
  00024	03c33001	 biceq       r3, r3, #1
  00028	05813040	 streq       r3, [r1, #0x40]
  0002c	0a000005	 beq         |$LN3@SwitchDssF|

; 5530 :     }
; 5531 :     else if ( eFclkSrc == OMAP_DSS_FCLK_DSS2ALWON )

  00030	e3510001	 cmp         r1, #1

; 5532 :     {
; 5533 :         // Change the source clock DSI1_PLL
; 5534 :         SETREG32( &m_pDSSRegs->DSS_CONTROL, 
; 5535 :                     DSS_CONTROL_DISPC_CLK_SWITCH_DSI1_PLL
; 5536 :                     );

  00034	05942004	 ldreq       r2, [r4, #4]

; 5537 :         dssStatusBit = 0;

  00038	03a05000	 moveq       r5, #0
  0003c	05923040	 ldreq       r3, [r2, #0x40]
  00040	03833001	 orreq       r3, r3, #1
  00044	05823040	 streq       r3, [r2, #0x40]
  00048		 |$LN3@SwitchDssF|

; 5538 :     }
; 5539 : 
; 5540 :     pcd = eFclkValue / m_dwPixelClock ;

  00048	e59404b0	 ldr         r0, [r4, #0x4B0]
  0004c	e1a0100e	 mov         r1, lr
  00050	eb000000	 bl          __rt_udiv

; 5541 :     reg = DISPC_DIVISOR_LCD(lcd) | DISPC_DIVISOR_PCD(pcd);
; 5542 :     OUTREG32( &m_pDispRegs->DISPC_DIVISOR, reg );    

  00054	e5942008	 ldr         r2, [r4, #8]
  00058	e3803801	 orr         r3, r0, #1, 16

; 5543 :     // Update the shadow register contents into main
; 5544 :     FlushRegs( DISPC_CONTROL_GOLCD );

  0005c	e3a01020	 mov         r1, #0x20
  00060	e1a00004	 mov         r0, r4
  00064	e5823070	 str         r3, [r2, #0x70]
  00068	eb000000	 bl          |?FlushRegs@OMAPDisplayController@@IAAHK@Z|

; 5545 : 
; 5546 :     // check for the clock switch by reading SDI_STATUS register
; 5547 :     sdiStatus = INREG32(&m_pDSSRegs->DSS_SDI_STATUS);
; 5548 :     while (((sdiStatus & bitMask) != dssStatusBit) && (--count))

  0006c	ea000003	 b           |$LN12@SwitchDssF|
  00070		 |$LL2@SwitchDssF|
  00070	e2566001	 subs        r6, r6, #1
  00074	0a000006	 beq         |$LN10@SwitchDssF|

; 5549 :     {
; 5550 :         StallExecution(1000);

  00078	e3a00ffa	 mov         r0, #0xFA, 30
  0007c	eb000000	 bl          StallExecution
  00080		 |$LN12@SwitchDssF|

; 5551 :         sdiStatus = INREG32( &m_pDSSRegs->DSS_SDI_STATUS);

  00080	e5943004	 ldr         r3, [r4, #4]
  00084	e593305c	 ldr         r3, [r3, #0x5C]
  00088	e2033001	 and         r3, r3, #1
  0008c	e1530005	 cmp         r3, r5
  00090	1afffff6	 bne         |$LL2@SwitchDssF|
  00094		 |$LN10@SwitchDssF|

; 5552 :     }
; 5553 : 
; 5554 :     return TRUE;

  00094	e3a00001	 mov         r0, #1

; 5555 : }

  00098	e8bd4070	 ldmia       sp!, {r4 - r6, lr}
  0009c	e12fff1e	 bx          lr
  000a0		 |$M41107|

			 ENDP  ; |?SwitchDssFclk@OMAPDisplayController@@IAAHW4OMAP_DSS_FCLK@@W4OMAP_DSS_FCLKVALUE@@@Z|, OMAPDisplayController::SwitchDssFclk

	EXPORT	|LcdStall|

  00000			 AREA	 |.pdata|, PDATA
|$T41117| DCD	|$LN5@LcdStall|
	DCD	0x40000401
; Function compile flags: /Ogspy

  00000			 AREA	 |.text|, CODE, ARM

  00000		 |LcdStall| PROC

; 5559 : {

  00000		 |$LN5@LcdStall|
  00000	e52de004	 str         lr, [sp, #-4]!
  00004		 |$M41114|

; 5560 :     StallExecution(dwMicroseconds);

  00004	eb000000	 bl          StallExecution

; 5561 : }

  00008	e49de004	 ldr         lr, [sp], #4
  0000c	e12fff1e	 bx          lr
  00010		 |$M41115|

			 ENDP  ; |LcdStall|

	EXPORT	|LcdSleep|

  00000			 AREA	 |.pdata|, PDATA
|$T41125| DCD	|$LN5@LcdSleep|
	DCD	0x40000401
; Function compile flags: /Ogspy

  00000			 AREA	 |.text|, CODE, ARM

  00000		 |LcdSleep| PROC

; 5564 : {

  00000		 |$LN5@LcdSleep|
  00000	e52de004	 str         lr, [sp, #-4]!
  00004		 |$M41122|

; 5565 :     Sleep(dwMilliseconds);

  00004	eb000000	 bl          Sleep

; 5566 : }

  00008	e49de004	 ldr         lr, [sp], #4
  0000c	e12fff1e	 bx          lr
  00010		 |$M41123|

			 ENDP  ; |LcdSleep|

	EXPORT	|??1OMAPDisplayController@@UAA@XZ|	; OMAPDisplayController::~OMAPDisplayController
	IMPORT	|MmUnmapIoSpace|
	IMPORT	|FreePhysMem|
	IMPORT	|PmxClosePolicy|
	IMPORT	|DeleteCriticalSection|

  00000			 AREA	 |.pdata|, PDATA
|$T41133| DCD	|$LN12@OMAPDispla@2|
	DCD	0x40003201
; Function compile flags: /Ogspy

  00000			 AREA	 |.text|, CODE, ARM

  00000		 |??1OMAPDisplayController@@UAA@XZ| PROC ; OMAPDisplayController::~OMAPDisplayController

; 157  : {

  00000		 |$LN12@OMAPDispla@2|
  00000	e92d4010	 stmdb       sp!, {r4, lr}
  00004		 |$M41130|
  00004	e1a04000	 mov         r4, r0
  00008	e59f30b4	 ldr         r3, [pc, #0xB4]

; 158  :     UninitInterrupts();

  0000c	e5843000	 str         r3, [r4]
  00010	eb000000	 bl          |?UninitInterrupts@OMAPDisplayController@@QAAXXZ|

; 159  : 
; 160  :     //  Release all clocks
; 161  :     EnableDeviceClocks( m_dssinfo.DSSDevice, FALSE );

  00014	e594051c	 ldr         r0, [r4, #0x51C]
  00018	e3a01000	 mov         r1, #0
  0001c	eb000000	 bl          EnableDeviceClocks

; 162  :     EnableDeviceClocks( m_dssinfo.TVEncoderDevice, FALSE );         

  00020	e5940520	 ldr         r0, [r4, #0x520]
  00024	e3a01000	 mov         r1, #0
  00028	eb000000	 bl          EnableDeviceClocks

; 163  : 
; 164  :     //  Delete power lock critical section
; 165  :     DeleteCriticalSection( &m_csPowerLock );

  0002c	e2843b01	 add         r3, r4, #1, 22
  00030	e283008c	 add         r0, r3, #0x8C
  00034	eb000000	 bl          DeleteCriticalSection

; 166  : 
; 167  :     // Close SmartReflex policy adapter
; 168  :     if (m_hSmartReflexPolicyAdapter != NULL)

  00038	e5943518	 ldr         r3, [r4, #0x518]
  0003c	e3530000	 cmp         r3, #0

; 169  :         PmxClosePolicy(m_hSmartReflexPolicyAdapter);

  00040	11a00003	 movne       r0, r3
  00044	1b000000	 blne        PmxClosePolicy

; 170  :     
; 171  :     //  Free allocated memory
; 172  :     if( m_pGammaBufVirt != NULL )

  00048	e59434d4	 ldr         r3, [r4, #0x4D4]
  0004c	e3530000	 cmp         r3, #0

; 173  :         FreePhysMem( m_pGammaBufVirt );

  00050	11a00003	 movne       r0, r3
  00054	1b000000	 blne        FreePhysMem

; 174  :         
; 175  :     //  Unmap registers
; 176  :     if (m_pDSSRegs != NULL) 

  00058	e5943004	 ldr         r3, [r4, #4]
  0005c	e3530000	 cmp         r3, #0

; 177  :         MmUnmapIoSpace((VOID*)m_pDSSRegs, DSS_REGS_SIZE);

  00060	13a01b01	 movne       r1, #1, 22
  00064	11a00003	 movne       r0, r3
  00068	1b000000	 blne        MmUnmapIoSpace

; 178  : 
; 179  :     if (m_pDispRegs != NULL) 

  0006c	e5943008	 ldr         r3, [r4, #8]
  00070	e3530000	 cmp         r3, #0

; 180  :         MmUnmapIoSpace((VOID*)m_pDispRegs, DSS_REGS_SIZE);

  00074	13a01b01	 movne       r1, #1, 22
  00078	11a00003	 movne       r0, r3
  0007c	1b000000	 blne        MmUnmapIoSpace

; 181  : 
; 182  :     if (m_pVencRegs != NULL) 

  00080	e594300c	 ldr         r3, [r4, #0xC]
  00084	e3530000	 cmp         r3, #0

; 183  :         MmUnmapIoSpace((VOID*)m_pVencRegs, DSS_REGS_SIZE);

  00088	13a01b01	 movne       r1, #1, 22
  0008c	11a00003	 movne       r0, r3
  00090	1b000000	 blne        MmUnmapIoSpace

; 184  :         
; 185  :     if (m_pDSIRegs != NULL)

  00094	e5943010	 ldr         r3, [r4, #0x10]
  00098	e3530000	 cmp         r3, #0

; 186  :         MmUnmapIoSpace((VOID*)m_pDSIRegs,  sizeof(OMAP_DSI_REGS));

  0009c	13a010c0	 movne       r1, #0xC0
  000a0	11a00003	 movne       r0, r3
  000a4	1b000000	 blne        MmUnmapIoSpace

; 187  : 
; 188  :     if (m_pDSIPLLRegs != NULL)

  000a8	e5943014	 ldr         r3, [r4, #0x14]
  000ac	e3530000	 cmp         r3, #0

; 189  :         MmUnmapIoSpace((VOID*)m_pDSIPLLRegs, sizeof(OMAP_DSI_PLL_REGS));

  000b0	13a01014	 movne       r1, #0x14
  000b4	11a00003	 movne       r0, r3
  000b8	1b000000	 blne        MmUnmapIoSpace

; 190  : 
; 191  : }

  000bc	e8bd4010	 ldmia       sp!, {r4, lr}
  000c0	e12fff1e	 bx          lr
  000c4		 |$LN13@OMAPDispla@2|
  000c4		 |$LN14@OMAPDispla@2|
  000c4	00000000	 DCD         |??_7OMAPDisplayController@@6B@|
  000c8		 |$M41131|

			 ENDP  ; |??1OMAPDisplayController@@UAA@XZ|, OMAPDisplayController::~OMAPDisplayController

	EXPORT	|?SetPipelineAttribs@OMAPDisplayController@@QAAHW4OMAP_DSS_PIPELINE@@W4OMAP_DSS_DESTINATION@@PAVOMAPSurface@@KK@Z| ; OMAPDisplayController::SetPipelineAttribs

  00000			 AREA	 |.pdata|, PDATA
|$T41205| DCD	|$LN58@SetPipelin|
	DCD	0x4001c402
; Function compile flags: /Ogspy

  00000			 AREA	 |.text|, CODE, ARM

  00000		 |?SetPipelineAttribs@OMAPDisplayController@@QAAHW4OMAP_DSS_PIPELINE@@W4OMAP_DSS_DESTINATION@@PAVOMAPSurface@@KK@Z| PROC ; OMAPDisplayController::SetPipelineAttribs

; 782  : {

  00000		 |$LN58@SetPipelin|
  00000	e92d4ff0	 stmdb       sp!, {r4 - r11, lr}
  00004	e24dd010	 sub         sp, sp, #0x10
  00008		 |$M41202|
  00008	e1a05002	 mov         r5, r2
  0000c	e58d500c	 str         r5, [sp, #0xC]
  00010	e1a06003	 mov         r6, r3
  00014	e1a0b001	 mov         r11, r1
  00018	e1a07000	 mov         r7, r0

; 783  :     BOOL    bResult = FALSE;
; 784  :     OMAP_DSS_ROTATION   eRotation;
; 785  :     BOOL                bMirror;
; 786  :     DWORD               dwVidRotation = 0;
; 787  :     DWORD               dwX, dwY;
; 788  : 
; 789  : 
; 790  :     //  Access the regs
; 791  :     if( AccessRegs() == FALSE )

  0001c	e3a04000	 mov         r4, #0
  00020	e3a09000	 mov         r9, #0
  00024	eb000000	 bl          |?AccessRegs@OMAPDisplayController@@IAAHXZ|
  00028	e3500000	 cmp         r0, #0
  0002c	0a0001ae	 beq         |$cleanUp$38033|

; 792  :         goto cleanUp;
; 793  : 
; 794  : 
; 795  :     //  Get rotation and mirror settings for pipeline output
; 796  :     eRotation = g_rgPipelineMapping[ePipeline].eRotation;

  00030	e59f06d4	 ldr         r0, [pc, #0x6D4]

; 797  :     bMirror   = g_rgPipelineMapping[ePipeline].bMirror;
; 798  : 
; 799  : 
; 800  :     //  Set rotation attributes for video pipelines if pixel format is YUV
; 801  :     if( pSurface->PixelFormat() == OMAP_DSS_PIXELFORMAT_YUV2 ||    
; 802  :         pSurface->PixelFormat() == OMAP_DSS_PIXELFORMAT_UYVY )  

  00034	e3a03c01	 mov         r3, #1, 24
  00038	e5962004	 ldr         r2, [r6, #4]
  0003c	e080a28b	 add         r10, r0, r11, lsl #5
  00040	e383100e	 orr         r1, r3, #0xE
  00044	e59a3010	 ldr         r3, [r10, #0x10]
  00048	e59a800c	 ldr         r8, [r10, #0xC]
  0004c	e352000a	 cmp         r2, #0xA
  00050	e58d3008	 str         r3, [sp, #8]
  00054	0a000001	 beq         |$LN18@SetPipelin|
  00058	e352000b	 cmp         r2, #0xB
  0005c	1a00000c	 bne         |$LN25@SetPipelin|
  00060		 |$LN18@SetPipelin|

; 803  :     {
; 804  :         //  Depending on rotation and mirror settings, change the VID rotation attributes
; 805  :         switch( eRotation )

  00060	e3580000	 cmp         r8, #0
  00064	0a000023	 beq         |$LN15@SetPipelin|
  00068	e358005a	 cmp         r8, #0x5A
  0006c	0a00001f	 beq         |$LN14@SetPipelin|
  00070	e35800b4	 cmp         r8, #0xB4
  00074	0a000003	 beq         |$LN13@SetPipelin|
  00078	e1580001	 cmp         r8, r1
  0007c	1a000004	 bne         |$LN25@SetPipelin|

; 821  :                 break;
; 822  : 
; 823  :             case OMAP_DSS_ROTATION_270:
; 824  :                 //  Settings for rotation angle 270 (90 for DSS setting)
; 825  :                 dwVidRotation = DISPC_VID_ATTR_VIDROTATION_90 | DISPC_VID_ATTR_VIDROWREPEATENABLE;

  00080	e3a09a41	 mov         r9, #0x41, 20

; 826  :                 //dwVidRotation |= DISPC_VID_ATTR_VIDDMAOPTIMIZATION;
; 827  :                 break;

  00084	ea000002	 b           |$LN25@SetPipelin|
  00088		 |$LN13@SetPipelin|

; 817  : 
; 818  :             case OMAP_DSS_ROTATION_180:
; 819  :                 //  Settings for rotation angle 180
; 820  :                 dwVidRotation = (bMirror) ? DISPC_VID_ATTR_VIDROTATION_0 : DISPC_VID_ATTR_VIDROTATION_180;

  00088	e3530000	 cmp         r3, #0
  0008c	0a00001b	 beq         |$LN54@SetPipelin|
  00090		 |$LN24@SetPipelin|

; 806  :         {
; 807  :             case OMAP_DSS_ROTATION_0:
; 808  :                 //  Settings for rotation angle 0
; 809  :                 dwVidRotation = (bMirror) ? DISPC_VID_ATTR_VIDROTATION_180 : DISPC_VID_ATTR_VIDROTATION_0;

  00090	e3a09000	 mov         r9, #0
  00094		 |$LN25@SetPipelin|

; 828  :         }
; 829  :     }
; 830  : 
; 831  : 
; 832  :     //  Compute new origin and swap width/height based on GFX pipeline rotation angle
; 833  :     switch( g_rgPipelineMapping[OMAP_DSS_PIPELINE_GFX].eRotation )

  00094	e590300c	 ldr         r3, [r0, #0xC]
  00098	e3530000	 cmp         r3, #0
  0009c	0a00003d	 beq         |$LN9@SetPipelin|
  000a0	e353005a	 cmp         r3, #0x5A
  000a4	0a00002e	 beq         |$LN8@SetPipelin|
  000a8	e35300b4	 cmp         r3, #0xB4
  000ac	0a000015	 beq         |$LN7@SetPipelin|
  000b0	e1530001	 cmp         r3, r1
  000b4	1a00018c	 bne         |$cleanUp$38033|

; 849  :             
; 850  :         case OMAP_DSS_ROTATION_270:
; 851  :             dwX = GetLCDWidth() - pSurface->Height() - dwPosY;

  000b8	e5963000	 ldr         r3, [r6]
  000bc	e59744a8	 ldr         r4, [r7, #0x4A8]
  000c0	e3a01000	 mov         r1, #0
  000c4	e593300c	 ldr         r3, [r3, #0xC]
  000c8	e1a00006	 mov         r0, r6
  000cc	e1a0e00f	 mov         lr, pc
  000d0	e12fff13	 bx          r3
  000d4	e59d2038	 ldr         r2, [sp, #0x38]

; 852  :             dwY = dwPosX;

  000d8	e59d1034	 ldr         r1, [sp, #0x34]
  000dc	e0443000	 sub         r3, r4, r0
  000e0	e0432002	 sub         r2, r3, r2
  000e4	e58d2004	 str         r2, [sp, #4]
  000e8	e58d1000	 str         r1, [sp]

; 853  :             break;

  000ec	ea00002d	 b           |$LN10@SetPipelin|
  000f0		 |$LN14@SetPipelin|

; 810  :                 break;
; 811  : 
; 812  :             case OMAP_DSS_ROTATION_90:
; 813  :                 //  Settings for rotation angle 90 (270 for DSS setting)
; 814  :                 dwVidRotation = DISPC_VID_ATTR_VIDROTATION_270 | DISPC_VID_ATTR_VIDROWREPEATENABLE;

  000f0	e3a09a43	 mov         r9, #0x43, 20

; 815  :                 //dwVidRotation |= DISPC_VID_ATTR_VIDDMAOPTIMIZATION;
; 816  :                 break;

  000f4	eaffffe6	 b           |$LN25@SetPipelin|
  000f8		 |$LN15@SetPipelin|

; 806  :         {
; 807  :             case OMAP_DSS_ROTATION_0:
; 808  :                 //  Settings for rotation angle 0
; 809  :                 dwVidRotation = (bMirror) ? DISPC_VID_ATTR_VIDROTATION_180 : DISPC_VID_ATTR_VIDROTATION_0;

  000f8	e3530000	 cmp         r3, #0
  000fc	0affffe3	 beq         |$LN24@SetPipelin|
  00100		 |$LN54@SetPipelin|
  00100	e3a09a02	 mov         r9, #2, 20
  00104	eaffffe2	 b           |$LN25@SetPipelin|
  00108		 |$LN7@SetPipelin|

; 844  :             
; 845  :         case OMAP_DSS_ROTATION_180:
; 846  :             dwX = GetLCDWidth() - pSurface->Width() - dwPosX;

  00108	e5963000	 ldr         r3, [r6]
  0010c	e59744a8	 ldr         r4, [r7, #0x4A8]
  00110	e3a01000	 mov         r1, #0
  00114	e5933008	 ldr         r3, [r3, #8]
  00118	e1a00006	 mov         r0, r6
  0011c	e1a0e00f	 mov         lr, pc
  00120	e12fff13	 bx          r3

; 847  :             dwY = GetLCDHeight() - pSurface->Height() - dwPosY;

  00124	e5963000	 ldr         r3, [r6]
  00128	e59d5034	 ldr         r5, [sp, #0x34]
  0012c	e3a01000	 mov         r1, #0
  00130	e593200c	 ldr         r2, [r3, #0xC]
  00134	e0443000	 sub         r3, r4, r0
  00138	e0433005	 sub         r3, r3, r5
  0013c	e59744ac	 ldr         r4, [r7, #0x4AC]
  00140	e58d3004	 str         r3, [sp, #4]
  00144	e1a00006	 mov         r0, r6
  00148	e1a0e00f	 mov         lr, pc
  0014c	e12fff12	 bx          r2
  00150	e59d2038	 ldr         r2, [sp, #0x38]
  00154	e0443000	 sub         r3, r4, r0

; 848  :             break;

  00158	e59d500c	 ldr         r5, [sp, #0xC]
  0015c	e0433002	 sub         r3, r3, r2
  00160	ea00000f	 b           |$LN55@SetPipelin|
  00164		 |$LN8@SetPipelin|

; 838  :             break;
; 839  :             
; 840  :         case OMAP_DSS_ROTATION_90:
; 841  :             dwX = dwPosY;
; 842  :             dwY = GetLCDHeight() - pSurface->Width() - dwPosX;

  00164	e5963000	 ldr         r3, [r6]
  00168	e59d2038	 ldr         r2, [sp, #0x38]
  0016c	e59744ac	 ldr         r4, [r7, #0x4AC]
  00170	e5933008	 ldr         r3, [r3, #8]
  00174	e58d2004	 str         r2, [sp, #4]
  00178	e3a01000	 mov         r1, #0
  0017c	e1a00006	 mov         r0, r6
  00180	e1a0e00f	 mov         lr, pc
  00184	e12fff13	 bx          r3
  00188	e59d2034	 ldr         r2, [sp, #0x34]
  0018c	e0443000	 sub         r3, r4, r0
  00190	e0433002	 sub         r3, r3, r2

; 843  :             break;

  00194	ea000002	 b           |$LN55@SetPipelin|
  00198		 |$LN9@SetPipelin|

; 834  :     {
; 835  :         case OMAP_DSS_ROTATION_0:
; 836  :             dwX = dwPosX;

  00198	e59d3034	 ldr         r3, [sp, #0x34]
  0019c	e58d3004	 str         r3, [sp, #4]

; 837  :             dwY = dwPosY;

  001a0	e59d3038	 ldr         r3, [sp, #0x38]
  001a4		 |$LN55@SetPipelin|
  001a4	e58d3000	 str         r3, [sp]
  001a8		 |$LN10@SetPipelin|

; 854  :             
; 855  :         default:
; 856  :             ASSERT(0);
; 857  :             goto cleanUp;
; 858  :     }
; 859  : 
; 860  : 
; 861  :     //  Configure the attributes of the selected pipeline
; 862  : 
; 863  :     
; 864  :     //  GFX pipeline
; 865  :     if( ePipeline == OMAP_DSS_PIPELINE_GFX )

  001a8	e35b0000	 cmp         r11, #0
  001ac	1a00004d	 bne         |$LN3@SetPipelin|

; 866  :     {
; 867  :         //  Set attributes of pipeline
; 868  :         OUTREG32( &m_pDispRegs->DISPC_GFX_ATTRIBUTES,
; 869  :                     ((eDestination == OMAP_DSS_DESTINATION_TVOUT) ? DISPC_GFX_ATTR_GFXCHANNELOUT : 0) |
; 870  :                     DISPC_GFX_ATTR_GFXBURSTSIZE_16x32 |
; 871  :                     DISPC_GFX_ATTR_GFXREPLICATIONENABLE |
; 872  :                     DISPC_GFX_ATTR_GFXFORMAT(pSurface->PixelFormat())
; 873  :                     );

  001b0	e5963004	 ldr         r3, [r6, #4]
  001b4	e3550001	 cmp         r5, #1
  001b8	e5972008	 ldr         r2, [r7, #8]
  001bc	03a00c01	 moveq       r0, #1, 24

; 874  : 
; 875  :         //  Size of window
; 876  :         OUTREG32( &m_pDispRegs->DISPC_GFX_SIZE,
; 877  :                     DISPC_GFX_SIZE_GFXSIZEX(pSurface->Width(eRotation)) |
; 878  :                     DISPC_GFX_SIZE_GFXSIZEY(pSurface->Height(eRotation))
; 879  :                     );

  001c0	e3833050	 orr         r3, r3, #0x50
  001c4	13a00000	 movne       r0, #0
  001c8	e1803083	 orr         r3, r0, r3, lsl #1
  001cc	e58230a0	 str         r3, [r2, #0xA0]
  001d0	e5963000	 ldr         r3, [r6]
  001d4	e1a01008	 mov         r1, r8
  001d8	e1a00006	 mov         r0, r6
  001dc	e5933008	 ldr         r3, [r3, #8]
  001e0	e1a0e00f	 mov         lr, pc
  001e4	e12fff13	 bx          r3
  001e8	e5963000	 ldr         r3, [r6]
  001ec	e1a04000	 mov         r4, r0
  001f0	e1a01008	 mov         r1, r8
  001f4	e593300c	 ldr         r3, [r3, #0xC]
  001f8	e1a00006	 mov         r0, r6
  001fc	e1a0e00f	 mov         lr, pc
  00200	e12fff13	 bx          r3
  00204	e5971008	 ldr         r1, [r7, #8]
  00208	e2402001	 sub         r2, r0, #1
  0020c	e2443001	 sub         r3, r4, #1
  00210	e1833802	 orr         r3, r3, r2, lsl #16

; 880  : 
; 881  :         //  Position of window
; 882  :         OUTREG32( &m_pDispRegs->DISPC_GFX_POSITION,
; 883  :                     DISPC_GFX_POS_GFXPOSX(dwX) |
; 884  :                     DISPC_GFX_POS_GFXPOSY(dwY)
; 885  :                     );

  00214	e59d2004	 ldr         r2, [sp, #4]
  00218	e581308c	 str         r3, [r1, #0x8C]
  0021c	e59d3000	 ldr         r3, [sp]
  00220	e5971008	 ldr         r1, [r7, #8]

; 886  :                     
; 887  :         //  Pipeline FIFO and DMA settings
; 888  :         OUTREG32( &m_pDispRegs->DISPC_GFX_FIFO_THRESHOLD,
; 889  :                     DISPC_GFX_FIFO_THRESHOLD_LOW(FIFO_LOWTHRESHOLD_NORMAL(FIFO_BURSTSIZE_16x32)) |
; 890  :                     DISPC_GFX_FIFO_THRESHOLD_HIGH(FIFO_HIGHTHRESHOLD_NORMAL)
; 891  :                     );
; 892  : 
; 893  :         OUTREG32( &m_pDispRegs->DISPC_GFX_PIXEL_INC, pSurface->PixelIncr(eRotation, bMirror) );

  00224	e3e0533f	 mvn         r5, #0x3F, 6
  00228	e1823803	 orr         r3, r2, r3, lsl #16
  0022c	e5813088	 str         r3, [r1, #0x88]
  00230	e5973008	 ldr         r3, [r7, #8]
  00234	e225ecfe	 eor         lr, r5, #0xFE, 24
  00238	e59d4008	 ldr         r4, [sp, #8]
  0023c	e583e0a4	 str         lr, [r3, #0xA4]
  00240	e5963000	 ldr         r3, [r6]
  00244	e1a02004	 mov         r2, r4
  00248	e1a01008	 mov         r1, r8
  0024c	e5933018	 ldr         r3, [r3, #0x18]
  00250	e1a00006	 mov         r0, r6
  00254	e1a0e00f	 mov         lr, pc
  00258	e12fff13	 bx          r3
  0025c	e5973008	 ldr         r3, [r7, #8]

; 894  :         OUTREG32( &m_pDispRegs->DISPC_GFX_ROW_INC, pSurface->RowIncr(eRotation, bMirror) );

  00260	e1a02004	 mov         r2, r4
  00264	e1a01008	 mov         r1, r8
  00268	e58300b0	 str         r0, [r3, #0xB0]
  0026c	e5963000	 ldr         r3, [r6]
  00270	e1a00006	 mov         r0, r6
  00274	e593301c	 ldr         r3, [r3, #0x1C]
  00278	e1a0e00f	 mov         lr, pc
  0027c	e12fff13	 bx          r3
  00280	e5972008	 ldr         r2, [r7, #8]

; 895  :         OUTREG32( &m_pDispRegs->DISPC_GFX_WINDOW_SKIP, 0 );
; 896  : 
; 897  :         OUTREG32( &m_pDispRegs->DISPC_GFX_BA0, pSurface->PhysicalAddr(eRotation, bMirror) );

  00284	e3a0e000	 mov         lr, #0
  00288	e3a03000	 mov         r3, #0
  0028c	e58200ac	 str         r0, [r2, #0xAC]
  00290	e5970008	 ldr         r0, [r7, #8]
  00294	e1a02004	 mov         r2, r4
  00298	e1a01008	 mov         r1, r8
  0029c	e580e0b4	 str         lr, [r0, #0xB4]
  002a0	e5964000	 ldr         r4, [r6]
  002a4	e1a00006	 mov         r0, r6
  002a8	e5944014	 ldr         r4, [r4, #0x14]
  002ac	e1a0e00f	 mov         lr, pc
  002b0	e12fff14	 bx          r4
  002b4	e5972008	 ldr         r2, [r7, #8]

; 898  :         OUTREG32( &m_pDispRegs->DISPC_GFX_BA1, pSurface->PhysicalAddr(eRotation, bMirror) );

  002b8	e3a03000	 mov         r3, #0
  002bc	e1a01008	 mov         r1, r8
  002c0	e5820080	 str         r0, [r2, #0x80]
  002c4	e5960000	 ldr         r0, [r6]
  002c8	e59d2008	 ldr         r2, [sp, #8]
  002cc	e5904014	 ldr         r4, [r0, #0x14]
  002d0	e1a00006	 mov         r0, r6
  002d4	e1a0e00f	 mov         lr, pc
  002d8	e12fff14	 bx          r4
  002dc	e5973008	 ldr         r3, [r7, #8]
  002e0	e59d500c	 ldr         r5, [sp, #0xC]
  002e4	e5830084	 str         r0, [r3, #0x84]
  002e8		 |$LN3@SetPipelin|

; 899  : 
; 900  :     }    
; 901  : 
; 902  : 
; 903  :     //  VIDEO1 pipeline
; 904  :     if( ePipeline == OMAP_DSS_PIPELINE_VIDEO1 )

  002e8	e35b0001	 cmp         r11, #1
  002ec	1a000071	 bne         |$LN2@SetPipelin|

; 905  :     {
; 906  :         //  Set attributes of pipeline
; 907  :         OUTREG32( &m_pDispRegs->tDISPC_VID1.ATTRIBUTES,
; 908  :                     ((eDestination == OMAP_DSS_DESTINATION_TVOUT) ? DISPC_VID_ATTR_VIDCHANNELOUT : 0) |
; 909  :                     dwVidRotation |
; 910  :                     DISPC_VID_ATTR_VIDBURSTSIZE_16x32 |
; 911  :                     DISPC_VID_ATTR_VIDCOLORCONVENABLE |
; 912  :                     DISPC_VID_ATTR_VIDRESIZE_NONE |
; 913  :                     DISPC_VID_ATTR_VIDFORMAT(pSurface->PixelFormat())
; 914  :                     );

  002f0	e5963004	 ldr         r3, [r6, #4]
  002f4	e3550001	 cmp         r5, #1
  002f8	03a00801	 moveq       r0, #1, 16

; 915  : 
; 916  :         //  Size of window; picture size is the same for no scaling
; 917  :         OUTREG32( &m_pDispRegs->tDISPC_VID1.SIZE,
; 918  :                     DISPC_VID_SIZE_VIDSIZEX(pSurface->Width(eRotation)) |
; 919  :                     DISPC_VID_SIZE_VIDSIZEY(pSurface->Height(eRotation))
; 920  :                     );

  002fc	e3833c41	 orr         r3, r3, #0x41, 24
  00300	13a00000	 movne       r0, #0
  00304	e5972008	 ldr         r2, [r7, #8]
  00308	e1803083	 orr         r3, r0, r3, lsl #1
  0030c	e1833009	 orr         r3, r3, r9
  00310	e58230cc	 str         r3, [r2, #0xCC]
  00314	e5963000	 ldr         r3, [r6]
  00318	e1a01008	 mov         r1, r8
  0031c	e1a00006	 mov         r0, r6
  00320	e5933008	 ldr         r3, [r3, #8]
  00324	e1a0e00f	 mov         lr, pc
  00328	e12fff13	 bx          r3
  0032c	e5963000	 ldr         r3, [r6]
  00330	e1a04000	 mov         r4, r0
  00334	e1a01008	 mov         r1, r8
  00338	e593300c	 ldr         r3, [r3, #0xC]
  0033c	e1a00006	 mov         r0, r6
  00340	e1a0e00f	 mov         lr, pc
  00344	e12fff13	 bx          r3
  00348	e5971008	 ldr         r1, [r7, #8]
  0034c	e2402001	 sub         r2, r0, #1
  00350	e2443001	 sub         r3, r4, #1
  00354	e1833802	 orr         r3, r3, r2, lsl #16
  00358	e58130c8	 str         r3, [r1, #0xC8]

; 921  : 
; 922  :         OUTREG32( &m_pDispRegs->tDISPC_VID1.PICTURE_SIZE,
; 923  :                     DISPC_VID_PICTURE_SIZE_VIDORGSIZEX(pSurface->Width(eRotation)) |
; 924  :                     DISPC_VID_PICTURE_SIZE_VIDORGSIZEY(pSurface->Height(eRotation))
; 925  :                     );

  0035c	e5963000	 ldr         r3, [r6]
  00360	e1a01008	 mov         r1, r8
  00364	e1a00006	 mov         r0, r6
  00368	e5933008	 ldr         r3, [r3, #8]
  0036c	e1a0e00f	 mov         lr, pc
  00370	e12fff13	 bx          r3
  00374	e5963000	 ldr         r3, [r6]
  00378	e1a04000	 mov         r4, r0
  0037c	e1a01008	 mov         r1, r8
  00380	e593300c	 ldr         r3, [r3, #0xC]
  00384	e1a00006	 mov         r0, r6
  00388	e1a0e00f	 mov         lr, pc
  0038c	e12fff13	 bx          r3
  00390	e5971008	 ldr         r1, [r7, #8]
  00394	e2402001	 sub         r2, r0, #1
  00398	e2443001	 sub         r3, r4, #1
  0039c	e1833802	 orr         r3, r3, r2, lsl #16

; 926  : 
; 927  :         //  Position of window
; 928  :         OUTREG32( &m_pDispRegs->tDISPC_VID1.POSITION,
; 929  :                     DISPC_VID_POS_VIDPOSX(dwX) |
; 930  :                     DISPC_VID_POS_VIDPOSY(dwY)
; 931  :                     );

  003a0	e59d2004	 ldr         r2, [sp, #4]
  003a4	e58130e4	 str         r3, [r1, #0xE4]
  003a8	e59d3000	 ldr         r3, [sp]
  003ac	e5971008	 ldr         r1, [r7, #8]

; 932  :                     
; 933  :         //  Pipeline FIFO and DMA settings
; 934  :         OUTREG32( &m_pDispRegs->tDISPC_VID1.FIFO_THRESHOLD,
; 935  :                     DISPC_VID_FIFO_THRESHOLD_LOW(FIFO_LOWTHRESHOLD_NORMAL(FIFO_BURSTSIZE_16x32)) |
; 936  :                     DISPC_VID_FIFO_THRESHOLD_HIGH(FIFO_HIGHTHRESHOLD_NORMAL)
; 937  :                     );
; 938  : 
; 939  :         OUTREG32( &m_pDispRegs->tDISPC_VID1.PIXEL_INC, pSurface->PixelIncr(eRotation, bMirror) );

  003b0	e3e0533f	 mvn         r5, #0x3F, 6
  003b4	e1823803	 orr         r3, r2, r3, lsl #16
  003b8	e58130c4	 str         r3, [r1, #0xC4]
  003bc	e5973008	 ldr         r3, [r7, #8]
  003c0	e225ecfe	 eor         lr, r5, #0xFE, 24
  003c4	e59d4008	 ldr         r4, [sp, #8]
  003c8	e583e0d0	 str         lr, [r3, #0xD0]
  003cc	e5963000	 ldr         r3, [r6]
  003d0	e1a02004	 mov         r2, r4
  003d4	e1a01008	 mov         r1, r8
  003d8	e5933018	 ldr         r3, [r3, #0x18]
  003dc	e1a00006	 mov         r0, r6
  003e0	e1a0e00f	 mov         lr, pc
  003e4	e12fff13	 bx          r3
  003e8	e5973008	 ldr         r3, [r7, #8]

; 940  :         OUTREG32( &m_pDispRegs->tDISPC_VID1.ROW_INC, pSurface->RowIncr(eRotation, bMirror) );

  003ec	e1a02004	 mov         r2, r4
  003f0	e1a01008	 mov         r1, r8
  003f4	e58300dc	 str         r0, [r3, #0xDC]
  003f8	e5963000	 ldr         r3, [r6]
  003fc	e1a00006	 mov         r0, r6
  00400	e593301c	 ldr         r3, [r3, #0x1C]
  00404	e1a0e00f	 mov         lr, pc
  00408	e12fff13	 bx          r3
  0040c	e5972008	 ldr         r2, [r7, #8]

; 941  :         
; 942  :         OUTREG32( &m_pDispRegs->tDISPC_VID1.BA0, pSurface->PhysicalAddr(eRotation, bMirror) );

  00410	e3a03000	 mov         r3, #0
  00414	e1a01008	 mov         r1, r8
  00418	e58200d8	 str         r0, [r2, #0xD8]
  0041c	e596e000	 ldr         lr, [r6]
  00420	e1a02004	 mov         r2, r4
  00424	e1a00006	 mov         r0, r6
  00428	e59e4014	 ldr         r4, [lr, #0x14]
  0042c	e1a0e00f	 mov         lr, pc
  00430	e12fff14	 bx          r4
  00434	e5972008	 ldr         r2, [r7, #8]

; 943  :         OUTREG32( &m_pDispRegs->tDISPC_VID1.BA1, pSurface->PhysicalAddr(eRotation, bMirror) );

  00438	e3a03000	 mov         r3, #0
  0043c	e1a01008	 mov         r1, r8
  00440	e58200bc	 str         r0, [r2, #0xBC]
  00444	e5960000	 ldr         r0, [r6]
  00448	e59d2008	 ldr         r2, [sp, #8]
  0044c	e5904014	 ldr         r4, [r0, #0x14]
  00450	e1a00006	 mov         r0, r6
  00454	e1a0e00f	 mov         lr, pc
  00458	e12fff14	 bx          r4
  0045c	e5973008	 ldr         r3, [r7, #8]
  00460	e59d500c	 ldr         r5, [sp, #0xC]
  00464	e58300c0	 str         r0, [r3, #0xC0]

; 944  : 
; 945  :         
; 946  :         //  Color conversion coefficients
; 947  :         OUTREG32( &m_pDispRegs->tDISPC_VID1.CONV_COEF0, m_pColorSpaceCoeffs[0] );

  00468	e59734a0	 ldr         r3, [r7, #0x4A0]
  0046c	e5972008	 ldr         r2, [r7, #8]
  00470	e5933000	 ldr         r3, [r3]
  00474	e5823130	 str         r3, [r2, #0x130]

; 948  :         OUTREG32( &m_pDispRegs->tDISPC_VID1.CONV_COEF1, m_pColorSpaceCoeffs[1] );

  00478	e59734a0	 ldr         r3, [r7, #0x4A0]
  0047c	e5972008	 ldr         r2, [r7, #8]
  00480	e5933004	 ldr         r3, [r3, #4]
  00484	e5823134	 str         r3, [r2, #0x134]

; 949  :         OUTREG32( &m_pDispRegs->tDISPC_VID1.CONV_COEF2, m_pColorSpaceCoeffs[2] );

  00488	e59734a0	 ldr         r3, [r7, #0x4A0]
  0048c	e5972008	 ldr         r2, [r7, #8]
  00490	e5933008	 ldr         r3, [r3, #8]
  00494	e5823138	 str         r3, [r2, #0x138]

; 950  :         OUTREG32( &m_pDispRegs->tDISPC_VID1.CONV_COEF3, m_pColorSpaceCoeffs[3] );

  00498	e59734a0	 ldr         r3, [r7, #0x4A0]
  0049c	e5972008	 ldr         r2, [r7, #8]
  004a0	e593300c	 ldr         r3, [r3, #0xC]
  004a4	e582313c	 str         r3, [r2, #0x13C]

; 951  :         OUTREG32( &m_pDispRegs->tDISPC_VID1.CONV_COEF4, m_pColorSpaceCoeffs[4] );

  004a8	e59734a0	 ldr         r3, [r7, #0x4A0]
  004ac	e5972008	 ldr         r2, [r7, #8]
  004b0	e5933010	 ldr         r3, [r3, #0x10]
  004b4	e5823140	 str         r3, [r2, #0x140]
  004b8		 |$LN2@SetPipelin|

; 952  :     }    
; 953  : 
; 954  : 
; 955  :     //  VIDEO2 pipeline
; 956  :     if( ePipeline == OMAP_DSS_PIPELINE_VIDEO2 )

  004b8	e35b0002	 cmp         r11, #2
  004bc	1a000070	 bne         |$LN1@SetPipelin|

; 957  :     {
; 958  :         //  Set attributes of pipeline
; 959  :         OUTREG32( &m_pDispRegs->tDISPC_VID2.ATTRIBUTES,
; 960  :                     ((eDestination == OMAP_DSS_DESTINATION_TVOUT) ? DISPC_VID_ATTR_VIDCHANNELOUT : 0) |
; 961  :                     dwVidRotation |
; 962  :                     DISPC_VID_ATTR_VIDBURSTSIZE_16x32 |
; 963  :                     DISPC_VID_ATTR_VIDCOLORCONVENABLE |
; 964  :                     DISPC_VID_ATTR_VIDRESIZE_NONE |
; 965  :                     DISPC_VID_ATTR_VIDFORMAT(pSurface->PixelFormat())
; 966  :                     );

  004c0	e5963004	 ldr         r3, [r6, #4]
  004c4	e3550001	 cmp         r5, #1
  004c8	03a00801	 moveq       r0, #1, 16

; 967  : 
; 968  :         //  Size of window; picture size is the same for no scaling
; 969  :         OUTREG32( &m_pDispRegs->tDISPC_VID2.SIZE,
; 970  :                     DISPC_VID_SIZE_VIDSIZEX(pSurface->Width(eRotation)) |
; 971  :                     DISPC_VID_SIZE_VIDSIZEY(pSurface->Height(eRotation))
; 972  :                     );

  004cc	e3833c41	 orr         r3, r3, #0x41, 24
  004d0	13a00000	 movne       r0, #0
  004d4	e5972008	 ldr         r2, [r7, #8]
  004d8	e1803083	 orr         r3, r0, r3, lsl #1
  004dc	e1833009	 orr         r3, r3, r9
  004e0	e582315c	 str         r3, [r2, #0x15C]
  004e4	e5963000	 ldr         r3, [r6]
  004e8	e1a01008	 mov         r1, r8
  004ec	e1a00006	 mov         r0, r6
  004f0	e5933008	 ldr         r3, [r3, #8]
  004f4	e1a0e00f	 mov         lr, pc
  004f8	e12fff13	 bx          r3
  004fc	e5963000	 ldr         r3, [r6]
  00500	e1a04000	 mov         r4, r0
  00504	e1a01008	 mov         r1, r8
  00508	e593300c	 ldr         r3, [r3, #0xC]
  0050c	e1a00006	 mov         r0, r6
  00510	e1a0e00f	 mov         lr, pc
  00514	e12fff13	 bx          r3
  00518	e5971008	 ldr         r1, [r7, #8]
  0051c	e2402001	 sub         r2, r0, #1
  00520	e2443001	 sub         r3, r4, #1
  00524	e1833802	 orr         r3, r3, r2, lsl #16
  00528	e5813158	 str         r3, [r1, #0x158]

; 973  : 
; 974  :         OUTREG32( &m_pDispRegs->tDISPC_VID2.PICTURE_SIZE,
; 975  :                     DISPC_VID_PICTURE_SIZE_VIDORGSIZEX(pSurface->Width(eRotation)) |
; 976  :                     DISPC_VID_PICTURE_SIZE_VIDORGSIZEY(pSurface->Height(eRotation))
; 977  :                     );

  0052c	e5963000	 ldr         r3, [r6]
  00530	e1a01008	 mov         r1, r8
  00534	e1a00006	 mov         r0, r6
  00538	e5933008	 ldr         r3, [r3, #8]
  0053c	e1a0e00f	 mov         lr, pc
  00540	e12fff13	 bx          r3
  00544	e5963000	 ldr         r3, [r6]
  00548	e1a04000	 mov         r4, r0
  0054c	e1a01008	 mov         r1, r8
  00550	e593300c	 ldr         r3, [r3, #0xC]
  00554	e1a00006	 mov         r0, r6
  00558	e1a0e00f	 mov         lr, pc
  0055c	e12fff13	 bx          r3
  00560	e5971008	 ldr         r1, [r7, #8]
  00564	e2402001	 sub         r2, r0, #1
  00568	e2443001	 sub         r3, r4, #1
  0056c	e1833802	 orr         r3, r3, r2, lsl #16

; 978  : 
; 979  :         //  Position of window
; 980  :         OUTREG32( &m_pDispRegs->tDISPC_VID2.POSITION,
; 981  :                     DISPC_VID_POS_VIDPOSX(dwX) |
; 982  :                     DISPC_VID_POS_VIDPOSY(dwY)
; 983  :                     );

  00570	e59d2004	 ldr         r2, [sp, #4]
  00574	e5813174	 str         r3, [r1, #0x174]
  00578	e59d3000	 ldr         r3, [sp]
  0057c	e5971008	 ldr         r1, [r7, #8]

; 984  :                     
; 985  :         //  Pipeline FIFO and DMA settings
; 986  :         OUTREG32( &m_pDispRegs->tDISPC_VID2.FIFO_THRESHOLD,
; 987  :                     DISPC_VID_FIFO_THRESHOLD_LOW(FIFO_LOWTHRESHOLD_NORMAL(FIFO_BURSTSIZE_16x32)) |
; 988  :                     DISPC_VID_FIFO_THRESHOLD_HIGH(FIFO_HIGHTHRESHOLD_NORMAL)
; 989  :                     );
; 990  : 
; 991  :         OUTREG32( &m_pDispRegs->tDISPC_VID2.PIXEL_INC, pSurface->PixelIncr(eRotation, bMirror) );

  00580	e3e0433f	 mvn         r4, #0x3F, 6
  00584	e1823803	 orr         r3, r2, r3, lsl #16
  00588	e5813154	 str         r3, [r1, #0x154]
  0058c	e5973008	 ldr         r3, [r7, #8]
  00590	e224ecfe	 eor         lr, r4, #0xFE, 24
  00594	e59d9008	 ldr         r9, [sp, #8]
  00598	e583e160	 str         lr, [r3, #0x160]
  0059c	e5963000	 ldr         r3, [r6]
  005a0	e1a02009	 mov         r2, r9
  005a4	e1a01008	 mov         r1, r8
  005a8	e5933018	 ldr         r3, [r3, #0x18]
  005ac	e1a00006	 mov         r0, r6
  005b0	e1a0e00f	 mov         lr, pc
  005b4	e12fff13	 bx          r3
  005b8	e5973008	 ldr         r3, [r7, #8]

; 992  :         OUTREG32( &m_pDispRegs->tDISPC_VID2.ROW_INC, pSurface->RowIncr(eRotation, bMirror) );

  005bc	e1a02009	 mov         r2, r9
  005c0	e1a01008	 mov         r1, r8
  005c4	e583016c	 str         r0, [r3, #0x16C]
  005c8	e5963000	 ldr         r3, [r6]
  005cc	e1a00006	 mov         r0, r6
  005d0	e593301c	 ldr         r3, [r3, #0x1C]
  005d4	e1a0e00f	 mov         lr, pc
  005d8	e12fff13	 bx          r3
  005dc	e5971008	 ldr         r1, [r7, #8]

; 993  : 
; 994  :         OUTREG32( &m_pDispRegs->tDISPC_VID2.BA0, pSurface->PhysicalAddr(eRotation, bMirror) );

  005e0	e3a03000	 mov         r3, #0
  005e4	e1a02009	 mov         r2, r9
  005e8	e5810168	 str         r0, [r1, #0x168]
  005ec	e596e000	 ldr         lr, [r6]
  005f0	e1a01008	 mov         r1, r8
  005f4	e1a00006	 mov         r0, r6
  005f8	e59e4014	 ldr         r4, [lr, #0x14]
  005fc	e1a0e00f	 mov         lr, pc
  00600	e12fff14	 bx          r4
  00604	e5971008	 ldr         r1, [r7, #8]

; 995  :         OUTREG32( &m_pDispRegs->tDISPC_VID2.BA1, pSurface->PhysicalAddr(eRotation, bMirror) );

  00608	e3a03000	 mov         r3, #0
  0060c	e1a02009	 mov         r2, r9
  00610	e581014c	 str         r0, [r1, #0x14C]
  00614	e5960000	 ldr         r0, [r6]
  00618	e1a01008	 mov         r1, r8
  0061c	e5904014	 ldr         r4, [r0, #0x14]
  00620	e1a00006	 mov         r0, r6
  00624	e1a0e00f	 mov         lr, pc
  00628	e12fff14	 bx          r4
  0062c	e5973008	 ldr         r3, [r7, #8]
  00630	e5830150	 str         r0, [r3, #0x150]

; 996  : 
; 997  : 
; 998  : 
; 999  :         //  Color conversion coefficients
; 1000 :         OUTREG32( &m_pDispRegs->tDISPC_VID2.CONV_COEF0, m_pColorSpaceCoeffs[0] );

  00634	e59734a0	 ldr         r3, [r7, #0x4A0]
  00638	e5972008	 ldr         r2, [r7, #8]
  0063c	e5933000	 ldr         r3, [r3]
  00640	e58231c0	 str         r3, [r2, #0x1C0]

; 1001 :         OUTREG32( &m_pDispRegs->tDISPC_VID2.CONV_COEF1, m_pColorSpaceCoeffs[1] );

  00644	e59734a0	 ldr         r3, [r7, #0x4A0]
  00648	e5972008	 ldr         r2, [r7, #8]
  0064c	e5933004	 ldr         r3, [r3, #4]
  00650	e58231c4	 str         r3, [r2, #0x1C4]

; 1002 :         OUTREG32( &m_pDispRegs->tDISPC_VID2.CONV_COEF2, m_pColorSpaceCoeffs[2] );

  00654	e59734a0	 ldr         r3, [r7, #0x4A0]
  00658	e5972008	 ldr         r2, [r7, #8]
  0065c	e5933008	 ldr         r3, [r3, #8]
  00660	e58231c8	 str         r3, [r2, #0x1C8]

; 1003 :         OUTREG32( &m_pDispRegs->tDISPC_VID2.CONV_COEF3, m_pColorSpaceCoeffs[3] );

  00664	e59734a0	 ldr         r3, [r7, #0x4A0]
  00668	e5972008	 ldr         r2, [r7, #8]
  0066c	e593300c	 ldr         r3, [r3, #0xC]
  00670	e58231cc	 str         r3, [r2, #0x1CC]

; 1004 :         OUTREG32( &m_pDispRegs->tDISPC_VID2.CONV_COEF4, m_pColorSpaceCoeffs[4] );

  00674	e59734a0	 ldr         r3, [r7, #0x4A0]
  00678	e5972008	 ldr         r2, [r7, #8]
  0067c	e5933010	 ldr         r3, [r3, #0x10]
  00680	e58231d0	 str         r3, [r2, #0x1D0]
  00684		 |$LN1@SetPipelin|

; 1005 :     }    
; 1006 : 
; 1007 : 
; 1008 : 
; 1009 :     //  Set mapping of pipeline to destination and surface
; 1010 :     g_rgPipelineMapping[ePipeline].eDestination = eDestination;

  00684	e58a5004	 str         r5, [r10, #4]

; 1011 :     g_rgPipelineMapping[ePipeline].pSurface     = pSurface;

  00688	e58a6008	 str         r6, [r10, #8]

; 1012 :     g_rgPipelineMapping[ePipeline].dwDestWidth  = pSurface->Width(eRotation);

  0068c	e5963000	 ldr         r3, [r6]
  00690	e1a01008	 mov         r1, r8
  00694	e1a00006	 mov         r0, r6
  00698	e5933008	 ldr         r3, [r3, #8]
  0069c	e1a0e00f	 mov         lr, pc
  006a0	e12fff13	 bx          r3
  006a4	e58a0014	 str         r0, [r10, #0x14]

; 1013 :     g_rgPipelineMapping[ePipeline].dwDestHeight = pSurface->Height(eRotation);

  006a8	e5963000	 ldr         r3, [r6]
  006ac	e1a01008	 mov         r1, r8
  006b0	e1a00006	 mov         r0, r6
  006b4	e593300c	 ldr         r3, [r3, #0xC]
  006b8	e1a0e00f	 mov         lr, pc
  006bc	e12fff13	 bx          r3

; 1014 :     g_rgPipelineMapping[ePipeline].pOldSurface  = pSurface;
; 1015 : 
; 1016 :     //  Reset the scaling factors to 100% and no interlacing
; 1017 :     g_rgPipelineScaling[ePipeline].dwHorzScaling = 1;

  006c0	e59f1040	 ldr         r1, [pc, #0x40]
  006c4	e08b208b	 add         r2, r11, r11, lsl #1

; 1018 :     g_rgPipelineScaling[ePipeline].dwVertScaling = 1;
; 1019 :     g_rgPipelineScaling[ePipeline].dwInterlace   = 0;

  006c8	e3a04000	 mov         r4, #0
  006cc	e0813102	 add         r3, r1, r2, lsl #2
  006d0	e3a0e001	 mov         lr, #1
  006d4	e5834008	 str         r4, [r3, #8]

; 1020 :     
; 1021 :     //  Result
; 1022 :     bResult = TRUE;         

  006d8	e3a04001	 mov         r4, #1
  006dc	e583e004	 str         lr, [r3, #4]
  006e0	e58a0018	 str         r0, [r10, #0x18]
  006e4	e58a601c	 str         r6, [r10, #0x1C]
  006e8	e781e102	 str         lr, [r1, +r2, lsl #2]
  006ec		 |$cleanUp$38033|

; 1023 : 
; 1024 : cleanUp:    
; 1025 :     //  Release regs
; 1026 :     ReleaseRegs();

  006ec	e2873b01	 add         r3, r7, #1, 22
  006f0	e283008c	 add         r0, r3, #0x8C
  006f4	eb000000	 bl          LeaveCriticalSection

; 1027 :     
; 1028 :     //  Return result
; 1029 :     return bResult;
; 1030 : }

  006f8	e1a00004	 mov         r0, r4
  006fc	e28dd010	 add         sp, sp, #0x10
  00700	e8bd4ff0	 ldmia       sp!, {r4 - r11, lr}
  00704	e12fff1e	 bx          lr
  00708		 |$LN59@SetPipelin|
  00708		 |$LN60@SetPipelin|
  00708	00000000	 DCD         |?g_rgPipelineScaling@@3PAUOMAPPipelineScaling@@A|
  0070c		 |$LN61@SetPipelin|
  0070c	00000000	 DCD         |?g_rgPipelineMapping@@3PAUOMAPPipelineConfig@@A|
  00710		 |$M41203|

			 ENDP  ; |?SetPipelineAttribs@OMAPDisplayController@@QAAHW4OMAP_DSS_PIPELINE@@W4OMAP_DSS_DESTINATION@@PAVOMAPSurface@@KK@Z|, OMAPDisplayController::SetPipelineAttribs

	EXPORT	|__$ArrayPad$| [ DATA ]
	EXPORT	|?SetScalingAttribs@OMAPDisplayController@@QAAHW4OMAP_DSS_PIPELINE@@PAUtagRECT@@1@Z| ; OMAPDisplayController::SetScalingAttribs
	EXPORT	|??_C@_1JI@NGBENMPF@?$AAS?$AAe?$AAt?$AAS?$AAc?$AAa?$AAl?$AAi?$AAn?$AAg?$AAA?$AAt?$AAt?$AAr?$AAi?$AAb?$AAs?$AA?3?$AA?5?$AAC?$AAa?$AAn?$AAn?$AAo?$AAt?$AA?5?$AAc?$AAo?$AAn?$AAf?$AAi?$AAg@| [ DATA ] ; `string'
	IMPORT	|LcdPdd_Get_PixClkDiv|
	IMPORT	|__GSHandlerCheck|
	IMPORT	|?g_dwScalingCoeff_Vert_Down_3_Taps@@3PAKA| ; g_dwScalingCoeff_Vert_Down_3_Taps
	IMPORT	|?g_dwScalingCoeff_Vert_Up_3_Taps@@3PAKA| ; g_dwScalingCoeff_Vert_Up_3_Taps
	IMPORT	|?g_dwScalingCoeff_Vert_Down_5_Taps@@3PAKA| ; g_dwScalingCoeff_Vert_Down_5_Taps
	IMPORT	|?g_dwScalingCoeff_Horiz_Up@@3PAKA|	; g_dwScalingCoeff_Horiz_Up
	IMPORT	|?g_dwScalingCoeff_Horiz_Down@@3PAKA|	; g_dwScalingCoeff_Horiz_Down
	IMPORT	|__security_cookie|
	IMPORT	|memset|
	IMPORT	|__security_check_cookie|

  00000			 AREA	 |.pdata|, PDATA
|$T41459| DCD	|$LN229@SetScaling|
	DCD	0xc0043c02

  00000			 AREA	 |.xdata|, DATA
|$T41455| DCD	0xffffffd8

  00000			 AREA	 |.rdata|, DATA, READONLY
|??_C@_1JI@NGBENMPF@?$AAS?$AAe?$AAt?$AAS?$AAc?$AAa?$AAl?$AAi?$AAn?$AAg?$AAA?$AAt?$AAt?$AAr?$AAi?$AAb?$AAs?$AA?3?$AA?5?$AAC?$AAa?$AAn?$AAn?$AAo?$AAt?$AA?5?$AAc?$AAo?$AAn?$AAf?$AAi?$AAg@| DCB "S"
	DCB	0x0, "e", 0x0, "t", 0x0, "S", 0x0, "c", 0x0, "a", 0x0, "l"
	DCB	0x0, "i", 0x0, "n", 0x0, "g", 0x0, "A", 0x0, "t", 0x0, "t"
	DCB	0x0, "r", 0x0, "i", 0x0, "b", 0x0, "s", 0x0, ":", 0x0, " "
	DCB	0x0, "C", 0x0, "a", 0x0, "n", 0x0, "n", 0x0, "o", 0x0, "t"
	DCB	0x0, " ", 0x0, "c", 0x0, "o", 0x0, "n", 0x0, "f", 0x0, "i"
	DCB	0x0, "g", 0x0, "u", 0x0, "r", 0x0, "e", 0x0, "/", 0x0, "s"
	DCB	0x0, "t", 0x0, "a", 0x0, "r", 0x0, "t", 0x0, " ", 0x0, "I"
	DCB	0x0, "S", 0x0, "P", 0x0, " ", 0x0, "r", 0x0, "e", 0x0, "s"
	DCB	0x0, "i", 0x0, "z", 0x0, "e", 0x0, "r", 0x0, ";", 0x0, " "
	DCB	0x0, "C", 0x0, "r", 0x0, "o", 0x0, "p", 0x0, "p", 0x0, "i"
	DCB	0x0, "n", 0x0, "g", 0x0, " ", 0x0, "t", 0x0, "h", 0x0, "e"
	DCB	0x0, " ", 0x0, "i", 0x0, "m", 0x0, "a", 0x0, "g", 0x0, "e"
	DCB	0x0, 0xd, 0x0, 0xa, 0x0, 0x0, 0x0	; `string'
; Function compile flags: /Ogspy

  00000			 AREA	 |.text|, CODE, ARM

  00000	00000000	 DCD         |__GSHandlerCheck|
  00004	00000000	 DCD         |$T41455|

  00008		 |?SetScalingAttribs@OMAPDisplayController@@QAAHW4OMAP_DSS_PIPELINE@@PAUtagRECT@@1@Z| PROC ; OMAPDisplayController::SetScalingAttribs

; 1128 : {

  00008		 |$LN229@SetScaling|
  00008	e92d4ff0	 stmdb       sp!, {r4 - r11, lr}
  0000c	e24ddf59	 sub         sp, sp, #0x59, 30
  00010		 |$M41456|
  00010	e1a09003	 mov         r9, r3
  00014	e1a0a002	 mov         r10, r2
  00018	e1a06001	 mov         r6, r1
  0001c	e58d905c	 str         r9, [sp, #0x5C]
  00020	e58da050	 str         r10, [sp, #0x50]
  00024	e58d6024	 str         r6, [sp, #0x24]
  00028	e58d0004	 str         r0, [sp, #4]
  0002c	e59f0084	 ldr         r0, [pc, #0x84]
  00030	e5900000	 ldr         r0, [r0]
  00034	e58d0160	 str         r0, [sp, #0x160]

; 1129 :     BOOL                bResult = FALSE;
; 1130 :     OMAPSurface*        pSurface;
; 1131 :     OMAP_DSS_ROTATION   eRotation;
; 1132 :     BOOL                bMirror;
; 1133 :     DWORD   dwSrcWidth,
; 1134 :             dwSrcHeight,
; 1135 :             dwDestWidth,
; 1136 :             dwDestHeight;
; 1137 :     DWORD   dwHorzScale,
; 1138 :             dwVertScale;
; 1139 :     DWORD   dwX, dwY;
; 1140 :     DWORD   dwCurrAttribs;
; 1141 :     DWORD   dwScaleEnable = 0;
; 1142 :     DWORD               dwAccum0 = 0;
; 1143 :     DWORD               dwAccum1 = 0;
; 1144 :     DWORD               dwHorzDecimation = 1;
; 1145 :     DWORD               dwVertDecimation = 1;
; 1146 :     DWORD               dwInterlace = 0;
; 1147 :     DWORD*  pHorizCoeffs = NULL;
; 1148 :     DWORD*  pVertCoeffs = NULL;
; 1149 :     DWORD               dwPixelsPerLine;
; 1150 :     DWORD   i;
; 1151 :     BOOL                bYUVRotated = FALSE;
; 1152 :     DWORD               dwInterlaceCorrection;
; 1153 :     DWORD               dwData1, dwData2;
; 1154 :     DWORD               dwVTaps;
; 1155 :     DWORD               dwFlickerFilter = 0;
; 1156 :     BYTE                Coefficients[5][8];
; 1157 : 
; 1158 :     // Temp array to hold calculated Scaling Coeffs
; 1159 :     DWORD               dwHorizCoeffs[NUM_SCALING_COEFFS];
; 1160 :     DWORD               dwVertCoeffs[NUM_SCALING_COEFFS];
; 1161 :     RECT                privSrcRect = *pSrcRect;
; 1162 :     BOOL                bUseResizer = FALSE;
; 1163 :     
; 1164 :     
; 1165 :     //  Access the regs
; 1166 :     if( AccessRegs() == FALSE )

  00038	e3a03000	 mov         r3, #0
  0003c	e58d3010	 str         r3, [sp, #0x10]
  00040	e3a03000	 mov         r3, #0
  00044	e58d3054	 str         r3, [sp, #0x54]
  00048	e3a03001	 mov         r3, #1
  0004c	e58d3028	 str         r3, [sp, #0x28]
  00050	e59a500c	 ldr         r5, [r10, #0xC]
  00054	e3a03001	 mov         r3, #1
  00058	e58d3014	 str         r3, [sp, #0x14]
  0005c	e3a03000	 mov         r3, #0
  00060	e59a0000	 ldr         r0, [r10]
  00064	e58d3058	 str         r3, [sp, #0x58]
  00068	e59ae004	 ldr         lr, [r10, #4]
  0006c	e59a4008	 ldr         r4, [r10, #8]
  00070	e58d5040	 str         r5, [sp, #0x40]
  00074	e59d5004	 ldr         r5, [sp, #4]
  00078	e3a03000	 mov         r3, #0
  0007c	e58d3048	 str         r3, [sp, #0x48]
  00080	e3a03000	 mov         r3, #0
  00084	e58d0034	 str         r0, [sp, #0x34]
  00088	e3a08000	 mov         r8, #0
  0008c	e1a00005	 mov         r0, r5
  00090	e58d301c	 str         r3, [sp, #0x1C]
  00094	e58de038	 str         lr, [sp, #0x38]
  00098	e58d403c	 str         r4, [sp, #0x3C]
  0009c	e58d8060	 str         r8, [sp, #0x60]
  000a0	eb000000	 bl          |?AccessRegs@OMAPDisplayController@@IAAHXZ|
  000a4	e3500000	 cmp         r0, #0
  000a8	0a000400	 beq         |$cleanUp$38236|

; 1167 :         goto cleanUp;
; 1168 : 
; 1169 : 
; 1170 :     //  Get rotation and mirror settings for pipeline output
; 1171 :     pSurface  = g_rgPipelineMapping[ePipeline].pSurface;

  000ac	e59f3000	 ldr         r3, [pc]
  000b0	ea000001	 b           |$LN240@SetScaling|
  000b4		 |$LN241@SetScaling|
  000b4		 |$LN242@SetScaling|
  000b4	00000000	 DCD         |?g_rgPipelineMapping@@3PAUOMAPPipelineConfig@@A|
  000b8		 |$LN243@SetScaling|
  000b8	00000000	 DCD         |__security_cookie|
  000bc		 |$LN240@SetScaling|

; 1172 :     eRotation = g_rgPipelineMapping[ePipeline].eRotation;
; 1173 :     bMirror   = g_rgPipelineMapping[ePipeline].bMirror;
; 1174 : 
; 1175 : 
; 1176 :     //  Compute horizontal and vertical scaling factors
; 1177 :     dwSrcWidth  = pSrcRect->right - pSrcRect->left;
; 1178 :     dwSrcHeight = pSrcRect->bottom - pSrcRect->top;
; 1179 : 
; 1180 :     dwDestWidth  = pDestRect->right - pDestRect->left;
; 1181 :     dwDestHeight = pDestRect->bottom - pDestRect->top;
; 1182 : 
; 1183 :     
; 1184 :     //  Check for odd destination RECT values only for YUV pixel formats
; 1185 :     if( (pSurface->PixelFormat() == OMAP_DSS_PIXELFORMAT_YUV2) ||
; 1186 :         (pSurface->PixelFormat() == OMAP_DSS_PIXELFORMAT_UYVY) )

  000bc	e599b008	 ldr         r11, [r9, #8]
  000c0	e5992000	 ldr         r2, [r9]
  000c4	e0837286	 add         r7, r3, r6, lsl #5
  000c8	e5976008	 ldr         r6, [r7, #8]
  000cc	e59a4008	 ldr         r4, [r10, #8]
  000d0	e59ae000	 ldr         lr, [r10]
  000d4	e5965004	 ldr         r5, [r6, #4]
  000d8	e59a000c	 ldr         r0, [r10, #0xC]
  000dc	e59a1004	 ldr         r1, [r10, #4]
  000e0	e355000a	 cmp         r5, #0xA
  000e4	e597500c	 ldr         r5, [r7, #0xC]
  000e8	e5993004	 ldr         r3, [r9, #4]
  000ec	e58d6074	 str         r6, [sp, #0x74]
  000f0	e58d5030	 str         r5, [sp, #0x30]
  000f4	e5975010	 ldr         r5, [r7, #0x10]
  000f8	e04b7002	 sub         r7, r11, r2
  000fc	e599200c	 ldr         r2, [r9, #0xC]
  00100	e58d5044	 str         r5, [sp, #0x44]
  00104	e044500e	 sub         r5, r4, lr
  00108	e0404001	 sub         r4, r0, r1
  0010c	e58d400c	 str         r4, [sp, #0xC]
  00110	e042b003	 sub         r11, r2, r3
  00114	0a000002	 beq         |$LN100@SetScaling|
  00118	e5963004	 ldr         r3, [r6, #4]
  0011c	e353000b	 cmp         r3, #0xB
  00120	1a000017	 bne         |$LN96@SetScaling|
  00124		 |$LN100@SetScaling|

; 1187 :     {
; 1188 :         //  Check for odd destination RECT values
; 1189 :         if( (dwDestWidth % 2) == 1 )

  00124	e2073001	 and         r3, r7, #1
  00128	e3530001	 cmp         r3, #1

; 1190 :         {
; 1191 :             pDestRect->right -= 1;

  0012c	05993008	 ldreq       r3, [r9, #8]

; 1192 :             dwDestWidth -= 1;

  00130	02477001	 subeq       r7, r7, #1
  00134	02433001	 subeq       r3, r3, #1
  00138	05893008	 streq       r3, [r9, #8]

; 1193 :         }
; 1194 : 
; 1195 :         if( (dwDestHeight % 2) == 1 )

  0013c	e20b3001	 and         r3, r11, #1
  00140	e3530001	 cmp         r3, #1

; 1196 :         {
; 1197 :             pDestRect->bottom -= 1;

  00144	02423001	 subeq       r3, r2, #1
  00148	0589300c	 streq       r3, [r9, #0xC]

; 1198 :             dwDestHeight -= 1;
; 1199 :         }
; 1200 :         if( (dwSrcWidth % 2) == 1 )

  0014c	e2053001	 and         r3, r5, #1
  00150	024bb001	 subeq       r11, r11, #1
  00154	e3530001	 cmp         r3, #1

; 1201 :         {
; 1202 :             pSrcRect->right -= 1;

  00158	059a3008	 ldreq       r3, [r10, #8]

; 1203 :             dwSrcWidth -= 1;

  0015c	02455001	 subeq       r5, r5, #1
  00160	02433001	 subeq       r3, r3, #1
  00164	058a3008	 streq       r3, [r10, #8]

; 1204 :         }
; 1205 : 
; 1206 :         if( (dwSrcHeight % 2) == 1 )

  00168	e2043001	 and         r3, r4, #1
  0016c	e3530001	 cmp         r3, #1

; 1207 :         {
; 1208 :             pSrcRect->bottom -= 1;

  00170	059a300c	 ldreq       r3, [r10, #0xC]

; 1209 :             dwSrcHeight -= 1;

  00174	02444001	 subeq       r4, r4, #1
  00178	058d400c	 streq       r4, [sp, #0xC]
  0017c	02433001	 subeq       r3, r3, #1
  00180	058a300c	 streq       r3, [r10, #0xC]
  00184		 |$LN96@SetScaling|

; 1210 :         }
; 1211 :     }
; 1212 : 
; 1213 :     //  Compute scaling factors
; 1214 :     dwHorzScale = 1024 * dwSrcWidth / dwDestWidth;

  00184	e1a00007	 mov         r0, r7
  00188	e1a01505	 mov         r1, r5, lsl #10
  0018c	eb000000	 bl          __rt_udiv
  00190	e58d0000	 str         r0, [sp]

; 1215 :     dwVertScale = 1024 * dwSrcHeight / dwDestHeight;

  00194	e1a0000b	 mov         r0, r11
  00198	e1a01504	 mov         r1, r4, lsl #10
  0019c	eb000000	 bl          __rt_udiv

; 1216 : 
; 1217 :     privSrcRect = *pSrcRect;

  001a0	e59ae00c	 ldr         lr, [r10, #0xC]
  001a4	e59a3000	 ldr         r3, [r10]
  001a8	e59a2004	 ldr         r2, [r10, #4]
  001ac	e59a1008	 ldr         r1, [r10, #8]

; 1218 : 
; 1219 : 	if (( g_rgPipelineMapping[ePipeline].eDestination == OMAP_DSS_DESTINATION_LCD ) &&
; 1220 :         (ePipeline != OMAP_DSS_PIPELINE_GFX ))

  001b0	e59faf20	 ldr         r10, [pc, #0xF20]
  001b4	e59d9024	 ldr         r9, [sp, #0x24]
  001b8	e58d3034	 str         r3, [sp, #0x34]
  001bc	e1a03000	 mov         r3, r0
  001c0	e08a4289	 add         r4, r10, r9, lsl #5
  001c4	e5944004	 ldr         r4, [r4, #4]
  001c8	e59d905c	 ldr         r9, [sp, #0x5C]
  001cc	e59da050	 ldr         r10, [sp, #0x50]
  001d0	e58de040	 str         lr, [sp, #0x40]
  001d4	e3540000	 cmp         r4, #0
  001d8	e58d2038	 str         r2, [sp, #0x38]
  001dc	e58d103c	 str         r1, [sp, #0x3C]
  001e0	e58d3018	 str         r3, [sp, #0x18]
  001e4	e3a0e000	 mov         lr, #0
  001e8	1a000042	 bne         |$LN95@SetScaling|
  001ec	e59d3024	 ldr         r3, [sp, #0x24]
  001f0	e3530000	 cmp         r3, #0
  001f4	0a00003f	 beq         |$LN95@SetScaling|

; 1221 :     {
; 1222 : 		if ( m_bDssIspRszEnabled && // is globally enabled
; 1223 :              ((NeedISPResizer(dwHorzScale,dwVertScale,LcdPdd_Get_PixClkDiv()))==TRUE) && // do we need it
; 1224 :              (pSurface->GetRSZHandle(TRUE) != NULL) &&  // can we use it
; 1225 :              (pSurface->UseResizer(TRUE) == TRUE)) // do we have the buffers

  001f8	e59d4004	 ldr         r4, [sp, #4]
  001fc	e5943514	 ldr         r3, [r4, #0x514]
  00200	e3530000	 cmp         r3, #0
  00204	0a000029	 beq         |$LN94@SetScaling|
  00208	eb000000	 bl          LcdPdd_Get_PixClkDiv
  0020c	e59d1018	 ldr         r1, [sp, #0x18]
  00210	e1a02000	 mov         r2, r0
  00214	e59d0000	 ldr         r0, [sp]
  00218	eb000000	 bl          |?NeedISPResizer@@YAHKKK@Z|
  0021c	e3500001	 cmp         r0, #1
  00220	1a000021	 bne         |$LN220@SetScaling|
  00224	e3a01001	 mov         r1, #1
  00228	e1a00006	 mov         r0, r6
  0022c	eb000000	 bl          |?GetRSZHandle@OMAPSurface@@QAAPAXH@Z|
  00230	e3500000	 cmp         r0, #0
  00234	0a00001c	 beq         |$LN220@SetScaling|
  00238	e59630a0	 ldr         r3, [r6, #0xA0]
  0023c	e3530000	 cmp         r3, #0
  00240	0a000016	 beq         |$LN125@SetScaling|
  00244	e3a03001	 mov         r3, #1
  00248	e5863030	 str         r3, [r6, #0x30]

; 1226 : 		{		    
; 1227 : 		    //all check passed
; 1228 :             bUseResizer = TRUE;
; 1229 :             /* Since ISP Resizer would be providing the src image to 
; 1230 :             DSS, make the SRC RECT for DSS same as DEST RECT */
; 1231 :             privSrcRect.left=0;

  0024c	e3a03000	 mov         r3, #0
  00250	e58d3020	 str         r3, [sp, #0x20]

; 1232 :             privSrcRect.right = dwDestWidth;
; 1233 :             privSrcRect.top=0;
; 1234 : 			privSrcRect.bottom = dwDestHeight;			
; 1235 : 			
; 1236 : 			dwSrcWidth  = privSrcRect.right - privSrcRect.left;
; 1237 :             dwSrcHeight = privSrcRect.bottom - privSrcRect.top;
; 1238 :             dwHorzScale = 1024 * dwSrcWidth / dwDestWidth;

  00254	e58d3034	 str         r3, [sp, #0x34]
  00258	e3a03001	 mov         r3, #1
  0025c	e3a02000	 mov         r2, #0
  00260	e1a00007	 mov         r0, r7
  00264	e1a01507	 mov         r1, r7, lsl #10
  00268	e58d301c	 str         r3, [sp, #0x1C]
  0026c	e58d2008	 str         r2, [sp, #8]
  00270	e58d2038	 str         r2, [sp, #0x38]
  00274	e58d703c	 str         r7, [sp, #0x3C]
  00278	e58db040	 str         r11, [sp, #0x40]
  0027c	e1a05007	 mov         r5, r7
  00280	e58db00c	 str         r11, [sp, #0xC]
  00284	eb000000	 bl          __rt_udiv
  00288	e58d0000	 str         r0, [sp]

; 1239 : 			dwVertScale = 1024 * dwSrcHeight / dwDestHeight;            

  0028c	e1a0000b	 mov         r0, r11
  00290	e1a0150b	 mov         r1, r11, lsl #10
  00294	eb000000	 bl          __rt_udiv
  00298	e58d0018	 str         r0, [sp, #0x18]

; 1240 :         } 
; 1241 :         else

  0029c	ea000027	 b           |$LN92@SetScaling|

; 1221 :     {
; 1222 : 		if ( m_bDssIspRszEnabled && // is globally enabled
; 1223 :              ((NeedISPResizer(dwHorzScale,dwVertScale,LcdPdd_Get_PixClkDiv()))==TRUE) && // do we need it
; 1224 :              (pSurface->GetRSZHandle(TRUE) != NULL) &&  // can we use it
; 1225 :              (pSurface->UseResizer(TRUE) == TRUE)) // do we have the buffers

  002a0		 |$LN125@SetScaling|
  002a0	e3a0e000	 mov         lr, #0
  002a4	e586e030	 str         lr, [r6, #0x30]
  002a8	ea000000	 b           |$LN94@SetScaling|
  002ac		 |$LN220@SetScaling|
  002ac	e3a0e000	 mov         lr, #0
  002b0		 |$LN94@SetScaling|

; 1242 :         {
; 1243 :             /* some check did not pass - disable ISP resizer */
; 1244 :             pSurface->SetRSZHandle(NULL,TRUE);

  002b0	e5963034	 ldr         r3, [r6, #0x34]
  002b4	e3530000	 cmp         r3, #0
  002b8	0a000003	 beq         |$LN128@SetScaling|
  002bc	e1a00003	 mov         r0, r3
  002c0	eb000000	 bl          CloseHandle
  002c4	e3a0e000	 mov         lr, #0
  002c8	e586e034	 str         lr, [r6, #0x34]
  002cc		 |$LN128@SetScaling|

; 1245 :             pSurface->UseResizer(FALSE);
; 1246 :             memset(pSurface->ResizeParams(),0,sizeof(RSZParams_t));

  002cc	e3a02064	 mov         r2, #0x64
  002d0	e3a01000	 mov         r1, #0
  002d4	e2860038	 add         r0, r6, #0x38
  002d8	e586e034	 str         lr, [r6, #0x34]
  002dc	e586e030	 str         lr, [r6, #0x30]
  002e0	eb000000	 bl          memset

; 1247 :         }        
; 1248 :     }
; 1249 :     else /* for cases where surfaces are re-assigned to different pipelines */

  002e4	e59d1038	 ldr         r1, [sp, #0x38]
  002e8	e59d2034	 ldr         r2, [sp, #0x34]
  002ec	e58d1008	 str         r1, [sp, #8]
  002f0	e58d2020	 str         r2, [sp, #0x20]
  002f4	ea000011	 b           |$LN92@SetScaling|
  002f8		 |$LN95@SetScaling|

; 1250 :     {
; 1251 :         /* some check did not pass - disable ISP resizer */
; 1252 :         pSurface->SetRSZHandle(NULL,TRUE);

  002f8	e5963034	 ldr         r3, [r6, #0x34]
  002fc	e3530000	 cmp         r3, #0
  00300	0a000003	 beq         |$LN137@SetScaling|
  00304	e1a00003	 mov         r0, r3
  00308	eb000000	 bl          CloseHandle
  0030c	e3a0e000	 mov         lr, #0
  00310	e586e034	 str         lr, [r6, #0x34]
  00314		 |$LN137@SetScaling|

; 1253 :         pSurface->UseResizer(FALSE);
; 1254 :         memset(pSurface->ResizeParams(),0,sizeof(RSZParams_t));

  00314	e3a02064	 mov         r2, #0x64
  00318	e3a01000	 mov         r1, #0
  0031c	e2860038	 add         r0, r6, #0x38
  00320	e586e034	 str         lr, [r6, #0x34]
  00324	e586e030	 str         lr, [r6, #0x30]
  00328	eb000000	 bl          memset
  0032c	e59d3038	 ldr         r3, [sp, #0x38]
  00330	e59d4004	 ldr         r4, [sp, #4]
  00334	e58d3008	 str         r3, [sp, #8]
  00338	e59d3034	 ldr         r3, [sp, #0x34]
  0033c	e58d3020	 str         r3, [sp, #0x20]
  00340		 |$LN92@SetScaling|

; 1255 :     }    
; 1256 :     
; 1257 :     
; 1258 :     if ((eRotation == OMAP_DSS_ROTATION_0)||(eRotation == OMAP_DSS_ROTATION_180))

  00340	e59d3030	 ldr         r3, [sp, #0x30]

; 1259 :         dwPixelsPerLine = GetLCDWidth();
; 1260 :     else
; 1261 :         dwPixelsPerLine = GetLCDHeight();
; 1262 : 
; 1263 :     // Limit the scaling to 1/3rd of the original size
; 1264 :     if ((dwHorzScale > 3072) && (dwSrcWidth > dwPixelsPerLine))

  00344	e3a02c01	 mov         r2, #1, 24
  00348	e382000e	 orr         r0, r2, #0xE
  0034c	e3530000	 cmp         r3, #0
  00350	e59d2000	 ldr         r2, [sp]
  00354	135300b4	 cmpne       r3, #0xB4
  00358	159414ac	 ldrne       r1, [r4, #0x4AC]
  0035c	059414a8	 ldreq       r1, [r4, #0x4A8]
  00360	e3520b03	 cmp         r2, #3, 22
  00364	e58d004c	 str         r0, [sp, #0x4C]
  00368	9a000015	 bls         |$LN88@SetScaling|
  0036c	e1550001	 cmp         r5, r1
  00370	9a000013	 bls         |$LN88@SetScaling|

; 1265 :     {
; 1266 :         // Max scale factor feasible is 1/3rd
; 1267 :         // Based on 1/3rd scale factor, increase the dest rect size
; 1268 :         DWORD dstWidthOffset = 0;
; 1269 :         DWORD newDstWidth    = 0;
; 1270 :         newDstWidth    = dwSrcWidth/3;

  00374	e59f3d78	 ldr         r3, [pc, #0xD78]

; 1271 : 
; 1272 :         // Make sure to set the dst width >= 1/3 x srcwidth
; 1273 :         if (dwSrcWidth%3 != 0)
; 1274 :             newDstWidth += 1;
; 1275 :             
; 1276 :         // Check the size of the new dst width calculated.
; 1277 :         newDstWidth    = (newDstWidth > GetLCDWidth())? GetLCDWidth() : newDstWidth ;
; 1278 : 
; 1279 :         // Divide it equally to the left and right side of the dst window
; 1280 :         dstWidthOffset = (newDstWidth-dwDestWidth)/2;
; 1281 :           
; 1282 :         // adjust the Dest rect based on the new scale factor
; 1283 :         if ((DWORD)pDestRect->left > dstWidthOffset)

  00378	e5990000	 ldr         r0, [r9]
  0037c	e0832395	 umull       r2, r3, r5, r3
  00380	e1a010a3	 mov         r1, r3, lsr #1
  00384	e0813081	 add         r3, r1, r1, lsl #1
  00388	e0553003	 subs        r3, r5, r3
  0038c	e59d5004	 ldr         r5, [sp, #4]
  00390	12811001	 addne       r1, r1, #1
  00394	e59534a8	 ldr         r3, [r5, #0x4A8]
  00398	e1510003	 cmp         r1, r3
  0039c	81a01003	 movhi       r1, r3
  003a0	e0413007	 sub         r3, r1, r7
  003a4	e1a020a3	 mov         r2, r3, lsr #1
  003a8	e1500002	 cmp         r0, r2

; 1284 :             pDestRect->left  -= dstWidthOffset;

  003ac	80403002	 subhi       r3, r0, r2
  003b0	85893000	 strhi       r3, [r9]

; 1285 : 
; 1286 :         pDestRect->right += dstWidthOffset;

  003b4	e5993008	 ldr         r3, [r9, #8]
  003b8	e0833002	 add         r3, r3, r2
  003bc	e5893008	 str         r3, [r9, #8]

; 1287 :     }
; 1288 :     else

  003c0	ea000031	 b           |$LN79@SetScaling|
  003c4		 |$LN88@SetScaling|

; 1289 :     {
; 1290 :         //  If playback is rotated and scaled and color converted, adjust clipping to avoid sync lost
; 1291 :         if( (eRotation == OMAP_DSS_ROTATION_90)||(eRotation == OMAP_DSS_ROTATION_270) )

  003c4	e353005a	 cmp         r3, #0x5A
  003c8	0a000001	 beq         |$LN83@SetScaling|
  003cc	e1530000	 cmp         r3, r0
  003d0	1a00002c	 bne         |$LN215@SetScaling|
  003d4		 |$LN83@SetScaling|

; 1292 :         {
; 1293 :             if( (pSurface->PixelFormat() == OMAP_DSS_PIXELFORMAT_YUV2) ||
; 1294 :                 (pSurface->PixelFormat() == OMAP_DSS_PIXELFORMAT_UYVY) )

  003d4	e5963004	 ldr         r3, [r6, #4]
  003d8	e353000a	 cmp         r3, #0xA
  003dc	0a000001	 beq         |$LN81@SetScaling|
  003e0	e353000b	 cmp         r3, #0xB
  003e4	1a000027	 bne         |$LN215@SetScaling|
  003e8		 |$LN81@SetScaling|

; 1295 :             {
; 1296 :                 //  Flag special case of YUV rotated
; 1297 :                 bYUVRotated = TRUE;
; 1298 :                 
; 1299 :                 //  Rotated scaling with color conversion in these bounds has issues
; 1300 :                 if( dwHorzScale > 1536 && dwHorzScale < 2048 )            

  003e8	e3a03c06	 mov         r3, #6, 24
  003ec	e3834001	 orr         r4, r3, #1
  003f0	e3a01c01	 mov         r1, #1, 24
  003f4	e0423004	 sub         r3, r2, r4
  003f8	e38110fe	 orr         r1, r1, #0xFE
  003fc	e1530001	 cmp         r3, r1
  00400	e3a03001	 mov         r3, #1
  00404	e58d3048	 str         r3, [sp, #0x48]
  00408	e58d1000	 str         r1, [sp]
  0040c	8a00000c	 bhi         |$LN80@SetScaling|

; 1301 :                 {
; 1302 :                     DWORD   dwOldSrcWidth = dwSrcWidth;
; 1303 :                     
; 1304 :                     //  Clip src width  
; 1305 :                     dwSrcWidth = dwSrcWidth * 1536 / dwHorzScale;

  00410	e0853085	 add         r3, r5, r5, lsl #1
  00414	e1a01483	 mov         r1, r3, lsl #9
  00418	e1a00002	 mov         r0, r2
  0041c	eb000000	 bl          __rt_udiv

; 1306 :                     dwSrcWidth = ((dwSrcWidth % 2) == 0) ? dwSrcWidth : dwSrcWidth - 1;

  00420	e3100001	 tst         r0, #1

; 1307 :                     privSrcRect.left  = privSrcRect.left + (dwOldSrcWidth - dwSrcWidth)/2;

  00424	e59d2020	 ldr         r2, [sp, #0x20]
  00428	12400001	 subne       r0, r0, #1
  0042c	e0453000	 sub         r3, r5, r0
  00430	e08230a3	 add         r3, r2, r3, lsr #1
  00434	e58d3034	 str         r3, [sp, #0x34]

; 1308 :                     privSrcRect.right = privSrcRect.left + dwSrcWidth;

  00438	e0833000	 add         r3, r3, r0
  0043c	e59d1000	 ldr         r1, [sp]
  00440	e58d303c	 str         r3, [sp, #0x3C]
  00444		 |$LN80@SetScaling|

; 1309 :                 }
; 1310 :             
; 1311 :                 //  Rotated scaling with color conversion in these bounds has issues
; 1312 :                 if( dwVertScale > 1536 && dwVertScale < 2048 )            

  00444	e59d2018	 ldr         r2, [sp, #0x18]
  00448	e0423004	 sub         r3, r2, r4
  0044c	e1530001	 cmp         r3, r1
  00450	8a00000c	 bhi         |$LN215@SetScaling|

; 1313 :                 {
; 1314 :                     DWORD   dwOldSrcHeight = dwSrcHeight;
; 1315 :                     
; 1316 :                     //  Clip src height  
; 1317 :                     dwSrcHeight = dwSrcHeight * 1536 / dwVertScale;

  00454	e59d400c	 ldr         r4, [sp, #0xC]
  00458	e1a00002	 mov         r0, r2
  0045c	e0843084	 add         r3, r4, r4, lsl #1
  00460	e1a01483	 mov         r1, r3, lsl #9
  00464	eb000000	 bl          __rt_udiv

; 1318 :                     dwSrcHeight = ((dwSrcHeight % 2) == 0) ? dwSrcHeight : dwSrcHeight - 1;

  00468	e3100001	 tst         r0, #1

; 1319 :                     privSrcRect.top    = privSrcRect.top + (dwOldSrcHeight - dwSrcHeight)/2;

  0046c	e59d2008	 ldr         r2, [sp, #8]
  00470	12400001	 subne       r0, r0, #1
  00474	e0443000	 sub         r3, r4, r0
  00478	e08230a3	 add         r3, r2, r3, lsr #1
  0047c	e58d3038	 str         r3, [sp, #0x38]

; 1320 :                     privSrcRect.bottom = privSrcRect.top + dwSrcHeight;

  00480	e0833000	 add         r3, r3, r0
  00484	e58d3040	 str         r3, [sp, #0x40]
  00488		 |$LN215@SetScaling|

; 1847 :         }
; 1848 :         else
; 1849 :         {
; 1850 :             //No scale
; 1851 :         }
; 1852 : 
; 1853 :         //  Accum0/1 controls the scaler phase for the even/odd fields
; 1854 :         if (m_dwTVFilterLevel == OMAP_TV_FILTER_LEVEL_OFF)

  00488	e59d5004	 ldr         r5, [sp, #4]

; 1320 :                     privSrcRect.bottom = privSrcRect.top + dwSrcHeight;

  0048c		 |$LN79@SetScaling|

; 1321 :                 }
; 1322 :             }
; 1323 :         }
; 1324 :     }
; 1325 : 
; 1326 :     if (!bUseResizer)

  0048c	e59d301c	 ldr         r3, [sp, #0x1C]

; 1327 :         //  Set the clipping region for the surface
; 1328 :         g_rgPipelineMapping[ePipeline].pSurface->SetClipping( &privSrcRect);

  00490	e59d2024	 ldr         r2, [sp, #0x24]
  00494	e3530000	 cmp         r3, #0
  00498	e59f3c38	 ldr         r3, [pc, #0xC38]
  0049c	e0834282	 add         r4, r3, r2, lsl #5
  004a0	e5940008	 ldr         r0, [r4, #8]
  004a4	1a000005	 bne         |$LN78@SetScaling|
  004a8	e5903000	 ldr         r3, [r0]
  004ac	e28d1034	 add         r1, sp, #0x34
  004b0	e5933020	 ldr         r3, [r3, #0x20]
  004b4	e1a0e00f	 mov         lr, pc
  004b8	e12fff13	 bx          r3

; 1329 :     else

  004bc	ea000011	 b           |$LN77@SetScaling|
  004c0		 |$LN78@SetScaling|

; 1330 :     {
; 1331 :         RECT rszRect;
; 1332 :         rszRect.top = 0;
; 1333 :         rszRect.left = 0;
; 1334 :         rszRect.bottom = rszRect.top + dwDestHeight;
; 1335 :         rszRect.right = rszRect.left + dwDestWidth;        
; 1336 :         g_rgPipelineMapping[ePipeline].pSurface->SetClipping( pSrcRect);

  004c0	e3a03000	 mov         r3, #0
  004c4	e3a02000	 mov         r2, #0
  004c8	e58d3068	 str         r3, [sp, #0x68]
  004cc	e58d2064	 str         r2, [sp, #0x64]
  004d0	e58db070	 str         r11, [sp, #0x70]
  004d4	e58d706c	 str         r7, [sp, #0x6C]
  004d8	e5903000	 ldr         r3, [r0]
  004dc	e1a0100a	 mov         r1, r10
  004e0	e5933020	 ldr         r3, [r3, #0x20]
  004e4	e1a0e00f	 mov         lr, pc
  004e8	e12fff13	 bx          r3

; 1337 :         g_rgPipelineMapping[ePipeline].pSurface->OmapAssocSurface()->SetClipping( &rszRect );

  004ec	e5943008	 ldr         r3, [r4, #8]
  004f0	e28d1064	 add         r1, sp, #0x64
  004f4	e59300a0	 ldr         r0, [r3, #0xA0]
  004f8	e5903000	 ldr         r3, [r0]
  004fc	e5933020	 ldr         r3, [r3, #0x20]
  00500	e1a0e00f	 mov         lr, pc
  00504	e12fff13	 bx          r3
  00508		 |$LN77@SetScaling|

; 1338 :     }
; 1339 : 
; 1340 :     //  Compute src and dest width/height
; 1341 :     dwSrcWidth  = privSrcRect.right - privSrcRect.left;
; 1342 :     dwSrcHeight = privSrcRect.bottom - privSrcRect.top;
; 1343 : 
; 1344 :     dwDestWidth  = pDestRect->right - pDestRect->left;
; 1345 :     dwDestHeight = pDestRect->bottom - pDestRect->top;
; 1346 : 
; 1347 :     //  Swap src width/height based on pipeline rotation angle
; 1348 :     switch( g_rgPipelineMapping[ePipeline].eRotation )

  00508	e594400c	 ldr         r4, [r4, #0xC]
  0050c	e59d0038	 ldr         r0, [sp, #0x38]
  00510	e59d1034	 ldr         r1, [sp, #0x34]
  00514	e58d4000	 str         r4, [sp]
  00518	e59d4040	 ldr         r4, [sp, #0x40]
  0051c	e59d703c	 ldr         r7, [sp, #0x3C]
  00520	e599e004	 ldr         lr, [r9, #4]
  00524	e599300c	 ldr         r3, [r9, #0xC]
  00528	e5992008	 ldr         r2, [r9, #8]
  0052c	e0444000	 sub         r4, r4, r0
  00530	e5990000	 ldr         r0, [r9]
  00534	e047b001	 sub         r11, r7, r1
  00538	e043700e	 sub         r7, r3, lr
  0053c	e59d3000	 ldr         r3, [sp]
  00540	e0421000	 sub         r1, r2, r0
  00544	e59d204c	 ldr         r2, [sp, #0x4C]
  00548	e58d100c	 str         r1, [sp, #0xC]
  0054c	e58de02c	 str         lr, [sp, #0x2C]
  00550	e58d401c	 str         r4, [sp, #0x1C]
  00554	e58d7018	 str         r7, [sp, #0x18]
  00558	e353005a	 cmp         r3, #0x5A
  0055c	0a000001	 beq         |$LN74@SetScaling|
  00560	e1530002	 cmp         r3, r2
  00564	1a000003	 bne         |$LN75@SetScaling|
  00568		 |$LN74@SetScaling|

; 1349 :     {
; 1350 :         case OMAP_DSS_ROTATION_90:
; 1351 :             //  Settings for rotation angle 90
; 1352 :             i = dwSrcWidth;

  00568	e1a0300b	 mov         r3, r11

; 1353 :             dwSrcWidth = dwSrcHeight;

  0056c	e1a0b004	 mov         r11, r4

; 1354 :             dwSrcHeight = i;

  00570	e1a04003	 mov         r4, r3
  00574	e58d401c	 str         r4, [sp, #0x1C]
  00578		 |$LN75@SetScaling|

; 1355 :             break;
; 1356 : 
; 1357 :         case OMAP_DSS_ROTATION_270:
; 1358 :             //  Settings for rotation angle 270
; 1359 :             i = dwSrcWidth;
; 1360 :             dwSrcWidth = dwSrcHeight;
; 1361 :             dwSrcHeight = i;
; 1362 :             break;
; 1363 :     }
; 1364 : 
; 1365 :     //  Default origin
; 1366 :     dwX = pDestRect->left;
; 1367 :     dwY = pDestRect->top;
; 1368 : 
; 1369 : 
; 1370 :     //------------------------------------------------------------------------------
; 1371 :     //  Configure the scaling of the pipeline for LCD display
; 1372 :     //
; 1373 :     if( g_rgPipelineMapping[ePipeline].eDestination == OMAP_DSS_DESTINATION_LCD )

  00578	e59fab58	 ldr         r10, [pc, #0xB58]
  0057c	e59d9024	 ldr         r9, [sp, #0x24]
  00580	e58d0020	 str         r0, [sp, #0x20]
  00584	e08a3289	 add         r3, r10, r9, lsl #5
  00588	e5933004	 ldr         r3, [r3, #4]
  0058c	e59d905c	 ldr         r9, [sp, #0x5C]
  00590	e59da050	 ldr         r10, [sp, #0x50]
  00594	e3530000	 cmp         r3, #0
  00598	1a0000ea	 bne         |$LN72@SetScaling|

; 1374 :     {
; 1375 :         //  Compute new origin and swap destination width/height based on GFX pipeline rotation angle
; 1376 :         switch( g_rgPipelineMapping[OMAP_DSS_PIPELINE_GFX].eRotation )

  0059c	e59f3b34	 ldr         r3, [pc, #0xB34]
  005a0	e593300c	 ldr         r3, [r3, #0xC]
  005a4	e3530000	 cmp         r3, #0
  005a8	0a000022	 beq         |$LN69@SetScaling|
  005ac	e353005a	 cmp         r3, #0x5A
  005b0	0a000015	 beq         |$LN68@SetScaling|
  005b4	e35300b4	 cmp         r3, #0xB4
  005b8	0a00000b	 beq         |$LN67@SetScaling|
  005bc	e1530002	 cmp         r3, r2
  005c0	1a00001f	 bne         |$LN70@SetScaling|

; 1399 : 
; 1400 :             case OMAP_DSS_ROTATION_270:
; 1401 :                 //  Settings for rotation angle 270
; 1402 :                 dwX = GetLCDWidth() - dwDestHeight - pDestRect->top;

  005c4	e59534a8	 ldr         r3, [r5, #0x4A8]

; 1403 :                 dwY = pDestRect->left;
; 1404 : 
; 1405 :                 i = dwDestWidth;

  005c8	e1a02001	 mov         r2, r1

; 1406 :                 dwDestWidth = dwDestHeight;

  005cc	e1a01007	 mov         r1, r7
  005d0	e043300e	 sub         r3, r3, lr
  005d4	e0433007	 sub         r3, r3, r7

; 1407 :                 dwDestHeight = i;

  005d8	e1a07002	 mov         r7, r2
  005dc	e58d7018	 str         r7, [sp, #0x18]
  005e0	e58d100c	 str         r1, [sp, #0xC]
  005e4	e58d002c	 str         r0, [sp, #0x2C]

; 1408 :                 break;

  005e8	ea000014	 b           |$LN221@SetScaling|
  005ec		 |$LN67@SetScaling|

; 1393 : 
; 1394 :             case OMAP_DSS_ROTATION_180:
; 1395 :                 //  Settings for rotation angle 180
; 1396 :                 dwX = GetLCDWidth() - dwDestWidth - pDestRect->left;
; 1397 :                 dwY = GetLCDHeight() - dwDestHeight - pDestRect->top;

  005ec	e59524ac	 ldr         r2, [r5, #0x4AC]
  005f0	e59534a8	 ldr         r3, [r5, #0x4A8]
  005f4	e042200e	 sub         r2, r2, lr
  005f8	e0428007	 sub         r8, r2, r7
  005fc	e0433000	 sub         r3, r3, r0
  00600	e58d802c	 str         r8, [sp, #0x2C]
  00604	e0433001	 sub         r3, r3, r1

; 1398 :                 break;

  00608	ea00000c	 b           |$LN221@SetScaling|
  0060c		 |$LN68@SetScaling|

; 1382 :                 break;
; 1383 : 
; 1384 :             case OMAP_DSS_ROTATION_90:
; 1385 :                 //  Settings for rotation angle 90
; 1386 :                 dwX = pDestRect->top;
; 1387 :                 dwY = GetLCDHeight() - dwDestWidth - pDestRect->left;

  0060c	e59534ac	 ldr         r3, [r5, #0x4AC]

; 1388 : 
; 1389 :                 i = dwDestWidth;

  00610	e1a02001	 mov         r2, r1
  00614	e58de020	 str         lr, [sp, #0x20]
  00618	e0433000	 sub         r3, r3, r0
  0061c	e0433001	 sub         r3, r3, r1

; 1390 :                 dwDestWidth = dwDestHeight;

  00620	e1a01007	 mov         r1, r7

; 1391 :                 dwDestHeight = i;

  00624	e1a07002	 mov         r7, r2
  00628	e58d7018	 str         r7, [sp, #0x18]
  0062c	e58d302c	 str         r3, [sp, #0x2C]
  00630	e58d100c	 str         r1, [sp, #0xC]

; 1392 :                 break;

  00634	ea000002	 b           |$LN70@SetScaling|
  00638		 |$LN69@SetScaling|

; 1377 :         {
; 1378 :             case OMAP_DSS_ROTATION_0:
; 1379 :                 //  Settings for rotation angle 0
; 1380 :                 dwX = pDestRect->left;

  00638	e1a03000	 mov         r3, r0

; 1381 :                 dwY = pDestRect->top;

  0063c	e58de02c	 str         lr, [sp, #0x2C]
  00640		 |$LN221@SetScaling|

; 1377 :         {
; 1378 :             case OMAP_DSS_ROTATION_0:
; 1379 :                 //  Settings for rotation angle 0
; 1380 :                 dwX = pDestRect->left;

  00640	e58d3020	 str         r3, [sp, #0x20]

; 1381 :                 dwY = pDestRect->top;

  00644		 |$LN70@SetScaling|

; 1409 :         }
; 1410 :     
; 1411 : 
; 1412 :         //  Compute horizontal and vertical scaling factors
; 1413 :         dwHorzScale = 1024 * dwSrcWidth / dwDestWidth;

  00644	e1a00001	 mov         r0, r1
  00648	e1a0150b	 mov         r1, r11, lsl #10
  0064c	eb000000	 bl          __rt_udiv
  00650	e1a08000	 mov         r8, r0

; 1414 :         dwVertScale = 1024 * dwSrcHeight / dwDestHeight;

  00654	e1a00007	 mov         r0, r7
  00658	e1a01504	 mov         r1, r4, lsl #10
  0065c	eb000000	 bl          __rt_udiv

; 1415 : 
; 1416 :         //  Determine if scaling is within HW scaling capabilities
; 1417 :         //  If not, use surface scaling factor to decimate the source surface
; 1418 :         //  by 2, 4 or 8
; 1419 :         if( bYUVRotated )

  00660	e59d3048	 ldr         r3, [sp, #0x48]
  00664	e3530000	 cmp         r3, #0
  00668	0a000012	 beq         |$LN65@SetScaling|

; 1420 :         {
; 1421 :             if( dwHorzScale >= 2048 )

  0066c	e3580b02	 cmp         r8, #2, 22

; 1422 :                 dwHorzDecimation = 2;

  00670	23a02002	 movcs       r2, #2
  00674	258d2028	 strcs       r2, [sp, #0x28]

; 1443 :                 dwHorzDecimation = 2;

  00678	33a02001	 movcc       r2, #1
  0067c	e3580a01	 cmp         r8, #1, 20
  00680	23a02004	 movcs       r2, #4
  00684	258d2028	 strcs       r2, [sp, #0x28]
  00688	e3580a02	 cmp         r8, #2, 20
  0068c	23a02008	 movcs       r2, #8
  00690	258d2028	 strcs       r2, [sp, #0x28]
  00694	e3500b02	 cmp         r0, #2, 22
  00698	23a03002	 movcs       r3, #2
  0069c	258d3014	 strcs       r3, [sp, #0x14]
  006a0	e3500a01	 cmp         r0, #1, 20
  006a4	23a03004	 movcs       r3, #4
  006a8	258d3014	 strcs       r3, [sp, #0x14]
  006ac	e3500a02	 cmp         r0, #2, 20
  006b0	3a000011	 bcc         |$LN53@SetScaling|

; 1423 : 
; 1424 :             if( dwHorzScale >= 4096 )
; 1425 :                 dwHorzDecimation = 4;
; 1426 : 
; 1427 :             if( dwHorzScale >= 8192 )
; 1428 :                 dwHorzDecimation = 8;
; 1429 : 
; 1430 : 
; 1431 :             if( dwVertScale >= 2048 )
; 1432 :                 dwVertDecimation = 2;
; 1433 : 
; 1434 :             if( dwVertScale >= 4096 )
; 1435 :                 dwVertDecimation = 4;
; 1436 : 
; 1437 :             if( dwVertScale >= 8192 )
; 1438 :                 dwVertDecimation = 8;
; 1439 :         }
; 1440 :         else

  006b4	ea00000e	 b           |$LN222@SetScaling|
  006b8		 |$LN65@SetScaling|

; 1441 :         {
; 1442 :             if( dwHorzScale > 4096 )

  006b8	e3580a01	 cmp         r8, #1, 20

; 1443 :                 dwHorzDecimation = 2;

  006bc	83a02002	 movhi       r2, #2
  006c0	858d2028	 strhi       r2, [sp, #0x28]

; 1444 : 
; 1445 :             if( dwHorzScale > 8192 )
; 1446 :                 dwHorzDecimation = 4;

  006c4	93a02001	 movls       r2, #1
  006c8	e3580a02	 cmp         r8, #2, 20
  006cc	83a02004	 movhi       r2, #4
  006d0	858d2028	 strhi       r2, [sp, #0x28]

; 1447 : 
; 1448 : 
; 1449 :             if( dwVertScale > 2048 )

  006d4	e3500b02	 cmp         r0, #2, 22

; 1450 :                 dwVertDecimation = 2;

  006d8	83a03002	 movhi       r3, #2
  006dc	858d3014	 strhi       r3, [sp, #0x14]

; 1451 : 
; 1452 :             if( dwVertScale > 4096 )

  006e0	e3500a01	 cmp         r0, #1, 20

; 1453 :                 dwVertDecimation = 4;

  006e4	83a03004	 movhi       r3, #4
  006e8	858d3014	 strhi       r3, [sp, #0x14]

; 1454 : 
; 1455 :             if( dwVertScale > 8192 )

  006ec	e3500a02	 cmp         r0, #2, 20
  006f0	9a000001	 bls         |$LN53@SetScaling|
  006f4		 |$LN222@SetScaling|

; 1456 :                 dwVertDecimation = 8;

  006f4	e3a03008	 mov         r3, #8
  006f8	e58d3014	 str         r3, [sp, #0x14]
  006fc		 |$LN53@SetScaling|

; 1457 :         }
; 1458 : 
; 1459 :             
; 1460 :         //  Adjust the HW scaling factors by the decimation factor      
; 1461 :         dwHorzScale = 1024 * (dwSrcWidth/dwHorzDecimation) / dwDestWidth;    

  006fc	e1a00002	 mov         r0, r2
  00700	e1a0100b	 mov         r1, r11
  00704	eb000000	 bl          __rt_udiv
  00708	e59d800c	 ldr         r8, [sp, #0xC]
  0070c	e1a0b000	 mov         r11, r0
  00710	e1a0150b	 mov         r1, r11, lsl #10
  00714	e1a00008	 mov         r0, r8
  00718	eb000000	 bl          __rt_udiv
  0071c	e58d0008	 str         r0, [sp, #8]

; 1462 :         dwVertScale = 1024 * (dwSrcHeight/dwVertDecimation) / dwDestHeight;    

  00720	e59d0014	 ldr         r0, [sp, #0x14]
  00724	e1a01004	 mov         r1, r4
  00728	eb000000	 bl          __rt_udiv
  0072c	e1a04000	 mov         r4, r0
  00730	e1a01504	 mov         r1, r4, lsl #10
  00734	e1a00007	 mov         r0, r7
  00738	e58d401c	 str         r4, [sp, #0x1C]
  0073c	eb000000	 bl          __rt_udiv

; 1463 :         
; 1464 :         
; 1465 :         //  Set the decimation factors for the surface 
; 1466 :         switch( eRotation )

  00740	e59d3030	 ldr         r3, [sp, #0x30]
  00744	e1a02000	 mov         r2, r0
  00748	e58d2010	 str         r2, [sp, #0x10]
  0074c	e3530000	 cmp         r3, #0
  00750	0a000013	 beq         |$LN50@SetScaling|
  00754	e353005a	 cmp         r3, #0x5A
  00758	0a000004	 beq         |$LN49@SetScaling|
  0075c	e35300b4	 cmp         r3, #0xB4
  00760	0a00000f	 beq         |$LN50@SetScaling|
  00764	e59d104c	 ldr         r1, [sp, #0x4C]
  00768	e1530001	 cmp         r3, r1
  0076c	1a000019	 bne         |$LN218@SetScaling|
  00770		 |$LN49@SetScaling|

; 1473 :                 break;
; 1474 : 
; 1475 :             case OMAP_DSS_ROTATION_90:
; 1476 :             case OMAP_DSS_ROTATION_270:            
; 1477 :                 //  Rotated orientation
; 1478 :                 pSurface->SetHorizontalScaling( dwVertDecimation );

  00770	e5963000	 ldr         r3, [r6]
  00774	e59d1014	 ldr         r1, [sp, #0x14]
  00778	e1a00006	 mov         r0, r6
  0077c	e5933030	 ldr         r3, [r3, #0x30]
  00780	e1a0e00f	 mov         lr, pc
  00784	e12fff13	 bx          r3

; 1479 :                 pSurface->SetVerticalScaling( dwHorzDecimation );

  00788	e5963000	 ldr         r3, [r6]
  0078c	e59d1028	 ldr         r1, [sp, #0x28]
  00790	e1a00006	 mov         r0, r6
  00794	e5933034	 ldr         r3, [r3, #0x34]
  00798	e1a0e00f	 mov         lr, pc
  0079c	e12fff13	 bx          r3

; 1480 :                 break;

  007a0	ea00000b	 b           |$LN226@SetScaling|
  007a4		 |$LN50@SetScaling|

; 1467 :         {
; 1468 :             case OMAP_DSS_ROTATION_0:
; 1469 :             case OMAP_DSS_ROTATION_180:            
; 1470 :                 //  Standard orientation
; 1471 :                 pSurface->SetHorizontalScaling( dwHorzDecimation );

  007a4	e5963000	 ldr         r3, [r6]
  007a8	e59d1028	 ldr         r1, [sp, #0x28]
  007ac	e1a00006	 mov         r0, r6
  007b0	e5933030	 ldr         r3, [r3, #0x30]
  007b4	e1a0e00f	 mov         lr, pc
  007b8	e12fff13	 bx          r3

; 1472 :                 pSurface->SetVerticalScaling( dwVertDecimation );

  007bc	e5963000	 ldr         r3, [r6]
  007c0	e59d1014	 ldr         r1, [sp, #0x14]
  007c4	e1a00006	 mov         r0, r6
  007c8	e5933034	 ldr         r3, [r3, #0x34]
  007cc	e1a0e00f	 mov         lr, pc
  007d0	e12fff13	 bx          r3
  007d4		 |$LN226@SetScaling|

; 1521 :             dwVertScale = 1024 * dwSrcHeight / dwDestHeight;

  007d4	e59d2010	 ldr         r2, [sp, #0x10]
  007d8		 |$LN218@SetScaling|

; 1481 :         }
; 1482 :         
; 1483 :         //  Adjust the source width and height by the decimation factor
; 1484 :         dwSrcWidth  = dwSrcWidth / dwHorzDecimation;
; 1485 :         dwSrcHeight = dwSrcHeight / dwVertDecimation;
; 1486 : 
; 1487 : 
; 1488 :         //  If YUV rotated, check for any odd width or height values due to decimation
; 1489 :         if( bYUVRotated )

  007d8	e59d3048	 ldr         r3, [sp, #0x48]
  007dc	e59d1040	 ldr         r1, [sp, #0x40]
  007e0	e59d003c	 ldr         r0, [sp, #0x3C]
  007e4	e3530000	 cmp         r3, #0
  007e8	0a000037	 beq         |$LN48@SetScaling|

; 1490 :         {
; 1491 :             if( (dwSrcWidth % 2) == 1 )

  007ec	e20b3001	 and         r3, r11, #1
  007f0	e3530001	 cmp         r3, #1

; 1492 :             {
; 1493 :                 dwSrcWidth -= 1;
; 1494 :                 
; 1495 :                 //  Adjust clipping; note rotation means adjust clipping height here
; 1496 :                 privSrcRect.bottom -= dwHorzDecimation;

  007f4	059d3028	 ldreq       r3, [sp, #0x28]
  007f8	024bb001	 subeq       r11, r11, #1

; 1497 :             }
; 1498 : 
; 1499 :             if( (dwSrcHeight % 2) == 1 )
; 1500 :             {
; 1501 :                 dwSrcHeight -= 1;
; 1502 : 
; 1503 :                 //  Adjust clipping; note rotation means adjust clipping width here
; 1504 :                 privSrcRect.right -= dwVertDecimation;
; 1505 :             }
; 1506 : 
; 1507 :             //  Set the clipping region for the surface
; 1508 :             g_rgPipelineMapping[ePipeline].pSurface->SetClipping( &privSrcRect );

  007fc	e59f28d4	 ldr         r2, [pc, #0x8D4]
  00800	00413003	 subeq       r3, r1, r3
  00804	058d3040	 streq       r3, [sp, #0x40]
  00808	e2043001	 and         r3, r4, #1
  0080c	e3530001	 cmp         r3, #1
  00810	059d3014	 ldreq       r3, [sp, #0x14]
  00814	e59d1024	 ldr         r1, [sp, #0x24]
  00818	02444001	 subeq       r4, r4, #1
  0081c	00403003	 subeq       r3, r0, r3
  00820	058d303c	 streq       r3, [sp, #0x3C]
  00824	e0823281	 add         r3, r2, r1, lsl #5
  00828	e5930008	 ldr         r0, [r3, #8]
  0082c	058d401c	 streq       r4, [sp, #0x1C]
  00830	e28d1034	 add         r1, sp, #0x34
  00834	e5903000	 ldr         r3, [r0]
  00838	e5933020	 ldr         r3, [r3, #0x20]
  0083c	e1a0e00f	 mov         lr, pc
  00840	e12fff13	 bx          r3

; 1509 :             if (g_rgPipelineMapping[ePipeline].pSurface->OmapAssocSurface())

  00844	e59f288c	 ldr         r2, [pc, #0x88C]
  00848	e59d1024	 ldr         r1, [sp, #0x24]
  0084c	e0823281	 add         r3, r2, r1, lsl #5
  00850	e593e008	 ldr         lr, [r3, #8]
  00854	e59e30a0	 ldr         r3, [lr, #0xA0]
  00858	e3530000	 cmp         r3, #0
  0085c	0a000011	 beq         |$LN45@SetScaling|

; 1510 :             {
; 1511 :                 RECT rszRect;
; 1512 :                 rszRect.top = 0;
; 1513 :                 rszRect.left = 0;
; 1514 :                 rszRect.bottom = rszRect.top + (pDestRect->bottom - pDestRect->top);

  00860	e599100c	 ldr         r1, [r9, #0xC]
  00864	e5993004	 ldr         r3, [r9, #4]

; 1515 :                 rszRect.right = rszRect.left + (pDestRect->right - pDestRect->left);                            

  00868	e5990008	 ldr         r0, [r9, #8]
  0086c	e5992000	 ldr         r2, [r9]
  00870	e0411003	 sub         r1, r1, r3
  00874	e58d1070	 str         r1, [sp, #0x70]
  00878	e0403002	 sub         r3, r0, r2
  0087c	e58d306c	 str         r3, [sp, #0x6C]
  00880	e3a03000	 mov         r3, #0
  00884	e3a02000	 mov         r2, #0
  00888	e58d3068	 str         r3, [sp, #0x68]
  0088c	e58d2064	 str         r2, [sp, #0x64]

; 1516 :                 g_rgPipelineMapping[ePipeline].pSurface->OmapAssocSurface()->SetClipping( &rszRect );

  00890	e59e00a0	 ldr         r0, [lr, #0xA0]
  00894	e28d1064	 add         r1, sp, #0x64
  00898	e5903000	 ldr         r3, [r0]
  0089c	e5933020	 ldr         r3, [r3, #0x20]
  008a0	e1a0e00f	 mov         lr, pc
  008a4	e12fff13	 bx          r3
  008a8		 |$LN45@SetScaling|

; 1517 :             }                
; 1518 : 
; 1519 :             //  Recalculate the scale factors to account for adjustments made
; 1520 :             dwHorzScale = 1024 * dwSrcWidth / dwDestWidth;

  008a8	e1a00008	 mov         r0, r8
  008ac	e1a0150b	 mov         r1, r11, lsl #10
  008b0	eb000000	 bl          __rt_udiv
  008b4	e58d0008	 str         r0, [sp, #8]

; 1521 :             dwVertScale = 1024 * dwSrcHeight / dwDestHeight;

  008b8	e1a00007	 mov         r0, r7
  008bc	e1a01504	 mov         r1, r4, lsl #10
  008c0	eb000000	 bl          __rt_udiv
  008c4	e1a02000	 mov         r2, r0
  008c8	e58d2010	 str         r2, [sp, #0x10]
  008cc		 |$LN48@SetScaling|

; 1522 :         } 
; 1523 : 
; 1524 : 
; 1525 :         //  Based on scaling factor, determine which coeffs to use and if to enable scaling
; 1526 :         dwScaleEnable |= (dwHorzScale == 1024) ? 0 : DISPC_VID_ATTR_VIDRESIZE_HORIZONTAL;

  008cc	e59d4008	 ldr         r4, [sp, #8]
  008d0	e3540b01	 cmp         r4, #1, 22
  008d4	03a01000	 moveq       r1, #0
  008d8	13a01020	 movne       r1, #0x20

; 1527 :         dwScaleEnable |= (dwVertScale == 1024) ? 0 : DISPC_VID_ATTR_VIDRESIZE_VERTICAL;

  008dc	e3520b01	 cmp         r2, #1, 22
  008e0	03a03000	 moveq       r3, #0
  008e4	13a03040	 movne       r3, #0x40

; 1528 : 
; 1529 : 
; 1530 :         //  Horizontal scaling
; 1531 :         if( dwHorzScale > 1024 )

  008e8	e3540b01	 cmp         r4, #1, 22
  008ec	e1838001	 orr         r8, r3, r1

; 1532 :         {
; 1533 :             //  Use down-sampling horizontal coeffs
; 1534 :             dwScaleEnable |= DISPC_VID_ATTR_VIDHRESIZE_CONF_DOWN;
; 1535 :             pHorizCoeffs = g_dwScalingCoeff_Horiz_Down;

  008f0	859f37f8	 ldrhi       r3, [pc, #0x7F8]

; 1536 :         }
; 1537 :         else
; 1538 :         {
; 1539 :             //  Use up-sampling horizontal coeffs
; 1540 :             dwScaleEnable |= DISPC_VID_ATTR_VIDHRESIZE_CONF_UP;
; 1541 :             pHorizCoeffs = g_dwScalingCoeff_Horiz_Up;

  008f4	959f37f0	 ldrls       r3, [pc, #0x7F0]
  008f8	83888080	 orrhi       r8, r8, #0x80

; 1542 :         }
; 1543 : 
; 1544 : 
; 1545 :         //  Vertical scaling
; 1546 :         if( dwVertScale > 1024 )

  008fc	e3520b01	 cmp         r2, #1, 22
  00900	e58d3000	 str         r3, [sp]

; 1547 :         {
; 1548 :             //  Use 5 tap down-sampling vertical coeffs for scaling between 50% and 25%
; 1549 :             dwScaleEnable |= DISPC_VID_ATTR_VIDVRESIZE_CONF_DOWN;
; 1550 :             dwScaleEnable |= DISPC_VID_ATTR_VIDVERTICALTAPS_5;
; 1551 :             dwScaleEnable |= DISPC_VID_ATTR_VIDLINEBUFFERSPLIT;
; 1552 :             pVertCoeffs = g_dwScalingCoeff_Vert_Down_5_Taps;
; 1553 :         } 
; 1554 :         //else if( dwVertScale > 1024 )
; 1555 :         //{
; 1556 :         //    //  Use 3 tap down-sampling vertical coeffs for scaling between 100% and 50%
; 1557 :         //    dwScaleEnable |= DISPC_VID_ATTR_VIDVRESIZE_CONF_DOWN;
; 1558 :         //    dwScaleEnable |= DISPC_VID_ATTR_VIDVERTICALTAPS_3;
; 1559 :         //    pVertCoeffs = g_dwScalingCoeff_Vert_Down_3_Taps;
; 1560 :         //}
; 1561 :         else
; 1562 :         {
; 1563 :             //  Use up-sampling vertical coeffs
; 1564 :             dwScaleEnable |= DISPC_VID_ATTR_VIDVRESIZE_CONF_UP;
; 1565 :             dwScaleEnable |= DISPC_VID_ATTR_VIDVERTICALTAPS_3;
; 1566 :             pVertCoeffs = g_dwScalingCoeff_Vert_Up_3_Taps;
; 1567 :         }
; 1568 : 
; 1569 :         // For Portrait mode, the Vertical down scale coeff has to be 5 tap to
; 1570 :         // prevent SYNCLOST. so ignore the scale factor and force the 5-tap.
; 1571 :         if ((( eRotation == OMAP_DSS_ROTATION_90 )|| 
; 1572 :             ( eRotation == OMAP_DSS_ROTATION_270 )) && 
; 1573 :             ( pVertCoeffs == g_dwScalingCoeff_Vert_Down_3_Taps ))

  00904	e59d2030	 ldr         r2, [sp, #0x30]
  00908	83a03606	 movhi       r3, #6, 12
  0090c	859f77cc	 ldrhi       r7, [pc, #0x7CC]
  00910	83833c01	 orrhi       r3, r3, #1, 24
  00914	959f77cc	 ldrls       r7, [pc, #0x7CC]
  00918	81888003	 orrhi       r8, r8, r3
  0091c	e352005a	 cmp         r2, #0x5A
  00920	0a000002	 beq         |$LN39@SetScaling|
  00924	e59d304c	 ldr         r3, [sp, #0x4C]
  00928	e1520003	 cmp         r2, r3
  0092c	1a000084	 bne         |$LN17@SetScaling|
  00930		 |$LN39@SetScaling|
  00930	e59f37ac	 ldr         r3, [pc, #0x7AC]
  00934	e1570003	 cmp         r7, r3
  00938	1a000081	 bne         |$LN17@SetScaling|

; 1574 :         {
; 1575 :             //clear existing scale option
; 1576 :             dwScaleEnable &= ~DISPC_VID_ATTR_VIDVERTICALTAPS_3;
; 1577 :             dwScaleEnable |= DISPC_VID_ATTR_VIDVERTICALTAPS_5;
; 1578 :             dwScaleEnable |= DISPC_VID_ATTR_VIDLINEBUFFERSPLIT;
; 1579 :             pVertCoeffs = g_dwScalingCoeff_Vert_Down_5_Taps;

  0093c	e59f779c	 ldr         r7, [pc, #0x79C]
  00940	e3888606	 orr         r8, r8, #6, 12

; 1580 :         }
; 1581 :     }

  00944	ea00007e	 b           |$LN17@SetScaling|
  00948		 |$LN72@SetScaling|

; 1582 : 
; 1583 : 
; 1584 :     //------------------------------------------------------------------------------
; 1585 :     //  Configure the scaling of the pipeline for TV display
; 1586 :     //
; 1587 :     else if( g_rgPipelineMapping[ePipeline].eDestination == OMAP_DSS_DESTINATION_TVOUT )

  00948	e3530001	 cmp         r3, #1
  0094c	1a0001d7	 bne         |$cleanUp$38236|

; 1588 :     {
; 1589 :         dwInterlaceCorrection = 2;
; 1590 : 
; 1591 :         //  Half the dest height to enable filtering for TV interlace
; 1592 :         dwDestHeight /= dwInterlaceCorrection;
; 1593 : 
; 1594 : #if 0
; 1595 :         //  Compute horizontal and vertical scaling factors
; 1596 :         dwHorzScale = 1024 * dwSrcWidth / dwDestWidth;
; 1597 :         dwVertScale = 1024 * dwSrcHeight / dwDestHeight;
; 1598 :         
; 1599 :         //  Determine if scaling is within HW scaling capabilities
; 1600 :         //  If not, use surface scaling factor to decimate the source surface
; 1601 :         //  by 2, 4 or 8
; 1602 :         if( dwHorzScale > 4096 )
; 1603 :             dwHorzDecimation = 2;
; 1604 : 
; 1605 :         if( dwHorzScale > 8192 )
; 1606 :             dwHorzDecimation = 4;
; 1607 : 
; 1608 : 
; 1609 :         if( dwVertScale > 2048 )
; 1610 :             dwVertDecimation = 2;
; 1611 : 
; 1612 :         if( dwVertScale > 4096 )
; 1613 :             dwVertDecimation = 4;
; 1614 : 
; 1615 :         if( dwVertScale > 8192 )
; 1616 :             dwVertDecimation = 8;
; 1617 : 
; 1618 :             
; 1619 :         //  Adjust the HW scaling factors by the decimation factor      
; 1620 :         dwHorzScale = 1024 * (dwSrcWidth/dwHorzDecimation) / dwDestWidth;    
; 1621 :         dwVertScale = 1024 * (dwSrcHeight/dwVertDecimation) / dwDestHeight;    
; 1622 :         
; 1623 :         
; 1624 :         //  Set the decimation factors for the surface (always standard orientation for TV out)
; 1625 :         pSurface->SetHorizontalScaling( dwHorzDecimation );
; 1626 :         pSurface->SetVerticalScaling( dwVertDecimation );
; 1627 :         
; 1628 :         //  Adjust the source width and height by the decimation factor
; 1629 :         dwSrcWidth  = dwSrcWidth / dwHorzDecimation;
; 1630 :         dwSrcHeight = dwSrcHeight / dwVertDecimation;
; 1631 : 
; 1632 : 
; 1633 :         //  Based on scaling factor, determine which coeffs to use and if to enable scaling
; 1634 :         dwScaleEnable |= (dwHorzScale == 1024) ? 0 : DISPC_VID_ATTR_VIDRESIZE_HORIZONTAL;
; 1635 :         dwScaleEnable |= (dwVertScale == 1024) ? 0 : DISPC_VID_ATTR_VIDRESIZE_VERTICAL;
; 1636 : 
; 1637 : 
; 1638 :         //  Accum0/1 controls the scaler phase for the even/odd fields
; 1639 :         //  This is affected by the field polarity - bit 17 of VENC_GEN_CTRL_VAL register -
; 1640 :         //  If active low, the ratio is VIDFIRVINC/2, otherwise it's 1024 * dwDestHeight / dwSrcHeight
; 1641 :         dwAccum1 = (1024 * dwDestHeight / dwSrcHeight) << 16; 
; 1642 :     
; 1643 : 
; 1644 :         //  Horizontal scaling
; 1645 :         if( dwHorzScale > 1024 )
; 1646 :         {
; 1647 :             //  Use down-sampling horizontal coeffs
; 1648 :             dwScaleEnable |= DISPC_VID_ATTR_VIDHRESIZE_CONF_DOWN;
; 1649 :             pHorizCoeffs = g_dwScalingCoeff_Horiz_Down;
; 1650 :         }
; 1651 :         else
; 1652 :         {
; 1653 :             //  Use up-sampling horizontal coeffs
; 1654 :             dwScaleEnable |= DISPC_VID_ATTR_VIDHRESIZE_CONF_UP;
; 1655 :             pHorizCoeffs = g_dwScalingCoeff_Horiz_Up;
; 1656 :         }
; 1657 : 
; 1658 : 
; 1659 :         //  Vertical scaling (based on flicker filter setting instead of scaling value)
; 1660 :         if( m_dwTVFilterLevel >= OMAP_TV_FILTER_LEVEL_HIGH )
; 1661 :         {
; 1662 :             //  Use 5 tap down-sampling vertical coeffs for HIGH flicker filtering
; 1663 :             dwScaleEnable |= DISPC_VID_ATTR_VIDVRESIZE_CONF_DOWN;
; 1664 :             dwScaleEnable |= DISPC_VID_ATTR_VIDVERTICALTAPS_5;
; 1665 :             dwScaleEnable |= DISPC_VID_ATTR_VIDLINEBUFFERSPLIT;
; 1666 :             pVertCoeffs = g_dwScalingCoeff_Vert_Down_5_Taps;
; 1667 :         }
; 1668 :         else if( m_dwTVFilterLevel == OMAP_TV_FILTER_LEVEL_MEDIUM )
; 1669 :         {
; 1670 :             //  Use 3 tap down-sampling vertical coeffs for MEDIUM flicker filtering
; 1671 :             dwScaleEnable |= DISPC_VID_ATTR_VIDVRESIZE_CONF_DOWN;
; 1672 :             dwScaleEnable |= DISPC_VID_ATTR_VIDVERTICALTAPS_3;
; 1673 :             pVertCoeffs = g_dwScalingCoeff_Vert_Down_3_Taps;
; 1674 :         }
; 1675 :         else if( m_dwTVFilterLevel == OMAP_TV_FILTER_LEVEL_LOW )
; 1676 :         {
; 1677 :             //  Use 3 tap up-sampling vertical coeffs for LOW flicker filtering
; 1678 :             dwScaleEnable |= DISPC_VID_ATTR_VIDVRESIZE_CONF_UP;
; 1679 :             dwScaleEnable |= DISPC_VID_ATTR_VIDVERTICALTAPS_3;
; 1680 :             pVertCoeffs = g_dwScalingCoeff_Vert_Up_3_Taps;
; 1681 :         }
; 1682 :         else if( m_dwTVFilterLevel == OMAP_TV_FILTER_LEVEL_OFF )
; 1683 :         {
; 1684 :             //  No flicker filtering but only if the destination height can be decimated to fit the TV height
; 1685 :             //  (account for the /2 of destHeight above)
; 1686 :             if( (dwSrcHeight == dwDestHeight) && (dwDestHeight <= GetTVHeight()/2) )
; 1687 :             {
; 1688 :                 DEBUGMSG(ZONE_WARNING, (L"----- Using No interlace mode for TV out --------\r\n"));
; 1689 : 
; 1690 :                 //  Can fit the surface on TV without interlacing
; 1691 :                 dwInterlace = 0;
; 1692 :                 
; 1693 :                 //  No scaling
; 1694 :                 dwScaleEnable &= ~DISPC_VID_ATTR_VIDRESIZE_VERTICAL;
; 1695 :                 dwVertScale = 1024;
; 1696 :                 
; 1697 :                 //  No FIR accumulator values
; 1698 :                 dwAccum0 = dwAccum1 = 0;
; 1699 :             }
; 1700 :             else if( (dwSrcHeight == 2*dwDestHeight) && (dwDestHeight <= GetTVHeight()) )
; 1701 :             {
; 1702 :                 DEBUGMSG(ZONE_WARNING, (L"----- Using Interlace mode for TV out --------\r\n"));
; 1703 :             
; 1704 :                 //  Need to decimate the height by 2 to fit on the TV via interlacing
; 1705 :                 dwVertDecimation = 2;
; 1706 :                 pSurface->SetVerticalScaling( dwVertDecimation );
; 1707 :         
; 1708 :                 dwSrcHeight = dwSrcHeight / dwVertDecimation;
; 1709 :             
; 1710 :                 //  No scaling
; 1711 :                 dwScaleEnable &= ~DISPC_VID_ATTR_VIDRESIZE_VERTICAL;
; 1712 :                 dwVertScale = 1024;
; 1713 : 
; 1714 :                 //  Need to use the surface stride to output via interlacing
; 1715 :                 dwInterlace = pSurface->Stride();
; 1716 : 
; 1717 :                 //  No FIR accumulator values
; 1718 :                 dwAccum0 = dwAccum1 = 0;
; 1719 :             }
; 1720 :             else
; 1721 :             {
; 1722 :                 DEBUGMSG(ZONE_WARNING, (L"----- Using Scaling mode for TV out --------\r\n"));
; 1723 : 
; 1724 :                 //  Have to scale the output to TV because it just won't fit otherwise
; 1725 :                 //  Use 3 tap up-sampling vertical coeffs for LOW flicker filtering
; 1726 :                 dwScaleEnable |= DISPC_VID_ATTR_VIDVRESIZE_CONF_UP;
; 1727 :                 dwScaleEnable |= DISPC_VID_ATTR_VIDVERTICALTAPS_3;
; 1728 :             }
; 1729 :                         
; 1730 :             //  Always need to point to some set of vertical coeffs
; 1731 :             pVertCoeffs = g_dwScalingCoeff_Vert_Down_3_Taps;
; 1732 :         }
; 1733 :         else
; 1734 :         {
; 1735 :             //  Use 3 tap down-sampling vertical coeffs for MEDIUM flicker filtering as the default setting
; 1736 :             dwScaleEnable |= DISPC_VID_ATTR_VIDVRESIZE_CONF_DOWN;
; 1737 :             dwScaleEnable |= DISPC_VID_ATTR_VIDVERTICALTAPS_3;
; 1738 :             pVertCoeffs = g_dwScalingCoeff_Vert_Down_3_Taps;
; 1739 :         }
; 1740 : #else
; 1741 :         //  Compute horizontal and vertical scaling factors
; 1742 :         dwHorzScale = 1024 * dwSrcWidth / dwDestWidth;

  00950	e1a00001	 mov         r0, r1
  00954	e1a070a7	 mov         r7, r7, lsr #1
  00958	e1a0150b	 mov         r1, r11, lsl #10
  0095c	e58d7018	 str         r7, [sp, #0x18]
  00960	eb000000	 bl          __rt_udiv
  00964	e58d0008	 str         r0, [sp, #8]

; 1743 :         dwVertScale = 1024 * dwSrcHeight / dwDestHeight;

  00968	e1a00007	 mov         r0, r7
  0096c	e1a01504	 mov         r1, r4, lsl #10
  00970	eb000000	 bl          __rt_udiv

; 1744 : 
; 1745 :         //  Determine if scaling is within HW scaling capabilities
; 1746 :         //  If not, use surface scaling factor to decimate the source surface
; 1747 :         //  by 2, 4 or 8
; 1748 : //        if( dwHorzScale > 4096 )
; 1749 : //            dwHorzDecimation = 2;
; 1750 : 
; 1751 : //        if( dwHorzScale > 8192 )
; 1752 : //            dwHorzDecimation = 4;
; 1753 : 
; 1754 : 
; 1755 : //        if( dwVertScale > 2048 )
; 1756 : //            dwVertDecimation = 2;
; 1757 : 
; 1758 : //        if( dwVertScale > 4096 )
; 1759 : //            dwVertDecimation = 4;
; 1760 : 
; 1761 : //        if( dwVertScale > 8192 )
; 1762 : //            dwVertDecimation = 8;
; 1763 : 
; 1764 :         //  Adjust the source width and height by the decimation factor
; 1765 : //        dwSrcWidth  = dwSrcWidth / dwHorzDecimation;
; 1766 : //        dwSrcHeight = dwSrcHeight / dwVertDecimation;
; 1767 : 
; 1768 :         //  Adjust the HW scaling factors by the decimation factor      
; 1769 : //        dwHorzScale = 1024 * dwSrcWidth / dwDestWidth;
; 1770 : //        dwVertScale = 1024 * dwSrcHeight / dwDestHeight;
; 1771 : 
; 1772 :         if (m_dwTVFilterLevel)
; 1773 :         {
; 1774 :             // Flicker filter not supported currently (If flickerFilter is used, scaling cannot be done)
; 1775 :             // dwFlickerFilter = 1;
; 1776 :         }
; 1777 : 
; 1778 :         //  Set the decimation factors for the surface (always standard orientation for TV out)
; 1779 :         pSurface->SetHorizontalScaling( dwHorzDecimation );

  00974	e5963000	 ldr         r3, [r6]
  00978	e1a07000	 mov         r7, r0
  0097c	e58d7010	 str         r7, [sp, #0x10]
  00980	e5933030	 ldr         r3, [r3, #0x30]
  00984	e3a01001	 mov         r1, #1
  00988	e1a00006	 mov         r0, r6
  0098c	e1a0e00f	 mov         lr, pc
  00990	e12fff13	 bx          r3

; 1780 :         pSurface->SetVerticalScaling( dwVertDecimation );

  00994	e5963000	 ldr         r3, [r6]
  00998	e3a01001	 mov         r1, #1
  0099c	e1a00006	 mov         r0, r6
  009a0	e5933034	 ldr         r3, [r3, #0x34]
  009a4	e1a0e00f	 mov         lr, pc
  009a8	e12fff13	 bx          r3

; 1781 : 
; 1782 :          //Get vertical scaler coefficients
; 1783 :         if (dwSrcWidth > 1280)

  009ac	e35b0c05	 cmp         r11, #5, 24

; 1784 :         {
; 1785 :             dwVTaps = 3;

  009b0	83a01003	 movhi       r1, #3

; 1786 :         }
; 1787 :         else
; 1788 :         {
; 1789 :             dwVTaps = 5;
; 1790 :             dwScaleEnable |= DISPC_VID_ATTR_VIDLINEBUFFERSPLIT;
; 1791 :             dwScaleEnable |= DISPC_VID_ATTR_VIDVERTICALTAPS_5;

  009b4	93a08606	 movls       r8, #6, 12
  009b8	93a01005	 movls       r1, #5

; 1792 :         }
; 1793 : 
; 1794 :         GetFIRCoef((void*)Coefficients, dwVTaps, dwVertScale, dwFlickerFilter);

  009bc	e3a03000	 mov         r3, #0
  009c0	e1a02007	 mov         r2, r7
  009c4	e28d0f4e	 add         r0, sp, #0x4E, 30
  009c8	958d8060	 strls       r8, [sp, #0x60]
  009cc	eb000000	 bl          |?GetFIRCoef@@YAXPAXKKK@Z|

; 1795 :         for (i = 0; i < 8; i++)

  009d0	e3a04000	 mov         r4, #0
  009d4	e28d7078	 add         r7, sp, #0x78
  009d8	e28d9f4e	 add         r9, sp, #0x4E, 30
  009dc	e3a08000	 mov         r8, #0
  009e0		 |$LL33@SetScaling|

; 1796 :         {
; 1797 :             dwData1 = (Coefficients[0][i]) | ((Coefficients[4][i]) << 8);
; 1798 :             dwData2 = ((Coefficients[1][i]) << 8) |((Coefficients[2][i]) << 16) | ((Coefficients[3][i]) << 24);

  009e0	e084e009	 add         lr, r4, r9

; 1799 : 
; 1800 :             /* Make up coefficients in the format needed further down */
; 1801 :             dwVertCoeffs[i*3]   = 0;
; 1802 :             dwVertCoeffs[i*3+1] = dwData2;

  009e4	e5de2018	 ldrb        r2, [lr, #0x18]
  009e8	e5de3010	 ldrb        r3, [lr, #0x10]
  009ec	e5de1008	 ldrb        r1, [lr, #8]

; 1803 :             dwVertCoeffs[i*3+2] = dwData1;

  009f0	e5de0020	 ldrb        r0, [lr, #0x20]
  009f4	e1833402	 orr         r3, r3, r2, lsl #8
  009f8	e5de2000	 ldrb        r2, [lr]
  009fc	e1813403	 orr         r3, r1, r3, lsl #8
  00a00	e1a03403	 mov         r3, r3, lsl #8
  00a04	e1822400	 orr         r2, r2, r0, lsl #8
  00a08	e2844001	 add         r4, r4, #1
  00a0c	e5872008	 str         r2, [r7, #8]
  00a10	e5873004	 str         r3, [r7, #4]
  00a14	e5878000	 str         r8, [r7]
  00a18	e287700c	 add         r7, r7, #0xC
  00a1c	e3540008	 cmp         r4, #8
  00a20	3affffee	 bcc         |$LL33@SetScaling|

; 1804 :         }
; 1805 :         pVertCoeffs = dwVertCoeffs;
; 1806 : 
; 1807 :         //Now get horizontal scaler coefficients
; 1808 :         GetFIRCoef((void*)Coefficients, 5, dwHorzScale, 0);

  00a24	e59d2008	 ldr         r2, [sp, #8]
  00a28	e28d7078	 add         r7, sp, #0x78
  00a2c	e3a03000	 mov         r3, #0
  00a30	e3a01005	 mov         r1, #5
  00a34	e28d0f4e	 add         r0, sp, #0x4E, 30
  00a38	e58d7048	 str         r7, [sp, #0x48]
  00a3c	eb000000	 bl          |?GetFIRCoef@@YAXPAXKKK@Z|
  00a40	e59d8060	 ldr         r8, [sp, #0x60]
  00a44	e59d905c	 ldr         r9, [sp, #0x5C]
  00a48	e59d401c	 ldr         r4, [sp, #0x1C]

; 1809 :         for (i = 0; i < 8; i++)

  00a4c	e3a0a000	 mov         r10, #0
  00a50	e28d50d8	 add         r5, sp, #0xD8
  00a54	e28d7f4e	 add         r7, sp, #0x4E, 30
  00a58	e3a06000	 mov         r6, #0
  00a5c		 |$LL30@SetScaling|

; 1810 :         {
; 1811 :             dwData1 = (Coefficients[0][i] | (Coefficients[1][i]) << 8) |((Coefficients[2][i]) << 16) | ((Coefficients[3][i]) << 24);

  00a5c	e08ae007	 add         lr, r10, r7

; 1812 :             dwData2 = (Coefficients[4][i]);
; 1813 : 
; 1814 :             /* Make up coefficients in the format needed further down */
; 1815 :             dwHorizCoeffs[i*3]   = dwData1;

  00a60	e5de1018	 ldrb        r1, [lr, #0x18]
  00a64	e5de3010	 ldrb        r3, [lr, #0x10]
  00a68	e5de2008	 ldrb        r2, [lr, #8]
  00a6c	e5de0000	 ldrb        r0, [lr]
  00a70	e1833401	 orr         r3, r3, r1, lsl #8
  00a74	e1823403	 orr         r3, r2, r3, lsl #8

; 1816 :             dwHorizCoeffs[i*3+1] = dwData2;

  00a78	e5de2020	 ldrb        r2, [lr, #0x20]
  00a7c	e1803403	 orr         r3, r0, r3, lsl #8
  00a80	e28aa001	 add         r10, r10, #1
  00a84	e5852004	 str         r2, [r5, #4]
  00a88	e5853000	 str         r3, [r5]

; 1817 :             dwHorizCoeffs[i*3+2] = 0;

  00a8c	e5856008	 str         r6, [r5, #8]
  00a90	e285500c	 add         r5, r5, #0xC
  00a94	e35a0008	 cmp         r10, #8
  00a98	3affffef	 bcc         |$LL30@SetScaling|

; 1818 :         }
; 1819 :         pHorizCoeffs = dwHorizCoeffs;
; 1820 : 
; 1821 :         if (dwSrcHeight > (dwDestHeight * dwInterlaceCorrection))

  00a9c	e59d3018	 ldr         r3, [sp, #0x18]
  00aa0	e1a02083	 mov         r2, r3, lsl #1
  00aa4	e1540002	 cmp         r4, r2
  00aa8	e28d30d8	 add         r3, sp, #0xD8

; 1822 :         {
; 1823 :             //Down scale
; 1824 :             dwScaleEnable |= DISPC_VID_ATTR_VIDRESIZE_VERTICAL;
; 1825 :             dwScaleEnable |= DISPC_VID_ATTR_VIDVRESIZE_CONF_DOWN;

  00aac	83888d05	 orrhi       r8, r8, #5, 26
