; Listing generated by Microsoft (R) Optimizing Compiler Version 14.01.60511.01 

	TTL	C:\WINCE600\PLATFORM\COMMON\SRC\SOC\COMMON_TI_V1\COMMON_TI\PM\PMEXT\pmext.cpp
	CODE32

  00000			 AREA	 |.drectve|, DRECTVE
	DCB	"-defaultlib:LIBCMT "
	DCB	"-defaultlib:OLDNAMES "

	EXPORT	|?_hIdentifier@@3PAXA| [ DATA ]		; _hIdentifier

  00000			 AREA	 |.bss|, NOINIT
|?_hIdentifier@@3PAXA| % 0x4				; _hIdentifier
	EXPORT	|??_C@_1EO@ODCABIBF@?$AA?$HL?$AAA?$AA5?$AA7?$AA5?$AAE?$AAC?$AA6?$AA8?$AA?9?$AA6?$AA0?$AA8?$AA1?$AA?9?$AA4?$AAf?$AA4?$AA4?$AA?9?$AA8?$AA7?$AAC?$AA8?$AA?9?$AA8?$AAA?$AAB?$AA4?$AA1?$AAA?$AA9@| [ DATA ] ; `string'
	EXPORT	|?OmapPmExtensions@@YAHPAUOMAP_PMEXT_IFC@@K@Z| ; OmapPmExtensions
	IMPORT	|PmxLoadPolicy|
	IMPORT	|PmxLoadConstraint|
	IMPORT	|PmxReleaseConstraint|
	IMPORT	|PmxClosePolicy|
	IMPORT	|PmxNotifyPolicy|
	IMPORT	|PmxOpenPolicy|
	IMPORT	|PmxUnregisterConstraintCallback|
	IMPORT	|PmxRegisterConstraintCallback|
	IMPORT	|PmxUpdateConstraint|
	IMPORT	|PmxSetConstraintById|
	IMPORT	|PmxSetConstraintByClass|
	IMPORT	|PmxSendDeviceNotification|
	IMPORT	|CloseHandle|
	IMPORT	|GetLastError|
	IMPORT	|CreateEventW|

  00000			 AREA	 |.pdata|, PDATA
|$T33559| DCD	|$LN8@OmapPmExte|
	DCD	0x40006804
; File c:\wince600\platform\common\src\soc\common_ti_v1\common_ti\pm\pmext\pmext.cpp

  00000			 AREA	 |.rdata|, DATA, READONLY
|??_C@_1EO@ODCABIBF@?$AA?$HL?$AAA?$AA5?$AA7?$AA5?$AAE?$AAC?$AA6?$AA8?$AA?9?$AA6?$AA0?$AA8?$AA1?$AA?9?$AA4?$AAf?$AA4?$AA4?$AA?9?$AA8?$AA7?$AAC?$AA8?$AA?9?$AA8?$AAA?$AAB?$AA4?$AA1?$AAA?$AA9@| DCB "{"
	DCB	0x0, "A", 0x0, "5", 0x0, "7", 0x0, "5", 0x0, "E", 0x0, "C"
	DCB	0x0, "6", 0x0, "8", 0x0, "-", 0x0, "6", 0x0, "0", 0x0, "8"
	DCB	0x0, "1", 0x0, "-", 0x0, "4", 0x0, "f", 0x0, "4", 0x0, "4"
	DCB	0x0, "-", 0x0, "8", 0x0, "7", 0x0, "C", 0x0, "8", 0x0, "-"
	DCB	0x0, "8", 0x0, "A", 0x0, "B", 0x0, "4", 0x0, "1", 0x0, "A"
	DCB	0x0, "9", 0x0, "C", 0x0, "2", 0x0, "F", 0x0, "2", 0x0, "E"
	DCB	0x0, "}", 0x0, 0x0, 0x0			; `string'
; Function compile flags: /Odtp

  00000			 AREA	 |.text|, CODE, ARM

  00000		 |?OmapPmExtensions@@YAHPAUOMAP_PMEXT_IFC@@K@Z| PROC ; OmapPmExtensions

; 53   : {

  00000		 |$LN8@OmapPmExte|
  00000	e1a0c00d	 mov         r12, sp
  00004	e92d0003	 stmdb       sp!, {r0, r1}
  00008	e92d5000	 stmdb       sp!, {r12, lr}
  0000c	e24dd00c	 sub         sp, sp, #0xC
  00010		 |$M33556|

; 54   :     // parameter validation
; 55   :     if (pIfc == NULL || size != sizeof(OMAP_PMEXT_IFC)) return FALSE;

  00010	e59d3014	 ldr         r3, [sp, #0x14]
  00014	e3530000	 cmp         r3, #0
  00018	0a000002	 beq         |$LN2@OmapPmExte|
  0001c	e59d3018	 ldr         r3, [sp, #0x18]
  00020	e3530034	 cmp         r3, #0x34
  00024	0a000002	 beq         |$LN3@OmapPmExte|
  00028		 |$LN2@OmapPmExte|
  00028	e3a03000	 mov         r3, #0
  0002c	e58d3000	 str         r3, [sp]
  00030	ea000048	 b           |$LN4@OmapPmExte|
  00034		 |$LN3@OmapPmExte|

; 56   :     
; 57   :     // this module is a singleton and shouldn't be loaded more than once
; 58   :     _hIdentifier = CreateEvent(NULL, FALSE, FALSE, PMEXT_IDENTIFIER);

  00034	e59f3160	 ldr         r3, [pc, #0x160]
  00038	e3a02000	 mov         r2, #0
  0003c	e3a01000	 mov         r1, #0
  00040	e3a00000	 mov         r0, #0
  00044	eb000000	 bl          CreateEventW
  00048	e58d0004	 str         r0, [sp, #4]
  0004c	e59d2004	 ldr         r2, [sp, #4]
  00050	e59f3140	 ldr         r3, [pc, #0x140]
  00054	e5832000	 str         r2, [r3]

; 59   :     if (GetLastError() == ERROR_ALREADY_EXISTS)

  00058	eb000000	 bl          GetLastError
  0005c	e58d0008	 str         r0, [sp, #8]
  00060	e59d3008	 ldr         r3, [sp, #8]
  00064	e35300b7	 cmp         r3, #0xB7
  00068	1a000008	 bne         |$LN1@OmapPmExte|

; 60   :         {
; 61   :         CloseHandle(_hIdentifier);

  0006c	e59f3124	 ldr         r3, [pc, #0x124]
  00070	e5930000	 ldr         r0, [r3]
  00074	eb000000	 bl          CloseHandle

; 62   :         _hIdentifier = NULL;

  00078	e59f2118	 ldr         r2, [pc, #0x118]
  0007c	e3a03000	 mov         r3, #0
  00080	e5823000	 str         r3, [r2]

; 63   :         return FALSE;

  00084	e3a03000	 mov         r3, #0
  00088	e58d3000	 str         r3, [sp]
  0008c	ea000031	 b           |$LN4@OmapPmExte|
  00090		 |$LN1@OmapPmExte|

; 64   :         }
; 65   :     
; 66   :     pIfc->PmxSendDeviceNotification = PmxSendDeviceNotification;

  00090	e59d3014	 ldr         r3, [sp, #0x14]
  00094	e2832004	 add         r2, r3, #4
  00098	e59f30f4	 ldr         r3, [pc, #0xF4]
  0009c	e5823000	 str         r3, [r2]

; 67   :     pIfc->PmxSetConstraintByClass = PmxSetConstraintByClass;

  000a0	e59d3014	 ldr         r3, [sp, #0x14]
  000a4	e2832008	 add         r2, r3, #8
  000a8	e59f30e0	 ldr         r3, [pc, #0xE0]
  000ac	e5823000	 str         r3, [r2]

; 68   :     pIfc->PmxSetConstraintById = PmxSetConstraintById;

  000b0	e59d3014	 ldr         r3, [sp, #0x14]
  000b4	e283200c	 add         r2, r3, #0xC
  000b8	e59f30cc	 ldr         r3, [pc, #0xCC]
  000bc	e5823000	 str         r3, [r2]

; 69   :     pIfc->PmxUpdateConstraint = PmxUpdateConstraint;

  000c0	e59d3014	 ldr         r3, [sp, #0x14]
  000c4	e2832010	 add         r2, r3, #0x10
  000c8	e59f30b8	 ldr         r3, [pc, #0xB8]
  000cc	e5823000	 str         r3, [r2]

; 70   :     pIfc->PmxRegisterConstraintCallback = (fnPmxRegisterConstraintCallback)PmxRegisterConstraintCallback;

  000d0	e59d3014	 ldr         r3, [sp, #0x14]
  000d4	e2832018	 add         r2, r3, #0x18
  000d8	e59f30a4	 ldr         r3, [pc, #0xA4]
  000dc	e5823000	 str         r3, [r2]

; 71   :     pIfc->PmxUnregisterConstraintCallback = PmxUnregisterConstraintCallback;

  000e0	e59d3014	 ldr         r3, [sp, #0x14]
  000e4	e283201c	 add         r2, r3, #0x1C
  000e8	e59f3090	 ldr         r3, [pc, #0x90]
  000ec	e5823000	 str         r3, [r2]

; 72   :     pIfc->PmxOpenPolicy = PmxOpenPolicy;

  000f0	e59d3014	 ldr         r3, [sp, #0x14]
  000f4	e2832020	 add         r2, r3, #0x20
  000f8	e59f307c	 ldr         r3, [pc, #0x7C]
  000fc	e5823000	 str         r3, [r2]

; 73   :     pIfc->PmxNotifyPolicy = PmxNotifyPolicy;

  00100	e59d3014	 ldr         r3, [sp, #0x14]
  00104	e2832024	 add         r2, r3, #0x24
  00108	e59f3068	 ldr         r3, [pc, #0x68]
  0010c	e5823000	 str         r3, [r2]

; 74   :     pIfc->PmxClosePolicy = PmxClosePolicy;

  00110	e59d3014	 ldr         r3, [sp, #0x14]
  00114	e2832028	 add         r2, r3, #0x28
  00118	e59f3054	 ldr         r3, [pc, #0x54]
  0011c	e5823000	 str         r3, [r2]

; 75   :     pIfc->PmxReleaseConstraint = PmxReleaseConstraint;

  00120	e59d3014	 ldr         r3, [sp, #0x14]
  00124	e2832014	 add         r2, r3, #0x14
  00128	e59f3040	 ldr         r3, [pc, #0x40]
  0012c	e5823000	 str         r3, [r2]

; 76   :     pIfc->PmxLoadConstraint = PmxLoadConstraint;

  00130	e59d3014	 ldr         r3, [sp, #0x14]
  00134	e283202c	 add         r2, r3, #0x2C
  00138	e59f302c	 ldr         r3, [pc, #0x2C]
  0013c	e5823000	 str         r3, [r2]

; 77   :     pIfc->PmxLoadPolicy = PmxLoadPolicy;

  00140	e59d3014	 ldr         r3, [sp, #0x14]
  00144	e2832030	 add         r2, r3, #0x30
  00148	e59f3018	 ldr         r3, [pc, #0x18]
  0014c	e5823000	 str         r3, [r2]

; 78   :     return TRUE;

  00150	e3a03001	 mov         r3, #1
  00154	e58d3000	 str         r3, [sp]
  00158		 |$LN4@OmapPmExte|

; 79   : }

  00158	e59d0000	 ldr         r0, [sp]
  0015c	e28dd00c	 add         sp, sp, #0xC
  00160	e89d6000	 ldmia       sp, {sp, lr}
  00164	e12fff1e	 bx          lr
  00168		 |$LN9@OmapPmExte|
  00168		 |$LN10@OmapPmExte|
  00168	00000000	 DCD         |PmxLoadPolicy|
  0016c		 |$LN11@OmapPmExte|
  0016c	00000000	 DCD         |PmxLoadConstraint|
  00170		 |$LN12@OmapPmExte|
  00170	00000000	 DCD         |PmxReleaseConstraint|
  00174		 |$LN13@OmapPmExte|
  00174	00000000	 DCD         |PmxClosePolicy|
  00178		 |$LN14@OmapPmExte|
  00178	00000000	 DCD         |PmxNotifyPolicy|
  0017c		 |$LN15@OmapPmExte|
  0017c	00000000	 DCD         |PmxOpenPolicy|
  00180		 |$LN16@OmapPmExte|
  00180	00000000	 DCD         |PmxUnregisterConstraintCallback|
  00184		 |$LN17@OmapPmExte|
  00184	00000000	 DCD         |PmxRegisterConstraintCallback|
  00188		 |$LN18@OmapPmExte|
  00188	00000000	 DCD         |PmxUpdateConstraint|
  0018c		 |$LN19@OmapPmExte|
  0018c	00000000	 DCD         |PmxSetConstraintById|
  00190		 |$LN20@OmapPmExte|
  00190	00000000	 DCD         |PmxSetConstraintByClass|
  00194		 |$LN21@OmapPmExte|
  00194	00000000	 DCD         |PmxSendDeviceNotification|
  00198		 |$LN22@OmapPmExte|
  00198	00000000	 DCD         |?_hIdentifier@@3PAXA|
  0019c		 |$LN23@OmapPmExte|
  0019c	00000000	 DCD         |??_C@_1EO@ODCABIBF@?$AA?$HL?$AAA?$AA5?$AA7?$AA5?$AAE?$AAC?$AA6?$AA8?$AA?9?$AA6?$AA0?$AA8?$AA1?$AA?9?$AA4?$AAf?$AA4?$AA4?$AA?9?$AA8?$AA7?$AAC?$AA8?$AA?9?$AA8?$AAA?$AAB?$AA4?$AA1?$AAA?$AA9@|
  001a0		 |$M33557|

			 ENDP  ; |?OmapPmExtensions@@YAHPAUOMAP_PMEXT_IFC@@K@Z|, OmapPmExtensions

	EXPORT	|??_C@_1CA@DNBJKEMA@?$AA?9?$AAP?$AAM?$AAE?$AAx?$AAt?$AA_?$AAD?$AAe?$AAI?$AAn?$AAi?$AAt?$AA?$CI?$AA?$CJ?$AA?$AA@| [ DATA ] ; `string'
	EXPORT	|??_C@_1EG@DOEDJKBA@?$AA?$CL?$AAP?$AAM?$AAE?$AAx?$AAt?$AA_?$AAD?$AAe?$AAI?$AAn?$AAi?$AAt?$AA?$CI?$AAd?$AAw?$AAE?$AAx?$AAt?$AAC?$AAo?$AAn?$AAt?$AAe?$AAx?$AAt?$AA?$DN?$AA0?$AAx?$AA?$CF?$AA0?$AA8@| [ DATA ] ; `string'
	EXPORT	|?PMExt_DeInit@@YAXK@Z|			; PMExt_DeInit
	IMPORT	|?UninitializeDeviceMediator@@YAXK@Z|	; UninitializeDeviceMediator
	IMPORT	|?UninitializeConstraintRoot@@YAXK@Z|	; UninitializeConstraintRoot
	IMPORT	|?UninitializePolicyRoot@@YAXK@Z|	; UninitializePolicyRoot
	IMPORT	|NKDbgPrintfW|
	IMPORT	|dpCurSettings|

  00008			 AREA	 |.pdata|, PDATA
|$T33583| DCD	|$LN9@PMExt_DeIn|
	DCD	0x40002704

  00000			 AREA	 |.rdata|, DATA, READONLY
|??_C@_1CA@DNBJKEMA@?$AA?9?$AAP?$AAM?$AAE?$AAx?$AAt?$AA_?$AAD?$AAe?$AAI?$AAn?$AAi?$AAt?$AA?$CI?$AA?$CJ?$AA?$AA@| DCB "-"
	DCB	0x0, "P", 0x0, "M", 0x0, "E", 0x0, "x", 0x0, "t", 0x0, "_"
	DCB	0x0, "D", 0x0, "e", 0x0, "I", 0x0, "n", 0x0, "i", 0x0, "t"
	DCB	0x0, "(", 0x0, ")", 0x0, 0x0, 0x0	; `string'

  00000			 AREA	 |.rdata|, DATA, READONLY
|??_C@_1EG@DOEDJKBA@?$AA?$CL?$AAP?$AAM?$AAE?$AAx?$AAt?$AA_?$AAD?$AAe?$AAI?$AAn?$AAi?$AAt?$AA?$CI?$AAd?$AAw?$AAE?$AAx?$AAt?$AAC?$AAo?$AAn?$AAt?$AAe?$AAx?$AAt?$AA?$DN?$AA0?$AAx?$AA?$CF?$AA0?$AA8@| DCB "+"
	DCB	0x0, "P", 0x0, "M", 0x0, "E", 0x0, "x", 0x0, "t", 0x0, "_"
	DCB	0x0, "D", 0x0, "e", 0x0, "I", 0x0, "n", 0x0, "i", 0x0, "t"
	DCB	0x0, "(", 0x0, "d", 0x0, "w", 0x0, "E", 0x0, "x", 0x0, "t"
	DCB	0x0, "C", 0x0, "o", 0x0, "n", 0x0, "t", 0x0, "e", 0x0, "x"
	DCB	0x0, "t", 0x0, "=", 0x0, "0", 0x0, "x", 0x0, "%", 0x0, "0"
	DCB	0x0, "8", 0x0, "X", 0x0, ")", 0x0, 0x0, 0x0 ; `string'
; Function compile flags: /Odtp

  001a0			 AREA	 |.text|, CODE, ARM

  001a0		 |?PMExt_DeInit@@YAXK@Z| PROC		; PMExt_DeInit

; 92   : {

  001a0		 |$LN9@PMExt_DeIn|
  001a0	e1a0c00d	 mov         r12, sp
  001a4	e92d0001	 stmdb       sp!, {r0}
  001a8	e92d5000	 stmdb       sp!, {r12, lr}
  001ac	e24dd008	 sub         sp, sp, #8
  001b0		 |$M33580|

; 93   :     RETAILMSG(ZONE_FUNCTION, (L"+PMExt_DeInit(dwExtContext=0x%08X)", dwExtContext));

  001b0	e59f307c	 ldr         r3, [pc, #0x7C]
  001b4	e5933440	 ldr         r3, [r3, #0x440]
  001b8	e3130004	 tst         r3, #4
  001bc	0a000005	 beq         |$LN3@PMExt_DeIn|
  001c0	e59d1010	 ldr         r1, [sp, #0x10]
  001c4	e59f006c	 ldr         r0, [pc, #0x6C]
  001c8	eb000000	 bl          NKDbgPrintfW
  001cc	e3a03001	 mov         r3, #1
  001d0	e58d3000	 str         r3, [sp]
  001d4	ea000001	 b           |$LN4@PMExt_DeIn|
  001d8		 |$LN3@PMExt_DeIn|
  001d8	e3a03000	 mov         r3, #0
  001dc	e58d3000	 str         r3, [sp]
  001e0		 |$LN4@PMExt_DeIn|

; 94   : 
; 95   :     UninitializePolicyRoot(dwExtContext);

  001e0	e59d0010	 ldr         r0, [sp, #0x10]
  001e4	eb000000	 bl          |?UninitializePolicyRoot@@YAXK@Z|

; 96   :     UninitializeConstraintRoot(dwExtContext);

  001e8	e59d0010	 ldr         r0, [sp, #0x10]
  001ec	eb000000	 bl          |?UninitializeConstraintRoot@@YAXK@Z|

; 97   :     UninitializeDeviceMediator(dwExtContext);

  001f0	e59d0010	 ldr         r0, [sp, #0x10]
  001f4	eb000000	 bl          |?UninitializeDeviceMediator@@YAXK@Z|

; 98   : 
; 99   :     RETAILMSG(ZONE_FUNCTION, (L"-PMExt_DeInit()"));

  001f8	e59f3034	 ldr         r3, [pc, #0x34]
  001fc	e5933440	 ldr         r3, [r3, #0x440]
  00200	e3130004	 tst         r3, #4
  00204	0a000004	 beq         |$LN5@PMExt_DeIn|
  00208	e59f0020	 ldr         r0, [pc, #0x20]
  0020c	eb000000	 bl          NKDbgPrintfW
  00210	e3a03001	 mov         r3, #1
  00214	e58d3004	 str         r3, [sp, #4]
  00218	ea000001	 b           |$LN6@PMExt_DeIn|
  0021c		 |$LN5@PMExt_DeIn|
  0021c	e3a03000	 mov         r3, #0
  00220	e58d3004	 str         r3, [sp, #4]
  00224		 |$LN6@PMExt_DeIn|

; 100  : }

  00224	e28dd008	 add         sp, sp, #8
  00228	e89d6000	 ldmia       sp, {sp, lr}
  0022c	e12fff1e	 bx          lr
  00230		 |$LN10@PMExt_DeIn|
  00230		 |$LN11@PMExt_DeIn|
  00230	00000000	 DCD         |??_C@_1CA@DNBJKEMA@?$AA?9?$AAP?$AAM?$AAE?$AAx?$AAt?$AA_?$AAD?$AAe?$AAI?$AAn?$AAi?$AAt?$AA?$CI?$AA?$CJ?$AA?$AA@|
  00234		 |$LN12@PMExt_DeIn|
  00234	00000000	 DCD         |dpCurSettings|
  00238		 |$LN13@PMExt_DeIn|
  00238	00000000	 DCD         |??_C@_1EG@DOEDJKBA@?$AA?$CL?$AAP?$AAM?$AAE?$AAx?$AAt?$AA_?$AAD?$AAe?$AAI?$AAn?$AAi?$AAt?$AA?$CI?$AAd?$AAw?$AAE?$AAx?$AAt?$AAC?$AAo?$AAn?$AAt?$AAe?$AAx?$AAt?$AA?$DN?$AA0?$AAx?$AA?$CF?$AA0?$AA8@|
  0023c		 |$M33581|

			 ENDP  ; |?PMExt_DeInit@@YAXK@Z|, PMExt_DeInit

	EXPORT	|??_C@_1CC@OCIMAMOI@?$AA?9?$AAP?$AAM?$AAE?$AAx?$AAt?$AA_?$AAI?$AAn?$AAi?$AAt?$AA?$CI?$AA?$CJ?$AA?$DN?$AA?$CF?$AAd?$AA?$AA@| [ DATA ] ; `string'
	EXPORT	|??_C@_1FM@JEPFOLHG@?$AA?$CL?$AAP?$AAM?$AAE?$AAx?$AAt?$AA_?$AAI?$AAn?$AAi?$AAt?$AA?$CI?$AAh?$AAK?$AAe?$AAy?$AA?$DN?$AA0?$AAx?$AA?$CF?$AA0?$AA8?$AAX?$AA?0?$AA?5?$AAl?$AAp?$AAR?$AAe?$AAg?$AAi?$AAs@| [ DATA ] ; `string'
	EXPORT	|?PMExt_Init@@YAKPAUHKEY__@@PBG@Z|	; PMExt_Init
	IMPORT	|?InitializePolicyRoot@@YAKPAUHKEY__@@PBG@Z| ; InitializePolicyRoot
	IMPORT	|?InitializeConstraintRoot@@YAKPAUHKEY__@@PBG@Z| ; InitializeConstraintRoot
	IMPORT	|?InitializeDeviceMediator@@YAKPAUHKEY__@@PBG@Z| ; InitializeDeviceMediator

  00010			 AREA	 |.pdata|, PDATA
|$T33597| DCD	|$LN9@PMExt_Init|
	DCD	0x40003304

  00000			 AREA	 |.rdata|, DATA, READONLY
|??_C@_1CC@OCIMAMOI@?$AA?9?$AAP?$AAM?$AAE?$AAx?$AAt?$AA_?$AAI?$AAn?$AAi?$AAt?$AA?$CI?$AA?$CJ?$AA?$DN?$AA?$CF?$AAd?$AA?$AA@| DCB "-"
	DCB	0x0, "P", 0x0, "M", 0x0, "E", 0x0, "x", 0x0, "t", 0x0, "_"
	DCB	0x0, "I", 0x0, "n", 0x0, "i", 0x0, "t", 0x0, "(", 0x0, ")"
	DCB	0x0, "=", 0x0, "%", 0x0, "d", 0x0, 0x0, 0x0 ; `string'

  00000			 AREA	 |.rdata|, DATA, READONLY
|??_C@_1FM@JEPFOLHG@?$AA?$CL?$AAP?$AAM?$AAE?$AAx?$AAt?$AA_?$AAI?$AAn?$AAi?$AAt?$AA?$CI?$AAh?$AAK?$AAe?$AAy?$AA?$DN?$AA0?$AAx?$AA?$CF?$AA0?$AA8?$AAX?$AA?0?$AA?5?$AAl?$AAp?$AAR?$AAe?$AAg?$AAi?$AAs@| DCB "+"
	DCB	0x0, "P", 0x0, "M", 0x0, "E", 0x0, "x", 0x0, "t", 0x0, "_"
	DCB	0x0, "I", 0x0, "n", 0x0, "i", 0x0, "t", 0x0, "(", 0x0, "h"
	DCB	0x0, "K", 0x0, "e", 0x0, "y", 0x0, "=", 0x0, "0", 0x0, "x"
	DCB	0x0, "%", 0x0, "0", 0x0, "8", 0x0, "X", 0x0, ",", 0x0, " "
	DCB	0x0, "l", 0x0, "p", 0x0, "R", 0x0, "e", 0x0, "g", 0x0, "i"
	DCB	0x0, "s", 0x0, "t", 0x0, "r", 0x0, "y", 0x0, "P", 0x0, "a"
	DCB	0x0, "t", 0x0, "h", 0x0, "=", 0x0, """", 0x0, "%", 0x0, "s"
	DCB	0x0, """", 0x0, ")", 0x0, 0x0, 0x0	; `string'
; Function compile flags: /Odtp

  0023c			 AREA	 |.text|, CODE, ARM

  0023c		 |?PMExt_Init@@YAKPAUHKEY__@@PBG@Z| PROC ; PMExt_Init

; 114  : {

  0023c		 |$LN9@PMExt_Init|
  0023c	e1a0c00d	 mov         r12, sp
  00240	e92d0003	 stmdb       sp!, {r0, r1}
  00244	e92d5000	 stmdb       sp!, {r12, lr}
  00248	e24dd010	 sub         sp, sp, #0x10
  0024c		 |$M33594|

; 115  :     DWORD rc = FALSE;

  0024c	e3a03000	 mov         r3, #0
  00250	e58d3000	 str         r3, [sp]

; 116  :     RETAILMSG(ZONE_FUNCTION, (L"+PMExt_Init(hKey=0x%08X, "
; 117  :         L"lpRegistryPath=\"%s\")", hKey, lpRegistryPath)
; 118  :         );

  00254	e59f30a4	 ldr         r3, [pc, #0xA4]
  00258	e5933440	 ldr         r3, [r3, #0x440]
  0025c	e3130004	 tst         r3, #4
  00260	0a000006	 beq         |$LN3@PMExt_Init|
  00264	e59d201c	 ldr         r2, [sp, #0x1C]
  00268	e59d1018	 ldr         r1, [sp, #0x18]
  0026c	e59f0090	 ldr         r0, [pc, #0x90]
  00270	eb000000	 bl          NKDbgPrintfW
  00274	e3a03001	 mov         r3, #1
  00278	e58d3008	 str         r3, [sp, #8]
  0027c	ea000001	 b           |$LN4@PMExt_Init|
  00280		 |$LN3@PMExt_Init|
  00280	e3a03000	 mov         r3, #0
  00284	e58d3008	 str         r3, [sp, #8]
  00288		 |$LN4@PMExt_Init|

; 119  : 
; 120  :     InitializeDeviceMediator(hKey, lpRegistryPath);

  00288	e59d101c	 ldr         r1, [sp, #0x1C]
  0028c	e59d0018	 ldr         r0, [sp, #0x18]
  00290	eb000000	 bl          |?InitializeDeviceMediator@@YAKPAUHKEY__@@PBG@Z|

; 121  :     InitializeConstraintRoot(hKey, lpRegistryPath);

  00294	e59d101c	 ldr         r1, [sp, #0x1C]
  00298	e59d0018	 ldr         r0, [sp, #0x18]
  0029c	eb000000	 bl          |?InitializeConstraintRoot@@YAKPAUHKEY__@@PBG@Z|

; 122  :     InitializePolicyRoot(hKey, lpRegistryPath);

  002a0	e59d101c	 ldr         r1, [sp, #0x1C]
  002a4	e59d0018	 ldr         r0, [sp, #0x18]
  002a8	eb000000	 bl          |?InitializePolicyRoot@@YAKPAUHKEY__@@PBG@Z|

; 123  :     
; 124  :     rc = TRUE;

  002ac	e3a03001	 mov         r3, #1
  002b0	e58d3000	 str         r3, [sp]

; 125  :     
; 126  :     RETAILMSG(ZONE_FUNCTION, (L"-PMExt_Init()=%d", rc));

  002b4	e59f3044	 ldr         r3, [pc, #0x44]
  002b8	e5933440	 ldr         r3, [r3, #0x440]
  002bc	e3130004	 tst         r3, #4
  002c0	0a000005	 beq         |$LN5@PMExt_Init|
  002c4	e59d1000	 ldr         r1, [sp]
  002c8	e59f002c	 ldr         r0, [pc, #0x2C]
  002cc	eb000000	 bl          NKDbgPrintfW
  002d0	e3a03001	 mov         r3, #1
  002d4	e58d300c	 str         r3, [sp, #0xC]
  002d8	ea000001	 b           |$LN6@PMExt_Init|
  002dc		 |$LN5@PMExt_Init|
  002dc	e3a03000	 mov         r3, #0
  002e0	e58d300c	 str         r3, [sp, #0xC]
  002e4		 |$LN6@PMExt_Init|

; 127  :     return rc;

  002e4	e59d3000	 ldr         r3, [sp]
  002e8	e58d3004	 str         r3, [sp, #4]

; 128  : }

  002ec	e59d0004	 ldr         r0, [sp, #4]
  002f0	e28dd010	 add         sp, sp, #0x10
  002f4	e89d6000	 ldmia       sp, {sp, lr}
  002f8	e12fff1e	 bx          lr
  002fc		 |$LN10@PMExt_Init|
  002fc		 |$LN11@PMExt_Init|
  002fc	00000000	 DCD         |??_C@_1CC@OCIMAMOI@?$AA?9?$AAP?$AAM?$AAE?$AAx?$AAt?$AA_?$AAI?$AAn?$AAi?$AAt?$AA?$CI?$AA?$CJ?$AA?$DN?$AA?$CF?$AAd?$AA?$AA@|
  00300		 |$LN12@PMExt_Init|
  00300	00000000	 DCD         |dpCurSettings|
  00304		 |$LN13@PMExt_Init|
  00304	00000000	 DCD         |??_C@_1FM@JEPFOLHG@?$AA?$CL?$AAP?$AAM?$AAE?$AAx?$AAt?$AA_?$AAI?$AAn?$AAi?$AAt?$AA?$CI?$AAh?$AAK?$AAe?$AAy?$AA?$DN?$AA0?$AAx?$AA?$CF?$AA0?$AA8?$AAX?$AA?0?$AA?5?$AAl?$AAp?$AAR?$AAe?$AAg?$AAi?$AAs@|
  00308		 |$M33595|

			 ENDP  ; |?PMExt_Init@@YAKPAUHKEY__@@PBG@Z|, PMExt_Init

	EXPORT	|??_C@_1EM@KGPEOAIL@?$AA?9?$AAP?$AAM?$AAE?$AAx?$AAt?$AA_?$AAG?$AAe?$AAt?$AAN?$AAo?$AAt?$AAi?$AAf?$AAi?$AAc?$AAa?$AAt?$AAi?$AAo?$AAn?$AAH?$AAa?$AAn?$AAd?$AAl?$AAe?$AA?$CI?$AA?$CJ?$AA?$DN?$AA0@| [ DATA ] ; `string'
	EXPORT	|??_C@_1GE@IDHLEMEC@?$AA?$CL?$AAP?$AAM?$AAE?$AAx?$AAt?$AA_?$AAG?$AAe?$AAt?$AAN?$AAo?$AAt?$AAi?$AAf?$AAi?$AAc?$AAa?$AAt?$AAi?$AAo?$AAn?$AAH?$AAa?$AAn?$AAd?$AAl?$AAe?$AA?$CI?$AAd?$AAw?$AAE@| [ DATA ] ; `string'
	EXPORT	|?PMExt_GetNotificationHandle@@YAKK@Z|	; PMExt_GetNotificationHandle

  00018			 AREA	 |.pdata|, PDATA
|$T33611| DCD	|$LN9@PMExt_GetN|
	DCD	0x40002f04

  00000			 AREA	 |.rdata|, DATA, READONLY
|??_C@_1EM@KGPEOAIL@?$AA?9?$AAP?$AAM?$AAE?$AAx?$AAt?$AA_?$AAG?$AAe?$AAt?$AAN?$AAo?$AAt?$AAi?$AAf?$AAi?$AAc?$AAa?$AAt?$AAi?$AAo?$AAn?$AAH?$AAa?$AAn?$AAd?$AAl?$AAe?$AA?$CI?$AA?$CJ?$AA?$DN?$AA0@| DCB "-"
	DCB	0x0, "P", 0x0, "M", 0x0, "E", 0x0, "x", 0x0, "t", 0x0, "_"
	DCB	0x0, "G", 0x0, "e", 0x0, "t", 0x0, "N", 0x0, "o", 0x0, "t"
	DCB	0x0, "i", 0x0, "f", 0x0, "i", 0x0, "c", 0x0, "a", 0x0, "t"
	DCB	0x0, "i", 0x0, "o", 0x0, "n", 0x0, "H", 0x0, "a", 0x0, "n"
	DCB	0x0, "d", 0x0, "l", 0x0, "e", 0x0, "(", 0x0, ")", 0x0, "="
	DCB	0x0, "0", 0x0, "x", 0x0, "%", 0x0, "0", 0x0, "8", 0x0, "X"
	DCB	0x0, 0x0, 0x0				; `string'

  00000			 AREA	 |.rdata|, DATA, READONLY
|??_C@_1GE@IDHLEMEC@?$AA?$CL?$AAP?$AAM?$AAE?$AAx?$AAt?$AA_?$AAG?$AAe?$AAt?$AAN?$AAo?$AAt?$AAi?$AAf?$AAi?$AAc?$AAa?$AAt?$AAi?$AAo?$AAn?$AAH?$AAa?$AAn?$AAd?$AAl?$AAe?$AA?$CI?$AAd?$AAw?$AAE@| DCB "+"
	DCB	0x0, "P", 0x0, "M", 0x0, "E", 0x0, "x", 0x0, "t", 0x0, "_"
	DCB	0x0, "G", 0x0, "e", 0x0, "t", 0x0, "N", 0x0, "o", 0x0, "t"
	DCB	0x0, "i", 0x0, "f", 0x0, "i", 0x0, "c", 0x0, "a", 0x0, "t"
	DCB	0x0, "i", 0x0, "o", 0x0, "n", 0x0, "H", 0x0, "a", 0x0, "n"
	DCB	0x0, "d", 0x0, "l", 0x0, "e", 0x0, "(", 0x0, "d", 0x0, "w"
	DCB	0x0, "E", 0x0, "x", 0x0, "t", 0x0, "C", 0x0, "o", 0x0, "n"
	DCB	0x0, "t", 0x0, "e", 0x0, "x", 0x0, "t", 0x0, "=", 0x0, "0"
	DCB	0x0, "x", 0x0, "%", 0x0, "0", 0x0, "8", 0x0, "X", 0x0, ")"
	DCB	0x0, 0x0, 0x0				; `string'
; Function compile flags: /Odtp

  00308			 AREA	 |.text|, CODE, ARM

  00308		 |?PMExt_GetNotificationHandle@@YAKK@Z| PROC ; PMExt_GetNotificationHandle

; 141  : {

  00308		 |$LN9@PMExt_GetN|
  00308	e1a0c00d	 mov         r12, sp
  0030c	e92d0001	 stmdb       sp!, {r0}
  00310	e92d5000	 stmdb       sp!, {r12, lr}
  00314	e24dd014	 sub         sp, sp, #0x14
  00318		 |$M33608|

; 142  :     DWORD rc = FALSE;

  00318	e3a03000	 mov         r3, #0
  0031c	e58d3000	 str         r3, [sp]

; 143  : 
; 144  : 	UNREFERENCED_PARAMETER(dwExtContext);
; 145  : 
; 146  :     RETAILMSG(ZONE_FUNCTION, (L"+PMExt_GetNotificationHandle("
; 147  :         L"dwExtContext=0x%08X)", dwExtContext)
; 148  :         );

  00320	e59f3094	 ldr         r3, [pc, #0x94]
  00324	e5933440	 ldr         r3, [r3, #0x440]
  00328	e3130004	 tst         r3, #4
  0032c	0a000005	 beq         |$LN3@PMExt_GetN|
  00330	e59d101c	 ldr         r1, [sp, #0x1C]
  00334	e59f0084	 ldr         r0, [pc, #0x84]
  00338	eb000000	 bl          NKDbgPrintfW
  0033c	e3a03001	 mov         r3, #1
  00340	e58d3008	 str         r3, [sp, #8]
  00344	ea000001	 b           |$LN4@PMExt_GetN|
  00348		 |$LN3@PMExt_GetN|
  00348	e3a03000	 mov         r3, #0
  0034c	e58d3008	 str         r3, [sp, #8]
  00350		 |$LN4@PMExt_GetN|

; 149  : 
; 150  :     rc = (DWORD)CreateEvent(NULL, FALSE, FALSE, NULL);

  00350	e3a03000	 mov         r3, #0
  00354	e3a02000	 mov         r2, #0
  00358	e3a01000	 mov         r1, #0
  0035c	e3a00000	 mov         r0, #0
  00360	eb000000	 bl          CreateEventW
  00364	e58d000c	 str         r0, [sp, #0xC]
  00368	e59d300c	 ldr         r3, [sp, #0xC]
  0036c	e58d3000	 str         r3, [sp]

; 151  : 
; 152  :     RETAILMSG(ZONE_FUNCTION, (L"-PMExt_GetNotificationHandle()=0x%08X", rc));

  00370	e59f3044	 ldr         r3, [pc, #0x44]
  00374	e5933440	 ldr         r3, [r3, #0x440]
  00378	e3130004	 tst         r3, #4
  0037c	0a000005	 beq         |$LN5@PMExt_GetN|
  00380	e59d1000	 ldr         r1, [sp]
  00384	e59f002c	 ldr         r0, [pc, #0x2C]
  00388	eb000000	 bl          NKDbgPrintfW
  0038c	e3a03001	 mov         r3, #1
  00390	e58d3010	 str         r3, [sp, #0x10]
  00394	ea000001	 b           |$LN6@PMExt_GetN|
  00398		 |$LN5@PMExt_GetN|
  00398	e3a03000	 mov         r3, #0
  0039c	e58d3010	 str         r3, [sp, #0x10]
  003a0		 |$LN6@PMExt_GetN|

; 153  :     return rc;

  003a0	e59d3000	 ldr         r3, [sp]
  003a4	e58d3004	 str         r3, [sp, #4]

; 154  : }

  003a8	e59d0004	 ldr         r0, [sp, #4]
  003ac	e28dd014	 add         sp, sp, #0x14
  003b0	e89d6000	 ldmia       sp, {sp, lr}
  003b4	e12fff1e	 bx          lr
  003b8		 |$LN10@PMExt_GetN|
  003b8		 |$LN11@PMExt_GetN|
  003b8	00000000	 DCD         |??_C@_1EM@KGPEOAIL@?$AA?9?$AAP?$AAM?$AAE?$AAx?$AAt?$AA_?$AAG?$AAe?$AAt?$AAN?$AAo?$AAt?$AAi?$AAf?$AAi?$AAc?$AAa?$AAt?$AAi?$AAo?$AAn?$AAH?$AAa?$AAn?$AAd?$AAl?$AAe?$AA?$CI?$AA?$CJ?$AA?$DN?$AA0@|
  003bc		 |$LN12@PMExt_GetN|
  003bc	00000000	 DCD         |dpCurSettings|
  003c0		 |$LN13@PMExt_GetN|
  003c0	00000000	 DCD         |??_C@_1GE@IDHLEMEC@?$AA?$CL?$AAP?$AAM?$AAE?$AAx?$AAt?$AA_?$AAG?$AAe?$AAt?$AAN?$AAo?$AAt?$AAi?$AAf?$AAi?$AAc?$AAa?$AAt?$AAi?$AAo?$AAn?$AAH?$AAa?$AAn?$AAd?$AAl?$AAe?$AA?$CI?$AAd?$AAw?$AAE@|
  003c4		 |$M33609|

			 ENDP  ; |?PMExt_GetNotificationHandle@@YAKK@Z|, PMExt_GetNotificationHandle

	EXPORT	|??_C@_1DM@CPLGNN@?$AA?9?$AAP?$AAM?$AAE?$AAx?$AAt?$AA_?$AAE?$AAv?$AAe?$AAn?$AAt?$AAN?$AAo?$AAt?$AAi?$AAf?$AAi?$AAc?$AAa?$AAt?$AAi?$AAo?$AAn?$AA?$CI?$AA?$CJ?$AA?$DN?$AA?$CF?$AAd?$AA?$AA@| [ DATA ] ; `string'
	EXPORT	|??_C@_1JA@IKPNPPKE@?$AA?$CL?$AAP?$AAM?$AAE?$AAx?$AAt?$AA_?$AAE?$AAv?$AAe?$AAn?$AAt?$AAN?$AAo?$AAt?$AAi?$AAf?$AAi?$AAc?$AAa?$AAt?$AAi?$AAo?$AAn?$AA?$CI?$AAd?$AAw?$AAE?$AAx?$AAt?$AAC?$AAo@| [ DATA ] ; `string'
	EXPORT	|?PMExt_EventNotification@@YAKKW4PLATFORM_ACTIVITY_EVENT@@@Z| ; PMExt_EventNotification

  00020			 AREA	 |.pdata|, PDATA
|$T33625| DCD	|$LN9@PMExt_Even|
	DCD	0x40002a04

  00000			 AREA	 |.rdata|, DATA, READONLY
|??_C@_1DM@CPLGNN@?$AA?9?$AAP?$AAM?$AAE?$AAx?$AAt?$AA_?$AAE?$AAv?$AAe?$AAn?$AAt?$AAN?$AAo?$AAt?$AAi?$AAf?$AAi?$AAc?$AAa?$AAt?$AAi?$AAo?$AAn?$AA?$CI?$AA?$CJ?$AA?$DN?$AA?$CF?$AAd?$AA?$AA@| DCB "-"
	DCB	0x0, "P", 0x0, "M", 0x0, "E", 0x0, "x", 0x0, "t", 0x0, "_"
	DCB	0x0, "E", 0x0, "v", 0x0, "e", 0x0, "n", 0x0, "t", 0x0, "N"
	DCB	0x0, "o", 0x0, "t", 0x0, "i", 0x0, "f", 0x0, "i", 0x0, "c"
	DCB	0x0, "a", 0x0, "t", 0x0, "i", 0x0, "o", 0x0, "n", 0x0, "("
	DCB	0x0, ")", 0x0, "=", 0x0, "%", 0x0, "d", 0x0, 0x0, 0x0 ; `string'

  00000			 AREA	 |.rdata|, DATA, READONLY
|??_C@_1JA@IKPNPPKE@?$AA?$CL?$AAP?$AAM?$AAE?$AAx?$AAt?$AA_?$AAE?$AAv?$AAe?$AAn?$AAt?$AAN?$AAo?$AAt?$AAi?$AAf?$AAi?$AAc?$AAa?$AAt?$AAi?$AAo?$AAn?$AA?$CI?$AAd?$AAw?$AAE?$AAx?$AAt?$AAC?$AAo@| DCB "+"
	DCB	0x0, "P", 0x0, "M", 0x0, "E", 0x0, "x", 0x0, "t", 0x0, "_"
	DCB	0x0, "E", 0x0, "v", 0x0, "e", 0x0, "n", 0x0, "t", 0x0, "N"
	DCB	0x0, "o", 0x0, "t", 0x0, "i", 0x0, "f", 0x0, "i", 0x0, "c"
	DCB	0x0, "a", 0x0, "t", 0x0, "i", 0x0, "o", 0x0, "n", 0x0, "("
	DCB	0x0, "d", 0x0, "w", 0x0, "E", 0x0, "x", 0x0, "t", 0x0, "C"
	DCB	0x0, "o", 0x0, "n", 0x0, "t", 0x0, "e", 0x0, "x", 0x0, "t"
	DCB	0x0, "=", 0x0, "0", 0x0, "x", 0x0, "%", 0x0, "0", 0x0, "8"
	DCB	0x0, "X", 0x0, ",", 0x0, " ", 0x0, "p", 0x0, "l", 0x0, "a"
	DCB	0x0, "t", 0x0, "f", 0x0, "o", 0x0, "r", 0x0, "m", 0x0, "A"
	DCB	0x0, "c", 0x0, "t", 0x0, "i", 0x0, "v", 0x0, "i", 0x0, "t"
	DCB	0x0, "y", 0x0, "E", 0x0, "v", 0x0, "e", 0x0, "n", 0x0, "t"
	DCB	0x0, "=", 0x0, "%", 0x0, "d", 0x0, ")", 0x0, 0x0, 0x0 ; `string'
; Function compile flags: /Odtp

  003c4			 AREA	 |.text|, CODE, ARM

  003c4		 |?PMExt_EventNotification@@YAKKW4PLATFORM_ACTIVITY_EVENT@@@Z| PROC ; PMExt_EventNotification

; 168  : {

  003c4		 |$LN9@PMExt_Even|
  003c4	e1a0c00d	 mov         r12, sp
  003c8	e92d0003	 stmdb       sp!, {r0, r1}
  003cc	e92d5000	 stmdb       sp!, {r12, lr}
  003d0	e24dd010	 sub         sp, sp, #0x10
  003d4		 |$M33622|

; 169  :     DWORD rc = FALSE;

  003d4	e3a03000	 mov         r3, #0
  003d8	e58d3000	 str         r3, [sp]

; 170  : 
; 171  : 	UNREFERENCED_PARAMETER(dwExtContext);
; 172  : 	UNREFERENCED_PARAMETER(platformActivityEvent);
; 173  : 
; 174  :     RETAILMSG(ZONE_FUNCTION, (L"+PMExt_EventNotification(dwExtContext=0x%08X, "
; 175  :         L"platformActivityEvent=%d)", dwExtContext, platformActivityEvent)
; 176  :         );

  003dc	e59f3080	 ldr         r3, [pc, #0x80]
  003e0	e5933440	 ldr         r3, [r3, #0x440]
  003e4	e3130004	 tst         r3, #4
  003e8	0a000006	 beq         |$LN3@PMExt_Even|
  003ec	e59d201c	 ldr         r2, [sp, #0x1C]
  003f0	e59d1018	 ldr         r1, [sp, #0x18]
  003f4	e59f006c	 ldr         r0, [pc, #0x6C]
  003f8	eb000000	 bl          NKDbgPrintfW
  003fc	e3a03001	 mov         r3, #1
  00400	e58d3008	 str         r3, [sp, #8]
  00404	ea000001	 b           |$LN4@PMExt_Even|
  00408		 |$LN3@PMExt_Even|
  00408	e3a03000	 mov         r3, #0
  0040c	e58d3008	 str         r3, [sp, #8]
  00410		 |$LN4@PMExt_Even|

; 177  : 
; 178  : 
; 179  :     rc = TRUE;

  00410	e3a03001	 mov         r3, #1
  00414	e58d3000	 str         r3, [sp]

; 180  :     
; 181  :     RETAILMSG(ZONE_FUNCTION, (L"-PMExt_EventNotification()=%d", rc));

  00418	e59f3044	 ldr         r3, [pc, #0x44]
  0041c	e5933440	 ldr         r3, [r3, #0x440]
  00420	e3130004	 tst         r3, #4
  00424	0a000005	 beq         |$LN5@PMExt_Even|
  00428	e59d1000	 ldr         r1, [sp]
  0042c	e59f002c	 ldr         r0, [pc, #0x2C]
  00430	eb000000	 bl          NKDbgPrintfW
  00434	e3a03001	 mov         r3, #1
  00438	e58d300c	 str         r3, [sp, #0xC]
  0043c	ea000001	 b           |$LN6@PMExt_Even|
  00440		 |$LN5@PMExt_Even|
  00440	e3a03000	 mov         r3, #0
  00444	e58d300c	 str         r3, [sp, #0xC]
  00448		 |$LN6@PMExt_Even|

; 182  :     return rc;

  00448	e59d3000	 ldr         r3, [sp]
  0044c	e58d3004	 str         r3, [sp, #4]

; 183  : }

  00450	e59d0004	 ldr         r0, [sp, #4]
  00454	e28dd010	 add         sp, sp, #0x10
  00458	e89d6000	 ldmia       sp, {sp, lr}
  0045c	e12fff1e	 bx          lr
  00460		 |$LN10@PMExt_Even|
  00460		 |$LN11@PMExt_Even|
  00460	00000000	 DCD         |??_C@_1DM@CPLGNN@?$AA?9?$AAP?$AAM?$AAE?$AAx?$AAt?$AA_?$AAE?$AAv?$AAe?$AAn?$AAt?$AAN?$AAo?$AAt?$AAi?$AAf?$AAi?$AAc?$AAa?$AAt?$AAi?$AAo?$AAn?$AA?$CI?$AA?$CJ?$AA?$DN?$AA?$CF?$AAd?$AA?$AA@|
  00464		 |$LN12@PMExt_Even|
  00464	00000000	 DCD         |dpCurSettings|
  00468		 |$LN13@PMExt_Even|
  00468	00000000	 DCD         |??_C@_1JA@IKPNPPKE@?$AA?$CL?$AAP?$AAM?$AAE?$AAx?$AAt?$AA_?$AAE?$AAv?$AAe?$AAn?$AAt?$AAN?$AAo?$AAt?$AAi?$AAf?$AAi?$AAc?$AAa?$AAt?$AAi?$AAo?$AAn?$AA?$CI?$AAd?$AAw?$AAE?$AAx?$AAt?$AAC?$AAo@|
  0046c		 |$M33623|

			 ENDP  ; |?PMExt_EventNotification@@YAKKW4PLATFORM_ACTIVITY_EVENT@@@Z|, PMExt_EventNotification

	EXPORT	|??_C@_1EG@PJENOECK@?$AA?9?$AAP?$AAM?$AAE?$AAx?$AAt?$AA_?$AAP?$AAM?$AAB?$AAe?$AAf?$AAo?$AAr?$AAe?$AAN?$AAe?$AAw?$AAS?$AAy?$AAs?$AAt?$AAe?$AAm?$AAS?$AAt?$AAa?$AAt?$AAe?$AA?$CI?$AA?$CJ?$AA?$DN@| [ DATA ] ; `string'
	EXPORT	|??_C@_1KM@MOLGDIMM@?$AA?$CL?$AAP?$AAM?$AAE?$AAx?$AAt?$AA_?$AAP?$AAM?$AAB?$AAe?$AAf?$AAo?$AAr?$AAe?$AAN?$AAe?$AAw?$AAS?$AAy?$AAs?$AAt?$AAe?$AAm?$AAS?$AAt?$AAa?$AAt?$AAe?$AA?$CI?$AAd?$AAw@| [ DATA ] ; `string'
	EXPORT	|?PMExt_PMBeforeNewSystemState@@YAKKPBGK@Z| ; PMExt_PMBeforeNewSystemState
	IMPORT	|?PreSystemStateChange@@YAKKPBGK@Z|	; PreSystemStateChange

  00028			 AREA	 |.pdata|, PDATA
|$T33639| DCD	|$LN9@PMExt_PMBe|
	DCD	0x40002e04

  00000			 AREA	 |.rdata|, DATA, READONLY
|??_C@_1EG@PJENOECK@?$AA?9?$AAP?$AAM?$AAE?$AAx?$AAt?$AA_?$AAP?$AAM?$AAB?$AAe?$AAf?$AAo?$AAr?$AAe?$AAN?$AAe?$AAw?$AAS?$AAy?$AAs?$AAt?$AAe?$AAm?$AAS?$AAt?$AAa?$AAt?$AAe?$AA?$CI?$AA?$CJ?$AA?$DN@| DCB "-"
	DCB	0x0, "P", 0x0, "M", 0x0, "E", 0x0, "x", 0x0, "t", 0x0, "_"
	DCB	0x0, "P", 0x0, "M", 0x0, "B", 0x0, "e", 0x0, "f", 0x0, "o"
	DCB	0x0, "r", 0x0, "e", 0x0, "N", 0x0, "e", 0x0, "w", 0x0, "S"
	DCB	0x0, "y", 0x0, "s", 0x0, "t", 0x0, "e", 0x0, "m", 0x0, "S"
	DCB	0x0, "t", 0x0, "a", 0x0, "t", 0x0, "e", 0x0, "(", 0x0, ")"
	DCB	0x0, "=", 0x0, "%", 0x0, "d", 0x0, 0x0, 0x0 ; `string'

  00000			 AREA	 |.rdata|, DATA, READONLY
|??_C@_1KM@MOLGDIMM@?$AA?$CL?$AAP?$AAM?$AAE?$AAx?$AAt?$AA_?$AAP?$AAM?$AAB?$AAe?$AAf?$AAo?$AAr?$AAe?$AAN?$AAe?$AAw?$AAS?$AAy?$AAs?$AAt?$AAe?$AAm?$AAS?$AAt?$AAa?$AAt?$AAe?$AA?$CI?$AAd?$AAw@| DCB "+"
	DCB	0x0, "P", 0x0, "M", 0x0, "E", 0x0, "x", 0x0, "t", 0x0, "_"
	DCB	0x0, "P", 0x0, "M", 0x0, "B", 0x0, "e", 0x0, "f", 0x0, "o"
	DCB	0x0, "r", 0x0, "e", 0x0, "N", 0x0, "e", 0x0, "w", 0x0, "S"
	DCB	0x0, "y", 0x0, "s", 0x0, "t", 0x0, "e", 0x0, "m", 0x0, "S"
	DCB	0x0, "t", 0x0, "a", 0x0, "t", 0x0, "e", 0x0, "(", 0x0, "d"
	DCB	0x0, "w", 0x0, "E", 0x0, "x", 0x0, "t", 0x0, "C", 0x0, "o"
	DCB	0x0, "n", 0x0, "t", 0x0, "e", 0x0, "x", 0x0, "t", 0x0, "="
	DCB	0x0, "0", 0x0, "x", 0x0, "%", 0x0, "0", 0x0, "8", 0x0, "X"
	DCB	0x0, ",", 0x0, " ", 0x0, "l", 0x0, "p", 0x0, "N", 0x0, "e"
	DCB	0x0, "w", 0x0, "S", 0x0, "t", 0x0, "a", 0x0, "t", 0x0, "e"
	DCB	0x0, "N", 0x0, "a", 0x0, "m", 0x0, "e", 0x0, "=", 0x0, "%"
	DCB	0x0, "d", 0x0, ",", 0x0, " ", 0x0, "d", 0x0, "w", 0x0, "F"
	DCB	0x0, "l", 0x0, "a", 0x0, "g", 0x0, "s", 0x0, "=", 0x0, "0"
	DCB	0x0, "x", 0x0, "%", 0x0, "0", 0x0, "8", 0x0, "X", 0x0, ")"
	DCB	0x0, 0x0, 0x0				; `string'
; Function compile flags: /Odtp

  0046c			 AREA	 |.text|, CODE, ARM

  0046c		 |?PMExt_PMBeforeNewSystemState@@YAKKPBGK@Z| PROC ; PMExt_PMBeforeNewSystemState

; 198  : {

  0046c		 |$LN9@PMExt_PMBe|
  0046c	e1a0c00d	 mov         r12, sp
  00470	e92d0007	 stmdb       sp!, {r0 - r2}
  00474	e92d5000	 stmdb       sp!, {r12, lr}
  00478	e24dd014	 sub         sp, sp, #0x14
  0047c		 |$M33636|

; 199  :     DWORD rc;
; 200  :     RETAILMSG(ZONE_FUNCTION, (L"+PMExt_PMBeforeNewSystemState(dwExtContext=0x%08X, "
; 201  :         L"lpNewStateName=%d, dwFlags=0x%08X)", 
; 202  :         dwExtContext, lpNewStateName, dwFlags)
; 203  :         );

  0047c	e59f3098	 ldr         r3, [pc, #0x98]
  00480	e5933440	 ldr         r3, [r3, #0x440]
  00484	e3130004	 tst         r3, #4
  00488	0a000007	 beq         |$LN3@PMExt_PMBe|
  0048c	e59d3024	 ldr         r3, [sp, #0x24]
  00490	e59d2020	 ldr         r2, [sp, #0x20]
  00494	e59d101c	 ldr         r1, [sp, #0x1C]
  00498	e59f0080	 ldr         r0, [pc, #0x80]
  0049c	eb000000	 bl          NKDbgPrintfW
  004a0	e3a03001	 mov         r3, #1
  004a4	e58d3008	 str         r3, [sp, #8]
  004a8	ea000001	 b           |$LN4@PMExt_PMBe|
  004ac		 |$LN3@PMExt_PMBe|
  004ac	e3a03000	 mov         r3, #0
  004b0	e58d3008	 str         r3, [sp, #8]
  004b4		 |$LN4@PMExt_PMBe|

; 204  : 
; 205  :     rc = PreSystemStateChange(dwExtContext, lpNewStateName, dwFlags);

  004b4	e59d2024	 ldr         r2, [sp, #0x24]
  004b8	e59d1020	 ldr         r1, [sp, #0x20]
  004bc	e59d001c	 ldr         r0, [sp, #0x1C]
  004c0	eb000000	 bl          |?PreSystemStateChange@@YAKKPBGK@Z|
  004c4	e58d000c	 str         r0, [sp, #0xC]
  004c8	e59d300c	 ldr         r3, [sp, #0xC]
  004cc	e58d3000	 str         r3, [sp]

; 206  :     
; 207  :     RETAILMSG(ZONE_FUNCTION, (L"-PMExt_PMBeforeNewSystemState()=%d", rc));

  004d0	e59f3044	 ldr         r3, [pc, #0x44]
  004d4	e5933440	 ldr         r3, [r3, #0x440]
  004d8	e3130004	 tst         r3, #4
  004dc	0a000005	 beq         |$LN5@PMExt_PMBe|
  004e0	e59d1000	 ldr         r1, [sp]
  004e4	e59f002c	 ldr         r0, [pc, #0x2C]
  004e8	eb000000	 bl          NKDbgPrintfW
  004ec	e3a03001	 mov         r3, #1
  004f0	e58d3010	 str         r3, [sp, #0x10]
  004f4	ea000001	 b           |$LN6@PMExt_PMBe|
  004f8		 |$LN5@PMExt_PMBe|
  004f8	e3a03000	 mov         r3, #0
  004fc	e58d3010	 str         r3, [sp, #0x10]
  00500		 |$LN6@PMExt_PMBe|

; 208  :     return rc;

  00500	e59d3000	 ldr         r3, [sp]
  00504	e58d3004	 str         r3, [sp, #4]

; 209  : }

  00508	e59d0004	 ldr         r0, [sp, #4]
  0050c	e28dd014	 add         sp, sp, #0x14
  00510	e89d6000	 ldmia       sp, {sp, lr}
  00514	e12fff1e	 bx          lr
  00518		 |$LN10@PMExt_PMBe|
  00518		 |$LN11@PMExt_PMBe|
  00518	00000000	 DCD         |??_C@_1EG@PJENOECK@?$AA?9?$AAP?$AAM?$AAE?$AAx?$AAt?$AA_?$AAP?$AAM?$AAB?$AAe?$AAf?$AAo?$AAr?$AAe?$AAN?$AAe?$AAw?$AAS?$AAy?$AAs?$AAt?$AAe?$AAm?$AAS?$AAt?$AAa?$AAt?$AAe?$AA?$CI?$AA?$CJ?$AA?$DN@|
  0051c		 |$LN12@PMExt_PMBe|
  0051c	00000000	 DCD         |dpCurSettings|
  00520		 |$LN13@PMExt_PMBe|
  00520	00000000	 DCD         |??_C@_1KM@MOLGDIMM@?$AA?$CL?$AAP?$AAM?$AAE?$AAx?$AAt?$AA_?$AAP?$AAM?$AAB?$AAe?$AAf?$AAo?$AAr?$AAe?$AAN?$AAe?$AAw?$AAS?$AAy?$AAs?$AAt?$AAe?$AAm?$AAS?$AAt?$AAa?$AAt?$AAe?$AA?$CI?$AAd?$AAw@|
  00524		 |$M33637|

			 ENDP  ; |?PMExt_PMBeforeNewSystemState@@YAKKPBGK@Z|, PMExt_PMBeforeNewSystemState

	EXPORT	|??_C@_1EE@FNNDMKCF@?$AA?9?$AAP?$AAM?$AAE?$AAx?$AAt?$AA_?$AAP?$AAM?$AAA?$AAf?$AAt?$AAe?$AAr?$AAN?$AAe?$AAw?$AAS?$AAy?$AAs?$AAt?$AAe?$AAm?$AAS?$AAt?$AAa?$AAt?$AAe?$AA?$CI?$AA?$CJ?$AA?$DN?$AA?$CF@| [ DATA ] ; `string'
	EXPORT	|??_C@_1KK@ILFJHBO@?$AA?$CL?$AAP?$AAM?$AAE?$AAx?$AAt?$AA_?$AAP?$AAM?$AAA?$AAf?$AAt?$AAe?$AAr?$AAN?$AAe?$AAw?$AAS?$AAy?$AAs?$AAt?$AAe?$AAm?$AAS?$AAt?$AAa?$AAt?$AAe?$AA?$CI?$AAd?$AAw?$AAE@| [ DATA ] ; `string'
	EXPORT	|?PMExt_PMAfterNewSystemState@@YAKKPBGK@Z| ; PMExt_PMAfterNewSystemState
	IMPORT	|?PostSystemStateChange@@YAKKPBGK@Z|	; PostSystemStateChange

  00030			 AREA	 |.pdata|, PDATA
|$T33653| DCD	|$LN9@PMExt_PMAf|
	DCD	0x40002e04

  00000			 AREA	 |.rdata|, DATA, READONLY
|??_C@_1EE@FNNDMKCF@?$AA?9?$AAP?$AAM?$AAE?$AAx?$AAt?$AA_?$AAP?$AAM?$AAA?$AAf?$AAt?$AAe?$AAr?$AAN?$AAe?$AAw?$AAS?$AAy?$AAs?$AAt?$AAe?$AAm?$AAS?$AAt?$AAa?$AAt?$AAe?$AA?$CI?$AA?$CJ?$AA?$DN?$AA?$CF@| DCB "-"
	DCB	0x0, "P", 0x0, "M", 0x0, "E", 0x0, "x", 0x0, "t", 0x0, "_"
	DCB	0x0, "P", 0x0, "M", 0x0, "A", 0x0, "f", 0x0, "t", 0x0, "e"
	DCB	0x0, "r", 0x0, "N", 0x0, "e", 0x0, "w", 0x0, "S", 0x0, "y"
	DCB	0x0, "s", 0x0, "t", 0x0, "e", 0x0, "m", 0x0, "S", 0x0, "t"
	DCB	0x0, "a", 0x0, "t", 0x0, "e", 0x0, "(", 0x0, ")", 0x0, "="
	DCB	0x0, "%", 0x0, "d", 0x0, 0x0, 0x0	; `string'

  00000			 AREA	 |.rdata|, DATA, READONLY
|??_C@_1KK@ILFJHBO@?$AA?$CL?$AAP?$AAM?$AAE?$AAx?$AAt?$AA_?$AAP?$AAM?$AAA?$AAf?$AAt?$AAe?$AAr?$AAN?$AAe?$AAw?$AAS?$AAy?$AAs?$AAt?$AAe?$AAm?$AAS?$AAt?$AAa?$AAt?$AAe?$AA?$CI?$AAd?$AAw?$AAE@| DCB "+"
	DCB	0x0, "P", 0x0, "M", 0x0, "E", 0x0, "x", 0x0, "t", 0x0, "_"
	DCB	0x0, "P", 0x0, "M", 0x0, "A", 0x0, "f", 0x0, "t", 0x0, "e"
	DCB	0x0, "r", 0x0, "N", 0x0, "e", 0x0, "w", 0x0, "S", 0x0, "y"
	DCB	0x0, "s", 0x0, "t", 0x0, "e", 0x0, "m", 0x0, "S", 0x0, "t"
	DCB	0x0, "a", 0x0, "t", 0x0, "e", 0x0, "(", 0x0, "d", 0x0, "w"
	DCB	0x0, "E", 0x0, "x", 0x0, "t", 0x0, "C", 0x0, "o", 0x0, "n"
	DCB	0x0, "t", 0x0, "e", 0x0, "x", 0x0, "t", 0x0, "=", 0x0, "0"
	DCB	0x0, "x", 0x0, "%", 0x0, "0", 0x0, "8", 0x0, "X", 0x0, ","
	DCB	0x0, " ", 0x0, "l", 0x0, "p", 0x0, "N", 0x0, "e", 0x0, "w"
	DCB	0x0, "S", 0x0, "t", 0x0, "a", 0x0, "t", 0x0, "e", 0x0, "N"
	DCB	0x0, "a", 0x0, "m", 0x0, "e", 0x0, "=", 0x0, "%", 0x0, "d"
	DCB	0x0, ",", 0x0, " ", 0x0, "d", 0x0, "w", 0x0, "F", 0x0, "l"
	DCB	0x0, "a", 0x0, "g", 0x0, "s", 0x0, "=", 0x0, "0", 0x0, "x"
	DCB	0x0, "%", 0x0, "0", 0x0, "8", 0x0, "X", 0x0, ")", 0x0, 0x0
	DCB	0x0					; `string'
; Function compile flags: /Odtp

  00524			 AREA	 |.text|, CODE, ARM

  00524		 |?PMExt_PMAfterNewSystemState@@YAKKPBGK@Z| PROC ; PMExt_PMAfterNewSystemState

; 224  : {

  00524		 |$LN9@PMExt_PMAf|
  00524	e1a0c00d	 mov         r12, sp
  00528	e92d0007	 stmdb       sp!, {r0 - r2}
  0052c	e92d5000	 stmdb       sp!, {r12, lr}
  00530	e24dd014	 sub         sp, sp, #0x14
  00534		 |$M33650|

; 225  :     DWORD rc;
; 226  :     RETAILMSG(ZONE_FUNCTION, (L"+PMExt_PMAfterNewSystemState(dwExtContext=0x%08X, "
; 227  :         L"lpNewStateName=%d, dwFlags=0x%08X)", 
; 228  :         dwExtContext, lpNewStateName, dwFlags)
; 229  :         );

  00534	e59f3098	 ldr         r3, [pc, #0x98]
  00538	e5933440	 ldr         r3, [r3, #0x440]
  0053c	e3130004	 tst         r3, #4
  00540	0a000007	 beq         |$LN3@PMExt_PMAf|
  00544	e59d3024	 ldr         r3, [sp, #0x24]
  00548	e59d2020	 ldr         r2, [sp, #0x20]
  0054c	e59d101c	 ldr         r1, [sp, #0x1C]
  00550	e59f0080	 ldr         r0, [pc, #0x80]
  00554	eb000000	 bl          NKDbgPrintfW
  00558	e3a03001	 mov         r3, #1
  0055c	e58d3008	 str         r3, [sp, #8]
  00560	ea000001	 b           |$LN4@PMExt_PMAf|
  00564		 |$LN3@PMExt_PMAf|
  00564	e3a03000	 mov         r3, #0
  00568	e58d3008	 str         r3, [sp, #8]
  0056c		 |$LN4@PMExt_PMAf|

; 230  : 
; 231  :     rc = PostSystemStateChange(dwExtContext, lpNewStateName, dwFlags);

  0056c	e59d2024	 ldr         r2, [sp, #0x24]
  00570	e59d1020	 ldr         r1, [sp, #0x20]
  00574	e59d001c	 ldr         r0, [sp, #0x1C]
  00578	eb000000	 bl          |?PostSystemStateChange@@YAKKPBGK@Z|
  0057c	e58d000c	 str         r0, [sp, #0xC]
  00580	e59d300c	 ldr         r3, [sp, #0xC]
  00584	e58d3000	 str         r3, [sp]

; 232  :     
; 233  :     RETAILMSG(ZONE_FUNCTION, (L"-PMExt_PMAfterNewSystemState()=%d", rc));

  00588	e59f3044	 ldr         r3, [pc, #0x44]
  0058c	e5933440	 ldr         r3, [r3, #0x440]
  00590	e3130004	 tst         r3, #4
  00594	0a000005	 beq         |$LN5@PMExt_PMAf|
  00598	e59d1000	 ldr         r1, [sp]
  0059c	e59f002c	 ldr         r0, [pc, #0x2C]
  005a0	eb000000	 bl          NKDbgPrintfW
  005a4	e3a03001	 mov         r3, #1
  005a8	e58d3010	 str         r3, [sp, #0x10]
  005ac	ea000001	 b           |$LN6@PMExt_PMAf|
  005b0		 |$LN5@PMExt_PMAf|
  005b0	e3a03000	 mov         r3, #0
  005b4	e58d3010	 str         r3, [sp, #0x10]
  005b8		 |$LN6@PMExt_PMAf|

; 234  :     return rc;

  005b8	e59d3000	 ldr         r3, [sp]
  005bc	e58d3004	 str         r3, [sp, #4]

; 235  : }

  005c0	e59d0004	 ldr         r0, [sp, #4]
  005c4	e28dd014	 add         sp, sp, #0x14
  005c8	e89d6000	 ldmia       sp, {sp, lr}
  005cc	e12fff1e	 bx          lr
  005d0		 |$LN10@PMExt_PMAf|
  005d0		 |$LN11@PMExt_PMAf|
  005d0	00000000	 DCD         |??_C@_1EE@FNNDMKCF@?$AA?9?$AAP?$AAM?$AAE?$AAx?$AAt?$AA_?$AAP?$AAM?$AAA?$AAf?$AAt?$AAe?$AAr?$AAN?$AAe?$AAw?$AAS?$AAy?$AAs?$AAt?$AAe?$AAm?$AAS?$AAt?$AAa?$AAt?$AAe?$AA?$CI?$AA?$CJ?$AA?$DN?$AA?$CF@|
  005d4		 |$LN12@PMExt_PMAf|
  005d4	00000000	 DCD         |dpCurSettings|
  005d8		 |$LN13@PMExt_PMAf|
  005d8	00000000	 DCD         |??_C@_1KK@ILFJHBO@?$AA?$CL?$AAP?$AAM?$AAE?$AAx?$AAt?$AA_?$AAP?$AAM?$AAA?$AAf?$AAt?$AAe?$AAr?$AAN?$AAe?$AAw?$AAS?$AAy?$AAs?$AAt?$AAe?$AAm?$AAS?$AAt?$AAa?$AAt?$AAe?$AA?$CI?$AAd?$AAw?$AAE@|
  005dc		 |$M33651|

			 ENDP  ; |?PMExt_PMAfterNewSystemState@@YAKKPBGK@Z|, PMExt_PMAfterNewSystemState

	EXPORT	|DllEntry|
	IMPORT	|DisableThreadLibraryCalls|
	IMPORT	|RegisterDbgZones|

  00038			 AREA	 |.pdata|, PDATA
|$T33663| DCD	|$LN6@DllEntry|
	DCD	0x40001304
; Function compile flags: /Odtp

  005dc			 AREA	 |.text|, CODE, ARM

  005dc		 |DllEntry| PROC

; 250  : {

  005dc		 |$LN6@DllEntry|
  005dc	e1a0c00d	 mov         r12, sp
  005e0	e92d0007	 stmdb       sp!, {r0 - r2}
  005e4	e92d5000	 stmdb       sp!, {r12, lr}
  005e8	e24dd004	 sub         sp, sp, #4
  005ec		 |$M33660|

; 251  :     UNREFERENCED_PARAMETER(pvReserved);
; 252  :     if (reason == DLL_PROCESS_ATTACH)

  005ec	e59d3010	 ldr         r3, [sp, #0x10]
  005f0	e3530001	 cmp         r3, #1
  005f4	1a000004	 bne         |$LN1@DllEntry|

; 253  :         {
; 254  :         RETAILREGISTERZONES((HMODULE)hInstance);

  005f8	e59f1024	 ldr         r1, [pc, #0x24]
  005fc	e59d000c	 ldr         r0, [sp, #0xC]
  00600	eb000000	 bl          RegisterDbgZones

; 255  :         DisableThreadLibraryCalls((HMODULE)hInstance);

  00604	e59d000c	 ldr         r0, [sp, #0xC]
  00608	eb000000	 bl          DisableThreadLibraryCalls
  0060c		 |$LN1@DllEntry|

; 256  :         }
; 257  :     return TRUE;

  0060c	e3a03001	 mov         r3, #1
  00610	e58d3000	 str         r3, [sp]

; 258  : }

  00614	e59d0000	 ldr         r0, [sp]
  00618	e28dd004	 add         sp, sp, #4
  0061c	e89d6000	 ldmia       sp, {sp, lr}
  00620	e12fff1e	 bx          lr
  00624		 |$LN7@DllEntry|
  00624		 |$LN8@DllEntry|
  00624	00000000	 DCD         |dpCurSettings|
  00628		 |$M33661|

			 ENDP  ; |DllEntry|

	END
