; Listing generated by Microsoft (R) Optimizing Compiler Version 14.01.60511.01 

	TTL	C:\WINCE600\PLATFORM\COMMON\SRC\SOC\PXA27X_MS_V1\USBFN\bul_usbfn.cpp
	CODE32

  00000			 AREA	 |.drectve|, DRECTVE
	DCB	"-defaultlib:LIBCMT "
	DCB	"-defaultlib:OLDNAMES "

	EXPORT	|dpCurSettings| [ DATA ]

  00000			 AREA	 |.data|, DATA
|dpCurSettings| DCB "U", 0x0, "S", 0x0, "B", 0x0, "F", 0x0, "N", 0x0, 0x0
	DCB	0x0
	%	52
	DCB	"E", 0x0, "r", 0x0, "r", 0x0, "o", 0x0, "r", 0x0, 0x0, 0x0
	%	52
	DCB	"W", 0x0, "a", 0x0, "r", 0x0, "n", 0x0, "i", 0x0, "n", 0x0
	DCB	"g", 0x0, 0x0, 0x0
	%	48
	DCB	"I", 0x0, "n", 0x0, "i", 0x0, "t", 0x0, 0x0, 0x0
	%	54
	DCB	"T", 0x0, "r", 0x0, "a", 0x0, "n", 0x0, "s", 0x0, "f", 0x0
	DCB	"e", 0x0, "r", 0x0, 0x0, 0x0
	%	46
	DCB	"P", 0x0, "i", 0x0, "p", 0x0, "e", 0x0, 0x0, 0x0
	%	54
	DCB	"S", 0x0, "e", 0x0, "n", 0x0, "d", 0x0, 0x0, 0x0
	%	54
	DCB	"R", 0x0, "e", 0x0, "c", 0x0, "e", 0x0, "i", 0x0, "v", 0x0
	DCB	"e", 0x0, 0x0, 0x0
	%	48
	DCB	"U", 0x0, "S", 0x0, "B", 0x0, " ", 0x0, "E", 0x0, "v", 0x0
	DCB	"e", 0x0, "n", 0x0, "t", 0x0, "s", 0x0, 0x0, 0x0
	%	42
	DCB	0x0, 0x0
	%	62
	DCB	0x0, 0x0
	%	62
	DCB	0x0, 0x0
	%	62
	DCB	0x0, 0x0
	%	62
	DCB	"F", 0x0, "u", 0x0, "n", 0x0, "c", 0x0, "t", 0x0, "i", 0x0
	DCB	"o", 0x0, "n", 0x0, 0x0, 0x0
	%	46
	DCB	"C", 0x0, "o", 0x0, "m", 0x0, "m", 0x0, "e", 0x0, "n", 0x0
	DCB	"t", 0x0, "s", 0x0, 0x0, 0x0
	%	46
	DCB	0x0, 0x0
	%	62
	DCB	0x0, 0x0
	%	62
	DCD	0x7
	EXPORT	|??_C@_1BA@PLOOFDPK@?$AA?$CF?$AAs?$AA?5?$AA?9?$AA?9?$AA?$AN?$AA?6?$AA?$AA@| [ DATA ] ; `string'
	EXPORT	|?Unlock@CLockObject@@QAAXXZ|		; CLockObject::Unlock
	EXPORT	|?Lock@CLockObject@@QAAXXZ|		; CLockObject::Lock
	EXPORT	|??_C@_1BA@DAJPCKDK@?$AA?$CF?$AAs?$AA?5?$AA?$CL?$AA?$CL?$AA?$AN?$AA?6?$AA?$AA@| [ DATA ] ; `string'
	EXPORT	|??_C@_1EE@MFOJFFAN@?$AAb?$AAu?$AAl?$AAv?$AAe?$AAr?$AAd?$AAe?$AA_?$AAu?$AAs?$AAb?$AAf?$AAn?$AA?$CB?$AAB?$AAu?$AAl?$AAE?$AAn?$AAd?$AAp?$AAo?$AAi?$AAn?$AAt?$AA?3?$AA?3?$AAI?$AAn?$AAi?$AAt@| [ DATA ] ; `string'
	EXPORT	|?Init@BulEndpoint@@UAAHPAU_USB_ENDPOINT_DESCRIPTOR@@EEE@Z| ; BulEndpoint::Init
	IMPORT	|NKDbgPrintfW|
	IMPORT	|memcpy|

  00000			 AREA	 |.pdata|, PDATA
|$T38093| DCD	|$LN14@Init|
	DCD	0x40008404
; File c:\wince600\platform\common\src\soc\pxa27x_ms_v1\usbfn\bul_usbfn.cpp

  00000			 AREA	 |.rdata|, DATA, READONLY
|??_C@_1BA@PLOOFDPK@?$AA?$CF?$AAs?$AA?5?$AA?9?$AA?9?$AA?$AN?$AA?6?$AA?$AA@| DCB "%"
	DCB	0x0, "s", 0x0, " ", 0x0, "-", 0x0, "-", 0x0, 0xd, 0x0, 0xa
	DCB	0x0, 0x0, 0x0				; `string'

  00000			 AREA	 |.rdata|, DATA, READONLY
|??_C@_1BA@DAJPCKDK@?$AA?$CF?$AAs?$AA?5?$AA?$CL?$AA?$CL?$AA?$AN?$AA?6?$AA?$AA@| DCB "%"
	DCB	0x0, "s", 0x0, " ", 0x0, "+", 0x0, "+", 0x0, 0xd, 0x0, 0xa
	DCB	0x0, 0x0, 0x0				; `string'

  00000			 AREA	 |.rdata|, DATA, READONLY
|??_C@_1EE@MFOJFFAN@?$AAb?$AAu?$AAl?$AAv?$AAe?$AAr?$AAd?$AAe?$AA_?$AAu?$AAs?$AAb?$AAf?$AAn?$AA?$CB?$AAB?$AAu?$AAl?$AAE?$AAn?$AAd?$AAp?$AAo?$AAi?$AAn?$AAt?$AA?3?$AA?3?$AAI?$AAn?$AAi?$AAt@| DCB "b"
	DCB	0x0, "u", 0x0, "l", 0x0, "v", 0x0, "e", 0x0, "r", 0x0, "d"
	DCB	0x0, "e", 0x0, "_", 0x0, "u", 0x0, "s", 0x0, "b", 0x0, "f"
	DCB	0x0, "n", 0x0, "!", 0x0, "B", 0x0, "u", 0x0, "l", 0x0, "E"
	DCB	0x0, "n", 0x0, "d", 0x0, "p", 0x0, "o", 0x0, "i", 0x0, "n"
	DCB	0x0, "t", 0x0, ":", 0x0, ":", 0x0, "I", 0x0, "n", 0x0, "i"
	DCB	0x0, "t", 0x0, ":", 0x0, 0x0, 0x0	; `string'
; Function compile flags: /Odtp

  00000			 AREA	 |.text|, CODE, ARM

  00000		 |?Init@BulEndpoint@@UAAHPAU_USB_ENDPOINT_DESCRIPTOR@@EEE@Z| PROC ; BulEndpoint::Init

; 40   : {

  00000		 |$LN14@Init|
  00000	e1a0c00d	 mov         r12, sp
  00004	e92d000f	 stmdb       sp!, {r0 - r3}
  00008	e92d5000	 stmdb       sp!, {r12, lr}
  0000c	e24dd018	 sub         sp, sp, #0x18
  00010		 |$M38090|

; 41   :     SETFNAME();

  00010	e59f31f4	 ldr         r3, [pc, #0x1F4]
  00014	e58d3004	 str         r3, [sp, #4]

; 42   :     FUNCTION_ENTER_MSG();

  00018	e59f31e4	 ldr         r3, [pc, #0x1E4]
  0001c	e5933440	 ldr         r3, [r3, #0x440]
  00020	e3130a01	 tst         r3, #1, 20
  00024	0a00000d	 beq         |$LN6@Init|
  00028	e59f31d4	 ldr         r3, [pc, #0x1D4]
  0002c	e5933440	 ldr         r3, [r3, #0x440]
  00030	e3130801	 tst         r3, #1, 16
  00034	0a000003	 beq         |$LN4@Init|
  00038	e59d1004	 ldr         r1, [sp, #4]
  0003c	e59f01c4	 ldr         r0, [pc, #0x1C4]
  00040	eb000000	 bl          CeLogMsg
  00044	ea000002	 b           |$LN5@Init|
  00048		 |$LN4@Init|
  00048	e59d1004	 ldr         r1, [sp, #4]
  0004c	e59f01b4	 ldr         r0, [pc, #0x1B4]
  00050	eb000000	 bl          NKDbgPrintfW
  00054		 |$LN5@Init|
  00054	e3a03001	 mov         r3, #1
  00058	e58d300c	 str         r3, [sp, #0xC]
  0005c	ea000001	 b           |$LN7@Init|
  00060		 |$LN6@Init|
  00060	e3a03000	 mov         r3, #0
  00064	e58d300c	 str         r3, [sp, #0xC]
  00068		 |$LN7@Init|

; 43   :     BOOL bReturn = FALSE;

  00068	e3a03000	 mov         r3, #0
  0006c	e58d3000	 str         r3, [sp]

; 44   :     Lock();

  00070	e59d3020	 ldr         r3, [sp, #0x20]
  00074	e2830008	 add         r0, r3, #8
  00078	eb000000	 bl          |?Lock@CLockObject@@QAAXXZ|

; 45   :     m_bConfigurationValue= bConfigurationValue;

  0007c	e59d3020	 ldr         r3, [sp, #0x20]
  00080	e283202b	 add         r2, r3, #0x2B
  00084	e5dd3028	 ldrb        r3, [sp, #0x28]
  00088	e5c23000	 strb        r3, [r2]

; 46   :     m_bInterfaceNumber = bInterfaceNumber;

  0008c	e59d3020	 ldr         r3, [sp, #0x20]
  00090	e283202c	 add         r2, r3, #0x2C
  00094	e5dd302c	 ldrb        r3, [sp, #0x2C]
  00098	e5c23000	 strb        r3, [r2]

; 47   :     m_bAlternateSetting =bAlternateSetting;

  0009c	e59d3020	 ldr         r3, [sp, #0x20]
  000a0	e283202d	 add         r2, r3, #0x2D
  000a4	e5dd3030	 ldrb        r3, [sp, #0x30]
  000a8	e5c23000	 strb        r3, [r2]

; 48   : #ifndef BULVERDE_MULTI_INTEFACE_FIXED
; 49   :     m_bInterfaceNumber = 0;

  000ac	e59d3020	 ldr         r3, [sp, #0x20]
  000b0	e283202c	 add         r2, r3, #0x2C
  000b4	e3a03000	 mov         r3, #0
  000b8	e5c23000	 strb        r3, [r2]

; 50   :     m_bAlternateSetting =0;

  000bc	e59d3020	 ldr         r3, [sp, #0x20]
  000c0	e283202d	 add         r2, r3, #0x2D
  000c4	e3a03000	 mov         r3, #0
  000c8	e5c23000	 strb        r3, [r2]

; 51   : #endif
; 52   :     m_fZeroPacket = FALSE;

  000cc	e59d3020	 ldr         r3, [sp, #0x20]
  000d0	e2832038	 add         r2, r3, #0x38
  000d4	e3a03000	 mov         r3, #0
  000d8	e5823000	 str         r3, [r2]

; 53   :     m_fStalled = FALSE;

  000dc	e59d3020	 ldr         r3, [sp, #0x20]
  000e0	e283203c	 add         r2, r3, #0x3C
  000e4	e3a03000	 mov         r3, #0
  000e8	e5823000	 str         r3, [r2]

; 54   :     // Change address according
; 55   :     
; 56   :     if ( pEndpointDesc && m_pUsbDevice!=NULL && m_dwEndpointIndex < MAX_ENDPOINT_NUMBER) {

  000ec	e59d3024	 ldr         r3, [sp, #0x24]
  000f0	e3530000	 cmp         r3, #0
  000f4	0a000024	 beq         |$LN1@Init|
  000f8	e59d3020	 ldr         r3, [sp, #0x20]
  000fc	e283301c	 add         r3, r3, #0x1C
  00100	e5933000	 ldr         r3, [r3]
  00104	e3530000	 cmp         r3, #0
  00108	0a00001f	 beq         |$LN1@Init|
  0010c	e59d3020	 ldr         r3, [sp, #0x20]
  00110	e2833020	 add         r3, r3, #0x20
  00114	e5933000	 ldr         r3, [r3]
  00118	e3530018	 cmp         r3, #0x18
  0011c	2a00001a	 bcs         |$LN1@Init|

; 57   :         pEndpointDesc->bEndpointAddress = (UCHAR)((pEndpointDesc->bEndpointAddress & 0x80) | m_dwEndpointIndex);

  00120	e59d3024	 ldr         r3, [sp, #0x24]
  00124	e2833002	 add         r3, r3, #2
  00128	e5d33000	 ldrb        r3, [r3]
  0012c	e2032080	 and         r2, r3, #0x80
  00130	e59d3020	 ldr         r3, [sp, #0x20]
  00134	e2833020	 add         r3, r3, #0x20
  00138	e5933000	 ldr         r3, [r3]
  0013c	e1823003	 orr         r3, r2, r3
  00140	e20320ff	 and         r2, r3, #0xFF
  00144	e59d3024	 ldr         r3, [sp, #0x24]
  00148	e2833002	 add         r3, r3, #2
  0014c	e5c32000	 strb        r2, [r3]

; 58   :         m_epDesc = *pEndpointDesc;

  00150	e59d1024	 ldr         r1, [sp, #0x24]
  00154	e59d3020	 ldr         r3, [sp, #0x20]
  00158	e2830024	 add         r0, r3, #0x24
  0015c	e3a02007	 mov         r2, #7
  00160	eb000000	 bl          memcpy

; 59   :         bReturn = ReInit();

  00164	e59d3020	 ldr         r3, [sp, #0x20]
  00168	e5933000	 ldr         r3, [r3]
  0016c	e2833008	 add         r3, r3, #8
  00170	e59d0020	 ldr         r0, [sp, #0x20]
  00174	e5933000	 ldr         r3, [r3]
  00178	e1a0e00f	 mov         lr, pc
  0017c	e12fff13	 bx          r3
  00180	e58d0010	 str         r0, [sp, #0x10]
  00184	e59d3010	 ldr         r3, [sp, #0x10]
  00188	e58d3000	 str         r3, [sp]
  0018c		 |$LN1@Init|

; 60   :     }
; 61   :     Unlock();

  0018c	e59d3020	 ldr         r3, [sp, #0x20]
  00190	e2830008	 add         r0, r3, #8
  00194	eb000000	 bl          |?Unlock@CLockObject@@QAAXXZ|

; 62   :     FUNCTION_LEAVE_MSG();

  00198	e59f3064	 ldr         r3, [pc, #0x64]
  0019c	e5933440	 ldr         r3, [r3, #0x440]
  001a0	e3130a01	 tst         r3, #1, 20
  001a4	0a00000d	 beq         |$LN10@Init|
  001a8	e59f3054	 ldr         r3, [pc, #0x54]
  001ac	e5933440	 ldr         r3, [r3, #0x440]
  001b0	e3130801	 tst         r3, #1, 16
  001b4	0a000003	 beq         |$LN8@Init|
  001b8	e59d1004	 ldr         r1, [sp, #4]
  001bc	e59f003c	 ldr         r0, [pc, #0x3C]
  001c0	eb000000	 bl          CeLogMsg
  001c4	ea000002	 b           |$LN9@Init|
  001c8		 |$LN8@Init|
  001c8	e59d1004	 ldr         r1, [sp, #4]
  001cc	e59f002c	 ldr         r0, [pc, #0x2C]
  001d0	eb000000	 bl          NKDbgPrintfW
  001d4		 |$LN9@Init|
  001d4	e3a03001	 mov         r3, #1
  001d8	e58d3014	 str         r3, [sp, #0x14]
  001dc	ea000001	 b           |$LN11@Init|
  001e0		 |$LN10@Init|
  001e0	e3a03000	 mov         r3, #0
  001e4	e58d3014	 str         r3, [sp, #0x14]
  001e8		 |$LN11@Init|

; 63   :     return bReturn;

  001e8	e59d3000	 ldr         r3, [sp]
  001ec	e58d3008	 str         r3, [sp, #8]

; 64   : }

  001f0	e59d0008	 ldr         r0, [sp, #8]
  001f4	e28dd018	 add         sp, sp, #0x18
  001f8	e89d6000	 ldmia       sp, {sp, lr}
  001fc	e12fff1e	 bx          lr
  00200		 |$LN15@Init|
  00200		 |$LN16@Init|
  00200	00000000	 DCD         |??_C@_1BA@PLOOFDPK@?$AA?$CF?$AAs?$AA?5?$AA?9?$AA?9?$AA?$AN?$AA?6?$AA?$AA@|
  00204		 |$LN17@Init|
  00204	00000000	 DCD         |dpCurSettings|
  00208		 |$LN18@Init|
  00208	00000000	 DCD         |??_C@_1BA@DAJPCKDK@?$AA?$CF?$AAs?$AA?5?$AA?$CL?$AA?$CL?$AA?$AN?$AA?6?$AA?$AA@|
  0020c		 |$LN19@Init|
  0020c	00000000	 DCD         |??_C@_1EE@MFOJFFAN@?$AAb?$AAu?$AAl?$AAv?$AAe?$AAr?$AAd?$AAe?$AA_?$AAu?$AAs?$AAb?$AAf?$AAn?$AA?$CB?$AAB?$AAu?$AAl?$AAE?$AAn?$AAd?$AAp?$AAo?$AAi?$AAn?$AAt?$AA?3?$AA?3?$AAI?$AAn?$AAi?$AAt@|
  00210		 |$M38091|

			 ENDP  ; |?Init@BulEndpoint@@UAAHPAU_USB_ENDPOINT_DESCRIPTOR@@EEE@Z|, BulEndpoint::Init

	IMPORT	|EnterCriticalSection|
; File c:\wince600\public\common\oak\inc\csync.h

  00000			 AREA	 |.pdata|, PDATA
|$T38103| DCD	|$LN5@Lock|
	DCD	0x40000703
; Function compile flags: /Odtp

  00000			 AREA	 |.text|, CODE, ARM

  00000		 |?Lock@CLockObject@@QAAXXZ| PROC	; CLockObject::Lock

; 45   :     {

  00000		 |$LN5@Lock|
  00000	e1a0c00d	 mov         r12, sp
  00004	e92d0001	 stmdb       sp!, {r0}
  00008	e92d5000	 stmdb       sp!, {r12, lr}
  0000c		 |$M38100|

; 46   :         EnterCriticalSection( &m_CSection );

  0000c	e59d0008	 ldr         r0, [sp, #8]
  00010	eb000000	 bl          EnterCriticalSection

; 47   :     };

  00014	e89d6000	 ldmia       sp, {sp, lr}
  00018	e12fff1e	 bx          lr
  0001c		 |$M38101|

			 ENDP  ; |?Lock@CLockObject@@QAAXXZ|, CLockObject::Lock

	IMPORT	|LeaveCriticalSection|

  00000			 AREA	 |.pdata|, PDATA
|$T38110| DCD	|$LN5@Unlock|
	DCD	0x40000703
; Function compile flags: /Odtp

  00000			 AREA	 |.text|, CODE, ARM

  00000		 |?Unlock@CLockObject@@QAAXXZ| PROC	; CLockObject::Unlock

; 49   :     {

  00000		 |$LN5@Unlock|
  00000	e1a0c00d	 mov         r12, sp
  00004	e92d0001	 stmdb       sp!, {r0}
  00008	e92d5000	 stmdb       sp!, {r12, lr}
  0000c		 |$M38107|

; 50   :         LeaveCriticalSection( &m_CSection );

  0000c	e59d0008	 ldr         r0, [sp, #8]
  00010	eb000000	 bl          LeaveCriticalSection

; 51   :     };

  00014	e89d6000	 ldmia       sp, {sp, lr}
  00018	e12fff1e	 bx          lr
  0001c		 |$M38108|

			 ENDP  ; |?Unlock@CLockObject@@QAAXXZ|, CLockObject::Unlock

	EXPORT	|__$ArrayPad$| [ DATA ]
	IMPORT	|CeLogData|
	IMPORT	|StringCchLengthW|
	IMPORT	|StringCchVPrintfW|
	IMPORT	|__security_cookie|
	IMPORT	|__GSHandlerCheck|
	IMPORT	|__security_check_cookie|

  00008			 AREA	 |.pdata|, PDATA
|$T38126| DCD	|$LN7@CeLogMsg|
	DCD	0xc0003704

  00000			 AREA	 |.xdata|, DATA
|$T38122| DCD	0xffffffcc
; Function compile flags: /Odtp
; File c:\wince600\public\common\sdk\inc\celog.h

  00210			 AREA	 |.text|, CODE, ARM

  00210	00000000	 DCD         |__GSHandlerCheck|
  00214	00000000	 DCD         |$T38122|

  00218		 |CeLogMsg| PROC

; 1020 : {

  00218		 |$LN7@CeLogMsg|
  00218	e1a0c00d	 mov         r12, sp
  0021c	e92d000f	 stmdb       sp!, {r0 - r3}
  00220	e92d5000	 stmdb       sp!, {r12, lr}
  00224	e24ddd09	 sub         sp, sp, #9, 26
  00228		 |$M38123|
  00228	e59f30c0	 ldr         r3, [pc, #0xC0]
  0022c	e5933000	 ldr         r3, [r3]
  00230	e58d3224	 str         r3, [sp, #0x224]

; 1021 :     va_list arglist;
; 1022 :     WCHAR   szTemp[MAX_PATH];
; 1023 :     size_t  cchLen;
; 1024 :     HRESULT hr;
; 1025 : 
; 1026 :     // Compose a single string using the input args
; 1027 :     va_start(arglist, szFormat);

  00234	e28d3f92	 add         r3, sp, #0x92, 30
  00238	e2833004	 add         r3, r3, #4
  0023c	e58d3010	 str         r3, [sp, #0x10]

; 1028 :     hr = StringCchVPrintfW(szTemp, MAX_PATH, szFormat, arglist);

  00240	e59d3010	 ldr         r3, [sp, #0x10]
  00244	e59d2248	 ldr         r2, [sp, #0x248]
  00248	e3a01f41	 mov         r1, #0x41, 30
  0024c	e28d0014	 add         r0, sp, #0x14
  00250	eb000000	 bl          StringCchVPrintfW
  00254	e58d0238	 str         r0, [sp, #0x238]
  00258	e59d3238	 ldr         r3, [sp, #0x238]
  0025c	e58d321c	 str         r3, [sp, #0x21C]

; 1029 :     if (SUCCEEDED(hr)) {

  00260	e59d321c	 ldr         r3, [sp, #0x21C]
  00264	e3530000	 cmp         r3, #0
  00268	ba00001b	 blt         |$LN2@CeLogMsg|

; 1030 :         hr = StringCchLengthW(szTemp, MAX_PATH, &cchLen);

  0026c	e28d2e22	 add         r2, sp, #0x22, 28
  00270	e3a01f41	 mov         r1, #0x41, 30
  00274	e28d0014	 add         r0, sp, #0x14
  00278	eb000000	 bl          StringCchLengthW
  0027c	e58d023c	 str         r0, [sp, #0x23C]
  00280	e59d323c	 ldr         r3, [sp, #0x23C]
  00284	e58d321c	 str         r3, [sp, #0x21C]

; 1031 :         if (SUCCEEDED(hr)) {

  00288	e59d321c	 ldr         r3, [sp, #0x21C]
  0028c	e3530000	 cmp         r3, #0
  00290	ba000011	 blt         |$LN1@CeLogMsg|

; 1032 :             CeLogData(TRUE, CELID_RAW_WCHAR, szTemp, (WORD)((cchLen + 1) * sizeof(WCHAR)),
; 1033 :                       0, CELZONE_ALWAYSON, 0, FALSE);

  00294	e3a03000	 mov         r3, #0
  00298	e58d300c	 str         r3, [sp, #0xC]
  0029c	e3a03000	 mov         r3, #0
  002a0	e58d3008	 str         r3, [sp, #8]
  002a4	e3a03101	 mov         r3, #1, 2
  002a8	e58d3004	 str         r3, [sp, #4]
  002ac	e3a03000	 mov         r3, #0
  002b0	e58d3000	 str         r3, [sp]
  002b4	e59d3220	 ldr         r3, [sp, #0x220]
  002b8	e2832001	 add         r2, r3, #1
  002bc	e3a03002	 mov         r3, #2
  002c0	e0030392	 mul         r3, r2, r3
  002c4	e1a03803	 mov         r3, r3, lsl #16
  002c8	e1a03823	 mov         r3, r3, lsr #16
  002cc	e28d2014	 add         r2, sp, #0x14
  002d0	e3a0104a	 mov         r1, #0x4A
  002d4	e3a00001	 mov         r0, #1
  002d8	eb000000	 bl          CeLogData
  002dc		 |$LN1@CeLogMsg|
  002dc		 |$LN2@CeLogMsg|

; 1020 : {

  002dc	e59d0224	 ldr         r0, [sp, #0x224]
  002e0	eb000000	 bl          __security_check_cookie

; 1034 :         }
; 1035 :     }
; 1036 : }

  002e4	e28ddd09	 add         sp, sp, #9, 26
  002e8	e89d6000	 ldmia       sp, {sp, lr}
  002ec	e12fff1e	 bx          lr
  002f0		 |$LN8@CeLogMsg|
  002f0		 |$LN9@CeLogMsg|
  002f0	00000000	 DCD         |__security_cookie|
  002f4		 |$M38124|

			 ENDP  ; |CeLogMsg|

	EXPORT	|??_C@_1DO@GBPHEMNG@?$AA?$CF?$AAs?$AA?$CI?$AA?$CF?$AAd?$AA?$CJ?$AA?5?$AAu?$AAd?$AAc?$AAc?$AAr?$AAa?$AAx?$AA?4?$AAu?$AAl?$AAV?$AAa?$AAl?$AAu?$AAe?$AA?$DN?$AA?5?$AA0?$AAx?$AA?$CF?$AAx?$AA?$AN?$AA?6?$AA?$AA@| [ DATA ] ; `string'
	EXPORT	|?WriteConfigurationRegister@BulEndpoint@@QAAXK@Z| ; BulEndpoint::WriteConfigurationRegister
	EXPORT	|??_C@_1DM@PLOFKHCM@?$AA?$CF?$AAs?$AA?5?$AA?$CI?$AA?$CF?$AAd?$AA?$CJ?$AAu?$AAd?$AAc?$AAc?$AAs?$AAr?$AA?4?$AAu?$AAl?$AAV?$AAa?$AAl?$AAu?$AAe?$AA?$DN?$AA?5?$AA0?$AAx?$AA?$CF?$AAx?$AA?$AN?$AA?6?$AA?$AA@| [ DATA ] ; `string'
	EXPORT	|?WriteControlStatusRegister@BulEndpoint@@QAAXK@Z| ; BulEndpoint::WriteControlStatusRegister
	EXPORT	|??_C@_1EI@PDFKANDM@?$AAb?$AAu?$AAl?$AAv?$AAe?$AAr?$AAd?$AAe?$AA_?$AAu?$AAs?$AAb?$AAf?$AAn?$AA?$CB?$AAB?$AAu?$AAl?$AAE?$AAn?$AAd?$AAp?$AAo?$AAi?$AAn?$AAt?$AA?3?$AA?3?$AAR?$AAe?$AAI?$AAn@| [ DATA ] ; `string'
	EXPORT	|?ReInit@BulEndpoint@@UAAHXZ|		; BulEndpoint::ReInit

  00010			 AREA	 |.pdata|, PDATA
|$T38152| DCD	|$LN25@ReInit|
	DCD	0x40010104
; File c:\wince600\platform\common\src\soc\pxa27x_ms_v1\usbfn\bul_usbfn.cpp

  00000			 AREA	 |.rdata|, DATA, READONLY
|??_C@_1DO@GBPHEMNG@?$AA?$CF?$AAs?$AA?$CI?$AA?$CF?$AAd?$AA?$CJ?$AA?5?$AAu?$AAd?$AAc?$AAc?$AAr?$AAa?$AAx?$AA?4?$AAu?$AAl?$AAV?$AAa?$AAl?$AAu?$AAe?$AA?$DN?$AA?5?$AA0?$AAx?$AA?$CF?$AAx?$AA?$AN?$AA?6?$AA?$AA@| DCB "%"
	DCB	0x0, "s", 0x0, "(", 0x0, "%", 0x0, "d", 0x0, ")", 0x0, " "
	DCB	0x0, "u", 0x0, "d", 0x0, "c", 0x0, "c", 0x0, "r", 0x0, "a"
	DCB	0x0, "x", 0x0, ".", 0x0, "u", 0x0, "l", 0x0, "V", 0x0, "a"
	DCB	0x0, "l", 0x0, "u", 0x0, "e", 0x0, "=", 0x0, " ", 0x0, "0"
	DCB	0x0, "x", 0x0, "%", 0x0, "x", 0x0, 0xd, 0x0, 0xa, 0x0, 0x0
	DCB	0x0					; `string'

  00000			 AREA	 |.rdata|, DATA, READONLY
|??_C@_1DM@PLOFKHCM@?$AA?$CF?$AAs?$AA?5?$AA?$CI?$AA?$CF?$AAd?$AA?$CJ?$AAu?$AAd?$AAc?$AAc?$AAs?$AAr?$AA?4?$AAu?$AAl?$AAV?$AAa?$AAl?$AAu?$AAe?$AA?$DN?$AA?5?$AA0?$AAx?$AA?$CF?$AAx?$AA?$AN?$AA?6?$AA?$AA@| DCB "%"
	DCB	0x0, "s", 0x0, " ", 0x0, "(", 0x0, "%", 0x0, "d", 0x0, ")"
	DCB	0x0, "u", 0x0, "d", 0x0, "c", 0x0, "c", 0x0, "s", 0x0, "r"
	DCB	0x0, ".", 0x0, "u", 0x0, "l", 0x0, "V", 0x0, "a", 0x0, "l"
	DCB	0x0, "u", 0x0, "e", 0x0, "=", 0x0, " ", 0x0, "0", 0x0, "x"
	DCB	0x0, "%", 0x0, "x", 0x0, 0xd, 0x0, 0xa, 0x0, 0x0, 0x0 ; `string'

  00000			 AREA	 |.rdata|, DATA, READONLY
|??_C@_1EI@PDFKANDM@?$AAb?$AAu?$AAl?$AAv?$AAe?$AAr?$AAd?$AAe?$AA_?$AAu?$AAs?$AAb?$AAf?$AAn?$AA?$CB?$AAB?$AAu?$AAl?$AAE?$AAn?$AAd?$AAp?$AAo?$AAi?$AAn?$AAt?$AA?3?$AA?3?$AAR?$AAe?$AAI?$AAn@| DCB "b"
	DCB	0x0, "u", 0x0, "l", 0x0, "v", 0x0, "e", 0x0, "r", 0x0, "d"
	DCB	0x0, "e", 0x0, "_", 0x0, "u", 0x0, "s", 0x0, "b", 0x0, "f"
	DCB	0x0, "n", 0x0, "!", 0x0, "B", 0x0, "u", 0x0, "l", 0x0, "E"
	DCB	0x0, "n", 0x0, "d", 0x0, "p", 0x0, "o", 0x0, "i", 0x0, "n"
	DCB	0x0, "t", 0x0, ":", 0x0, ":", 0x0, "R", 0x0, "e", 0x0, "I"
	DCB	0x0, "n", 0x0, "i", 0x0, "t", 0x0, ":", 0x0, 0x0, 0x0 ; `string'
; Function compile flags: /Odtp

  002f4			 AREA	 |.text|, CODE, ARM

  002f4		 |?ReInit@BulEndpoint@@UAAHXZ| PROC	; BulEndpoint::ReInit

; 66   : {

  002f4		 |$LN25@ReInit|
  002f4	e1a0c00d	 mov         r12, sp
  002f8	e92d0001	 stmdb       sp!, {r0}
  002fc	e92d5000	 stmdb       sp!, {r12, lr}
  00300	e24dd028	 sub         sp, sp, #0x28
  00304		 |$M38149|

; 67   :     SETFNAME();

  00304	e59f33e8	 ldr         r3, [pc, #0x3E8]
  00308	e58d3004	 str         r3, [sp, #4]

; 68   :     FUNCTION_ENTER_MSG();

  0030c	e59f33d0	 ldr         r3, [pc, #0x3D0]
  00310	e5933440	 ldr         r3, [r3, #0x440]
  00314	e3130a01	 tst         r3, #1, 20
  00318	0a00000d	 beq         |$LN7@ReInit|
  0031c	e59f33c0	 ldr         r3, [pc, #0x3C0]
  00320	e5933440	 ldr         r3, [r3, #0x440]
  00324	e3130801	 tst         r3, #1, 16
  00328	0a000003	 beq         |$LN5@ReInit|
  0032c	e59d1004	 ldr         r1, [sp, #4]
  00330	e59f03b8	 ldr         r0, [pc, #0x3B8]
  00334	eb000000	 bl          CeLogMsg
  00338	ea000002	 b           |$LN6@ReInit|
  0033c		 |$LN5@ReInit|
  0033c	e59d1004	 ldr         r1, [sp, #4]
  00340	e59f03a8	 ldr         r0, [pc, #0x3A8]
  00344	eb000000	 bl          NKDbgPrintfW
  00348		 |$LN6@ReInit|
  00348	e3a03001	 mov         r3, #1
  0034c	e58d3014	 str         r3, [sp, #0x14]
  00350	ea000001	 b           |$LN8@ReInit|
  00354		 |$LN7@ReInit|
  00354	e3a03000	 mov         r3, #0
  00358	e58d3014	 str         r3, [sp, #0x14]
  0035c		 |$LN8@ReInit|

; 69   :     UDCCSR udccsr;
; 70   :     udccsr.ulValue = 0;

  0035c	e3a03000	 mov         r3, #0
  00360	e58d3008	 str         r3, [sp, #8]

; 71   :     udccsr.epbit.PC = udccsr.epbit.TRN= udccsr.epbit.SST = udccsr.epbit.FEF =1;

  00364	e59d3008	 ldr         r3, [sp, #8]
  00368	e3833c01	 orr         r3, r3, #1, 24
  0036c	e58d3008	 str         r3, [sp, #8]
  00370	e59d3008	 ldr         r3, [sp, #8]
  00374	e3833010	 orr         r3, r3, #0x10
  00378	e58d3008	 str         r3, [sp, #8]
  0037c	e59d3008	 ldr         r3, [sp, #8]
  00380	e3833004	 orr         r3, r3, #4
  00384	e58d3008	 str         r3, [sp, #8]
  00388	e59d3008	 ldr         r3, [sp, #8]
  0038c	e3833002	 orr         r3, r3, #2
  00390	e58d3008	 str         r3, [sp, #8]

; 72   :     WriteControlStatusRegister(udccsr.ulValue);

  00394	e59d1008	 ldr         r1, [sp, #8]
  00398	e59d0030	 ldr         r0, [sp, #0x30]
  0039c	eb000000	 bl          |?WriteControlStatusRegister@BulEndpoint@@QAAXK@Z|

; 73   :     DEBUGMSG(ZONE_INIT, (_T("%s (%d)udccsr.ulValue= 0x%x\r\n"),pszFname,m_dwEndpointIndex,udccsr.ulValue));

  003a0	e59f333c	 ldr         r3, [pc, #0x33C]
  003a4	e5933440	 ldr         r3, [r3, #0x440]
  003a8	e3130004	 tst         r3, #4
  003ac	0a000015	 beq         |$LN11@ReInit|
  003b0	e59f332c	 ldr         r3, [pc, #0x32C]
  003b4	e5933440	 ldr         r3, [r3, #0x440]
  003b8	e3130801	 tst         r3, #1, 16
  003bc	0a000007	 beq         |$LN9@ReInit|
  003c0	e59d3008	 ldr         r3, [sp, #8]
  003c4	e59d2030	 ldr         r2, [sp, #0x30]
  003c8	e2822020	 add         r2, r2, #0x20
  003cc	e5922000	 ldr         r2, [r2]
  003d0	e59d1004	 ldr         r1, [sp, #4]
  003d4	e59f0310	 ldr         r0, [pc, #0x310]
  003d8	eb000000	 bl          CeLogMsg
  003dc	ea000006	 b           |$LN10@ReInit|
  003e0		 |$LN9@ReInit|
  003e0	e59d3008	 ldr         r3, [sp, #8]
  003e4	e59d2030	 ldr         r2, [sp, #0x30]
  003e8	e2822020	 add         r2, r2, #0x20
  003ec	e5922000	 ldr         r2, [r2]
  003f0	e59d1004	 ldr         r1, [sp, #4]
  003f4	e59f02f0	 ldr         r0, [pc, #0x2F0]
  003f8	eb000000	 bl          NKDbgPrintfW
  003fc		 |$LN10@ReInit|
  003fc	e3a03001	 mov         r3, #1
  00400	e58d3018	 str         r3, [sp, #0x18]
  00404	ea000001	 b           |$LN12@ReInit|
  00408		 |$LN11@ReInit|
  00408	e3a03000	 mov         r3, #0
  0040c	e58d3018	 str         r3, [sp, #0x18]
  00410		 |$LN12@ReInit|

; 74   :     
; 75   :     UDCCRAX udccrax;
; 76   :     udccrax.ulValue = 0;

  00410	e3a03000	 mov         r3, #0
  00414	e58d3000	 str         r3, [sp]

; 77   :     udccrax.bit.CN = (m_bConfigurationValue & 3);

  00418	e59d3030	 ldr         r3, [sp, #0x30]
  0041c	e283302b	 add         r3, r3, #0x2B
  00420	e5d33000	 ldrb        r3, [r3]
  00424	e2031003	 and         r1, r3, #3
  00428	e59d2000	 ldr         r2, [sp]
  0042c	e3e03406	 mvn         r3, #6, 8
  00430	e0022003	 and         r2, r2, r3
  00434	e2013003	 and         r3, r1, #3
  00438	e1a03c83	 mov         r3, r3, lsl #25
  0043c	e1823003	 orr         r3, r2, r3
  00440	e58d3000	 str         r3, [sp]

; 78   :     udccrax.bit.ISN = (m_bInterfaceNumber & 0x7);

  00444	e59d3030	 ldr         r3, [sp, #0x30]
  00448	e283302c	 add         r3, r3, #0x2C
  0044c	e5d33000	 ldrb        r3, [r3]
  00450	e2031007	 and         r1, r3, #7
  00454	e59d2000	 ldr         r2, [sp]
  00458	e3e03507	 mvn         r3, #7, 10
  0045c	e0022003	 and         r2, r2, r3
  00460	e2013007	 and         r3, r1, #7
  00464	e1a03b03	 mov         r3, r3, lsl #22
  00468	e1823003	 orr         r3, r2, r3
  0046c	e58d3000	 str         r3, [sp]

; 79   :     udccrax.bit.AISN = m_bAlternateSetting & 0x7;

  00470	e59d3030	 ldr         r3, [sp, #0x30]
  00474	e283302d	 add         r3, r3, #0x2D
  00478	e5d33000	 ldrb        r3, [r3]
  0047c	e2031007	 and         r1, r3, #7
  00480	e59d2000	 ldr         r2, [sp]
  00484	e3e0370e	 mvn         r3, #0xE, 14
  00488	e0022003	 and         r2, r2, r3
  0048c	e2013007	 and         r3, r1, #7
  00490	e1a03983	 mov         r3, r3, lsl #19
  00494	e1823003	 orr         r3, r2, r3
  00498	e58d3000	 str         r3, [sp]

; 80   :     udccrax.bit.EN = m_epDesc.bEndpointAddress & 0xf;

  0049c	e59d3030	 ldr         r3, [sp, #0x30]
  004a0	e2833026	 add         r3, r3, #0x26
  004a4	e5d33000	 ldrb        r3, [r3]
  004a8	e203100f	 and         r1, r3, #0xF
  004ac	e59d2000	 ldr         r2, [sp]
  004b0	e3e0391e	 mvn         r3, #0x1E, 18
  004b4	e0022003	 and         r2, r2, r3
  004b8	e201300f	 and         r3, r1, #0xF
  004bc	e1a03783	 mov         r3, r3, lsl #15
  004c0	e1823003	 orr         r3, r2, r3
  004c4	e58d3000	 str         r3, [sp]

; 81   :     udccrax.bit.ET = m_epDesc.bmAttributes & 0x3;

  004c8	e59d3030	 ldr         r3, [sp, #0x30]
  004cc	e2833027	 add         r3, r3, #0x27
  004d0	e5d33000	 ldrb        r3, [r3]
  004d4	e2031003	 and         r1, r3, #3
  004d8	e59d2000	 ldr         r2, [sp]
  004dc	e3e03a06	 mvn         r3, #6, 20
  004e0	e0022003	 and         r2, r2, r3
  004e4	e2013003	 and         r3, r1, #3
  004e8	e1a03683	 mov         r3, r3, lsl #13
  004ec	e1823003	 orr         r3, r2, r3
  004f0	e58d3000	 str         r3, [sp]

; 82   :     udccrax.bit.ED = ((m_epDesc.bEndpointAddress & 0x80)!=0?1:0);

  004f4	e59d3030	 ldr         r3, [sp, #0x30]
  004f8	e2833026	 add         r3, r3, #0x26
  004fc	e5d33000	 ldrb        r3, [r3]
  00500	e3130080	 tst         r3, #0x80
  00504	0a000002	 beq         |$LN13@ReInit|
  00508	e3a03001	 mov         r3, #1
  0050c	e58d301c	 str         r3, [sp, #0x1C]
  00510	ea000001	 b           |$LN14@ReInit|
  00514		 |$LN13@ReInit|
  00514	e3a03000	 mov         r3, #0
  00518	e58d301c	 str         r3, [sp, #0x1C]
  0051c		 |$LN14@ReInit|
  0051c	e59d101c	 ldr         r1, [sp, #0x1C]
  00520	e59d2000	 ldr         r2, [sp]
  00524	e3e03a01	 mvn         r3, #1, 20
  00528	e0022003	 and         r2, r2, r3
  0052c	e2013001	 and         r3, r1, #1
  00530	e1a03603	 mov         r3, r3, lsl #12
  00534	e1823003	 orr         r3, r2, r3
  00538	e58d3000	 str         r3, [sp]

; 83   :     udccrax.bit.MPS = m_epDesc.wMaxPacketSize & 0x3ff ;

  0053c	e59d3030	 ldr         r3, [sp, #0x30]
  00540	e2831028	 add         r1, r3, #0x28
  00544	e5d13001	 ldrb        r3, [r1, #1]
  00548	e1a03403	 mov         r3, r3, lsl #8
  0054c	e1a02803	 mov         r2, r3, lsl #16
  00550	e1a02822	 mov         r2, r2, lsr #16
  00554	e5d13000	 ldrb        r3, [r1]
  00558	e1833002	 orr         r3, r3, r2
  0055c	e1a02003	 mov         r2, r3
  00560	e3a03c03	 mov         r3, #3, 24
  00564	e38330ff	 orr         r3, r3, #0xFF
  00568	e0021003	 and         r1, r2, r3
  0056c	e59d2000	 ldr         r2, [sp]
  00570	e3e03c0f	 mvn         r3, #0xF, 24
  00574	e22330fc	 eor         r3, r3, #0xFC
  00578	e0022003	 and         r2, r2, r3
  0057c	e3a03c03	 mov         r3, #3, 24
  00580	e38330ff	 orr         r3, r3, #0xFF
  00584	e0013003	 and         r3, r1, r3
  00588	e1a03103	 mov         r3, r3, lsl #2
  0058c	e1823003	 orr         r3, r2, r3
  00590	e58d3000	 str         r3, [sp]

; 84   :     
; 85   :     udccrax.bit.DE = 0;

  00594	e59d2000	 ldr         r2, [sp]
  00598	e3e03002	 mvn         r3, #2
  0059c	e0023003	 and         r3, r2, r3
  005a0	e58d3000	 str         r3, [sp]

; 86   :     // Only In and Isochronouse transfer can use double buffer
; 87   :     if (((m_epDesc.bEndpointAddress & 0x80) != 0 || (m_epDesc.bmAttributes & 0x3) == 1 ) && m_fDoubleBuffer)

  005a4	e59d3030	 ldr         r3, [sp, #0x30]
  005a8	e2833026	 add         r3, r3, #0x26
  005ac	e5d33000	 ldrb        r3, [r3]
  005b0	e3130080	 tst         r3, #0x80
  005b4	1a000005	 bne         |$LN1@ReInit|
  005b8	e59d3030	 ldr         r3, [sp, #0x30]
  005bc	e2833027	 add         r3, r3, #0x27
  005c0	e5d33000	 ldrb        r3, [r3]
  005c4	e2033003	 and         r3, r3, #3
  005c8	e3530001	 cmp         r3, #1
  005cc	1a000007	 bne         |$LN2@ReInit|
  005d0		 |$LN1@ReInit|
  005d0	e59d3030	 ldr         r3, [sp, #0x30]
  005d4	e2833030	 add         r3, r3, #0x30
  005d8	e5933000	 ldr         r3, [r3]
  005dc	e3530000	 cmp         r3, #0
  005e0	0a000002	 beq         |$LN2@ReInit|

; 88   :         udccrax.bit.DE = 1 ;

  005e4	e59d3000	 ldr         r3, [sp]
  005e8	e3833002	 orr         r3, r3, #2
  005ec	e58d3000	 str         r3, [sp]
  005f0		 |$LN2@ReInit|

; 89   :         
; 90   :     udccrax.bit.EE = 1;

  005f0	e59d3000	 ldr         r3, [sp]
  005f4	e3833001	 orr         r3, r3, #1
  005f8	e58d3000	 str         r3, [sp]

; 91   :     WriteConfigurationRegister(udccrax.ulValue);

  005fc	e59d1000	 ldr         r1, [sp]
  00600	e59d0030	 ldr         r0, [sp, #0x30]
  00604	eb000000	 bl          |?WriteConfigurationRegister@BulEndpoint@@QAAXK@Z|

; 92   :     DEBUGMSG(ZONE_INIT, (_T("%s(%d) udccrax.ulValue= 0x%x\r\n"),pszFname,m_dwEndpointIndex,udccrax.ulValue));

  00608	e59f30d4	 ldr         r3, [pc, #0xD4]
  0060c	e5933440	 ldr         r3, [r3, #0x440]
  00610	e3130004	 tst         r3, #4
  00614	0a000015	 beq         |$LN17@ReInit|
  00618	e59f30c4	 ldr         r3, [pc, #0xC4]
  0061c	e5933440	 ldr         r3, [r3, #0x440]
  00620	e3130801	 tst         r3, #1, 16
  00624	0a000007	 beq         |$LN15@ReInit|
  00628	e59d3000	 ldr         r3, [sp]
  0062c	e59d2030	 ldr         r2, [sp, #0x30]
  00630	e2822020	 add         r2, r2, #0x20
  00634	e5922000	 ldr         r2, [r2]
  00638	e59d1004	 ldr         r1, [sp, #4]
  0063c	e59f00a4	 ldr         r0, [pc, #0xA4]
  00640	eb000000	 bl          CeLogMsg
  00644	ea000006	 b           |$LN16@ReInit|
  00648		 |$LN15@ReInit|
  00648	e59d3000	 ldr         r3, [sp]
  0064c	e59d2030	 ldr         r2, [sp, #0x30]
  00650	e2822020	 add         r2, r2, #0x20
  00654	e5922000	 ldr         r2, [r2]
  00658	e59d1004	 ldr         r1, [sp, #4]
  0065c	e59f0084	 ldr         r0, [pc, #0x84]
  00660	eb000000	 bl          NKDbgPrintfW
  00664		 |$LN16@ReInit|
  00664	e3a03001	 mov         r3, #1
  00668	e58d3020	 str         r3, [sp, #0x20]
  0066c	ea000001	 b           |$LN18@ReInit|
  00670		 |$LN17@ReInit|
  00670	e3a03000	 mov         r3, #0
  00674	e58d3020	 str         r3, [sp, #0x20]
  00678		 |$LN18@ReInit|

; 93   :     FUNCTION_LEAVE_MSG();

  00678	e59f3064	 ldr         r3, [pc, #0x64]
  0067c	e5933440	 ldr         r3, [r3, #0x440]
  00680	e3130a01	 tst         r3, #1, 20
  00684	0a00000d	 beq         |$LN21@ReInit|
  00688	e59f3054	 ldr         r3, [pc, #0x54]
  0068c	e5933440	 ldr         r3, [r3, #0x440]
  00690	e3130801	 tst         r3, #1, 16
  00694	0a000003	 beq         |$LN19@ReInit|
  00698	e59d1004	 ldr         r1, [sp, #4]
  0069c	e59f003c	 ldr         r0, [pc, #0x3C]
  006a0	eb000000	 bl          CeLogMsg
  006a4	ea000002	 b           |$LN20@ReInit|
  006a8		 |$LN19@ReInit|
  006a8	e59d1004	 ldr         r1, [sp, #4]
  006ac	e59f002c	 ldr         r0, [pc, #0x2C]
  006b0	eb000000	 bl          NKDbgPrintfW
  006b4		 |$LN20@ReInit|
  006b4	e3a03001	 mov         r3, #1
  006b8	e58d3024	 str         r3, [sp, #0x24]
  006bc	ea000001	 b           |$LN22@ReInit|
  006c0		 |$LN21@ReInit|
  006c0	e3a03000	 mov         r3, #0
  006c4	e58d3024	 str         r3, [sp, #0x24]
  006c8		 |$LN22@ReInit|

; 94   :     return TRUE;

  006c8	e3a03001	 mov         r3, #1
  006cc	e58d3010	 str         r3, [sp, #0x10]

; 95   : }

  006d0	e59d0010	 ldr         r0, [sp, #0x10]
  006d4	e28dd028	 add         sp, sp, #0x28
  006d8	e89d6000	 ldmia       sp, {sp, lr}
  006dc	e12fff1e	 bx          lr
  006e0		 |$LN26@ReInit|
  006e0		 |$LN27@ReInit|
  006e0	00000000	 DCD         |??_C@_1BA@PLOOFDPK@?$AA?$CF?$AAs?$AA?5?$AA?9?$AA?9?$AA?$AN?$AA?6?$AA?$AA@|
  006e4		 |$LN28@ReInit|
  006e4	00000000	 DCD         |dpCurSettings|
  006e8		 |$LN29@ReInit|
  006e8	00000000	 DCD         |??_C@_1DO@GBPHEMNG@?$AA?$CF?$AAs?$AA?$CI?$AA?$CF?$AAd?$AA?$CJ?$AA?5?$AAu?$AAd?$AAc?$AAc?$AAr?$AAa?$AAx?$AA?4?$AAu?$AAl?$AAV?$AAa?$AAl?$AAu?$AAe?$AA?$DN?$AA?5?$AA0?$AAx?$AA?$CF?$AAx?$AA?$AN?$AA?6?$AA?$AA@|
  006ec		 |$LN30@ReInit|
  006ec	00000000	 DCD         |??_C@_1DM@PLOFKHCM@?$AA?$CF?$AAs?$AA?5?$AA?$CI?$AA?$CF?$AAd?$AA?$CJ?$AAu?$AAd?$AAc?$AAc?$AAs?$AAr?$AA?4?$AAu?$AAl?$AAV?$AAa?$AAl?$AAu?$AAe?$AA?$DN?$AA?5?$AA0?$AAx?$AA?$CF?$AAx?$AA?$AN?$AA?6?$AA?$AA@|
  006f0		 |$LN31@ReInit|
  006f0	00000000	 DCD         |??_C@_1BA@DAJPCKDK@?$AA?$CF?$AAs?$AA?5?$AA?$CL?$AA?$CL?$AA?$AN?$AA?6?$AA?$AA@|
  006f4		 |$LN32@ReInit|
  006f4	00000000	 DCD         |??_C@_1EI@PDFKANDM@?$AAb?$AAu?$AAl?$AAv?$AAe?$AAr?$AAd?$AAe?$AA_?$AAu?$AAs?$AAb?$AAf?$AAn?$AA?$CB?$AAB?$AAu?$AAl?$AAE?$AAn?$AAd?$AAp?$AAo?$AAi?$AAn?$AAt?$AA?3?$AA?3?$AAR?$AAe?$AAI?$AAn@|
  006f8		 |$M38150|

			 ENDP  ; |?ReInit@BulEndpoint@@UAAHXZ|, BulEndpoint::ReInit

	EXPORT	|?WriteUDCRegister@BulUsbDevice@@QAAXKK@Z| ; BulUsbDevice::WriteUDCRegister
	EXPORT	|??_C@_1FK@FNONLNGN@?$AA?$CF?$AAs?$AA?3?$AA?5?$AAD?$AAE?$AAB?$AAU?$AAG?$AAC?$AAH?$AAK?$AA?5?$AAf?$AAa?$AAi?$AAl?$AAe?$AAd?$AA?5?$AAi?$AAn?$AA?5?$AAf?$AAi?$AAl?$AAe?$AA?5?$AA?$CF?$AAs?$AA?5?$AAa@| [ DATA ] ; `string'
	EXPORT	|??_C@_1BA@LEPJIIOK@?$AAU?$AAn?$AAk?$AAn?$AAo?$AAw?$AAn?$AA?$AA@| [ DATA ] ; `string'
	EXPORT	|??_C@_1CG@MKCCFBBJ@?$AA?4?$AA?4?$AA?2?$AAi?$AAn?$AAc?$AA?2?$AAb?$AAu?$AAl?$AA_?$AAu?$AAs?$AAb?$AAf?$AAn?$AA?4?$AAh?$AA?$AA@| [ DATA ] ; `string'
; File c:\wince600\platform\common\src\soc\pxa27x_ms_v1\inc\bul_usbfn.h

  00000			 AREA	 |.pdata|, PDATA
|$T38168| DCD	|$LN9@WriteContr|
	DCD	0x40003504

  00000			 AREA	 |.rdata|, DATA, READONLY
|??_C@_1FK@FNONLNGN@?$AA?$CF?$AAs?$AA?3?$AA?5?$AAD?$AAE?$AAB?$AAU?$AAG?$AAC?$AAH?$AAK?$AA?5?$AAf?$AAa?$AAi?$AAl?$AAe?$AAd?$AA?5?$AAi?$AAn?$AA?5?$AAf?$AAi?$AAl?$AAe?$AA?5?$AA?$CF?$AAs?$AA?5?$AAa@| DCB "%"
	DCB	0x0, "s", 0x0, ":", 0x0, " ", 0x0, "D", 0x0, "E", 0x0, "B"
	DCB	0x0, "U", 0x0, "G", 0x0, "C", 0x0, "H", 0x0, "K", 0x0, " "
	DCB	0x0, "f", 0x0, "a", 0x0, "i", 0x0, "l", 0x0, "e", 0x0, "d"
	DCB	0x0, " ", 0x0, "i", 0x0, "n", 0x0, " ", 0x0, "f", 0x0, "i"
	DCB	0x0, "l", 0x0, "e", 0x0, " ", 0x0, "%", 0x0, "s", 0x0, " "
	DCB	0x0, "a", 0x0, "t", 0x0, " ", 0x0, "l", 0x0, "i", 0x0, "n"
	DCB	0x0, "e", 0x0, " ", 0x0, "%", 0x0, "d", 0x0, " ", 0x0, 0xd
	DCB	0x0, 0xa, 0x0, 0x0, 0x0			; `string'

  00000			 AREA	 |.rdata|, DATA, READONLY
|??_C@_1BA@LEPJIIOK@?$AAU?$AAn?$AAk?$AAn?$AAo?$AAw?$AAn?$AA?$AA@| DCB "U", 0x0
	DCB	"n", 0x0, "k", 0x0, "n", 0x0, "o", 0x0, "w", 0x0, "n", 0x0
	DCB	0x0, 0x0				; `string'

  00000			 AREA	 |.rdata|, DATA, READONLY
|??_C@_1CG@MKCCFBBJ@?$AA?4?$AA?4?$AA?2?$AAi?$AAn?$AAc?$AA?2?$AAb?$AAu?$AAl?$AA_?$AAu?$AAs?$AAb?$AAf?$AAn?$AA?4?$AAh?$AA?$AA@| DCB "."
	DCB	0x0, ".", 0x0, "\\", 0x0, "i", 0x0, "n", 0x0, "c", 0x0, "\\"
	DCB	0x0, "b", 0x0, "u", 0x0, "l", 0x0, "_", 0x0, "u", 0x0, "s"
	DCB	0x0, "b", 0x0, "f", 0x0, "n", 0x0, ".", 0x0, "h", 0x0, 0x0
	DCB	0x0					; `string'
; Function compile flags: /Odtp

  00000			 AREA	 |.text|, CODE, ARM

  00000		 |?WriteControlStatusRegister@BulEndpoint@@QAAXK@Z| PROC ; BulEndpoint::WriteControlStatusRegister

; 281  :     void    WriteControlStatusRegister(DWORD dwData) {

  00000		 |$LN9@WriteContr|
  00000	e1a0c00d	 mov         r12, sp
  00004	e92d0003	 stmdb       sp!, {r0, r1}
  00008	e92d5000	 stmdb       sp!, {r12, lr}
  0000c	e24dd008	 sub         sp, sp, #8
  00010		 |$M38165|

; 282  :         PREFAST_ASSERT(m_pUsbDevice!=NULL);

  00010	e59d3010	 ldr         r3, [sp, #0x10]
  00014	e283301c	 add         r3, r3, #0x1C
  00018	e5933000	 ldr         r3, [r3]
  0001c	e3530000	 cmp         r3, #0
  00020	0a000002	 beq         |$LN3@WriteContr|
  00024	e3a03001	 mov         r3, #1
  00028	e58d3000	 str         r3, [sp]
  0002c	ea000008	 b           |$LN4@WriteContr|
  00030		 |$LN3@WriteContr|
  00030	e3a03c01	 mov         r3, #1, 24
  00034	e383301a	 orr         r3, r3, #0x1A
  00038	e59f2090	 ldr         r2, [pc, #0x90]
  0003c	e59f1088	 ldr         r1, [pc, #0x88]
  00040	e59f0080	 ldr         r0, [pc, #0x80]
  00044	eb000000	 bl          NKDbgPrintfW
  00048	e6000010	 __debugbreak_ce
  0004c	e3a03000	 mov         r3, #0
  00050	e58d3000	 str         r3, [sp]
  00054		 |$LN4@WriteContr|

; 283  :         PREFAST_ASSERT(m_dwEndpointIndex<MAX_ENDPOINT_NUMBER);

  00054	e59d3010	 ldr         r3, [sp, #0x10]
  00058	e2833020	 add         r3, r3, #0x20
  0005c	e5933000	 ldr         r3, [r3]
  00060	e3530018	 cmp         r3, #0x18
  00064	2a000002	 bcs         |$LN5@WriteContr|
  00068	e3a03001	 mov         r3, #1
  0006c	e58d3004	 str         r3, [sp, #4]
  00070	ea000008	 b           |$LN6@WriteContr|
  00074		 |$LN5@WriteContr|
  00074	e3a03c01	 mov         r3, #1, 24
  00078	e383301b	 orr         r3, r3, #0x1B
  0007c	e59f204c	 ldr         r2, [pc, #0x4C]
  00080	e59f1044	 ldr         r1, [pc, #0x44]
  00084	e59f003c	 ldr         r0, [pc, #0x3C]
  00088	eb000000	 bl          NKDbgPrintfW
  0008c	e6000010	 __debugbreak_ce
  00090	e3a03000	 mov         r3, #0
  00094	e58d3004	 str         r3, [sp, #4]
  00098		 |$LN6@WriteContr|

; 284  :         m_pUsbDevice->WriteUDCRegister( ENDPOINT_CONTROL_STATUS_REGISTER_OFFSET + m_dwEndpointIndex,dwData);

  00098	e59d2014	 ldr         r2, [sp, #0x14]
  0009c	e59d3010	 ldr         r3, [sp, #0x10]
  000a0	e2833020	 add         r3, r3, #0x20
  000a4	e5933000	 ldr         r3, [r3]
  000a8	e2831040	 add         r1, r3, #0x40
  000ac	e59d3010	 ldr         r3, [sp, #0x10]
  000b0	e283301c	 add         r3, r3, #0x1C
  000b4	e5930000	 ldr         r0, [r3]
  000b8	eb000000	 bl          |?WriteUDCRegister@BulUsbDevice@@QAAXKK@Z|

; 285  :     };

  000bc	e28dd008	 add         sp, sp, #8
  000c0	e89d6000	 ldmia       sp, {sp, lr}
  000c4	e12fff1e	 bx          lr
  000c8		 |$LN10@WriteContr|
  000c8		 |$LN11@WriteContr|
  000c8	00000000	 DCD         |??_C@_1FK@FNONLNGN@?$AA?$CF?$AAs?$AA?3?$AA?5?$AAD?$AAE?$AAB?$AAU?$AAG?$AAC?$AAH?$AAK?$AA?5?$AAf?$AAa?$AAi?$AAl?$AAe?$AAd?$AA?5?$AAi?$AAn?$AA?5?$AAf?$AAi?$AAl?$AAe?$AA?5?$AA?$CF?$AAs?$AA?5?$AAa@|
  000cc		 |$LN12@WriteContr|
  000cc	00000000	 DCD         |??_C@_1BA@LEPJIIOK@?$AAU?$AAn?$AAk?$AAn?$AAo?$AAw?$AAn?$AA?$AA@|
  000d0		 |$LN13@WriteContr|
  000d0	00000000	 DCD         |??_C@_1CG@MKCCFBBJ@?$AA?4?$AA?4?$AA?2?$AAi?$AAn?$AAc?$AA?2?$AAb?$AAu?$AAl?$AA_?$AAu?$AAs?$AAb?$AAf?$AAn?$AA?4?$AAh?$AA?$AA@|
  000d4		 |$M38166|

			 ENDP  ; |?WriteControlStatusRegister@BulEndpoint@@QAAXK@Z|, BulEndpoint::WriteControlStatusRegister

	IMPORT	|WRITE_REGISTER_ULONG|

  00000			 AREA	 |.pdata|, PDATA
|$T38181| DCD	|$LN7@WriteUDCRe|
	DCD	0x40002304
; Function compile flags: /Odtp

  00000			 AREA	 |.text|, CODE, ARM

  00000		 |?WriteUDCRegister@BulUsbDevice@@QAAXKK@Z| PROC ; BulUsbDevice::WriteUDCRegister

; 121  :     void WriteUDCRegister(DWORD dwOffset, DWORD dwData) { 

  00000		 |$LN7@WriteUDCRe|
  00000	e1a0c00d	 mov         r12, sp
  00004	e92d0007	 stmdb       sp!, {r0 - r2}
  00008	e92d5000	 stmdb       sp!, {r12, lr}
  0000c	e24dd004	 sub         sp, sp, #4
  00010		 |$M38178|

; 122  :         PREFAST_ASSERT(m_pUsbDevReg!=NULL);

  00010	e59d300c	 ldr         r3, [sp, #0xC]
  00014	e2833098	 add         r3, r3, #0x98
  00018	e5933000	 ldr         r3, [r3]
  0001c	e3530000	 cmp         r3, #0
  00020	0a000002	 beq         |$LN3@WriteUDCRe|
  00024	e3a03001	 mov         r3, #1
  00028	e58d3000	 str         r3, [sp]
  0002c	ea000007	 b           |$LN4@WriteUDCRe|
  00030		 |$LN3@WriteUDCRe|
  00030	e3a0307a	 mov         r3, #0x7A
  00034	e59f204c	 ldr         r2, [pc, #0x4C]
  00038	e59f1044	 ldr         r1, [pc, #0x44]
  0003c	e59f003c	 ldr         r0, [pc, #0x3C]
  00040	eb000000	 bl          NKDbgPrintfW
  00044	e6000010	 __debugbreak_ce
  00048	e3a03000	 mov         r3, #0
  0004c	e58d3000	 str         r3, [sp]
  00050		 |$LN4@WriteUDCRe|

; 123  :         WRITE_REGISTER_ULONG(m_pUsbDevReg + dwOffset, dwData);

  00050	e59d1014	 ldr         r1, [sp, #0x14]
  00054	e59d300c	 ldr         r3, [sp, #0xC]
  00058	e283e098	 add         lr, r3, #0x98
  0005c	e59d0010	 ldr         r0, [sp, #0x10]
  00060	e3a03004	 mov         r3, #4
  00064	e0020390	 mul         r2, r0, r3
  00068	e59e3000	 ldr         r3, [lr]
  0006c	e0830002	 add         r0, r3, r2
  00070	eb000000	 bl          WRITE_REGISTER_ULONG

; 124  :     }

  00074	e28dd004	 add         sp, sp, #4
  00078	e89d6000	 ldmia       sp, {sp, lr}
  0007c	e12fff1e	 bx          lr
  00080		 |$LN8@WriteUDCRe|
  00080		 |$LN9@WriteUDCRe|
  00080	00000000	 DCD         |??_C@_1FK@FNONLNGN@?$AA?$CF?$AAs?$AA?3?$AA?5?$AAD?$AAE?$AAB?$AAU?$AAG?$AAC?$AAH?$AAK?$AA?5?$AAf?$AAa?$AAi?$AAl?$AAe?$AAd?$AA?5?$AAi?$AAn?$AA?5?$AAf?$AAi?$AAl?$AAe?$AA?5?$AA?$CF?$AAs?$AA?5?$AAa@|
  00084		 |$LN10@WriteUDCRe|
  00084	00000000	 DCD         |??_C@_1BA@LEPJIIOK@?$AAU?$AAn?$AAk?$AAn?$AAo?$AAw?$AAn?$AA?$AA@|
  00088		 |$LN11@WriteUDCRe|
  00088	00000000	 DCD         |??_C@_1CG@MKCCFBBJ@?$AA?4?$AA?4?$AA?2?$AAi?$AAn?$AAc?$AA?2?$AAb?$AAu?$AAl?$AA_?$AAu?$AAs?$AAb?$AAf?$AAn?$AA?4?$AAh?$AA?$AA@|
  0008c		 |$M38179|

			 ENDP  ; |?WriteUDCRegister@BulUsbDevice@@QAAXKK@Z|, BulUsbDevice::WriteUDCRegister


  00000			 AREA	 |.pdata|, PDATA
|$T38198| DCD	|$LN13@WriteConfi|
	DCD	0x40004704
; Function compile flags: /Odtp

  00000			 AREA	 |.text|, CODE, ARM

  00000		 |?WriteConfigurationRegister@BulEndpoint@@QAAXK@Z| PROC ; BulEndpoint::WriteConfigurationRegister

; 326  :     void    WriteConfigurationRegister(DWORD dwData) {

  00000		 |$LN13@WriteConfi|
  00000	e1a0c00d	 mov         r12, sp
  00004	e92d0003	 stmdb       sp!, {r0, r1}
  00008	e92d5000	 stmdb       sp!, {r12, lr}
  0000c	e24dd00c	 sub         sp, sp, #0xC
  00010		 |$M38195|

; 327  :         PREFAST_ASSERT(m_pUsbDevice!=NULL);

  00010	e59d3014	 ldr         r3, [sp, #0x14]
  00014	e283301c	 add         r3, r3, #0x1C
  00018	e5933000	 ldr         r3, [r3]
  0001c	e3530000	 cmp         r3, #0
  00020	0a000002	 beq         |$LN5@WriteConfi|
  00024	e3a03001	 mov         r3, #1
  00028	e58d3000	 str         r3, [sp]
  0002c	ea000008	 b           |$LN6@WriteConfi|
  00030		 |$LN5@WriteConfi|
  00030	e3a03c01	 mov         r3, #1, 24
  00034	e3833047	 orr         r3, r3, #0x47
  00038	e59f20d8	 ldr         r2, [pc, #0xD8]
  0003c	e59f10d0	 ldr         r1, [pc, #0xD0]
  00040	e59f00c8	 ldr         r0, [pc, #0xC8]
  00044	eb000000	 bl          NKDbgPrintfW
  00048	e6000010	 __debugbreak_ce
  0004c	e3a03000	 mov         r3, #0
  00050	e58d3000	 str         r3, [sp]
  00054		 |$LN6@WriteConfi|

; 328  :         PREFAST_ASSERT(m_dwEndpointIndex<MAX_ENDPOINT_NUMBER);

  00054	e59d3014	 ldr         r3, [sp, #0x14]
  00058	e2833020	 add         r3, r3, #0x20
  0005c	e5933000	 ldr         r3, [r3]
  00060	e3530018	 cmp         r3, #0x18
  00064	2a000002	 bcs         |$LN7@WriteConfi|
  00068	e3a03001	 mov         r3, #1
  0006c	e58d3004	 str         r3, [sp, #4]
  00070	ea000007	 b           |$LN8@WriteConfi|
  00074		 |$LN7@WriteConfi|
  00074	e3a03f52	 mov         r3, #0x52, 30
  00078	e59f2098	 ldr         r2, [pc, #0x98]
  0007c	e59f1090	 ldr         r1, [pc, #0x90]
  00080	e59f0088	 ldr         r0, [pc, #0x88]
  00084	eb000000	 bl          NKDbgPrintfW
  00088	e6000010	 __debugbreak_ce
  0008c	e3a03000	 mov         r3, #0
  00090	e58d3004	 str         r3, [sp, #4]
  00094		 |$LN8@WriteConfi|

; 329  :         if (m_pUsbDevice!=0) { // Endpoint ZERO is not supported

  00094	e59d3014	 ldr         r3, [sp, #0x14]
  00098	e283301c	 add         r3, r3, #0x1C
  0009c	e5933000	 ldr         r3, [r3]
  000a0	e3530000	 cmp         r3, #0
  000a4	0a000009	 beq         |$LN2@WriteConfi|

; 330  :             m_pUsbDevice->WriteUDCRegister( ENDPOINT_CONFIGURATION_REGISTER_OFFSET + m_dwEndpointIndex, dwData );

  000a8	e59d2018	 ldr         r2, [sp, #0x18]
  000ac	e59d3014	 ldr         r3, [sp, #0x14]
  000b0	e2833020	 add         r3, r3, #0x20
  000b4	e5933000	 ldr         r3, [r3]
  000b8	e2831c01	 add         r1, r3, #1, 24
  000bc	e59d3014	 ldr         r3, [sp, #0x14]
  000c0	e283301c	 add         r3, r3, #0x1C
  000c4	e5930000	 ldr         r0, [r3]
  000c8	eb000000	 bl          |?WriteUDCRegister@BulUsbDevice@@QAAXKK@Z|

; 331  :         }
; 332  :         else {

  000cc	ea00000c	 b           |$LN1@WriteConfi|
  000d0		 |$LN2@WriteConfi|

; 333  :             ASSERT(FALSE);

  000d0	ea000002	 b           |$LN9@WriteConfi|
  000d4	e3a03001	 mov         r3, #1
  000d8	e58d3008	 str         r3, [sp, #8]
  000dc	ea000008	 b           |$LN10@WriteConfi|
  000e0		 |$LN9@WriteConfi|
  000e0	e3a03c01	 mov         r3, #1, 24
  000e4	e383304d	 orr         r3, r3, #0x4D
  000e8	e59f2028	 ldr         r2, [pc, #0x28]
  000ec	e59f1020	 ldr         r1, [pc, #0x20]
  000f0	e59f0018	 ldr         r0, [pc, #0x18]
  000f4	eb000000	 bl          NKDbgPrintfW
  000f8	e6000010	 __debugbreak_ce
  000fc	e3a03000	 mov         r3, #0
  00100	e58d3008	 str         r3, [sp, #8]
  00104		 |$LN10@WriteConfi|
  00104		 |$LN1@WriteConfi|

; 334  :         }
; 335  :     }

  00104	e28dd00c	 add         sp, sp, #0xC
  00108	e89d6000	 ldmia       sp, {sp, lr}
  0010c	e12fff1e	 bx          lr
  00110		 |$LN14@WriteConfi|
  00110		 |$LN15@WriteConfi|
  00110	00000000	 DCD         |??_C@_1FK@FNONLNGN@?$AA?$CF?$AAs?$AA?3?$AA?5?$AAD?$AAE?$AAB?$AAU?$AAG?$AAC?$AAH?$AAK?$AA?5?$AAf?$AAa?$AAi?$AAl?$AAe?$AAd?$AA?5?$AAi?$AAn?$AA?5?$AAf?$AAi?$AAl?$AAe?$AA?5?$AA?$CF?$AAs?$AA?5?$AAa@|
  00114		 |$LN16@WriteConfi|
  00114	00000000	 DCD         |??_C@_1BA@LEPJIIOK@?$AAU?$AAn?$AAk?$AAn?$AAo?$AAw?$AAn?$AA?$AA@|
  00118		 |$LN17@WriteConfi|
  00118	00000000	 DCD         |??_C@_1CG@MKCCFBBJ@?$AA?4?$AA?4?$AA?2?$AAi?$AAn?$AAc?$AA?2?$AAb?$AAu?$AAl?$AA_?$AAu?$AAs?$AAb?$AAf?$AAn?$AA?4?$AAh?$AA?$AA@|
  0011c		 |$M38196|

			 ENDP  ; |?WriteConfigurationRegister@BulEndpoint@@QAAXK@Z|, BulEndpoint::WriteConfigurationRegister

	EXPORT	|?ReadControlStatusRegister@BulEndpoint@@QAAKXZ| ; BulEndpoint::ReadControlStatusRegister
	EXPORT	|??_C@_1FG@NEBCBPOL@?$AAb?$AAu?$AAl?$AAv?$AAe?$AAr?$AAd?$AAe?$AA_?$AAu?$AAs?$AAb?$AAf?$AAn?$AA?$CB?$AAB?$AAu?$AAl?$AAE?$AAn?$AAd?$AAp?$AAo?$AAi?$AAn?$AAt?$AA?3?$AA?3?$AAS?$AAt?$AAa?$AAl@| [ DATA ] ; `string'
	EXPORT	|?StallEndpoint@BulEndpoint@@UAAKXZ|	; BulEndpoint::StallEndpoint

  00018			 AREA	 |.pdata|, PDATA
|$T38218| DCD	|$LN13@StallEndpo|
	DCD	0x40005c04
; File c:\wince600\platform\common\src\soc\pxa27x_ms_v1\usbfn\bul_usbfn.cpp

  00000			 AREA	 |.rdata|, DATA, READONLY
|??_C@_1FG@NEBCBPOL@?$AAb?$AAu?$AAl?$AAv?$AAe?$AAr?$AAd?$AAe?$AA_?$AAu?$AAs?$AAb?$AAf?$AAn?$AA?$CB?$AAB?$AAu?$AAl?$AAE?$AAn?$AAd?$AAp?$AAo?$AAi?$AAn?$AAt?$AA?3?$AA?3?$AAS?$AAt?$AAa?$AAl@| DCB "b"
	DCB	0x0, "u", 0x0, "l", 0x0, "v", 0x0, "e", 0x0, "r", 0x0, "d"
	DCB	0x0, "e", 0x0, "_", 0x0, "u", 0x0, "s", 0x0, "b", 0x0, "f"
	DCB	0x0, "n", 0x0, "!", 0x0, "B", 0x0, "u", 0x0, "l", 0x0, "E"
	DCB	0x0, "n", 0x0, "d", 0x0, "p", 0x0, "o", 0x0, "i", 0x0, "n"
	DCB	0x0, "t", 0x0, ":", 0x0, ":", 0x0, "S", 0x0, "t", 0x0, "a"
	DCB	0x0, "l", 0x0, "l", 0x0, "E", 0x0, "n", 0x0, "d", 0x0, "p"
	DCB	0x0, "o", 0x0, "i", 0x0, "n", 0x0, "t", 0x0, ":", 0x0, 0x0
	DCB	0x0					; `string'
; Function compile flags: /Odtp

  006f8			 AREA	 |.text|, CODE, ARM

  006f8		 |?StallEndpoint@BulEndpoint@@UAAKXZ| PROC ; BulEndpoint::StallEndpoint

; 97   : {

  006f8		 |$LN13@StallEndpo|
  006f8	e1a0c00d	 mov         r12, sp
  006fc	e92d0001	 stmdb       sp!, {r0}
  00700	e92d5000	 stmdb       sp!, {r12, lr}
  00704	e24dd024	 sub         sp, sp, #0x24
  00708		 |$M38215|

; 98   :     UDCCSR udccsr, udccsrWrite;
; 99   :     SETFNAME();

  00708	e59f3154	 ldr         r3, [pc, #0x154]
  0070c	e58d3000	 str         r3, [sp]

; 100  :     FUNCTION_ENTER_MSG();

  00710	e59f3144	 ldr         r3, [pc, #0x144]
  00714	e5933440	 ldr         r3, [r3, #0x440]
  00718	e3130a01	 tst         r3, #1, 20
  0071c	0a00000d	 beq         |$LN5@StallEndpo|
  00720	e59f3134	 ldr         r3, [pc, #0x134]
  00724	e5933440	 ldr         r3, [r3, #0x440]
  00728	e3130801	 tst         r3, #1, 16
  0072c	0a000003	 beq         |$LN3@StallEndpo|
  00730	e59d1000	 ldr         r1, [sp]
  00734	e59f0124	 ldr         r0, [pc, #0x124]
  00738	eb000000	 bl          CeLogMsg
  0073c	ea000002	 b           |$LN4@StallEndpo|
  00740		 |$LN3@StallEndpo|
  00740	e59d1000	 ldr         r1, [sp]
  00744	e59f0114	 ldr         r0, [pc, #0x114]
  00748	eb000000	 bl          NKDbgPrintfW
  0074c		 |$LN4@StallEndpo|
  0074c	e3a03001	 mov         r3, #1
  00750	e58d3018	 str         r3, [sp, #0x18]
  00754	ea000001	 b           |$LN6@StallEndpo|
  00758		 |$LN5@StallEndpo|
  00758	e3a03000	 mov         r3, #0
  0075c	e58d3018	 str         r3, [sp, #0x18]
  00760		 |$LN6@StallEndpo|

; 101  :     Lock();

  00760	e59d302c	 ldr         r3, [sp, #0x2C]
  00764	e2830008	 add         r0, r3, #8
  00768	eb000000	 bl          |?Lock@CLockObject@@QAAXXZ|

; 102  :     udccsr.ulValue = ReadControlStatusRegister();

  0076c	e59d002c	 ldr         r0, [sp, #0x2C]
  00770	eb000000	 bl          |?ReadControlStatusRegister@BulEndpoint@@QAAKXZ|
  00774	e58d001c	 str         r0, [sp, #0x1C]
  00778	e59d301c	 ldr         r3, [sp, #0x1C]
  0077c	e58d300c	 str         r3, [sp, #0xC]

; 103  :     udccsrWrite.ulValue = 0;

  00780	e3a03000	 mov         r3, #0
  00784	e58d3004	 str         r3, [sp, #4]

; 104  :     udccsrWrite.epbit.DME = udccsr.epbit.DME;

  00788	e59d300c	 ldr         r3, [sp, #0xC]
  0078c	e1a03e03	 mov         r3, r3, lsl #28
  00790	e1a01fa3	 mov         r1, r3, lsr #31
  00794	e59d2004	 ldr         r2, [sp, #4]
  00798	e3e03008	 mvn         r3, #8
  0079c	e0022003	 and         r2, r2, r3
  007a0	e2013001	 and         r3, r1, #1
  007a4	e1a03183	 mov         r3, r3, lsl #3
  007a8	e1823003	 orr         r3, r2, r3
  007ac	e58d3004	 str         r3, [sp, #4]

; 105  :     udccsrWrite.epbit.FST = 1; // Force Stall.

  007b0	e59d3004	 ldr         r3, [sp, #4]
  007b4	e3833020	 orr         r3, r3, #0x20
  007b8	e58d3004	 str         r3, [sp, #4]

; 106  :     udccsrWrite.epbit.SST = 1; // Clear Previous Stall Sent if there is any.

  007bc	e59d3004	 ldr         r3, [sp, #4]
  007c0	e3833010	 orr         r3, r3, #0x10
  007c4	e58d3004	 str         r3, [sp, #4]

; 107  :     WriteControlStatusRegister(udccsrWrite.ulValue);

  007c8	e59d1004	 ldr         r1, [sp, #4]
  007cc	e59d002c	 ldr         r0, [sp, #0x2C]
  007d0	eb000000	 bl          |?WriteControlStatusRegister@BulEndpoint@@QAAXK@Z|

; 108  :     m_fStalled = TRUE;

  007d4	e59d302c	 ldr         r3, [sp, #0x2C]
  007d8	e283203c	 add         r2, r3, #0x3C
  007dc	e3a03001	 mov         r3, #1
  007e0	e5823000	 str         r3, [r2]

; 109  :     Unlock();

  007e4	e59d302c	 ldr         r3, [sp, #0x2C]
  007e8	e2830008	 add         r0, r3, #8
  007ec	eb000000	 bl          |?Unlock@CLockObject@@QAAXXZ|

; 110  :     FUNCTION_LEAVE_MSG();

  007f0	e59f3064	 ldr         r3, [pc, #0x64]
  007f4	e5933440	 ldr         r3, [r3, #0x440]
  007f8	e3130a01	 tst         r3, #1, 20
  007fc	0a00000d	 beq         |$LN9@StallEndpo|
  00800	e59f3054	 ldr         r3, [pc, #0x54]
  00804	e5933440	 ldr         r3, [r3, #0x440]
  00808	e3130801	 tst         r3, #1, 16
  0080c	0a000003	 beq         |$LN7@StallEndpo|
  00810	e59d1000	 ldr         r1, [sp]
  00814	e59f003c	 ldr         r0, [pc, #0x3C]
  00818	eb000000	 bl          CeLogMsg
  0081c	ea000002	 b           |$LN8@StallEndpo|
  00820		 |$LN7@StallEndpo|
  00820	e59d1000	 ldr         r1, [sp]
  00824	e59f002c	 ldr         r0, [pc, #0x2C]
  00828	eb000000	 bl          NKDbgPrintfW
  0082c		 |$LN8@StallEndpo|
  0082c	e3a03001	 mov         r3, #1
  00830	e58d3020	 str         r3, [sp, #0x20]
  00834	ea000001	 b           |$LN10@StallEndpo|
  00838		 |$LN9@StallEndpo|
  00838	e3a03000	 mov         r3, #0
  0083c	e58d3020	 str         r3, [sp, #0x20]
  00840		 |$LN10@StallEndpo|

; 111  :     return ERROR_SUCCESS;

  00840	e3a03000	 mov         r3, #0
  00844	e58d3014	 str         r3, [sp, #0x14]

; 112  : }

  00848	e59d0014	 ldr         r0, [sp, #0x14]
  0084c	e28dd024	 add         sp, sp, #0x24
  00850	e89d6000	 ldmia       sp, {sp, lr}
  00854	e12fff1e	 bx          lr
  00858		 |$LN14@StallEndpo|
  00858		 |$LN15@StallEndpo|
  00858	00000000	 DCD         |??_C@_1BA@PLOOFDPK@?$AA?$CF?$AAs?$AA?5?$AA?9?$AA?9?$AA?$AN?$AA?6?$AA?$AA@|
  0085c		 |$LN16@StallEndpo|
  0085c	00000000	 DCD         |dpCurSettings|
  00860		 |$LN17@StallEndpo|
  00860	00000000	 DCD         |??_C@_1BA@DAJPCKDK@?$AA?$CF?$AAs?$AA?5?$AA?$CL?$AA?$CL?$AA?$AN?$AA?6?$AA?$AA@|
  00864		 |$LN18@StallEndpo|
  00864	00000000	 DCD         |??_C@_1FG@NEBCBPOL@?$AAb?$AAu?$AAl?$AAv?$AAe?$AAr?$AAd?$AAe?$AA_?$AAu?$AAs?$AAb?$AAf?$AAn?$AA?$CB?$AAB?$AAu?$AAl?$AAE?$AAn?$AAd?$AAp?$AAo?$AAi?$AAn?$AAt?$AA?3?$AA?3?$AAS?$AAt?$AAa?$AAl@|
  00868		 |$M38216|

			 ENDP  ; |?StallEndpoint@BulEndpoint@@UAAKXZ|, BulEndpoint::StallEndpoint

	EXPORT	|?ReadUDCRegister@BulUsbDevice@@QAAKK@Z| ; BulUsbDevice::ReadUDCRegister
; File c:\wince600\platform\common\src\soc\pxa27x_ms_v1\inc\bul_usbfn.h

  00000			 AREA	 |.pdata|, PDATA
|$T38233| DCD	|$LN9@ReadContro|
	DCD	0x40003804
; Function compile flags: /Odtp

  00000			 AREA	 |.text|, CODE, ARM

  00000		 |?ReadControlStatusRegister@BulEndpoint@@QAAKXZ| PROC ; BulEndpoint::ReadControlStatusRegister

; 276  :     DWORD   ReadControlStatusRegister() {

  00000		 |$LN9@ReadContro|
  00000	e1a0c00d	 mov         r12, sp
  00004	e92d0001	 stmdb       sp!, {r0}
  00008	e92d5000	 stmdb       sp!, {r12, lr}
  0000c	e24dd010	 sub         sp, sp, #0x10
  00010		 |$M38230|

; 277  :         PREFAST_ASSERT(m_pUsbDevice!=NULL);

  00010	e59d3018	 ldr         r3, [sp, #0x18]
  00014	e283301c	 add         r3, r3, #0x1C
  00018	e5933000	 ldr         r3, [r3]
  0001c	e3530000	 cmp         r3, #0
  00020	0a000002	 beq         |$LN3@ReadContro|
  00024	e3a03001	 mov         r3, #1
  00028	e58d3004	 str         r3, [sp, #4]
  0002c	ea000008	 b           |$LN4@ReadContro|
  00030		 |$LN3@ReadContro|
  00030	e3a03c01	 mov         r3, #1, 24
  00034	e3833015	 orr         r3, r3, #0x15
  00038	e59f209c	 ldr         r2, [pc, #0x9C]
  0003c	e59f1094	 ldr         r1, [pc, #0x94]
  00040	e59f008c	 ldr         r0, [pc, #0x8C]
  00044	eb000000	 bl          NKDbgPrintfW
  00048	e6000010	 __debugbreak_ce
  0004c	e3a03000	 mov         r3, #0
  00050	e58d3004	 str         r3, [sp, #4]
  00054		 |$LN4@ReadContro|

; 278  :         PREFAST_ASSERT(m_dwEndpointIndex<MAX_ENDPOINT_NUMBER);

  00054	e59d3018	 ldr         r3, [sp, #0x18]
  00058	e2833020	 add         r3, r3, #0x20
  0005c	e5933000	 ldr         r3, [r3]
  00060	e3530018	 cmp         r3, #0x18
  00064	2a000002	 bcs         |$LN5@ReadContro|
  00068	e3a03001	 mov         r3, #1
  0006c	e58d3008	 str         r3, [sp, #8]
  00070	ea000008	 b           |$LN6@ReadContro|
  00074		 |$LN5@ReadContro|
  00074	e3a03c01	 mov         r3, #1, 24
  00078	e3833016	 orr         r3, r3, #0x16
  0007c	e59f2058	 ldr         r2, [pc, #0x58]
  00080	e59f1050	 ldr         r1, [pc, #0x50]
  00084	e59f0048	 ldr         r0, [pc, #0x48]
  00088	eb000000	 bl          NKDbgPrintfW
  0008c	e6000010	 __debugbreak_ce
  00090	e3a03000	 mov         r3, #0
  00094	e58d3008	 str         r3, [sp, #8]
  00098		 |$LN6@ReadContro|

; 279  :         return m_pUsbDevice->ReadUDCRegister( ENDPOINT_CONTROL_STATUS_REGISTER_OFFSET + m_dwEndpointIndex);

  00098	e59d3018	 ldr         r3, [sp, #0x18]
  0009c	e2833020	 add         r3, r3, #0x20
  000a0	e5933000	 ldr         r3, [r3]
  000a4	e2831040	 add         r1, r3, #0x40
  000a8	e59d3018	 ldr         r3, [sp, #0x18]
  000ac	e283301c	 add         r3, r3, #0x1C
  000b0	e5930000	 ldr         r0, [r3]
  000b4	eb000000	 bl          |?ReadUDCRegister@BulUsbDevice@@QAAKK@Z|
  000b8	e58d000c	 str         r0, [sp, #0xC]
  000bc	e59d300c	 ldr         r3, [sp, #0xC]
  000c0	e58d3000	 str         r3, [sp]

; 280  :     }; 

  000c4	e59d0000	 ldr         r0, [sp]
  000c8	e28dd010	 add         sp, sp, #0x10
  000cc	e89d6000	 ldmia       sp, {sp, lr}
  000d0	e12fff1e	 bx          lr
  000d4		 |$LN10@ReadContro|
  000d4		 |$LN11@ReadContro|
  000d4	00000000	 DCD         |??_C@_1FK@FNONLNGN@?$AA?$CF?$AAs?$AA?3?$AA?5?$AAD?$AAE?$AAB?$AAU?$AAG?$AAC?$AAH?$AAK?$AA?5?$AAf?$AAa?$AAi?$AAl?$AAe?$AAd?$AA?5?$AAi?$AAn?$AA?5?$AAf?$AAi?$AAl?$AAe?$AA?5?$AA?$CF?$AAs?$AA?5?$AAa@|
  000d8		 |$LN12@ReadContro|
  000d8	00000000	 DCD         |??_C@_1BA@LEPJIIOK@?$AAU?$AAn?$AAk?$AAn?$AAo?$AAw?$AAn?$AA?$AA@|
  000dc		 |$LN13@ReadContro|
  000dc	00000000	 DCD         |??_C@_1CG@MKCCFBBJ@?$AA?4?$AA?4?$AA?2?$AAi?$AAn?$AAc?$AA?2?$AAb?$AAu?$AAl?$AA_?$AAu?$AAs?$AAb?$AAf?$AAn?$AA?4?$AAh?$AA?$AA@|
  000e0		 |$M38231|

			 ENDP  ; |?ReadControlStatusRegister@BulEndpoint@@QAAKXZ|, BulEndpoint::ReadControlStatusRegister

	IMPORT	|READ_REGISTER_ULONG|

  00000			 AREA	 |.pdata|, PDATA
|$T38247| DCD	|$LN7@ReadUDCReg|
	DCD	0x40002604
; Function compile flags: /Odtp

  00000			 AREA	 |.text|, CODE, ARM

  00000		 |?ReadUDCRegister@BulUsbDevice@@QAAKK@Z| PROC ; BulUsbDevice::ReadUDCRegister

; 125  :     DWORD ReadUDCRegister(DWORD dwOffset) {

  00000		 |$LN7@ReadUDCReg|
  00000	e1a0c00d	 mov         r12, sp
  00004	e92d0003	 stmdb       sp!, {r0, r1}
  00008	e92d5000	 stmdb       sp!, {r12, lr}
  0000c	e24dd00c	 sub         sp, sp, #0xC
  00010		 |$M38244|

; 126  :         PREFAST_ASSERT(m_pUsbDevReg!=NULL);

  00010	e59d3014	 ldr         r3, [sp, #0x14]
  00014	e2833098	 add         r3, r3, #0x98
  00018	e5933000	 ldr         r3, [r3]
  0001c	e3530000	 cmp         r3, #0
  00020	0a000002	 beq         |$LN3@ReadUDCReg|
  00024	e3a03001	 mov         r3, #1
  00028	e58d3004	 str         r3, [sp, #4]
  0002c	ea000007	 b           |$LN4@ReadUDCReg|
  00030		 |$LN3@ReadUDCReg|
  00030	e3a0307e	 mov         r3, #0x7E
  00034	e59f2058	 ldr         r2, [pc, #0x58]
  00038	e59f1050	 ldr         r1, [pc, #0x50]
  0003c	e59f0048	 ldr         r0, [pc, #0x48]
  00040	eb000000	 bl          NKDbgPrintfW
  00044	e6000010	 __debugbreak_ce
  00048	e3a03000	 mov         r3, #0
  0004c	e58d3004	 str         r3, [sp, #4]
  00050		 |$LN4@ReadUDCReg|

; 127  :         return READ_REGISTER_ULONG(m_pUsbDevReg + dwOffset);

  00050	e59d3014	 ldr         r3, [sp, #0x14]
  00054	e2830098	 add         r0, r3, #0x98
  00058	e59d1018	 ldr         r1, [sp, #0x18]
  0005c	e3a03004	 mov         r3, #4
  00060	e0020391	 mul         r2, r1, r3
  00064	e5903000	 ldr         r3, [r0]
  00068	e0830002	 add         r0, r3, r2
  0006c	eb000000	 bl          READ_REGISTER_ULONG
  00070	e58d0008	 str         r0, [sp, #8]
  00074	e59d3008	 ldr         r3, [sp, #8]
  00078	e58d3000	 str         r3, [sp]

; 128  :     }

  0007c	e59d0000	 ldr         r0, [sp]
  00080	e28dd00c	 add         sp, sp, #0xC
  00084	e89d6000	 ldmia       sp, {sp, lr}
  00088	e12fff1e	 bx          lr
  0008c		 |$LN8@ReadUDCReg|
  0008c		 |$LN9@ReadUDCReg|
  0008c	00000000	 DCD         |??_C@_1FK@FNONLNGN@?$AA?$CF?$AAs?$AA?3?$AA?5?$AAD?$AAE?$AAB?$AAU?$AAG?$AAC?$AAH?$AAK?$AA?5?$AAf?$AAa?$AAi?$AAl?$AAe?$AAd?$AA?5?$AAi?$AAn?$AA?5?$AAf?$AAi?$AAl?$AAe?$AA?5?$AA?$CF?$AAs?$AA?5?$AAa@|
  00090		 |$LN10@ReadUDCReg|
  00090	00000000	 DCD         |??_C@_1BA@LEPJIIOK@?$AAU?$AAn?$AAk?$AAn?$AAo?$AAw?$AAn?$AA?$AA@|
  00094		 |$LN11@ReadUDCReg|
  00094	00000000	 DCD         |??_C@_1CG@MKCCFBBJ@?$AA?4?$AA?4?$AA?2?$AAi?$AAn?$AAc?$AA?2?$AAb?$AAu?$AAl?$AA_?$AAu?$AAs?$AAb?$AAf?$AAn?$AA?4?$AAh?$AA?$AA@|
  00098		 |$M38245|

			 ENDP  ; |?ReadUDCRegister@BulUsbDevice@@QAAKK@Z|, BulUsbDevice::ReadUDCRegister

	EXPORT	|?ClearEndpointStall@BulEndpoint@@UAAKXZ| ; BulEndpoint::ClearEndpointStall

  00020			 AREA	 |.pdata|, PDATA
|$T38259| DCD	|$LN5@ClearEndpo|
	DCD	0x40001404
; Function compile flags: /Odtp
; File c:\wince600\platform\common\src\soc\pxa27x_ms_v1\usbfn\bul_usbfn.cpp

  00868			 AREA	 |.text|, CODE, ARM

  00868		 |?ClearEndpointStall@BulEndpoint@@UAAKXZ| PROC ; BulEndpoint::ClearEndpointStall

; 114  : {

  00868		 |$LN5@ClearEndpo|
  00868	e1a0c00d	 mov         r12, sp
  0086c	e92d0001	 stmdb       sp!, {r0}
  00870	e92d5000	 stmdb       sp!, {r12, lr}
  00874	e24dd004	 sub         sp, sp, #4
  00878		 |$M38256|

; 115  :     Lock();

  00878	e59d300c	 ldr         r3, [sp, #0xC]
  0087c	e2830008	 add         r0, r3, #8
  00880	eb000000	 bl          |?Lock@CLockObject@@QAAXXZ|

; 116  :     m_fStalled = FALSE;

  00884	e59d300c	 ldr         r3, [sp, #0xC]
  00888	e283203c	 add         r2, r3, #0x3C
  0088c	e3a03000	 mov         r3, #0
  00890	e5823000	 str         r3, [r2]

; 117  :     Unlock();

  00894	e59d300c	 ldr         r3, [sp, #0xC]
  00898	e2830008	 add         r0, r3, #8
  0089c	eb000000	 bl          |?Unlock@CLockObject@@QAAXXZ|

; 118  :     return ERROR_SUCCESS;

  008a0	e3a03000	 mov         r3, #0
  008a4	e58d3000	 str         r3, [sp]

; 119  : }

  008a8	e59d0000	 ldr         r0, [sp]
  008ac	e28dd004	 add         sp, sp, #4
  008b0	e89d6000	 ldmia       sp, {sp, lr}
  008b4	e12fff1e	 bx          lr
  008b8		 |$M38257|

			 ENDP  ; |?ClearEndpointStall@BulEndpoint@@UAAKXZ|, BulEndpoint::ClearEndpointStall

	EXPORT	|??_C@_1GA@EJFDCHFE@?$AAR?$AAe?$AAs?$AAe?$AAt?$AAE?$AAn?$AAd?$AAp?$AAo?$AAi?$AAn?$AAt?$AA?9?$AA?5?$AA?$CI?$AA?$CF?$AAd?$AA?$CJ?$AA?5?$AAU?$AAD?$AAC?$AAC?$AAS?$AAR?$AA?5?$AA?$DN?$AA0?$AAx?$AA?$CF?$AAx@| [ DATA ] ; `string'
	EXPORT	|??_C@_1GA@EFHGLAGP@?$AAR?$AAe?$AAs?$AAe?$AAt?$AAE?$AAn?$AAd?$AAp?$AAo?$AAi?$AAn?$AAt?$AA?$CL?$AA?5?$AA?$CI?$AA?$CF?$AAd?$AA?$CJ?$AA?5?$AAU?$AAD?$AAC?$AAC?$AAS?$AAR?$AA?5?$AA?$DN?$AA0?$AAx?$AA?$CF?$AAx@| [ DATA ] ; `string'
	EXPORT	|?ReadConfigurationRegister@BulEndpoint@@QAAKXZ| ; BulEndpoint::ReadConfigurationRegister
	EXPORT	|??_C@_1FG@OBMPFOB@?$AAb?$AAu?$AAl?$AAv?$AAe?$AAr?$AAd?$AAe?$AA_?$AAu?$AAs?$AAb?$AAf?$AAn?$AA?$CB?$AAB?$AAu?$AAl?$AAE?$AAn?$AAd?$AAp?$AAo?$AAi?$AAn?$AAt?$AA?3?$AA?3?$AAR?$AAe?$AAs?$AAe@| [ DATA ] ; `string'
	EXPORT	|?ResetEndpoint@BulEndpoint@@UAAKXZ|	; BulEndpoint::ResetEndpoint

  00028			 AREA	 |.pdata|, PDATA
|$T38281| DCD	|$LN21@ResetEndpo|
	DCD	0x4000a404

  00000			 AREA	 |.rdata|, DATA, READONLY
|??_C@_1GA@EJFDCHFE@?$AAR?$AAe?$AAs?$AAe?$AAt?$AAE?$AAn?$AAd?$AAp?$AAo?$AAi?$AAn?$AAt?$AA?9?$AA?5?$AA?$CI?$AA?$CF?$AAd?$AA?$CJ?$AA?5?$AAU?$AAD?$AAC?$AAC?$AAS?$AAR?$AA?5?$AA?$DN?$AA0?$AAx?$AA?$CF?$AAx@| DCB "R"
	DCB	0x0, "e", 0x0, "s", 0x0, "e", 0x0, "t", 0x0, "E", 0x0, "n"
	DCB	0x0, "d", 0x0, "p", 0x0, "o", 0x0, "i", 0x0, "n", 0x0, "t"
	DCB	0x0, "-", 0x0, " ", 0x0, "(", 0x0, "%", 0x0, "d", 0x0, ")"
	DCB	0x0, " ", 0x0, "U", 0x0, "D", 0x0, "C", 0x0, "C", 0x0, "S"
	DCB	0x0, "R", 0x0, " ", 0x0, "=", 0x0, "0", 0x0, "x", 0x0, "%"
	DCB	0x0, "x", 0x0, " ", 0x0, "U", 0x0, "D", 0x0, "C", 0x0, "C"
	DCB	0x0, "R", 0x0, "A", 0x0, "X", 0x0, " ", 0x0, "=", 0x0, " "
	DCB	0x0, "0", 0x0, "x", 0x0, "%", 0x0, "x", 0x0, 0x0, 0x0 ; `string'

  00000			 AREA	 |.rdata|, DATA, READONLY
|??_C@_1GA@EFHGLAGP@?$AAR?$AAe?$AAs?$AAe?$AAt?$AAE?$AAn?$AAd?$AAp?$AAo?$AAi?$AAn?$AAt?$AA?$CL?$AA?5?$AA?$CI?$AA?$CF?$AAd?$AA?$CJ?$AA?5?$AAU?$AAD?$AAC?$AAC?$AAS?$AAR?$AA?5?$AA?$DN?$AA0?$AAx?$AA?$CF?$AAx@| DCB "R"
	DCB	0x0, "e", 0x0, "s", 0x0, "e", 0x0, "t", 0x0, "E", 0x0, "n"
	DCB	0x0, "d", 0x0, "p", 0x0, "o", 0x0, "i", 0x0, "n", 0x0, "t"
	DCB	0x0, "+", 0x0, " ", 0x0, "(", 0x0, "%", 0x0, "d", 0x0, ")"
	DCB	0x0, " ", 0x0, "U", 0x0, "D", 0x0, "C", 0x0, "C", 0x0, "S"
	DCB	0x0, "R", 0x0, " ", 0x0, "=", 0x0, "0", 0x0, "x", 0x0, "%"
	DCB	0x0, "x", 0x0, " ", 0x0, "U", 0x0, "D", 0x0, "C", 0x0, "C"
	DCB	0x0, "R", 0x0, "A", 0x0, "X", 0x0, " ", 0x0, "=", 0x0, " "
	DCB	0x0, "0", 0x0, "x", 0x0, "%", 0x0, "x", 0x0, 0x0, 0x0 ; `string'

  00000			 AREA	 |.rdata|, DATA, READONLY
|??_C@_1FG@OBMPFOB@?$AAb?$AAu?$AAl?$AAv?$AAe?$AAr?$AAd?$AAe?$AA_?$AAu?$AAs?$AAb?$AAf?$AAn?$AA?$CB?$AAB?$AAu?$AAl?$AAE?$AAn?$AAd?$AAp?$AAo?$AAi?$AAn?$AAt?$AA?3?$AA?3?$AAR?$AAe?$AAs?$AAe@| DCB "b"
	DCB	0x0, "u", 0x0, "l", 0x0, "v", 0x0, "e", 0x0, "r", 0x0, "d"
	DCB	0x0, "e", 0x0, "_", 0x0, "u", 0x0, "s", 0x0, "b", 0x0, "f"
	DCB	0x0, "n", 0x0, "!", 0x0, "B", 0x0, "u", 0x0, "l", 0x0, "E"
	DCB	0x0, "n", 0x0, "d", 0x0, "p", 0x0, "o", 0x0, "i", 0x0, "n"
	DCB	0x0, "t", 0x0, ":", 0x0, ":", 0x0, "R", 0x0, "e", 0x0, "s"
	DCB	0x0, "e", 0x0, "t", 0x0, "E", 0x0, "n", 0x0, "d", 0x0, "p"
	DCB	0x0, "o", 0x0, "i", 0x0, "n", 0x0, "t", 0x0, ":", 0x0, 0x0
	DCB	0x0					; `string'
; Function compile flags: /Odtp

  008b8			 AREA	 |.text|, CODE, ARM

  008b8		 |?ResetEndpoint@BulEndpoint@@UAAKXZ| PROC ; BulEndpoint::ResetEndpoint

; 121  : {

  008b8		 |$LN21@ResetEndpo|
  008b8	e1a0c00d	 mov         r12, sp
  008bc	e92d0001	 stmdb       sp!, {r0}
  008c0	e92d5000	 stmdb       sp!, {r12, lr}
  008c4	e24dd044	 sub         sp, sp, #0x44
  008c8		 |$M38278|

; 122  :     UDCCSR udccsr;
; 123  :     SETFNAME();

  008c8	e59f3274	 ldr         r3, [pc, #0x274]
  008cc	e58d3000	 str         r3, [sp]

; 124  :     FUNCTION_ENTER_MSG();

  008d0	e59f325c	 ldr         r3, [pc, #0x25C]
  008d4	e5933440	 ldr         r3, [r3, #0x440]
  008d8	e3130a01	 tst         r3, #1, 20
  008dc	0a00000d	 beq         |$LN5@ResetEndpo|
  008e0	e59f324c	 ldr         r3, [pc, #0x24C]
  008e4	e5933440	 ldr         r3, [r3, #0x440]
  008e8	e3130801	 tst         r3, #1, 16
  008ec	0a000003	 beq         |$LN3@ResetEndpo|
  008f0	e59d1000	 ldr         r1, [sp]
  008f4	e59f0244	 ldr         r0, [pc, #0x244]
  008f8	eb000000	 bl          CeLogMsg
  008fc	ea000002	 b           |$LN4@ResetEndpo|
  00900		 |$LN3@ResetEndpo|
  00900	e59d1000	 ldr         r1, [sp]
  00904	e59f0234	 ldr         r0, [pc, #0x234]
  00908	eb000000	 bl          NKDbgPrintfW
  0090c		 |$LN4@ResetEndpo|
  0090c	e3a03001	 mov         r3, #1
  00910	e58d3010	 str         r3, [sp, #0x10]
  00914	ea000001	 b           |$LN6@ResetEndpo|
  00918		 |$LN5@ResetEndpo|
  00918	e3a03000	 mov         r3, #0
  0091c	e58d3010	 str         r3, [sp, #0x10]
  00920		 |$LN6@ResetEndpo|

; 125  :     DEBUGMSG(ZONE_WARNING, (_T("ResetEndpoint+ (%d) UDCCSR =0x%x UDCCRAX = 0x%x"),m_dwEndpointIndex, ReadControlStatusRegister(),ReadConfigurationRegister()));

  00920	e59f320c	 ldr         r3, [pc, #0x20C]
  00924	e5933440	 ldr         r3, [r3, #0x440]
  00928	e3130002	 tst         r3, #2
  0092c	0a000021	 beq         |$LN9@ResetEndpo|
  00930	e59f31fc	 ldr         r3, [pc, #0x1FC]
  00934	e5933440	 ldr         r3, [r3, #0x440]
  00938	e3130801	 tst         r3, #1, 16
  0093c	0a00000d	 beq         |$LN7@ResetEndpo|
  00940	e59d004c	 ldr         r0, [sp, #0x4C]
  00944	eb000000	 bl          |?ReadConfigurationRegister@BulEndpoint@@QAAKXZ|
  00948	e58d0014	 str         r0, [sp, #0x14]
  0094c	e59d004c	 ldr         r0, [sp, #0x4C]
  00950	eb000000	 bl          |?ReadControlStatusRegister@BulEndpoint@@QAAKXZ|
  00954	e58d0018	 str         r0, [sp, #0x18]
  00958	e59d3014	 ldr         r3, [sp, #0x14]
  0095c	e59d2018	 ldr         r2, [sp, #0x18]
  00960	e59d104c	 ldr         r1, [sp, #0x4C]
  00964	e2811020	 add         r1, r1, #0x20
  00968	e5911000	 ldr         r1, [r1]
  0096c	e59f01c8	 ldr         r0, [pc, #0x1C8]
  00970	eb000000	 bl          CeLogMsg
  00974	ea00000c	 b           |$LN8@ResetEndpo|
  00978		 |$LN7@ResetEndpo|
  00978	e59d004c	 ldr         r0, [sp, #0x4C]
  0097c	eb000000	 bl          |?ReadConfigurationRegister@BulEndpoint@@QAAKXZ|
  00980	e58d001c	 str         r0, [sp, #0x1C]
  00984	e59d004c	 ldr         r0, [sp, #0x4C]
  00988	eb000000	 bl          |?ReadControlStatusRegister@BulEndpoint@@QAAKXZ|
  0098c	e58d0020	 str         r0, [sp, #0x20]
  00990	e59d301c	 ldr         r3, [sp, #0x1C]
  00994	e59d2020	 ldr         r2, [sp, #0x20]
  00998	e59d104c	 ldr         r1, [sp, #0x4C]
  0099c	e2811020	 add         r1, r1, #0x20
  009a0	e5911000	 ldr         r1, [r1]
  009a4	e59f0190	 ldr         r0, [pc, #0x190]
  009a8	eb000000	 bl          NKDbgPrintfW
  009ac		 |$LN8@ResetEndpo|
  009ac	e3a03001	 mov         r3, #1
  009b0	e58d3024	 str         r3, [sp, #0x24]
  009b4	ea000001	 b           |$LN10@ResetEndpo|
  009b8		 |$LN9@ResetEndpo|
  009b8	e3a03000	 mov         r3, #0
  009bc	e58d3024	 str         r3, [sp, #0x24]
  009c0		 |$LN10@ResetEndpo|

; 126  :     Lock();

  009c0	e59d304c	 ldr         r3, [sp, #0x4C]
  009c4	e2830008	 add         r0, r3, #8
  009c8	eb000000	 bl          |?Lock@CLockObject@@QAAXXZ|

; 127  :     udccsr.ulValue = ReadControlStatusRegister();

  009cc	e59d004c	 ldr         r0, [sp, #0x4C]
  009d0	eb000000	 bl          |?ReadControlStatusRegister@BulEndpoint@@QAAKXZ|
  009d4	e58d0028	 str         r0, [sp, #0x28]
  009d8	e59d3028	 ldr         r3, [sp, #0x28]
  009dc	e58d3004	 str         r3, [sp, #4]

; 128  :     udccsr.epbit.PC = udccsr.epbit.TRN= udccsr.epbit.SST = udccsr.epbit.FEF =1;

  009e0	e59d3004	 ldr         r3, [sp, #4]
  009e4	e3833c01	 orr         r3, r3, #1, 24
  009e8	e58d3004	 str         r3, [sp, #4]
  009ec	e59d3004	 ldr         r3, [sp, #4]
  009f0	e3833010	 orr         r3, r3, #0x10
  009f4	e58d3004	 str         r3, [sp, #4]
  009f8	e59d3004	 ldr         r3, [sp, #4]
  009fc	e3833004	 orr         r3, r3, #4
  00a00	e58d3004	 str         r3, [sp, #4]
  00a04	e59d3004	 ldr         r3, [sp, #4]
  00a08	e3833002	 orr         r3, r3, #2
  00a0c	e58d3004	 str         r3, [sp, #4]

; 129  :     WriteControlStatusRegister(udccsr.ulValue);

  00a10	e59d1004	 ldr         r1, [sp, #4]
  00a14	e59d004c	 ldr         r0, [sp, #0x4C]
  00a18	eb000000	 bl          |?WriteControlStatusRegister@BulEndpoint@@QAAXK@Z|

; 130  :     Unlock();

  00a1c	e59d304c	 ldr         r3, [sp, #0x4C]
  00a20	e2830008	 add         r0, r3, #8
  00a24	eb000000	 bl          |?Unlock@CLockObject@@QAAXXZ|

; 131  :     DEBUGMSG(ZONE_WARNING, (_T("ResetEndpoint- (%d) UDCCSR =0x%x UDCCRAX = 0x%x"),m_dwEndpointIndex, ReadControlStatusRegister(),ReadConfigurationRegister()));

  00a28	e59f3104	 ldr         r3, [pc, #0x104]
  00a2c	e5933440	 ldr         r3, [r3, #0x440]
  00a30	e3130002	 tst         r3, #2
  00a34	0a000021	 beq         |$LN13@ResetEndpo|
  00a38	e59f30f4	 ldr         r3, [pc, #0xF4]
  00a3c	e5933440	 ldr         r3, [r3, #0x440]
  00a40	e3130801	 tst         r3, #1, 16
  00a44	0a00000d	 beq         |$LN11@ResetEndpo|
  00a48	e59d004c	 ldr         r0, [sp, #0x4C]
  00a4c	eb000000	 bl          |?ReadConfigurationRegister@BulEndpoint@@QAAKXZ|
  00a50	e58d002c	 str         r0, [sp, #0x2C]
  00a54	e59d004c	 ldr         r0, [sp, #0x4C]
  00a58	eb000000	 bl          |?ReadControlStatusRegister@BulEndpoint@@QAAKXZ|
  00a5c	e58d0030	 str         r0, [sp, #0x30]
  00a60	e59d302c	 ldr         r3, [sp, #0x2C]
  00a64	e59d2030	 ldr         r2, [sp, #0x30]
  00a68	e59d104c	 ldr         r1, [sp, #0x4C]
  00a6c	e2811020	 add         r1, r1, #0x20
  00a70	e5911000	 ldr         r1, [r1]
  00a74	e59f00bc	 ldr         r0, [pc, #0xBC]
  00a78	eb000000	 bl          CeLogMsg
  00a7c	ea00000c	 b           |$LN12@ResetEndpo|
  00a80		 |$LN11@ResetEndpo|
  00a80	e59d004c	 ldr         r0, [sp, #0x4C]
  00a84	eb000000	 bl          |?ReadConfigurationRegister@BulEndpoint@@QAAKXZ|
  00a88	e58d0034	 str         r0, [sp, #0x34]
  00a8c	e59d004c	 ldr         r0, [sp, #0x4C]
  00a90	eb000000	 bl          |?ReadControlStatusRegister@BulEndpoint@@QAAKXZ|
  00a94	e58d0038	 str         r0, [sp, #0x38]
  00a98	e59d3034	 ldr         r3, [sp, #0x34]
  00a9c	e59d2038	 ldr         r2, [sp, #0x38]
  00aa0	e59d104c	 ldr         r1, [sp, #0x4C]
  00aa4	e2811020	 add         r1, r1, #0x20
  00aa8	e5911000	 ldr         r1, [r1]
  00aac	e59f0084	 ldr         r0, [pc, #0x84]
  00ab0	eb000000	 bl          NKDbgPrintfW
  00ab4		 |$LN12@ResetEndpo|
  00ab4	e3a03001	 mov         r3, #1
  00ab8	e58d303c	 str         r3, [sp, #0x3C]
  00abc	ea000001	 b           |$LN14@ResetEndpo|
  00ac0		 |$LN13@ResetEndpo|
  00ac0	e3a03000	 mov         r3, #0
  00ac4	e58d303c	 str         r3, [sp, #0x3C]
  00ac8		 |$LN14@ResetEndpo|

; 132  :     FUNCTION_LEAVE_MSG();

  00ac8	e59f3064	 ldr         r3, [pc, #0x64]
  00acc	e5933440	 ldr         r3, [r3, #0x440]
  00ad0	e3130a01	 tst         r3, #1, 20
  00ad4	0a00000d	 beq         |$LN17@ResetEndpo|
  00ad8	e59f3054	 ldr         r3, [pc, #0x54]
  00adc	e5933440	 ldr         r3, [r3, #0x440]
  00ae0	e3130801	 tst         r3, #1, 16
  00ae4	0a000003	 beq         |$LN15@ResetEndpo|
  00ae8	e59d1000	 ldr         r1, [sp]
  00aec	e59f003c	 ldr         r0, [pc, #0x3C]
  00af0	eb000000	 bl          CeLogMsg
  00af4	ea000002	 b           |$LN16@ResetEndpo|
  00af8		 |$LN15@ResetEndpo|
  00af8	e59d1000	 ldr         r1, [sp]
  00afc	e59f002c	 ldr         r0, [pc, #0x2C]
  00b00	eb000000	 bl          NKDbgPrintfW
  00b04		 |$LN16@ResetEndpo|
  00b04	e3a03001	 mov         r3, #1
  00b08	e58d3040	 str         r3, [sp, #0x40]
  00b0c	ea000001	 b           |$LN18@ResetEndpo|
  00b10		 |$LN17@ResetEndpo|
  00b10	e3a03000	 mov         r3, #0
  00b14	e58d3040	 str         r3, [sp, #0x40]
  00b18		 |$LN18@ResetEndpo|

; 133  :     return ERROR_SUCCESS;

  00b18	e3a03000	 mov         r3, #0
  00b1c	e58d300c	 str         r3, [sp, #0xC]

; 134  : }

  00b20	e59d000c	 ldr         r0, [sp, #0xC]
  00b24	e28dd044	 add         sp, sp, #0x44
  00b28	e89d6000	 ldmia       sp, {sp, lr}
  00b2c	e12fff1e	 bx          lr
  00b30		 |$LN22@ResetEndpo|
  00b30		 |$LN23@ResetEndpo|
  00b30	00000000	 DCD         |??_C@_1BA@PLOOFDPK@?$AA?$CF?$AAs?$AA?5?$AA?9?$AA?9?$AA?$AN?$AA?6?$AA?$AA@|
  00b34		 |$LN24@ResetEndpo|
  00b34	00000000	 DCD         |dpCurSettings|
  00b38		 |$LN25@ResetEndpo|
  00b38	00000000	 DCD         |??_C@_1GA@EJFDCHFE@?$AAR?$AAe?$AAs?$AAe?$AAt?$AAE?$AAn?$AAd?$AAp?$AAo?$AAi?$AAn?$AAt?$AA?9?$AA?5?$AA?$CI?$AA?$CF?$AAd?$AA?$CJ?$AA?5?$AAU?$AAD?$AAC?$AAC?$AAS?$AAR?$AA?5?$AA?$DN?$AA0?$AAx?$AA?$CF?$AAx@|
  00b3c		 |$LN26@ResetEndpo|
  00b3c	00000000	 DCD         |??_C@_1GA@EFHGLAGP@?$AAR?$AAe?$AAs?$AAe?$AAt?$AAE?$AAn?$AAd?$AAp?$AAo?$AAi?$AAn?$AAt?$AA?$CL?$AA?5?$AA?$CI?$AA?$CF?$AAd?$AA?$CJ?$AA?5?$AAU?$AAD?$AAC?$AAC?$AAS?$AAR?$AA?5?$AA?$DN?$AA0?$AAx?$AA?$CF?$AAx@|
  00b40		 |$LN27@ResetEndpo|
  00b40	00000000	 DCD         |??_C@_1BA@DAJPCKDK@?$AA?$CF?$AAs?$AA?5?$AA?$CL?$AA?$CL?$AA?$AN?$AA?6?$AA?$AA@|
  00b44		 |$LN28@ResetEndpo|
  00b44	00000000	 DCD         |??_C@_1FG@OBMPFOB@?$AAb?$AAu?$AAl?$AAv?$AAe?$AAr?$AAd?$AAe?$AA_?$AAu?$AAs?$AAb?$AAf?$AAn?$AA?$CB?$AAB?$AAu?$AAl?$AAE?$AAn?$AAd?$AAp?$AAo?$AAi?$AAn?$AAt?$AA?3?$AA?3?$AAR?$AAe?$AAs?$AAe@|
  00b48		 |$M38279|

			 ENDP  ; |?ResetEndpoint@BulEndpoint@@UAAKXZ|, BulEndpoint::ResetEndpoint

; File c:\wince600\platform\common\src\soc\pxa27x_ms_v1\inc\bul_usbfn.h

  00000			 AREA	 |.pdata|, PDATA
|$T38300| DCD	|$LN13@ReadConfig|
	DCD	0x40004d04
; Function compile flags: /Odtp

  00000			 AREA	 |.text|, CODE, ARM

  00000		 |?ReadConfigurationRegister@BulEndpoint@@QAAKXZ| PROC ; BulEndpoint::ReadConfigurationRegister

; 315  :     DWORD   ReadConfigurationRegister() {

  00000		 |$LN13@ReadConfig|
  00000	e1a0c00d	 mov         r12, sp
  00004	e92d0001	 stmdb       sp!, {r0}
  00008	e92d5000	 stmdb       sp!, {r12, lr}
  0000c	e24dd014	 sub         sp, sp, #0x14
  00010		 |$M38297|

; 316  :         PREFAST_ASSERT(m_pUsbDevice!=NULL);

  00010	e59d301c	 ldr         r3, [sp, #0x1C]
  00014	e283301c	 add         r3, r3, #0x1C
  00018	e5933000	 ldr         r3, [r3]
  0001c	e3530000	 cmp         r3, #0
  00020	0a000002	 beq         |$LN5@ReadConfig|
  00024	e3a03001	 mov         r3, #1
  00028	e58d3004	 str         r3, [sp, #4]
  0002c	ea000007	 b           |$LN6@ReadConfig|
  00030		 |$LN5@ReadConfig|
  00030	e3a03f4f	 mov         r3, #0x4F, 30
  00034	e59f20f4	 ldr         r2, [pc, #0xF4]
  00038	e59f10ec	 ldr         r1, [pc, #0xEC]
  0003c	e59f00e4	 ldr         r0, [pc, #0xE4]
  00040	eb000000	 bl          NKDbgPrintfW
  00044	e6000010	 __debugbreak_ce
  00048	e3a03000	 mov         r3, #0
  0004c	e58d3004	 str         r3, [sp, #4]
  00050		 |$LN6@ReadConfig|

; 317  :         PREFAST_ASSERT(m_dwEndpointIndex<MAX_ENDPOINT_NUMBER);

  00050	e59d301c	 ldr         r3, [sp, #0x1C]
  00054	e2833020	 add         r3, r3, #0x20
  00058	e5933000	 ldr         r3, [r3]
  0005c	e3530018	 cmp         r3, #0x18
  00060	2a000002	 bcs         |$LN7@ReadConfig|
  00064	e3a03001	 mov         r3, #1
  00068	e58d3008	 str         r3, [sp, #8]
  0006c	ea000008	 b           |$LN8@ReadConfig|
  00070		 |$LN7@ReadConfig|
  00070	e3a03c01	 mov         r3, #1, 24
  00074	e383303d	 orr         r3, r3, #0x3D
  00078	e59f20b0	 ldr         r2, [pc, #0xB0]
  0007c	e59f10a8	 ldr         r1, [pc, #0xA8]
  00080	e59f00a0	 ldr         r0, [pc, #0xA0]
  00084	eb000000	 bl          NKDbgPrintfW
  00088	e6000010	 __debugbreak_ce
  0008c	e3a03000	 mov         r3, #0
  00090	e58d3008	 str         r3, [sp, #8]
  00094		 |$LN8@ReadConfig|

; 318  :         if (m_pUsbDevice!=0) { // Endpoint ZERO is not supported

  00094	e59d301c	 ldr         r3, [sp, #0x1C]
  00098	e283301c	 add         r3, r3, #0x1C
  0009c	e5933000	 ldr         r3, [r3]
  000a0	e3530000	 cmp         r3, #0
  000a4	0a00000c	 beq         |$LN2@ReadConfig|

; 319  :             return m_pUsbDevice->ReadUDCRegister( ENDPOINT_CONFIGURATION_REGISTER_OFFSET + m_dwEndpointIndex );

  000a8	e59d301c	 ldr         r3, [sp, #0x1C]
  000ac	e2833020	 add         r3, r3, #0x20
  000b0	e5933000	 ldr         r3, [r3]
  000b4	e2831c01	 add         r1, r3, #1, 24
  000b8	e59d301c	 ldr         r3, [sp, #0x1C]
  000bc	e283301c	 add         r3, r3, #0x1C
  000c0	e5930000	 ldr         r0, [r3]
  000c4	eb000000	 bl          |?ReadUDCRegister@BulUsbDevice@@QAAKK@Z|
  000c8	e58d000c	 str         r0, [sp, #0xC]
  000cc	e59d300c	 ldr         r3, [sp, #0xC]
  000d0	e58d3000	 str         r3, [sp]
  000d4	ea00000f	 b           |$LN3@ReadConfig|

; 320  :         }
; 321  :         else {

  000d8	ea00000e	 b           |$LN1@ReadConfig|
  000dc		 |$LN2@ReadConfig|

; 322  :             ASSERT(FALSE);

  000dc	ea000002	 b           |$LN9@ReadConfig|
  000e0	e3a03001	 mov         r3, #1
  000e4	e58d3010	 str         r3, [sp, #0x10]
  000e8	ea000008	 b           |$LN10@ReadConfig|
  000ec		 |$LN9@ReadConfig|
  000ec	e3a03c01	 mov         r3, #1, 24
  000f0	e3833042	 orr         r3, r3, #0x42
  000f4	e59f2034	 ldr         r2, [pc, #0x34]
  000f8	e59f102c	 ldr         r1, [pc, #0x2C]
  000fc	e59f0024	 ldr         r0, [pc, #0x24]
  00100	eb000000	 bl          NKDbgPrintfW
  00104	e6000010	 __debugbreak_ce
  00108	e3a03000	 mov         r3, #0
  0010c	e58d3010	 str         r3, [sp, #0x10]
  00110		 |$LN10@ReadConfig|

; 323  :             return 0;

  00110	e3a03000	 mov         r3, #0
  00114	e58d3000	 str         r3, [sp]
  00118		 |$LN1@ReadConfig|
  00118		 |$LN3@ReadConfig|

; 324  :         }
; 325  :     }

  00118	e59d0000	 ldr         r0, [sp]
  0011c	e28dd014	 add         sp, sp, #0x14
  00120	e89d6000	 ldmia       sp, {sp, lr}
  00124	e12fff1e	 bx          lr
  00128		 |$LN14@ReadConfig|
  00128		 |$LN15@ReadConfig|
  00128	00000000	 DCD         |??_C@_1FK@FNONLNGN@?$AA?$CF?$AAs?$AA?3?$AA?5?$AAD?$AAE?$AAB?$AAU?$AAG?$AAC?$AAH?$AAK?$AA?5?$AAf?$AAa?$AAi?$AAl?$AAe?$AAd?$AA?5?$AAi?$AAn?$AA?5?$AAf?$AAi?$AAl?$AAe?$AA?5?$AA?$CF?$AAs?$AA?5?$AAa@|
  0012c		 |$LN16@ReadConfig|
  0012c	00000000	 DCD         |??_C@_1BA@LEPJIIOK@?$AAU?$AAn?$AAk?$AAn?$AAo?$AAw?$AAn?$AA?$AA@|
  00130		 |$LN17@ReadConfig|
  00130	00000000	 DCD         |??_C@_1CG@MKCCFBBJ@?$AA?4?$AA?4?$AA?2?$AAi?$AAn?$AAc?$AA?2?$AAb?$AAu?$AAl?$AA_?$AAu?$AAs?$AAb?$AAf?$AAn?$AA?4?$AAh?$AA?$AA@|
  00134		 |$M38298|

			 ENDP  ; |?ReadConfigurationRegister@BulEndpoint@@QAAKXZ|, BulEndpoint::ReadConfigurationRegister

	EXPORT	|?IsEndpointHalted@BulEndpoint@@UAAKPAH@Z| ; BulEndpoint::IsEndpointHalted

  00030			 AREA	 |.pdata|, PDATA
|$T38312| DCD	|$LN7@IsEndpoint|
	DCD	0x40002504
; Function compile flags: /Odtp
; File c:\wince600\platform\common\src\soc\pxa27x_ms_v1\usbfn\bul_usbfn.cpp

  00b48			 AREA	 |.text|, CODE, ARM

  00b48		 |?IsEndpointHalted@BulEndpoint@@UAAKPAH@Z| PROC ; BulEndpoint::IsEndpointHalted

; 136  : {

  00b48		 |$LN7@IsEndpoint|
  00b48	e1a0c00d	 mov         r12, sp
  00b4c	e92d0003	 stmdb       sp!, {r0, r1}
  00b50	e92d5000	 stmdb       sp!, {r12, lr}
  00b54	e24dd004	 sub         sp, sp, #4
  00b58		 |$M38309|

; 137  :     Lock();

  00b58	e59d300c	 ldr         r3, [sp, #0xC]
  00b5c	e2830008	 add         r0, r3, #8
  00b60	eb000000	 bl          |?Lock@CLockObject@@QAAXXZ|

; 138  :     if (m_fStalled)

  00b64	e59d300c	 ldr         r3, [sp, #0xC]
  00b68	e283303c	 add         r3, r3, #0x3C
  00b6c	e5933000	 ldr         r3, [r3]
  00b70	e3530000	 cmp         r3, #0
  00b74	0a000007	 beq         |$LN2@IsEndpoint|

; 139  :         IST(0);

  00b78	e3a01000	 mov         r1, #0
  00b7c	e59d300c	 ldr         r3, [sp, #0xC]
  00b80	e5933000	 ldr         r3, [r3]
  00b84	e2833030	 add         r3, r3, #0x30
  00b88	e59d000c	 ldr         r0, [sp, #0xC]
  00b8c	e5933000	 ldr         r3, [r3]
  00b90	e1a0e00f	 mov         lr, pc
  00b94	e12fff13	 bx          r3
  00b98		 |$LN2@IsEndpoint|

; 140  :     if (pfHalted)

  00b98	e59d3010	 ldr         r3, [sp, #0x10]
  00b9c	e3530000	 cmp         r3, #0
  00ba0	0a000004	 beq         |$LN1@IsEndpoint|

; 141  :         *pfHalted = m_fStalled;

  00ba4	e59d300c	 ldr         r3, [sp, #0xC]
  00ba8	e283303c	 add         r3, r3, #0x3C
  00bac	e5932000	 ldr         r2, [r3]
  00bb0	e59d3010	 ldr         r3, [sp, #0x10]
  00bb4	e5832000	 str         r2, [r3]
  00bb8		 |$LN1@IsEndpoint|

; 142  :     Unlock();

  00bb8	e59d300c	 ldr         r3, [sp, #0xC]
  00bbc	e2830008	 add         r0, r3, #8
  00bc0	eb000000	 bl          |?Unlock@CLockObject@@QAAXXZ|

; 143  :     return ERROR_SUCCESS;

  00bc4	e3a03000	 mov         r3, #0
  00bc8	e58d3000	 str         r3, [sp]

; 144  : }

  00bcc	e59d0000	 ldr         r0, [sp]
  00bd0	e28dd004	 add         sp, sp, #4
  00bd4	e89d6000	 ldmia       sp, {sp, lr}
  00bd8	e12fff1e	 bx          lr
  00bdc		 |$M38310|

			 ENDP  ; |?IsEndpointHalted@BulEndpoint@@UAAKPAH@Z|, BulEndpoint::IsEndpointHalted

	EXPORT	|?CompleteTransfer@BulEndpoint@@IAAPAU_STransfer@@K@Z| ; BulEndpoint::CompleteTransfer

  00038			 AREA	 |.pdata|, PDATA
|$T38318| DCD	|$LN6@CompleteTr|
	DCD	0x40002004
; Function compile flags: /Odtp

  00bdc			 AREA	 |.text|, CODE, ARM

  00bdc		 |?CompleteTransfer@BulEndpoint@@IAAPAU_STransfer@@K@Z| PROC ; BulEndpoint::CompleteTransfer

; 146  : {

  00bdc		 |$LN6@CompleteTr|
  00bdc	e1a0c00d	 mov         r12, sp
  00be0	e92d0003	 stmdb       sp!, {r0, r1}
  00be4	e92d5000	 stmdb       sp!, {r12, lr}
  00be8	e24dd008	 sub         sp, sp, #8
  00bec		 |$M38315|

; 147  :     if (m_pCurTransfer) {

  00bec	e59d3010	 ldr         r3, [sp, #0x10]
  00bf0	e2833034	 add         r3, r3, #0x34
  00bf4	e5933000	 ldr         r3, [r3]
  00bf8	e3530000	 cmp         r3, #0
  00bfc	0a000010	 beq         |$LN1@CompleteTr|

; 148  :         PSTransfer  pCurTransfer = m_pCurTransfer;

  00c00	e59d3010	 ldr         r3, [sp, #0x10]
  00c04	e2833034	 add         r3, r3, #0x34
  00c08	e5933000	 ldr         r3, [r3]
  00c0c	e58d3000	 str         r3, [sp]

; 149  :         m_pCurTransfer->dwUsbError= dwError;

  00c10	e59d3010	 ldr         r3, [sp, #0x10]
  00c14	e2833034	 add         r3, r3, #0x34
  00c18	e5933000	 ldr         r3, [r3]
  00c1c	e2832014	 add         r2, r3, #0x14
  00c20	e59d3014	 ldr         r3, [sp, #0x14]
  00c24	e5823000	 str         r3, [r2]

; 150  :         m_pCurTransfer = NULL;

  00c28	e59d3010	 ldr         r3, [sp, #0x10]
  00c2c	e2832034	 add         r2, r3, #0x34
  00c30	e3a03000	 mov         r3, #0
  00c34	e5823000	 str         r3, [r2]

; 151  :         return pCurTransfer ;

  00c38	e59d3000	 ldr         r3, [sp]
  00c3c	e58d3004	 str         r3, [sp, #4]
  00c40	ea000001	 b           |$LN2@CompleteTr|
  00c44		 |$LN1@CompleteTr|

; 152  :     }
; 153  :     return NULL;

  00c44	e3a03000	 mov         r3, #0
  00c48	e58d3004	 str         r3, [sp, #4]
  00c4c		 |$LN2@CompleteTr|

; 154  : }

  00c4c	e59d0004	 ldr         r0, [sp, #4]
  00c50	e28dd008	 add         sp, sp, #8
  00c54	e89d6000	 ldmia       sp, {sp, lr}
  00c58	e12fff1e	 bx          lr
  00c5c		 |$M38316|

			 ENDP  ; |?CompleteTransfer@BulEndpoint@@IAAPAU_STransfer@@K@Z|, BulEndpoint::CompleteTransfer

	EXPORT	|??_C@_1IO@HHHNJPIB@?$AAC?$AA?3?$AA?2?$AAW?$AAI?$AAN?$AAC?$AAE?$AA6?$AA0?$AA0?$AA?2?$AAP?$AAL?$AAA?$AAT?$AAF?$AAO?$AAR?$AAM?$AA?2?$AAC?$AAO?$AAM?$AAM?$AAO?$AAN?$AA?2?$AAS?$AAR?$AAC?$AA?2@| [ DATA ] ; `string'
	EXPORT	|?EnableEndpointInterrupt@BulUsbDevice@@QAAHKH@Z| ; BulUsbDevice::EnableEndpointInterrupt
	EXPORT	|??_C@_1FI@EMOFCKEN@?$AAR?$AAe?$AAa?$AAd?$AAC?$AAo?$AAn?$AAf?$AAi?$AAg?$AAu?$AAr?$AAa?$AAt?$AAi?$AAo?$AAn?$AAR?$AAe?$AAg?$AAi?$AAs?$AAt?$AAe?$AAr?$AA?5?$AA?$CI?$AA?$CF?$AAd?$AA?$CJ?$AA?5?$AAU@| [ DATA ] ; `string'
	EXPORT	|??_C@_1FG@MONBHJOI@?$AAb?$AAu?$AAl?$AAv?$AAe?$AAr?$AAd?$AAe?$AA_?$AAu?$AAs?$AAb?$AAf?$AAn?$AA?$CB?$AAB?$AAu?$AAl?$AAE?$AAn?$AAd?$AAp?$AAo?$AAi?$AAn?$AAt?$AA?3?$AA?3?$AAI?$AAs?$AAs?$AAu@| [ DATA ] ; `string'
	EXPORT	|?IssueTransfer@BulEndpoint@@UAAKPAU_STransfer@@@Z| ; BulEndpoint::IssueTransfer

  00040			 AREA	 |.pdata|, PDATA
|$T38344| DCD	|$LN30@IssueTrans|
	DCD	0x4000e004

  00000			 AREA	 |.rdata|, DATA, READONLY
|??_C@_1IO@HHHNJPIB@?$AAC?$AA?3?$AA?2?$AAW?$AAI?$AAN?$AAC?$AAE?$AA6?$AA0?$AA0?$AA?2?$AAP?$AAL?$AAA?$AAT?$AAF?$AAO?$AAR?$AAM?$AA?2?$AAC?$AAO?$AAM?$AAM?$AAO?$AAN?$AA?2?$AAS?$AAR?$AAC?$AA?2@| DCB "C"
	DCB	0x0, ":", 0x0, "\\", 0x0, "W", 0x0, "I", 0x0, "N", 0x0, "C"
	DCB	0x0, "E", 0x0, "6", 0x0, "0", 0x0, "0", 0x0, "\\", 0x0, "P"
	DCB	0x0, "L", 0x0, "A", 0x0, "T", 0x0, "F", 0x0, "O", 0x0, "R"
	DCB	0x0, "M", 0x0, "\\", 0x0, "C", 0x0, "O", 0x0, "M", 0x0, "M"
	DCB	0x0, "O", 0x0, "N", 0x0, "\\", 0x0, "S", 0x0, "R", 0x0, "C"
	DCB	0x0, "\\", 0x0, "S", 0x0, "O", 0x0, "C", 0x0, "\\", 0x0, "P"
	DCB	0x0, "X", 0x0, "A", 0x0, "2", 0x0, "7", 0x0, "X", 0x0, "_"
	DCB	0x0, "M", 0x0, "S", 0x0, "_", 0x0, "V", 0x0, "1", 0x0, "\\"
	DCB	0x0, "U", 0x0, "S", 0x0, "B", 0x0, "F", 0x0, "N", 0x0, "\\"
	DCB	0x0, ".", 0x0, "\\", 0x0, "b", 0x0, "u", 0x0, "l", 0x0, "_"
	DCB	0x0, "u", 0x0, "s", 0x0, "b", 0x0, "f", 0x0, "n", 0x0, "."
	DCB	0x0, "c", 0x0, "p", 0x0, "p", 0x0, 0x0, 0x0 ; `string'

  00000			 AREA	 |.rdata|, DATA, READONLY
|??_C@_1FI@EMOFCKEN@?$AAR?$AAe?$AAa?$AAd?$AAC?$AAo?$AAn?$AAf?$AAi?$AAg?$AAu?$AAr?$AAa?$AAt?$AAi?$AAo?$AAn?$AAR?$AAe?$AAg?$AAi?$AAs?$AAt?$AAe?$AAr?$AA?5?$AA?$CI?$AA?$CF?$AAd?$AA?$CJ?$AA?5?$AAU@| DCB "R"
	DCB	0x0, "e", 0x0, "a", 0x0, "d", 0x0, "C", 0x0, "o", 0x0, "n"
	DCB	0x0, "f", 0x0, "i", 0x0, "g", 0x0, "u", 0x0, "r", 0x0, "a"
	DCB	0x0, "t", 0x0, "i", 0x0, "o", 0x0, "n", 0x0, "R", 0x0, "e"
	DCB	0x0, "g", 0x0, "i", 0x0, "s", 0x0, "t", 0x0, "e", 0x0, "r"
	DCB	0x0, " ", 0x0, "(", 0x0, "%", 0x0, "d", 0x0, ")", 0x0, " "
	DCB	0x0, "U", 0x0, "D", 0x0, "C", 0x0, "C", 0x0, "S", 0x0, "R"
	DCB	0x0, " ", 0x0, "=", 0x0, "0", 0x0, "x", 0x0, "%", 0x0, "x"
	DCB	0x0, 0x0, 0x0				; `string'

  00000			 AREA	 |.rdata|, DATA, READONLY
|??_C@_1FG@MONBHJOI@?$AAb?$AAu?$AAl?$AAv?$AAe?$AAr?$AAd?$AAe?$AA_?$AAu?$AAs?$AAb?$AAf?$AAn?$AA?$CB?$AAB?$AAu?$AAl?$AAE?$AAn?$AAd?$AAp?$AAo?$AAi?$AAn?$AAt?$AA?3?$AA?3?$AAI?$AAs?$AAs?$AAu@| DCB "b"
	DCB	0x0, "u", 0x0, "l", 0x0, "v", 0x0, "e", 0x0, "r", 0x0, "d"
	DCB	0x0, "e", 0x0, "_", 0x0, "u", 0x0, "s", 0x0, "b", 0x0, "f"
	DCB	0x0, "n", 0x0, "!", 0x0, "B", 0x0, "u", 0x0, "l", 0x0, "E"
	DCB	0x0, "n", 0x0, "d", 0x0, "p", 0x0, "o", 0x0, "i", 0x0, "n"
	DCB	0x0, "t", 0x0, ":", 0x0, ":", 0x0, "I", 0x0, "s", 0x0, "s"
	DCB	0x0, "u", 0x0, "e", 0x0, "T", 0x0, "r", 0x0, "a", 0x0, "n"
	DCB	0x0, "s", 0x0, "f", 0x0, "e", 0x0, "r", 0x0, ":", 0x0, 0x0
	DCB	0x0					; `string'
; Function compile flags: /Odtp

  00c5c			 AREA	 |.text|, CODE, ARM

  00c5c		 |?IssueTransfer@BulEndpoint@@UAAKPAU_STransfer@@@Z| PROC ; BulEndpoint::IssueTransfer

; 157  : {

  00c5c		 |$LN30@IssueTrans|
  00c5c	e1a0c00d	 mov         r12, sp
  00c60	e92d0003	 stmdb       sp!, {r0, r1}
  00c64	e92d5000	 stmdb       sp!, {r12, lr}
  00c68	e24dd030	 sub         sp, sp, #0x30
  00c6c		 |$M38341|

; 158  :     DWORD dwReturn = ERROR_SUCCESS;

  00c6c	e3a03000	 mov         r3, #0
  00c70	e58d3000	 str         r3, [sp]

; 159  :     SETFNAME();

  00c74	e59f335c	 ldr         r3, [pc, #0x35C]
  00c78	e58d3004	 str         r3, [sp, #4]

; 160  :     FUNCTION_ENTER_MSG();

  00c7c	e59f3348	 ldr         r3, [pc, #0x348]
  00c80	e5933440	 ldr         r3, [r3, #0x440]
  00c84	e3130a01	 tst         r3, #1, 20
  00c88	0a00000d	 beq         |$LN10@IssueTrans|
  00c8c	e59f3338	 ldr         r3, [pc, #0x338]
  00c90	e5933440	 ldr         r3, [r3, #0x440]
  00c94	e3130801	 tst         r3, #1, 16
  00c98	0a000003	 beq         |$LN8@IssueTrans|
  00c9c	e59d1004	 ldr         r1, [sp, #4]
  00ca0	e59f032c	 ldr         r0, [pc, #0x32C]
  00ca4	eb000000	 bl          CeLogMsg
  00ca8	ea000002	 b           |$LN9@IssueTrans|
  00cac		 |$LN8@IssueTrans|
  00cac	e59d1004	 ldr         r1, [sp, #4]
  00cb0	e59f031c	 ldr         r0, [pc, #0x31C]
  00cb4	eb000000	 bl          NKDbgPrintfW
  00cb8		 |$LN9@IssueTrans|
  00cb8	e3a03001	 mov         r3, #1
  00cbc	e58d300c	 str         r3, [sp, #0xC]
  00cc0	ea000001	 b           |$LN11@IssueTrans|
  00cc4		 |$LN10@IssueTrans|
  00cc4	e3a03000	 mov         r3, #0
  00cc8	e58d300c	 str         r3, [sp, #0xC]
  00ccc		 |$LN11@IssueTrans|

; 161  :     Lock();

  00ccc	e59d3038	 ldr         r3, [sp, #0x38]
  00cd0	e2830008	 add         r0, r3, #8
  00cd4	eb000000	 bl          |?Lock@CLockObject@@QAAXXZ|

; 162  :     DEBUGMSG(ZONE_FUNCTION, (_T("ReadConfigurationRegister (%d) UDCCSR =0x%x"),m_dwEndpointIndex,ReadConfigurationRegister()));

  00cd8	e59f32ec	 ldr         r3, [pc, #0x2EC]
  00cdc	e5933440	 ldr         r3, [r3, #0x440]
  00ce0	e3130a01	 tst         r3, #1, 20
  00ce4	0a000019	 beq         |$LN14@IssueTrans|
  00ce8	e59f32dc	 ldr         r3, [pc, #0x2DC]
  00cec	e5933440	 ldr         r3, [r3, #0x440]
  00cf0	e3130801	 tst         r3, #1, 16
  00cf4	0a000009	 beq         |$LN12@IssueTrans|
  00cf8	e59d0038	 ldr         r0, [sp, #0x38]
  00cfc	eb000000	 bl          |?ReadConfigurationRegister@BulEndpoint@@QAAKXZ|
  00d00	e58d0010	 str         r0, [sp, #0x10]
  00d04	e59d2010	 ldr         r2, [sp, #0x10]
  00d08	e59d3038	 ldr         r3, [sp, #0x38]
  00d0c	e2833020	 add         r3, r3, #0x20
  00d10	e5931000	 ldr         r1, [r3]
  00d14	e59f02b4	 ldr         r0, [pc, #0x2B4]
  00d18	eb000000	 bl          CeLogMsg
  00d1c	ea000008	 b           |$LN13@IssueTrans|
  00d20		 |$LN12@IssueTrans|
  00d20	e59d0038	 ldr         r0, [sp, #0x38]
  00d24	eb000000	 bl          |?ReadConfigurationRegister@BulEndpoint@@QAAKXZ|
  00d28	e58d0014	 str         r0, [sp, #0x14]
  00d2c	e59d2014	 ldr         r2, [sp, #0x14]
  00d30	e59d3038	 ldr         r3, [sp, #0x38]
  00d34	e2833020	 add         r3, r3, #0x20
  00d38	e5931000	 ldr         r1, [r3]
  00d3c	e59f028c	 ldr         r0, [pc, #0x28C]
  00d40	eb000000	 bl          NKDbgPrintfW
  00d44		 |$LN13@IssueTrans|
  00d44	e3a03001	 mov         r3, #1
  00d48	e58d3018	 str         r3, [sp, #0x18]
  00d4c	ea000001	 b           |$LN15@IssueTrans|
  00d50		 |$LN14@IssueTrans|
  00d50	e3a03000	 mov         r3, #0
  00d54	e58d3018	 str         r3, [sp, #0x18]
  00d58		 |$LN15@IssueTrans|

; 163  :     
; 164  :     if (pTransfer!=NULL && m_pCurTransfer == NULL && (pTransfer->cbBuffer==0 || pTransfer->pvBuffer!=NULL) ) { // If it is valid.        

  00d58	e59d303c	 ldr         r3, [sp, #0x3C]
  00d5c	e3530000	 cmp         r3, #0
  00d60	0a000068	 beq         |$LN5@IssueTrans|
  00d64	e59d3038	 ldr         r3, [sp, #0x38]
  00d68	e2833034	 add         r3, r3, #0x34
  00d6c	e5933000	 ldr         r3, [r3]
  00d70	e3530000	 cmp         r3, #0
  00d74	1a000063	 bne         |$LN5@IssueTrans|
  00d78	e59d303c	 ldr         r3, [sp, #0x3C]
  00d7c	e283300c	 add         r3, r3, #0xC
  00d80	e5933000	 ldr         r3, [r3]
  00d84	e3530000	 cmp         r3, #0
  00d88	0a000004	 beq         |$LN4@IssueTrans|
  00d8c	e59d303c	 ldr         r3, [sp, #0x3C]
  00d90	e2833004	 add         r3, r3, #4
  00d94	e5933000	 ldr         r3, [r3]
  00d98	e3530000	 cmp         r3, #0
  00d9c	0a000059	 beq         |$LN5@IssueTrans|
  00da0		 |$LN4@IssueTrans|

; 165  :         if (((pTransfer->dwFlags & USB_IN_TRANSFER)!= 0 )== ((m_epDesc.bEndpointAddress & 0x80)!=0)) {

  00da0	e59d303c	 ldr         r3, [sp, #0x3C]
  00da4	e5933000	 ldr         r3, [r3]
  00da8	e3130080	 tst         r3, #0x80
  00dac	0a000002	 beq         |$LN16@IssueTrans|
  00db0	e3a03001	 mov         r3, #1
  00db4	e58d301c	 str         r3, [sp, #0x1C]
  00db8	ea000001	 b           |$LN17@IssueTrans|
  00dbc		 |$LN16@IssueTrans|
  00dbc	e3a03000	 mov         r3, #0
  00dc0	e58d301c	 str         r3, [sp, #0x1C]
  00dc4		 |$LN17@IssueTrans|
  00dc4	e59d3038	 ldr         r3, [sp, #0x38]
  00dc8	e2833026	 add         r3, r3, #0x26
  00dcc	e5d33000	 ldrb        r3, [r3]
  00dd0	e3130080	 tst         r3, #0x80
  00dd4	0a000002	 beq         |$LN18@IssueTrans|
  00dd8	e3a03001	 mov         r3, #1
  00ddc	e58d3020	 str         r3, [sp, #0x20]
  00de0	ea000001	 b           |$LN19@IssueTrans|
  00de4		 |$LN18@IssueTrans|
  00de4	e3a03000	 mov         r3, #0
  00de8	e58d3020	 str         r3, [sp, #0x20]
  00dec		 |$LN19@IssueTrans|
  00dec	e59d201c	 ldr         r2, [sp, #0x1C]
  00df0	e59d3020	 ldr         r3, [sp, #0x20]
  00df4	e1520003	 cmp         r2, r3
  00df8	1a00003f	 bne         |$LN3@IssueTrans|

; 166  :             pTransfer ->pvPddData = (PVOID)m_dwEndpointIndex;

  00dfc	e59d3038	 ldr         r3, [sp, #0x38]
  00e00	e2831020	 add         r1, r3, #0x20
  00e04	e59d303c	 ldr         r3, [sp, #0x3C]
  00e08	e2832018	 add         r2, r3, #0x18
  00e0c	e5913000	 ldr         r3, [r1]
  00e10	e5823000	 str         r3, [r2]

; 167  :             m_pCurTransfer = pTransfer;

  00e14	e59d3038	 ldr         r3, [sp, #0x38]
  00e18	e2832034	 add         r2, r3, #0x34
  00e1c	e59d303c	 ldr         r3, [sp, #0x3C]
  00e20	e5823000	 str         r3, [r2]

; 168  :             m_pCurTransfer->cbTransferred = 0;

  00e24	e59d3038	 ldr         r3, [sp, #0x38]
  00e28	e2833034	 add         r3, r3, #0x34
  00e2c	e5933000	 ldr         r3, [r3]
  00e30	e2832010	 add         r2, r3, #0x10
  00e34	e3a03000	 mov         r3, #0
  00e38	e5823000	 str         r3, [r2]

; 169  :             m_pCurTransfer->pvPddData = (PVOID) m_dwEndpointIndex;

  00e3c	e59d3038	 ldr         r3, [sp, #0x38]
  00e40	e2831020	 add         r1, r3, #0x20
  00e44	e59d3038	 ldr         r3, [sp, #0x38]
  00e48	e2833034	 add         r3, r3, #0x34
  00e4c	e5933000	 ldr         r3, [r3]
  00e50	e2832018	 add         r2, r3, #0x18
  00e54	e5913000	 ldr         r3, [r1]
  00e58	e5823000	 str         r3, [r2]

; 170  :             m_fZeroPacket = (m_pCurTransfer->cbBuffer== 0 || m_pCurTransfer->pvBuffer== 0);

  00e5c	e59d3038	 ldr         r3, [sp, #0x38]
  00e60	e2833034	 add         r3, r3, #0x34
  00e64	e5933000	 ldr         r3, [r3]
  00e68	e283300c	 add         r3, r3, #0xC
  00e6c	e5933000	 ldr         r3, [r3]
  00e70	e3530000	 cmp         r3, #0
  00e74	0a000009	 beq         |$LN20@IssueTrans|
  00e78	e59d3038	 ldr         r3, [sp, #0x38]
  00e7c	e2833034	 add         r3, r3, #0x34
  00e80	e5933000	 ldr         r3, [r3]
  00e84	e2833004	 add         r3, r3, #4
  00e88	e5933000	 ldr         r3, [r3]
  00e8c	e3530000	 cmp         r3, #0
  00e90	0a000002	 beq         |$LN20@IssueTrans|
  00e94	e3a03000	 mov         r3, #0
  00e98	e58d3024	 str         r3, [sp, #0x24]
  00e9c	ea000001	 b           |$LN21@IssueTrans|
  00ea0		 |$LN20@IssueTrans|
  00ea0	e3a03001	 mov         r3, #1
  00ea4	e58d3024	 str         r3, [sp, #0x24]
  00ea8		 |$LN21@IssueTrans|
  00ea8	e59d3038	 ldr         r3, [sp, #0x38]
  00eac	e2832038	 add         r2, r3, #0x38
  00eb0	e59d3024	 ldr         r3, [sp, #0x24]
  00eb4	e5823000	 str         r3, [r2]

; 171  :             m_pUsbDevice->EnableEndpointInterrupt(m_dwEndpointIndex,TRUE);

  00eb8	e3a02001	 mov         r2, #1
  00ebc	e59d3038	 ldr         r3, [sp, #0x38]
  00ec0	e2833020	 add         r3, r3, #0x20
  00ec4	e5931000	 ldr         r1, [r3]
  00ec8	e59d3038	 ldr         r3, [sp, #0x38]
  00ecc	e283301c	 add         r3, r3, #0x1C
  00ed0	e5930000	 ldr         r0, [r3]
  00ed4	eb000000	 bl          |?EnableEndpointInterrupt@BulUsbDevice@@QAAHKH@Z|

; 172  :             // Trigger First IST.
; 173  :             IST(EPINT_PACKET_COMPLETE);

  00ed8	e3a01001	 mov         r1, #1
  00edc	e59d3038	 ldr         r3, [sp, #0x38]
  00ee0	e5933000	 ldr         r3, [r3]
  00ee4	e2833030	 add         r3, r3, #0x30
  00ee8	e59d0038	 ldr         r0, [sp, #0x38]
  00eec	e5933000	 ldr         r3, [r3]
  00ef0	e1a0e00f	 mov         lr, pc
  00ef4	e12fff13	 bx          r3

; 174  :         }
; 175  :         else 

  00ef8	ea000001	 b           |$LN2@IssueTrans|
  00efc		 |$LN3@IssueTrans|

; 176  :             dwReturn = ERROR_INVALID_DATA;

  00efc	e3a0300d	 mov         r3, #0xD
  00f00	e58d3000	 str         r3, [sp]
  00f04		 |$LN2@IssueTrans|

; 177  :     }
; 178  :     else 

  00f04	ea000001	 b           |$LN1@IssueTrans|
  00f08		 |$LN5@IssueTrans|

; 179  :         dwReturn = ERROR_NOT_READY;

  00f08	e3a03015	 mov         r3, #0x15
  00f0c	e58d3000	 str         r3, [sp]
  00f10		 |$LN1@IssueTrans|

; 180  :     Unlock();

  00f10	e59d3038	 ldr         r3, [sp, #0x38]
  00f14	e2830008	 add         r0, r3, #8
  00f18	eb000000	 bl          |?Unlock@CLockObject@@QAAXXZ|

; 181  :     FUNCTION_LEAVE_MSG();

  00f1c	e59f30a8	 ldr         r3, [pc, #0xA8]
  00f20	e5933440	 ldr         r3, [r3, #0x440]
  00f24	e3130a01	 tst         r3, #1, 20
  00f28	0a00000d	 beq         |$LN24@IssueTrans|
  00f2c	e59f3098	 ldr         r3, [pc, #0x98]
  00f30	e5933440	 ldr         r3, [r3, #0x440]
  00f34	e3130801	 tst         r3, #1, 16
  00f38	0a000003	 beq         |$LN22@IssueTrans|
  00f3c	e59d1004	 ldr         r1, [sp, #4]
  00f40	e59f0080	 ldr         r0, [pc, #0x80]
  00f44	eb000000	 bl          CeLogMsg
  00f48	ea000002	 b           |$LN23@IssueTrans|
  00f4c		 |$LN22@IssueTrans|
  00f4c	e59d1004	 ldr         r1, [sp, #4]
  00f50	e59f0070	 ldr         r0, [pc, #0x70]
  00f54	eb000000	 bl          NKDbgPrintfW
  00f58		 |$LN23@IssueTrans|
  00f58	e3a03001	 mov         r3, #1
  00f5c	e58d3028	 str         r3, [sp, #0x28]
  00f60	ea000001	 b           |$LN25@IssueTrans|
  00f64		 |$LN24@IssueTrans|
  00f64	e3a03000	 mov         r3, #0
  00f68	e58d3028	 str         r3, [sp, #0x28]
  00f6c		 |$LN25@IssueTrans|

; 182  :     ASSERT(dwReturn == ERROR_SUCCESS);

  00f6c	e59d3000	 ldr         r3, [sp]
  00f70	e3530000	 cmp         r3, #0
  00f74	1a000002	 bne         |$LN26@IssueTrans|
  00f78	e3a03001	 mov         r3, #1
  00f7c	e58d302c	 str         r3, [sp, #0x2C]
  00f80	ea000007	 b           |$LN27@IssueTrans|
  00f84		 |$LN26@IssueTrans|
  00f84	e3a030b6	 mov         r3, #0xB6
  00f88	e59f2034	 ldr         r2, [pc, #0x34]
  00f8c	e59f102c	 ldr         r1, [pc, #0x2C]
  00f90	e59f0024	 ldr         r0, [pc, #0x24]
  00f94	eb000000	 bl          NKDbgPrintfW
  00f98	e6000010	 __debugbreak_ce
  00f9c	e3a03000	 mov         r3, #0
  00fa0	e58d302c	 str         r3, [sp, #0x2C]
  00fa4		 |$LN27@IssueTrans|

; 183  :     return dwReturn ;

  00fa4	e59d3000	 ldr         r3, [sp]
  00fa8	e58d3008	 str         r3, [sp, #8]

; 184  : }

  00fac	e59d0008	 ldr         r0, [sp, #8]
  00fb0	e28dd030	 add         sp, sp, #0x30
  00fb4	e89d6000	 ldmia       sp, {sp, lr}
  00fb8	e12fff1e	 bx          lr
  00fbc		 |$LN31@IssueTrans|
  00fbc		 |$LN32@IssueTrans|
  00fbc	00000000	 DCD         |??_C@_1FK@FNONLNGN@?$AA?$CF?$AAs?$AA?3?$AA?5?$AAD?$AAE?$AAB?$AAU?$AAG?$AAC?$AAH?$AAK?$AA?5?$AAf?$AAa?$AAi?$AAl?$AAe?$AAd?$AA?5?$AAi?$AAn?$AA?5?$AAf?$AAi?$AAl?$AAe?$AA?5?$AA?$CF?$AAs?$AA?5?$AAa@|
  00fc0		 |$LN33@IssueTrans|
  00fc0	00000000	 DCD         |??_C@_1BA@LEPJIIOK@?$AAU?$AAn?$AAk?$AAn?$AAo?$AAw?$AAn?$AA?$AA@|
  00fc4		 |$LN34@IssueTrans|
  00fc4	00000000	 DCD         |??_C@_1IO@HHHNJPIB@?$AAC?$AA?3?$AA?2?$AAW?$AAI?$AAN?$AAC?$AAE?$AA6?$AA0?$AA0?$AA?2?$AAP?$AAL?$AAA?$AAT?$AAF?$AAO?$AAR?$AAM?$AA?2?$AAC?$AAO?$AAM?$AAM?$AAO?$AAN?$AA?2?$AAS?$AAR?$AAC?$AA?2@|
  00fc8		 |$LN35@IssueTrans|
  00fc8	00000000	 DCD         |??_C@_1BA@PLOOFDPK@?$AA?$CF?$AAs?$AA?5?$AA?9?$AA?9?$AA?$AN?$AA?6?$AA?$AA@|
  00fcc		 |$LN36@IssueTrans|
  00fcc	00000000	 DCD         |dpCurSettings|
  00fd0		 |$LN37@IssueTrans|
  00fd0	00000000	 DCD         |??_C@_1FI@EMOFCKEN@?$AAR?$AAe?$AAa?$AAd?$AAC?$AAo?$AAn?$AAf?$AAi?$AAg?$AAu?$AAr?$AAa?$AAt?$AAi?$AAo?$AAn?$AAR?$AAe?$AAg?$AAi?$AAs?$AAt?$AAe?$AAr?$AA?5?$AA?$CI?$AA?$CF?$AAd?$AA?$CJ?$AA?5?$AAU@|
  00fd4		 |$LN38@IssueTrans|
  00fd4	00000000	 DCD         |??_C@_1BA@DAJPCKDK@?$AA?$CF?$AAs?$AA?5?$AA?$CL?$AA?$CL?$AA?$AN?$AA?6?$AA?$AA@|
  00fd8		 |$LN39@IssueTrans|
  00fd8	00000000	 DCD         |??_C@_1FG@MONBHJOI@?$AAb?$AAu?$AAl?$AAv?$AAe?$AAr?$AAd?$AAe?$AA_?$AAu?$AAs?$AAb?$AAf?$AAn?$AA?$CB?$AAB?$AAu?$AAl?$AAE?$AAn?$AAd?$AAp?$AAo?$AAi?$AAn?$AAt?$AA?3?$AA?3?$AAI?$AAs?$AAs?$AAu@|
  00fdc		 |$M38342|

			 ENDP  ; |?IssueTransfer@BulEndpoint@@UAAKPAU_STransfer@@@Z|, BulEndpoint::IssueTransfer

	EXPORT	|?MddTransferComplete@BulUsbDevice@@QAAXPAU_STransfer@@@Z| ; BulUsbDevice::MddTransferComplete
	EXPORT	|??_C@_1FG@LGGFLCMI@?$AAb?$AAu?$AAl?$AAv?$AAe?$AAr?$AAd?$AAe?$AA_?$AAu?$AAs?$AAb?$AAf?$AAn?$AA?$CB?$AAB?$AAu?$AAl?$AAE?$AAn?$AAd?$AAp?$AAo?$AAi?$AAn?$AAt?$AA?3?$AA?3?$AAA?$AAb?$AAo?$AAr@| [ DATA ] ; `string'
	EXPORT	|?AbortTransfer@BulEndpoint@@UAAKPAU_STransfer@@@Z| ; BulEndpoint::AbortTransfer

  00048			 AREA	 |.pdata|, PDATA
|$T38367| DCD	|$LN16@AbortTrans|
	DCD	0x40006604

  00000			 AREA	 |.rdata|, DATA, READONLY
|??_C@_1FG@LGGFLCMI@?$AAb?$AAu?$AAl?$AAv?$AAe?$AAr?$AAd?$AAe?$AA_?$AAu?$AAs?$AAb?$AAf?$AAn?$AA?$CB?$AAB?$AAu?$AAl?$AAE?$AAn?$AAd?$AAp?$AAo?$AAi?$AAn?$AAt?$AA?3?$AA?3?$AAA?$AAb?$AAo?$AAr@| DCB "b"
	DCB	0x0, "u", 0x0, "l", 0x0, "v", 0x0, "e", 0x0, "r", 0x0, "d"
	DCB	0x0, "e", 0x0, "_", 0x0, "u", 0x0, "s", 0x0, "b", 0x0, "f"
	DCB	0x0, "n", 0x0, "!", 0x0, "B", 0x0, "u", 0x0, "l", 0x0, "E"
	DCB	0x0, "n", 0x0, "d", 0x0, "p", 0x0, "o", 0x0, "i", 0x0, "n"
	DCB	0x0, "t", 0x0, ":", 0x0, ":", 0x0, "A", 0x0, "b", 0x0, "o"
	DCB	0x0, "r", 0x0, "t", 0x0, "T", 0x0, "r", 0x0, "a", 0x0, "n"
	DCB	0x0, "s", 0x0, "f", 0x0, "e", 0x0, "r", 0x0, ":", 0x0, 0x0
	DCB	0x0					; `string'
; Function compile flags: /Odtp

  00fdc			 AREA	 |.text|, CODE, ARM

  00fdc		 |?AbortTransfer@BulEndpoint@@UAAKPAU_STransfer@@@Z| PROC ; BulEndpoint::AbortTransfer

; 186  : {

  00fdc		 |$LN16@AbortTrans|
  00fdc	e1a0c00d	 mov         r12, sp
  00fe0	e92d0003	 stmdb       sp!, {r0, r1}
  00fe4	e92d5000	 stmdb       sp!, {r12, lr}
  00fe8	e24dd01c	 sub         sp, sp, #0x1C
  00fec		 |$M38364|

; 187  :     DWORD dwReturn = ERROR_SUCCESS;

  00fec	e3a03000	 mov         r3, #0
  00ff0	e58d3004	 str         r3, [sp, #4]

; 188  :     SETFNAME();

  00ff4	e59f3174	 ldr         r3, [pc, #0x174]
  00ff8	e58d3008	 str         r3, [sp, #8]

; 189  :     FUNCTION_ENTER_MSG();

  00ffc	e59f3164	 ldr         r3, [pc, #0x164]
  01000	e5933440	 ldr         r3, [r3, #0x440]
  01004	e3130a01	 tst         r3, #1, 20
  01008	0a00000d	 beq         |$LN8@AbortTrans|
  0100c	e59f3154	 ldr         r3, [pc, #0x154]
  01010	e5933440	 ldr         r3, [r3, #0x440]
  01014	e3130801	 tst         r3, #1, 16
  01018	0a000003	 beq         |$LN6@AbortTrans|
  0101c	e59d1008	 ldr         r1, [sp, #8]
  01020	e59f0144	 ldr         r0, [pc, #0x144]
  01024	eb000000	 bl          CeLogMsg
  01028	ea000002	 b           |$LN7@AbortTrans|
  0102c		 |$LN6@AbortTrans|
  0102c	e59d1008	 ldr         r1, [sp, #8]
  01030	e59f0134	 ldr         r0, [pc, #0x134]
  01034	eb000000	 bl          NKDbgPrintfW
  01038		 |$LN7@AbortTrans|
  01038	e3a03001	 mov         r3, #1
  0103c	e58d3010	 str         r3, [sp, #0x10]
  01040	ea000001	 b           |$LN9@AbortTrans|
  01044		 |$LN8@AbortTrans|
  01044	e3a03000	 mov         r3, #0
  01048	e58d3010	 str         r3, [sp, #0x10]
  0104c		 |$LN9@AbortTrans|

; 190  :     Lock();

  0104c	e59d3024	 ldr         r3, [sp, #0x24]
  01050	e2830008	 add         r0, r3, #8
  01054	eb000000	 bl          |?Lock@CLockObject@@QAAXXZ|

; 191  :     PSTransfer pNotifyTransfer = NULL;

  01058	e3a03000	 mov         r3, #0
  0105c	e58d3000	 str         r3, [sp]

; 192  :     if (pTransfer == m_pCurTransfer && m_pCurTransfer!=NULL) {

  01060	e59d3024	 ldr         r3, [sp, #0x24]
  01064	e2833034	 add         r3, r3, #0x34
  01068	e59d2028	 ldr         r2, [sp, #0x28]
  0106c	e5933000	 ldr         r3, [r3]
  01070	e1520003	 cmp         r2, r3
  01074	1a000013	 bne         |$LN3@AbortTrans|
  01078	e59d3024	 ldr         r3, [sp, #0x24]
  0107c	e2833034	 add         r3, r3, #0x34
  01080	e5933000	 ldr         r3, [r3]
  01084	e3530000	 cmp         r3, #0
  01088	0a00000e	 beq         |$LN3@AbortTrans|

; 193  :         ResetEndpoint();

  0108c	e59d3024	 ldr         r3, [sp, #0x24]
  01090	e5933000	 ldr         r3, [r3]
  01094	e283301c	 add         r3, r3, #0x1C
  01098	e59d0024	 ldr         r0, [sp, #0x24]
  0109c	e5933000	 ldr         r3, [r3]
  010a0	e1a0e00f	 mov         lr, pc
  010a4	e12fff13	 bx          r3

; 194  :         pNotifyTransfer = CompleteTransfer(UFN_CANCELED_ERROR);

  010a8	e3a01c01	 mov         r1, #1, 24
  010ac	e3811001	 orr         r1, r1, #1
  010b0	e59d0024	 ldr         r0, [sp, #0x24]
  010b4	eb000000	 bl          |?CompleteTransfer@BulEndpoint@@IAAPAU_STransfer@@K@Z|
  010b8	e58d0014	 str         r0, [sp, #0x14]
  010bc	e59d3014	 ldr         r3, [sp, #0x14]
  010c0	e58d3000	 str         r3, [sp]

; 195  :     }
; 196  :     else

  010c4	ea000001	 b           |$LN2@AbortTrans|
  010c8		 |$LN3@AbortTrans|

; 197  :         dwReturn = ERROR_INVALID_DATA;

  010c8	e3a0300d	 mov         r3, #0xD
  010cc	e58d3004	 str         r3, [sp, #4]
  010d0		 |$LN2@AbortTrans|

; 198  :     Unlock();

  010d0	e59d3024	 ldr         r3, [sp, #0x24]
  010d4	e2830008	 add         r0, r3, #8
  010d8	eb000000	 bl          |?Unlock@CLockObject@@QAAXXZ|

; 199  :     if (pNotifyTransfer)

  010dc	e59d3000	 ldr         r3, [sp]
  010e0	e3530000	 cmp         r3, #0
  010e4	0a000004	 beq         |$LN1@AbortTrans|

; 200  :         m_pUsbDevice->MddTransferComplete(pNotifyTransfer);

  010e8	e59d1000	 ldr         r1, [sp]
  010ec	e59d3024	 ldr         r3, [sp, #0x24]
  010f0	e283301c	 add         r3, r3, #0x1C
  010f4	e5930000	 ldr         r0, [r3]
  010f8	eb000000	 bl          |?MddTransferComplete@BulUsbDevice@@QAAXPAU_STransfer@@@Z|
  010fc		 |$LN1@AbortTrans|

; 201  :     FUNCTION_LEAVE_MSG();

  010fc	e59f3064	 ldr         r3, [pc, #0x64]
  01100	e5933440	 ldr         r3, [r3, #0x440]
  01104	e3130a01	 tst         r3, #1, 20
  01108	0a00000d	 beq         |$LN12@AbortTrans|
  0110c	e59f3054	 ldr         r3, [pc, #0x54]
  01110	e5933440	 ldr         r3, [r3, #0x440]
  01114	e3130801	 tst         r3, #1, 16
  01118	0a000003	 beq         |$LN10@AbortTrans|
  0111c	e59d1008	 ldr         r1, [sp, #8]
  01120	e59f003c	 ldr         r0, [pc, #0x3C]
  01124	eb000000	 bl          CeLogMsg
  01128	ea000002	 b           |$LN11@AbortTrans|
  0112c		 |$LN10@AbortTrans|
  0112c	e59d1008	 ldr         r1, [sp, #8]
  01130	e59f002c	 ldr         r0, [pc, #0x2C]
  01134	eb000000	 bl          NKDbgPrintfW
  01138		 |$LN11@AbortTrans|
  01138	e3a03001	 mov         r3, #1
  0113c	e58d3018	 str         r3, [sp, #0x18]
  01140	ea000001	 b           |$LN13@AbortTrans|
  01144		 |$LN12@AbortTrans|
  01144	e3a03000	 mov         r3, #0
  01148	e58d3018	 str         r3, [sp, #0x18]
  0114c		 |$LN13@AbortTrans|

; 202  :     return dwReturn;

  0114c	e59d3004	 ldr         r3, [sp, #4]
  01150	e58d300c	 str         r3, [sp, #0xC]

; 203  : }

  01154	e59d000c	 ldr         r0, [sp, #0xC]
  01158	e28dd01c	 add         sp, sp, #0x1C
  0115c	e89d6000	 ldmia       sp, {sp, lr}
  01160	e12fff1e	 bx          lr
  01164		 |$LN17@AbortTrans|
  01164		 |$LN18@AbortTrans|
  01164	00000000	 DCD         |??_C@_1BA@PLOOFDPK@?$AA?$CF?$AAs?$AA?5?$AA?9?$AA?9?$AA?$AN?$AA?6?$AA?$AA@|
  01168		 |$LN19@AbortTrans|
  01168	00000000	 DCD         |dpCurSettings|
  0116c		 |$LN20@AbortTrans|
  0116c	00000000	 DCD         |??_C@_1BA@DAJPCKDK@?$AA?$CF?$AAs?$AA?5?$AA?$CL?$AA?$CL?$AA?$AN?$AA?6?$AA?$AA@|
  01170		 |$LN21@AbortTrans|
  01170	00000000	 DCD         |??_C@_1FG@LGGFLCMI@?$AAb?$AAu?$AAl?$AAv?$AAe?$AAr?$AAd?$AAe?$AA_?$AAu?$AAs?$AAb?$AAf?$AAn?$AA?$CB?$AAB?$AAu?$AAl?$AAE?$AAn?$AAd?$AAp?$AAo?$AAi?$AAn?$AAt?$AA?3?$AA?3?$AAA?$AAb?$AAo?$AAr@|
  01174		 |$M38365|

			 ENDP  ; |?AbortTransfer@BulEndpoint@@UAAKPAU_STransfer@@@Z|, BulEndpoint::AbortTransfer

	EXPORT	|??_C@_1EM@NBIECGPJ@?$AA?$CF?$AAs?$AA?5?$AAM?$AAd?$AAd?$AAT?$AAr?$AAa?$AAn?$AAs?$AAf?$AAe?$AAr?$AAC?$AAo?$AAm?$AAp?$AAl?$AAe?$AAt?$AAe?$AA?5?$AAp?$AAT?$AAr?$AAa?$AAn?$AAs?$AAf?$AAe?$AAr@| [ DATA ] ; `string'
	EXPORT	|??_C@_1GE@BLEDJKNO@?$AAb?$AAu?$AAl?$AAv?$AAe?$AAr?$AAd?$AAe?$AA_?$AAu?$AAs?$AAb?$AAf?$AAn?$AA?$CB?$AAB?$AAu?$AAl?$AAU?$AAs?$AAb?$AAD?$AAe?$AAv?$AAi?$AAc?$AAe?$AA?3?$AA?3?$AAM?$AAd?$AAd@| [ DATA ] ; `string'
; File c:\wince600\platform\common\src\soc\pxa27x_ms_v1\inc\bul_usbfn.h

  00000			 AREA	 |.pdata|, PDATA
|$T38381| DCD	|$LN10@MddTransfe|
	DCD	0x40003404

  00000			 AREA	 |.rdata|, DATA, READONLY
|??_C@_1EM@NBIECGPJ@?$AA?$CF?$AAs?$AA?5?$AAM?$AAd?$AAd?$AAT?$AAr?$AAa?$AAn?$AAs?$AAf?$AAe?$AAr?$AAC?$AAo?$AAm?$AAp?$AAl?$AAe?$AAt?$AAe?$AA?5?$AAp?$AAT?$AAr?$AAa?$AAn?$AAs?$AAf?$AAe?$AAr@| DCB "%"
	DCB	0x0, "s", 0x0, " ", 0x0, "M", 0x0, "d", 0x0, "d", 0x0, "T"
	DCB	0x0, "r", 0x0, "a", 0x0, "n", 0x0, "s", 0x0, "f", 0x0, "e"
	DCB	0x0, "r", 0x0, "C", 0x0, "o", 0x0, "m", 0x0, "p", 0x0, "l"
	DCB	0x0, "e", 0x0, "t", 0x0, "e", 0x0, " ", 0x0, "p", 0x0, "T"
	DCB	0x0, "r", 0x0, "a", 0x0, "n", 0x0, "s", 0x0, "f", 0x0, "e"
	DCB	0x0, "r", 0x0, ":", 0x0, "0", 0x0, "x", 0x0, "%", 0x0, "x"
	DCB	0x0, 0x0, 0x0				; `string'

  00000			 AREA	 |.rdata|, DATA, READONLY
|??_C@_1GE@BLEDJKNO@?$AAb?$AAu?$AAl?$AAv?$AAe?$AAr?$AAd?$AAe?$AA_?$AAu?$AAs?$AAb?$AAf?$AAn?$AA?$CB?$AAB?$AAu?$AAl?$AAU?$AAs?$AAb?$AAD?$AAe?$AAv?$AAi?$AAc?$AAe?$AA?3?$AA?3?$AAM?$AAd?$AAd@| DCB "b"
	DCB	0x0, "u", 0x0, "l", 0x0, "v", 0x0, "e", 0x0, "r", 0x0, "d"
	DCB	0x0, "e", 0x0, "_", 0x0, "u", 0x0, "s", 0x0, "b", 0x0, "f"
	DCB	0x0, "n", 0x0, "!", 0x0, "B", 0x0, "u", 0x0, "l", 0x0, "U"
	DCB	0x0, "s", 0x0, "b", 0x0, "D", 0x0, "e", 0x0, "v", 0x0, "i"
	DCB	0x0, "c", 0x0, "e", 0x0, ":", 0x0, ":", 0x0, "M", 0x0, "d"
	DCB	0x0, "d", 0x0, "T", 0x0, "r", 0x0, "a", 0x0, "n", 0x0, "s"
	DCB	0x0, "f", 0x0, "e", 0x0, "r", 0x0, "C", 0x0, "o", 0x0, "m"
	DCB	0x0, "p", 0x0, "l", 0x0, "e", 0x0, "t", 0x0, "e", 0x0, ":"
	DCB	0x0, 0x0, 0x0				; `string'
; Function compile flags: /Odtp

  00000			 AREA	 |.text|, CODE, ARM

  00000		 |?MddTransferComplete@BulUsbDevice@@QAAXPAU_STransfer@@@Z| PROC ; BulUsbDevice::MddTransferComplete

; 160  :     void MddTransferComplete(PSTransfer pTransfer) {

  00000		 |$LN10@MddTransfe|
  00000	e1a0c00d	 mov         r12, sp
  00004	e92d0003	 stmdb       sp!, {r0, r1}
  00008	e92d5000	 stmdb       sp!, {r12, lr}
  0000c	e24dd008	 sub         sp, sp, #8
  00010		 |$M38378|

; 161  :         SETFNAME();

  00010	e59f30b4	 ldr         r3, [pc, #0xB4]
  00014	e58d3000	 str         r3, [sp]

; 162  :         if (m_pvMddContext && pTransfer) {

  00018	e59d3010	 ldr         r3, [sp, #0x10]
  0001c	e28330b4	 add         r3, r3, #0xB4
  00020	e5933000	 ldr         r3, [r3]
  00024	e3530000	 cmp         r3, #0
  00028	0a000022	 beq         |$LN1@MddTransfe|
  0002c	e59d3014	 ldr         r3, [sp, #0x14]
  00030	e3530000	 cmp         r3, #0
  00034	0a00001f	 beq         |$LN1@MddTransfe|

; 163  :             DEBUGMSG(ZONE_FUNCTION, (_T("%s MddTransferComplete pTransfer:0x%x"),pszFname,pTransfer));

  00038	e59f3088	 ldr         r3, [pc, #0x88]
  0003c	e5933440	 ldr         r3, [r3, #0x440]
  00040	e3130a01	 tst         r3, #1, 20
  00044	0a00000f	 beq         |$LN6@MddTransfe|
  00048	e59f3078	 ldr         r3, [pc, #0x78]
  0004c	e5933440	 ldr         r3, [r3, #0x440]
  00050	e3130801	 tst         r3, #1, 16
  00054	0a000004	 beq         |$LN4@MddTransfe|
  00058	e59d2014	 ldr         r2, [sp, #0x14]
  0005c	e59d1000	 ldr         r1, [sp]
  00060	e59f005c	 ldr         r0, [pc, #0x5C]
  00064	eb000000	 bl          CeLogMsg
  00068	ea000003	 b           |$LN5@MddTransfe|
  0006c		 |$LN4@MddTransfe|
  0006c	e59d2014	 ldr         r2, [sp, #0x14]
  00070	e59d1000	 ldr         r1, [sp]
  00074	e59f0048	 ldr         r0, [pc, #0x48]
  00078	eb000000	 bl          NKDbgPrintfW
  0007c		 |$LN5@MddTransfe|
  0007c	e3a03001	 mov         r3, #1
  00080	e58d3004	 str         r3, [sp, #4]
  00084	ea000001	 b           |$LN7@MddTransfe|
  00088		 |$LN6@MddTransfe|
  00088	e3a03000	 mov         r3, #0
  0008c	e58d3004	 str         r3, [sp, #4]
  00090		 |$LN7@MddTransfe|

; 164  :             m_pfnNotify(m_pvMddContext, UFN_MSG_TRANSFER_COMPLETE, (DWORD) pTransfer);

  00090	e59d2014	 ldr         r2, [sp, #0x14]
  00094	e3a01064	 mov         r1, #0x64
  00098	e59d3010	 ldr         r3, [sp, #0x10]
  0009c	e28330b4	 add         r3, r3, #0xB4
  000a0	e5930000	 ldr         r0, [r3]
  000a4	e59d3010	 ldr         r3, [sp, #0x10]
  000a8	e28330c0	 add         r3, r3, #0xC0
  000ac	e5933000	 ldr         r3, [r3]
  000b0	e1a0e00f	 mov         lr, pc
  000b4	e12fff13	 bx          r3
  000b8		 |$LN1@MddTransfe|

; 165  :         }
; 166  :     }

  000b8	e28dd008	 add         sp, sp, #8
  000bc	e89d6000	 ldmia       sp, {sp, lr}
  000c0	e12fff1e	 bx          lr
  000c4		 |$LN11@MddTransfe|
  000c4		 |$LN12@MddTransfe|
  000c4	00000000	 DCD         |??_C@_1EM@NBIECGPJ@?$AA?$CF?$AAs?$AA?5?$AAM?$AAd?$AAd?$AAT?$AAr?$AAa?$AAn?$AAs?$AAf?$AAe?$AAr?$AAC?$AAo?$AAm?$AAp?$AAl?$AAe?$AAt?$AAe?$AA?5?$AAp?$AAT?$AAr?$AAa?$AAn?$AAs?$AAf?$AAe?$AAr@|
  000c8		 |$LN13@MddTransfe|
  000c8	00000000	 DCD         |dpCurSettings|
  000cc		 |$LN14@MddTransfe|
  000cc	00000000	 DCD         |??_C@_1GE@BLEDJKNO@?$AAb?$AAu?$AAl?$AAv?$AAe?$AAr?$AAd?$AAe?$AA_?$AAu?$AAs?$AAb?$AAf?$AAn?$AA?$CB?$AAB?$AAu?$AAl?$AAU?$AAs?$AAb?$AAD?$AAe?$AAv?$AAi?$AAc?$AAe?$AA?3?$AA?3?$AAM?$AAd?$AAd@|
  000d0		 |$M38379|

			 ENDP  ; |?MddTransferComplete@BulUsbDevice@@QAAXPAU_STransfer@@@Z|, BulUsbDevice::MddTransferComplete

	EXPORT	|??_C@_1DM@IBDEHFFJ@?$AA?$CF?$AAs?$AA?5?$AAC?$AAo?$AAm?$AAp?$AAl?$AAe?$AAt?$AAe?$AA?5?$AAd?$AAw?$AAL?$AAe?$AAn?$AAg?$AAt?$AAh?$AA?5?$AA?$DN?$AA?5?$AA0?$AAx?$AA?$CF?$AAx?$AA?$AN?$AA?6?$AA?$AA@| [ DATA ] ; `string'
	EXPORT	|?WriteDataRegisterByte@BulEndpoint@@QAAXE@Z| ; BulEndpoint::WriteDataRegisterByte
	EXPORT	|?WriteDataRegister@BulEndpoint@@QAAXK@Z| ; BulEndpoint::WriteDataRegister
	EXPORT	|??_C@_1EE@NAOCPMCM@?$AA?$CF?$AAs?$AA?5?$AAp?$AAB?$AAu?$AAf?$AAf?$AAe?$AAr?$AA?$DN?$AA0?$AAx?$AA?$CF?$AAx?$AA?0?$AA?5?$AAd?$AAw?$AAL?$AAe?$AAg?$AAn?$AAt?$AAh?$AA?$DN?$AA?5?$AA0?$AAx?$AA?$CF?$AAx?$AA?$AN@| [ DATA ] ; `string'
	EXPORT	|??_C@_1EM@BCALNFNF@?$AAb?$AAu?$AAl?$AAv?$AAe?$AAr?$AAd?$AAe?$AA_?$AAu?$AAs?$AAb?$AAf?$AAn?$AA?$CB?$AAB?$AAu?$AAl?$AAE?$AAn?$AAd?$AAp?$AAo?$AAi?$AAn?$AAt?$AA?3?$AA?3?$AAX?$AAm?$AAi?$AAt@| [ DATA ] ; `string'
	EXPORT	|?XmitData@BulEndpoint@@IAAKPAEK@Z|	; BulEndpoint::XmitData

  00050			 AREA	 |.pdata|, PDATA
|$T38401| DCD	|$LN26@XmitData|
	DCD	0x40009404
; File c:\wince600\platform\common\src\soc\pxa27x_ms_v1\usbfn\bul_usbfn.cpp

  00000			 AREA	 |.rdata|, DATA, READONLY
|??_C@_1DM@IBDEHFFJ@?$AA?$CF?$AAs?$AA?5?$AAC?$AAo?$AAm?$AAp?$AAl?$AAe?$AAt?$AAe?$AA?5?$AAd?$AAw?$AAL?$AAe?$AAn?$AAg?$AAt?$AAh?$AA?5?$AA?$DN?$AA?5?$AA0?$AAx?$AA?$CF?$AAx?$AA?$AN?$AA?6?$AA?$AA@| DCB "%"
	DCB	0x0, "s", 0x0, " ", 0x0, "C", 0x0, "o", 0x0, "m", 0x0, "p"
	DCB	0x0, "l", 0x0, "e", 0x0, "t", 0x0, "e", 0x0, " ", 0x0, "d"
	DCB	0x0, "w", 0x0, "L", 0x0, "e", 0x0, "n", 0x0, "g", 0x0, "t"
	DCB	0x0, "h", 0x0, " ", 0x0, "=", 0x0, " ", 0x0, "0", 0x0, "x"
	DCB	0x0, "%", 0x0, "x", 0x0, 0xd, 0x0, 0xa, 0x0, 0x0, 0x0 ; `string'

  00000			 AREA	 |.rdata|, DATA, READONLY
|??_C@_1EE@NAOCPMCM@?$AA?$CF?$AAs?$AA?5?$AAp?$AAB?$AAu?$AAf?$AAf?$AAe?$AAr?$AA?$DN?$AA0?$AAx?$AA?$CF?$AAx?$AA?0?$AA?5?$AAd?$AAw?$AAL?$AAe?$AAg?$AAn?$AAt?$AAh?$AA?$DN?$AA?5?$AA0?$AAx?$AA?$CF?$AAx?$AA?$AN@| DCB "%"
	DCB	0x0, "s", 0x0, " ", 0x0, "p", 0x0, "B", 0x0, "u", 0x0, "f"
	DCB	0x0, "f", 0x0, "e", 0x0, "r", 0x0, "=", 0x0, "0", 0x0, "x"
	DCB	0x0, "%", 0x0, "x", 0x0, ",", 0x0, " ", 0x0, "d", 0x0, "w"
	DCB	0x0, "L", 0x0, "e", 0x0, "g", 0x0, "n", 0x0, "t", 0x0, "h"
	DCB	0x0, "=", 0x0, " ", 0x0, "0", 0x0, "x", 0x0, "%", 0x0, "x"
	DCB	0x0, 0xd, 0x0, 0xa, 0x0, 0x0, 0x0	; `string'

  00000			 AREA	 |.rdata|, DATA, READONLY
|??_C@_1EM@BCALNFNF@?$AAb?$AAu?$AAl?$AAv?$AAe?$AAr?$AAd?$AAe?$AA_?$AAu?$AAs?$AAb?$AAf?$AAn?$AA?$CB?$AAB?$AAu?$AAl?$AAE?$AAn?$AAd?$AAp?$AAo?$AAi?$AAn?$AAt?$AA?3?$AA?3?$AAX?$AAm?$AAi?$AAt@| DCB "b"
	DCB	0x0, "u", 0x0, "l", 0x0, "v", 0x0, "e", 0x0, "r", 0x0, "d"
	DCB	0x0, "e", 0x0, "_", 0x0, "u", 0x0, "s", 0x0, "b", 0x0, "f"
	DCB	0x0, "n", 0x0, "!", 0x0, "B", 0x0, "u", 0x0, "l", 0x0, "E"
	DCB	0x0, "n", 0x0, "d", 0x0, "p", 0x0, "o", 0x0, "i", 0x0, "n"
	DCB	0x0, "t", 0x0, ":", 0x0, ":", 0x0, "X", 0x0, "m", 0x0, "i"
	DCB	0x0, "t", 0x0, "D", 0x0, "a", 0x0, "t", 0x0, "a", 0x0, ":"
	DCB	0x0, 0x0, 0x0				; `string'
; Function compile flags: /Odtp

  01174			 AREA	 |.text|, CODE, ARM

  01174		 |?XmitData@BulEndpoint@@IAAKPAEK@Z| PROC ; BulEndpoint::XmitData

; 205  : {

  01174		 |$LN26@XmitData|
  01174	e1a0c00d	 mov         r12, sp
  01178	e92d0007	 stmdb       sp!, {r0 - r2}
  0117c	e92d5000	 stmdb       sp!, {r12, lr}
  01180	e24dd020	 sub         sp, sp, #0x20
  01184		 |$M38398|

; 206  :     SETFNAME();

  01184	e59f3234	 ldr         r3, [pc, #0x234]
  01188	e58d3004	 str         r3, [sp, #4]

; 207  :     DEBUGMSG(ZONE_FUNCTION, (_T("%s pBuffer=0x%x, dwLegnth= 0x%x\r\n"),pszFname,pBuffer,dwLength));

  0118c	e59f3224	 ldr         r3, [pc, #0x224]
  01190	e5933440	 ldr         r3, [r3, #0x440]
  01194	e3130a01	 tst         r3, #1, 20
  01198	0a000011	 beq         |$LN18@XmitData|
  0119c	e59f3214	 ldr         r3, [pc, #0x214]
  011a0	e5933440	 ldr         r3, [r3, #0x440]
  011a4	e3130801	 tst         r3, #1, 16
  011a8	0a000005	 beq         |$LN16@XmitData|
  011ac	e59d3030	 ldr         r3, [sp, #0x30]
  011b0	e59d202c	 ldr         r2, [sp, #0x2C]
  011b4	e59d1004	 ldr         r1, [sp, #4]
  011b8	e59f01fc	 ldr         r0, [pc, #0x1FC]
  011bc	eb000000	 bl          CeLogMsg
  011c0	ea000004	 b           |$LN17@XmitData|
  011c4		 |$LN16@XmitData|
  011c4	e59d3030	 ldr         r3, [sp, #0x30]
  011c8	e59d202c	 ldr         r2, [sp, #0x2C]
  011cc	e59d1004	 ldr         r1, [sp, #4]
  011d0	e59f01e4	 ldr         r0, [pc, #0x1E4]
  011d4	eb000000	 bl          NKDbgPrintfW
  011d8		 |$LN17@XmitData|
  011d8	e3a03001	 mov         r3, #1
  011dc	e58d3018	 str         r3, [sp, #0x18]
  011e0	ea000001	 b           |$LN19@XmitData|
  011e4		 |$LN18@XmitData|
  011e4	e3a03000	 mov         r3, #0
  011e8	e58d3018	 str         r3, [sp, #0x18]
  011ec		 |$LN19@XmitData|

; 208  :     if (pBuffer==NULL || dwLength==0 )

  011ec	e59d302c	 ldr         r3, [sp, #0x2C]
  011f0	e3530000	 cmp         r3, #0
  011f4	0a000002	 beq         |$LN12@XmitData|
  011f8	e59d3030	 ldr         r3, [sp, #0x30]
  011fc	e3530000	 cmp         r3, #0
  01200	1a000002	 bne         |$LN13@XmitData|
  01204		 |$LN12@XmitData|

; 209  :         return 0;

  01204	e3a03000	 mov         r3, #0
  01208	e58d3014	 str         r3, [sp, #0x14]
  0120c	ea000064	 b           |$LN14@XmitData|
  01210		 |$LN13@XmitData|

; 210  :     // Spec 12.4.2
; 211  :     union {
; 212  :         BYTE  bData[4];
; 213  :         DWORD dwData;
; 214  :     } ;
; 215  :     if (dwLength > m_epDesc.wMaxPacketSize)

  01210	e59d3028	 ldr         r3, [sp, #0x28]
  01214	e2831028	 add         r1, r3, #0x28
  01218	e5d13001	 ldrb        r3, [r1, #1]
  0121c	e1a03403	 mov         r3, r3, lsl #8
  01220	e1a02803	 mov         r2, r3, lsl #16
  01224	e1a02822	 mov         r2, r2, lsr #16
  01228	e5d13000	 ldrb        r3, [r1]
  0122c	e1832002	 orr         r2, r3, r2
  01230	e59d3030	 ldr         r3, [sp, #0x30]
  01234	e1530002	 cmp         r3, r2
  01238	9a000008	 bls         |$LN11@XmitData|

; 216  :         dwLength = m_epDesc.wMaxPacketSize;

  0123c	e59d3028	 ldr         r3, [sp, #0x28]
  01240	e2831028	 add         r1, r3, #0x28
  01244	e5d13001	 ldrb        r3, [r1, #1]
  01248	e1a03403	 mov         r3, r3, lsl #8
  0124c	e1a02803	 mov         r2, r3, lsl #16
  01250	e1a02822	 mov         r2, r2, lsr #16
  01254	e5d13000	 ldrb        r3, [r1]
  01258	e1833002	 orr         r3, r3, r2
  0125c	e58d3030	 str         r3, [sp, #0x30]
  01260		 |$LN11@XmitData|

; 217  :     
; 218  :     for (DWORD dwIndex = 0; dwIndex< dwLength; ) { 

  01260	e3a03000	 mov         r3, #0
  01264	e58d3008	 str         r3, [sp, #8]
  01268		 |$LN10@XmitData|
  01268	e59d2008	 ldr         r2, [sp, #8]
  0126c	e59d3030	 ldr         r3, [sp, #0x30]
  01270	e1520003	 cmp         r2, r3
  01274	2a000032	 bcs         |$LN9@XmitData|

; 219  :         for ( DWORD dwCount = 0; dwCount < sizeof(DWORD) && dwIndex< dwLength ; dwCount ++, dwIndex++) {

  01278	e3a03000	 mov         r3, #0
  0127c	e58d300c	 str         r3, [sp, #0xC]
  01280	ea000005	 b           |$LN8@XmitData|
  01284		 |$LN7@XmitData|
  01284	e59d300c	 ldr         r3, [sp, #0xC]
  01288	e2833001	 add         r3, r3, #1
  0128c	e58d300c	 str         r3, [sp, #0xC]
  01290	e59d3008	 ldr         r3, [sp, #8]
  01294	e2833001	 add         r3, r3, #1
  01298	e58d3008	 str         r3, [sp, #8]
  0129c		 |$LN8@XmitData|
  0129c	e59d300c	 ldr         r3, [sp, #0xC]
  012a0	e3530004	 cmp         r3, #4
  012a4	2a00000d	 bcs         |$LN6@XmitData|
  012a8	e59d2008	 ldr         r2, [sp, #8]
  012ac	e59d3030	 ldr         r3, [sp, #0x30]
  012b0	e1520003	 cmp         r2, r3
  012b4	2a000009	 bcs         |$LN6@XmitData|

; 220  :             bData[dwCount] = *(pBuffer++);

  012b8	e28d2000	 add         r2, sp, #0
  012bc	e59d300c	 ldr         r3, [sp, #0xC]
  012c0	e0822003	 add         r2, r2, r3
  012c4	e59d302c	 ldr         r3, [sp, #0x2C]
  012c8	e5d33000	 ldrb        r3, [r3]
  012cc	e5c23000	 strb        r3, [r2]
  012d0	e59d302c	 ldr         r3, [sp, #0x2C]
  012d4	e2833001	 add         r3, r3, #1
  012d8	e58d302c	 str         r3, [sp, #0x2C]

; 221  :         }

  012dc	eaffffe8	 b           |$LN7@XmitData|
  012e0		 |$LN6@XmitData|

; 222  :         if (dwCount >= sizeof(DWORD)) {

  012e0	e59d300c	 ldr         r3, [sp, #0xC]
  012e4	e3530004	 cmp         r3, #4
  012e8	3a000003	 bcc         |$LN5@XmitData|

; 223  :             WriteDataRegister(dwData);

  012ec	e59d1000	 ldr         r1, [sp]
  012f0	e59d0028	 ldr         r0, [sp, #0x28]
  012f4	eb000000	 bl          |?WriteDataRegister@BulEndpoint@@QAAXK@Z|

; 224  :         }
; 225  :         else {

  012f8	ea000010	 b           |$LN4@XmitData|
  012fc		 |$LN5@XmitData|

; 226  :             for (DWORD dwCount2=0; dwCount2 < dwCount; dwCount2 ++)

  012fc	e3a03000	 mov         r3, #0
  01300	e58d3010	 str         r3, [sp, #0x10]
  01304	ea000002	 b           |$LN3@XmitData|
  01308		 |$LN2@XmitData|
  01308	e59d3010	 ldr         r3, [sp, #0x10]
  0130c	e2833001	 add         r3, r3, #1
  01310	e58d3010	 str         r3, [sp, #0x10]
  01314		 |$LN3@XmitData|
  01314	e59d2010	 ldr         r2, [sp, #0x10]
  01318	e59d300c	 ldr         r3, [sp, #0xC]
  0131c	e1520003	 cmp         r2, r3
  01320	2a000006	 bcs         |$LN1@XmitData|

; 227  :                 WriteDataRegisterByte(bData[dwCount2]);

  01324	e28d2000	 add         r2, sp, #0
  01328	e59d3010	 ldr         r3, [sp, #0x10]
  0132c	e0823003	 add         r3, r2, r3
  01330	e5d31000	 ldrb        r1, [r3]
  01334	e59d0028	 ldr         r0, [sp, #0x28]
  01338	eb000000	 bl          |?WriteDataRegisterByte@BulEndpoint@@QAAXE@Z|
  0133c	eafffff1	 b           |$LN2@XmitData|
  01340		 |$LN1@XmitData|
  01340		 |$LN4@XmitData|

; 228  :         }
; 229  :     };

  01340	eaffffc8	 b           |$LN10@XmitData|
  01344		 |$LN9@XmitData|

; 230  :     DEBUGMSG(ZONE_FUNCTION, (_T("%s Complete dwLength = 0x%x\r\n"),pszFname,dwLength));

  01344	e59f306c	 ldr         r3, [pc, #0x6C]
  01348	e5933440	 ldr         r3, [r3, #0x440]
  0134c	e3130a01	 tst         r3, #1, 20
  01350	0a00000f	 beq         |$LN22@XmitData|
  01354	e59f305c	 ldr         r3, [pc, #0x5C]
  01358	e5933440	 ldr         r3, [r3, #0x440]
  0135c	e3130801	 tst         r3, #1, 16
  01360	0a000004	 beq         |$LN20@XmitData|
  01364	e59d2030	 ldr         r2, [sp, #0x30]
  01368	e59d1004	 ldr         r1, [sp, #4]
  0136c	e59f0040	 ldr         r0, [pc, #0x40]
  01370	eb000000	 bl          CeLogMsg
  01374	ea000003	 b           |$LN21@XmitData|
  01378		 |$LN20@XmitData|
  01378	e59d2030	 ldr         r2, [sp, #0x30]
  0137c	e59d1004	 ldr         r1, [sp, #4]
  01380	e59f002c	 ldr         r0, [pc, #0x2C]
  01384	eb000000	 bl          NKDbgPrintfW
  01388		 |$LN21@XmitData|
  01388	e3a03001	 mov         r3, #1
  0138c	e58d301c	 str         r3, [sp, #0x1C]
  01390	ea000001	 b           |$LN23@XmitData|
  01394		 |$LN22@XmitData|
  01394	e3a03000	 mov         r3, #0
  01398	e58d301c	 str         r3, [sp, #0x1C]
  0139c		 |$LN23@XmitData|

; 231  :     return dwLength;

  0139c	e59d3030	 ldr         r3, [sp, #0x30]
  013a0	e58d3014	 str         r3, [sp, #0x14]
  013a4		 |$LN14@XmitData|

; 232  : }

  013a4	e59d0014	 ldr         r0, [sp, #0x14]
  013a8	e28dd020	 add         sp, sp, #0x20
  013ac	e89d6000	 ldmia       sp, {sp, lr}
  013b0	e12fff1e	 bx          lr
  013b4		 |$LN27@XmitData|
  013b4		 |$LN28@XmitData|
  013b4	00000000	 DCD         |??_C@_1DM@IBDEHFFJ@?$AA?$CF?$AAs?$AA?5?$AAC?$AAo?$AAm?$AAp?$AAl?$AAe?$AAt?$AAe?$AA?5?$AAd?$AAw?$AAL?$AAe?$AAn?$AAg?$AAt?$AAh?$AA?5?$AA?$DN?$AA?5?$AA0?$AAx?$AA?$CF?$AAx?$AA?$AN?$AA?6?$AA?$AA@|
  013b8		 |$LN29@XmitData|
  013b8	00000000	 DCD         |dpCurSettings|
  013bc		 |$LN30@XmitData|
  013bc	00000000	 DCD         |??_C@_1EE@NAOCPMCM@?$AA?$CF?$AAs?$AA?5?$AAp?$AAB?$AAu?$AAf?$AAf?$AAe?$AAr?$AA?$DN?$AA0?$AAx?$AA?$CF?$AAx?$AA?0?$AA?5?$AAd?$AAw?$AAL?$AAe?$AAg?$AAn?$AAt?$AAh?$AA?$DN?$AA?5?$AA0?$AAx?$AA?$CF?$AAx?$AA?$AN@|
  013c0		 |$LN31@XmitData|
  013c0	00000000	 DCD         |??_C@_1EM@BCALNFNF@?$AAb?$AAu?$AAl?$AAv?$AAe?$AAr?$AAd?$AAe?$AA_?$AAu?$AAs?$AAb?$AAf?$AAn?$AA?$CB?$AAB?$AAu?$AAl?$AAE?$AAn?$AAd?$AAp?$AAo?$AAi?$AAn?$AAt?$AA?3?$AA?3?$AAX?$AAm?$AAi?$AAt@|
  013c4		 |$M38399|

			 ENDP  ; |?XmitData@BulEndpoint@@IAAKPAEK@Z|, BulEndpoint::XmitData

	EXPORT	|?WriteUDCRegisterByte@BulUsbDevice@@QAAXKE@Z| ; BulUsbDevice::WriteUDCRegisterByte
; File c:\wince600\platform\common\src\soc\pxa27x_ms_v1\inc\bul_usbfn.h

  00000			 AREA	 |.pdata|, PDATA
|$T38415| DCD	|$LN9@WriteDataR|
	DCD	0x40003504
; Function compile flags: /Odtp

  00000			 AREA	 |.text|, CODE, ARM

  00000		 |?WriteDataRegisterByte@BulEndpoint@@QAAXE@Z| PROC ; BulEndpoint::WriteDataRegisterByte

; 304  :     void    WriteDataRegisterByte(BYTE bData) {

  00000		 |$LN9@WriteDataR|
  00000	e1a0c00d	 mov         r12, sp
  00004	e92d0003	 stmdb       sp!, {r0, r1}
  00008	e92d5000	 stmdb       sp!, {r12, lr}
  0000c	e24dd008	 sub         sp, sp, #8
  00010		 |$M38412|

; 305  :         PREFAST_ASSERT(m_pUsbDevice!=NULL);

  00010	e59d3010	 ldr         r3, [sp, #0x10]
  00014	e283301c	 add         r3, r3, #0x1C
  00018	e5933000	 ldr         r3, [r3]
  0001c	e3530000	 cmp         r3, #0
  00020	0a000002	 beq         |$LN3@WriteDataR|
  00024	e3a03001	 mov         r3, #1
  00028	e58d3000	 str         r3, [sp]
  0002c	ea000008	 b           |$LN4@WriteDataR|
  00030		 |$LN3@WriteDataR|
  00030	e3a03c01	 mov         r3, #1, 24
  00034	e3833031	 orr         r3, r3, #0x31
  00038	e59f2090	 ldr         r2, [pc, #0x90]
  0003c	e59f1088	 ldr         r1, [pc, #0x88]
  00040	e59f0080	 ldr         r0, [pc, #0x80]
  00044	eb000000	 bl          NKDbgPrintfW
  00048	e6000010	 __debugbreak_ce
  0004c	e3a03000	 mov         r3, #0
  00050	e58d3000	 str         r3, [sp]
  00054		 |$LN4@WriteDataR|

; 306  :         PREFAST_ASSERT(m_dwEndpointIndex<MAX_ENDPOINT_NUMBER);

  00054	e59d3010	 ldr         r3, [sp, #0x10]
  00058	e2833020	 add         r3, r3, #0x20
  0005c	e5933000	 ldr         r3, [r3]
  00060	e3530018	 cmp         r3, #0x18
  00064	2a000002	 bcs         |$LN5@WriteDataR|
  00068	e3a03001	 mov         r3, #1
  0006c	e58d3004	 str         r3, [sp, #4]
  00070	ea000008	 b           |$LN6@WriteDataR|
  00074		 |$LN5@WriteDataR|
  00074	e3a03c01	 mov         r3, #1, 24
  00078	e3833032	 orr         r3, r3, #0x32
  0007c	e59f204c	 ldr         r2, [pc, #0x4C]
  00080	e59f1044	 ldr         r1, [pc, #0x44]
  00084	e59f003c	 ldr         r0, [pc, #0x3C]
  00088	eb000000	 bl          NKDbgPrintfW
  0008c	e6000010	 __debugbreak_ce
  00090	e3a03000	 mov         r3, #0
  00094	e58d3004	 str         r3, [sp, #4]
  00098		 |$LN6@WriteDataR|

; 307  :         m_pUsbDevice->WriteUDCRegisterByte( ENDPOINT_DATA_REGISTER_OFFSET + m_dwEndpointIndex, bData);

  00098	e5dd2014	 ldrb        r2, [sp, #0x14]
  0009c	e59d3010	 ldr         r3, [sp, #0x10]
  000a0	e2833020	 add         r3, r3, #0x20
  000a4	e5933000	 ldr         r3, [r3]
  000a8	e28310c0	 add         r1, r3, #0xC0
  000ac	e59d3010	 ldr         r3, [sp, #0x10]
  000b0	e283301c	 add         r3, r3, #0x1C
  000b4	e5930000	 ldr         r0, [r3]
  000b8	eb000000	 bl          |?WriteUDCRegisterByte@BulUsbDevice@@QAAXKE@Z|

; 308  :     }

  000bc	e28dd008	 add         sp, sp, #8
  000c0	e89d6000	 ldmia       sp, {sp, lr}
  000c4	e12fff1e	 bx          lr
  000c8		 |$LN10@WriteDataR|
  000c8		 |$LN11@WriteDataR|
  000c8	00000000	 DCD         |??_C@_1FK@FNONLNGN@?$AA?$CF?$AAs?$AA?3?$AA?5?$AAD?$AAE?$AAB?$AAU?$AAG?$AAC?$AAH?$AAK?$AA?5?$AAf?$AAa?$AAi?$AAl?$AAe?$AAd?$AA?5?$AAi?$AAn?$AA?5?$AAf?$AAi?$AAl?$AAe?$AA?5?$AA?$CF?$AAs?$AA?5?$AAa@|
  000cc		 |$LN12@WriteDataR|
  000cc	00000000	 DCD         |??_C@_1BA@LEPJIIOK@?$AAU?$AAn?$AAk?$AAn?$AAo?$AAw?$AAn?$AA?$AA@|
  000d0		 |$LN13@WriteDataR|
  000d0	00000000	 DCD         |??_C@_1CG@MKCCFBBJ@?$AA?4?$AA?4?$AA?2?$AAi?$AAn?$AAc?$AA?2?$AAb?$AAu?$AAl?$AA_?$AAu?$AAs?$AAb?$AAf?$AAn?$AA?4?$AAh?$AA?$AA@|
  000d4		 |$M38413|

			 ENDP  ; |?WriteDataRegisterByte@BulEndpoint@@QAAXE@Z|, BulEndpoint::WriteDataRegisterByte

	IMPORT	|WRITE_REGISTER_UCHAR|

  00000			 AREA	 |.pdata|, PDATA
|$T38428| DCD	|$LN7@WriteUDCRe@2|
	DCD	0x40002304
; Function compile flags: /Odtp

  00000			 AREA	 |.text|, CODE, ARM

  00000		 |?WriteUDCRegisterByte@BulUsbDevice@@QAAXKE@Z| PROC ; BulUsbDevice::WriteUDCRegisterByte

; 129  :     void WriteUDCRegisterByte(DWORD dwOffset, BYTE bData) {

  00000		 |$LN7@WriteUDCRe@2|
  00000	e1a0c00d	 mov         r12, sp
  00004	e92d0007	 stmdb       sp!, {r0 - r2}
  00008	e92d5000	 stmdb       sp!, {r12, lr}
  0000c	e24dd004	 sub         sp, sp, #4
  00010		 |$M38425|

; 130  :         PREFAST_ASSERT(m_pUsbDevReg!=NULL);

  00010	e59d300c	 ldr         r3, [sp, #0xC]
  00014	e2833098	 add         r3, r3, #0x98
  00018	e5933000	 ldr         r3, [r3]
  0001c	e3530000	 cmp         r3, #0
  00020	0a000002	 beq         |$LN3@WriteUDCRe@2|
  00024	e3a03001	 mov         r3, #1
  00028	e58d3000	 str         r3, [sp]
  0002c	ea000007	 b           |$LN4@WriteUDCRe@2|
  00030		 |$LN3@WriteUDCRe@2|
  00030	e3a03082	 mov         r3, #0x82
  00034	e59f204c	 ldr         r2, [pc, #0x4C]
  00038	e59f1044	 ldr         r1, [pc, #0x44]
  0003c	e59f003c	 ldr         r0, [pc, #0x3C]
  00040	eb000000	 bl          NKDbgPrintfW
  00044	e6000010	 __debugbreak_ce
  00048	e3a03000	 mov         r3, #0
  0004c	e58d3000	 str         r3, [sp]
  00050		 |$LN4@WriteUDCRe@2|

; 131  :         WRITE_REGISTER_UCHAR((PUCHAR)(m_pUsbDevReg + dwOffset),bData);

  00050	e5dd1014	 ldrb        r1, [sp, #0x14]
  00054	e59d300c	 ldr         r3, [sp, #0xC]
  00058	e283e098	 add         lr, r3, #0x98
  0005c	e59d0010	 ldr         r0, [sp, #0x10]
  00060	e3a03004	 mov         r3, #4
  00064	e0020390	 mul         r2, r0, r3
  00068	e59e3000	 ldr         r3, [lr]
  0006c	e0830002	 add         r0, r3, r2
  00070	eb000000	 bl          WRITE_REGISTER_UCHAR

; 132  :     }

  00074	e28dd004	 add         sp, sp, #4
  00078	e89d6000	 ldmia       sp, {sp, lr}
  0007c	e12fff1e	 bx          lr
  00080		 |$LN8@WriteUDCRe@2|
  00080		 |$LN9@WriteUDCRe@2|
  00080	00000000	 DCD         |??_C@_1FK@FNONLNGN@?$AA?$CF?$AAs?$AA?3?$AA?5?$AAD?$AAE?$AAB?$AAU?$AAG?$AAC?$AAH?$AAK?$AA?5?$AAf?$AAa?$AAi?$AAl?$AAe?$AAd?$AA?5?$AAi?$AAn?$AA?5?$AAf?$AAi?$AAl?$AAe?$AA?5?$AA?$CF?$AAs?$AA?5?$AAa@|
  00084		 |$LN10@WriteUDCRe@2|
  00084	00000000	 DCD         |??_C@_1BA@LEPJIIOK@?$AAU?$AAn?$AAk?$AAn?$AAo?$AAw?$AAn?$AA?$AA@|
  00088		 |$LN11@WriteUDCRe@2|
  00088	00000000	 DCD         |??_C@_1CG@MKCCFBBJ@?$AA?4?$AA?4?$AA?2?$AAi?$AAn?$AAc?$AA?2?$AAb?$AAu?$AAl?$AA_?$AAu?$AAs?$AAb?$AAf?$AAn?$AA?4?$AAh?$AA?$AA@|
  0008c		 |$M38426|

			 ENDP  ; |?WriteUDCRegisterByte@BulUsbDevice@@QAAXKE@Z|, BulUsbDevice::WriteUDCRegisterByte


  00000			 AREA	 |.pdata|, PDATA
|$T38443| DCD	|$LN9@WriteDataR@2|
	DCD	0x40003504
; Function compile flags: /Odtp

  00000			 AREA	 |.text|, CODE, ARM

  00000		 |?WriteDataRegister@BulEndpoint@@QAAXK@Z| PROC ; BulEndpoint::WriteDataRegister

; 309  :     void    WriteDataRegister(DWORD dwData) {

  00000		 |$LN9@WriteDataR@2|
  00000	e1a0c00d	 mov         r12, sp
  00004	e92d0003	 stmdb       sp!, {r0, r1}
  00008	e92d5000	 stmdb       sp!, {r12, lr}
  0000c	e24dd008	 sub         sp, sp, #8
  00010		 |$M38440|

; 310  :         PREFAST_ASSERT(m_pUsbDevice!=NULL);

  00010	e59d3010	 ldr         r3, [sp, #0x10]
  00014	e283301c	 add         r3, r3, #0x1C
  00018	e5933000	 ldr         r3, [r3]
  0001c	e3530000	 cmp         r3, #0
  00020	0a000002	 beq         |$LN3@WriteDataR@2|
  00024	e3a03001	 mov         r3, #1
  00028	e58d3000	 str         r3, [sp]
  0002c	ea000008	 b           |$LN4@WriteDataR@2|
  00030		 |$LN3@WriteDataR@2|
  00030	e3a03c01	 mov         r3, #1, 24
  00034	e3833036	 orr         r3, r3, #0x36
  00038	e59f2090	 ldr         r2, [pc, #0x90]
  0003c	e59f1088	 ldr         r1, [pc, #0x88]
  00040	e59f0080	 ldr         r0, [pc, #0x80]
  00044	eb000000	 bl          NKDbgPrintfW
  00048	e6000010	 __debugbreak_ce
  0004c	e3a03000	 mov         r3, #0
  00050	e58d3000	 str         r3, [sp]
  00054		 |$LN4@WriteDataR@2|

; 311  :         PREFAST_ASSERT(m_dwEndpointIndex<MAX_ENDPOINT_NUMBER);

  00054	e59d3010	 ldr         r3, [sp, #0x10]
  00058	e2833020	 add         r3, r3, #0x20
  0005c	e5933000	 ldr         r3, [r3]
  00060	e3530018	 cmp         r3, #0x18
  00064	2a000002	 bcs         |$LN5@WriteDataR@2|
  00068	e3a03001	 mov         r3, #1
  0006c	e58d3004	 str         r3, [sp, #4]
  00070	ea000008	 b           |$LN6@WriteDataR@2|
  00074		 |$LN5@WriteDataR@2|
  00074	e3a03c01	 mov         r3, #1, 24
  00078	e3833037	 orr         r3, r3, #0x37
  0007c	e59f204c	 ldr         r2, [pc, #0x4C]
  00080	e59f1044	 ldr         r1, [pc, #0x44]
  00084	e59f003c	 ldr         r0, [pc, #0x3C]
  00088	eb000000	 bl          NKDbgPrintfW
  0008c	e6000010	 __debugbreak_ce
  00090	e3a03000	 mov         r3, #0
  00094	e58d3004	 str         r3, [sp, #4]
  00098		 |$LN6@WriteDataR@2|

; 312  :         m_pUsbDevice->WriteUDCRegister( ENDPOINT_DATA_REGISTER_OFFSET + m_dwEndpointIndex, dwData);

  00098	e59d2014	 ldr         r2, [sp, #0x14]
  0009c	e59d3010	 ldr         r3, [sp, #0x10]
  000a0	e2833020	 add         r3, r3, #0x20
  000a4	e5933000	 ldr         r3, [r3]
  000a8	e28310c0	 add         r1, r3, #0xC0
  000ac	e59d3010	 ldr         r3, [sp, #0x10]
  000b0	e283301c	 add         r3, r3, #0x1C
  000b4	e5930000	 ldr         r0, [r3]
  000b8	eb000000	 bl          |?WriteUDCRegister@BulUsbDevice@@QAAXKK@Z|

; 313  :     }

  000bc	e28dd008	 add         sp, sp, #8
  000c0	e89d6000	 ldmia       sp, {sp, lr}
  000c4	e12fff1e	 bx          lr
  000c8		 |$LN10@WriteDataR@2|
  000c8		 |$LN11@WriteDataR@2|
  000c8	00000000	 DCD         |??_C@_1FK@FNONLNGN@?$AA?$CF?$AAs?$AA?3?$AA?5?$AAD?$AAE?$AAB?$AAU?$AAG?$AAC?$AAH?$AAK?$AA?5?$AAf?$AAa?$AAi?$AAl?$AAe?$AAd?$AA?5?$AAi?$AAn?$AA?5?$AAf?$AAi?$AAl?$AAe?$AA?5?$AA?$CF?$AAs?$AA?5?$AAa@|
  000cc		 |$LN12@WriteDataR@2|
  000cc	00000000	 DCD         |??_C@_1BA@LEPJIIOK@?$AAU?$AAn?$AAk?$AAn?$AAo?$AAw?$AAn?$AA?$AA@|
  000d0		 |$LN13@WriteDataR@2|
  000d0	00000000	 DCD         |??_C@_1CG@MKCCFBBJ@?$AA?4?$AA?4?$AA?2?$AAi?$AAn?$AAc?$AA?2?$AAb?$AAu?$AAl?$AA_?$AAu?$AAs?$AAb?$AAf?$AAn?$AA?4?$AAh?$AA?$AA@|
  000d4		 |$M38441|

			 ENDP  ; |?WriteDataRegister@BulEndpoint@@QAAXK@Z|, BulEndpoint::WriteDataRegister

	EXPORT	|??_C@_1EC@NCOPMHEO@?$AA?$CF?$AAs?$AA?5?$AAC?$AAo?$AAm?$AAp?$AAl?$AAe?$AAt?$AAe?$AA?5?$AAd?$AAw?$AAT?$AAo?$AAt?$AAa?$AAl?$AAR?$AAe?$AAa?$AAd?$AA?5?$AA?$DN?$AA?5?$AA0?$AAx?$AA?$CF?$AAx?$AA?$AN?$AA?6@| [ DATA ] ; `string'
	EXPORT	|?ReadDataRegister@BulEndpoint@@QAAKXZ|	; BulEndpoint::ReadDataRegister
	EXPORT	|?ReadByteCountRegister@BulEndpoint@@QAAKXZ| ; BulEndpoint::ReadByteCountRegister
	EXPORT	|??_C@_1FC@LAFFEOAJ@?$AAb?$AAu?$AAl?$AAv?$AAe?$AAr?$AAd?$AAe?$AA_?$AAu?$AAs?$AAb?$AAf?$AAn?$AA?$CB?$AAB?$AAu?$AAl?$AAE?$AAn?$AAd?$AAp?$AAo?$AAi?$AAn?$AAt?$AA?3?$AA?3?$AAR?$AAe?$AAc?$AAe@| [ DATA ] ; `string'
	EXPORT	|?ReceiveData@BulEndpoint@@IAAKPAEK@Z|	; BulEndpoint::ReceiveData

  00058			 AREA	 |.pdata|, PDATA
|$T38465| DCD	|$LN22@ReceiveDat|
	DCD	0x40008b04
; File c:\wince600\platform\common\src\soc\pxa27x_ms_v1\usbfn\bul_usbfn.cpp

  00000			 AREA	 |.rdata|, DATA, READONLY
|??_C@_1EC@NCOPMHEO@?$AA?$CF?$AAs?$AA?5?$AAC?$AAo?$AAm?$AAp?$AAl?$AAe?$AAt?$AAe?$AA?5?$AAd?$AAw?$AAT?$AAo?$AAt?$AAa?$AAl?$AAR?$AAe?$AAa?$AAd?$AA?5?$AA?$DN?$AA?5?$AA0?$AAx?$AA?$CF?$AAx?$AA?$AN?$AA?6@| DCB "%"
	DCB	0x0, "s", 0x0, " ", 0x0, "C", 0x0, "o", 0x0, "m", 0x0, "p"
	DCB	0x0, "l", 0x0, "e", 0x0, "t", 0x0, "e", 0x0, " ", 0x0, "d"
	DCB	0x0, "w", 0x0, "T", 0x0, "o", 0x0, "t", 0x0, "a", 0x0, "l"
	DCB	0x0, "R", 0x0, "e", 0x0, "a", 0x0, "d", 0x0, " ", 0x0, "="
	DCB	0x0, " ", 0x0, "0", 0x0, "x", 0x0, "%", 0x0, "x", 0x0, 0xd
	DCB	0x0, 0xa, 0x0, 0x0, 0x0			; `string'

  00000			 AREA	 |.rdata|, DATA, READONLY
|??_C@_1FC@LAFFEOAJ@?$AAb?$AAu?$AAl?$AAv?$AAe?$AAr?$AAd?$AAe?$AA_?$AAu?$AAs?$AAb?$AAf?$AAn?$AA?$CB?$AAB?$AAu?$AAl?$AAE?$AAn?$AAd?$AAp?$AAo?$AAi?$AAn?$AAt?$AA?3?$AA?3?$AAR?$AAe?$AAc?$AAe@| DCB "b"
	DCB	0x0, "u", 0x0, "l", 0x0, "v", 0x0, "e", 0x0, "r", 0x0, "d"
	DCB	0x0, "e", 0x0, "_", 0x0, "u", 0x0, "s", 0x0, "b", 0x0, "f"
	DCB	0x0, "n", 0x0, "!", 0x0, "B", 0x0, "u", 0x0, "l", 0x0, "E"
	DCB	0x0, "n", 0x0, "d", 0x0, "p", 0x0, "o", 0x0, "i", 0x0, "n"
	DCB	0x0, "t", 0x0, ":", 0x0, ":", 0x0, "R", 0x0, "e", 0x0, "c"
	DCB	0x0, "e", 0x0, "i", 0x0, "v", 0x0, "e", 0x0, "D", 0x0, "a"
	DCB	0x0, "t", 0x0, "a", 0x0, ":", 0x0, 0x0, 0x0 ; `string'
; Function compile flags: /Odtp

  013c4			 AREA	 |.text|, CODE, ARM

  013c4		 |?ReceiveData@BulEndpoint@@IAAKPAEK@Z| PROC ; BulEndpoint::ReceiveData

; 234  : {

  013c4		 |$LN22@ReceiveDat|
  013c4	e1a0c00d	 mov         r12, sp
  013c8	e92d0007	 stmdb       sp!, {r0 - r2}
  013cc	e92d5000	 stmdb       sp!, {r12, lr}
  013d0	e24dd030	 sub         sp, sp, #0x30
  013d4		 |$M38462|

; 235  :     SETFNAME();

  013d4	e59f3210	 ldr         r3, [pc, #0x210]
  013d8	e58d3008	 str         r3, [sp, #8]

; 236  :     DEBUGMSG(ZONE_FUNCTION, (_T("%s pBuffer=0x%x, dwLegnth= 0x%x\r\n"),pszFname,pBuffer,dwLength));

  013dc	e59f31f4	 ldr         r3, [pc, #0x1F4]
  013e0	e5933440	 ldr         r3, [r3, #0x440]
  013e4	e3130a01	 tst         r3, #1, 20
  013e8	0a000011	 beq         |$LN12@ReceiveDat|
  013ec	e59f31e4	 ldr         r3, [pc, #0x1E4]
  013f0	e5933440	 ldr         r3, [r3, #0x440]
  013f4	e3130801	 tst         r3, #1, 16
  013f8	0a000005	 beq         |$LN10@ReceiveDat|
  013fc	e59d3040	 ldr         r3, [sp, #0x40]
  01400	e59d203c	 ldr         r2, [sp, #0x3C]
  01404	e59d1008	 ldr         r1, [sp, #8]
  01408	e59f01d8	 ldr         r0, [pc, #0x1D8]
  0140c	eb000000	 bl          CeLogMsg
  01410	ea000004	 b           |$LN11@ReceiveDat|
  01414		 |$LN10@ReceiveDat|
  01414	e59d3040	 ldr         r3, [sp, #0x40]
  01418	e59d203c	 ldr         r2, [sp, #0x3C]
  0141c	e59d1008	 ldr         r1, [sp, #8]
  01420	e59f01c0	 ldr         r0, [pc, #0x1C0]
  01424	eb000000	 bl          NKDbgPrintfW
  01428		 |$LN11@ReceiveDat|
  01428	e3a03001	 mov         r3, #1
  0142c	e58d301c	 str         r3, [sp, #0x1C]
  01430	ea000001	 b           |$LN13@ReceiveDat|
  01434		 |$LN12@ReceiveDat|
  01434	e3a03000	 mov         r3, #0
  01438	e58d301c	 str         r3, [sp, #0x1C]
  0143c		 |$LN13@ReceiveDat|

; 237  :     PREFAST_ASSERT(pBuffer!=NULL);

  0143c	e59d303c	 ldr         r3, [sp, #0x3C]
  01440	e3530000	 cmp         r3, #0
  01444	0a000002	 beq         |$LN14@ReceiveDat|
  01448	e3a03001	 mov         r3, #1
  0144c	e58d3020	 str         r3, [sp, #0x20]
  01450	ea000007	 b           |$LN15@ReceiveDat|
  01454		 |$LN14@ReceiveDat|
  01454	e3a030ed	 mov         r3, #0xED
  01458	e59f2184	 ldr         r2, [pc, #0x184]
  0145c	e59f117c	 ldr         r1, [pc, #0x17C]
  01460	e59f0174	 ldr         r0, [pc, #0x174]
  01464	eb000000	 bl          NKDbgPrintfW
  01468	e6000010	 __debugbreak_ce
  0146c	e3a03000	 mov         r3, #0
  01470	e58d3020	 str         r3, [sp, #0x20]
  01474		 |$LN15@ReceiveDat|

; 238  :     // Spec 12.4.2
; 239  :     union {
; 240  :         BYTE  bData[4];
; 241  :         DWORD dwData;
; 242  :     } ;
; 243  :     DWORD dwAvailableDataSize = ReadByteCountRegister();

  01474	e59d0038	 ldr         r0, [sp, #0x38]
  01478	eb000000	 bl          |?ReadByteCountRegister@BulEndpoint@@QAAKXZ|
  0147c	e58d0024	 str         r0, [sp, #0x24]
  01480	e59d3024	 ldr         r3, [sp, #0x24]
  01484	e58d3014	 str         r3, [sp, #0x14]

; 244  :     DWORD dwDataRead;
; 245  :     DWORD dwIndex;
; 246  :     DWORD dwTotalRead = 0;

  01488	e3a03000	 mov         r3, #0
  0148c	e58d300c	 str         r3, [sp, #0xC]
  01490		 |$LN7@ReceiveDat|

; 247  :     while (dwAvailableDataSize) {

  01490	e59d3014	 ldr         r3, [sp, #0x14]
  01494	e3530000	 cmp         r3, #0
  01498	0a000031	 beq         |$LN6@ReceiveDat|

; 248  :         dwData = ReadDataRegister();

  0149c	e59d0038	 ldr         r0, [sp, #0x38]
  014a0	eb000000	 bl          |?ReadDataRegister@BulEndpoint@@QAAKXZ|
  014a4	e58d0028	 str         r0, [sp, #0x28]
  014a8	e59d3028	 ldr         r3, [sp, #0x28]
  014ac	e58d3000	 str         r3, [sp]

; 249  :         if (dwAvailableDataSize>=sizeof(DWORD)) {

  014b0	e59d3014	 ldr         r3, [sp, #0x14]
  014b4	e3530004	 cmp         r3, #4
  014b8	3a000005	 bcc         |$LN5@ReceiveDat|

; 250  :             dwAvailableDataSize -= sizeof(DWORD);

  014bc	e59d3014	 ldr         r3, [sp, #0x14]
  014c0	e2433004	 sub         r3, r3, #4
  014c4	e58d3014	 str         r3, [sp, #0x14]

; 251  :             dwDataRead = sizeof(DWORD);

  014c8	e3a03004	 mov         r3, #4
  014cc	e58d3004	 str         r3, [sp, #4]

; 252  :         }
; 253  :         else {

  014d0	ea000003	 b           |$LN4@ReceiveDat|
  014d4		 |$LN5@ReceiveDat|

; 254  :             dwDataRead = dwAvailableDataSize;

  014d4	e59d3014	 ldr         r3, [sp, #0x14]
  014d8	e58d3004	 str         r3, [sp, #4]

; 255  :             dwAvailableDataSize = 0;

  014dc	e3a03000	 mov         r3, #0
  014e0	e58d3014	 str         r3, [sp, #0x14]
  014e4		 |$LN4@ReceiveDat|

; 256  :         }
; 257  :         for (dwIndex = 0 ; dwIndex < dwDataRead && dwIndex < dwLength; dwIndex ++) {

  014e4	e3a03000	 mov         r3, #0
  014e8	e58d3010	 str         r3, [sp, #0x10]
  014ec	ea000002	 b           |$LN3@ReceiveDat|
  014f0		 |$LN2@ReceiveDat|
  014f0	e59d3010	 ldr         r3, [sp, #0x10]
  014f4	e2833001	 add         r3, r3, #1
  014f8	e58d3010	 str         r3, [sp, #0x10]
  014fc		 |$LN3@ReceiveDat|
  014fc	e59d2010	 ldr         r2, [sp, #0x10]
  01500	e59d3004	 ldr         r3, [sp, #4]
  01504	e1520003	 cmp         r2, r3
  01508	2a000010	 bcs         |$LN1@ReceiveDat|
  0150c	e59d2010	 ldr         r2, [sp, #0x10]
  01510	e59d3040	 ldr         r3, [sp, #0x40]
  01514	e1520003	 cmp         r2, r3
  01518	2a00000c	 bcs         |$LN1@ReceiveDat|

; 258  :             *(pBuffer++) = bData[dwIndex];

  0151c	e28d2000	 add         r2, sp, #0
  01520	e59d3010	 ldr         r3, [sp, #0x10]
  01524	e0823003	 add         r3, r2, r3
  01528	e5d32000	 ldrb        r2, [r3]
  0152c	e59d303c	 ldr         r3, [sp, #0x3C]
  01530	e5c32000	 strb        r2, [r3]
  01534	e59d303c	 ldr         r3, [sp, #0x3C]
  01538	e2833001	 add         r3, r3, #1
  0153c	e58d303c	 str         r3, [sp, #0x3C]

; 259  :             dwTotalRead ++;

  01540	e59d300c	 ldr         r3, [sp, #0xC]
  01544	e2833001	 add         r3, r3, #1
  01548	e58d300c	 str         r3, [sp, #0xC]

; 260  :         }

  0154c	eaffffe7	 b           |$LN2@ReceiveDat|
  01550		 |$LN1@ReceiveDat|

; 261  :         dwLength -= dwIndex;

  01550	e59d2040	 ldr         r2, [sp, #0x40]
  01554	e59d3010	 ldr         r3, [sp, #0x10]
  01558	e0423003	 sub         r3, r2, r3
  0155c	e58d3040	 str         r3, [sp, #0x40]

; 262  :     }

  01560	eaffffca	 b           |$LN7@ReceiveDat|
  01564		 |$LN6@ReceiveDat|

; 263  :     DEBUGMSG(ZONE_FUNCTION, (_T("%s Complete dwTotalRead = 0x%x\r\n"),pszFname,dwTotalRead));

  01564	e59f306c	 ldr         r3, [pc, #0x6C]
  01568	e5933440	 ldr         r3, [r3, #0x440]
  0156c	e3130a01	 tst         r3, #1, 20
  01570	0a00000f	 beq         |$LN18@ReceiveDat|
  01574	e59f305c	 ldr         r3, [pc, #0x5C]
  01578	e5933440	 ldr         r3, [r3, #0x440]
  0157c	e3130801	 tst         r3, #1, 16
  01580	0a000004	 beq         |$LN16@ReceiveDat|
  01584	e59d200c	 ldr         r2, [sp, #0xC]
  01588	e59d1008	 ldr         r1, [sp, #8]
  0158c	e59f0040	 ldr         r0, [pc, #0x40]
  01590	eb000000	 bl          CeLogMsg
  01594	ea000003	 b           |$LN17@ReceiveDat|
  01598		 |$LN16@ReceiveDat|
  01598	e59d200c	 ldr         r2, [sp, #0xC]
  0159c	e59d1008	 ldr         r1, [sp, #8]
  015a0	e59f002c	 ldr         r0, [pc, #0x2C]
  015a4	eb000000	 bl          NKDbgPrintfW
  015a8		 |$LN17@ReceiveDat|
  015a8	e3a03001	 mov         r3, #1
  015ac	e58d302c	 str         r3, [sp, #0x2C]
  015b0	ea000001	 b           |$LN19@ReceiveDat|
  015b4		 |$LN18@ReceiveDat|
  015b4	e3a03000	 mov         r3, #0
  015b8	e58d302c	 str         r3, [sp, #0x2C]
  015bc		 |$LN19@ReceiveDat|

; 264  :     return dwTotalRead;

  015bc	e59d300c	 ldr         r3, [sp, #0xC]
  015c0	e58d3018	 str         r3, [sp, #0x18]

; 265  : }

  015c4	e59d0018	 ldr         r0, [sp, #0x18]
  015c8	e28dd030	 add         sp, sp, #0x30
  015cc	e89d6000	 ldmia       sp, {sp, lr}
  015d0	e12fff1e	 bx          lr
  015d4		 |$LN23@ReceiveDat|
  015d4		 |$LN24@ReceiveDat|
  015d4	00000000	 DCD         |??_C@_1EC@NCOPMHEO@?$AA?$CF?$AAs?$AA?5?$AAC?$AAo?$AAm?$AAp?$AAl?$AAe?$AAt?$AAe?$AA?5?$AAd?$AAw?$AAT?$AAo?$AAt?$AAa?$AAl?$AAR?$AAe?$AAa?$AAd?$AA?5?$AA?$DN?$AA?5?$AA0?$AAx?$AA?$CF?$AAx?$AA?$AN?$AA?6@|
  015d8		 |$LN25@ReceiveDat|
  015d8	00000000	 DCD         |dpCurSettings|
  015dc		 |$LN26@ReceiveDat|
  015dc	00000000	 DCD         |??_C@_1FK@FNONLNGN@?$AA?$CF?$AAs?$AA?3?$AA?5?$AAD?$AAE?$AAB?$AAU?$AAG?$AAC?$AAH?$AAK?$AA?5?$AAf?$AAa?$AAi?$AAl?$AAe?$AAd?$AA?5?$AAi?$AAn?$AA?5?$AAf?$AAi?$AAl?$AAe?$AA?5?$AA?$CF?$AAs?$AA?5?$AAa@|
  015e0		 |$LN27@ReceiveDat|
  015e0	00000000	 DCD         |??_C@_1BA@LEPJIIOK@?$AAU?$AAn?$AAk?$AAn?$AAo?$AAw?$AAn?$AA?$AA@|
  015e4		 |$LN28@ReceiveDat|
  015e4	00000000	 DCD         |??_C@_1IO@HHHNJPIB@?$AAC?$AA?3?$AA?2?$AAW?$AAI?$AAN?$AAC?$AAE?$AA6?$AA0?$AA0?$AA?2?$AAP?$AAL?$AAA?$AAT?$AAF?$AAO?$AAR?$AAM?$AA?2?$AAC?$AAO?$AAM?$AAM?$AAO?$AAN?$AA?2?$AAS?$AAR?$AAC?$AA?2@|
  015e8		 |$LN29@ReceiveDat|
  015e8	00000000	 DCD         |??_C@_1EE@NAOCPMCM@?$AA?$CF?$AAs?$AA?5?$AAp?$AAB?$AAu?$AAf?$AAf?$AAe?$AAr?$AA?$DN?$AA0?$AAx?$AA?$CF?$AAx?$AA?0?$AA?5?$AAd?$AAw?$AAL?$AAe?$AAg?$AAn?$AAt?$AAh?$AA?$DN?$AA?5?$AA0?$AAx?$AA?$CF?$AAx?$AA?$AN@|
  015ec		 |$LN30@ReceiveDat|
  015ec	00000000	 DCD         |??_C@_1FC@LAFFEOAJ@?$AAb?$AAu?$AAl?$AAv?$AAe?$AAr?$AAd?$AAe?$AA_?$AAu?$AAs?$AAb?$AAf?$AAn?$AA?$CB?$AAB?$AAu?$AAl?$AAE?$AAn?$AAd?$AAp?$AAo?$AAi?$AAn?$AAt?$AA?3?$AA?3?$AAR?$AAe?$AAc?$AAe@|
  015f0		 |$M38463|

			 ENDP  ; |?ReceiveData@BulEndpoint@@IAAKPAEK@Z|, BulEndpoint::ReceiveData

; File c:\wince600\platform\common\src\soc\pxa27x_ms_v1\inc\bul_usbfn.h

  00000			 AREA	 |.pdata|, PDATA
|$T38483| DCD	|$LN9@ReadByteCo|
	DCD	0x40003a04
; Function compile flags: /Odtp

  00000			 AREA	 |.text|, CODE, ARM

  00000		 |?ReadByteCountRegister@BulEndpoint@@QAAKXZ| PROC ; BulEndpoint::ReadByteCountRegister

; 287  :     DWORD   ReadByteCountRegister(){

  00000		 |$LN9@ReadByteCo|
  00000	e1a0c00d	 mov         r12, sp
  00004	e92d0001	 stmdb       sp!, {r0}
  00008	e92d5000	 stmdb       sp!, {r12, lr}
  0000c	e24dd010	 sub         sp, sp, #0x10
  00010		 |$M38480|

; 288  :         PREFAST_ASSERT(m_pUsbDevice!=NULL);

  00010	e59d3018	 ldr         r3, [sp, #0x18]
  00014	e283301c	 add         r3, r3, #0x1C
  00018	e5933000	 ldr         r3, [r3]
  0001c	e3530000	 cmp         r3, #0
  00020	0a000002	 beq         |$LN3@ReadByteCo|
  00024	e3a03001	 mov         r3, #1
  00028	e58d3004	 str         r3, [sp, #4]
  0002c	ea000007	 b           |$LN4@ReadByteCo|
  00030		 |$LN3@ReadByteCo|
  00030	e3a03e12	 mov         r3, #0x12, 28
  00034	e59f20a8	 ldr         r2, [pc, #0xA8]
  00038	e59f10a0	 ldr         r1, [pc, #0xA0]
  0003c	e59f0098	 ldr         r0, [pc, #0x98]
  00040	eb000000	 bl          NKDbgPrintfW
  00044	e6000010	 __debugbreak_ce
  00048	e3a03000	 mov         r3, #0
  0004c	e58d3004	 str         r3, [sp, #4]
  00050		 |$LN4@ReadByteCo|

; 289  :         PREFAST_ASSERT(m_dwEndpointIndex<MAX_ENDPOINT_NUMBER);

  00050	e59d3018	 ldr         r3, [sp, #0x18]
  00054	e2833020	 add         r3, r3, #0x20
  00058	e5933000	 ldr         r3, [r3]
  0005c	e3530018	 cmp         r3, #0x18
  00060	2a000002	 bcs         |$LN5@ReadByteCo|
  00064	e3a03001	 mov         r3, #1
  00068	e58d3008	 str         r3, [sp, #8]
  0006c	ea000008	 b           |$LN6@ReadByteCo|
  00070		 |$LN5@ReadByteCo|
  00070	e3a03c01	 mov         r3, #1, 24
  00074	e3833021	 orr         r3, r3, #0x21
  00078	e59f2064	 ldr         r2, [pc, #0x64]
  0007c	e59f105c	 ldr         r1, [pc, #0x5C]
  00080	e59f0054	 ldr         r0, [pc, #0x54]
  00084	eb000000	 bl          NKDbgPrintfW
  00088	e6000010	 __debugbreak_ce
  0008c	e3a03000	 mov         r3, #0
  00090	e58d3008	 str         r3, [sp, #8]
  00094		 |$LN6@ReadByteCo|

; 290  :         return ((m_pUsbDevice->ReadUDCRegister( ENDPOINT_BYTECOUNT_REGISTER_OFFSET + m_dwEndpointIndex)) & 0x3ff);

  00094	e59d3018	 ldr         r3, [sp, #0x18]
  00098	e2833020	 add         r3, r3, #0x20
  0009c	e5933000	 ldr         r3, [r3]
  000a0	e2831080	 add         r1, r3, #0x80
  000a4	e59d3018	 ldr         r3, [sp, #0x18]
  000a8	e283301c	 add         r3, r3, #0x1C
  000ac	e5930000	 ldr         r0, [r3]
  000b0	eb000000	 bl          |?ReadUDCRegister@BulUsbDevice@@QAAKK@Z|
  000b4	e58d000c	 str         r0, [sp, #0xC]
  000b8	e59d200c	 ldr         r2, [sp, #0xC]
  000bc	e3a03c03	 mov         r3, #3, 24
  000c0	e38330ff	 orr         r3, r3, #0xFF
  000c4	e0023003	 and         r3, r2, r3
  000c8	e58d3000	 str         r3, [sp]

; 291  :     }

  000cc	e59d0000	 ldr         r0, [sp]
  000d0	e28dd010	 add         sp, sp, #0x10
  000d4	e89d6000	 ldmia       sp, {sp, lr}
  000d8	e12fff1e	 bx          lr
  000dc		 |$LN10@ReadByteCo|
  000dc		 |$LN11@ReadByteCo|
  000dc	00000000	 DCD         |??_C@_1FK@FNONLNGN@?$AA?$CF?$AAs?$AA?3?$AA?5?$AAD?$AAE?$AAB?$AAU?$AAG?$AAC?$AAH?$AAK?$AA?5?$AAf?$AAa?$AAi?$AAl?$AAe?$AAd?$AA?5?$AAi?$AAn?$AA?5?$AAf?$AAi?$AAl?$AAe?$AA?5?$AA?$CF?$AAs?$AA?5?$AAa@|
  000e0		 |$LN12@ReadByteCo|
  000e0	00000000	 DCD         |??_C@_1BA@LEPJIIOK@?$AAU?$AAn?$AAk?$AAn?$AAo?$AAw?$AAn?$AA?$AA@|
  000e4		 |$LN13@ReadByteCo|
  000e4	00000000	 DCD         |??_C@_1CG@MKCCFBBJ@?$AA?4?$AA?4?$AA?2?$AAi?$AAn?$AAc?$AA?2?$AAb?$AAu?$AAl?$AA_?$AAu?$AAs?$AAb?$AAf?$AAn?$AA?4?$AAh?$AA?$AA@|
  000e8		 |$M38481|

			 ENDP  ; |?ReadByteCountRegister@BulEndpoint@@QAAKXZ|, BulEndpoint::ReadByteCountRegister


  00000			 AREA	 |.pdata|, PDATA
|$T38499| DCD	|$LN9@ReadDataRe|
	DCD	0x40003704
; Function compile flags: /Odtp

  00000			 AREA	 |.text|, CODE, ARM

  00000		 |?ReadDataRegister@BulEndpoint@@QAAKXZ| PROC ; BulEndpoint::ReadDataRegister

; 299  :     DWORD    ReadDataRegister() {

  00000		 |$LN9@ReadDataRe|
  00000	e1a0c00d	 mov         r12, sp
  00004	e92d0001	 stmdb       sp!, {r0}
  00008	e92d5000	 stmdb       sp!, {r12, lr}
  0000c	e24dd010	 sub         sp, sp, #0x10
  00010		 |$M38496|

; 300  :         PREFAST_ASSERT(m_pUsbDevice!=NULL);

  00010	e59d3018	 ldr         r3, [sp, #0x18]
  00014	e283301c	 add         r3, r3, #0x1C
  00018	e5933000	 ldr         r3, [r3]
  0001c	e3530000	 cmp         r3, #0
  00020	0a000002	 beq         |$LN3@ReadDataRe|
  00024	e3a03001	 mov         r3, #1
  00028	e58d3004	 str         r3, [sp, #4]
  0002c	ea000007	 b           |$LN4@ReadDataRe|
  00030		 |$LN3@ReadDataRe|
  00030	e3a03f4b	 mov         r3, #0x4B, 30
  00034	e59f209c	 ldr         r2, [pc, #0x9C]
  00038	e59f1094	 ldr         r1, [pc, #0x94]
  0003c	e59f008c	 ldr         r0, [pc, #0x8C]
  00040	eb000000	 bl          NKDbgPrintfW
  00044	e6000010	 __debugbreak_ce
  00048	e3a03000	 mov         r3, #0
  0004c	e58d3004	 str         r3, [sp, #4]
  00050		 |$LN4@ReadDataRe|

; 301  :         PREFAST_ASSERT(m_dwEndpointIndex<MAX_ENDPOINT_NUMBER);

  00050	e59d3018	 ldr         r3, [sp, #0x18]
  00054	e2833020	 add         r3, r3, #0x20
  00058	e5933000	 ldr         r3, [r3]
  0005c	e3530018	 cmp         r3, #0x18
  00060	2a000002	 bcs         |$LN5@ReadDataRe|
  00064	e3a03001	 mov         r3, #1
  00068	e58d3008	 str         r3, [sp, #8]
  0006c	ea000008	 b           |$LN6@ReadDataRe|
  00070		 |$LN5@ReadDataRe|
  00070	e3a03c01	 mov         r3, #1, 24
  00074	e383302d	 orr         r3, r3, #0x2D
  00078	e59f2058	 ldr         r2, [pc, #0x58]
  0007c	e59f1050	 ldr         r1, [pc, #0x50]
  00080	e59f0048	 ldr         r0, [pc, #0x48]
  00084	eb000000	 bl          NKDbgPrintfW
  00088	e6000010	 __debugbreak_ce
  0008c	e3a03000	 mov         r3, #0
  00090	e58d3008	 str         r3, [sp, #8]
  00094		 |$LN6@ReadDataRe|

; 302  :         return ( m_pUsbDevice->ReadUDCRegister( ENDPOINT_DATA_REGISTER_OFFSET + m_dwEndpointIndex));

  00094	e59d3018	 ldr         r3, [sp, #0x18]
  00098	e2833020	 add         r3, r3, #0x20
  0009c	e5933000	 ldr         r3, [r3]
  000a0	e28310c0	 add         r1, r3, #0xC0
  000a4	e59d3018	 ldr         r3, [sp, #0x18]
  000a8	e283301c	 add         r3, r3, #0x1C
  000ac	e5930000	 ldr         r0, [r3]
  000b0	eb000000	 bl          |?ReadUDCRegister@BulUsbDevice@@QAAKK@Z|
  000b4	e58d000c	 str         r0, [sp, #0xC]
  000b8	e59d300c	 ldr         r3, [sp, #0xC]
  000bc	e58d3000	 str         r3, [sp]

; 303  :     }

  000c0	e59d0000	 ldr         r0, [sp]
  000c4	e28dd010	 add         sp, sp, #0x10
  000c8	e89d6000	 ldmia       sp, {sp, lr}
  000cc	e12fff1e	 bx          lr
  000d0		 |$LN10@ReadDataRe|
  000d0		 |$LN11@ReadDataRe|
  000d0	00000000	 DCD         |??_C@_1FK@FNONLNGN@?$AA?$CF?$AAs?$AA?3?$AA?5?$AAD?$AAE?$AAB?$AAU?$AAG?$AAC?$AAH?$AAK?$AA?5?$AAf?$AAa?$AAi?$AAl?$AAe?$AAd?$AA?5?$AAi?$AAn?$AA?5?$AAf?$AAi?$AAl?$AAe?$AA?5?$AA?$CF?$AAs?$AA?5?$AAa@|
  000d4		 |$LN12@ReadDataRe|
  000d4	00000000	 DCD         |??_C@_1BA@LEPJIIOK@?$AAU?$AAn?$AAk?$AAn?$AAo?$AAw?$AAn?$AA?$AA@|
  000d8		 |$LN13@ReadDataRe|
  000d8	00000000	 DCD         |??_C@_1CG@MKCCFBBJ@?$AA?4?$AA?4?$AA?2?$AAi?$AAn?$AAc?$AA?2?$AAb?$AAu?$AAl?$AA_?$AAu?$AAs?$AAb?$AAf?$AAn?$AA?4?$AAh?$AA?$AA@|
  000dc		 |$M38497|

			 ENDP  ; |?ReadDataRegister@BulEndpoint@@QAAKXZ|, BulEndpoint::ReadDataRegister

	EXPORT	|?DeviceNotification@BulUsbDevice@@QAAHKK@Z| ; BulUsbDevice::DeviceNotification
	EXPORT	|?SendFakeFeature@BulEndpoint@@IAAXEG@Z| ; BulEndpoint::SendFakeFeature

  00060			 AREA	 |.pdata|, PDATA
|$T38512| DCD	|$LN7@SendFakeFe|
	DCD	0x40002d04
; Function compile flags: /Odtp
; File c:\wince600\platform\common\src\soc\pxa27x_ms_v1\usbfn\bul_usbfn.cpp

  015f0			 AREA	 |.text|, CODE, ARM

  015f0		 |?SendFakeFeature@BulEndpoint@@IAAXEG@Z| PROC ; BulEndpoint::SendFakeFeature

; 267  : {

  015f0		 |$LN7@SendFakeFe|
  015f0	e1a0c00d	 mov         r12, sp
  015f4	e92d0007	 stmdb       sp!, {r0 - r2}
  015f8	e92d5000	 stmdb       sp!, {r12, lr}
  015fc	e24dd00c	 sub         sp, sp, #0xC
  01600		 |$M38509|

; 268  :     USB_DEVICE_REQUEST udr;
; 269  :     PREFAST_DEBUGCHK(m_pUsbDevice!=NULL);

  01600	e59d3014	 ldr         r3, [sp, #0x14]
  01604	e283301c	 add         r3, r3, #0x1C
  01608	e5933000	 ldr         r3, [r3]
  0160c	e3530000	 cmp         r3, #0
  01610	0a000002	 beq         |$LN3@SendFakeFe|
  01614	e3a03001	 mov         r3, #1
  01618	e58d3008	 str         r3, [sp, #8]
  0161c	ea000008	 b           |$LN4@SendFakeFe|
  01620		 |$LN3@SendFakeFe|
  01620	e3a03c01	 mov         r3, #1, 24
  01624	e383300d	 orr         r3, r3, #0xD
  01628	e59f2070	 ldr         r2, [pc, #0x70]
  0162c	e59f1068	 ldr         r1, [pc, #0x68]
  01630	e59f0060	 ldr         r0, [pc, #0x60]
  01634	eb000000	 bl          NKDbgPrintfW
  01638	e6000010	 __debugbreak_ce
  0163c	e3a03000	 mov         r3, #0
  01640	e58d3008	 str         r3, [sp, #8]
  01644		 |$LN4@SendFakeFe|

; 270  :     udr.bmRequestType = USB_REQUEST_FOR_ENDPOINT;

  01644	e3a03002	 mov         r3, #2
  01648	e5cd3000	 strb        r3, [sp]

; 271  :     udr.bRequest = bRequest;

  0164c	e5dd3018	 ldrb        r3, [sp, #0x18]
  01650	e5cd3001	 strb        r3, [sp, #1]

; 272  :     udr.wValue = wFeatureSelector ;

  01654	e1dd31bc	 ldrh        r3, [sp, #0x1C]
  01658	e1cd30b2	 strh        r3, [sp, #2]

; 273  :     udr.wIndex = m_epDesc.bEndpointAddress ;

  0165c	e59d3014	 ldr         r3, [sp, #0x14]
  01660	e2833026	 add         r3, r3, #0x26
  01664	e5d33000	 ldrb        r3, [r3]
  01668	e1cd30b4	 strh        r3, [sp, #4]

; 274  :     udr.wLength =0;

  0166c	e3a03000	 mov         r3, #0
  01670	e1cd30b6	 strh        r3, [sp, #6]

; 275  :     m_pUsbDevice->DeviceNotification( UFN_MSG_SETUP_PACKET,(DWORD) &udr);

  01674	e28d2000	 add         r2, sp, #0
  01678	e3a01004	 mov         r1, #4
  0167c	e59d3014	 ldr         r3, [sp, #0x14]
  01680	e283301c	 add         r3, r3, #0x1C
  01684	e5930000	 ldr         r0, [r3]
  01688	eb000000	 bl          |?DeviceNotification@BulUsbDevice@@QAAHKK@Z|

; 276  : }

  0168c	e28dd00c	 add         sp, sp, #0xC
  01690	e89d6000	 ldmia       sp, {sp, lr}
  01694	e12fff1e	 bx          lr
  01698		 |$LN8@SendFakeFe|
  01698		 |$LN9@SendFakeFe|
  01698	00000000	 DCD         |??_C@_1FK@FNONLNGN@?$AA?$CF?$AAs?$AA?3?$AA?5?$AAD?$AAE?$AAB?$AAU?$AAG?$AAC?$AAH?$AAK?$AA?5?$AAf?$AAa?$AAi?$AAl?$AAe?$AAd?$AA?5?$AAi?$AAn?$AA?5?$AAf?$AAi?$AAl?$AAe?$AA?5?$AA?$CF?$AAs?$AA?5?$AAa@|
  0169c		 |$LN10@SendFakeFe|
  0169c	00000000	 DCD         |dpCurSettings|
  016a0		 |$LN11@SendFakeFe|
  016a0	00000000	 DCD         |??_C@_1IO@HHHNJPIB@?$AAC?$AA?3?$AA?2?$AAW?$AAI?$AAN?$AAC?$AAE?$AA6?$AA0?$AA0?$AA?2?$AAP?$AAL?$AAA?$AAT?$AAF?$AAO?$AAR?$AAM?$AA?2?$AAC?$AAO?$AAM?$AAM?$AAO?$AAN?$AA?2?$AAS?$AAR?$AAC?$AA?2@|
  016a4		 |$M38510|

			 ENDP  ; |?SendFakeFeature@BulEndpoint@@IAAXEG@Z|, BulEndpoint::SendFakeFeature

	EXPORT	|??_C@_1FM@CKGLFAED@?$AA?$CF?$AAs?$AA?5?$AAD?$AAe?$AAv?$AAi?$AAc?$AAe?$AAN?$AAo?$AAt?$AAi?$AAf?$AAi?$AAc?$AAa?$AAt?$AAi?$AAo?$AAn?$AA?5?$AAd?$AAw?$AAM?$AAs?$AAg?$AA?3?$AA0?$AAx?$AA?$CF?$AAx@| [ DATA ] ; `string'
	EXPORT	|??_C@_1GC@FDNJHLPA@?$AAb?$AAu?$AAl?$AAv?$AAe?$AAr?$AAd?$AAe?$AA_?$AAu?$AAs?$AAb?$AAf?$AAn?$AA?$CB?$AAB?$AAu?$AAl?$AAU?$AAs?$AAb?$AAD?$AAe?$AAv?$AAi?$AAc?$AAe?$AA?3?$AA?3?$AAD?$AAe?$AAv@| [ DATA ] ; `string'
; File c:\wince600\platform\common\src\soc\pxa27x_ms_v1\inc\bul_usbfn.h

  00000			 AREA	 |.pdata|, PDATA
|$T38526| DCD	|$LN11@DeviceNoti|
	DCD	0x40003c04

  00000			 AREA	 |.rdata|, DATA, READONLY
|??_C@_1FM@CKGLFAED@?$AA?$CF?$AAs?$AA?5?$AAD?$AAe?$AAv?$AAi?$AAc?$AAe?$AAN?$AAo?$AAt?$AAi?$AAf?$AAi?$AAc?$AAa?$AAt?$AAi?$AAo?$AAn?$AA?5?$AAd?$AAw?$AAM?$AAs?$AAg?$AA?3?$AA0?$AAx?$AA?$CF?$AAx@| DCB "%"
	DCB	0x0, "s", 0x0, " ", 0x0, "D", 0x0, "e", 0x0, "v", 0x0, "i"
	DCB	0x0, "c", 0x0, "e", 0x0, "N", 0x0, "o", 0x0, "t", 0x0, "i"
	DCB	0x0, "f", 0x0, "i", 0x0, "c", 0x0, "a", 0x0, "t", 0x0, "i"
	DCB	0x0, "o", 0x0, "n", 0x0, " ", 0x0, "d", 0x0, "w", 0x0, "M"
	DCB	0x0, "s", 0x0, "g", 0x0, ":", 0x0, "0", 0x0, "x", 0x0, "%"
	DCB	0x0, "x", 0x0, ",", 0x0, "d", 0x0, "w", 0x0, "P", 0x0, "a"
	DCB	0x0, "r", 0x0, "a", 0x0, "m", 0x0, ":", 0x0, "0", 0x0, "x"
	DCB	0x0, "%", 0x0, "x", 0x0, 0x0, 0x0	; `string'

  00000			 AREA	 |.rdata|, DATA, READONLY
|??_C@_1GC@FDNJHLPA@?$AAb?$AAu?$AAl?$AAv?$AAe?$AAr?$AAd?$AAe?$AA_?$AAu?$AAs?$AAb?$AAf?$AAn?$AA?$CB?$AAB?$AAu?$AAl?$AAU?$AAs?$AAb?$AAD?$AAe?$AAv?$AAi?$AAc?$AAe?$AA?3?$AA?3?$AAD?$AAe?$AAv@| DCB "b"
	DCB	0x0, "u", 0x0, "l", 0x0, "v", 0x0, "e", 0x0, "r", 0x0, "d"
	DCB	0x0, "e", 0x0, "_", 0x0, "u", 0x0, "s", 0x0, "b", 0x0, "f"
	DCB	0x0, "n", 0x0, "!", 0x0, "B", 0x0, "u", 0x0, "l", 0x0, "U"
	DCB	0x0, "s", 0x0, "b", 0x0, "D", 0x0, "e", 0x0, "v", 0x0, "i"
	DCB	0x0, "c", 0x0, "e", 0x0, ":", 0x0, ":", 0x0, "D", 0x0, "e"
	DCB	0x0, "v", 0x0, "i", 0x0, "c", 0x0, "e", 0x0, "N", 0x0, "o"
	DCB	0x0, "t", 0x0, "i", 0x0, "f", 0x0, "i", 0x0, "c", 0x0, "a"
	DCB	0x0, "t", 0x0, "i", 0x0, "o", 0x0, "n", 0x0, ":", 0x0, 0x0
	DCB	0x0					; `string'
; Function compile flags: /Odtp

  00000			 AREA	 |.text|, CODE, ARM

  00000		 |?DeviceNotification@BulUsbDevice@@QAAHKK@Z| PROC ; BulUsbDevice::DeviceNotification

; 167  :     BOOL DeviceNotification( DWORD dwMsg, DWORD dwParam ) {

  00000		 |$LN11@DeviceNoti|
  00000	e1a0c00d	 mov         r12, sp
  00004	e92d0007	 stmdb       sp!, {r0 - r2}
  00008	e92d5000	 stmdb       sp!, {r12, lr}
  0000c	e24dd010	 sub         sp, sp, #0x10
  00010		 |$M38523|

; 168  :         SETFNAME();

  00010	e59f30d4	 ldr         r3, [pc, #0xD4]
  00014	e58d3000	 str         r3, [sp]

; 169  :         if (m_pvMddContext) {

  00018	e59d3018	 ldr         r3, [sp, #0x18]
  0001c	e28330b4	 add         r3, r3, #0xB4
  00020	e5933000	 ldr         r3, [r3]
  00024	e3530000	 cmp         r3, #0
  00028	0a000026	 beq         |$LN2@DeviceNoti|

; 170  :             DEBUGMSG(ZONE_FUNCTION, (_T("%s DeviceNotification dwMsg:0x%x,dwParam:0x%x"),pszFname,dwMsg,dwParam));

  0002c	e59f30b4	 ldr         r3, [pc, #0xB4]
  00030	e5933440	 ldr         r3, [r3, #0x440]
  00034	e3130a01	 tst         r3, #1, 20
  00038	0a000011	 beq         |$LN7@DeviceNoti|
  0003c	e59f30a4	 ldr         r3, [pc, #0xA4]
  00040	e5933440	 ldr         r3, [r3, #0x440]
  00044	e3130801	 tst         r3, #1, 16
  00048	0a000005	 beq         |$LN5@DeviceNoti|
  0004c	e59d3020	 ldr         r3, [sp, #0x20]
  00050	e59d201c	 ldr         r2, [sp, #0x1C]
  00054	e59d1000	 ldr         r1, [sp]
  00058	e59f0084	 ldr         r0, [pc, #0x84]
  0005c	eb000000	 bl          CeLogMsg
  00060	ea000004	 b           |$LN6@DeviceNoti|
  00064		 |$LN5@DeviceNoti|
  00064	e59d3020	 ldr         r3, [sp, #0x20]
  00068	e59d201c	 ldr         r2, [sp, #0x1C]
  0006c	e59d1000	 ldr         r1, [sp]
  00070	e59f006c	 ldr         r0, [pc, #0x6C]
  00074	eb000000	 bl          NKDbgPrintfW
  00078		 |$LN6@DeviceNoti|
  00078	e3a03001	 mov         r3, #1
  0007c	e58d3008	 str         r3, [sp, #8]
  00080	ea000001	 b           |$LN8@DeviceNoti|
  00084		 |$LN7@DeviceNoti|
  00084	e3a03000	 mov         r3, #0
  00088	e58d3008	 str         r3, [sp, #8]
  0008c		 |$LN8@DeviceNoti|

; 171  :             return m_pfnNotify(m_pvMddContext, dwMsg, dwParam);

  0008c	e59d2020	 ldr         r2, [sp, #0x20]
  00090	e59d101c	 ldr         r1, [sp, #0x1C]
  00094	e59d3018	 ldr         r3, [sp, #0x18]
  00098	e28330b4	 add         r3, r3, #0xB4
  0009c	e5930000	 ldr         r0, [r3]
  000a0	e59d3018	 ldr         r3, [sp, #0x18]
  000a4	e28330c0	 add         r3, r3, #0xC0
  000a8	e5933000	 ldr         r3, [r3]
  000ac	e1a0e00f	 mov         lr, pc
  000b0	e12fff13	 bx          r3
  000b4	e58d000c	 str         r0, [sp, #0xC]
  000b8	e59d300c	 ldr         r3, [sp, #0xC]
  000bc	e58d3004	 str         r3, [sp, #4]
  000c0	ea000003	 b           |$LN3@DeviceNoti|

; 172  :         }
; 173  :         else {

  000c4	ea000002	 b           |$LN1@DeviceNoti|
  000c8		 |$LN2@DeviceNoti|

; 174  :             DebugBreak();

  000c8	e6000010	 __debugbreak_ce

; 175  :             return FALSE;

  000cc	e3a03000	 mov         r3, #0
  000d0	e58d3004	 str         r3, [sp, #4]
  000d4		 |$LN1@DeviceNoti|
  000d4		 |$LN3@DeviceNoti|

; 176  :         }
; 177  :     }

  000d4	e59d0004	 ldr         r0, [sp, #4]
  000d8	e28dd010	 add         sp, sp, #0x10
  000dc	e89d6000	 ldmia       sp, {sp, lr}
  000e0	e12fff1e	 bx          lr
  000e4		 |$LN12@DeviceNoti|
  000e4		 |$LN13@DeviceNoti|
  000e4	00000000	 DCD         |??_C@_1FM@CKGLFAED@?$AA?$CF?$AAs?$AA?5?$AAD?$AAe?$AAv?$AAi?$AAc?$AAe?$AAN?$AAo?$AAt?$AAi?$AAf?$AAi?$AAc?$AAa?$AAt?$AAi?$AAo?$AAn?$AA?5?$AAd?$AAw?$AAM?$AAs?$AAg?$AA?3?$AA0?$AAx?$AA?$CF?$AAx@|
  000e8		 |$LN14@DeviceNoti|
  000e8	00000000	 DCD         |dpCurSettings|
  000ec		 |$LN15@DeviceNoti|
  000ec	00000000	 DCD         |??_C@_1GC@FDNJHLPA@?$AAb?$AAu?$AAl?$AAv?$AAe?$AAr?$AAd?$AAe?$AA_?$AAu?$AAs?$AAb?$AAf?$AAn?$AA?$CB?$AAB?$AAu?$AAl?$AAU?$AAs?$AAb?$AAD?$AAe?$AAv?$AAi?$AAc?$AAe?$AA?3?$AA?3?$AAD?$AAe?$AAv@|
  000f0		 |$M38524|

			 ENDP  ; |?DeviceNotification@BulUsbDevice@@QAAHKK@Z|, BulUsbDevice::DeviceNotification

	EXPORT	|??_C@_1EM@INKNAIDM@?$AAb?$AAu?$AAl?$AAv?$AAe?$AAr?$AAd?$AAe?$AA_?$AAu?$AAs?$AAb?$AAf?$AAn?$AA?$CB?$AAB?$AAu?$AAl?$AAE?$AAn?$AAd?$AAp?$AAo?$AAi?$AAn?$AAt?$AAZ?$AAe?$AAr?$AAo?$AA?3?$AA?3@| [ DATA ] ; `string'
	EXPORT	|?Init@BulEndpointZero@@UAAHPAU_USB_ENDPOINT_DESCRIPTOR@@EEE@Z| ; BulEndpointZero::Init

  00068			 AREA	 |.pdata|, PDATA
|$T38546| DCD	|$LN15@Init@2|
	DCD	0x40008604
; File c:\wince600\platform\common\src\soc\pxa27x_ms_v1\usbfn\bul_usbfn.cpp

  00000			 AREA	 |.rdata|, DATA, READONLY
|??_C@_1EM@INKNAIDM@?$AAb?$AAu?$AAl?$AAv?$AAe?$AAr?$AAd?$AAe?$AA_?$AAu?$AAs?$AAb?$AAf?$AAn?$AA?$CB?$AAB?$AAu?$AAl?$AAE?$AAn?$AAd?$AAp?$AAo?$AAi?$AAn?$AAt?$AAZ?$AAe?$AAr?$AAo?$AA?3?$AA?3@| DCB "b"
	DCB	0x0, "u", 0x0, "l", 0x0, "v", 0x0, "e", 0x0, "r", 0x0, "d"
	DCB	0x0, "e", 0x0, "_", 0x0, "u", 0x0, "s", 0x0, "b", 0x0, "f"
	DCB	0x0, "n", 0x0, "!", 0x0, "B", 0x0, "u", 0x0, "l", 0x0, "E"
	DCB	0x0, "n", 0x0, "d", 0x0, "p", 0x0, "o", 0x0, "i", 0x0, "n"
	DCB	0x0, "t", 0x0, "Z", 0x0, "e", 0x0, "r", 0x0, "o", 0x0, ":"
	DCB	0x0, ":", 0x0, "I", 0x0, "n", 0x0, "i", 0x0, "t", 0x0, ":"
	DCB	0x0, 0x0, 0x0				; `string'
; Function compile flags: /Odtp

  016a4			 AREA	 |.text|, CODE, ARM

  016a4		 |?Init@BulEndpointZero@@UAAHPAU_USB_ENDPOINT_DESCRIPTOR@@EEE@Z| PROC ; BulEndpointZero::Init

; 279  : {

  016a4		 |$LN15@Init@2|
  016a4	e1a0c00d	 mov         r12, sp
  016a8	e92d000f	 stmdb       sp!, {r0 - r3}
  016ac	e92d5000	 stmdb       sp!, {r12, lr}
  016b0	e24dd018	 sub         sp, sp, #0x18
  016b4		 |$M38543|

; 280  :     Lock();

  016b4	e59d3020	 ldr         r3, [sp, #0x20]
  016b8	e2830008	 add         r0, r3, #8
  016bc	eb000000	 bl          |?Lock@CLockObject@@QAAXXZ|

; 281  :     m_fBackedudr = FALSE;

  016c0	e59d3020	 ldr         r3, [sp, #0x20]
  016c4	e283205c	 add         r2, r3, #0x5C
  016c8	e3a03000	 mov         r3, #0
  016cc	e5823000	 str         r3, [r2]

; 282  :     BOOL bReturn = FALSE;

  016d0	e3a03000	 mov         r3, #0
  016d4	e58d3000	 str         r3, [sp]

; 283  :     SETFNAME();

  016d8	e59f31d8	 ldr         r3, [pc, #0x1D8]
  016dc	e58d3004	 str         r3, [sp, #4]

; 284  :     FUNCTION_ENTER_MSG();

  016e0	e59f31c8	 ldr         r3, [pc, #0x1C8]
  016e4	e5933440	 ldr         r3, [r3, #0x440]
  016e8	e3130a01	 tst         r3, #1, 20
  016ec	0a00000d	 beq         |$LN7@Init@2|
  016f0	e59f31b8	 ldr         r3, [pc, #0x1B8]
  016f4	e5933440	 ldr         r3, [r3, #0x440]
  016f8	e3130801	 tst         r3, #1, 16
  016fc	0a000003	 beq         |$LN5@Init@2|
  01700	e59d1004	 ldr         r1, [sp, #4]
  01704	e59f01a8	 ldr         r0, [pc, #0x1A8]
  01708	eb000000	 bl          CeLogMsg
  0170c	ea000002	 b           |$LN6@Init@2|
  01710		 |$LN5@Init@2|
  01710	e59d1004	 ldr         r1, [sp, #4]
  01714	e59f0198	 ldr         r0, [pc, #0x198]
  01718	eb000000	 bl          NKDbgPrintfW
  0171c		 |$LN6@Init@2|
  0171c	e3a03001	 mov         r3, #1
  01720	e58d300c	 str         r3, [sp, #0xC]
  01724	ea000001	 b           |$LN8@Init@2|
  01728		 |$LN7@Init@2|
  01728	e3a03000	 mov         r3, #0
  0172c	e58d300c	 str         r3, [sp, #0xC]
  01730		 |$LN8@Init@2|

; 285  :     m_bConfigurationValue= bConfigurationValue;

  01730	e59d3020	 ldr         r3, [sp, #0x20]
  01734	e283202b	 add         r2, r3, #0x2B
  01738	e5dd3028	 ldrb        r3, [sp, #0x28]
  0173c	e5c23000	 strb        r3, [r2]

; 286  :     m_bInterfaceNumber = bInterfaceNumber;

  01740	e59d3020	 ldr         r3, [sp, #0x20]
  01744	e283202c	 add         r2, r3, #0x2C
  01748	e5dd302c	 ldrb        r3, [sp, #0x2C]
  0174c	e5c23000	 strb        r3, [r2]

; 287  :     m_bAlternateSetting =bAlternateSetting;

  01750	e59d3020	 ldr         r3, [sp, #0x20]
  01754	e283202d	 add         r2, r3, #0x2D
  01758	e5dd3030	 ldrb        r3, [sp, #0x30]
  0175c	e5c23000	 strb        r3, [r2]

; 288  :     
; 289  :     if ( pEndpointDesc && m_pUsbDevice!=NULL && m_dwEndpointIndex < MAX_ENDPOINT_NUMBER) {

  01760	e59d3024	 ldr         r3, [sp, #0x24]
  01764	e3530000	 cmp         r3, #0
  01768	0a000032	 beq         |$LN2@Init@2|
  0176c	e59d3020	 ldr         r3, [sp, #0x20]
  01770	e283301c	 add         r3, r3, #0x1C
  01774	e5933000	 ldr         r3, [r3]
  01778	e3530000	 cmp         r3, #0
  0177c	0a00002d	 beq         |$LN2@Init@2|
  01780	e59d3020	 ldr         r3, [sp, #0x20]
  01784	e2833020	 add         r3, r3, #0x20
  01788	e5933000	 ldr         r3, [r3]
  0178c	e3530018	 cmp         r3, #0x18
  01790	2a000028	 bcs         |$LN2@Init@2|

; 290  :         m_epDesc = *pEndpointDesc;

  01794	e59d1024	 ldr         r1, [sp, #0x24]
  01798	e59d3020	 ldr         r3, [sp, #0x20]
  0179c	e2830024	 add         r0, r3, #0x24
  017a0	e3a02007	 mov         r2, #7
  017a4	eb000000	 bl          memcpy

; 291  :         if ((m_epDesc.wMaxPacketSize & 0x3ff) >= EP0_MAX_PACKET_SIZE) {

  017a8	e59d3020	 ldr         r3, [sp, #0x20]
  017ac	e2831028	 add         r1, r3, #0x28
  017b0	e5d13001	 ldrb        r3, [r1, #1]
  017b4	e1a03403	 mov         r3, r3, lsl #8
  017b8	e1a02803	 mov         r2, r3, lsl #16
  017bc	e1a02822	 mov         r2, r2, lsr #16
  017c0	e5d13000	 ldrb        r3, [r1]
  017c4	e1833002	 orr         r3, r3, r2
  017c8	e1a02003	 mov         r2, r3
  017cc	e3a03c03	 mov         r3, #3, 24
  017d0	e38330ff	 orr         r3, r3, #0xFF
  017d4	e0023003	 and         r3, r2, r3
  017d8	e3530010	 cmp         r3, #0x10
  017dc	ba000015	 blt         |$LN1@Init@2|

; 292  :             m_epDesc.wMaxPacketSize = pEndpointDesc->wMaxPacketSize = EP0_MAX_PACKET_SIZE;

  017e0	e59d3024	 ldr         r3, [sp, #0x24]
  017e4	e2832004	 add         r2, r3, #4
  017e8	e3a03010	 mov         r3, #0x10
  017ec	e5c23000	 strb        r3, [r2]
  017f0	e1a03423	 mov         r3, r3, lsr #8
  017f4	e5c23001	 strb        r3, [r2, #1]
  017f8	e59d3020	 ldr         r3, [sp, #0x20]
  017fc	e2832028	 add         r2, r3, #0x28
  01800	e3a03010	 mov         r3, #0x10
  01804	e5c23000	 strb        r3, [r2]
  01808	e1a03423	 mov         r3, r3, lsr #8
  0180c	e5c23001	 strb        r3, [r2, #1]

; 293  :         
; 294  :             bReturn = ReInit();

  01810	e59d3020	 ldr         r3, [sp, #0x20]
  01814	e5933000	 ldr         r3, [r3]
  01818	e2833008	 add         r3, r3, #8
  0181c	e59d0020	 ldr         r0, [sp, #0x20]
  01820	e5933000	 ldr         r3, [r3]
  01824	e1a0e00f	 mov         lr, pc
  01828	e12fff13	 bx          r3
  0182c	e58d0010	 str         r0, [sp, #0x10]
  01830	e59d3010	 ldr         r3, [sp, #0x10]
  01834	e58d3000	 str         r3, [sp]
  01838		 |$LN1@Init@2|
  01838		 |$LN2@Init@2|

; 295  :         }
; 296  :     }
; 297  :     Unlock();

  01838	e59d3020	 ldr         r3, [sp, #0x20]
  0183c	e2830008	 add         r0, r3, #8
  01840	eb000000	 bl          |?Unlock@CLockObject@@QAAXXZ|

; 298  :     FUNCTION_LEAVE_MSG();

  01844	e59f3064	 ldr         r3, [pc, #0x64]
  01848	e5933440	 ldr         r3, [r3, #0x440]
  0184c	e3130a01	 tst         r3, #1, 20
  01850	0a00000d	 beq         |$LN11@Init@2|
  01854	e59f3054	 ldr         r3, [pc, #0x54]
  01858	e5933440	 ldr         r3, [r3, #0x440]
  0185c	e3130801	 tst         r3, #1, 16
  01860	0a000003	 beq         |$LN9@Init@2|
  01864	e59d1004	 ldr         r1, [sp, #4]
  01868	e59f003c	 ldr         r0, [pc, #0x3C]
  0186c	eb000000	 bl          CeLogMsg
  01870	ea000002	 b           |$LN10@Init@2|
  01874		 |$LN9@Init@2|
  01874	e59d1004	 ldr         r1, [sp, #4]
  01878	e59f002c	 ldr         r0, [pc, #0x2C]
  0187c	eb000000	 bl          NKDbgPrintfW
  01880		 |$LN10@Init@2|
  01880	e3a03001	 mov         r3, #1
  01884	e58d3014	 str         r3, [sp, #0x14]
  01888	ea000001	 b           |$LN12@Init@2|
  0188c		 |$LN11@Init@2|
  0188c	e3a03000	 mov         r3, #0
  01890	e58d3014	 str         r3, [sp, #0x14]
  01894		 |$LN12@Init@2|

; 299  :     return bReturn;

  01894	e59d3000	 ldr         r3, [sp]
  01898	e58d3008	 str         r3, [sp, #8]

; 300  : }

  0189c	e59d0008	 ldr         r0, [sp, #8]
  018a0	e28dd018	 add         sp, sp, #0x18
  018a4	e89d6000	 ldmia       sp, {sp, lr}
  018a8	e12fff1e	 bx          lr
  018ac		 |$LN16@Init@2|
  018ac		 |$LN17@Init@2|
  018ac	00000000	 DCD         |??_C@_1BA@PLOOFDPK@?$AA?$CF?$AAs?$AA?5?$AA?9?$AA?9?$AA?$AN?$AA?6?$AA?$AA@|
  018b0		 |$LN18@Init@2|
  018b0	00000000	 DCD         |dpCurSettings|
  018b4		 |$LN19@Init@2|
  018b4	00000000	 DCD         |??_C@_1BA@DAJPCKDK@?$AA?$CF?$AAs?$AA?5?$AA?$CL?$AA?$CL?$AA?$AN?$AA?6?$AA?$AA@|
  018b8		 |$LN20@Init@2|
  018b8	00000000	 DCD         |??_C@_1EM@INKNAIDM@?$AAb?$AAu?$AAl?$AAv?$AAe?$AAr?$AAd?$AAe?$AA_?$AAu?$AAs?$AAb?$AAf?$AAn?$AA?$CB?$AAB?$AAu?$AAl?$AAE?$AAn?$AAd?$AAp?$AAo?$AAi?$AAn?$AAt?$AAZ?$AAe?$AAr?$AAo?$AA?3?$AA?3@|
  018bc		 |$M38544|

			 ENDP  ; |?Init@BulEndpointZero@@UAAHPAU_USB_ENDPOINT_DESCRIPTOR@@EEE@Z|, BulEndpointZero::Init

	EXPORT	|?WriteControlRegister@BulUsbDevice@@QAAXK@Z| ; BulUsbDevice::WriteControlRegister
	EXPORT	|?ReInit@BulEndpointZero@@UAAHXZ|	; BulEndpointZero::ReInit

  00070			 AREA	 |.pdata|, PDATA
|$T38557| DCD	|$LN5@ReInit@2|
	DCD	0x40002d04
; Function compile flags: /Odtp

  018bc			 AREA	 |.text|, CODE, ARM

  018bc		 |?ReInit@BulEndpointZero@@UAAHXZ| PROC	; BulEndpointZero::ReInit

; 302  : {

  018bc		 |$LN5@ReInit@2|
  018bc	e1a0c00d	 mov         r12, sp
  018c0	e92d0001	 stmdb       sp!, {r0}
  018c4	e92d5000	 stmdb       sp!, {r12, lr}
  018c8	e24dd010	 sub         sp, sp, #0x10
  018cc		 |$M38554|

; 303  :     m_bNeedAck = FALSE;

  018cc	e59d3018	 ldr         r3, [sp, #0x18]
  018d0	e2832040	 add         r2, r3, #0x40
  018d4	e3a03000	 mov         r3, #0
  018d8	e5823000	 str         r3, [r2]

; 304  :     m_bSetupDirIn = FALSE;

  018dc	e59d3018	 ldr         r3, [sp, #0x18]
  018e0	e2832044	 add         r2, r3, #0x44
  018e4	e3a03000	 mov         r3, #0
  018e8	e5823000	 str         r3, [r2]

; 305  :     UDCCSR udccsr;
; 306  :     udccsr.ulValue = 0;        

  018ec	e3a03000	 mov         r3, #0
  018f0	e58d3004	 str         r3, [sp, #4]

; 307  :     udccsr.ep0bit.SA = udccsr.ep0bit.SST = udccsr.ep0bit.FTF =udccsr.ep0bit.OPC=1;

  018f4	e59d3004	 ldr         r3, [sp, #4]
  018f8	e3833001	 orr         r3, r3, #1
  018fc	e58d3004	 str         r3, [sp, #4]
  01900	e59d3004	 ldr         r3, [sp, #4]
  01904	e3833004	 orr         r3, r3, #4
  01908	e58d3004	 str         r3, [sp, #4]
  0190c	e59d3004	 ldr         r3, [sp, #4]
  01910	e3833010	 orr         r3, r3, #0x10
  01914	e58d3004	 str         r3, [sp, #4]
  01918	e59d3004	 ldr         r3, [sp, #4]
  0191c	e3833080	 orr         r3, r3, #0x80
  01920	e58d3004	 str         r3, [sp, #4]

; 308  :     WriteControlStatusRegister(udccsr.ulValue);

  01924	e59d1004	 ldr         r1, [sp, #4]
  01928	e59d0018	 ldr         r0, [sp, #0x18]
  0192c	eb000000	 bl          |?WriteControlStatusRegister@BulEndpoint@@QAAXK@Z|

; 309  :     
; 310  :     UDCCR udccr;
; 311  :     udccr.ulValue = 0;

  01930	e3a03000	 mov         r3, #0
  01934	e58d3000	 str         r3, [sp]

; 312  :     udccr.bit.EMCE = 1;

  01938	e59d3000	 ldr         r3, [sp]
  0193c	e3833008	 orr         r3, r3, #8
  01940	e58d3000	 str         r3, [sp]

; 313  :     m_pUsbDevice->WriteControlRegister(udccr.ulValue);

  01944	e59d1000	 ldr         r1, [sp]
  01948	e59d3018	 ldr         r3, [sp, #0x18]
  0194c	e283301c	 add         r3, r3, #0x1C
  01950	e5930000	 ldr         r0, [r3]
  01954	eb000000	 bl          |?WriteControlRegister@BulUsbDevice@@QAAXK@Z|

; 314  :     return TRUE;

  01958	e3a03001	 mov         r3, #1
  0195c	e58d300c	 str         r3, [sp, #0xC]

; 315  : }

  01960	e59d000c	 ldr         r0, [sp, #0xC]
  01964	e28dd010	 add         sp, sp, #0x10
  01968	e89d6000	 ldmia       sp, {sp, lr}
  0196c	e12fff1e	 bx          lr
  01970		 |$M38555|

			 ENDP  ; |?ReInit@BulEndpointZero@@UAAHXZ|, BulEndpointZero::ReInit

; File c:\wince600\platform\common\src\soc\pxa27x_ms_v1\inc\bul_usbfn.h

  00000			 AREA	 |.pdata|, PDATA
|$T38562| DCD	|$LN5@WriteContr@2|
	DCD	0x40000903
; Function compile flags: /Odtp

  00000			 AREA	 |.text|, CODE, ARM

  00000		 |?WriteControlRegister@BulUsbDevice@@QAAXK@Z| PROC ; BulUsbDevice::WriteControlRegister

; 140  :     void    WriteControlRegister(DWORD dwData) { WriteUDCRegister(DEVICE_CONTROL_REGISTER, dwData);}

  00000		 |$LN5@WriteContr@2|
  00000	e1a0c00d	 mov         r12, sp
  00004	e92d0003	 stmdb       sp!, {r0, r1}
  00008	e92d5000	 stmdb       sp!, {r12, lr}
  0000c		 |$M38559|
  0000c	e59d200c	 ldr         r2, [sp, #0xC]
  00010	e3a01000	 mov         r1, #0
  00014	e59d0008	 ldr         r0, [sp, #8]
  00018	eb000000	 bl          |?WriteUDCRegister@BulUsbDevice@@QAAXKK@Z|
  0001c	e89d6000	 ldmia       sp, {sp, lr}
  00020	e12fff1e	 bx          lr
  00024		 |$M38560|

			 ENDP  ; |?WriteControlRegister@BulUsbDevice@@QAAXK@Z|, BulUsbDevice::WriteControlRegister

	EXPORT	|??_C@_1FO@DFDPPFDE@?$AAb?$AAu?$AAl?$AAv?$AAe?$AAr?$AAd?$AAe?$AA_?$AAu?$AAs?$AAb?$AAf?$AAn?$AA?$CB?$AAB?$AAu?$AAl?$AAE?$AAn?$AAd?$AAp?$AAo?$AAi?$AAn?$AAt?$AAZ?$AAe?$AAr?$AAo?$AA?3?$AA?3@| [ DATA ] ; `string'
	EXPORT	|?ResetEndpoint@BulEndpointZero@@UAAKXZ| ; BulEndpointZero::ResetEndpoint

  00078			 AREA	 |.pdata|, PDATA
|$T38578| DCD	|$LN13@ResetEndpo@2|
	DCD	0x40005304
; File c:\wince600\platform\common\src\soc\pxa27x_ms_v1\usbfn\bul_usbfn.cpp

  00000			 AREA	 |.rdata|, DATA, READONLY
|??_C@_1FO@DFDPPFDE@?$AAb?$AAu?$AAl?$AAv?$AAe?$AAr?$AAd?$AAe?$AA_?$AAu?$AAs?$AAb?$AAf?$AAn?$AA?$CB?$AAB?$AAu?$AAl?$AAE?$AAn?$AAd?$AAp?$AAo?$AAi?$AAn?$AAt?$AAZ?$AAe?$AAr?$AAo?$AA?3?$AA?3@| DCB "b"
	DCB	0x0, "u", 0x0, "l", 0x0, "v", 0x0, "e", 0x0, "r", 0x0, "d"
	DCB	0x0, "e", 0x0, "_", 0x0, "u", 0x0, "s", 0x0, "b", 0x0, "f"
	DCB	0x0, "n", 0x0, "!", 0x0, "B", 0x0, "u", 0x0, "l", 0x0, "E"
	DCB	0x0, "n", 0x0, "d", 0x0, "p", 0x0, "o", 0x0, "i", 0x0, "n"
	DCB	0x0, "t", 0x0, "Z", 0x0, "e", 0x0, "r", 0x0, "o", 0x0, ":"
	DCB	0x0, ":", 0x0, "R", 0x0, "e", 0x0, "s", 0x0, "e", 0x0, "t"
	DCB	0x0, "E", 0x0, "n", 0x0, "d", 0x0, "p", 0x0, "o", 0x0, "i"
	DCB	0x0, "n", 0x0, "t", 0x0, ":", 0x0, 0x0, 0x0 ; `string'
; Function compile flags: /Odtp

  01970			 AREA	 |.text|, CODE, ARM

  01970		 |?ResetEndpoint@BulEndpointZero@@UAAKXZ| PROC ; BulEndpointZero::ResetEndpoint

; 317  : {

  01970		 |$LN13@ResetEndpo@2|
  01970	e1a0c00d	 mov         r12, sp
  01974	e92d0001	 stmdb       sp!, {r0}
  01978	e92d5000	 stmdb       sp!, {r12, lr}
  0197c	e24dd018	 sub         sp, sp, #0x18
  01980		 |$M38575|

; 318  :     UDCCSR udccsr;
; 319  :     SETFNAME();

  01980	e59f3130	 ldr         r3, [pc, #0x130]
  01984	e58d3000	 str         r3, [sp]

; 320  :     FUNCTION_ENTER_MSG();

  01988	e59f3120	 ldr         r3, [pc, #0x120]
  0198c	e5933440	 ldr         r3, [r3, #0x440]
  01990	e3130a01	 tst         r3, #1, 20
  01994	0a00000d	 beq         |$LN5@ResetEndpo@2|
  01998	e59f3110	 ldr         r3, [pc, #0x110]
  0199c	e5933440	 ldr         r3, [r3, #0x440]
  019a0	e3130801	 tst         r3, #1, 16
  019a4	0a000003	 beq         |$LN3@ResetEndpo@2|
  019a8	e59d1000	 ldr         r1, [sp]
  019ac	e59f0100	 ldr         r0, [pc, #0x100]
  019b0	eb000000	 bl          CeLogMsg
  019b4	ea000002	 b           |$LN4@ResetEndpo@2|
  019b8		 |$LN3@ResetEndpo@2|
  019b8	e59d1000	 ldr         r1, [sp]
  019bc	e59f00f0	 ldr         r0, [pc, #0xF0]
  019c0	eb000000	 bl          NKDbgPrintfW
  019c4		 |$LN4@ResetEndpo@2|
  019c4	e3a03001	 mov         r3, #1
  019c8	e58d3010	 str         r3, [sp, #0x10]
  019cc	ea000001	 b           |$LN6@ResetEndpo@2|
  019d0		 |$LN5@ResetEndpo@2|
  019d0	e3a03000	 mov         r3, #0
  019d4	e58d3010	 str         r3, [sp, #0x10]
  019d8		 |$LN6@ResetEndpo@2|

; 321  :     Lock();

  019d8	e59d3020	 ldr         r3, [sp, #0x20]
  019dc	e2830008	 add         r0, r3, #8
  019e0	eb000000	 bl          |?Lock@CLockObject@@QAAXXZ|

; 322  :     m_bNeedAck = FALSE;

  019e4	e59d3020	 ldr         r3, [sp, #0x20]
  019e8	e2832040	 add         r2, r3, #0x40
  019ec	e3a03000	 mov         r3, #0
  019f0	e5823000	 str         r3, [r2]

; 323  :     udccsr.ulValue = 0;        

  019f4	e3a03000	 mov         r3, #0
  019f8	e58d3004	 str         r3, [sp, #4]

; 324  :     udccsr.ep0bit.SA = udccsr.ep0bit.SST = udccsr.ep0bit.FTF =udccsr.ep0bit.OPC=1;

  019fc	e59d3004	 ldr         r3, [sp, #4]
  01a00	e3833001	 orr         r3, r3, #1
  01a04	e58d3004	 str         r3, [sp, #4]
  01a08	e59d3004	 ldr         r3, [sp, #4]
  01a0c	e3833004	 orr         r3, r3, #4
  01a10	e58d3004	 str         r3, [sp, #4]
  01a14	e59d3004	 ldr         r3, [sp, #4]
  01a18	e3833010	 orr         r3, r3, #0x10
  01a1c	e58d3004	 str         r3, [sp, #4]
  01a20	e59d3004	 ldr         r3, [sp, #4]
  01a24	e3833080	 orr         r3, r3, #0x80
  01a28	e58d3004	 str         r3, [sp, #4]

; 325  :     WriteControlStatusRegister(udccsr.ulValue);

  01a2c	e59d1004	 ldr         r1, [sp, #4]
  01a30	e59d0020	 ldr         r0, [sp, #0x20]
  01a34	eb000000	 bl          |?WriteControlStatusRegister@BulEndpoint@@QAAXK@Z|

; 326  :     Unlock();

  01a38	e59d3020	 ldr         r3, [sp, #0x20]
  01a3c	e2830008	 add         r0, r3, #8
  01a40	eb000000	 bl          |?Unlock@CLockObject@@QAAXXZ|

; 327  :     FUNCTION_LEAVE_MSG();

  01a44	e59f3064	 ldr         r3, [pc, #0x64]
  01a48	e5933440	 ldr         r3, [r3, #0x440]
  01a4c	e3130a01	 tst         r3, #1, 20
  01a50	0a00000d	 beq         |$LN9@ResetEndpo@2|
  01a54	e59f3054	 ldr         r3, [pc, #0x54]
  01a58	e5933440	 ldr         r3, [r3, #0x440]
  01a5c	e3130801	 tst         r3, #1, 16
  01a60	0a000003	 beq         |$LN7@ResetEndpo@2|
  01a64	e59d1000	 ldr         r1, [sp]
  01a68	e59f003c	 ldr         r0, [pc, #0x3C]
  01a6c	eb000000	 bl          CeLogMsg
  01a70	ea000002	 b           |$LN8@ResetEndpo@2|
  01a74		 |$LN7@ResetEndpo@2|
  01a74	e59d1000	 ldr         r1, [sp]
  01a78	e59f002c	 ldr         r0, [pc, #0x2C]
  01a7c	eb000000	 bl          NKDbgPrintfW
  01a80		 |$LN8@ResetEndpo@2|
  01a80	e3a03001	 mov         r3, #1
  01a84	e58d3014	 str         r3, [sp, #0x14]
  01a88	ea000001	 b           |$LN10@ResetEndpo@2|
  01a8c		 |$LN9@ResetEndpo@2|
  01a8c	e3a03000	 mov         r3, #0
  01a90	e58d3014	 str         r3, [sp, #0x14]
  01a94		 |$LN10@ResetEndpo@2|

; 328  :     return ERROR_SUCCESS;

  01a94	e3a03000	 mov         r3, #0
  01a98	e58d300c	 str         r3, [sp, #0xC]

; 329  : }

  01a9c	e59d000c	 ldr         r0, [sp, #0xC]
  01aa0	e28dd018	 add         sp, sp, #0x18
  01aa4	e89d6000	 ldmia       sp, {sp, lr}
  01aa8	e12fff1e	 bx          lr
  01aac		 |$LN14@ResetEndpo@2|
  01aac		 |$LN15@ResetEndpo@2|
  01aac	00000000	 DCD         |??_C@_1BA@PLOOFDPK@?$AA?$CF?$AAs?$AA?5?$AA?9?$AA?9?$AA?$AN?$AA?6?$AA?$AA@|
  01ab0		 |$LN16@ResetEndpo@2|
  01ab0	00000000	 DCD         |dpCurSettings|
  01ab4		 |$LN17@ResetEndpo@2|
  01ab4	00000000	 DCD         |??_C@_1BA@DAJPCKDK@?$AA?$CF?$AAs?$AA?5?$AA?$CL?$AA?$CL?$AA?$AN?$AA?6?$AA?$AA@|
  01ab8		 |$LN18@ResetEndpo@2|
  01ab8	00000000	 DCD         |??_C@_1FO@DFDPPFDE@?$AAb?$AAu?$AAl?$AAv?$AAe?$AAr?$AAd?$AAe?$AA_?$AAu?$AAs?$AAb?$AAf?$AAn?$AA?$CB?$AAB?$AAu?$AAl?$AAE?$AAn?$AAd?$AAp?$AAo?$AAi?$AAn?$AAt?$AAZ?$AAe?$AAr?$AAo?$AA?3?$AA?3@|
  01abc		 |$M38576|

			 ENDP  ; |?ResetEndpoint@BulEndpointZero@@UAAKXZ|, BulEndpointZero::ResetEndpoint

	EXPORT	|??_C@_1FO@PFPCHJDN@?$AAb?$AAu?$AAl?$AAv?$AAe?$AAr?$AAd?$AAe?$AA_?$AAu?$AAs?$AAb?$AAf?$AAn?$AA?$CB?$AAB?$AAu?$AAl?$AAE?$AAn?$AAd?$AAp?$AAo?$AAi?$AAn?$AAt?$AAZ?$AAe?$AAr?$AAo?$AA?3?$AA?3@| [ DATA ] ; `string'
	EXPORT	|?IssueTransfer@BulEndpointZero@@UAAKPAU_STransfer@@@Z| ; BulEndpointZero::IssueTransfer

  00080			 AREA	 |.pdata|, PDATA
|$T38599| DCD	|$LN19@IssueTrans@2|
	DCD	0x40009804

  00000			 AREA	 |.rdata|, DATA, READONLY
|??_C@_1FO@PFPCHJDN@?$AAb?$AAu?$AAl?$AAv?$AAe?$AAr?$AAd?$AAe?$AA_?$AAu?$AAs?$AAb?$AAf?$AAn?$AA?$CB?$AAB?$AAu?$AAl?$AAE?$AAn?$AAd?$AAp?$AAo?$AAi?$AAn?$AAt?$AAZ?$AAe?$AAr?$AAo?$AA?3?$AA?3@| DCB "b"
	DCB	0x0, "u", 0x0, "l", 0x0, "v", 0x0, "e", 0x0, "r", 0x0, "d"
	DCB	0x0, "e", 0x0, "_", 0x0, "u", 0x0, "s", 0x0, "b", 0x0, "f"
	DCB	0x0, "n", 0x0, "!", 0x0, "B", 0x0, "u", 0x0, "l", 0x0, "E"
	DCB	0x0, "n", 0x0, "d", 0x0, "p", 0x0, "o", 0x0, "i", 0x0, "n"
	DCB	0x0, "t", 0x0, "Z", 0x0, "e", 0x0, "r", 0x0, "o", 0x0, ":"
	DCB	0x0, ":", 0x0, "I", 0x0, "s", 0x0, "s", 0x0, "u", 0x0, "e"
	DCB	0x0, "T", 0x0, "r", 0x0, "a", 0x0, "n", 0x0, "s", 0x0, "f"
	DCB	0x0, "e", 0x0, "r", 0x0, ":", 0x0, 0x0, 0x0 ; `string'
; Function compile flags: /Odtp

  01abc			 AREA	 |.text|, CODE, ARM

  01abc		 |?IssueTransfer@BulEndpointZero@@UAAKPAU_STransfer@@@Z| PROC ; BulEndpointZero::IssueTransfer

; 331  : {   

  01abc		 |$LN19@IssueTrans@2|
  01abc	e1a0c00d	 mov         r12, sp
  01ac0	e92d0003	 stmdb       sp!, {r0, r1}
  01ac4	e92d5000	 stmdb       sp!, {r12, lr}
  01ac8	e24dd024	 sub         sp, sp, #0x24
  01acc		 |$M38596|

; 332  :     Lock();

  01acc	e59d302c	 ldr         r3, [sp, #0x2C]
  01ad0	e2830008	 add         r0, r3, #8
  01ad4	eb000000	 bl          |?Lock@CLockObject@@QAAXXZ|

; 333  :     SETFNAME();

  01ad8	e59f3238	 ldr         r3, [pc, #0x238]
  01adc	e58d3004	 str         r3, [sp, #4]

; 334  :     FUNCTION_ENTER_MSG();

  01ae0	e59f3228	 ldr         r3, [pc, #0x228]
  01ae4	e5933440	 ldr         r3, [r3, #0x440]
  01ae8	e3130a01	 tst         r3, #1, 20
  01aec	0a00000d	 beq         |$LN9@IssueTrans@2|
  01af0	e59f3218	 ldr         r3, [pc, #0x218]
  01af4	e5933440	 ldr         r3, [r3, #0x440]
  01af8	e3130801	 tst         r3, #1, 16
  01afc	0a000003	 beq         |$LN7@IssueTrans@2|
  01b00	e59d1004	 ldr         r1, [sp, #4]
  01b04	e59f0208	 ldr         r0, [pc, #0x208]
  01b08	eb000000	 bl          CeLogMsg
  01b0c	ea000002	 b           |$LN8@IssueTrans@2|
  01b10		 |$LN7@IssueTrans@2|
  01b10	e59d1004	 ldr         r1, [sp, #4]
  01b14	e59f01f8	 ldr         r0, [pc, #0x1F8]
  01b18	eb000000	 bl          NKDbgPrintfW
  01b1c		 |$LN8@IssueTrans@2|
  01b1c	e3a03001	 mov         r3, #1
  01b20	e58d3014	 str         r3, [sp, #0x14]
  01b24	ea000001	 b           |$LN10@IssueTrans@2|
  01b28		 |$LN9@IssueTrans@2|
  01b28	e3a03000	 mov         r3, #0
  01b2c	e58d3014	 str         r3, [sp, #0x14]
  01b30		 |$LN10@IssueTrans@2|

; 335  :     DWORD dwReturn = ERROR_SUCCESS;

  01b30	e3a03000	 mov         r3, #0
  01b34	e58d3000	 str         r3, [sp]

; 336  :     if (pTransfer!=NULL && pTransfer->pvBuffer!=NULL && m_pCurTransfer == NULL) { // If it is valid.                

  01b38	e59d3030	 ldr         r3, [sp, #0x30]
  01b3c	e3530000	 cmp         r3, #0
  01b40	0a000052	 beq         |$LN4@IssueTrans@2|
  01b44	e59d3030	 ldr         r3, [sp, #0x30]
  01b48	e2833004	 add         r3, r3, #4
  01b4c	e5933000	 ldr         r3, [r3]
  01b50	e3530000	 cmp         r3, #0
  01b54	0a00004d	 beq         |$LN4@IssueTrans@2|
  01b58	e59d302c	 ldr         r3, [sp, #0x2C]
  01b5c	e2833034	 add         r3, r3, #0x34
  01b60	e5933000	 ldr         r3, [r3]
  01b64	e3530000	 cmp         r3, #0
  01b68	1a000048	 bne         |$LN4@IssueTrans@2|

; 337  :         m_pCurTransfer = pTransfer;

  01b6c	e59d302c	 ldr         r3, [sp, #0x2C]
  01b70	e2832034	 add         r2, r3, #0x34
  01b74	e59d3030	 ldr         r3, [sp, #0x30]
  01b78	e5823000	 str         r3, [r2]

; 338  :         m_pCurTransfer->cbTransferred = 0;

  01b7c	e59d302c	 ldr         r3, [sp, #0x2C]
  01b80	e2833034	 add         r3, r3, #0x34
  01b84	e5933000	 ldr         r3, [r3]
  01b88	e2832010	 add         r2, r3, #0x10
  01b8c	e3a03000	 mov         r3, #0
  01b90	e5823000	 str         r3, [r2]

; 339  :         m_pCurTransfer->pvPddData = (PVOID) m_dwEndpointIndex;

  01b94	e59d302c	 ldr         r3, [sp, #0x2C]
  01b98	e2831020	 add         r1, r3, #0x20
  01b9c	e59d302c	 ldr         r3, [sp, #0x2C]
  01ba0	e2833034	 add         r3, r3, #0x34
  01ba4	e5933000	 ldr         r3, [r3]
  01ba8	e2832018	 add         r2, r3, #0x18
  01bac	e5913000	 ldr         r3, [r1]
  01bb0	e5823000	 str         r3, [r2]

; 340  :         
; 341  :         UDCCSR udccsr;
; 342  :         udccsr.ulValue = ReadControlStatusRegister();

  01bb4	e59d002c	 ldr         r0, [sp, #0x2C]
  01bb8	eb000000	 bl          |?ReadControlStatusRegister@BulEndpoint@@QAAKXZ|
  01bbc	e58d0018	 str         r0, [sp, #0x18]
  01bc0	e59d3018	 ldr         r3, [sp, #0x18]
  01bc4	e58d3008	 str         r3, [sp, #8]

; 343  :         udccsr.ep0bit.FST = 0; //

  01bc8	e59d2008	 ldr         r2, [sp, #8]
  01bcc	e3e03020	 mvn         r3, #0x20
  01bd0	e0023003	 and         r3, r2, r3
  01bd4	e58d3008	 str         r3, [sp, #8]

; 344  :         m_pCurTransfer->cbTransferred = 0;

  01bd8	e59d302c	 ldr         r3, [sp, #0x2C]
  01bdc	e2833034	 add         r3, r3, #0x34
  01be0	e5933000	 ldr         r3, [r3]
  01be4	e2832010	 add         r2, r3, #0x10
  01be8	e3a03000	 mov         r3, #0
  01bec	e5823000	 str         r3, [r2]

; 345  :         m_fZeroPacket = (m_pCurTransfer->cbBuffer== 0 || m_pCurTransfer->pvBuffer== 0);

  01bf0	e59d302c	 ldr         r3, [sp, #0x2C]
  01bf4	e2833034	 add         r3, r3, #0x34
  01bf8	e5933000	 ldr         r3, [r3]
  01bfc	e283300c	 add         r3, r3, #0xC
  01c00	e5933000	 ldr         r3, [r3]
  01c04	e3530000	 cmp         r3, #0
  01c08	0a000009	 beq         |$LN11@IssueTrans@2|
  01c0c	e59d302c	 ldr         r3, [sp, #0x2C]
  01c10	e2833034	 add         r3, r3, #0x34
  01c14	e5933000	 ldr         r3, [r3]
  01c18	e2833004	 add         r3, r3, #4
  01c1c	e5933000	 ldr         r3, [r3]
  01c20	e3530000	 cmp         r3, #0
  01c24	0a000002	 beq         |$LN11@IssueTrans@2|
  01c28	e3a03000	 mov         r3, #0
  01c2c	e58d301c	 str         r3, [sp, #0x1C]
  01c30	ea000001	 b           |$LN12@IssueTrans@2|
  01c34		 |$LN11@IssueTrans@2|
  01c34	e3a03001	 mov         r3, #1
  01c38	e58d301c	 str         r3, [sp, #0x1C]
  01c3c		 |$LN12@IssueTrans@2|
  01c3c	e59d302c	 ldr         r3, [sp, #0x2C]
  01c40	e2832038	 add         r2, r3, #0x38
  01c44	e59d301c	 ldr         r3, [sp, #0x1C]
  01c48	e5823000	 str         r3, [r2]

; 346  : 
; 347  :         if (dwReturn == ERROR_SUCCESS) {

  01c4c	e59d3000	 ldr         r3, [sp]
  01c50	e3530000	 cmp         r3, #0
  01c54	1a000008	 bne         |$LN3@IssueTrans@2|

; 348  :             m_pUsbDevice->EnableEndpointInterrupt(m_dwEndpointIndex,TRUE);

  01c58	e3a02001	 mov         r2, #1
  01c5c	e59d302c	 ldr         r3, [sp, #0x2C]
  01c60	e2833020	 add         r3, r3, #0x20
  01c64	e5931000	 ldr         r1, [r3]
  01c68	e59d302c	 ldr         r3, [sp, #0x2C]
  01c6c	e283301c	 add         r3, r3, #0x1C
  01c70	e5930000	 ldr         r0, [r3]
  01c74	eb000000	 bl          |?EnableEndpointInterrupt@BulUsbDevice@@QAAHKH@Z|

; 349  :         }
; 350  :         else {

  01c78	ea000003	 b           |$LN2@IssueTrans@2|
  01c7c		 |$LN3@IssueTrans@2|

; 351  :             // We no long handle this because of return error.
; 352  :             m_pCurTransfer = NULL;

  01c7c	e59d302c	 ldr         r3, [sp, #0x2C]
  01c80	e2832034	 add         r2, r3, #0x34
  01c84	e3a03000	 mov         r3, #0
  01c88	e5823000	 str         r3, [r2]
  01c8c		 |$LN2@IssueTrans@2|

; 353  :         }
; 354  :     }
; 355  :     else 

  01c8c	ea000001	 b           |$LN1@IssueTrans@2|
  01c90		 |$LN4@IssueTrans@2|

; 356  :         dwReturn = ERROR_INVALID_DATA;

  01c90	e3a0300d	 mov         r3, #0xD
  01c94	e58d3000	 str         r3, [sp]
  01c98		 |$LN1@IssueTrans@2|

; 357  :     FUNCTION_LEAVE_MSG();

  01c98	e59f3070	 ldr         r3, [pc, #0x70]
  01c9c	e5933440	 ldr         r3, [r3, #0x440]
  01ca0	e3130a01	 tst         r3, #1, 20
  01ca4	0a00000d	 beq         |$LN15@IssueTrans@2|
  01ca8	e59f3060	 ldr         r3, [pc, #0x60]
  01cac	e5933440	 ldr         r3, [r3, #0x440]
  01cb0	e3130801	 tst         r3, #1, 16
  01cb4	0a000003	 beq         |$LN13@IssueTrans@2|
  01cb8	e59d1004	 ldr         r1, [sp, #4]
  01cbc	e59f0048	 ldr         r0, [pc, #0x48]
  01cc0	eb000000	 bl          CeLogMsg
  01cc4	ea000002	 b           |$LN14@IssueTrans@2|
  01cc8		 |$LN13@IssueTrans@2|
  01cc8	e59d1004	 ldr         r1, [sp, #4]
  01ccc	e59f0038	 ldr         r0, [pc, #0x38]
  01cd0	eb000000	 bl          NKDbgPrintfW
  01cd4		 |$LN14@IssueTrans@2|
  01cd4	e3a03001	 mov         r3, #1
  01cd8	e58d3020	 str         r3, [sp, #0x20]
  01cdc	ea000001	 b           |$LN16@IssueTrans@2|
  01ce0		 |$LN15@IssueTrans@2|
  01ce0	e3a03000	 mov         r3, #0
  01ce4	e58d3020	 str         r3, [sp, #0x20]
  01ce8		 |$LN16@IssueTrans@2|

; 358  :     Unlock();

  01ce8	e59d302c	 ldr         r3, [sp, #0x2C]
  01cec	e2830008	 add         r0, r3, #8
  01cf0	eb000000	 bl          |?Unlock@CLockObject@@QAAXXZ|

; 359  :     return dwReturn;

  01cf4	e59d3000	 ldr         r3, [sp]
  01cf8	e58d3010	 str         r3, [sp, #0x10]

; 360  : }

  01cfc	e59d0010	 ldr         r0, [sp, #0x10]
  01d00	e28dd024	 add         sp, sp, #0x24
  01d04	e89d6000	 ldmia       sp, {sp, lr}
  01d08	e12fff1e	 bx          lr
  01d0c		 |$LN20@IssueTrans@2|
  01d0c		 |$LN21@IssueTrans@2|
  01d0c	00000000	 DCD         |??_C@_1BA@PLOOFDPK@?$AA?$CF?$AAs?$AA?5?$AA?9?$AA?9?$AA?$AN?$AA?6?$AA?$AA@|
  01d10		 |$LN22@IssueTrans@2|
  01d10	00000000	 DCD         |dpCurSettings|
  01d14		 |$LN23@IssueTrans@2|
  01d14	00000000	 DCD         |??_C@_1BA@DAJPCKDK@?$AA?$CF?$AAs?$AA?5?$AA?$CL?$AA?$CL?$AA?$AN?$AA?6?$AA?$AA@|
  01d18		 |$LN24@IssueTrans@2|
  01d18	00000000	 DCD         |??_C@_1FO@PFPCHJDN@?$AAb?$AAu?$AAl?$AAv?$AAe?$AAr?$AAd?$AAe?$AA_?$AAu?$AAs?$AAb?$AAf?$AAn?$AA?$CB?$AAB?$AAu?$AAl?$AAE?$AAn?$AAd?$AAp?$AAo?$AAi?$AAn?$AAt?$AAZ?$AAe?$AAr?$AAo?$AA?3?$AA?3@|
  01d1c		 |$M38597|

			 ENDP  ; |?IssueTransfer@BulEndpointZero@@UAAKPAU_STransfer@@@Z|, BulEndpointZero::IssueTransfer

	EXPORT	|??_C@_1BK@JPHHFPMM@?$AA?$CF?$AAs?$AA?5?$AAS?$AAk?$AAi?$AAp?$AAp?$AAe?$AAd?$AA?$AN?$AA?6?$AA?$AA@| [ DATA ] ; `string'
	EXPORT	|??_C@_1BM@GKHGHKDF@?$AA?$CF?$AAs?$AA?5?$AAC?$AAo?$AAm?$AAp?$AAl?$AAe?$AAt?$AAe?$AA?$AN?$AA?6?$AA?$AA@| [ DATA ] ; `string'
	EXPORT	|??_C@_1HI@DIFPFNHF@?$AAb?$AAu?$AAl?$AAv?$AAe?$AAr?$AAd?$AAe?$AA_?$AAu?$AAs?$AAb?$AAf?$AAn?$AA?$CB?$AAB?$AAu?$AAl?$AAE?$AAn?$AAd?$AAp?$AAo?$AAi?$AAn?$AAt?$AAZ?$AAe?$AAr?$AAo?$AA?3?$AA?3@| [ DATA ] ; `string'
	EXPORT	|?SendControlStatusHandshake@BulEndpointZero@@UAAKXZ| ; BulEndpointZero::SendControlStatusHandshake

  00088			 AREA	 |.pdata|, PDATA
|$T38620| DCD	|$LN22@SendContro|
	DCD	0x4000c304

  00000			 AREA	 |.rdata|, DATA, READONLY
|??_C@_1BK@JPHHFPMM@?$AA?$CF?$AAs?$AA?5?$AAS?$AAk?$AAi?$AAp?$AAp?$AAe?$AAd?$AA?$AN?$AA?6?$AA?$AA@| DCB "%"
	DCB	0x0, "s", 0x0, " ", 0x0, "S", 0x0, "k", 0x0, "i", 0x0, "p"
	DCB	0x0, "p", 0x0, "e", 0x0, "d", 0x0, 0xd, 0x0, 0xa, 0x0, 0x0
	DCB	0x0					; `string'

  00000			 AREA	 |.rdata|, DATA, READONLY
|??_C@_1BM@GKHGHKDF@?$AA?$CF?$AAs?$AA?5?$AAC?$AAo?$AAm?$AAp?$AAl?$AAe?$AAt?$AAe?$AA?$AN?$AA?6?$AA?$AA@| DCB "%"
	DCB	0x0, "s", 0x0, " ", 0x0, "C", 0x0, "o", 0x0, "m", 0x0, "p"
	DCB	0x0, "l", 0x0, "e", 0x0, "t", 0x0, "e", 0x0, 0xd, 0x0, 0xa
	DCB	0x0, 0x0, 0x0				; `string'

  00000			 AREA	 |.rdata|, DATA, READONLY
|??_C@_1HI@DIFPFNHF@?$AAb?$AAu?$AAl?$AAv?$AAe?$AAr?$AAd?$AAe?$AA_?$AAu?$AAs?$AAb?$AAf?$AAn?$AA?$CB?$AAB?$AAu?$AAl?$AAE?$AAn?$AAd?$AAp?$AAo?$AAi?$AAn?$AAt?$AAZ?$AAe?$AAr?$AAo?$AA?3?$AA?3@| DCB "b"
	DCB	0x0, "u", 0x0, "l", 0x0, "v", 0x0, "e", 0x0, "r", 0x0, "d"
	DCB	0x0, "e", 0x0, "_", 0x0, "u", 0x0, "s", 0x0, "b", 0x0, "f"
	DCB	0x0, "n", 0x0, "!", 0x0, "B", 0x0, "u", 0x0, "l", 0x0, "E"
	DCB	0x0, "n", 0x0, "d", 0x0, "p", 0x0, "o", 0x0, "i", 0x0, "n"
	DCB	0x0, "t", 0x0, "Z", 0x0, "e", 0x0, "r", 0x0, "o", 0x0, ":"
	DCB	0x0, ":", 0x0, "S", 0x0, "e", 0x0, "n", 0x0, "d", 0x0, "C"
	DCB	0x0, "o", 0x0, "n", 0x0, "t", 0x0, "r", 0x0, "o", 0x0, "l"
	DCB	0x0, "S", 0x0, "t", 0x0, "a", 0x0, "t", 0x0, "u", 0x0, "s"
	DCB	0x0, "H", 0x0, "a", 0x0, "n", 0x0, "d", 0x0, "s", 0x0, "h"
	DCB	0x0, "a", 0x0, "k", 0x0, "e", 0x0, ":", 0x0, 0x0, 0x0 ; `string'
; Function compile flags: /Odtp

  01d1c			 AREA	 |.text|, CODE, ARM

  01d1c		 |?SendControlStatusHandshake@BulEndpointZero@@UAAKXZ| PROC ; BulEndpointZero::SendControlStatusHandshake

; 362  : {

  01d1c		 |$LN22@SendContro|
  01d1c	e1a0c00d	 mov         r12, sp
  01d20	e92d0001	 stmdb       sp!, {r0}
  01d24	e92d5000	 stmdb       sp!, {r12, lr}
  01d28	e24dd024	 sub         sp, sp, #0x24
  01d2c		 |$M38617|

; 363  :     Lock();

  01d2c	e59d302c	 ldr         r3, [sp, #0x2C]
  01d30	e2830008	 add         r0, r3, #8
  01d34	eb000000	 bl          |?Lock@CLockObject@@QAAXXZ|

; 364  :     SETFNAME();

  01d38	e59f32e4	 ldr         r3, [pc, #0x2E4]
  01d3c	e58d3004	 str         r3, [sp, #4]

; 365  :     DWORD dwReturn = ERROR_SUCCESS ;

  01d40	e3a03000	 mov         r3, #0
  01d44	e58d3000	 str         r3, [sp]

; 366  :     if (m_pCurTransfer == NULL && m_bNeedAck) { // No Transfer.

  01d48	e59d302c	 ldr         r3, [sp, #0x2C]
  01d4c	e2833034	 add         r3, r3, #0x34
  01d50	e5933000	 ldr         r3, [r3]
  01d54	e3530000	 cmp         r3, #0
  01d58	1a000091	 bne         |$LN7@SendContro|
  01d5c	e59d302c	 ldr         r3, [sp, #0x2C]
  01d60	e2833040	 add         r3, r3, #0x40
  01d64	e5933000	 ldr         r3, [r3]
  01d68	e3530000	 cmp         r3, #0
  01d6c	0a00008c	 beq         |$LN7@SendContro|

; 367  :         m_pUsbDevice->EnableEndpointInterrupt(m_dwEndpointIndex,TRUE);

  01d70	e3a02001	 mov         r2, #1
  01d74	e59d302c	 ldr         r3, [sp, #0x2C]
  01d78	e2833020	 add         r3, r3, #0x20
  01d7c	e5931000	 ldr         r1, [r3]
  01d80	e59d302c	 ldr         r3, [sp, #0x2C]
  01d84	e283301c	 add         r3, r3, #0x1C
  01d88	e5930000	 ldr         r0, [r3]
  01d8c	eb000000	 bl          |?EnableEndpointInterrupt@BulUsbDevice@@QAAHKH@Z|

; 368  :         if (!m_bSetupDirIn) {

  01d90	e59d302c	 ldr         r3, [sp, #0x2C]
  01d94	e2833044	 add         r3, r3, #0x44
  01d98	e5933000	 ldr         r3, [r3]
  01d9c	e3530000	 cmp         r3, #0
  01da0	1a00001a	 bne         |$LN6@SendContro|

; 369  :             UDCCSR udccsr;
; 370  :             udccsr.ulValue = ReadControlStatusRegister();

  01da4	e59d002c	 ldr         r0, [sp, #0x2C]
  01da8	eb000000	 bl          |?ReadControlStatusRegister@BulEndpoint@@QAAKXZ|
  01dac	e58d0014	 str         r0, [sp, #0x14]
  01db0	e59d3014	 ldr         r3, [sp, #0x14]
  01db4	e58d3008	 str         r3, [sp, #8]

; 371  :             udccsr.ep0bit.SA = 0 ;

  01db8	e59d2008	 ldr         r2, [sp, #8]
  01dbc	e3e03080	 mvn         r3, #0x80
  01dc0	e0023003	 and         r3, r2, r3
  01dc4	e58d3008	 str         r3, [sp, #8]

; 372  :             udccsr.ep0bit.FST = 0; //

  01dc8	e59d2008	 ldr         r2, [sp, #8]
  01dcc	e3e03020	 mvn         r3, #0x20
  01dd0	e0023003	 and         r3, r2, r3
  01dd4	e58d3008	 str         r3, [sp, #8]

; 373  :             udccsr.ep0bit.SST = 0;

  01dd8	e59d2008	 ldr         r2, [sp, #8]
  01ddc	e3e03010	 mvn         r3, #0x10
  01de0	e0023003	 and         r3, r2, r3
  01de4	e58d3008	 str         r3, [sp, #8]

; 374  :             udccsr.ep0bit.IPR = 1; // Sent Zero Packet.

  01de8	e59d3008	 ldr         r3, [sp, #8]
  01dec	e3833002	 orr         r3, r3, #2
  01df0	e58d3008	 str         r3, [sp, #8]

; 375  :             udccsr.ep0bit.OPC = 0;

  01df4	e59d2008	 ldr         r2, [sp, #8]
  01df8	e3e03001	 mvn         r3, #1
  01dfc	e0023003	 and         r3, r2, r3
  01e00	e58d3008	 str         r3, [sp, #8]

; 376  :             WriteControlStatusRegister(udccsr.ulValue);

  01e04	e59d1008	 ldr         r1, [sp, #8]
  01e08	e59d002c	 ldr         r0, [sp, #0x2C]
  01e0c	eb000000	 bl          |?WriteControlStatusRegister@BulEndpoint@@QAAXK@Z|
  01e10		 |$LN6@SendContro|

; 377  :         }
; 378  :         m_bNeedAck = FALSE;

  01e10	e59d302c	 ldr         r3, [sp, #0x2C]
  01e14	e2832040	 add         r2, r3, #0x40
  01e18	e3a03000	 mov         r3, #0
  01e1c	e5823000	 str         r3, [r2]

; 379  :         if (m_fBackedudr) {

  01e20	e59d302c	 ldr         r3, [sp, #0x2C]
  01e24	e283305c	 add         r3, r3, #0x5C
  01e28	e5933000	 ldr         r3, [r3]
  01e2c	e3530000	 cmp         r3, #0
  01e30	0a000034	 beq         |$LN5@SendContro|

; 380  :             m_bNeedAck = TRUE;

  01e34	e59d302c	 ldr         r3, [sp, #0x2C]
  01e38	e2832040	 add         r2, r3, #0x40
  01e3c	e3a03001	 mov         r3, #1
  01e40	e5823000	 str         r3, [r2]

; 381  :             m_bSetupDirIn = ((m_backup_udr.bmRequestType & USB_REQUEST_DEVICE_TO_HOST)!=0?TRUE:FALSE);

  01e44	e59d302c	 ldr         r3, [sp, #0x2C]
  01e48	e283304c	 add         r3, r3, #0x4C
  01e4c	e5d33000	 ldrb        r3, [r3]
  01e50	e3130080	 tst         r3, #0x80
  01e54	0a000002	 beq         |$LN10@SendContro|
  01e58	e3a03001	 mov         r3, #1
  01e5c	e58d3018	 str         r3, [sp, #0x18]
  01e60	ea000001	 b           |$LN11@SendContro|
  01e64		 |$LN10@SendContro|
  01e64	e3a03000	 mov         r3, #0
  01e68	e58d3018	 str         r3, [sp, #0x18]
  01e6c		 |$LN11@SendContro|
  01e6c	e59d302c	 ldr         r3, [sp, #0x2C]
  01e70	e2832044	 add         r2, r3, #0x44
  01e74	e59d3018	 ldr         r3, [sp, #0x18]
  01e78	e5823000	 str         r3, [r2]

; 382  :             m_fZeroPacket = FALSE;

  01e7c	e59d302c	 ldr         r3, [sp, #0x2C]
  01e80	e2832038	 add         r2, r3, #0x38
  01e84	e3a03000	 mov         r3, #0
  01e88	e5823000	 str         r3, [r2]

; 383  :             m_fBackedudr = FALSE;

  01e8c	e59d302c	 ldr         r3, [sp, #0x2C]
  01e90	e283205c	 add         r2, r3, #0x5C
  01e94	e3a03000	 mov         r3, #0
  01e98	e5823000	 str         r3, [r2]

; 384  :             m_cur_udr = m_backup_udr ;

  01e9c	e59d302c	 ldr         r3, [sp, #0x2C]
  01ea0	e283104c	 add         r1, r3, #0x4C
  01ea4	e59d302c	 ldr         r3, [sp, #0x2C]
  01ea8	e2830054	 add         r0, r3, #0x54
  01eac	e3a02008	 mov         r2, #8
  01eb0	eb000000	 bl          memcpy

; 385  :             m_pUsbDevice->DeviceNotification(UFN_MSG_SETUP_PACKET, (DWORD) &m_backup_udr);

  01eb4	e59d302c	 ldr         r3, [sp, #0x2C]
  01eb8	e283204c	 add         r2, r3, #0x4C
  01ebc	e3a01004	 mov         r1, #4
  01ec0	e59d302c	 ldr         r3, [sp, #0x2C]
  01ec4	e283301c	 add         r3, r3, #0x1C
  01ec8	e5930000	 ldr         r0, [r3]
  01ecc	eb000000	 bl          |?DeviceNotification@BulUsbDevice@@QAAHKK@Z|

; 386  :             if (!m_fInIST) {

  01ed0	e59d302c	 ldr         r3, [sp, #0x2C]
  01ed4	e2833048	 add         r3, r3, #0x48
  01ed8	e5933000	 ldr         r3, [r3]
  01edc	e3530000	 cmp         r3, #0
  01ee0	1a000007	 bne         |$LN4@SendContro|

; 387  :                 IST(EPINT_PACKET_COMPLETE);

  01ee4	e3a01001	 mov         r1, #1
  01ee8	e59d302c	 ldr         r3, [sp, #0x2C]
  01eec	e5933000	 ldr         r3, [r3]
  01ef0	e2833030	 add         r3, r3, #0x30
  01ef4	e59d002c	 ldr         r0, [sp, #0x2C]
  01ef8	e5933000	 ldr         r3, [r3]
  01efc	e1a0e00f	 mov         lr, pc
  01f00	e12fff13	 bx          r3
  01f04		 |$LN4@SendContro|

; 388  :             }
; 389  :         }

  01f04	ea000011	 b           |$LN3@SendContro|
  01f08		 |$LN5@SendContro|

; 390  :         else if (m_bSetupDirIn && !m_fInIST )

  01f08	e59d302c	 ldr         r3, [sp, #0x2C]
  01f0c	e2833044	 add         r3, r3, #0x44
  01f10	e5933000	 ldr         r3, [r3]
  01f14	e3530000	 cmp         r3, #0
  01f18	0a00000c	 beq         |$LN2@SendContro|
  01f1c	e59d302c	 ldr         r3, [sp, #0x2C]
  01f20	e2833048	 add         r3, r3, #0x48
  01f24	e5933000	 ldr         r3, [r3]
  01f28	e3530000	 cmp         r3, #0
  01f2c	1a000007	 bne         |$LN2@SendContro|

; 391  :             IST(EPINT_PACKET_COMPLETE);

  01f30	e3a01001	 mov         r1, #1
  01f34	e59d302c	 ldr         r3, [sp, #0x2C]
  01f38	e5933000	 ldr         r3, [r3]
  01f3c	e2833030	 add         r3, r3, #0x30
  01f40	e59d002c	 ldr         r0, [sp, #0x2C]
  01f44	e5933000	 ldr         r3, [r3]
  01f48	e1a0e00f	 mov         lr, pc
  01f4c	e12fff13	 bx          r3
  01f50		 |$LN2@SendContro|
  01f50		 |$LN3@SendContro|

; 392  :         DEBUGMSG(ZONE_TRANSFER, (_T("%s Complete\r\n"),pszFname));

  01f50	e59f30c4	 ldr         r3, [pc, #0xC4]
  01f54	e5933440	 ldr         r3, [r3, #0x440]
  01f58	e3130008	 tst         r3, #8
  01f5c	0a00000d	 beq         |$LN14@SendContro|
  01f60	e59f30b4	 ldr         r3, [pc, #0xB4]
  01f64	e5933440	 ldr         r3, [r3, #0x440]
  01f68	e3130801	 tst         r3, #1, 16
  01f6c	0a000003	 beq         |$LN12@SendContro|
  01f70	e59d1004	 ldr         r1, [sp, #4]
  01f74	e59f00a4	 ldr         r0, [pc, #0xA4]
  01f78	eb000000	 bl          CeLogMsg
  01f7c	ea000002	 b           |$LN13@SendContro|
  01f80		 |$LN12@SendContro|
  01f80	e59d1004	 ldr         r1, [sp, #4]
  01f84	e59f0094	 ldr         r0, [pc, #0x94]
  01f88	eb000000	 bl          NKDbgPrintfW
  01f8c		 |$LN13@SendContro|
  01f8c	e3a03001	 mov         r3, #1
  01f90	e58d301c	 str         r3, [sp, #0x1C]
  01f94	ea000001	 b           |$LN15@SendContro|
  01f98		 |$LN14@SendContro|
  01f98	e3a03000	 mov         r3, #0
  01f9c	e58d301c	 str         r3, [sp, #0x1C]
  01fa0		 |$LN15@SendContro|

; 393  :     }
; 394  :     else

  01fa0	ea000013	 b           |$LN1@SendContro|
  01fa4		 |$LN7@SendContro|

; 395  :         DEBUGMSG(ZONE_TRANSFER, (_T("%s Skipped\r\n"),pszFname));

  01fa4	e59f3070	 ldr         r3, [pc, #0x70]
  01fa8	e5933440	 ldr         r3, [r3, #0x440]
  01fac	e3130008	 tst         r3, #8
  01fb0	0a00000d	 beq         |$LN18@SendContro|
  01fb4	e59f3060	 ldr         r3, [pc, #0x60]
  01fb8	e5933440	 ldr         r3, [r3, #0x440]
  01fbc	e3130801	 tst         r3, #1, 16
  01fc0	0a000003	 beq         |$LN16@SendContro|
  01fc4	e59d1004	 ldr         r1, [sp, #4]
  01fc8	e59f0048	 ldr         r0, [pc, #0x48]
  01fcc	eb000000	 bl          CeLogMsg
  01fd0	ea000002	 b           |$LN17@SendContro|
  01fd4		 |$LN16@SendContro|
  01fd4	e59d1004	 ldr         r1, [sp, #4]
  01fd8	e59f0038	 ldr         r0, [pc, #0x38]
  01fdc	eb000000	 bl          NKDbgPrintfW
  01fe0		 |$LN17@SendContro|
  01fe0	e3a03001	 mov         r3, #1
  01fe4	e58d3020	 str         r3, [sp, #0x20]
  01fe8	ea000001	 b           |$LN19@SendContro|
  01fec		 |$LN18@SendContro|
  01fec	e3a03000	 mov         r3, #0
  01ff0	e58d3020	 str         r3, [sp, #0x20]
  01ff4		 |$LN19@SendContro|
  01ff4		 |$LN1@SendContro|

; 396  :     Unlock();

  01ff4	e59d302c	 ldr         r3, [sp, #0x2C]
  01ff8	e2830008	 add         r0, r3, #8
  01ffc	eb000000	 bl          |?Unlock@CLockObject@@QAAXXZ|

; 397  :     return ERROR_SUCCESS;

  02000	e3a03000	 mov         r3, #0
  02004	e58d3010	 str         r3, [sp, #0x10]

; 398  : }

  02008	e59d0010	 ldr         r0, [sp, #0x10]
  0200c	e28dd024	 add         sp, sp, #0x24
  02010	e89d6000	 ldmia       sp, {sp, lr}
  02014	e12fff1e	 bx          lr
  02018		 |$LN23@SendContro|
  02018		 |$LN24@SendContro|
  02018	00000000	 DCD         |??_C@_1BK@JPHHFPMM@?$AA?$CF?$AAs?$AA?5?$AAS?$AAk?$AAi?$AAp?$AAp?$AAe?$AAd?$AA?$AN?$AA?6?$AA?$AA@|
  0201c		 |$LN25@SendContro|
  0201c	00000000	 DCD         |dpCurSettings|
  02020		 |$LN26@SendContro|
  02020	00000000	 DCD         |??_C@_1BM@GKHGHKDF@?$AA?$CF?$AAs?$AA?5?$AAC?$AAo?$AAm?$AAp?$AAl?$AAe?$AAt?$AAe?$AA?$AN?$AA?6?$AA?$AA@|
  02024		 |$LN27@SendContro|
  02024	00000000	 DCD         |??_C@_1HI@DIFPFNHF@?$AAb?$AAu?$AAl?$AAv?$AAe?$AAr?$AAd?$AAe?$AA_?$AAu?$AAs?$AAb?$AAf?$AAn?$AA?$CB?$AAB?$AAu?$AAl?$AAE?$AAn?$AAd?$AAp?$AAo?$AAi?$AAn?$AAt?$AAZ?$AAe?$AAr?$AAo?$AA?3?$AA?3@|
  02028		 |$M38618|

			 ENDP  ; |?SendControlStatusHandshake@BulEndpointZero@@UAAKXZ|, BulEndpointZero::SendControlStatusHandshake

	EXPORT	|??_C@_1EE@CKNJLPKA@?$AAS?$AAt?$AAa?$AAl?$AAl?$AA?5?$AAS?$AAe?$AAn?$AAt?$AA?5?$AAo?$AAn?$AA?5?$AAZ?$AAe?$AAr?$AAo?$AA?5?$AAe?$AAn?$AAd?$AAp?$AAo?$AAi?$AAn?$AAt?$AA?5?$AA?$DN?$AA0?$AAx?$AA?$CF@| [ DATA ] ; `string'
	EXPORT	|?IncEp0StallCounter@BulUsbDevice@@QAAXXZ| ; BulUsbDevice::IncEp0StallCounter
	EXPORT	|??_C@_1EA@OEDJODNB@?$AAE?$AAn?$AAd?$AAp?$AAo?$AAi?$AAn?$AAt?$AA?5?$AAZ?$AAe?$AAr?$AAo?$AA?5?$AAD?$AAi?$AAs?$AAa?$AAb?$AAl?$AAe?$AA?5?$AAI?$AAn?$AAt?$AAe?$AAr?$AAr?$AAu?$AAp?$AAt?$AA?$AA@| [ DATA ] ; `string'
	EXPORT	|??_C@_1MA@EIKGFJC@?$AAE?$AAn?$AAd?$AAp?$AAo?$AAi?$AAn?$AAt?$AA?5?$AAZ?$AAe?$AAr?$AAo?$AA?5?$AAS?$AAe?$AAt?$AAu?$AAp?$AA?5?$AAb?$AAm?$AAR?$AAe?$AAq?$AAu?$AAe?$AAs?$AAt?$AAT?$AAy?$AAp@| [ DATA ] ; `string'
	EXPORT	|??_C@_1FC@GPHBKKLB@?$AAE?$AAn?$AAd?$AAp?$AAo?$AAi?$AAn?$AAt?$AA?5?$AAZ?$AAe?$AAr?$AAo?$AA?5?$AAC?$AAu?$AAr?$AAr?$AAe?$AAn?$AAt?$AA?5?$AAT?$AAr?$AAa?$AAn?$AAs?$AAf?$AAe?$AAr?$AA?5?$AAC@| [ DATA ] ; `string'
	EXPORT	|??_C@_1GM@LAGLGKNJ@?$AAE?$AAn?$AAd?$AAp?$AAo?$AAi?$AAn?$AAt?$AA?5?$AAZ?$AAe?$AAr?$AAo?$AA?5?$AAF?$AAA?$AAI?$AAL?$AAE?$AAD?$AA?5?$AAS?$AAE?$AAT?$AAU?$AAP?$AA?5?$AA?5?$AAu?$AAd?$AAc?$AAc@| [ DATA ] ; `string'
	EXPORT	|?IncBadSetupCounter@BulUsbDevice@@QAAXXZ| ; BulUsbDevice::IncBadSetupCounter
	EXPORT	|??_C@_1GA@IKBBCDAB@?$AAE?$AAn?$AAd?$AAp?$AAo?$AAi?$AAn?$AAt?$AA?5?$AAZ?$AAe?$AAr?$AAo?$AA?5?$AAR?$AAe?$AAa?$AAd?$AAC?$AAo?$AAn?$AAt?$AAr?$AAo?$AAl?$AAS?$AAt?$AAa?$AAt?$AAu?$AAs?$AAR@| [ DATA ] ; `string'
	EXPORT	|??_C@_1FA@JCGFFJNI@?$AAF?$AAI?$AAF?$AAO?$AA?5?$AAE?$AAr?$AAr?$AAo?$AAr?$AA?5?$AAo?$AAn?$AA?5?$AAE?$AAn?$AAd?$AAp?$AAo?$AAi?$AAn?$AAt?$AA?5?$AAZ?$AAe?$AAr?$AAo?$AA?5?$AAU?$AAD?$AAC?$AAC@| [ DATA ] ; `string'
	EXPORT	|??_C@_1EK@PHDCNHIP@?$AAb?$AAu?$AAl?$AAv?$AAe?$AAr?$AAd?$AAe?$AA_?$AAu?$AAs?$AAb?$AAf?$AAn?$AA?$CB?$AAB?$AAu?$AAl?$AAE?$AAn?$AAd?$AAp?$AAo?$AAi?$AAn?$AAt?$AAZ?$AAe?$AAr?$AAo?$AA?3?$AA?3@| [ DATA ] ; `string'
	EXPORT	|?IST@BulEndpointZero@@UAAKK@Z|		; BulEndpointZero::IST

  00090			 AREA	 |.pdata|, PDATA
|$T38688| DCD	|$LN83@IST|
	DCD	0x4002f204

  00000			 AREA	 |.rdata|, DATA, READONLY
|??_C@_1EE@CKNJLPKA@?$AAS?$AAt?$AAa?$AAl?$AAl?$AA?5?$AAS?$AAe?$AAn?$AAt?$AA?5?$AAo?$AAn?$AA?5?$AAZ?$AAe?$AAr?$AAo?$AA?5?$AAe?$AAn?$AAd?$AAp?$AAo?$AAi?$AAn?$AAt?$AA?5?$AA?$DN?$AA0?$AAx?$AA?$CF@| DCB "S"
	DCB	0x0, "t", 0x0, "a", 0x0, "l", 0x0, "l", 0x0, " ", 0x0, "S"
	DCB	0x0, "e", 0x0, "n", 0x0, "t", 0x0, " ", 0x0, "o", 0x0, "n"
	DCB	0x0, " ", 0x0, "Z", 0x0, "e", 0x0, "r", 0x0, "o", 0x0, " "
	DCB	0x0, "e", 0x0, "n", 0x0, "d", 0x0, "p", 0x0, "o", 0x0, "i"
	DCB	0x0, "n", 0x0, "t", 0x0, " ", 0x0, "=", 0x0, "0", 0x0, "x"
	DCB	0x0, "%", 0x0, "x", 0x0, 0x0, 0x0	; `string'

  00000			 AREA	 |.rdata|, DATA, READONLY
|??_C@_1EA@OEDJODNB@?$AAE?$AAn?$AAd?$AAp?$AAo?$AAi?$AAn?$AAt?$AA?5?$AAZ?$AAe?$AAr?$AAo?$AA?5?$AAD?$AAi?$AAs?$AAa?$AAb?$AAl?$AAe?$AA?5?$AAI?$AAn?$AAt?$AAe?$AAr?$AAr?$AAu?$AAp?$AAt?$AA?$AA@| DCB "E"
	DCB	0x0, "n", 0x0, "d", 0x0, "p", 0x0, "o", 0x0, "i", 0x0, "n"
	DCB	0x0, "t", 0x0, " ", 0x0, "Z", 0x0, "e", 0x0, "r", 0x0, "o"
	DCB	0x0, " ", 0x0, "D", 0x0, "i", 0x0, "s", 0x0, "a", 0x0, "b"
	DCB	0x0, "l", 0x0, "e", 0x0, " ", 0x0, "I", 0x0, "n", 0x0, "t"
	DCB	0x0, "e", 0x0, "r", 0x0, "r", 0x0, "u", 0x0, "p", 0x0, "t"
	DCB	0x0, 0x0, 0x0				; `string'

  00000			 AREA	 |.rdata|, DATA, READONLY
|??_C@_1MA@EIKGFJC@?$AAE?$AAn?$AAd?$AAp?$AAo?$AAi?$AAn?$AAt?$AA?5?$AAZ?$AAe?$AAr?$AAo?$AA?5?$AAS?$AAe?$AAt?$AAu?$AAp?$AA?5?$AAb?$AAm?$AAR?$AAe?$AAq?$AAu?$AAe?$AAs?$AAt?$AAT?$AAy?$AAp@| DCB "E"
	DCB	0x0, "n", 0x0, "d", 0x0, "p", 0x0, "o", 0x0, "i", 0x0, "n"
	DCB	0x0, "t", 0x0, " ", 0x0, "Z", 0x0, "e", 0x0, "r", 0x0, "o"
	DCB	0x0, " ", 0x0, "S", 0x0, "e", 0x0, "t", 0x0, "u", 0x0, "p"
	DCB	0x0, " ", 0x0, "b", 0x0, "m", 0x0, "R", 0x0, "e", 0x0, "q"
	DCB	0x0, "u", 0x0, "e", 0x0, "s", 0x0, "t", 0x0, "T", 0x0, "y"
	DCB	0x0, "p", 0x0, "e", 0x0, " ", 0x0, "=", 0x0, " ", 0x0, "0"
	DCB	0x0, "x", 0x0, "x", 0x0, "%", 0x0, "x", 0x0, ",", 0x0, " "
	DCB	0x0, "b", 0x0, "R", 0x0, "e", 0x0, "q", 0x0, "u", 0x0, "e"
	DCB	0x0, "s", 0x0, "t", 0x0, "=", 0x0, "0", 0x0, "x", 0x0, "%"
	DCB	0x0, "x", 0x0, ",", 0x0, " ", 0x0, "w", 0x0, "V", 0x0, "a"
	DCB	0x0, "l", 0x0, "u", 0x0, "e", 0x0, "=", 0x0, "0", 0x0, "x"
	DCB	0x0, "%", 0x0, "x", 0x0, ",", 0x0, "w", 0x0, "I", 0x0, "n"
	DCB	0x0, "d", 0x0, "e", 0x0, "x", 0x0, "=", 0x0, "0", 0x0, "x"
	DCB	0x0, "%", 0x0, "x", 0x0, ",", 0x0, "w", 0x0, "L", 0x0, "e"
	DCB	0x0, "n", 0x0, "g", 0x0, "t", 0x0, "h", 0x0, "=", 0x0, "0"
	DCB	0x0, "x", 0x0, "%", 0x0, "x", 0x0, 0xa, 0x0, 0x0, 0x0 ; `string'

  00000			 AREA	 |.rdata|, DATA, READONLY
|??_C@_1FC@GPHBKKLB@?$AAE?$AAn?$AAd?$AAp?$AAo?$AAi?$AAn?$AAt?$AA?5?$AAZ?$AAe?$AAr?$AAo?$AA?5?$AAC?$AAu?$AAr?$AAr?$AAe?$AAn?$AAt?$AA?5?$AAT?$AAr?$AAa?$AAn?$AAs?$AAf?$AAe?$AAr?$AA?5?$AAC@| DCB "E"
	DCB	0x0, "n", 0x0, "d", 0x0, "p", 0x0, "o", 0x0, "i", 0x0, "n"
	DCB	0x0, "t", 0x0, " ", 0x0, "Z", 0x0, "e", 0x0, "r", 0x0, "o"
	DCB	0x0, " ", 0x0, "C", 0x0, "u", 0x0, "r", 0x0, "r", 0x0, "e"
	DCB	0x0, "n", 0x0, "t", 0x0, " ", 0x0, "T", 0x0, "r", 0x0, "a"
	DCB	0x0, "n", 0x0, "s", 0x0, "f", 0x0, "e", 0x0, "r", 0x0, " "
	DCB	0x0, "C", 0x0, "a", 0x0, "n", 0x0, "c", 0x0, "e", 0x0, "l"
	DCB	0x0, "e", 0x0, "d", 0x0, 0xa, 0x0, 0x0, 0x0 ; `string'

  00000			 AREA	 |.rdata|, DATA, READONLY
|??_C@_1GM@LAGLGKNJ@?$AAE?$AAn?$AAd?$AAp?$AAo?$AAi?$AAn?$AAt?$AA?5?$AAZ?$AAe?$AAr?$AAo?$AA?5?$AAF?$AAA?$AAI?$AAL?$AAE?$AAD?$AA?5?$AAS?$AAE?$AAT?$AAU?$AAP?$AA?5?$AA?5?$AAu?$AAd?$AAc?$AAc@| DCB "E"
	DCB	0x0, "n", 0x0, "d", 0x0, "p", 0x0, "o", 0x0, "i", 0x0, "n"
	DCB	0x0, "t", 0x0, " ", 0x0, "Z", 0x0, "e", 0x0, "r", 0x0, "o"
	DCB	0x0, " ", 0x0, "F", 0x0, "A", 0x0, "I", 0x0, "L", 0x0, "E"
	DCB	0x0, "D", 0x0, " ", 0x0, "S", 0x0, "E", 0x0, "T", 0x0, "U"
	DCB	0x0, "P", 0x0, " ", 0x0, " ", 0x0, "u", 0x0, "d", 0x0, "c"
	DCB	0x0, "c", 0x0, "s", 0x0, "r", 0x0, "=", 0x0, "0", 0x0, "x"
	DCB	0x0, "%", 0x0, "x", 0x0, ".", 0x0, " ", 0x0, "S", 0x0, "e"
	DCB	0x0, "n", 0x0, "t", 0x0, " ", 0x0, "S", 0x0, "T", 0x0, "A"
	DCB	0x0, "L", 0x0, "L", 0x0, " ", 0x0, 0xa, 0x0, 0x0, 0x0 ; `string'

  00000			 AREA	 |.rdata|, DATA, READONLY
|??_C@_1GA@IKBBCDAB@?$AAE?$AAn?$AAd?$AAp?$AAo?$AAi?$AAn?$AAt?$AA?5?$AAZ?$AAe?$AAr?$AAo?$AA?5?$AAR?$AAe?$AAa?$AAd?$AAC?$AAo?$AAn?$AAt?$AAr?$AAo?$AAl?$AAS?$AAt?$AAa?$AAt?$AAu?$AAs?$AAR@| DCB "E"
	DCB	0x0, "n", 0x0, "d", 0x0, "p", 0x0, "o", 0x0, "i", 0x0, "n"
	DCB	0x0, "t", 0x0, " ", 0x0, "Z", 0x0, "e", 0x0, "r", 0x0, "o"
	DCB	0x0, " ", 0x0, "R", 0x0, "e", 0x0, "a", 0x0, "d", 0x0, "C"
	DCB	0x0, "o", 0x0, "n", 0x0, "t", 0x0, "r", 0x0, "o", 0x0, "l"
	DCB	0x0, "S", 0x0, "t", 0x0, "a", 0x0, "t", 0x0, "u", 0x0, "s"
	DCB	0x0, "R", 0x0, "e", 0x0, "g", 0x0, "i", 0x0, "s", 0x0, "t"
	DCB	0x0, "e", 0x0, "r", 0x0, "(", 0x0, ")", 0x0, "=", 0x0, "0"
	DCB	0x0, "x", 0x0, "%", 0x0, "x", 0x0, 0xa, 0x0, 0x0, 0x0 ; `string'

  00000			 AREA	 |.rdata|, DATA, READONLY
|??_C@_1FA@JCGFFJNI@?$AAF?$AAI?$AAF?$AAO?$AA?5?$AAE?$AAr?$AAr?$AAo?$AAr?$AA?5?$AAo?$AAn?$AA?5?$AAE?$AAn?$AAd?$AAp?$AAo?$AAi?$AAn?$AAt?$AA?5?$AAZ?$AAe?$AAr?$AAo?$AA?5?$AAU?$AAD?$AAC?$AAC@| DCB "F"
	DCB	0x0, "I", 0x0, "F", 0x0, "O", 0x0, " ", 0x0, "E", 0x0, "r"
	DCB	0x0, "r", 0x0, "o", 0x0, "r", 0x0, " ", 0x0, "o", 0x0, "n"
	DCB	0x0, " ", 0x0, "E", 0x0, "n", 0x0, "d", 0x0, "p", 0x0, "o"
	DCB	0x0, "i", 0x0, "n", 0x0, "t", 0x0, " ", 0x0, "Z", 0x0, "e"
	DCB	0x0, "r", 0x0, "o", 0x0, " ", 0x0, "U", 0x0, "D", 0x0, "C"
	DCB	0x0, "C", 0x0, "S", 0x0, "R", 0x0, "=", 0x0, "0", 0x0, "x"
	DCB	0x0, "%", 0x0, "x", 0x0, 0x0, 0x0	; `string'

  00000			 AREA	 |.rdata|, DATA, READONLY
|??_C@_1EK@PHDCNHIP@?$AAb?$AAu?$AAl?$AAv?$AAe?$AAr?$AAd?$AAe?$AA_?$AAu?$AAs?$AAb?$AAf?$AAn?$AA?$CB?$AAB?$AAu?$AAl?$AAE?$AAn?$AAd?$AAp?$AAo?$AAi?$AAn?$AAt?$AAZ?$AAe?$AAr?$AAo?$AA?3?$AA?3@| DCB "b"
	DCB	0x0, "u", 0x0, "l", 0x0, "v", 0x0, "e", 0x0, "r", 0x0, "d"
	DCB	0x0, "e", 0x0, "_", 0x0, "u", 0x0, "s", 0x0, "b", 0x0, "f"
	DCB	0x0, "n", 0x0, "!", 0x0, "B", 0x0, "u", 0x0, "l", 0x0, "E"
	DCB	0x0, "n", 0x0, "d", 0x0, "p", 0x0, "o", 0x0, "i", 0x0, "n"
	DCB	0x0, "t", 0x0, "Z", 0x0, "e", 0x0, "r", 0x0, "o", 0x0, ":"
	DCB	0x0, ":", 0x0, "I", 0x0, "S", 0x0, "T", 0x0, ":", 0x0, 0x0
	DCB	0x0					; `string'
; Function compile flags: /Odtp

  02028			 AREA	 |.text|, CODE, ARM

  02028		 |?IST@BulEndpointZero@@UAAKK@Z| PROC	; BulEndpointZero::IST

; 400  : {

  02028		 |$LN83@IST|
  02028	e1a0c00d	 mov         r12, sp
  0202c	e92d0003	 stmdb       sp!, {r0, r1}
  02030	e92d5000	 stmdb       sp!, {r12, lr}
  02034	e24dd0c8	 sub         sp, sp, #0xC8
  02038		 |$M38685|

; 401  :     Lock();

  02038	e59d30d0	 ldr         r3, [sp, #0xD0]
  0203c	e2830008	 add         r0, r3, #8
  02040	eb000000	 bl          |?Lock@CLockObject@@QAAXXZ|

; 402  :     BOOL bContinue = TRUE;

  02044	e3a03001	 mov         r3, #1
  02048	e58d3008	 str         r3, [sp, #8]

; 403  :     m_fInIST = TRUE;

  0204c	e59d30d0	 ldr         r3, [sp, #0xD0]
  02050	e2832048	 add         r2, r3, #0x48
  02054	e3a03001	 mov         r3, #1
  02058	e5823000	 str         r3, [r2]

; 404  :     SETFNAME();

  0205c	e59f3b88	 ldr         r3, [pc, #0xB88]
  02060	e58d300c	 str         r3, [sp, #0xC]

; 405  :     FUNCTION_ENTER_MSG();

  02064	e59f3b50	 ldr         r3, [pc, #0xB50]
  02068	e5933440	 ldr         r3, [r3, #0x440]
  0206c	e3130a01	 tst         r3, #1, 20
  02070	0a00000d	 beq         |$LN30@IST|
  02074	e59f3b40	 ldr         r3, [pc, #0xB40]
  02078	e5933440	 ldr         r3, [r3, #0x440]
  0207c	e3130801	 tst         r3, #1, 16
  02080	0a000003	 beq         |$LN28@IST|
  02084	e59d100c	 ldr         r1, [sp, #0xC]
  02088	e59f0b58	 ldr         r0, [pc, #0xB58]
  0208c	eb000000	 bl          CeLogMsg
  02090	ea000002	 b           |$LN29@IST|
  02094		 |$LN28@IST|
  02094	e59d100c	 ldr         r1, [sp, #0xC]
  02098	e59f0b48	 ldr         r0, [pc, #0xB48]
  0209c	eb000000	 bl          NKDbgPrintfW
  020a0		 |$LN29@IST|
  020a0	e3a03001	 mov         r3, #1
  020a4	e58d3054	 str         r3, [sp, #0x54]
  020a8	ea000001	 b           |$LN31@IST|
  020ac		 |$LN30@IST|
  020ac	e3a03000	 mov         r3, #0
  020b0	e58d3054	 str         r3, [sp, #0x54]
  020b4		 |$LN31@IST|

; 406  :     if ((dwIRBit & EPINT_FIFO_ERROR)!=0) { // FIFO Error. End

  020b4	e59d30d4	 ldr         r3, [sp, #0xD4]
  020b8	e3130002	 tst         r3, #2
  020bc	0a000018	 beq         |$LN25@IST|

; 407  :         DWORD dwUdccsr;
; 408  :         dwUdccsr = ReadControlStatusRegister();

  020c0	e59d00d0	 ldr         r0, [sp, #0xD0]
  020c4	eb000000	 bl          |?ReadControlStatusRegister@BulEndpoint@@QAAKXZ|
  020c8	e58d0058	 str         r0, [sp, #0x58]
  020cc	e59d3058	 ldr         r3, [sp, #0x58]
  020d0	e58d3010	 str         r3, [sp, #0x10]

; 409  :         DEBUGMSG(ZONE_TRANSFER, (_T("FIFO Error on Endpoint Zero UDCCSR=0x%x"),dwUdccsr));

  020d4	e59f3ae0	 ldr         r3, [pc, #0xAE0]
  020d8	e5933440	 ldr         r3, [r3, #0x440]
  020dc	e3130008	 tst         r3, #8
  020e0	0a00000d	 beq         |$LN34@IST|
  020e4	e59f3ad0	 ldr         r3, [pc, #0xAD0]
  020e8	e5933440	 ldr         r3, [r3, #0x440]
  020ec	e3130801	 tst         r3, #1, 16
  020f0	0a000003	 beq         |$LN32@IST|
  020f4	e59d1010	 ldr         r1, [sp, #0x10]
  020f8	e59f0ae4	 ldr         r0, [pc, #0xAE4]
  020fc	eb000000	 bl          CeLogMsg
  02100	ea000002	 b           |$LN33@IST|
  02104		 |$LN32@IST|
  02104	e59d1010	 ldr         r1, [sp, #0x10]
  02108	e59f0ad4	 ldr         r0, [pc, #0xAD4]
  0210c	eb000000	 bl          NKDbgPrintfW
  02110		 |$LN33@IST|
  02110	e3a03001	 mov         r3, #1
  02114	e58d305c	 str         r3, [sp, #0x5C]
  02118	ea000001	 b           |$LN35@IST|
  0211c		 |$LN34@IST|
  0211c	e3a03000	 mov         r3, #0
  02120	e58d305c	 str         r3, [sp, #0x5C]
  02124		 |$LN35@IST|
  02124		 |$LN25@IST|
  02124		 |$LN80@IST|
  02124		 |$LN79@IST|
  02124		 |$LN78@IST|
  02124		 |$LN24@IST|

; 410  :     };
; 411  :     while (bContinue && (dwIRBit & EPINT_PACKET_COMPLETE)!=0) {

  02124	e59d3008	 ldr         r3, [sp, #8]
  02128	e3530000	 cmp         r3, #0
  0212c	0a000280	 beq         |$LN23@IST|
  02130	e59d30d4	 ldr         r3, [sp, #0xD4]
  02134	e3130001	 tst         r3, #1
  02138	0a00027d	 beq         |$LN23@IST|

; 412  :         bContinue = FALSE;

  0213c	e3a03000	 mov         r3, #0
  02140	e58d3008	 str         r3, [sp, #8]

; 413  :         m_fStalled = FALSE; // Endpoint Zero is auto clear stall condition.

  02144	e59d30d0	 ldr         r3, [sp, #0xD0]
  02148	e283203c	 add         r2, r3, #0x3C
  0214c	e3a03000	 mov         r3, #0
  02150	e5823000	 str         r3, [r2]

; 414  :         UDCCSR udccsr;
; 415  :         udccsr.ulValue = ReadControlStatusRegister();

  02154	e59d00d0	 ldr         r0, [sp, #0xD0]
  02158	eb000000	 bl          |?ReadControlStatusRegister@BulEndpoint@@QAAKXZ|
  0215c	e58d0060	 str         r0, [sp, #0x60]
  02160	e59d3060	 ldr         r3, [sp, #0x60]
  02164	e58d3014	 str         r3, [sp, #0x14]

; 416  :         DEBUGMSG(ZONE_TRANSFER, (_T("Endpoint Zero ReadControlStatusRegister()=0x%x\n"),udccsr.ulValue));

  02168	e59f3a4c	 ldr         r3, [pc, #0xA4C]
  0216c	e5933440	 ldr         r3, [r3, #0x440]
  02170	e3130008	 tst         r3, #8
  02174	0a00000d	 beq         |$LN38@IST|
  02178	e59f3a3c	 ldr         r3, [pc, #0xA3C]
  0217c	e5933440	 ldr         r3, [r3, #0x440]
  02180	e3130801	 tst         r3, #1, 16
  02184	0a000003	 beq         |$LN36@IST|
  02188	e59d1014	 ldr         r1, [sp, #0x14]
  0218c	e59f0a4c	 ldr         r0, [pc, #0xA4C]
  02190	eb000000	 bl          CeLogMsg
  02194	ea000002	 b           |$LN37@IST|
  02198		 |$LN36@IST|
  02198	e59d1014	 ldr         r1, [sp, #0x14]
  0219c	e59f0a3c	 ldr         r0, [pc, #0xA3C]
  021a0	eb000000	 bl          NKDbgPrintfW
  021a4		 |$LN37@IST|
  021a4	e3a03001	 mov         r3, #1
  021a8	e58d3064	 str         r3, [sp, #0x64]
  021ac	ea000001	 b           |$LN39@IST|
  021b0		 |$LN38@IST|
  021b0	e3a03000	 mov         r3, #0
  021b4	e58d3064	 str         r3, [sp, #0x64]
  021b8		 |$LN39@IST|

; 417  :         udccsr.ep0bit.FST = 0;

  021b8	e59d2014	 ldr         r2, [sp, #0x14]
  021bc	e3e03020	 mvn         r3, #0x20
  021c0	e0023003	 and         r3, r2, r3
  021c4	e58d3014	 str         r3, [sp, #0x14]

; 418  :         if (udccsr.ep0bit.SA !=0 && udccsr.ep0bit.OPC==0) {

  021c8	e59d3014	 ldr         r3, [sp, #0x14]
  021cc	e3130080	 tst         r3, #0x80
  021d0	0a000011	 beq         |$LN22@IST|
  021d4	e59d3014	 ldr         r3, [sp, #0x14]
  021d8	e3130001	 tst         r3, #1
  021dc	1a00000e	 bne         |$LN22@IST|

; 419  :             m_pUsbDevice->IncBadSetupCounter();

  021e0	e59d30d0	 ldr         r3, [sp, #0xD0]
  021e4	e283301c	 add         r3, r3, #0x1C
  021e8	e5930000	 ldr         r0, [r3]
  021ec	eb000000	 bl          |?IncBadSetupCounter@BulUsbDevice@@QAAXXZ|

; 420  :             RETAILMSG(1, (_T("Endpoint Zero FAILED SETUP  udccsr=0x%x. Sent STALL \n"),udccsr.ulValue));

  021f0	e59d1014	 ldr         r1, [sp, #0x14]
  021f4	e59f09e0	 ldr         r0, [pc, #0x9E0]
  021f8	eb000000	 bl          NKDbgPrintfW
  021fc	e3a03001	 mov         r3, #1
  02200	e58d3068	 str         r3, [sp, #0x68]
  02204	ea000001	 b           |$LN41@IST|
  02208	e3a03000	 mov         r3, #0
  0220c	e58d3068	 str         r3, [sp, #0x68]
  02210		 |$LN41@IST|

; 421  :             udccsr.ep0bit.FST = 1;

  02210	e59d3014	 ldr         r3, [sp, #0x14]
  02214	e3833020	 orr         r3, r3, #0x20
  02218	e58d3014	 str         r3, [sp, #0x14]
  0221c		 |$LN22@IST|

; 422  :         }
; 423  :         if (udccsr.ep0bit.OPC) {

  0221c	e59d3014	 ldr         r3, [sp, #0x14]
  02220	e3130001	 tst         r3, #1
  02224	0a00015c	 beq         |$LN21@IST|

; 424  :             if ( udccsr.ep0bit.SA ) { // This is setup Packet.

  02228	e59d3014	 ldr         r3, [sp, #0x14]
  0222c	e3130080	 tst         r3, #0x80
  02230	0a0000ba	 beq         |$LN20@IST|

; 425  :                 if (m_pCurTransfer) { // Outstanding transfer.

  02234	e59d30d0	 ldr         r3, [sp, #0xD0]
  02238	e2833034	 add         r3, r3, #0x34
  0223c	e5933000	 ldr         r3, [r3]
  02240	e3530000	 cmp         r3, #0
  02244	0a000026	 beq         |$LN19@IST|

; 426  :                     //DebugBreak();
; 427  :                     DEBUGMSG(ZONE_TRANSFER, (_T("Endpoint Zero Current Transfer Canceled\n")));

  02248	e59f396c	 ldr         r3, [pc, #0x96C]
  0224c	e5933440	 ldr         r3, [r3, #0x440]
  02250	e3130008	 tst         r3, #8
  02254	0a00000b	 beq         |$LN44@IST|
  02258	e59f395c	 ldr         r3, [pc, #0x95C]
  0225c	e5933440	 ldr         r3, [r3, #0x440]
  02260	e3130801	 tst         r3, #1, 16
  02264	0a000002	 beq         |$LN42@IST|
  02268	e59f0968	 ldr         r0, [pc, #0x968]
  0226c	eb000000	 bl          CeLogMsg
  02270	ea000001	 b           |$LN43@IST|
  02274		 |$LN42@IST|
  02274	e59f095c	 ldr         r0, [pc, #0x95C]
  02278	eb000000	 bl          NKDbgPrintfW
  0227c		 |$LN43@IST|
  0227c	e3a03001	 mov         r3, #1
  02280	e58d306c	 str         r3, [sp, #0x6C]
  02284	ea000001	 b           |$LN45@IST|
  02288		 |$LN44@IST|
  02288	e3a03000	 mov         r3, #0
  0228c	e58d306c	 str         r3, [sp, #0x6C]
  02290		 |$LN45@IST|

; 428  :                     WriteControlStatusRegister( udccsr.ulValue);

  02290	e59d1014	 ldr         r1, [sp, #0x14]
  02294	e59d00d0	 ldr         r0, [sp, #0xD0]
  02298	eb000000	 bl          |?WriteControlStatusRegister@BulEndpoint@@QAAXK@Z|

; 429  :                     PSTransfer pTransfer = CompleteTransfer( UFN_CANCELED_ERROR );

  0229c	e3a01c01	 mov         r1, #1, 24
  022a0	e3811001	 orr         r1, r1, #1
  022a4	e59d00d0	 ldr         r0, [sp, #0xD0]
  022a8	eb000000	 bl          |?CompleteTransfer@BulEndpoint@@IAAPAU_STransfer@@K@Z|
  022ac	e58d0070	 str         r0, [sp, #0x70]
  022b0	e59d3070	 ldr         r3, [sp, #0x70]
  022b4	e58d3024	 str         r3, [sp, #0x24]

; 430  :                     Unlock();

  022b8	e59d30d0	 ldr         r3, [sp, #0xD0]
  022bc	e2830008	 add         r0, r3, #8
  022c0	eb000000	 bl          |?Unlock@CLockObject@@QAAXXZ|

; 431  :                     m_pUsbDevice->MddTransferComplete(pTransfer);

  022c4	e59d1024	 ldr         r1, [sp, #0x24]
  022c8	e59d30d0	 ldr         r3, [sp, #0xD0]
  022cc	e283301c	 add         r3, r3, #0x1C
  022d0	e5930000	 ldr         r0, [r3]
  022d4	eb000000	 bl          |?MddTransferComplete@BulUsbDevice@@QAAXPAU_STransfer@@@Z|

; 432  :                     Lock();

  022d8	e59d30d0	 ldr         r3, [sp, #0xD0]
  022dc	e2830008	 add         r0, r3, #8
  022e0	eb000000	 bl          |?Lock@CLockObject@@QAAXXZ|
  022e4		 |$LN19@IST|

; 433  :                 }
; 434  :                 ASSERT(ReadByteCountRegister() == sizeof (USB_DEVICE_REQUEST));

  022e4	e59d00d0	 ldr         r0, [sp, #0xD0]
  022e8	eb000000	 bl          |?ReadByteCountRegister@BulEndpoint@@QAAKXZ|
  022ec	e58d0074	 str         r0, [sp, #0x74]
  022f0	e59d3074	 ldr         r3, [sp, #0x74]
  022f4	e3530008	 cmp         r3, #8
  022f8	1a000002	 bne         |$LN46@IST|
  022fc	e3a03001	 mov         r3, #1
  02300	e58d3078	 str         r3, [sp, #0x78]
  02304	ea000008	 b           |$LN47@IST|
  02308		 |$LN46@IST|
  02308	e3a03c01	 mov         r3, #1, 24
  0230c	e38330b2	 orr         r3, r3, #0xB2
  02310	e59f28b4	 ldr         r2, [pc, #0x8B4]
  02314	e59f18ac	 ldr         r1, [pc, #0x8AC]
  02318	e59f08a4	 ldr         r0, [pc, #0x8A4]
  0231c	eb000000	 bl          NKDbgPrintfW
  02320	e6000010	 __debugbreak_ce
  02324	e3a03000	 mov         r3, #0
  02328	e58d3078	 str         r3, [sp, #0x78]
  0232c		 |$LN47@IST|

; 435  :                 union {
; 436  :                     USB_DEVICE_REQUEST udr;
; 437  :                     DWORD dw8Byte[2];
; 438  :                 };
; 439  :                 dw8Byte[0] = ReadDataRegister();

  0232c	e59d00d0	 ldr         r0, [sp, #0xD0]
  02330	eb000000	 bl          |?ReadDataRegister@BulEndpoint@@QAAKXZ|
  02334	e58d007c	 str         r0, [sp, #0x7C]
  02338	e59d307c	 ldr         r3, [sp, #0x7C]
  0233c	e58d301c	 str         r3, [sp, #0x1C]

; 440  :                 dw8Byte[1] = ReadDataRegister();

  02340	e59d00d0	 ldr         r0, [sp, #0xD0]
  02344	eb000000	 bl          |?ReadDataRegister@BulEndpoint@@QAAKXZ|
  02348	e58d0080	 str         r0, [sp, #0x80]
  0234c	e59d3080	 ldr         r3, [sp, #0x80]
  02350	e58d3020	 str         r3, [sp, #0x20]

; 441  :                 DEBUGMSG(ZONE_TRANSFER, (_T("Endpoint Zero Setup bmRequestType = 0xx%x, bRequest=0x%x, wValue=0x%x,wIndex=0x%x,wLength=0x%x\n"),
; 442  :                     udr.bmRequestType,udr.bRequest,udr.wValue,udr.wIndex,udr.wLength));

  02354	e59f3860	 ldr         r3, [pc, #0x860]
  02358	e5933440	 ldr         r3, [r3, #0x440]
  0235c	e3130008	 tst         r3, #8
  02360	0a000019	 beq         |$LN50@IST|
  02364	e59f3850	 ldr         r3, [pc, #0x850]
  02368	e5933440	 ldr         r3, [r3, #0x440]
  0236c	e3130801	 tst         r3, #1, 16
  02370	0a000009	 beq         |$LN48@IST|
  02374	e1dd32b2	 ldrh        r3, [sp, #0x22]
  02378	e58d3004	 str         r3, [sp, #4]
  0237c	e1dd32b0	 ldrh        r3, [sp, #0x20]
  02380	e58d3000	 str         r3, [sp]
  02384	e1dd31be	 ldrh        r3, [sp, #0x1E]
  02388	e5dd201d	 ldrb        r2, [sp, #0x1D]
  0238c	e5dd101c	 ldrb        r1, [sp, #0x1C]
  02390	e59f083c	 ldr         r0, [pc, #0x83C]
  02394	eb000000	 bl          CeLogMsg
  02398	ea000008	 b           |$LN49@IST|
  0239c		 |$LN48@IST|
  0239c	e1dd32b2	 ldrh        r3, [sp, #0x22]
  023a0	e58d3004	 str         r3, [sp, #4]
  023a4	e1dd32b0	 ldrh        r3, [sp, #0x20]
  023a8	e58d3000	 str         r3, [sp]
  023ac	e1dd31be	 ldrh        r3, [sp, #0x1E]
  023b0	e5dd201d	 ldrb        r2, [sp, #0x1D]
  023b4	e5dd101c	 ldrb        r1, [sp, #0x1C]
  023b8	e59f0814	 ldr         r0, [pc, #0x814]
  023bc	eb000000	 bl          NKDbgPrintfW
  023c0		 |$LN49@IST|
  023c0	e3a03001	 mov         r3, #1
  023c4	e58d3084	 str         r3, [sp, #0x84]
  023c8	ea000001	 b           |$LN51@IST|
  023cc		 |$LN50@IST|
  023cc	e3a03000	 mov         r3, #0
  023d0	e58d3084	 str         r3, [sp, #0x84]
  023d4		 |$LN51@IST|

; 443  :                 
; 444  :                 if (m_bNeedAck) { // Previous setup haven't ack yet. Disable Interrupt and wait for the Ack.

  023d4	e59d30d0	 ldr         r3, [sp, #0xD0]
  023d8	e2833040	 add         r3, r3, #0x40
  023dc	e5933000	 ldr         r3, [r3]
  023e0	e3530000	 cmp         r3, #0
  023e4	0a000027	 beq         |$LN18@IST|

; 445  :                     m_pUsbDevice->EnableEndpointInterrupt(m_dwEndpointIndex,FALSE);

  023e8	e3a02000	 mov         r2, #0
  023ec	e59d30d0	 ldr         r3, [sp, #0xD0]
  023f0	e2833020	 add         r3, r3, #0x20
  023f4	e5931000	 ldr         r1, [r3]
  023f8	e59d30d0	 ldr         r3, [sp, #0xD0]
  023fc	e283301c	 add         r3, r3, #0x1C
  02400	e5930000	 ldr         r0, [r3]
  02404	eb000000	 bl          |?EnableEndpointInterrupt@BulUsbDevice@@QAAHKH@Z|

; 446  :                     DEBUGMSG(ZONE_TRANSFER, (_T("Endpoint Zero Disable Interrupt")));

  02408	e59f37ac	 ldr         r3, [pc, #0x7AC]
  0240c	e5933440	 ldr         r3, [r3, #0x440]
  02410	e3130008	 tst         r3, #8
  02414	0a00000b	 beq         |$LN54@IST|
  02418	e59f379c	 ldr         r3, [pc, #0x79C]
  0241c	e5933440	 ldr         r3, [r3, #0x440]
  02420	e3130801	 tst         r3, #1, 16
  02424	0a000002	 beq         |$LN52@IST|
  02428	e59f07a0	 ldr         r0, [pc, #0x7A0]
  0242c	eb000000	 bl          CeLogMsg
  02430	ea000001	 b           |$LN53@IST|
  02434		 |$LN52@IST|
  02434	e59f0794	 ldr         r0, [pc, #0x794]
  02438	eb000000	 bl          NKDbgPrintfW
  0243c		 |$LN53@IST|
  0243c	e3a03001	 mov         r3, #1
  02440	e58d3088	 str         r3, [sp, #0x88]
  02444	ea000001	 b           |$LN55@IST|
  02448		 |$LN54@IST|
  02448	e3a03000	 mov         r3, #0
  0244c	e58d3088	 str         r3, [sp, #0x88]
  02450		 |$LN55@IST|

; 447  :                     m_fBackedudr = TRUE;

  02450	e59d30d0	 ldr         r3, [sp, #0xD0]
  02454	e283205c	 add         r2, r3, #0x5C
  02458	e3a03001	 mov         r3, #1
  0245c	e5823000	 str         r3, [r2]

; 448  :                     m_backup_udr = udr;

  02460	e59d30d0	 ldr         r3, [sp, #0xD0]
  02464	e283004c	 add         r0, r3, #0x4C
  02468	e28d101c	 add         r1, sp, #0x1C
  0246c	e3a02008	 mov         r2, #8
  02470	eb000000	 bl          memcpy

; 449  :                     WriteControlStatusRegister( udccsr.ulValue);

  02474	e59d1014	 ldr         r1, [sp, #0x14]
  02478	e59d00d0	 ldr         r0, [sp, #0xD0]
  0247c	eb000000	 bl          |?WriteControlStatusRegister@BulEndpoint@@QAAXK@Z|

; 450  :                    continue;

  02480	eaffff27	 b           |$LN24@IST|

; 451  :                 }
; 452  :                 else {

  02484	ea000023	 b           |$LN17@IST|
  02488		 |$LN18@IST|

; 453  :                     m_bNeedAck = TRUE;

  02488	e59d30d0	 ldr         r3, [sp, #0xD0]
  0248c	e2832040	 add         r2, r3, #0x40
  02490	e3a03001	 mov         r3, #1
  02494	e5823000	 str         r3, [r2]

; 454  :                     m_bSetupDirIn = ((udr.bmRequestType & USB_REQUEST_DEVICE_TO_HOST)!=0?TRUE:FALSE);

  02498	e5dd301c	 ldrb        r3, [sp, #0x1C]
  0249c	e3130080	 tst         r3, #0x80
  024a0	0a000002	 beq         |$LN56@IST|
  024a4	e3a03001	 mov         r3, #1
  024a8	e58d308c	 str         r3, [sp, #0x8C]
  024ac	ea000001	 b           |$LN57@IST|
  024b0		 |$LN56@IST|
  024b0	e3a03000	 mov         r3, #0
  024b4	e58d308c	 str         r3, [sp, #0x8C]
  024b8		 |$LN57@IST|
  024b8	e59d30d0	 ldr         r3, [sp, #0xD0]
  024bc	e2832044	 add         r2, r3, #0x44
  024c0	e59d308c	 ldr         r3, [sp, #0x8C]
  024c4	e5823000	 str         r3, [r2]

; 455  :                     bContinue = TRUE ;

  024c8	e3a03001	 mov         r3, #1
  024cc	e58d3008	 str         r3, [sp, #8]

; 456  :                     m_fZeroPacket = FALSE;

  024d0	e59d30d0	 ldr         r3, [sp, #0xD0]
  024d4	e2832038	 add         r2, r3, #0x38
  024d8	e3a03000	 mov         r3, #0
  024dc	e5823000	 str         r3, [r2]

; 457  :                     m_cur_udr = udr ;

  024e0	e59d30d0	 ldr         r3, [sp, #0xD0]
  024e4	e2830054	 add         r0, r3, #0x54
  024e8	e28d101c	 add         r1, sp, #0x1C
  024ec	e3a02008	 mov         r2, #8
  024f0	eb000000	 bl          memcpy

; 458  :                     WriteControlStatusRegister( udccsr.ulValue);

  024f4	e59d1014	 ldr         r1, [sp, #0x14]
  024f8	e59d00d0	 ldr         r0, [sp, #0xD0]
  024fc	eb000000	 bl          |?WriteControlStatusRegister@BulEndpoint@@QAAXK@Z|

; 459  :                     m_pUsbDevice->DeviceNotification(UFN_MSG_SETUP_PACKET, (DWORD) &udr);

  02500	e28d201c	 add         r2, sp, #0x1C
  02504	e3a01004	 mov         r1, #4
  02508	e59d30d0	 ldr         r3, [sp, #0xD0]
  0250c	e283301c	 add         r3, r3, #0x1C
  02510	e5930000	 ldr         r0, [r3]
  02514	eb000000	 bl          |?DeviceNotification@BulUsbDevice@@QAAHKK@Z|
  02518		 |$LN17@IST|

; 460  :                 }

  02518	eaffff01	 b           |$LN78@IST|

; 461  :                 continue;

  0251c	ea00009e	 b           |$LN16@IST|
  02520		 |$LN20@IST|

; 462  :             }
; 463  :             else if ( ReadByteCountRegister() == 0 ) { // ACK from Host.

  02520	e59d00d0	 ldr         r0, [sp, #0xD0]
  02524	eb000000	 bl          |?ReadByteCountRegister@BulEndpoint@@QAAKXZ|
  02528	e58d0090	 str         r0, [sp, #0x90]
  0252c	e59d3090	 ldr         r3, [sp, #0x90]
  02530	e3530000	 cmp         r3, #0
  02534	1a000002	 bne         |$LN15@IST|

; 464  :                 bContinue = TRUE; 

  02538	e3a03001	 mov         r3, #1
  0253c	e58d3008	 str         r3, [sp, #8]
  02540	ea000095	 b           |$LN14@IST|
  02544		 |$LN15@IST|

; 465  :             }
; 466  :             else if (m_pCurTransfer ) {

  02544	e59d30d0	 ldr         r3, [sp, #0xD0]
  02548	e2833034	 add         r3, r3, #0x34
  0254c	e5933000	 ldr         r3, [r3]
  02550	e3530000	 cmp         r3, #0
  02554	0a00008c	 beq         |$LN13@IST|

; 467  :                 if((m_pCurTransfer->dwFlags & USB_IN_TRANSFER)==0) { // Out Data.

  02558	e59d30d0	 ldr         r3, [sp, #0xD0]
  0255c	e2833034	 add         r3, r3, #0x34
  02560	e5933000	 ldr         r3, [r3]
  02564	e5933000	 ldr         r3, [r3]
  02568	e3130080	 tst         r3, #0x80
  0256c	1a000082	 bne         |$LN12@IST|

; 468  :                     BOOL bComplete =  (ReadByteCountRegister()<m_epDesc.wMaxPacketSize);

  02570	e59d00d0	 ldr         r0, [sp, #0xD0]
  02574	eb000000	 bl          |?ReadByteCountRegister@BulEndpoint@@QAAKXZ|
  02578	e58d0094	 str         r0, [sp, #0x94]
  0257c	e59d30d0	 ldr         r3, [sp, #0xD0]
  02580	e2831028	 add         r1, r3, #0x28
  02584	e5d13001	 ldrb        r3, [r1, #1]
  02588	e1a03403	 mov         r3, r3, lsl #8
  0258c	e1a02803	 mov         r2, r3, lsl #16
  02590	e1a02822	 mov         r2, r2, lsr #16
  02594	e5d13000	 ldrb        r3, [r1]
  02598	e1832002	 orr         r2, r3, r2
  0259c	e59d3094	 ldr         r3, [sp, #0x94]
  025a0	e1530002	 cmp         r3, r2
  025a4	2a000002	 bcs         |$LN58@IST|
  025a8	e3a03001	 mov         r3, #1
  025ac	e58d3098	 str         r3, [sp, #0x98]
  025b0	ea000001	 b           |$LN59@IST|
  025b4		 |$LN58@IST|
  025b4	e3a03000	 mov         r3, #0
  025b8	e58d3098	 str         r3, [sp, #0x98]
  025bc		 |$LN59@IST|
  025bc	e59d3098	 ldr         r3, [sp, #0x98]
  025c0	e58d302c	 str         r3, [sp, #0x2C]

; 469  :                     DWORD dwSize = (m_pCurTransfer->cbTransferred< m_pCurTransfer->cbBuffer? m_pCurTransfer->cbBuffer-m_pCurTransfer->cbTransferred: 0);

  025c4	e59d30d0	 ldr         r3, [sp, #0xD0]
  025c8	e2833034	 add         r3, r3, #0x34
  025cc	e5933000	 ldr         r3, [r3]
  025d0	e2832010	 add         r2, r3, #0x10
  025d4	e59d30d0	 ldr         r3, [sp, #0xD0]
  025d8	e2833034	 add         r3, r3, #0x34
  025dc	e5933000	 ldr         r3, [r3]
  025e0	e283300c	 add         r3, r3, #0xC
  025e4	e5922000	 ldr         r2, [r2]
  025e8	e5933000	 ldr         r3, [r3]
  025ec	e1520003	 cmp         r2, r3
  025f0	2a00000c	 bcs         |$LN60@IST|
  025f4	e59d30d0	 ldr         r3, [sp, #0xD0]
  025f8	e2833034	 add         r3, r3, #0x34
  025fc	e5933000	 ldr         r3, [r3]
  02600	e283200c	 add         r2, r3, #0xC
  02604	e59d30d0	 ldr         r3, [sp, #0xD0]
  02608	e2833034	 add         r3, r3, #0x34
  0260c	e5933000	 ldr         r3, [r3]
  02610	e2833010	 add         r3, r3, #0x10
  02614	e5922000	 ldr         r2, [r2]
  02618	e5933000	 ldr         r3, [r3]
  0261c	e0423003	 sub         r3, r2, r3
  02620	e58d309c	 str         r3, [sp, #0x9C]
  02624	ea000001	 b           |$LN61@IST|
  02628		 |$LN60@IST|
  02628	e3a03000	 mov         r3, #0
  0262c	e58d309c	 str         r3, [sp, #0x9C]
  02630		 |$LN61@IST|
  02630	e59d309c	 ldr         r3, [sp, #0x9C]
  02634	e58d3028	 str         r3, [sp, #0x28]

; 470  :                     if (dwSize!=0) {

  02638	e59d3028	 ldr         r3, [sp, #0x28]
  0263c	e3530000	 cmp         r3, #0
  02640	0a00001c	 beq         |$LN11@IST|

; 471  :                         dwSize= ReceiveData((PBYTE)m_pCurTransfer->pvBuffer + m_pCurTransfer->cbTransferred , dwSize);

  02644	e59d2028	 ldr         r2, [sp, #0x28]
  02648	e59d30d0	 ldr         r3, [sp, #0xD0]
  0264c	e2833034	 add         r3, r3, #0x34
  02650	e5933000	 ldr         r3, [r3]
  02654	e2831004	 add         r1, r3, #4
  02658	e59d30d0	 ldr         r3, [sp, #0xD0]
  0265c	e2833034	 add         r3, r3, #0x34
  02660	e5933000	 ldr         r3, [r3]
  02664	e2833010	 add         r3, r3, #0x10
  02668	e5911000	 ldr         r1, [r1]
  0266c	e5933000	 ldr         r3, [r3]
  02670	e0811003	 add         r1, r1, r3
  02674	e59d00d0	 ldr         r0, [sp, #0xD0]
  02678	eb000000	 bl          |?ReceiveData@BulEndpoint@@IAAKPAEK@Z|
  0267c	e58d00a0	 str         r0, [sp, #0xA0]
  02680	e59d30a0	 ldr         r3, [sp, #0xA0]
  02684	e58d3028	 str         r3, [sp, #0x28]

; 472  :                         m_pCurTransfer->cbTransferred += dwSize;

  02688	e59d30d0	 ldr         r3, [sp, #0xD0]
  0268c	e2833034	 add         r3, r3, #0x34
  02690	e5933000	 ldr         r3, [r3]
  02694	e2833010	 add         r3, r3, #0x10
  02698	e5932000	 ldr         r2, [r3]
  0269c	e59d3028	 ldr         r3, [sp, #0x28]
  026a0	e0822003	 add         r2, r2, r3
  026a4	e59d30d0	 ldr         r3, [sp, #0xD0]
  026a8	e2833034	 add         r3, r3, #0x34
  026ac	e5933000	 ldr         r3, [r3]
  026b0	e2833010	 add         r3, r3, #0x10
  026b4	e5832000	 str         r2, [r3]
  026b8		 |$LN11@IST|

; 473  :                     }
; 474  : 
; 475  :                     bComplete = (bComplete || (m_pCurTransfer->cbTransferred>= m_pCurTransfer->cbBuffer));

  026b8	e59d302c	 ldr         r3, [sp, #0x2C]
  026bc	e3530000	 cmp         r3, #0
  026c0	1a00000e	 bne         |$LN62@IST|
  026c4	e59d30d0	 ldr         r3, [sp, #0xD0]
  026c8	e2833034	 add         r3, r3, #0x34
  026cc	e5933000	 ldr         r3, [r3]
  026d0	e2832010	 add         r2, r3, #0x10
  026d4	e59d30d0	 ldr         r3, [sp, #0xD0]
  026d8	e2833034	 add         r3, r3, #0x34
  026dc	e5933000	 ldr         r3, [r3]
  026e0	e283300c	 add         r3, r3, #0xC
  026e4	e5922000	 ldr         r2, [r2]
  026e8	e5933000	 ldr         r3, [r3]
  026ec	e1520003	 cmp         r2, r3
  026f0	2a000002	 bcs         |$LN62@IST|
  026f4	e3a03000	 mov         r3, #0
  026f8	e58d30a4	 str         r3, [sp, #0xA4]
  026fc	ea000001	 b           |$LN63@IST|
  02700		 |$LN62@IST|
  02700	e3a03001	 mov         r3, #1
  02704	e58d30a4	 str         r3, [sp, #0xA4]
  02708		 |$LN63@IST|
  02708	e59d30a4	 ldr         r3, [sp, #0xA4]
  0270c	e58d302c	 str         r3, [sp, #0x2C]

; 476  :                     // Check for the completeion.
; 477  :                     if ( bComplete ) {

  02710	e59d302c	 ldr         r3, [sp, #0x2C]
  02714	e3530000	 cmp         r3, #0
  02718	0a000016	 beq         |$LN10@IST|

; 478  :                         WriteControlStatusRegister( udccsr.ulValue);

  0271c	e59d1014	 ldr         r1, [sp, #0x14]
  02720	e59d00d0	 ldr         r0, [sp, #0xD0]
  02724	eb000000	 bl          |?WriteControlStatusRegister@BulEndpoint@@QAAXK@Z|

; 479  :                         PSTransfer pTransfer =CompleteTransfer(UFN_NO_ERROR);

  02728	e3a01000	 mov         r1, #0
  0272c	e59d00d0	 ldr         r0, [sp, #0xD0]
  02730	eb000000	 bl          |?CompleteTransfer@BulEndpoint@@IAAPAU_STransfer@@K@Z|
  02734	e58d00a8	 str         r0, [sp, #0xA8]
  02738	e59d30a8	 ldr         r3, [sp, #0xA8]
  0273c	e58d3030	 str         r3, [sp, #0x30]

; 480  :                         bContinue = TRUE;

  02740	e3a03001	 mov         r3, #1
  02744	e58d3008	 str         r3, [sp, #8]

; 481  :                         Unlock();

  02748	e59d30d0	 ldr         r3, [sp, #0xD0]
  0274c	e2830008	 add         r0, r3, #8
  02750	eb000000	 bl          |?Unlock@CLockObject@@QAAXXZ|

; 482  :                         m_pUsbDevice->MddTransferComplete(pTransfer);

  02754	e59d1030	 ldr         r1, [sp, #0x30]
  02758	e59d30d0	 ldr         r3, [sp, #0xD0]
  0275c	e283301c	 add         r3, r3, #0x1C
  02760	e5930000	 ldr         r0, [r3]
  02764	eb000000	 bl          |?MddTransferComplete@BulUsbDevice@@QAAXPAU_STransfer@@@Z|

; 483  :                         Lock();

  02768	e59d30d0	 ldr         r3, [sp, #0xD0]
  0276c	e2830008	 add         r0, r3, #8
  02770	eb000000	 bl          |?Lock@CLockObject@@QAAXXZ|

; 484  :                         continue;

  02774	eafffe6a	 b           |$LN79@IST|
  02778		 |$LN10@IST|

; 485  :                     }
; 486  :                 }
; 487  :                 else { // Error

  02778	ea000002	 b           |$LN9@IST|
  0277c		 |$LN12@IST|

; 488  :                     udccsr.ep0bit.FST = 1;

  0277c	e59d3014	 ldr         r3, [sp, #0x14]
  02780	e3833020	 orr         r3, r3, #0x20
  02784	e58d3014	 str         r3, [sp, #0x14]
  02788		 |$LN9@IST|

; 489  :                 }
; 490  :             }
; 491  :             else { // Transfer Not queue yet. 

  02788	ea000003	 b           |$LN8@IST|
  0278c		 |$LN13@IST|

; 492  :                 //m_pUsbDevice->EnableEndpointInterrupt(m_dwEndpointIndex,FALSE);
; 493  :                 // Do not clean OPC
; 494  :                 udccsr.ep0bit.OPC = 0;

  0278c	e59d2014	 ldr         r2, [sp, #0x14]
  02790	e3e03001	 mvn         r3, #1
  02794	e0023003	 and         r3, r2, r3
  02798	e58d3014	 str         r3, [sp, #0x14]
  0279c		 |$LN8@IST|
  0279c		 |$LN14@IST|
  0279c		 |$LN16@IST|
  0279c		 |$LN21@IST|

; 495  :             }
; 496  : 
; 497  :         }
; 498  :         
; 499  :         if (udccsr.ep0bit.IPR==0 ) {

  0279c	e59d3014	 ldr         r3, [sp, #0x14]
  027a0	e3130002	 tst         r3, #2
  027a4	1a000094	 bne         |$LN7@IST|

; 500  :         // Because the Ep0 is half duplex. We assume the direction is correct.
; 501  :             if (m_pCurTransfer && (m_pCurTransfer->dwFlags & USB_IN_TRANSFER)!=0 &&
; 502  :                     m_pCurTransfer->cbTransferred <= m_pCurTransfer->cbBuffer) {

  027a8	e59d30d0	 ldr         r3, [sp, #0xD0]
  027ac	e2833034	 add         r3, r3, #0x34
  027b0	e5933000	 ldr         r3, [r3]
  027b4	e3530000	 cmp         r3, #0
  027b8	0a00008e	 beq         |$LN6@IST|
  027bc	e59d30d0	 ldr         r3, [sp, #0xD0]
  027c0	e2833034	 add         r3, r3, #0x34
  027c4	e5933000	 ldr         r3, [r3]
  027c8	e5933000	 ldr         r3, [r3]
  027cc	e3130080	 tst         r3, #0x80
  027d0	0a000088	 beq         |$LN6@IST|
  027d4	e59d30d0	 ldr         r3, [sp, #0xD0]
  027d8	e2833034	 add         r3, r3, #0x34
  027dc	e5933000	 ldr         r3, [r3]
  027e0	e2832010	 add         r2, r3, #0x10
  027e4	e59d30d0	 ldr         r3, [sp, #0xD0]
  027e8	e2833034	 add         r3, r3, #0x34
  027ec	e5933000	 ldr         r3, [r3]
  027f0	e283300c	 add         r3, r3, #0xC
  027f4	e5922000	 ldr         r2, [r2]
  027f8	e5933000	 ldr         r3, [r3]
  027fc	e1520003	 cmp         r2, r3
  02800	8a00007c	 bhi         |$LN6@IST|

; 503  :                 DWORD dwTotalData = m_pCurTransfer->cbBuffer - m_pCurTransfer->cbTransferred ;

  02804	e59d30d0	 ldr         r3, [sp, #0xD0]
  02808	e2833034	 add         r3, r3, #0x34
  0280c	e5933000	 ldr         r3, [r3]
  02810	e283200c	 add         r2, r3, #0xC
  02814	e59d30d0	 ldr         r3, [sp, #0xD0]
  02818	e2833034	 add         r3, r3, #0x34
  0281c	e5933000	 ldr         r3, [r3]
  02820	e2833010	 add         r3, r3, #0x10
  02824	e5922000	 ldr         r2, [r2]
  02828	e5933000	 ldr         r3, [r3]
  0282c	e0423003	 sub         r3, r2, r3
  02830	e58d3038	 str         r3, [sp, #0x38]

; 504  :                 dwTotalData = min (dwTotalData,m_epDesc.wMaxPacketSize) ;

  02834	e59d30d0	 ldr         r3, [sp, #0xD0]
  02838	e2831028	 add         r1, r3, #0x28
  0283c	e5d13001	 ldrb        r3, [r1, #1]
  02840	e1a03403	 mov         r3, r3, lsl #8
  02844	e1a02803	 mov         r2, r3, lsl #16
  02848	e1a02822	 mov         r2, r2, lsr #16
  0284c	e5d13000	 ldrb        r3, [r1]
  02850	e1832002	 orr         r2, r3, r2
  02854	e59d3038	 ldr         r3, [sp, #0x38]
  02858	e1530002	 cmp         r3, r2
  0285c	2a000002	 bcs         |$LN64@IST|
  02860	e59d3038	 ldr         r3, [sp, #0x38]
  02864	e58d30ac	 str         r3, [sp, #0xAC]
  02868	ea000008	 b           |$LN65@IST|
  0286c		 |$LN64@IST|
  0286c	e59d30d0	 ldr         r3, [sp, #0xD0]
  02870	e2831028	 add         r1, r3, #0x28
  02874	e5d13001	 ldrb        r3, [r1, #1]
  02878	e1a03403	 mov         r3, r3, lsl #8
  0287c	e1a02803	 mov         r2, r3, lsl #16
  02880	e1a02822	 mov         r2, r2, lsr #16
  02884	e5d13000	 ldrb        r3, [r1]
  02888	e1833002	 orr         r3, r3, r2
  0288c	e58d30ac	 str         r3, [sp, #0xAC]
  02890		 |$LN65@IST|
  02890	e59d30ac	 ldr         r3, [sp, #0xAC]
  02894	e58d3038	 str         r3, [sp, #0x38]

; 505  :                 // Spec 12.5.5
; 506  :                 DWORD dwReturn = XmitData(((PBYTE)m_pCurTransfer->pvBuffer)+ m_pCurTransfer->cbTransferred, dwTotalData );

  02898	e59d2038	 ldr         r2, [sp, #0x38]
  0289c	e59d30d0	 ldr         r3, [sp, #0xD0]
  028a0	e2833034	 add         r3, r3, #0x34
  028a4	e5933000	 ldr         r3, [r3]
  028a8	e2831004	 add         r1, r3, #4
  028ac	e59d30d0	 ldr         r3, [sp, #0xD0]
  028b0	e2833034	 add         r3, r3, #0x34
  028b4	e5933000	 ldr         r3, [r3]
  028b8	e2833010	 add         r3, r3, #0x10
  028bc	e5911000	 ldr         r1, [r1]
  028c0	e5933000	 ldr         r3, [r3]
  028c4	e0811003	 add         r1, r1, r3
  028c8	e59d00d0	 ldr         r0, [sp, #0xD0]
  028cc	eb000000	 bl          |?XmitData@BulEndpoint@@IAAKPAEK@Z|
  028d0	e58d00b0	 str         r0, [sp, #0xB0]
  028d4	e59d30b0	 ldr         r3, [sp, #0xB0]
  028d8	e58d3034	 str         r3, [sp, #0x34]

; 507  :                 ASSERT(dwReturn == dwTotalData);

  028dc	e59d2034	 ldr         r2, [sp, #0x34]
  028e0	e59d3038	 ldr         r3, [sp, #0x38]
  028e4	e1520003	 cmp         r2, r3
  028e8	1a000002	 bne         |$LN66@IST|
  028ec	e3a03001	 mov         r3, #1
  028f0	e58d30b4	 str         r3, [sp, #0xB4]
  028f4	ea000008	 b           |$LN67@IST|
  028f8		 |$LN66@IST|
  028f8	e3a03c01	 mov         r3, #1, 24
  028fc	e38330fb	 orr         r3, r3, #0xFB
  02900	e59f22c4	 ldr         r2, [pc, #0x2C4]
  02904	e59f12bc	 ldr         r1, [pc, #0x2BC]
  02908	e59f02b4	 ldr         r0, [pc, #0x2B4]
  0290c	eb000000	 bl          NKDbgPrintfW
  02910	e6000010	 __debugbreak_ce
  02914	e3a03000	 mov         r3, #0
  02918	e58d30b4	 str         r3, [sp, #0xB4]
  0291c		 |$LN67@IST|

; 508  :                 m_pCurTransfer->cbTransferred += dwReturn;

  0291c	e59d30d0	 ldr         r3, [sp, #0xD0]
  02920	e2833034	 add         r3, r3, #0x34
  02924	e5933000	 ldr         r3, [r3]
  02928	e2833010	 add         r3, r3, #0x10
  0292c	e5932000	 ldr         r2, [r3]
  02930	e59d3034	 ldr         r3, [sp, #0x34]
  02934	e0822003	 add         r2, r2, r3
  02938	e59d30d0	 ldr         r3, [sp, #0xD0]
  0293c	e2833034	 add         r3, r3, #0x34
  02940	e5933000	 ldr         r3, [r3]
  02944	e2833010	 add         r3, r3, #0x10
  02948	e5832000	 str         r2, [r3]

; 509  :                 if (dwTotalData< m_epDesc.wMaxPacketSize) {

  0294c	e59d30d0	 ldr         r3, [sp, #0xD0]
  02950	e2831028	 add         r1, r3, #0x28
  02954	e5d13001	 ldrb        r3, [r1, #1]
  02958	e1a03403	 mov         r3, r3, lsl #8
  0295c	e1a02803	 mov         r2, r3, lsl #16
  02960	e1a02822	 mov         r2, r2, lsr #16
  02964	e5d13000	 ldrb        r3, [r1]
  02968	e1832002	 orr         r2, r3, r2
  0296c	e59d3038	 ldr         r3, [sp, #0x38]
  02970	e1530002	 cmp         r3, r2
  02974	2a000007	 bcs         |$LN5@IST|

; 510  :                     udccsr.ep0bit.IPR = 1;

  02978	e59d3014	 ldr         r3, [sp, #0x14]
  0297c	e3833002	 orr         r3, r3, #2
  02980	e58d3014	 str         r3, [sp, #0x14]

; 511  :                     m_fZeroPacket = FALSE;

  02984	e59d30d0	 ldr         r3, [sp, #0xD0]
  02988	e2832038	 add         r2, r3, #0x38
  0298c	e3a03000	 mov         r3, #0
  02990	e5823000	 str         r3, [r2]

; 512  :                 }
; 513  :                 else 

  02994	ea000017	 b           |$LN4@IST|
  02998		 |$LN5@IST|

; 514  :                     m_fZeroPacket = (m_cur_udr.wLength > m_pCurTransfer->cbTransferred);

  02998	e59d30d0	 ldr         r3, [sp, #0xD0]
  0299c	e283105a	 add         r1, r3, #0x5A
  029a0	e5d13001	 ldrb        r3, [r1, #1]
  029a4	e1a03403	 mov         r3, r3, lsl #8
  029a8	e1a02803	 mov         r2, r3, lsl #16
  029ac	e1a02822	 mov         r2, r2, lsr #16
  029b0	e5d13000	 ldrb        r3, [r1]
  029b4	e1832002	 orr         r2, r3, r2
  029b8	e59d30d0	 ldr         r3, [sp, #0xD0]
  029bc	e2833034	 add         r3, r3, #0x34
  029c0	e5933000	 ldr         r3, [r3]
  029c4	e2833010	 add         r3, r3, #0x10
  029c8	e5933000	 ldr         r3, [r3]
  029cc	e1520003	 cmp         r2, r3
  029d0	9a000002	 bls         |$LN68@IST|
  029d4	e3a03001	 mov         r3, #1
  029d8	e58d30b8	 str         r3, [sp, #0xB8]
  029dc	ea000001	 b           |$LN69@IST|
  029e0		 |$LN68@IST|
  029e0	e3a03000	 mov         r3, #0
  029e4	e58d30b8	 str         r3, [sp, #0xB8]
  029e8		 |$LN69@IST|
  029e8	e59d30d0	 ldr         r3, [sp, #0xD0]
  029ec	e2832038	 add         r2, r3, #0x38
  029f0	e59d30b8	 ldr         r3, [sp, #0xB8]
  029f4	e5823000	 str         r3, [r2]
  029f8		 |$LN4@IST|
  029f8		 |$LN6@IST|

; 515  :             }
; 516  :         }
; 517  :         else 

  029f8	ea000003	 b           |$LN3@IST|
  029fc		 |$LN7@IST|

; 518  :             udccsr.ep0bit.IPR = 0 ; // Do not set when there is packet.

  029fc	e59d2014	 ldr         r2, [sp, #0x14]
  02a00	e3e03002	 mvn         r3, #2
  02a04	e0023003	 and         r3, r2, r3
  02a08	e58d3014	 str         r3, [sp, #0x14]
  02a0c		 |$LN3@IST|

; 519  :             
; 520  :         if (udccsr.ep0bit.SST) { // Stall happens.

  02a0c	e59d3014	 ldr         r3, [sp, #0x14]
  02a10	e3130010	 tst         r3, #0x10
  02a14	0a00001b	 beq         |$LN2@IST|

; 521  :             m_pUsbDevice->IncEp0StallCounter() ;

  02a18	e59d30d0	 ldr         r3, [sp, #0xD0]
  02a1c	e283301c	 add         r3, r3, #0x1C
  02a20	e5930000	 ldr         r0, [r3]
  02a24	eb000000	 bl          |?IncEp0StallCounter@BulUsbDevice@@QAAXXZ|

; 522  :             DEBUGMSG(ZONE_TRANSFER, (_T("Stall Sent on Zero endpoint =0x%x"),m_dwEndpointIndex));

  02a28	e59f318c	 ldr         r3, [pc, #0x18C]
  02a2c	e5933440	 ldr         r3, [r3, #0x440]
  02a30	e3130008	 tst         r3, #8
  02a34	0a000011	 beq         |$LN72@IST|
  02a38	e59f317c	 ldr         r3, [pc, #0x17C]
  02a3c	e5933440	 ldr         r3, [r3, #0x440]
  02a40	e3130801	 tst         r3, #1, 16
  02a44	0a000005	 beq         |$LN70@IST|
  02a48	e59d30d0	 ldr         r3, [sp, #0xD0]
  02a4c	e2833020	 add         r3, r3, #0x20
  02a50	e5931000	 ldr         r1, [r3]
  02a54	e59f0164	 ldr         r0, [pc, #0x164]
  02a58	eb000000	 bl          CeLogMsg
  02a5c	ea000004	 b           |$LN71@IST|
  02a60		 |$LN70@IST|
  02a60	e59d30d0	 ldr         r3, [sp, #0xD0]
  02a64	e2833020	 add         r3, r3, #0x20
  02a68	e5931000	 ldr         r1, [r3]
  02a6c	e59f014c	 ldr         r0, [pc, #0x14C]
  02a70	eb000000	 bl          NKDbgPrintfW
  02a74		 |$LN71@IST|
  02a74	e3a03001	 mov         r3, #1
  02a78	e58d30bc	 str         r3, [sp, #0xBC]
  02a7c	ea000001	 b           |$LN73@IST|
  02a80		 |$LN72@IST|
  02a80	e3a03000	 mov         r3, #0
  02a84	e58d30bc	 str         r3, [sp, #0xBC]
  02a88		 |$LN73@IST|
  02a88		 |$LN2@IST|

; 523  :         }
; 524  :         // Clean the status.
; 525  :         WriteControlStatusRegister( udccsr.ulValue);

  02a88	e59d1014	 ldr         r1, [sp, #0x14]
  02a8c	e59d00d0	 ldr         r0, [sp, #0xD0]
  02a90	eb000000	 bl          |?WriteControlStatusRegister@BulEndpoint@@QAAXK@Z|

; 526  :         if (m_pCurTransfer &&m_pCurTransfer->cbTransferred >= m_pCurTransfer->cbBuffer && !m_fZeroPacket ) {// Complete anyway

  02a94	e59d30d0	 ldr         r3, [sp, #0xD0]
  02a98	e2833034	 add         r3, r3, #0x34
  02a9c	e5933000	 ldr         r3, [r3]
  02aa0	e3530000	 cmp         r3, #0
  02aa4	0a000021	 beq         |$LN1@IST|
  02aa8	e59d30d0	 ldr         r3, [sp, #0xD0]
  02aac	e2833034	 add         r3, r3, #0x34
  02ab0	e5933000	 ldr         r3, [r3]
  02ab4	e2832010	 add         r2, r3, #0x10
  02ab8	e59d30d0	 ldr         r3, [sp, #0xD0]
  02abc	e2833034	 add         r3, r3, #0x34
  02ac0	e5933000	 ldr         r3, [r3]
  02ac4	e283300c	 add         r3, r3, #0xC
  02ac8	e5922000	 ldr         r2, [r2]
  02acc	e5933000	 ldr         r3, [r3]
  02ad0	e1520003	 cmp         r2, r3
  02ad4	3a000015	 bcc         |$LN1@IST|
  02ad8	e59d30d0	 ldr         r3, [sp, #0xD0]
  02adc	e2833038	 add         r3, r3, #0x38
  02ae0	e5933000	 ldr         r3, [r3]
  02ae4	e3530000	 cmp         r3, #0
  02ae8	1a000010	 bne         |$LN1@IST|

; 527  :             PSTransfer pTransfer = CompleteTransfer(UFN_NO_ERROR);

  02aec	e3a01000	 mov         r1, #0
  02af0	e59d00d0	 ldr         r0, [sp, #0xD0]
  02af4	eb000000	 bl          |?CompleteTransfer@BulEndpoint@@IAAPAU_STransfer@@K@Z|
  02af8	e58d00c0	 str         r0, [sp, #0xC0]
  02afc	e59d30c0	 ldr         r3, [sp, #0xC0]
  02b00	e58d303c	 str         r3, [sp, #0x3C]

; 528  :             Unlock();

  02b04	e59d30d0	 ldr         r3, [sp, #0xD0]
  02b08	e2830008	 add         r0, r3, #8
  02b0c	eb000000	 bl          |?Unlock@CLockObject@@QAAXXZ|

; 529  :             m_pUsbDevice->MddTransferComplete(pTransfer);

  02b10	e59d103c	 ldr         r1, [sp, #0x3C]
  02b14	e59d30d0	 ldr         r3, [sp, #0xD0]
  02b18	e283301c	 add         r3, r3, #0x1C
  02b1c	e5930000	 ldr         r0, [r3]
  02b20	eb000000	 bl          |?MddTransferComplete@BulUsbDevice@@QAAXPAU_STransfer@@@Z|

; 530  :             Lock();            

  02b24	e59d30d0	 ldr         r3, [sp, #0xD0]
  02b28	e2830008	 add         r0, r3, #8
  02b2c	eb000000	 bl          |?Lock@CLockObject@@QAAXXZ|
  02b30		 |$LN1@IST|

; 531  :         }
; 532  :         
; 533  :     }

  02b30	eafffd7b	 b           |$LN80@IST|
  02b34		 |$LN23@IST|

; 534  :     m_fInIST = FALSE;

  02b34	e59d30d0	 ldr         r3, [sp, #0xD0]
  02b38	e2832048	 add         r2, r3, #0x48
  02b3c	e3a03000	 mov         r3, #0
  02b40	e5823000	 str         r3, [r2]

; 535  :     Unlock();

  02b44	e59d30d0	 ldr         r3, [sp, #0xD0]
  02b48	e2830008	 add         r0, r3, #8
  02b4c	eb000000	 bl          |?Unlock@CLockObject@@QAAXXZ|

; 536  :     FUNCTION_LEAVE_MSG();

  02b50	e59f3064	 ldr         r3, [pc, #0x64]
  02b54	e5933440	 ldr         r3, [r3, #0x440]
  02b58	e3130a01	 tst         r3, #1, 20
  02b5c	0a00000d	 beq         |$LN76@IST|
  02b60	e59f3054	 ldr         r3, [pc, #0x54]
  02b64	e5933440	 ldr         r3, [r3, #0x440]
  02b68	e3130801	 tst         r3, #1, 16
  02b6c	0a000003	 beq         |$LN74@IST|
  02b70	e59d100c	 ldr         r1, [sp, #0xC]
  02b74	e59f003c	 ldr         r0, [pc, #0x3C]
  02b78	eb000000	 bl          CeLogMsg
  02b7c	ea000002	 b           |$LN75@IST|
  02b80		 |$LN74@IST|
  02b80	e59d100c	 ldr         r1, [sp, #0xC]
  02b84	e59f002c	 ldr         r0, [pc, #0x2C]
  02b88	eb000000	 bl          NKDbgPrintfW
  02b8c		 |$LN75@IST|
  02b8c	e3a03001	 mov         r3, #1
  02b90	e58d30c4	 str         r3, [sp, #0xC4]
  02b94	ea000001	 b           |$LN77@IST|
  02b98		 |$LN76@IST|
  02b98	e3a03000	 mov         r3, #0
  02b9c	e58d30c4	 str         r3, [sp, #0xC4]
  02ba0		 |$LN77@IST|

; 537  :     return ERROR_SUCCESS;

  02ba0	e3a03000	 mov         r3, #0
  02ba4	e58d3050	 str         r3, [sp, #0x50]

; 538  : }

  02ba8	e59d0050	 ldr         r0, [sp, #0x50]
  02bac	e28dd0c8	 add         sp, sp, #0xC8
  02bb0	e89d6000	 ldmia       sp, {sp, lr}
  02bb4	e12fff1e	 bx          lr
  02bb8		 |$LN84@IST|
  02bb8		 |$LN85@IST|
  02bb8	00000000	 DCD         |??_C@_1BA@PLOOFDPK@?$AA?$CF?$AAs?$AA?5?$AA?9?$AA?9?$AA?$AN?$AA?6?$AA?$AA@|
  02bbc		 |$LN86@IST|
  02bbc	00000000	 DCD         |dpCurSettings|
  02bc0		 |$LN87@IST|
  02bc0	00000000	 DCD         |??_C@_1EE@CKNJLPKA@?$AAS?$AAt?$AAa?$AAl?$AAl?$AA?5?$AAS?$AAe?$AAn?$AAt?$AA?5?$AAo?$AAn?$AA?5?$AAZ?$AAe?$AAr?$AAo?$AA?5?$AAe?$AAn?$AAd?$AAp?$AAo?$AAi?$AAn?$AAt?$AA?5?$AA?$DN?$AA0?$AAx?$AA?$CF@|
  02bc4		 |$LN88@IST|
  02bc4	00000000	 DCD         |??_C@_1FK@FNONLNGN@?$AA?$CF?$AAs?$AA?3?$AA?5?$AAD?$AAE?$AAB?$AAU?$AAG?$AAC?$AAH?$AAK?$AA?5?$AAf?$AAa?$AAi?$AAl?$AAe?$AAd?$AA?5?$AAi?$AAn?$AA?5?$AAf?$AAi?$AAl?$AAe?$AA?5?$AA?$CF?$AAs?$AA?5?$AAa@|
  02bc8		 |$LN89@IST|
  02bc8	00000000	 DCD         |??_C@_1BA@LEPJIIOK@?$AAU?$AAn?$AAk?$AAn?$AAo?$AAw?$AAn?$AA?$AA@|
  02bcc		 |$LN90@IST|
  02bcc	00000000	 DCD         |??_C@_1IO@HHHNJPIB@?$AAC?$AA?3?$AA?2?$AAW?$AAI?$AAN?$AAC?$AAE?$AA6?$AA0?$AA0?$AA?2?$AAP?$AAL?$AAA?$AAT?$AAF?$AAO?$AAR?$AAM?$AA?2?$AAC?$AAO?$AAM?$AAM?$AAO?$AAN?$AA?2?$AAS?$AAR?$AAC?$AA?2@|
  02bd0		 |$LN91@IST|
  02bd0	00000000	 DCD         |??_C@_1EA@OEDJODNB@?$AAE?$AAn?$AAd?$AAp?$AAo?$AAi?$AAn?$AAt?$AA?5?$AAZ?$AAe?$AAr?$AAo?$AA?5?$AAD?$AAi?$AAs?$AAa?$AAb?$AAl?$AAe?$AA?5?$AAI?$AAn?$AAt?$AAe?$AAr?$AAr?$AAu?$AAp?$AAt?$AA?$AA@|
  02bd4		 |$LN92@IST|
  02bd4	00000000	 DCD         |??_C@_1MA@EIKGFJC@?$AAE?$AAn?$AAd?$AAp?$AAo?$AAi?$AAn?$AAt?$AA?5?$AAZ?$AAe?$AAr?$AAo?$AA?5?$AAS?$AAe?$AAt?$AAu?$AAp?$AA?5?$AAb?$AAm?$AAR?$AAe?$AAq?$AAu?$AAe?$AAs?$AAt?$AAT?$AAy?$AAp@|
  02bd8		 |$LN93@IST|
  02bd8	00000000	 DCD         |??_C@_1FC@GPHBKKLB@?$AAE?$AAn?$AAd?$AAp?$AAo?$AAi?$AAn?$AAt?$AA?5?$AAZ?$AAe?$AAr?$AAo?$AA?5?$AAC?$AAu?$AAr?$AAr?$AAe?$AAn?$AAt?$AA?5?$AAT?$AAr?$AAa?$AAn?$AAs?$AAf?$AAe?$AAr?$AA?5?$AAC@|
  02bdc		 |$LN94@IST|
  02bdc	00000000	 DCD         |??_C@_1GM@LAGLGKNJ@?$AAE?$AAn?$AAd?$AAp?$AAo?$AAi?$AAn?$AAt?$AA?5?$AAZ?$AAe?$AAr?$AAo?$AA?5?$AAF?$AAA?$AAI?$AAL?$AAE?$AAD?$AA?5?$AAS?$AAE?$AAT?$AAU?$AAP?$AA?5?$AA?5?$AAu?$AAd?$AAc?$AAc@|
  02be0		 |$LN95@IST|
  02be0	00000000	 DCD         |??_C@_1GA@IKBBCDAB@?$AAE?$AAn?$AAd?$AAp?$AAo?$AAi?$AAn?$AAt?$AA?5?$AAZ?$AAe?$AAr?$AAo?$AA?5?$AAR?$AAe?$AAa?$AAd?$AAC?$AAo?$AAn?$AAt?$AAr?$AAo?$AAl?$AAS?$AAt?$AAa?$AAt?$AAu?$AAs?$AAR@|
  02be4		 |$LN96@IST|
  02be4	00000000	 DCD         |??_C@_1FA@JCGFFJNI@?$AAF?$AAI?$AAF?$AAO?$AA?5?$AAE?$AAr?$AAr?$AAo?$AAr?$AA?5?$AAo?$AAn?$AA?5?$AAE?$AAn?$AAd?$AAp?$AAo?$AAi?$AAn?$AAt?$AA?5?$AAZ?$AAe?$AAr?$AAo?$AA?5?$AAU?$AAD?$AAC?$AAC@|
  02be8		 |$LN97@IST|
  02be8	00000000	 DCD         |??_C@_1BA@DAJPCKDK@?$AA?$CF?$AAs?$AA?5?$AA?$CL?$AA?$CL?$AA?$AN?$AA?6?$AA?$AA@|
  02bec		 |$LN98@IST|
  02bec	00000000	 DCD         |??_C@_1EK@PHDCNHIP@?$AAb?$AAu?$AAl?$AAv?$AAe?$AAr?$AAd?$AAe?$AA_?$AAu?$AAs?$AAb?$AAf?$AAn?$AA?$CB?$AAB?$AAu?$AAl?$AAE?$AAn?$AAd?$AAp?$AAo?$AAi?$AAn?$AAt?$AAZ?$AAe?$AAr?$AAo?$AA?3?$AA?3@|
  02bf0		 |$M38686|

			 ENDP  ; |?IST@BulEndpointZero@@UAAKK@Z|, BulEndpointZero::IST

	EXPORT	|?RegSetValueExW@CRegistryEdit@@QAAHPBGKPAEK@Z| ; CRegistryEdit::RegSetValueExW
	EXPORT	|?GetRegValue@CRegistryEdit@@QAAHPBGPAEK@Z| ; CRegistryEdit::GetRegValue
	EXPORT	|??_C@_1CA@EJGBPJEP@?$AAE?$AAP?$AA0?$AAS?$AAt?$AAa?$AAl?$AAl?$AAC?$AAo?$AAu?$AAn?$AAt?$AAe?$AAr?$AA?$AA@| [ DATA ] ; `string'
; File c:\wince600\platform\common\src\soc\pxa27x_ms_v1\inc\bul_usbfn.h

  00000			 AREA	 |.pdata|, PDATA
|$T38709| DCD	|$LN6@IncEp0Stal|
	DCD	0x40002104

  00000			 AREA	 |.rdata|, DATA, READONLY
|??_C@_1CA@EJGBPJEP@?$AAE?$AAP?$AA0?$AAS?$AAt?$AAa?$AAl?$AAl?$AAC?$AAo?$AAu?$AAn?$AAt?$AAe?$AAr?$AA?$AA@| DCB "E"
	DCB	0x0, "P", 0x0, "0", 0x0, "S", 0x0, "t", 0x0, "a", 0x0, "l"
	DCB	0x0, "l", 0x0, "C", 0x0, "o", 0x0, "u", 0x0, "n", 0x0, "t"
	DCB	0x0, "e", 0x0, "r", 0x0, 0x0, 0x0	; `string'
; Function compile flags: /Odtp

  00000			 AREA	 |.text|, CODE, ARM

  00000		 |?IncEp0StallCounter@BulUsbDevice@@QAAXXZ| PROC ; BulUsbDevice::IncEp0StallCounter

; 180  :     void IncEp0StallCounter() {

  00000		 |$LN6@IncEp0Stal|
  00000	e1a0c00d	 mov         r12, sp
  00004	e92d0001	 stmdb       sp!, {r0}
  00008	e92d5000	 stmdb       sp!, {r12, lr}
  0000c	e24dd010	 sub         sp, sp, #0x10
  00010		 |$M38706|

; 181  : #ifdef ERRORCOUNTERINREGISTRY
; 182  :         DWORD dwEp0StallCounter = 0;

  00010	e3a03000	 mov         r3, #0
  00014	e58d3004	 str         r3, [sp, #4]

; 183  :         if (!GetRegValue(BUL_USBFUNCTION_EP0_STALL_COUNTER_VALNAME,(LPBYTE) &dwEp0StallCounter,sizeof(dwEp0StallCounter))) {

  00018	e3a03004	 mov         r3, #4
  0001c	e28d2004	 add         r2, sp, #4
  00020	e59f1058	 ldr         r1, [pc, #0x58]
  00024	e59d0018	 ldr         r0, [sp, #0x18]
  00028	e2800090	 add         r0, r0, #0x90
  0002c	eb000000	 bl          |?GetRegValue@CRegistryEdit@@QAAHPBGPAEK@Z|
  00030	e58d000c	 str         r0, [sp, #0xC]
  00034	e59d300c	 ldr         r3, [sp, #0xC]
  00038	e3530000	 cmp         r3, #0
  0003c	1a000001	 bne         |$LN1@IncEp0Stal|

; 184  :             dwEp0StallCounter = 0;

  00040	e3a03000	 mov         r3, #0
  00044	e58d3004	 str         r3, [sp, #4]
  00048		 |$LN1@IncEp0Stal|

; 185  :         }
; 186  :         dwEp0StallCounter++;

  00048	e59d3004	 ldr         r3, [sp, #4]
  0004c	e2833001	 add         r3, r3, #1
  00050	e58d3004	 str         r3, [sp, #4]

; 187  :         RegSetValueEx( BUL_USBFUNCTION_EP0_STALL_COUNTER_VALNAME,BUL_USBFUNCTION_EP0_STALL_COUNTER_VALTYPE,
; 188  :             (PBYTE)&dwEp0StallCounter,sizeof(dwEp0StallCounter));

  00054	e3a03004	 mov         r3, #4
  00058	e58d3000	 str         r3, [sp]
  0005c	e28d3004	 add         r3, sp, #4
  00060	e3a02004	 mov         r2, #4
  00064	e59f1014	 ldr         r1, [pc, #0x14]
  00068	e59d0018	 ldr         r0, [sp, #0x18]
  0006c	e2800090	 add         r0, r0, #0x90
  00070	eb000000	 bl          |?RegSetValueExW@CRegistryEdit@@QAAHPBGKPAEK@Z|

; 189  : #endif
; 190  :     }

  00074	e28dd010	 add         sp, sp, #0x10
  00078	e89d6000	 ldmia       sp, {sp, lr}
  0007c	e12fff1e	 bx          lr
  00080		 |$LN7@IncEp0Stal|
  00080		 |$LN8@IncEp0Stal|
  00080	00000000	 DCD         |??_C@_1CA@EJGBPJEP@?$AAE?$AAP?$AA0?$AAS?$AAt?$AAa?$AAl?$AAl?$AAC?$AAo?$AAu?$AAn?$AAt?$AAe?$AAr?$AA?$AA@|
  00084		 |$M38707|

			 ENDP  ; |?IncEp0StallCounter@BulUsbDevice@@QAAXXZ|, BulUsbDevice::IncEp0StallCounter

	IMPORT	|RegQueryValueExW|
; File c:\wince600\public\common\oak\inc\cregedit.h

  00000			 AREA	 |.pdata|, PDATA
|$T38723| DCD	|$LN7@GetRegValu|
	DCD	0x40002104
; Function compile flags: /Odtp

  00000			 AREA	 |.text|, CODE, ARM

  00000		 |?GetRegValue@CRegistryEdit@@QAAHPBGPAEK@Z| PROC ; CRegistryEdit::GetRegValue

; 130  :     {

  00000		 |$LN7@GetRegValu|
  00000	e1a0c00d	 mov         r12, sp
  00004	e92d000f	 stmdb       sp!, {r0 - r3}
  00008	e92d5000	 stmdb       sp!, {r12, lr}
  0000c	e24dd024	 sub         sp, sp, #0x24
  00010		 |$M38720|

; 131  :         DWORD dwType = 0;

  00010	e3a03000	 mov         r3, #0
  00014	e58d3008	 str         r3, [sp, #8]

; 132  :         LONG status = ::RegQueryValueEx( m_hDevKey,
; 133  :                                            lpcName,
; 134  :                                            NULL,
; 135  :                                            &dwType,
; 136  :                                            lpData,
; 137  :                                            &dwDataLen );

  00018	e28d3038	 add         r3, sp, #0x38
  0001c	e58d3004	 str         r3, [sp, #4]
  00020	e59d3034	 ldr         r3, [sp, #0x34]
  00024	e58d3000	 str         r3, [sp]
  00028	e28d3008	 add         r3, sp, #8
  0002c	e3a02000	 mov         r2, #0
  00030	e59d1030	 ldr         r1, [sp, #0x30]
  00034	e59d002c	 ldr         r0, [sp, #0x2C]
  00038	e5900000	 ldr         r0, [r0]
  0003c	eb000000	 bl          RegQueryValueExW
  00040	e58d001c	 str         r0, [sp, #0x1C]
  00044	e59d301c	 ldr         r3, [sp, #0x1C]
  00048	e58d300c	 str         r3, [sp, #0xC]

; 138  :         return ( status == ERROR_SUCCESS );

  0004c	e59d300c	 ldr         r3, [sp, #0xC]
  00050	e3530000	 cmp         r3, #0
  00054	1a000002	 bne         |$LN3@GetRegValu|
  00058	e3a03001	 mov         r3, #1
  0005c	e58d3020	 str         r3, [sp, #0x20]
  00060	ea000001	 b           |$LN4@GetRegValu|
  00064		 |$LN3@GetRegValu|
  00064	e3a03000	 mov         r3, #0
  00068	e58d3020	 str         r3, [sp, #0x20]
  0006c		 |$LN4@GetRegValu|
  0006c	e59d3020	 ldr         r3, [sp, #0x20]
  00070	e58d3018	 str         r3, [sp, #0x18]

; 139  :     }

  00074	e59d0018	 ldr         r0, [sp, #0x18]
  00078	e28dd024	 add         sp, sp, #0x24
  0007c	e89d6000	 ldmia       sp, {sp, lr}
  00080	e12fff1e	 bx          lr
  00084		 |$M38721|

			 ENDP  ; |?GetRegValue@CRegistryEdit@@QAAHPBGPAEK@Z|, CRegistryEdit::GetRegValue

	IMPORT	|RegSetValueExW|

  00000			 AREA	 |.pdata|, PDATA
|$T38735| DCD	|$LN7@RegSetValu|
	DCD	0x40001f04
; Function compile flags: /Odtp

  00000			 AREA	 |.text|, CODE, ARM

  00000		 |?RegSetValueExW@CRegistryEdit@@QAAHPBGKPAEK@Z| PROC ; CRegistryEdit::RegSetValueExW

; 160  :     {

  00000		 |$LN7@RegSetValu|
  00000	e1a0c00d	 mov         r12, sp
  00004	e92d000f	 stmdb       sp!, {r0 - r3}
  00008	e92d5000	 stmdb       sp!, {r12, lr}
  0000c	e24dd020	 sub         sp, sp, #0x20
  00010		 |$M38732|

; 161  :         LONG status = ::RegSetValueEx( m_hDevKey,
; 162  :                                          lpcName,
; 163  :                                          NULL,
; 164  :                                          dwType,
; 165  :                                          lpData,
; 166  :                                          dwDataLen );

  00010	e59d3038	 ldr         r3, [sp, #0x38]
  00014	e58d3004	 str         r3, [sp, #4]
  00018	e59d3034	 ldr         r3, [sp, #0x34]
  0001c	e58d3000	 str         r3, [sp]
  00020	e59d3030	 ldr         r3, [sp, #0x30]
  00024	e3a02000	 mov         r2, #0
  00028	e59d102c	 ldr         r1, [sp, #0x2C]
  0002c	e59d0028	 ldr         r0, [sp, #0x28]
  00030	e5900000	 ldr         r0, [r0]
  00034	eb000000	 bl          RegSetValueExW
  00038	e58d0018	 str         r0, [sp, #0x18]
  0003c	e59d3018	 ldr         r3, [sp, #0x18]
  00040	e58d3008	 str         r3, [sp, #8]

; 167  :         return ( status == ERROR_SUCCESS );

  00044	e59d3008	 ldr         r3, [sp, #8]
  00048	e3530000	 cmp         r3, #0
  0004c	1a000002	 bne         |$LN3@RegSetValu|
  00050	e3a03001	 mov         r3, #1
  00054	e58d301c	 str         r3, [sp, #0x1C]
  00058	ea000001	 b           |$LN4@RegSetValu|
  0005c		 |$LN3@RegSetValu|
  0005c	e3a03000	 mov         r3, #0
  00060	e58d301c	 str         r3, [sp, #0x1C]
  00064		 |$LN4@RegSetValu|
  00064	e59d301c	 ldr         r3, [sp, #0x1C]
  00068	e58d3014	 str         r3, [sp, #0x14]

; 168  :     }

  0006c	e59d0014	 ldr         r0, [sp, #0x14]
  00070	e28dd020	 add         sp, sp, #0x20
  00074	e89d6000	 ldmia       sp, {sp, lr}
  00078	e12fff1e	 bx          lr
  0007c		 |$M38733|

			 ENDP  ; |?RegSetValueExW@CRegistryEdit@@QAAHPBGKPAEK@Z|, CRegistryEdit::RegSetValueExW

	EXPORT	|??_C@_1CA@BKEHOKGI@?$AAB?$AAa?$AAd?$AAS?$AAe?$AAt?$AAu?$AAp?$AAC?$AAo?$AAu?$AAn?$AAt?$AAe?$AAr?$AA?$AA@| [ DATA ] ; `string'
; File c:\wince600\platform\common\src\soc\pxa27x_ms_v1\inc\bul_usbfn.h

  00000			 AREA	 |.pdata|, PDATA
|$T38743| DCD	|$LN6@IncBadSetu|
	DCD	0x40002104

  00000			 AREA	 |.rdata|, DATA, READONLY
|??_C@_1CA@BKEHOKGI@?$AAB?$AAa?$AAd?$AAS?$AAe?$AAt?$AAu?$AAp?$AAC?$AAo?$AAu?$AAn?$AAt?$AAe?$AAr?$AA?$AA@| DCB "B"
	DCB	0x0, "a", 0x0, "d", 0x0, "S", 0x0, "e", 0x0, "t", 0x0, "u"
	DCB	0x0, "p", 0x0, "C", 0x0, "o", 0x0, "u", 0x0, "n", 0x0, "t"
	DCB	0x0, "e", 0x0, "r", 0x0, 0x0, 0x0	; `string'
; Function compile flags: /Odtp

  00000			 AREA	 |.text|, CODE, ARM

  00000		 |?IncBadSetupCounter@BulUsbDevice@@QAAXXZ| PROC ; BulUsbDevice::IncBadSetupCounter

; 191  :     void IncBadSetupCounter() {

  00000		 |$LN6@IncBadSetu|
  00000	e1a0c00d	 mov         r12, sp
  00004	e92d0001	 stmdb       sp!, {r0}
  00008	e92d5000	 stmdb       sp!, {r12, lr}
  0000c	e24dd010	 sub         sp, sp, #0x10
  00010		 |$M38740|

; 192  : #ifdef ERRORCOUNTERINREGISTRY
; 193  :         DWORD dwBadSetupCounter = 0;

  00010	e3a03000	 mov         r3, #0
  00014	e58d3004	 str         r3, [sp, #4]

; 194  :         if (!GetRegValue(BUL_USBFUNCTION_BAD_SETUP_COUNTER_VALNAME,(LPBYTE) &dwBadSetupCounter,sizeof(dwBadSetupCounter))) {

  00018	e3a03004	 mov         r3, #4
  0001c	e28d2004	 add         r2, sp, #4
  00020	e59f1058	 ldr         r1, [pc, #0x58]
  00024	e59d0018	 ldr         r0, [sp, #0x18]
  00028	e2800090	 add         r0, r0, #0x90
  0002c	eb000000	 bl          |?GetRegValue@CRegistryEdit@@QAAHPBGPAEK@Z|
  00030	e58d000c	 str         r0, [sp, #0xC]
  00034	e59d300c	 ldr         r3, [sp, #0xC]
  00038	e3530000	 cmp         r3, #0
  0003c	1a000001	 bne         |$LN1@IncBadSetu|

; 195  :             dwBadSetupCounter = 0;

  00040	e3a03000	 mov         r3, #0
  00044	e58d3004	 str         r3, [sp, #4]
  00048		 |$LN1@IncBadSetu|

; 196  :         }
; 197  :         dwBadSetupCounter++;

  00048	e59d3004	 ldr         r3, [sp, #4]
  0004c	e2833001	 add         r3, r3, #1
  00050	e58d3004	 str         r3, [sp, #4]

; 198  :         RegSetValueEx( BUL_USBFUNCTION_BAD_SETUP_COUNTER_VALNAME, BUL_USBFUNCTION_BAD_SETUP_COUNTER_VALTYPE,
; 199  :             (PBYTE)&dwBadSetupCounter,sizeof(dwBadSetupCounter));

  00054	e3a03004	 mov         r3, #4
  00058	e58d3000	 str         r3, [sp]
  0005c	e28d3004	 add         r3, sp, #4
  00060	e3a02004	 mov         r2, #4
  00064	e59f1014	 ldr         r1, [pc, #0x14]
  00068	e59d0018	 ldr         r0, [sp, #0x18]
  0006c	e2800090	 add         r0, r0, #0x90
  00070	eb000000	 bl          |?RegSetValueExW@CRegistryEdit@@QAAHPBGKPAEK@Z|

; 200  : #endif
; 201  :     }

  00074	e28dd010	 add         sp, sp, #0x10
  00078	e89d6000	 ldmia       sp, {sp, lr}
  0007c	e12fff1e	 bx          lr
  00080		 |$LN7@IncBadSetu|
  00080		 |$LN8@IncBadSetu|
  00080	00000000	 DCD         |??_C@_1CA@BKEHOKGI@?$AAB?$AAa?$AAd?$AAS?$AAe?$AAt?$AAu?$AAp?$AAC?$AAo?$AAu?$AAn?$AAt?$AAe?$AAr?$AA?$AA@|
  00084		 |$M38741|

			 ENDP  ; |?IncBadSetupCounter@BulUsbDevice@@QAAXXZ|, BulUsbDevice::IncBadSetupCounter

	EXPORT	|??_C@_1EC@IBECJFKF@?$AAS?$AAt?$AAa?$AAl?$AAl?$AA?5?$AAs?$AAe?$AAn?$AAd?$AA?5?$AAo?$AAn?$AA?5?$AAI?$AAn?$AA?5?$AAE?$AAn?$AAd?$AAp?$AAo?$AAi?$AAn?$AAt?$AA?5?$AA?$DN?$AA?5?$AA0?$AAx?$AA?$CF?$AAx@| [ DATA ] ; `string'
	EXPORT	|??_C@_1DC@JFMFPEIA@?$AA?5?$AAI?$AAN?$AA?3?$AA?3?$AAI?$AAS?$AAT?$AA?$CI?$AA?$CF?$AAd?$AA?$CJ?$AA?5?$AAU?$AAD?$AAC?$AAC?$AAS?$AAR?$AA?$DN?$AA0?$AAx?$AA?$CF?$AAx?$AA?$AA@| [ DATA ] ; `string'
	EXPORT	|??_C@_1FE@HEAJCENN@?$AAF?$AAI?$AAF?$AAO?$AA?5?$AAE?$AAr?$AAr?$AAo?$AAr?$AA?5?$AAo?$AAn?$AA?5?$AAE?$AAn?$AAd?$AAp?$AAo?$AAi?$AAn?$AAt?$AA?5?$AAI?$AAN?$AA?$CI?$AA?$CF?$AAd?$AA?$CJ?$AA?5?$AAU?$AAD@| [ DATA ] ; `string'
	EXPORT	|??_C@_1EG@CJNMDKIL@?$AAb?$AAu?$AAl?$AAv?$AAe?$AAr?$AAd?$AAe?$AA_?$AAu?$AAs?$AAb?$AAf?$AAn?$AA?$CB?$AAB?$AAu?$AAl?$AAE?$AAn?$AAd?$AAp?$AAo?$AAi?$AAn?$AAt?$AAI?$AAn?$AA?3?$AA?3?$AAI?$AAS@| [ DATA ] ; `string'
	EXPORT	|?IST@BulEndpointIn@@UAAKK@Z|		; BulEndpointIn::IST

  00098			 AREA	 |.pdata|, PDATA
|$T38781| DCD	|$LN46@IST@2|
	DCD	0x4001a904
; File c:\wince600\platform\common\src\soc\pxa27x_ms_v1\usbfn\bul_usbfn.cpp

  00000			 AREA	 |.rdata|, DATA, READONLY
|??_C@_1EC@IBECJFKF@?$AAS?$AAt?$AAa?$AAl?$AAl?$AA?5?$AAs?$AAe?$AAn?$AAd?$AA?5?$AAo?$AAn?$AA?5?$AAI?$AAn?$AA?5?$AAE?$AAn?$AAd?$AAp?$AAo?$AAi?$AAn?$AAt?$AA?5?$AA?$DN?$AA?5?$AA0?$AAx?$AA?$CF?$AAx@| DCB "S"
	DCB	0x0, "t", 0x0, "a", 0x0, "l", 0x0, "l", 0x0, " ", 0x0, "s"
	DCB	0x0, "e", 0x0, "n", 0x0, "d", 0x0, " ", 0x0, "o", 0x0, "n"
	DCB	0x0, " ", 0x0, "I", 0x0, "n", 0x0, " ", 0x0, "E", 0x0, "n"
	DCB	0x0, "d", 0x0, "p", 0x0, "o", 0x0, "i", 0x0, "n", 0x0, "t"
	DCB	0x0, " ", 0x0, "=", 0x0, " ", 0x0, "0", 0x0, "x", 0x0, "%"
	DCB	0x0, "x", 0x0, 0x0, 0x0			; `string'

  00000			 AREA	 |.rdata|, DATA, READONLY
|??_C@_1DC@JFMFPEIA@?$AA?5?$AAI?$AAN?$AA?3?$AA?3?$AAI?$AAS?$AAT?$AA?$CI?$AA?$CF?$AAd?$AA?$CJ?$AA?5?$AAU?$AAD?$AAC?$AAC?$AAS?$AAR?$AA?$DN?$AA0?$AAx?$AA?$CF?$AAx?$AA?$AA@| DCB " "
	DCB	0x0, "I", 0x0, "N", 0x0, ":", 0x0, ":", 0x0, "I", 0x0, "S"
	DCB	0x0, "T", 0x0, "(", 0x0, "%", 0x0, "d", 0x0, ")", 0x0, " "
	DCB	0x0, "U", 0x0, "D", 0x0, "C", 0x0, "C", 0x0, "S", 0x0, "R"
	DCB	0x0, "=", 0x0, "0", 0x0, "x", 0x0, "%", 0x0, "x", 0x0, 0x0
	DCB	0x0					; `string'

  00000			 AREA	 |.rdata|, DATA, READONLY
|??_C@_1FE@HEAJCENN@?$AAF?$AAI?$AAF?$AAO?$AA?5?$AAE?$AAr?$AAr?$AAo?$AAr?$AA?5?$AAo?$AAn?$AA?5?$AAE?$AAn?$AAd?$AAp?$AAo?$AAi?$AAn?$AAt?$AA?5?$AAI?$AAN?$AA?$CI?$AA?$CF?$AAd?$AA?$CJ?$AA?5?$AAU?$AAD@| DCB "F"
	DCB	0x0, "I", 0x0, "F", 0x0, "O", 0x0, " ", 0x0, "E", 0x0, "r"
	DCB	0x0, "r", 0x0, "o", 0x0, "r", 0x0, " ", 0x0, "o", 0x0, "n"
	DCB	0x0, " ", 0x0, "E", 0x0, "n", 0x0, "d", 0x0, "p", 0x0, "o"
	DCB	0x0, "i", 0x0, "n", 0x0, "t", 0x0, " ", 0x0, "I", 0x0, "N"
	DCB	0x0, "(", 0x0, "%", 0x0, "d", 0x0, ")", 0x0, " ", 0x0, "U"
	DCB	0x0, "D", 0x0, "C", 0x0, "C", 0x0, "S", 0x0, "R", 0x0, "="
	DCB	0x0, "0", 0x0, "x", 0x0, "%", 0x0, "x", 0x0, 0x0, 0x0 ; `string'

  00000			 AREA	 |.rdata|, DATA, READONLY
|??_C@_1EG@CJNMDKIL@?$AAb?$AAu?$AAl?$AAv?$AAe?$AAr?$AAd?$AAe?$AA_?$AAu?$AAs?$AAb?$AAf?$AAn?$AA?$CB?$AAB?$AAu?$AAl?$AAE?$AAn?$AAd?$AAp?$AAo?$AAi?$AAn?$AAt?$AAI?$AAn?$AA?3?$AA?3?$AAI?$AAS@| DCB "b"
	DCB	0x0, "u", 0x0, "l", 0x0, "v", 0x0, "e", 0x0, "r", 0x0, "d"
	DCB	0x0, "e", 0x0, "_", 0x0, "u", 0x0, "s", 0x0, "b", 0x0, "f"
	DCB	0x0, "n", 0x0, "!", 0x0, "B", 0x0, "u", 0x0, "l", 0x0, "E"
	DCB	0x0, "n", 0x0, "d", 0x0, "p", 0x0, "o", 0x0, "i", 0x0, "n"
	DCB	0x0, "t", 0x0, "I", 0x0, "n", 0x0, ":", 0x0, ":", 0x0, "I"
	DCB	0x0, "S", 0x0, "T", 0x0, ":", 0x0, 0x0, 0x0 ; `string'
; Function compile flags: /Odtp

  02bf0			 AREA	 |.text|, CODE, ARM

  02bf0		 |?IST@BulEndpointIn@@UAAKK@Z| PROC	; BulEndpointIn::IST

; 540  : {

  02bf0		 |$LN46@IST@2|
  02bf0	e1a0c00d	 mov         r12, sp
  02bf4	e92d0003	 stmdb       sp!, {r0, r1}
  02bf8	e92d5000	 stmdb       sp!, {r12, lr}
  02bfc	e24dd054	 sub         sp, sp, #0x54
  02c00		 |$M38778|

; 541  :     Lock();

  02c00	e59d305c	 ldr         r3, [sp, #0x5C]
  02c04	e2830008	 add         r0, r3, #8
  02c08	eb000000	 bl          |?Lock@CLockObject@@QAAXXZ|

; 542  :     BOOL bContinue = TRUE;

  02c0c	e3a03001	 mov         r3, #1
  02c10	e58d3000	 str         r3, [sp]

; 543  :     SETFNAME();

  02c14	e59f3674	 ldr         r3, [pc, #0x674]
  02c18	e58d3004	 str         r3, [sp, #4]

; 544  :     FUNCTION_ENTER_MSG();

  02c1c	e59f364c	 ldr         r3, [pc, #0x64C]
  02c20	e5933440	 ldr         r3, [r3, #0x440]
  02c24	e3130a01	 tst         r3, #1, 20
  02c28	0a00000d	 beq         |$LN18@IST@2|
  02c2c	e59f363c	 ldr         r3, [pc, #0x63C]
  02c30	e5933440	 ldr         r3, [r3, #0x440]
  02c34	e3130801	 tst         r3, #1, 16
  02c38	0a000003	 beq         |$LN16@IST@2|
  02c3c	e59d1004	 ldr         r1, [sp, #4]
  02c40	e59f0644	 ldr         r0, [pc, #0x644]
  02c44	eb000000	 bl          CeLogMsg
  02c48	ea000002	 b           |$LN17@IST@2|
  02c4c		 |$LN16@IST@2|
  02c4c	e59d1004	 ldr         r1, [sp, #4]
  02c50	e59f0634	 ldr         r0, [pc, #0x634]
  02c54	eb000000	 bl          NKDbgPrintfW
  02c58		 |$LN17@IST@2|
  02c58	e3a03001	 mov         r3, #1
  02c5c	e58d3024	 str         r3, [sp, #0x24]
  02c60	ea000001	 b           |$LN19@IST@2|
  02c64		 |$LN18@IST@2|
  02c64	e3a03000	 mov         r3, #0
  02c68	e58d3024	 str         r3, [sp, #0x24]
  02c6c		 |$LN19@IST@2|

; 545  :     if ((dwIRBit & EPINT_FIFO_ERROR)!=0) { // FIFO Error. End

  02c6c	e59d3060	 ldr         r3, [sp, #0x60]
  02c70	e3130002	 tst         r3, #2
  02c74	0a00001e	 beq         |$LN13@IST@2|

; 546  :         DWORD dwUdccsr;
; 547  :         dwUdccsr = ReadControlStatusRegister();

  02c78	e59d005c	 ldr         r0, [sp, #0x5C]
  02c7c	eb000000	 bl          |?ReadControlStatusRegister@BulEndpoint@@QAAKXZ|
  02c80	e58d0028	 str         r0, [sp, #0x28]
  02c84	e59d3028	 ldr         r3, [sp, #0x28]
  02c88	e58d3008	 str         r3, [sp, #8]

; 548  :         DEBUGMSG(ZONE_WARNING, (_T("FIFO Error on Endpoint IN(%d) UDCCSR=0x%x"),m_dwEndpointIndex,dwUdccsr));

  02c8c	e59f35dc	 ldr         r3, [pc, #0x5DC]
  02c90	e5933440	 ldr         r3, [r3, #0x440]
  02c94	e3130002	 tst         r3, #2
  02c98	0a000013	 beq         |$LN22@IST@2|
  02c9c	e59f35cc	 ldr         r3, [pc, #0x5CC]
  02ca0	e5933440	 ldr         r3, [r3, #0x440]
  02ca4	e3130801	 tst         r3, #1, 16
  02ca8	0a000006	 beq         |$LN20@IST@2|
  02cac	e59d2008	 ldr         r2, [sp, #8]
  02cb0	e59d305c	 ldr         r3, [sp, #0x5C]
  02cb4	e2833020	 add         r3, r3, #0x20
  02cb8	e5931000	 ldr         r1, [r3]
  02cbc	e59f05c4	 ldr         r0, [pc, #0x5C4]
  02cc0	eb000000	 bl          CeLogMsg
  02cc4	ea000005	 b           |$LN21@IST@2|
  02cc8		 |$LN20@IST@2|
  02cc8	e59d2008	 ldr         r2, [sp, #8]
  02ccc	e59d305c	 ldr         r3, [sp, #0x5C]
  02cd0	e2833020	 add         r3, r3, #0x20
  02cd4	e5931000	 ldr         r1, [r3]
  02cd8	e59f05a8	 ldr         r0, [pc, #0x5A8]
  02cdc	eb000000	 bl          NKDbgPrintfW
  02ce0		 |$LN21@IST@2|
  02ce0	e3a03001	 mov         r3, #1
  02ce4	e58d302c	 str         r3, [sp, #0x2C]
  02ce8	ea000001	 b           |$LN23@IST@2|
  02cec		 |$LN22@IST@2|
  02cec	e3a03000	 mov         r3, #0
  02cf0	e58d302c	 str         r3, [sp, #0x2C]
  02cf4		 |$LN23@IST@2|
  02cf4		 |$LN13@IST@2|
  02cf4		 |$LN43@IST@2|
  02cf4		 |$LN42@IST@2|
  02cf4		 |$LN41@IST@2|
  02cf4		 |$LN40@IST@2|
  02cf4		 |$LN12@IST@2|

; 549  :     }
; 550  : 
; 551  :     while (bContinue) 

  02cf4	e59d3000	 ldr         r3, [sp]
  02cf8	e3530000	 cmp         r3, #0
  02cfc	0a00013d	 beq         |$LN11@IST@2|

; 552  :     { // Loop until all the event clear.
; 553  :         bContinue = FALSE;

  02d00	e3a03000	 mov         r3, #0
  02d04	e58d3000	 str         r3, [sp]

; 554  :         UDCCSR udccsr;
; 555  :         udccsr.ulValue = ReadControlStatusRegister();

  02d08	e59d005c	 ldr         r0, [sp, #0x5C]
  02d0c	eb000000	 bl          |?ReadControlStatusRegister@BulEndpoint@@QAAKXZ|
  02d10	e58d0030	 str         r0, [sp, #0x30]
  02d14	e59d3030	 ldr         r3, [sp, #0x30]
  02d18	e58d300c	 str         r3, [sp, #0xC]

; 556  :         DEBUGMSG(ZONE_TRANSFER, (_T(" IN::IST(%d) UDCCSR=0x%x"),m_dwEndpointIndex,udccsr.ulValue));

  02d1c	e59f354c	 ldr         r3, [pc, #0x54C]
  02d20	e5933440	 ldr         r3, [r3, #0x440]
  02d24	e3130008	 tst         r3, #8
  02d28	0a000013	 beq         |$LN26@IST@2|
  02d2c	e59f353c	 ldr         r3, [pc, #0x53C]
  02d30	e5933440	 ldr         r3, [r3, #0x440]
  02d34	e3130801	 tst         r3, #1, 16
  02d38	0a000006	 beq         |$LN24@IST@2|
  02d3c	e59d200c	 ldr         r2, [sp, #0xC]
  02d40	e59d305c	 ldr         r3, [sp, #0x5C]
  02d44	e2833020	 add         r3, r3, #0x20
  02d48	e5931000	 ldr         r1, [r3]
  02d4c	e59f0530	 ldr         r0, [pc, #0x530]
  02d50	eb000000	 bl          CeLogMsg
  02d54	ea000005	 b           |$LN25@IST@2|
  02d58		 |$LN24@IST@2|
  02d58	e59d200c	 ldr         r2, [sp, #0xC]
  02d5c	e59d305c	 ldr         r3, [sp, #0x5C]
  02d60	e2833020	 add         r3, r3, #0x20
  02d64	e5931000	 ldr         r1, [r3]
  02d68	e59f0514	 ldr         r0, [pc, #0x514]
  02d6c	eb000000	 bl          NKDbgPrintfW
  02d70		 |$LN25@IST@2|
  02d70	e3a03001	 mov         r3, #1
  02d74	e58d3034	 str         r3, [sp, #0x34]
  02d78	ea000001	 b           |$LN27@IST@2|
  02d7c		 |$LN26@IST@2|
  02d7c	e3a03000	 mov         r3, #0
  02d80	e58d3034	 str         r3, [sp, #0x34]
  02d84		 |$LN27@IST@2|

; 557  :         if (m_fStalled && (udccsr.epbit.PC!=0 || udccsr.epbit.TRN!=0) ) {

  02d84	e59d305c	 ldr         r3, [sp, #0x5C]
  02d88	e283303c	 add         r3, r3, #0x3C
  02d8c	e5933000	 ldr         r3, [r3]
  02d90	e3530000	 cmp         r3, #0
  02d94	0a00001f	 beq         |$LN10@IST@2|
  02d98	e59d300c	 ldr         r3, [sp, #0xC]
  02d9c	e3130002	 tst         r3, #2
  02da0	1a000002	 bne         |$LN9@IST@2|
  02da4	e59d300c	 ldr         r3, [sp, #0xC]
  02da8	e3130004	 tst         r3, #4
  02dac	0a000019	 beq         |$LN10@IST@2|
  02db0		 |$LN9@IST@2|

; 558  :             // Stall has been clear silently. So we generate Faking Clear Feature for Endpoint Zero
; 559  :             m_fStalled = FALSE;

  02db0	e59d305c	 ldr         r3, [sp, #0x5C]
  02db4	e283203c	 add         r2, r3, #0x3C
  02db8	e3a03000	 mov         r3, #0
  02dbc	e5823000	 str         r3, [r2]

; 560  :             udccsr.epbit.PC = udccsr.epbit.TRN = udccsr.epbit.FEF = 0;

  02dc0	e59d200c	 ldr         r2, [sp, #0xC]
  02dc4	e3e03c01	 mvn         r3, #1, 24
  02dc8	e0023003	 and         r3, r2, r3
  02dcc	e58d300c	 str         r3, [sp, #0xC]
  02dd0	e59d200c	 ldr         r2, [sp, #0xC]
  02dd4	e3e03004	 mvn         r3, #4
  02dd8	e0023003	 and         r3, r2, r3
  02ddc	e58d300c	 str         r3, [sp, #0xC]
  02de0	e59d200c	 ldr         r2, [sp, #0xC]
  02de4	e3e03002	 mvn         r3, #2
  02de8	e0023003	 and         r3, r2, r3
  02dec	e58d300c	 str         r3, [sp, #0xC]

; 561  :             WriteControlStatusRegister(udccsr.ulValue);

  02df0	e59d100c	 ldr         r1, [sp, #0xC]
  02df4	e59d005c	 ldr         r0, [sp, #0x5C]
  02df8	eb000000	 bl          |?WriteControlStatusRegister@BulEndpoint@@QAAXK@Z|

; 562  :             bContinue = TRUE;

  02dfc	e3a03001	 mov         r3, #1
  02e00	e58d3000	 str         r3, [sp]

; 563  :             SendFakeFeature(USB_REQUEST_CLEAR_FEATURE,USB_FEATURE_ENDPOINT_STALL);

  02e04	e3a02000	 mov         r2, #0
  02e08	e3a01001	 mov         r1, #1
  02e0c	e59d005c	 ldr         r0, [sp, #0x5C]
  02e10	eb000000	 bl          |?SendFakeFeature@BulEndpoint@@IAAXEG@Z|

; 564  :             continue;

  02e14	eaffffb6	 b           |$LN12@IST@2|
  02e18		 |$LN10@IST@2|

; 565  :         }
; 566  :         if ( udccsr.epbit.PC!=0 ) { // Packet Complete.

  02e18	e59d300c	 ldr         r3, [sp, #0xC]
  02e1c	e3130002	 tst         r3, #2
  02e20	0a000045	 beq         |$LN8@IST@2|

; 567  :             if (udccsr.epbit.DPE!=0 ) { // Data Packet Error

  02e24	e59d300c	 ldr         r3, [sp, #0xC]
  02e28	e3130c02	 tst         r3, #2, 24
  02e2c	0a000015	 beq         |$LN7@IST@2|

; 568  :                 WriteControlStatusRegister(udccsr.ulValue);

  02e30	e59d100c	 ldr         r1, [sp, #0xC]
  02e34	e59d005c	 ldr         r0, [sp, #0x5C]
  02e38	eb000000	 bl          |?WriteControlStatusRegister@BulEndpoint@@QAAXK@Z|

; 569  :                 PSTransfer pTransfer = CompleteTransfer( UFN_NOT_COMPLETE_ERROR );

  02e3c	e3a01c01	 mov         r1, #1, 24
  02e40	e3811003	 orr         r1, r1, #3
  02e44	e59d005c	 ldr         r0, [sp, #0x5C]
  02e48	eb000000	 bl          |?CompleteTransfer@BulEndpoint@@IAAPAU_STransfer@@K@Z|
  02e4c	e58d0038	 str         r0, [sp, #0x38]
  02e50	e59d3038	 ldr         r3, [sp, #0x38]
  02e54	e58d3014	 str         r3, [sp, #0x14]

; 570  :                 Unlock();

  02e58	e59d305c	 ldr         r3, [sp, #0x5C]
  02e5c	e2830008	 add         r0, r3, #8
  02e60	eb000000	 bl          |?Unlock@CLockObject@@QAAXXZ|

; 571  :                 m_pUsbDevice->MddTransferComplete(pTransfer);

  02e64	e59d1014	 ldr         r1, [sp, #0x14]
  02e68	e59d305c	 ldr         r3, [sp, #0x5C]
  02e6c	e283301c	 add         r3, r3, #0x1C
  02e70	e5930000	 ldr         r0, [r3]
  02e74	eb000000	 bl          |?MddTransferComplete@BulUsbDevice@@QAAXPAU_STransfer@@@Z|

; 572  :                 Lock();                

  02e78	e59d305c	 ldr         r3, [sp, #0x5C]
  02e7c	e2830008	 add         r0, r3, #8
  02e80	eb000000	 bl          |?Lock@CLockObject@@QAAXXZ|

; 573  :                 continue;

  02e84	eaffff9a	 b           |$LN40@IST@2|
  02e88		 |$LN7@IST@2|

; 574  :             }
; 575  :             if ( m_pCurTransfer && !m_fZeroPacket &&  m_pCurTransfer->cbTransferred >= m_pCurTransfer->cbBuffer) {

  02e88	e59d305c	 ldr         r3, [sp, #0x5C]
  02e8c	e2833034	 add         r3, r3, #0x34
  02e90	e5933000	 ldr         r3, [r3]
  02e94	e3530000	 cmp         r3, #0
  02e98	0a000025	 beq         |$LN6@IST@2|
  02e9c	e59d305c	 ldr         r3, [sp, #0x5C]
  02ea0	e2833038	 add         r3, r3, #0x38
  02ea4	e5933000	 ldr         r3, [r3]
  02ea8	e3530000	 cmp         r3, #0
  02eac	1a000020	 bne         |$LN6@IST@2|
  02eb0	e59d305c	 ldr         r3, [sp, #0x5C]
  02eb4	e2833034	 add         r3, r3, #0x34
  02eb8	e5933000	 ldr         r3, [r3]
  02ebc	e2832010	 add         r2, r3, #0x10
  02ec0	e59d305c	 ldr         r3, [sp, #0x5C]
  02ec4	e2833034	 add         r3, r3, #0x34
  02ec8	e5933000	 ldr         r3, [r3]
  02ecc	e283300c	 add         r3, r3, #0xC
  02ed0	e5922000	 ldr         r2, [r2]
  02ed4	e5933000	 ldr         r3, [r3]
  02ed8	e1520003	 cmp         r2, r3
  02edc	3a000014	 bcc         |$LN6@IST@2|

; 576  :                 WriteControlStatusRegister(udccsr.ulValue);        

  02ee0	e59d100c	 ldr         r1, [sp, #0xC]
  02ee4	e59d005c	 ldr         r0, [sp, #0x5C]
  02ee8	eb000000	 bl          |?WriteControlStatusRegister@BulEndpoint@@QAAXK@Z|

; 577  :                 PSTransfer pTransfer = CompleteTransfer(UFN_NO_ERROR);

  02eec	e3a01000	 mov         r1, #0
  02ef0	e59d005c	 ldr         r0, [sp, #0x5C]
  02ef4	eb000000	 bl          |?CompleteTransfer@BulEndpoint@@IAAPAU_STransfer@@K@Z|
  02ef8	e58d003c	 str         r0, [sp, #0x3C]
  02efc	e59d303c	 ldr         r3, [sp, #0x3C]
  02f00	e58d3018	 str         r3, [sp, #0x18]

; 578  :                 Unlock();

  02f04	e59d305c	 ldr         r3, [sp, #0x5C]
  02f08	e2830008	 add         r0, r3, #8
  02f0c	eb000000	 bl          |?Unlock@CLockObject@@QAAXXZ|

; 579  :                 m_pUsbDevice->MddTransferComplete(pTransfer);

  02f10	e59d1018	 ldr         r1, [sp, #0x18]
  02f14	e59d305c	 ldr         r3, [sp, #0x5C]
  02f18	e283301c	 add         r3, r3, #0x1C
  02f1c	e5930000	 ldr         r0, [r3]
  02f20	eb000000	 bl          |?MddTransferComplete@BulUsbDevice@@QAAXPAU_STransfer@@@Z|

; 580  :                 Lock();                

  02f24	e59d305c	 ldr         r3, [sp, #0x5C]
  02f28	e2830008	 add         r0, r3, #8
  02f2c	eb000000	 bl          |?Lock@CLockObject@@QAAXXZ|

; 581  :                 continue;

  02f30	eaffff6f	 b           |$LN41@IST@2|
  02f34		 |$LN6@IST@2|

; 582  :             }
; 583  :             bContinue = TRUE;

  02f34	e3a03001	 mov         r3, #1
  02f38	e58d3000	 str         r3, [sp]
  02f3c		 |$LN8@IST@2|

; 584  :         }
; 585  :         udccsr.epbit.SP = 0;

  02f3c	e59d200c	 ldr         r2, [sp, #0xC]
  02f40	e3e03080	 mvn         r3, #0x80
  02f44	e0023003	 and         r3, r2, r3
  02f48	e58d300c	 str         r3, [sp, #0xC]

; 586  :         if ( udccsr.epbit.FS!=0 && m_pCurTransfer!=NULL  && 
; 587  :                 (m_pCurTransfer->cbTransferred < m_pCurTransfer->cbBuffer || m_fZeroPacket) )  { // Include Eaqual for 0 packet.

  02f4c	e59d300c	 ldr         r3, [sp, #0xC]
  02f50	e3130001	 tst         r3, #1
  02f54	0a000076	 beq         |$LN5@IST@2|
  02f58	e59d305c	 ldr         r3, [sp, #0x5C]
  02f5c	e2833034	 add         r3, r3, #0x34
  02f60	e5933000	 ldr         r3, [r3]
  02f64	e3530000	 cmp         r3, #0
  02f68	0a000071	 beq         |$LN5@IST@2|
  02f6c	e59d305c	 ldr         r3, [sp, #0x5C]
  02f70	e2833034	 add         r3, r3, #0x34
  02f74	e5933000	 ldr         r3, [r3]
  02f78	e2832010	 add         r2, r3, #0x10
  02f7c	e59d305c	 ldr         r3, [sp, #0x5C]
  02f80	e2833034	 add         r3, r3, #0x34
  02f84	e5933000	 ldr         r3, [r3]
  02f88	e283300c	 add         r3, r3, #0xC
  02f8c	e5922000	 ldr         r2, [r2]
  02f90	e5933000	 ldr         r3, [r3]
  02f94	e1520003	 cmp         r2, r3
  02f98	3a000004	 bcc         |$LN4@IST@2|
  02f9c	e59d305c	 ldr         r3, [sp, #0x5C]
  02fa0	e2833038	 add         r3, r3, #0x38
  02fa4	e5933000	 ldr         r3, [r3]
  02fa8	e3530000	 cmp         r3, #0
  02fac	0a000060	 beq         |$LN5@IST@2|
  02fb0		 |$LN4@IST@2|

; 588  :             ASSERT((m_pCurTransfer->dwFlags & USB_IN_TRANSFER)!=NULL);

  02fb0	e59d305c	 ldr         r3, [sp, #0x5C]
  02fb4	e2833034	 add         r3, r3, #0x34
  02fb8	e5933000	 ldr         r3, [r3]
  02fbc	e5933000	 ldr         r3, [r3]
  02fc0	e3130080	 tst         r3, #0x80
  02fc4	0a000002	 beq         |$LN28@IST@2|
  02fc8	e3a03001	 mov         r3, #1
  02fcc	e58d3040	 str         r3, [sp, #0x40]
  02fd0	ea000007	 b           |$LN29@IST@2|
  02fd4		 |$LN28@IST@2|
  02fd4	e3a03f93	 mov         r3, #0x93, 30
  02fd8	e59f22a0	 ldr         r2, [pc, #0x2A0]
  02fdc	e59f1298	 ldr         r1, [pc, #0x298]
  02fe0	e59f0290	 ldr         r0, [pc, #0x290]
  02fe4	eb000000	 bl          NKDbgPrintfW
  02fe8	e6000010	 __debugbreak_ce
  02fec	e3a03000	 mov         r3, #0
  02ff0	e58d3040	 str         r3, [sp, #0x40]
  02ff4		 |$LN29@IST@2|

; 589  :             DWORD dwXmitLength = (m_fZeroPacket?0:m_pCurTransfer->cbBuffer-m_pCurTransfer->cbTransferred);

  02ff4	e59d305c	 ldr         r3, [sp, #0x5C]
  02ff8	e2833038	 add         r3, r3, #0x38
  02ffc	e5933000	 ldr         r3, [r3]
  03000	e3530000	 cmp         r3, #0
  03004	0a000002	 beq         |$LN30@IST@2|
  03008	e3a03000	 mov         r3, #0
  0300c	e58d3044	 str         r3, [sp, #0x44]
  03010	ea00000b	 b           |$LN31@IST@2|
  03014		 |$LN30@IST@2|
  03014	e59d305c	 ldr         r3, [sp, #0x5C]
  03018	e2833034	 add         r3, r3, #0x34
  0301c	e5933000	 ldr         r3, [r3]
  03020	e283200c	 add         r2, r3, #0xC
  03024	e59d305c	 ldr         r3, [sp, #0x5C]
  03028	e2833034	 add         r3, r3, #0x34
  0302c	e5933000	 ldr         r3, [r3]
  03030	e2833010	 add         r3, r3, #0x10
  03034	e5922000	 ldr         r2, [r2]
  03038	e5933000	 ldr         r3, [r3]
  0303c	e0423003	 sub         r3, r2, r3
  03040	e58d3044	 str         r3, [sp, #0x44]
  03044		 |$LN31@IST@2|
  03044	e59d3044	 ldr         r3, [sp, #0x44]
  03048	e58d301c	 str         r3, [sp, #0x1C]

; 590  :             dwXmitLength = XmitData((PBYTE)m_pCurTransfer->pvBuffer + m_pCurTransfer->cbTransferred, dwXmitLength );

  0304c	e59d201c	 ldr         r2, [sp, #0x1C]
  03050	e59d305c	 ldr         r3, [sp, #0x5C]
  03054	e2833034	 add         r3, r3, #0x34
  03058	e5933000	 ldr         r3, [r3]
  0305c	e2831004	 add         r1, r3, #4
  03060	e59d305c	 ldr         r3, [sp, #0x5C]
  03064	e2833034	 add         r3, r3, #0x34
  03068	e5933000	 ldr         r3, [r3]
  0306c	e2833010	 add         r3, r3, #0x10
  03070	e5911000	 ldr         r1, [r1]
  03074	e5933000	 ldr         r3, [r3]
  03078	e0811003	 add         r1, r1, r3
  0307c	e59d005c	 ldr         r0, [sp, #0x5C]
  03080	eb000000	 bl          |?XmitData@BulEndpoint@@IAAKPAEK@Z|
  03084	e58d0048	 str         r0, [sp, #0x48]
  03088	e59d3048	 ldr         r3, [sp, #0x48]
  0308c	e58d301c	 str         r3, [sp, #0x1C]

; 591  :             m_pCurTransfer->cbTransferred += dwXmitLength;

  03090	e59d305c	 ldr         r3, [sp, #0x5C]
  03094	e2833034	 add         r3, r3, #0x34
  03098	e5933000	 ldr         r3, [r3]
  0309c	e2833010	 add         r3, r3, #0x10
  030a0	e5932000	 ldr         r2, [r3]
  030a4	e59d301c	 ldr         r3, [sp, #0x1C]
  030a8	e0822003	 add         r2, r2, r3
  030ac	e59d305c	 ldr         r3, [sp, #0x5C]
  030b0	e2833034	 add         r3, r3, #0x34
  030b4	e5933000	 ldr         r3, [r3]
  030b8	e2833010	 add         r3, r3, #0x10
  030bc	e5832000	 str         r2, [r3]

; 592  :             m_fZeroPacket = FALSE;

  030c0	e59d305c	 ldr         r3, [sp, #0x5C]
  030c4	e2832038	 add         r2, r3, #0x38
  030c8	e3a03000	 mov         r3, #0
  030cc	e5823000	 str         r3, [r2]

; 593  :             if (dwXmitLength < m_epDesc.wMaxPacketSize) {

  030d0	e59d305c	 ldr         r3, [sp, #0x5C]
  030d4	e2831028	 add         r1, r3, #0x28
  030d8	e5d13001	 ldrb        r3, [r1, #1]
  030dc	e1a03403	 mov         r3, r3, lsl #8
  030e0	e1a02803	 mov         r2, r3, lsl #16
  030e4	e1a02822	 mov         r2, r2, lsr #16
  030e8	e5d13000	 ldrb        r3, [r1]
  030ec	e1832002	 orr         r2, r3, r2
  030f0	e59d301c	 ldr         r3, [sp, #0x1C]
  030f4	e1530002	 cmp         r3, r2
  030f8	2a000007	 bcs         |$LN3@IST@2|

; 594  :                 udccsr.epbit.SP = 1;

  030fc	e59d300c	 ldr         r3, [sp, #0xC]
  03100	e3833080	 orr         r3, r3, #0x80
  03104	e58d300c	 str         r3, [sp, #0xC]

; 595  :                 m_fZeroPacket = FALSE;

  03108	e59d305c	 ldr         r3, [sp, #0x5C]
  0310c	e2832038	 add         r2, r3, #0x38
  03110	e3a03000	 mov         r3, #0
  03114	e5823000	 str         r3, [r2]

; 596  :             }
; 597  :             else

  03118	ea000003	 b           |$LN2@IST@2|
  0311c		 |$LN3@IST@2|

; 598  :                 m_fZeroPacket = FALSE;

  0311c	e59d305c	 ldr         r3, [sp, #0x5C]
  03120	e2832038	 add         r2, r3, #0x38
  03124	e3a03000	 mov         r3, #0
  03128	e5823000	 str         r3, [r2]
  0312c		 |$LN2@IST@2|

; 599  :             bContinue = TRUE;

  0312c	e3a03001	 mov         r3, #1
  03130	e58d3000	 str         r3, [sp]
  03134		 |$LN5@IST@2|

; 600  :         }
; 601  :         if (udccsr.epbit.SST) {

  03134	e59d300c	 ldr         r3, [sp, #0xC]
  03138	e3130010	 tst         r3, #0x10
  0313c	0a000029	 beq         |$LN1@IST@2|

; 602  :             DEBUGMSG(ZONE_WARNING, (_T("Stall send on In Endpoint = 0x%x"),m_dwEndpointIndex));

  03140	e59f3128	 ldr         r3, [pc, #0x128]
  03144	e5933440	 ldr         r3, [r3, #0x440]
  03148	e3130002	 tst         r3, #2
  0314c	0a000011	 beq         |$LN34@IST@2|
  03150	e59f3118	 ldr         r3, [pc, #0x118]
  03154	e5933440	 ldr         r3, [r3, #0x440]
  03158	e3130801	 tst         r3, #1, 16
  0315c	0a000005	 beq         |$LN32@IST@2|
  03160	e59d305c	 ldr         r3, [sp, #0x5C]
  03164	e2833020	 add         r3, r3, #0x20
  03168	e5931000	 ldr         r1, [r3]
  0316c	e59f0100	 ldr         r0, [pc, #0x100]
  03170	eb000000	 bl          CeLogMsg
  03174	ea000004	 b           |$LN33@IST@2|
  03178		 |$LN32@IST@2|
  03178	e59d305c	 ldr         r3, [sp, #0x5C]
  0317c	e2833020	 add         r3, r3, #0x20
  03180	e5931000	 ldr         r1, [r3]
  03184	e59f00e8	 ldr         r0, [pc, #0xE8]
  03188	eb000000	 bl          NKDbgPrintfW
  0318c		 |$LN33@IST@2|
  0318c	e3a03001	 mov         r3, #1
  03190	e58d304c	 str         r3, [sp, #0x4C]
  03194	ea000001	 b           |$LN35@IST@2|
  03198		 |$LN34@IST@2|
  03198	e3a03000	 mov         r3, #0
  0319c	e58d304c	 str         r3, [sp, #0x4C]
  031a0		 |$LN35@IST@2|

; 603  :             // We have to assume we clean stall here because this no more interrupt.
; 604  :             udccsr.epbit.FST = 0 ;

  031a0	e59d200c	 ldr         r2, [sp, #0xC]
  031a4	e3e03020	 mvn         r3, #0x20
  031a8	e0023003	 and         r3, r2, r3
  031ac	e58d300c	 str         r3, [sp, #0xC]

; 605  :             m_fStalled = FALSE;

  031b0	e59d305c	 ldr         r3, [sp, #0x5C]
  031b4	e283203c	 add         r2, r3, #0x3C
  031b8	e3a03000	 mov         r3, #0
  031bc	e5823000	 str         r3, [r2]

; 606  :             bContinue = TRUE;

  031c0	e3a03001	 mov         r3, #1
  031c4	e58d3000	 str         r3, [sp]

; 607  :             WriteControlStatusRegister(udccsr.ulValue);        

  031c8	e59d100c	 ldr         r1, [sp, #0xC]
  031cc	e59d005c	 ldr         r0, [sp, #0x5C]
  031d0	eb000000	 bl          |?WriteControlStatusRegister@BulEndpoint@@QAAXK@Z|

; 608  :             SendFakeFeature(USB_REQUEST_CLEAR_FEATURE,USB_FEATURE_ENDPOINT_STALL);

  031d4	e3a02000	 mov         r2, #0
  031d8	e3a01001	 mov         r1, #1
  031dc	e59d005c	 ldr         r0, [sp, #0x5C]
  031e0	eb000000	 bl          |?SendFakeFeature@BulEndpoint@@IAAXEG@Z|

; 609  :             continue;

  031e4	eafffec2	 b           |$LN42@IST@2|
  031e8		 |$LN1@IST@2|

; 610  :         }
; 611  :         WriteControlStatusRegister(udccsr.ulValue);        

  031e8	e59d100c	 ldr         r1, [sp, #0xC]
  031ec	e59d005c	 ldr         r0, [sp, #0x5C]
  031f0	eb000000	 bl          |?WriteControlStatusRegister@BulEndpoint@@QAAXK@Z|

; 612  :     }

  031f4	eafffebe	 b           |$LN43@IST@2|
  031f8		 |$LN11@IST@2|

; 613  :     Unlock();

  031f8	e59d305c	 ldr         r3, [sp, #0x5C]
  031fc	e2830008	 add         r0, r3, #8
  03200	eb000000	 bl          |?Unlock@CLockObject@@QAAXXZ|

; 614  :     FUNCTION_LEAVE_MSG();

  03204	e59f3064	 ldr         r3, [pc, #0x64]
  03208	e5933440	 ldr         r3, [r3, #0x440]
  0320c	e3130a01	 tst         r3, #1, 20
  03210	0a00000d	 beq         |$LN38@IST@2|
  03214	e59f3054	 ldr         r3, [pc, #0x54]
  03218	e5933440	 ldr         r3, [r3, #0x440]
  0321c	e3130801	 tst         r3, #1, 16
  03220	0a000003	 beq         |$LN36@IST@2|
  03224	e59d1004	 ldr         r1, [sp, #4]
  03228	e59f003c	 ldr         r0, [pc, #0x3C]
  0322c	eb000000	 bl          CeLogMsg
  03230	ea000002	 b           |$LN37@IST@2|
  03234		 |$LN36@IST@2|
  03234	e59d1004	 ldr         r1, [sp, #4]
  03238	e59f002c	 ldr         r0, [pc, #0x2C]
  0323c	eb000000	 bl          NKDbgPrintfW
  03240		 |$LN37@IST@2|
  03240	e3a03001	 mov         r3, #1
  03244	e58d3050	 str         r3, [sp, #0x50]
  03248	ea000001	 b           |$LN39@IST@2|
  0324c		 |$LN38@IST@2|
  0324c	e3a03000	 mov         r3, #0
  03250	e58d3050	 str         r3, [sp, #0x50]
  03254		 |$LN39@IST@2|

; 615  :     return ERROR_SUCCESS;

  03254	e3a03000	 mov         r3, #0
  03258	e58d3020	 str         r3, [sp, #0x20]

; 616  : }

  0325c	e59d0020	 ldr         r0, [sp, #0x20]
  03260	e28dd054	 add         sp, sp, #0x54
  03264	e89d6000	 ldmia       sp, {sp, lr}
  03268	e12fff1e	 bx          lr
  0326c		 |$LN47@IST@2|
  0326c		 |$LN48@IST@2|
  0326c	00000000	 DCD         |??_C@_1BA@PLOOFDPK@?$AA?$CF?$AAs?$AA?5?$AA?9?$AA?9?$AA?$AN?$AA?6?$AA?$AA@|
  03270		 |$LN49@IST@2|
  03270	00000000	 DCD         |dpCurSettings|
  03274		 |$LN50@IST@2|
  03274	00000000	 DCD         |??_C@_1EC@IBECJFKF@?$AAS?$AAt?$AAa?$AAl?$AAl?$AA?5?$AAs?$AAe?$AAn?$AAd?$AA?5?$AAo?$AAn?$AA?5?$AAI?$AAn?$AA?5?$AAE?$AAn?$AAd?$AAp?$AAo?$AAi?$AAn?$AAt?$AA?5?$AA?$DN?$AA?5?$AA0?$AAx?$AA?$CF?$AAx@|
  03278		 |$LN51@IST@2|
  03278	00000000	 DCD         |??_C@_1FK@FNONLNGN@?$AA?$CF?$AAs?$AA?3?$AA?5?$AAD?$AAE?$AAB?$AAU?$AAG?$AAC?$AAH?$AAK?$AA?5?$AAf?$AAa?$AAi?$AAl?$AAe?$AAd?$AA?5?$AAi?$AAn?$AA?5?$AAf?$AAi?$AAl?$AAe?$AA?5?$AA?$CF?$AAs?$AA?5?$AAa@|
  0327c		 |$LN52@IST@2|
  0327c	00000000	 DCD         |??_C@_1BA@LEPJIIOK@?$AAU?$AAn?$AAk?$AAn?$AAo?$AAw?$AAn?$AA?$AA@|
  03280		 |$LN53@IST@2|
  03280	00000000	 DCD         |??_C@_1IO@HHHNJPIB@?$AAC?$AA?3?$AA?2?$AAW?$AAI?$AAN?$AAC?$AAE?$AA6?$AA0?$AA0?$AA?2?$AAP?$AAL?$AAA?$AAT?$AAF?$AAO?$AAR?$AAM?$AA?2?$AAC?$AAO?$AAM?$AAM?$AAO?$AAN?$AA?2?$AAS?$AAR?$AAC?$AA?2@|
  03284		 |$LN54@IST@2|
  03284	00000000	 DCD         |??_C@_1DC@JFMFPEIA@?$AA?5?$AAI?$AAN?$AA?3?$AA?3?$AAI?$AAS?$AAT?$AA?$CI?$AA?$CF?$AAd?$AA?$CJ?$AA?5?$AAU?$AAD?$AAC?$AAC?$AAS?$AAR?$AA?$DN?$AA0?$AAx?$AA?$CF?$AAx?$AA?$AA@|
  03288		 |$LN55@IST@2|
  03288	00000000	 DCD         |??_C@_1FE@HEAJCENN@?$AAF?$AAI?$AAF?$AAO?$AA?5?$AAE?$AAr?$AAr?$AAo?$AAr?$AA?5?$AAo?$AAn?$AA?5?$AAE?$AAn?$AAd?$AAp?$AAo?$AAi?$AAn?$AAt?$AA?5?$AAI?$AAN?$AA?$CI?$AA?$CF?$AAd?$AA?$CJ?$AA?5?$AAU?$AAD@|
  0328c		 |$LN56@IST@2|
  0328c	00000000	 DCD         |??_C@_1BA@DAJPCKDK@?$AA?$CF?$AAs?$AA?5?$AA?$CL?$AA?$CL?$AA?$AN?$AA?6?$AA?$AA@|
  03290		 |$LN57@IST@2|
  03290	00000000	 DCD         |??_C@_1EG@CJNMDKIL@?$AAb?$AAu?$AAl?$AAv?$AAe?$AAr?$AAd?$AAe?$AA_?$AAu?$AAs?$AAb?$AAf?$AAn?$AA?$CB?$AAB?$AAu?$AAl?$AAE?$AAn?$AAd?$AAp?$AAo?$AAi?$AAn?$AAt?$AAI?$AAn?$AA?3?$AA?3?$AAI?$AAS@|
  03294		 |$M38779|

			 ENDP  ; |?IST@BulEndpointIn@@UAAKK@Z|, BulEndpointIn::IST

	EXPORT	|??_C@_1EC@MGJFFJLP@?$AAS?$AAt?$AAa?$AAl?$AAl?$AA?5?$AAS?$AAe?$AAn?$AAt?$AA?5?$AAo?$AAn?$AA?5?$AAO?$AAu?$AAt?$AA?5?$AAe?$AAn?$AAd?$AAp?$AAo?$AAi?$AAn?$AAt?$AA?5?$AA?$DN?$AA0?$AAx?$AA?$CF?$AAx@| [ DATA ] ; `string'
	EXPORT	|??_C@_1DE@IPDKJPKH@?$AA?5?$AAO?$AAu?$AAt?$AA?3?$AA?3?$AAI?$AAS?$AAT?$AA?$CI?$AA?$CF?$AAd?$AA?$CJ?$AA?5?$AAU?$AAD?$AAC?$AAC?$AAS?$AAR?$AA?$DN?$AA0?$AAx?$AA?$CF?$AAx?$AA?$AA@| [ DATA ] ; `string'
	EXPORT	|??_C@_1FG@DKDHEGFG@?$AAF?$AAI?$AAF?$AAO?$AA?5?$AAE?$AAr?$AAr?$AAo?$AAr?$AA?5?$AAo?$AAn?$AA?5?$AAE?$AAn?$AAd?$AAp?$AAo?$AAi?$AAn?$AAt?$AA?5?$AAO?$AAu?$AAt?$AA?$CI?$AA?$CF?$AAd?$AA?$CJ?$AA?5?$AAU@| [ DATA ] ; `string'
	EXPORT	|??_C@_1EI@IDCFDOMP@?$AAb?$AAu?$AAl?$AAv?$AAe?$AAr?$AAd?$AAe?$AA_?$AAu?$AAs?$AAb?$AAf?$AAn?$AA?$CB?$AAB?$AAu?$AAl?$AAE?$AAn?$AAd?$AAp?$AAo?$AAi?$AAn?$AAt?$AAO?$AAu?$AAt?$AA?3?$AA?3?$AAI@| [ DATA ] ; `string'
	EXPORT	|?IST@BulEndpointOut@@UAAKK@Z|		; BulEndpointOut::IST

  000a0			 AREA	 |.pdata|, PDATA
|$T38829| DCD	|$LN55@IST@3|
	DCD	0x40021f04

  00000			 AREA	 |.rdata|, DATA, READONLY
|??_C@_1EC@MGJFFJLP@?$AAS?$AAt?$AAa?$AAl?$AAl?$AA?5?$AAS?$AAe?$AAn?$AAt?$AA?5?$AAo?$AAn?$AA?5?$AAO?$AAu?$AAt?$AA?5?$AAe?$AAn?$AAd?$AAp?$AAo?$AAi?$AAn?$AAt?$AA?5?$AA?$DN?$AA0?$AAx?$AA?$CF?$AAx@| DCB "S"
	DCB	0x0, "t", 0x0, "a", 0x0, "l", 0x0, "l", 0x0, " ", 0x0, "S"
	DCB	0x0, "e", 0x0, "n", 0x0, "t", 0x0, " ", 0x0, "o", 0x0, "n"
	DCB	0x0, " ", 0x0, "O", 0x0, "u", 0x0, "t", 0x0, " ", 0x0, "e"
	DCB	0x0, "n", 0x0, "d", 0x0, "p", 0x0, "o", 0x0, "i", 0x0, "n"
	DCB	0x0, "t", 0x0, " ", 0x0, "=", 0x0, "0", 0x0, "x", 0x0, "%"
	DCB	0x0, "x", 0x0, 0x0, 0x0			; `string'

  00000			 AREA	 |.rdata|, DATA, READONLY
|??_C@_1DE@IPDKJPKH@?$AA?5?$AAO?$AAu?$AAt?$AA?3?$AA?3?$AAI?$AAS?$AAT?$AA?$CI?$AA?$CF?$AAd?$AA?$CJ?$AA?5?$AAU?$AAD?$AAC?$AAC?$AAS?$AAR?$AA?$DN?$AA0?$AAx?$AA?$CF?$AAx?$AA?$AA@| DCB " "
	DCB	0x0, "O", 0x0, "u", 0x0, "t", 0x0, ":", 0x0, ":", 0x0, "I"
	DCB	0x0, "S", 0x0, "T", 0x0, "(", 0x0, "%", 0x0, "d", 0x0, ")"
	DCB	0x0, " ", 0x0, "U", 0x0, "D", 0x0, "C", 0x0, "C", 0x0, "S"
	DCB	0x0, "R", 0x0, "=", 0x0, "0", 0x0, "x", 0x0, "%", 0x0, "x"
	DCB	0x0, 0x0, 0x0				; `string'

  00000			 AREA	 |.rdata|, DATA, READONLY
|??_C@_1FG@DKDHEGFG@?$AAF?$AAI?$AAF?$AAO?$AA?5?$AAE?$AAr?$AAr?$AAo?$AAr?$AA?5?$AAo?$AAn?$AA?5?$AAE?$AAn?$AAd?$AAp?$AAo?$AAi?$AAn?$AAt?$AA?5?$AAO?$AAu?$AAt?$AA?$CI?$AA?$CF?$AAd?$AA?$CJ?$AA?5?$AAU@| DCB "F"
	DCB	0x0, "I", 0x0, "F", 0x0, "O", 0x0, " ", 0x0, "E", 0x0, "r"
	DCB	0x0, "r", 0x0, "o", 0x0, "r", 0x0, " ", 0x0, "o", 0x0, "n"
	DCB	0x0, " ", 0x0, "E", 0x0, "n", 0x0, "d", 0x0, "p", 0x0, "o"
	DCB	0x0, "i", 0x0, "n", 0x0, "t", 0x0, " ", 0x0, "O", 0x0, "u"
	DCB	0x0, "t", 0x0, "(", 0x0, "%", 0x0, "d", 0x0, ")", 0x0, " "
	DCB	0x0, "U", 0x0, "D", 0x0, "C", 0x0, "C", 0x0, "S", 0x0, "R"
	DCB	0x0, "=", 0x0, "0", 0x0, "x", 0x0, "%", 0x0, "x", 0x0, 0x0
	DCB	0x0					; `string'

  00000			 AREA	 |.rdata|, DATA, READONLY
|??_C@_1EI@IDCFDOMP@?$AAb?$AAu?$AAl?$AAv?$AAe?$AAr?$AAd?$AAe?$AA_?$AAu?$AAs?$AAb?$AAf?$AAn?$AA?$CB?$AAB?$AAu?$AAl?$AAE?$AAn?$AAd?$AAp?$AAo?$AAi?$AAn?$AAt?$AAO?$AAu?$AAt?$AA?3?$AA?3?$AAI@| DCB "b"
	DCB	0x0, "u", 0x0, "l", 0x0, "v", 0x0, "e", 0x0, "r", 0x0, "d"
	DCB	0x0, "e", 0x0, "_", 0x0, "u", 0x0, "s", 0x0, "b", 0x0, "f"
	DCB	0x0, "n", 0x0, "!", 0x0, "B", 0x0, "u", 0x0, "l", 0x0, "E"
	DCB	0x0, "n", 0x0, "d", 0x0, "p", 0x0, "o", 0x0, "i", 0x0, "n"
	DCB	0x0, "t", 0x0, "O", 0x0, "u", 0x0, "t", 0x0, ":", 0x0, ":"
	DCB	0x0, "I", 0x0, "S", 0x0, "T", 0x0, ":", 0x0, 0x0, 0x0 ; `string'
; Function compile flags: /Odtp

  03294			 AREA	 |.text|, CODE, ARM

  03294		 |?IST@BulEndpointOut@@UAAKK@Z| PROC	; BulEndpointOut::IST

; 618  : {

  03294		 |$LN55@IST@3|
  03294	e1a0c00d	 mov         r12, sp
  03298	e92d0003	 stmdb       sp!, {r0, r1}
  0329c	e92d5000	 stmdb       sp!, {r12, lr}
  032a0	e24dd084	 sub         sp, sp, #0x84
  032a4		 |$M38826|

; 619  :     Lock();

  032a4	e59d308c	 ldr         r3, [sp, #0x8C]
  032a8	e2830008	 add         r0, r3, #8
  032ac	eb000000	 bl          |?Lock@CLockObject@@QAAXXZ|

; 620  :     BOOL bContinue = TRUE;

  032b0	e3a03001	 mov         r3, #1
  032b4	e58d3000	 str         r3, [sp]

; 621  :     SETFNAME();

  032b8	e59f384c	 ldr         r3, [pc, #0x84C]
  032bc	e58d3004	 str         r3, [sp, #4]

; 622  :     FUNCTION_ENTER_MSG();

  032c0	e59f3830	 ldr         r3, [pc, #0x830]
  032c4	e5933440	 ldr         r3, [r3, #0x440]
  032c8	e3130a01	 tst         r3, #1, 20
  032cc	0a00000d	 beq         |$LN24@IST@3|
  032d0	e59f3820	 ldr         r3, [pc, #0x820]
  032d4	e5933440	 ldr         r3, [r3, #0x440]
  032d8	e3130801	 tst         r3, #1, 16
  032dc	0a000003	 beq         |$LN22@IST@3|
  032e0	e59d1004	 ldr         r1, [sp, #4]
  032e4	e59f081c	 ldr         r0, [pc, #0x81C]
  032e8	eb000000	 bl          CeLogMsg
  032ec	ea000002	 b           |$LN23@IST@3|
  032f0		 |$LN22@IST@3|
  032f0	e59d1004	 ldr         r1, [sp, #4]
  032f4	e59f080c	 ldr         r0, [pc, #0x80C]
  032f8	eb000000	 bl          NKDbgPrintfW
  032fc		 |$LN23@IST@3|
  032fc	e3a03001	 mov         r3, #1
  03300	e58d3034	 str         r3, [sp, #0x34]
  03304	ea000001	 b           |$LN25@IST@3|
  03308		 |$LN24@IST@3|
  03308	e3a03000	 mov         r3, #0
  0330c	e58d3034	 str         r3, [sp, #0x34]
  03310		 |$LN25@IST@3|

; 623  :     if ((dwIRBit & EPINT_FIFO_ERROR)!=0) { // FIFO Error. End

  03310	e59d3090	 ldr         r3, [sp, #0x90]
  03314	e3130002	 tst         r3, #2
  03318	0a00001e	 beq         |$LN19@IST@3|

; 624  :         DWORD dwUdccsr;
; 625  :         dwUdccsr = ReadControlStatusRegister();

  0331c	e59d008c	 ldr         r0, [sp, #0x8C]
  03320	eb000000	 bl          |?ReadControlStatusRegister@BulEndpoint@@QAAKXZ|
  03324	e58d0038	 str         r0, [sp, #0x38]
  03328	e59d3038	 ldr         r3, [sp, #0x38]
  0332c	e58d3008	 str         r3, [sp, #8]

; 626  :         DEBUGMSG(ZONE_WARNING, (_T("FIFO Error on Endpoint Out(%d) UDCCSR=0x%x"),m_dwEndpointIndex,dwUdccsr));

  03330	e59f37c0	 ldr         r3, [pc, #0x7C0]
  03334	e5933440	 ldr         r3, [r3, #0x440]
  03338	e3130002	 tst         r3, #2
  0333c	0a000013	 beq         |$LN28@IST@3|
  03340	e59f37b0	 ldr         r3, [pc, #0x7B0]
  03344	e5933440	 ldr         r3, [r3, #0x440]
  03348	e3130801	 tst         r3, #1, 16
  0334c	0a000006	 beq         |$LN26@IST@3|
  03350	e59d2008	 ldr         r2, [sp, #8]
  03354	e59d308c	 ldr         r3, [sp, #0x8C]
  03358	e2833020	 add         r3, r3, #0x20
  0335c	e5931000	 ldr         r1, [r3]
  03360	e59f079c	 ldr         r0, [pc, #0x79C]
  03364	eb000000	 bl          CeLogMsg
  03368	ea000005	 b           |$LN27@IST@3|
  0336c		 |$LN26@IST@3|
  0336c	e59d2008	 ldr         r2, [sp, #8]
  03370	e59d308c	 ldr         r3, [sp, #0x8C]
  03374	e2833020	 add         r3, r3, #0x20
  03378	e5931000	 ldr         r1, [r3]
  0337c	e59f0780	 ldr         r0, [pc, #0x780]
  03380	eb000000	 bl          NKDbgPrintfW
  03384		 |$LN27@IST@3|
  03384	e3a03001	 mov         r3, #1
  03388	e58d303c	 str         r3, [sp, #0x3C]
  0338c	ea000001	 b           |$LN29@IST@3|
  03390		 |$LN28@IST@3|
  03390	e3a03000	 mov         r3, #0
  03394	e58d303c	 str         r3, [sp, #0x3C]
  03398		 |$LN29@IST@3|
  03398		 |$LN19@IST@3|
  03398		 |$LN52@IST@3|
  03398		 |$LN51@IST@3|
  03398		 |$LN50@IST@3|
  03398		 |$LN49@IST@3|
  03398		 |$LN48@IST@3|
  03398		 |$LN18@IST@3|

; 627  :     }
; 628  : 
; 629  :     while (bContinue) {

  03398	e59d3000	 ldr         r3, [sp]
  0339c	e3530000	 cmp         r3, #0
  033a0	0a0001b6	 beq         |$LN17@IST@3|

; 630  :         bContinue = FALSE;

  033a4	e3a03000	 mov         r3, #0
  033a8	e58d3000	 str         r3, [sp]

; 631  :         UDCCSR udccsr;
; 632  :         udccsr.ulValue = ReadControlStatusRegister();

  033ac	e59d008c	 ldr         r0, [sp, #0x8C]
  033b0	eb000000	 bl          |?ReadControlStatusRegister@BulEndpoint@@QAAKXZ|
  033b4	e58d0040	 str         r0, [sp, #0x40]
  033b8	e59d3040	 ldr         r3, [sp, #0x40]
  033bc	e58d300c	 str         r3, [sp, #0xC]

; 633  :         DEBUGMSG(ZONE_TRANSFER, (_T(" Out::IST(%d) UDCCSR=0x%x"),m_dwEndpointIndex,udccsr.ulValue));

  033c0	e59f3730	 ldr         r3, [pc, #0x730]
  033c4	e5933440	 ldr         r3, [r3, #0x440]
  033c8	e3130008	 tst         r3, #8
  033cc	0a000013	 beq         |$LN32@IST@3|
  033d0	e59f3720	 ldr         r3, [pc, #0x720]
  033d4	e5933440	 ldr         r3, [r3, #0x440]
  033d8	e3130801	 tst         r3, #1, 16
  033dc	0a000006	 beq         |$LN30@IST@3|
  033e0	e59d200c	 ldr         r2, [sp, #0xC]
  033e4	e59d308c	 ldr         r3, [sp, #0x8C]
  033e8	e2833020	 add         r3, r3, #0x20
  033ec	e5931000	 ldr         r1, [r3]
  033f0	e59f0708	 ldr         r0, [pc, #0x708]
  033f4	eb000000	 bl          CeLogMsg
  033f8	ea000005	 b           |$LN31@IST@3|
  033fc		 |$LN30@IST@3|
  033fc	e59d200c	 ldr         r2, [sp, #0xC]
  03400	e59d308c	 ldr         r3, [sp, #0x8C]
  03404	e2833020	 add         r3, r3, #0x20
  03408	e5931000	 ldr         r1, [r3]
  0340c	e59f06ec	 ldr         r0, [pc, #0x6EC]
  03410	eb000000	 bl          NKDbgPrintfW
  03414		 |$LN31@IST@3|
  03414	e3a03001	 mov         r3, #1
  03418	e58d3044	 str         r3, [sp, #0x44]
  0341c	ea000001	 b           |$LN33@IST@3|
  03420		 |$LN32@IST@3|
  03420	e3a03000	 mov         r3, #0
  03424	e58d3044	 str         r3, [sp, #0x44]
  03428		 |$LN33@IST@3|

; 634  :         if (m_fStalled && (udccsr.epbit.PC!=0 || udccsr.epbit.TRN!=0) ) {

  03428	e59d308c	 ldr         r3, [sp, #0x8C]
  0342c	e283303c	 add         r3, r3, #0x3C
  03430	e5933000	 ldr         r3, [r3]
  03434	e3530000	 cmp         r3, #0
  03438	0a00001f	 beq         |$LN16@IST@3|
  0343c	e59d300c	 ldr         r3, [sp, #0xC]
  03440	e3130002	 tst         r3, #2
  03444	1a000002	 bne         |$LN15@IST@3|
  03448	e59d300c	 ldr         r3, [sp, #0xC]
  0344c	e3130004	 tst         r3, #4
  03450	0a000019	 beq         |$LN16@IST@3|
  03454		 |$LN15@IST@3|

; 635  :             // Stall has been clear silently. So we generate Faking Clear Feature for Endpoint Zero
; 636  :             m_fStalled = FALSE;

  03454	e59d308c	 ldr         r3, [sp, #0x8C]
  03458	e283203c	 add         r2, r3, #0x3C
  0345c	e3a03000	 mov         r3, #0
  03460	e5823000	 str         r3, [r2]

; 637  :             udccsr.epbit.PC = udccsr.epbit.TRN = udccsr.epbit.FEF = 0;

  03464	e59d200c	 ldr         r2, [sp, #0xC]
  03468	e3e03c01	 mvn         r3, #1, 24
  0346c	e0023003	 and         r3, r2, r3
  03470	e58d300c	 str         r3, [sp, #0xC]
  03474	e59d200c	 ldr         r2, [sp, #0xC]
  03478	e3e03004	 mvn         r3, #4
  0347c	e0023003	 and         r3, r2, r3
  03480	e58d300c	 str         r3, [sp, #0xC]
  03484	e59d200c	 ldr         r2, [sp, #0xC]
  03488	e3e03002	 mvn         r3, #2
  0348c	e0023003	 and         r3, r2, r3
  03490	e58d300c	 str         r3, [sp, #0xC]

; 638  :             WriteControlStatusRegister(udccsr.ulValue);

  03494	e59d100c	 ldr         r1, [sp, #0xC]
  03498	e59d008c	 ldr         r0, [sp, #0x8C]
  0349c	eb000000	 bl          |?WriteControlStatusRegister@BulEndpoint@@QAAXK@Z|

; 639  :             bContinue = TRUE;

  034a0	e3a03001	 mov         r3, #1
  034a4	e58d3000	 str         r3, [sp]

; 640  :             SendFakeFeature(USB_REQUEST_CLEAR_FEATURE,USB_FEATURE_ENDPOINT_STALL);

  034a8	e3a02000	 mov         r2, #0
  034ac	e3a01001	 mov         r1, #1
  034b0	e59d008c	 ldr         r0, [sp, #0x8C]
  034b4	eb000000	 bl          |?SendFakeFeature@BulEndpoint@@IAAXEG@Z|

; 641  :             continue;

  034b8	eaffffb6	 b           |$LN18@IST@3|
  034bc		 |$LN16@IST@3|

; 642  :         }
; 643  :         // Unload in data if there is any
; 644  :         if  ( udccsr.epbit.FS!=0 && m_pCurTransfer!=NULL  && 
; 645  :                 m_pCurTransfer->cbTransferred < m_pCurTransfer->cbBuffer)  { // Include Eaqual for 0 packet.

  034bc	e59d300c	 ldr         r3, [sp, #0xC]
  034c0	e3130001	 tst         r3, #1
  034c4	0a000076	 beq         |$LN14@IST@3|
  034c8	e59d308c	 ldr         r3, [sp, #0x8C]
  034cc	e2833034	 add         r3, r3, #0x34
  034d0	e5933000	 ldr         r3, [r3]
  034d4	e3530000	 cmp         r3, #0
  034d8	0a000071	 beq         |$LN14@IST@3|
  034dc	e59d308c	 ldr         r3, [sp, #0x8C]
  034e0	e2833034	 add         r3, r3, #0x34
  034e4	e5933000	 ldr         r3, [r3]
  034e8	e2832010	 add         r2, r3, #0x10
  034ec	e59d308c	 ldr         r3, [sp, #0x8C]
  034f0	e2833034	 add         r3, r3, #0x34
  034f4	e5933000	 ldr         r3, [r3]
  034f8	e283300c	 add         r3, r3, #0xC
  034fc	e5922000	 ldr         r2, [r2]
  03500	e5933000	 ldr         r3, [r3]
  03504	e1520003	 cmp         r2, r3
  03508	2a000065	 bcs         |$LN14@IST@3|

; 646  :             DWORD dwReceiveLength = min (ReadByteCountRegister(),m_pCurTransfer->cbBuffer - m_pCurTransfer->cbTransferred);

  0350c	e59d008c	 ldr         r0, [sp, #0x8C]
  03510	eb000000	 bl          |?ReadByteCountRegister@BulEndpoint@@QAAKXZ|
  03514	e58d0048	 str         r0, [sp, #0x48]
  03518	e59d308c	 ldr         r3, [sp, #0x8C]
  0351c	e2833034	 add         r3, r3, #0x34
  03520	e5933000	 ldr         r3, [r3]
  03524	e283200c	 add         r2, r3, #0xC
  03528	e59d308c	 ldr         r3, [sp, #0x8C]
  0352c	e2833034	 add         r3, r3, #0x34
  03530	e5933000	 ldr         r3, [r3]
  03534	e2833010	 add         r3, r3, #0x10
  03538	e5922000	 ldr         r2, [r2]
  0353c	e5933000	 ldr         r3, [r3]
  03540	e0422003	 sub         r2, r2, r3
  03544	e59d3048	 ldr         r3, [sp, #0x48]
  03548	e1530002	 cmp         r3, r2
  0354c	2a000005	 bcs         |$LN34@IST@3|
  03550	e59d008c	 ldr         r0, [sp, #0x8C]
  03554	eb000000	 bl          |?ReadByteCountRegister@BulEndpoint@@QAAKXZ|
  03558	e58d004c	 str         r0, [sp, #0x4C]
  0355c	e59d304c	 ldr         r3, [sp, #0x4C]
  03560	e58d3050	 str         r3, [sp, #0x50]
  03564	ea00000b	 b           |$LN35@IST@3|
  03568		 |$LN34@IST@3|
  03568	e59d308c	 ldr         r3, [sp, #0x8C]
  0356c	e2833034	 add         r3, r3, #0x34
  03570	e5933000	 ldr         r3, [r3]
  03574	e283200c	 add         r2, r3, #0xC
  03578	e59d308c	 ldr         r3, [sp, #0x8C]
  0357c	e2833034	 add         r3, r3, #0x34
  03580	e5933000	 ldr         r3, [r3]
  03584	e2833010	 add         r3, r3, #0x10
  03588	e5922000	 ldr         r2, [r2]
  0358c	e5933000	 ldr         r3, [r3]
  03590	e0423003	 sub         r3, r2, r3
  03594	e58d3050	 str         r3, [sp, #0x50]
  03598		 |$LN35@IST@3|
  03598	e59d3050	 ldr         r3, [sp, #0x50]
  0359c	e58d3014	 str         r3, [sp, #0x14]

; 647  :             dwReceiveLength = ReceiveData((PBYTE)m_pCurTransfer->pvBuffer + m_pCurTransfer->cbTransferred,dwReceiveLength);

  035a0	e59d2014	 ldr         r2, [sp, #0x14]
  035a4	e59d308c	 ldr         r3, [sp, #0x8C]
  035a8	e2833034	 add         r3, r3, #0x34
  035ac	e5933000	 ldr         r3, [r3]
  035b0	e2831004	 add         r1, r3, #4
  035b4	e59d308c	 ldr         r3, [sp, #0x8C]
  035b8	e2833034	 add         r3, r3, #0x34
  035bc	e5933000	 ldr         r3, [r3]
  035c0	e2833010	 add         r3, r3, #0x10
  035c4	e5911000	 ldr         r1, [r1]
  035c8	e5933000	 ldr         r3, [r3]
  035cc	e0811003	 add         r1, r1, r3
  035d0	e59d008c	 ldr         r0, [sp, #0x8C]
  035d4	eb000000	 bl          |?ReceiveData@BulEndpoint@@IAAKPAEK@Z|
  035d8	e58d0054	 str         r0, [sp, #0x54]
  035dc	e59d3054	 ldr         r3, [sp, #0x54]
  035e0	e58d3014	 str         r3, [sp, #0x14]

; 648  :             m_pCurTransfer->cbTransferred += dwReceiveLength;

  035e4	e59d308c	 ldr         r3, [sp, #0x8C]
  035e8	e2833034	 add         r3, r3, #0x34
  035ec	e5933000	 ldr         r3, [r3]
  035f0	e2833010	 add         r3, r3, #0x10
  035f4	e5932000	 ldr         r2, [r3]
  035f8	e59d3014	 ldr         r3, [sp, #0x14]
  035fc	e0822003	 add         r2, r2, r3
  03600	e59d308c	 ldr         r3, [sp, #0x8C]
  03604	e2833034	 add         r3, r3, #0x34
  03608	e5933000	 ldr         r3, [r3]
  0360c	e2833010	 add         r3, r3, #0x10
  03610	e5832000	 str         r2, [r3]

; 649  :             if (m_pCurTransfer->cbTransferred >= m_pCurTransfer->cbBuffer) {

  03614	e59d308c	 ldr         r3, [sp, #0x8C]
  03618	e2833034	 add         r3, r3, #0x34
  0361c	e5933000	 ldr         r3, [r3]
  03620	e2832010	 add         r2, r3, #0x10
  03624	e59d308c	 ldr         r3, [sp, #0x8C]
  03628	e2833034	 add         r3, r3, #0x34
  0362c	e5933000	 ldr         r3, [r3]
  03630	e283300c	 add         r3, r3, #0xC
  03634	e5922000	 ldr         r2, [r2]
  03638	e5933000	 ldr         r3, [r3]
  0363c	e1520003	 cmp         r2, r3
  03640	3a000015	 bcc         |$LN13@IST@3|

; 650  :                 WriteControlStatusRegister(udccsr.ulValue);

  03644	e59d100c	 ldr         r1, [sp, #0xC]
  03648	e59d008c	 ldr         r0, [sp, #0x8C]
  0364c	eb000000	 bl          |?WriteControlStatusRegister@BulEndpoint@@QAAXK@Z|

; 651  :                 PSTransfer pTransfer = CompleteTransfer(UFN_NO_ERROR);

  03650	e3a01000	 mov         r1, #0
  03654	e59d008c	 ldr         r0, [sp, #0x8C]
  03658	eb000000	 bl          |?CompleteTransfer@BulEndpoint@@IAAPAU_STransfer@@K@Z|
  0365c	e58d0058	 str         r0, [sp, #0x58]
  03660	e59d3058	 ldr         r3, [sp, #0x58]
  03664	e58d3018	 str         r3, [sp, #0x18]

; 652  :                 Unlock();

  03668	e59d308c	 ldr         r3, [sp, #0x8C]
  0366c	e2830008	 add         r0, r3, #8
  03670	eb000000	 bl          |?Unlock@CLockObject@@QAAXXZ|

; 653  :                 m_pUsbDevice->MddTransferComplete(pTransfer);

  03674	e59d1018	 ldr         r1, [sp, #0x18]
  03678	e59d308c	 ldr         r3, [sp, #0x8C]
  0367c	e283301c	 add         r3, r3, #0x1C
  03680	e5930000	 ldr         r0, [r3]
  03684	eb000000	 bl          |?MddTransferComplete@BulUsbDevice@@QAAXPAU_STransfer@@@Z|

; 654  :                 Lock();

  03688	e59d308c	 ldr         r3, [sp, #0x8C]
  0368c	e2830008	 add         r0, r3, #8
  03690	eb000000	 bl          |?Lock@CLockObject@@QAAXXZ|

; 655  :                 continue;

  03694	eaffff3f	 b           |$LN48@IST@3|

; 656  :             }
; 657  :             else

  03698	ea000001	 b           |$LN12@IST@3|
  0369c		 |$LN13@IST@3|

; 658  :                 bContinue = TRUE;

  0369c	e3a03001	 mov         r3, #1
  036a0	e58d3000	 str         r3, [sp]
  036a4		 |$LN12@IST@3|
  036a4		 |$LN14@IST@3|

; 659  :                 
; 660  :         }
; 661  :         if ( udccsr.epbit.PC!=0 ) { // Packet Complete.

  036a4	e59d300c	 ldr         r3, [sp, #0xC]
  036a8	e3130002	 tst         r3, #2
  036ac	0a0000cb	 beq         |$LN11@IST@3|

; 662  :             if (udccsr.epbit.DPE!=0 ) { // Data Packet Error

  036b0	e59d300c	 ldr         r3, [sp, #0xC]
  036b4	e3130c02	 tst         r3, #2, 24
  036b8	0a000015	 beq         |$LN10@IST@3|

; 663  :                 WriteControlStatusRegister(udccsr.ulValue);

  036bc	e59d100c	 ldr         r1, [sp, #0xC]
  036c0	e59d008c	 ldr         r0, [sp, #0x8C]
  036c4	eb000000	 bl          |?WriteControlStatusRegister@BulEndpoint@@QAAXK@Z|

; 664  :                 PSTransfer pTransfer = CompleteTransfer( UFN_NOT_COMPLETE_ERROR );

  036c8	e3a01c01	 mov         r1, #1, 24
  036cc	e3811003	 orr         r1, r1, #3
  036d0	e59d008c	 ldr         r0, [sp, #0x8C]
  036d4	eb000000	 bl          |?CompleteTransfer@BulEndpoint@@IAAPAU_STransfer@@K@Z|
  036d8	e58d005c	 str         r0, [sp, #0x5C]
  036dc	e59d305c	 ldr         r3, [sp, #0x5C]
  036e0	e58d301c	 str         r3, [sp, #0x1C]

; 665  :                 Unlock();

  036e4	e59d308c	 ldr         r3, [sp, #0x8C]
  036e8	e2830008	 add         r0, r3, #8
  036ec	eb000000	 bl          |?Unlock@CLockObject@@QAAXXZ|

; 666  :                 m_pUsbDevice->MddTransferComplete(pTransfer);

  036f0	e59d101c	 ldr         r1, [sp, #0x1C]
  036f4	e59d308c	 ldr         r3, [sp, #0x8C]
  036f8	e283301c	 add         r3, r3, #0x1C
  036fc	e5930000	 ldr         r0, [r3]
  03700	eb000000	 bl          |?MddTransferComplete@BulUsbDevice@@QAAXPAU_STransfer@@@Z|

; 667  :                 Lock();                

  03704	e59d308c	 ldr         r3, [sp, #0x8C]
  03708	e2830008	 add         r0, r3, #8
  0370c	eb000000	 bl          |?Lock@CLockObject@@QAAXXZ|

; 668  :                 continue;

  03710	eaffff20	 b           |$LN49@IST@3|
  03714		 |$LN10@IST@3|

; 669  :             }
; 670  :             if ( m_pCurTransfer) {

  03714	e59d308c	 ldr         r3, [sp, #0x8C]
  03718	e2833034	 add         r3, r3, #0x34
  0371c	e5933000	 ldr         r3, [r3]
  03720	e3530000	 cmp         r3, #0
  03724	0a0000a7	 beq         |$LN9@IST@3|

; 671  :                 BOOL fShortPacket = FALSE;

  03728	e3a03000	 mov         r3, #0
  0372c	e58d3020	 str         r3, [sp, #0x20]

; 672  :                 if (udccsr.epbit.BNE_BNF!=0 &&
; 673  :                         m_pCurTransfer->cbTransferred < m_pCurTransfer->cbBuffer)  { // Last Try.

  03730	e59d300c	 ldr         r3, [sp, #0xC]
  03734	e3130040	 tst         r3, #0x40
  03738	0a000062	 beq         |$LN8@IST@3|
  0373c	e59d308c	 ldr         r3, [sp, #0x8C]
  03740	e2833034	 add         r3, r3, #0x34
  03744	e5933000	 ldr         r3, [r3]
  03748	e2832010	 add         r2, r3, #0x10
  0374c	e59d308c	 ldr         r3, [sp, #0x8C]
  03750	e2833034	 add         r3, r3, #0x34
  03754	e5933000	 ldr         r3, [r3]
  03758	e283300c	 add         r3, r3, #0xC
  0375c	e5922000	 ldr         r2, [r2]
  03760	e5933000	 ldr         r3, [r3]
  03764	e1520003	 cmp         r2, r3
  03768	2a000056	 bcs         |$LN8@IST@3|

; 674  :                     DWORD dwReceiveLength = min (ReadByteCountRegister(),m_pCurTransfer->cbBuffer - m_pCurTransfer->cbTransferred);

  0376c	e59d008c	 ldr         r0, [sp, #0x8C]
  03770	eb000000	 bl          |?ReadByteCountRegister@BulEndpoint@@QAAKXZ|
  03774	e58d0060	 str         r0, [sp, #0x60]
  03778	e59d308c	 ldr         r3, [sp, #0x8C]
  0377c	e2833034	 add         r3, r3, #0x34
  03780	e5933000	 ldr         r3, [r3]
  03784	e283200c	 add         r2, r3, #0xC
  03788	e59d308c	 ldr         r3, [sp, #0x8C]
  0378c	e2833034	 add         r3, r3, #0x34
  03790	e5933000	 ldr         r3, [r3]
  03794	e2833010	 add         r3, r3, #0x10
  03798	e5922000	 ldr         r2, [r2]
  0379c	e5933000	 ldr         r3, [r3]
  037a0	e0422003	 sub         r2, r2, r3
  037a4	e59d3060	 ldr         r3, [sp, #0x60]
  037a8	e1530002	 cmp         r3, r2
  037ac	2a000005	 bcs         |$LN36@IST@3|
  037b0	e59d008c	 ldr         r0, [sp, #0x8C]
  037b4	eb000000	 bl          |?ReadByteCountRegister@BulEndpoint@@QAAKXZ|
  037b8	e58d0064	 str         r0, [sp, #0x64]
  037bc	e59d3064	 ldr         r3, [sp, #0x64]
  037c0	e58d3068	 str         r3, [sp, #0x68]
  037c4	ea00000b	 b           |$LN37@IST@3|
  037c8		 |$LN36@IST@3|
  037c8	e59d308c	 ldr         r3, [sp, #0x8C]
  037cc	e2833034	 add         r3, r3, #0x34
  037d0	e5933000	 ldr         r3, [r3]
  037d4	e283200c	 add         r2, r3, #0xC
  037d8	e59d308c	 ldr         r3, [sp, #0x8C]
  037dc	e2833034	 add         r3, r3, #0x34
  037e0	e5933000	 ldr         r3, [r3]
  037e4	e2833010	 add         r3, r3, #0x10
  037e8	e5922000	 ldr         r2, [r2]
  037ec	e5933000	 ldr         r3, [r3]
  037f0	e0423003	 sub         r3, r2, r3
  037f4	e58d3068	 str         r3, [sp, #0x68]
  037f8		 |$LN37@IST@3|
  037f8	e59d3068	 ldr         r3, [sp, #0x68]
  037fc	e58d3024	 str         r3, [sp, #0x24]

; 675  :                     dwReceiveLength = ReceiveData((PBYTE)m_pCurTransfer->pvBuffer + m_pCurTransfer->cbTransferred,dwReceiveLength);

  03800	e59d2024	 ldr         r2, [sp, #0x24]
  03804	e59d308c	 ldr         r3, [sp, #0x8C]
  03808	e2833034	 add         r3, r3, #0x34
  0380c	e5933000	 ldr         r3, [r3]
  03810	e2831004	 add         r1, r3, #4
  03814	e59d308c	 ldr         r3, [sp, #0x8C]
  03818	e2833034	 add         r3, r3, #0x34
  0381c	e5933000	 ldr         r3, [r3]
  03820	e2833010	 add         r3, r3, #0x10
  03824	e5911000	 ldr         r1, [r1]
  03828	e5933000	 ldr         r3, [r3]
  0382c	e0811003	 add         r1, r1, r3
  03830	e59d008c	 ldr         r0, [sp, #0x8C]
  03834	eb000000	 bl          |?ReceiveData@BulEndpoint@@IAAKPAEK@Z|
  03838	e58d006c	 str         r0, [sp, #0x6C]
  0383c	e59d306c	 ldr         r3, [sp, #0x6C]
  03840	e58d3024	 str         r3, [sp, #0x24]

; 676  :                     m_pCurTransfer->cbTransferred += dwReceiveLength;

  03844	e59d308c	 ldr         r3, [sp, #0x8C]
  03848	e2833034	 add         r3, r3, #0x34
  0384c	e5933000	 ldr         r3, [r3]
  03850	e2833010	 add         r3, r3, #0x10
  03854	e5932000	 ldr         r2, [r3]
  03858	e59d3024	 ldr         r3, [sp, #0x24]
  0385c	e0822003	 add         r2, r2, r3
  03860	e59d308c	 ldr         r3, [sp, #0x8C]
  03864	e2833034	 add         r3, r3, #0x34
  03868	e5933000	 ldr         r3, [r3]
  0386c	e2833010	 add         r3, r3, #0x10
  03870	e5832000	 str         r2, [r3]

; 677  :                     fShortPacket = (dwReceiveLength!=0 && dwReceiveLength<m_epDesc.wMaxPacketSize) ;

  03874	e59d3024	 ldr         r3, [sp, #0x24]
  03878	e3530000	 cmp         r3, #0
  0387c	0a00000d	 beq         |$LN38@IST@3|
  03880	e59d308c	 ldr         r3, [sp, #0x8C]
  03884	e2831028	 add         r1, r3, #0x28
  03888	e5d13001	 ldrb        r3, [r1, #1]
  0388c	e1a03403	 mov         r3, r3, lsl #8
  03890	e1a02803	 mov         r2, r3, lsl #16
  03894	e1a02822	 mov         r2, r2, lsr #16
  03898	e5d13000	 ldrb        r3, [r1]
  0389c	e1832002	 orr         r2, r3, r2
  038a0	e59d3024	 ldr         r3, [sp, #0x24]
  038a4	e1530002	 cmp         r3, r2
  038a8	2a000002	 bcs         |$LN38@IST@3|
  038ac	e3a03001	 mov         r3, #1
  038b0	e58d3070	 str         r3, [sp, #0x70]
  038b4	ea000001	 b           |$LN39@IST@3|
  038b8		 |$LN38@IST@3|
  038b8	e3a03000	 mov         r3, #0
  038bc	e58d3070	 str         r3, [sp, #0x70]
  038c0		 |$LN39@IST@3|
  038c0	e59d3070	 ldr         r3, [sp, #0x70]
  038c4	e58d3020	 str         r3, [sp, #0x20]
  038c8		 |$LN8@IST@3|

; 678  :                     
; 679  :                 }
; 680  :                 if (m_pCurTransfer->cbTransferred >= m_pCurTransfer->cbBuffer) {

  038c8	e59d308c	 ldr         r3, [sp, #0x8C]
  038cc	e2833034	 add         r3, r3, #0x34
  038d0	e5933000	 ldr         r3, [r3]
  038d4	e2832010	 add         r2, r3, #0x10
  038d8	e59d308c	 ldr         r3, [sp, #0x8C]
  038dc	e2833034	 add         r3, r3, #0x34
  038e0	e5933000	 ldr         r3, [r3]
  038e4	e283300c	 add         r3, r3, #0xC
  038e8	e5922000	 ldr         r2, [r2]
  038ec	e5933000	 ldr         r3, [r3]
  038f0	e1520003	 cmp         r2, r3
  038f4	3a000015	 bcc         |$LN7@IST@3|

; 681  :                     WriteControlStatusRegister(udccsr.ulValue);

  038f8	e59d100c	 ldr         r1, [sp, #0xC]
  038fc	e59d008c	 ldr         r0, [sp, #0x8C]
  03900	eb000000	 bl          |?WriteControlStatusRegister@BulEndpoint@@QAAXK@Z|

; 682  :                     PSTransfer pTransfer = CompleteTransfer(UFN_NO_ERROR);

  03904	e3a01000	 mov         r1, #0
  03908	e59d008c	 ldr         r0, [sp, #0x8C]
  0390c	eb000000	 bl          |?CompleteTransfer@BulEndpoint@@IAAPAU_STransfer@@K@Z|
  03910	e58d0074	 str         r0, [sp, #0x74]
  03914	e59d3074	 ldr         r3, [sp, #0x74]
  03918	e58d3028	 str         r3, [sp, #0x28]

; 683  :                     Unlock();

  0391c	e59d308c	 ldr         r3, [sp, #0x8C]
  03920	e2830008	 add         r0, r3, #8
  03924	eb000000	 bl          |?Unlock@CLockObject@@QAAXXZ|

; 684  :                     m_pUsbDevice->MddTransferComplete(pTransfer);

  03928	e59d1028	 ldr         r1, [sp, #0x28]
  0392c	e59d308c	 ldr         r3, [sp, #0x8C]
  03930	e283301c	 add         r3, r3, #0x1C
  03934	e5930000	 ldr         r0, [r3]
  03938	eb000000	 bl          |?MddTransferComplete@BulUsbDevice@@QAAXPAU_STransfer@@@Z|

; 685  :                     Lock();                

  0393c	e59d308c	 ldr         r3, [sp, #0x8C]
  03940	e2830008	 add         r0, r3, #8
  03944	eb000000	 bl          |?Lock@CLockObject@@QAAXXZ|
  03948	eafffe92	 b           |$LN50@IST@3|

; 686  :                     continue;

  0394c	ea00001a	 b           |$LN6@IST@3|
  03950		 |$LN7@IST@3|

; 687  :                 }
; 688  :                 else if (udccsr.epbit.SP || fShortPacket ){

  03950	e59d300c	 ldr         r3, [sp, #0xC]
  03954	e3130080	 tst         r3, #0x80
  03958	1a000002	 bne         |$LN4@IST@3|
  0395c	e59d3020	 ldr         r3, [sp, #0x20]
  03960	e3530000	 cmp         r3, #0
  03964	0a000014	 beq         |$LN5@IST@3|
  03968		 |$LN4@IST@3|

; 689  :                     WriteControlStatusRegister(udccsr.ulValue);

  03968	e59d100c	 ldr         r1, [sp, #0xC]
  0396c	e59d008c	 ldr         r0, [sp, #0x8C]
  03970	eb000000	 bl          |?WriteControlStatusRegister@BulEndpoint@@QAAXK@Z|

; 690  :                     PSTransfer pTransfer = CompleteTransfer(UFN_NO_ERROR);

  03974	e3a01000	 mov         r1, #0
  03978	e59d008c	 ldr         r0, [sp, #0x8C]
  0397c	eb000000	 bl          |?CompleteTransfer@BulEndpoint@@IAAPAU_STransfer@@K@Z|
  03980	e58d0078	 str         r0, [sp, #0x78]
  03984	e59d3078	 ldr         r3, [sp, #0x78]
  03988	e58d302c	 str         r3, [sp, #0x2C]

; 691  :                     Unlock();

  0398c	e59d308c	 ldr         r3, [sp, #0x8C]
  03990	e2830008	 add         r0, r3, #8
  03994	eb000000	 bl          |?Unlock@CLockObject@@QAAXXZ|

; 692  :                     m_pUsbDevice->MddTransferComplete(pTransfer);

  03998	e59d102c	 ldr         r1, [sp, #0x2C]
  0399c	e59d308c	 ldr         r3, [sp, #0x8C]
  039a0	e283301c	 add         r3, r3, #0x1C
  039a4	e5930000	 ldr         r0, [r3]
  039a8	eb000000	 bl          |?MddTransferComplete@BulUsbDevice@@QAAXPAU_STransfer@@@Z|

; 693  :                     Lock();                

  039ac	e59d308c	 ldr         r3, [sp, #0x8C]
  039b0	e2830008	 add         r0, r3, #8
  039b4	eb000000	 bl          |?Lock@CLockObject@@QAAXXZ|

; 694  :                     continue;

  039b8	eafffe76	 b           |$LN51@IST@3|
  039bc		 |$LN5@IST@3|
  039bc		 |$LN6@IST@3|

; 695  :                 }
; 696  :                 bContinue = TRUE;

  039bc	e3a03001	 mov         r3, #1
  039c0	e58d3000	 str         r3, [sp]

; 697  :             }
; 698  :             else { // Not ready yet.

  039c4	ea000005	 b           |$LN3@IST@3|
  039c8		 |$LN9@IST@3|

; 699  :                 //m_pUsbDevice->EnableEndpointInterrupt(m_dwEndpointIndex,FALSE);
; 700  :                 // Do not clean anything
; 701  :                 udccsr.epbit.PC = 0;

  039c8	e59d200c	 ldr         r2, [sp, #0xC]
  039cc	e3e03002	 mvn         r3, #2
  039d0	e0023003	 and         r3, r2, r3
  039d4	e58d300c	 str         r3, [sp, #0xC]

; 702  :                 bContinue = FALSE;

  039d8	e3a03000	 mov         r3, #0
  039dc	e58d3000	 str         r3, [sp]
  039e0		 |$LN3@IST@3|
  039e0		 |$LN11@IST@3|

; 703  :             }
; 704  :         }
; 705  :         if (udccsr.epbit.SST) {

  039e0	e59d300c	 ldr         r3, [sp, #0xC]
  039e4	e3130010	 tst         r3, #0x10
  039e8	0a00001d	 beq         |$LN2@IST@3|

; 706  :             DEBUGMSG(ZONE_WARNING, (_T("Stall Sent on Out endpoint =0x%x"),m_dwEndpointIndex));

  039ec	e59f3104	 ldr         r3, [pc, #0x104]
  039f0	e5933440	 ldr         r3, [r3, #0x440]
  039f4	e3130002	 tst         r3, #2
  039f8	0a000011	 beq         |$LN42@IST@3|
  039fc	e59f30f4	 ldr         r3, [pc, #0xF4]
  03a00	e5933440	 ldr         r3, [r3, #0x440]
  03a04	e3130801	 tst         r3, #1, 16
  03a08	0a000005	 beq         |$LN40@IST@3|
  03a0c	e59d308c	 ldr         r3, [sp, #0x8C]
  03a10	e2833020	 add         r3, r3, #0x20
  03a14	e5931000	 ldr         r1, [r3]
  03a18	e59f00dc	 ldr         r0, [pc, #0xDC]
  03a1c	eb000000	 bl          CeLogMsg
  03a20	ea000004	 b           |$LN41@IST@3|
  03a24		 |$LN40@IST@3|
  03a24	e59d308c	 ldr         r3, [sp, #0x8C]
  03a28	e2833020	 add         r3, r3, #0x20
  03a2c	e5931000	 ldr         r1, [r3]
  03a30	e59f00c4	 ldr         r0, [pc, #0xC4]
  03a34	eb000000	 bl          NKDbgPrintfW
  03a38		 |$LN41@IST@3|
  03a38	e3a03001	 mov         r3, #1
  03a3c	e58d307c	 str         r3, [sp, #0x7C]
  03a40	ea000001	 b           |$LN43@IST@3|
  03a44		 |$LN42@IST@3|
  03a44	e3a03000	 mov         r3, #0
  03a48	e58d307c	 str         r3, [sp, #0x7C]
  03a4c		 |$LN43@IST@3|

; 707  :             m_fStalled = TRUE;

  03a4c	e59d308c	 ldr         r3, [sp, #0x8C]
  03a50	e283203c	 add         r2, r3, #0x3C
  03a54	e3a03001	 mov         r3, #1
  03a58	e5823000	 str         r3, [r2]

; 708  :             bContinue = TRUE;

  03a5c	e3a03001	 mov         r3, #1
  03a60	e58d3000	 str         r3, [sp]
  03a64		 |$LN2@IST@3|

; 709  :         }
; 710  :         if (udccsr.ulValue)

  03a64	e59d300c	 ldr         r3, [sp, #0xC]
  03a68	e3530000	 cmp         r3, #0
  03a6c	0a000002	 beq         |$LN1@IST@3|

; 711  :             WriteControlStatusRegister(udccsr.ulValue);

  03a70	e59d100c	 ldr         r1, [sp, #0xC]
  03a74	e59d008c	 ldr         r0, [sp, #0x8C]
  03a78	eb000000	 bl          |?WriteControlStatusRegister@BulEndpoint@@QAAXK@Z|
  03a7c		 |$LN1@IST@3|

; 712  :     }

  03a7c	eafffe45	 b           |$LN52@IST@3|
  03a80		 |$LN17@IST@3|

; 713  :     Unlock();

  03a80	e59d308c	 ldr         r3, [sp, #0x8C]
  03a84	e2830008	 add         r0, r3, #8
  03a88	eb000000	 bl          |?Unlock@CLockObject@@QAAXXZ|

; 714  :     FUNCTION_LEAVE_MSG();

  03a8c	e59f3064	 ldr         r3, [pc, #0x64]
  03a90	e5933440	 ldr         r3, [r3, #0x440]
  03a94	e3130a01	 tst         r3, #1, 20
  03a98	0a00000d	 beq         |$LN46@IST@3|
  03a9c	e59f3054	 ldr         r3, [pc, #0x54]
  03aa0	e5933440	 ldr         r3, [r3, #0x440]
  03aa4	e3130801	 tst         r3, #1, 16
  03aa8	0a000003	 beq         |$LN44@IST@3|
  03aac	e59d1004	 ldr         r1, [sp, #4]
  03ab0	e59f003c	 ldr         r0, [pc, #0x3C]
  03ab4	eb000000	 bl          CeLogMsg
  03ab8	ea000002	 b           |$LN45@IST@3|
  03abc		 |$LN44@IST@3|
  03abc	e59d1004	 ldr         r1, [sp, #4]
  03ac0	e59f002c	 ldr         r0, [pc, #0x2C]
  03ac4	eb000000	 bl          NKDbgPrintfW
  03ac8		 |$LN45@IST@3|
  03ac8	e3a03001	 mov         r3, #1
  03acc	e58d3080	 str         r3, [sp, #0x80]
  03ad0	ea000001	 b           |$LN47@IST@3|
  03ad4		 |$LN46@IST@3|
  03ad4	e3a03000	 mov         r3, #0
  03ad8	e58d3080	 str         r3, [sp, #0x80]
  03adc		 |$LN47@IST@3|

; 715  :     return ERROR_SUCCESS;

  03adc	e3a03000	 mov         r3, #0
  03ae0	e58d3030	 str         r3, [sp, #0x30]

; 716  : }

  03ae4	e59d0030	 ldr         r0, [sp, #0x30]
  03ae8	e28dd084	 add         sp, sp, #0x84
  03aec	e89d6000	 ldmia       sp, {sp, lr}
  03af0	e12fff1e	 bx          lr
  03af4		 |$LN56@IST@3|
  03af4		 |$LN57@IST@3|
  03af4	00000000	 DCD         |??_C@_1BA@PLOOFDPK@?$AA?$CF?$AAs?$AA?5?$AA?9?$AA?9?$AA?$AN?$AA?6?$AA?$AA@|
  03af8		 |$LN58@IST@3|
  03af8	00000000	 DCD         |dpCurSettings|
  03afc		 |$LN59@IST@3|
  03afc	00000000	 DCD         |??_C@_1EC@MGJFFJLP@?$AAS?$AAt?$AAa?$AAl?$AAl?$AA?5?$AAS?$AAe?$AAn?$AAt?$AA?5?$AAo?$AAn?$AA?5?$AAO?$AAu?$AAt?$AA?5?$AAe?$AAn?$AAd?$AAp?$AAo?$AAi?$AAn?$AAt?$AA?5?$AA?$DN?$AA0?$AAx?$AA?$CF?$AAx@|
  03b00		 |$LN60@IST@3|
  03b00	00000000	 DCD         |??_C@_1DE@IPDKJPKH@?$AA?5?$AAO?$AAu?$AAt?$AA?3?$AA?3?$AAI?$AAS?$AAT?$AA?$CI?$AA?$CF?$AAd?$AA?$CJ?$AA?5?$AAU?$AAD?$AAC?$AAC?$AAS?$AAR?$AA?$DN?$AA0?$AAx?$AA?$CF?$AAx?$AA?$AA@|
  03b04		 |$LN61@IST@3|
  03b04	00000000	 DCD         |??_C@_1FG@DKDHEGFG@?$AAF?$AAI?$AAF?$AAO?$AA?5?$AAE?$AAr?$AAr?$AAo?$AAr?$AA?5?$AAo?$AAn?$AA?5?$AAE?$AAn?$AAd?$AAp?$AAo?$AAi?$AAn?$AAt?$AA?5?$AAO?$AAu?$AAt?$AA?$CI?$AA?$CF?$AAd?$AA?$CJ?$AA?5?$AAU@|
  03b08		 |$LN62@IST@3|
  03b08	00000000	 DCD         |??_C@_1BA@DAJPCKDK@?$AA?$CF?$AAs?$AA?5?$AA?$CL?$AA?$CL?$AA?$AN?$AA?6?$AA?$AA@|
  03b0c		 |$LN63@IST@3|
  03b0c	00000000	 DCD         |??_C@_1EI@IDCFDOMP@?$AAb?$AAu?$AAl?$AAv?$AAe?$AAr?$AAd?$AAe?$AA_?$AAu?$AAs?$AAb?$AAf?$AAn?$AA?$CB?$AAB?$AAu?$AAl?$AAE?$AAn?$AAd?$AAp?$AAo?$AAi?$AAn?$AAt?$AAO?$AAu?$AAt?$AA?3?$AA?3?$AAI@|
  03b10		 |$M38827|

			 ENDP  ; |?IST@BulEndpointOut@@UAAKK@Z|, BulEndpointOut::IST

	EXPORT	|??0CLockObject@@QAA@XZ|		; CLockObject::CLockObject
	EXPORT	|??_7BulUsbDevice@@6B@| [ DATA ]	; BulUsbDevice::`vftable'
	EXPORT	|??0CMiniThread@@QAA@KH@Z|		; CMiniThread::CMiniThread
	EXPORT	|??0CRegistryEdit@@QAA@PBG@Z|		; CRegistryEdit::CRegistryEdit
	EXPORT	|??0CEndpointContainer@@QAA@XZ|		; CEndpointContainer::CEndpointContainer
	EXPORT	|??0BulUsbDevice@@QAA@PBG@Z|		; BulUsbDevice::BulUsbDevice
	EXPORT	|?ThreadRun@BulUsbDevice@@EAAKXZ|	; BulUsbDevice::ThreadRun
	EXPORT	|?Init@BulUsbDevice@@UAAKPAXPAU_UFN_MDD_INTERFACE_INFO@@PAU_UFN_PDD_INTERFACE_INFO@@@Z| ; BulUsbDevice::Init
	EXPORT	|?DeleteAllEndpoint@BulUsbDevice@@UAAHXZ| ; BulUsbDevice::DeleteAllEndpoint
	EXPORT	|?IsEndpointSupportable@BulUsbDevice@@UAAKKW4_UFN_BUS_SPEED@@PAU_USB_ENDPOINT_DESCRIPTOR@@EEE@Z| ; BulUsbDevice::IsEndpointSupportable
	EXPORT	|?InitEndpoint@BulUsbDevice@@UAAKKW4_UFN_BUS_SPEED@@PAU_USB_ENDPOINT_DESCRIPTOR@@EEE@Z| ; BulUsbDevice::InitEndpoint
	EXPORT	|?DeinitEndpoint@BulUsbDevice@@UAAKK@Z|	; BulUsbDevice::DeinitEndpoint
	EXPORT	|?StallEndpoint@BulUsbDevice@@UAAKK@Z|	; BulUsbDevice::StallEndpoint
	EXPORT	|?ClearEndpointStall@BulUsbDevice@@UAAKK@Z| ; BulUsbDevice::ClearEndpointStall
	EXPORT	|?ResetEndpoint@BulUsbDevice@@UAAKK@Z|	; BulUsbDevice::ResetEndpoint
	EXPORT	|?IsEndpointHalted@BulUsbDevice@@UAAKKPAH@Z| ; BulUsbDevice::IsEndpointHalted
	EXPORT	|?IssueTransfer@BulUsbDevice@@UAAKKPAU_STransfer@@@Z| ; BulUsbDevice::IssueTransfer
	EXPORT	|?AbortTransfer@BulUsbDevice@@UAAKKPAU_STransfer@@@Z| ; BulUsbDevice::AbortTransfer
	EXPORT	|?SendControlStatusHandshake@BulUsbDevice@@UAAKK@Z| ; BulUsbDevice::SendControlStatusHandshake
	EXPORT	|?Start@BulUsbDevice@@UAAKXZ|		; BulUsbDevice::Start
	EXPORT	|?Stop@BulUsbDevice@@UAAKXZ|		; BulUsbDevice::Stop
	EXPORT	|?IsCableAttached@BulUsbDevice@@UAAHXZ|	; BulUsbDevice::IsCableAttached
	EXPORT	|?SetAddress@BulUsbDevice@@UAAKE@Z|	; BulUsbDevice::SetAddress
	EXPORT	|?PowerDown@BulUsbDevice@@UAAXXZ|	; BulUsbDevice::PowerDown
	EXPORT	|?PowerUp@BulUsbDevice@@UAAXXZ|		; BulUsbDevice::PowerUp
	EXPORT	|?SetPowerState@BulUsbDevice@@UAAXW4_CEDEVICE_POWER_STATE@@@Z| ; BulUsbDevice::SetPowerState
	EXPORT	|?IOControl@BulUsbDevice@@UAAKW4_IOCTL_SOURCE@@KPAEK1KPAK@Z| ; BulUsbDevice::IOControl
	EXPORT	|?PowerMgr@BulUsbDevice@@MAAXH@Z|	; BulUsbDevice::PowerMgr
	IMPORT	|CreateBusAccessHandle|
	IMPORT	|??_EBulUsbDevice@@UAAPAXI@Z|, WEAK |??_GBulUsbDevice@@UAAPAXI@Z| ; BulUsbDevice::`vector deleting destructor', BulUsbDevice::`scalar deleting destructor'

  000a8			 AREA	 |.pdata|, PDATA
|$T38843| DCD	|$LN5@BulUsbDevi|
	DCD	0x40005304

  00000			 AREA	 |.rdata|, DATA, READONLY
|??_7BulUsbDevice@@6B@| DCD |?ThreadRun@BulUsbDevice@@EAAKXZ| ; BulUsbDevice::`vftable'
	DCD	|??_EBulUsbDevice@@UAAPAXI@Z|
	DCD	|?Init@BulUsbDevice@@UAAKPAXPAU_UFN_MDD_INTERFACE_INFO@@PAU_UFN_PDD_INTERFACE_INFO@@@Z|
	DCD	|?DeleteAllEndpoint@BulUsbDevice@@UAAHXZ|
	DCD	|?IsEndpointSupportable@BulUsbDevice@@UAAKKW4_UFN_BUS_SPEED@@PAU_USB_ENDPOINT_DESCRIPTOR@@EEE@Z|
	DCD	|?InitEndpoint@BulUsbDevice@@UAAKKW4_UFN_BUS_SPEED@@PAU_USB_ENDPOINT_DESCRIPTOR@@EEE@Z|
	DCD	|?DeinitEndpoint@BulUsbDevice@@UAAKK@Z|
	DCD	|?StallEndpoint@BulUsbDevice@@UAAKK@Z|
	DCD	|?ClearEndpointStall@BulUsbDevice@@UAAKK@Z|
	DCD	|?ResetEndpoint@BulUsbDevice@@UAAKK@Z|
	DCD	|?IsEndpointHalted@BulUsbDevice@@UAAKKPAH@Z|
	DCD	|?IssueTransfer@BulUsbDevice@@UAAKKPAU_STransfer@@@Z|
	DCD	|?AbortTransfer@BulUsbDevice@@UAAKKPAU_STransfer@@@Z|
	DCD	|?SendControlStatusHandshake@BulUsbDevice@@UAAKK@Z|
	DCD	|?Start@BulUsbDevice@@UAAKXZ|
	DCD	|?Stop@BulUsbDevice@@UAAKXZ|
	DCD	|?IsCableAttached@BulUsbDevice@@UAAHXZ|
	DCD	|?SetAddress@BulUsbDevice@@UAAKE@Z|
	DCD	|?PowerDown@BulUsbDevice@@UAAXXZ|
	DCD	|?PowerUp@BulUsbDevice@@UAAXXZ|
	DCD	|?SetPowerState@BulUsbDevice@@UAAXW4_CEDEVICE_POWER_STATE@@@Z|
	DCD	|?IOControl@BulUsbDevice@@UAAKW4_IOCTL_SOURCE@@KPAEK1KPAK@Z|
	DCD	|?PowerMgr@BulUsbDevice@@MAAXH@Z|
; Function compile flags: /Odtp

  03b10			 AREA	 |.text|, CODE, ARM

  03b10		 |??0BulUsbDevice@@QAA@PBG@Z| PROC	; BulUsbDevice::BulUsbDevice

; 720  : {

  03b10		 |$LN5@BulUsbDevi|
  03b10	e1a0c00d	 mov         r12, sp
  03b14	e92d0003	 stmdb       sp!, {r0, r1}
  03b18	e92d5000	 stmdb       sp!, {r12, lr}
  03b1c	e24dd018	 sub         sp, sp, #0x18
  03b20		 |$M38840|
  03b20	e59d3020	 ldr         r3, [sp, #0x20]
  03b24	e2830018	 add         r0, r3, #0x18
  03b28	eb000000	 bl          |??0CEndpointContainer@@QAA@XZ|
  03b2c	e58d0004	 str         r0, [sp, #4]
  03b30	e59d1024	 ldr         r1, [sp, #0x24]
  03b34	e59d3020	 ldr         r3, [sp, #0x20]
  03b38	e2830090	 add         r0, r3, #0x90
  03b3c	eb000000	 bl          |??0CRegistryEdit@@QAA@PBG@Z|
  03b40	e58d0008	 str         r0, [sp, #8]
  03b44	e3a02001	 mov         r2, #1
  03b48	e3a01000	 mov         r1, #0
  03b4c	e59d0020	 ldr         r0, [sp, #0x20]
  03b50	eb000000	 bl          |??0CMiniThread@@QAA@KH@Z|
  03b54	e58d000c	 str         r0, [sp, #0xC]
  03b58	e59f20f8	 ldr         r2, [pc, #0xF8]
  03b5c	e59d3020	 ldr         r3, [sp, #0x20]
  03b60	e5832000	 str         r2, [r3]
  03b64	e59d3020	 ldr         r3, [sp, #0x20]
  03b68	e28300cc	 add         r0, r3, #0xCC
  03b6c	eb000000	 bl          |??0CLockObject@@QAA@XZ|
  03b70	e58d0010	 str         r0, [sp, #0x10]

; 721  :     m_pUsbDevReg = NULL;

  03b74	e59d3020	 ldr         r3, [sp, #0x20]
  03b78	e2832098	 add         r2, r3, #0x98
  03b7c	e3a03000	 mov         r3, #0
  03b80	e5823000	 str         r3, [r2]

; 722  :     m_hISTEvent = NULL;

  03b84	e59d3020	 ldr         r3, [sp, #0x20]
  03b88	e28320a8	 add         r2, r3, #0xA8
  03b8c	e3a03000	 mov         r3, #0
  03b90	e5823000	 str         r3, [r2]

; 723  :     m_pDCCLKReg = NULL;

  03b94	e59d3020	 ldr         r3, [sp, #0x20]
  03b98	e283209c	 add         r2, r3, #0x9C
  03b9c	e3a03000	 mov         r3, #0
  03ba0	e5823000	 str         r3, [r2]

; 724  :     m_fDoubleBuffer = TRUE;

  03ba4	e59d3020	 ldr         r3, [sp, #0x20]
  03ba8	e28320b0	 add         r2, r3, #0xB0
  03bac	e3a03001	 mov         r3, #1
  03bb0	e5823000	 str         r3, [r2]

; 725  :     m_pvMddContext = NULL;

  03bb4	e59d3020	 ldr         r3, [sp, #0x20]
  03bb8	e28320b4	 add         r2, r3, #0xB4
  03bbc	e3a03000	 mov         r3, #0
  03bc0	e5823000	 str         r3, [r2]

; 726  :     m_dwCurConfigure = MAXDWORD;

  03bc4	e59d3020	 ldr         r3, [sp, #0x20]
  03bc8	e28320b8	 add         r2, r3, #0xB8
  03bcc	e3e03000	 mvn         r3, #0
  03bd0	e5823000	 str         r3, [r2]

; 727  :     m_dwCurInterface = MAXDWORD;

  03bd4	e59d3020	 ldr         r3, [sp, #0x20]
  03bd8	e28320bc	 add         r2, r3, #0xBC
  03bdc	e3e03000	 mvn         r3, #0
  03be0	e5823000	 str         r3, [r2]

; 728  :     m_pfnNotify = NULL;

  03be4	e59d3020	 ldr         r3, [sp, #0x20]
  03be8	e28320c0	 add         r2, r3, #0xC0
  03bec	e3a03000	 mov         r3, #0
  03bf0	e5823000	 str         r3, [r2]

; 729  :     m_CurPowerState = PwrDeviceUnspecified ;

  03bf4	e59d3020	 ldr         r3, [sp, #0x20]
  03bf8	e28320c4	 add         r2, r3, #0xC4
  03bfc	e3e03000	 mvn         r3, #0
  03c00	e5823000	 str         r3, [r2]

; 730  :     m_hParent = CreateBusAccessHandle(lpActivePath);  

  03c04	e59d0024	 ldr         r0, [sp, #0x24]
  03c08	eb000000	 bl          CreateBusAccessHandle
  03c0c	e58d0014	 str         r0, [sp, #0x14]
  03c10	e59d3020	 ldr         r3, [sp, #0x20]
  03c14	e28320c8	 add         r2, r3, #0xC8
  03c18	e59d3014	 ldr         r3, [sp, #0x14]
  03c1c	e5823000	 str         r3, [r2]

; 731  :     m_pOTGEventThread = NULL;

  03c20	e59d3020	 ldr         r3, [sp, #0x20]
  03c24	e28320ec	 add         r2, r3, #0xEC
  03c28	e3a03000	 mov         r3, #0
  03c2c	e5823000	 str         r3, [r2]

; 732  :     m_fOTGSetupFeature = FALSE;

  03c30	e59d3020	 ldr         r3, [sp, #0x20]
  03c34	e28320e0	 add         r2, r3, #0xE0
  03c38	e3a03000	 mov         r3, #0
  03c3c	e5823000	 str         r3, [r2]

; 733  : }

  03c40	e59d3020	 ldr         r3, [sp, #0x20]
  03c44	e58d3000	 str         r3, [sp]
  03c48	e59d0000	 ldr         r0, [sp]
  03c4c	e28dd018	 add         sp, sp, #0x18
  03c50	e89d6000	 ldmia       sp, {sp, lr}
  03c54	e12fff1e	 bx          lr
  03c58		 |$LN6@BulUsbDevi|
  03c58		 |$LN7@BulUsbDevi|
  03c58	00000000	 DCD         |??_7BulUsbDevice@@6B@|
  03c5c		 |$M38841|

			 ENDP  ; |??0BulUsbDevice@@QAA@PBG@Z|, BulUsbDevice::BulUsbDevice

	IMPORT	|InitializeCriticalSection|
; File c:\wince600\public\common\oak\inc\csync.h

  00000			 AREA	 |.pdata|, PDATA
|$T38851| DCD	|$LN5@CLockObjec|
	DCD	0x40000c04
; Function compile flags: /Odtp

  00000			 AREA	 |.text|, CODE, ARM

  00000		 |??0CLockObject@@QAA@XZ| PROC		; CLockObject::CLockObject

; 36   :     CLockObject()

  00000		 |$LN5@CLockObjec|
  00000	e1a0c00d	 mov         r12, sp
  00004	e92d0001	 stmdb       sp!, {r0}
  00008	e92d5000	 stmdb       sp!, {r12, lr}
  0000c	e24dd004	 sub         sp, sp, #4
  00010		 |$M38848|

; 37   :     {
; 38   :         InitializeCriticalSection( &m_CSection );

  00010	e59d000c	 ldr         r0, [sp, #0xC]
  00014	eb000000	 bl          InitializeCriticalSection

; 39   :     };

  00018	e59d300c	 ldr         r3, [sp, #0xC]
  0001c	e58d3000	 str         r3, [sp]
  00020	e59d0000	 ldr         r0, [sp]
  00024	e28dd004	 add         sp, sp, #4
  00028	e89d6000	 ldmia       sp, {sp, lr}
  0002c	e12fff1e	 bx          lr
  00030		 |$M38849|

			 ENDP  ; |??0CLockObject@@QAA@XZ|, CLockObject::CLockObject

	EXPORT	|?ThreadProc@CMiniThread@@CAKPAX@Z|	; CMiniThread::ThreadProc
	EXPORT	|??_7CMiniThread@@6B@| [ DATA ]		; CMiniThread::`vftable'
	IMPORT	|CreateThread|
	IMPORT	|_purecall|
; File c:\wince600\public\common\oak\inc\cmthread.h

  00000			 AREA	 |.pdata|, PDATA
|$T38863| DCD	|$LN7@CMiniThrea|
	DCD	0x40003204

  00000			 AREA	 |.rdata|, DATA, READONLY
|??_7CMiniThread@@6B@| DCD |_purecall|			; CMiniThread::`vftable'
; Function compile flags: /Odtp

  00000			 AREA	 |.text|, CODE, ARM

  00000		 |??0CMiniThread@@QAA@KH@Z| PROC	; CMiniThread::CMiniThread

; 29   :     CMiniThread( DWORD dwStackSize = 0, BOOL bSuspended = FALSE )

  00000		 |$LN7@CMiniThrea|
  00000	e1a0c00d	 mov         r12, sp
  00004	e92d0007	 stmdb       sp!, {r0 - r2}
  00008	e92d5000	 stmdb       sp!, {r12, lr}
  0000c	e24dd01c	 sub         sp, sp, #0x1C
  00010		 |$M38860|
  00010	e59f20ac	 ldr         r2, [pc, #0xAC]
  00014	e59d3024	 ldr         r3, [sp, #0x24]
  00018	e5832000	 str         r2, [r3]

; 30   :     {
; 31   :         m_bTerminated = FALSE;

  0001c	e59d3024	 ldr         r3, [sp, #0x24]
  00020	e2832004	 add         r2, r3, #4
  00024	e3a03000	 mov         r3, #0
  00028	e5823000	 str         r3, [r2]

; 32   :         m_dwExitCode = ( DWORD ) - 1;

  0002c	e59d3024	 ldr         r3, [sp, #0x24]
  00030	e2832014	 add         r2, r3, #0x14
  00034	e3e03000	 mvn         r3, #0
  00038	e5823000	 str         r3, [r2]

; 33   :         m_hThreadHandle = ::CreateThread( NULL,
; 34   :                                           dwStackSize,
; 35   :                                           CMiniThread::ThreadProc,
; 36   :                                           ( LPVOID )this,
; 37   :                                           bSuspended ? CREATE_SUSPENDED : 0,
; 38   :                                           &m_dwThreadId );

  0003c	e59d302c	 ldr         r3, [sp, #0x2C]
  00040	e3530000	 cmp         r3, #0
  00044	0a000002	 beq         |$LN3@CMiniThrea|
  00048	e3a03004	 mov         r3, #4
  0004c	e58d3014	 str         r3, [sp, #0x14]
  00050	ea000001	 b           |$LN4@CMiniThrea|
  00054		 |$LN3@CMiniThrea|
  00054	e3a03000	 mov         r3, #0
  00058	e58d3014	 str         r3, [sp, #0x14]
  0005c		 |$LN4@CMiniThrea|
  0005c	e59d3024	 ldr         r3, [sp, #0x24]
  00060	e283300c	 add         r3, r3, #0xC
  00064	e58d3004	 str         r3, [sp, #4]
  00068	e59d3014	 ldr         r3, [sp, #0x14]
  0006c	e58d3000	 str         r3, [sp]
  00070	e59d3024	 ldr         r3, [sp, #0x24]
  00074	e59f2044	 ldr         r2, [pc, #0x44]
  00078	e59d1028	 ldr         r1, [sp, #0x28]
  0007c	e3a00000	 mov         r0, #0
  00080	eb000000	 bl          CreateThread
  00084	e58d0018	 str         r0, [sp, #0x18]
  00088	e59d3024	 ldr         r3, [sp, #0x24]
  0008c	e2832008	 add         r2, r3, #8
  00090	e59d3018	 ldr         r3, [sp, #0x18]
  00094	e5823000	 str         r3, [r2]

; 39   :         m_bSuspendFlag = bSuspended;

  00098	e59d3024	 ldr         r3, [sp, #0x24]
  0009c	e2832010	 add         r2, r3, #0x10
  000a0	e59d302c	 ldr         r3, [sp, #0x2C]
  000a4	e5823000	 str         r3, [r2]

; 40   :     };

  000a8	e59d3024	 ldr         r3, [sp, #0x24]
  000ac	e58d3010	 str         r3, [sp, #0x10]
  000b0	e59d0010	 ldr         r0, [sp, #0x10]
  000b4	e28dd01c	 add         sp, sp, #0x1C
  000b8	e89d6000	 ldmia       sp, {sp, lr}
  000bc	e12fff1e	 bx          lr
  000c0		 |$LN8@CMiniThrea|
  000c0		 |$LN9@CMiniThrea|
  000c0	00000000	 DCD         |?ThreadProc@CMiniThread@@CAKPAX@Z|
  000c4		 |$LN10@CMiniThrea|
  000c4	00000000	 DCD         |??_7CMiniThread@@6B@|
  000c8		 |$M38861|

			 ENDP  ; |??0CMiniThread@@QAA@KH@Z|, CMiniThread::CMiniThread

	IMPORT	|ExitThread|

  00000			 AREA	 |.pdata|, PDATA
|$T38874| DCD	|$LN5@ThreadProc|
	DCD	0x40001d04
; Function compile flags: /Odtp

  00000			 AREA	 |.text|, CODE, ARM

  00000		 |?ThreadProc@CMiniThread@@CAKPAX@Z| PROC ; CMiniThread::ThreadProc

; 154  :     {

  00000		 |$LN5@ThreadProc|
  00000	e1a0c00d	 mov         r12, sp
  00004	e92d0001	 stmdb       sp!, {r0}
  00008	e92d5000	 stmdb       sp!, {r12, lr}
  0000c	e24dd00c	 sub         sp, sp, #0xC
  00010		 |$M38871|

; 155  :         CMiniThread* pThreadPtr = ( CMiniThread* ) dParam;

  00010	e59d3014	 ldr         r3, [sp, #0x14]
  00014	e58d3000	 str         r3, [sp]

; 156  :         pThreadPtr->m_dwExitCode = pThreadPtr->ThreadRun();

  00018	e59d3000	 ldr         r3, [sp]
  0001c	e5933000	 ldr         r3, [r3]
  00020	e59d0000	 ldr         r0, [sp]
  00024	e5933000	 ldr         r3, [r3]
  00028	e1a0e00f	 mov         lr, pc
  0002c	e12fff13	 bx          r3
  00030	e58d0008	 str         r0, [sp, #8]
  00034	e59d3000	 ldr         r3, [sp]
  00038	e2832014	 add         r2, r3, #0x14
  0003c	e59d3008	 ldr         r3, [sp, #8]
  00040	e5823000	 str         r3, [r2]

; 157  :         ::ExitThread( pThreadPtr->m_dwExitCode );

  00044	e59d3000	 ldr         r3, [sp]
  00048	e2833014	 add         r3, r3, #0x14
  0004c	e5930000	 ldr         r0, [r3]
  00050	eb000000	 bl          ExitThread

; 158  :         return pThreadPtr->m_dwExitCode;

  00054	e59d3000	 ldr         r3, [sp]
  00058	e2833014	 add         r3, r3, #0x14
  0005c	e5933000	 ldr         r3, [r3]
  00060	e58d3004	 str         r3, [sp, #4]

; 159  :     };

  00064	e59d0004	 ldr         r0, [sp, #4]
  00068	e28dd00c	 add         sp, sp, #0xC
  0006c	e89d6000	 ldmia       sp, {sp, lr}
  00070	e12fff1e	 bx          lr
  00074		 |$M38872|

			 ENDP  ; |?ThreadProc@CMiniThread@@CAKPAX@Z|, CMiniThread::ThreadProc

	IMPORT	|OpenDeviceKey|
; File c:\wince600\public\common\oak\inc\cregedit.h

  00000			 AREA	 |.pdata|, PDATA
|$T38882| DCD	|$LN6@CRegistryE|
	DCD	0x40001604
; Function compile flags: /Odtp

  00000			 AREA	 |.text|, CODE, ARM

  00000		 |??0CRegistryEdit@@QAA@PBG@Z| PROC	; CRegistryEdit::CRegistryEdit

; 36   :     CRegistryEdit( LPCTSTR RegPath )

  00000		 |$LN6@CRegistryE|
  00000	e1a0c00d	 mov         r12, sp
  00004	e92d0003	 stmdb       sp!, {r0, r1}
  00008	e92d5000	 stmdb       sp!, {r12, lr}
  0000c	e24dd008	 sub         sp, sp, #8
  00010		 |$M38879|

; 37   :     {
; 38   :         m_hDevKey = NULL;

  00010	e59d2010	 ldr         r2, [sp, #0x10]
  00014	e3a03000	 mov         r3, #0
  00018	e5823000	 str         r3, [r2]

; 39   :         if( RegPath )

  0001c	e59d3014	 ldr         r3, [sp, #0x14]
  00020	e3530000	 cmp         r3, #0
  00024	0a000005	 beq         |$LN1@CRegistryE|

; 40   :         {
; 41   :             m_hDevKey = OpenDeviceKey( RegPath );

  00028	e59d0014	 ldr         r0, [sp, #0x14]
  0002c	eb000000	 bl          OpenDeviceKey
  00030	e58d0004	 str         r0, [sp, #4]
  00034	e59d2004	 ldr         r2, [sp, #4]
  00038	e59d3010	 ldr         r3, [sp, #0x10]
  0003c	e5832000	 str         r2, [r3]
  00040		 |$LN1@CRegistryE|

; 42   :         }
; 43   :     }

  00040	e59d3010	 ldr         r3, [sp, #0x10]
  00044	e58d3000	 str         r3, [sp]
  00048	e59d0000	 ldr         r0, [sp]
  0004c	e28dd008	 add         sp, sp, #8
  00050	e89d6000	 ldmia       sp, {sp, lr}
  00054	e12fff1e	 bx          lr
  00058		 |$M38880|

			 ENDP  ; |??0CRegistryEdit@@QAA@PBG@Z|, CRegistryEdit::CRegistryEdit

; File c:\wince600\platform\common\src\soc\pxa27x_ms_v1\inc\bul_usbfn.h

  00000			 AREA	 |.pdata|, PDATA
|$T38890| DCD	|$LN5@IsCableAtt|
	DCD	0x40000a04
; Function compile flags: /Odtp

  00000			 AREA	 |.text|, CODE, ARM

  00000		 |?IsCableAttached@BulUsbDevice@@UAAHXZ| PROC ; BulUsbDevice::IsCableAttached

; 109  :     virtual BOOL IsCableAttached() { return TRUE; };

  00000		 |$LN5@IsCableAtt|
  00000	e1a0c00d	 mov         r12, sp
  00004	e92d0001	 stmdb       sp!, {r0}
  00008	e92d5000	 stmdb       sp!, {r12, lr}
  0000c	e24dd004	 sub         sp, sp, #4
  00010		 |$M38887|
  00010	e3a03001	 mov         r3, #1
  00014	e58d3000	 str         r3, [sp]
  00018	e59d0000	 ldr         r0, [sp]
  0001c	e28dd004	 add         sp, sp, #4
  00020	e89d6000	 ldmia       sp, {sp, lr}
  00024	e12fff1e	 bx          lr
  00028		 |$M38888|

			 ENDP  ; |?IsCableAttached@BulUsbDevice@@UAAHXZ|, BulUsbDevice::IsCableAttached

	EXPORT	|??1BulUsbDevice@@UAA@XZ|		; BulUsbDevice::~BulUsbDevice
	IMPORT	|??3@YAXPAX@Z|				; operator delete

  00000			 AREA	 |.pdata|, PDATA
|$T38898| DCD	|$LN6@scalar|
	DCD	0x40001104
; Function compile flags: /Odtp

  00000			 AREA	 |.text|, CODE, ARM

  00000		 |??_GBulUsbDevice@@UAAPAXI@Z| PROC	; BulUsbDevice::`scalar deleting destructor'
  00000		 |$LN6@scalar|
  00000	e1a0c00d	 mov         r12, sp
  00004	e92d0003	 stmdb       sp!, {r0, r1}
  00008	e92d5000	 stmdb       sp!, {r12, lr}
  0000c	e24dd004	 sub         sp, sp, #4
  00010		 |$M38895|
  00010	e59d000c	 ldr         r0, [sp, #0xC]
  00014	eb000000	 bl          |??1BulUsbDevice@@UAA@XZ|
  00018	e59d3010	 ldr         r3, [sp, #0x10]
  0001c	e3130001	 tst         r3, #1
  00020	0a000001	 beq         |$LN1@scalar|
  00024	e59d000c	 ldr         r0, [sp, #0xC]
  00028	eb000000	 bl          |??3@YAXPAX@Z|
  0002c		 |$LN1@scalar|
  0002c	e59d300c	 ldr         r3, [sp, #0xC]
  00030	e58d3000	 str         r3, [sp]
  00034	e59d0000	 ldr         r0, [sp]
  00038	e28dd004	 add         sp, sp, #4
  0003c	e89d6000	 ldmia       sp, {sp, lr}
  00040	e12fff1e	 bx          lr
  00044		 |$M38896|

			 ENDP  ; |??_GBulUsbDevice@@UAAPAXI@Z|, BulUsbDevice::`scalar deleting destructor'

	EXPORT	|??0?$CStaticContainer@VBulEndpoint@@$0BI@@@QAA@XZ| ; CStaticContainer<BulEndpoint,24>::CStaticContainer<BulEndpoint,24>

  00000			 AREA	 |.pdata|, PDATA
|$T38906| DCD	|$LN5@CEndpointC|
	DCD	0x40000d04
; Function compile flags: /Odtp

  00000			 AREA	 |.text|, CODE, ARM

  00000		 |??0CEndpointContainer@@QAA@XZ| PROC	; CEndpointContainer::CEndpointContainer
  00000		 |$LN5@CEndpointC|
  00000	e1a0c00d	 mov         r12, sp
  00004	e92d0001	 stmdb       sp!, {r0}
  00008	e92d5000	 stmdb       sp!, {r12, lr}
  0000c	e24dd008	 sub         sp, sp, #8
  00010		 |$M38903|
  00010	e59d0010	 ldr         r0, [sp, #0x10]
  00014	eb000000	 bl          |??0?$CStaticContainer@VBulEndpoint@@$0BI@@@QAA@XZ|
  00018	e58d0004	 str         r0, [sp, #4]
  0001c	e59d3010	 ldr         r3, [sp, #0x10]
  00020	e58d3000	 str         r3, [sp]
  00024	e59d0000	 ldr         r0, [sp]
  00028	e28dd008	 add         sp, sp, #8
  0002c	e89d6000	 ldmia       sp, {sp, lr}
  00030	e12fff1e	 bx          lr
  00034		 |$M38904|

			 ENDP  ; |??0CEndpointContainer@@QAA@XZ|, CEndpointContainer::CEndpointContainer

	EXPORT	|??1CEndpointContainer@@QAA@XZ|		; CEndpointContainer::~CEndpointContainer
	EXPORT	|??1CRegistryEdit@@QAA@XZ|		; CRegistryEdit::~CRegistryEdit
	EXPORT	|??1CMiniThread@@QAA@XZ|		; CMiniThread::~CMiniThread
	EXPORT	|??1CLockObject@@QAA@XZ|		; CLockObject::~CLockObject
	EXPORT	|?WriteIntrCtr1Register@BulUsbDevice@@QAAXK@Z| ; BulUsbDevice::WriteIntrCtr1Register
	EXPORT	|?WriteIntrCtr0Register@BulUsbDevice@@QAAXK@Z| ; BulUsbDevice::WriteIntrCtr0Register
	EXPORT	|?RemoveObjectBy@?$CStaticContainer@VBulEndpoint@@$0BI@@@QAAPAVBulEndpoint@@K@Z| ; CStaticContainer<BulEndpoint,24>::RemoveObjectBy
	EXPORT	|?ThreadTerminated@CMiniThread@@QAAHK@Z| ; CMiniThread::ThreadTerminated
	EXPORT	|SetEvent|
	EXPORT	|?ThreadStart@CMiniThread@@QAAHXZ|	; CMiniThread::ThreadStart
	EXPORT	|??_GBulOTGEventThread@@QAAPAXI@Z|	; BulOTGEventThread::`scalar deleting destructor'
	IMPORT	|CloseBusAccessHandle|
	IMPORT	|MmUnmapIoSpace|
	IMPORT	|CloseHandle|
	IMPORT	|InterruptDisable|

  000b0			 AREA	 |.pdata|, PDATA
|$T38921| DCD	|$LN19@BulUsbDevi@2|
	DCD	0x40009604
; Function compile flags: /Odtp
; File c:\wince600\platform\common\src\soc\pxa27x_ms_v1\usbfn\bul_usbfn.cpp

  03c5c			 AREA	 |.text|, CODE, ARM

  03c5c		 |??1BulUsbDevice@@UAA@XZ| PROC		; BulUsbDevice::~BulUsbDevice

; 736  : {

  03c5c		 |$LN19@BulUsbDevi@2|
  03c5c	e1a0c00d	 mov         r12, sp
  03c60	e92d0001	 stmdb       sp!, {r0}
  03c64	e92d5000	 stmdb       sp!, {r12, lr}
  03c68	e24dd020	 sub         sp, sp, #0x20
  03c6c		 |$M38918|
  03c6c	e59f223c	 ldr         r2, [pc, #0x23C]
  03c70	e59d3028	 ldr         r3, [sp, #0x28]
  03c74	e5832000	 str         r2, [r3]

; 737  :     if (m_pOTGEventThread)

  03c78	e59d3028	 ldr         r3, [sp, #0x28]
  03c7c	e28330ec	 add         r3, r3, #0xEC
  03c80	e5933000	 ldr         r3, [r3]
  03c84	e3530000	 cmp         r3, #0
  03c88	0a000011	 beq         |$LN8@BulUsbDevi@2|

; 738  :         delete m_pOTGEventThread;

  03c8c	e59d3028	 ldr         r3, [sp, #0x28]
  03c90	e28330ec	 add         r3, r3, #0xEC
  03c94	e5933000	 ldr         r3, [r3]
  03c98	e58d3008	 str         r3, [sp, #8]
  03c9c	e59d3008	 ldr         r3, [sp, #8]
  03ca0	e58d3004	 str         r3, [sp, #4]
  03ca4	e59d3004	 ldr         r3, [sp, #4]
  03ca8	e3530000	 cmp         r3, #0
  03cac	0a000006	 beq         |$LN15@BulUsbDevi@2|
  03cb0	e3a01001	 mov         r1, #1
  03cb4	e59d0004	 ldr         r0, [sp, #4]
  03cb8	eb000000	 bl          |??_GBulOTGEventThread@@QAAPAXI@Z|
  03cbc	e58d000c	 str         r0, [sp, #0xC]
  03cc0	e59d300c	 ldr         r3, [sp, #0xC]
  03cc4	e58d3010	 str         r3, [sp, #0x10]
  03cc8	ea000001	 b           |$LN16@BulUsbDevi@2|
  03ccc		 |$LN15@BulUsbDevi@2|
  03ccc	e3a03000	 mov         r3, #0
  03cd0	e58d3010	 str         r3, [sp, #0x10]
  03cd4		 |$LN16@BulUsbDevi@2|
  03cd4		 |$LN8@BulUsbDevi@2|

; 739  :     if (m_hISTEvent) {

  03cd4	e59d3028	 ldr         r3, [sp, #0x28]
  03cd8	e28330a8	 add         r3, r3, #0xA8
  03cdc	e5933000	 ldr         r3, [r3]
  03ce0	e3530000	 cmp         r3, #0
  03ce4	0a000014	 beq         |$LN7@BulUsbDevi@2|

; 740  :         m_bTerminated=TRUE;

  03ce8	e59d3028	 ldr         r3, [sp, #0x28]
  03cec	e2832004	 add         r2, r3, #4
  03cf0	e3a03001	 mov         r3, #1
  03cf4	e5823000	 str         r3, [r2]

; 741  :         ThreadStart();

  03cf8	e59d0028	 ldr         r0, [sp, #0x28]
  03cfc	eb000000	 bl          |?ThreadStart@CMiniThread@@QAAHXZ|

; 742  :         SetEvent(m_hISTEvent);

  03d00	e59d3028	 ldr         r3, [sp, #0x28]
  03d04	e28330a8	 add         r3, r3, #0xA8
  03d08	e5930000	 ldr         r0, [r3]
  03d0c	eb000000	 bl          SetEvent

; 743  :         ThreadTerminated(1000);

  03d10	e3a01ffa	 mov         r1, #0xFA, 30
  03d14	e59d0028	 ldr         r0, [sp, #0x28]
  03d18	eb000000	 bl          |?ThreadTerminated@CMiniThread@@QAAHK@Z|

; 744  :         InterruptDisable( m_dwSysIntr );         

  03d1c	e59d3028	 ldr         r3, [sp, #0x28]
  03d20	e28330a4	 add         r3, r3, #0xA4
  03d24	e5930000	 ldr         r0, [r3]
  03d28	eb000000	 bl          InterruptDisable

; 745  :         CloseHandle(m_hISTEvent);

  03d2c	e59d3028	 ldr         r3, [sp, #0x28]
  03d30	e28330a8	 add         r3, r3, #0xA8
  03d34	e5930000	 ldr         r0, [r3]
  03d38	eb000000	 bl          CloseHandle
  03d3c		 |$LN7@BulUsbDevi@2|

; 746  :     };
; 747  :     for (DWORD dwIndex =0 ; dwIndex <MAX_ENDPOINT_NUMBER; dwIndex ++) {

  03d3c	e3a03000	 mov         r3, #0
  03d40	e58d3000	 str         r3, [sp]
  03d44	ea000002	 b           |$LN6@BulUsbDevi@2|
  03d48		 |$LN5@BulUsbDevi@2|
  03d48	e59d3000	 ldr         r3, [sp]
  03d4c	e2833001	 add         r3, r3, #1
  03d50	e58d3000	 str         r3, [sp]
  03d54		 |$LN6@BulUsbDevi@2|
  03d54	e59d3000	 ldr         r3, [sp]
  03d58	e3530018	 cmp         r3, #0x18
  03d5c	2a000004	 bcs         |$LN4@BulUsbDevi@2|

; 748  :         RemoveObjectBy( dwIndex );

  03d60	e59d1000	 ldr         r1, [sp]
  03d64	e59d3028	 ldr         r3, [sp, #0x28]
  03d68	e2830018	 add         r0, r3, #0x18
  03d6c	eb000000	 bl          |?RemoveObjectBy@?$CStaticContainer@VBulEndpoint@@$0BI@@@QAAPAVBulEndpoint@@K@Z|

; 749  :     }

  03d70	eafffff4	 b           |$LN5@BulUsbDevi@2|
  03d74		 |$LN4@BulUsbDevi@2|

; 750  :     
; 751  :     if (m_pUsbDevReg!=NULL) {

  03d74	e59d3028	 ldr         r3, [sp, #0x28]
  03d78	e2833098	 add         r3, r3, #0x98
  03d7c	e5933000	 ldr         r3, [r3]
  03d80	e3530000	 cmp         r3, #0
  03d84	0a00000d	 beq         |$LN3@BulUsbDevi@2|

; 752  :         WriteIntrCtr0Register(0);

  03d88	e3a01000	 mov         r1, #0
  03d8c	e59d0028	 ldr         r0, [sp, #0x28]
  03d90	eb000000	 bl          |?WriteIntrCtr0Register@BulUsbDevice@@QAAXK@Z|

; 753  :         WriteIntrCtr1Register(0);

  03d94	e3a01000	 mov         r1, #0
  03d98	e59d0028	 ldr         r0, [sp, #0x28]
  03d9c	eb000000	 bl          |?WriteIntrCtr1Register@BulUsbDevice@@QAAXK@Z|

; 754  :         WriteControlRegister(0) ;

  03da0	e3a01000	 mov         r1, #0
  03da4	e59d0028	 ldr         r0, [sp, #0x28]
  03da8	eb000000	 bl          |?WriteControlRegister@BulUsbDevice@@QAAXK@Z|

; 755  :         MmUnmapIoSpace((PVOID)m_pUsbDevReg,0UL);

  03dac	e3a01000	 mov         r1, #0
  03db0	e59d3028	 ldr         r3, [sp, #0x28]
  03db4	e2833098	 add         r3, r3, #0x98
  03db8	e5930000	 ldr         r0, [r3]
  03dbc	eb000000	 bl          MmUnmapIoSpace
  03dc0		 |$LN3@BulUsbDevi@2|

; 756  :     }
; 757  : 
; 758  :     if (m_pDCCLKReg) {

  03dc0	e59d3028	 ldr         r3, [sp, #0x28]
  03dc4	e283309c	 add         r3, r3, #0x9C
  03dc8	e5933000	 ldr         r3, [r3]
  03dcc	e3530000	 cmp         r3, #0
  03dd0	0a00000f	 beq         |$LN2@BulUsbDevi@2|

; 759  :         m_pDCCLKReg->cken &= ~XLLP_CLKEN_USBCLIENT ;

  03dd4	e59d3028	 ldr         r3, [sp, #0x28]
  03dd8	e283309c	 add         r3, r3, #0x9C
  03ddc	e5933000	 ldr         r3, [r3]
  03de0	e2833004	 add         r3, r3, #4
  03de4	e58d3014	 str         r3, [sp, #0x14]
  03de8	e59d3014	 ldr         r3, [sp, #0x14]
  03dec	e5932000	 ldr         r2, [r3]
  03df0	e3e03b02	 mvn         r3, #2, 22
  03df4	e0022003	 and         r2, r2, r3
  03df8	e59d3014	 ldr         r3, [sp, #0x14]
  03dfc	e5832000	 str         r2, [r3]

; 760  :         MmUnmapIoSpace(m_pDCCLKReg,0);

  03e00	e3a01000	 mov         r1, #0
  03e04	e59d3028	 ldr         r3, [sp, #0x28]
  03e08	e283309c	 add         r3, r3, #0x9C
  03e0c	e5930000	 ldr         r0, [r3]
  03e10	eb000000	 bl          MmUnmapIoSpace
  03e14		 |$LN2@BulUsbDevi@2|

; 761  :     }
; 762  : 
; 763  :     if (m_hParent)

  03e14	e59d3028	 ldr         r3, [sp, #0x28]
  03e18	e28330c8	 add         r3, r3, #0xC8
  03e1c	e5933000	 ldr         r3, [r3]
  03e20	e3530000	 cmp         r3, #0
  03e24	0a000003	 beq         |$LN1@BulUsbDevi@2|

; 764  :         CloseBusAccessHandle(m_hParent);

  03e28	e59d3028	 ldr         r3, [sp, #0x28]
  03e2c	e28330c8	 add         r3, r3, #0xC8
  03e30	e5930000	 ldr         r0, [r3]
  03e34	eb000000	 bl          CloseBusAccessHandle
  03e38		 |$LN1@BulUsbDevi@2|

; 765  :     
; 766  : }

  03e38	e59d3028	 ldr         r3, [sp, #0x28]
  03e3c	e28300cc	 add         r0, r3, #0xCC
  03e40	eb000000	 bl          |??1CLockObject@@QAA@XZ|
  03e44	e59d0028	 ldr         r0, [sp, #0x28]
  03e48	eb000000	 bl          |??1CMiniThread@@QAA@XZ|
  03e4c	e59d3028	 ldr         r3, [sp, #0x28]
  03e50	e3530000	 cmp         r3, #0
  03e54	0a000003	 beq         |$LN13@BulUsbDevi@2|
  03e58	e59d3028	 ldr         r3, [sp, #0x28]
  03e5c	e2833090	 add         r3, r3, #0x90
  03e60	e58d3018	 str         r3, [sp, #0x18]
  03e64	ea000001	 b           |$LN14@BulUsbDevi@2|
  03e68		 |$LN13@BulUsbDevi@2|
  03e68	e3a03000	 mov         r3, #0
  03e6c	e58d3018	 str         r3, [sp, #0x18]
  03e70		 |$LN14@BulUsbDevi@2|
  03e70	e59d0018	 ldr         r0, [sp, #0x18]
  03e74	eb000000	 bl          |??1CRegistryEdit@@QAA@XZ|
  03e78	e59d3028	 ldr         r3, [sp, #0x28]
  03e7c	e3530000	 cmp         r3, #0
  03e80	0a000003	 beq         |$LN11@BulUsbDevi@2|
  03e84	e59d3028	 ldr         r3, [sp, #0x28]
  03e88	e2833018	 add         r3, r3, #0x18
  03e8c	e58d301c	 str         r3, [sp, #0x1C]
  03e90	ea000001	 b           |$LN12@BulUsbDevi@2|
  03e94		 |$LN11@BulUsbDevi@2|
  03e94	e3a03000	 mov         r3, #0
  03e98	e58d301c	 str         r3, [sp, #0x1C]
  03e9c		 |$LN12@BulUsbDevi@2|
  03e9c	e59d001c	 ldr         r0, [sp, #0x1C]
  03ea0	eb000000	 bl          |??1CEndpointContainer@@QAA@XZ|
  03ea4	e28dd020	 add         sp, sp, #0x20
  03ea8	e89d6000	 ldmia       sp, {sp, lr}
  03eac	e12fff1e	 bx          lr
  03eb0		 |$LN20@BulUsbDevi@2|
  03eb0		 |$LN21@BulUsbDevi@2|
  03eb0	00000000	 DCD         |??_7BulUsbDevice@@6B@|
  03eb4		 |$M38919|

			 ENDP  ; |??1BulUsbDevice@@UAA@XZ|, BulUsbDevice::~BulUsbDevice

	IMPORT	|EventModify|
; File c:\wince600\public\common\sdk\inc\kfuncs.h

  00000			 AREA	 |.pdata|, PDATA
|$T38929| DCD	|$LN5@SetEvent|
	DCD	0x40000e04
; Function compile flags: /Odtp

  00000			 AREA	 |.text|, CODE, ARM

  00000		 |SetEvent| PROC

; 235  : _inline BOOL SetEvent(HANDLE h) {

  00000		 |$LN5@SetEvent|
  00000	e1a0c00d	 mov         r12, sp
  00004	e92d0001	 stmdb       sp!, {r0}
  00008	e92d5000	 stmdb       sp!, {r12, lr}
  0000c	e24dd008	 sub         sp, sp, #8
  00010		 |$M38926|

; 236  : 	return EventModify(h,EVENT_SET);

  00010	e3a01003	 mov         r1, #3
  00014	e59d0010	 ldr         r0, [sp, #0x10]
  00018	eb000000	 bl          EventModify
  0001c	e58d0004	 str         r0, [sp, #4]
  00020	e59d3004	 ldr         r3, [sp, #4]
  00024	e58d3000	 str         r3, [sp]

; 237  : }

  00028	e59d0000	 ldr         r0, [sp]
  0002c	e28dd008	 add         sp, sp, #8
  00030	e89d6000	 ldmia       sp, {sp, lr}
  00034	e12fff1e	 bx          lr
  00038		 |$M38927|

			 ENDP  ; |SetEvent|

	IMPORT	|DeleteCriticalSection|
; File c:\wince600\public\common\oak\inc\csync.h

  00000			 AREA	 |.pdata|, PDATA
|$T38936| DCD	|$LN5@CLockObjec@2|
	DCD	0x40000703
; Function compile flags: /Odtp

  00000			 AREA	 |.text|, CODE, ARM

  00000		 |??1CLockObject@@QAA@XZ| PROC		; CLockObject::~CLockObject

; 41   :     {

  00000		 |$LN5@CLockObjec@2|
  00000	e1a0c00d	 mov         r12, sp
  00004	e92d0001	 stmdb       sp!, {r0}
  00008	e92d5000	 stmdb       sp!, {r12, lr}
  0000c		 |$M38933|

; 42   :         DeleteCriticalSection( &m_CSection );

  0000c	e59d0008	 ldr         r0, [sp, #8]
  00010	eb000000	 bl          DeleteCriticalSection

; 43   :     };

  00014	e89d6000	 ldmia       sp, {sp, lr}
  00018	e12fff1e	 bx          lr
  0001c		 |$M38934|

			 ENDP  ; |??1CLockObject@@QAA@XZ|, CLockObject::~CLockObject

	EXPORT	|?ForceTerminated@CMiniThread@@QAAHXZ|	; CMiniThread::ForceTerminated
; File c:\wince600\public\common\oak\inc\cmthread.h

  00000			 AREA	 |.pdata|, PDATA
|$T38943| DCD	|$LN5@CMiniThrea@2|
	DCD	0x40000b03
; Function compile flags: /Odtp

  00000			 AREA	 |.text|, CODE, ARM

  00000		 |??1CMiniThread@@QAA@XZ| PROC		; CMiniThread::~CMiniThread

; 44   :     {

  00000		 |$LN5@CMiniThrea@2|
  00000	e1a0c00d	 mov         r12, sp
  00004	e92d0001	 stmdb       sp!, {r0}
  00008	e92d5000	 stmdb       sp!, {r12, lr}
  0000c		 |$M38940|
  0000c	e59f2014	 ldr         r2, [pc, #0x14]
  00010	e59d3008	 ldr         r3, [sp, #8]
  00014	e5832000	 str         r2, [r3]

; 45   :         ForceTerminated();

  00018	e59d0008	 ldr         r0, [sp, #8]
  0001c	eb000000	 bl          |?ForceTerminated@CMiniThread@@QAAHXZ|

; 46   :     }

  00020	e89d6000	 ldmia       sp, {sp, lr}
  00024	e12fff1e	 bx          lr
  00028		 |$LN6@CMiniThrea@2|
  00028		 |$LN7@CMiniThrea@2|
  00028	00000000	 DCD         |??_7CMiniThread@@6B@|
  0002c		 |$M38941|

			 ENDP  ; |??1CMiniThread@@QAA@XZ|, CMiniThread::~CMiniThread

	IMPORT	|ResumeThread|

  00000			 AREA	 |.pdata|, PDATA
|$T38953| DCD	|$LN7@ThreadStar|
	DCD	0x40001e04
; Function compile flags: /Odtp

  00000			 AREA	 |.text|, CODE, ARM

  00000		 |?ThreadStart@CMiniThread@@QAAHXZ| PROC ; CMiniThread::ThreadStart

; 49   :     {

  00000		 |$LN7@ThreadStar|
  00000	e1a0c00d	 mov         r12, sp
  00004	e92d0001	 stmdb       sp!, {r0}
  00008	e92d5000	 stmdb       sp!, {r12, lr}
  0000c	e24dd008	 sub         sp, sp, #8
  00010		 |$M38950|

; 50   :         if( m_bSuspendFlag )

  00010	e59d3010	 ldr         r3, [sp, #0x10]
  00014	e2833010	 add         r3, r3, #0x10
  00018	e5933000	 ldr         r3, [r3]
  0001c	e3530000	 cmp         r3, #0
  00020	0a00000e	 beq         |$LN2@ThreadStar|

; 51   :         {
; 52   :             if( ResumeThread( m_hThreadHandle ) == ( DWORD ) ( -1 ) )

  00024	e59d3010	 ldr         r3, [sp, #0x10]
  00028	e2833008	 add         r3, r3, #8
  0002c	e5930000	 ldr         r0, [r3]
  00030	eb000000	 bl          ResumeThread
  00034	e58d0004	 str         r0, [sp, #4]
  00038	e59d3004	 ldr         r3, [sp, #4]
  0003c	e3730001	 cmn         r3, #1
  00040	1a000002	 bne         |$LN1@ThreadStar|

; 53   :             {
; 54   :                 // failure for resume somehow
; 55   :                 return FALSE;

  00044	e3a03000	 mov         r3, #0
  00048	e58d3000	 str         r3, [sp]
  0004c	ea000005	 b           |$LN3@ThreadStar|
  00050		 |$LN1@ThreadStar|

; 56   :             };
; 57   :             m_bSuspendFlag = FALSE;

  00050	e59d3010	 ldr         r3, [sp, #0x10]
  00054	e2832010	 add         r2, r3, #0x10
  00058	e3a03000	 mov         r3, #0
  0005c	e5823000	 str         r3, [r2]
  00060		 |$LN2@ThreadStar|

; 58   :         }
; 59   :         return TRUE;

  00060	e3a03001	 mov         r3, #1
  00064	e58d3000	 str         r3, [sp]
  00068		 |$LN3@ThreadStar|

; 60   :     }

  00068	e59d0000	 ldr         r0, [sp]
  0006c	e28dd008	 add         sp, sp, #8
  00070	e89d6000	 ldmia       sp, {sp, lr}
  00074	e12fff1e	 bx          lr
  00078		 |$M38951|

			 ENDP  ; |?ThreadStart@CMiniThread@@QAAHXZ|, CMiniThread::ThreadStart

	EXPORT	|?WaitThreadComplete@CMiniThread@@QAAHK@Z| ; CMiniThread::WaitThreadComplete

  00000			 AREA	 |.pdata|, PDATA
|$T38961| DCD	|$LN5@ThreadTerm|
	DCD	0x40001204
; Function compile flags: /Odtp

  00000			 AREA	 |.text|, CODE, ARM

  00000		 |?ThreadTerminated@CMiniThread@@QAAHK@Z| PROC ; CMiniThread::ThreadTerminated

; 86   :     {

  00000		 |$LN5@ThreadTerm|
  00000	e1a0c00d	 mov         r12, sp
  00004	e92d0003	 stmdb       sp!, {r0, r1}
  00008	e92d5000	 stmdb       sp!, {r12, lr}
  0000c	e24dd008	 sub         sp, sp, #8
  00010		 |$M38958|

; 87   :         m_bTerminated = TRUE;

  00010	e59d3010	 ldr         r3, [sp, #0x10]
  00014	e2832004	 add         r2, r3, #4
  00018	e3a03001	 mov         r3, #1
  0001c	e5823000	 str         r3, [r2]

; 88   :         return WaitThreadComplete( dwMilliSeconds  );

  00020	e59d1014	 ldr         r1, [sp, #0x14]
  00024	e59d0010	 ldr         r0, [sp, #0x10]
  00028	eb000000	 bl          |?WaitThreadComplete@CMiniThread@@QAAHK@Z|
  0002c	e58d0004	 str         r0, [sp, #4]
  00030	e59d3004	 ldr         r3, [sp, #4]
  00034	e58d3000	 str         r3, [sp]

; 89   :     }

  00038	e59d0000	 ldr         r0, [sp]
  0003c	e28dd008	 add         sp, sp, #8
  00040	e89d6000	 ldmia       sp, {sp, lr}
  00044	e12fff1e	 bx          lr
  00048		 |$M38959|

			 ENDP  ; |?ThreadTerminated@CMiniThread@@QAAHK@Z|, CMiniThread::ThreadTerminated

	IMPORT	|WaitForSingleObject|

  00000			 AREA	 |.pdata|, PDATA
|$T38969| DCD	|$LN8@WaitThread|
	DCD	0x40002c04
; Function compile flags: /Odtp

  00000			 AREA	 |.text|, CODE, ARM

  00000		 |?WaitThreadComplete@CMiniThread@@QAAHK@Z| PROC ; CMiniThread::WaitThreadComplete

; 92   :     {

  00000		 |$LN8@WaitThread|
  00000	e1a0c00d	 mov         r12, sp
  00004	e92d0003	 stmdb       sp!, {r0, r1}
  00008	e92d5000	 stmdb       sp!, {r12, lr}
  0000c	e24dd00c	 sub         sp, sp, #0xC
  00010		 |$M38966|

; 93   :         if( !m_hThreadHandle )

  00010	e59d3014	 ldr         r3, [sp, #0x14]
  00014	e2833008	 add         r3, r3, #8
  00018	e5933000	 ldr         r3, [r3]
  0001c	e3530000	 cmp         r3, #0
  00020	1a000002	 bne         |$LN3@WaitThread|

; 94   :         {
; 95   :             return FALSE;

  00024	e3a03000	 mov         r3, #0
  00028	e58d3000	 str         r3, [sp]
  0002c	ea00001b	 b           |$LN4@WaitThread|
  00030		 |$LN3@WaitThread|

; 96   :         };
; 97   : 
; 98   :         if( ThreadStart() )

  00030	e59d0014	 ldr         r0, [sp, #0x14]
  00034	eb000000	 bl          |?ThreadStart@CMiniThread@@QAAHXZ|
  00038	e58d0004	 str         r0, [sp, #4]
  0003c	e59d3004	 ldr         r3, [sp, #4]
  00040	e3530000	 cmp         r3, #0
  00044	0a000013	 beq         |$LN2@WaitThread|

; 99   :         {
; 100  :             if( ::WaitForSingleObject( m_hThreadHandle, dwMilliSeconds ) ==
; 101  :                 WAIT_OBJECT_0 )

  00048	e59d1018	 ldr         r1, [sp, #0x18]
  0004c	e59d3014	 ldr         r3, [sp, #0x14]
  00050	e2833008	 add         r3, r3, #8
  00054	e5930000	 ldr         r0, [r3]
  00058	eb000000	 bl          WaitForSingleObject
  0005c	e58d0008	 str         r0, [sp, #8]
  00060	e59d3008	 ldr         r3, [sp, #8]
  00064	e3530000	 cmp         r3, #0
  00068	1a00000a	 bne         |$LN1@WaitThread|

; 102  :             {
; 103  :                 // thread dead
; 104  :                 ::CloseHandle( m_hThreadHandle );

  0006c	e59d3014	 ldr         r3, [sp, #0x14]
  00070	e2833008	 add         r3, r3, #8
  00074	e5930000	 ldr         r0, [r3]
  00078	eb000000	 bl          CloseHandle

; 105  :                 m_hThreadHandle = NULL;

  0007c	e59d3014	 ldr         r3, [sp, #0x14]
  00080	e2832008	 add         r2, r3, #8
  00084	e3a03000	 mov         r3, #0
  00088	e5823000	 str         r3, [r2]

; 106  :                 return TRUE;

  0008c	e3a03001	 mov         r3, #1
  00090	e58d3000	 str         r3, [sp]
  00094	ea000001	 b           |$LN4@WaitThread|
  00098		 |$LN1@WaitThread|
  00098		 |$LN2@WaitThread|

; 107  :             }
; 108  :         }
; 109  :         return FALSE;

  00098	e3a03000	 mov         r3, #0
  0009c	e58d3000	 str         r3, [sp]
  000a0		 |$LN4@WaitThread|

; 110  :     }

  000a0	e59d0000	 ldr         r0, [sp]
  000a4	e28dd00c	 add         sp, sp, #0xC
  000a8	e89d6000	 ldmia       sp, {sp, lr}
  000ac	e12fff1e	 bx          lr
  000b0		 |$M38967|

			 ENDP  ; |?WaitThreadComplete@CMiniThread@@QAAHK@Z|, CMiniThread::WaitThreadComplete

	IMPORT	|TerminateThread|

  00000			 AREA	 |.pdata|, PDATA
|$T38977| DCD	|$LN6@ForceTermi|
	DCD	0x40002604
; Function compile flags: /Odtp

  00000			 AREA	 |.text|, CODE, ARM

  00000		 |?ForceTerminated@CMiniThread@@QAAHXZ| PROC ; CMiniThread::ForceTerminated

; 113  :     {

  00000		 |$LN6@ForceTermi|
  00000	e1a0c00d	 mov         r12, sp
  00004	e92d0001	 stmdb       sp!, {r0}
  00008	e92d5000	 stmdb       sp!, {r12, lr}
  0000c	e24dd00c	 sub         sp, sp, #0xC
  00010		 |$M38974|

; 114  :         if( m_hThreadHandle )

  00010	e59d3014	 ldr         r3, [sp, #0x14]
  00014	e2833008	 add         r3, r3, #8
  00018	e5933000	 ldr         r3, [r3]
  0001c	e3530000	 cmp         r3, #0
  00020	0a000016	 beq         |$LN1@ForceTermi|

; 115  :         {
; 116  : //#pragma prefast(suppress: 258, "Try to recover from a pathological failure")
; 117  :             BOOL bReturn = ::TerminateThread( m_hThreadHandle, ( DWORD ) - 1 ); // terminate abnormal

  00024	e3e01000	 mvn         r1, #0
  00028	e59d3014	 ldr         r3, [sp, #0x14]
  0002c	e2833008	 add         r3, r3, #8
  00030	e5930000	 ldr         r0, [r3]
  00034	eb000000	 bl          TerminateThread
  00038	e58d0008	 str         r0, [sp, #8]
  0003c	e59d3008	 ldr         r3, [sp, #8]
  00040	e58d3000	 str         r3, [sp]

; 118  :             m_dwExitCode = -1;

  00044	e59d3014	 ldr         r3, [sp, #0x14]
  00048	e2832014	 add         r2, r3, #0x14
  0004c	e3e03000	 mvn         r3, #0
  00050	e5823000	 str         r3, [r2]

; 119  :             ::CloseHandle( m_hThreadHandle );

  00054	e59d3014	 ldr         r3, [sp, #0x14]
  00058	e2833008	 add         r3, r3, #8
  0005c	e5930000	 ldr         r0, [r3]
  00060	eb000000	 bl          CloseHandle

; 120  :             m_hThreadHandle = NULL;

  00064	e59d3014	 ldr         r3, [sp, #0x14]
  00068	e2832008	 add         r2, r3, #8
  0006c	e3a03000	 mov         r3, #0
  00070	e5823000	 str         r3, [r2]

; 121  :             return bReturn;

  00074	e59d3000	 ldr         r3, [sp]
  00078	e58d3004	 str         r3, [sp, #4]
  0007c	ea000001	 b           |$LN2@ForceTermi|
  00080		 |$LN1@ForceTermi|

; 122  :         };
; 123  :         return TRUE;

  00080	e3a03001	 mov         r3, #1
  00084	e58d3004	 str         r3, [sp, #4]
  00088		 |$LN2@ForceTermi|

; 124  :     }

  00088	e59d0004	 ldr         r0, [sp, #4]
  0008c	e28dd00c	 add         sp, sp, #0xC
  00090	e89d6000	 ldmia       sp, {sp, lr}
  00094	e12fff1e	 bx          lr
  00098		 |$M38975|

			 ENDP  ; |?ForceTerminated@CMiniThread@@QAAHXZ|, CMiniThread::ForceTerminated

	IMPORT	|RegCloseKey|
; File c:\wince600\public\common\oak\inc\cregedit.h

  00000			 AREA	 |.pdata|, PDATA
|$T38984| DCD	|$LN6@CRegistryE@2|
	DCD	0x40000c03
; Function compile flags: /Odtp

  00000			 AREA	 |.text|, CODE, ARM

  00000		 |??1CRegistryEdit@@QAA@XZ| PROC	; CRegistryEdit::~CRegistryEdit

; 80   :     {

  00000		 |$LN6@CRegistryE@2|
  00000	e1a0c00d	 mov         r12, sp
  00004	e92d0001	 stmdb       sp!, {r0}
  00008	e92d5000	 stmdb       sp!, {r12, lr}
  0000c		 |$M38981|

; 81   :         if( m_hDevKey )

  0000c	e59d3008	 ldr         r3, [sp, #8]
  00010	e5933000	 ldr         r3, [r3]
  00014	e3530000	 cmp         r3, #0
  00018	0a000002	 beq         |$LN1@CRegistryE@2|

; 82   :         {
; 83   :             RegCloseKey( m_hDevKey );

  0001c	e59d3008	 ldr         r3, [sp, #8]
  00020	e5930000	 ldr         r0, [r3]
  00024	eb000000	 bl          RegCloseKey
  00028		 |$LN1@CRegistryE@2|

; 84   :         }
; 85   :     }

  00028	e89d6000	 ldmia       sp, {sp, lr}
  0002c	e12fff1e	 bx          lr
  00030		 |$M38982|

			 ENDP  ; |??1CRegistryEdit@@QAA@XZ|, CRegistryEdit::~CRegistryEdit

; File c:\wince600\platform\common\src\soc\pxa27x_ms_v1\inc\bul_usbfn.h

  00000			 AREA	 |.pdata|, PDATA
|$T38991| DCD	|$LN5@WriteIntrC|
	DCD	0x40000903
; Function compile flags: /Odtp

  00000			 AREA	 |.text|, CODE, ARM

  00000		 |?WriteIntrCtr0Register@BulUsbDevice@@QAAXK@Z| PROC ; BulUsbDevice::WriteIntrCtr0Register

; 145  :     void    WriteIntrCtr0Register(DWORD dwData) { WriteUDCRegister(DEVICE_INT_CR0_REGISTER, dwData); }

  00000		 |$LN5@WriteIntrC|
  00000	e1a0c00d	 mov         r12, sp
  00004	e92d0003	 stmdb       sp!, {r0, r1}
  00008	e92d5000	 stmdb       sp!, {r12, lr}
  0000c		 |$M38988|
  0000c	e59d200c	 ldr         r2, [sp, #0xC]
  00010	e3a01001	 mov         r1, #1
  00014	e59d0008	 ldr         r0, [sp, #8]
  00018	eb000000	 bl          |?WriteUDCRegister@BulUsbDevice@@QAAXKK@Z|
  0001c	e89d6000	 ldmia       sp, {sp, lr}
  00020	e12fff1e	 bx          lr
  00024		 |$M38989|

			 ENDP  ; |?WriteIntrCtr0Register@BulUsbDevice@@QAAXK@Z|, BulUsbDevice::WriteIntrCtr0Register


  00000			 AREA	 |.pdata|, PDATA
|$T38998| DCD	|$LN5@WriteIntrC@2|
	DCD	0x40000903
; Function compile flags: /Odtp

  00000			 AREA	 |.text|, CODE, ARM

  00000		 |?WriteIntrCtr1Register@BulUsbDevice@@QAAXK@Z| PROC ; BulUsbDevice::WriteIntrCtr1Register

; 146  :     void    WriteIntrCtr1Register(DWORD dwData) { WriteUDCRegister(DEVICE_INT_CR1_REGISTER, dwData); }

  00000		 |$LN5@WriteIntrC@2|
  00000	e1a0c00d	 mov         r12, sp
  00004	e92d0003	 stmdb       sp!, {r0, r1}
  00008	e92d5000	 stmdb       sp!, {r12, lr}
  0000c		 |$M38995|
  0000c	e59d200c	 ldr         r2, [sp, #0xC]
  00010	e3a01002	 mov         r1, #2
  00014	e59d0008	 ldr         r0, [sp, #8]
  00018	eb000000	 bl          |?WriteUDCRegister@BulUsbDevice@@QAAXKK@Z|
  0001c	e89d6000	 ldmia       sp, {sp, lr}
  00020	e12fff1e	 bx          lr
  00024		 |$M38996|

			 ENDP  ; |?WriteIntrCtr1Register@BulUsbDevice@@QAAXK@Z|, BulUsbDevice::WriteIntrCtr1Register

	EXPORT	|??1?$CStaticContainer@VBulEndpoint@@$0BI@@@QAA@XZ| ; CStaticContainer<BulEndpoint,24>::~CStaticContainer<BulEndpoint,24>

  00000			 AREA	 |.pdata|, PDATA
|$T39005| DCD	|$LN5@CEndpointC@2|
	DCD	0x40000703
; Function compile flags: /Odtp

  00000			 AREA	 |.text|, CODE, ARM

  00000		 |??1CEndpointContainer@@QAA@XZ| PROC	; CEndpointContainer::~CEndpointContainer
  00000		 |$LN5@CEndpointC@2|
  00000	e1a0c00d	 mov         r12, sp
  00004	e92d0001	 stmdb       sp!, {r0}
  00008	e92d5000	 stmdb       sp!, {r12, lr}
  0000c		 |$M39002|
  0000c	e59d0008	 ldr         r0, [sp, #8]
  00010	eb000000	 bl          |??1?$CStaticContainer@VBulEndpoint@@$0BI@@@QAA@XZ|
  00014	e89d6000	 ldmia       sp, {sp, lr}
  00018	e12fff1e	 bx          lr
  0001c		 |$M39003|

			 ENDP  ; |??1CEndpointContainer@@QAA@XZ|, CEndpointContainer::~CEndpointContainer

	EXPORT	|??1BulOTGEventThread@@QAA@XZ|		; BulOTGEventThread::~BulOTGEventThread

  00000			 AREA	 |.pdata|, PDATA
|$T39013| DCD	|$LN6@scalar@2|
	DCD	0x40001104
; Function compile flags: /Odtp

  00000			 AREA	 |.text|, CODE, ARM

  00000		 |??_GBulOTGEventThread@@QAAPAXI@Z| PROC ; BulOTGEventThread::`scalar deleting destructor'
  00000		 |$LN6@scalar@2|
  00000	e1a0c00d	 mov         r12, sp
  00004	e92d0003	 stmdb       sp!, {r0, r1}
  00008	e92d5000	 stmdb       sp!, {r12, lr}
  0000c	e24dd004	 sub         sp, sp, #4
  00010		 |$M39010|
  00010	e59d000c	 ldr         r0, [sp, #0xC]
  00014	eb000000	 bl          |??1BulOTGEventThread@@QAA@XZ|
  00018	e59d3010	 ldr         r3, [sp, #0x10]
  0001c	e3130001	 tst         r3, #1
  00020	0a000001	 beq         |$LN1@scalar@2|
  00024	e59d000c	 ldr         r0, [sp, #0xC]
  00028	eb000000	 bl          |??3@YAXPAX@Z|
  0002c		 |$LN1@scalar@2|
  0002c	e59d300c	 ldr         r3, [sp, #0xC]
  00030	e58d3000	 str         r3, [sp]
  00034	e59d0000	 ldr         r0, [sp]
  00038	e28dd004	 add         sp, sp, #4
  0003c	e89d6000	 ldmia       sp, {sp, lr}
  00040	e12fff1e	 bx          lr
  00044		 |$M39011|

			 ENDP  ; |??_GBulOTGEventThread@@QAAPAXI@Z|, BulOTGEventThread::`scalar deleting destructor'

	EXPORT	|?Init@BulOTGEventThread@@QAAHXZ|	; BulOTGEventThread::Init
	EXPORT	|??0BulOTGEventThread@@QAA@AAVBulUsbDevice@@AAPAXK@Z| ; BulOTGEventThread::BulOTGEventThread
	EXPORT	|?HardwareInit@BulUsbDevice@@IAAHXZ|	; BulUsbDevice::HardwareInit
	EXPORT	|?CeSetPriority@CMiniThread@@QAAHH@Z|	; CMiniThread::CeSetPriority
	EXPORT	|??_C@_1BI@BHLBGEOK@?$AAP?$AAr?$AAi?$AAo?$AAr?$AAi?$AAt?$AAy?$AA2?$AA5?$AA6?$AA?$AA@| [ DATA ] ; `string'
	EXPORT	|??_C@_1BK@DHEBDKKE@?$AAD?$AAo?$AAu?$AAb?$AAl?$AAe?$AAB?$AAu?$AAf?$AAf?$AAe?$AAr?$AA?$AA@| [ DATA ] ; `string'
	EXPORT	|??_C@_1FG@BGNIKBJJ@?$AAB?$AAu?$AAl?$AAU?$AAs?$AAb?$AAD?$AAe?$AAv?$AAi?$AAc?$AAe?$AA?5?$AA?5?$AAn?$AAo?$AA?5?$AAS?$AAY?$AAS?$AAI?$AAN?$AAT?$AAR?$AA?5?$AAv?$AAa?$AAl?$AAu?$AAe?$AA?5?$AAs@| [ DATA ] ; `string'
	EXPORT	|??_C@_1FK@BKAJLAB@?$AAB?$AAu?$AAl?$AAU?$AAs?$AAb?$AAD?$AAe?$AAv?$AAi?$AAc?$AAe?$AA?5?$AAD?$AAD?$AAK?$AAR?$AAe?$AAg?$AA_?$AAG?$AAe?$AAt?$AAI?$AAs?$AAr?$AAI?$AAn?$AAf?$AAo?$AA?$CI?$AA?$CJ@| [ DATA ] ; `string'
	EXPORT	|?GetIsrInfo@CRegistryEdit@@QAAKPAU_DDKISRINFO_tag@@@Z| ; CRegistryEdit::GetIsrInfo
	EXPORT	|??_C@_1FI@NEAEECIN@?$AAm?$AAe?$AAm?$AAL?$AAe?$AAn?$AA?5?$AAo?$AAf?$AA?5?$AA0?$AAx?$AA?$CF?$AAx?$AA?5?$AAi?$AAs?$AA?5?$AAl?$AAe?$AAs?$AAs?$AA?5?$AAt?$AAh?$AAa?$AAn?$AA?5?$AAr?$AAe?$AAq?$AAu@| [ DATA ] ; `string'
	EXPORT	|??_C@_1GE@IGLLGBEG@?$AAB?$AAu?$AAl?$AAU?$AAs?$AAb?$AAD?$AAe?$AAv?$AAi?$AAc?$AAe?$AA?3?$AA?3?$AA?5?$AAD?$AAD?$AAK?$AAR?$AAe?$AAg?$AA_?$AAG?$AAe?$AAt?$AAW?$AAi?$AAn?$AAd?$AAo?$AAw?$AAI@| [ DATA ] ; `string'
	EXPORT	|?GetWindowInfo@CRegistryEdit@@QAAKPAU_DDKWINDOWINFO_tag@@@Z| ; CRegistryEdit::GetWindowInfo
	EXPORT	|?IsKeyOpened@CRegistryEdit@@QAAHXZ|	; CRegistryEdit::IsKeyOpened
	EXPORT	|__$ArrayPad$| [ DATA ]
	IMPORT	|??2@YAPAXI@Z|				; operator new
	IMPORT	|BusChildIoControl|
	IMPORT	|InterruptInitialize|
	IMPORT	|CreateEventW|
	IMPORT	|MmMapIoSpace|

  000b8			 AREA	 |.pdata|, PDATA
|$T39048| DCD	|$LN49@Init@3|
	DCD	0xc001b904
; File c:\wince600\platform\common\src\soc\pxa27x_ms_v1\usbfn\bul_usbfn.cpp

  00000			 AREA	 |.rdata|, DATA, READONLY
|??_C@_1BI@BHLBGEOK@?$AAP?$AAr?$AAi?$AAo?$AAr?$AAi?$AAt?$AAy?$AA2?$AA5?$AA6?$AA?$AA@| DCB "P"
	DCB	0x0, "r", 0x0, "i", 0x0, "o", 0x0, "r", 0x0, "i", 0x0, "t"
	DCB	0x0, "y", 0x0, "2", 0x0, "5", 0x0, "6", 0x0, 0x0, 0x0 ; `string'

  00000			 AREA	 |.rdata|, DATA, READONLY
|??_C@_1BK@DHEBDKKE@?$AAD?$AAo?$AAu?$AAb?$AAl?$AAe?$AAB?$AAu?$AAf?$AAf?$AAe?$AAr?$AA?$AA@| DCB "D"
	DCB	0x0, "o", 0x0, "u", 0x0, "b", 0x0, "l", 0x0, "e", 0x0, "B"
	DCB	0x0, "u", 0x0, "f", 0x0, "f", 0x0, "e", 0x0, "r", 0x0, 0x0
	DCB	0x0					; `string'

  00000			 AREA	 |.rdata|, DATA, READONLY
|??_C@_1FG@BGNIKBJJ@?$AAB?$AAu?$AAl?$AAU?$AAs?$AAb?$AAD?$AAe?$AAv?$AAi?$AAc?$AAe?$AA?5?$AA?5?$AAn?$AAo?$AA?5?$AAS?$AAY?$AAS?$AAI?$AAN?$AAT?$AAR?$AA?5?$AAv?$AAa?$AAl?$AAu?$AAe?$AA?5?$AAs@| DCB "B"
	DCB	0x0, "u", 0x0, "l", 0x0, "U", 0x0, "s", 0x0, "b", 0x0, "D"
	DCB	0x0, "e", 0x0, "v", 0x0, "i", 0x0, "c", 0x0, "e", 0x0, " "
	DCB	0x0, " ", 0x0, "n", 0x0, "o", 0x0, " ", 0x0, "S", 0x0, "Y"
	DCB	0x0, "S", 0x0, "I", 0x0, "N", 0x0, "T", 0x0, "R", 0x0, " "
	DCB	0x0, "v", 0x0, "a", 0x0, "l", 0x0, "u", 0x0, "e", 0x0, " "
	DCB	0x0, "s", 0x0, "p", 0x0, "e", 0x0, "c", 0x0, "i", 0x0, "f"
	DCB	0x0, "i", 0x0, "e", 0x0, "d", 0x0, 0xd, 0x0, 0xa, 0x0, 0x0
	DCB	0x0					; `string'

  00000			 AREA	 |.rdata|, DATA, READONLY
|??_C@_1FK@BKAJLAB@?$AAB?$AAu?$AAl?$AAU?$AAs?$AAb?$AAD?$AAe?$AAv?$AAi?$AAc?$AAe?$AA?5?$AAD?$AAD?$AAK?$AAR?$AAe?$AAg?$AA_?$AAG?$AAe?$AAt?$AAI?$AAs?$AAr?$AAI?$AAn?$AAf?$AAo?$AA?$CI?$AA?$CJ@| DCB "B"
	DCB	0x0, "u", 0x0, "l", 0x0, "U", 0x0, "s", 0x0, "b", 0x0, "D"
	DCB	0x0, "e", 0x0, "v", 0x0, "i", 0x0, "c", 0x0, "e", 0x0, " "
	DCB	0x0, "D", 0x0, "D", 0x0, "K", 0x0, "R", 0x0, "e", 0x0, "g"
	DCB	0x0, "_", 0x0, "G", 0x0, "e", 0x0, "t", 0x0, "I", 0x0, "s"
	DCB	0x0, "r", 0x0, "I", 0x0, "n", 0x0, "f", 0x0, "o", 0x0, "("
	DCB	0x0, ")", 0x0, " ", 0x0, "f", 0x0, "a", 0x0, "i", 0x0, "l"
	DCB	0x0, "e", 0x0, "d", 0x0, " ", 0x0, "%", 0x0, "d", 0x0, 0xd
	DCB	0x0, 0xa, 0x0, 0x0, 0x0			; `string'

  00000			 AREA	 |.rdata|, DATA, READONLY
|??_C@_1FI@NEAEECIN@?$AAm?$AAe?$AAm?$AAL?$AAe?$AAn?$AA?5?$AAo?$AAf?$AA?5?$AA0?$AAx?$AA?$CF?$AAx?$AA?5?$AAi?$AAs?$AA?5?$AAl?$AAe?$AAs?$AAs?$AA?5?$AAt?$AAh?$AAa?$AAn?$AA?5?$AAr?$AAe?$AAq?$AAu@| DCB "m"
	DCB	0x0, "e", 0x0, "m", 0x0, "L", 0x0, "e", 0x0, "n", 0x0, " "
	DCB	0x0, "o", 0x0, "f", 0x0, " ", 0x0, "0", 0x0, "x", 0x0, "%"
	DCB	0x0, "x", 0x0, " ", 0x0, "i", 0x0, "s", 0x0, " ", 0x0, "l"
	DCB	0x0, "e", 0x0, "s", 0x0, "s", 0x0, " ", 0x0, "t", 0x0, "h"
	DCB	0x0, "a", 0x0, "n", 0x0, " ", 0x0, "r", 0x0, "e", 0x0, "q"
	DCB	0x0, "u", 0x0, "i", 0x0, "r", 0x0, "e", 0x0, "d", 0x0, " "
	DCB	0x0, "0", 0x0, "x", 0x0, "%", 0x0, "x", 0x0, 0xd, 0x0, 0xa
	DCB	0x0, 0x0, 0x0				; `string'

  00000			 AREA	 |.rdata|, DATA, READONLY
|??_C@_1GE@IGLLGBEG@?$AAB?$AAu?$AAl?$AAU?$AAs?$AAb?$AAD?$AAe?$AAv?$AAi?$AAc?$AAe?$AA?3?$AA?3?$AA?5?$AAD?$AAD?$AAK?$AAR?$AAe?$AAg?$AA_?$AAG?$AAe?$AAt?$AAW?$AAi?$AAn?$AAd?$AAo?$AAw?$AAI@| DCB "B"
	DCB	0x0, "u", 0x0, "l", 0x0, "U", 0x0, "s", 0x0, "b", 0x0, "D"
	DCB	0x0, "e", 0x0, "v", 0x0, "i", 0x0, "c", 0x0, "e", 0x0, ":"
	DCB	0x0, ":", 0x0, " ", 0x0, "D", 0x0, "D", 0x0, "K", 0x0, "R"
	DCB	0x0, "e", 0x0, "g", 0x0, "_", 0x0, "G", 0x0, "e", 0x0, "t"
	DCB	0x0, "W", 0x0, "i", 0x0, "n", 0x0, "d", 0x0, "o", 0x0, "w"
	DCB	0x0, "I", 0x0, "n", 0x0, "f", 0x0, "o", 0x0, "(", 0x0, ")"
	DCB	0x0, " ", 0x0, "f", 0x0, "a", 0x0, "i", 0x0, "l", 0x0, "e"
	DCB	0x0, "d", 0x0, " ", 0x0, "%", 0x0, "d", 0x0, 0xd, 0x0, 0xa
	DCB	0x0, 0x0, 0x0				; `string'

  00004			 AREA	 |.xdata|, DATA
|$T39044| DCD	0xffffff88
; Function compile flags: /Odtp

  03eb4			 AREA	 |.text|, CODE, ARM

  03eb4	00000000	 DCD         |__GSHandlerCheck|
  03eb8	00000000	 DCD         |$T39044|

  03ebc		 |?Init@BulUsbDevice@@UAAKPAXPAU_UFN_MDD_INTERFACE_INFO@@PAU_UFN_PDD_INTERFACE_INFO@@@Z| PROC ; BulUsbDevice::Init

; 772  : {

  03ebc		 |$LN49@Init@3|
  03ebc	e1a0c00d	 mov         r12, sp
  03ec0	e92d000f	 stmdb       sp!, {r0 - r3}
  03ec4	e92d5000	 stmdb       sp!, {r12, lr}
  03ec8	e24ddf82	 sub         sp, sp, #0x82, 30
  03ecc		 |$M39045|
  03ecc	e59f36c8	 ldr         r3, [pc, #0x6C8]
  03ed0	e5933000	 ldr         r3, [r3]
  03ed4	e58d31a8	 str         r3, [sp, #0x1A8]

; 773  :     m_pvMddContext = pvMddContext;

  03ed8	e59d3210	 ldr         r3, [sp, #0x210]
  03edc	e28320b4	 add         r2, r3, #0xB4
  03ee0	e59d3214	 ldr         r3, [sp, #0x214]
  03ee4	e5823000	 str         r3, [r2]

; 774  :     m_pfnNotify = pMddInterfaceInfo->pfnNotify;

  03ee8	e59d3218	 ldr         r3, [sp, #0x218]
  03eec	e2831004	 add         r1, r3, #4
  03ef0	e59d3210	 ldr         r3, [sp, #0x210]
  03ef4	e28320c0	 add         r2, r3, #0xC0
  03ef8	e5913000	 ldr         r3, [r1]
  03efc	e5823000	 str         r3, [r2]

; 775  :     pPddInterfaceInfo->pvPddContext = this;

  03f00	e59d321c	 ldr         r3, [sp, #0x21C]
  03f04	e283200c	 add         r2, r3, #0xC
  03f08	e59d3210	 ldr         r3, [sp, #0x210]
  03f0c	e5823000	 str         r3, [r2]

; 776  :     
; 777  :     if ( !IsKeyOpened())

  03f10	e59d3210	 ldr         r3, [sp, #0x210]
  03f14	e2830090	 add         r0, r3, #0x90
  03f18	eb000000	 bl          |?IsKeyOpened@CRegistryEdit@@QAAHXZ|
  03f1c	e58d01b0	 str         r0, [sp, #0x1B0]
  03f20	e59d31b0	 ldr         r3, [sp, #0x1B0]
  03f24	e3530000	 cmp         r3, #0
  03f28	1a000004	 bne         |$LN22@Init@3|

; 778  :         return ERROR_INVALID_DATA; 

  03f2c	e59d01a8	 ldr         r0, [sp, #0x1A8]
  03f30	eb000000	 bl          __security_check_cookie
  03f34	e3a0300d	 mov         r3, #0xD
  03f38	e58d31ac	 str         r3, [sp, #0x1AC]
  03f3c	ea00018a	 b           |$LN23@Init@3|
  03f40		 |$LN22@Init@3|

; 779  :     
; 780  :     DDKISRINFO dii;
; 781  :     DDKWINDOWINFO dwi;
; 782  :     DWORD dwRet = GetWindowInfo(&dwi);

  03f40	e28d1004	 add         r1, sp, #4
  03f44	e59d3210	 ldr         r3, [sp, #0x210]
  03f48	e2830090	 add         r0, r3, #0x90
  03f4c	eb000000	 bl          |?GetWindowInfo@CRegistryEdit@@QAAKPAU_DDKWINDOWINFO_tag@@@Z|
  03f50	e58d01b4	 str         r0, [sp, #0x1B4]
  03f54	e59d31b4	 ldr         r3, [sp, #0x1B4]
  03f58	e58d3000	 str         r3, [sp]

; 783  :     if(dwRet != ERROR_SUCCESS) {

  03f5c	e59d3000	 ldr         r3, [sp]
  03f60	e3530000	 cmp         r3, #0
  03f64	0a000019	 beq         |$LN21@Init@3|

; 784  :         DEBUGMSG(ZONE_INIT, (_T("BulUsbDevice:: DDKReg_GetWindowInfo() failed %d\r\n"), dwRet));

  03f68	e59f361c	 ldr         r3, [pc, #0x61C]
  03f6c	e5933440	 ldr         r3, [r3, #0x440]
  03f70	e3130004	 tst         r3, #4
  03f74	0a00000d	 beq         |$LN27@Init@3|
  03f78	e59f360c	 ldr         r3, [pc, #0x60C]
  03f7c	e5933440	 ldr         r3, [r3, #0x440]
  03f80	e3130801	 tst         r3, #1, 16
  03f84	0a000003	 beq         |$LN25@Init@3|
  03f88	e59d1000	 ldr         r1, [sp]
  03f8c	e59f0604	 ldr         r0, [pc, #0x604]
  03f90	eb000000	 bl          CeLogMsg
  03f94	ea000002	 b           |$LN26@Init@3|
  03f98		 |$LN25@Init@3|
  03f98	e59d1000	 ldr         r1, [sp]
  03f9c	e59f05f4	 ldr         r0, [pc, #0x5F4]
  03fa0	eb000000	 bl          NKDbgPrintfW
  03fa4		 |$LN26@Init@3|
  03fa4	e3a03001	 mov         r3, #1
  03fa8	e58d31b8	 str         r3, [sp, #0x1B8]
  03fac	ea000001	 b           |$LN28@Init@3|
  03fb0		 |$LN27@Init@3|
  03fb0	e3a03000	 mov         r3, #0
  03fb4	e58d31b8	 str         r3, [sp, #0x1B8]
  03fb8		 |$LN28@Init@3|

; 785  :         return dwRet;

  03fb8	e59d01a8	 ldr         r0, [sp, #0x1A8]
  03fbc	eb000000	 bl          __security_check_cookie
  03fc0	e59d3000	 ldr         r3, [sp]
  03fc4	e58d31ac	 str         r3, [sp, #0x1AC]
  03fc8	ea000167	 b           |$LN23@Init@3|
  03fcc	ea000026	 b           |$LN20@Init@3|
  03fd0		 |$LN21@Init@3|

; 786  :     } else if(dwi.dwNumMemWindows != 1) {

  03fd0	e59d3044	 ldr         r3, [sp, #0x44]
  03fd4	e3530001	 cmp         r3, #1
  03fd8	0a000005	 beq         |$LN19@Init@3|

; 787  :         return ERROR_INVALID_DATA;

  03fdc	e59d01a8	 ldr         r0, [sp, #0x1A8]
  03fe0	eb000000	 bl          __security_check_cookie
  03fe4	e3a0300d	 mov         r3, #0xD
  03fe8	e58d31ac	 str         r3, [sp, #0x1AC]
  03fec	ea00015e	 b           |$LN23@Init@3|
  03ff0	ea00001d	 b           |$LN18@Init@3|
  03ff4		 |$LN19@Init@3|

; 788  :     }  else if (dwi.memWindows[0].dwLen < sizeof(BULVERDE_USBD_REG)) {

  03ff4	e59d304c	 ldr         r3, [sp, #0x4C]
  03ff8	e3530c05	 cmp         r3, #5, 24
  03ffc	2a00001a	 bcs         |$LN17@Init@3|

; 789  :         DEBUGMSG(ZONE_INIT, (_T("memLen of 0x%x is less than required 0x%x\r\n"),
; 790  :             dwi.memWindows[0].dwLen, sizeof(BULVERDE_USBD_REG)));

  04000	e59f3584	 ldr         r3, [pc, #0x584]
  04004	e5933440	 ldr         r3, [r3, #0x440]
  04008	e3130004	 tst         r3, #4
  0400c	0a00000f	 beq         |$LN31@Init@3|
  04010	e59f3574	 ldr         r3, [pc, #0x574]
  04014	e5933440	 ldr         r3, [r3, #0x440]
  04018	e3130801	 tst         r3, #1, 16
  0401c	0a000004	 beq         |$LN29@Init@3|
  04020	e3a02c05	 mov         r2, #5, 24
  04024	e59d104c	 ldr         r1, [sp, #0x4C]
  04028	e59f0564	 ldr         r0, [pc, #0x564]
  0402c	eb000000	 bl          CeLogMsg
  04030	ea000003	 b           |$LN30@Init@3|
  04034		 |$LN29@Init@3|
  04034	e3a02c05	 mov         r2, #5, 24
  04038	e59d104c	 ldr         r1, [sp, #0x4C]
  0403c	e59f0550	 ldr         r0, [pc, #0x550]
  04040	eb000000	 bl          NKDbgPrintfW
  04044		 |$LN30@Init@3|
  04044	e3a03001	 mov         r3, #1
  04048	e58d31bc	 str         r3, [sp, #0x1BC]
  0404c	ea000001	 b           |$LN32@Init@3|
  04050		 |$LN31@Init@3|
  04050	e3a03000	 mov         r3, #0
  04054	e58d31bc	 str         r3, [sp, #0x1BC]
  04058		 |$LN32@Init@3|

; 791  :         return ERROR_INVALID_DATA;

  04058	e59d01a8	 ldr         r0, [sp, #0x1A8]
  0405c	eb000000	 bl          __security_check_cookie
  04060	e3a0300d	 mov         r3, #0xD
  04064	e58d31ac	 str         r3, [sp, #0x1AC]
  04068	ea00013f	 b           |$LN23@Init@3|
  0406c		 |$LN17@Init@3|
  0406c		 |$LN18@Init@3|
  0406c		 |$LN20@Init@3|

; 792  :     }
; 793  :     m_fIsCableAttached = FALSE;

  0406c	e59d3210	 ldr         r3, [sp, #0x210]
  04070	e28320a0	 add         r2, r3, #0xA0
  04074	e3a03000	 mov         r3, #0
  04078	e5823000	 str         r3, [r2]

; 794  :     m_fResumeOccurred = FALSE;

  0407c	e59d3210	 ldr         r3, [sp, #0x210]
  04080	e2832094	 add         r2, r3, #0x94
  04084	e3a03000	 mov         r3, #0
  04088	e5823000	 str         r3, [r2]

; 795  :     if (m_pDCCLKReg == NULL ) {

  0408c	e59d3210	 ldr         r3, [sp, #0x210]
  04090	e283309c	 add         r3, r3, #0x9C
  04094	e5933000	 ldr         r3, [r3]
  04098	e3530000	 cmp         r3, #0
  0409c	1a000023	 bne         |$LN16@Init@3|

; 796  :         PHYSICAL_ADDRESS ioPhysicalBase = {BULVERDE_BASE_REG_PA_CLKMGR, 0 };

  040a0	e3a03441	 mov         r3, #0x41, 8
  040a4	e3833603	 orr         r3, r3, #3, 12
  040a8	e58d318c	 str         r3, [sp, #0x18C]
  040ac	e3a03000	 mov         r3, #0
  040b0	e58d3190	 str         r3, [sp, #0x190]

; 797  :         m_pDCCLKReg = (PBULVERDE_CLKMGR_REG)MmMapIoSpace(ioPhysicalBase, sizeof(BULVERDE_CLKMGR_REG),FALSE);

  040b4	e3a03000	 mov         r3, #0
  040b8	e3a02010	 mov         r2, #0x10
  040bc	e59d018c	 ldr         r0, [sp, #0x18C]
  040c0	e59d1190	 ldr         r1, [sp, #0x190]
  040c4	eb000000	 bl          MmMapIoSpace
  040c8	e58d01c0	 str         r0, [sp, #0x1C0]
  040cc	e59d3210	 ldr         r3, [sp, #0x210]
  040d0	e283209c	 add         r2, r3, #0x9C
  040d4	e59d31c0	 ldr         r3, [sp, #0x1C0]
  040d8	e5823000	 str         r3, [r2]

; 798  :         if (m_pDCCLKReg != NULL)

  040dc	e59d3210	 ldr         r3, [sp, #0x210]
  040e0	e283309c	 add         r3, r3, #0x9C
  040e4	e5933000	 ldr         r3, [r3]
  040e8	e3530000	 cmp         r3, #0
  040ec	0a00000a	 beq         |$LN15@Init@3|

; 799  :             m_pDCCLKReg->cken |= XLLP_CLKEN_USBCLIENT ;

  040f0	e59d3210	 ldr         r3, [sp, #0x210]
  040f4	e283309c	 add         r3, r3, #0x9C
  040f8	e5933000	 ldr         r3, [r3]
  040fc	e2833004	 add         r3, r3, #4
  04100	e58d31c4	 str         r3, [sp, #0x1C4]
  04104	e59d31c4	 ldr         r3, [sp, #0x1C4]
  04108	e5933000	 ldr         r3, [r3]
  0410c	e3832b02	 orr         r2, r3, #2, 22
  04110	e59d31c4	 ldr         r3, [sp, #0x1C4]
  04114	e5832000	 str         r2, [r3]

; 800  :         else

  04118	ea000004	 b           |$LN14@Init@3|
  0411c		 |$LN15@Init@3|

; 801  :             return ERROR_INVALID_DATA;            

  0411c	e59d01a8	 ldr         r0, [sp, #0x1A8]
  04120	eb000000	 bl          __security_check_cookie
  04124	e3a0300d	 mov         r3, #0xD
  04128	e58d31ac	 str         r3, [sp, #0x1AC]
  0412c	ea00010e	 b           |$LN23@Init@3|
  04130		 |$LN14@Init@3|
  04130		 |$LN16@Init@3|

; 802  :     }
; 803  : 
; 804  :     // Map Windows.
; 805  :     // Translate to System Address.
; 806  :     if (m_pUsbDevReg==NULL ) {

  04130	e59d3210	 ldr         r3, [sp, #0x210]
  04134	e2833098	 add         r3, r3, #0x98
  04138	e5933000	 ldr         r3, [r3]
  0413c	e3530000	 cmp         r3, #0
  04140	1a000017	 bne         |$LN13@Init@3|

; 807  :         PHYSICAL_ADDRESS    ioPhysicalBase = { dwi.memWindows[0].dwBase, 0};

  04144	e59d3048	 ldr         r3, [sp, #0x48]
  04148	e58d3194	 str         r3, [sp, #0x194]
  0414c	e3a03000	 mov         r3, #0
  04150	e58d3198	 str         r3, [sp, #0x198]

; 808  :         m_pUsbDevReg = (PULONG) MmMapIoSpace(ioPhysicalBase, dwi.memWindows[0].dwLen,FALSE);

  04154	e3a03000	 mov         r3, #0
  04158	e59d204c	 ldr         r2, [sp, #0x4C]
  0415c	e59d0194	 ldr         r0, [sp, #0x194]
  04160	e59d1198	 ldr         r1, [sp, #0x198]
  04164	eb000000	 bl          MmMapIoSpace
  04168	e58d01c8	 str         r0, [sp, #0x1C8]
  0416c	e59d3210	 ldr         r3, [sp, #0x210]
  04170	e2832098	 add         r2, r3, #0x98
  04174	e59d31c8	 ldr         r3, [sp, #0x1C8]
  04178	e5823000	 str         r3, [r2]

; 809  :         if (m_pUsbDevReg==NULL )

  0417c	e59d3210	 ldr         r3, [sp, #0x210]
  04180	e2833098	 add         r3, r3, #0x98
  04184	e5933000	 ldr         r3, [r3]
  04188	e3530000	 cmp         r3, #0
  0418c	1a000004	 bne         |$LN12@Init@3|

; 810  :             return ERROR_INVALID_DATA;

  04190	e59d01a8	 ldr         r0, [sp, #0x1A8]
  04194	eb000000	 bl          __security_check_cookie
  04198	e3a0300d	 mov         r3, #0xD
  0419c	e58d31ac	 str         r3, [sp, #0x1AC]
  041a0	ea0000f1	 b           |$LN23@Init@3|
  041a4		 |$LN12@Init@3|
  041a4		 |$LN13@Init@3|

; 811  :     }
; 812  :     // get ISR configuration information
; 813  :     dwRet = GetIsrInfo( &dii);

  041a4	e28d107c	 add         r1, sp, #0x7C
  041a8	e59d3210	 ldr         r3, [sp, #0x210]
  041ac	e2830090	 add         r0, r3, #0x90
  041b0	eb000000	 bl          |?GetIsrInfo@CRegistryEdit@@QAAKPAU_DDKISRINFO_tag@@@Z|
  041b4	e58d01cc	 str         r0, [sp, #0x1CC]
  041b8	e59d31cc	 ldr         r3, [sp, #0x1CC]
  041bc	e58d3000	 str         r3, [sp]

; 814  :     if(dwRet != ERROR_SUCCESS) {

  041c0	e59d3000	 ldr         r3, [sp]
  041c4	e3530000	 cmp         r3, #0
  041c8	0a000019	 beq         |$LN11@Init@3|

; 815  :         DEBUGMSG(ZONE_INIT, (_T("BulUsbDevice DDKReg_GetIsrInfo() failed %d\r\n"), dwRet));

  041cc	e59f33b8	 ldr         r3, [pc, #0x3B8]
  041d0	e5933440	 ldr         r3, [r3, #0x440]
  041d4	e3130004	 tst         r3, #4
  041d8	0a00000d	 beq         |$LN35@Init@3|
  041dc	e59f33a8	 ldr         r3, [pc, #0x3A8]
  041e0	e5933440	 ldr         r3, [r3, #0x440]
  041e4	e3130801	 tst         r3, #1, 16
  041e8	0a000003	 beq         |$LN33@Init@3|
  041ec	e59d1000	 ldr         r1, [sp]
  041f0	e59f0398	 ldr         r0, [pc, #0x398]
  041f4	eb000000	 bl          CeLogMsg
  041f8	ea000002	 b           |$LN34@Init@3|
  041fc		 |$LN33@Init@3|
  041fc	e59d1000	 ldr         r1, [sp]
  04200	e59f0388	 ldr         r0, [pc, #0x388]
  04204	eb000000	 bl          NKDbgPrintfW
  04208		 |$LN34@Init@3|
  04208	e3a03001	 mov         r3, #1
  0420c	e58d31d0	 str         r3, [sp, #0x1D0]
  04210	ea000001	 b           |$LN36@Init@3|
  04214		 |$LN35@Init@3|
  04214	e3a03000	 mov         r3, #0
  04218	e58d31d0	 str         r3, [sp, #0x1D0]
  0421c		 |$LN36@Init@3|

; 816  :         return dwRet;

  0421c	e59d01a8	 ldr         r0, [sp, #0x1A8]
  04220	eb000000	 bl          __security_check_cookie
  04224	e59d3000	 ldr         r3, [sp]
  04228	e58d31ac	 str         r3, [sp, #0x1AC]
  0422c	ea0000ce	 b           |$LN23@Init@3|
  04230	ea000019	 b           |$LN10@Init@3|
  04234		 |$LN11@Init@3|

; 817  :     } else if(dii.dwSysintr == SYSINTR_NOP){

  04234	e59d3084	 ldr         r3, [sp, #0x84]
  04238	e3530000	 cmp         r3, #0
  0423c	1a000016	 bne         |$LN9@Init@3|

; 818  :         DEBUGMSG(ZONE_INIT, (_T("BulUsbDevice  no SYSINTR value specified\r\n")));

  04240	e59f3344	 ldr         r3, [pc, #0x344]
  04244	e5933440	 ldr         r3, [r3, #0x440]
  04248	e3130004	 tst         r3, #4
  0424c	0a00000b	 beq         |$LN39@Init@3|
  04250	e59f3334	 ldr         r3, [pc, #0x334]
  04254	e5933440	 ldr         r3, [r3, #0x440]
  04258	e3130801	 tst         r3, #1, 16
  0425c	0a000002	 beq         |$LN37@Init@3|
  04260	e59f0320	 ldr         r0, [pc, #0x320]
  04264	eb000000	 bl          CeLogMsg
  04268	ea000001	 b           |$LN38@Init@3|
  0426c		 |$LN37@Init@3|
  0426c	e59f0314	 ldr         r0, [pc, #0x314]
  04270	eb000000	 bl          NKDbgPrintfW
  04274		 |$LN38@Init@3|
  04274	e3a03001	 mov         r3, #1
  04278	e58d31d4	 str         r3, [sp, #0x1D4]
  0427c	ea000001	 b           |$LN40@Init@3|
  04280		 |$LN39@Init@3|
  04280	e3a03000	 mov         r3, #0
  04284	e58d31d4	 str         r3, [sp, #0x1D4]
  04288		 |$LN40@Init@3|

; 819  :         return ERROR_INVALID_DATA;

  04288	e59d01a8	 ldr         r0, [sp, #0x1A8]
  0428c	eb000000	 bl          __security_check_cookie
  04290	e3a0300d	 mov         r3, #0xD
  04294	e58d31ac	 str         r3, [sp, #0x1AC]
  04298	ea0000b3	 b           |$LN23@Init@3|
  0429c		 |$LN9@Init@3|
  0429c		 |$LN10@Init@3|

; 820  :     };
; 821  : 
; 822  :     m_dwSysIntr = dii.dwSysintr;

  0429c	e59d3210	 ldr         r3, [sp, #0x210]
  042a0	e28320a4	 add         r2, r3, #0xA4
  042a4	e59d3084	 ldr         r3, [sp, #0x84]
  042a8	e5823000	 str         r3, [r2]

; 823  : 
; 824  :     m_hISTEvent= CreateEvent(0,FALSE,FALSE,NULL);

  042ac	e3a03000	 mov         r3, #0
  042b0	e3a02000	 mov         r2, #0
  042b4	e3a01000	 mov         r1, #0
  042b8	e3a00000	 mov         r0, #0
  042bc	eb000000	 bl          CreateEventW
  042c0	e58d01d8	 str         r0, [sp, #0x1D8]
  042c4	e59d3210	 ldr         r3, [sp, #0x210]
  042c8	e28320a8	 add         r2, r3, #0xA8
  042cc	e59d31d8	 ldr         r3, [sp, #0x1D8]
  042d0	e5823000	 str         r3, [r2]

; 825  :     if (m_hISTEvent!=NULL)

  042d4	e59d3210	 ldr         r3, [sp, #0x210]
  042d8	e28330a8	 add         r3, r3, #0xA8
  042dc	e5933000	 ldr         r3, [r3]
  042e0	e3530000	 cmp         r3, #0
  042e4	0a000009	 beq         |$LN8@Init@3|

; 826  :         InterruptInitialize(m_dwSysIntr,m_hISTEvent,0,0);

  042e8	e3a03000	 mov         r3, #0
  042ec	e3a02000	 mov         r2, #0
  042f0	e59d1210	 ldr         r1, [sp, #0x210]
  042f4	e28110a8	 add         r1, r1, #0xA8
  042f8	e5911000	 ldr         r1, [r1]
  042fc	e59d0210	 ldr         r0, [sp, #0x210]
  04300	e28000a4	 add         r0, r0, #0xA4
  04304	e5900000	 ldr         r0, [r0]
  04308	eb000000	 bl          InterruptInitialize

; 827  :     else

  0430c	ea000004	 b           |$LN7@Init@3|
  04310		 |$LN8@Init@3|

; 828  :        return ERROR_INVALID_DATA;

  04310	e59d01a8	 ldr         r0, [sp, #0x1A8]
  04314	eb000000	 bl          __security_check_cookie
  04318	e3a0300d	 mov         r3, #0xD
  0431c	e58d31ac	 str         r3, [sp, #0x1AC]
  04320	ea000091	 b           |$LN23@Init@3|
  04324		 |$LN7@Init@3|

; 829  :         
; 830  :     // Optional Registry.
; 831  :     DWORD dwDataSize = sizeof(DWORD);

  04324	e3a03004	 mov         r3, #4
  04328	e58d3188	 str         r3, [sp, #0x188]

; 832  :     DWORD dwDoubleBuffer = 1;

  0432c	e3a03001	 mov         r3, #1
  04330	e58d3078	 str         r3, [sp, #0x78]

; 833  :     if (!GetRegValue(BUL_USBFUNCTION_DOUBLEBUFFER_VALNAME, (LPBYTE) &dwDoubleBuffer,dwDataSize)){

  04334	e59d3188	 ldr         r3, [sp, #0x188]
  04338	e28d2078	 add         r2, sp, #0x78
  0433c	e59f1240	 ldr         r1, [pc, #0x240]
  04340	e59d0210	 ldr         r0, [sp, #0x210]
  04344	e2800090	 add         r0, r0, #0x90
  04348	eb000000	 bl          |?GetRegValue@CRegistryEdit@@QAAHPBGPAEK@Z|
  0434c	e58d01dc	 str         r0, [sp, #0x1DC]
  04350	e59d31dc	 ldr         r3, [sp, #0x1DC]
  04354	e3530000	 cmp         r3, #0
  04358	1a000001	 bne         |$LN6@Init@3|

; 834  :         dwDoubleBuffer = 1;

  0435c	e3a03001	 mov         r3, #1
  04360	e58d3078	 str         r3, [sp, #0x78]
  04364		 |$LN6@Init@3|

; 835  :     };
; 836  :     m_fDoubleBuffer = (dwDoubleBuffer==1);

  04364	e59d3078	 ldr         r3, [sp, #0x78]
  04368	e3530001	 cmp         r3, #1
  0436c	1a000002	 bne         |$LN41@Init@3|
  04370	e3a03001	 mov         r3, #1
  04374	e58d31e0	 str         r3, [sp, #0x1E0]
  04378	ea000001	 b           |$LN42@Init@3|
  0437c		 |$LN41@Init@3|
  0437c	e3a03000	 mov         r3, #0
  04380	e58d31e0	 str         r3, [sp, #0x1E0]
  04384		 |$LN42@Init@3|
  04384	e59d3210	 ldr         r3, [sp, #0x210]
  04388	e28320b0	 add         r2, r3, #0xB0
  0438c	e59d31e0	 ldr         r3, [sp, #0x1E0]
  04390	e5823000	 str         r3, [r2]

; 837  :     // Read the IST priority
; 838  :     dwDataSize = sizeof(m_dwPriority);

  04394	e3a03004	 mov         r3, #4
  04398	e58d3188	 str         r3, [sp, #0x188]

; 839  :     if (!GetRegValue(BUL_USBFUNCTION_PRIORITY_VALNAME,(LPBYTE) &m_dwPriority, dwDataSize)) {

  0439c	e59d3188	 ldr         r3, [sp, #0x188]
  043a0	e59d2210	 ldr         r2, [sp, #0x210]
  043a4	e28220ac	 add         r2, r2, #0xAC
  043a8	e59f11d0	 ldr         r1, [pc, #0x1D0]
  043ac	e59d0210	 ldr         r0, [sp, #0x210]
  043b0	e2800090	 add         r0, r0, #0x90
  043b4	eb000000	 bl          |?GetRegValue@CRegistryEdit@@QAAHPBGPAEK@Z|
  043b8	e58d01e4	 str         r0, [sp, #0x1E4]
  043bc	e59d31e4	 ldr         r3, [sp, #0x1E4]
  043c0	e3530000	 cmp         r3, #0
  043c4	1a000003	 bne         |$LN5@Init@3|

; 840  :         m_dwPriority = BUL_USBFUNCTION_DEFAULT_PRIORITY;

  043c8	e59d3210	 ldr         r3, [sp, #0x210]
  043cc	e28320ac	 add         r2, r3, #0xAC
  043d0	e3a03064	 mov         r3, #0x64
  043d4	e5823000	 str         r3, [r2]
  043d8		 |$LN5@Init@3|

; 841  :     }
; 842  :     CeSetPriority(m_dwPriority);

  043d8	e59d3210	 ldr         r3, [sp, #0x210]
  043dc	e28330ac	 add         r3, r3, #0xAC
  043e0	e5931000	 ldr         r1, [r3]
  043e4	e59d0210	 ldr         r0, [sp, #0x210]
  043e8	eb000000	 bl          |?CeSetPriority@CMiniThread@@QAAHH@Z|

; 843  :     if (HardwareInit()) {

  043ec	e59d0210	 ldr         r0, [sp, #0x210]
  043f0	eb000000	 bl          |?HardwareInit@BulUsbDevice@@IAAHXZ|
  043f4	e58d01e8	 str         r0, [sp, #0x1E8]
  043f8	e59d31e8	 ldr         r3, [sp, #0x1E8]
  043fc	e3530000	 cmp         r3, #0
  04400	0a000055	 beq         |$LN4@Init@3|

; 844  :         ThreadStart();

  04404	e59d0210	 ldr         r0, [sp, #0x210]
  04408	eb000000	 bl          |?ThreadStart@CMiniThread@@QAAHXZ|

; 845  :         if (BusChildIoControl(m_hParent,IOCTL_BUS_USBOTG_BULVERDE_GET_EVENT,&m_hOTGEvent,sizeof(m_hOTGEvent)) && m_hOTGEvent!=NULL){

  0440c	e3a03004	 mov         r3, #4
  04410	e59d2210	 ldr         r2, [sp, #0x210]
  04414	e28220e8	 add         r2, r2, #0xE8
  04418	e59f115c	 ldr         r1, [pc, #0x15C]
  0441c	e59d0210	 ldr         r0, [sp, #0x210]
  04420	e28000c8	 add         r0, r0, #0xC8
  04424	e5900000	 ldr         r0, [r0]
  04428	eb000000	 bl          BusChildIoControl
  0442c	e58d01ec	 str         r0, [sp, #0x1EC]
  04430	e59d31ec	 ldr         r3, [sp, #0x1EC]
  04434	e3530000	 cmp         r3, #0
  04438	0a000041	 beq         |$LN3@Init@3|
  0443c	e59d3210	 ldr         r3, [sp, #0x210]
  04440	e28330e8	 add         r3, r3, #0xE8
  04444	e5933000	 ldr         r3, [r3]
  04448	e3530000	 cmp         r3, #0
  0444c	0a00003c	 beq         |$LN3@Init@3|

; 846  :             m_pOTGEventThread = new BulOTGEventThread(*this,m_hOTGEvent,m_dwPriority);

  04450	e3a00024	 mov         r0, #0x24
  04454	eb000000	 bl          |??2@YAPAXI@Z|
  04458	e58d01f0	 str         r0, [sp, #0x1F0]
  0445c	e59d31f0	 ldr         r3, [sp, #0x1F0]
  04460	e58d319c	 str         r3, [sp, #0x19C]
  04464	e59d319c	 ldr         r3, [sp, #0x19C]
  04468	e3530000	 cmp         r3, #0
  0446c	0a00000b	 beq         |$LN43@Init@3|
  04470	e59d3210	 ldr         r3, [sp, #0x210]
  04474	e28330ac	 add         r3, r3, #0xAC
  04478	e5933000	 ldr         r3, [r3]
  0447c	e59d2210	 ldr         r2, [sp, #0x210]
  04480	e28220e8	 add         r2, r2, #0xE8
  04484	e59d1210	 ldr         r1, [sp, #0x210]
  04488	e59d019c	 ldr         r0, [sp, #0x19C]
  0448c	eb000000	 bl          |??0BulOTGEventThread@@QAA@AAVBulUsbDevice@@AAPAXK@Z|
  04490	e58d01f4	 str         r0, [sp, #0x1F4]
  04494	e59d31f4	 ldr         r3, [sp, #0x1F4]
  04498	e58d31f8	 str         r3, [sp, #0x1F8]
  0449c	ea000001	 b           |$LN44@Init@3|
  044a0		 |$LN43@Init@3|
  044a0	e3a03000	 mov         r3, #0
  044a4	e58d31f8	 str         r3, [sp, #0x1F8]
  044a8		 |$LN44@Init@3|
  044a8	e59d3210	 ldr         r3, [sp, #0x210]
  044ac	e28320ec	 add         r2, r3, #0xEC
  044b0	e59d31f8	 ldr         r3, [sp, #0x1F8]
  044b4	e5823000	 str         r3, [r2]

; 847  :             if (m_pOTGEventThread && !m_pOTGEventThread->Init()){

  044b8	e59d3210	 ldr         r3, [sp, #0x210]
  044bc	e28330ec	 add         r3, r3, #0xEC
  044c0	e5933000	 ldr         r3, [r3]
  044c4	e3530000	 cmp         r3, #0
  044c8	0a00001d	 beq         |$LN2@Init@3|
  044cc	e59d3210	 ldr         r3, [sp, #0x210]
  044d0	e28330ec	 add         r3, r3, #0xEC
  044d4	e5930000	 ldr         r0, [r3]
  044d8	eb000000	 bl          |?Init@BulOTGEventThread@@QAAHXZ|
  044dc	e58d01fc	 str         r0, [sp, #0x1FC]
  044e0	e59d31fc	 ldr         r3, [sp, #0x1FC]
  044e4	e3530000	 cmp         r3, #0
  044e8	1a000015	 bne         |$LN2@Init@3|

; 848  :                 delete m_pOTGEventThread;

  044ec	e59d3210	 ldr         r3, [sp, #0x210]
  044f0	e28330ec	 add         r3, r3, #0xEC
  044f4	e5933000	 ldr         r3, [r3]
  044f8	e58d31a4	 str         r3, [sp, #0x1A4]
  044fc	e59d31a4	 ldr         r3, [sp, #0x1A4]
  04500	e58d31a0	 str         r3, [sp, #0x1A0]
  04504	e59d31a0	 ldr         r3, [sp, #0x1A0]
  04508	e3530000	 cmp         r3, #0
  0450c	0a000006	 beq         |$LN45@Init@3|
  04510	e3a01001	 mov         r1, #1
  04514	e59d01a0	 ldr         r0, [sp, #0x1A0]
  04518	eb000000	 bl          |??_GBulOTGEventThread@@QAAPAXI@Z|
  0451c	e58d0200	 str         r0, [sp, #0x200]
  04520	e59d3200	 ldr         r3, [sp, #0x200]
  04524	e58d3204	 str         r3, [sp, #0x204]
  04528	ea000001	 b           |$LN46@Init@3|
  0452c		 |$LN45@Init@3|
  0452c	e3a03000	 mov         r3, #0
  04530	e58d3204	 str         r3, [sp, #0x204]
  04534		 |$LN46@Init@3|

; 849  :                 m_pOTGEventThread = NULL;

  04534	e59d3210	 ldr         r3, [sp, #0x210]
  04538	e28320ec	 add         r2, r3, #0xEC
  0453c	e3a03000	 mov         r3, #0
  04540	e5823000	 str         r3, [r2]
  04544		 |$LN2@Init@3|
  04544		 |$LN3@Init@3|

; 850  :             }
; 851  :         }
; 852  :         return ERROR_SUCCESS;

  04544	e59d01a8	 ldr         r0, [sp, #0x1A8]
  04548	eb000000	 bl          __security_check_cookie
  0454c	e3a03000	 mov         r3, #0
  04550	e58d31ac	 str         r3, [sp, #0x1AC]
  04554	ea000004	 b           |$LN23@Init@3|

; 853  :     }
; 854  :     else

  04558	ea000003	 b           |$LN1@Init@3|
  0455c		 |$LN4@Init@3|

; 855  :         return ERROR_INVALID_DATA;

  0455c	e59d01a8	 ldr         r0, [sp, #0x1A8]
  04560	eb000000	 bl          __security_check_cookie
  04564	e3a0300d	 mov         r3, #0xD
  04568	e58d31ac	 str         r3, [sp, #0x1AC]
  0456c		 |$LN1@Init@3|
  0456c		 |$LN23@Init@3|

; 856  : }

  0456c	e59d01ac	 ldr         r0, [sp, #0x1AC]
  04570	e28ddf82	 add         sp, sp, #0x82, 30
  04574	e89d6000	 ldmia       sp, {sp, lr}
  04578	e12fff1e	 bx          lr
  0457c		 |$LN50@Init@3|
  0457c		 |$LN51@Init@3|
  0457c	002a042c	 DCD         0x2a042c
  04580		 |$LN52@Init@3|
  04580	00000000	 DCD         |??_C@_1BI@BHLBGEOK@?$AAP?$AAr?$AAi?$AAo?$AAr?$AAi?$AAt?$AAy?$AA2?$AA5?$AA6?$AA?$AA@|
  04584		 |$LN53@Init@3|
  04584	00000000	 DCD         |??_C@_1BK@DHEBDKKE@?$AAD?$AAo?$AAu?$AAb?$AAl?$AAe?$AAB?$AAu?$AAf?$AAf?$AAe?$AAr?$AA?$AA@|
  04588		 |$LN54@Init@3|
  04588	00000000	 DCD         |??_C@_1FG@BGNIKBJJ@?$AAB?$AAu?$AAl?$AAU?$AAs?$AAb?$AAD?$AAe?$AAv?$AAi?$AAc?$AAe?$AA?5?$AA?5?$AAn?$AAo?$AA?5?$AAS?$AAY?$AAS?$AAI?$AAN?$AAT?$AAR?$AA?5?$AAv?$AAa?$AAl?$AAu?$AAe?$AA?5?$AAs@|
  0458c		 |$LN55@Init@3|
  0458c	00000000	 DCD         |dpCurSettings|
  04590		 |$LN56@Init@3|
  04590	00000000	 DCD         |??_C@_1FK@BKAJLAB@?$AAB?$AAu?$AAl?$AAU?$AAs?$AAb?$AAD?$AAe?$AAv?$AAi?$AAc?$AAe?$AA?5?$AAD?$AAD?$AAK?$AAR?$AAe?$AAg?$AA_?$AAG?$AAe?$AAt?$AAI?$AAs?$AAr?$AAI?$AAn?$AAf?$AAo?$AA?$CI?$AA?$CJ@|
  04594		 |$LN57@Init@3|
  04594	00000000	 DCD         |??_C@_1FI@NEAEECIN@?$AAm?$AAe?$AAm?$AAL?$AAe?$AAn?$AA?5?$AAo?$AAf?$AA?5?$AA0?$AAx?$AA?$CF?$AAx?$AA?5?$AAi?$AAs?$AA?5?$AAl?$AAe?$AAs?$AAs?$AA?5?$AAt?$AAh?$AAa?$AAn?$AA?5?$AAr?$AAe?$AAq?$AAu@|
  04598		 |$LN58@Init@3|
  04598	00000000	 DCD         |??_C@_1GE@IGLLGBEG@?$AAB?$AAu?$AAl?$AAU?$AAs?$AAb?$AAD?$AAe?$AAv?$AAi?$AAc?$AAe?$AA?3?$AA?3?$AA?5?$AAD?$AAD?$AAK?$AAR?$AAe?$AAg?$AA_?$AAG?$AAe?$AAt?$AAW?$AAi?$AAn?$AAd?$AAo?$AAw?$AAI@|
  0459c		 |$LN59@Init@3|
  0459c	00000000	 DCD         |__security_cookie|
  045a0		 |$M39046|

			 ENDP  ; |?Init@BulUsbDevice@@UAAKPAXPAU_UFN_MDD_INTERFACE_INFO@@PAU_UFN_PDD_INTERFACE_INFO@@@Z|, BulUsbDevice::Init

	IMPORT	|CeSetThreadPriority|
; File c:\wince600\public\common\oak\inc\cmthread.h

  00000			 AREA	 |.pdata|, PDATA
|$T39064| DCD	|$LN6@CeSetPrior|
	DCD	0x40001804
; Function compile flags: /Odtp

  00000			 AREA	 |.text|, CODE, ARM

  00000		 |?CeSetPriority@CMiniThread@@QAAHH@Z| PROC ; CMiniThread::CeSetPriority

; 77   :     {

  00000		 |$LN6@CeSetPrior|
  00000	e1a0c00d	 mov         r12, sp
  00004	e92d0003	 stmdb       sp!, {r0, r1}
  00008	e92d5000	 stmdb       sp!, {r12, lr}
  0000c	e24dd008	 sub         sp, sp, #8
  00010		 |$M39061|

; 78   :         if( m_hThreadHandle )

  00010	e59d3010	 ldr         r3, [sp, #0x10]
  00014	e2833008	 add         r3, r3, #8
  00018	e5933000	 ldr         r3, [r3]
  0001c	e3530000	 cmp         r3, #0
  00020	0a000008	 beq         |$LN1@CeSetPrior|

; 79   :         {
; 80   :             return CeSetThreadPriority( m_hThreadHandle, nPriority );

  00024	e59d1014	 ldr         r1, [sp, #0x14]
  00028	e59d3010	 ldr         r3, [sp, #0x10]
  0002c	e2833008	 add         r3, r3, #8
  00030	e5930000	 ldr         r0, [r3]
  00034	eb000000	 bl          CeSetThreadPriority
  00038	e58d0004	 str         r0, [sp, #4]
  0003c	e59d3004	 ldr         r3, [sp, #4]
  00040	e58d3000	 str         r3, [sp]
  00044	ea000001	 b           |$LN2@CeSetPrior|
  00048		 |$LN1@CeSetPrior|

; 81   :         }
; 82   :         return FALSE;

  00048	e3a03000	 mov         r3, #0
  0004c	e58d3000	 str         r3, [sp]
  00050		 |$LN2@CeSetPrior|

; 83   :     }

  00050	e59d0000	 ldr         r0, [sp]
  00054	e28dd008	 add         sp, sp, #8
  00058	e89d6000	 ldmia       sp, {sp, lr}
  0005c	e12fff1e	 bx          lr
  00060		 |$M39062|

			 ENDP  ; |?CeSetPriority@CMiniThread@@QAAHH@Z|, CMiniThread::CeSetPriority

	IMPORT	|DDKReg_GetWindowInfo|
; File c:\wince600\public\common\oak\inc\cregedit.h

  00000			 AREA	 |.pdata|, PDATA
|$T39072| DCD	|$LN7@GetWindowI@2|
	DCD	0x40001f04
; Function compile flags: /Odtp

  00000			 AREA	 |.text|, CODE, ARM

  00000		 |?GetWindowInfo@CRegistryEdit@@QAAKPAU_DDKWINDOWINFO_tag@@@Z| PROC ; CRegistryEdit::GetWindowInfo

; 88   :     {

  00000		 |$LN7@GetWindowI@2|
  00000	e1a0c00d	 mov         r12, sp
  00004	e92d0003	 stmdb       sp!, {r0, r1}
  00008	e92d5000	 stmdb       sp!, {r12, lr}
  0000c	e24dd00c	 sub         sp, sp, #0xC
  00010		 |$M39069|

; 89   :         if( pdwi && m_hDevKey )

  00010	e59d3018	 ldr         r3, [sp, #0x18]
  00014	e3530000	 cmp         r3, #0
  00018	0a000011	 beq         |$LN2@GetWindowI@2|
  0001c	e59d3014	 ldr         r3, [sp, #0x14]
  00020	e5933000	 ldr         r3, [r3]
  00024	e3530000	 cmp         r3, #0
  00028	0a00000d	 beq         |$LN2@GetWindowI@2|

; 90   :         {
; 91   :             pdwi->cbSize = sizeof( DDKWINDOWINFO );

  0002c	e59d2018	 ldr         r2, [sp, #0x18]
  00030	e3a03074	 mov         r3, #0x74
  00034	e5823000	 str         r3, [r2]

; 92   :             DWORD status = DDKReg_GetWindowInfo( m_hDevKey, pdwi );

  00038	e59d1018	 ldr         r1, [sp, #0x18]
  0003c	e59d3014	 ldr         r3, [sp, #0x14]
  00040	e5930000	 ldr         r0, [r3]
  00044	eb000000	 bl          DDKReg_GetWindowInfo
  00048	e58d0008	 str         r0, [sp, #8]
  0004c	e59d3008	 ldr         r3, [sp, #8]
  00050	e58d3000	 str         r3, [sp]

; 93   :             return status;

  00054	e59d3000	 ldr         r3, [sp]
  00058	e58d3004	 str         r3, [sp, #4]
  0005c	ea000002	 b           |$LN3@GetWindowI@2|

; 94   :         }
; 95   :         else

  00060	ea000001	 b           |$LN1@GetWindowI@2|
  00064		 |$LN2@GetWindowI@2|

; 96   :         {
; 97   :             return ERROR_INVALID_FUNCTION;

  00064	e3a03001	 mov         r3, #1
  00068	e58d3004	 str         r3, [sp, #4]
  0006c		 |$LN1@GetWindowI@2|
  0006c		 |$LN3@GetWindowI@2|

; 98   :         }
; 99   :     }

  0006c	e59d0004	 ldr         r0, [sp, #4]
  00070	e28dd00c	 add         sp, sp, #0xC
  00074	e89d6000	 ldmia       sp, {sp, lr}
  00078	e12fff1e	 bx          lr
  0007c		 |$M39070|

			 ENDP  ; |?GetWindowInfo@CRegistryEdit@@QAAKPAU_DDKWINDOWINFO_tag@@@Z|, CRegistryEdit::GetWindowInfo

	IMPORT	|DDKReg_GetIsrInfo|

  00000			 AREA	 |.pdata|, PDATA
|$T39080| DCD	|$LN7@GetIsrInfo|
	DCD	0x40001f04
; Function compile flags: /Odtp

  00000			 AREA	 |.text|, CODE, ARM

  00000		 |?GetIsrInfo@CRegistryEdit@@QAAKPAU_DDKISRINFO_tag@@@Z| PROC ; CRegistryEdit::GetIsrInfo

; 102  :     {

  00000		 |$LN7@GetIsrInfo|
  00000	e1a0c00d	 mov         r12, sp
  00004	e92d0003	 stmdb       sp!, {r0, r1}
  00008	e92d5000	 stmdb       sp!, {r12, lr}
  0000c	e24dd00c	 sub         sp, sp, #0xC
  00010		 |$M39077|

; 103  :         if( pddi && m_hDevKey )

  00010	e59d3018	 ldr         r3, [sp, #0x18]
  00014	e3530000	 cmp         r3, #0
  00018	0a000011	 beq         |$LN2@GetIsrInfo|
  0001c	e59d3014	 ldr         r3, [sp, #0x14]
  00020	e5933000	 ldr         r3, [r3]
  00024	e3530000	 cmp         r3, #0
  00028	0a00000d	 beq         |$LN2@GetIsrInfo|

; 104  :         {
; 105  :             pddi->cbSize = sizeof( DDKISRINFO );

  0002c	e59d2018	 ldr         r2, [sp, #0x18]
  00030	e3a03f43	 mov         r3, #0x43, 30
  00034	e5823000	 str         r3, [r2]

; 106  :             DWORD status = DDKReg_GetIsrInfo( m_hDevKey, pddi );

  00038	e59d1018	 ldr         r1, [sp, #0x18]
  0003c	e59d3014	 ldr         r3, [sp, #0x14]
  00040	e5930000	 ldr         r0, [r3]
  00044	eb000000	 bl          DDKReg_GetIsrInfo
  00048	e58d0008	 str         r0, [sp, #8]
  0004c	e59d3008	 ldr         r3, [sp, #8]
  00050	e58d3000	 str         r3, [sp]

; 107  :             return status;

  00054	e59d3000	 ldr         r3, [sp]
  00058	e58d3004	 str         r3, [sp, #4]
  0005c	ea000002	 b           |$LN3@GetIsrInfo|

; 108  :         }
; 109  :         else

  00060	ea000001	 b           |$LN1@GetIsrInfo|
  00064		 |$LN2@GetIsrInfo|

; 110  :         {
; 111  :             return ERROR_INVALID_FUNCTION;

  00064	e3a03001	 mov         r3, #1
  00068	e58d3004	 str         r3, [sp, #4]
  0006c		 |$LN1@GetIsrInfo|
  0006c		 |$LN3@GetIsrInfo|

; 112  :         }
; 113  :     }

  0006c	e59d0004	 ldr         r0, [sp, #4]
  00070	e28dd00c	 add         sp, sp, #0xC
  00074	e89d6000	 ldmia       sp, {sp, lr}
  00078	e12fff1e	 bx          lr
  0007c		 |$M39078|

			 ENDP  ; |?GetIsrInfo@CRegistryEdit@@QAAKPAU_DDKISRINFO_tag@@@Z|, CRegistryEdit::GetIsrInfo


  00000			 AREA	 |.pdata|, PDATA
|$T39090| DCD	|$LN7@IsKeyOpene|
	DCD	0x40001304
; Function compile flags: /Odtp

  00000			 AREA	 |.text|, CODE, ARM

  00000		 |?IsKeyOpened@CRegistryEdit@@QAAHXZ| PROC ; CRegistryEdit::IsKeyOpened

; 171  :     {

  00000		 |$LN7@IsKeyOpene|
  00000	e1a0c00d	 mov         r12, sp
  00004	e92d0001	 stmdb       sp!, {r0}
  00008	e92d5000	 stmdb       sp!, {r12, lr}
  0000c	e24dd008	 sub         sp, sp, #8
  00010		 |$M39087|

; 172  :         return ( m_hDevKey != NULL );

  00010	e59d3010	 ldr         r3, [sp, #0x10]
  00014	e5933000	 ldr         r3, [r3]
  00018	e3530000	 cmp         r3, #0
  0001c	0a000002	 beq         |$LN3@IsKeyOpene|
  00020	e3a03001	 mov         r3, #1
  00024	e58d3004	 str         r3, [sp, #4]
  00028	ea000001	 b           |$LN4@IsKeyOpene|
  0002c		 |$LN3@IsKeyOpene|
  0002c	e3a03000	 mov         r3, #0
  00030	e58d3004	 str         r3, [sp, #4]
  00034		 |$LN4@IsKeyOpene|
  00034	e59d3004	 ldr         r3, [sp, #4]
  00038	e58d3000	 str         r3, [sp]

; 173  :     }

  0003c	e59d0000	 ldr         r0, [sp]
  00040	e28dd008	 add         sp, sp, #8
  00044	e89d6000	 ldmia       sp, {sp, lr}
  00048	e12fff1e	 bx          lr
  0004c		 |$M39088|

			 ENDP  ; |?IsKeyOpened@CRegistryEdit@@QAAHXZ|, CRegistryEdit::IsKeyOpened

; File c:\wince600\platform\common\src\soc\pxa27x_ms_v1\inc\bul_usbfn.h

  00000			 AREA	 |.pdata|, PDATA
|$T39098| DCD	|$LN5@Init@4|
	DCD	0x40001104
; Function compile flags: /Odtp

  00000			 AREA	 |.text|, CODE, ARM

  00000		 |?Init@BulOTGEventThread@@QAAHXZ| PROC	; BulOTGEventThread::Init

; 248  :     BOOL Init() {

  00000		 |$LN5@Init@4|
  00000	e1a0c00d	 mov         r12, sp
  00004	e92d0001	 stmdb       sp!, {r0}
  00008	e92d5000	 stmdb       sp!, {r12, lr}
  0000c	e24dd004	 sub         sp, sp, #4
  00010		 |$M39095|

; 249  :         CeSetPriority(m_dwPriority);

  00010	e59d300c	 ldr         r3, [sp, #0xC]
  00014	e2833020	 add         r3, r3, #0x20
  00018	e5931000	 ldr         r1, [r3]
  0001c	e59d000c	 ldr         r0, [sp, #0xC]
  00020	eb000000	 bl          |?CeSetPriority@CMiniThread@@QAAHH@Z|

; 250  :         ThreadStart();

  00024	e59d000c	 ldr         r0, [sp, #0xC]
  00028	eb000000	 bl          |?ThreadStart@CMiniThread@@QAAHXZ|

; 251  :         return TRUE;

  0002c	e3a03001	 mov         r3, #1
  00030	e58d3000	 str         r3, [sp]

; 252  :     }

  00034	e59d0000	 ldr         r0, [sp]
  00038	e28dd004	 add         sp, sp, #4
  0003c	e89d6000	 ldmia       sp, {sp, lr}
  00040	e12fff1e	 bx          lr
  00044		 |$M39096|

			 ENDP  ; |?Init@BulOTGEventThread@@QAAHXZ|, BulOTGEventThread::Init

	EXPORT	|?WriteIntrStatus1Register@BulUsbDevice@@QAAXK@Z| ; BulUsbDevice::WriteIntrStatus1Register
	EXPORT	|?WriteIntrStatus0Register@BulUsbDevice@@QAAXK@Z| ; BulUsbDevice::WriteIntrStatus0Register
	EXPORT	|?ReadControlRegister@BulUsbDevice@@QAAKXZ| ; BulUsbDevice::ReadControlRegister
	EXPORT	|??_C@_1FG@JOMDKFLF@?$AAb?$AAu?$AAl?$AAv?$AAe?$AAr?$AAd?$AAe?$AA_?$AAu?$AAs?$AAb?$AAf?$AAn?$AA?$CB?$AAB?$AAu?$AAl?$AAU?$AAs?$AAb?$AAD?$AAe?$AAv?$AAi?$AAc?$AAe?$AA?3?$AA?3?$AAH?$AAa?$AAr@| [ DATA ] ; `string'

  000c0			 AREA	 |.pdata|, PDATA
|$T39114| DCD	|$LN13@HardwareIn|
	DCD	0x40005c04
; File c:\wince600\platform\common\src\soc\pxa27x_ms_v1\usbfn\bul_usbfn.cpp

  00000			 AREA	 |.rdata|, DATA, READONLY
|??_C@_1FG@JOMDKFLF@?$AAb?$AAu?$AAl?$AAv?$AAe?$AAr?$AAd?$AAe?$AA_?$AAu?$AAs?$AAb?$AAf?$AAn?$AA?$CB?$AAB?$AAu?$AAl?$AAU?$AAs?$AAb?$AAD?$AAe?$AAv?$AAi?$AAc?$AAe?$AA?3?$AA?3?$AAH?$AAa?$AAr@| DCB "b"
	DCB	0x0, "u", 0x0, "l", 0x0, "v", 0x0, "e", 0x0, "r", 0x0, "d"
	DCB	0x0, "e", 0x0, "_", 0x0, "u", 0x0, "s", 0x0, "b", 0x0, "f"
	DCB	0x0, "n", 0x0, "!", 0x0, "B", 0x0, "u", 0x0, "l", 0x0, "U"
	DCB	0x0, "s", 0x0, "b", 0x0, "D", 0x0, "e", 0x0, "v", 0x0, "i"
	DCB	0x0, "c", 0x0, "e", 0x0, ":", 0x0, ":", 0x0, "H", 0x0, "a"
	DCB	0x0, "r", 0x0, "d", 0x0, "w", 0x0, "a", 0x0, "r", 0x0, "e"
	DCB	0x0, "I", 0x0, "n", 0x0, "i", 0x0, "t", 0x0, ":", 0x0, 0x0
	DCB	0x0					; `string'
; Function compile flags: /Odtp

  045a0			 AREA	 |.text|, CODE, ARM

  045a0		 |?HardwareInit@BulUsbDevice@@IAAHXZ| PROC ; BulUsbDevice::HardwareInit

; 858  : {

  045a0		 |$LN13@HardwareIn|
  045a0	e1a0c00d	 mov         r12, sp
  045a4	e92d0001	 stmdb       sp!, {r0}
  045a8	e92d5000	 stmdb       sp!, {r12, lr}
  045ac	e24dd01c	 sub         sp, sp, #0x1C
  045b0		 |$M39111|

; 859  :     BOOL bReturn = TRUE;

  045b0	e3a03001	 mov         r3, #1
  045b4	e58d3004	 str         r3, [sp, #4]

; 860  :     SETFNAME();

  045b8	e59f314c	 ldr         r3, [pc, #0x14C]
  045bc	e58d3008	 str         r3, [sp, #8]

; 861  :     FUNCTION_ENTER_MSG();

  045c0	e59f313c	 ldr         r3, [pc, #0x13C]
  045c4	e5933440	 ldr         r3, [r3, #0x440]
  045c8	e3130a01	 tst         r3, #1, 20
  045cc	0a00000d	 beq         |$LN5@HardwareIn|
  045d0	e59f312c	 ldr         r3, [pc, #0x12C]
  045d4	e5933440	 ldr         r3, [r3, #0x440]
  045d8	e3130801	 tst         r3, #1, 16
  045dc	0a000003	 beq         |$LN3@HardwareIn|
  045e0	e59d1008	 ldr         r1, [sp, #8]
  045e4	e59f011c	 ldr         r0, [pc, #0x11C]
  045e8	eb000000	 bl          CeLogMsg
  045ec	ea000002	 b           |$LN4@HardwareIn|
  045f0		 |$LN3@HardwareIn|
  045f0	e59d1008	 ldr         r1, [sp, #8]
  045f4	e59f010c	 ldr         r0, [pc, #0x10C]
  045f8	eb000000	 bl          NKDbgPrintfW
  045fc		 |$LN4@HardwareIn|
  045fc	e3a03001	 mov         r3, #1
  04600	e58d3010	 str         r3, [sp, #0x10]
  04604	ea000001	 b           |$LN6@HardwareIn|
  04608		 |$LN5@HardwareIn|
  04608	e3a03000	 mov         r3, #0
  0460c	e58d3010	 str         r3, [sp, #0x10]
  04610		 |$LN6@HardwareIn|

; 862  :     Lock();

  04610	e59d3024	 ldr         r3, [sp, #0x24]
  04614	e2830018	 add         r0, r3, #0x18
  04618	eb000000	 bl          |?Lock@CLockObject@@QAAXXZ|

; 863  :     // Disable Hardware
; 864  :     UDCCR udccr;
; 865  :     udccr.ulValue = ReadControlRegister();

  0461c	e59d0024	 ldr         r0, [sp, #0x24]
  04620	eb000000	 bl          |?ReadControlRegister@BulUsbDevice@@QAAKXZ|
  04624	e58d0014	 str         r0, [sp, #0x14]
  04628	e59d3014	 ldr         r3, [sp, #0x14]
  0462c	e58d3000	 str         r3, [sp]

; 866  :     udccr.bit.UDE= udccr.bit.EMCE = 0;

  04630	e59d2000	 ldr         r2, [sp]
  04634	e3e03008	 mvn         r3, #8
  04638	e0023003	 and         r3, r2, r3
  0463c	e58d3000	 str         r3, [sp]
  04640	e59d2000	 ldr         r2, [sp]
  04644	e3e03001	 mvn         r3, #1
  04648	e0023003	 and         r3, r2, r3
  0464c	e58d3000	 str         r3, [sp]

; 867  :     WriteControlRegister(udccr.ulValue);

  04650	e59d1000	 ldr         r1, [sp]
  04654	e59d0024	 ldr         r0, [sp, #0x24]
  04658	eb000000	 bl          |?WriteControlRegister@BulUsbDevice@@QAAXK@Z|

; 868  :     WriteIntrCtr0Register(0);

  0465c	e3a01000	 mov         r1, #0
  04660	e59d0024	 ldr         r0, [sp, #0x24]
  04664	eb000000	 bl          |?WriteIntrCtr0Register@BulUsbDevice@@QAAXK@Z|

; 869  :     WriteIntrCtr1Register(0); 

  04668	e3a01000	 mov         r1, #0
  0466c	e59d0024	 ldr         r0, [sp, #0x24]
  04670	eb000000	 bl          |?WriteIntrCtr1Register@BulUsbDevice@@QAAXK@Z|

; 870  :     // Ack all outstanding interrupt.
; 871  :     WriteIntrStatus0Register(0xffffffff);

  04674	e3e01000	 mvn         r1, #0
  04678	e59d0024	 ldr         r0, [sp, #0x24]
  0467c	eb000000	 bl          |?WriteIntrStatus0Register@BulUsbDevice@@QAAXK@Z|

; 872  :     WriteIntrStatus1Register(0xffffffff);

  04680	e3e01000	 mvn         r1, #0
  04684	e59d0024	 ldr         r0, [sp, #0x24]
  04688	eb000000	 bl          |?WriteIntrStatus1Register@BulUsbDevice@@QAAXK@Z|

; 873  :     Unlock();

  0468c	e59d3024	 ldr         r3, [sp, #0x24]
  04690	e2830018	 add         r0, r3, #0x18
  04694	eb000000	 bl          |?Unlock@CLockObject@@QAAXXZ|

; 874  :     FUNCTION_LEAVE_MSG();

  04698	e59f3064	 ldr         r3, [pc, #0x64]
  0469c	e5933440	 ldr         r3, [r3, #0x440]
  046a0	e3130a01	 tst         r3, #1, 20
  046a4	0a00000d	 beq         |$LN9@HardwareIn|
  046a8	e59f3054	 ldr         r3, [pc, #0x54]
  046ac	e5933440	 ldr         r3, [r3, #0x440]
  046b0	e3130801	 tst         r3, #1, 16
  046b4	0a000003	 beq         |$LN7@HardwareIn|
  046b8	e59d1008	 ldr         r1, [sp, #8]
  046bc	e59f003c	 ldr         r0, [pc, #0x3C]
  046c0	eb000000	 bl          CeLogMsg
  046c4	ea000002	 b           |$LN8@HardwareIn|
  046c8		 |$LN7@HardwareIn|
  046c8	e59d1008	 ldr         r1, [sp, #8]
  046cc	e59f002c	 ldr         r0, [pc, #0x2C]
  046d0	eb000000	 bl          NKDbgPrintfW
  046d4		 |$LN8@HardwareIn|
  046d4	e3a03001	 mov         r3, #1
  046d8	e58d3018	 str         r3, [sp, #0x18]
  046dc	ea000001	 b           |$LN10@HardwareIn|
  046e0		 |$LN9@HardwareIn|
  046e0	e3a03000	 mov         r3, #0
  046e4	e58d3018	 str         r3, [sp, #0x18]
  046e8		 |$LN10@HardwareIn|

; 875  :     return bReturn;

  046e8	e59d3004	 ldr         r3, [sp, #4]
  046ec	e58d300c	 str         r3, [sp, #0xC]

; 876  : }

  046f0	e59d000c	 ldr         r0, [sp, #0xC]
  046f4	e28dd01c	 add         sp, sp, #0x1C
  046f8	e89d6000	 ldmia       sp, {sp, lr}
  046fc	e12fff1e	 bx          lr
  04700		 |$LN14@HardwareIn|
  04700		 |$LN15@HardwareIn|
  04700	00000000	 DCD         |??_C@_1BA@PLOOFDPK@?$AA?$CF?$AAs?$AA?5?$AA?9?$AA?9?$AA?$AN?$AA?6?$AA?$AA@|
  04704		 |$LN16@HardwareIn|
  04704	00000000	 DCD         |dpCurSettings|
  04708		 |$LN17@HardwareIn|
  04708	00000000	 DCD         |??_C@_1BA@DAJPCKDK@?$AA?$CF?$AAs?$AA?5?$AA?$CL?$AA?$CL?$AA?$AN?$AA?6?$AA?$AA@|
  0470c		 |$LN18@HardwareIn|
  0470c	00000000	 DCD         |??_C@_1FG@JOMDKFLF@?$AAb?$AAu?$AAl?$AAv?$AAe?$AAr?$AAd?$AAe?$AA_?$AAu?$AAs?$AAb?$AAf?$AAn?$AA?$CB?$AAB?$AAu?$AAl?$AAU?$AAs?$AAb?$AAD?$AAe?$AAv?$AAi?$AAc?$AAe?$AA?3?$AA?3?$AAH?$AAa?$AAr@|
  04710		 |$M39112|

			 ENDP  ; |?HardwareInit@BulUsbDevice@@IAAHXZ|, BulUsbDevice::HardwareInit

; File c:\wince600\platform\common\src\soc\pxa27x_ms_v1\inc\bul_usbfn.h

  00000			 AREA	 |.pdata|, PDATA
|$T39125| DCD	|$LN5@ReadContro@2|
	DCD	0x40000e04
; Function compile flags: /Odtp

  00000			 AREA	 |.text|, CODE, ARM

  00000		 |?ReadControlRegister@BulUsbDevice@@QAAKXZ| PROC ; BulUsbDevice::ReadControlRegister

; 139  :     DWORD   ReadControlRegister() {  return ReadUDCRegister(DEVICE_CONTROL_REGISTER); }

  00000		 |$LN5@ReadContro@2|
  00000	e1a0c00d	 mov         r12, sp
  00004	e92d0001	 stmdb       sp!, {r0}
  00008	e92d5000	 stmdb       sp!, {r12, lr}
  0000c	e24dd008	 sub         sp, sp, #8
  00010		 |$M39122|
  00010	e3a01000	 mov         r1, #0
  00014	e59d0010	 ldr         r0, [sp, #0x10]
  00018	eb000000	 bl          |?ReadUDCRegister@BulUsbDevice@@QAAKK@Z|
  0001c	e58d0004	 str         r0, [sp, #4]
  00020	e59d3004	 ldr         r3, [sp, #4]
  00024	e58d3000	 str         r3, [sp]
  00028	e59d0000	 ldr         r0, [sp]
  0002c	e28dd008	 add         sp, sp, #8
  00030	e89d6000	 ldmia       sp, {sp, lr}
  00034	e12fff1e	 bx          lr
  00038		 |$M39123|

			 ENDP  ; |?ReadControlRegister@BulUsbDevice@@QAAKXZ|, BulUsbDevice::ReadControlRegister


  00000			 AREA	 |.pdata|, PDATA
|$T39132| DCD	|$LN5@WriteIntrS|
	DCD	0x40000903
; Function compile flags: /Odtp

  00000			 AREA	 |.text|, CODE, ARM

  00000		 |?WriteIntrStatus0Register@BulUsbDevice@@QAAXK@Z| PROC ; BulUsbDevice::WriteIntrStatus0Register

; 147  :     void    WriteIntrStatus0Register(DWORD dwData) { WriteUDCRegister(DEVICE_INT_SR0_REGISTER,dwData); }

  00000		 |$LN5@WriteIntrS|
  00000	e1a0c00d	 mov         r12, sp
  00004	e92d0003	 stmdb       sp!, {r0, r1}
  00008	e92d5000	 stmdb       sp!, {r12, lr}
  0000c		 |$M39129|
  0000c	e59d200c	 ldr         r2, [sp, #0xC]
  00010	e3a01003	 mov         r1, #3
  00014	e59d0008	 ldr         r0, [sp, #8]
  00018	eb000000	 bl          |?WriteUDCRegister@BulUsbDevice@@QAAXKK@Z|
  0001c	e89d6000	 ldmia       sp, {sp, lr}
  00020	e12fff1e	 bx          lr
  00024		 |$M39130|

			 ENDP  ; |?WriteIntrStatus0Register@BulUsbDevice@@QAAXK@Z|, BulUsbDevice::WriteIntrStatus0Register


  00000			 AREA	 |.pdata|, PDATA
|$T39139| DCD	|$LN5@WriteIntrS@2|
	DCD	0x40000903
; Function compile flags: /Odtp

  00000			 AREA	 |.text|, CODE, ARM

  00000		 |?WriteIntrStatus1Register@BulUsbDevice@@QAAXK@Z| PROC ; BulUsbDevice::WriteIntrStatus1Register

; 148  :     void    WriteIntrStatus1Register(DWORD dwData) { WriteUDCRegister(DEVICE_INT_SR1_REGISTER,dwData); }

  00000		 |$LN5@WriteIntrS@2|
  00000	e1a0c00d	 mov         r12, sp
  00004	e92d0003	 stmdb       sp!, {r0, r1}
  00008	e92d5000	 stmdb       sp!, {r12, lr}
  0000c		 |$M39136|
  0000c	e59d200c	 ldr         r2, [sp, #0xC]
  00010	e3a01004	 mov         r1, #4
  00014	e59d0008	 ldr         r0, [sp, #8]
  00018	eb000000	 bl          |?WriteUDCRegister@BulUsbDevice@@QAAXKK@Z|
  0001c	e89d6000	 ldmia       sp, {sp, lr}
  00020	e12fff1e	 bx          lr
  00024		 |$M39137|

			 ENDP  ; |?WriteIntrStatus1Register@BulUsbDevice@@QAAXK@Z|, BulUsbDevice::WriteIntrStatus1Register

	EXPORT	|?RawObjectIndex@?$CStaticContainer@VBulEndpoint@@$0BI@@@QAAPAVBulEndpoint@@K@Z| ; CStaticContainer<BulEndpoint,24>::RawObjectIndex
	EXPORT	|?DeRef@CRefObject@@QAAKXZ|		; CRefObject::DeRef
	EXPORT	|?ObjectIndex@?$CStaticContainer@VBulEndpoint@@$0BI@@@QAAPAVBulEndpoint@@K@Z| ; CStaticContainer<BulEndpoint,24>::ObjectIndex
	EXPORT	|?ReInit@BulUsbDevice@@IAAHXZ|		; BulUsbDevice::ReInit

  000c8			 AREA	 |.pdata|, PDATA
|$T39147| DCD	|$LN13@ReInit@3|
	DCD	0x40004c04
; Function compile flags: /Odtp
; File c:\wince600\platform\common\src\soc\pxa27x_ms_v1\usbfn\bul_usbfn.cpp

  04710			 AREA	 |.text|, CODE, ARM

  04710		 |?ReInit@BulUsbDevice@@IAAHXZ| PROC	; BulUsbDevice::ReInit

; 878  : {

  04710		 |$LN13@ReInit@3|
  04710	e1a0c00d	 mov         r12, sp
  04714	e92d0001	 stmdb       sp!, {r0}
  04718	e92d5000	 stmdb       sp!, {r12, lr}
  0471c	e24dd014	 sub         sp, sp, #0x14
  04720		 |$M39144|

; 879  :     Lock();

  04720	e59d301c	 ldr         r3, [sp, #0x1C]
  04724	e2830018	 add         r0, r3, #0x18
  04728	eb000000	 bl          |?Lock@CLockObject@@QAAXXZ|

; 880  :     HardwareInit();

  0472c	e59d001c	 ldr         r0, [sp, #0x1C]
  04730	eb000000	 bl          |?HardwareInit@BulUsbDevice@@IAAHXZ|

; 881  :     for (DWORD dwIndex=0; dwIndex<MAX_ENDPOINT_NUMBER; dwIndex++) {

  04734	e3a03000	 mov         r3, #0
  04738	e58d3000	 str         r3, [sp]
  0473c	ea000002	 b           |$LN8@ReInit@3|
  04740		 |$LN7@ReInit@3|
  04740	e59d3000	 ldr         r3, [sp]
  04744	e2833001	 add         r3, r3, #1
  04748	e58d3000	 str         r3, [sp]
  0474c		 |$LN8@ReInit@3|
  0474c	e59d3000	 ldr         r3, [sp]
  04750	e3530018	 cmp         r3, #0x18
  04754	2a000013	 bcs         |$LN6@ReInit@3|

; 882  :         BulEndpoint *pEndpoint = ObjectIndex(dwIndex);

  04758	e59d1000	 ldr         r1, [sp]
  0475c	e59d301c	 ldr         r3, [sp, #0x1C]
  04760	e2830018	 add         r0, r3, #0x18
  04764	eb000000	 bl          |?ObjectIndex@?$CStaticContainer@VBulEndpoint@@$0BI@@@QAAPAVBulEndpoint@@K@Z|
  04768	e58d000c	 str         r0, [sp, #0xC]
  0476c	e59d300c	 ldr         r3, [sp, #0xC]
  04770	e58d3004	 str         r3, [sp, #4]

; 883  :         if (pEndpoint!=NULL)  {

  04774	e59d3004	 ldr         r3, [sp, #4]
  04778	e3530000	 cmp         r3, #0
  0477c	0a000008	 beq         |$LN5@ReInit@3|

; 884  :             pEndpoint->ReInit();

  04780	e59d3004	 ldr         r3, [sp, #4]
  04784	e5933000	 ldr         r3, [r3]
  04788	e2833008	 add         r3, r3, #8
  0478c	e59d0004	 ldr         r0, [sp, #4]
  04790	e5933000	 ldr         r3, [r3]
  04794	e1a0e00f	 mov         lr, pc
  04798	e12fff13	 bx          r3

; 885  :             pEndpoint->DeRef();

  0479c	e59d0004	 ldr         r0, [sp, #4]
  047a0	eb000000	 bl          |?DeRef@CRefObject@@QAAKXZ|
  047a4		 |$LN5@ReInit@3|

; 886  :         }
; 887  :     }

  047a4	eaffffe5	 b           |$LN7@ReInit@3|
  047a8		 |$LN6@ReInit@3|

; 888  :         
; 889  :     //PVOID pvMddContext = m_pvMddContext;
; 890  :     //m_pvMddContext = NULL;
; 891  :     Start();

  047a8	e59d301c	 ldr         r3, [sp, #0x1C]
  047ac	e5933000	 ldr         r3, [r3]
  047b0	e2833038	 add         r3, r3, #0x38
  047b4	e59d001c	 ldr         r0, [sp, #0x1C]
  047b8	e5933000	 ldr         r3, [r3]
  047bc	e1a0e00f	 mov         lr, pc
  047c0	e12fff13	 bx          r3

; 892  :     
; 893  :     for (dwIndex=0; dwIndex<MAX_ENDPOINT_NUMBER; dwIndex++) {

  047c4	e3a03000	 mov         r3, #0
  047c8	e58d3000	 str         r3, [sp]
  047cc	ea000002	 b           |$LN4@ReInit@3|
  047d0		 |$LN3@ReInit@3|
  047d0	e59d3000	 ldr         r3, [sp]
  047d4	e2833001	 add         r3, r3, #1
  047d8	e58d3000	 str         r3, [sp]
  047dc		 |$LN4@ReInit@3|
  047dc	e59d3000	 ldr         r3, [sp]
  047e0	e3530018	 cmp         r3, #0x18
  047e4	2a00000c	 bcs         |$LN2@ReInit@3|

; 894  :         if ( RawObjectIndex(dwIndex)!=NULL) {

  047e8	e59d1000	 ldr         r1, [sp]
  047ec	e59d301c	 ldr         r3, [sp, #0x1C]
  047f0	e2830018	 add         r0, r3, #0x18
  047f4	eb000000	 bl          |?RawObjectIndex@?$CStaticContainer@VBulEndpoint@@$0BI@@@QAAPAVBulEndpoint@@K@Z|
  047f8	e58d0010	 str         r0, [sp, #0x10]
  047fc	e59d3010	 ldr         r3, [sp, #0x10]
  04800	e3530000	 cmp         r3, #0
  04804	0a000003	 beq         |$LN1@ReInit@3|

; 895  :             EnableEndpointInterrupt(dwIndex, TRUE);

  04808	e3a02001	 mov         r2, #1
  0480c	e59d1000	 ldr         r1, [sp]
  04810	e59d001c	 ldr         r0, [sp, #0x1C]
  04814	eb000000	 bl          |?EnableEndpointInterrupt@BulUsbDevice@@QAAHKH@Z|
  04818		 |$LN1@ReInit@3|

; 896  :         }
; 897  :     }

  04818	eaffffec	 b           |$LN3@ReInit@3|
  0481c		 |$LN2@ReInit@3|

; 898  :     
; 899  :     Unlock();

  0481c	e59d301c	 ldr         r3, [sp, #0x1C]
  04820	e2830018	 add         r0, r3, #0x18
  04824	eb000000	 bl          |?Unlock@CLockObject@@QAAXXZ|

; 900  :     return FALSE;

  04828	e3a03000	 mov         r3, #0
  0482c	e58d3008	 str         r3, [sp, #8]

; 901  : }

  04830	e59d0008	 ldr         r0, [sp, #8]
  04834	e28dd014	 add         sp, sp, #0x14
  04838	e89d6000	 ldmia       sp, {sp, lr}
  0483c	e12fff1e	 bx          lr
  04840		 |$M39145|

			 ENDP  ; |?ReInit@BulUsbDevice@@IAAHXZ|, BulUsbDevice::ReInit

	IMPORT	|InterlockedDecrement|
; File c:\wince600\public\common\oak\inc\crefcon.h

  00000			 AREA	 |.pdata|, PDATA
|$T39157| DCD	|$LN8@DeRef|
	DCD	0x40002704
; Function compile flags: /Odtp

  00000			 AREA	 |.text|, CODE, ARM

  00000		 |?DeRef@CRefObject@@QAAKXZ| PROC	; CRefObject::DeRef

; 47   :     {

  00000		 |$LN8@DeRef|
  00000	e1a0c00d	 mov         r12, sp
  00004	e92d0001	 stmdb       sp!, {r0}
  00008	e92d5000	 stmdb       sp!, {r12, lr}
  0000c	e24dd01c	 sub         sp, sp, #0x1C
  00010		 |$M39154|

; 48   :         LONG lReturn = InterlockedDecrement(&m_lRefCount);

  00010	e59d3024	 ldr         r3, [sp, #0x24]
  00014	e2830004	 add         r0, r3, #4
  00018	eb000000	 bl          InterlockedDecrement
  0001c	e58d0010	 str         r0, [sp, #0x10]
  00020	e59d3010	 ldr         r3, [sp, #0x10]
  00024	e58d3000	 str         r3, [sp]

; 49   :         if( lReturn <= 0 ) {

  00028	e59d3000	 ldr         r3, [sp]
  0002c	e3530000	 cmp         r3, #0
  00030	ca000013	 bgt         |$LN1@DeRef|

; 50   :             delete this;

  00034	e59d3024	 ldr         r3, [sp, #0x24]
  00038	e58d3008	 str         r3, [sp, #8]
  0003c	e59d3008	 ldr         r3, [sp, #8]
  00040	e58d3004	 str         r3, [sp, #4]
  00044	e59d3004	 ldr         r3, [sp, #4]
  00048	e3530000	 cmp         r3, #0
  0004c	0a00000a	 beq         |$LN4@DeRef|
  00050	e3a01001	 mov         r1, #1
  00054	e59d3004	 ldr         r3, [sp, #4]
  00058	e5933000	 ldr         r3, [r3]
  0005c	e59d0004	 ldr         r0, [sp, #4]
  00060	e5933000	 ldr         r3, [r3]
  00064	e1a0e00f	 mov         lr, pc
  00068	e12fff13	 bx          r3
  0006c	e58d0014	 str         r0, [sp, #0x14]
  00070	e59d3014	 ldr         r3, [sp, #0x14]
  00074	e58d3018	 str         r3, [sp, #0x18]
  00078	ea000001	 b           |$LN5@DeRef|
  0007c		 |$LN4@DeRef|
  0007c	e3a03000	 mov         r3, #0
  00080	e58d3018	 str         r3, [sp, #0x18]
  00084		 |$LN5@DeRef|
  00084		 |$LN1@DeRef|

; 51   :         }
; 52   :         return (DWORD)lReturn;

  00084	e59d3000	 ldr         r3, [sp]
  00088	e58d300c	 str         r3, [sp, #0xC]

; 53   :     }

  0008c	e59d000c	 ldr         r0, [sp, #0xC]
  00090	e28dd01c	 add         sp, sp, #0x1C
  00094	e89d6000	 ldmia       sp, {sp, lr}
  00098	e12fff1e	 bx          lr
  0009c		 |$M39155|

			 ENDP  ; |?DeRef@CRefObject@@QAAKXZ|, CRefObject::DeRef


  000d0			 AREA	 |.pdata|, PDATA
|$T39165| DCD	|$LN8@DeleteAllE|
	DCD	0x40001804
; Function compile flags: /Odtp
; File c:\wince600\platform\common\src\soc\pxa27x_ms_v1\usbfn\bul_usbfn.cpp

  04840			 AREA	 |.text|, CODE, ARM

  04840		 |?DeleteAllEndpoint@BulUsbDevice@@UAAHXZ| PROC ; BulUsbDevice::DeleteAllEndpoint

; 903  : {

  04840		 |$LN8@DeleteAllE|
  04840	e1a0c00d	 mov         r12, sp
  04844	e92d0001	 stmdb       sp!, {r0}
  04848	e92d5000	 stmdb       sp!, {r12, lr}
  0484c	e24dd008	 sub         sp, sp, #8
  04850		 |$M39162|

; 904  :     for (DWORD dwIndex=0; dwIndex<MAX_ENDPOINT_NUMBER; dwIndex++)

  04850	e3a03000	 mov         r3, #0
  04854	e58d3000	 str         r3, [sp]
  04858	ea000002	 b           |$LN3@DeleteAllE|
  0485c		 |$LN2@DeleteAllE|
  0485c	e59d3000	 ldr         r3, [sp]
  04860	e2833001	 add         r3, r3, #1
  04864	e58d3000	 str         r3, [sp]
  04868		 |$LN3@DeleteAllE|
  04868	e59d3000	 ldr         r3, [sp]
  0486c	e3530018	 cmp         r3, #0x18
  04870	2a000004	 bcs         |$LN1@DeleteAllE|

; 905  :         RemoveObjectBy( dwIndex );

  04874	e59d1000	 ldr         r1, [sp]
  04878	e59d3010	 ldr         r3, [sp, #0x10]
  0487c	e2830018	 add         r0, r3, #0x18
  04880	eb000000	 bl          |?RemoveObjectBy@?$CStaticContainer@VBulEndpoint@@$0BI@@@QAAPAVBulEndpoint@@K@Z|
  04884	eafffff4	 b           |$LN2@DeleteAllE|
  04888		 |$LN1@DeleteAllE|

; 906  :     return TRUE;

  04888	e3a03001	 mov         r3, #1
  0488c	e58d3004	 str         r3, [sp, #4]

; 907  : }

  04890	e59d0004	 ldr         r0, [sp, #4]
  04894	e28dd008	 add         sp, sp, #8
  04898	e89d6000	 ldmia       sp, {sp, lr}
  0489c	e12fff1e	 bx          lr
  048a0		 |$M39163|

			 ENDP  ; |?DeleteAllEndpoint@BulUsbDevice@@UAAHXZ|, BulUsbDevice::DeleteAllEndpoint

	EXPORT	|?ReadIntrCtr1Register@BulUsbDevice@@QAAKXZ| ; BulUsbDevice::ReadIntrCtr1Register
	EXPORT	|?ReadIntrCtr0Register@BulUsbDevice@@QAAKXZ| ; BulUsbDevice::ReadIntrCtr0Register
	EXPORT	|??_C@_1FG@JEEKPAG@?$AA?$CF?$AAs?$AA?5?$AAE?$AAn?$AAt?$AAe?$AAr?$AA?4?$AA?5?$AAd?$AAw?$AAE?$AAn?$AAd?$AAp?$AAo?$AAi?$AAn?$AAt?$AA?3?$AA0?$AAx?$AA?$CF?$AAx?$AA?0?$AAE?$AAn?$AAa?$AAb?$AAl?$AAe@| [ DATA ] ; `string'
	EXPORT	|??_C@_1GM@HIOOJFPN@?$AAb?$AAu?$AAl?$AAv?$AAe?$AAr?$AAd?$AAe?$AA_?$AAu?$AAs?$AAb?$AAf?$AAn?$AA?$CB?$AAB?$AAu?$AAl?$AAU?$AAs?$AAb?$AAD?$AAe?$AAv?$AAi?$AAc?$AAe?$AA?3?$AA?3?$AAE?$AAn?$AAa@| [ DATA ] ; `string'

  000d8			 AREA	 |.pdata|, PDATA
|$T39175| DCD	|$LN16@EnableEndp|
	DCD	0x40007004

  00000			 AREA	 |.rdata|, DATA, READONLY
|??_C@_1FG@JEEKPAG@?$AA?$CF?$AAs?$AA?5?$AAE?$AAn?$AAt?$AAe?$AAr?$AA?4?$AA?5?$AAd?$AAw?$AAE?$AAn?$AAd?$AAp?$AAo?$AAi?$AAn?$AAt?$AA?3?$AA0?$AAx?$AA?$CF?$AAx?$AA?0?$AAE?$AAn?$AAa?$AAb?$AAl?$AAe@| DCB "%"
	DCB	0x0, "s", 0x0, " ", 0x0, "E", 0x0, "n", 0x0, "t", 0x0, "e"
	DCB	0x0, "r", 0x0, ".", 0x0, " ", 0x0, "d", 0x0, "w", 0x0, "E"
	DCB	0x0, "n", 0x0, "d", 0x0, "p", 0x0, "o", 0x0, "i", 0x0, "n"
	DCB	0x0, "t", 0x0, ":", 0x0, "0", 0x0, "x", 0x0, "%", 0x0, "x"
	DCB	0x0, ",", 0x0, "E", 0x0, "n", 0x0, "a", 0x0, "b", 0x0, "l"
	DCB	0x0, "e", 0x0, ":", 0x0, "0", 0x0, "x", 0x0, "%", 0x0, "x"
	DCB	0x0, " ", 0x0, "-", 0x0, "-", 0x0, 0xd, 0x0, 0xa, 0x0, 0x0
	DCB	0x0					; `string'

  00000			 AREA	 |.rdata|, DATA, READONLY
|??_C@_1GM@HIOOJFPN@?$AAb?$AAu?$AAl?$AAv?$AAe?$AAr?$AAd?$AAe?$AA_?$AAu?$AAs?$AAb?$AAf?$AAn?$AA?$CB?$AAB?$AAu?$AAl?$AAU?$AAs?$AAb?$AAD?$AAe?$AAv?$AAi?$AAc?$AAe?$AA?3?$AA?3?$AAE?$AAn?$AAa@| DCB "b"
	DCB	0x0, "u", 0x0, "l", 0x0, "v", 0x0, "e", 0x0, "r", 0x0, "d"
	DCB	0x0, "e", 0x0, "_", 0x0, "u", 0x0, "s", 0x0, "b", 0x0, "f"
	DCB	0x0, "n", 0x0, "!", 0x0, "B", 0x0, "u", 0x0, "l", 0x0, "U"
	DCB	0x0, "s", 0x0, "b", 0x0, "D", 0x0, "e", 0x0, "v", 0x0, "i"
	DCB	0x0, "c", 0x0, "e", 0x0, ":", 0x0, ":", 0x0, "E", 0x0, "n"
	DCB	0x0, "a", 0x0, "b", 0x0, "l", 0x0, "e", 0x0, "E", 0x0, "n"
	DCB	0x0, "d", 0x0, "p", 0x0, "o", 0x0, "i", 0x0, "n", 0x0, "t"
	DCB	0x0, "I", 0x0, "n", 0x0, "t", 0x0, "e", 0x0, "r", 0x0, "r"
	DCB	0x0, "u", 0x0, "p", 0x0, "t", 0x0, ":", 0x0, 0x0, 0x0 ; `string'
; Function compile flags: /Odtp

  048a0			 AREA	 |.text|, CODE, ARM

  048a0		 |?EnableEndpointInterrupt@BulUsbDevice@@QAAHKH@Z| PROC ; BulUsbDevice::EnableEndpointInterrupt

; 912  : {

  048a0		 |$LN16@EnableEndp|
  048a0	e1a0c00d	 mov         r12, sp
  048a4	e92d0007	 stmdb       sp!, {r0 - r2}
  048a8	e92d5000	 stmdb       sp!, {r12, lr}
  048ac	e24dd024	 sub         sp, sp, #0x24
  048b0		 |$M39172|

; 913  :     SETFNAME();

  048b0	e59f31a4	 ldr         r3, [pc, #0x1A4]
  048b4	e58d3000	 str         r3, [sp]

; 914  :     DEBUGMSG(ZONE_USB_EVENTS, (_T("%s Enter. dwEndpoint:0x%x,Enable:0x%x --\r\n"), pszFname,dwEndpointIndex,bEnable));

  048b8	e59f3198	 ldr         r3, [pc, #0x198]
  048bc	e5933440	 ldr         r3, [r3, #0x440]
  048c0	e3130080	 tst         r3, #0x80
  048c4	0a000011	 beq         |$LN12@EnableEndp|
  048c8	e59f3188	 ldr         r3, [pc, #0x188]
  048cc	e5933440	 ldr         r3, [r3, #0x440]
  048d0	e3130801	 tst         r3, #1, 16
  048d4	0a000005	 beq         |$LN10@EnableEndp|
  048d8	e59d3034	 ldr         r3, [sp, #0x34]
  048dc	e59d2030	 ldr         r2, [sp, #0x30]
  048e0	e59d1000	 ldr         r1, [sp]
  048e4	e59f0168	 ldr         r0, [pc, #0x168]
  048e8	eb000000	 bl          CeLogMsg
  048ec	ea000004	 b           |$LN11@EnableEndp|
  048f0		 |$LN10@EnableEndp|
  048f0	e59d3034	 ldr         r3, [sp, #0x34]
  048f4	e59d2030	 ldr         r2, [sp, #0x30]
  048f8	e59d1000	 ldr         r1, [sp]
  048fc	e59f0150	 ldr         r0, [pc, #0x150]
  04900	eb000000	 bl          NKDbgPrintfW
  04904		 |$LN11@EnableEndp|
  04904	e3a03001	 mov         r3, #1
  04908	e58d3018	 str         r3, [sp, #0x18]
  0490c	ea000001	 b           |$LN13@EnableEndp|
  04910		 |$LN12@EnableEndp|
  04910	e3a03000	 mov         r3, #0
  04914	e58d3018	 str         r3, [sp, #0x18]
  04918		 |$LN13@EnableEndp|

; 915  :     
; 916  :     if (dwEndpointIndex < MAX_ENDPOINT_NUMBER ) {

  04918	e59d3030	 ldr         r3, [sp, #0x30]
  0491c	e3530018	 cmp         r3, #0x18
  04920	2a000045	 bcs         |$LN7@EnableEndp|

; 917  :         Lock();

  04924	e59d302c	 ldr         r3, [sp, #0x2C]
  04928	e2830018	 add         r0, r3, #0x18
  0492c	eb000000	 bl          |?Lock@CLockObject@@QAAXXZ|

; 918  :         if (dwEndpointIndex <UDCIR0_MAX) {

  04930	e59d3030	 ldr         r3, [sp, #0x30]
  04934	e3530010	 cmp         r3, #0x10
  04938	2a00001b	 bcs         |$LN6@EnableEndp|

; 919  :             DWORD dwIntrCtrBit = ((EPINT_PACKET_COMPLETE | EPINT_FIFO_ERROR) <<(dwEndpointIndex*2));

  0493c	e59d1030	 ldr         r1, [sp, #0x30]
  04940	e3a03002	 mov         r3, #2
  04944	e0020391	 mul         r2, r1, r3
  04948	e3a03003	 mov         r3, #3
  0494c	e1a03213	 mov         r3, r3, lsl r2
  04950	e58d3004	 str         r3, [sp, #4]

; 920  :             DWORD dwIntrCtl = ReadIntrCtr0Register() ;

  04954	e59d002c	 ldr         r0, [sp, #0x2C]
  04958	eb000000	 bl          |?ReadIntrCtr0Register@BulUsbDevice@@QAAKXZ|
  0495c	e58d001c	 str         r0, [sp, #0x1C]
  04960	e59d301c	 ldr         r3, [sp, #0x1C]
  04964	e58d3008	 str         r3, [sp, #8]

; 921  :             if (bEnable)

  04968	e59d3034	 ldr         r3, [sp, #0x34]
  0496c	e3530000	 cmp         r3, #0
  04970	0a000004	 beq         |$LN5@EnableEndp|

; 922  :                 dwIntrCtl |= dwIntrCtrBit;

  04974	e59d2008	 ldr         r2, [sp, #8]
  04978	e59d3004	 ldr         r3, [sp, #4]
  0497c	e1823003	 orr         r3, r2, r3
  04980	e58d3008	 str         r3, [sp, #8]

; 923  :             else 

  04984	ea000004	 b           |$LN4@EnableEndp|
  04988		 |$LN5@EnableEndp|

; 924  :                 dwIntrCtl &= ~dwIntrCtrBit;

  04988	e59d3004	 ldr         r3, [sp, #4]
  0498c	e1e02003	 mvn         r2, r3
  04990	e59d3008	 ldr         r3, [sp, #8]
  04994	e0033002	 and         r3, r3, r2
  04998	e58d3008	 str         r3, [sp, #8]
  0499c		 |$LN4@EnableEndp|

; 925  :             WriteIntrCtr0Register(dwIntrCtl);

  0499c	e59d1008	 ldr         r1, [sp, #8]
  049a0	e59d002c	 ldr         r0, [sp, #0x2C]
  049a4	eb000000	 bl          |?WriteIntrCtr0Register@BulUsbDevice@@QAAXK@Z|

; 926  :         }
; 927  :         else {

  049a8	ea00001d	 b           |$LN3@EnableEndp|
  049ac		 |$LN6@EnableEndp|

; 928  :             dwEndpointIndex -= UDCIR0_MAX;

  049ac	e59d3030	 ldr         r3, [sp, #0x30]
  049b0	e2433010	 sub         r3, r3, #0x10
  049b4	e58d3030	 str         r3, [sp, #0x30]

; 929  :             DWORD dwIntrCtrBit = ((EPINT_PACKET_COMPLETE | EPINT_FIFO_ERROR) <<(dwEndpointIndex*2));

  049b8	e59d1030	 ldr         r1, [sp, #0x30]
  049bc	e3a03002	 mov         r3, #2
  049c0	e0020391	 mul         r2, r1, r3
  049c4	e3a03003	 mov         r3, #3
  049c8	e1a03213	 mov         r3, r3, lsl r2
  049cc	e58d300c	 str         r3, [sp, #0xC]

; 930  :             DWORD dwIntrCtl = ReadIntrCtr1Register() ;

  049d0	e59d002c	 ldr         r0, [sp, #0x2C]
  049d4	eb000000	 bl          |?ReadIntrCtr1Register@BulUsbDevice@@QAAKXZ|
  049d8	e58d0020	 str         r0, [sp, #0x20]
  049dc	e59d3020	 ldr         r3, [sp, #0x20]
  049e0	e58d3010	 str         r3, [sp, #0x10]

; 931  :             if (bEnable)

  049e4	e59d3034	 ldr         r3, [sp, #0x34]
  049e8	e3530000	 cmp         r3, #0
  049ec	0a000004	 beq         |$LN2@EnableEndp|

; 932  :                 dwIntrCtl |= dwIntrCtl;

  049f0	e59d2010	 ldr         r2, [sp, #0x10]
  049f4	e59d3010	 ldr         r3, [sp, #0x10]
  049f8	e1823003	 orr         r3, r2, r3
  049fc	e58d3010	 str         r3, [sp, #0x10]

; 933  :             else 

  04a00	ea000004	 b           |$LN1@EnableEndp|
  04a04		 |$LN2@EnableEndp|

; 934  :                 dwIntrCtl &= ~dwIntrCtl;

  04a04	e59d3010	 ldr         r3, [sp, #0x10]
  04a08	e1e02003	 mvn         r2, r3
  04a0c	e59d3010	 ldr         r3, [sp, #0x10]
  04a10	e0033002	 and         r3, r3, r2
  04a14	e58d3010	 str         r3, [sp, #0x10]
  04a18		 |$LN1@EnableEndp|

; 935  :             WriteIntrCtr1Register(dwIntrCtl);

  04a18	e59d1010	 ldr         r1, [sp, #0x10]
  04a1c	e59d002c	 ldr         r0, [sp, #0x2C]
  04a20	eb000000	 bl          |?WriteIntrCtr1Register@BulUsbDevice@@QAAXK@Z|
  04a24		 |$LN3@EnableEndp|

; 936  :         }
; 937  :         Unlock();

  04a24	e59d302c	 ldr         r3, [sp, #0x2C]
  04a28	e2830018	 add         r0, r3, #0x18
  04a2c	eb000000	 bl          |?Unlock@CLockObject@@QAAXXZ|

; 938  :         return TRUE;

  04a30	e3a03001	 mov         r3, #1
  04a34	e58d3014	 str         r3, [sp, #0x14]
  04a38	ea000001	 b           |$LN8@EnableEndp|
  04a3c		 |$LN7@EnableEndp|

; 939  :     }
; 940  :     return FALSE;

  04a3c	e3a03000	 mov         r3, #0
  04a40	e58d3014	 str         r3, [sp, #0x14]
  04a44		 |$LN8@EnableEndp|

; 941  : }

  04a44	e59d0014	 ldr         r0, [sp, #0x14]
  04a48	e28dd024	 add         sp, sp, #0x24
  04a4c	e89d6000	 ldmia       sp, {sp, lr}
  04a50	e12fff1e	 bx          lr
  04a54		 |$LN17@EnableEndp|
  04a54		 |$LN18@EnableEndp|
  04a54	00000000	 DCD         |??_C@_1FG@JEEKPAG@?$AA?$CF?$AAs?$AA?5?$AAE?$AAn?$AAt?$AAe?$AAr?$AA?4?$AA?5?$AAd?$AAw?$AAE?$AAn?$AAd?$AAp?$AAo?$AAi?$AAn?$AAt?$AA?3?$AA0?$AAx?$AA?$CF?$AAx?$AA?0?$AAE?$AAn?$AAa?$AAb?$AAl?$AAe@|
  04a58		 |$LN19@EnableEndp|
  04a58	00000000	 DCD         |dpCurSettings|
  04a5c		 |$LN20@EnableEndp|
  04a5c	00000000	 DCD         |??_C@_1GM@HIOOJFPN@?$AAb?$AAu?$AAl?$AAv?$AAe?$AAr?$AAd?$AAe?$AA_?$AAu?$AAs?$AAb?$AAf?$AAn?$AA?$CB?$AAB?$AAu?$AAl?$AAU?$AAs?$AAb?$AAD?$AAe?$AAv?$AAi?$AAc?$AAe?$AA?3?$AA?3?$AAE?$AAn?$AAa@|
  04a60		 |$M39173|

			 ENDP  ; |?EnableEndpointInterrupt@BulUsbDevice@@QAAHKH@Z|, BulUsbDevice::EnableEndpointInterrupt

; File c:\wince600\platform\common\src\soc\pxa27x_ms_v1\inc\bul_usbfn.h

  00000			 AREA	 |.pdata|, PDATA
|$T39185| DCD	|$LN5@ReadIntrCt|
	DCD	0x40000e04
; Function compile flags: /Odtp

  00000			 AREA	 |.text|, CODE, ARM

  00000		 |?ReadIntrCtr0Register@BulUsbDevice@@QAAKXZ| PROC ; BulUsbDevice::ReadIntrCtr0Register

; 141  :     DWORD   ReadIntrCtr0Register() { return ReadUDCRegister(DEVICE_INT_CR0_REGISTER); }

  00000		 |$LN5@ReadIntrCt|
  00000	e1a0c00d	 mov         r12, sp
  00004	e92d0001	 stmdb       sp!, {r0}
  00008	e92d5000	 stmdb       sp!, {r12, lr}
  0000c	e24dd008	 sub         sp, sp, #8
  00010		 |$M39182|
  00010	e3a01001	 mov         r1, #1
  00014	e59d0010	 ldr         r0, [sp, #0x10]
  00018	eb000000	 bl          |?ReadUDCRegister@BulUsbDevice@@QAAKK@Z|
  0001c	e58d0004	 str         r0, [sp, #4]
  00020	e59d3004	 ldr         r3, [sp, #4]
  00024	e58d3000	 str         r3, [sp]
  00028	e59d0000	 ldr         r0, [sp]
  0002c	e28dd008	 add         sp, sp, #8
  00030	e89d6000	 ldmia       sp, {sp, lr}
  00034	e12fff1e	 bx          lr
  00038		 |$M39183|

			 ENDP  ; |?ReadIntrCtr0Register@BulUsbDevice@@QAAKXZ|, BulUsbDevice::ReadIntrCtr0Register


  00000			 AREA	 |.pdata|, PDATA
|$T39193| DCD	|$LN5@ReadIntrCt@2|
	DCD	0x40000e04
; Function compile flags: /Odtp

  00000			 AREA	 |.text|, CODE, ARM

  00000		 |?ReadIntrCtr1Register@BulUsbDevice@@QAAKXZ| PROC ; BulUsbDevice::ReadIntrCtr1Register

; 142  :     DWORD   ReadIntrCtr1Register() { return ReadUDCRegister(DEVICE_INT_CR1_REGISTER); }

  00000		 |$LN5@ReadIntrCt@2|
  00000	e1a0c00d	 mov         r12, sp
  00004	e92d0001	 stmdb       sp!, {r0}
  00008	e92d5000	 stmdb       sp!, {r12, lr}
  0000c	e24dd008	 sub         sp, sp, #8
  00010		 |$M39190|
  00010	e3a01002	 mov         r1, #2
  00014	e59d0010	 ldr         r0, [sp, #0x10]
  00018	eb000000	 bl          |?ReadUDCRegister@BulUsbDevice@@QAAKK@Z|
  0001c	e58d0004	 str         r0, [sp, #4]
  00020	e59d3004	 ldr         r3, [sp, #4]
  00024	e58d3000	 str         r3, [sp]
  00028	e59d0000	 ldr         r0, [sp]
  0002c	e28dd008	 add         sp, sp, #8
  00030	e89d6000	 ldmia       sp, {sp, lr}
  00034	e12fff1e	 bx          lr
  00038		 |$M39191|

			 ENDP  ; |?ReadIntrCtr1Register@BulUsbDevice@@QAAKXZ|, BulUsbDevice::ReadIntrCtr1Register

	EXPORT	|?ReadIntrStatus1Register@BulUsbDevice@@QAAKXZ| ; BulUsbDevice::ReadIntrStatus1Register
	EXPORT	|?ReadIntrStatus0Register@BulUsbDevice@@QAAKXZ| ; BulUsbDevice::ReadIntrStatus0Register
	EXPORT	|?GetEndpointIntrStatus@BulUsbDevice@@QAAKK@Z| ; BulUsbDevice::GetEndpointIntrStatus

  000e0			 AREA	 |.pdata|, PDATA
|$T39201| DCD	|$LN8@GetEndpoin|
	DCD	0x40002a04
; Function compile flags: /Odtp
; File c:\wince600\platform\common\src\soc\pxa27x_ms_v1\usbfn\bul_usbfn.cpp

  04a60			 AREA	 |.text|, CODE, ARM

  04a60		 |?GetEndpointIntrStatus@BulUsbDevice@@QAAKK@Z| PROC ; BulUsbDevice::GetEndpointIntrStatus

; 943  : {

  04a60		 |$LN8@GetEndpoin|
  04a60	e1a0c00d	 mov         r12, sp
  04a64	e92d0003	 stmdb       sp!, {r0, r1}
  04a68	e92d5000	 stmdb       sp!, {r12, lr}
  04a6c	e24dd010	 sub         sp, sp, #0x10
  04a70		 |$M39198|

; 944  :     DWORD dwReturnStatus = 0;

  04a70	e3a03000	 mov         r3, #0
  04a74	e58d3000	 str         r3, [sp]

; 945  :     if (dwEndpointIndex < MAX_ENDPOINT_NUMBER ) {

  04a78	e59d301c	 ldr         r3, [sp, #0x1C]
  04a7c	e3530018	 cmp         r3, #0x18
  04a80	2a00001a	 bcs         |$LN3@GetEndpoin|

; 946  :         if (dwEndpointIndex <UDCIR0_MAX) {

  04a84	e59d301c	 ldr         r3, [sp, #0x1C]
  04a88	e3530010	 cmp         r3, #0x10
  04a8c	2a00000a	 bcs         |$LN2@GetEndpoin|

; 947  :             dwReturnStatus = (ReadIntrStatus0Register()>>(dwEndpointIndex*2)) & (EPINT_PACKET_COMPLETE | EPINT_FIFO_ERROR);

  04a90	e59d0018	 ldr         r0, [sp, #0x18]
  04a94	eb000000	 bl          |?ReadIntrStatus0Register@BulUsbDevice@@QAAKXZ|
  04a98	e58d0008	 str         r0, [sp, #8]
  04a9c	e59d101c	 ldr         r1, [sp, #0x1C]
  04aa0	e3a03002	 mov         r3, #2
  04aa4	e0020391	 mul         r2, r1, r3
  04aa8	e59d3008	 ldr         r3, [sp, #8]
  04aac	e1a03233	 mov         r3, r3, lsr r2
  04ab0	e2033003	 and         r3, r3, #3
  04ab4	e58d3000	 str         r3, [sp]

; 948  :         }
; 949  :         else {

  04ab8	ea00000c	 b           |$LN1@GetEndpoin|
  04abc		 |$LN2@GetEndpoin|

; 950  :             dwEndpointIndex -= MAX_ENDPOINT_NUMBER;

  04abc	e59d301c	 ldr         r3, [sp, #0x1C]
  04ac0	e2433018	 sub         r3, r3, #0x18
  04ac4	e58d301c	 str         r3, [sp, #0x1C]

; 951  :             dwReturnStatus = (ReadIntrStatus1Register()>>(dwEndpointIndex*2)) & (EPINT_PACKET_COMPLETE | EPINT_FIFO_ERROR);

  04ac8	e59d0018	 ldr         r0, [sp, #0x18]
  04acc	eb000000	 bl          |?ReadIntrStatus1Register@BulUsbDevice@@QAAKXZ|
  04ad0	e58d000c	 str         r0, [sp, #0xC]
  04ad4	e59d101c	 ldr         r1, [sp, #0x1C]
  04ad8	e3a03002	 mov         r3, #2
  04adc	e0020391	 mul         r2, r1, r3
  04ae0	e59d300c	 ldr         r3, [sp, #0xC]
  04ae4	e1a03233	 mov         r3, r3, lsr r2
  04ae8	e2033003	 and         r3, r3, #3
  04aec	e58d3000	 str         r3, [sp]
  04af0		 |$LN1@GetEndpoin|
  04af0		 |$LN3@GetEndpoin|

; 952  :         }
; 953  :     }
; 954  :     return dwReturnStatus;

  04af0	e59d3000	 ldr         r3, [sp]
  04af4	e58d3004	 str         r3, [sp, #4]

; 955  : }

  04af8	e59d0004	 ldr         r0, [sp, #4]
  04afc	e28dd010	 add         sp, sp, #0x10
  04b00	e89d6000	 ldmia       sp, {sp, lr}
  04b04	e12fff1e	 bx          lr
  04b08		 |$M39199|

			 ENDP  ; |?GetEndpointIntrStatus@BulUsbDevice@@QAAKK@Z|, BulUsbDevice::GetEndpointIntrStatus

; File c:\wince600\platform\common\src\soc\pxa27x_ms_v1\inc\bul_usbfn.h

  00000			 AREA	 |.pdata|, PDATA
|$T39207| DCD	|$LN5@ReadIntrSt|
	DCD	0x40000e04
; Function compile flags: /Odtp

  00000			 AREA	 |.text|, CODE, ARM

  00000		 |?ReadIntrStatus0Register@BulUsbDevice@@QAAKXZ| PROC ; BulUsbDevice::ReadIntrStatus0Register

; 143  :     DWORD   ReadIntrStatus0Register() { return ReadUDCRegister(DEVICE_INT_SR0_REGISTER); }

  00000		 |$LN5@ReadIntrSt|
  00000	e1a0c00d	 mov         r12, sp
  00004	e92d0001	 stmdb       sp!, {r0}
  00008	e92d5000	 stmdb       sp!, {r12, lr}
  0000c	e24dd008	 sub         sp, sp, #8
  00010		 |$M39204|
  00010	e3a01003	 mov         r1, #3
  00014	e59d0010	 ldr         r0, [sp, #0x10]
  00018	eb000000	 bl          |?ReadUDCRegister@BulUsbDevice@@QAAKK@Z|
  0001c	e58d0004	 str         r0, [sp, #4]
  00020	e59d3004	 ldr         r3, [sp, #4]
  00024	e58d3000	 str         r3, [sp]
  00028	e59d0000	 ldr         r0, [sp]
  0002c	e28dd008	 add         sp, sp, #8
  00030	e89d6000	 ldmia       sp, {sp, lr}
  00034	e12fff1e	 bx          lr
  00038		 |$M39205|

			 ENDP  ; |?ReadIntrStatus0Register@BulUsbDevice@@QAAKXZ|, BulUsbDevice::ReadIntrStatus0Register


  00000			 AREA	 |.pdata|, PDATA
|$T39215| DCD	|$LN5@ReadIntrSt@2|
	DCD	0x40000e04
; Function compile flags: /Odtp

  00000			 AREA	 |.text|, CODE, ARM

  00000		 |?ReadIntrStatus1Register@BulUsbDevice@@QAAKXZ| PROC ; BulUsbDevice::ReadIntrStatus1Register

; 144  :     DWORD   ReadIntrStatus1Register() { return ReadUDCRegister(DEVICE_INT_SR1_REGISTER); }

  00000		 |$LN5@ReadIntrSt@2|
  00000	e1a0c00d	 mov         r12, sp
  00004	e92d0001	 stmdb       sp!, {r0}
  00008	e92d5000	 stmdb       sp!, {r12, lr}
  0000c	e24dd008	 sub         sp, sp, #8
  00010		 |$M39212|
  00010	e3a01004	 mov         r1, #4
  00014	e59d0010	 ldr         r0, [sp, #0x10]
  00018	eb000000	 bl          |?ReadUDCRegister@BulUsbDevice@@QAAKK@Z|
  0001c	e58d0004	 str         r0, [sp, #4]
  00020	e59d3004	 ldr         r3, [sp, #4]
  00024	e58d3000	 str         r3, [sp]
  00028	e59d0000	 ldr         r0, [sp]
  0002c	e28dd008	 add         sp, sp, #8
  00030	e89d6000	 ldmia       sp, {sp, lr}
  00034	e12fff1e	 bx          lr
  00038		 |$M39213|

			 ENDP  ; |?ReadIntrStatus1Register@BulUsbDevice@@QAAKXZ|, BulUsbDevice::ReadIntrStatus1Register

	EXPORT	|??_C@_1DM@ODMIBFJE@?$AA?$CF?$AAs?$AA?5?$AAr?$AAe?$AAt?$AAu?$AAr?$AAn?$AA?5?$AAe?$AAr?$AAr?$AAo?$AAr?$AAc?$AAo?$AAd?$AAe?$AA?5?$AA?$DN?$AA?5?$AA?$CF?$AAd?$AA?5?$AA?9?$AA?9?$AA?$AN?$AA?6?$AA?$AA@| [ DATA ] ; `string'
	EXPORT	|?InsertObject@?$CStaticContainer@VBulEndpoint@@$0BI@@@QAAPAVBulEndpoint@@KPAV2@@Z| ; CStaticContainer<BulEndpoint,24>::InsertObject
	EXPORT	|??0BulEndpointOut@@QAA@QAVBulUsbDevice@@KH@Z| ; BulEndpointOut::BulEndpointOut
	EXPORT	|??0BulEndpointIn@@QAA@QAVBulUsbDevice@@KH@Z| ; BulEndpointIn::BulEndpointIn
	EXPORT	|??0BulEndpointZero@@QAA@QAVBulUsbDevice@@H@Z| ; BulEndpointZero::BulEndpointZero
	EXPORT	|??_C@_1FE@KDOPKMHC@?$AA?$CF?$AAs?$AA?5?$AAE?$AAn?$AAt?$AAe?$AAr?$AA?4?$AA?5?$AAd?$AAw?$AAE?$AAn?$AAd?$AAp?$AAo?$AAi?$AAn?$AAt?$AA?3?$AA0?$AAx?$AA?$CF?$AAx?$AA?0?$AAS?$AAp?$AAe?$AAe?$AAd?$AA?3@| [ DATA ] ; `string'
	EXPORT	|??_C@_1GI@MDBFMHAA@?$AAb?$AAu?$AAl?$AAv?$AAe?$AAr?$AAd?$AAe?$AA_?$AAu?$AAs?$AAb?$AAf?$AAn?$AA?$CB?$AAB?$AAu?$AAl?$AAU?$AAs?$AAb?$AAD?$AAe?$AAv?$AAi?$AAc?$AAe?$AA?3?$AA?3?$AAI?$AAs?$AAE@| [ DATA ] ; `string'

  000e8			 AREA	 |.pdata|, PDATA
|$T39247| DCD	|$LN31@IsEndpoint@2|
	DCD	0x4000eb04
; File c:\wince600\platform\common\src\soc\pxa27x_ms_v1\usbfn\bul_usbfn.cpp

  00000			 AREA	 |.rdata|, DATA, READONLY
|??_C@_1DM@ODMIBFJE@?$AA?$CF?$AAs?$AA?5?$AAr?$AAe?$AAt?$AAu?$AAr?$AAn?$AA?5?$AAe?$AAr?$AAr?$AAo?$AAr?$AAc?$AAo?$AAd?$AAe?$AA?5?$AA?$DN?$AA?5?$AA?$CF?$AAd?$AA?5?$AA?9?$AA?9?$AA?$AN?$AA?6?$AA?$AA@| DCB "%"
	DCB	0x0, "s", 0x0, " ", 0x0, "r", 0x0, "e", 0x0, "t", 0x0, "u"
	DCB	0x0, "r", 0x0, "n", 0x0, " ", 0x0, "e", 0x0, "r", 0x0, "r"
	DCB	0x0, "o", 0x0, "r", 0x0, "c", 0x0, "o", 0x0, "d", 0x0, "e"
	DCB	0x0, " ", 0x0, "=", 0x0, " ", 0x0, "%", 0x0, "d", 0x0, " "
	DCB	0x0, "-", 0x0, "-", 0x0, 0xd, 0x0, 0xa, 0x0, 0x0, 0x0 ; `string'

  00000			 AREA	 |.rdata|, DATA, READONLY
|??_C@_1FE@KDOPKMHC@?$AA?$CF?$AAs?$AA?5?$AAE?$AAn?$AAt?$AAe?$AAr?$AA?4?$AA?5?$AAd?$AAw?$AAE?$AAn?$AAd?$AAp?$AAo?$AAi?$AAn?$AAt?$AA?3?$AA0?$AAx?$AA?$CF?$AAx?$AA?0?$AAS?$AAp?$AAe?$AAe?$AAd?$AA?3@| DCB "%"
	DCB	0x0, "s", 0x0, " ", 0x0, "E", 0x0, "n", 0x0, "t", 0x0, "e"
	DCB	0x0, "r", 0x0, ".", 0x0, " ", 0x0, "d", 0x0, "w", 0x0, "E"
	DCB	0x0, "n", 0x0, "d", 0x0, "p", 0x0, "o", 0x0, "i", 0x0, "n"
	DCB	0x0, "t", 0x0, ":", 0x0, "0", 0x0, "x", 0x0, "%", 0x0, "x"
	DCB	0x0, ",", 0x0, "S", 0x0, "p", 0x0, "e", 0x0, "e", 0x0, "d"
	DCB	0x0, ":", 0x0, "0", 0x0, "x", 0x0, "%", 0x0, "x", 0x0, " "
	DCB	0x0, "-", 0x0, "-", 0x0, 0xd, 0x0, 0xa, 0x0, 0x0, 0x0 ; `string'

  00000			 AREA	 |.rdata|, DATA, READONLY
|??_C@_1GI@MDBFMHAA@?$AAb?$AAu?$AAl?$AAv?$AAe?$AAr?$AAd?$AAe?$AA_?$AAu?$AAs?$AAb?$AAf?$AAn?$AA?$CB?$AAB?$AAu?$AAl?$AAU?$AAs?$AAb?$AAD?$AAe?$AAv?$AAi?$AAc?$AAe?$AA?3?$AA?3?$AAI?$AAs?$AAE@| DCB "b"
	DCB	0x0, "u", 0x0, "l", 0x0, "v", 0x0, "e", 0x0, "r", 0x0, "d"
	DCB	0x0, "e", 0x0, "_", 0x0, "u", 0x0, "s", 0x0, "b", 0x0, "f"
	DCB	0x0, "n", 0x0, "!", 0x0, "B", 0x0, "u", 0x0, "l", 0x0, "U"
	DCB	0x0, "s", 0x0, "b", 0x0, "D", 0x0, "e", 0x0, "v", 0x0, "i"
	DCB	0x0, "c", 0x0, "e", 0x0, ":", 0x0, ":", 0x0, "I", 0x0, "s"
	DCB	0x0, "E", 0x0, "n", 0x0, "d", 0x0, "p", 0x0, "o", 0x0, "i"
	DCB	0x0, "n", 0x0, "t", 0x0, "S", 0x0, "u", 0x0, "p", 0x0, "p"
	DCB	0x0, "o", 0x0, "r", 0x0, "t", 0x0, "a", 0x0, "b", 0x0, "l"
	DCB	0x0, "e", 0x0, ":", 0x0, 0x0, 0x0	; `string'
; Function compile flags: /Odtp

  04b08			 AREA	 |.text|, CODE, ARM

  04b08		 |?IsEndpointSupportable@BulUsbDevice@@UAAKKW4_UFN_BUS_SPEED@@PAU_USB_ENDPOINT_DESCRIPTOR@@EEE@Z| PROC ; BulUsbDevice::IsEndpointSupportable

; 961  : {

  04b08		 |$LN31@IsEndpoint@2|
  04b08	e1a0c00d	 mov         r12, sp
  04b0c	e92d000f	 stmdb       sp!, {r0 - r3}
  04b10	e92d5010	 stmdb       sp!, {r4, r12, lr}
  04b14	e24dd06c	 sub         sp, sp, #0x6C
  04b18		 |$M39244|

; 962  :     DWORD dwError = ERROR_INVALID_PARAMETER;

  04b18	e3a03057	 mov         r3, #0x57
  04b1c	e58d3008	 str         r3, [sp, #8]

; 963  :     SETFNAME();

  04b20	e59f3388	 ldr         r3, [pc, #0x388]
  04b24	e58d3004	 str         r3, [sp, #4]

; 964  :     DEBUGMSG(ZONE_FUNCTION, (_T("%s Enter. dwEndpoint:0x%x,Speed:0x%x --\r\n"), pszFname,dwEndpoint,Speed));

  04b28	e59f336c	 ldr         r3, [pc, #0x36C]
  04b2c	e5933440	 ldr         r3, [r3, #0x440]
  04b30	e3130a01	 tst         r3, #1, 20
  04b34	0a000011	 beq         |$LN13@IsEndpoint@2|
  04b38	e59f335c	 ldr         r3, [pc, #0x35C]
  04b3c	e5933440	 ldr         r3, [r3, #0x440]
  04b40	e3130801	 tst         r3, #1, 16
  04b44	0a000005	 beq         |$LN11@IsEndpoint@2|
  04b48	e59d3080	 ldr         r3, [sp, #0x80]
  04b4c	e59d207c	 ldr         r2, [sp, #0x7C]
  04b50	e59d1004	 ldr         r1, [sp, #4]
  04b54	e59f0350	 ldr         r0, [pc, #0x350]
  04b58	eb000000	 bl          CeLogMsg
  04b5c	ea000004	 b           |$LN12@IsEndpoint@2|
  04b60		 |$LN11@IsEndpoint@2|
  04b60	e59d3080	 ldr         r3, [sp, #0x80]
  04b64	e59d207c	 ldr         r2, [sp, #0x7C]
  04b68	e59d1004	 ldr         r1, [sp, #4]
  04b6c	e59f0338	 ldr         r0, [pc, #0x338]
  04b70	eb000000	 bl          NKDbgPrintfW
  04b74		 |$LN12@IsEndpoint@2|
  04b74	e3a03001	 mov         r3, #1
  04b78	e58d302c	 str         r3, [sp, #0x2C]
  04b7c	ea000001	 b           |$LN14@IsEndpoint@2|
  04b80		 |$LN13@IsEndpoint@2|
  04b80	e3a03000	 mov         r3, #0
  04b84	e58d302c	 str         r3, [sp, #0x2C]
  04b88		 |$LN14@IsEndpoint@2|

; 965  :     Lock();

  04b88	e59d3078	 ldr         r3, [sp, #0x78]
  04b8c	e2830018	 add         r0, r3, #0x18
  04b90	eb000000	 bl          |?Lock@CLockObject@@QAAXXZ|

; 966  :     if ((Speed & BS_FULL_SPEED)==BS_FULL_SPEED &&  pEndpointDesc  &&
; 967  :             dwEndpoint < MAX_ENDPOINT_NUMBER && RawObjectIndex(dwEndpoint)==0 ) {

  04b94	e59d3080	 ldr         r3, [sp, #0x80]
  04b98	e2033001	 and         r3, r3, #1
  04b9c	e3530001	 cmp         r3, #1
  04ba0	1a00008f	 bne         |$LN8@IsEndpoint@2|
  04ba4	e59d3084	 ldr         r3, [sp, #0x84]
  04ba8	e3530000	 cmp         r3, #0
  04bac	0a00008c	 beq         |$LN8@IsEndpoint@2|
  04bb0	e59d307c	 ldr         r3, [sp, #0x7C]
  04bb4	e3530018	 cmp         r3, #0x18
  04bb8	2a000089	 bcs         |$LN8@IsEndpoint@2|
  04bbc	e59d107c	 ldr         r1, [sp, #0x7C]
  04bc0	e59d3078	 ldr         r3, [sp, #0x78]
  04bc4	e2830018	 add         r0, r3, #0x18
  04bc8	eb000000	 bl          |?RawObjectIndex@?$CStaticContainer@VBulEndpoint@@$0BI@@@QAAPAVBulEndpoint@@K@Z|
  04bcc	e58d0030	 str         r0, [sp, #0x30]
  04bd0	e59d3030	 ldr         r3, [sp, #0x30]
  04bd4	e3530000	 cmp         r3, #0
  04bd8	1a000081	 bne         |$LN8@IsEndpoint@2|

; 968  :         BulEndpoint *pEndpoint = NULL;

  04bdc	e3a03000	 mov         r3, #0
  04be0	e58d300c	 str         r3, [sp, #0xC]

; 969  :         if (dwEndpoint == 0 ) // Endpoint Zero.

  04be4	e59d307c	 ldr         r3, [sp, #0x7C]
  04be8	e3530000	 cmp         r3, #0
  04bec	1a000016	 bne         |$LN7@IsEndpoint@2|

; 970  :              pEndpoint = new BulEndpointZero(this,m_fDoubleBuffer);

  04bf0	e3a00060	 mov         r0, #0x60
  04bf4	eb000000	 bl          |??2@YAPAXI@Z|
  04bf8	e58d0034	 str         r0, [sp, #0x34]
  04bfc	e59d3034	 ldr         r3, [sp, #0x34]
  04c00	e58d3010	 str         r3, [sp, #0x10]
  04c04	e59d3010	 ldr         r3, [sp, #0x10]
  04c08	e3530000	 cmp         r3, #0
  04c0c	0a000009	 beq         |$LN15@IsEndpoint@2|
  04c10	e59d3078	 ldr         r3, [sp, #0x78]
  04c14	e28330b0	 add         r3, r3, #0xB0
  04c18	e5932000	 ldr         r2, [r3]
  04c1c	e59d1078	 ldr         r1, [sp, #0x78]
  04c20	e59d0010	 ldr         r0, [sp, #0x10]
  04c24	eb000000	 bl          |??0BulEndpointZero@@QAA@QAVBulUsbDevice@@H@Z|
  04c28	e58d0038	 str         r0, [sp, #0x38]
  04c2c	e59d3038	 ldr         r3, [sp, #0x38]
  04c30	e58d303c	 str         r3, [sp, #0x3C]
  04c34	ea000001	 b           |$LN16@IsEndpoint@2|
  04c38		 |$LN15@IsEndpoint@2|
  04c38	e3a03000	 mov         r3, #0
  04c3c	e58d303c	 str         r3, [sp, #0x3C]
  04c40		 |$LN16@IsEndpoint@2|
  04c40	e59d303c	 ldr         r3, [sp, #0x3C]
  04c44	e58d300c	 str         r3, [sp, #0xC]

; 971  :         else {

  04c48	ea000033	 b           |$LN6@IsEndpoint@2|
  04c4c		 |$LN7@IsEndpoint@2|

; 972  :             if ( (pEndpointDesc->bEndpointAddress & 0x80)!=0) 

  04c4c	e59d3084	 ldr         r3, [sp, #0x84]
  04c50	e2833002	 add         r3, r3, #2
  04c54	e5d33000	 ldrb        r3, [r3]
  04c58	e3130080	 tst         r3, #0x80
  04c5c	0a000017	 beq         |$LN5@IsEndpoint@2|

; 973  :                 pEndpoint = new BulEndpointIn(this,dwEndpoint,m_fDoubleBuffer);

  04c60	e3a00040	 mov         r0, #0x40
  04c64	eb000000	 bl          |??2@YAPAXI@Z|
  04c68	e58d0040	 str         r0, [sp, #0x40]
  04c6c	e59d3040	 ldr         r3, [sp, #0x40]
  04c70	e58d3014	 str         r3, [sp, #0x14]
  04c74	e59d3014	 ldr         r3, [sp, #0x14]
  04c78	e3530000	 cmp         r3, #0
  04c7c	0a00000a	 beq         |$LN17@IsEndpoint@2|
  04c80	e59d3078	 ldr         r3, [sp, #0x78]
  04c84	e28330b0	 add         r3, r3, #0xB0
  04c88	e5933000	 ldr         r3, [r3]
  04c8c	e59d207c	 ldr         r2, [sp, #0x7C]
  04c90	e59d1078	 ldr         r1, [sp, #0x78]
  04c94	e59d0014	 ldr         r0, [sp, #0x14]
  04c98	eb000000	 bl          |??0BulEndpointIn@@QAA@QAVBulUsbDevice@@KH@Z|
  04c9c	e58d0044	 str         r0, [sp, #0x44]
  04ca0	e59d3044	 ldr         r3, [sp, #0x44]
  04ca4	e58d3048	 str         r3, [sp, #0x48]
  04ca8	ea000001	 b           |$LN18@IsEndpoint@2|
  04cac		 |$LN17@IsEndpoint@2|
  04cac	e3a03000	 mov         r3, #0
  04cb0	e58d3048	 str         r3, [sp, #0x48]
  04cb4		 |$LN18@IsEndpoint@2|
  04cb4	e59d3048	 ldr         r3, [sp, #0x48]
  04cb8	e58d300c	 str         r3, [sp, #0xC]

; 974  :             else 

  04cbc	ea000016	 b           |$LN4@IsEndpoint@2|
  04cc0		 |$LN5@IsEndpoint@2|

; 975  :                 pEndpoint = new BulEndpointOut(this,dwEndpoint,m_fDoubleBuffer);

  04cc0	e3a00040	 mov         r0, #0x40
  04cc4	eb000000	 bl          |??2@YAPAXI@Z|
  04cc8	e58d004c	 str         r0, [sp, #0x4C]
  04ccc	e59d304c	 ldr         r3, [sp, #0x4C]
  04cd0	e58d3018	 str         r3, [sp, #0x18]
  04cd4	e59d3018	 ldr         r3, [sp, #0x18]
  04cd8	e3530000	 cmp         r3, #0
  04cdc	0a00000a	 beq         |$LN19@IsEndpoint@2|
  04ce0	e59d3078	 ldr         r3, [sp, #0x78]
  04ce4	e28330b0	 add         r3, r3, #0xB0
  04ce8	e5933000	 ldr         r3, [r3]
  04cec	e59d207c	 ldr         r2, [sp, #0x7C]
  04cf0	e59d1078	 ldr         r1, [sp, #0x78]
  04cf4	e59d0018	 ldr         r0, [sp, #0x18]
  04cf8	eb000000	 bl          |??0BulEndpointOut@@QAA@QAVBulUsbDevice@@KH@Z|
  04cfc	e58d0050	 str         r0, [sp, #0x50]
  04d00	e59d3050	 ldr         r3, [sp, #0x50]
  04d04	e58d3054	 str         r3, [sp, #0x54]
  04d08	ea000001	 b           |$LN20@IsEndpoint@2|
  04d0c		 |$LN19@IsEndpoint@2|
  04d0c	e3a03000	 mov         r3, #0
  04d10	e58d3054	 str         r3, [sp, #0x54]
  04d14		 |$LN20@IsEndpoint@2|
  04d14	e59d3054	 ldr         r3, [sp, #0x54]
  04d18	e58d300c	 str         r3, [sp, #0xC]
  04d1c		 |$LN4@IsEndpoint@2|
  04d1c		 |$LN6@IsEndpoint@2|

; 976  :         }
; 977  :         if (pEndpoint &&  pEndpoint->Init(pEndpointDesc,bConfigurationValue,bInterfaceNumber,bAlternateSetting)) {

  04d1c	e59d300c	 ldr         r3, [sp, #0xC]
  04d20	e3530000	 cmp         r3, #0
  04d24	0a000017	 beq         |$LN3@IsEndpoint@2|
  04d28	e5dd3090	 ldrb        r3, [sp, #0x90]
  04d2c	e58d3000	 str         r3, [sp]
  04d30	e5dd308c	 ldrb        r3, [sp, #0x8C]
  04d34	e5dd2088	 ldrb        r2, [sp, #0x88]
  04d38	e59d1084	 ldr         r1, [sp, #0x84]
  04d3c	e59d000c	 ldr         r0, [sp, #0xC]
  04d40	e5900000	 ldr         r0, [r0]
  04d44	e280e004	 add         lr, r0, #4
  04d48	e59d000c	 ldr         r0, [sp, #0xC]
  04d4c	e59e4000	 ldr         r4, [lr]
  04d50	e1a0e00f	 mov         lr, pc
  04d54	e12fff14	 bx          r4
  04d58	e58d0058	 str         r0, [sp, #0x58]
  04d5c	e59d3058	 ldr         r3, [sp, #0x58]
  04d60	e3530000	 cmp         r3, #0
  04d64	0a000007	 beq         |$LN3@IsEndpoint@2|

; 978  :             dwError = ERROR_SUCCESS;

  04d68	e3a03000	 mov         r3, #0
  04d6c	e58d3008	 str         r3, [sp, #8]

; 979  :             InsertObject(dwEndpoint, pEndpoint) ;

  04d70	e59d200c	 ldr         r2, [sp, #0xC]
  04d74	e59d107c	 ldr         r1, [sp, #0x7C]
  04d78	e59d3078	 ldr         r3, [sp, #0x78]
  04d7c	e2830018	 add         r0, r3, #0x18
  04d80	eb000000	 bl          |?InsertObject@?$CStaticContainer@VBulEndpoint@@$0BI@@@QAAPAVBulEndpoint@@KPAV2@@Z|

; 980  :         }
; 981  :         else {

  04d84	ea000016	 b           |$LN2@IsEndpoint@2|
  04d88		 |$LN3@IsEndpoint@2|

; 982  :             if (pEndpoint) {

  04d88	e59d300c	 ldr         r3, [sp, #0xC]
  04d8c	e3530000	 cmp         r3, #0
  04d90	0a000013	 beq         |$LN1@IsEndpoint@2|

; 983  :                 delete pEndpoint;

  04d94	e59d300c	 ldr         r3, [sp, #0xC]
  04d98	e58d3020	 str         r3, [sp, #0x20]
  04d9c	e59d3020	 ldr         r3, [sp, #0x20]
  04da0	e58d301c	 str         r3, [sp, #0x1C]
  04da4	e59d301c	 ldr         r3, [sp, #0x1C]
  04da8	e3530000	 cmp         r3, #0
  04dac	0a00000a	 beq         |$LN21@IsEndpoint@2|
  04db0	e3a01001	 mov         r1, #1
  04db4	e59d301c	 ldr         r3, [sp, #0x1C]
  04db8	e5933000	 ldr         r3, [r3]
  04dbc	e59d001c	 ldr         r0, [sp, #0x1C]
  04dc0	e5933000	 ldr         r3, [r3]
  04dc4	e1a0e00f	 mov         lr, pc
  04dc8	e12fff13	 bx          r3
  04dcc	e58d005c	 str         r0, [sp, #0x5C]
  04dd0	e59d305c	 ldr         r3, [sp, #0x5C]
  04dd4	e58d3060	 str         r3, [sp, #0x60]
  04dd8	ea000001	 b           |$LN22@IsEndpoint@2|
  04ddc		 |$LN21@IsEndpoint@2|
  04ddc	e3a03000	 mov         r3, #0
  04de0	e58d3060	 str         r3, [sp, #0x60]
  04de4		 |$LN22@IsEndpoint@2|
  04de4		 |$LN1@IsEndpoint@2|
  04de4		 |$LN2@IsEndpoint@2|
  04de4		 |$LN8@IsEndpoint@2|

; 984  :             }
; 985  :         }
; 986  :     }
; 987  :     Unlock();

  04de4	e59d3078	 ldr         r3, [sp, #0x78]
  04de8	e2830018	 add         r0, r3, #0x18
  04dec	eb000000	 bl          |?Unlock@CLockObject@@QAAXXZ|

; 988  :     ASSERT(dwError == ERROR_SUCCESS);

  04df0	e59d3008	 ldr         r3, [sp, #8]
  04df4	e3530000	 cmp         r3, #0
  04df8	1a000002	 bne         |$LN23@IsEndpoint@2|
  04dfc	e3a03001	 mov         r3, #1
  04e00	e58d3064	 str         r3, [sp, #0x64]
  04e04	ea000007	 b           |$LN24@IsEndpoint@2|
  04e08		 |$LN23@IsEndpoint@2|
  04e08	e3a03ff7	 mov         r3, #0xF7, 30
  04e0c	e59f2094	 ldr         r2, [pc, #0x94]
  04e10	e59f108c	 ldr         r1, [pc, #0x8C]
  04e14	e59f0084	 ldr         r0, [pc, #0x84]
  04e18	eb000000	 bl          NKDbgPrintfW
  04e1c	e6000010	 __debugbreak_ce
  04e20	e3a03000	 mov         r3, #0
  04e24	e58d3064	 str         r3, [sp, #0x64]
  04e28		 |$LN24@IsEndpoint@2|

; 989  :     DEBUGMSG(ZONE_FUNCTION, (_T("%s return errorcode = %d --\r\n"), pszFname,dwError));

  04e28	e59f306c	 ldr         r3, [pc, #0x6C]
  04e2c	e5933440	 ldr         r3, [r3, #0x440]
  04e30	e3130a01	 tst         r3, #1, 20
  04e34	0a00000f	 beq         |$LN27@IsEndpoint@2|
  04e38	e59f305c	 ldr         r3, [pc, #0x5C]
  04e3c	e5933440	 ldr         r3, [r3, #0x440]
  04e40	e3130801	 tst         r3, #1, 16
  04e44	0a000004	 beq         |$LN25@IsEndpoint@2|
  04e48	e59d2008	 ldr         r2, [sp, #8]
  04e4c	e59d1004	 ldr         r1, [sp, #4]
  04e50	e59f0040	 ldr         r0, [pc, #0x40]
  04e54	eb000000	 bl          CeLogMsg
  04e58	ea000003	 b           |$LN26@IsEndpoint@2|
  04e5c		 |$LN25@IsEndpoint@2|
  04e5c	e59d2008	 ldr         r2, [sp, #8]
  04e60	e59d1004	 ldr         r1, [sp, #4]
  04e64	e59f002c	 ldr         r0, [pc, #0x2C]
  04e68	eb000000	 bl          NKDbgPrintfW
  04e6c		 |$LN26@IsEndpoint@2|
  04e6c	e3a03001	 mov         r3, #1
  04e70	e58d3068	 str         r3, [sp, #0x68]
  04e74	ea000001	 b           |$LN28@IsEndpoint@2|
  04e78		 |$LN27@IsEndpoint@2|
  04e78	e3a03000	 mov         r3, #0
  04e7c	e58d3068	 str         r3, [sp, #0x68]
  04e80		 |$LN28@IsEndpoint@2|

; 990  :     return dwError;

  04e80	e59d3008	 ldr         r3, [sp, #8]
  04e84	e58d3028	 str         r3, [sp, #0x28]

; 991  : }

  04e88	e59d0028	 ldr         r0, [sp, #0x28]
  04e8c	e28dd06c	 add         sp, sp, #0x6C
  04e90	e89d6010	 ldmia       sp, {r4, sp, lr}
  04e94	e12fff1e	 bx          lr
  04e98		 |$LN32@IsEndpoint@2|
  04e98		 |$LN33@IsEndpoint@2|
  04e98	00000000	 DCD         |??_C@_1DM@ODMIBFJE@?$AA?$CF?$AAs?$AA?5?$AAr?$AAe?$AAt?$AAu?$AAr?$AAn?$AA?5?$AAe?$AAr?$AAr?$AAo?$AAr?$AAc?$AAo?$AAd?$AAe?$AA?5?$AA?$DN?$AA?5?$AA?$CF?$AAd?$AA?5?$AA?9?$AA?9?$AA?$AN?$AA?6?$AA?$AA@|
  04e9c		 |$LN34@IsEndpoint@2|
  04e9c	00000000	 DCD         |dpCurSettings|
  04ea0		 |$LN35@IsEndpoint@2|
  04ea0	00000000	 DCD         |??_C@_1FK@FNONLNGN@?$AA?$CF?$AAs?$AA?3?$AA?5?$AAD?$AAE?$AAB?$AAU?$AAG?$AAC?$AAH?$AAK?$AA?5?$AAf?$AAa?$AAi?$AAl?$AAe?$AAd?$AA?5?$AAi?$AAn?$AA?5?$AAf?$AAi?$AAl?$AAe?$AA?5?$AA?$CF?$AAs?$AA?5?$AAa@|
  04ea4		 |$LN36@IsEndpoint@2|
  04ea4	00000000	 DCD         |??_C@_1BA@LEPJIIOK@?$AAU?$AAn?$AAk?$AAn?$AAo?$AAw?$AAn?$AA?$AA@|
  04ea8		 |$LN37@IsEndpoint@2|
  04ea8	00000000	 DCD         |??_C@_1IO@HHHNJPIB@?$AAC?$AA?3?$AA?2?$AAW?$AAI?$AAN?$AAC?$AAE?$AA6?$AA0?$AA0?$AA?2?$AAP?$AAL?$AAA?$AAT?$AAF?$AAO?$AAR?$AAM?$AA?2?$AAC?$AAO?$AAM?$AAM?$AAO?$AAN?$AA?2?$AAS?$AAR?$AAC?$AA?2@|
  04eac		 |$LN38@IsEndpoint@2|
  04eac	00000000	 DCD         |??_C@_1FE@KDOPKMHC@?$AA?$CF?$AAs?$AA?5?$AAE?$AAn?$AAt?$AAe?$AAr?$AA?4?$AA?5?$AAd?$AAw?$AAE?$AAn?$AAd?$AAp?$AAo?$AAi?$AAn?$AAt?$AA?3?$AA0?$AAx?$AA?$CF?$AAx?$AA?0?$AAS?$AAp?$AAe?$AAe?$AAd?$AA?3@|
  04eb0		 |$LN39@IsEndpoint@2|
  04eb0	00000000	 DCD         |??_C@_1GI@MDBFMHAA@?$AAb?$AAu?$AAl?$AAv?$AAe?$AAr?$AAd?$AAe?$AA_?$AAu?$AAs?$AAb?$AAf?$AAn?$AA?$CB?$AAB?$AAu?$AAl?$AAU?$AAs?$AAb?$AAD?$AAe?$AAv?$AAi?$AAc?$AAe?$AA?3?$AA?3?$AAI?$AAs?$AAE@|
  04eb4		 |$M39245|

			 ENDP  ; |?IsEndpointSupportable@BulUsbDevice@@UAAKKW4_UFN_BUS_SPEED@@PAU_USB_ENDPOINT_DESCRIPTOR@@EEE@Z|, BulUsbDevice::IsEndpointSupportable

	EXPORT	|??_7BulEndpointZero@@6B@| [ DATA ]	; BulEndpointZero::`vftable'
	EXPORT	|??0BulEndpoint@@QAA@QAVBulUsbDevice@@KH@Z| ; BulEndpoint::BulEndpoint
	EXPORT	|?InitEndpoint@BulEndpoint@@UAAKW4_UFN_BUS_SPEED@@PAU_USB_ENDPOINT_DESCRIPTOR@@@Z| ; BulEndpoint::InitEndpoint
	EXPORT	|?DeinitEndpoint@BulEndpoint@@UAAKXZ|	; BulEndpoint::DeinitEndpoint
	IMPORT	|??_EBulEndpointZero@@UAAPAXI@Z|, WEAK |??_GBulEndpointZero@@UAAPAXI@Z| ; BulEndpointZero::`vector deleting destructor', BulEndpointZero::`scalar deleting destructor'
; File c:\wince600\platform\common\src\soc\pxa27x_ms_v1\inc\bul_usbfn.h

  00000			 AREA	 |.pdata|, PDATA
|$T39261| DCD	|$LN5@BulEndpoin|
	DCD	0x40002004

  00000			 AREA	 |.rdata|, DATA, READONLY
|??_7BulEndpointZero@@6B@| DCD |??_EBulEndpointZero@@UAAPAXI@Z| ; BulEndpointZero::`vftable'
	DCD	|?Init@BulEndpointZero@@UAAHPAU_USB_ENDPOINT_DESCRIPTOR@@EEE@Z|
	DCD	|?ReInit@BulEndpointZero@@UAAHXZ|
	DCD	|?InitEndpoint@BulEndpoint@@UAAKW4_UFN_BUS_SPEED@@PAU_USB_ENDPOINT_DESCRIPTOR@@@Z|
	DCD	|?DeinitEndpoint@BulEndpoint@@UAAKXZ|
	DCD	|?StallEndpoint@BulEndpoint@@UAAKXZ|
	DCD	|?ClearEndpointStall@BulEndpoint@@UAAKXZ|
	DCD	|?ResetEndpoint@BulEndpointZero@@UAAKXZ|
	DCD	|?IsEndpointHalted@BulEndpoint@@UAAKPAH@Z|
	DCD	|?IssueTransfer@BulEndpointZero@@UAAKPAU_STransfer@@@Z|
	DCD	|?AbortTransfer@BulEndpoint@@UAAKPAU_STransfer@@@Z|
	DCD	|?SendControlStatusHandshake@BulEndpointZero@@UAAKXZ|
	DCD	|?IST@BulEndpointZero@@UAAKK@Z|
; Function compile flags: /Odtp

  00000			 AREA	 |.text|, CODE, ARM

  00000		 |??0BulEndpointZero@@QAA@QAVBulUsbDevice@@H@Z| PROC ; BulEndpointZero::BulEndpointZero

; 378  :     {

  00000		 |$LN5@BulEndpoin|
  00000	e1a0c00d	 mov         r12, sp
  00004	e92d0007	 stmdb       sp!, {r0 - r2}
  00008	e92d5000	 stmdb       sp!, {r12, lr}
  0000c	e24dd008	 sub         sp, sp, #8
  00010		 |$M39258|
  00010	e59d3018	 ldr         r3, [sp, #0x18]
  00014	e3a02000	 mov         r2, #0
  00018	e59d1014	 ldr         r1, [sp, #0x14]
  0001c	e59d0010	 ldr         r0, [sp, #0x10]
  00020	eb000000	 bl          |??0BulEndpoint@@QAA@QAVBulUsbDevice@@KH@Z|
  00024	e58d0004	 str         r0, [sp, #4]
  00028	e59f204c	 ldr         r2, [pc, #0x4C]
  0002c	e59d3010	 ldr         r3, [sp, #0x10]
  00030	e5832000	 str         r2, [r3]

; 379  :         m_bNeedAck = FALSE;

  00034	e59d3010	 ldr         r3, [sp, #0x10]
  00038	e2832040	 add         r2, r3, #0x40
  0003c	e3a03000	 mov         r3, #0
  00040	e5823000	 str         r3, [r2]

; 380  :         m_bSetupDirIn = FALSE;

  00044	e59d3010	 ldr         r3, [sp, #0x10]
  00048	e2832044	 add         r2, r3, #0x44
  0004c	e3a03000	 mov         r3, #0
  00050	e5823000	 str         r3, [r2]

; 381  :         m_fInIST = FALSE;

  00054	e59d3010	 ldr         r3, [sp, #0x10]
  00058	e2832048	 add         r2, r3, #0x48
  0005c	e3a03000	 mov         r3, #0
  00060	e5823000	 str         r3, [r2]

; 382  :     }

  00064	e59d3010	 ldr         r3, [sp, #0x10]
  00068	e58d3000	 str         r3, [sp]
  0006c	e59d0000	 ldr         r0, [sp]
  00070	e28dd008	 add         sp, sp, #8
  00074	e89d6000	 ldmia       sp, {sp, lr}
  00078	e12fff1e	 bx          lr
  0007c		 |$LN6@BulEndpoin|
  0007c		 |$LN7@BulEndpoin|
  0007c	00000000	 DCD         |??_7BulEndpointZero@@6B@|
  00080		 |$M39259|

			 ENDP  ; |??0BulEndpointZero@@QAA@QAVBulUsbDevice@@H@Z|, BulEndpointZero::BulEndpointZero

	EXPORT	|??_7BulEndpoint@@6B@| [ DATA ]		; BulEndpoint::`vftable'
	EXPORT	|??0CRefObject@@QAA@XZ|			; CRefObject::CRefObject
	EXPORT	|?SendControlStatusHandshake@BulEndpoint@@UAAKXZ| ; BulEndpoint::SendControlStatusHandshake
	IMPORT	|??_EBulEndpoint@@UAAPAXI@Z|, WEAK |??_GBulEndpoint@@UAAPAXI@Z| ; BulEndpoint::`vector deleting destructor', BulEndpoint::`scalar deleting destructor'

  00000			 AREA	 |.pdata|, PDATA
|$T39271| DCD	|$LN5@BulEndpoin@2|
	DCD	0x40002504

  00000			 AREA	 |.rdata|, DATA, READONLY
|??_7BulEndpoint@@6B@| DCD |??_EBulEndpoint@@UAAPAXI@Z|	; BulEndpoint::`vftable'
	DCD	|?Init@BulEndpoint@@UAAHPAU_USB_ENDPOINT_DESCRIPTOR@@EEE@Z|
	DCD	|?ReInit@BulEndpoint@@UAAHXZ|
	DCD	|?InitEndpoint@BulEndpoint@@UAAKW4_UFN_BUS_SPEED@@PAU_USB_ENDPOINT_DESCRIPTOR@@@Z|
	DCD	|?DeinitEndpoint@BulEndpoint@@UAAKXZ|
	DCD	|?StallEndpoint@BulEndpoint@@UAAKXZ|
	DCD	|?ClearEndpointStall@BulEndpoint@@UAAKXZ|
	DCD	|?ResetEndpoint@BulEndpoint@@UAAKXZ|
	DCD	|?IsEndpointHalted@BulEndpoint@@UAAKPAH@Z|
	DCD	|?IssueTransfer@BulEndpoint@@UAAKPAU_STransfer@@@Z|
	DCD	|?AbortTransfer@BulEndpoint@@UAAKPAU_STransfer@@@Z|
	DCD	|?SendControlStatusHandshake@BulEndpoint@@UAAKXZ|
	DCD	|_purecall|
; Function compile flags: /Odtp

  00000			 AREA	 |.text|, CODE, ARM

  00000		 |??0BulEndpoint@@QAA@QAVBulUsbDevice@@KH@Z| PROC ; BulEndpoint::BulEndpoint

; 265  :     {

  00000		 |$LN5@BulEndpoin@2|
  00000	e1a0c00d	 mov         r12, sp
  00004	e92d000f	 stmdb       sp!, {r0 - r3}
  00008	e92d5000	 stmdb       sp!, {r12, lr}
  0000c	e24dd00c	 sub         sp, sp, #0xC
  00010		 |$M39268|
  00010	e59d0014	 ldr         r0, [sp, #0x14]
  00014	eb000000	 bl          |??0CRefObject@@QAA@XZ|
  00018	e58d0004	 str         r0, [sp, #4]
  0001c	e59d3014	 ldr         r3, [sp, #0x14]
  00020	e2830008	 add         r0, r3, #8
  00024	eb000000	 bl          |??0CLockObject@@QAA@XZ|
  00028	e58d0008	 str         r0, [sp, #8]
  0002c	e59f205c	 ldr         r2, [pc, #0x5C]
  00030	e59d3014	 ldr         r3, [sp, #0x14]
  00034	e5832000	 str         r2, [r3]
  00038	e59d3014	 ldr         r3, [sp, #0x14]
  0003c	e283201c	 add         r2, r3, #0x1C
  00040	e59d3018	 ldr         r3, [sp, #0x18]
  00044	e5823000	 str         r3, [r2]
  00048	e59d3014	 ldr         r3, [sp, #0x14]
  0004c	e2832020	 add         r2, r3, #0x20
  00050	e59d301c	 ldr         r3, [sp, #0x1C]
  00054	e5823000	 str         r3, [r2]
  00058	e59d3014	 ldr         r3, [sp, #0x14]
  0005c	e2832030	 add         r2, r3, #0x30
  00060	e59d3020	 ldr         r3, [sp, #0x20]
  00064	e5823000	 str         r3, [r2]

; 266  :         m_pCurTransfer = NULL;

  00068	e59d3014	 ldr         r3, [sp, #0x14]
  0006c	e2832034	 add         r2, r3, #0x34
  00070	e3a03000	 mov         r3, #0
  00074	e5823000	 str         r3, [r2]

; 267  :     }

  00078	e59d3014	 ldr         r3, [sp, #0x14]
  0007c	e58d3000	 str         r3, [sp]
  00080	e59d0000	 ldr         r0, [sp]
  00084	e28dd00c	 add         sp, sp, #0xC
  00088	e89d6000	 ldmia       sp, {sp, lr}
  0008c	e12fff1e	 bx          lr
  00090		 |$LN6@BulEndpoin@2|
  00090		 |$LN7@BulEndpoin@2|
  00090	00000000	 DCD         |??_7BulEndpoint@@6B@|
  00094		 |$M39269|

			 ENDP  ; |??0BulEndpoint@@QAA@QAVBulUsbDevice@@KH@Z|, BulEndpoint::BulEndpoint

	EXPORT	|??_7CRefObject@@6B@| [ DATA ]		; CRefObject::`vftable'
	IMPORT	|??_ECRefObject@@UAAPAXI@Z|, WEAK |??_GCRefObject@@UAAPAXI@Z| ; CRefObject::`vector deleting destructor', CRefObject::`scalar deleting destructor'
; File c:\wince600\public\common\oak\inc\crefcon.h

  00000			 AREA	 |.pdata|, PDATA
|$T39281| DCD	|$LN5@CRefObject|
	DCD	0x40001204

  00000			 AREA	 |.rdata|, DATA, READONLY
|??_7CRefObject@@6B@| DCD |??_ECRefObject@@UAAPAXI@Z|	; CRefObject::`vftable'
; Function compile flags: /Odtp

  00000			 AREA	 |.text|, CODE, ARM

  00000		 |??0CRefObject@@QAA@XZ| PROC		; CRefObject::CRefObject

; 35   :     CRefObject()

  00000		 |$LN5@CRefObject|
  00000	e1a0c00d	 mov         r12, sp
  00004	e92d0001	 stmdb       sp!, {r0}
  00008	e92d5000	 stmdb       sp!, {r12, lr}
  0000c	e24dd004	 sub         sp, sp, #4
  00010		 |$M39278|
  00010	e59f202c	 ldr         r2, [pc, #0x2C]
  00014	e59d300c	 ldr         r3, [sp, #0xC]
  00018	e5832000	 str         r2, [r3]

; 36   :     {
; 37   :         m_lRefCount = 0;

  0001c	e59d300c	 ldr         r3, [sp, #0xC]
  00020	e2832004	 add         r2, r3, #4
  00024	e3a03000	 mov         r3, #0
  00028	e5823000	 str         r3, [r2]

; 38   :     };

  0002c	e59d300c	 ldr         r3, [sp, #0xC]
  00030	e58d3000	 str         r3, [sp]
  00034	e59d0000	 ldr         r0, [sp]
  00038	e28dd004	 add         sp, sp, #4
  0003c	e89d6000	 ldmia       sp, {sp, lr}
  00040	e12fff1e	 bx          lr
  00044		 |$LN6@CRefObject|
  00044		 |$LN7@CRefObject|
  00044	00000000	 DCD         |??_7CRefObject@@6B@|
  00048		 |$M39279|

			 ENDP  ; |??0CRefObject@@QAA@XZ|, CRefObject::CRefObject

	EXPORT	|??1CRefObject@@UAA@XZ|			; CRefObject::~CRefObject

  00000			 AREA	 |.pdata|, PDATA
|$T39291| DCD	|$LN6@scalar@3|
	DCD	0x40001104
; Function compile flags: /Odtp

  00000			 AREA	 |.text|, CODE, ARM

  00000		 |??_GCRefObject@@UAAPAXI@Z| PROC	; CRefObject::`scalar deleting destructor'
  00000		 |$LN6@scalar@3|
  00000	e1a0c00d	 mov         r12, sp
  00004	e92d0003	 stmdb       sp!, {r0, r1}
  00008	e92d5000	 stmdb       sp!, {r12, lr}
  0000c	e24dd004	 sub         sp, sp, #4
  00010		 |$M39288|
  00010	e59d000c	 ldr         r0, [sp, #0xC]
  00014	eb000000	 bl          |??1CRefObject@@UAA@XZ|
  00018	e59d3010	 ldr         r3, [sp, #0x10]
  0001c	e3130001	 tst         r3, #1
  00020	0a000001	 beq         |$LN1@scalar@3|
  00024	e59d000c	 ldr         r0, [sp, #0xC]
  00028	eb000000	 bl          |??3@YAXPAX@Z|
  0002c		 |$LN1@scalar@3|
  0002c	e59d300c	 ldr         r3, [sp, #0xC]
  00030	e58d3000	 str         r3, [sp]
  00034	e59d0000	 ldr         r0, [sp]
  00038	e28dd004	 add         sp, sp, #4
  0003c	e89d6000	 ldmia       sp, {sp, lr}
  00040	e12fff1e	 bx          lr
  00044		 |$M39289|

			 ENDP  ; |??_GCRefObject@@UAAPAXI@Z|, CRefObject::`scalar deleting destructor'


  00000			 AREA	 |.pdata|, PDATA
|$T39298| DCD	|$LN5@CRefObject@2|
	DCD	0x40000903
; Function compile flags: /Odtp

  00000			 AREA	 |.text|, CODE, ARM

  00000		 |??1CRefObject@@UAA@XZ| PROC		; CRefObject::~CRefObject

; 40   :     {

  00000		 |$LN5@CRefObject@2|
  00000	e1a0c00d	 mov         r12, sp
  00004	e92d0001	 stmdb       sp!, {r0}
  00008	e92d5000	 stmdb       sp!, {r12, lr}
  0000c		 |$M39295|
  0000c	e59f200c	 ldr         r2, [pc, #0xC]
  00010	e59d3008	 ldr         r3, [sp, #8]
  00014	e5832000	 str         r2, [r3]

; 41   :         ;};

  00018	e89d6000	 ldmia       sp, {sp, lr}
  0001c	e12fff1e	 bx          lr
  00020		 |$LN6@CRefObject@2|
  00020		 |$LN7@CRefObject@2|
  00020	00000000	 DCD         |??_7CRefObject@@6B@|
  00024		 |$M39296|

			 ENDP  ; |??1CRefObject@@UAA@XZ|, CRefObject::~CRefObject

; File c:\wince600\platform\common\src\soc\pxa27x_ms_v1\inc\bul_usbfn.h

  00000			 AREA	 |.pdata|, PDATA
|$T39310| DCD	|$LN7@InitEndpoi|
	DCD	0x40002204
; Function compile flags: /Odtp

  00000			 AREA	 |.text|, CODE, ARM

  00000		 |?InitEndpoint@BulEndpoint@@UAAKW4_UFN_BUS_SPEED@@PAU_USB_ENDPOINT_DESCRIPTOR@@@Z| PROC ; BulEndpoint::InitEndpoint

; 339  :     virtual DWORD InitEndpoint(UFN_BUS_SPEED Speed,PUSB_ENDPOINT_DESCRIPTOR pEndpointDesc) {

  00000		 |$LN7@InitEndpoi|
  00000	e1a0c00d	 mov         r12, sp
  00004	e92d0007	 stmdb       sp!, {r0 - r2}
  00008	e92d5000	 stmdb       sp!, {r12, lr}
  0000c	e24dd00c	 sub         sp, sp, #0xC
  00010		 |$M39307|

; 340  :         // We should Reset the EndPoint and clear FIFO
; 341  :         ResetEndpoint();

  00010	e59d3014	 ldr         r3, [sp, #0x14]
  00014	e5933000	 ldr         r3, [r3]
  00018	e283301c	 add         r3, r3, #0x1C
  0001c	e59d0014	 ldr         r0, [sp, #0x14]
  00020	e5933000	 ldr         r3, [r3]
  00024	e1a0e00f	 mov         lr, pc
  00028	e12fff13	 bx          r3

; 342  :         return (m_pUsbDevice->EnableEndpointInterrupt(m_dwEndpointIndex,TRUE)?ERROR_SUCCESS:ERROR_GEN_FAILURE);

  0002c	e3a02001	 mov         r2, #1
  00030	e59d3014	 ldr         r3, [sp, #0x14]
  00034	e2833020	 add         r3, r3, #0x20
  00038	e5931000	 ldr         r1, [r3]
  0003c	e59d3014	 ldr         r3, [sp, #0x14]
  00040	e283301c	 add         r3, r3, #0x1C
  00044	e5930000	 ldr         r0, [r3]
  00048	eb000000	 bl          |?EnableEndpointInterrupt@BulUsbDevice@@QAAHKH@Z|
  0004c	e58d0004	 str         r0, [sp, #4]
  00050	e59d3004	 ldr         r3, [sp, #4]
  00054	e3530000	 cmp         r3, #0
  00058	0a000002	 beq         |$LN3@InitEndpoi|
  0005c	e3a03000	 mov         r3, #0
  00060	e58d3008	 str         r3, [sp, #8]
  00064	ea000001	 b           |$LN4@InitEndpoi|
  00068		 |$LN3@InitEndpoi|
  00068	e3a0301f	 mov         r3, #0x1F
  0006c	e58d3008	 str         r3, [sp, #8]
  00070		 |$LN4@InitEndpoi|
  00070	e59d3008	 ldr         r3, [sp, #8]
  00074	e58d3000	 str         r3, [sp]

; 343  :     }

  00078	e59d0000	 ldr         r0, [sp]
  0007c	e28dd00c	 add         sp, sp, #0xC
  00080	e89d6000	 ldmia       sp, {sp, lr}
  00084	e12fff1e	 bx          lr
  00088		 |$M39308|

			 ENDP  ; |?InitEndpoint@BulEndpoint@@UAAKW4_UFN_BUS_SPEED@@PAU_USB_ENDPOINT_DESCRIPTOR@@@Z|, BulEndpoint::InitEndpoint


  00000			 AREA	 |.pdata|, PDATA
|$T39320| DCD	|$LN7@DeinitEndp|
	DCD	0x40001b04
; Function compile flags: /Odtp

  00000			 AREA	 |.text|, CODE, ARM

  00000		 |?DeinitEndpoint@BulEndpoint@@UAAKXZ| PROC ; BulEndpoint::DeinitEndpoint

; 344  :     virtual DWORD DeinitEndpoint() {

  00000		 |$LN7@DeinitEndp|
  00000	e1a0c00d	 mov         r12, sp
  00004	e92d0001	 stmdb       sp!, {r0}
  00008	e92d5000	 stmdb       sp!, {r12, lr}
  0000c	e24dd00c	 sub         sp, sp, #0xC
  00010		 |$M39317|

; 345  :         return (m_pUsbDevice->EnableEndpointInterrupt(m_dwEndpointIndex,FALSE)?ERROR_SUCCESS:ERROR_GEN_FAILURE);

  00010	e3a02000	 mov         r2, #0
  00014	e59d3014	 ldr         r3, [sp, #0x14]
  00018	e2833020	 add         r3, r3, #0x20
  0001c	e5931000	 ldr         r1, [r3]
  00020	e59d3014	 ldr         r3, [sp, #0x14]
  00024	e283301c	 add         r3, r3, #0x1C
  00028	e5930000	 ldr         r0, [r3]
  0002c	eb000000	 bl          |?EnableEndpointInterrupt@BulUsbDevice@@QAAHKH@Z|
  00030	e58d0004	 str         r0, [sp, #4]
  00034	e59d3004	 ldr         r3, [sp, #4]
  00038	e3530000	 cmp         r3, #0
  0003c	0a000002	 beq         |$LN3@DeinitEndp|
  00040	e3a03000	 mov         r3, #0
  00044	e58d3008	 str         r3, [sp, #8]
  00048	ea000001	 b           |$LN4@DeinitEndp|
  0004c		 |$LN3@DeinitEndp|
  0004c	e3a0301f	 mov         r3, #0x1F
  00050	e58d3008	 str         r3, [sp, #8]
  00054		 |$LN4@DeinitEndp|
  00054	e59d3008	 ldr         r3, [sp, #8]
  00058	e58d3000	 str         r3, [sp]

; 346  :     }

  0005c	e59d0000	 ldr         r0, [sp]
  00060	e28dd00c	 add         sp, sp, #0xC
  00064	e89d6000	 ldmia       sp, {sp, lr}
  00068	e12fff1e	 bx          lr
  0006c		 |$M39318|

			 ENDP  ; |?DeinitEndpoint@BulEndpoint@@UAAKXZ|, BulEndpoint::DeinitEndpoint


  00000			 AREA	 |.pdata|, PDATA
|$T39328| DCD	|$LN5@SendContro@2|
	DCD	0x40000a04
; Function compile flags: /Odtp

  00000			 AREA	 |.text|, CODE, ARM

  00000		 |?SendControlStatusHandshake@BulEndpoint@@UAAKXZ| PROC ; BulEndpoint::SendControlStatusHandshake

; 353  :     virtual DWORD SendControlStatusHandshake() { return ERROR_INVALID_PARAMETER; };

  00000		 |$LN5@SendContro@2|
  00000	e1a0c00d	 mov         r12, sp
  00004	e92d0001	 stmdb       sp!, {r0}
  00008	e92d5000	 stmdb       sp!, {r12, lr}
  0000c	e24dd004	 sub         sp, sp, #4
  00010		 |$M39325|
  00010	e3a03057	 mov         r3, #0x57
  00014	e58d3000	 str         r3, [sp]
  00018	e59d0000	 ldr         r0, [sp]
  0001c	e28dd004	 add         sp, sp, #4
  00020	e89d6000	 ldmia       sp, {sp, lr}
  00024	e12fff1e	 bx          lr
  00028		 |$M39326|

			 ENDP  ; |?SendControlStatusHandshake@BulEndpoint@@UAAKXZ|, BulEndpoint::SendControlStatusHandshake

	EXPORT	|??1BulEndpoint@@UAA@XZ|		; BulEndpoint::~BulEndpoint

  00000			 AREA	 |.pdata|, PDATA
|$T39336| DCD	|$LN6@scalar@4|
	DCD	0x40001104
; Function compile flags: /Odtp

  00000			 AREA	 |.text|, CODE, ARM

  00000		 |??_GBulEndpoint@@UAAPAXI@Z| PROC	; BulEndpoint::`scalar deleting destructor'
  00000		 |$LN6@scalar@4|
  00000	e1a0c00d	 mov         r12, sp
  00004	e92d0003	 stmdb       sp!, {r0, r1}
  00008	e92d5000	 stmdb       sp!, {r12, lr}
  0000c	e24dd004	 sub         sp, sp, #4
  00010		 |$M39333|
  00010	e59d000c	 ldr         r0, [sp, #0xC]
  00014	eb000000	 bl          |??1BulEndpoint@@UAA@XZ|
  00018	e59d3010	 ldr         r3, [sp, #0x10]
  0001c	e3130001	 tst         r3, #1
  00020	0a000001	 beq         |$LN1@scalar@4|
  00024	e59d000c	 ldr         r0, [sp, #0xC]
  00028	eb000000	 bl          |??3@YAXPAX@Z|
  0002c		 |$LN1@scalar@4|
  0002c	e59d300c	 ldr         r3, [sp, #0xC]
  00030	e58d3000	 str         r3, [sp]
  00034	e59d0000	 ldr         r0, [sp]
  00038	e28dd004	 add         sp, sp, #4
  0003c	e89d6000	 ldmia       sp, {sp, lr}
  00040	e12fff1e	 bx          lr
  00044		 |$M39334|

			 ENDP  ; |??_GBulEndpoint@@UAAPAXI@Z|, BulEndpoint::`scalar deleting destructor'


  00000			 AREA	 |.pdata|, PDATA
|$T39345| DCD	|$LN8@BulEndpoin@3|
	DCD	0x40002504
; Function compile flags: /Odtp

  00000			 AREA	 |.text|, CODE, ARM

  00000		 |??1BulEndpoint@@UAA@XZ| PROC		; BulEndpoint::~BulEndpoint

; 268  :     virtual ~BulEndpoint() {

  00000		 |$LN8@BulEndpoin@3|
  00000	e1a0c00d	 mov         r12, sp
  00004	e92d0001	 stmdb       sp!, {r0}
  00008	e92d5000	 stmdb       sp!, {r12, lr}
  0000c	e24dd004	 sub         sp, sp, #4
  00010		 |$M39342|
  00010	e59f2078	 ldr         r2, [pc, #0x78]
  00014	e59d300c	 ldr         r3, [sp, #0xC]
  00018	e5832000	 str         r2, [r3]

; 269  :         if (m_pUsbDevice)

  0001c	e59d300c	 ldr         r3, [sp, #0xC]
  00020	e283301c	 add         r3, r3, #0x1C
  00024	e5933000	 ldr         r3, [r3]
  00028	e3530000	 cmp         r3, #0
  0002c	0a000007	 beq         |$LN1@BulEndpoin@3|

; 270  :             m_pUsbDevice->EnableEndpointInterrupt(m_dwEndpointIndex,FALSE);

  00030	e3a02000	 mov         r2, #0
  00034	e59d300c	 ldr         r3, [sp, #0xC]
  00038	e2833020	 add         r3, r3, #0x20
  0003c	e5931000	 ldr         r1, [r3]
  00040	e59d300c	 ldr         r3, [sp, #0xC]
  00044	e283301c	 add         r3, r3, #0x1C
  00048	e5930000	 ldr         r0, [r3]
  0004c	eb000000	 bl          |?EnableEndpointInterrupt@BulUsbDevice@@QAAHKH@Z|
  00050		 |$LN1@BulEndpoin@3|

; 271  :     }

  00050	e59d300c	 ldr         r3, [sp, #0xC]
  00054	e3530000	 cmp         r3, #0
  00058	0a000003	 beq         |$LN4@BulEndpoin@3|
  0005c	e59d300c	 ldr         r3, [sp, #0xC]
  00060	e2833008	 add         r3, r3, #8
  00064	e58d3000	 str         r3, [sp]
  00068	ea000001	 b           |$LN5@BulEndpoin@3|
  0006c		 |$LN4@BulEndpoin@3|
  0006c	e3a03000	 mov         r3, #0
  00070	e58d3000	 str         r3, [sp]
  00074		 |$LN5@BulEndpoin@3|
  00074	e59d0000	 ldr         r0, [sp]
  00078	eb000000	 bl          |??1CLockObject@@QAA@XZ|
  0007c	e59d000c	 ldr         r0, [sp, #0xC]
  00080	eb000000	 bl          |??1CRefObject@@UAA@XZ|
  00084	e28dd004	 add         sp, sp, #4
  00088	e89d6000	 ldmia       sp, {sp, lr}
  0008c	e12fff1e	 bx          lr
  00090		 |$LN9@BulEndpoin@3|
  00090		 |$LN10@BulEndpoin@3|
  00090	00000000	 DCD         |??_7BulEndpoint@@6B@|
  00094		 |$M39343|

			 ENDP  ; |??1BulEndpoint@@UAA@XZ|, BulEndpoint::~BulEndpoint

	EXPORT	|??1BulEndpointZero@@UAA@XZ|		; BulEndpointZero::~BulEndpointZero

  00000			 AREA	 |.pdata|, PDATA
|$T39355| DCD	|$LN6@scalar@5|
	DCD	0x40001104
; Function compile flags: /Odtp

  00000			 AREA	 |.text|, CODE, ARM

  00000		 |??_GBulEndpointZero@@UAAPAXI@Z| PROC	; BulEndpointZero::`scalar deleting destructor'
  00000		 |$LN6@scalar@5|
  00000	e1a0c00d	 mov         r12, sp
  00004	e92d0003	 stmdb       sp!, {r0, r1}
  00008	e92d5000	 stmdb       sp!, {r12, lr}
  0000c	e24dd004	 sub         sp, sp, #4
  00010		 |$M39352|
  00010	e59d000c	 ldr         r0, [sp, #0xC]
  00014	eb000000	 bl          |??1BulEndpointZero@@UAA@XZ|
  00018	e59d3010	 ldr         r3, [sp, #0x10]
  0001c	e3130001	 tst         r3, #1
  00020	0a000001	 beq         |$LN1@scalar@5|
  00024	e59d000c	 ldr         r0, [sp, #0xC]
  00028	eb000000	 bl          |??3@YAXPAX@Z|
  0002c		 |$LN1@scalar@5|
  0002c	e59d300c	 ldr         r3, [sp, #0xC]
  00030	e58d3000	 str         r3, [sp]
  00034	e59d0000	 ldr         r0, [sp]
  00038	e28dd004	 add         sp, sp, #4
  0003c	e89d6000	 ldmia       sp, {sp, lr}
  00040	e12fff1e	 bx          lr
  00044		 |$M39353|

			 ENDP  ; |??_GBulEndpointZero@@UAAPAXI@Z|, BulEndpointZero::`scalar deleting destructor'


  00000			 AREA	 |.pdata|, PDATA
|$T39362| DCD	|$LN5@BulEndpoin@4|
	DCD	0x40000703
; Function compile flags: /Odtp

  00000			 AREA	 |.text|, CODE, ARM

  00000		 |??1BulEndpointZero@@UAA@XZ| PROC	; BulEndpointZero::~BulEndpointZero
  00000		 |$LN5@BulEndpoin@4|
  00000	e1a0c00d	 mov         r12, sp
  00004	e92d0001	 stmdb       sp!, {r0}
  00008	e92d5000	 stmdb       sp!, {r12, lr}
  0000c		 |$M39359|
  0000c	e59d0008	 ldr         r0, [sp, #8]
  00010	eb000000	 bl          |??1BulEndpoint@@UAA@XZ|
  00014	e89d6000	 ldmia       sp, {sp, lr}
  00018	e12fff1e	 bx          lr
  0001c		 |$M39360|

			 ENDP  ; |??1BulEndpointZero@@UAA@XZ|, BulEndpointZero::~BulEndpointZero

	EXPORT	|??_7BulEndpointIn@@6B@| [ DATA ]	; BulEndpointIn::`vftable'
	IMPORT	|??_EBulEndpointIn@@UAAPAXI@Z|, WEAK |??_GBulEndpointIn@@UAAPAXI@Z| ; BulEndpointIn::`vector deleting destructor', BulEndpointIn::`scalar deleting destructor'

  00000			 AREA	 |.pdata|, PDATA
|$T39370| DCD	|$LN5@BulEndpoin@5|
	DCD	0x40001404

  00000			 AREA	 |.rdata|, DATA, READONLY
|??_7BulEndpointIn@@6B@| DCD |??_EBulEndpointIn@@UAAPAXI@Z| ; BulEndpointIn::`vftable'
	DCD	|?Init@BulEndpoint@@UAAHPAU_USB_ENDPOINT_DESCRIPTOR@@EEE@Z|
	DCD	|?ReInit@BulEndpoint@@UAAHXZ|
	DCD	|?InitEndpoint@BulEndpoint@@UAAKW4_UFN_BUS_SPEED@@PAU_USB_ENDPOINT_DESCRIPTOR@@@Z|
	DCD	|?DeinitEndpoint@BulEndpoint@@UAAKXZ|
	DCD	|?StallEndpoint@BulEndpoint@@UAAKXZ|
	DCD	|?ClearEndpointStall@BulEndpoint@@UAAKXZ|
	DCD	|?ResetEndpoint@BulEndpoint@@UAAKXZ|
	DCD	|?IsEndpointHalted@BulEndpoint@@UAAKPAH@Z|
	DCD	|?IssueTransfer@BulEndpoint@@UAAKPAU_STransfer@@@Z|
	DCD	|?AbortTransfer@BulEndpoint@@UAAKPAU_STransfer@@@Z|
	DCD	|?SendControlStatusHandshake@BulEndpoint@@UAAKXZ|
	DCD	|?IST@BulEndpointIn@@UAAKK@Z|
; Function compile flags: /Odtp

  00000			 AREA	 |.text|, CODE, ARM

  00000		 |??0BulEndpointIn@@QAA@QAVBulUsbDevice@@KH@Z| PROC ; BulEndpointIn::BulEndpointIn

; 405  :     {;

  00000		 |$LN5@BulEndpoin@5|
  00000	e1a0c00d	 mov         r12, sp
  00004	e92d000f	 stmdb       sp!, {r0 - r3}
  00008	e92d5000	 stmdb       sp!, {r12, lr}
  0000c	e24dd008	 sub         sp, sp, #8
  00010		 |$M39367|
  00010	e59d301c	 ldr         r3, [sp, #0x1C]
  00014	e59d2018	 ldr         r2, [sp, #0x18]
  00018	e59d1014	 ldr         r1, [sp, #0x14]
  0001c	e59d0010	 ldr         r0, [sp, #0x10]
  00020	eb000000	 bl          |??0BulEndpoint@@QAA@QAVBulUsbDevice@@KH@Z|
  00024	e58d0004	 str         r0, [sp, #4]
  00028	e59f201c	 ldr         r2, [pc, #0x1C]
  0002c	e59d3010	 ldr         r3, [sp, #0x10]
  00030	e5832000	 str         r2, [r3]

; 406  :     }

  00034	e59d3010	 ldr         r3, [sp, #0x10]
  00038	e58d3000	 str         r3, [sp]
  0003c	e59d0000	 ldr         r0, [sp]
  00040	e28dd008	 add         sp, sp, #8
  00044	e89d6000	 ldmia       sp, {sp, lr}
  00048	e12fff1e	 bx          lr
  0004c		 |$LN6@BulEndpoin@5|
  0004c		 |$LN7@BulEndpoin@5|
  0004c	00000000	 DCD         |??_7BulEndpointIn@@6B@|
  00050		 |$M39368|

			 ENDP  ; |??0BulEndpointIn@@QAA@QAVBulUsbDevice@@KH@Z|, BulEndpointIn::BulEndpointIn

	EXPORT	|??1BulEndpointIn@@UAA@XZ|		; BulEndpointIn::~BulEndpointIn

  00000			 AREA	 |.pdata|, PDATA
|$T39380| DCD	|$LN6@scalar@6|
	DCD	0x40001104
; Function compile flags: /Odtp

  00000			 AREA	 |.text|, CODE, ARM

  00000		 |??_GBulEndpointIn@@UAAPAXI@Z| PROC	; BulEndpointIn::`scalar deleting destructor'
  00000		 |$LN6@scalar@6|
  00000	e1a0c00d	 mov         r12, sp
  00004	e92d0003	 stmdb       sp!, {r0, r1}
  00008	e92d5000	 stmdb       sp!, {r12, lr}
  0000c	e24dd004	 sub         sp, sp, #4
  00010		 |$M39377|
  00010	e59d000c	 ldr         r0, [sp, #0xC]
  00014	eb000000	 bl          |??1BulEndpointIn@@UAA@XZ|
  00018	e59d3010	 ldr         r3, [sp, #0x10]
  0001c	e3130001	 tst         r3, #1
  00020	0a000001	 beq         |$LN1@scalar@6|
  00024	e59d000c	 ldr         r0, [sp, #0xC]
  00028	eb000000	 bl          |??3@YAXPAX@Z|
  0002c		 |$LN1@scalar@6|
  0002c	e59d300c	 ldr         r3, [sp, #0xC]
  00030	e58d3000	 str         r3, [sp]
  00034	e59d0000	 ldr         r0, [sp]
  00038	e28dd004	 add         sp, sp, #4
  0003c	e89d6000	 ldmia       sp, {sp, lr}
  00040	e12fff1e	 bx          lr
  00044		 |$M39378|

			 ENDP  ; |??_GBulEndpointIn@@UAAPAXI@Z|, BulEndpointIn::`scalar deleting destructor'


  00000			 AREA	 |.pdata|, PDATA
|$T39387| DCD	|$LN5@BulEndpoin@6|
	DCD	0x40000703
; Function compile flags: /Odtp

  00000			 AREA	 |.text|, CODE, ARM

  00000		 |??1BulEndpointIn@@UAA@XZ| PROC	; BulEndpointIn::~BulEndpointIn
  00000		 |$LN5@BulEndpoin@6|
  00000	e1a0c00d	 mov         r12, sp
  00004	e92d0001	 stmdb       sp!, {r0}
  00008	e92d5000	 stmdb       sp!, {r12, lr}
  0000c		 |$M39384|
  0000c	e59d0008	 ldr         r0, [sp, #8]
  00010	eb000000	 bl          |??1BulEndpoint@@UAA@XZ|
  00014	e89d6000	 ldmia       sp, {sp, lr}
  00018	e12fff1e	 bx          lr
  0001c		 |$M39385|

			 ENDP  ; |??1BulEndpointIn@@UAA@XZ|, BulEndpointIn::~BulEndpointIn

	EXPORT	|??_7BulEndpointOut@@6B@| [ DATA ]	; BulEndpointOut::`vftable'
	IMPORT	|??_EBulEndpointOut@@UAAPAXI@Z|, WEAK |??_GBulEndpointOut@@UAAPAXI@Z| ; BulEndpointOut::`vector deleting destructor', BulEndpointOut::`scalar deleting destructor'

  00000			 AREA	 |.pdata|, PDATA
|$T39395| DCD	|$LN5@BulEndpoin@7|
	DCD	0x40001404

  00000			 AREA	 |.rdata|, DATA, READONLY
|??_7BulEndpointOut@@6B@| DCD |??_EBulEndpointOut@@UAAPAXI@Z| ; BulEndpointOut::`vftable'
	DCD	|?Init@BulEndpoint@@UAAHPAU_USB_ENDPOINT_DESCRIPTOR@@EEE@Z|
	DCD	|?ReInit@BulEndpoint@@UAAHXZ|
	DCD	|?InitEndpoint@BulEndpoint@@UAAKW4_UFN_BUS_SPEED@@PAU_USB_ENDPOINT_DESCRIPTOR@@@Z|
	DCD	|?DeinitEndpoint@BulEndpoint@@UAAKXZ|
	DCD	|?StallEndpoint@BulEndpoint@@UAAKXZ|
	DCD	|?ClearEndpointStall@BulEndpoint@@UAAKXZ|
	DCD	|?ResetEndpoint@BulEndpoint@@UAAKXZ|
	DCD	|?IsEndpointHalted@BulEndpoint@@UAAKPAH@Z|
	DCD	|?IssueTransfer@BulEndpoint@@UAAKPAU_STransfer@@@Z|
	DCD	|?AbortTransfer@BulEndpoint@@UAAKPAU_STransfer@@@Z|
	DCD	|?SendControlStatusHandshake@BulEndpoint@@UAAKXZ|
	DCD	|?IST@BulEndpointOut@@UAAKK@Z|
; Function compile flags: /Odtp

  00000			 AREA	 |.text|, CODE, ARM

  00000		 |??0BulEndpointOut@@QAA@QAVBulUsbDevice@@KH@Z| PROC ; BulEndpointOut::BulEndpointOut

; 414  :     {;

  00000		 |$LN5@BulEndpoin@7|
  00000	e1a0c00d	 mov         r12, sp
  00004	e92d000f	 stmdb       sp!, {r0 - r3}
  00008	e92d5000	 stmdb       sp!, {r12, lr}
  0000c	e24dd008	 sub         sp, sp, #8
  00010		 |$M39392|
  00010	e59d301c	 ldr         r3, [sp, #0x1C]
  00014	e59d2018	 ldr         r2, [sp, #0x18]
  00018	e59d1014	 ldr         r1, [sp, #0x14]
  0001c	e59d0010	 ldr         r0, [sp, #0x10]
  00020	eb000000	 bl          |??0BulEndpoint@@QAA@QAVBulUsbDevice@@KH@Z|
  00024	e58d0004	 str         r0, [sp, #4]
  00028	e59f201c	 ldr         r2, [pc, #0x1C]
  0002c	e59d3010	 ldr         r3, [sp, #0x10]
  00030	e5832000	 str         r2, [r3]

; 415  :     }

  00034	e59d3010	 ldr         r3, [sp, #0x10]
  00038	e58d3000	 str         r3, [sp]
  0003c	e59d0000	 ldr         r0, [sp]
  00040	e28dd008	 add         sp, sp, #8
  00044	e89d6000	 ldmia       sp, {sp, lr}
  00048	e12fff1e	 bx          lr
  0004c		 |$LN6@BulEndpoin@7|
  0004c		 |$LN7@BulEndpoin@7|
  0004c	00000000	 DCD         |??_7BulEndpointOut@@6B@|
  00050		 |$M39393|

			 ENDP  ; |??0BulEndpointOut@@QAA@QAVBulUsbDevice@@KH@Z|, BulEndpointOut::BulEndpointOut

	EXPORT	|??1BulEndpointOut@@UAA@XZ|		; BulEndpointOut::~BulEndpointOut

  00000			 AREA	 |.pdata|, PDATA
|$T39405| DCD	|$LN6@scalar@7|
	DCD	0x40001104
; Function compile flags: /Odtp

  00000			 AREA	 |.text|, CODE, ARM

  00000		 |??_GBulEndpointOut@@UAAPAXI@Z| PROC	; BulEndpointOut::`scalar deleting destructor'
  00000		 |$LN6@scalar@7|
  00000	e1a0c00d	 mov         r12, sp
  00004	e92d0003	 stmdb       sp!, {r0, r1}
  00008	e92d5000	 stmdb       sp!, {r12, lr}
  0000c	e24dd004	 sub         sp, sp, #4
  00010		 |$M39402|
  00010	e59d000c	 ldr         r0, [sp, #0xC]
  00014	eb000000	 bl          |??1BulEndpointOut@@UAA@XZ|
  00018	e59d3010	 ldr         r3, [sp, #0x10]
  0001c	e3130001	 tst         r3, #1
  00020	0a000001	 beq         |$LN1@scalar@7|
  00024	e59d000c	 ldr         r0, [sp, #0xC]
  00028	eb000000	 bl          |??3@YAXPAX@Z|
  0002c		 |$LN1@scalar@7|
  0002c	e59d300c	 ldr         r3, [sp, #0xC]
  00030	e58d3000	 str         r3, [sp]
  00034	e59d0000	 ldr         r0, [sp]
  00038	e28dd004	 add         sp, sp, #4
  0003c	e89d6000	 ldmia       sp, {sp, lr}
  00040	e12fff1e	 bx          lr
  00044		 |$M39403|

			 ENDP  ; |??_GBulEndpointOut@@UAAPAXI@Z|, BulEndpointOut::`scalar deleting destructor'


  00000			 AREA	 |.pdata|, PDATA
|$T39412| DCD	|$LN5@BulEndpoin@8|
	DCD	0x40000703
; Function compile flags: /Odtp

  00000			 AREA	 |.text|, CODE, ARM

  00000		 |??1BulEndpointOut@@UAA@XZ| PROC	; BulEndpointOut::~BulEndpointOut
  00000		 |$LN5@BulEndpoin@8|
  00000	e1a0c00d	 mov         r12, sp
  00004	e92d0001	 stmdb       sp!, {r0}
  00008	e92d5000	 stmdb       sp!, {r12, lr}
  0000c		 |$M39409|
  0000c	e59d0008	 ldr         r0, [sp, #8]
  00010	eb000000	 bl          |??1BulEndpoint@@UAA@XZ|
  00014	e89d6000	 ldmia       sp, {sp, lr}
  00018	e12fff1e	 bx          lr
  0001c		 |$M39410|

			 ENDP  ; |??1BulEndpointOut@@UAA@XZ|, BulEndpointOut::~BulEndpointOut

	EXPORT	|??_C@_1FG@MACKOOBB@?$AAb?$AAu?$AAl?$AAv?$AAe?$AAr?$AAd?$AAe?$AA_?$AAu?$AAs?$AAb?$AAf?$AAn?$AA?$CB?$AAB?$AAu?$AAl?$AAU?$AAs?$AAb?$AAD?$AAe?$AAv?$AAi?$AAc?$AAe?$AA?3?$AA?3?$AAI?$AAn?$AAi@| [ DATA ] ; `string'

  000f0			 AREA	 |.pdata|, PDATA
|$T39428| DCD	|$LN14@InitEndpoi@2|
	DCD	0x40005204
; File c:\wince600\platform\common\src\soc\pxa27x_ms_v1\usbfn\bul_usbfn.cpp

  00000			 AREA	 |.rdata|, DATA, READONLY
|??_C@_1FG@MACKOOBB@?$AAb?$AAu?$AAl?$AAv?$AAe?$AAr?$AAd?$AAe?$AA_?$AAu?$AAs?$AAb?$AAf?$AAn?$AA?$CB?$AAB?$AAu?$AAl?$AAU?$AAs?$AAb?$AAD?$AAe?$AAv?$AAi?$AAc?$AAe?$AA?3?$AA?3?$AAI?$AAn?$AAi@| DCB "b"
	DCB	0x0, "u", 0x0, "l", 0x0, "v", 0x0, "e", 0x0, "r", 0x0, "d"
	DCB	0x0, "e", 0x0, "_", 0x0, "u", 0x0, "s", 0x0, "b", 0x0, "f"
	DCB	0x0, "n", 0x0, "!", 0x0, "B", 0x0, "u", 0x0, "l", 0x0, "U"
	DCB	0x0, "s", 0x0, "b", 0x0, "D", 0x0, "e", 0x0, "v", 0x0, "i"
	DCB	0x0, "c", 0x0, "e", 0x0, ":", 0x0, ":", 0x0, "I", 0x0, "n"
	DCB	0x0, "i", 0x0, "t", 0x0, "E", 0x0, "n", 0x0, "d", 0x0, "p"
	DCB	0x0, "o", 0x0, "i", 0x0, "n", 0x0, "t", 0x0, ":", 0x0, 0x0
	DCB	0x0					; `string'
; Function compile flags: /Odtp

  04eb4			 AREA	 |.text|, CODE, ARM

  04eb4		 |?InitEndpoint@BulUsbDevice@@UAAKKW4_UFN_BUS_SPEED@@PAU_USB_ENDPOINT_DESCRIPTOR@@EEE@Z| PROC ; BulUsbDevice::InitEndpoint

; 994  : {

  04eb4		 |$LN14@InitEndpoi@2|
  04eb4	e1a0c00d	 mov         r12, sp
  04eb8	e92d000f	 stmdb       sp!, {r0 - r3}
  04ebc	e92d5000	 stmdb       sp!, {r12, lr}
  04ec0	e24dd020	 sub         sp, sp, #0x20
  04ec4		 |$M39425|

; 995  :     DWORD dwError = ERROR_INVALID_PARAMETER;

  04ec4	e3a03057	 mov         r3, #0x57
  04ec8	e58d3004	 str         r3, [sp, #4]

; 996  :     SETFNAME();

  04ecc	e59f3124	 ldr         r3, [pc, #0x124]
  04ed0	e58d3000	 str         r3, [sp]

; 997  :     FUNCTION_ENTER_MSG();

  04ed4	e59f3114	 ldr         r3, [pc, #0x114]
  04ed8	e5933440	 ldr         r3, [r3, #0x440]
  04edc	e3130a01	 tst         r3, #1, 20
  04ee0	0a00000d	 beq         |$LN6@InitEndpoi@2|
  04ee4	e59f3104	 ldr         r3, [pc, #0x104]
  04ee8	e5933440	 ldr         r3, [r3, #0x440]
  04eec	e3130801	 tst         r3, #1, 16
  04ef0	0a000003	 beq         |$LN4@InitEndpoi@2|
  04ef4	e59d1000	 ldr         r1, [sp]
  04ef8	e59f00f4	 ldr         r0, [pc, #0xF4]
  04efc	eb000000	 bl          CeLogMsg
  04f00	ea000002	 b           |$LN5@InitEndpoi@2|
  04f04		 |$LN4@InitEndpoi@2|
  04f04	e59d1000	 ldr         r1, [sp]
  04f08	e59f00e4	 ldr         r0, [pc, #0xE4]
  04f0c	eb000000	 bl          NKDbgPrintfW
  04f10		 |$LN5@InitEndpoi@2|
  04f10	e3a03001	 mov         r3, #1
  04f14	e58d3010	 str         r3, [sp, #0x10]
  04f18	ea000001	 b           |$LN7@InitEndpoi@2|
  04f1c		 |$LN6@InitEndpoi@2|
  04f1c	e3a03000	 mov         r3, #0
  04f20	e58d3010	 str         r3, [sp, #0x10]
  04f24		 |$LN7@InitEndpoi@2|

; 998  :     BulEndpoint *pEndpoint = ObjectIndex(dwEndpoint);

  04f24	e59d102c	 ldr         r1, [sp, #0x2C]
  04f28	e59d3028	 ldr         r3, [sp, #0x28]
  04f2c	e2830018	 add         r0, r3, #0x18
  04f30	eb000000	 bl          |?ObjectIndex@?$CStaticContainer@VBulEndpoint@@$0BI@@@QAAPAVBulEndpoint@@K@Z|
  04f34	e58d0014	 str         r0, [sp, #0x14]
  04f38	e59d3014	 ldr         r3, [sp, #0x14]
  04f3c	e58d3008	 str         r3, [sp, #8]

; 999  :     if (pEndpoint) {

  04f40	e59d3008	 ldr         r3, [sp, #8]
  04f44	e3530000	 cmp         r3, #0
  04f48	0a00000d	 beq         |$LN1@InitEndpoi@2|

; 1000 :         dwError = pEndpoint->InitEndpoint(Speed, pEndpointDesc);

  04f4c	e59d2034	 ldr         r2, [sp, #0x34]
  04f50	e59d1030	 ldr         r1, [sp, #0x30]
  04f54	e59d3008	 ldr         r3, [sp, #8]
  04f58	e5933000	 ldr         r3, [r3]
  04f5c	e283300c	 add         r3, r3, #0xC
  04f60	e59d0008	 ldr         r0, [sp, #8]
  04f64	e5933000	 ldr         r3, [r3]
  04f68	e1a0e00f	 mov         lr, pc
  04f6c	e12fff13	 bx          r3
  04f70	e58d0018	 str         r0, [sp, #0x18]
  04f74	e59d3018	 ldr         r3, [sp, #0x18]
  04f78	e58d3004	 str         r3, [sp, #4]

; 1001 :         pEndpoint->DeRef();

  04f7c	e59d0008	 ldr         r0, [sp, #8]
  04f80	eb000000	 bl          |?DeRef@CRefObject@@QAAKXZ|
  04f84		 |$LN1@InitEndpoi@2|

; 1002 :     }
; 1003 :     FUNCTION_LEAVE_MSG();

  04f84	e59f3064	 ldr         r3, [pc, #0x64]
  04f88	e5933440	 ldr         r3, [r3, #0x440]
  04f8c	e3130a01	 tst         r3, #1, 20
  04f90	0a00000d	 beq         |$LN10@InitEndpoi@2|
  04f94	e59f3054	 ldr         r3, [pc, #0x54]
  04f98	e5933440	 ldr         r3, [r3, #0x440]
  04f9c	e3130801	 tst         r3, #1, 16
  04fa0	0a000003	 beq         |$LN8@InitEndpoi@2|
  04fa4	e59d1000	 ldr         r1, [sp]
  04fa8	e59f003c	 ldr         r0, [pc, #0x3C]
  04fac	eb000000	 bl          CeLogMsg
  04fb0	ea000002	 b           |$LN9@InitEndpoi@2|
  04fb4		 |$LN8@InitEndpoi@2|
  04fb4	e59d1000	 ldr         r1, [sp]
  04fb8	e59f002c	 ldr         r0, [pc, #0x2C]
  04fbc	eb000000	 bl          NKDbgPrintfW
  04fc0		 |$LN9@InitEndpoi@2|
  04fc0	e3a03001	 mov         r3, #1
  04fc4	e58d301c	 str         r3, [sp, #0x1C]
  04fc8	ea000001	 b           |$LN11@InitEndpoi@2|
  04fcc		 |$LN10@InitEndpoi@2|
  04fcc	e3a03000	 mov         r3, #0
  04fd0	e58d301c	 str         r3, [sp, #0x1C]
  04fd4		 |$LN11@InitEndpoi@2|

; 1004 :     return dwError;

  04fd4	e59d3004	 ldr         r3, [sp, #4]
  04fd8	e58d300c	 str         r3, [sp, #0xC]

; 1005 : };

  04fdc	e59d000c	 ldr         r0, [sp, #0xC]
  04fe0	e28dd020	 add         sp, sp, #0x20
  04fe4	e89d6000	 ldmia       sp, {sp, lr}
  04fe8	e12fff1e	 bx          lr
  04fec		 |$LN15@InitEndpoi@2|
  04fec		 |$LN16@InitEndpoi@2|
  04fec	00000000	 DCD         |??_C@_1BA@PLOOFDPK@?$AA?$CF?$AAs?$AA?5?$AA?9?$AA?9?$AA?$AN?$AA?6?$AA?$AA@|
  04ff0		 |$LN17@InitEndpoi@2|
  04ff0	00000000	 DCD         |dpCurSettings|
  04ff4		 |$LN18@InitEndpoi@2|
  04ff4	00000000	 DCD         |??_C@_1BA@DAJPCKDK@?$AA?$CF?$AAs?$AA?5?$AA?$CL?$AA?$CL?$AA?$AN?$AA?6?$AA?$AA@|
  04ff8		 |$LN19@InitEndpoi@2|
  04ff8	00000000	 DCD         |??_C@_1FG@MACKOOBB@?$AAb?$AAu?$AAl?$AAv?$AAe?$AAr?$AAd?$AAe?$AA_?$AAu?$AAs?$AAb?$AAf?$AAn?$AA?$CB?$AAB?$AAu?$AAl?$AAU?$AAs?$AAb?$AAD?$AAe?$AAv?$AAi?$AAc?$AAe?$AA?3?$AA?3?$AAI?$AAn?$AAi@|
  04ffc		 |$M39426|

			 ENDP  ; |?InitEndpoint@BulUsbDevice@@UAAKKW4_UFN_BUS_SPEED@@PAU_USB_ENDPOINT_DESCRIPTOR@@EEE@Z|, BulUsbDevice::InitEndpoint

	EXPORT	|??_C@_1FK@HMNLDGKA@?$AAb?$AAu?$AAl?$AAv?$AAe?$AAr?$AAd?$AAe?$AA_?$AAu?$AAs?$AAb?$AAf?$AAn?$AA?$CB?$AAB?$AAu?$AAl?$AAU?$AAs?$AAb?$AAD?$AAe?$AAv?$AAi?$AAc?$AAe?$AA?3?$AA?3?$AAD?$AAe?$AAi@| [ DATA ] ; `string'

  000f8			 AREA	 |.pdata|, PDATA
|$T39447| DCD	|$LN14@DeinitEndp@2|
	DCD	0x40005004

  00000			 AREA	 |.rdata|, DATA, READONLY
|??_C@_1FK@HMNLDGKA@?$AAb?$AAu?$AAl?$AAv?$AAe?$AAr?$AAd?$AAe?$AA_?$AAu?$AAs?$AAb?$AAf?$AAn?$AA?$CB?$AAB?$AAu?$AAl?$AAU?$AAs?$AAb?$AAD?$AAe?$AAv?$AAi?$AAc?$AAe?$AA?3?$AA?3?$AAD?$AAe?$AAi@| DCB "b"
	DCB	0x0, "u", 0x0, "l", 0x0, "v", 0x0, "e", 0x0, "r", 0x0, "d"
	DCB	0x0, "e", 0x0, "_", 0x0, "u", 0x0, "s", 0x0, "b", 0x0, "f"
	DCB	0x0, "n", 0x0, "!", 0x0, "B", 0x0, "u", 0x0, "l", 0x0, "U"
	DCB	0x0, "s", 0x0, "b", 0x0, "D", 0x0, "e", 0x0, "v", 0x0, "i"
	DCB	0x0, "c", 0x0, "e", 0x0, ":", 0x0, ":", 0x0, "D", 0x0, "e"
	DCB	0x0, "i", 0x0, "n", 0x0, "i", 0x0, "t", 0x0, "E", 0x0, "n"
	DCB	0x0, "d", 0x0, "p", 0x0, "o", 0x0, "i", 0x0, "n", 0x0, "t"
	DCB	0x0, ":", 0x0, 0x0, 0x0			; `string'
; Function compile flags: /Odtp

  04ffc			 AREA	 |.text|, CODE, ARM

  04ffc		 |?DeinitEndpoint@BulUsbDevice@@UAAKK@Z| PROC ; BulUsbDevice::DeinitEndpoint

; 1008 : {

  04ffc		 |$LN14@DeinitEndp@2|
  04ffc	e1a0c00d	 mov         r12, sp
  05000	e92d0003	 stmdb       sp!, {r0, r1}
  05004	e92d5000	 stmdb       sp!, {r12, lr}
  05008	e24dd020	 sub         sp, sp, #0x20
  0500c		 |$M39444|

; 1009 :     DWORD dwError = ERROR_INVALID_PARAMETER;

  0500c	e3a03057	 mov         r3, #0x57
  05010	e58d3004	 str         r3, [sp, #4]

; 1010 :     SETFNAME();

  05014	e59f311c	 ldr         r3, [pc, #0x11C]
  05018	e58d3000	 str         r3, [sp]

; 1011 :     FUNCTION_ENTER_MSG();

  0501c	e59f310c	 ldr         r3, [pc, #0x10C]
  05020	e5933440	 ldr         r3, [r3, #0x440]
  05024	e3130a01	 tst         r3, #1, 20
  05028	0a00000d	 beq         |$LN6@DeinitEndp@2|
  0502c	e59f30fc	 ldr         r3, [pc, #0xFC]
  05030	e5933440	 ldr         r3, [r3, #0x440]
  05034	e3130801	 tst         r3, #1, 16
  05038	0a000003	 beq         |$LN4@DeinitEndp@2|
  0503c	e59d1000	 ldr         r1, [sp]
  05040	e59f00ec	 ldr         r0, [pc, #0xEC]
  05044	eb000000	 bl          CeLogMsg
  05048	ea000002	 b           |$LN5@DeinitEndp@2|
  0504c		 |$LN4@DeinitEndp@2|
  0504c	e59d1000	 ldr         r1, [sp]
  05050	e59f00dc	 ldr         r0, [pc, #0xDC]
  05054	eb000000	 bl          NKDbgPrintfW
  05058		 |$LN5@DeinitEndp@2|
  05058	e3a03001	 mov         r3, #1
  0505c	e58d3010	 str         r3, [sp, #0x10]
  05060	ea000001	 b           |$LN7@DeinitEndp@2|
  05064		 |$LN6@DeinitEndp@2|
  05064	e3a03000	 mov         r3, #0
  05068	e58d3010	 str         r3, [sp, #0x10]
  0506c		 |$LN7@DeinitEndp@2|

; 1012 :     BulEndpoint *pEndpoint = ObjectIndex(dwEndpoint);

  0506c	e59d102c	 ldr         r1, [sp, #0x2C]
  05070	e59d3028	 ldr         r3, [sp, #0x28]
  05074	e2830018	 add         r0, r3, #0x18
  05078	eb000000	 bl          |?ObjectIndex@?$CStaticContainer@VBulEndpoint@@$0BI@@@QAAPAVBulEndpoint@@K@Z|
  0507c	e58d0014	 str         r0, [sp, #0x14]
  05080	e59d3014	 ldr         r3, [sp, #0x14]
  05084	e58d3008	 str         r3, [sp, #8]

; 1013 :     if (pEndpoint) {

  05088	e59d3008	 ldr         r3, [sp, #8]
  0508c	e3530000	 cmp         r3, #0
  05090	0a00000b	 beq         |$LN1@DeinitEndp@2|

; 1014 :         dwError = pEndpoint->DeinitEndpoint();

  05094	e59d3008	 ldr         r3, [sp, #8]
  05098	e5933000	 ldr         r3, [r3]
  0509c	e2833010	 add         r3, r3, #0x10
  050a0	e59d0008	 ldr         r0, [sp, #8]
  050a4	e5933000	 ldr         r3, [r3]
  050a8	e1a0e00f	 mov         lr, pc
  050ac	e12fff13	 bx          r3
  050b0	e58d0018	 str         r0, [sp, #0x18]
  050b4	e59d3018	 ldr         r3, [sp, #0x18]
  050b8	e58d3004	 str         r3, [sp, #4]

; 1015 :         pEndpoint->DeRef();

  050bc	e59d0008	 ldr         r0, [sp, #8]
  050c0	eb000000	 bl          |?DeRef@CRefObject@@QAAKXZ|
  050c4		 |$LN1@DeinitEndp@2|

; 1016 :     }
; 1017 :     FUNCTION_LEAVE_MSG();

  050c4	e59f3064	 ldr         r3, [pc, #0x64]
  050c8	e5933440	 ldr         r3, [r3, #0x440]
  050cc	e3130a01	 tst         r3, #1, 20
  050d0	0a00000d	 beq         |$LN10@DeinitEndp@2|
  050d4	e59f3054	 ldr         r3, [pc, #0x54]
  050d8	e5933440	 ldr         r3, [r3, #0x440]
  050dc	e3130801	 tst         r3, #1, 16
  050e0	0a000003	 beq         |$LN8@DeinitEndp@2|
  050e4	e59d1000	 ldr         r1, [sp]
  050e8	e59f003c	 ldr         r0, [pc, #0x3C]
  050ec	eb000000	 bl          CeLogMsg
  050f0	ea000002	 b           |$LN9@DeinitEndp@2|
  050f4		 |$LN8@DeinitEndp@2|
  050f4	e59d1000	 ldr         r1, [sp]
  050f8	e59f002c	 ldr         r0, [pc, #0x2C]
  050fc	eb000000	 bl          NKDbgPrintfW
  05100		 |$LN9@DeinitEndp@2|
  05100	e3a03001	 mov         r3, #1
  05104	e58d301c	 str         r3, [sp, #0x1C]
  05108	ea000001	 b           |$LN11@DeinitEndp@2|
  0510c		 |$LN10@DeinitEndp@2|
  0510c	e3a03000	 mov         r3, #0
  05110	e58d301c	 str         r3, [sp, #0x1C]
  05114		 |$LN11@DeinitEndp@2|

; 1018 :     return dwError;

  05114	e59d3004	 ldr         r3, [sp, #4]
  05118	e58d300c	 str         r3, [sp, #0xC]

; 1019 :     
; 1020 : }

  0511c	e59d000c	 ldr         r0, [sp, #0xC]
  05120	e28dd020	 add         sp, sp, #0x20
  05124	e89d6000	 ldmia       sp, {sp, lr}
  05128	e12fff1e	 bx          lr
  0512c		 |$LN15@DeinitEndp@2|
  0512c		 |$LN16@DeinitEndp@2|
  0512c	00000000	 DCD         |??_C@_1BA@PLOOFDPK@?$AA?$CF?$AAs?$AA?5?$AA?9?$AA?9?$AA?$AN?$AA?6?$AA?$AA@|
  05130		 |$LN17@DeinitEndp@2|
  05130	00000000	 DCD         |dpCurSettings|
  05134		 |$LN18@DeinitEndp@2|
  05134	00000000	 DCD         |??_C@_1BA@DAJPCKDK@?$AA?$CF?$AAs?$AA?5?$AA?$CL?$AA?$CL?$AA?$AN?$AA?6?$AA?$AA@|
  05138		 |$LN19@DeinitEndp@2|
  05138	00000000	 DCD         |??_C@_1FK@HMNLDGKA@?$AAb?$AAu?$AAl?$AAv?$AAe?$AAr?$AAd?$AAe?$AA_?$AAu?$AAs?$AAb?$AAf?$AAn?$AA?$CB?$AAB?$AAu?$AAl?$AAU?$AAs?$AAb?$AAD?$AAe?$AAv?$AAi?$AAc?$AAe?$AA?3?$AA?3?$AAD?$AAe?$AAi@|
  0513c		 |$M39445|

			 ENDP  ; |?DeinitEndpoint@BulUsbDevice@@UAAKK@Z|, BulUsbDevice::DeinitEndpoint

	EXPORT	|??_C@_1FI@JNHFKBLE@?$AAb?$AAu?$AAl?$AAv?$AAe?$AAr?$AAd?$AAe?$AA_?$AAu?$AAs?$AAb?$AAf?$AAn?$AA?$CB?$AAB?$AAu?$AAl?$AAU?$AAs?$AAb?$AAD?$AAe?$AAv?$AAi?$AAc?$AAe?$AA?3?$AA?3?$AAS?$AAt?$AAa@| [ DATA ] ; `string'

  00100			 AREA	 |.pdata|, PDATA
|$T39466| DCD	|$LN14@StallEndpo@2|
	DCD	0x40005004

  00000			 AREA	 |.rdata|, DATA, READONLY
|??_C@_1FI@JNHFKBLE@?$AAb?$AAu?$AAl?$AAv?$AAe?$AAr?$AAd?$AAe?$AA_?$AAu?$AAs?$AAb?$AAf?$AAn?$AA?$CB?$AAB?$AAu?$AAl?$AAU?$AAs?$AAb?$AAD?$AAe?$AAv?$AAi?$AAc?$AAe?$AA?3?$AA?3?$AAS?$AAt?$AAa@| DCB "b"
	DCB	0x0, "u", 0x0, "l", 0x0, "v", 0x0, "e", 0x0, "r", 0x0, "d"
	DCB	0x0, "e", 0x0, "_", 0x0, "u", 0x0, "s", 0x0, "b", 0x0, "f"
	DCB	0x0, "n", 0x0, "!", 0x0, "B", 0x0, "u", 0x0, "l", 0x0, "U"
	DCB	0x0, "s", 0x0, "b", 0x0, "D", 0x0, "e", 0x0, "v", 0x0, "i"
	DCB	0x0, "c", 0x0, "e", 0x0, ":", 0x0, ":", 0x0, "S", 0x0, "t"
	DCB	0x0, "a", 0x0, "l", 0x0, "l", 0x0, "E", 0x0, "n", 0x0, "d"
	DCB	0x0, "p", 0x0, "o", 0x0, "i", 0x0, "n", 0x0, "t", 0x0, ":"
	DCB	0x0, 0x0, 0x0				; `string'
; Function compile flags: /Odtp

  0513c			 AREA	 |.text|, CODE, ARM

  0513c		 |?StallEndpoint@BulUsbDevice@@UAAKK@Z| PROC ; BulUsbDevice::StallEndpoint

; 1022 : {

  0513c		 |$LN14@StallEndpo@2|
  0513c	e1a0c00d	 mov         r12, sp
  05140	e92d0003	 stmdb       sp!, {r0, r1}
  05144	e92d5000	 stmdb       sp!, {r12, lr}
  05148	e24dd020	 sub         sp, sp, #0x20
  0514c		 |$M39463|

; 1023 :     DWORD dwError = ERROR_INVALID_PARAMETER;

  0514c	e3a03057	 mov         r3, #0x57
  05150	e58d3004	 str         r3, [sp, #4]

; 1024 :     SETFNAME();

  05154	e59f311c	 ldr         r3, [pc, #0x11C]
  05158	e58d3000	 str         r3, [sp]

; 1025 :     FUNCTION_ENTER_MSG();

  0515c	e59f310c	 ldr         r3, [pc, #0x10C]
  05160	e5933440	 ldr         r3, [r3, #0x440]
  05164	e3130a01	 tst         r3, #1, 20
  05168	0a00000d	 beq         |$LN6@StallEndpo@2|
  0516c	e59f30fc	 ldr         r3, [pc, #0xFC]
  05170	e5933440	 ldr         r3, [r3, #0x440]
  05174	e3130801	 tst         r3, #1, 16
  05178	0a000003	 beq         |$LN4@StallEndpo@2|
  0517c	e59d1000	 ldr         r1, [sp]
  05180	e59f00ec	 ldr         r0, [pc, #0xEC]
  05184	eb000000	 bl          CeLogMsg
  05188	ea000002	 b           |$LN5@StallEndpo@2|
  0518c		 |$LN4@StallEndpo@2|
  0518c	e59d1000	 ldr         r1, [sp]
  05190	e59f00dc	 ldr         r0, [pc, #0xDC]
  05194	eb000000	 bl          NKDbgPrintfW
  05198		 |$LN5@StallEndpo@2|
  05198	e3a03001	 mov         r3, #1
  0519c	e58d3010	 str         r3, [sp, #0x10]
  051a0	ea000001	 b           |$LN7@StallEndpo@2|
  051a4		 |$LN6@StallEndpo@2|
  051a4	e3a03000	 mov         r3, #0
  051a8	e58d3010	 str         r3, [sp, #0x10]
  051ac		 |$LN7@StallEndpo@2|

; 1026 :     BulEndpoint *pEndpoint = ObjectIndex(dwEndpoint);

  051ac	e59d102c	 ldr         r1, [sp, #0x2C]
  051b0	e59d3028	 ldr         r3, [sp, #0x28]
  051b4	e2830018	 add         r0, r3, #0x18
  051b8	eb000000	 bl          |?ObjectIndex@?$CStaticContainer@VBulEndpoint@@$0BI@@@QAAPAVBulEndpoint@@K@Z|
  051bc	e58d0014	 str         r0, [sp, #0x14]
  051c0	e59d3014	 ldr         r3, [sp, #0x14]
  051c4	e58d3008	 str         r3, [sp, #8]

; 1027 :     if (pEndpoint) {

  051c8	e59d3008	 ldr         r3, [sp, #8]
  051cc	e3530000	 cmp         r3, #0
  051d0	0a00000b	 beq         |$LN1@StallEndpo@2|

; 1028 :         dwError = pEndpoint->StallEndpoint();

  051d4	e59d3008	 ldr         r3, [sp, #8]
  051d8	e5933000	 ldr         r3, [r3]
  051dc	e2833014	 add         r3, r3, #0x14
  051e0	e59d0008	 ldr         r0, [sp, #8]
  051e4	e5933000	 ldr         r3, [r3]
  051e8	e1a0e00f	 mov         lr, pc
  051ec	e12fff13	 bx          r3
  051f0	e58d0018	 str         r0, [sp, #0x18]
  051f4	e59d3018	 ldr         r3, [sp, #0x18]
  051f8	e58d3004	 str         r3, [sp, #4]

; 1029 :         pEndpoint->DeRef();

  051fc	e59d0008	 ldr         r0, [sp, #8]
  05200	eb000000	 bl          |?DeRef@CRefObject@@QAAKXZ|
  05204		 |$LN1@StallEndpo@2|

; 1030 :     }
; 1031 :     FUNCTION_LEAVE_MSG();

  05204	e59f3064	 ldr         r3, [pc, #0x64]
  05208	e5933440	 ldr         r3, [r3, #0x440]
  0520c	e3130a01	 tst         r3, #1, 20
  05210	0a00000d	 beq         |$LN10@StallEndpo@2|
  05214	e59f3054	 ldr         r3, [pc, #0x54]
  05218	e5933440	 ldr         r3, [r3, #0x440]
  0521c	e3130801	 tst         r3, #1, 16
  05220	0a000003	 beq         |$LN8@StallEndpo@2|
  05224	e59d1000	 ldr         r1, [sp]
  05228	e59f003c	 ldr         r0, [pc, #0x3C]
  0522c	eb000000	 bl          CeLogMsg
  05230	ea000002	 b           |$LN9@StallEndpo@2|
  05234		 |$LN8@StallEndpo@2|
  05234	e59d1000	 ldr         r1, [sp]
  05238	e59f002c	 ldr         r0, [pc, #0x2C]
  0523c	eb000000	 bl          NKDbgPrintfW
  05240		 |$LN9@StallEndpo@2|
  05240	e3a03001	 mov         r3, #1
  05244	e58d301c	 str         r3, [sp, #0x1C]
  05248	ea000001	 b           |$LN11@StallEndpo@2|
  0524c		 |$LN10@StallEndpo@2|
  0524c	e3a03000	 mov         r3, #0
  05250	e58d301c	 str         r3, [sp, #0x1C]
  05254		 |$LN11@StallEndpo@2|

; 1032 :     return dwError;

  05254	e59d3004	 ldr         r3, [sp, #4]
  05258	e58d300c	 str         r3, [sp, #0xC]

; 1033 : }

  0525c	e59d000c	 ldr         r0, [sp, #0xC]
  05260	e28dd020	 add         sp, sp, #0x20
  05264	e89d6000	 ldmia       sp, {sp, lr}
  05268	e12fff1e	 bx          lr
  0526c		 |$LN15@StallEndpo@2|
  0526c		 |$LN16@StallEndpo@2|
  0526c	00000000	 DCD         |??_C@_1BA@PLOOFDPK@?$AA?$CF?$AAs?$AA?5?$AA?9?$AA?9?$AA?$AN?$AA?6?$AA?$AA@|
  05270		 |$LN17@StallEndpo@2|
  05270	00000000	 DCD         |dpCurSettings|
  05274		 |$LN18@StallEndpo@2|
  05274	00000000	 DCD         |??_C@_1BA@DAJPCKDK@?$AA?$CF?$AAs?$AA?5?$AA?$CL?$AA?$CL?$AA?$AN?$AA?6?$AA?$AA@|
  05278		 |$LN19@StallEndpo@2|
  05278	00000000	 DCD         |??_C@_1FI@JNHFKBLE@?$AAb?$AAu?$AAl?$AAv?$AAe?$AAr?$AAd?$AAe?$AA_?$AAu?$AAs?$AAb?$AAf?$AAn?$AA?$CB?$AAB?$AAu?$AAl?$AAU?$AAs?$AAb?$AAD?$AAe?$AAv?$AAi?$AAc?$AAe?$AA?3?$AA?3?$AAS?$AAt?$AAa@|
  0527c		 |$M39464|

			 ENDP  ; |?StallEndpoint@BulUsbDevice@@UAAKK@Z|, BulUsbDevice::StallEndpoint

	EXPORT	|??_C@_1GC@HCOFHHFH@?$AAb?$AAu?$AAl?$AAv?$AAe?$AAr?$AAd?$AAe?$AA_?$AAu?$AAs?$AAb?$AAf?$AAn?$AA?$CB?$AAB?$AAu?$AAl?$AAU?$AAs?$AAb?$AAD?$AAe?$AAv?$AAi?$AAc?$AAe?$AA?3?$AA?3?$AAC?$AAl?$AAe@| [ DATA ] ; `string'

  00108			 AREA	 |.pdata|, PDATA
|$T39485| DCD	|$LN14@ClearEndpo@2|
	DCD	0x40005004

  00000			 AREA	 |.rdata|, DATA, READONLY
|??_C@_1GC@HCOFHHFH@?$AAb?$AAu?$AAl?$AAv?$AAe?$AAr?$AAd?$AAe?$AA_?$AAu?$AAs?$AAb?$AAf?$AAn?$AA?$CB?$AAB?$AAu?$AAl?$AAU?$AAs?$AAb?$AAD?$AAe?$AAv?$AAi?$AAc?$AAe?$AA?3?$AA?3?$AAC?$AAl?$AAe@| DCB "b"
	DCB	0x0, "u", 0x0, "l", 0x0, "v", 0x0, "e", 0x0, "r", 0x0, "d"
	DCB	0x0, "e", 0x0, "_", 0x0, "u", 0x0, "s", 0x0, "b", 0x0, "f"
	DCB	0x0, "n", 0x0, "!", 0x0, "B", 0x0, "u", 0x0, "l", 0x0, "U"
	DCB	0x0, "s", 0x0, "b", 0x0, "D", 0x0, "e", 0x0, "v", 0x0, "i"
	DCB	0x0, "c", 0x0, "e", 0x0, ":", 0x0, ":", 0x0, "C", 0x0, "l"
	DCB	0x0, "e", 0x0, "a", 0x0, "r", 0x0, "E", 0x0, "n", 0x0, "d"
	DCB	0x0, "p", 0x0, "o", 0x0, "i", 0x0, "n", 0x0, "t", 0x0, "S"
	DCB	0x0, "t", 0x0, "a", 0x0, "l", 0x0, "l", 0x0, ":", 0x0, 0x0
	DCB	0x0					; `string'
; Function compile flags: /Odtp

  0527c			 AREA	 |.text|, CODE, ARM

  0527c		 |?ClearEndpointStall@BulUsbDevice@@UAAKK@Z| PROC ; BulUsbDevice::ClearEndpointStall

; 1035 : {

  0527c		 |$LN14@ClearEndpo@2|
  0527c	e1a0c00d	 mov         r12, sp
  05280	e92d0003	 stmdb       sp!, {r0, r1}
  05284	e92d5000	 stmdb       sp!, {r12, lr}
  05288	e24dd020	 sub         sp, sp, #0x20
  0528c		 |$M39482|

; 1036 :     DWORD dwError = ERROR_INVALID_PARAMETER;

  0528c	e3a03057	 mov         r3, #0x57
  05290	e58d3004	 str         r3, [sp, #4]

; 1037 :     SETFNAME();

  05294	e59f311c	 ldr         r3, [pc, #0x11C]
  05298	e58d3000	 str         r3, [sp]

; 1038 :     FUNCTION_ENTER_MSG();

  0529c	e59f310c	 ldr         r3, [pc, #0x10C]
  052a0	e5933440	 ldr         r3, [r3, #0x440]
  052a4	e3130a01	 tst         r3, #1, 20
  052a8	0a00000d	 beq         |$LN6@ClearEndpo@2|
  052ac	e59f30fc	 ldr         r3, [pc, #0xFC]
  052b0	e5933440	 ldr         r3, [r3, #0x440]
  052b4	e3130801	 tst         r3, #1, 16
  052b8	0a000003	 beq         |$LN4@ClearEndpo@2|
  052bc	e59d1000	 ldr         r1, [sp]
  052c0	e59f00ec	 ldr         r0, [pc, #0xEC]
  052c4	eb000000	 bl          CeLogMsg
  052c8	ea000002	 b           |$LN5@ClearEndpo@2|
  052cc		 |$LN4@ClearEndpo@2|
  052cc	e59d1000	 ldr         r1, [sp]
  052d0	e59f00dc	 ldr         r0, [pc, #0xDC]
  052d4	eb000000	 bl          NKDbgPrintfW
  052d8		 |$LN5@ClearEndpo@2|
  052d8	e3a03001	 mov         r3, #1
  052dc	e58d3010	 str         r3, [sp, #0x10]
  052e0	ea000001	 b           |$LN7@ClearEndpo@2|
  052e4		 |$LN6@ClearEndpo@2|
  052e4	e3a03000	 mov         r3, #0
  052e8	e58d3010	 str         r3, [sp, #0x10]
  052ec		 |$LN7@ClearEndpo@2|

; 1039 :     BulEndpoint *pEndpoint = ObjectIndex(dwEndpoint);

  052ec	e59d102c	 ldr         r1, [sp, #0x2C]
  052f0	e59d3028	 ldr         r3, [sp, #0x28]
  052f4	e2830018	 add         r0, r3, #0x18
  052f8	eb000000	 bl          |?ObjectIndex@?$CStaticContainer@VBulEndpoint@@$0BI@@@QAAPAVBulEndpoint@@K@Z|
  052fc	e58d0014	 str         r0, [sp, #0x14]
  05300	e59d3014	 ldr         r3, [sp, #0x14]
  05304	e58d3008	 str         r3, [sp, #8]

; 1040 :     if (pEndpoint) {

  05308	e59d3008	 ldr         r3, [sp, #8]
  0530c	e3530000	 cmp         r3, #0
  05310	0a00000b	 beq         |$LN1@ClearEndpo@2|

; 1041 :         dwError = pEndpoint->ClearEndpointStall();

  05314	e59d3008	 ldr         r3, [sp, #8]
  05318	e5933000	 ldr         r3, [r3]
  0531c	e2833018	 add         r3, r3, #0x18
  05320	e59d0008	 ldr         r0, [sp, #8]
  05324	e5933000	 ldr         r3, [r3]
  05328	e1a0e00f	 mov         lr, pc
  0532c	e12fff13	 bx          r3
  05330	e58d0018	 str         r0, [sp, #0x18]
  05334	e59d3018	 ldr         r3, [sp, #0x18]
  05338	e58d3004	 str         r3, [sp, #4]

; 1042 :         pEndpoint->DeRef();

  0533c	e59d0008	 ldr         r0, [sp, #8]
  05340	eb000000	 bl          |?DeRef@CRefObject@@QAAKXZ|
  05344		 |$LN1@ClearEndpo@2|

; 1043 :     }
; 1044 :     FUNCTION_LEAVE_MSG();

  05344	e59f3064	 ldr         r3, [pc, #0x64]
  05348	e5933440	 ldr         r3, [r3, #0x440]
  0534c	e3130a01	 tst         r3, #1, 20
  05350	0a00000d	 beq         |$LN10@ClearEndpo@2|
  05354	e59f3054	 ldr         r3, [pc, #0x54]
  05358	e5933440	 ldr         r3, [r3, #0x440]
  0535c	e3130801	 tst         r3, #1, 16
  05360	0a000003	 beq         |$LN8@ClearEndpo@2|
  05364	e59d1000	 ldr         r1, [sp]
  05368	e59f003c	 ldr         r0, [pc, #0x3C]
  0536c	eb000000	 bl          CeLogMsg
  05370	ea000002	 b           |$LN9@ClearEndpo@2|
  05374		 |$LN8@ClearEndpo@2|
  05374	e59d1000	 ldr         r1, [sp]
  05378	e59f002c	 ldr         r0, [pc, #0x2C]
  0537c	eb000000	 bl          NKDbgPrintfW
  05380		 |$LN9@ClearEndpo@2|
  05380	e3a03001	 mov         r3, #1
  05384	e58d301c	 str         r3, [sp, #0x1C]
  05388	ea000001	 b           |$LN11@ClearEndpo@2|
  0538c		 |$LN10@ClearEndpo@2|
  0538c	e3a03000	 mov         r3, #0
  05390	e58d301c	 str         r3, [sp, #0x1C]
  05394		 |$LN11@ClearEndpo@2|

; 1045 :     return dwError;    

  05394	e59d3004	 ldr         r3, [sp, #4]
  05398	e58d300c	 str         r3, [sp, #0xC]

; 1046 : }

  0539c	e59d000c	 ldr         r0, [sp, #0xC]
  053a0	e28dd020	 add         sp, sp, #0x20
  053a4	e89d6000	 ldmia       sp, {sp, lr}
  053a8	e12fff1e	 bx          lr
  053ac		 |$LN15@ClearEndpo@2|
  053ac		 |$LN16@ClearEndpo@2|
  053ac	00000000	 DCD         |??_C@_1BA@PLOOFDPK@?$AA?$CF?$AAs?$AA?5?$AA?9?$AA?9?$AA?$AN?$AA?6?$AA?$AA@|
  053b0		 |$LN17@ClearEndpo@2|
  053b0	00000000	 DCD         |dpCurSettings|
  053b4		 |$LN18@ClearEndpo@2|
  053b4	00000000	 DCD         |??_C@_1BA@DAJPCKDK@?$AA?$CF?$AAs?$AA?5?$AA?$CL?$AA?$CL?$AA?$AN?$AA?6?$AA?$AA@|
  053b8		 |$LN19@ClearEndpo@2|
  053b8	00000000	 DCD         |??_C@_1GC@HCOFHHFH@?$AAb?$AAu?$AAl?$AAv?$AAe?$AAr?$AAd?$AAe?$AA_?$AAu?$AAs?$AAb?$AAf?$AAn?$AA?$CB?$AAB?$AAu?$AAl?$AAU?$AAs?$AAb?$AAD?$AAe?$AAv?$AAi?$AAc?$AAe?$AA?3?$AA?3?$AAC?$AAl?$AAe@|
  053bc		 |$M39483|

			 ENDP  ; |?ClearEndpointStall@BulUsbDevice@@UAAKK@Z|, BulUsbDevice::ClearEndpointStall

	EXPORT	|??_C@_1FI@EHHLELLO@?$AAb?$AAu?$AAl?$AAv?$AAe?$AAr?$AAd?$AAe?$AA_?$AAu?$AAs?$AAb?$AAf?$AAn?$AA?$CB?$AAB?$AAu?$AAl?$AAU?$AAs?$AAb?$AAD?$AAe?$AAv?$AAi?$AAc?$AAe?$AA?3?$AA?3?$AAR?$AAe?$AAs@| [ DATA ] ; `string'

  00110			 AREA	 |.pdata|, PDATA
|$T39504| DCD	|$LN14@ResetEndpo@3|
	DCD	0x40005004

  00000			 AREA	 |.rdata|, DATA, READONLY
|??_C@_1FI@EHHLELLO@?$AAb?$AAu?$AAl?$AAv?$AAe?$AAr?$AAd?$AAe?$AA_?$AAu?$AAs?$AAb?$AAf?$AAn?$AA?$CB?$AAB?$AAu?$AAl?$AAU?$AAs?$AAb?$AAD?$AAe?$AAv?$AAi?$AAc?$AAe?$AA?3?$AA?3?$AAR?$AAe?$AAs@| DCB "b"
	DCB	0x0, "u", 0x0, "l", 0x0, "v", 0x0, "e", 0x0, "r", 0x0, "d"
	DCB	0x0, "e", 0x0, "_", 0x0, "u", 0x0, "s", 0x0, "b", 0x0, "f"
	DCB	0x0, "n", 0x0, "!", 0x0, "B", 0x0, "u", 0x0, "l", 0x0, "U"
	DCB	0x0, "s", 0x0, "b", 0x0, "D", 0x0, "e", 0x0, "v", 0x0, "i"
	DCB	0x0, "c", 0x0, "e", 0x0, ":", 0x0, ":", 0x0, "R", 0x0, "e"
	DCB	0x0, "s", 0x0, "e", 0x0, "t", 0x0, "E", 0x0, "n", 0x0, "d"
	DCB	0x0, "p", 0x0, "o", 0x0, "i", 0x0, "n", 0x0, "t", 0x0, ":"
	DCB	0x0, 0x0, 0x0				; `string'
; Function compile flags: /Odtp

  053bc			 AREA	 |.text|, CODE, ARM

  053bc		 |?ResetEndpoint@BulUsbDevice@@UAAKK@Z| PROC ; BulUsbDevice::ResetEndpoint

; 1048 : {

  053bc		 |$LN14@ResetEndpo@3|
  053bc	e1a0c00d	 mov         r12, sp
  053c0	e92d0003	 stmdb       sp!, {r0, r1}
  053c4	e92d5000	 stmdb       sp!, {r12, lr}
  053c8	e24dd020	 sub         sp, sp, #0x20
  053cc		 |$M39501|

; 1049 :     DWORD dwError = ERROR_INVALID_PARAMETER;

  053cc	e3a03057	 mov         r3, #0x57
  053d0	e58d3004	 str         r3, [sp, #4]

; 1050 :     SETFNAME();

  053d4	e59f311c	 ldr         r3, [pc, #0x11C]
  053d8	e58d3000	 str         r3, [sp]

; 1051 :     FUNCTION_ENTER_MSG();

  053dc	e59f310c	 ldr         r3, [pc, #0x10C]
  053e0	e5933440	 ldr         r3, [r3, #0x440]
  053e4	e3130a01	 tst         r3, #1, 20
  053e8	0a00000d	 beq         |$LN6@ResetEndpo@3|
  053ec	e59f30fc	 ldr         r3, [pc, #0xFC]
  053f0	e5933440	 ldr         r3, [r3, #0x440]
  053f4	e3130801	 tst         r3, #1, 16
  053f8	0a000003	 beq         |$LN4@ResetEndpo@3|
  053fc	e59d1000	 ldr         r1, [sp]
  05400	e59f00ec	 ldr         r0, [pc, #0xEC]
  05404	eb000000	 bl          CeLogMsg
  05408	ea000002	 b           |$LN5@ResetEndpo@3|
  0540c		 |$LN4@ResetEndpo@3|
  0540c	e59d1000	 ldr         r1, [sp]
  05410	e59f00dc	 ldr         r0, [pc, #0xDC]
  05414	eb000000	 bl          NKDbgPrintfW
  05418		 |$LN5@ResetEndpo@3|
  05418	e3a03001	 mov         r3, #1
  0541c	e58d3010	 str         r3, [sp, #0x10]
  05420	ea000001	 b           |$LN7@ResetEndpo@3|
  05424		 |$LN6@ResetEndpo@3|
  05424	e3a03000	 mov         r3, #0
  05428	e58d3010	 str         r3, [sp, #0x10]
  0542c		 |$LN7@ResetEndpo@3|

; 1052 :     BulEndpoint *pEndpoint =  ObjectIndex(dwEndpoint);

  0542c	e59d102c	 ldr         r1, [sp, #0x2C]
  05430	e59d3028	 ldr         r3, [sp, #0x28]
  05434	e2830018	 add         r0, r3, #0x18
  05438	eb000000	 bl          |?ObjectIndex@?$CStaticContainer@VBulEndpoint@@$0BI@@@QAAPAVBulEndpoint@@K@Z|
  0543c	e58d0014	 str         r0, [sp, #0x14]
  05440	e59d3014	 ldr         r3, [sp, #0x14]
  05444	e58d3008	 str         r3, [sp, #8]

; 1053 :     if (pEndpoint) {

  05448	e59d3008	 ldr         r3, [sp, #8]
  0544c	e3530000	 cmp         r3, #0
  05450	0a00000b	 beq         |$LN1@ResetEndpo@3|

; 1054 :         dwError = pEndpoint->ResetEndpoint();

  05454	e59d3008	 ldr         r3, [sp, #8]
  05458	e5933000	 ldr         r3, [r3]
  0545c	e283301c	 add         r3, r3, #0x1C
  05460	e59d0008	 ldr         r0, [sp, #8]
  05464	e5933000	 ldr         r3, [r3]
  05468	e1a0e00f	 mov         lr, pc
  0546c	e12fff13	 bx          r3
  05470	e58d0018	 str         r0, [sp, #0x18]
  05474	e59d3018	 ldr         r3, [sp, #0x18]
  05478	e58d3004	 str         r3, [sp, #4]

; 1055 :         pEndpoint->DeRef();

  0547c	e59d0008	 ldr         r0, [sp, #8]
  05480	eb000000	 bl          |?DeRef@CRefObject@@QAAKXZ|
  05484		 |$LN1@ResetEndpo@3|

; 1056 :     }
; 1057 :     FUNCTION_LEAVE_MSG();

  05484	e59f3064	 ldr         r3, [pc, #0x64]
  05488	e5933440	 ldr         r3, [r3, #0x440]
  0548c	e3130a01	 tst         r3, #1, 20
  05490	0a00000d	 beq         |$LN10@ResetEndpo@3|
  05494	e59f3054	 ldr         r3, [pc, #0x54]
  05498	e5933440	 ldr         r3, [r3, #0x440]
  0549c	e3130801	 tst         r3, #1, 16
  054a0	0a000003	 beq         |$LN8@ResetEndpo@3|
  054a4	e59d1000	 ldr         r1, [sp]
  054a8	e59f003c	 ldr         r0, [pc, #0x3C]
  054ac	eb000000	 bl          CeLogMsg
  054b0	ea000002	 b           |$LN9@ResetEndpo@3|
  054b4		 |$LN8@ResetEndpo@3|
  054b4	e59d1000	 ldr         r1, [sp]
  054b8	e59f002c	 ldr         r0, [pc, #0x2C]
  054bc	eb000000	 bl          NKDbgPrintfW
  054c0		 |$LN9@ResetEndpo@3|
  054c0	e3a03001	 mov         r3, #1
  054c4	e58d301c	 str         r3, [sp, #0x1C]
  054c8	ea000001	 b           |$LN11@ResetEndpo@3|
  054cc		 |$LN10@ResetEndpo@3|
  054cc	e3a03000	 mov         r3, #0
  054d0	e58d301c	 str         r3, [sp, #0x1C]
  054d4		 |$LN11@ResetEndpo@3|

; 1058 :     return dwError;    

  054d4	e59d3004	 ldr         r3, [sp, #4]
  054d8	e58d300c	 str         r3, [sp, #0xC]

; 1059 :     
; 1060 : }

  054dc	e59d000c	 ldr         r0, [sp, #0xC]
  054e0	e28dd020	 add         sp, sp, #0x20
  054e4	e89d6000	 ldmia       sp, {sp, lr}
  054e8	e12fff1e	 bx          lr
  054ec		 |$LN15@ResetEndpo@3|
  054ec		 |$LN16@ResetEndpo@3|
  054ec	00000000	 DCD         |??_C@_1BA@PLOOFDPK@?$AA?$CF?$AAs?$AA?5?$AA?9?$AA?9?$AA?$AN?$AA?6?$AA?$AA@|
  054f0		 |$LN17@ResetEndpo@3|
  054f0	00000000	 DCD         |dpCurSettings|
  054f4		 |$LN18@ResetEndpo@3|
  054f4	00000000	 DCD         |??_C@_1BA@DAJPCKDK@?$AA?$CF?$AAs?$AA?5?$AA?$CL?$AA?$CL?$AA?$AN?$AA?6?$AA?$AA@|
  054f8		 |$LN19@ResetEndpo@3|
  054f8	00000000	 DCD         |??_C@_1FI@EHHLELLO@?$AAb?$AAu?$AAl?$AAv?$AAe?$AAr?$AAd?$AAe?$AA_?$AAu?$AAs?$AAb?$AAf?$AAn?$AA?$CB?$AAB?$AAu?$AAl?$AAU?$AAs?$AAb?$AAD?$AAe?$AAv?$AAi?$AAc?$AAe?$AA?3?$AA?3?$AAR?$AAe?$AAs@|
  054fc		 |$M39502|

			 ENDP  ; |?ResetEndpoint@BulUsbDevice@@UAAKK@Z|, BulUsbDevice::ResetEndpoint

	EXPORT	|??_C@_1FO@IEGJBHNN@?$AAb?$AAu?$AAl?$AAv?$AAe?$AAr?$AAd?$AAe?$AA_?$AAu?$AAs?$AAb?$AAf?$AAn?$AA?$CB?$AAB?$AAu?$AAl?$AAU?$AAs?$AAb?$AAD?$AAe?$AAv?$AAi?$AAc?$AAe?$AA?3?$AA?3?$AAI?$AAs?$AAE@| [ DATA ] ; `string'

  00118			 AREA	 |.pdata|, PDATA
|$T39523| DCD	|$LN14@IsEndpoint@3|
	DCD	0x40005104

  00000			 AREA	 |.rdata|, DATA, READONLY
|??_C@_1FO@IEGJBHNN@?$AAb?$AAu?$AAl?$AAv?$AAe?$AAr?$AAd?$AAe?$AA_?$AAu?$AAs?$AAb?$AAf?$AAn?$AA?$CB?$AAB?$AAu?$AAl?$AAU?$AAs?$AAb?$AAD?$AAe?$AAv?$AAi?$AAc?$AAe?$AA?3?$AA?3?$AAI?$AAs?$AAE@| DCB "b"
	DCB	0x0, "u", 0x0, "l", 0x0, "v", 0x0, "e", 0x0, "r", 0x0, "d"
	DCB	0x0, "e", 0x0, "_", 0x0, "u", 0x0, "s", 0x0, "b", 0x0, "f"
	DCB	0x0, "n", 0x0, "!", 0x0, "B", 0x0, "u", 0x0, "l", 0x0, "U"
	DCB	0x0, "s", 0x0, "b", 0x0, "D", 0x0, "e", 0x0, "v", 0x0, "i"
	DCB	0x0, "c", 0x0, "e", 0x0, ":", 0x0, ":", 0x0, "I", 0x0, "s"
	DCB	0x0, "E", 0x0, "n", 0x0, "d", 0x0, "p", 0x0, "o", 0x0, "i"
	DCB	0x0, "n", 0x0, "t", 0x0, "H", 0x0, "a", 0x0, "l", 0x0, "t"
	DCB	0x0, "e", 0x0, "d", 0x0, ":", 0x0, 0x0, 0x0 ; `string'
; Function compile flags: /Odtp

  054fc			 AREA	 |.text|, CODE, ARM

  054fc		 |?IsEndpointHalted@BulUsbDevice@@UAAKKPAH@Z| PROC ; BulUsbDevice::IsEndpointHalted

; 1062 : {

  054fc		 |$LN14@IsEndpoint@3|
  054fc	e1a0c00d	 mov         r12, sp
  05500	e92d0007	 stmdb       sp!, {r0 - r2}
  05504	e92d5000	 stmdb       sp!, {r12, lr}
  05508	e24dd020	 sub         sp, sp, #0x20
  0550c		 |$M39520|

; 1063 :     DWORD dwError = ERROR_INVALID_PARAMETER;

  0550c	e3a03057	 mov         r3, #0x57
  05510	e58d3004	 str         r3, [sp, #4]

; 1064 :     SETFNAME();

  05514	e59f3120	 ldr         r3, [pc, #0x120]
  05518	e58d3000	 str         r3, [sp]

; 1065 :     FUNCTION_ENTER_MSG();

  0551c	e59f3110	 ldr         r3, [pc, #0x110]
  05520	e5933440	 ldr         r3, [r3, #0x440]
  05524	e3130a01	 tst         r3, #1, 20
  05528	0a00000d	 beq         |$LN6@IsEndpoint@3|
  0552c	e59f3100	 ldr         r3, [pc, #0x100]
  05530	e5933440	 ldr         r3, [r3, #0x440]
  05534	e3130801	 tst         r3, #1, 16
  05538	0a000003	 beq         |$LN4@IsEndpoint@3|
  0553c	e59d1000	 ldr         r1, [sp]
  05540	e59f00f0	 ldr         r0, [pc, #0xF0]
  05544	eb000000	 bl          CeLogMsg
  05548	ea000002	 b           |$LN5@IsEndpoint@3|
  0554c		 |$LN4@IsEndpoint@3|
  0554c	e59d1000	 ldr         r1, [sp]
  05550	e59f00e0	 ldr         r0, [pc, #0xE0]
  05554	eb000000	 bl          NKDbgPrintfW
  05558		 |$LN5@IsEndpoint@3|
  05558	e3a03001	 mov         r3, #1
  0555c	e58d3010	 str         r3, [sp, #0x10]
  05560	ea000001	 b           |$LN7@IsEndpoint@3|
  05564		 |$LN6@IsEndpoint@3|
  05564	e3a03000	 mov         r3, #0
  05568	e58d3010	 str         r3, [sp, #0x10]
  0556c		 |$LN7@IsEndpoint@3|

; 1066 :     BulEndpoint *pEndpoint =  ObjectIndex(dwEndpoint);

  0556c	e59d102c	 ldr         r1, [sp, #0x2C]
  05570	e59d3028	 ldr         r3, [sp, #0x28]
  05574	e2830018	 add         r0, r3, #0x18
  05578	eb000000	 bl          |?ObjectIndex@?$CStaticContainer@VBulEndpoint@@$0BI@@@QAAPAVBulEndpoint@@K@Z|
  0557c	e58d0014	 str         r0, [sp, #0x14]
  05580	e59d3014	 ldr         r3, [sp, #0x14]
  05584	e58d3008	 str         r3, [sp, #8]

; 1067 :     if (pEndpoint) {

  05588	e59d3008	 ldr         r3, [sp, #8]
  0558c	e3530000	 cmp         r3, #0
  05590	0a00000c	 beq         |$LN1@IsEndpoint@3|

; 1068 :         dwError = pEndpoint->IsEndpointHalted(pfHalted);

  05594	e59d1030	 ldr         r1, [sp, #0x30]
  05598	e59d3008	 ldr         r3, [sp, #8]
  0559c	e5933000	 ldr         r3, [r3]
  055a0	e2833020	 add         r3, r3, #0x20
  055a4	e59d0008	 ldr         r0, [sp, #8]
  055a8	e5933000	 ldr         r3, [r3]
  055ac	e1a0e00f	 mov         lr, pc
  055b0	e12fff13	 bx          r3
  055b4	e58d0018	 str         r0, [sp, #0x18]
  055b8	e59d3018	 ldr         r3, [sp, #0x18]
  055bc	e58d3004	 str         r3, [sp, #4]

; 1069 :         pEndpoint->DeRef();

  055c0	e59d0008	 ldr         r0, [sp, #8]
  055c4	eb000000	 bl          |?DeRef@CRefObject@@QAAKXZ|
  055c8		 |$LN1@IsEndpoint@3|

; 1070 :     }
; 1071 :     FUNCTION_LEAVE_MSG();

  055c8	e59f3064	 ldr         r3, [pc, #0x64]
  055cc	e5933440	 ldr         r3, [r3, #0x440]
  055d0	e3130a01	 tst         r3, #1, 20
  055d4	0a00000d	 beq         |$LN10@IsEndpoint@3|
  055d8	e59f3054	 ldr         r3, [pc, #0x54]
  055dc	e5933440	 ldr         r3, [r3, #0x440]
  055e0	e3130801	 tst         r3, #1, 16
  055e4	0a000003	 beq         |$LN8@IsEndpoint@3|
  055e8	e59d1000	 ldr         r1, [sp]
  055ec	e59f003c	 ldr         r0, [pc, #0x3C]
  055f0	eb000000	 bl          CeLogMsg
  055f4	ea000002	 b           |$LN9@IsEndpoint@3|
  055f8		 |$LN8@IsEndpoint@3|
  055f8	e59d1000	 ldr         r1, [sp]
  055fc	e59f002c	 ldr         r0, [pc, #0x2C]
  05600	eb000000	 bl          NKDbgPrintfW
  05604		 |$LN9@IsEndpoint@3|
  05604	e3a03001	 mov         r3, #1
  05608	e58d301c	 str         r3, [sp, #0x1C]
  0560c	ea000001	 b           |$LN11@IsEndpoint@3|
  05610		 |$LN10@IsEndpoint@3|
  05610	e3a03000	 mov         r3, #0
  05614	e58d301c	 str         r3, [sp, #0x1C]
  05618		 |$LN11@IsEndpoint@3|

; 1072 :     return dwError;    

  05618	e59d3004	 ldr         r3, [sp, #4]
  0561c	e58d300c	 str         r3, [sp, #0xC]

; 1073 : }

  05620	e59d000c	 ldr         r0, [sp, #0xC]
  05624	e28dd020	 add         sp, sp, #0x20
  05628	e89d6000	 ldmia       sp, {sp, lr}
  0562c	e12fff1e	 bx          lr
  05630		 |$LN15@IsEndpoint@3|
  05630		 |$LN16@IsEndpoint@3|
  05630	00000000	 DCD         |??_C@_1BA@PLOOFDPK@?$AA?$CF?$AAs?$AA?5?$AA?9?$AA?9?$AA?$AN?$AA?6?$AA?$AA@|
  05634		 |$LN17@IsEndpoint@3|
  05634	00000000	 DCD         |dpCurSettings|
  05638		 |$LN18@IsEndpoint@3|
  05638	00000000	 DCD         |??_C@_1BA@DAJPCKDK@?$AA?$CF?$AAs?$AA?5?$AA?$CL?$AA?$CL?$AA?$AN?$AA?6?$AA?$AA@|
  0563c		 |$LN19@IsEndpoint@3|
  0563c	00000000	 DCD         |??_C@_1FO@IEGJBHNN@?$AAb?$AAu?$AAl?$AAv?$AAe?$AAr?$AAd?$AAe?$AA_?$AAu?$AAs?$AAb?$AAf?$AAn?$AA?$CB?$AAB?$AAu?$AAl?$AAU?$AAs?$AAb?$AAD?$AAe?$AAv?$AAi?$AAc?$AAe?$AA?3?$AA?3?$AAI?$AAs?$AAE@|
  05640		 |$M39521|

			 ENDP  ; |?IsEndpointHalted@BulUsbDevice@@UAAKKPAH@Z|, BulUsbDevice::IsEndpointHalted

	EXPORT	|??_C@_1FI@IHLGMHLH@?$AAb?$AAu?$AAl?$AAv?$AAe?$AAr?$AAd?$AAe?$AA_?$AAu?$AAs?$AAb?$AAf?$AAn?$AA?$CB?$AAB?$AAu?$AAl?$AAU?$AAs?$AAb?$AAD?$AAe?$AAv?$AAi?$AAc?$AAe?$AA?3?$AA?3?$AAI?$AAs?$AAs@| [ DATA ] ; `string'

  00120			 AREA	 |.pdata|, PDATA
|$T39542| DCD	|$LN14@IssueTrans@3|
	DCD	0x40005104

  00000			 AREA	 |.rdata|, DATA, READONLY
|??_C@_1FI@IHLGMHLH@?$AAb?$AAu?$AAl?$AAv?$AAe?$AAr?$AAd?$AAe?$AA_?$AAu?$AAs?$AAb?$AAf?$AAn?$AA?$CB?$AAB?$AAu?$AAl?$AAU?$AAs?$AAb?$AAD?$AAe?$AAv?$AAi?$AAc?$AAe?$AA?3?$AA?3?$AAI?$AAs?$AAs@| DCB "b"
	DCB	0x0, "u", 0x0, "l", 0x0, "v", 0x0, "e", 0x0, "r", 0x0, "d"
	DCB	0x0, "e", 0x0, "_", 0x0, "u", 0x0, "s", 0x0, "b", 0x0, "f"
	DCB	0x0, "n", 0x0, "!", 0x0, "B", 0x0, "u", 0x0, "l", 0x0, "U"
	DCB	0x0, "s", 0x0, "b", 0x0, "D", 0x0, "e", 0x0, "v", 0x0, "i"
	DCB	0x0, "c", 0x0, "e", 0x0, ":", 0x0, ":", 0x0, "I", 0x0, "s"
	DCB	0x0, "s", 0x0, "u", 0x0, "e", 0x0, "T", 0x0, "r", 0x0, "a"
	DCB	0x0, "n", 0x0, "s", 0x0, "f", 0x0, "e", 0x0, "r", 0x0, ":"
	DCB	0x0, 0x0, 0x0				; `string'
; Function compile flags: /Odtp

  05640			 AREA	 |.text|, CODE, ARM

  05640		 |?IssueTransfer@BulUsbDevice@@UAAKKPAU_STransfer@@@Z| PROC ; BulUsbDevice::IssueTransfer

; 1075 : {

  05640		 |$LN14@IssueTrans@3|
  05640	e1a0c00d	 mov         r12, sp
  05644	e92d0007	 stmdb       sp!, {r0 - r2}
  05648	e92d5000	 stmdb       sp!, {r12, lr}
  0564c	e24dd020	 sub         sp, sp, #0x20
  05650		 |$M39539|

; 1076 :     DWORD dwError = ERROR_INVALID_PARAMETER;

  05650	e3a03057	 mov         r3, #0x57
  05654	e58d3004	 str         r3, [sp, #4]

; 1077 :     SETFNAME();

  05658	e59f3120	 ldr         r3, [pc, #0x120]
  0565c	e58d3000	 str         r3, [sp]

; 1078 :     FUNCTION_ENTER_MSG();

  05660	e59f3110	 ldr         r3, [pc, #0x110]
  05664	e5933440	 ldr         r3, [r3, #0x440]
  05668	e3130a01	 tst         r3, #1, 20
  0566c	0a00000d	 beq         |$LN6@IssueTrans@3|
  05670	e59f3100	 ldr         r3, [pc, #0x100]
  05674	e5933440	 ldr         r3, [r3, #0x440]
  05678	e3130801	 tst         r3, #1, 16
  0567c	0a000003	 beq         |$LN4@IssueTrans@3|
  05680	e59d1000	 ldr         r1, [sp]
  05684	e59f00f0	 ldr         r0, [pc, #0xF0]
  05688	eb000000	 bl          CeLogMsg
  0568c	ea000002	 b           |$LN5@IssueTrans@3|
  05690		 |$LN4@IssueTrans@3|
  05690	e59d1000	 ldr         r1, [sp]
  05694	e59f00e0	 ldr         r0, [pc, #0xE0]
  05698	eb000000	 bl          NKDbgPrintfW
  0569c		 |$LN5@IssueTrans@3|
  0569c	e3a03001	 mov         r3, #1
  056a0	e58d3010	 str         r3, [sp, #0x10]
  056a4	ea000001	 b           |$LN7@IssueTrans@3|
  056a8		 |$LN6@IssueTrans@3|
  056a8	e3a03000	 mov         r3, #0
  056ac	e58d3010	 str         r3, [sp, #0x10]
  056b0		 |$LN7@IssueTrans@3|

; 1079 :     BulEndpoint *pEndpoint =  ObjectIndex(dwEndpoint);

  056b0	e59d102c	 ldr         r1, [sp, #0x2C]
  056b4	e59d3028	 ldr         r3, [sp, #0x28]
  056b8	e2830018	 add         r0, r3, #0x18
  056bc	eb000000	 bl          |?ObjectIndex@?$CStaticContainer@VBulEndpoint@@$0BI@@@QAAPAVBulEndpoint@@K@Z|
  056c0	e58d0014	 str         r0, [sp, #0x14]
  056c4	e59d3014	 ldr         r3, [sp, #0x14]
  056c8	e58d3008	 str         r3, [sp, #8]

; 1080 :     if (pEndpoint) {

  056cc	e59d3008	 ldr         r3, [sp, #8]
  056d0	e3530000	 cmp         r3, #0
  056d4	0a00000c	 beq         |$LN1@IssueTrans@3|

; 1081 :         dwError = pEndpoint->IssueTransfer(pTransfer);

  056d8	e59d1030	 ldr         r1, [sp, #0x30]
  056dc	e59d3008	 ldr         r3, [sp, #8]
  056e0	e5933000	 ldr         r3, [r3]
  056e4	e2833024	 add         r3, r3, #0x24
  056e8	e59d0008	 ldr         r0, [sp, #8]
  056ec	e5933000	 ldr         r3, [r3]
  056f0	e1a0e00f	 mov         lr, pc
  056f4	e12fff13	 bx          r3
  056f8	e58d0018	 str         r0, [sp, #0x18]
  056fc	e59d3018	 ldr         r3, [sp, #0x18]
  05700	e58d3004	 str         r3, [sp, #4]

; 1082 :         pEndpoint->DeRef();

  05704	e59d0008	 ldr         r0, [sp, #8]
  05708	eb000000	 bl          |?DeRef@CRefObject@@QAAKXZ|
  0570c		 |$LN1@IssueTrans@3|

; 1083 :     }
; 1084 :     FUNCTION_LEAVE_MSG();

  0570c	e59f3064	 ldr         r3, [pc, #0x64]
  05710	e5933440	 ldr         r3, [r3, #0x440]
  05714	e3130a01	 tst         r3, #1, 20
  05718	0a00000d	 beq         |$LN10@IssueTrans@3|
  0571c	e59f3054	 ldr         r3, [pc, #0x54]
  05720	e5933440	 ldr         r3, [r3, #0x440]
  05724	e3130801	 tst         r3, #1, 16
  05728	0a000003	 beq         |$LN8@IssueTrans@3|
  0572c	e59d1000	 ldr         r1, [sp]
  05730	e59f003c	 ldr         r0, [pc, #0x3C]
  05734	eb000000	 bl          CeLogMsg
  05738	ea000002	 b           |$LN9@IssueTrans@3|
  0573c		 |$LN8@IssueTrans@3|
  0573c	e59d1000	 ldr         r1, [sp]
  05740	e59f002c	 ldr         r0, [pc, #0x2C]
  05744	eb000000	 bl          NKDbgPrintfW
  05748		 |$LN9@IssueTrans@3|
  05748	e3a03001	 mov         r3, #1
  0574c	e58d301c	 str         r3, [sp, #0x1C]
  05750	ea000001	 b           |$LN11@IssueTrans@3|
  05754		 |$LN10@IssueTrans@3|
  05754	e3a03000	 mov         r3, #0
  05758	e58d301c	 str         r3, [sp, #0x1C]
  0575c		 |$LN11@IssueTrans@3|

; 1085 :     return dwError;    

  0575c	e59d3004	 ldr         r3, [sp, #4]
  05760	e58d300c	 str         r3, [sp, #0xC]

; 1086 : }

  05764	e59d000c	 ldr         r0, [sp, #0xC]
  05768	e28dd020	 add         sp, sp, #0x20
  0576c	e89d6000	 ldmia       sp, {sp, lr}
  05770	e12fff1e	 bx          lr
  05774		 |$LN15@IssueTrans@3|
  05774		 |$LN16@IssueTrans@3|
  05774	00000000	 DCD         |??_C@_1BA@PLOOFDPK@?$AA?$CF?$AAs?$AA?5?$AA?9?$AA?9?$AA?$AN?$AA?6?$AA?$AA@|
  05778		 |$LN17@IssueTrans@3|
  05778	00000000	 DCD         |dpCurSettings|
  0577c		 |$LN18@IssueTrans@3|
  0577c	00000000	 DCD         |??_C@_1BA@DAJPCKDK@?$AA?$CF?$AAs?$AA?5?$AA?$CL?$AA?$CL?$AA?$AN?$AA?6?$AA?$AA@|
  05780		 |$LN19@IssueTrans@3|
  05780	00000000	 DCD         |??_C@_1FI@IHLGMHLH@?$AAb?$AAu?$AAl?$AAv?$AAe?$AAr?$AAd?$AAe?$AA_?$AAu?$AAs?$AAb?$AAf?$AAn?$AA?$CB?$AAB?$AAu?$AAl?$AAU?$AAs?$AAb?$AAD?$AAe?$AAv?$AAi?$AAc?$AAe?$AA?3?$AA?3?$AAI?$AAs?$AAs@|
  05784		 |$M39540|

			 ENDP  ; |?IssueTransfer@BulUsbDevice@@UAAKKPAU_STransfer@@@Z|, BulUsbDevice::IssueTransfer

	EXPORT	|??_C@_1FI@PPACAMJH@?$AAb?$AAu?$AAl?$AAv?$AAe?$AAr?$AAd?$AAe?$AA_?$AAu?$AAs?$AAb?$AAf?$AAn?$AA?$CB?$AAB?$AAu?$AAl?$AAU?$AAs?$AAb?$AAD?$AAe?$AAv?$AAi?$AAc?$AAe?$AA?3?$AA?3?$AAA?$AAb?$AAo@| [ DATA ] ; `string'

  00128			 AREA	 |.pdata|, PDATA
|$T39561| DCD	|$LN15@AbortTrans@2|
	DCD	0x40005404

  00000			 AREA	 |.rdata|, DATA, READONLY
|??_C@_1FI@PPACAMJH@?$AAb?$AAu?$AAl?$AAv?$AAe?$AAr?$AAd?$AAe?$AA_?$AAu?$AAs?$AAb?$AAf?$AAn?$AA?$CB?$AAB?$AAu?$AAl?$AAU?$AAs?$AAb?$AAD?$AAe?$AAv?$AAi?$AAc?$AAe?$AA?3?$AA?3?$AAA?$AAb?$AAo@| DCB "b"
	DCB	0x0, "u", 0x0, "l", 0x0, "v", 0x0, "e", 0x0, "r", 0x0, "d"
	DCB	0x0, "e", 0x0, "_", 0x0, "u", 0x0, "s", 0x0, "b", 0x0, "f"
	DCB	0x0, "n", 0x0, "!", 0x0, "B", 0x0, "u", 0x0, "l", 0x0, "U"
	DCB	0x0, "s", 0x0, "b", 0x0, "D", 0x0, "e", 0x0, "v", 0x0, "i"
	DCB	0x0, "c", 0x0, "e", 0x0, ":", 0x0, ":", 0x0, "A", 0x0, "b"
	DCB	0x0, "o", 0x0, "r", 0x0, "t", 0x0, "T", 0x0, "r", 0x0, "a"
	DCB	0x0, "n", 0x0, "s", 0x0, "f", 0x0, "e", 0x0, "r", 0x0, ":"
	DCB	0x0, 0x0, 0x0				; `string'
; Function compile flags: /Odtp

  05784			 AREA	 |.text|, CODE, ARM

  05784		 |?AbortTransfer@BulUsbDevice@@UAAKKPAU_STransfer@@@Z| PROC ; BulUsbDevice::AbortTransfer

; 1088 : {

  05784		 |$LN15@AbortTrans@2|
  05784	e1a0c00d	 mov         r12, sp
  05788	e92d0007	 stmdb       sp!, {r0 - r2}
  0578c	e92d5000	 stmdb       sp!, {r12, lr}
  05790	e24dd020	 sub         sp, sp, #0x20
  05794		 |$M39558|

; 1089 :     DWORD dwError = ERROR_INVALID_PARAMETER;

  05794	e3a03057	 mov         r3, #0x57
  05798	e58d3004	 str         r3, [sp, #4]

; 1090 :     SETFNAME();

  0579c	e59f312c	 ldr         r3, [pc, #0x12C]
  057a0	e58d3000	 str         r3, [sp]

; 1091 :     FUNCTION_ENTER_MSG();

  057a4	e59f311c	 ldr         r3, [pc, #0x11C]
  057a8	e5933440	 ldr         r3, [r3, #0x440]
  057ac	e3130a01	 tst         r3, #1, 20
  057b0	0a00000d	 beq         |$LN7@AbortTrans@2|
  057b4	e59f310c	 ldr         r3, [pc, #0x10C]
  057b8	e5933440	 ldr         r3, [r3, #0x440]
  057bc	e3130801	 tst         r3, #1, 16
  057c0	0a000003	 beq         |$LN5@AbortTrans@2|
  057c4	e59d1000	 ldr         r1, [sp]
  057c8	e59f00fc	 ldr         r0, [pc, #0xFC]
  057cc	eb000000	 bl          CeLogMsg
  057d0	ea000002	 b           |$LN6@AbortTrans@2|
  057d4		 |$LN5@AbortTrans@2|
  057d4	e59d1000	 ldr         r1, [sp]
  057d8	e59f00ec	 ldr         r0, [pc, #0xEC]
  057dc	eb000000	 bl          NKDbgPrintfW
  057e0		 |$LN6@AbortTrans@2|
  057e0	e3a03001	 mov         r3, #1
  057e4	e58d3010	 str         r3, [sp, #0x10]
  057e8	ea000001	 b           |$LN8@AbortTrans@2|
  057ec		 |$LN7@AbortTrans@2|
  057ec	e3a03000	 mov         r3, #0
  057f0	e58d3010	 str         r3, [sp, #0x10]
  057f4		 |$LN8@AbortTrans@2|

; 1092 :     if (pTransfer) {

  057f4	e59d3030	 ldr         r3, [sp, #0x30]
  057f8	e3530000	 cmp         r3, #0
  057fc	0a000016	 beq         |$LN2@AbortTrans@2|

; 1093 :         BulEndpoint *pEndpoint =  ObjectIndex(dwEndpoint);

  05800	e59d102c	 ldr         r1, [sp, #0x2C]
  05804	e59d3028	 ldr         r3, [sp, #0x28]
  05808	e2830018	 add         r0, r3, #0x18
  0580c	eb000000	 bl          |?ObjectIndex@?$CStaticContainer@VBulEndpoint@@$0BI@@@QAAPAVBulEndpoint@@K@Z|
  05810	e58d0014	 str         r0, [sp, #0x14]
  05814	e59d3014	 ldr         r3, [sp, #0x14]
  05818	e58d3008	 str         r3, [sp, #8]

; 1094 :         if (pEndpoint) {

  0581c	e59d3008	 ldr         r3, [sp, #8]
  05820	e3530000	 cmp         r3, #0
  05824	0a00000c	 beq         |$LN1@AbortTrans@2|

; 1095 :             dwError = pEndpoint->AbortTransfer(pTransfer);

  05828	e59d1030	 ldr         r1, [sp, #0x30]
  0582c	e59d3008	 ldr         r3, [sp, #8]
  05830	e5933000	 ldr         r3, [r3]
  05834	e2833028	 add         r3, r3, #0x28
  05838	e59d0008	 ldr         r0, [sp, #8]
  0583c	e5933000	 ldr         r3, [r3]
  05840	e1a0e00f	 mov         lr, pc
  05844	e12fff13	 bx          r3
  05848	e58d0018	 str         r0, [sp, #0x18]
  0584c	e59d3018	 ldr         r3, [sp, #0x18]
  05850	e58d3004	 str         r3, [sp, #4]

; 1096 :             pEndpoint->DeRef();

  05854	e59d0008	 ldr         r0, [sp, #8]
  05858	eb000000	 bl          |?DeRef@CRefObject@@QAAKXZ|
  0585c		 |$LN1@AbortTrans@2|
  0585c		 |$LN2@AbortTrans@2|

; 1097 :         }
; 1098 :     }
; 1099 :     FUNCTION_LEAVE_MSG();

  0585c	e59f3064	 ldr         r3, [pc, #0x64]
  05860	e5933440	 ldr         r3, [r3, #0x440]
  05864	e3130a01	 tst         r3, #1, 20
  05868	0a00000d	 beq         |$LN11@AbortTrans@2|
  0586c	e59f3054	 ldr         r3, [pc, #0x54]
  05870	e5933440	 ldr         r3, [r3, #0x440]
  05874	e3130801	 tst         r3, #1, 16
  05878	0a000003	 beq         |$LN9@AbortTrans@2|
  0587c	e59d1000	 ldr         r1, [sp]
  05880	e59f003c	 ldr         r0, [pc, #0x3C]
  05884	eb000000	 bl          CeLogMsg
  05888	ea000002	 b           |$LN10@AbortTrans@2|
  0588c		 |$LN9@AbortTrans@2|
  0588c	e59d1000	 ldr         r1, [sp]
  05890	e59f002c	 ldr         r0, [pc, #0x2C]
  05894	eb000000	 bl          NKDbgPrintfW
  05898		 |$LN10@AbortTrans@2|
  05898	e3a03001	 mov         r3, #1
  0589c	e58d301c	 str         r3, [sp, #0x1C]
  058a0	ea000001	 b           |$LN12@AbortTrans@2|
  058a4		 |$LN11@AbortTrans@2|
  058a4	e3a03000	 mov         r3, #0
  058a8	e58d301c	 str         r3, [sp, #0x1C]
  058ac		 |$LN12@AbortTrans@2|

; 1100 :     return dwError;    

  058ac	e59d3004	 ldr         r3, [sp, #4]
  058b0	e58d300c	 str         r3, [sp, #0xC]

; 1101 : }

  058b4	e59d000c	 ldr         r0, [sp, #0xC]
  058b8	e28dd020	 add         sp, sp, #0x20
  058bc	e89d6000	 ldmia       sp, {sp, lr}
  058c0	e12fff1e	 bx          lr
  058c4		 |$LN16@AbortTrans@2|
  058c4		 |$LN17@AbortTrans@2|
  058c4	00000000	 DCD         |??_C@_1BA@PLOOFDPK@?$AA?$CF?$AAs?$AA?5?$AA?9?$AA?9?$AA?$AN?$AA?6?$AA?$AA@|
  058c8		 |$LN18@AbortTrans@2|
  058c8	00000000	 DCD         |dpCurSettings|
  058cc		 |$LN19@AbortTrans@2|
  058cc	00000000	 DCD         |??_C@_1BA@DAJPCKDK@?$AA?$CF?$AAs?$AA?5?$AA?$CL?$AA?$CL?$AA?$AN?$AA?6?$AA?$AA@|
  058d0		 |$LN20@AbortTrans@2|
  058d0	00000000	 DCD         |??_C@_1FI@PPACAMJH@?$AAb?$AAu?$AAl?$AAv?$AAe?$AAr?$AAd?$AAe?$AA_?$AAu?$AAs?$AAb?$AAf?$AAn?$AA?$CB?$AAB?$AAu?$AAl?$AAU?$AAs?$AAb?$AAD?$AAe?$AAv?$AAi?$AAc?$AAe?$AA?3?$AA?3?$AAA?$AAb?$AAo@|
  058d4		 |$M39559|

			 ENDP  ; |?AbortTransfer@BulUsbDevice@@UAAKKPAU_STransfer@@@Z|, BulUsbDevice::AbortTransfer

	EXPORT	|??_C@_1HC@IMCLHAFG@?$AAb?$AAu?$AAl?$AAv?$AAe?$AAr?$AAd?$AAe?$AA_?$AAu?$AAs?$AAb?$AAf?$AAn?$AA?$CB?$AAB?$AAu?$AAl?$AAU?$AAs?$AAb?$AAD?$AAe?$AAv?$AAi?$AAc?$AAe?$AA?3?$AA?3?$AAS?$AAe?$AAn@| [ DATA ] ; `string'

  00130			 AREA	 |.pdata|, PDATA
|$T39580| DCD	|$LN14@SendContro@3|
	DCD	0x40005004

  00000			 AREA	 |.rdata|, DATA, READONLY
|??_C@_1HC@IMCLHAFG@?$AAb?$AAu?$AAl?$AAv?$AAe?$AAr?$AAd?$AAe?$AA_?$AAu?$AAs?$AAb?$AAf?$AAn?$AA?$CB?$AAB?$AAu?$AAl?$AAU?$AAs?$AAb?$AAD?$AAe?$AAv?$AAi?$AAc?$AAe?$AA?3?$AA?3?$AAS?$AAe?$AAn@| DCB "b"
	DCB	0x0, "u", 0x0, "l", 0x0, "v", 0x0, "e", 0x0, "r", 0x0, "d"
	DCB	0x0, "e", 0x0, "_", 0x0, "u", 0x0, "s", 0x0, "b", 0x0, "f"
	DCB	0x0, "n", 0x0, "!", 0x0, "B", 0x0, "u", 0x0, "l", 0x0, "U"
	DCB	0x0, "s", 0x0, "b", 0x0, "D", 0x0, "e", 0x0, "v", 0x0, "i"
	DCB	0x0, "c", 0x0, "e", 0x0, ":", 0x0, ":", 0x0, "S", 0x0, "e"
	DCB	0x0, "n", 0x0, "d", 0x0, "C", 0x0, "o", 0x0, "n", 0x0, "t"
	DCB	0x0, "r", 0x0, "o", 0x0, "l", 0x0, "S", 0x0, "t", 0x0, "a"
	DCB	0x0, "t", 0x0, "u", 0x0, "s", 0x0, "H", 0x0, "a", 0x0, "n"
	DCB	0x0, "d", 0x0, "s", 0x0, "h", 0x0, "a", 0x0, "k", 0x0, "e"
	DCB	0x0, ":", 0x0, 0x0, 0x0			; `string'
; Function compile flags: /Odtp

  058d4			 AREA	 |.text|, CODE, ARM

  058d4		 |?SendControlStatusHandshake@BulUsbDevice@@UAAKK@Z| PROC ; BulUsbDevice::SendControlStatusHandshake

; 1105 : {

  058d4		 |$LN14@SendContro@3|
  058d4	e1a0c00d	 mov         r12, sp
  058d8	e92d0003	 stmdb       sp!, {r0, r1}
  058dc	e92d5000	 stmdb       sp!, {r12, lr}
  058e0	e24dd020	 sub         sp, sp, #0x20
  058e4		 |$M39577|

; 1106 :     DWORD dwError = ERROR_INVALID_PARAMETER;

  058e4	e3a03057	 mov         r3, #0x57
  058e8	e58d3004	 str         r3, [sp, #4]

; 1107 :     SETFNAME();

  058ec	e59f311c	 ldr         r3, [pc, #0x11C]
  058f0	e58d3000	 str         r3, [sp]

; 1108 :     FUNCTION_ENTER_MSG();

  058f4	e59f310c	 ldr         r3, [pc, #0x10C]
  058f8	e5933440	 ldr         r3, [r3, #0x440]
  058fc	e3130a01	 tst         r3, #1, 20
  05900	0a00000d	 beq         |$LN6@SendContro@3|
  05904	e59f30fc	 ldr         r3, [pc, #0xFC]
  05908	e5933440	 ldr         r3, [r3, #0x440]
  0590c	e3130801	 tst         r3, #1, 16
  05910	0a000003	 beq         |$LN4@SendContro@3|
  05914	e59d1000	 ldr         r1, [sp]
  05918	e59f00ec	 ldr         r0, [pc, #0xEC]
  0591c	eb000000	 bl          CeLogMsg
  05920	ea000002	 b           |$LN5@SendContro@3|
  05924		 |$LN4@SendContro@3|
  05924	e59d1000	 ldr         r1, [sp]
  05928	e59f00dc	 ldr         r0, [pc, #0xDC]
  0592c	eb000000	 bl          NKDbgPrintfW
  05930		 |$LN5@SendContro@3|
  05930	e3a03001	 mov         r3, #1
  05934	e58d3010	 str         r3, [sp, #0x10]
  05938	ea000001	 b           |$LN7@SendContro@3|
  0593c		 |$LN6@SendContro@3|
  0593c	e3a03000	 mov         r3, #0
  05940	e58d3010	 str         r3, [sp, #0x10]
  05944		 |$LN7@SendContro@3|

; 1109 :     BulEndpoint *pEndpoint =  ObjectIndex(0);

  05944	e3a01000	 mov         r1, #0
  05948	e59d3028	 ldr         r3, [sp, #0x28]
  0594c	e2830018	 add         r0, r3, #0x18
  05950	eb000000	 bl          |?ObjectIndex@?$CStaticContainer@VBulEndpoint@@$0BI@@@QAAPAVBulEndpoint@@K@Z|
  05954	e58d0014	 str         r0, [sp, #0x14]
  05958	e59d3014	 ldr         r3, [sp, #0x14]
  0595c	e58d3008	 str         r3, [sp, #8]

; 1110 :     if (pEndpoint) {

  05960	e59d3008	 ldr         r3, [sp, #8]
  05964	e3530000	 cmp         r3, #0
  05968	0a00000b	 beq         |$LN1@SendContro@3|

; 1111 :         dwError = pEndpoint->SendControlStatusHandshake();

  0596c	e59d3008	 ldr         r3, [sp, #8]
  05970	e5933000	 ldr         r3, [r3]
  05974	e283302c	 add         r3, r3, #0x2C
  05978	e59d0008	 ldr         r0, [sp, #8]
  0597c	e5933000	 ldr         r3, [r3]
  05980	e1a0e00f	 mov         lr, pc
  05984	e12fff13	 bx          r3
  05988	e58d0018	 str         r0, [sp, #0x18]
  0598c	e59d3018	 ldr         r3, [sp, #0x18]
  05990	e58d3004	 str         r3, [sp, #4]

; 1112 :         pEndpoint->DeRef();

  05994	e59d0008	 ldr         r0, [sp, #8]
  05998	eb000000	 bl          |?DeRef@CRefObject@@QAAKXZ|
  0599c		 |$LN1@SendContro@3|

; 1113 :     }
; 1114 :     FUNCTION_LEAVE_MSG();

  0599c	e59f3064	 ldr         r3, [pc, #0x64]
  059a0	e5933440	 ldr         r3, [r3, #0x440]
  059a4	e3130a01	 tst         r3, #1, 20
  059a8	0a00000d	 beq         |$LN10@SendContro@3|
  059ac	e59f3054	 ldr         r3, [pc, #0x54]
  059b0	e5933440	 ldr         r3, [r3, #0x440]
  059b4	e3130801	 tst         r3, #1, 16
  059b8	0a000003	 beq         |$LN8@SendContro@3|
  059bc	e59d1000	 ldr         r1, [sp]
  059c0	e59f003c	 ldr         r0, [pc, #0x3C]
  059c4	eb000000	 bl          CeLogMsg
  059c8	ea000002	 b           |$LN9@SendContro@3|
  059cc		 |$LN8@SendContro@3|
  059cc	e59d1000	 ldr         r1, [sp]
  059d0	e59f002c	 ldr         r0, [pc, #0x2C]
  059d4	eb000000	 bl          NKDbgPrintfW
  059d8		 |$LN9@SendContro@3|
  059d8	e3a03001	 mov         r3, #1
  059dc	e58d301c	 str         r3, [sp, #0x1C]
  059e0	ea000001	 b           |$LN11@SendContro@3|
  059e4		 |$LN10@SendContro@3|
  059e4	e3a03000	 mov         r3, #0
  059e8	e58d301c	 str         r3, [sp, #0x1C]
  059ec		 |$LN11@SendContro@3|

; 1115 :     return dwError;    

  059ec	e59d3004	 ldr         r3, [sp, #4]
  059f0	e58d300c	 str         r3, [sp, #0xC]

; 1116 : }

  059f4	e59d000c	 ldr         r0, [sp, #0xC]
  059f8	e28dd020	 add         sp, sp, #0x20
  059fc	e89d6000	 ldmia       sp, {sp, lr}
  05a00	e12fff1e	 bx          lr
  05a04		 |$LN15@SendContro@3|
  05a04		 |$LN16@SendContro@3|
  05a04	00000000	 DCD         |??_C@_1BA@PLOOFDPK@?$AA?$CF?$AAs?$AA?5?$AA?9?$AA?9?$AA?$AN?$AA?6?$AA?$AA@|
  05a08		 |$LN17@SendContro@3|
  05a08	00000000	 DCD         |dpCurSettings|
  05a0c		 |$LN18@SendContro@3|
  05a0c	00000000	 DCD         |??_C@_1BA@DAJPCKDK@?$AA?$CF?$AAs?$AA?5?$AA?$CL?$AA?$CL?$AA?$AN?$AA?6?$AA?$AA@|
  05a10		 |$LN19@SendContro@3|
  05a10	00000000	 DCD         |??_C@_1HC@IMCLHAFG@?$AAb?$AAu?$AAl?$AAv?$AAe?$AAr?$AAd?$AAe?$AA_?$AAu?$AAs?$AAb?$AAf?$AAn?$AA?$CB?$AAB?$AAu?$AAl?$AAU?$AAs?$AAb?$AAD?$AAe?$AAv?$AAi?$AAc?$AAe?$AA?3?$AA?3?$AAS?$AAe?$AAn@|
  05a14		 |$M39578|

			 ENDP  ; |?SendControlStatusHandshake@BulUsbDevice@@UAAKK@Z|, BulUsbDevice::SendControlStatusHandshake

	EXPORT	|??_C@_1EI@GJEMEIEB@?$AAb?$AAu?$AAl?$AAv?$AAe?$AAr?$AAd?$AAe?$AA_?$AAu?$AAs?$AAb?$AAf?$AAn?$AA?$CB?$AAB?$AAu?$AAl?$AAU?$AAs?$AAb?$AAD?$AAe?$AAv?$AAi?$AAc?$AAe?$AA?3?$AA?3?$AAS?$AAt?$AAa@| [ DATA ] ; `string'

  00138			 AREA	 |.pdata|, PDATA
|$T39601| DCD	|$LN16@Start@3|
	DCD	0x40007f04

  00000			 AREA	 |.rdata|, DATA, READONLY
|??_C@_1EI@GJEMEIEB@?$AAb?$AAu?$AAl?$AAv?$AAe?$AAr?$AAd?$AAe?$AA_?$AAu?$AAs?$AAb?$AAf?$AAn?$AA?$CB?$AAB?$AAu?$AAl?$AAU?$AAs?$AAb?$AAD?$AAe?$AAv?$AAi?$AAc?$AAe?$AA?3?$AA?3?$AAS?$AAt?$AAa@| DCB "b"
	DCB	0x0, "u", 0x0, "l", 0x0, "v", 0x0, "e", 0x0, "r", 0x0, "d"
	DCB	0x0, "e", 0x0, "_", 0x0, "u", 0x0, "s", 0x0, "b", 0x0, "f"
	DCB	0x0, "n", 0x0, "!", 0x0, "B", 0x0, "u", 0x0, "l", 0x0, "U"
	DCB	0x0, "s", 0x0, "b", 0x0, "D", 0x0, "e", 0x0, "v", 0x0, "i"
	DCB	0x0, "c", 0x0, "e", 0x0, ":", 0x0, ":", 0x0, "S", 0x0, "t"
	DCB	0x0, "a", 0x0, "r", 0x0, "t", 0x0, ":", 0x0, 0x0, 0x0 ; `string'
; Function compile flags: /Odtp

  05a14			 AREA	 |.text|, CODE, ARM

  05a14		 |?Start@BulUsbDevice@@UAAKXZ| PROC	; BulUsbDevice::Start

; 1119 : {

  05a14		 |$LN16@Start@3|
  05a14	e1a0c00d	 mov         r12, sp
  05a18	e92d0001	 stmdb       sp!, {r0}
  05a1c	e92d5000	 stmdb       sp!, {r12, lr}
  05a20	e24dd028	 sub         sp, sp, #0x28
  05a24		 |$M39598|

; 1120 :     SETFNAME();

  05a24	e59f31e0	 ldr         r3, [pc, #0x1E0]
  05a28	e58d3008	 str         r3, [sp, #8]

; 1121 :     FUNCTION_ENTER_MSG();

  05a2c	e59f31c4	 ldr         r3, [pc, #0x1C4]
  05a30	e5933440	 ldr         r3, [r3, #0x440]
  05a34	e3130a01	 tst         r3, #1, 20
  05a38	0a00000d	 beq         |$LN6@Start@3|
  05a3c	e59f31b4	 ldr         r3, [pc, #0x1B4]
  05a40	e5933440	 ldr         r3, [r3, #0x440]
  05a44	e3130801	 tst         r3, #1, 16
  05a48	0a000003	 beq         |$LN4@Start@3|
  05a4c	e59d1008	 ldr         r1, [sp, #8]
  05a50	e59f01b0	 ldr         r0, [pc, #0x1B0]
  05a54	eb000000	 bl          CeLogMsg
  05a58	ea000002	 b           |$LN5@Start@3|
  05a5c		 |$LN4@Start@3|
  05a5c	e59d1008	 ldr         r1, [sp, #8]
  05a60	e59f01a0	 ldr         r0, [pc, #0x1A0]
  05a64	eb000000	 bl          NKDbgPrintfW
  05a68		 |$LN5@Start@3|
  05a68	e3a03001	 mov         r3, #1
  05a6c	e58d3010	 str         r3, [sp, #0x10]
  05a70	ea000001	 b           |$LN7@Start@3|
  05a74		 |$LN6@Start@3|
  05a74	e3a03000	 mov         r3, #0
  05a78	e58d3010	 str         r3, [sp, #0x10]
  05a7c		 |$LN7@Start@3|

; 1122 :     DWORD dwReturn = ERROR_SUCCESS;

  05a7c	e3a03000	 mov         r3, #0
  05a80	e58d3004	 str         r3, [sp, #4]

; 1123 :     Lock();

  05a84	e59d3030	 ldr         r3, [sp, #0x30]
  05a88	e2830018	 add         r0, r3, #0x18
  05a8c	eb000000	 bl          |?Lock@CLockObject@@QAAXXZ|

; 1124 :     //ASSERT(m_pvMddContext==NULL);
; 1125 :     m_dwCurConfigure = MAXDWORD;

  05a90	e59d3030	 ldr         r3, [sp, #0x30]
  05a94	e28320b8	 add         r2, r3, #0xB8
  05a98	e3e03000	 mvn         r3, #0
  05a9c	e5823000	 str         r3, [r2]

; 1126 :     m_dwCurInterface = MAXDWORD;

  05aa0	e59d3030	 ldr         r3, [sp, #0x30]
  05aa4	e28320bc	 add         r2, r3, #0xBC
  05aa8	e3e03000	 mvn         r3, #0
  05aac	e5823000	 str         r3, [r2]

; 1127 :     // Enable Device Interrupt.
; 1128 :     WriteIntrCtr1Register( ReadIntrCtr1Register() | 
; 1129 :         (UDCISR1_IRCC | UDCISR1_IRRU | UDCISR1_IRSU |UDCISR1_IRRS ));

  05ab0	e59d0030	 ldr         r0, [sp, #0x30]
  05ab4	eb000000	 bl          |?ReadIntrCtr1Register@BulUsbDevice@@QAAKXZ|
  05ab8	e58d0014	 str         r0, [sp, #0x14]
  05abc	e59d3014	 ldr         r3, [sp, #0x14]
  05ac0	e383132e	 orr         r1, r3, #0x2E, 6
  05ac4	e59d0030	 ldr         r0, [sp, #0x30]
  05ac8	eb000000	 bl          |?WriteIntrCtr1Register@BulUsbDevice@@QAAXK@Z|

; 1130 :     // Enable UDC.
; 1131 :     UDCCR udccr;
; 1132 :     udccr.ulValue = ReadControlRegister();

  05acc	e59d0030	 ldr         r0, [sp, #0x30]
  05ad0	eb000000	 bl          |?ReadControlRegister@BulUsbDevice@@QAAKXZ|
  05ad4	e58d0018	 str         r0, [sp, #0x18]
  05ad8	e59d3018	 ldr         r3, [sp, #0x18]
  05adc	e58d3000	 str         r3, [sp]

; 1133 :     udccr.bit.OEN = 1;

  05ae0	e59d3000	 ldr         r3, [sp]
  05ae4	e3833102	 orr         r3, r3, #2, 2
  05ae8	e58d3000	 str         r3, [sp]

; 1134 :     udccr.bit.UDE = 1;

  05aec	e59d3000	 ldr         r3, [sp]
  05af0	e3833001	 orr         r3, r3, #1
  05af4	e58d3000	 str         r3, [sp]

; 1135 :     udccr.bit.EMCE = 0 ;

  05af8	e59d2000	 ldr         r2, [sp]
  05afc	e3e03008	 mvn         r3, #8
  05b00	e0023003	 and         r3, r2, r3
  05b04	e58d3000	 str         r3, [sp]

; 1136 :     WriteControlRegister(udccr.ulValue);

  05b08	e59d1000	 ldr         r1, [sp]
  05b0c	e59d0030	 ldr         r0, [sp, #0x30]
  05b10	eb000000	 bl          |?WriteControlRegister@BulUsbDevice@@QAAXK@Z|

; 1137 :     udccr.ulValue = ReadControlRegister();

  05b14	e59d0030	 ldr         r0, [sp, #0x30]
  05b18	eb000000	 bl          |?ReadControlRegister@BulUsbDevice@@QAAKXZ|
  05b1c	e58d001c	 str         r0, [sp, #0x1C]
  05b20	e59d301c	 ldr         r3, [sp, #0x1C]
  05b24	e58d3000	 str         r3, [sp]

; 1138 :     ASSERT(udccr.bit.EMCE==0);

  05b28	e59d3000	 ldr         r3, [sp]
  05b2c	e3130008	 tst         r3, #8
  05b30	1a000002	 bne         |$LN8@Start@3|
  05b34	e3a03001	 mov         r3, #1
  05b38	e58d3020	 str         r3, [sp, #0x20]
  05b3c	ea000008	 b           |$LN9@Start@3|
  05b40		 |$LN8@Start@3|
  05b40	e3a03b01	 mov         r3, #1, 22
  05b44	e3833072	 orr         r3, r3, #0x72
  05b48	e59f20b4	 ldr         r2, [pc, #0xB4]
  05b4c	e59f10ac	 ldr         r1, [pc, #0xAC]
  05b50	e59f00a4	 ldr         r0, [pc, #0xA4]
  05b54	eb000000	 bl          NKDbgPrintfW
  05b58	e6000010	 __debugbreak_ce
  05b5c	e3a03000	 mov         r3, #0
  05b60	e58d3020	 str         r3, [sp, #0x20]
  05b64		 |$LN9@Start@3|

; 1139 :     if (udccr.bit.EMCE==1)

  05b64	e59d3000	 ldr         r3, [sp]
  05b68	e1a03e03	 mov         r3, r3, lsl #28
  05b6c	e1a03fa3	 mov         r3, r3, lsr #31
  05b70	e3530001	 cmp         r3, #1
  05b74	1a000001	 bne         |$LN1@Start@3|

; 1140 :         dwReturn = ERROR_INVALID_PARAMETER ;

  05b78	e3a03057	 mov         r3, #0x57
  05b7c	e58d3004	 str         r3, [sp, #4]
  05b80		 |$LN1@Start@3|

; 1141 :     Unlock();

  05b80	e59d3030	 ldr         r3, [sp, #0x30]
  05b84	e2830018	 add         r0, r3, #0x18
  05b88	eb000000	 bl          |?Unlock@CLockObject@@QAAXXZ|

; 1142 :     FUNCTION_LEAVE_MSG();

  05b8c	e59f3064	 ldr         r3, [pc, #0x64]
  05b90	e5933440	 ldr         r3, [r3, #0x440]
  05b94	e3130a01	 tst         r3, #1, 20
  05b98	0a00000d	 beq         |$LN12@Start@3|
  05b9c	e59f3054	 ldr         r3, [pc, #0x54]
  05ba0	e5933440	 ldr         r3, [r3, #0x440]
  05ba4	e3130801	 tst         r3, #1, 16
  05ba8	0a000003	 beq         |$LN10@Start@3|
  05bac	e59d1008	 ldr         r1, [sp, #8]
  05bb0	e59f003c	 ldr         r0, [pc, #0x3C]
  05bb4	eb000000	 bl          CeLogMsg
  05bb8	ea000002	 b           |$LN11@Start@3|
  05bbc		 |$LN10@Start@3|
  05bbc	e59d1008	 ldr         r1, [sp, #8]
  05bc0	e59f002c	 ldr         r0, [pc, #0x2C]
  05bc4	eb000000	 bl          NKDbgPrintfW
  05bc8		 |$LN11@Start@3|
  05bc8	e3a03001	 mov         r3, #1
  05bcc	e58d3024	 str         r3, [sp, #0x24]
  05bd0	ea000001	 b           |$LN13@Start@3|
  05bd4		 |$LN12@Start@3|
  05bd4	e3a03000	 mov         r3, #0
  05bd8	e58d3024	 str         r3, [sp, #0x24]
  05bdc		 |$LN13@Start@3|

; 1143 :     return dwReturn;

  05bdc	e59d3004	 ldr         r3, [sp, #4]
  05be0	e58d300c	 str         r3, [sp, #0xC]

; 1144 : }

  05be4	e59d000c	 ldr         r0, [sp, #0xC]
  05be8	e28dd028	 add         sp, sp, #0x28
  05bec	e89d6000	 ldmia       sp, {sp, lr}
  05bf0	e12fff1e	 bx          lr
  05bf4		 |$LN17@Start@3|
  05bf4		 |$LN18@Start@3|
  05bf4	00000000	 DCD         |??_C@_1BA@PLOOFDPK@?$AA?$CF?$AAs?$AA?5?$AA?9?$AA?9?$AA?$AN?$AA?6?$AA?$AA@|
  05bf8		 |$LN19@Start@3|
  05bf8	00000000	 DCD         |dpCurSettings|
  05bfc		 |$LN20@Start@3|
  05bfc	00000000	 DCD         |??_C@_1FK@FNONLNGN@?$AA?$CF?$AAs?$AA?3?$AA?5?$AAD?$AAE?$AAB?$AAU?$AAG?$AAC?$AAH?$AAK?$AA?5?$AAf?$AAa?$AAi?$AAl?$AAe?$AAd?$AA?5?$AAi?$AAn?$AA?5?$AAf?$AAi?$AAl?$AAe?$AA?5?$AA?$CF?$AAs?$AA?5?$AAa@|
  05c00		 |$LN21@Start@3|
  05c00	00000000	 DCD         |??_C@_1BA@LEPJIIOK@?$AAU?$AAn?$AAk?$AAn?$AAo?$AAw?$AAn?$AA?$AA@|
  05c04		 |$LN22@Start@3|
  05c04	00000000	 DCD         |??_C@_1IO@HHHNJPIB@?$AAC?$AA?3?$AA?2?$AAW?$AAI?$AAN?$AAC?$AAE?$AA6?$AA0?$AA0?$AA?2?$AAP?$AAL?$AAA?$AAT?$AAF?$AAO?$AAR?$AAM?$AA?2?$AAC?$AAO?$AAM?$AAM?$AAO?$AAN?$AA?2?$AAS?$AAR?$AAC?$AA?2@|
  05c08		 |$LN23@Start@3|
  05c08	00000000	 DCD         |??_C@_1BA@DAJPCKDK@?$AA?$CF?$AAs?$AA?5?$AA?$CL?$AA?$CL?$AA?$AN?$AA?6?$AA?$AA@|
  05c0c		 |$LN24@Start@3|
  05c0c	00000000	 DCD         |??_C@_1EI@GJEMEIEB@?$AAb?$AAu?$AAl?$AAv?$AAe?$AAr?$AAd?$AAe?$AA_?$AAu?$AAs?$AAb?$AAf?$AAn?$AA?$CB?$AAB?$AAu?$AAl?$AAU?$AAs?$AAb?$AAD?$AAe?$AAv?$AAi?$AAc?$AAe?$AA?3?$AA?3?$AAS?$AAt?$AAa@|
  05c10		 |$M39599|

			 ENDP  ; |?Start@BulUsbDevice@@UAAKXZ|, BulUsbDevice::Start

	EXPORT	|??_C@_1EG@FDDKJACK@?$AAb?$AAu?$AAl?$AAv?$AAe?$AAr?$AAd?$AAe?$AA_?$AAu?$AAs?$AAb?$AAf?$AAn?$AA?$CB?$AAB?$AAu?$AAl?$AAU?$AAs?$AAb?$AAD?$AAe?$AAv?$AAi?$AAc?$AAe?$AA?3?$AA?3?$AAS?$AAt?$AAo@| [ DATA ] ; `string'

  00140			 AREA	 |.pdata|, PDATA
|$T39623| DCD	|$LN13@Stop|
	DCD	0x40004404

  00000			 AREA	 |.rdata|, DATA, READONLY
|??_C@_1EG@FDDKJACK@?$AAb?$AAu?$AAl?$AAv?$AAe?$AAr?$AAd?$AAe?$AA_?$AAu?$AAs?$AAb?$AAf?$AAn?$AA?$CB?$AAB?$AAu?$AAl?$AAU?$AAs?$AAb?$AAD?$AAe?$AAv?$AAi?$AAc?$AAe?$AA?3?$AA?3?$AAS?$AAt?$AAo@| DCB "b"
	DCB	0x0, "u", 0x0, "l", 0x0, "v", 0x0, "e", 0x0, "r", 0x0, "d"
	DCB	0x0, "e", 0x0, "_", 0x0, "u", 0x0, "s", 0x0, "b", 0x0, "f"
	DCB	0x0, "n", 0x0, "!", 0x0, "B", 0x0, "u", 0x0, "l", 0x0, "U"
	DCB	0x0, "s", 0x0, "b", 0x0, "D", 0x0, "e", 0x0, "v", 0x0, "i"
	DCB	0x0, "c", 0x0, "e", 0x0, ":", 0x0, ":", 0x0, "S", 0x0, "t"
	DCB	0x0, "o", 0x0, "p", 0x0, ":", 0x0, 0x0, 0x0 ; `string'
; Function compile flags: /Odtp

  05c10			 AREA	 |.text|, CODE, ARM

  05c10		 |?Stop@BulUsbDevice@@UAAKXZ| PROC	; BulUsbDevice::Stop

; 1146 : {

  05c10		 |$LN13@Stop|
  05c10	e1a0c00d	 mov         r12, sp
  05c14	e92d0001	 stmdb       sp!, {r0}
  05c18	e92d5000	 stmdb       sp!, {r12, lr}
  05c1c	e24dd010	 sub         sp, sp, #0x10
  05c20		 |$M39620|

; 1147 :     SETFNAME();

  05c20	e59f30f4	 ldr         r3, [pc, #0xF4]
  05c24	e58d3000	 str         r3, [sp]

; 1148 :     FUNCTION_ENTER_MSG();

  05c28	e59f30e4	 ldr         r3, [pc, #0xE4]
  05c2c	e5933440	 ldr         r3, [r3, #0x440]
  05c30	e3130a01	 tst         r3, #1, 20
  05c34	0a00000d	 beq         |$LN5@Stop|
  05c38	e59f30d4	 ldr         r3, [pc, #0xD4]
  05c3c	e5933440	 ldr         r3, [r3, #0x440]
  05c40	e3130801	 tst         r3, #1, 16
  05c44	0a000003	 beq         |$LN3@Stop|
  05c48	e59d1000	 ldr         r1, [sp]
  05c4c	e59f00c4	 ldr         r0, [pc, #0xC4]
  05c50	eb000000	 bl          CeLogMsg
  05c54	ea000002	 b           |$LN4@Stop|
  05c58		 |$LN3@Stop|
  05c58	e59d1000	 ldr         r1, [sp]
  05c5c	e59f00b4	 ldr         r0, [pc, #0xB4]
  05c60	eb000000	 bl          NKDbgPrintfW
  05c64		 |$LN4@Stop|
  05c64	e3a03001	 mov         r3, #1
  05c68	e58d3008	 str         r3, [sp, #8]
  05c6c	ea000001	 b           |$LN6@Stop|
  05c70		 |$LN5@Stop|
  05c70	e3a03000	 mov         r3, #0
  05c74	e58d3008	 str         r3, [sp, #8]
  05c78		 |$LN6@Stop|

; 1149 :     Lock();

  05c78	e59d3018	 ldr         r3, [sp, #0x18]
  05c7c	e2830018	 add         r0, r3, #0x18
  05c80	eb000000	 bl          |?Lock@CLockObject@@QAAXXZ|

; 1150 :     //ASSERT(m_pvMddContext!=NULL);
; 1151 :     //m_pvMddContext = NULL;
; 1152 :     // Enable Device Interrupt.
; 1153 :     WriteIntrCtr0Register(0);

  05c84	e3a01000	 mov         r1, #0
  05c88	e59d0018	 ldr         r0, [sp, #0x18]
  05c8c	eb000000	 bl          |?WriteIntrCtr0Register@BulUsbDevice@@QAAXK@Z|

; 1154 :     WriteIntrCtr1Register(0);    

  05c90	e3a01000	 mov         r1, #0
  05c94	e59d0018	 ldr         r0, [sp, #0x18]
  05c98	eb000000	 bl          |?WriteIntrCtr1Register@BulUsbDevice@@QAAXK@Z|

; 1155 :     Unlock();

  05c9c	e59d3018	 ldr         r3, [sp, #0x18]
  05ca0	e2830018	 add         r0, r3, #0x18
  05ca4	eb000000	 bl          |?Unlock@CLockObject@@QAAXXZ|

; 1156 :     FUNCTION_LEAVE_MSG();

  05ca8	e59f3064	 ldr         r3, [pc, #0x64]
  05cac	e5933440	 ldr         r3, [r3, #0x440]
  05cb0	e3130a01	 tst         r3, #1, 20
  05cb4	0a00000d	 beq         |$LN9@Stop|
  05cb8	e59f3054	 ldr         r3, [pc, #0x54]
  05cbc	e5933440	 ldr         r3, [r3, #0x440]
  05cc0	e3130801	 tst         r3, #1, 16
  05cc4	0a000003	 beq         |$LN7@Stop|
  05cc8	e59d1000	 ldr         r1, [sp]
  05ccc	e59f003c	 ldr         r0, [pc, #0x3C]
  05cd0	eb000000	 bl          CeLogMsg
  05cd4	ea000002	 b           |$LN8@Stop|
  05cd8		 |$LN7@Stop|
  05cd8	e59d1000	 ldr         r1, [sp]
  05cdc	e59f002c	 ldr         r0, [pc, #0x2C]
  05ce0	eb000000	 bl          NKDbgPrintfW
  05ce4		 |$LN8@Stop|
  05ce4	e3a03001	 mov         r3, #1
  05ce8	e58d300c	 str         r3, [sp, #0xC]
  05cec	ea000001	 b           |$LN10@Stop|
  05cf0		 |$LN9@Stop|
  05cf0	e3a03000	 mov         r3, #0
  05cf4	e58d300c	 str         r3, [sp, #0xC]
  05cf8		 |$LN10@Stop|

; 1157 :     return ERROR_SUCCESS;

  05cf8	e3a03000	 mov         r3, #0
  05cfc	e58d3004	 str         r3, [sp, #4]

; 1158 :     
; 1159 : }

  05d00	e59d0004	 ldr         r0, [sp, #4]
  05d04	e28dd010	 add         sp, sp, #0x10
  05d08	e89d6000	 ldmia       sp, {sp, lr}
  05d0c	e12fff1e	 bx          lr
  05d10		 |$LN14@Stop|
  05d10		 |$LN15@Stop|
  05d10	00000000	 DCD         |??_C@_1BA@PLOOFDPK@?$AA?$CF?$AAs?$AA?5?$AA?9?$AA?9?$AA?$AN?$AA?6?$AA?$AA@|
  05d14		 |$LN16@Stop|
  05d14	00000000	 DCD         |dpCurSettings|
  05d18		 |$LN17@Stop|
  05d18	00000000	 DCD         |??_C@_1BA@DAJPCKDK@?$AA?$CF?$AAs?$AA?5?$AA?$CL?$AA?$CL?$AA?$AN?$AA?6?$AA?$AA@|
  05d1c		 |$LN18@Stop|
  05d1c	00000000	 DCD         |??_C@_1EG@FDDKJACK@?$AAb?$AAu?$AAl?$AAv?$AAe?$AAr?$AAd?$AAe?$AA_?$AAu?$AAs?$AAb?$AAf?$AAn?$AA?$CB?$AAB?$AAu?$AAl?$AAU?$AAs?$AAb?$AAD?$AAe?$AAv?$AAi?$AAc?$AAe?$AA?3?$AA?3?$AAS?$AAt?$AAo@|
  05d20		 |$M39621|

			 ENDP  ; |?Stop@BulUsbDevice@@UAAKXZ|, BulUsbDevice::Stop


  00148			 AREA	 |.pdata|, PDATA
|$T39634| DCD	|$LN5@SetAddress|
	DCD	0x40000a04
; Function compile flags: /Odtp

  05d20			 AREA	 |.text|, CODE, ARM

  05d20		 |?SetAddress@BulUsbDevice@@UAAKE@Z| PROC ; BulUsbDevice::SetAddress

; 1161 : {

  05d20		 |$LN5@SetAddress|
  05d20	e1a0c00d	 mov         r12, sp
  05d24	e92d0003	 stmdb       sp!, {r0, r1}
  05d28	e92d5000	 stmdb       sp!, {r12, lr}
  05d2c	e24dd004	 sub         sp, sp, #4
  05d30		 |$M39631|

; 1162 :     // Do we need handle this? NO?
; 1163 :     return ERROR_SUCCESS;

  05d30	e3a03000	 mov         r3, #0
  05d34	e58d3000	 str         r3, [sp]

; 1164 : }

  05d38	e59d0000	 ldr         r0, [sp]
  05d3c	e28dd004	 add         sp, sp, #4
  05d40	e89d6000	 ldmia       sp, {sp, lr}
  05d44	e12fff1e	 bx          lr
  05d48		 |$M39632|

			 ENDP  ; |?SetAddress@BulUsbDevice@@UAAKE@Z|, BulUsbDevice::SetAddress

	IMPORT	|SetInterruptEvent|

  00150			 AREA	 |.pdata|, PDATA
|$T39639| DCD	|$LN7@PowerMgr|
	DCD	0x40002904
; Function compile flags: /Odtp

  05d48			 AREA	 |.text|, CODE, ARM

  05d48		 |?PowerMgr@BulUsbDevice@@MAAXH@Z| PROC	; BulUsbDevice::PowerMgr

; 1166 : {

  05d48		 |$LN7@PowerMgr|
  05d48	e1a0c00d	 mov         r12, sp
  05d4c	e92d0003	 stmdb       sp!, {r0, r1}
  05d50	e92d5000	 stmdb       sp!, {r12, lr}
  05d54	e24dd008	 sub         sp, sp, #8
  05d58		 |$M39636|

; 1167 :     Lock();

  05d58	e59d3010	 ldr         r3, [sp, #0x10]
  05d5c	e2830018	 add         r0, r3, #0x18
  05d60	eb000000	 bl          |?Lock@CLockObject@@QAAXXZ|

; 1168 :     if (bOff) {

  05d64	e59d3014	 ldr         r3, [sp, #0x14]
  05d68	e3530000	 cmp         r3, #0
  05d6c	0a000009	 beq         |$LN2@PowerMgr|

; 1169 :         // Disable Device to simulate remove from bus.
; 1170 :         UDCCR udccr;
; 1171 :         udccr.ulValue = 0;

  05d70	e3a03000	 mov         r3, #0
  05d74	e58d3000	 str         r3, [sp]

; 1172 :         udccr.bit.UDE  = 0 ;

  05d78	e59d2000	 ldr         r2, [sp]
  05d7c	e3e03001	 mvn         r3, #1
  05d80	e0023003	 and         r3, r2, r3
  05d84	e58d3000	 str         r3, [sp]

; 1173 :         WriteControlRegister(udccr.ulValue);

  05d88	e59d1000	 ldr         r1, [sp]
  05d8c	e59d0010	 ldr         r0, [sp, #0x10]
  05d90	eb000000	 bl          |?WriteControlRegister@BulUsbDevice@@QAAXK@Z|

; 1174 :     }
; 1175 :     else {

  05d94	ea00000e	 b           |$LN1@PowerMgr|
  05d98		 |$LN2@PowerMgr|

; 1176 :         UDCCR udccr;
; 1177 :         udccr.ulValue = 0;

  05d98	e3a03000	 mov         r3, #0
  05d9c	e58d3004	 str         r3, [sp, #4]

; 1178 :         udccr.bit.UDE = 1 ;

  05da0	e59d3004	 ldr         r3, [sp, #4]
  05da4	e3833001	 orr         r3, r3, #1
  05da8	e58d3004	 str         r3, [sp, #4]

; 1179 :         udccr.bit.OEN = 1;

  05dac	e59d3004	 ldr         r3, [sp, #4]
  05db0	e3833102	 orr         r3, r3, #2, 2
  05db4	e58d3004	 str         r3, [sp, #4]

; 1180 :         WriteControlRegister(udccr.ulValue);

  05db8	e59d1004	 ldr         r1, [sp, #4]
  05dbc	e59d0010	 ldr         r0, [sp, #0x10]
  05dc0	eb000000	 bl          |?WriteControlRegister@BulUsbDevice@@QAAXK@Z|

; 1181 :         SetInterruptEvent(m_dwSysIntr);

  05dc4	e59d3010	 ldr         r3, [sp, #0x10]
  05dc8	e28330a4	 add         r3, r3, #0xA4
  05dcc	e5930000	 ldr         r0, [r3]
  05dd0	eb000000	 bl          SetInterruptEvent
  05dd4		 |$LN1@PowerMgr|

; 1182 :     }
; 1183 :     Unlock();

  05dd4	e59d3010	 ldr         r3, [sp, #0x10]
  05dd8	e2830018	 add         r0, r3, #0x18
  05ddc	eb000000	 bl          |?Unlock@CLockObject@@QAAXXZ|

; 1184 : }

  05de0	e28dd008	 add         sp, sp, #8
  05de4	e89d6000	 ldmia       sp, {sp, lr}
  05de8	e12fff1e	 bx          lr
  05dec		 |$M39637|

			 ENDP  ; |?PowerMgr@BulUsbDevice@@MAAXH@Z|, BulUsbDevice::PowerMgr


  00158			 AREA	 |.pdata|, PDATA
|$T39644| DCD	|$LN6@PowerDown|
	DCD	0x40001203
; Function compile flags: /Odtp

  05dec			 AREA	 |.text|, CODE, ARM

  05dec		 |?PowerDown@BulUsbDevice@@UAAXXZ| PROC	; BulUsbDevice::PowerDown

; 1187 : {

  05dec		 |$LN6@PowerDown|
  05dec	e1a0c00d	 mov         r12, sp
  05df0	e92d0001	 stmdb       sp!, {r0}
  05df4	e92d5000	 stmdb       sp!, {r12, lr}
  05df8		 |$M39641|

; 1188 :     if (m_CurPowerState == PwrDeviceUnspecified) {

  05df8	e59d3008	 ldr         r3, [sp, #8]
  05dfc	e28330c4	 add         r3, r3, #0xC4
  05e00	e5933000	 ldr         r3, [r3]
  05e04	e3730001	 cmn         r3, #1
  05e08	1a000007	 bne         |$LN1@PowerDown|

; 1189 :         PowerMgr(TRUE) ;

  05e0c	e3a01001	 mov         r1, #1
  05e10	e59d3008	 ldr         r3, [sp, #8]
  05e14	e5933000	 ldr         r3, [r3]
  05e18	e2833058	 add         r3, r3, #0x58
  05e1c	e59d0008	 ldr         r0, [sp, #8]
  05e20	e5933000	 ldr         r3, [r3]
  05e24	e1a0e00f	 mov         lr, pc
  05e28	e12fff13	 bx          r3
  05e2c		 |$LN1@PowerDown|

; 1190 :     }
; 1191 : }

  05e2c	e89d6000	 ldmia       sp, {sp, lr}
  05e30	e12fff1e	 bx          lr
  05e34		 |$M39642|

			 ENDP  ; |?PowerDown@BulUsbDevice@@UAAXXZ|, BulUsbDevice::PowerDown


  00160			 AREA	 |.pdata|, PDATA
|$T39649| DCD	|$LN6@PowerUp|
	DCD	0x40001603
; Function compile flags: /Odtp

  05e34			 AREA	 |.text|, CODE, ARM

  05e34		 |?PowerUp@BulUsbDevice@@UAAXXZ| PROC	; BulUsbDevice::PowerUp

; 1193 : {

  05e34		 |$LN6@PowerUp|
  05e34	e1a0c00d	 mov         r12, sp
  05e38	e92d0001	 stmdb       sp!, {r0}
  05e3c	e92d5000	 stmdb       sp!, {r12, lr}
  05e40		 |$M39646|

; 1194 :     m_fResumeOccurred = TRUE;

  05e40	e59d3008	 ldr         r3, [sp, #8]
  05e44	e2832094	 add         r2, r3, #0x94
  05e48	e3a03001	 mov         r3, #1
  05e4c	e5823000	 str         r3, [r2]

; 1195 :     if (m_CurPowerState == PwrDeviceUnspecified) {

  05e50	e59d3008	 ldr         r3, [sp, #8]
  05e54	e28330c4	 add         r3, r3, #0xC4
  05e58	e5933000	 ldr         r3, [r3]
  05e5c	e3730001	 cmn         r3, #1
  05e60	1a000007	 bne         |$LN1@PowerUp|

; 1196 :         PowerMgr(FALSE) ;

  05e64	e3a01000	 mov         r1, #0
  05e68	e59d3008	 ldr         r3, [sp, #8]
  05e6c	e5933000	 ldr         r3, [r3]
  05e70	e2833058	 add         r3, r3, #0x58
  05e74	e59d0008	 ldr         r0, [sp, #8]
  05e78	e5933000	 ldr         r3, [r3]
  05e7c	e1a0e00f	 mov         lr, pc
  05e80	e12fff13	 bx          r3
  05e84		 |$LN1@PowerUp|

; 1197 :     }
; 1198 : }

  05e84	e89d6000	 ldmia       sp, {sp, lr}
  05e88	e12fff1e	 bx          lr
  05e8c		 |$M39647|

			 ENDP  ; |?PowerUp@BulUsbDevice@@UAAXXZ|, BulUsbDevice::PowerUp

	EXPORT	|??_C@_1DG@GDCCACCF@?$AA?$CF?$AAs?$AA?5?$AAG?$AAo?$AAi?$AAn?$AAg?$AA?5?$AAf?$AAr?$AAo?$AAm?$AA?5?$AAD?$AA?$CF?$AAu?$AA?5?$AAt?$AAo?$AA?5?$AAD?$AA?$CF?$AAu?$AA?$AN?$AA?6?$AA?$AA@| [ DATA ] ; `string'
	EXPORT	|??_C@_1FI@GBLGGJMA@?$AAb?$AAu?$AAl?$AAv?$AAe?$AAr?$AAd?$AAe?$AA_?$AAu?$AAs?$AAb?$AAf?$AAn?$AA?$CB?$AAB?$AAu?$AAl?$AAU?$AAs?$AAb?$AAD?$AAe?$AAv?$AAi?$AAc?$AAe?$AA?3?$AA?3?$AAS?$AAe?$AAt@| [ DATA ] ; `string'
	IMPORT	|KernelIoControl|
	IMPORT	|SetDevicePowerState|

  00168			 AREA	 |.pdata|, PDATA
|$T39664| DCD	|$LN24@SetPowerSt|
	DCD	0x4000b904

  00000			 AREA	 |.rdata|, DATA, READONLY
|??_C@_1DG@GDCCACCF@?$AA?$CF?$AAs?$AA?5?$AAG?$AAo?$AAi?$AAn?$AAg?$AA?5?$AAf?$AAr?$AAo?$AAm?$AA?5?$AAD?$AA?$CF?$AAu?$AA?5?$AAt?$AAo?$AA?5?$AAD?$AA?$CF?$AAu?$AA?$AN?$AA?6?$AA?$AA@| DCB "%"
	DCB	0x0, "s", 0x0, " ", 0x0, "G", 0x0, "o", 0x0, "i", 0x0, "n"
	DCB	0x0, "g", 0x0, " ", 0x0, "f", 0x0, "r", 0x0, "o", 0x0, "m"
	DCB	0x0, " ", 0x0, "D", 0x0, "%", 0x0, "u", 0x0, " ", 0x0, "t"
	DCB	0x0, "o", 0x0, " ", 0x0, "D", 0x0, "%", 0x0, "u", 0x0, 0xd
	DCB	0x0, 0xa, 0x0, 0x0, 0x0			; `string'

  00000			 AREA	 |.rdata|, DATA, READONLY
|??_C@_1FI@GBLGGJMA@?$AAb?$AAu?$AAl?$AAv?$AAe?$AAr?$AAd?$AAe?$AA_?$AAu?$AAs?$AAb?$AAf?$AAn?$AA?$CB?$AAB?$AAu?$AAl?$AAU?$AAs?$AAb?$AAD?$AAe?$AAv?$AAi?$AAc?$AAe?$AA?3?$AA?3?$AAS?$AAe?$AAt@| DCB "b"
	DCB	0x0, "u", 0x0, "l", 0x0, "v", 0x0, "e", 0x0, "r", 0x0, "d"
	DCB	0x0, "e", 0x0, "_", 0x0, "u", 0x0, "s", 0x0, "b", 0x0, "f"
	DCB	0x0, "n", 0x0, "!", 0x0, "B", 0x0, "u", 0x0, "l", 0x0, "U"
	DCB	0x0, "s", 0x0, "b", 0x0, "D", 0x0, "e", 0x0, "v", 0x0, "i"
	DCB	0x0, "c", 0x0, "e", 0x0, ":", 0x0, ":", 0x0, "S", 0x0, "e"
	DCB	0x0, "t", 0x0, "P", 0x0, "o", 0x0, "w", 0x0, "e", 0x0, "r"
	DCB	0x0, "S", 0x0, "t", 0x0, "a", 0x0, "t", 0x0, "e", 0x0, ":"
	DCB	0x0, 0x0, 0x0				; `string'
; Function compile flags: /Odtp

  05e8c			 AREA	 |.text|, CODE, ARM

  05e8c		 |?SetPowerState@BulUsbDevice@@UAAXW4_CEDEVICE_POWER_STATE@@@Z| PROC ; BulUsbDevice::SetPowerState

; 1200 : {

  05e8c		 |$LN24@SetPowerSt|
  05e8c	e1a0c00d	 mov         r12, sp
  05e90	e92d0003	 stmdb       sp!, {r0, r1}
  05e94	e92d5000	 stmdb       sp!, {r12, lr}
  05e98	e24dd038	 sub         sp, sp, #0x38
  05e9c		 |$M39661|

; 1201 :     SETFNAME();

  05e9c	e59f32c8	 ldr         r3, [pc, #0x2C8]
  05ea0	e58d3008	 str         r3, [sp, #8]

; 1202 :     
; 1203 :     // Adjust cpsNew.
; 1204 :     if (cpsNew != m_CurPowerState ) {

  05ea4	e59d3040	 ldr         r3, [sp, #0x40]
  05ea8	e28330c4	 add         r3, r3, #0xC4
  05eac	e59d2044	 ldr         r2, [sp, #0x44]
  05eb0	e5933000	 ldr         r3, [r3]
  05eb4	e1520003	 cmp         r2, r3
  05eb8	0a00000f	 beq         |$LN15@SetPowerSt|

; 1205 :         if (cpsNew == D1 || cpsNew == D2) {

  05ebc	e59d3044	 ldr         r3, [sp, #0x44]
  05ec0	e3530001	 cmp         r3, #1
  05ec4	0a000002	 beq         |$LN13@SetPowerSt|
  05ec8	e59d3044	 ldr         r3, [sp, #0x44]
  05ecc	e3530002	 cmp         r3, #2
  05ed0	1a000002	 bne         |$LN14@SetPowerSt|
  05ed4		 |$LN13@SetPowerSt|

; 1206 :             // D1 and D2 are not supported.
; 1207 :             cpsNew = D0;

  05ed4	e3a03000	 mov         r3, #0
  05ed8	e58d3044	 str         r3, [sp, #0x44]
  05edc	ea000006	 b           |$LN12@SetPowerSt|
  05ee0		 |$LN14@SetPowerSt|

; 1208 :         }
; 1209 :         else if (m_CurPowerState== D4) {

  05ee0	e59d3040	 ldr         r3, [sp, #0x40]
  05ee4	e28330c4	 add         r3, r3, #0xC4
  05ee8	e5933000	 ldr         r3, [r3]
  05eec	e3530004	 cmp         r3, #4
  05ef0	1a000001	 bne         |$LN11@SetPowerSt|

; 1210 :             // D4 can only go to D0.
; 1211 :             cpsNew = D0;

  05ef4	e3a03000	 mov         r3, #0
  05ef8	e58d3044	 str         r3, [sp, #0x44]
  05efc		 |$LN11@SetPowerSt|
  05efc		 |$LN12@SetPowerSt|
  05efc		 |$LN15@SetPowerSt|

; 1212 :         }
; 1213 :     }
; 1214 : 
; 1215 :     if (cpsNew != m_CurPowerState ) {

  05efc	e59d3040	 ldr         r3, [sp, #0x40]
  05f00	e28330c4	 add         r3, r3, #0xC4
  05f04	e59d2044	 ldr         r2, [sp, #0x44]
  05f08	e5933000	 ldr         r3, [r3]
  05f0c	e1520003	 cmp         r2, r3
  05f10	0a00008e	 beq         |$LN10@SetPowerSt|

; 1216 :         BOOL bBusSucceed = FALSE;

  05f14	e3a03000	 mov         r3, #0
  05f18	e58d300c	 str         r3, [sp, #0xC]

; 1217 :         DEBUGMSG(ZONE_FUNCTION, (_T("%s Going from D%u to D%u\r\n"), pszFname, m_CurPowerState , cpsNew));

  05f1c	e59f3244	 ldr         r3, [pc, #0x244]
  05f20	e5933440	 ldr         r3, [r3, #0x440]
  05f24	e3130a01	 tst         r3, #1, 20
  05f28	0a000015	 beq         |$LN20@SetPowerSt|
  05f2c	e59f3234	 ldr         r3, [pc, #0x234]
  05f30	e5933440	 ldr         r3, [r3, #0x440]
  05f34	e3130801	 tst         r3, #1, 16
  05f38	0a000007	 beq         |$LN18@SetPowerSt|
  05f3c	e59d3044	 ldr         r3, [sp, #0x44]
  05f40	e59d2040	 ldr         r2, [sp, #0x40]
  05f44	e28220c4	 add         r2, r2, #0xC4
  05f48	e5922000	 ldr         r2, [r2]
  05f4c	e59d1008	 ldr         r1, [sp, #8]
  05f50	e59f020c	 ldr         r0, [pc, #0x20C]
  05f54	eb000000	 bl          CeLogMsg
  05f58	ea000006	 b           |$LN19@SetPowerSt|
  05f5c		 |$LN18@SetPowerSt|
  05f5c	e59d3044	 ldr         r3, [sp, #0x44]
  05f60	e59d2040	 ldr         r2, [sp, #0x40]
  05f64	e28220c4	 add         r2, r2, #0xC4
  05f68	e5922000	 ldr         r2, [r2]
  05f6c	e59d1008	 ldr         r1, [sp, #8]
  05f70	e59f01ec	 ldr         r0, [pc, #0x1EC]
  05f74	eb000000	 bl          NKDbgPrintfW
  05f78		 |$LN19@SetPowerSt|
  05f78	e3a03001	 mov         r3, #1
  05f7c	e58d3028	 str         r3, [sp, #0x28]
  05f80	ea000001	 b           |$LN21@SetPowerSt|
  05f84		 |$LN20@SetPowerSt|
  05f84	e3a03000	 mov         r3, #0
  05f88	e58d3028	 str         r3, [sp, #0x28]
  05f8c		 |$LN21@SetPowerSt|

; 1218 :         if ( (cpsNew < m_CurPowerState) && m_hParent) {

  05f8c	e59d3040	 ldr         r3, [sp, #0x40]
  05f90	e28330c4	 add         r3, r3, #0xC4
  05f94	e59d2044	 ldr         r2, [sp, #0x44]
  05f98	e5933000	 ldr         r3, [r3]
  05f9c	e1520003	 cmp         r2, r3
  05fa0	aa000018	 bge         |$LN9@SetPowerSt|
  05fa4	e59d3040	 ldr         r3, [sp, #0x40]
  05fa8	e28330c8	 add         r3, r3, #0xC8
  05fac	e5933000	 ldr         r3, [r3]
  05fb0	e3530000	 cmp         r3, #0
  05fb4	0a000013	 beq         |$LN9@SetPowerSt|

; 1219 :             bBusSucceed = SetDevicePowerState(m_hParent, cpsNew, NULL);

  05fb8	e3a02000	 mov         r2, #0
  05fbc	e59d1044	 ldr         r1, [sp, #0x44]
  05fc0	e59d3040	 ldr         r3, [sp, #0x40]
  05fc4	e28330c8	 add         r3, r3, #0xC8
  05fc8	e5930000	 ldr         r0, [r3]
  05fcc	eb000000	 bl          SetDevicePowerState
  05fd0	e58d002c	 str         r0, [sp, #0x2C]
  05fd4	e59d302c	 ldr         r3, [sp, #0x2C]
  05fd8	e58d300c	 str         r3, [sp, #0xC]

; 1220 :             if (bBusSucceed) {

  05fdc	e59d300c	 ldr         r3, [sp, #0xC]
  05fe0	e3530000	 cmp         r3, #0
  05fe4	0a000007	 beq         |$LN8@SetPowerSt|

; 1221 :                 PowerMgr(FALSE);

  05fe8	e3a01000	 mov         r1, #0
  05fec	e59d3040	 ldr         r3, [sp, #0x40]
  05ff0	e5933000	 ldr         r3, [r3]
  05ff4	e2833058	 add         r3, r3, #0x58
  05ff8	e59d0040	 ldr         r0, [sp, #0x40]
  05ffc	e5933000	 ldr         r3, [r3]
  06000	e1a0e00f	 mov         lr, pc
  06004	e12fff13	 bx          r3
  06008		 |$LN8@SetPowerSt|
  06008		 |$LN9@SetPowerSt|

; 1222 :             }
; 1223 :         }
; 1224 : 
; 1225 :         switch (cpsNew) {

  06008	e59d3044	 ldr         r3, [sp, #0x44]
  0600c	e58d3030	 str         r3, [sp, #0x30]
  06010	e59d3030	 ldr         r3, [sp, #0x30]
  06014	e3530000	 cmp         r3, #0
  06018	0a000006	 beq         |$LN5@SetPowerSt|
  0601c	e59d3030	 ldr         r3, [sp, #0x30]
  06020	e3530003	 cmp         r3, #3
  06024	0a00000e	 beq         |$LN4@SetPowerSt|
  06028	e59d3030	 ldr         r3, [sp, #0x30]
  0602c	e3530004	 cmp         r3, #4
  06030	0a000016	 beq         |$LN3@SetPowerSt|
  06034	ea00001f	 b           |$LN6@SetPowerSt|
  06038		 |$LN5@SetPowerSt|

; 1226 :         case D0:
; 1227 :             KernelIoControl(IOCTL_HAL_DISABLE_WAKE, &m_dwSysIntr,sizeof(m_dwSysIntr), NULL, 0, NULL);

  06038	e3a03000	 mov         r3, #0
  0603c	e58d3004	 str         r3, [sp, #4]
  06040	e3a03000	 mov         r3, #0
  06044	e58d3000	 str         r3, [sp]
  06048	e3a03000	 mov         r3, #0
  0604c	e3a02004	 mov         r2, #4
  06050	e59d1040	 ldr         r1, [sp, #0x40]
  06054	e28110a4	 add         r1, r1, #0xA4
  06058	e59f00fc	 ldr         r0, [pc, #0xFC]
  0605c	eb000000	 bl          KernelIoControl

; 1228 :             break;

  06060	ea000014	 b           |$LN6@SetPowerSt|
  06064		 |$LN4@SetPowerSt|

; 1229 :         case D3:
; 1230 :             KernelIoControl(IOCTL_HAL_ENABLE_WAKE, &m_dwSysIntr,  sizeof(m_dwSysIntr), NULL, 0, NULL);

  06064	e3a03000	 mov         r3, #0
  06068	e58d3004	 str         r3, [sp, #4]
  0606c	e3a03000	 mov         r3, #0
  06070	e58d3000	 str         r3, [sp]
  06074	e3a03000	 mov         r3, #0
  06078	e3a02004	 mov         r2, #4
  0607c	e59d1040	 ldr         r1, [sp, #0x40]
  06080	e28110a4	 add         r1, r1, #0xA4
  06084	e59f00d4	 ldr         r0, [pc, #0xD4]
  06088	eb000000	 bl          KernelIoControl

; 1231 :             break;

  0608c	ea000009	 b           |$LN6@SetPowerSt|
  06090		 |$LN3@SetPowerSt|

; 1232 :         case D4:
; 1233 :             KernelIoControl(IOCTL_HAL_DISABLE_WAKE, &m_dwSysIntr,  sizeof(m_dwSysIntr), NULL, 0, NULL);

  06090	e3a03000	 mov         r3, #0
  06094	e58d3004	 str         r3, [sp, #4]
  06098	e3a03000	 mov         r3, #0
  0609c	e58d3000	 str         r3, [sp]
  060a0	e3a03000	 mov         r3, #0
  060a4	e3a02004	 mov         r2, #4
  060a8	e59d1040	 ldr         r1, [sp, #0x40]
  060ac	e28110a4	 add         r1, r1, #0xA4
  060b0	e59f00a4	 ldr         r0, [pc, #0xA4]
  060b4	eb000000	 bl          KernelIoControl
  060b8		 |$LN6@SetPowerSt|

; 1234 :             break;
; 1235 :         }
; 1236 : 
; 1237 :         if ( (cpsNew > m_CurPowerState ) && m_hParent  ) {

  060b8	e59d3040	 ldr         r3, [sp, #0x40]
  060bc	e28330c4	 add         r3, r3, #0xC4
  060c0	e59d2044	 ldr         r2, [sp, #0x44]
  060c4	e5933000	 ldr         r3, [r3]
  060c8	e1520003	 cmp         r2, r3
  060cc	da00001b	 ble         |$LN2@SetPowerSt|
  060d0	e59d3040	 ldr         r3, [sp, #0x40]
  060d4	e28330c8	 add         r3, r3, #0xC8
  060d8	e5933000	 ldr         r3, [r3]
  060dc	e3530000	 cmp         r3, #0
  060e0	0a000016	 beq         |$LN2@SetPowerSt|

; 1238 :             bBusSucceed = SetDevicePowerState(m_hParent, cpsNew, NULL);

  060e4	e3a02000	 mov         r2, #0
  060e8	e59d1044	 ldr         r1, [sp, #0x44]
  060ec	e59d3040	 ldr         r3, [sp, #0x40]
  060f0	e28330c8	 add         r3, r3, #0xC8
  060f4	e5930000	 ldr         r0, [r3]
  060f8	eb000000	 bl          SetDevicePowerState
  060fc	e58d0034	 str         r0, [sp, #0x34]
  06100	e59d3034	 ldr         r3, [sp, #0x34]
  06104	e58d300c	 str         r3, [sp, #0xC]

; 1239 :             if (bBusSucceed && cpsNew == D4) {

  06108	e59d300c	 ldr         r3, [sp, #0xC]
  0610c	e3530000	 cmp         r3, #0
  06110	0a00000a	 beq         |$LN1@SetPowerSt|
  06114	e59d3044	 ldr         r3, [sp, #0x44]
  06118	e3530004	 cmp         r3, #4
  0611c	1a000007	 bne         |$LN1@SetPowerSt|

; 1240 :                 PowerMgr(TRUE);

  06120	e3a01001	 mov         r1, #1
  06124	e59d3040	 ldr         r3, [sp, #0x40]
  06128	e5933000	 ldr         r3, [r3]
  0612c	e2833058	 add         r3, r3, #0x58
  06130	e59d0040	 ldr         r0, [sp, #0x40]
  06134	e5933000	 ldr         r3, [r3]
  06138	e1a0e00f	 mov         lr, pc
  0613c	e12fff13	 bx          r3
  06140		 |$LN1@SetPowerSt|
  06140		 |$LN2@SetPowerSt|

; 1241 :             }
; 1242 :         }
; 1243 :         m_CurPowerState = cpsNew;

  06140	e59d3040	 ldr         r3, [sp, #0x40]
  06144	e28320c4	 add         r2, r3, #0xC4
  06148	e59d3044	 ldr         r3, [sp, #0x44]
  0614c	e5823000	 str         r3, [r2]
  06150		 |$LN10@SetPowerSt|

; 1244 :     }
; 1245 : }

  06150	e28dd038	 add         sp, sp, #0x38
  06154	e89d6000	 ldmia       sp, {sp, lr}
  06158	e12fff1e	 bx          lr
  0615c		 |$LN25@SetPowerSt|
  0615c		 |$LN26@SetPowerSt|
  0615c	010100a4	 DCD         0x10100a4
  06160		 |$LN27@SetPowerSt|
  06160	010100a0	 DCD         0x10100a0
  06164		 |$LN28@SetPowerSt|
  06164	00000000	 DCD         |??_C@_1DG@GDCCACCF@?$AA?$CF?$AAs?$AA?5?$AAG?$AAo?$AAi?$AAn?$AAg?$AA?5?$AAf?$AAr?$AAo?$AAm?$AA?5?$AAD?$AA?$CF?$AAu?$AA?5?$AAt?$AAo?$AA?5?$AAD?$AA?$CF?$AAu?$AA?$AN?$AA?6?$AA?$AA@|
  06168		 |$LN29@SetPowerSt|
  06168	00000000	 DCD         |dpCurSettings|
  0616c		 |$LN30@SetPowerSt|
  0616c	00000000	 DCD         |??_C@_1FI@GBLGGJMA@?$AAb?$AAu?$AAl?$AAv?$AAe?$AAr?$AAd?$AAe?$AA_?$AAu?$AAs?$AAb?$AAf?$AAn?$AA?$CB?$AAB?$AAu?$AAl?$AAU?$AAs?$AAb?$AAD?$AAe?$AAv?$AAi?$AAc?$AAe?$AA?3?$AA?3?$AAS?$AAe?$AAt@|
  06170		 |$M39662|

			 ENDP  ; |?SetPowerState@BulUsbDevice@@UAAXW4_CEDEVICE_POWER_STATE@@@Z|, BulUsbDevice::SetPowerState

	EXPORT	|??_C@_1EI@FCNODLJG@?$AA?$CF?$AAs?$AA?5?$AAI?$AAO?$AAC?$AAT?$AAL?$AA_?$AAB?$AAU?$AAS?$AA_?$AAG?$AAE?$AAT?$AA_?$AAP?$AAO?$AAW?$AAE?$AAR?$AA_?$AAS?$AAT?$AAA?$AAT?$AAE?$AA?$CI?$AAD?$AA?$CF?$AAu@| [ DATA ] ; `string'
	EXPORT	|??_C@_1DO@EODPIPPP@?$AA?$CF?$AAs?$AA?5?$AAI?$AAO?$AAC?$AAT?$AAL?$AA_?$AAB?$AAU?$AAS?$AA_?$AAG?$AAE?$AAT?$AA_?$AAP?$AAO?$AAW?$AAE?$AAR?$AA_?$AAS?$AAT?$AAA?$AAT?$AAE?$AA?$AN?$AA?6?$AA?$AA@| [ DATA ] ; `string'
	EXPORT	|??_C@_1FA@EJDIPOOK@?$AAb?$AAu?$AAl?$AAv?$AAe?$AAr?$AAd?$AAe?$AA_?$AAu?$AAs?$AAb?$AAf?$AAn?$AA?$CB?$AAB?$AAu?$AAl?$AAU?$AAs?$AAb?$AAD?$AAe?$AAv?$AAi?$AAc?$AAe?$AA?3?$AA?3?$AAI?$AAO?$AAC@| [ DATA ] ; `string'

  00170			 AREA	 |.pdata|, PDATA
|$T39706| DCD	|$LN44@IOControl|
	DCD	0x40012004

  00000			 AREA	 |.rdata|, DATA, READONLY
|??_C@_1EI@FCNODLJG@?$AA?$CF?$AAs?$AA?5?$AAI?$AAO?$AAC?$AAT?$AAL?$AA_?$AAB?$AAU?$AAS?$AA_?$AAG?$AAE?$AAT?$AA_?$AAP?$AAO?$AAW?$AAE?$AAR?$AA_?$AAS?$AAT?$AAA?$AAT?$AAE?$AA?$CI?$AAD?$AA?$CF?$AAu@| DCB "%"
	DCB	0x0, "s", 0x0, " ", 0x0, "I", 0x0, "O", 0x0, "C", 0x0, "T"
	DCB	0x0, "L", 0x0, "_", 0x0, "B", 0x0, "U", 0x0, "S", 0x0, "_"
	DCB	0x0, "G", 0x0, "E", 0x0, "T", 0x0, "_", 0x0, "P", 0x0, "O"
	DCB	0x0, "W", 0x0, "E", 0x0, "R", 0x0, "_", 0x0, "S", 0x0, "T"
	DCB	0x0, "A", 0x0, "T", 0x0, "E", 0x0, "(", 0x0, "D", 0x0, "%"
	DCB	0x0, "u", 0x0, ")", 0x0, 0xd, 0x0, 0xa, 0x0, 0x0, 0x0 ; `string'

  00000			 AREA	 |.rdata|, DATA, READONLY
|??_C@_1DO@EODPIPPP@?$AA?$CF?$AAs?$AA?5?$AAI?$AAO?$AAC?$AAT?$AAL?$AA_?$AAB?$AAU?$AAS?$AA_?$AAG?$AAE?$AAT?$AA_?$AAP?$AAO?$AAW?$AAE?$AAR?$AA_?$AAS?$AAT?$AAA?$AAT?$AAE?$AA?$AN?$AA?6?$AA?$AA@| DCB "%"
	DCB	0x0, "s", 0x0, " ", 0x0, "I", 0x0, "O", 0x0, "C", 0x0, "T"
	DCB	0x0, "L", 0x0, "_", 0x0, "B", 0x0, "U", 0x0, "S", 0x0, "_"
	DCB	0x0, "G", 0x0, "E", 0x0, "T", 0x0, "_", 0x0, "P", 0x0, "O"
	DCB	0x0, "W", 0x0, "E", 0x0, "R", 0x0, "_", 0x0, "S", 0x0, "T"
	DCB	0x0, "A", 0x0, "T", 0x0, "E", 0x0, 0xd, 0x0, 0xa, 0x0, 0x0
	DCB	0x0					; `string'

  00000			 AREA	 |.rdata|, DATA, READONLY
|??_C@_1FA@EJDIPOOK@?$AAb?$AAu?$AAl?$AAv?$AAe?$AAr?$AAd?$AAe?$AA_?$AAu?$AAs?$AAb?$AAf?$AAn?$AA?$CB?$AAB?$AAu?$AAl?$AAU?$AAs?$AAb?$AAD?$AAe?$AAv?$AAi?$AAc?$AAe?$AA?3?$AA?3?$AAI?$AAO?$AAC@| DCB "b"
	DCB	0x0, "u", 0x0, "l", 0x0, "v", 0x0, "e", 0x0, "r", 0x0, "d"
	DCB	0x0, "e", 0x0, "_", 0x0, "u", 0x0, "s", 0x0, "b", 0x0, "f"
	DCB	0x0, "n", 0x0, "!", 0x0, "B", 0x0, "u", 0x0, "l", 0x0, "U"
	DCB	0x0, "s", 0x0, "b", 0x0, "D", 0x0, "e", 0x0, "v", 0x0, "i"
	DCB	0x0, "c", 0x0, "e", 0x0, ":", 0x0, ":", 0x0, "I", 0x0, "O"
	DCB	0x0, "C", 0x0, "o", 0x0, "n", 0x0, "t", 0x0, "r", 0x0, "o"
	DCB	0x0, "l", 0x0, ":", 0x0, 0x0, 0x0	; `string'
; Function compile flags: /Odtp

  06170			 AREA	 |.text|, CODE, ARM

  06170		 |?IOControl@BulUsbDevice@@UAAKW4_IOCTL_SOURCE@@KPAEK1KPAK@Z| PROC ; BulUsbDevice::IOControl

; 1247 : {

  06170		 |$LN44@IOControl|
  06170	e1a0c00d	 mov         r12, sp
  06174	e92d000f	 stmdb       sp!, {r0 - r3}
  06178	e92d5000	 stmdb       sp!, {r12, lr}
  0617c	e24dd044	 sub         sp, sp, #0x44
  06180		 |$M39703|

; 1248 :     SETFNAME();

  06180	e59f3464	 ldr         r3, [pc, #0x464]
  06184	e58d3004	 str         r3, [sp, #4]

; 1249 :     FUNCTION_ENTER_MSG();

  06188	e59f3444	 ldr         r3, [pc, #0x444]
  0618c	e5933440	 ldr         r3, [r3, #0x440]
  06190	e3130a01	 tst         r3, #1, 20
  06194	0a00000d	 beq         |$LN14@IOControl|
  06198	e59f3434	 ldr         r3, [pc, #0x434]
  0619c	e5933440	 ldr         r3, [r3, #0x440]
  061a0	e3130801	 tst         r3, #1, 16
  061a4	0a000003	 beq         |$LN12@IOControl|
  061a8	e59d1004	 ldr         r1, [sp, #4]
  061ac	e59f0434	 ldr         r0, [pc, #0x434]
  061b0	eb000000	 bl          CeLogMsg
  061b4	ea000002	 b           |$LN13@IOControl|
  061b8		 |$LN12@IOControl|
  061b8	e59d1004	 ldr         r1, [sp, #4]
  061bc	e59f0424	 ldr         r0, [pc, #0x424]
  061c0	eb000000	 bl          NKDbgPrintfW
  061c4		 |$LN13@IOControl|
  061c4	e3a03001	 mov         r3, #1
  061c8	e58d3014	 str         r3, [sp, #0x14]
  061cc	ea000001	 b           |$LN15@IOControl|
  061d0		 |$LN14@IOControl|
  061d0	e3a03000	 mov         r3, #0
  061d4	e58d3014	 str         r3, [sp, #0x14]
  061d8		 |$LN15@IOControl|

; 1250 : 
; 1251 :     DWORD dwRet = ERROR_INVALID_PARAMETER;

  061d8	e3a03057	 mov         r3, #0x57
  061dc	e58d3000	 str         r3, [sp]

; 1252 : 
; 1253 :     switch (dwCode) {

  061e0	e59d3054	 ldr         r3, [sp, #0x54]
  061e4	e58d3018	 str         r3, [sp, #0x18]
  061e8	e59d2018	 ldr         r2, [sp, #0x18]
  061ec	e3a03822	 mov         r3, #0x22, 16
  061f0	e3833f65	 orr         r3, r3, #0x65, 30
  061f4	e1520003	 cmp         r2, r3
  061f8	0a00000a	 beq         |$LN7@IOControl|
  061fc	e59d2018	 ldr         r2, [sp, #0x18]
  06200	e3a0382a	 mov         r3, #0x2A, 16
  06204	e383300c	 orr         r3, r3, #0xC
  06208	e1520003	 cmp         r2, r3
  0620c	0a000010	 beq         |$LN4@IOControl|
  06210	e59d2018	 ldr         r2, [sp, #0x18]
  06214	e3a0382a	 mov         r3, #0x2A, 16
  06218	e3833010	 orr         r3, r3, #0x10
  0621c	e1520003	 cmp         r2, r3
  06220	0a00005c	 beq         |$LN2@IOControl|
  06224	ea0000cf	 b           |$LN8@IOControl|
  06228		 |$LN7@IOControl|

; 1254 :     case IOCTL_UFN_GET_PDD_INFO:
; 1255 :         if ( source != BUS_IOCTL || pbOut == NULL || cbOut != sizeof(UFN_PDD_INFO) ) {

  06228	e59d3050	 ldr         r3, [sp, #0x50]
  0622c	e3530000	 cmp         r3, #0
  06230	1a000005	 bne         |$LN5@IOControl|
  06234	e59d3060	 ldr         r3, [sp, #0x60]
  06238	e3530000	 cmp         r3, #0
  0623c	0a000002	 beq         |$LN5@IOControl|
  06240	e59d3064	 ldr         r3, [sp, #0x64]
  06244	e353000c	 cmp         r3, #0xC
  06248	0a000000	 beq         |$LN6@IOControl|
  0624c		 |$LN5@IOControl|

; 1256 :             break;

  0624c	ea0000c5	 b           |$LN8@IOControl|
  06250		 |$LN6@IOControl|

; 1257 :         }
; 1258 : 
; 1259 :         // Not currently supported.
; 1260 :         break;

  06250	ea0000c4	 b           |$LN8@IOControl|
  06254		 |$LN4@IOControl|

; 1261 : 
; 1262 :     case IOCTL_BUS_GET_POWER_STATE:
; 1263 :         if (source == MDD_IOCTL) {

  06254	e59d3050	 ldr         r3, [sp, #0x50]
  06258	e3530002	 cmp         r3, #2
  0625c	1a00004c	 bne         |$LN3@IOControl|

; 1264 :             PREFAST_DEBUGCHK(pbIn);

  06260	e59d3058	 ldr         r3, [sp, #0x58]
  06264	e3530000	 cmp         r3, #0
  06268	0a000002	 beq         |$LN16@IOControl|
  0626c	e3a03001	 mov         r3, #1
  06270	e58d301c	 str         r3, [sp, #0x1C]
  06274	ea000007	 b           |$LN17@IOControl|
  06278		 |$LN16@IOControl|
  06278	e3a03e4f	 mov         r3, #0x4F, 28
  0627c	e59f235c	 ldr         r2, [pc, #0x35C]
  06280	e59f134c	 ldr         r1, [pc, #0x34C]
  06284	e59f0350	 ldr         r0, [pc, #0x350]
  06288	eb000000	 bl          NKDbgPrintfW
  0628c	e6000010	 __debugbreak_ce
  06290	e3a03000	 mov         r3, #0
  06294	e58d301c	 str         r3, [sp, #0x1C]
  06298		 |$LN17@IOControl|

; 1265 :             DEBUGCHK(cbIn == sizeof(CE_BUS_POWER_STATE));

  06298	e59d305c	 ldr         r3, [sp, #0x5C]
  0629c	e353000c	 cmp         r3, #0xC
  062a0	1a000002	 bne         |$LN18@IOControl|
  062a4	e3a03001	 mov         r3, #1
  062a8	e58d3020	 str         r3, [sp, #0x20]
  062ac	ea000008	 b           |$LN19@IOControl|
  062b0		 |$LN18@IOControl|
  062b0	e3a03b01	 mov         r3, #1, 22
  062b4	e38330f1	 orr         r3, r3, #0xF1
  062b8	e59f2320	 ldr         r2, [pc, #0x320]
  062bc	e59f1310	 ldr         r1, [pc, #0x310]
  062c0	e59f0314	 ldr         r0, [pc, #0x314]
  062c4	eb000000	 bl          NKDbgPrintfW
  062c8	e6000010	 __debugbreak_ce
  062cc	e3a03000	 mov         r3, #0
  062d0	e58d3020	 str         r3, [sp, #0x20]
  062d4		 |$LN19@IOControl|

; 1266 : 
; 1267 :             PCE_BUS_POWER_STATE pCePowerState = (PCE_BUS_POWER_STATE) pbIn;

  062d4	e59d3058	 ldr         r3, [sp, #0x58]
  062d8	e58d3008	 str         r3, [sp, #8]

; 1268 :             PREFAST_DEBUGCHK(pCePowerState->lpceDevicePowerState);

  062dc	e59d3008	 ldr         r3, [sp, #8]
  062e0	e2833004	 add         r3, r3, #4
  062e4	e5933000	 ldr         r3, [r3]
  062e8	e3530000	 cmp         r3, #0
  062ec	0a000002	 beq         |$LN20@IOControl|
  062f0	e3a03001	 mov         r3, #1
  062f4	e58d3024	 str         r3, [sp, #0x24]
  062f8	ea000008	 b           |$LN21@IOControl|
  062fc		 |$LN20@IOControl|
  062fc	e3a03b01	 mov         r3, #1, 22
  06300	e38330f4	 orr         r3, r3, #0xF4
  06304	e59f22d4	 ldr         r2, [pc, #0x2D4]
  06308	e59f12c4	 ldr         r1, [pc, #0x2C4]
  0630c	e59f02c8	 ldr         r0, [pc, #0x2C8]
  06310	eb000000	 bl          NKDbgPrintfW
  06314	e6000010	 __debugbreak_ce
  06318	e3a03000	 mov         r3, #0
  0631c	e58d3024	 str         r3, [sp, #0x24]
  06320		 |$LN21@IOControl|

; 1269 : 
; 1270 :             DEBUGMSG(ZONE_FUNCTION, (_T("%s IOCTL_BUS_GET_POWER_STATE\r\n"), pszFname));

  06320	e59f32ac	 ldr         r3, [pc, #0x2AC]
  06324	e5933440	 ldr         r3, [r3, #0x440]
  06328	e3130a01	 tst         r3, #1, 20
  0632c	0a00000d	 beq         |$LN24@IOControl|
  06330	e59f329c	 ldr         r3, [pc, #0x29C]
  06334	e5933440	 ldr         r3, [r3, #0x440]
  06338	e3130801	 tst         r3, #1, 16
  0633c	0a000003	 beq         |$LN22@IOControl|
  06340	e59d1004	 ldr         r1, [sp, #4]
  06344	e59f0298	 ldr         r0, [pc, #0x298]
  06348	eb000000	 bl          CeLogMsg
  0634c	ea000002	 b           |$LN23@IOControl|
  06350		 |$LN22@IOControl|
  06350	e59d1004	 ldr         r1, [sp, #4]
  06354	e59f0288	 ldr         r0, [pc, #0x288]
  06358	eb000000	 bl          NKDbgPrintfW
  0635c		 |$LN23@IOControl|
  0635c	e3a03001	 mov         r3, #1
  06360	e58d3028	 str         r3, [sp, #0x28]
  06364	ea000001	 b           |$LN25@IOControl|
  06368		 |$LN24@IOControl|
  06368	e3a03000	 mov         r3, #0
  0636c	e58d3028	 str         r3, [sp, #0x28]
  06370		 |$LN25@IOControl|

; 1271 : 
; 1272 :             *pCePowerState->lpceDevicePowerState = m_CurPowerState;

  06370	e59d304c	 ldr         r3, [sp, #0x4C]
  06374	e28310c4	 add         r1, r3, #0xC4
  06378	e59d3008	 ldr         r3, [sp, #8]
  0637c	e2833004	 add         r3, r3, #4
  06380	e5932000	 ldr         r2, [r3]
  06384	e5913000	 ldr         r3, [r1]
  06388	e5823000	 str         r3, [r2]

; 1273 : 
; 1274 :             dwRet = ERROR_SUCCESS;

  0638c	e3a03000	 mov         r3, #0
  06390	e58d3000	 str         r3, [sp]
  06394		 |$LN3@IOControl|

; 1275 :         }
; 1276 :         break;

  06394	ea000073	 b           |$LN8@IOControl|
  06398		 |$LN2@IOControl|

; 1277 : 
; 1278 :     case IOCTL_BUS_SET_POWER_STATE:
; 1279 :         if (source == MDD_IOCTL) {

  06398	e59d3050	 ldr         r3, [sp, #0x50]
  0639c	e3530002	 cmp         r3, #2
  063a0	1a000070	 bne         |$LN1@IOControl|

; 1280 :             PREFAST_DEBUGCHK(pbIn);

  063a4	e59d3058	 ldr         r3, [sp, #0x58]
  063a8	e3530000	 cmp         r3, #0
  063ac	0a000002	 beq         |$LN26@IOControl|
  063b0	e3a03001	 mov         r3, #1
  063b4	e58d302c	 str         r3, [sp, #0x2C]
  063b8	ea000007	 b           |$LN27@IOControl|
  063bc		 |$LN26@IOControl|
  063bc	e3a03c05	 mov         r3, #5, 24
  063c0	e59f2218	 ldr         r2, [pc, #0x218]
  063c4	e59f1208	 ldr         r1, [pc, #0x208]
  063c8	e59f020c	 ldr         r0, [pc, #0x20C]
  063cc	eb000000	 bl          NKDbgPrintfW
  063d0	e6000010	 __debugbreak_ce
  063d4	e3a03000	 mov         r3, #0
  063d8	e58d302c	 str         r3, [sp, #0x2C]
  063dc		 |$LN27@IOControl|

; 1281 :             DEBUGCHK(cbIn == sizeof(CE_BUS_POWER_STATE));

  063dc	e59d305c	 ldr         r3, [sp, #0x5C]
  063e0	e353000c	 cmp         r3, #0xC
  063e4	1a000002	 bne         |$LN28@IOControl|
  063e8	e3a03001	 mov         r3, #1
  063ec	e58d3030	 str         r3, [sp, #0x30]
  063f0	ea000008	 b           |$LN29@IOControl|
  063f4		 |$LN28@IOControl|
  063f4	e3a03c05	 mov         r3, #5, 24
  063f8	e3833001	 orr         r3, r3, #1
  063fc	e59f21dc	 ldr         r2, [pc, #0x1DC]
  06400	e59f11cc	 ldr         r1, [pc, #0x1CC]
  06404	e59f01d0	 ldr         r0, [pc, #0x1D0]
  06408	eb000000	 bl          NKDbgPrintfW
  0640c	e6000010	 __debugbreak_ce
  06410	e3a03000	 mov         r3, #0
  06414	e58d3030	 str         r3, [sp, #0x30]
  06418		 |$LN29@IOControl|

; 1282 : 
; 1283 :             PCE_BUS_POWER_STATE pCePowerState = (PCE_BUS_POWER_STATE) pbIn;

  06418	e59d3058	 ldr         r3, [sp, #0x58]
  0641c	e58d300c	 str         r3, [sp, #0xC]

; 1284 : 
; 1285 :             PREFAST_DEBUGCHK(pCePowerState->lpceDevicePowerState);

  06420	e59d300c	 ldr         r3, [sp, #0xC]
  06424	e2833004	 add         r3, r3, #4
  06428	e5933000	 ldr         r3, [r3]
  0642c	e3530000	 cmp         r3, #0
  06430	0a000002	 beq         |$LN30@IOControl|
  06434	e3a03001	 mov         r3, #1
  06438	e58d3034	 str         r3, [sp, #0x34]
  0643c	ea000008	 b           |$LN31@IOControl|
  06440		 |$LN30@IOControl|
  06440	e3a03c05	 mov         r3, #5, 24
  06444	e3833005	 orr         r3, r3, #5
  06448	e59f2190	 ldr         r2, [pc, #0x190]
  0644c	e59f1180	 ldr         r1, [pc, #0x180]
  06450	e59f0184	 ldr         r0, [pc, #0x184]
  06454	eb000000	 bl          NKDbgPrintfW
  06458	e6000010	 __debugbreak_ce
  0645c	e3a03000	 mov         r3, #0
  06460	e58d3034	 str         r3, [sp, #0x34]
  06464		 |$LN31@IOControl|

; 1286 :             DEBUGCHK(VALID_DX(*pCePowerState->lpceDevicePowerState));

  06464	e59d300c	 ldr         r3, [sp, #0xC]
  06468	e2833004	 add         r3, r3, #4
  0646c	e5933000	 ldr         r3, [r3]
  06470	e5933000	 ldr         r3, [r3]
  06474	e3730001	 cmn         r3, #1
  06478	da000008	 ble         |$LN32@IOControl|
  0647c	e59d300c	 ldr         r3, [sp, #0xC]
  06480	e2833004	 add         r3, r3, #4
  06484	e5933000	 ldr         r3, [r3]
  06488	e5933000	 ldr         r3, [r3]
  0648c	e3530005	 cmp         r3, #5
  06490	aa000002	 bge         |$LN32@IOControl|
  06494	e3a03001	 mov         r3, #1
  06498	e58d3038	 str         r3, [sp, #0x38]
  0649c	ea000008	 b           |$LN33@IOControl|
  064a0		 |$LN32@IOControl|
  064a0	e3a03c05	 mov         r3, #5, 24
  064a4	e3833006	 orr         r3, r3, #6
  064a8	e59f2130	 ldr         r2, [pc, #0x130]
  064ac	e59f1120	 ldr         r1, [pc, #0x120]
  064b0	e59f0124	 ldr         r0, [pc, #0x124]
  064b4	eb000000	 bl          NKDbgPrintfW
  064b8	e6000010	 __debugbreak_ce
  064bc	e3a03000	 mov         r3, #0
  064c0	e58d3038	 str         r3, [sp, #0x38]
  064c4		 |$LN33@IOControl|

; 1287 : 
; 1288 :             DEBUGMSG(ZONE_FUNCTION, (_T("%s IOCTL_BUS_GET_POWER_STATE(D%u)\r\n"), pszFname, *pCePowerState->lpceDevicePowerState));

  064c4	e59f3108	 ldr         r3, [pc, #0x108]
  064c8	e5933440	 ldr         r3, [r3, #0x440]
  064cc	e3130a01	 tst         r3, #1, 20
  064d0	0a000015	 beq         |$LN36@IOControl|
  064d4	e59f30f8	 ldr         r3, [pc, #0xF8]
  064d8	e5933440	 ldr         r3, [r3, #0x440]
  064dc	e3130801	 tst         r3, #1, 16
  064e0	0a000007	 beq         |$LN34@IOControl|
  064e4	e59d300c	 ldr         r3, [sp, #0xC]
  064e8	e2833004	 add         r3, r3, #4
  064ec	e5933000	 ldr         r3, [r3]
  064f0	e5932000	 ldr         r2, [r3]
  064f4	e59d1004	 ldr         r1, [sp, #4]
  064f8	e59f00d8	 ldr         r0, [pc, #0xD8]
  064fc	eb000000	 bl          CeLogMsg
  06500	ea000006	 b           |$LN35@IOControl|
  06504		 |$LN34@IOControl|
  06504	e59d300c	 ldr         r3, [sp, #0xC]
  06508	e2833004	 add         r3, r3, #4
  0650c	e5933000	 ldr         r3, [r3]
  06510	e5932000	 ldr         r2, [r3]
  06514	e59d1004	 ldr         r1, [sp, #4]
  06518	e59f00b8	 ldr         r0, [pc, #0xB8]
  0651c	eb000000	 bl          NKDbgPrintfW
  06520		 |$LN35@IOControl|
  06520	e3a03001	 mov         r3, #1
  06524	e58d303c	 str         r3, [sp, #0x3C]
  06528	ea000001	 b           |$LN37@IOControl|
  0652c		 |$LN36@IOControl|
  0652c	e3a03000	 mov         r3, #0
  06530	e58d303c	 str         r3, [sp, #0x3C]
  06534		 |$LN37@IOControl|

; 1289 :             SetPowerState( *pCePowerState->lpceDevicePowerState );

  06534	e59d300c	 ldr         r3, [sp, #0xC]
  06538	e2833004	 add         r3, r3, #4
  0653c	e5933000	 ldr         r3, [r3]
  06540	e5931000	 ldr         r1, [r3]
  06544	e59d304c	 ldr         r3, [sp, #0x4C]
  06548	e5933000	 ldr         r3, [r3]
  0654c	e2833050	 add         r3, r3, #0x50
  06550	e59d004c	 ldr         r0, [sp, #0x4C]
  06554	e5933000	 ldr         r3, [r3]
  06558	e1a0e00f	 mov         lr, pc
  0655c	e12fff13	 bx          r3

; 1290 :             dwRet = ERROR_SUCCESS;

  06560	e3a03000	 mov         r3, #0
  06564	e58d3000	 str         r3, [sp]
  06568		 |$LN1@IOControl|
  06568		 |$LN8@IOControl|

; 1291 :         }
; 1292 :         break;
; 1293 :     }
; 1294 :     FUNCTION_LEAVE_MSG();

  06568	e59f3064	 ldr         r3, [pc, #0x64]
  0656c	e5933440	 ldr         r3, [r3, #0x440]
  06570	e3130a01	 tst         r3, #1, 20
  06574	0a00000d	 beq         |$LN40@IOControl|
  06578	e59f3054	 ldr         r3, [pc, #0x54]
  0657c	e5933440	 ldr         r3, [r3, #0x440]
  06580	e3130801	 tst         r3, #1, 16
  06584	0a000003	 beq         |$LN38@IOControl|
  06588	e59d1004	 ldr         r1, [sp, #4]
  0658c	e59f003c	 ldr         r0, [pc, #0x3C]
  06590	eb000000	 bl          CeLogMsg
  06594	ea000002	 b           |$LN39@IOControl|
  06598		 |$LN38@IOControl|
  06598	e59d1004	 ldr         r1, [sp, #4]
  0659c	e59f002c	 ldr         r0, [pc, #0x2C]
  065a0	eb000000	 bl          NKDbgPrintfW
  065a4		 |$LN39@IOControl|
  065a4	e3a03001	 mov         r3, #1
  065a8	e58d3040	 str         r3, [sp, #0x40]
  065ac	ea000001	 b           |$LN41@IOControl|
  065b0		 |$LN40@IOControl|
  065b0	e3a03000	 mov         r3, #0
  065b4	e58d3040	 str         r3, [sp, #0x40]
  065b8		 |$LN41@IOControl|

; 1295 :     return dwRet;

  065b8	e59d3000	 ldr         r3, [sp]
  065bc	e58d3010	 str         r3, [sp, #0x10]

; 1296 : }

  065c0	e59d0010	 ldr         r0, [sp, #0x10]
  065c4	e28dd044	 add         sp, sp, #0x44
  065c8	e89d6000	 ldmia       sp, {sp, lr}
  065cc	e12fff1e	 bx          lr
  065d0		 |$LN45@IOControl|
  065d0		 |$LN46@IOControl|
  065d0	00000000	 DCD         |??_C@_1BA@PLOOFDPK@?$AA?$CF?$AAs?$AA?5?$AA?9?$AA?9?$AA?$AN?$AA?6?$AA?$AA@|
  065d4		 |$LN47@IOControl|
  065d4	00000000	 DCD         |dpCurSettings|
  065d8		 |$LN48@IOControl|
  065d8	00000000	 DCD         |??_C@_1EI@FCNODLJG@?$AA?$CF?$AAs?$AA?5?$AAI?$AAO?$AAC?$AAT?$AAL?$AA_?$AAB?$AAU?$AAS?$AA_?$AAG?$AAE?$AAT?$AA_?$AAP?$AAO?$AAW?$AAE?$AAR?$AA_?$AAS?$AAT?$AAA?$AAT?$AAE?$AA?$CI?$AAD?$AA?$CF?$AAu@|
  065dc		 |$LN49@IOControl|
  065dc	00000000	 DCD         |??_C@_1FK@FNONLNGN@?$AA?$CF?$AAs?$AA?3?$AA?5?$AAD?$AAE?$AAB?$AAU?$AAG?$AAC?$AAH?$AAK?$AA?5?$AAf?$AAa?$AAi?$AAl?$AAe?$AAd?$AA?5?$AAi?$AAn?$AA?5?$AAf?$AAi?$AAl?$AAe?$AA?5?$AA?$CF?$AAs?$AA?5?$AAa@|
  065e0		 |$LN50@IOControl|
  065e0	00000000	 DCD         |??_C@_1IO@HHHNJPIB@?$AAC?$AA?3?$AA?2?$AAW?$AAI?$AAN?$AAC?$AAE?$AA6?$AA0?$AA0?$AA?2?$AAP?$AAL?$AAA?$AAT?$AAF?$AAO?$AAR?$AAM?$AA?2?$AAC?$AAO?$AAM?$AAM?$AAO?$AAN?$AA?2?$AAS?$AAR?$AAC?$AA?2@|
  065e4		 |$LN51@IOControl|
  065e4	00000000	 DCD         |??_C@_1DO@EODPIPPP@?$AA?$CF?$AAs?$AA?5?$AAI?$AAO?$AAC?$AAT?$AAL?$AA_?$AAB?$AAU?$AAS?$AA_?$AAG?$AAE?$AAT?$AA_?$AAP?$AAO?$AAW?$AAE?$AAR?$AA_?$AAS?$AAT?$AAA?$AAT?$AAE?$AA?$AN?$AA?6?$AA?$AA@|
  065e8		 |$LN52@IOControl|
  065e8	00000000	 DCD         |??_C@_1BA@DAJPCKDK@?$AA?$CF?$AAs?$AA?5?$AA?$CL?$AA?$CL?$AA?$AN?$AA?6?$AA?$AA@|
  065ec		 |$LN53@IOControl|
  065ec	00000000	 DCD         |??_C@_1FA@EJDIPOOK@?$AAb?$AAu?$AAl?$AAv?$AAe?$AAr?$AAd?$AAe?$AA_?$AAu?$AAs?$AAb?$AAf?$AAn?$AA?$CB?$AAB?$AAu?$AAl?$AAU?$AAs?$AAb?$AAD?$AAe?$AAv?$AAi?$AAc?$AAe?$AA?3?$AA?3?$AAI?$AAO?$AAC@|
  065f0		 |$M39704|

			 ENDP  ; |?IOControl@BulUsbDevice@@UAAKW4_IOCTL_SOURCE@@KPAEK1KPAK@Z|, BulUsbDevice::IOControl

	EXPORT	|??_C@_1CM@EGFBCGNP@?$AA?$CF?$AAs?$AA?5?$AA?3?$AA?5?$AAR?$AAe?$AAs?$AAe?$AAt?$AA?5?$AAD?$AAe?$AAt?$AAe?$AAc?$AAt?$AAe?$AAd?$AA?$AN?$AA?6?$AA?$AA@| [ DATA ] ; `string'
	EXPORT	|??_C@_1DA@GBOALIGG@?$AA?$CF?$AAs?$AA?5?$AA?3?$AA?5?$AAS?$AAu?$AAs?$AAp?$AAe?$AAn?$AAd?$AA?5?$AAD?$AAe?$AAt?$AAe?$AAc?$AAt?$AAe?$AAd?$AA?$AN?$AA?6?$AA?$AA@| [ DATA ] ; `string'
	EXPORT	|??_C@_1CO@EFDBPNJB@?$AA?$CF?$AAs?$AA?5?$AA?3?$AA?5?$AAR?$AAe?$AAs?$AAu?$AAm?$AAe?$AA?5?$AAD?$AAe?$AAt?$AAe?$AAc?$AAt?$AAe?$AAd?$AA?$AN?$AA?6?$AA?$AA@| [ DATA ] ; `string'
	EXPORT	|??_C@_1DA@NMDPEMEI@?$AA?$CF?$AAs?$AA?5?$AA?3?$AA?5?$AAA?$AAA?$AAL?$AAT?$AAH?$AAN?$AAP?$AA?5?$AAD?$AAe?$AAt?$AAe?$AAc?$AAt?$AAe?$AAd?$AA?$AN?$AA?6?$AA?$AA@| [ DATA ] ; `string'
	EXPORT	|??_C@_1CK@FLOPHAOM@?$AA?$CF?$AAs?$AA?5?$AA?3?$AA?5?$AAA?$AAH?$AAN?$AAP?$AA?5?$AAD?$AAe?$AAt?$AAe?$AAc?$AAt?$AAe?$AAd?$AA?$AN?$AA?6?$AA?$AA@| [ DATA ] ; `string'
	EXPORT	|??_C@_1CK@JCPAHIFD@?$AA?$CF?$AAs?$AA?5?$AA?3?$AA?5?$AAB?$AAH?$AAN?$AAP?$AA?5?$AAD?$AAe?$AAt?$AAe?$AAc?$AAt?$AAe?$AAd?$AA?$AN?$AA?6?$AA?$AA@| [ DATA ] ; `string'
	EXPORT	|??_C@_1HM@PACLFJML@?$AA?$CF?$AAs?$AA?5?$AA?3?$AA?5?$AAS?$AAe?$AAt?$AAu?$AAp?$AA?5?$AAC?$AAo?$AAn?$AAf?$AAi?$AAg?$AAu?$AAr?$AAa?$AAt?$AAi?$AAo?$AAn?$AA?5?$AAa?$AAn?$AAd?$AA?5?$AAI?$AAn?$AAt@| [ DATA ] ; `string'
	EXPORT	|??_C@_1CO@MEPJDBNF@?$AA?$CF?$AAs?$AA?5?$AA?3?$AA?5?$AAD?$AAe?$AAt?$AAa?$AAc?$AAh?$AA?5?$AAD?$AAe?$AAt?$AAe?$AAc?$AAt?$AAe?$AAd?$AA?$AN?$AA?6?$AA?$AA@| [ DATA ] ; `string'
	EXPORT	|??_C@_1CO@GIONPFEC@?$AA?$CF?$AAs?$AA?5?$AA?3?$AA?5?$AAA?$AAt?$AAt?$AAa?$AAc?$AAh?$AA?5?$AAD?$AAe?$AAt?$AAe?$AAc?$AAt?$AAe?$AAd?$AA?$AN?$AA?6?$AA?$AA@| [ DATA ] ; `string'
	EXPORT	|??_C@_1NO@LLINCANK@?$AA?$CF?$AAs?$AA?5?$AA?3?$AA?5?$AAB?$AAu?$AAl?$AAU?$AAs?$AAb?$AAD?$AAe?$AAv?$AAi?$AAc?$AAe?$AA?5?$AAd?$AAw?$AAI?$AAn?$AAt?$AAr?$AA0?$AAS?$AAt?$AAa?$AAt?$AAu?$AAs?$AA?5@| [ DATA ] ; `string'
	EXPORT	|??_C@_1FC@MMNDIEJJ@?$AAb?$AAu?$AAl?$AAv?$AAe?$AAr?$AAd?$AAe?$AA_?$AAu?$AAs?$AAb?$AAf?$AAn?$AA?$CB?$AAB?$AAu?$AAl?$AAU?$AAs?$AAb?$AAD?$AAe?$AAv?$AAi?$AAc?$AAe?$AA?3?$AA?3?$AAI?$AAS?$AAT@| [ DATA ] ; `string'
	EXPORT	|?ISTProcess@BulUsbDevice@@IAAXXZ|	; BulUsbDevice::ISTProcess

  00178			 AREA	 |.pdata|, PDATA
|$T39772| DCD	|$LN82@ISTProcess|
	DCD	0x40031604

  00000			 AREA	 |.rdata|, DATA, READONLY
|??_C@_1CM@EGFBCGNP@?$AA?$CF?$AAs?$AA?5?$AA?3?$AA?5?$AAR?$AAe?$AAs?$AAe?$AAt?$AA?5?$AAD?$AAe?$AAt?$AAe?$AAc?$AAt?$AAe?$AAd?$AA?$AN?$AA?6?$AA?$AA@| DCB "%"
	DCB	0x0, "s", 0x0, " ", 0x0, ":", 0x0, " ", 0x0, "R", 0x0, "e"
	DCB	0x0, "s", 0x0, "e", 0x0, "t", 0x0, " ", 0x0, "D", 0x0, "e"
	DCB	0x0, "t", 0x0, "e", 0x0, "c", 0x0, "t", 0x0, "e", 0x0, "d"
	DCB	0x0, 0xd, 0x0, 0xa, 0x0, 0x0, 0x0	; `string'

  00000			 AREA	 |.rdata|, DATA, READONLY
|??_C@_1DA@GBOALIGG@?$AA?$CF?$AAs?$AA?5?$AA?3?$AA?5?$AAS?$AAu?$AAs?$AAp?$AAe?$AAn?$AAd?$AA?5?$AAD?$AAe?$AAt?$AAe?$AAc?$AAt?$AAe?$AAd?$AA?$AN?$AA?6?$AA?$AA@| DCB "%"
	DCB	0x0, "s", 0x0, " ", 0x0, ":", 0x0, " ", 0x0, "S", 0x0, "u"
	DCB	0x0, "s", 0x0, "p", 0x0, "e", 0x0, "n", 0x0, "d", 0x0, " "
	DCB	0x0, "D", 0x0, "e", 0x0, "t", 0x0, "e", 0x0, "c", 0x0, "t"
	DCB	0x0, "e", 0x0, "d", 0x0, 0xd, 0x0, 0xa, 0x0, 0x0, 0x0 ; `string'

  00000			 AREA	 |.rdata|, DATA, READONLY
|??_C@_1CO@EFDBPNJB@?$AA?$CF?$AAs?$AA?5?$AA?3?$AA?5?$AAR?$AAe?$AAs?$AAu?$AAm?$AAe?$AA?5?$AAD?$AAe?$AAt?$AAe?$AAc?$AAt?$AAe?$AAd?$AA?$AN?$AA?6?$AA?$AA@| DCB "%"
	DCB	0x0, "s", 0x0, " ", 0x0, ":", 0x0, " ", 0x0, "R", 0x0, "e"
	DCB	0x0, "s", 0x0, "u", 0x0, "m", 0x0, "e", 0x0, " ", 0x0, "D"
	DCB	0x0, "e", 0x0, "t", 0x0, "e", 0x0, "c", 0x0, "t", 0x0, "e"
	DCB	0x0, "d", 0x0, 0xd, 0x0, 0xa, 0x0, 0x0, 0x0 ; `string'

  00000			 AREA	 |.rdata|, DATA, READONLY
|??_C@_1DA@NMDPEMEI@?$AA?$CF?$AAs?$AA?5?$AA?3?$AA?5?$AAA?$AAA?$AAL?$AAT?$AAH?$AAN?$AAP?$AA?5?$AAD?$AAe?$AAt?$AAe?$AAc?$AAt?$AAe?$AAd?$AA?$AN?$AA?6?$AA?$AA@| DCB "%"
	DCB	0x0, "s", 0x0, " ", 0x0, ":", 0x0, " ", 0x0, "A", 0x0, "A"
	DCB	0x0, "L", 0x0, "T", 0x0, "H", 0x0, "N", 0x0, "P", 0x0, " "
	DCB	0x0, "D", 0x0, "e", 0x0, "t", 0x0, "e", 0x0, "c", 0x0, "t"
	DCB	0x0, "e", 0x0, "d", 0x0, 0xd, 0x0, 0xa, 0x0, 0x0, 0x0 ; `string'

  00000			 AREA	 |.rdata|, DATA, READONLY
|??_C@_1CK@FLOPHAOM@?$AA?$CF?$AAs?$AA?5?$AA?3?$AA?5?$AAA?$AAH?$AAN?$AAP?$AA?5?$AAD?$AAe?$AAt?$AAe?$AAc?$AAt?$AAe?$AAd?$AA?$AN?$AA?6?$AA?$AA@| DCB "%"
	DCB	0x0, "s", 0x0, " ", 0x0, ":", 0x0, " ", 0x0, "A", 0x0, "H"
	DCB	0x0, "N", 0x0, "P", 0x0, " ", 0x0, "D", 0x0, "e", 0x0, "t"
	DCB	0x0, "e", 0x0, "c", 0x0, "t", 0x0, "e", 0x0, "d", 0x0, 0xd
	DCB	0x0, 0xa, 0x0, 0x0, 0x0			; `string'

  00000			 AREA	 |.rdata|, DATA, READONLY
|??_C@_1CK@JCPAHIFD@?$AA?$CF?$AAs?$AA?5?$AA?3?$AA?5?$AAB?$AAH?$AAN?$AAP?$AA?5?$AAD?$AAe?$AAt?$AAe?$AAc?$AAt?$AAe?$AAd?$AA?$AN?$AA?6?$AA?$AA@| DCB "%"
	DCB	0x0, "s", 0x0, " ", 0x0, ":", 0x0, " ", 0x0, "B", 0x0, "H"
	DCB	0x0, "N", 0x0, "P", 0x0, " ", 0x0, "D", 0x0, "e", 0x0, "t"
	DCB	0x0, "e", 0x0, "c", 0x0, "t", 0x0, "e", 0x0, "d", 0x0, 0xd
	DCB	0x0, 0xa, 0x0, 0x0, 0x0			; `string'

  00000			 AREA	 |.rdata|, DATA, READONLY
|??_C@_1HM@PACLFJML@?$AA?$CF?$AAs?$AA?5?$AA?3?$AA?5?$AAS?$AAe?$AAt?$AAu?$AAp?$AA?5?$AAC?$AAo?$AAn?$AAf?$AAi?$AAg?$AAu?$AAr?$AAa?$AAt?$AAi?$AAo?$AAn?$AA?5?$AAa?$AAn?$AAd?$AA?5?$AAI?$AAn?$AAt@| DCB "%"
	DCB	0x0, "s", 0x0, " ", 0x0, ":", 0x0, " ", 0x0, "S", 0x0, "e"
	DCB	0x0, "t", 0x0, "u", 0x0, "p", 0x0, " ", 0x0, "C", 0x0, "o"
	DCB	0x0, "n", 0x0, "f", 0x0, "i", 0x0, "g", 0x0, "u", 0x0, "r"
	DCB	0x0, "a", 0x0, "t", 0x0, "i", 0x0, "o", 0x0, "n", 0x0, " "
	DCB	0x0, "a", 0x0, "n", 0x0, "d", 0x0, " ", 0x0, "I", 0x0, "n"
	DCB	0x0, "t", 0x0, "e", 0x0, "r", 0x0, "f", 0x0, "a", 0x0, "c"
	DCB	0x0, "e", 0x0, " ", 0x0, "r", 0x0, "e", 0x0, "c", 0x0, "e"
	DCB	0x0, "i", 0x0, "v", 0x0, "e", 0x0, "d", 0x0, " ", 0x0, "U"
	DCB	0x0, "D", 0x0, "C", 0x0, "C", 0x0, "R", 0x0, "=", 0x0, "0"
	DCB	0x0, "x", 0x0, "%", 0x0, "x", 0x0, ".", 0x0, 0xd, 0x0, 0xa
	DCB	0x0, 0x0, 0x0				; `string'

  00000			 AREA	 |.rdata|, DATA, READONLY
|??_C@_1CO@MEPJDBNF@?$AA?$CF?$AAs?$AA?5?$AA?3?$AA?5?$AAD?$AAe?$AAt?$AAa?$AAc?$AAh?$AA?5?$AAD?$AAe?$AAt?$AAe?$AAc?$AAt?$AAe?$AAd?$AA?$AN?$AA?6?$AA?$AA@| DCB "%"
	DCB	0x0, "s", 0x0, " ", 0x0, ":", 0x0, " ", 0x0, "D", 0x0, "e"
	DCB	0x0, "t", 0x0, "a", 0x0, "c", 0x0, "h", 0x0, " ", 0x0, "D"
	DCB	0x0, "e", 0x0, "t", 0x0, "e", 0x0, "c", 0x0, "t", 0x0, "e"
	DCB	0x0, "d", 0x0, 0xd, 0x0, 0xa, 0x0, 0x0, 0x0 ; `string'

  00000			 AREA	 |.rdata|, DATA, READONLY
|??_C@_1CO@GIONPFEC@?$AA?$CF?$AAs?$AA?5?$AA?3?$AA?5?$AAA?$AAt?$AAt?$AAa?$AAc?$AAh?$AA?5?$AAD?$AAe?$AAt?$AAe?$AAc?$AAt?$AAe?$AAd?$AA?$AN?$AA?6?$AA?$AA@| DCB "%"
	DCB	0x0, "s", 0x0, " ", 0x0, ":", 0x0, " ", 0x0, "A", 0x0, "t"
	DCB	0x0, "t", 0x0, "a", 0x0, "c", 0x0, "h", 0x0, " ", 0x0, "D"
	DCB	0x0, "e", 0x0, "t", 0x0, "e", 0x0, "c", 0x0, "t", 0x0, "e"
	DCB	0x0, "d", 0x0, 0xd, 0x0, 0xa, 0x0, 0x0, 0x0 ; `string'

  00000			 AREA	 |.rdata|, DATA, READONLY
|??_C@_1NO@LLINCANK@?$AA?$CF?$AAs?$AA?5?$AA?3?$AA?5?$AAB?$AAu?$AAl?$AAU?$AAs?$AAb?$AAD?$AAe?$AAv?$AAi?$AAc?$AAe?$AA?5?$AAd?$AAw?$AAI?$AAn?$AAt?$AAr?$AA0?$AAS?$AAt?$AAa?$AAt?$AAu?$AAs?$AA?5@| DCB "%"
	DCB	0x0, "s", 0x0, " ", 0x0, ":", 0x0, " ", 0x0, "B", 0x0, "u"
	DCB	0x0, "l", 0x0, "U", 0x0, "s", 0x0, "b", 0x0, "D", 0x0, "e"
	DCB	0x0, "v", 0x0, "i", 0x0, "c", 0x0, "e", 0x0, " ", 0x0, "d"
	DCB	0x0, "w", 0x0, "I", 0x0, "n", 0x0, "t", 0x0, "r", 0x0, "0"
	DCB	0x0, "S", 0x0, "t", 0x0, "a", 0x0, "t", 0x0, "u", 0x0, "s"
	DCB	0x0, " ", 0x0, "0", 0x0, "x", 0x0, "%", 0x0, "x", 0x0, ","
	DCB	0x0, " ", 0x0, "d", 0x0, "w", 0x0, "I", 0x0, "n", 0x0, "t"
	DCB	0x0, "r", 0x0, "1", 0x0, "S", 0x0, "t", 0x0, "a", 0x0, "t"
	DCB	0x0, "u", 0x0, "s", 0x0, " ", 0x0, "0", 0x0, "x", 0x0, "%"
	DCB	0x0, "x", 0x0, ",", 0x0, " ", 0x0, "d", 0x0, "w", 0x0, "I"
	DCB	0x0, "n", 0x0, "t", 0x0, "r", 0x0, "0", 0x0, "C", 0x0, "t"
	DCB	0x0, "r", 0x0, "l", 0x0, "=", 0x0, "0", 0x0, "x", 0x0, "%"
	DCB	0x0, "x", 0x0, ",", 0x0, " ", 0x0, "d", 0x0, "w", 0x0, "I"
	DCB	0x0, "n", 0x0, "t", 0x0, "r", 0x0, "1", 0x0, "1", 0x0, "C"
	DCB	0x0, "t", 0x0, "r", 0x0, "l", 0x0, "=", 0x0, "0", 0x0, "x"
	DCB	0x0, "%", 0x0, "x", 0x0, ",", 0x0, " ", 0x0, "O", 0x0, "T"
	DCB	0x0, "G", 0x0, "I", 0x0, "C", 0x0, "R", 0x0, "=", 0x0, "0"
	DCB	0x0, "x", 0x0, "%", 0x0, "x", 0x0, " ", 0x0, 0xd, 0x0, 0xa
	DCB	0x0, " ", 0x0, 0x0, 0x0			; `string'

  00000			 AREA	 |.rdata|, DATA, READONLY
|??_C@_1FC@MMNDIEJJ@?$AAb?$AAu?$AAl?$AAv?$AAe?$AAr?$AAd?$AAe?$AA_?$AAu?$AAs?$AAb?$AAf?$AAn?$AA?$CB?$AAB?$AAu?$AAl?$AAU?$AAs?$AAb?$AAD?$AAe?$AAv?$AAi?$AAc?$AAe?$AA?3?$AA?3?$AAI?$AAS?$AAT@| DCB "b"
	DCB	0x0, "u", 0x0, "l", 0x0, "v", 0x0, "e", 0x0, "r", 0x0, "d"
	DCB	0x0, "e", 0x0, "_", 0x0, "u", 0x0, "s", 0x0, "b", 0x0, "f"
	DCB	0x0, "n", 0x0, "!", 0x0, "B", 0x0, "u", 0x0, "l", 0x0, "U"
	DCB	0x0, "s", 0x0, "b", 0x0, "D", 0x0, "e", 0x0, "v", 0x0, "i"
	DCB	0x0, "c", 0x0, "e", 0x0, ":", 0x0, ":", 0x0, "I", 0x0, "S"
	DCB	0x0, "T", 0x0, "P", 0x0, "r", 0x0, "o", 0x0, "c", 0x0, "e"
	DCB	0x0, "s", 0x0, "s", 0x0, ":", 0x0, 0x0, 0x0 ; `string'
; Function compile flags: /Odtp

  065f0			 AREA	 |.text|, CODE, ARM

  065f0		 |?ISTProcess@BulUsbDevice@@IAAXXZ| PROC ; BulUsbDevice::ISTProcess

; 1298 : {

  065f0		 |$LN82@ISTProcess|
  065f0	e1a0c00d	 mov         r12, sp
  065f4	e92d0001	 stmdb       sp!, {r0}
  065f8	e92d5000	 stmdb       sp!, {r12, lr}
  065fc	e24dd0b4	 sub         sp, sp, #0xB4
  06600		 |$M39769|

; 1299 :     SETFNAME();

  06600	e59f3c3c	 ldr         r3, [pc, #0xC3C]
  06604	e58d3014	 str         r3, [sp, #0x14]

; 1300 :     FUNCTION_ENTER_MSG();

  06608	e59f3c04	 ldr         r3, [pc, #0xC04]
  0660c	e5933440	 ldr         r3, [r3, #0x440]
  06610	e3130a01	 tst         r3, #1, 20
  06614	0a00000d	 beq         |$LN34@ISTProcess|
  06618	e59f3bf4	 ldr         r3, [pc, #0xBF4]
  0661c	e5933440	 ldr         r3, [r3, #0x440]
  06620	e3130801	 tst         r3, #1, 16
  06624	0a000003	 beq         |$LN32@ISTProcess|
  06628	e59d1014	 ldr         r1, [sp, #0x14]
  0662c	e59f0c0c	 ldr         r0, [pc, #0xC0C]
  06630	eb000000	 bl          CeLogMsg
  06634	ea000002	 b           |$LN33@ISTProcess|
  06638		 |$LN32@ISTProcess|
  06638	e59d1014	 ldr         r1, [sp, #0x14]
  0663c	e59f0bfc	 ldr         r0, [pc, #0xBFC]
  06640	eb000000	 bl          NKDbgPrintfW
  06644		 |$LN33@ISTProcess|
  06644	e3a03001	 mov         r3, #1
  06648	e58d3050	 str         r3, [sp, #0x50]
  0664c	ea000001	 b           |$LN35@ISTProcess|
  06650		 |$LN34@ISTProcess|
  06650	e3a03000	 mov         r3, #0
  06654	e58d3050	 str         r3, [sp, #0x50]
  06658		 |$LN35@ISTProcess|

; 1301 :     m_ISTLock.Lock();

  06658	e59d30bc	 ldr         r3, [sp, #0xBC]
  0665c	e28300cc	 add         r0, r3, #0xCC
  06660	eb000000	 bl          |?Lock@CLockObject@@QAAXXZ|

; 1302 :     DWORD dwIntr0Status = ReadIntrStatus0Register() ;

  06664	e59d00bc	 ldr         r0, [sp, #0xBC]
  06668	eb000000	 bl          |?ReadIntrStatus0Register@BulUsbDevice@@QAAKXZ|
  0666c	e58d0054	 str         r0, [sp, #0x54]
  06670	e59d3054	 ldr         r3, [sp, #0x54]
  06674	e58d3010	 str         r3, [sp, #0x10]

; 1303 :     DWORD dwIntr1Status = ReadIntrStatus1Register() ; 

  06678	e59d00bc	 ldr         r0, [sp, #0xBC]
  0667c	eb000000	 bl          |?ReadIntrStatus1Register@BulUsbDevice@@QAAKXZ|
  06680	e58d0058	 str         r0, [sp, #0x58]
  06684	e59d3058	 ldr         r3, [sp, #0x58]
  06688	e58d300c	 str         r3, [sp, #0xC]

; 1304 :     
; 1305 : 
; 1306 :     WriteIntrStatus0Register(dwIntr0Status) ;

  0668c	e59d1010	 ldr         r1, [sp, #0x10]
  06690	e59d00bc	 ldr         r0, [sp, #0xBC]
  06694	eb000000	 bl          |?WriteIntrStatus0Register@BulUsbDevice@@QAAXK@Z|

; 1307 :     WriteIntrStatus1Register(dwIntr1Status) ; 

  06698	e59d100c	 ldr         r1, [sp, #0xC]
  0669c	e59d00bc	 ldr         r0, [sp, #0xBC]
  066a0	eb000000	 bl          |?WriteIntrStatus1Register@BulUsbDevice@@QAAXK@Z|

; 1308 :     DEBUGMSG(ZONE_FUNCTION, (_T("%s : BulUsbDevice dwIntr0Status 0x%x, dwIntr1Status 0x%x, dwIntr0Ctrl=0x%x, dwIntr11Ctrl=0x%x, OTGICR=0x%x \r\n "), pszFname, dwIntr0Status,dwIntr1Status,ReadIntrCtr0Register(), ReadIntrCtr1Register()));

  066a4	e59f3b68	 ldr         r3, [pc, #0xB68]
  066a8	e5933440	 ldr         r3, [r3, #0x440]
  066ac	e3130a01	 tst         r3, #1, 20
  066b0	0a000025	 beq         |$LN38@ISTProcess|
  066b4	e59f3b58	 ldr         r3, [pc, #0xB58]
  066b8	e5933440	 ldr         r3, [r3, #0x440]
  066bc	e3130801	 tst         r3, #1, 16
  066c0	0a00000f	 beq         |$LN36@ISTProcess|
  066c4	e59d00bc	 ldr         r0, [sp, #0xBC]
  066c8	eb000000	 bl          |?ReadIntrCtr1Register@BulUsbDevice@@QAAKXZ|
  066cc	e58d005c	 str         r0, [sp, #0x5C]
  066d0	e59d00bc	 ldr         r0, [sp, #0xBC]
  066d4	eb000000	 bl          |?ReadIntrCtr0Register@BulUsbDevice@@QAAKXZ|
  066d8	e58d0060	 str         r0, [sp, #0x60]
  066dc	e59d305c	 ldr         r3, [sp, #0x5C]
  066e0	e58d3004	 str         r3, [sp, #4]
  066e4	e59d3060	 ldr         r3, [sp, #0x60]
  066e8	e58d3000	 str         r3, [sp]
  066ec	e59d300c	 ldr         r3, [sp, #0xC]
  066f0	e59d2010	 ldr         r2, [sp, #0x10]
  066f4	e59d1014	 ldr         r1, [sp, #0x14]
  066f8	e59f0b3c	 ldr         r0, [pc, #0xB3C]
  066fc	eb000000	 bl          CeLogMsg
  06700	ea00000e	 b           |$LN37@ISTProcess|
  06704		 |$LN36@ISTProcess|
  06704	e59d00bc	 ldr         r0, [sp, #0xBC]
  06708	eb000000	 bl          |?ReadIntrCtr1Register@BulUsbDevice@@QAAKXZ|
  0670c	e58d0064	 str         r0, [sp, #0x64]
  06710	e59d00bc	 ldr         r0, [sp, #0xBC]
  06714	eb000000	 bl          |?ReadIntrCtr0Register@BulUsbDevice@@QAAKXZ|
  06718	e58d0068	 str         r0, [sp, #0x68]
  0671c	e59d3064	 ldr         r3, [sp, #0x64]
  06720	e58d3004	 str         r3, [sp, #4]
  06724	e59d3068	 ldr         r3, [sp, #0x68]
  06728	e58d3000	 str         r3, [sp]
  0672c	e59d300c	 ldr         r3, [sp, #0xC]
  06730	e59d2010	 ldr         r2, [sp, #0x10]
  06734	e59d1014	 ldr         r1, [sp, #0x14]
  06738	e59f0afc	 ldr         r0, [pc, #0xAFC]
  0673c	eb000000	 bl          NKDbgPrintfW
  06740		 |$LN37@ISTProcess|
  06740	e3a03001	 mov         r3, #1
  06744	e58d306c	 str         r3, [sp, #0x6C]
  06748	ea000001	 b           |$LN39@ISTProcess|
  0674c		 |$LN38@ISTProcess|
  0674c	e3a03000	 mov         r3, #0
  06750	e58d306c	 str         r3, [sp, #0x6C]
  06754		 |$LN39@ISTProcess|

; 1309 : 
; 1310 : 
; 1311 :     if (m_fIsCableAttached != IsCableAttached() || m_fResumeOccurred ) {

  06754	e59d30bc	 ldr         r3, [sp, #0xBC]
  06758	e5933000	 ldr         r3, [r3]
  0675c	e2833040	 add         r3, r3, #0x40
  06760	e59d00bc	 ldr         r0, [sp, #0xBC]
  06764	e5933000	 ldr         r3, [r3]
  06768	e1a0e00f	 mov         lr, pc
  0676c	e12fff13	 bx          r3
  06770	e58d0070	 str         r0, [sp, #0x70]
  06774	e59d30bc	 ldr         r3, [sp, #0xBC]
  06778	e28330a0	 add         r3, r3, #0xA0
  0677c	e5932000	 ldr         r2, [r3]
  06780	e59d3070	 ldr         r3, [sp, #0x70]
  06784	e1520003	 cmp         r2, r3
  06788	1a000004	 bne         |$LN28@ISTProcess|
  0678c	e59d30bc	 ldr         r3, [sp, #0xBC]
  06790	e2833094	 add         r3, r3, #0x94
  06794	e5933000	 ldr         r3, [r3]
  06798	e3530000	 cmp         r3, #0
  0679c	0a000051	 beq         |$LN29@ISTProcess|
  067a0		 |$LN28@ISTProcess|

; 1312 :         m_fIsCableAttached = IsCableAttached();

  067a0	e59d30bc	 ldr         r3, [sp, #0xBC]
  067a4	e5933000	 ldr         r3, [r3]
  067a8	e2833040	 add         r3, r3, #0x40
  067ac	e59d00bc	 ldr         r0, [sp, #0xBC]
  067b0	e5933000	 ldr         r3, [r3]
  067b4	e1a0e00f	 mov         lr, pc
  067b8	e12fff13	 bx          r3
  067bc	e58d0074	 str         r0, [sp, #0x74]
  067c0	e59d30bc	 ldr         r3, [sp, #0xBC]
  067c4	e28320a0	 add         r2, r3, #0xA0
  067c8	e59d3074	 ldr         r3, [sp, #0x74]
  067cc	e5823000	 str         r3, [r2]

; 1313 : 
; 1314 :         UDCCR udccr;
; 1315 :         udccr.ulValue = ReadControlRegister();

  067d0	e59d00bc	 ldr         r0, [sp, #0xBC]
  067d4	eb000000	 bl          |?ReadControlRegister@BulUsbDevice@@QAAKXZ|
  067d8	e58d0078	 str         r0, [sp, #0x78]
  067dc	e59d3078	 ldr         r3, [sp, #0x78]
  067e0	e58d301c	 str         r3, [sp, #0x1C]

; 1316 :         udccr.bit.EMCE = 0 ;

  067e4	e59d201c	 ldr         r2, [sp, #0x1C]
  067e8	e3e03008	 mvn         r3, #8
  067ec	e0023003	 and         r3, r2, r3
  067f0	e58d301c	 str         r3, [sp, #0x1C]

; 1317 :         if (m_fIsCableAttached || m_fResumeOccurred ) {

  067f4	e59d30bc	 ldr         r3, [sp, #0xBC]
  067f8	e28330a0	 add         r3, r3, #0xA0
  067fc	e5933000	 ldr         r3, [r3]
  06800	e3530000	 cmp         r3, #0
  06804	1a000004	 bne         |$LN26@ISTProcess|
  06808	e59d30bc	 ldr         r3, [sp, #0xBC]
  0680c	e2833094	 add         r3, r3, #0x94
  06810	e5933000	 ldr         r3, [r3]
  06814	e3530000	 cmp         r3, #0
  06818	0a00001a	 beq         |$LN27@ISTProcess|
  0681c		 |$LN26@ISTProcess|

; 1318 :             DEBUGMSG(ZONE_FUNCTION, (_T("%s : Attach Detected\r\n"),pszFname));

  0681c	e59f39f0	 ldr         r3, [pc, #0x9F0]
  06820	e5933440	 ldr         r3, [r3, #0x440]
  06824	e3130a01	 tst         r3, #1, 20
  06828	0a00000d	 beq         |$LN42@ISTProcess|
  0682c	e59f39e0	 ldr         r3, [pc, #0x9E0]
  06830	e5933440	 ldr         r3, [r3, #0x440]
  06834	e3130801	 tst         r3, #1, 16
  06838	0a000003	 beq         |$LN40@ISTProcess|
  0683c	e59d1014	 ldr         r1, [sp, #0x14]
  06840	e59f09f0	 ldr         r0, [pc, #0x9F0]
  06844	eb000000	 bl          CeLogMsg
  06848	ea000002	 b           |$LN41@ISTProcess|
  0684c		 |$LN40@ISTProcess|
  0684c	e59d1014	 ldr         r1, [sp, #0x14]
  06850	e59f09e0	 ldr         r0, [pc, #0x9E0]
  06854	eb000000	 bl          NKDbgPrintfW
  06858		 |$LN41@ISTProcess|
  06858	e3a03001	 mov         r3, #1
  0685c	e58d307c	 str         r3, [sp, #0x7C]
  06860	ea000001	 b           |$LN43@ISTProcess|
  06864		 |$LN42@ISTProcess|
  06864	e3a03000	 mov         r3, #0
  06868	e58d307c	 str         r3, [sp, #0x7C]
  0686c		 |$LN43@ISTProcess|

; 1319 :             m_fResumeOccurred = FALSE ;

  0686c	e59d30bc	 ldr         r3, [sp, #0xBC]
  06870	e2832094	 add         r2, r3, #0x94
  06874	e3a03000	 mov         r3, #0
  06878	e5823000	 str         r3, [r2]

; 1320 :             ReInit();

  0687c	e59d00bc	 ldr         r0, [sp, #0xBC]
  06880	eb000000	 bl          |?ReInit@BulUsbDevice@@IAAHXZ|

; 1321 :         }
; 1322 :         else {

  06884	ea000017	 b           |$LN25@ISTProcess|
  06888		 |$LN27@ISTProcess|

; 1323 :             DEBUGMSG(ZONE_FUNCTION, (_T("%s : Detach Detected\r\n"),pszFname));

  06888	e59f3984	 ldr         r3, [pc, #0x984]
  0688c	e5933440	 ldr         r3, [r3, #0x440]
  06890	e3130a01	 tst         r3, #1, 20
  06894	0a00000d	 beq         |$LN46@ISTProcess|
  06898	e59f3974	 ldr         r3, [pc, #0x974]
  0689c	e5933440	 ldr         r3, [r3, #0x440]
  068a0	e3130801	 tst         r3, #1, 16
  068a4	0a000003	 beq         |$LN44@ISTProcess|
  068a8	e59d1014	 ldr         r1, [sp, #0x14]
  068ac	e59f0980	 ldr         r0, [pc, #0x980]
  068b0	eb000000	 bl          CeLogMsg
  068b4	ea000002	 b           |$LN45@ISTProcess|
  068b8		 |$LN44@ISTProcess|
  068b8	e59d1014	 ldr         r1, [sp, #0x14]
  068bc	e59f0970	 ldr         r0, [pc, #0x970]
  068c0	eb000000	 bl          NKDbgPrintfW
  068c4		 |$LN45@ISTProcess|
  068c4	e3a03001	 mov         r3, #1
  068c8	e58d3080	 str         r3, [sp, #0x80]
  068cc	ea000001	 b           |$LN47@ISTProcess|
  068d0		 |$LN46@ISTProcess|
  068d0	e3a03000	 mov         r3, #0
  068d4	e58d3080	 str         r3, [sp, #0x80]
  068d8		 |$LN47@ISTProcess|

; 1324 :             DeviceNotification( UFN_MSG_BUS_EVENTS, UFN_DETACH);

  068d8	e3a02000	 mov         r2, #0
  068dc	e3a01001	 mov         r1, #1
  068e0	e59d00bc	 ldr         r0, [sp, #0xBC]
  068e4	eb000000	 bl          |?DeviceNotification@BulUsbDevice@@QAAHKK@Z|
  068e8		 |$LN25@ISTProcess|
  068e8		 |$LN29@ISTProcess|

; 1325 :         }
; 1326 :     }
; 1327 :     // Processing Device Interrupt 
; 1328 :     if ( (dwIntr1Status & UDCISR1_IRCC)!=0 || m_fOTGSetupFeature) { // Setup Config or Setup Interface has been received.

  068e8	e59d300c	 ldr         r3, [sp, #0xC]
  068ec	e3130102	 tst         r3, #2, 2
  068f0	1a000004	 bne         |$LN23@ISTProcess|
  068f4	e59d30bc	 ldr         r3, [sp, #0xBC]
  068f8	e28330e0	 add         r3, r3, #0xE0
  068fc	e5933000	 ldr         r3, [r3]
  06900	e3530000	 cmp         r3, #0
  06904	0a00012b	 beq         |$LN24@ISTProcess|
  06908		 |$LN23@ISTProcess|

; 1329 :         USB_DEVICE_REQUEST udr;
; 1330 :         UDCCR udccr;
; 1331 :         udccr.ulValue = ReadControlRegister();

  06908	e59d00bc	 ldr         r0, [sp, #0xBC]
  0690c	eb000000	 bl          |?ReadControlRegister@BulUsbDevice@@QAAKXZ|
  06910	e58d0084	 str         r0, [sp, #0x84]
  06914	e59d3084	 ldr         r3, [sp, #0x84]
  06918	e58d3020	 str         r3, [sp, #0x20]

; 1332 :         DEBUGMSG(ZONE_FUNCTION, (_T("%s : Setup Configuration and Interface received UDCCR=0x%x.\r\n"),pszFname,udccr.ulValue));

  0691c	e59f38f0	 ldr         r3, [pc, #0x8F0]
  06920	e5933440	 ldr         r3, [r3, #0x440]
  06924	e3130a01	 tst         r3, #1, 20
  06928	0a00000f	 beq         |$LN50@ISTProcess|
  0692c	e59f38e0	 ldr         r3, [pc, #0x8E0]
  06930	e5933440	 ldr         r3, [r3, #0x440]
  06934	e3130801	 tst         r3, #1, 16
  06938	0a000004	 beq         |$LN48@ISTProcess|
  0693c	e59d2020	 ldr         r2, [sp, #0x20]
  06940	e59d1014	 ldr         r1, [sp, #0x14]
  06944	e59f08e4	 ldr         r0, [pc, #0x8E4]
  06948	eb000000	 bl          CeLogMsg
  0694c	ea000003	 b           |$LN49@ISTProcess|
  06950		 |$LN48@ISTProcess|
  06950	e59d2020	 ldr         r2, [sp, #0x20]
  06954	e59d1014	 ldr         r1, [sp, #0x14]
  06958	e59f08d0	 ldr         r0, [pc, #0x8D0]
  0695c	eb000000	 bl          NKDbgPrintfW
  06960		 |$LN49@ISTProcess|
  06960	e3a03001	 mov         r3, #1
  06964	e58d3088	 str         r3, [sp, #0x88]
  06968	ea000001	 b           |$LN51@ISTProcess|
  0696c		 |$LN50@ISTProcess|
  0696c	e3a03000	 mov         r3, #0
  06970	e58d3088	 str         r3, [sp, #0x88]
  06974		 |$LN51@ISTProcess|

; 1333 :         udccr.bit.SMAC = 1;

  06974	e59d3020	 ldr         r3, [sp, #0x20]
  06978	e3833010	 orr         r3, r3, #0x10
  0697c	e58d3020	 str         r3, [sp, #0x20]

; 1334 :         udccr.bit.EMCE = 0 ;

  06980	e59d2020	 ldr         r2, [sp, #0x20]
  06984	e3e03008	 mvn         r3, #8
  06988	e0023003	 and         r3, r2, r3
  0698c	e58d3020	 str         r3, [sp, #0x20]

; 1335 :         WriteControlRegister(udccr.ulValue);

  06990	e59d1020	 ldr         r1, [sp, #0x20]
  06994	e59d00bc	 ldr         r0, [sp, #0xBC]
  06998	eb000000	 bl          |?WriteControlRegister@BulUsbDevice@@QAAXK@Z|

; 1336 :         m_fOTGSetupFeature = FALSE;

  0699c	e59d30bc	 ldr         r3, [sp, #0xBC]
  069a0	e28320e0	 add         r2, r3, #0xE0
  069a4	e3a03000	 mov         r3, #0
  069a8	e5823000	 str         r3, [r2]

; 1337 :         if (udccr.bit.ACN != m_dwCurConfigure) { // COnfiguration has changed.

  069ac	e59d3020	 ldr         r3, [sp, #0x20]
  069b0	e1a03983	 mov         r3, r3, lsl #19
  069b4	e1a02f23	 mov         r2, r3, lsr #30
  069b8	e59d30bc	 ldr         r3, [sp, #0xBC]
  069bc	e28330b8	 add         r3, r3, #0xB8
  069c0	e5933000	 ldr         r3, [r3]
  069c4	e1520003	 cmp         r2, r3
  069c8	0a000017	 beq         |$LN22@ISTProcess|

; 1338 :             udr.bmRequestType = USB_REQUEST_FOR_DEVICE;

  069cc	e3a03000	 mov         r3, #0
  069d0	e5cd3024	 strb        r3, [sp, #0x24]

; 1339 :             udr.bRequest = USB_REQUEST_SET_CONFIGURATION;

  069d4	e3a03009	 mov         r3, #9
  069d8	e5cd3025	 strb        r3, [sp, #0x25]

; 1340 :             udr.wValue = (USHORT) udccr.bit.ACN;

  069dc	e59d3020	 ldr         r3, [sp, #0x20]
  069e0	e1a03983	 mov         r3, r3, lsl #19
  069e4	e1a03f23	 mov         r3, r3, lsr #30
  069e8	e1a03803	 mov         r3, r3, lsl #16
  069ec	e1a03823	 mov         r3, r3, lsr #16
  069f0	e1cd32b6	 strh        r3, [sp, #0x26]

; 1341 :             udr.wIndex =  0;

  069f4	e3a03000	 mov         r3, #0
  069f8	e1cd32b8	 strh        r3, [sp, #0x28]

; 1342 :             udr.wLength =0;

  069fc	e3a03000	 mov         r3, #0
  06a00	e1cd32ba	 strh        r3, [sp, #0x2A]

; 1343 :             m_dwCurConfigure = udccr.bit.ACN ;

  06a04	e59d3020	 ldr         r3, [sp, #0x20]
  06a08	e1a03983	 mov         r3, r3, lsl #19
  06a0c	e1a02f23	 mov         r2, r3, lsr #30
  06a10	e59d30bc	 ldr         r3, [sp, #0xBC]
  06a14	e28330b8	 add         r3, r3, #0xB8
  06a18	e5832000	 str         r2, [r3]

; 1344 :             DeviceNotification( UFN_MSG_SETUP_PACKET,(DWORD) &udr);

  06a1c	e28d2024	 add         r2, sp, #0x24
  06a20	e3a01004	 mov         r1, #4
  06a24	e59d00bc	 ldr         r0, [sp, #0xBC]
  06a28	eb000000	 bl          |?DeviceNotification@BulUsbDevice@@QAAHKK@Z|
  06a2c		 |$LN22@ISTProcess|

; 1345 :         }
; 1346 :         if (udccr.bit.AIN*0x100 + udccr.bit.AAISN != m_dwCurInterface) {

  06a2c	e59d3020	 ldr         r3, [sp, #0x20]
  06a30	e1a03a83	 mov         r3, r3, lsl #21
  06a34	e1a01ea3	 mov         r1, r3, lsr #29
  06a38	e3a03c01	 mov         r3, #1, 24
  06a3c	e0020391	 mul         r2, r1, r3
  06a40	e59d3020	 ldr         r3, [sp, #0x20]
  06a44	e1a03c03	 mov         r3, r3, lsl #24
  06a48	e1a03ea3	 mov         r3, r3, lsr #29
  06a4c	e0822003	 add         r2, r2, r3
  06a50	e59d30bc	 ldr         r3, [sp, #0xBC]
  06a54	e28330bc	 add         r3, r3, #0xBC
  06a58	e5933000	 ldr         r3, [r3]
  06a5c	e1520003	 cmp         r2, r3
  06a60	0a00001d	 beq         |$LN21@ISTProcess|

; 1347 :             udr.bmRequestType = USB_REQUEST_FOR_DEVICE;

  06a64	e3a03000	 mov         r3, #0
  06a68	e5cd3024	 strb        r3, [sp, #0x24]

; 1348 :             udr.bRequest = USB_REQUEST_SET_INTERFACE;

  06a6c	e3a0300b	 mov         r3, #0xB
  06a70	e5cd3025	 strb        r3, [sp, #0x25]

; 1349 :             udr.wValue = (USHORT) udccr.bit.AAISN;

  06a74	e59d3020	 ldr         r3, [sp, #0x20]
  06a78	e1a03c03	 mov         r3, r3, lsl #24
  06a7c	e1a03ea3	 mov         r3, r3, lsr #29
  06a80	e1a03803	 mov         r3, r3, lsl #16
  06a84	e1a03823	 mov         r3, r3, lsr #16
  06a88	e1cd32b6	 strh        r3, [sp, #0x26]

; 1350 :             udr.wIndex = (USHORT) udccr.bit.AIN;

  06a8c	e59d3020	 ldr         r3, [sp, #0x20]
  06a90	e1a03a83	 mov         r3, r3, lsl #21
  06a94	e1a03ea3	 mov         r3, r3, lsr #29
  06a98	e1a03803	 mov         r3, r3, lsl #16
  06a9c	e1a03823	 mov         r3, r3, lsr #16
  06aa0	e1cd32b8	 strh        r3, [sp, #0x28]

; 1351 :             udr.wLength =  0;

  06aa4	e3a03000	 mov         r3, #0
  06aa8	e1cd32ba	 strh        r3, [sp, #0x2A]

; 1352 :             m_dwCurInterface = udccr.bit.AIN*0x100 + udccr.bit.AAISN ;

  06aac	e59d3020	 ldr         r3, [sp, #0x20]
  06ab0	e1a03a83	 mov         r3, r3, lsl #21
  06ab4	e1a01ea3	 mov         r1, r3, lsr #29
  06ab8	e3a03c01	 mov         r3, #1, 24
  06abc	e0020391	 mul         r2, r1, r3
  06ac0	e59d3020	 ldr         r3, [sp, #0x20]
  06ac4	e1a03c03	 mov         r3, r3, lsl #24
  06ac8	e1a03ea3	 mov         r3, r3, lsr #29
  06acc	e0822003	 add         r2, r2, r3
  06ad0	e59d30bc	 ldr         r3, [sp, #0xBC]
  06ad4	e28330bc	 add         r3, r3, #0xBC
  06ad8	e5832000	 str         r2, [r3]
  06adc		 |$LN21@ISTProcess|

; 1353 :             // We can not do this because MDD will stall the endpoint.
; 1354 :             //DeviceNotification( UFN_MSG_SETUP_PACKET,(DWORD) &udr);
; 1355 :         }
; 1356 :         // For OTG.
; 1357 :         if (udccr.bit.BHNP !=0 &&  udccr.bit.BHNP!= m_prevUDCR.bit.BHNP) { // Host Set HNP Feature.

  06adc	e59d3020	 ldr         r3, [sp, #0x20]
  06ae0	e3130201	 tst         r3, #1, 4
  06ae4	0a000039	 beq         |$LN20@ISTProcess|
  06ae8	e59d3020	 ldr         r3, [sp, #0x20]
  06aec	e1a03183	 mov         r3, r3, lsl #3
  06af0	e1a02fa3	 mov         r2, r3, lsr #31
  06af4	e59d30bc	 ldr         r3, [sp, #0xBC]
  06af8	e28330e4	 add         r3, r3, #0xE4
  06afc	e5933000	 ldr         r3, [r3]
  06b00	e1a03183	 mov         r3, r3, lsl #3
  06b04	e1a03fa3	 mov         r3, r3, lsr #31
  06b08	e1520003	 cmp         r2, r3
  06b0c	0a00002f	 beq         |$LN20@ISTProcess|

; 1358 :             DEBUGMSG(ZONE_FUNCTION, (_T("%s : BHNP Detected\r\n"),pszFname));

  06b10	e59f36fc	 ldr         r3, [pc, #0x6FC]
  06b14	e5933440	 ldr         r3, [r3, #0x440]
  06b18	e3130a01	 tst         r3, #1, 20
  06b1c	0a00000d	 beq         |$LN54@ISTProcess|
  06b20	e59f36ec	 ldr         r3, [pc, #0x6EC]
  06b24	e5933440	 ldr         r3, [r3, #0x440]
  06b28	e3130801	 tst         r3, #1, 16
  06b2c	0a000003	 beq         |$LN52@ISTProcess|
  06b30	e59d1014	 ldr         r1, [sp, #0x14]
  06b34	e59f06f0	 ldr         r0, [pc, #0x6F0]
  06b38	eb000000	 bl          CeLogMsg
  06b3c	ea000002	 b           |$LN53@ISTProcess|
  06b40		 |$LN52@ISTProcess|
  06b40	e59d1014	 ldr         r1, [sp, #0x14]
  06b44	e59f06e0	 ldr         r0, [pc, #0x6E0]
  06b48	eb000000	 bl          NKDbgPrintfW
  06b4c		 |$LN53@ISTProcess|
  06b4c	e3a03001	 mov         r3, #1
  06b50	e58d308c	 str         r3, [sp, #0x8C]
  06b54	ea000001	 b           |$LN55@ISTProcess|
  06b58		 |$LN54@ISTProcess|
  06b58	e3a03000	 mov         r3, #0
  06b5c	e58d308c	 str         r3, [sp, #0x8C]
  06b60		 |$LN55@ISTProcess|

; 1359 :             udr.bmRequestType = USB_REQUEST_FOR_DEVICE;

  06b60	e3a03000	 mov         r3, #0
  06b64	e5cd3024	 strb        r3, [sp, #0x24]

; 1360 :             udr.bRequest = USB_REQUEST_SET_FEATURE ;

  06b68	e3a03003	 mov         r3, #3
  06b6c	e5cd3025	 strb        r3, [sp, #0x25]

; 1361 :             udr.wValue =  USB_FEATURE_B_HNP_ENABLE;

  06b70	e3a03003	 mov         r3, #3
  06b74	e1cd32b6	 strh        r3, [sp, #0x26]

; 1362 :             udr.wIndex =  0 ;

  06b78	e3a03000	 mov         r3, #0
  06b7c	e1cd32b8	 strh        r3, [sp, #0x28]

; 1363 :             udr.wLength =0;

  06b80	e3a03000	 mov         r3, #0
  06b84	e1cd32ba	 strh        r3, [sp, #0x2A]

; 1364 :             m_prevUDCR.bit.BHNP =  udccr.bit.BHNP ;

  06b88	e59d3020	 ldr         r3, [sp, #0x20]
  06b8c	e1a03183	 mov         r3, r3, lsl #3
  06b90	e1a01fa3	 mov         r1, r3, lsr #31
  06b94	e59d30bc	 ldr         r3, [sp, #0xBC]
  06b98	e28330e4	 add         r3, r3, #0xE4
  06b9c	e5932000	 ldr         r2, [r3]
  06ba0	e3e03201	 mvn         r3, #1, 4
  06ba4	e0022003	 and         r2, r2, r3
  06ba8	e2013001	 and         r3, r1, #1
  06bac	e1a03e03	 mov         r3, r3, lsl #28
  06bb0	e1822003	 orr         r2, r2, r3
  06bb4	e59d30bc	 ldr         r3, [sp, #0xBC]
  06bb8	e28330e4	 add         r3, r3, #0xE4
  06bbc	e5832000	 str         r2, [r3]

; 1365 :             DeviceNotification( UFN_MSG_SETUP_PACKET,(DWORD) &udr);

  06bc0	e28d2024	 add         r2, sp, #0x24
  06bc4	e3a01004	 mov         r1, #4
  06bc8	e59d00bc	 ldr         r0, [sp, #0xBC]
  06bcc	eb000000	 bl          |?DeviceNotification@BulUsbDevice@@QAAHKK@Z|
  06bd0		 |$LN20@ISTProcess|

; 1366 :         }
; 1367 :         if (udccr.bit.AHNP !=0  && udccr.bit.AHNP != m_prevUDCR.bit.AHNP) {// Host Set HNP Support.

  06bd0	e59d3020	 ldr         r3, [sp, #0x20]
  06bd4	e3130202	 tst         r3, #2, 4
  06bd8	0a000039	 beq         |$LN19@ISTProcess|
  06bdc	e59d3020	 ldr         r3, [sp, #0x20]
  06be0	e1a03103	 mov         r3, r3, lsl #2
  06be4	e1a02fa3	 mov         r2, r3, lsr #31
  06be8	e59d30bc	 ldr         r3, [sp, #0xBC]
  06bec	e28330e4	 add         r3, r3, #0xE4
  06bf0	e5933000	 ldr         r3, [r3]
  06bf4	e1a03103	 mov         r3, r3, lsl #2
  06bf8	e1a03fa3	 mov         r3, r3, lsr #31
  06bfc	e1520003	 cmp         r2, r3
  06c00	0a00002f	 beq         |$LN19@ISTProcess|

; 1368 :             DEBUGMSG(ZONE_FUNCTION, (_T("%s : AHNP Detected\r\n"),pszFname));

  06c04	e59f3608	 ldr         r3, [pc, #0x608]
  06c08	e5933440	 ldr         r3, [r3, #0x440]
  06c0c	e3130a01	 tst         r3, #1, 20
  06c10	0a00000d	 beq         |$LN58@ISTProcess|
  06c14	e59f35f8	 ldr         r3, [pc, #0x5F8]
  06c18	e5933440	 ldr         r3, [r3, #0x440]
  06c1c	e3130801	 tst         r3, #1, 16
  06c20	0a000003	 beq         |$LN56@ISTProcess|
  06c24	e59d1014	 ldr         r1, [sp, #0x14]
  06c28	e59f05f8	 ldr         r0, [pc, #0x5F8]
  06c2c	eb000000	 bl          CeLogMsg
  06c30	ea000002	 b           |$LN57@ISTProcess|
  06c34		 |$LN56@ISTProcess|
  06c34	e59d1014	 ldr         r1, [sp, #0x14]
  06c38	e59f05e8	 ldr         r0, [pc, #0x5E8]
  06c3c	eb000000	 bl          NKDbgPrintfW
  06c40		 |$LN57@ISTProcess|
  06c40	e3a03001	 mov         r3, #1
  06c44	e58d3090	 str         r3, [sp, #0x90]
  06c48	ea000001	 b           |$LN59@ISTProcess|
  06c4c		 |$LN58@ISTProcess|
  06c4c	e3a03000	 mov         r3, #0
  06c50	e58d3090	 str         r3, [sp, #0x90]
  06c54		 |$LN59@ISTProcess|

; 1369 :             udr.bmRequestType = USB_REQUEST_FOR_DEVICE;

  06c54	e3a03000	 mov         r3, #0
  06c58	e5cd3024	 strb        r3, [sp, #0x24]

; 1370 :             udr.bRequest = USB_REQUEST_SET_FEATURE ;

  06c5c	e3a03003	 mov         r3, #3
  06c60	e5cd3025	 strb        r3, [sp, #0x25]

; 1371 :             udr.wValue =  USB_FEATURE_A_HNP_SUPPORT;

  06c64	e3a03004	 mov         r3, #4
  06c68	e1cd32b6	 strh        r3, [sp, #0x26]

; 1372 :             udr.wIndex =  0 ;

  06c6c	e3a03000	 mov         r3, #0
  06c70	e1cd32b8	 strh        r3, [sp, #0x28]

; 1373 :             udr.wLength =0;

  06c74	e3a03000	 mov         r3, #0
  06c78	e1cd32ba	 strh        r3, [sp, #0x2A]

; 1374 :             m_prevUDCR.bit.AHNP = udccr.bit.AHNP;

  06c7c	e59d3020	 ldr         r3, [sp, #0x20]
  06c80	e1a03103	 mov         r3, r3, lsl #2
  06c84	e1a01fa3	 mov         r1, r3, lsr #31
  06c88	e59d30bc	 ldr         r3, [sp, #0xBC]
  06c8c	e28330e4	 add         r3, r3, #0xE4
  06c90	e5932000	 ldr         r2, [r3]
  06c94	e3e03202	 mvn         r3, #2, 4
  06c98	e0022003	 and         r2, r2, r3
  06c9c	e2013001	 and         r3, r1, #1
  06ca0	e1a03e83	 mov         r3, r3, lsl #29
  06ca4	e1822003	 orr         r2, r2, r3
  06ca8	e59d30bc	 ldr         r3, [sp, #0xBC]
  06cac	e28330e4	 add         r3, r3, #0xE4
  06cb0	e5832000	 str         r2, [r3]

; 1375 :             DeviceNotification( UFN_MSG_SETUP_PACKET,(DWORD) &udr);

  06cb4	e28d2024	 add         r2, sp, #0x24
  06cb8	e3a01004	 mov         r1, #4
  06cbc	e59d00bc	 ldr         r0, [sp, #0xBC]
  06cc0	eb000000	 bl          |?DeviceNotification@BulUsbDevice@@QAAHKK@Z|
  06cc4		 |$LN19@ISTProcess|

; 1376 :         }
; 1377 :         if (udccr.bit.AALTHNP!=0 && udccr.bit.AALTHNP != m_prevUDCR.bit.AALTHNP) { // Host Set Alter HNP Support.

  06cc4	e59d3020	 ldr         r3, [sp, #0x20]
  06cc8	e3130101	 tst         r3, #1, 2
  06ccc	0a000039	 beq         |$LN18@ISTProcess|
  06cd0	e59d3020	 ldr         r3, [sp, #0x20]
  06cd4	e1a03083	 mov         r3, r3, lsl #1
  06cd8	e1a02fa3	 mov         r2, r3, lsr #31
  06cdc	e59d30bc	 ldr         r3, [sp, #0xBC]
  06ce0	e28330e4	 add         r3, r3, #0xE4
  06ce4	e5933000	 ldr         r3, [r3]
  06ce8	e1a03083	 mov         r3, r3, lsl #1
  06cec	e1a03fa3	 mov         r3, r3, lsr #31
  06cf0	e1520003	 cmp         r2, r3
  06cf4	0a00002f	 beq         |$LN18@ISTProcess|

; 1378 :             DEBUGMSG(ZONE_FUNCTION, (_T("%s : AALTHNP Detected\r\n"),pszFname));

  06cf8	e59f3514	 ldr         r3, [pc, #0x514]
  06cfc	e5933440	 ldr         r3, [r3, #0x440]
  06d00	e3130a01	 tst         r3, #1, 20
  06d04	0a00000d	 beq         |$LN62@ISTProcess|
  06d08	e59f3504	 ldr         r3, [pc, #0x504]
  06d0c	e5933440	 ldr         r3, [r3, #0x440]
  06d10	e3130801	 tst         r3, #1, 16
  06d14	0a000003	 beq         |$LN60@ISTProcess|
  06d18	e59d1014	 ldr         r1, [sp, #0x14]
  06d1c	e59f0500	 ldr         r0, [pc, #0x500]
  06d20	eb000000	 bl          CeLogMsg
  06d24	ea000002	 b           |$LN61@ISTProcess|
  06d28		 |$LN60@ISTProcess|
  06d28	e59d1014	 ldr         r1, [sp, #0x14]
  06d2c	e59f04f0	 ldr         r0, [pc, #0x4F0]
  06d30	eb000000	 bl          NKDbgPrintfW
  06d34		 |$LN61@ISTProcess|
  06d34	e3a03001	 mov         r3, #1
  06d38	e58d3094	 str         r3, [sp, #0x94]
  06d3c	ea000001	 b           |$LN63@ISTProcess|
  06d40		 |$LN62@ISTProcess|
  06d40	e3a03000	 mov         r3, #0
  06d44	e58d3094	 str         r3, [sp, #0x94]
  06d48		 |$LN63@ISTProcess|

; 1379 :             udr.bmRequestType = USB_REQUEST_FOR_DEVICE;

  06d48	e3a03000	 mov         r3, #0
  06d4c	e5cd3024	 strb        r3, [sp, #0x24]

; 1380 :             udr.bRequest = USB_REQUEST_SET_FEATURE ;

  06d50	e3a03003	 mov         r3, #3
  06d54	e5cd3025	 strb        r3, [sp, #0x25]

; 1381 :             udr.wValue =  USB_FEATURE_A_ALT_HNP_SUPPORT;

  06d58	e3a03005	 mov         r3, #5
  06d5c	e1cd32b6	 strh        r3, [sp, #0x26]

; 1382 :             udr.wIndex =  0 ;

  06d60	e3a03000	 mov         r3, #0
  06d64	e1cd32b8	 strh        r3, [sp, #0x28]

; 1383 :             udr.wLength =0;

  06d68	e3a03000	 mov         r3, #0
  06d6c	e1cd32ba	 strh        r3, [sp, #0x2A]

; 1384 :             m_prevUDCR.bit.AALTHNP = udccr.bit.AALTHNP;

  06d70	e59d3020	 ldr         r3, [sp, #0x20]
  06d74	e1a03083	 mov         r3, r3, lsl #1
  06d78	e1a01fa3	 mov         r1, r3, lsr #31
  06d7c	e59d30bc	 ldr         r3, [sp, #0xBC]
  06d80	e28330e4	 add         r3, r3, #0xE4
  06d84	e5932000	 ldr         r2, [r3]
  06d88	e3e03101	 mvn         r3, #1, 2
  06d8c	e0022003	 and         r2, r2, r3
  06d90	e2013001	 and         r3, r1, #1
  06d94	e1a03f03	 mov         r3, r3, lsl #30
  06d98	e1822003	 orr         r2, r2, r3
  06d9c	e59d30bc	 ldr         r3, [sp, #0xBC]
  06da0	e28330e4	 add         r3, r3, #0xE4
  06da4	e5832000	 str         r2, [r3]

; 1385 :             DeviceNotification(UFN_MSG_SETUP_PACKET,(DWORD) &udr);

  06da8	e28d2024	 add         r2, sp, #0x24
  06dac	e3a01004	 mov         r1, #4
  06db0	e59d00bc	 ldr         r0, [sp, #0xBC]
  06db4	eb000000	 bl          |?DeviceNotification@BulUsbDevice@@QAAHKK@Z|
  06db8		 |$LN18@ISTProcess|
  06db8		 |$LN24@ISTProcess|

; 1386 :         }
; 1387 :         
; 1388 :     }
; 1389 :     if ( dwIntr1Status & UDCISR1_IRRU) { // Resume Detected

  06db8	e59d300c	 ldr         r3, [sp, #0xC]
  06dbc	e3130202	 tst         r3, #2, 4
  06dc0	0a000017	 beq         |$LN17@ISTProcess|

; 1390 :         DEBUGMSG(ZONE_FUNCTION, (_T("%s : Resume Detected\r\n"),pszFname));

  06dc4	e59f3448	 ldr         r3, [pc, #0x448]
  06dc8	e5933440	 ldr         r3, [r3, #0x440]
  06dcc	e3130a01	 tst         r3, #1, 20
  06dd0	0a00000d	 beq         |$LN66@ISTProcess|
  06dd4	e59f3438	 ldr         r3, [pc, #0x438]
  06dd8	e5933440	 ldr         r3, [r3, #0x440]
  06ddc	e3130801	 tst         r3, #1, 16
  06de0	0a000003	 beq         |$LN64@ISTProcess|
  06de4	e59d1014	 ldr         r1, [sp, #0x14]
  06de8	e59f0430	 ldr         r0, [pc, #0x430]
  06dec	eb000000	 bl          CeLogMsg
  06df0	ea000002	 b           |$LN65@ISTProcess|
  06df4		 |$LN64@ISTProcess|
  06df4	e59d1014	 ldr         r1, [sp, #0x14]
  06df8	e59f0420	 ldr         r0, [pc, #0x420]
  06dfc	eb000000	 bl          NKDbgPrintfW
  06e00		 |$LN65@ISTProcess|
  06e00	e3a03001	 mov         r3, #1
  06e04	e58d3098	 str         r3, [sp, #0x98]
  06e08	ea000001	 b           |$LN67@ISTProcess|
  06e0c		 |$LN66@ISTProcess|
  06e0c	e3a03000	 mov         r3, #0
  06e10	e58d3098	 str         r3, [sp, #0x98]
  06e14		 |$LN67@ISTProcess|

; 1391 :         DeviceNotification( UFN_MSG_BUS_EVENTS, UFN_RESUME);

  06e14	e3a02004	 mov         r2, #4
  06e18	e3a01001	 mov         r1, #1
  06e1c	e59d00bc	 ldr         r0, [sp, #0xBC]
  06e20	eb000000	 bl          |?DeviceNotification@BulUsbDevice@@QAAHKK@Z|
  06e24		 |$LN17@ISTProcess|

; 1392 :     }
; 1393 :     if (dwIntr1Status & UDCISR1_IRSU ) { // Suspend Detected.

  06e24	e59d300c	 ldr         r3, [sp, #0xC]
  06e28	e3130201	 tst         r3, #1, 4
  06e2c	0a000017	 beq         |$LN16@ISTProcess|

; 1394 :         DEBUGMSG(ZONE_FUNCTION, (_T("%s : Suspend Detected\r\n"),pszFname));

  06e30	e59f33dc	 ldr         r3, [pc, #0x3DC]
  06e34	e5933440	 ldr         r3, [r3, #0x440]
  06e38	e3130a01	 tst         r3, #1, 20
  06e3c	0a00000d	 beq         |$LN70@ISTProcess|
  06e40	e59f33cc	 ldr         r3, [pc, #0x3CC]
  06e44	e5933440	 ldr         r3, [r3, #0x440]
  06e48	e3130801	 tst         r3, #1, 16
  06e4c	0a000003	 beq         |$LN68@ISTProcess|
  06e50	e59d1014	 ldr         r1, [sp, #0x14]
  06e54	e59f03c0	 ldr         r0, [pc, #0x3C0]
  06e58	eb000000	 bl          CeLogMsg
  06e5c	ea000002	 b           |$LN69@ISTProcess|
  06e60		 |$LN68@ISTProcess|
  06e60	e59d1014	 ldr         r1, [sp, #0x14]
  06e64	e59f03b0	 ldr         r0, [pc, #0x3B0]
  06e68	eb000000	 bl          NKDbgPrintfW
  06e6c		 |$LN69@ISTProcess|
  06e6c	e3a03001	 mov         r3, #1
  06e70	e58d309c	 str         r3, [sp, #0x9C]
  06e74	ea000001	 b           |$LN71@ISTProcess|
  06e78		 |$LN70@ISTProcess|
  06e78	e3a03000	 mov         r3, #0
  06e7c	e58d309c	 str         r3, [sp, #0x9C]
  06e80		 |$LN71@ISTProcess|

; 1395 :         DeviceNotification( UFN_MSG_BUS_EVENTS, UFN_SUSPEND);

  06e80	e3a02003	 mov         r2, #3
  06e84	e3a01001	 mov         r1, #1
  06e88	e59d00bc	 ldr         r0, [sp, #0xBC]
  06e8c	eb000000	 bl          |?DeviceNotification@BulUsbDevice@@QAAHKK@Z|
  06e90		 |$LN16@ISTProcess|

; 1396 :     }
; 1397 :     if (dwIntr1Status & UDCISR1_IRRS) { // Reset Detected.

  06e90	e59d300c	 ldr         r3, [sp, #0xC]
  06e94	e3130302	 tst         r3, #2, 6
  06e98	0a000074	 beq         |$LN15@ISTProcess|

; 1398 :         DEBUGMSG(ZONE_FUNCTION, (_T("%s : Reset Detected\r\n"),pszFname));

  06e9c	e59f3370	 ldr         r3, [pc, #0x370]
  06ea0	e5933440	 ldr         r3, [r3, #0x440]
  06ea4	e3130a01	 tst         r3, #1, 20
  06ea8	0a00000d	 beq         |$LN74@ISTProcess|
  06eac	e59f3360	 ldr         r3, [pc, #0x360]
  06eb0	e5933440	 ldr         r3, [r3, #0x440]
  06eb4	e3130801	 tst         r3, #1, 16
  06eb8	0a000003	 beq         |$LN72@ISTProcess|
  06ebc	e59d1014	 ldr         r1, [sp, #0x14]
  06ec0	e59f0350	 ldr         r0, [pc, #0x350]
  06ec4	eb000000	 bl          CeLogMsg
  06ec8	ea000002	 b           |$LN73@ISTProcess|
  06ecc		 |$LN72@ISTProcess|
  06ecc	e59d1014	 ldr         r1, [sp, #0x14]
  06ed0	e59f0340	 ldr         r0, [pc, #0x340]
  06ed4	eb000000	 bl          NKDbgPrintfW
  06ed8		 |$LN73@ISTProcess|
  06ed8	e3a03001	 mov         r3, #1
  06edc	e58d30a0	 str         r3, [sp, #0xA0]
  06ee0	ea000001	 b           |$LN75@ISTProcess|
  06ee4		 |$LN74@ISTProcess|
  06ee4	e3a03000	 mov         r3, #0
  06ee8	e58d30a0	 str         r3, [sp, #0xA0]
  06eec		 |$LN75@ISTProcess|

; 1399 :         // Set DETACH First
; 1400 :         DeviceNotification( UFN_MSG_BUS_EVENTS, UFN_DETACH);

  06eec	e3a02000	 mov         r2, #0
  06ef0	e3a01001	 mov         r1, #1
  06ef4	e59d00bc	 ldr         r0, [sp, #0xBC]
  06ef8	eb000000	 bl          |?DeviceNotification@BulUsbDevice@@QAAHKK@Z|

; 1401 :         // Set ATTACH.
; 1402 :         DeviceNotification( UFN_MSG_BUS_EVENTS, UFN_ATTACH);

  06efc	e3a02001	 mov         r2, #1
  06f00	e3a01001	 mov         r1, #1
  06f04	e59d00bc	 ldr         r0, [sp, #0xBC]
  06f08	eb000000	 bl          |?DeviceNotification@BulUsbDevice@@QAAHKK@Z|

; 1403 :         // Set Reset
; 1404 :         DeviceNotification( UFN_MSG_BUS_EVENTS, UFN_RESET);

  06f0c	e3a02002	 mov         r2, #2
  06f10	e3a01001	 mov         r1, #1
  06f14	e59d00bc	 ldr         r0, [sp, #0xBC]
  06f18	eb000000	 bl          |?DeviceNotification@BulUsbDevice@@QAAHKK@Z|

; 1405 :         // This device can only support FULL Speed.
; 1406 :         DeviceNotification( UFN_MSG_BUS_SPEED, BS_FULL_SPEED);

  06f1c	e3a02001	 mov         r2, #1
  06f20	e3a01003	 mov         r1, #3
  06f24	e59d00bc	 ldr         r0, [sp, #0xBC]
  06f28	eb000000	 bl          |?DeviceNotification@BulUsbDevice@@QAAHKK@Z|

; 1407 :         // The HW Filters the Set Address ... Fake it here
; 1408 :         DeviceNotification( UFN_MSG_SET_ADDRESS, 0xFF);

  06f2c	e3a020ff	 mov         r2, #0xFF
  06f30	e3a01006	 mov         r1, #6
  06f34	e59d00bc	 ldr         r0, [sp, #0xBC]
  06f38	eb000000	 bl          |?DeviceNotification@BulUsbDevice@@QAAHKK@Z|

; 1409 :         UDCCR udccr;
; 1410 :         USB_DEVICE_REQUEST udr;
; 1411 :         udccr.ulValue = ReadControlRegister();

  06f3c	e59d00bc	 ldr         r0, [sp, #0xBC]
  06f40	eb000000	 bl          |?ReadControlRegister@BulUsbDevice@@QAAKXZ|
  06f44	e58d00a4	 str         r0, [sp, #0xA4]
  06f48	e59d30a4	 ldr         r3, [sp, #0xA4]
  06f4c	e58d302c	 str         r3, [sp, #0x2C]

; 1412 :         if (udccr.bit.ACN == m_dwCurConfigure) { // COnfiguration has changed.

  06f50	e59d302c	 ldr         r3, [sp, #0x2C]
  06f54	e1a03983	 mov         r3, r3, lsl #19
  06f58	e1a02f23	 mov         r2, r3, lsr #30
  06f5c	e59d30bc	 ldr         r3, [sp, #0xBC]
  06f60	e28330b8	 add         r3, r3, #0xB8
  06f64	e5933000	 ldr         r3, [r3]
  06f68	e1520003	 cmp         r2, r3
  06f6c	1a000012	 bne         |$LN14@ISTProcess|

; 1413 :             udr.bmRequestType = USB_REQUEST_FOR_DEVICE;

  06f70	e3a03000	 mov         r3, #0
  06f74	e5cd3030	 strb        r3, [sp, #0x30]

; 1414 :             udr.bRequest = USB_REQUEST_SET_CONFIGURATION;

  06f78	e3a03009	 mov         r3, #9
  06f7c	e5cd3031	 strb        r3, [sp, #0x31]

; 1415 :             udr.wValue = (USHORT) udccr.bit.ACN;

  06f80	e59d302c	 ldr         r3, [sp, #0x2C]
  06f84	e1a03983	 mov         r3, r3, lsl #19
  06f88	e1a03f23	 mov         r3, r3, lsr #30
  06f8c	e1a03803	 mov         r3, r3, lsl #16
  06f90	e1a03823	 mov         r3, r3, lsr #16
  06f94	e1cd33b2	 strh        r3, [sp, #0x32]

; 1416 :             udr.wIndex =  0;

  06f98	e3a03000	 mov         r3, #0
  06f9c	e1cd33b4	 strh        r3, [sp, #0x34]

; 1417 :             udr.wLength =0;

  06fa0	e3a03000	 mov         r3, #0
  06fa4	e1cd33b6	 strh        r3, [sp, #0x36]

; 1418 :             DeviceNotification( UFN_MSG_SETUP_PACKET,(DWORD) &udr);

  06fa8	e28d2030	 add         r2, sp, #0x30
  06fac	e3a01004	 mov         r1, #4
  06fb0	e59d00bc	 ldr         r0, [sp, #0xBC]
  06fb4	eb000000	 bl          |?DeviceNotification@BulUsbDevice@@QAAHKK@Z|

; 1419 :         }
; 1420 :         else { // THis device is not configured

  06fb8	ea000003	 b           |$LN13@ISTProcess|
  06fbc		 |$LN14@ISTProcess|

; 1421 :             m_dwCurConfigure = MAXDWORD ;

  06fbc	e59d30bc	 ldr         r3, [sp, #0xBC]
  06fc0	e28320b8	 add         r2, r3, #0xB8
  06fc4	e3e03000	 mvn         r3, #0
  06fc8	e5823000	 str         r3, [r2]
  06fcc		 |$LN13@ISTProcess|

; 1422 :         }
; 1423 :         if (udccr.bit.AIN*0x100 + udccr.bit.AAISN == m_dwCurInterface) {

  06fcc	e59d302c	 ldr         r3, [sp, #0x2C]
  06fd0	e1a03a83	 mov         r3, r3, lsl #21
  06fd4	e1a01ea3	 mov         r1, r3, lsr #29
  06fd8	e3a03c01	 mov         r3, #1, 24
  06fdc	e0020391	 mul         r2, r1, r3
  06fe0	e59d302c	 ldr         r3, [sp, #0x2C]
  06fe4	e1a03c03	 mov         r3, r3, lsl #24
  06fe8	e1a03ea3	 mov         r3, r3, lsr #29
  06fec	e0822003	 add         r2, r2, r3
  06ff0	e59d30bc	 ldr         r3, [sp, #0xBC]
  06ff4	e28330bc	 add         r3, r3, #0xBC
  06ff8	e5933000	 ldr         r3, [r3]
  06ffc	e1520003	 cmp         r2, r3
  07000	1a000012	 bne         |$LN12@ISTProcess|

; 1424 :             udr.bmRequestType = USB_REQUEST_FOR_DEVICE;

  07004	e3a03000	 mov         r3, #0
  07008	e5cd3030	 strb        r3, [sp, #0x30]

; 1425 :             udr.bRequest = USB_REQUEST_SET_INTERFACE;

  0700c	e3a0300b	 mov         r3, #0xB
  07010	e5cd3031	 strb        r3, [sp, #0x31]

; 1426 :             udr.wValue = (USHORT) udccr.bit.AAISN;

  07014	e59d302c	 ldr         r3, [sp, #0x2C]
  07018	e1a03c03	 mov         r3, r3, lsl #24
  0701c	e1a03ea3	 mov         r3, r3, lsr #29
  07020	e1a03803	 mov         r3, r3, lsl #16
  07024	e1a03823	 mov         r3, r3, lsr #16
  07028	e1cd33b2	 strh        r3, [sp, #0x32]

; 1427 :             udr.wIndex = (USHORT) udccr.bit.AIN;

  0702c	e59d302c	 ldr         r3, [sp, #0x2C]
  07030	e1a03a83	 mov         r3, r3, lsl #21
  07034	e1a03ea3	 mov         r3, r3, lsr #29
  07038	e1a03803	 mov         r3, r3, lsl #16
  0703c	e1a03823	 mov         r3, r3, lsr #16
  07040	e1cd33b4	 strh        r3, [sp, #0x34]

; 1428 :             udr.wLength =  0;

  07044	e3a03000	 mov         r3, #0
  07048	e1cd33b6	 strh        r3, [sp, #0x36]

; 1429 :             // We can not do this because MDD will stall the endpoint.
; 1430 :             //DeviceNotification( UFN_MSG_SETUP_PACKET,(DWORD) &udr);
; 1431 :         }
; 1432 :         else { // THis device is not configured

  0704c	ea000003	 b           |$LN11@ISTProcess|
  07050		 |$LN12@ISTProcess|

; 1433 :             m_dwCurInterface = MAXDWORD ;

  07050	e59d30bc	 ldr         r3, [sp, #0xBC]
  07054	e28320bc	 add         r2, r3, #0xBC
  07058	e3e03000	 mvn         r3, #0
  0705c	e5823000	 str         r3, [r2]
  07060		 |$LN11@ISTProcess|

; 1434 :         }
; 1435 :         m_prevUDCR.ulValue = 0 ; // Reset Should clear all previous state;

  07060	e59d30bc	 ldr         r3, [sp, #0xBC]
  07064	e28320e4	 add         r2, r3, #0xE4
  07068	e3a03000	 mov         r3, #0
  0706c	e5823000	 str         r3, [r2]
  07070		 |$LN15@ISTProcess|

; 1436 :     }
; 1437 :     BulEndpoint *pEndpoint;
; 1438 :     DWORD dwIntrStatusCopy = dwIntr0Status;

  07070	e59d3010	 ldr         r3, [sp, #0x10]
  07074	e58d3008	 str         r3, [sp, #8]

; 1439 :     for (DWORD dwIndex =0 ; dwIndex < UDCIR0_MAX ; dwIndex ++ ) {

  07078	e3a03000	 mov         r3, #0
  0707c	e58d3038	 str         r3, [sp, #0x38]
  07080	ea000002	 b           |$LN10@ISTProcess|
  07084		 |$LN9@ISTProcess|
  07084	e59d3038	 ldr         r3, [sp, #0x38]
  07088	e2833001	 add         r3, r3, #1
  0708c	e58d3038	 str         r3, [sp, #0x38]
  07090		 |$LN10@ISTProcess|
  07090	e59d3038	 ldr         r3, [sp, #0x38]
  07094	e3530010	 cmp         r3, #0x10
  07098	2a00001b	 bcs         |$LN8@ISTProcess|

; 1440 :         if  ((dwIntrStatusCopy & ( EPINT_PACKET_COMPLETE | EPINT_FIFO_ERROR ))!=0 ) {

  0709c	e59d3008	 ldr         r3, [sp, #8]
  070a0	e3130003	 tst         r3, #3
  070a4	0a000014	 beq         |$LN7@ISTProcess|

; 1441 :             if ((pEndpoint = ObjectIndex(dwIndex)) != NULL ) {

  070a8	e59d1038	 ldr         r1, [sp, #0x38]
  070ac	e59d30bc	 ldr         r3, [sp, #0xBC]
  070b0	e2830018	 add         r0, r3, #0x18
  070b4	eb000000	 bl          |?ObjectIndex@?$CStaticContainer@VBulEndpoint@@$0BI@@@QAAPAVBulEndpoint@@K@Z|
  070b8	e58d00a8	 str         r0, [sp, #0xA8]
  070bc	e59d30a8	 ldr         r3, [sp, #0xA8]
  070c0	e58d3018	 str         r3, [sp, #0x18]
  070c4	e59d3018	 ldr         r3, [sp, #0x18]
  070c8	e3530000	 cmp         r3, #0
  070cc	0a00000a	 beq         |$LN6@ISTProcess|

; 1442 :                 pEndpoint->IST(dwIntrStatusCopy & ( EPINT_PACKET_COMPLETE | EPINT_FIFO_ERROR ));

  070d0	e59d3008	 ldr         r3, [sp, #8]
  070d4	e2031003	 and         r1, r3, #3
  070d8	e59d3018	 ldr         r3, [sp, #0x18]
  070dc	e5933000	 ldr         r3, [r3]
  070e0	e2833030	 add         r3, r3, #0x30
  070e4	e59d0018	 ldr         r0, [sp, #0x18]
  070e8	e5933000	 ldr         r3, [r3]
  070ec	e1a0e00f	 mov         lr, pc
  070f0	e12fff13	 bx          r3

; 1443 :                 pEndpoint->DeRef();

  070f4	e59d0018	 ldr         r0, [sp, #0x18]
  070f8	eb000000	 bl          |?DeRef@CRefObject@@QAAKXZ|
  070fc		 |$LN6@ISTProcess|
  070fc		 |$LN7@ISTProcess|

; 1444 :             }
; 1445 :         }
; 1446 :         dwIntrStatusCopy >>=2;

  070fc	e59d3008	 ldr         r3, [sp, #8]
  07100	e1a03123	 mov         r3, r3, lsr #2
  07104	e58d3008	 str         r3, [sp, #8]

; 1447 :     }

  07108	eaffffdd	 b           |$LN9@ISTProcess|
  0710c		 |$LN8@ISTProcess|

; 1448 :     dwIntrStatusCopy = dwIntr1Status;

  0710c	e59d300c	 ldr         r3, [sp, #0xC]
  07110	e58d3008	 str         r3, [sp, #8]

; 1449 :     for (DWORD dwIndex =UDCIR0_MAX ; dwIndex < MAX_ENDPOINT_NUMBER ; dwIndex ++ ) {

  07114	e3a03010	 mov         r3, #0x10
  07118	e58d303c	 str         r3, [sp, #0x3C]
  0711c	ea000002	 b           |$LN5@ISTProcess|
  07120		 |$LN4@ISTProcess|
  07120	e59d303c	 ldr         r3, [sp, #0x3C]
  07124	e2833001	 add         r3, r3, #1
  07128	e58d303c	 str         r3, [sp, #0x3C]
  0712c		 |$LN5@ISTProcess|
  0712c	e59d303c	 ldr         r3, [sp, #0x3C]
  07130	e3530018	 cmp         r3, #0x18
  07134	2a00001b	 bcs         |$LN3@ISTProcess|

; 1450 :         if  ((dwIntrStatusCopy & ( EPINT_PACKET_COMPLETE | EPINT_FIFO_ERROR ))!=0 ) {

  07138	e59d3008	 ldr         r3, [sp, #8]
  0713c	e3130003	 tst         r3, #3
  07140	0a000014	 beq         |$LN2@ISTProcess|

; 1451 :             if ((pEndpoint = ObjectIndex(dwIndex)) != NULL ) {

  07144	e59d103c	 ldr         r1, [sp, #0x3C]
  07148	e59d30bc	 ldr         r3, [sp, #0xBC]
  0714c	e2830018	 add         r0, r3, #0x18
  07150	eb000000	 bl          |?ObjectIndex@?$CStaticContainer@VBulEndpoint@@$0BI@@@QAAPAVBulEndpoint@@K@Z|
  07154	e58d00ac	 str         r0, [sp, #0xAC]
  07158	e59d30ac	 ldr         r3, [sp, #0xAC]
  0715c	e58d3018	 str         r3, [sp, #0x18]
  07160	e59d3018	 ldr         r3, [sp, #0x18]
  07164	e3530000	 cmp         r3, #0
  07168	0a00000a	 beq         |$LN1@ISTProcess|

; 1452 :                 pEndpoint->IST(dwIntrStatusCopy & ( EPINT_PACKET_COMPLETE | EPINT_FIFO_ERROR ));

  0716c	e59d3008	 ldr         r3, [sp, #8]
  07170	e2031003	 and         r1, r3, #3
  07174	e59d3018	 ldr         r3, [sp, #0x18]
  07178	e5933000	 ldr         r3, [r3]
  0717c	e2833030	 add         r3, r3, #0x30
  07180	e59d0018	 ldr         r0, [sp, #0x18]
  07184	e5933000	 ldr         r3, [r3]
  07188	e1a0e00f	 mov         lr, pc
  0718c	e12fff13	 bx          r3

; 1453 :                 pEndpoint->DeRef();

  07190	e59d0018	 ldr         r0, [sp, #0x18]
  07194	eb000000	 bl          |?DeRef@CRefObject@@QAAKXZ|
  07198		 |$LN1@ISTProcess|
  07198		 |$LN2@ISTProcess|

; 1454 :             }
; 1455 :         }
; 1456 :         dwIntrStatusCopy >>=2;

  07198	e59d3008	 ldr         r3, [sp, #8]
  0719c	e1a03123	 mov         r3, r3, lsr #2
  071a0	e58d3008	 str         r3, [sp, #8]

; 1457 :     }

  071a4	eaffffdd	 b           |$LN4@ISTProcess|
  071a8		 |$LN3@ISTProcess|

; 1458 :     m_ISTLock.Unlock();

  071a8	e59d30bc	 ldr         r3, [sp, #0xBC]
  071ac	e28300cc	 add         r0, r3, #0xCC
  071b0	eb000000	 bl          |?Unlock@CLockObject@@QAAXXZ|

; 1459 :     FUNCTION_LEAVE_MSG();

  071b4	e59f3058	 ldr         r3, [pc, #0x58]
  071b8	e5933440	 ldr         r3, [r3, #0x440]
  071bc	e3130a01	 tst         r3, #1, 20
  071c0	0a00000d	 beq         |$LN78@ISTProcess|
  071c4	e59f3048	 ldr         r3, [pc, #0x48]
  071c8	e5933440	 ldr         r3, [r3, #0x440]
  071cc	e3130801	 tst         r3, #1, 16
  071d0	0a000003	 beq         |$LN76@ISTProcess|
  071d4	e59d1014	 ldr         r1, [sp, #0x14]
  071d8	e59f0030	 ldr         r0, [pc, #0x30]
  071dc	eb000000	 bl          CeLogMsg
  071e0	ea000002	 b           |$LN77@ISTProcess|
  071e4		 |$LN76@ISTProcess|
  071e4	e59d1014	 ldr         r1, [sp, #0x14]
  071e8	e59f0020	 ldr         r0, [pc, #0x20]
  071ec	eb000000	 bl          NKDbgPrintfW
  071f0		 |$LN77@ISTProcess|
  071f0	e3a03001	 mov         r3, #1
  071f4	e58d30b0	 str         r3, [sp, #0xB0]
  071f8	ea000001	 b           |$LN79@ISTProcess|
  071fc		 |$LN78@ISTProcess|
  071fc	e3a03000	 mov         r3, #0
  07200	e58d30b0	 str         r3, [sp, #0xB0]
  07204		 |$LN79@ISTProcess|

; 1460 : }

  07204	e28dd0b4	 add         sp, sp, #0xB4
  07208	e89d6000	 ldmia       sp, {sp, lr}
  0720c	e12fff1e	 bx          lr
  07210		 |$LN83@ISTProcess|
  07210		 |$LN84@ISTProcess|
  07210	00000000	 DCD         |??_C@_1BA@PLOOFDPK@?$AA?$CF?$AAs?$AA?5?$AA?9?$AA?9?$AA?$AN?$AA?6?$AA?$AA@|
  07214		 |$LN85@ISTProcess|
  07214	00000000	 DCD         |dpCurSettings|
  07218		 |$LN86@ISTProcess|
  07218	00000000	 DCD         |??_C@_1CM@EGFBCGNP@?$AA?$CF?$AAs?$AA?5?$AA?3?$AA?5?$AAR?$AAe?$AAs?$AAe?$AAt?$AA?5?$AAD?$AAe?$AAt?$AAe?$AAc?$AAt?$AAe?$AAd?$AA?$AN?$AA?6?$AA?$AA@|
  0721c		 |$LN87@ISTProcess|
  0721c	00000000	 DCD         |??_C@_1DA@GBOALIGG@?$AA?$CF?$AAs?$AA?5?$AA?3?$AA?5?$AAS?$AAu?$AAs?$AAp?$AAe?$AAn?$AAd?$AA?5?$AAD?$AAe?$AAt?$AAe?$AAc?$AAt?$AAe?$AAd?$AA?$AN?$AA?6?$AA?$AA@|
  07220		 |$LN88@ISTProcess|
  07220	00000000	 DCD         |??_C@_1CO@EFDBPNJB@?$AA?$CF?$AAs?$AA?5?$AA?3?$AA?5?$AAR?$AAe?$AAs?$AAu?$AAm?$AAe?$AA?5?$AAD?$AAe?$AAt?$AAe?$AAc?$AAt?$AAe?$AAd?$AA?$AN?$AA?6?$AA?$AA@|
  07224		 |$LN89@ISTProcess|
  07224	00000000	 DCD         |??_C@_1DA@NMDPEMEI@?$AA?$CF?$AAs?$AA?5?$AA?3?$AA?5?$AAA?$AAA?$AAL?$AAT?$AAH?$AAN?$AAP?$AA?5?$AAD?$AAe?$AAt?$AAe?$AAc?$AAt?$AAe?$AAd?$AA?$AN?$AA?6?$AA?$AA@|
  07228		 |$LN90@ISTProcess|
  07228	00000000	 DCD         |??_C@_1CK@FLOPHAOM@?$AA?$CF?$AAs?$AA?5?$AA?3?$AA?5?$AAA?$AAH?$AAN?$AAP?$AA?5?$AAD?$AAe?$AAt?$AAe?$AAc?$AAt?$AAe?$AAd?$AA?$AN?$AA?6?$AA?$AA@|
  0722c		 |$LN91@ISTProcess|
  0722c	00000000	 DCD         |??_C@_1CK@JCPAHIFD@?$AA?$CF?$AAs?$AA?5?$AA?3?$AA?5?$AAB?$AAH?$AAN?$AAP?$AA?5?$AAD?$AAe?$AAt?$AAe?$AAc?$AAt?$AAe?$AAd?$AA?$AN?$AA?6?$AA?$AA@|
  07230		 |$LN92@ISTProcess|
  07230	00000000	 DCD         |??_C@_1HM@PACLFJML@?$AA?$CF?$AAs?$AA?5?$AA?3?$AA?5?$AAS?$AAe?$AAt?$AAu?$AAp?$AA?5?$AAC?$AAo?$AAn?$AAf?$AAi?$AAg?$AAu?$AAr?$AAa?$AAt?$AAi?$AAo?$AAn?$AA?5?$AAa?$AAn?$AAd?$AA?5?$AAI?$AAn?$AAt@|
  07234		 |$LN93@ISTProcess|
  07234	00000000	 DCD         |??_C@_1CO@MEPJDBNF@?$AA?$CF?$AAs?$AA?5?$AA?3?$AA?5?$AAD?$AAe?$AAt?$AAa?$AAc?$AAh?$AA?5?$AAD?$AAe?$AAt?$AAe?$AAc?$AAt?$AAe?$AAd?$AA?$AN?$AA?6?$AA?$AA@|
  07238		 |$LN94@ISTProcess|
  07238	00000000	 DCD         |??_C@_1CO@GIONPFEC@?$AA?$CF?$AAs?$AA?5?$AA?3?$AA?5?$AAA?$AAt?$AAt?$AAa?$AAc?$AAh?$AA?5?$AAD?$AAe?$AAt?$AAe?$AAc?$AAt?$AAe?$AAd?$AA?$AN?$AA?6?$AA?$AA@|
  0723c		 |$LN95@ISTProcess|
  0723c	00000000	 DCD         |??_C@_1NO@LLINCANK@?$AA?$CF?$AAs?$AA?5?$AA?3?$AA?5?$AAB?$AAu?$AAl?$AAU?$AAs?$AAb?$AAD?$AAe?$AAv?$AAi?$AAc?$AAe?$AA?5?$AAd?$AAw?$AAI?$AAn?$AAt?$AAr?$AA0?$AAS?$AAt?$AAa?$AAt?$AAu?$AAs?$AA?5@|
  07240		 |$LN96@ISTProcess|
  07240	00000000	 DCD         |??_C@_1BA@DAJPCKDK@?$AA?$CF?$AAs?$AA?5?$AA?$CL?$AA?$CL?$AA?$AN?$AA?6?$AA?$AA@|
  07244		 |$LN97@ISTProcess|
  07244	00000000	 DCD         |??_C@_1FC@MMNDIEJJ@?$AAb?$AAu?$AAl?$AAv?$AAe?$AAr?$AAd?$AAe?$AA_?$AAu?$AAs?$AAb?$AAf?$AAn?$AA?$CB?$AAB?$AAu?$AAl?$AAU?$AAs?$AAb?$AAD?$AAe?$AAv?$AAi?$AAc?$AAe?$AA?3?$AA?3?$AAI?$AAS?$AAT@|
  07248		 |$M39770|

			 ENDP  ; |?ISTProcess@BulUsbDevice@@IAAXXZ|, BulUsbDevice::ISTProcess

	EXPORT	|??_C@_1HK@PKPLEDKE@?$AA?$CF?$AAs?$AA?5?$AA?3?$AA?5?$AAC?$AAo?$AAn?$AAt?$AAr?$AAo?$AAl?$AAR?$AAe?$AAg?$AAi?$AAs?$AAt?$AAe?$AAr?$AA?$CI?$AA?$CJ?$AA?5?$AA?$DN?$AA0?$AAx?$AA?$CF?$AAx?$AA?5?$AAC?$AAo?$AAn@| [ DATA ] ; `string'
	EXPORT	|??_C@_1MO@KICJGDOG@?$AA?$CF?$AAs?$AA?5?$AA?3?$AA?5?$AAI?$AAn?$AAt?$AAe?$AAr?$AAr?$AAu?$AAp?$AAt?$AA?5?$AAT?$AAi?$AAm?$AAe?$AA?5?$AAo?$AAu?$AAt?$AA?5?$AAd?$AAw?$AAI?$AAn?$AAt?$AAr?$AA0?$AAS@| [ DATA ] ; `string'
	EXPORT	|??_C@_1FA@DENLKNCE@?$AAb?$AAu?$AAl?$AAv?$AAe?$AAr?$AAd?$AAe?$AA_?$AAu?$AAs?$AAb?$AAf?$AAn?$AA?$CB?$AAB?$AAu?$AAl?$AAU?$AAs?$AAb?$AAD?$AAe?$AAv?$AAi?$AAc?$AAe?$AA?3?$AA?3?$AAT?$AAh?$AAr@| [ DATA ] ; `string'
	IMPORT	|InterruptDone|

  00180			 AREA	 |.pdata|, PDATA
|$T39814| DCD	|$LN25@ThreadRun|
	DCD	0x4000b304

  00000			 AREA	 |.rdata|, DATA, READONLY
|??_C@_1HK@PKPLEDKE@?$AA?$CF?$AAs?$AA?5?$AA?3?$AA?5?$AAC?$AAo?$AAn?$AAt?$AAr?$AAo?$AAl?$AAR?$AAe?$AAg?$AAi?$AAs?$AAt?$AAe?$AAr?$AA?$CI?$AA?$CJ?$AA?5?$AA?$DN?$AA0?$AAx?$AA?$CF?$AAx?$AA?5?$AAC?$AAo?$AAn@| DCB "%"
	DCB	0x0, "s", 0x0, " ", 0x0, ":", 0x0, " ", 0x0, "C", 0x0, "o"
	DCB	0x0, "n", 0x0, "t", 0x0, "r", 0x0, "o", 0x0, "l", 0x0, "R"
	DCB	0x0, "e", 0x0, "g", 0x0, "i", 0x0, "s", 0x0, "t", 0x0, "e"
	DCB	0x0, "r", 0x0, "(", 0x0, ")", 0x0, " ", 0x0, "=", 0x0, "0"
	DCB	0x0, "x", 0x0, "%", 0x0, "x", 0x0, " ", 0x0, "C", 0x0, "o"
	DCB	0x0, "n", 0x0, "t", 0x0, "r", 0x0, "o", 0x0, "l", 0x0, "S"
	DCB	0x0, "t", 0x0, "a", 0x0, "t", 0x0, "u", 0x0, "s", 0x0, "R"
	DCB	0x0, "e", 0x0, "g", 0x0, "i", 0x0, "s", 0x0, "t", 0x0, "e"
	DCB	0x0, "r", 0x0, "(", 0x0, "0", 0x0, ")", 0x0, "=", 0x0, "0"
	DCB	0x0, "x", 0x0, "%", 0x0, "x", 0x0, 0xd, 0x0, 0xa, 0x0, 0x0
	DCB	0x0					; `string'

  00000			 AREA	 |.rdata|, DATA, READONLY
|??_C@_1MO@KICJGDOG@?$AA?$CF?$AAs?$AA?5?$AA?3?$AA?5?$AAI?$AAn?$AAt?$AAe?$AAr?$AAr?$AAu?$AAp?$AAt?$AA?5?$AAT?$AAi?$AAm?$AAe?$AA?5?$AAo?$AAu?$AAt?$AA?5?$AAd?$AAw?$AAI?$AAn?$AAt?$AAr?$AA0?$AAS@| DCB "%"
	DCB	0x0, "s", 0x0, " ", 0x0, ":", 0x0, " ", 0x0, "I", 0x0, "n"
	DCB	0x0, "t", 0x0, "e", 0x0, "r", 0x0, "r", 0x0, "u", 0x0, "p"
	DCB	0x0, "t", 0x0, " ", 0x0, "T", 0x0, "i", 0x0, "m", 0x0, "e"
	DCB	0x0, " ", 0x0, "o", 0x0, "u", 0x0, "t", 0x0, " ", 0x0, "d"
	DCB	0x0, "w", 0x0, "I", 0x0, "n", 0x0, "t", 0x0, "r", 0x0, "0"
	DCB	0x0, "S", 0x0, "t", 0x0, "a", 0x0, "t", 0x0, "u", 0x0, "s"
	DCB	0x0, "=", 0x0, "0", 0x0, "x", 0x0, "%", 0x0, "x", 0x0, " "
	DCB	0x0, "d", 0x0, "w", 0x0, "I", 0x0, "n", 0x0, "t", 0x0, "r"
	DCB	0x0, "1", 0x0, "S", 0x0, "t", 0x0, "a", 0x0, "t", 0x0, "u"
	DCB	0x0, "s", 0x0, " ", 0x0, "=", 0x0, " ", 0x0, "0", 0x0, "x"
	DCB	0x0, "%", 0x0, "x", 0x0, ".", 0x0, " ", 0x0, "d", 0x0, "w"
	DCB	0x0, "I", 0x0, "n", 0x0, "t", 0x0, "r", 0x0, "0", 0x0, "C"
	DCB	0x0, "t", 0x0, "r", 0x0, "l", 0x0, "=", 0x0, "0", 0x0, "x"
	DCB	0x0, "%", 0x0, "x", 0x0, ",", 0x0, " ", 0x0, "d", 0x0, "w"
	DCB	0x0, "I", 0x0, "n", 0x0, "t", 0x0, "r", 0x0, "1", 0x0, "1"
	DCB	0x0, "C", 0x0, "t", 0x0, "r", 0x0, "l", 0x0, "=", 0x0, "0"
	DCB	0x0, "x", 0x0, "%", 0x0, "x", 0x0, 0xd, 0x0, 0xa, 0x0, 0x0
	DCB	0x0					; `string'

  00000			 AREA	 |.rdata|, DATA, READONLY
|??_C@_1FA@DENLKNCE@?$AAb?$AAu?$AAl?$AAv?$AAe?$AAr?$AAd?$AAe?$AA_?$AAu?$AAs?$AAb?$AAf?$AAn?$AA?$CB?$AAB?$AAu?$AAl?$AAU?$AAs?$AAb?$AAD?$AAe?$AAv?$AAi?$AAc?$AAe?$AA?3?$AA?3?$AAT?$AAh?$AAr@| DCB "b"
	DCB	0x0, "u", 0x0, "l", 0x0, "v", 0x0, "e", 0x0, "r", 0x0, "d"
	DCB	0x0, "e", 0x0, "_", 0x0, "u", 0x0, "s", 0x0, "b", 0x0, "f"
	DCB	0x0, "n", 0x0, "!", 0x0, "B", 0x0, "u", 0x0, "l", 0x0, "U"
	DCB	0x0, "s", 0x0, "b", 0x0, "D", 0x0, "e", 0x0, "v", 0x0, "i"
	DCB	0x0, "c", 0x0, "e", 0x0, ":", 0x0, ":", 0x0, "T", 0x0, "h"
	DCB	0x0, "r", 0x0, "e", 0x0, "a", 0x0, "d", 0x0, "R", 0x0, "u"
	DCB	0x0, "n", 0x0, ":", 0x0, 0x0, 0x0	; `string'
; Function compile flags: /Odtp

  07248			 AREA	 |.text|, CODE, ARM

  07248		 |?ThreadRun@BulUsbDevice@@EAAKXZ| PROC	; BulUsbDevice::ThreadRun

; 1468 : {

  07248		 |$LN25@ThreadRun|
  07248	e1a0c00d	 mov         r12, sp
  0724c	e92d0001	 stmdb       sp!, {r0}
  07250	e92d5000	 stmdb       sp!, {r12, lr}
  07254	e24dd064	 sub         sp, sp, #0x64
  07258		 |$M39811|

; 1469 :     SETFNAME();

  07258	e59f32b0	 ldr         r3, [pc, #0x2B0]
  0725c	e58d3008	 str         r3, [sp, #8]

; 1470 :     FUNCTION_ENTER_MSG();

  07260	e59f3298	 ldr         r3, [pc, #0x298]
  07264	e5933440	 ldr         r3, [r3, #0x440]
  07268	e3130a01	 tst         r3, #1, 20
  0726c	0a00000d	 beq         |$LN8@ThreadRun|
  07270	e59f3288	 ldr         r3, [pc, #0x288]
  07274	e5933440	 ldr         r3, [r3, #0x440]
  07278	e3130801	 tst         r3, #1, 16
  0727c	0a000003	 beq         |$LN6@ThreadRun|
  07280	e59d1008	 ldr         r1, [sp, #8]
  07284	e59f0280	 ldr         r0, [pc, #0x280]
  07288	eb000000	 bl          CeLogMsg
  0728c	ea000002	 b           |$LN7@ThreadRun|
  07290		 |$LN6@ThreadRun|
  07290	e59d1008	 ldr         r1, [sp, #8]
  07294	e59f0270	 ldr         r0, [pc, #0x270]
  07298	eb000000	 bl          NKDbgPrintfW
  0729c		 |$LN7@ThreadRun|
  0729c	e3a03001	 mov         r3, #1
  072a0	e58d3020	 str         r3, [sp, #0x20]
  072a4	ea000001	 b           |$LN9@ThreadRun|
  072a8		 |$LN8@ThreadRun|
  072a8	e3a03000	 mov         r3, #0
  072ac	e58d3020	 str         r3, [sp, #0x20]
  072b0		 |$LN9@ThreadRun|
  072b0		 |$LN22@ThreadRun|
  072b0		 |$LN3@ThreadRun|

; 1471 : 
; 1472 :     while (!m_bTerminated && m_hISTEvent!=NULL) {

  072b0	e59d306c	 ldr         r3, [sp, #0x6C]
  072b4	e2833004	 add         r3, r3, #4
  072b8	e5933000	 ldr         r3, [r3]
  072bc	e3530000	 cmp         r3, #0
  072c0	1a000073	 bne         |$LN2@ThreadRun|
  072c4	e59d306c	 ldr         r3, [sp, #0x6C]
  072c8	e28330a8	 add         r3, r3, #0xA8
  072cc	e5933000	 ldr         r3, [r3]
  072d0	e3530000	 cmp         r3, #0
  072d4	0a00006e	 beq         |$LN2@ThreadRun|

; 1473 :         if ( WaitForSingleObject(m_hISTEvent,cISTTimeOut) != WAIT_OBJECT_0) {

  072d8	e3a01e7d	 mov         r1, #0x7D, 28
  072dc	e59d306c	 ldr         r3, [sp, #0x6C]
  072e0	e28330a8	 add         r3, r3, #0xA8
  072e4	e5930000	 ldr         r0, [r3]
  072e8	eb000000	 bl          WaitForSingleObject
  072ec	e58d0024	 str         r0, [sp, #0x24]
  072f0	e59d3024	 ldr         r3, [sp, #0x24]
  072f4	e3530000	 cmp         r3, #0
  072f8	0a00005e	 beq         |$LN1@ThreadRun|

; 1474 :             DEBUGMSG(ZONE_FUNCTION, (_T("%s : Interrupt Time out dwIntr0Status=0x%x dwIntr1Status = 0x%x. dwIntr0Ctrl=0x%x, dwIntr11Ctrl=0x%x\r\n"),pszFname,
; 1475 :                 ReadIntrStatus0Register(), ReadIntrStatus1Register(),ReadIntrCtr0Register(), ReadIntrCtr1Register()));

  072fc	e59f31fc	 ldr         r3, [pc, #0x1FC]
  07300	e5933440	 ldr         r3, [r3, #0x440]
  07304	e3130a01	 tst         r3, #1, 20
  07308	0a000031	 beq         |$LN12@ThreadRun|
  0730c	e59f31ec	 ldr         r3, [pc, #0x1EC]
  07310	e5933440	 ldr         r3, [r3, #0x440]
  07314	e3130801	 tst         r3, #1, 16
  07318	0a000015	 beq         |$LN10@ThreadRun|
  0731c	e59d006c	 ldr         r0, [sp, #0x6C]
  07320	eb000000	 bl          |?ReadIntrCtr1Register@BulUsbDevice@@QAAKXZ|
  07324	e58d0028	 str         r0, [sp, #0x28]
  07328	e59d006c	 ldr         r0, [sp, #0x6C]
  0732c	eb000000	 bl          |?ReadIntrCtr0Register@BulUsbDevice@@QAAKXZ|
  07330	e58d002c	 str         r0, [sp, #0x2C]
  07334	e59d006c	 ldr         r0, [sp, #0x6C]
  07338	eb000000	 bl          |?ReadIntrStatus1Register@BulUsbDevice@@QAAKXZ|
  0733c	e58d0030	 str         r0, [sp, #0x30]
  07340	e59d006c	 ldr         r0, [sp, #0x6C]
  07344	eb000000	 bl          |?ReadIntrStatus0Register@BulUsbDevice@@QAAKXZ|
  07348	e58d0034	 str         r0, [sp, #0x34]
  0734c	e59d3028	 ldr         r3, [sp, #0x28]
  07350	e58d3004	 str         r3, [sp, #4]
  07354	e59d302c	 ldr         r3, [sp, #0x2C]
  07358	e58d3000	 str         r3, [sp]
  0735c	e59d3030	 ldr         r3, [sp, #0x30]
  07360	e59d2034	 ldr         r2, [sp, #0x34]
  07364	e59d1008	 ldr         r1, [sp, #8]
  07368	e59f0198	 ldr         r0, [pc, #0x198]
  0736c	eb000000	 bl          CeLogMsg
  07370	ea000014	 b           |$LN11@ThreadRun|
  07374		 |$LN10@ThreadRun|
  07374	e59d006c	 ldr         r0, [sp, #0x6C]
  07378	eb000000	 bl          |?ReadIntrCtr1Register@BulUsbDevice@@QAAKXZ|
  0737c	e58d0038	 str         r0, [sp, #0x38]
  07380	e59d006c	 ldr         r0, [sp, #0x6C]
  07384	eb000000	 bl          |?ReadIntrCtr0Register@BulUsbDevice@@QAAKXZ|
  07388	e58d003c	 str         r0, [sp, #0x3C]
  0738c	e59d006c	 ldr         r0, [sp, #0x6C]
  07390	eb000000	 bl          |?ReadIntrStatus1Register@BulUsbDevice@@QAAKXZ|
  07394	e58d0040	 str         r0, [sp, #0x40]
  07398	e59d006c	 ldr         r0, [sp, #0x6C]
  0739c	eb000000	 bl          |?ReadIntrStatus0Register@BulUsbDevice@@QAAKXZ|
  073a0	e58d0044	 str         r0, [sp, #0x44]
  073a4	e59d3038	 ldr         r3, [sp, #0x38]
  073a8	e58d3004	 str         r3, [sp, #4]
  073ac	e59d303c	 ldr         r3, [sp, #0x3C]
  073b0	e58d3000	 str         r3, [sp]
  073b4	e59d3040	 ldr         r3, [sp, #0x40]
  073b8	e59d2044	 ldr         r2, [sp, #0x44]
  073bc	e59d1008	 ldr         r1, [sp, #8]
  073c0	e59f0140	 ldr         r0, [pc, #0x140]
  073c4	eb000000	 bl          NKDbgPrintfW
  073c8		 |$LN11@ThreadRun|
  073c8	e3a03001	 mov         r3, #1
  073cc	e58d3048	 str         r3, [sp, #0x48]
  073d0	ea000001	 b           |$LN13@ThreadRun|
  073d4		 |$LN12@ThreadRun|
  073d4	e3a03000	 mov         r3, #0
  073d8	e58d3048	 str         r3, [sp, #0x48]
  073dc		 |$LN13@ThreadRun|

; 1476 :             DEBUGMSG(ZONE_FUNCTION, (_T("%s : ControlRegister() =0x%x ControlStatusRegister(0)=0x%x\r\n"),pszFname,
; 1477 :                  ReadControlRegister(), ReadUDCRegister( ENDPOINT_CONTROL_STATUS_REGISTER_OFFSET + 0 ) ));

  073dc	e59f311c	 ldr         r3, [pc, #0x11C]
  073e0	e5933440	 ldr         r3, [r3, #0x440]
  073e4	e3130a01	 tst         r3, #1, 20
  073e8	0a00001f	 beq         |$LN16@ThreadRun|
  073ec	e59f310c	 ldr         r3, [pc, #0x10C]
  073f0	e5933440	 ldr         r3, [r3, #0x440]
  073f4	e3130801	 tst         r3, #1, 16
  073f8	0a00000c	 beq         |$LN14@ThreadRun|
  073fc	e3a01040	 mov         r1, #0x40
  07400	e59d006c	 ldr         r0, [sp, #0x6C]
  07404	eb000000	 bl          |?ReadUDCRegister@BulUsbDevice@@QAAKK@Z|
  07408	e58d004c	 str         r0, [sp, #0x4C]
  0740c	e59d006c	 ldr         r0, [sp, #0x6C]
  07410	eb000000	 bl          |?ReadControlRegister@BulUsbDevice@@QAAKXZ|
  07414	e58d0050	 str         r0, [sp, #0x50]
  07418	e59d304c	 ldr         r3, [sp, #0x4C]
  0741c	e59d2050	 ldr         r2, [sp, #0x50]
  07420	e59d1008	 ldr         r1, [sp, #8]
  07424	e59f00d8	 ldr         r0, [pc, #0xD8]
  07428	eb000000	 bl          CeLogMsg
  0742c	ea00000b	 b           |$LN15@ThreadRun|
  07430		 |$LN14@ThreadRun|
  07430	e3a01040	 mov         r1, #0x40
  07434	e59d006c	 ldr         r0, [sp, #0x6C]
  07438	eb000000	 bl          |?ReadUDCRegister@BulUsbDevice@@QAAKK@Z|
  0743c	e58d0054	 str         r0, [sp, #0x54]
  07440	e59d006c	 ldr         r0, [sp, #0x6C]
  07444	eb000000	 bl          |?ReadControlRegister@BulUsbDevice@@QAAKXZ|
  07448	e58d0058	 str         r0, [sp, #0x58]
  0744c	e59d3054	 ldr         r3, [sp, #0x54]
  07450	e59d2058	 ldr         r2, [sp, #0x58]
  07454	e59d1008	 ldr         r1, [sp, #8]
  07458	e59f00a4	 ldr         r0, [pc, #0xA4]
  0745c	eb000000	 bl          NKDbgPrintfW
  07460		 |$LN15@ThreadRun|
  07460	e3a03001	 mov         r3, #1
  07464	e58d305c	 str         r3, [sp, #0x5C]
  07468	ea000001	 b           |$LN17@ThreadRun|
  0746c		 |$LN16@ThreadRun|
  0746c	e3a03000	 mov         r3, #0
  07470	e58d305c	 str         r3, [sp, #0x5C]
  07474		 |$LN17@ThreadRun|

; 1478 :             continue;

  07474	eaffff8d	 b           |$LN3@ThreadRun|
  07478		 |$LN1@ThreadRun|

; 1479 :         }
; 1480 :         ISTProcess();

  07478	e59d006c	 ldr         r0, [sp, #0x6C]
  0747c	eb000000	 bl          |?ISTProcess@BulUsbDevice@@IAAXXZ|

; 1481 :         InterruptDone(m_dwSysIntr);

  07480	e59d306c	 ldr         r3, [sp, #0x6C]
  07484	e28330a4	 add         r3, r3, #0xA4
  07488	e5930000	 ldr         r0, [r3]
  0748c	eb000000	 bl          InterruptDone

; 1482 :     }

  07490	eaffff86	 b           |$LN22@ThreadRun|
  07494		 |$LN2@ThreadRun|

; 1483 :     FUNCTION_LEAVE_MSG();

  07494	e59f3064	 ldr         r3, [pc, #0x64]
  07498	e5933440	 ldr         r3, [r3, #0x440]
  0749c	e3130a01	 tst         r3, #1, 20
  074a0	0a00000d	 beq         |$LN20@ThreadRun|
  074a4	e59f3054	 ldr         r3, [pc, #0x54]
  074a8	e5933440	 ldr         r3, [r3, #0x440]
  074ac	e3130801	 tst         r3, #1, 16
  074b0	0a000003	 beq         |$LN18@ThreadRun|
  074b4	e59d1008	 ldr         r1, [sp, #8]
  074b8	e59f003c	 ldr         r0, [pc, #0x3C]
  074bc	eb000000	 bl          CeLogMsg
  074c0	ea000002	 b           |$LN19@ThreadRun|
  074c4		 |$LN18@ThreadRun|
  074c4	e59d1008	 ldr         r1, [sp, #8]
  074c8	e59f002c	 ldr         r0, [pc, #0x2C]
  074cc	eb000000	 bl          NKDbgPrintfW
  074d0		 |$LN19@ThreadRun|
  074d0	e3a03001	 mov         r3, #1
  074d4	e58d3060	 str         r3, [sp, #0x60]
  074d8	ea000001	 b           |$LN21@ThreadRun|
  074dc		 |$LN20@ThreadRun|
  074dc	e3a03000	 mov         r3, #0
  074e0	e58d3060	 str         r3, [sp, #0x60]
  074e4		 |$LN21@ThreadRun|

; 1484 :     return 1;

  074e4	e3a03001	 mov         r3, #1
  074e8	e58d301c	 str         r3, [sp, #0x1C]

; 1485 : }

  074ec	e59d001c	 ldr         r0, [sp, #0x1C]
  074f0	e28dd064	 add         sp, sp, #0x64
  074f4	e89d6000	 ldmia       sp, {sp, lr}
  074f8	e12fff1e	 bx          lr
  074fc		 |$LN26@ThreadRun|
  074fc		 |$LN27@ThreadRun|
  074fc	00000000	 DCD         |??_C@_1BA@PLOOFDPK@?$AA?$CF?$AAs?$AA?5?$AA?9?$AA?9?$AA?$AN?$AA?6?$AA?$AA@|
  07500		 |$LN28@ThreadRun|
  07500	00000000	 DCD         |dpCurSettings|
  07504		 |$LN29@ThreadRun|
  07504	00000000	 DCD         |??_C@_1HK@PKPLEDKE@?$AA?$CF?$AAs?$AA?5?$AA?3?$AA?5?$AAC?$AAo?$AAn?$AAt?$AAr?$AAo?$AAl?$AAR?$AAe?$AAg?$AAi?$AAs?$AAt?$AAe?$AAr?$AA?$CI?$AA?$CJ?$AA?5?$AA?$DN?$AA0?$AAx?$AA?$CF?$AAx?$AA?5?$AAC?$AAo?$AAn@|
  07508		 |$LN30@ThreadRun|
  07508	00000000	 DCD         |??_C@_1MO@KICJGDOG@?$AA?$CF?$AAs?$AA?5?$AA?3?$AA?5?$AAI?$AAn?$AAt?$AAe?$AAr?$AAr?$AAu?$AAp?$AAt?$AA?5?$AAT?$AAi?$AAm?$AAe?$AA?5?$AAo?$AAu?$AAt?$AA?5?$AAd?$AAw?$AAI?$AAn?$AAt?$AAr?$AA0?$AAS@|
  0750c		 |$LN31@ThreadRun|
  0750c	00000000	 DCD         |??_C@_1BA@DAJPCKDK@?$AA?$CF?$AAs?$AA?5?$AA?$CL?$AA?$CL?$AA?$AN?$AA?6?$AA?$AA@|
  07510		 |$LN32@ThreadRun|
  07510	00000000	 DCD         |??_C@_1FA@DENLKNCE@?$AAb?$AAu?$AAl?$AAv?$AAe?$AAr?$AAd?$AAe?$AA_?$AAu?$AAs?$AAb?$AAf?$AAn?$AA?$CB?$AAB?$AAu?$AAl?$AAU?$AAs?$AAb?$AAD?$AAe?$AAv?$AAi?$AAc?$AAe?$AA?3?$AA?3?$AAT?$AAh?$AAr@|
  07514		 |$M39812|

			 ENDP  ; |?ThreadRun@BulUsbDevice@@EAAKXZ|, BulUsbDevice::ThreadRun

	EXPORT	|??_7BulOTGEventThread@@6B@| [ DATA ]	; BulOTGEventThread::`vftable'
	EXPORT	|?ThreadRun@BulOTGEventThread@@EAAKXZ|	; BulOTGEventThread::ThreadRun

  00188			 AREA	 |.pdata|, PDATA
|$T39827| DCD	|$LN5@BulOTGEven|
	DCD	0x40001f04

  00000			 AREA	 |.rdata|, DATA, READONLY
|??_7BulOTGEventThread@@6B@| DCD |?ThreadRun@BulOTGEventThread@@EAAKXZ| ; BulOTGEventThread::`vftable'
; Function compile flags: /Odtp

  07514			 AREA	 |.text|, CODE, ARM

  07514		 |??0BulOTGEventThread@@QAA@AAVBulUsbDevice@@AAPAXK@Z| PROC ; BulOTGEventThread::BulOTGEventThread

; 1492 : {

  07514		 |$LN5@BulOTGEven|
  07514	e1a0c00d	 mov         r12, sp
  07518	e92d000f	 stmdb       sp!, {r0 - r3}
  0751c	e92d5000	 stmdb       sp!, {r12, lr}
  07520	e24dd008	 sub         sp, sp, #8
  07524		 |$M39824|
  07524	e3a02001	 mov         r2, #1
  07528	e3a01000	 mov         r1, #0
  0752c	e59d0010	 ldr         r0, [sp, #0x10]
  07530	eb000000	 bl          |??0CMiniThread@@QAA@KH@Z|
  07534	e58d0004	 str         r0, [sp, #4]
  07538	e59f204c	 ldr         r2, [pc, #0x4C]
  0753c	e59d3010	 ldr         r3, [sp, #0x10]
  07540	e5832000	 str         r2, [r3]
  07544	e59d3010	 ldr         r3, [sp, #0x10]
  07548	e2832018	 add         r2, r3, #0x18
  0754c	e59d3014	 ldr         r3, [sp, #0x14]
  07550	e5823000	 str         r3, [r2]
  07554	e59d3010	 ldr         r3, [sp, #0x10]
  07558	e283201c	 add         r2, r3, #0x1C
  0755c	e59d3018	 ldr         r3, [sp, #0x18]
  07560	e5823000	 str         r3, [r2]
  07564	e59d3010	 ldr         r3, [sp, #0x10]
  07568	e2832020	 add         r2, r3, #0x20
  0756c	e59d301c	 ldr         r3, [sp, #0x1C]
  07570	e5823000	 str         r3, [r2]

; 1493 : }

  07574	e59d3010	 ldr         r3, [sp, #0x10]
  07578	e58d3000	 str         r3, [sp]
  0757c	e59d0000	 ldr         r0, [sp]
  07580	e28dd008	 add         sp, sp, #8
  07584	e89d6000	 ldmia       sp, {sp, lr}
  07588	e12fff1e	 bx          lr
  0758c		 |$LN6@BulOTGEven|
  0758c		 |$LN7@BulOTGEven|
  0758c	00000000	 DCD         |??_7BulOTGEventThread@@6B@|
  07590		 |$M39825|

			 ENDP  ; |??0BulOTGEventThread@@QAA@AAVBulUsbDevice@@AAPAXK@Z|, BulOTGEventThread::BulOTGEventThread


  00190			 AREA	 |.pdata|, PDATA
|$T39834| DCD	|$LN5@BulOTGEven@2|
	DCD	0x40001903
; Function compile flags: /Odtp

  07590			 AREA	 |.text|, CODE, ARM

  07590		 |??1BulOTGEventThread@@QAA@XZ| PROC	; BulOTGEventThread::~BulOTGEventThread

; 1495 : {

  07590		 |$LN5@BulOTGEven@2|
  07590	e1a0c00d	 mov         r12, sp
  07594	e92d0001	 stmdb       sp!, {r0}
  07598	e92d5000	 stmdb       sp!, {r12, lr}
  0759c		 |$M39831|
  0759c	e59f204c	 ldr         r2, [pc, #0x4C]
  075a0	e59d3008	 ldr         r3, [sp, #8]
  075a4	e5832000	 str         r2, [r3]

; 1496 :     m_bTerminated=TRUE;

  075a8	e59d3008	 ldr         r3, [sp, #8]
  075ac	e2832004	 add         r2, r3, #4
  075b0	e3a03001	 mov         r3, #1
  075b4	e5823000	 str         r3, [r2]

; 1497 :     ThreadStart();

  075b8	e59d0008	 ldr         r0, [sp, #8]
  075bc	eb000000	 bl          |?ThreadStart@CMiniThread@@QAAHXZ|

; 1498 :     SetEvent(m_hOTGEvent);

  075c0	e59d3008	 ldr         r3, [sp, #8]
  075c4	e283301c	 add         r3, r3, #0x1C
  075c8	e5933000	 ldr         r3, [r3]
  075cc	e5930000	 ldr         r0, [r3]
  075d0	eb000000	 bl          SetEvent

; 1499 :     ThreadTerminated(1000);

  075d4	e3a01ffa	 mov         r1, #0xFA, 30
  075d8	e59d0008	 ldr         r0, [sp, #8]
  075dc	eb000000	 bl          |?ThreadTerminated@CMiniThread@@QAAHK@Z|

; 1500 : }

  075e0	e59d0008	 ldr         r0, [sp, #8]
  075e4	eb000000	 bl          |??1CMiniThread@@QAA@XZ|
  075e8	e89d6000	 ldmia       sp, {sp, lr}
  075ec	e12fff1e	 bx          lr
  075f0		 |$LN6@BulOTGEven@2|
  075f0		 |$LN7@BulOTGEven@2|
  075f0	00000000	 DCD         |??_7BulOTGEventThread@@6B@|
  075f4		 |$M39832|

			 ENDP  ; |??1BulOTGEventThread@@QAA@XZ|, BulOTGEventThread::~BulOTGEventThread

	EXPORT	|?OTGSetupFeature@BulUsbDevice@@QAAXXZ|	; BulUsbDevice::OTGSetupFeature

  00198			 AREA	 |.pdata|, PDATA
|$T39842| DCD	|$LN9@ThreadRun@2|
	DCD	0x40002604
; Function compile flags: /Odtp

  075f4			 AREA	 |.text|, CODE, ARM

  075f4		 |?ThreadRun@BulOTGEventThread@@EAAKXZ| PROC ; BulOTGEventThread::ThreadRun

; 1503 : {

  075f4		 |$LN9@ThreadRun@2|
  075f4	e1a0c00d	 mov         r12, sp
  075f8	e92d0001	 stmdb       sp!, {r0}
  075fc	e92d5000	 stmdb       sp!, {r12, lr}
  07600	e24dd008	 sub         sp, sp, #8
  07604		 |$M39839|
  07604		 |$LN4@ThreadRun@2|

; 1504 :     while (!m_bTerminated && m_hOTGEvent!=NULL) {

  07604	e59d3010	 ldr         r3, [sp, #0x10]
  07608	e2833004	 add         r3, r3, #4
  0760c	e5933000	 ldr         r3, [r3]
  07610	e3530000	 cmp         r3, #0
  07614	1a000016	 bne         |$LN3@ThreadRun@2|
  07618	e59d3010	 ldr         r3, [sp, #0x10]
  0761c	e283301c	 add         r3, r3, #0x1C
  07620	e5933000	 ldr         r3, [r3]
  07624	e5933000	 ldr         r3, [r3]
  07628	e3530000	 cmp         r3, #0
  0762c	0a000010	 beq         |$LN3@ThreadRun@2|

; 1505 :         if ( WaitForSingleObject(m_hOTGEvent,INFINITE)== WAIT_OBJECT_0) {

  07630	e3e01000	 mvn         r1, #0
  07634	e59d3010	 ldr         r3, [sp, #0x10]
  07638	e283301c	 add         r3, r3, #0x1C
  0763c	e5933000	 ldr         r3, [r3]
  07640	e5930000	 ldr         r0, [r3]
  07644	eb000000	 bl          WaitForSingleObject
  07648	e58d0004	 str         r0, [sp, #4]
  0764c	e59d3004	 ldr         r3, [sp, #4]
  07650	e3530000	 cmp         r3, #0
  07654	1a000004	 bne         |$LN2@ThreadRun@2|

; 1506 :             m_BulverUSBDevice.OTGSetupFeature();

  07658	e59d3010	 ldr         r3, [sp, #0x10]
  0765c	e2833018	 add         r3, r3, #0x18
  07660	e5930000	 ldr         r0, [r3]
  07664	eb000000	 bl          |?OTGSetupFeature@BulUsbDevice@@QAAXXZ|

; 1507 :         }
; 1508 :         else

  07668	ea000000	 b           |$LN1@ThreadRun@2|
  0766c		 |$LN2@ThreadRun@2|

; 1509 :             break;

  0766c	ea000000	 b           |$LN3@ThreadRun@2|
  07670		 |$LN1@ThreadRun@2|

; 1510 :     }

  07670	eaffffe3	 b           |$LN4@ThreadRun@2|
  07674		 |$LN3@ThreadRun@2|

; 1511 :     return 0;

  07674	e3a03000	 mov         r3, #0
  07678	e58d3000	 str         r3, [sp]

; 1512 : }

  0767c	e59d0000	 ldr         r0, [sp]
  07680	e28dd008	 add         sp, sp, #8
  07684	e89d6000	 ldmia       sp, {sp, lr}
  07688	e12fff1e	 bx          lr
  0768c		 |$M39840|

			 ENDP  ; |?ThreadRun@BulOTGEventThread@@EAAKXZ|, BulOTGEventThread::ThreadRun

; File c:\wince600\platform\common\src\soc\pxa27x_ms_v1\inc\bul_usbfn.h

  00000			 AREA	 |.pdata|, PDATA
|$T39847| DCD	|$LN5@OTGSetupFe|
	DCD	0x40000b03
; Function compile flags: /Odtp

  00000			 AREA	 |.text|, CODE, ARM

  00000		 |?OTGSetupFeature@BulUsbDevice@@QAAXXZ| PROC ; BulUsbDevice::OTGSetupFeature

; 115  :     void    OTGSetupFeature() {

  00000		 |$LN5@OTGSetupFe|
  00000	e1a0c00d	 mov         r12, sp
  00004	e92d0001	 stmdb       sp!, {r0}
  00008	e92d5000	 stmdb       sp!, {r12, lr}
  0000c		 |$M39844|

; 116  :         m_fOTGSetupFeature = TRUE;

  0000c	e59d3008	 ldr         r3, [sp, #8]
  00010	e28320e0	 add         r2, r3, #0xE0
  00014	e3a03001	 mov         r3, #1
  00018	e5823000	 str         r3, [r2]

; 117  :         ISTProcess();

  0001c	e59d0008	 ldr         r0, [sp, #8]
  00020	eb000000	 bl          |?ISTProcess@BulUsbDevice@@IAAXXZ|

; 118  :     }

  00024	e89d6000	 ldmia       sp, {sp, lr}
  00028	e12fff1e	 bx          lr
  0002c		 |$M39845|

			 ENDP  ; |?OTGSetupFeature@BulUsbDevice@@QAAXXZ|, BulUsbDevice::OTGSetupFeature

	EXPORT	|?UfnPdd_Deinit@@YAKPAX@Z|		; UfnPdd_Deinit

  001a0			 AREA	 |.pdata|, PDATA
|$T39859| DCD	|$LN9@UfnPdd_Dei|
	DCD	0x40002604
; Function compile flags: /Odtp
; File c:\wince600\platform\common\src\soc\pxa27x_ms_v1\usbfn\bul_usbfn.cpp

  0768c			 AREA	 |.text|, CODE, ARM

  0768c		 |?UfnPdd_Deinit@@YAKPAX@Z| PROC	; UfnPdd_Deinit

; 1518 : {

  0768c		 |$LN9@UfnPdd_Dei|
  0768c	e1a0c00d	 mov         r12, sp
  07690	e92d0001	 stmdb       sp!, {r0}
  07694	e92d5000	 stmdb       sp!, {r12, lr}
  07698	e24dd014	 sub         sp, sp, #0x14
  0769c		 |$M39856|

; 1519 :     if (pvPddContext) {

  0769c	e59d301c	 ldr         r3, [sp, #0x1C]
  076a0	e3530000	 cmp         r3, #0
  076a4	0a000018	 beq         |$LN2@UfnPdd_Dei|

; 1520 :         delete ((BulUsbDevice *)pvPddContext);

  076a8	e59d301c	 ldr         r3, [sp, #0x1C]
  076ac	e58d3004	 str         r3, [sp, #4]
  076b0	e59d3004	 ldr         r3, [sp, #4]
  076b4	e58d3000	 str         r3, [sp]
  076b8	e59d3000	 ldr         r3, [sp]
  076bc	e3530000	 cmp         r3, #0
  076c0	0a00000b	 beq         |$LN5@UfnPdd_Dei|
  076c4	e3a01001	 mov         r1, #1
  076c8	e59d3000	 ldr         r3, [sp]
  076cc	e5933000	 ldr         r3, [r3]
  076d0	e2833004	 add         r3, r3, #4
  076d4	e59d0000	 ldr         r0, [sp]
  076d8	e5933000	 ldr         r3, [r3]
  076dc	e1a0e00f	 mov         lr, pc
  076e0	e12fff13	 bx          r3
  076e4	e58d000c	 str         r0, [sp, #0xC]
  076e8	e59d300c	 ldr         r3, [sp, #0xC]
  076ec	e58d3010	 str         r3, [sp, #0x10]
  076f0	ea000001	 b           |$LN6@UfnPdd_Dei|
  076f4		 |$LN5@UfnPdd_Dei|
  076f4	e3a03000	 mov         r3, #0
  076f8	e58d3010	 str         r3, [sp, #0x10]
  076fc		 |$LN6@UfnPdd_Dei|

; 1521 :         return ERROR_SUCCESS ;

  076fc	e3a03000	 mov         r3, #0
  07700	e58d3008	 str         r3, [sp, #8]
  07704	ea000002	 b           |$LN3@UfnPdd_Dei|

; 1522 :     }
; 1523 :     else

  07708	ea000001	 b           |$LN1@UfnPdd_Dei|
  0770c		 |$LN2@UfnPdd_Dei|

; 1524 :         return ERROR_INVALID_PARAMETER;;

  0770c	e3a03057	 mov         r3, #0x57
  07710	e58d3008	 str         r3, [sp, #8]
  07714		 |$LN1@UfnPdd_Dei|
  07714		 |$LN3@UfnPdd_Dei|

; 1525 : }

  07714	e59d0008	 ldr         r0, [sp, #8]
  07718	e28dd014	 add         sp, sp, #0x14
  0771c	e89d6000	 ldmia       sp, {sp, lr}
  07720	e12fff1e	 bx          lr
  07724		 |$M39857|

			 ENDP  ; |?UfnPdd_Deinit@@YAKPAX@Z|, UfnPdd_Deinit

	EXPORT	|?UfnPdd_IsConfigurationSupportable@@YAKPAXW4_UFN_BUS_SPEED@@PAU_UFN_CONFIGURATION@@@Z| ; UfnPdd_IsConfigurationSupportable

  001a8			 AREA	 |.pdata|, PDATA
|$T39865| DCD	|$LN5@UfnPdd_IsC|
	DCD	0x40000a04
; Function compile flags: /Odtp

  07724			 AREA	 |.text|, CODE, ARM

  07724		 |?UfnPdd_IsConfigurationSupportable@@YAKPAXW4_UFN_BUS_SPEED@@PAU_UFN_CONFIGURATION@@@Z| PROC ; UfnPdd_IsConfigurationSupportable

; 1535 : {

  07724		 |$LN5@UfnPdd_IsC|
  07724	e1a0c00d	 mov         r12, sp
  07728	e92d0007	 stmdb       sp!, {r0 - r2}
  0772c	e92d5000	 stmdb       sp!, {r12, lr}
  07730	e24dd004	 sub         sp, sp, #4
  07734		 |$M39862|

; 1536 :     // TODO: Need to do anything?
; 1537 :     return ERROR_SUCCESS;

  07734	e3a03000	 mov         r3, #0
  07738	e58d3000	 str         r3, [sp]

; 1538 : }

  0773c	e59d0000	 ldr         r0, [sp]
  07740	e28dd004	 add         sp, sp, #4
  07744	e89d6000	 ldmia       sp, {sp, lr}
  07748	e12fff1e	 bx          lr
  0774c		 |$M39863|

			 ENDP  ; |?UfnPdd_IsConfigurationSupportable@@YAKPAXW4_UFN_BUS_SPEED@@PAU_UFN_CONFIGURATION@@@Z|, UfnPdd_IsConfigurationSupportable

	EXPORT	|?UfnPdd_IsEndpointSupportable@@YAKPAXKW4_UFN_BUS_SPEED@@PAU_USB_ENDPOINT_DESCRIPTOR@@EEE@Z| ; UfnPdd_IsEndpointSupportable

  001b0			 AREA	 |.pdata|, PDATA
|$T39874| DCD	|$LN6@UfnPdd_IsE|
	DCD	0x40002b04
; Function compile flags: /Odtp

  0774c			 AREA	 |.text|, CODE, ARM

  0774c		 |?UfnPdd_IsEndpointSupportable@@YAKPAXKW4_UFN_BUS_SPEED@@PAU_USB_ENDPOINT_DESCRIPTOR@@EEE@Z| PROC ; UfnPdd_IsEndpointSupportable

; 1552 : {

  0774c		 |$LN6@UfnPdd_IsE|
  0774c	e1a0c00d	 mov         r12, sp
  07750	e92d000f	 stmdb       sp!, {r0 - r3}
  07754	e92d5010	 stmdb       sp!, {r4, r12, lr}
  07758	e24dd024	 sub         sp, sp, #0x24
  0775c		 |$M39871|

; 1553 :     // TODO: Use extra parameters
; 1554 :     
; 1555 :     DWORD dwError = ERROR_INVALID_PARAMETER;

  0775c	e3a03057	 mov         r3, #0x57
  07760	e58d300c	 str         r3, [sp, #0xC]

; 1556 :     if (pvPddContext) {

  07764	e59d3030	 ldr         r3, [sp, #0x30]
  07768	e3530000	 cmp         r3, #0
  0776c	0a00001b	 beq         |$LN1@UfnPdd_IsE|

; 1557 :         dwError =((BulUsbDevice *)pvPddContext)->IsEndpointSupportable( dwEndpoint, Speed, pEndpointDesc ,bConfigurationValue,bInterfaceNumber,bAlternateSetting );

  07770	e5dd3048	 ldrb        r3, [sp, #0x48]
  07774	e58d3008	 str         r3, [sp, #8]
  07778	e5dd3044	 ldrb        r3, [sp, #0x44]
  0777c	e58d3004	 str         r3, [sp, #4]
  07780	e5dd3040	 ldrb        r3, [sp, #0x40]
  07784	e58d3000	 str         r3, [sp]
  07788	e59d303c	 ldr         r3, [sp, #0x3C]
  0778c	e59d2038	 ldr         r2, [sp, #0x38]
  07790	e59d1034	 ldr         r1, [sp, #0x34]
  07794	e59d4030	 ldr         r4, [sp, #0x30]
  07798	e1d400d3	 ldrsb       r0, [r4, #3]
  0779c	e1a0e400	 mov         lr, r0, lsl #8
  077a0	e5d40002	 ldrb        r0, [r4, #2]
  077a4	e180000e	 orr         r0, r0, lr
  077a8	e1a0e400	 mov         lr, r0, lsl #8
  077ac	e5d40001	 ldrb        r0, [r4, #1]
  077b0	e180000e	 orr         r0, r0, lr
  077b4	e1a0e400	 mov         lr, r0, lsl #8
  077b8	e5d40000	 ldrb        r0, [r4]
  077bc	e180000e	 orr         r0, r0, lr
  077c0	e280e010	 add         lr, r0, #0x10
  077c4	e59d0030	 ldr         r0, [sp, #0x30]
  077c8	e59e4000	 ldr         r4, [lr]
  077cc	e1a0e00f	 mov         lr, pc
  077d0	e12fff14	 bx          r4
  077d4	e58d0020	 str         r0, [sp, #0x20]
  077d8	e59d3020	 ldr         r3, [sp, #0x20]
  077dc	e58d300c	 str         r3, [sp, #0xC]
  077e0		 |$LN1@UfnPdd_IsE|

; 1558 :     };
; 1559 :     return dwError;

  077e0	e59d300c	 ldr         r3, [sp, #0xC]
  077e4	e58d301c	 str         r3, [sp, #0x1C]

; 1560 : }

  077e8	e59d001c	 ldr         r0, [sp, #0x1C]
  077ec	e28dd024	 add         sp, sp, #0x24
  077f0	e89d6010	 ldmia       sp, {r4, sp, lr}
  077f4	e12fff1e	 bx          lr
  077f8		 |$M39872|

			 ENDP  ; |?UfnPdd_IsEndpointSupportable@@YAKPAXKW4_UFN_BUS_SPEED@@PAU_USB_ENDPOINT_DESCRIPTOR@@EEE@Z|, UfnPdd_IsEndpointSupportable

	EXPORT	|?UfnPdd_InitEndpoint@@YAKPAXKW4_UFN_BUS_SPEED@@PAU_USB_ENDPOINT_DESCRIPTOR@@0EEE@Z| ; UfnPdd_InitEndpoint

  001b8			 AREA	 |.pdata|, PDATA
|$T39883| DCD	|$LN6@UfnPdd_Ini|
	DCD	0x40002b04
; Function compile flags: /Odtp

  077f8			 AREA	 |.text|, CODE, ARM

  077f8		 |?UfnPdd_InitEndpoint@@YAKPAXKW4_UFN_BUS_SPEED@@PAU_USB_ENDPOINT_DESCRIPTOR@@0EEE@Z| PROC ; UfnPdd_InitEndpoint

; 1574 : {

  077f8		 |$LN6@UfnPdd_Ini|
  077f8	e1a0c00d	 mov         r12, sp
  077fc	e92d000f	 stmdb       sp!, {r0 - r3}
  07800	e92d5010	 stmdb       sp!, {r4, r12, lr}
  07804	e24dd024	 sub         sp, sp, #0x24
  07808		 |$M39880|

; 1575 :     DWORD dwError = ERROR_INVALID_PARAMETER;

  07808	e3a03057	 mov         r3, #0x57
  0780c	e58d300c	 str         r3, [sp, #0xC]

; 1576 :     if (pvPddContext) {

  07810	e59d3030	 ldr         r3, [sp, #0x30]
  07814	e3530000	 cmp         r3, #0
  07818	0a00001b	 beq         |$LN1@UfnPdd_Ini|

; 1577 :         dwError =((BulUsbDevice *)pvPddContext)->InitEndpoint( dwEndpoint, Speed, pEndpointDesc, bConfigurationValue,bInterfaceNumber,bAlternateSetting );

  0781c	e5dd304c	 ldrb        r3, [sp, #0x4C]
  07820	e58d3008	 str         r3, [sp, #8]
  07824	e5dd3048	 ldrb        r3, [sp, #0x48]
  07828	e58d3004	 str         r3, [sp, #4]
  0782c	e5dd3044	 ldrb        r3, [sp, #0x44]
  07830	e58d3000	 str         r3, [sp]
  07834	e59d303c	 ldr         r3, [sp, #0x3C]
  07838	e59d2038	 ldr         r2, [sp, #0x38]
  0783c	e59d1034	 ldr         r1, [sp, #0x34]
  07840	e59d4030	 ldr         r4, [sp, #0x30]
  07844	e1d400d3	 ldrsb       r0, [r4, #3]
  07848	e1a0e400	 mov         lr, r0, lsl #8
  0784c	e5d40002	 ldrb        r0, [r4, #2]
  07850	e180000e	 orr         r0, r0, lr
  07854	e1a0e400	 mov         lr, r0, lsl #8
  07858	e5d40001	 ldrb        r0, [r4, #1]
  0785c	e180000e	 orr         r0, r0, lr
  07860	e1a0e400	 mov         lr, r0, lsl #8
  07864	e5d40000	 ldrb        r0, [r4]
  07868	e180000e	 orr         r0, r0, lr
  0786c	e280e014	 add         lr, r0, #0x14
  07870	e59d0030	 ldr         r0, [sp, #0x30]
  07874	e59e4000	 ldr         r4, [lr]
  07878	e1a0e00f	 mov         lr, pc
  0787c	e12fff14	 bx          r4
  07880	e58d0020	 str         r0, [sp, #0x20]
  07884	e59d3020	 ldr         r3, [sp, #0x20]
  07888	e58d300c	 str         r3, [sp, #0xC]
  0788c		 |$LN1@UfnPdd_Ini|

; 1578 :     };
; 1579 :     return dwError;

  0788c	e59d300c	 ldr         r3, [sp, #0xC]
  07890	e58d301c	 str         r3, [sp, #0x1C]

; 1580 : }

  07894	e59d001c	 ldr         r0, [sp, #0x1C]
  07898	e28dd024	 add         sp, sp, #0x24
  0789c	e89d6010	 ldmia       sp, {r4, sp, lr}
  078a0	e12fff1e	 bx          lr
  078a4		 |$M39881|

			 ENDP  ; |?UfnPdd_InitEndpoint@@YAKPAXKW4_UFN_BUS_SPEED@@PAU_USB_ENDPOINT_DESCRIPTOR@@0EEE@Z|, UfnPdd_InitEndpoint

	EXPORT	|?UfnPdd_RegisterDevice@@YAKPAXPBU_USB_DEVICE_DESCRIPTOR@@PBU_UFN_CONFIGURATION@@PBU_USB_CONFIGURATION_DESCRIPTOR@@123PBU_UFN_STRING_SET@@K@Z| ; UfnPdd_RegisterDevice

  001c0			 AREA	 |.pdata|, PDATA
|$T39889| DCD	|$LN5@UfnPdd_Reg|
	DCD	0x40000a04
; Function compile flags: /Odtp

  078a4			 AREA	 |.text|, CODE, ARM

  078a4		 |?UfnPdd_RegisterDevice@@YAKPAXPBU_USB_DEVICE_DESCRIPTOR@@PBU_UFN_CONFIGURATION@@PBU_USB_CONFIGURATION_DESCRIPTOR@@123PBU_UFN_STRING_SET@@K@Z| PROC ; UfnPdd_RegisterDevice

; 1595 : {

  078a4		 |$LN5@UfnPdd_Reg|
  078a4	e1a0c00d	 mov         r12, sp
  078a8	e92d000f	 stmdb       sp!, {r0 - r3}
  078ac	e92d5000	 stmdb       sp!, {r12, lr}
  078b0	e24dd004	 sub         sp, sp, #4
  078b4		 |$M39886|

; 1596 :     return ERROR_SUCCESS;

  078b4	e3a03000	 mov         r3, #0
  078b8	e58d3000	 str         r3, [sp]

; 1597 : }

  078bc	e59d0000	 ldr         r0, [sp]
  078c0	e28dd004	 add         sp, sp, #4
  078c4	e89d6000	 ldmia       sp, {sp, lr}
  078c8	e12fff1e	 bx          lr
  078cc		 |$M39887|

			 ENDP  ; |?UfnPdd_RegisterDevice@@YAKPAXPBU_USB_DEVICE_DESCRIPTOR@@PBU_UFN_CONFIGURATION@@PBU_USB_CONFIGURATION_DESCRIPTOR@@123PBU_UFN_STRING_SET@@K@Z|, UfnPdd_RegisterDevice

	EXPORT	|?UfnPdd_DeregisterDevice@@YAKPAX@Z|	; UfnPdd_DeregisterDevice

  001c8			 AREA	 |.pdata|, PDATA
|$T39895| DCD	|$LN6@UfnPdd_Der|
	DCD	0x40001d04
; Function compile flags: /Odtp

  078cc			 AREA	 |.text|, CODE, ARM

  078cc		 |?UfnPdd_DeregisterDevice@@YAKPAX@Z| PROC ; UfnPdd_DeregisterDevice

; 1605 : {

  078cc		 |$LN6@UfnPdd_Der|
  078cc	e1a0c00d	 mov         r12, sp
  078d0	e92d0001	 stmdb       sp!, {r0}
  078d4	e92d5000	 stmdb       sp!, {r12, lr}
  078d8	e24dd004	 sub         sp, sp, #4
  078dc		 |$M39892|

; 1606 :     if (pvPddContext) {

  078dc	e59d300c	 ldr         r3, [sp, #0xC]
  078e0	e3530000	 cmp         r3, #0
  078e4	0a00000f	 beq         |$LN1@UfnPdd_Der|

; 1607 :         ((BulUsbDevice *)pvPddContext)->DeleteAllEndpoint();

  078e8	e59d100c	 ldr         r1, [sp, #0xC]
  078ec	e1d130d3	 ldrsb       r3, [r1, #3]
  078f0	e1a02403	 mov         r2, r3, lsl #8
  078f4	e5d13002	 ldrb        r3, [r1, #2]
  078f8	e1833002	 orr         r3, r3, r2
  078fc	e1a02403	 mov         r2, r3, lsl #8
  07900	e5d13001	 ldrb        r3, [r1, #1]
  07904	e1833002	 orr         r3, r3, r2
  07908	e1a02403	 mov         r2, r3, lsl #8
  0790c	e5d13000	 ldrb        r3, [r1]
  07910	e1833002	 orr         r3, r3, r2
  07914	e283300c	 add         r3, r3, #0xC
  07918	e59d000c	 ldr         r0, [sp, #0xC]
  0791c	e5933000	 ldr         r3, [r3]
  07920	e1a0e00f	 mov         lr, pc
  07924	e12fff13	 bx          r3
  07928		 |$LN1@UfnPdd_Der|

; 1608 :     };
; 1609 :     return ERROR_SUCCESS;

  07928	e3a03000	 mov         r3, #0
  0792c	e58d3000	 str         r3, [sp]

; 1610 : }

  07930	e59d0000	 ldr         r0, [sp]
  07934	e28dd004	 add         sp, sp, #4
  07938	e89d6000	 ldmia       sp, {sp, lr}
  0793c	e12fff1e	 bx          lr
  07940		 |$M39893|

			 ENDP  ; |?UfnPdd_DeregisterDevice@@YAKPAX@Z|, UfnPdd_DeregisterDevice

	EXPORT	|?UfnPdd_Start@@YAKPAX@Z|		; UfnPdd_Start

  001d0			 AREA	 |.pdata|, PDATA
|$T39901| DCD	|$LN6@UfnPdd_Sta|
	DCD	0x40002204
; Function compile flags: /Odtp

  07940			 AREA	 |.text|, CODE, ARM

  07940		 |?UfnPdd_Start@@YAKPAX@Z| PROC		; UfnPdd_Start

; 1618 : {

  07940		 |$LN6@UfnPdd_Sta|
  07940	e1a0c00d	 mov         r12, sp
  07944	e92d0001	 stmdb       sp!, {r0}
  07948	e92d5000	 stmdb       sp!, {r12, lr}
  0794c	e24dd00c	 sub         sp, sp, #0xC
  07950		 |$M39898|

; 1619 :     DWORD dwError = ERROR_INVALID_PARAMETER;

  07950	e3a03057	 mov         r3, #0x57
  07954	e58d3000	 str         r3, [sp]

; 1620 :     if (pvPddContext) {

  07958	e59d3014	 ldr         r3, [sp, #0x14]
  0795c	e3530000	 cmp         r3, #0
  07960	0a000012	 beq         |$LN1@UfnPdd_Sta|

; 1621 :         dwError =((BulUsbDevice *)pvPddContext)->Start();

  07964	e59d1014	 ldr         r1, [sp, #0x14]
  07968	e1d130d3	 ldrsb       r3, [r1, #3]
  0796c	e1a02403	 mov         r2, r3, lsl #8
  07970	e5d13002	 ldrb        r3, [r1, #2]
  07974	e1833002	 orr         r3, r3, r2
  07978	e1a02403	 mov         r2, r3, lsl #8
  0797c	e5d13001	 ldrb        r3, [r1, #1]
  07980	e1833002	 orr         r3, r3, r2
  07984	e1a02403	 mov         r2, r3, lsl #8
  07988	e5d13000	 ldrb        r3, [r1]
  0798c	e1833002	 orr         r3, r3, r2
  07990	e2833038	 add         r3, r3, #0x38
  07994	e59d0014	 ldr         r0, [sp, #0x14]
  07998	e5933000	 ldr         r3, [r3]
  0799c	e1a0e00f	 mov         lr, pc
  079a0	e12fff13	 bx          r3
  079a4	e58d0008	 str         r0, [sp, #8]
  079a8	e59d3008	 ldr         r3, [sp, #8]
  079ac	e58d3000	 str         r3, [sp]
  079b0		 |$LN1@UfnPdd_Sta|

; 1622 :     };
; 1623 :     return dwError;

  079b0	e59d3000	 ldr         r3, [sp]
  079b4	e58d3004	 str         r3, [sp, #4]

; 1624 : }

  079b8	e59d0004	 ldr         r0, [sp, #4]
  079bc	e28dd00c	 add         sp, sp, #0xC
  079c0	e89d6000	 ldmia       sp, {sp, lr}
  079c4	e12fff1e	 bx          lr
  079c8		 |$M39899|

			 ENDP  ; |?UfnPdd_Start@@YAKPAX@Z|, UfnPdd_Start

	EXPORT	|?UfnPdd_Stop@@YAKPAX@Z|		; UfnPdd_Stop

  001d8			 AREA	 |.pdata|, PDATA
|$T39907| DCD	|$LN6@UfnPdd_Sto|
	DCD	0x40002204
; Function compile flags: /Odtp

  079c8			 AREA	 |.text|, CODE, ARM

  079c8		 |?UfnPdd_Stop@@YAKPAX@Z| PROC		; UfnPdd_Stop

; 1631 : {

  079c8		 |$LN6@UfnPdd_Sto|
  079c8	e1a0c00d	 mov         r12, sp
  079cc	e92d0001	 stmdb       sp!, {r0}
  079d0	e92d5000	 stmdb       sp!, {r12, lr}
  079d4	e24dd00c	 sub         sp, sp, #0xC
  079d8		 |$M39904|

; 1632 :     DWORD dwError = ERROR_INVALID_PARAMETER;

  079d8	e3a03057	 mov         r3, #0x57
  079dc	e58d3000	 str         r3, [sp]

; 1633 :     if (pvPddContext) {

  079e0	e59d3014	 ldr         r3, [sp, #0x14]
  079e4	e3530000	 cmp         r3, #0
  079e8	0a000012	 beq         |$LN1@UfnPdd_Sto|

; 1634 :         dwError =((BulUsbDevice *)pvPddContext)->Stop();

  079ec	e59d1014	 ldr         r1, [sp, #0x14]
  079f0	e1d130d3	 ldrsb       r3, [r1, #3]
  079f4	e1a02403	 mov         r2, r3, lsl #8
  079f8	e5d13002	 ldrb        r3, [r1, #2]
  079fc	e1833002	 orr         r3, r3, r2
  07a00	e1a02403	 mov         r2, r3, lsl #8
  07a04	e5d13001	 ldrb        r3, [r1, #1]
  07a08	e1833002	 orr         r3, r3, r2
  07a0c	e1a02403	 mov         r2, r3, lsl #8
  07a10	e5d13000	 ldrb        r3, [r1]
  07a14	e1833002	 orr         r3, r3, r2
  07a18	e283303c	 add         r3, r3, #0x3C
  07a1c	e59d0014	 ldr         r0, [sp, #0x14]
  07a20	e5933000	 ldr         r3, [r3]
  07a24	e1a0e00f	 mov         lr, pc
  07a28	e12fff13	 bx          r3
  07a2c	e58d0008	 str         r0, [sp, #8]
  07a30	e59d3008	 ldr         r3, [sp, #8]
  07a34	e58d3000	 str         r3, [sp]
  07a38		 |$LN1@UfnPdd_Sto|

; 1635 :     };
; 1636 :     return dwError;

  07a38	e59d3000	 ldr         r3, [sp]
  07a3c	e58d3004	 str         r3, [sp, #4]

; 1637 : }

  07a40	e59d0004	 ldr         r0, [sp, #4]
  07a44	e28dd00c	 add         sp, sp, #0xC
  07a48	e89d6000	 ldmia       sp, {sp, lr}
  07a4c	e12fff1e	 bx          lr
  07a50		 |$M39905|

			 ENDP  ; |?UfnPdd_Stop@@YAKPAX@Z|, UfnPdd_Stop

	EXPORT	|?UfnPdd_IssueTransfer@@YAKPAXKPAU_STransfer@@@Z| ; UfnPdd_IssueTransfer

  001e0			 AREA	 |.pdata|, PDATA
|$T39913| DCD	|$LN6@UfnPdd_Iss|
	DCD	0x40002404
; Function compile flags: /Odtp

  07a50			 AREA	 |.text|, CODE, ARM

  07a50		 |?UfnPdd_IssueTransfer@@YAKPAXKPAU_STransfer@@@Z| PROC ; UfnPdd_IssueTransfer

; 1646 : {

  07a50		 |$LN6@UfnPdd_Iss|
  07a50	e1a0c00d	 mov         r12, sp
  07a54	e92d0007	 stmdb       sp!, {r0 - r2}
  07a58	e92d5000	 stmdb       sp!, {r12, lr}
  07a5c	e24dd00c	 sub         sp, sp, #0xC
  07a60		 |$M39910|

; 1647 :     DWORD dwError = ERROR_INVALID_PARAMETER;

  07a60	e3a03057	 mov         r3, #0x57
  07a64	e58d3000	 str         r3, [sp]

; 1648 :     if (pvPddContext) {

  07a68	e59d3014	 ldr         r3, [sp, #0x14]
  07a6c	e3530000	 cmp         r3, #0
  07a70	0a000014	 beq         |$LN1@UfnPdd_Iss|

; 1649 :         dwError =((BulUsbDevice *)pvPddContext)->IssueTransfer(dwEndpoint,pTransfer);

  07a74	e59d201c	 ldr         r2, [sp, #0x1C]
  07a78	e59d1018	 ldr         r1, [sp, #0x18]
  07a7c	e59de014	 ldr         lr, [sp, #0x14]
  07a80	e1de30d3	 ldrsb       r3, [lr, #3]
  07a84	e1a00403	 mov         r0, r3, lsl #8
  07a88	e5de3002	 ldrb        r3, [lr, #2]
  07a8c	e1833000	 orr         r3, r3, r0
  07a90	e1a00403	 mov         r0, r3, lsl #8
  07a94	e5de3001	 ldrb        r3, [lr, #1]
  07a98	e1833000	 orr         r3, r3, r0
  07a9c	e1a00403	 mov         r0, r3, lsl #8
  07aa0	e5de3000	 ldrb        r3, [lr]
  07aa4	e1833000	 orr         r3, r3, r0
  07aa8	e283302c	 add         r3, r3, #0x2C
  07aac	e59d0014	 ldr         r0, [sp, #0x14]
  07ab0	e5933000	 ldr         r3, [r3]
  07ab4	e1a0e00f	 mov         lr, pc
  07ab8	e12fff13	 bx          r3
  07abc	e58d0008	 str         r0, [sp, #8]
  07ac0	e59d3008	 ldr         r3, [sp, #8]
  07ac4	e58d3000	 str         r3, [sp]
  07ac8		 |$LN1@UfnPdd_Iss|

; 1650 :     };
; 1651 :     return dwError;

  07ac8	e59d3000	 ldr         r3, [sp]
  07acc	e58d3004	 str         r3, [sp, #4]

; 1652 : }

  07ad0	e59d0004	 ldr         r0, [sp, #4]
  07ad4	e28dd00c	 add         sp, sp, #0xC
  07ad8	e89d6000	 ldmia       sp, {sp, lr}
  07adc	e12fff1e	 bx          lr
  07ae0		 |$M39911|

			 ENDP  ; |?UfnPdd_IssueTransfer@@YAKPAXKPAU_STransfer@@@Z|, UfnPdd_IssueTransfer

	EXPORT	|?UfnPdd_AbortTransfer@@YAKPAXKPAU_STransfer@@@Z| ; UfnPdd_AbortTransfer

  001e8			 AREA	 |.pdata|, PDATA
|$T39919| DCD	|$LN6@UfnPdd_Abo|
	DCD	0x40002404
; Function compile flags: /Odtp

  07ae0			 AREA	 |.text|, CODE, ARM

  07ae0		 |?UfnPdd_AbortTransfer@@YAKPAXKPAU_STransfer@@@Z| PROC ; UfnPdd_AbortTransfer

; 1661 : {

  07ae0		 |$LN6@UfnPdd_Abo|
  07ae0	e1a0c00d	 mov         r12, sp
  07ae4	e92d0007	 stmdb       sp!, {r0 - r2}
  07ae8	e92d5000	 stmdb       sp!, {r12, lr}
  07aec	e24dd00c	 sub         sp, sp, #0xC
  07af0		 |$M39916|

; 1662 :     DWORD dwError = ERROR_INVALID_PARAMETER;

  07af0	e3a03057	 mov         r3, #0x57
  07af4	e58d3000	 str         r3, [sp]

; 1663 :     if (pvPddContext) {

  07af8	e59d3014	 ldr         r3, [sp, #0x14]
  07afc	e3530000	 cmp         r3, #0
  07b00	0a000014	 beq         |$LN1@UfnPdd_Abo|

; 1664 :         dwError =((BulUsbDevice *)pvPddContext)->AbortTransfer(dwEndpoint, pTransfer);

  07b04	e59d201c	 ldr         r2, [sp, #0x1C]
  07b08	e59d1018	 ldr         r1, [sp, #0x18]
  07b0c	e59de014	 ldr         lr, [sp, #0x14]
  07b10	e1de30d3	 ldrsb       r3, [lr, #3]
  07b14	e1a00403	 mov         r0, r3, lsl #8
  07b18	e5de3002	 ldrb        r3, [lr, #2]
  07b1c	e1833000	 orr         r3, r3, r0
  07b20	e1a00403	 mov         r0, r3, lsl #8
  07b24	e5de3001	 ldrb        r3, [lr, #1]
  07b28	e1833000	 orr         r3, r3, r0
  07b2c	e1a00403	 mov         r0, r3, lsl #8
  07b30	e5de3000	 ldrb        r3, [lr]
  07b34	e1833000	 orr         r3, r3, r0
  07b38	e2833030	 add         r3, r3, #0x30
  07b3c	e59d0014	 ldr         r0, [sp, #0x14]
  07b40	e5933000	 ldr         r3, [r3]
  07b44	e1a0e00f	 mov         lr, pc
  07b48	e12fff13	 bx          r3
  07b4c	e58d0008	 str         r0, [sp, #8]
  07b50	e59d3008	 ldr         r3, [sp, #8]
  07b54	e58d3000	 str         r3, [sp]
  07b58		 |$LN1@UfnPdd_Abo|

; 1665 :     };
; 1666 :     return dwError;

  07b58	e59d3000	 ldr         r3, [sp]
  07b5c	e58d3004	 str         r3, [sp, #4]

; 1667 : }

  07b60	e59d0004	 ldr         r0, [sp, #4]
  07b64	e28dd00c	 add         sp, sp, #0xC
  07b68	e89d6000	 ldmia       sp, {sp, lr}
  07b6c	e12fff1e	 bx          lr
  07b70		 |$M39917|

			 ENDP  ; |?UfnPdd_AbortTransfer@@YAKPAXKPAU_STransfer@@@Z|, UfnPdd_AbortTransfer

	EXPORT	|?UfnPdd_DeinitEndpoint@@YAKPAXK@Z|	; UfnPdd_DeinitEndpoint

  001f0			 AREA	 |.pdata|, PDATA
|$T39925| DCD	|$LN6@UfnPdd_Dei@2|
	DCD	0x40002304
; Function compile flags: /Odtp

  07b70			 AREA	 |.text|, CODE, ARM

  07b70		 |?UfnPdd_DeinitEndpoint@@YAKPAXK@Z| PROC ; UfnPdd_DeinitEndpoint

; 1675 : {

  07b70		 |$LN6@UfnPdd_Dei@2|
  07b70	e1a0c00d	 mov         r12, sp
  07b74	e92d0003	 stmdb       sp!, {r0, r1}
  07b78	e92d5000	 stmdb       sp!, {r12, lr}
  07b7c	e24dd00c	 sub         sp, sp, #0xC
  07b80		 |$M39922|

; 1676 :     DWORD dwError = ERROR_INVALID_PARAMETER;

  07b80	e3a03057	 mov         r3, #0x57
  07b84	e58d3000	 str         r3, [sp]

; 1677 :     if (pvPddContext) {

  07b88	e59d3014	 ldr         r3, [sp, #0x14]
  07b8c	e3530000	 cmp         r3, #0
  07b90	0a000013	 beq         |$LN1@UfnPdd_Dei@2|

; 1678 :         dwError =((BulUsbDevice *)pvPddContext)->DeinitEndpoint(dwEndpoint);

  07b94	e59d1018	 ldr         r1, [sp, #0x18]
  07b98	e59d0014	 ldr         r0, [sp, #0x14]
  07b9c	e1d030d3	 ldrsb       r3, [r0, #3]
  07ba0	e1a02403	 mov         r2, r3, lsl #8
  07ba4	e5d03002	 ldrb        r3, [r0, #2]
  07ba8	e1833002	 orr         r3, r3, r2
  07bac	e1a02403	 mov         r2, r3, lsl #8
  07bb0	e5d03001	 ldrb        r3, [r0, #1]
  07bb4	e1833002	 orr         r3, r3, r2
  07bb8	e1a02403	 mov         r2, r3, lsl #8
  07bbc	e5d03000	 ldrb        r3, [r0]
  07bc0	e1833002	 orr         r3, r3, r2
  07bc4	e2833018	 add         r3, r3, #0x18
  07bc8	e59d0014	 ldr         r0, [sp, #0x14]
  07bcc	e5933000	 ldr         r3, [r3]
  07bd0	e1a0e00f	 mov         lr, pc
  07bd4	e12fff13	 bx          r3
  07bd8	e58d0008	 str         r0, [sp, #8]
  07bdc	e59d3008	 ldr         r3, [sp, #8]
  07be0	e58d3000	 str         r3, [sp]
  07be4		 |$LN1@UfnPdd_Dei@2|

; 1679 :     };
; 1680 :     return dwError;

  07be4	e59d3000	 ldr         r3, [sp]
  07be8	e58d3004	 str         r3, [sp, #4]

; 1681 : }

  07bec	e59d0004	 ldr         r0, [sp, #4]
  07bf0	e28dd00c	 add         sp, sp, #0xC
  07bf4	e89d6000	 ldmia       sp, {sp, lr}
  07bf8	e12fff1e	 bx          lr
  07bfc		 |$M39923|

			 ENDP  ; |?UfnPdd_DeinitEndpoint@@YAKPAXK@Z|, UfnPdd_DeinitEndpoint

	EXPORT	|?UfnPdd_StallEndpoint@@YAKPAXK@Z|	; UfnPdd_StallEndpoint

  001f8			 AREA	 |.pdata|, PDATA
|$T39931| DCD	|$LN6@UfnPdd_Sta@2|
	DCD	0x40002304
; Function compile flags: /Odtp

  07bfc			 AREA	 |.text|, CODE, ARM

  07bfc		 |?UfnPdd_StallEndpoint@@YAKPAXK@Z| PROC ; UfnPdd_StallEndpoint

; 1689 : {

  07bfc		 |$LN6@UfnPdd_Sta@2|
  07bfc	e1a0c00d	 mov         r12, sp
  07c00	e92d0003	 stmdb       sp!, {r0, r1}
  07c04	e92d5000	 stmdb       sp!, {r12, lr}
  07c08	e24dd00c	 sub         sp, sp, #0xC
  07c0c		 |$M39928|

; 1690 :     DWORD dwError = ERROR_INVALID_PARAMETER;

  07c0c	e3a03057	 mov         r3, #0x57
  07c10	e58d3000	 str         r3, [sp]

; 1691 :     if (pvPddContext) {

  07c14	e59d3014	 ldr         r3, [sp, #0x14]
  07c18	e3530000	 cmp         r3, #0
  07c1c	0a000013	 beq         |$LN1@UfnPdd_Sta@2|

; 1692 :         dwError =((BulUsbDevice *)pvPddContext)->StallEndpoint(dwEndpoint);

  07c20	e59d1018	 ldr         r1, [sp, #0x18]
  07c24	e59d0014	 ldr         r0, [sp, #0x14]
  07c28	e1d030d3	 ldrsb       r3, [r0, #3]
  07c2c	e1a02403	 mov         r2, r3, lsl #8
  07c30	e5d03002	 ldrb        r3, [r0, #2]
  07c34	e1833002	 orr         r3, r3, r2
  07c38	e1a02403	 mov         r2, r3, lsl #8
  07c3c	e5d03001	 ldrb        r3, [r0, #1]
  07c40	e1833002	 orr         r3, r3, r2
  07c44	e1a02403	 mov         r2, r3, lsl #8
  07c48	e5d03000	 ldrb        r3, [r0]
  07c4c	e1833002	 orr         r3, r3, r2
  07c50	e283301c	 add         r3, r3, #0x1C
  07c54	e59d0014	 ldr         r0, [sp, #0x14]
  07c58	e5933000	 ldr         r3, [r3]
  07c5c	e1a0e00f	 mov         lr, pc
  07c60	e12fff13	 bx          r3
  07c64	e58d0008	 str         r0, [sp, #8]
  07c68	e59d3008	 ldr         r3, [sp, #8]
  07c6c	e58d3000	 str         r3, [sp]
  07c70		 |$LN1@UfnPdd_Sta@2|

; 1693 :     };
; 1694 :     return dwError;

  07c70	e59d3000	 ldr         r3, [sp]
  07c74	e58d3004	 str         r3, [sp, #4]

; 1695 : }

  07c78	e59d0004	 ldr         r0, [sp, #4]
  07c7c	e28dd00c	 add         sp, sp, #0xC
  07c80	e89d6000	 ldmia       sp, {sp, lr}
  07c84	e12fff1e	 bx          lr
  07c88		 |$M39929|

			 ENDP  ; |?UfnPdd_StallEndpoint@@YAKPAXK@Z|, UfnPdd_StallEndpoint

	EXPORT	|?UfnPdd_ClearEndpointStall@@YAKPAXK@Z|	; UfnPdd_ClearEndpointStall

  00200			 AREA	 |.pdata|, PDATA
|$T39937| DCD	|$LN6@UfnPdd_Cle|
	DCD	0x40002304
; Function compile flags: /Odtp

  07c88			 AREA	 |.text|, CODE, ARM

  07c88		 |?UfnPdd_ClearEndpointStall@@YAKPAXK@Z| PROC ; UfnPdd_ClearEndpointStall

; 1703 : {

  07c88		 |$LN6@UfnPdd_Cle|
  07c88	e1a0c00d	 mov         r12, sp
  07c8c	e92d0003	 stmdb       sp!, {r0, r1}
  07c90	e92d5000	 stmdb       sp!, {r12, lr}
  07c94	e24dd00c	 sub         sp, sp, #0xC
  07c98		 |$M39934|

; 1704 :     DWORD dwError = ERROR_INVALID_PARAMETER;

  07c98	e3a03057	 mov         r3, #0x57
  07c9c	e58d3000	 str         r3, [sp]

; 1705 :     if (pvPddContext) {

  07ca0	e59d3014	 ldr         r3, [sp, #0x14]
  07ca4	e3530000	 cmp         r3, #0
  07ca8	0a000013	 beq         |$LN1@UfnPdd_Cle|

; 1706 :         dwError =((BulUsbDevice *)pvPddContext)->ClearEndpointStall(dwEndpoint);

  07cac	e59d1018	 ldr         r1, [sp, #0x18]
  07cb0	e59d0014	 ldr         r0, [sp, #0x14]
  07cb4	e1d030d3	 ldrsb       r3, [r0, #3]
  07cb8	e1a02403	 mov         r2, r3, lsl #8
  07cbc	e5d03002	 ldrb        r3, [r0, #2]
  07cc0	e1833002	 orr         r3, r3, r2
  07cc4	e1a02403	 mov         r2, r3, lsl #8
  07cc8	e5d03001	 ldrb        r3, [r0, #1]
  07ccc	e1833002	 orr         r3, r3, r2
  07cd0	e1a02403	 mov         r2, r3, lsl #8
  07cd4	e5d03000	 ldrb        r3, [r0]
  07cd8	e1833002	 orr         r3, r3, r2
  07cdc	e2833020	 add         r3, r3, #0x20
  07ce0	e59d0014	 ldr         r0, [sp, #0x14]
  07ce4	e5933000	 ldr         r3, [r3]
  07ce8	e1a0e00f	 mov         lr, pc
  07cec	e12fff13	 bx          r3
  07cf0	e58d0008	 str         r0, [sp, #8]
  07cf4	e59d3008	 ldr         r3, [sp, #8]
  07cf8	e58d3000	 str         r3, [sp]
  07cfc		 |$LN1@UfnPdd_Cle|

; 1707 :     };
; 1708 :     return dwError;

  07cfc	e59d3000	 ldr         r3, [sp]
  07d00	e58d3004	 str         r3, [sp, #4]

; 1709 : }

  07d04	e59d0004	 ldr         r0, [sp, #4]
  07d08	e28dd00c	 add         sp, sp, #0xC
  07d0c	e89d6000	 ldmia       sp, {sp, lr}
  07d10	e12fff1e	 bx          lr
  07d14		 |$M39935|

			 ENDP  ; |?UfnPdd_ClearEndpointStall@@YAKPAXK@Z|, UfnPdd_ClearEndpointStall

	EXPORT	|?UfnPdd_SendControlStatusHandshake@@YAKPAXK@Z| ; UfnPdd_SendControlStatusHandshake

  00208			 AREA	 |.pdata|, PDATA
|$T39943| DCD	|$LN6@UfnPdd_Sen|
	DCD	0x40002304
; Function compile flags: /Odtp

  07d14			 AREA	 |.text|, CODE, ARM

  07d14		 |?UfnPdd_SendControlStatusHandshake@@YAKPAXK@Z| PROC ; UfnPdd_SendControlStatusHandshake

; 1717 : {

  07d14		 |$LN6@UfnPdd_Sen|
  07d14	e1a0c00d	 mov         r12, sp
  07d18	e92d0003	 stmdb       sp!, {r0, r1}
  07d1c	e92d5000	 stmdb       sp!, {r12, lr}
  07d20	e24dd00c	 sub         sp, sp, #0xC
  07d24		 |$M39940|

; 1718 :     DWORD dwError = ERROR_INVALID_PARAMETER;

  07d24	e3a03057	 mov         r3, #0x57
  07d28	e58d3000	 str         r3, [sp]

; 1719 :     if (pvPddContext) {

  07d2c	e59d3014	 ldr         r3, [sp, #0x14]
  07d30	e3530000	 cmp         r3, #0
  07d34	0a000013	 beq         |$LN1@UfnPdd_Sen|

; 1720 :         dwError =((BulUsbDevice *)pvPddContext)->SendControlStatusHandshake(dwEndpoint);

  07d38	e59d1018	 ldr         r1, [sp, #0x18]
  07d3c	e59d0014	 ldr         r0, [sp, #0x14]
  07d40	e1d030d3	 ldrsb       r3, [r0, #3]
  07d44	e1a02403	 mov         r2, r3, lsl #8
  07d48	e5d03002	 ldrb        r3, [r0, #2]
  07d4c	e1833002	 orr         r3, r3, r2
  07d50	e1a02403	 mov         r2, r3, lsl #8
  07d54	e5d03001	 ldrb        r3, [r0, #1]
  07d58	e1833002	 orr         r3, r3, r2
  07d5c	e1a02403	 mov         r2, r3, lsl #8
  07d60	e5d03000	 ldrb        r3, [r0]
  07d64	e1833002	 orr         r3, r3, r2
  07d68	e2833034	 add         r3, r3, #0x34
  07d6c	e59d0014	 ldr         r0, [sp, #0x14]
  07d70	e5933000	 ldr         r3, [r3]
  07d74	e1a0e00f	 mov         lr, pc
  07d78	e12fff13	 bx          r3
  07d7c	e58d0008	 str         r0, [sp, #8]
  07d80	e59d3008	 ldr         r3, [sp, #8]
  07d84	e58d3000	 str         r3, [sp]
  07d88		 |$LN1@UfnPdd_Sen|

; 1721 :     };
; 1722 :     return dwError;

  07d88	e59d3000	 ldr         r3, [sp]
  07d8c	e58d3004	 str         r3, [sp, #4]

; 1723 : }

  07d90	e59d0004	 ldr         r0, [sp, #4]
  07d94	e28dd00c	 add         sp, sp, #0xC
  07d98	e89d6000	 ldmia       sp, {sp, lr}
  07d9c	e12fff1e	 bx          lr
  07da0		 |$M39941|

			 ENDP  ; |?UfnPdd_SendControlStatusHandshake@@YAKPAXK@Z|, UfnPdd_SendControlStatusHandshake

	EXPORT	|?UfnPdd_SetAddress@@YAKPAXE@Z|		; UfnPdd_SetAddress

  00210			 AREA	 |.pdata|, PDATA
|$T39949| DCD	|$LN6@UfnPdd_Set|
	DCD	0x40002304
; Function compile flags: /Odtp

  07da0			 AREA	 |.text|, CODE, ARM

  07da0		 |?UfnPdd_SetAddress@@YAKPAXE@Z| PROC	; UfnPdd_SetAddress

; 1731 : {

  07da0		 |$LN6@UfnPdd_Set|
  07da0	e1a0c00d	 mov         r12, sp
  07da4	e92d0003	 stmdb       sp!, {r0, r1}
  07da8	e92d5000	 stmdb       sp!, {r12, lr}
  07dac	e24dd00c	 sub         sp, sp, #0xC
  07db0		 |$M39946|

; 1732 :     DWORD dwError = ERROR_INVALID_PARAMETER;

  07db0	e3a03057	 mov         r3, #0x57
  07db4	e58d3000	 str         r3, [sp]

; 1733 :     if (pvPddContext) {

  07db8	e59d3014	 ldr         r3, [sp, #0x14]
  07dbc	e3530000	 cmp         r3, #0
  07dc0	0a000013	 beq         |$LN1@UfnPdd_Set|

; 1734 :         dwError =((BulUsbDevice *)pvPddContext)->SetAddress(bAddress);

  07dc4	e5dd1018	 ldrb        r1, [sp, #0x18]
  07dc8	e59d0014	 ldr         r0, [sp, #0x14]
  07dcc	e1d030d3	 ldrsb       r3, [r0, #3]
  07dd0	e1a02403	 mov         r2, r3, lsl #8
  07dd4	e5d03002	 ldrb        r3, [r0, #2]
  07dd8	e1833002	 orr         r3, r3, r2
  07ddc	e1a02403	 mov         r2, r3, lsl #8
  07de0	e5d03001	 ldrb        r3, [r0, #1]
  07de4	e1833002	 orr         r3, r3, r2
  07de8	e1a02403	 mov         r2, r3, lsl #8
  07dec	e5d03000	 ldrb        r3, [r0]
  07df0	e1833002	 orr         r3, r3, r2
  07df4	e2833044	 add         r3, r3, #0x44
  07df8	e59d0014	 ldr         r0, [sp, #0x14]
  07dfc	e5933000	 ldr         r3, [r3]
  07e00	e1a0e00f	 mov         lr, pc
  07e04	e12fff13	 bx          r3
  07e08	e58d0008	 str         r0, [sp, #8]
  07e0c	e59d3008	 ldr         r3, [sp, #8]
  07e10	e58d3000	 str         r3, [sp]
  07e14		 |$LN1@UfnPdd_Set|

; 1735 :     };
; 1736 :     return dwError;

  07e14	e59d3000	 ldr         r3, [sp]
  07e18	e58d3004	 str         r3, [sp, #4]

; 1737 : 
; 1738 : }

  07e1c	e59d0004	 ldr         r0, [sp, #4]
  07e20	e28dd00c	 add         sp, sp, #0xC
  07e24	e89d6000	 ldmia       sp, {sp, lr}
  07e28	e12fff1e	 bx          lr
  07e2c		 |$M39947|

			 ENDP  ; |?UfnPdd_SetAddress@@YAKPAXE@Z|, UfnPdd_SetAddress

	EXPORT	|?UfnPdd_IsEndpointHalted@@YAKPAXKPAH@Z| ; UfnPdd_IsEndpointHalted

  00218			 AREA	 |.pdata|, PDATA
|$T39955| DCD	|$LN6@UfnPdd_IsE@2|
	DCD	0x40002404
; Function compile flags: /Odtp

  07e2c			 AREA	 |.text|, CODE, ARM

  07e2c		 |?UfnPdd_IsEndpointHalted@@YAKPAXKPAH@Z| PROC ; UfnPdd_IsEndpointHalted

; 1747 : {

  07e2c		 |$LN6@UfnPdd_IsE@2|
  07e2c	e1a0c00d	 mov         r12, sp
  07e30	e92d0007	 stmdb       sp!, {r0 - r2}
  07e34	e92d5000	 stmdb       sp!, {r12, lr}
  07e38	e24dd00c	 sub         sp, sp, #0xC
  07e3c		 |$M39952|

; 1748 :     DWORD dwError = ERROR_INVALID_PARAMETER;

  07e3c	e3a03057	 mov         r3, #0x57
  07e40	e58d3000	 str         r3, [sp]

; 1749 :     if (pvPddContext) {

  07e44	e59d3014	 ldr         r3, [sp, #0x14]
  07e48	e3530000	 cmp         r3, #0
  07e4c	0a000014	 beq         |$LN1@UfnPdd_IsE@2|

; 1750 :         dwError =((BulUsbDevice *)pvPddContext)->IsEndpointHalted(dwEndpoint,pfHalted);

  07e50	e59d201c	 ldr         r2, [sp, #0x1C]
  07e54	e59d1018	 ldr         r1, [sp, #0x18]
  07e58	e59de014	 ldr         lr, [sp, #0x14]
  07e5c	e1de30d3	 ldrsb       r3, [lr, #3]
  07e60	e1a00403	 mov         r0, r3, lsl #8
  07e64	e5de3002	 ldrb        r3, [lr, #2]
  07e68	e1833000	 orr         r3, r3, r0
  07e6c	e1a00403	 mov         r0, r3, lsl #8
  07e70	e5de3001	 ldrb        r3, [lr, #1]
  07e74	e1833000	 orr         r3, r3, r0
  07e78	e1a00403	 mov         r0, r3, lsl #8
  07e7c	e5de3000	 ldrb        r3, [lr]
  07e80	e1833000	 orr         r3, r3, r0
  07e84	e2833028	 add         r3, r3, #0x28
  07e88	e59d0014	 ldr         r0, [sp, #0x14]
  07e8c	e5933000	 ldr         r3, [r3]
  07e90	e1a0e00f	 mov         lr, pc
  07e94	e12fff13	 bx          r3
  07e98	e58d0008	 str         r0, [sp, #8]
  07e9c	e59d3008	 ldr         r3, [sp, #8]
  07ea0	e58d3000	 str         r3, [sp]
  07ea4		 |$LN1@UfnPdd_IsE@2|

; 1751 :     };
; 1752 :     return dwError;

  07ea4	e59d3000	 ldr         r3, [sp]
  07ea8	e58d3004	 str         r3, [sp, #4]

; 1753 : }

  07eac	e59d0004	 ldr         r0, [sp, #4]
  07eb0	e28dd00c	 add         sp, sp, #0xC
  07eb4	e89d6000	 ldmia       sp, {sp, lr}
  07eb8	e12fff1e	 bx          lr
  07ebc		 |$M39953|

			 ENDP  ; |?UfnPdd_IsEndpointHalted@@YAKPAXKPAH@Z|, UfnPdd_IsEndpointHalted

	EXPORT	|?UfnPdd_InitiateRemoteWakeup@@YAKPAX@Z| ; UfnPdd_InitiateRemoteWakeup

  00220			 AREA	 |.pdata|, PDATA
|$T39961| DCD	|$LN5@UfnPdd_Ini@2|
	DCD	0x40000a04
; Function compile flags: /Odtp

  07ebc			 AREA	 |.text|, CODE, ARM

  07ebc		 |?UfnPdd_InitiateRemoteWakeup@@YAKPAX@Z| PROC ; UfnPdd_InitiateRemoteWakeup

; 1761 : {

  07ebc		 |$LN5@UfnPdd_Ini@2|
  07ebc	e1a0c00d	 mov         r12, sp
  07ec0	e92d0001	 stmdb       sp!, {r0}
  07ec4	e92d5000	 stmdb       sp!, {r12, lr}
  07ec8	e24dd004	 sub         sp, sp, #4
  07ecc		 |$M39958|

; 1762 :     // TODO: Fill in
; 1763 : 
; 1764 :     return ERROR_SUCCESS;

  07ecc	e3a03000	 mov         r3, #0
  07ed0	e58d3000	 str         r3, [sp]

; 1765 : }

  07ed4	e59d0000	 ldr         r0, [sp]
  07ed8	e28dd004	 add         sp, sp, #4
  07edc	e89d6000	 ldmia       sp, {sp, lr}
  07ee0	e12fff1e	 bx          lr
  07ee4		 |$M39959|

			 ENDP  ; |?UfnPdd_InitiateRemoteWakeup@@YAKPAX@Z|, UfnPdd_InitiateRemoteWakeup

	EXPORT	|?UfnPdd_PowerDown@@YAXPAX@Z|		; UfnPdd_PowerDown

  00228			 AREA	 |.pdata|, PDATA
|$T39966| DCD	|$LN6@UfnPdd_Pow|
	DCD	0x40001803
; Function compile flags: /Odtp

  07ee4			 AREA	 |.text|, CODE, ARM

  07ee4		 |?UfnPdd_PowerDown@@YAXPAX@Z| PROC	; UfnPdd_PowerDown

; 1773 : {

  07ee4		 |$LN6@UfnPdd_Pow|
  07ee4	e1a0c00d	 mov         r12, sp
  07ee8	e92d0001	 stmdb       sp!, {r0}
  07eec	e92d5000	 stmdb       sp!, {r12, lr}
  07ef0		 |$M39963|

; 1774 :     if (pvPddContext) {

  07ef0	e59d3008	 ldr         r3, [sp, #8]
  07ef4	e3530000	 cmp         r3, #0
  07ef8	0a00000f	 beq         |$LN1@UfnPdd_Pow|

; 1775 :         ((BulUsbDevice *)pvPddContext)->PowerDown();

  07efc	e59d1008	 ldr         r1, [sp, #8]
  07f00	e1d130d3	 ldrsb       r3, [r1, #3]
  07f04	e1a02403	 mov         r2, r3, lsl #8
  07f08	e5d13002	 ldrb        r3, [r1, #2]
  07f0c	e1833002	 orr         r3, r3, r2
  07f10	e1a02403	 mov         r2, r3, lsl #8
  07f14	e5d13001	 ldrb        r3, [r1, #1]
  07f18	e1833002	 orr         r3, r3, r2
  07f1c	e1a02403	 mov         r2, r3, lsl #8
  07f20	e5d13000	 ldrb        r3, [r1]
  07f24	e1833002	 orr         r3, r3, r2
  07f28	e2833048	 add         r3, r3, #0x48
  07f2c	e59d0008	 ldr         r0, [sp, #8]
  07f30	e5933000	 ldr         r3, [r3]
  07f34	e1a0e00f	 mov         lr, pc
  07f38	e12fff13	 bx          r3
  07f3c		 |$LN1@UfnPdd_Pow|

; 1776 :     };
; 1777 : }

  07f3c	e89d6000	 ldmia       sp, {sp, lr}
  07f40	e12fff1e	 bx          lr
  07f44		 |$M39964|

			 ENDP  ; |?UfnPdd_PowerDown@@YAXPAX@Z|, UfnPdd_PowerDown

	EXPORT	|?UfnPdd_PowerUp@@YAXPAX@Z|		; UfnPdd_PowerUp

  00230			 AREA	 |.pdata|, PDATA
|$T39971| DCD	|$LN6@UfnPdd_Pow@2|
	DCD	0x40001803
; Function compile flags: /Odtp

  07f44			 AREA	 |.text|, CODE, ARM

  07f44		 |?UfnPdd_PowerUp@@YAXPAX@Z| PROC	; UfnPdd_PowerUp

; 1784 : {

  07f44		 |$LN6@UfnPdd_Pow@2|
  07f44	e1a0c00d	 mov         r12, sp
  07f48	e92d0001	 stmdb       sp!, {r0}
  07f4c	e92d5000	 stmdb       sp!, {r12, lr}
  07f50		 |$M39968|

; 1785 :     if (pvPddContext) {

  07f50	e59d3008	 ldr         r3, [sp, #8]
  07f54	e3530000	 cmp         r3, #0
  07f58	0a00000f	 beq         |$LN1@UfnPdd_Pow@2|

; 1786 :         ((BulUsbDevice *)pvPddContext)->PowerUp();

  07f5c	e59d1008	 ldr         r1, [sp, #8]
  07f60	e1d130d3	 ldrsb       r3, [r1, #3]
  07f64	e1a02403	 mov         r2, r3, lsl #8
  07f68	e5d13002	 ldrb        r3, [r1, #2]
  07f6c	e1833002	 orr         r3, r3, r2
  07f70	e1a02403	 mov         r2, r3, lsl #8
  07f74	e5d13001	 ldrb        r3, [r1, #1]
  07f78	e1833002	 orr         r3, r3, r2
  07f7c	e1a02403	 mov         r2, r3, lsl #8
  07f80	e5d13000	 ldrb        r3, [r1]
  07f84	e1833002	 orr         r3, r3, r2
  07f88	e283304c	 add         r3, r3, #0x4C
  07f8c	e59d0008	 ldr         r0, [sp, #8]
  07f90	e5933000	 ldr         r3, [r3]
  07f94	e1a0e00f	 mov         lr, pc
  07f98	e12fff13	 bx          r3
  07f9c		 |$LN1@UfnPdd_Pow@2|

; 1787 :     };
; 1788 : }

  07f9c	e89d6000	 ldmia       sp, {sp, lr}
  07fa0	e12fff1e	 bx          lr
  07fa4		 |$M39969|

			 ENDP  ; |?UfnPdd_PowerUp@@YAXPAX@Z|, UfnPdd_PowerUp

	EXPORT	|?UfnPdd_IOControl@@YAKPAXW4_IOCTL_SOURCE@@KPAEK2KPAK@Z| ; UfnPdd_IOControl

  00238			 AREA	 |.pdata|, PDATA
|$T39981| DCD	|$LN6@UfnPdd_IOC|
	DCD	0x40002d04
; Function compile flags: /Odtp

  07fa4			 AREA	 |.text|, CODE, ARM

  07fa4		 |?UfnPdd_IOControl@@YAKPAXW4_IOCTL_SOURCE@@KPAEK2KPAK@Z| PROC ; UfnPdd_IOControl

; 1805 : {

  07fa4		 |$LN6@UfnPdd_IOC|
  07fa4	e1a0c00d	 mov         r12, sp
  07fa8	e92d000f	 stmdb       sp!, {r0 - r3}
  07fac	e92d5010	 stmdb       sp!, {r4, r12, lr}
  07fb0	e24dd02c	 sub         sp, sp, #0x2C
  07fb4		 |$M39978|

; 1806 :     DWORD dwError = ERROR_INVALID_PARAMETER;

  07fb4	e3a03057	 mov         r3, #0x57
  07fb8	e58d3010	 str         r3, [sp, #0x10]

; 1807 :     if (pvPddContext) {

  07fbc	e59d3038	 ldr         r3, [sp, #0x38]
  07fc0	e3530000	 cmp         r3, #0
  07fc4	0a00001d	 beq         |$LN1@UfnPdd_IOC|

; 1808 :         dwError =((BulUsbDevice *)pvPddContext)->IOControl(source, dwCode, pbInBuf, cbInBuf, pbOutBuf,  cbOutBuf, pcbActualOutBuf);

  07fc8	e59d3054	 ldr         r3, [sp, #0x54]
  07fcc	e58d300c	 str         r3, [sp, #0xC]
  07fd0	e59d3050	 ldr         r3, [sp, #0x50]
  07fd4	e58d3008	 str         r3, [sp, #8]
  07fd8	e59d304c	 ldr         r3, [sp, #0x4C]
  07fdc	e58d3004	 str         r3, [sp, #4]
  07fe0	e59d3048	 ldr         r3, [sp, #0x48]
  07fe4	e58d3000	 str         r3, [sp]
  07fe8	e59d3044	 ldr         r3, [sp, #0x44]
  07fec	e59d2040	 ldr         r2, [sp, #0x40]
  07ff0	e59d103c	 ldr         r1, [sp, #0x3C]
  07ff4	e59d4038	 ldr         r4, [sp, #0x38]
  07ff8	e1d400d3	 ldrsb       r0, [r4, #3]
  07ffc	e1a0e400	 mov         lr, r0, lsl #8
  08000	e5d40002	 ldrb        r0, [r4, #2]
  08004	e180000e	 orr         r0, r0, lr
  08008	e1a0e400	 mov         lr, r0, lsl #8
  0800c	e5d40001	 ldrb        r0, [r4, #1]
  08010	e180000e	 orr         r0, r0, lr
  08014	e1a0e400	 mov         lr, r0, lsl #8
  08018	e5d40000	 ldrb        r0, [r4]
  0801c	e180000e	 orr         r0, r0, lr
  08020	e280e054	 add         lr, r0, #0x54
  08024	e59d0038	 ldr         r0, [sp, #0x38]
  08028	e59e4000	 ldr         r4, [lr]
  0802c	e1a0e00f	 mov         lr, pc
  08030	e12fff14	 bx          r4
  08034	e58d0028	 str         r0, [sp, #0x28]
  08038	e59d3028	 ldr         r3, [sp, #0x28]
  0803c	e58d3010	 str         r3, [sp, #0x10]
  08040		 |$LN1@UfnPdd_IOC|

; 1809 :     };
; 1810 :     return dwError;

  08040	e59d3010	 ldr         r3, [sp, #0x10]
  08044	e58d3024	 str         r3, [sp, #0x24]

; 1811 : }

  08048	e59d0024	 ldr         r0, [sp, #0x24]
  0804c	e28dd02c	 add         sp, sp, #0x2C
  08050	e89d6010	 ldmia       sp, {r4, sp, lr}
  08054	e12fff1e	 bx          lr
  08058		 |$M39979|

			 ENDP  ; |?UfnPdd_IOControl@@YAKPAXW4_IOCTL_SOURCE@@KPAEK2KPAK@Z|, UfnPdd_IOControl

	EXPORT	|UfnPdd_Init|
	IMPORT	|?CreateBulUsbDevice@@YAPAVBulUsbDevice@@PBG@Z| ; CreateBulUsbDevice
	IMPORT	|memcpy|

  00240			 AREA	 |.pdata|, PDATA
|$T39991| DCD	|$LN9@UfnPdd_Ini@3|
	DCD	0x40004004

  00000			 AREA	 |.rdata|, DATA, READONLY
|?sc_PddInterfaceInfo@?1??UfnPdd_Init@@9@4U_UFN_PDD_INTERFACE_INFO@@B| DCD 0x60000 ; `UfnPdd_Init'::`2'::sc_PddInterfaceInfo
	DCD	0x1
	DCD	0x18
	DCD	0x0
	DCD	|?UfnPdd_Deinit@@YAKPAX@Z|
	DCD	|?UfnPdd_IsConfigurationSupportable@@YAKPAXW4_UFN_BUS_SPEED@@PAU_UFN_CONFIGURATION@@@Z|
	DCD	|?UfnPdd_IsEndpointSupportable@@YAKPAXKW4_UFN_BUS_SPEED@@PAU_USB_ENDPOINT_DESCRIPTOR@@EEE@Z|
	DCD	|?UfnPdd_InitEndpoint@@YAKPAXKW4_UFN_BUS_SPEED@@PAU_USB_ENDPOINT_DESCRIPTOR@@0EEE@Z|
	DCD	|?UfnPdd_RegisterDevice@@YAKPAXPBU_USB_DEVICE_DESCRIPTOR@@PBU_UFN_CONFIGURATION@@PBU_USB_CONFIGURATION_DESCRIPTOR@@123PBU_UFN_STRING_SET@@K@Z|
	DCD	|?UfnPdd_DeregisterDevice@@YAKPAX@Z|
	DCD	|?UfnPdd_Start@@YAKPAX@Z|
	DCD	|?UfnPdd_Stop@@YAKPAX@Z|
	DCD	|?UfnPdd_IssueTransfer@@YAKPAXKPAU_STransfer@@@Z|
	DCD	|?UfnPdd_AbortTransfer@@YAKPAXKPAU_STransfer@@@Z|
	DCD	|?UfnPdd_DeinitEndpoint@@YAKPAXK@Z|
	DCD	|?UfnPdd_StallEndpoint@@YAKPAXK@Z|
	DCD	|?UfnPdd_ClearEndpointStall@@YAKPAXK@Z|
	DCD	|?UfnPdd_SendControlStatusHandshake@@YAKPAXK@Z|
	DCD	|?UfnPdd_SetAddress@@YAKPAXE@Z|
	DCD	|?UfnPdd_IsEndpointHalted@@YAKPAXKPAH@Z|
	DCD	|?UfnPdd_InitiateRemoteWakeup@@YAKPAX@Z|
	DCD	|?UfnPdd_PowerDown@@YAXPAX@Z|
	DCD	|?UfnPdd_PowerUp@@YAXPAX@Z|
	DCD	|?UfnPdd_IOControl@@YAKPAXW4_IOCTL_SOURCE@@KPAEK2KPAK@Z|
; Function compile flags: /Odtp

  08058			 AREA	 |.text|, CODE, ARM

  08058		 |UfnPdd_Init| PROC

; 1824 : {

  08058		 |$LN9@UfnPdd_Ini@3|
  08058	e1a0c00d	 mov         r12, sp
  0805c	e92d000f	 stmdb       sp!, {r0 - r3}
  08060	e92d5010	 stmdb       sp!, {r4, r12, lr}
  08064	e24dd020	 sub         sp, sp, #0x20
  08068		 |$M39988|

; 1825 :     static const UFN_PDD_INTERFACE_INFO sc_PddInterfaceInfo = {
; 1826 :         UFN_PDD_INTERFACE_VERSION,
; 1827 :         UFN_PDD_CAPS_SUPPORTS_FULL_SPEED,
; 1828 :         MAX_ENDPOINT_NUMBER,
; 1829 :         NULL,
; 1830 :         
; 1831 :         &UfnPdd_Deinit,
; 1832 :         &UfnPdd_IsConfigurationSupportable,
; 1833 :         &UfnPdd_IsEndpointSupportable,
; 1834 :         &UfnPdd_InitEndpoint,
; 1835 :         &UfnPdd_RegisterDevice,
; 1836 :         &UfnPdd_DeregisterDevice,
; 1837 :         &UfnPdd_Start,
; 1838 :         &UfnPdd_Stop,
; 1839 :         &UfnPdd_IssueTransfer,
; 1840 :         &UfnPdd_AbortTransfer,
; 1841 :         &UfnPdd_DeinitEndpoint,
; 1842 :         &UfnPdd_StallEndpoint,
; 1843 :         &UfnPdd_ClearEndpointStall,
; 1844 :         &UfnPdd_SendControlStatusHandshake,
; 1845 :         &UfnPdd_SetAddress,
; 1846 :         &UfnPdd_IsEndpointHalted,
; 1847 :         &UfnPdd_InitiateRemoteWakeup,
; 1848 :         &UfnPdd_PowerDown,
; 1849 :         &UfnPdd_PowerUp,
; 1850 :         &UfnPdd_IOControl,
; 1851 :     };
; 1852 : 
; 1853 :     memcpy(pPddInterfaceInfo, &sc_PddInterfaceInfo, sizeof(sc_PddInterfaceInfo));

  08068	e3a02060	 mov         r2, #0x60
  0806c	e59f10e0	 ldr         r1, [pc, #0xE0]
  08070	e59d0038	 ldr         r0, [sp, #0x38]
  08074	eb000000	 bl          memcpy

; 1854 :     
; 1855 :     BulUsbDevice * pDevice = CreateBulUsbDevice(pszActiveKey );

  08078	e59d002c	 ldr         r0, [sp, #0x2C]
  0807c	eb000000	 bl          |?CreateBulUsbDevice@@YAPAVBulUsbDevice@@PBG@Z|
  08080	e58d0010	 str         r0, [sp, #0x10]
  08084	e59d3010	 ldr         r3, [sp, #0x10]
  08088	e58d3000	 str         r3, [sp]

; 1856 :     if (pDevice && pDevice->Init( pvMddContext, pMddInterfaceInfo, pPddInterfaceInfo)==ERROR_SUCCESS) {

  0808c	e59d3000	 ldr         r3, [sp]
  08090	e3530000	 cmp         r3, #0
  08094	0a000010	 beq         |$LN2@UfnPdd_Ini@3|
  08098	e59d3038	 ldr         r3, [sp, #0x38]
  0809c	e59d2034	 ldr         r2, [sp, #0x34]
  080a0	e59d1030	 ldr         r1, [sp, #0x30]
  080a4	e59d0000	 ldr         r0, [sp]
  080a8	e5900000	 ldr         r0, [r0]
  080ac	e280e008	 add         lr, r0, #8
  080b0	e59d0000	 ldr         r0, [sp]
  080b4	e59e4000	 ldr         r4, [lr]
  080b8	e1a0e00f	 mov         lr, pc
  080bc	e12fff14	 bx          r4
  080c0	e58d0014	 str         r0, [sp, #0x14]
  080c4	e59d3014	 ldr         r3, [sp, #0x14]
  080c8	e3530000	 cmp         r3, #0
  080cc	1a000002	 bne         |$LN2@UfnPdd_Ini@3|

; 1857 :         return ERROR_SUCCESS;

  080d0	e3a03000	 mov         r3, #0
  080d4	e58d300c	 str         r3, [sp, #0xC]
  080d8	ea000019	 b           |$LN3@UfnPdd_Ini@3|
  080dc		 |$LN2@UfnPdd_Ini@3|

; 1858 :     }
; 1859 :     
; 1860 :     if (pDevice!=NULL)

  080dc	e59d3000	 ldr         r3, [sp]
  080e0	e3530000	 cmp         r3, #0
  080e4	0a000014	 beq         |$LN1@UfnPdd_Ini@3|

; 1861 :         delete pDevice;

  080e8	e59d3000	 ldr         r3, [sp]
  080ec	e58d3008	 str         r3, [sp, #8]
  080f0	e59d3008	 ldr         r3, [sp, #8]
  080f4	e58d3004	 str         r3, [sp, #4]
  080f8	e59d3004	 ldr         r3, [sp, #4]
  080fc	e3530000	 cmp         r3, #0
  08100	0a00000b	 beq         |$LN5@UfnPdd_Ini@3|
  08104	e3a01001	 mov         r1, #1
  08108	e59d3004	 ldr         r3, [sp, #4]
  0810c	e5933000	 ldr         r3, [r3]
  08110	e2833004	 add         r3, r3, #4
  08114	e59d0004	 ldr         r0, [sp, #4]
  08118	e5933000	 ldr         r3, [r3]
  0811c	e1a0e00f	 mov         lr, pc
  08120	e12fff13	 bx          r3
  08124	e58d0018	 str         r0, [sp, #0x18]
  08128	e59d3018	 ldr         r3, [sp, #0x18]
  0812c	e58d301c	 str         r3, [sp, #0x1C]
  08130	ea000001	 b           |$LN6@UfnPdd_Ini@3|
  08134		 |$LN5@UfnPdd_Ini@3|
  08134	e3a03000	 mov         r3, #0
  08138	e58d301c	 str         r3, [sp, #0x1C]
  0813c		 |$LN6@UfnPdd_Ini@3|
  0813c		 |$LN1@UfnPdd_Ini@3|

; 1862 : 
; 1863 :     return ERROR_INVALID_PARAMETER;

  0813c	e3a03057	 mov         r3, #0x57
  08140	e58d300c	 str         r3, [sp, #0xC]
  08144		 |$LN3@UfnPdd_Ini@3|

; 1864 : }

  08144	e59d000c	 ldr         r0, [sp, #0xC]
  08148	e28dd020	 add         sp, sp, #0x20
  0814c	e89d6010	 ldmia       sp, {r4, sp, lr}
  08150	e12fff1e	 bx          lr
  08154		 |$LN10@UfnPdd_Ini@3|
  08154		 |$LN11@UfnPdd_Ini@3|
  08154	00000000	 DCD         |?sc_PddInterfaceInfo@?1??UfnPdd_Init@@9@4U_UFN_PDD_INTERFACE_INFO@@B|
  08158		 |$M39989|

			 ENDP  ; |UfnPdd_Init|

	EXPORT	|UfnPdd_DllEntry|

  00248			 AREA	 |.pdata|, PDATA
|$T39999| DCD	|$LN5@UfnPdd_Dll|
	DCD	0x40000a04
; Function compile flags: /Odtp

  08158			 AREA	 |.text|, CODE, ARM

  08158		 |UfnPdd_DllEntry| PROC

; 1874 : {

  08158		 |$LN5@UfnPdd_Dll|
  08158	e1a0c00d	 mov         r12, sp
  0815c	e92d0007	 stmdb       sp!, {r0 - r2}
  08160	e92d5000	 stmdb       sp!, {r12, lr}
  08164	e24dd004	 sub         sp, sp, #4
  08168		 |$M39996|

; 1875 :     return TRUE; // Nothing to do.

  08168	e3a03001	 mov         r3, #1
  0816c	e58d3000	 str         r3, [sp]

; 1876 : }

  08170	e59d0000	 ldr         r0, [sp]
  08174	e28dd004	 add         sp, sp, #4
  08178	e89d6000	 ldmia       sp, {sp, lr}
  0817c	e12fff1e	 bx          lr
  08180		 |$M39997|

			 ENDP  ; |UfnPdd_DllEntry|

; File c:\wince600\public\common\oak\inc\crefcon.h

  00000			 AREA	 |.pdata|, PDATA
|$T40005| DCD	|$LN8@CStaticCon|
	DCD	0x40002604
; Function compile flags: /Odtp

  00000			 AREA	 |.text|, CODE, ARM

  00000		 |??0?$CStaticContainer@VBulEndpoint@@$0BI@@@QAA@XZ| PROC ; CStaticContainer<BulEndpoint,24>::CStaticContainer<BulEndpoint,24>

; 64   :     CStaticContainer()

  00000		 |$LN8@CStaticCon|
  00000	e1a0c00d	 mov         r12, sp
  00004	e92d0001	 stmdb       sp!, {r0}
  00008	e92d5000	 stmdb       sp!, {r12, lr}
  0000c	e24dd00c	 sub         sp, sp, #0xC
  00010		 |$M40002|
  00010	e59d0014	 ldr         r0, [sp, #0x14]
  00014	eb000000	 bl          |??0CLockObject@@QAA@XZ|
  00018	e58d0008	 str         r0, [sp, #8]

; 65   :     {
; 66   :         m_dwArraySize = dwNumArray;

  0001c	e59d3014	 ldr         r3, [sp, #0x14]
  00020	e2832074	 add         r2, r3, #0x74
  00024	e3a03018	 mov         r3, #0x18
  00028	e5823000	 str         r3, [r2]

; 67   :         for( DWORD dwIndex = 0; dwIndex < m_dwArraySize; dwIndex++ )

  0002c	e3a03000	 mov         r3, #0
  00030	e58d3000	 str         r3, [sp]
  00034	ea000002	 b           |$LN3@CStaticCon|
  00038		 |$LN2@CStaticCon|
  00038	e59d3000	 ldr         r3, [sp]
  0003c	e2833001	 add         r3, r3, #1
  00040	e58d3000	 str         r3, [sp]
  00044		 |$LN3@CStaticCon|
  00044	e59d3014	 ldr         r3, [sp, #0x14]
  00048	e2833074	 add         r3, r3, #0x74
  0004c	e59d2000	 ldr         r2, [sp]
  00050	e5933000	 ldr         r3, [r3]
  00054	e1520003	 cmp         r2, r3
  00058	2a000008	 bcs         |$LN1@CStaticCon|

; 68   :         {
; 69   :             m_rgObjectArray[dwIndex] = NULL;

  0005c	e59d3014	 ldr         r3, [sp, #0x14]
  00060	e2831014	 add         r1, r3, #0x14
  00064	e59d2000	 ldr         r2, [sp]
  00068	e3a03004	 mov         r3, #4
  0006c	e0030392	 mul         r3, r2, r3
  00070	e0812003	 add         r2, r1, r3
  00074	e3a03000	 mov         r3, #0
  00078	e5823000	 str         r3, [r2]

; 70   :         }

  0007c	eaffffed	 b           |$LN2@CStaticCon|
  00080		 |$LN1@CStaticCon|

; 71   :     }

  00080	e59d3014	 ldr         r3, [sp, #0x14]
  00084	e58d3004	 str         r3, [sp, #4]
  00088	e59d0004	 ldr         r0, [sp, #4]
  0008c	e28dd00c	 add         sp, sp, #0xC
  00090	e89d6000	 ldmia       sp, {sp, lr}
  00094	e12fff1e	 bx          lr
  00098		 |$M40003|

			 ENDP  ; |??0?$CStaticContainer@VBulEndpoint@@$0BI@@@QAA@XZ|, CStaticContainer<BulEndpoint,24>::CStaticContainer<BulEndpoint,24>


  00000			 AREA	 |.pdata|, PDATA
|$T40016| DCD	|$LN11@CStaticCon@2|
	DCD	0x40003d04
; Function compile flags: /Odtp

  00000			 AREA	 |.text|, CODE, ARM

  00000		 |??1?$CStaticContainer@VBulEndpoint@@$0BI@@@QAA@XZ| PROC ; CStaticContainer<BulEndpoint,24>::~CStaticContainer<BulEndpoint,24>

; 73   :     {

  00000		 |$LN11@CStaticCon@2|
  00000	e1a0c00d	 mov         r12, sp
  00004	e92d0001	 stmdb       sp!, {r0}
  00008	e92d5000	 stmdb       sp!, {r12, lr}
  0000c	e24dd014	 sub         sp, sp, #0x14
  00010		 |$M40013|

; 74   :         Lock();

  00010	e59d001c	 ldr         r0, [sp, #0x1C]
  00014	eb000000	 bl          |?Lock@CLockObject@@QAAXXZ|

; 75   :         for( DWORD dwIndex = 0; dwIndex < m_dwArraySize; dwIndex++ )

  00018	e3a03000	 mov         r3, #0
  0001c	e58d3000	 str         r3, [sp]
  00020	ea000002	 b           |$LN4@CStaticCon@2|
  00024		 |$LN3@CStaticCon@2|
  00024	e59d3000	 ldr         r3, [sp]
  00028	e2833001	 add         r3, r3, #1
  0002c	e58d3000	 str         r3, [sp]
  00030		 |$LN4@CStaticCon@2|
  00030	e59d301c	 ldr         r3, [sp, #0x1C]
  00034	e2833074	 add         r3, r3, #0x74
  00038	e59d2000	 ldr         r2, [sp]
  0003c	e5933000	 ldr         r3, [r3]
  00040	e1520003	 cmp         r2, r3
  00044	2a000023	 bcs         |$LN2@CStaticCon@2|

; 76   :         {
; 77   :             if( m_rgObjectArray[dwIndex] != NULL )

  00048	e59d301c	 ldr         r3, [sp, #0x1C]
  0004c	e2831014	 add         r1, r3, #0x14
  00050	e59d2000	 ldr         r2, [sp]
  00054	e3a03004	 mov         r3, #4
  00058	e0030392	 mul         r3, r2, r3
  0005c	e0813003	 add         r3, r1, r3
  00060	e5933000	 ldr         r3, [r3]
  00064	e3530000	 cmp         r3, #0
  00068	0a000019	 beq         |$LN1@CStaticCon@2|

; 78   :             {
; 79   :                 delete m_rgObjectArray[dwIndex];

  0006c	e59d301c	 ldr         r3, [sp, #0x1C]
  00070	e2831014	 add         r1, r3, #0x14
  00074	e59d2000	 ldr         r2, [sp]
  00078	e3a03004	 mov         r3, #4
  0007c	e0030392	 mul         r3, r2, r3
  00080	e0813003	 add         r3, r1, r3
  00084	e5933000	 ldr         r3, [r3]
  00088	e58d3008	 str         r3, [sp, #8]
  0008c	e59d3008	 ldr         r3, [sp, #8]
  00090	e58d3004	 str         r3, [sp, #4]
  00094	e59d3004	 ldr         r3, [sp, #4]
  00098	e3530000	 cmp         r3, #0
  0009c	0a00000a	 beq         |$LN7@CStaticCon@2|
  000a0	e3a01001	 mov         r1, #1
  000a4	e59d3004	 ldr         r3, [sp, #4]
  000a8	e5933000	 ldr         r3, [r3]
  000ac	e59d0004	 ldr         r0, [sp, #4]
  000b0	e5933000	 ldr         r3, [r3]
  000b4	e1a0e00f	 mov         lr, pc
  000b8	e12fff13	 bx          r3
  000bc	e58d000c	 str         r0, [sp, #0xC]
  000c0	e59d300c	 ldr         r3, [sp, #0xC]
  000c4	e58d3010	 str         r3, [sp, #0x10]
  000c8	ea000001	 b           |$LN8@CStaticCon@2|
  000cc		 |$LN7@CStaticCon@2|
  000cc	e3a03000	 mov         r3, #0
  000d0	e58d3010	 str         r3, [sp, #0x10]
  000d4		 |$LN8@CStaticCon@2|
  000d4		 |$LN1@CStaticCon@2|

; 80   :             }
; 81   :         };

  000d4	eaffffd2	 b           |$LN3@CStaticCon@2|
  000d8		 |$LN2@CStaticCon@2|

; 82   :         Unlock();

  000d8	e59d001c	 ldr         r0, [sp, #0x1C]
  000dc	eb000000	 bl          |?Unlock@CLockObject@@QAAXXZ|

; 83   :     }

  000e0	e59d001c	 ldr         r0, [sp, #0x1C]
  000e4	eb000000	 bl          |??1CLockObject@@QAA@XZ|
  000e8	e28dd014	 add         sp, sp, #0x14
  000ec	e89d6000	 ldmia       sp, {sp, lr}
  000f0	e12fff1e	 bx          lr
  000f4		 |$M40014|

			 ENDP  ; |??1?$CStaticContainer@VBulEndpoint@@$0BI@@@QAA@XZ|, CStaticContainer<BulEndpoint,24>::~CStaticContainer<BulEndpoint,24>

	EXPORT	|?AddRef@CRefObject@@QAAKXZ|		; CRefObject::AddRef

  00000			 AREA	 |.pdata|, PDATA
|$T40026| DCD	|$LN11@InsertObje|
	DCD	0x40003a04
; Function compile flags: /Odtp

  00000			 AREA	 |.text|, CODE, ARM

  00000		 |?InsertObject@?$CStaticContainer@VBulEndpoint@@$0BI@@@QAAPAVBulEndpoint@@KPAV2@@Z| PROC ; CStaticContainer<BulEndpoint,24>::InsertObject

; 85   :     {

  00000		 |$LN11@InsertObje|
  00000	e1a0c00d	 mov         r12, sp
  00004	e92d0007	 stmdb       sp!, {r0 - r2}
  00008	e92d5000	 stmdb       sp!, {r12, lr}
  0000c	e24dd00c	 sub         sp, sp, #0xC
  00010		 |$M40023|

; 86   :         if( pObject )

  00010	e59d301c	 ldr         r3, [sp, #0x1C]
  00014	e3530000	 cmp         r3, #0
  00018	0a00002c	 beq         |$LN4@InsertObje|

; 87   :         {
; 88   :             Lock();

  0001c	e59d0014	 ldr         r0, [sp, #0x14]
  00020	eb000000	 bl          |?Lock@CLockObject@@QAAXXZ|

; 89   :             T*  pReturn = NULL;

  00024	e3a03000	 mov         r3, #0
  00028	e58d3000	 str         r3, [sp]

; 90   :             if( dwIndex < m_dwArraySize )

  0002c	e59d3014	 ldr         r3, [sp, #0x14]
  00030	e2833074	 add         r3, r3, #0x74
  00034	e59d2018	 ldr         r2, [sp, #0x18]
  00038	e5933000	 ldr         r3, [r3]
  0003c	e1520003	 cmp         r2, r3
  00040	2a000017	 bcs         |$LN3@InsertObje|

; 91   :                 pReturn = ( ( m_rgObjectArray[dwIndex] != NULL ) ?
; 92   :                             NULL :
; 93   :                             ( m_rgObjectArray[dwIndex] = pObject ) );

  00044	e59d3014	 ldr         r3, [sp, #0x14]
  00048	e2831014	 add         r1, r3, #0x14
  0004c	e59d2018	 ldr         r2, [sp, #0x18]
  00050	e3a03004	 mov         r3, #4
  00054	e0030392	 mul         r3, r2, r3
  00058	e0813003	 add         r3, r1, r3
  0005c	e5933000	 ldr         r3, [r3]
  00060	e3530000	 cmp         r3, #0
  00064	0a000002	 beq         |$LN7@InsertObje|
  00068	e3a03000	 mov         r3, #0
  0006c	e58d3008	 str         r3, [sp, #8]
  00070	ea000009	 b           |$LN8@InsertObje|
  00074		 |$LN7@InsertObje|
  00074	e59d3014	 ldr         r3, [sp, #0x14]
  00078	e2831014	 add         r1, r3, #0x14
  0007c	e59d2018	 ldr         r2, [sp, #0x18]
  00080	e3a03004	 mov         r3, #4
  00084	e0030392	 mul         r3, r2, r3
  00088	e0812003	 add         r2, r1, r3
  0008c	e59d301c	 ldr         r3, [sp, #0x1C]
  00090	e5823000	 str         r3, [r2]
  00094	e59d301c	 ldr         r3, [sp, #0x1C]
  00098	e58d3008	 str         r3, [sp, #8]
  0009c		 |$LN8@InsertObje|
  0009c	e59d3008	 ldr         r3, [sp, #8]
  000a0	e58d3000	 str         r3, [sp]
  000a4		 |$LN3@InsertObje|

; 94   :             if( pReturn )

  000a4	e59d3000	 ldr         r3, [sp]
  000a8	e3530000	 cmp         r3, #0
  000ac	0a000001	 beq         |$LN2@InsertObje|

; 95   :                 pReturn->AddRef();

  000b0	e59d0000	 ldr         r0, [sp]
  000b4	eb000000	 bl          |?AddRef@CRefObject@@QAAKXZ|
  000b8		 |$LN2@InsertObje|

; 96   :             Unlock();

  000b8	e59d0014	 ldr         r0, [sp, #0x14]
  000bc	eb000000	 bl          |?Unlock@CLockObject@@QAAXXZ|

; 97   :             return pReturn;

  000c0	e59d3000	 ldr         r3, [sp]
  000c4	e58d3004	 str         r3, [sp, #4]
  000c8	ea000002	 b           |$LN5@InsertObje|

; 98   :         }
; 99   :         else

  000cc	ea000001	 b           |$LN1@InsertObje|
  000d0		 |$LN4@InsertObje|

; 100  :         {
; 101  :             return NULL;

  000d0	e3a03000	 mov         r3, #0
  000d4	e58d3004	 str         r3, [sp, #4]
  000d8		 |$LN1@InsertObje|
  000d8		 |$LN5@InsertObje|

; 102  :         }
; 103  :     }

  000d8	e59d0004	 ldr         r0, [sp, #4]
  000dc	e28dd00c	 add         sp, sp, #0xC
  000e0	e89d6000	 ldmia       sp, {sp, lr}
  000e4	e12fff1e	 bx          lr
  000e8		 |$M40024|

			 ENDP  ; |?InsertObject@?$CStaticContainer@VBulEndpoint@@$0BI@@@QAAPAVBulEndpoint@@KPAV2@@Z|, CStaticContainer<BulEndpoint,24>::InsertObject

	IMPORT	|InterlockedIncrement|

  00000			 AREA	 |.pdata|, PDATA
|$T40034| DCD	|$LN5@AddRef|
	DCD	0x40000e04
; Function compile flags: /Odtp

  00000			 AREA	 |.text|, CODE, ARM

  00000		 |?AddRef@CRefObject@@QAAKXZ| PROC	; CRefObject::AddRef

; 43   :     {

  00000		 |$LN5@AddRef|
  00000	e1a0c00d	 mov         r12, sp
  00004	e92d0001	 stmdb       sp!, {r0}
  00008	e92d5000	 stmdb       sp!, {r12, lr}
  0000c	e24dd008	 sub         sp, sp, #8
  00010		 |$M40031|

; 44   :         return (DWORD)InterlockedIncrement(&m_lRefCount);

  00010	e59d3010	 ldr         r3, [sp, #0x10]
  00014	e2830004	 add         r0, r3, #4
  00018	eb000000	 bl          InterlockedIncrement
  0001c	e58d0004	 str         r0, [sp, #4]
  00020	e59d3004	 ldr         r3, [sp, #4]
  00024	e58d3000	 str         r3, [sp]

; 45   :     };

  00028	e59d0000	 ldr         r0, [sp]
  0002c	e28dd008	 add         sp, sp, #8
  00030	e89d6000	 ldmia       sp, {sp, lr}
  00034	e12fff1e	 bx          lr
  00038		 |$M40032|

			 ENDP  ; |?AddRef@CRefObject@@QAAKXZ|, CRefObject::AddRef


  00000			 AREA	 |.pdata|, PDATA
|$T40044| DCD	|$LN8@ObjectInde|
	DCD	0x40002604
; Function compile flags: /Odtp

  00000			 AREA	 |.text|, CODE, ARM

  00000		 |?ObjectIndex@?$CStaticContainer@VBulEndpoint@@$0BI@@@QAAPAVBulEndpoint@@K@Z| PROC ; CStaticContainer<BulEndpoint,24>::ObjectIndex

; 105  :     {

  00000		 |$LN8@ObjectInde|
  00000	e1a0c00d	 mov         r12, sp
  00004	e92d0003	 stmdb       sp!, {r0, r1}
  00008	e92d5000	 stmdb       sp!, {r12, lr}
  0000c	e24dd00c	 sub         sp, sp, #0xC
  00010		 |$M40041|

; 106  :         Lock();

  00010	e59d0014	 ldr         r0, [sp, #0x14]
  00014	eb000000	 bl          |?Lock@CLockObject@@QAAXXZ|

; 107  :         T*  pReturn = dwIndex <
; 108  :                       m_dwArraySize ?
; 109  :                       m_rgObjectArray[dwIndex] :
; 110  :                       NULL;

  00018	e59d3014	 ldr         r3, [sp, #0x14]
  0001c	e2833074	 add         r3, r3, #0x74
  00020	e59d2018	 ldr         r2, [sp, #0x18]
  00024	e5933000	 ldr         r3, [r3]
  00028	e1520003	 cmp         r2, r3
  0002c	2a000008	 bcs         |$LN4@ObjectInde|
  00030	e59d3014	 ldr         r3, [sp, #0x14]
  00034	e2831014	 add         r1, r3, #0x14
  00038	e59d2018	 ldr         r2, [sp, #0x18]
  0003c	e3a03004	 mov         r3, #4
  00040	e0030392	 mul         r3, r2, r3
  00044	e0813003	 add         r3, r1, r3
  00048	e5933000	 ldr         r3, [r3]
  0004c	e58d3008	 str         r3, [sp, #8]
  00050	ea000001	 b           |$LN5@ObjectInde|
  00054		 |$LN4@ObjectInde|
  00054	e3a03000	 mov         r3, #0
  00058	e58d3008	 str         r3, [sp, #8]
  0005c		 |$LN5@ObjectInde|
  0005c	e59d3008	 ldr         r3, [sp, #8]
  00060	e58d3000	 str         r3, [sp]

; 111  :         if( pReturn )

  00064	e59d3000	 ldr         r3, [sp]
  00068	e3530000	 cmp         r3, #0
  0006c	0a000001	 beq         |$LN1@ObjectInde|

; 112  :         {
; 113  :             pReturn->AddRef();

  00070	e59d0000	 ldr         r0, [sp]
  00074	eb000000	 bl          |?AddRef@CRefObject@@QAAKXZ|
  00078		 |$LN1@ObjectInde|

; 114  :         }
; 115  :         Unlock();

  00078	e59d0014	 ldr         r0, [sp, #0x14]
  0007c	eb000000	 bl          |?Unlock@CLockObject@@QAAXXZ|

; 116  :         return pReturn;

  00080	e59d3000	 ldr         r3, [sp]
  00084	e58d3004	 str         r3, [sp, #4]

; 117  :     }

  00088	e59d0004	 ldr         r0, [sp, #4]
  0008c	e28dd00c	 add         sp, sp, #0xC
  00090	e89d6000	 ldmia       sp, {sp, lr}
  00094	e12fff1e	 bx          lr
  00098		 |$M40042|

			 ENDP  ; |?ObjectIndex@?$CStaticContainer@VBulEndpoint@@$0BI@@@QAAPAVBulEndpoint@@K@Z|, CStaticContainer<BulEndpoint,24>::ObjectIndex


  00000			 AREA	 |.pdata|, PDATA
|$T40052| DCD	|$LN7@RemoveObje|
	DCD	0x40002b04
; Function compile flags: /Odtp

  00000			 AREA	 |.text|, CODE, ARM

  00000		 |?RemoveObjectBy@?$CStaticContainer@VBulEndpoint@@$0BI@@@QAAPAVBulEndpoint@@K@Z| PROC ; CStaticContainer<BulEndpoint,24>::RemoveObjectBy

; 119  :     {

  00000		 |$LN7@RemoveObje|
  00000	e1a0c00d	 mov         r12, sp
  00004	e92d0003	 stmdb       sp!, {r0, r1}
  00008	e92d5000	 stmdb       sp!, {r12, lr}
  0000c	e24dd008	 sub         sp, sp, #8
  00010		 |$M40049|

; 120  :         Lock();

  00010	e59d0010	 ldr         r0, [sp, #0x10]
  00014	eb000000	 bl          |?Lock@CLockObject@@QAAXXZ|

; 121  :         T*  pReturn = NULL;

  00018	e3a03000	 mov         r3, #0
  0001c	e58d3000	 str         r3, [sp]

; 122  :         if( dwIndex < m_dwArraySize )

  00020	e59d3010	 ldr         r3, [sp, #0x10]
  00024	e2833074	 add         r3, r3, #0x74
  00028	e59d2014	 ldr         r2, [sp, #0x14]
  0002c	e5933000	 ldr         r3, [r3]
  00030	e1520003	 cmp         r2, r3
  00034	2a00000f	 bcs         |$LN2@RemoveObje|

; 123  :         {
; 124  :             pReturn = m_rgObjectArray[dwIndex];

  00038	e59d3010	 ldr         r3, [sp, #0x10]
  0003c	e2831014	 add         r1, r3, #0x14
  00040	e59d2014	 ldr         r2, [sp, #0x14]
  00044	e3a03004	 mov         r3, #4
  00048	e0030392	 mul         r3, r2, r3
  0004c	e0813003	 add         r3, r1, r3
  00050	e5933000	 ldr         r3, [r3]
  00054	e58d3000	 str         r3, [sp]

; 125  :             m_rgObjectArray[dwIndex] = NULL;

  00058	e59d3010	 ldr         r3, [sp, #0x10]
  0005c	e2831014	 add         r1, r3, #0x14
  00060	e59d2014	 ldr         r2, [sp, #0x14]
  00064	e3a03004	 mov         r3, #4
  00068	e0030392	 mul         r3, r2, r3
  0006c	e0812003	 add         r2, r1, r3
  00070	e3a03000	 mov         r3, #0
  00074	e5823000	 str         r3, [r2]
  00078		 |$LN2@RemoveObje|

; 126  :         };
; 127  :         Unlock();

  00078	e59d0010	 ldr         r0, [sp, #0x10]
  0007c	eb000000	 bl          |?Unlock@CLockObject@@QAAXXZ|

; 128  :         if( pReturn )

  00080	e59d3000	 ldr         r3, [sp]
  00084	e3530000	 cmp         r3, #0
  00088	0a000001	 beq         |$LN1@RemoveObje|

; 129  :         {
; 130  :             pReturn->DeRef();

  0008c	e59d0000	 ldr         r0, [sp]
  00090	eb000000	 bl          |?DeRef@CRefObject@@QAAKXZ|
  00094		 |$LN1@RemoveObje|

; 131  :         }
; 132  :         return pReturn;

  00094	e59d3000	 ldr         r3, [sp]
  00098	e58d3004	 str         r3, [sp, #4]

; 133  :     }

  0009c	e59d0004	 ldr         r0, [sp, #4]
  000a0	e28dd008	 add         sp, sp, #8
  000a4	e89d6000	 ldmia       sp, {sp, lr}
  000a8	e12fff1e	 bx          lr
  000ac		 |$M40050|

			 ENDP  ; |?RemoveObjectBy@?$CStaticContainer@VBulEndpoint@@$0BI@@@QAAPAVBulEndpoint@@K@Z|, CStaticContainer<BulEndpoint,24>::RemoveObjectBy


  00000			 AREA	 |.pdata|, PDATA
|$T40062| DCD	|$LN7@RawObjectI|
	DCD	0x40001b04
; Function compile flags: /Odtp

  00000			 AREA	 |.text|, CODE, ARM

  00000		 |?RawObjectIndex@?$CStaticContainer@VBulEndpoint@@$0BI@@@QAAPAVBulEndpoint@@K@Z| PROC ; CStaticContainer<BulEndpoint,24>::RawObjectIndex

; 199  :     {

  00000		 |$LN7@RawObjectI|
  00000	e1a0c00d	 mov         r12, sp
  00004	e92d0003	 stmdb       sp!, {r0, r1}
  00008	e92d5000	 stmdb       sp!, {r12, lr}
  0000c	e24dd008	 sub         sp, sp, #8
  00010		 |$M40059|

; 200  :         // This is only should be usded during suspend & resume.
; 201  :         return ( dwIndex < m_dwArraySize ? m_rgObjectArray[dwIndex] : NULL );

  00010	e59d3010	 ldr         r3, [sp, #0x10]
  00014	e2833074	 add         r3, r3, #0x74
  00018	e59d2014	 ldr         r2, [sp, #0x14]
  0001c	e5933000	 ldr         r3, [r3]
  00020	e1520003	 cmp         r2, r3
  00024	2a000008	 bcs         |$LN3@RawObjectI|
  00028	e59d3010	 ldr         r3, [sp, #0x10]
  0002c	e2831014	 add         r1, r3, #0x14
  00030	e59d2014	 ldr         r2, [sp, #0x14]
  00034	e3a03004	 mov         r3, #4
  00038	e0030392	 mul         r3, r2, r3
  0003c	e0813003	 add         r3, r1, r3
  00040	e5933000	 ldr         r3, [r3]
  00044	e58d3004	 str         r3, [sp, #4]
  00048	ea000001	 b           |$LN4@RawObjectI|
  0004c		 |$LN3@RawObjectI|
  0004c	e3a03000	 mov         r3, #0
  00050	e58d3004	 str         r3, [sp, #4]
  00054		 |$LN4@RawObjectI|
  00054	e59d3004	 ldr         r3, [sp, #4]
  00058	e58d3000	 str         r3, [sp]

; 202  :     }

  0005c	e59d0000	 ldr         r0, [sp]
  00060	e28dd008	 add         sp, sp, #8
  00064	e89d6000	 ldmia       sp, {sp, lr}
  00068	e12fff1e	 bx          lr
  0006c		 |$M40060|

			 ENDP  ; |?RawObjectIndex@?$CStaticContainer@VBulEndpoint@@$0BI@@@QAAPAVBulEndpoint@@K@Z|, CStaticContainer<BulEndpoint,24>::RawObjectIndex

	END
