; Listing generated by Microsoft (R) Optimizing Compiler Version 14.01.60511.01 

	TTL	C:\WINCE600\PLATFORM\COMMON\SRC\SOC\PXA27X_MS_V1\USBFN\bul_usbfn.cpp
	CODE32

  00000			 AREA	 |.drectve|, DRECTVE
	DCB	"-defaultlib:LIBCMT "
	DCB	"-defaultlib:OLDNAMES "

	EXPORT	|dpCurSettings| [ DATA ]

  00000			 AREA	 |.data|, DATA
|dpCurSettings| DCB "U", 0x0, "S", 0x0, "B", 0x0, "F", 0x0, "N", 0x0, 0x0
	DCB	0x0
	%	52
	DCB	"E", 0x0, "r", 0x0, "r", 0x0, "o", 0x0, "r", 0x0, 0x0, 0x0
	%	52
	DCB	"W", 0x0, "a", 0x0, "r", 0x0, "n", 0x0, "i", 0x0, "n", 0x0
	DCB	"g", 0x0, 0x0, 0x0
	%	48
	DCB	"I", 0x0, "n", 0x0, "i", 0x0, "t", 0x0, 0x0, 0x0
	%	54
	DCB	"T", 0x0, "r", 0x0, "a", 0x0, "n", 0x0, "s", 0x0, "f", 0x0
	DCB	"e", 0x0, "r", 0x0, 0x0, 0x0
	%	46
	DCB	"P", 0x0, "i", 0x0, "p", 0x0, "e", 0x0, 0x0, 0x0
	%	54
	DCB	"S", 0x0, "e", 0x0, "n", 0x0, "d", 0x0, 0x0, 0x0
	%	54
	DCB	"R", 0x0, "e", 0x0, "c", 0x0, "e", 0x0, "i", 0x0, "v", 0x0
	DCB	"e", 0x0, 0x0, 0x0
	%	48
	DCB	"U", 0x0, "S", 0x0, "B", 0x0, " ", 0x0, "E", 0x0, "v", 0x0
	DCB	"e", 0x0, "n", 0x0, "t", 0x0, "s", 0x0, 0x0, 0x0
	%	42
	DCB	0x0, 0x0
	%	62
	DCB	0x0, 0x0
	%	62
	DCB	0x0, 0x0
	%	62
	DCB	0x0, 0x0
	%	62
	DCB	"F", 0x0, "u", 0x0, "n", 0x0, "c", 0x0, "t", 0x0, "i", 0x0
	DCB	"o", 0x0, "n", 0x0, 0x0, 0x0
	%	46
	DCB	"C", 0x0, "o", 0x0, "m", 0x0, "m", 0x0, "e", 0x0, "n", 0x0
	DCB	"t", 0x0, "s", 0x0, 0x0, 0x0
	%	46
	DCB	0x0, 0x0
	%	62
	DCB	0x0, 0x0
	%	62
	DCD	0x7
	EXPORT	|??_C@_1BA@PLOOFDPK@?$AA?$CF?$AAs?$AA?5?$AA?9?$AA?9?$AA?$AN?$AA?6?$AA?$AA@| [ DATA ] ; `string'
	EXPORT	|?Unlock@CLockObject@@QAAXXZ|		; CLockObject::Unlock
	EXPORT	|?Lock@CLockObject@@QAAXXZ|		; CLockObject::Lock
	EXPORT	|??_C@_1BA@DAJPCKDK@?$AA?$CF?$AAs?$AA?5?$AA?$CL?$AA?$CL?$AA?$AN?$AA?6?$AA?$AA@| [ DATA ] ; `string'
	EXPORT	|??_C@_1EE@MFOJFFAN@?$AAb?$AAu?$AAl?$AAv?$AAe?$AAr?$AAd?$AAe?$AA_?$AAu?$AAs?$AAb?$AAf?$AAn?$AA?$CB?$AAB?$AAu?$AAl?$AAE?$AAn?$AAd?$AAp?$AAo?$AAi?$AAn?$AAt?$AA?3?$AA?3?$AAI?$AAn?$AAi?$AAt@| [ DATA ] ; `string'
	EXPORT	|?Init@BulEndpoint@@UAAHPAU_USB_ENDPOINT_DESCRIPTOR@@EEE@Z| ; BulEndpoint::Init
	IMPORT	|NKDbgPrintfW|
	IMPORT	|memcpy|

  00000			 AREA	 |.pdata|, PDATA
|$T38093| DCD	|$LN14@Init|
	DCD	0x40008404
; File c:\wince600\platform\common\src\soc\pxa27x_ms_v1\usbfn\bul_usbfn.cpp

  00000			 AREA	 |.rdata|, DATA, READONLY
|??_C@_1BA@PLOOFDPK@?$AA?$CF?$AAs?$AA?5?$AA?9?$AA?9?$AA?$AN?$AA?6?$AA?$AA@| DCB "%"
	DCB	0x0, "s", 0x0, " ", 0x0, "-", 0x0, "-", 0x0, 0xd, 0x0, 0xa
	DCB	0x0, 0x0, 0x0				; `string'

  00000			 AREA	 |.rdata|, DATA, READONLY
|??_C@_1BA@DAJPCKDK@?$AA?$CF?$AAs?$AA?5?$AA?$CL?$AA?$CL?$AA?$AN?$AA?6?$AA?$AA@| DCB "%"
	DCB	0x0, "s", 0x0, " ", 0x0, "+", 0x0, "+", 0x0, 0xd, 0x0, 0xa
	DCB	0x0, 0x0, 0x0				; `string'

  00000			 AREA	 |.rdata|, DATA, READONLY
|??_C@_1EE@MFOJFFAN@?$AAb?$AAu?$AAl?$AAv?$AAe?$AAr?$AAd?$AAe?$AA_?$AAu?$AAs?$AAb?$AAf?$AAn?$AA?$CB?$AAB?$AAu?$AAl?$AAE?$AAn?$AAd?$AAp?$AAo?$AAi?$AAn?$AAt?$AA?3?$AA?3?$AAI?$AAn?$AAi?$AAt@| DCB "b"
	DCB	0x0, "u", 0x0, "l", 0x0, "v", 0x0, "e", 0x0, "r", 0x0, "d"
	DCB	0x0, "e", 0x0, "_", 0x0, "u", 0x0, "s", 0x0, "b", 0x0, "f"
	DCB	0x0, "n", 0x0, "!", 0x0, "B", 0x0, "u", 0x0, "l", 0x0, "E"
	DCB	0x0, "n", 0x0, "d", 0x0, "p", 0x0, "o", 0x0, "i", 0x0, "n"
	DCB	0x0, "t", 0x0, ":", 0x0, ":", 0x0, "I", 0x0, "n", 0x0, "i"
	DCB	0x0, "t", 0x0, ":", 0x0, 0x0, 0x0	; `string'
; Function compile flags: /Odtp

  00000			 AREA	 |.text|, CODE, ARM

  00000		 |?Init@BulEndpoint@@UAAHPAU_USB_ENDPOINT_DESCRIPTOR@@EEE@Z| PROC ; BulEndpoint::Init

; 40   : {

  00000		 |$LN14@Init|
  00000	e1a0c00d	 mov         r12, sp
  00004	e92d000f	 stmdb       sp!, {r0 - r3}
  00008	e92d5000	 stmdb       sp!, {r12, lr}
  0000c	e24dd018	 sub         sp, sp, #0x18
  00010		 |$M38090|

; 41   :     SETFNAME();

  00010	e59f31f4	 ldr         r3, [pc, #0x1F4]
  00014	e58d3004	 str         r3, [sp, #4]

; 42   :     FUNCTION_ENTER_MSG();

  00018	e59f31e4	 ldr         r3, [pc, #0x1E4]
  0001c	e5933440	 ldr         r3, [r3, #0x440]
  00020	e3130a01	 tst         r3, #1, 20
  00024	0a00000d	 beq         |$LN6@Init|
  00028	e59f31d4	 ldr         r3, [pc, #0x1D4]
  0002c	e5933440	 ldr         r3, [r3, #0x440]
  00030	e3130801	 tst         r3, #1, 16
  00034	0a000003	 beq         |$LN4@Init|
  00038	e59d1004	 ldr         r1, [sp, #4]
  0003c	e59f01c4	 ldr         r0, [pc, #0x1C4]
  00040	eb000000	 bl          CeLogMsg
  00044	ea000002	 b           |$LN5@Init|
  00048		 |$LN4@Init|
  00048	e59d1004	 ldr         r1, [sp, #4]
  0004c	e59f01b4	 ldr         r0, [pc, #0x1B4]
  00050	eb000000	 bl          NKDbgPrintfW
  00054		 |$LN5@Init|
  00054	e3a03001	 mov         r3, #1
  00058	e58d300c	 str         r3, [sp, #0xC]
  0005c	ea000001	 b           |$LN7@Init|
  00060		 |$LN6@Init|
  00060	e3a03000	 mov         r3, #0
  00064	e58d300c	 str         r3, [sp, #0xC]
  00068		 |$LN7@Init|

; 43   :     BOOL bReturn = FALSE;

  00068	e3a03000	 mov         r3, #0
  0006c	e58d3000	 str         r3, [sp]

; 44   :     Lock();

  00070	e59d3020	 ldr         r3, [sp, #0x20]
  00074	e2830008	 add         r0, r3, #8
  00078	eb000000	 bl          |?Lock@CLockObject@@QAAXXZ|

; 45   :     m_bConfigurationValue= bConfigurationValue;

  0007c	e59d3020	 ldr         r3, [sp, #0x20]
  00080	e283202b	 add         r2, r3, #0x2B
  00084	e5dd3028	 ldrb        r3, [sp, #0x28]
  00088	e5c23000	 strb        r3, [r2]

; 46   :     m_bInterfaceNumber = bInterfaceNumber;

  0008c	e59d3020	 ldr         r3, [sp, #0x20]
  00090	e283202c	 add         r2, r3, #0x2C
  00094	e5dd302c	 ldrb        r3, [sp, #0x2C]
  00098	e5c23000	 strb        r3, [r2]

; 47   :     m_bAlternateSetting =bAlternateSetting;

  0009c	e59d3020	 ldr         r3, [sp, #0x20]
  000a0	e283202d	 add         r2, r3, #0x2D
  000a4	e5dd3030	 ldrb        r3, [sp, #0x30]
  000a8	e5c23000	 strb        r3, [r2]

; 48   : #ifndef BULVERDE_MULTI_INTEFACE_FIXED
; 49   :     m_bInterfaceNumber = 0;

  000ac	e59d3020	 ldr         r3, [sp, #0x20]
  000b0	e283202c	 add         r2, r3, #0x2C
  000b4	e3a03000	 mov         r3, #0
  000b8	e5c23000	 strb        r3, [r2]

; 50   :     m_bAlternateSetting =0;

  000bc	e59d3020	 ldr         r3, [sp, #0x20]
  000c0	e283202d	 add         r2, r3, #0x2D
  000c4	e3a03000	 mov         r3, #0
  000c8	e5c23000	 strb        r3, [r2]

; 51   : #endif
; 52   :     m_fZeroPacket = FALSE;

  000cc	e59d3020	 ldr         r3, [sp, #0x20]
  000d0	e2832038	 add         r2, r3, #0x38
  000d4	e3a03000	 mov         r3, #0
  000d8	e5823000	 str         r3, [r2]

; 53   :     m_fStalled = FALSE;

  000dc	e59d3020	 ldr         r3, [sp, #0x20]
  000e0	e283203c	 add         r2, r3, #0x3C
  000e4	e3a03000	 mov         r3, #0
  000e8	e5823000	 str         r3, [r2]

; 54   :     // Change address according
; 55   :     
; 56   :     if ( pEndpointDesc && m_pUsbDevice!=NULL && m_dwEndpointIndex < MAX_ENDPOINT_NUMBER) {

  000ec	e59d3024	 ldr         r3, [sp, #0x24]
  000f0	e3530000	 cmp         r3, #0
  000f4	0a000024	 beq         |$LN1@Init|
  000f8	e59d3020	 ldr         r3, [sp, #0x20]
  000fc	e283301c	 add         r3, r3, #0x1C
  00100	e5933000	 ldr         r3, [r3]
  00104	e3530000	 cmp         r3, #0
  00108	0a00001f	 beq         |$LN1@Init|
  0010c	e59d3020	 ldr         r3, [sp, #0x20]
  00110	e2833020	 add         r3, r3, #0x20
  00114	e5933000	 ldr         r3, [r3]
  00118	e3530018	 cmp         r3, #0x18
  0011c	2a00001a	 bcs         |$LN1@Init|

; 57   :         pEndpointDesc->bEndpointAddress = (UCHAR)((pEndpointDesc->bEndpointAddress & 0x80) | m_dwEndpointIndex);

  00120	e59d3024	 ldr         r3, [sp, #0x24]
  00124	e2833002	 add         r3, r3, #2
  00128	e5d33000	 ldrb        r3, [r3]
  0012c	e2032080	 and         r2, r3, #0x80
  00130	e59d3020	 ldr         r3, [sp, #0x20]
  00134	e2833020	 add         r3, r3, #0x20
  00138	e5933000	 ldr         r3, [r3]
  0013c	e1823003	 orr         r3, r2, r3
  00140	e20320ff	 and         r2, r3, #0xFF
  00144	e59d3024	 ldr         r3, [sp, #0x24]
  00148	e2833002	 add         r3, r3, #2
  0014c	e5c32000	 strb        r2, [r3]

; 58   :         m_epDesc = *pEndpointDesc;

  00150	e59d1024	 ldr         r1, [sp, #0x24]
  00154	e59d3020	 ldr         r3, [sp, #0x20]
  00158	e2830024	 add         r0, r3, #0x24
  0015c	e3a02007	 mov         r2, #7
  00160	eb000000	 bl          memcpy

; 59   :         bReturn = ReInit();

  00164	e59d3020	 ldr         r3, [sp, #0x20]
  00168	e5933000	 ldr         r3, [r3]
  0016c	e2833008	 add         r3, r3, #8
  00170	e59d0020	 ldr         r0, [sp, #0x20]
  00174	e5933000	 ldr         r3, [r3]
  00178	e1a0e00f	 mov         lr, pc
  0017c	e12fff13	 bx          r3
  00180	e58d0010	 str         r0, [sp, #0x10]
  00184	e59d3010	 ldr         r3, [sp, #0x10]
  00188	e58d3000	 str         r3, [sp]
  0018c		 |$LN1@Init|

; 60   :     }
; 61   :     Unlock();

  0018c	e59d3020	 ldr         r3, [sp, #0x20]
  00190	e2830008	 add         r0, r3, #8
  00194	eb000000	 bl          |?Unlock@CLockObject@@QAAXXZ|

; 62   :     FUNCTION_LEAVE_MSG();

  00198	e59f3064	 ldr         r3, [pc, #0x64]
  0019c	e5933440	 ldr         r3, [r3, #0x440]
  001a0	e3130a01	 tst         r3, #1, 20
  001a4	0a00000d	 beq         |$LN10@Init|
  001a8	e59f3054	 ldr         r3, [pc, #0x54]
  001ac	e5933440	 ldr         r3, [r3, #0x440]
  001b0	e3130801	 tst         r3, #1, 16
  001b4	0a000003	 beq         |$LN8@Init|
  001b8	e59d1004	 ldr         r1, [sp, #4]
  001bc	e59f003c	 ldr         r0, [pc, #0x3C]
  001c0	eb000000	 bl          CeLogMsg
  001c4	ea000002	 b           |$LN9@Init|
  001c8		 |$LN8@Init|
  001c8	e59d1004	 ldr         r1, [sp, #4]
  001cc	e59f002c	 ldr         r0, [pc, #0x2C]
  001d0	eb000000	 bl          NKDbgPrintfW
  001d4		 |$LN9@Init|
  001d4	e3a03001	 mov         r3, #1
  001d8	e58d3014	 str         r3, [sp, #0x14]
  001dc	ea000001	 b           |$LN11@Init|
  001e0		 |$LN10@Init|
  001e0	e3a03000	 mov         r3, #0
  001e4	e58d3014	 str         r3, [sp, #0x14]
  001e8		 |$LN11@Init|

; 63   :     return bReturn;

  001e8	e59d3000	 ldr         r3, [sp]
  001ec	e58d3008	 str         r3, [sp, #8]

; 64   : }

  001f0	e59d0008	 ldr         r0, [sp, #8]
  001f4	e28dd018	 add         sp, sp, #0x18
  001f8	e89d6000	 ldmia       sp, {sp, lr}
  001fc	e12fff1e	 bx          lr
  00200		 |$LN15@Init|
  00200		 |$LN16@Init|
  00200	00000000	 DCD         |??_C@_1BA@PLOOFDPK@?$AA?$CF?$AAs?$AA?5?$AA?9?$AA?9?$AA?$AN?$AA?6?$AA?$AA@|
  00204		 |$LN17@Init|
  00204	00000000	 DCD         |dpCurSettings|
  00208		 |$LN18@Init|
  00208	00000000	 DCD         |??_C@_1BA@DAJPCKDK@?$AA?$CF?$AAs?$AA?5?$AA?$CL?$AA?$CL?$AA?$AN?$AA?6?$AA?$AA@|
  0020c		 |$LN19@Init|
  0020c	00000000	 DCD         |??_C@_1EE@MFOJFFAN@?$AAb?$AAu?$AAl?$AAv?$AAe?$AAr?$AAd?$AAe?$AA_?$AAu?$AAs?$AAb?$AAf?$AAn?$AA?$CB?$AAB?$AAu?$AAl?$AAE?$AAn?$AAd?$AAp?$AAo?$AAi?$AAn?$AAt?$AA?3?$AA?3?$AAI?$AAn?$AAi?$AAt@|
  00210		 |$M38091|

			 ENDP  ; |?Init@BulEndpoint@@UAAHPAU_USB_ENDPOINT_DESCRIPTOR@@EEE@Z|, BulEndpoint::Init

	IMPORT	|EnterCriticalSection|
; File c:\wince600\public\common\oak\inc\csync.h

  00000			 AREA	 |.pdata|, PDATA
|$T38103| DCD	|$LN5@Lock|
	DCD	0x40000703
; Function compile flags: /Odtp

  00000			 AREA	 |.text|, CODE, ARM

  00000		 |?Lock@CLockObject@@QAAXXZ| PROC	; CLockObject::Lock

; 45   :     {

  00000		 |$LN5@Lock|
  00000	e1a0c00d	 mov         r12, sp
  00004	e92d0001	 stmdb       sp!, {r0}
  00008	e92d5000	 stmdb       sp!, {r12, lr}
  0000c		 |$M38100|

; 46   :         EnterCriticalSection( &m_CSection );

  0000c	e59d0008	 ldr         r0, [sp, #8]
  00010	eb000000	 bl          EnterCriticalSection

; 47   :     };

  00014	e89d6000	 ldmia       sp, {sp, lr}
  00018	e12fff1e	 bx          lr
  0001c		 |$M38101|

			 ENDP  ; |?Lock@CLockObject@@QAAXXZ|, CLockObject::Lock

	IMPORT	|LeaveCriticalSection|

  00000			 AREA	 |.pdata|, PDATA
|$T38110| DCD	|$LN5@Unlock|
	DCD	0x40000703
; Function compile flags: /Odtp

  00000			 AREA	 |.text|, CODE, ARM

  00000		 |?Unlock@CLockObject@@QAAXXZ| PROC	; CLockObject::Unlock

; 49   :     {

  00000		 |$LN5@Unlock|
  00000	e1a0c00d	 mov         r12, sp
  00004	e92d0001	 stmdb       sp!, {r0}
  00008	e92d5000	 stmdb       sp!, {r12, lr}
  0000c		 |$M38107|

; 50   :         LeaveCriticalSection( &m_CSection );

  0000c	e59d0008	 ldr         r0, [sp, #8]
  00010	eb000000	 bl          LeaveCriticalSection

; 51   :     };

  00014	e89d6000	 ldmia       sp, {sp, lr}
  00018	e12fff1e	 bx          lr
  0001c		 |$M38108|

			 ENDP  ; |?Unlock@CLockObject@@QAAXXZ|, CLockObject::Unlock

	EXPORT	|__$ArrayPad$| [ DATA ]
	IMPORT	|CeLogData|
	IMPORT	|StringCchLengthW|
	IMPORT	|StringCchVPrintfW|
	IMPORT	|__security_cookie|
	IMPORT	|__GSHandlerCheck|
	IMPORT	|__security_check_cookie|

  00008			 AREA	 |.pdata|, PDATA
|$T38126| DCD	|$LN7@CeLogMsg|
	DCD	0xc0003704

  00000			 AREA	 |.xdata|, DATA
|$T38122| DCD	0xffffffcc
; Function compile flags: /Odtp
; File c:\wince600\public\common\sdk\inc\celog.h

  00210			 AREA	 |.text|, CODE, ARM

  00210	00000000	 DCD         |__GSHandlerCheck|
  00214	00000000	 DCD         |$T38122|

  00218		 |CeLogMsg| PROC

; 1020 : {

  00218		 |$LN7@CeLogMsg|
  00218	e1a0c00d	 mov         r12, sp
  0021c	e92d000f	 stmdb       sp!, {r0 - r3}
  00220	e92d5000	 stmdb       sp!, {r12, lr}
  00224	e24ddd09	 sub         sp, sp, #9, 26
  00228		 |$M38123|
  00228	e59f30c0	 ldr         r3, [pc, #0xC0]
  0022c	e5933000	 ldr         r3, [r3]
  00230	e58d3224	 str         r3, [sp, #0x224]

; 1021 :     va_list arglist;
; 1022 :     WCHAR   szTemp[MAX_PATH];
; 1023 :     size_t  cchLen;
; 1024 :     HRESULT hr;
; 1025 : 
; 1026 :     // Compose a single string using the input args
; 1027 :     va_start(arglist, szFormat);

  00234	e28d3f92	 add         r3, sp, #0x92, 30
  00238	e2833004	 add         r3, r3, #4
  0023c	e58d3010	 str         r3, [sp, #0x10]

; 1028 :     hr = StringCchVPrintfW(szTemp, MAX_PATH, szFormat, arglist);

  00240	e59d3010	 ldr         r3, [sp, #0x10]
  00244	e59d2248	 ldr         r2, [sp, #0x248]
  00248	e3a01f41	 mov         r1, #0x41, 30
  0024c	e28d0014	 add         r0, sp, #0x14
  00250	eb000000	 bl          StringCchVPrintfW
  00254	e58d0238	 str         r0, [sp, #0x238]
  00258	e59d3238	 ldr         r3, [sp, #0x238]
  0025c	e58d321c	 str         r3, [sp, #0x21C]

; 1029 :     if (SUCCEEDED(hr)) {

  00260	e59d321c	 ldr         r3, [sp, #0x21C]
  00264	e3530000	 cmp         r3, #0
  00268	ba00001b	 blt         |$LN2@CeLogMsg|

; 1030 :         hr = StringCchLengthW(szTemp, MAX_PATH, &cchLen);

  0026c	e28d2e22	 add         r2, sp, #0x22, 28
  00270	e3a01f41	 mov         r1, #0x41, 30
  00274	e28d0014	 add         r0, sp, #0x14
  00278	eb000000	 bl          StringCchLengthW
  0027c	e58d023c	 str         r0, [sp, #0x23C]
  00280	e59d323c	 ldr         r3, [sp, #0x23C]
  00284	e58d321c	 str         r3, [sp, #0x21C]

; 1031 :         if (SUCCEEDED(hr)) {

  00288	e59d321c	 ldr         r3, [sp, #0x21C]
  0028c	e3530000	 cmp         r3, #0
  00290	ba000011	 blt         |$LN1@CeLogMsg|

; 1032 :             CeLogData(TRUE, CELID_RAW_WCHAR, szTemp, (WORD)((cchLen + 1) * sizeof(WCHAR)),
; 1033 :                       0, CELZONE_ALWAYSON, 0, FALSE);

  00294	e3a03000	 mov         r3, #0
  00298	e58d300c	 str         r3, [sp, #0xC]
  0029c	e3a03000	 mov         r3, #0
  002a0	e58d3008	 str         r3, [sp, #8]
  002a4	e3a03101	 mov         r3, #1, 2
  002a8	e58d3004	 str         r3, [sp, #4]
  002ac	e3a03000	 mov         r3, #0
  002b0	e58d3000	 str         r3, [sp]
  002b4	e59d3220	 ldr         r3, [sp, #0x220]
  002b8	e2832001	 add         r2, r3, #1
  002bc	e3a03002	 mov         r3, #2
  002c0	e0030392	 mul         r3, r2, r3
  002c4	e1a03803	 mov         r3, r3, lsl #16
  002c8	e1a03823	 mov         r3, r3, lsr #16
  002cc	e28d2014	 add         r2, sp, #0x14
  002d0	e3a0104a	 mov         r1, #0x4A
  002d4	e3a00001	 mov         r0, #1
  002d8	eb000000	 bl          CeLogData
  002dc		 |$LN1@CeLogMsg|
  002dc		 |$LN2@CeLogMsg|

; 1020 : {

  002dc	e59d0224	 ldr         r0, [sp, #0x224]
  002e0	eb000000	 bl          __security_check_cookie

; 1034 :         }
; 1035 :     }
; 1036 : }

  002e4	e28ddd09	 add         sp, sp, #9, 26
  002e8	e89d6000	 ldmia       sp, {sp, lr}
  002ec	e12fff1e	 bx          lr
  002f0		 |$LN8@CeLogMsg|
  002f0		 |$LN9@CeLogMsg|
  002f0	00000000	 DCD         |__security_cookie|
  002f4		 |$M38124|

			 ENDP  ; |CeLogMsg|

	EXPORT	|??_C@_1DO@GBPHEMNG@?$AA?$CF?$AAs?$AA?$CI?$AA?$CF?$AAd?$AA?$CJ?$AA?5?$AAu?$AAd?$AAc?$AAc?$AAr?$AAa?$AAx?$AA?4?$AAu?$AAl?$AAV?$AAa?$AAl?$AAu?$AAe?$AA?$DN?$AA?5?$AA0?$AAx?$AA?$CF?$AAx?$AA?$AN?$AA?6?$AA?$AA@| [ DATA ] ; `string'
	EXPORT	|?WriteConfigurationRegister@BulEndpoint@@QAAXK@Z| ; BulEndpoint::WriteConfigurationRegister
	EXPORT	|??_C@_1DM@PLOFKHCM@?$AA?$CF?$AAs?$AA?5?$AA?$CI?$AA?$CF?$AAd?$AA?$CJ?$AAu?$AAd?$AAc?$AAc?$AAs?$AAr?$AA?4?$AAu?$AAl?$AAV?$AAa?$AAl?$AAu?$AAe?$AA?$DN?$AA?5?$AA0?$AAx?$AA?$CF?$AAx?$AA?$AN?$AA?6?$AA?$AA@| [ DATA ] ; `string'
	EXPORT	|?WriteControlStatusRegister@BulEndpoint@@QAAXK@Z| ; BulEndpoint::WriteControlStatusRegister
	EXPORT	|??_C@_1EI@PDFKANDM@?$AAb?$AAu?$AAl?$AAv?$AAe?$AAr?$AAd?$AAe?$AA_?$AAu?$AAs?$AAb?$AAf?$AAn?$AA?$CB?$AAB?$AAu?$AAl?$AAE?$AAn?$AAd?$AAp?$AAo?$AAi?$AAn?$AAt?$AA?3?$AA?3?$AAR?$AAe?$AAI?$AAn@| [ DATA ] ; `string'
	EXPORT	|?ReInit@BulEndpoint@@UAAHXZ|		; BulEndpoint::ReInit

  00010			 AREA	 |.pdata|, PDATA
|$T38152| DCD	|$LN25@ReInit|
	DCD	0x40010104
; File c:\wince600\platform\common\src\soc\pxa27x_ms_v1\usbfn\bul_usbfn.cpp

  00000			 AREA	 |.rdata|, DATA, READONLY
|??_C@_1DO@GBPHEMNG@?$AA?$CF?$AAs?$AA?$CI?$AA?$CF?$AAd?$AA?$CJ?$AA?5?$AAu?$AAd?$AAc?$AAc?$AAr?$AAa?$AAx?$AA?4?$AAu?$AAl?$AAV?$AAa?$AAl?$AAu?$AAe?$AA?$DN?$AA?5?$AA0?$AAx?$AA?$CF?$AAx?$AA?$AN?$AA?6?$AA?$AA@| DCB "%"
	DCB	0x0, "s", 0x0, "(", 0x0, "%", 0x0, "d", 0x0, ")", 0x0, " "
	DCB	0x0, "u", 0x0, "d", 0x0, "c", 0x0, "c", 0x0, "r", 0x0, "a"
	DCB	0x0, "x", 0x0, ".", 0x0, "u", 0x0, "l", 0x0, "V", 0x0, "a"
	DCB	0x0, "l", 0x0, "u", 0x0, "e", 0x0, "=", 0x0, " ", 0x0, "0"
	DCB	0x0, "x", 0x0, "%", 0x0, "x", 0x0, 0xd, 0x0, 0xa, 0x0, 0x0
	DCB	0x0					; `string'

  00000			 AREA	 |.rdata|, DATA, READONLY
|??_C@_1DM@PLOFKHCM@?$AA?$CF?$AAs?$AA?5?$AA?$CI?$AA?$CF?$AAd?$AA?$CJ?$AAu?$AAd?$AAc?$AAc?$AAs?$AAr?$AA?4?$AAu?$AAl?$AAV?$AAa?$AAl?$AAu?$AAe?$AA?$DN?$AA?5?$AA0?$AAx?$AA?$CF?$AAx?$AA?$AN?$AA?6?$AA?$AA@| DCB "%"
	DCB	0x0, "s", 0x0, " ", 0x0, "(", 0x0, "%", 0x0, "d", 0x0, ")"
	DCB	0x0, "u", 0x0, "d", 0x0, "c", 0x0, "c", 0x0, "s", 0x0, "r"
	DCB	0x0, ".", 0x0, "u", 0x0, "l", 0x0, "V", 0x0, "a", 0x0, "l"
	DCB	0x0, "u", 0x0, "e", 0x0, "=", 0x0, " ", 0x0, "0", 0x0, "x"
	DCB	0x0, "%", 0x0, "x", 0x0, 0xd, 0x0, 0xa, 0x0, 0x0, 0x0 ; `string'

  00000			 AREA	 |.rdata|, DATA, READONLY
|??_C@_1EI@PDFKANDM@?$AAb?$AAu?$AAl?$AAv?$AAe?$AAr?$AAd?$AAe?$AA_?$AAu?$AAs?$AAb?$AAf?$AAn?$AA?$CB?$AAB?$AAu?$AAl?$AAE?$AAn?$AAd?$AAp?$AAo?$AAi?$AAn?$AAt?$AA?3?$AA?3?$AAR?$AAe?$AAI?$AAn@| DCB "b"
	DCB	0x0, "u", 0x0, "l", 0x0, "v", 0x0, "e", 0x0, "r", 0x0, "d"
	DCB	0x0, "e", 0x0, "_", 0x0, "u", 0x0, "s", 0x0, "b", 0x0, "f"
	DCB	0x0, "n", 0x0, "!", 0x0, "B", 0x0, "u", 0x0, "l", 0x0, "E"
	DCB	0x0, "n", 0x0, "d", 0x0, "p", 0x0, "o", 0x0, "i", 0x0, "n"
	DCB	0x0, "t", 0x0, ":", 0x0, ":", 0x0, "R", 0x0, "e", 0x0, "I"
	DCB	0x0, "n", 0x0, "i", 0x0, "t", 0x0, ":", 0x0, 0x0, 0x0 ; `string'
; Function compile flags: /Odtp

  002f4			 AREA	 |.text|, CODE, ARM

  002f4		 |?ReInit@BulEndpoint@@UAAHXZ| PROC	; BulEndpoint::ReInit

; 66   : {

  002f4		 |$LN25@ReInit|
  002f4	e1a0c00d	 mov         r12, sp
  002f8	e92d0001	 stmdb       sp!, {r0}
  002fc	e92d5000	 stmdb       sp!, {r12, lr}
  00300	e24dd028	 sub         sp, sp, #0x28
  00304		 |$M38149|

; 67   :     SETFNAME();

  00304	e59f33e8	 ldr         r3, [pc, #0x3E8]
  00308	e58d3004	 str         r3, [sp, #4]

; 68   :     FUNCTION_ENTER_MSG();

  0030c	e59f33d0	 ldr         r3, [pc, #0x3D0]
  00310	e5933440	 ldr         r3, [r3, #0x440]
  00314	e3130a01	 tst         r3, #1, 20
  00318	0a00000d	 beq         |$LN7@ReInit|
  0031c	e59f33c0	 ldr         r3, [pc, #0x3C0]
  00320	e5933440	 ldr         r3, [r3, #0x440]
  00324	e3130801	 tst         r3, #1, 16
  00328	0a000003	 beq         |$LN5@ReInit|
  0032c	e59d1004	 ldr         r1, [sp, #4]
  00330	e59f03b8	 ldr         r0, [pc, #0x3B8]
  00334	eb000000	 bl          CeLogMsg
  00338	ea000002	 b           |$LN6@ReInit|
  0033c		 |$LN5@ReInit|
  0033c	e59d1004	 ldr         r1, [sp, #4]
  00340	e59f03a8	 ldr         r0, [pc, #0x3A8]
  00344	eb000000	 bl          NKDbgPrintfW
  00348		 |$LN6@ReInit|
  00348	e3a03001	 mov         r3, #1
  0034c	e58d3014	 str         r3, [sp, #0x14]
  00350	ea000001	 b           |$LN8@ReInit|
  00354		 |$LN7@ReInit|
  00354	e3a03000	 mov         r3, #0
  00358	e58d3014	 str         r3, [sp, #0x14]
  0035c		 |$LN8@ReInit|

; 69   :     UDCCSR udccsr;
; 70   :     udccsr.ulValue = 0;

  0035c	e3a03000	 mov         r3, #0
  00360	e58d3008	 str         r3, [sp, #8]

; 71   :     udccsr.epbit.PC = udccsr.epbit.TRN= udccsr.epbit.SST = udccsr.epbit.FEF =1;

  00364	e59d3008	 ldr         r3, [sp, #8]
  00368	e3833c01	 orr         r3, r3, #1, 24
  0036c	e58d3008	 str         r3, [sp, #8]
  00370	e59d3008	 ldr         r3, [sp, #8]
  00374	e3833010	 orr         r3, r3, #0x10
  00378	e58d3008	 str         r3, [sp, #8]
  0037c	e59d3008	 ldr         r3, [sp, #8]
  00380	e3833004	 orr         r3, r3, #4
  00384	e58d3008	 str         r3, [sp, #8]
  00388	e59d3008	 ldr         r3, [sp, #8]
  0038c	e3833002	 orr         r3, r3, #2
  00390	e58d3008	 str         r3, [sp, #8]

; 72   :     WriteControlStatusRegister(udccsr.ulValue);

  00394	e59d1008	 ldr         r1, [sp, #8]
  00398	e59d0030	 ldr         r0, [sp, #0x30]
  0039c	eb000000	 bl          |?WriteControlStatusRegister@BulEndpoint@@QAAXK@Z|

; 73   :     DEBUGMSG(ZONE_INIT, (_T("%s (%d)udccsr.ulValue= 0x%x\r\n"),pszFname,m_dwEndpointIndex,udccsr.ulValue));

  003a0	e59f333c	 ldr         r3, [pc, #0x33C]
  003a4	e5933440	 ldr         r3, [r3, #0x440]
  003a8	e3130004	 tst         r3, #4
  003ac	0a000015	 beq         |$LN11@ReInit|
  003b0	e59f332c	 ldr         r3, [pc, #0x32C]
  003b4	e5933440	 ldr         r3, [r3, #0x440]
  003b8	e3130801	 tst         r3, #1, 16
  003bc	0a000007	 beq         |$LN9@ReInit|
  003c0	e59d3008	 ldr         r3, [sp, #8]
  003c4	e59d2030	 ldr         r2, [sp, #0x30]
  003c8	e2822020	 add         r2, r2, #0x20
  003cc	e5922000	 ldr         r2, [r2]
  003d0	e59d1004	 ldr         r1, [sp, #4]
  003d4	e59f0310	 ldr         r0, [pc, #0x310]
  003d8	eb000000	 bl          CeLogMsg
  003dc	ea000006	 b           |$LN10@ReInit|
  003e0		 |$LN9@ReInit|
  003e0	e59d3008	 ldr         r3, [sp, #8]
  003e4	e59d2030	 ldr         r2, [sp, #0x30]
  003e8	e2822020	 add         r2, r2, #0x20
  003ec	e5922000	 ldr         r2, [r2]
  003f0	e59d1004	 ldr         r1, [sp, #4]
  003f4	e59f02f0	 ldr         r0, [pc, #0x2F0]
  003f8	eb000000	 bl          NKDbgPrintfW
  003fc		 |$LN10@ReInit|
  003fc	e3a03001	 mov         r3, #1
  00400	e58d3018	 str         r3, [sp, #0x18]
  00404	ea000001	 b           |$LN12@ReInit|
  00408		 |$LN11@ReInit|
  00408	e3a03000	 mov         r3, #0
  0040c	e58d3018	 str         r3, [sp, #0x18]
  00410		 |$LN12@ReInit|

; 74   :     
; 75   :     UDCCRAX udccrax;
; 76   :     udccrax.ulValue = 0;

  00410	e3a03000	 mov         r3, #0
  00414	e58d3000	 str         r3, [sp]

; 77   :     udccrax.bit.CN = (m_bConfigurationValue & 3);

  00418	e59d3030	 ldr         r3, [sp, #0x30]
  0041c	e283302b	 add         r3, r3, #0x2B
  00420	e5d33000	 ldrb        r3, [r3]
  00424	e2031003	 and         r1, r3, #3
  00428	e59d2000	 ldr         r2, [sp]
  0042c	e3e03406	 mvn         r3, #6, 8
  00430	e0022003	 and         r2, r2, r3
  00434	e2013003	 and         r3, r1, #3
  00438	e1a03c83	 mov         r3, r3, lsl #25
  0043c	e1823003	 orr         r3, r2, r3
  00440	e58d3000	 str         r3, [sp]

; 78   :     udccrax.bit.ISN = (m_bInterfaceNumber & 0x7);

  00444	e59d3030	 ldr         r3, [sp, #0x30]
  00448	e283302c	 add         r3, r3, #0x2C
  0044c	e5d33000	 ldrb        r3, [r3]
  00450	e2031007	 and         r1, r3, #7
  00454	e59d2000	 ldr         r2, [sp]
  00458	e3e03507	 mvn         r3, #7, 10
  0045c	e0022003	 and         r2, r2, r3
  00460	e2013007	 and         r3, r1, #7
  00464	e1a03b03	 mov         r3, r3, lsl #22
  00468	e1823003	 orr         r3, r2, r3
  0046c	e58d3000	 str         r3, [sp]

; 79   :     udccrax.bit.AISN = m_bAlternateSetting & 0x7;

  00470	e59d3030	 ldr         r3, [sp, #0x30]
  00474	e283302d	 add         r3, r3, #0x2D
  00478	e5d33000	 ldrb        r3, [r3]
  0047c	e2031007	 and         r1, r3, #7
  00480	e59d2000	 ldr         r2, [sp]
  00484	e3e0370e	 mvn         r3, #0xE, 14
  00488	e0022003	 and         r2, r2, r3
  0048c	e2013007	 and         r3, r1, #7
  00490	e1a03983	 mov         r3, r3, lsl #19
  00494	e1823003	 orr         r3, r2, r3
  00498	e58d3000	 str         r3, [sp]

; 80   :     udccrax.bit.EN = m_epDesc.bEndpointAddress & 0xf;

  0049c	e59d3030	 ldr         r3, [sp, #0x30]
  004a0	e2833026	 add         r3, r3, #0x26
  004a4	e5d33000	 ldrb        r3, [r3]
  004a8	e203100f	 and         r1, r3, #0xF
  004ac	e59d2000	 ldr         r2, [sp]
  004b0	e3e0391e	 mvn         r3, #0x1E, 18
  004b4	e0022003	 and         r2, r2, r3
  004b8	e201300f	 and         r3, r1, #0xF
  004bc	e1a03783	 mov         r3, r3, lsl #15
  004c0	e1823003	 orr         r3, r2, r3
  004c4	e58d3000	 str         r3, [sp]

; 81   :     udccrax.bit.ET = m_epDesc.bmAttributes & 0x3;

  004c8	e59d3030	 ldr         r3, [sp, #0x30]
  004cc	e2833027	 add         r3, r3, #0x27
  004d0	e5d33000	 ldrb        r3, [r3]
  004d4	e2031003	 and         r1, r3, #3
  004d8	e59d2000	 ldr         r2, [sp]
  004dc	e3e03a06	 mvn         r3, #6, 20
  004e0	e0022003	 and         r2, r2, r3
  004e4	e2013003	 and         r3, r1, #3
  004e8	e1a03683	 mov         r3, r3, lsl #13
  004ec	e1823003	 orr         r3, r2, r3
  004f0	e58d3000	 str         r3, [sp]

; 82   :     udccrax.bit.ED = ((m_epDesc.bEndpointAddress & 0x80)!=0?1:0);

  004f4	e59d3030	 ldr         r3, [sp, #0x30]
  004f8	e2833026	 add         r3, r3, #0x26
  004fc	e5d33000	 ldrb        r3, [r3]
  00500	e3130080	 tst         r3, #0x80
  00504	0a000002	 beq         |$LN13@ReInit|
  00508	e3a03001	 mov         r3, #1
  0050c	e58d301c	 str         r3, [sp, #0x1C]
  00510	ea000001	 b           |$LN14@ReInit|
  00514		 |$LN13@ReInit|
  00514	e3a03000	 mov         r3, #0
  00518	e58d301c	 str         r3, [sp, #0x1C]
  0051c		 |$LN14@ReInit|
  0051c	e59d101c	 ldr         r1, [sp, #0x1C]
  00520	e59d2000	 ldr         r2, [sp]
  00524	e3e03a01	 mvn         r3, #1, 20
  00528	e0022003	 and         r2, r2, r3
  0052c	e2013001	 and         r3, r1, #1
  00530	e1a03603	 mov         r3, r3, lsl #12
  00534	e1823003	 orr         r3, r2, r3
  00538	e58d3000	 str         r3, [sp]

; 83   :     udccrax.bit.MPS = m_epDesc.wMaxPacketSize & 0x3ff ;

  0053c	e59d3030	 ldr         r3, [sp, #0x30]
  00540	e2831028	 add         r1, r3, #0x28
  00544	e5d13001	 ldrb        r3, [r1, #1]
  00548	e1a03403	 mov         r3, r3, lsl #8
  0054c	e1a02803	 mov         r2, r3, lsl #16
  00550	e1a02822	 mov         r2, r2, lsr #16
  00554	e5d13000	 ldrb        r3, [r1]
  00558	e1833002	 orr         r3, r3, r2
  0055c	e1a02003	 mov         r2, r3
  00560	e3a03c03	 mov         r3, #3, 24
  00564	e38330ff	 orr         r3, r3, #0xFF
  00568	e0021003	 and         r1, r2, r3
  0056c	e59d2000	 ldr         r2, [sp]
  00570	e3e03c0f	 mvn         r3, #0xF, 24
  00574	e22330fc	 eor         r3, r3, #0xFC
  00578	e0022003	 and         r2, r2, r3
  0057c	e3a03c03	 mov         r3, #3, 24
  00580	e38330ff	 orr         r3, r3, #0xFF
  00584	e0013003	 and         r3, r1, r3
  00588	e1a03103	 mov         r3, r3, lsl #2
  0058c	e1823003	 orr         r3, r2, r3
  00590	e58d3000	 str         r3, [sp]

; 84   :     
; 85   :     udccrax.bit.DE = 0;

  00594	e59d2000	 ldr         r2, [sp]
  00598	e3e03002	 mvn         r3, #2
  0059c	e0023003	 and         r3, r2, r3
  005a0	e58d3000	 str         r3, [sp]

; 86   :     // Only In and Isochronouse transfer can use double buffer
; 87   :     if (((m_epDesc.bEndpointAddress & 0x80) != 0 || (m_epDesc.bmAttributes & 0x3) == 1 ) && m_fDoubleBuffer)

  005a4	e59d3030	 ldr         r3, [sp, #0x30]
  005a8	e2833026	 add         r3, r3, #0x26
  005ac	e5d33000	 ldrb        r3, [r3]
  005b0	e3130080	 tst         r3, #0x80
  005b4	1a000005	 bne         |$LN1@ReInit|
  005b8	e59d3030	 ldr         r3, [sp, #0x30]
  005bc	e2833027	 add         r3, r3, #0x27
  005c0	e5d33000	 ldrb        r3, [r3]
  005c4	e2033003	 and         r3, r3, #3
  005c8	e3530001	 cmp         r3, #1
  005cc	1a000007	 bne         |$LN2@ReInit|
  005d0		 |$LN1@ReInit|
  005d0	e59d3030	 ldr         r3, [sp, #0x30]
  005d4	e2833030	 add         r3, r3, #0x30
  005d8	e5933000	 ldr         r3, [r3]
  005dc	e3530000	 cmp         r3, #0
  005e0	0a000002	 beq         |$LN2@ReInit|

; 88   :         udccrax.bit.DE = 1 ;

  005e4	e59d3000	 ldr         r3, [sp]
  005e8	e3833002	 orr         r3, r3, #2
  005ec	e58d3000	 str         r3, [sp]
  005f0		 |$LN2@ReInit|

; 89   :         
; 90   :     udccrax.bit.EE = 1;

  005f0	e59d3000	 ldr         r3, [sp]
  005f4	e3833001	 orr         r3, r3, #1
  005f8	e58d3000	 str         r3, [sp]

; 91   :     WriteConfigurationRegister(udccrax.ulValue);

  005fc	e59d1000	 ldr         r1, [sp]
  00600	e59d0030	 ldr         r0, [sp, #0x30]
  00604	eb000000	 bl          |?WriteConfigurationRegister@BulEndpoint@@QAAXK@Z|

; 92   :     DEBUGMSG(ZONE_INIT, (_T("%s(%d) udccrax.ulValue= 0x%x\r\n"),pszFname,m_dwEndpointIndex,udccrax.ulValue));

  00608	e59f30d4	 ldr         r3, [pc, #0xD4]
  0060c	e5933440	 ldr         r3, [r3, #0x440]
  00610	e3130004	 tst         r3, #4
  00614	0a000015	 beq         |$LN17@ReInit|
  00618	e59f30c4	 ldr         r3, [pc, #0xC4]
  0061c	e5933440	 ldr         r3, [r3, #0x440]
  00620	e3130801	 tst         r3, #1, 16
  00624	0a000007	 beq         |$LN15@ReInit|
  00628	e59d3000	 ldr         r3, [sp]
  0062c	e59d2030	 ldr         r2, [sp, #0x30]
  00630	e2822020	 add         r2, r2, #0x20
  00634	e5922000	 ldr         r2, [r2]
  00638	e59d1004	 ldr         r1, [sp, #4]
  0063c	e59f00a4	 ldr         r0, [pc, #0xA4]
  00640	eb000000	 bl          CeLogMsg
  00644	ea000006	 b           |$LN16@ReInit|
  00648		 |$LN15@ReInit|
  00648	e59d3000	 ldr         r3, [sp]
  0064c	e59d2030	 ldr         r2, [sp, #0x30]
  00650	e2822020	 add         r2, r2, #0x20
  00654	e5922000	 ldr         r2, [r2]
  00658	e59d1004	 ldr         r1, [sp, #4]
  0065c	e59f0084	 ldr         r0, [pc, #0x84]
  00660	eb000000	 bl          NKDbgPrintfW
  00664		 |$LN16@ReInit|
  00664	e3a03001	 mov         r3, #1
  00668	e58d3020	 str         r3, [sp, #0x20]
  0066c	ea000001	 b           |$LN18@ReInit|
  00670		 |$LN17@ReInit|
  00670	e3a03000	 mov         r3, #0
  00674	e58d3020	 str         r3, [sp, #0x20]
  00678		 |$LN18@ReInit|

; 93   :     FUNCTION_LEAVE_MSG();

  00678	e59f3064	 ldr         r3, [pc, #0x64]
  0067c	e5933440	 ldr         r3, [r3, #0x440]
  00680	e3130a01	 tst         r3, #1, 20
  00684	0a00000d	 beq         |$LN21@ReInit|
  00688	e59f3054	 ldr         r3, [pc, #0x54]
  0068c	e5933440	 ldr         r3, [r3, #0x440]
  00690	e3130801	 tst         r3, #1, 16
  00694	0a000003	 beq         |$LN19@ReInit|
  00698	e59d1004	 ldr         r1, [sp, #4]
  0069c	e59f003c	 ldr         r0, [pc, #0x3C]
  006a0	eb000000	 bl          CeLogMsg
  006a4	ea000002	 b           |$LN20@ReInit|
  006a8		 |$LN19@ReInit|
  006a8	e59d1004	 ldr         r1, [sp, #4]
  006ac	e59f002c	 ldr         r0, [pc, #0x2C]
  006b0	eb000000	 bl          NKDbgPrintfW
  006b4		 |$LN20@ReInit|
  006b4	e3a03001	 mov         r3, #1
  006b8	e58d3024	 str         r3, [sp, #0x24]
  006bc	ea000001	 b           |$LN22@ReInit|
  006c0		 |$LN21@ReInit|
  006c0	e3a03000	 mov         r3, #0
  006c4	e58d3024	 str         r3, [sp, #0x24]
  006c8		 |$LN22@ReInit|

; 94   :     return TRUE;

  006c8	e3a03001	 mov         r3, #1
  006cc	e58d3010	 str         r3, [sp, #0x10]

; 95   : }

  006d0	e59d0010	 ldr         r0, [sp, #0x10]
  006d4	e28dd028	 add         sp, sp, #0x28
  006d8	e89d6000	 ldmia       sp, {sp, lr}
  006dc	e12fff1e	 bx          lr
  006e0		 |$LN26@ReInit|
  006e0		 |$LN27@ReInit|
  006e0	00000000	 DCD         |??_C@_1BA@PLOOFDPK@?$AA?$CF?$AAs?$AA?5?$AA?9?$AA?9?$AA?$AN?$AA?6?$AA?$AA@|
  006e4		 |$LN28@ReInit|
  006e4	00000000	 DCD         |dpCurSettings|
  006e8		 |$LN29@ReInit|
  006e8	00000000	 DCD         |??_C@_1DO@GBPHEMNG@?$AA?$CF?$AAs?$AA?$CI?$AA?$CF?$AAd?$AA?$CJ?$AA?5?$AAu?$AAd?$AAc?$AAc?$AAr?$AAa?$AAx?$AA?4?$AAu?$AAl?$AAV?$AAa?$AAl?$AAu?$AAe?$AA?$DN?$AA?5?$AA0?$AAx?$AA?$CF?$AAx?$AA?$AN?$AA?6?$AA?$AA@|
  006ec		 |$LN30@ReInit|
  006ec	00000000	 DCD         |??_C@_1DM@PLOFKHCM@?$AA?$CF?$AAs?$AA?5?$AA?$CI?$AA?$CF?$AAd?$AA?$CJ?$AAu?$AAd?$AAc?$AAc?$AAs?$AAr?$AA?4?$AAu?$AAl?$AAV?$AAa?$AAl?$AAu?$AAe?$AA?$DN?$AA?5?$AA0?$AAx?$AA?$CF?$AAx?$AA?$AN?$AA?6?$AA?$AA@|
  006f0		 |$LN31@ReInit|
  006f0	00000000	 DCD         |??_C@_1BA@DAJPCKDK@?$AA?$CF?$AAs?$AA?5?$AA?$CL?$AA?$CL?$AA?$AN?$AA?6?$AA?$AA@|
  006f4		 |$LN32@ReInit|
  006f4	00000000	 DCD         |??_C@_1EI@PDFKANDM@?$AAb?$AAu?$AAl?$AAv?$AAe?$AAr?$AAd?$AAe?$AA_?$AAu?$AAs?$AAb?$AAf?$AAn?$AA?$CB?$AAB?$AAu?$AAl?$AAE?$AAn?$AAd?$AAp?$AAo?$AAi?$AAn?$AAt?$AA?3?$AA?3?$AAR?$AAe?$AAI?$AAn@|
  006f8		 |$M38150|

			 ENDP  ; |?ReInit@BulEndpoint@@UAAHXZ|, BulEndpoint::ReInit

	EXPORT	|?WriteUDCRegister@BulUsbDevice@@QAAXKK@Z| ; BulUsbDevice::WriteUDCRegister
	EXPORT	|??_C@_1FK@FNONLNGN@?$AA?$CF?$AAs?$AA?3?$AA?5?$AAD?$AAE?$AAB?$AAU?$AAG?$AAC?$AAH?$AAK?$AA?5?$AAf?$AAa?$AAi?$AAl?$AAe?$AAd?$AA?5?$AAi?$AAn?$AA?5?$AAf?$AAi?$AAl?$AAe?$AA?5?$AA?$CF?$AAs?$AA?5?$AAa@| [ DATA ] ; `string'
	EXPORT	|??_C@_1BA@LEPJIIOK@?$AAU?$AAn?$AAk?$AAn?$AAo?$AAw?$AAn?$AA?$AA@| [ DATA ] ; `string'
	EXPORT	|??_C@_1CG@MKCCFBBJ@?$AA?4?$AA?4?$AA?2?$AAi?$AAn?$AAc?$AA?2?$AAb?$AAu?$AAl?$AA_?$AAu?$AAs?$AAb?$AAf?$AAn?$AA?4?$AAh?$AA?$AA@| [ DATA ] ; `string'
; File c:\wince600\platform\common\src\soc\pxa27x_ms_v1\inc\bul_usbfn.h

  00000			 AREA	 |.pdata|, PDATA
|$T38168| DCD	|$LN9@WriteContr|
	DCD	0x40003504

  00000			 AREA	 |.rdata|, DATA, READONLY
|??_C@_1FK@FNONLNGN@?$AA?$CF?$AAs?$AA?3?$AA?5?$AAD?$AAE?$AAB?$AAU?$AAG?$AAC?$AAH?$AAK?$AA?5?$AAf?$AAa?$AAi?$AAl?$AAe?$AAd?$AA?5?$AAi?$AAn?$AA?5?$AAf?$AAi?$AAl?$AAe?$AA?5?$AA?$CF?$AAs?$AA?5?$AAa@| DCB "%"
	DCB	0x0, "s", 0x0, ":", 0x0, " ", 0x0, "D", 0x0, "E", 0x0, "B"
	DCB	0x0, "U", 0x0, "G", 0x0, "C", 0x0, "H", 0x0, "K", 0x0, " "
	DCB	0x0, "f", 0x0, "a", 0x0, "i", 0x0, "l", 0x0, "e", 0x0, "d"
	DCB	0x0, " ", 0x0, "i", 0x0, "n", 0x0, " ", 0x0, "f", 0x0, "i"
	DCB	0x0, "l", 0x0, "e", 0x0, " ", 0x0, "%", 0x0, "s", 0x0, " "
	DCB	0x0, "a", 0x0, "t", 0x0, " ", 0x0, "l", 0x0, "i", 0x0, "n"
	DCB	0x0, "e", 0x0, " ", 0x0, "%", 0x0, "d", 0x0, " ", 0x0, 0xd
	DCB	0x0, 0xa, 0x0, 0x0, 0x0			; `string'

  00000			 AREA	 |.rdata|, DATA, READONLY
|??_C@_1BA@LEPJIIOK@?$AAU?$AAn?$AAk?$AAn?$AAo?$AAw?$AAn?$AA?$AA@| DCB "U", 0x0
	DCB	"n", 0x0, "k", 0x0, "n", 0x0, "o", 0x0, "w", 0x0, "n", 0x0
	DCB	0x0, 0x0				; `string'

  00000			 AREA	 |.rdata|, DATA, READONLY
|??_C@_1CG@MKCCFBBJ@?$AA?4?$AA?4?$AA?2?$AAi?$AAn?$AAc?$AA?2?$AAb?$AAu?$AAl?$AA_?$AAu?$AAs?$AAb?$AAf?$AAn?$AA?4?$AAh?$AA?$AA@| DCB "."
	DCB	0x0, ".", 0x0, "\\", 0x0, "i", 0x0, "n", 0x0, "c", 0x0, "\\"
	DCB	0x0, "b", 0x0, "u", 0x0, "l", 0x0, "_", 0x0, "u", 0x0, "s"
	DCB	0x0, "b", 0x0, "f", 0x0, "n", 0x0, ".", 0x0, "h", 0x0, 0x0
	DCB	0x0					; `string'
; Function compile flags: /Odtp

  00000			 AREA	 |.text|, CODE, ARM

  00000		 |?WriteControlStatusRegister@BulEndpoint@@QAAXK@Z| PROC ; BulEndpoint::WriteControlStatusRegister

; 281  :     void    WriteControlStatusRegister(DWORD dwData) {

  00000		 |$LN9@WriteContr|
  00000	e1a0c00d	 mov         r12, sp
  00004	e92d0003	 stmdb       sp!, {r0, r1}
  00008	e92d5000	 stmdb       sp!, {r12, lr}
  0000c	e24dd008	 sub         sp, sp, #8
  00010		 |$M38165|

; 282  :         PREFAST_ASSERT(m_pUsbDevice!=NULL);

  00010	e59d3010	 ldr         r3, [sp, #0x10]
  00014	e283301c	 add         r3, r3, #0x1C
  00018	e5933000	 ldr         r3, [r3]
  0001c	e3530000	 cmp         r3, #0
  00020	0a000002	 beq         |$LN3@WriteContr|
  00024	e3a03001	 mov         r3, #1
  00028	e58d3000	 str         r3, [sp]
  0002c	ea000008	 b           |$LN4@WriteContr|
  00030		 |$LN3@WriteContr|
  00030	e3a03c01	 mov         r3, #1, 24
  00034	e383301a	 orr         r3, r3, #0x1A
  00038	e59f2090	 ldr         r2, [pc, #0x90]
  0003c	e59f1088	 ldr         r1, [pc, #0x88]
  00040	e59f0080	 ldr         r0, [pc, #0x80]
  00044	eb000000	 bl          NKDbgPrintfW
  00048	e6000010	 __debugbreak_ce
  0004c	e3a03000	 mov         r3, #0
  00050	e58d3000	 str         r3, [sp]
  00054		 |$LN4@WriteContr|

; 283  :         PREFAST_ASSERT(m_dwEndpointIndex<MAX_ENDPOINT_NUMBER);

  00054	e59d3010	 ldr         r3, [sp, #0x10]
  00058	e2833020	 add         r3, r3, #0x20
  0005c	e5933000	 ldr         r3, [r3]
  00060	e3530018	 cmp         r3, #0x18
  00064	2a000002	 bcs         |$LN5@WriteContr|
  00068	e3a03001	 mov         r3, #1
  0006c	e58d3004	 str         r3, [sp, #4]
  00070	ea000008	 b           |$LN6@WriteContr|
  00074		 |$LN5@WriteContr|
  00074	e3a03c01	 mov         r3, #1, 24
  00078	e383301b	 orr         r3, r3, #0x1B
  0007c	e59f204c	 ldr         r2, [pc, #0x4C]
  00080	e59f1044	 ldr         r1, [pc, #0x44]
  00084	e59f003c	 ldr         r0, [pc, #0x3C]
  00088	eb000000	 bl          NKDbgPrintfW
  0008c	e6000010	 __debugbreak_ce
  00090	e3a03000	 mov         r3, #0
  00094	e58d3004	 str         r3, [sp, #4]
  00098		 |$LN6@WriteContr|

; 284  :         m_pUsbDevice->WriteUDCRegister( ENDPOINT_CONTROL_STATUS_REGISTER_OFFSET + m_dwEndpointIndex,dwData);

  00098	e59d2014	 ldr         r2, [sp, #0x14]
  0009c	e59d3010	 ldr         r3, [sp, #0x10]
  000a0	e2833020	 add         r3, r3, #0x20
  000a4	e5933000	 ldr         r3, [r3]
  000a8	e2831040	 add         r1, r3, #0x40
  000ac	e59d3010	 ldr         r3, [sp, #0x10]
  000b0	e283301c	 add         r3, r3, #0x1C
  000b4	e5930000	 ldr         r0, [r3]
  000b8	eb000000	 bl          |?WriteUDCRegister@BulUsbDevice@@QAAXKK@Z|

; 285  :     };

  000bc	e28dd008	 add         sp, sp, #8
  000c0	e89d6000	 ldmia       sp, {sp, lr}
  000c4	e12fff1e	 bx          lr
  000c8		 |$LN10@WriteContr|
  000c8		 |$LN11@WriteContr|
  000c8	00000000	 DCD         |??_C@_1FK@FNONLNGN@?$AA?$CF?$AAs?$AA?3?$AA?5?$AAD?$AAE?$AAB?$AAU?$AAG?$AAC?$AAH?$AAK?$AA?5?$AAf?$AAa?$AAi?$AAl?$AAe?$AAd?$AA?5?$AAi?$AAn?$AA?5?$AAf?$AAi?$AAl?$AAe?$AA?5?$AA?$CF?$AAs?$AA?5?$AAa@|
  000cc		 |$LN12@WriteContr|
  000cc	00000000	 DCD         |??_C@_1BA@LEPJIIOK@?$AAU?$AAn?$AAk?$AAn?$AAo?$AAw?$AAn?$AA?$AA@|
  000d0		 |$LN13@WriteContr|
  000d0	00000000	 DCD         |??_C@_1CG@MKCCFBBJ@?$AA?4?$AA?4?$AA?2?$AAi?$AAn?$AAc?$AA?2?$AAb?$AAu?$AAl?$AA_?$AAu?$AAs?$AAb?$AAf?$AAn?$AA?4?$AAh?$AA?$AA@|
  000d4		 |$M38166|

			 ENDP  ; |?WriteControlStatusRegister@BulEndpoint@@QAAXK@Z|, BulEndpoint::WriteControlStatusRegister

	IMPORT	|WRITE_REGISTER_ULONG|

  00000			 AREA	 |.pdata|, PDATA
|$T38181| DCD	|$LN7@WriteUDCRe|
	DCD	0x40002304
; Function compile flags: /Odtp

  00000			 AREA	 |.text|, CODE, ARM

  00000		 |?WriteUDCRegister@BulUsbDevice@@QAAXKK@Z| PROC ; BulUsbDevice::WriteUDCRegister

; 121  :     void WriteUDCRegister(DWORD dwOffset, DWORD dwData) { 

  00000		 |$LN7@WriteUDCRe|
  00000	e1a0c00d	 mov         r12, sp
  00004	e92d0007	 stmdb       sp!, {r0 - r2}
  00008	e92d5000	 stmdb       sp!, {r12, lr}
  0000c	e24dd004	 sub         sp, sp, #4
  00010		 |$M38178|

; 122  :         PREFAST_ASSERT(m_pUsbDevReg!=NULL);

  00010	e59d300c	 ldr         r3, [sp, #0xC]
  00014	e2833098	 add         r3, r3, #0x98
  00018	e5933000	 ldr         r3, [r3]
  0001c	e3530000	 cmp         r3, #0
  00020	0a000002	 beq         |$LN3@WriteUDCRe|
  00024	e3a03001	 mov         r3, #1
  00028	e58d3000	 str         r3, [sp]
  0002c	ea000007	 b           |$LN4@WriteUDCRe|
  00030		 |$LN3@WriteUDCRe|
  00030	e3a0307a	 mov         r3, #0x7A
  00034	e59f204c	 ldr         r2, [pc, #0x4C]
  00038	e59f1044	 ldr         r1, [pc, #0x44]
  0003c	e59f003c	 ldr         r0, [pc, #0x3C]
  00040	eb000000	 bl          NKDbgPrintfW
  00044	e6000010	 __debugbreak_ce
  00048	e3a03000	 mov         r3, #0
  0004c	e58d3000	 str         r3, [sp]
  00050		 |$LN4@WriteUDCRe|

; 123  :         WRITE_REGISTER_ULONG(m_pUsbDevReg + dwOffset, dwData);

  00050	e59d1014	 ldr         r1, [sp, #0x14]
  00054	e59d300c	 ldr         r3, [sp, #0xC]
  00058	e283e098	 add         lr, r3, #0x98
  0005c	e59d0010	 ldr         r0, [sp, #0x10]
  00060	e3a03004	 mov         r3, #4
  00064	e0020390	 mul         r2, r0, r3
  00068	e59e3000	 ldr         r3, [lr]
  0006c	e0830002	 add         r0, r3, r2
  00070	eb000000	 bl          WRITE_REGISTER_ULONG

; 124  :     }

  00074	e28dd004	 add         sp, sp, #4
  00078	e89d6000	 ldmia       sp, {sp, lr}
  0007c	e12fff1e	 bx          lr
  00080		 |$LN8@WriteUDCRe|
  00080		 |$LN9@WriteUDCRe|
  00080	00000000	 DCD         |??_C@_1FK@FNONLNGN@?$AA?$CF?$AAs?$AA?3?$AA?5?$AAD?$AAE?$AAB?$AAU?$AAG?$AAC?$AAH?$AAK?$AA?5?$AAf?$AAa?$AAi?$AAl?$AAe?$AAd?$AA?5?$AAi?$AAn?$AA?5?$AAf?$AAi?$AAl?$AAe?$AA?5?$AA?$CF?$AAs?$AA?5?$AAa@|
  00084		 |$LN10@WriteUDCRe|
  00084	00000000	 DCD         |??_C@_1BA@LEPJIIOK@?$AAU?$AAn?$AAk?$AAn?$AAo?$AAw?$AAn?$AA?$AA@|
  00088		 |$LN11@WriteUDCRe|
  00088	00000000	 DCD         |??_C@_1CG@MKCCFBBJ@?$AA?4?$AA?4?$AA?2?$AAi?$AAn?$AAc?$AA?2?$AAb?$AAu?$AAl?$AA_?$AAu?$AAs?$AAb?$AAf?$AAn?$AA?4?$AAh?$AA?$AA@|
  0008c		 |$M38179|

			 ENDP  ; |?WriteUDCRegister@BulUsbDevice@@QAAXKK@Z|, BulUsbDevice::WriteUDCRegister


  00000			 AREA	 |.pdata|, PDATA
|$T38198| DCD	|$LN13@WriteConfi|
	DCD	0x40004704
; Function compile flags: /Odtp

  00000			 AREA	 |.text|, CODE, ARM

  00000		 |?WriteConfigurationRegister@BulEndpoint@@QAAXK@Z| PROC ; BulEndpoint::WriteConfigurationRegister

; 326  :     void    WriteConfigurationRegister(DWORD dwData) {

  00000		 |$LN13@WriteConfi|
  00000	e1a0c00d	 mov         r12, sp
  00004	e92d0003	 stmdb       sp!, {r0, r1}
  00008	e92d5000	 stmdb       sp!, {r12, lr}
  0000c	e24dd00c	 sub         sp, sp, #0xC
  00010		 |$M38195|

; 327  :         PREFAST_ASSERT(m_pUsbDevice!=NULL);

  00010	e59d3014	 ldr         r3, [sp, #0x14]
  00014	e283301c	 add         r3, r3, #0x1C
  00018	e5933000	 ldr         r3, [r3]
  0001c	e3530000	 cmp         r3, #0
  00020	0a000002	 beq         |$LN5@WriteConfi|
  00024	e3a03001	 mov         r3, #1
  00028	e58d3000	 str         r3, [sp]
  0002c	ea000008	 b           |$LN6@WriteConfi|
  00030		 |$LN5@WriteConfi|
  00030	e3a03c01	 mov         r3, #1, 24
  00034	e3833047	 orr         r3, r3, #0x47
  00038	e59f20d8	 ldr         r2, [pc, #0xD8]
  0003c	e59f10d0	 ldr         r1, [pc, #0xD0]
  00040	e59f00c8	 ldr         r0, [pc, #0xC8]
  00044	eb000000	 bl          NKDbgPrintfW
  00048	e6000010	 __debugbreak_ce
  0004c	e3a03000	 mov         r3, #0
  00050	e58d3000	 str         r3, [sp]
  00054		 |$LN6@WriteConfi|

; 328  :         PREFAST_ASSERT(m_dwEndpointIndex<MAX_ENDPOINT_NUMBER);

  00054	e59d3014	 ldr         r3, [sp, #0x14]
  00058	e2833020	 add         r3, r3, #0x20
  0005c	e5933000	 ldr         r3, [r3]
  00060	e3530018	 cmp         r3, #0x18
  00064	2a000002	 bcs         |$LN7@WriteConfi|
  00068	e3a03001	 mov         r3, #1
  0006c	e58d3004	 str         r3, [sp, #4]
  00070	ea000007	 b           |$LN8@WriteConfi|
  00074		 |$LN7@WriteConfi|
  00074	e3a03f52	 mov         r3, #0x52, 30
  00078	e59f2098	 ldr         r2, [pc, #0x98]
  0007c	e59f1090	 ldr         r1, [pc, #0x90]
  00080	e59f0088	 ldr         r0, [pc, #0x88]
  00084	eb000000	 bl          NKDbgPrintfW
  00088	e6000010	 __debugbreak_ce
  0008c	e3a03000	 mov         r3, #0
  00090	e58d3004	 str         r3, [sp, #4]
  00094		 |$LN8@WriteConfi|

; 329  :         if (m_pUsbDevice!=0) { // Endpoint ZERO is not supported

  00094	e59d3014	 ldr         r3, [sp, #0x14]
  00098	e283301c	 add         r3, r3, #0x1C
  0009c	e5933000	 ldr         r3, [r3]
  000a0	e3530000	 cmp         r3, #0
  000a4	0a000009	 beq         |$LN2@WriteConfi|

; 330  :             m_pUsbDevice->WriteUDCRegister( ENDPOINT_CONFIGURATION_REGISTER_OFFSET + m_dwEndpointIndex, dwData );

  000a8	e59d2018	 ldr         r2, [sp, #0x18]
  000ac	e59d3014	 ldr         r3, [sp, #0x14]
  000b0	e2833020	 add         r3, r3, #0x20
  000b4	e5933000	 ldr         r3, [r3]
  000b8	e2831c01	 add         r1, r3, #1, 24
  000bc	e59d3014	 ldr         r3, [sp, #0x14]
  000c0	e283301c	 add         r3, r3, #0x1C
  000c4	e5930000	 ldr         r0, [r3]
  000c8	eb000000	 bl          |?WriteUDCRegister@BulUsbDevice@@QAAXKK@Z|

; 331  :         }
; 332  :         else {

  000cc	ea00000c	 b           |$LN1@WriteConfi|
  000d0		 |$LN2@WriteConfi|

; 333  :             ASSERT(FALSE);

  000d0	ea000002	 b           |$LN9@WriteConfi|
  000d4	e3a03001	 mov         r3, #1
  000d8	e58d3008	 str         r3, [sp, #8]
  000dc	ea000008	 b           |$LN10@WriteConfi|
  000e0		 |$LN9@WriteConfi|
  000e0	e3a03c01	 mov         r3, #1, 24
  000e4	e383304d	 orr         r3, r3, #0x4D
  000e8	e59f2028	 ldr         r2, [pc, #0x28]
  000ec	e59f1020	 ldr         r1, [pc, #0x20]
  000f0	e59f0018	 ldr         r0, [pc, #0x18]
  000f4	eb000000	 bl          NKDbgPrintfW
  000f8	e6000010	 __debugbreak_ce
  000fc	e3a03000	 mov         r3, #0
  00100	e58d3008	 str         r3, [sp, #8]
  00104		 |$LN10@WriteConfi|
  00104		 |$LN1@WriteConfi|

; 334  :         }
; 335  :     }

  00104	e28dd00c	 add         sp, sp, #0xC
  00108	e89d6000	 ldmia       sp, {sp, lr}
  0010c	e12fff1e	 bx          lr
  00110		 |$LN14@WriteConfi|
  00110		 |$LN15@WriteConfi|
  00110	00000000	 DCD         |??_C@_1FK@FNONLNGN@?$AA?$CF?$AAs?$AA?3?$AA?5?$AAD?$AAE?$AAB?$AAU?$AAG?$AAC?$AAH?$AAK?$AA?5?$AAf?$AAa?$AAi?$AAl?$AAe?$AAd?$AA?5?$AAi?$AAn?$AA?5?$AAf?$AAi?$AAl?$AAe?$AA?5?$AA?$CF?$AAs?$AA?5?$AAa@|
  00114		 |$LN16@WriteConfi|
  00114	00000000	 DCD         |??_C@_1BA@LEPJIIOK@?$AAU?$AAn?$AAk?$AAn?$AAo?$AAw?$AAn?$AA?$AA@|
  00118		 |$LN17@WriteConfi|
  00118	00000000	 DCD         |??_C@_1CG@MKCCFBBJ@?$AA?4?$AA?4?$AA?2?$AAi?$AAn?$AAc?$AA?2?$AAb?$AAu?$AAl?$AA_?$AAu?$AAs?$AAb?$AAf?$AAn?$AA?4?$AAh?$AA?$AA@|
  0011c		 |$M38196|

			 ENDP  ; |?WriteConfigurationRegister@BulEndpoint@@QAAXK@Z|, BulEndpoint::WriteConfigurationRegister

	EXPORT	|?ReadControlStatusRegister@BulEndpoint@@QAAKXZ| ; BulEndpoint::ReadControlStatusRegister
	EXPORT	|??_C@_1FG@NEBCBPOL@?$AAb?$AAu?$AAl?$AAv?$AAe?$AAr?$AAd?$AAe?$AA_?$AAu?$AAs?$AAb?$AAf?$AAn?$AA?$CB?$AAB?$AAu?$AAl?$AAE?$AAn?$AAd?$AAp?$AAo?$AAi?$AAn?$AAt?$AA?3?$AA?3?$AAS?$AAt?$AAa?$AAl@| [ DATA ] ; `string'
	EXPORT	|?StallEndpoint@BulEndpoint@@UAAKXZ|	; BulEndpoint::StallEndpoint

  00018			 AREA	 |.pdata|, PDATA
|$T38218| DCD	|$LN13@StallEndpo|
	DCD	0x40005c04
; File c:\wince600\platform\common\src\soc\pxa27x_ms_v1\usbfn\bul_usbfn.cpp

  00000			 AREA	 |.rdata|, DATA, READONLY
|??_C@_1FG@NEBCBPOL@?$AAb?$AAu?$AAl?$AAv?$AAe?$AAr?$AAd?$AAe?$AA_?$AAu?$AAs?$AAb?$AAf?$AAn?$AA?$CB?$AAB?$AAu?$AAl?$AAE?$AAn?$AAd?$AAp?$AAo?$AAi?$AAn?$AAt?$AA?3?$AA?3?$AAS?$AAt?$AAa?$AAl@| DCB "b"
	DCB	0x0, "u", 0x0, "l", 0x0, "v", 0x0, "e", 0x0, "r", 0x0, "d"
	DCB	0x0, "e", 0x0, "_", 0x0, "u", 0x0, "s", 0x0, "b", 0x0, "f"
	DCB	0x0, "n", 0x0, "!", 0x0, "B", 0x0, "u", 0x0, "l", 0x0, "E"
	DCB	0x0, "n", 0x0, "d", 0x0, "p", 0x0, "o", 0x0, "i", 0x0, "n"
	DCB	0x0, "t", 0x0, ":", 0x0, ":", 0x0, "S", 0x0, "t", 0x0, "a"
	DCB	0x0, "l", 0x0, "l", 0x0, "E", 0x0, "n", 0x0, "d", 0x0, "p"
	DCB	0x0, "o", 0x0, "i", 0x0, "n", 0x0, "t", 0x0, ":", 0x0, 0x0
	DCB	0x0					; `string'
; Function compile flags: /Odtp

  006f8			 AREA	 |.text|, CODE, ARM

  006f8		 |?StallEndpoint@BulEndpoint@@UAAKXZ| PROC ; BulEndpoint::StallEndpoint

; 97   : {

  006f8		 |$LN13@StallEndpo|
  006f8	e1a0c00d	 mov         r12, sp
  006fc	e92d0001	 stmdb       sp!, {r0}
  00700	e92d5000	 stmdb       sp!, {r12, lr}
  00704	e24dd024	 sub         sp, sp, #0x24
  00708		 |$M38215|

; 98   :     UDCCSR udccsr, udccsrWrite;
; 99   :     SETFNAME();

  00708	e59f3154	 ldr         r3, [pc, #0x154]
  0070c	e58d3000	 str         r3, [sp]

; 100  :     FUNCTION_ENTER_MSG();

  00710	e59f3144	 ldr         r3, [pc, #0x144]
  00714	e5933440	 ldr         r3, [r3, #0x440]
  00718	e3130a01	 tst         r3, #1, 20
  0071c	0a00000d	 beq         |$LN5@StallEndpo|
  00720	e59f3134	 ldr         r3, [pc, #0x134]
  00724	e5933440	 ldr         r3, [r3, #0x440]
  00728	e3130801	 tst         r3, #1, 16
  0072c	0a000003	 beq         |$LN3@StallEndpo|
  00730	e59d1000	 ldr         r1, [sp]
  00734	e59f0124	 ldr         r0, [pc, #0x124]
  00738	eb000000	 bl          CeLogMsg
  0073c	ea000002	 b           |$LN4@StallEndpo|
  00740		 |$LN3@StallEndpo|
  00740	e59d1000	 ldr         r1, [sp]
  00744	e59f0114	 ldr         r0, [pc, #0x114]
  00748	eb000000	 bl          NKDbgPrintfW
  0074c		 |$LN4@StallEndpo|
  0074c	e3a03001	 mov         r3, #1
  00750	e58d3018	 str         r3, [sp, #0x18]
  00754	ea000001	 b           |$LN6@StallEndpo|
  00758		 |$LN5@StallEndpo|
  00758	e3a03000	 mov         r3, #0
  0075c	e58d3018	 str         r3, [sp, #0x18]
  00760		 |$LN6@StallEndpo|

; 101  :     Lock();

  00760	e59d302c	 ldr         r3, [sp, #0x2C]
  00764	e2830008	 add         r0, r3, #8
  00768	eb000000	 bl          |?Lock@CLockObject@@QAAXXZ|

; 102  :     udccsr.ulValue = ReadControlStatusRegister();

  0076c	e59d002c	 ldr         r0, [sp, #0x2C]
  00770	eb000000	 bl          |?ReadControlStatusRegister@BulEndpoint@@QAAKXZ|
  00774	e58d001c	 str         r0, [sp, #0x1C]
  00778	e59d301c	 ldr         r3, [sp, #0x1C]
  0077c	e58d300c	 str         r3, [sp, #0xC]

; 103  :     udccsrWrite.ulValue = 0;

  00780	e3a03000	 mov         r3, #0
  00784	e58d3004	 str         r3, [sp, #4]

; 104  :     udccsrWrite.epbit.DME = udccsr.epbit.DME;

  00788	e59d300c	 ldr         r3, [sp, #0xC]
  0078c	e1a03e03	 mov         r3, r3, lsl #28
  00790	e1a01fa3	 mov         r1, r3, lsr #31
  00794	e59d2004	 ldr         r2, [sp, #4]
  00798	e3e03008	 mvn         r3, #8
  0079c	e0022003	 and         r2, r2, r3
  007a0	e2013001	 and         r3, r1, #1
  007a4	e1a03183	 mov         r3, r3, lsl #3
  007a8	e1823003	 orr         r3, r2, r3
  007ac	e58d3004	 str         r3, [sp, #4]

; 105  :     udccsrWrite.epbit.FST = 1; // Force Stall.

  007b0	e59d3004	 ldr         r3, [sp, #4]
  007b4	e3833020	 orr         r3, r3, #0x20
  007b8	e58d3004	 str         r3, [sp, #4]

; 106  :     udccsrWrite.epbit.SST = 1; // Clear Previous Stall Sent if there is any.

  007bc	e59d3004	 ldr         r3, [sp, #4]
  007c0	e3833010	 orr         r3, r3, #0x10
  007c4	e58d3004	 str         r3, [sp, #4]

; 107  :     WriteControlStatusRegister(udccsrWrite.ulValue);

  007c8	e59d1004	 ldr         r1, [sp, #4]
  007cc	e59d002c	 ldr         r0, [sp, #0x2C]
  007d0	eb000000	 bl          |?WriteControlStatusRegister@BulEndpoint@@QAAXK@Z|

; 108  :     m_fStalled = TRUE;

  007d4	e59d302c	 ldr         r3, [sp, #0x2C]
  007d8	e283203c	 add         r2, r3, #0x3C
  007dc	e3a03001	 mov         r3, #1
  007e0	e5823000	 str         r3, [r2]

; 109  :     Unlock();

  007e4	e59d302c	 ldr         r3, [sp, #0x2C]
  007e8	e2830008	 add         r0, r3, #8
  007ec	eb000000	 bl          |?Unlock@CLockObject@@QAAXXZ|

; 110  :     FUNCTION_LEAVE_MSG();

  007f0	e59f3064	 ldr         r3, [pc, #0x64]
  007f4	e5933440	 ldr         r3, [r3, #0x440]
  007f8	e3130a01	 tst         r3, #1, 20
  007fc	0a00000d	 beq         |$LN9@StallEndpo|
  00800	e59f3054	 ldr         r3, [pc, #0x54]
  00804	e5933440	 ldr         r3, [r3, #0x440]
  00808	e3130801	 tst         r3, #1, 16
  0080c	0a000003	 beq         |$LN7@StallEndpo|
  00810	e59d1000	 ldr         r1, [sp]
  00814	e59f003c	 ldr         r0, [pc, #0x3C]
  00818	eb000000	 bl          CeLogMsg
  0081c	ea000002	 b           |$LN8@StallEndpo|
  00820		 |$LN7@StallEndpo|
  00820	e59d1000	 ldr         r1, [sp]
  00824	e59f002c	 ldr         r0, [pc, #0x2C]
  00828	eb000000	 bl          NKDbgPrintfW
  0082c		 |$LN8@StallEndpo|
  0082c	e3a03001	 mov         r3, #1
  00830	e58d3020	 str         r3, [sp, #0x20]
  00834	ea000001	 b           |$LN10@StallEndpo|
  00838		 |$LN9@StallEndpo|
  00838	e3a03000	 mov         r3, #0
  0083c	e58d3020	 str         r3, [sp, #0x20]
  00840		 |$LN10@StallEndpo|

; 111  :     return ERROR_SUCCESS;

  00840	e3a03000	 mov         r3, #0
  00844	e58d3014	 str         r3, [sp, #0x14]

; 112  : }

  00848	e59d0014	 ldr         r0, [sp, #0x14]
  0084c	e28dd024	 add         sp, sp, #0x24
  00850	e89d6000	 ldmia       sp, {sp, lr}
  00854	e12fff1e	 bx          lr
  00858		 |$LN14@StallEndpo|
  00858		 |$LN15@StallEndpo|
  00858	00000000	 DCD         |??_C@_1BA@PLOOFDPK@?$AA?$CF?$AAs?$AA?5?$AA?9?$AA?9?$AA?$AN?$AA?6?$AA?$AA@|
  0085c		 |$LN16@StallEndpo|
  0085c	00000000	 DCD         |dpCurSettings|
  00860		 |$LN17@StallEndpo|
  00860	00000000	 DCD         |??_C@_1BA@DAJPCKDK@?$AA?$CF?$AAs?$AA?5?$AA?$CL?$AA?$CL?$AA?$AN?$AA?6?$AA?$AA@|
  00864		 |$LN18@StallEndpo|
  00864	00000000	 DCD         |??_C@_1FG@NEBCBPOL@?$AAb?$AAu?$AAl?$AAv?$AAe?$AAr?$AAd?$AAe?$AA_?$AAu?$AAs?$AAb?$AAf?$AAn?$AA?$CB?$AAB?$AAu?$AAl?$AAE?$AAn?$AAd?$AAp?$AAo?$AAi?$AAn?$AAt?$AA?3?$AA?3?$AAS?$AAt?$AAa?$AAl@|
  00868		 |$M38216|

			 ENDP  ; |?StallEndpoint@BulEndpoint@@UAAKXZ|, BulEndpoint::StallEndpoint

	EXPORT	|?ReadUDCRegister@BulUsbDevice@@QAAKK@Z| ; BulUsbDevice::ReadUDCRegister
; File c:\wince600\platform\common\src\soc\pxa27x_ms_v1\inc\bul_usbfn.h

  00000			 AREA	 |.pdata|, PDATA
|$T38233| DCD	|$LN9@ReadContro|
	DCD	0x40003804
; Function compile flags: /Odtp

  00000			 AREA	 |.text|, CODE, ARM

  00000		 |?ReadControlStatusRegister@BulEndpoint@@QAAKXZ| PROC ; BulEndpoint::ReadControlStatusRegister

; 276  :     DWORD   ReadControlStatusRegister() {

  00000		 |$LN9@ReadContro|
  00000	e1a0c00d	 mov         r12, sp
  00004	e92d0001	 stmdb       sp!, {r0}
  00008	e92d5000	 stmdb       sp!, {r12, lr}
  0000c	e24dd010	 sub         sp, sp, #0x10
  00010		 |$M38230|

; 277  :         PREFAST_ASSERT(m_pUsbDevice!=NULL);

  00010	e59d3018	 ldr         r3, [sp, #0x18]
  00014	e283301c	 add         r3, r3, #0x1C
  00018	e5933000	 ldr         r3, [r3]
  0001c	e3530000	 cmp         r3, #0
  00020	0a000002	 beq         |$LN3@ReadContro|
  00024	e3a03001	 mov         r3, #1
  00028	e58d3004	 str         r3, [sp, #4]
  0002c	ea000008	 b           |$LN4@ReadContro|
  00030		 |$LN3@ReadContro|
  00030	e3a03c01	 mov         r3, #1, 24
  00034	e3833015	 orr         r3, r3, #0x15
  00038	e59f209c	 ldr         r2, [pc, #0x9C]
  0003c	e59f1094	 ldr         r1, [pc, #0x94]
  00040	e59f008c	 ldr         r0, [pc, #0x8C]
  00044	eb000000	 bl          NKDbgPrintfW
  00048	e6000010	 __debugbreak_ce
  0004c	e3a03000	 mov         r3, #0
  00050	e58d3004	 str         r3, [sp, #4]
  00054		 |$LN4@ReadContro|

; 278  :         PREFAST_ASSERT(m_dwEndpointIndex<MAX_ENDPOINT_NUMBER);

  00054	e59d3018	 ldr         r3, [sp, #0x18]
  00058	e2833020	 add         r3, r3, #0x20
  0005c	e5933000	 ldr         r3, [r3]
  00060	e3530018	 cmp         r3, #0x18
  00064	2a000002	 bcs         |$LN5@ReadContro|
  00068	e3a03001	 mov         r3, #1
  0006c	e58d3008	 str         r3, [sp, #8]
  00070	ea000008	 b           |$LN6@ReadContro|
  00074		 |$LN5@ReadContro|
  00074	e3a03c01	 mov         r3, #1, 24
  00078	e3833016	 orr         r3, r3, #0x16
  0007c	e59f2058	 ldr         r2, [pc, #0x58]
  00080	e59f1050	 ldr         r1, [pc, #0x50]
  00084	e59f0048	 ldr         r0, [pc, #0x48]
  00088	eb000000	 bl          NKDbgPrintfW
  0008c	e6000010	 __debugbreak_ce
  00090	e3a03000	 mov         r3, #0
  00094	e58d3008	 str         r3, [sp, #8]
  00098		 |$LN6@ReadContro|

; 279  :         return m_pUsbDevice->ReadUDCRegister( ENDPOINT_CONTROL_STATUS_REGISTER_OFFSET + m_dwEndpointIndex);

  00098	e59d3018	 ldr         r3, [sp, #0x18]
  0009c	e2833020	 add         r3, r3, #0x20
  000a0	e5933000	 ldr         r3, [r3]
  000a4	e2831040	 add         r1, r3, #0x40
  000a8	e59d3018	 ldr         r3, [sp, #0x18]
  000ac	e283301c	 add         r3, r3, #0x1C
  000b0	e5930000	 ldr         r0, [r3]
  000b4	eb000000	 bl          |?ReadUDCRegister@BulUsbDevice@@QAAKK@Z|
  000b8	e58d000c	 str         r0, [sp, #0xC]
  000bc	e59d300c	 ldr         r3, [sp, #0xC]
  000c0	e58d3000	 str         r3, [sp]

; 280  :     }; 

  000c4	e59d0000	 ldr         r0, [sp]
  000c8	e28dd010	 add         sp, sp, #0x10
  000cc	e89d6000	 ldmia       sp, {sp, lr}
  000d0	e12fff1e	 bx          lr
  000d4		 |$LN10@ReadContro|
  000d4		 |$LN11@ReadContro|
  000d4	00000000	 DCD         |??_C@_1FK@FNONLNGN@?$AA?$CF?$AAs?$AA?3?$AA?5?$AAD?$AAE?$AAB?$AAU?$AAG?$AAC?$AAH?$AAK?$AA?5?$AAf?$AAa?$AAi?$AAl?$AAe?$AAd?$AA?5?$AAi?$AAn?$AA?5?$AAf?$AAi?$AAl?$AAe?$AA?5?$AA?$CF?$AAs?$AA?5?$AAa@|
  000d8		 |$LN12@ReadContro|
  000d8	00000000	 DCD         |??_C@_1BA@LEPJIIOK@?$AAU?$AAn?$AAk?$AAn?$AAo?$AAw?$AAn?$AA?$AA@|
  000dc		 |$LN13@ReadContro|
  000dc	00000000	 DCD         |??_C@_1CG@MKCCFBBJ@?$AA?4?$AA?4?$AA?2?$AAi?$AAn?$AAc?$AA?2?$AAb?$AAu?$AAl?$AA_?$AAu?$AAs?$AAb?$AAf?$AAn?$AA?4?$AAh?$AA?$AA@|
  000e0		 |$M38231|

			 ENDP  ; |?ReadControlStatusRegister@BulEndpoint@@QAAKXZ|, BulEndpoint::ReadControlStatusRegister

	IMPORT	|READ_REGISTER_ULONG|

  00000			 AREA	 |.pdata|, PDATA
|$T38247| DCD	|$LN7@ReadUDCReg|
	DCD	0x40002604
; Function compile flags: /Odtp

  00000			 AREA	 |.text|, CODE, ARM

  00000		 |?ReadUDCRegister@BulUsbDevice@@QAAKK@Z| PROC ; BulUsbDevice::ReadUDCRegister

; 125  :     DWORD ReadUDCRegister(DWORD dwOffset) {

  00000		 |$LN7@ReadUDCReg|
  00000	e1a0c00d	 mov         r12, sp
  00004	e92d0003	 stmdb       sp!, {r0, r1}
  00008	e92d5000	 stmdb       sp!, {r12, lr}
  0000c	e24dd00c	 sub         sp, sp, #0xC
  00010		 |$M38244|

; 126  :         PREFAST_ASSERT(m_pUsbDevReg!=NULL);

  00010	e59d3014	 ldr         r3, [sp, #0x14]
  00014	e2833098	 add         r3, r3, #0x98
  00018	e5933000	 ldr         r3, [r3]
  0001c	e3530000	 cmp         r3, #0
  00020	0a000002	 beq         |$LN3@ReadUDCReg|
  00024	e3a03001	 mov         r3, #1
  00028	e58d3004	 str         r3, [sp, #4]
  0002c	ea000007	 b           |$LN4@ReadUDCReg|
  00030		 |$LN3@ReadUDCReg|
  00030	e3a0307e	 mov         r3, #0x7E
  00034	e59f2058	 ldr         r2, [pc, #0x58]
  00038	e59f1050	 ldr         r1, [pc, #0x50]
  0003c	e59f0048	 ldr         r0, [pc, #0x48]
  00040	eb000000	 bl          NKDbgPrintfW
  00044	e6000010	 __debugbreak_ce
  00048	e3a03000	 mov         r3, #0
  0004c	e58d3004	 str         r3, [sp, #4]
  00050		 |$LN4@ReadUDCReg|

; 127  :         return READ_REGISTER_ULONG(m_pUsbDevReg + dwOffset);

  00050	e59d3014	 ldr         r3, [sp, #0x14]
  00054	e2830098	 add         r0, r3, #0x98
  00058	e59d1018	 ldr         r1, [sp, #0x18]
  0005c	e3a03004	 mov         r3, #4
  00060	e0020391	 mul         r2, r1, r3
  00064	e5903000	 ldr         r3, [r0]
  00068	e0830002	 add         r0, r3, r2
  0006c	eb000000	 bl          READ_REGISTER_ULONG
  00070	e58d0008	 str         r0, [sp, #8]
  00074	e59d3008	 ldr         r3, [sp, #8]
  00078	e58d3000	 str         r3, [sp]

; 128  :     }

  0007c	e59d0000	 ldr         r0, [sp]
  00080	e28dd00c	 add         sp, sp, #0xC
  00084	e89d6000	 ldmia       sp, {sp, lr}
  00088	e12fff1e	 bx          lr
  0008c		 |$LN8@ReadUDCReg|
  0008c		 |$LN9@ReadUDCReg|
  0008c	00000000	 DCD         |??_C@_1FK@FNONLNGN@?$AA?$CF?$AAs?$AA?3?$AA?5?$AAD?$AAE?$AAB?$AAU?$AAG?$AAC?$AAH?$AAK?$AA?5?$AAf?$AAa?$AAi?$AAl?$AAe?$AAd?$AA?5?$AAi?$AAn?$AA?5?$AAf?$AAi?$AAl?$AAe?$AA?5?$AA?$CF?$AAs?$AA?5?$AAa@|
  00090		 |$LN10@ReadUDCReg|
  00090	00000000	 DCD         |??_C@_1BA@LEPJIIOK@?$AAU?$AAn?$AAk?$AAn?$AAo?$AAw?$AAn?$AA?$AA@|
  00094		 |$LN11@ReadUDCReg|
  00094	00000000	 DCD         |??_C@_1CG@MKCCFBBJ@?$AA?4?$AA?4?$AA?2?$AAi?$AAn?$AAc?$AA?2?$AAb?$AAu?$AAl?$AA_?$AAu?$AAs?$AAb?$AAf?$AAn?$AA?4?$AAh?$AA?$AA@|
  00098		 |$M38245|

			 ENDP  ; |?ReadUDCRegister@BulUsbDevice@@QAAKK@Z|, BulUsbDevice::ReadUDCRegister

	EXPORT	|?ClearEndpointStall@BulEndpoint@@UAAKXZ| ; BulEndpoint::ClearEndpointStall

  00020			 AREA	 |.pdata|, PDATA
|$T38259| DCD	|$LN5@ClearEndpo|
	DCD	0x40001404
; Function compile flags: /Odtp
; File c:\wince600\platform\common\src\soc\pxa27x_ms_v1\usbfn\bul_usbfn.cpp

  00868			 AREA	 |.text|, CODE, ARM

  00868		 |?ClearEndpointStall@BulEndpoint@@UAAKXZ| PROC ; BulEndpoint::ClearEndpointStall

; 114  : {

  00868		 |$LN5@ClearEndpo|
  00868	e1a0c00d	 mov         r12, sp
  0086c	e92d0001	 stmdb       sp!, {r0}
  00870	e92d5000	 stmdb       sp!, {r12, lr}
  00874	e24dd004	 sub         sp, sp, #4
  00878		 |$M38256|

; 115  :     Lock();

  00878	e59d300c	 ldr         r3, [sp, #0xC]
  0087c	e2830008	 add         r0, r3, #8
  00880	eb000000	 bl          |?Lock@CLockObject@@QAAXXZ|

; 116  :     m_fStalled = FALSE;

  00884	e59d300c	 ldr         r3, [sp, #0xC]
  00888	e283203c	 add         r2, r3, #0x3C
  0088c	e3a03000	 mov         r3, #0
  00890	e5823000	 str         r3, [r2]

; 117  :     Unlock();

  00894	e59d300c	 ldr         r3, [sp, #0xC]
  00898	e2830008	 add         r0, r3, #8
  0089c	eb000000	 bl          |?Unlock@CLockObject@@QAAXXZ|

; 118  :     return ERROR_SUCCESS;

  008a0	e3a03000	 mov         r3, #0
  008a4	e58d3000	 str         r3, [sp]

; 119  : }

  008a8	e59d0000	 ldr         r0, [sp]
  008ac	e28dd004	 add         sp, sp, #4
  008b0	e89d6000	 ldmia       sp, {sp, lr}
  008b4	e12fff1e	 bx          lr
  008b8		 |$M38257|

			 ENDP  ; |?ClearEndpointStall@BulEndpoint@@UAAKXZ|, BulEndpoint::ClearEndpointStall

	EXPORT	|??_C@_1GA@EJFDCHFE@?$AAR?$AAe?$AAs?$AAe?$AAt?$AAE?$AAn?$AAd?$AAp?$AAo?$AAi?$AAn?$AAt?$AA?9?$AA?5?$AA?$CI?$AA?$CF?$AAd?$AA?$CJ?$AA?5?$AAU?$AAD?$AAC?$AAC?$AAS?$AAR?$AA?5?$AA?$DN?$AA0?$AAx?$AA?$CF?$AAx@| [ DATA ] ; `string'
	EXPORT	|??_C@_1GA@EFHGLAGP@?$AAR?$AAe?$AAs?$AAe?$AAt?$AAE?$AAn?$AAd?$AAp?$AAo?$AAi?$AAn?$AAt?$AA?$CL?$AA?5?$AA?$CI?$AA?$CF?$AAd?$AA?$CJ?$AA?5?$AAU?$AAD?$AAC?$AAC?$AAS?$AAR?$AA?5?$AA?$DN?$AA0?$AAx?$AA?$CF?$AAx@| [ DATA ] ; `string'
	EXPORT	|?ReadConfigurationRegister@BulEndpoint@@QAAKXZ| ; BulEndpoint::ReadConfigurationRegister
	EXPORT	|??_C@_1FG@OBMPFOB@?$AAb?$AAu?$AAl?$AAv?$AAe?$AAr?$AAd?$AAe?$AA_?$AAu?$AAs?$AAb?$AAf?$AAn?$AA?$CB?$AAB?$AAu?$AAl?$AAE?$AAn?$AAd?$AAp?$AAo?$AAi?$AAn?$AAt?$AA?3?$AA?3?$AAR?$AAe?$AAs?$AAe@| [ DATA ] ; `string'
	EXPORT	|?ResetEndpoint@BulEndpoint@@UAAKXZ|	; BulEndpoint::ResetEndpoint

  00028			 AREA	 |.pdata|, PDATA
|$T38281| DCD	|$LN21@ResetEndpo|
	DCD	0x4000a404

  00000			 AREA	 |.rdata|, DATA, READONLY
|??_C@_1GA@EJFDCHFE@?$AAR?$AAe?$AAs?$AAe?$AAt?$AAE?$AAn?$AAd?$AAp?$AAo?$AAi?$AAn?$AAt?$AA?9?$AA?5?$AA?$CI?$AA?$CF?$AAd?$AA?$CJ?$AA?5?$AAU?$AAD?$AAC?$AAC?$AAS?$AAR?$AA?5?$AA?$DN?$AA0?$AAx?$AA?$CF?$AAx@| DCB "R"
	DCB	0x0, "e", 0x0, "s", 0x0, "e", 0x0, "t", 0x0, "E", 0x0, "n"
	DCB	0x0, "d", 0x0, "p", 0x0, "o", 0x0, "i", 0x0, "n", 0x0, "t"
	DCB	0x0, "-", 0x0, " ", 0x0, "(", 0x0, "%", 0x0, "d", 0x0, ")"
	DCB	0x0, " ", 0x0, "U", 0x0, "D", 0x0, "C", 0x0, "C", 0x0, "S"
	DCB	0x0, "R", 0x0, " ", 0x0, "=", 0x0, "0", 0x0, "x", 0x0, "%"
	DCB	0x0, "x", 0x0, " ", 0x0, "U", 0x0, "D", 0x0, "C", 0x0, "C"
	DCB	0x0, "R", 0x0, "A", 0x0, "X", 0x0, " ", 0x0, "=", 0x0, " "
	DCB	0x0, "0", 0x0, "x", 0x0, "%", 0x0, "x", 0x0, 0x0, 0x0 ; `string'

  00000			 AREA	 |.rdata|, DATA, READONLY
|??_C@_1GA@EFHGLAGP@?$AAR?$AAe?$AAs?$AAe?$AAt?$AAE?$AAn?$AAd?$AAp?$AAo?$AAi?$AAn?$AAt?$AA?$CL?$AA?5?$AA?$CI?$AA?$CF?$AAd?$AA?$CJ?$AA?5?$AAU?$AAD?$AAC?$AAC?$AAS?$AAR?$AA?5?$AA?$DN?$AA0?$AAx?$AA?$CF?$AAx@| DCB "R"
	DCB	0x0, "e", 0x0, "s", 0x0, "e", 0x0, "t", 0x0, "E", 0x0, "n"
	DCB	0x0, "d", 0x0, "p", 0x0, "o", 0x0, "i", 0x0, "n", 0x0, "t"
	DCB	0x0, "+", 0x0, " ", 0x0, "(", 0x0, "%", 0x0, "d", 0x0, ")"
	DCB	0x0, " ", 0x0, "U", 0x0, "D", 0x0, "C", 0x0, "C", 0x0, "S"
	DCB	0x0, "R", 0x0, " ", 0x0, "=", 0x0, "0", 0x0, "x", 0x0, "%"
	DCB	0x0, "x", 0x0, " ", 0x0, "U", 0x0, "D", 0x0, "C", 0x0, "C"
	DCB	0x0, "R", 0x0, "A", 0x0, "X", 0x0, " ", 0x0, "=", 0x0, " "
	DCB	0x0, "0", 0x0, "x", 0x0, "%", 0x0, "x", 0x0, 0x0, 0x0 ; `string'

  00000			 AREA	 |.rdata|, DATA, READONLY
|??_C@_1FG@OBMPFOB@?$AAb?$AAu?$AAl?$AAv?$AAe?$AAr?$AAd?$AAe?$AA_?$AAu?$AAs?$AAb?$AAf?$AAn?$AA?$CB?$AAB?$AAu?$AAl?$AAE?$AAn?$AAd?$AAp?$AAo?$AAi?$AAn?$AAt?$AA?3?$AA?3?$AAR?$AAe?$AAs?$AAe@| DCB "b"
	DCB	0x0, "u", 0x0, "l", 0x0, "v", 0x0, "e", 0x0, "r", 0x0, "d"
	DCB	0x0, "e", 0x0, "_", 0x0, "u", 0x0, "s", 0x0, "b", 0x0, "f"
	DCB	0x0, "n", 0x0, "!", 0x0, "B", 0x0, "u", 0x0, "l", 0x0, "E"
	DCB	0x0, "n", 0x0, "d", 0x0, "p", 0x0, "o", 0x0, "i", 0x0, "n"
	DCB	0x0, "t", 0x0, ":", 0x0, ":", 0x0, "R", 0x0, "e", 0x0, "s"
	DCB	0x0, "e", 0x0, "t", 0x0, "E", 0x0, "n", 0x0, "d", 0x0, "p"
	DCB	0x0, "o", 0x0, "i", 0x0, "n", 0x0, "t", 0x0, ":", 0x0, 0x0
	DCB	0x0					; `string'
; Function compile flags: /Odtp

  008b8			 AREA	 |.text|, CODE, ARM

  008b8		 |?ResetEndpoint@BulEndpoint@@UAAKXZ| PROC ; BulEndpoint::ResetEndpoint

; 121  : {

  008b8		 |$LN21@ResetEndpo|
  008b8	e1a0c00d	 mov         r12, sp
  008bc	e92d0001	 stmdb       sp!, {r0}
  008c0	e92d5000	 stmdb       sp!, {r12, lr}
  008c4	e24dd044	 sub         sp, sp, #0x44
  008c8		 |$M38278|

; 122  :     UDCCSR udccsr;
; 123  :     SETFNAME();

  008c8	e59f3274	 ldr         r3, [pc, #0x274]
  008cc	e58d3000	 str         r3, [sp]

; 124  :     FUNCTION_ENTER_MSG();

  008d0	e59f325c	 ldr         r3, [pc, #0x25C]
  008d4	e5933440	 ldr         r3, [r3, #0x440]
  008d8	e3130a01	 tst         r3, #1, 20
  008dc	0a00000d	 beq         |$LN5@ResetEndpo|
  008e0	e59f324c	 ldr         r3, [pc, #0x24C]
  008e4	e5933440	 ldr         r3, [r3, #0x440]
  008e8	e3130801	 tst         r3, #1, 16
  008ec	0a000003	 beq         |$LN3@ResetEndpo|
  008f0	e59d1000	 ldr         r1, [sp]
  008f4	e59f0244	 ldr         r0, [pc, #0x244]
  008f8	eb000000	 bl          CeLogMsg
  008fc	ea000002	 b           |$LN4@ResetEndpo|
  00900		 |$LN3@ResetEndpo|
  00900	e59d1000	 ldr         r1, [sp]
  00904	e59f0234	 ldr         r0, [pc, #0x234]
  00908	eb000000	 bl          NKDbgPrintfW
  0090c		 |$LN4@ResetEndpo|
  0090c	e3a03001	 mov         r3, #1
  00910	e58d3010	 str         r3, [sp, #0x10]
  00914	ea000001	 b           |$LN6@ResetEndpo|
  00918		 |$LN5@ResetEndpo|
  00918	e3a03000	 mov         r3, #0
  0091c	e58d3010	 str         r3, [sp, #0x10]
  00920		 |$LN6@ResetEndpo|

; 125  :     DEBUGMSG(ZONE_WARNING, (_T("ResetEndpoint+ (%d) UDCCSR =0x%x UDCCRAX = 0x%x"),m_dwEndpointIndex, ReadControlStatusRegister(),ReadConfigurationRegister()));

  00920	e59f320c	 ldr         r3, [pc, #0x20C]
  00924	e5933440	 ldr         r3, [r3, #0x440]
  00928	e3130002	 tst         r3, #2
  0092c	0a000021	 beq         |$LN9@ResetEndpo|
  00930	e59f31fc	 ldr         r3, [pc, #0x1FC]
  00934	e5933440	 ldr         r3, [r3, #0x440]
  00938	e3130801	 tst         r3, #1, 16
  0093c	0a00000d	 beq         |$LN7@ResetEndpo|
  00940	e59d004c	 ldr         r0, [sp, #0x4C]
  00944	eb000000	 bl          |?ReadConfigurationRegister@BulEndpoint@@QAAKXZ|
  00948	e58d0014	 str         r0, [sp, #0x14]
  0094c	e59d004c	 ldr         r0, [sp, #0x4C]
  00950	eb000000	 bl          |?ReadControlStatusRegister@BulEndpoint@@QAAKXZ|
  00954	e58d0018	 str         r0, [sp, #0x18]
  00958	e59d3014	 ldr         r3, [sp, #0x14]
  0095c	e59d2018	 ldr         r2, [sp, #0x18]
  00960	e59d104c	 ldr         r1, [sp, #0x4C]
  00964	e2811020	 add         r1, r1, #0x20
  00968	e5911000	 ldr         r1, [r1]
  0096c	e59f01c8	 ldr         r0, [pc, #0x1C8]
  00970	eb000000	 bl          CeLogMsg
  00974	ea00000c	 b           |$LN8@ResetEndpo|
  00978		 |$LN7@ResetEndpo|
  00978	e59d004c	 ldr         r0, [sp, #0x4C]
  0097c	eb000000	 bl          |?ReadConfigurationRegister@BulEndpoint@@QAAKXZ|
  00980	e58d001c	 str         r0, [sp, #0x1C]
  00984	e59d004c	 ldr         r0, [sp, #0x4C]
  00988	eb000000	 bl          |?ReadControlStatusRegister@BulEndpoint@@QAAKXZ|
  0098c	e58d0020	 str         r0, [sp, #0x20]
  00990	e59d301c	 ldr         r3, [sp, #0x1C]
  00994	e59d2020	 ldr         r2, [sp, #0x20]
  00998	e59d104c	 ldr         r1, [sp, #0x4C]
  0099c	e2811020	 add         r1, r1, #0x20
  009a0	e5911000	 ldr         r1, [r1]
  009a4	e59f0190	 ldr         r0, [pc, #0x190]
  009a8	eb000000	 bl          NKDbgPrintfW
  009ac		 |$LN8@ResetEndpo|
  009ac	e3a03001	 mov         r3, #1
  009b0	e58d3024	 str         r3, [sp, #0x24]
  009b4	ea000001	 b           |$LN10@ResetEndpo|
  009b8		 |$LN9@ResetEndpo|
  009b8	e3a03000	 mov         r3, #0
  009bc	e58d3024	 str         r3, [sp, #0x24]
  009c0		 |$LN10@ResetEndpo|

; 126  :     Lock();

  009c0	e59d304c	 ldr         r3, [sp, #0x4C]
  009c4	e2830008	 add         r0, r3, #8
  009c8	eb000000	 bl          |?Lock@CLockObject@@QAAXXZ|

; 127  :     udccsr.ulValue = ReadControlStatusRegister();

  009cc	e59d004c	 ldr         r0, [sp, #0x4C]
  009d0	eb000000	 bl          |?ReadControlStatusRegister@BulEndpoint@@QAAKXZ|
  009d4	e58d0028	 str         r0, [sp, #0x28]
  009d8	e59d3028	 ldr         r3, [sp, #0x28]
  009dc	e58d3004	 str         r3, [sp, #4]

; 128  :     udccsr.epbit.PC = udccsr.epbit.TRN= udccsr.epbit.SST = udccsr.epbit.FEF =1;

  009e0	e59d3004	 ldr         r3, [sp, #4]
  009e4	e3833c01	 orr         r3, r3, #1, 24
  009e8	e58d3004	 str         r3, [sp, #4]
  009ec	e59d3004	 ldr         r3, [sp, #4]
  009f0	e3833010	 orr         r3, r3, #0x10
  009f4	e58d3004	 str         r3, [sp, #4]
  009f8	e59d3004	 ldr         r3, [sp, #4]
  009fc	e3833004	 orr         r3, r3, #4
  00a00	e58d3004	 str         r3, [sp, #4]
  00a04	e59d3004	 ldr         r3, [sp, #4]
  00a08	e3833002	 orr         r3, r3, #2
  00a0c	e58d3004	 str         r3, [sp, #4]

; 129  :     WriteControlStatusRegister(udccsr.ulValue);

  00a10	e59d1004	 ldr         r1, [sp, #4]
  00a14	e59d004c	 ldr         r0, [sp, #0x4C]
  00a18	eb000000	 bl          |?WriteControlStatusRegister@BulEndpoint@@QAAXK@Z|

; 130  :     Unlock();

  00a1c	e59d304c	 ldr         r3, [sp, #0x4C]
  00a20	e2830008	 add         r0, r3, #8
  00a24	eb000000	 bl          |?Unlock@CLockObject@@QAAXXZ|

; 131  :     DEBUGMSG(ZONE_WARNING, (_T("ResetEndpoint- (%d) UDCCSR =0x%x UDCCRAX = 0x%x"),m_dwEndpointIndex, ReadControlStatusRegister(),ReadConfigurationRegister()));

  00a28	e59f3104	 ldr         r3, [pc, #0x104]
  00a2c	e5933440	 ldr         r3, [r3, #0x440]
  00a30	e3130002	 tst         r3, #2
  00a34	0a000021	 beq         |$LN13@ResetEndpo|
  00a38	e59f30f4	 ldr         r3, [pc, #0xF4]
  00a3c	e5933440	 ldr         r3, [r3, #0x440]
  00a40	e3130801	 tst         r3, #1, 16
  00a44	0a00000d	 beq         |$LN11@ResetEndpo|
  00a48	e59d004c	 ldr         r0, [sp, #0x4C]
  00a4c	eb000000	 bl          |?ReadConfigurationRegister@BulEndpoint@@QAAKXZ|
  00a50	e58d002c	 str         r0, [sp, #0x2C]
  00a54	e59d004c	 ldr         r0, [sp, #0x4C]
  00a58	eb000000	 bl          |?ReadControlStatusRegister@BulEndpoint@@QAAKXZ|
  00a5c	e58d0030	 str         r0, [sp, #0x30]
  00a60	e59d302c	 ldr         r3, [sp, #0x2C]
  00a64	e59d2030	 ldr         r2, [sp, #0x30]
  00a68	e59d104c	 ldr         r1, [sp, #0x4C]
  00a6c	e2811020	 add         r1, r1, #0x20
  00a70	e5911000	 ldr         r1, [r1]
  00a74	e59f00bc	 ldr         r0, [pc, #0xBC]
  00a78	eb000000	 bl          CeLogMsg
  00a7c	ea00000c	 b           |$LN12@ResetEndpo|
  00a80		 |$LN11@ResetEndpo|
  00a80	e59d004c	 ldr         r0, [sp, #0x4C]
  00a84	eb000000	 bl          |?ReadConfigurationRegister@BulEndpoint@@QAAKXZ|
  00a88	e58d0034	 str         r0, [sp, #0x34]
  00a8c	e59d004c	 ldr         r0, [sp, #0x4C]
  00a90	eb000000	 bl          |?ReadControlStatusRegister@BulEndpoint@@QAAKXZ|
  00a94	e58d0038	 str         r0, [sp, #0x38]
  00a98	e59d3034	 ldr         r3, [sp, #0x34]
  00a9c	e59d2038	 ldr         r2, [sp, #0x38]
  00aa0	e59d104c	 ldr         r1, [sp, #0x4C]
  00aa4	e2811020	 add         r1, r1, #0x20
  00aa8	e5911000	 ldr         r1, [r1]
  00aac	e59f0084	 ldr         r0, [pc, #0x84]
  00ab0	eb000000	 bl          NKDbgPrintfW
  00ab4		 |$LN12@ResetEndpo|
  00ab4	e3a03001	 mov         r3, #1
  00ab8	e58d303c	 str         r3, [sp, #0x3C]
  00abc	ea000001	 b           |$LN14@ResetEndpo|
  00ac0		 |$LN13@ResetEndpo|
  00ac0	e3a03000	 mov         r3, #0
  00ac4	e58d303c	 str         r3, [sp, #0x3C]
  00ac8		 |$LN14@ResetEndpo|

; 132  :     FUNCTION_LEAVE_MSG();

  00ac8	e59f3064	 ldr         r3, [pc, #0x64]
  00acc	e5933440	 ldr         r3, [r3, #0x440]
  00ad0	e3130a01	 tst         r3, #1, 20
  00ad4	0a00000d	 beq         |$LN17@ResetEndpo|
  00ad8	e59f3054	 ldr         r3, [pc, #0x54]
  00adc	e5933440	 ldr         r3, [r3, #0x440]
  00ae0	e3130801	 tst         r3, #1, 16
  00ae4	0a000003	 beq         |$LN15@ResetEndpo|
  00ae8	e59d1000	 ldr         r1, [sp]
  00aec	e59f003c	 ldr         r0, [pc, #0x3C]
  00af0	eb000000	 bl          CeLogMsg
  00af4	ea000002	 b           |$LN16@ResetEndpo|
  00af8		 |$LN15@ResetEndpo|
  00af8	e59d1000	 ldr         r1, [sp]
  00afc	e59f002c	 ldr         r0, [pc, #0x2C]
  00b00	eb000000	 bl          NKDbgPrintfW
  00b04		 |$LN16@ResetEndpo|
  00b04	e3a03001	 mov         r3, #1
  00b08	e58d3040	 str         r3, [sp, #0x40]
  00b0c	ea000001	 b           |$LN18@ResetEndpo|
  00b10		 |$LN17@ResetEndpo|
  00b10	e3a03000	 mov         r3, #0
  00b14	e58d3040	 str         r3, [sp, #0x40]
  00b18		 |$LN18@ResetEndpo|

; 133  :     return ERROR_SUCCESS;

  00b18	e3a03000	 mov         r3, #0
  00b1c	e58d300c	 str         r3, [sp, #0xC]

; 134  : }

  00b20	e59d000c	 ldr         r0, [sp, #0xC]
  00b24	e28dd044	 add         sp, sp, #0x44
  00b28	e89d6000	 ldmia       sp, {sp, lr}
  00b2c	e12fff1e	 bx          lr
  00b30		 |$LN22@ResetEndpo|
  00b30		 |$LN23@ResetEndpo|
  00b30	00000000	 DCD         |??_C@_1BA@PLOOFDPK@?$AA?$CF?$AAs?$AA?5?$AA?9?$AA?9?$AA?$AN?$AA?6?$AA?$AA@|
  00b34		 |$LN24@ResetEndpo|
  00b34	00000000	 DCD         |dpCurSettings|
  00b38		 |$LN25@ResetEndpo|
  00b38	00000000	 DCD         |??_C@_1GA@EJFDCHFE@?$AAR?$AAe?$AAs?$AAe?$AAt?$AAE?$AAn?$AAd?$AAp?$AAo?$AAi?$AAn?$AAt?$AA?9?$AA?5?$AA?$CI?$AA?$CF?$AAd?$AA?$CJ?$AA?5?$AAU?$AAD?$AAC?$AAC?$AAS?$AAR?$AA?5?$AA?$DN?$AA0?$AAx?$AA?$CF?$AAx@|
  00b3c		 |$LN26@ResetEndpo|
  00b3c	00000000	 DCD         |??_C@_1GA@EFHGLAGP@?$AAR?$AAe?$AAs?$AAe?$AAt?$AAE?$AAn?$AAd?$AAp?$AAo?$AAi?$AAn?$AAt?$AA?$CL?$AA?5?$AA?$CI?$AA?$CF?$AAd?$AA?$CJ?$AA?5?$AAU?$AAD?$AAC?$AAC?$AAS?$AAR?$AA?5?$AA?$DN?$AA0?$AAx?$AA?$CF?$AAx@|
  00b40		 |$LN27@ResetEndpo|
  00b40	00000000	 DCD         |??_C@_1BA@DAJPCKDK@?$AA?$CF?$AAs?$AA?5?$AA?$CL?$AA?$CL?$AA?$AN?$AA?6?$AA?$AA@|
  00b44		 |$LN28@ResetEndpo|
  00b44	00000000	 DCD         |??_C@_1FG@OBMPFOB@?$AAb?$AAu?$AAl?$AAv?$AAe?$AAr?$AAd?$AAe?$AA_?$AAu?$AAs?$AAb?$AAf?$AAn?$AA?$CB?$AAB?$AAu?$AAl?$AAE?$AAn?$AAd?$AAp?$AAo?$AAi?$AAn?$AAt?$AA?3?$AA?3?$AAR?$AAe?$AAs?$AAe@|
  00b48		 |$M38279|

			 ENDP  ; |?ResetEndpoint@BulEndpoint@@UAAKXZ|, BulEndpoint::ResetEndpoint

; File c:\wince600\platform\common\src\soc\pxa27x_ms_v1\inc\bul_usbfn.h

  00000			 AREA	 |.pdata|, PDATA
|$T38300| DCD	|$LN13@ReadConfig|
	DCD	0x40004d04
; Function compile flags: /Odtp

  00000			 AREA	 |.text|, CODE, ARM

  00000		 |?ReadConfigurationRegister@BulEndpoint@@QAAKXZ| PROC ; BulEndpoint::ReadConfigurationRegister

; 315  :     DWORD   ReadConfigurationRegister() {

  00000		 |$LN13@ReadConfig|
  00000	e1a0c00d	 mov         r12, sp
  00004	e92d0001	 stmdb       sp!, {r0}
  00008	e92d5000	 stmdb       sp!, {r12, lr}
  0000c	e24dd014	 sub         sp, sp, #0x14
  00010		 |$M38297|

; 316  :         PREFAST_ASSERT(m_pUsbDevice!=NULL);

  00010	e59d301c	 ldr         r3, [sp, #0x1C]
  00014	e283301c	 add         r3, r3, #0x1C
  00018	e5933000	 ldr         r3, [r3]
  0001c	e3530000	 cmp         r3, #0
  00020	0a000002	 beq         |$LN5@ReadConfig|
  00024	e3a03001	 mov         r3, #1
  00028	e58d3004	 str         r3, [sp, #4]
  0002c	ea000007	 b           |$LN6@ReadConfig|
  00030		 |$LN5@ReadConfig|
  00030	e3a03f4f	 mov         r3, #0x4F, 30
  00034	e59f20f4	 ldr         r2, [pc, #0xF4]
  00038	e59f10ec	 ldr         r1, [pc, #0xEC]
  0003c	e59f00e4	 ldr         r0, [pc, #0xE4]
  00040	eb000000	 bl          NKDbgPrintfW
  00044	e6000010	 __debugbreak_ce
  00048	e3a03000	 mov         r3, #0
  0004c	e58d3004	 str         r3, [sp, #4]
  00050		 |$LN6@ReadConfig|

; 317  :         PREFAST_ASSERT(m_dwEndpointIndex<MAX_ENDPOINT_NUMBER);

  00050	e59d301c	 ldr         r3, [sp, #0x1C]
  00054	e2833020	 add         r3, r3, #0x20
  00058	e5933000	 ldr         r3, [r3]
  0005c	e3530018	 cmp         r3, #0x18
  00060	2a000002	 bcs         |$LN7@ReadConfig|
  00064	e3a03001	 mov         r3, #1
  00068	e58d3008	 str         r3, [sp, #8]
  0006c	ea000008	 b           |$LN8@ReadConfig|
  00070		 |$LN7@ReadConfig|
  00070	e3a03c01	 mov         r3, #1, 24
  00074	e383303d	 orr         r3, r3, #0x3D
  00078	e59f20b0	 ldr         r2, [pc, #0xB0]
  0007c	e59f10a8	 ldr         r1, [pc, #0xA8]
  00080	e59f00a0	 ldr         r0, [pc, #0xA0]
  00084	eb000000	 bl          NKDbgPrintfW
  00088	e6000010	 __debugbreak_ce
  0008c	e3a03000	 mov         r3, #0
  00090	e58d3008	 str         r3, [sp, #8]
  00094		 |$LN8@ReadConfig|

; 318  :         if (m_pUsbDevice!=0) { // Endpoint ZERO is not supported

  00094	e59d301c	 ldr         r3, [sp, #0x1C]
  00098	e283301c	 add         r3, r3, #0x1C
  0009c	e5933000	 ldr         r3, [r3]
  000a0	e3530000	 cmp         r3, #0
  000a4	0a00000c	 beq         |$LN2@ReadConfig|

; 319  :             return m_pUsbDevice->ReadUDCRegister( ENDPOINT_CONFIGURATION_REGISTER_OFFSET + m_dwEndpointIndex );

  000a8	e59d301c	 ldr         r3, [sp, #0x1C]
  000ac	e2833020	 add         r3, r3, #0x20
  000b0	e5933000	 ldr         r3, [r3]
  000b4	e2831c01	 add         r1, r3, #1, 24
  000b8	e59d301c	 ldr         r3, [sp, #0x1C]
  000bc	e283301c	 add         r3, r3, #0x1C
  000c0	e5930000	 ldr         r0, [r3]
  000c4	eb000000	 bl          |?ReadUDCRegister@BulUsbDevice@@QAAKK@Z|
  000c8	e58d000c	 str         r0, [sp, #0xC]
  000cc	e59d300c	 ldr         r3, [sp, #0xC]
  000d0	e58d3000	 str         r3, [sp]
  000d4	ea00000f	 b           |$LN3@ReadConfig|

; 320  :         }
; 321  :         else {

  000d8	ea00000e	 b           |$LN1@ReadConfig|
  000dc		 |$LN2@ReadConfig|

; 322  :             ASSERT(FALSE);

  000dc	ea000002	 b           |$LN9@ReadConfig|
  000e0	e3a03001	 mov         r3, #1
  000e4	e58d3010	 str         r3, [sp, #0x10]
  000e8	ea000008	 b           |$LN10@ReadConfig|
  000ec		 |$LN9@ReadConfig|
  000ec	e3a03c01	 mov         r3, #1, 24
  000f0	e3833042	 orr         r3, r3, #0x42
  000f4	e59f2034	 ldr         r2, [pc, #0x34]
  000f8	e59f102c	 ldr         r1, [pc, #0x2C]
  000fc	e59f0024	 ldr         r0, [pc, #0x24]
  00100	eb000000	 bl          NKDbgPrintfW
  00104	e6000010	 __debugbreak_ce
  00108	e3a03000	 mov         r3, #0
  0010c	e58d3010	 str         r3, [sp, #0x10]
  00110		 |$LN10@ReadConfig|

; 323  :             return 0;

  00110	e3a03000	 mov         r3, #0
  00114	e58d3000	 str         r3, [sp]
  00118		 |$LN1@ReadConfig|
  00118		 |$LN3@ReadConfig|

; 324  :         }
; 325  :     }

  00118	e59d0000	 ldr         r0, [sp]
  0011c	e28dd014	 add         sp, sp, #0x14
  00120	e89d6000	 ldmia       sp, {sp, lr}
  00124	e12fff1e	 bx          lr
  00128		 |$LN14@ReadConfig|
  00128		 |$LN15@ReadConfig|
  00128	00000000	 DCD         |??_C@_1FK@FNONLNGN@?$AA?$CF?$AAs?$AA?3?$AA?5?$AAD?$AAE?$AAB?$AAU?$AAG?$AAC?$AAH?$AAK?$AA?5?$AAf?$AAa?$AAi?$AAl?$AAe?$AAd?$AA?5?$AAi?$AAn?$AA?5?$AAf?$AAi?$AAl?$AAe?$AA?5?$AA?$CF?$AAs?$AA?5?$AAa@|
  0012c		 |$LN16@ReadConfig|
  0012c	00000000	 DCD         |??_C@_1BA@LEPJIIOK@?$AAU?$AAn?$AAk?$AAn?$AAo?$AAw?$AAn?$AA?$AA@|
  00130		 |$LN17@ReadConfig|
  00130	00000000	 DCD         |??_C@_1CG@MKCCFBBJ@?$AA?4?$AA?4?$AA?2?$AAi?$AAn?$AAc?$AA?2?$AAb?$AAu?$AAl?$AA_?$AAu?$AAs?$AAb?$AAf?$AAn?$AA?4?$AAh?$AA?$AA@|
  00134		 |$M38298|

			 ENDP  ; |?ReadConfigurationRegister@BulEndpoint@@QAAKXZ|, BulEndpoint::ReadConfigurationRegister

	EXPORT	|?IsEndpointHalted@BulEndpoint@@UAAKPAH@Z| ; BulEndpoint::IsEndpointHalted

  00030			 AREA	 |.pdata|, PDATA
|$T38312| DCD	|$LN7@IsEndpoint|
	DCD	0x40002504
; Function compile flags: /Odtp
; File c:\wince600\platform\common\src\soc\pxa27x_ms_v1\usbfn\bul_usbfn.cpp

  00b48			 AREA	 |.text|, CODE, ARM

  00b48		 |?IsEndpointHalted@BulEndpoint@@UAAKPAH@Z| PROC ; BulEndpoint::IsEndpointHalted

; 136  : {

  00b48		 |$LN7@IsEndpoint|
  00b48	e1a0c00d	 mov         r12, sp
  00b4c	e92d0003	 stmdb       sp!, {r0, r1}
  00b50	e92d5000	 stmdb       sp!, {r12, lr}
  00b54	e24dd004	 sub         sp, sp, #4
  00b58		 |$M38309|

; 137  :     Lock();

  00b58	e59d300c	 ldr         r3, [sp, #0xC]
  00b5c	e2830008	 add         r0, r3, #8
  00b60	eb000000	 bl          |?Lock@CLockObject@@QAAXXZ|

; 138  :     if (m_fStalled)

  00b64	e59d300c	 ldr         r3, [sp, #0xC]
  00b68	e283303c	 add         r3, r3, #0x3C
  00b6c	e5933000	 ldr         r3, [r3]
  00b70	e3530000	 cmp         r3, #0
  00b74	0a000007	 beq         |$LN2@IsEndpoint|

; 139  :         IST(0);

  00b78	e3a01000	 mov         r1, #0
  00b7c	e59d300c	 ldr         r3, [sp, #0xC]
  00b80	e5933000	 ldr         r3, [r3]
  00b84	e2833030	 add         r3, r3, #0x30
  00b88	e59d000c	 ldr         r0, [sp, #0xC]
  00b8c	e5933000	 ldr         r3, [r3]
  00b90	e1a0e00f	 mov         lr, pc
  00b94	e12fff13	 bx          r3
  00b98		 |$LN2@IsEndpoint|

; 140  :     if (pfHalted)

  00b98	e59d3010	 ldr         r3, [sp, #0x10]
  00b9c	e3530000	 cmp         r3, #0
  00ba0	0a000004	 beq         |$LN1@IsEndpoint|

; 141  :         *pfHalted = m_fStalled;

  00ba4	e59d300c	 ldr         r3, [sp, #0xC]
  00ba8	e283303c	 add         r3, r3, #0x3C
  00bac	e5932000	 ldr         r2, [r3]
  00bb0	e59d3010	 ldr         r3, [sp, #0x10]
  00bb4	e5832000	 str         r2, [r3]
  00bb8		 |$LN1@IsEndpoint|

; 142  :     Unlock();

  00bb8	e59d300c	 ldr         r3, [sp, #0xC]
  00bbc	e2830008	 add         r0, r3, #8
  00bc0	eb000000	 bl          |?Unlock@CLockObject@@QAAXXZ|

; 143  :     return ERROR_SUCCESS;

  00bc4	e3a03000	 mov         r3, #0
  00bc8	e58d3000	 str         r3, [sp]

; 144  : }

  00bcc	e59d0000	 ldr         r0, [sp]
  00bd0	e28dd004	 add         sp, sp, #4
  00bd4	e89d6000	 ldmia       sp, {sp, lr}
  00bd8	e12fff1e	 bx          lr
  00bdc		 |$M38310|

			 ENDP  ; |?IsEndpointHalted@BulEndpoint@@UAAKPAH@Z|, BulEndpoint::IsEndpointHalted

	EXPORT	|?CompleteTransfer@BulEndpoint@@IAAPAU_STransfer@@K@Z| ; BulEndpoint::CompleteTransfer

  00038			 AREA	 |.pdata|, PDATA
|$T38318| DCD	|$LN6@CompleteTr|
	DCD	0x40002004
; Function compile flags: /Odtp

  00bdc			 AREA	 |.text|, CODE, ARM

  00bdc		 |?CompleteTransfer@BulEndpoint@@IAAPAU_STransfer@@K@Z| PROC ; BulEndpoint::CompleteTransfer

; 146  : {

  00bdc		 |$LN6@CompleteTr|
  00bdc	e1a0c00d	 mov         r12, sp
  00be0	e92d0003	 stmdb       sp!, {r0, r1}
  00be4	e92d5000	 stmdb       sp!, {r12, lr}
  00be8	e24dd008	 sub         sp, sp, #8
  00bec		 |$M38315|

; 147  :     if (m_pCurTransfer) {

  00bec	e59d3010	 ldr         r3, [sp, #0x10]
  00bf0	e2833034	 add         r3, r3, #0x34
  00bf4	e5933000	 ldr         r3, [r3]
  00bf8	e3530000	 cmp         r3, #0
  00bfc	0a000010	 beq         |$LN1@CompleteTr|

; 148  :         PSTransfer  pCurTransfer = m_pCurTransfer;

  00c00	e59d3010	 ldr         r3, [sp, #0x10]
  00c04	e2833034	 add         r3, r3, #0x34
  00c08	e5933000	 ldr         r3, [r3]
  00c0c	e58d3000	 str         r3, [sp]

; 149  :         m_pCurTransfer->dwUsbError= dwError;

  00c10	e59d3010	 ldr         r3, [sp, #0x10]
  00c14	e2833034	 add         r3, r3, #0x34
  00c18	e5933000	 ldr         r3, [r3]
  00c1c	e2832014	 add         r2, r3, #0x14
  00c20	e59d3014	 ldr         r3, [sp, #0x14]
  00c24	e5823000	 str         r3, [r2]

; 150  :         m_pCurTransfer = NULL;

  00c28	e59d3010	 ldr         r3, [sp, #0x10]
  00c2c	e2832034	 add         r2, r3, #0x34
  00c30	e3a03000	 mov         r3, #0
  00c34	e5823000	 str         r3, [r2]

; 151  :         return pCurTransfer ;

  00c38	e59d3000	 ldr         r3, [sp]
  00c3c	e58d3004	 str         r3, [sp, #4]
  00c40	ea000001	 b           |$LN2@CompleteTr|
  00c44		 |$LN1@CompleteTr|

; 152  :     }
; 153  :     return NULL;

  00c44	e3a03000	 mov         r3, #0
  00c48	e58d3004	 str         r3, [sp, #4]
  00c4c		 |$LN2@CompleteTr|

; 154  : }

  00c4c	e59d0004	 ldr         r0, [sp, #4]
  00c50	e28dd008	 add         sp, sp, #8
  00c54	e89d6000	 ldmia       sp, {sp, lr}
  00c58	e12fff1e	 bx          lr
  00c5c		 |$M38316|

			 ENDP  ; |?CompleteTransfer@BulEndpoint@@IAAPAU_STransfer@@K@Z|, BulEndpoint::CompleteTransfer

	EXPORT	|??_C@_1IO@HHHNJPIB@?$AAC?$AA?3?$AA?2?$AAW?$AAI?$AAN?$AAC?$AAE?$AA6?$AA0?$AA0?$AA?2?$AAP?$AAL?$AAA?$AAT?$AAF?$AAO?$AAR?$AAM?$AA?2?$AAC?$AAO?$AAM?$AAM?$AAO?$AAN?$AA?2?$AAS?$AAR?$AAC?$AA?2@| [ DATA ] ; `string'
	EXPORT	|?EnableEndpointInterrupt@BulUsbDevice@@QAAHKH@Z| ; BulUsbDevice::EnableEndpointInterrupt
	EXPORT	|??_C@_1FI@EMOFCKEN@?$AAR?$AAe?$AAa?$AAd?$AAC?$AAo?$AAn?$AAf?$AAi?$AAg?$AAu?$AAr?$AAa?$AAt?$AAi?$AAo?$AAn?$AAR?$AAe?$AAg?$AAi?$AAs?$AAt?$AAe?$AAr?$AA?5?$AA?$CI?$AA?$CF?$AAd?$AA?$CJ?$AA?5?$AAU@| [ DATA ] ; `string'
	EXPORT	|??_C@_1FG@MONBHJOI@?$AAb?$AAu?$AAl?$AAv?$AAe?$AAr?$AAd?$AAe?$AA_?$AAu?$AAs?$AAb?$AAf?$AAn?$AA?$CB?$AAB?$AAu?$AAl?$AAE?$AAn?$AAd?$AAp?$AAo?$AAi?$AAn?$AAt?$AA?3?$AA?3?$AAI?$AAs?$AAs?$AAu@| [ DATA ] ; `string'
	EXPORT	|?IssueTransfer@BulEndpoint@@UAAKPAU_STransfer@@@Z| ; BulEndpoint::IssueTransfer

  00040			 AREA	 |.pdata|, PDATA
|$T38344| DCD	|$LN30@IssueTrans|
	DCD	0x4000e004

  00000			 AREA	 |.rdata|, DATA, READONLY
|??_C@_1IO@HHHNJPIB@?$AAC?$AA?3?$AA?2?$AAW?$AAI?$AAN?$AAC?$AAE?$AA6?$AA0?$AA0?$AA?2?$AAP?$AAL?$AAA?$AAT?$AAF?$AAO?$AAR?$AAM?$AA?2?$AAC?$AAO?$AAM?$AAM?$AAO?$AAN?$AA?2?$AAS?$AAR?$AAC?$AA?2@| DCB "C"
	DCB	0x0, ":", 0x0, "\\", 0x0, "W", 0x0, "I", 0x0, "N", 0x0, "C"
	DCB	0x0, "E", 0x0, "6", 0x0, "0", 0x0, "0", 0x0, "\\", 0x0, "P"
	DCB	0x0, "L", 0x0, "A", 0x0, "T", 0x0, "F", 0x0, "O", 0x0, "R"
	DCB	0x0, "M", 0x0, "\\", 0x0, "C", 0x0, "O", 0x0, "M", 0x0, "M"
	DCB	0x0, "O", 0x0, "N", 0x0, "\\", 0x0, "S", 0x0, "R", 0x0, "C"
	DCB	0x0, "\\", 0x0, "S", 0x0, "O", 0x0, "C", 0x0, "\\", 0x0, "P"
	DCB	0x0, "X", 0x0, "A", 0x0, "2", 0x0, "7", 0x0, "X", 0x0, "_"
	DCB	0x0, "M", 0x0, "S", 0x0, "_", 0x0, "V", 0x0, "1", 0x0, "\\"
	DCB	0x0, "U", 0x0, "S", 0x0, "B", 0x0, "F", 0x0, "N", 0x0, "\\"
	DCB	0x0, ".", 0x0, "\\", 0x0, "b", 0x0, "u", 0x0, "l", 0x0, "_"
	DCB	0x0, "u", 0x0, "s", 0x0, "b", 0x0, "f", 0x0, "n", 0x0, "."
	DCB	0x0, "c", 0x0, "p", 0x0, "p", 0x0, 0x0, 0x0 ; `string'

  00000			 AREA	 |.rdata|, DATA, READONLY
|??_C@_1FI@EMOFCKEN@?$AAR?$AAe?$AAa?$AAd?$AAC?$AAo?$AAn?$AAf?$AAi?$AAg?$AAu?$AAr?$AAa?$AAt?$AAi?$AAo?$AAn?$AAR?$AAe?$AAg?$AAi?$AAs?$AAt?$AAe?$AAr?$AA?5?$AA?$CI?$AA?$CF?$AAd?$AA?$CJ?$AA?5?$AAU@| DCB "R"
	DCB	0x0, "e", 0x0, "a", 0x0, "d", 0x0, "C", 0x0, "o", 0x0, "n"
	DCB	0x0, "f", 0x0, "i", 0x0, "g", 0x0, "u", 0x0, "r", 0x0, "a"
	DCB	0x0, "t", 0x0, "i", 0x0, "o", 0x0, "n", 0x0, "R", 0x0, "e"
	DCB	0x0, "g", 0x0, "i", 0x0, "s", 0x0, "t", 0x0, "e", 0x0, "r"
	DCB	0x0, " ", 0x0, "(", 0x0, "%", 0x0, "d", 0x0, ")", 0x0, " "
	DCB	0x0, "U", 0x0, "D", 0x0, "C", 0x0, "C", 0x0, "S", 0x0, "R"
	DCB	0x0, " ", 0x0, "=", 0x0, "0", 0x0, "x", 0x0, "%", 0x0, "x"
	DCB	0x0, 0x0, 0x0				; `string'

  00000			 AREA	 |.rdata|, DATA, READONLY
|??_C@_1FG@MONBHJOI@?$AAb?$AAu?$AAl?$AAv?$AAe?$AAr?$AAd?$AAe?$AA_?$AAu?$AAs?$AAb?$AAf?$AAn?$AA?$CB?$AAB?$AAu?$AAl?$AAE?$AAn?$AAd?$AAp?$AAo?$AAi?$AAn?$AAt?$AA?3?$AA?3?$AAI?$AAs?$AAs?$AAu@| DCB "b"
	DCB	0x0, "u", 0x0, "l", 0x0, "v", 0x0, "e", 0x0, "r", 0x0, "d"
	DCB	0x0, "e", 0x0, "_", 0x0, "u", 0x0, "s", 0x0, "b", 0x0, "f"
	DCB	0x0, "n", 0x0, "!", 0x0, "B", 0x0, "u", 0x0, "l", 0x0, "E"
	DCB	0x0, "n", 0x0, "d", 0x0, "p", 0x0, "o", 0x0, "i", 0x0, "n"
	DCB	0x0, "t", 0x0, ":", 0x0, ":", 0x0, "I", 0x0, "s", 0x0, "s"
	DCB	0x0, "u", 0x0, "e", 0x0, "T", 0x0, "r", 0x0, "a", 0x0, "n"
	DCB	0x0, "s", 0x0, "f", 0x0, "e", 0x0, "r", 0x0, ":", 0x0, 0x0
	DCB	0x0					; `string'
; Function compile flags: /Odtp

  00c5c			 AREA	 |.text|, CODE, ARM

  00c5c		 |?IssueTransfer@BulEndpoint@@UAAKPAU_STransfer@@@Z| PROC ; BulEndpoint::IssueTransfer

; 157  : {

  00c5c		 |$LN30@IssueTrans|
  00c5c	e1a0c00d	 mov         r12, sp
  00c60	e92d0003	 stmdb       sp!, {r0, r1}
  00c64	e92d5000	 stmdb       sp!, {r12, lr}
  00c68	e24dd030	 sub         sp, sp, #0x30
  00c6c		 |$M38341|

; 158  :     DWORD dwReturn = ERROR_SUCCESS;

  00c6c	e3a03000	 mov         r3, #0
  00c70	e58d3000	 str         r3, [sp]

; 159  :     SETFNAME();

  00c74	e59f335c	 ldr         r3, [pc, #0x35C]
  00c78	e58d3004	 str         r3, [sp, #4]

; 160  :     FUNCTION_ENTER_MSG();

  00c7c	e59f3348	 ldr         r3, [pc, #0x348]
  00c80	e5933440	 ldr         r3, [r3, #0x440]
  00c84	e3130a01	 tst         r3, #1, 20
  00c88	0a00000d	 beq         |$LN10@IssueTrans|
  00c8c	e59f3338	 ldr         r3, [pc, #0x338]
  00c90	e5933440	 ldr         r3, [r3, #0x440]
  00c94	e3130801	 tst         r3, #1, 16
  00c98	0a000003	 beq         |$LN8@IssueTrans|
  00c9c	e59d1004	 ldr         r1, [sp, #4]
  00ca0	e59f032c	 ldr         r0, [pc, #0x32C]
  00ca4	eb000000	 bl          CeLogMsg
  00ca8	ea000002	 b           |$LN9@IssueTrans|
  00cac		 |$LN8@IssueTrans|
  00cac	e59d1004	 ldr         r1, [sp, #4]
  00cb0	e59f031c	 ldr         r0, [pc, #0x31C]
  00cb4	eb000000	 bl          NKDbgPrintfW
  00cb8		 |$LN9@IssueTrans|
  00cb8	e3a03001	 mov         r3, #1
  00cbc	e58d300c	 str         r3, [sp, #0xC]
  00cc0	ea000001	 b           |$LN11@IssueTrans|
  00cc4		 |$LN10@IssueTrans|
  00cc4	e3a03000	 mov         r3, #0
  00cc8	e58d300c	 str         r3, [sp, #0xC]
  00ccc		 |$LN11@IssueTrans|

; 161  :     Lock();

  00ccc	e59d3038	 ldr         r3, [sp, #0x38]
  00cd0	e2830008	 add         r0, r3, #8
  00cd4	eb000000	 bl          |?Lock@CLockObject@@QAAXXZ|

; 162  :     DEBUGMSG(ZONE_FUNCTION, (_T("ReadConfigurationRegister (%d) UDCCSR =0x%x"),m_dwEndpointIndex,ReadConfigurationRegister()));

  00cd8	e59f32ec	 ldr         r3, [pc, #0x2EC]
  00cdc	e5933440	 ldr         r3, [r3, #0x440]
  00ce0	e3130a01	 tst         r3, #1, 20
  00ce4	0a000019	 beq         |$LN14@IssueTrans|
  00ce8	e59f32dc	 ldr         r3, [pc, #0x2DC]
  00cec	e5933440	 ldr         r3, [r3, #0x440]
  00cf0	e3130801	 tst         r3, #1, 16
  00cf4	0a000009	 beq         |$LN12@IssueTrans|
  00cf8	e59d0038	 ldr         r0, [sp, #0x38]
  00cfc	eb000000	 bl          |?ReadConfigurationRegister@BulEndpoint@@QAAKXZ|
  00d00	e58d0010	 str         r0, [sp, #0x10]
  00d04	e59d2010	 ldr         r2, [sp, #0x10]
  00d08	e59d3038	 ldr         r3, [sp, #0x38]
  00d0c	e2833020	 add         r3, r3, #0x20
  00d10	e5931000	 ldr         r1, [r3]
  00d14	e59f02b4	 ldr         r0, [pc, #0x2B4]
  00d18	eb000000	 bl          CeLogMsg
  00d1c	ea000008	 b           |$LN13@IssueTrans|
  00d20		 |$LN12@IssueTrans|
  00d20	e59d0038	 ldr         r0, [sp, #0x38]
  00d24	eb000000	 bl          |?ReadConfigurationRegister@BulEndpoint@@QAAKXZ|
  00d28	e58d0014	 str         r0, [sp, #0x14]
  00d2c	e59d2014	 ldr         r2, [sp, #0x14]
  00d30	e59d3038	 ldr         r3, [sp, #0x38]
  00d34	e2833020	 add         r3, r3, #0x20
  00d38	e5931000	 ldr         r1, [r3]
  00d3c	e59f028c	 ldr         r0, [pc, #0x28C]
  00d40	eb000000	 bl          NKDbgPrintfW
  00d44		 |$LN13@IssueTrans|
  00d44	e3a03001	 mov         r3, #1
  00d48	e58d3018	 str         r3, [sp, #0x18]
  00d4c	ea000001	 b           |$LN15@IssueTrans|
  00d50		 |$LN14@IssueTrans|
  00d50	e3a03000	 mov         r3, #0
  00d54	e58d3018	 str         r3, [sp, #0x18]
  00d58		 |$LN15@IssueTrans|

; 163  :     
; 164  :     if (pTransfer!=NULL && m_pCurTransfer == NULL && (pTransfer->cbBuffer==0 || pTransfer->pvBuffer!=NULL) ) { // If it is valid.        

  00d58	e59d303c	 ldr         r3, [sp, #0x3C]
  00d5c	e3530000	 cmp         r3, #0
  00d60	0a000068	 beq         |$LN5@IssueTrans|
  00d64	e59d3038	 ldr         r3, [sp, #0x38]
  00d68	e2833034	 add         r3, r3, #0x34
  00d6c	e5933000	 ldr         r3, [r3]
  00d70	e3530000	 cmp         r3, #0
  00d74	1a000063	 bne         |$LN5@IssueTrans|
  00d78	e59d303c	 ldr         r3, [sp, #0x3C]
  00d7c	e283300c	 add         r3, r3, #0xC
  00d80	e5933000	 ldr         r3, [r3]
  00d84	e3530000	 cmp         r3, #0
  00d88	0a000004	 beq         |$LN4@IssueTrans|
  00d8c	e59d303c	 ldr         r3, [sp, #0x3C]
  00d90	e2833004	 add         r3, r3, #4
  00d94	e5933000	 ldr         r3, [r3]
  00d98	e3530000	 cmp         r3, #0
  00d9c	0a000059	 beq         |$LN5@IssueTrans|
  00da0		 |$LN4@IssueTrans|

; 165  :         if (((pTransfer->dwFlags & USB_IN_TRANSFER)!= 0 )== ((m_epDesc.bEndpointAddress & 0x80)!=0)) {

  00da0	e59d303c	 ldr         r3, [sp, #0x3C]
  00da4	e5933000	 ldr         r3, [r3]
  00da8	e3130080	 tst         r3, #0x80
  00dac	0a000002	 beq         |$LN16@IssueTrans|
  00db0	e3a03001	 mov         r3, #1
  00db4	e58d301c	 str         r3, [sp, #0x1C]
  00db8	ea000001	 b           |$LN17@IssueTrans|
  00dbc		 |$LN16@IssueTrans|
  00dbc	e3a03000	 mov         r3, #0
  00dc0	e58d301c	 str         r3, [sp, #0x1C]
  00dc4		 |$LN17@IssueTrans|
  00dc4	e59d3038	 ldr         r3, [sp, #0x38]
  00dc8	e2833026	 add         r3, r3, #0x26
  00dcc	e5d33000	 ldrb        r3, [r3]
  00dd0	e3130080	 tst         r3, #0x80
  00dd4	0a000002	 beq         |$LN18@IssueTrans|
  00dd8	e3a03001	 mov         r3, #1
  00ddc	e58d3020	 str         r3, [sp, #0x20]
  00de0	ea000001	 b           |$LN19@IssueTrans|
  00de4		 |$LN18@IssueTrans|
  00de4	e3a03000	 mov         r3, #0
  00de8	e58d3020	 str         r3, [sp, #0x20]
  00dec		 |$LN19@IssueTrans|
  00dec	e59d201c	 ldr         r2, [sp, #0x1C]
  00df0	e59d3020	 ldr         r3, [sp, #0x20]
  00df4	e1520003	 cmp         r2, r3
  00df8	1a00003f	 bne         |$LN3@IssueTrans|

; 166  :             pTransfer ->pvPddData = (PVOID)m_dwEndpointIndex;

  00dfc	e59d3038	 ldr         r3, [sp, #0x38]
  00e00	e2831020	 add         r1, r3, #0x20
  00e04	e59d303c	 ldr         r3, [sp, #0x3C]
  00e08	e2832018	 add         r2, r3, #0x18
  00e0c	e5913000	 ldr         r3, [r1]
  00e10	e5823000	 str         r3, [r2]

; 167  :             m_pCurTransfer = pTransfer;

  00e14	e59d3038	 ldr         r3, [sp, #0x38]
  00e18	e2832034	 add         r2, r3, #0x34
  00e1c	e59d303c	 ldr         r3, [sp, #0x3C]
  00e20	e5823000	 str         r3, [r2]

; 168  :             m_pCurTransfer->cbTransferred = 0;

  00e24	e59d3038	 ldr         r3, [sp, #0x38]
  00e28	e2833034	 add         r3, r3, #0x34
  00e2c	e5933000	 ldr         r3, [r3]
  00e30	e2832010	 add         r2, r3, #0x10
  00e34	e3a03000	 mov         r3, #0
  00e38	e5823000	 str         r3, [r2]

; 169  :             m_pCurTransfer->pvPddData = (PVOID) m_dwEndpointIndex;

  00e3c	e59d3038	 ldr         r3, [sp, #0x38]
  00e40	e2831020	 add         r1, r3, #0x20
  00e44	e59d3038	 ldr         r3, [sp, #0x38]
  00e48	e2833034	 add         r3, r3, #0x34
  00e4c	e5933000	 ldr         r3, [r3]
  00e50	e2832018	 add         r2, r3, #0x18
  00e54	e5913000	 ldr         r3, [r1]
  00e58	e5823000	 str         r3, [r2]

; 170  :             m_fZeroPacket = (m_pCurTransfer->cbBuffer== 0 || m_pCurTransfer->pvBuffer== 0);

  00e5c	e59d3038	 ldr         r3, [sp, #0x38]
  00e60	e2833034	 add         r3, r3, #0x34
  00e64	e5933000	 ldr         r3, [r3]
  00e68	e283300c	 add         r3, r3, #0xC
  00e6c	e5933000	 ldr         r3, [r3]
  00e70	e3530000	 cmp         r3, #0
  00e74	0a000009	 beq         |$LN20@IssueTrans|
  00e78	e59d3038	 ldr         r3, [sp, #0x38]
  00e7c	e2833034	 add         r3, r3, #0x34
  00e80	e5933000	 ldr         r3, [r3]
  00e84	e2833004	 add         r3, r3, #4
  00e88	e5933000	 ldr         r3, [r3]
  00e8c	e3530000	 cmp         r3, #0
  00e90	0a000002	 beq         |$LN20@IssueTrans|
  00e94	e3a03000	 mov         r3, #0
  00e98	e58d3024	 str         r3, [sp, #0x24]
  00e9c	ea000001	 b           |$LN21@IssueTrans|
  00ea0		 |$LN20@IssueTrans|
  00ea0	e3a03001	 mov         r3, #1
  00ea4	e58d3024	 str         r3, [sp, #0x24]
  00ea8		 |$LN21@IssueTrans|
  00ea8	e59d3038	 ldr         r3, [sp, #0x38]
  00eac	e2832038	 add         r2, r3, #0x38
  00eb0	e59d3024	 ldr         r3, [sp, #0x24]
  00eb4	e5823000	 str         r3, [r2]

; 171  :             m_pUsbDevice->EnableEndpointInterrupt(m_dwEndpointIndex,TRUE);

  00eb8	e3a02001	 mov         r2, #1
  00ebc	e59d3038	 ldr         r3, [sp, #0x38]
  00ec0	e2833020	 add         r3, r3, #0x20
  00ec4	e5931000	 ldr         r1, [r3]
  00ec8	e59d3038	 ldr         r3, [sp, #0x38]
  00ecc	e283301c	 add         r3, r3, #0x1C
  00ed0	e5930000	 ldr         r0, [r3]
  00ed4	eb000000	 bl          |?EnableEndpointInterrupt@BulUsbDevice@@QAAHKH@Z|

; 172  :             // Trigger First IST.
; 173  :             IST(EPINT_PACKET_COMPLETE);

  00ed8	e3a01001	 mov         r1, #1
  00edc	e59d3038	 ldr         r3, [sp, #0x38]
  00ee0	e5933000	 ldr         r3, [r3]
  00ee4	e2833030	 add         r3, r3, #0x30
  00ee8	e59d0038	 ldr         r0, [sp, #0x38]
  00eec	e5933000	 ldr         r3, [r3]
  00ef0	e1a0e00f	 mov         lr, pc
  00ef4	e12fff13	 bx          r3

; 174  :         }
; 175  :         else 

  00ef8	ea000001	 b           |$LN2@IssueTrans|
  00efc		 |$LN3@IssueTrans|

; 176  :             dwReturn = ERROR_INVALID_DATA;

  00efc	e3a0300d	 mov         r3, #0xD
  00f00	e58d3000	 str         r3, [sp]
  00f04		 |$LN2@IssueTrans|

; 177  :     }
; 178  :     else 

  00f04	ea000001	 b           |$LN1@IssueTrans|
  00f08		 |$LN5@IssueTrans|

; 179  :         dwReturn = ERROR_NOT_READY;

  00f08	e3a03015	 mov         r3, #0x15
  00f0c	e58d3000	 str         r3, [sp]
  00f10		 |$LN1@IssueTrans|

; 180  :     Unlock();

  00f10	e59d3038	 ldr         r3, [sp, #0x38]
  00f14	e2830008	 add         r0, r3, #8
  00f18	eb000000	 bl          |?Unlock@CLockObject@@QAAXXZ|

; 181  :     FUNCTION_LEAVE_MSG();

  00f1c	e59f30a8	 ldr         r3, [pc, #0xA8]
  00f20	e5933440	 ldr         r3, [r3, #0x440]
  00f24	e3130a01	 tst         r3, #1, 20
  00f28	0a00000d	 beq         |$LN24@IssueTrans|
  00f2c	e59f3098	 ldr         r3, [pc, #0x98]
  00f30	e5933440	 ldr         r3, [r3, #0x440]
  00f34	e3130801	 tst         r3, #1, 16
  00f38	0a000003	 beq         |$LN22@IssueTrans|
  00f3c	e59d1004	 ldr         r1, [sp, #4]
  00f40	e59f0080	 ldr         r0, [pc, #0x80]
  00f44	eb000000	 bl          CeLogMsg
  00f48	ea000002	 b           |$LN23@IssueTrans|
  00f4c		 |$LN22@IssueTrans|
  00f4c	e59d1004	 ldr         r1, [sp, #4]
  00f50	e59f0070	 ldr         r0, [pc, #0x70]
  00f54	eb000000	 bl          NKDbgPrintfW
  00f58		 |$LN23@IssueTrans|
  00f58	e3a03001	 mov         r3, #1
  00f5c	e58d3028	 str         r3, [sp, #0x28]
  00f60	ea000001	 b           |$LN25@IssueTrans|
  00f64		 |$LN24@IssueTrans|
  00f64	e3a03000	 mov         r3, #0
  00f68	e58d3028	 str         r3, [sp, #0x28]
  00f6c		 |$LN25@IssueTrans|

; 182  :     ASSERT(dwReturn == ERROR_SUCCESS);

  00f6c	e59d3000	 ldr         r3, [sp]
  00f70	e3530000	 cmp         r3, #0
  00f74	1a000002	 bne         |$LN26@IssueTrans|
  00f78	e3a03001	 mov         r3, #1
  00f7c	e58d302c	 str         r3, [sp, #0x2C]
  00f80	ea000007	 b           |$LN27@IssueTrans|
  00f84		 |$LN26@IssueTrans|
  00f84	e3a030b6	 mov         r3, #0xB6
  00f88	e59f2034	 ldr         r2, [pc, #0x34]
  00f8c	e59f102c	 ldr         r1, [pc, #0x2C]
  00f90	e59f0024	 ldr         r0, [pc, #0x24]
  00f94	eb000000	 bl          NKDbgPrintfW
  00f98	e6000010	 __debugbreak_ce
  00f9c	e3a03000	 mov         r3, #0
  00fa0	e58d302c	 str         r3, [sp, #0x2C]
  00fa4		 |$LN27@IssueTrans|

; 183  :     return dwReturn ;

  00fa4	e59d3000	 ldr         r3, [sp]
  00fa8	e58d3008	 str         r3, [sp, #8]

; 184  : }

  00fac	e59d0008	 ldr         r0, [sp, #8]
  00fb0	e28dd030	 add         sp, sp, #0x30
  00fb4	e89d6000	 ldmia       sp, {sp, lr}
  00fb8	e12fff1e	 bx          lr
  00fbc		 |$LN31@IssueTrans|
  00fbc		 |$LN32@IssueTrans|
  00fbc	00000000	 DCD         |??_C@_1FK@FNONLNGN@?$AA?$CF?$AAs?$AA?3?$AA?5?$AAD?$AAE?$AAB?$AAU?$AAG?$AAC?$AAH?$AAK?$AA?5?$AAf?$AAa?$AAi?$AAl?$AAe?$AAd?$AA?5?$AAi?$AAn?$AA?5?$AAf?$AAi?$AAl?$AAe?$AA?5?$AA?$CF?$AAs?$AA?5?$AAa@|
  00fc0		 |$LN33@IssueTrans|
  00fc0	00000000	 DCD         |??_C@_1BA@LEPJIIOK@?$AAU?$AAn?$AAk?$AAn?$AAo?$AAw?$AAn?$AA?$AA@|
  00fc4		 |$LN34@IssueTrans|
  00fc4	00000000	 DCD         |??_C@_1IO@HHHNJPIB@?$AAC?$AA?3?$AA?2?$AAW?$AAI?$AAN?$AAC?$AAE?$AA6?$AA0?$AA0?$AA?2?$AAP?$AAL?$AAA?$AAT?$AAF?$AAO?$AAR?$AAM?$AA?2?$AAC?$AAO?$AAM?$AAM?$AAO?$AAN?$AA?2?$AAS?$AAR?$AAC?$AA?2@|
  00fc8		 |$LN35@IssueTrans|
  00fc8	00000000	 DCD         |??_C@_1BA@PLOOFDPK@?$AA?$CF?$AAs?$AA?5?$AA?9?$AA?9?$AA?$AN?$AA?6?$AA?$AA@|
  00fcc		 |$LN36@IssueTrans|
  00fcc	00000000	 DCD         |dpCurSettings|
  00fd0		 |$LN37@IssueTrans|
  00fd0	00000000	 DCD         |??_C@_1FI@EMOFCKEN@?$AAR?$AAe?$AAa?$AAd?$AAC?$AAo?$AAn?$AAf?$AAi?$AAg?$AAu?$AAr?$AAa?$AAt?$AAi?$AAo?$AAn?$AAR?$AAe?$AAg?$AAi?$AAs?$AAt?$AAe?$AAr?$AA?5?$AA?$CI?$AA?$CF?$AAd?$AA?$CJ?$AA?5?$AAU@|
  00fd4		 |$LN38@IssueTrans|
  00fd4	00000000	 DCD         |??_C@_1BA@DAJPCKDK@?$AA?$CF?$AAs?$AA?5?$AA?$CL?$AA?$CL?$AA?$AN?$AA?6?$AA?$AA@|
  00fd8		 |$LN39@IssueTrans|
  00fd8	00000000	 DCD         |??_C@_1FG@MONBHJOI@?$AAb?$AAu?$AAl?$AAv?$AAe?$AAr?$AAd?$AAe?$AA_?$AAu?$AAs?$AAb?$AAf?$AAn?$AA?$CB?$AAB?$AAu?$AAl?$AAE?$AAn?$AAd?$AAp?$AAo?$AAi?$AAn?$AAt?$AA?3?$AA?3?$AAI?$AAs?$AAs?$AAu@|
  00fdc		 |$M38342|

			 ENDP  ; |?IssueTransfer@BulEndpoint@@UAAKPAU_STransfer@@@Z|, BulEndpoint::IssueTransfer

	EXPORT	|?MddTransferComplete@BulUsbDevice@@QAAXPAU_STransfer@@@Z| ; BulUsbDevice::MddTransferComplete
	EXPORT	|??_C@_1FG@LGGFLCMI@?$AAb?$AAu?$AAl?$AAv?$AAe?$AAr?$AAd?$AAe?$AA_?$AAu?$AAs?$AAb?$AAf?$AAn?$AA?$CB?$AAB?$AAu?$AAl?$AAE?$AAn?$AAd?$AAp?$AAo?$AAi?$AAn?$AAt?$AA?3?$AA?3?$AAA?$AAb?$AAo?$AAr@| [ DATA ] ; `string'
	EXPORT	|?AbortTransfer@BulEndpoint@@UAAKPAU_STransfer@@@Z| ; BulEndpoint::AbortTransfer

  00048			 AREA	 |.pdata|, PDATA
|$T38367| DCD	|$LN16@AbortTrans|
	DCD	0x40006604

  00000			 AREA	 |.rdata|, DATA, READONLY
|??_C@_1FG@LGGFLCMI@?$AAb?$AAu?$AAl?$AAv?$AAe?$AAr?$AAd?$AAe?$AA_?$AAu?$AAs?$AAb?$AAf?$AAn?$AA?$CB?$AAB?$AAu?$AAl?$AAE?$AAn?$AAd?$AAp?$AAo?$AAi?$AAn?$AAt?$AA?3?$AA?3?$AAA?$AAb?$AAo?$AAr@| DCB "b"
	DCB	0x0, "u", 0x0, "l", 0x0, "v", 0x0, "e", 0x0, "r", 0x0, "d"
	DCB	0x0, "e", 0x0, "_", 0x0, "u", 0x0, "s", 0x0, "b", 0x0, "f"
	DCB	0x0, "n", 0x0, "!", 0x0, "B", 0x0, "u", 0x0, "l", 0x0, "E"
	DCB	0x0, "n", 0x0, "d", 0x0, "p", 0x0, "o", 0x0, "i", 0x0, "n"
	DCB	0x0, "t", 0x0, ":", 0x0, ":", 0x0, "A", 0x0, "b", 0x0, "o"
	DCB	0x0, "r", 0x0, "t", 0x0, "T", 0x0, "r", 0x0, "a", 0x0, "n"
	DCB	0x0, "s", 0x0, "f", 0x0, "e", 0x0, "r", 0x0, ":", 0x0, 0x0
	DCB	0x0					; `string'
; Function compile flags: /Odtp

  00fdc			 AREA	 |.text|, CODE, ARM

  00fdc		 |?AbortTransfer@BulEndpoint@@UAAKPAU_STransfer@@@Z| PROC ; BulEndpoint::AbortTransfer

; 186  : {

  00fdc		 |$LN16@AbortTrans|
  00fdc	e1a0c00d	 mov         r12, sp
  00fe0	e92d0003	 stmdb       sp!, {r0, r1}
  00fe4	e92d5000	 stmdb       sp!, {r12, lr}
  00fe8	e24dd01c	 sub         sp, sp, #0x1C
  00fec		 |$M38364|

; 187  :     DWORD dwReturn = ERROR_SUCCESS;

  00fec	e3a03000	 mov         r3, #0
  00ff0	e58d3004	 str         r3, [sp, #4]

; 188  :     SETFNAME();

  00ff4	e59f3174	 ldr         r3, [pc, #0x174]
  00ff8	e58d3008	 str         r3, [sp, #8]

; 189  :     FUNCTION_ENTER_MSG();

  00ffc	e59f3164	 ldr         r3, [pc, #0x164]
  01000	e5933440	 ldr         r3, [r3, #0x440]
  01004	e3130a01	 tst         r3, #1, 20
  01008	0a00000d	 beq         |$LN8@AbortTrans|
  0100c	e59f3154	 ldr         r3, [pc, #0x154]
  01010	e5933440	 ldr         r3, [r3, #0x440]
  01014	e3130801	 tst         r3, #1, 16
  01018	0a000003	 beq         |$LN6@AbortTrans|
  0101c	e59d1008	 ldr         r1, [sp, #8]
  01020	e59f0144	 ldr         r0, [pc, #0x144]
  01024	eb000000	 bl          CeLogMsg
  01028	ea000002	 b           |$LN7@AbortTrans|
  0102c		 |$LN6@AbortTrans|
  0102c	e59d1008	 ldr         r1, [sp, #8]
  01030	e59f0134	 ldr         r0, [pc, #0x134]
  01034	eb000000	 bl          NKDbgPrintfW
  01038		 |$LN7@AbortTrans|
  01038	e3a03001	 mov         r3, #1
  0103c	e58d3010	 str         r3, [sp, #0x10]
  01040	ea000001	 b           |$LN9@AbortTrans|
  01044		 |$LN8@AbortTrans|
  01044	e3a03000	 mov         r3, #0
  01048	e58d3010	 str         r3, [sp, #0x10]
  0104c		 |$LN9@AbortTrans|

; 190  :     Lock();

  0104c	e59d3024	 ldr         r3, [sp, #0x24]
  01050	e2830008	 add         r0, r3, #8
  01054	eb000000	 bl          |?Lock@CLockObject@@QAAXXZ|

; 191  :     PSTransfer pNotifyTransfer = NULL;

  01058	e3a03000	 mov         r3, #0
  0105c	e58d3000	 str         r3, [sp]

; 192  :     if (pTransfer == m_pCurTransfer && m_pCurTransfer!=NULL) {

  01060	e59d3024	 ldr         r3, [sp, #0x24]
  01064	e2833034	 add         r3, r3, #0x34
  01068	e59d2028	 ldr         r2, [sp, #0x28]
  0106c	e5933000	 ldr         r3, [r3]
  01070	e1520003	 cmp         r2, r3
  01074	1a000013	 bne         |$LN3@AbortTrans|
  01078	e59d3024	 ldr         r3, [sp, #0x24]
  0107c	e2833034	 add         r3, r3, #0x34
  01080	e5933000	 ldr         r3, [r3]
  01084	e3530000	 cmp         r3, #0
  01088	0a00000e	 beq         |$LN3@AbortTrans|

; 193  :         ResetEndpoint();

  0108c	e59d3024	 ldr         r3, [sp, #0x24]
  01090	e5933000	 ldr         r3, [r3]
  01094	e283301c	 add         r3, r3, #0x1C
  01098	e59d0024	 ldr         r0, [sp, #0x24]
  0109c	e5933000	 ldr         r3, [r3]
  010a0	e1a0e00f	 mov         lr, pc
  010a4	e12fff13	 bx          r3

; 194  :         pNotifyTransfer = CompleteTransfer(UFN_CANCELED_ERROR);

  010a8	e3a01c01	 mov         r1, #1, 24
  010ac	e3811001	 orr         r1, r1, #1
  010b0	e59d0024	 ldr         r0, [sp, #0x24]
  010b4	eb000000	 bl          |?CompleteTransfer@BulEndpoint@@IAAPAU_STransfer@@K@Z|
  010b8	e58d0014	 str         r0, [sp, #0x14]
  010bc	e59d3014	 ldr         r3, [sp, #0x14]
  010c0	e58d3000	 str         r3, [sp]

; 195  :     }
; 196  :     else

  010c4	ea000001	 b           |$LN2@AbortTrans|
  010c8		 |$LN3@AbortTrans|

; 197  :         dwReturn = ERROR_INVALID_DATA;

  010c8	e3a0300d	 mov         r3, #0xD
  010cc	e58d3004	 str         r3, [sp, #4]
  010d0		 |$LN2@AbortTrans|

; 198  :     Unlock();

  010d0	e59d3024	 ldr         r3, [sp, #0x24]
  010d4	e2830008	 add         r0, r3, #8
  010d8	eb000000	 bl          |?Unlock@CLockObject@@QAAXXZ|

; 199  :     if (pNotifyTransfer)

  010dc	e59d3000	 ldr         r3, [sp]
  010e0	e3530000	 cmp         r3, #0
  010e4	0a000004	 beq         |$LN1@AbortTrans|

; 200  :         m_pUsbDevice->MddTransferComplete(pNotifyTransfer);

  010e8	e59d1000	 ldr         r1, [sp]
  010ec	e59d3024	 ldr         r3, [sp, #0x24]
  010f0	e283301c	 add         r3, r3, #0x1C
  010f4	e5930000	 ldr         r0, [r3]
  010f8	eb000000	 bl          |?MddTransferComplete@BulUsbDevice@@QAAXPAU_STransfer@@@Z|
  010fc		 |$LN1@AbortTrans|

; 201  :     FUNCTION_LEAVE_MSG();

  010fc	e59f3064	 ldr         r3, [pc, #0x64]
  01100	e5933440	 ldr         r3, [r3, #0x440]
  01104	e3130a01	 tst         r3, #1, 20
  01108	0a00000d	 beq         |$LN12@AbortTrans|
  0110c	e59f3054	 ldr         r3, [pc, #0x54]
  01110	e5933440	 ldr         r3, [r3, #0x440]
  01114	e3130801	 tst         r3, #1, 16
  01118	0a000003	 beq         |$LN10@AbortTrans|
  0111c	e59d1008	 ldr         r1, [sp, #8]
  01120	e59f003c	 ldr         r0, [pc, #0x3C]
  01124	eb000000	 bl          CeLogMsg
  01128	ea000002	 b           |$LN11@AbortTrans|
  0112c		 |$LN10@AbortTrans|
  0112c	e59d1008	 ldr         r1, [sp, #8]
  01130	e59f002c	 ldr         r0, [pc, #0x2C]
  01134	eb000000	 bl          NKDbgPrintfW
  01138		 |$LN11@AbortTrans|
  01138	e3a03001	 mov         r3, #1
  0113c	e58d3018	 str         r3, [sp, #0x18]
  01140	ea000001	 b           |$LN13@AbortTrans|
  01144		 |$LN12@AbortTrans|
  01144	e3a03000	 mov         r3, #0
  01148	e58d3018	 str         r3, [sp, #0x18]
  0114c		 |$LN13@AbortTrans|

; 202  :     return dwReturn;

  0114c	e59d3004	 ldr         r3, [sp, #4]
  01150	e58d300c	 str         r3, [sp, #0xC]

; 203  : }

  01154	e59d000c	 ldr         r0, [sp, #0xC]
  01158	e28dd01c	 add         sp, sp, #0x1C
  0115c	e89d6000	 ldmia       sp, {sp, lr}
  01160	e12fff1e	 bx          lr
  01164		 |$LN17@AbortTrans|
  01164		 |$LN18@AbortTrans|
  01164	00000000	 DCD         |??_C@_1BA@PLOOFDPK@?$AA?$CF?$AAs?$AA?5?$AA?9?$AA?9?$AA?$AN?$AA?6?$AA?$AA@|
  01168		 |$LN19@AbortTrans|
  01168	00000000	 DCD         |dpCurSettings|
  0116c		 |$LN20@AbortTrans|
  0116c	00000000	 DCD         |??_C@_1BA@DAJPCKDK@?$AA?$CF?$AAs?$AA?5?$AA?$CL?$AA?$CL?$AA?$AN?$AA?6?$AA?$AA@|
  01170		 |$LN21@AbortTrans|
  01170	00000000	 DCD         |??_C@_1FG@LGGFLCMI@?$AAb?$AAu?$AAl?$AAv?$AAe?$AAr?$AAd?$AAe?$AA_?$AAu?$AAs?$AAb?$AAf?$AAn?$AA?$CB?$AAB?$AAu?$AAl?$AAE?$AAn?$AAd?$AAp?$AAo?$AAi?$AAn?$AAt?$AA?3?$AA?3?$AAA?$AAb?$AAo?$AAr@|
  01174		 |$M38365|

			 ENDP  ; |?AbortTransfer@BulEndpoint@@UAAKPAU_STransfer@@@Z|, BulEndpoint::AbortTransfer

	EXPORT	|??_C@_1EM@NBIECGPJ@?$AA?$CF?$AAs?$AA?5?$AAM?$AAd?$AAd?$AAT?$AAr?$AAa?$AAn?$AAs?$AAf?$AAe?$AAr?$AAC?$AAo?$AAm?$AAp?$AAl?$AAe?$AAt?$AAe?$AA?5?$AAp?$AAT?$AAr?$AAa?$AAn?$AAs?$AAf?$AAe?$AAr@| [ DATA ] ; `string'
	EXPORT	|??_C@_1GE@BLEDJKNO@?$AAb?$AAu?$AAl?$AAv?$AAe?$AAr?$AAd?$AAe?$AA_?$AAu?$AAs?$AAb?$AAf?$AAn?$AA?$CB?$AAB?$AAu?$AAl?$AAU?$AAs?$AAb?$AAD?$AAe?$AAv?$AAi?$AAc?$AAe?$AA?3?$AA?3?$AAM?$AAd?$AAd@| [ DATA ] ; `string'
; File c:\wince600\platform\common\src\soc\pxa27x_ms_v1\inc\bul_usbfn.h

  00000			 AREA	 |.pdata|, PDATA
|$T38381| DCD	|$LN10@MddTransfe|
	DCD	0x40003404

  00000			 AREA	 |.rdata|, DATA, READONLY
|??_C@_1EM@NBIECGPJ@?$AA?$CF?$AAs?$AA?5?$AAM?$AAd?$AAd?$AAT?$AAr?$AAa?$AAn?$AAs?$AAf?$AAe?$AAr?$AAC?$AAo?$AAm?$AAp?$AAl?$AAe?$AAt?$AAe?$AA?5?$AAp?$AAT?$AAr?$AAa?$AAn?$AAs?$AAf?$AAe?$AAr@| DCB "%"
	DCB	0x0, "s", 0x0, " ", 0x0, "M", 0x0, "d", 0x0, "d", 0x0, "T"
	DCB	0x0, "r", 0x0, "a", 0x0, "n", 0x0, "s", 0x0, "f", 0x0, "e"
	DCB	0x0, "r", 0x0, "C", 0x0, "o", 0x0, "m", 0x0, "p", 0x0, "l"
	DCB	0x0, "e", 0x0, "t", 0x0, "e", 0x0, " ", 0x0, "p", 0x0, "T"
	DCB	0x0, "r", 0x0, "a", 0x0, "n", 0x0, "s", 0x0, "f", 0x0, "e"
	DCB	0x0, "r", 0x0, ":", 0x0, "0", 0x0, "x", 0x0, "%", 0x0, "x"
	DCB	0x0, 0x0, 0x0				; `string'

  00000			 AREA	 |.rdata|, DATA, READONLY
|??_C@_1GE@BLEDJKNO@?$AAb?$AAu?$AAl?$AAv?$AAe?$AAr?$AAd?$AAe?$AA_?$AAu?$AAs?$AAb?$AAf?$AAn?$AA?$CB?$AAB?$AAu?$AAl?$AAU?$AAs?$AAb?$AAD?$AAe?$AAv?$AAi?$AAc?$AAe?$AA?3?$AA?3?$AAM?$AAd?$AAd@| DCB "b"
	DCB	0x0, "u", 0x0, "l", 0x0, "v", 0x0, "e", 0x0, "r", 0x0, "d"
	DCB	0x0, "e", 0x0, "_", 0x0, "u", 0x0, "s", 0x0, "b", 0x0, "f"
	DCB	0x0, "n", 0x0, "!", 0x0, "B", 0x0, "u", 0x0, "l", 0x0, "U"
	DCB	0x0, "s", 0x0, "b", 0x0, "D", 0x0, "e", 0x0, "v", 0x0, "i"
	DCB	0x0, "c", 0x0, "e", 0x0, ":", 0x0, ":", 0x0, "M", 0x0, "d"
	DCB	0x0, "d", 0x0, "T", 0x0, "r", 0x0, "a", 0x0, "n", 0x0, "s"
	DCB	0x0, "f", 0x0, "e", 0x0, "r", 0x0, "C", 0x0, "o", 0x0, "m"
	DCB	0x0, "p", 0x0, "l", 0x0, "e", 0x0, "t", 0x0, "e", 0x0, ":"
	DCB	0x0, 0x0, 0x0				; `string'
; Function compile flags: /Odtp

  00000			 AREA	 |.text|, CODE, ARM

  00000		 |?MddTransferComplete@BulUsbDevice@@QAAXPAU_STransfer@@@Z| PROC ; BulUsbDevice::MddTransferComplete

; 160  :     void MddTransferComplete(PSTransfer pTransfer) {

  00000		 |$LN10@MddTransfe|
  00000	e1a0c00d	 mov         r12, sp
  00004	e92d0003	 stmdb       sp!, {r0, r1}
  00008	e92d5000	 stmdb       sp!, {r12, lr}
  0000c	e24dd008	 sub         sp, sp, #8
  00010		 |$M38378|

; 161  :         SETFNAME();

  00010	e59f30b4	 ldr         r3, [pc, #0xB4]
  00014	e58d3000	 str         r3, [sp]

; 162  :         if (m_pvMddContext && pTransfer) {

  00018	e59d3010	 ldr         r3, [sp, #0x10]
  0001c	e28330b4	 add         r3, r3, #0xB4
  00020	e5933000	 ldr         r3, [r3]
  00024	e3530000	 cmp         r3, #0
  00028	0a000022	 beq         |$LN1@MddTransfe|
  0002c	e59d3014	 ldr         r3, [sp, #0x14]
  00030	e3530000	 cmp         r3, #0
  00034	0a00001f	 beq         |$LN1@MddTransfe|

; 163  :             DEBUGMSG(ZONE_FUNCTION, (_T("%s MddTransferComplete pTransfer:0x%x"),pszFname,pTransfer));

  00038	e59f3088	 ldr         r3, [pc, #0x88]
  0003c	e5933440	 ldr         r3, [r3, #0x440]
  00040	e3130a01	 tst         r3, #1, 20
  00044	0a00000f	 beq         |$LN6@MddTransfe|
  00048	e59f3078	 ldr         r3, [pc, #0x78]
  0004c	e5933440	 ldr         r3, [r3, #0x440]
  00050	e3130801	 tst         r3, #1, 16
  00054	0a000004	 beq         |$LN4@MddTransfe|
  00058	e59d2014	 ldr         r2, [sp, #0x14]
  0005c	e59d1000	 ldr         r1, [sp]
  00060	e59f005c	 ldr         r0, [pc, #0x5C]
  00064	eb000000	 bl          CeLogMsg
  00068	ea000003	 b           |$LN5@MddTransfe|
  0006c		 |$LN4@MddTransfe|
  0006c	e59d2014	 ldr         r2, [sp, #0x14]
  00070	e59d1000	 ldr         r1, [sp]
  00074	e59f0048	 ldr         r0, [pc, #0x48]
  00078	eb000000	 bl          NKDbgPrintfW
  0007c		 |$LN5@MddTransfe|
  0007c	e3a03001	 mov         r3, #1
  00080	e58d3004	 str         r3, [sp, #4]
  00084	ea000001	 b           |$LN7@MddTransfe|
  00088		 |$LN6@MddTransfe|
  00088	e3a03000	 mov         r3, #0
  0008c	e58d3004	 str         r3, [sp, #4]
  00090		 |$LN7@MddTransfe|

; 164  :             m_pfnNotify(m_pvMddContext, UFN_MSG_TRANSFER_COMPLETE, (DWORD) pTransfer);

  00090	e59d2014	 ldr         r2, [sp, #0x14]
  00094	e3a01064	 mov         r1, #0x64
  00098	e59d3010	 ldr         r3, [sp, #0x10]
  0009c	e28330b4	 add         r3, r3, #0xB4
  000a0	e5930000	 ldr         r0, [r3]
  000a4	e59d3010	 ldr         r3, [sp, #0x10]
  000a8	e28330c0	 add         r3, r3, #0xC0
  000ac	e5933000	 ldr         r3, [r3]
  000b0	e1a0e00f	 mov         lr, pc
  000b4	e12fff13	 bx          r3
  000b8		 |$LN1@MddTransfe|

; 165  :         }
; 166  :     }

  000b8	e28dd008	 add         sp, sp, #8
  000bc	e89d6000	 ldmia       sp, {sp, lr}
  000c0	e12fff1e	 bx          lr
  000c4		 |$LN11@MddTransfe|
  000c4		 |$LN12@MddTransfe|
  000c4	00000000	 DCD         |??_C@_1EM@NBIECGPJ@?$AA?$CF?$AAs?$AA?5?$AAM?$AAd?$AAd?$AAT?$AAr?$AAa?$AAn?$AAs?$AAf?$AAe?$AAr?$AAC?$AAo?$AAm?$AAp?$AAl?$AAe?$AAt?$AAe?$AA?5?$AAp?$AAT?$AAr?$AAa?$AAn?$AAs?$AAf?$AAe?$AAr@|
  000c8		 |$LN13@MddTransfe|
  000c8	00000000	 DCD         |dpCurSettings|
  000cc		 |$LN14@MddTransfe|
  000cc	00000000	 DCD         |??_C@_1GE@BLEDJKNO@?$AAb?$AAu?$AAl?$AAv?$AAe?$AAr?$AAd?$AAe?$AA_?$AAu?$AAs?$AAb?$AAf?$AAn?$AA?$CB?$AAB?$AAu?$AAl?$AAU?$AAs?$AAb?$AAD?$AAe?$AAv?$AAi?$AAc?$AAe?$AA?3?$AA?3?$AAM?$AAd?$AAd@|
  000d0		 |$M38379|

			 ENDP  ; |?MddTransferComplete@BulUsbDevice@@QAAXPAU_STransfer@@@Z|, BulUsbDevice::MddTransferComplete

	EXPORT	|??_C@_1DM@IBDEHFFJ@?$AA?$CF?$AAs?$AA?5?$AAC?$AAo?$AAm?$AAp?$AAl?$AAe?$AAt?$AAe?$AA?5?$AAd?$AAw?$AAL?$AAe?$AAn?$AAg?$AAt?$AAh?$AA?5?$AA?$DN?$AA?5?$AA0?$AAx?$AA?$CF?$AAx?$AA?$AN?$AA?6?$AA?$AA@| [ DATA ] ; `string'
	EXPORT	|?WriteDataRegisterByte@BulEndpoint@@QAAXE@Z| ; BulEndpoint::WriteDataRegisterByte
	EXPORT	|?WriteDataRegister@BulEndpoint@@QAAXK@Z| ; BulEndpoint::WriteDataRegister
	EXPORT	|??_C@_1EE@NAOCPMCM@?$AA?$CF?$AAs?$AA?5?$AAp?$AAB?$AAu?$AAf?$AAf?$AAe?$AAr?$AA?$DN?$AA0?$AAx?$AA?$CF?$AAx?$AA?0?$AA?5?$AAd?$AAw?$AAL?$AAe?$AAg?$AAn?$AAt?$AAh?$AA?$DN?$AA?5?$AA0?$AAx?$AA?$CF?$AAx?$AA?$AN@| [ DATA ] ; `string'
	EXPORT	|??_C@_1EM@BCALNFNF@?$AAb?$AAu?$AAl?$AAv?$AAe?$AAr?$AAd?$AAe?$AA_?$AAu?$AAs?$AAb?$AAf?$AAn?$AA?$CB?$AAB?$AAu?$AAl?$AAE?$AAn?$AAd?$AAp?$AAo?$AAi?$AAn?$AAt?$AA?3?$AA?3?$AAX?$AAm?$AAi?$AAt@| [ DATA ] ; `string'
	EXPORT	|?XmitData@BulEndpoint@@IAAKPAEK@Z|	; BulEndpoint::XmitData

  00050			 AREA	 |.pdata|, PDATA
|$T38401| DCD	|$LN26@XmitData|
	DCD	0x40009404
; File c:\wince600\platform\common\src\soc\pxa27x_ms_v1\usbfn\bul_usbfn.cpp

  00000			 AREA	 |.rdata|, DATA, READONLY
|??_C@_1DM@IBDEHFFJ@?$AA?$CF?$AAs?$AA?5?$AAC?$AAo?$AAm?$AAp?$AAl?$AAe?$AAt?$AAe?$AA?5?$AAd?$AAw?$AAL?$AAe?$AAn?$AAg?$AAt?$AAh?$AA?5?$AA?$DN?$AA?5?$AA0?$AAx?$AA?$CF?$AAx?$AA?$AN?$AA?6?$AA?$AA@| DCB "%"
	DCB	0x0, "s", 0x0, " ", 0x0, "C", 0x0, "o", 0x0, "m", 0x0, "p"
	DCB	0x0, "l", 0x0, "e", 0x0, "t", 0x0, "e", 0x0, " ", 0x0, "d"
	DCB	0x0, "w", 0x0, "L", 0x0, "e", 0x0, "n", 0x0, "g", 0x0, "t"
	DCB	0x0, "h", 0x0, " ", 0x0, "=", 0x0, " ", 0x0, "0", 0x0, "x"
	DCB	0x0, "%", 0x0, "x", 0x0, 0xd, 0x0, 0xa, 0x0, 0x0, 0x0 ; `string'

  00000			 AREA	 |.rdata|, DATA, READONLY
|??_C@_1EE@NAOCPMCM@?$AA?$CF?$AAs?$AA?5?$AAp?$AAB?$AAu?$AAf?$AAf?$AAe?$AAr?$AA?$DN?$AA0?$AAx?$AA?$CF?$AAx?$AA?0?$AA?5?$AAd?$AAw?$AAL?$AAe?$AAg?$AAn?$AAt?$AAh?$AA?$DN?$AA?5?$AA0?$AAx?$AA?$CF?$AAx?$AA?$AN@| DCB "%"
	DCB	0x0, "s", 0x0, " ", 0x0, "p", 0x0, "B", 0x0, "u", 0x0, "f"
	DCB	0x0, "f", 0x0, "e", 0x0, "r", 0x0, "=", 0x0, "0", 0x0, "x"
	DCB	0x0, "%", 0x0, "x", 0x0, ",", 0x0, " ", 0x0, "d", 0x0, "w"
	DCB	0x0, "L", 0x0, "e", 0x0, "g", 0x0, "n", 0x0, "t", 0x0, "h"
	DCB	0x0, "=", 0x0, " ", 0x0, "0", 0x0, "x", 0x0, "%", 0x0, "x"
	DCB	0x0, 0xd, 0x0, 0xa, 0x0, 0x0, 0x0	; `string'

  00000			 AREA	 |.rdata|, DATA, READONLY
|??_C@_1EM@BCALNFNF@?$AAb?$AAu?$AAl?$AAv?$AAe?$AAr?$AAd?$AAe?$AA_?$AAu?$AAs?$AAb?$AAf?$AAn?$AA?$CB?$AAB?$AAu?$AAl?$AAE?$AAn?$AAd?$AAp?$AAo?$AAi?$AAn?$AAt?$AA?3?$AA?3?$AAX?$AAm?$AAi?$AAt@| DCB "b"
	DCB	0x0, "u", 0x0, "l", 0x0, "v", 0x0, "e", 0x0, "r", 0x0, "d"
	DCB	0x0, "e", 0x0, "_", 0x0, "u", 0x0, "s", 0x0, "b", 0x0, "f"
	DCB	0x0, "n", 0x0, "!", 0x0, "B", 0x0, "u", 0x0, "l", 0x0, "E"
	DCB	0x0, "n", 0x0, "d", 0x0, "p", 0x0, "o", 0x0, "i", 0x0, "n"
	DCB	0x0, "t", 0x0, ":", 0x0, ":", 0x0, "X", 0x0, "m", 0x0, "i"
	DCB	0x0, "t", 0x0, "D", 0x0, "a", 0x0, "t", 0x0, "a", 0x0, ":"
	DCB	0x0, 0x0, 0x0				; `string'
; Function compile flags: /Odtp

  01174			 AREA	 |.text|, CODE, ARM

  01174		 |?XmitData@BulEndpoint@@IAAKPAEK@Z| PROC ; BulEndpoint::XmitData

; 205  : {

  01174		 |$LN26@XmitData|
  01174	e1a0c00d	 mov         r12, sp
  01178	e92d0007	 stmdb       sp!, {r0 - r2}
  0117c	e92d5000	 stmdb       sp!, {r12, lr}
  01180	e24dd020	 sub         sp, sp, #0x20
  01184		 |$M38398|

; 206  :     SETFNAME();

  01184	e59f3234	 ldr         r3, [pc, #0x234]
  01188	e58d3004	 str         r3, [sp, #4]

; 207  :     DEBUGMSG(ZONE_FUNCTION, (_T("%s pBuffer=0x%x, dwLegnth= 0x%x\r\n"),pszFname,pBuffer,dwLength));

  0118c	e59f3224	 ldr         r3, [pc, #0x224]
  01190	e5933440	 ldr         r3, [r3, #0x440]
  01194	e3130a01	 tst         r3, #1, 20
  01198	0a000011	 beq         |$LN18@XmitData|
  0119c	e59f3214	 ldr         r3, [pc, #0x214]
  011a0	e5933440	 ldr         r3, [r3, #0x440]
  011a4	e3130801	 tst         r3, #1, 16
  011a8	0a000005	 beq         |$LN16@XmitData|
  011ac	e59d3030	 ldr         r3, [sp, #0x30]
  011b0	e59d202c	 ldr         r2, [sp, #0x2C]
  011b4	e59d1004	 ldr         r1, [sp, #4]
  011b8	e59f01fc	 ldr         r0, [pc, #0x1FC]
  011bc	eb000000	 bl          CeLogMsg
  011c0	ea000004	 b           |$LN17@XmitData|
  011c4		 |$LN16@XmitData|
  011c4	e59d3030	 ldr         r3, [sp, #0x30]
  011c8	e59d202c	 ldr         r2, [sp, #0x2C]
  011cc	e59d1004	 ldr         r1, [sp, #4]
  011d0	e59f01e4	 ldr         r0, [pc, #0x1E4]
  011d4	eb000000	 bl          NKDbgPrintfW
  011d8		 |$LN17@XmitData|
  011d8	e3a03001	 mov         r3, #1
  011dc	e58d3018	 str         r3, [sp, #0x18]
  011e0	ea000001	 b           |$LN19@XmitData|
  011e4		 |$LN18@XmitData|
  011e4	e3a03000	 mov         r3, #0
  011e8	e58d3018	 str         r3, [sp, #0x18]
  011ec		 |$LN19@XmitData|

; 208  :     if (pBuffer==NULL || dwLength==0 )

  011ec	e59d302c	 ldr         r3, [sp, #0x2C]
  011f0	e3530000	 cmp         r3, #0
  011f4	0a000002	 beq         |$LN12@XmitData|
  011f8	e59d3030	 ldr         r3, [sp, #0x30]
  011fc	e3530000	 cmp         r3, #0
  01200	1a000002	 bne         |$LN13@XmitData|
  01204		 |$LN12@XmitData|

; 209  :         return 0;

  01204	e3a03000	 mov         r3, #0
  01208	e58d3014	 str         r3, [sp, #0x14]
  0120c	ea000064	 b           |$LN14@XmitData|
  01210		 |$LN13@XmitData|

; 210  :     // Spec 12.4.2
; 211  :     union {
; 212  :         BYTE  bData[4];
; 213  :         DWORD dwData;
; 214  :     } ;
; 215  :     if (dwLength > m_epDesc.wMaxPacketSize)

  01210	e59d3028	 ldr         r3, [sp, #0x28]
  01214	e2831028	 add         r1, r3, #0x28
  01218	e5d13001	 ldrb        r3, [r1, #1]
  0121c	e1a03403	 mov         r3, r3, lsl #8
  01220	e1a02803	 mov         r2, r3, lsl #16
  01224	e1a02822	 mov         r2, r2, lsr #16
  01228	e5d13000	 ldrb        r3, [r1]
  0122c	e1832002	 orr         r2, r3, r2
  01230	e59d3030	 ldr         r3, [sp, #0x30]
  01234	e1530002	 cmp         r3, r2
  01238	9a000008	 bls         |$LN11@XmitData|

; 216  :         dwLength = m_epDesc.wMaxPacketSize;

  0123c	e59d3028	 ldr         r3, [sp, #0x28]
  01240	e2831028	 add         r1, r3, #0x28
  01244	e5d13001	 ldrb        r3, [r1, #1]
  01248	e1a03403	 mov         r3, r3, lsl #8
  0124c	e1a02803	 mov         r2, r3, lsl #16
  01250	e1a02822	 mov         r2, r2, lsr #16
  01254	e5d13000	 ldrb        r3, [r1]
  01258	e1833002	 orr         r3, r3, r2
  0125c	e58d3030	 str         r3, [sp, #0x30]
  01260		 |$LN11@XmitData|

; 217  :     
; 218  :     for (DWORD dwIndex = 0; dwIndex< dwLength; ) { 

  01260	e3a03000	 mov         r3, #0
  01264	e58d3008	 str         r3, [sp, #8]
  01268		 |$LN10@XmitData|
  01268	e59d2008	 ldr         r2, [sp, #8]
  0126c	e59d3030	 ldr         r3, [sp, #0x30]
  01270	e1520003	 cmp         r2, r3
  01274	2a000032	 bcs         |$LN9@XmitData|

; 219  :         for ( DWORD dwCount = 0; dwCount < sizeof(DWORD) && dwIndex< dwLength ; dwCount ++, dwIndex++) {

  01278	e3a03000	 mov         r3, #0
  0127c	e58d300c	 str         r3, [sp, #0xC]
  01280	ea000005	 b           |$LN8@XmitData|
  01284		 |$LN7@XmitData|
  01284	e59d300c	 ldr         r3, [sp, #0xC]
  01288	e2833001	 add         r3, r3, #1
  0128c	e58d300c	 str         r3, [sp, #0xC]
  01290	e59d3008	 ldr         r3, [sp, #8]
  01294	e2833001	 add         r3, r3, #1
  01298	e58d3008	 str         r3, [sp, #8]
  0129c		 |$LN8@XmitData|
  0129c	e59d300c	 ldr         r3, [sp, #0xC]
  012a0	e3530004	 cmp         r3, #4
  012a4	2a00000d	 bcs         |$LN6@XmitData|
  012a8	e59d2008	 ldr         r2, [sp, #8]
  012ac	e59d3030	 ldr         r3, [sp, #0x30]
  012b0	e1520003	 cmp         r2, r3
  012b4	2a000009	 bcs         |$LN6@XmitData|

; 220  :             bData[dwCount] = *(pBuffer++);

  012b8	e28d2000	 add         r2, sp, #0
  012bc	e59d300c	 ldr         r3, [sp, #0xC]
  012c0	e0822003	 add         r2, r2, r3
  012c4	e59d302c	 ldr         r3, [sp, #0x2C]
  012c8	e5d33000	 ldrb        r3, [r3]
  012cc	e5c23000	 strb        r3, [r2]
  012d0	e59d302c	 ldr         r3, [sp, #0x2C]
  012d4	e2833001	 add         r3, r3, #1
  012d8	e58d302c	 str         r3, [sp, #0x2C]

; 221  :         }

  012dc	eaffffe8	 b           |$LN7@XmitData|
  012e0		 |$LN6@XmitData|

; 222  :         if (dwCount >= sizeof(DWORD)) {

  012e0	e59d300c	 ldr         r3, [sp, #0xC]
  012e4	e3530004	 cmp         r3, #4
  012e8	3a000003	 bcc         |$LN5@XmitData|

; 223  :             WriteDataRegister(dwData);

  012ec	e59d1000	 ldr         r1, [sp]
  012f0	e59d0028	 ldr         r0, [sp, #0x28]
  012f4	eb000000	 bl          |?WriteDataRegister@BulEndpoint@@QAAXK@Z|

; 224  :         }
; 225  :         else {

  012f8	ea000010	 b           |$LN4@XmitData|
  012fc		 |$LN5@XmitData|

; 226  :             for (DWORD dwCount2=0; dwCount2 < dwCount; dwCount2 ++)

  012fc	e3a03000	 mov         r3, #0
  01300	e58d3010	 str         r3, [sp, #0x10]
  01304	ea000002	 b           |$LN3@XmitData|
  01308		 |$LN2@XmitData|
  01308	e59d3010	 ldr         r3, [sp, #0x10]
  0130c	e2833001	 add         r3, r3, #1
  01310	e58d3010	 str         r3, [sp, #0x10]
  01314		 |$LN3@XmitData|
  01314	e59d2010	 ldr         r2, [sp, #0x10]
  01318	e59d300c	 ldr         r3, [sp, #0xC]
  0131c	e1520003	 cmp         r2, r3
  01320	2a000006	 bcs         |$LN1@XmitData|

; 227  :                 WriteDataRegisterByte(bData[dwCount2]);

  01324	e28d2000	 add         r2, sp, #0
  01328	e59d3010	 ldr         r3, [sp, #0x10]
  0132c	e0823003	 add         r3, r2, r3
  01330	e5d31000	 ldrb        r1, [r3]
  01334	e59d0028	 ldr         r0, [sp, #0x28]
  01338	eb000000	 bl          |?WriteDataRegisterByte@BulEndpoint@@QAAXE@Z|
  0133c	eafffff1	 b           |$LN2@XmitData|
  01340		 |$LN1@XmitData|
  01340		 |$LN4@XmitData|

; 228  :         }
; 229  :     };

  01340	eaffffc8	 b           |$LN10@XmitData|
  01344		 |$LN9@XmitData|

; 230  :     DEBUGMSG(ZONE_FUNCTION, (_T("%s Complete dwLength = 0x%x\r\n"),pszFname,dwLength));

  01344	e59f306c	 ldr         r3, [pc, #0x6C]
  01348	e5933440	 ldr         r3, [r3, #0x440]
  0134c	e3130a01	 tst         r3, #1, 20
  01350	0a00000f	 beq         |$LN22@XmitData|
  01354	e59f305c	 ldr         r3, [pc, #0x5C]
  01358	e5933440	 ldr         r3, [r3, #0x440]
  0135c	e3130801	 tst         r3, #1, 16
  01360	0a000004	 beq         |$LN20@XmitData|
  01364	e59d2030	 ldr         r2, [sp, #0x30]
  01368	e59d1004	 ldr         r1, [sp, #4]
  0136c	e59f0040	 ldr         r0, [pc, #0x40]
  01370	eb000000	 bl          CeLogMsg
  01374	ea000003	 b           |$LN21@XmitData|
  01378		 |$LN20@XmitData|
  01378	e59d2030	 ldr         r2, [sp, #0x30]
  0137c	e59d1004	 ldr         r1, [sp, #4]
  01380	e59f002c	 ldr         r0, [pc, #0x2C]
  01384	eb000000	 bl          NKDbgPrintfW
  01388		 |$LN21@XmitData|
  01388	e3a03001	 mov         r3, #1
  0138c	e58d301c	 str         r3, [sp, #0x1C]
  01390	ea000001	 b           |$LN23@XmitData|
  01394		 |$LN22@XmitData|
  01394	e3a03000	 mov         r3, #0
  01398	e58d301c	 str         r3, [sp, #0x1C]
  0139c		 |$LN23@XmitData|

; 231  :     return dwLength;

  0139c	e59d3030	 ldr         r3, [sp, #0x30]
  013a0	e58d3014	 str         r3, [sp, #0x14]
  013a4		 |$LN14@XmitData|

; 232  : }

  013a4	e59d0014	 ldr         r0, [sp, #0x14]
  013a8	e28dd020	 add         sp, sp, #0x20
  013ac	e89d6000	 ldmia       sp, {sp, lr}
  013b0	e12fff1e	 bx          lr
  013b4		 |$LN27@XmitData|
  013b4		 |$LN28@XmitData|
  013b4	00000000	 DCD         |??_C@_1DM@IBDEHFFJ@?$AA?$CF?$AAs?$AA?5?$AAC?$AAo?$AAm?$AAp?$AAl?$AAe?$AAt?$AAe?$AA?5?$AAd?$AAw?$AAL?$AAe?$AAn?$AAg?$AAt?$AAh?$AA?5?$AA?$DN?$AA?5?$AA0?$AAx?$AA?$CF?$AAx?$AA?$AN?$AA?6?$AA?$AA@|
  013b8		 |$LN29@XmitData|
  013b8	00000000	 DCD         |dpCurSettings|
  013bc		 |$LN30@XmitData|
  013bc	00000000	 DCD         |??_C@_1EE@NAOCPMCM@?$AA?$CF?$AAs?$AA?5?$AAp?$AAB?$AAu?$AAf?$AAf?$AAe?$AAr?$AA?$DN?$AA0?$AAx?$AA?$CF?$AAx?$AA?0?$AA?5?$AAd?$AAw?$AAL?$AAe?$AAg?$AAn?$AAt?$AAh?$AA?$DN?$AA?5?$AA0?$AAx?$AA?$CF?$AAx?$AA?$AN@|
  013c0		 |$LN31@XmitData|
  013c0	00000000	 DCD         |??_C@_1EM@BCALNFNF@?$AAb?$AAu?$AAl?$AAv?$AAe?$AAr?$AAd?$AAe?$AA_?$AAu?$AAs?$AAb?$AAf?$AAn?$AA?$CB?$AAB?$AAu?$AAl?$AAE?$AAn?$AAd?$AAp?$AAo?$AAi?$AAn?$AAt?$AA?3?$AA?3?$AAX?$AAm?$AAi?$AAt@|
  013c4		 |$M38399|

			 ENDP  ; |?XmitData@BulEndpoint@@IAAKPAEK@Z|, BulEndpoint::XmitData

	EXPORT	|?WriteUDCRegisterByte@BulUsbDevice@@QAAXKE@Z| ; BulUsbDevice::WriteUDCRegisterByte
; File c:\wince600\platform\common\src\soc\pxa27x_ms_v1\inc\bul_usbfn.h

  00000			 AREA	 |.pdata|, PDATA
|$T38415| DCD	|$LN9@WriteDataR|
	DCD	0x40003504
; Function compile flags: /Odtp

  00000			 AREA	 |.text|, CODE, ARM

  00000		 |?WriteDataRegisterByte@BulEndpoint@@QAAXE@Z| PROC ; BulEndpoint::WriteDataRegisterByte

; 304  :     void    WriteDataRegisterByte(BYTE bData) {

  00000		 |$LN9@WriteDataR|
  00000	e1a0c00d	 mov         r12, sp
  00004	e92d0003	 stmdb       sp!, {r0, r1}
  00008	e92d5000	 stmdb       sp!, {r12, lr}
  0000c	e24dd008	 sub         sp, sp, #8
  00010		 |$M38412|

; 305  :         PREFAST_ASSERT(m_pUsbDevice!=NULL);

  00010	e59d3010	 ldr         r3, [sp, #0x10]
  00014	e283301c	 add         r3, r3, #0x1C
  00018	e5933000	 ldr         r3, [r3]
  0001c	e3530000	 cmp         r3, #0
  00020	0a000002	 beq         |$LN3@WriteDataR|
  00024	e3a03001	 mov         r3, #1
  00028	e58d3000	 str         r3, [sp]
  0002c	ea000008	 b           |$LN4@WriteDataR|
  00030		 |$LN3@WriteDataR|
  00030	e3a03c01	 mov         r3, #1, 24
  00034	e3833031	 orr         r3, r3, #0x31
  00038	e59f2090	 ldr         r2, [pc, #0x90]
  0003c	e59f1088	 ldr         r1, [pc, #0x88]
  00040	e59f0080	 ldr         r0, [pc, #0x80]
  00044	eb000000	 bl          NKDbgPrintfW
  00048	e6000010	 __debugbreak_ce
  0004c	e3a03000	 mov         r3, #0
  00050	e58d3000	 str         r3, [sp]
  00054		 |$LN4@WriteDataR|

; 306  :         PREFAST_ASSERT(m_dwEndpointIndex<MAX_ENDPOINT_NUMBER);

  00054	e59d3010	 ldr         r3, [sp, #0x10]
  00058	e2833020	 add         r3, r3, #0x20
  0005c	e5933000	 ldr         r3, [r3]
  00060	e3530018	 cmp         r3, #0x18
  00064	2a000002	 bcs         |$LN5@WriteDataR|
  00068	e3a03001	 mov         r3, #1
  0006c	e58d3004	 str         r3, [sp, #4]
  00070	ea000008	 b           |$LN6@WriteDataR|
  00074		 |$LN5@WriteDataR|
  00074	e3a03c01	 mov         r3, #1, 24
  00078	e3833032	 orr         r3, r3, #0x32
  0007c	e59f204c	 ldr         r2, [pc, #0x4C]
  00080	e59f1044	 ldr         r1, [pc, #0x44]
  00084	e59f003c	 ldr         r0, [pc, #0x3C]
  00088	eb000000	 bl          NKDbgPrintfW
  0008c	e6000010	 __debugbreak_ce
  00090	e3a03000	 mov         r3, #0
  00094	e58d3004	 str         r3, [sp, #4]
  00098		 |$LN6@WriteDataR|

; 307  :         m_pUsbDevice->WriteUDCRegisterByte( ENDPOINT_DATA_REGISTER_OFFSET + m_dwEndpointIndex, bData);

  00098	e5dd2014	 ldrb        r2, [sp, #0x14]
  0009c	e59d3010	 ldr         r3, [sp, #0x10]
  000a0	e2833020	 add         r3, r3, #0x20
  000a4	e5933000	 ldr         r3, [r3]
  000a8	e28310c0	 add         r1, r3, #0xC0
  000ac	e59d3010	 ldr         r3, [sp, #0x10]
  000b0	e283301c	 add         r3, r3, #0x1C
  000b4	e5930000	 ldr         r0, [r3]
  000b8	eb000000	 bl          |?WriteUDCRegisterByte@BulUsbDevice@@QAAXKE@Z|

; 308  :     }

  000bc	e28dd008	 add         sp, sp, #8
  000c0	e89d6000	 ldmia       sp, {sp, lr}
  000c4	e12fff1e	 bx          lr
  000c8		 |$LN10@WriteDataR|
  000c8		 |$LN11@WriteDataR|
  000c8	00000000	 DCD         |??_C@_1FK@FNONLNGN@?$AA?$CF?$AAs?$AA?3?$AA?5?$AAD?$AAE?$AAB?$AAU?$AAG?$AAC?$AAH?$AAK?$AA?5?$AAf?$AAa?$AAi?$AAl?$AAe?$AAd?$AA?5?$AAi?$AAn?$AA?5?$AAf?$AAi?$AAl?$AAe?$AA?5?$AA?$CF?$AAs?$AA?5?$AAa@|
  000cc		 |$LN12@WriteDataR|
  000cc	00000000	 DCD         |??_C@_1BA@LEPJIIOK@?$AAU?$AAn?$AAk?$AAn?$AAo?$AAw?$AAn?$AA?$AA@|
  000d0		 |$LN13@WriteDataR|
  000d0	00000000	 DCD         |??_C@_1CG@MKCCFBBJ@?$AA?4?$AA?4?$AA?2?$AAi?$AAn?$AAc?$AA?2?$AAb?$AAu?$AAl?$AA_?$AAu?$AAs?$AAb?$AAf?$AAn?$AA?4?$AAh?$AA?$AA@|
  000d4		 |$M38413|

			 ENDP  ; |?WriteDataRegisterByte@BulEndpoint@@QAAXE@Z|, BulEndpoint::WriteDataRegisterByte

	IMPORT	|WRITE_REGISTER_UCHAR|

  00000			 AREA	 |.pdata|, PDATA
|$T38428| DCD	|$LN7@WriteUDCRe@2|
	DCD	0x40002304
; Function compile flags: /Odtp

  00000			 AREA	 |.text|, CODE, ARM

  00000		 |?WriteUDCRegisterByte@BulUsbDevice@@QAAXKE@Z| PROC ; BulUsbDevice::WriteUDCRegisterByte

; 129  :     void WriteUDCRegisterByte(DWORD dwOffset, BYTE bData) {

  00000		 |$LN7@WriteUDCRe@2|
  00000	e1a0c00d	 mov         r12, sp
  00004	e92d0007	 stmdb       sp!, {r0 - r2}
  00008	e92d5000	 stmdb       sp!, {r12, lr}
  0000c	e24dd004	 sub         sp, sp, #4
  00010		 |$M38425|

; 130  :         PREFAST_ASSERT(m_pUsbDevReg!=NULL);

  00010	e59d300c	 ldr         r3, [sp, #0xC]
  00014	e2833098	 add         r3, r3, #0x98
  00018	e5933000	 ldr         r3, [r3]
  0001c	e3530000	 cmp         r3, #0
  00020	0a000002	 beq         |$LN3@WriteUDCRe@2|
  00024	e3a03001	 mov         r3, #1
  00028	e58d3000	 str         r3, [sp]
  0002c	ea000007	 b           |$LN4@WriteUDCRe@2|
  00030		 |$LN3@WriteUDCRe@2|
  00030	e3a03082	 mov         r3, #0x82
  00034	e59f204c	 ldr         r2, [pc, #0x4C]
  00038	e59f1044	 ldr         r1, [pc, #0x44]
  0003c	e59f003c	 ldr         r0, [pc, #0x3C]
  00040	eb000000	 bl          NKDbgPrintfW
  00044	e6000010	 __debugbreak_ce
  00048	e3a03000	 mov         r3, #0
  0004c	e58d3000	 str         r3, [sp]
  00050		 |$LN4@WriteUDCRe@2|

; 131  :         WRITE_REGISTER_UCHAR((PUCHAR)(m_pUsbDevReg + dwOffset),bData);

  00050	e5dd1014	 ldrb        r1, [sp, #0x14]
  00054	e59d300c	 ldr         r3, [sp, #0xC]
  00058	e283e098	 add         lr, r3, #0x98
  0005c	e59d0010	 ldr         r0, [sp, #0x10]
  00060	e3a03004	 mov         r3, #4
  00064	e0020390	 mul         r2, r0, r3
  00068	e59e3000	 ldr         r3, [lr]
  0006c	e0830002	 add         r0, r3, r2
  00070	eb000000	 bl          WRITE_REGISTER_UCHAR

; 132  :     }

  00074	e28dd004	 add         sp, sp, #4
  00078	e89d6000	 ldmia       sp, {sp, lr}
  0007c	e12fff1e	 bx          lr
  00080		 |$LN8@WriteUDCRe@2|
  00080		 |$LN9@WriteUDCRe@2|
  00080	00000000	 DCD         |??_C@_1FK@FNONLNGN@?$AA?$CF?$AAs?$AA?3?$AA?5?$AAD?$AAE?$AAB?$AAU?$AAG?$AAC?$AAH?$AAK?$AA?5?$AAf?$AAa?$AAi?$AAl?$AAe?$AAd?$AA?5?$AAi?$AAn?$AA?5?$AAf?$AAi?$AAl?$AAe?$AA?5?$AA?$CF?$AAs?$AA?5?$AAa@|
  00084		 |$LN10@WriteUDCRe@2|
  00084	00000000	 DCD         |??_C@_1BA@LEPJIIOK@?$AAU?$AAn?$AAk?$AAn?$AAo?$AAw?$AAn?$AA?$AA@|
  00088		 |$LN11@WriteUDCRe@2|
  00088	00000000	 DCD         |??_C@_1CG@MKCCFBBJ@?$AA?4?$AA?4?$AA?2?$AAi?$AAn?$AAc?$AA?2?$AAb?$AAu?$AAl?$AA_?$AAu?$AAs?$AAb?$AAf?$AAn?$AA?4?$AAh?$AA?$AA@|
  0008c		 |$M38426|

			 ENDP  ; |?WriteUDCRegisterByte@BulUsbDevice@@QAAXKE@Z|, BulUsbDevice::WriteUDCRegisterByte


  00000			 AREA	 |.pdata|, PDATA
|$T38443| DCD	|$LN9@WriteDataR@2|
	DCD	0x40003504
; Function compile flags: /Odtp

  00000			 AREA	 |.text|, CODE, ARM

  00000		 |?WriteDataRegister@BulEndpoint@@QAAXK@Z| PROC ; BulEndpoint::WriteDataRegister

; 309  :     void    WriteDataRegister(DWORD dwData) {

  00000		 |$LN9@WriteDataR@2|
  00000	e1a0c00d	 mov         r12, sp
  00004	e92d0003	 stmdb       sp!, {r0, r1}
  00008	e92d5000	 stmdb       sp!, {r12, lr}
  0000c	e24dd008	 sub         sp, sp, #8
  00010		 |$M38440|

; 310  :         PREFAST_ASSERT(m_pUsbDevice!=NULL);

  00010	e59d3010	 ldr         r3, [sp, #0x10]
  00014	e283301c	 add         r3, r3, #0x1C
  00018	e5933000	 ldr         r3, [r3]
  0001c	e3530000	 cmp         r3, #0
  00020	0a000002	 beq         |$LN3@WriteDataR@2|
  00024	e3a03001	 mov         r3, #1
  00028	e58d3000	 str         r3, [sp]
  0002c	ea000008	 b           |$LN4@WriteDataR@2|
  00030		 |$LN3@WriteDataR@2|
  00030	e3a03c01	 mov         r3, #1, 24
  00034	e3833036	 orr         r3, r3, #0x36
  00038	e59f2090	 ldr         r2, [pc, #0x90]
  0003c	e59f1088	 ldr         r1, [pc, #0x88]
  00040	e59f0080	 ldr         r0, [pc, #0x80]
  00044	eb000000	 bl          NKDbgPrintfW
  00048	e6000010	 __debugbreak_ce
  0004c	e3a03000	 mov         r3, #0
  00050	e58d3000	 str         r3, [sp]
  00054		 |$LN4@WriteDataR@2|

; 311  :         PREFAST_ASSERT(m_dwEndpointIndex<MAX_ENDPOINT_NUMBER);

  00054	e59d3010	 ldr         r3, [sp, #0x10]
  00058	e2833020	 add         r3, r3, #0x20
  0005c	e5933000	 ldr         r3, [r3]
  00060	e3530018	 cmp         r3, #0x18
  00064	2a000002	 bcs         |$LN5@WriteDataR@2|
  00068	e3a03001	 mov         r3, #1
  0006c	e58d3004	 str         r3, [sp, #4]
  00070	ea000008	 b           |$LN6@WriteDataR@2|
  00074		 |$LN5@WriteDataR@2|
  00074	e3a03c01	 mov         r3, #1, 24
  00078	e3833037	 orr         r3, r3, #0x37
  0007c	e59f204c	 ldr         r2, [pc, #0x4C]
  00080	e59f1044	 ldr         r1, [pc, #0x44]
  00084	e59f003c	 ldr         r0, [pc, #0x3C]
  00088	eb000000	 bl          NKDbgPrintfW
  0008c	e6000010	 __debugbreak_ce
  00090	e3a03000	 mov         r3, #0
  00094	e58d3004	 str         r3, [sp, #4]
  00098		 |$LN6@WriteDataR@2|

; 312  :         m_pUsbDevice->WriteUDCRegister( ENDPOINT_DATA_REGISTER_OFFSET + m_dwEndpointIndex, dwData);

  00098	e59d2014	 ldr         r2, [sp, #0x14]
  0009c	e59d3010	 ldr         r3, [sp, #0x10]
  000a0	e2833020	 add         r3, r3, #0x20
  000a4	e5933000	 ldr         r3, [r3]
  000a8	e28310c0	 add         r1, r3, #0xC0
  000ac	e59d3010	 ldr         r3, [sp, #0x10]
  000b0	e283301c	 add         r3, r3, #0x1C
  000b4	e5930000	 ldr         r0, [r3]
  000b8	eb000000	 bl          |?WriteUDCRegister@BulUsbDevice@@QAAXKK@Z|

; 313  :     }

  000bc	e28dd008	 add         sp, sp, #8
  000c0	e89d6000	 ldmia       sp, {sp, lr}
  000c4	e12fff1e	 bx          lr
  000c8		 |$LN10@WriteDataR@2|
  000c8		 |$LN11@WriteDataR@2|
  000c8	00000000	 DCD         |??_C@_1FK@FNONLNGN@?$AA?$CF?$AAs?$AA?3?$AA?5?$AAD?$AAE?$AAB?$AAU?$AAG?$AAC?$AAH?$AAK?$AA?5?$AAf?$AAa?$AAi?$AAl?$AAe?$AAd?$AA?5?$AAi?$AAn?$AA?5?$AAf?$AAi?$AAl?$AAe?$AA?5?$AA?$CF?$AAs?$AA?5?$AAa@|
  000cc		 |$LN12@WriteDataR@2|
  000cc	00000000	 DCD         |??_C@_1BA@LEPJIIOK@?$AAU?$AAn?$AAk?$AAn?$AAo?$AAw?$AAn?$AA?$AA@|
  000d0		 |$LN13@WriteDataR@2|
  000d0	00000000	 DCD         |??_C@_1CG@MKCCFBBJ@?$AA?4?$AA?4?$AA?2?$AAi?$AAn?$AAc?$AA?2?$AAb?$AAu?$AAl?$AA_?$AAu?$AAs?$AAb?$AAf?$AAn?$AA?4?$AAh?$AA?$AA@|
  000d4		 |$M38441|

			 ENDP  ; |?WriteDataRegister@BulEndpoint@@QAAXK@Z|, BulEndpoint::WriteDataRegister

	EXPORT	|??_C@_1EC@NCOPMHEO@?$AA?$CF?$AAs?$AA?5?$AAC?$AAo?$AAm?$AAp?$AAl?$AAe?$AAt?$AAe?$AA?5?$AAd?$AAw?$AAT?$AAo?$AAt?$AAa?$AAl?$AAR?$AAe?$AAa?$AAd?$AA?5?$AA?$DN?$AA?5?$AA0?$AAx?$AA?$CF?$AAx?$AA?$AN?$AA?6@| [ DATA ] ; `string'
	EXPORT	|?ReadDataRegister@BulEndpoint@@QAAKXZ|	; BulEndpoint::ReadDataRegister
	EXPORT	|?ReadByteCountRegister@BulEndpoint@@QAAKXZ| ; BulEndpoint::ReadByteCountRegister
	EXPORT	|??_C@_1FC@LAFFEOAJ@?$AAb?$AAu?$AAl?$AAv?$AAe?$AAr?$AAd?$AAe?$AA_?$AAu?$AAs?$AAb?$AAf?$AAn?$AA?$CB?$AAB?$AAu?$AAl?$AAE?$AAn?$AAd?$AAp?$AAo?$AAi?$AAn?$AAt?$AA?3?$AA?3?$AAR?$AAe?$AAc?$AAe@| [ DATA ] ; `string'
	EXPORT	|?ReceiveData@BulEndpoint@@IAAKPAEK@Z|	; BulEndpoint::ReceiveData

  00058			 AREA	 |.pdata|, PDATA
|$T38465| DCD	|$LN22@ReceiveDat|
	DCD	0x40008b04
; File c:\wince600\platform\common\src\soc\pxa27x_ms_v1\usbfn\bul_usbfn.cpp

  00000			 AREA	 |.rdata|, DATA, READONLY
|??_C@_1EC@NCOPMHEO@?$AA?$CF?$AAs?$AA?5?$AAC?$AAo?$AAm?$AAp?$AAl?$AAe?$AAt?$AAe?$AA?5?$AAd?$AAw?$AAT?$AAo?$AAt?$AAa?$AAl?$AAR?$AAe?$AAa?$AAd?$AA?5?$AA?$DN?$AA?5?$AA0?$AAx?$AA?$CF?$AAx?$AA?$AN?$AA?6@| DCB "%"
	DCB	0x0, "s", 0x0, " ", 0x0, "C", 0x0, "o", 0x0, "m", 0x0, "p"
	DCB	0x0, "l", 0x0, "e", 0x0, "t", 0x0, "e", 0x0, " ", 0x0, "d"
	DCB	0x0, "w", 0x0, "T", 0x0, "o", 0x0, "t", 0x0, "a", 0x0, "l"
	DCB	0x0, "R", 0x0, "e", 0x0, "a", 0x0, "d", 0x0, " ", 0x0, "="
	DCB	0x0, " ", 0x0, "0", 0x0, "x", 0x0, "%", 0x0, "x", 0x0, 0xd
	DCB	0x0, 0xa, 0x0, 0x0, 0x0			; `string'

  00000			 AREA	 |.rdata|, DATA, READONLY
|??_C@_1FC@LAFFEOAJ@?$AAb?$AAu?$AAl?$AAv?$AAe?$AAr?$AAd?$AAe?$AA_?$AAu?$AAs?$AAb?$AAf?$AAn?$AA?$CB?$AAB?$AAu?$AAl?$AAE?$AAn?$AAd?$AAp?$AAo?$AAi?$AAn?$AAt?$AA?3?$AA?3?$AAR?$AAe?$AAc?$AAe@| DCB "b"
	DCB	0x0, "u", 0x0, "l", 0x0, "v", 0x0, "e", 0x0, "r", 0x0, "d"
	DCB	0x0, "e", 0x0, "_", 0x0, "u", 0x0, "s", 0x0, "b", 0x0, "f"
	DCB	0x0, "n", 0x0, "!", 0x0, "B", 0x0, "u", 0x0, "l", 0x0, "E"
	DCB	0x0, "n", 0x0, "d", 0x0, "p", 0x0, "o", 0x0, "i", 0x0, "n"
	DCB	0x0, "t", 0x0, ":", 0x0, ":", 0x0, "R", 0x0, "e", 0x0, "c"
	DCB	0x0, "e", 0x0, "i", 0x0, "v", 0x0, "e", 0x0, "D", 0x0, "a"
	DCB	0x0, "t", 0x0, "a", 0x0, ":", 0x0, 0x0, 0x0 ; `string'
; Function compile flags: /Odtp

  013c4			 AREA	 |.text|, CODE, ARM

  013c4		 |?ReceiveData@BulEndpoint@@IAAKPAEK@Z| PROC ; BulEndpoint::ReceiveData

; 234  : {

  013c4		 |$LN22@ReceiveDat|
  013c4	e1a0c00d	 mov         r12, sp
  013c8	e92d0007	 stmdb       sp!, {r0 - r2}
  013cc	e92d5000	 stmdb       sp!, {r12, lr}
  013d0	e24dd030	 sub         sp, sp, #0x30
  013d4		 |$M38462|

; 235  :     SETFNAME();

  013d4	e59f3210	 ldr         r3, [pc, #0x210]
  013d8	e58d3008	 str         r3, [sp, #8]

; 236  :     DEBUGMSG(ZONE_FUNCTION, (_T("%s pBuffer=0x%x, dwLegnth= 0x%x\r\n"),pszFname,pBuffer,dwLength));

  013dc	e59f31f4	 ldr         r3, [pc, #0x1F4]
  013e0	e5933440	 ldr         r3, [r3, #0x440]
  013e4	e3130a01	 tst         r3, #1, 20
  013e8	0a000011	 beq         |$LN12@ReceiveDat|
  013ec	e59f31e4	 ldr         r3, [pc, #0x1E4]
  013f0	e5933440	 ldr         r3, [r3, #0x440]
  013f4	e3130801	 tst         r3, #1, 16
  013f8	0a000005	 beq         |$LN10@ReceiveDat|
  013fc	e59d3040	 ldr         r3, [sp, #0x40]
  01400	e59d203c	 ldr         r2, [sp, #0x3C]
  01404	e59d1008	 ldr         r1, [sp, #8]
  01408	e59f01d8	 ldr         r0, [pc, #0x1D8]
  0140c	eb000000	 bl          CeLogMsg
  01410	ea000004	 b           |$LN11@ReceiveDat|
  01414		 |$LN10@ReceiveDat|
  01414	e59d3040	 ldr         r3, [sp, #0x40]
  01418	e59d203c	 ldr         r2, [sp, #0x3C]
  0141c	e59d1008	 ldr         r1, [sp, #8]
  01420	e59f01c0	 ldr         r0, [pc, #0x1C0]
  01424	eb000000	 bl          NKDbgPrintfW
  01428		 |$LN11@ReceiveDat|
  01428	e3a03001	 mov         r3, #1
  0142c	e58d301c	 str         r3, [sp, #0x1C]
  01430	ea000001	 b           |$LN13@ReceiveDat|
  01434		 |$LN12@ReceiveDat|
  01434	e3a03000	 mov         r3, #0
  01438	e58d301c	 str         r3, [sp, #0x1C]
  0143c		 |$LN13@ReceiveDat|

; 237  :     PREFAST_ASSERT(pBuffer!=NULL);

  0143c	e59d303c	 ldr         r3, [sp, #0x3C]
  01440	e3530000	 cmp         r3, #0
  01444	0a000002	 beq         |$LN14@ReceiveDat|
  01448	e3a03001	 mov         r3, #1
  0144c	e58d3020	 str         r3, [sp, #0x20]
  01450	ea000007	 b           |$LN15@ReceiveDat|
  01454		 |$LN14@ReceiveDat|
  01454	e3a030ed	 mov         r3, #0xED
  01458	e59f2184	 ldr         r2, [pc, #0x184]
  0145c	e59f117c	 ldr         r1, [pc, #0x17C]
  01460	e59f0174	 ldr         r0, [pc, #0x174]
  01464	eb000000	 bl          NKDbgPrintfW
  01468	e6000010	 __debugbreak_ce
  0146c	e3a03000	 mov         r3, #0
  01470	e58d3020	 str         r3, [sp, #0x20]
  01474		 |$LN15@ReceiveDat|

; 238  :     // Spec 12.4.2
; 239  :     union {
; 240  :         BYTE  bData[4];
; 241  :         DWORD dwData;
; 242  :     } ;
; 243  :     DWORD dwAvailableDataSize = ReadByteCountRegister();

  01474	e59d0038	 ldr         r0, [sp, #0x38]
  01478	eb000000	 bl          |?ReadByteCountRegister@BulEndpoint@@QAAKXZ|
  0147c	e58d0024	 str         r0, [sp, #0x24]
  01480	e59d3024	 ldr         r3, [sp, #0x24]
  01484	e58d3014	 str         r3, [sp, #0x14]

; 244  :     DWORD dwDataRead;
; 245  :     DWORD dwIndex;
; 246  :     DWORD dwTotalRead = 0;

  01488	e3a03000	 mov         r3, #0
  0148c	e58d300c	 str         r3, [sp, #0xC]
  01490		 |$LN7@ReceiveDat|

; 247  :     while (dwAvailableDataSize) {

  01490	e59d3014	 ldr         r3, [sp, #0x14]
  01494	e3530000	 cmp         r3, #0
  01498	0a000031	 beq         |$LN6@ReceiveDat|

; 248  :         dwData = ReadDataRegister();

  0149c	e59d0038	 ldr         r0, [sp, #0x38]
  014a0	eb000000	 bl          |?ReadDataRegister@BulEndpoint@@QAAKXZ|
  014a4	e58d0028	 str         r0, [sp, #0x28]
  014a8	e59d3028	 ldr         r3, [sp, #0x28]
  014ac	e58d3000	 str         r3, [sp]

; 249  :         if (dwAvailableDataSize>=sizeof(DWORD)) {

  014b0	e59d3014	 ldr         r3, [sp, #0x14]
  014b4	e3530004	 cmp         r3, #4
  014b8	3a000005	 bcc         |$LN5@ReceiveDat|

; 250  :             dwAvailableDataSize -= sizeof(DWORD);

  014bc	e59d3014	 ldr         r3, [sp, #0x14]
  014c0	e2433004	 sub         r3, r3, #4
  014c4	e58d3014	 str         r3, [sp, #0x14]

; 251  :             dwDataRead = sizeof(DWORD);

  014c8	e3a03004	 mov         r3, #4
  014cc	e58d3004	 str         r3, [sp, #4]

; 252  :         }
; 253  :         else {

  014d0	ea000003	 b           |$LN4@ReceiveDat|
  014d4		 |$LN5@ReceiveDat|

; 254  :             dwDataRead = dwAvailableDataSize;

  014d4	e59d3014	 ldr         r3, [sp, #0x14]
  014d8	e58d3004	 str         r3, [sp, #4]

; 255  :             dwAvailableDataSize = 0;

  014dc	e3a03000	 mov         r3, #0
  014e0	e58d3014	 str         r3, [sp, #0x14]
  014e4		 |$LN4@ReceiveDat|

; 256  :         }
; 257  :         for (dwIndex = 0 ; dwIndex < dwDataRead && dwIndex < dwLength; dwIndex ++) {

  014e4	e3a03000	 mov         r3, #0
  014e8	e58d3010	 str         r3, [sp, #0x10]
  014ec	ea000002	 b           |$LN3@ReceiveDat|
  014f0		 |$LN2@ReceiveDat|
  014f0	e59d3010	 ldr         r3, [sp, #0x10]
  014f4	e2833001	 add         r3, r3, #1
  014f8	e58d3010	 str         r3, [sp, #0x10]
  014fc		 |$LN3@ReceiveDat|
  014fc	e59d2010	 ldr         r2, [sp, #0x10]
  01500	e59d3004	 ldr         r3, [sp, #4]
  01504	e1520003	 cmp         r2, r3
  01508	2a000010	 bcs         |$LN1@ReceiveDat|
  0150c	e59d2010	 ldr         r2, [sp, #0x10]
  01510	e59d3040	 ldr         r3, [sp, #0x40]
  01514	e1520003	 cmp         r2, r3
  01518	2a00000c	 bcs         |$LN1@ReceiveDat|

; 258  :             *(pBuffer++) = bData[dwIndex];

  0151c	e28d2000	 add         r2, sp, #0
  01520	e59d3010	 ldr         r3, [sp, #0x10]
  01524	e0823003	 add         r3, r2, r3
  01528	e5d32000	 ldrb        r2, [r3]
  0152c	e59d303c	 ldr         r3, [sp, #0x3C]
  01530	e5c32000	 strb        r2, [r3]
  01534	e59d303c	 ldr         r3, [sp, #0x3C]
  01538	e2833001	 add         r3, r3, #1
  0153c	e58d303c	 str         r3, [sp, #0x3C]

; 259  :             dwTotalRead ++;

  01540	e59d300c	 ldr         r3, [sp, #0xC]
  01544	e2833001	 add         r3, r3, #1
  01548	e58d300c	 str         r3, [sp, #0xC]

; 260  :         }

  0154c	eaffffe7	 b           |$LN2@ReceiveDat|
  01550		 |$LN1@ReceiveDat|

; 261  :         dwLength -= dwIndex;

  01550	e59d2040	 ldr         r2, [sp, #0x40]
  01554	e59d3010	 ldr         r3, [sp, #0x10]
  01558	e0423003	 sub         r3, r2, r3
  0155c	e58d3040	 str         r3, [sp, #0x40]

; 262  :     }

  01560	eaffffca	 b           |$LN7@ReceiveDat|
  01564		 |$LN6@ReceiveDat|

; 263  :     DEBUGMSG(ZONE_FUNCTION, (_T("%s Complete dwTotalRead = 0x%x\r\n"),pszFname,dwTotalRead));

  01564	e59f306c	 ldr         r3, [pc, #0x6C]
  01568	e5933440	 ldr         r3, [r3, #0x440]
  0156c	e3130a01	 tst         r3, #1, 20
  01570	0a00000f	 beq         |$LN18@ReceiveDat|
  01574	e59f305c	 ldr         r3, [pc, #0x5C]
  01578	e5933440	 ldr         r3, [r3, #0x440]
  0157c	e3130801	 tst         r3, #1, 16
  01580	0a000004	 beq         |$LN16@ReceiveDat|
  01584	e59d200c	 ldr         r2, [sp, #0xC]
  01588	e59d1008	 ldr         r1, [sp, #8]
  0158c	e59f0040	 ldr         r0, [pc, #0x40]
  01590	eb000000	 bl          CeLogMsg
  01594	ea000003	 b           |$LN17@ReceiveDat|
  01598		 |$LN16@ReceiveDat|
  01598	e59d200c	 ldr         r2, [sp, #0xC]
  0159c	e59d1008	 ldr         r1, [sp, #8]
  015a0	e59f002c	 ldr         r0, [pc, #0x2C]
  015a4	eb000000	 bl          NKDbgPrintfW
  015a8		 |$LN17@ReceiveDat|
  015a8	e3a03001	 mov         r3, #1
  015ac	e58d302c	 str         r3, [sp, #0x2C]
  015b0	ea000001	 b           |$LN19@ReceiveDat|
  015b4		 |$LN18@ReceiveDat|
  015b4	e3a03000	 mov         r3, #0
  015b8	e58d302c	 str         r3, [sp, #0x2C]
  015bc		 |$LN19@ReceiveDat|

; 264  :     return dwTotalRead;

  015bc	e59d300c	 ldr         r3, [sp, #0xC]
  015c0	e58d3018	 str         r3, [sp, #0x18]

; 265  : }

  015c4	e59d0018	 ldr         r0, [sp, #0x18]
  015c8	e28dd030	 add         sp, sp, #0x30
  015cc	e89d6000	 ldmia       sp, {sp, lr}
  015d0	e12fff1e	 bx          lr
  015d4		 |$LN23@ReceiveDat|
  015d4		 |$LN24@ReceiveDat|
  015d4	00000000	 DCD         |??_C@_1EC@NCOPMHEO@?$AA?$CF?$AAs?$AA?5?$AAC?$AAo?$AAm?$AAp?$AAl?$AAe?$AAt?$AAe?$AA?5?$AAd?$AAw?$AAT?$AAo?$AAt?$AAa?$AAl?$AAR?$AAe?$AAa?$AAd?$AA?5?$AA?$DN?$AA?5?$AA0?$AAx?$AA?$CF?$AAx?$AA?$AN?$AA?6@|
  015d8		 |$LN25@ReceiveDat|
  015d8	00000000	 DCD         |dpCurSettings|
  015dc		 |$LN26@ReceiveDat|
  015dc	00000000	 DCD         |??_C@_1FK@FNONLNGN@?$AA?$CF?$AAs?$AA?3?$AA?5?$AAD?$AAE?$AAB?$AAU?$AAG?$AAC?$AAH?$AAK?$AA?5?$AAf?$AAa?$AAi?$AAl?$AAe?$AAd?$AA?5?$AAi?$AAn?$AA?5?$AAf?$AAi?$AAl?$AAe?$AA?5?$AA?$CF?$AAs?$AA?5?$AAa@|
  015e0		 |$LN27@ReceiveDat|
  015e0	00000000	 DCD         |??_C@_1BA@LEPJIIOK@?$AAU?$AAn?$AAk?$AAn?$AAo?$AAw?$AAn?$AA?$AA@|
  015e4		 |$LN28@ReceiveDat|
  015e4	00000000	 DCD         |??_C@_1IO@HHHNJPIB@?$AAC?$AA?3?$AA?2?$AAW?$AAI?$AAN?$AAC?$AAE?$AA6?$AA0?$AA0?$AA?2?$AAP?$AAL?$AAA?$AAT?$AAF?$AAO?$AAR?$AAM?$AA?2?$AAC?$AAO?$AAM?$AAM?$AAO?$AAN?$AA?2?$AAS?$AAR?$AAC?$AA?2@|
  015e8		 |$LN29@ReceiveDat|
  015e8	00000000	 DCD         |??_C@_1EE@NAOCPMCM@?$AA?$CF?$AAs?$AA?5?$AAp?$AAB?$AAu?$AAf?$AAf?$AAe?$AAr?$AA?$DN?$AA0?$AAx?$AA?$CF?$AAx?$AA?0?$AA?5?$AAd?$AAw?$AAL?$AAe?$AAg?$AAn?$AAt?$AAh?$AA?$DN?$AA?5?$AA0?$AAx?$AA?$CF?$AAx?$AA?$AN@|
  015ec		 |$LN30@ReceiveDat|
  015ec	00000000	 DCD         |??_C@_1FC@LAFFEOAJ@?$AAb?$AAu?$AAl?$AAv?$AAe?$AAr?$AAd?$AAe?$AA_?$AAu?$AAs?$AAb?$AAf?$AAn?$AA?$CB?$AAB?$AAu?$AAl?$AAE?$AAn?$AAd?$AAp?$AAo?$AAi?$AAn?$AAt?$AA?3?$AA?3?$AAR?$AAe?$AAc?$AAe@|
  015f0		 |$M38463|

			 ENDP  ; |?ReceiveData@BulEndpoint@@IAAKPAEK@Z|, BulEndpoint::ReceiveData

; File c:\wince600\platform\common\src\soc\pxa27x_ms_v1\inc\bul_usbfn.h

  00000			 AREA	 |.pdata|, PDATA
|$T38483| DCD	|$LN9@ReadByteCo|
	DCD	0x40003a04
; Function compile flags: /Odtp

  00000			 AREA	 |.text|, CODE, ARM

  00000		 |?ReadByteCountRegister@BulEndpoint@@QAAKXZ| PROC ; BulEndpoint::ReadByteCountRegister

; 287  :     DWORD   ReadByteCountRegister(){

  00000		 |$LN9@ReadByteCo|
  00000	e1a0c00d	 mov         r12, sp
  00004	e92d0001	 stmdb       sp!, {r0}
  00008	e92d5000	 stmdb       sp!, {r12, lr}
  0000c	e24dd010	 sub         sp, sp, #0x10
  00010		 |$M38480|

; 288  :         PREFAST_ASSERT(m_pUsbDevice!=NULL);

  00010	e59d3018	 ldr         r3, [sp, #0x18]
  00014	e283301c	 add         r3, r3, #0x1C
  00018	e5933000	 ldr         r3, [r3]
  0001c	e3530000	 cmp         r3, #0
  00020	0a000002	 beq         |$LN3@ReadByteCo|
  00024	e3a03001	 mov         r3, #1
  00028	e58d3004	 str         r3, [sp, #4]
  0002c	ea000007	 b           |$LN4@ReadByteCo|
  00030		 |$LN3@ReadByteCo|
  00030	e3a03e12	 mov         r3, #0x12, 28
  00034	e59f20a8	 ldr         r2, [pc, #0xA8]
  00038	e59f10a0	 ldr         r1, [pc, #0xA0]
  0003c	e59f0098	 ldr         r0, [pc, #0x98]
  00040	eb000000	 bl          NKDbgPrintfW
  00044	e6000010	 __debugbreak_ce
  00048	e3a03000	 mov         r3, #0
  0004c	e58d3004	 str         r3, [sp, #4]
  00050		 |$LN4@ReadByteCo|

; 289  :         PREFAST_ASSERT(m_dwEndpointIndex<MAX_ENDPOINT_NUMBER);

  00050	e59d3018	 ldr         r3, [sp, #0x18]
  00054	e2833020	 add         r3, r3, #0x20
  00058	e5933000	 ldr         r3, [r3]
  0005c	e3530018	 cmp         r3, #0x18
  00060	2a000002	 bcs         |$LN5@ReadByteCo|
  00064	e3a03001	 mov         r3, #1
  00068	e58d3008	 str         r3, [sp, #8]
  0006c	ea000008	 b           |$LN6@ReadByteCo|
  00070		 |$LN5@ReadByteCo|
  00070	e3a03c01	 mov         r3, #1, 24
  00074	e3833021	 orr         r3, r3, #0x21
  00078	e59f2064	 ldr         r2, [pc, #0x64]
  0007c	e59f105c	 ldr         r1, [pc, #0x5C]
  00080	e59f0054	 ldr         r0, [pc, #0x54]
  00084	eb000000	 bl          NKDbgPrintfW
  00088	e6000010	 __debugbreak_ce
  0008c	e3a03000	 mov         r3, #0
  00090	e58d3008	 str         r3, [sp, #8]
  00094		 |$LN6@ReadByteCo|

; 290  :         return ((m_pUsbDevice->ReadUDCRegister( ENDPOINT_BYTECOUNT_REGISTER_OFFSET + m_dwEndpointIndex)) & 0x3ff);

  00094	e59d3018	 ldr         r3, [sp, #0x18]
  00098	e2833020	 add         r3, r3, #0x20
  0009c	e5933000	 ldr         r3, [r3]
  000a0	e2831080	 add         r1, r3, #0x80
  000a4	e59d3018	 ldr         r3, [sp, #0x18]
  000a8	e283301c	 add         r3, r3, #0x1C
  000ac	e5930000	 ldr         r0, [r3]
  000b0	eb000000	 bl          |?ReadUDCRegister@BulUsbDevice@@QAAKK@Z|
  000b4	e58d000c	 str         r0, [sp, #0xC]
  000b8	e59d200c	 ldr         r2, [sp, #0xC]
  000bc	e3a03c03	 mov         r3, #3, 24
  000c0	e38330ff	 orr         r3, r3, #0xFF
  000c4	e0023003	 and         r3, r2, r3
  000c8	e58d3000	 str         r3, [sp]

; 291  :     }

  000cc	e59d0000	 ldr         r0, [sp]
  000d0	e28dd010	 add         sp, sp, #0x10
  000d4	e89d6000	 ldmia       sp, {sp, lr}
  000d8	e12fff1e	 bx          lr
  000dc		 |$LN10@ReadByteCo|
  000dc		 |$LN11@ReadByteCo|
  000dc	00000000	 DCD         |??_C@_1FK@FNONLNGN@?$AA?$CF?$AAs?$AA?3?$AA?5?$AAD?$AAE?$AAB?$AAU?$AAG?$AAC?$AAH?$AAK?$AA?5?$AAf?$AAa?$AAi?$AAl?$AAe?$AAd?$AA?5?$AAi?$AAn?$AA?5?$AAf?$AAi?$AAl?$AAe?$AA?5?$AA?$CF?$AAs?$AA?5?$AAa@|
  000e0		 |$LN12@ReadByteCo|
  000e0	00000000	 DCD         |??_C@_1BA@LEPJIIOK@?$AAU?$AAn?$AAk?$AAn?$AAo?$AAw?$AAn?$AA?$AA@|
  000e4		 |$LN13@ReadByteCo|
  000e4	00000000	 DCD         |??_C@_1CG@MKCCFBBJ@?$AA?4?$AA?4?$AA?2?$AAi?$AAn?$AAc?$AA?2?$AAb?$AAu?$AAl?$AA_?$AAu?$AAs?$AAb?$AAf?$AAn?$AA?4?$AAh?$AA?$AA@|
  000e8		 |$M38481|

			 ENDP  ; |?ReadByteCountRegister@BulEndpoint@@QAAKXZ|, BulEndpoint::ReadByteCountRegister


  00000			 AREA	 |.pdata|, PDATA
|$T38499| DCD	|$LN9@ReadDataRe|
	DCD	0x40003704
; Function compile flags: /Odtp

  00000			 AREA	 |.text|, CODE, ARM

  00000		 |?ReadDataRegister@BulEndpoint@@QAAKXZ| PROC ; BulEndpoint::ReadDataRegister

; 299  :     DWORD    ReadDataRegister() {

  00000		 |$LN9@ReadDataRe|
  00000	e1a0c00d	 mov         r12, sp
  00004	e92d0001	 stmdb       sp!, {r0}
  00008	e92d5000	 stmdb       sp!, {r12, lr}
  0000c	e24dd010	 sub         sp, sp, #0x10
  00010		 |$M38496|

; 300  :         PREFAST_ASSERT(m_pUsbDevice!=NULL);

  00010	e59d3018	 ldr         r3, [sp, #0x18]
  00014	e283301c	 add         r3, r3, #0x1C
  00018	e5933000	 ldr         r3, [r3]
  0001c	e3530000	 cmp         r3, #0
  00020	0a000002	 beq         |$LN3@ReadDataRe|
  00024	e3a03001	 mov         r3, #1
  00028	e58d3004	 str         r3, [sp, #4]
  0002c	ea000007	 b           |$LN4@ReadDataRe|
  00030		 |$LN3@ReadDataRe|
  00030	e3a03f4b	 mov         r3, #0x4B, 30
  00034	e59f209c	 ldr         r2, [pc, #0x9C]
  00038	e59f1094	 ldr         r1, [pc, #0x94]
  0003c	e59f008c	 ldr         r0, [pc, #0x8C]
  00040	eb000000	 bl          NKDbgPrintfW
  00044	e6000010	 __debugbreak_ce
  00048	e3a03000	 mov         r3, #0
  0004c	e58d3004	 str         r3, [sp, #4]
  00050		 |$LN4@ReadDataRe|

; 301  :         PREFAST_ASSERT(m_dwEndpointIndex<MAX_ENDPOINT_NUMBER);

  00050	e59d3018	 ldr         r3, [sp, #0x18]
  00054	e2833020	 add         r3, r3, #0x20
  00058	e5933000	 ldr         r3, [r3]
  0005c	e3530018	 cmp         r3, #0x18
  00060	2a000002	 bcs         |$LN5@ReadDataRe|
  00064	e3a03001	 mov         r3, #1
  00068	e58d3008	 str         r3, [sp, #8]
  0006c	ea000008	 b           |$LN6@ReadDataRe|
  00070		 |$LN5@ReadDataRe|
  00070	e3a03c01	 mov         r3, #1, 24
  00074	e383302d	 orr         r3, r3, #0x2D
  00078	e59f2058	 ldr         r2, [pc, #0x58]
  0007c	e59f1050	 ldr         r1, [pc, #0x50]
  00080	e59f0048	 ldr         r0, [pc, #0x48]
  00084	eb000000	 bl          NKDbgPrintfW
  00088	e6000010	 __debugbreak_ce
  0008c	e3a03000	 mov         r3, #0
  00090	e58d3008	 str         r3, [sp, #8]
  00094		 |$LN6@ReadDataRe|

; 302  :         return ( m_pUsbDevice->ReadUDCRegister( ENDPOINT_DATA_REGISTER_OFFSET + m_dwEndpointIndex));

  00094	e59d3018	 ldr         r3, [sp, #0x18]
  00098	e2833020	 add         r3, r3, #0x20
  0009c	e5933000	 ldr         r3, [r3]
  000a0	e28310c0	 add         r1, r3, #0xC0
  000a4	e59d3018	 ldr         r3, [sp, #0x18]
  000a8	e283301c	 add         r3, r3, #0x1C
  000ac	e5930000	 ldr         r0, [r3]
  000b0	eb000000	 bl          |?ReadUDCRegister@BulUsbDevice@@QAAKK@Z|
  000b4	e58d000c	 str         r0, [sp, #0xC]
  000b8	e59d300c	 ldr         r3, [sp, #0xC]
  000bc	e58d3000	 str         r3, [sp]

; 303  :     }

  000c0	e59d0000	 ldr         r0, [sp]
  000c4	e28dd010	 add         sp, sp, #0x10
  000c8	e89d6000	 ldmia       sp, {sp, lr}
  000cc	e12fff1e	 bx          lr
  000d0		 |$LN10@ReadDataRe|
  000d0		 |$LN11@ReadDataRe|
  000d0	00000000	 DCD         |??_C@_1FK@FNONLNGN@?$AA?$CF?$AAs?$AA?3?$AA?5?$AAD?$AAE?$AAB?$AAU?$AAG?$AAC?$AAH?$AAK?$AA?5?$AAf?$AAa?$AAi?$AAl?$AAe?$AAd?$AA?5?$AAi?$AAn?$AA?5?$AAf?$AAi?$AAl?$AAe?$AA?5?$AA?$CF?$AAs?$AA?5?$AAa@|
  000d4		 |$LN12@ReadDataRe|
  000d4	00000000	 DCD         |??_C@_1BA@LEPJIIOK@?$AAU?$AAn?$AAk?$AAn?$AAo?$AAw?$AAn?$AA?$AA@|
  000d8		 |$LN13@ReadDataRe|
  000d8	00000000	 DCD         |??_C@_1CG@MKCCFBBJ@?$AA?4?$AA?4?$AA?2?$AAi?$AAn?$AAc?$AA?2?$AAb?$AAu?$AAl?$AA_?$AAu?$AAs?$AAb?$AAf?$AAn?$AA?4?$AAh?$AA?$AA@|
  000dc		 |$M38497|

			 ENDP  ; |?ReadDataRegister@BulEndpoint@@QAAKXZ|, BulEndpoint::ReadDataRegister

	EXPORT	|?DeviceNotification@BulUsbDevice@@QAAHKK@Z| ; BulUsbDevice::DeviceNotification
	EXPORT	|?SendFakeFeature@BulEndpoint@@IAAXEG@Z| ; BulEndpoint::SendFakeFeature

  00060			 AREA	 |.pdata|, PDATA
|$T38512| DCD	|$LN7@SendFakeFe|
	DCD	0x40002d04
; Function compile flags: /Odtp
; File c:\wince600\platform\common\src\soc\pxa27x_ms_v1\usbfn\bul_usbfn.cpp

  015f0			 AREA	 |.text|, CODE, ARM

  015f0		 |?SendFakeFeature@BulEndpoint@@IAAXEG@Z| PROC ; BulEndpoint::SendFakeFeature

; 267  : {

  015f0		 |$LN7@SendFakeFe|
  015f0	e1a0c00d	 mov         r12, sp
  015f4	e92d0007	 stmdb       sp!, {r0 - r2}
  015f8	e92d5000	 stmdb       sp!, {r12, lr}
  015fc	e24dd00c	 sub         sp, sp, #0xC
  01600		 |$M38509|

; 268  :     USB_DEVICE_REQUEST udr;
; 269  :     PREFAST_DEBUGCHK(m_pUsbDevice!=NULL);

  01600	e59d3014	 ldr         r3, [sp, #0x14]
  01604	e283301c	 add         r3, r3, #0x1C
  01608	e5933000	 ldr         r3, [r3]
  0160c	e3530000	 cmp         r3, #0
  01610	0a000002	 beq         |$LN3@SendFakeFe|
  01614	e3a03001	 mov         r3, #1
  01618	e58d3008	 str         r3, [sp, #8]
  0161c	ea000008	 b           |$LN4@SendFakeFe|
  01620		 |$LN3@SendFakeFe|
  01620	e3a03c01	 mov         r3, #1, 24
  01624	e383300d	 orr         r3, r3, #0xD
  01628	e59f2070	 ldr         r2, [pc, #0x70]
  0162c	e59f1068	 ldr         r1, [pc, #0x68]
  01630	e59f0060	 ldr         r0, [pc, #0x60]
  01634	eb000000	 bl          NKDbgPrintfW
  01638	e6000010	 __debugbreak_ce
  0163c	e3a03000	 mov         r3, #0
  01640	e58d3008	 str         r3, [sp, #8]
  01644		 |$LN4@SendFakeFe|

; 270  :     udr.bmRequestType = USB_REQUEST_FOR_ENDPOINT;

  01644	e3a03002	 mov         r3, #2
  01648	e5cd3000	 strb        r3, [sp]

; 271  :     udr.bRequest = bRequest;

  0164c	e5dd3018	 ldrb        r3, [sp, #0x18]
  01650	e5cd3001	 strb        r3, [sp, #1]

; 272  :     udr.wValue = wFeatureSelector ;

  01654	e1dd31bc	 ldrh        r3, [sp, #0x1C]
  01658	e1cd30b2	 strh        r3, [sp, #2]

; 273  :     udr.wIndex = m_epDesc.bEndpointAddress ;

  0165c	e59d3014	 ldr         r3, [sp, #0x14]
  01660	e2833026	 add         r3, r3, #0x26
  01664	e5d33000	 ldrb        r3, [r3]
  01668	e1cd30b4	 strh        r3, [sp, #4]

; 274  :     udr.wLength =0;

  0166c	e3a03000	 mov         r3, #0
  01670	e1cd30b6	 strh        r3, [sp, #6]

; 275  :     m_pUsbDevice->DeviceNotification( UFN_MSG_SETUP_PACKET,(DWORD) &udr);

  01674	e28d2000	 add         r2, sp, #0
  01678	e3a01004	 mov         r1, #4
  0167c	e59d3014	 ldr         r3, [sp, #0x14]
  01680	e283301c	 add         r3, r3, #0x1C
  01684	e5930000	 ldr         r0, [r3]
  01688	eb000000	 bl          |?DeviceNotification@BulUsbDevice@@QAAHKK@Z|

; 276  : }

  0168c	e28dd00c	 add         sp, sp, #0xC
  01690	e89d6000	 ldmia       sp, {sp, lr}
  01694	e12fff1e	 bx          lr
  01698		 |$LN8@SendFakeFe|
  01698		 |$LN9@SendFakeFe|
  01698	00000000	 DCD         |??_C@_1FK@FNONLNGN@?$AA?$CF?$AAs?$AA?3?$AA?5?$AAD?$AAE?$AAB?$AAU?$AAG?$AAC?$AAH?$AAK?$AA?5?$AAf?$AAa?$AAi?$AAl?$AAe?$AAd?$AA?5?$AAi?$AAn?$AA?5?$AAf?$AAi?$AAl?$AAe?$AA?5?$AA?$CF?$AAs?$AA?5?$AAa@|
  0169c		 |$LN10@SendFakeFe|
  0169c	00000000	 DCD         |dpCurSettings|
  016a0		 |$LN11@SendFakeFe|
  016a0	00000000	 DCD         |??_C@_1IO@HHHNJPIB@?$AAC?$AA?3?$AA?2?$AAW?$AAI?$AAN?$AAC?$AAE?$AA6?$AA0?$AA0?$AA?2?$AAP?$AAL?$AAA?$AAT?$AAF?$AAO?$AAR?$AAM?$AA?2?$AAC?$AAO?$AAM?$AAM?$AAO?$AAN?$AA?2?$AAS?$AAR?$AAC?$AA?2@|
  016a4		 |$M38510|

			 ENDP  ; |?SendFakeFeature@BulEndpoint@@IAAXEG@Z|, BulEndpoint::SendFakeFeature

	EXPORT	|??_C@_1FM@CKGLFAED@?$AA?$CF?$AAs?$AA?5?$AAD?$AAe?$AAv?$AAi?$AAc?$AAe?$AAN?$AAo?$AAt?$AAi?$AAf?$AAi?$AAc?$AAa?$AAt?$AAi?$AAo?$AAn?$AA?5?$AAd?$AAw?$AAM?$AAs?$AAg?$AA?3?$AA0?$AAx?$AA?$CF?$AAx@| [ DATA ] ; `string'
	EXPORT	|??_C@_1GC@FDNJHLPA@?$AAb?$AAu?$AAl?$AAv?$AAe?$AAr?$AAd?$AAe?$AA_?$AAu?$AAs?$AAb?$AAf?$AAn?$AA?$CB?$AAB?$AAu?$AAl?$AAU?$AAs?$AAb?$AAD?$AAe?$AAv?$AAi?$AAc?$AAe?$AA?3?$AA?3?$AAD?$AAe?$AAv@| [ DATA ] ; `string'
; File c:\wince600\platform\common\src\soc\pxa27x_ms_v1\inc\bul_usbfn.h

  00000			 AREA	 |.pdata|, PDATA
|$T38526| DCD	|$LN11@DeviceNoti|
	DCD	0x40003c04

  00000			 AREA	 |.rdata|, DATA, READONLY
|??_C@_1FM@CKGLFAED@?$AA?$CF?$AAs?$AA?5?$AAD?$AAe?$AAv?$AAi?$AAc?$AAe?$AAN?$AAo?$AAt?$AAi?$AAf?$AAi?$AAc?$AAa?$AAt?$AAi?$AAo?$AAn?$AA?5?$AAd?$AAw?$AAM?$AAs?$AAg?$AA?3?$AA0?$AAx?$AA?$CF?$AAx@| DCB "%"
	DCB	0x0, "s", 0x0, " ", 0x0, "D", 0x0, "e", 0x0, "v", 0x0, "i"
	DCB	0x0, "c", 0x0, "e", 0x0, "N", 0x0, "o", 0x0, "t", 0x0, "i"
	DCB	0x0, "f", 0x0, "i", 0x0, "c", 0x0, "a", 0x0, "t", 0x0, "i"
	DCB	0x0, "o", 0x0, "n", 0x0, " ", 0x0, "d", 0x0, "w", 0x0, "M"
	DCB	0x0, "s", 0x0, "g", 0x0, ":", 0x0, "0", 0x0, "x", 0x0, "%"
	DCB	0x0, "x", 0x0, ",", 0x0, "d", 0x0, "w", 0x0, "P", 0x0, "a"
	DCB	0x0, "r", 0x0, "a", 0x0, "m", 0x0, ":", 0x0, "0", 0x0, "x"
	DCB	0x0, "%", 0x0, "x", 0x0, 0x0, 0x0	; `string'

  00000			 AREA	 |.rdata|, DATA, READONLY
|??_C@_1GC@FDNJHLPA@?$AAb?$AAu?$AAl?$AAv?$AAe?$AAr?$AAd?$AAe?$AA_?$AAu?$AAs?$AAb?$AAf?$AAn?$AA?$CB?$AAB?$AAu?$AAl?$AAU?$AAs?$AAb?$AAD?$AAe?$AAv?$AAi?$AAc?$AAe?$AA?3?$AA?3?$AAD?$AAe?$AAv@| DCB "b"
	DCB	0x0, "u", 0x0, "l", 0x0, "v", 0x0, "e", 0x0, "r", 0x0, "d"
	DCB	0x0, "e", 0x0, "_", 0x0, "u", 0x0, "s", 0x0, "b", 0x0, "f"
	DCB	0x0, "n", 0x0, "!", 0x0, "B", 0x0, "u", 0x0, "l", 0x0, "U"
	DCB	0x0, "s", 0x0, "b", 0x0, "D", 0x0, "e", 0x0, "v", 0x0, "i"
	DCB	0x0, "c", 0x0, "e", 0x0, ":", 0x0, ":", 0x0, "D", 0x0, "e"
	DCB	0x0, "v", 0x0, "i", 0x0, "c", 0x0, "e", 0x0, "N", 0x0, "o"
	DCB	0x0, "t", 0x0, "i", 0x0, "f", 0x0, "i", 0x0, "c", 0x0, "a"
	DCB	0x0, "t", 0x0, "i", 0x0, "o", 0x0, "n", 0x0, ":", 0x0, 0x0
	DCB	0x0					; `string'
; Function compile flags: /Odtp

  00000			 AREA	 |.text|, CODE, ARM

  00000		 |?DeviceNotification@BulUsbDevice@@QAAHKK@Z| PROC ; BulUsbDevice::DeviceNotification

; 167  :     BOOL DeviceNotification( DWORD dwMsg, DWORD dwParam ) {

  00000		 |$LN11@DeviceNoti|
  00000	e1a0c00d	 mov         r12, sp
  00004	e92d0007	 stmdb       sp!, {r0 - r2}
  00008	e92d5000	 stmdb       sp!, {r12, lr}
  0000c	e24dd010	 sub         sp, sp, #0x10
  00010		 |$M38523|

; 168  :         SETFNAME();

  00010	e59f30d4	 ldr         r3, [pc, #0xD4]
  00014	e58d3000	 str         r3, [sp]

; 169  :         if (m_pvMddContext) {

  00018	e59d3018	 ldr         r3, [sp, #0x18]
  0001c	e28330b4	 add         r3, r3, #0xB4
  00020	e5933000	 ldr         r3, [r3]
  00024	e3530000	 cmp         r3, #0
  00028	0a000026	 beq         |$LN2@DeviceNoti|

; 170  :             DEBUGMSG(ZONE_FUNCTION, (_T("%s DeviceNotification dwMsg:0x%x,dwParam:0x%x"),pszFname,dwMsg,dwParam));

  0002c	e59f30b4	 ldr         r3, [pc, #0xB4]
  00030	e5933440	 ldr         r3, [r3, #0x440]
  00034	e3130a01	 tst         r3, #1, 20
  00038	0a000011	 beq         |$LN7@DeviceNoti|
  0003c	e59f30a4	 ldr         r3, [pc, #0xA4]
  00040	e5933440	 ldr         r3, [r3, #0x440]
  00044	e3130801	 tst         r3, #1, 16
  00048	0a000005	 beq         |$LN5@DeviceNoti|
  0004c	e59d3020	 ldr         r3, [sp, #0x20]
  00050	e59d201c	 ldr         r2, [sp, #0x1C]
  00054	e59d1000	 ldr         r1, [sp]
  00058	e59f0084	 ldr         r0, [pc, #0x84]
  0005c	eb000000	 bl          CeLogMsg
  00060	ea000004	 b           |$LN6@DeviceNoti|
  00064		 |$LN5@DeviceNoti|
  00064	e59d3020	 ldr         r3, [sp, #0x20]
  00068	e59d201c	 ldr         r2, [sp, #0x1C]
  0006c	e59d1000	 ldr         r1, [sp]
  00070	e59f006c	 ldr         r0, [pc, #0x6C]
  00074	eb000000	 bl          NKDbgPrintfW
  00078		 |$LN6@DeviceNoti|
  00078	e3a03001	 mov         r3, #1
  0007c	e58d3008	 str         r3, [sp, #8]
  00080	ea000001	 b           |$LN8@DeviceNoti|
  00084		 |$LN7@DeviceNoti|
  00084	e3a03000	 mov         r3, #0
  00088	e58d3008	 str         r3, [sp, #8]
  0008c		 |$LN8@DeviceNoti|

; 171  :             return m_pfnNotify(m_pvMddContext, dwMsg, dwParam);

  0008c	e59d2020	 ldr         r2, [sp, #0x20]
  00090	e59d101c	 ldr         r1, [sp, #0x1C]
  00094	e59d3018	 ldr         r3, [sp, #0x18]
  00098	e28330b4	 add         r3, r3, #0xB4
  0009c	e5930000	 ldr         r0, [r3]
  000a0	e59d3018	 ldr         r3, [sp, #0x18]
  000a4	e28330c0	 add         r3, r3, #0xC0
  000a8	e5933000	 ldr         r3, [r3]
  000ac	e1a0e00f	 mov         lr, pc
  000b0	e12fff13	 bx          r3
  000b4	e58d000c	 str         r0, [sp, #0xC]
  000b8	e59d300c	 ldr         r3, [sp, #0xC]
  000bc	e58d3004	 str         r3, [sp, #4]
  000c0	ea000003	 b           |$LN3@DeviceNoti|

; 172  :         }
; 173  :         else {

  000c4	ea000002	 b           |$LN1@DeviceNoti|
  000c8		 |$LN2@DeviceNoti|

; 174  :             DebugBreak();

  000c8	e6000010	 __debugbreak_ce

; 175  :             return FALSE;

  000cc	e3a03000	 mov         r3, #0
  000d0	e58d3004	 str         r3, [sp, #4]
  000d4		 |$LN1@DeviceNoti|
  000d4		 |$LN3@DeviceNoti|

; 176  :         }
; 177  :     }

  000d4	e59d0004	 ldr         r0, [sp, #4]
  000d8	e28dd010	 add         sp, sp, #0x10
  000dc	e89d6000	 ldmia       sp, {sp, lr}
  000e0	e12fff1e	 bx          lr
  000e4		 |$LN12@DeviceNoti|
  000e4		 |$LN13@DeviceNoti|
  000e4	00000000	 DCD         |??_C@_1FM@CKGLFAED@?$AA?$CF?$AAs?$AA?5?$AAD?$AAe?$AAv?$AAi?$AAc?$AAe?$AAN?$AAo?$AAt?$AAi?$AAf?$AAi?$AAc?$AAa?$AAt?$AAi?$AAo?$AAn?$AA?5?$AAd?$AAw?$AAM?$AAs?$AAg?$AA?3?$AA0?$AAx?$AA?$CF?$AAx@|
  000e8		 |$LN14@DeviceNoti|
  000e8	00000000	 DCD         |dpCurSettings|
  000ec		 |$LN15@DeviceNoti|
  000ec	00000000	 DCD         |??_C@_1GC@FDNJHLPA@?$AAb?$AAu?$AAl?$AAv?$AAe?$AAr?$AAd?$AAe?$AA_?$AAu?$AAs?$AAb?$AAf?$AAn?$AA?$CB?$AAB?$AAu?$AAl?$AAU?$AAs?$AAb?$AAD?$AAe?$AAv?$AAi?$AAc?$AAe?$AA?3?$AA?3?$AAD?$AAe?$AAv@|
  000f0		 |$M38524|

			 ENDP  ; |?DeviceNotification@BulUsbDevice@@QAAHKK@Z|, BulUsbDevice::DeviceNotification

	EXPORT	|??_C@_1EM@INKNAIDM@?$AAb?$AAu?$AAl?$AAv?$AAe?$AAr?$AAd?$AAe?$AA_?$AAu?$AAs?$AAb?$AAf?$AAn?$AA?$CB?$AAB?$AAu?$AAl?$AAE?$AAn?$AAd?$AAp?$AAo?$AAi?$AAn?$AAt?$AAZ?$AAe?$AAr?$AAo?$AA?3?$AA?3@| [ DATA ] ; `string'
	EXPORT	|?Init@BulEndpointZero@@UAAHPAU_USB_ENDPOINT_DESCRIPTOR@@EEE@Z| ; BulEndpointZero::Init

  00068			 AREA	 |.pdata|, PDATA
|$T38546| DCD	|$LN15@Init@2|
	DCD	0x40008604
; File c:\wince600\platform\common\src\soc\pxa27x_ms_v1\usbfn\bul_usbfn.cpp

  00000			 AREA	 |.rdata|, DATA, READONLY
|??_C@_1EM@INKNAIDM@?$AAb?$AAu?$AAl?$AAv?$AAe?$AAr?$AAd?$AAe?$AA_?$AAu?$AAs?$AAb?$AAf?$AAn?$AA?$CB?$AAB?$AAu?$AAl?$AAE?$AAn?$AAd?$AAp?$AAo?$AAi?$AAn?$AAt?$AAZ?$AAe?$AAr?$AAo?$AA?3?$AA?3@| DCB "b"
	DCB	0x0, "u", 0x0, "l", 0x0, "v", 0x0, "e", 0x0, "r", 0x0, "d"
	DCB	0x0, "e", 0x0, "_", 0x0, "u", 0x0, "s", 0x0, "b", 0x0, "f"
	DCB	0x0, "n", 0x0, "!", 0x0, "B", 0x0, "u", 0x0, "l", 0x0, "E"
	DCB	0x0, "n", 0x0, "d", 0x0, "p", 0x0, "o", 0x0, "i", 0x0, "n"
	DCB	0x0, "t", 0x0, "Z", 0x0, "e", 0x0, "r", 0x0, "o", 0x0, ":"
	DCB	0x0, ":", 0x0, "I", 0x0, "n", 0x0, "i", 0x0, "t", 0x0, ":"
	DCB	0x0, 0x0, 0x0				; `string'
; Function compile flags: /Odtp

  016a4			 AREA	 |.text|, CODE, ARM

  016a4		 |?Init@BulEndpointZero@@UAAHPAU_USB_ENDPOINT_DESCRIPTOR@@EEE@Z| PROC ; BulEndpointZero::Init

; 279  : {

  016a4		 |$LN15@Init@2|
  016a4	e1a0c00d	 mov         r12, sp
  016a8	e92d000f	 stmdb       sp!, {r0 - r3}
  016ac	e92d5000	 stmdb       sp!, {r12, lr}
  016b0	e24dd018	 sub         sp, sp, #0x18
  016b4		 |$M38543|

; 280  :     Lock();

  016b4	e59d3020	 ldr         r3, [sp, #0x20]
  016b8	e2830008	 add         r0, r3, #8
  016bc	eb000000	 bl          |?Lock@CLockObject@@QAAXXZ|

; 281  :     m_fBackedudr = FALSE;

  016c0	e59d3020	 ldr         r3, [sp, #0x20]
  016c4	e283205c	 add         r2, r3, #0x5C
  016c8	e3a03000	 mov         r3, #0
  016cc	e5823000	 str         r3, [r2]

; 282  :     BOOL bReturn = FALSE;

  016d0	e3a03000	 mov         r3, #0
  016d4	e58d3000	 str         r3, [sp]

; 283  :     SETFNAME();

  016d8	e59f31d8	 ldr         r3, [pc, #0x1D8]
  016dc	e58d3004	 str         r3, [sp, #4]

; 284  :     FUNCTION_ENTER_MSG();

  016e0	e59f31c8	 ldr         r3, [pc, #0x1C8]
  016e4	e5933440	 ldr         r3, [r3, #0x440]
  016e8	e3130a01	 tst         r3, #1, 20
  016ec	0a00000d	 beq         |$LN7@Init@2|
  016f0	e59f31b8	 ldr         r3, [pc, #0x1B8]
  016f4	e5933440	 ldr         r3, [r3, #0x440]
  016f8	e3130801	 tst         r3, #1, 16
  016fc	0a000003	 beq         |$LN5@Init@2|
  01700	e59d1004	 ldr         r1, [sp, #4]
  01704	e59f01a8	 ldr         r0, [pc, #0x1A8]
  01708	eb000000	 bl          CeLogMsg
  0170c	ea000002	 b           |$LN6@Init@2|
  01710		 |$LN5@Init@2|
  01710	e59d1004	 ldr         r1, [sp, #4]
  01714	e59f0198	 ldr         r0, [pc, #0x198]
  01718	eb000000	 bl          NKDbgPrintfW
  0171c		 |$LN6@Init@2|
  0171c	e3a03001	 mov         r3, #1
  01720	e58d300c	 str         r3, [sp, #0xC]
  01724	ea000001	 b           |$LN8@Init@2|
  01728		 |$LN7@Init@2|
  01728	e3a03000	 mov         r3, #0
  0172c	e58d300c	 str         r3, [sp, #0xC]
  01730		 |$LN8@Init@2|

; 285  :     m_bConfigurationValue= bConfigurationValue;

  01730	e59d3020	 ldr         r3, [sp, #0x20]
  01734	e283202b	 add         r2, r3, #0x2B
  01738	e5dd3028	 ldrb        r3, [sp, #0x28]
  0173c	e5c23000	 strb        r3, [r2]

; 286  :     m_bInterfaceNumber = bInterfaceNumber;

  01740	e59d3020	 ldr         r3, [sp, #0x20]
  01744	e283202c	 add         r2, r3, #0x2C
  01748	e5dd302c	 ldrb        r3, [sp, #0x2C]
  0174c	e5c23000	 strb        r3, [r2]

; 287  :     m_bAlternateSetting =bAlternateSetting;

  01750	e59d3020	 ldr         r3, [sp, #0x20]
  01754	e283202d	 add         r2, r3, #0x2D
  01758	e5dd3030	 ldrb        r3, [sp, #0x30]
  0175c	e5c23000	 strb        r3, [r2]

; 288  :     
; 289  :     if ( pEndpointDesc && m_pUsbDevice!=NULL && m_dwEndpointIndex < MAX_ENDPOINT_NUMBER) {

  01760	e59d3024	 ldr         r3, [sp, #0x24]
  01764	e3530000	 cmp         r3, #0
  01768	0a000032	 beq         |$LN2@Init@2|
  0176c	e59d3020	 ldr         r3, [sp, #0x20]
  01770	e283301c	 add         r3, r3, #0x1C
  01774	e5933000	 ldr         r3, [r3]
  01778	e3530000	 cmp         r3, #0
  0177c	0a00002d	 beq         |$LN2@Init@2|
  01780	e59d3020	 ldr         r3, [sp, #0x20]
  01784	e2833020	 add         r3, r3, #0x20
  01788	e5933000	 ldr         r3, [r3]
  0178c	e3530018	 cmp         r3, #0x18
  01790	2a000028	 bcs         |$LN2@Init@2|

; 290  :         m_epDesc = *pEndpointDesc;

  01794	e59d1024	 ldr         r1, [sp, #0x24]
  01798	e59d3020	 ldr         r3, [sp, #0x20]
  0179c	e2830024	 add         r0, r3, #0x24
  017a0	e3a02007	 mov         r2, #7
  017a4	eb000000	 bl          memcpy

; 291  :         if ((m_epDesc.wMaxPacketSize & 0x3ff) >= EP0_MAX_PACKET_SIZE) {

  017a8	e59d3020	 ldr         r3, [sp, #0x20]
  017ac	e2831028	 add         r1, r3, #0x28
  017b0	e5d13001	 ldrb        r3, [r1, #1]
  017b4	e1a03403	 mov         r3, r3, lsl #8
  017b8	e1a02803	 mov         r2, r3, lsl #16
  017bc	e1a02822	 mov         r2, r2, lsr #16
  017c0	e5d13000	 ldrb        r3, [r1]
  017c4	e1833002	 orr         r3, r3, r2
  017c8	e1a02003	 mov         r2, r3
  017cc	e3a03c03	 mov         r3, #3, 24
  017d0	e38330ff	 orr         r3, r3, #0xFF
  017d4	e0023003	 and         r3, r2, r3
  017d8	e3530010	 cmp         r3, #0x10
  017dc	ba000015	 blt         |$LN1@Init@2|

; 292  :             m_epDesc.wMaxPacketSize = pEndpointDesc->wMaxPacketSize = EP0_MAX_PACKET_SIZE;

  017e0	e59d3024	 ldr         r3, [sp, #0x24]
  017e4	e2832004	 add         r2, r3, #4
  017e8	e3a03010	 mov         r3, #0x10
  017ec	e5c23000	 strb        r3, [r2]
  017f0	e1a03423	 mov         r3, r3, lsr #8
  017f4	e5c23001	 strb        r3, [r2, #1]
  017f8	e59d3020	 ldr         r3, [sp, #0x20]
  017fc	e2832028	 add         r2, r3, #0x28
  01800	e3a03010	 mov         r3, #0x10
  01804	e5c23000	 strb        r3, [r2]
  01808	e1a03423	 mov         r3, r3, lsr #8
  0180c	e5c23001	 strb        r3, [r2, #1]

; 293  :         
; 294  :             bReturn = ReInit();

  01810	e59d3020	 ldr         r3, [sp, #0x20]
  01814	e5933000	 ldr         r3, [r3]
  01818	e2833008	 add         r3, r3, #8
  0181c	e59d0020	 ldr         r0, [sp, #0x20]
  01820	e5933000	 ldr         r3, [r3]
  01824	e1a0e00f	 mov         lr, pc
  01828	e12fff13	 bx          r3
  0182c	e58d0010	 str         r0, [sp, #0x10]
  01830	e59d3010	 ldr         r3, [sp, #0x10]
  01834	e58d3000	 str         r3, [sp]
  01838		 |$LN1@Init@2|
  01838		 |$LN2@Init@2|

; 295  :         }
; 296  :     }
; 297  :     Unlock();

  01838	e59d3020	 ldr         r3, [sp, #0x20]
  0183c	e2830008	 add         r0, r3, #8
  01840	eb000000	 bl          |?Unlock@CLockObject@@QAAXXZ|

; 298  :     FUNCTION_LEAVE_MSG();

  01844	e59f3064	 ldr         r3, [pc, #0x64]
  01848	e5933440	 ldr         r3, [r3, #0x440]
  0184c	e3130a01	 tst         r3, #1, 20
  01850	0a00000d	 beq         |$LN11@Init@2|
  01854	e59f3054	 ldr         r3, [pc, #0x54]
  01858	e5933440	 ldr         r3, [r3, #0x440]
  0185c	e3130801	 tst         r3, #1, 16
  01860	0a000003	 beq         |$LN9@Init@2|
  01864	e59d1004	 ldr         r1, [sp, #4]
  01868	e59f003c	 ldr         r0, [pc, #0x3C]
  0186c	eb000000	 bl          CeLogMsg
  01870	ea000002	 b           |$LN10@Init@2|
  01874		 |$LN9@Init@2|
  01874	e59d1004	 ldr         r1, [sp, #4]
  01878	e59f002c	 ldr         r0, [pc, #0x2C]
  0187c	eb000000	 bl          NKDbgPrintfW
  01880		 |$LN10@Init@2|
  01880	e3a03001	 mov         r3, #1
  01884	e58d3014	 str         r3, [sp, #0x14]
  01888	ea000001	 b           |$LN12@Init@2|
  0188c		 |$LN11@Init@2|
  0188c	e3a03000	 mov         r3, #0
  01890	e58d3014	 str         r3, [sp, #0x14]
  01894		 |$LN12@Init@2|

; 299  :     return bReturn;

  01894	e59d3000	 ldr         r3, [sp]
  01898	e58d3008	 str         r3, [sp, #8]

; 300  : }

  0189c	e59d0008	 ldr         r0, [sp, #8]
  018a0	e28dd018	 add         sp, sp, #0x18
  018a4	e89d6000	 ldmia       sp, {sp, lr}
  018a8	e12fff1e	 bx          lr
  018ac		 |$LN16@Init@2|
  018ac		 |$LN17@Init@2|
  018ac	00000000	 DCD         |??_C@_1BA@PLOOFDPK@?$AA?$CF?$AAs?$AA?5?$AA?9?$AA?9?$AA?$AN?$AA?6?$AA?$AA@|
  018b0		 |$LN18@Init@2|
  018b0	00000000	 DCD         |dpCurSettings|
  018b4		 |$LN19@Init@2|
  018b4	00000000	 DCD         |??_C@_1BA@DAJPCKDK@?$AA?$CF?$AAs?$AA?5?$AA?$CL?$AA?$CL?$AA?$AN?$AA?6?$AA?$AA@|
  018b8		 |$LN20@Init@2|
  018b8	00000000	 DCD         |??_C@_1EM@INKNAIDM@?$AAb?$AAu?$AAl?$AAv?$AAe?$AAr?$AAd?$AAe?$AA_?$AAu?$AAs?$AAb?$AAf?$AAn?$AA?$CB?$AAB?$AAu?$AAl?$AAE?$AAn?$AAd?$AAp?$AAo?$AAi?$AAn?$AAt?$AAZ?$AAe?$AAr?$AAo?$AA?3?$AA?3@|
  018bc		 |$M38544|

			 ENDP  ; |?Init@BulEndpointZero@@UAAHPAU_USB_ENDPOINT_DESCRIPTOR@@EEE@Z|, BulEndpointZero::Init

	EXPORT	|?WriteControlRegister@BulUsbDevice@@QAAXK@Z| ; BulUsbDevice::WriteControlRegister
	EXPORT	|?ReInit@BulEndpointZero@@UAAHXZ|	; BulEndpointZero::ReInit

  00070			 AREA	 |.pdata|, PDATA
|$T38557| DCD	|$LN5@ReInit@2|
	DCD	0x40002d04
; Function compile flags: /Odtp

  018bc			 AREA	 |.text|, CODE, ARM

  018bc		 |?ReInit@BulEndpointZero@@UAAHXZ| PROC	; BulEndpointZero::ReInit

; 302  : {

  018bc		 |$LN5@ReInit@2|
  018bc	e1a0c00d	 mov         r12, sp
  018c0	e92d0001	 stmdb       sp!, {r0}
  018c4	e92d5000	 stmdb       sp!, {r12, lr}
  018c8	e24dd010	 sub         sp, sp, #0x10
  018cc		 |$M38554|

; 303  :     m_bNeedAck = FALSE;

  018cc	e59d3018	 ldr         r3, [sp, #0x18]
  018d0	e2832040	 add         r2, r3, #0x40
  018d4	e3a03000	 mov         r3, #0
  018d8	e5823000	 str         r3, [r2]

; 304  :     m_bSetupDirIn = FALSE;

  018dc	e59d3018	 ldr         r3, [sp, #0x18]
  018e0	e2832044	 add         r2, r3, #0x44
  018e4	e3a03000	 mov         r3, #0
  018e8	e5823000	 str         r3, [r2]

; 305  :     UDCCSR udccsr;
; 306  :     udccsr.ulValue = 0;        

  018ec	e3a03000	 mov         r3, #0
  018f0	e58d3004	 str         r3, [sp, #4]

; 307  :     udccsr.ep0bit.SA = udccsr.ep0bit.SST = udccsr.ep0bit.FTF =udccsr.ep0bit.OPC=1;

  018f4	e59d3004	 ldr         r3, [sp, #4]
  018f8	e3833001	 orr         r3, r3, #1
  018fc	e58d3004	 str         r3, [sp, #4]
  01900	e59d3004	 ldr         r3, [sp, #4]
  01904	e3833004	 orr         r3, r3, #4
  01908	e58d3004	 str         r3, [sp, #4]
  0190c	e59d3004	 ldr         r3, [sp, #4]
  01910	e3833010	 orr         r3, r3, #0x10
  01914	e58d3004	 str         r3, [sp, #4]
  01918	e59d3004	 ldr         r3, [sp, #4]
  0191c	e3833080	 orr         r3, r3, #0x80
  01920	e58d3004	 str         r3, [sp, #4]

; 308  :     WriteControlStatusRegister(udccsr.ulValue);

  01924	e59d1004	 ldr         r1, [sp, #4]
  01928	e59d0018	 ldr         r0, [sp, #0x18]
  0192c	eb000000	 bl          |?WriteControlStatusRegister@BulEndpoint@@QAAXK@Z|

; 309  :     
; 310  :     UDCCR udccr;
; 311  :     udccr.ulValue = 0;

  01930	e3a03000	 mov         r3, #0
  01934	e58d3000	 str         r3, [sp]

; 312  :     udccr.bit.EMCE = 1;

  01938	e59d3000	 ldr         r3, [sp]
  0193c	e3833008	 orr         r3, r3, #8
  01940	e58d3000	 str         r3, [sp]

; 313  :     m_pUsbDevice->WriteControlRegister(udccr.ulValue);

  01944	e59d1000	 ldr         r1, [sp]
  01948	e59d3018	 ldr         r3, [sp, #0x18]
  0194c	e283301c	 add         r3, r3, #0x1C
  01950	e5930000	 ldr         r0, [r3]
  01954	eb000000	 bl          |?WriteControlRegister@BulUsbDevice@@QAAXK@Z|

; 314  :     return TRUE;

  01958	e3a03001	 mov         r3, #1
  0195c	e58d300c	 str         r3, [sp, #0xC]

; 315  : }

  01960	e59d000c	 ldr         r0, [sp, #0xC]
  01964	e28dd010	 add         sp, sp, #0x10
  01968	e89d6000	 ldmia       sp, {sp, lr}
  0196c	e12fff1e	 bx          lr
  01970		 |$M38555|

			 ENDP  ; |?ReInit@BulEndpointZero@@UAAHXZ|, BulEndpointZero::ReInit

; File c:\wince600\platform\common\src\soc\pxa27x_ms_v1\inc\bul_usbfn.h

  00000			 AREA	 |.pdata|, PDATA
|$T38562| DCD	|$LN5@WriteContr@2|
	DCD	0x40000903
; Function compile flags: /Odtp

  00000			 AREA	 |.text|, CODE, ARM

  00000		 |?WriteControlRegister@BulUsbDevice@@QAAXK@Z| PROC ; BulUsbDevice::WriteControlRegister

; 140  :     void    WriteControlRegister(DWORD dwData) { WriteUDCRegister(DEVICE_CONTROL_REGISTER, dwData);}

  00000		 |$LN5@WriteContr@2|
  00000	e1a0c00d	 mov         r12, sp
  00004	e92d0003	 stmdb       sp!, {r0, r1}
  00008	e92d5000	 stmdb       sp!, {r12, lr}
  0000c		 |$M38559|
  0000c	e59d200c	 ldr         r2, [sp, #0xC]
  00010	e3a01000	 mov         r1, #0
  00014	e59d0008	 ldr         r0, [sp, #8]
  00018	eb000000	 bl          |?WriteUDCRegister@BulUsbDevice@@QAAXKK@Z|
  0001c	e89d6000	 ldmia       sp, {sp, lr}
  00020	e12fff1e	 bx          lr
  00024		 |$M38560|

			 ENDP  ; |?WriteControlRegister@BulUsbDevice@@QAAXK@Z|, BulUsbDevice::WriteControlRegister

	EXPORT	|??_C@_1FO@DFDPPFDE@?$AAb?$AAu?$AAl?$AAv?$AAe?$AAr?$AAd?$AAe?$AA_?$AAu?$AAs?$AAb?$AAf?$AAn?$AA?$CB?$AAB?$AAu?$AAl?$AAE?$AAn?$AAd?$AAp?$AAo?$AAi?$AAn?$AAt?$AAZ?$AAe?$AAr?$AAo?$AA?3?$AA?3@| [ DATA ] ; `string'
	EXPORT	|?ResetEndpoint@BulEndpointZero@@UAAKXZ| ; BulEndpointZero::ResetEndpoint

  00078			 AREA	 |.pdata|, PDATA
|$T38578| DCD	|$LN13@ResetEndpo@2|
	DCD	0x40005304
; File c:\wince600\platform\common\src\soc\pxa27x_ms_v1\usbfn\bul_usbfn.cpp

  00000			 AREA	 |.rdata|, DATA, READONLY
|??_C@_1FO@DFDPPFDE@?$AAb?$AAu?$AAl?$AAv?$AAe?$AAr?$AAd?$AAe?$AA_?$AAu?$AAs?$AAb?$AAf?$AAn?$AA?$CB?$AAB?$AAu?$AAl?$AAE?$AAn?$AAd?$AAp?$AAo?$AAi?$AAn?$AAt?$AAZ?$AAe?$AAr?$AAo?$AA?3?$AA?3@| DCB "b"
	DCB	0x0, "u", 0x0, "l", 0x0, "v", 0x0, "e", 0x0, "r", 0x0, "d"
	DCB	0x0, "e", 0x0, "_", 0x0, "u", 0x0, "s", 0x0, "b", 0x0, "f"
	DCB	0x0, "n", 0x0, "!", 0x0, "B", 0x0, "u", 0x0, "l", 0x0, "E"
	DCB	0x0, "n", 0x0, "d", 0x0, "p", 0x0, "o", 0x0, "i", 0x0, "n"
	DCB	0x0, "t", 0x0, "Z", 0x0, "e", 0x0, "r", 0x0, "o", 0x0, ":"
	DCB	0x0, ":", 0x0, "R", 0x0, "e", 0x0, "s", 0x0, "e", 0x0, "t"
	DCB	0x0, "E", 0x0, "n", 0x0, "d", 0x0, "p", 0x0, "o", 0x0, "i"
	DCB	0x0, "n", 0x0, "t", 0x0, ":", 0x0, 0x0, 0x0 ; `string'
; Function compile flags: /Odtp

  01970			 AREA	 |.text|, CODE, ARM

  01970		 |?ResetEndpoint@BulEndpointZero@@UAAKXZ| PROC ; BulEndpointZero::ResetEndpoint

; 317  : {

  01970		 |$LN13@ResetEndpo@2|
  01970	e1a0c00d	 mov         r12, sp
  01974	e92d0001	 stmdb       sp!, {r0}
  01978	e92d5000	 stmdb       sp!, {r12, lr}
  0197c	e24dd018	 sub         sp, sp, #0x18
  01980		 |$M38575|

; 318  :     UDCCSR udccsr;
; 319  :     SETFNAME();

  01980	e59f3130	 ldr         r3, [pc, #0x130]
  01984	e58d3000	 str         r3, [sp]

; 320  :     FUNCTION_ENTER_MSG();

  01988	e59f3120	 ldr         r3, [pc, #0x120]
  0198c	e5933440	 ldr         r3, [r3, #0x440]
  01990	e3130a01	 tst         r3, #1, 20
  01994	0a00000d	 beq         |$LN5@ResetEndpo@2|
  01998	e59f3110	 ldr         r3, [pc, #0x110]
  0199c	e5933440	 ldr         r3, [r3, #0x440]
  019a0	e3130801	 tst         r3, #1, 16
  019a4	0a000003	 beq         |$LN3@ResetEndpo@2|
  019a8	e59d1000	 ldr         r1, [sp]
  019ac	e59f0100	 ldr         r0, [pc, #0x100]
  019b0	eb000000	 bl          CeLogMsg
  019b4	ea000002	 b           |$LN4@ResetEndpo@2|
  019b8		 |$LN3@ResetEndpo@2|
  019b8	e59d1000	 ldr         r1, [sp]
  019bc	e59f00f0	 ldr         r0, [pc, #0xF0]
  019c0	eb000000	 bl          NKDbgPrintfW
  019c4		 |$LN4@ResetEndpo@2|
  019c4	e3a03001	 mov         r3, #1
  019c8	e58d3010	 str         r3, [sp, #0x10]
  019cc	ea000001	 b           |$LN6@ResetEndpo@2|
  019d0		 |$LN5@ResetEndpo@2|
  019d0	e3a03000	 mov         r3, #0
  019d4	e58d3010	 str         r3, [sp, #0x10]
  019d8		 |$LN6@ResetEndpo@2|

; 321  :     Lock();

  019d8	e59d3020	 ldr         r3, [sp, #0x20]
  019dc	e2830008	 add         r0, r3, #8
  019e0	eb000000	 bl          |?Lock@CLockObject@@QAAXXZ|

; 322  :     m_bNeedAck = FALSE;

  019e4	e59d3020	 ldr         r3, [sp, #0x20]
  019e8	e2832040	 add         r2, r3, #0x40
  019ec	e3a03000	 mov         r3, #0
  019f0	e5823000	 str         r3, [r2]

; 323  :     udccsr.ulValue = 0;        

  019f4	e3a03000	 mov         r3, #0
  019f8	e58d3004	 str         r3, [sp, #4]

; 324  :     udccsr.ep0bit.SA = udccsr.ep0bit.SST = udccsr.ep0bit.FTF =udccsr.ep0bit.OPC=1;

  019fc	e59d3004	 ldr         r3, [sp, #4]
  01a00	e3833001	 orr         r3, r3, #1
  01a04	e58d3004	 str         r3, [sp, #4]
  01a08	e59d3004	 ldr         r3, [sp, #4]
  01a0c	e3833004	 orr         r3, r3, #4
  01a10	e58d3004	 str         r3, [sp, #4]
  01a14	e59d3004	 ldr         r3, [sp, #4]
  01a18	e3833010	 orr         r3, r3, #0x10
  01a1c	e58d3004	 str         r3, [sp, #4]
  01a20	e59d3004	 ldr         r3, [sp, #4]
  01a24	e3833080	 orr         r3, r3, #0x80
  01a28	e58d3004	 str         r3, [sp, #4]

; 325  :     WriteControlStatusRegister(udccsr.ulValue);

  01a2c	e59d1004	 ldr         r1, [sp, #4]
  01a30	e59d0020	 ldr         r0, [sp, #0x20]
  01a34	eb000000	 bl          |?WriteControlStatusRegister@BulEndpoint@@QAAXK@Z|

; 326  :     Unlock();

  01a38	e59d3020	 ldr         r3, [sp, #0x20]
  01a3c	e2830008	 add         r0, r3, #8
  01a40	eb000000	 bl          |?Unlock@CLockObject@@QAAXXZ|

; 327  :     FUNCTION_LEAVE_MSG();

  01a44	e59f3064	 ldr         r3, [pc, #0x64]
  01a48	e5933440	 ldr         r3, [r3, #0x440]
  01a4c	e3130a01	 tst         r3, #1, 20
  01a50	0a00000d	 beq         |$LN9@ResetEndpo@2|
  01a54	e59f3054	 ldr         r3, [pc, #0x54]
  01a58	e5933440	 ldr         r3, [r3, #0x440]
  01a5c	e3130801	 tst         r3, #1, 16
  01a60	0a000003	 beq         |$LN7@ResetEndpo@2|
  01a64	e59d1000	 ldr         r1, [sp]
  01a68	e59f003c	 ldr         r0, [pc, #0x3C]
  01a6c	eb000000	 bl          CeLogMsg
  01a70	ea000002	 b           |$LN8@ResetEndpo@2|
  01a74		 |$LN7@ResetEndpo@2|
  01a74	e59d1000	 ldr         r1, [sp]
  01a78	e59f002c	 ldr         r0, [pc, #0x2C]
  01a7c	eb000000	 bl          NKDbgPrintfW
  01a80		 |$LN8@ResetEndpo@2|
  01a80	e3a03001	 mov         r3, #1
  01a84	e58d3014	 str         r3, [sp, #0x14]
  01a88	ea000001	 b           |$LN10@ResetEndpo@2|
  01a8c		 |$LN9@ResetEndpo@2|
  01a8c	e3a03000	 mov         r3, #0
  01a90	e58d3014	 str         r3, [sp, #0x14]
  01a94		 |$LN10@ResetEndpo@2|

; 328  :     return ERROR_SUCCESS;

  01a94	e3a03000	 mov         r3, #0
  01a98	e58d300c	 str         r3, [sp, #0xC]

; 329  : }

  01a9c	e59d000c	 ldr         r0, [sp, #0xC]
  01aa0	e28dd018	 add         sp, sp, #0x18
  01aa4	e89d6000	 ldmia       sp, {sp, lr}
  01aa8	e12fff1e	 bx          lr
  01aac		 |$LN14@ResetEndpo@2|
  01aac		 |$LN15@ResetEndpo@2|
  01aac	00000000	 DCD         |??_C@_1BA@PLOOFDPK@?$AA?$CF?$AAs?$AA?5?$AA?9?$AA?9?$AA?$AN?$AA?6?$AA?$AA@|
  01ab0		 |$LN16@ResetEndpo@2|
  01ab0	00000000	 DCD         |dpCurSettings|
  01ab4		 |$LN17@ResetEndpo@2|
  01ab4	00000000	 DCD         |??_C@_1BA@DAJPCKDK@?$AA?$CF?$AAs?$AA?5?$AA?$CL?$AA?$CL?$AA?$AN?$AA?6?$AA?$AA@|
  01ab8		 |$LN18@ResetEndpo@2|
  01ab8	00000000	 DCD         |??_C@_1FO@DFDPPFDE@?$AAb?$AAu?$AAl?$AAv?$AAe?$AAr?$AAd?$AAe?$AA_?$AAu?$AAs?$AAb?$AAf?$AAn?$AA?$CB?$AAB?$AAu?$AAl?$AAE?$AAn?$AAd?$AAp?$AAo?$AAi?$AAn?$AAt?$AAZ?$AAe?$AAr?$AAo?$AA?3?$AA?3@|
  01abc		 |$M38576|

			 ENDP  ; |?ResetEndpoint@BulEndpointZero@@UAAKXZ|, BulEndpointZero::ResetEndpoint

	EXPORT	|??_C@_1FO@PFPCHJDN@?$AAb?$AAu?$AAl?$AAv?$AAe?$AAr?$AAd?$AAe?$AA_?$AAu?$AAs?$AAb?$AAf?$AAn?$AA?$CB?$AAB?$AAu?$AAl?$AAE?$AAn?$AAd?$AAp?$AAo?$AAi?$AAn?$AAt?$AAZ?$AAe?$AAr?$AAo?$AA?3?$AA?3@| [ DATA ] ; `string'
	EXPORT	|?IssueTransfer@BulEndpointZero@@UAAKPAU_STransfer@@@Z| ; BulEndpointZero::IssueTransfer

  00080			 AREA	 |.pdata|, PDATA
|$T38599| DCD	|$LN19@IssueTrans@2|
	DCD	0x40009804

  00000			 AREA	 |.rdata|, DATA, READONLY
|??_C@_1FO@PFPCHJDN@?$AAb?$AAu?$AAl?$AAv?$AAe?$AAr?$AAd?$AAe?$AA_?$AAu?$AAs?$AAb?$AAf?$AAn?$AA?$CB?$AAB?$AAu?$AAl?$AAE?$AAn?$AAd?$AAp?$AAo?$AAi?$AAn?$AAt?$AAZ?$AAe?$AAr?$AAo?$AA?3?$AA?3@| DCB "b"
	DCB	0x0, "u", 0x0, "l", 0x0, "v", 0x0, "e", 0x0, "r", 0x0, "d"
	DCB	0x0, "e", 0x0, "_", 0x0, "u", 0x0, "s", 0x0, "b", 0x0, "f"
	DCB	0x0, "n", 0x0, "!", 0x0, "B", 0x0, "u", 0x0, "l", 0x0, "E"
	DCB	0x0, "n", 0x0, "d", 0x0, "p", 0x0, "o", 0x0, "i", 0x0, "n"
	DCB	0x0, "t", 0x0, "Z", 0x0, "e", 0x0, "r", 0x0, "o", 0x0, ":"
	DCB	0x0, ":", 0x0, "I", 0x0, "s", 0x0, "s", 0x0, "u", 0x0, "e"
	DCB	0x0, "T", 0x0, "r", 0x0, "a", 0x0, "n", 0x0, "s", 0x0, "f"
	DCB	0x0, "e", 0x0, "r", 0x0, ":", 0x0, 0x0, 0x0 ; `string'
; Function compile flags: /Odtp

  01abc			 AREA	 |.text|, CODE, ARM

  01abc		 |?IssueTransfer@BulEndpointZero@@UAAKPAU_STransfer@@@Z| PROC ; BulEndpointZero::IssueTransfer

; 331  : {   

  01abc		 |$LN19@IssueTrans@2|
  01abc	e1a0c00d	 mov         r12, sp
  01ac0	e92d0003	 stmdb       sp!, {r0, r1}
  01ac4	e92d5000	 stmdb       sp!, {r12, lr}
  01ac8	e24dd024	 sub         sp, sp, #0x24
  01acc		 |$M38596|

; 332  :     Lock();

  01acc	e59d302c	 ldr         r3, [sp, #0x2C]
  01ad0	e2830008	 add         r0, r3, #8
  01ad4	eb000000	 bl          |?Lock@CLockObject@@QAAXXZ|

; 333  :     SETFNAME();

  01ad8	e59f3238	 ldr         r3, [pc, #0x238]
  01adc	e58d3004	 str         r3, [sp, #4]

; 334  :     FUNCTION_ENTER_MSG();

  01ae0	e59f3228	 ldr         r3, [pc, #0x228]
  01ae4	e5933440	 ldr         r3, [r3, #0x440]
  01ae8	e3130a01	 tst         r3, #1, 20
  01aec	0a00000d	 beq         |$LN9@IssueTrans@2|
  01af0	e59f3218	 ldr         r3, [pc, #0x218]
  01af4	e5933440	 ldr         r3, [r3, #0x440]
  01af8	e3130801	 tst         r3, #1, 16
  01afc	0a000003	 beq         |$LN7@IssueTrans@2|
  01b00	e59d1004	 ldr         r1, [sp, #4]
  01b04	e59f0208	 ldr         r0, [pc, #0x208]
  01b08	eb000000	 bl          CeLogMsg
  01b0c	ea000002	 b           |$LN8@IssueTrans@2|
  01b10		 |$LN7@IssueTrans@2|
  01b10	e59d1004	 ldr         r1, [sp, #4]
  01b14	e59f01f8	 ldr         r0, [pc, #0x1F8]
  01b18	eb000000	 bl          NKDbgPrintfW
  01b1c		 |$LN8@IssueTrans@2|
  01b1c	e3a03001	 mov         r3, #1
  01b20	e58d3014	 str         r3, [sp, #0x14]
  01b24	ea000001	 b           |$LN10@IssueTrans@2|
  01b28		 |$LN9@IssueTrans@2|
  01b28	e3a03000	 mov         r3, #0
  01b2c	e58d3014	 str         r3, [sp, #0x14]
  01b30		 |$LN10@IssueTrans@2|

; 335  :     DWORD dwReturn = ERROR_SUCCESS;

  01b30	e3a03000	 mov         r3, #0
  01b34	e58d3000	 str         r3, [sp]

; 336  :     if (pTransfer!=NULL && pTransfer->pvBuffer!=NULL && m_pCurTransfer == NULL) { // If it is valid.                

  01b38	e59d3030	 ldr         r3, [sp, #0x30]
  01b3c	e3530000	 cmp         r3, #0
  01b40	0a000052	 beq         |$LN4@IssueTrans@2|
  01b44	e59d3030	 ldr         r3, [sp, #0x30]
  01b48	e2833004	 add         r3, r3, #4
  01b4c	e5933000	 ldr         r3, [r3]
  01b50	e3530000	 cmp         r3, #0
  01b54	0a00004d	 beq         |$LN4@IssueTrans@2|
  01b58	e59d302c	 ldr         r3, [sp, #0x2C]
  01b5c	e2833034	 add         r3, r3, #0x34
  01b60	e5933000	 ldr         r3, [r3]
  01b64	e3530000	 cmp         r3, #0
  01b68	1a000048	 bne         |$LN4@IssueTrans@2|

; 337  :         m_pCurTransfer = pTransfer;

  01b6c	e59d302c	 ldr         r3, [sp, #0x2C]
  01b70	e2832034	 add         r2, r3, #0x34
  01b74	e59d3030	 ldr         r3, [sp, #0x30]
  01b78	e5823000	 str         r3, [r2]

; 338  :         m_pCurTransfer->cbTransferred = 0;

  01b7c	e59d302c	 ldr         r3, [sp, #0x2C]
  01b80	e2833034	 add         r3, r3, #0x34
  01b84	e5933000	 ldr         r3, [r3]
  01b88	e2832010	 add         r2, r3, #0x10
  01b8c	e3a03000	 mov         r3, #0
  01b90	e5823000	 str         r3, [r2]

; 339  :         m_pCurTransfer->pvPddData = (PVOID) m_dwEndpointIndex;

  01b94	e59d302c	 ldr         r3, [sp, #0x2C]
  01b98	e2831020	 add         r1, r3, #0x20
  01b9c	e59d302c	 ldr         r3, [sp, #0x2C]
  01ba0	e2833034	 add         r3, r3, #0x34
  01ba4	e5933000	 ldr         r3, [r3]
  01ba8	e2832018	 add         r2, r3, #0x18
  01bac	e5913000	 ldr         r3, [r1]
  01bb0	e5823000	 str         r3, [r2]

; 340  :         
; 341  :         UDCCSR udccsr;
; 342  :         udccsr.ulValue = ReadControlStatusRegister();

  01bb4	e59d002c	 ldr         r0, [sp, #0x2C]
  01bb8	eb000000	 bl          |?ReadControlStatusRegister@BulEndpoint@@QAAKXZ|
  01bbc	e58d0018	 str         r0, [sp, #0x18]
  01bc0	e59d3018	 ldr         r3, [sp, #0x18]
  01bc4	e58d3008	 str         r3, [sp, #8]

; 343  :         udccsr.ep0bit.FST = 0; //

  01bc8	e59d2008	 ldr         r2, [sp, #8]
  01bcc	e3e03020	 mvn         r3, #0x20
  01bd0	e0023003	 and         r3, r2, r3
  01bd4	e58d3008	 str         r3, [sp, #8]

; 344  :         m_pCurTransfer->cbTransferred = 0;

  01bd8	e59d302c	 ldr         r3, [sp, #0x2C]
  01bdc	e2833034	 add         r3, r3, #0x34
  01be0	e5933000	 ldr         r3, [r3]
  01be4	e2832010	 add         r2, r3, #0x10
  01be8	e3a03000	 mov         r3, #0
  01bec	e5823000	 str         r3, [r2]

; 345  :         m_fZeroPacket = (m_pCurTransfer->cbBuffer== 0 || m_pCurTransfer->pvBuffer== 0);

  01bf0	e59d302c	 ldr         r3, [sp, #0x2C]
  01bf4	e2833034	 add         r3, r3, #0x34
  01bf8	e5933000	 ldr         r3, [r3]
  01bfc	e283300c	 add         r3, r3, #0xC
  01c00	e5933000	 ldr         r3, [r3]
  01c04	e3530000	 cmp         r3, #0
  01c08	0a000009	 beq         |$LN11@IssueTrans@2|
  01c0c	e59d302c	 ldr         r3, [sp, #0x2C]
  01c10	e2833034	 add         r3, r3, #0x34
  01c14	e5933000	 ldr         r3, [r3]
  01c18	e2833004	 add         r3, r3, #4
  01c1c	e5933000	 ldr         r3, [r3]
  01c20	e3530000	 cmp         r3, #0
  01c24	0a000002	 beq         |$LN11@IssueTrans@2|
  01c28	e3a03000	 mov         r3, #0
  01c2c	e58d301c	 str         r3, [sp, #0x1C]
  01c30	ea000001	 b           |$LN12@IssueTrans@2|
  01c34		 |$LN11@IssueTrans@2|
  01c34	e3a03001	 mov         r3, #1
  01c38	e58d301c	 str         r3, [sp, #0x1C]
  01c3c		 |$LN12@IssueTrans@2|
  01c3c	e59d302c	 ldr         r3, [sp, #0x2C]
  01c40	e2832038	 add         r2, r3, #0x38
  01c44	e59d301c	 ldr         r3, [sp, #0x1C]
  01c48	e5823000	 str         r3, [r2]

; 346  : 
; 347  :         if (dwReturn == ERROR_SUCCESS) {

  01c4c	e59d3000	 ldr         r3, [sp]
  01c50	e3530000	 cmp         r3, #0
  01c54	1a000008	 bne         |$LN3@IssueTrans@2|

; 348  :             m_pUsbDevice->EnableEndpointInterrupt(m_dwEndpointIndex,TRUE);

  01c58	e3a02001	 mov         r2, #1
  01c5c	e59d302c	 ldr         r3, [sp, #0x2C]
  01c60	e2833020	 add         r3, r3, #0x20
  01c64	e5931000	 ldr         r1, [r3]
  01c68	e59d302c	 ldr         r3, [sp, #0x2C]
  01c6c	e283301c	 add         r3, r3, #0x1C
  01c70	e5930000	 ldr         r0, [r3]
  01c74	eb000000	 bl          |?EnableEndpointInterrupt@BulUsbDevice@@QAAHKH@Z|

; 349  :         }
; 350  :         else {

  01c78	ea000003	 b           |$LN2@IssueTrans@2|
  01c7c		 |$LN3@IssueTrans@2|

; 351  :             // We no long handle this because of return error.
; 352  :             m_pCurTransfer = NULL;

  01c7c	e59d302c	 ldr         r3, [sp, #0x2C]
  01c80	e2832034	 add         r2, r3, #0x34
  01c84	e3a03000	 mov         r3, #0
  01c88	e5823000	 str         r3, [r2]
  01c8c		 |$LN2@IssueTrans@2|

; 353  :         }
; 354  :     }
; 355  :     else 

  01c8c	ea000001	 b           |$LN1@IssueTrans@2|
  01c90		 |$LN4@IssueTrans@2|

; 356  :         dwReturn = ERROR_INVALID_DATA;

  01c90	e3a0300d	 mov         r3, #0xD
  01c94	e58d3000	 str         r3, [sp]
  01c98		 |$LN1@IssueTrans@2|

; 357  :     FUNCTION_LEAVE_MSG();

  01c98	e59f3070	 ldr         r3, [pc, #0x70]
  01c9c	e5933440	 ldr         r3, [r3, #0x440]
  01ca0	e3130a01	 tst         r3, #1, 20
  01ca4	0a00000d	 beq         |$LN15@IssueTrans@2|
  01ca8	e59f3060	 ldr         r3, [pc, #0x60]
  01cac	e5933440	 ldr         r3, [r3, #0x440]
  01cb0	e3130801	 tst         r3, #1, 16
  01cb4	0a000003	 beq         |$LN13@IssueTrans@2|
  01cb8	e59d1004	 ldr         r1, [sp, #4]
  01cbc	e59f0048	 ldr         r0, [pc, #0x48]
  01cc0	eb000000	 bl          CeLogMsg
  01cc4	ea000002	 b           |$LN14@IssueTrans@2|
  01cc8		 |$LN13@IssueTrans@2|
  01cc8	e59d1004	 ldr         r1, [sp, #4]
  01ccc	e59f0038	 ldr         r0, [pc, #0x38]
  01cd0	eb000000	 bl          NKDbgPrintfW
  01cd4		 |$LN14@IssueTrans@2|
  01cd4	e3a03001	 mov         r3, #1
  01cd8	e58d3020	 str         r3, [sp, #0x20]
  01cdc	ea000001	 b           |$LN16@IssueTrans@2|
  01ce0		 |$LN15@IssueTrans@2|
  01ce0	e3a03000	 mov         r3, #0
  01ce4	e58d3020	 str         r3, [sp, #0x20]
  01ce8		 |$LN16@IssueTrans@2|

; 358  :     Unlock();

  01ce8	e59d302c	 ldr         r3, [sp, #0x2C]
  01cec	e2830008	 add         r0, r3, #8
  01cf0	eb000000	 bl          |?Unlock@CLockObject@@QAAXXZ|

; 359  :     return dwReturn;

  01cf4	e59d3000	 ldr         r3, [sp]
  01cf8	e58d3010	 str         r3, [sp, #0x10]

; 360  : }

  01cfc	e59d0010	 ldr         r0, [sp, #0x10]
  01d00	e28dd024	 add         sp, sp, #0x24
  01d04	e89d6000	 ldmia       sp, {sp, lr}
  01d08	e12fff1e	 bx          lr
  01d0c		 |$LN20@IssueTrans@2|
  01d0c		 |$LN21@IssueTrans@2|
  01d0c	00000000	 DCD         |??_C@_1BA@PLOOFDPK@?$AA?$CF?$AAs?$AA?5?$AA?9?$AA?9?$AA?$AN?$AA?6?$AA?$AA@|
  01d10		 |$LN22@IssueTrans@2|
  01d10	00000000	 DCD         |dpCurSettings|
  01d14		 |$LN23@IssueTrans@2|
  01d14	00000000	 DCD         |??_C@_1BA@DAJPCKDK@?$AA?$CF?$AAs?$AA?5?$AA?$CL?$AA?$CL?$AA?$AN?$AA?6?$AA?$AA@|
  01d18		 |$LN24@IssueTrans@2|
  01d18	00000000	 DCD         |??_C@_1FO@PFPCHJDN@?$AAb?$AAu?$AAl?$AAv?$AAe?$AAr?$AAd?$AAe?$AA_?$AAu?$AAs?$AAb?$AAf?$AAn?$AA?$CB?$AAB?$AAu?$AAl?$AAE?$AAn?$AAd?$AAp?$AAo?$AAi?$AAn?$AAt?$AAZ?$AAe?$AAr?$AAo?$AA?3?$AA?3@|
  01d1c		 |$M38597|

			 ENDP  ; |?IssueTransfer@BulEndpointZero@@UAAKPAU_STransfer@@@Z|, BulEndpointZero::IssueTransfer

	EXPORT	|??_C@_1BK@JPHHFPMM@?$AA?$CF?$AAs?$AA?5?$AAS?$AAk?$AAi?$AAp?$AAp?$AAe?$AAd?$AA?$AN?$AA?6?$AA?$AA@| [ DATA ] ; `string'
	EXPORT	|??_C@_1BM@GKHGHKDF@?$AA?$CF?$AAs?$AA?5?$AAC?$AAo?$AAm?$AAp?$AAl?$AAe?$AAt?$AAe?$AA?$AN?$AA?6?$AA?$AA@| [ DATA ] ; `string'
	EXPORT	|??_C@_1HI@DIFPFNHF@?$AAb?$AAu?$AAl?$AAv?$AAe?$AAr?$AAd?$AAe?$AA_?$AAu?$AAs?$AAb?$AAf?$AAn?$AA?$CB?$AAB?$AAu?$AAl?$AAE?$AAn?$AAd?$AAp?$AAo?$AAi?$AAn?$AAt?$AAZ?$AAe?$AAr?$AAo?$AA?3?$AA?3@| [ DATA ] ; `string'
	EXPORT	|?SendControlStatusHandshake@BulEndpointZero@@UAAKXZ| ; BulEndpointZero::SendControlStatusHandshake

  00088			 AREA	 |.pdata|, PDATA
|$T38620| DCD	|$LN22@SendContro|
	DCD	0x4000c304

  00000			 AREA	 |.rdata|, DATA, READONLY
|??_C@_1BK@JPHHFPMM@?$AA?$CF?$AAs?$AA?5?$AAS?$AAk?$AAi?$AAp?$AAp?$AAe?$AAd?$AA?$AN?$AA?6?$AA?$AA@| DCB "%"
	DCB	0x0, "s", 0x0, " ", 0x0, "S", 0x0, "k", 0x0, "i", 0x0, "p"
	DCB	0x0, "p", 0x0, "e", 0x0, "d", 0x0, 0xd, 0x0, 0xa, 0x0, 0x0
	DCB	0x0					; `string'

  00000			 AREA	 |.rdata|, DATA, READONLY
|??_C@_1BM@GKHGHKDF@?$AA?$CF?$AAs?$AA?5?$AAC?$AAo?$AAm?$AAp?$AAl?$AAe?$AAt?$AAe?$AA?$AN?$AA?6?$AA?$AA@| DCB "%"
	DCB	0x0, "s", 0x0, " ", 0x0, "C", 0x0, "o", 0x0, "m", 0x0, "p"
	DCB	0x0, "l", 0x0, "e", 0x0, "t", 0x0, "e", 0x0, 0xd, 0x0, 0xa
	DCB	0x0, 0x0, 0x0				; `string'

  00000			 AREA	 |.rdata|, DATA, READONLY
|??_C@_1HI@DIFPFNHF@?$AAb?$AAu?$AAl?$AAv?$AAe?$AAr?$AAd?$AAe?$AA_?$AAu?$AAs?$AAb?$AAf?$AAn?$AA?$CB?$AAB?$AAu?$AAl?$AAE?$AAn?$AAd?$AAp?$AAo?$AAi?$AAn?$AAt?$AAZ?$AAe?$AAr?$AAo?$AA?3?$AA?3@| DCB "b"
	DCB	0x0, "u", 0x0, "l", 0x0, "v", 0x0, "e", 0x0, "r", 0x0, "d"
	DCB	0x0, "e", 0x0, "_", 0x0, "u", 0x0, "s", 0x0, "b", 0x0, "f"
	DCB	0x0, "n", 0x0, "!", 0x0, "B", 0x0, "u", 0x0, "l", 0x0, "E"
	DCB	0x0, "n", 0x0, "d", 0x0, "p", 0x0, "o", 0x0, "i", 0x0, "n"
	DCB	0x0, "t", 0x0, "Z", 0x0, "e", 0x0, "r", 0x0, "o", 0x0, ":"
	DCB	0x0, ":", 0x0, "S", 0x0, "e", 0x0, "n", 0x0, "d", 0x0, "C"
	DCB	0x0, "o", 0x0, "n", 0x0, "t", 0x0, "r", 0x0, "o", 0x0, "l"
	DCB	0x0, "S", 0x0, "t", 0x0, "a", 0x0, "t", 0x0, "u", 0x0, "s"
	DCB	0x0, "H", 0x0, "a", 0x0, "n", 0x0, "d", 0x0, "s", 0x0, "h"
	DCB	0x0, "a", 0x0, "k", 0x0, "e", 0x0, ":", 0x0, 0x0, 0x0 ; `string'
; Function compile flags: /Odtp

  01d1c			 AREA	 |.text|, CODE, ARM

  01d1c		 |?SendControlStatusHandshake@BulEndpointZero@@UAAKXZ| PROC ; BulEndpointZero::SendControlStatusHandshake

; 362  : {

  01d1c		 |$LN22@SendContro|
  01d1c	e1a0c00d	 mov         r12, sp
  01d20	e92d0001	 stmdb       sp!, {r0}
  01d24	e92d5000	 stmdb       sp!, {r12, lr}
  01d28	e24dd024	 sub         sp, sp, #0x24
  01d2c		 |$M38617|

; 363  :     Lock();

  01d2c	e59d302c	 ldr         r3, [sp, #0x2C]
  01d30	e2830008	 add         r0, r3, #8
  01d34	eb000000	 bl          |?Lock@CLockObject@@QAAXXZ|

; 364  :     SETFNAME();

  01d38	e59f32e4	 ldr         r3, [pc, #0x2E4]
  01d3c	e58d3004	 str         r3, [sp, #4]

; 365  :     DWORD dwReturn = ERROR_SUCCESS ;

  01d40	e3a03000	 mov         r3, #0
  01d44	e58d3000	 str         r3, [sp]

; 366  :     if (m_pCurTransfer == NULL && m_bNeedAck) { // No Transfer.

  01d48	e59d302c	 ldr         r3, [sp, #0x2C]
  01d4c	e2833034	 add         r3, r3, #0x34
  01d50	e5933000	 ldr         r3, [r3]
  01d54	e3530000	 cmp         r3, #0
  01d58	1a000091	 bne         |$LN7@SendContro|
  01d5c	e59d302c	 ldr         r3, [sp, #0x2C]
  01d60	e2833040	 add         r3, r3, #0x40
  01d64	e5933000	 ldr         r3, [r3]
  01d68	e3530000	 cmp         r3, #0
  01d6c	0a00008c	 beq         |$LN7@SendContro|

; 367  :         m_pUsbDevice->EnableEndpointInterrupt(m_dwEndpointIndex,TRUE);

  01d70	e3a02001	 mov         r2, #1
  01d74	e59d302c	 ldr         r3, [sp, #0x2C]
  01d78	e2833020	 add         r3, r3, #0x20
  01d7c	e5931000	 ldr         r1, [r3]
  01d80	e59d302c	 ldr         r3, [sp, #0x2C]
  01d84	e283301c	 add         r3, r3, #0x1C
  01d88	e5930000	 ldr         r0, [r3]
  01d8c	eb000000	 bl          |?EnableEndpointInterrupt@BulUsbDevice@@QAAHKH@Z|

; 368  :         if (!m_bSetupDirIn) {

  01d90	e59d302c	 ldr         r3, [sp, #0x2C]
  01d94	e2833044	 add         r3, r3, #0x44
  01d98	e5933000	 ldr         r3, [r3]
  01d9c	e3530000	 cmp         r3, #0
  01da0	1a00001a	 bne         |$LN6@SendContro|

; 369  :             UDCCSR udccsr;
; 370  :             udccsr.ulValue = ReadControlStatusRegister();

  01da4	e59d002c	 ldr         r0, [sp, #0x2C]
  01da8	eb000000	 bl          |?ReadControlStatusRegister@BulEndpoint@@QAAKXZ|
  01dac	e58d0014	 str         r0, [sp, #0x14]
  01db0	e59d3014	 ldr         r3, [sp, #0x14]
  01db4	e58d3008	 str         r3, [sp, #8]

; 371  :             udccsr.ep0bit.SA = 0 ;

  01db8	e59d2008	 ldr         r2, [sp, #8]
  01dbc	e3e03080	 mvn         r3, #0x80
  01dc0	e0023003	 and         r3, r2, r3
  01dc4	e58d3008	 str         r3, [sp, #8]

; 372  :             udccsr.ep0bit.FST = 0; //

  01dc8	e59d2008	 ldr         r2, [sp, #8]
  01dcc	e3e03020	 mvn         r3, #0x20
  01dd0	e0023003	 and         r3, r2, r3
  01dd4	e58d3008	 str         r3, [sp, #8]

; 373  :             udccsr.ep0bit.SST = 0;

  01dd8	e59d2008	 ldr         r2, [sp, #8]
  01ddc	e3e03010	 mvn         r3, #0x10
  01de0	e0023003	 and         r3, r2, r3
  01de4	e58d3008	 str         r3, [sp, #8]

; 374  :             udccsr.ep0bit.IPR = 1; // Sent Zero Packet.

  01de8	e59d3008	 ldr         r3, [sp, #8]
  01dec	e3833002	 orr         r3, r3, #2
  01df0	e58d3008	 str         r3, [sp, #8]

; 375  :             udccsr.ep0bit.OPC = 0;

  01df4	e59d2008	 ldr         r2, [sp, #8]
  01df8	e3e03001	 mvn         r3, #1
  01dfc	e0023003	 and         r3, r2, r3
  01e00	e58d3008	 str         r3, [sp, #8]

; 376  :             WriteControlStatusRegister(udccsr.ulValue);

  01e04	e59d1008	 ldr         r1, [sp, #8]
  01e08	e59d002c	 ldr         r0, [sp, #0x2C]
  01e0c	eb000000	 bl          |?WriteControlStatusRegister@BulEndpoint@@QAAXK@Z|
  01e10		 |$LN6@SendContro|

; 377  :         }
; 378  :         m_bNeedAck = FALSE;

  01e10	e59d302c	 ldr         r3, [sp, #0x2C]
  01e14	e2832040	 add         r2, r3, #0x40
  01e18	e3a03000	 mov         r3, #0
  01e1c	e5823000	 str         r3, [r2]

; 379  :         if (m_fBackedudr) {

  01e20	e59d302c	 ldr         r3, [sp, #0x2C]
  01e24	e283305c	 add         r3, r3, #0x5C
  01e28	e5933000	 ldr         r3, [r3]
  01e2c	e3530000	 cmp         r3, #0
  01e30	0a000034	 beq         |$LN5@SendContro|

; 380  :             m_bNeedAck = TRUE;

  01e34	e59d302c	 ldr         r3, [sp, #0x2C]
  01e38	e2832040	 add         r2, r3, #0x40
  01e3c	e3a03001	 mov         r3, #1
  01e40	e5823000	 str         r3, [r2]

; 381  :             m_bSetupDirIn = ((m_backup_udr.bmRequestType & USB_REQUEST_DEVICE_TO_HOST)!=0?TRUE:FALSE);

  01e44	e59d302c	 ldr         r3, [sp, #0x2C]
  01e48	e283304c	 add         r3, r3, #0x4C
  01e4c	e5d33000	 ldrb        r3, [r3]
  01e50	e3130080	 tst         r3, #0x80
  01e54	0a000002	 beq         |$LN10@SendContro|
  01e58	e3a03001	 mov         r3, #1
  01e5c	e58d3018	 str         r3, [sp, #0x18]
  01e60	ea000001	 b           |$LN11@SendContro|
  01e64		 |$LN10@SendContro|
  01e64	e3a03000	 mov         r3, #0
  01e68	e58d3018	 str         r3, [sp, #0x18]
  01e6c		 |$LN11@SendContro|
  01e6c	e59d302c	 ldr         r3, [sp, #0x2C]
  01e70	e2832044	 add         r2, r3, #0x44
  01e74	e59d3018	 ldr         r3, [sp, #0x18]
  01e78	e5823000	 str         r3, [r2]

; 382  :             m_fZeroPacket = FALSE;

  01e7c	e59d302c	 ldr         r3, [sp, #0x2C]
  01e80	e2832038	 add         r2, r3, #0x38
  01e84	e3a03000	 mov         r3, #0
  01e88	e5823000	 str         r3, [r2]

; 383  :             m_fBackedudr = FALSE;

  01e8c	e59d302c	 ldr         r3, [sp, #0x2C]
  01e90	e283205c	 add         r2, r3, #0x5C
  01e94	e3a03000	 mov         r3, #0
  01e98	e5823000	 str         r3, [r2]

; 384  :             m_cur_udr = m_backup_udr ;

  01e9c	e59d302c	 ldr         r3, [sp, #0x2C]
  01ea0	e283104c	 add         r1, r3, #0x4C
  01ea4	e59d302c	 ldr         r3, [sp, #0x2C]
  01ea8	e2830054	 add         r0, r3, #0x54
  01eac	e3a02008	 mov         r2, #8
  01eb0	eb000000	 bl          memcpy

; 385  :             m_pUsbDevice->DeviceNotification(UFN_MSG_SETUP_PACKET, (DWORD) &m_backup_udr);

  01eb4	e59d302c	 ldr         r3, [sp, #0x2C]
  01eb8	e283204c	 add         r2, r3, #0x4C
  01ebc	e3a01004	 mov         r1, #4
  01ec0	e59d302c	 ldr         r3, [sp, #0x2C]
  01ec4	e283301c	 add         r3, r3, #0x1C
  01ec8	e5930000	 ldr         r0, [r3]
  01ecc	eb000000	 bl          |?DeviceNotification@BulUsbDevice@@QAAHKK@Z|

; 386  :             if (!m_fInIST) {

  01ed0	e59d302c	 ldr         r3, [sp, #0x2C]
  01ed4	e2833048	 add         r3, r3, #0x48
  01ed8	e5933000	 ldr         r3, [r3]
  01edc	e3530000	 cmp         r3, #0
  01ee0	1a000007	 bne         |$LN4@SendContro|

; 387  :                 IST(EPINT_PACKET_COMPLETE);

  01ee4	e3a01001	 mov         r1, #1
  01ee8	e59d302c	 ldr         r3, [sp, #0x2C]
  01eec	e5933000	 ldr         r3, [r3]
  01ef0	e2833030	 add         r3, r3, #0x30
  01ef4	e59d002c	 ldr         r0, [sp, #0x2C]
  01ef8	e5933000	 ldr         r3, [r3]
  01efc	e1a0e00f	 mov         lr, pc
  01f00	e12fff13	 bx          r3
  01f04		 |$LN4@SendContro|

; 388  :             }
; 389  :         }

  01f04	ea000011	 b           |$LN3@SendContro|
  01f08		 |$LN5@SendContro|

; 390  :         else if (m_bSetupDirIn && !m_fInIST )

  01f08	e59d302c	 ldr         r3, [sp, #0x2C]
  01f0c	e2833044	 add         r3, r3, #0x44
  01f10	e5933000	 ldr         r3, [r3]
  01f14	e3530000	 cmp         r3, #0
  01f18	0a00000c	 beq         |$LN2@SendContro|
  01f1c	e59d302c	 ldr         r3, [sp, #0x2C]
  01f20	e2833048	 add         r3, r3, #0x48
  01f24	e5933000	 ldr         r3, [r3]
  01f28	e3530000	 cmp         r3, #0
  01f2c	1a000007	 bne         |$LN2@SendContro|

; 391  :             IST(EPINT_PACKET_COMPLETE);

  01f30	e3a01001	 mov         r1, #1
  01f34	e59d302c	 ldr         r3, [sp, #0x2C]
  01f38	e5933000	 ldr         r3, [r3]
  01f3c	e2833030	 add         r3, r3, #0x30
  01f40	e59d002c	 ldr         r0, [sp, #0x2C]
  01f44	e5933000	 ldr         r3, [r3]
  01f48	e1a0e00f	 mov         lr, pc
  01f4c	e12fff13	 bx          r3
  01f50		 |$LN2@SendContro|
  01f50		 |$LN3@SendContro|

; 392  :         DEBUGMSG(ZONE_TRANSFER, (_T("%s Complete\r\n"),pszFname));

  01f50	e59f30c4	 ldr         r3, [pc, #0xC4]
  01f54	e5933440	 ldr         r3, [r3, #0x440]
  01f58	e3130008	 tst         r3, #8
  01f5c	0a00000d	 beq         |$LN14@SendContro|
  01f60	e59f30b4	 ldr         r3, [pc, #0xB4]
  01f64	e5933440	 ldr         r3, [r3, #0x440]
  01f68	e3130801	 tst         r3, #1, 16
  01f6c	0a000003	 beq         |$LN12@SendContro|
  01f70	e59d1004	 ldr         r1, [sp, #4]
  01f74	e59f00a4	 ldr         r0, [pc, #0xA4]
  01f78	eb000000	 bl          CeLogMsg
  01f7c	ea000002	 b           |$LN13@SendContro|
  01f80		 |$LN12@SendContro|
  01f80	e59d1004	 ldr         r1, [sp, #4]
  01f84	e59f0094	 ldr         r0, [pc, #0x94]
  01f88	eb000000	 bl          NKDbgPrintfW
  01f8c		 |$LN13@SendContro|
  01f8c	e3a03001	 mov         r3, #1
  01f90	e58d301c	 str         r3, [sp, #0x1C]
  01f94	ea000001	 b           |$LN15@SendContro|
  01f98		 |$LN14@SendContro|
  01f98	e3a03000	 mov         r3, #0
  01f9c	e58d301c	 str         r3, [sp, #0x1C]
  01fa0		 |$LN15@SendContro|

; 393  :     }
; 394  :     else

  01fa0	ea000013	 b           |$LN1@SendContro|
  01fa4		 |$LN7@SendContro|

; 395  :         DEBUGMSG(ZONE_TRANSFER, (_T("%s Skipped\r\n"),pszFname));

  01fa4	e59f3070	 ldr         r3, [pc, #0x70]
  01fa8	e5933440	 ldr         r3, [r3, #0x440]
  01fac	e3130008	 tst         r3, #8
  01fb0	0a00000d	 beq         |$LN18@SendContro|
  01fb4	e59f3060	 ldr         r3, [pc, #0x60]
  01fb8	e5933440	 ldr         r3, [r3, #0x440]
  01fbc	e3130801	 tst         r3, #1, 16
  01fc0	0a000003	 beq         |$LN16@SendContro|
  01fc4	e59d1004	 ldr         r1, [sp, #4]
  01fc8	e59f0048	 ldr         r0, [pc, #0x48]
  01fcc	eb000000	 bl          CeLogMsg
  01fd0	ea000002	 b           |$LN17@SendContro|
  01fd4		 |$LN16@SendContro|
  01fd4	e59d1004	 ldr         r1, [sp, #4]
  01fd8	e59f0038	 ldr         r0, [pc, #0x38]
  01fdc	eb000000	 bl          NKDbgPrintfW
  01fe0		 |$LN17@SendContro|
  01fe0	e3a03001	 mov         r3, #1
  01fe4	e58d3020	 str         r3, [sp, #0x20]
  01fe8	ea000001	 b           |$LN19@SendContro|
  01fec		 |$LN18@SendContro|
  01fec	e3a03000	 mov         r3, #0
  01ff0	e58d3020	 str         r3, [sp, #0x20]
  01ff4		 |$LN19@SendContro|
  01ff4		 |$LN1@SendContro|

; 396  :     Unlock();

  01ff4	e59d302c	 ldr         r3, [sp, #0x2C]
  01ff8	e2830008	 add         r0, r3, #8
  01ffc	eb000000	 bl          |?Unlock@CLockObject@@QAAXXZ|

; 397  :     return ERROR_SUCCESS;

  02000	e3a03000	 mov         r3, #0
  02004	e58d3010	 str         r3, [sp, #0x10]

; 398  : }

  02008	e59d0010	 ldr         r0, [sp, #0x10]
  0200c	e28dd024	 add         sp, sp, #0x24
  02010	e89d6000	 ldmia       sp, {sp, lr}
  02014	e12fff1e	 bx          lr
  02018		 |$LN23@SendContro|
  02018		 |$LN24@SendContro|
  02018	00000000	 DCD         |??_C@_1BK@JPHHFPMM@?$AA?$CF?$AAs?$AA?5?$AAS?$AAk?$AAi?$AAp?$AAp?$AAe?$AAd?$AA?$AN?$AA?6?$AA?$AA@|
  0201c		 |$LN25@SendContro|
  0201c	00000000	 DCD         |dpCurSettings|
  02020		 |$LN26@SendContro|
  02020	00000000	 DCD         |??_C@_1BM@GKHGHKDF@?$AA?$CF?$AAs?$AA?5?$AAC?$AAo?$AAm?$AAp?$AAl?$AAe?$AAt?$AAe?$AA?$AN?$AA?6?$AA?$AA@|
  02024		 |$LN27@SendContro|
  02024	00000000	 DCD         |??_C@_1HI@DIFPFNHF@?$AAb?$AAu?$AAl?$AAv?$AAe?$AAr?$AAd?$AAe?$AA_?$AAu?$AAs?$AAb?$AAf?$AAn?$AA?$CB?$AAB?$AAu?$AAl?$AAE?$AAn?$AAd?$AAp?$AAo?$AAi?$AAn?$AAt?$AAZ?$AAe?$AAr?$AAo?$AA?3?$AA?3@|
  02028		 |$M38618|

			 ENDP  ; |?SendControlStatusHandshake@BulEndpointZero@@UAAKXZ|, BulEndpointZero::SendControlStatusHandshake

	EXPORT	|??_C@_1EE@CKNJLPKA@?$AAS?$AAt?$AAa?$AAl?$AAl?$AA?5?$AAS?$AAe?$AAn?$AAt?$AA?5?$AAo?$AAn?$AA?5?$AAZ?$AAe?$AAr?$AAo?$AA?5?$AAe?$AAn?$AAd?$AAp?$AAo?$AAi?$AAn?$AAt?$AA?5?$AA?$DN?$AA0?$AAx?$AA?$CF@| [ DATA ] ; `string'
	EXPORT	|?IncEp0StallCounter@BulUsbDevice@@QAAXXZ| ; BulUsbDevice::IncEp0StallCounter
	EXPORT	|??_C@_1EA@OEDJODNB@?$AAE?$AAn?$AAd?$AAp?$AAo?$AAi?$AAn?$AAt?$AA?5?$AAZ?$AAe?$AAr?$AAo?$AA?5?$AAD?$AAi?$AAs?$AAa?$AAb?$AAl?$AAe?$AA?5?$AAI?$AAn?$AAt?$AAe?$AAr?$AAr?$AAu?$AAp?$AAt?$AA?$AA@| [ DATA ] ; `string'
	EXPORT	|??_C@_1MA@EIKGFJC@?$AAE?$AAn?$AAd?$AAp?$AAo?$AAi?$AAn?$AAt?$AA?5?$AAZ?$AAe?$AAr?$AAo?$AA?5?$AAS?$AAe?$AAt?$AAu?$AAp?$AA?5?$AAb?$AAm?$AAR?$AAe?$AAq?$AAu?$AAe?$AAs?$AAt?$AAT?$AAy?$AAp@| [ DATA ] ; `string'
	EXPORT	|??_C@_1FC@GPHBKKLB@?$AAE?$AAn?$AAd?$AAp?$AAo?$AAi?$AAn?$AAt?$AA?5?$AAZ?$AAe?$AAr?$AAo?$AA?5?$AAC?$AAu?$AAr?$AAr?$AAe?$AAn?$AAt?$AA?5?$AAT?$AAr?$AAa?$AAn?$AAs?$AAf?$AAe?$AAr?$AA?5?$AAC@| [ DATA ] ; `string'
	EXPORT	|??_C@_1GM@LAGLGKNJ@?$AAE?$AAn?$AAd?$AAp?$AAo?$AAi?$AAn?$AAt?$AA?5?$AAZ?$AAe?$AAr?$AAo?$AA?5?$AAF?$AAA?$AAI?$AAL?$AAE?$AAD?$AA?5?$AAS?$AAE?$AAT?$AAU?$AAP?$AA?5?$AA?5?$AAu?$AAd?$AAc?$AAc@| [ DATA ] ; `string'
	EXPORT	|?IncBadSetupCounter@BulUsbDevice@@QAAXXZ| ; BulUsbDevice::IncBadSetupCounter
	EXPORT	|??_C@_1GA@IKBBCDAB@?$AAE?$AAn?$AAd?$AAp?$AAo?$AAi?$AAn?$AAt?$AA?5?$AAZ?$AAe?$AAr?$AAo?$AA?5?$AAR?$AAe?$AAa?$AAd?$AAC?$AAo?$AAn?$AAt?$AAr?$AAo?$AAl?$AAS?$AAt?$AAa?$AAt?$AAu?$AAs?$AAR@| [ DATA ] ; `string'
	EXPORT	|??_C@_1FA@JCGFFJNI@?$AAF?$AAI?$AAF?$AAO?$AA?5?$AAE?$AAr?$AAr?$AAo?$AAr?$AA?5?$AAo?$AAn?$AA?5?$AAE?$AAn?$AAd?$AAp?$AAo?$AAi?$AAn?$AAt?$AA?5?$AAZ?$AAe?$AAr?$AAo?$AA?5?$AAU?$AAD?$AAC?$AAC@| [ DATA ] ; `string'
	EXPORT	|??_C@_1EK@PHDCNHIP@?$AAb?$AAu?$AAl?$AAv?$AAe?$AAr?$AAd?$AAe?$AA_?$AAu?$AAs?$AAb?$AAf?$AAn?$AA?$CB?$AAB?$AAu?$AAl?$AAE?$AAn?$AAd?$AAp?$AAo?$AAi?$AAn?$AAt?$AAZ?$AAe?$AAr?$AAo?$AA?3?$AA?3@| [ DATA ] ; `string'
	EXPORT	|?IST@BulEndpointZero@@UAAKK@Z|		; BulEndpointZero::IST

  00090			 AREA	 |.pdata|, PDATA
|$T38688| DCD	|$LN83@IST|
	DCD	0x4002f204

  00000			 AREA	 |.rdata|, DATA, READONLY
|??_C@_1EE@CKNJLPKA@?$AAS?$AAt?$AAa?$AAl?$AAl?$AA?5?$AAS?$AAe?$AAn?$AAt?$AA?5?$AAo?$AAn?$AA?5?$AAZ?$AAe?$AAr?$AAo?$AA?5?$AAe?$AAn?$AAd?$AAp?$AAo?$AAi?$AAn?$AAt?$AA?5?$AA?$DN?$AA0?$AAx?$AA?$CF@| DCB "S"
	DCB	0x0, "t", 0x0, "a", 0x0, "l", 0x0, "l", 0x0, " ", 0x0, "S"
	DCB	0x0, "e", 0x0, "n", 0x0, "t", 0x0, " ", 0x0, "o", 0x0, "n"
	DCB	0x0, " ", 0x0, "Z", 0x0, "e", 0x0, "r", 0x0, "o", 0x0, " "
	DCB	0x0, "e", 0x0, "n", 0x0, "d", 0x0, "p", 0x0, "o", 0x0, "i"
	DCB	0x0, "n", 0x0, "t", 0x0, " ", 0x0, "=", 0x0, "0", 0x0, "x"
	DCB	0x0, "%", 0x0, "x", 0x0, 0x0, 0x0	; `string'

  00000			 AREA	 |.rdata|, DATA, READONLY
|??_C@_1EA@OEDJODNB@?$AAE?$AAn?$AAd?$AAp?$AAo?$AAi?$AAn?$AAt?$AA?5?$AAZ?$AAe?$AAr?$AAo?$AA?5?$AAD?$AAi?$AAs?$AAa?$AAb?$AAl?$AAe?$AA?5?$AAI?$AAn?$AAt?$AAe?$AAr?$AAr?$AAu?$AAp?$AAt?$AA?$AA@| DCB "E"
	DCB	0x0, "n", 0x0, "d", 0x0, "p", 0x0, "o", 0x0, "i", 0x0, "n"
	DCB	0x0, "t", 0x0, " ", 0x0, "Z", 0x0, "e", 0x0, "r", 0x0, "o"
	DCB	0x0, " ", 0x0, "D", 0x0, "i", 0x0, "s", 0x0, "a", 0x0, "b"
	DCB	0x0, "l", 0x0, "e", 0x0, " ", 0x0, "I", 0x0, "n", 0x0, "t"
	DCB	0x0, "e", 0x0, "r", 0x0, "r", 0x0, "u", 0x0, "p", 0x0, "t"
	DCB	0x0, 0x0, 0x0				; `string'

  00000			 AREA	 |.rdata|, DATA, READONLY
|??_C@_1MA@EIKGFJC@?$AAE?$AAn?$AAd?$AAp?$AAo?$AAi?$AAn?$AAt?$AA?5?$AAZ?$AAe?$AAr?$AAo?$AA?5?$AAS?$AAe?$AAt?$AAu?$AAp?$AA?5?$AAb?$AAm?$AAR?$AAe?$AAq?$AAu?$AAe?$AAs?$AAt?$AAT?$AAy?$AAp@| DCB "E"
	DCB	0x0, "n", 0x0, "d", 0x0, "p", 0x0, "o", 0x0, "i", 0x0, "n"
	DCB	0x0, "t", 0x0, " ", 0x0, "Z", 0x0, "e", 0x0, "r", 0x0, "o"
	DCB	0x0, " ", 0x0, "S", 0x0, "e", 0x0, "t", 0x0, "u", 0x0, "p"
	DCB	0x0, " ", 0x0, "b", 0x0, "m", 0x0, "R", 0x0, "e", 0x0, "q"
	DCB	0x0, "u", 0x0, "e", 0x0, "s", 0x0, "t", 0x0, "T", 0x0, "y"
	DCB	0x0, "p", 0x0, "e", 0x0, " ", 0x0, "=", 0x0, " ", 0x0, "0"
	DCB	0x0, "x", 0x0, "x", 0x0, "%", 0x0, "x", 0x0, ",", 0x0, " "
	DCB	0x0, "b", 0x0, "R", 0x0, "e", 0x0, "q", 0x0, "u", 0x0, "e"
	DCB	0x0, "s", 0x0, "t", 0x0, "=", 0x0, "0", 0x0, "x", 0x0, "%"
	DCB	0x0, "x", 0x0, ",", 0x0, " ", 0x0, "w", 0x0, "V", 0x0, "a"
	DCB	0x0, "l", 0x0, "u", 0x0, "e", 0x0, "=", 0x0, "0", 0x0, "x"
	DCB	0x0, "%", 0x0, "x", 0x0, ",", 0x0, "w", 0x0, "I", 0x0, "n"
	DCB	0x0, "d", 0x0, "e", 0x0, "x", 0x0, "=", 0x0, "0", 0x0, "x"
	DCB	0x0, "%", 0x0, "x", 0x0, ",", 0x0, "w", 0x0, "L", 0x0, "e"
	DCB	0x0, "n", 0x0, "g", 0x0, "t", 0x0, "h", 0x0, "=", 0x0, "0"
	DCB	0x0, "x", 0x0, "%", 0x0, "x", 0x0, 0xa, 0x0, 0x0, 0x0 ; `string'

  00000			 AREA	 |.rdata|, DATA, READONLY
|??_C@_1FC@GPHBKKLB@?$AAE?$AAn?$AAd?$AAp?$AAo?$AAi?$AAn?$AAt?$AA?5?$AAZ?$AAe?$AAr?$AAo?$AA?5?$AAC?$AAu?$AAr?$AAr?$AAe?$AAn?$AAt?$AA?5?$AAT?$AAr?$AAa?$AAn?$AAs?$AAf?$AAe?$AAr?$AA?5?$AAC@| DCB "E"
	DCB	0x0, "n", 0x0, "d", 0x0, "p", 0x0, "o", 0x0, "i", 0x0, "n"
	DCB	0x0, "t", 0x0, " ", 0x0, "Z", 0x0, "e", 0x0, "r", 0x0, "o"
	DCB	0x0, " ", 0x0, "C", 0x0, "u", 0x0, "r", 0x0, "r", 0x0, "e"
	DCB	0x0, "n", 0x0, "t", 0x0, " ", 0x0, "T", 0x0, "r", 0x0, "a"
	DCB	0x0, "n", 0x0, "s", 0x0, "f", 0x0, "e", 0x0, "r", 0x0, " "
	DCB	0x0, "C", 0x0, "a", 0x0, "n", 0x0, "c", 0x0, "e", 0x0, "l"
	DCB	0x0, "e", 0x0, "d", 0x0, 0xa, 0x0, 0x0, 0x0 ; `string'

  00000			 AREA	 |.rdata|, DATA, READONLY
|??_C@_1GM@LAGLGKNJ@?$AAE?$AAn?$AAd?$AAp?$AAo?$AAi?$AAn?$AAt?$AA?5?$AAZ?$AAe?$AAr?$AAo?$AA?5?$AAF?$AAA?$AAI?$AAL?$AAE?$AAD?$AA?5?$AAS?$AAE?$AAT?$AAU?$AAP?$AA?5?$AA?5?$AAu?$AAd?$AAc?$AAc@| DCB "E"
	DCB	0x0, "n", 0x0, "d", 0x0, "p", 0x0, "o", 0x0, "i", 0x0, "n"
	DCB	0x0, "t", 0x0, " ", 0x0, "Z", 0x0, "e", 0x0, "r", 0x0, "o"
	DCB	0x0, " ", 0x0, "F", 0x0, "A", 0x0, "I", 0x0, "L", 0x0, "E"
	DCB	0x0, "D", 0x0, " ", 0x0, "S", 0x0, "E", 0x0, "T", 0x0, "U"
	DCB	0x0, "P", 0x0, " ", 0x0, " ", 0x0, "u", 0x0, "d", 0x0, "c"
	DCB	0x0, "c", 0x0, "s", 0x0, "r", 0x0, "=", 0x0, "0", 0x0, "x"
	DCB	0x0, "%", 0x0, "x", 0x0, ".", 0x0, " ", 0x0, "S", 0x0, "e"
	DCB	0x0, "n", 0x0, "t", 0x0, " ", 0x0, "S", 0x0, "T", 0x0, "A"
	DCB	0x0, "L", 0x0, "L", 0x0, " ", 0x0, 0xa, 0x0, 0x0, 0x0 ; `string'

  00000			 AREA	 |.rdata|, DATA, READONLY
|??_C@_1GA@IKBBCDAB@?$AAE?$AAn?$AAd?$AAp?$AAo?$AAi?$AAn?$AAt?$AA?5?$AAZ?$AAe?$AAr?$AAo?$AA?5?$AAR?$AAe?$AAa?$AAd?$AAC?$AAo?$AAn?$AAt?$AAr?$AAo?$AAl?$AAS?$AAt?$AAa?$AAt?$AAu?$AAs?$AAR@| DCB "E"
	DCB	0x0, "n", 0x0, "d", 0x0, "p", 0x0, "o", 0x0, "i", 0x0, "n"
	DCB	0x0, "t", 0x0, " ", 0x0, "Z", 0x0, "e", 0x0, "r", 0x0, "o"
	DCB	0x0, " ", 0x0, "R", 0x0, "e", 0x0, "a", 0x0, "d", 0x0, "C"
	DCB	0x0, "o", 0x0, "n", 0x0, "t", 0x0, "r", 0x0, "o", 0x0, "l"
	DCB	0x0, "S", 0x0, "t", 0x0, "a", 0x0, "t", 0x0, "u", 0x0, "s"
	DCB	0x0, "R", 0x0, "e", 0x0, "g", 0x0, "i", 0x0, "s", 0x0, "t"
	DCB	0x0, "e", 0x0, "r", 0x0, "(", 0x0, ")", 0x0, "=", 0x0, "0"
	DCB	0x0, "x", 0x0, "%", 0x0, "x", 0x0, 0xa, 0x0, 0x0, 0x0 ; `string'

  00000			 AREA	 |.rdata|, DATA, READONLY
|??_C@_1FA@JCGFFJNI@?$AAF?$AAI?$AAF?$AAO?$AA?5?$AAE?$AAr?$AAr?$AAo?$AAr?$AA?5?$AAo?$AAn?$AA?5?$AAE?$AAn?$AAd?$AAp?$AAo?$AAi?$AAn?$AAt?$AA?5?$AAZ?$AAe?$AAr?$AAo?$AA?5?$AAU?$AAD?$AAC?$AAC@| DCB "F"
	DCB	0x0, "I", 0x0, "F", 0x0, "O", 0x0, " ", 0x0, "E", 0x0, "r"
	DCB	0x0, "r", 0x0, "o", 0x0, "r", 0x0, " ", 0x0, "o", 0x0, "n"
	DCB	0x0, " ", 0x0, "E", 0x0, "n", 0x0, "d", 0x0, "p", 0x0, "o"
	DCB	0x0, "i", 0x0, "n", 0x0, "t", 0x0, " ", 0x0, "Z", 0x0, "e"
	DCB	0x0, "r", 0x0, "o", 0x0, " ", 0x0, "U", 0x0, "D", 0x0, "C"
	DCB	0x0, "C", 0x0, "S", 0x0, "R", 0x0, "=", 0x0, "0", 0x0, "x"
	DCB	0x0, "%", 0x0, "x", 0x0, 0x0, 0x0	; `string'

  00000			 AREA	 |.rdata|, DATA, READONLY
|??_C@_1EK@PHDCNHIP@?$AAb?$AAu?$AAl?$AAv?$AAe?$AAr?$AAd?$AAe?$AA_?$AAu?$AAs?$AAb?$AAf?$AAn?$AA?$CB?$AAB?$AAu?$AAl?$AAE?$AAn?$AAd?$AAp?$AAo?$AAi?$AAn?$AAt?$AAZ?$AAe?$AAr?$AAo?$AA?3?$AA?3@| DCB "b"
	DCB	0x0, "u", 0x0, "l", 0x0, "v", 0x0, "e", 0x0, "r", 0x0, "d"
	DCB	0x0, "e", 0x0, "_", 0x0, "u", 0x0, "s", 0x0, "b", 0x0, "f"
	DCB	0x0, "n", 0x0, "!", 0x0, "B", 0x0, "u", 0x0, "l", 0x0, "E"
	DCB	0x0, "n", 0x0, "d", 0x0, "p", 0x0, "o", 0x0, "i", 0x0, "n"
	DCB	0x0, "t", 0x0, "Z", 0x0, "e", 0x0, "r", 0x0, "o", 0x0, ":"
	DCB	0x0, ":", 0x0, "I", 0x0, "S", 0x0, "T", 0x0, ":", 0x0, 0x0
	DCB	0x0					; `string'
; Function compile flags: /Odtp

  02028			 AREA	 |.text|, CODE, ARM

  02028		 |?IST@BulEndpointZero@@UAAKK@Z| PROC	; BulEndpointZero::IST

; 400  : {

  02028		 |$LN83@IST|
  02028	e1a0c00d	 mov         r12, sp
  0202c	e92d0003	 stmdb       sp!, {r0, r1}
  02030	e92d5000	 stmdb       sp!, {r12, lr}
  02034	e24dd0c8	 sub         sp, sp, #0xC8
  02038		 |$M38685|

; 401  :     Lock();

  02038	e59d30d0	 ldr         r3, [sp, #0xD0]
  0203c	e2830008	 add         r0, r3, #8
  02040	eb000000	 bl          |?Lock@CLockObject@@QAAXXZ|

; 402  :     BOOL bContinue = TRUE;

  02044	e3a03001	 mov         r3, #1
  02048	e58d3008	 str         r3, [sp, #8]

; 403  :     m_fInIST = TRUE;

  0204c	e59d30d0	 ldr         r3, [sp, #0xD0]
  02050	e2832048	 add         r2, r3, #0x48
  02054	e3a03001	 mov         r3, #1
  02058	e5823000	 str         r3, [r2]

; 404  :     SETFNAME();

  0205c	e59f3b88	 ldr         r3, [pc, #0xB88]
  02060	e58d300c	 str         r3, [sp, #0xC]

; 405  :     FUNCTION_ENTER_MSG();

  02064	e59f3b50	 ldr         r3, [pc, #0xB50]
  02068	e5933440	 ldr         r3, [r3, #0x440]
  0206c	e3130a01	 tst         r3, #1, 20
  02070	0a00000d	 beq         |$LN30@IST|
  02074	e59f3b40	 ldr         r3, [pc, #0xB40]
  02078	e5933440	 ldr         r3, [r3, #0x440]
  0207c	e3130801	 tst         r3, #1, 16
  02080	0a000003	 beq         |$LN28@IST|
  02084	e59d100c	 ldr         r1, [sp, #0xC]
  02088	e59f0b58	 ldr         r0, [pc, #0xB58]
  0208c	eb000000	 bl          CeLogMsg
  02090	ea000002	 b           |$LN29@IST|
  02094		 |$LN28@IST|
  02094	e59d100c	 ldr         r1, [sp, #0xC]
  02098	e59f0b48	 ldr         r0, [pc, #0xB48]
  0209c	eb000000	 bl          NKDbgPrintfW
  020a0		 |$LN29@IST|
  020a0	e3a03001	 mov         r3, #1
  020a4	e58d3054	 str         r3, [sp, #0x54]
  020a8	ea000001	 b           |$LN31@IST|
  020ac		 |$LN30@IST|
  020ac	e3a03000	 mov         r3, #0
  020b0	e58d3054	 str         r3, [sp, #0x54]
  020b4		 |$LN31@IST|

; 406  :     if ((dwIRBit & EPINT_FIFO_ERROR)!=0) { // FIFO Error. End

  020b4	e59d30d4	 ldr         r3, [sp, #0xD4]
  020b8	e3130002	 tst         r3, #2
  020bc	0a000018	 beq         |$LN25@IST|

; 407  :         DWORD dwUdccsr;
; 408  :         dwUdccsr = ReadControlStatusRegister();

  020c0	e59d00d0	 ldr         r0, [sp, #0xD0]
  020c4	eb000000	 bl          |?ReadControlStatusRegister@BulEndpoint@@QAAKXZ|
  020c8	e58d0058	 str         r0, [sp, #0x58]
  020cc	e59d3058	 ldr         r3, [sp, #0x58]
  020d0	e58d3010	 str         r3, [sp, #0x10]

; 409  :         DEBUGMSG(ZONE_TRANSFER, (_T("FIFO Error on Endpoint Zero UDCCSR=0x%x"),dwUdccsr));

  020d4	e59f3ae0	 ldr         r3, [pc, #0xAE0]
  020d8	e5933440	 ldr         r3, [r3, #0x440]
  020dc	e3130008	 tst         r3, #8
  020e0	0a00000d	 beq         |$LN34@IST|
  020e4	e59f3ad0	 ldr         r3, [pc, #0xAD0]
  020e8	e5933440	 ldr         r3, [r3, #0x440]
  020ec	e3130801	 tst         r3, #1, 16
  020f0	0a000003	 beq         |$LN32@IST|
  020f4	e59d1010	 ldr         r1, [sp, #0x10]
  020f8	e59f0ae4	 ldr         r0, [pc, #0xAE4]
  020fc	eb000000	 bl          CeLogMsg
  02100	ea000002	 b           |$LN33@IST|
  02104		 |$LN32@IST|
  02104	e59d1010	 ldr         r1, [sp, #0x10]
  02108	e59f0ad4	 ldr         r0, [pc, #0xAD4]
  0210c	eb000000	 bl          NKDbgPrintfW
  02110		 |$LN33@IST|
  02110	e3a03001	 mov         r3, #1
  02114	e58d305c	 str         r3, [sp, #0x5C]
  02118	ea000001	 b           |$LN35@IST|
  0211c		 |$LN34@IST|
  0211c	e3a03000	 mov         r3, #0
  02120	e58d305c	 str         r3, [sp, #0x5C]
  02124		 |$LN35@IST|
  02124		 |$LN25@IST|
  02124		 |$LN80@IST|
  02124		 |$LN79@IST|
  02124		 |$LN78@IST|
  02124		 |$LN24@IST|

; 410  :     };
; 411  :     while (bContinue && (dwIRBit & EPINT_PACKET_COMPLETE)!=0) {

  02124	e59d3008	 ldr         r3, [sp, #8]
  02128	e3530000	 cmp         r3, #0
  0212c	0a000280	 beq         |$LN23@IST|
  02130	e59d30d4	 ldr         r3, [sp, #0xD4]
  02134	e3130001	 tst         r3, #1
  02138	0a00027d	 beq         |$LN23@IST|

; 412  :         bContinue = FALSE;

  0213c	e3a03000	 mov         r3, #0
  02140	e58d3008	 str         r3, [sp, #8]

; 413  :         m_fStalled = FALSE; // Endpoint Zero is auto clear stall condition.

  02144	e59d30d0	 ldr         r3, [sp, #0xD0]
  02148	e283203c	 add         r2, r3, #0x3C
  0214c	e3a03000	 mov         r3, #0
  02150	e5823000	 str         r3, [r2]

; 414  :         UDCCSR udccsr;
; 415  :         udccsr.ulValue = ReadControlStatusRegister();

  02154	e59d00d0	 ldr         r0, [sp, #0xD0]
  02158	eb000000	 bl          |?ReadControlStatusRegister@BulEndpoint@@QAAKXZ|
  0215c	e58d0060	 str         r0, [sp, #0x60]
  02160	e59d3060	 ldr         r3, [sp, #0x60]
  02164	e58d3014	 str         r3, [sp, #0x14]

; 416  :         DEBUGMSG(ZONE_TRANSFER, (_T("Endpoint Zero ReadControlStatusRegister()=0x%x\n"),udccsr.ulValue));

  02168	e59f3a4c	 ldr         r3, [pc, #0xA4C]
  0216c	e5933440	 ldr         r3, [r3, #0x440]
  02170	e3130008	 tst         r3, #8
  02174	0a00000d	 beq         |$LN38@IST|
  02178	e59f3a3c	 ldr         r3, [pc, #0xA3C]
  0217c	e5933440	 ldr         r3, [r3, #0x440]
  02180	e3130801	 tst         r3, #1, 16
  02184	0a000003	 beq         |$LN36@IST|
  02188	e59d1014	 ldr         r1, [sp, #0x14]
  0218c	e59f0a4c	 ldr         r0, [pc, #0xA4C]
  02190	eb000000	 bl          CeLogMsg
  02194	ea000002	 b           |$LN37@IST|
  02198		 |$LN36@IST|
  02198	e59d1014	 ldr         r1, [sp, #0x14]
  0219c	e59f0a3c	 ldr         r0, [pc, #0xA3C]
  021a0	eb000000	 bl          NKDbgPrintfW
  021a4		 |$LN37@IST|
  021a4	e3a03001	 mov         r3, #1
  021a8	e58d3064	 str         r3, [sp, #0x64]
  021ac	ea000001	 b           |$LN39@IST|
  021b0		 |$LN38@IST|
  021b0	e3a03000	 mov         r3, #0
  021b4	e58d3064	 str         r3, [sp, #0x64]
  021b8		 |$LN39@IST|

; 417  :         udccsr.ep0bit.FST = 0;

  021b8	e59d2014	 ldr         r2, [sp, #0x14]
  021bc	e3e03020	 mvn         r3, #0x20
  021c0	e0023003	 and         r3, r2, r3
  021c4	e58d3014	 str         r3, [sp, #0x14]

; 418  :         if (udccsr.ep0bit.SA !=0 && udccsr.ep0bit.OPC==0) {

  021c8	e59d3014	 ldr         r3, [sp, #0x14]
  021cc	e3130080	 tst         r3, #0x80
  021d0	0a000011	 beq         |$LN22@IST|
  021d4	e59d3014	 ldr         r3, [sp, #0x14]
  021d8	e3130001	 tst         r3, #1
  021dc	1a00000e	 bne         |$LN22@IST|

; 419  :             m_pUsbDevice->IncBadSetupCounter();

  021e0	e59d30d0	 ldr         r3, [sp, #0xD0]
  021e4	e283301c	 add         r3, r3, #0x1C
  021e8	e5930000	 ldr         r0, [r3]
  021ec	eb000000	 bl          |?IncBadSetupCounter@BulUsbDevice@@QAAXXZ|

; 420  :             RETAILMSG(1, (_T("Endpoint Zero FAILED SETUP  udccsr=0x%x. Sent STALL \n"),udccsr.ulValue));

  021f0	e59d1014	 ldr         r1, [sp, #0x14]
  021f4	e59f09e0	 ldr         r0, [pc, #0x9E0]
  021f8	eb000000	 bl          NKDbgPrintfW
  021fc	e3a03001	 mov         r3, #1
  02200	e58d3068	 str         r3, [sp, #0x68]
  02204	ea000001	 b           |$LN41@IST|
  02208	e3a03000	 mov         r3, #0
  0220c	e58d3068	 str         r3, [sp, #0x68]
  02210		 |$LN41@IST|

; 421  :             udccsr.ep0bit.FST = 1;

  02210	e59d3014	 ldr         r3, [sp, #0x14]
  02214	e3833020	 orr         r3, r3, #0x20
  02218	e58d3014	 str         r3, [sp, #0x14]
  0221c		 |$LN22@IST|

; 422  :         }
; 423  :         if (udccsr.ep0bit.OPC) {

  0221c	e59d3014	 ldr         r3, [sp, #0x14]
  02220	e3130001	 tst         r3, #1
  02224	0a00015c	 beq         |$LN21@IST|

; 424  :             if ( udccsr.ep0bit.SA ) { // This is setup Packet.

  02228	e59d3014	 ldr         r3, [sp, #0x14]
  0222c	e3130080	 tst         r3, #0x80
  02230	0a0000ba	 beq         |$LN20@IST|

; 425  :                 if (m_pCurTransfer) { // Outstanding transfer.

  02234	e59d30d0	 ldr         r3, [sp, #0xD0]
  02238	e2833034	 add         r3, r3, #0x34
  0223c	e5933000	 ldr         r3, [r3]
  02240	e3530000	 cmp         r3, #0
  02244	0a000026	 beq         |$LN19@IST|

; 426  :                     //DebugBreak();
; 427  :                     DEBUGMSG(ZONE_TRANSFER, (_T("Endpoint Zero Current Transfer Canceled\n")));

  02248	e59f396c	 ldr         r3, [pc, #0x96C]
  0224c	e5933440	 ldr         r3, [r3, #0x440]
  02250	e3130008	 tst         r3, #8
  02254	0a00000b	 beq         |$LN44@IST|
  02258	e59f395c	 ldr         r3, [pc, #0x95C]
  0225c	e5933440	 ldr         r3, [r3, #0x440]
  02260	e3130801	 tst         r3, #1, 16
  02264	0a000002	 beq         |$LN42@IST|
  02268	e59f0968	 ldr         r0, [pc, #0x968]
  0226c	eb000000	 bl          CeLogMsg
  02270	ea000001	 b           |$LN43@IST|
  02274		 |$LN42@IST|
  02274	e59f095c	 ldr         r0, [pc, #0x95C]
  02278	eb000000	 bl          NKDbgPrintfW
  0227c		 |$LN43@IST|
  0227c	e3a03001	 mov         r3, #1
  02280	e58d306c	 str         r3, [sp, #0x6C]
  02284	ea000001	 b           |$LN45@IST|
  02288		 |$LN44@IST|
  02288	e3a03000	 mov         r3, #0
  0228c	e58d306c	 str         r3, [sp, #0x6C]
  02290		 |$LN45@IST|

; 428  :                     WriteControlStatusRegister( udccsr.ulValue);

  02290	e59d1014	 ldr         r1, [sp, #0x14]
  02294	e59d00d0	 ldr         r0, [sp, #0xD0]
  02298	eb000000	 bl          |?WriteControlStatusRegister@BulEndpoint@@QAAXK@Z|

; 429  :                     PSTransfer pTransfer = CompleteTransfer( UFN_CANCELED_ERROR );

  0229c	e3a01c01	 mov         r1, #1, 24
  022a0	e3811001	 orr         r1, r1, #1
  022a4	e59d00d0	 ldr         r0, [sp, #0xD0]
  022a8	eb000000	 bl          |?CompleteTransfer@BulEndpoint@@IAAPAU_STransfer@@K@Z|
  022ac	e58d0070	 str         r0, [sp, #0x70]
  022b0	e59d3070	 ldr         r3, [sp, #0x70]
  022b4	e58d3024	 str         r3, [sp, #0x24]

; 430  :                     Unlock();

  022b8	e59d30d0	 ldr         r3, [sp, #0xD0]
  022bc	e2830008	 add         r0, r3, #8
  022c0	eb000000	 bl          |?Unlock@CLockObject@@QAAXXZ|

; 431  :                     m_pUsbDevice->MddTransferComplete(pTransfer);

  022c4	e59d1024	 ldr         r1, [sp, #0x24]
  022c8	e59d30d0	 ldr         r3, [sp, #0xD0]
  022cc	e283301c	 add         r3, r3, #0x1C
  022d0	e5930000	 ldr         r0, [r3]
  022d4	eb000000	 bl          |?MddTransferComplete@BulUsbDevice@@QAAXPAU_STransfer@@@Z|

; 432  :                     Lock();

  022d8	e59d30d0	 ldr         r3, [sp, #0xD0]
  022dc	e2830008	 add         r0, r3, #8
  022e0	eb000000	 bl          |?Lock@CLockObject@@QAAXXZ|
  022e4		 |$LN19@IST|

; 433  :                 }
; 434  :                 ASSERT(ReadByteCountRegister() == sizeof (USB_DEVICE_REQUEST));

  022e4	e59d00d0	 ldr         r0, [sp, #0xD0]
  022e8	eb000000	 bl          |?ReadByteCountRegister@BulEndpoint@@QAAKXZ|
  022ec	e58d0074	 str         r0, [sp, #0x74]
  022f0	e59d3074	 ldr         r3, [sp, #0x74]
  022f4	e3530008	 cmp         r3, #8
  022f8	1a000002	 bne         |$LN46@IST|
  022fc	e3a03001	 mov         r3, #1
  02300	e58d3078	 str         r3, [sp, #0x78]
  02304	ea000008	 b           |$LN47@IST|
  02308		 |$LN46@IST|
  02308	e3a03c01	 mov         r3, #1, 24
  0230c	e38330b2	 orr         r3, r3, #0xB2
  02310	e59f28b4	 ldr         r2, [pc, #0x8B4]
  02314	e59f18ac	 ldr         r1, [pc, #0x8AC]
  02318	e59f08a4	 ldr         r0, [pc, #0x8A4]
  0231c	eb000000	 bl          NKDbgPrintfW
  02320	e6000010	 __debugbreak_ce
  02324	e3a03000	 mov         r3, #0
  02328	e58d3078	 str         r3, [sp, #0x78]
  0232c		 |$LN47@IST|

; 435  :                 union {
; 436  :                     USB_DEVICE_REQUEST udr;
; 437  :                     DWORD dw8Byte[2];
; 438  :                 };
; 439  :                 dw8Byte[0] = ReadDataRegister();

  0232c	e59d00d0	 ldr         r0, [sp, #0xD0]
  02330	eb000000	 bl          |?ReadDataRegister@BulEndpoint@@QAAKXZ|
  02334	e58d007c	 str         r0, [sp, #0x7C]
  02338	e59d307c	 ldr         r3, [sp, #0x7C]
  0233c	e58d301c	 str         r3, [sp, #0x1C]

; 440  :                 dw8Byte[1] = ReadDataRegister();

  02340	e59d00d0	 ldr         r0, [sp, #0xD0]
  02344	eb000000	 bl          |?ReadDataRegister@BulEndpoint@@QAAKXZ|
  02348	e58d0080	 str         r0, [sp, #0x80]
  0234c	e59d3080	 ldr         r3, [sp, #0x80]
  02350	e58d3020	 str         r3, [sp, #0x20]

; 441  :                 DEBUGMSG(ZONE_TRANSFER, (_T("Endpoint Zero Setup bmRequestType = 0xx%x, bRequest=0x%x, wValue=0x%x,wIndex=0x%x,wLength=0x%x\n"),
; 442  :                     udr.bmRequestType,udr.bRequest,udr.wValue,udr.wIndex,udr.wLength));

  02354	e59f3860	 ldr         r3, [pc, #0x860]
  02358	e5933440	 ldr         r3, [r3, #0x440]
  0235c	e3130008	 tst         r3, #8
  02360	0a000019	 beq         |$LN50@IST|
  02364	e59f3850	 ldr         r3, [pc, #0x850]
  02368	e5933440	 ldr         r3, [r3, #0x440]
  0236c	e3130801	 tst         r3, #1, 16
  02370	0a000009	 beq         |$LN48@IST|
  02374	e1dd32b2	 ldrh        r3, [sp, #0x22]
  02378	e58d3004	 str         r3, [sp, #4]
  0237c	e1dd32b0	 ldrh        r3, [sp, #0x20]
  02380	e58d3000	 str         r3, [sp]
  02384	e1dd31be	 ldrh        r3, [sp, #0x1E]
  02388	e5dd201d	 ldrb        r2, [sp, #0x1D]
  0238c	e5dd101c	 ldrb        r1, [sp, #0x1C]
  02390	e59f083c	 ldr         r0, [pc, #0x83C]
  02394	eb000000	 bl          CeLogMsg
  02398	ea000008	 b           |$LN49@IST|
  0239c		 |$LN48@IST|
  0239c	e1dd32b2	 ldrh        r3, [sp, #0x22]
  023a0	e58d3004	 str         r3, [sp, #4]
  023a4	e1dd32b0	 ldrh        r3, [sp, #0x20]
  023a8	e58d3000	 str         r3, [sp]
  023ac	e1dd31be	 ldrh        r3, [sp, #0x1E]
  023b0	e5dd201d	 ldrb        r2, [sp, #0x1D]
  023b4	e5dd101c	 ldrb        r1, [sp, #0x1C]
  023b8	e59f0814	 ldr         r0, [pc, #0x814]
  023bc	eb000000	 bl          NKDbgPrintfW
  023c0		 |$LN49@IST|
  023c0	e3a03001	 mov         r3, #1
  023c4	e58d3084	 str         r3, [sp, #0x84]
  023c8	ea000001	 b           |$LN51@IST|
  023cc		 |$LN50@IST|
  023cc	e3a03000	 mov         r3, #0
  023d0	e58d3084	 str         r3, [sp, #0x84]
  023d4		 |$LN51@IST|

; 443  :                 
; 444  :                 if (m_bNeedAck) { // Previous setup haven't ack yet. Disable Interrupt and wait for the Ack.

  023d4	e59d30d0	 ldr         r3, [sp, #0xD0]
  023d8	e2833040	 add         r3, r3, #0x40
  023dc	e5933000	 ldr         r3, [r3]
  023e0	e3530000	 cmp         r3, #0
  023e4	0a000027	 beq         |$LN18@IST|

; 445  :                     m_pUsbDevice->EnableEndpointInterrupt(m_dwEndpointIndex,FALSE);

  023e8	e3a02000	 mov         r2, #0
  023ec	e59d30d0	 ldr         r3, [sp, #0xD0]
  023f0	e2833020	 add         r3, r3, #0x20
  023f4	e5931000	 ldr         r1, [r3]
  023f8	e59d30d0	 ldr         r3, [sp, #0xD0]
  023fc	e283301c	 add         r3, r3, #0x1C
  02400	e5930000	 ldr         r0, [r3]
  02404	eb000000	 bl          |?EnableEndpointInterrupt@BulUsbDevice@@QAAHKH@Z|

; 446  :                     DEBUGMSG(ZONE_TRANSFER, (_T("Endpoint Zero Disable Interrupt")));

  02408	e59f37ac	 ldr         r3, [pc, #0x7AC]
  0240c	e5933440	 ldr         r3, [r3, #0x440]
  02410	e3130008	 tst         r3, #8
  02414	0a00000b	 beq         |$LN54@IST|
  02418	e59f379c	 ldr         r3, [pc, #0x79C]
  0241c	e5933440	 ldr         r3, [r3, #0x440]
  02420	e3130801	 tst         r3, #1, 16
  02424	0a000002	 beq         |$LN52@IST|
  02428	e59f07a0	 ldr         r0, [pc, #0x7A0]
  0242c	eb000000	 bl          CeLogMsg
  02430	ea000001	 b           |$LN53@IST|
  02434		 |$LN52@IST|
  02434	e59f0794	 ldr         r0, [pc, #0x794]
  02438	eb000000	 bl          NKDbgPrintfW
  0243c		 |$LN53@IST|
  0243c	e3a03001	 mov         r3, #1
  02440	e58d3088	 str         r3, [sp, #0x88]
  02444	ea000001	 b           |$LN55@IST|
  02448		 |$LN54@IST|
  02448	e3a03000	 mov         r3, #0
  0244c	e58d3088	 str         r3, [sp, #0x88]
  02450		 |$LN55@IST|

; 447  :                     m_fBackedudr = TRUE;

  02450	e59d30d0	 ldr         r3, [sp, #0xD0]
  02454	e283205c	 add         r2, r3, #0x5C
  02458	e3a03001	 mov         r3, #1
  0245c	e5823000	 str         r3, [r2]

; 448  :                     m_backup_udr = udr;

  02460	e59d30d0	 ldr         r3, [sp, #0xD0]
  02464	e283004c	 add         r0, r3, #0x4C
  02468	e28d101c	 add         r1, sp, #0x1C
  0246c	e3a02008	 mov         r2, #8
  02470	eb000000	 bl          memcpy

; 449  :                     WriteControlStatusRegister( udccsr.ulValue);

  02474	e59d1014	 ldr         r1, [sp, #0x14]
  02478	e59d00d0	 ldr         r0, [sp, #0xD0]
  0247c	eb000000	 bl          |?WriteControlStatusRegister@BulEndpoint@@QAAXK@Z|

; 450  :                    continue;

  02480	eaffff27	 b           |$LN24@IST|

; 451  :                 }
; 452  :                 else {

  02484	ea000023	 b           |$LN17@IST|
  02488		 |$LN18@IST|

; 453  :                     m_bNeedAck = TRUE;

  02488	e59d30d0	 ldr         r3, [sp, #0xD0]
  0248c	e2832040	 add         r2, r3, #0x40
  02490	e3a03001	 mov         r3, #1
  02494	e5823000	 str         r3, [r2]

; 454  :                     m_bSetupDirIn = ((udr.bmRequestType & USB_REQUEST_DEVICE_TO_HOST)!=0?TRUE:FALSE);

  02498	e5dd301c	 ldrb        r3, [sp, #0x1C]
  0249c	e3130080	 tst         r3, #0x80
  024a0	0a000002	 beq         |$LN56@IST|
  024a4	e3a03001	 mov         r3, #1
  024a8	e58d308c	 str         r3, [sp, #0x8C]
  024ac	ea000001	 b           |$LN57@IST|
  024b0		 |$LN56@IST|
  024b0	e3a03000	 mov         r3, #0
  024b4	e58d308c	 str         r3, [sp, #0x8C]
  024b8		 |$LN57@IST|
  024b8	e59d30d0	 ldr         r3, [sp, #0xD0]
  024bc	e2832044	 add         r2, r3, #0x44
  024c0	e59d308c	 ldr         r3, [sp, #0x8C]
  024c4	e5823000	 str         r3, [r2]

; 455  :                     bContinue = TRUE ;

  024c8	e3a03001	 mov         r3, #1
  024cc	e58d3008	 str         r3, [sp, #8]

; 456  :                     m_fZeroPacket = FALSE;

  024d0	e59d30d0	 ldr         r3, [sp, #0xD0]
  024d4	e2832038	 add         r2, r3, #0x38
  024d8	e3a03000	 mov         r3, #0
  024dc	e5823000	 str         r3, [r2]

; 457  :                     m_cur_udr = udr ;

  024e0	e59d30d0	 ldr         r3, [sp, #0xD0]
  024e4	e2830054	 add         r0, r3, #0x54
  024e8	e28d101c	 add         r1, sp, #0x1C
  024ec	e3a02008	 mov         r2, #8
  024f0	eb000000	 bl          memcpy

; 458  :                     WriteControlStatusRegister( udccsr.ulValue);

  024f4	e59d1014	 ldr         r1, [sp, #0x14]
  024f8	e59d00d0	 ldr         r0, [sp, #0xD0]
  024fc	eb000000	 bl          |?WriteControlStatusRegister@BulEndpoint@@QAAXK@Z|

; 459  :                     m_pUsbDevice->DeviceNotification(UFN_MSG_SETUP_PACKET, (DWORD) &udr);

  02500	e28d201c	 add         r2, sp, #0x1C
  02504	e3a01004	 mov         r1, #4
  02508	e59d30d0	 ldr         r3, [sp, #0xD0]
  0250c	e283301c	 add         r3, r3, #0x1C
  02510	e5930000	 ldr         r0, [r3]
  02514	eb000000	 bl          |?DeviceNotification@BulUsbDevice@@QAAHKK@Z|
  02518		 |$LN17@IST|

; 460  :                 }

  02518	eaffff01	 b           |$LN78@IST|

; 461  :                 continue;

  0251c	ea00009e	 b           |$LN16@IST|
  02520		 |$LN20@IST|

; 462  :             }
; 463  :             else if ( ReadByteCountRegister() == 0 ) { // ACK from Host.

  02520	e59d00d0	 ldr         r0, [sp, #0xD0]
  02524	eb000000	 bl          |?ReadByteCountRegister@BulEndpoint@@QAAKXZ|
  02528	e58d0090	 str         r0, [sp, #0x90]
  0252c	e59d3090	 ldr         r3, [sp, #0x90]
  02530	e3530000	 cmp         r3, #0
  02534	1a000002	 bne         |$LN15@IST|

; 464  :                 bContinue = TRUE; 

  02538	e3a03001	 mov         r3, #1
  0253c	e58d3008	 str         r3, [sp, #8]
  02540	ea000095	 b           |$LN14@IST|
  02544		 |$LN15@IST|

; 465  :             }
; 466  :             else if (m_pCurTransfer ) {

  02544	e59d30d0	 ldr         r3, [sp, #0xD0]
  02548	e2833034	 add         r3, r3, #0x34
  0254c	e5933000	 ldr         r3, [r3]
  02550	e3530000	 cmp         r3, #0
  02554	0a00008c	 beq         |$LN13@IST|

; 467  :                 if((m_pCurTransfer->dwFlags & USB_IN_TRANSFER)==0) { // Out Data.

  02558	e59d30d0	 ldr         r3, [sp, #0xD0]
  0255c	e2833034	 add         r3, r3, #0x34
  02560	e5933000	 ldr         r3, [r3]
  02564	e5933000	 ldr         r3, [r3]
  02568	e3130080	 tst         r3, #0x80
  0256c	1a000082	 bne         |$LN12@IST|

; 468  :                     BOOL bComplete =  (ReadByteCountRegister()<m_epDesc.wMaxPacketSize);

  02570	e59d00d0	 ldr         r0, [sp, #0xD0]
  02574	eb000000	 bl          |?ReadByteCountRegister@BulEndpoint@@QAAKXZ|
  02578	e58d0094	 str         r0, [sp, #0x94]
  0257c	e59d30d0	 ldr         r3, [sp, #0xD0]
  02580	e2831028	 add         r1, r3, #0x28
  02584	e5d13001	 ldrb        r3, [r1, #1]
  02588	e1a03403	 mov         r3, r3, lsl #8
  0258c	e1a02803	 mov         r2, r3, lsl #16
  02590	e1a02822	 mov         r2, r2, lsr #16
  02594	e5d13000	 ldrb        r3, [r1]
  02598	e1832002	 orr         r2, r3, r2
  0259c	e59d3094	 ldr         r3, [sp, #0x94]
  025a0	e1530002	 cmp         r3, r2
  025a4	2a000002	 bcs         |$LN58@IST|
  025a8	e3a03001	 mov         r3, #1
  025ac	e58d3098	 str         r3, [sp, #0x98]
  025b0	ea000001	 b           |$LN59@IST|
  025b4		 |$LN58@IST|
  025b4	e3a03000	 mov         r3, #0
  025b8	e58d3098	 str         r3, [sp, #0x98]
  025bc		 |$LN59@IST|
  025bc	e59d3098	 ldr         r3, [sp, #0x98]
  025c0	e58d302c	 str         r3, [sp, #0x2C]

; 469  :                     DWORD dwSize = (m_pCurTransfer->cbTransferred< m_pCurTransfer->cbBuffer? m_pCurTransfer->cbBuffer-m_pCurTransfer->cbTransferred: 0);

  025c4	e59d30d0	 ldr         r3, [sp, #0xD0]
  025c8	e2833034	 add         r3, r3, #0x34
  025cc	e5933000	 ldr         r3, [r3]
  025d0	e2832010	 add         r2, r3, #0x10
  025d4	e59d30d0	 ldr         r3, [sp, #0xD0]
  025d8	e2833034	 add         r3, r3, #0x34
  025dc	e5933000	 ldr         r3, [r3]
  025e0	e283300c	 add         r3, r3, #0xC
  025e4	e5922000	 ldr         r2, [r2]
  025e8	e5933000	 ldr         r3, [r3]
  025ec	e1520003	 cmp         r2, r3
  025f0	2a00000c	 bcs         |$LN60@IST|
  025f4	e59d30d0	 ldr         r3, [sp, #0xD0]
  025f8	e2833034	 add         r3, r3, #0x34
  025fc	e5933000	 ldr         r3, [r3]
  02600	e283200c	 add         r2, r3, #0xC
  02604	e59d30d0	 ldr         r3, [sp, #0xD0]
  02608	e2833034	 add         r3, r3, #0x34
  0260c	e5933000	 ldr         r3, [r3]
  02610	e2833010	 add         r3, r3, #0x10
  02614	e5922000	 ldr         r2, [r2]
  02618	e5933000	 ldr         r3, [r3]
  0261c	e0423003	 sub         r3, r2, r3
  02620	e58d309c	 str         r3, [sp, #0x9C]
  02624	ea000001	 b           |$LN61@IST|
  02628		 |$LN60@IST|
  02628	e3a03000	 mov         r3, #0
  0262c	e58d309c	 str         r3, [sp, #0x9C]
  02630		 |$LN61@IST|
  02630	e59d309c	 ldr         r3, [sp, #0x9C]
  02634	e58d3028	 str         r3, [sp, #0x28]

; 470  :                     if (dwSize!=0) {

  02638	e59d3028	 ldr         r3, [sp, #0x28]
  0263c	e3530000	 cmp         r3, #0
  02640	0a00001c	 beq         |$LN11@IST|

; 471  :                         dwSize= ReceiveData((PBYTE)m_pCurTransfer->pvBuffer + m_pCurTransfer->cbTransferred , dwSize);

  02644	e59d2028	 ldr         r2, [sp, #0x28]
  02648	e59d30d0	 ldr         r3, [sp, #0xD0]
  0264c	e2833034	 add         r3, r3, #0x34
  02650	e5933000	 ldr         r3, [r3]
  02654	e2831004	 add         r1, r3, #4
  02658	e59d30d0	 ldr         r3, [sp, #0xD0]
  0265c	e2833034	 add         r3, r3, #0x34
  02660	e5933000	 ldr         r3, [r3]
  02664	e2833010	 add         r3, r3, #0x10
  02668	e5911000	 ldr         r1, [r1]
  0266c	e5933000	 ldr         r3, [r3]
  02670	e0811003	 add         r1, r1, r3
  02674	e59d00d0	 ldr         r0, [sp, #0xD0]
  02678	eb000000	 bl          |?ReceiveData@BulEndpoint@@IAAKPAEK@Z|
  0267c	e58d00a0	 str         r0, [sp, #0xA0]
  02680	e59d30a0	 ldr         r3, [sp, #0xA0]
  02684	e58d3028	 str         r3, [sp, #0x28]

; 472  :                         m_pCurTransfer->cbTransferred += dwSize;

  02688	e59d30d0	 ldr         r3, [sp, #0xD0]
  0268c	e2833034	 add         r3, r3, #0x34
  02690	e5933000	 ldr         r3, [r3]
  02694	e2833010	 add         r3, r3, #0x10
  02698	e5932000	 ldr         r2, [r3]
  0269c	e59d3028	 ldr         r3, [sp, #0x28]
  026a0	e0822003	 add         r2, r2, r3
  026a4	e59d30d0	 ldr         r3, [sp, #0xD0]
  026a8	e2833034	 add         r3, r3, #0x34
  026ac	e5933000	 ldr         r3, [r3]
  026b0	e2833010	 add         r3, r3, #0x10
  026b4	e5832000	 str         r2, [r3]
  026b8		 |$LN11@IST|

; 473  :                     }
; 474  : 
; 475  :                     bComplete = (bComplete || (m_pCurTransfer->cbTransferred>= m_pCurTransfer->cbBuffer));

  026b8	e59d302c	 ldr         r3, [sp, #0x2C]
  026bc	e3530000	 cmp         r3, #0
  026c0	1a00000e	 bne         |$LN62@IST|
  026c4	e59d30d0	 ldr         r3, [sp, #0xD0]
  026c8	e2833034	 add         r3, r3, #0x34
  026cc	e5933000	 ldr         r3, [r3]
  026d0	e2832010	 add         r2, r3, #0x10
  026d4	e59d30d0	 ldr         r3, [sp, #0xD0]
  026d8	e2833034	 add         r3, r3, #0x34
  026dc	e5933000	 ldr         r3, [r3]
  026e0	e283300c	 add         r3, r3, #0xC
  026e4	e5922000	 ldr         r2, [r2]
  026e8	e5933000	 ldr         r3, [r3]
  026ec	e1520003	 cmp         r2, r3
  026f0	2a000002	 bcs         |$LN62@IST|
  026f4	e3a03000	 mov         r3, #0
  026f8	e58d30a4	 str         r3, [sp, #0xA4]
  026fc	ea000001	 b           |$LN63@IST|
  02700		 |$LN62@IST|
  02700	e3a03001	 mov         r3, #1
  02704	e58d30a4	 str         r3, [sp, #0xA4]
  02708		 |$LN63@IST|
  02708	e59d30a4	 ldr         r3, [sp, #0xA4]
  0270c	e58d302c	 str         r3, [sp, #0x2C]

; 476  :                     // Check for the completeion.
; 477  :                     if ( bComplete ) {

  02710	e59d302c	 ldr         r3, [sp, #0x2C]
  02714	e3530000	 cmp         r3, #0
  02718	0a000016	 beq         |$LN10@IST|

; 478  :                         WriteControlStatusRegister( udccsr.ulValue);

  0271c	e59d1014	 ldr         r1, [sp, #0x14]
  02720	e59d00d0	 ldr         r0, [sp, #0xD0]
  02724	eb000000	 bl          |?WriteControlStatusRegister@BulEndpoint@@QAAXK@Z|

; 479  :                         PSTransfer pTransfer =CompleteTransfer(UFN_NO_ERROR);

  02728	e3a01000	 mov         r1, #0
  0272c	e59d00d0	 ldr         r0, [sp, #0xD0]
  02730	eb000000	 bl          |?CompleteTransfer@BulEndpoint@@IAAPAU_STransfer@@K@Z|
  02734	e58d00a8	 str         r0, [sp, #0xA8]
  02738	e59d30a8	 ldr         r3, [sp, #0xA8]
  0273c	e58d3030	 str         r3, [sp, #0x30]

; 480  :                         bContinue = TRUE;

  02740	e3a03001	 mov         r3, #1
  02744	e58d3008	 str         r3, [sp, #8]

; 481  :                         Unlock();

  02748	e59d30d0	 ldr         r3, [sp, #0xD0]
  0274c	e2830008	 add         r0, r3, #8
  02750	eb000000	 bl          |?Unlock@CLockObject@@QAAXXZ|

; 482  :                         m_pUsbDevice->MddTransferComplete(pTransfer);

  02754	e59d1030	 ldr         r1, [sp, #0x30]
  02758	e59d30d0	 ldr         r3, [sp, #0xD0]
  0275c	e283301c	 add         r3, r3, #0x1C
  02760	e5930000	 ldr         r0, [r3]
  02764	eb000000	 bl          |?MddTransferComplete@BulUsbDevice@@QAAXPAU_STransfer@@@Z|

; 483  :                         Lock();

  02768	e59d30d0	 ldr         r3, [sp, #0xD0]
  0276c	e2830008	 add         r0, r3, #8
  02770	eb000000	 bl          |?Lock@CLockObject@@QAAXXZ|

; 484  :                         continue;

  02774	eafffe6a	 b           |$LN79@IST|
  02778		 |$LN10@IST|

; 485  :                     }
; 486  :                 }
; 487  :                 else { // Error

  02778	ea000002	 b           |$LN9@IST|
  0277c		 |$LN12@IST|

; 488  :                     udccsr.ep0bit.FST = 1;

  0277c	e59d3014	 ldr         r3, [sp, #0x14]
  02780	e3833020	 orr         r3, r3, #0x20
  02784	e58d3014	 str         r3, [sp, #0x14]
  02788		 |$LN9@IST|

; 489  :                 }
; 490  :             }
; 491  :             else { // Transfer Not queue yet. 

  02788	ea000003	 b           |$LN8@IST|
  0278c		 |$LN13@IST|

; 492  :                 //m_pUsbDevice->EnableEndpointInterrupt(m_dwEndpointIndex,FALSE);
; 493  :                 // Do not clean OPC
; 494  :                 udccsr.ep0bit.OPC = 0;

  0278c	e59d2014	 ldr         r2, [sp, #0x14]
  02790	e3e03001	 mvn         r3, #1
  02794	e0023003	 and         r3, r2, r3
  02798	e58d3014	 str         r3, [sp, #0x14]
  0279c		 |$LN8@IST|
  0279c		 |$LN14@IST|
  0279c		 |$LN16@IST|
  0279c		 |$LN21@IST|

; 495  :             }
; 496  : 
; 497  :         }
; 498  :         
; 499  :         if (udccsr.ep0bit.IPR==0 ) {

  0279c	e59d3014	 ldr         r3, [sp, #0x14]
  027a0	e3130002	 tst         r3, #2
  027a4	1a000094	 bne         |$LN7@IST|

; 500  :         // Because the Ep0 is half duplex. We assume the direction is correct.
; 501  :             if (m_pCurTransfer && (m_pCurTransfer->dwFlags & USB_IN_TRANSFER)!=0 &&
; 502  :                     m_pCurTransfer->cbTransferred <= m_pCurTransfer->cbBuffer) {

  027a8	e59d30d0	 ldr         r3, [sp, #0xD0]
  027ac	e2833034	 add         r3, r3, #0x34
  027b0	e5933000	 ldr         r3, [r3]
  027b4	e3530000	 cmp         r3, #0
  027b8	0a00008e	 beq         |$LN6@IST|
  027bc	e59d30d0	 ldr         r3, [sp, #0xD0]
  027c0	e2833034	 add         r3, r3, #0x34
  027c4	e5933000	 ldr         r3, [r3]
  027c8	e5933000	 ldr         r3, [r3]
  027cc	e3130080	 tst         r3, #0x80
  027d0	0a000088	 beq         |$LN6@IST|
  027d4	e59d30d0	 ldr         r3, [sp, #0xD0]
  027d8	e2833034	 add         r3, r3, #0x34
  027dc	e5933000	 ldr         r3, [r3]
  027e0	e2832010	 add         r2, r3, #0x10
  027e4	e59d30d0	 ldr         r3, [sp, #0xD0]
  027e8	e2833034	 add         r3, r3, #0x34
  027ec	e5933000	 ldr         r3, [r3]
  027f0	e283300c	 add         r3, r3, #0xC
  027f4	e5922000	 ldr         r2, [r2]
  027f8	e5933000	 ldr         r3, [r3]
  027fc	e1520003	 cmp         r2, r3
  02800	8a00007c	 bhi         |$LN6@IST|

; 503  :                 DWORD dwTotalData = m_pCurTransfer->cbBuffer - m_pCurTransfer->cbTransferred ;

  02804	e59d30d0	 ldr         r3, [sp, #0xD0]
  02808	e2833034	 add         r3, r3, #0x34
  0280c	e5933000	 ldr         r3, [r3]
  02810	e283200c	 add         r2, r3, #0xC
  02814	e59d30d0	 ldr         r3, [sp, #0xD0]
  02818	e2833034	 add         r3, r3, #0x34
  0281c	e5933000	 ldr         r3, [r3]
  02820	e2833010	 add         r3, r3, #0x10
  02824	e5922000	 ldr         r2, [r2]
  02828	e5933000	 ldr         r3, [r3]
  0282c	e0423003	 sub         r3, r2, r3
  02830	e58d3038	 str         r3, [sp, #0x38]

; 504  :                 dwTotalData = min (dwTotalData,m_epDesc.wMaxPacketSize) ;

  02834	e59d30d0	 ldr         r3, [sp, #0xD0]
  02838	e2831028	 add         r1, r3, #0x28
  0283c	e5d13001	 ldrb        r3, [r1, #1]
  02840	e1a03403	 mov         r3, r3, lsl #8
  02844	e1a02803	 mov         r2, r3, lsl #16
  02848	e1a02822	 mov         r2, r2, lsr #16
  0284c	e5d13000	 ldrb        r3, [r1]
  02850	e1832002	 orr         r2, r3, r2
  02854	e59d3038	 ldr         r3, [sp, #0x38]
  02858	e1530002	 cmp         r3, r2
  0285c	2a000002	 bcs         |$LN64@IST|
  02860	e59d3038	 ldr         r3, [sp, #0x38]
  02864	e58d30ac	 str         r3, [sp, #0xAC]
  02868	ea000008	 b           |$LN65@IST|
  0286c		 |$LN64@IST|
  0286c	e59d30d0	 ldr         r3, [sp, #0xD0]
  02870	e2831028	 add         r1, r3, #0x28
  02874	e5d13001	 ldrb        r3, [r1, #1]
  02878	e1a03403	 mov         r3, r3, lsl #8
  0287c	e1a02803	 mov         r2, r3, lsl #16
  02880	e1a02822	 mov         r2, r2, lsr #16
  02884	e5d13000	 ldrb        r3, [r1]
  02888	e1833002	 orr         r3, r3, r2
  0288c	e58d30ac	 str         r3, [sp, #0xAC]
  02890		 |$LN65@IST|
  02890	e59d30ac	 ldr         r3, [sp, #0xAC]
  02894	e58d3038	 str         r3, [sp, #0x38]

; 505  :                 // Spec 12.5.5
; 506  :                 DWORD dwReturn = XmitData(((PBYTE)m_pCurTransfer->pvBuffer)+ m_pCurTransfer->cbTransferred, dwTotalData );

  02898	e59d2038	 ldr         r2, [sp, #0x38]
  0289c	e59d30d0	 ldr         r3, [sp, #0xD0]
  028a0	e2833034	 add         r3, r3, #0x34
  028a4	e5933000	 ldr         r3, [r3]
  028a8	e2831004	 add         r1, r3, #4
  028ac	e59d30d0	 ldr         r3, [sp, #0xD0]
  028b0	e2833034	 add         r3, r3, #0x34
  028b4	e5933000	 ldr         r3, [r3]
  028b8	e2833010	 add         r3, r3, #0x10
  028bc	e5911000	 ldr         r1, [r1]
  028c0	e5933000	 ldr         r3, [r3]
  028c4	e0811003	 add         r1, r1, r3
  028c8	e59d00d0	 ldr         r0, [sp, #0xD0]
  028cc	eb000000	 bl          |?XmitData@BulEndpoint@@IAAKPAEK@Z|
  028d0	e58d00b0	 str         r0, [sp, #0xB0]
  028d4	e59d30b0	 ldr         r3, [sp, #0xB0]
  028d8	e58d3034	 str         r3, [sp, #0x34]

; 507  :                 ASSERT(dwReturn == dwTotalData);

  028dc	e59d2034	 ldr         r2, [sp, #0x34]
  028e0	e59d3038	 ldr         r3, [sp, #0x38]
  028e4	e1520003	 cmp         r2, r3
  028e8	1a000002	 bne         |$LN66@IST|
  028ec	e3a03001	 mov         r3, #1
  028f0	e58d30b4	 str         r3, [sp, #0xB4]
  028f4	ea000008	 b           |$LN67@IST|
  028f8		 |$LN66@IST|
  028f8	e3a03c01	 mov         r3, #1, 24
  028fc	e38330fb	 orr         r3, r3, #0xFB
  02900	e59f22c4	 ldr         r2, [pc, #0x2C4]
