; Listing generated by Microsoft (R) Optimizing Compiler Version 14.01.60511.01 

	TTL	C:\WINCE600\PLATFORM\COMMON\SRC\SOC\OMAP2420_MS_V1\OAL\ETHDRV\USBFN\rndis.c
	CODE32

  00000			 AREA	 |.drectve|, DRECTVE
	DCB	"-defaultlib:LIBCMT "
	DCB	"-defaultlib:OLDNAMES "

	EXPORT	|g_InterruptData| [ DATA ]
	EXPORT	|g_pEP1DataWrapper| [ DATA ]
	EXPORT	|DigitTable| [ DATA ]
	EXPORT	|g_devState| [ DATA ]
	EXPORT	|g_EP0TransferState| [ DATA ]
	EXPORT	|g_EP1TransferState| [ DATA ]
	EXPORT	|g_EP2TransferState| [ DATA ]
	EXPORT	|g_EP3TransferState| [ DATA ]

  00000			 AREA	 |.data|, DATA
	 COMMON	|MDDZONE2|, 0x4

	 COMMON	|MDDZONE|, 0x4

	 COMMON	|MDDZONE0|, 0x4

	 COMMON	|g_EP0Transfer|, 0x20

	 COMMON	|PDDZONE0|, 0x4

	 COMMON	|g_EP2Transfer|, 0x20

	 COMMON	|MDDZONE3|, 0x4

	 COMMON	|g_pddInterface|, 0x60

	 COMMON	|g_EP3Transfer|, 0x20

	 COMMON	|PDDZONE|, 0x4

	 COMMON	|MDDZONE4|, 0x4

	 COMMON	|g_udr|, 0x8

	 COMMON	|g_RndisKitlDev|, 0x444

	 COMMON	|g_EP1Transfer|, 0x20

	 COMMON	|g_mddInterface|, 0x8

	 COMMON	|MDDZONE5|, 0x4

	 COMMON	|g_EP0DataWrapper|, 0x10


  00000			 AREA	 |.bss|, NOINIT
|g_ucScratch| %	0x1
|g_pEP1DataWrapper| % 0x4
|g_devState| %	0x4
|g_EP0TransferState| % 0x4
|g_EP1TransferState| % 0x4
|g_EP2TransferState| % 0x4
|g_EP3TransferState| % 0x4

  00000			 AREA	 |.data|, DATA
|g_InterruptData| DCD 0x1
	DCD	0x0
|g_RndisMacAddress| DCB 0x0
	DCB	0x2
	DCB	0xb3
	DCB	0x92
	DCB	0xa8
	DCB	0xc4
	%	2
|pucVendorID| DCB "Microsoft.", 0x0, 0x0
|pucVendorDescription| DCB "Microsoft RNDIS virtual adapter miniport.", 0x0
	DCB	0x0

  00000			 AREA	 |.rdata|, DATA, READONLY
|EdbgVendorIds| DCW 0x0
	DCW	0x0
	DCD	0x4033
	DCB	0x1
	DCB	"AD", 0x0
	DCW	0x1050
	DCW	0x940
	DCD	0x4005
	DCB	0x1
	DCB	"LS", 0x0
	DCW	0x1050
	DCW	0x940
	DCD	0x2078
	DCB	0x1
	DCB	"LS", 0x0
	DCW	0x10ec
	DCW	0x8029
	DCD	0xc0f0
	DCB	0x1
	DCB	"KS", 0x0
	DCW	0x10ec
	DCW	0x8129
	DCD	0x0
	DCB	0x4
	DCB	"RT", 0x0
	DCW	0x10ec
	DCW	0x8139
	DCD	0x900b
	DCB	0x4
	DCB	"RT", 0x0
	DCW	0x10ec
	DCW	0x8139
	DCD	0xd0c9
	DCB	0x4
	DCB	"RT", 0x0
	DCW	0x10ec
	DCW	0x8139
	DCD	0xe04c
	DCB	0x4
	DCB	"RT", 0x0
	DCW	0x1186
	DCW	0x1300
	DCD	0x50ba
	DCB	0x4
	DCB	"DL", 0x0
	DCW	0x100b
	DCW	0x20
	DCD	0xa0cc
	DCB	0x5
	DCB	"NG", 0x0
	DCW	0x10b7
	DCW	0x9050
	DCD	0x6008
	DCB	0x6
	DCB	"3C", 0x0
	DCW	0x10b7
	DCW	0x9200
	DCD	0x476
	DCB	0x6
	DCB	"3C", 0x0
|gs_pucSupportedLanguage| DCB 0x4
	DCB	0x3
	DCB	0x9
	DCB	0x4
|gs_Manufacturer| DCB 0x16
	DCB	0x3
	DCB	"M", 0x0, "i", 0x0, "c", 0x0, "r", 0x0, "o", 0x0, "s", 0x0
	DCB	"o", 0x0, "f", 0x0, "t", 0x0, 0x0, 0x0
	%	6
|gs_Product| DCB 0x46
	DCB	0x3
	DCB	"M", 0x0, "i", 0x0, "c", 0x0, "r", 0x0, "o", 0x0, "s", 0x0
	DCB	"o", 0x0, "f", 0x0, "t", 0x0, " ", 0x0, "R", 0x0, "N", 0x0
	DCB	"D", 0x0, "I", 0x0, "S", 0x0, " ", 0x0, "K", 0x0, "I", 0x0
	DCB	"T", 0x0, "L", 0x0, " ", 0x0, "f", 0x0, "o", 0x0, "r", 0x0
	DCB	" ", 0x0, "O", 0x0, "M", 0x0, "A", 0x0, "P", 0x0, "2", 0x0
	DCB	"4", 0x0, "2", 0x0, "0", 0x0, 0x0, 0x0
	%	2
|gs_pucUSBDescriptors| DCB 0x12
	DCB	0x1
	DCB	0x10
	DCB	0x1
	DCB	0x2
	DCB	0x0
	DCB	0x0
	DCB	0x40
	DCB	0x5e
	DCB	0x4
	DCB	0x1
	DCB	0x3
	DCB	0x1
	DCB	0x0
	DCB	0x1
	DCB	0x2
	DCB	0x3
	DCB	0x1
	DCB	0x9
	DCB	0x2
	DCB	0x3e
	DCB	0x0
	DCB	0x2
	DCB	0x1
	DCB	0x0
	DCB	0x40
	DCB	0x1
	DCB	0x9
	DCB	0x4
	DCB	0x0
	DCB	0x0
	DCB	0x1
	DCB	0x2
	DCB	0x2
	DCB	0xff
	DCB	0x0
	DCB	0x5
	DCB	0x24
	DCB	0x1
	DCB	0x0
	DCB	0x1
	DCB	0x4
	DCB	0x24
	DCB	0x2
	DCB	0x0
	DCB	0x5
	DCB	0x24
	DCB	0x6
	DCB	0x0
	DCB	0x1
	DCB	0x7
	DCB	0x5
	DCB	0x83
	DCB	0x3
	DCB	0x40
	DCB	0x0
	DCB	0x50
	DCB	0x9
	DCB	0x4
	DCB	0x1
	DCB	0x0
	DCB	0x2
	DCB	0xa
	DCB	0x0
	DCB	0x0
	DCB	0x0
	DCB	0x7
	DCB	0x5
	DCB	0x82
	DCB	0x2
	DCB	0x40
	DCB	0x0
	DCB	0x0
	DCB	0x7
	DCB	0x5
	DCB	0x1
	DCB	0x2
	DCB	0x40
	DCB	0x0
	DCB	0x0
|DigitTable| DCB "0", 0x0, "1", 0x0, "2", 0x0, "3", 0x0, "4", 0x0, "5", 0x0
	DCB	"6", 0x0, "7", 0x0, "8", 0x0, "9", 0x0, "A", 0x0, "B", 0x0
	DCB	"C", 0x0, "D", 0x0, "E", 0x0, "F", 0x0, 0x0, 0x0
	IMPORT	|MddSendRndisMessageComplete|
; File c:\wince600\platform\common\src\soc\omap2420_ms_v1\oal\ethdrv\usbfn\rndis.c

  00000			 AREA	 |.pdata|, PDATA
|$T47014| DCD	|$LN6@PDD_SendNo|
	DCD	0x40000b01
; Function compile flags: /Ogspy

  00000			 AREA	 |.text|, CODE, ARM

  00000		 |PDD_SendNotification| PROC

; 246  : {

  00000		 |$LN6@PDD_SendNo|
  00000	e92d4010	 stmdb       sp!, {r4, lr}
  00004		 |$M47011|

; 247  :     DATA_WRAPPER *pWrapper = (DATA_WRAPPER *)pvUser;
; 248  : 
; 249  :     if (pWrapper != g_RndisKitlDev.pEP0DataWrapper) {

  00004	e59f401c	 ldr         r4, [pc, #0x1C]
  00008	e5940430	 ldr         r0, [r4, #0x430]
  0000c	e1510000	 cmp         r1, r0
  00010	1a000002	 bne         |$LN2@PDD_SendNo|

; 250  :         ASSERT(FALSE);
; 251  :         return;
; 252  :     }
; 253  :     MddSendRndisMessageComplete(g_RndisKitlDev.pEP0DataWrapper);

  00014	eb000000	 bl          MddSendRndisMessageComplete

; 254  :     g_RndisKitlDev.pEP0DataWrapper = NULL;

  00018	e3a03000	 mov         r3, #0
  0001c	e5843430	 str         r3, [r4, #0x430]
  00020		 |$LN2@PDD_SendNo|

; 255  : }

  00020	e8bd4010	 ldmia       sp!, {r4, lr}
  00024	e12fff1e	 bx          lr
  00028		 |$LN7@PDD_SendNo|
  00028		 |$LN8@PDD_SendNo|
  00028	00000000	 DCD         |g_RndisKitlDev|
  0002c		 |$M47012|

			 ENDP  ; |PDD_SendNotification|

	IMPORT	|MddIndicateRndisMessage|

  00000			 AREA	 |.pdata|, PDATA
|$T47025| DCD	|$LN6@PDD_RecvNo|
	DCD	0x40000e01
; Function compile flags: /Ogspy

  00000			 AREA	 |.text|, CODE, ARM

  00000		 |PDD_RecvNotification| PROC

; 259  : {

  00000		 |$LN6@PDD_RecvNo|
  00000	e52de004	 str         lr, [sp, #-4]!
  00004		 |$M47022|
  00004	e1a0e000	 mov         lr, r0

; 260  :     DATA_WRAPPER *pWrapper = (DATA_WRAPPER *)pvUser;
; 261  : 
; 262  :     if (pWrapper != &g_RndisKitlDev.EP0DataWrapper) {

  00008	e59f2024	 ldr         r2, [pc, #0x24]
  0000c	e2823e42	 add         r3, r2, #0x42, 28
  00010	e1510003	 cmp         r1, r3

; 263  :         ASSERT(FALSE);
; 264  :         return;
; 265  :     }
; 266  :     g_RndisKitlDev.EP0DataWrapper.pucData = pRequest->pucData;

  00014	059e3004	 ldreq       r3, [lr, #4]

; 267  :     g_RndisKitlDev.EP0DataWrapper.dwDataSize = pRequest->dwActualSize;
; 268  :     MddIndicateRndisMessage(&(g_RndisKitlDev.EP0DataWrapper));

  00018	02820e42	 addeq       r0, r2, #0x42, 28
  0001c	05823428	 streq       r3, [r2, #0x428]
  00020	059e300c	 ldreq       r3, [lr, #0xC]
  00024	0582342c	 streq       r3, [r2, #0x42C]
  00028	0b000000	 bleq        MddIndicateRndisMessage

; 269  : }

  0002c	e49de004	 ldr         lr, [sp], #4
  00030	e12fff1e	 bx          lr
  00034		 |$LN7@PDD_RecvNo|
  00034		 |$LN8@PDD_RecvNo|
  00034	00000000	 DCD         |g_RndisKitlDev|
  00038		 |$M47023|

			 ENDP  ; |PDD_RecvNotification|

	EXPORT	|PDD_GetDescriptor|
	EXPORT	|??_C@_1DM@FCMMONGE@?$AA?$CK?$AA?$CK?$AA?$CK?$AA?5?$AAU?$AAn?$AAk?$AAn?$AAo?$AAw?$AAn?$AA?5?$AAS?$AAT?$AAR?$AAI?$AAN?$AAG?$AA?5?$AAi?$AAn?$AAd?$AAe?$AAx?$AA?5?$AA?$CF?$AAd?$AA?$AN?$AA?6?$AA?$AA@| [ DATA ] ; `string'
	EXPORT	|??_C@_1FE@MMFBADFF@?$AA?$CK?$AA?$CK?$AA?$CK?$AA?5?$AAU?$AAn?$AAk?$AAn?$AAo?$AAw?$AAn?$AA?5?$AAG?$AAE?$AAT?$AA_?$AAD?$AAE?$AAS?$AAC?$AAR?$AAI?$AAP?$AAT?$AAO?$AAR?$AA?5?$AAr?$AAe?$AAq?$AAu?$AAe@| [ DATA ] ; `string'
	IMPORT	|NKDbgPrintfW|
	IMPORT	|dpCurSettings|

  00019			 AREA	 |.bss|, NOINIT
|gs_SerialNumber| % 0x14
|gs_SerialNumber| % 0x14

  00000			 AREA	 |.pdata|, PDATA
|$T47050| DCD	|$LN27@PDD_GetDes|
	DCD	0x40005601

  00000			 AREA	 |.rdata|, DATA, READONLY
|??_C@_1DM@FCMMONGE@?$AA?$CK?$AA?$CK?$AA?$CK?$AA?5?$AAU?$AAn?$AAk?$AAn?$AAo?$AAw?$AAn?$AA?5?$AAS?$AAT?$AAR?$AAI?$AAN?$AAG?$AA?5?$AAi?$AAn?$AAd?$AAe?$AAx?$AA?5?$AA?$CF?$AAd?$AA?$AN?$AA?6?$AA?$AA@| DCB "*"
	DCB	0x0, "*", 0x0, "*", 0x0, " ", 0x0, "U", 0x0, "n", 0x0, "k"
	DCB	0x0, "n", 0x0, "o", 0x0, "w", 0x0, "n", 0x0, " ", 0x0, "S"
	DCB	0x0, "T", 0x0, "R", 0x0, "I", 0x0, "N", 0x0, "G", 0x0, " "
	DCB	0x0, "i", 0x0, "n", 0x0, "d", 0x0, "e", 0x0, "x", 0x0, " "
	DCB	0x0, "%", 0x0, "d", 0x0, 0xd, 0x0, 0xa, 0x0, 0x0, 0x0 ; `string'

  00000			 AREA	 |.rdata|, DATA, READONLY
|??_C@_1FE@MMFBADFF@?$AA?$CK?$AA?$CK?$AA?$CK?$AA?5?$AAU?$AAn?$AAk?$AAn?$AAo?$AAw?$AAn?$AA?5?$AAG?$AAE?$AAT?$AA_?$AAD?$AAE?$AAS?$AAC?$AAR?$AAI?$AAP?$AAT?$AAO?$AAR?$AA?5?$AAr?$AAe?$AAq?$AAu?$AAe@| DCB "*"
	DCB	0x0, "*", 0x0, "*", 0x0, " ", 0x0, "U", 0x0, "n", 0x0, "k"
	DCB	0x0, "n", 0x0, "o", 0x0, "w", 0x0, "n", 0x0, " ", 0x0, "G"
	DCB	0x0, "E", 0x0, "T", 0x0, "_", 0x0, "D", 0x0, "E", 0x0, "S"
	DCB	0x0, "C", 0x0, "R", 0x0, "I", 0x0, "P", 0x0, "T", 0x0, "O"
	DCB	0x0, "R", 0x0, " ", 0x0, "r", 0x0, "e", 0x0, "q", 0x0, "u"
	DCB	0x0, "e", 0x0, "s", 0x0, "t", 0x0, ":", 0x0, "0", 0x0, "x"
	DCB	0x0, "%", 0x0, "x", 0x0, 0xd, 0x0, 0xa, 0x0, 0x0, 0x0 ; `string'
; Function compile flags: /Ogspy

  00000			 AREA	 |.text|, CODE, ARM

  00000		 |PDD_GetDescriptor| PROC

; 273  : {

  00000		 |$LN27@PDD_GetDes|
  00000	e92d4010	 stmdb       sp!, {r4, lr}
  00004		 |$M47047|
  00004	e1a0e001	 mov         lr, r1
  00008	e1a04000	 mov         r4, r0

; 274  :     UCHAR *pucData;
; 275  :     WORD wLength;
; 276  :     WORD wType = pUdr->wValue;

  0000c	e5d42002	 ldrb        r2, [r4, #2]
  00010	e5d43003	 ldrb        r3, [r4, #3]

; 277  :     BOOL fRet = TRUE;

  00014	e3a00001	 mov         r0, #1
  00018	e1822403	 orr         r2, r2, r3, lsl #8

; 278  : 
; 279  :     switch (HIBYTE(wType)) {

  0001c	e1a03422	 mov         r3, r2, lsr #8
  00020	e20310ff	 and         r1, r3, #0xFF
  00024	e3510001	 cmp         r1, #1
  00028	0a00002e	 beq         |$LN12@PDD_GetDes|
  0002c	e3510002	 cmp         r1, #2
  00030	0a000027	 beq         |$LN11@PDD_GetDes|
  00034	e3510003	 cmp         r1, #3
  00038	0a000008	 beq         |$LN10@PDD_GetDes|

; 318  : 
; 319  :         default:
; 320  :             OALMSG(OAL_ERROR, (L"*** Unknown GET_DESCRIPTOR request:0x%x\r\n", HIBYTE(wType)));

  0003c	e59f310c	 ldr         r3, [pc, #0x10C]
  00040	e5933440	 ldr         r3, [r3, #0x440]
  00044	e3130001	 tst         r3, #1
  00048	0a000001	 beq         |$LN19@PDD_GetDes|
  0004c	e59f0100	 ldr         r0, [pc, #0x100]
  00050		 |$LN24@PDD_GetDes|
  00050	eb000000	 bl          NKDbgPrintfW
  00054		 |$LN19@PDD_GetDes|

; 321  :             fRet = FALSE;

  00054	e3a00000	 mov         r0, #0

; 332  :     }
; 333  :     return fRet;
; 334  : }

  00058	e8bd4010	 ldmia       sp!, {r4, lr}
  0005c	e12fff1e	 bx          lr
  00060		 |$LN10@PDD_GetDes|

; 289  : 
; 290  :         case USB_STRING_DESCRIPTOR_TYPE:
; 291  :             switch (LOBYTE(wType)) {

  00060	e21230ff	 ands        r3, r2, #0xFF
  00064	0a000017	 beq         |$LN7@PDD_GetDes|
  00068	e3530001	 cmp         r3, #1
  0006c	0a000011	 beq         |$LN6@PDD_GetDes|
  00070	e3530002	 cmp         r3, #2
  00074	0a00000b	 beq         |$LN5@PDD_GetDes|
  00078	e3530003	 cmp         r3, #3
  0007c	0a000006	 beq         |$LN4@PDD_GetDes|

; 311  : 
; 312  :                 default:
; 313  :                     OALMSG(OAL_ERROR, (L"*** Unknown STRING index %d\r\n", LOBYTE(wType)));

  00080	e59f30c8	 ldr         r3, [pc, #0xC8]
  00084	e5933440	 ldr         r3, [r3, #0x440]
  00088	e3130001	 tst         r3, #1
  0008c	0afffff0	 beq         |$LN19@PDD_GetDes|
  00090	e59f00b4	 ldr         r0, [pc, #0xB4]
  00094	e20210ff	 and         r1, r2, #0xFF

; 314  :                     fRet = FALSE;
; 315  :                     break;

  00098	eaffffec	 b           |$LN24@PDD_GetDes|
  0009c		 |$LN4@PDD_GetDes|

; 306  : 
; 307  :                 case 0x03:
; 308  :                     pucData = (UCHAR *)&gs_SerialNumber;

  0009c	e59f30a4	 ldr         r3, [pc, #0xA4]

; 309  :                     wLength = gs_SerialNumber.ucbLength;

  000a0	e5d31000	 ldrb        r1, [r3]

; 310  :                     break;

  000a4	ea000012	 b           |$LN13@PDD_GetDes|
  000a8		 |$LN5@PDD_GetDes|

; 301  : 
; 302  :                 case 0x02:
; 303  :                     pucData = (UCHAR *)&gs_Product;

  000a8	e59f3094	 ldr         r3, [pc, #0x94]

; 304  :                     wLength = gs_Product.ucbLength;

  000ac	e3a01046	 mov         r1, #0x46
  000b0	e2833020	 add         r3, r3, #0x20

; 305  :                     break;

  000b4	ea00000e	 b           |$LN13@PDD_GetDes|
  000b8		 |$LN6@PDD_GetDes|

; 295  :                     break;
; 296  : 
; 297  :                 case 0x01:
; 298  :                     pucData = (UCHAR *)&gs_Manufacturer;

  000b8	e59f3084	 ldr         r3, [pc, #0x84]

; 299  :                     wLength = gs_Manufacturer.ucbLength;

  000bc	e3a01016	 mov         r1, #0x16
  000c0	e2833004	 add         r3, r3, #4

; 300  :                     break;

  000c4	ea00000a	 b           |$LN13@PDD_GetDes|
  000c8		 |$LN7@PDD_GetDes|

; 292  :                 case 0x00:
; 293  :                     pucData = (UCHAR *)gs_pucSupportedLanguage;

  000c8	e59f3074	 ldr         r3, [pc, #0x74]

; 294  :                     wLength = gs_pucSupportedLanguage[0];

  000cc	e3a01004	 mov         r1, #4

; 316  :             }
; 317  :             break;

  000d0	ea000007	 b           |$LN13@PDD_GetDes|
  000d4		 |$LN11@PDD_GetDes|

; 283  :             break;
; 284  : 
; 285  :         case USB_CONFIGURATION_DESCRIPTOR_TYPE:
; 286  :             pucData = (UCHAR *)&gs_pucUSBDescriptors[iCONF];

  000d4	e59f3068	 ldr         r3, [pc, #0x68]

; 287  :             wLength = CFGLEN;;

  000d8	e3a0103e	 mov         r1, #0x3E
  000dc	e2833068	 add         r3, r3, #0x68
  000e0	e2833012	 add         r3, r3, #0x12

; 288  :             break;

  000e4	ea000002	 b           |$LN13@PDD_GetDes|
  000e8		 |$LN12@PDD_GetDes|

; 280  :         case USB_DEVICE_DESCRIPTOR_TYPE:
; 281  :             pucData = (UCHAR *)gs_pucUSBDescriptors;

  000e8	e59f3054	 ldr         r3, [pc, #0x54]

; 282  :             wLength = gs_pucUSBDescriptors[0];

  000ec	e3a01012	 mov         r1, #0x12
  000f0	e2833068	 add         r3, r3, #0x68
  000f4		 |$LN13@PDD_GetDes|

; 322  :             break;
; 323  :     }
; 324  : 
; 325  :     if (fRet) {
; 326  :         pRequest->eDir = EP0In;

  000f4	e3a02002	 mov         r2, #2
  000f8	e88e000c	 stmia       lr, {r2, r3}

; 327  :         pRequest->pucData = pucData;
; 328  :         pRequest->dwExpectedSize = pUdr->wLength;

  000fc	e5d42006	 ldrb        r2, [r4, #6]
  00100	e5d43007	 ldrb        r3, [r4, #7]
  00104	e1823403	 orr         r3, r2, r3, lsl #8
  00108	e58e3008	 str         r3, [lr, #8]

; 329  :         pRequest->dwActualSize = min(wLength, pUdr->wLength);

  0010c	e5d42006	 ldrb        r2, [r4, #6]
  00110	e5d43007	 ldrb        r3, [r4, #7]
  00114	e1823403	 orr         r3, r2, r3, lsl #8
  00118	e1510003	 cmp         r1, r3
  0011c	25d42006	 ldrcsb      r2, [r4, #6]
  00120	31a03001	 movcc       r3, r1
  00124	25d43007	 ldrcsb      r3, [r4, #7]
  00128	21823403	 orrcs       r3, r2, r3, lsl #8

; 330  :         pRequest->pfnNotification = NULL;       // notification not required

  0012c	e3a02000	 mov         r2, #0
  00130	e58e2010	 str         r2, [lr, #0x10]

; 331  :         pRequest->pvUser = NULL;

  00134	e58e2014	 str         r2, [lr, #0x14]
  00138	e58e300c	 str         r3, [lr, #0xC]

; 332  :     }
; 333  :     return fRet;
; 334  : }

  0013c	e8bd4010	 ldmia       sp!, {r4, lr}
  00140	e12fff1e	 bx          lr
  00144		 |$LN28@PDD_GetDes|
  00144		 |$LN29@PDD_GetDes|
  00144	00000000	 DCD         |gs_pucSupportedLanguage|
  00148		 |$LN30@PDD_GetDes|
  00148	00000000	 DCD         |gs_SerialNumber|
  0014c		 |$LN31@PDD_GetDes|
  0014c	00000000	 DCD         |??_C@_1DM@FCMMONGE@?$AA?$CK?$AA?$CK?$AA?$CK?$AA?5?$AAU?$AAn?$AAk?$AAn?$AAo?$AAw?$AAn?$AA?5?$AAS?$AAT?$AAR?$AAI?$AAN?$AAG?$AA?5?$AAi?$AAn?$AAd?$AAe?$AAx?$AA?5?$AA?$CF?$AAd?$AA?$AN?$AA?6?$AA?$AA@|
  00150		 |$LN32@PDD_GetDes|
  00150	00000000	 DCD         |dpCurSettings|
  00154		 |$LN33@PDD_GetDes|
  00154	00000000	 DCD         |??_C@_1FE@MMFBADFF@?$AA?$CK?$AA?$CK?$AA?$CK?$AA?5?$AAU?$AAn?$AAk?$AAn?$AAo?$AAw?$AAn?$AA?5?$AAG?$AAE?$AAT?$AA_?$AAD?$AAE?$AAS?$AAC?$AAR?$AAI?$AAP?$AAT?$AAO?$AAR?$AA?5?$AAr?$AAe?$AAq?$AAu?$AAe@|
  00158		 |$M47048|

			 ENDP  ; |PDD_GetDescriptor|


  00000			 AREA	 |.pdata|, PDATA
|$T47073| DCD	|$LN15@PDD_DoVend|
	DCD	0x40004701
; Function compile flags: /Ogspy

  00000			 AREA	 |.text|, CODE, ARM

  00000		 |PDD_DoVendorCommand| PROC

; 339  : {

  00000		 |$LN15@PDD_DoVend|
  00000	e92d4070	 stmdb       sp!, {r4 - r6, lr}
  00004		 |$M47070|
  00004	e1a04001	 mov         r4, r1

; 340  :     BOOL fRet = TRUE;
; 341  : 
; 342  :     //
; 343  :     // RNDIS spec:: we should only be getting:
; 344  :     // - SEND_ENCAPSULATED_COMMAND  or
; 345  :     // - GET_ENCAPSULATED_RESPONSE.
; 346  :     // So let's just look for these two, and bail out if it does
; 347  :     //not match..
; 348  :     //
; 349  :     switch (pUdr->bRequest) {

  00008	e5d03001	 ldrb        r3, [r0, #1]
  0000c	e3a05001	 mov         r5, #1
  00010	e3530000	 cmp         r3, #0
  00014	0a000028	 beq         |$LN5@PDD_DoVend|
  00018	e3530001	 cmp         r3, #1

; 388  : 
; 389  :         default:
; 390  :             fRet = FALSE;

  0001c	13a05000	 movne       r5, #0
  00020	1a000036	 bne         |$LN6@PDD_DoVend|
  00024	e59fe0e4	 ldr         lr, [pc, #0xE4]
  00028	e3a03002	 mov         r3, #2
  0002c	e5843000	 str         r3, [r4]
  00030	e59e6434	 ldr         r6, [lr, #0x434]
  00034	e28e3b01	 add         r3, lr, #1, 22
  00038	e2833034	 add         r3, r3, #0x34
  0003c	e1560003	 cmp         r6, r3
  00040	0a000012	 beq         |$LN3@PDD_DoVend|
  00044	e5962000	 ldr         r2, [r6]
  00048	e28e3b01	 add         r3, lr, #1, 22
  0004c	e2833034	 add         r3, r3, #0x34
  00050	e5823004	 str         r3, [r2, #4]
  00054	e5963000	 ldr         r3, [r6]
  00058	e59f10b8	 ldr         r1, [pc, #0xB8]
  0005c	e58e3434	 str         r3, [lr, #0x434]
  00060	e5963008	 ldr         r3, [r6, #8]
  00064	e5843004	 str         r3, [r4, #4]
  00068	e5d02006	 ldrb        r2, [r0, #6]
  0006c	e5d03007	 ldrb        r3, [r0, #7]
  00070	e1823403	 orr         r3, r2, r3, lsl #8
  00074	e5843008	 str         r3, [r4, #8]
  00078	e596300c	 ldr         r3, [r6, #0xC]
  0007c	e5841010	 str         r1, [r4, #0x10]
  00080	e5846014	 str         r6, [r4, #0x14]
  00084	e584300c	 str         r3, [r4, #0xC]
  00088	e58e6430	 str         r6, [lr, #0x430]
  0008c	ea00001b	 b           |$LN6@PDD_DoVend|
  00090		 |$LN3@PDD_DoVend|

; 357  :             break;
; 358  : 
; 359  :         case GET_ENCAPSULATED_RESPONSE:
; 360  :             pRequest->eDir = EP0In;
; 361  :             if (!IsListEmpty(&(g_RndisKitlDev.listTxRndisMessageQueue))) {
; 362  :                 PLIST_ENTRY pLink;
; 363  :                 PDATA_WRAPPER pDataWrapper;
; 364  : 
; 365  :                 pLink = RemoveHeadList(&(g_RndisKitlDev.listTxRndisMessageQueue));
; 366  :                 pDataWrapper = CONTAINING_RECORD(pLink, DATA_WRAPPER, Link);
; 367  :                 //KITLDEBUGMSG(MDDZONE, ("<0x%X\r\n", pDataWrapper));
; 368  :                 pRequest->pucData = pDataWrapper->pucData;
; 369  :                 pRequest->dwExpectedSize = pUdr->wLength;
; 370  :                 pRequest->dwActualSize = pDataWrapper->dwDataSize;
; 371  :                 pRequest->pfnNotification = PDD_SendNotification;
; 372  :                 pRequest->pvUser = pDataWrapper;
; 373  : 
; 374  :                 g_RndisKitlDev.pEP0DataWrapper = pDataWrapper;
; 375  :             } else {
; 376  :                 //
; 377  :                 // RNDIS spec says if we have no data to send then 
; 378  :                 // send one byte packet set to 00 instead of stalling the 
; 379  :                 // pipe.
; 380  :                 //
; 381  :                 pRequest->pucData = &g_ucScratch;

  00090	e59f307c	 ldr         r3, [pc, #0x7C]

; 382  :                 pRequest->dwActualSize = sizeof(UCHAR);

  00094	e3a02001	 mov         r2, #1
  00098	e584200c	 str         r2, [r4, #0xC]
  0009c	e5843004	 str         r3, [r4, #4]

; 383  :                 pRequest->dwExpectedSize = pUdr->wLength;

  000a0	e5d02006	 ldrb        r2, [r0, #6]
  000a4	e5d03007	 ldrb        r3, [r0, #7]

; 384  :                 pRequest->pfnNotification = NULL;

  000a8	e3a01000	 mov         r1, #0

; 385  :                 pRequest->pvUser = NULL;

  000ac	e5841014	 str         r1, [r4, #0x14]
  000b0	e1823403	 orr         r3, r2, r3, lsl #8
  000b4	e5843008	 str         r3, [r4, #8]

; 386  :             }
; 387  :             break;

  000b8	ea00000f	 b           |$LN12@PDD_DoVend|
  000bc		 |$LN5@PDD_DoVend|

; 350  :         case SEND_ENCAPSULATED_COMMAND:
; 351  :             pRequest->eDir = EP0Out;
; 352  :             pRequest->pucData = (UCHAR *)(g_RndisKitlDev.EP0RxBuffer);

  000bc	e59fe04c	 ldr         lr, [pc, #0x4C]
  000c0	e3a03001	 mov         r3, #1
  000c4	e5843000	 str         r3, [r4]
  000c8	e28e3020	 add         r3, lr, #0x20
  000cc	e5843004	 str         r3, [r4, #4]

; 353  :             pRequest->dwExpectedSize = pUdr->wLength;

  000d0	e5d02006	 ldrb        r2, [r0, #6]
  000d4	e5d03007	 ldrb        r3, [r0, #7]

; 354  :             pRequest->dwActualSize = pUdr->wLength;
; 355  :             pRequest->pfnNotification = PDD_RecvNotification;

  000d8	e59f102c	 ldr         r1, [pc, #0x2C]

; 356  :             pRequest->pvUser = &(g_RndisKitlDev.EP0DataWrapper);

  000dc	e28eee42	 add         lr, lr, #0x42, 28
  000e0	e1823403	 orr         r3, r2, r3, lsl #8
  000e4	e5843008	 str         r3, [r4, #8]
  000e8	e5d02006	 ldrb        r2, [r0, #6]
  000ec	e5d03007	 ldrb        r3, [r0, #7]
  000f0	e584e014	 str         lr, [r4, #0x14]
  000f4	e1823403	 orr         r3, r2, r3, lsl #8
  000f8	e584300c	 str         r3, [r4, #0xC]
  000fc		 |$LN12@PDD_DoVend|
  000fc	e5841010	 str         r1, [r4, #0x10]
  00100		 |$LN6@PDD_DoVend|

; 391  :             break;
; 392  :     }
; 393  :     return fRet;
; 394  : }

  00100	e1a00005	 mov         r0, r5
  00104	e8bd4070	 ldmia       sp!, {r4 - r6, lr}
  00108	e12fff1e	 bx          lr
  0010c		 |$LN16@PDD_DoVend|
  0010c		 |$LN17@PDD_DoVend|
  0010c	00000000	 DCD         |PDD_RecvNotification|
  00110		 |$LN18@PDD_DoVend|
  00110	00000000	 DCD         |g_RndisKitlDev|
  00114		 |$LN19@PDD_DoVend|
  00114	00000000	 DCD         |g_ucScratch|
  00118		 |$LN20@PDD_DoVend|
  00118	00000000	 DCD         |PDD_SendNotification|
  0011c		 |$M47071|

			 ENDP  ; |PDD_DoVendorCommand|

	EXPORT	|SetupEP1Transfer|
	EXPORT	|??_C@_1CK@OLHEFDLK@?$AAN?$AAo?$AA?5?$AAm?$AAe?$AAm?$AA?5?$AAf?$AAo?$AAr?$AA?5?$AAR?$AAX?$AA?5?$AAd?$AAa?$AAt?$AAa?$AA?$AN?$AA?6?$AA?$AA@| [ DATA ] ; `string'
	EXPORT	|??_C@_1DI@FELDACDH@?$AAN?$AAo?$AA?5?$AAm?$AAe?$AAm?$AA?5?$AAf?$AAo?$AAr?$AA?5?$AAR?$AAX?$AA?5?$AAD?$AAa?$AAt?$AAa?$AAW?$AAr?$AAa?$AAp?$AAp?$AAe?$AAr?$AA?$AN?$AA?6?$AA?$AA@| [ DATA ] ; `string'
	IMPORT	|MDDFreeDataWrapper|
	IMPORT	|MDDAllocMem|
	IMPORT	|MDDAllocDataWrapper|

  00000			 AREA	 |.pdata|, PDATA
|$T47089| DCD	|$LN12@SetupEP1Tr|
	DCD	0x40004401

  00000			 AREA	 |.rdata|, DATA, READONLY
|??_C@_1CK@OLHEFDLK@?$AAN?$AAo?$AA?5?$AAm?$AAe?$AAm?$AA?5?$AAf?$AAo?$AAr?$AA?5?$AAR?$AAX?$AA?5?$AAd?$AAa?$AAt?$AAa?$AA?$AN?$AA?6?$AA?$AA@| DCB "N"
	DCB	0x0, "o", 0x0, " ", 0x0, "m", 0x0, "e", 0x0, "m", 0x0, " "
	DCB	0x0, "f", 0x0, "o", 0x0, "r", 0x0, " ", 0x0, "R", 0x0, "X"
	DCB	0x0, " ", 0x0, "d", 0x0, "a", 0x0, "t", 0x0, "a", 0x0, 0xd
	DCB	0x0, 0xa, 0x0, 0x0, 0x0			; `string'

  00000			 AREA	 |.rdata|, DATA, READONLY
|??_C@_1DI@FELDACDH@?$AAN?$AAo?$AA?5?$AAm?$AAe?$AAm?$AA?5?$AAf?$AAo?$AAr?$AA?5?$AAR?$AAX?$AA?5?$AAD?$AAa?$AAt?$AAa?$AAW?$AAr?$AAa?$AAp?$AAp?$AAe?$AAr?$AA?$AN?$AA?6?$AA?$AA@| DCB "N"
	DCB	0x0, "o", 0x0, " ", 0x0, "m", 0x0, "e", 0x0, "m", 0x0, " "
	DCB	0x0, "f", 0x0, "o", 0x0, "r", 0x0, " ", 0x0, "R", 0x0, "X"
	DCB	0x0, " ", 0x0, "D", 0x0, "a", 0x0, "t", 0x0, "a", 0x0, "W"
	DCB	0x0, "r", 0x0, "a", 0x0, "p", 0x0, "p", 0x0, "e", 0x0, "r"
	DCB	0x0, 0xd, 0x0, 0xa, 0x0, 0x0, 0x0	; `string'
; Function compile flags: /Ogspy

  00000			 AREA	 |.text|, CODE, ARM

  00000		 |SetupEP1Transfer| PROC

; 398  : {

  00000		 |$LN12@SetupEP1Tr|
  00000	e92d4010	 stmdb       sp!, {r4, lr}
  00004		 |$M47086|

; 399  :     // allocate data transfer for EP1
; 400  :     if (!g_pEP1DataWrapper) {

  00004	e59f4100	 ldr         r4, [pc, #0x100]
  00008	e5941000	 ldr         r1, [r4]
  0000c	e3510000	 cmp         r1, #0
  00010	1a000020	 bne         |$LN3@SetupEP1Tr|

; 401  :         g_pEP1DataWrapper = MDDAllocDataWrapper();

  00014	eb000000	 bl          MDDAllocDataWrapper
  00018	e3500000	 cmp         r0, #0
  0001c	e5840000	 str         r0, [r4]

; 402  :         if (!g_pEP1DataWrapper) {

  00020	1a000007	 bne         |$LN2@SetupEP1Tr|

; 403  :             OALMSG(OAL_ERROR, (L"No mem for RX DataWrapper\r\n"));

  00024	e59f30d8	 ldr         r3, [pc, #0xD8]
  00028	e5933440	 ldr         r3, [r3, #0x440]
  0002c	e3130001	 tst         r3, #1
  00030	0a00002e	 beq         |$LN4@SetupEP1Tr|
  00034	e59f00cc	 ldr         r0, [pc, #0xCC]
  00038	eb000000	 bl          NKDbgPrintfW

; 426  : }

  0003c	e8bd4010	 ldmia       sp!, {r4, lr}
  00040	e12fff1e	 bx          lr
  00044		 |$LN2@SetupEP1Tr|

; 404  :             return;
; 405  :         }
; 406  : 
; 407  :         g_pEP1DataWrapper->pucData = MDDAllocMem();

  00044	eb000000	 bl          MDDAllocMem
  00048	e5943000	 ldr         r3, [r4]
  0004c	e5830008	 str         r0, [r3, #8]

; 408  :         if (!g_pEP1DataWrapper->pucData) {

  00050	e5942000	 ldr         r2, [r4]
  00054	e5923008	 ldr         r3, [r2, #8]
  00058	e3530000	 cmp         r3, #0
  0005c	1a00000a	 bne         |$LN1@SetupEP1Tr|

; 409  :             OALMSG(OAL_ERROR, (L"No mem for RX data\r\n"));

  00060	e59f309c	 ldr         r3, [pc, #0x9C]
  00064	e5933440	 ldr         r3, [r3, #0x440]
  00068	e3130001	 tst         r3, #1
  0006c	0a000002	 beq         |$LN8@SetupEP1Tr|
  00070	e59f0088	 ldr         r0, [pc, #0x88]
  00074	eb000000	 bl          NKDbgPrintfW
  00078	e5942000	 ldr         r2, [r4]
  0007c		 |$LN8@SetupEP1Tr|

; 410  :             MDDFreeDataWrapper(g_pEP1DataWrapper);

  0007c	e1a00002	 mov         r0, r2
  00080	eb000000	 bl          MDDFreeDataWrapper

; 426  : }

  00084	e8bd4010	 ldmia       sp!, {r4, lr}
  00088	e12fff1e	 bx          lr
  0008c		 |$LN1@SetupEP1Tr|

; 411  :             return;
; 412  :         }
; 413  :         g_pEP1DataWrapper->dwDataSize = MAX_INCOMING_BUFFER;

  0008c	e3a03a02	 mov         r3, #2, 20
  00090	e582300c	 str         r3, [r2, #0xC]
  00094	e5941000	 ldr         r1, [r4]
  00098		 |$LN3@SetupEP1Tr|

; 414  :     }
; 415  : 
; 416  :     // g_EP1Transfer.dwCallerPermissions;
; 417  :     g_EP1Transfer.pvBuffer = g_pEP1DataWrapper->pucData;

  00098	e59f205c	 ldr         r2, [pc, #0x5C]
  0009c	e5913008	 ldr         r3, [r1, #8]

; 418  :     // g_EP1Transfer.dwBufferPhysicalAddress; // not used
; 419  :     g_EP1Transfer.cbBuffer = g_pEP1DataWrapper->dwDataSize;
; 420  :     g_EP1Transfer.cbTransferred = 0;
; 421  :     g_EP1Transfer.dwUsbError = UFN_NOT_COMPLETE_ERROR; // Possible values are in usbfntypes.h
; 422  :     g_EP1Transfer.pvPddData = NULL;
; 423  :     g_EP1Transfer.pvPddTransferInfo = NULL;
; 424  :     g_EP1Transfer.dwFlags = 0;
; 425  :     g_pddInterface.pfnIssueTransfer( g_pddInterface.pvPddContext, 1, &g_EP1Transfer );

  000a0	e3a04c01	 mov         r4, #1, 24
  000a4	e3a00000	 mov         r0, #0
  000a8	e5823004	 str         r3, [r2, #4]
  000ac	e591300c	 ldr         r3, [r1, #0xC]
  000b0	e3841003	 orr         r1, r4, #3
  000b4	e59fe03c	 ldr         lr, [pc, #0x3C]
  000b8	e582300c	 str         r3, [r2, #0xC]
  000bc	e5820010	 str         r0, [r2, #0x10]
  000c0	e5821014	 str         r1, [r2, #0x14]
  000c4	e3a01000	 mov         r1, #0
  000c8	e5821018	 str         r1, [r2, #0x18]
  000cc	e3a01000	 mov         r1, #0
  000d0	e582101c	 str         r1, [r2, #0x1C]
  000d4	e3a01000	 mov         r1, #0
  000d8	e59e000c	 ldr         r0, [lr, #0xC]
  000dc	e59e3030	 ldr         r3, [lr, #0x30]
  000e0	e5821000	 str         r1, [r2]
  000e4	e3a01001	 mov         r1, #1
  000e8	e1a0e00f	 mov         lr, pc
  000ec	e12fff13	 bx          r3
  000f0		 |$LN4@SetupEP1Tr|

; 426  : }

  000f0	e8bd4010	 ldmia       sp!, {r4, lr}
  000f4	e12fff1e	 bx          lr
  000f8		 |$LN13@SetupEP1Tr|
  000f8		 |$LN14@SetupEP1Tr|
  000f8	00000000	 DCD         |g_pddInterface|
  000fc		 |$LN15@SetupEP1Tr|
  000fc	00000000	 DCD         |g_EP1Transfer|
  00100		 |$LN16@SetupEP1Tr|
  00100	00000000	 DCD         |??_C@_1CK@OLHEFDLK@?$AAN?$AAo?$AA?5?$AAm?$AAe?$AAm?$AA?5?$AAf?$AAo?$AAr?$AA?5?$AAR?$AAX?$AA?5?$AAd?$AAa?$AAt?$AAa?$AA?$AN?$AA?6?$AA?$AA@|
  00104		 |$LN17@SetupEP1Tr|
  00104	00000000	 DCD         |dpCurSettings|
  00108		 |$LN18@SetupEP1Tr|
  00108	00000000	 DCD         |??_C@_1DI@FELDACDH@?$AAN?$AAo?$AA?5?$AAm?$AAe?$AAm?$AA?5?$AAf?$AAo?$AAr?$AA?5?$AAR?$AAX?$AA?5?$AAD?$AAa?$AAt?$AAa?$AAW?$AAr?$AAa?$AAp?$AAp?$AAe?$AAr?$AA?$AN?$AA?6?$AA?$AA@|
  0010c		 |$LN19@SetupEP1Tr|
  0010c	00000000	 DCD         |g_pEP1DataWrapper|
  00110		 |$M47087|

			 ENDP  ; |SetupEP1Transfer|

	EXPORT	|HandleSetupPacket|
	EXPORT	|??_C@_1DG@HDGBABFG@?$AA?$CK?$AA?$CK?$AA?$CK?$AA?5?$AAU?$AAn?$AAk?$AAn?$AAo?$AAw?$AAn?$AA?5?$AAr?$AAe?$AAq?$AAu?$AAe?$AAs?$AAt?$AA?5?$AA0?$AAx?$AA?$CF?$AAx?$AA?$AN?$AA?6?$AA?$AA@| [ DATA ] ; `string'
	EXPORT	|??_C@_1FI@GLILKAEG@?$AA?$CK?$AA?$CK?$AA?$CK?$AA?5?$AAU?$AAn?$AAH?$AAa?$AAn?$AAd?$AAl?$AAe?$AAd?$AA?5?$AAG?$AAE?$AAT?$AA_?$AAD?$AAE?$AAS?$AAC?$AAR?$AAI?$AAP?$AAT?$AAO?$AAR?$AA?5?$AAr?$AAe?$AAq@| [ DATA ] ; `string'
	EXPORT	|??_C@_1CO@NANJHOKH@?$AA?$CK?$AA?$CK?$AA?$CK?$AAR?$AAe?$AAq?$AAu?$AAe?$AAs?$AAt?$AAT?$AAy?$AAp?$AAe?$AA?$DN?$AA?$DN?$AA0?$AAx?$AA0?$AA2?$AA?$AN?$AA?6?$AA?$AA@| [ DATA ] ; `string'
	EXPORT	|??_C@_1CO@MDAODOFD@?$AA?$CK?$AA?$CK?$AA?$CK?$AAR?$AAe?$AAq?$AAu?$AAe?$AAs?$AAt?$AAT?$AAy?$AAp?$AAe?$AA?$DN?$AA?$DN?$AA0?$AAx?$AA8?$AA2?$AA?$AN?$AA?6?$AA?$AA@| [ DATA ] ; `string'
	EXPORT	|??_C@_1EM@PLFMLLKO@?$AA?$CK?$AA?$CK?$AA?$CK?$AA?$CK?$AA?5?$AAU?$AAn?$AAh?$AAa?$AAn?$AAd?$AAl?$AAe?$AAd?$AA?5?$AAv?$AAe?$AAr?$AAn?$AAd?$AAo?$AAr?$AA?5?$AAc?$AAo?$AAm?$AAm?$AAa?$AAn?$AAd?$AA?5?$AA0@| [ DATA ] ; `string'
	IMPORT	|OALStall|

  00000			 AREA	 |.pdata|, PDATA
|$T47136| DCD	|$LN56@HandleSetu|
	DCD	0x40005e01

  00000			 AREA	 |.rdata|, DATA, READONLY
|??_C@_1DG@HDGBABFG@?$AA?$CK?$AA?$CK?$AA?$CK?$AA?5?$AAU?$AAn?$AAk?$AAn?$AAo?$AAw?$AAn?$AA?5?$AAr?$AAe?$AAq?$AAu?$AAe?$AAs?$AAt?$AA?5?$AA0?$AAx?$AA?$CF?$AAx?$AA?$AN?$AA?6?$AA?$AA@| DCB "*"
	DCB	0x0, "*", 0x0, "*", 0x0, " ", 0x0, "U", 0x0, "n", 0x0, "k"
	DCB	0x0, "n", 0x0, "o", 0x0, "w", 0x0, "n", 0x0, " ", 0x0, "r"
	DCB	0x0, "e", 0x0, "q", 0x0, "u", 0x0, "e", 0x0, "s", 0x0, "t"
	DCB	0x0, " ", 0x0, "0", 0x0, "x", 0x0, "%", 0x0, "x", 0x0, 0xd
	DCB	0x0, 0xa, 0x0, 0x0, 0x0			; `string'

  00000			 AREA	 |.rdata|, DATA, READONLY
|??_C@_1FI@GLILKAEG@?$AA?$CK?$AA?$CK?$AA?$CK?$AA?5?$AAU?$AAn?$AAH?$AAa?$AAn?$AAd?$AAl?$AAe?$AAd?$AA?5?$AAG?$AAE?$AAT?$AA_?$AAD?$AAE?$AAS?$AAC?$AAR?$AAI?$AAP?$AAT?$AAO?$AAR?$AA?5?$AAr?$AAe?$AAq@| DCB "*"
	DCB	0x0, "*", 0x0, "*", 0x0, " ", 0x0, "U", 0x0, "n", 0x0, "H"
	DCB	0x0, "a", 0x0, "n", 0x0, "d", 0x0, "l", 0x0, "e", 0x0, "d"
	DCB	0x0, " ", 0x0, "G", 0x0, "E", 0x0, "T", 0x0, "_", 0x0, "D"
	DCB	0x0, "E", 0x0, "S", 0x0, "C", 0x0, "R", 0x0, "I", 0x0, "P"
	DCB	0x0, "T", 0x0, "O", 0x0, "R", 0x0, " ", 0x0, "r", 0x0, "e"
	DCB	0x0, "q", 0x0, "u", 0x0, "e", 0x0, "s", 0x0, "t", 0x0, ":"
	DCB	0x0, "0", 0x0, "x", 0x0, "%", 0x0, "x", 0x0, 0xd, 0x0, 0xa
	DCB	0x0, 0x0, 0x0				; `string'

  00000			 AREA	 |.rdata|, DATA, READONLY
|??_C@_1CO@NANJHOKH@?$AA?$CK?$AA?$CK?$AA?$CK?$AAR?$AAe?$AAq?$AAu?$AAe?$AAs?$AAt?$AAT?$AAy?$AAp?$AAe?$AA?$DN?$AA?$DN?$AA0?$AAx?$AA0?$AA2?$AA?$AN?$AA?6?$AA?$AA@| DCB "*"
	DCB	0x0, "*", 0x0, "*", 0x0, "R", 0x0, "e", 0x0, "q", 0x0, "u"
	DCB	0x0, "e", 0x0, "s", 0x0, "t", 0x0, "T", 0x0, "y", 0x0, "p"
	DCB	0x0, "e", 0x0, "=", 0x0, "=", 0x0, "0", 0x0, "x", 0x0, "0"
	DCB	0x0, "2", 0x0, 0xd, 0x0, 0xa, 0x0, 0x0, 0x0 ; `string'

  00000			 AREA	 |.rdata|, DATA, READONLY
|??_C@_1CO@MDAODOFD@?$AA?$CK?$AA?$CK?$AA?$CK?$AAR?$AAe?$AAq?$AAu?$AAe?$AAs?$AAt?$AAT?$AAy?$AAp?$AAe?$AA?$DN?$AA?$DN?$AA0?$AAx?$AA8?$AA2?$AA?$AN?$AA?6?$AA?$AA@| DCB "*"
	DCB	0x0, "*", 0x0, "*", 0x0, "R", 0x0, "e", 0x0, "q", 0x0, "u"
	DCB	0x0, "e", 0x0, "s", 0x0, "t", 0x0, "T", 0x0, "y", 0x0, "p"
	DCB	0x0, "e", 0x0, "=", 0x0, "=", 0x0, "0", 0x0, "x", 0x0, "8"
	DCB	0x0, "2", 0x0, 0xd, 0x0, 0xa, 0x0, 0x0, 0x0 ; `string'

  00000			 AREA	 |.rdata|, DATA, READONLY
|??_C@_1EM@PLFMLLKO@?$AA?$CK?$AA?$CK?$AA?$CK?$AA?$CK?$AA?5?$AAU?$AAn?$AAh?$AAa?$AAn?$AAd?$AAl?$AAe?$AAd?$AA?5?$AAv?$AAe?$AAr?$AAn?$AAd?$AAo?$AAr?$AA?5?$AAc?$AAo?$AAm?$AAm?$AAa?$AAn?$AAd?$AA?5?$AA0@| DCB "*"
	DCB	0x0, "*", 0x0, "*", 0x0, "*", 0x0, " ", 0x0, "U", 0x0, "n"
	DCB	0x0, "h", 0x0, "a", 0x0, "n", 0x0, "d", 0x0, "l", 0x0, "e"
	DCB	0x0, "d", 0x0, " ", 0x0, "v", 0x0, "e", 0x0, "r", 0x0, "n"
	DCB	0x0, "d", 0x0, "o", 0x0, "r", 0x0, " ", 0x0, "c", 0x0, "o"
	DCB	0x0, "m", 0x0, "m", 0x0, "a", 0x0, "n", 0x0, "d", 0x0, " "
	DCB	0x0, "0", 0x0, "x", 0x0, "%", 0x0, "x", 0x0, 0xd, 0x0, 0xa
	DCB	0x0, 0x0, 0x0				; `string'
; Function compile flags: /Ogspy

  00000			 AREA	 |.text|, CODE, ARM

  00000		 |HandleSetupPacket| PROC

; 430  : {

  00000		 |$LN56@HandleSetu|
  00000	e92d4030	 stmdb       sp!, {r4, r5, lr}
  00004		 |$M47133|
  00004	e1a04001	 mov         r4, r1
  00008	e1a05000	 mov         r5, r0

; 431  :     if (pUdr->bmRequestType & (USB_REQUEST_CLASS | USB_REQUEST_VENDOR)) {

  0000c	e5d53000	 ldrb        r3, [r5]
  00010	e3130060	 tst         r3, #0x60
  00014	0a000010	 beq         |$LN22@HandleSetu|

; 432  :         if (PDD_DoVendorCommand(pUdr, pRequest)) {

  00018	eb000000	 bl          PDD_DoVendorCommand
  0001c	e3500000	 cmp         r0, #0
  00020	1a00004b	 bne         |$LN35@HandleSetu|

; 433  :             // do nothing
; 434  :         } else {
; 435  :             OALMSG(OAL_ERROR, (
; 436  :                 L"**** Unhandled verndor command 0x%x\r\n", pUdr->bRequest
; 437  :             ));

  00024	e59f3138	 ldr         r3, [pc, #0x138]
  00028	e5933440	 ldr         r3, [r3, #0x440]
  0002c	e3130001	 tst         r3, #1
  00030	15d51001	 ldrneb      r1, [r5, #1]
  00034	159f0138	 ldrne       r0, [pc, #0x138]
  00038	1b000000	 blne        NKDbgPrintfW

; 438  :             pRequest->eDir = EP0Setup;

  0003c	e3a03000	 mov         r3, #0
  00040	e5843000	 str         r3, [r4]

; 439  :             pRequest->pucData = NULL;

  00044	e5843004	 str         r3, [r4, #4]

; 440  :             pRequest->dwExpectedSize = 0;

  00048	e5843008	 str         r3, [r4, #8]

; 441  :             pRequest->dwActualSize = 0;

  0004c	e584300c	 str         r3, [r4, #0xC]

; 442  :             pRequest->pfnNotification = NULL;

  00050	e5843010	 str         r3, [r4, #0x10]

; 443  :             pRequest->pvUser = NULL;

  00054	e5843014	 str         r3, [r4, #0x14]

; 444  :         }
; 445  :         return TRUE;

  00058	ea00003d	 b           |$LN35@HandleSetu|
  0005c		 |$LN22@HandleSetu|

; 446  :     }
; 447  : 
; 448  :     // standard chapter 9 commands
; 449  :     pRequest->eDir = EP0Setup;

  0005c	e3a03000	 mov         r3, #0
  00060	e5843000	 str         r3, [r4]

; 450  :     pRequest->pucData = NULL;

  00064	e5843004	 str         r3, [r4, #4]

; 451  :     pRequest->dwExpectedSize = 0;

  00068	e5843008	 str         r3, [r4, #8]

; 452  :     pRequest->dwActualSize = 0;

  0006c	e584300c	 str         r3, [r4, #0xC]

; 453  :     pRequest->pfnNotification = NULL;

  00070	e5843010	 str         r3, [r4, #0x10]

; 454  :     pRequest->pvUser = NULL;

  00074	e5843014	 str         r3, [r4, #0x14]

; 455  : 
; 456  :     switch(pUdr->bRequest) {

  00078	e5d51001	 ldrb        r1, [r5, #1]
  0007c	e351000c	 cmp         r1, #0xC
  00080	8a00002d	 bhi         |$LN1@HandleSetu|
  00084	e28f3004	 add         r3, pc, #4
  00088	e7d33001	 ldrb        r3, [r3, +r1]
  0008c	e08ff003	 add         pc, pc, r3
  00090		 |$LN40@HandleSetu|
  00090		 |$LN39@HandleSetu|
  00090		 |$LN41@HandleSetu|
  00090	0ced		 DCB         0xc
  00091		 |$LN42@HandleSetu|
  00091	34ed		 DCB         0x34
  00092		 |$LN43@HandleSetu|
  00092	a8ed		 DCB         0xa8
  00093		 |$LN44@HandleSetu|
  00093	34ed		 DCB         0x34
  00094		 |$LN45@HandleSetu|
  00094	a8ed		 DCB         0xa8
  00095		 |$LN46@HandleSetu|
  00095	c0ed		 DCB         0xc0
  00096		 |$LN47@HandleSetu|
  00096	5ced		 DCB         0x5c
  00097		 |$LN48@HandleSetu|
  00097	c0ed		 DCB         0xc0
  00098		 |$LN49@HandleSetu|
  00098	c0ed		 DCB         0xc0
  00099		 |$LN50@HandleSetu|
  00099	94ed		 DCB         0x94
  0009a		 |$LN51@HandleSetu|
  0009a	c0ed		 DCB         0xc0
  0009b		 |$LN52@HandleSetu|
  0009b	c0ed		 DCB         0xc0
  0009c		 |$LN53@HandleSetu|
  0009c	c0ed		 DCB         0xc0
  0009d		 |$LN64@HandleSetu|

; 527  : }

  0009d	c0ed		 DCB         0xc0
  0009e		 |$LN65@HandleSetu|
  0009e	c0ed		 DCB         0xc0
  0009f		 |$LN66@HandleSetu|
  0009f	c0ed		 DCB         0xc0
  000a0		 |$LN17@HandleSetu|

; 457  :         case USB_REQUEST_GET_STATUS:
; 458  :             if (pUdr->bmRequestType == 0x82) {

  000a0	e5d53000	 ldrb        r3, [r5]
  000a4	e3530082	 cmp         r3, #0x82
  000a8	1a000029	 bne         |$LN35@HandleSetu|

; 459  :                 // TODO: handle this
; 460  :                 OALMSG(OAL_WARN, (L"***RequestType==0x82\r\n"));

  000ac	e59f30b0	 ldr         r3, [pc, #0xB0]
  000b0	e5933440	 ldr         r3, [r3, #0x440]
  000b4	e3130002	 tst         r3, #2
  000b8	0a000025	 beq         |$LN35@HandleSetu|
  000bc	e59f00ac	 ldr         r0, [pc, #0xAC]
  000c0	eb000000	 bl          NKDbgPrintfW

; 461  :                 // check for the stall bit
; 462  :             }
; 463  :             break;

  000c4	ea000022	 b           |$LN35@HandleSetu|
  000c8		 |$LN15@HandleSetu|

; 464  : 
; 465  :         case USB_REQUEST_CLEAR_FEATURE:
; 466  :             if (pUdr->bmRequestType == 0x02) {

  000c8	e5d53000	 ldrb        r3, [r5]
  000cc	e3530002	 cmp         r3, #2
  000d0	1a00001f	 bne         |$LN35@HandleSetu|

; 467  :                 // TODO: handle this
; 468  :                 OALMSG(OAL_WARN, (L"***RequestType==0x02\r\n"));

  000d4	e59f3088	 ldr         r3, [pc, #0x88]
  000d8	e5933440	 ldr         r3, [r3, #0x440]
  000dc	e3130002	 tst         r3, #2
  000e0	0a00001b	 beq         |$LN35@HandleSetu|
  000e4	e59f0080	 ldr         r0, [pc, #0x80]
  000e8	eb000000	 bl          NKDbgPrintfW
  000ec	ea000018	 b           |$LN35@HandleSetu|
  000f0		 |$LN10@HandleSetu|

; 469  :             }
; 470  :             break;
; 471  : 
; 472  :         case USB_REQUEST_SET_FEATURE:
; 473  :             if (pUdr->bmRequestType == 0x02) {
; 474  :                 // TODO: handle this
; 475  :                 OALMSG(OAL_WARN, (L"***RequestType==0x02\r\n"));
; 476  :             }
; 477  :             break;
; 478  : 
; 479  :         case USB_REQUEST_SET_ADDRESS:
; 480  :             // TODO: handle this
; 481  :             break;
; 482  : 
; 483  :         case USB_REQUEST_GET_DESCRIPTOR:
; 484  :             if (PDD_GetDescriptor(pUdr, pRequest)) {

  000f0	e1a01004	 mov         r1, r4
  000f4	e1a00005	 mov         r0, r5
  000f8	eb000000	 bl          PDD_GetDescriptor
  000fc	e3500000	 cmp         r0, #0
  00100	1a000013	 bne         |$LN35@HandleSetu|

; 485  :                 // do nothing
; 486  :             } else {
; 487  :                 OALMSG(OAL_ERROR, (
; 488  :                     L"*** UnHandled GET_DESCRIPTOR request:0x%x\r\n",
; 489  :                     pUdr->wValue
; 490  :                 ));

  00104	e59f3058	 ldr         r3, [pc, #0x58]
  00108	e5933440	 ldr         r3, [r3, #0x440]
  0010c	e3130001	 tst         r3, #1
  00110	0a00000f	 beq         |$LN35@HandleSetu|
  00114	e5d52002	 ldrb        r2, [r5, #2]
  00118	e5d53003	 ldrb        r3, [r5, #3]
  0011c	e59f0044	 ldr         r0, [pc, #0x44]
  00120	e1821403	 orr         r1, r2, r3, lsl #8

; 491  :             }
; 492  :             break;

  00124	ea000009	 b           |$LN37@HandleSetu|
  00128		 |$LN5@HandleSetu|
  00128	e3a03c13	 mov         r3, #0x13, 24

; 493  : 
; 494  :         case USB_REQUEST_SET_DESCRIPTOR:
; 495  :             // TODO: handle this
; 496  :             break;
; 497  : 
; 498  :         case USB_REQUEST_GET_CONFIGURATION:
; 499  :             // TODO: handle this
; 500  :             break;
; 501  : 
; 502  :         case USB_REQUEST_SET_CONFIGURATION:
; 503  :             OALStall(5000);

  0012c	e3830088	 orr         r0, r3, #0x88
  00130	eb000000	 bl          OALStall

; 504  :             // setup RX transfer on EP1
; 505  :             SetupEP1Transfer();

  00134	eb000000	 bl          SetupEP1Transfer

; 506  :             ////pDev->ucConfigValue = (BYTE)pUdr->wValue;
; 507  :             break;

  00138	ea000005	 b           |$LN35@HandleSetu|
  0013c		 |$LN1@HandleSetu|

; 508  : 
; 509  :         case USB_REQUEST_GET_INTERFACE:
; 510  :             // TODO: handle this
; 511  :             break;
; 512  : 
; 513  :         case USB_REQUEST_SET_INTERFACE:
; 514  :             // TODO: handle this
; 515  :             break;
; 516  : 
; 517  :         case USB_REQUEST_SYNC_FRAME:
; 518  :             // TODO: handle this
; 519  :             break;
; 520  : 
; 521  :         default:
; 522  :             OALMSG(OAL_WARN, (
; 523  :                 L"*** Unknown request 0x%x\r\n", pUdr->bRequest
; 524  :             ));

  0013c	e59f3020	 ldr         r3, [pc, #0x20]
  00140	e5933440	 ldr         r3, [r3, #0x440]
  00144	e3130002	 tst         r3, #2
  00148	0a000001	 beq         |$LN35@HandleSetu|
  0014c	e59f000c	 ldr         r0, [pc, #0xC]
  00150		 |$LN37@HandleSetu|
  00150	eb000000	 bl          NKDbgPrintfW
  00154		 |$LN35@HandleSetu|

; 525  :     }
; 526  :     return TRUE;

  00154	e3a00001	 mov         r0, #1

; 527  : }

  00158	e8bd4030	 ldmia       sp!, {r4, r5, lr}
  0015c	e12fff1e	 bx          lr
  00160		 |$LN57@HandleSetu|
  00160		 |$LN58@HandleSetu|
  00160	00000000	 DCD         |??_C@_1DG@HDGBABFG@?$AA?$CK?$AA?$CK?$AA?$CK?$AA?5?$AAU?$AAn?$AAk?$AAn?$AAo?$AAw?$AAn?$AA?5?$AAr?$AAe?$AAq?$AAu?$AAe?$AAs?$AAt?$AA?5?$AA0?$AAx?$AA?$CF?$AAx?$AA?$AN?$AA?6?$AA?$AA@|
  00164		 |$LN59@HandleSetu|
  00164	00000000	 DCD         |dpCurSettings|
  00168		 |$LN60@HandleSetu|
  00168	00000000	 DCD         |??_C@_1FI@GLILKAEG@?$AA?$CK?$AA?$CK?$AA?$CK?$AA?5?$AAU?$AAn?$AAH?$AAa?$AAn?$AAd?$AAl?$AAe?$AAd?$AA?5?$AAG?$AAE?$AAT?$AA_?$AAD?$AAE?$AAS?$AAC?$AAR?$AAI?$AAP?$AAT?$AAO?$AAR?$AA?5?$AAr?$AAe?$AAq@|
  0016c		 |$LN61@HandleSetu|
  0016c	00000000	 DCD         |??_C@_1CO@NANJHOKH@?$AA?$CK?$AA?$CK?$AA?$CK?$AAR?$AAe?$AAq?$AAu?$AAe?$AAs?$AAt?$AAT?$AAy?$AAp?$AAe?$AA?$DN?$AA?$DN?$AA0?$AAx?$AA0?$AA2?$AA?$AN?$AA?6?$AA?$AA@|
  00170		 |$LN62@HandleSetu|
  00170	00000000	 DCD         |??_C@_1CO@MDAODOFD@?$AA?$CK?$AA?$CK?$AA?$CK?$AAR?$AAe?$AAq?$AAu?$AAe?$AAs?$AAt?$AAT?$AAy?$AAp?$AAe?$AA?$DN?$AA?$DN?$AA0?$AAx?$AA8?$AA2?$AA?$AN?$AA?6?$AA?$AA@|
  00174		 |$LN63@HandleSetu|
  00174	00000000	 DCD         |??_C@_1EM@PLFMLLKO@?$AA?$CK?$AA?$CK?$AA?$CK?$AA?$CK?$AA?5?$AAU?$AAn?$AAh?$AAa?$AAn?$AAd?$AAl?$AAe?$AAd?$AA?5?$AAv?$AAe?$AAr?$AAn?$AAd?$AAo?$AAr?$AA?5?$AAc?$AAo?$AAm?$AAm?$AAa?$AAn?$AAd?$AA?5?$AA0@|
  00178		 |$M47134|

			 ENDP  ; |HandleSetupPacket|

	EXPORT	|TxComplete|
	EXPORT	|??_C@_1O@KIJBGEAN@?$AAD?$AAo?$AAn?$AAe?$AA?$AN?$AA?6?$AA?$AA@| [ DATA ] ; `string'
	EXPORT	|??_C@_1FG@LFHLPLMG@?$AAS?$AAe?$AAn?$AAd?$AAP?$AAa?$AAc?$AAk?$AAe?$AAt?$AA?5?$AAr?$AAe?$AAq?$AAu?$AAe?$AAs?$AAt?$AA?5?$AAc?$AAo?$AAm?$AAp?$AAl?$AAe?$AAt?$AAe?$AAd?$AA?$CB?$AA?5?$AA?$FL?$AA?$CF@| [ DATA ] ; `string'
	IMPORT	|MddSendRndisPacketComplete|

  00000			 AREA	 |.pdata|, PDATA
|$T47157| DCD	|$LN9@TxComplete|
	DCD	0x40001a01

  00000			 AREA	 |.rdata|, DATA, READONLY
|??_C@_1O@KIJBGEAN@?$AAD?$AAo?$AAn?$AAe?$AA?$AN?$AA?6?$AA?$AA@| DCB "D", 0x0
	DCB	"o", 0x0, "n", 0x0, "e", 0x0, 0xd, 0x0, 0xa, 0x0, 0x0, 0x0 ; `string'

  00000			 AREA	 |.rdata|, DATA, READONLY
|??_C@_1FG@LFHLPLMG@?$AAS?$AAe?$AAn?$AAd?$AAP?$AAa?$AAc?$AAk?$AAe?$AAt?$AA?5?$AAr?$AAe?$AAq?$AAu?$AAe?$AAs?$AAt?$AA?5?$AAc?$AAo?$AAm?$AAp?$AAl?$AAe?$AAt?$AAe?$AAd?$AA?$CB?$AA?5?$AA?$FL?$AA?$CF@| DCB "S"
	DCB	0x0, "e", 0x0, "n", 0x0, "d", 0x0, "P", 0x0, "a", 0x0, "c"
	DCB	0x0, "k", 0x0, "e", 0x0, "t", 0x0, " ", 0x0, "r", 0x0, "e"
	DCB	0x0, "q", 0x0, "u", 0x0, "e", 0x0, "s", 0x0, "t", 0x0, " "
	DCB	0x0, "c", 0x0, "o", 0x0, "m", 0x0, "p", 0x0, "l", 0x0, "e"
	DCB	0x0, "t", 0x0, "e", 0x0, "d", 0x0, "!", 0x0, " ", 0x0, "["
	DCB	0x0, "%", 0x0, "d", 0x0, " ", 0x0, "b", 0x0, "y", 0x0, "t"
	DCB	0x0, "e", 0x0, "s", 0x0, "]", 0x0, 0xd, 0x0, 0xa, 0x0, 0x0
	DCB	0x0					; `string'
; Function compile flags: /Ogspy

  00000			 AREA	 |.text|, CODE, ARM

  00000		 |TxComplete| PROC

; 531  : {

  00000		 |$LN9@TxComplete|
  00000	e92d4030	 stmdb       sp!, {r4, r5, lr}
  00004		 |$M47154|

; 532  :     RNDIS_KITLDEV *pRndisKitlDev = &g_RndisKitlDev;
; 533  : 
; 534  :     OALMSG(OAL_ETHER&&OAL_FUNC, (
; 535  :         L"SendPacket request completed! [%d bytes]\r\n", 
; 536  :         g_EP2Transfer.cbTransferred 
; 537  :     ));

  00004	e59f4058	 ldr         r4, [pc, #0x58]
  00008	e5943440	 ldr         r3, [r4, #0x440]
  0000c	e3130a02	 tst         r3, #2, 20
  00010	13130004	 tstne       r3, #4
  00014	159f3044	 ldrne       r3, [pc, #0x44]
  00018	159f003c	 ldrne       r0, [pc, #0x3C]
  0001c	15931010	 ldrne       r1, [r3, #0x10]
  00020	1b000000	 blne        NKDbgPrintfW

; 538  :     MddSendRndisPacketComplete(pRndisKitlDev->pTxDataWrapper);

  00024	e59f502c	 ldr         r5, [pc, #0x2C]
  00028	e595043c	 ldr         r0, [r5, #0x43C]
  0002c	eb000000	 bl          MddSendRndisPacketComplete

; 539  : 
; 540  :     OALMSG(OAL_ETHER&&OAL_FUNC, (L"Done\r\n"));

  00030	e5943440	 ldr         r3, [r4, #0x440]
  00034	e3130a02	 tst         r3, #2, 20
  00038	13130004	 tstne       r3, #4
  0003c	159f0010	 ldrne       r0, [pc, #0x10]
  00040	1b000000	 blne        NKDbgPrintfW

; 541  :     pRndisKitlDev->pTxDataWrapper = NULL;

  00044	e3a03000	 mov         r3, #0
  00048	e585343c	 str         r3, [r5, #0x43C]

; 542  : }

  0004c	e8bd4030	 ldmia       sp!, {r4, r5, lr}
  00050	e12fff1e	 bx          lr
  00054		 |$LN10@TxComplete|
  00054		 |$LN11@TxComplete|
  00054	00000000	 DCD         |??_C@_1O@KIJBGEAN@?$AAD?$AAo?$AAn?$AAe?$AA?$AN?$AA?6?$AA?$AA@|
  00058		 |$LN12@TxComplete|
  00058	00000000	 DCD         |g_RndisKitlDev|
  0005c		 |$LN13@TxComplete|
  0005c	00000000	 DCD         |??_C@_1FG@LFHLPLMG@?$AAS?$AAe?$AAn?$AAd?$AAP?$AAa?$AAc?$AAk?$AAe?$AAt?$AA?5?$AAr?$AAe?$AAq?$AAu?$AAe?$AAs?$AAt?$AA?5?$AAc?$AAo?$AAm?$AAp?$AAl?$AAe?$AAt?$AAe?$AAd?$AA?$CB?$AA?5?$AA?$FL?$AA?$CF@|
  00060		 |$LN14@TxComplete|
  00060	00000000	 DCD         |g_EP2Transfer|
  00064		 |$LN15@TxComplete|
  00064	00000000	 DCD         |dpCurSettings|
  00068		 |$M47155|

			 ENDP  ; |TxComplete|

	EXPORT	|NotifyHandler|
	EXPORT	|??_C@_1FM@FDJOONCJ@?$AAG?$AAo?$AAt?$AA?5?$AAS?$AAE?$AAT?$AAU?$AAP?$AA?5?$AA?$DM?$AAN?$AAO?$AA?5?$AAD?$AAA?$AAT?$AAA?$AA?3?$AA?5?$AA?$CF?$AAx?$AA?5?$AA?$CF?$AAx?$AA?5?$AA?$CF?$AAx?$AA?5?$AA?$CF?$AAx?$AA?5@| [ DATA ] ; `string'
	EXPORT	|??_C@_1DA@MJLPENBD@?$AAG?$AAo?$AAt?$AA?5?$AAS?$AAE?$AAT?$AAU?$AAP?$AA?5?$AAO?$AAU?$AAT?$AA?5?$AAp?$AAa?$AAc?$AAk?$AAe?$AAt?$AA?4?$AA?$AN?$AA?6?$AA?$AA@| [ DATA ] ; `string'
	EXPORT	|??_C@_1CM@NHNGDKFM@?$AAG?$AAo?$AAt?$AA?5?$AAS?$AAE?$AAT?$AAU?$AAP?$AA?5?$AAI?$AAN?$AA?5?$AAp?$AAa?$AAc?$AAk?$AAe?$AAt?$AA?$AN?$AA?6?$AA?$AA@| [ DATA ] ; `string'
	EXPORT	|??_C@_1DK@CJOHLCDF@?$AAE?$AAR?$AAR?$AAO?$AAR?$AA?5?$AAP?$AAA?$AAR?$AAS?$AAI?$AAN?$AAG?$AA?5?$AAS?$AAE?$AAT?$AAU?$AAP?$AA?5?$AAP?$AAA?$AAC?$AAK?$AAE?$AAT?$AA?$AN?$AA?6?$AA?$AA@| [ DATA ] ; `string'
	EXPORT	|??_C@_1CI@KCINNAAK@?$AAI?$AAN?$AAV?$AAA?$AAL?$AAI?$AAD?$AA?5?$AAT?$AAR?$AAA?$AAN?$AAS?$AAF?$AAE?$AAR?$AA?$CB?$AA?$AN?$AA?6?$AA?$AA@| [ DATA ] ; `string'
	EXPORT	|??_C@_1EG@NBFJCBDP@?$AAE?$AAP?$AA3?$AA?5?$AAI?$AAn?$AAt?$AAe?$AAr?$AAr?$AAu?$AAp?$AAt?$AA?5?$AAs?$AAu?$AAc?$AAc?$AAe?$AAs?$AAs?$AAf?$AAu?$AAl?$AAl?$AAy?$AA?5?$AAs?$AAe?$AAn?$AAt?$AA?$CB@| [ DATA ] ; `string'
	EXPORT	|??_C@_1DO@PFNPIHHC@?$AAU?$AAn?$AAe?$AAx?$AAp?$AAe?$AAc?$AAt?$AAe?$AAd?$AA?5?$AAE?$AAP?$AA2?$AA?5?$AAt?$AAr?$AAa?$AAn?$AAs?$AAf?$AAe?$AAr?$AA?5?$AAs?$AAt?$AAa?$AAt?$AAe?$AA?$CB?$AA?$AA@| [ DATA ] ; `string'
	EXPORT	|??_C@_1EG@NEPEKMDB@?$AAS?$AAe?$AAn?$AAd?$AAP?$AAa?$AAc?$AAk?$AAe?$AAt?$AA?5?$AAN?$AAU?$AAL?$AAL?$AA?5?$AAt?$AAe?$AAr?$AAm?$AAi?$AAn?$AAa?$AAt?$AAo?$AAr?$AA?5?$AAs?$AAe?$AAn?$AAt?$AA?$CB@| [ DATA ] ; `string'
	EXPORT	|??_C@_1FI@KOMJGPLF@?$AAS?$AAe?$AAn?$AAd?$AAi?$AAn?$AAg?$AA?5?$AAN?$AAU?$AAL?$AAL?$AA?5?$AAt?$AAe?$AAr?$AAm?$AAi?$AAn?$AAa?$AAt?$AAo?$AAr?$AA?5?$AAf?$AAo?$AAr?$AA?5?$AAt?$AAh?$AAe?$AA?5@| [ DATA ] ; `string'
	EXPORT	|??_C@_1EA@ODINLGJJ@?$AAR?$AAe?$AAc?$AAe?$AAi?$AAv?$AAe?$AAd?$AA?5?$AAa?$AA?5?$AAp?$AAa?$AAc?$AAk?$AAe?$AAt?$AA?5?$AA?$FL?$AA?$CF?$AAd?$AA?5?$AAb?$AAy?$AAt?$AAe?$AAs?$AA?$FN?$AA?$CB?$AA?$AN?$AA?6?$AA?$AA@| [ DATA ] ; `string'
	EXPORT	|??_C@_1CM@FNJKEBIB@?$AAR?$AAe?$AAc?$AAe?$AAi?$AAv?$AAe?$AAd?$AA?5?$AAa?$AA?5?$AAm?$AAe?$AAs?$AAs?$AAa?$AAg?$AAe?$AA?$CB?$AA?$AN?$AA?6?$AA?$AA@| [ DATA ] ; `string'
	EXPORT	|??_C@_1CO@MJKBFNNP@?$AAD?$AAo?$AAn?$AAe?$AA?5?$AAr?$AAe?$AAc?$AAe?$AAi?$AAv?$AAi?$AAn?$AAg?$AA?5?$AAd?$AAa?$AAt?$AAa?$AA?4?$AA?$AN?$AA?6?$AA?$AA@| [ DATA ] ; `string'
	EXPORT	|??_C@_1EC@LJDGALBJ@?$AAS?$AAe?$AAn?$AAd?$AAM?$AAe?$AAs?$AAs?$AAa?$AAg?$AAe?$AA?5?$AAr?$AAe?$AAq?$AAu?$AAe?$AAs?$AAt?$AA?5?$AAc?$AAo?$AAm?$AAp?$AAl?$AAe?$AAt?$AAe?$AAd?$AA?$CB?$AA?$AN?$AA?6@| [ DATA ] ; `string'
	EXPORT	|??_C@_1CK@FEGGBLDE@?$AAD?$AAo?$AAn?$AAe?$AA?5?$AAs?$AAe?$AAn?$AAd?$AAi?$AAn?$AAg?$AA?5?$AAd?$AAa?$AAt?$AAa?$AA?4?$AA?$AN?$AA?6?$AA?$AA@| [ DATA ] ; `string'
	IMPORT	|MddIndicateRndisPacket|
	IMPORT	|memcpy|
	IMPORT	|memset|

  00000			 AREA	 |.pdata|, PDATA
|$T47208| DCD	|$LN80@NotifyHand|
	DCD	0x40015402

  00000			 AREA	 |.rdata|, DATA, READONLY
|??_C@_1FM@FDJOONCJ@?$AAG?$AAo?$AAt?$AA?5?$AAS?$AAE?$AAT?$AAU?$AAP?$AA?5?$AA?$DM?$AAN?$AAO?$AA?5?$AAD?$AAA?$AAT?$AAA?$AA?3?$AA?5?$AA?$CF?$AAx?$AA?5?$AA?$CF?$AAx?$AA?5?$AA?$CF?$AAx?$AA?5?$AA?$CF?$AAx?$AA?5@| DCB "G"
	DCB	0x0, "o", 0x0, "t", 0x0, " ", 0x0, "S", 0x0, "E", 0x0, "T"
	DCB	0x0, "U", 0x0, "P", 0x0, " ", 0x0, "<", 0x0, "N", 0x0, "O"
	DCB	0x0, " ", 0x0, "D", 0x0, "A", 0x0, "T", 0x0, "A", 0x0, ":"
	DCB	0x0, " ", 0x0, "%", 0x0, "x", 0x0, " ", 0x0, "%", 0x0, "x"
	DCB	0x0, " ", 0x0, "%", 0x0, "x", 0x0, " ", 0x0, "%", 0x0, "x"
	DCB	0x0, " ", 0x0, "%", 0x0, "x", 0x0, ">", 0x0, " ", 0x0, "p"
	DCB	0x0, "a", 0x0, "c", 0x0, "k", 0x0, "e", 0x0, "t", 0x0, "."
	DCB	0x0, 0xd, 0x0, 0xa, 0x0, 0x0, 0x0	; `string'

  00000			 AREA	 |.rdata|, DATA, READONLY
|??_C@_1DA@MJLPENBD@?$AAG?$AAo?$AAt?$AA?5?$AAS?$AAE?$AAT?$AAU?$AAP?$AA?5?$AAO?$AAU?$AAT?$AA?5?$AAp?$AAa?$AAc?$AAk?$AAe?$AAt?$AA?4?$AA?$AN?$AA?6?$AA?$AA@| DCB "G"
	DCB	0x0, "o", 0x0, "t", 0x0, " ", 0x0, "S", 0x0, "E", 0x0, "T"
	DCB	0x0, "U", 0x0, "P", 0x0, " ", 0x0, "O", 0x0, "U", 0x0, "T"
	DCB	0x0, " ", 0x0, "p", 0x0, "a", 0x0, "c", 0x0, "k", 0x0, "e"
	DCB	0x0, "t", 0x0, ".", 0x0, 0xd, 0x0, 0xa, 0x0, 0x0, 0x0 ; `string'

  00000			 AREA	 |.rdata|, DATA, READONLY
|??_C@_1CM@NHNGDKFM@?$AAG?$AAo?$AAt?$AA?5?$AAS?$AAE?$AAT?$AAU?$AAP?$AA?5?$AAI?$AAN?$AA?5?$AAp?$AAa?$AAc?$AAk?$AAe?$AAt?$AA?$AN?$AA?6?$AA?$AA@| DCB "G"
	DCB	0x0, "o", 0x0, "t", 0x0, " ", 0x0, "S", 0x0, "E", 0x0, "T"
	DCB	0x0, "U", 0x0, "P", 0x0, " ", 0x0, "I", 0x0, "N", 0x0, " "
	DCB	0x0, "p", 0x0, "a", 0x0, "c", 0x0, "k", 0x0, "e", 0x0, "t"
	DCB	0x0, 0xd, 0x0, 0xa, 0x0, 0x0, 0x0	; `string'

  00000			 AREA	 |.rdata|, DATA, READONLY
|??_C@_1DK@CJOHLCDF@?$AAE?$AAR?$AAR?$AAO?$AAR?$AA?5?$AAP?$AAA?$AAR?$AAS?$AAI?$AAN?$AAG?$AA?5?$AAS?$AAE?$AAT?$AAU?$AAP?$AA?5?$AAP?$AAA?$AAC?$AAK?$AAE?$AAT?$AA?$AN?$AA?6?$AA?$AA@| DCB "E"
	DCB	0x0, "R", 0x0, "R", 0x0, "O", 0x0, "R", 0x0, " ", 0x0, "P"
	DCB	0x0, "A", 0x0, "R", 0x0, "S", 0x0, "I", 0x0, "N", 0x0, "G"
	DCB	0x0, " ", 0x0, "S", 0x0, "E", 0x0, "T", 0x0, "U", 0x0, "P"
	DCB	0x0, " ", 0x0, "P", 0x0, "A", 0x0, "C", 0x0, "K", 0x0, "E"
	DCB	0x0, "T", 0x0, 0xd, 0x0, 0xa, 0x0, 0x0, 0x0 ; `string'

  00000			 AREA	 |.rdata|, DATA, READONLY
|??_C@_1CI@KCINNAAK@?$AAI?$AAN?$AAV?$AAA?$AAL?$AAI?$AAD?$AA?5?$AAT?$AAR?$AAA?$AAN?$AAS?$AAF?$AAE?$AAR?$AA?$CB?$AA?$AN?$AA?6?$AA?$AA@| DCB "I"
	DCB	0x0, "N", 0x0, "V", 0x0, "A", 0x0, "L", 0x0, "I", 0x0, "D"
	DCB	0x0, " ", 0x0, "T", 0x0, "R", 0x0, "A", 0x0, "N", 0x0, "S"
	DCB	0x0, "F", 0x0, "E", 0x0, "R", 0x0, "!", 0x0, 0xd, 0x0, 0xa
	DCB	0x0, 0x0, 0x0				; `string'

  00000			 AREA	 |.rdata|, DATA, READONLY
|??_C@_1EG@NBFJCBDP@?$AAE?$AAP?$AA3?$AA?5?$AAI?$AAn?$AAt?$AAe?$AAr?$AAr?$AAu?$AAp?$AAt?$AA?5?$AAs?$AAu?$AAc?$AAc?$AAe?$AAs?$AAs?$AAf?$AAu?$AAl?$AAl?$AAy?$AA?5?$AAs?$AAe?$AAn?$AAt?$AA?$CB@| DCB "E"
	DCB	0x0, "P", 0x0, "3", 0x0, " ", 0x0, "I", 0x0, "n", 0x0, "t"
	DCB	0x0, "e", 0x0, "r", 0x0, "r", 0x0, "u", 0x0, "p", 0x0, "t"
	DCB	0x0, " ", 0x0, "s", 0x0, "u", 0x0, "c", 0x0, "c", 0x0, "e"
	DCB	0x0, "s", 0x0, "s", 0x0, "f", 0x0, "u", 0x0, "l", 0x0, "l"
	DCB	0x0, "y", 0x0, " ", 0x0, "s", 0x0, "e", 0x0, "n", 0x0, "t"
	DCB	0x0, "!", 0x0, 0xd, 0x0, 0xa, 0x0, 0x0, 0x0 ; `string'

  00000			 AREA	 |.rdata|, DATA, READONLY
|??_C@_1DO@PFNPIHHC@?$AAU?$AAn?$AAe?$AAx?$AAp?$AAe?$AAc?$AAt?$AAe?$AAd?$AA?5?$AAE?$AAP?$AA2?$AA?5?$AAt?$AAr?$AAa?$AAn?$AAs?$AAf?$AAe?$AAr?$AA?5?$AAs?$AAt?$AAa?$AAt?$AAe?$AA?$CB?$AA?$AA@| DCB "U"
	DCB	0x0, "n", 0x0, "e", 0x0, "x", 0x0, "p", 0x0, "e", 0x0, "c"
	DCB	0x0, "t", 0x0, "e", 0x0, "d", 0x0, " ", 0x0, "E", 0x0, "P"
	DCB	0x0, "2", 0x0, " ", 0x0, "t", 0x0, "r", 0x0, "a", 0x0, "n"
	DCB	0x0, "s", 0x0, "f", 0x0, "e", 0x0, "r", 0x0, " ", 0x0, "s"
	DCB	0x0, "t", 0x0, "a", 0x0, "t", 0x0, "e", 0x0, "!", 0x0, 0x0
	DCB	0x0					; `string'

  00000			 AREA	 |.rdata|, DATA, READONLY
|??_C@_1EG@NEPEKMDB@?$AAS?$AAe?$AAn?$AAd?$AAP?$AAa?$AAc?$AAk?$AAe?$AAt?$AA?5?$AAN?$AAU?$AAL?$AAL?$AA?5?$AAt?$AAe?$AAr?$AAm?$AAi?$AAn?$AAa?$AAt?$AAo?$AAr?$AA?5?$AAs?$AAe?$AAn?$AAt?$AA?$CB@| DCB "S"
	DCB	0x0, "e", 0x0, "n", 0x0, "d", 0x0, "P", 0x0, "a", 0x0, "c"
	DCB	0x0, "k", 0x0, "e", 0x0, "t", 0x0, " ", 0x0, "N", 0x0, "U"
	DCB	0x0, "L", 0x0, "L", 0x0, " ", 0x0, "t", 0x0, "e", 0x0, "r"
	DCB	0x0, "m", 0x0, "i", 0x0, "n", 0x0, "a", 0x0, "t", 0x0, "o"
	DCB	0x0, "r", 0x0, " ", 0x0, "s", 0x0, "e", 0x0, "n", 0x0, "t"
	DCB	0x0, "!", 0x0, 0xd, 0x0, 0xa, 0x0, 0x0, 0x0 ; `string'

  00000			 AREA	 |.rdata|, DATA, READONLY
|??_C@_1FI@KOMJGPLF@?$AAS?$AAe?$AAn?$AAd?$AAi?$AAn?$AAg?$AA?5?$AAN?$AAU?$AAL?$AAL?$AA?5?$AAt?$AAe?$AAr?$AAm?$AAi?$AAn?$AAa?$AAt?$AAo?$AAr?$AA?5?$AAf?$AAo?$AAr?$AA?5?$AAt?$AAh?$AAe?$AA?5@| DCB "S"
	DCB	0x0, "e", 0x0, "n", 0x0, "d", 0x0, "i", 0x0, "n", 0x0, "g"
	DCB	0x0, " ", 0x0, "N", 0x0, "U", 0x0, "L", 0x0, "L", 0x0, " "
	DCB	0x0, "t", 0x0, "e", 0x0, "r", 0x0, "m", 0x0, "i", 0x0, "n"
	DCB	0x0, "a", 0x0, "t", 0x0, "o", 0x0, "r", 0x0, " ", 0x0, "f"
	DCB	0x0, "o", 0x0, "r", 0x0, " ", 0x0, "t", 0x0, "h", 0x0, "e"
	DCB	0x0, " ", 0x0, "p", 0x0, "a", 0x0, "c", 0x0, "k", 0x0, "e"
	DCB	0x0, "t", 0x0, ".", 0x0, ".", 0x0, ".", 0x0, 0xd, 0x0, 0xa
	DCB	0x0, 0x0, 0x0				; `string'

  00000			 AREA	 |.rdata|, DATA, READONLY
|??_C@_1EA@ODINLGJJ@?$AAR?$AAe?$AAc?$AAe?$AAi?$AAv?$AAe?$AAd?$AA?5?$AAa?$AA?5?$AAp?$AAa?$AAc?$AAk?$AAe?$AAt?$AA?5?$AA?$FL?$AA?$CF?$AAd?$AA?5?$AAb?$AAy?$AAt?$AAe?$AAs?$AA?$FN?$AA?$CB?$AA?$AN?$AA?6?$AA?$AA@| DCB "R"
	DCB	0x0, "e", 0x0, "c", 0x0, "e", 0x0, "i", 0x0, "v", 0x0, "e"
	DCB	0x0, "d", 0x0, " ", 0x0, "a", 0x0, " ", 0x0, "p", 0x0, "a"
	DCB	0x0, "c", 0x0, "k", 0x0, "e", 0x0, "t", 0x0, " ", 0x0, "["
	DCB	0x0, "%", 0x0, "d", 0x0, " ", 0x0, "b", 0x0, "y", 0x0, "t"
	DCB	0x0, "e", 0x0, "s", 0x0, "]", 0x0, "!", 0x0, 0xd, 0x0, 0xa
	DCB	0x0, 0x0, 0x0				; `string'

  00000			 AREA	 |.rdata|, DATA, READONLY
|??_C@_1CM@FNJKEBIB@?$AAR?$AAe?$AAc?$AAe?$AAi?$AAv?$AAe?$AAd?$AA?5?$AAa?$AA?5?$AAm?$AAe?$AAs?$AAs?$AAa?$AAg?$AAe?$AA?$CB?$AA?$AN?$AA?6?$AA?$AA@| DCB "R"
	DCB	0x0, "e", 0x0, "c", 0x0, "e", 0x0, "i", 0x0, "v", 0x0, "e"
	DCB	0x0, "d", 0x0, " ", 0x0, "a", 0x0, " ", 0x0, "m", 0x0, "e"
	DCB	0x0, "s", 0x0, "s", 0x0, "a", 0x0, "g", 0x0, "e", 0x0, "!"
	DCB	0x0, 0xd, 0x0, 0xa, 0x0, 0x0, 0x0	; `string'

  00000			 AREA	 |.rdata|, DATA, READONLY
|??_C@_1CO@MJKBFNNP@?$AAD?$AAo?$AAn?$AAe?$AA?5?$AAr?$AAe?$AAc?$AAe?$AAi?$AAv?$AAi?$AAn?$AAg?$AA?5?$AAd?$AAa?$AAt?$AAa?$AA?4?$AA?$AN?$AA?6?$AA?$AA@| DCB "D"
	DCB	0x0, "o", 0x0, "n", 0x0, "e", 0x0, " ", 0x0, "r", 0x0, "e"
	DCB	0x0, "c", 0x0, "e", 0x0, "i", 0x0, "v", 0x0, "i", 0x0, "n"
	DCB	0x0, "g", 0x0, " ", 0x0, "d", 0x0, "a", 0x0, "t", 0x0, "a"
	DCB	0x0, ".", 0x0, 0xd, 0x0, 0xa, 0x0, 0x0, 0x0 ; `string'

  00000			 AREA	 |.rdata|, DATA, READONLY
|??_C@_1EC@LJDGALBJ@?$AAS?$AAe?$AAn?$AAd?$AAM?$AAe?$AAs?$AAs?$AAa?$AAg?$AAe?$AA?5?$AAr?$AAe?$AAq?$AAu?$AAe?$AAs?$AAt?$AA?5?$AAc?$AAo?$AAm?$AAp?$AAl?$AAe?$AAt?$AAe?$AAd?$AA?$CB?$AA?$AN?$AA?6@| DCB "S"
	DCB	0x0, "e", 0x0, "n", 0x0, "d", 0x0, "M", 0x0, "e", 0x0, "s"
	DCB	0x0, "s", 0x0, "a", 0x0, "g", 0x0, "e", 0x0, " ", 0x0, "r"
	DCB	0x0, "e", 0x0, "q", 0x0, "u", 0x0, "e", 0x0, "s", 0x0, "t"
	DCB	0x0, " ", 0x0, "c", 0x0, "o", 0x0, "m", 0x0, "p", 0x0, "l"
	DCB	0x0, "e", 0x0, "t", 0x0, "e", 0x0, "d", 0x0, "!", 0x0, 0xd
	DCB	0x0, 0xa, 0x0, 0x0, 0x0			; `string'

  00000			 AREA	 |.rdata|, DATA, READONLY
|??_C@_1CK@FEGGBLDE@?$AAD?$AAo?$AAn?$AAe?$AA?5?$AAs?$AAe?$AAn?$AAd?$AAi?$AAn?$AAg?$AA?5?$AAd?$AAa?$AAt?$AAa?$AA?4?$AA?$AN?$AA?6?$AA?$AA@| DCB "D"
	DCB	0x0, "o", 0x0, "n", 0x0, "e", 0x0, " ", 0x0, "s", 0x0, "e"
	DCB	0x0, "n", 0x0, "d", 0x0, "i", 0x0, "n", 0x0, "g", 0x0, " "
	DCB	0x0, "d", 0x0, "a", 0x0, "t", 0x0, "a", 0x0, ".", 0x0, 0xd
	DCB	0x0, 0xa, 0x0, 0x0, 0x0			; `string'
; Function compile flags: /Ogspy

  00000			 AREA	 |.text|, CODE, ARM

  00000		 |NotifyHandler| PROC

; 551  : {

  00000		 |$LN80@NotifyHand|
  00000	e92d40f0	 stmdb       sp!, {r4 - r7, lr}
  00004	e24dd028	 sub         sp, sp, #0x28
  00008		 |$M47205|
  00008	e1a05002	 mov         r5, r2

; 552  :     USB_DEVICE_REQUEST request;
; 553  :     EP0_REQUEST EP0Request;
; 554  :     STransfer *pTransfer;
; 555  : 
; 556  :     switch( dwMsg )

  0000c	e3510001	 cmp         r1, #1
  00010	0a00011c	 beq         |$LN14@NotifyHand|
  00014	e3510004	 cmp         r1, #4
  00018	0a0000b1	 beq         |$LN41@NotifyHand|
  0001c	e3510006	 cmp         r1, #6
  00020	0a0000a9	 beq         |$LN4@NotifyHand|
  00024	e3510064	 cmp         r1, #0x64
  00028	1a00012c	 bne         |$LN6@NotifyHand|

; 611  : 
; 612  :     case UFN_MSG_TRANSFER_COMPLETE: 
; 613  :         pTransfer = (STransfer *)dwParam;
; 614  :         if( pTransfer == &g_EP0Transfer )

  0002c	e59f34d4	 ldr         r3, [pc, #0x4D4]
  00030	e1550003	 cmp         r5, r3
  00034	1a000047	 bne         |$LN34@NotifyHand|

; 615  :         {
; 616  :             switch( g_EP0TransferState )

  00038	e59f44b0	 ldr         r4, [pc, #0x4B0]
  0003c	e594300c	 ldr         r3, [r4, #0xC]
  00040	e3530001	 cmp         r3, #1
  00044	0a000022	 beq         |$LN31@NotifyHand|
  00048	e3530002	 cmp         r3, #2
  0004c	1a000123	 bne         |$LN6@NotifyHand|

; 629  :                 break;
; 630  :             case TS_SENDING_MESSAGE:
; 631  :                 OALMSG(OAL_ETHER&&OAL_FUNC, (L"Done sending data.\r\n"));

  00050	e59f54bc	 ldr         r5, [pc, #0x4BC]
  00054	e5953440	 ldr         r3, [r5, #0x440]
  00058	e3130a02	 tst         r3, #2, 20
  0005c	13130004	 tstne       r3, #4
  00060	159f04e4	 ldrne       r0, [pc, #0x4E4]
  00064	1b000000	 blne        NKDbgPrintfW

; 632  : 
; 633  :                 g_EP0TransferState = TS_IDLE;
; 634  :                 g_pddInterface.pfnSendControlStatusHandshake( g_pddInterface.pvPddContext, 0 );

  00068	e59f3484	 ldr         r3, [pc, #0x484]
  0006c	e3a02000	 mov         r2, #0
  00070	e3a01000	 mov         r1, #0
  00074	e593000c	 ldr         r0, [r3, #0xC]
  00078	e5933044	 ldr         r3, [r3, #0x44]
  0007c	e584200c	 str         r2, [r4, #0xC]
  00080	e1a0e00f	 mov         lr, pc
  00084	e12fff13	 bx          r3

; 635  : 
; 636  :                 if (g_RndisKitlDev.EP0Request.pfnNotification) {

  00088	e59f447c	 ldr         r4, [pc, #0x47C]
  0008c	e5943010	 ldr         r3, [r4, #0x10]
  00090	e3530000	 cmp         r3, #0
  00094	0a000111	 beq         |$LN6@NotifyHand|

; 637  :                     OALMSG(OAL_ETHER&&OAL_FUNC, (L"SendMessage request completed!\r\n"));

  00098	e5953440	 ldr         r3, [r5, #0x440]
  0009c	e3130a02	 tst         r3, #2, 20
  000a0	13130004	 tstne       r3, #4
  000a4	159f049c	 ldrne       r0, [pc, #0x49C]
  000a8	1b000000	 blne        NKDbgPrintfW

; 638  :                     g_RndisKitlDev.EP0Request.pfnNotification(&g_RndisKitlDev.EP0Request, g_RndisKitlDev.EP0Request.pvUser);

  000ac	e5941014	 ldr         r1, [r4, #0x14]
  000b0	e5943010	 ldr         r3, [r4, #0x10]
  000b4	e1a00004	 mov         r0, r4
  000b8	e1a0e00f	 mov         lr, pc
  000bc	e12fff13	 bx          r3

; 639  : 
; 640  :                     //memset(&g_RndisKitlDev.EP0Request, 0, sizeof (g_RndisKitlDev.EP0Request));
; 641  :                     g_RndisKitlDev.EP0Request.pfnNotification = NULL;

  000c0	e3a03000	 mov         r3, #0
  000c4	e5843010	 str         r3, [r4, #0x10]

; 642  :                     g_RndisKitlDev.EP0Request.pvUser = NULL;

  000c8	e3a03000	 mov         r3, #0
  000cc	e5843014	 str         r3, [r4, #0x14]

; 643  :                 }
; 644  :                 break;

  000d0	ea000102	 b           |$LN6@NotifyHand|
  000d4		 |$LN31@NotifyHand|

; 617  :             {
; 618  :             case TS_RECEIVING_MESSAGE:
; 619  :                 g_EP0TransferState = TS_IDLE;
; 620  :                 OALMSG(OAL_ETHER&&OAL_FUNC, (L"Done receiving data.\r\n"));

  000d4	e59f5438	 ldr         r5, [pc, #0x438]
  000d8	e3a03000	 mov         r3, #0
  000dc	e584300c	 str         r3, [r4, #0xC]
  000e0	e5953440	 ldr         r3, [r5, #0x440]
  000e4	e3130a02	 tst         r3, #2, 20
  000e8	13130004	 tstne       r3, #4
  000ec	159f0450	 ldrne       r0, [pc, #0x450]
  000f0	1b000000	 blne        NKDbgPrintfW

; 621  : 
; 622  :                 g_pddInterface.pfnSendControlStatusHandshake( g_pddInterface.pvPddContext, 0 );

  000f4	e59f33f8	 ldr         r3, [pc, #0x3F8]
  000f8	e3a01000	 mov         r1, #0
  000fc	e593000c	 ldr         r0, [r3, #0xC]
  00100	e5933044	 ldr         r3, [r3, #0x44]
  00104	e1a0e00f	 mov         lr, pc
  00108	e12fff13	 bx          r3

; 623  : 
; 624  :                 if (g_RndisKitlDev.EP0Request.pfnNotification) {

  0010c	e59f43f8	 ldr         r4, [pc, #0x3F8]
  00110	e5943010	 ldr         r3, [r4, #0x10]
  00114	e3530000	 cmp         r3, #0
  00118	0a000009	 beq         |$LN30@NotifyHand|

; 625  :                     OALMSG(OAL_ETHER&&OAL_FUNC, (L"Received a message!\r\n"));

  0011c	e5953440	 ldr         r3, [r5, #0x440]
  00120	e3130a02	 tst         r3, #2, 20
  00124	13130004	 tstne       r3, #4
  00128	159f0410	 ldrne       r0, [pc, #0x410]
  0012c	1b000000	 blne        NKDbgPrintfW

; 626  :                     g_RndisKitlDev.EP0Request.pfnNotification(&g_RndisKitlDev.EP0Request, g_RndisKitlDev.EP0Request.pvUser);

  00130	e5941014	 ldr         r1, [r4, #0x14]
  00134	e5943010	 ldr         r3, [r4, #0x10]
  00138	e1a00004	 mov         r0, r4
  0013c	e1a0e00f	 mov         lr, pc
  00140	e12fff13	 bx          r3
  00144		 |$LN30@NotifyHand|

; 627  :                 }
; 628  :                 memset(&g_RndisKitlDev.EP0Request, 0, sizeof (g_RndisKitlDev.EP0Request));

  00144	e3a02020	 mov         r2, #0x20
  00148	e3a01000	 mov         r1, #0
  0014c	e1a00004	 mov         r0, r4
  00150	eb000000	 bl          memset

; 645  :             }
; 646  :         }
; 647  :         else if( pTransfer == &g_EP1Transfer )

  00154	ea0000e1	 b           |$LN6@NotifyHand|
  00158		 |$LN34@NotifyHand|
  00158	e59f33dc	 ldr         r3, [pc, #0x3DC]
  0015c	e1550003	 cmp         r5, r3
  00160	1a000010	 bne         |$LN26@NotifyHand|

; 648  :         {
; 649  :             // BULK OUT data received on EP1
; 650  :             OALMSG(OAL_ETHER&&OAL_FUNC, (
; 651  :                 L"Received a packet [%d bytes]!\r\n", pTransfer->cbTransferred
; 652  :             ));

  00164	e59f33a8	 ldr         r3, [pc, #0x3A8]
  00168	e5933440	 ldr         r3, [r3, #0x440]
  0016c	e3130a02	 tst         r3, #2, 20
  00170	13130004	 tstne       r3, #4
  00174	15951010	 ldrne       r1, [r5, #0x10]
  00178	159f03b8	 ldrne       r0, [pc, #0x3B8]
  0017c	1b000000	 blne        NKDbgPrintfW

; 653  :             // notify the MDD
; 654  :             g_pEP1DataWrapper->dwDataSize = pTransfer->cbTransferred;

  00180	e59f4368	 ldr         r4, [pc, #0x368]
  00184	e5952010	 ldr         r2, [r5, #0x10]
  00188	e5943004	 ldr         r3, [r4, #4]
  0018c	e583200c	 str         r2, [r3, #0xC]

; 655  :             MddIndicateRndisPacket(g_pEP1DataWrapper);

  00190	e5940004	 ldr         r0, [r4, #4]
  00194	eb000000	 bl          MddIndicateRndisPacket

; 656  :             g_pEP1DataWrapper = NULL;

  00198	e3a03000	 mov         r3, #0
  0019c	e5843004	 str         r3, [r4, #4]

; 657  :             // setup another transfer
; 658  :             SetupEP1Transfer();

  001a0	eb000000	 bl          SetupEP1Transfer
  001a4	ea0000cd	 b           |$LN6@NotifyHand|
  001a8		 |$LN26@NotifyHand|

; 659  :         }
; 660  :         else if( pTransfer == &g_EP2Transfer )

  001a8	e59f4384	 ldr         r4, [pc, #0x384]
  001ac	e1550004	 cmp         r5, r4
  001b0	1a000034	 bne         |$LN24@NotifyHand|

; 661  :         {
; 662  :             if( g_EP2TransferState == TS_SENDING_PACKET )

  001b4	e59f5334	 ldr         r5, [pc, #0x334]
  001b8	e5953014	 ldr         r3, [r5, #0x14]
  001bc	e3530004	 cmp         r3, #4
  001c0	1a00001f	 bne         |$LN23@NotifyHand|

; 663  :             {
; 664  :                 if( ( g_EP2Transfer.cbTransferred % EPMaxSize ) == 0 )

  001c4	e5943010	 ldr         r3, [r4, #0x10]
  001c8	e313003f	 tst         r3, #0x3F
  001cc	1a000024	 bne         |$LN66@NotifyHand|

; 665  :                 {
; 666  :                     // g_EP2Transfer.dwCallerPermissions;
; 667  :                     g_EP2Transfer.dwFlags = USB_REQUEST_DEVICE_TO_HOST;
; 668  : #ifdef USE_1BYTE_TERMINATING_PACKETS
; 669  :                     g_EP2Transfer.pvBuffer = &g_ucScratch;
; 670  :                     g_EP2Transfer.cbBuffer = sizeof(UCHAR);
; 671  : #else
; 672  :                     g_EP2Transfer.pvBuffer = NULL;
; 673  :                     g_EP2Transfer.cbBuffer = 0;
; 674  : #endif
; 675  :                     // g_EP2Transfer.dwBufferPhysicalAddress; // not used
; 676  :                     g_EP2Transfer.cbTransferred = 0;
; 677  :                     g_EP2Transfer.dwUsbError = UFN_NOT_COMPLETE_ERROR; // Possible values are in usbfntypes.h
; 678  :                     g_EP2Transfer.pvPddData = NULL;
; 679  :                     g_EP2Transfer.pvPddTransferInfo = NULL;
; 680  : 
; 681  : 
; 682  :                     OALMSG(OAL_ETHER&&OAL_FUNC, (
; 683  :                         L"Sending NULL terminator for the packet...\r\n"
; 684  :                     ));

  001d0	e59f333c	 ldr         r3, [pc, #0x33C]
  001d4	e3a02080	 mov         r2, #0x80
  001d8	e8840024	 stmia       r4, {r2, r5}
  001dc	e5932440	 ldr         r2, [r3, #0x440]
  001e0	e3a01001	 mov         r1, #1
  001e4	e3a00c01	 mov         r0, #1, 24
  001e8	e584100c	 str         r1, [r4, #0xC]
  001ec	e3a03000	 mov         r3, #0
  001f0	e5843010	 str         r3, [r4, #0x10]
  001f4	e3803003	 orr         r3, r0, #3
  001f8	e3120a02	 tst         r2, #2, 20
  001fc	e5843014	 str         r3, [r4, #0x14]
  00200	e3a03000	 mov         r3, #0
  00204	13120004	 tstne       r2, #4
  00208	159f0320	 ldrne       r0, [pc, #0x320]
  0020c	e5843018	 str         r3, [r4, #0x18]
  00210	e3a03000	 mov         r3, #0
  00214	e584301c	 str         r3, [r4, #0x1C]
  00218	1b000000	 blne        NKDbgPrintfW

; 685  :                     g_EP2TransferState = TS_SENDING_PACKET_TERMINATOR;
; 686  :                     g_pddInterface.pfnIssueTransfer( g_pddInterface.pvPddContext, 2, &g_EP2Transfer );

  0021c	e59f32d0	 ldr         r3, [pc, #0x2D0]
  00220	e3a06005	 mov         r6, #5
  00224	e1a02004	 mov         r2, r4
  00228	e593000c	 ldr         r0, [r3, #0xC]
  0022c	e5933030	 ldr         r3, [r3, #0x30]
  00230	e3a01002	 mov         r1, #2
  00234	e5856014	 str         r6, [r5, #0x14]
  00238	e1a0e00f	 mov         lr, pc
  0023c	e12fff13	 bx          r3

; 687  :                 }
; 688  :                 else

  00240	ea0000a6	 b           |$LN6@NotifyHand|
  00244		 |$LN23@NotifyHand|

; 689  :                 {
; 690  :                     g_EP2TransferState = TS_IDLE;
; 691  :                     TxComplete();
; 692  :                 }
; 693  :             }
; 694  :             else if( g_EP2TransferState == TS_SENDING_PACKET_TERMINATOR )

  00244	e3530005	 cmp         r3, #5

; 695  :             {
; 696  :                 ASSERT( g_EP2Transfer.dwUsbError == UFN_NO_ERROR );
; 697  :                 OALMSG(OAL_ETHER&&OAL_FUNC, (L"SendPacket NULL terminator sent!\r\n"));

  00248	e59f32c4	 ldr         r3, [pc, #0x2C4]
  0024c	e5933440	 ldr         r3, [r3, #0x440]
  00250	1a000007	 bne         |$LN19@NotifyHand|
  00254	e3130a02	 tst         r3, #2, 20
  00258	13130004	 tstne       r3, #4
  0025c	159f02c8	 ldrne       r0, [pc, #0x2C8]
  00260	1b000000	 blne        NKDbgPrintfW
  00264		 |$LN66@NotifyHand|

; 698  :                 g_EP2TransferState = TS_IDLE;

  00264	e3a03000	 mov         r3, #0
  00268	e5853014	 str         r3, [r5, #0x14]

; 699  : 
; 700  :                 TxComplete();

  0026c	eb000000	 bl          TxComplete

; 701  :             }
; 702  :             else

  00270	ea00009a	 b           |$LN6@NotifyHand|
  00274		 |$LN19@NotifyHand|

; 703  :             {
; 704  :                 OALMSG(OAL_ERROR, (L"Unexpected EP2 transfer state!"));

  00274	e3130001	 tst         r3, #1
  00278	0a000098	 beq         |$LN6@NotifyHand|
  0027c	e59f02a4	 ldr         r0, [pc, #0x2A4]

; 712  :             // interrupt succesfully sent
; 713  :         }
; 714  :         else
; 715  :         {
; 716  :             OALMSG(OAL_ERROR, (L"INVALID TRANSFER!\r\n"));

  00280	eb000000	 bl          NKDbgPrintfW

; 717  :         }
; 718  :         break;

  00284	ea000095	 b           |$LN6@NotifyHand|
  00288		 |$LN24@NotifyHand|

; 705  :             }
; 706  :         }
; 707  :         else if( pTransfer == &g_EP3Transfer )

  00288	e59f3294	 ldr         r3, [pc, #0x294]
  0028c	e1550003	 cmp         r5, r3

; 708  :         {
; 709  :             OALMSG(OAL_ETHER&&OAL_FUNC, (
; 710  :                 L"EP3 Interrupt successfully sent!\r\n"
; 711  :             ));

  00290	e59f327c	 ldr         r3, [pc, #0x27C]
  00294	e5933440	 ldr         r3, [r3, #0x440]
  00298	1a000006	 bne         |$LN16@NotifyHand|
  0029c	e3130a02	 tst         r3, #2, 20
  002a0	0a00008e	 beq         |$LN6@NotifyHand|
  002a4	e3130004	 tst         r3, #4
  002a8	0a00008c	 beq         |$LN6@NotifyHand|
  002ac	e59f026c	 ldr         r0, [pc, #0x26C]

; 712  :             // interrupt succesfully sent
; 713  :         }
; 714  :         else
; 715  :         {
; 716  :             OALMSG(OAL_ERROR, (L"INVALID TRANSFER!\r\n"));

  002b0	eb000000	 bl          NKDbgPrintfW

; 717  :         }
; 718  :         break;

  002b4	ea000089	 b           |$LN6@NotifyHand|
  002b8		 |$LN16@NotifyHand|

; 712  :             // interrupt succesfully sent
; 713  :         }
; 714  :         else
; 715  :         {
; 716  :             OALMSG(OAL_ERROR, (L"INVALID TRANSFER!\r\n"));

  002b8	e3130001	 tst         r3, #1
  002bc	0a000087	 beq         |$LN6@NotifyHand|
  002c0	e59f0254	 ldr         r0, [pc, #0x254]
  002c4	eb000000	 bl          NKDbgPrintfW

; 717  :         }
; 718  :         break;

  002c8	ea000084	 b           |$LN6@NotifyHand|
  002cc		 |$LN4@NotifyHand|

; 740  :         default:
; 741  :             ASSERT(!"Unexpected bus event!");
; 742  :         }
; 743  :         break;
; 744  : 
; 745  :     case UFN_MSG_BUS_SPEED:
; 746  :         break;
; 747  : 
; 748  :     case UFN_MSG_SET_ADDRESS:
; 749  :         if( dwParam )

  002cc	e3550000	 cmp         r5, #0

; 750  :         {
; 751  :             g_devState = DS_ADDRESSED;

  002d0	e59f3218	 ldr         r3, [pc, #0x218]
  002d4	13a02004	 movne       r2, #4
  002d8	1a00007f	 bne         |$LN75@NotifyHand|

; 752  :         }
; 753  :         else
; 754  :         {
; 755  :             g_devState = DS_DEFAULT;

  002dc	e3a02003	 mov         r2, #3

; 756  :         }
; 757  :         // we should call pfnSetAddress here
; 758  :         break;

  002e0	ea00007d	 b           |$LN75@NotifyHand|
  002e4		 |$LN41@NotifyHand|

; 557  :     {
; 558  :     case UFN_MSG_SETUP_PACKET:
; 559  :         request = *(USB_DEVICE_REQUEST*)(void*)dwParam;
; 560  :         g_udr = request;

  002e4	e59f622c	 ldr         r6, [pc, #0x22C]
  002e8	e3a02008	 mov         r2, #8
  002ec	e1a01005	 mov         r1, r5
  002f0	e1a00006	 mov         r0, r6
  002f4	eb000000	 bl          memcpy

; 561  : 
; 562  :         if( !HandleSetupPacket( &g_udr, &EP0Request ) )

  002f8	e28d1008	 add         r1, sp, #8
  002fc	e1a00006	 mov         r0, r6
  00300	eb000000	 bl          HandleSetupPacket
  00304	e59f5208	 ldr         r5, [pc, #0x208]
  00308	e3500000	 cmp         r0, #0

; 563  :         {
; 564  :             OALMSG(OAL_ERROR, (L"ERROR PARSING SETUP PACKET\r\n"));

  0030c	e5954440	 ldr         r4, [r5, #0x440]
  00310	1a000004	 bne         |$LN46@NotifyHand|
  00314	e3140001	 tst         r4, #1
  00318	0a000002	 beq         |$LN46@NotifyHand|
  0031c	e59f01ec	 ldr         r0, [pc, #0x1EC]
  00320	eb000000	 bl          NKDbgPrintfW
  00324	e5954440	 ldr         r4, [r5, #0x440]
  00328		 |$LN46@NotifyHand|

; 565  :         }
; 566  : 
; 567  :         memcpy(&g_RndisKitlDev.EP0Request, &EP0Request, sizeof(EP0Request));

  00328	e59f51dc	 ldr         r5, [pc, #0x1DC]
  0032c	e28d1008	 add         r1, sp, #8
  00330	e3a02020	 mov         r2, #0x20
  00334	e1a00005	 mov         r0, r5
  00338	eb000000	 bl          memcpy

; 568  :         g_RndisKitlDev.EP0Request.dwProcessed = 0;

  0033c	e3a03000	 mov         r3, #0
  00340	e5853018	 str         r3, [r5, #0x18]

; 569  :         g_RndisKitlDev.EP0Request.fCompleted = FALSE;

  00344	e3a03000	 mov         r3, #0
  00348	e585301c	 str         r3, [r5, #0x1C]

; 570  : 
; 571  :         if (g_RndisKitlDev.EP0Request.eDir != EP0Setup) {

  0034c	e595e000	 ldr         lr, [r5]
  00350	e35e0000	 cmp         lr, #0
  00354	0a000034	 beq         |$LN39@NotifyHand|

; 572  :             g_EP0DataWrapper.pucData = g_RndisKitlDev.EP0Request.pucData;

  00358	e5950004	 ldr         r0, [r5, #4]

; 573  :             g_EP0DataWrapper.dwDataSize = g_RndisKitlDev.EP0Request.dwActualSize;
; 574  :             
; 575  :             // g_EP2Transfer.dwCallerPermissions;
; 576  :             g_EP0Transfer.pvBuffer = g_EP0DataWrapper.pucData;

  0035c	e59f61a4	 ldr         r6, [pc, #0x1A4]
  00360	e595100c	 ldr         r1, [r5, #0xC]

; 577  :             // g_EP2Transfer.dwBufferPhysicalAddress; // not used
; 578  :             g_EP0Transfer.cbBuffer = g_EP0DataWrapper.dwDataSize;
; 579  :             g_EP0Transfer.cbTransferred = 0;

  00364	e3a03000	 mov         r3, #0
  00368	e5860004	 str         r0, [r6, #4]
  0036c	e586100c	 str         r1, [r6, #0xC]
  00370	e3a05c01	 mov         r5, #1, 24
  00374	e5863010	 str         r3, [r6, #0x10]

; 580  :             g_EP0Transfer.dwUsbError = UFN_NOT_COMPLETE_ERROR; // Possible values are in usbfntypes.h

  00378	e3853003	 orr         r3, r5, #3
  0037c	e59f2180	 ldr         r2, [pc, #0x180]
  00380	e5863014	 str         r3, [r6, #0x14]

; 581  :             g_EP0Transfer.pvPddData = NULL;

  00384	e3a03000	 mov         r3, #0
  00388	e5863018	 str         r3, [r6, #0x18]

; 582  :             g_EP0Transfer.pvPddTransferInfo = NULL;

  0038c	e3a03000	 mov         r3, #0
  00390	e5820008	 str         r0, [r2, #8]
  00394	e586301c	 str         r3, [r6, #0x1C]
  00398	e582100c	 str         r1, [r2, #0xC]

; 583  : 
; 584  :             if (g_RndisKitlDev.EP0Request.eDir == EP0In) {

  0039c	e35e0002	 cmp         lr, #2
  003a0	1a000010	 bne         |$LN38@NotifyHand|

; 585  :                 OALMSG(OAL_ETHER&&OAL_FUNC, (L"Got SETUP IN packet\r\n"));

  003a4	e3140a02	 tst         r4, #2, 20
  003a8	13140004	 tstne       r4, #4
  003ac	159f014c	 ldrne       r0, [pc, #0x14C]
  003b0	1b000000	 blne        NKDbgPrintfW

; 586  :                 g_EP0Transfer.dwFlags = USB_REQUEST_DEVICE_TO_HOST;
; 587  :                 g_EP0TransferState = TS_SENDING_MESSAGE;
; 588  :                 g_pddInterface.pfnIssueTransfer( g_pddInterface.pvPddContext, 0, &g_EP0Transfer );

  003b4	e59f3138	 ldr         r3, [pc, #0x138]
  003b8	e59f4130	 ldr         r4, [pc, #0x130]
  003bc	e3a07080	 mov         r7, #0x80
  003c0	e593000c	 ldr         r0, [r3, #0xC]
  003c4	e5933030	 ldr         r3, [r3, #0x30]
  003c8	e3a05002	 mov         r5, #2
  003cc	e1a02006	 mov         r2, r6
  003d0	e3a01000	 mov         r1, #0
  003d4	e5867000	 str         r7, [r6]
  003d8	e584500c	 str         r5, [r4, #0xC]
  003dc	e1a0e00f	 mov         lr, pc
  003e0	e12fff13	 bx          r3

; 589  :             }
; 590  :             else

  003e4	ea00003d	 b           |$LN6@NotifyHand|
  003e8		 |$LN38@NotifyHand|

; 591  :             {
; 592  :                 OALMSG(OAL_ETHER&&OAL_FUNC, (L"Got SETUP OUT packet.\r\n"));

  003e8	e3140a02	 tst         r4, #2, 20
  003ec	13140004	 tstne       r4, #4
  003f0	159f0104	 ldrne       r0, [pc, #0x104]
  003f4	1b000000	 blne        NKDbgPrintfW

; 593  :                 g_EP0Transfer.dwFlags = 0;
; 594  :                 g_EP0TransferState = TS_RECEIVING_MESSAGE;
; 595  :                 g_pddInterface.pfnIssueTransfer( g_pddInterface.pvPddContext, 0, &g_EP0Transfer );

  003f8	e59f30f4	 ldr         r3, [pc, #0xF4]
  003fc	e59f40ec	 ldr         r4, [pc, #0xEC]
  00400	e3a07000	 mov         r7, #0
  00404	e593000c	 ldr         r0, [r3, #0xC]
  00408	e5933030	 ldr         r3, [r3, #0x30]
  0040c	e3a05001	 mov         r5, #1
  00410	e1a02006	 mov         r2, r6
  00414	e3a01000	 mov         r1, #0
  00418	e5867000	 str         r7, [r6]
  0041c	e584500c	 str         r5, [r4, #0xC]
  00420	e1a0e00f	 mov         lr, pc
  00424	e12fff13	 bx          r3

; 596  :             }
; 597  :         }
; 598  :         else

  00428	ea00002c	 b           |$LN6@NotifyHand|
  0042c		 |$LN39@NotifyHand|

; 599  :         {
; 600  :             OALMSG(OAL_ETHER&&OAL_FUNC, (
; 601  :                 L"Got SETUP <NO DATA: %x %x %x %x %x> packet.\r\n",
; 602  :                 g_udr.bmRequestType, g_udr.bRequest, g_udr.wValue, g_udr.wIndex,
; 603  :                  g_udr.wLength 
; 604  :             ));

  0042c	e3140a02	 tst         r4, #2, 20
  00430	0a00000a	 beq         |$LN52@NotifyHand|
  00434	e3140004	 tst         r4, #4
  00438	0a000008	 beq         |$LN52@NotifyHand|
  0043c	e1d640b6	 ldrh        r4, [r6, #6]
  00440	e1d6e0b4	 ldrh        lr, [r6, #4]
  00444	e1d630b2	 ldrh        r3, [r6, #2]
  00448	e5d62001	 ldrb        r2, [r6, #1]
  0044c	e5d61000	 ldrb        r1, [r6]
  00450	e59f00a0	 ldr         r0, [pc, #0xA0]
  00454	e58d4004	 str         r4, [sp, #4]
  00458	e58de000	 str         lr, [sp]
  0045c	eb000000	 bl          NKDbgPrintfW
  00460		 |$LN52@NotifyHand|

; 605  : 
; 606  :             // Send the SETUP ACK packet
; 607  :             g_EP0TransferState = TS_IDLE;
; 608  :             g_pddInterface.pfnSendControlStatusHandshake( g_pddInterface.pvPddContext, 0 );

  00460	e59f308c	 ldr         r3, [pc, #0x8C]
  00464	e59f2084	 ldr         r2, [pc, #0x84]
  00468	e3a04000	 mov         r4, #0
  0046c	e593000c	 ldr         r0, [r3, #0xC]
  00470	e5933044	 ldr         r3, [r3, #0x44]
  00474	e3a01000	 mov         r1, #0
  00478	e582400c	 str         r4, [r2, #0xC]
  0047c	e1a0e00f	 mov         lr, pc
  00480	e12fff13	 bx          r3

; 609  :         }
; 610  :         break;

  00484	ea000015	 b           |$LN6@NotifyHand|
  00488		 |$LN14@NotifyHand|

; 719  : 
; 720  :     case UFN_MSG_BUS_EVENTS:
; 721  :         switch( dwParam )

  00488	e3550000	 cmp         r5, #0
  0048c	0a000010	 beq         |$LN11@NotifyHand|
  00490	e3550001	 cmp         r5, #1
  00494	0a000005	 beq         |$LN8@NotifyHand|
  00498	e3550002	 cmp         r5, #2
  0049c	0a000005	 beq         |$LN9@NotifyHand|
  004a0	e3550003	 cmp         r5, #3
  004a4	0a000001	 beq         |$LN8@NotifyHand|
  004a8	e3550004	 cmp         r5, #4
  004ac	1a00000b	 bne         |$LN6@NotifyHand|
  004b0		 |$LN8@NotifyHand|

; 734  :         case UFN_SUSPEND:
; 735  :             g_devState = DS_ATTACHED;
; 736  :             break;
; 737  :         case UFN_RESUME:
; 738  :             g_devState = DS_ATTACHED;

  004b0	e3a02001	 mov         r2, #1

; 739  :             break;

  004b4	ea000007	 b           |$LN76@NotifyHand|
  004b8		 |$LN9@NotifyHand|

; 725  :             break;
; 726  :         case UFN_ATTACH:
; 727  :             g_devState = DS_ATTACHED;
; 728  :             break;
; 729  :         case UFN_RESET:
; 730  :             g_devState = DS_DEFAULT;

  004b8	e59f3030	 ldr         r3, [pc, #0x30]

; 731  :             g_EP0TransferState = TS_IDLE;

  004bc	e3a01000	 mov         r1, #0

; 732  :             g_EP2TransferState = TS_IDLE;

  004c0	e3a00000	 mov         r0, #0
  004c4	e583100c	 str         r1, [r3, #0xC]
  004c8	e5830014	 str         r0, [r3, #0x14]
  004cc	e3a02003	 mov         r2, #3

; 733  :             break;

  004d0	ea000001	 b           |$LN75@NotifyHand|
  004d4		 |$LN11@NotifyHand|

; 722  :         {
; 723  :         case UFN_DETACH:
; 724  :             g_devState = DS_DETACHED;

  004d4	e3a02000	 mov         r2, #0
  004d8		 |$LN76@NotifyHand|
  004d8	e59f3010	 ldr         r3, [pc, #0x10]
  004dc		 |$LN75@NotifyHand|
  004dc	e5832008	 str         r2, [r3, #8]
  004e0		 |$LN6@NotifyHand|

; 759  : 
; 760  :     default:
; 761  :         ASSERT(!"Unexpected Msg in NotifyHandler!");
; 762  :     }
; 763  : 
; 764  :     return FALSE;

  004e0	e3a00000	 mov         r0, #0

; 765  : }

  004e4	e28dd028	 add         sp, sp, #0x28
  004e8	e8bd40f0	 ldmia       sp!, {r4 - r7, lr}
  004ec	e12fff1e	 bx          lr
  004f0		 |$LN81@NotifyHand|
  004f0		 |$LN82@NotifyHand|
  004f0	00000000	 DCD         |g_ucScratch|
  004f4		 |$LN83@NotifyHand|
  004f4	00000000	 DCD         |g_pddInterface|
  004f8		 |$LN84@NotifyHand|
  004f8	00000000	 DCD         |??_C@_1FM@FDJOONCJ@?$AAG?$AAo?$AAt?$AA?5?$AAS?$AAE?$AAT?$AAU?$AAP?$AA?5?$AA?$DM?$AAN?$AAO?$AA?5?$AAD?$AAA?$AAT?$AAA?$AA?3?$AA?5?$AA?$CF?$AAx?$AA?5?$AA?$CF?$AAx?$AA?5?$AA?$CF?$AAx?$AA?5?$AA?$CF?$AAx?$AA?5@|
  004fc		 |$LN85@NotifyHand|
  004fc	00000000	 DCD         |??_C@_1DA@MJLPENBD@?$AAG?$AAo?$AAt?$AA?5?$AAS?$AAE?$AAT?$AAU?$AAP?$AA?5?$AAO?$AAU?$AAT?$AA?5?$AAp?$AAa?$AAc?$AAk?$AAe?$AAt?$AA?4?$AA?$AN?$AA?6?$AA?$AA@|
  00500		 |$LN86@NotifyHand|
  00500	00000000	 DCD         |??_C@_1CM@NHNGDKFM@?$AAG?$AAo?$AAt?$AA?5?$AAS?$AAE?$AAT?$AAU?$AAP?$AA?5?$AAI?$AAN?$AA?5?$AAp?$AAa?$AAc?$AAk?$AAe?$AAt?$AA?$AN?$AA?6?$AA?$AA@|
  00504		 |$LN87@NotifyHand|
  00504	00000000	 DCD         |g_EP0DataWrapper|
  00508		 |$LN88@NotifyHand|
  00508	00000000	 DCD         |g_EP0Transfer|
  0050c		 |$LN89@NotifyHand|
  0050c	00000000	 DCD         |g_RndisKitlDev|
  00510		 |$LN90@NotifyHand|
  00510	00000000	 DCD         |??_C@_1DK@CJOHLCDF@?$AAE?$AAR?$AAR?$AAO?$AAR?$AA?5?$AAP?$AAA?$AAR?$AAS?$AAI?$AAN?$AAG?$AA?5?$AAS?$AAE?$AAT?$AAU?$AAP?$AA?5?$AAP?$AAA?$AAC?$AAK?$AAE?$AAT?$AA?$AN?$AA?6?$AA?$AA@|
  00514		 |$LN91@NotifyHand|
  00514	00000000	 DCD         |dpCurSettings|
  00518		 |$LN92@NotifyHand|
  00518	00000000	 DCD         |g_udr|
  0051c		 |$LN93@NotifyHand|
  0051c	00000000	 DCD         |??_C@_1CI@KCINNAAK@?$AAI?$AAN?$AAV?$AAA?$AAL?$AAI?$AAD?$AA?5?$AAT?$AAR?$AAA?$AAN?$AAS?$AAF?$AAE?$AAR?$AA?$CB?$AA?$AN?$AA?6?$AA?$AA@|
  00520		 |$LN94@NotifyHand|
  00520	00000000	 DCD         |??_C@_1EG@NBFJCBDP@?$AAE?$AAP?$AA3?$AA?5?$AAI?$AAn?$AAt?$AAe?$AAr?$AAr?$AAu?$AAp?$AAt?$AA?5?$AAs?$AAu?$AAc?$AAc?$AAe?$AAs?$AAs?$AAf?$AAu?$AAl?$AAl?$AAy?$AA?5?$AAs?$AAe?$AAn?$AAt?$AA?$CB@|
  00524		 |$LN95@NotifyHand|
  00524	00000000	 DCD         |g_EP3Transfer|
  00528		 |$LN96@NotifyHand|
  00528	00000000	 DCD         |??_C@_1DO@PFNPIHHC@?$AAU?$AAn?$AAe?$AAx?$AAp?$AAe?$AAc?$AAt?$AAe?$AAd?$AA?5?$AAE?$AAP?$AA2?$AA?5?$AAt?$AAr?$AAa?$AAn?$AAs?$AAf?$AAe?$AAr?$AA?5?$AAs?$AAt?$AAa?$AAt?$AAe?$AA?$CB?$AA?$AA@|
  0052c		 |$LN97@NotifyHand|
  0052c	00000000	 DCD         |??_C@_1EG@NEPEKMDB@?$AAS?$AAe?$AAn?$AAd?$AAP?$AAa?$AAc?$AAk?$AAe?$AAt?$AA?5?$AAN?$AAU?$AAL?$AAL?$AA?5?$AAt?$AAe?$AAr?$AAm?$AAi?$AAn?$AAa?$AAt?$AAo?$AAr?$AA?5?$AAs?$AAe?$AAn?$AAt?$AA?$CB@|
  00530		 |$LN98@NotifyHand|
  00530	00000000	 DCD         |??_C@_1FI@KOMJGPLF@?$AAS?$AAe?$AAn?$AAd?$AAi?$AAn?$AAg?$AA?5?$AAN?$AAU?$AAL?$AAL?$AA?5?$AAt?$AAe?$AAr?$AAm?$AAi?$AAn?$AAa?$AAt?$AAo?$AAr?$AA?5?$AAf?$AAo?$AAr?$AA?5?$AAt?$AAh?$AAe?$AA?5@|
  00534		 |$LN99@NotifyHand|
  00534	00000000	 DCD         |g_EP2Transfer|
  00538		 |$LN100@NotifyHand|
  00538	00000000	 DCD         |??_C@_1EA@ODINLGJJ@?$AAR?$AAe?$AAc?$AAe?$AAi?$AAv?$AAe?$AAd?$AA?5?$AAa?$AA?5?$AAp?$AAa?$AAc?$AAk?$AAe?$AAt?$AA?5?$AA?$FL?$AA?$CF?$AAd?$AA?5?$AAb?$AAy?$AAt?$AAe?$AAs?$AA?$FN?$AA?$CB?$AA?$AN?$AA?6?$AA?$AA@|
  0053c		 |$LN101@NotifyHand|
  0053c	00000000	 DCD         |g_EP1Transfer|
  00540		 |$LN102@NotifyHand|
  00540	00000000	 DCD         |??_C@_1CM@FNJKEBIB@?$AAR?$AAe?$AAc?$AAe?$AAi?$AAv?$AAe?$AAd?$AA?5?$AAa?$AA?5?$AAm?$AAe?$AAs?$AAs?$AAa?$AAg?$AAe?$AA?$CB?$AA?$AN?$AA?6?$AA?$AA@|
  00544		 |$LN103@NotifyHand|
  00544	00000000	 DCD         |??_C@_1CO@MJKBFNNP@?$AAD?$AAo?$AAn?$AAe?$AA?5?$AAr?$AAe?$AAc?$AAe?$AAi?$AAv?$AAi?$AAn?$AAg?$AA?5?$AAd?$AAa?$AAt?$AAa?$AA?4?$AA?$AN?$AA?6?$AA?$AA@|
  00548		 |$LN104@NotifyHand|
  00548	00000000	 DCD         |??_C@_1EC@LJDGALBJ@?$AAS?$AAe?$AAn?$AAd?$AAM?$AAe?$AAs?$AAs?$AAa?$AAg?$AAe?$AA?5?$AAr?$AAe?$AAq?$AAu?$AAe?$AAs?$AAt?$AA?5?$AAc?$AAo?$AAm?$AAp?$AAl?$AAe?$AAt?$AAe?$AAd?$AA?$CB?$AA?$AN?$AA?6@|
  0054c		 |$LN105@NotifyHand|
  0054c	00000000	 DCD         |??_C@_1CK@FEGGBLDE@?$AAD?$AAo?$AAn?$AAe?$AA?5?$AAs?$AAe?$AAn?$AAd?$AAi?$AAn?$AAg?$AA?5?$AAd?$AAa?$AAt?$AAa?$AA?4?$AA?$AN?$AA?6?$AA?$AA@|
  00550		 |$M47206|

			 ENDP  ; |NotifyHandler|

	EXPORT	|RegisterUSBDevice|

  00041			 AREA	 |.bss|, NOINIT
|?deviceDescriptor@?1??RegisterUSBDevice@@9@9| % 0x12	; `RegisterUSBDevice'::`2'::deviceDescriptor
|?Interface@?1??RegisterUSBDevice@@9@9| % 0x1c		; `RegisterUSBDevice'::`2'::Interface
|?rgEndPoints@?1??RegisterUSBDevice@@9@9| % 0x3c	; `RegisterUSBDevice'::`2'::rgEndPoints
|?deviceConfiguration@?1??RegisterUSBDevice@@9@9| % 0x1c ; `RegisterUSBDevice'::`2'::deviceConfiguration
|?deviceDescriptor@?1??RegisterUSBDevice@@9@9| % 0x12	; `RegisterUSBDevice'::`2'::deviceDescriptor

  00000			 AREA	 |.pdata|, PDATA
|$T47240| DCD	|$LN5@RegisterUS|
	DCD	0x40003302
; Function compile flags: /Ogspy

  00000			 AREA	 |.text|, CODE, ARM

  00000		 |RegisterUSBDevice| PROC

; 769  : {

  00000		 |$LN5@RegisterUS|
  00000	e92d47f0	 stmdb       sp!, {r4 - r10, lr}
  00004	e24dd014	 sub         sp, sp, #0x14
  00008		 |$M47237|

; 770  :     static USB_DEVICE_DESCRIPTOR deviceDescriptor;
; 771  :     static UFN_ENDPOINT rgEndPoints[3];
; 772  :     static UFN_INTERFACE Interface;
; 773  :     static UFN_CONFIGURATION deviceConfiguration;
; 774  : 
; 775  :     deviceConfiguration.pInterfaces = &Interface;

  00008	e59f60b8	 ldr         r6, [pc, #0xB8]

; 776  :     deviceConfiguration.Descriptor.bNumInterfaces = 1;
; 777  :     Interface.pEndpoints = rgEndPoints;
; 778  :     Interface.Descriptor.bNumEndpoints = 3;
; 779  :     rgEndPoints[0].Descriptor.bEndpointAddress = 0x01; // EP1, OUT (BULK)

  0000c	e3a03001	 mov         r3, #1

; 780  :     rgEndPoints[0].Descriptor.wMaxPacketSize = EPMaxSize;

  00010	e3a02040	 mov         r2, #0x40
  00014	e5c63052	 strb        r3, [r6, #0x52]
  00018	e1c625b4	 strh        r2, [r6, #0x54]

; 781  :     rgEndPoints[0].Descriptor.bmAttributes = 0;

  0001c	e3a02000	 mov         r2, #0

; 782  :     rgEndPoints[1].Descriptor.bEndpointAddress = 0x82; // EP2, IN (BULK)
; 783  :     rgEndPoints[1].Descriptor.wMaxPacketSize = EPMaxSize;
; 784  :     rgEndPoints[1].Descriptor.bmAttributes = 0;
; 785  :     rgEndPoints[2].Descriptor.bEndpointAddress = 0x83; // EP3, IN (INT)
; 786  :     rgEndPoints[2].Descriptor.wMaxPacketSize = EPMaxSize;
; 787  :     rgEndPoints[2].Descriptor.bmAttributes = 0;
; 788  :     deviceDescriptor.bMaxPacketSize0 = EP0MaxSize;
; 789  : 
; 790  : 
; 791  :     // We assume knowledge of the RegisterDevice function implementation and pass very simplified arguments
; 792  :     g_pddInterface.pfnRegisterDevice( g_pddInterface.pvPddContext, 
; 793  :                                         NULL, NULL, NULL,
; 794  :                                         &deviceDescriptor, &deviceConfiguration, NULL,
; 795  :                                         NULL, 0 );

  00020	e5c62053	 strb        r2, [r6, #0x53]
  00024	e3a02082	 mov         r2, #0x82
  00028	e5c62066	 strb        r2, [r6, #0x66]
  0002c	e3a02040	 mov         r2, #0x40
  00030	e1c626b8	 strh        r2, [r6, #0x68]
  00034	e3a02000	 mov         r2, #0
  00038	e59f3084	 ldr         r3, [pc, #0x84]
  0003c	e3a01083	 mov         r1, #0x83
  00040	e5c62067	 strb        r2, [r6, #0x67]
  00044	e5c6107a	 strb        r1, [r6, #0x7A]
  00048	e3a01040	 mov         r1, #0x40
  0004c	e593000c	 ldr         r0, [r3, #0xC]
  00050	e5935020	 ldr         r5, [r3, #0x20]
  00054	e1c617bc	 strh        r1, [r6, #0x7C]
  00058	e3a01000	 mov         r1, #0
  0005c	e2863030	 add         r3, r6, #0x30
  00060	e286204c	 add         r2, r6, #0x4C
  00064	e3a09001	 mov         r9, #1
  00068	e3a0a003	 mov         r10, #3
  0006c	e3a08040	 mov         r8, #0x40
  00070	e2864014	 add         r4, r6, #0x14
  00074	e3a07000	 mov         r7, #0
  00078	e5c6107b	 strb        r1, [r6, #0x7B]
  0007c	e586302c	 str         r3, [r6, #0x2C]
  00080	e5862048	 str         r2, [r6, #0x48]
  00084	e3a01000	 mov         r1, #0
  00088	e3a03000	 mov         r3, #0
  0008c	e3a02000	 mov         r2, #0
  00090	e5c6901c	 strb        r9, [r6, #0x1C]
  00094	e5c6a038	 strb        r10, [r6, #0x38]
  00098	e5c68007	 strb        r8, [r6, #7]
  0009c	e58d7010	 str         r7, [sp, #0x10]
  000a0	e58d700c	 str         r7, [sp, #0xC]
  000a4	e58d7008	 str         r7, [sp, #8]
  000a8	e58d4004	 str         r4, [sp, #4]
  000ac	e58d6000	 str         r6, [sp]
  000b0	e1a0e00f	 mov         lr, pc
  000b4	e12fff15	 bx          r5

; 796  : }

  000b8	e28dd014	 add         sp, sp, #0x14
  000bc	e8bd47f0	 ldmia       sp!, {r4 - r10, lr}
  000c0	e12fff1e	 bx          lr
  000c4		 |$LN6@RegisterUS|
  000c4		 |$LN7@RegisterUS|
  000c4	00000000	 DCD         |g_pddInterface|
  000c8		 |$LN8@RegisterUS|
  000c8	00000000	 DCD         |?deviceDescriptor@?1??RegisterUSBDevice@@9@9|
  000cc		 |$M47238|

			 ENDP  ; |RegisterUSBDevice|

	EXPORT	|PDDDeinit|
	EXPORT	|??_C@_1DA@MNIGJPIF@?$AA?9?$AAR?$AAN?$AAD?$AAI?$AAS?$AA_?$AAU?$AAS?$AAB?$AAF?$AAN?$AA_?$AAP?$AAD?$AAD?$AAD?$AAe?$AAn?$AAi?$AAt?$AA?$AN?$AA?6?$AA?$AA@| [ DATA ] ; `string'
	EXPORT	|??_C@_1DA@EACCPFEN@?$AA?$CL?$AAR?$AAN?$AAD?$AAI?$AAS?$AA_?$AAU?$AAS?$AAB?$AAF?$AAN?$AA_?$AAP?$AAD?$AAD?$AAD?$AAe?$AAn?$AAi?$AAt?$AA?$AN?$AA?6?$AA?$AA@| [ DATA ] ; `string'

  00000			 AREA	 |.pdata|, PDATA
|$T47254| DCD	|$LN9@PDDDeinit|
	DCD	0x40001301

  00000			 AREA	 |.rdata|, DATA, READONLY
|??_C@_1DA@MNIGJPIF@?$AA?9?$AAR?$AAN?$AAD?$AAI?$AAS?$AA_?$AAU?$AAS?$AAB?$AAF?$AAN?$AA_?$AAP?$AAD?$AAD?$AAD?$AAe?$AAn?$AAi?$AAt?$AA?$AN?$AA?6?$AA?$AA@| DCB "-"
	DCB	0x0, "R", 0x0, "N", 0x0, "D", 0x0, "I", 0x0, "S", 0x0, "_"
	DCB	0x0, "U", 0x0, "S", 0x0, "B", 0x0, "F", 0x0, "N", 0x0, "_"
	DCB	0x0, "P", 0x0, "D", 0x0, "D", 0x0, "D", 0x0, "e", 0x0, "n"
	DCB	0x0, "i", 0x0, "t", 0x0, 0xd, 0x0, 0xa, 0x0, 0x0, 0x0 ; `string'

  00000			 AREA	 |.rdata|, DATA, READONLY
|??_C@_1DA@EACCPFEN@?$AA?$CL?$AAR?$AAN?$AAD?$AAI?$AAS?$AA_?$AAU?$AAS?$AAB?$AAF?$AAN?$AA_?$AAP?$AAD?$AAD?$AAD?$AAe?$AAn?$AAi?$AAt?$AA?$AN?$AA?6?$AA?$AA@| DCB "+"
	DCB	0x0, "R", 0x0, "N", 0x0, "D", 0x0, "I", 0x0, "S", 0x0, "_"
	DCB	0x0, "U", 0x0, "S", 0x0, "B", 0x0, "F", 0x0, "N", 0x0, "_"
	DCB	0x0, "P", 0x0, "D", 0x0, "D", 0x0, "D", 0x0, "e", 0x0, "n"
	DCB	0x0, "i", 0x0, "t", 0x0, 0xd, 0x0, 0xa, 0x0, 0x0, 0x0 ; `string'
; Function compile flags: /Ogspy

  00000			 AREA	 |.text|, CODE, ARM

  00000		 |PDDDeinit| PROC

; 882  : {

  00000		 |$LN9@PDDDeinit|
  00000	e92d4010	 stmdb       sp!, {r4, lr}
  00004		 |$M47251|

; 883  :     OALMSG(OAL_ETHER&&OAL_FUNC, (L"+RNDIS_USBFN_PDDDenit\r\n"));

  00004	e59f403c	 ldr         r4, [pc, #0x3C]
  00008	e5943440	 ldr         r3, [r4, #0x440]
  0000c	e3130a02	 tst         r3, #2, 20
  00010	0a000004	 beq         |$LN3@PDDDeinit|
  00014	e3130004	 tst         r3, #4
  00018	0a000002	 beq         |$LN3@PDDDeinit|
  0001c	e59f0020	 ldr         r0, [pc, #0x20]
  00020	eb000000	 bl          NKDbgPrintfW
  00024	e5943440	 ldr         r3, [r4, #0x440]
  00028		 |$LN3@PDDDeinit|

; 884  :     OALMSG(OAL_ETHER&&OAL_FUNC, (L"-RNDIS_USBFN_PDDDenit\r\n"));

  00028	e3130a02	 tst         r3, #2, 20
  0002c	13130004	 tstne       r3, #4
  00030	159f0008	 ldrne       r0, [pc, #8]
  00034	1b000000	 blne        NKDbgPrintfW

; 885  : }

  00038	e8bd4010	 ldmia       sp!, {r4, lr}
  0003c	e12fff1e	 bx          lr
  00040		 |$LN10@PDDDeinit|
  00040		 |$LN11@PDDDeinit|
  00040	00000000	 DCD         |??_C@_1DA@MNIGJPIF@?$AA?9?$AAR?$AAN?$AAD?$AAI?$AAS?$AA_?$AAU?$AAS?$AAB?$AAF?$AAN?$AA_?$AAP?$AAD?$AAD?$AAD?$AAe?$AAn?$AAi?$AAt?$AA?$AN?$AA?6?$AA?$AA@|
  00044		 |$LN12@PDDDeinit|
  00044	00000000	 DCD         |??_C@_1DA@EACCPFEN@?$AA?$CL?$AAR?$AAN?$AAD?$AAI?$AAS?$AA_?$AAU?$AAS?$AAB?$AAF?$AAN?$AA_?$AAP?$AAD?$AAD?$AAD?$AAe?$AAn?$AAi?$AAt?$AA?$AN?$AA?6?$AA?$AA@|
  00048		 |$LN13@PDDDeinit|
  00048	00000000	 DCD         |dpCurSettings|
  0004c		 |$M47252|

			 ENDP  ; |PDDDeinit|

	EXPORT	|PDD_SendRndisMessage|
	EXPORT	|??_C@_1EI@ONHOMNHJ@?$AA?9?$AAR?$AAN?$AAD?$AAI?$AAS?$AA_?$AAU?$AAS?$AAB?$AAF?$AAN?$AA_?$AAP?$AAD?$AAD?$AA_?$AAS?$AAe?$AAn?$AAd?$AAR?$AAn?$AAd?$AAi?$AAs?$AAM?$AAe?$AAs?$AAs?$AAa?$AAg@| [ DATA ] ; `string'
	EXPORT	|??_C@_1HE@PDJOEOPK@?$AA?$CL?$AAR?$AAN?$AAD?$AAI?$AAS?$AA_?$AAU?$AAS?$AAB?$AAF?$AAN?$AA_?$AAP?$AAD?$AAD?$AA_?$AAS?$AAe?$AAn?$AAd?$AAR?$AAn?$AAd?$AAi?$AAs?$AAM?$AAe?$AAs?$AAs?$AAa?$AAg@| [ DATA ] ; `string'
	EXPORT	|??_C@_1GK@OCDDHLML@?$AA?$CL?$AAR?$AAN?$AAD?$AAI?$AAS?$AA_?$AAU?$AAS?$AAB?$AAF?$AAN?$AA_?$AAP?$AAD?$AAD?$AA_?$AAS?$AAe?$AAn?$AAd?$AAR?$AAn?$AAd?$AAi?$AAs?$AAM?$AAe?$AAs?$AAs?$AAa?$AAg@| [ DATA ] ; `string'
	EXPORT	|??_C@_1EI@LPKHCIID@?$AA?$CL?$AAR?$AAN?$AAD?$AAI?$AAS?$AA_?$AAU?$AAS?$AAB?$AAF?$AAN?$AA_?$AAP?$AAD?$AAD?$AA_?$AAS?$AAe?$AAn?$AAd?$AAR?$AAn?$AAd?$AAi?$AAs?$AAM?$AAe?$AAs?$AAs?$AAa?$AAg@| [ DATA ] ; `string'

  00000			 AREA	 |.pdata|, PDATA
|$T47275| DCD	|$LN16@PDD_SendRn|
	DCD	0x40004201

  00000			 AREA	 |.rdata|, DATA, READONLY
|??_C@_1EI@ONHOMNHJ@?$AA?9?$AAR?$AAN?$AAD?$AAI?$AAS?$AA_?$AAU?$AAS?$AAB?$AAF?$AAN?$AA_?$AAP?$AAD?$AAD?$AA_?$AAS?$AAe?$AAn?$AAd?$AAR?$AAn?$AAd?$AAi?$AAs?$AAM?$AAe?$AAs?$AAs?$AAa?$AAg@| DCB "-"
	DCB	0x0, "R", 0x0, "N", 0x0, "D", 0x0, "I", 0x0, "S", 0x0, "_"
	DCB	0x0, "U", 0x0, "S", 0x0, "B", 0x0, "F", 0x0, "N", 0x0, "_"
	DCB	0x0, "P", 0x0, "D", 0x0, "D", 0x0, "_", 0x0, "S", 0x0, "e"
	DCB	0x0, "n", 0x0, "d", 0x0, "R", 0x0, "n", 0x0, "d", 0x0, "i"
	DCB	0x0, "s", 0x0, "M", 0x0, "e", 0x0, "s", 0x0, "s", 0x0, "a"
	DCB	0x0, "g", 0x0, "e", 0x0, 0xd, 0x0, 0xa, 0x0, 0x0, 0x0 ; `string'

  00000			 AREA	 |.rdata|, DATA, READONLY
|??_C@_1HE@PDJOEOPK@?$AA?$CL?$AAR?$AAN?$AAD?$AAI?$AAS?$AA_?$AAU?$AAS?$AAB?$AAF?$AAN?$AA_?$AAP?$AAD?$AAD?$AA_?$AAS?$AAe?$AAn?$AAd?$AAR?$AAn?$AAd?$AAi?$AAs?$AAM?$AAe?$AAs?$AAs?$AAa?$AAg@| DCB "+"
	DCB	0x0, "R", 0x0, "N", 0x0, "D", 0x0, "I", 0x0, "S", 0x0, "_"
	DCB	0x0, "U", 0x0, "S", 0x0, "B", 0x0, "F", 0x0, "N", 0x0, "_"
	DCB	0x0, "P", 0x0, "D", 0x0, "D", 0x0, "_", 0x0, "S", 0x0, "e"
	DCB	0x0, "n", 0x0, "d", 0x0, "R", 0x0, "n", 0x0, "d", 0x0, "i"
	DCB	0x0, "s", 0x0, "M", 0x0, "e", 0x0, "s", 0x0, "s", 0x0, "a"
	DCB	0x0, "g", 0x0, "e", 0x0, ":", 0x0, " ", 0x0, "i", 0x0, "s"
	DCB	0x0, "s", 0x0, "u", 0x0, "i", 0x0, "n", 0x0, "g", 0x0, " "
	DCB	0x0, "i", 0x0, "n", 0x0, "t", 0x0, "e", 0x0, "r", 0x0, "r"
	DCB	0x0, "u", 0x0, "p", 0x0, "t", 0x0, ".", 0x0, ".", 0x0, "."
	DCB	0x0, 0xd, 0x0, 0xa, 0x0, 0x0, 0x0	; `string'

  00000			 AREA	 |.rdata|, DATA, READONLY
|??_C@_1GK@OCDDHLML@?$AA?$CL?$AAR?$AAN?$AAD?$AAI?$AAS?$AA_?$AAU?$AAS?$AAB?$AAF?$AAN?$AA_?$AAP?$AAD?$AAD?$AA_?$AAS?$AAe?$AAn?$AAd?$AAR?$AAn?$AAd?$AAi?$AAs?$AAM?$AAe?$AAs?$AAs?$AAa?$AAg@| DCB "+"
	DCB	0x0, "R", 0x0, "N", 0x0, "D", 0x0, "I", 0x0, "S", 0x0, "_"
	DCB	0x0, "U", 0x0, "S", 0x0, "B", 0x0, "F", 0x0, "N", 0x0, "_"
	DCB	0x0, "P", 0x0, "D", 0x0, "D", 0x0, "_", 0x0, "S", 0x0, "e"
	DCB	0x0, "n", 0x0, "d", 0x0, "R", 0x0, "n", 0x0, "d", 0x0, "i"
	DCB	0x0, "s", 0x0, "M", 0x0, "e", 0x0, "s", 0x0, "s", 0x0, "a"
	DCB	0x0, "g", 0x0, "e", 0x0, ":", 0x0, " ", 0x0, "m", 0x0, "e"
	DCB	0x0, "s", 0x0, "s", 0x0, "a", 0x0, "g", 0x0, "e", 0x0, " "
	DCB	0x0, "q", 0x0, "u", 0x0, "e", 0x0, "u", 0x0, "e", 0x0, "d"
	DCB	0x0, ".", 0x0, 0xd, 0x0, 0xa, 0x0, 0x0, 0x0 ; `string'

  00000			 AREA	 |.rdata|, DATA, READONLY
|??_C@_1EI@LPKHCIID@?$AA?$CL?$AAR?$AAN?$AAD?$AAI?$AAS?$AA_?$AAU?$AAS?$AAB?$AAF?$AAN?$AA_?$AAP?$AAD?$AAD?$AA_?$AAS?$AAe?$AAn?$AAd?$AAR?$AAn?$AAd?$AAi?$AAs?$AAM?$AAe?$AAs?$AAs?$AAa?$AAg@| DCB "+"
	DCB	0x0, "R", 0x0, "N", 0x0, "D", 0x0, "I", 0x0, "S", 0x0, "_"
	DCB	0x0, "U", 0x0, "S", 0x0, "B", 0x0, "F", 0x0, "N", 0x0, "_"
	DCB	0x0, "P", 0x0, "D", 0x0, "D", 0x0, "_", 0x0, "S", 0x0, "e"
	DCB	0x0, "n", 0x0, "d", 0x0, "R", 0x0, "n", 0x0, "d", 0x0, "i"
	DCB	0x0, "s", 0x0, "M", 0x0, "e", 0x0, "s", 0x0, "s", 0x0, "a"
	DCB	0x0, "g", 0x0, "e", 0x0, 0xd, 0x0, 0xa, 0x0, 0x0, 0x0 ; `string'
; Function compile flags: /Ogspy

  00000			 AREA	 |.text|, CODE, ARM

  00000		 |PDD_SendRndisMessage| PROC

; 905  : {

  00000		 |$LN16@PDD_SendRn|
  00000	e92d4030	 stmdb       sp!, {r4, r5, lr}
  00004		 |$M47272|
  00004	e1a05000	 mov         r5, r0

; 906  :     OALMSG(OAL_ETHER&&OAL_FUNC, (L"+RNDIS_USBFN_PDD_SendRndisMessage\r\n"));

  00008	e59f40f4	 ldr         r4, [pc, #0xF4]
  0000c	e5943440	 ldr         r3, [r4, #0x440]
  00010	e3130a02	 tst         r3, #2, 20
  00014	13130004	 tstne       r3, #4
  00018	159f00e0	 ldrne       r0, [pc, #0xE0]
  0001c	1b000000	 blne        NKDbgPrintfW

; 907  : 
; 908  :     //
; 909  :     // We don't do the actual sending here but queue it up...
; 910  :     // We then trigger Interrupt endpoint to send interrupt to host which will in turn
; 911  :     // use EP0 to GET_ENCAPSULATED_RESPONSE
; 912  :     InsertTailList((&g_RndisKitlDev.listTxRndisMessageQueue), &(pDataWrapper->Link));

  00020	e59f10d4	 ldr         r1, [pc, #0xD4]
  00024	e5912438	 ldr         r2, [r1, #0x438]
  00028	e2813b01	 add         r3, r1, #1, 22
  0002c	e2833034	 add         r3, r3, #0x34
  00030	e5853000	 str         r3, [r5]
  00034	e5852004	 str         r2, [r5, #4]
  00038	e5825000	 str         r5, [r2]

; 913  : 
; 914  :     OALMSG(OAL_ETHER&&OAL_FUNC, (
; 915  :         L"+RNDIS_USBFN_PDD_SendRndisMessage: message queued.\r\n"
; 916  :     ));

  0003c	e5942440	 ldr         r2, [r4, #0x440]
  00040	e5815438	 str         r5, [r1, #0x438]
  00044	e3120a02	 tst         r2, #2, 20
  00048	0a000004	 beq         |$LN8@PDD_SendRn|
  0004c	e3120004	 tst         r2, #4
  00050	0a000002	 beq         |$LN8@PDD_SendRn|
  00054	e59f009c	 ldr         r0, [pc, #0x9C]
  00058	eb000000	 bl          NKDbgPrintfW
  0005c	e5942440	 ldr         r2, [r4, #0x440]
  00060		 |$LN8@PDD_SendRn|

; 917  :     // Interrupt (via interrupt endpoint) the host to GET_ENCAPSULATED_RESPONSE
; 918  : 
; 919  :     // g_EP3Transfer.dwCallerPermissions;
; 920  :     g_EP3Transfer.dwFlags = USB_REQUEST_DEVICE_TO_HOST;

  00060	e59f508c	 ldr         r5, [pc, #0x8C]

; 921  :     g_EP3Transfer.pvBuffer = &g_InterruptData;

  00064	e59f3084	 ldr         r3, [pc, #0x84]
  00068	e3a01080	 mov         r1, #0x80

; 922  :     // g_EP3Transfer.dwBufferPhysicalAddress; // not used
; 923  :     g_EP3Transfer.cbBuffer = sizeof(g_InterruptData);
; 924  :     g_EP3Transfer.cbTransferred = 0;
; 925  :     g_EP3Transfer.dwUsbError = UFN_NOT_COMPLETE_ERROR; // Possible values are in usbfntypes.h
; 926  :     g_EP3Transfer.pvPddData = NULL;
; 927  :     g_EP3Transfer.pvPddTransferInfo = NULL;
; 928  : 
; 929  :     OALMSG(OAL_ETHER&&OAL_FUNC, (
; 930  :         L"+RNDIS_USBFN_PDD_SendRndisMessage: issuing interrupt...\r\n"
; 931  :     ));

  0006c	e3120a02	 tst         r2, #2, 20
  00070	e885000a	 stmia       r5, {r1, r3}
  00074	e3a03008	 mov         r3, #8
  00078	e585300c	 str         r3, [r5, #0xC]
  0007c	e3a01c01	 mov         r1, #1, 24
  00080	13120004	 tstne       r2, #4
  00084	159f0060	 ldrne       r0, [pc, #0x60]
  00088	e3a03000	 mov         r3, #0
  0008c	e5853010	 str         r3, [r5, #0x10]
  00090	e3813003	 orr         r3, r1, #3
  00094	e5853014	 str         r3, [r5, #0x14]
  00098	e3a03000	 mov         r3, #0
  0009c	e5853018	 str         r3, [r5, #0x18]
  000a0	e3a03000	 mov         r3, #0
  000a4	e585301c	 str         r3, [r5, #0x1C]
  000a8	1b000000	 blne        NKDbgPrintfW

; 932  :     g_pddInterface.pfnIssueTransfer( g_pddInterface.pvPddContext, 3, &g_EP3Transfer );

  000ac	e59f3034	 ldr         r3, [pc, #0x34]
  000b0	e1a02005	 mov         r2, r5
  000b4	e3a01003	 mov         r1, #3
  000b8	e593000c	 ldr         r0, [r3, #0xC]
  000bc	e5933030	 ldr         r3, [r3, #0x30]
  000c0	e1a0e00f	 mov         lr, pc
  000c4	e12fff13	 bx          r3

; 933  : 
; 934  :     OALMSG(OAL_ETHER&&OAL_FUNC, (L"-RNDIS_USBFN_PDD_SendRndisMessage\r\n"));

  000c8	e5943440	 ldr         r3, [r4, #0x440]
  000cc	e3130a02	 tst         r3, #2, 20
  000d0	13130004	 tstne       r3, #4
  000d4	159f0008	 ldrne       r0, [pc, #8]
  000d8	1b000000	 blne        NKDbgPrintfW

; 935  : 
; 936  : }

  000dc	e8bd4030	 ldmia       sp!, {r4, r5, lr}
  000e0	e12fff1e	 bx          lr
  000e4		 |$LN17@PDD_SendRn|
  000e4		 |$LN18@PDD_SendRn|
  000e4	00000000	 DCD         |??_C@_1EI@ONHOMNHJ@?$AA?9?$AAR?$AAN?$AAD?$AAI?$AAS?$AA_?$AAU?$AAS?$AAB?$AAF?$AAN?$AA_?$AAP?$AAD?$AAD?$AA_?$AAS?$AAe?$AAn?$AAd?$AAR?$AAn?$AAd?$AAi?$AAs?$AAM?$AAe?$AAs?$AAs?$AAa?$AAg@|
  000e8		 |$LN19@PDD_SendRn|
  000e8	00000000	 DCD         |g_pddInterface|
  000ec		 |$LN20@PDD_SendRn|
  000ec	00000000	 DCD         |??_C@_1HE@PDJOEOPK@?$AA?$CL?$AAR?$AAN?$AAD?$AAI?$AAS?$AA_?$AAU?$AAS?$AAB?$AAF?$AAN?$AA_?$AAP?$AAD?$AAD?$AA_?$AAS?$AAe?$AAn?$AAd?$AAR?$AAn?$AAd?$AAi?$AAs?$AAM?$AAe?$AAs?$AAs?$AAa?$AAg@|
  000f0		 |$LN21@PDD_SendRn|
  000f0	00000000	 DCD         |g_InterruptData|
  000f4		 |$LN22@PDD_SendRn|
  000f4	00000000	 DCD         |g_EP3Transfer|
  000f8		 |$LN23@PDD_SendRn|
  000f8	00000000	 DCD         |??_C@_1GK@OCDDHLML@?$AA?$CL?$AAR?$AAN?$AAD?$AAI?$AAS?$AA_?$AAU?$AAS?$AAB?$AAF?$AAN?$AA_?$AAP?$AAD?$AAD?$AA_?$AAS?$AAe?$AAn?$AAd?$AAR?$AAn?$AAd?$AAi?$AAs?$AAM?$AAe?$AAs?$AAs?$AAa?$AAg@|
  000fc		 |$LN24@PDD_SendRn|
  000fc	00000000	 DCD         |g_RndisKitlDev|
  00100		 |$LN25@PDD_SendRn|
  00100	00000000	 DCD         |??_C@_1EI@LPKHCIID@?$AA?$CL?$AAR?$AAN?$AAD?$AAI?$AAS?$AA_?$AAU?$AAS?$AAB?$AAF?$AAN?$AA_?$AAP?$AAD?$AAD?$AA_?$AAS?$AAe?$AAn?$AAd?$AAR?$AAn?$AAd?$AAi?$AAs?$AAM?$AAe?$AAs?$AAs?$AAa?$AAg@|
  00104		 |$LN26@PDD_SendRn|
  00104	00000000	 DCD         |dpCurSettings|
  00108		 |$M47273|

			 ENDP  ; |PDD_SendRndisMessage|

	EXPORT	|PDD_SendRndisPacket|
	EXPORT	|??_C@_1EG@FPFPIBJG@?$AA?9?$AAR?$AAN?$AAD?$AAI?$AAS?$AA_?$AAU?$AAS?$AAB?$AAF?$AAN?$AA_?$AAP?$AAD?$AAD?$AA_?$AAS?$AAe?$AAn?$AAd?$AAR?$AAn?$AAd?$AAi?$AAs?$AAP?$AAa?$AAc?$AAk?$AAe?$AAt@| [ DATA ] ; `string'
	EXPORT	|??_C@_1FG@MIKLDILD@?$AA?$CK?$AA?$CK?$AA?$CK?$AA?$CK?$AAM?$AAu?$AAl?$AAt?$AAi?$AAp?$AAl?$AAe?$AA?5?$AAp?$AAe?$AAn?$AAd?$AAi?$AAn?$AAg?$AA?5?$AAs?$AAe?$AAn?$AAd?$AA?5?$AAr?$AAn?$AAd?$AAi?$AAs?$AA?5@| [ DATA ] ; `string'
	EXPORT	|??_C@_1EI@PJCOBAOE@?$AAG?$AAo?$AAt?$AA?5?$AAS?$AAe?$AAn?$AAd?$AAP?$AAa?$AAc?$AAk?$AAe?$AAt?$AA?5?$AAR?$AAe?$AAq?$AAu?$AAe?$AAs?$AAt?$AA?5?$AA?$FL?$AA?$CF?$AAd?$AA?5?$AAb?$AAy?$AAt?$AAe?$AAs@| [ DATA ] ; `string'
	EXPORT	|??_C@_1EG@FDHKBGKN@?$AA?$CL?$AAR?$AAN?$AAD?$AAI?$AAS?$AA_?$AAU?$AAS?$AAB?$AAF?$AAN?$AA_?$AAP?$AAD?$AAD?$AA_?$AAS?$AAe?$AAn?$AAd?$AAR?$AAn?$AAd?$AAi?$AAs?$AAP?$AAa?$AAc?$AAk?$AAe?$AAt@| [ DATA ] ; `string'

  00000			 AREA	 |.pdata|, PDATA
|$T47301| DCD	|$LN14@PDD_SendRn@2|
	DCD	0x40004601

  00000			 AREA	 |.rdata|, DATA, READONLY
|??_C@_1EG@FPFPIBJG@?$AA?9?$AAR?$AAN?$AAD?$AAI?$AAS?$AA_?$AAU?$AAS?$AAB?$AAF?$AAN?$AA_?$AAP?$AAD?$AAD?$AA_?$AAS?$AAe?$AAn?$AAd?$AAR?$AAn?$AAd?$AAi?$AAs?$AAP?$AAa?$AAc?$AAk?$AAe?$AAt@| DCB "-"
	DCB	0x0, "R", 0x0, "N", 0x0, "D", 0x0, "I", 0x0, "S", 0x0, "_"
	DCB	0x0, "U", 0x0, "S", 0x0, "B", 0x0, "F", 0x0, "N", 0x0, "_"
	DCB	0x0, "P", 0x0, "D", 0x0, "D", 0x0, "_", 0x0, "S", 0x0, "e"
	DCB	0x0, "n", 0x0, "d", 0x0, "R", 0x0, "n", 0x0, "d", 0x0, "i"
	DCB	0x0, "s", 0x0, "P", 0x0, "a", 0x0, "c", 0x0, "k", 0x0, "e"
	DCB	0x0, "t", 0x0, 0xd, 0x0, 0xa, 0x0, 0x0, 0x0 ; `string'

  00000			 AREA	 |.rdata|, DATA, READONLY
|??_C@_1FG@MIKLDILD@?$AA?$CK?$AA?$CK?$AA?$CK?$AA?$CK?$AAM?$AAu?$AAl?$AAt?$AAi?$AAp?$AAl?$AAe?$AA?5?$AAp?$AAe?$AAn?$AAd?$AAi?$AAn?$AAg?$AA?5?$AAs?$AAe?$AAn?$AAd?$AA?5?$AAr?$AAn?$AAd?$AAi?$AAs?$AA?5@| DCB "*"
	DCB	0x0, "*", 0x0, "*", 0x0, "*", 0x0, "M", 0x0, "u", 0x0, "l"
	DCB	0x0, "t", 0x0, "i", 0x0, "p", 0x0, "l", 0x0, "e", 0x0, " "
	DCB	0x0, "p", 0x0, "e", 0x0, "n", 0x0, "d", 0x0, "i", 0x0, "n"
	DCB	0x0, "g", 0x0, " ", 0x0, "s", 0x0, "e", 0x0, "n", 0x0, "d"
	DCB	0x0, " ", 0x0, "r", 0x0, "n", 0x0, "d", 0x0, "i", 0x0, "s"
	DCB	0x0, " ", 0x0, "p", 0x0, "a", 0x0, "c", 0x0, "k", 0x0, "e"
	DCB	0x0, "t", 0x0, "!", 0x0, "!", 0x0, 0xd, 0x0, 0xa, 0x0, 0x0
	DCB	0x0					; `string'

  00000			 AREA	 |.rdata|, DATA, READONLY
|??_C@_1EI@PJCOBAOE@?$AAG?$AAo?$AAt?$AA?5?$AAS?$AAe?$AAn?$AAd?$AAP?$AAa?$AAc?$AAk?$AAe?$AAt?$AA?5?$AAR?$AAe?$AAq?$AAu?$AAe?$AAs?$AAt?$AA?5?$AA?$FL?$AA?$CF?$AAd?$AA?5?$AAb?$AAy?$AAt?$AAe?$AAs@| DCB "G"
	DCB	0x0, "o", 0x0, "t", 0x0, " ", 0x0, "S", 0x0, "e", 0x0, "n"
	DCB	0x0, "d", 0x0, "P", 0x0, "a", 0x0, "c", 0x0, "k", 0x0, "e"
	DCB	0x0, "t", 0x0, " ", 0x0, "R", 0x0, "e", 0x0, "q", 0x0, "u"
	DCB	0x0, "e", 0x0, "s", 0x0, "t", 0x0, " ", 0x0, "[", 0x0, "%"
	DCB	0x0, "d", 0x0, " ", 0x0, "b", 0x0, "y", 0x0, "t", 0x0, "e"
	DCB	0x0, "s", 0x0, "]", 0x0, 0xd, 0x0, 0xa, 0x0, 0x0, 0x0 ; `string'

  00000			 AREA	 |.rdata|, DATA, READONLY
|??_C@_1EG@FDHKBGKN@?$AA?$CL?$AAR?$AAN?$AAD?$AAI?$AAS?$AA_?$AAU?$AAS?$AAB?$AAF?$AAN?$AA_?$AAP?$AAD?$AAD?$AA_?$AAS?$AAe?$AAn?$AAd?$AAR?$AAn?$AAd?$AAi?$AAs?$AAP?$AAa?$AAc?$AAk?$AAe?$AAt@| DCB "+"
	DCB	0x0, "R", 0x0, "N", 0x0, "D", 0x0, "I", 0x0, "S", 0x0, "_"
	DCB	0x0, "U", 0x0, "S", 0x0, "B", 0x0, "F", 0x0, "N", 0x0, "_"
	DCB	0x0, "P", 0x0, "D", 0x0, "D", 0x0, "_", 0x0, "S", 0x0, "e"
	DCB	0x0, "n", 0x0, "d", 0x0, "R", 0x0, "n", 0x0, "d", 0x0, "i"
	DCB	0x0, "s", 0x0, "P", 0x0, "a", 0x0, "c", 0x0, "k", 0x0, "e"
	DCB	0x0, "t", 0x0, 0xd, 0x0, 0xa, 0x0, 0x0, 0x0 ; `string'
; Function compile flags: /Ogspy

  00000			 AREA	 |.text|, CODE, ARM

  00000		 |PDD_SendRndisPacket| PROC

; 956  : {    

  00000		 |$LN14@PDD_SendRn@2|
  00000	e92d40f0	 stmdb       sp!, {r4 - r7, lr}
  00004		 |$M47298|
  00004	e1a04000	 mov         r4, r0

; 957  :     OALMSG(OAL_ETHER&&OAL_FUNC, (L"+RNDIS_USBFN_PDD_SendRndisPacket\r\n"));

  00008	e59f6104	 ldr         r6, [pc, #0x104]
  0000c	e5962440	 ldr         r2, [r6, #0x440]
  00010	e3120a02	 tst         r2, #2, 20
  00014	0a000004	 beq         |$LN4@PDD_SendRn@2|
  00018	e3120004	 tst         r2, #4
  0001c	0a000002	 beq         |$LN4@PDD_SendRn@2|
  00020	e59f00e8	 ldr         r0, [pc, #0xE8]
  00024	eb000000	 bl          NKDbgPrintfW
  00028	e5962440	 ldr         r2, [r6, #0x440]
  0002c		 |$LN4@PDD_SendRn@2|

; 958  :     OALMSG(OAL_ETHER&&OAL_FUNC, (
; 959  :         L"Got SendPacket Request [%d bytes]\r\n", pDataWrapper->dwDataSize
; 960  :     ));

  0002c	e3120a02	 tst         r2, #2, 20
  00030	0a000005	 beq         |$LN6@PDD_SendRn@2|
  00034	e3120004	 tst         r2, #4
  00038	0a000003	 beq         |$LN6@PDD_SendRn@2|
  0003c	e594100c	 ldr         r1, [r4, #0xC]
  00040	e59f00c4	 ldr         r0, [pc, #0xC4]
  00044	eb000000	 bl          NKDbgPrintfW
  00048	e5962440	 ldr         r2, [r6, #0x440]
  0004c		 |$LN6@PDD_SendRn@2|

; 961  : 
; 962  :     if (g_RndisKitlDev.pTxDataWrapper != NULL) {

  0004c	e59f50b4	 ldr         r5, [pc, #0xB4]
  00050	e595343c	 ldr         r3, [r5, #0x43C]
  00054	e3530000	 cmp         r3, #0
  00058	0a000004	 beq         |$LN1@PDD_SendRn@2|

; 963  :         //
; 964  :         // BAD!
; 965  :         // This should never happen!!
; 966  :         // Return the packet immediately..
; 967  :         //
; 968  :         OALMSG(OAL_ERROR, (L"****Multiple pending send rndis packet!!\r\n"));

  0005c	e3120001	 tst         r2, #1
  00060	159f009c	 ldrne       r0, [pc, #0x9C]
  00064	1b000000	 blne        NKDbgPrintfW

; 969  :         MddSendRndisPacketComplete(pDataWrapper);

  00068	e1a00004	 mov         r0, r4
  0006c	eb000000	 bl          MddSendRndisPacketComplete
  00070		 |$LN1@PDD_SendRn@2|

; 970  :     }
; 971  : 
; 972  :     // save the data wrapper pointer so we can return later it in TxComplete call
; 973  :     g_RndisKitlDev.pTxDataWrapper = pDataWrapper;
; 974  : 
; 975  :     // g_EP2Transfer.dwCallerPermissions;
; 976  :     g_EP2Transfer.dwFlags = USB_REQUEST_DEVICE_TO_HOST;

  00070	e59f2088	 ldr         r2, [pc, #0x88]
  00074	e3a03080	 mov         r3, #0x80
  00078	e585443c	 str         r4, [r5, #0x43C]
  0007c	e5823000	 str         r3, [r2]

; 977  :     g_EP2Transfer.pvBuffer = pDataWrapper->pucData;

  00080	e5943008	 ldr         r3, [r4, #8]

; 978  :     // g_EP2Transfer.dwBufferPhysicalAddress; // not used
; 979  :     g_EP2Transfer.cbBuffer = pDataWrapper->dwDataSize;
; 980  :     g_EP2Transfer.cbTransferred = 0;
; 981  :     g_EP2Transfer.dwUsbError = UFN_NOT_COMPLETE_ERROR; // Possible values are in usbfntypes.h
; 982  :     g_EP2Transfer.pvPddData = NULL;
; 983  :     g_EP2Transfer.pvPddTransferInfo = NULL;
; 984  : 
; 985  :     g_EP2TransferState = TS_SENDING_PACKET;
; 986  :     g_pddInterface.pfnIssueTransfer( g_pddInterface.pvPddContext, 2, &g_EP2Transfer );

  00084	e3a0ec01	 mov         lr, #1, 24
  00088	e3a00000	 mov         r0, #0
  0008c	e5823004	 str         r3, [r2, #4]
  00090	e594300c	 ldr         r3, [r4, #0xC]
  00094	e59f1060	 ldr         r1, [pc, #0x60]
  00098	e59f5058	 ldr         r5, [pc, #0x58]
  0009c	e582300c	 str         r3, [r2, #0xC]
  000a0	e38e3003	 orr         r3, lr, #3
  000a4	e5820010	 str         r0, [r2, #0x10]
  000a8	e5823014	 str         r3, [r2, #0x14]
  000ac	e3a03000	 mov         r3, #0
  000b0	e5823018	 str         r3, [r2, #0x18]
  000b4	e591000c	 ldr         r0, [r1, #0xC]
  000b8	e5914030	 ldr         r4, [r1, #0x30]
  000bc	e3a03000	 mov         r3, #0
  000c0	e3a07004	 mov         r7, #4
  000c4	e582301c	 str         r3, [r2, #0x1C]
  000c8	e3a01002	 mov         r1, #2
  000cc	e5857000	 str         r7, [r5]
  000d0	e1a0e00f	 mov         lr, pc
  000d4	e12fff14	 bx          r4

; 987  : 
; 988  :     OALMSG(OAL_ETHER&&OAL_FUNC, (L"-RNDIS_USBFN_PDD_SendRndisPacket\r\n"));

  000d8	e5963440	 ldr         r3, [r6, #0x440]
  000dc	e3130a02	 tst         r3, #2, 20
  000e0	13130004	 tstne       r3, #4
  000e4	159f0008	 ldrne       r0, [pc, #8]
  000e8	1b000000	 blne        NKDbgPrintfW

; 989  : }

  000ec	e8bd40f0	 ldmia       sp!, {r4 - r7, lr}
  000f0	e12fff1e	 bx          lr
  000f4		 |$LN15@PDD_SendRn@2|
  000f4		 |$LN16@PDD_SendRn@2|
  000f4	00000000	 DCD         |??_C@_1EG@FPFPIBJG@?$AA?9?$AAR?$AAN?$AAD?$AAI?$AAS?$AA_?$AAU?$AAS?$AAB?$AAF?$AAN?$AA_?$AAP?$AAD?$AAD?$AA_?$AAS?$AAe?$AAn?$AAd?$AAR?$AAn?$AAd?$AAi?$AAs?$AAP?$AAa?$AAc?$AAk?$AAe?$AAt@|
  000f8		 |$LN17@PDD_SendRn@2|
  000f8	00000000	 DCD         |g_EP2TransferState|
  000fc		 |$LN18@PDD_SendRn@2|
  000fc	00000000	 DCD         |g_pddInterface|
  00100		 |$LN19@PDD_SendRn@2|
  00100	00000000	 DCD         |g_EP2Transfer|
  00104		 |$LN20@PDD_SendRn@2|
  00104	00000000	 DCD         |??_C@_1FG@MIKLDILD@?$AA?$CK?$AA?$CK?$AA?$CK?$AA?$CK?$AAM?$AAu?$AAl?$AAt?$AAi?$AAp?$AAl?$AAe?$AA?5?$AAp?$AAe?$AAn?$AAd?$AAi?$AAn?$AAg?$AA?5?$AAs?$AAe?$AAn?$AAd?$AA?5?$AAr?$AAn?$AAd?$AAi?$AAs?$AA?5@|
  00108		 |$LN21@PDD_SendRn@2|
  00108	00000000	 DCD         |g_RndisKitlDev|
  0010c		 |$LN22@PDD_SendRn@2|
  0010c	00000000	 DCD         |??_C@_1EI@PJCOBAOE@?$AAG?$AAo?$AAt?$AA?5?$AAS?$AAe?$AAn?$AAd?$AAP?$AAa?$AAc?$AAk?$AAe?$AAt?$AA?5?$AAR?$AAe?$AAq?$AAu?$AAe?$AAs?$AAt?$AA?5?$AA?$FL?$AA?$CF?$AAd?$AA?5?$AAb?$AAy?$AAt?$AAe?$AAs@|
  00110		 |$LN23@PDD_SendRn@2|
  00110	00000000	 DCD         |??_C@_1EG@FDHKBGKN@?$AA?$CL?$AAR?$AAN?$AAD?$AAI?$AAS?$AA_?$AAU?$AAS?$AAB?$AAF?$AAN?$AA_?$AAP?$AAD?$AAD?$AA_?$AAS?$AAe?$AAn?$AAd?$AAR?$AAn?$AAd?$AAi?$AAs?$AAP?$AAa?$AAc?$AAk?$AAe?$AAt@|
  00114		 |$LN24@PDD_SendRn@2|
  00114	00000000	 DCD         |dpCurSettings|
  00118		 |$M47299|

			 ENDP  ; |PDD_SendRndisPacket|

	EXPORT	|PDD_Set|
	EXPORT	|??_C@_1CO@MBMDAIGD@?$AA?9?$AAR?$AAN?$AAD?$AAI?$AAS?$AA_?$AAU?$AAS?$AAB?$AAF?$AAN?$AA_?$AAP?$AAD?$AAD?$AA_?$AAS?$AAe?$AAt?$AA?$AN?$AA?6?$AA?$AA@| [ DATA ] ; `string'
	EXPORT	|??_C@_1DI@LPFOEPEC@?$AAP?$AAD?$AAD?$AA_?$AAS?$AAe?$AAt?$AA?3?$AAR?$AAE?$AAQ?$AA_?$AAI?$AAD?$AA_?$AAH?$AAA?$AAR?$AAD?$AA_?$AAR?$AAE?$AAS?$AAE?$AAT?$AA?$AN?$AA?6?$AA?$AA@| [ DATA ] ; `string'
	EXPORT	|??_C@_1DI@MFNCMIPE@?$AAP?$AAD?$AAD?$AA_?$AAS?$AAe?$AAt?$AA?3?$AAR?$AAE?$AAQ?$AA_?$AAI?$AAD?$AA_?$AAS?$AAO?$AAF?$AAT?$AA_?$AAR?$AAE?$AAS?$AAE?$AAT?$AA?$AN?$AA?6?$AA?$AA@| [ DATA ] ; `string'
	EXPORT	|??_C@_1DI@KFPGHMKG@?$AAP?$AAD?$AAD?$AA_?$AAS?$AAe?$AAt?$AA?3?$AAR?$AAE?$AAQ?$AA_?$AAI?$AAD?$AA_?$AAE?$AAN?$AAA?$AAB?$AAL?$AAE?$AA_?$AAI?$AAN?$AAT?$AA?$AN?$AA?6?$AA?$AA@| [ DATA ] ; `string'
	EXPORT	|??_C@_1DK@PGGKHLLK@?$AAP?$AAD?$AAD?$AA_?$AAS?$AAe?$AAt?$AA?3?$AAR?$AAE?$AAQ?$AA_?$AAI?$AAD?$AA_?$AAD?$AAI?$AAS?$AAA?$AAB?$AAL?$AAE?$AA_?$AAI?$AAN?$AAT?$AA?$AN?$AA?6?$AA?$AA@| [ DATA ] ; `string'
	EXPORT	|??_C@_1DO@PIKCPFME@?$AAP?$AAD?$AAD?$AA_?$AAS?$AAe?$AAt?$AA?3?$AAU?$AAn?$AAk?$AAn?$AAo?$AAw?$AAn?$AA?5?$AAr?$AAe?$AAq?$AAu?$AAe?$AAs?$AAt?$AA?3?$AA0?$AAx?$AA?$CF?$AAx?$AA?$AN?$AA?6?$AA?$AA@| [ DATA ] ; `string'
	EXPORT	|??_C@_1CO@BKAHFHEI@?$AA?$CL?$AAR?$AAN?$AAD?$AAI?$AAS?$AA_?$AAU?$AAS?$AAB?$AAF?$AAN?$AA_?$AAP?$AAD?$AAD?$AA_?$AAS?$AAe?$AAt?$AA?$AN?$AA?6?$AA?$AA@| [ DATA ] ; `string'

  00000			 AREA	 |.pdata|, PDATA
|$T47337| DCD	|$LN27@PDD_Set|
	DCD	0x40004601

  00000			 AREA	 |.rdata|, DATA, READONLY
|??_C@_1CO@MBMDAIGD@?$AA?9?$AAR?$AAN?$AAD?$AAI?$AAS?$AA_?$AAU?$AAS?$AAB?$AAF?$AAN?$AA_?$AAP?$AAD?$AAD?$AA_?$AAS?$AAe?$AAt?$AA?$AN?$AA?6?$AA?$AA@| DCB "-"
	DCB	0x0, "R", 0x0, "N", 0x0, "D", 0x0, "I", 0x0, "S", 0x0, "_"
	DCB	0x0, "U", 0x0, "S", 0x0, "B", 0x0, "F", 0x0, "N", 0x0, "_"
	DCB	0x0, "P", 0x0, "D", 0x0, "D", 0x0, "_", 0x0, "S", 0x0, "e"
	DCB	0x0, "t", 0x0, 0xd, 0x0, 0xa, 0x0, 0x0, 0x0 ; `string'

  00000			 AREA	 |.rdata|, DATA, READONLY
|??_C@_1DI@LPFOEPEC@?$AAP?$AAD?$AAD?$AA_?$AAS?$AAe?$AAt?$AA?3?$AAR?$AAE?$AAQ?$AA_?$AAI?$AAD?$AA_?$AAH?$AAA?$AAR?$AAD?$AA_?$AAR?$AAE?$AAS?$AAE?$AAT?$AA?$AN?$AA?6?$AA?$AA@| DCB "P"
	DCB	0x0, "D", 0x0, "D", 0x0, "_", 0x0, "S", 0x0, "e", 0x0, "t"
	DCB	0x0, ":", 0x0, "R", 0x0, "E", 0x0, "Q", 0x0, "_", 0x0, "I"
	DCB	0x0, "D", 0x0, "_", 0x0, "H", 0x0, "A", 0x0, "R", 0x0, "D"
	DCB	0x0, "_", 0x0, "R", 0x0, "E", 0x0, "S", 0x0, "E", 0x0, "T"
	DCB	0x0, 0xd, 0x0, 0xa, 0x0, 0x0, 0x0	; `string'

  00000			 AREA	 |.rdata|, DATA, READONLY
|??_C@_1DI@MFNCMIPE@?$AAP?$AAD?$AAD?$AA_?$AAS?$AAe?$AAt?$AA?3?$AAR?$AAE?$AAQ?$AA_?$AAI?$AAD?$AA_?$AAS?$AAO?$AAF?$AAT?$AA_?$AAR?$AAE?$AAS?$AAE?$AAT?$AA?$AN?$AA?6?$AA?$AA@| DCB "P"
	DCB	0x0, "D", 0x0, "D", 0x0, "_", 0x0, "S", 0x0, "e", 0x0, "t"
	DCB	0x0, ":", 0x0, "R", 0x0, "E", 0x0, "Q", 0x0, "_", 0x0, "I"
	DCB	0x0, "D", 0x0, "_", 0x0, "S", 0x0, "O", 0x0, "F", 0x0, "T"
	DCB	0x0, "_", 0x0, "R", 0x0, "E", 0x0, "S", 0x0, "E", 0x0, "T"
	DCB	0x0, 0xd, 0x0, 0xa, 0x0, 0x0, 0x0	; `string'

  00000			 AREA	 |.rdata|, DATA, READONLY
|??_C@_1DI@KFPGHMKG@?$AAP?$AAD?$AAD?$AA_?$AAS?$AAe?$AAt?$AA?3?$AAR?$AAE?$AAQ?$AA_?$AAI?$AAD?$AA_?$AAE?$AAN?$AAA?$AAB?$AAL?$AAE?$AA_?$AAI?$AAN?$AAT?$AA?$AN?$AA?6?$AA?$AA@| DCB "P"
	DCB	0x0, "D", 0x0, "D", 0x0, "_", 0x0, "S", 0x0, "e", 0x0, "t"
	DCB	0x0, ":", 0x0, "R", 0x0, "E", 0x0, "Q", 0x0, "_", 0x0, "I"
	DCB	0x0, "D", 0x0, "_", 0x0, "E", 0x0, "N", 0x0, "A", 0x0, "B"
	DCB	0x0, "L", 0x0, "E", 0x0, "_", 0x0, "I", 0x0, "N", 0x0, "T"
	DCB	0x0, 0xd, 0x0, 0xa, 0x0, 0x0, 0x0	; `string'

  00000			 AREA	 |.rdata|, DATA, READONLY
|??_C@_1DK@PGGKHLLK@?$AAP?$AAD?$AAD?$AA_?$AAS?$AAe?$AAt?$AA?3?$AAR?$AAE?$AAQ?$AA_?$AAI?$AAD?$AA_?$AAD?$AAI?$AAS?$AAA?$AAB?$AAL?$AAE?$AA_?$AAI?$AAN?$AAT?$AA?$AN?$AA?6?$AA?$AA@| DCB "P"
	DCB	0x0, "D", 0x0, "D", 0x0, "_", 0x0, "S", 0x0, "e", 0x0, "t"
	DCB	0x0, ":", 0x0, "R", 0x0, "E", 0x0, "Q", 0x0, "_", 0x0, "I"
	DCB	0x0, "D", 0x0, "_", 0x0, "D", 0x0, "I", 0x0, "S", 0x0, "A"
	DCB	0x0, "B", 0x0, "L", 0x0, "E", 0x0, "_", 0x0, "I", 0x0, "N"
	DCB	0x0, "T", 0x0, 0xd, 0x0, 0xa, 0x0, 0x0, 0x0 ; `string'

  00000			 AREA	 |.rdata|, DATA, READONLY
|??_C@_1DO@PIKCPFME@?$AAP?$AAD?$AAD?$AA_?$AAS?$AAe?$AAt?$AA?3?$AAU?$AAn?$AAk?$AAn?$AAo?$AAw?$AAn?$AA?5?$AAr?$AAe?$AAq?$AAu?$AAe?$AAs?$AAt?$AA?3?$AA0?$AAx?$AA?$CF?$AAx?$AA?$AN?$AA?6?$AA?$AA@| DCB "P"
	DCB	0x0, "D", 0x0, "D", 0x0, "_", 0x0, "S", 0x0, "e", 0x0, "t"
	DCB	0x0, ":", 0x0, "U", 0x0, "n", 0x0, "k", 0x0, "n", 0x0, "o"
	DCB	0x0, "w", 0x0, "n", 0x0, " ", 0x0, "r", 0x0, "e", 0x0, "q"
	DCB	0x0, "u", 0x0, "e", 0x0, "s", 0x0, "t", 0x0, ":", 0x0, "0"
	DCB	0x0, "x", 0x0, "%", 0x0, "x", 0x0, 0xd, 0x0, 0xa, 0x0, 0x0
	DCB	0x0					; `string'

  00000			 AREA	 |.rdata|, DATA, READONLY
|??_C@_1CO@BKAHFHEI@?$AA?$CL?$AAR?$AAN?$AAD?$AAI?$AAS?$AA_?$AAU?$AAS?$AAB?$AAF?$AAN?$AA_?$AAP?$AAD?$AAD?$AA_?$AAS?$AAe?$AAt?$AA?$AN?$AA?6?$AA?$AA@| DCB "+"
	DCB	0x0, "R", 0x0, "N", 0x0, "D", 0x0, "I", 0x0, "S", 0x0, "_"
	DCB	0x0, "U", 0x0, "S", 0x0, "B", 0x0, "F", 0x0, "N", 0x0, "_"
	DCB	0x0, "P", 0x0, "D", 0x0, "D", 0x0, "_", 0x0, "S", 0x0, "e"
	DCB	0x0, "t", 0x0, 0xd, 0x0, 0xa, 0x0, 0x0, 0x0 ; `string'
; Function compile flags: /Ogspy

  00000			 AREA	 |.text|, CODE, ARM

  00000		 |PDD_Set| PROC

; 1014 : {

  00000		 |$LN27@PDD_Set|
  00000	e92d4070	 stmdb       sp!, {r4 - r6, lr}
  00004		 |$M47334|
  00004	e1a04000	 mov         r4, r0

; 1015 :     BOOL fRet = TRUE;
; 1016 : 
; 1017 :     OALMSG(OAL_ETHER&&OAL_FUNC, (L"+RNDIS_USBFN_PDD_Set\r\n"));

  00008	e59f5104	 ldr         r5, [pc, #0x104]
  0000c	e3a06001	 mov         r6, #1
  00010	e5953440	 ldr         r3, [r5, #0x440]
  00014	e3130a02	 tst         r3, #2, 20
  00018	0a000004	 beq         |$LN10@PDD_Set|
  0001c	e3130004	 tst         r3, #4
  00020	0a000002	 beq         |$LN10@PDD_Set|
  00024	e59f00e4	 ldr         r0, [pc, #0xE4]
  00028	eb000000	 bl          NKDbgPrintfW
  0002c	e5953440	 ldr         r3, [r5, #0x440]
  00030		 |$LN10@PDD_Set|

; 1018 :     // TODO: finish all requests here
; 1019 :     switch(uiRequestId) {

  00030	e3540001	 cmp         r4, #1
  00034	0a000021	 beq         |$LN5@PDD_Set|
  00038	e3540002	 cmp         r4, #2
  0003c	0a000019	 beq         |$LN4@PDD_Set|
  00040	e3540003	 cmp         r4, #3
  00044	0a000011	 beq         |$LN3@PDD_Set|
  00048	e3540004	 cmp         r4, #4
  0004c	0a000009	 beq         |$LN2@PDD_Set|

; 1032 :     default:
; 1033 :         OALMSG(OAL_ETHER&&OAL_FUNC, (
; 1034 :             L"PDD_Set:Unknown request:0x%x\r\n", uiRequestId
; 1035 :         ));

  00050	e3130a02	 tst         r3, #2, 20
  00054	0a000005	 beq         |$LN20@PDD_Set|
  00058	e3130004	 tst         r3, #4
  0005c	0a000003	 beq         |$LN20@PDD_Set|
  00060	e59f00a4	 ldr         r0, [pc, #0xA4]
  00064	e1a01004	 mov         r1, r4
  00068	eb000000	 bl          NKDbgPrintfW
  0006c	e5953440	 ldr         r3, [r5, #0x440]
  00070		 |$LN20@PDD_Set|

; 1036 :         fRet = FALSE;

  00070	e3a06000	 mov         r6, #0

; 1037 :         break;

  00074	ea000018	 b           |$LN12@PDD_Set|
  00078		 |$LN2@PDD_Set|

; 1029 :     case REQ_ID_DISABLE_INT:
; 1030 :         OALMSG(OAL_ETHER&&OAL_FUNC, (L"PDD_Set:REQ_ID_DISABLE_INT\r\n"));

  00078	e3130a02	 tst         r3, #2, 20
  0007c	0a000016	 beq         |$LN12@PDD_Set|
  00080	e3130004	 tst         r3, #4
  00084	0a000014	 beq         |$LN12@PDD_Set|
  00088	e59f0078	 ldr         r0, [pc, #0x78]

; 1031 :         break;

  0008c	ea000010	 b           |$LN24@PDD_Set|
  00090		 |$LN3@PDD_Set|

; 1026 :     case REQ_ID_ENABLE_INT:
; 1027 :         OALMSG(OAL_ETHER&&OAL_FUNC, (L"PDD_Set:REQ_ID_ENABLE_INT\r\n"));

  00090	e3130a02	 tst         r3, #2, 20
  00094	0a000010	 beq         |$LN12@PDD_Set|
  00098	e3130004	 tst         r3, #4
  0009c	0a00000e	 beq         |$LN12@PDD_Set|
  000a0	e59f005c	 ldr         r0, [pc, #0x5C]

; 1028 :         break;

  000a4	ea00000a	 b           |$LN24@PDD_Set|
  000a8		 |$LN4@PDD_Set|

; 1022 :         break;
; 1023 :     case REQ_ID_SOFT_RESET:
; 1024 :         OALMSG(OAL_ETHER&&OAL_FUNC, (L"PDD_Set:REQ_ID_SOFT_RESET\r\n"));

  000a8	e3130a02	 tst         r3, #2, 20
  000ac	0a00000a	 beq         |$LN12@PDD_Set|
  000b0	e3130004	 tst         r3, #4
  000b4	0a000008	 beq         |$LN12@PDD_Set|
  000b8	e59f0040	 ldr         r0, [pc, #0x40]

; 1025 :         break;

  000bc	ea000004	 b           |$LN24@PDD_Set|
  000c0		 |$LN5@PDD_Set|

; 1020 :     case REQ_ID_HARD_RESET:
; 1021 :         OALMSG(OAL_ETHER&&OAL_FUNC, (L"PDD_Set:REQ_ID_HARD_RESET\r\n"));

  000c0	e3130a02	 tst         r3, #2, 20
  000c4	0a000004	 beq         |$LN12@PDD_Set|
  000c8	e3130004	 tst         r3, #4
  000cc	0a000002	 beq         |$LN12@PDD_Set|
  000d0	e59f0024	 ldr         r0, [pc, #0x24]
  000d4		 |$LN24@PDD_Set|
  000d4	eb000000	 bl          NKDbgPrintfW
  000d8	e5953440	 ldr         r3, [r5, #0x440]
  000dc		 |$LN12@PDD_Set|

; 1038 :     }
; 1039 :     
; 1040 :     OALMSG(OAL_ETHER&&OAL_FUNC, (L"-RNDIS_USBFN_PDD_Set\r\n"));

  000dc	e3130a02	 tst         r3, #2, 20
  000e0	13130004	 tstne       r3, #4
  000e4	159f000c	 ldrne       r0, [pc, #0xC]
  000e8	1b000000	 blne        NKDbgPrintfW

; 1041 :     return fRet;
; 1042 : }

  000ec	e1a00006	 mov         r0, r6
  000f0	e8bd4070	 ldmia       sp!, {r4 - r6, lr}
  000f4	e12fff1e	 bx          lr
  000f8		 |$LN28@PDD_Set|
  000f8		 |$LN29@PDD_Set|
  000f8	00000000	 DCD         |??_C@_1CO@MBMDAIGD@?$AA?9?$AAR?$AAN?$AAD?$AAI?$AAS?$AA_?$AAU?$AAS?$AAB?$AAF?$AAN?$AA_?$AAP?$AAD?$AAD?$AA_?$AAS?$AAe?$AAt?$AA?$AN?$AA?6?$AA?$AA@|
  000fc		 |$LN30@PDD_Set|
  000fc	00000000	 DCD         |??_C@_1DI@LPFOEPEC@?$AAP?$AAD?$AAD?$AA_?$AAS?$AAe?$AAt?$AA?3?$AAR?$AAE?$AAQ?$AA_?$AAI?$AAD?$AA_?$AAH?$AAA?$AAR?$AAD?$AA_?$AAR?$AAE?$AAS?$AAE?$AAT?$AA?$AN?$AA?6?$AA?$AA@|
  00100		 |$LN31@PDD_Set|
  00100	00000000	 DCD         |??_C@_1DI@MFNCMIPE@?$AAP?$AAD?$AAD?$AA_?$AAS?$AAe?$AAt?$AA?3?$AAR?$AAE?$AAQ?$AA_?$AAI?$AAD?$AA_?$AAS?$AAO?$AAF?$AAT?$AA_?$AAR?$AAE?$AAS?$AAE?$AAT?$AA?$AN?$AA?6?$AA?$AA@|
  00104		 |$LN32@PDD_Set|
  00104	00000000	 DCD         |??_C@_1DI@KFPGHMKG@?$AAP?$AAD?$AAD?$AA_?$AAS?$AAe?$AAt?$AA?3?$AAR?$AAE?$AAQ?$AA_?$AAI?$AAD?$AA_?$AAE?$AAN?$AAA?$AAB?$AAL?$AAE?$AA_?$AAI?$AAN?$AAT?$AA?$AN?$AA?6?$AA?$AA@|
  00108		 |$LN33@PDD_Set|
  00108	00000000	 DCD         |??_C@_1DK@PGGKHLLK@?$AAP?$AAD?$AAD?$AA_?$AAS?$AAe?$AAt?$AA?3?$AAR?$AAE?$AAQ?$AA_?$AAI?$AAD?$AA_?$AAD?$AAI?$AAS?$AAA?$AAB?$AAL?$AAE?$AA_?$AAI?$AAN?$AAT?$AA?$AN?$AA?6?$AA?$AA@|
  0010c		 |$LN34@PDD_Set|
  0010c	00000000	 DCD         |??_C@_1DO@PIKCPFME@?$AAP?$AAD?$AAD?$AA_?$AAS?$AAe?$AAt?$AA?3?$AAU?$AAn?$AAk?$AAn?$AAo?$AAw?$AAn?$AA?5?$AAr?$AAe?$AAq?$AAu?$AAe?$AAs?$AAt?$AA?3?$AA0?$AAx?$AA?$CF?$AAx?$AA?$AN?$AA?6?$AA?$AA@|
  00110		 |$LN35@PDD_Set|
  00110	00000000	 DCD         |??_C@_1CO@BKAHFHEI@?$AA?$CL?$AAR?$AAN?$AAD?$AAI?$AAS?$AA_?$AAU?$AAS?$AAB?$AAF?$AAN?$AA_?$AAP?$AAD?$AAD?$AA_?$AAS?$AAe?$AAt?$AA?$AN?$AA?6?$AA?$AA@|
  00114		 |$LN36@PDD_Set|
  00114	00000000	 DCD         |dpCurSettings|
  00118		 |$M47335|

			 ENDP  ; |PDD_Set|

	EXPORT	|PDD_Get|
	EXPORT	|??_C@_1CO@MONNNOOA@?$AA?9?$AAR?$AAN?$AAD?$AAI?$AAS?$AA_?$AAU?$AAS?$AAB?$AAF?$AAN?$AA_?$AAP?$AAD?$AAD?$AA_?$AAG?$AAe?$AAt?$AA?$AN?$AA?6?$AA?$AA@| [ DATA ] ; `string'
	EXPORT	|??_C@_1EC@FCCAEHJA@?$AA?9?$AAP?$AAD?$AAD?$AA_?$AAG?$AAe?$AAt?$AA?3?$AA?5?$AAu?$AAn?$AAk?$AAn?$AAo?$AAw?$AAn?$AA?5?$AAr?$AAe?$AAq?$AAu?$AAe?$AAs?$AAt?$AA?5?$AA0?$AAx?$AA?$CF?$AAx?$AA?$AN?$AA?6@| [ DATA ] ; `string'
	EXPORT	|??_C@_1CO@BFBJIBML@?$AA?$CL?$AAR?$AAN?$AAD?$AAI?$AAS?$AA_?$AAU?$AAS?$AAB?$AAF?$AAN?$AA_?$AAP?$AAD?$AAD?$AA_?$AAG?$AAe?$AAt?$AA?$AN?$AA?6?$AA?$AA@| [ DATA ] ; `string'
	IMPORT	|strlen|

  00000			 AREA	 |.pdata|, PDATA
|$T47372| DCD	|$LN24@PDD_Get|
	DCD	0x40004802

  00000			 AREA	 |.rdata|, DATA, READONLY
|??_C@_1CO@MONNNOOA@?$AA?9?$AAR?$AAN?$AAD?$AAI?$AAS?$AA_?$AAU?$AAS?$AAB?$AAF?$AAN?$AA_?$AAP?$AAD?$AAD?$AA_?$AAG?$AAe?$AAt?$AA?$AN?$AA?6?$AA?$AA@| DCB "-"
	DCB	0x0, "R", 0x0, "N", 0x0, "D", 0x0, "I", 0x0, "S", 0x0, "_"
	DCB	0x0, "U", 0x0, "S", 0x0, "B", 0x0, "F", 0x0, "N", 0x0, "_"
	DCB	0x0, "P", 0x0, "D", 0x0, "D", 0x0, "_", 0x0, "G", 0x0, "e"
	DCB	0x0, "t", 0x0, 0xd, 0x0, 0xa, 0x0, 0x0, 0x0 ; `string'

  00000			 AREA	 |.rdata|, DATA, READONLY
|??_C@_1EC@FCCAEHJA@?$AA?9?$AAP?$AAD?$AAD?$AA_?$AAG?$AAe?$AAt?$AA?3?$AA?5?$AAu?$AAn?$AAk?$AAn?$AAo?$AAw?$AAn?$AA?5?$AAr?$AAe?$AAq?$AAu?$AAe?$AAs?$AAt?$AA?5?$AA0?$AAx?$AA?$CF?$AAx?$AA?$AN?$AA?6@| DCB "-"
	DCB	0x0, "P", 0x0, "D", 0x0, "D", 0x0, "_", 0x0, "G", 0x0, "e"
	DCB	0x0, "t", 0x0, ":", 0x0, " ", 0x0, "u", 0x0, "n", 0x0, "k"
	DCB	0x0, "n", 0x0, "o", 0x0, "w", 0x0, "n", 0x0, " ", 0x0, "r"
	DCB	0x0, "e", 0x0, "q", 0x0, "u", 0x0, "e", 0x0, "s", 0x0, "t"
	DCB	0x0, " ", 0x0, "0", 0x0, "x", 0x0, "%", 0x0, "x", 0x0, 0xd
	DCB	0x0, 0xa, 0x0, 0x0, 0x0			; `string'

  00000			 AREA	 |.rdata|, DATA, READONLY
|??_C@_1CO@BFBJIBML@?$AA?$CL?$AAR?$AAN?$AAD?$AAI?$AAS?$AA_?$AAU?$AAS?$AAB?$AAF?$AAN?$AA_?$AAP?$AAD?$AAD?$AA_?$AAG?$AAe?$AAt?$AA?$AN?$AA?6?$AA?$AA@| DCB "+"
	DCB	0x0, "R", 0x0, "N", 0x0, "D", 0x0, "I", 0x0, "S", 0x0, "_"
	DCB	0x0, "U", 0x0, "S", 0x0, "B", 0x0, "F", 0x0, "N", 0x0, "_"
	DCB	0x0, "P", 0x0, "D", 0x0, "D", 0x0, "_", 0x0, "G", 0x0, "e"
	DCB	0x0, "t", 0x0, 0xd, 0x0, 0xa, 0x0, 0x0, 0x0 ; `string'
; Function compile flags: /Ogspy

  00000			 AREA	 |.text|, CODE, ARM

  00000		 |PDD_Get| PROC

; 1070 : {

  00000		 |$LN24@PDD_Get|
  00000	e92d47f0	 stmdb       sp!, {r4 - r10, lr}
  00004	e24dd004	 sub         sp, sp, #4
  00008		 |$M47369|
  00008	e1a07003	 mov         r7, r3
  0000c	e1a09002	 mov         r9, r2
  00010	e1a0a001	 mov         r10, r1
  00014	e1a05000	 mov         r5, r0

; 1071 :     BOOL fRet = FALSE;
; 1072 :     ULONG GenericUlong;
; 1073 :     ULONG ulTotalBytes;
; 1074 :     PUCHAR pucBuffer;
; 1075 : 
; 1076 :     OALMSG(OAL_ETHER&&OAL_FUNC, (L"+RNDIS_USBFN_PDD_Get\r\n"));

  00018	e59f60fc	 ldr         r6, [pc, #0xFC]
  0001c	e3a08000	 mov         r8, #0
  00020	e5964440	 ldr         r4, [r6, #0x440]
  00024	e3140a02	 tst         r4, #2, 20
  00028	0a000004	 beq         |$LN13@PDD_Get|
  0002c	e3140004	 tst         r4, #4
  00030	0a000002	 beq         |$LN13@PDD_Get|
  00034	e59f00dc	 ldr         r0, [pc, #0xDC]
  00038	eb000000	 bl          NKDbgPrintfW
  0003c	e5964440	 ldr         r4, [r6, #0x440]
  00040		 |$LN13@PDD_Get|

; 1077 : 
; 1078 :     switch(uiRequestId) {

  00040	e3550106	 cmp         r5, #6, 2
  00044	0a000019	 beq         |$LN8@PDD_Get|
  00048	e355010a	 cmp         r5, #0xA, 2
  0004c	0a000013	 beq         |$LN7@PDD_Get|
  00050	e355010e	 cmp         r5, #0xE, 2
  00054	0a00000c	 beq         |$LN6@PDD_Get|
  00058	e3550112	 cmp         r5, #0x12, 2
  0005c	0a000007	 beq         |$LN5@PDD_Get|

; 1096 :     default:
; 1097 :         OALMSG(OAL_ETHER&&OAL_FUNC, (
; 1098 :             L"-PDD_Get: unknown request 0x%x\r\n", uiRequestId
; 1099 :         ));

  00060	e3140a02	 tst         r4, #2, 20
  00064	0a000020	 beq         |$LN1@PDD_Get|
  00068	e3140004	 tst         r4, #4
  0006c	0a00001e	 beq         |$LN1@PDD_Get|
  00070	e59f009c	 ldr         r0, [pc, #0x9C]
  00074	e1a01005	 mov         r1, r5
  00078	eb000000	 bl          NKDbgPrintfW

; 1100 :         pucBuffer = NULL;
; 1101 :         ulTotalBytes = 0;
; 1102 :         break;

  0007c	ea000019	 b           |$LN20@PDD_Get|
  00080		 |$LN5@PDD_Get|

; 1092 :     case REQ_ID_DEVICE_MACADDR:
; 1093 :         pucBuffer = g_RndisMacAddress;

  00080	e59f5088	 ldr         r5, [pc, #0x88]

; 1094 :         ulTotalBytes = sizeof(g_RndisMacAddress);

  00084	e3a00006	 mov         r0, #6

; 1095 :         break;

  00088	ea00000c	 b           |$LN9@PDD_Get|
  0008c		 |$LN6@PDD_Get|

; 1087 :     case REQ_ID_DEVICE_MAX_RX:
; 1088 :         GenericUlong = MAX_INCOMING_BUFFER;

  0008c	e3a03a02	 mov         r3, #2, 20
  00090	e58d3000	 str         r3, [sp]

; 1089 :         pucBuffer = (UCHAR *)&GenericUlong;

  00094	e28d5000	 add         r5, sp, #0

; 1090 :         ulTotalBytes = sizeof(GenericUlong);

  00098	e3a00004	 mov         r0, #4

; 1091 :         break;

  0009c	ea000007	 b           |$LN9@PDD_Get|
  000a0		 |$LN7@PDD_Get|

; 1082 :         break;
; 1083 :     case REQ_ID_VENDOR_DESCRIPTION:
; 1084 :         pucBuffer = pucVendorDescription;

  000a0	e59f3068	 ldr         r3, [pc, #0x68]

; 1085 :         ulTotalBytes = strlen(pucVendorDescription);

  000a4	e2830014	 add         r0, r3, #0x14
  000a8	e2835014	 add         r5, r3, #0x14

; 1086 :         break;

  000ac	ea000002	 b           |$LN21@PDD_Get|
  000b0		 |$LN8@PDD_Get|

; 1079 :     case REQ_ID_VENDOR_ID:
; 1080 :         pucBuffer = pucVendorID;

  000b0	e59f3058	 ldr         r3, [pc, #0x58]

; 1081 :         ulTotalBytes = strlen(pucVendorID);

  000b4	e2830008	 add         r0, r3, #8
  000b8	e2835008	 add         r5, r3, #8
  000bc		 |$LN21@PDD_Get|
  000bc	eb000000	 bl          strlen
  000c0		 |$LN9@PDD_Get|

; 1103 :     }
; 1104 : 
; 1105 :     if (pucBuffer) {
; 1106 :         if (pulRequiredLength)

  000c0	e3570000	 cmp         r7, #0

; 1107 :             *pulRequiredLength = ulTotalBytes;

  000c4	15870000	 strne       r0, [r7]
  000c8	15964440	 ldrne       r4, [r6, #0x440]

; 1108 : 
; 1109 :         if (ulTotalBytes <= ulDataLength) {

  000cc	e1500009	 cmp         r0, r9
  000d0	8a000005	 bhi         |$LN1@PDD_Get|

; 1110 :             memcpy(pvData, pucBuffer, ulTotalBytes);

  000d4	e1a02000	 mov         r2, r0
  000d8	e1a0000a	 mov         r0, r10
  000dc	e1a01005	 mov         r1, r5
  000e0	eb000000	 bl          memcpy

; 1111 :             fRet = TRUE;

  000e4	e3a08001	 mov         r8, #1
  000e8		 |$LN20@PDD_Get|
  000e8	e5964440	 ldr         r4, [r6, #0x440]
  000ec		 |$LN1@PDD_Get|

; 1112 :         }
; 1113 :     }
; 1114 : 
; 1115 :     OALMSG(OAL_ETHER&&OAL_FUNC, (L"-RNDIS_USBFN_PDD_Get\r\n"));

  000ec	e3140a02	 tst         r4, #2, 20
  000f0	13140004	 tstne       r4, #4
  000f4	159f0010	 ldrne       r0, [pc, #0x10]
  000f8	1b000000	 blne        NKDbgPrintfW

; 1116 :     return fRet;
; 1117 : }

  000fc	e1a00008	 mov         r0, r8
  00100	e28dd004	 add         sp, sp, #4
  00104	e8bd47f0	 ldmia       sp!, {r4 - r10, lr}
  00108	e12fff1e	 bx          lr
  0010c		 |$LN25@PDD_Get|
  0010c		 |$LN26@PDD_Get|
  0010c	00000000	 DCD         |??_C@_1CO@MONNNOOA@?$AA?9?$AAR?$AAN?$AAD?$AAI?$AAS?$AA_?$AAU?$AAS?$AAB?$AAF?$AAN?$AA_?$AAP?$AAD?$AAD?$AA_?$AAG?$AAe?$AAt?$AA?$AN?$AA?6?$AA?$AA@|
  00110		 |$LN27@PDD_Get|
  00110	00000000	 DCD         |g_RndisMacAddress|
  00114		 |$LN28@PDD_Get|
  00114	00000000	 DCD         |??_C@_1EC@FCCAEHJA@?$AA?9?$AAP?$AAD?$AAD?$AA_?$AAG?$AAe?$AAt?$AA?3?$AA?5?$AAu?$AAn?$AAk?$AAn?$AAo?$AAw?$AAn?$AA?5?$AAr?$AAe?$AAq?$AAu?$AAe?$AAs?$AAt?$AA?5?$AA0?$AAx?$AA?$CF?$AAx?$AA?$AN?$AA?6@|
  00118		 |$LN29@PDD_Get|
  00118	00000000	 DCD         |??_C@_1CO@BFBJIBML@?$AA?$CL?$AAR?$AAN?$AAD?$AAI?$AAS?$AA_?$AAU?$AAS?$AAB?$AAF?$AAN?$AA_?$AAP?$AAD?$AAD?$AA_?$AAG?$AAe?$AAt?$AA?$AN?$AA?6?$AA?$AA@|
  0011c		 |$LN30@PDD_Get|
  0011c	00000000	 DCD         |dpCurSettings|
  00120		 |$M47370|

			 ENDP  ; |PDD_Get|

	EXPORT	|PDD_ISR|
	IMPORT	|InterruptThread|

  00000			 AREA	 |.pdata|, PDATA
|$T47387| DCD	|$LN5@PDD_ISR|
	DCD	0x40000801
; Function compile flags: /Ogspy

  00000			 AREA	 |.text|, CODE, ARM

  00000		 |PDD_ISR| PROC

; 1138 : {

  00000		 |$LN5@PDD_ISR|
  00000	e52de004	 str         lr, [sp, #-4]!
  00004		 |$M47384|

; 1139 :     InterruptThread( g_pddInterface.pvPddContext );

  00004	e59f3010	 ldr         r3, [pc, #0x10]
  00008	e593000c	 ldr         r0, [r3, #0xC]
  0000c	eb000000	 bl          InterruptThread

; 1140 : 
; 1141 :     return TRUE;

  00010	e3a00001	 mov         r0, #1

; 1142 : }   //  PDD_ISR()

  00014	e49de004	 ldr         lr, [sp], #4
  00018	e12fff1e	 bx          lr
  0001c		 |$LN6@PDD_ISR|
  0001c		 |$LN7@PDD_ISR|
  0001c	00000000	 DCD         |g_pddInterface|
  00020		 |$M47385|

			 ENDP  ; |PDD_ISR|

	EXPORT	|PDD_IndicateRndisPacketComplete|
	EXPORT	|??_C@_1FO@HIPGBBGN@?$AA?9?$AAR?$AAN?$AAD?$AAI?$AAS?$AA_?$AAU?$AAS?$AAB?$AAF?$AAN?$AA_?$AAP?$AAD?$AAD?$AA_?$AAI?$AAn?$AAd?$AAi?$AAc?$AAa?$AAt?$AAe?$AAR?$AAn?$AAd?$AAi?$AAs?$AAP?$AAa@| [ DATA ] ; `string'
	EXPORT	|??_C@_1FO@PLBKEBPA@?$AA?$CL?$AAR?$AAN?$AAD?$AAI?$AAS?$AA_?$AAU?$AAS?$AAB?$AAF?$AAN?$AA_?$AAP?$AAD?$AAD?$AA_?$AAI?$AAn?$AAd?$AAi?$AAc?$AAa?$AAt?$AAe?$AAR?$AAn?$AAd?$AAi?$AAs?$AAP?$AAa@| [ DATA ] ; `string'
	IMPORT	|MDDFreeMem|

  00000			 AREA	 |.pdata|, PDATA
|$T47401| DCD	|$LN9@PDD_Indica|
	DCD	0x40001601

  00000			 AREA	 |.rdata|, DATA, READONLY
|??_C@_1FO@HIPGBBGN@?$AA?9?$AAR?$AAN?$AAD?$AAI?$AAS?$AA_?$AAU?$AAS?$AAB?$AAF?$AAN?$AA_?$AAP?$AAD?$AAD?$AA_?$AAI?$AAn?$AAd?$AAi?$AAc?$AAa?$AAt?$AAe?$AAR?$AAn?$AAd?$AAi?$AAs?$AAP?$AAa@| DCB "-"
	DCB	0x0, "R", 0x0, "N", 0x0, "D", 0x0, "I", 0x0, "S", 0x0, "_"
	DCB	0x0, "U", 0x0, "S", 0x0, "B", 0x0, "F", 0x0, "N", 0x0, "_"
	DCB	0x0, "P", 0x0, "D", 0x0, "D", 0x0, "_", 0x0, "I", 0x0, "n"
	DCB	0x0, "d", 0x0, "i", 0x0, "c", 0x0, "a", 0x0, "t", 0x0, "e"
	DCB	0x0, "R", 0x0, "n", 0x0, "d", 0x0, "i", 0x0, "s", 0x0, "P"
	DCB	0x0, "a", 0x0, "c", 0x0, "k", 0x0, "e", 0x0, "t", 0x0, "C"
	DCB	0x0, "o", 0x0, "m", 0x0, "p", 0x0, "l", 0x0, "e", 0x0, "t"
	DCB	0x0, "e", 0x0, 0xd, 0x0, 0xa, 0x0, 0x0, 0x0 ; `string'

  00000			 AREA	 |.rdata|, DATA, READONLY
|??_C@_1FO@PLBKEBPA@?$AA?$CL?$AAR?$AAN?$AAD?$AAI?$AAS?$AA_?$AAU?$AAS?$AAB?$AAF?$AAN?$AA_?$AAP?$AAD?$AAD?$AA_?$AAI?$AAn?$AAd?$AAi?$AAc?$AAa?$AAt?$AAe?$AAR?$AAn?$AAd?$AAi?$AAs?$AAP?$AAa@| DCB "+"
	DCB	0x0, "R", 0x0, "N", 0x0, "D", 0x0, "I", 0x0, "S", 0x0, "_"
	DCB	0x0, "U", 0x0, "S", 0x0, "B", 0x0, "F", 0x0, "N", 0x0, "_"
	DCB	0x0, "P", 0x0, "D", 0x0, "D", 0x0, "_", 0x0, "I", 0x0, "n"
	DCB	0x0, "d", 0x0, "i", 0x0, "c", 0x0, "a", 0x0, "t", 0x0, "e"
	DCB	0x0, "R", 0x0, "n", 0x0, "d", 0x0, "i", 0x0, "s", 0x0, "P"
	DCB	0x0, "a", 0x0, "c", 0x0, "k", 0x0, "e", 0x0, "t", 0x0, "C"
	DCB	0x0, "o", 0x0, "m", 0x0, "p", 0x0, "l", 0x0, "e", 0x0, "t"
	DCB	0x0, "e", 0x0, 0xd, 0x0, 0xa, 0x0, 0x0, 0x0 ; `string'
; Function compile flags: /Ogspy

  00000			 AREA	 |.text|, CODE, ARM

  00000		 |PDD_IndicateRndisPacketComplete| PROC

; 1162 : {

  00000		 |$LN9@PDD_Indica|
  00000	e92d4030	 stmdb       sp!, {r4, r5, lr}
  00004		 |$M47398|
  00004	e1a05000	 mov         r5, r0

; 1163 :     OALMSG(OAL_ETHER&&OAL_FUNC, (
; 1164 :         L"+RNDIS_USBFN_PDD_IndicateRndisPacketComplete\r\n"
; 1165 :     ));

  00008	e59f4044	 ldr         r4, [pc, #0x44]
  0000c	e5943440	 ldr         r3, [r4, #0x440]
  00010	e3130a02	 tst         r3, #2, 20
  00014	13130004	 tstne       r3, #4
  00018	159f0030	 ldrne       r0, [pc, #0x30]
  0001c	1b000000	 blne        NKDbgPrintfW

; 1166 :     MDDFreeMem(pDataWrapper->pucData);

  00020	e5950008	 ldr         r0, [r5, #8]
  00024	eb000000	 bl          MDDFreeMem

; 1167 :     MDDFreeDataWrapper(pDataWrapper);

  00028	e1a00005	 mov         r0, r5
  0002c	eb000000	 bl          MDDFreeDataWrapper

; 1168 :     OALMSG(OAL_ETHER&&OAL_FUNC, (
; 1169 :         L"-RNDIS_USBFN_PDD_IndicateRndisPacketComplete\r\n"
; 1170 :     ));

  00030	e5943440	 ldr         r3, [r4, #0x440]
  00034	e3130a02	 tst         r3, #2, 20
  00038	13130004	 tstne       r3, #4
  0003c	159f0008	 ldrne       r0, [pc, #8]
  00040	1b000000	 blne        NKDbgPrintfW

; 1171 : }

  00044	e8bd4030	 ldmia       sp!, {r4, r5, lr}
  00048	e12fff1e	 bx          lr
  0004c		 |$LN10@PDD_Indica|
  0004c		 |$LN11@PDD_Indica|
  0004c	00000000	 DCD         |??_C@_1FO@HIPGBBGN@?$AA?9?$AAR?$AAN?$AAD?$AAI?$AAS?$AA_?$AAU?$AAS?$AAB?$AAF?$AAN?$AA_?$AAP?$AAD?$AAD?$AA_?$AAI?$AAn?$AAd?$AAi?$AAc?$AAa?$AAt?$AAe?$AAR?$AAn?$AAd?$AAi?$AAs?$AAP?$AAa@|
  00050		 |$LN12@PDD_Indica|
  00050	00000000	 DCD         |??_C@_1FO@PLBKEBPA@?$AA?$CL?$AAR?$AAN?$AAD?$AAI?$AAS?$AA_?$AAU?$AAS?$AAB?$AAF?$AAN?$AA_?$AAP?$AAD?$AAD?$AA_?$AAI?$AAn?$AAd?$AAi?$AAc?$AAa?$AAt?$AAe?$AAR?$AAn?$AAd?$AAi?$AAs?$AAP?$AAa@|
  00054		 |$LN13@PDD_Indica|
  00054	00000000	 DCD         |dpCurSettings|
  00058		 |$M47399|

			 ENDP  ; |PDD_IndicateRndisPacketComplete|

	EXPORT	|SetRNDISMACAddress|
	IMPORT	|GetUniqueDeviceID|

  00000			 AREA	 |.pdata|, PDATA
|$T47413| DCD	|$LN5@SetRNDISMA|
	DCD	0x40000d01
; Function compile flags: /Ogspy

  00000			 AREA	 |.text|, CODE, ARM

  00000		 |SetRNDISMACAddress| PROC

; 1175 : {

  00000		 |$LN5@SetRNDISMA|
  00000	e52de004	 str         lr, [sp, #-4]!
  00004		 |$M47410|

; 1176 :     DWORD udId = GetUniqueDeviceID();

  00004	eb000000	 bl          GetUniqueDeviceID

; 1177 :     g_RndisMacAddress[2] = (UCHAR)(udId);

  00008	e59f2020	 ldr         r2, [pc, #0x20]

; 1178 :     g_RndisMacAddress[3] = (UCHAR)(udId >> 8);

  0000c	e1a03420	 mov         r3, r0, lsr #8
  00010	e5c20002	 strb        r0, [r2, #2]
  00014	e5c23003	 strb        r3, [r2, #3]

; 1179 :     g_RndisMacAddress[4] = (UCHAR)(udId >> 16);

  00018	e1a03820	 mov         r3, r0, lsr #16
  0001c	e5c23004	 strb        r3, [r2, #4]

; 1180 :     g_RndisMacAddress[5] = (UCHAR)(udId >> 24);

  00020	e1a03c20	 mov         r3, r0, lsr #24
  00024	e5c23005	 strb        r3, [r2, #5]

; 1181 : }

  00028	e49de004	 ldr         lr, [sp], #4
  0002c	e12fff1e	 bx          lr
  00030		 |$LN6@SetRNDISMA|
  00030		 |$LN7@SetRNDISMA|
  00030	00000000	 DCD         |g_RndisMacAddress|
  00034		 |$M47411|

			 ENDP  ; |SetRNDISMACAddress|

	EXPORT	|SetRNDISSerialNumber|
	EXPORT	|??_C@_1DG@LOIHLLKG@?$AAR?$AAN?$AAD?$AAI?$AAS?$AA?5?$AAS?$AAe?$AAr?$AAi?$AAa?$AAl?$AA?5?$AAN?$AAu?$AAm?$AAb?$AAe?$AAr?$AA?$DN?$AA?$FL?$AA?$CF?$AAs?$AA?$FN?$AA?$AN?$AA?6?$AA?$AA@| [ DATA ] ; `string'

  00000			 AREA	 |.pdata|, PDATA
|$T47428| DCD	|$LN12@SetRNDISSe|
	DCD	0x40002c02

  00000			 AREA	 |.rdata|, DATA, READONLY
|??_C@_1DG@LOIHLLKG@?$AAR?$AAN?$AAD?$AAI?$AAS?$AA?5?$AAS?$AAe?$AAr?$AAi?$AAa?$AAl?$AA?5?$AAN?$AAu?$AAm?$AAb?$AAe?$AAr?$AA?$DN?$AA?$FL?$AA?$CF?$AAs?$AA?$FN?$AA?$AN?$AA?6?$AA?$AA@| DCB "R"
	DCB	0x0, "N", 0x0, "D", 0x0, "I", 0x0, "S", 0x0, " ", 0x0, "S"
	DCB	0x0, "e", 0x0, "r", 0x0, "i", 0x0, "a", 0x0, "l", 0x0, " "
	DCB	0x0, "N", 0x0, "u", 0x0, "m", 0x0, "b", 0x0, "e", 0x0, "r"
	DCB	0x0, "=", 0x0, "[", 0x0, "%", 0x0, "s", 0x0, "]", 0x0, 0xd
	DCB	0x0, 0xa, 0x0, 0x0, 0x0			; `string'
; Function compile flags: /Ogspy

  00000			 AREA	 |.text|, CODE, ARM

  00000		 |SetRNDISSerialNumber| PROC

; 1185 : {

  00000		 |$LN12@SetRNDISSe|
  00000	e92d4070	 stmdb       sp!, {r4 - r6, lr}
  00004	e24dd004	 sub         sp, sp, #4
  00008		 |$M47425|

; 1186 :     BYTE b;
; 1187 :     int i;
; 1188 :     BYTE *pIdBytes; 
; 1189 :     DWORD dwBytesReturned = 0;
; 1190 :     DWORD udId = GetUniqueDeviceID();

  00008	eb000000	 bl          GetUniqueDeviceID
  0000c	e59fe098	 ldr         lr, [pc, #0x98]
  00010	e59f5090	 ldr         r5, [pc, #0x90]
  00014	e58d0000	 str         r0, [sp]
  00018	e1a0400e	 mov         r4, lr

; 1191 :     
; 1192 :     pIdBytes = (BYTE*)&udId;
; 1193 : 
; 1194 :     for (i=0; i< sizeof(udId); i++) {

  0001c	e3a00000	 mov         r0, #0
  00020	e28d6000	 add         r6, sp, #0
  00024		 |$LL3@SetRNDISSe|

; 1195 :         b = pIdBytes[i] & 0xff;

  00024	e7d02006	 ldrb        r2, [r0, +r6]
  00028	e2800001	 add         r0, r0, #1

; 1196 :         gs_SerialNumber.ptcbString[i * 2] = DigitTable[b % 16];

  0002c	e1b03002	 movs        r3, r2
  00030	4283300f	 addmi       r3, r3, #0xF
  00034	e1a03243	 mov         r3, r3, asr #4
  00038	e0423203	 sub         r3, r2, r3, lsl #4
  0003c	e0853083	 add         r3, r5, r3, lsl #1

; 1197 :         gs_SerialNumber.ptcbString[(i * 2) + 1] = DigitTable[b / 16];

  00040	e1d310b0	 ldrh        r1, [r3]
  00044	e1a02222	 mov         r2, r2, lsr #4
  00048	e0853082	 add         r3, r5, r2, lsl #1
  0004c	e1d330b0	 ldrh        r3, [r3]
  00050	e1c410b2	 strh        r1, [r4, #2]
  00054	e3500004	 cmp         r0, #4
  00058	e1e430b4	 strh        r3, [r4, #4]!
  0005c	3afffff0	 bcc         |$LL3@SetRNDISSe|

; 1198 :     }
; 1199 : 
; 1200 :     gs_SerialNumber.ptcbString[ (DWORD)(sizeof(udId)) * 2 ] = '\0';
; 1201 :     gs_SerialNumber.ucbLength = sizeof(gs_SerialNumber);
; 1202 :     gs_SerialNumber.udbDescriptorType = USB_STRING_DESCRIPTOR_TYPE;
; 1203 : 
; 1204 :     OALMSG(OAL_ETHER&&OAL_FUNC, (
; 1205 :         L"RNDIS Serial Number=[%s]\r\n", gs_SerialNumber.ptcbString
; 1206 :     ));

  00060	e59f303c	 ldr         r3, [pc, #0x3C]
  00064	e3a02000	 mov         r2, #0
  00068	e3a01014	 mov         r1, #0x14
  0006c	e5933440	 ldr         r3, [r3, #0x440]
  00070	e1ce21b2	 strh        r2, [lr, #0x12]
  00074	e3a02003	 mov         r2, #3
  00078	e3130a02	 tst         r3, #2, 20
  0007c	13130004	 tstne       r3, #4
  00080	159f0018	 ldrne       r0, [pc, #0x18]
  00084	e5ce1000	 strb        r1, [lr]
  00088	128e1002	 addne       r1, lr, #2
  0008c	e5ce2001	 strb        r2, [lr, #1]
  00090	1b000000	 blne        NKDbgPrintfW

; 1207 : }

  00094	e28dd004	 add         sp, sp, #4
  00098	e8bd4070	 ldmia       sp!, {r4 - r6, lr}
  0009c	e12fff1e	 bx          lr
  000a0		 |$LN13@SetRNDISSe|
  000a0		 |$LN14@SetRNDISSe|
  000a0	00000000	 DCD         |??_C@_1DG@LOIHLLKG@?$AAR?$AAN?$AAD?$AAI?$AAS?$AA?5?$AAS?$AAe?$AAr?$AAi?$AAa?$AAl?$AA?5?$AAN?$AAu?$AAm?$AAb?$AAe?$AAr?$AA?$DN?$AA?$FL?$AA?$CF?$AAs?$AA?$FN?$AA?$AN?$AA?6?$AA?$AA@|
  000a4		 |$LN15@SetRNDISSe|
  000a4	00000000	 DCD         |dpCurSettings|
  000a8		 |$LN16@SetRNDISSe|
  000a8	00000000	 DCD         |DigitTable|
  000ac		 |$LN17@SetRNDISSe|
  000ac	00000000	 DCD         |gs_SerialNumber|
  000b0		 |$M47426|

			 ENDP  ; |SetRNDISSerialNumber|

	EXPORT	|PDD_Dump|
	EXPORT	|??_C@_0BG@EOFDEPKP@Dump?5USBD?5registers?$AN?6?$AA@| [ DATA ] ; `string'
	EXPORT	|??_C@_0N@CMEMAFLH@?7EP_NUM?$DN?$CFx?$AN?6?$AA@| [ DATA ] ; `string'
	EXPORT	|??_C@_0L@GPOEAEFE@?7DATA?$DN?$CFx?$AN?6?$AA@| [ DATA ] ; `string'
	EXPORT	|??_C@_0P@FINGHBFP@?7STAT_FLG?$DN?$CFx?$AN?6?$AA@| [ DATA ] ; `string'
	EXPORT	|??_C@_0O@EPAHGBFH@?7RXFSTAT?$DN?$CFx?$AN?6?$AA@| [ DATA ] ; `string'
	EXPORT	|??_C@_0O@NPAALAJO@?7SYSCON1?$DN?$CFx?$AN?6?$AA@| [ DATA ] ; `string'
	EXPORT	|??_C@_0O@OOOIKKAD@?7SYSCON2?$DN?$CFx?$AN?6?$AA@| [ DATA ] ; `string'
	EXPORT	|??_C@_0O@GHKEDAIJ@?7DEVSTAT?$DN?$CFx?$AN?6?$AA@| [ DATA ] ; `string'
	EXPORT	|??_C@_09JBKABGFP@?7SOF?$DN?$CFx?$AN?6?$AA@| [ DATA ] ; `string'
	EXPORT	|??_C@_0BB@IHEFMCAF@?7DMA_IRQ_EN?$DN?$CFx?$AN?6?$AA@| [ DATA ] ; `string'
	EXPORT	|??_C@_0O@FFMEENGF@?7EP_STAT?$DN?$CFx?$AN?6?$AA@| [ DATA ] ; `string'
	EXPORT	|??_C@_0P@BOCDNFHO@?7DMA_STAT?$DN?$CFx?$AN?6?$AA@| [ DATA ] ; `string'
	EXPORT	|??_C@_0BA@BEGLJEEH@?7RXDMA_CFG?$DN?$CFx?$AN?6?$AA@| [ DATA ] ; `string'
	EXPORT	|??_C@_0BA@DGJBEALF@?7TXDMA_CFG?$DN?$CFx?$AN?6?$AA@| [ DATA ] ; `string'
	EXPORT	|??_C@_0P@DIBHBNHN@?7DATA_DMA?$DN?$CFx?$AN?6?$AA@| [ DATA ] ; `string'
	EXPORT	|??_C@_0N@JCLPINIB@?7TXDMA0?$DN?$CFx?$AN?6?$AA@| [ DATA ] ; `string'
	EXPORT	|??_C@_0N@DEMIIGDF@?7TXDMA1?$DN?$CFx?$AN?6?$AA@| [ DATA ] ; `string'
	EXPORT	|??_C@_0N@FCAJMKI@?7TXDMA2?$DN?$CFx?$AN?6?$AA@| [ DATA ] ; `string'
	EXPORT	|??_C@_0M@BBOPAONB@?7RXDMA0?$CFx?$AN?6?$AA@| [ DATA ] ; `string'
	EXPORT	|??_C@_0N@NLPFCDNF@?7RXDMA1?$DN?$CFx?$AN?6?$AA@| [ DATA ] ; `string'
	EXPORT	|??_C@_0N@OKBNDJEI@?7RXDMA2?$DN?$CFx?$AN?6?$AA@| [ DATA ] ; `string'
	EXPORT	|??_C@_09GEFJOLDC@?7EP0?$DN?$CFx?$AN?6?$AA@| [ DATA ] ; `string'
	EXPORT	|??_C@_0P@IMIBGBLC@?7EP_RX?$FL0?$FN?$DN?$CFx?$AN?6?$AA@| [ DATA ] ; `string'
	EXPORT	|??_C@_0P@EACLGBCM@?7EP_RX?$FL1?$FN?$DN?$CFx?$AN?6?$AA@| [ DATA ] ; `string'
	EXPORT	|??_C@_0P@MOKEGGMP@?7EP_RX?$FL2?$FN?$DN?$CFx?$AN?6?$AA@| [ DATA ] ; `string'
	EXPORT	|??_C@_0P@CAOGGFB@?7EP_RX?$FL3?$FN?$DN?$CFx?$AN?6?$AA@| [ DATA ] ; `string'
	EXPORT	|??_C@_0P@GEDEKLPB@?7EP_TX?$FL0?$FN?$DN?$CFx?$AN?6?$AA@| [ DATA ] ; `string'
	EXPORT	|??_C@_0P@KIJOKLGP@?7EP_TX?$FL1?$FN?$DN?$CFx?$AN?6?$AA@| [ DATA ] ; `string'
	EXPORT	|??_C@_0P@CGBBKMIM@?7EP_TX?$FL2?$FN?$DN?$CFx?$AN?6?$AA@| [ DATA ] ; `string'
	EXPORT	|??_C@_0P@OKLLKMBC@?7EP_TX?$FL3?$FN?$DN?$CFx?$AN?6?$AA@| [ DATA ] ; `string'
	EXPORT	|??_C@_0BF@HENLGELM@Dump?5OTG?5registers?$AN?6?$AA@| [ DATA ] ; `string'
	EXPORT	|??_C@_09HAMFICBK@?7REV?$DN?$CFx?$AN?6?$AA@| [ DATA ] ; `string'
	EXPORT	|??_C@_0P@JJOOEDCD@?7SYSCON_1?$DN?$CFx?$AN?6?$AA@| [ DATA ] ; `string'
	EXPORT	|??_C@_0P@KIAGFJLO@?7SYSCON_2?$DN?$CFx?$AN?6?$AA@| [ DATA ] ; `string'
	EXPORT	|??_C@_0L@MMNHHAFE@?7CTRL?$DN?$CFx?$AN?6?$AA@| [ DATA ] ; `string'
	EXPORT	|??_C@_0N@JJALLMMA@?7IRQ_EN?$DN?$CFx?$AN?6?$AA@| [ DATA ] ; `string'
	EXPORT	|??_C@_0O@FPCDFIMI@?7IRQ_SRC?$DN?$CFx?$AN?6?$AA@| [ DATA ] ; `string'
	EXPORT	|??_C@_0O@FFLCLOJO@?7OUTCTRL?$DN?$CFx?$AN?6?$AA@| [ DATA ] ; `string'
	EXPORT	|??_C@_0L@CKIFGOMA@?7TEST?$DN?$CFx?$AN?6?$AA@| [ DATA ] ; `string'
	IMPORT	|OALPAtoVA|
	IMPORT	|KITLOutputDebugString|

  00000			 AREA	 |.pdata|, PDATA
|$T47442| DCD	|$LN5@PDD_Dump|
	DCD	0x4000af01

  00000			 AREA	 |.rdata|, DATA, READONLY
|??_C@_0BG@EOFDEPKP@Dump?5USBD?5registers?$AN?6?$AA@| DCB "Dump USBD regi"
	DCB	"sters", 0xd, 0xa, 0x0			; `string'

  00000			 AREA	 |.rdata|, DATA, READONLY
|??_C@_0N@CMEMAFLH@?7EP_NUM?$DN?$CFx?$AN?6?$AA@| DCB 0x9, "EP_NUM=%x", 0xd
	DCB	0xa, 0x0				; `string'

  00000			 AREA	 |.rdata|, DATA, READONLY
|??_C@_0L@GPOEAEFE@?7DATA?$DN?$CFx?$AN?6?$AA@| DCB 0x9, "DATA=%x", 0xd, 0xa
	DCB	0x0					; `string'

  00000			 AREA	 |.rdata|, DATA, READONLY
|??_C@_0P@FINGHBFP@?7STAT_FLG?$DN?$CFx?$AN?6?$AA@| DCB 0x9, "STAT_FLG=%x", 0xd
	DCB	0xa, 0x0				; `string'

  00000			 AREA	 |.rdata|, DATA, READONLY
|??_C@_0O@EPAHGBFH@?7RXFSTAT?$DN?$CFx?$AN?6?$AA@| DCB 0x9, "RXFSTAT=%x", 0xd
	DCB	0xa, 0x0				; `string'

  00000			 AREA	 |.rdata|, DATA, READONLY
|??_C@_0O@NPAALAJO@?7SYSCON1?$DN?$CFx?$AN?6?$AA@| DCB 0x9, "SYSCON1=%x", 0xd
	DCB	0xa, 0x0				; `string'

  00000			 AREA	 |.rdata|, DATA, READONLY
|??_C@_0O@OOOIKKAD@?7SYSCON2?$DN?$CFx?$AN?6?$AA@| DCB 0x9, "SYSCON2=%x", 0xd
	DCB	0xa, 0x0				; `string'

  00000			 AREA	 |.rdata|, DATA, READONLY
|??_C@_0O@GHKEDAIJ@?7DEVSTAT?$DN?$CFx?$AN?6?$AA@| DCB 0x9, "DEVSTAT=%x", 0xd
	DCB	0xa, 0x0				; `string'

  00000			 AREA	 |.rdata|, DATA, READONLY
|??_C@_09JBKABGFP@?7SOF?$DN?$CFx?$AN?6?$AA@| DCB 0x9, "SOF=%x", 0xd, 0xa, 0x0 ; `string'

  00000			 AREA	 |.rdata|, DATA, READONLY
|??_C@_0BB@IHEFMCAF@?7DMA_IRQ_EN?$DN?$CFx?$AN?6?$AA@| DCB 0x9, "DMA_IRQ_E"
	DCB	"N=%x", 0xd, 0xa, 0x0			; `string'

  00000			 AREA	 |.rdata|, DATA, READONLY
|??_C@_0O@FFMEENGF@?7EP_STAT?$DN?$CFx?$AN?6?$AA@| DCB 0x9, "EP_STAT=%x", 0xd
	DCB	0xa, 0x0				; `string'

  00000			 AREA	 |.rdata|, DATA, READONLY
|??_C@_0P@BOCDNFHO@?7DMA_STAT?$DN?$CFx?$AN?6?$AA@| DCB 0x9, "DMA_STAT=%x", 0xd
	DCB	0xa, 0x0				; `string'

  00000			 AREA	 |.rdata|, DATA, READONLY
|??_C@_0BA@BEGLJEEH@?7RXDMA_CFG?$DN?$CFx?$AN?6?$AA@| DCB 0x9, "RXDMA_CFG="
	DCB	"%x", 0xd, 0xa, 0x0			; `string'

  00000			 AREA	 |.rdata|, DATA, READONLY
|??_C@_0BA@DGJBEALF@?7TXDMA_CFG?$DN?$CFx?$AN?6?$AA@| DCB 0x9, "TXDMA_CFG="
	DCB	"%x", 0xd, 0xa, 0x0			; `string'

  00000			 AREA	 |.rdata|, DATA, READONLY
|??_C@_0P@DIBHBNHN@?7DATA_DMA?$DN?$CFx?$AN?6?$AA@| DCB 0x9, "DATA_DMA=%x", 0xd
	DCB	0xa, 0x0				; `string'

  00000			 AREA	 |.rdata|, DATA, READONLY
|??_C@_0N@JCLPINIB@?7TXDMA0?$DN?$CFx?$AN?6?$AA@| DCB 0x9, "TXDMA0=%x", 0xd
	DCB	0xa, 0x0				; `string'

  00000			 AREA	 |.rdata|, DATA, READONLY
|??_C@_0N@DEMIIGDF@?7TXDMA1?$DN?$CFx?$AN?6?$AA@| DCB 0x9, "TXDMA1=%x", 0xd
	DCB	0xa, 0x0				; `string'

  00000			 AREA	 |.rdata|, DATA, READONLY
|??_C@_0N@FCAJMKI@?7TXDMA2?$DN?$CFx?$AN?6?$AA@| DCB 0x9, "TXDMA2=%x", 0xd
	DCB	0xa, 0x0				; `string'

  00000			 AREA	 |.rdata|, DATA, READONLY
|??_C@_0M@BBOPAONB@?7RXDMA0?$CFx?$AN?6?$AA@| DCB 0x9, "RXDMA0%x", 0xd, 0xa
	DCB	0x0					; `string'

  00000			 AREA	 |.rdata|, DATA, READONLY
|??_C@_0N@NLPFCDNF@?7RXDMA1?$DN?$CFx?$AN?6?$AA@| DCB 0x9, "RXDMA1=%x", 0xd
	DCB	0xa, 0x0				; `string'

  00000			 AREA	 |.rdata|, DATA, READONLY
|??_C@_0N@OKBNDJEI@?7RXDMA2?$DN?$CFx?$AN?6?$AA@| DCB 0x9, "RXDMA2=%x", 0xd
	DCB	0xa, 0x0				; `string'

  00000			 AREA	 |.rdata|, DATA, READONLY
|??_C@_09GEFJOLDC@?7EP0?$DN?$CFx?$AN?6?$AA@| DCB 0x9, "EP0=%x", 0xd, 0xa, 0x0 ; `string'

  00000			 AREA	 |.rdata|, DATA, READONLY
|??_C@_0P@IMIBGBLC@?7EP_RX?$FL0?$FN?$DN?$CFx?$AN?6?$AA@| DCB 0x9, "EP_RX["
	DCB	"0]=%x", 0xd, 0xa, 0x0			; `string'

  00000			 AREA	 |.rdata|, DATA, READONLY
|??_C@_0P@EACLGBCM@?7EP_RX?$FL1?$FN?$DN?$CFx?$AN?6?$AA@| DCB 0x9, "EP_RX["
	DCB	"1]=%x", 0xd, 0xa, 0x0			; `string'

  00000			 AREA	 |.rdata|, DATA, READONLY
|??_C@_0P@MOKEGGMP@?7EP_RX?$FL2?$FN?$DN?$CFx?$AN?6?$AA@| DCB 0x9, "EP_RX["
	DCB	"2]=%x", 0xd, 0xa, 0x0			; `string'

  00000			 AREA	 |.rdata|, DATA, READONLY
|??_C@_0P@CAOGGFB@?7EP_RX?$FL3?$FN?$DN?$CFx?$AN?6?$AA@| DCB 0x9, "EP_RX[3"
	DCB	"]=%x", 0xd, 0xa, 0x0			; `string'

  00000			 AREA	 |.rdata|, DATA, READONLY
|??_C@_0P@GEDEKLPB@?7EP_TX?$FL0?$FN?$DN?$CFx?$AN?6?$AA@| DCB 0x9, "EP_TX["
	DCB	"0]=%x", 0xd, 0xa, 0x0			; `string'

  00000			 AREA	 |.rdata|, DATA, READONLY
|??_C@_0P@KIJOKLGP@?7EP_TX?$FL1?$FN?$DN?$CFx?$AN?6?$AA@| DCB 0x9, "EP_TX["
	DCB	"1]=%x", 0xd, 0xa, 0x0			; `string'

  00000			 AREA	 |.rdata|, DATA, READONLY
|??_C@_0P@CGBBKMIM@?7EP_TX?$FL2?$FN?$DN?$CFx?$AN?6?$AA@| DCB 0x9, "EP_TX["
	DCB	"2]=%x", 0xd, 0xa, 0x0			; `string'

  00000			 AREA	 |.rdata|, DATA, READONLY
|??_C@_0P@OKLLKMBC@?7EP_TX?$FL3?$FN?$DN?$CFx?$AN?6?$AA@| DCB 0x9, "EP_TX["
	DCB	"3]=%x", 0xd, 0xa, 0x0			; `string'

  00000			 AREA	 |.rdata|, DATA, READONLY
|??_C@_0BF@HENLGELM@Dump?5OTG?5registers?$AN?6?$AA@| DCB "Dump OTG regist"
	DCB	"ers", 0xd, 0xa, 0x0			; `string'

  00000			 AREA	 |.rdata|, DATA, READONLY
|??_C@_09HAMFICBK@?7REV?$DN?$CFx?$AN?6?$AA@| DCB 0x9, "REV=%x", 0xd, 0xa, 0x0 ; `string'

  00000			 AREA	 |.rdata|, DATA, READONLY
|??_C@_0P@JJOOEDCD@?7SYSCON_1?$DN?$CFx?$AN?6?$AA@| DCB 0x9, "SYSCON_1=%x", 0xd
	DCB	0xa, 0x0				; `string'

  00000			 AREA	 |.rdata|, DATA, READONLY
|??_C@_0P@KIAGFJLO@?7SYSCON_2?$DN?$CFx?$AN?6?$AA@| DCB 0x9, "SYSCON_2=%x", 0xd
	DCB	0xa, 0x0				; `string'

  00000			 AREA	 |.rdata|, DATA, READONLY
|??_C@_0L@MMNHHAFE@?7CTRL?$DN?$CFx?$AN?6?$AA@| DCB 0x9, "CTRL=%x", 0xd, 0xa
	DCB	0x0					; `string'

  00000			 AREA	 |.rdata|, DATA, READONLY
|??_C@_0N@JJALLMMA@?7IRQ_EN?$DN?$CFx?$AN?6?$AA@| DCB 0x9, "IRQ_EN=%x", 0xd
	DCB	0xa, 0x0				; `string'

  00000			 AREA	 |.rdata|, DATA, READONLY
|??_C@_0O@FPCDFIMI@?7IRQ_SRC?$DN?$CFx?$AN?6?$AA@| DCB 0x9, "IRQ_SRC=%x", 0xd
	DCB	0xa, 0x0				; `string'

  00000			 AREA	 |.rdata|, DATA, READONLY
|??_C@_0O@FFLCLOJO@?7OUTCTRL?$DN?$CFx?$AN?6?$AA@| DCB 0x9, "OUTCTRL=%x", 0xd
	DCB	0xa, 0x0				; `string'

  00000			 AREA	 |.rdata|, DATA, READONLY
|??_C@_0L@CKIFGOMA@?7TEST?$DN?$CFx?$AN?6?$AA@| DCB 0x9, "TEST=%x", 0xd, 0xa
	DCB	0x0					; `string'
; Function compile flags: /Ogspy

  00000			 AREA	 |.text|, CODE, ARM

  00000		 |PDD_Dump| PROC

; 1210 : {

  00000		 |$LN5@PDD_Dump|
  00000	e92d4010	 stmdb       sp!, {r4, lr}
  00004		 |$M47439|
  00004	e1a04000	 mov         r4, r0

; 1211 :     OMAP2420_USBD_REGS *pPdd=(OMAP2420_USBD_REGS *) context;
; 1212 :     EdbgOutputDebugString("Dump USBD registers\r\n");

  00008	e59f02a8	 ldr         r0, [pc, #0x2A8]
  0000c	eb000000	 bl          KITLOutputDebugString

; 1213 :     EdbgOutputDebugString("\tREV=%x\r\n",INREG32(&pPdd->REV));                     // 0000 - Revision

  00010	e5941000	 ldr         r1, [r4]
  00014	e59f021c	 ldr         r0, [pc, #0x21C]
  00018	eb000000	 bl          KITLOutputDebugString

; 1214 :     EdbgOutputDebugString("\tEP_NUM=%x\r\n",INREG32(&pPdd->EP_NUM));                  // 0004 - Endpoint selection

  0001c	e5941004	 ldr         r1, [r4, #4]
  00020	e59f028c	 ldr         r0, [pc, #0x28C]
  00024	eb000000	 bl          KITLOutputDebugString

; 1215 :     EdbgOutputDebugString("\tDATA=%x\r\n",INREG32(&pPdd->DATA));                    // 0008 - Data

  00028	e5941008	 ldr         r1, [r4, #8]
  0002c	e59f027c	 ldr         r0, [pc, #0x27C]
  00030	eb000000	 bl          KITLOutputDebugString

; 1216 :     EdbgOutputDebugString("\tCTRL=%x\r\n",INREG32(&pPdd->CTRL));                    // 000C - Control

  00034	e594100c	 ldr         r1, [r4, #0xC]
  00038	e59f01ec	 ldr         r0, [pc, #0x1EC]
  0003c	eb000000	 bl          KITLOutputDebugString

; 1217 :     EdbgOutputDebugString("\tSTAT_FLG=%x\r\n",INREG32(&pPdd->STAT_FLG));                // 0010 - Status

  00040	e5941010	 ldr         r1, [r4, #0x10]
  00044	e59f0260	 ldr         r0, [pc, #0x260]
  00048	eb000000	 bl          KITLOutputDebugString

; 1218 :     EdbgOutputDebugString("\tRXFSTAT=%x\r\n",INREG32(&pPdd->RXFSTAT));                 // 0014 - Receive FIFO status

  0004c	e5941014	 ldr         r1, [r4, #0x14]
  00050	e59f0250	 ldr         r0, [pc, #0x250]
  00054	eb000000	 bl          KITLOutputDebugString

; 1219 :     EdbgOutputDebugString("\tSYSCON1=%x\r\n",INREG32(&pPdd->SYSCON1));                 // 0018 - System configuration 1

  00058	e5941018	 ldr         r1, [r4, #0x18]
  0005c	e59f0240	 ldr         r0, [pc, #0x240]
  00060	eb000000	 bl          KITLOutputDebugString

; 1220 :     EdbgOutputDebugString("\tSYSCON2=%x\r\n",INREG32(&pPdd->SYSCON2));                 // 001C - System configuration 2

  00064	e594101c	 ldr         r1, [r4, #0x1C]
  00068	e59f0230	 ldr         r0, [pc, #0x230]
  0006c	eb000000	 bl          KITLOutputDebugString

; 1221 :     EdbgOutputDebugString("\tDEVSTAT=%x\r\n",INREG32(&pPdd->DEVSTAT));                 // 0020 - Device status

  00070	e5941020	 ldr         r1, [r4, #0x20]
  00074	e59f0220	 ldr         r0, [pc, #0x220]
  00078	eb000000	 bl          KITLOutputDebugString

; 1222 :     EdbgOutputDebugString("\tSOF=%x\r\n",INREG32(&pPdd->SOF));                     // 0024 - Start of frame

  0007c	e5941024	 ldr         r1, [r4, #0x24]
  00080	e59f0210	 ldr         r0, [pc, #0x210]
  00084	eb000000	 bl          KITLOutputDebugString

; 1223 :     EdbgOutputDebugString("\tIRQ_EN=%x\r\n",INREG32(&pPdd->IRQ_EN));                  // 0028 - Interrupt enable

  00088	e5941028	 ldr         r1, [r4, #0x28]
  0008c	e59f0194	 ldr         r0, [pc, #0x194]
  00090	eb000000	 bl          KITLOutputDebugString

; 1224 :     EdbgOutputDebugString("\tDMA_IRQ_EN=%x\r\n",INREG32(&pPdd->DMA_IRQ_EN));              // 002C - DMA interrupt enable

  00094	e594102c	 ldr         r1, [r4, #0x2C]
  00098	e59f01f4	 ldr         r0, [pc, #0x1F4]
  0009c	eb000000	 bl          KITLOutputDebugString

; 1225 :     EdbgOutputDebugString("\tIRQ_SRC=%x\r\n",INREG32(&pPdd->IRQ_SRC));                 // 0030 - Interrupt source

  000a0	e5941030	 ldr         r1, [r4, #0x30]
  000a4	e59f0178	 ldr         r0, [pc, #0x178]
  000a8	eb000000	 bl          KITLOutputDebugString

; 1226 :     EdbgOutputDebugString("\tEP_STAT=%x\r\n",INREG32(&pPdd->EP_STAT));                 // 0034 - Non-ISO endpoint interrupt enable

  000ac	e5941034	 ldr         r1, [r4, #0x34]
  000b0	e59f01d8	 ldr         r0, [pc, #0x1D8]
  000b4	eb000000	 bl          KITLOutputDebugString

; 1227 :     EdbgOutputDebugString("\tDMA_STAT=%x\r\n",INREG32(&pPdd->DMA_STAT));                // 0038 - Non-ISO DMA interrupt enable

  000b8	e5941038	 ldr         r1, [r4, #0x38]
  000bc	e59f01c8	 ldr         r0, [pc, #0x1C8]
  000c0	eb000000	 bl          KITLOutputDebugString

; 1228 :     EdbgOutputDebugString("\tRXDMA_CFG=%x\r\n",INREG32(&pPdd->RXDMA_CFG));               // 0040 - DMA receive channels config

  000c4	e5941040	 ldr         r1, [r4, #0x40]
  000c8	e59f01b8	 ldr         r0, [pc, #0x1B8]
  000cc	eb000000	 bl          KITLOutputDebugString

; 1229 :     EdbgOutputDebugString("\tTXDMA_CFG=%x\r\n",INREG32(&pPdd->TXDMA_CFG));               // 0044 - DMA transmit channels config

  000d0	e5941044	 ldr         r1, [r4, #0x44]
  000d4	e59f01a8	 ldr         r0, [pc, #0x1A8]
  000d8	eb000000	 bl          KITLOutputDebugString

; 1230 :     EdbgOutputDebugString("\tDATA_DMA=%x\r\n",INREG32(&pPdd->DATA_DMA));                // 0048 - DMA FIFO data

  000dc	e5941048	 ldr         r1, [r4, #0x48]
  000e0	e59f0198	 ldr         r0, [pc, #0x198]
  000e4	eb000000	 bl          KITLOutputDebugString

; 1231 :     EdbgOutputDebugString("\tTXDMA0=%x\r\n",INREG32(&pPdd->TXDMA0));                  // 0050 - Transmit DMA control 0

  000e8	e5941050	 ldr         r1, [r4, #0x50]
  000ec	e59f0188	 ldr         r0, [pc, #0x188]
  000f0	eb000000	 bl          KITLOutputDebugString

; 1232 :     EdbgOutputDebugString("\tTXDMA1=%x\r\n",INREG32(&pPdd->TXDMA1));                  // 0054 - Transmit DMA control 1

  000f4	e5941054	 ldr         r1, [r4, #0x54]
  000f8	e59f0178	 ldr         r0, [pc, #0x178]
  000fc	eb000000	 bl          KITLOutputDebugString

; 1233 :     EdbgOutputDebugString("\tTXDMA2=%x\r\n",INREG32(&pPdd->TXDMA2));                  // 0058 - Transmit DMA control 2

  00100	e5941058	 ldr         r1, [r4, #0x58]
  00104	e59f0168	 ldr         r0, [pc, #0x168]
  00108	eb000000	 bl          KITLOutputDebugString

; 1234 :     EdbgOutputDebugString("\tRXDMA0%x\r\n",INREG32(&pPdd->RXDMA0));                  // 0060 - Receive DMA control 0

  0010c	e5941060	 ldr         r1, [r4, #0x60]
  00110	e59f0158	 ldr         r0, [pc, #0x158]
  00114	eb000000	 bl          KITLOutputDebugString

; 1235 :     EdbgOutputDebugString("\tRXDMA1=%x\r\n",INREG32(&pPdd->RXDMA1));                  // 0064 - Receive DMA control 0

  00118	e5941064	 ldr         r1, [r4, #0x64]
  0011c	e59f0148	 ldr         r0, [pc, #0x148]
  00120	eb000000	 bl          KITLOutputDebugString

; 1236 :     EdbgOutputDebugString("\tRXDMA2=%x\r\n",INREG32(&pPdd->RXDMA2));                  // 0068 - Receive DMA control 0

  00124	e5941068	 ldr         r1, [r4, #0x68]
  00128	e59f0138	 ldr         r0, [pc, #0x138]
  0012c	eb000000	 bl          KITLOutputDebugString

; 1237 :     EdbgOutputDebugString("\tEP0=%x\r\n",INREG32(&pPdd->EP0));                     // 0080 - Endpoint 0 configuration

  00130	e5941080	 ldr         r1, [r4, #0x80]
  00134	e59f0128	 ldr         r0, [pc, #0x128]
  00138	eb000000	 bl          KITLOutputDebugString

; 1238 :     EdbgOutputDebugString("\tEP_RX[0]=%x\r\n",INREG32(&pPdd->EP_RX[0]));                     // 0080 - Endpoint 0 configuration

  0013c	e5941084	 ldr         r1, [r4, #0x84]
  00140	e59f0118	 ldr         r0, [pc, #0x118]
  00144	eb000000	 bl          KITLOutputDebugString

; 1239 :     EdbgOutputDebugString("\tEP_RX[1]=%x\r\n",INREG32(&pPdd->EP_RX[1]));                     // 0080 - Endpoint 0 configuration

  00148	e5941088	 ldr         r1, [r4, #0x88]
  0014c	e59f0108	 ldr         r0, [pc, #0x108]
  00150	eb000000	 bl          KITLOutputDebugString

; 1240 :     EdbgOutputDebugString("\tEP_RX[2]=%x\r\n",INREG32(&pPdd->EP_RX[2]));                     // 0080 - Endpoint 0 configuration

  00154	e594108c	 ldr         r1, [r4, #0x8C]
  00158	e59f00f8	 ldr         r0, [pc, #0xF8]
  0015c	eb000000	 bl          KITLOutputDebugString

; 1241 :     EdbgOutputDebugString("\tEP_RX[3]=%x\r\n",INREG32(&pPdd->EP_RX[3]));                     // 0080 - Endpoint 0 configuration

  00160	e5941090	 ldr         r1, [r4, #0x90]
  00164	e59f00e8	 ldr         r0, [pc, #0xE8]
  00168	eb000000	 bl          KITLOutputDebugString

; 1242 :     EdbgOutputDebugString("\tEP_TX[0]=%x\r\n",INREG32(&pPdd->EP_TX[0]));                     // 0080 - Endpoint 0 configuration

  0016c	e59410c4	 ldr         r1, [r4, #0xC4]
  00170	e59f00d8	 ldr         r0, [pc, #0xD8]
  00174	eb000000	 bl          KITLOutputDebugString

; 1243 :     EdbgOutputDebugString("\tEP_TX[1]=%x\r\n",INREG32(&pPdd->EP_TX[1]));                     // 0080 - Endpoint 0 configuration

  00178	e59410c8	 ldr         r1, [r4, #0xC8]
  0017c	e59f00c8	 ldr         r0, [pc, #0xC8]
  00180	eb000000	 bl          KITLOutputDebugString

; 1244 :     EdbgOutputDebugString("\tEP_TX[2]=%x\r\n",INREG32(&pPdd->EP_TX[2]));                     // 0080 - Endpoint 0 configuration

  00184	e59410cc	 ldr         r1, [r4, #0xCC]
  00188	e59f00b8	 ldr         r0, [pc, #0xB8]
  0018c	eb000000	 bl          KITLOutputDebugString

; 1245 :     EdbgOutputDebugString("\tEP_TX[3]=%x\r\n",INREG32(&pPdd->EP_TX[3]));                     // 0080 - Endpoint 0 configuration

  00190	e59410d0	 ldr         r1, [r4, #0xD0]
  00194	e59f00a8	 ldr         r0, [pc, #0xA8]
  00198	eb000000	 bl          KITLOutputDebugString

; 1246 : 
; 1247 :     {
; 1248 : //      OMAP2420_ULPD_REGS * pStatus = OALPAtoUA(OMAP2420_ULPD_REGS_PA);
; 1249 : //      EdbgOutputDebugString("Dump UPLD registers\r\n");
; 1250 : //      EdbgOutputDebugString("\tSTATUS_REQ=%x\r\n",INREG32(&pStatus->STATUS_REQ));                     
; 1251 :     }
; 1252 :     {
; 1253 :         OMAP2420_OTG_REGS * pOtg = OALPAtoUA(OMAP2420_OTG_REGS_PA);

  0019c	e59f009c	 ldr         r0, [pc, #0x9C]
  001a0	e3a01000	 mov         r1, #0
  001a4	eb000000	 bl          OALPAtoVA
  001a8	e1a04000	 mov         r4, r0

; 1254 :         EdbgOutputDebugString("Dump OTG registers\r\n");

  001ac	e59f0088	 ldr         r0, [pc, #0x88]
  001b0	eb000000	 bl          KITLOutputDebugString

; 1255 :         EdbgOutputDebugString("\tREV=%x\r\n",INREG32(&pOtg->REV));                     

  001b4	e5941000	 ldr         r1, [r4]
  001b8	e59f0078	 ldr         r0, [pc, #0x78]
  001bc	eb000000	 bl          KITLOutputDebugString

; 1256 :         EdbgOutputDebugString("\tSYSCON_1=%x\r\n",INREG32(&pOtg->SYSCON_1));                     

  001c0	e5941004	 ldr         r1, [r4, #4]
  001c4	e59f0068	 ldr         r0, [pc, #0x68]
  001c8	eb000000	 bl          KITLOutputDebugString

; 1257 :         EdbgOutputDebugString("\tSYSCON_2=%x\r\n",INREG32(&pOtg->SYSCON_2));                     

  001cc	e5941008	 ldr         r1, [r4, #8]
  001d0	e59f0058	 ldr         r0, [pc, #0x58]
  001d4	eb000000	 bl          KITLOutputDebugString

; 1258 :         EdbgOutputDebugString("\tCTRL=%x\r\n",INREG32(&pOtg->CTRL));                     

  001d8	e594100c	 ldr         r1, [r4, #0xC]
  001dc	e59f0048	 ldr         r0, [pc, #0x48]
  001e0	eb000000	 bl          KITLOutputDebugString

; 1259 :         EdbgOutputDebugString("\tIRQ_EN=%x\r\n",INREG32(&pOtg->IRQ_EN));                     

  001e4	e5941010	 ldr         r1, [r4, #0x10]
  001e8	e59f0038	 ldr         r0, [pc, #0x38]
  001ec	eb000000	 bl          KITLOutputDebugString

; 1260 :         EdbgOutputDebugString("\tIRQ_SRC=%x\r\n",INREG32(&pOtg->IRQ_SRC));                     

  001f0	e5941014	 ldr         r1, [r4, #0x14]
  001f4	e59f0028	 ldr         r0, [pc, #0x28]
  001f8	eb000000	 bl          KITLOutputDebugString

; 1261 :         EdbgOutputDebugString("\tOUTCTRL=%x\r\n",INREG32(&pOtg->OUTCTRL));                     

  001fc	e5941018	 ldr         r1, [r4, #0x18]
  00200	e59f0018	 ldr         r0, [pc, #0x18]
  00204	eb000000	 bl          KITLOutputDebugString

; 1262 :         EdbgOutputDebugString("\tTEST=%x\r\n",INREG32(&pOtg->TEST));                                       

  00208	e5941020	 ldr         r1, [r4, #0x20]
  0020c	e59f0008	 ldr         r0, [pc, #8]
  00210	eb000000	 bl          KITLOutputDebugString

; 1263 :     }
; 1264 : 
; 1265 : 
; 1266 : }

  00214	e8bd4010	 ldmia       sp!, {r4, lr}
  00218	e12fff1e	 bx          lr
  0021c		 |$LN6@PDD_Dump|
  0021c		 |$LN7@PDD_Dump|
  0021c	00000000	 DCD         |??_C@_0L@CKIFGOMA@?7TEST?$DN?$CFx?$AN?6?$AA@|
  00220		 |$LN8@PDD_Dump|
  00220	00000000	 DCD         |??_C@_0O@FFLCLOJO@?7OUTCTRL?$DN?$CFx?$AN?6?$AA@|
  00224		 |$LN9@PDD_Dump|
  00224	00000000	 DCD         |??_C@_0O@FPCDFIMI@?7IRQ_SRC?$DN?$CFx?$AN?6?$AA@|
  00228		 |$LN10@PDD_Dump|
  00228	00000000	 DCD         |??_C@_0N@JJALLMMA@?7IRQ_EN?$DN?$CFx?$AN?6?$AA@|
  0022c		 |$LN11@PDD_Dump|
  0022c	00000000	 DCD         |??_C@_0L@MMNHHAFE@?7CTRL?$DN?$CFx?$AN?6?$AA@|
  00230		 |$LN12@PDD_Dump|
  00230	00000000	 DCD         |??_C@_0P@KIAGFJLO@?7SYSCON_2?$DN?$CFx?$AN?6?$AA@|
  00234		 |$LN13@PDD_Dump|
  00234	00000000	 DCD         |??_C@_0P@JJOOEDCD@?7SYSCON_1?$DN?$CFx?$AN?6?$AA@|
  00238		 |$LN14@PDD_Dump|
  00238	00000000	 DCD         |??_C@_09HAMFICBK@?7REV?$DN?$CFx?$AN?6?$AA@|
  0023c		 |$LN15@PDD_Dump|
  0023c	00000000	 DCD         |??_C@_0BF@HENLGELM@Dump?5OTG?5registers?$AN?6?$AA@|
  00240		 |$LN16@PDD_Dump|
  00240	4805e300	 DCD         0x4805e300
  00244		 |$LN17@PDD_Dump|
  00244	00000000	 DCD         |??_C@_0P@OKLLKMBC@?7EP_TX?$FL3?$FN?$DN?$CFx?$AN?6?$AA@|
  00248		 |$LN18@PDD_Dump|
  00248	00000000	 DCD         |??_C@_0P@CGBBKMIM@?7EP_TX?$FL2?$FN?$DN?$CFx?$AN?6?$AA@|
  0024c		 |$LN19@PDD_Dump|
  0024c	00000000	 DCD         |??_C@_0P@KIJOKLGP@?7EP_TX?$FL1?$FN?$DN?$CFx?$AN?6?$AA@|
  00250		 |$LN20@PDD_Dump|
  00250	00000000	 DCD         |??_C@_0P@GEDEKLPB@?7EP_TX?$FL0?$FN?$DN?$CFx?$AN?6?$AA@|
  00254		 |$LN21@PDD_Dump|
  00254	00000000	 DCD         |??_C@_0P@CAOGGFB@?7EP_RX?$FL3?$FN?$DN?$CFx?$AN?6?$AA@|
  00258		 |$LN22@PDD_Dump|
  00258	00000000	 DCD         |??_C@_0P@MOKEGGMP@?7EP_RX?$FL2?$FN?$DN?$CFx?$AN?6?$AA@|
  0025c		 |$LN23@PDD_Dump|
  0025c	00000000	 DCD         |??_C@_0P@EACLGBCM@?7EP_RX?$FL1?$FN?$DN?$CFx?$AN?6?$AA@|
  00260		 |$LN24@PDD_Dump|
  00260	00000000	 DCD         |??_C@_0P@IMIBGBLC@?7EP_RX?$FL0?$FN?$DN?$CFx?$AN?6?$AA@|
  00264		 |$LN25@PDD_Dump|
  00264	00000000	 DCD         |??_C@_09GEFJOLDC@?7EP0?$DN?$CFx?$AN?6?$AA@|
  00268		 |$LN26@PDD_Dump|
  00268	00000000	 DCD         |??_C@_0N@OKBNDJEI@?7RXDMA2?$DN?$CFx?$AN?6?$AA@|
  0026c		 |$LN27@PDD_Dump|
  0026c	00000000	 DCD         |??_C@_0N@NLPFCDNF@?7RXDMA1?$DN?$CFx?$AN?6?$AA@|
  00270		 |$LN28@PDD_Dump|
  00270	00000000	 DCD         |??_C@_0M@BBOPAONB@?7RXDMA0?$CFx?$AN?6?$AA@|
  00274		 |$LN29@PDD_Dump|
  00274	00000000	 DCD         |??_C@_0N@FCAJMKI@?7TXDMA2?$DN?$CFx?$AN?6?$AA@|
  00278		 |$LN30@PDD_Dump|
  00278	00000000	 DCD         |??_C@_0N@DEMIIGDF@?7TXDMA1?$DN?$CFx?$AN?6?$AA@|
  0027c		 |$LN31@PDD_Dump|
  0027c	00000000	 DCD         |??_C@_0N@JCLPINIB@?7TXDMA0?$DN?$CFx?$AN?6?$AA@|
  00280		 |$LN32@PDD_Dump|
  00280	00000000	 DCD         |??_C@_0P@DIBHBNHN@?7DATA_DMA?$DN?$CFx?$AN?6?$AA@|
  00284		 |$LN33@PDD_Dump|
  00284	00000000	 DCD         |??_C@_0BA@DGJBEALF@?7TXDMA_CFG?$DN?$CFx?$AN?6?$AA@|
  00288		 |$LN34@PDD_Dump|
  00288	00000000	 DCD         |??_C@_0BA@BEGLJEEH@?7RXDMA_CFG?$DN?$CFx?$AN?6?$AA@|
  0028c		 |$LN35@PDD_Dump|
  0028c	00000000	 DCD         |??_C@_0P@BOCDNFHO@?7DMA_STAT?$DN?$CFx?$AN?6?$AA@|
  00290		 |$LN36@PDD_Dump|
  00290	00000000	 DCD         |??_C@_0O@FFMEENGF@?7EP_STAT?$DN?$CFx?$AN?6?$AA@|
  00294		 |$LN37@PDD_Dump|
  00294	00000000	 DCD         |??_C@_0BB@IHEFMCAF@?7DMA_IRQ_EN?$DN?$CFx?$AN?6?$AA@|
  00298		 |$LN38@PDD_Dump|
  00298	00000000	 DCD         |??_C@_09JBKABGFP@?7SOF?$DN?$CFx?$AN?6?$AA@|
  0029c		 |$LN39@PDD_Dump|
  0029c	00000000	 DCD         |??_C@_0O@GHKEDAIJ@?7DEVSTAT?$DN?$CFx?$AN?6?$AA@|
  002a0		 |$LN40@PDD_Dump|
  002a0	00000000	 DCD         |??_C@_0O@OOOIKKAD@?7SYSCON2?$DN?$CFx?$AN?6?$AA@|
  002a4		 |$LN41@PDD_Dump|
  002a4	00000000	 DCD         |??_C@_0O@NPAALAJO@?7SYSCON1?$DN?$CFx?$AN?6?$AA@|
  002a8		 |$LN42@PDD_Dump|
  002a8	00000000	 DCD         |??_C@_0O@EPAHGBFH@?7RXFSTAT?$DN?$CFx?$AN?6?$AA@|
  002ac		 |$LN43@PDD_Dump|
  002ac	00000000	 DCD         |??_C@_0P@FINGHBFP@?7STAT_FLG?$DN?$CFx?$AN?6?$AA@|
  002b0		 |$LN44@PDD_Dump|
  002b0	00000000	 DCD         |??_C@_0L@GPOEAEFE@?7DATA?$DN?$CFx?$AN?6?$AA@|
  002b4		 |$LN45@PDD_Dump|
  002b4	00000000	 DCD         |??_C@_0N@CMEMAFLH@?7EP_NUM?$DN?$CFx?$AN?6?$AA@|
  002b8		 |$LN46@PDD_Dump|
  002b8	00000000	 DCD         |??_C@_0BG@EOFDEPKP@Dump?5USBD?5registers?$AN?6?$AA@|
  002bc		 |$M47440|

			 ENDP  ; |PDD_Dump|

	EXPORT	|PDDInit|
	EXPORT	|??_C@_1CO@MPAJKINN@?$AA?9?$AAR?$AAN?$AAD?$AAI?$AAS?$AA_?$AAU?$AAS?$AAB?$AAF?$AAN?$AA_?$AAP?$AAD?$AAD?$AAI?$AAn?$AAi?$AAt?$AA?$AN?$AA?6?$AA?$AA@| [ DATA ] ; `string'
	EXPORT	|??_C@_1GC@COEDNCDC@?$AA?5?$AAR?$AAN?$AAD?$AAI?$AAS?$AA_?$AAU?$AAS?$AAB?$AAF?$AAN?$AA_?$AAP?$AAD?$AAD?$AAI?$AAn?$AAi?$AAt?$AA?3?$AA?5?$AAi?$AAn?$AAi?$AAt?$AAi?$AAa?$AAl?$AAi?$AAz?$AAa@| [ DATA ] ; `string'
	EXPORT	|??_C@_1CI@OLENNHLD@?$AAU?$AAf?$AAn?$AAP?$AAd?$AAd?$AA_?$AAI?$AAn?$AAi?$AAt?$AA?5?$AAf?$AAa?$AAi?$AAl?$AAe?$AAd?$AA?$CB?$AA?$AA@| [ DATA ] ; `string'
	EXPORT	|??_C@_1CO@BEMNPHPG@?$AA?$CL?$AAR?$AAN?$AAD?$AAI?$AAS?$AA_?$AAU?$AAS?$AAB?$AAF?$AAN?$AA_?$AAP?$AAD?$AAD?$AAI?$AAn?$AAi?$AAt?$AA?$AN?$AA?6?$AA?$AA@| [ DATA ] ; `string'
	IMPORT	|UfnPdd_Init|
	IMPORT	|InitializeHardware|

  00000			 AREA	 |.pdata|, PDATA
|$T47502| DCD	|$LN14@PDDInit|
	DCD	0x4000a002

  00000			 AREA	 |.rdata|, DATA, READONLY
|??_C@_1CO@MPAJKINN@?$AA?9?$AAR?$AAN?$AAD?$AAI?$AAS?$AA_?$AAU?$AAS?$AAB?$AAF?$AAN?$AA_?$AAP?$AAD?$AAD?$AAI?$AAn?$AAi?$AAt?$AA?$AN?$AA?6?$AA?$AA@| DCB "-"
	DCB	0x0, "R", 0x0, "N", 0x0, "D", 0x0, "I", 0x0, "S", 0x0, "_"
	DCB	0x0, "U", 0x0, "S", 0x0, "B", 0x0, "F", 0x0, "N", 0x0, "_"
	DCB	0x0, "P", 0x0, "D", 0x0, "D", 0x0, "I", 0x0, "n", 0x0, "i"
	DCB	0x0, "t", 0x0, 0xd, 0x0, 0xa, 0x0, 0x0, 0x0 ; `string'

  00000			 AREA	 |.rdata|, DATA, READONLY
|??_C@_1GC@COEDNCDC@?$AA?5?$AAR?$AAN?$AAD?$AAI?$AAS?$AA_?$AAU?$AAS?$AAB?$AAF?$AAN?$AA_?$AAP?$AAD?$AAD?$AAI?$AAn?$AAi?$AAt?$AA?3?$AA?5?$AAi?$AAn?$AAi?$AAt?$AAi?$AAa?$AAl?$AAi?$AAz?$AAa@| DCB " "
	DCB	0x0, "R", 0x0, "N", 0x0, "D", 0x0, "I", 0x0, "S", 0x0, "_"
	DCB	0x0, "U", 0x0, "S", 0x0, "B", 0x0, "F", 0x0, "N", 0x0, "_"
	DCB	0x0, "P", 0x0, "D", 0x0, "D", 0x0, "I", 0x0, "n", 0x0, "i"
	DCB	0x0, "t", 0x0, ":", 0x0, " ", 0x0, "i", 0x0, "n", 0x0, "i"
	DCB	0x0, "t", 0x0, "i", 0x0, "a", 0x0, "l", 0x0, "i", 0x0, "z"
	DCB	0x0, "a", 0x0, "t", 0x0, "i", 0x0, "o", 0x0, "n", 0x0, " "
	DCB	0x0, "c", 0x0, "o", 0x0, "m", 0x0, "p", 0x0, "l", 0x0, "e"
	DCB	0x0, "t", 0x0, "e", 0x0, "d", 0x0, 0xd, 0x0, 0xa, 0x0, 0x0
	DCB	0x0					; `string'

  00000			 AREA	 |.rdata|, DATA, READONLY
|??_C@_1CI@OLENNHLD@?$AAU?$AAf?$AAn?$AAP?$AAd?$AAd?$AA_?$AAI?$AAn?$AAi?$AAt?$AA?5?$AAf?$AAa?$AAi?$AAl?$AAe?$AAd?$AA?$CB?$AA?$AA@| DCB "U"
	DCB	0x0, "f", 0x0, "n", 0x0, "P", 0x0, "d", 0x0, "d", 0x0, "_"
	DCB	0x0, "I", 0x0, "n", 0x0, "i", 0x0, "t", 0x0, " ", 0x0, "f"
	DCB	0x0, "a", 0x0, "i", 0x0, "l", 0x0, "e", 0x0, "d", 0x0, "!"
	DCB	0x0, 0x0, 0x0				; `string'

  00000			 AREA	 |.rdata|, DATA, READONLY
|??_C@_1CO@BEMNPHPG@?$AA?$CL?$AAR?$AAN?$AAD?$AAI?$AAS?$AA_?$AAU?$AAS?$AAB?$AAF?$AAN?$AA_?$AAP?$AAD?$AAD?$AAI?$AAn?$AAi?$AAt?$AA?$AN?$AA?6?$AA?$AA@| DCB "+"
	DCB	0x0, "R", 0x0, "N", 0x0, "D", 0x0, "I", 0x0, "S", 0x0, "_"
	DCB	0x0, "U", 0x0, "S", 0x0, "B", 0x0, "F", 0x0, "N", 0x0, "_"
	DCB	0x0, "P", 0x0, "D", 0x0, "D", 0x0, "I", 0x0, "n", 0x0, "i"
	DCB	0x0, "t", 0x0, 0xd, 0x0, 0xa, 0x0, 0x0, 0x0 ; `string'
; Function compile flags: /Ogspy

  00000			 AREA	 |.text|, CODE, ARM

  00000		 |PDDInit| PROC

; 803  : {

  00000		 |$LN14@PDDInit|
  00000	e92d4ff0	 stmdb       sp!, {r4 - r11, lr}
  00004	e24dd008	 sub         sp, sp, #8
  00008		 |$M47499|
  00008	e58d1004	 str         r1, [sp, #4]
  0000c	e58d0000	 str         r0, [sp]

; 804  :     PDDZONE0 = 0;
; 805  :     PDDZONE = 0;
; 806  :     MDDZONE0 = 0;
; 807  :     MDDZONE = 1;
; 808  :     MDDZONE2 = 1;
; 809  :     MDDZONE3 = 1;
; 810  :     MDDZONE4 = 1;
; 811  :     MDDZONE5 = 0;
; 812  : 
; 813  :     OALMSG(OAL_ETHER&&OAL_FUNC, (L"+RNDIS_USBFN_PDDInit\r\n"));

  00010	e59f7264	 ldr         r7, [pc, #0x264]
  00014	e59fa25c	 ldr         r10, [pc, #0x25C]
  00018	e3a0e000	 mov         lr, #0
  0001c	e59f6244	 ldr         r6, [pc, #0x244]
  00020	e587e000	 str         lr, [r7]
  00024	e59f2200	 ldr         r2, [pc, #0x200]
  00028	e3a0e001	 mov         lr, #1
  0002c	e58ae000	 str         lr, [r10]
  00030	e5963440	 ldr         r3, [r6, #0x440]
  00034	e59f11ec	 ldr         r1, [pc, #0x1EC]
  00038	e3a0e001	 mov         lr, #1
  0003c	e582e000	 str         lr, [r2]
  00040	e59f01dc	 ldr         r0, [pc, #0x1DC]
  00044	e3a02001	 mov         r2, #1
  00048	e5812000	 str         r2, [r1]
  0004c	e59fb1e4	 ldr         r11, [pc, #0x1E4]
  00050	e3130a02	 tst         r3, #2, 20
  00054	e3a02000	 mov         r2, #0
  00058	e59f8214	 ldr         r8, [pc, #0x214]
  0005c	e59f920c	 ldr         r9, [pc, #0x20C]
  00060	13130004	 tstne       r3, #4
  00064	e5802000	 str         r2, [r0]
  00068	159f01fc	 ldrne       r0, [pc, #0x1FC]
  0006c	e3a06001	 mov         r6, #1
  00070	e3a04000	 mov         r4, #0
  00074	e3a05000	 mov         r5, #0
  00078	e58b6000	 str         r6, [r11]
  0007c	e59f61e4	 ldr         r6, [pc, #0x1E4]
  00080	e5884000	 str         r4, [r8]
  00084	e5895000	 str         r5, [r9]
  00088	1b000000	 blne        NKDbgPrintfW

; 814  : 
; 815  :     g_mddInterface.dwVersion = 1;

  0008c	e59f41d0	 ldr         r4, [pc, #0x1D0]

; 816  :     g_mddInterface.pfnNotify = NotifyHandler;
; 817  : 
; 818  :     memset( &g_pddInterface, 0, sizeof(g_pddInterface) );

  00090	e59f31c8	 ldr         r3, [pc, #0x1C8]
  00094	e59f51c0	 ldr         r5, [pc, #0x1C0]
  00098	e3a02001	 mov         r2, #1
  0009c	e884000c	 stmia       r4, {r2, r3}
  000a0	e3a02060	 mov         r2, #0x60
  000a4	e1a00005	 mov         r0, r5
  000a8	e3a01000	 mov         r1, #0
  000ac	eb000000	 bl          memset

; 819  :     g_pddInterface.dwVersion = 1;

  000b0	e3a03001	 mov         r3, #1
  000b4	e5853000	 str         r3, [r5]

; 820  : 
; 821  :     // configure clock, I2C cotroller, USB OTG transceiver and USB OTG controller
; 822  :     InitializeHardware();

  000b8	eb000000	 bl          InitializeHardware

; 823  : 
; 824  :     // initialize usb function unit
; 825  :     if( UfnPdd_Init( NULL, NULL, &g_mddInterface, &g_pddInterface ) != ERROR_SUCCESS )

  000bc	e1a03005	 mov         r3, r5
  000c0	e1a02004	 mov         r2, r4
  000c4	e3a01000	 mov         r1, #0
  000c8	e3a00000	 mov         r0, #0
  000cc	eb000000	 bl          UfnPdd_Init
  000d0	e3500000	 cmp         r0, #0
  000d4	0a000005	 beq         |$LN1@PDDInit|

; 826  :     {
; 827  :         OALMSG(OAL_ERROR, (L"UfnPdd_Init failed!"));

  000d8	e5963440	 ldr         r3, [r6, #0x440]
  000dc	e3130001	 tst         r3, #1
  000e0	159f0170	 ldrne       r0, [pc, #0x170]
  000e4	1b000000	 blne        NKDbgPrintfW

; 828  :         return FALSE;

  000e8	e3a00000	 mov         r0, #0
  000ec	ea000049	 b           |$LN2@PDDInit|
  000f0		 |$LN1@PDDInit|

; 829  :     }
; 830  : 
; 831  :     // register device
; 832  :     RegisterUSBDevice();

  000f0	eb000000	 bl          RegisterUSBDevice

; 833  : 
; 834  :     // attach device to USB bus
; 835  :     g_pddInterface.pfnStart( g_pddInterface.pvPddContext );

  000f4	e595000c	 ldr         r0, [r5, #0xC]
  000f8	e5953028	 ldr         r3, [r5, #0x28]
  000fc	e1a0e00f	 mov         lr, pc
  00100	e12fff13	 bx          r3

; 836  : 
; 837  :     SetRNDISMACAddress();

  00104	eb000000	 bl          SetRNDISMACAddress

; 838  :     SetRNDISSerialNumber();

  00108	eb000000	 bl          SetRNDISSerialNumber

; 839  : 
; 840  :     //
; 841  :     // Everything ok, fill up our characteristics.
; 842  :     //
; 843  :     memset(pRndisPddCharacteristics, 0x00, sizeof(RNDIS_PDD_CHARACTERISTICS));

  0010c	e59d0000	 ldr         r0, [sp]
  00110	e3a02044	 mov         r2, #0x44
  00114	e3a01000	 mov         r1, #0
  00118	eb000000	 bl          memset

; 844  : 
; 845  :     pRndisPddCharacteristics->SendRndisMessageHandler = PDD_SendRndisMessage;

  0011c	e59f3130	 ldr         r3, [pc, #0x130]

; 846  :     pRndisPddCharacteristics->SendRndisPacketHandler = PDD_SendRndisPacket;
; 847  :     pRndisPddCharacteristics->SetHandler = PDD_Set;
; 848  :     pRndisPddCharacteristics->GetHandler = PDD_Get;
; 849  :     pRndisPddCharacteristics->ISRHandler = PDD_ISR;
; 850  :     pRndisPddCharacteristics->dwIRQ = -1;       // @todo : check this
; 851  :     pRndisPddCharacteristics->dwMaxRx = MAX_INCOMING_BUFFER;
; 852  :     pRndisPddCharacteristics->dwBaseAddr = (DWORD)pBaseAddress/*USB_CLIENT_BASE*/;       // TODO: check this 
; 853  :     pRndisPddCharacteristics->IndicateRndisPacketCompleteHandler = PDD_IndicateRndisPacketComplete;
; 854  : 
; 855  :     // we are not a PCI device
; 856  :     pRndisPddCharacteristics->bPCIDevice = FALSE;
; 857  : 
; 858  :     //
; 859  :     // Everything is fine... Proceed!
; 860  :     //
; 861  :     InitializeListHead(&g_RndisKitlDev.listTxRndisMessageQueue);

  00120	e59db000	 ldr         r11, [sp]
  00124	e59f2124	 ldr         r2, [pc, #0x124]
  00128	e59f111c	 ldr         r1, [pc, #0x11C]
  0012c	e58b3000	 str         r3, [r11]
  00130	e1a0300b	 mov         r3, r11
  00134	e5832004	 str         r2, [r3, #4]
  00138	e1a0200b	 mov         r2, r11
  0013c	e582100c	 str         r1, [r2, #0xC]
  00140	e3e01000	 mvn         r1, #0
  00144	e5821018	 str         r1, [r2, #0x18]
  00148	e3a01a02	 mov         r1, #2, 20
  0014c	e582101c	 str         r1, [r2, #0x1C]
  00150	e59d1004	 ldr         r1, [sp, #4]
  00154	e59f50ec	 ldr         r5, [pc, #0xEC]
  00158	e59f00e4	 ldr         r0, [pc, #0xE4]
  0015c	e59fe0dc	 ldr         lr, [pc, #0xDC]
  00160	e59f40d4	 ldr         r4, [pc, #0xD4]
  00164	e5821020	 str         r1, [r2, #0x20]
  00168	e3a01000	 mov         r1, #0
  0016c	e2853b01	 add         r3, r5, #1, 22
  00170	e5821024	 str         r1, [r2, #0x24]
  00174	e5820010	 str         r0, [r2, #0x10]
  00178	e582e014	 str         lr, [r2, #0x14]
  0017c	e5824008	 str         r4, [r2, #8]

; 862  : 
; 863  :     OALMSG(OAL_ETHER&&OAL_FUNC, (
; 864  :         L" RNDIS_USBFN_PDDInit: initialization completed\r\n"
; 865  :     ));

  00180	e5961440	 ldr         r1, [r6, #0x440]
  00184	e2833034	 add         r3, r3, #0x34
  00188	e2852b01	 add         r2, r5, #1, 22
  0018c	e5853438	 str         r3, [r5, #0x438]
  00190	e2823034	 add         r3, r2, #0x34
  00194	e59fb09c	 ldr         r11, [pc, #0x9C]
  00198	e5853434	 str         r3, [r5, #0x434]
  0019c	e3110a02	 tst         r1, #2, 20
  001a0	0a000004	 beq         |$LN8@PDDInit|
  001a4	e3110004	 tst         r1, #4
  001a8	0a000002	 beq         |$LN8@PDDInit|
  001ac	e59f0080	 ldr         r0, [pc, #0x80]
  001b0	eb000000	 bl          NKDbgPrintfW
  001b4	e5961440	 ldr         r1, [r6, #0x440]
  001b8		 |$LN8@PDDInit|

; 866  : 
; 867  :     OALMSG(OAL_ETHER&&OAL_FUNC, (L"-RNDIS_USBFN_PDDInit\r\n"));

  001b8	e3110a02	 tst         r1, #2, 20
  001bc	13110004	 tstne       r1, #4
  001c0	159f0068	 ldrne       r0, [pc, #0x68]
  001c4	1b000000	 blne        NKDbgPrintfW

; 868  : 
; 869  :     PDDZONE0 = 0;

  001c8	e3a03000	 mov         r3, #0

; 870  :     PDDZONE = 0;
; 871  :     MDDZONE0 = 0;
; 872  :     MDDZONE = 0;
; 873  :     MDDZONE2 = 0;
; 874  :     MDDZONE3 = 0; // 1
; 875  :     MDDZONE4 = 0;
; 876  :     MDDZONE5 = 0;

  001cc	e5873000	 str         r3, [r7]
  001d0	e59f3054	 ldr         r3, [pc, #0x54]
  001d4	e3a04000	 mov         r4, #0
  001d8	e3a05000	 mov         r5, #0
  001dc	e5834000	 str         r4, [r3]
  001e0	e59f3040	 ldr         r3, [pc, #0x40]
  001e4	e3a00000	 mov         r0, #0
  001e8	e3a02000	 mov         r2, #0
  001ec	e5835000	 str         r5, [r3]
  001f0	e59f302c	 ldr         r3, [pc, #0x2C]
  001f4	e3a01000	 mov         r1, #0
  001f8	e3a0e000	 mov         lr, #0
  001fc	e3a06000	 mov         r6, #0
  00200	e58a0000	 str         r0, [r10]
  00204	e5836000	 str         r6, [r3]
  00208	e5882000	 str         r2, [r8]
  0020c	e5891000	 str         r1, [r9]
  00210	e58be000	 str         lr, [r11]

; 877  : 
; 878  :     return TRUE;

  00214	e3a00001	 mov         r0, #1
  00218		 |$LN2@PDDInit|

; 879  : }

  00218	e28dd008	 add         sp, sp, #8
  0021c	e8bd4ff0	 ldmia       sp!, {r4 - r11, lr}
  00220	e12fff1e	 bx          lr
  00224		 |$LN15@PDDInit|
  00224		 |$LN16@PDDInit|
  00224	00000000	 DCD         |MDDZONE5|
  00228		 |$LN17@PDDInit|
  00228	00000000	 DCD         |MDDZONE4|
  0022c		 |$LN18@PDDInit|
  0022c	00000000	 DCD         |MDDZONE3|
  00230		 |$LN19@PDDInit|
  00230	00000000	 DCD         |??_C@_1CO@MPAJKINN@?$AA?9?$AAR?$AAN?$AAD?$AAI?$AAS?$AA_?$AAU?$AAS?$AAB?$AAF?$AAN?$AA_?$AAP?$AAD?$AAD?$AAI?$AAn?$AAi?$AAt?$AA?$AN?$AA?6?$AA?$AA@|
  00234		 |$LN20@PDDInit|
  00234	00000000	 DCD         |??_C@_1GC@COEDNCDC@?$AA?5?$AAR?$AAN?$AAD?$AAI?$AAS?$AA_?$AAU?$AAS?$AAB?$AAF?$AAN?$AA_?$AAP?$AAD?$AAD?$AAI?$AAn?$AAi?$AAt?$AA?3?$AA?5?$AAi?$AAn?$AAi?$AAt?$AAi?$AAa?$AAl?$AAi?$AAz?$AAa@|
  00238		 |$LN21@PDDInit|
  00238	00000000	 DCD         |MDDZONE2|
  0023c		 |$LN22@PDDInit|
  0023c	00000000	 DCD         |PDD_IndicateRndisPacketComplete|
  00240		 |$LN23@PDDInit|
  00240	00000000	 DCD         |PDD_ISR|
  00244		 |$LN24@PDDInit|
  00244	00000000	 DCD         |PDD_Get|
  00248		 |$LN25@PDDInit|
  00248	00000000	 DCD         |g_RndisKitlDev|
  0024c		 |$LN26@PDDInit|
  0024c	00000000	 DCD         |PDD_Set|
  00250		 |$LN27@PDDInit|
  00250	00000000	 DCD         |PDD_SendRndisPacket|
  00254		 |$LN28@PDDInit|
  00254	00000000	 DCD         |PDD_SendRndisMessage|
  00258		 |$LN29@PDDInit|
  00258	00000000	 DCD         |??_C@_1CI@OLENNHLD@?$AAU?$AAf?$AAn?$AAP?$AAd?$AAd?$AA_?$AAI?$AAn?$AAi?$AAt?$AA?5?$AAf?$AAa?$AAi?$AAl?$AAe?$AAd?$AA?$CB?$AA?$AA@|
  0025c		 |$LN30@PDDInit|
  0025c	00000000	 DCD         |g_pddInterface|
  00260		 |$LN31@PDDInit|
  00260	00000000	 DCD         |NotifyHandler|
  00264		 |$LN32@PDDInit|
  00264	00000000	 DCD         |g_mddInterface|
  00268		 |$LN33@PDDInit|
  00268	00000000	 DCD         |dpCurSettings|
  0026c		 |$LN34@PDDInit|
  0026c	00000000	 DCD         |??_C@_1CO@BEMNPHPG@?$AA?$CL?$AAR?$AAN?$AAD?$AAI?$AAS?$AA_?$AAU?$AAS?$AAB?$AAF?$AAN?$AA_?$AAP?$AAD?$AAD?$AAI?$AAn?$AAi?$AAt?$AA?$AN?$AA?6?$AA?$AA@|
  00270		 |$LN35@PDDInit|
  00270	00000000	 DCD         |MDDZONE0|
  00274		 |$LN36@PDDInit|
  00274	00000000	 DCD         |PDDZONE|
  00278		 |$LN37@PDDInit|
  00278	00000000	 DCD         |MDDZONE|
  0027c		 |$LN38@PDDInit|
  0027c	00000000	 DCD         |PDDZONE0|
  00280		 |$M47500|

			 ENDP  ; |PDDInit|

	END
