; Listing generated by Microsoft (R) Optimizing Compiler Version 14.01.60511.01 

	TTL	C:\WINCE600\PLATFORM\COMMON\SRC\SOC\COMMON_TI_V1\AM3517\USB\USBFN\usbfnpdd.c
	CODE32

  00000			 AREA	 |.drectve|, DRECTVE
	DCB	"-defaultlib:LIBCMT "
	DCB	"-defaultlib:OLDNAMES "

	EXPORT	|??_C@_1CE@NGHFOCHF@?$AAD?$AAi?$AAs?$AAa?$AAb?$AAl?$AAe?$AAR?$AAx?$AAG?$AAe?$AAn?$AAR?$AAN?$AAD?$AAI?$AAS?$AA?$AA@| [ DATA ] ; `string'
	EXPORT	|??_C@_1CA@FLLDNPDG@?$AAD?$AAe?$AAs?$AAc?$AAr?$AAi?$AAp?$AAt?$AAo?$AAr?$AAC?$AAo?$AAu?$AAn?$AAt?$AA?$AA@| [ DATA ] ; `string'
	EXPORT	|??_C@_1CO@GMFDDKFG@?$AAD?$AAi?$AAs?$AAa?$AAb?$AAl?$AAe?$AAP?$AAo?$AAw?$AAe?$AAr?$AAM?$AAa?$AAn?$AAa?$AAg?$AAe?$AAm?$AAe?$AAn?$AAt?$AA?$AA@| [ DATA ] ; `string'
	EXPORT	|??_C@_00CNPNBAHC@?$AA@| [ DATA ]	; `string'
	EXPORT	|??_C@_1BM@IOLIHJIC@?$AAA?$AAc?$AAt?$AAi?$AAv?$AAi?$AAt?$AAy?$AAE?$AAv?$AAe?$AAn?$AAt?$AA?$AA@| [ DATA ] ; `string'
	EXPORT	|??_C@_1BM@OGFPDABJ@?$AAD?$AAm?$AAa?$AAB?$AAu?$AAf?$AAf?$AAe?$AAr?$AAS?$AAi?$AAz?$AAe?$AA?$AA@| [ DATA ] ; `string'
	EXPORT	|??_C@_1BI@BHLBGEOK@?$AAP?$AAr?$AAi?$AAo?$AAr?$AAi?$AAt?$AAy?$AA2?$AA5?$AA6?$AA?$AA@| [ DATA ] ; `string'
	EXPORT	|??_C@_17DJGGJCGD@?$AAI?$AAr?$AAq?$AA?$AA@| [ DATA ] ; `string'
	EXPORT	|dpCurSettings| [ DATA ]

  00000			 AREA	 |.rdata|, DATA, READONLY
|??_C@_1CE@NGHFOCHF@?$AAD?$AAi?$AAs?$AAa?$AAb?$AAl?$AAe?$AAR?$AAx?$AAG?$AAe?$AAn?$AAR?$AAN?$AAD?$AAI?$AAS?$AA?$AA@| DCB "D"
	DCB	0x0, "i", 0x0, "s", 0x0, "a", 0x0, "b", 0x0, "l", 0x0, "e"
	DCB	0x0, "R", 0x0, "x", 0x0, "G", 0x0, "e", 0x0, "n", 0x0, "R"
	DCB	0x0, "N", 0x0, "D", 0x0, "I", 0x0, "S", 0x0, 0x0, 0x0 ; `string'

  00000			 AREA	 |.rdata|, DATA, READONLY
|??_C@_1CA@FLLDNPDG@?$AAD?$AAe?$AAs?$AAc?$AAr?$AAi?$AAp?$AAt?$AAo?$AAr?$AAC?$AAo?$AAu?$AAn?$AAt?$AA?$AA@| DCB "D"
	DCB	0x0, "e", 0x0, "s", 0x0, "c", 0x0, "r", 0x0, "i", 0x0, "p"
	DCB	0x0, "t", 0x0, "o", 0x0, "r", 0x0, "C", 0x0, "o", 0x0, "u"
	DCB	0x0, "n", 0x0, "t", 0x0, 0x0, 0x0	; `string'

  00000			 AREA	 |.rdata|, DATA, READONLY
|??_C@_1CO@GMFDDKFG@?$AAD?$AAi?$AAs?$AAa?$AAb?$AAl?$AAe?$AAP?$AAo?$AAw?$AAe?$AAr?$AAM?$AAa?$AAn?$AAa?$AAg?$AAe?$AAm?$AAe?$AAn?$AAt?$AA?$AA@| DCB "D"
	DCB	0x0, "i", 0x0, "s", 0x0, "a", 0x0, "b", 0x0, "l", 0x0, "e"
	DCB	0x0, "P", 0x0, "o", 0x0, "w", 0x0, "e", 0x0, "r", 0x0, "M"
	DCB	0x0, "a", 0x0, "n", 0x0, "a", 0x0, "g", 0x0, "e", 0x0, "m"
	DCB	0x0, "e", 0x0, "n", 0x0, "t", 0x0, 0x0, 0x0 ; `string'

  00000			 AREA	 |.rdata|, DATA, READONLY
|??_C@_00CNPNBAHC@?$AA@| DCB 0x0			; `string'

  00000			 AREA	 |.rdata|, DATA, READONLY
|??_C@_1BM@IOLIHJIC@?$AAA?$AAc?$AAt?$AAi?$AAv?$AAi?$AAt?$AAy?$AAE?$AAv?$AAe?$AAn?$AAt?$AA?$AA@| DCB "A"
	DCB	0x0, "c", 0x0, "t", 0x0, "i", 0x0, "v", 0x0, "i", 0x0, "t"
	DCB	0x0, "y", 0x0, "E", 0x0, "v", 0x0, "e", 0x0, "n", 0x0, "t"
	DCB	0x0, 0x0, 0x0				; `string'

  00000			 AREA	 |.rdata|, DATA, READONLY
|??_C@_1BM@OGFPDABJ@?$AAD?$AAm?$AAa?$AAB?$AAu?$AAf?$AAf?$AAe?$AAr?$AAS?$AAi?$AAz?$AAe?$AA?$AA@| DCB "D"
	DCB	0x0, "m", 0x0, "a", 0x0, "B", 0x0, "u", 0x0, "f", 0x0, "f"
	DCB	0x0, "e", 0x0, "r", 0x0, "S", 0x0, "i", 0x0, "z", 0x0, "e"
	DCB	0x0, 0x0, 0x0				; `string'

  00000			 AREA	 |.rdata|, DATA, READONLY
|??_C@_1BI@BHLBGEOK@?$AAP?$AAr?$AAi?$AAo?$AAr?$AAi?$AAt?$AAy?$AA2?$AA5?$AA6?$AA?$AA@| DCB "P"
	DCB	0x0, "r", 0x0, "i", 0x0, "o", 0x0, "r", 0x0, "i", 0x0, "t"
	DCB	0x0, "y", 0x0, "2", 0x0, "5", 0x0, "6", 0x0, 0x0, 0x0 ; `string'

  00000			 AREA	 |.rdata|, DATA, READONLY
|??_C@_17DJGGJCGD@?$AAI?$AAr?$AAq?$AA?$AA@| DCB "I", 0x0, "r", 0x0, "q", 0x0
	DCB	0x0, 0x0				; `string'

  00000			 AREA	 |.data|, DATA
|dpCurSettings| DCB "U", 0x0, "s", 0x0, "b", 0x0, "F", 0x0, "n", 0x0, 0x0
	DCB	0x0
	%	52
	DCB	"E", 0x0, "r", 0x0, "r", 0x0, "o", 0x0, "r", 0x0, 0x0, 0x0
	%	52
	DCB	"W", 0x0, "a", 0x0, "r", 0x0, "n", 0x0, "i", 0x0, "n", 0x0
	DCB	"g", 0x0, 0x0, 0x0
	%	48
	DCB	"I", 0x0, "n", 0x0, "i", 0x0, "t", 0x0, 0x0, 0x0
	%	54
	DCB	"T", 0x0, "r", 0x0, "a", 0x0, "n", 0x0, "s", 0x0, "f", 0x0
	DCB	"e", 0x0, "r", 0x0, 0x0, 0x0
	%	46
	DCB	"P", 0x0, "i", 0x0, "p", 0x0, "e", 0x0, 0x0, 0x0
	%	54
	DCB	"S", 0x0, "e", 0x0, "n", 0x0, "d", 0x0, 0x0, 0x0
	%	54
	DCB	"R", 0x0, "e", 0x0, "c", 0x0, "e", 0x0, "i", 0x0, "v", 0x0
	DCB	"e", 0x0, 0x0, 0x0
	%	48
	DCB	"U", 0x0, "S", 0x0, "B", 0x0, " ", 0x0, "E", 0x0, "v", 0x0
	DCB	"e", 0x0, "n", 0x0, "t", 0x0, "s", 0x0, 0x0, 0x0
	%	42
	DCB	"P", 0x0, "d", 0x0, "d", 0x0, "I", 0x0, "n", 0x0, "i", 0x0
	DCB	"t", 0x0, 0x0, 0x0
	%	48
	DCB	"P", 0x0, "d", 0x0, "d", 0x0, "E", 0x0, "P", 0x0, "0", 0x0
	DCB	0x0, 0x0
	%	50
	DCB	"P", 0x0, "d", 0x0, "d", 0x0, "R", 0x0, "X", 0x0, 0x0, 0x0
	%	52
	DCB	"P", 0x0, "d", 0x0, "d", 0x0, "T", 0x0, "X", 0x0, 0x0, 0x0
	%	52
	DCB	"F", 0x0, "u", 0x0, "n", 0x0, "c", 0x0, "t", 0x0, "i", 0x0
	DCB	"o", 0x0, "n", 0x0, 0x0, 0x0
	%	46
	DCB	"C", 0x0, "o", 0x0, "m", 0x0, "m", 0x0, "e", 0x0, "n", 0x0
	DCB	"t", 0x0, "s", 0x0, 0x0, 0x0
	%	46
	DCB	"I", 0x0, "S", 0x0, "O", 0x0, 0x0, 0x0
	%	56
	DCB	"P", 0x0, "d", 0x0, "d", 0x0, "D", 0x0, "M", 0x0, "A", 0x0
	DCB	0x0, 0x0
	%	50
	DCD	0x8107

  00000			 AREA	 |.rdata|, DATA, READONLY
|EdbgVendorIds| DCW 0x0
	DCW	0x0
	DCD	0x4033
	DCB	0x1
	DCB	"AD", 0x0
	DCW	0x1050
	DCW	0x940
	DCD	0x4005
	DCB	0x1
	DCB	"LS", 0x0
	DCW	0x1050
	DCW	0x940
	DCD	0x2078
	DCB	0x1
	DCB	"LS", 0x0
	DCW	0x10ec
	DCW	0x8029
	DCD	0xc0f0
	DCB	0x1
	DCB	"KS", 0x0
	DCW	0x10ec
	DCW	0x8129
	DCD	0x0
	DCB	0x4
	DCB	"RT", 0x0
	DCW	0x10ec
	DCW	0x8139
	DCD	0x900b
	DCB	0x4
	DCB	"RT", 0x0
	DCW	0x10ec
	DCW	0x8139
	DCD	0xd0c9
	DCB	0x4
	DCB	"RT", 0x0
	DCW	0x10ec
	DCW	0x8139
	DCD	0xe04c
	DCB	0x4
	DCB	"RT", 0x0
	DCW	0x1186
	DCW	0x1300
	DCD	0x50ba
	DCB	0x4
	DCB	"DL", 0x0
	DCW	0x100b
	DCW	0x20
	DCD	0xa0cc
	DCB	0x5
	DCB	"NG", 0x0
	DCW	0x10b7
	DCW	0x9050
	DCD	0x6008
	DCB	0x6
	DCB	"3C", 0x0
	DCW	0x10b7
	DCW	0x9200
	DCD	0x476
	DCB	0x6
	DCB	"3C", 0x0
|f_DeviceRegParams| DCD |??_C@_17DJGGJCGD@?$AAI?$AAr?$AAq?$AA?$AA@|
	DCD	0x1
	DCD	0x0
	DCD	0x0
	DCD	0x4
	DCD	0x47
	DCD	|??_C@_1BI@BHLBGEOK@?$AAP?$AAr?$AAi?$AAo?$AAr?$AAi?$AAt?$AAy?$AA2?$AA5?$AA6?$AA?$AA@|
	DCD	0x1
	DCD	0x0
	DCD	0x4
	DCD	0x4
	DCD	0x65
	DCD	|??_C@_1BM@OGFPDABJ@?$AAD?$AAm?$AAa?$AAB?$AAu?$AAf?$AAf?$AAe?$AAr?$AAS?$AAi?$AAz?$AAe?$AA?$AA@|
	DCD	0x1
	DCD	0x0
	DCD	0x8
	DCD	0x4
	DCD	0x0
	DCD	|??_C@_1BM@IOLIHJIC@?$AAA?$AAc?$AAt?$AAi?$AAv?$AAi?$AAt?$AAy?$AAE?$AAv?$AAe?$AAn?$AAt?$AA?$AA@|
	DCD	0x2
	DCD	0x0
	DCD	0x4c
	DCD	0x208
	DCD	|??_C@_00CNPNBAHC@?$AA@|
	DCD	|??_C@_1CO@GMFDDKFG@?$AAD?$AAi?$AAs?$AAa?$AAb?$AAl?$AAe?$AAP?$AAo?$AAw?$AAe?$AAr?$AAM?$AAa?$AAn?$AAa?$AAg?$AAe?$AAm?$AAe?$AAn?$AAt?$AA?$AA@|
	DCD	0x1
	DCD	0x0
	DCD	0xc
	DCD	0x4
	DCD	0x0
	DCD	|??_C@_1CA@FLLDNPDG@?$AAD?$AAe?$AAs?$AAc?$AAr?$AAi?$AAp?$AAt?$AAo?$AAr?$AAC?$AAo?$AAu?$AAn?$AAt?$AA?$AA@|
	DCD	0x1
	DCD	0x0
	DCD	0x660
	DCD	0x4
	DCD	0x200
	DCD	|??_C@_1CE@NGHFOCHF@?$AAD?$AAi?$AAs?$AAa?$AAb?$AAl?$AAe?$AAR?$AAx?$AAG?$AAe?$AAn?$AAR?$AAN?$AAD?$AAI?$AAS?$AA?$AA@|
	DCD	0x1
	DCD	0x0
	DCD	0x664
	DCD	0x4
	DCD	0x0
	EXPORT	|??_C@_1IO@CFFGEKIK@?$AAR?$AAe?$AAa?$AAd?$AAF?$AAI?$AAF?$AAO?$AA?5?$AAE?$AAP?$AA?$CI?$AA?$CF?$AAd?$AA?$CJ?$AA?3?$AA?5?$AAp?$AAD?$AAa?$AAt?$AAa?$AA?$CI?$AA0?$AAx?$AA?$CF?$AAx?$AA?$CJ?$AA?5?$AAt?$AAo?$AAt@| [ DATA ] ; `string'
	EXPORT	|ReadFIFO|
	IMPORT	|NKDbgPrintfW|
	IMPORT	|__rt_udiv|

  00000			 AREA	 |.pdata|, PDATA
|$T49299| DCD	|$LN15@ReadFIFO|
	DCD	0x40007404
; File c:\wince600\platform\common\src\soc\common_ti_v1\am3517\usb\usbfn\usbfnpdd.c

  00000			 AREA	 |.rdata|, DATA, READONLY
|??_C@_1IO@CFFGEKIK@?$AAR?$AAe?$AAa?$AAd?$AAF?$AAI?$AAF?$AAO?$AA?5?$AAE?$AAP?$AA?$CI?$AA?$CF?$AAd?$AA?$CJ?$AA?3?$AA?5?$AAp?$AAD?$AAa?$AAt?$AAa?$AA?$CI?$AA0?$AAx?$AA?$CF?$AAx?$AA?$CJ?$AA?5?$AAt?$AAo?$AAt@| DCB "R"
	DCB	0x0, "e", 0x0, "a", 0x0, "d", 0x0, "F", 0x0, "I", 0x0, "F"
	DCB	0x0, "O", 0x0, " ", 0x0, "E", 0x0, "P", 0x0, "(", 0x0, "%"
	DCB	0x0, "d", 0x0, ")", 0x0, ":", 0x0, " ", 0x0, "p", 0x0, "D"
	DCB	0x0, "a", 0x0, "t", 0x0, "a", 0x0, "(", 0x0, "0", 0x0, "x"
	DCB	0x0, "%", 0x0, "x", 0x0, ")", 0x0, " ", 0x0, "t", 0x0, "o"
	DCB	0x0, "t", 0x0, "a", 0x0, "l", 0x0, " ", 0x0, "(", 0x0, "0"
	DCB	0x0, "x", 0x0, "%", 0x0, "x", 0x0, ")", 0x0, ",", 0x0, " "
	DCB	0x0, "r", 0x0, "e", 0x0, "m", 0x0, "a", 0x0, "i", 0x0, "n"
	DCB	0x0, " ", 0x0, "(", 0x0, "0", 0x0, "x", 0x0, "%", 0x0, "x"
	DCB	0x0, ")", 0x0, ",", 0x0, " ", 0x0, "s", 0x0, "i", 0x0, "z"
	DCB	0x0, "e", 0x0, "(", 0x0, "0", 0x0, "x", 0x0, "%", 0x0, "x"
	DCB	0x0, ")", 0x0, 0xd, 0x0, 0xa, 0x0, 0x0, 0x0 ; `string'
; Function compile flags: /Odtp

  00000			 AREA	 |.text|, CODE, ARM

  00000		 |ReadFIFO| PROC

; 191  : {

  00000		 |$LN15@ReadFIFO|
  00000	e1a0c00d	 mov         r12, sp
  00004	e92d000f	 stmdb       sp!, {r0 - r3}
  00008	e92d5000	 stmdb       sp!, {r12, lr}
  0000c	e24dd044	 sub         sp, sp, #0x44
  00010		 |$M49296|

; 192  :     DWORD total   = size / 4;

  00010	e59d1058	 ldr         r1, [sp, #0x58]
  00014	e3a00004	 mov         r0, #4
  00018	eb000000	 bl          __rt_udiv
  0001c	e58d001c	 str         r0, [sp, #0x1C]

; 193  :     DWORD remain  = size % 4;

  00020	e59d1058	 ldr         r1, [sp, #0x58]
  00024	e3a00004	 mov         r0, #4
  00028	eb000000	 bl          __rt_udiv
  0002c	e58d1018	 str         r1, [sp, #0x18]

; 194  :     DWORD i		  = 0;

  00030	e3a03000	 mov         r3, #0
  00034	e58d3008	 str         r3, [sp, #8]

; 195  :     DWORD* pDword = (DWORD*)pData;

  00038	e59d3054	 ldr         r3, [sp, #0x54]
  0003c	e58d3010	 str         r3, [sp, #0x10]

; 196  : 
; 197  :     CSL_UsbRegs* pUsbdRegs = pPdd->pUsbdRegs;

  00040	e59d304c	 ldr         r3, [sp, #0x4C]
  00044	e283301c	 add         r3, r3, #0x1C
  00048	e5933000	 ldr         r3, [r3]
  0004c	e58d3014	 str         r3, [sp, #0x14]

; 198  :     volatile ULONG *pReg = (volatile ULONG*)(&pUsbdRegs->FIFO[endpoint]);

  00050	e59d3014	 ldr         r3, [sp, #0x14]
  00054	e2831e42	 add         r1, r3, #0x42, 28
  00058	e5dd3050	 ldrb        r3, [sp, #0x50]
  0005c	e1a02003	 mov         r2, r3
  00060	e3a03004	 mov         r3, #4
  00064	e0030392	 mul         r3, r2, r3
  00068	e0813003	 add         r3, r1, r3
  0006c	e58d300c	 str         r3, [sp, #0xC]

; 199  : 
; 200  :     // Critical section would be handled outside
; 201  :     DEBUGMSG(ZONE_PDD_RX, (TEXT("ReadFIFO EP(%d): pData(0x%x) total (0x%x), remain (0x%x), size(0x%x)\r\n"), endpoint, pData, total, remain, size));

  00070	e59f3154	 ldr         r3, [pc, #0x154]
  00074	e5933440	 ldr         r3, [r3, #0x440]
  00078	e3130b01	 tst         r3, #1, 22
  0007c	0a00001d	 beq         |$LN11@ReadFIFO|
  00080	e59f3144	 ldr         r3, [pc, #0x144]
  00084	e5933440	 ldr         r3, [r3, #0x440]
  00088	e3130801	 tst         r3, #1, 16
  0008c	0a00000b	 beq         |$LN9@ReadFIFO|
  00090	e59d3058	 ldr         r3, [sp, #0x58]
  00094	e58d3004	 str         r3, [sp, #4]
  00098	e59d3018	 ldr         r3, [sp, #0x18]
  0009c	e58d3000	 str         r3, [sp]
  000a0	e59d301c	 ldr         r3, [sp, #0x1C]
  000a4	e59d2054	 ldr         r2, [sp, #0x54]
  000a8	e5dd1050	 ldrb        r1, [sp, #0x50]
  000ac	e59f0114	 ldr         r0, [pc, #0x114]
  000b0	eb000000	 bl          CeLogMsg
  000b4	e3a03001	 mov         r3, #1
  000b8	e58d303c	 str         r3, [sp, #0x3C]
  000bc	ea00000a	 b           |$LN10@ReadFIFO|
  000c0		 |$LN9@ReadFIFO|
  000c0	e59d3058	 ldr         r3, [sp, #0x58]
  000c4	e58d3004	 str         r3, [sp, #4]
  000c8	e59d3018	 ldr         r3, [sp, #0x18]
  000cc	e58d3000	 str         r3, [sp]
  000d0	e59d301c	 ldr         r3, [sp, #0x1C]
  000d4	e59d2054	 ldr         r2, [sp, #0x54]
  000d8	e5dd1050	 ldrb        r1, [sp, #0x50]
  000dc	e59f00e4	 ldr         r0, [pc, #0xE4]
  000e0	eb000000	 bl          NKDbgPrintfW
  000e4	e3a03000	 mov         r3, #0
  000e8	e58d303c	 str         r3, [sp, #0x3C]
  000ec		 |$LN10@ReadFIFO|
  000ec	e3a03001	 mov         r3, #1
  000f0	e58d3040	 str         r3, [sp, #0x40]
  000f4	ea000001	 b           |$LN12@ReadFIFO|
  000f8		 |$LN11@ReadFIFO|
  000f8	e3a03000	 mov         r3, #0
  000fc	e58d3040	 str         r3, [sp, #0x40]
  00100		 |$LN12@ReadFIFO|

; 202  : 
; 203  :     // this is 32-bit align
; 204  :     for (i = 0; i < total; i++)

  00100	e3a03000	 mov         r3, #0
  00104	e58d3008	 str         r3, [sp, #8]
  00108	ea000002	 b           |$LN6@ReadFIFO|
  0010c		 |$LN5@ReadFIFO|
  0010c	e59d3008	 ldr         r3, [sp, #8]
  00110	e2833001	 add         r3, r3, #1
  00114	e58d3008	 str         r3, [sp, #8]
  00118		 |$LN6@ReadFIFO|
  00118	e59d2008	 ldr         r2, [sp, #8]
  0011c	e59d301c	 ldr         r3, [sp, #0x1C]
  00120	e1520003	 cmp         r2, r3
  00124	2a000007	 bcs         |$LN4@ReadFIFO|

; 205  :     {
; 206  :         *pDword++ = INREG32(pReg);

  00128	e59d300c	 ldr         r3, [sp, #0xC]
  0012c	e5932000	 ldr         r2, [r3]
  00130	e59d3010	 ldr         r3, [sp, #0x10]
  00134	e5832000	 str         r2, [r3]
  00138	e59d3010	 ldr         r3, [sp, #0x10]
  0013c	e2833004	 add         r3, r3, #4
  00140	e58d3010	 str         r3, [sp, #0x10]

; 207  :     }

  00144	eafffff0	 b           |$LN5@ReadFIFO|
  00148		 |$LN4@ReadFIFO|

; 208  :         
; 209  :     // Set the pByte equal to the last bytes of data being transferred
; 210  :     if (remain != 0)

  00148	e59d3018	 ldr         r3, [sp, #0x18]
  0014c	e3530000	 cmp         r3, #0
  00150	0a000016	 beq         |$LN3@ReadFIFO|

; 211  :     {
; 212  :         UCHAR* pUCHAR = (UCHAR*) pDword;

  00154	e59d3010	 ldr         r3, [sp, #0x10]
  00158	e58d3024	 str         r3, [sp, #0x24]

; 213  :         DWORD dwTemp = INREG32(pReg);

  0015c	e59d300c	 ldr         r3, [sp, #0xC]
  00160	e5933000	 ldr         r3, [r3]
  00164	e58d3020	 str         r3, [sp, #0x20]
  00168		 |$LN2@ReadFIFO|

; 214  :         
; 215  :         while (remain--)

  00168	e59d3018	 ldr         r3, [sp, #0x18]
  0016c	e3530000	 cmp         r3, #0
  00170	e59d3018	 ldr         r3, [sp, #0x18]
  00174	e2433001	 sub         r3, r3, #1
  00178	e58d3018	 str         r3, [sp, #0x18]
  0017c	0a00000b	 beq         |$LN1@ReadFIFO|

; 216  :         {
; 217  :             *pUCHAR++ = (UCHAR) (dwTemp & 0xFF);

  00180	e59d3020	 ldr         r3, [sp, #0x20]
  00184	e20330ff	 and         r3, r3, #0xFF
  00188	e20320ff	 and         r2, r3, #0xFF
  0018c	e59d3024	 ldr         r3, [sp, #0x24]
  00190	e5c32000	 strb        r2, [r3]
  00194	e59d3024	 ldr         r3, [sp, #0x24]
  00198	e2833001	 add         r3, r3, #1
  0019c	e58d3024	 str         r3, [sp, #0x24]

; 218  :             dwTemp>>=8;

  001a0	e59d3020	 ldr         r3, [sp, #0x20]
  001a4	e1a03423	 mov         r3, r3, lsr #8
  001a8	e58d3020	 str         r3, [sp, #0x20]

; 219  :         }

  001ac	eaffffed	 b           |$LN2@ReadFIFO|
  001b0		 |$LN1@ReadFIFO|
  001b0		 |$LN3@ReadFIFO|

; 220  :     }
; 221  : 
; 222  : #if 0
; 223  :     RETAILMSG(1,(TEXT("Read fifo\r\n")));
; 224  :     memdump((UCHAR*)pData,(USHORT)size,0);
; 225  :     RETAILMSG(1,(TEXT("\r\n")));
; 226  : #endif
; 227  : 
; 228  :     return TRUE;

  001b0	e3a03001	 mov         r3, #1
  001b4	e58d3038	 str         r3, [sp, #0x38]

; 229  : }

  001b8	e59d0038	 ldr         r0, [sp, #0x38]
  001bc	e28dd044	 add         sp, sp, #0x44
  001c0	e89d6000	 ldmia       sp, {sp, lr}
  001c4	e12fff1e	 bx          lr
  001c8		 |$LN16@ReadFIFO|
  001c8		 |$LN17@ReadFIFO|
  001c8	00000000	 DCD         |??_C@_1IO@CFFGEKIK@?$AAR?$AAe?$AAa?$AAd?$AAF?$AAI?$AAF?$AAO?$AA?5?$AAE?$AAP?$AA?$CI?$AA?$CF?$AAd?$AA?$CJ?$AA?3?$AA?5?$AAp?$AAD?$AAa?$AAt?$AAa?$AA?$CI?$AA0?$AAx?$AA?$CF?$AAx?$AA?$CJ?$AA?5?$AAt?$AAo?$AAt@|
  001cc		 |$LN18@ReadFIFO|
  001cc	00000000	 DCD         |dpCurSettings|
  001d0		 |$M49297|

			 ENDP  ; |ReadFIFO|

	EXPORT	|__$ArrayPad$| [ DATA ]
	IMPORT	|CeLogData|
	IMPORT	|StringCchLengthW|
	IMPORT	|StringCchVPrintfW|
	IMPORT	|__security_cookie|
	IMPORT	|__GSHandlerCheck|
	IMPORT	|__security_check_cookie|

  00008			 AREA	 |.pdata|, PDATA
|$T49316| DCD	|$LN7@CeLogMsg|
	DCD	0xc0003704

  00000			 AREA	 |.xdata|, DATA
|$T49312| DCD	0xffffffcc
; Function compile flags: /Odtp
; File c:\wince600\public\common\sdk\inc\celog.h

  001d0			 AREA	 |.text|, CODE, ARM

  001d0	00000000	 DCD         |__GSHandlerCheck|
  001d4	00000000	 DCD         |$T49312|

  001d8		 |CeLogMsg| PROC

; 1020 : {

  001d8		 |$LN7@CeLogMsg|
  001d8	e1a0c00d	 mov         r12, sp
  001dc	e92d000f	 stmdb       sp!, {r0 - r3}
  001e0	e92d5000	 stmdb       sp!, {r12, lr}
  001e4	e24ddd09	 sub         sp, sp, #9, 26
  001e8		 |$M49313|
  001e8	e59f30c0	 ldr         r3, [pc, #0xC0]
  001ec	e5933000	 ldr         r3, [r3]
  001f0	e58d3224	 str         r3, [sp, #0x224]

; 1021 :     va_list arglist;
; 1022 :     WCHAR   szTemp[MAX_PATH];
; 1023 :     size_t  cchLen;
; 1024 :     HRESULT hr;
; 1025 : 
; 1026 :     // Compose a single string using the input args
; 1027 :     va_start(arglist, szFormat);

  001f4	e28d3f92	 add         r3, sp, #0x92, 30
  001f8	e2833004	 add         r3, r3, #4
  001fc	e58d3010	 str         r3, [sp, #0x10]

; 1028 :     hr = StringCchVPrintfW(szTemp, MAX_PATH, szFormat, arglist);

  00200	e59d3010	 ldr         r3, [sp, #0x10]
  00204	e59d2248	 ldr         r2, [sp, #0x248]
  00208	e3a01f41	 mov         r1, #0x41, 30
  0020c	e28d0014	 add         r0, sp, #0x14
  00210	eb000000	 bl          StringCchVPrintfW
  00214	e58d0238	 str         r0, [sp, #0x238]
  00218	e59d3238	 ldr         r3, [sp, #0x238]
  0021c	e58d321c	 str         r3, [sp, #0x21C]

; 1029 :     if (SUCCEEDED(hr)) {

  00220	e59d321c	 ldr         r3, [sp, #0x21C]
  00224	e3530000	 cmp         r3, #0
  00228	ba00001b	 blt         |$LN2@CeLogMsg|

; 1030 :         hr = StringCchLengthW(szTemp, MAX_PATH, &cchLen);

  0022c	e28d2e22	 add         r2, sp, #0x22, 28
  00230	e3a01f41	 mov         r1, #0x41, 30
  00234	e28d0014	 add         r0, sp, #0x14
  00238	eb000000	 bl          StringCchLengthW
  0023c	e58d023c	 str         r0, [sp, #0x23C]
  00240	e59d323c	 ldr         r3, [sp, #0x23C]
  00244	e58d321c	 str         r3, [sp, #0x21C]

; 1031 :         if (SUCCEEDED(hr)) {

  00248	e59d321c	 ldr         r3, [sp, #0x21C]
  0024c	e3530000	 cmp         r3, #0
  00250	ba000011	 blt         |$LN1@CeLogMsg|

; 1032 :             CeLogData(TRUE, CELID_RAW_WCHAR, szTemp, (WORD)((cchLen + 1) * sizeof(WCHAR)),
; 1033 :                       0, CELZONE_ALWAYSON, 0, FALSE);

  00254	e3a03000	 mov         r3, #0
  00258	e58d300c	 str         r3, [sp, #0xC]
  0025c	e3a03000	 mov         r3, #0
  00260	e58d3008	 str         r3, [sp, #8]
  00264	e3a03101	 mov         r3, #1, 2
  00268	e58d3004	 str         r3, [sp, #4]
  0026c	e3a03000	 mov         r3, #0
  00270	e58d3000	 str         r3, [sp]
  00274	e59d3220	 ldr         r3, [sp, #0x220]
  00278	e2832001	 add         r2, r3, #1
  0027c	e3a03002	 mov         r3, #2
  00280	e0030392	 mul         r3, r2, r3
  00284	e1a03803	 mov         r3, r3, lsl #16
  00288	e1a03823	 mov         r3, r3, lsr #16
  0028c	e28d2014	 add         r2, sp, #0x14
  00290	e3a0104a	 mov         r1, #0x4A
  00294	e3a00001	 mov         r0, #1
  00298	eb000000	 bl          CeLogData
  0029c		 |$LN1@CeLogMsg|
  0029c		 |$LN2@CeLogMsg|

; 1020 : {

  0029c	e59d0224	 ldr         r0, [sp, #0x224]
  002a0	eb000000	 bl          __security_check_cookie

; 1034 :         }
; 1035 :     }
; 1036 : }

  002a4	e28ddd09	 add         sp, sp, #9, 26
  002a8	e89d6000	 ldmia       sp, {sp, lr}
  002ac	e12fff1e	 bx          lr
  002b0		 |$LN8@CeLogMsg|
  002b0		 |$LN9@CeLogMsg|
  002b0	00000000	 DCD         |__security_cookie|
  002b4		 |$M49314|

			 ENDP  ; |CeLogMsg|

	EXPORT	|??_C@_1GK@LINCOMEM@?$AAW?$AAr?$AAi?$AAt?$AAe?$AAF?$AAI?$AAF?$AAO?$AA?3?$AA?5?$AAt?$AAo?$AAt?$AAa?$AAl?$AA?5?$AA?$CI?$AA0?$AAx?$AA?$CF?$AAx?$AA?$CJ?$AA?0?$AA?5?$AAr?$AAe?$AAm?$AAa?$AAi?$AAn?$AA?5@| [ DATA ] ; `string'
	EXPORT	|WriteFIFO|

  00010			 AREA	 |.pdata|, PDATA
|$T49328| DCD	|$LN15@WriteFIFO|
	DCD	0x40006804
; File c:\wince600\platform\common\src\soc\common_ti_v1\am3517\usb\usbfn\usbfnpdd.c

  00000			 AREA	 |.rdata|, DATA, READONLY
|??_C@_1GK@LINCOMEM@?$AAW?$AAr?$AAi?$AAt?$AAe?$AAF?$AAI?$AAF?$AAO?$AA?3?$AA?5?$AAt?$AAo?$AAt?$AAa?$AAl?$AA?5?$AA?$CI?$AA0?$AAx?$AA?$CF?$AAx?$AA?$CJ?$AA?0?$AA?5?$AAr?$AAe?$AAm?$AAa?$AAi?$AAn?$AA?5@| DCB "W"
	DCB	0x0, "r", 0x0, "i", 0x0, "t", 0x0, "e", 0x0, "F", 0x0, "I"
	DCB	0x0, "F", 0x0, "O", 0x0, ":", 0x0, " ", 0x0, "t", 0x0, "o"
	DCB	0x0, "t", 0x0, "a", 0x0, "l", 0x0, " ", 0x0, "(", 0x0, "0"
	DCB	0x0, "x", 0x0, "%", 0x0, "x", 0x0, ")", 0x0, ",", 0x0, " "
	DCB	0x0, "r", 0x0, "e", 0x0, "m", 0x0, "a", 0x0, "i", 0x0, "n"
	DCB	0x0, " ", 0x0, "(", 0x0, "0", 0x0, "x", 0x0, "%", 0x0, "x"
	DCB	0x0, ")", 0x0, ",", 0x0, " ", 0x0, "s", 0x0, "i", 0x0, "z"
	DCB	0x0, "e", 0x0, "(", 0x0, "0", 0x0, "x", 0x0, "%", 0x0, "x"
	DCB	0x0, ")", 0x0, 0xd, 0x0, 0xa, 0x0, 0x0, 0x0 ; `string'
; Function compile flags: /Odtp

  002b4			 AREA	 |.text|, CODE, ARM

  002b4		 |WriteFIFO| PROC

; 232  : {

  002b4		 |$LN15@WriteFIFO|
  002b4	e1a0c00d	 mov         r12, sp
  002b8	e92d000f	 stmdb       sp!, {r0 - r3}
  002bc	e92d5000	 stmdb       sp!, {r12, lr}
  002c0	e24dd028	 sub         sp, sp, #0x28
  002c4		 |$M49325|

; 233  :     DWORD total					= size / 4;

  002c4	e59d103c	 ldr         r1, [sp, #0x3C]
  002c8	e3a00004	 mov         r0, #4
  002cc	eb000000	 bl          __rt_udiv
  002d0	e58d0014	 str         r0, [sp, #0x14]

; 234  :     DWORD remain				= size % 4;

  002d4	e59d103c	 ldr         r1, [sp, #0x3C]
  002d8	e3a00004	 mov         r0, #4
  002dc	eb000000	 bl          __rt_udiv
  002e0	e58d1010	 str         r1, [sp, #0x10]

; 235  :     DWORD i						= 0;

  002e4	e3a03000	 mov         r3, #0
  002e8	e58d3000	 str         r3, [sp]

; 236  :     DWORD* pDword				= (DWORD*)pData;

  002ec	e59d3038	 ldr         r3, [sp, #0x38]
  002f0	e58d3008	 str         r3, [sp, #8]

; 237  :     CSL_UsbRegs* pUsbdRegs = pPdd->pUsbdRegs;

  002f4	e59d3030	 ldr         r3, [sp, #0x30]
  002f8	e283301c	 add         r3, r3, #0x1C
  002fc	e5933000	 ldr         r3, [r3]
  00300	e58d300c	 str         r3, [sp, #0xC]

; 238  :     volatile ULONG *pReg = (volatile ULONG*)(&pUsbdRegs->FIFO[endpoint]);

  00304	e59d300c	 ldr         r3, [sp, #0xC]
  00308	e2831e42	 add         r1, r3, #0x42, 28
  0030c	e5dd3034	 ldrb        r3, [sp, #0x34]
  00310	e1a02003	 mov         r2, r3
  00314	e3a03004	 mov         r3, #4
  00318	e0030392	 mul         r3, r2, r3
  0031c	e0813003	 add         r3, r1, r3
  00320	e58d3004	 str         r3, [sp, #4]

; 239  : 
; 240  :     // Critical section would be handled outside
; 241  :     DEBUGMSG(ZONE_PDD_TX, (TEXT("WriteFIFO: total (0x%x), remain (0x%x), size(0x%x)\r\n"), total, remain, size));    

  00324	e59f3124	 ldr         r3, [pc, #0x124]
  00328	e5933440	 ldr         r3, [r3, #0x440]
  0032c	e3130b02	 tst         r3, #2, 22
  00330	0a000015	 beq         |$LN11@WriteFIFO|
  00334	e59f3114	 ldr         r3, [pc, #0x114]
  00338	e5933440	 ldr         r3, [r3, #0x440]
  0033c	e3130801	 tst         r3, #1, 16
  00340	0a000007	 beq         |$LN9@WriteFIFO|
  00344	e59d303c	 ldr         r3, [sp, #0x3C]
  00348	e59d2010	 ldr         r2, [sp, #0x10]
  0034c	e59d1014	 ldr         r1, [sp, #0x14]
  00350	e59f00f4	 ldr         r0, [pc, #0xF4]
  00354	eb000000	 bl          CeLogMsg
  00358	e3a03001	 mov         r3, #1
  0035c	e58d3020	 str         r3, [sp, #0x20]
  00360	ea000006	 b           |$LN10@WriteFIFO|
  00364		 |$LN9@WriteFIFO|
  00364	e59d303c	 ldr         r3, [sp, #0x3C]
  00368	e59d2010	 ldr         r2, [sp, #0x10]
  0036c	e59d1014	 ldr         r1, [sp, #0x14]
  00370	e59f00d4	 ldr         r0, [pc, #0xD4]
  00374	eb000000	 bl          NKDbgPrintfW
  00378	e3a03000	 mov         r3, #0
  0037c	e58d3020	 str         r3, [sp, #0x20]
  00380		 |$LN10@WriteFIFO|
  00380	e3a03001	 mov         r3, #1
  00384	e58d3024	 str         r3, [sp, #0x24]
  00388	ea000001	 b           |$LN12@WriteFIFO|
  0038c		 |$LN11@WriteFIFO|
  0038c	e3a03000	 mov         r3, #0
  00390	e58d3024	 str         r3, [sp, #0x24]
  00394		 |$LN12@WriteFIFO|

; 242  : 
; 243  : #if 0
; 244  :     RETAILMSG(1,(TEXT("Write fifo\r\n")));
; 245  :     memdump((UCHAR*)pData,(USHORT)size,0);
; 246  :     RETAILMSG(1,(TEXT("\r\n")));
; 247  : #endif
; 248  : 
; 249  :     // this is 32-bit align
; 250  :     for (i = 0; i < total; i++)

  00394	e3a03000	 mov         r3, #0
  00398	e58d3000	 str         r3, [sp]
  0039c	ea000002	 b           |$LN6@WriteFIFO|
  003a0		 |$LN5@WriteFIFO|
  003a0	e59d3000	 ldr         r3, [sp]
  003a4	e2833001	 add         r3, r3, #1
  003a8	e58d3000	 str         r3, [sp]
  003ac		 |$LN6@WriteFIFO|
  003ac	e59d2000	 ldr         r2, [sp]
  003b0	e59d3014	 ldr         r3, [sp, #0x14]
  003b4	e1520003	 cmp         r2, r3
  003b8	2a000007	 bcs         |$LN4@WriteFIFO|

; 251  :     {
; 252  :         OUTREG32(pReg, *pDword++);

  003bc	e59d3008	 ldr         r3, [sp, #8]
  003c0	e5932000	 ldr         r2, [r3]
  003c4	e59d3004	 ldr         r3, [sp, #4]
  003c8	e5832000	 str         r2, [r3]
  003cc	e59d3008	 ldr         r3, [sp, #8]
  003d0	e2833004	 add         r3, r3, #4
  003d4	e58d3008	 str         r3, [sp, #8]

; 253  :     }

  003d8	eafffff0	 b           |$LN5@WriteFIFO|
  003dc		 |$LN4@WriteFIFO|

; 254  : 
; 255  :     // Set the pByte equal to the last bytes of data being transferred
; 256  :     if (remain != 0)

  003dc	e59d3010	 ldr         r3, [sp, #0x10]
  003e0	e3530000	 cmp         r3, #0
  003e4	0a000012	 beq         |$LN3@WriteFIFO|

; 257  :     {
; 258  :         // Pointer to the first byte of data
; 259  :         USHORT *pWORD =(USHORT *)pDword;

  003e8	e59d3008	 ldr         r3, [sp, #8]
  003ec	e58d3018	 str         r3, [sp, #0x18]

; 260  : 
; 261  :         // Finally if there is remain
; 262  :         if (remain & 0x2)  // either 2 or 3

  003f0	e59d3010	 ldr         r3, [sp, #0x10]
  003f4	e3130002	 tst         r3, #2
  003f8	0a000006	 beq         |$LN2@WriteFIFO|

; 263  :         {
; 264  :             // Write 2 bytes to there
; 265  :             OUTREG16(pReg, *pWORD++);        

  003fc	e59d3018	 ldr         r3, [sp, #0x18]
  00400	e1d320b0	 ldrh        r2, [r3]
  00404	e59d3004	 ldr         r3, [sp, #4]
  00408	e1c320b0	 strh        r2, [r3]
  0040c	e59d3018	 ldr         r3, [sp, #0x18]
  00410	e2833002	 add         r3, r3, #2
  00414	e58d3018	 str         r3, [sp, #0x18]
  00418		 |$LN2@WriteFIFO|

; 266  :         }
; 267  : 
; 268  :         if (remain & 0x1)

  00418	e59d3010	 ldr         r3, [sp, #0x10]
  0041c	e3130001	 tst         r3, #1
  00420	0a000003	 beq         |$LN1@WriteFIFO|

; 269  :         {
; 270  :             // Write 1 byte to there
; 271  :             OUTREG8(pReg, *((UCHAR*)pWORD));

  00424	e59d3018	 ldr         r3, [sp, #0x18]
  00428	e5d32000	 ldrb        r2, [r3]
  0042c	e59d3004	 ldr         r3, [sp, #4]
  00430	e5c32000	 strb        r2, [r3]
  00434		 |$LN1@WriteFIFO|
  00434		 |$LN3@WriteFIFO|

; 272  :         }
; 273  :     }
; 274  :     return TRUE;

  00434	e3a03001	 mov         r3, #1
  00438	e58d301c	 str         r3, [sp, #0x1C]

; 275  : }

  0043c	e59d001c	 ldr         r0, [sp, #0x1C]
  00440	e28dd028	 add         sp, sp, #0x28
  00444	e89d6000	 ldmia       sp, {sp, lr}
  00448	e12fff1e	 bx          lr
  0044c		 |$LN16@WriteFIFO|
  0044c		 |$LN17@WriteFIFO|
  0044c	00000000	 DCD         |??_C@_1GK@LINCOMEM@?$AAW?$AAr?$AAi?$AAt?$AAe?$AAF?$AAI?$AAF?$AAO?$AA?3?$AA?5?$AAt?$AAo?$AAt?$AAa?$AAl?$AA?5?$AA?$CI?$AA0?$AAx?$AA?$CF?$AAx?$AA?$CJ?$AA?0?$AA?5?$AAr?$AAe?$AAm?$AAa?$AAi?$AAn?$AA?5@|
  00450		 |$LN18@WriteFIFO|
  00450	00000000	 DCD         |dpCurSettings|
  00454		 |$M49326|

			 ENDP  ; |WriteFIFO|

	EXPORT	|??_C@_1HM@BDJKHHG@?$AAS?$AAe?$AAt?$AAu?$AAp?$AAU?$AAs?$AAb?$AAR?$AAe?$AAq?$AAu?$AAe?$AAs?$AAt?$AA?3?$AA?5?$AAR?$AAe?$AAq?$AA?5?$AA0?$AAx?$AA?$CF?$AA0?$AA2?$AAx?$AA?5?$AAT?$AA?5?$AA0?$AAx@| [ DATA ] ; `string'
	EXPORT	|??_C@_1FK@FNONLNGN@?$AA?$CF?$AAs?$AA?3?$AA?5?$AAD?$AAE?$AAB?$AAU?$AAG?$AAC?$AAH?$AAK?$AA?5?$AAf?$AAa?$AAi?$AAl?$AAe?$AAd?$AA?5?$AAi?$AAn?$AA?5?$AAf?$AAi?$AAl?$AAe?$AA?5?$AA?$CF?$AAs?$AA?5?$AAa@| [ DATA ] ; `string'
	EXPORT	|??_C@_1JO@JAGHJEHH@?$AAC?$AA?3?$AA?2?$AAW?$AAI?$AAN?$AAC?$AAE?$AA6?$AA0?$AA0?$AA?2?$AAP?$AAL?$AAA?$AAT?$AAF?$AAO?$AAR?$AAM?$AA?2?$AAC?$AAO?$AAM?$AAM?$AAO?$AAN?$AA?2?$AAS?$AAR?$AAC?$AA?2@| [ DATA ] ; `string'
	EXPORT	|SetupUsbRequest|

  00018			 AREA	 |.pdata|, PDATA
|$T49350| DCD	|$LN15@SetupUsbRe|
	DCD	0x40009e04

  00000			 AREA	 |.rdata|, DATA, READONLY
|??_C@_1HM@BDJKHHG@?$AAS?$AAe?$AAt?$AAu?$AAp?$AAU?$AAs?$AAb?$AAR?$AAe?$AAq?$AAu?$AAe?$AAs?$AAt?$AA?3?$AA?5?$AAR?$AAe?$AAq?$AA?5?$AA0?$AAx?$AA?$CF?$AA0?$AA2?$AAx?$AA?5?$AAT?$AA?5?$AA0?$AAx@| DCB "S"
	DCB	0x0, "e", 0x0, "t", 0x0, "u", 0x0, "p", 0x0, "U", 0x0, "s"
	DCB	0x0, "b", 0x0, "R", 0x0, "e", 0x0, "q", 0x0, "u", 0x0, "e"
	DCB	0x0, "s", 0x0, "t", 0x0, ":", 0x0, " ", 0x0, "R", 0x0, "e"
	DCB	0x0, "q", 0x0, " ", 0x0, "0", 0x0, "x", 0x0, "%", 0x0, "0"
	DCB	0x0, "2", 0x0, "x", 0x0, " ", 0x0, "T", 0x0, " ", 0x0, "0"
	DCB	0x0, "x", 0x0, "%", 0x0, "0", 0x0, "2", 0x0, "x", 0x0, " "
	DCB	0x0, "V", 0x0, " ", 0x0, "0", 0x0, "x", 0x0, "%", 0x0, "0"
	DCB	0x0, "2", 0x0, "x", 0x0, " ", 0x0, "I", 0x0, " ", 0x0, "0"
	DCB	0x0, "x", 0x0, "%", 0x0, "x", 0x0, " ", 0x0, "L", 0x0, " "
	DCB	0x0, "0", 0x0, "x", 0x0, "%", 0x0, "x", 0x0, 0xd, 0x0, 0xa
	DCB	0x0, 0x0, 0x0				; `string'

  00000			 AREA	 |.rdata|, DATA, READONLY
|??_C@_1FK@FNONLNGN@?$AA?$CF?$AAs?$AA?3?$AA?5?$AAD?$AAE?$AAB?$AAU?$AAG?$AAC?$AAH?$AAK?$AA?5?$AAf?$AAa?$AAi?$AAl?$AAe?$AAd?$AA?5?$AAi?$AAn?$AA?5?$AAf?$AAi?$AAl?$AAe?$AA?5?$AA?$CF?$AAs?$AA?5?$AAa@| DCB "%"
	DCB	0x0, "s", 0x0, ":", 0x0, " ", 0x0, "D", 0x0, "E", 0x0, "B"
	DCB	0x0, "U", 0x0, "G", 0x0, "C", 0x0, "H", 0x0, "K", 0x0, " "
	DCB	0x0, "f", 0x0, "a", 0x0, "i", 0x0, "l", 0x0, "e", 0x0, "d"
	DCB	0x0, " ", 0x0, "i", 0x0, "n", 0x0, " ", 0x0, "f", 0x0, "i"
	DCB	0x0, "l", 0x0, "e", 0x0, " ", 0x0, "%", 0x0, "s", 0x0, " "
	DCB	0x0, "a", 0x0, "t", 0x0, " ", 0x0, "l", 0x0, "i", 0x0, "n"
	DCB	0x0, "e", 0x0, " ", 0x0, "%", 0x0, "d", 0x0, " ", 0x0, 0xd
	DCB	0x0, 0xa, 0x0, 0x0, 0x0			; `string'

  00000			 AREA	 |.rdata|, DATA, READONLY
|??_C@_1JO@JAGHJEHH@?$AAC?$AA?3?$AA?2?$AAW?$AAI?$AAN?$AAC?$AAE?$AA6?$AA0?$AA0?$AA?2?$AAP?$AAL?$AAA?$AAT?$AAF?$AAO?$AAR?$AAM?$AA?2?$AAC?$AAO?$AAM?$AAM?$AAO?$AAN?$AA?2?$AAS?$AAR?$AAC?$AA?2@| DCB "C"
	DCB	0x0, ":", 0x0, "\\", 0x0, "W", 0x0, "I", 0x0, "N", 0x0, "C"
	DCB	0x0, "E", 0x0, "6", 0x0, "0", 0x0, "0", 0x0, "\\", 0x0, "P"
	DCB	0x0, "L", 0x0, "A", 0x0, "T", 0x0, "F", 0x0, "O", 0x0, "R"
	DCB	0x0, "M", 0x0, "\\", 0x0, "C", 0x0, "O", 0x0, "M", 0x0, "M"
	DCB	0x0, "O", 0x0, "N", 0x0, "\\", 0x0, "S", 0x0, "R", 0x0, "C"
	DCB	0x0, "\\", 0x0, "S", 0x0, "O", 0x0, "C", 0x0, "\\", 0x0, "C"
	DCB	0x0, "O", 0x0, "M", 0x0, "M", 0x0, "O", 0x0, "N", 0x0, "_"
	DCB	0x0, "T", 0x0, "I", 0x0, "_", 0x0, "V", 0x0, "1", 0x0, "\\"
	DCB	0x0, "A", 0x0, "M", 0x0, "3", 0x0, "5", 0x0, "1", 0x0, "7"
	DCB	0x0, "\\", 0x0, "U", 0x0, "S", 0x0, "B", 0x0, "\\", 0x0, "U"
	DCB	0x0, "S", 0x0, "B", 0x0, "F", 0x0, "N", 0x0, "\\", 0x0, "."
	DCB	0x0, "\\", 0x0, "u", 0x0, "s", 0x0, "b", 0x0, "f", 0x0, "n"
	DCB	0x0, "p", 0x0, "d", 0x0, "d", 0x0, ".", 0x0, "c", 0x0, 0x0
	DCB	0x0					; `string'
; Function compile flags: /Odtp

  00454			 AREA	 |.text|, CODE, ARM

  00454		 |SetupUsbRequest| PROC

; 300  : {

  00454		 |$LN15@SetupUsbRe|
  00454	e1a0c00d	 mov         r12, sp
  00458	e92d000f	 stmdb       sp!, {r0 - r3}
  0045c	e92d5000	 stmdb       sp!, {r12, lr}
  00460	e24dd034	 sub         sp, sp, #0x34
  00464		 |$M49347|

; 301  :     UINT16 pktCounter = requestSize;

  00464	e1dd34b8	 ldrh        r3, [sp, #0x48]
  00468	e1cd30bc	 strh        r3, [sp, #0xC]

; 302  :     PBYTE pUsbDevReq = (PBYTE)pUsbRequest;

  0046c	e59d3040	 ldr         r3, [sp, #0x40]
  00470	e58d3008	 str         r3, [sp, #8]

; 303  : 
; 304  :     DEBUGCHK(epNumber == 0);

  00474	e1dd34b4	 ldrh        r3, [sp, #0x44]
  00478	e3530000	 cmp         r3, #0
  0047c	1a000002	 bne         |$LN3@SetupUsbRe|
  00480	e3a03001	 mov         r3, #1
  00484	e58d3020	 str         r3, [sp, #0x20]
  00488	ea000007	 b           |$LN4@SetupUsbRe|
  0048c		 |$LN3@SetupUsbRe|
  0048c	e3a03e13	 mov         r3, #0x13, 28
  00490	e59f2230	 ldr         r2, [pc, #0x230]
  00494	e59f1224	 ldr         r1, [pc, #0x224]
  00498	e59f0224	 ldr         r0, [pc, #0x224]
  0049c	eb000000	 bl          NKDbgPrintfW
  004a0	e6000010	 __debugbreak_ce
  004a4	e3a03000	 mov         r3, #0
  004a8	e58d3020	 str         r3, [sp, #0x20]
  004ac		 |$LN4@SetupUsbRe|

; 305  :     DEBUGCHK(requestSize == 8);

  004ac	e1dd34b8	 ldrh        r3, [sp, #0x48]
  004b0	e3530008	 cmp         r3, #8
  004b4	1a000002	 bne         |$LN5@SetupUsbRe|
  004b8	e3a03001	 mov         r3, #1
  004bc	e58d3024	 str         r3, [sp, #0x24]
  004c0	ea000008	 b           |$LN6@SetupUsbRe|
  004c4		 |$LN5@SetupUsbRe|
  004c4	e3a03c01	 mov         r3, #1, 24
  004c8	e3833031	 orr         r3, r3, #0x31
  004cc	e59f21f4	 ldr         r2, [pc, #0x1F4]
  004d0	e59f11e8	 ldr         r1, [pc, #0x1E8]
  004d4	e59f01e8	 ldr         r0, [pc, #0x1E8]
  004d8	eb000000	 bl          NKDbgPrintfW
  004dc	e6000010	 __debugbreak_ce
  004e0	e3a03000	 mov         r3, #0
  004e4	e58d3024	 str         r3, [sp, #0x24]
  004e8		 |$LN6@SetupUsbRe|

; 306  : 
; 307  :     // Read pktCounter bytes from the EndPoint FIFO
; 308  : 	ReadFIFO(pPdd, (UCHAR)epNumber, pUsbDevReq, pktCounter);

  004e8	e1dd30bc	 ldrh        r3, [sp, #0xC]
  004ec	e59d2008	 ldr         r2, [sp, #8]
  004f0	e1dd14b4	 ldrh        r1, [sp, #0x44]
  004f4	e20110ff	 and         r1, r1, #0xFF
  004f8	e59d003c	 ldr         r0, [sp, #0x3C]
  004fc	eb000000	 bl          ReadFIFO

; 309  : 
; 310  :     /* Save setup packet direction & size for later use */
; 311  :     pPdd->setupDirRx = (pUsbRequest->bmRequestType & 0x80) == 0;

  00500	e59d3040	 ldr         r3, [sp, #0x40]
  00504	e5d33000	 ldrb        r3, [r3]
  00508	e3130080	 tst         r3, #0x80
  0050c	1a000002	 bne         |$LN7@SetupUsbRe|
  00510	e3a03001	 mov         r3, #1
  00514	e58d3028	 str         r3, [sp, #0x28]
  00518	ea000001	 b           |$LN8@SetupUsbRe|
  0051c		 |$LN7@SetupUsbRe|
  0051c	e3a03000	 mov         r3, #0
  00520	e58d3028	 str         r3, [sp, #0x28]
  00524		 |$LN8@SetupUsbRe|
  00524	e59d303c	 ldr         r3, [sp, #0x3C]
  00528	e2832f99	 add         r2, r3, #0x99, 30
  0052c	e59d3028	 ldr         r3, [sp, #0x28]
  00530	e5823000	 str         r3, [r2]

; 312  :     pPdd->setupCount = pUsbRequest->wLength;

  00534	e59d3040	 ldr         r3, [sp, #0x40]
  00538	e2830006	 add         r0, r3, #6
  0053c	e59d303c	 ldr         r3, [sp, #0x3C]
  00540	e2831f9a	 add         r1, r3, #0x9A, 30
  00544	e5d03001	 ldrb        r3, [r0, #1]
  00548	e1a03403	 mov         r3, r3, lsl #8
  0054c	e1a02803	 mov         r2, r3, lsl #16
  00550	e1a02822	 mov         r2, r2, lsr #16
  00554	e5d03000	 ldrb        r3, [r0]
  00558	e1833002	 orr         r3, r3, r2
  0055c	e1c130b0	 strh        r3, [r1]

; 313  : 
; 314  :     PRINTMSG(ZONE_PDD_EP0,
; 315  :         (L"SetupUsbRequest: Req 0x%02x T 0x%02x V 0x%02x I 0x%x L 0x%x\r\n",
; 316  :          pUsbRequest->bmRequestType,
; 317  :          pUsbRequest->bRequest,
; 318  :          pUsbRequest->wValue,
; 319  :          pUsbRequest->wIndex,
; 320  :          pUsbRequest->wLength));

  00560	e59f3158	 ldr         r3, [pc, #0x158]
  00564	e5933440	 ldr         r3, [r3, #0x440]
  00568	e3130c02	 tst         r3, #2, 24
  0056c	0a00004d	 beq         |$LN11@SetupUsbRe|
  00570	e59f3148	 ldr         r3, [pc, #0x148]
  00574	e5933440	 ldr         r3, [r3, #0x440]
  00578	e3130801	 tst         r3, #1, 16
  0057c	0a000023	 beq         |$LN9@SetupUsbRe|
  00580	e59d3040	 ldr         r3, [sp, #0x40]
  00584	e2831006	 add         r1, r3, #6
  00588	e5d13001	 ldrb        r3, [r1, #1]
  0058c	e1a03403	 mov         r3, r3, lsl #8
  00590	e1a02803	 mov         r2, r3, lsl #16
  00594	e1a02822	 mov         r2, r2, lsr #16
  00598	e5d13000	 ldrb        r3, [r1]
  0059c	e1833002	 orr         r3, r3, r2
  005a0	e58d3004	 str         r3, [sp, #4]
  005a4	e59d3040	 ldr         r3, [sp, #0x40]
  005a8	e2831004	 add         r1, r3, #4
  005ac	e5d13001	 ldrb        r3, [r1, #1]
  005b0	e1a03403	 mov         r3, r3, lsl #8
  005b4	e1a02803	 mov         r2, r3, lsl #16
  005b8	e1a02822	 mov         r2, r2, lsr #16
  005bc	e5d13000	 ldrb        r3, [r1]
  005c0	e1833002	 orr         r3, r3, r2
  005c4	e58d3000	 str         r3, [sp]
  005c8	e59d3040	 ldr         r3, [sp, #0x40]
  005cc	e2831002	 add         r1, r3, #2
  005d0	e5d13001	 ldrb        r3, [r1, #1]
  005d4	e1a03403	 mov         r3, r3, lsl #8
  005d8	e1a02803	 mov         r2, r3, lsl #16
  005dc	e1a02822	 mov         r2, r2, lsr #16
  005e0	e5d13000	 ldrb        r3, [r1]
  005e4	e1833002	 orr         r3, r3, r2
  005e8	e59d2040	 ldr         r2, [sp, #0x40]
  005ec	e2822001	 add         r2, r2, #1
  005f0	e5d22000	 ldrb        r2, [r2]
  005f4	e59d1040	 ldr         r1, [sp, #0x40]
  005f8	e5d11000	 ldrb        r1, [r1]
  005fc	e59f00b8	 ldr         r0, [pc, #0xB8]
  00600	eb000000	 bl          CeLogMsg
  00604	e3a03001	 mov         r3, #1
  00608	e58d302c	 str         r3, [sp, #0x2C]
  0060c	ea000022	 b           |$LN10@SetupUsbRe|
  00610		 |$LN9@SetupUsbRe|
  00610	e59d3040	 ldr         r3, [sp, #0x40]
  00614	e2831006	 add         r1, r3, #6
  00618	e5d13001	 ldrb        r3, [r1, #1]
  0061c	e1a03403	 mov         r3, r3, lsl #8
  00620	e1a02803	 mov         r2, r3, lsl #16
  00624	e1a02822	 mov         r2, r2, lsr #16
  00628	e5d13000	 ldrb        r3, [r1]
  0062c	e1833002	 orr         r3, r3, r2
  00630	e58d3004	 str         r3, [sp, #4]
  00634	e59d3040	 ldr         r3, [sp, #0x40]
  00638	e2831004	 add         r1, r3, #4
  0063c	e5d13001	 ldrb        r3, [r1, #1]
  00640	e1a03403	 mov         r3, r3, lsl #8
  00644	e1a02803	 mov         r2, r3, lsl #16
  00648	e1a02822	 mov         r2, r2, lsr #16
  0064c	e5d13000	 ldrb        r3, [r1]
  00650	e1833002	 orr         r3, r3, r2
  00654	e58d3000	 str         r3, [sp]
  00658	e59d3040	 ldr         r3, [sp, #0x40]
  0065c	e2831002	 add         r1, r3, #2
  00660	e5d13001	 ldrb        r3, [r1, #1]
  00664	e1a03403	 mov         r3, r3, lsl #8
  00668	e1a02803	 mov         r2, r3, lsl #16
  0066c	e1a02822	 mov         r2, r2, lsr #16
  00670	e5d13000	 ldrb        r3, [r1]
  00674	e1833002	 orr         r3, r3, r2
  00678	e59d2040	 ldr         r2, [sp, #0x40]
  0067c	e2822001	 add         r2, r2, #1
  00680	e5d22000	 ldrb        r2, [r2]
  00684	e59d1040	 ldr         r1, [sp, #0x40]
  00688	e5d11000	 ldrb        r1, [r1]
  0068c	e59f0028	 ldr         r0, [pc, #0x28]
  00690	eb000000	 bl          NKDbgPrintfW
  00694	e3a03000	 mov         r3, #0
  00698	e58d302c	 str         r3, [sp, #0x2C]
  0069c		 |$LN10@SetupUsbRe|
  0069c	e3a03001	 mov         r3, #1
  006a0	e58d3030	 str         r3, [sp, #0x30]
  006a4	ea000001	 b           |$LN12@SetupUsbRe|
  006a8		 |$LN11@SetupUsbRe|
  006a8	e3a03000	 mov         r3, #0
  006ac	e58d3030	 str         r3, [sp, #0x30]
  006b0		 |$LN12@SetupUsbRe|

; 321  : }

  006b0	e28dd034	 add         sp, sp, #0x34
  006b4	e89d6000	 ldmia       sp, {sp, lr}
  006b8	e12fff1e	 bx          lr
  006bc		 |$LN16@SetupUsbRe|
  006bc		 |$LN17@SetupUsbRe|
  006bc	00000000	 DCD         |??_C@_1HM@BDJKHHG@?$AAS?$AAe?$AAt?$AAu?$AAp?$AAU?$AAs?$AAb?$AAR?$AAe?$AAq?$AAu?$AAe?$AAs?$AAt?$AA?3?$AA?5?$AAR?$AAe?$AAq?$AA?5?$AA0?$AAx?$AA?$CF?$AA0?$AA2?$AAx?$AA?5?$AAT?$AA?5?$AA0?$AAx@|
  006c0		 |$LN18@SetupUsbRe|
  006c0	00000000	 DCD         |dpCurSettings|
  006c4		 |$LN19@SetupUsbRe|
  006c4	00000000	 DCD         |??_C@_1FK@FNONLNGN@?$AA?$CF?$AAs?$AA?3?$AA?5?$AAD?$AAE?$AAB?$AAU?$AAG?$AAC?$AAH?$AAK?$AA?5?$AAf?$AAa?$AAi?$AAl?$AAe?$AAd?$AA?5?$AAi?$AAn?$AA?5?$AAf?$AAi?$AAl?$AAe?$AA?5?$AA?$CF?$AAs?$AA?5?$AAa@|
  006c8		 |$LN20@SetupUsbRe|
  006c8	00000000	 DCD         |??_C@_1JO@JAGHJEHH@?$AAC?$AA?3?$AA?2?$AAW?$AAI?$AAN?$AAC?$AAE?$AA6?$AA0?$AA0?$AA?2?$AAP?$AAL?$AAA?$AAT?$AAF?$AAO?$AAR?$AAM?$AA?2?$AAC?$AAO?$AAM?$AAM?$AAO?$AAN?$AA?2?$AAS?$AAR?$AAC?$AA?2@|
  006cc		 |$M49348|

			 ENDP  ; |SetupUsbRequest|

	EXPORT	|??_C@_1CO@KENNPJL@?$AA?9?$AAU?$AAf?$AAn?$AAP?$AAd?$AAd?$AA_?$AAC?$AAo?$AAn?$AAt?$AAe?$AAx?$AAt?$AAS?$AAe?$AAt?$AAu?$AAp?$AA?$AN?$AA?6?$AA?$AA@| [ DATA ] ; `string'
	EXPORT	|??_C@_1GO@HIIBBKPB@?$AAU?$AAf?$AAn?$AAP?$AAd?$AAd?$AA_?$AAC?$AAo?$AAn?$AAt?$AAe?$AAx?$AAt?$AAS?$AAe?$AAt?$AAu?$AAp?$AA?3?$AA?5?$AAU?$AAS?$AAB?$AA?5?$AAI?$AAn?$AAt?$AAe?$AAr?$AAr?$AAu@| [ DATA ] ; `string'
	EXPORT	|??_C@_1FO@IGBBBJEC@?$AAE?$AAR?$AAR?$AAO?$AAR?$AA?3?$AA?5?$AAI?$AAO?$AAC?$AAT?$AAL?$AA_?$AAH?$AAA?$AAL?$AA_?$AAR?$AAE?$AAQ?$AAU?$AAE?$AAS?$AAT?$AA_?$AAS?$AAY?$AAS?$AAT?$AAI?$AAN?$AAR@| [ DATA ] ; `string'
	EXPORT	|??_C@_1HI@BHBLAGEJ@?$AAU?$AAf?$AAn?$AAP?$AAd?$AAd?$AA_?$AAC?$AAo?$AAn?$AAt?$AAe?$AAx?$AAt?$AAS?$AAe?$AAt?$AAu?$AAp?$AA?3?$AA?5?$AAA?$AAl?$AAl?$AAo?$AAc?$AAa?$AAt?$AAe?$AAd?$AA?5?$AAU@| [ DATA ] ; `string'
	EXPORT	|??_C@_1FE@FCLHPLHL@?$AAE?$AAR?$AAR?$AAO?$AAR?$AA?3?$AA?5?$AAS?$AAY?$AAS?$AAC?$AAO?$AAN?$AAF?$AA?5?$AAr?$AAe?$AAg?$AAi?$AAs?$AAt?$AAe?$AAr?$AAs?$AA?5?$AAm?$AAa?$AAp?$AAp?$AAi?$AAn?$AAg@| [ DATA ] ; `string'
	EXPORT	|??_C@_1EO@FDOPPAGC@?$AAE?$AAR?$AAR?$AAO?$AAR?$AA?3?$AA?5?$AAC?$AAP?$AAP?$AAI?$AA?5?$AAr?$AAe?$AAg?$AAi?$AAs?$AAt?$AAe?$AAr?$AAs?$AA?5?$AAm?$AAa?$AAp?$AAp?$AAi?$AAn?$AAg?$AA?5?$AAf?$AAa@| [ DATA ] ; `string'
	EXPORT	|??_C@_1FK@BAOADCDO@?$AAE?$AAR?$AAR?$AAO?$AAR?$AA?3?$AA?5?$AAC?$AAo?$AAn?$AAt?$AAr?$AAo?$AAl?$AAl?$AAe?$AAr?$AA?5?$AAr?$AAe?$AAg?$AAi?$AAs?$AAt?$AAe?$AAr?$AAs?$AA?5?$AAm?$AAa?$AAp?$AAp@| [ DATA ] ; `string'
	EXPORT	|??_C@_1GO@PGIBGLEH@?$AAU?$AAf?$AAn?$AAP?$AAd?$AAd?$AA_?$AAC?$AAo?$AAn?$AAt?$AAe?$AAx?$AAt?$AAS?$AAe?$AAt?$AAu?$AAp?$AA?3?$AA?5?$AAM?$AAa?$AAp?$AAp?$AAi?$AAn?$AAg?$AA?5?$AAR?$AAe?$AAg@| [ DATA ] ; `string'
	EXPORT	|??_C@_1EA@OEPLPLAG@?$AAE?$AAR?$AAR?$AAO?$AAR?$AA?3?$AA?5?$AAF?$AAa?$AAi?$AAl?$AAe?$AAd?$AA?5?$AAo?$AAp?$AAe?$AAn?$AA?5?$AAb?$AAu?$AAs?$AA?5?$AAd?$AAr?$AAi?$AAv?$AAe?$AAr?$AA?$AN?$AA?6?$AA?$AA@| [ DATA ] ; `string'
	EXPORT	|??_C@_1FC@JDGAACEB@?$AAE?$AAR?$AAR?$AAO?$AAR?$AA?3?$AA?5?$AAF?$AAa?$AAi?$AAl?$AAe?$AAd?$AA?5?$AAr?$AAe?$AAa?$AAd?$AA?5?$AAr?$AAe?$AAg?$AAi?$AAs?$AAt?$AAr?$AAy?$AA?5?$AAp?$AAa?$AAr?$AAa@| [ DATA ] ; `string'
	EXPORT	|??_C@_1GI@MKAFOGGK@?$AAU?$AAf?$AAn?$AAP?$AAd?$AAd?$AA_?$AAC?$AAo?$AAn?$AAt?$AAe?$AAx?$AAt?$AAS?$AAe?$AAt?$AAu?$AAp?$AA?3?$AA?5?$AAR?$AAe?$AAa?$AAd?$AAi?$AAn?$AAg?$AA?5?$AAR?$AAe?$AAg@| [ DATA ] ; `string'
	EXPORT	|??_C@_1EM@COOJIHLG@?$AAE?$AAR?$AAR?$AAO?$AAR?$AA?3?$AA?5?$AAU?$AAn?$AAa?$AAb?$AAl?$AAe?$AA?5?$AAt?$AAo?$AA?5?$AAA?$AAl?$AAl?$AAo?$AAc?$AA?5?$AAP?$AAD?$AAD?$AA?5?$AAO?$AAb?$AAj?$AAe?$AAc@| [ DATA ] ; `string'
	EXPORT	|??_C@_1CI@OHCJFJPM@?$AAE?$AAR?$AAR?$AAO?$AAR?$AA?3?$AA?5?$AA?$CF?$AAs?$AA?5?$AAl?$AAi?$AAn?$AAe?$AA?5?$AA?$CF?$AAd?$AA?3?$AA?5?$AA?$AA@| [ DATA ] ; `string'
	EXPORT	|??_C@_1HO@LBGLCJKI@?$AAU?$AAf?$AAn?$AAP?$AAd?$AAd?$AA_?$AAC?$AAo?$AAn?$AAt?$AAe?$AAx?$AAt?$AAS?$AAe?$AAt?$AAu?$AAp?$AA?3?$AA?5?$AAF?$AAa?$AAi?$AAl?$AAe?$AAd?$AA?5?$AAt?$AAo?$AA?5?$AAi@| [ DATA ] ; `string'
	EXPORT	|??_C@_1CO@NBIJIALA@?$AA?$CL?$AAU?$AAf?$AAn?$AAP?$AAd?$AAd?$AA_?$AAC?$AAo?$AAn?$AAt?$AAe?$AAx?$AAt?$AAS?$AAe?$AAt?$AAu?$AAp?$AA?$AN?$AA?6?$AA?$AA@| [ DATA ] ; `string'
	EXPORT	|UfnPdd_ContextSetup|
	IMPORT	|KernelIoControl|
	IMPORT	|CreateEventW|
	IMPORT	|USBPeripheralInit|
	IMPORT	|MmMapIoSpace|
	IMPORT	|CreateBusAccessHandle|
	IMPORT	|OpenEventW|
	IMPORT	|wcslen|
	IMPORT	|GetDeviceRegistryParams|
	IMPORT	|InitializeCriticalSection|
	IMPORT	|LocalAlloc|
	IMPORT	|USBFNPDD_Init|

  00020			 AREA	 |.pdata|, PDATA
|$T49399| DCD	|$LN50@UfnPdd_Con|
	DCD	0x40020304

  00000			 AREA	 |.rdata|, DATA, READONLY
|??_C@_1CO@KENNPJL@?$AA?9?$AAU?$AAf?$AAn?$AAP?$AAd?$AAd?$AA_?$AAC?$AAo?$AAn?$AAt?$AAe?$AAx?$AAt?$AAS?$AAe?$AAt?$AAu?$AAp?$AA?$AN?$AA?6?$AA?$AA@| DCB "-"
	DCB	0x0, "U", 0x0, "f", 0x0, "n", 0x0, "P", 0x0, "d", 0x0, "d"
	DCB	0x0, "_", 0x0, "C", 0x0, "o", 0x0, "n", 0x0, "t", 0x0, "e"
	DCB	0x0, "x", 0x0, "t", 0x0, "S", 0x0, "e", 0x0, "t", 0x0, "u"
	DCB	0x0, "p", 0x0, 0xd, 0x0, 0xa, 0x0, 0x0, 0x0 ; `string'

  00000			 AREA	 |.rdata|, DATA, READONLY
|??_C@_1GO@HIIBBKPB@?$AAU?$AAf?$AAn?$AAP?$AAd?$AAd?$AA_?$AAC?$AAo?$AAn?$AAt?$AAe?$AAx?$AAt?$AAS?$AAe?$AAt?$AAu?$AAp?$AA?3?$AA?5?$AAU?$AAS?$AAB?$AA?5?$AAI?$AAn?$AAt?$AAe?$AAr?$AAr?$AAu@| DCB "U"
	DCB	0x0, "f", 0x0, "n", 0x0, "P", 0x0, "d", 0x0, "d", 0x0, "_"
	DCB	0x0, "C", 0x0, "o", 0x0, "n", 0x0, "t", 0x0, "e", 0x0, "x"
	DCB	0x0, "t", 0x0, "S", 0x0, "e", 0x0, "t", 0x0, "u", 0x0, "p"
	DCB	0x0, ":", 0x0, " ", 0x0, "U", 0x0, "S", 0x0, "B", 0x0, " "
	DCB	0x0, "I", 0x0, "n", 0x0, "t", 0x0, "e", 0x0, "r", 0x0, "r"
	DCB	0x0, "u", 0x0, "p", 0x0, "t", 0x0, " ", 0x0, "0", 0x0, "x"
	DCB	0x0, "%", 0x0, "x", 0x0, " ", 0x0, "S", 0x0, "Y", 0x0, "S"
	DCB	0x0, "I", 0x0, "N", 0x0, "T", 0x0, "R", 0x0, " ", 0x0, "0"
	DCB	0x0, "x", 0x0, "%", 0x0, "x", 0x0, 0xd, 0x0, 0xa, 0x0, 0x0
	DCB	0x0					; `string'

  00000			 AREA	 |.rdata|, DATA, READONLY
|??_C@_1FO@IGBBBJEC@?$AAE?$AAR?$AAR?$AAO?$AAR?$AA?3?$AA?5?$AAI?$AAO?$AAC?$AAT?$AAL?$AA_?$AAH?$AAA?$AAL?$AA_?$AAR?$AAE?$AAQ?$AAU?$AAE?$AAS?$AAT?$AA_?$AAS?$AAY?$AAS?$AAT?$AAI?$AAN?$AAR@| DCB "E"
	DCB	0x0, "R", 0x0, "R", 0x0, "O", 0x0, "R", 0x0, ":", 0x0, " "
	DCB	0x0, "I", 0x0, "O", 0x0, "C", 0x0, "T", 0x0, "L", 0x0, "_"
	DCB	0x0, "H", 0x0, "A", 0x0, "L", 0x0, "_", 0x0, "R", 0x0, "E"
	DCB	0x0, "Q", 0x0, "U", 0x0, "E", 0x0, "S", 0x0, "T", 0x0, "_"
	DCB	0x0, "S", 0x0, "Y", 0x0, "S", 0x0, "T", 0x0, "I", 0x0, "N"
	DCB	0x0, "R", 0x0, " ", 0x0, "c", 0x0, "a", 0x0, "l", 0x0, "l"
	DCB	0x0, " ", 0x0, "f", 0x0, "a", 0x0, "i", 0x0, "l", 0x0, "e"
	DCB	0x0, "d", 0x0, 0xd, 0x0, 0xa, 0x0, 0x0, 0x0 ; `string'

  00000			 AREA	 |.rdata|, DATA, READONLY
|??_C@_1HI@BHBLAGEJ@?$AAU?$AAf?$AAn?$AAP?$AAd?$AAd?$AA_?$AAC?$AAo?$AAn?$AAt?$AAe?$AAx?$AAt?$AAS?$AAe?$AAt?$AAu?$AAp?$AA?3?$AA?5?$AAA?$AAl?$AAl?$AAo?$AAc?$AAa?$AAt?$AAe?$AAd?$AA?5?$AAU@| DCB "U"
	DCB	0x0, "f", 0x0, "n", 0x0, "P", 0x0, "d", 0x0, "d", 0x0, "_"
	DCB	0x0, "C", 0x0, "o", 0x0, "n", 0x0, "t", 0x0, "e", 0x0, "x"
	DCB	0x0, "t", 0x0, "S", 0x0, "e", 0x0, "t", 0x0, "u", 0x0, "p"
	DCB	0x0, ":", 0x0, " ", 0x0, "A", 0x0, "l", 0x0, "l", 0x0, "o"
	DCB	0x0, "c", 0x0, "a", 0x0, "t", 0x0, "e", 0x0, "d", 0x0, " "
	DCB	0x0, "U", 0x0, "S", 0x0, "B", 0x0, " ", 0x0, "0", 0x0, "x"
	DCB	0x0, "%", 0x0, "0", 0x0, "8", 0x0, "x", 0x0, " ", 0x0, "S"
	DCB	0x0, "Y", 0x0, "S", 0x0, "_", 0x0, "C", 0x0, "O", 0x0, "N"
	DCB	0x0, "F", 0x0, " ", 0x0, "0", 0x0, "x", 0x0, "%", 0x0, "0"
	DCB	0x0, "8", 0x0, "x", 0x0, 0xd, 0x0, 0xa, 0x0, 0x0, 0x0 ; `string'

  00000			 AREA	 |.rdata|, DATA, READONLY
|??_C@_1FE@FCLHPLHL@?$AAE?$AAR?$AAR?$AAO?$AAR?$AA?3?$AA?5?$AAS?$AAY?$AAS?$AAC?$AAO?$AAN?$AAF?$AA?5?$AAr?$AAe?$AAg?$AAi?$AAs?$AAt?$AAe?$AAr?$AAs?$AA?5?$AAm?$AAa?$AAp?$AAp?$AAi?$AAn?$AAg@| DCB "E"
	DCB	0x0, "R", 0x0, "R", 0x0, "O", 0x0, "R", 0x0, ":", 0x0, " "
	DCB	0x0, "S", 0x0, "Y", 0x0, "S", 0x0, "C", 0x0, "O", 0x0, "N"
	DCB	0x0, "F", 0x0, " ", 0x0, "r", 0x0, "e", 0x0, "g", 0x0, "i"
	DCB	0x0, "s", 0x0, "t", 0x0, "e", 0x0, "r", 0x0, "s", 0x0, " "
	DCB	0x0, "m", 0x0, "a", 0x0, "p", 0x0, "p", 0x0, "i", 0x0, "n"
	DCB	0x0, "g", 0x0, " ", 0x0, "f", 0x0, "a", 0x0, "i", 0x0, "l"
	DCB	0x0, "e", 0x0, "d", 0x0, 0xd, 0x0, 0xa, 0x0, 0x0, 0x0 ; `string'

  00000			 AREA	 |.rdata|, DATA, READONLY
|??_C@_1EO@FDOPPAGC@?$AAE?$AAR?$AAR?$AAO?$AAR?$AA?3?$AA?5?$AAC?$AAP?$AAP?$AAI?$AA?5?$AAr?$AAe?$AAg?$AAi?$AAs?$AAt?$AAe?$AAr?$AAs?$AA?5?$AAm?$AAa?$AAp?$AAp?$AAi?$AAn?$AAg?$AA?5?$AAf?$AAa@| DCB "E"
	DCB	0x0, "R", 0x0, "R", 0x0, "O", 0x0, "R", 0x0, ":", 0x0, " "
	DCB	0x0, "C", 0x0, "P", 0x0, "P", 0x0, "I", 0x0, " ", 0x0, "r"
	DCB	0x0, "e", 0x0, "g", 0x0, "i", 0x0, "s", 0x0, "t", 0x0, "e"
	DCB	0x0, "r", 0x0, "s", 0x0, " ", 0x0, "m", 0x0, "a", 0x0, "p"
	DCB	0x0, "p", 0x0, "i", 0x0, "n", 0x0, "g", 0x0, " ", 0x0, "f"
	DCB	0x0, "a", 0x0, "i", 0x0, "l", 0x0, "e", 0x0, "d", 0x0, 0xd
	DCB	0x0, 0xa, 0x0, 0x0, 0x0			; `string'

  00000			 AREA	 |.rdata|, DATA, READONLY
|??_C@_1FK@BAOADCDO@?$AAE?$AAR?$AAR?$AAO?$AAR?$AA?3?$AA?5?$AAC?$AAo?$AAn?$AAt?$AAr?$AAo?$AAl?$AAl?$AAe?$AAr?$AA?5?$AAr?$AAe?$AAg?$AAi?$AAs?$AAt?$AAe?$AAr?$AAs?$AA?5?$AAm?$AAa?$AAp?$AAp@| DCB "E"
	DCB	0x0, "R", 0x0, "R", 0x0, "O", 0x0, "R", 0x0, ":", 0x0, " "
	DCB	0x0, "C", 0x0, "o", 0x0, "n", 0x0, "t", 0x0, "r", 0x0, "o"
	DCB	0x0, "l", 0x0, "l", 0x0, "e", 0x0, "r", 0x0, " ", 0x0, "r"
	DCB	0x0, "e", 0x0, "g", 0x0, "i", 0x0, "s", 0x0, "t", 0x0, "e"
	DCB	0x0, "r", 0x0, "s", 0x0, " ", 0x0, "m", 0x0, "a", 0x0, "p"
	DCB	0x0, "p", 0x0, "i", 0x0, "n", 0x0, "g", 0x0, " ", 0x0, "f"
	DCB	0x0, "a", 0x0, "i", 0x0, "l", 0x0, "e", 0x0, "d", 0x0, 0xd
	DCB	0x0, 0xa, 0x0, 0x0, 0x0			; `string'

  00000			 AREA	 |.rdata|, DATA, READONLY
|??_C@_1GO@PGIBGLEH@?$AAU?$AAf?$AAn?$AAP?$AAd?$AAd?$AA_?$AAC?$AAo?$AAn?$AAt?$AAe?$AAx?$AAt?$AAS?$AAe?$AAt?$AAu?$AAp?$AA?3?$AA?5?$AAM?$AAa?$AAp?$AAp?$AAi?$AAn?$AAg?$AA?5?$AAR?$AAe?$AAg@| DCB "U"
	DCB	0x0, "f", 0x0, "n", 0x0, "P", 0x0, "d", 0x0, "d", 0x0, "_"
	DCB	0x0, "C", 0x0, "o", 0x0, "n", 0x0, "t", 0x0, "e", 0x0, "x"
	DCB	0x0, "t", 0x0, "S", 0x0, "e", 0x0, "t", 0x0, "u", 0x0, "p"
	DCB	0x0, ":", 0x0, " ", 0x0, "M", 0x0, "a", 0x0, "p", 0x0, "p"
	DCB	0x0, "i", 0x0, "n", 0x0, "g", 0x0, " ", 0x0, "R", 0x0, "e"
	DCB	0x0, "g", 0x0, "i", 0x0, "o", 0x0, "n", 0x0, " ", 0x0, "0"
	DCB	0x0, "x", 0x0, "%", 0x0, "0", 0x0, "8", 0x0, "x", 0x0, " "
	DCB	0x0, "S", 0x0, "i", 0x0, "z", 0x0, "e", 0x0, " ", 0x0, "0"
	DCB	0x0, "x", 0x0, "%", 0x0, "x", 0x0, 0xd, 0x0, 0xa, 0x0, 0x0
	DCB	0x0					; `string'

  00000			 AREA	 |.rdata|, DATA, READONLY
|??_C@_1EA@OEPLPLAG@?$AAE?$AAR?$AAR?$AAO?$AAR?$AA?3?$AA?5?$AAF?$AAa?$AAi?$AAl?$AAe?$AAd?$AA?5?$AAo?$AAp?$AAe?$AAn?$AA?5?$AAb?$AAu?$AAs?$AA?5?$AAd?$AAr?$AAi?$AAv?$AAe?$AAr?$AA?$AN?$AA?6?$AA?$AA@| DCB "E"
	DCB	0x0, "R", 0x0, "R", 0x0, "O", 0x0, "R", 0x0, ":", 0x0, " "
	DCB	0x0, "F", 0x0, "a", 0x0, "i", 0x0, "l", 0x0, "e", 0x0, "d"
	DCB	0x0, " ", 0x0, "o", 0x0, "p", 0x0, "e", 0x0, "n", 0x0, " "
	DCB	0x0, "b", 0x0, "u", 0x0, "s", 0x0, " ", 0x0, "d", 0x0, "r"
	DCB	0x0, "i", 0x0, "v", 0x0, "e", 0x0, "r", 0x0, 0xd, 0x0, 0xa
	DCB	0x0, 0x0, 0x0				; `string'

  00000			 AREA	 |.rdata|, DATA, READONLY
|??_C@_1FC@JDGAACEB@?$AAE?$AAR?$AAR?$AAO?$AAR?$AA?3?$AA?5?$AAF?$AAa?$AAi?$AAl?$AAe?$AAd?$AA?5?$AAr?$AAe?$AAa?$AAd?$AA?5?$AAr?$AAe?$AAg?$AAi?$AAs?$AAt?$AAr?$AAy?$AA?5?$AAp?$AAa?$AAr?$AAa@| DCB "E"
	DCB	0x0, "R", 0x0, "R", 0x0, "O", 0x0, "R", 0x0, ":", 0x0, " "
	DCB	0x0, "F", 0x0, "a", 0x0, "i", 0x0, "l", 0x0, "e", 0x0, "d"
	DCB	0x0, " ", 0x0, "r", 0x0, "e", 0x0, "a", 0x0, "d", 0x0, " "
	DCB	0x0, "r", 0x0, "e", 0x0, "g", 0x0, "i", 0x0, "s", 0x0, "t"
	DCB	0x0, "r", 0x0, "y", 0x0, " ", 0x0, "p", 0x0, "a", 0x0, "r"
	DCB	0x0, "a", 0x0, "m", 0x0, "e", 0x0, "t", 0x0, "e", 0x0, "r"
	DCB	0x0, "s", 0x0, 0xd, 0x0, 0xa, 0x0, 0x0, 0x0 ; `string'

  00000			 AREA	 |.rdata|, DATA, READONLY
|??_C@_1GI@MKAFOGGK@?$AAU?$AAf?$AAn?$AAP?$AAd?$AAd?$AA_?$AAC?$AAo?$AAn?$AAt?$AAe?$AAx?$AAt?$AAS?$AAe?$AAt?$AAu?$AAp?$AA?3?$AA?5?$AAR?$AAe?$AAa?$AAd?$AAi?$AAn?$AAg?$AA?5?$AAR?$AAe?$AAg@| DCB "U"
	DCB	0x0, "f", 0x0, "n", 0x0, "P", 0x0, "d", 0x0, "d", 0x0, "_"
	DCB	0x0, "C", 0x0, "o", 0x0, "n", 0x0, "t", 0x0, "e", 0x0, "x"
	DCB	0x0, "t", 0x0, "S", 0x0, "e", 0x0, "t", 0x0, "u", 0x0, "p"
	DCB	0x0, ":", 0x0, " ", 0x0, "R", 0x0, "e", 0x0, "a", 0x0, "d"
	DCB	0x0, "i", 0x0, "n", 0x0, "g", 0x0, " ", 0x0, "R", 0x0, "e"
	DCB	0x0, "g", 0x0, "i", 0x0, "s", 0x0, "t", 0x0, "r", 0x0, "y"
	DCB	0x0, " ", 0x0, "I", 0x0, "n", 0x0, "f", 0x0, "o", 0x0, "r"
	DCB	0x0, "m", 0x0, "a", 0x0, "t", 0x0, "i", 0x0, "o", 0x0, "n"
	DCB	0x0, 0xd, 0x0, 0xa, 0x0, 0x0, 0x0	; `string'

  00000			 AREA	 |.rdata|, DATA, READONLY
|??_C@_1EM@COOJIHLG@?$AAE?$AAR?$AAR?$AAO?$AAR?$AA?3?$AA?5?$AAU?$AAn?$AAa?$AAb?$AAl?$AAe?$AA?5?$AAt?$AAo?$AA?5?$AAA?$AAl?$AAl?$AAo?$AAc?$AA?5?$AAP?$AAD?$AAD?$AA?5?$AAO?$AAb?$AAj?$AAe?$AAc@| DCB "E"
	DCB	0x0, "R", 0x0, "R", 0x0, "O", 0x0, "R", 0x0, ":", 0x0, " "
	DCB	0x0, "U", 0x0, "n", 0x0, "a", 0x0, "b", 0x0, "l", 0x0, "e"
	DCB	0x0, " ", 0x0, "t", 0x0, "o", 0x0, " ", 0x0, "A", 0x0, "l"
	DCB	0x0, "l", 0x0, "o", 0x0, "c", 0x0, " ", 0x0, "P", 0x0, "D"
	DCB	0x0, "D", 0x0, " ", 0x0, "O", 0x0, "b", 0x0, "j", 0x0, "e"
	DCB	0x0, "c", 0x0, "t", 0x0, "!", 0x0, "!", 0x0, 0xd, 0x0, 0xa
	DCB	0x0, 0x0, 0x0				; `string'

  00000			 AREA	 |.rdata|, DATA, READONLY
|??_C@_1CI@OHCJFJPM@?$AAE?$AAR?$AAR?$AAO?$AAR?$AA?3?$AA?5?$AA?$CF?$AAs?$AA?5?$AAl?$AAi?$AAn?$AAe?$AA?5?$AA?$CF?$AAd?$AA?3?$AA?5?$AA?$AA@| DCB "E"
	DCB	0x0, "R", 0x0, "R", 0x0, "O", 0x0, "R", 0x0, ":", 0x0, " "
	DCB	0x0, "%", 0x0, "s", 0x0, " ", 0x0, "l", 0x0, "i", 0x0, "n"
	DCB	0x0, "e", 0x0, " ", 0x0, "%", 0x0, "d", 0x0, ":", 0x0, " "
	DCB	0x0, 0x0, 0x0				; `string'

  00000			 AREA	 |.rdata|, DATA, READONLY
|??_C@_1HO@LBGLCJKI@?$AAU?$AAf?$AAn?$AAP?$AAd?$AAd?$AA_?$AAC?$AAo?$AAn?$AAt?$AAe?$AAx?$AAt?$AAS?$AAe?$AAt?$AAu?$AAp?$AA?3?$AA?5?$AAF?$AAa?$AAi?$AAl?$AAe?$AAd?$AA?5?$AAt?$AAo?$AA?5?$AAi@| DCB "U"
	DCB	0x0, "f", 0x0, "n", 0x0, "P", 0x0, "d", 0x0, "d", 0x0, "_"
	DCB	0x0, "C", 0x0, "o", 0x0, "n", 0x0, "t", 0x0, "e", 0x0, "x"
	DCB	0x0, "t", 0x0, "S", 0x0, "e", 0x0, "t", 0x0, "u", 0x0, "p"
	DCB	0x0, ":", 0x0, " ", 0x0, "F", 0x0, "a", 0x0, "i", 0x0, "l"
	DCB	0x0, "e", 0x0, "d", 0x0, " ", 0x0, "t", 0x0, "o", 0x0, " "
	DCB	0x0, "i", 0x0, "n", 0x0, "i", 0x0, "t", 0x0, "i", 0x0, "a"
	DCB	0x0, "l", 0x0, "i", 0x0, "s", 0x0, "e", 0x0, " ", 0x0, "p"
	DCB	0x0, "l", 0x0, "a", 0x0, "t", 0x0, "f", 0x0, "o", 0x0, "r"
	DCB	0x0, "m", 0x0, " ", 0x0, "U", 0x0, "S", 0x0, "B", 0x0, "F"
	DCB	0x0, "N", 0x0, " ", 0x0, "P", 0x0, "D", 0x0, "D", 0x0, 0xd
	DCB	0x0, 0xa, 0x0, 0x0, 0x0			; `string'

  00000			 AREA	 |.rdata|, DATA, READONLY
|??_C@_1CO@NBIJIALA@?$AA?$CL?$AAU?$AAf?$AAn?$AAP?$AAd?$AAd?$AA_?$AAC?$AAo?$AAn?$AAt?$AAe?$AAx?$AAt?$AAS?$AAe?$AAt?$AAu?$AAp?$AA?$AN?$AA?6?$AA?$AA@| DCB "+"
	DCB	0x0, "U", 0x0, "f", 0x0, "n", 0x0, "P", 0x0, "d", 0x0, "d"
	DCB	0x0, "_", 0x0, "C", 0x0, "o", 0x0, "n", 0x0, "t", 0x0, "e"
	DCB	0x0, "x", 0x0, "t", 0x0, "S", 0x0, "e", 0x0, "t", 0x0, "u"
	DCB	0x0, "p", 0x0, 0xd, 0x0, 0xa, 0x0, 0x0, 0x0 ; `string'
; Function compile flags: /Odtp

  006cc			 AREA	 |.text|, CODE, ARM

  006cc		 |UfnPdd_ContextSetup| PROC

; 537  : {

  006cc		 |$LN50@UfnPdd_Con|
  006cc	e1a0c00d	 mov         r12, sp
  006d0	e92d0003	 stmdb       sp!, {r0, r1}
  006d4	e92d5000	 stmdb       sp!, {r12, lr}
  006d8	e24dd0a0	 sub         sp, sp, #0xA0
  006dc		 |$M49396|

; 538  :     BOOL retValue = FALSE;

  006dc	e3a03000	 mov         r3, #0
  006e0	e58d301c	 str         r3, [sp, #0x1C]

; 539  :     CSL_UsbRegs *pUsbdRegs = NULL;

  006e4	e3a03000	 mov         r3, #0
  006e8	e58d300c	 str         r3, [sp, #0xC]

; 540  :     CSL_CppiRegs *pCppiRegs = NULL;

  006ec	e3a03000	 mov         r3, #0
  006f0	e58d3008	 str         r3, [sp, #8]

; 541  :     PHYSICAL_ADDRESS pa;
; 542  :     DWORD usbIrqVal;
; 543  : 
; 544  :     PRINTMSG(ZONE_FUNCTION, (L"+UfnPdd_ContextSetup\r\n"));

  006f4	e59f3790	 ldr         r3, [pc, #0x790]
  006f8	e5933440	 ldr         r3, [r3, #0x440]
  006fc	e3130a01	 tst         r3, #1, 20
  00700	0a00000f	 beq         |$LN14@UfnPdd_Con|
  00704	e59f3780	 ldr         r3, [pc, #0x780]
  00708	e5933440	 ldr         r3, [r3, #0x440]
  0070c	e3130801	 tst         r3, #1, 16
  00710	0a000004	 beq         |$LN12@UfnPdd_Con|
  00714	e59f07b8	 ldr         r0, [pc, #0x7B8]
  00718	eb000000	 bl          CeLogMsg
  0071c	e3a03001	 mov         r3, #1
  00720	e58d302c	 str         r3, [sp, #0x2C]
  00724	ea000003	 b           |$LN13@UfnPdd_Con|
  00728		 |$LN12@UfnPdd_Con|
  00728	e59f07a4	 ldr         r0, [pc, #0x7A4]
  0072c	eb000000	 bl          NKDbgPrintfW
  00730	e3a03000	 mov         r3, #0
  00734	e58d302c	 str         r3, [sp, #0x2C]
  00738		 |$LN13@UfnPdd_Con|
  00738	e3a03001	 mov         r3, #1
  0073c	e58d3030	 str         r3, [sp, #0x30]
  00740	ea000001	 b           |$LN15@UfnPdd_Con|
  00744		 |$LN14@UfnPdd_Con|
  00744	e3a03000	 mov         r3, #0
  00748	e58d3030	 str         r3, [sp, #0x30]
  0074c		 |$LN15@UfnPdd_Con|

; 545  : 
; 546  :     // Initialise platform PDD
; 547  :     if (!USBFNPDD_Init())

  0074c	eb000000	 bl          USBFNPDD_Init
  00750	e58d0034	 str         r0, [sp, #0x34]
  00754	e59d3034	 ldr         r3, [sp, #0x34]
  00758	e3530000	 cmp         r3, #0
  0075c	1a000016	 bne         |$LN9@UfnPdd_Con|

; 548  :     {
; 549  :         DEBUGMSG(ZONE_ERROR, (L"UfnPdd_ContextSetup: Failed to initialise platform USBFN PDD\r\n"));

  00760	e59f3724	 ldr         r3, [pc, #0x724]
  00764	e5933440	 ldr         r3, [r3, #0x440]
  00768	e3130001	 tst         r3, #1
  0076c	0a00000f	 beq         |$LN18@UfnPdd_Con|
  00770	e59f3714	 ldr         r3, [pc, #0x714]
  00774	e5933440	 ldr         r3, [r3, #0x440]
  00778	e3130801	 tst         r3, #1, 16
  0077c	0a000004	 beq         |$LN16@UfnPdd_Con|
  00780	e59f0748	 ldr         r0, [pc, #0x748]
  00784	eb000000	 bl          CeLogMsg
  00788	e3a03001	 mov         r3, #1
  0078c	e58d3038	 str         r3, [sp, #0x38]
  00790	ea000003	 b           |$LN17@UfnPdd_Con|
  00794		 |$LN16@UfnPdd_Con|
  00794	e59f0734	 ldr         r0, [pc, #0x734]
  00798	eb000000	 bl          NKDbgPrintfW
  0079c	e3a03000	 mov         r3, #0
  007a0	e58d3038	 str         r3, [sp, #0x38]
  007a4		 |$LN17@UfnPdd_Con|
  007a4	e3a03001	 mov         r3, #1
  007a8	e58d303c	 str         r3, [sp, #0x3C]
  007ac	ea000001	 b           |$LN19@UfnPdd_Con|
  007b0		 |$LN18@UfnPdd_Con|
  007b0	e3a03000	 mov         r3, #0
  007b4	e58d303c	 str         r3, [sp, #0x3C]
  007b8		 |$LN19@UfnPdd_Con|

; 550  :         goto cleanUp;

  007b8	ea000196	 b           |$cleanUp$47740|
  007bc		 |$LN9@UfnPdd_Con|

; 551  :     }
; 552  : 
; 553  :     /* Allocate PDD object */
; 554  :     if (NULL == ((*ppPddContext) = (USBFNPDDCONTEXT *)
; 555  :                  LocalAlloc(LPTR, sizeof(USBFNPDDCONTEXT))))

  007bc	e3a01c06	 mov         r1, #6, 24
  007c0	e3811068	 orr         r1, r1, #0x68
  007c4	e3a00040	 mov         r0, #0x40
  007c8	eb000000	 bl          LocalAlloc
  007cc	e58d0040	 str         r0, [sp, #0x40]
  007d0	e59d2040	 ldr         r2, [sp, #0x40]
  007d4	e59d30ac	 ldr         r3, [sp, #0xAC]
  007d8	e5832000	 str         r2, [r3]
  007dc	e59d30ac	 ldr         r3, [sp, #0xAC]
  007e0	e5933000	 ldr         r3, [r3]
  007e4	e3530000	 cmp         r3, #0
  007e8	1a000007	 bne         |$LN8@UfnPdd_Con|

; 556  :     {
; 557  :         ERRORMSG (TRUE, (TEXT("ERROR: Unable to Alloc PDD Object!!\r\n")));

  007ec	e3a02c02	 mov         r2, #2, 24
  007f0	e382202d	 orr         r2, r2, #0x2D
  007f4	e59f16a0	 ldr         r1, [pc, #0x6A0]
  007f8	e59f0698	 ldr         r0, [pc, #0x698]
  007fc	eb000000	 bl          NKDbgPrintfW
  00800	e59f06c4	 ldr         r0, [pc, #0x6C4]
  00804	eb000000	 bl          NKDbgPrintfW

; 558  :         goto cleanUp;

  00808	ea000182	 b           |$cleanUp$47740|
  0080c		 |$LN8@UfnPdd_Con|

; 559  :     }
; 560  : 
; 561  :     /* Initialize critical section */
; 562  :     InitializeCriticalSection(&(*ppPddContext)->epCS);

  0080c	e59d30ac	 ldr         r3, [sp, #0xAC]
  00810	e5933000	 ldr         r3, [r3]
  00814	e2830e27	 add         r0, r3, #0x27, 28
  00818	eb000000	 bl          InitializeCriticalSection

; 563  :     (*ppPddContext)->devState = 0;

  0081c	e59d30ac	 ldr         r3, [sp, #0xAC]
  00820	e5933000	 ldr         r3, [r3]
  00824	e2832f96	 add         r2, r3, #0x96, 30
  00828	e3a03000	 mov         r3, #0
  0082c	e5823000	 str         r3, [r2]

; 564  : 
; 565  :     PRINTMSG(ZONE_PDD_INIT, (
; 566  :                  L"UfnPdd_ContextSetup: Reading Registry Information\r\n"));

  00830	e59f3654	 ldr         r3, [pc, #0x654]
  00834	e5933440	 ldr         r3, [r3, #0x440]
  00838	e3130c01	 tst         r3, #1, 24
  0083c	0a00000f	 beq         |$LN22@UfnPdd_Con|
  00840	e59f3644	 ldr         r3, [pc, #0x644]
  00844	e5933440	 ldr         r3, [r3, #0x440]
  00848	e3130801	 tst         r3, #1, 16
  0084c	0a000004	 beq         |$LN20@UfnPdd_Con|
  00850	e59f0670	 ldr         r0, [pc, #0x670]
  00854	eb000000	 bl          CeLogMsg
  00858	e3a03001	 mov         r3, #1
  0085c	e58d3044	 str         r3, [sp, #0x44]
  00860	ea000003	 b           |$LN21@UfnPdd_Con|
  00864		 |$LN20@UfnPdd_Con|
  00864	e59f065c	 ldr         r0, [pc, #0x65C]
  00868	eb000000	 bl          NKDbgPrintfW
  0086c	e3a03000	 mov         r3, #0
  00870	e58d3044	 str         r3, [sp, #0x44]
  00874		 |$LN21@UfnPdd_Con|
  00874	e3a03001	 mov         r3, #1
  00878	e58d3048	 str         r3, [sp, #0x48]
  0087c	ea000001	 b           |$LN23@UfnPdd_Con|
  00880		 |$LN22@UfnPdd_Con|
  00880	e3a03000	 mov         r3, #0
  00884	e58d3048	 str         r3, [sp, #0x48]
  00888		 |$LN23@UfnPdd_Con|

; 567  : 
; 568  :     /* Read device parameters */
; 569  :     if (GetDeviceRegistryParams (szActiveKey, *ppPddContext,
; 570  :                                  dimof(f_DeviceRegParams), f_DeviceRegParams) != ERROR_SUCCESS)

  00888	e59f3634	 ldr         r3, [pc, #0x634]
  0088c	e3a02007	 mov         r2, #7
  00890	e59d10ac	 ldr         r1, [sp, #0xAC]
  00894	e5911000	 ldr         r1, [r1]
  00898	e59d00a8	 ldr         r0, [sp, #0xA8]
  0089c	eb000000	 bl          GetDeviceRegistryParams
  008a0	e58d004c	 str         r0, [sp, #0x4C]
  008a4	e59d304c	 ldr         r3, [sp, #0x4C]
  008a8	e3530000	 cmp         r3, #0
  008ac	0a000007	 beq         |$LN7@UfnPdd_Con|

; 571  :     {
; 572  :         ERRORMSG(TRUE, (L"ERROR: Failed read registry parameters\r\n"
; 573  :                      ));

  008b0	e3a02c02	 mov         r2, #2, 24
  008b4	e382203d	 orr         r2, r2, #0x3D
  008b8	e59f15dc	 ldr         r1, [pc, #0x5DC]
  008bc	e59f05d4	 ldr         r0, [pc, #0x5D4]
  008c0	eb000000	 bl          NKDbgPrintfW
  008c4	e59f05f4	 ldr         r0, [pc, #0x5F4]
  008c8	eb000000	 bl          NKDbgPrintfW

; 574  :         goto cleanUp;

  008cc	ea000151	 b           |$cleanUp$47740|
  008d0		 |$LN7@UfnPdd_Con|

; 575  :     }
; 576  : 
; 577  :     /* Open activity event */
; 578  :     if (wcslen((*ppPddContext)->szActivityEvent) > 0) {

  008d0	e59d30ac	 ldr         r3, [sp, #0xAC]
  008d4	e5933000	 ldr         r3, [r3]
  008d8	e283004c	 add         r0, r3, #0x4C
  008dc	eb000000	 bl          wcslen
  008e0	e58d0050	 str         r0, [sp, #0x50]
  008e4	e59d3050	 ldr         r3, [sp, #0x50]
  008e8	e3530000	 cmp         r3, #0
  008ec	9a00000c	 bls         |$LN6@UfnPdd_Con|

; 579  :         (*ppPddContext)->hActivityEvent =
; 580  :             OpenEvent(EVENT_ALL_ACCESS, FALSE, (*ppPddContext)->szActivityEvent);

  008f0	e59d30ac	 ldr         r3, [sp, #0xAC]
  008f4	e5933000	 ldr         r3, [r3]
  008f8	e283204c	 add         r2, r3, #0x4C
  008fc	e3a01000	 mov         r1, #0
  00900	e3a0081f	 mov         r0, #0x1F, 16
  00904	e3800003	 orr         r0, r0, #3
  00908	eb000000	 bl          OpenEventW
  0090c	e58d0054	 str         r0, [sp, #0x54]
  00910	e59d30ac	 ldr         r3, [sp, #0xAC]
  00914	e5933000	 ldr         r3, [r3]
  00918	e2832f95	 add         r2, r3, #0x95, 30
  0091c	e59d3054	 ldr         r3, [sp, #0x54]
  00920	e5823000	 str         r3, [r2]
  00924		 |$LN6@UfnPdd_Con|

; 581  :     }
; 582  : 
; 583  :     /* Start powered up */
; 584  :     (*ppPddContext)->currentPowerState = D0;

  00924	e59d30ac	 ldr         r3, [sp, #0xAC]
  00928	e5933000	 ldr         r3, [r3]
  0092c	e2832048	 add         r2, r3, #0x48
  00930	e3a03000	 mov         r3, #0
  00934	e5823000	 str         r3, [r2]

; 585  :     (*ppPddContext)->parentBus = CreateBusAccessHandle(szActiveKey);

  00938	e59d00a8	 ldr         r0, [sp, #0xA8]
  0093c	eb000000	 bl          CreateBusAccessHandle
  00940	e58d0058	 str         r0, [sp, #0x58]
  00944	e59d30ac	 ldr         r3, [sp, #0xAC]
  00948	e5933000	 ldr         r3, [r3]
  0094c	e2832018	 add         r2, r3, #0x18
  00950	e59d3058	 ldr         r3, [sp, #0x58]
  00954	e5823000	 str         r3, [r2]

; 586  : 
; 587  :     if ( (*ppPddContext)->parentBus == NULL )

  00958	e59d30ac	 ldr         r3, [sp, #0xAC]
  0095c	e5933000	 ldr         r3, [r3]
  00960	e2833018	 add         r3, r3, #0x18
  00964	e5933000	 ldr         r3, [r3]
  00968	e3530000	 cmp         r3, #0
  0096c	1a000007	 bne         |$LN5@UfnPdd_Con|

; 588  :     {
; 589  :         ERRORMSG (TRUE, (L"ERROR: Failed open bus driver\r\n"
; 590  :                       ));

  00970	e3a02c02	 mov         r2, #2, 24
  00974	e382204e	 orr         r2, r2, #0x4E
  00978	e59f151c	 ldr         r1, [pc, #0x51C]
  0097c	e59f0514	 ldr         r0, [pc, #0x514]
  00980	eb000000	 bl          NKDbgPrintfW
  00984	e59f0530	 ldr         r0, [pc, #0x530]
  00988	eb000000	 bl          NKDbgPrintfW

; 591  :         goto cleanUp;

  0098c	ea000121	 b           |$cleanUp$47740|
  00990		 |$LN5@UfnPdd_Con|

; 592  :     }
; 593  : 
; 594  :     PRINTMSG(ZONE_PDD_INIT, (
; 595  :                  L"UfnPdd_ContextSetup: Mapping Region 0x%08x Size 0x%x\r\n",
; 596  :                  AM3517_USB0_REGS_PA, sizeof(CSL_UsbRegs)));

  00990	e59f34f4	 ldr         r3, [pc, #0x4F4]
  00994	e5933440	 ldr         r3, [r3, #0x440]
  00998	e3130c01	 tst         r3, #1, 24
  0099c	0a000017	 beq         |$LN26@UfnPdd_Con|
  009a0	e59f34e4	 ldr         r3, [pc, #0x4E4]
  009a4	e5933440	 ldr         r3, [r3, #0x440]
  009a8	e3130801	 tst         r3, #1, 16
  009ac	0a000008	 beq         |$LN24@UfnPdd_Con|
  009b0	e3a02b02	 mov         r2, #2, 22
  009b4	e3822018	 orr         r2, r2, #0x18
  009b8	e3a01317	 mov         r1, #0x17, 6
  009bc	e3811701	 orr         r1, r1, #1, 14
  009c0	e59f04e8	 ldr         r0, [pc, #0x4E8]
  009c4	eb000000	 bl          CeLogMsg
  009c8	e3a03001	 mov         r3, #1
  009cc	e58d305c	 str         r3, [sp, #0x5C]
  009d0	ea000007	 b           |$LN25@UfnPdd_Con|
  009d4		 |$LN24@UfnPdd_Con|
  009d4	e3a02b02	 mov         r2, #2, 22
  009d8	e3822018	 orr         r2, r2, #0x18
  009dc	e3a01317	 mov         r1, #0x17, 6
  009e0	e3811701	 orr         r1, r1, #1, 14
  009e4	e59f04c4	 ldr         r0, [pc, #0x4C4]
  009e8	eb000000	 bl          NKDbgPrintfW
  009ec	e3a03000	 mov         r3, #0
  009f0	e58d305c	 str         r3, [sp, #0x5C]
  009f4		 |$LN25@UfnPdd_Con|
  009f4	e3a03001	 mov         r3, #1
  009f8	e58d3060	 str         r3, [sp, #0x60]
  009fc	ea000001	 b           |$LN27@UfnPdd_Con|
  00a00		 |$LN26@UfnPdd_Con|
  00a00	e3a03000	 mov         r3, #0
  00a04	e58d3060	 str         r3, [sp, #0x60]
  00a08		 |$LN27@UfnPdd_Con|

; 597  : 
; 598  :     /* Map the USBD registers */
; 599  :     pa.QuadPart = AM3517_USB0_REGS_PA;

  00a08	e3a03317	 mov         r3, #0x17, 6
  00a0c	e3833701	 orr         r3, r3, #1, 14
  00a10	e58d3010	 str         r3, [sp, #0x10]
  00a14	e3a03000	 mov         r3, #0
  00a18	e58d3014	 str         r3, [sp, #0x14]

; 600  :     pUsbdRegs = (CSL_UsbRegs *) MmMapIoSpace(pa, sizeof(CSL_UsbRegs), FALSE);

  00a1c	e3a03000	 mov         r3, #0
  00a20	e3a02b02	 mov         r2, #2, 22
  00a24	e3822018	 orr         r2, r2, #0x18
  00a28	e59d0010	 ldr         r0, [sp, #0x10]
  00a2c	e59d1014	 ldr         r1, [sp, #0x14]
  00a30	eb000000	 bl          MmMapIoSpace
  00a34	e58d0064	 str         r0, [sp, #0x64]
  00a38	e59d3064	 ldr         r3, [sp, #0x64]
  00a3c	e58d300c	 str         r3, [sp, #0xC]

; 601  :     if ( pUsbdRegs == NULL )

  00a40	e59d300c	 ldr         r3, [sp, #0xC]
  00a44	e3530000	 cmp         r3, #0
  00a48	1a000007	 bne         |$LN4@UfnPdd_Con|

; 602  :     {
; 603  :         ERRORMSG (TRUE, (L"ERROR: Controller registers mapping failed\r\n"));

  00a4c	e3a02c02	 mov         r2, #2, 24
  00a50	e382205b	 orr         r2, r2, #0x5B
  00a54	e59f1440	 ldr         r1, [pc, #0x440]
  00a58	e59f0438	 ldr         r0, [pc, #0x438]
  00a5c	eb000000	 bl          NKDbgPrintfW
  00a60	e59f0450	 ldr         r0, [pc, #0x450]
  00a64	eb000000	 bl          NKDbgPrintfW

; 604  :         goto cleanUp;

  00a68	ea0000ea	 b           |$cleanUp$47740|
  00a6c		 |$LN4@UfnPdd_Con|

; 605  :     }
; 606  :     (*ppPddContext)->pUsbdRegs = pUsbdRegs;

  00a6c	e59d30ac	 ldr         r3, [sp, #0xAC]
  00a70	e5933000	 ldr         r3, [r3]
  00a74	e283201c	 add         r2, r3, #0x1C
  00a78	e59d300c	 ldr         r3, [sp, #0xC]
  00a7c	e5823000	 str         r3, [r2]

; 607  : 
; 608  :     PRINTMSG(ZONE_PDD_INIT, (
; 609  :                  L"UfnPdd_ContextSetup: Mapping Region 0x%08x Size 0x%x\r\n",
; 610  :                  AM3517_CPPI_REGS_PA, sizeof (CSL_CppiRegs)));

  00a80	e59f3404	 ldr         r3, [pc, #0x404]
  00a84	e5933440	 ldr         r3, [r3, #0x440]
  00a88	e3130c01	 tst         r3, #1, 24
  00a8c	0a000015	 beq         |$LN30@UfnPdd_Con|
  00a90	e59f33f4	 ldr         r3, [pc, #0x3F4]
  00a94	e5933440	 ldr         r3, [r3, #0x440]
  00a98	e3130801	 tst         r3, #1, 16
  00a9c	0a000007	 beq         |$LN28@UfnPdd_Con|
  00aa0	e3a02c5e	 mov         r2, #0x5E, 24
  00aa4	e3a01317	 mov         r1, #0x17, 6
  00aa8	e3811a41	 orr         r1, r1, #0x41, 20
  00aac	e59f03fc	 ldr         r0, [pc, #0x3FC]
  00ab0	eb000000	 bl          CeLogMsg
  00ab4	e3a03001	 mov         r3, #1
  00ab8	e58d3068	 str         r3, [sp, #0x68]
  00abc	ea000006	 b           |$LN29@UfnPdd_Con|
  00ac0		 |$LN28@UfnPdd_Con|
  00ac0	e3a02c5e	 mov         r2, #0x5E, 24
  00ac4	e3a01317	 mov         r1, #0x17, 6
  00ac8	e3811a41	 orr         r1, r1, #0x41, 20
  00acc	e59f03dc	 ldr         r0, [pc, #0x3DC]
  00ad0	eb000000	 bl          NKDbgPrintfW
  00ad4	e3a03000	 mov         r3, #0
  00ad8	e58d3068	 str         r3, [sp, #0x68]
  00adc		 |$LN29@UfnPdd_Con|
  00adc	e3a03001	 mov         r3, #1
  00ae0	e58d306c	 str         r3, [sp, #0x6C]
  00ae4	ea000001	 b           |$LN31@UfnPdd_Con|
  00ae8		 |$LN30@UfnPdd_Con|
  00ae8	e3a03000	 mov         r3, #0
  00aec	e58d306c	 str         r3, [sp, #0x6C]
  00af0		 |$LN31@UfnPdd_Con|

; 611  : 
; 612  :     /* Map the CPPI registers */
; 613  :     pa.QuadPart = AM3517_CPPI_REGS_PA;

  00af0	e3a03317	 mov         r3, #0x17, 6
  00af4	e3833a41	 orr         r3, r3, #0x41, 20
  00af8	e58d3010	 str         r3, [sp, #0x10]
  00afc	e3a03000	 mov         r3, #0
  00b00	e58d3014	 str         r3, [sp, #0x14]

; 614  :     pCppiRegs = (CSL_CppiRegs *) MmMapIoSpace(pa, sizeof(CSL_CppiRegs), FALSE);

  00b04	e3a03000	 mov         r3, #0
  00b08	e3a02c5e	 mov         r2, #0x5E, 24
  00b0c	e59d0010	 ldr         r0, [sp, #0x10]
  00b10	e59d1014	 ldr         r1, [sp, #0x14]
  00b14	eb000000	 bl          MmMapIoSpace
  00b18	e58d0070	 str         r0, [sp, #0x70]
  00b1c	e59d3070	 ldr         r3, [sp, #0x70]
  00b20	e58d3008	 str         r3, [sp, #8]

; 615  :     if ( pCppiRegs == NULL )

  00b24	e59d3008	 ldr         r3, [sp, #8]
  00b28	e3530000	 cmp         r3, #0
  00b2c	1a000007	 bne         |$LN3@UfnPdd_Con|

; 616  :     {
; 617  :         ERRORMSG (TRUE, (L"ERROR: CPPI registers mapping failed\r\n"));

  00b30	e3a02c02	 mov         r2, #2, 24
  00b34	e3822069	 orr         r2, r2, #0x69
  00b38	e59f135c	 ldr         r1, [pc, #0x35C]
  00b3c	e59f0354	 ldr         r0, [pc, #0x354]
  00b40	eb000000	 bl          NKDbgPrintfW
  00b44	e59f0368	 ldr         r0, [pc, #0x368]
  00b48	eb000000	 bl          NKDbgPrintfW

; 618  :         goto cleanUp;

  00b4c	ea0000b1	 b           |$cleanUp$47740|
  00b50		 |$LN3@UfnPdd_Con|

; 619  :     }
; 620  :     (*ppPddContext)->pCppiRegs = pCppiRegs;

  00b50	e59d30ac	 ldr         r3, [sp, #0xAC]
  00b54	e5933000	 ldr         r3, [r3]
  00b58	e2832020	 add         r2, r3, #0x20
  00b5c	e59d3008	 ldr         r3, [sp, #8]
  00b60	e5823000	 str         r3, [r2]

; 621  : 
; 622  :     PRINTMSG(ZONE_PDD_INIT, (
; 623  :                  L"UfnPdd_ContextSetup: Mapping Region 0x%08x Size 0x%x\r\n",
; 624  :                  OMAP_SYSC_GENERAL_REGS_PA, sizeof (OMAP_SYSC_GENERAL_REGS)));

  00b64	e59f3320	 ldr         r3, [pc, #0x320]
  00b68	e5933440	 ldr         r3, [r3, #0x440]
  00b6c	e3130c01	 tst         r3, #1, 24
  00b70	0a000013	 beq         |$LN34@UfnPdd_Con|
  00b74	e59f3310	 ldr         r3, [pc, #0x310]
  00b78	e5933440	 ldr         r3, [r3, #0x440]
  00b7c	e3130801	 tst         r3, #1, 16
  00b80	0a000006	 beq         |$LN32@UfnPdd_Con|
  00b84	e3a02ea6	 mov         r2, #0xA6, 28
  00b88	e59f131c	 ldr         r1, [pc, #0x31C]
  00b8c	e59f031c	 ldr         r0, [pc, #0x31C]
  00b90	eb000000	 bl          CeLogMsg
  00b94	e3a03001	 mov         r3, #1
  00b98	e58d3074	 str         r3, [sp, #0x74]
  00b9c	ea000005	 b           |$LN33@UfnPdd_Con|
  00ba0		 |$LN32@UfnPdd_Con|
  00ba0	e3a02ea6	 mov         r2, #0xA6, 28
  00ba4	e59f1300	 ldr         r1, [pc, #0x300]
  00ba8	e59f0300	 ldr         r0, [pc, #0x300]
  00bac	eb000000	 bl          NKDbgPrintfW
  00bb0	e3a03000	 mov         r3, #0
  00bb4	e58d3074	 str         r3, [sp, #0x74]
  00bb8		 |$LN33@UfnPdd_Con|
  00bb8	e3a03001	 mov         r3, #1
  00bbc	e58d3078	 str         r3, [sp, #0x78]
  00bc0	ea000001	 b           |$LN35@UfnPdd_Con|
  00bc4		 |$LN34@UfnPdd_Con|
  00bc4	e3a03000	 mov         r3, #0
  00bc8	e58d3078	 str         r3, [sp, #0x78]
  00bcc		 |$LN35@UfnPdd_Con|

; 625  : 
; 626  :     /* Map the sys config registers */
; 627  :     pa.QuadPart = (LONGLONG)OMAP_SYSC_GENERAL_REGS_PA;

  00bcc	e59f32d8	 ldr         r3, [pc, #0x2D8]
  00bd0	e58d3010	 str         r3, [sp, #0x10]
  00bd4	e3a03000	 mov         r3, #0
  00bd8	e58d3014	 str         r3, [sp, #0x14]

; 628  :     (*ppPddContext)->pSysConfRegs = (OMAP_SYSC_GENERAL_REGS*) MmMapIoSpace(pa,
; 629  :                                                                 sizeof (OMAP_SYSC_GENERAL_REGS),
; 630  :                                                                 FALSE);

  00bdc	e3a03000	 mov         r3, #0
  00be0	e3a02ea6	 mov         r2, #0xA6, 28
  00be4	e59d0010	 ldr         r0, [sp, #0x10]
  00be8	e59d1014	 ldr         r1, [sp, #0x14]
  00bec	eb000000	 bl          MmMapIoSpace
  00bf0	e58d007c	 str         r0, [sp, #0x7C]
  00bf4	e59d30ac	 ldr         r3, [sp, #0xAC]
  00bf8	e5933000	 ldr         r3, [r3]
  00bfc	e2832028	 add         r2, r3, #0x28
  00c00	e59d307c	 ldr         r3, [sp, #0x7C]
  00c04	e5823000	 str         r3, [r2]

; 631  :     if ( (*ppPddContext)->pSysConfRegs == NULL )

  00c08	e59d30ac	 ldr         r3, [sp, #0xAC]
  00c0c	e5933000	 ldr         r3, [r3]
  00c10	e2833028	 add         r3, r3, #0x28
  00c14	e5933000	 ldr         r3, [r3]
  00c18	e3530000	 cmp         r3, #0
  00c1c	1a000007	 bne         |$LN2@UfnPdd_Con|

; 632  :     {
; 633  :         ERRORMSG (TRUE, (L"ERROR: SYSCONF registers mapping failed\r\n"
; 634  :                       ));

  00c20	e3a02c02	 mov         r2, #2, 24
  00c24	e382207a	 orr         r2, r2, #0x7A
  00c28	e59f126c	 ldr         r1, [pc, #0x26C]
  00c2c	e59f0264	 ldr         r0, [pc, #0x264]
  00c30	eb000000	 bl          NKDbgPrintfW
  00c34	e59f026c	 ldr         r0, [pc, #0x26C]
  00c38	eb000000	 bl          NKDbgPrintfW

; 635  :         goto cleanUp;

  00c3c	ea000075	 b           |$cleanUp$47740|
  00c40		 |$LN2@UfnPdd_Con|

; 636  :     }
; 637  : 
; 638  :     PRINTMSG(ZONE_PDD_INIT, (
; 639  :                  L"UfnPdd_ContextSetup: Allocated USB 0x%08x SYS_CONF 0x%08x\r\n",
; 640  :                  (*ppPddContext)->pUsbdRegs, (*ppPddContext)->pSysConfRegs));

  00c40	e59f3244	 ldr         r3, [pc, #0x244]
  00c44	e5933440	 ldr         r3, [r3, #0x440]
  00c48	e3130c01	 tst         r3, #1, 24
  00c4c	0a00001f	 beq         |$LN38@UfnPdd_Con|
  00c50	e59f3234	 ldr         r3, [pc, #0x234]
  00c54	e5933440	 ldr         r3, [r3, #0x440]
  00c58	e3130801	 tst         r3, #1, 16
  00c5c	0a00000c	 beq         |$LN36@UfnPdd_Con|
  00c60	e59d30ac	 ldr         r3, [sp, #0xAC]
  00c64	e5933000	 ldr         r3, [r3]
  00c68	e2833028	 add         r3, r3, #0x28
  00c6c	e5932000	 ldr         r2, [r3]
  00c70	e59d30ac	 ldr         r3, [sp, #0xAC]
  00c74	e5933000	 ldr         r3, [r3]
  00c78	e283301c	 add         r3, r3, #0x1C
  00c7c	e5931000	 ldr         r1, [r3]
  00c80	e59f021c	 ldr         r0, [pc, #0x21C]
  00c84	eb000000	 bl          CeLogMsg
  00c88	e3a03001	 mov         r3, #1
  00c8c	e58d3080	 str         r3, [sp, #0x80]
  00c90	ea00000b	 b           |$LN37@UfnPdd_Con|
  00c94		 |$LN36@UfnPdd_Con|
  00c94	e59d30ac	 ldr         r3, [sp, #0xAC]
  00c98	e5933000	 ldr         r3, [r3]
  00c9c	e2833028	 add         r3, r3, #0x28
  00ca0	e5932000	 ldr         r2, [r3]
  00ca4	e59d30ac	 ldr         r3, [sp, #0xAC]
  00ca8	e5933000	 ldr         r3, [r3]
  00cac	e283301c	 add         r3, r3, #0x1C
  00cb0	e5931000	 ldr         r1, [r3]
  00cb4	e59f01e8	 ldr         r0, [pc, #0x1E8]
  00cb8	eb000000	 bl          NKDbgPrintfW
  00cbc	e3a03000	 mov         r3, #0
  00cc0	e58d3080	 str         r3, [sp, #0x80]
  00cc4		 |$LN37@UfnPdd_Con|
  00cc4	e3a03001	 mov         r3, #1
  00cc8	e58d3084	 str         r3, [sp, #0x84]
  00ccc	ea000001	 b           |$LN39@UfnPdd_Con|
  00cd0		 |$LN38@UfnPdd_Con|
  00cd0	e3a03000	 mov         r3, #0
  00cd4	e58d3084	 str         r3, [sp, #0x84]
  00cd8		 |$LN39@UfnPdd_Con|

; 641  : 
; 642  :     /* Perform the USB Core Initialization */
; 643  :     USBPeripheralInit(*ppPddContext) ;

  00cd8	e59d30ac	 ldr         r3, [sp, #0xAC]
  00cdc	e5930000	 ldr         r0, [r3]
  00ce0	eb000000	 bl          USBPeripheralInit

; 644  : 
; 645  :     (*ppPddContext)->resetComplete  = FALSE;

  00ce4	e59d30ac	 ldr         r3, [sp, #0xAC]
  00ce8	e5933000	 ldr         r3, [r3]
  00cec	e2832038	 add         r2, r3, #0x38
  00cf0	e3a03000	 mov         r3, #0
  00cf4	e5823000	 str         r3, [r2]

; 646  : 
; 647  :     /* Create start event */
; 648  :     (*ppPddContext)->hStartEvent = CreateEvent(NULL, FALSE, FALSE, NULL);

  00cf8	e3a03000	 mov         r3, #0
  00cfc	e3a02000	 mov         r2, #0
  00d00	e3a01000	 mov         r1, #0
  00d04	e3a00000	 mov         r0, #0
  00d08	eb000000	 bl          CreateEventW
  00d0c	e58d0088	 str         r0, [sp, #0x88]
  00d10	e59d30ac	 ldr         r3, [sp, #0xAC]
  00d14	e5933000	 ldr         r3, [r3]
  00d18	e2832f9b	 add         r2, r3, #0x9B, 30
  00d1c	e59d3088	 ldr         r3, [sp, #0x88]
  00d20	e5823000	 str         r3, [r2]

; 649  : 
; 650  : 	usbIrqVal = (*ppPddContext)->irq;

  00d24	e59d30ac	 ldr         r3, [sp, #0xAC]
  00d28	e5933000	 ldr         r3, [r3]
  00d2c	e5933000	 ldr         r3, [r3]
  00d30	e58d3018	 str         r3, [sp, #0x18]

; 651  : 
; 652  :     if ( !KernelIoControl (IOCTL_HAL_REQUEST_SYSINTR,  &usbIrqVal,
; 653  :                            sizeof(DWORD), &(*ppPddContext)->sysIntr,
; 654  :                            sizeof((*ppPddContext)->sysIntr), NULL))

  00d34	e3a03000	 mov         r3, #0
  00d38	e58d3004	 str         r3, [sp, #4]
  00d3c	e3a03004	 mov         r3, #4
  00d40	e58d3000	 str         r3, [sp]
  00d44	e59d30ac	 ldr         r3, [sp, #0xAC]
  00d48	e5933000	 ldr         r3, [r3]
  00d4c	e283302c	 add         r3, r3, #0x2C
  00d50	e3a02004	 mov         r2, #4
  00d54	e28d1018	 add         r1, sp, #0x18
  00d58	e59f0140	 ldr         r0, [pc, #0x140]
  00d5c	eb000000	 bl          KernelIoControl
  00d60	e58d008c	 str         r0, [sp, #0x8C]
  00d64	e59d308c	 ldr         r3, [sp, #0x8C]
  00d68	e3530000	 cmp         r3, #0
  00d6c	1a000007	 bne         |$LN1@UfnPdd_Con|

; 655  :     {
; 656  :         ERRORMSG (TRUE, (L"ERROR: IOCTL_HAL_REQUEST_SYSTINR call failed\r\n"
; 657  :                       ));

  00d70	e3a02c02	 mov         r2, #2, 24
  00d74	e3822091	 orr         r2, r2, #0x91
  00d78	e59f111c	 ldr         r1, [pc, #0x11C]
  00d7c	e59f0114	 ldr         r0, [pc, #0x114]
  00d80	eb000000	 bl          NKDbgPrintfW
  00d84	e59f0108	 ldr         r0, [pc, #0x108]
  00d88	eb000000	 bl          NKDbgPrintfW

; 658  :         goto cleanUp;

  00d8c	ea000021	 b           |$cleanUp$47740|
  00d90		 |$LN1@UfnPdd_Con|

; 659  :     }
; 660  : 
; 661  :     PRINTMSG(ZONE_PDD_INIT, (
; 662  :                  L"UfnPdd_ContextSetup: USB Interrupt 0x%x SYSINTR 0x%x\r\n",
; 663  :                  usbIrqVal , (*ppPddContext)->sysIntr));

  00d90	e59f30f4	 ldr         r3, [pc, #0xF4]
  00d94	e5933440	 ldr         r3, [r3, #0x440]
  00d98	e3130c01	 tst         r3, #1, 24
  00d9c	0a000019	 beq         |$LN42@UfnPdd_Con|
  00da0	e59f30e4	 ldr         r3, [pc, #0xE4]
  00da4	e5933440	 ldr         r3, [r3, #0x440]
  00da8	e3130801	 tst         r3, #1, 16
  00dac	0a000009	 beq         |$LN40@UfnPdd_Con|
  00db0	e59d30ac	 ldr         r3, [sp, #0xAC]
  00db4	e5933000	 ldr         r3, [r3]
  00db8	e283302c	 add         r3, r3, #0x2C
  00dbc	e5932000	 ldr         r2, [r3]
  00dc0	e59d1018	 ldr         r1, [sp, #0x18]
  00dc4	e59f00c4	 ldr         r0, [pc, #0xC4]
  00dc8	eb000000	 bl          CeLogMsg
  00dcc	e3a03001	 mov         r3, #1
  00dd0	e58d3090	 str         r3, [sp, #0x90]
  00dd4	ea000008	 b           |$LN41@UfnPdd_Con|
  00dd8		 |$LN40@UfnPdd_Con|
  00dd8	e59d30ac	 ldr         r3, [sp, #0xAC]
  00ddc	e5933000	 ldr         r3, [r3]
  00de0	e283302c	 add         r3, r3, #0x2C
  00de4	e5932000	 ldr         r2, [r3]
  00de8	e59d1018	 ldr         r1, [sp, #0x18]
  00dec	e59f009c	 ldr         r0, [pc, #0x9C]
  00df0	eb000000	 bl          NKDbgPrintfW
  00df4	e3a03000	 mov         r3, #0
  00df8	e58d3090	 str         r3, [sp, #0x90]
  00dfc		 |$LN41@UfnPdd_Con|
  00dfc	e3a03001	 mov         r3, #1
  00e00	e58d3094	 str         r3, [sp, #0x94]
  00e04	ea000001	 b           |$LN43@UfnPdd_Con|
  00e08		 |$LN42@UfnPdd_Con|
  00e08	e3a03000	 mov         r3, #0
  00e0c	e58d3094	 str         r3, [sp, #0x94]
  00e10		 |$LN43@UfnPdd_Con|

; 664  : 
; 665  :     retValue = TRUE;

  00e10	e3a03001	 mov         r3, #1
  00e14	e58d301c	 str         r3, [sp, #0x1C]
  00e18		 |$cleanUp$47740|

; 666  : 
; 667  : cleanUp:
; 668  :     PRINTMSG(ZONE_FUNCTION, (L"-UfnPdd_ContextSetup\r\n"));

  00e18	e59f306c	 ldr         r3, [pc, #0x6C]
  00e1c	e5933440	 ldr         r3, [r3, #0x440]
  00e20	e3130a01	 tst         r3, #1, 20
  00e24	0a00000f	 beq         |$LN46@UfnPdd_Con|
  00e28	e59f305c	 ldr         r3, [pc, #0x5C]
  00e2c	e5933440	 ldr         r3, [r3, #0x440]
  00e30	e3130801	 tst         r3, #1, 16
  00e34	0a000004	 beq         |$LN44@UfnPdd_Con|
  00e38	e59f0048	 ldr         r0, [pc, #0x48]
  00e3c	eb000000	 bl          CeLogMsg
  00e40	e3a03001	 mov         r3, #1
  00e44	e58d3098	 str         r3, [sp, #0x98]
  00e48	ea000003	 b           |$LN45@UfnPdd_Con|
  00e4c		 |$LN44@UfnPdd_Con|
  00e4c	e59f0034	 ldr         r0, [pc, #0x34]
  00e50	eb000000	 bl          NKDbgPrintfW
  00e54	e3a03000	 mov         r3, #0
  00e58	e58d3098	 str         r3, [sp, #0x98]
  00e5c		 |$LN45@UfnPdd_Con|
  00e5c	e3a03001	 mov         r3, #1
  00e60	e58d309c	 str         r3, [sp, #0x9C]
  00e64	ea000001	 b           |$LN47@UfnPdd_Con|
  00e68		 |$LN46@UfnPdd_Con|
  00e68	e3a03000	 mov         r3, #0
  00e6c	e58d309c	 str         r3, [sp, #0x9C]
  00e70		 |$LN47@UfnPdd_Con|

; 669  : 
; 670  :     return retValue;

  00e70	e59d301c	 ldr         r3, [sp, #0x1C]
  00e74	e58d3028	 str         r3, [sp, #0x28]

; 671  : }

  00e78	e59d0028	 ldr         r0, [sp, #0x28]
  00e7c	e28dd0a0	 add         sp, sp, #0xA0
  00e80	e89d6000	 ldmia       sp, {sp, lr}
  00e84	e12fff1e	 bx          lr
  00e88		 |$LN51@UfnPdd_Con|
  00e88		 |$LN52@UfnPdd_Con|
  00e88	00000000	 DCD         |??_C@_1CO@KENNPJL@?$AA?9?$AAU?$AAf?$AAn?$AAP?$AAd?$AAd?$AA_?$AAC?$AAo?$AAn?$AAt?$AAe?$AAx?$AAt?$AAS?$AAe?$AAt?$AAu?$AAp?$AA?$AN?$AA?6?$AA?$AA@|
  00e8c		 |$LN53@UfnPdd_Con|
  00e8c	00000000	 DCD         |dpCurSettings|
  00e90		 |$LN54@UfnPdd_Con|
  00e90	00000000	 DCD         |??_C@_1GO@HIIBBKPB@?$AAU?$AAf?$AAn?$AAP?$AAd?$AAd?$AA_?$AAC?$AAo?$AAn?$AAt?$AAe?$AAx?$AAt?$AAS?$AAe?$AAt?$AAu?$AAp?$AA?3?$AA?5?$AAU?$AAS?$AAB?$AA?5?$AAI?$AAn?$AAt?$AAe?$AAr?$AAr?$AAu@|
  00e94		 |$LN55@UfnPdd_Con|
  00e94	00000000	 DCD         |??_C@_1FO@IGBBBJEC@?$AAE?$AAR?$AAR?$AAO?$AAR?$AA?3?$AA?5?$AAI?$AAO?$AAC?$AAT?$AAL?$AA_?$AAH?$AAA?$AAL?$AA_?$AAR?$AAE?$AAQ?$AAU?$AAE?$AAS?$AAT?$AA_?$AAS?$AAY?$AAS?$AAT?$AAI?$AAN?$AAR@|
  00e98		 |$LN56@UfnPdd_Con|
  00e98	00000000	 DCD         |??_C@_1CI@OHCJFJPM@?$AAE?$AAR?$AAR?$AAO?$AAR?$AA?3?$AA?5?$AA?$CF?$AAs?$AA?5?$AAl?$AAi?$AAn?$AAe?$AA?5?$AA?$CF?$AAd?$AA?3?$AA?5?$AA?$AA@|
  00e9c		 |$LN57@UfnPdd_Con|
  00e9c	00000000	 DCD         |??_C@_1JO@JAGHJEHH@?$AAC?$AA?3?$AA?2?$AAW?$AAI?$AAN?$AAC?$AAE?$AA6?$AA0?$AA0?$AA?2?$AAP?$AAL?$AAA?$AAT?$AAF?$AAO?$AAR?$AAM?$AA?2?$AAC?$AAO?$AAM?$AAM?$AAO?$AAN?$AA?2?$AAS?$AAR?$AAC?$AA?2@|
  00ea0		 |$LN58@UfnPdd_Con|
  00ea0	01010098	 DCD         0x1010098
  00ea4		 |$LN59@UfnPdd_Con|
  00ea4	00000000	 DCD         |??_C@_1HI@BHBLAGEJ@?$AAU?$AAf?$AAn?$AAP?$AAd?$AAd?$AA_?$AAC?$AAo?$AAn?$AAt?$AAe?$AAx?$AAt?$AAS?$AAe?$AAt?$AAu?$AAp?$AA?3?$AA?5?$AAA?$AAl?$AAl?$AAo?$AAc?$AAa?$AAt?$AAe?$AAd?$AA?5?$AAU@|
  00ea8		 |$LN60@UfnPdd_Con|
  00ea8	00000000	 DCD         |??_C@_1FE@FCLHPLHL@?$AAE?$AAR?$AAR?$AAO?$AAR?$AA?3?$AA?5?$AAS?$AAY?$AAS?$AAC?$AAO?$AAN?$AAF?$AA?5?$AAr?$AAe?$AAg?$AAi?$AAs?$AAt?$AAe?$AAr?$AAs?$AA?5?$AAm?$AAa?$AAp?$AAp?$AAi?$AAn?$AAg@|
  00eac		 |$LN61@UfnPdd_Con|
  00eac	48002270	 DCD         0x48002270
  00eb0		 |$LN62@UfnPdd_Con|
  00eb0	00000000	 DCD         |??_C@_1GO@PGIBGLEH@?$AAU?$AAf?$AAn?$AAP?$AAd?$AAd?$AA_?$AAC?$AAo?$AAn?$AAt?$AAe?$AAx?$AAt?$AAS?$AAe?$AAt?$AAu?$AAp?$AA?3?$AA?5?$AAM?$AAa?$AAp?$AAp?$AAi?$AAn?$AAg?$AA?5?$AAR?$AAe?$AAg@|
  00eb4		 |$LN63@UfnPdd_Con|
  00eb4	00000000	 DCD         |??_C@_1EO@FDOPPAGC@?$AAE?$AAR?$AAR?$AAO?$AAR?$AA?3?$AA?5?$AAC?$AAP?$AAP?$AAI?$AA?5?$AAr?$AAe?$AAg?$AAi?$AAs?$AAt?$AAe?$AAr?$AAs?$AA?5?$AAm?$AAa?$AAp?$AAp?$AAi?$AAn?$AAg?$AA?5?$AAf?$AAa@|
  00eb8		 |$LN64@UfnPdd_Con|
  00eb8	00000000	 DCD         |??_C@_1FK@BAOADCDO@?$AAE?$AAR?$AAR?$AAO?$AAR?$AA?3?$AA?5?$AAC?$AAo?$AAn?$AAt?$AAr?$AAo?$AAl?$AAl?$AAe?$AAr?$AA?5?$AAr?$AAe?$AAg?$AAi?$AAs?$AAt?$AAe?$AAr?$AAs?$AA?5?$AAm?$AAa?$AAp?$AAp@|
  00ebc		 |$LN65@UfnPdd_Con|
  00ebc	00000000	 DCD         |??_C@_1EA@OEPLPLAG@?$AAE?$AAR?$AAR?$AAO?$AAR?$AA?3?$AA?5?$AAF?$AAa?$AAi?$AAl?$AAe?$AAd?$AA?5?$AAo?$AAp?$AAe?$AAn?$AA?5?$AAb?$AAu?$AAs?$AA?5?$AAd?$AAr?$AAi?$AAv?$AAe?$AAr?$AA?$AN?$AA?6?$AA?$AA@|
  00ec0		 |$LN66@UfnPdd_Con|
  00ec0	00000000	 DCD         |??_C@_1FC@JDGAACEB@?$AAE?$AAR?$AAR?$AAO?$AAR?$AA?3?$AA?5?$AAF?$AAa?$AAi?$AAl?$AAe?$AAd?$AA?5?$AAr?$AAe?$AAa?$AAd?$AA?5?$AAr?$AAe?$AAg?$AAi?$AAs?$AAt?$AAr?$AAy?$AA?5?$AAp?$AAa?$AAr?$AAa@|
  00ec4		 |$LN67@UfnPdd_Con|
  00ec4	00000000	 DCD         |f_DeviceRegParams|
  00ec8		 |$LN68@UfnPdd_Con|
  00ec8	00000000	 DCD         |??_C@_1GI@MKAFOGGK@?$AAU?$AAf?$AAn?$AAP?$AAd?$AAd?$AA_?$AAC?$AAo?$AAn?$AAt?$AAe?$AAx?$AAt?$AAS?$AAe?$AAt?$AAu?$AAp?$AA?3?$AA?5?$AAR?$AAe?$AAa?$AAd?$AAi?$AAn?$AAg?$AA?5?$AAR?$AAe?$AAg@|
  00ecc		 |$LN69@UfnPdd_Con|
  00ecc	00000000	 DCD         |??_C@_1EM@COOJIHLG@?$AAE?$AAR?$AAR?$AAO?$AAR?$AA?3?$AA?5?$AAU?$AAn?$AAa?$AAb?$AAl?$AAe?$AA?5?$AAt?$AAo?$AA?5?$AAA?$AAl?$AAl?$AAo?$AAc?$AA?5?$AAP?$AAD?$AAD?$AA?5?$AAO?$AAb?$AAj?$AAe?$AAc@|
  00ed0		 |$LN70@UfnPdd_Con|
  00ed0	00000000	 DCD         |??_C@_1HO@LBGLCJKI@?$AAU?$AAf?$AAn?$AAP?$AAd?$AAd?$AA_?$AAC?$AAo?$AAn?$AAt?$AAe?$AAx?$AAt?$AAS?$AAe?$AAt?$AAu?$AAp?$AA?3?$AA?5?$AAF?$AAa?$AAi?$AAl?$AAe?$AAd?$AA?5?$AAt?$AAo?$AA?5?$AAi@|
  00ed4		 |$LN71@UfnPdd_Con|
  00ed4	00000000	 DCD         |??_C@_1CO@NBIJIALA@?$AA?$CL?$AAU?$AAf?$AAn?$AAP?$AAd?$AAd?$AA_?$AAC?$AAo?$AAn?$AAt?$AAe?$AAx?$AAt?$AAS?$AAe?$AAt?$AAu?$AAp?$AA?$AN?$AA?6?$AA?$AA@|
  00ed8		 |$M49397|

			 ENDP  ; |UfnPdd_ContextSetup|

	EXPORT	|??_C@_1DE@OEBGPOAP@?$AA?9?$AAU?$AAf?$AAn?$AAP?$AAd?$AAd?$AA_?$AAC?$AAo?$AAn?$AAt?$AAe?$AAx?$AAt?$AAT?$AAe?$AAa?$AAr?$AAd?$AAo?$AAw?$AAn?$AA?$AN?$AA?6?$AA?$AA@| [ DATA ] ; `string'
	EXPORT	|SetEvent|
	EXPORT	|??_C@_1DE@ELMNPAGA@?$AA?$CL?$AAU?$AAf?$AAn?$AAP?$AAd?$AAd?$AA_?$AAC?$AAo?$AAn?$AAt?$AAe?$AAx?$AAt?$AAT?$AAe?$AAa?$AAr?$AAd?$AAo?$AAw?$AAn?$AA?$AN?$AA?6?$AA?$AA@| [ DATA ] ; `string'
	EXPORT	|UfnPdd_ContextTeardown|
	IMPORT	|LocalFree|
	IMPORT	|DeleteCriticalSection|
	IMPORT	|CloseBusAccessHandle|
	IMPORT	|MmUnmapIoSpace|
	IMPORT	|CloseHandle|
	IMPORT	|InterruptMask|

  00028			 AREA	 |.pdata|, PDATA
|$T49435| DCD	|$LN26@UfnPdd_Con@2|
	DCD	0x4000ba04

  00000			 AREA	 |.rdata|, DATA, READONLY
|??_C@_1DE@OEBGPOAP@?$AA?9?$AAU?$AAf?$AAn?$AAP?$AAd?$AAd?$AA_?$AAC?$AAo?$AAn?$AAt?$AAe?$AAx?$AAt?$AAT?$AAe?$AAa?$AAr?$AAd?$AAo?$AAw?$AAn?$AA?$AN?$AA?6?$AA?$AA@| DCB "-"
	DCB	0x0, "U", 0x0, "f", 0x0, "n", 0x0, "P", 0x0, "d", 0x0, "d"
	DCB	0x0, "_", 0x0, "C", 0x0, "o", 0x0, "n", 0x0, "t", 0x0, "e"
	DCB	0x0, "x", 0x0, "t", 0x0, "T", 0x0, "e", 0x0, "a", 0x0, "r"
	DCB	0x0, "d", 0x0, "o", 0x0, "w", 0x0, "n", 0x0, 0xd, 0x0, 0xa
	DCB	0x0, 0x0, 0x0				; `string'

  00000			 AREA	 |.rdata|, DATA, READONLY
|??_C@_1DE@ELMNPAGA@?$AA?$CL?$AAU?$AAf?$AAn?$AAP?$AAd?$AAd?$AA_?$AAC?$AAo?$AAn?$AAt?$AAe?$AAx?$AAt?$AAT?$AAe?$AAa?$AAr?$AAd?$AAo?$AAw?$AAn?$AA?$AN?$AA?6?$AA?$AA@| DCB "+"
	DCB	0x0, "U", 0x0, "f", 0x0, "n", 0x0, "P", 0x0, "d", 0x0, "d"
	DCB	0x0, "_", 0x0, "C", 0x0, "o", 0x0, "n", 0x0, "t", 0x0, "e"
	DCB	0x0, "x", 0x0, "t", 0x0, "T", 0x0, "e", 0x0, "a", 0x0, "r"
	DCB	0x0, "d", 0x0, "o", 0x0, "w", 0x0, "n", 0x0, 0xd, 0x0, 0xa
	DCB	0x0, 0x0, 0x0				; `string'
; Function compile flags: /Odtp

  00ed8			 AREA	 |.text|, CODE, ARM

  00ed8		 |UfnPdd_ContextTeardown| PROC

; 686  : {

  00ed8		 |$LN26@UfnPdd_Con@2|
  00ed8	e1a0c00d	 mov         r12, sp
  00edc	e92d0001	 stmdb       sp!, {r0}
  00ee0	e92d5000	 stmdb       sp!, {r12, lr}
  00ee4	e24dd024	 sub         sp, sp, #0x24
  00ee8		 |$M49432|

; 687  :     PRINTMSG(ZONE_FUNCTION, (L"+UfnPdd_ContextTeardown\r\n"));

  00ee8	e59f32c4	 ldr         r3, [pc, #0x2C4]
  00eec	e5933440	 ldr         r3, [r3, #0x440]
  00ef0	e3130a01	 tst         r3, #1, 20
  00ef4	0a00000f	 beq         |$LN18@UfnPdd_Con@2|
  00ef8	e59f32b4	 ldr         r3, [pc, #0x2B4]
  00efc	e5933440	 ldr         r3, [r3, #0x440]
  00f00	e3130801	 tst         r3, #1, 16
  00f04	0a000004	 beq         |$LN16@UfnPdd_Con@2|
  00f08	e59f02ac	 ldr         r0, [pc, #0x2AC]
  00f0c	eb000000	 bl          CeLogMsg
  00f10	e3a03001	 mov         r3, #1
  00f14	e58d3014	 str         r3, [sp, #0x14]
  00f18	ea000003	 b           |$LN17@UfnPdd_Con@2|
  00f1c		 |$LN16@UfnPdd_Con@2|
  00f1c	e59f0298	 ldr         r0, [pc, #0x298]
  00f20	eb000000	 bl          NKDbgPrintfW
  00f24	e3a03000	 mov         r3, #0
  00f28	e58d3014	 str         r3, [sp, #0x14]
  00f2c		 |$LN17@UfnPdd_Con@2|
  00f2c	e3a03001	 mov         r3, #1
  00f30	e58d3018	 str         r3, [sp, #0x18]
  00f34	ea000001	 b           |$LN19@UfnPdd_Con@2|
  00f38		 |$LN18@UfnPdd_Con@2|
  00f38	e3a03000	 mov         r3, #0
  00f3c	e58d3018	 str         r3, [sp, #0x18]
  00f40		 |$LN19@UfnPdd_Con@2|

; 688  : 
; 689  :     /* Teardown Sequence will be from bottom to top order */
; 690  : 
; 691  :     if (pPddContext != NULL)

  00f40	e59d302c	 ldr         r3, [sp, #0x2C]
  00f44	e3530000	 cmp         r3, #0
  00f48	0a00007f	 beq         |$LN13@UfnPdd_Con@2|

; 692  :     {
; 693  :         if (pPddContext->sysIntr)

  00f4c	e59d302c	 ldr         r3, [sp, #0x2C]
  00f50	e283302c	 add         r3, r3, #0x2C
  00f54	e5933000	 ldr         r3, [r3]
  00f58	e3530000	 cmp         r3, #0
  00f5c	0a000016	 beq         |$LN12@UfnPdd_Con@2|

; 694  :         {
; 695  :             /* Mask the Interrupt */
; 696  :             InterruptMask (pPddContext->sysIntr, TRUE);

  00f60	e3a01001	 mov         r1, #1
  00f64	e59d302c	 ldr         r3, [sp, #0x2C]
  00f68	e283302c	 add         r3, r3, #0x2C
  00f6c	e5930000	 ldr         r0, [r3]
  00f70	eb000000	 bl          InterruptMask

; 697  : 
; 698  :             /* Signal the IST Thread to Stop Functioning */
; 699  : 
; 700  :             pPddContext->exitIntrThread = TRUE;

  00f74	e59d302c	 ldr         r3, [sp, #0x2C]
  00f78	e2832034	 add         r2, r3, #0x34
  00f7c	e3a03001	 mov         r3, #1
  00f80	e5823000	 str         r3, [r2]

; 701  :             SetEvent (pPddContext->hIntrEvent) ;

  00f84	e59d302c	 ldr         r3, [sp, #0x2C]
  00f88	e2833030	 add         r3, r3, #0x30
  00f8c	e5930000	 ldr         r0, [r3]
  00f90	eb000000	 bl          SetEvent

; 702  : 
; 703  :             /* Release the SYSINTR */
; 704  :             KernelIoControl (IOCTL_HAL_RELEASE_SYSINTR, &(pPddContext->sysIntr),
; 705  :                              sizeof(DWORD), NULL, 0, NULL);

  00f94	e3a03000	 mov         r3, #0
  00f98	e58d3004	 str         r3, [sp, #4]
  00f9c	e3a03000	 mov         r3, #0
  00fa0	e58d3000	 str         r3, [sp]
  00fa4	e3a03000	 mov         r3, #0
  00fa8	e3a02004	 mov         r2, #4
  00fac	e59d102c	 ldr         r1, [sp, #0x2C]
  00fb0	e281102c	 add         r1, r1, #0x2C
  00fb4	e59f01fc	 ldr         r0, [pc, #0x1FC]
  00fb8	eb000000	 bl          KernelIoControl
  00fbc		 |$LN12@UfnPdd_Con@2|

; 706  :         }
; 707  : 
; 708  :         if (pPddContext->hIntrEvent != NULL)

  00fbc	e59d302c	 ldr         r3, [sp, #0x2C]
  00fc0	e2833030	 add         r3, r3, #0x30
  00fc4	e5933000	 ldr         r3, [r3]
  00fc8	e3530000	 cmp         r3, #0
  00fcc	0a000003	 beq         |$LN11@UfnPdd_Con@2|

; 709  :         {
; 710  :             CloseHandle (pPddContext->hIntrEvent);

  00fd0	e59d302c	 ldr         r3, [sp, #0x2C]
  00fd4	e2833030	 add         r3, r3, #0x30
  00fd8	e5930000	 ldr         r0, [r3]
  00fdc	eb000000	 bl          CloseHandle
  00fe0		 |$LN11@UfnPdd_Con@2|

; 711  :         }
; 712  : 
; 713  :         {
; 714  :         DWORD epNum;
; 715  :         for (epNum = 0; epNum < USBD_EP_COUNT; epNum++)

  00fe0	e3a03000	 mov         r3, #0
  00fe4	e58d3008	 str         r3, [sp, #8]
  00fe8	ea000002	 b           |$LN10@UfnPdd_Con@2|
  00fec		 |$LN9@UfnPdd_Con@2|
  00fec	e59d3008	 ldr         r3, [sp, #8]
  00ff0	e2833001	 add         r3, r3, #1
  00ff4	e58d3008	 str         r3, [sp, #8]
  00ff8		 |$LN10@UfnPdd_Con@2|
  00ff8	e59d3008	 ldr         r3, [sp, #8]
  00ffc	e3530010	 cmp         r3, #0x10
  01000	2a00000d	 bcs         |$LN8@UfnPdd_Con@2|

; 716  :             if (pPddContext->ep[epNum].pDmaBuffer)

  01004	e59d302c	 ldr         r3, [sp, #0x2C]
  01008	e2831fa1	 add         r1, r3, #0xA1, 30
  0100c	e59d2008	 ldr         r2, [sp, #8]
  01010	e3a0303c	 mov         r3, #0x3C
  01014	e0030392	 mul         r3, r2, r3
  01018	e0813003	 add         r3, r1, r3
  0101c	e2833030	 add         r3, r3, #0x30
  01020	e5933000	 ldr         r3, [r3]
  01024	e3530000	 cmp         r3, #0
  01028	0a000002	 beq         |$LN7@UfnPdd_Con@2|

; 717  :                 DeinitEndpointDmaBuffer(pPddContext, epNum);

  0102c	e59d1008	 ldr         r1, [sp, #8]
  01030	e59d002c	 ldr         r0, [sp, #0x2C]
  01034	eb000000	 bl          DeinitEndpointDmaBuffer
  01038		 |$LN7@UfnPdd_Con@2|

; 718  :         }

  01038	eaffffeb	 b           |$LN9@UfnPdd_Con@2|
  0103c		 |$LN8@UfnPdd_Con@2|

; 719  : 
; 720  :         if (pPddContext->pSysConfRegs != NULL)

  0103c	e59d302c	 ldr         r3, [sp, #0x2C]
  01040	e2833028	 add         r3, r3, #0x28
  01044	e5933000	 ldr         r3, [r3]
  01048	e3530000	 cmp         r3, #0
  0104c	0a000004	 beq         |$LN6@UfnPdd_Con@2|

; 721  :         {
; 722  :             MmUnmapIoSpace ((PVOID)pPddContext->pSysConfRegs, sizeof(*(pPddContext->pSysConfRegs)));

  01050	e3a01ea6	 mov         r1, #0xA6, 28
  01054	e59d302c	 ldr         r3, [sp, #0x2C]
  01058	e2833028	 add         r3, r3, #0x28
  0105c	e5930000	 ldr         r0, [r3]
  01060	eb000000	 bl          MmUnmapIoSpace
  01064		 |$LN6@UfnPdd_Con@2|

; 723  :         }
; 724  : 
; 725  :         if (pPddContext->pUsbPhyReset != NULL)

  01064	e59d302c	 ldr         r3, [sp, #0x2C]
  01068	e2833024	 add         r3, r3, #0x24
  0106c	e5933000	 ldr         r3, [r3]
  01070	e3530000	 cmp         r3, #0
  01074	0a000004	 beq         |$LN5@UfnPdd_Con@2|

; 726  :         {
; 727  :             MmUnmapIoSpace ((PVOID)pPddContext->pUsbPhyReset, sizeof(pPddContext->pUsbPhyReset));

  01078	e3a01004	 mov         r1, #4
  0107c	e59d302c	 ldr         r3, [sp, #0x2C]
  01080	e2833024	 add         r3, r3, #0x24
  01084	e5930000	 ldr         r0, [r3]
  01088	eb000000	 bl          MmUnmapIoSpace
  0108c		 |$LN5@UfnPdd_Con@2|

; 728  :         }
; 729  : 
; 730  :         if (pPddContext->pCppiRegs != NULL)

  0108c	e59d302c	 ldr         r3, [sp, #0x2C]
  01090	e2833020	 add         r3, r3, #0x20
  01094	e5933000	 ldr         r3, [r3]
  01098	e3530000	 cmp         r3, #0
  0109c	0a000004	 beq         |$LN4@UfnPdd_Con@2|

; 731  :         {
; 732  :             MmUnmapIoSpace (pPddContext->pCppiRegs, sizeof(*(pPddContext->pCppiRegs)));

  010a0	e3a01c5e	 mov         r1, #0x5E, 24
  010a4	e59d302c	 ldr         r3, [sp, #0x2C]
  010a8	e2833020	 add         r3, r3, #0x20
  010ac	e5930000	 ldr         r0, [r3]
  010b0	eb000000	 bl          MmUnmapIoSpace
  010b4		 |$LN4@UfnPdd_Con@2|

; 733  :         }
; 734  : 
; 735  :         if (pPddContext->pUsbdRegs != NULL)

  010b4	e59d302c	 ldr         r3, [sp, #0x2C]
  010b8	e283301c	 add         r3, r3, #0x1C
  010bc	e5933000	 ldr         r3, [r3]
  010c0	e3530000	 cmp         r3, #0
  010c4	0a000005	 beq         |$LN3@UfnPdd_Con@2|

; 736  :         {
; 737  :             MmUnmapIoSpace (pPddContext->pUsbdRegs, sizeof(*(pPddContext->pUsbdRegs)));

  010c8	e3a01b02	 mov         r1, #2, 22
  010cc	e3811018	 orr         r1, r1, #0x18
  010d0	e59d302c	 ldr         r3, [sp, #0x2C]
  010d4	e283301c	 add         r3, r3, #0x1C
  010d8	e5930000	 ldr         r0, [r3]
  010dc	eb000000	 bl          MmUnmapIoSpace
  010e0		 |$LN3@UfnPdd_Con@2|

; 738  :         }
; 739  : 
; 740  :         if (pPddContext->parentBus != NULL)

  010e0	e59d302c	 ldr         r3, [sp, #0x2C]
  010e4	e2833018	 add         r3, r3, #0x18
  010e8	e5933000	 ldr         r3, [r3]
  010ec	e3530000	 cmp         r3, #0
  010f0	0a000003	 beq         |$LN2@UfnPdd_Con@2|

; 741  :         {
; 742  :             CloseBusAccessHandle (pPddContext->parentBus);

  010f4	e59d302c	 ldr         r3, [sp, #0x2C]
  010f8	e2833018	 add         r3, r3, #0x18
  010fc	e5930000	 ldr         r0, [r3]
  01100	eb000000	 bl          CloseBusAccessHandle
  01104		 |$LN2@UfnPdd_Con@2|

; 743  :         }
; 744  : 
; 745  :         if (pPddContext->hActivityEvent)

  01104	e59d302c	 ldr         r3, [sp, #0x2C]
  01108	e2833f95	 add         r3, r3, #0x95, 30
  0110c	e5933000	 ldr         r3, [r3]
  01110	e3530000	 cmp         r3, #0
  01114	0a000007	 beq         |$LN1@UfnPdd_Con@2|

; 746  :         {
; 747  :             CloseHandle(pPddContext->hActivityEvent);

  01118	e59d302c	 ldr         r3, [sp, #0x2C]
  0111c	e2833f95	 add         r3, r3, #0x95, 30
  01120	e5930000	 ldr         r0, [r3]
  01124	eb000000	 bl          CloseHandle

; 748  :             pPddContext->hActivityEvent = NULL;

  01128	e59d302c	 ldr         r3, [sp, #0x2C]
  0112c	e2832f95	 add         r2, r3, #0x95, 30
  01130	e3a03000	 mov         r3, #0
  01134	e5823000	 str         r3, [r2]
  01138		 |$LN1@UfnPdd_Con@2|

; 749  :         }
; 750  : 
; 751  :         /* Last one in the Sequence */
; 752  :         DeleteCriticalSection (&pPddContext->epCS);

  01138	e59d302c	 ldr         r3, [sp, #0x2C]
  0113c	e2830e27	 add         r0, r3, #0x27, 28
  01140	eb000000	 bl          DeleteCriticalSection

; 753  :         LocalFree (pPddContext);

  01144	e59d002c	 ldr         r0, [sp, #0x2C]
  01148	eb000000	 bl          LocalFree
  0114c		 |$LN13@UfnPdd_Con@2|

; 754  :     }
; 755  :     PRINTMSG(ZONE_FUNCTION, (L"-UfnPdd_ContextTeardown\r\n"));

  0114c	e59f3060	 ldr         r3, [pc, #0x60]
  01150	e5933440	 ldr         r3, [r3, #0x440]
  01154	e3130a01	 tst         r3, #1, 20
  01158	0a00000f	 beq         |$LN22@UfnPdd_Con@2|
  0115c	e59f3050	 ldr         r3, [pc, #0x50]
  01160	e5933440	 ldr         r3, [r3, #0x440]
  01164	e3130801	 tst         r3, #1, 16
  01168	0a000004	 beq         |$LN20@UfnPdd_Con@2|
  0116c	e59f003c	 ldr         r0, [pc, #0x3C]
  01170	eb000000	 bl          CeLogMsg
  01174	e3a03001	 mov         r3, #1
  01178	e58d301c	 str         r3, [sp, #0x1C]
  0117c	ea000003	 b           |$LN21@UfnPdd_Con@2|
  01180		 |$LN20@UfnPdd_Con@2|
  01180	e59f0028	 ldr         r0, [pc, #0x28]
  01184	eb000000	 bl          NKDbgPrintfW
  01188	e3a03000	 mov         r3, #0
  0118c	e58d301c	 str         r3, [sp, #0x1C]
  01190		 |$LN21@UfnPdd_Con@2|
  01190	e3a03001	 mov         r3, #1
  01194	e58d3020	 str         r3, [sp, #0x20]
  01198	ea000001	 b           |$LN23@UfnPdd_Con@2|
  0119c		 |$LN22@UfnPdd_Con@2|
  0119c	e3a03000	 mov         r3, #0
  011a0	e58d3020	 str         r3, [sp, #0x20]
  011a4		 |$LN23@UfnPdd_Con@2|

; 756  : }

  011a4	e28dd024	 add         sp, sp, #0x24
  011a8	e89d6000	 ldmia       sp, {sp, lr}
  011ac	e12fff1e	 bx          lr
  011b0		 |$LN27@UfnPdd_Con@2|
  011b0		 |$LN28@UfnPdd_Con@2|
  011b0	00000000	 DCD         |??_C@_1DE@OEBGPOAP@?$AA?9?$AAU?$AAf?$AAn?$AAP?$AAd?$AAd?$AA_?$AAC?$AAo?$AAn?$AAt?$AAe?$AAx?$AAt?$AAT?$AAe?$AAa?$AAr?$AAd?$AAo?$AAw?$AAn?$AA?$AN?$AA?6?$AA?$AA@|
  011b4		 |$LN29@UfnPdd_Con@2|
  011b4	00000000	 DCD         |dpCurSettings|
  011b8		 |$LN30@UfnPdd_Con@2|
  011b8	010100d8	 DCD         0x10100d8
  011bc		 |$LN31@UfnPdd_Con@2|
  011bc	00000000	 DCD         |??_C@_1DE@ELMNPAGA@?$AA?$CL?$AAU?$AAf?$AAn?$AAP?$AAd?$AAd?$AA_?$AAC?$AAo?$AAn?$AAt?$AAe?$AAx?$AAt?$AAT?$AAe?$AAa?$AAr?$AAd?$AAo?$AAw?$AAn?$AA?$AN?$AA?6?$AA?$AA@|
  011c0		 |$M49433|

			 ENDP  ; |UfnPdd_ContextTeardown|

	IMPORT	|EventModify|
; File c:\wince600\public\common\sdk\inc\kfuncs.h

  00000			 AREA	 |.pdata|, PDATA
|$T49446| DCD	|$LN5@SetEvent|
	DCD	0x40000e04
; Function compile flags: /Odtp

  00000			 AREA	 |.text|, CODE, ARM

  00000		 |SetEvent| PROC

; 235  : _inline BOOL SetEvent(HANDLE h) {

  00000		 |$LN5@SetEvent|
  00000	e1a0c00d	 mov         r12, sp
  00004	e92d0001	 stmdb       sp!, {r0}
  00008	e92d5000	 stmdb       sp!, {r12, lr}
  0000c	e24dd008	 sub         sp, sp, #8
  00010		 |$M49443|

; 236  : 	return EventModify(h,EVENT_SET);

  00010	e3a01003	 mov         r1, #3
  00014	e59d0010	 ldr         r0, [sp, #0x10]
  00018	eb000000	 bl          EventModify
  0001c	e58d0004	 str         r0, [sp, #4]
  00020	e59d3004	 ldr         r3, [sp, #4]
  00024	e58d3000	 str         r3, [sp]

; 237  : }

  00028	e59d0000	 ldr         r0, [sp]
  0002c	e28dd008	 add         sp, sp, #8
  00030	e89d6000	 ldmia       sp, {sp, lr}
  00034	e12fff1e	 bx          lr
  00038		 |$M49444|

			 ENDP  ; |SetEvent|

	EXPORT	|??_C@_1CG@MJIAMLBJ@?$AAU?$AAf?$AAn?$AAP?$AAd?$AAd?$AA_?$AAP?$AAo?$AAw?$AAe?$AAr?$AAD?$AAo?$AAw?$AAn?$AA?$AN?$AA?6?$AA?$AA@| [ DATA ] ; `string'
	EXPORT	|UfnPdd_PowerDown|

  00030			 AREA	 |.pdata|, PDATA
|$T49457| DCD	|$LN9@UfnPdd_Pow|
	DCD	0x40001f04
; File c:\wince600\platform\common\src\soc\common_ti_v1\am3517\usb\usbfn\usbfnpdd.c

  00000			 AREA	 |.rdata|, DATA, READONLY
|??_C@_1CG@MJIAMLBJ@?$AAU?$AAf?$AAn?$AAP?$AAd?$AAd?$AA_?$AAP?$AAo?$AAw?$AAe?$AAr?$AAD?$AAo?$AAw?$AAn?$AA?$AN?$AA?6?$AA?$AA@| DCB "U"
	DCB	0x0, "f", 0x0, "n", 0x0, "P", 0x0, "d", 0x0, "d", 0x0, "_"
	DCB	0x0, "P", 0x0, "o", 0x0, "w", 0x0, "e", 0x0, "r", 0x0, "D"
	DCB	0x0, "o", 0x0, "w", 0x0, "n", 0x0, 0xd, 0x0, 0xa, 0x0, 0x0
	DCB	0x0					; `string'
; Function compile flags: /Odtp

  011c0			 AREA	 |.text|, CODE, ARM

  011c0		 |UfnPdd_PowerDown| PROC

; 791  : {

  011c0		 |$LN9@UfnPdd_Pow|
  011c0	e1a0c00d	 mov         r12, sp
  011c4	e92d0001	 stmdb       sp!, {r0}
  011c8	e92d5000	 stmdb       sp!, {r12, lr}
  011cc	e24dd008	 sub         sp, sp, #8
  011d0		 |$M49454|

; 792  : 	UNREFERENCED_PARAMETER(pPddContext);
; 793  : 
; 794  :     PRINTMSG(ZONE_FUNCTION, (L"UfnPdd_PowerDown\r\n"));

  011d0	e59f3060	 ldr         r3, [pc, #0x60]
  011d4	e5933440	 ldr         r3, [r3, #0x440]
  011d8	e3130a01	 tst         r3, #1, 20
  011dc	0a00000f	 beq         |$LN5@UfnPdd_Pow|
  011e0	e59f3050	 ldr         r3, [pc, #0x50]
  011e4	e5933440	 ldr         r3, [r3, #0x440]
  011e8	e3130801	 tst         r3, #1, 16
  011ec	0a000004	 beq         |$LN3@UfnPdd_Pow|
  011f0	e59f003c	 ldr         r0, [pc, #0x3C]
  011f4	eb000000	 bl          CeLogMsg
  011f8	e3a03001	 mov         r3, #1
  011fc	e58d3000	 str         r3, [sp]
  01200	ea000003	 b           |$LN4@UfnPdd_Pow|
  01204		 |$LN3@UfnPdd_Pow|
  01204	e59f0028	 ldr         r0, [pc, #0x28]
  01208	eb000000	 bl          NKDbgPrintfW
  0120c	e3a03000	 mov         r3, #0
  01210	e58d3000	 str         r3, [sp]
  01214		 |$LN4@UfnPdd_Pow|
  01214	e3a03001	 mov         r3, #1
  01218	e58d3004	 str         r3, [sp, #4]
  0121c	ea000001	 b           |$LN6@UfnPdd_Pow|
  01220		 |$LN5@UfnPdd_Pow|
  01220	e3a03000	 mov         r3, #0
  01224	e58d3004	 str         r3, [sp, #4]
  01228		 |$LN6@UfnPdd_Pow|

; 795  : }

  01228	e28dd008	 add         sp, sp, #8
  0122c	e89d6000	 ldmia       sp, {sp, lr}
  01230	e12fff1e	 bx          lr
  01234		 |$LN10@UfnPdd_Pow|
  01234		 |$LN11@UfnPdd_Pow|
  01234	00000000	 DCD         |??_C@_1CG@MJIAMLBJ@?$AAU?$AAf?$AAn?$AAP?$AAd?$AAd?$AA_?$AAP?$AAo?$AAw?$AAe?$AAr?$AAD?$AAo?$AAw?$AAn?$AA?$AN?$AA?6?$AA?$AA@|
  01238		 |$LN12@UfnPdd_Pow|
  01238	00000000	 DCD         |dpCurSettings|
  0123c		 |$M49455|

			 ENDP  ; |UfnPdd_PowerDown|

	EXPORT	|??_C@_1CC@OKBOJDMF@?$AAU?$AAf?$AAn?$AAP?$AAd?$AAd?$AA_?$AAP?$AAo?$AAw?$AAe?$AAr?$AAU?$AAp?$AA?$AN?$AA?6?$AA?$AA@| [ DATA ] ; `string'
	EXPORT	|UfnPdd_PowerUp|

  00038			 AREA	 |.pdata|, PDATA
|$T49469| DCD	|$LN9@UfnPdd_Pow@2|
	DCD	0x40001f04

  00000			 AREA	 |.rdata|, DATA, READONLY
|??_C@_1CC@OKBOJDMF@?$AAU?$AAf?$AAn?$AAP?$AAd?$AAd?$AA_?$AAP?$AAo?$AAw?$AAe?$AAr?$AAU?$AAp?$AA?$AN?$AA?6?$AA?$AA@| DCB "U"
	DCB	0x0, "f", 0x0, "n", 0x0, "P", 0x0, "d", 0x0, "d", 0x0, "_"
	DCB	0x0, "P", 0x0, "o", 0x0, "w", 0x0, "e", 0x0, "r", 0x0, "U"
	DCB	0x0, "p", 0x0, 0xd, 0x0, 0xa, 0x0, 0x0, 0x0 ; `string'
; Function compile flags: /Odtp

  0123c			 AREA	 |.text|, CODE, ARM

  0123c		 |UfnPdd_PowerUp| PROC

; 808  : {

  0123c		 |$LN9@UfnPdd_Pow@2|
  0123c	e1a0c00d	 mov         r12, sp
  01240	e92d0001	 stmdb       sp!, {r0}
  01244	e92d5000	 stmdb       sp!, {r12, lr}
  01248	e24dd008	 sub         sp, sp, #8
  0124c		 |$M49466|

; 809  : 	UNREFERENCED_PARAMETER(pPddContext);
; 810  : 
; 811  :     PRINTMSG(ZONE_FUNCTION, (L"UfnPdd_PowerUp\r\n"));

  0124c	e59f3060	 ldr         r3, [pc, #0x60]
  01250	e5933440	 ldr         r3, [r3, #0x440]
  01254	e3130a01	 tst         r3, #1, 20
  01258	0a00000f	 beq         |$LN5@UfnPdd_Pow@2|
  0125c	e59f3050	 ldr         r3, [pc, #0x50]
  01260	e5933440	 ldr         r3, [r3, #0x440]
  01264	e3130801	 tst         r3, #1, 16
  01268	0a000004	 beq         |$LN3@UfnPdd_Pow@2|
  0126c	e59f003c	 ldr         r0, [pc, #0x3C]
  01270	eb000000	 bl          CeLogMsg
  01274	e3a03001	 mov         r3, #1
  01278	e58d3000	 str         r3, [sp]
  0127c	ea000003	 b           |$LN4@UfnPdd_Pow@2|
  01280		 |$LN3@UfnPdd_Pow@2|
  01280	e59f0028	 ldr         r0, [pc, #0x28]
  01284	eb000000	 bl          NKDbgPrintfW
  01288	e3a03000	 mov         r3, #0
  0128c	e58d3000	 str         r3, [sp]
  01290		 |$LN4@UfnPdd_Pow@2|
  01290	e3a03001	 mov         r3, #1
  01294	e58d3004	 str         r3, [sp, #4]
  01298	ea000001	 b           |$LN6@UfnPdd_Pow@2|
  0129c		 |$LN5@UfnPdd_Pow@2|
  0129c	e3a03000	 mov         r3, #0
  012a0	e58d3004	 str         r3, [sp, #4]
  012a4		 |$LN6@UfnPdd_Pow@2|

; 812  : 
; 813  :     // Handle power changes through bus power ioctls
; 814  :     //USBPeripheralPowerUp(pPddContext);
; 815  :     //USBPeripheralStart(pPddContext);
; 816  : }

  012a4	e28dd008	 add         sp, sp, #8
  012a8	e89d6000	 ldmia       sp, {sp, lr}
  012ac	e12fff1e	 bx          lr
  012b0		 |$LN10@UfnPdd_Pow@2|
  012b0		 |$LN11@UfnPdd_Pow@2|
  012b0	00000000	 DCD         |??_C@_1CC@OKBOJDMF@?$AAU?$AAf?$AAn?$AAP?$AAd?$AAd?$AA_?$AAP?$AAo?$AAw?$AAe?$AAr?$AAU?$AAp?$AA?$AN?$AA?6?$AA?$AA@|
  012b4		 |$LN12@UfnPdd_Pow@2|
  012b4	00000000	 DCD         |dpCurSettings|
  012b8		 |$M49467|

			 ENDP  ; |UfnPdd_PowerUp|

	EXPORT	|??_C@_1JI@DBBJKFPC@?$AAC?$AAo?$AAn?$AAt?$AAi?$AAn?$AAu?$AAe?$AAE?$AAp?$AA0?$AAT?$AAx?$AAT?$AAr?$AAa?$AAn?$AAs?$AAf?$AAe?$AAr?$AA?3?$AA?5?$AAp?$AAT?$AAr?$AAa?$AAn?$AAs?$AAf?$AAe?$AAr@| [ DATA ] ; `string'
	EXPORT	|??_C@_1GE@DIHKIOJL@?$AAC?$AAo?$AAn?$AAt?$AAi?$AAn?$AAu?$AAe?$AAE?$AAp?$AA0?$AAT?$AAx?$AAT?$AAr?$AAa?$AAn?$AAs?$AAf?$AAe?$AAr?$AA?3?$AA?5?$AAC?$AAl?$AAi?$AAe?$AAn?$AAt?$AA?5?$AAb?$AAu@| [ DATA ] ; `string'
	EXPORT	|??_C@_1GE@KIOKMDN@?$AAC?$AAo?$AAn?$AAt?$AAi?$AAn?$AAu?$AAe?$AAE?$AAp?$AA0?$AAT?$AAx?$AAT?$AAr?$AAa?$AAn?$AAs?$AAf?$AAe?$AAr?$AA?3?$AA?5?$AAW?$AAr?$AAi?$AAt?$AAi?$AAn?$AAg?$AA?5?$AA?$CF@| [ DATA ] ; `string'
	EXPORT	|??_C@_1EK@EFPMDAOF@?$AAC?$AAo?$AAn?$AAt?$AAi?$AAn?$AAu?$AAe?$AAE?$AAp?$AA0?$AAT?$AAx?$AAT?$AAr?$AAa?$AAn?$AAs?$AAf?$AAe?$AAr?$AA?3?$AA?5?$AAT?$AAX?$AA?5?$AAc?$AAo?$AAm?$AAp?$AAl?$AAe@| [ DATA ] ; `string'
	EXPORT	|??_C@_1FA@PIGNFLGJ@?$AAC?$AAo?$AAn?$AAt?$AAi?$AAn?$AAu?$AAe?$AAE?$AAp?$AA0?$AAT?$AAx?$AAT?$AAr?$AAa?$AAn?$AAs?$AAf?$AAe?$AAr?$AA?3?$AA?5?$AAT?$AAr?$AAa?$AAn?$AAs?$AAf?$AAe?$AAr?$AA?5@| [ DATA ] ; `string'
	EXPORT	|??_C@_1HE@PLBLDDGJ@?$AAC?$AAo?$AAn?$AAt?$AAi?$AAn?$AAu?$AAe?$AAE?$AAp?$AA0?$AAT?$AAx?$AAT?$AAr?$AAa?$AAn?$AAs?$AAf?$AAe?$AAr?$AA?3?$AA?5?$AAp?$AAT?$AAr?$AAa?$AAn?$AAs?$AAf?$AAe?$AAr@| [ DATA ] ; `string'
	EXPORT	|ContinueEp0TxTransfer|
	IMPORT	|LeaveCriticalSection|
	IMPORT	|EnterCriticalSection|
	IMPORT	|__C_specific_handler|

  00040			 AREA	 |.pdata|, PDATA
|$T49542| DCD	|$LN75@ContinueEp|
	DCD	0xc0021705
|$T49544| DCD	|$LN65@ContinueEp|
	DCD	0x40000e02

  00000			 AREA	 |.rdata|, DATA, READONLY
|??_C@_1JI@DBBJKFPC@?$AAC?$AAo?$AAn?$AAt?$AAi?$AAn?$AAu?$AAe?$AAE?$AAp?$AA0?$AAT?$AAx?$AAT?$AAr?$AAa?$AAn?$AAs?$AAf?$AAe?$AAr?$AA?3?$AA?5?$AAp?$AAT?$AAr?$AAa?$AAn?$AAs?$AAf?$AAe?$AAr@| DCB "C"
	DCB	0x0, "o", 0x0, "n", 0x0, "t", 0x0, "i", 0x0, "n", 0x0, "u"
	DCB	0x0, "e", 0x0, "E", 0x0, "p", 0x0, "0", 0x0, "T", 0x0, "x"
	DCB	0x0, "T", 0x0, "r", 0x0, "a", 0x0, "n", 0x0, "s", 0x0, "f"
	DCB	0x0, "e", 0x0, "r", 0x0, ":", 0x0, " ", 0x0, "p", 0x0, "T"
	DCB	0x0, "r", 0x0, "a", 0x0, "n", 0x0, "s", 0x0, "f", 0x0, "e"
	DCB	0x0, "r", 0x0, " ", 0x0, "0", 0x0, "x", 0x0, "%", 0x0, "0"
	DCB	0x0, "8", 0x0, "x", 0x0, " ", 0x0, "(", 0x0, "%", 0x0, "d"
	DCB	0x0, ",", 0x0, " ", 0x0, "%", 0x0, "d", 0x0, ",", 0x0, " "
	DCB	0x0, "0", 0x0, "x", 0x0, "%", 0x0, "0", 0x0, "x", 0x0, ")"
	DCB	0x0, " ", 0x0, "-", 0x0, " ", 0x0, "n", 0x0, "o", 0x0, "t"
	DCB	0x0, "i", 0x0, "f", 0x0, "y", 0x0, " ", 0x0, "c", 0x0, "o"
	DCB	0x0, "m", 0x0, "p", 0x0, "l", 0x0, "e", 0x0, "t", 0x0, "e"
	DCB	0x0, 0xd, 0x0, 0xa, 0x0, 0x0, 0x0	; `string'

  00000			 AREA	 |.rdata|, DATA, READONLY
|??_C@_1GE@DIHKIOJL@?$AAC?$AAo?$AAn?$AAt?$AAi?$AAn?$AAu?$AAe?$AAE?$AAp?$AA0?$AAT?$AAx?$AAT?$AAr?$AAa?$AAn?$AAs?$AAf?$AAe?$AAr?$AA?3?$AA?5?$AAC?$AAl?$AAi?$AAe?$AAn?$AAt?$AA?5?$AAb?$AAu@| DCB "C"
	DCB	0x0, "o", 0x0, "n", 0x0, "t", 0x0, "i", 0x0, "n", 0x0, "u"
	DCB	0x0, "e", 0x0, "E", 0x0, "p", 0x0, "0", 0x0, "T", 0x0, "x"
	DCB	0x0, "T", 0x0, "r", 0x0, "a", 0x0, "n", 0x0, "s", 0x0, "f"
	DCB	0x0, "e", 0x0, "r", 0x0, ":", 0x0, " ", 0x0, "C", 0x0, "l"
	DCB	0x0, "i", 0x0, "e", 0x0, "n", 0x0, "t", 0x0, " ", 0x0, "b"
	DCB	0x0, "u", 0x0, "f", 0x0, "f", 0x0, "e", 0x0, "r", 0x0, " "
	DCB	0x0, "e", 0x0, "x", 0x0, "c", 0x0, "e", 0x0, "p", 0x0, "t"
	DCB	0x0, "i", 0x0, "o", 0x0, "n", 0x0, "!", 0x0, 0xd, 0x0, 0xa
	DCB	0x0, 0x0, 0x0				; `string'

  00000			 AREA	 |.rdata|, DATA, READONLY
|??_C@_1GE@KIOKMDN@?$AAC?$AAo?$AAn?$AAt?$AAi?$AAn?$AAu?$AAe?$AAE?$AAp?$AA0?$AAT?$AAx?$AAT?$AAr?$AAa?$AAn?$AAs?$AAf?$AAe?$AAr?$AA?3?$AA?5?$AAW?$AAr?$AAi?$AAt?$AAi?$AAn?$AAg?$AA?5?$AA?$CF@| DCB "C"
	DCB	0x0, "o", 0x0, "n", 0x0, "t", 0x0, "i", 0x0, "n", 0x0, "u"
	DCB	0x0, "e", 0x0, "E", 0x0, "p", 0x0, "0", 0x0, "T", 0x0, "x"
	DCB	0x0, "T", 0x0, "r", 0x0, "a", 0x0, "n", 0x0, "s", 0x0, "f"
	DCB	0x0, "e", 0x0, "r", 0x0, ":", 0x0, " ", 0x0, "W", 0x0, "r"
	DCB	0x0, "i", 0x0, "t", 0x0, "i", 0x0, "n", 0x0, "g", 0x0, " "
	DCB	0x0, "%", 0x0, "d", 0x0, " ", 0x0, "b", 0x0, "y", 0x0, "t"
	DCB	0x0, "e", 0x0, "s", 0x0, " ", 0x0, "t", 0x0, "o", 0x0, " "
	DCB	0x0, "F", 0x0, "I", 0x0, "F", 0x0, "O", 0x0, 0xd, 0x0, 0xa
	DCB	0x0, 0x0, 0x0				; `string'

  00000			 AREA	 |.rdata|, DATA, READONLY
|??_C@_1EK@EFPMDAOF@?$AAC?$AAo?$AAn?$AAt?$AAi?$AAn?$AAu?$AAe?$AAE?$AAp?$AA0?$AAT?$AAx?$AAT?$AAr?$AAa?$AAn?$AAs?$AAf?$AAe?$AAr?$AA?3?$AA?5?$AAT?$AAX?$AA?5?$AAc?$AAo?$AAm?$AAp?$AAl?$AAe@| DCB "C"
	DCB	0x0, "o", 0x0, "n", 0x0, "t", 0x0, "i", 0x0, "n", 0x0, "u"
	DCB	0x0, "e", 0x0, "E", 0x0, "p", 0x0, "0", 0x0, "T", 0x0, "x"
	DCB	0x0, "T", 0x0, "r", 0x0, "a", 0x0, "n", 0x0, "s", 0x0, "f"
	DCB	0x0, "e", 0x0, "r", 0x0, ":", 0x0, " ", 0x0, "T", 0x0, "X"
	DCB	0x0, " ", 0x0, "c", 0x0, "o", 0x0, "m", 0x0, "p", 0x0, "l"
	DCB	0x0, "e", 0x0, "t", 0x0, "e", 0x0, 0xd, 0x0, 0xa, 0x0, 0x0
	DCB	0x0					; `string'

  00000			 AREA	 |.rdata|, DATA, READONLY
|??_C@_1FA@PIGNFLGJ@?$AAC?$AAo?$AAn?$AAt?$AAi?$AAn?$AAu?$AAe?$AAE?$AAp?$AA0?$AAT?$AAx?$AAT?$AAr?$AAa?$AAn?$AAs?$AAf?$AAe?$AAr?$AA?3?$AA?5?$AAT?$AAr?$AAa?$AAn?$AAs?$AAf?$AAe?$AAr?$AA?5@| DCB "C"
	DCB	0x0, "o", 0x0, "n", 0x0, "t", 0x0, "i", 0x0, "n", 0x0, "u"
	DCB	0x0, "e", 0x0, "E", 0x0, "p", 0x0, "0", 0x0, "T", 0x0, "x"
	DCB	0x0, "T", 0x0, "r", 0x0, "a", 0x0, "n", 0x0, "s", 0x0, "f"
	DCB	0x0, "e", 0x0, "r", 0x0, ":", 0x0, " ", 0x0, "T", 0x0, "r"
	DCB	0x0, "a", 0x0, "n", 0x0, "s", 0x0, "f", 0x0, "e", 0x0, "r"
	DCB	0x0, " ", 0x0, "N", 0x0, "U", 0x0, "L", 0x0, "L", 0x0, "!"
	DCB	0x0, 0xd, 0x0, 0xa, 0x0, 0x0, 0x0	; `string'

  00000			 AREA	 |.rdata|, DATA, READONLY
|??_C@_1HE@PLBLDDGJ@?$AAC?$AAo?$AAn?$AAt?$AAi?$AAn?$AAu?$AAe?$AAE?$AAp?$AA0?$AAT?$AAx?$AAT?$AAr?$AAa?$AAn?$AAs?$AAf?$AAe?$AAr?$AA?3?$AA?5?$AAp?$AAT?$AAr?$AAa?$AAn?$AAs?$AAf?$AAe?$AAr@| DCB "C"
	DCB	0x0, "o", 0x0, "n", 0x0, "t", 0x0, "i", 0x0, "n", 0x0, "u"
	DCB	0x0, "e", 0x0, "E", 0x0, "p", 0x0, "0", 0x0, "T", 0x0, "x"
	DCB	0x0, "T", 0x0, "r", 0x0, "a", 0x0, "n", 0x0, "s", 0x0, "f"
	DCB	0x0, "e", 0x0, "r", 0x0, ":", 0x0, " ", 0x0, "p", 0x0, "T"
	DCB	0x0, "r", 0x0, "a", 0x0, "n", 0x0, "s", 0x0, "f", 0x0, "e"
	DCB	0x0, "r", 0x0, " ", 0x0, "0", 0x0, "x", 0x0, "%", 0x0, "0"
	DCB	0x0, "8", 0x0, "x", 0x0, " ", 0x0, "(", 0x0, "%", 0x0, "d"
	DCB	0x0, ",", 0x0, " ", 0x0, "%", 0x0, "d", 0x0, ",", 0x0, " "
	DCB	0x0, "0", 0x0, "x", 0x0, "%", 0x0, "0", 0x0, "x", 0x0, ")"
	DCB	0x0, 0xd, 0x0, 0xa, 0x0, 0x0, 0x0	; `string'

  00004			 AREA	 |.xdata|, DATA
|$T49540| DCD	0x1
	DCD	|$LN69@ContinueEp|
	DCD	|$LN70@ContinueEp|
	DCD	|$LN65@ContinueEp|
	DCD	|$LN66@ContinueEp|
; Function compile flags: /Odtp

  012b8			 AREA	 |.text|, CODE, ARM

  012b8	00000000	 DCD         |__C_specific_handler|
  012bc	00000000	 DCD         |$T49540|

  012c0		 |ContinueEp0TxTransfer| PROC

; 890  : {

  012c0		 |$LN75@ContinueEp|
  012c0	e1a0c00d	 mov         r12, sp
  012c4	e92d0003	 stmdb       sp!, {r0, r1}
  012c8	e92d5800	 stmdb       sp!, {r11, r12, lr}
  012cc	e28db00c	 add         r11, sp, #0xC
  012d0	e24dd09c	 sub         sp, sp, #0x9C
  012d4		 |$LN73@ContinueEp|

; 891  :     CSL_UsbRegs *pUsbdRegs = pPdd->pUsbdRegs;

  012d4	e59b3000	 ldr         r3, [r11]
  012d8	e283301c	 add         r3, r3, #0x1C
  012dc	e5933000	 ldr         r3, [r3]
  012e0	e50b308c	 str         r3, [r11, #-0x8C]

; 892  :     UsbFnEp     *pEP = &pPdd->ep[0];

  012e4	e59b3000	 ldr         r3, [r11]
  012e8	e2833fa1	 add         r3, r3, #0xA1, 30
  012ec	e50b3088	 str         r3, [r11, #-0x88]

; 893  :     STransfer   *pTransfer = pEP->pTransfer;

  012f0	e51b3088	 ldr         r3, [r11, #-0x88]
  012f4	e2833020	 add         r3, r3, #0x20
  012f8	e5933000	 ldr         r3, [r3]
  012fc	e50b3090	 str         r3, [r11, #-0x90]

; 894  :     BOOL complete = FALSE;

  01300	e3a03000	 mov         r3, #0
  01304	e50b3084	 str         r3, [r11, #-0x84]

; 895  :     volatile UINT16 *pepCtrlReg;
; 896  :     UINT16  ep0CsrReg;
; 897  :     DWORD space = 0;

  01308	e3a03000	 mov         r3, #0
  0130c	e50b30a0	 str         r3, [r11, #-0xA0]

; 898  :     DWORD remain = 0;

  01310	e3a03000	 mov         r3, #0
  01314	e50b3098	 str         r3, [r11, #-0x98]

; 899  :     UCHAR *pBuffer = NULL;

  01318	e3a03000	 mov         r3, #0
  0131c	e50b30a4	 str         r3, [r11, #-0xA4]

; 900  : 
; 901  :     DEBUGCHK(endPoint == 0);

  01320	e59b3004	 ldr         r3, [r11, #4]
  01324	e3530000	 cmp         r3, #0
  01328	1a000002	 bne         |$LN14@ContinueEp|
  0132c	e3a03001	 mov         r3, #1
  01330	e50b3070	 str         r3, [r11, #-0x70]
  01334	ea000008	 b           |$LN15@ContinueEp|
  01338		 |$LN14@ContinueEp|
  01338	e3a03c03	 mov         r3, #3, 24
  0133c	e3833085	 orr         r3, r3, #0x85
  01340	e59f2808	 ldr         r2, [pc, #0x808]
  01344	e59f17e8	 ldr         r1, [pc, #0x7E8]
  01348	e59f07fc	 ldr         r0, [pc, #0x7FC]
  0134c	eb000000	 bl          NKDbgPrintfW
  01350	e6000010	 __debugbreak_ce
  01354	e3a03000	 mov         r3, #0
  01358	e50b3070	 str         r3, [r11, #-0x70]
  0135c		 |$LN15@ContinueEp|

; 902  : 
; 903  :     PRINTMSG(ZONE_PDD_EP0, (L"ContinueEp0TxTransfer: "
; 904  :                            L"pTransfer 0x%08x (%d, %d, 0x%0x)\r\n",
; 905  :                            pTransfer, pTransfer != NULL ? pTransfer->cbBuffer : 0,
; 906  :                            pTransfer != NULL ? pTransfer->cbTransferred : 0,
; 907  :                            pTransfer != NULL ? pTransfer->dwUsbError : -1));

  0135c	e59f37d0	 ldr         r3, [pc, #0x7D0]
  01360	e5933440	 ldr         r3, [r3, #0x440]
  01364	e3130c02	 tst         r3, #2, 24
  01368	0a000055	 beq         |$LN30@ContinueEp|
  0136c	e59f37c0	 ldr         r3, [pc, #0x7C0]
  01370	e5933440	 ldr         r3, [r3, #0x440]
  01374	e3130801	 tst         r3, #1, 16
  01378	0a000027	 beq         |$LN28@ContinueEp|
  0137c	e51b3090	 ldr         r3, [r11, #-0x90]
  01380	e3530000	 cmp         r3, #0
  01384	0a000004	 beq         |$LN16@ContinueEp|
  01388	e51b3090	 ldr         r3, [r11, #-0x90]
  0138c	e2833014	 add         r3, r3, #0x14
  01390	e5933000	 ldr         r3, [r3]
  01394	e50b306c	 str         r3, [r11, #-0x6C]
  01398	ea000001	 b           |$LN17@ContinueEp|
  0139c		 |$LN16@ContinueEp|
  0139c	e3e03000	 mvn         r3, #0
  013a0	e50b306c	 str         r3, [r11, #-0x6C]
  013a4		 |$LN17@ContinueEp|
  013a4	e51b3090	 ldr         r3, [r11, #-0x90]
  013a8	e3530000	 cmp         r3, #0
  013ac	0a000004	 beq         |$LN18@ContinueEp|
  013b0	e51b3090	 ldr         r3, [r11, #-0x90]
  013b4	e2833010	 add         r3, r3, #0x10
  013b8	e5933000	 ldr         r3, [r3]
  013bc	e50b3068	 str         r3, [r11, #-0x68]
  013c0	ea000001	 b           |$LN19@ContinueEp|
  013c4		 |$LN18@ContinueEp|
  013c4	e3a03000	 mov         r3, #0
  013c8	e50b3068	 str         r3, [r11, #-0x68]
  013cc		 |$LN19@ContinueEp|
  013cc	e51b3090	 ldr         r3, [r11, #-0x90]
  013d0	e3530000	 cmp         r3, #0
  013d4	0a000004	 beq         |$LN20@ContinueEp|
  013d8	e51b3090	 ldr         r3, [r11, #-0x90]
  013dc	e283300c	 add         r3, r3, #0xC
  013e0	e5933000	 ldr         r3, [r3]
  013e4	e50b3064	 str         r3, [r11, #-0x64]
  013e8	ea000001	 b           |$LN21@ContinueEp|
  013ec		 |$LN20@ContinueEp|
  013ec	e3a03000	 mov         r3, #0
  013f0	e50b3064	 str         r3, [r11, #-0x64]
  013f4		 |$LN21@ContinueEp|
  013f4	e51b306c	 ldr         r3, [r11, #-0x6C]
  013f8	e58d3000	 str         r3, [sp]
  013fc	e51b3068	 ldr         r3, [r11, #-0x68]
  01400	e51b2064	 ldr         r2, [r11, #-0x64]
  01404	e51b1090	 ldr         r1, [r11, #-0x90]
  01408	e59f0738	 ldr         r0, [pc, #0x738]
  0140c	eb000000	 bl          CeLogMsg
  01410	e3a03001	 mov         r3, #1
  01414	e50b3060	 str         r3, [r11, #-0x60]
  01418	ea000026	 b           |$LN29@ContinueEp|
  0141c		 |$LN28@ContinueEp|
  0141c	e51b3090	 ldr         r3, [r11, #-0x90]
  01420	e3530000	 cmp         r3, #0
  01424	0a000004	 beq         |$LN22@ContinueEp|
  01428	e51b3090	 ldr         r3, [r11, #-0x90]
  0142c	e2833014	 add         r3, r3, #0x14
  01430	e5933000	 ldr         r3, [r3]
  01434	e50b305c	 str         r3, [r11, #-0x5C]
  01438	ea000001	 b           |$LN23@ContinueEp|
  0143c		 |$LN22@ContinueEp|
  0143c	e3e03000	 mvn         r3, #0
  01440	e50b305c	 str         r3, [r11, #-0x5C]
  01444		 |$LN23@ContinueEp|
  01444	e51b3090	 ldr         r3, [r11, #-0x90]
  01448	e3530000	 cmp         r3, #0
  0144c	0a000004	 beq         |$LN24@ContinueEp|
  01450	e51b3090	 ldr         r3, [r11, #-0x90]
  01454	e2833010	 add         r3, r3, #0x10
  01458	e5933000	 ldr         r3, [r3]
  0145c	e50b3058	 str         r3, [r11, #-0x58]
  01460	ea000001	 b           |$LN25@ContinueEp|
  01464		 |$LN24@ContinueEp|
  01464	e3a03000	 mov         r3, #0
  01468	e50b3058	 str         r3, [r11, #-0x58]
  0146c		 |$LN25@ContinueEp|
  0146c	e51b3090	 ldr         r3, [r11, #-0x90]
  01470	e3530000	 cmp         r3, #0
  01474	0a000004	 beq         |$LN26@ContinueEp|
  01478	e51b3090	 ldr         r3, [r11, #-0x90]
  0147c	e283300c	 add         r3, r3, #0xC
  01480	e5933000	 ldr         r3, [r3]
  01484	e50b3054	 str         r3, [r11, #-0x54]
  01488	ea000001	 b           |$LN27@ContinueEp|
  0148c		 |$LN26@ContinueEp|
  0148c	e3a03000	 mov         r3, #0
  01490	e50b3054	 str         r3, [r11, #-0x54]
  01494		 |$LN27@ContinueEp|
  01494	e51b305c	 ldr         r3, [r11, #-0x5C]
  01498	e58d3000	 str         r3, [sp]
  0149c	e51b3058	 ldr         r3, [r11, #-0x58]
  014a0	e51b2054	 ldr         r2, [r11, #-0x54]
  014a4	e51b1090	 ldr         r1, [r11, #-0x90]
  014a8	e59f0698	 ldr         r0, [pc, #0x698]
  014ac	eb000000	 bl          NKDbgPrintfW
  014b0	e3a03000	 mov         r3, #0
  014b4	e50b3060	 str         r3, [r11, #-0x60]
  014b8		 |$LN29@ContinueEp|
  014b8	e3a03001	 mov         r3, #1
  014bc	e50b3050	 str         r3, [r11, #-0x50]
  014c0	ea000001	 b           |$LN31@ContinueEp|
  014c4		 |$LN30@ContinueEp|
  014c4	e3a03000	 mov         r3, #0
  014c8	e50b3050	 str         r3, [r11, #-0x50]
  014cc		 |$LN31@ContinueEp|

; 908  : 
; 909  :     if (pTransfer == NULL)

  014cc	e51b3090	 ldr         r3, [r11, #-0x90]
  014d0	e3530000	 cmp         r3, #0
  014d4	1a00001a	 bne         |$LN11@ContinueEp|

; 910  :     {
; 911  :         PRINTMSG(ZONE_ERROR, (L"ContinueEp0TxTransfer: Transfer NULL!\r\n"));

  014d8	e59f3654	 ldr         r3, [pc, #0x654]
  014dc	e5933440	 ldr         r3, [r3, #0x440]
  014e0	e3130001	 tst         r3, #1
  014e4	0a00000f	 beq         |$LN34@ContinueEp|
  014e8	e59f3644	 ldr         r3, [pc, #0x644]
  014ec	e5933440	 ldr         r3, [r3, #0x440]
  014f0	e3130801	 tst         r3, #1, 16
  014f4	0a000004	 beq         |$LN32@ContinueEp|
  014f8	e59f0644	 ldr         r0, [pc, #0x644]
  014fc	eb000000	 bl          CeLogMsg
  01500	e3a03001	 mov         r3, #1
  01504	e50b304c	 str         r3, [r11, #-0x4C]
  01508	ea000003	 b           |$LN33@ContinueEp|
  0150c		 |$LN32@ContinueEp|
  0150c	e59f0630	 ldr         r0, [pc, #0x630]
  01510	eb000000	 bl          NKDbgPrintfW
  01514	e3a03000	 mov         r3, #0
  01518	e50b304c	 str         r3, [r11, #-0x4C]
  0151c		 |$LN33@ContinueEp|
  0151c	e3a03001	 mov         r3, #1
  01520	e50b3048	 str         r3, [r11, #-0x48]
  01524	ea000001	 b           |$LN35@ContinueEp|
  01528		 |$LN34@ContinueEp|
  01528	e3a03000	 mov         r3, #0
  0152c	e50b3048	 str         r3, [r11, #-0x48]
  01530		 |$LN35@ContinueEp|

; 912  :         pEP->epStage = MGC_END0_START;

  01530	e51b3088	 ldr         r3, [r11, #-0x88]
  01534	e283201c	 add         r2, r3, #0x1C
  01538	e3a03001	 mov         r3, #1
  0153c	e5823000	 str         r3, [r2]

; 913  :         goto done;

  01540	ea000172	 b           |$done$47904|
  01544		 |$LN11@ContinueEp|

; 914  :     }
; 915  : 
; 916  :     /* Enter CriticalSection */
; 917  :     LOCK_ENDPOINT(pPdd);

  01544	e59b3000	 ldr         r3, [r11]
  01548	e2830e27	 add         r0, r3, #0x27, 28
  0154c	eb000000	 bl          EnterCriticalSection

; 918  : 
; 919  :     pepCtrlReg = &pUsbdRegs->EPCSR[ endPoint ].PERI_TXCSR;

  01550	e51b308c	 ldr         r3, [r11, #-0x8C]
  01554	e2831c05	 add         r1, r3, #5, 24
  01558	e59b2004	 ldr         r2, [r11, #4]
  0155c	e3a03010	 mov         r3, #0x10
  01560	e0030392	 mul         r3, r2, r3
  01564	e0813003	 add         r3, r1, r3
  01568	e2833002	 add         r3, r3, #2
  0156c	e50b309c	 str         r3, [r11, #-0x9C]

; 920  :     ep0CsrReg = (*pepCtrlReg);

  01570	e51b309c	 ldr         r3, [r11, #-0x9C]
  01574	e1d330b0	 ldrh        r3, [r3]
  01578	e14b39b4	 strh        r3, [r11, #-0x94]

; 921  : 
; 922  :     /* If the hardware has set the STALL Bits, clearing them before
; 923  :      * will ensure smooth USB Enumeration Process. In case we do
; 924  :      * not perform the same, the current reply being sent to
; 925  :      * the host can be interpreted as Stall or incomplete reply
; 926  :      * write into the EP FIFO and update the TxPktRdy Bits
; 927  :      */
; 928  :     if ((ep0CsrReg & MGC_M_CSR0_P_SENTSTALL) != 0)

  0157c	e15b39b4	 ldrh        r3, [r11, #-0x94]
  01580	e3130004	 tst         r3, #4
  01584	0a00000c	 beq         |$LN10@ContinueEp|

; 929  :     {
; 930  :         ep0CsrReg &= MGC_EP0_STALL_BITS;

  01588	e15b39b4	 ldrh        r3, [r11, #-0x94]
  0158c	e2033024	 and         r3, r3, #0x24
  01590	e1a03803	 mov         r3, r3, lsl #16
  01594	e1a03823	 mov         r3, r3, lsr #16
  01598	e14b39b4	 strh        r3, [r11, #-0x94]

; 931  :         ep0CsrReg |= MGC_M_CSR0_P_SVDRXPKTRDY;

  0159c	e15b39b4	 ldrh        r3, [r11, #-0x94]
  015a0	e3833040	 orr         r3, r3, #0x40
  015a4	e1a03803	 mov         r3, r3, lsl #16
  015a8	e1a03823	 mov         r3, r3, lsr #16
  015ac	e14b39b4	 strh        r3, [r11, #-0x94]

; 932  :         (*pepCtrlReg) = ep0CsrReg;

  015b0	e15b29b4	 ldrh        r2, [r11, #-0x94]
  015b4	e51b309c	 ldr         r3, [r11, #-0x9C]
  015b8	e1c320b0	 strh        r2, [r3]
  015bc		 |$LN10@ContinueEp|

; 933  :     }
; 934  : 
; 935  :     /* First time through, check if ZLP is required for this transfer */
; 936  :     if (pTransfer->cbTransferred == 0)

  015bc	e51b3090	 ldr         r3, [r11, #-0x90]
  015c0	e2833010	 add         r3, r3, #0x10
  015c4	e5933000	 ldr         r3, [r3]
  015c8	e3530000	 cmp         r3, #0
  015cc	1a000024	 bne         |$LN9@ContinueEp|

; 937  :     {
; 938  :         if (pTransfer->cbBuffer > 0 &&
; 939  :             pTransfer->cbBuffer < pPdd->setupRequest.wLength &&
; 940  :             (pTransfer->cbBuffer % pEP->maxPacketSize) == 0)

  015d0	e51b3090	 ldr         r3, [r11, #-0x90]
  015d4	e283300c	 add         r3, r3, #0xC
  015d8	e5933000	 ldr         r3, [r3]
  015dc	e3530000	 cmp         r3, #0
  015e0	9a00001b	 bls         |$LN8@ContinueEp|
  015e4	e51b3090	 ldr         r3, [r11, #-0x90]
  015e8	e283000c	 add         r0, r3, #0xC
  015ec	e59b3000	 ldr         r3, [r11]
  015f0	e2833c06	 add         r3, r3, #6, 24
  015f4	e283104a	 add         r1, r3, #0x4A
  015f8	e5d13001	 ldrb        r3, [r1, #1]
  015fc	e1a03403	 mov         r3, r3, lsl #8
  01600	e1a02803	 mov         r2, r3, lsl #16
  01604	e1a02822	 mov         r2, r2, lsr #16
  01608	e5d13000	 ldrb        r3, [r1]
  0160c	e1832002	 orr         r2, r3, r2
  01610	e5903000	 ldr         r3, [r0]
  01614	e1530002	 cmp         r3, r2
  01618	2a00000d	 bcs         |$LN8@ContinueEp|
  0161c	e51b3090	 ldr         r3, [r11, #-0x90]
  01620	e283200c	 add         r2, r3, #0xC
  01624	e51b3088	 ldr         r3, [r11, #-0x88]
  01628	e2833008	 add         r3, r3, #8
  0162c	e1d300b0	 ldrh        r0, [r3]
  01630	e5921000	 ldr         r1, [r2]
  01634	eb000000	 bl          __rt_udiv
  01638	e3510000	 cmp         r1, #0
  0163c	1a000004	 bne         |$LN8@ContinueEp|

; 941  :         {
; 942  :             pEP->zlpReq = TRUE;

  01640	e51b3088	 ldr         r3, [r11, #-0x88]
  01644	e2832024	 add         r2, r3, #0x24
  01648	e3a03001	 mov         r3, #1
  0164c	e5823000	 str         r3, [r2]

; 943  :         }
; 944  :         else

  01650	ea000003	 b           |$LN7@ContinueEp|
  01654		 |$LN8@ContinueEp|

; 945  :         {
; 946  :             pEP->zlpReq = FALSE;

  01654	e51b3088	 ldr         r3, [r11, #-0x88]
  01658	e2832024	 add         r2, r3, #0x24
  0165c	e3a03000	 mov         r3, #0
  01660	e5823000	 str         r3, [r2]
  01664		 |$LN7@ContinueEp|
  01664		 |$LN9@ContinueEp|

; 947  :         }
; 948  :     }
; 949  : 
; 950  :     /* Check if we have Transmitted Entire Packet */
; 951  :     if ((pTransfer->cbTransferred == pTransfer->cbBuffer) && !pEP->zlpReq)

  01664	e51b3090	 ldr         r3, [r11, #-0x90]
  01668	e2832010	 add         r2, r3, #0x10
  0166c	e51b3090	 ldr         r3, [r11, #-0x90]
  01670	e283300c	 add         r3, r3, #0xC
  01674	e5922000	 ldr         r2, [r2]
  01678	e5933000	 ldr         r3, [r3]
  0167c	e1520003	 cmp         r2, r3
  01680	1a000025	 bne         |$LN6@ContinueEp|
  01684	e51b3088	 ldr         r3, [r11, #-0x88]
  01688	e2833024	 add         r3, r3, #0x24
  0168c	e5933000	 ldr         r3, [r3]
  01690	e3530000	 cmp         r3, #0
  01694	1a000020	 bne         |$LN6@ContinueEp|

; 952  :     {
; 953  :         PRINTMSG(ZONE_PDD_EP0, (L"ContinueEp0TxTransfer: TX complete\r\n"));

  01698	e59f3494	 ldr         r3, [pc, #0x494]
  0169c	e5933440	 ldr         r3, [r3, #0x440]
  016a0	e3130c02	 tst         r3, #2, 24
  016a4	0a00000f	 beq         |$LN38@ContinueEp|
  016a8	e59f3484	 ldr         r3, [pc, #0x484]
  016ac	e5933440	 ldr         r3, [r3, #0x440]
  016b0	e3130801	 tst         r3, #1, 16
  016b4	0a000004	 beq         |$LN36@ContinueEp|
  016b8	e59f0480	 ldr         r0, [pc, #0x480]
  016bc	eb000000	 bl          CeLogMsg
  016c0	e3a03001	 mov         r3, #1
  016c4	e50b3044	 str         r3, [r11, #-0x44]
  016c8	ea000003	 b           |$LN37@ContinueEp|
  016cc		 |$LN36@ContinueEp|
  016cc	e59f046c	 ldr         r0, [pc, #0x46C]
  016d0	eb000000	 bl          NKDbgPrintfW
  016d4	e3a03000	 mov         r3, #0
  016d8	e50b3044	 str         r3, [r11, #-0x44]
  016dc		 |$LN37@ContinueEp|
  016dc	e3a03001	 mov         r3, #1
  016e0	e50b3040	 str         r3, [r11, #-0x40]
  016e4	ea000001	 b           |$LN39@ContinueEp|
  016e8		 |$LN38@ContinueEp|
  016e8	e3a03000	 mov         r3, #0
  016ec	e50b3040	 str         r3, [r11, #-0x40]
  016f0		 |$LN39@ContinueEp|

; 954  :         pTransfer->dwUsbError = UFN_NO_ERROR;

  016f0	e51b3090	 ldr         r3, [r11, #-0x90]
  016f4	e2832014	 add         r2, r3, #0x14
  016f8	e3a03000	 mov         r3, #0
  016fc	e5823000	 str         r3, [r2]

; 955  :         complete       = TRUE;

  01700	e3a03001	 mov         r3, #1
  01704	e50b3084	 str         r3, [r11, #-0x84]

; 956  :         pEP->epStage   = MGC_END0_START;

  01708	e51b3088	 ldr         r3, [r11, #-0x88]
  0170c	e283201c	 add         r2, r3, #0x1C
  01710	e3a03001	 mov         r3, #1
  01714	e5823000	 str         r3, [r2]

; 957  :         goto cleanUp;

  01718	ea000089	 b           |$cleanUp$47912|
  0171c		 |$LN6@ContinueEp|
  0171c		 |$LN69@ContinueEp|

; 958  :     }
; 959  : 
; 960  :     __try
; 961  :     {
; 962  :         pBuffer = (UCHAR*)pTransfer->pvBuffer + pTransfer->cbTransferred;

  0171c	e51b3090	 ldr         r3, [r11, #-0x90]
  01720	e2832004	 add         r2, r3, #4
  01724	e51b3090	 ldr         r3, [r11, #-0x90]
  01728	e2833010	 add         r3, r3, #0x10
  0172c	e5922000	 ldr         r2, [r2]
  01730	e5933000	 ldr         r3, [r3]
  01734	e0823003	 add         r3, r2, r3
  01738	e50b30a4	 str         r3, [r11, #-0xA4]

; 963  :         space = pTransfer->cbBuffer - pTransfer->cbTransferred;

  0173c	e51b3090	 ldr         r3, [r11, #-0x90]
  01740	e283200c	 add         r2, r3, #0xC
  01744	e51b3090	 ldr         r3, [r11, #-0x90]
  01748	e2833010	 add         r3, r3, #0x10
  0174c	e5922000	 ldr         r2, [r2]
  01750	e5933000	 ldr         r3, [r3]
  01754	e0423003	 sub         r3, r2, r3
  01758	e50b30a0	 str         r3, [r11, #-0xA0]

; 964  : 
; 965  :         /* How many bytes we can send just now? */
; 966  :         remain = pEP->maxPacketSize;

  0175c	e51b3088	 ldr         r3, [r11, #-0x88]
  01760	e2833008	 add         r3, r3, #8
  01764	e1d330b0	 ldrh        r3, [r3]
  01768	e50b3098	 str         r3, [r11, #-0x98]

; 967  :         if (remain > space) remain = space;

  0176c	e51b2098	 ldr         r2, [r11, #-0x98]
  01770	e51b30a0	 ldr         r3, [r11, #-0xA0]
  01774	e1520003	 cmp         r2, r3
  01778	9a000001	 bls         |$LN4@ContinueEp|
  0177c	e51b30a0	 ldr         r3, [r11, #-0xA0]
  01780	e50b3098	 str         r3, [r11, #-0x98]
  01784		 |$LN4@ContinueEp|

; 968  : 
; 969  :         /* Final ZLP? */
; 970  :         if (remain == 0 && pEP->zlpReq)

  01784	e51b3098	 ldr         r3, [r11, #-0x98]
  01788	e3530000	 cmp         r3, #0
  0178c	1a000008	 bne         |$LN3@ContinueEp|
  01790	e51b3088	 ldr         r3, [r11, #-0x88]
  01794	e2833024	 add         r3, r3, #0x24
  01798	e5933000	 ldr         r3, [r3]
  0179c	e3530000	 cmp         r3, #0
  017a0	0a000003	 beq         |$LN3@ContinueEp|

; 971  :             pEP->zlpReq = FALSE;

  017a4	e51b3088	 ldr         r3, [r11, #-0x88]
  017a8	e2832024	 add         r2, r3, #0x24
  017ac	e3a03000	 mov         r3, #0
  017b0	e5823000	 str         r3, [r2]
  017b4		 |$LN3@ContinueEp|

; 972  : 
; 973  : 		/* Write data to FIFO */
; 974  :         PRINTMSG(ZONE_PDD_EP0, (L"ContinueEp0TxTransfer: Writing %d bytes to FIFO\r\n", remain));

  017b4	e59f3378	 ldr         r3, [pc, #0x378]
  017b8	e5933440	 ldr         r3, [r3, #0x440]
  017bc	e3130c02	 tst         r3, #2, 24
  017c0	0a000011	 beq         |$LN42@ContinueEp|
  017c4	e59f3368	 ldr         r3, [pc, #0x368]
  017c8	e5933440	 ldr         r3, [r3, #0x440]
  017cc	e3130801	 tst         r3, #1, 16
  017d0	0a000005	 beq         |$LN40@ContinueEp|
  017d4	e51b1098	 ldr         r1, [r11, #-0x98]
  017d8	e59f035c	 ldr         r0, [pc, #0x35C]
  017dc	eb000000	 bl          CeLogMsg
  017e0	e3a03001	 mov         r3, #1
  017e4	e50b303c	 str         r3, [r11, #-0x3C]
  017e8	ea000004	 b           |$LN41@ContinueEp|
  017ec		 |$LN40@ContinueEp|
  017ec	e51b1098	 ldr         r1, [r11, #-0x98]
  017f0	e59f0344	 ldr         r0, [pc, #0x344]
  017f4	eb000000	 bl          NKDbgPrintfW
  017f8	e3a03000	 mov         r3, #0
  017fc	e50b303c	 str         r3, [r11, #-0x3C]
  01800		 |$LN41@ContinueEp|
  01800	e3a03001	 mov         r3, #1
  01804	e50b3038	 str         r3, [r11, #-0x38]
  01808	ea000001	 b           |$LN43@ContinueEp|
  0180c		 |$LN42@ContinueEp|
  0180c	e3a03000	 mov         r3, #0
  01810	e50b3038	 str         r3, [r11, #-0x38]
  01814		 |$LN43@ContinueEp|

; 975  : 		WriteFIFO(pPdd, (UCHAR)endPoint, pBuffer, remain);

  01814	e51b3098	 ldr         r3, [r11, #-0x98]
  01818	e51b20a4	 ldr         r2, [r11, #-0xA4]
  0181c	e59b1004	 ldr         r1, [r11, #4]
  01820	e20110ff	 and         r1, r1, #0xFF
  01824	e59b0000	 ldr         r0, [r11]
  01828	eb000000	 bl          WriteFIFO

; 976  : 
; 977  : 		/* We transfered some data */
; 978  :         //pTransfer->cbTransferred = pTransfer->cbBuffer - space;
; 979  :         pTransfer->cbTransferred += remain;

  0182c	e51b3090	 ldr         r3, [r11, #-0x90]
  01830	e2833010	 add         r3, r3, #0x10
  01834	e5932000	 ldr         r2, [r3]
  01838	e51b3098	 ldr         r3, [r11, #-0x98]
  0183c	e0822003	 add         r2, r2, r3
  01840	e51b3090	 ldr         r3, [r11, #-0x90]
  01844	e2833010	 add         r3, r3, #0x10
  01848	e5832000	 str         r2, [r3]
  0184c		 |$LN70@ContinueEp|

; 980  :     }

  0184c	ea00001c	 b           |$LN71@ContinueEp|
  01850		 |$LN66@ContinueEp|

; 982  :     {
; 983  :         pTransfer->dwUsbError = UFN_CLIENT_BUFFER_ERROR;

  01850	e51b3090	 ldr         r3, [r11, #-0x90]
  01854	e2832014	 add         r2, r3, #0x14
  01858	e3a03f41	 mov         r3, #0x41, 30
  0185c	e5823000	 str         r3, [r2]

; 984  :         complete = TRUE;

  01860	e3a03001	 mov         r3, #1
  01864	e50b3084	 str         r3, [r11, #-0x84]

; 985  :         PRINTMSG(ZONE_ERROR, (L"ContinueEp0TxTransfer: Client buffer exception!\r\n"));

  01868	e59f32c4	 ldr         r3, [pc, #0x2C4]
  0186c	e5933440	 ldr         r3, [r3, #0x440]
  01870	e3130001	 tst         r3, #1
  01874	0a00000f	 beq         |$LN46@ContinueEp|
  01878	e59f32b4	 ldr         r3, [pc, #0x2B4]
  0187c	e5933440	 ldr         r3, [r3, #0x440]
  01880	e3130801	 tst         r3, #1, 16
  01884	0a000004	 beq         |$LN44@ContinueEp|
  01888	e59f02a8	 ldr         r0, [pc, #0x2A8]
  0188c	eb000000	 bl          CeLogMsg
  01890	e3a03001	 mov         r3, #1
  01894	e50b3034	 str         r3, [r11, #-0x34]
  01898	ea000003	 b           |$LN45@ContinueEp|
  0189c		 |$LN44@ContinueEp|
  0189c	e59f0294	 ldr         r0, [pc, #0x294]
  018a0	eb000000	 bl          NKDbgPrintfW
  018a4	e3a03000	 mov         r3, #0
  018a8	e50b3034	 str         r3, [r11, #-0x34]
  018ac		 |$LN45@ContinueEp|
  018ac	e3a03001	 mov         r3, #1
  018b0	e50b3030	 str         r3, [r11, #-0x30]
  018b4	ea000001	 b           |$LN47@ContinueEp|
  018b8		 |$LN46@ContinueEp|
  018b8	e3a03000	 mov         r3, #0
  018bc	e50b3030	 str         r3, [r11, #-0x30]
  018c0		 |$LN47@ContinueEp|
  018c0	eaffffff	 b           |$LN71@ContinueEp|
  018c4		 |$LN71@ContinueEp|

; 986  :     }
; 987  : 
; 988  :     /* Inform the USB Core that There is data in the FIFO */
; 989  :     ep0CsrReg &= MGC_EP0_STALL_BITS;

  018c4	e15b39b4	 ldrh        r3, [r11, #-0x94]
  018c8	e2033024	 and         r3, r3, #0x24
  018cc	e1a03803	 mov         r3, r3, lsl #16
  018d0	e1a03823	 mov         r3, r3, lsr #16
  018d4	e14b39b4	 strh        r3, [r11, #-0x94]

; 990  :     ep0CsrReg |= MGC_M_CSR0_TXPKTRDY;

  018d8	e15b39b4	 ldrh        r3, [r11, #-0x94]
  018dc	e3833002	 orr         r3, r3, #2
  018e0	e1a03803	 mov         r3, r3, lsl #16
  018e4	e1a03823	 mov         r3, r3, lsr #16
  018e8	e14b39b4	 strh        r3, [r11, #-0x94]

; 991  : 
; 992  :     /* Check if we have Transmitted Entire Packet */
; 993  :     if (pTransfer->cbTransferred == pTransfer->cbBuffer && !pEP->zlpReq)

  018ec	e51b3090	 ldr         r3, [r11, #-0x90]
  018f0	e2832010	 add         r2, r3, #0x10
  018f4	e51b3090	 ldr         r3, [r11, #-0x90]
  018f8	e283300c	 add         r3, r3, #0xC
  018fc	e5922000	 ldr         r2, [r2]
  01900	e5933000	 ldr         r3, [r3]
  01904	e1520003	 cmp         r2, r3
  01908	1a00000d	 bne         |$LN2@ContinueEp|
  0190c	e51b3088	 ldr         r3, [r11, #-0x88]
  01910	e2833024	 add         r3, r3, #0x24
  01914	e5933000	 ldr         r3, [r3]
  01918	e3530000	 cmp         r3, #0
  0191c	1a000008	 bne         |$LN2@ContinueEp|

; 994  :     {
; 995  :         ep0CsrReg |= MGC_M_CSR0_P_DATAEND;

  01920	e15b39b4	 ldrh        r3, [r11, #-0x94]
  01924	e3833008	 orr         r3, r3, #8
  01928	e1a03803	 mov         r3, r3, lsl #16
  0192c	e1a03823	 mov         r3, r3, lsr #16
  01930	e14b39b4	 strh        r3, [r11, #-0x94]

; 996  : 
; 997  :         /* Now wait for final interrupt before completing TX */
; 998  :         pEP->epStage = MGC_END0_STAGE_STATUSOUT;

  01934	e51b3088	 ldr         r3, [r11, #-0x88]
  01938	e283201c	 add         r2, r3, #0x1C
  0193c	e3a03005	 mov         r3, #5
  01940	e5823000	 str         r3, [r2]
  01944		 |$LN2@ContinueEp|
  01944		 |$cleanUp$47912|

; 999  :     }
; 1000 : 
; 1001 : cleanUp:
; 1002 :     (*pepCtrlReg) = ep0CsrReg;

  01944	e15b29b4	 ldrh        r2, [r11, #-0x94]
  01948	e51b309c	 ldr         r3, [r11, #-0x9C]
  0194c	e1c320b0	 strh        r2, [r3]

; 1003 : 
; 1004 :     /* Leave CriticalSection */
; 1005 :     UNLOCK_ENDPOINT(pPdd);

  01950	e59b3000	 ldr         r3, [r11]
  01954	e2830e27	 add         r0, r3, #0x27, 28
  01958	eb000000	 bl          LeaveCriticalSection

; 1006 : 
; 1007 :     PRINTMSG(FALSE, /*TRUE, ZONE_SEND*/
; 1008 :         (L"Wrote 0x%02x into EP%u_CSR_REG\r\n", ep0CsrReg, endPoint));
; 1009 : 
; 1010 :     /* If transaction is complete we should tell MDD */
; 1011 :     if (complete == TRUE)

  0195c	e51b3084	 ldr         r3, [r11, #-0x84]
  01960	e3530001	 cmp         r3, #1
  01964	1a000069	 bne         |$LN1@ContinueEp|

; 1012 :     {
; 1013 :         PRINTMSG(ZONE_PDD_EP0,
; 1014 :                  (L"ContinueEp0TxTransfer: "
; 1015 :                   L"pTransfer 0x%08x (%d, %d, 0x%0x) - notify complete\r\n",
; 1016 :                   pTransfer, pTransfer != NULL ? pTransfer->cbBuffer : 0,
; 1017 :                   pTransfer != NULL ? pTransfer->cbTransferred : 0,
; 1018 :                   pTransfer != NULL ? pTransfer->dwUsbError : -1));

  01968	e59f31c4	 ldr         r3, [pc, #0x1C4]
  0196c	e5933440	 ldr         r3, [r3, #0x440]
  01970	e3130c02	 tst         r3, #2, 24
  01974	0a000055	 beq         |$LN62@ContinueEp|
  01978	e59f31b4	 ldr         r3, [pc, #0x1B4]
  0197c	e5933440	 ldr         r3, [r3, #0x440]
  01980	e3130801	 tst         r3, #1, 16
  01984	0a000027	 beq         |$LN60@ContinueEp|
  01988	e51b3090	 ldr         r3, [r11, #-0x90]
  0198c	e3530000	 cmp         r3, #0
  01990	0a000004	 beq         |$LN48@ContinueEp|
  01994	e51b3090	 ldr         r3, [r11, #-0x90]
  01998	e2833014	 add         r3, r3, #0x14
  0199c	e5933000	 ldr         r3, [r3]
  019a0	e50b302c	 str         r3, [r11, #-0x2C]
  019a4	ea000001	 b           |$LN49@ContinueEp|
  019a8		 |$LN48@ContinueEp|
  019a8	e3e03000	 mvn         r3, #0
  019ac	e50b302c	 str         r3, [r11, #-0x2C]
  019b0		 |$LN49@ContinueEp|
  019b0	e51b3090	 ldr         r3, [r11, #-0x90]
  019b4	e3530000	 cmp         r3, #0
  019b8	0a000004	 beq         |$LN50@ContinueEp|
  019bc	e51b3090	 ldr         r3, [r11, #-0x90]
  019c0	e2833010	 add         r3, r3, #0x10
  019c4	e5933000	 ldr         r3, [r3]
  019c8	e50b3028	 str         r3, [r11, #-0x28]
  019cc	ea000001	 b           |$LN51@ContinueEp|
  019d0		 |$LN50@ContinueEp|
  019d0	e3a03000	 mov         r3, #0
  019d4	e50b3028	 str         r3, [r11, #-0x28]
  019d8		 |$LN51@ContinueEp|
  019d8	e51b3090	 ldr         r3, [r11, #-0x90]
  019dc	e3530000	 cmp         r3, #0
  019e0	0a000004	 beq         |$LN52@ContinueEp|
  019e4	e51b3090	 ldr         r3, [r11, #-0x90]
  019e8	e283300c	 add         r3, r3, #0xC
  019ec	e5933000	 ldr         r3, [r3]
  019f0	e50b3024	 str         r3, [r11, #-0x24]
  019f4	ea000001	 b           |$LN53@ContinueEp|
  019f8		 |$LN52@ContinueEp|
  019f8	e3a03000	 mov         r3, #0
  019fc	e50b3024	 str         r3, [r11, #-0x24]
  01a00		 |$LN53@ContinueEp|
  01a00	e51b302c	 ldr         r3, [r11, #-0x2C]
  01a04	e58d3000	 str         r3, [sp]
  01a08	e51b3028	 ldr         r3, [r11, #-0x28]
  01a0c	e51b2024	 ldr         r2, [r11, #-0x24]
  01a10	e51b1090	 ldr         r1, [r11, #-0x90]
  01a14	e59f0114	 ldr         r0, [pc, #0x114]
  01a18	eb000000	 bl          CeLogMsg
  01a1c	e3a03001	 mov         r3, #1
  01a20	e50b3020	 str         r3, [r11, #-0x20]
  01a24	ea000026	 b           |$LN61@ContinueEp|
  01a28		 |$LN60@ContinueEp|
  01a28	e51b3090	 ldr         r3, [r11, #-0x90]
  01a2c	e3530000	 cmp         r3, #0
  01a30	0a000004	 beq         |$LN54@ContinueEp|
  01a34	e51b3090	 ldr         r3, [r11, #-0x90]
  01a38	e2833014	 add         r3, r3, #0x14
  01a3c	e5933000	 ldr         r3, [r3]
  01a40	e50b301c	 str         r3, [r11, #-0x1C]
  01a44	ea000001	 b           |$LN55@ContinueEp|
  01a48		 |$LN54@ContinueEp|
  01a48	e3e03000	 mvn         r3, #0
  01a4c	e50b301c	 str         r3, [r11, #-0x1C]
  01a50		 |$LN55@ContinueEp|
  01a50	e51b3090	 ldr         r3, [r11, #-0x90]
  01a54	e3530000	 cmp         r3, #0
  01a58	0a000004	 beq         |$LN56@ContinueEp|
  01a5c	e51b3090	 ldr         r3, [r11, #-0x90]
  01a60	e2833010	 add         r3, r3, #0x10
  01a64	e5933000	 ldr         r3, [r3]
  01a68	e50b3018	 str         r3, [r11, #-0x18]
  01a6c	ea000001	 b           |$LN57@ContinueEp|
  01a70		 |$LN56@ContinueEp|
  01a70	e3a03000	 mov         r3, #0
  01a74	e50b3018	 str         r3, [r11, #-0x18]
  01a78		 |$LN57@ContinueEp|
  01a78	e51b3090	 ldr         r3, [r11, #-0x90]
  01a7c	e3530000	 cmp         r3, #0
  01a80	0a000004	 beq         |$LN58@ContinueEp|
  01a84	e51b3090	 ldr         r3, [r11, #-0x90]
  01a88	e283300c	 add         r3, r3, #0xC
  01a8c	e5933000	 ldr         r3, [r3]
  01a90	e50b3014	 str         r3, [r11, #-0x14]
  01a94	ea000001	 b           |$LN59@ContinueEp|
  01a98		 |$LN58@ContinueEp|
  01a98	e3a03000	 mov         r3, #0
  01a9c	e50b3014	 str         r3, [r11, #-0x14]
  01aa0		 |$LN59@ContinueEp|
  01aa0	e51b301c	 ldr         r3, [r11, #-0x1C]
  01aa4	e58d3000	 str         r3, [sp]
  01aa8	e51b3018	 ldr         r3, [r11, #-0x18]
  01aac	e51b2014	 ldr         r2, [r11, #-0x14]
  01ab0	e51b1090	 ldr         r1, [r11, #-0x90]
  01ab4	e59f0074	 ldr         r0, [pc, #0x74]
  01ab8	eb000000	 bl          NKDbgPrintfW
  01abc	e3a03000	 mov         r3, #0
  01ac0	e50b3020	 str         r3, [r11, #-0x20]
  01ac4		 |$LN61@ContinueEp|
  01ac4	e3a03001	 mov         r3, #1
  01ac8	e50b3010	 str         r3, [r11, #-0x10]
  01acc	ea000001	 b           |$LN63@ContinueEp|
  01ad0		 |$LN62@ContinueEp|
  01ad0	e3a03000	 mov         r3, #0
  01ad4	e50b3010	 str         r3, [r11, #-0x10]
  01ad8		 |$LN63@ContinueEp|

; 1019 : 
; 1020 :         pEP->pTransfer = NULL;

  01ad8	e51b3088	 ldr         r3, [r11, #-0x88]
  01adc	e2832020	 add         r2, r3, #0x20
  01ae0	e3a03000	 mov         r3, #0
  01ae4	e5823000	 str         r3, [r2]

; 1021 :         pPdd->pfnNotify (pPdd->pMddContext, UFN_MSG_TRANSFER_COMPLETE,
; 1022 :                          (DWORD)pTransfer);

  01ae8	e51b2090	 ldr         r2, [r11, #-0x90]
  01aec	e3a01064	 mov         r1, #0x64
  01af0	e59b3000	 ldr         r3, [r11]
  01af4	e2833010	 add         r3, r3, #0x10
  01af8	e5930000	 ldr         r0, [r3]
  01afc	e59b3000	 ldr         r3, [r11]
  01b00	e2833014	 add         r3, r3, #0x14
  01b04	e5933000	 ldr         r3, [r3]
  01b08	e1a0e00f	 mov         lr, pc
  01b0c	e12fff13	 bx          r3
  01b10		 |$LN1@ContinueEp|
  01b10		 |$done$47904|
  01b10		 |$LN64@ContinueEp|

; 1023 :     }
; 1024 : 
; 1025 : done:
; 1026 :     return ;
; 1027 : }

  01b10	e24bd00c	 sub         sp, r11, #0xC
  01b14	e89d6800	 ldmia       sp, {r11, sp, lr}
  01b18	e12fff1e	 bx          lr

			 ENDP  ; |ContinueEp0TxTransfer|

  01b1c		 |$LN65@ContinueEp|
  01b1c		 |$LN74@ContinueEp|

; 981  :     __except(EXCEPTION_EXECUTE_HANDLER)

  01b1c	e52de004	 str         lr, [sp, #-4]!
  01b20	e24dd004	 sub         sp, sp, #4
  01b24		 |$LN68@ContinueEp|
  01b24		 |$LN77@ContinueEp|
  01b24	e3a00001	 mov         r0, #1
  01b28		 |$LN67@ContinueEp|
  01b28	e28dd004	 add         sp, sp, #4
  01b2c	e49df004	 ldr         pc, [sp], #4
  01b30		 |$LN79@ContinueEp|
  01b30		 |$LN80@ContinueEp|
  01b30	00000000	 DCD         |??_C@_1JI@DBBJKFPC@?$AAC?$AAo?$AAn?$AAt?$AAi?$AAn?$AAu?$AAe?$AAE?$AAp?$AA0?$AAT?$AAx?$AAT?$AAr?$AAa?$AAn?$AAs?$AAf?$AAe?$AAr?$AA?3?$AA?5?$AAp?$AAT?$AAr?$AAa?$AAn?$AAs?$AAf?$AAe?$AAr@|
  01b34		 |$LN81@ContinueEp|
  01b34	00000000	 DCD         |dpCurSettings|
  01b38		 |$LN82@ContinueEp|
  01b38	00000000	 DCD         |??_C@_1GE@DIHKIOJL@?$AAC?$AAo?$AAn?$AAt?$AAi?$AAn?$AAu?$AAe?$AAE?$AAp?$AA0?$AAT?$AAx?$AAT?$AAr?$AAa?$AAn?$AAs?$AAf?$AAe?$AAr?$AA?3?$AA?5?$AAC?$AAl?$AAi?$AAe?$AAn?$AAt?$AA?5?$AAb?$AAu@|
  01b3c		 |$LN83@ContinueEp|
  01b3c	00000000	 DCD         |??_C@_1GE@KIOKMDN@?$AAC?$AAo?$AAn?$AAt?$AAi?$AAn?$AAu?$AAe?$AAE?$AAp?$AA0?$AAT?$AAx?$AAT?$AAr?$AAa?$AAn?$AAs?$AAf?$AAe?$AAr?$AA?3?$AA?5?$AAW?$AAr?$AAi?$AAt?$AAi?$AAn?$AAg?$AA?5?$AA?$CF@|
  01b40		 |$LN84@ContinueEp|
  01b40	00000000	 DCD         |??_C@_1EK@EFPMDAOF@?$AAC?$AAo?$AAn?$AAt?$AAi?$AAn?$AAu?$AAe?$AAE?$AAp?$AA0?$AAT?$AAx?$AAT?$AAr?$AAa?$AAn?$AAs?$AAf?$AAe?$AAr?$AA?3?$AA?5?$AAT?$AAX?$AA?5?$AAc?$AAo?$AAm?$AAp?$AAl?$AAe@|
  01b44		 |$LN85@ContinueEp|
  01b44	00000000	 DCD         |??_C@_1FA@PIGNFLGJ@?$AAC?$AAo?$AAn?$AAt?$AAi?$AAn?$AAu?$AAe?$AAE?$AAp?$AA0?$AAT?$AAx?$AAT?$AAr?$AAa?$AAn?$AAs?$AAf?$AAe?$AAr?$AA?3?$AA?5?$AAT?$AAr?$AAa?$AAn?$AAs?$AAf?$AAe?$AAr?$AA?5@|
  01b48		 |$LN86@ContinueEp|
  01b48	00000000	 DCD         |??_C@_1HE@PLBLDDGJ@?$AAC?$AAo?$AAn?$AAt?$AAi?$AAn?$AAu?$AAe?$AAE?$AAp?$AA0?$AAT?$AAx?$AAT?$AAr?$AAa?$AAn?$AAs?$AAf?$AAe?$AAr?$AA?3?$AA?5?$AAp?$AAT?$AAr?$AAa?$AAn?$AAs?$AAf?$AAe?$AAr@|
  01b4c		 |$LN87@ContinueEp|
  01b4c	00000000	 DCD         |??_C@_1FK@FNONLNGN@?$AA?$CF?$AAs?$AA?3?$AA?5?$AAD?$AAE?$AAB?$AAU?$AAG?$AAC?$AAH?$AAK?$AA?5?$AAf?$AAa?$AAi?$AAl?$AAe?$AAd?$AA?5?$AAi?$AAn?$AA?5?$AAf?$AAi?$AAl?$AAe?$AA?5?$AA?$CF?$AAs?$AA?5?$AAa@|
  01b50		 |$LN88@ContinueEp|
  01b50	00000000	 DCD         |??_C@_1JO@JAGHJEHH@?$AAC?$AA?3?$AA?2?$AAW?$AAI?$AAN?$AAC?$AAE?$AA6?$AA0?$AA0?$AA?2?$AAP?$AAL?$AAA?$AAT?$AAF?$AAO?$AAR?$AAM?$AA?2?$AAC?$AAO?$AAM?$AAM?$AAO?$AAN?$AA?2?$AAS?$AAR?$AAC?$AA?2@|
  01b54		 |$LN78@ContinueEp|
  01b54		 |$LN76@ContinueEp|
	EXPORT	|??_C@_1KA@FGPAKDNB@?$AAC?$AAo?$AAn?$AAt?$AAi?$AAn?$AAu?$AAe?$AAT?$AAx?$AAT?$AAr?$AAa?$AAn?$AAs?$AAf?$AAe?$AAr?$AA?3?$AA?5?$AAE?$AAP?$AA?5?$AA?$CF?$AAd?$AA?0?$AA?5?$AAp?$AAT?$AAr?$AAa?$AAn@| [ DATA ] ; `string'
	EXPORT	|??_C@_1FO@HGHNNFMK@?$AAC?$AAo?$AAn?$AAt?$AAi?$AAn?$AAu?$AAe?$AAT?$AAx?$AAT?$AAr?$AAa?$AAn?$AAs?$AAf?$AAe?$AAr?$AA?3?$AA?5?$AAE?$AAP?$AA?5?$AA?$CF?$AAd?$AA?0?$AA?5?$AAa?$AAl?$AAl?$AA?5?$AAb@| [ DATA ] ; `string'
	EXPORT	|??_C@_1GA@LDKCJJJF@?$AAC?$AAo?$AAn?$AAt?$AAi?$AAn?$AAu?$AAe?$AA0?$AAT?$AAx?$AAT?$AAr?$AAa?$AAn?$AAs?$AAf?$AAe?$AAr?$AA?3?$AA?5?$AAC?$AAl?$AAi?$AAe?$AAn?$AAt?$AA?5?$AAb?$AAu?$AAf?$AAf@| [ DATA ] ; `string'
	EXPORT	|??_C@_1IG@IFHOFDOO@?$AAC?$AAo?$AAn?$AAt?$AAi?$AAn?$AAu?$AAe?$AAT?$AAx?$AAT?$AAr?$AAa?$AAn?$AAs?$AAf?$AAe?$AAr?$AA?3?$AA?5?$AAE?$AAP?$AA?5?$AA?$CF?$AAd?$AA?0?$AA?5?$AAW?$AAr?$AAi?$AAt?$AAi@| [ DATA ] ; `string'
	EXPORT	|??_C@_1HI@PMGODKCP@?$AAC?$AAo?$AAn?$AAt?$AAi?$AAn?$AAu?$AAe?$AAT?$AAx?$AAT?$AAr?$AAa?$AAn?$AAs?$AAf?$AAe?$AAr?$AA?3?$AA?5?$AAE?$AAP?$AA?5?$AA?$CF?$AAd?$AA?0?$AA?5?$AAE?$AAr?$AAr?$AAo?$AAr@| [ DATA ] ; `string'
	EXPORT	|??_C@_1FC@GLEDEEDN@?$AAC?$AAo?$AAn?$AAt?$AAi?$AAn?$AAu?$AAe?$AAT?$AAx?$AAT?$AAr?$AAa?$AAn?$AAs?$AAf?$AAe?$AAr?$AA?3?$AA?5?$AAE?$AAP?$AA?5?$AA?$CF?$AAd?$AA?0?$AA?5?$AAT?$AAX?$AA?5?$AAc?$AAo@| [ DATA ] ; `string'
	EXPORT	|??_C@_1FI@HNJALGAC@?$AAC?$AAo?$AAn?$AAt?$AAi?$AAn?$AAu?$AAe?$AAT?$AAx?$AAT?$AAr?$AAa?$AAn?$AAs?$AAf?$AAe?$AAr?$AA?3?$AA?5?$AAE?$AAP?$AA?5?$AA?$CF?$AAd?$AA?0?$AA?5?$AAT?$AAr?$AAa?$AAn?$AAs@| [ DATA ] ; `string'
	EXPORT	|??_C@_1HM@PDNNCAHI@?$AAC?$AAo?$AAn?$AAt?$AAi?$AAn?$AAu?$AAe?$AAT?$AAx?$AAT?$AAr?$AAa?$AAn?$AAs?$AAf?$AAe?$AAr?$AA?3?$AA?5?$AAE?$AAP?$AA?5?$AA?$CF?$AAd?$AA?0?$AA?5?$AAp?$AAT?$AAr?$AAa?$AAn@| [ DATA ] ; `string'
	EXPORT	|ContinueTxTransfer|

  00050			 AREA	 |.pdata|, PDATA
|$T49639| DCD	|$LN79@ContinueTx|
	DCD	0xc0024805
|$T49641| DCD	|$LN69@ContinueTx|
	DCD	0x40001002

  00000			 AREA	 |.rdata|, DATA, READONLY
|??_C@_1KA@FGPAKDNB@?$AAC?$AAo?$AAn?$AAt?$AAi?$AAn?$AAu?$AAe?$AAT?$AAx?$AAT?$AAr?$AAa?$AAn?$AAs?$AAf?$AAe?$AAr?$AA?3?$AA?5?$AAE?$AAP?$AA?5?$AA?$CF?$AAd?$AA?0?$AA?5?$AAp?$AAT?$AAr?$AAa?$AAn@| DCB "C"
	DCB	0x0, "o", 0x0, "n", 0x0, "t", 0x0, "i", 0x0, "n", 0x0, "u"
	DCB	0x0, "e", 0x0, "T", 0x0, "x", 0x0, "T", 0x0, "r", 0x0, "a"
	DCB	0x0, "n", 0x0, "s", 0x0, "f", 0x0, "e", 0x0, "r", 0x0, ":"
	DCB	0x0, " ", 0x0, "E", 0x0, "P", 0x0, " ", 0x0, "%", 0x0, "d"
	DCB	0x0, ",", 0x0, " ", 0x0, "p", 0x0, "T", 0x0, "r", 0x0, "a"
	DCB	0x0, "n", 0x0, "s", 0x0, "f", 0x0, "e", 0x0, "r", 0x0, " "
	DCB	0x0, "0", 0x0, "x", 0x0, "%", 0x0, "0", 0x0, "8", 0x0, "x"
	DCB	0x0, " ", 0x0, "(", 0x0, "%", 0x0, "d", 0x0, ",", 0x0, " "
	DCB	0x0, "%", 0x0, "d", 0x0, ",", 0x0, " ", 0x0, "0", 0x0, "x"
	DCB	0x0, "%", 0x0, "0", 0x0, "x", 0x0, ")", 0x0, " ", 0x0, "-"
	DCB	0x0, " ", 0x0, "n", 0x0, "o", 0x0, "t", 0x0, "i", 0x0, "f"
	DCB	0x0, "y", 0x0, " ", 0x0, "c", 0x0, "o", 0x0, "m", 0x0, "p"
	DCB	0x0, "l", 0x0, "e", 0x0, "t", 0x0, "e", 0x0, 0xd, 0x0, 0xa
	DCB	0x0, 0x0, 0x0				; `string'

  00000			 AREA	 |.rdata|, DATA, READONLY
|??_C@_1FO@HGHNNFMK@?$AAC?$AAo?$AAn?$AAt?$AAi?$AAn?$AAu?$AAe?$AAT?$AAx?$AAT?$AAr?$AAa?$AAn?$AAs?$AAf?$AAe?$AAr?$AA?3?$AA?5?$AAE?$AAP?$AA?5?$AA?$CF?$AAd?$AA?0?$AA?5?$AAa?$AAl?$AAl?$AA?5?$AAb@| DCB "C"
	DCB	0x0, "o", 0x0, "n", 0x0, "t", 0x0, "i", 0x0, "n", 0x0, "u"
	DCB	0x0, "e", 0x0, "T", 0x0, "x", 0x0, "T", 0x0, "r", 0x0, "a"
	DCB	0x0, "n", 0x0, "s", 0x0, "f", 0x0, "e", 0x0, "r", 0x0, ":"
	DCB	0x0, " ", 0x0, "E", 0x0, "P", 0x0, " ", 0x0, "%", 0x0, "d"
	DCB	0x0, ",", 0x0, " ", 0x0, "a", 0x0, "l", 0x0, "l", 0x0, " "
	DCB	0x0, "b", 0x0, "y", 0x0, "t", 0x0, "e", 0x0, "s", 0x0, " "
	DCB	0x0, "w", 0x0, "r", 0x0, "i", 0x0, "t", 0x0, "t", 0x0, "e"
	DCB	0x0, "n", 0x0, 0xd, 0x0, 0xa, 0x0, 0x0, 0x0 ; `string'

  00000			 AREA	 |.rdata|, DATA, READONLY
|??_C@_1GA@LDKCJJJF@?$AAC?$AAo?$AAn?$AAt?$AAi?$AAn?$AAu?$AAe?$AA0?$AAT?$AAx?$AAT?$AAr?$AAa?$AAn?$AAs?$AAf?$AAe?$AAr?$AA?3?$AA?5?$AAC?$AAl?$AAi?$AAe?$AAn?$AAt?$AA?5?$AAb?$AAu?$AAf?$AAf@| DCB "C"
	DCB	0x0, "o", 0x0, "n", 0x0, "t", 0x0, "i", 0x0, "n", 0x0, "u"
	DCB	0x0, "e", 0x0, "0", 0x0, "T", 0x0, "x", 0x0, "T", 0x0, "r"
	DCB	0x0, "a", 0x0, "n", 0x0, "s", 0x0, "f", 0x0, "e", 0x0, "r"
	DCB	0x0, ":", 0x0, " ", 0x0, "C", 0x0, "l", 0x0, "i", 0x0, "e"
	DCB	0x0, "n", 0x0, "t", 0x0, " ", 0x0, "b", 0x0, "u", 0x0, "f"
	DCB	0x0, "f", 0x0, "e", 0x0, "r", 0x0, " ", 0x0, "e", 0x0, "x"
	DCB	0x0, "c", 0x0, "e", 0x0, "p", 0x0, "t", 0x0, "i", 0x0, "o"
	DCB	0x0, "n", 0x0, "!", 0x0, 0xd, 0x0, 0xa, 0x0, 0x0, 0x0 ; `string'

  00000			 AREA	 |.rdata|, DATA, READONLY
|??_C@_1IG@IFHOFDOO@?$AAC?$AAo?$AAn?$AAt?$AAi?$AAn?$AAu?$AAe?$AAT?$AAx?$AAT?$AAr?$AAa?$AAn?$AAs?$AAf?$AAe?$AAr?$AA?3?$AA?5?$AAE?$AAP?$AA?5?$AA?$CF?$AAd?$AA?0?$AA?5?$AAW?$AAr?$AAi?$AAt?$AAi@| DCB "C"
	DCB	0x0, "o", 0x0, "n", 0x0, "t", 0x0, "i", 0x0, "n", 0x0, "u"
	DCB	0x0, "e", 0x0, "T", 0x0, "x", 0x0, "T", 0x0, "r", 0x0, "a"
	DCB	0x0, "n", 0x0, "s", 0x0, "f", 0x0, "e", 0x0, "r", 0x0, ":"
	DCB	0x0, " ", 0x0, "E", 0x0, "P", 0x0, " ", 0x0, "%", 0x0, "d"
	DCB	0x0, ",", 0x0, " ", 0x0, "W", 0x0, "r", 0x0, "i", 0x0, "t"
	DCB	0x0, "i", 0x0, "n", 0x0, "g", 0x0, " ", 0x0, "%", 0x0, "d"
	DCB	0x0, " ", 0x0, "b", 0x0, "y", 0x0, "t", 0x0, "e", 0x0, "s"
	DCB	0x0, ",", 0x0, " ", 0x0, "m", 0x0, "a", 0x0, "x", 0x0, "S"
	DCB	0x0, "i", 0x0, "z", 0x0, "e", 0x0, " ", 0x0, "%", 0x0, "d"
	DCB	0x0, ",", 0x0, " ", 0x0, "l", 0x0, "e", 0x0, "f", 0x0, "t"
	DCB	0x0, " ", 0x0, "%", 0x0, "d", 0x0, 0xd, 0x0, 0xa, 0x0, 0x0
	DCB	0x0					; `string'

  00000			 AREA	 |.rdata|, DATA, READONLY
|??_C@_1HI@PMGODKCP@?$AAC?$AAo?$AAn?$AAt?$AAi?$AAn?$AAu?$AAe?$AAT?$AAx?$AAT?$AAr?$AAa?$AAn?$AAs?$AAf?$AAe?$AAr?$AA?3?$AA?5?$AAE?$AAP?$AA?5?$AA?$CF?$AAd?$AA?0?$AA?5?$AAE?$AAr?$AAr?$AAo?$AAr@| DCB "C"
	DCB	0x0, "o", 0x0, "n", 0x0, "t", 0x0, "i", 0x0, "n", 0x0, "u"
	DCB	0x0, "e", 0x0, "T", 0x0, "x", 0x0, "T", 0x0, "r", 0x0, "a"
	DCB	0x0, "n", 0x0, "s", 0x0, "f", 0x0, "e", 0x0, "r", 0x0, ":"
	DCB	0x0, " ", 0x0, "E", 0x0, "P", 0x0, " ", 0x0, "%", 0x0, "d"
	DCB	0x0, ",", 0x0, " ", 0x0, "E", 0x0, "r", 0x0, "r", 0x0, "o"
	DCB	0x0, "r", 0x0, ",", 0x0, " ", 0x0, "p", 0x0, "a", 0x0, "c"
	DCB	0x0, "k", 0x0, "e", 0x0, "t", 0x0, " ", 0x0, "T", 0x0, "X"
	DCB	0x0, " ", 0x0, "n", 0x0, "o", 0x0, "t", 0x0, " ", 0x0, "c"
	DCB	0x0, "o", 0x0, "m", 0x0, "p", 0x0, "l", 0x0, "e", 0x0, "t"
	DCB	0x0, "e", 0x0, "!", 0x0, 0xd, 0x0, 0xa, 0x0, 0x0, 0x0 ; `string'

  00000			 AREA	 |.rdata|, DATA, READONLY
|??_C@_1FC@GLEDEEDN@?$AAC?$AAo?$AAn?$AAt?$AAi?$AAn?$AAu?$AAe?$AAT?$AAx?$AAT?$AAr?$AAa?$AAn?$AAs?$AAf?$AAe?$AAr?$AA?3?$AA?5?$AAE?$AAP?$AA?5?$AA?$CF?$AAd?$AA?0?$AA?5?$AAT?$AAX?$AA?5?$AAc?$AAo@| DCB "C"
	DCB	0x0, "o", 0x0, "n", 0x0, "t", 0x0, "i", 0x0, "n", 0x0, "u"
	DCB	0x0, "e", 0x0, "T", 0x0, "x", 0x0, "T", 0x0, "r", 0x0, "a"
	DCB	0x0, "n", 0x0, "s", 0x0, "f", 0x0, "e", 0x0, "r", 0x0, ":"
	DCB	0x0, " ", 0x0, "E", 0x0, "P", 0x0, " ", 0x0, "%", 0x0, "d"
	DCB	0x0, ",", 0x0, " ", 0x0, "T", 0x0, "X", 0x0, " ", 0x0, "c"
	DCB	0x0, "o", 0x0, "m", 0x0, "p", 0x0, "l", 0x0, "e", 0x0, "t"
	DCB	0x0, "e", 0x0, 0xd, 0x0, 0xa, 0x0, 0x0, 0x0 ; `string'

  00000			 AREA	 |.rdata|, DATA, READONLY
|??_C@_1FI@HNJALGAC@?$AAC?$AAo?$AAn?$AAt?$AAi?$AAn?$AAu?$AAe?$AAT?$AAx?$AAT?$AAr?$AAa?$AAn?$AAs?$AAf?$AAe?$AAr?$AA?3?$AA?5?$AAE?$AAP?$AA?5?$AA?$CF?$AAd?$AA?0?$AA?5?$AAT?$AAr?$AAa?$AAn?$AAs@| DCB "C"
	DCB	0x0, "o", 0x0, "n", 0x0, "t", 0x0, "i", 0x0, "n", 0x0, "u"
	DCB	0x0, "e", 0x0, "T", 0x0, "x", 0x0, "T", 0x0, "r", 0x0, "a"
	DCB	0x0, "n", 0x0, "s", 0x0, "f", 0x0, "e", 0x0, "r", 0x0, ":"
	DCB	0x0, " ", 0x0, "E", 0x0, "P", 0x0, " ", 0x0, "%", 0x0, "d"
	DCB	0x0, ",", 0x0, " ", 0x0, "T", 0x0, "r", 0x0, "a", 0x0, "n"
	DCB	0x0, "s", 0x0, "f", 0x0, "e", 0x0, "r", 0x0, " ", 0x0, "N"
	DCB	0x0, "U", 0x0, "L", 0x0, "L", 0x0, "!", 0x0, 0xd, 0x0, 0xa
	DCB	0x0, 0x0, 0x0				; `string'

  00000			 AREA	 |.rdata|, DATA, READONLY
|??_C@_1HM@PDNNCAHI@?$AAC?$AAo?$AAn?$AAt?$AAi?$AAn?$AAu?$AAe?$AAT?$AAx?$AAT?$AAr?$AAa?$AAn?$AAs?$AAf?$AAe?$AAr?$AA?3?$AA?5?$AAE?$AAP?$AA?5?$AA?$CF?$AAd?$AA?0?$AA?5?$AAp?$AAT?$AAr?$AAa?$AAn@| DCB "C"
	DCB	0x0, "o", 0x0, "n", 0x0, "t", 0x0, "i", 0x0, "n", 0x0, "u"
	DCB	0x0, "e", 0x0, "T", 0x0, "x", 0x0, "T", 0x0, "r", 0x0, "a"
	DCB	0x0, "n", 0x0, "s", 0x0, "f", 0x0, "e", 0x0, "r", 0x0, ":"
	DCB	0x0, " ", 0x0, "E", 0x0, "P", 0x0, " ", 0x0, "%", 0x0, "d"
	DCB	0x0, ",", 0x0, " ", 0x0, "p", 0x0, "T", 0x0, "r", 0x0, "a"
	DCB	0x0, "n", 0x0, "s", 0x0, "f", 0x0, "e", 0x0, "r", 0x0, " "
	DCB	0x0, "0", 0x0, "x", 0x0, "%", 0x0, "0", 0x0, "8", 0x0, "x"
	DCB	0x0, " ", 0x0, "(", 0x0, "%", 0x0, "d", 0x0, ",", 0x0, " "
	DCB	0x0, "%", 0x0, "d", 0x0, ",", 0x0, " ", 0x0, "0", 0x0, "x"
	DCB	0x0, "%", 0x0, "0", 0x0, "x", 0x0, ")", 0x0, 0xd, 0x0, 0xa
	DCB	0x0, 0x0, 0x0				; `string'

  00018			 AREA	 |.xdata|, DATA
|$T49637| DCD	0x1
	DCD	|$LN73@ContinueTx|
	DCD	|$LN74@ContinueTx|
	DCD	|$LN69@ContinueTx|
	DCD	|$LN70@ContinueTx|
; Function compile flags: /Odtp

  01b54			 AREA	 |.text|, CODE, ARM

  01b54	00000000	 DCD         |__C_specific_handler|
  01b58	00000000	 DCD         |$T49637|

  01b5c		 |ContinueTxTransfer| PROC

; 1043 : {

  01b5c		 |$LN79@ContinueTx|
  01b5c	e1a0c00d	 mov         r12, sp
  01b60	e92d0003	 stmdb       sp!, {r0, r1}
  01b64	e92d5800	 stmdb       sp!, {r11, r12, lr}
  01b68	e28db00c	 add         r11, sp, #0xC
  01b6c	e24dd0c8	 sub         sp, sp, #0xC8
  01b70		 |$LN77@ContinueTx|

; 1044 :     CSL_UsbRegs *pUsbdRegs = pPdd->pUsbdRegs;

  01b70	e59b3000	 ldr         r3, [r11]
  01b74	e283301c	 add         r3, r3, #0x1C
  01b78	e5933000	 ldr         r3, [r3]
  01b7c	e50b30b8	 str         r3, [r11, #-0xB8]

; 1045 :     UsbFnEp     *pEP = &pPdd->ep[endPoint];

  01b80	e59b3000	 ldr         r3, [r11]
  01b84	e2831fa1	 add         r1, r3, #0xA1, 30
  01b88	e59b2004	 ldr         r2, [r11, #4]
  01b8c	e3a0303c	 mov         r3, #0x3C
  01b90	e0030392	 mul         r3, r2, r3
  01b94	e0813003	 add         r3, r1, r3
  01b98	e50b30b4	 str         r3, [r11, #-0xB4]

; 1046 :     STransfer   *pTransfer = pEP->pTransfer;

  01b9c	e51b30b4	 ldr         r3, [r11, #-0xB4]
  01ba0	e2833020	 add         r3, r3, #0x20
  01ba4	e5933000	 ldr         r3, [r3]
  01ba8	e50b30bc	 str         r3, [r11, #-0xBC]

; 1047 :     BOOL complete = FALSE;

  01bac	e3a03000	 mov         r3, #0
  01bb0	e50b30ac	 str         r3, [r11, #-0xAC]

; 1048 :     volatile UINT16 *pepCtrlReg;
; 1049 :     UINT16  epCsrReg;
; 1050 : 	DWORD space = 0;

  01bb4	e3a03000	 mov         r3, #0
  01bb8	e50b30c4	 str         r3, [r11, #-0xC4]

; 1051 :     DWORD count = 0;

  01bbc	e3a03000	 mov         r3, #0
  01bc0	e50b30c8	 str         r3, [r11, #-0xC8]

; 1052 :     UCHAR *pBuffer = NULL;

  01bc4	e3a03000	 mov         r3, #0
  01bc8	e50b30cc	 str         r3, [r11, #-0xCC]

; 1053 : 
; 1054 :     /* EP0 has its own TX handler */
; 1055 :     DEBUGCHK(endPoint != 0);

  01bcc	e59b3004	 ldr         r3, [r11, #4]
  01bd0	e3530000	 cmp         r3, #0
  01bd4	0a000002	 beq         |$LN10@ContinueTx|
  01bd8	e3a03001	 mov         r3, #1
  01bdc	e50b3080	 str         r3, [r11, #-0x80]
  01be0	ea000008	 b           |$LN11@ContinueTx|
  01be4		 |$LN10@ContinueTx|
  01be4	e3a03b01	 mov         r3, #1, 22
  01be8	e383301f	 orr         r3, r3, #0x1F
  01bec	e59f28b4	 ldr         r2, [pc, #0x8B4]
  01bf0	e59f189c	 ldr         r1, [pc, #0x89C]
  01bf4	e59f08a8	 ldr         r0, [pc, #0x8A8]
  01bf8	eb000000	 bl          NKDbgPrintfW
  01bfc	e6000010	 __debugbreak_ce
  01c00	e3a03000	 mov         r3, #0
  01c04	e50b3080	 str         r3, [r11, #-0x80]
  01c08		 |$LN11@ContinueTx|

; 1056 : 
; 1057 :     PRINTMSG(ZONE_PDD_TX,
; 1058 :              (L"ContinueTxTransfer: EP %d, pTransfer 0x%08x (%d, %d, 0x%0x)\r\n",
; 1059 :               endPoint, pTransfer, pTransfer != NULL ? pTransfer->cbBuffer : 0,
; 1060 :               pTransfer != NULL ? pTransfer->cbTransferred : 0,
; 1061 :               pTransfer != NULL ? pTransfer->dwUsbError : -1));

  01c08	e59f3884	 ldr         r3, [pc, #0x884]
  01c0c	e5933440	 ldr         r3, [r3, #0x440]
  01c10	e3130b02	 tst         r3, #2, 22
  01c14	0a000059	 beq         |$LN26@ContinueTx|
  01c18	e59f3874	 ldr         r3, [pc, #0x874]
  01c1c	e5933440	 ldr         r3, [r3, #0x440]
  01c20	e3130801	 tst         r3, #1, 16
  01c24	0a000029	 beq         |$LN24@ContinueTx|
  01c28	e51b30bc	 ldr         r3, [r11, #-0xBC]
  01c2c	e3530000	 cmp         r3, #0
  01c30	0a000004	 beq         |$LN12@ContinueTx|
  01c34	e51b30bc	 ldr         r3, [r11, #-0xBC]
  01c38	e2833014	 add         r3, r3, #0x14
  01c3c	e5933000	 ldr         r3, [r3]
  01c40	e50b307c	 str         r3, [r11, #-0x7C]
  01c44	ea000001	 b           |$LN13@ContinueTx|
  01c48		 |$LN12@ContinueTx|
  01c48	e3e03000	 mvn         r3, #0
  01c4c	e50b307c	 str         r3, [r11, #-0x7C]
  01c50		 |$LN13@ContinueTx|
  01c50	e51b30bc	 ldr         r3, [r11, #-0xBC]
  01c54	e3530000	 cmp         r3, #0
  01c58	0a000004	 beq         |$LN14@ContinueTx|
  01c5c	e51b30bc	 ldr         r3, [r11, #-0xBC]
  01c60	e2833010	 add         r3, r3, #0x10
  01c64	e5933000	 ldr         r3, [r3]
  01c68	e50b3078	 str         r3, [r11, #-0x78]
  01c6c	ea000001	 b           |$LN15@ContinueTx|
  01c70		 |$LN14@ContinueTx|
  01c70	e3a03000	 mov         r3, #0
  01c74	e50b3078	 str         r3, [r11, #-0x78]
  01c78		 |$LN15@ContinueTx|
  01c78	e51b30bc	 ldr         r3, [r11, #-0xBC]
  01c7c	e3530000	 cmp         r3, #0
  01c80	0a000004	 beq         |$LN16@ContinueTx|
  01c84	e51b30bc	 ldr         r3, [r11, #-0xBC]
  01c88	e283300c	 add         r3, r3, #0xC
  01c8c	e5933000	 ldr         r3, [r3]
  01c90	e50b3074	 str         r3, [r11, #-0x74]
  01c94	ea000001	 b           |$LN17@ContinueTx|
  01c98		 |$LN16@ContinueTx|
  01c98	e3a03000	 mov         r3, #0
  01c9c	e50b3074	 str         r3, [r11, #-0x74]
  01ca0		 |$LN17@ContinueTx|
  01ca0	e51b307c	 ldr         r3, [r11, #-0x7C]
  01ca4	e58d3004	 str         r3, [sp, #4]
  01ca8	e51b3078	 ldr         r3, [r11, #-0x78]
  01cac	e58d3000	 str         r3, [sp]
  01cb0	e51b3074	 ldr         r3, [r11, #-0x74]
  01cb4	e51b20bc	 ldr         r2, [r11, #-0xBC]
  01cb8	e59b1004	 ldr         r1, [r11, #4]
  01cbc	e59f07f4	 ldr         r0, [pc, #0x7F4]
  01cc0	eb000000	 bl          CeLogMsg
  01cc4	e3a03001	 mov         r3, #1
  01cc8	e50b3070	 str         r3, [r11, #-0x70]
  01ccc	ea000028	 b           |$LN25@ContinueTx|
  01cd0		 |$LN24@ContinueTx|
  01cd0	e51b30bc	 ldr         r3, [r11, #-0xBC]
  01cd4	e3530000	 cmp         r3, #0
  01cd8	0a000004	 beq         |$LN18@ContinueTx|
  01cdc	e51b30bc	 ldr         r3, [r11, #-0xBC]
  01ce0	e2833014	 add         r3, r3, #0x14
  01ce4	e5933000	 ldr         r3, [r3]
  01ce8	e50b306c	 str         r3, [r11, #-0x6C]
  01cec	ea000001	 b           |$LN19@ContinueTx|
  01cf0		 |$LN18@ContinueTx|
  01cf0	e3e03000	 mvn         r3, #0
  01cf4	e50b306c	 str         r3, [r11, #-0x6C]
  01cf8		 |$LN19@ContinueTx|
  01cf8	e51b30bc	 ldr         r3, [r11, #-0xBC]
  01cfc	e3530000	 cmp         r3, #0
  01d00	0a000004	 beq         |$LN20@ContinueTx|
  01d04	e51b30bc	 ldr         r3, [r11, #-0xBC]
  01d08	e2833010	 add         r3, r3, #0x10
  01d0c	e5933000	 ldr         r3, [r3]
  01d10	e50b3068	 str         r3, [r11, #-0x68]
  01d14	ea000001	 b           |$LN21@ContinueTx|
  01d18		 |$LN20@ContinueTx|
  01d18	e3a03000	 mov         r3, #0
  01d1c	e50b3068	 str         r3, [r11, #-0x68]
  01d20		 |$LN21@ContinueTx|
  01d20	e51b30bc	 ldr         r3, [r11, #-0xBC]
  01d24	e3530000	 cmp         r3, #0
  01d28	0a000004	 beq         |$LN22@ContinueTx|
  01d2c	e51b30bc	 ldr         r3, [r11, #-0xBC]
  01d30	e283300c	 add         r3, r3, #0xC
  01d34	e5933000	 ldr         r3, [r3]
  01d38	e50b3064	 str         r3, [r11, #-0x64]
  01d3c	ea000001	 b           |$LN23@ContinueTx|
  01d40		 |$LN22@ContinueTx|
  01d40	e3a03000	 mov         r3, #0
  01d44	e50b3064	 str         r3, [r11, #-0x64]
  01d48		 |$LN23@ContinueTx|
  01d48	e51b306c	 ldr         r3, [r11, #-0x6C]
  01d4c	e58d3004	 str         r3, [sp, #4]
  01d50	e51b3068	 ldr         r3, [r11, #-0x68]
  01d54	e58d3000	 str         r3, [sp]
  01d58	e51b3064	 ldr         r3, [r11, #-0x64]
  01d5c	e51b20bc	 ldr         r2, [r11, #-0xBC]
  01d60	e59b1004	 ldr         r1, [r11, #4]
  01d64	e59f074c	 ldr         r0, [pc, #0x74C]
  01d68	eb000000	 bl          NKDbgPrintfW
  01d6c	e3a03000	 mov         r3, #0
  01d70	e50b3070	 str         r3, [r11, #-0x70]
  01d74		 |$LN25@ContinueTx|
  01d74	e3a03001	 mov         r3, #1
  01d78	e50b3060	 str         r3, [r11, #-0x60]
  01d7c	ea000001	 b           |$LN27@ContinueTx|
  01d80		 |$LN26@ContinueTx|
  01d80	e3a03000	 mov         r3, #0
  01d84	e50b3060	 str         r3, [r11, #-0x60]
  01d88		 |$LN27@ContinueTx|

; 1062 : 
; 1063 :     if (pTransfer == NULL)

  01d88	e51b30bc	 ldr         r3, [r11, #-0xBC]
  01d8c	e3530000	 cmp         r3, #0
  01d90	1a00001c	 bne         |$LN7@ContinueTx|

; 1064 :     {
; 1065 :         PRINTMSG(ZONE_ERROR, (L"ContinueTxTransfer: EP %d, Transfer NULL!\r\n", endPoint));

  01d94	e59f36f8	 ldr         r3, [pc, #0x6F8]
  01d98	e5933440	 ldr         r3, [r3, #0x440]
  01d9c	e3130001	 tst         r3, #1
  01da0	0a000011	 beq         |$LN30@ContinueTx|
  01da4	e59f36e8	 ldr         r3, [pc, #0x6E8]
  01da8	e5933440	 ldr         r3, [r3, #0x440]
  01dac	e3130801	 tst         r3, #1, 16
  01db0	0a000005	 beq         |$LN28@ContinueTx|
  01db4	e59b1004	 ldr         r1, [r11, #4]
  01db8	e59f06f4	 ldr         r0, [pc, #0x6F4]
  01dbc	eb000000	 bl          CeLogMsg
  01dc0	e3a03001	 mov         r3, #1
  01dc4	e50b305c	 str         r3, [r11, #-0x5C]
  01dc8	ea000004	 b           |$LN29@ContinueTx|
  01dcc		 |$LN28@ContinueTx|
  01dcc	e59b1004	 ldr         r1, [r11, #4]
  01dd0	e59f06dc	 ldr         r0, [pc, #0x6DC]
  01dd4	eb000000	 bl          NKDbgPrintfW
  01dd8	e3a03000	 mov         r3, #0
  01ddc	e50b305c	 str         r3, [r11, #-0x5C]
  01de0		 |$LN29@ContinueTx|
  01de0	e3a03001	 mov         r3, #1
  01de4	e50b3058	 str         r3, [r11, #-0x58]
  01de8	ea000001	 b           |$LN31@ContinueTx|
  01dec		 |$LN30@ContinueTx|
  01dec	e3a03000	 mov         r3, #0
  01df0	e50b3058	 str         r3, [r11, #-0x58]
  01df4		 |$LN31@ContinueTx|

; 1066 :         pEP->epStage = MGC_END0_START;

  01df4	e51b30b4	 ldr         r3, [r11, #-0xB4]
  01df8	e283201c	 add         r2, r3, #0x1C
  01dfc	e3a03001	 mov         r3, #1
  01e00	e5823000	 str         r3, [r2]

; 1067 :         goto done;

  01e04	ea000199	 b           |$done$47964|
  01e08		 |$LN7@ContinueTx|

; 1068 :     }
; 1069 : 
; 1070 :     /* Enter CriticalSection */
; 1071 :     LOCK_ENDPOINT(pPdd);

  01e08	e59b3000	 ldr         r3, [r11]
  01e0c	e2830e27	 add         r0, r3, #0x27, 28
  01e10	eb000000	 bl          EnterCriticalSection

; 1072 : 
; 1073 :     pEP->usingDma = FALSE;

  01e14	e51b30b4	 ldr         r3, [r11, #-0xB4]
  01e18	e2832028	 add         r2, r3, #0x28
  01e1c	e3a03000	 mov         r3, #0
  01e20	e5823000	 str         r3, [r2]

; 1074 : 
; 1075 :     pepCtrlReg = &pUsbdRegs->EPCSR[ endPoint ].PERI_TXCSR;

  01e24	e51b30b8	 ldr         r3, [r11, #-0xB8]
  01e28	e2831c05	 add         r1, r3, #5, 24
  01e2c	e59b2004	 ldr         r2, [r11, #4]
  01e30	e3a03010	 mov         r3, #0x10
  01e34	e0030392	 mul         r3, r2, r3
  01e38	e0813003	 add         r3, r1, r3
  01e3c	e2833002	 add         r3, r3, #2
  01e40	e50b30c0	 str         r3, [r11, #-0xC0]

; 1076 :     epCsrReg = (*pepCtrlReg);

  01e44	e51b30c0	 ldr         r3, [r11, #-0xC0]
  01e48	e1d330b0	 ldrh        r3, [r3]
  01e4c	e14b3bb0	 strh        r3, [r11, #-0xB0]

; 1077 : 
; 1078 :     /* Is this final interrupt of transfer? */
; 1079 :     if ((pTransfer->cbTransferred == pTransfer->cbBuffer) &&
; 1080 :         (pEP->zeroLength == FALSE))

  01e50	e51b30bc	 ldr         r3, [r11, #-0xBC]
  01e54	e2832010	 add         r2, r3, #0x10
  01e58	e51b30bc	 ldr         r3, [r11, #-0xBC]
  01e5c	e283300c	 add         r3, r3, #0xC
  01e60	e5922000	 ldr         r2, [r2]
  01e64	e5933000	 ldr         r3, [r3]
  01e68	e1520003	 cmp         r2, r3
  01e6c	1a000034	 bne         |$LN6@ContinueTx|
  01e70	e51b30b4	 ldr         r3, [r11, #-0xB4]
  01e74	e2833014	 add         r3, r3, #0x14
  01e78	e5933000	 ldr         r3, [r3]
  01e7c	e3530000	 cmp         r3, #0
  01e80	1a00002f	 bne         |$LN6@ContinueTx|

; 1081 :     {
; 1082 :         PRINTMSG(ZONE_PDD_TX, (L"ContinueTxTransfer: EP %d, TX complete\r\n", endPoint));

  01e84	e59f3608	 ldr         r3, [pc, #0x608]
  01e88	e5933440	 ldr         r3, [r3, #0x440]
  01e8c	e3130b02	 tst         r3, #2, 22
  01e90	0a000011	 beq         |$LN34@ContinueTx|
  01e94	e59f35f8	 ldr         r3, [pc, #0x5F8]
  01e98	e5933440	 ldr         r3, [r3, #0x440]
  01e9c	e3130801	 tst         r3, #1, 16
  01ea0	0a000005	 beq         |$LN32@ContinueTx|
  01ea4	e59b1004	 ldr         r1, [r11, #4]
  01ea8	e59f0600	 ldr         r0, [pc, #0x600]
  01eac	eb000000	 bl          CeLogMsg
  01eb0	e3a03001	 mov         r3, #1
  01eb4	e50b3054	 str         r3, [r11, #-0x54]
  01eb8	ea000004	 b           |$LN33@ContinueTx|
  01ebc		 |$LN32@ContinueTx|
  01ebc	e59b1004	 ldr         r1, [r11, #4]
  01ec0	e59f05e8	 ldr         r0, [pc, #0x5E8]
  01ec4	eb000000	 bl          NKDbgPrintfW
  01ec8	e3a03000	 mov         r3, #0
  01ecc	e50b3054	 str         r3, [r11, #-0x54]
  01ed0		 |$LN33@ContinueTx|
  01ed0	e3a03001	 mov         r3, #1
  01ed4	e50b3050	 str         r3, [r11, #-0x50]
  01ed8	ea000001	 b           |$LN35@ContinueTx|
  01edc		 |$LN34@ContinueTx|
  01edc	e3a03000	 mov         r3, #0
  01ee0	e50b3050	 str         r3, [r11, #-0x50]
  01ee4		 |$LN35@ContinueTx|

; 1083 :         pTransfer->dwUsbError = UFN_NO_ERROR;

  01ee4	e51b30bc	 ldr         r3, [r11, #-0xBC]
  01ee8	e2832014	 add         r2, r3, #0x14
  01eec	e3a03000	 mov         r3, #0
  01ef0	e5823000	 str         r3, [r2]

; 1084 :         complete = TRUE;

  01ef4	e3a03001	 mov         r3, #1
  01ef8	e50b30ac	 str         r3, [r11, #-0xAC]

; 1085 :         pEP->epStage = MGC_END0_START;

  01efc	e51b30b4	 ldr         r3, [r11, #-0xB4]
  01f00	e283201c	 add         r2, r3, #0x1C
  01f04	e3a03001	 mov         r3, #1
  01f08	e5823000	 str         r3, [r2]

; 1086 :         epCsrReg &= ~(MGC_M_TXCSR_FIFONOTEMPTY | MGC_M_TXCSR_P_UNDERRUN);

  01f0c	e15b3bb0	 ldrh        r3, [r11, #-0xB0]
  01f10	e1a02003	 mov         r2, r3
  01f14	e3e03006	 mvn         r3, #6
  01f18	e0023003	 and         r3, r2, r3
  01f1c	e1a03803	 mov         r3, r3, lsl #16
  01f20	e1a03823	 mov         r3, r3, lsr #16
  01f24	e14b3bb0	 strh        r3, [r11, #-0xB0]

; 1087 : 
; 1088 : #ifdef CPPI_DMA_SUPPORT
; 1089 :         /* For DMA case, TX interrupt only enabled when required */
; 1090 : 		pUsbdRegs->EP_INTMSKCLRR = (1 << endPoint) << USB_OTG_TXINT_SHIFT;

  01f28	e59b2004	 ldr         r2, [r11, #4]
  01f2c	e3a03001	 mov         r3, #1
  01f30	e1a02213	 mov         r2, r3, lsl r2
  01f34	e51b30b8	 ldr         r3, [r11, #-0xB8]
  01f38	e2833034	 add         r3, r3, #0x34
  01f3c	e5832000	 str         r2, [r3]

; 1091 : #endif
; 1092 : 
; 1093 :         /* NOTE: Class driver is responsible for sending zero len packet if
; 1094 :          * the transfer was a multiple of the FIFO Size.
; 1095 :          */
; 1096 :         goto cleanUp;

  01f40	ea0000d3	 b           |$cleanUp$47968|
  01f44		 |$LN6@ContinueTx|

; 1097 :     }
; 1098 : 
; 1099 :     /* Packet TX should always have completed */
; 1100 :     if ((epCsrReg & MGC_M_TXCSR_TXPKTRDY) != 0)

  01f44	e15b3bb0	 ldrh        r3, [r11, #-0xB0]
  01f48	e3130001	 tst         r3, #1
  01f4c	0a000022	 beq         |$LN5@ContinueTx|

; 1101 :     {
; 1102 :         PRINTMSG(ZONE_ERROR, (L"ContinueTxTransfer: EP %d, Error, packet TX not complete!\r\n", endPoint));

  01f50	e59f353c	 ldr         r3, [pc, #0x53C]
  01f54	e5933440	 ldr         r3, [r3, #0x440]
  01f58	e3130001	 tst         r3, #1
  01f5c	0a000011	 beq         |$LN38@ContinueTx|
  01f60	e59f352c	 ldr         r3, [pc, #0x52C]
  01f64	e5933440	 ldr         r3, [r3, #0x440]
  01f68	e3130801	 tst         r3, #1, 16
  01f6c	0a000005	 beq         |$LN36@ContinueTx|
  01f70	e59b1004	 ldr         r1, [r11, #4]
  01f74	e59f0530	 ldr         r0, [pc, #0x530]
  01f78	eb000000	 bl          CeLogMsg
  01f7c	e3a03001	 mov         r3, #1
  01f80	e50b304c	 str         r3, [r11, #-0x4C]
  01f84	ea000004	 b           |$LN37@ContinueTx|
  01f88		 |$LN36@ContinueTx|
  01f88	e59b1004	 ldr         r1, [r11, #4]
  01f8c	e59f0518	 ldr         r0, [pc, #0x518]
  01f90	eb000000	 bl          NKDbgPrintfW
  01f94	e3a03000	 mov         r3, #0
  01f98	e50b304c	 str         r3, [r11, #-0x4C]
  01f9c		 |$LN37@ContinueTx|
  01f9c	e3a03001	 mov         r3, #1
  01fa0	e50b3048	 str         r3, [r11, #-0x48]
  01fa4	ea000001	 b           |$LN39@ContinueTx|
  01fa8		 |$LN38@ContinueTx|
  01fa8	e3a03000	 mov         r3, #0
  01fac	e50b3048	 str         r3, [r11, #-0x48]
  01fb0		 |$LN39@ContinueTx|

; 1103 :         DEBUGCHK(0);

  01fb0	e3a03b01	 mov         r3, #1, 22
  01fb4	e383304f	 orr         r3, r3, #0x4F
  01fb8	e59f24e8	 ldr         r2, [pc, #0x4E8]
  01fbc	e59f14d0	 ldr         r1, [pc, #0x4D0]
  01fc0	e59f04dc	 ldr         r0, [pc, #0x4DC]
  01fc4	eb000000	 bl          NKDbgPrintfW
  01fc8	e6000010	 __debugbreak_ce

; 1104 :         UNLOCK_ENDPOINT (pPdd);

  01fcc	e59b3000	 ldr         r3, [r11]
  01fd0	e2830e27	 add         r0, r3, #0x27, 28
  01fd4	eb000000	 bl          LeaveCriticalSection

; 1105 :         goto done;

  01fd8	ea000124	 b           |$done$47964|
  01fdc		 |$LN5@ContinueTx|

; 1106 :     }
; 1107 : 
; 1108 :     /* This EP has entered the TX State wherein it Transmits
; 1109 :      * data to the Host. Depending on whether the Size fits
; 1110 :      * the FIFO in one single write or multiple writes, the EP
; 1111 :      * will return back to IDLE in this iteration itself or
; 1112 :      * further iterations
; 1113 :      */
; 1114 :     pEP->epStage = MGC_END0_STAGE_TX;

  01fdc	e51b30b4	 ldr         r3, [r11, #-0xB4]
  01fe0	e283201c	 add         r2, r3, #0x1C
  01fe4	e3a03002	 mov         r3, #2
  01fe8	e5823000	 str         r3, [r2]
  01fec		 |$LN73@ContinueTx|

; 1115 : 
; 1116 :     __try
; 1117 :     {
; 1118 :         pBuffer = (UCHAR*)pTransfer->pvBuffer + pTransfer->cbTransferred;

  01fec	e51b30bc	 ldr         r3, [r11, #-0xBC]
  01ff0	e2832004	 add         r2, r3, #4
  01ff4	e51b30bc	 ldr         r3, [r11, #-0xBC]
  01ff8	e2833010	 add         r3, r3, #0x10
  01ffc	e5922000	 ldr         r2, [r2]
  02000	e5933000	 ldr         r3, [r3]
  02004	e0823003	 add         r3, r2, r3
  02008	e50b30cc	 str         r3, [r11, #-0xCC]

; 1119 :         space = pTransfer->cbBuffer - pTransfer->cbTransferred;

  0200c	e51b30bc	 ldr         r3, [r11, #-0xBC]
  02010	e283200c	 add         r2, r3, #0xC
  02014	e51b30bc	 ldr         r3, [r11, #-0xBC]
  02018	e2833010	 add         r3, r3, #0x10
  0201c	e5922000	 ldr         r2, [r2]
  02020	e5933000	 ldr         r3, [r3]
  02024	e0423003	 sub         r3, r2, r3
  02028	e50b30c4	 str         r3, [r11, #-0xC4]

; 1120 : 
; 1121 :         /* Non Zero Endpoint: No zero length padding needed. */
; 1122 :         pEP->zeroLength = FALSE;

  0202c	e51b30b4	 ldr         r3, [r11, #-0xB4]
  02030	e2832014	 add         r2, r3, #0x14
  02034	e3a03000	 mov         r3, #0
  02038	e5823000	 str         r3, [r2]

; 1123 : 
; 1124 :         /* How many bytes we can send just now? */
; 1125 :         count = pEP->maxPacketSize;

  0203c	e51b30b4	 ldr         r3, [r11, #-0xB4]
  02040	e2833008	 add         r3, r3, #8
  02044	e1d330b0	 ldrh        r3, [r3]
  02048	e50b30c8	 str         r3, [r11, #-0xC8]

; 1126 :         if (count > space) count = space;

  0204c	e51b20c8	 ldr         r2, [r11, #-0xC8]
  02050	e51b30c4	 ldr         r3, [r11, #-0xC4]
  02054	e1520003	 cmp         r2, r3
  02058	9a000001	 bls         |$LN3@ContinueTx|
  0205c	e51b30c4	 ldr         r3, [r11, #-0xC4]
  02060	e50b30c8	 str         r3, [r11, #-0xC8]
  02064		 |$LN3@ContinueTx|

; 1127 : 
; 1128 :         PRINTMSG(ZONE_PDD_TX,
; 1129 :                  (L"ContinueTxTransfer: EP %d, Writing %d bytes, maxSize %d, left %d\r\n",
; 1130 :                   endPoint, count, pEP->maxPacketSize, space));

  02064	e59f3428	 ldr         r3, [pc, #0x428]
  02068	e5933440	 ldr         r3, [r3, #0x440]
  0206c	e3130b02	 tst         r3, #2, 22
  02070	0a00001d	 beq         |$LN42@ContinueTx|
  02074	e59f3418	 ldr         r3, [pc, #0x418]
  02078	e5933440	 ldr         r3, [r3, #0x440]
  0207c	e3130801	 tst         r3, #1, 16
  02080	0a00000b	 beq         |$LN40@ContinueTx|
  02084	e51b30c4	 ldr         r3, [r11, #-0xC4]
  02088	e58d3000	 str         r3, [sp]
  0208c	e51b30b4	 ldr         r3, [r11, #-0xB4]
  02090	e2833008	 add         r3, r3, #8
  02094	e1d330b0	 ldrh        r3, [r3]
  02098	e51b20c8	 ldr         r2, [r11, #-0xC8]
  0209c	e59b1004	 ldr         r1, [r11, #4]
  020a0	e59f03f8	 ldr         r0, [pc, #0x3F8]
  020a4	eb000000	 bl          CeLogMsg
  020a8	e3a03001	 mov         r3, #1
  020ac	e50b3044	 str         r3, [r11, #-0x44]
  020b0	ea00000a	 b           |$LN41@ContinueTx|
  020b4		 |$LN40@ContinueTx|
  020b4	e51b30c4	 ldr         r3, [r11, #-0xC4]
  020b8	e58d3000	 str         r3, [sp]
  020bc	e51b30b4	 ldr         r3, [r11, #-0xB4]
  020c0	e2833008	 add         r3, r3, #8
  020c4	e1d330b0	 ldrh        r3, [r3]
  020c8	e51b20c8	 ldr         r2, [r11, #-0xC8]
  020cc	e59b1004	 ldr         r1, [r11, #4]
  020d0	e59f03c8	 ldr         r0, [pc, #0x3C8]
  020d4	eb000000	 bl          NKDbgPrintfW
  020d8	e3a03000	 mov         r3, #0
  020dc	e50b3044	 str         r3, [r11, #-0x44]
  020e0		 |$LN41@ContinueTx|
  020e0	e3a03001	 mov         r3, #1
  020e4	e50b3040	 str         r3, [r11, #-0x40]
  020e8	ea000001	 b           |$LN43@ContinueTx|
  020ec		 |$LN42@ContinueTx|
  020ec	e3a03000	 mov         r3, #0
  020f0	e50b3040	 str         r3, [r11, #-0x40]
  020f4		 |$LN43@ContinueTx|

; 1131 : 
; 1132 :         /* Write data to FIFO */
; 1133 : 		WriteFIFO(pPdd, (UCHAR)endPoint, pBuffer, count);

  020f4	e51b30c8	 ldr         r3, [r11, #-0xC8]
  020f8	e51b20cc	 ldr         r2, [r11, #-0xCC]
  020fc	e59b1004	 ldr         r1, [r11, #4]
  02100	e20110ff	 and         r1, r1, #0xFF
  02104	e59b0000	 ldr         r0, [r11]
  02108	eb000000	 bl          WriteFIFO

; 1134 : 
; 1135 : 		/*
; 1136 :           * We will update the pTransfer->cbTransferred here
; 1137 :           * because we would like to receive an ACK from the Host
; 1138 :           * before declaring that the data was sent successfully
; 1139 :           * to the Host. It results in a one interrupt cycle
; 1140 :           * delay
; 1141 :         */
; 1142 :         //pTransfer->cbTransferred = pTransfer->cbBuffer - space;
; 1143 :         pTransfer->cbTransferred += count;

  0210c	e51b30bc	 ldr         r3, [r11, #-0xBC]
  02110	e2833010	 add         r3, r3, #0x10
  02114	e5932000	 ldr         r2, [r3]
  02118	e51b30c8	 ldr         r3, [r11, #-0xC8]
  0211c	e0822003	 add         r2, r2, r3
  02120	e51b30bc	 ldr         r3, [r11, #-0xBC]
  02124	e2833010	 add         r3, r3, #0x10
  02128	e5832000	 str         r2, [r3]

; 1144 : 
; 1145 : #ifdef CPPI_DMA_SUPPORT
; 1146 :         /* For DMA case, TX interrupt only enabled when required */
; 1147 : 		pUsbdRegs->EP_INTMSKSETR = (1 << endPoint) << USB_OTG_TXINT_SHIFT;

  0212c	e59b2004	 ldr         r2, [r11, #4]
  02130	e3a03001	 mov         r3, #1
  02134	e1a02213	 mov         r2, r3, lsl r2
  02138	e51b30b8	 ldr         r3, [r11, #-0xB8]
  0213c	e2833030	 add         r3, r3, #0x30
  02140	e5832000	 str         r2, [r3]
  02144		 |$LN74@ContinueTx|

; 1148 : #endif
; 1149 :     }

  02144	ea00001c	 b           |$LN75@ContinueTx|
  02148		 |$LN70@ContinueTx|

; 1151 :     {
; 1152 :         pTransfer->dwUsbError = UFN_CLIENT_BUFFER_ERROR;

  02148	e51b30bc	 ldr         r3, [r11, #-0xBC]
  0214c	e2832014	 add         r2, r3, #0x14
  02150	e3a03f41	 mov         r3, #0x41, 30
  02154	e5823000	 str         r3, [r2]

; 1153 :         complete = TRUE;

  02158	e3a03001	 mov         r3, #1
  0215c	e50b30ac	 str         r3, [r11, #-0xAC]

; 1154 :         PRINTMSG(ZONE_ERROR, (L"Continue0TxTransfer: Client buffer exception!\r\n"));

  02160	e59f332c	 ldr         r3, [pc, #0x32C]
  02164	e5933440	 ldr         r3, [r3, #0x440]
  02168	e3130001	 tst         r3, #1
  0216c	0a00000f	 beq         |$LN46@ContinueTx|
  02170	e59f331c	 ldr         r3, [pc, #0x31C]
  02174	e5933440	 ldr         r3, [r3, #0x440]
  02178	e3130801	 tst         r3, #1, 16
  0217c	0a000004	 beq         |$LN44@ContinueTx|
  02180	e59f0314	 ldr         r0, [pc, #0x314]
  02184	eb000000	 bl          CeLogMsg
  02188	e3a03001	 mov         r3, #1
  0218c	e50b303c	 str         r3, [r11, #-0x3C]
  02190	ea000003	 b           |$LN45@ContinueTx|
  02194		 |$LN44@ContinueTx|
  02194	e59f0300	 ldr         r0, [pc, #0x300]
  02198	eb000000	 bl          NKDbgPrintfW
  0219c	e3a03000	 mov         r3, #0
  021a0	e50b303c	 str         r3, [r11, #-0x3C]
  021a4		 |$LN45@ContinueTx|
  021a4	e3a03001	 mov         r3, #1
  021a8	e50b3038	 str         r3, [r11, #-0x38]
  021ac	ea000001	 b           |$LN47@ContinueTx|
  021b0		 |$LN46@ContinueTx|
  021b0	e3a03000	 mov         r3, #0
  021b4	e50b3038	 str         r3, [r11, #-0x38]
  021b8		 |$LN47@ContinueTx|
  021b8	eaffffff	 b           |$LN75@ContinueTx|
  021bc		 |$LN75@ContinueTx|

; 1155 :     }
; 1156 : 
; 1157 :     epCsrReg &= ~(MGC_M_TXCSR_AUTOSET | MGC_M_TXCSR_DMAENAB);

  021bc	e15b3bb0	 ldrh        r3, [r11, #-0xB0]
  021c0	e1a02003	 mov         r2, r3
  021c4	e3e03a09	 mvn         r3, #9, 20
  021c8	e0023003	 and         r3, r2, r3
  021cc	e1a03803	 mov         r3, r3, lsl #16
  021d0	e1a03823	 mov         r3, r3, lsr #16
  021d4	e14b3bb0	 strh        r3, [r11, #-0xB0]

; 1158 :     epCsrReg &= ~(MGC_M_TXCSR_FIFONOTEMPTY | MGC_M_TXCSR_P_UNDERRUN);

  021d8	e15b3bb0	 ldrh        r3, [r11, #-0xB0]
  021dc	e1a02003	 mov         r2, r3
  021e0	e3e03006	 mvn         r3, #6
  021e4	e0023003	 and         r3, r2, r3
  021e8	e1a03803	 mov         r3, r3, lsl #16
  021ec	e1a03823	 mov         r3, r3, lsr #16
  021f0	e14b3bb0	 strh        r3, [r11, #-0xB0]

; 1159 :     epCsrReg |= (MGC_M_TXCSR_MODE | MGC_M_TXCSR_TXPKTRDY);

  021f4	e15b3bb0	 ldrh        r3, [r11, #-0xB0]
  021f8	e1a02003	 mov         r2, r3
  021fc	e3a03a02	 mov         r3, #2, 20
  02200	e3833001	 orr         r3, r3, #1
  02204	e1823003	 orr         r3, r2, r3
  02208	e1a03803	 mov         r3, r3, lsl #16
  0220c	e1a03823	 mov         r3, r3, lsr #16
  02210	e14b3bb0	 strh        r3, [r11, #-0xB0]

; 1160 : 
; 1161 :     /* Check for the current transfer Size. For all small sized pkts < 64
; 1162 :      * this condition will become TRUE for the first iteration itself.
; 1163 :      * However, when the MDD Tries to send 512 bytes of data,
; 1164 :      * this logic will become TRUE only for the last chunk.
; 1165 :      */
; 1166 : 
; 1167 :     /* Check if we have Transmitted Entire Packet */
; 1168 :     if (pTransfer->cbTransferred == pTransfer->cbBuffer)

  02214	e51b30bc	 ldr         r3, [r11, #-0xBC]
  02218	e2832010	 add         r2, r3, #0x10
  0221c	e51b30bc	 ldr         r3, [r11, #-0xBC]
  02220	e283300c	 add         r3, r3, #0xC
  02224	e5922000	 ldr         r2, [r2]
  02228	e5933000	 ldr         r3, [r3]
  0222c	e1520003	 cmp         r2, r3
  02230	1a000017	 bne         |$LN2@ContinueTx|

; 1169 :     {
; 1170 :         /* Now wait for final interrupt before completing TX */
; 1171 :         PRINTMSG(ZONE_PDD_TX, (L"ContinueTxTransfer: EP %d, all bytes written\r\n", endPoint));

  02234	e59f3258	 ldr         r3, [pc, #0x258]
  02238	e5933440	 ldr         r3, [r3, #0x440]
  0223c	e3130b02	 tst         r3, #2, 22
  02240	0a000011	 beq         |$LN50@ContinueTx|
  02244	e59f3248	 ldr         r3, [pc, #0x248]
  02248	e5933440	 ldr         r3, [r3, #0x440]
  0224c	e3130801	 tst         r3, #1, 16
  02250	0a000005	 beq         |$LN48@ContinueTx|
  02254	e59b1004	 ldr         r1, [r11, #4]
  02258	e59f0238	 ldr         r0, [pc, #0x238]
  0225c	eb000000	 bl          CeLogMsg
  02260	e3a03001	 mov         r3, #1
  02264	e50b3034	 str         r3, [r11, #-0x34]
  02268	ea000004	 b           |$LN49@ContinueTx|
  0226c		 |$LN48@ContinueTx|
  0226c	e59b1004	 ldr         r1, [r11, #4]
  02270	e59f0220	 ldr         r0, [pc, #0x220]
  02274	eb000000	 bl          NKDbgPrintfW
  02278	e3a03000	 mov         r3, #0
  0227c	e50b3034	 str         r3, [r11, #-0x34]
  02280		 |$LN49@ContinueTx|
  02280	e3a03001	 mov         r3, #1
  02284	e50b3030	 str         r3, [r11, #-0x30]
  02288	ea000001	 b           |$LN51@ContinueTx|
  0228c		 |$LN50@ContinueTx|
  0228c	e3a03000	 mov         r3, #0
  02290	e50b3030	 str         r3, [r11, #-0x30]
  02294		 |$LN51@ContinueTx|
  02294		 |$LN2@ContinueTx|
  02294		 |$cleanUp$47968|

; 1172 :     }
; 1173 : 
; 1174 : cleanUp:
; 1175 : 
; 1176 :     (*pepCtrlReg) = epCsrReg;

  02294	e15b2bb0	 ldrh        r2, [r11, #-0xB0]
  02298	e51b30c0	 ldr         r3, [r11, #-0xC0]
  0229c	e1c320b0	 strh        r2, [r3]

; 1177 : 
; 1178 :     /* Leave CriticalSection */
; 1179 :     UNLOCK_ENDPOINT(pPdd);

  022a0	e59b3000	 ldr         r3, [r11]
  022a4	e2830e27	 add         r0, r3, #0x27, 28
  022a8	eb000000	 bl          LeaveCriticalSection

; 1180 : 
; 1181 :     PRINTMSG(FALSE, /*TRUE ZONE_SEND, (endPoint !=0)*/
; 1182 :         (L"Wrote 0x%02x into EP%u_CSR\r\n", epCsrReg, endPoint));
; 1183 : 
; 1184 :     /* If transaction is complete we should tell MDD */
; 1185 :     if (complete == TRUE)

  022ac	e51b30ac	 ldr         r3, [r11, #-0xAC]
  022b0	e3530001	 cmp         r3, #1
  022b4	1a00006d	 bne         |$LN1@ContinueTx|

; 1186 :     {
; 1187 :         PRINTMSG(ZONE_PDD_TX,
; 1188 :                  (L"ContinueTxTransfer: "
; 1189 :                   L"EP %d, pTransfer 0x%08x (%d, %d, 0x%0x) - notify complete\r\n",
; 1190 :                   endPoint, pTransfer, pTransfer != NULL ? pTransfer->cbBuffer : 0,
; 1191 :                   pTransfer != NULL ? pTransfer->cbTransferred : 0,
; 1192 :                   pTransfer != NULL ? pTransfer->dwUsbError : -1));

  022b8	e59f31d4	 ldr         r3, [pc, #0x1D4]
  022bc	e5933440	 ldr         r3, [r3, #0x440]
  022c0	e3130b02	 tst         r3, #2, 22
  022c4	0a000059	 beq         |$LN66@ContinueTx|
  022c8	e59f31c4	 ldr         r3, [pc, #0x1C4]
  022cc	e5933440	 ldr         r3, [r3, #0x440]
  022d0	e3130801	 tst         r3, #1, 16
  022d4	0a000029	 beq         |$LN64@ContinueTx|
  022d8	e51b30bc	 ldr         r3, [r11, #-0xBC]
  022dc	e3530000	 cmp         r3, #0
  022e0	0a000004	 beq         |$LN52@ContinueTx|
  022e4	e51b30bc	 ldr         r3, [r11, #-0xBC]
  022e8	e2833014	 add         r3, r3, #0x14
  022ec	e5933000	 ldr         r3, [r3]
  022f0	e50b302c	 str         r3, [r11, #-0x2C]
  022f4	ea000001	 b           |$LN53@ContinueTx|
  022f8		 |$LN52@ContinueTx|
  022f8	e3e03000	 mvn         r3, #0
  022fc	e50b302c	 str         r3, [r11, #-0x2C]
  02300		 |$LN53@ContinueTx|
  02300	e51b30bc	 ldr         r3, [r11, #-0xBC]
  02304	e3530000	 cmp         r3, #0
  02308	0a000004	 beq         |$LN54@ContinueTx|
  0230c	e51b30bc	 ldr         r3, [r11, #-0xBC]
  02310	e2833010	 add         r3, r3, #0x10
  02314	e5933000	 ldr         r3, [r3]
  02318	e50b3028	 str         r3, [r11, #-0x28]
  0231c	ea000001	 b           |$LN55@ContinueTx|
  02320		 |$LN54@ContinueTx|
  02320	e3a03000	 mov         r3, #0
  02324	e50b3028	 str         r3, [r11, #-0x28]
  02328		 |$LN55@ContinueTx|
  02328	e51b30bc	 ldr         r3, [r11, #-0xBC]
  0232c	e3530000	 cmp         r3, #0
  02330	0a000004	 beq         |$LN56@ContinueTx|
  02334	e51b30bc	 ldr         r3, [r11, #-0xBC]
  02338	e283300c	 add         r3, r3, #0xC
  0233c	e5933000	 ldr         r3, [r3]
  02340	e50b3024	 str         r3, [r11, #-0x24]
  02344	ea000001	 b           |$LN57@ContinueTx|
  02348		 |$LN56@ContinueTx|
  02348	e3a03000	 mov         r3, #0
  0234c	e50b3024	 str         r3, [r11, #-0x24]
  02350		 |$LN57@ContinueTx|
  02350	e51b302c	 ldr         r3, [r11, #-0x2C]
  02354	e58d3004	 str         r3, [sp, #4]
  02358	e51b3028	 ldr         r3, [r11, #-0x28]
  0235c	e58d3000	 str         r3, [sp]
  02360	e51b3024	 ldr         r3, [r11, #-0x24]
  02364	e51b20bc	 ldr         r2, [r11, #-0xBC]
  02368	e59b1004	 ldr         r1, [r11, #4]
  0236c	e59f011c	 ldr         r0, [pc, #0x11C]
  02370	eb000000	 bl          CeLogMsg
  02374	e3a03001	 mov         r3, #1
  02378	e50b3020	 str         r3, [r11, #-0x20]
  0237c	ea000028	 b           |$LN65@ContinueTx|
  02380		 |$LN64@ContinueTx|
  02380	e51b30bc	 ldr         r3, [r11, #-0xBC]
  02384	e3530000	 cmp         r3, #0
  02388	0a000004	 beq         |$LN58@ContinueTx|
  0238c	e51b30bc	 ldr         r3, [r11, #-0xBC]
  02390	e2833014	 add         r3, r3, #0x14
  02394	e5933000	 ldr         r3, [r3]
  02398	e50b301c	 str         r3, [r11, #-0x1C]
  0239c	ea000001	 b           |$LN59@ContinueTx|
  023a0		 |$LN58@ContinueTx|
  023a0	e3e03000	 mvn         r3, #0
  023a4	e50b301c	 str         r3, [r11, #-0x1C]
  023a8		 |$LN59@ContinueTx|
  023a8	e51b30bc	 ldr         r3, [r11, #-0xBC]
  023ac	e3530000	 cmp         r3, #0
  023b0	0a000004	 beq         |$LN60@ContinueTx|
  023b4	e51b30bc	 ldr         r3, [r11, #-0xBC]
  023b8	e2833010	 add         r3, r3, #0x10
  023bc	e5933000	 ldr         r3, [r3]
  023c0	e50b3018	 str         r3, [r11, #-0x18]
  023c4	ea000001	 b           |$LN61@ContinueTx|
  023c8		 |$LN60@ContinueTx|
  023c8	e3a03000	 mov         r3, #0
  023cc	e50b3018	 str         r3, [r11, #-0x18]
  023d0		 |$LN61@ContinueTx|
  023d0	e51b30bc	 ldr         r3, [r11, #-0xBC]
  023d4	e3530000	 cmp         r3, #0
  023d8	0a000004	 beq         |$LN62@ContinueTx|
  023dc	e51b30bc	 ldr         r3, [r11, #-0xBC]
  023e0	e283300c	 add         r3, r3, #0xC
  023e4	e5933000	 ldr         r3, [r3]
  023e8	e50b3014	 str         r3, [r11, #-0x14]
  023ec	ea000001	 b           |$LN63@ContinueTx|
  023f0		 |$LN62@ContinueTx|
  023f0	e3a03000	 mov         r3, #0
  023f4	e50b3014	 str         r3, [r11, #-0x14]
  023f8		 |$LN63@ContinueTx|
  023f8	e51b301c	 ldr         r3, [r11, #-0x1C]
  023fc	e58d3004	 str         r3, [sp, #4]
  02400	e51b3018	 ldr         r3, [r11, #-0x18]
  02404	e58d3000	 str         r3, [sp]
  02408	e51b3014	 ldr         r3, [r11, #-0x14]
  0240c	e51b20bc	 ldr         r2, [r11, #-0xBC]
  02410	e59b1004	 ldr         r1, [r11, #4]
  02414	e59f0074	 ldr         r0, [pc, #0x74]
  02418	eb000000	 bl          NKDbgPrintfW
  0241c	e3a03000	 mov         r3, #0
  02420	e50b3020	 str         r3, [r11, #-0x20]
  02424		 |$LN65@ContinueTx|
  02424	e3a03001	 mov         r3, #1
  02428	e50b3010	 str         r3, [r11, #-0x10]
  0242c	ea000001	 b           |$LN67@ContinueTx|
  02430		 |$LN66@ContinueTx|
  02430	e3a03000	 mov         r3, #0
  02434	e50b3010	 str         r3, [r11, #-0x10]
  02438		 |$LN67@ContinueTx|

; 1193 :         pEP->pTransfer = NULL;

  02438	e51b30b4	 ldr         r3, [r11, #-0xB4]
  0243c	e2832020	 add         r2, r3, #0x20
  02440	e3a03000	 mov         r3, #0
  02444	e5823000	 str         r3, [r2]

; 1194 :         pPdd->pfnNotify (pPdd->pMddContext, UFN_MSG_TRANSFER_COMPLETE,
; 1195 :                          (DWORD)pTransfer);

  02448	e51b20bc	 ldr         r2, [r11, #-0xBC]
  0244c	e3a01064	 mov         r1, #0x64
  02450	e59b3000	 ldr         r3, [r11]
  02454	e2833010	 add         r3, r3, #0x10
  02458	e5930000	 ldr         r0, [r3]
  0245c	e59b3000	 ldr         r3, [r11]
  02460	e2833014	 add         r3, r3, #0x14
  02464	e5933000	 ldr         r3, [r3]
  02468	e1a0e00f	 mov         lr, pc
  0246c	e12fff13	 bx          r3
  02470		 |$LN1@ContinueTx|
  02470		 |$done$47964|
  02470		 |$LN68@ContinueTx|

; 1196 :     }
; 1197 : 
; 1198 : done:
; 1199 :     return;
; 1200 : }

  02470	e24bd00c	 sub         sp, r11, #0xC
  02474	e89d6800	 ldmia       sp, {r11, sp, lr}
  02478	e12fff1e	 bx          lr

			 ENDP  ; |ContinueTxTransfer|

  0247c		 |$LN69@ContinueTx|
  0247c		 |$LN78@ContinueTx|

; 1150 :     __except(EXCEPTION_EXECUTE_HANDLER)

  0247c	e52de004	 str         lr, [sp, #-4]!
  02480	e24dd008	 sub         sp, sp, #8
  02484		 |$LN72@ContinueTx|
  02484		 |$LN81@ContinueTx|
  02484	e3a00001	 mov         r0, #1
  02488		 |$LN71@ContinueTx|
  02488	e28dd008	 add         sp, sp, #8
  0248c	e49df004	 ldr         pc, [sp], #4
  02490		 |$LN83@ContinueTx|
  02490		 |$LN84@ContinueTx|
  02490	00000000	 DCD         |??_C@_1KA@FGPAKDNB@?$AAC?$AAo?$AAn?$AAt?$AAi?$AAn?$AAu?$AAe?$AAT?$AAx?$AAT?$AAr?$AAa?$AAn?$AAs?$AAf?$AAe?$AAr?$AA?3?$AA?5?$AAE?$AAP?$AA?5?$AA?$CF?$AAd?$AA?0?$AA?5?$AAp?$AAT?$AAr?$AAa?$AAn@|
  02494		 |$LN85@ContinueTx|
  02494	00000000	 DCD         |dpCurSettings|
  02498		 |$LN86@ContinueTx|
  02498	00000000	 DCD         |??_C@_1FO@HGHNNFMK@?$AAC?$AAo?$AAn?$AAt?$AAi?$AAn?$AAu?$AAe?$AAT?$AAx?$AAT?$AAr?$AAa?$AAn?$AAs?$AAf?$AAe?$AAr?$AA?3?$AA?5?$AAE?$AAP?$AA?5?$AA?$CF?$AAd?$AA?0?$AA?5?$AAa?$AAl?$AAl?$AA?5?$AAb@|
  0249c		 |$LN87@ContinueTx|
  0249c	00000000	 DCD         |??_C@_1GA@LDKCJJJF@?$AAC?$AAo?$AAn?$AAt?$AAi?$AAn?$AAu?$AAe?$AA0?$AAT?$AAx?$AAT?$AAr?$AAa?$AAn?$AAs?$AAf?$AAe?$AAr?$AA?3?$AA?5?$AAC?$AAl?$AAi?$AAe?$AAn?$AAt?$AA?5?$AAb?$AAu?$AAf?$AAf@|
  024a0		 |$LN88@ContinueTx|
  024a0	00000000	 DCD         |??_C@_1IG@IFHOFDOO@?$AAC?$AAo?$AAn?$AAt?$AAi?$AAn?$AAu?$AAe?$AAT?$AAx?$AAT?$AAr?$AAa?$AAn?$AAs?$AAf?$AAe?$AAr?$AA?3?$AA?5?$AAE?$AAP?$AA?5?$AA?$CF?$AAd?$AA?0?$AA?5?$AAW?$AAr?$AAi?$AAt?$AAi@|
  024a4		 |$LN89@ContinueTx|
  024a4	00000000	 DCD         |??_C@_1FK@FNONLNGN@?$AA?$CF?$AAs?$AA?3?$AA?5?$AAD?$AAE?$AAB?$AAU?$AAG?$AAC?$AAH?$AAK?$AA?5?$AAf?$AAa?$AAi?$AAl?$AAe?$AAd?$AA?5?$AAi?$AAn?$AA?5?$AAf?$AAi?$AAl?$AAe?$AA?5?$AA?$CF?$AAs?$AA?5?$AAa@|
  024a8		 |$LN90@ContinueTx|
  024a8	00000000	 DCD         |??_C@_1JO@JAGHJEHH@?$AAC?$AA?3?$AA?2?$AAW?$AAI?$AAN?$AAC?$AAE?$AA6?$AA0?$AA0?$AA?2?$AAP?$AAL?$AAA?$AAT?$AAF?$AAO?$AAR?$AAM?$AA?2?$AAC?$AAO?$AAM?$AAM?$AAO?$AAN?$AA?2?$AAS?$AAR?$AAC?$AA?2@|
  024ac		 |$LN91@ContinueTx|
  024ac	00000000	 DCD         |??_C@_1HI@PMGODKCP@?$AAC?$AAo?$AAn?$AAt?$AAi?$AAn?$AAu?$AAe?$AAT?$AAx?$AAT?$AAr?$AAa?$AAn?$AAs?$AAf?$AAe?$AAr?$AA?3?$AA?5?$AAE?$AAP?$AA?5?$AA?$CF?$AAd?$AA?0?$AA?5?$AAE?$AAr?$AAr?$AAo?$AAr@|
  024b0		 |$LN92@ContinueTx|
  024b0	00000000	 DCD         |??_C@_1FC@GLEDEEDN@?$AAC?$AAo?$AAn?$AAt?$AAi?$AAn?$AAu?$AAe?$AAT?$AAx?$AAT?$AAr?$AAa?$AAn?$AAs?$AAf?$AAe?$AAr?$AA?3?$AA?5?$AAE?$AAP?$AA?5?$AA?$CF?$AAd?$AA?0?$AA?5?$AAT?$AAX?$AA?5?$AAc?$AAo@|
  024b4		 |$LN93@ContinueTx|
  024b4	00000000	 DCD         |??_C@_1FI@HNJALGAC@?$AAC?$AAo?$AAn?$AAt?$AAi?$AAn?$AAu?$AAe?$AAT?$AAx?$AAT?$AAr?$AAa?$AAn?$AAs?$AAf?$AAe?$AAr?$AA?3?$AA?5?$AAE?$AAP?$AA?5?$AA?$CF?$AAd?$AA?0?$AA?5?$AAT?$AAr?$AAa?$AAn?$AAs@|
  024b8		 |$LN94@ContinueTx|
  024b8	00000000	 DCD         |??_C@_1HM@PDNNCAHI@?$AAC?$AAo?$AAn?$AAt?$AAi?$AAn?$AAu?$AAe?$AAT?$AAx?$AAT?$AAr?$AAa?$AAn?$AAs?$AAf?$AAe?$AAr?$AA?3?$AA?5?$AAE?$AAP?$AA?5?$AA?$CF?$AAd?$AA?0?$AA?5?$AAp?$AAT?$AAr?$AAa?$AAn@|
  024bc		 |$LN82@ContinueTx|
  024bc		 |$LN80@ContinueTx|
	EXPORT	|??_C@_1JI@KEJAEEDK@?$AAC?$AAo?$AAn?$AAt?$AAi?$AAn?$AAu?$AAe?$AAE?$AAp?$AA0?$AAR?$AAx?$AAT?$AAr?$AAa?$AAn?$AAs?$AAf?$AAe?$AAr?$AA?3?$AA?5?$AAp?$AAT?$AAr?$AAa?$AAn?$AAs?$AAf?$AAe?$AAr@| [ DATA ] ; `string'
	EXPORT	|??_C@_1GE@FICDPAIG@?$AAC?$AAo?$AAn?$AAt?$AAi?$AAn?$AAu?$AAe?$AAE?$AAp?$AA0?$AAR?$AAx?$AAT?$AAr?$AAa?$AAn?$AAs?$AAf?$AAe?$AAr?$AA?3?$AA?5?$AAC?$AAl?$AAi?$AAe?$AAn?$AAt?$AA?5?$AAb?$AAu@| [ DATA ] ; `string'
	EXPORT	|??_C@_1FI@EOMLGIFE@?$AAC?$AAo?$AAn?$AAt?$AAi?$AAn?$AAu?$AAe?$AAE?$AAp?$AA0?$AAR?$AAx?$AAT?$AAr?$AAa?$AAn?$AAs?$AAf?$AAe?$AAr?$AA?3?$AA?5?$AAA?$AAl?$AAl?$AA?5?$AAb?$AAy?$AAt?$AAe?$AAs@| [ DATA ] ; `string'
	EXPORT	|??_C@_1HO@FBDBDIJL@?$AAC?$AAo?$AAn?$AAt?$AAi?$AAn?$AAu?$AAe?$AAE?$AAp?$AA0?$AAR?$AAx?$AAT?$AAr?$AAa?$AAn?$AAs?$AAf?$AAe?$AAr?$AA?3?$AA?5?$AAR?$AAe?$AAa?$AAd?$AAi?$AAn?$AAg?$AA?5?$AA?$CF@| [ DATA ] ; `string'
	EXPORT	|??_C@_1EK@OPJLDAME@?$AAC?$AAo?$AAn?$AAt?$AAi?$AAn?$AAu?$AAe?$AAE?$AAp?$AA0?$AAR?$AAx?$AAT?$AAr?$AAa?$AAn?$AAs?$AAf?$AAe?$AAr?$AA?3?$AA?5?$AAR?$AAX?$AA?5?$AAc?$AAo?$AAm?$AAp?$AAl?$AAe@| [ DATA ] ; `string'
	EXPORT	|??_C@_1EO@KJKMHCGN@?$AAC?$AAo?$AAn?$AAt?$AAi?$AAn?$AAu?$AAe?$AAE?$AAp?$AA0?$AAR?$AAx?$AAT?$AAr?$AAa?$AAn?$AAs?$AAf?$AAe?$AAr?$AA?3?$AA?5?$AAN?$AAo?$AA?5?$AAt?$AAr?$AAa?$AAn?$AAs?$AAf@| [ DATA ] ; `string'
	EXPORT	|??_C@_1HE@HIPHGDPE@?$AAC?$AAo?$AAn?$AAt?$AAi?$AAn?$AAu?$AAe?$AAE?$AAp?$AA0?$AAR?$AAx?$AAT?$AAr?$AAa?$AAn?$AAs?$AAf?$AAe?$AAr?$AA?3?$AA?5?$AAp?$AAT?$AAr?$AAa?$AAn?$AAs?$AAf?$AAe?$AAr@| [ DATA ] ; `string'
	EXPORT	|ContinueEp0RxTransfer|

  00060			 AREA	 |.pdata|, PDATA
|$T49728| DCD	|$LN76@ContinueEp@2|
	DCD	0xc001f305
|$T49730| DCD	|$LN66@ContinueEp@2|
	DCD	0x40000d02

  00000			 AREA	 |.rdata|, DATA, READONLY
|??_C@_1JI@KEJAEEDK@?$AAC?$AAo?$AAn?$AAt?$AAi?$AAn?$AAu?$AAe?$AAE?$AAp?$AA0?$AAR?$AAx?$AAT?$AAr?$AAa?$AAn?$AAs?$AAf?$AAe?$AAr?$AA?3?$AA?5?$AAp?$AAT?$AAr?$AAa?$AAn?$AAs?$AAf?$AAe?$AAr@| DCB "C"
	DCB	0x0, "o", 0x0, "n", 0x0, "t", 0x0, "i", 0x0, "n", 0x0, "u"
	DCB	0x0, "e", 0x0, "E", 0x0, "p", 0x0, "0", 0x0, "R", 0x0, "x"
	DCB	0x0, "T", 0x0, "r", 0x0, "a", 0x0, "n", 0x0, "s", 0x0, "f"
	DCB	0x0, "e", 0x0, "r", 0x0, ":", 0x0, " ", 0x0, "p", 0x0, "T"
	DCB	0x0, "r", 0x0, "a", 0x0, "n", 0x0, "s", 0x0, "f", 0x0, "e"
	DCB	0x0, "r", 0x0, " ", 0x0, "0", 0x0, "x", 0x0, "%", 0x0, "0"
	DCB	0x0, "8", 0x0, "x", 0x0, " ", 0x0, "(", 0x0, "%", 0x0, "d"
	DCB	0x0, ",", 0x0, " ", 0x0, "%", 0x0, "d", 0x0, ",", 0x0, " "
	DCB	0x0, "0", 0x0, "x", 0x0, "%", 0x0, "0", 0x0, "x", 0x0, ")"
	DCB	0x0, " ", 0x0, "-", 0x0, " ", 0x0, "n", 0x0, "o", 0x0, "t"
	DCB	0x0, "i", 0x0, "f", 0x0, "y", 0x0, " ", 0x0, "c", 0x0, "o"
	DCB	0x0, "m", 0x0, "p", 0x0, "l", 0x0, "e", 0x0, "t", 0x0, "e"
	DCB	0x0, 0xd, 0x0, 0xa, 0x0, 0x0, 0x0	; `string'

  00000			 AREA	 |.rdata|, DATA, READONLY
|??_C@_1GE@FICDPAIG@?$AAC?$AAo?$AAn?$AAt?$AAi?$AAn?$AAu?$AAe?$AAE?$AAp?$AA0?$AAR?$AAx?$AAT?$AAr?$AAa?$AAn?$AAs?$AAf?$AAe?$AAr?$AA?3?$AA?5?$AAC?$AAl?$AAi?$AAe?$AAn?$AAt?$AA?5?$AAb?$AAu@| DCB "C"
	DCB	0x0, "o", 0x0, "n", 0x0, "t", 0x0, "i", 0x0, "n", 0x0, "u"
	DCB	0x0, "e", 0x0, "E", 0x0, "p", 0x0, "0", 0x0, "R", 0x0, "x"
	DCB	0x0, "T", 0x0, "r", 0x0, "a", 0x0, "n", 0x0, "s", 0x0, "f"
	DCB	0x0, "e", 0x0, "r", 0x0, ":", 0x0, " ", 0x0, "C", 0x0, "l"
	DCB	0x0, "i", 0x0, "e", 0x0, "n", 0x0, "t", 0x0, " ", 0x0, "b"
	DCB	0x0, "u", 0x0, "f", 0x0, "f", 0x0, "e", 0x0, "r", 0x0, " "
	DCB	0x0, "e", 0x0, "x", 0x0, "c", 0x0, "e", 0x0, "p", 0x0, "t"
	DCB	0x0, "i", 0x0, "o", 0x0, "n", 0x0, "!", 0x0, 0xd, 0x0, 0xa
	DCB	0x0, 0x0, 0x0				; `string'

  00000			 AREA	 |.rdata|, DATA, READONLY
|??_C@_1FI@EOMLGIFE@?$AAC?$AAo?$AAn?$AAt?$AAi?$AAn?$AAu?$AAe?$AAE?$AAp?$AA0?$AAR?$AAx?$AAT?$AAr?$AAa?$AAn?$AAs?$AAf?$AAe?$AAr?$AA?3?$AA?5?$AAA?$AAl?$AAl?$AA?5?$AAb?$AAy?$AAt?$AAe?$AAs@| DCB "C"
	DCB	0x0, "o", 0x0, "n", 0x0, "t", 0x0, "i", 0x0, "n", 0x0, "u"
	DCB	0x0, "e", 0x0, "E", 0x0, "p", 0x0, "0", 0x0, "R", 0x0, "x"
	DCB	0x0, "T", 0x0, "r", 0x0, "a", 0x0, "n", 0x0, "s", 0x0, "f"
	DCB	0x0, "e", 0x0, "r", 0x0, ":", 0x0, " ", 0x0, "A", 0x0, "l"
	DCB	0x0, "l", 0x0, " ", 0x0, "b", 0x0, "y", 0x0, "t", 0x0, "e"
	DCB	0x0, "s", 0x0, " ", 0x0, "r", 0x0, "e", 0x0, "c", 0x0, "e"
	DCB	0x0, "i", 0x0, "v", 0x0, "e", 0x0, "d", 0x0, 0xd, 0x0, 0xa
	DCB	0x0, 0x0, 0x0				; `string'

  00000			 AREA	 |.rdata|, DATA, READONLY
|??_C@_1HO@FBDBDIJL@?$AAC?$AAo?$AAn?$AAt?$AAi?$AAn?$AAu?$AAe?$AAE?$AAp?$AA0?$AAR?$AAx?$AAT?$AAr?$AAa?$AAn?$AAs?$AAf?$AAe?$AAr?$AA?3?$AA?5?$AAR?$AAe?$AAa?$AAd?$AAi?$AAn?$AAg?$AA?5?$AA?$CF@| DCB "C"
	DCB	0x0, "o", 0x0, "n", 0x0, "t", 0x0, "i", 0x0, "n", 0x0, "u"
	DCB	0x0, "e", 0x0, "E", 0x0, "p", 0x0, "0", 0x0, "R", 0x0, "x"
	DCB	0x0, "T", 0x0, "r", 0x0, "a", 0x0, "n", 0x0, "s", 0x0, "f"
	DCB	0x0, "e", 0x0, "r", 0x0, ":", 0x0, " ", 0x0, "R", 0x0, "e"
	DCB	0x0, "a", 0x0, "d", 0x0, "i", 0x0, "n", 0x0, "g", 0x0, " "
	DCB	0x0, "%", 0x0, "d", 0x0, " ", 0x0, "b", 0x0, "y", 0x0, "t"
	DCB	0x0, "e", 0x0, "s", 0x0, ",", 0x0, " ", 0x0, "m", 0x0, "a"
	DCB	0x0, "x", 0x0, "S", 0x0, "i", 0x0, "z", 0x0, "e", 0x0, " "
	DCB	0x0, "%", 0x0, "d", 0x0, ",", 0x0, " ", 0x0, "l", 0x0, "e"
	DCB	0x0, "f", 0x0, "t", 0x0, " ", 0x0, "%", 0x0, "d", 0x0, 0xd
	DCB	0x0, 0xa, 0x0, 0x0, 0x0			; `string'

  00000			 AREA	 |.rdata|, DATA, READONLY
|??_C@_1EK@OPJLDAME@?$AAC?$AAo?$AAn?$AAt?$AAi?$AAn?$AAu?$AAe?$AAE?$AAp?$AA0?$AAR?$AAx?$AAT?$AAr?$AAa?$AAn?$AAs?$AAf?$AAe?$AAr?$AA?3?$AA?5?$AAR?$AAX?$AA?5?$AAc?$AAo?$AAm?$AAp?$AAl?$AAe@| DCB "C"
	DCB	0x0, "o", 0x0, "n", 0x0, "t", 0x0, "i", 0x0, "n", 0x0, "u"
	DCB	0x0, "e", 0x0, "E", 0x0, "p", 0x0, "0", 0x0, "R", 0x0, "x"
	DCB	0x0, "T", 0x0, "r", 0x0, "a", 0x0, "n", 0x0, "s", 0x0, "f"
	DCB	0x0, "e", 0x0, "r", 0x0, ":", 0x0, " ", 0x0, "R", 0x0, "X"
	DCB	0x0, " ", 0x0, "c", 0x0, "o", 0x0, "m", 0x0, "p", 0x0, "l"
	DCB	0x0, "e", 0x0, "t", 0x0, "e", 0x0, 0xd, 0x0, 0xa, 0x0, 0x0
	DCB	0x0					; `string'

  00000			 AREA	 |.rdata|, DATA, READONLY
|??_C@_1EO@KJKMHCGN@?$AAC?$AAo?$AAn?$AAt?$AAi?$AAn?$AAu?$AAe?$AAE?$AAp?$AA0?$AAR?$AAx?$AAT?$AAr?$AAa?$AAn?$AAs?$AAf?$AAe?$AAr?$AA?3?$AA?5?$AAN?$AAo?$AA?5?$AAt?$AAr?$AAa?$AAn?$AAs?$AAf@| DCB "C"
	DCB	0x0, "o", 0x0, "n", 0x0, "t", 0x0, "i", 0x0, "n", 0x0, "u"
	DCB	0x0, "e", 0x0, "E", 0x0, "p", 0x0, "0", 0x0, "R", 0x0, "x"
	DCB	0x0, "T", 0x0, "r", 0x0, "a", 0x0, "n", 0x0, "s", 0x0, "f"
	DCB	0x0, "e", 0x0, "r", 0x0, ":", 0x0, " ", 0x0, "N", 0x0, "o"
	DCB	0x0, " ", 0x0, "t", 0x0, "r", 0x0, "a", 0x0, "n", 0x0, "s"
	DCB	0x0, "f", 0x0, "e", 0x0, "r", 0x0, " ", 0x0, "y", 0x0, "e"
	DCB	0x0, "t", 0x0, 0x0, 0x0			; `string'

  00000			 AREA	 |.rdata|, DATA, READONLY
|??_C@_1HE@HIPHGDPE@?$AAC?$AAo?$AAn?$AAt?$AAi?$AAn?$AAu?$AAe?$AAE?$AAp?$AA0?$AAR?$AAx?$AAT?$AAr?$AAa?$AAn?$AAs?$AAf?$AAe?$AAr?$AA?3?$AA?5?$AAp?$AAT?$AAr?$AAa?$AAn?$AAs?$AAf?$AAe?$AAr@| DCB "C"
	DCB	0x0, "o", 0x0, "n", 0x0, "t", 0x0, "i", 0x0, "n", 0x0, "u"
	DCB	0x0, "e", 0x0, "E", 0x0, "p", 0x0, "0", 0x0, "R", 0x0, "x"
	DCB	0x0, "T", 0x0, "r", 0x0, "a", 0x0, "n", 0x0, "s", 0x0, "f"
	DCB	0x0, "e", 0x0, "r", 0x0, ":", 0x0, " ", 0x0, "p", 0x0, "T"
	DCB	0x0, "r", 0x0, "a", 0x0, "n", 0x0, "s", 0x0, "f", 0x0, "e"
	DCB	0x0, "r", 0x0, " ", 0x0, "0", 0x0, "x", 0x0, "%", 0x0, "0"
	DCB	0x0, "8", 0x0, "x", 0x0, " ", 0x0, "(", 0x0, "%", 0x0, "d"
	DCB	0x0, ",", 0x0, " ", 0x0, "%", 0x0, "d", 0x0, ",", 0x0, " "
	DCB	0x0, "0", 0x0, "x", 0x0, "%", 0x0, "0", 0x0, "x", 0x0, ")"
	DCB	0x0, 0xd, 0x0, 0xa, 0x0, 0x0, 0x0	; `string'

  0002c			 AREA	 |.xdata|, DATA
|$T49726| DCD	0x1
	DCD	|$LN70@ContinueEp@2|
	DCD	|$LN71@ContinueEp@2|
	DCD	|$LN66@ContinueEp@2|
	DCD	|$LN67@ContinueEp@2|
; Function compile flags: /Odtp

  024bc			 AREA	 |.text|, CODE, ARM

  024bc	00000000	 DCD         |__C_specific_handler|
  024c0	00000000	 DCD         |$T49726|

  024c4		 |ContinueEp0RxTransfer| PROC

; 1260 : {

  024c4		 |$LN76@ContinueEp@2|
  024c4	e1a0c00d	 mov         r12, sp
  024c8	e92d0003	 stmdb       sp!, {r0, r1}
  024cc	e92d5800	 stmdb       sp!, {r11, r12, lr}
  024d0	e28db00c	 add         r11, sp, #0xC
  024d4	e24dd0ac	 sub         sp, sp, #0xAC
  024d8		 |$LN74@ContinueEp@2|

; 1261 :     CSL_UsbRegs    *pUsbRegs     = pPdd->pUsbdRegs;

  024d8	e59b3000	 ldr         r3, [r11]
  024dc	e283301c	 add         r3, r3, #0x1C
  024e0	e5933000	 ldr         r3, [r3]
  024e4	e50b3090	 str         r3, [r11, #-0x90]

; 1262 :     UsbFnEp        *pEP           = &pPdd->ep[endPoint];

  024e8	e59b3000	 ldr         r3, [r11]
  024ec	e2831fa1	 add         r1, r3, #0xA1, 30
  024f0	e59b2004	 ldr         r2, [r11, #4]
  024f4	e3a0303c	 mov         r3, #0x3C
  024f8	e0030392	 mul         r3, r2, r3
  024fc	e0813003	 add         r3, r1, r3
  02500	e50b3098	 str         r3, [r11, #-0x98]

; 1263 :     STransfer *pTransfer = pEP->pTransfer;

  02504	e51b3098	 ldr         r3, [r11, #-0x98]
  02508	e2833020	 add         r3, r3, #0x20
  0250c	e5933000	 ldr         r3, [r3]
  02510	e50b309c	 str         r3, [r11, #-0x9C]

; 1264 :     BOOL complete = FALSE;

  02514	e3a03000	 mov         r3, #0
  02518	e50b308c	 str         r3, [r11, #-0x8C]

; 1265 :     volatile UINT16 *pepCtrlReg;
; 1266 :     UINT16  epCsrReg;
; 1267 :     UINT16  rcvSize = 0;

  0251c	e3a03000	 mov         r3, #0
  02520	e14b3ab8	 strh        r3, [r11, #-0xA8]

; 1268 :     DWORD space;
; 1269 :     DWORD count;
; 1270 :     UCHAR *pBuffer = NULL;

  02524	e3a03000	 mov         r3, #0
  02528	e50b30b0	 str         r3, [r11, #-0xB0]

; 1271 : 	WORD maxSize;
; 1272 : 
; 1273 :     PRINTMSG(ZONE_PDD_EP0,
; 1274 :              (L"ContinueEp0RxTransfer: pTransfer 0x%08x (%d, %d, 0x%0x)\r\n",
; 1275 :               pTransfer, pTransfer != NULL ? pTransfer->cbBuffer : 0,
; 1276 :               pTransfer != NULL ? pTransfer->cbTransferred : 0,
; 1277 :               pTransfer != NULL ? pTransfer->dwUsbError : -1));

  0252c	e59f3774	 ldr         r3, [pc, #0x774]
  02530	e5933440	 ldr         r3, [r3, #0x440]
  02534	e3130c02	 tst         r3, #2, 24
  02538	0a000055	 beq         |$LN25@ContinueEp@2|
  0253c	e59f3764	 ldr         r3, [pc, #0x764]
  02540	e5933440	 ldr         r3, [r3, #0x440]
  02544	e3130801	 tst         r3, #1, 16
  02548	0a000027	 beq         |$LN23@ContinueEp@2|
  0254c	e51b309c	 ldr         r3, [r11, #-0x9C]
  02550	e3530000	 cmp         r3, #0
  02554	0a000004	 beq         |$LN11@ContinueEp@2|
  02558	e51b309c	 ldr         r3, [r11, #-0x9C]
  0255c	e2833014	 add         r3, r3, #0x14
  02560	e5933000	 ldr         r3, [r3]
  02564	e50b3078	 str         r3, [r11, #-0x78]
  02568	ea000001	 b           |$LN12@ContinueEp@2|
  0256c		 |$LN11@ContinueEp@2|
  0256c	e3e03000	 mvn         r3, #0
  02570	e50b3078	 str         r3, [r11, #-0x78]
  02574		 |$LN12@ContinueEp@2|
  02574	e51b309c	 ldr         r3, [r11, #-0x9C]
  02578	e3530000	 cmp         r3, #0
  0257c	0a000004	 beq         |$LN13@ContinueEp@2|
  02580	e51b309c	 ldr         r3, [r11, #-0x9C]
  02584	e2833010	 add         r3, r3, #0x10
  02588	e5933000	 ldr         r3, [r3]
  0258c	e50b3074	 str         r3, [r11, #-0x74]
  02590	ea000001	 b           |$LN14@ContinueEp@2|
  02594		 |$LN13@ContinueEp@2|
  02594	e3a03000	 mov         r3, #0
  02598	e50b3074	 str         r3, [r11, #-0x74]
  0259c		 |$LN14@ContinueEp@2|
  0259c	e51b309c	 ldr         r3, [r11, #-0x9C]
  025a0	e3530000	 cmp         r3, #0
  025a4	0a000004	 beq         |$LN15@ContinueEp@2|
  025a8	e51b309c	 ldr         r3, [r11, #-0x9C]
  025ac	e283300c	 add         r3, r3, #0xC
  025b0	e5933000	 ldr         r3, [r3]
  025b4	e50b3070	 str         r3, [r11, #-0x70]
  025b8	ea000001	 b           |$LN16@ContinueEp@2|
  025bc		 |$LN15@ContinueEp@2|
  025bc	e3a03000	 mov         r3, #0
  025c0	e50b3070	 str         r3, [r11, #-0x70]
  025c4		 |$LN16@ContinueEp@2|
  025c4	e51b3078	 ldr         r3, [r11, #-0x78]
  025c8	e58d3000	 str         r3, [sp]
  025cc	e51b3074	 ldr         r3, [r11, #-0x74]
  025d0	e51b2070	 ldr         r2, [r11, #-0x70]
  025d4	e51b109c	 ldr         r1, [r11, #-0x9C]
  025d8	e59f06e0	 ldr         r0, [pc, #0x6E0]
  025dc	eb000000	 bl          CeLogMsg
  025e0	e3a03001	 mov         r3, #1
  025e4	e50b306c	 str         r3, [r11, #-0x6C]
  025e8	ea000026	 b           |$LN24@ContinueEp@2|
  025ec		 |$LN23@ContinueEp@2|
  025ec	e51b309c	 ldr         r3, [r11, #-0x9C]
  025f0	e3530000	 cmp         r3, #0
  025f4	0a000004	 beq         |$LN17@ContinueEp@2|
  025f8	e51b309c	 ldr         r3, [r11, #-0x9C]
  025fc	e2833014	 add         r3, r3, #0x14
  02600	e5933000	 ldr         r3, [r3]
  02604	e50b3068	 str         r3, [r11, #-0x68]
  02608	ea000001	 b           |$LN18@ContinueEp@2|
  0260c		 |$LN17@ContinueEp@2|
  0260c	e3e03000	 mvn         r3, #0
  02610	e50b3068	 str         r3, [r11, #-0x68]
  02614		 |$LN18@ContinueEp@2|
  02614	e51b309c	 ldr         r3, [r11, #-0x9C]
  02618	e3530000	 cmp         r3, #0
  0261c	0a000004	 beq         |$LN19@ContinueEp@2|
  02620	e51b309c	 ldr         r3, [r11, #-0x9C]
  02624	e2833010	 add         r3, r3, #0x10
  02628	e5933000	 ldr         r3, [r3]
  0262c	e50b3064	 str         r3, [r11, #-0x64]
  02630	ea000001	 b           |$LN20@ContinueEp@2|
  02634		 |$LN19@ContinueEp@2|
  02634	e3a03000	 mov         r3, #0
  02638	e50b3064	 str         r3, [r11, #-0x64]
  0263c		 |$LN20@ContinueEp@2|
  0263c	e51b309c	 ldr         r3, [r11, #-0x9C]
  02640	e3530000	 cmp         r3, #0
  02644	0a000004	 beq         |$LN21@ContinueEp@2|
  02648	e51b309c	 ldr         r3, [r11, #-0x9C]
  0264c	e283300c	 add         r3, r3, #0xC
  02650	e5933000	 ldr         r3, [r3]
  02654	e50b3060	 str         r3, [r11, #-0x60]
  02658	ea000001	 b           |$LN22@ContinueEp@2|
  0265c		 |$LN21@ContinueEp@2|
  0265c	e3a03000	 mov         r3, #0
  02660	e50b3060	 str         r3, [r11, #-0x60]
  02664		 |$LN22@ContinueEp@2|
  02664	e51b3068	 ldr         r3, [r11, #-0x68]
  02668	e58d3000	 str         r3, [sp]
  0266c	e51b3064	 ldr         r3, [r11, #-0x64]
  02670	e51b2060	 ldr         r2, [r11, #-0x60]
  02674	e51b109c	 ldr         r1, [r11, #-0x9C]
  02678	e59f0640	 ldr         r0, [pc, #0x640]
  0267c	eb000000	 bl          NKDbgPrintfW
  02680	e3a03000	 mov         r3, #0
  02684	e50b306c	 str         r3, [r11, #-0x6C]
  02688		 |$LN24@ContinueEp@2|
  02688	e3a03001	 mov         r3, #1
  0268c	e50b305c	 str         r3, [r11, #-0x5C]
  02690	ea000001	 b           |$LN26@ContinueEp@2|
  02694		 |$LN25@ContinueEp@2|
  02694	e3a03000	 mov         r3, #0
  02698	e50b305c	 str         r3, [r11, #-0x5C]
  0269c		 |$LN26@ContinueEp@2|

; 1278 : 
; 1279 :     /* Enter CriticalSection */
; 1280 :     LOCK_ENDPOINT(pPdd);

  0269c	e59b3000	 ldr         r3, [r11]
  026a0	e2830e27	 add         r0, r3, #0x27, 28
  026a4	eb000000	 bl          EnterCriticalSection

; 1281 : 
; 1282 :     pepCtrlReg = &pUsbRegs->EPCSR[ endPoint ].PERI_TXCSR;

  026a8	e51b3090	 ldr         r3, [r11, #-0x90]
  026ac	e2831c05	 add         r1, r3, #5, 24
  026b0	e59b2004	 ldr         r2, [r11, #4]
  026b4	e3a03010	 mov         r3, #0x10
  026b8	e0030392	 mul         r3, r2, r3
  026bc	e0813003	 add         r3, r1, r3
  026c0	e2833002	 add         r3, r3, #2
  026c4	e50b30a0	 str         r3, [r11, #-0xA0]

; 1283 : 
; 1284 :     epCsrReg = (*pepCtrlReg);

  026c8	e51b30a0	 ldr         r3, [r11, #-0xA0]
  026cc	e1d330b0	 ldrh        r3, [r3]
  026d0	e14b39b4	 strh        r3, [r11, #-0x94]

; 1285 : 
; 1286 :     /* Got EP 0 interrupt before MDD issued transfer? */
; 1287 :     if (pTransfer == NULL)

  026d4	e51b309c	 ldr         r3, [r11, #-0x9C]
  026d8	e3530000	 cmp         r3, #0
  026dc	1a000016	 bne         |$LN8@ContinueEp@2|

; 1288 :     {
; 1289 :         PRINTMSG(ZONE_PDD_EP0, (L"ContinueEp0RxTransfer: No transfer yet"));

  026e0	e59f35c0	 ldr         r3, [pc, #0x5C0]
  026e4	e5933440	 ldr         r3, [r3, #0x440]
  026e8	e3130c02	 tst         r3, #2, 24
  026ec	0a00000f	 beq         |$LN29@ContinueEp@2|
  026f0	e59f35b0	 ldr         r3, [pc, #0x5B0]
  026f4	e5933440	 ldr         r3, [r3, #0x440]
  026f8	e3130801	 tst         r3, #1, 16
  026fc	0a000004	 beq         |$LN27@ContinueEp@2|
  02700	e59f05b4	 ldr         r0, [pc, #0x5B4]
  02704	eb000000	 bl          CeLogMsg
  02708	e3a03001	 mov         r3, #1
  0270c	e50b3058	 str         r3, [r11, #-0x58]
  02710	ea000003	 b           |$LN28@ContinueEp@2|
  02714		 |$LN27@ContinueEp@2|
  02714	e59f05a0	 ldr         r0, [pc, #0x5A0]
  02718	eb000000	 bl          NKDbgPrintfW
  0271c	e3a03000	 mov         r3, #0
  02720	e50b3058	 str         r3, [r11, #-0x58]
  02724		 |$LN28@ContinueEp@2|
  02724	e3a03001	 mov         r3, #1
  02728	e50b3054	 str         r3, [r11, #-0x54]
  0272c	ea000001	 b           |$LN30@ContinueEp@2|
  02730		 |$LN29@ContinueEp@2|
  02730	e3a03000	 mov         r3, #0
  02734	e50b3054	 str         r3, [r11, #-0x54]
  02738		 |$LN30@ContinueEp@2|

; 1290 :         goto cleanUp;

  02738	ea0000e1	 b           |$cleanUp$48044|
  0273c		 |$LN8@ContinueEp@2|

; 1291 :     }
; 1292 : 
; 1293 :     /* Is this a status phase (IN) interrupt for EP 0? */
; 1294 :     if (pEP->epStage == MGC_END0_STAGE_STATUSIN)

  0273c	e51b3098	 ldr         r3, [r11, #-0x98]
  02740	e283301c	 add         r3, r3, #0x1C
  02744	e5933000	 ldr         r3, [r3]
  02748	e3530004	 cmp         r3, #4
  0274c	1a00001a	 bne         |$LN7@ContinueEp@2|

; 1295 :     {
; 1296 :         PRINTMSG(ZONE_PDD_EP0, (L"ContinueEp0RxTransfer: RX complete\r\n"));

  02750	e59f3550	 ldr         r3, [pc, #0x550]
  02754	e5933440	 ldr         r3, [r3, #0x440]
  02758	e3130c02	 tst         r3, #2, 24
  0275c	0a00000f	 beq         |$LN33@ContinueEp@2|
  02760	e59f3540	 ldr         r3, [pc, #0x540]
  02764	e5933440	 ldr         r3, [r3, #0x440]
  02768	e3130801	 tst         r3, #1, 16
  0276c	0a000004	 beq         |$LN31@ContinueEp@2|
  02770	e59f0540	 ldr         r0, [pc, #0x540]
  02774	eb000000	 bl          CeLogMsg
  02778	e3a03001	 mov         r3, #1
  0277c	e50b3050	 str         r3, [r11, #-0x50]
  02780	ea000003	 b           |$LN32@ContinueEp@2|
  02784		 |$LN31@ContinueEp@2|
  02784	e59f052c	 ldr         r0, [pc, #0x52C]
  02788	eb000000	 bl          NKDbgPrintfW
  0278c	e3a03000	 mov         r3, #0
  02790	e50b3050	 str         r3, [r11, #-0x50]
  02794		 |$LN32@ContinueEp@2|
  02794	e3a03001	 mov         r3, #1
  02798	e50b304c	 str         r3, [r11, #-0x4C]
  0279c	ea000001	 b           |$LN34@ContinueEp@2|
  027a0		 |$LN33@ContinueEp@2|
  027a0	e3a03000	 mov         r3, #0
  027a4	e50b304c	 str         r3, [r11, #-0x4C]
  027a8		 |$LN34@ContinueEp@2|

; 1297 :         pEP->epStage = MGC_END0_START;

  027a8	e51b3098	 ldr         r3, [r11, #-0x98]
  027ac	e283201c	 add         r2, r3, #0x1C
  027b0	e3a03001	 mov         r3, #1
  027b4	e5823000	 str         r3, [r2]

; 1298 :         goto cleanUp;

  027b8	ea0000c1	 b           |$cleanUp$48044|
  027bc		 |$LN7@ContinueEp@2|

; 1299 :     }
; 1300 : 
; 1301 :     rcvSize = pUsbRegs->EPCSR[ endPoint ].RXCOUNT;

  027bc	e51b3090	 ldr         r3, [r11, #-0x90]
  027c0	e2831c05	 add         r1, r3, #5, 24
  027c4	e59b2004	 ldr         r2, [r11, #4]
  027c8	e3a03010	 mov         r3, #0x10
  027cc	e0030392	 mul         r3, r2, r3
  027d0	e0813003	 add         r3, r1, r3
  027d4	e2833008	 add         r3, r3, #8
  027d8	e1d330b0	 ldrh        r3, [r3]
  027dc	e14b3ab8	 strh        r3, [r11, #-0xA8]

; 1302 :     maxSize = pEP->maxPacketSize;

  027e0	e51b3098	 ldr         r3, [r11, #-0x98]
  027e4	e2833008	 add         r3, r3, #8
  027e8	e1d330b0	 ldrh        r3, [r3]
  027ec	e14b3bb4	 strh        r3, [r11, #-0xB4]

; 1303 : 
; 1304 :     /* If controller NAKs the host we can get an interrupt before the whole
; 1305 :        packet is received - just ignore and wait for whole packet to arrive. */
; 1306 :     if (rcvSize != maxSize && rcvSize != (pTransfer->cbBuffer - pTransfer->cbTransferred))

  027f0	e15b3ab8	 ldrh        r3, [r11, #-0xA8]
  027f4	e1a02003	 mov         r2, r3
  027f8	e15b3bb4	 ldrh        r3, [r11, #-0xB4]
  027fc	e1520003	 cmp         r2, r3
  02800	0a00000a	 beq         |$LN6@ContinueEp@2|
  02804	e15b1ab8	 ldrh        r1, [r11, #-0xA8]
  02808	e51b309c	 ldr         r3, [r11, #-0x9C]
  0280c	e283200c	 add         r2, r3, #0xC
  02810	e51b309c	 ldr         r3, [r11, #-0x9C]
  02814	e2833010	 add         r3, r3, #0x10
  02818	e5922000	 ldr         r2, [r2]
  0281c	e5933000	 ldr         r3, [r3]
  02820	e0423003	 sub         r3, r2, r3
  02824	e1510003	 cmp         r1, r3
  02828	0a000000	 beq         |$LN6@ContinueEp@2|

; 1307 :         goto cleanUp;

  0282c	ea0000a4	 b           |$cleanUp$48044|
  02830		 |$LN6@ContinueEp@2|

; 1308 : 
; 1309 :     /* Update the State of this EP */
; 1310 :     pEP->epStage = MGC_END0_STAGE_RX;

  02830	e51b3098	 ldr         r3, [r11, #-0x98]
  02834	e283201c	 add         r2, r3, #0x1C
  02838	e3a03003	 mov         r3, #3
  0283c	e5823000	 str         r3, [r2]
  02840		 |$LN70@ContinueEp@2|

; 1311 :     __try
; 1312 :     {
; 1313 :         pBuffer = (UCHAR*)pTransfer->pvBuffer + pTransfer->cbTransferred;

  02840	e51b309c	 ldr         r3, [r11, #-0x9C]
  02844	e2832004	 add         r2, r3, #4
  02848	e51b309c	 ldr         r3, [r11, #-0x9C]
  0284c	e2833010	 add         r3, r3, #0x10
  02850	e5922000	 ldr         r2, [r2]
  02854	e5933000	 ldr         r3, [r3]
  02858	e0823003	 add         r3, r2, r3
  0285c	e50b30b0	 str         r3, [r11, #-0xB0]

; 1314 :         space = pTransfer->cbBuffer - pTransfer->cbTransferred;

  02860	e51b309c	 ldr         r3, [r11, #-0x9C]
  02864	e283200c	 add         r2, r3, #0xC
  02868	e51b309c	 ldr         r3, [r11, #-0x9C]
  0286c	e2833010	 add         r3, r3, #0x10
  02870	e5922000	 ldr         r2, [r2]
  02874	e5933000	 ldr         r3, [r3]
  02878	e0423003	 sub         r3, r2, r3
  0287c	e50b30a4	 str         r3, [r11, #-0xA4]

; 1315 : 
; 1316 :         /* Get number of bytes to be unloaded from FIFO
; 1317 :          * Check the FIFO's Max Pkt Size against the Size
; 1318 :          * available in the pTransfer Buffer
; 1319 :          */
; 1320 : 
; 1321 :         /* First Check what amount of space is available in the pTransfer
; 1322 :          * Buffer and also the amount of data sent by the Host. The
; 1323 :          * minimum of these two needs to be considered
; 1324 :          */
; 1325 :         count = (rcvSize > space) ? space : rcvSize;

  02880	e15b2ab8	 ldrh        r2, [r11, #-0xA8]
  02884	e51b30a4	 ldr         r3, [r11, #-0xA4]
  02888	e1520003	 cmp         r2, r3
  0288c	9a000002	 bls         |$LN35@ContinueEp@2|
  02890	e51b30a4	 ldr         r3, [r11, #-0xA4]
  02894	e50b3048	 str         r3, [r11, #-0x48]
  02898	ea000001	 b           |$LN36@ContinueEp@2|
  0289c		 |$LN35@ContinueEp@2|
  0289c	e15b3ab8	 ldrh        r3, [r11, #-0xA8]
  028a0	e50b3048	 str         r3, [r11, #-0x48]
  028a4		 |$LN36@ContinueEp@2|
  028a4	e51b3048	 ldr         r3, [r11, #-0x48]
  028a8	e50b30ac	 str         r3, [r11, #-0xAC]

; 1326 : 
; 1327 :         PRINTMSG(ZONE_PDD_EP0,
; 1328 :                  (L"ContinueEp0RxTransfer: Reading %d bytes, maxSize %d, left %d\r\n",
; 1329 :                   count, maxSize, space));

  028ac	e59f33f4	 ldr         r3, [pc, #0x3F4]
  028b0	e5933440	 ldr         r3, [r3, #0x440]
  028b4	e3130c02	 tst         r3, #2, 24
  028b8	0a000015	 beq         |$LN39@ContinueEp@2|
  028bc	e59f33e4	 ldr         r3, [pc, #0x3E4]
  028c0	e5933440	 ldr         r3, [r3, #0x440]
  028c4	e3130801	 tst         r3, #1, 16
  028c8	0a000007	 beq         |$LN37@ContinueEp@2|
  028cc	e51b30a4	 ldr         r3, [r11, #-0xA4]
  028d0	e15b2bb4	 ldrh        r2, [r11, #-0xB4]
  028d4	e51b10ac	 ldr         r1, [r11, #-0xAC]
  028d8	e59f03d4	 ldr         r0, [pc, #0x3D4]
  028dc	eb000000	 bl          CeLogMsg
  028e0	e3a03001	 mov         r3, #1
  028e4	e50b3044	 str         r3, [r11, #-0x44]
  028e8	ea000006	 b           |$LN38@ContinueEp@2|
  028ec		 |$LN37@ContinueEp@2|
  028ec	e51b30a4	 ldr         r3, [r11, #-0xA4]
  028f0	e15b2bb4	 ldrh        r2, [r11, #-0xB4]
  028f4	e51b10ac	 ldr         r1, [r11, #-0xAC]
  028f8	e59f03b4	 ldr         r0, [pc, #0x3B4]
  028fc	eb000000	 bl          NKDbgPrintfW
  02900	e3a03000	 mov         r3, #0
  02904	e50b3044	 str         r3, [r11, #-0x44]
  02908		 |$LN38@ContinueEp@2|
  02908	e3a03001	 mov         r3, #1
  0290c	e50b3040	 str         r3, [r11, #-0x40]
  02910	ea000001	 b           |$LN40@ContinueEp@2|
  02914		 |$LN39@ContinueEp@2|
  02914	e3a03000	 mov         r3, #0
  02918	e50b3040	 str         r3, [r11, #-0x40]
  0291c		 |$LN40@ContinueEp@2|

; 1330 :         
; 1331 : 		/* Read data */
; 1332 : 		ReadFIFO(pPdd, (UCHAR)endPoint, pBuffer, count);

  0291c	e51b30ac	 ldr         r3, [r11, #-0xAC]
  02920	e51b20b0	 ldr         r2, [r11, #-0xB0]
  02924	e59b1004	 ldr         r1, [r11, #4]
  02928	e20110ff	 and         r1, r1, #0xFF
  0292c	e59b0000	 ldr         r0, [r11]
  02930	eb000000	 bl          ReadFIFO

; 1333 : 
; 1334 : 		/* We transfered some data */
; 1335 :         pTransfer->cbTransferred += count ;

  02934	e51b309c	 ldr         r3, [r11, #-0x9C]
  02938	e2833010	 add         r3, r3, #0x10
  0293c	e5932000	 ldr         r2, [r3]
  02940	e51b30ac	 ldr         r3, [r11, #-0xAC]
  02944	e0822003	 add         r2, r2, r3
  02948	e51b309c	 ldr         r3, [r11, #-0x9C]
  0294c	e2833010	 add         r3, r3, #0x10
  02950	e5832000	 str         r2, [r3]

; 1336 : 
; 1337 :         /* Is this end of transfer? We will determine this
; 1338 :          * situation based on two conditions.
; 1339 :          * 1. The Buffer Size inside the pTransfer is filled up
; 1340 :          * 2. The Received pkt Size is lesser than the maximum
; 1341 :          * size of the RxFIFO. The Spec says that if huge number
; 1342 :          * of data needs to be sent to the Controller, it will
; 1343 :          * send it in multiples of the wMaxPacketSize field
; 1344 :          * of the EndPoint Descriptor. The last residue data is
; 1345 :          * sent in a packet which has length lesser than wMaxPacketSize
; 1346 :          */
; 1347 :         if ((pTransfer->cbTransferred == pTransfer->cbBuffer) ||
; 1348 :             (count < maxSize))

  02954	e51b309c	 ldr         r3, [r11, #-0x9C]
  02958	e2832010	 add         r2, r3, #0x10
  0295c	e51b309c	 ldr         r3, [r11, #-0x9C]
  02960	e283300c	 add         r3, r3, #0xC
  02964	e5922000	 ldr         r2, [r2]
  02968	e5933000	 ldr         r3, [r3]
  0296c	e1520003	 cmp         r2, r3
  02970	0a000003	 beq         |$LN3@ContinueEp@2|
  02974	e15b2bb4	 ldrh        r2, [r11, #-0xB4]
  02978	e51b30ac	 ldr         r3, [r11, #-0xAC]
  0297c	e1530002	 cmp         r3, r2
  02980	2a00001f	 bcs         |$LN4@ContinueEp@2|
  02984		 |$LN3@ContinueEp@2|

; 1349 :         {
; 1350 :             PRINTMSG(ZONE_PDD_EP0, (L"ContinueEp0RxTransfer: All bytes received\r\n"));

  02984	e59f331c	 ldr         r3, [pc, #0x31C]
  02988	e5933440	 ldr         r3, [r3, #0x440]
  0298c	e3130c02	 tst         r3, #2, 24
  02990	0a00000f	 beq         |$LN43@ContinueEp@2|
  02994	e59f330c	 ldr         r3, [pc, #0x30C]
  02998	e5933440	 ldr         r3, [r3, #0x440]
  0299c	e3130801	 tst         r3, #1, 16
  029a0	0a000004	 beq         |$LN41@ContinueEp@2|
  029a4	e59f0304	 ldr         r0, [pc, #0x304]
  029a8	eb000000	 bl          CeLogMsg
  029ac	e3a03001	 mov         r3, #1
  029b0	e50b303c	 str         r3, [r11, #-0x3C]
  029b4	ea000003	 b           |$LN42@ContinueEp@2|
  029b8		 |$LN41@ContinueEp@2|
  029b8	e59f02f0	 ldr         r0, [pc, #0x2F0]
  029bc	eb000000	 bl          NKDbgPrintfW
  029c0	e3a03000	 mov         r3, #0
  029c4	e50b303c	 str         r3, [r11, #-0x3C]
  029c8		 |$LN42@ContinueEp@2|
  029c8	e3a03001	 mov         r3, #1
  029cc	e50b3038	 str         r3, [r11, #-0x38]
  029d0	ea000001	 b           |$LN44@ContinueEp@2|
  029d4		 |$LN43@ContinueEp@2|
  029d4	e3a03000	 mov         r3, #0
  029d8	e50b3038	 str         r3, [r11, #-0x38]
  029dc		 |$LN44@ContinueEp@2|

; 1351 : 
; 1352 :             /* Hand the packet to MDD at this point */
; 1353 :             pTransfer->dwUsbError = UFN_NO_ERROR;

  029dc	e51b309c	 ldr         r3, [r11, #-0x9C]
  029e0	e2832014	 add         r2, r3, #0x14
  029e4	e3a03000	 mov         r3, #0
  029e8	e5823000	 str         r3, [r2]

; 1354 :             complete = TRUE;

  029ec	e3a03001	 mov         r3, #1
  029f0	e50b308c	 str         r3, [r11, #-0x8C]

; 1355 : 
; 1356 :             /* Wait for the status in phase to complete */
; 1357 :             pEP->epStage = MGC_END0_STAGE_STATUSIN;

  029f4	e51b3098	 ldr         r3, [r11, #-0x98]
  029f8	e283201c	 add         r2, r3, #0x1C
  029fc	e3a03004	 mov         r3, #4
  02a00	e5823000	 str         r3, [r2]
  02a04		 |$LN4@ContinueEp@2|

; 1358 : 
; 1359 :             /* Note: We do not ACK the final packet until UfnPdd_SendControlStatusHandshake(). */
; 1360 :             // epCsrReg |= MGC_M_CSR0_P_DATAEND;
; 1361 :         }
; 1362 : 
; 1363 :         /* Note: We do not ACK the final packet until UfnPdd_SendControlStatusHandshake(). */
; 1364 :         if (!complete)

  02a04	e51b308c	 ldr         r3, [r11, #-0x8C]
  02a08	e3530000	 cmp         r3, #0
  02a0c	1a00000e	 bne         |$LN2@ContinueEp@2|

; 1365 :         {
; 1366 :             epCsrReg &= ~MGC_M_RXCSR_RXPKTRDY;

  02a10	e15b39b4	 ldrh        r3, [r11, #-0x94]
  02a14	e1a02003	 mov         r2, r3
  02a18	e3e03001	 mvn         r3, #1
  02a1c	e0023003	 and         r3, r2, r3
  02a20	e1a03803	 mov         r3, r3, lsl #16
  02a24	e1a03823	 mov         r3, r3, lsr #16
  02a28	e14b39b4	 strh        r3, [r11, #-0x94]

; 1367 :             epCsrReg |= MGC_M_CSR0_P_SVDRXPKTRDY;

  02a2c	e15b39b4	 ldrh        r3, [r11, #-0x94]
  02a30	e3833040	 orr         r3, r3, #0x40
  02a34	e1a03803	 mov         r3, r3, lsl #16
  02a38	e1a03823	 mov         r3, r3, lsr #16
  02a3c	e14b39b4	 strh        r3, [r11, #-0x94]

; 1368 :             (*pepCtrlReg) = epCsrReg;

  02a40	e15b29b4	 ldrh        r2, [r11, #-0x94]
  02a44	e51b30a0	 ldr         r3, [r11, #-0xA0]
  02a48	e1c320b0	 strh        r2, [r3]
  02a4c		 |$LN2@ContinueEp@2|
  02a4c		 |$LN71@ContinueEp@2|

; 1369 :         }
; 1370 :     }

  02a4c	ea00001c	 b           |$LN72@ContinueEp@2|
  02a50		 |$LN67@ContinueEp@2|

; 1372 :     {
; 1373 :         pTransfer->dwUsbError = UFN_CLIENT_BUFFER_ERROR;

  02a50	e51b309c	 ldr         r3, [r11, #-0x9C]
  02a54	e2832014	 add         r2, r3, #0x14
  02a58	e3a03f41	 mov         r3, #0x41, 30
  02a5c	e5823000	 str         r3, [r2]

; 1374 :         complete = TRUE;

  02a60	e3a03001	 mov         r3, #1
  02a64	e50b308c	 str         r3, [r11, #-0x8C]

; 1375 :         PRINTMSG(ZONE_ERROR, (L"ContinueEp0RxTransfer: Client buffer exception!\r\n"));

  02a68	e59f3238	 ldr         r3, [pc, #0x238]
  02a6c	e5933440	 ldr         r3, [r3, #0x440]
  02a70	e3130001	 tst         r3, #1
  02a74	0a00000f	 beq         |$LN47@ContinueEp@2|
  02a78	e59f3228	 ldr         r3, [pc, #0x228]
  02a7c	e5933440	 ldr         r3, [r3, #0x440]
  02a80	e3130801	 tst         r3, #1, 16
  02a84	0a000004	 beq         |$LN45@ContinueEp@2|
  02a88	e59f021c	 ldr         r0, [pc, #0x21C]
  02a8c	eb000000	 bl          CeLogMsg
  02a90	e3a03001	 mov         r3, #1
  02a94	e50b3034	 str         r3, [r11, #-0x34]
  02a98	ea000003	 b           |$LN46@ContinueEp@2|
  02a9c		 |$LN45@ContinueEp@2|
  02a9c	e59f0208	 ldr         r0, [pc, #0x208]
  02aa0	eb000000	 bl          NKDbgPrintfW
  02aa4	e3a03000	 mov         r3, #0
  02aa8	e50b3034	 str         r3, [r11, #-0x34]
  02aac		 |$LN46@ContinueEp@2|
  02aac	e3a03001	 mov         r3, #1
  02ab0	e50b3030	 str         r3, [r11, #-0x30]
  02ab4	ea000001	 b           |$LN48@ContinueEp@2|
  02ab8		 |$LN47@ContinueEp@2|
  02ab8	e3a03000	 mov         r3, #0
  02abc	e50b3030	 str         r3, [r11, #-0x30]
  02ac0		 |$LN48@ContinueEp@2|
  02ac0	eaffffff	 b           |$LN72@ContinueEp@2|
  02ac4		 |$LN72@ContinueEp@2|
  02ac4		 |$cleanUp$48044|

; 1376 :     }
; 1377 : 
; 1378 : cleanUp:
; 1379 : 
; 1380 :     /* Leave CriticalSection */
; 1381 :     UNLOCK_ENDPOINT(pPdd);

  02ac4	e59b3000	 ldr         r3, [r11]
  02ac8	e2830e27	 add         r0, r3, #0x27, 28
  02acc	eb000000	 bl          LeaveCriticalSection

; 1382 : 
; 1383 :     /* If transaction is complete we should tell MDD */
; 1384 :     if (complete == TRUE)

  02ad0	e51b308c	 ldr         r3, [r11, #-0x8C]
  02ad4	e3530001	 cmp         r3, #1
  02ad8	1a000069	 bne         |$LN1@ContinueEp@2|

; 1385 :     {
; 1386 :         PRINTMSG(ZONE_PDD_EP0, (L"ContinueEp0RxTransfer: "
; 1387 :                  L"pTransfer 0x%08x (%d, %d, 0x%0x) - notify complete\r\n",
; 1388 :                  pTransfer, pTransfer != NULL ? pTransfer->cbBuffer : 0,
; 1389 :                  pTransfer != NULL ? pTransfer->cbTransferred : 0,
; 1390 :                  pTransfer != NULL ? pTransfer->dwUsbError : -1));

  02adc	e59f31c4	 ldr         r3, [pc, #0x1C4]
  02ae0	e5933440	 ldr         r3, [r3, #0x440]
  02ae4	e3130c02	 tst         r3, #2, 24
  02ae8	0a000055	 beq         |$LN63@ContinueEp@2|
  02aec	e59f31b4	 ldr         r3, [pc, #0x1B4]
  02af0	e5933440	 ldr         r3, [r3, #0x440]
  02af4	e3130801	 tst         r3, #1, 16
  02af8	0a000027	 beq         |$LN61@ContinueEp@2|
  02afc	e51b309c	 ldr         r3, [r11, #-0x9C]
  02b00	e3530000	 cmp         r3, #0
  02b04	0a000004	 beq         |$LN49@ContinueEp@2|
  02b08	e51b309c	 ldr         r3, [r11, #-0x9C]
  02b0c	e2833014	 add         r3, r3, #0x14
  02b10	e5933000	 ldr         r3, [r3]
  02b14	e50b302c	 str         r3, [r11, #-0x2C]
  02b18	ea000001	 b           |$LN50@ContinueEp@2|
  02b1c		 |$LN49@ContinueEp@2|
  02b1c	e3e03000	 mvn         r3, #0
  02b20	e50b302c	 str         r3, [r11, #-0x2C]
  02b24		 |$LN50@ContinueEp@2|
  02b24	e51b309c	 ldr         r3, [r11, #-0x9C]
  02b28	e3530000	 cmp         r3, #0
  02b2c	0a000004	 beq         |$LN51@ContinueEp@2|
  02b30	e51b309c	 ldr         r3, [r11, #-0x9C]
  02b34	e2833010	 add         r3, r3, #0x10
  02b38	e5933000	 ldr         r3, [r3]
  02b3c	e50b3028	 str         r3, [r11, #-0x28]
  02b40	ea000001	 b           |$LN52@ContinueEp@2|
  02b44		 |$LN51@ContinueEp@2|
  02b44	e3a03000	 mov         r3, #0
  02b48	e50b3028	 str         r3, [r11, #-0x28]
  02b4c		 |$LN52@ContinueEp@2|
  02b4c	e51b309c	 ldr         r3, [r11, #-0x9C]
  02b50	e3530000	 cmp         r3, #0
  02b54	0a000004	 beq         |$LN53@ContinueEp@2|
  02b58	e51b309c	 ldr         r3, [r11, #-0x9C]
  02b5c	e283300c	 add         r3, r3, #0xC
  02b60	e5933000	 ldr         r3, [r3]
  02b64	e50b3024	 str         r3, [r11, #-0x24]
  02b68	ea000001	 b           |$LN54@ContinueEp@2|
  02b6c		 |$LN53@ContinueEp@2|
  02b6c	e3a03000	 mov         r3, #0
  02b70	e50b3024	 str         r3, [r11, #-0x24]
  02b74		 |$LN54@ContinueEp@2|
  02b74	e51b302c	 ldr         r3, [r11, #-0x2C]
  02b78	e58d3000	 str         r3, [sp]
  02b7c	e51b3028	 ldr         r3, [r11, #-0x28]
  02b80	e51b2024	 ldr         r2, [r11, #-0x24]
  02b84	e51b109c	 ldr         r1, [r11, #-0x9C]
  02b88	e59f0114	 ldr         r0, [pc, #0x114]
  02b8c	eb000000	 bl          CeLogMsg
  02b90	e3a03001	 mov         r3, #1
  02b94	e50b3020	 str         r3, [r11, #-0x20]
  02b98	ea000026	 b           |$LN62@ContinueEp@2|
  02b9c		 |$LN61@ContinueEp@2|
  02b9c	e51b309c	 ldr         r3, [r11, #-0x9C]
  02ba0	e3530000	 cmp         r3, #0
  02ba4	0a000004	 beq         |$LN55@ContinueEp@2|
  02ba8	e51b309c	 ldr         r3, [r11, #-0x9C]
  02bac	e2833014	 add         r3, r3, #0x14
  02bb0	e5933000	 ldr         r3, [r3]
  02bb4	e50b301c	 str         r3, [r11, #-0x1C]
  02bb8	ea000001	 b           |$LN56@ContinueEp@2|
  02bbc		 |$LN55@ContinueEp@2|
  02bbc	e3e03000	 mvn         r3, #0
  02bc0	e50b301c	 str         r3, [r11, #-0x1C]
  02bc4		 |$LN56@ContinueEp@2|
  02bc4	e51b309c	 ldr         r3, [r11, #-0x9C]
  02bc8	e3530000	 cmp         r3, #0
  02bcc	0a000004	 beq         |$LN57@ContinueEp@2|
  02bd0	e51b309c	 ldr         r3, [r11, #-0x9C]
  02bd4	e2833010	 add         r3, r3, #0x10
  02bd8	e5933000	 ldr         r3, [r3]
  02bdc	e50b3018	 str         r3, [r11, #-0x18]
  02be0	ea000001	 b           |$LN58@ContinueEp@2|
  02be4		 |$LN57@ContinueEp@2|
  02be4	e3a03000	 mov         r3, #0
  02be8	e50b3018	 str         r3, [r11, #-0x18]
  02bec		 |$LN58@ContinueEp@2|
  02bec	e51b309c	 ldr         r3, [r11, #-0x9C]
  02bf0	e3530000	 cmp         r3, #0
  02bf4	0a000004	 beq         |$LN59@ContinueEp@2|
  02bf8	e51b309c	 ldr         r3, [r11, #-0x9C]
  02bfc	e283300c	 add         r3, r3, #0xC
  02c00	e5933000	 ldr         r3, [r3]
  02c04	e50b3014	 str         r3, [r11, #-0x14]
  02c08	ea000001	 b           |$LN60@ContinueEp@2|
  02c0c		 |$LN59@ContinueEp@2|
  02c0c	e3a03000	 mov         r3, #0
  02c10	e50b3014	 str         r3, [r11, #-0x14]
  02c14		 |$LN60@ContinueEp@2|
  02c14	e51b301c	 ldr         r3, [r11, #-0x1C]
  02c18	e58d3000	 str         r3, [sp]
  02c1c	e51b3018	 ldr         r3, [r11, #-0x18]
  02c20	e51b2014	 ldr         r2, [r11, #-0x14]
  02c24	e51b109c	 ldr         r1, [r11, #-0x9C]
  02c28	e59f0074	 ldr         r0, [pc, #0x74]
  02c2c	eb000000	 bl          NKDbgPrintfW
  02c30	e3a03000	 mov         r3, #0
  02c34	e50b3020	 str         r3, [r11, #-0x20]
  02c38		 |$LN62@ContinueEp@2|
  02c38	e3a03001	 mov         r3, #1
  02c3c	e50b3010	 str         r3, [r11, #-0x10]
  02c40	ea000001	 b           |$LN64@ContinueEp@2|
  02c44		 |$LN63@ContinueEp@2|
  02c44	e3a03000	 mov         r3, #0
  02c48	e50b3010	 str         r3, [r11, #-0x10]
  02c4c		 |$LN64@ContinueEp@2|

; 1391 :         pEP->pTransfer = NULL;

  02c4c	e51b3098	 ldr         r3, [r11, #-0x98]
  02c50	e2832020	 add         r2, r3, #0x20
  02c54	e3a03000	 mov         r3, #0
  02c58	e5823000	 str         r3, [r2]

; 1392 :         pPdd->pfnNotify(pPdd->pMddContext, UFN_MSG_TRANSFER_COMPLETE, (DWORD)pTransfer);

  02c5c	e51b209c	 ldr         r2, [r11, #-0x9C]
  02c60	e3a01064	 mov         r1, #0x64
  02c64	e59b3000	 ldr         r3, [r11]
  02c68	e2833010	 add         r3, r3, #0x10
  02c6c	e5930000	 ldr         r0, [r3]
  02c70	e59b3000	 ldr         r3, [r11]
  02c74	e2833014	 add         r3, r3, #0x14
  02c78	e5933000	 ldr         r3, [r3]
  02c7c	e1a0e00f	 mov         lr, pc
  02c80	e12fff13	 bx          r3
  02c84		 |$LN1@ContinueEp@2|
  02c84		 |$LN65@ContinueEp@2|

; 1393 :     }
; 1394 : 
; 1395 :     return;
; 1396 : }

  02c84	e24bd00c	 sub         sp, r11, #0xC
  02c88	e89d6800	 ldmia       sp, {r11, sp, lr}
  02c8c	e12fff1e	 bx          lr

			 ENDP  ; |ContinueEp0RxTransfer|

  02c90		 |$LN66@ContinueEp@2|
  02c90		 |$LN75@ContinueEp@2|

; 1371 :     __except(EXCEPTION_EXECUTE_HANDLER)

  02c90	e52de004	 str         lr, [sp, #-4]!
  02c94	e24dd004	 sub         sp, sp, #4
  02c98		 |$LN69@ContinueEp@2|
  02c98		 |$LN78@ContinueEp@2|
  02c98	e3a00001	 mov         r0, #1
  02c9c		 |$LN68@ContinueEp@2|
  02c9c	e28dd004	 add         sp, sp, #4
  02ca0	e49df004	 ldr         pc, [sp], #4
  02ca4		 |$LN80@ContinueEp@2|
  02ca4		 |$LN81@ContinueEp@2|
  02ca4	00000000	 DCD         |??_C@_1JI@KEJAEEDK@?$AAC?$AAo?$AAn?$AAt?$AAi?$AAn?$AAu?$AAe?$AAE?$AAp?$AA0?$AAR?$AAx?$AAT?$AAr?$AAa?$AAn?$AAs?$AAf?$AAe?$AAr?$AA?3?$AA?5?$AAp?$AAT?$AAr?$AAa?$AAn?$AAs?$AAf?$AAe?$AAr@|
  02ca8		 |$LN82@ContinueEp@2|
  02ca8	00000000	 DCD         |dpCurSettings|
  02cac		 |$LN83@ContinueEp@2|
  02cac	00000000	 DCD         |??_C@_1GE@FICDPAIG@?$AAC?$AAo?$AAn?$AAt?$AAi?$AAn?$AAu?$AAe?$AAE?$AAp?$AA0?$AAR?$AAx?$AAT?$AAr?$AAa?$AAn?$AAs?$AAf?$AAe?$AAr?$AA?3?$AA?5?$AAC?$AAl?$AAi?$AAe?$AAn?$AAt?$AA?5?$AAb?$AAu@|
  02cb0		 |$LN84@ContinueEp@2|
  02cb0	00000000	 DCD         |??_C@_1FI@EOMLGIFE@?$AAC?$AAo?$AAn?$AAt?$AAi?$AAn?$AAu?$AAe?$AAE?$AAp?$AA0?$AAR?$AAx?$AAT?$AAr?$AAa?$AAn?$AAs?$AAf?$AAe?$AAr?$AA?3?$AA?5?$AAA?$AAl?$AAl?$AA?5?$AAb?$AAy?$AAt?$AAe?$AAs@|
  02cb4		 |$LN85@ContinueEp@2|
  02cb4	00000000	 DCD         |??_C@_1HO@FBDBDIJL@?$AAC?$AAo?$AAn?$AAt?$AAi?$AAn?$AAu?$AAe?$AAE?$AAp?$AA0?$AAR?$AAx?$AAT?$AAr?$AAa?$AAn?$AAs?$AAf?$AAe?$AAr?$AA?3?$AA?5?$AAR?$AAe?$AAa?$AAd?$AAi?$AAn?$AAg?$AA?5?$AA?$CF@|
  02cb8		 |$LN86@ContinueEp@2|
  02cb8	00000000	 DCD         |??_C@_1EK@OPJLDAME@?$AAC?$AAo?$AAn?$AAt?$AAi?$AAn?$AAu?$AAe?$AAE?$AAp?$AA0?$AAR?$AAx?$AAT?$AAr?$AAa?$AAn?$AAs?$AAf?$AAe?$AAr?$AA?3?$AA?5?$AAR?$AAX?$AA?5?$AAc?$AAo?$AAm?$AAp?$AAl?$AAe@|
  02cbc		 |$LN87@ContinueEp@2|
  02cbc	00000000	 DCD         |??_C@_1EO@KJKMHCGN@?$AAC?$AAo?$AAn?$AAt?$AAi?$AAn?$AAu?$AAe?$AAE?$AAp?$AA0?$AAR?$AAx?$AAT?$AAr?$AAa?$AAn?$AAs?$AAf?$AAe?$AAr?$AA?3?$AA?5?$AAN?$AAo?$AA?5?$AAt?$AAr?$AAa?$AAn?$AAs?$AAf@|
  02cc0		 |$LN88@ContinueEp@2|
  02cc0	00000000	 DCD         |??_C@_1HE@HIPHGDPE@?$AAC?$AAo?$AAn?$AAt?$AAi?$AAn?$AAu?$AAe?$AAE?$AAp?$AA0?$AAR?$AAx?$AAT?$AAr?$AAa?$AAn?$AAs?$AAf?$AAe?$AAr?$AA?3?$AA?5?$AAp?$AAT?$AAr?$AAa?$AAn?$AAs?$AAf?$AAe?$AAr@|
  02cc4		 |$LN79@ContinueEp@2|
  02cc4		 |$LN77@ContinueEp@2|
	EXPORT	|??_C@_1KA@IBECILFP@?$AAC?$AAo?$AAn?$AAt?$AAi?$AAn?$AAu?$AAe?$AAR?$AAx?$AAT?$AAr?$AAa?$AAn?$AAs?$AAf?$AAe?$AAr?$AA?3?$AA?5?$AAE?$AAP?$AA?5?$AA?$CF?$AAd?$AA?0?$AA?5?$AAp?$AAT?$AAr?$AAa?$AAn@| [ DATA ] ; `string'
	EXPORT	|??_C@_1FO@PLBPNCAK@?$AAC?$AAo?$AAn?$AAt?$AAi?$AAn?$AAu?$AAe?$AAR?$AAx?$AAT?$AAr?$AAa?$AAn?$AAs?$AAf?$AAe?$AAr?$AA?3?$AA?5?$AAC?$AAl?$AAi?$AAe?$AAn?$AAt?$AA?5?$AAb?$AAu?$AAf?$AAf?$AAe@| [ DATA ] ; `string'
	EXPORT	|??_C@_1FC@BPLKCHA@?$AAC?$AAo?$AAn?$AAt?$AAi?$AAn?$AAu?$AAe?$AAR?$AAx?$AAT?$AAr?$AAa?$AAn?$AAs?$AAf?$AAe?$AAr?$AA?3?$AA?5?$AAE?$AAP?$AA?5?$AA?$CF?$AAd?$AA?0?$AA?5?$AAR?$AAX?$AA?5?$AAc?$AAo@| [ DATA ] ; `string'
	EXPORT	|??_C@_1IG@FIHKGCG@?$AAC?$AAo?$AAn?$AAt?$AAi?$AAn?$AAu?$AAe?$AAR?$AAx?$AAT?$AAr?$AAa?$AAn?$AAs?$AAf?$AAe?$AAr?$AA?3?$AA?5?$AAE?$AAP?$AA?5?$AA?$CF?$AAd?$AA?0?$AA?5?$AAR?$AAe?$AAa?$AAd?$AAi@| [ DATA ] ; `string'
	EXPORT	|??_C@_1HA@FJAPDPOJ@?$AAC?$AAo?$AAn?$AAt?$AAi?$AAn?$AAu?$AAe?$AAR?$AAx?$AAT?$AAr?$AAa?$AAn?$AAs?$AAf?$AAe?$AAr?$AA?3?$AA?5?$AAE?$AAP?$AA?5?$AA?$CF?$AAd?$AA?0?$AA?5?$AAN?$AAo?$AA?5?$AAp?$AAa@| [ DATA ] ; `string'
	EXPORT	|??_C@_1HE@OPFCFOFH@?$AAC?$AAo?$AAn?$AAt?$AAi?$AAn?$AAu?$AAe?$AAR?$AAx?$AAT?$AAr?$AAa?$AAn?$AAs?$AAf?$AAe?$AAr?$AA?3?$AA?5?$AAE?$AAP?$AA?5?$AA?$CF?$AAd?$AA?0?$AA?5?$AAE?$AAr?$AAr?$AAo?$AAr@| [ DATA ] ; `string'
	EXPORT	|??_C@_1HM@LPAKJCL@?$AAC?$AAo?$AAn?$AAt?$AAi?$AAn?$AAu?$AAe?$AAR?$AAx?$AAT?$AAr?$AAa?$AAn?$AAs?$AAf?$AAe?$AAr?$AA?3?$AA?5?$AAE?$AAP?$AA?5?$AA?$CF?$AAd?$AA?0?$AA?5?$AAp?$AAT?$AAr?$AAa?$AAn@| [ DATA ] ; `string'
	EXPORT	|ContinueRxTransfer|

  00070			 AREA	 |.pdata|, PDATA
|$T49820| DCD	|$LN74@ContinueRx|
	DCD	0xc001f205
|$T49822| DCD	|$LN64@ContinueRx|
	DCD	0x40000d02

  00000			 AREA	 |.rdata|, DATA, READONLY
|??_C@_1KA@IBECILFP@?$AAC?$AAo?$AAn?$AAt?$AAi?$AAn?$AAu?$AAe?$AAR?$AAx?$AAT?$AAr?$AAa?$AAn?$AAs?$AAf?$AAe?$AAr?$AA?3?$AA?5?$AAE?$AAP?$AA?5?$AA?$CF?$AAd?$AA?0?$AA?5?$AAp?$AAT?$AAr?$AAa?$AAn@| DCB "C"
	DCB	0x0, "o", 0x0, "n", 0x0, "t", 0x0, "i", 0x0, "n", 0x0, "u"
	DCB	0x0, "e", 0x0, "R", 0x0, "x", 0x0, "T", 0x0, "r", 0x0, "a"
	DCB	0x0, "n", 0x0, "s", 0x0, "f", 0x0, "e", 0x0, "r", 0x0, ":"
	DCB	0x0, " ", 0x0, "E", 0x0, "P", 0x0, " ", 0x0, "%", 0x0, "d"
	DCB	0x0, ",", 0x0, " ", 0x0, "p", 0x0, "T", 0x0, "r", 0x0, "a"
	DCB	0x0, "n", 0x0, "s", 0x0, "f", 0x0, "e", 0x0, "r", 0x0, " "
	DCB	0x0, "0", 0x0, "x", 0x0, "%", 0x0, "0", 0x0, "8", 0x0, "x"
	DCB	0x0, " ", 0x0, "(", 0x0, "%", 0x0, "d", 0x0, ",", 0x0, " "
	DCB	0x0, "%", 0x0, "d", 0x0, ",", 0x0, " ", 0x0, "0", 0x0, "x"
	DCB	0x0, "%", 0x0, "0", 0x0, "x", 0x0, ")", 0x0, " ", 0x0, "-"
	DCB	0x0, " ", 0x0, "n", 0x0, "o", 0x0, "t", 0x0, "i", 0x0, "f"
	DCB	0x0, "y", 0x0, " ", 0x0, "c", 0x0, "o", 0x0, "m", 0x0, "p"
	DCB	0x0, "l", 0x0, "e", 0x0, "t", 0x0, "e", 0x0, 0xd, 0x0, 0xa
	DCB	0x0, 0x0, 0x0				; `string'

  00000			 AREA	 |.rdata|, DATA, READONLY
|??_C@_1FO@PLBPNCAK@?$AAC?$AAo?$AAn?$AAt?$AAi?$AAn?$AAu?$AAe?$AAR?$AAx?$AAT?$AAr?$AAa?$AAn?$AAs?$AAf?$AAe?$AAr?$AA?3?$AA?5?$AAC?$AAl?$AAi?$AAe?$AAn?$AAt?$AA?5?$AAb?$AAu?$AAf?$AAf?$AAe@| DCB "C"
	DCB	0x0, "o", 0x0, "n", 0x0, "t", 0x0, "i", 0x0, "n", 0x0, "u"
	DCB	0x0, "e", 0x0, "R", 0x0, "x", 0x0, "T", 0x0, "r", 0x0, "a"
	DCB	0x0, "n", 0x0, "s", 0x0, "f", 0x0, "e", 0x0, "r", 0x0, ":"
	DCB	0x0, " ", 0x0, "C", 0x0, "l", 0x0, "i", 0x0, "e", 0x0, "n"
	DCB	0x0, "t", 0x0, " ", 0x0, "b", 0x0, "u", 0x0, "f", 0x0, "f"
	DCB	0x0, "e", 0x0, "r", 0x0, " ", 0x0, "e", 0x0, "x", 0x0, "c"
	DCB	0x0, "e", 0x0, "p", 0x0, "t", 0x0, "i", 0x0, "o", 0x0, "n"
	DCB	0x0, "!", 0x0, 0xd, 0x0, 0xa, 0x0, 0x0, 0x0 ; `string'

  00000			 AREA	 |.rdata|, DATA, READONLY
|??_C@_1FC@BPLKCHA@?$AAC?$AAo?$AAn?$AAt?$AAi?$AAn?$AAu?$AAe?$AAR?$AAx?$AAT?$AAr?$AAa?$AAn?$AAs?$AAf?$AAe?$AAr?$AA?3?$AA?5?$AAE?$AAP?$AA?5?$AA?$CF?$AAd?$AA?0?$AA?5?$AAR?$AAX?$AA?5?$AAc?$AAo@| DCB "C"
	DCB	0x0, "o", 0x0, "n", 0x0, "t", 0x0, "i", 0x0, "n", 0x0, "u"
	DCB	0x0, "e", 0x0, "R", 0x0, "x", 0x0, "T", 0x0, "r", 0x0, "a"
	DCB	0x0, "n", 0x0, "s", 0x0, "f", 0x0, "e", 0x0, "r", 0x0, ":"
	DCB	0x0, " ", 0x0, "E", 0x0, "P", 0x0, " ", 0x0, "%", 0x0, "d"
	DCB	0x0, ",", 0x0, " ", 0x0, "R", 0x0, "X", 0x0, " ", 0x0, "c"
	DCB	0x0, "o", 0x0, "m", 0x0, "p", 0x0, "l", 0x0, "e", 0x0, "t"
	DCB	0x0, "e", 0x0, 0xd, 0x0, 0xa, 0x0, 0x0, 0x0 ; `string'

  00000			 AREA	 |.rdata|, DATA, READONLY
|??_C@_1IG@FIHKGCG@?$AAC?$AAo?$AAn?$AAt?$AAi?$AAn?$AAu?$AAe?$AAR?$AAx?$AAT?$AAr?$AAa?$AAn?$AAs?$AAf?$AAe?$AAr?$AA?3?$AA?5?$AAE?$AAP?$AA?5?$AA?$CF?$AAd?$AA?0?$AA?5?$AAR?$AAe?$AAa?$AAd?$AAi@| DCB "C"
	DCB	0x0, "o", 0x0, "n", 0x0, "t", 0x0, "i", 0x0, "n", 0x0, "u"
	DCB	0x0, "e", 0x0, "R", 0x0, "x", 0x0, "T", 0x0, "r", 0x0, "a"
	DCB	0x0, "n", 0x0, "s", 0x0, "f", 0x0, "e", 0x0, "r", 0x0, ":"
	DCB	0x0, " ", 0x0, "E", 0x0, "P", 0x0, " ", 0x0, "%", 0x0, "d"
	DCB	0x0, ",", 0x0, " ", 0x0, "R", 0x0, "e", 0x0, "a", 0x0, "d"
	DCB	0x0, "i", 0x0, "n", 0x0, "g", 0x0, " ", 0x0, "%", 0x0, "d"
	DCB	0x0, " ", 0x0, "b", 0x0, "y", 0x0, "t", 0x0, "e", 0x0, "s"
	DCB	0x0, ",", 0x0, " ", 0x0, "m", 0x0, "a", 0x0, "x", 0x0, "S"
	DCB	0x0, "i", 0x0, "z", 0x0, "e", 0x0, " ", 0x0, "%", 0x0, "d"
	DCB	0x0, ",", 0x0, " ", 0x0, "l", 0x0, "e", 0x0, "f", 0x0, "t"
	DCB	0x0, " ", 0x0, "%", 0x0, "d", 0x0, 0xd, 0x0, 0xa, 0x0, 0x0
	DCB	0x0					; `string'

  00000			 AREA	 |.rdata|, DATA, READONLY
|??_C@_1HA@FJAPDPOJ@?$AAC?$AAo?$AAn?$AAt?$AAi?$AAn?$AAu?$AAe?$AAR?$AAx?$AAT?$AAr?$AAa?$AAn?$AAs?$AAf?$AAe?$AAr?$AA?3?$AA?5?$AAE?$AAP?$AA?5?$AA?$CF?$AAd?$AA?0?$AA?5?$AAN?$AAo?$AA?5?$AAp?$AAa@| DCB "C"
	DCB	0x0, "o", 0x0, "n", 0x0, "t", 0x0, "i", 0x0, "n", 0x0, "u"
	DCB	0x0, "e", 0x0, "R", 0x0, "x", 0x0, "T", 0x0, "r", 0x0, "a"
	DCB	0x0, "n", 0x0, "s", 0x0, "f", 0x0, "e", 0x0, "r", 0x0, ":"
	DCB	0x0, " ", 0x0, "E", 0x0, "P", 0x0, " ", 0x0, "%", 0x0, "d"
	DCB	0x0, ",", 0x0, " ", 0x0, "N", 0x0, "o", 0x0, " ", 0x0, "p"
	DCB	0x0, "a", 0x0, "c", 0x0, "k", 0x0, "e", 0x0, "t", 0x0, " "
	DCB	0x0, "r", 0x0, "e", 0x0, "c", 0x0, "e", 0x0, "i", 0x0, "v"
	DCB	0x0, "e", 0x0, "d", 0x0, ",", 0x0, " ", 0x0, "C", 0x0, "S"
	DCB	0x0, "R", 0x0, " ", 0x0, "0", 0x0, "x", 0x0, "%", 0x0, "x"
	DCB	0x0, 0x0, 0x0				; `string'

  00000			 AREA	 |.rdata|, DATA, READONLY
|??_C@_1HE@OPFCFOFH@?$AAC?$AAo?$AAn?$AAt?$AAi?$AAn?$AAu?$AAe?$AAR?$AAx?$AAT?$AAr?$AAa?$AAn?$AAs?$AAf?$AAe?$AAr?$AA?3?$AA?5?$AAE?$AAP?$AA?5?$AA?$CF?$AAd?$AA?0?$AA?5?$AAE?$AAr?$AAr?$AAo?$AAr@| DCB "C"
	DCB	0x0, "o", 0x0, "n", 0x0, "t", 0x0, "i", 0x0, "n", 0x0, "u"
	DCB	0x0, "e", 0x0, "R", 0x0, "x", 0x0, "T", 0x0, "r", 0x0, "a"
	DCB	0x0, "n", 0x0, "s", 0x0, "f", 0x0, "e", 0x0, "r", 0x0, ":"
	DCB	0x0, " ", 0x0, "E", 0x0, "P", 0x0, " ", 0x0, "%", 0x0, "d"
	DCB	0x0, ",", 0x0, " ", 0x0, "E", 0x0, "r", 0x0, "r", 0x0, "o"
	DCB	0x0, "r", 0x0, ",", 0x0, " ", 0x0, "N", 0x0, "U", 0x0, "L"
	DCB	0x0, "L", 0x0, " ", 0x0, "t", 0x0, "r", 0x0, "a", 0x0, "n"
	DCB	0x0, "s", 0x0, "f", 0x0, "e", 0x0, "r", 0x0, ",", 0x0, " "
	DCB	0x0, "C", 0x0, "S", 0x0, "R", 0x0, " ", 0x0, "0", 0x0, "x"
	DCB	0x0, "%", 0x0, "x", 0x0, 0x0, 0x0	; `string'

  00000			 AREA	 |.rdata|, DATA, READONLY
|??_C@_1HM@LPAKJCL@?$AAC?$AAo?$AAn?$AAt?$AAi?$AAn?$AAu?$AAe?$AAR?$AAx?$AAT?$AAr?$AAa?$AAn?$AAs?$AAf?$AAe?$AAr?$AA?3?$AA?5?$AAE?$AAP?$AA?5?$AA?$CF?$AAd?$AA?0?$AA?5?$AAp?$AAT?$AAr?$AAa?$AAn@| DCB "C"
	DCB	0x0, "o", 0x0, "n", 0x0, "t", 0x0, "i", 0x0, "n", 0x0, "u"
	DCB	0x0, "e", 0x0, "R", 0x0, "x", 0x0, "T", 0x0, "r", 0x0, "a"
	DCB	0x0, "n", 0x0, "s", 0x0, "f", 0x0, "e", 0x0, "r", 0x0, ":"
	DCB	0x0, " ", 0x0, "E", 0x0, "P", 0x0, " ", 0x0, "%", 0x0, "d"
	DCB	0x0, ",", 0x0, " ", 0x0, "p", 0x0, "T", 0x0, "r", 0x0, "a"
	DCB	0x0, "n", 0x0, "s", 0x0, "f", 0x0, "e", 0x0, "r", 0x0, " "
	DCB	0x0, "0", 0x0, "x", 0x0, "%", 0x0, "0", 0x0, "8", 0x0, "x"
	DCB	0x0, " ", 0x0, "(", 0x0, "%", 0x0, "d", 0x0, ",", 0x0, " "
	DCB	0x0, "%", 0x0, "d", 0x0, ",", 0x0, " ", 0x0, "0", 0x0, "x"
	DCB	0x0, "%", 0x0, "0", 0x0, "x", 0x0, ")", 0x0, 0xd, 0x0, 0xa
	DCB	0x0, 0x0, 0x0				; `string'

  00040			 AREA	 |.xdata|, DATA
|$T49818| DCD	0x1
	DCD	|$LN68@ContinueRx|
	DCD	|$LN69@ContinueRx|
	DCD	|$LN64@ContinueRx|
	DCD	|$LN65@ContinueRx|
; Function compile flags: /Odtp

  02cc4			 AREA	 |.text|, CODE, ARM

  02cc4	00000000	 DCD         |__C_specific_handler|
  02cc8	00000000	 DCD         |$T49818|

  02ccc		 |ContinueRxTransfer| PROC

; 1421 : {

  02ccc		 |$LN74@ContinueRx|
  02ccc	e1a0c00d	 mov         r12, sp
  02cd0	e92d0003	 stmdb       sp!, {r0, r1}
  02cd4	e92d5800	 stmdb       sp!, {r11, r12, lr}
  02cd8	e28db00c	 add         r11, sp, #0xC
  02cdc	e24dd0c8	 sub         sp, sp, #0xC8
  02ce0		 |$LN72@ContinueRx|

; 1422 :     CSL_UsbRegs    *pUsbRegs     = pPdd->pUsbdRegs;

  02ce0	e59b3000	 ldr         r3, [r11]
  02ce4	e283301c	 add         r3, r3, #0x1C
  02ce8	e5933000	 ldr         r3, [r3]
  02cec	e50b30a8	 str         r3, [r11, #-0xA8]

; 1423 :     UsbFnEp        *pEP           = &pPdd->ep[endPoint];

  02cf0	e59b3000	 ldr         r3, [r11]
  02cf4	e2831fa1	 add         r1, r3, #0xA1, 30
  02cf8	e59b2004	 ldr         r2, [r11, #4]
  02cfc	e3a0303c	 mov         r3, #0x3C
  02d00	e0030392	 mul         r3, r2, r3
  02d04	e0813003	 add         r3, r1, r3
  02d08	e50b30b0	 str         r3, [r11, #-0xB0]

; 1424 :     STransfer *pTransfer = pEP->pTransfer;

  02d0c	e51b30b0	 ldr         r3, [r11, #-0xB0]
  02d10	e2833020	 add         r3, r3, #0x20
  02d14	e5933000	 ldr         r3, [r3]
  02d18	e50b30b4	 str         r3, [r11, #-0xB4]

; 1425 :     BOOL complete = FALSE;

  02d1c	e3a03000	 mov         r3, #0
  02d20	e50b30a4	 str         r3, [r11, #-0xA4]

; 1426 :     volatile UINT16 *pepCtrlReg;
; 1427 :     UINT16  epCsrReg;
; 1428 :     UINT16  rcvSize = 0;

  02d24	e3a03000	 mov         r3, #0
  02d28	e14b3cb0	 strh        r3, [r11, #-0xC0]

; 1429 :     DWORD space;
; 1430 :     DWORD count;
; 1431 :     UCHAR *pBuffer = NULL;

  02d2c	e3a03000	 mov         r3, #0
  02d30	e50b30c8	 str         r3, [r11, #-0xC8]

; 1432 : 	WORD maxSize;
; 1433 : 
; 1434 :     PRINTMSG(ZONE_PDD_RX,
; 1435 :              (L"ContinueRxTransfer: EP %d, pTransfer 0x%08x (%d, %d, 0x%0x)\r\n",
; 1436 :               endPoint, pTransfer, pTransfer != NULL ? pTransfer->cbBuffer : 0,
; 1437 :               pTransfer != NULL ? pTransfer->cbTransferred : 0,
; 1438 :               pTransfer != NULL ? pTransfer->dwUsbError : -1));

  02d34	e59f3770	 ldr         r3, [pc, #0x770]
  02d38	e5933440	 ldr         r3, [r3, #0x440]
  02d3c	e3130b01	 tst         r3, #1, 22
  02d40	0a000059	 beq         |$LN23@ContinueRx|
  02d44	e59f3760	 ldr         r3, [pc, #0x760]
  02d48	e5933440	 ldr         r3, [r3, #0x440]
  02d4c	e3130801	 tst         r3, #1, 16
  02d50	0a000029	 beq         |$LN21@ContinueRx|
  02d54	e51b30b4	 ldr         r3, [r11, #-0xB4]
  02d58	e3530000	 cmp         r3, #0
  02d5c	0a000004	 beq         |$LN9@ContinueRx|
  02d60	e51b30b4	 ldr         r3, [r11, #-0xB4]
  02d64	e2833014	 add         r3, r3, #0x14
  02d68	e5933000	 ldr         r3, [r3]
  02d6c	e50b3078	 str         r3, [r11, #-0x78]
  02d70	ea000001	 b           |$LN10@ContinueRx|
  02d74		 |$LN9@ContinueRx|
  02d74	e3e03000	 mvn         r3, #0
  02d78	e50b3078	 str         r3, [r11, #-0x78]
  02d7c		 |$LN10@ContinueRx|
  02d7c	e51b30b4	 ldr         r3, [r11, #-0xB4]
  02d80	e3530000	 cmp         r3, #0
  02d84	0a000004	 beq         |$LN11@ContinueRx|
  02d88	e51b30b4	 ldr         r3, [r11, #-0xB4]
  02d8c	e2833010	 add         r3, r3, #0x10
  02d90	e5933000	 ldr         r3, [r3]
  02d94	e50b3074	 str         r3, [r11, #-0x74]
  02d98	ea000001	 b           |$LN12@ContinueRx|
  02d9c		 |$LN11@ContinueRx|
  02d9c	e3a03000	 mov         r3, #0
  02da0	e50b3074	 str         r3, [r11, #-0x74]
  02da4		 |$LN12@ContinueRx|
  02da4	e51b30b4	 ldr         r3, [r11, #-0xB4]
  02da8	e3530000	 cmp         r3, #0
  02dac	0a000004	 beq         |$LN13@ContinueRx|
  02db0	e51b30b4	 ldr         r3, [r11, #-0xB4]
  02db4	e283300c	 add         r3, r3, #0xC
  02db8	e5933000	 ldr         r3, [r3]
  02dbc	e50b3070	 str         r3, [r11, #-0x70]
  02dc0	ea000001	 b           |$LN14@ContinueRx|
  02dc4		 |$LN13@ContinueRx|
  02dc4	e3a03000	 mov         r3, #0
  02dc8	e50b3070	 str         r3, [r11, #-0x70]
  02dcc		 |$LN14@ContinueRx|
  02dcc	e51b3078	 ldr         r3, [r11, #-0x78]
  02dd0	e58d3004	 str         r3, [sp, #4]
  02dd4	e51b3074	 ldr         r3, [r11, #-0x74]
  02dd8	e58d3000	 str         r3, [sp]
  02ddc	e51b3070	 ldr         r3, [r11, #-0x70]
  02de0	e51b20b4	 ldr         r2, [r11, #-0xB4]
  02de4	e59b1004	 ldr         r1, [r11, #4]
  02de8	e59f06d4	 ldr         r0, [pc, #0x6D4]
  02dec	eb000000	 bl          CeLogMsg
  02df0	e3a03001	 mov         r3, #1
  02df4	e50b306c	 str         r3, [r11, #-0x6C]
  02df8	ea000028	 b           |$LN22@ContinueRx|
  02dfc		 |$LN21@ContinueRx|
  02dfc	e51b30b4	 ldr         r3, [r11, #-0xB4]
  02e00	e3530000	 cmp         r3, #0
  02e04	0a000004	 beq         |$LN15@ContinueRx|
  02e08	e51b30b4	 ldr         r3, [r11, #-0xB4]
  02e0c	e2833014	 add         r3, r3, #0x14
  02e10	e5933000	 ldr         r3, [r3]
  02e14	e50b3068	 str         r3, [r11, #-0x68]
  02e18	ea000001	 b           |$LN16@ContinueRx|
  02e1c		 |$LN15@ContinueRx|
  02e1c	e3e03000	 mvn         r3, #0
  02e20	e50b3068	 str         r3, [r11, #-0x68]
  02e24		 |$LN16@ContinueRx|
  02e24	e51b30b4	 ldr         r3, [r11, #-0xB4]
  02e28	e3530000	 cmp         r3, #0
  02e2c	0a000004	 beq         |$LN17@ContinueRx|
  02e30	e51b30b4	 ldr         r3, [r11, #-0xB4]
  02e34	e2833010	 add         r3, r3, #0x10
  02e38	e5933000	 ldr         r3, [r3]
  02e3c	e50b3064	 str         r3, [r11, #-0x64]
  02e40	ea000001	 b           |$LN18@ContinueRx|
  02e44		 |$LN17@ContinueRx|
  02e44	e3a03000	 mov         r3, #0
  02e48	e50b3064	 str         r3, [r11, #-0x64]
  02e4c		 |$LN18@ContinueRx|
  02e4c	e51b30b4	 ldr         r3, [r11, #-0xB4]
  02e50	e3530000	 cmp         r3, #0
  02e54	0a000004	 beq         |$LN19@ContinueRx|
  02e58	e51b30b4	 ldr         r3, [r11, #-0xB4]
  02e5c	e283300c	 add         r3, r3, #0xC
  02e60	e5933000	 ldr         r3, [r3]
  02e64	e50b3060	 str         r3, [r11, #-0x60]
  02e68	ea000001	 b           |$LN20@ContinueRx|
  02e6c		 |$LN19@ContinueRx|
  02e6c	e3a03000	 mov         r3, #0
  02e70	e50b3060	 str         r3, [r11, #-0x60]
  02e74		 |$LN20@ContinueRx|
  02e74	e51b3068	 ldr         r3, [r11, #-0x68]
  02e78	e58d3004	 str         r3, [sp, #4]
  02e7c	e51b3064	 ldr         r3, [r11, #-0x64]
  02e80	e58d3000	 str         r3, [sp]
  02e84	e51b3060	 ldr         r3, [r11, #-0x60]
  02e88	e51b20b4	 ldr         r2, [r11, #-0xB4]
