; Listing generated by Microsoft (R) Optimizing Compiler Version 14.01.60511.01 

	TTL	C:\WINCE600\PLATFORM\COMMON\SRC\SOC\COMMON_TI_V1\OMAP3530\OAL\PRCM\prcm_clock.c
	CODE32

  00000			 AREA	 |.drectve|, DRECTVE
	DCB	"-defaultlib:LIBCMT "
	DCB	"-defaultlib:OLDNAMES "

	EXPORT	|??_C@_1CK@MFCDILAE@?$AAP?$AAM?$AA_?$AAP?$AAR?$AAE?$AAP?$AAW?$AAS?$AAT?$AAS?$AAT?$AA_?$AAU?$AAS?$AAB?$AAH?$AAO?$AAS?$AAT?$AA?$AA@| [ DATA ] ; `string'
	EXPORT	|??_C@_1CE@DINMMLDJ@?$AAP?$AAM?$AA_?$AAP?$AAW?$AAS?$AAT?$AAS?$AAT?$AA_?$AAU?$AAS?$AAB?$AAH?$AAO?$AAS?$AAT?$AA?$AA@| [ DATA ] ; `string'
	EXPORT	|??_C@_1CI@NFFMDMCO@?$AAP?$AAM?$AA_?$AAP?$AAW?$AAS?$AAT?$AAC?$AAT?$AAR?$AAL?$AA_?$AAU?$AAS?$AAB?$AAH?$AAO?$AAS?$AAT?$AA?$AA@| [ DATA ] ; `string'
	EXPORT	|??_C@_1CC@BANAFHHA@?$AAP?$AAM?$AA_?$AAW?$AAK?$AAD?$AAE?$AAP?$AA_?$AAU?$AAS?$AAB?$AAH?$AAO?$AAS?$AAT?$AA?$AA@| [ DATA ] ; `string'
	EXPORT	|??_C@_1CA@CDELFGFE@?$AAP?$AAM?$AA_?$AAW?$AAK?$AAS?$AAT?$AA_?$AAU?$AAS?$AAB?$AAH?$AAO?$AAS?$AAT?$AA?$AA@| [ DATA ] ; `string'
	EXPORT	|??_C@_1CM@CGFHEIFF@?$AAP?$AAM?$AA_?$AAI?$AAV?$AAA?$AA2?$AAG?$AAR?$AAP?$AAS?$AAE?$AAL?$AA_?$AAU?$AAS?$AAB?$AAH?$AAO?$AAS?$AAT?$AA?$AA@| [ DATA ] ; `string'
	EXPORT	|??_C@_1CK@KEHDDHL@?$AAP?$AAM?$AA_?$AAM?$AAP?$AAU?$AAG?$AAR?$AAP?$AAS?$AAE?$AAL?$AA_?$AAU?$AAS?$AAB?$AAH?$AAO?$AAS?$AAT?$AA?$AA@| [ DATA ] ; `string'
	EXPORT	|??_C@_1CA@EPJOENIO@?$AAP?$AAM?$AA_?$AAW?$AAK?$AAE?$AAN?$AA_?$AAU?$AAS?$AAB?$AAH?$AAO?$AAS?$AAT?$AA?$AA@| [ DATA ] ; `string'
	EXPORT	|??_C@_1CC@ELENAOBE@?$AAR?$AAM?$AA_?$AAR?$AAS?$AAT?$AAS?$AAT?$AA_?$AAU?$AAS?$AAB?$AAH?$AAO?$AAS?$AAT?$AA?$AA@| [ DATA ] ; `string'
	EXPORT	|??_C@_1BI@BEADJOPF@?$AAU?$AAS?$AAB?$AAH?$AAO?$AAS?$AAT?$AA_?$AAP?$AAR?$AAM?$AA?$AA@| [ DATA ] ; `string'
	EXPORT	|??_C@_1CE@PAIDKKJJ@?$AAP?$AAM?$AA_?$AAP?$AAR?$AAE?$AAP?$AAW?$AAS?$AAT?$AAS?$AAT?$AA_?$AAN?$AAE?$AAO?$AAN?$AA?$AA@| [ DATA ] ; `string'
	EXPORT	|??_C@_1BO@FMNCDJII@?$AAP?$AAM?$AA_?$AAP?$AAW?$AAS?$AAT?$AAS?$AAT?$AA_?$AAN?$AAE?$AAO?$AAN?$AA?$AA@| [ DATA ] ; `string'
	EXPORT	|??_C@_1CC@LCEDCBK@?$AAP?$AAM?$AA_?$AAP?$AAW?$AAS?$AAT?$AAC?$AAT?$AAR?$AAL?$AA_?$AAN?$AAE?$AAO?$AAN?$AA?$AA@| [ DATA ] ; `string'
	EXPORT	|??_C@_1BM@GLAGIPO@?$AAP?$AAM?$AA_?$AAW?$AAK?$AAD?$AAE?$AAP?$AA_?$AAN?$AAE?$AAO?$AAN?$AA?$AA@| [ DATA ] ; `string'
	EXPORT	|??_C@_1BM@LBPGJMOK@?$AAR?$AAM?$AA_?$AAR?$AAS?$AAT?$AAS?$AAT?$AA_?$AAN?$AAE?$AAO?$AAN?$AA?$AA@| [ DATA ] ; `string'
	EXPORT	|??_C@_1BC@JEBNFJEB@?$AAN?$AAE?$AAO?$AAN?$AA_?$AAP?$AAR?$AAM?$AA?$AA@| [ DATA ] ; `string'
	EXPORT	|??_C@_1BO@OOEJDAGP@?$AAP?$AAR?$AAM?$AA_?$AAV?$AAO?$AAL?$AAT?$AAS?$AAE?$AAT?$AAU?$AAP?$AA2?$AA?$AA@| [ DATA ] ; `string'
	EXPORT	|??_C@_1BI@HHOAEAAO@?$AAP?$AAR?$AAM?$AA_?$AAP?$AAO?$AAL?$AAC?$AAT?$AAR?$AAL?$AA?$AA@| [ DATA ] ; `string'
	EXPORT	|??_C@_1BK@INLANGOK@?$AAP?$AAR?$AAM?$AA_?$AAC?$AAL?$AAK?$AAS?$AAE?$AAT?$AAU?$AAP?$AA?$AA@| [ DATA ] ; `string'
	EXPORT	|??_C@_1BO@HNPCCMHL@?$AAP?$AAR?$AAM?$AA_?$AAV?$AAO?$AAL?$AAT?$AAO?$AAF?$AAF?$AAS?$AAE?$AAT?$AA?$AA@| [ DATA ] ; `string'
	EXPORT	|??_C@_1BO@PMPMJPIB@?$AAP?$AAR?$AAM?$AA_?$AAV?$AAO?$AAL?$AAT?$AAS?$AAE?$AAT?$AAU?$AAP?$AA1?$AA?$AA@| [ DATA ] ; `string'
	EXPORT	|??_C@_1BA@JADOMDEP@?$AAP?$AAR?$AAM?$AA_?$AAO?$AAB?$AAS?$AA?$AA@| [ DATA ] ; `string'
	EXPORT	|??_C@_1CA@DKBCEFNM@?$AAP?$AAR?$AAM?$AA_?$AAC?$AAL?$AAK?$AAS?$AAR?$AAC?$AA_?$AAC?$AAT?$AAR?$AAL?$AA?$AA@| [ DATA ] ; `string'
	EXPORT	|??_C@_1CC@PEAEBONP@?$AAP?$AAR?$AAM?$AA_?$AAS?$AAR?$AAA?$AAM?$AA_?$AAP?$AAC?$AAH?$AAA?$AAR?$AAG?$AAE?$AA?$AA@| [ DATA ] ; `string'
	EXPORT	|??_C@_1BK@HFKALEHA@?$AAP?$AAR?$AAM?$AA_?$AAV?$AAO?$AAL?$AAT?$AAC?$AAT?$AAR?$AAL?$AA?$AA@| [ DATA ] ; `string'
	EXPORT	|??_C@_1BE@HPDPAFDK@?$AAP?$AAR?$AAM?$AA_?$AAR?$AAS?$AAT?$AAS?$AAT?$AA?$AA@| [ DATA ] ; `string'
	EXPORT	|??_C@_1BI@BLFHBCIB@?$AAP?$AAR?$AAM?$AA_?$AAR?$AAS?$AAT?$AAT?$AAI?$AAM?$AAE?$AA?$AA@| [ DATA ] ; `string'
	EXPORT	|??_C@_1BI@LGBDFDCO@?$AAP?$AAR?$AAM?$AA_?$AAR?$AAS?$AAT?$AAC?$AAT?$AAR?$AAL?$AA?$AA@| [ DATA ] ; `string'
	EXPORT	|??_C@_1CE@LCNFDOGA@?$AAP?$AAR?$AAM?$AA_?$AAV?$AAC?$AA_?$AAB?$AAY?$AAP?$AAA?$AAS?$AAS?$AA_?$AAV?$AAA?$AAL?$AA?$AA@| [ DATA ] ; `string'
	EXPORT	|??_C@_1BO@CDICEJPF@?$AAP?$AAR?$AAM?$AA_?$AAV?$AAC?$AA_?$AAI?$AA2?$AAC?$AA_?$AAC?$AAF?$AAG?$AA?$AA@| [ DATA ] ; `string'
	EXPORT	|??_C@_1BO@NIKJKLFL@?$AAP?$AAR?$AAM?$AA_?$AAV?$AAC?$AA_?$AAC?$AAH?$AA_?$AAC?$AAO?$AAN?$AAF?$AA?$AA@| [ DATA ] ; `string'
	EXPORT	|??_C@_1CC@GOJIALCP@?$AAP?$AAR?$AAM?$AA_?$AAV?$AAC?$AA_?$AAC?$AAM?$AAD?$AA_?$AAV?$AAA?$AAL?$AA_?$AA1?$AA?$AA@| [ DATA ] ; `string'
	EXPORT	|??_C@_1CC@NGCEGMEK@?$AAP?$AAR?$AAM?$AA_?$AAV?$AAC?$AA_?$AAC?$AAM?$AAD?$AA_?$AAV?$AAA?$AAL?$AA_?$AA0?$AA?$AA@| [ DATA ] ; `string'
	EXPORT	|??_C@_1CG@PFFOICKB@?$AAP?$AAR?$AAM?$AA_?$AAV?$AAC?$AA_?$AAS?$AAM?$AAP?$AAS?$AA_?$AAC?$AAM?$AAD?$AA_?$AAR?$AAA?$AA?$AA@| [ DATA ] ; `string'
	EXPORT	|??_C@_1CG@OIKDAOML@?$AAP?$AAR?$AAM?$AA_?$AAV?$AAC?$AA_?$AAS?$AAM?$AAP?$AAS?$AA_?$AAV?$AAO?$AAL?$AA_?$AAR?$AAA?$AA?$AA@| [ DATA ] ; `string'
	EXPORT	|??_C@_1BO@LBDDPNOG@?$AAP?$AAR?$AAM?$AA_?$AAV?$AAC?$AA_?$AAS?$AAM?$AAP?$AAS?$AA_?$AAS?$AAA?$AA?$AA@| [ DATA ] ; `string'
	EXPORT	|??_C@_1BO@CAKCDBHG@?$AAG?$AAl?$AAo?$AAb?$AAa?$AAl?$AA_?$AAR?$AAe?$AAg?$AA_?$AAP?$AAR?$AAM?$AA?$AA@| [ DATA ] ; `string'
	EXPORT	|??_C@_1BM@NIBECDJF@?$AAP?$AAM?$AA_?$AAP?$AAW?$AAS?$AAT?$AAS?$AAT?$AA_?$AAE?$AAM?$AAU?$AA?$AA@| [ DATA ] ; `string'
	EXPORT	|??_C@_1BK@PHFAAKFB@?$AAR?$AAM?$AA_?$AAR?$AAS?$AAT?$AAS?$AAT?$AA_?$AAE?$AAM?$AAU?$AA?$AA@| [ DATA ] ; `string'
	EXPORT	|??_C@_1BA@CAPJDCOP@?$AAE?$AAM?$AAU?$AA_?$AAP?$AAR?$AAM?$AA?$AA@| [ DATA ] ; `string'
	EXPORT	|??_C@_1CC@EPBJKNIO@?$AAP?$AAM?$AA_?$AAP?$AAR?$AAE?$AAP?$AAW?$AAS?$AAT?$AAS?$AAT?$AA_?$AAP?$AAE?$AAR?$AA?$AA@| [ DATA ] ; `string'
	EXPORT	|??_C@_1BM@JNMLKGAO@?$AAP?$AAM?$AA_?$AAP?$AAW?$AAS?$AAT?$AAS?$AAT?$AA_?$AAP?$AAE?$AAR?$AA?$AA@| [ DATA ] ; `string'
	EXPORT	|??_C@_1CA@EHOJHBAJ@?$AAP?$AAM?$AA_?$AAP?$AAW?$AAS?$AAT?$AAC?$AAT?$AAR?$AAL?$AA_?$AAP?$AAE?$AAR?$AA?$AA@| [ DATA ] ; `string'
	EXPORT	|??_C@_1BK@MOOMJEJF@?$AAP?$AAM?$AA_?$AAW?$AAK?$AAD?$AAE?$AAP?$AA_?$AAP?$AAE?$AAR?$AA?$AA@| [ DATA ] ; `string'
	EXPORT	|??_C@_1BI@NCLGDPNJ@?$AAP?$AAM?$AA_?$AAW?$AAK?$AAS?$AAT?$AA_?$AAP?$AAE?$AAR?$AA?$AA@| [ DATA ] ; `string'
	EXPORT	|??_C@_1CE@KJGLJLDH@?$AAP?$AAM?$AA_?$AAI?$AAV?$AAA?$AA2?$AAG?$AAR?$AAP?$AAS?$AAE?$AAL?$AA_?$AAP?$AAE?$AAR?$AA?$AA@| [ DATA ] ; `string'
	EXPORT	|??_C@_1CC@FABFMEFM@?$AAP?$AAM?$AA_?$AAM?$AAP?$AAU?$AAG?$AAR?$AAP?$AAS?$AAE?$AAL?$AA_?$AAP?$AAE?$AAR?$AA?$AA@| [ DATA ] ; `string'
	EXPORT	|??_C@_1BI@KKOJENJO@?$AAP?$AAM?$AA_?$AAW?$AAK?$AAE?$AAN?$AA_?$AAP?$AAE?$AAR?$AA?$AA@| [ DATA ] ; `string'
	EXPORT	|??_C@_1BK@LCIPIPMK@?$AAR?$AAM?$AA_?$AAR?$AAS?$AAT?$AAS?$AAT?$AA_?$AAP?$AAE?$AAR?$AA?$AA@| [ DATA ] ; `string'
	EXPORT	|??_C@_1BA@PLEGCGNO@?$AAP?$AAE?$AAR?$AA_?$AAP?$AAR?$AAM?$AA?$AA@| [ DATA ] ; `string'
	EXPORT	|??_C@_1CC@COMGJOJJ@?$AAP?$AAM?$AA_?$AAP?$AAR?$AAE?$AAP?$AAW?$AAS?$AAT?$AAS?$AAT?$AA_?$AAC?$AAA?$AAM?$AA?$AA@| [ DATA ] ; `string'
	EXPORT	|??_C@_1BM@PMBEJFBJ@?$AAP?$AAM?$AA_?$AAP?$AAW?$AAS?$AAT?$AAS?$AAT?$AA_?$AAC?$AAA?$AAM?$AA?$AA@| [ DATA ] ; `string'
	EXPORT	|??_C@_1CA@CGDGECBO@?$AAP?$AAM?$AA_?$AAP?$AAW?$AAS?$AAT?$AAC?$AAT?$AAR?$AAL?$AA_?$AAC?$AAA?$AAM?$AA?$AA@| [ DATA ] ; `string'
	EXPORT	|??_C@_1BK@KPDDKHIC@?$AAP?$AAM?$AA_?$AAW?$AAK?$AAD?$AAE?$AAP?$AA_?$AAC?$AAA?$AAM?$AA?$AA@| [ DATA ] ; `string'
	EXPORT	|??_C@_1BK@NDFALMNN@?$AAR?$AAM?$AA_?$AAR?$AAS?$AAT?$AAS?$AAT?$AA_?$AAC?$AAA?$AAM?$AA?$AA@| [ DATA ] ; `string'
	EXPORT	|??_C@_1BA@FDIJFBCE@?$AAC?$AAA?$AAM?$AA_?$AAP?$AAR?$AAM?$AA?$AA@| [ DATA ] ; `string'
	EXPORT	|??_C@_1CC@NKNLBELM@?$AAP?$AAM?$AA_?$AAP?$AAR?$AAE?$AAP?$AAW?$AAS?$AAT?$AAS?$AAT?$AA_?$AAD?$AAS?$AAS?$AA?$AA@| [ DATA ] ; `string'
	EXPORT	|??_C@_1BM@IAJBPDM@?$AAP?$AAM?$AA_?$AAP?$AAW?$AAS?$AAT?$AAS?$AAT?$AA_?$AAD?$AAS?$AAS?$AA?$AA@| [ DATA ] ; `string'
	EXPORT	|??_C@_1CA@NCCLMIDL@?$AAP?$AAM?$AA_?$AAP?$AAW?$AAS?$AAT?$AAC?$AAT?$AAR?$AAL?$AA_?$AAD?$AAS?$AAS?$AA?$AA@| [ DATA ] ; `string'
	EXPORT	|??_C@_1BK@FLCOCNKH@?$AAP?$AAM?$AA_?$AAW?$AAK?$AAD?$AAE?$AAP?$AA_?$AAD?$AAS?$AAS?$AA?$AA@| [ DATA ] ; `string'
	EXPORT	|??_C@_1BI@DPCLPEKM@?$AAP?$AAM?$AA_?$AAW?$AAK?$AAE?$AAN?$AA_?$AAD?$AAS?$AAS?$AA?$AA@| [ DATA ] ; `string'
	EXPORT	|??_C@_1BK@CHENDGPI@?$AAR?$AAM?$AA_?$AAR?$AAS?$AAT?$AAS?$AAT?$AA_?$AAD?$AAS?$AAS?$AA?$AA@| [ DATA ] ; `string'
	EXPORT	|??_C@_1BA@MMIFGPHC@?$AAD?$AAS?$AAS?$AA_?$AAP?$AAR?$AAM?$AA?$AA@| [ DATA ] ; `string'
	EXPORT	|??_C@_1CA@PGMOAOBH@?$AAP?$AAR?$AAM?$AA_?$AAC?$AAL?$AAK?$AAO?$AAU?$AAT?$AA_?$AAC?$AAT?$AAR?$AAL?$AA?$AA@| [ DATA ] ; `string'
	EXPORT	|??_C@_1BG@BPBPBGIA@?$AAP?$AAR?$AAM?$AA_?$AAC?$AAL?$AAK?$AAS?$AAE?$AAL?$AA?$AA@| [ DATA ] ; `string'
	EXPORT	|??_C@_1CM@BOLGGOBJ@?$AAC?$AAl?$AAo?$AAc?$AAk?$AA_?$AAC?$AAo?$AAn?$AAt?$AAr?$AAo?$AAl?$AA_?$AAR?$AAe?$AAg?$AA_?$AAP?$AAR?$AAM?$AA?$AA@| [ DATA ] ; `string'
	EXPORT	|??_C@_1BK@MHMCLHIM@?$AAP?$AAM?$AA_?$AAW?$AAK?$AAS?$AAT?$AA_?$AAW?$AAK?$AAU?$AAP?$AA?$AA@| [ DATA ] ; `string'
	EXPORT	|??_C@_1CG@NGIEHFMC@?$AAP?$AAM?$AA_?$AAI?$AAV?$AAA?$AA2?$AAG?$AAR?$AAP?$AAS?$AAE?$AAL?$AA_?$AAW?$AAK?$AAU?$AAP?$AA?$AA@| [ DATA ] ; `string'
	EXPORT	|??_C@_1CE@KLFJHCLF@?$AAP?$AAM?$AA_?$AAM?$AAP?$AAU?$AAG?$AAR?$AAP?$AAS?$AAE?$AAL?$AA_?$AAW?$AAK?$AAU?$AAP?$AA?$AA@| [ DATA ] ; `string'
	EXPORT	|??_C@_1BK@MGPBAGAB@?$AAP?$AAM?$AA_?$AAW?$AAK?$AAE?$AAN?$AA_?$AAW?$AAK?$AAU?$AAP?$AA?$AA@| [ DATA ] ; `string'
	EXPORT	|??_C@_1BC@DDJDDDAK@?$AAW?$AAK?$AAU?$AAP?$AA_?$AAP?$AAR?$AAM?$AA?$AA@| [ DATA ] ; `string'
	EXPORT	|??_C@_1CC@ODODOLAC@?$AAP?$AAM?$AA_?$AAP?$AAR?$AAE?$AAP?$AAW?$AAS?$AAT?$AAS?$AAT?$AA_?$AAS?$AAG?$AAX?$AA?$AA@| [ DATA ] ; `string'
	EXPORT	|??_C@_1BM@DBDBOAIC@?$AAP?$AAM?$AA_?$AAP?$AAW?$AAS?$AAT?$AAS?$AAT?$AA_?$AAS?$AAG?$AAX?$AA?$AA@| [ DATA ] ; `string'
	EXPORT	|??_C@_1CA@OLBDDHIF@?$AAP?$AAM?$AA_?$AAP?$AAW?$AAS?$AAT?$AAC?$AAT?$AAR?$AAL?$AA_?$AAS?$AAG?$AAX?$AA?$AA@| [ DATA ] ; `string'
	EXPORT	|??_C@_1BK@GCBGNCBJ@?$AAP?$AAM?$AA_?$AAW?$AAK?$AAD?$AAE?$AAP?$AA_?$AAS?$AAG?$AAX?$AA?$AA@| [ DATA ] ; `string'
	EXPORT	|??_C@_1BK@BOHFMJEG@?$AAR?$AAM?$AA_?$AAR?$AAS?$AAT?$AAS?$AAT?$AA_?$AAS?$AAG?$AAX?$AA?$AA@| [ DATA ] ; `string'
	EXPORT	|??_C@_1BA@NJNHLOOA@?$AAS?$AAG?$AAX?$AA_?$AAP?$AAR?$AAM?$AA?$AA@| [ DATA ] ; `string'
	EXPORT	|??_C@_1CG@JIDDONFN@?$AAP?$AAM?$AA_?$AAM?$AAP?$AAU?$AAG?$AAR?$AAP?$AAS?$AAE?$AAL?$AA3?$AA_?$AAC?$AAO?$AAR?$AAE?$AA?$AA@| [ DATA ] ; `string'
	EXPORT	|??_C@_1CI@GGCJOKBC@?$AAP?$AAM?$AA_?$AAI?$AAV?$AAA?$AA2?$AAG?$AAR?$AAP?$AAS?$AAE?$AAL?$AA3?$AA_?$AAC?$AAO?$AAR?$AAE?$AA?$AA@| [ DATA ] ; `string'
	EXPORT	|??_C@_1BM@EPPCFOGM@?$AAP?$AAM?$AA_?$AAW?$AAK?$AAE?$AAN?$AA3?$AA_?$AAC?$AAO?$AAR?$AAE?$AA?$AA@| [ DATA ] ; `string'
	EXPORT	|??_C@_1CE@PMPEKLKF@?$AAP?$AAM?$AA_?$AAP?$AAR?$AAE?$AAP?$AAW?$AAS?$AAT?$AAS?$AAT?$AA_?$AAC?$AAO?$AAR?$AAE?$AA?$AA@| [ DATA ] ; `string'
	EXPORT	|??_C@_1BO@FAKFDILE@?$AAP?$AAM?$AA_?$AAP?$AAW?$AAS?$AAT?$AAS?$AAT?$AA_?$AAC?$AAO?$AAR?$AAE?$AA?$AA@| [ DATA ] ; `string'
	EXPORT	|??_C@_1CC@HFDDDCG@?$AAP?$AAM?$AA_?$AAP?$AAW?$AAS?$AAT?$AAC?$AAT?$AAR?$AAL?$AA_?$AAC?$AAO?$AAR?$AAE?$AA?$AA@| [ DATA ] ; `string'
	EXPORT	|??_C@_1BM@HNLJDKED@?$AAP?$AAM?$AA_?$AAW?$AAK?$AAS?$AAT?$AA3?$AA_?$AAC?$AAO?$AAR?$AAE?$AA?$AA@| [ DATA ] ; `string'
	EXPORT	|??_C@_1BM@JMNHPOOO@?$AAP?$AAM?$AA_?$AAW?$AAK?$AAS?$AAT?$AA1?$AA_?$AAC?$AAO?$AAR?$AAE?$AA?$AA@| [ DATA ] ; `string'
	EXPORT	|??_C@_1CI@IHEHCOLP@?$AAP?$AAM?$AA_?$AAI?$AAV?$AAA?$AA2?$AAG?$AAR?$AAP?$AAS?$AAE?$AAL?$AA1?$AA_?$AAC?$AAO?$AAR?$AAE?$AA?$AA@| [ DATA ] ; `string'
	EXPORT	|??_C@_1CG@HJFNCJPA@?$AAP?$AAM?$AA_?$AAM?$AAP?$AAU?$AAG?$AAR?$AAP?$AAS?$AAE?$AAL?$AA1?$AA_?$AAC?$AAO?$AAR?$AAE?$AA?$AA@| [ DATA ] ; `string'
	EXPORT	|??_C@_1BM@KOJMJKMB@?$AAP?$AAM?$AA_?$AAW?$AAK?$AAE?$AAN?$AA1?$AA_?$AAC?$AAO?$AAR?$AAE?$AA?$AA@| [ DATA ] ; `string'
	EXPORT	|??_C@_1BM@LNIBJNNG@?$AAR?$AAM?$AA_?$AAR?$AAS?$AAT?$AAS?$AAT?$AA_?$AAC?$AAO?$AAR?$AAE?$AA?$AA@| [ DATA ] ; `string'
	EXPORT	|??_C@_1BC@DDNPMELP@?$AAC?$AAO?$AAR?$AAE?$AA_?$AAP?$AAR?$AAM?$AA?$AA@| [ DATA ] ; `string'
	EXPORT	|??_C@_1CC@GGGLCCOF@?$AAP?$AAM?$AA_?$AAP?$AAR?$AAE?$AAP?$AAW?$AAS?$AAT?$AAS?$AAT?$AA_?$AAM?$AAP?$AAU?$AA?$AA@| [ DATA ] ; `string'
	EXPORT	|??_C@_1BM@LELJCJGF@?$AAP?$AAM?$AA_?$AAP?$AAW?$AAS?$AAT?$AAS?$AAT?$AA_?$AAM?$AAP?$AAU?$AA?$AA@| [ DATA ] ; `string'
	EXPORT	|??_C@_1CA@GOJLPOGC@?$AAP?$AAM?$AA_?$AAP?$AAW?$AAS?$AAT?$AAC?$AAT?$AAR?$AAL?$AA_?$AAM?$AAP?$AAU?$AA?$AA@| [ DATA ] ; `string'
	EXPORT	|??_C@_1CG@EAPFPBNK@?$AAP?$AAM?$AA_?$AAE?$AAV?$AAG?$AAE?$AAN?$AAO?$AAF?$AAF?$AAT?$AAI?$AAM?$AA_?$AAM?$AAP?$AAU?$AA?$AA@| [ DATA ] ; `string'
	EXPORT	|??_C@_1CE@GDJAJDKH@?$AAP?$AAM?$AA_?$AAE?$AAV?$AAG?$AAE?$AAN?$AAO?$AAN?$AAT?$AAI?$AAM?$AA_?$AAM?$AAP?$AAU?$AA?$AA@| [ DATA ] ; `string'
	EXPORT	|??_C@_1CC@MKEFHNLB@?$AAP?$AAM?$AA_?$AAE?$AAV?$AAG?$AAE?$AAN?$AAC?$AAT?$AAR?$AAL?$AA_?$AAM?$AAP?$AAU?$AA?$AA@| [ DATA ] ; `string'
	EXPORT	|??_C@_1BK@OHJOBLPO@?$AAP?$AAM?$AA_?$AAW?$AAK?$AAD?$AAE?$AAP?$AA_?$AAM?$AAP?$AAU?$AA?$AA@| [ DATA ] ; `string'
	EXPORT	|??_C@_1BK@JLPNAAKB@?$AAR?$AAM?$AA_?$AAR?$AAS?$AAT?$AAS?$AAT?$AA_?$AAM?$AAP?$AAU?$AA?$AA@| [ DATA ] ; `string'
	EXPORT	|??_C@_1BA@ICKCOBJH@?$AAM?$AAP?$AAU?$AA_?$AAP?$AAR?$AAM?$AA?$AA@| [ DATA ] ; `string'
	EXPORT	|??_C@_1CE@BEHICOCH@?$AAP?$AAR?$AAM?$AA_?$AAI?$AAR?$AAQ?$AAE?$AAN?$AAA?$AAB?$AAL?$AAE?$AA_?$AAM?$AAP?$AAU?$AA?$AA@| [ DATA ] ; `string'
	EXPORT	|??_C@_1CE@OGNKOJLH@?$AAP?$AAR?$AAM?$AA_?$AAI?$AAR?$AAQ?$AAS?$AAT?$AAA?$AAT?$AAU?$AAS?$AA_?$AAM?$AAP?$AAU?$AA?$AA@| [ DATA ] ; `string'
	EXPORT	|??_C@_1BM@BIKNBGAP@?$AAP?$AAR?$AAM?$AA_?$AAS?$AAY?$AAS?$AAC?$AAO?$AAN?$AAF?$AAI?$AAG?$AA?$AA@| [ DATA ] ; `string'
	EXPORT	|??_C@_1BK@HJNIKPGD@?$AAP?$AAR?$AAM?$AA_?$AAR?$AAE?$AAV?$AAI?$AAS?$AAI?$AAO?$AAN?$AA?$AA@| [ DATA ] ; `string'
	EXPORT	|??_C@_1CG@MLMHCLLI@?$AAO?$AAC?$AAP?$AA_?$AAS?$AAy?$AAs?$AAt?$AAe?$AAm?$AA_?$AAR?$AAe?$AAg?$AA_?$AAP?$AAR?$AAM?$AA?$AA@| [ DATA ] ; `string'
	EXPORT	|??_C@_1CG@LPCHCII@?$AAP?$AAR?$AAM?$AA_?$AAI?$AAR?$AAQ?$AAE?$AAN?$AAA?$AAB?$AAL?$AAE?$AA_?$AAI?$AAV?$AAA?$AA2?$AA?$AA@| [ DATA ] ; `string'
	EXPORT	|??_C@_1CG@HPLDFNCD@?$AAP?$AAR?$AAM?$AA_?$AAI?$AAR?$AAQ?$AAS?$AAT?$AAA?$AAT?$AAU?$AAS?$AA_?$AAI?$AAV?$AAA?$AA2?$AA?$AA@| [ DATA ] ; `string'
	EXPORT	|??_C@_1CE@PLIIPJHM@?$AAP?$AAM?$AA_?$AAP?$AAR?$AAE?$AAP?$AAW?$AAS?$AAT?$AAS?$AAT?$AA_?$AAI?$AAV?$AAA?$AA2?$AA?$AA@| [ DATA ] ; `string'
	EXPORT	|??_C@_1BO@FHNJGKGN@?$AAP?$AAM?$AA_?$AAP?$AAW?$AAS?$AAT?$AAS?$AAT?$AA_?$AAI?$AAV?$AAA?$AA2?$AA?$AA@| [ DATA ] ; `string'
	EXPORT	|??_C@_1CC@CPGBPP@?$AAP?$AAM?$AA_?$AAP?$AAW?$AAS?$AAT?$AAC?$AAT?$AAR?$AAL?$AA_?$AAI?$AAV?$AAA?$AA2?$AA?$AA@| [ DATA ] ; `string'
	EXPORT	|??_C@_1BM@NLLDLBL@?$AAP?$AAM?$AA_?$AAW?$AAK?$AAD?$AAE?$AAP?$AA_?$AAI?$AAV?$AAA?$AA2?$AA?$AA@| [ DATA ] ; `string'
	EXPORT	|??_C@_1BM@LKPNMPAP@?$AAR?$AAM?$AA_?$AAR?$AAS?$AAT?$AAS?$AAT?$AA_?$AAI?$AAV?$AAA?$AA2?$AA?$AA@| [ DATA ] ; `string'
	EXPORT	|??_C@_1CA@GBOALOJP@?$AAR?$AAM?$AA_?$AAR?$AAS?$AAT?$AAC?$AAT?$AAR?$AAL?$AA_?$AAI?$AAV?$AAA?$AA2?$AA?$AA@| [ DATA ] ; `string'
	EXPORT	|??_C@_1BC@FAAHEALM@?$AAI?$AAV?$AAA?$AA2?$AA_?$AAP?$AAR?$AAM?$AA?$AA@| [ DATA ] ; `string'
	EXPORT	|??_C@_1CG@EKKJOCAI@?$AAC?$AAM?$AA_?$AAC?$AAL?$AAK?$AAS?$AAT?$AAS?$AAT?$AA_?$AAU?$AAS?$AAB?$AAH?$AAO?$AAS?$AAT?$AA?$AA@| [ DATA ] ; `string'
	EXPORT	|??_C@_1CK@EGBEEDCG@?$AAC?$AAM?$AA_?$AAC?$AAL?$AAK?$AAS?$AAT?$AAC?$AAT?$AAR?$AAL?$AA_?$AAU?$AAS?$AAB?$AAH?$AAO?$AAS?$AAT?$AA?$AA@| [ DATA ] ; `string'
	EXPORT	|??_C@_1CI@GKCHFPIN@?$AAC?$AAM?$AA_?$AAS?$AAL?$AAE?$AAE?$AAP?$AAD?$AAE?$AAP?$AA_?$AAU?$AAS?$AAB?$AAH?$AAO?$AAS?$AAT?$AA?$AA@| [ DATA ] ; `string'
	EXPORT	|??_C@_1CI@DGALJPCE@?$AAC?$AAM?$AA_?$AAA?$AAU?$AAT?$AAO?$AAI?$AAD?$AAL?$AAE?$AA_?$AAU?$AAS?$AAB?$AAH?$AAO?$AAS?$AAT?$AA?$AA@| [ DATA ] ; `string'
	EXPORT	|??_C@_1CE@JPANCJP@?$AAC?$AAM?$AA_?$AAI?$AAD?$AAL?$AAE?$AAS?$AAT?$AA_?$AAU?$AAS?$AAB?$AAH?$AAO?$AAS?$AAT?$AA?$AA@| [ DATA ] ; `string'
	EXPORT	|??_C@_1CE@DBMFEPI@?$AAC?$AAM?$AA_?$AAI?$AAC?$AAL?$AAK?$AAE?$AAN?$AA_?$AAU?$AAS?$AAB?$AAH?$AAO?$AAS?$AAT?$AA?$AA@| [ DATA ] ; `string'
	EXPORT	|??_C@_1CE@IOEIODMB@?$AAC?$AAM?$AA_?$AAF?$AAC?$AAL?$AAK?$AAE?$AAN?$AA_?$AAU?$AAS?$AAB?$AAH?$AAO?$AAS?$AAT?$AA?$AA@| [ DATA ] ; `string'
	EXPORT	|??_C@_1BG@GHMGBAHH@?$AAU?$AAS?$AAB?$AAH?$AAO?$AAS?$AAT?$AA_?$AAC?$AAM?$AA?$AA@| [ DATA ] ; `string'
	EXPORT	|??_C@_1CE@ECPHHBNM@?$AAC?$AAM?$AA_?$AAC?$AAL?$AAK?$AAS?$AAT?$AAC?$AAT?$AAR?$AAL?$AA_?$AAN?$AAE?$AAO?$AAN?$AA?$AA@| [ DATA ] ; `string'
	EXPORT	|??_C@_1BO@IJPLNAMK@?$AAC?$AAM?$AA_?$AAI?$AAD?$AAL?$AAE?$AAS?$AAT?$AA_?$AAN?$AAE?$AAO?$AAN?$AA?$AA@| [ DATA ] ; `string'
	EXPORT	|??_C@_1BA@HGJCCLLN@?$AAN?$AAE?$AAO?$AAN?$AA_?$AAC?$AAM?$AA?$AA@| [ DATA ] ; `string'
	EXPORT	|??_C@_1BG@JLGAJAMH@?$AAC?$AAM?$AA_?$AAP?$AAO?$AAL?$AAC?$AAT?$AAR?$AAL?$AA?$AA@| [ DATA ] ; `string'
	EXPORT	|??_C@_1BM@KLCMOAEB@?$AAG?$AAl?$AAo?$AAb?$AAa?$AAl?$AA_?$AAR?$AAe?$AAg?$AA_?$AAC?$AAM?$AA?$AA@| [ DATA ] ; `string'
	EXPORT	|??_C@_1BO@DFKMIPJP@?$AAC?$AAM?$AA_?$AAC?$AAL?$AAK?$AAS?$AAE?$AAL?$AA3?$AA_?$AAE?$AAM?$AAU?$AA?$AA@| [ DATA ] ; `string'
	EXPORT	|??_C@_1BO@KOAJMDPA@?$AAC?$AAM?$AA_?$AAC?$AAL?$AAK?$AAS?$AAE?$AAL?$AA2?$AA_?$AAE?$AAM?$AAU?$AA?$AA@| [ DATA ] ; `string'
	EXPORT	|??_C@_1BO@BBAPCNIN@?$AAC?$AAM?$AA_?$AAC?$AAL?$AAK?$AAS?$AAT?$AAS?$AAT?$AA_?$AAE?$AAM?$AAU?$AA?$AA@| [ DATA ] ; `string'
	EXPORT	|??_C@_1CC@NGILBHGG@?$AAC?$AAM?$AA_?$AAC?$AAL?$AAK?$AAS?$AAT?$AAC?$AAT?$AAR?$AAL?$AA_?$AAE?$AAM?$AAU?$AA?$AA@| [ DATA ] ; `string'
	EXPORT	|??_C@_1BO@NJJHBBAA@?$AAC?$AAM?$AA_?$AAC?$AAL?$AAK?$AAS?$AAE?$AAL?$AA1?$AA_?$AAE?$AAM?$AAU?$AA?$AA@| [ DATA ] ; `string'
	EXPORT	|??_C@_1O@HGBLPNPO@?$AAE?$AAM?$AAU?$AA_?$AAC?$AAM?$AA?$AA@| [ DATA ] ; `string'
	EXPORT	|??_C@_1BO@FENAKIBG@?$AAC?$AAM?$AA_?$AAC?$AAL?$AAK?$AAS?$AAT?$AAS?$AAT?$AA_?$AAP?$AAE?$AAR?$AA?$AA@| [ DATA ] ; `string'
	EXPORT	|??_C@_1CC@JDFEJCPN@?$AAC?$AAM?$AA_?$AAC?$AAL?$AAK?$AAS?$AAT?$AAC?$AAT?$AAR?$AAL?$AA_?$AAP?$AAE?$AAR?$AA?$AA@| [ DATA ] ; `string'
	EXPORT	|??_C@_1CA@OCEIBJJL@?$AAC?$AAM?$AA_?$AAS?$AAL?$AAE?$AAE?$AAP?$AAD?$AAE?$AAP?$AA_?$AAP?$AAE?$AAR?$AA?$AA@| [ DATA ] ; `string'
	EXPORT	|??_C@_1BM@JGBOEBBM@?$AAC?$AAM?$AA_?$AAC?$AAL?$AAK?$AAS?$AAE?$AAL?$AA_?$AAP?$AAE?$AAR?$AA?$AA@| [ DATA ] ; `string'
	EXPORT	|??_C@_1CA@HEJEIAMO@?$AAC?$AAM?$AA_?$AAA?$AAU?$AAT?$AAO?$AAI?$AAD?$AAL?$AAE?$AA_?$AAP?$AAE?$AAR?$AA?$AA@| [ DATA ] ; `string'
	EXPORT	|??_C@_1BM@FMCKMJOI@?$AAC?$AAM?$AA_?$AAI?$AAD?$AAL?$AAE?$AAS?$AAT?$AA_?$AAP?$AAE?$AAR?$AA?$AA@| [ DATA ] ; `string'
	EXPORT	|??_C@_1BM@OFLDOLJH@?$AAC?$AAM?$AA_?$AAI?$AAC?$AAL?$AAK?$AAE?$AAN?$AA_?$AAP?$AAE?$AAR?$AA?$AA@| [ DATA ] ; `string'
	EXPORT	|??_C@_1BM@DJCJPDNH@?$AAC?$AAM?$AA_?$AAF?$AAC?$AAL?$AAK?$AAE?$AAN?$AA_?$AAP?$AAE?$AAR?$AA?$AA@| [ DATA ] ; `string'
	EXPORT	|??_C@_1O@HANKMCHI@?$AAP?$AAE?$AAR?$AA_?$AAC?$AAM?$AA?$AA@| [ DATA ] ; `string'
	EXPORT	|??_C@_1BO@DFAPJLAB@?$AAC?$AAM?$AA_?$AAC?$AAL?$AAK?$AAS?$AAT?$AAS?$AAT?$AA_?$AAC?$AAA?$AAM?$AA?$AA@| [ DATA ] ; `string'
	EXPORT	|??_C@_1CC@PCILKBOK@?$AAC?$AAM?$AA_?$AAC?$AAL?$AAK?$AAS?$AAT?$AAC?$AAT?$AAR?$AAL?$AA_?$AAC?$AAA?$AAM?$AA?$AA@| [ DATA ] ; `string'
	EXPORT	|??_C@_1CA@IDJHCKIM@?$AAC?$AAM?$AA_?$AAS?$AAL?$AAE?$AAE?$AAP?$AAD?$AAE?$AAP?$AA_?$AAC?$AAA?$AAM?$AA?$AA@| [ DATA ] ; `string'
	EXPORT	|??_C@_1BM@PHMBHCAL@?$AAC?$AAM?$AA_?$AAC?$AAL?$AAK?$AAS?$AAE?$AAL?$AA_?$AAC?$AAA?$AAM?$AA?$AA@| [ DATA ] ; `string'
	EXPORT	|??_C@_1CA@BFELLDNJ@?$AAC?$AAM?$AA_?$AAA?$AAU?$AAT?$AAO?$AAI?$AAD?$AAL?$AAE?$AA_?$AAC?$AAA?$AAM?$AA?$AA@| [ DATA ] ; `string'
	EXPORT	|??_C@_1BM@DNPFPKPP@?$AAC?$AAM?$AA_?$AAI?$AAD?$AAL?$AAE?$AAS?$AAT?$AA_?$AAC?$AAA?$AAM?$AA?$AA@| [ DATA ] ; `string'
	EXPORT	|??_C@_1BM@IEGMNIIA@?$AAC?$AAM?$AA_?$AAI?$AAC?$AAL?$AAK?$AAE?$AAN?$AA_?$AAC?$AAA?$AAM?$AA?$AA@| [ DATA ] ; `string'
	EXPORT	|??_C@_1BM@FIPGMAMA@?$AAC?$AAM?$AA_?$AAF?$AAC?$AAL?$AAK?$AAE?$AAN?$AA_?$AAC?$AAA?$AAM?$AA?$AA@| [ DATA ] ; `string'
	EXPORT	|??_C@_1O@LPKKDKNF@?$AAC?$AAA?$AAM?$AA_?$AAC?$AAM?$AA?$AA@| [ DATA ] ; `string'
	EXPORT	|??_C@_1BO@MBBCBBCE@?$AAC?$AAM?$AA_?$AAC?$AAL?$AAK?$AAS?$AAT?$AAS?$AAT?$AA_?$AAD?$AAS?$AAS?$AA?$AA@| [ DATA ] ; `string'
	EXPORT	|??_C@_1CC@GJGCLMP@?$AAC?$AAM?$AA_?$AAC?$AAL?$AAK?$AAS?$AAT?$AAC?$AAT?$AAR?$AAL?$AA_?$AAD?$AAS?$AAS?$AA?$AA@| [ DATA ] ; `string'
	EXPORT	|??_C@_1CA@HHIKKAKJ@?$AAC?$AAM?$AA_?$AAS?$AAL?$AAE?$AAE?$AAP?$AAD?$AAE?$AAP?$AA_?$AAD?$AAS?$AAS?$AA?$AA@| [ DATA ] ; `string'
	EXPORT	|??_C@_1BM@DNMPICO@?$AAC?$AAM?$AA_?$AAC?$AAL?$AAK?$AAS?$AAE?$AAL?$AA_?$AAD?$AAS?$AAS?$AA?$AA@| [ DATA ] ; `string'
	EXPORT	|??_C@_1CA@OBFGDJPM@?$AAC?$AAM?$AA_?$AAA?$AAU?$AAT?$AAO?$AAI?$AAD?$AAL?$AAE?$AA_?$AAD?$AAS?$AAS?$AA?$AA@| [ DATA ] ; `string'
	EXPORT	|??_C@_1BM@MJOIHANK@?$AAC?$AAM?$AA_?$AAI?$AAD?$AAL?$AAE?$AAS?$AAT?$AA_?$AAD?$AAS?$AAS?$AA?$AA@| [ DATA ] ; `string'
	EXPORT	|??_C@_1BM@HAHBFCKF@?$AAC?$AAM?$AA_?$AAI?$AAC?$AAL?$AAK?$AAE?$AAN?$AA_?$AAD?$AAS?$AAS?$AA?$AA@| [ DATA ] ; `string'
	EXPORT	|??_C@_1BM@KMOLEKOF@?$AAC?$AAM?$AA_?$AAF?$AAC?$AAL?$AAK?$AAE?$AAN?$AA_?$AAD?$AAS?$AAS?$AA?$AA@| [ DATA ] ; `string'
	EXPORT	|??_C@_1O@DCDFCCN@?$AAD?$AAS?$AAS?$AA_?$AAC?$AAM?$AA?$AA@| [ DATA ] ; `string'
	EXPORT	|??_C@_1BO@MLHAGPEI@?$AAC?$AAM?$AA_?$AAC?$AAL?$AAK?$AAO?$AAU?$AAT?$AA_?$AAC?$AAT?$AAR?$AAL?$AA?$AA@| [ DATA ] ; `string'
	EXPORT	|??_C@_1BO@IIHNOIA@?$AAC?$AAM?$AA_?$AAC?$AAL?$AAK?$AAS?$AAE?$AAL?$AA5?$AA_?$AAP?$AAL?$AAL?$AA?$AA@| [ DATA ] ; `string'
	EXPORT	|??_C@_1BO@JDCCJCOP@?$AAC?$AAM?$AA_?$AAC?$AAL?$AAK?$AAS?$AAE?$AAL?$AA4?$AA_?$AAP?$AAL?$AAL?$AA?$AA@| [ DATA ] ; `string'
	EXPORT	|??_C@_1BO@OHLKHLGA@?$AAC?$AAM?$AA_?$AAC?$AAL?$AAK?$AAS?$AAE?$AAL?$AA3?$AA_?$AAP?$AAL?$AAL?$AA?$AA@| [ DATA ] ; `string'
	EXPORT	|??_C@_1BO@HMBPDHAP@?$AAC?$AAM?$AA_?$AAC?$AAL?$AAK?$AAS?$AAE?$AAL?$AA2?$AA_?$AAP?$AAL?$AAL?$AA?$AA@| [ DATA ] ; `string'
	EXPORT	|??_C@_1BO@LIBOFPP@?$AAC?$AAM?$AA_?$AAC?$AAL?$AAK?$AAS?$AAE?$AAL?$AA1?$AA_?$AAP?$AAL?$AAL?$AA?$AA@| [ DATA ] ; `string'
	EXPORT	|??_C@_1CC@CDHCIADO@?$AAC?$AAM?$AA_?$AAA?$AAU?$AAT?$AAO?$AAI?$AAD?$AAL?$AAE?$AA2?$AA_?$AAP?$AAL?$AAL?$AA?$AA@| [ DATA ] ; `string'
	EXPORT	|??_C@_1CA@ODFNPBKK@?$AAC?$AAM?$AA_?$AAA?$AAU?$AAT?$AAO?$AAI?$AAD?$AAL?$AAE?$AA_?$AAP?$AAL?$AAL?$AA?$AA@| [ DATA ] ; `string'
	EXPORT	|??_C@_1CC@OBCEIAAE@?$AAC?$AAM?$AA_?$AAI?$AAD?$AAL?$AAE?$AAS?$AAT?$AA2?$AA_?$AAC?$AAK?$AAG?$AAE?$AAN?$AA?$AA@| [ DATA ] ; `string'
	EXPORT	|??_C@_1CA@PFEJJBMO@?$AAC?$AAM?$AA_?$AAI?$AAD?$AAL?$AAE?$AAS?$AAT?$AA_?$AAC?$AAK?$AAG?$AAE?$AAN?$AA?$AA@| [ DATA ] ; `string'
	EXPORT	|??_C@_1BM@DGCCAOAF@?$AAC?$AAM?$AA_?$AAC?$AAL?$AAK?$AAE?$AAN?$AA2?$AA_?$AAP?$AAL?$AAL?$AA?$AA@| [ DATA ] ; `string'
	EXPORT	|??_C@_1BK@CFOGEALB@?$AAC?$AAM?$AA_?$AAC?$AAL?$AAK?$AAE?$AAN?$AA_?$AAP?$AAL?$AAL?$AA?$AA@| [ DATA ] ; `string'
	EXPORT	|??_C@_1CK@OJMCKPMK@?$AAC?$AAl?$AAo?$AAc?$AAk?$AA_?$AAC?$AAo?$AAn?$AAt?$AAr?$AAo?$AAl?$AA_?$AAR?$AAe?$AAg?$AA_?$AAC?$AAM?$AA?$AA@| [ DATA ] ; `string'
	EXPORT	|??_C@_1BO@MGPCIMBE@?$AAC?$AAM?$AA_?$AAC?$AAL?$AAK?$AAS?$AAE?$AAL?$AA_?$AAW?$AAK?$AAU?$AAP?$AA?$AA@| [ DATA ] ; `string'
	EXPORT	|??_C@_1CC@JJJPDLCF@?$AAC?$AAM?$AA_?$AAA?$AAU?$AAT?$AAO?$AAI?$AAD?$AAL?$AAE?$AA_?$AAW?$AAK?$AAU?$AAP?$AA?$AA@| [ DATA ] ; `string'
	EXPORT	|??_C@_1BO@FFEBGJIL@?$AAC?$AAM?$AA_?$AAI?$AAD?$AAL?$AAE?$AAS?$AAT?$AA_?$AAW?$AAK?$AAU?$AAP?$AA?$AA@| [ DATA ] ; `string'
	EXPORT	|??_C@_1BO@CIIGPEMP@?$AAC?$AAM?$AA_?$AAI?$AAC?$AAL?$AAK?$AAE?$AAN?$AA_?$AAW?$AAK?$AAU?$AAP?$AA?$AA@| [ DATA ] ; `string'
	EXPORT	|??_C@_1BO@MLJDPPAG@?$AAC?$AAM?$AA_?$AAF?$AAC?$AAL?$AAK?$AAE?$AAN?$AA_?$AAW?$AAK?$AAU?$AAP?$AA?$AA@| [ DATA ] ; `string'
	EXPORT	|??_C@_1BA@FJBNPKLL@?$AAW?$AAK?$AAU?$AAP?$AA_?$AAC?$AAM?$AA?$AA@| [ DATA ] ; `string'
	EXPORT	|??_C@_1BO@PICKOOJK@?$AAC?$AAM?$AA_?$AAC?$AAL?$AAK?$AAS?$AAT?$AAS?$AAT?$AA_?$AAS?$AAG?$AAX?$AA?$AA@| [ DATA ] ; `string'
	EXPORT	|??_C@_1CC@DPKONEHB@?$AAC?$AAM?$AA_?$AAC?$AAL?$AAK?$AAS?$AAT?$AAC?$AAT?$AAR?$AAL?$AA_?$AAS?$AAG?$AAX?$AA?$AA@| [ DATA ] ; `string'
	EXPORT	|??_C@_1CA@EOLCFPBH@?$AAC?$AAM?$AA_?$AAS?$AAL?$AAE?$AAE?$AAP?$AAD?$AAE?$AAP?$AA_?$AAS?$AAG?$AAX?$AA?$AA@| [ DATA ] ; `string'
	EXPORT	|??_C@_1BM@DKOEAHJA@?$AAC?$AAM?$AA_?$AAC?$AAL?$AAK?$AAS?$AAE?$AAL?$AA_?$AAS?$AAG?$AAX?$AA?$AA@| [ DATA ] ; `string'
	EXPORT	|??_C@_1BM@PANAIPGE@?$AAC?$AAM?$AA_?$AAI?$AAD?$AAL?$AAE?$AAS?$AAT?$AA_?$AAS?$AAG?$AAX?$AA?$AA@| [ DATA ] ; `string'
	EXPORT	|??_C@_1BM@EJEJKNBL@?$AAC?$AAM?$AA_?$AAI?$AAC?$AAL?$AAK?$AAE?$AAN?$AA_?$AAS?$AAG?$AAX?$AA?$AA@| [ DATA ] ; `string'
	EXPORT	|??_C@_1BM@JFNDLFFL@?$AAC?$AAM?$AA_?$AAF?$AAC?$AAL?$AAK?$AAE?$AAN?$AA_?$AAS?$AAG?$AAX?$AA?$AA@| [ DATA ] ; `string'
	EXPORT	|??_C@_1O@PHKCOJPF@?$AAS?$AAG?$AAX?$AA_?$AAC?$AAM?$AA?$AA@| [ DATA ] ; `string'
	EXPORT	|??_C@_1CA@DFAGEEPB@?$AAC?$AAM?$AA_?$AAC?$AAL?$AAK?$AAS?$AAT?$AAS?$AAT?$AA_?$AAC?$AAO?$AAR?$AAE?$AA?$AA@| [ DATA ] ; `string'
	EXPORT	|??_C@_1CE@EOIAHAOA@?$AAC?$AAM?$AA_?$AAC?$AAL?$AAK?$AAS?$AAT?$AAC?$AAT?$AAR?$AAL?$AA_?$AAC?$AAO?$AAR?$AAE?$AA?$AA@| [ DATA ] ; `string'
	EXPORT	|??_C@_1BO@BGDPDEGJ@?$AAC?$AAM?$AA_?$AAC?$AAL?$AAK?$AAS?$AAE?$AAL?$AA_?$AAC?$AAO?$AAR?$AAE?$AA?$AA@| [ DATA ] ; `string'
	EXPORT	|??_C@_1CE@OGHCKMLF@?$AAC?$AAM?$AA_?$AAA?$AAU?$AAT?$AAO?$AAI?$AAD?$AAL?$AAE?$AA3?$AA_?$AAC?$AAO?$AAR?$AAE?$AA?$AA@| [ DATA ] ; `string'
	EXPORT	|??_C@_1CE@HLHNENMD@?$AAC?$AAM?$AA_?$AAA?$AAU?$AAT?$AAO?$AAI?$AAD?$AAL?$AAE?$AA2?$AA_?$AAC?$AAO?$AAR?$AAE?$AA?$AA@| [ DATA ] ; `string'
	EXPORT	|??_C@_1CE@HBMGIBI@?$AAC?$AAM?$AA_?$AAA?$AAU?$AAT?$AAO?$AAI?$AAD?$AAL?$AAE?$AA1?$AA_?$AAC?$AAO?$AAR?$AAE?$AA?$AA@| [ DATA ] ; `string'
	EXPORT	|??_C@_1CA@FDJDMBNE@?$AAC?$AAM?$AA_?$AAI?$AAD?$AAL?$AAE?$AAS?$AAT?$AA3?$AA_?$AAC?$AAO?$AAR?$AAE?$AA?$AA@| [ DATA ] ; `string'
	EXPORT	|??_C@_1CA@MOJMCAKC@?$AAC?$AAM?$AA_?$AAI?$AAD?$AAL?$AAE?$AAS?$AAT?$AA2?$AA_?$AAC?$AAO?$AAR?$AAE?$AA?$AA@| [ DATA ] ; `string'
	EXPORT	|??_C@_1CA@LCPNAFHJ@?$AAC?$AAM?$AA_?$AAI?$AAD?$AAL?$AAE?$AAS?$AAT?$AA1?$AA_?$AAC?$AAO?$AAR?$AAE?$AA?$AA@| [ DATA ] ; `string'
	EXPORT	|??_C@_1CA@EJDINJOL@?$AAC?$AAM?$AA_?$AAI?$AAC?$AAL?$AAK?$AAE?$AAN?$AA3?$AA_?$AAC?$AAO?$AAR?$AAE?$AA?$AA@| [ DATA ] ; `string'
	EXPORT	|??_C@_1CA@NEDHDIJN@?$AAC?$AAM?$AA_?$AAI?$AAC?$AAL?$AAK?$AAE?$AAN?$AA2?$AA_?$AAC?$AAO?$AAR?$AAE?$AA?$AA@| [ DATA ] ; `string'
	EXPORT	|??_C@_1CA@KIFGBNEG@?$AAC?$AAM?$AA_?$AAI?$AAC?$AAL?$AAK?$AAE?$AAN?$AA1?$AA_?$AAC?$AAO?$AAR?$AAE?$AA?$AA@| [ DATA ] ; `string'
	EXPORT	|??_C@_1CA@MENCIPHB@?$AAC?$AAM?$AA_?$AAF?$AAC?$AAL?$AAK?$AAE?$AAN?$AA3?$AA_?$AAC?$AAO?$AAR?$AAE?$AA?$AA@| [ DATA ] ; `string'
	EXPORT	|??_C@_1CA@CFLMELNM@?$AAC?$AAM?$AA_?$AAF?$AAC?$AAL?$AAK?$AAE?$AAN?$AA1?$AA_?$AAC?$AAO?$AAR?$AAE?$AA?$AA@| [ DATA ] ; `string'
	EXPORT	|??_C@_1BA@MHLIKEJK@?$AAC?$AAO?$AAR?$AAE?$AA_?$AAC?$AAM?$AA?$AA@| [ DATA ] ; `string'
	EXPORT	|??_C@_1BO@HNKCCHHN@?$AAC?$AAM?$AA_?$AAC?$AAL?$AAK?$AAS?$AAT?$AAS?$AAT?$AA_?$AAM?$AAP?$AAU?$AA?$AA@| [ DATA ] ; `string'
	EXPORT	|??_C@_1CC@LKCGBNJG@?$AAC?$AAM?$AA_?$AAC?$AAL?$AAK?$AAS?$AAT?$AAC?$AAT?$AAR?$AAL?$AA_?$AAM?$AAP?$AAU?$AA?$AA@| [ DATA ] ; `string'
	EXPORT	|??_C@_1CG@HAJMMJGO@?$AAC?$AAM?$AA_?$AAC?$AAL?$AAK?$AAS?$AAE?$AAL?$AA2?$AA_?$AAP?$AAL?$AAL?$AA_?$AAM?$AAP?$AAU?$AA?$AA@| [ DATA ] ; `string'
	EXPORT	|??_C@_1CG@NPDFIEKE@?$AAC?$AAM?$AA_?$AAC?$AAL?$AAK?$AAS?$AAE?$AAL?$AA1?$AA_?$AAP?$AAL?$AAL?$AA_?$AAM?$AAP?$AAU?$AA?$AA@| [ DATA ] ; `string'
	EXPORT	|??_C@_1CI@CMDKJBJB@?$AAC?$AAM?$AA_?$AAA?$AAU?$AAT?$AAO?$AAI?$AAD?$AAL?$AAE?$AA_?$AAP?$AAL?$AAL?$AA_?$AAM?$AAP?$AAU?$AA?$AA@| [ DATA ] ; `string'
	EXPORT	|??_C@_1CE@BDMBNMCK@?$AAC?$AAM?$AA_?$AAI?$AAD?$AAL?$AAE?$AAS?$AAT?$AA_?$AAP?$AAL?$AAL?$AA_?$AAM?$AAP?$AAU?$AA?$AA@| [ DATA ] ; `string'
	EXPORT	|??_C@_1BM@HFFIEGID@?$AAC?$AAM?$AA_?$AAI?$AAD?$AAL?$AAE?$AAS?$AAT?$AA_?$AAM?$AAP?$AAU?$AA?$AA@| [ DATA ] ; `string'
	EXPORT	|??_C@_1CC@JNLBAGDF@?$AAC?$AAM?$AA_?$AAC?$AAL?$AAK?$AAE?$AAN?$AA_?$AAP?$AAL?$AAL?$AA_?$AAM?$AAP?$AAU?$AA?$AA@| [ DATA ] ; `string'
	EXPORT	|??_C@_1O@NHPFAPNK@?$AAM?$AAP?$AAU?$AA_?$AAC?$AAM?$AA?$AA@| [ DATA ] ; `string'
	EXPORT	|??_C@_1BK@MFOLEKL@?$AAC?$AAM?$AA_?$AAS?$AAY?$AAS?$AAC?$AAO?$AAN?$AAF?$AAI?$AAG?$AA?$AA@| [ DATA ] ; `string'
	EXPORT	|??_C@_1BI@OFDDPNDA@?$AAC?$AAM?$AA_?$AAR?$AAE?$AAV?$AAI?$AAS?$AAI?$AAO?$AAN?$AA?$AA@| [ DATA ] ; `string'
	EXPORT	|??_C@_1CE@OMIMNBBB@?$AAO?$AAC?$AAP?$AA_?$AAS?$AAy?$AAs?$AAt?$AAe?$AAm?$AA_?$AAR?$AAe?$AAg?$AA_?$AAC?$AAM?$AA?$AA@| [ DATA ] ; `string'
	EXPORT	|??_C@_1CA@DCHKBGCI@?$AAC?$AAM?$AA_?$AAC?$AAL?$AAK?$AAS?$AAT?$AAS?$AAT?$AA_?$AAI?$AAV?$AAA?$AA2?$AA?$AA@| [ DATA ] ; `string'
	EXPORT	|??_C@_1CE@EJPMCCDJ@?$AAC?$AAM?$AA_?$AAC?$AAL?$AAK?$AAS?$AAT?$AAC?$AAT?$AAR?$AAL?$AA_?$AAI?$AAV?$AAA?$AA2?$AA?$AA@| [ DATA ] ; `string'
	EXPORT	|??_C@_1CI@BECHJFPL@?$AAC?$AAM?$AA_?$AAC?$AAL?$AAK?$AAS?$AAE?$AAL?$AA2?$AA_?$AAP?$AAL?$AAL?$AA_?$AAI?$AAV?$AAA?$AA2?$AA?$AA@| [ DATA ] ; `string'
	EXPORT	|??_C@_1CI@CNFPDILL@?$AAC?$AAM?$AA_?$AAC?$AAL?$AAK?$AAS?$AAE?$AAL?$AA1?$AA_?$AAP?$AAL?$AAL?$AA_?$AAI?$AAV?$AAA?$AA2?$AA?$AA@| [ DATA ] ; `string'
	EXPORT	|??_C@_1CK@OCLDONOJ@?$AAC?$AAM?$AA_?$AAA?$AAU?$AAT?$AAO?$AAI?$AAD?$AAL?$AAE?$AA_?$AAP?$AAL?$AAL?$AA_?$AAI?$AAV?$AAA?$AA2?$AA?$AA@| [ DATA ] ; `string'
	EXPORT	|??_C@_1CG@ONOPJIEM@?$AAC?$AAM?$AA_?$AAI?$AAD?$AAL?$AAE?$AAS?$AAT?$AA_?$AAP?$AAL?$AAL?$AA_?$AAI?$AAV?$AAA?$AA2?$AA?$AA@| [ DATA ] ; `string'
	EXPORT	|??_C@_1BO@ICPAIDCP@?$AAC?$AAM?$AA_?$AAI?$AAD?$AAL?$AAE?$AAS?$AAT?$AA_?$AAI?$AAV?$AAA?$AA2?$AA?$AA@| [ DATA ] ; `string'
	EXPORT	|??_C@_1CE@EGLDCDGI@?$AAC?$AAM?$AA_?$AAC?$AAL?$AAK?$AAE?$AAN?$AA_?$AAP?$AAL?$AAL?$AA_?$AAI?$AAV?$AAA?$AA2?$AA?$AA@| [ DATA ] ; `string'
	EXPORT	|??_C@_1BO@BMCCBFKC@?$AAC?$AAM?$AA_?$AAF?$AAC?$AAL?$AAK?$AAE?$AAN?$AA_?$AAI?$AAV?$AAA?$AA2?$AA?$AA@| [ DATA ] ; `string'
	EXPORT	|??_C@_1BA@JEPMHMHH@?$AAI?$AAV?$AAA?$AA2?$AA_?$AAC?$AAM?$AA?$AA@| [ DATA ] ; `string'
	EXPORT	|??_C@_1DA@EDKFOKOO@?$AAP?$AAO?$AAW?$AAE?$AAR?$AAD?$AAO?$AAM?$AAA?$AAI?$AAN?$AA_?$AAS?$AAM?$AAA?$AAR?$AAT?$AAR?$AAE?$AAF?$AAL?$AAE?$AAX?$AA?$AA@| [ DATA ] ; `string'
	EXPORT	|??_C@_1CE@NPBICAPK@?$AAP?$AAO?$AAW?$AAE?$AAR?$AAD?$AAO?$AAM?$AAA?$AAI?$AAN?$AA_?$AAE?$AAF?$AAU?$AAS?$AAE?$AA?$AA@| [ DATA ] ; `string'
	EXPORT	|??_C@_1CA@EPPNKFHH@?$AAP?$AAO?$AAW?$AAE?$AAR?$AAD?$AAO?$AAM?$AAA?$AAI?$AAN?$AA_?$AAS?$AAG?$AAX?$AA?$AA@| [ DATA ] ; `string'
	EXPORT	|??_C@_1CG@OKLBKABF@?$AAP?$AAO?$AAW?$AAE?$AAR?$AAD?$AAO?$AAM?$AAA?$AAI?$AAN?$AA_?$AAC?$AAA?$AAM?$AAE?$AAR?$AAA?$AA?$AA@| [ DATA ] ; `string'
	EXPORT	|??_C@_1CC@DIKELEEG@?$AAP?$AAO?$AAW?$AAE?$AAR?$AAD?$AAO?$AAM?$AAA?$AAI?$AAN?$AA_?$AAI?$AAV?$AAA?$AA2?$AA?$AA@| [ DATA ] ; `string'
	EXPORT	|??_C@_1CC@DDKPOHKD@?$AAP?$AAO?$AAW?$AAE?$AAR?$AAD?$AAO?$AAM?$AAA?$AAI?$AAN?$AA_?$AAN?$AAE?$AAO?$AAN?$AA?$AA@| [ DATA ] ; `string'
	EXPORT	|??_C@_1CA@HGMFFKMJ@?$AAP?$AAO?$AAW?$AAE?$AAR?$AAD?$AAO?$AAM?$AAA?$AAI?$AAN?$AA_?$AAD?$AAS?$AAS?$AA?$AA@| [ DATA ] ; `string'
	EXPORT	|??_C@_1CA@MKHFGMJA@?$AAP?$AAO?$AAW?$AAE?$AAR?$AAD?$AAO?$AAM?$AAA?$AAI?$AAN?$AA_?$AAM?$AAP?$AAU?$AA?$AA@| [ DATA ] ; `string'
	EXPORT	|??_C@_1CM@IICJPBKI@?$AAP?$AAO?$AAW?$AAE?$AAR?$AAD?$AAO?$AAM?$AAA?$AAI?$AAN?$AA_?$AAE?$AAM?$AAU?$AAL?$AAA?$AAT?$AAI?$AAO?$AAN?$AA?$AA@| [ DATA ] ; `string'
	EXPORT	|??_C@_1CI@LJKMALKI@?$AAP?$AAO?$AAW?$AAE?$AAR?$AAD?$AAO?$AAM?$AAA?$AAI?$AAN?$AA_?$AAU?$AAS?$AAB?$AAH?$AAO?$AAS?$AAT?$AA?$AA@| [ DATA ] ; `string'
	EXPORT	|??_C@_1CO@GHAPCMEA@?$AAP?$AAO?$AAW?$AAE?$AAR?$AAD?$AAO?$AAM?$AAA?$AAI?$AAN?$AA_?$AAP?$AAE?$AAR?$AAI?$AAP?$AAH?$AAE?$AAR?$AAA?$AAL?$AA?$AA@| [ DATA ] ; `string'
	EXPORT	|??_C@_1CC@DPNIOGJP@?$AAP?$AAO?$AAW?$AAE?$AAR?$AAD?$AAO?$AAM?$AAA?$AAI?$AAN?$AA_?$AAC?$AAO?$AAR?$AAE?$AA?$AA@| [ DATA ] ; `string'
	EXPORT	|??_C@_1CG@GNBBGDGH@?$AAP?$AAO?$AAW?$AAE?$AAR?$AAD?$AAO?$AAM?$AAA?$AAI?$AAN?$AA_?$AAW?$AAA?$AAK?$AAE?$AAU?$AAP?$AA?$AA@| [ DATA ] ; `string'
	EXPORT	|??_C@_1CI@CGCHDENN@?$AAO?$AAM?$AAA?$AAP?$AA_?$AAD?$AAE?$AAV?$AAI?$AAC?$AAE?$AA_?$AAG?$AAE?$AAN?$AAE?$AAR?$AAI?$AAC?$AA?$AA@| [ DATA ] ; `string'
	EXPORT	|??_C@_1CE@GFGBLIBN@?$AAO?$AAM?$AAA?$AAP?$AA_?$AAD?$AAE?$AAV?$AAI?$AAC?$AAE?$AA_?$AAU?$AAA?$AAR?$AAT?$AA4?$AA?$AA@| [ DATA ] ; `string'
	EXPORT	|??_C@_1CC@JFKAJPFG@?$AAO?$AAM?$AAA?$AAP?$AA_?$AAD?$AAE?$AAV?$AAI?$AAC?$AAE?$AA_?$AAV?$AAR?$AAF?$AAB?$AA?$AA@| [ DATA ] ; `string'
	EXPORT	|??_C@_1CK@PMNPNLDF@?$AAO?$AAM?$AAA?$AAP?$AA_?$AAD?$AAE?$AAV?$AAI?$AAC?$AAE?$AA_?$AAU?$AAS?$AAB?$AAH?$AAO?$AAS?$AAT?$AA3?$AA?$AA@| [ DATA ] ; `string'
	EXPORT	|??_C@_1CK@EEGDLMFA@?$AAO?$AAM?$AAA?$AAP?$AA_?$AAD?$AAE?$AAV?$AAI?$AAC?$AAE?$AA_?$AAU?$AAS?$AAB?$AAH?$AAO?$AAS?$AAT?$AA2?$AA?$AA@| [ DATA ] ; `string'
	EXPORT	|??_C@_1CK@FGNGBDLO@?$AAO?$AAM?$AAA?$AAP?$AA_?$AAD?$AAE?$AAV?$AAI?$AAC?$AAE?$AA_?$AAU?$AAS?$AAB?$AAH?$AAO?$AAS?$AAT?$AA1?$AA?$AA@| [ DATA ] ; `string'
	EXPORT	|??_C@_1CG@GEPNMBAB@?$AAO?$AAM?$AAA?$AAP?$AA_?$AAD?$AAE?$AAV?$AAI?$AAC?$AAE?$AA_?$AAH?$AAS?$AAU?$AAS?$AAB?$AA2?$AA?$AA@| [ DATA ] ; `string'
	EXPORT	|??_C@_1CG@HGEIGOOP@?$AAO?$AAM?$AAA?$AAP?$AA_?$AAD?$AAE?$AAV?$AAI?$AAC?$AAE?$AA_?$AAH?$AAS?$AAU?$AAS?$AAB?$AA1?$AA?$AA@| [ DATA ] ; `string'
	EXPORT	|??_C@_1CA@GGCFDGLE@?$AAO?$AAM?$AAA?$AAP?$AA_?$AAD?$AAE?$AAV?$AAI?$AAC?$AAE?$AA_?$AAS?$AAG?$AAX?$AA?$AA@| [ DATA ] ; `string'
	EXPORT	|??_C@_1BO@LMDKBCBP@?$AAO?$AAM?$AAA?$AAP?$AA_?$AAD?$AAE?$AAV?$AAI?$AAC?$AAE?$AA_?$AA3?$AAD?$AA?$AA@| [ DATA ] ; `string'
	EXPORT	|??_C@_1BO@HHGGMBLK@?$AAO?$AAM?$AAA?$AAP?$AA_?$AAD?$AAE?$AAV?$AAI?$AAC?$AAE?$AA_?$AA2?$AAD?$AA?$AA@| [ DATA ] ; `string'
	EXPORT	|??_C@_1CA@ENKIGGOE@?$AAO?$AAM?$AAA?$AAP?$AA_?$AAD?$AAE?$AAV?$AAI?$AAC?$AAE?$AA_?$AAD?$AAS?$AAP?$AA?$AA@| [ DATA ] ; `string'
	EXPORT	|??_C@_1CC@COEMHCN@?$AAO?$AAM?$AAA?$AAP?$AA_?$AAD?$AAE?$AAV?$AAI?$AAC?$AAE?$AA_?$AAC?$AAS?$AAI?$AA2?$AA?$AA@| [ DATA ] ; `string'
	EXPORT	|??_C@_1CG@DPBHHNNG@?$AAO?$AAM?$AAA?$AAP?$AA_?$AAD?$AAE?$AAV?$AAI?$AAC?$AAE?$AA_?$AAC?$AAA?$AAM?$AAE?$AAR?$AAA?$AA?$AA@| [ DATA ] ; `string'
	EXPORT	|??_C@_1CE@CMHCGOLP@?$AAO?$AAM?$AAA?$AAP?$AA_?$AAD?$AAE?$AAV?$AAI?$AAC?$AAE?$AA_?$AAT?$AAV?$AAO?$AAU?$AAT?$AA?$AA@| [ DATA ] ; `string'
	EXPORT	|??_C@_1CC@ECHFPNKJ@?$AAO?$AAM?$AAA?$AAP?$AA_?$AAD?$AAE?$AAV?$AAI?$AAC?$AAE?$AA_?$AAD?$AAS?$AAS?$AA2?$AA?$AA@| [ DATA ] ; `string'
	EXPORT	|??_C@_1CC@FAMAFCEH@?$AAO?$AAM?$AAA?$AAP?$AA_?$AAD?$AAE?$AAV?$AAI?$AAC?$AAE?$AA_?$AAD?$AAS?$AAS?$AA1?$AA?$AA@| [ DATA ] ; `string'
	EXPORT	|??_C@_1CA@FPBNMJAK@?$AAO?$AAM?$AAA?$AAP?$AA_?$AAD?$AAE?$AAV?$AAI?$AAC?$AAE?$AA_?$AAD?$AAS?$AAS?$AA?$AA@| [ DATA ] ; `string'
	EXPORT	|??_C@_1CC@FNCLKIKN@?$AAO?$AAM?$AAA?$AAP?$AA_?$AAD?$AAE?$AAV?$AAI?$AAC?$AAE?$AA_?$AAW?$AAD?$AAT?$AA3?$AA?$AA@| [ DATA ] ; `string'
	EXPORT	|??_C@_1CE@PILGIAKE@?$AAO?$AAM?$AAA?$AAP?$AA_?$AAD?$AAE?$AAV?$AAI?$AAC?$AAE?$AA_?$AAU?$AAA?$AAR?$AAT?$AA3?$AA?$AA@| [ DATA ] ; `string'
	EXPORT	|??_C@_1CK@PMHAIIAB@?$AAO?$AAM?$AAA?$AAP?$AA_?$AAD?$AAE?$AAV?$AAI?$AAC?$AAE?$AA_?$AAG?$AAP?$AAT?$AAI?$AAM?$AAE?$AAR?$AA9?$AA?$AA@| [ DATA ] ; `string'
	EXPORT	|??_C@_1CK@EEMMOPGE@?$AAO?$AAM?$AAA?$AAP?$AA_?$AAD?$AAE?$AAV?$AAI?$AAC?$AAE?$AA_?$AAG?$AAP?$AAT?$AAI?$AAM?$AAE?$AAR?$AA8?$AA?$AA@| [ DATA ] ; `string'
	EXPORT	|??_C@_1CK@BMKPPPDC@?$AAO?$AAM?$AAA?$AAP?$AA_?$AAD?$AAE?$AAV?$AAI?$AAC?$AAE?$AA_?$AAG?$AAP?$AAT?$AAI?$AAM?$AAE?$AAR?$AA7?$AA?$AA@| [ DATA ] ; `string'
	EXPORT	|??_C@_1CK@KEBDJIFH@?$AAO?$AAM?$AAA?$AAP?$AA_?$AAD?$AAE?$AAV?$AAI?$AAC?$AAE?$AA_?$AAG?$AAP?$AAT?$AAI?$AAM?$AAE?$AAR?$AA6?$AA?$AA@| [ DATA ] ; `string'
	EXPORT	|??_C@_1CK@LGKGDHLJ@?$AAO?$AAM?$AAA?$AAP?$AA_?$AAD?$AAE?$AAV?$AAI?$AAC?$AAE?$AA_?$AAG?$AAP?$AAT?$AAI?$AAM?$AAE?$AAR?$AA5?$AA?$AA@| [ DATA ] ; `string'
	EXPORT	|??_C@_1CK@OBKFANM@?$AAO?$AAM?$AAA?$AAP?$AA_?$AAD?$AAE?$AAV?$AAI?$AAC?$AAE?$AA_?$AAG?$AAP?$AAT?$AAI?$AAM?$AAE?$AAR?$AA4?$AA?$AA@| [ DATA ] ; `string'
	EXPORT	|??_C@_1CK@JDMNGIGF@?$AAO?$AAM?$AAA?$AAP?$AA_?$AAD?$AAE?$AAV?$AAI?$AAC?$AAE?$AA_?$AAG?$AAP?$AAT?$AAI?$AAM?$AAE?$AAR?$AA3?$AA?$AA@| [ DATA ] ; `string'
	EXPORT	|??_C@_1CK@CLHBAPAA@?$AAO?$AAM?$AAA?$AAP?$AA_?$AAD?$AAE?$AAV?$AAI?$AAC?$AAE?$AA_?$AAG?$AAP?$AAT?$AAI?$AAM?$AAE?$AAR?$AA2?$AA?$AA@| [ DATA ] ; `string'
	EXPORT	|??_C@_1CG@ECEBCEEN@?$AAO?$AAM?$AAA?$AAP?$AA_?$AAD?$AAE?$AAV?$AAI?$AAC?$AAE?$AA_?$AAM?$AAC?$AAB?$AAS?$AAP?$AA4?$AA?$AA@| [ DATA ] ; `string'
	EXPORT	|??_C@_1CG@NPJGBMPE@?$AAO?$AAM?$AAA?$AAP?$AA_?$AAD?$AAE?$AAV?$AAI?$AAC?$AAE?$AA_?$AAM?$AAC?$AAB?$AAS?$AAP?$AA3?$AA?$AA@| [ DATA ] ; `string'
	EXPORT	|??_C@_1CG@GHCKHLJB@?$AAO?$AAM?$AAA?$AAP?$AA_?$AAD?$AAE?$AAV?$AAI?$AAC?$AAE?$AA_?$AAM?$AAC?$AAB?$AAS?$AAP?$AA2?$AA?$AA@| [ DATA ] ; `string'
	EXPORT	|??_C@_1CE@KPOHDGAG@?$AAO?$AAM?$AAA?$AAP?$AA_?$AAD?$AAE?$AAV?$AAI?$AAC?$AAE?$AA_?$AAG?$AAP?$AAI?$AAO?$AA6?$AA?$AA@| [ DATA ] ; `string'
	EXPORT	|??_C@_1CE@LNFCJJOI@?$AAO?$AAM?$AAA?$AAP?$AA_?$AAD?$AAE?$AAV?$AAI?$AAC?$AAE?$AA_?$AAG?$AAP?$AAI?$AAO?$AA5?$AA?$AA@| [ DATA ] ; `string'
	EXPORT	|??_C@_1CE@FOOPOIN@?$AAO?$AAM?$AAA?$AAP?$AA_?$AAD?$AAE?$AAV?$AAI?$AAC?$AAE?$AA_?$AAG?$AAP?$AAI?$AAO?$AA4?$AA?$AA@| [ DATA ] ; `string'
	EXPORT	|??_C@_1CE@JIDJMGDE@?$AAO?$AAM?$AAA?$AAP?$AA_?$AAD?$AAE?$AAV?$AAI?$AAC?$AAE?$AA_?$AAG?$AAP?$AAI?$AAO?$AA3?$AA?$AA@| [ DATA ] ; `string'
	EXPORT	|??_C@_1CE@CAIFKBFB@?$AAO?$AAM?$AAA?$AAP?$AA_?$AAD?$AAE?$AAV?$AAI?$AAC?$AAE?$AA_?$AAG?$AAP?$AAI?$AAO?$AA2?$AA?$AA@| [ DATA ] ; `string'
	EXPORT	|??_C@_1CC@BLAIIGEI@?$AAO?$AAM?$AAA?$AAP?$AA_?$AAD?$AAE?$AAV?$AAI?$AAC?$AAE?$AA_?$AAU?$AAS?$AAI?$AAM?$AA?$AA@| [ DATA ] ; `string'
	EXPORT	|??_C@_1CA@GBKFLCPL@?$AAO?$AAM?$AAA?$AAP?$AA_?$AAD?$AAE?$AAV?$AAI?$AAC?$AAE?$AA_?$AAS?$AAR?$AA2?$AA?$AA@| [ DATA ] ; `string'
	EXPORT	|??_C@_1CA@HDBABNBF@?$AAO?$AAM?$AAA?$AAP?$AA_?$AAD?$AAE?$AAV?$AAI?$AAC?$AAE?$AA_?$AAS?$AAR?$AA1?$AA?$AA@| [ DATA ] ; `string'
	EXPORT	|??_C@_1CE@DCDAAOLP@?$AAO?$AAM?$AAA?$AAP?$AA_?$AAD?$AAE?$AAV?$AAI?$AAC?$AAE?$AA_?$AAG?$AAP?$AAI?$AAO?$AA1?$AA?$AA@| [ DATA ] ; `string'
	EXPORT	|??_C@_1CC@OFJHMPMI@?$AAO?$AAM?$AAA?$AAP?$AA_?$AAD?$AAE?$AAV?$AAI?$AAC?$AAE?$AA_?$AAW?$AAD?$AAT?$AA2?$AA?$AA@| [ DATA ] ; `string'
	EXPORT	|??_C@_1CC@PHCCGACG@?$AAO?$AAM?$AAA?$AAP?$AA_?$AAD?$AAE?$AAV?$AAI?$AAC?$AAE?$AA_?$AAW?$AAD?$AAT?$AA1?$AA?$AA@| [ DATA ] ; `string'
	EXPORT	|??_C@_1CI@FAKOHIJH@?$AAO?$AAM?$AAA?$AAP?$AA_?$AAD?$AAE?$AAV?$AAI?$AAC?$AAE?$AA_?$AA3?$AA2?$AAK?$AAS?$AAY?$AAN?$AAC?$AA?$AA@| [ DATA ] ; `string'
	EXPORT	|??_C@_1CM@EMAJHEGE@?$AAO?$AAM?$AAA?$AAP?$AA_?$AAD?$AAE?$AAV?$AAI?$AAC?$AAE?$AA_?$AAG?$AAP?$AAT?$AAI?$AAM?$AAE?$AAR?$AA1?$AA2?$AA?$AA@| [ DATA ] ; `string'
	EXPORT	|??_C@_1CK@DJMEKAOO@?$AAO?$AAM?$AAA?$AAP?$AA_?$AAD?$AAE?$AAV?$AAI?$AAC?$AAE?$AA_?$AAG?$AAP?$AAT?$AAI?$AAM?$AAE?$AAR?$AA1?$AA?$AA@| [ DATA ] ; `string'
	EXPORT	|??_C@_1CE@EPOGLAMA@?$AAO?$AAM?$AAA?$AAP?$AA_?$AAD?$AAE?$AAV?$AAI?$AAC?$AAE?$AA_?$AAE?$AAF?$AAU?$AAS?$AAE?$AA?$AA@| [ DATA ] ; `string'
	EXPORT	|??_C@_1BO@GEAFECNL@?$AAO?$AAM?$AAA?$AAP?$AA_?$AAD?$AAE?$AAV?$AAI?$AAC?$AAE?$AA_?$AAT?$AAS?$AA?$AA@| [ DATA ] ; `string'
	EXPORT	|??_C@_1CG@MLOIKIGB@?$AAO?$AAM?$AAA?$AAP?$AA_?$AAD?$AAE?$AAV?$AAI?$AAC?$AAE?$AA_?$AAU?$AAS?$AAB?$AAT?$AAL?$AAL?$AA?$AA@| [ DATA ] ; `string'
	EXPORT	|??_C@_1CA@LCHJOJDJ@?$AAO?$AAM?$AAA?$AAP?$AA_?$AAD?$AAE?$AAV?$AAI?$AAC?$AAE?$AA_?$AAP?$AAK?$AAA?$AA?$AA@| [ DATA ] ; `string'
	EXPORT	|??_C@_1CC@MDNKBKP@?$AAO?$AAM?$AAA?$AAP?$AA_?$AAD?$AAE?$AAV?$AAI?$AAC?$AAE?$AA_?$AAA?$AAE?$AAS?$AA1?$AA?$AA@| [ DATA ] ; `string'
	EXPORT	|??_C@_1CA@IFPKCACL@?$AAO?$AAM?$AAA?$AAP?$AA_?$AAD?$AAE?$AAV?$AAI?$AAC?$AAE?$AA_?$AAR?$AAN?$AAG?$AA?$AA@| [ DATA ] ; `string'
	EXPORT	|??_C@_1CE@OLJKGOCE@?$AAO?$AAM?$AAA?$AAP?$AA_?$AAD?$AAE?$AAV?$AAI?$AAC?$AAE?$AA_?$AAS?$AAH?$AAA?$AA1?$AA1?$AA?$AA@| [ DATA ] ; `string'
	EXPORT	|??_C@_1CC@OKBEGKOL@?$AAO?$AAM?$AAA?$AAP?$AA_?$AAD?$AAE?$AAV?$AAI?$AAC?$AAE?$AA_?$AAD?$AAE?$AAS?$AA1?$AA?$AA@| [ DATA ] ; `string'
	EXPORT	|??_C@_1CA@HPHCLJCF@?$AAO?$AAM?$AAA?$AAP?$AA_?$AAD?$AAE?$AAV?$AAI?$AAC?$AAE?$AA_?$AAI?$AAC?$AAR?$AA?$AA@| [ DATA ] ; `string'
	EXPORT	|??_C@_1CC@BOIIAOEB@?$AAO?$AAM?$AAA?$AAP?$AA_?$AAD?$AAE?$AAV?$AAI?$AAC?$AAE?$AA_?$AAA?$AAE?$AAS?$AA2?$AA?$AA@| [ DATA ] ; `string'
	EXPORT	|??_C@_1CE@PJCPMBMK@?$AAO?$AAM?$AAA?$AAP?$AA_?$AAD?$AAE?$AAV?$AAI?$AAC?$AAE?$AA_?$AAS?$AAH?$AAA?$AA1?$AA2?$AA?$AA@| [ DATA ] ; `string'
	EXPORT	|??_C@_1CC@PIKBMFAF@?$AAO?$AAM?$AAA?$AAP?$AA_?$AAD?$AAE?$AAV?$AAI?$AAC?$AAE?$AA_?$AAD?$AAE?$AAS?$AA2?$AA?$AA@| [ DATA ] ; `string'
	EXPORT	|??_C@_1CC@GMDLJAIE@?$AAO?$AAM?$AAA?$AAP?$AA_?$AAD?$AAE?$AAV?$AAI?$AAC?$AAE?$AA_?$AAM?$AAM?$AAC?$AA3?$AA?$AA@| [ DATA ] ; `string'
	EXPORT	|??_C@_1CC@NEIHPHOB@?$AAO?$AAM?$AAA?$AAP?$AA_?$AAD?$AAE?$AAV?$AAI?$AAC?$AAE?$AA_?$AAM?$AAM?$AAC?$AA2?$AA?$AA@| [ DATA ] ; `string'
	EXPORT	|??_C@_1CC@MGDCFIAP@?$AAO?$AAM?$AAA?$AAP?$AA_?$AAD?$AAE?$AAV?$AAI?$AAC?$AAE?$AA_?$AAM?$AAM?$AAC?$AA1?$AA?$AA@| [ DATA ] ; `string'
	EXPORT	|??_C@_1CE@GEGMLBDH@?$AAO?$AAM?$AAA?$AAP?$AA_?$AAD?$AAE?$AAV?$AAI?$AAC?$AAE?$AA_?$AAM?$AAS?$AAP?$AAR?$AAO?$AA?$AA@| [ DATA ] ; `string'
	EXPORT	|??_C@_1CA@LMGICGON@?$AAO?$AAM?$AAA?$AAP?$AA_?$AAD?$AAE?$AAV?$AAI?$AAC?$AAE?$AA_?$AAH?$AAD?$AAQ?$AA?$AA@| [ DATA ] ; `string'
	EXPORT	|??_C@_1CG@CAHLJKCL@?$AAO?$AAM?$AAA?$AAP?$AA_?$AAD?$AAE?$AAV?$AAI?$AAC?$AAE?$AA_?$AAM?$AAC?$AAS?$AAP?$AAI?$AA4?$AA?$AA@| [ DATA ] ; `string'
	EXPORT	|??_C@_1CG@LNKMKCJC@?$AAO?$AAM?$AAA?$AAP?$AA_?$AAD?$AAE?$AAV?$AAI?$AAC?$AAE?$AA_?$AAM?$AAC?$AAS?$AAP?$AAI?$AA3?$AA?$AA@| [ DATA ] ; `string'
	EXPORT	|??_C@_1CG@FBAMFPH@?$AAO?$AAM?$AAA?$AAP?$AA_?$AAD?$AAE?$AAV?$AAI?$AAC?$AAE?$AA_?$AAM?$AAC?$AAS?$AAP?$AAI?$AA2?$AA?$AA@| [ DATA ] ; `string'
	EXPORT	|??_C@_1CG@BHKFGKBJ@?$AAO?$AAM?$AAA?$AAP?$AA_?$AAD?$AAE?$AAV?$AAI?$AAC?$AAE?$AA_?$AAM?$AAC?$AAS?$AAP?$AAI?$AA1?$AA?$AA@| [ DATA ] ; `string'
	EXPORT	|??_C@_1CC@BAKALDMC@?$AAO?$AAM?$AAA?$AAP?$AA_?$AAD?$AAE?$AAV?$AAI?$AAC?$AAE?$AA_?$AAI?$AA2?$AAC?$AA3?$AA?$AA@| [ DATA ] ; `string'
	EXPORT	|??_C@_1CC@KIBMNEKH@?$AAO?$AAM?$AAA?$AAP?$AA_?$AAD?$AAE?$AAV?$AAI?$AAC?$AAE?$AA_?$AAI?$AA2?$AAC?$AA2?$AA?$AA@| [ DATA ] ; `string'
	EXPORT	|??_C@_1CC@LKKJHLEJ@?$AAO?$AAM?$AAA?$AAP?$AA_?$AAD?$AAE?$AAV?$AAI?$AAC?$AAE?$AA_?$AAI?$AA2?$AAC?$AA1?$AA?$AA@| [ DATA ] ; `string'
	EXPORT	|??_C@_1CE@EAAKOHMB@?$AAO?$AAM?$AAA?$AAP?$AA_?$AAD?$AAE?$AAV?$AAI?$AAC?$AAE?$AA_?$AAU?$AAA?$AAR?$AAT?$AA2?$AA?$AA@| [ DATA ] ; `string'
	EXPORT	|??_C@_1CE@FCLPEICP@?$AAO?$AAM?$AAA?$AAP?$AA_?$AAD?$AAE?$AAV?$AAI?$AAC?$AAE?$AA_?$AAU?$AAA?$AAR?$AAT?$AA1?$AA?$AA@| [ DATA ] ; `string'
	EXPORT	|??_C@_1CM@FOLMNLIK@?$AAO?$AAM?$AAA?$AAP?$AA_?$AAD?$AAE?$AAV?$AAI?$AAC?$AAE?$AA_?$AAG?$AAP?$AAT?$AAI?$AAM?$AAE?$AAR?$AA1?$AA1?$AA?$AA@| [ DATA ] ; `string'
	EXPORT	|??_C@_1CM@OGAALMOP@?$AAO?$AAM?$AAA?$AAP?$AA_?$AAD?$AAE?$AAV?$AAI?$AAC?$AAE?$AA_?$AAG?$AAP?$AAT?$AAI?$AAM?$AAE?$AAR?$AA1?$AA0?$AA?$AA@| [ DATA ] ; `string'
	EXPORT	|??_C@_1CG@PKPNEDCI@?$AAO?$AAM?$AAA?$AAP?$AA_?$AAD?$AAE?$AAV?$AAI?$AAC?$AAE?$AA_?$AAM?$AAC?$AAB?$AAS?$AAP?$AA5?$AA?$AA@| [ DATA ] ; `string'
	EXPORT	|??_C@_1CG@HFJPNEHP@?$AAO?$AAM?$AAA?$AAP?$AA_?$AAD?$AAE?$AAV?$AAI?$AAC?$AAE?$AA_?$AAM?$AAC?$AAB?$AAS?$AAP?$AA1?$AA?$AA@| [ DATA ] ; `string'
	EXPORT	|??_C@_1CM@FGHMOAMI@?$AAO?$AAM?$AAA?$AAP?$AA_?$AAD?$AAE?$AAV?$AAI?$AAC?$AAE?$AA_?$AAM?$AAA?$AAI?$AAL?$AAB?$AAO?$AAX?$AAE?$AAS?$AA?$AA@| [ DATA ] ; `string'
	EXPORT	|??_C@_1CK@IFNFIOAO@?$AAO?$AAM?$AAA?$AAP?$AA_?$AAD?$AAE?$AAV?$AAI?$AAC?$AAE?$AA_?$AAO?$AAM?$AAA?$AAP?$AAC?$AAT?$AAR?$AAL?$AA?$AA@| [ DATA ] ; `string'
	EXPORT	|??_C@_1CK@IEABCGNC@?$AAO?$AAM?$AAA?$AAP?$AA_?$AAD?$AAE?$AAV?$AAI?$AAC?$AAE?$AA_?$AAH?$AAS?$AAO?$AAT?$AAG?$AAU?$AAS?$AAB?$AA?$AA@| [ DATA ] ; `string'
	EXPORT	|??_C@_1CA@FBHLHKND@?$AAO?$AAM?$AAA?$AAP?$AA_?$AAD?$AAE?$AAV?$AAI?$AAC?$AAE?$AA_?$AAD?$AA2?$AAD?$AA?$AA@| [ DATA ] ; `string'
	EXPORT	|??_C@_1CC@OJKGELFG@?$AAO?$AAM?$AAA?$AAP?$AA_?$AAD?$AAE?$AAV?$AAI?$AAC?$AAE?$AA_?$AAS?$AAD?$AAR?$AAC?$AA?$AA@| [ DATA ] ; `string'
	EXPORT	|??_C@_1CI@JGKNPEFC@?$AAO?$AAM?$AAA?$AAP?$AA_?$AAD?$AAE?$AAV?$AAI?$AAC?$AAE?$AA_?$AAS?$AAS?$AAI?$AA?5?$AA?$DN?$AA?5?$AA0?$AA?$AA@| [ DATA ] ; `string'
	EXPORT	|??_C@_1BI@MMHHFKED@?$AAk?$AAG?$AAP?$AAT?$AA1?$AA1?$AA_?$AAF?$AAC?$AAL?$AAK?$AA?$AA@| [ DATA ] ; `string'
	EXPORT	|??_C@_1BI@FBHILLDF@?$AAk?$AAG?$AAP?$AAT?$AA1?$AA0?$AA_?$AAF?$AAC?$AAL?$AAK?$AA?$AA@| [ DATA ] ; `string'
	EXPORT	|??_C@_1CC@CDCMPIGB@?$AAk?$AAG?$AAP?$AAT?$AA9?$AA_?$AAA?$AAL?$AAW?$AAO?$AAN?$AA_?$AAF?$AAC?$AAL?$AAK?$AA?$AA@| [ DATA ] ; `string'
	EXPORT	|??_C@_1CC@MEDBFOPG@?$AAk?$AAG?$AAP?$AAT?$AA8?$AA_?$AAA?$AAL?$AAW?$AAO?$AAN?$AA_?$AAF?$AAC?$AAL?$AAK?$AA?$AA@| [ DATA ] ; `string'
	EXPORT	|??_C@_1CC@EJNLAIGM@?$AAk?$AAG?$AAP?$AAT?$AA7?$AA_?$AAA?$AAL?$AAW?$AAO?$AAN?$AA_?$AAF?$AAC?$AAL?$AAK?$AA?$AA@| [ DATA ] ; `string'
	EXPORT	|??_C@_1CC@KOMGKOPL@?$AAk?$AAG?$AAP?$AAT?$AA6?$AA_?$AAA?$AAL?$AAW?$AAO?$AAN?$AA_?$AAF?$AAC?$AAL?$AAK?$AA?$AA@| [ DATA ] ; `string'
	EXPORT	|??_C@_1CC@FMJBEDAD@?$AAk?$AAG?$AAP?$AAT?$AA5?$AA_?$AAA?$AAL?$AAW?$AAO?$AAN?$AA_?$AAF?$AAC?$AAL?$AAK?$AA?$AA@| [ DATA ] ; `string'
	EXPORT	|??_C@_1CC@LLIMOFJE@?$AAk?$AAG?$AAP?$AAT?$AA4?$AA_?$AAA?$AAL?$AAW?$AAO?$AAN?$AA_?$AAF?$AAC?$AAL?$AAK?$AA?$AA@| [ DATA ] ; `string'
	EXPORT	|??_C@_1CC@GDEPJOLC@?$AAk?$AAG?$AAP?$AAT?$AA3?$AA_?$AAA?$AAL?$AAW?$AAO?$AAN?$AA_?$AAF?$AAC?$AAL?$AAK?$AA?$AA@| [ DATA ] ; `string'
	EXPORT	|??_C@_1CC@IEFCDICF@?$AAk?$AAG?$AAP?$AAT?$AA2?$AA_?$AAA?$AAL?$AAW?$AAO?$AAN?$AA_?$AAF?$AAC?$AAL?$AAK?$AA?$AA@| [ DATA ] ; `string'
	EXPORT	|??_C@_1BG@LBMJBNDI@?$AAk?$AAG?$AAP?$AAT?$AA1?$AA_?$AAF?$AAC?$AAL?$AAK?$AA?$AA@| [ DATA ] ; `string'
	EXPORT	|??_C@_1BE@BKPHEHJG@?$AAk?$AAS?$AAG?$AAX?$AA_?$AAF?$AAC?$AAL?$AAK?$AA?$AA@| [ DATA ] ; `string'
	EXPORT	|??_C@_1BE@OHPPGGKJ@?$AAk?$AA5?$AA4?$AAM?$AA_?$AAF?$AAC?$AAL?$AAK?$AA?$AA@| [ DATA ] ; `string'
	EXPORT	|??_C@_1BE@KPIPADIA@?$AAk?$AA4?$AA8?$AAM?$AA_?$AAF?$AAC?$AAL?$AAK?$AA?$AA@| [ DATA ] ; `string'
	EXPORT	|??_C@_1BE@HMKGDKMA@?$AAk?$AA9?$AA6?$AAM?$AA_?$AAF?$AAC?$AAL?$AAK?$AA?$AA@| [ DATA ] ; `string'
	EXPORT	|??_C@_1BG@FOLAEDFM@?$AAk?$AAU?$AAS?$AAI?$AAM?$AA_?$AAF?$AAC?$AAL?$AAK?$AA?$AA@| [ DATA ] ; `string'
	EXPORT	|??_C@_1BK@FIGBAONF@?$AAk?$AAC?$AAM?$AA_?$AAU?$AAS?$AAI?$AAM?$AA_?$AAC?$AAL?$AAK?$AA?$AA@| [ DATA ] ; `string'
	EXPORT	|??_C@_1CG@INMPAIAN@?$AAk?$AAU?$AAS?$AAB?$AAH?$AAO?$AAS?$AAT?$AA_?$AA1?$AA2?$AA0?$AAM?$AA_?$AAF?$AAC?$AAL?$AAK?$AA?$AA@| [ DATA ] ; `string'
	EXPORT	|??_C@_1BK@DMMIFOKJ@?$AAk?$AAD?$AAS?$AAS?$AA_?$AAT?$AAV?$AA_?$AAF?$AAC?$AAL?$AAK?$AA?$AA@| [ DATA ] ; `string'
	EXPORT	|??_C@_1BO@KGNEDEAO@?$AAk?$AAC?$AAO?$AAR?$AAE?$AA_?$AA1?$AA2?$AAM?$AA_?$AAF?$AAC?$AAL?$AAK?$AA?$AA@| [ DATA ] ; `string'
	EXPORT	|??_C@_1BE@LPMGNIEL@?$AAk?$AA1?$AA2?$AAM?$AA_?$AAF?$AAC?$AAL?$AAK?$AA?$AA@| [ DATA ] ; `string'
	EXPORT	|??_C@_1BM@CNNCGJCM@?$AAk?$AAP?$AAE?$AAR?$AA_?$AA4?$AA8?$AAM?$AA_?$AAF?$AAC?$AAL?$AAK?$AA?$AA@| [ DATA ] ; `string'
	EXPORT	|??_C@_1CE@JDPIHICJ@?$AAk?$AAU?$AAS?$AAB?$AAH?$AAO?$AAS?$AAT?$AA_?$AA4?$AA8?$AAM?$AA_?$AAF?$AAC?$AAL?$AAK?$AA?$AA@| [ DATA ] ; `string'
	EXPORT	|??_C@_1BO@LGJNOPMF@?$AAk?$AAC?$AAO?$AAR?$AAE?$AA_?$AA4?$AA8?$AAM?$AA_?$AAF?$AAC?$AAL?$AAK?$AA?$AA@| [ DATA ] ; `string'
	EXPORT	|??_C@_1BO@MLNMBJDB@?$AAk?$AAC?$AAS?$AAI?$AA2?$AA_?$AA9?$AA6?$AAM?$AA_?$AAF?$AAC?$AAL?$AAK?$AA?$AA@| [ DATA ] ; `string'
	EXPORT	|??_C@_1BM@KGEDNEGH@?$AAk?$AAD?$AAS?$AAS?$AA_?$AA9?$AA6?$AAM?$AA_?$AAF?$AAC?$AAL?$AAK?$AA?$AA@| [ DATA ] ; `string'
	EXPORT	|??_C@_1BO@GFLENGIF@?$AAk?$AAC?$AAO?$AAR?$AAE?$AA_?$AA9?$AA6?$AAM?$AA_?$AAF?$AAC?$AAL?$AAK?$AA?$AA@| [ DATA ] ; `string'
	EXPORT	|??_C@_1BM@JEIEMPJK@?$AAk?$AAS?$AAS?$AAI?$AA_?$AAS?$AAS?$AAT?$AA_?$AAF?$AAC?$AAL?$AAK?$AA?$AA@| [ DATA ] ; `string'
	EXPORT	|??_C@_1BM@GMEGIECM@?$AAk?$AAS?$AAS?$AAI?$AA_?$AAS?$AAS?$AAR?$AA_?$AAF?$AAC?$AAL?$AAK?$AA?$AA@| [ DATA ] ; `string'
	EXPORT	|??_C@_1BI@KNLMECEA@?$AAk?$AAS?$AAR?$AA_?$AAL?$AA4?$AA_?$AAI?$AAC?$AAL?$AAK?$AA?$AA@| [ DATA ] ; `string'
	EXPORT	|??_C@_1BK@JNEICFJE@?$AAk?$AAP?$AAE?$AAR?$AA_?$AAL?$AA4?$AA_?$AAI?$AAC?$AAL?$AAK?$AA?$AA@| [ DATA ] ; `string'
	EXPORT	|??_C@_1CC@CIKJOCKA@?$AAk?$AAU?$AAS?$AAB?$AAH?$AAO?$AAS?$AAT?$AA_?$AAL?$AA4?$AA_?$AAI?$AAC?$AAL?$AAK?$AA?$AA@| [ DATA ] ; `string'
	EXPORT	|??_C@_1CC@ENGEEIGA@?$AAk?$AAU?$AAS?$AAB?$AAH?$AAO?$AAS?$AAT?$AA_?$AAL?$AA3?$AA_?$AAI?$AAC?$AAL?$AAK?$AA?$AA@| [ DATA ] ; `string'
	EXPORT	|??_C@_1BK@HKMFLLIF@?$AAk?$AAC?$AAA?$AAM?$AA_?$AAL?$AA4?$AA_?$AAI?$AAC?$AAL?$AAK?$AA?$AA@| [ DATA ] ; `string'
	EXPORT	|??_C@_1BK@BPAIBBEF@?$AAk?$AAC?$AAA?$AAM?$AA_?$AAL?$AA3?$AA_?$AAI?$AAC?$AAL?$AAK?$AA?$AA@| [ DATA ] ; `string'
	EXPORT	|??_C@_1BK@DFEEOPHB@?$AAk?$AAD?$AAS?$AAS?$AA_?$AAL?$AA4?$AA_?$AAI?$AAC?$AAL?$AAK?$AA?$AA@| [ DATA ] ; `string'
	EXPORT	|??_C@_1BK@FAIJEFLB@?$AAk?$AAD?$AAS?$AAS?$AA_?$AAL?$AA3?$AA_?$AAI?$AAC?$AAL?$AAK?$AA?$AA@| [ DATA ] ; `string'
	EXPORT	|??_C@_1BK@MMOEKMCA@?$AAk?$AAS?$AAS?$AAI?$AA_?$AAL?$AA4?$AA_?$AAI?$AAC?$AAL?$AAK?$AA?$AA@| [ DATA ] ; `string'
	EXPORT	|??_C@_1BK@NJNOEPMC@?$AAk?$AAS?$AAG?$AAX?$AA_?$AAL?$AA3?$AA_?$AAI?$AAC?$AAL?$AAK?$AA?$AA@| [ DATA ] ; `string'
	EXPORT	|??_C@_1CG@CFAPNILK@?$AAk?$AAS?$AAE?$AAC?$AAU?$AAR?$AAI?$AAT?$AAY?$AA_?$AAL?$AA4?$AA_?$AAI?$AAC?$AAL?$AAK?$AA2?$AA?$AA@| [ DATA ] ; `string'
	EXPORT	|??_C@_1CG@DHLKHHFE@?$AAk?$AAS?$AAE?$AAC?$AAU?$AAR?$AAI?$AAT?$AAY?$AA_?$AAL?$AA4?$AA_?$AAI?$AAC?$AAL?$AAK?$AA1?$AA?$AA@| [ DATA ] ; `string'
	EXPORT	|??_C@_1CE@DCCJJJCO@?$AAk?$AAS?$AAE?$AAC?$AAU?$AAR?$AAI?$AAT?$AAY?$AA_?$AAL?$AA3?$AA_?$AAI?$AAC?$AAL?$AAK?$AA?$AA@| [ DATA ] ; `string'
	EXPORT	|??_C@_1BM@GNELHHCO@?$AAk?$AAC?$AAO?$AAR?$AAE?$AA_?$AAL?$AA4?$AA_?$AAI?$AAC?$AAL?$AAK?$AA?$AA@| [ DATA ] ; `string'
	EXPORT	|??_C@_1BM@IIGNNOO@?$AAk?$AAC?$AAO?$AAR?$AAE?$AA_?$AAL?$AA3?$AA_?$AAI?$AAC?$AAL?$AAK?$AA?$AA@| [ DATA ] ; `string'
	EXPORT	|??_C@_1BI@GGLANBIM@?$AAk?$AAD?$AAP?$AAL?$AAL?$AA2?$AA_?$AAF?$AAC?$AAL?$AAK?$AA?$AA@| [ DATA ] ; `string'
	EXPORT	|??_C@_1BI@BKNBPEFH@?$AAk?$AAD?$AAP?$AAL?$AAL?$AA1?$AA_?$AAF?$AAC?$AAL?$AAK?$AA?$AA@| [ DATA ] ; `string'
	EXPORT	|??_C@_1BC@IEJPNIBD@?$AAk?$AAR?$AAM?$AA_?$AAI?$AAC?$AAL?$AAK?$AA?$AA@| [ DATA ] ; `string'
	EXPORT	|??_C@_1BK@EOKLGFAI@?$AAk?$AAU?$AAS?$AAB?$AA_?$AAL?$AA4?$AA_?$AAI?$AAC?$AAL?$AAK?$AA?$AA@| [ DATA ] ; `string'
	EXPORT	|??_C@_1BC@GADFMCD@?$AAk?$AAL?$AA4?$AA_?$AAI?$AAC?$AAL?$AAK?$AA?$AA@| [ DATA ] ; `string'
	EXPORT	|??_C@_1BC@GDMOPGOD@?$AAk?$AAL?$AA3?$AA_?$AAI?$AAC?$AAL?$AAK?$AA?$AA@| [ DATA ] ; `string'
	EXPORT	|??_C@_1CA@PCEHGMIB@?$AAk?$AA9?$AA6?$AAM?$AA_?$AAA?$AAL?$AAW?$AAO?$AAN?$AA_?$AAF?$AAC?$AAL?$AAK?$AA?$AA@| [ DATA ] ; `string'
	EXPORT	|??_C@_1BK@MCHPLJEE@?$AAk?$AAC?$AAM?$AA_?$AA9?$AA6?$AAM?$AA_?$AAF?$AAC?$AAL?$AAK?$AA?$AA@| [ DATA ] ; `string'
	EXPORT	|??_C@_1CA@BBGPJHGP@?$AAk?$AAC?$AAO?$AAR?$AAE?$AA_?$AA1?$AA2?$AA0?$AAM?$AA_?$AAF?$AAC?$AAL?$AAK?$AA?$AA@| [ DATA ] ; `string'
	EXPORT	|??_C@_1CI@EADHIPEB@?$AAk?$AAP?$AAE?$AAR?$AA_?$AA3?$AA2?$AAK?$AA_?$AAA?$AAL?$AAW?$AAO?$AAN?$AA_?$AAF?$AAC?$AAL?$AAK?$AA?$AA@| [ DATA ] ; `string'
	EXPORT	|??_C@_1BO@LPLICNLH@?$AAk?$AAW?$AAK?$AAU?$AAP?$AA_?$AA3?$AA2?$AAK?$AA_?$AAF?$AAC?$AAL?$AAK?$AA?$AA@| [ DATA ] ; `string'
	EXPORT	|??_C@_1BO@FLMCBEDL@?$AAk?$AAC?$AAO?$AAR?$AAE?$AA_?$AA3?$AA2?$AAK?$AA_?$AAF?$AAC?$AAL?$AAK?$AA?$AA@| [ DATA ] ; `string'
	EXPORT	|??_C@_1BI@BEPCGLLM@?$AAk?$AAC?$AAM?$AA_?$AA3?$AA2?$AAK?$AA_?$AAC?$AAL?$AAK?$AA?$AA@| [ DATA ] ; `string'
	EXPORT	|??_C@_1BM@CKBOGBKN@?$AAk?$AAW?$AAK?$AAU?$AAP?$AA_?$AAL?$AA4?$AA_?$AAI?$AAC?$AAL?$AAK?$AA?$AA@| [ DATA ] ; `string'
	EXPORT	|??_C@_1CC@NOFOGNB@?$AAk?$AAD?$AAS?$AAS?$AA2?$AA_?$AAA?$AAL?$AAW?$AAO?$AAN?$AA_?$AAF?$AAC?$AAL?$AAK?$AA?$AA@| [ DATA ] ; `string'
	EXPORT	|??_C@_1BI@OEECMJPN@?$AAk?$AAC?$AAM?$AA_?$AAS?$AAY?$AAS?$AA_?$AAC?$AAL?$AAK?$AA?$AA@| [ DATA ] ; `string'
	EXPORT	|??_C@_1CE@IKHPAHF@?$AAk?$AAD?$AAP?$AAL?$AAL?$AA5?$AA_?$AAA?$AAL?$AAW?$AAO?$AAN?$AA_?$AAF?$AAC?$AAL?$AAK?$AA?$AA@| [ DATA ] ; `string'
	EXPORT	|??_C@_1CE@OPLKFGOC@?$AAk?$AAD?$AAP?$AAL?$AAL?$AA4?$AA_?$AAA?$AAL?$AAW?$AAO?$AAN?$AA_?$AAF?$AAC?$AAL?$AAK?$AA?$AA@| [ DATA ] ; `string'
	EXPORT	|??_C@_1CE@DHHJCNME@?$AAk?$AAD?$AAP?$AAL?$AAL?$AA3?$AA_?$AAA?$AAL?$AAW?$AAO?$AAN?$AA_?$AAF?$AAC?$AAL?$AAK?$AA?$AA@| [ DATA ] ; `string'
	EXPORT	|??_C@_1CE@NAGEILFD@?$AAk?$AAD?$AAP?$AAL?$AAL?$AA2?$AA_?$AAA?$AAL?$AAW?$AAO?$AAN?$AA_?$AAF?$AAC?$AAL?$AAK?$AA?$AA@| [ DATA ] ; `string'
	EXPORT	|??_C@_1CE@CCDDGGKL@?$AAk?$AAD?$AAP?$AAL?$AAL?$AA1?$AA_?$AAA?$AAL?$AAW?$AAO?$AAN?$AA_?$AAF?$AAC?$AAL?$AAK?$AA?$AA@| [ DATA ] ; `string'
	EXPORT	|??_C@_1BO@OFGDLBDE@?$AAk?$AAS?$AAR?$AA_?$AAA?$AAL?$AAW?$AAO?$AAN?$AA_?$AAF?$AAC?$AAL?$AAK?$AA?$AA@| [ DATA ] ; `string'
	EXPORT	|??_C@_1CE@PPGNFPBP@?$AAk?$AAE?$AAF?$AAU?$AAS?$AAE?$AA_?$AAA?$AAL?$AAW?$AAO?$AAN?$AA_?$AAF?$AAC?$AAL?$AAK?$AA?$AA@| [ DATA ] ; `string'
	EXPORT	|??_C@_1CE@KHCGIPEA@?$AAk?$AAU?$AAS?$AAB?$AAH?$AAO?$AAS?$AAT?$AA_?$AAS?$AAA?$AAR?$AA_?$AAF?$AAC?$AAL?$AAK?$AA?$AA@| [ DATA ] ; `string'
	EXPORT	|??_C@_1CC@HCOAMGKK@?$AAk?$AAU?$AAS?$AAB?$AAT?$AAL?$AAL?$AA_?$AAS?$AAA?$AAR?$AA_?$AAF?$AAC?$AAL?$AAK?$AA?$AA@| [ DATA ] ; `string'
	EXPORT	|??_C@_1BI@CMEGODCK@?$AAk?$AAM?$AAC?$AAB?$AAS?$AAP?$AA_?$AAC?$AAL?$AAK?$AAS?$AA?$AA@| [ DATA ] ; `string'
	EXPORT	|??_C@_1CC@EOBIKDKJ@?$AAk?$AAS?$AAE?$AAC?$AAU?$AAR?$AAE?$AA_?$AA3?$AA2?$AAK?$AA_?$AAF?$AAC?$AAL?$AAK?$AA?$AA@| [ DATA ] ; `string'
	EXPORT	|??_C@_1BI@ILMCMCCC@?$AAk?$AAS?$AAY?$AAS?$AA_?$AAA?$AAL?$AAT?$AAC?$AAL?$AAK?$AA?$AA@| [ DATA ] ; `string'
	EXPORT	|??_C@_1BC@HKFDEGNL@?$AAk?$AAS?$AAY?$AAS?$AA_?$AAC?$AAL?$AAK?$AA?$AA@| [ DATA ] ; `string'
	EXPORT	|??_C@_1BE@ECNAPIHO@?$AAk?$AA3?$AA2?$AAK?$AA_?$AAF?$AAC?$AAL?$AAK?$AA?$AA@| [ DATA ] ; `string'
	EXPORT	|??_C@_1BG@DFNNJLGO@?$AAk?$AA1?$AA2?$AA0?$AAM?$AA_?$AAF?$AAC?$AAL?$AAK?$AA?$AA@| [ DATA ] ; `string'
	EXPORT	|??_C@_1CK@BAAFIMCG@?$AAk?$AAE?$AAM?$AAU?$AAL?$AA_?$AAP?$AAE?$AAR?$AA_?$AAA?$AAL?$AAW?$AAO?$AAN?$AA_?$AAC?$AAL?$AAK?$AA?5?$AA?$AA@| [ DATA ] ; `string'
	EXPORT	|??_C@_1BE@HNDENLJM@?$AAk?$AAC?$AAA?$AAM?$AA_?$AAM?$AAC?$AAL?$AAK?$AA?$AA@| [ DATA ] ; `string'
	EXPORT	|??_C@_1CC@PPLCALCJ@?$AAk?$AAD?$AAS?$AAS?$AA1?$AA_?$AAA?$AAL?$AAW?$AAO?$AAN?$AA_?$AAF?$AAC?$AAL?$AAK?$AA?$AA@| [ DATA ] ; `string'
	EXPORT	|??_C@_1CA@EIKHJGPJ@?$AAk?$AAD?$AAP?$AAL?$AAL?$AA4?$AA_?$AAM?$AA3?$AAX?$AA2?$AA_?$AAC?$AAL?$AAK?$AA?$AA@| [ DATA ] ; `string'
	EXPORT	|??_C@_1CG@DJDPLNE@?$AAk?$AAP?$AAR?$AAM?$AA_?$AA9?$AA6?$AAM?$AA_?$AAA?$AAL?$AAW?$AAO?$AAN?$AA_?$AAC?$AAL?$AAK?$AA?$AA@| [ DATA ] ; `string'
	EXPORT	|??_C@_1CK@NDKHMFDM@?$AAk?$AAE?$AAM?$AAU?$AAL?$AA_?$AAC?$AAO?$AAR?$AAE?$AA_?$AAA?$AAL?$AAW?$AAO?$AAN?$AA_?$AAC?$AAL?$AAK?$AA?$AA@| [ DATA ] ; `string'
	EXPORT	|??_C@_1BK@CKNHOHLE@?$AAk?$AAC?$AAO?$AAR?$AAE?$AAX?$AA2?$AA_?$AAF?$AAC?$AAL?$AAK?$AA?$AA@| [ DATA ] ; `string'
	EXPORT	|??_C@_1BE@KIOEPBOF@?$AAk?$AAC?$AAO?$AAR?$AAE?$AA_?$AAC?$AAL?$AAK?$AA?$AA@| [ DATA ] ; `string'
	EXPORT	|??_C@_1BM@LAPEPOFC@?$AAk?$AAD?$AAP?$AAL?$AAL?$AA2?$AA_?$AAM?$AA2?$AA_?$AAC?$AAL?$AAK?$AA?$AA@| [ DATA ] ; `string'
	EXPORT	|??_C@_1CA@KNEGPAKI@?$AAk?$AAD?$AAP?$AAL?$AAL?$AA1?$AA_?$AAM?$AA2?$AAX?$AA2?$AA_?$AAC?$AAL?$AAK?$AA?$AA@| [ DATA ] ; `string'
	EXPORT	|??_C@_1BC@HPLLDAKE@?$AAk?$AAI?$AAN?$AAT?$AA_?$AAO?$AAS?$AAC?$AA?$AA@| [ DATA ] ; `string'
	EXPORT	|??_C@_1BE@CGAEBABM@?$AAk?$AAE?$AAX?$AAT?$AA_?$AAM?$AAI?$AAS?$AAC?$AA?$AA@| [ DATA ] ; `string'
	EXPORT	|??_C@_1BC@GMCNFJOM@?$AAk?$AAE?$AAX?$AAT?$AA_?$AAA?$AAL?$AAT?$AA?$AA@| [ DATA ] ; `string'
	EXPORT	|??_C@_1BK@KJEOLNHN@?$AAk?$AAE?$AAX?$AAT?$AA_?$AAS?$AAY?$AAS?$AA_?$AAC?$AAL?$AAK?$AA?$AA@| [ DATA ] ; `string'
	EXPORT	|??_C@_1CC@LIKIOEDP@?$AAk?$AAD?$AAP?$AAL?$AAL?$AA5?$AA_?$AAC?$AAL?$AAK?$AAO?$AAU?$AAT?$AA_?$AAM?$AA2?$AA?$AA@| [ DATA ] ; `string'
	EXPORT	|??_C@_1CG@JKMHNEID@?$AAk?$AAD?$AAP?$AAL?$AAL?$AA4?$AA_?$AAC?$AAL?$AAK?$AAO?$AAU?$AAT?$AA_?$AAM?$AA6?$AAX?$AA2?$AA?$AA@| [ DATA ] ; `string'
	EXPORT	|??_C@_1CG@BEEINDGA@?$AAk?$AAD?$AAP?$AAL?$AAL?$AA4?$AA_?$AAC?$AAL?$AAK?$AAO?$AAU?$AAT?$AA_?$AAM?$AA5?$AAX?$AA2?$AA?$AA@| [ DATA ] ; `string'
	EXPORT	|??_C@_1CG@NIOCNDPO@?$AAk?$AAD?$AAP?$AAL?$AAL?$AA4?$AA_?$AAC?$AAL?$AAK?$AAO?$AAU?$AAT?$AA_?$AAM?$AA4?$AAX?$AA2?$AA?$AA@| [ DATA ] ; `string'
	EXPORT	|??_C@_1CG@NCCHNKOH@?$AAk?$AAD?$AAP?$AAL?$AAL?$AA4?$AA_?$AAC?$AAL?$AAK?$AAO?$AAU?$AAT?$AA_?$AAM?$AA3?$AAX?$AA2?$AA?$AA@| [ DATA ] ; `string'
	EXPORT	|??_C@_1CG@BOINNKHJ@?$AAk?$AAD?$AAP?$AAL?$AAL?$AA4?$AA_?$AAC?$AAL?$AAK?$AAO?$AAU?$AAT?$AA_?$AAM?$AA2?$AAX?$AA2?$AA?$AA@| [ DATA ] ; `string'
	EXPORT	|??_C@_1CG@NGCOCJLE@?$AAk?$AAD?$AAP?$AAL?$AAL?$AA3?$AA_?$AAC?$AAL?$AAK?$AAO?$AAU?$AAT?$AA_?$AAM?$AA3?$AAX?$AA2?$AA?$AA@| [ DATA ] ; `string'
	EXPORT	|??_C@_1CG@BKIECJCK@?$AAk?$AAD?$AAP?$AAL?$AAL?$AA3?$AA_?$AAC?$AAL?$AAK?$AAO?$AAU?$AAT?$AA_?$AAM?$AA2?$AAX?$AA2?$AA?$AA@| [ DATA ] ; `string'
	EXPORT	|??_C@_1CC@IJFLGGP@?$AAk?$AAD?$AAP?$AAL?$AAL?$AA3?$AA_?$AAC?$AAL?$AAK?$AAO?$AAU?$AAT?$AA_?$AAM?$AA2?$AA?$AA@| [ DATA ] ; `string'
	EXPORT	|??_C@_1CC@IJLANDEI@?$AAk?$AAD?$AAP?$AAL?$AAL?$AA2?$AA_?$AAC?$AAL?$AAK?$AAO?$AAU?$AAT?$AA_?$AAM?$AA2?$AA?$AA@| [ DATA ] ; `string'
	EXPORT	|??_C@_1CG@BJOPNDBA@?$AAk?$AAD?$AAP?$AAL?$AAL?$AA1?$AA_?$AAC?$AAL?$AAK?$AAO?$AAU?$AAT?$AA_?$AAM?$AA2?$AAX?$AA2?$AA?$AA@| [ DATA ] ; `string'
	EXPORT	|??_C@_1BG@FJDLHCCD@?$AAk?$AAE?$AAX?$AAT?$AA_?$AA3?$AA2?$AAK?$AAH?$AAZ?$AA?$AA@| [ DATA ] ; `string'
	EXPORT	|??_C@_1BE@EHNFPPJL@?$AAk?$AAD?$AAP?$AAL?$AAL?$AA_?$AAE?$AAX?$AAT?$AA?$AA@| [ DATA ] ; `string'
	EXPORT	|??_C@_1O@KGINCNBN@?$AAk?$AAD?$AAP?$AAL?$AAL?$AA5?$AA?$AA@| [ DATA ] ; `string'
	EXPORT	|??_C@_1O@BODBEKHI@?$AAk?$AAD?$AAP?$AAL?$AAL?$AA4?$AA?$AA@| [ DATA ] ; `string'
	EXPORT	|??_C@_1O@IDOGHCMB@?$AAk?$AAD?$AAP?$AAL?$AAL?$AA3?$AA?$AA@| [ DATA ] ; `string'
	EXPORT	|??_C@_1O@DLFKBFKE@?$AAk?$AAD?$AAP?$AAL?$AAL?$AA2?$AA?$AA@| [ DATA ] ; `string'
	EXPORT	|??_C@_1O@CJOPLKEK@?$AAk?$AAD?$AAP?$AAL?$AAL?$AA1?$AA?$AA@| [ DATA ] ; `string'
	EXPORT	|??_C@_1BE@KENFMBEG@?$AAk?$AAM?$AAM?$AAC?$AA_?$AAV?$AAD?$AAD?$AAS?$AA?$AA@| [ DATA ] ; `string'
	EXPORT	|??_C@_1BC@ODEKFAPK@?$AAk?$AAV?$AAD?$AAD?$AAA?$AAD?$AAA?$AAC?$AA?$AA@| [ DATA ] ; `string'
	EXPORT	|??_C@_1BA@PHFNGHLK@?$AAk?$AAV?$AAD?$AAD?$AAP?$AAL?$AAL?$AA?$AA@| [ DATA ] ; `string'
	EXPORT	|??_C@_1M@IJEGCDLI@?$AAk?$AAV?$AAD?$AAD?$AAS?$AA?$AA@| [ DATA ] ; `string'
	EXPORT	|??_C@_1BC@PPJANNEK@?$AAk?$AAV?$AAD?$AAD?$AA_?$AAE?$AAX?$AAT?$AA?$AA@| [ DATA ] ; `string'
	EXPORT	|??_C@_1M@JHALILGH@?$AAk?$AAV?$AAD?$AAD?$AA5?$AA?$AA@| [ DATA ] ; `string'
	EXPORT	|??_C@_1M@CPLHOMAC@?$AAk?$AAV?$AAD?$AAD?$AA4?$AA?$AA@| [ DATA ] ; `string'
	EXPORT	|??_C@_1M@LCGANELL@?$AAk?$AAV?$AAD?$AAD?$AA3?$AA?$AA@| [ DATA ] ; `string'
	EXPORT	|??_C@_1M@KNMLDNO@?$AAk?$AAV?$AAD?$AAD?$AA2?$AA?$AA@| [ DATA ] ; `string'
	EXPORT	|??_C@_1M@BIGJBMDA@?$AAk?$AAV?$AAD?$AAD?$AA1?$AA?$AA@| [ DATA ] ; `string'
	EXPORT	|_ssr_fclk| [ DATA ]
	EXPORT	|_cam_fclk| [ DATA ]
	EXPORT	|_dss1_fclk| [ DATA ]
	EXPORT	|_usim_fclk| [ DATA ]
	EXPORT	|_cm_usim_fclk| [ DATA ]
	EXPORT	|_sgx_fclk| [ DATA ]
	EXPORT	|_tv_fclk| [ DATA ]
	EXPORT	|s_VddTable| [ DATA ]
	EXPORT	|s_DpllTable| [ DATA ]
	EXPORT	|s_DpllClkOutTable| [ DATA ]
	EXPORT	|s_SrcClockTable| [ DATA ]
	EXPORT	|s_VddNameTable| [ DATA ]
	EXPORT	|s_DpllNameTable| [ DATA ]
	EXPORT	|s_DpllClkOutNameTable| [ DATA ]
	EXPORT	|s_SrcClockNameTable| [ DATA ]
	EXPORT	|DeviceNames| [ DATA ]
	EXPORT	|DumpRegArray| [ DATA ]

  00000			 AREA	 |.bss|, NOINIT
|s_VddTable| %	0x28

  00000			 AREA	 |.rdata|, DATA, READONLY
|??_C@_1CK@MFCDILAE@?$AAP?$AAM?$AA_?$AAP?$AAR?$AAE?$AAP?$AAW?$AAS?$AAT?$AAS?$AAT?$AA_?$AAU?$AAS?$AAB?$AAH?$AAO?$AAS?$AAT?$AA?$AA@| DCB "P"
	DCB	0x0, "M", 0x0, "_", 0x0, "P", 0x0, "R", 0x0, "E", 0x0, "P"
	DCB	0x0, "W", 0x0, "S", 0x0, "T", 0x0, "S", 0x0, "T", 0x0, "_"
	DCB	0x0, "U", 0x0, "S", 0x0, "B", 0x0, "H", 0x0, "O", 0x0, "S"
	DCB	0x0, "T", 0x0, 0x0, 0x0			; `string'

  00000			 AREA	 |.rdata|, DATA, READONLY
|??_C@_1CE@DINMMLDJ@?$AAP?$AAM?$AA_?$AAP?$AAW?$AAS?$AAT?$AAS?$AAT?$AA_?$AAU?$AAS?$AAB?$AAH?$AAO?$AAS?$AAT?$AA?$AA@| DCB "P"
	DCB	0x0, "M", 0x0, "_", 0x0, "P", 0x0, "W", 0x0, "S", 0x0, "T"
	DCB	0x0, "S", 0x0, "T", 0x0, "_", 0x0, "U", 0x0, "S", 0x0, "B"
	DCB	0x0, "H", 0x0, "O", 0x0, "S", 0x0, "T", 0x0, 0x0, 0x0 ; `string'

  00000			 AREA	 |.rdata|, DATA, READONLY
|??_C@_1CI@NFFMDMCO@?$AAP?$AAM?$AA_?$AAP?$AAW?$AAS?$AAT?$AAC?$AAT?$AAR?$AAL?$AA_?$AAU?$AAS?$AAB?$AAH?$AAO?$AAS?$AAT?$AA?$AA@| DCB "P"
	DCB	0x0, "M", 0x0, "_", 0x0, "P", 0x0, "W", 0x0, "S", 0x0, "T"
	DCB	0x0, "C", 0x0, "T", 0x0, "R", 0x0, "L", 0x0, "_", 0x0, "U"
	DCB	0x0, "S", 0x0, "B", 0x0, "H", 0x0, "O", 0x0, "S", 0x0, "T"
	DCB	0x0, 0x0, 0x0				; `string'

  00000			 AREA	 |.rdata|, DATA, READONLY
|??_C@_1CC@BANAFHHA@?$AAP?$AAM?$AA_?$AAW?$AAK?$AAD?$AAE?$AAP?$AA_?$AAU?$AAS?$AAB?$AAH?$AAO?$AAS?$AAT?$AA?$AA@| DCB "P"
	DCB	0x0, "M", 0x0, "_", 0x0, "W", 0x0, "K", 0x0, "D", 0x0, "E"
	DCB	0x0, "P", 0x0, "_", 0x0, "U", 0x0, "S", 0x0, "B", 0x0, "H"
	DCB	0x0, "O", 0x0, "S", 0x0, "T", 0x0, 0x0, 0x0 ; `string'

  00000			 AREA	 |.rdata|, DATA, READONLY
|??_C@_1CA@CDELFGFE@?$AAP?$AAM?$AA_?$AAW?$AAK?$AAS?$AAT?$AA_?$AAU?$AAS?$AAB?$AAH?$AAO?$AAS?$AAT?$AA?$AA@| DCB "P"
	DCB	0x0, "M", 0x0, "_", 0x0, "W", 0x0, "K", 0x0, "S", 0x0, "T"
	DCB	0x0, "_", 0x0, "U", 0x0, "S", 0x0, "B", 0x0, "H", 0x0, "O"
	DCB	0x0, "S", 0x0, "T", 0x0, 0x0, 0x0	; `string'

  00000			 AREA	 |.rdata|, DATA, READONLY
|??_C@_1CM@CGFHEIFF@?$AAP?$AAM?$AA_?$AAI?$AAV?$AAA?$AA2?$AAG?$AAR?$AAP?$AAS?$AAE?$AAL?$AA_?$AAU?$AAS?$AAB?$AAH?$AAO?$AAS?$AAT?$AA?$AA@| DCB "P"
	DCB	0x0, "M", 0x0, "_", 0x0, "I", 0x0, "V", 0x0, "A", 0x0, "2"
	DCB	0x0, "G", 0x0, "R", 0x0, "P", 0x0, "S", 0x0, "E", 0x0, "L"
	DCB	0x0, "_", 0x0, "U", 0x0, "S", 0x0, "B", 0x0, "H", 0x0, "O"
	DCB	0x0, "S", 0x0, "T", 0x0, 0x0, 0x0	; `string'

  00000			 AREA	 |.rdata|, DATA, READONLY
|??_C@_1CK@KEHDDHL@?$AAP?$AAM?$AA_?$AAM?$AAP?$AAU?$AAG?$AAR?$AAP?$AAS?$AAE?$AAL?$AA_?$AAU?$AAS?$AAB?$AAH?$AAO?$AAS?$AAT?$AA?$AA@| DCB "P"
	DCB	0x0, "M", 0x0, "_", 0x0, "M", 0x0, "P", 0x0, "U", 0x0, "G"
	DCB	0x0, "R", 0x0, "P", 0x0, "S", 0x0, "E", 0x0, "L", 0x0, "_"
	DCB	0x0, "U", 0x0, "S", 0x0, "B", 0x0, "H", 0x0, "O", 0x0, "S"
	DCB	0x0, "T", 0x0, 0x0, 0x0			; `string'

  00000			 AREA	 |.rdata|, DATA, READONLY
|??_C@_1CA@EPJOENIO@?$AAP?$AAM?$AA_?$AAW?$AAK?$AAE?$AAN?$AA_?$AAU?$AAS?$AAB?$AAH?$AAO?$AAS?$AAT?$AA?$AA@| DCB "P"
	DCB	0x0, "M", 0x0, "_", 0x0, "W", 0x0, "K", 0x0, "E", 0x0, "N"
	DCB	0x0, "_", 0x0, "U", 0x0, "S", 0x0, "B", 0x0, "H", 0x0, "O"
	DCB	0x0, "S", 0x0, "T", 0x0, 0x0, 0x0	; `string'

  00000			 AREA	 |.rdata|, DATA, READONLY
|??_C@_1CC@ELENAOBE@?$AAR?$AAM?$AA_?$AAR?$AAS?$AAT?$AAS?$AAT?$AA_?$AAU?$AAS?$AAB?$AAH?$AAO?$AAS?$AAT?$AA?$AA@| DCB "R"
	DCB	0x0, "M", 0x0, "_", 0x0, "R", 0x0, "S", 0x0, "T", 0x0, "S"
	DCB	0x0, "T", 0x0, "_", 0x0, "U", 0x0, "S", 0x0, "B", 0x0, "H"
	DCB	0x0, "O", 0x0, "S", 0x0, "T", 0x0, 0x0, 0x0 ; `string'

  00000			 AREA	 |.rdata|, DATA, READONLY
|??_C@_1BI@BEADJOPF@?$AAU?$AAS?$AAB?$AAH?$AAO?$AAS?$AAT?$AA_?$AAP?$AAR?$AAM?$AA?$AA@| DCB "U"
	DCB	0x0, "S", 0x0, "B", 0x0, "H", 0x0, "O", 0x0, "S", 0x0, "T"
	DCB	0x0, "_", 0x0, "P", 0x0, "R", 0x0, "M", 0x0, 0x0, 0x0 ; `string'

  00000			 AREA	 |.rdata|, DATA, READONLY
|??_C@_1CE@PAIDKKJJ@?$AAP?$AAM?$AA_?$AAP?$AAR?$AAE?$AAP?$AAW?$AAS?$AAT?$AAS?$AAT?$AA_?$AAN?$AAE?$AAO?$AAN?$AA?$AA@| DCB "P"
	DCB	0x0, "M", 0x0, "_", 0x0, "P", 0x0, "R", 0x0, "E", 0x0, "P"
	DCB	0x0, "W", 0x0, "S", 0x0, "T", 0x0, "S", 0x0, "T", 0x0, "_"
	DCB	0x0, "N", 0x0, "E", 0x0, "O", 0x0, "N", 0x0, 0x0, 0x0 ; `string'

  00000			 AREA	 |.rdata|, DATA, READONLY
|??_C@_1BO@FMNCDJII@?$AAP?$AAM?$AA_?$AAP?$AAW?$AAS?$AAT?$AAS?$AAT?$AA_?$AAN?$AAE?$AAO?$AAN?$AA?$AA@| DCB "P"
	DCB	0x0, "M", 0x0, "_", 0x0, "P", 0x0, "W", 0x0, "S", 0x0, "T"
	DCB	0x0, "S", 0x0, "T", 0x0, "_", 0x0, "N", 0x0, "E", 0x0, "O"
	DCB	0x0, "N", 0x0, 0x0, 0x0			; `string'

  00000			 AREA	 |.rdata|, DATA, READONLY
|??_C@_1CC@LCEDCBK@?$AAP?$AAM?$AA_?$AAP?$AAW?$AAS?$AAT?$AAC?$AAT?$AAR?$AAL?$AA_?$AAN?$AAE?$AAO?$AAN?$AA?$AA@| DCB "P"
	DCB	0x0, "M", 0x0, "_", 0x0, "P", 0x0, "W", 0x0, "S", 0x0, "T"
	DCB	0x0, "C", 0x0, "T", 0x0, "R", 0x0, "L", 0x0, "_", 0x0, "N"
	DCB	0x0, "E", 0x0, "O", 0x0, "N", 0x0, 0x0, 0x0 ; `string'

  00000			 AREA	 |.rdata|, DATA, READONLY
|??_C@_1BM@GLAGIPO@?$AAP?$AAM?$AA_?$AAW?$AAK?$AAD?$AAE?$AAP?$AA_?$AAN?$AAE?$AAO?$AAN?$AA?$AA@| DCB "P"
	DCB	0x0, "M", 0x0, "_", 0x0, "W", 0x0, "K", 0x0, "D", 0x0, "E"
	DCB	0x0, "P", 0x0, "_", 0x0, "N", 0x0, "E", 0x0, "O", 0x0, "N"
	DCB	0x0, 0x0, 0x0				; `string'

  00000			 AREA	 |.rdata|, DATA, READONLY
|??_C@_1BM@LBPGJMOK@?$AAR?$AAM?$AA_?$AAR?$AAS?$AAT?$AAS?$AAT?$AA_?$AAN?$AAE?$AAO?$AAN?$AA?$AA@| DCB "R"
	DCB	0x0, "M", 0x0, "_", 0x0, "R", 0x0, "S", 0x0, "T", 0x0, "S"
	DCB	0x0, "T", 0x0, "_", 0x0, "N", 0x0, "E", 0x0, "O", 0x0, "N"
	DCB	0x0, 0x0, 0x0				; `string'

  00000			 AREA	 |.rdata|, DATA, READONLY
|??_C@_1BC@JEBNFJEB@?$AAN?$AAE?$AAO?$AAN?$AA_?$AAP?$AAR?$AAM?$AA?$AA@| DCB "N"
	DCB	0x0, "E", 0x0, "O", 0x0, "N", 0x0, "_", 0x0, "P", 0x0, "R"
	DCB	0x0, "M", 0x0, 0x0, 0x0			; `string'

  00000			 AREA	 |.rdata|, DATA, READONLY
|??_C@_1BO@OOEJDAGP@?$AAP?$AAR?$AAM?$AA_?$AAV?$AAO?$AAL?$AAT?$AAS?$AAE?$AAT?$AAU?$AAP?$AA2?$AA?$AA@| DCB "P"
	DCB	0x0, "R", 0x0, "M", 0x0, "_", 0x0, "V", 0x0, "O", 0x0, "L"
	DCB	0x0, "T", 0x0, "S", 0x0, "E", 0x0, "T", 0x0, "U", 0x0, "P"
	DCB	0x0, "2", 0x0, 0x0, 0x0			; `string'

  00000			 AREA	 |.rdata|, DATA, READONLY
|??_C@_1BI@HHOAEAAO@?$AAP?$AAR?$AAM?$AA_?$AAP?$AAO?$AAL?$AAC?$AAT?$AAR?$AAL?$AA?$AA@| DCB "P"
	DCB	0x0, "R", 0x0, "M", 0x0, "_", 0x0, "P", 0x0, "O", 0x0, "L"
	DCB	0x0, "C", 0x0, "T", 0x0, "R", 0x0, "L", 0x0, 0x0, 0x0 ; `string'

  00000			 AREA	 |.rdata|, DATA, READONLY
|??_C@_1BK@INLANGOK@?$AAP?$AAR?$AAM?$AA_?$AAC?$AAL?$AAK?$AAS?$AAE?$AAT?$AAU?$AAP?$AA?$AA@| DCB "P"
	DCB	0x0, "R", 0x0, "M", 0x0, "_", 0x0, "C", 0x0, "L", 0x0, "K"
	DCB	0x0, "S", 0x0, "E", 0x0, "T", 0x0, "U", 0x0, "P", 0x0, 0x0
	DCB	0x0					; `string'

  00000			 AREA	 |.rdata|, DATA, READONLY
|??_C@_1BO@HNPCCMHL@?$AAP?$AAR?$AAM?$AA_?$AAV?$AAO?$AAL?$AAT?$AAO?$AAF?$AAF?$AAS?$AAE?$AAT?$AA?$AA@| DCB "P"
	DCB	0x0, "R", 0x0, "M", 0x0, "_", 0x0, "V", 0x0, "O", 0x0, "L"
	DCB	0x0, "T", 0x0, "O", 0x0, "F", 0x0, "F", 0x0, "S", 0x0, "E"
	DCB	0x0, "T", 0x0, 0x0, 0x0			; `string'

  00000			 AREA	 |.rdata|, DATA, READONLY
|??_C@_1BO@PMPMJPIB@?$AAP?$AAR?$AAM?$AA_?$AAV?$AAO?$AAL?$AAT?$AAS?$AAE?$AAT?$AAU?$AAP?$AA1?$AA?$AA@| DCB "P"
	DCB	0x0, "R", 0x0, "M", 0x0, "_", 0x0, "V", 0x0, "O", 0x0, "L"
	DCB	0x0, "T", 0x0, "S", 0x0, "E", 0x0, "T", 0x0, "U", 0x0, "P"
	DCB	0x0, "1", 0x0, 0x0, 0x0			; `string'

  00000			 AREA	 |.rdata|, DATA, READONLY
|??_C@_1BA@JADOMDEP@?$AAP?$AAR?$AAM?$AA_?$AAO?$AAB?$AAS?$AA?$AA@| DCB "P", 0x0
	DCB	"R", 0x0, "M", 0x0, "_", 0x0, "O", 0x0, "B", 0x0, "S", 0x0
	DCB	0x0, 0x0				; `string'

  00000			 AREA	 |.rdata|, DATA, READONLY
|??_C@_1CA@DKBCEFNM@?$AAP?$AAR?$AAM?$AA_?$AAC?$AAL?$AAK?$AAS?$AAR?$AAC?$AA_?$AAC?$AAT?$AAR?$AAL?$AA?$AA@| DCB "P"
	DCB	0x0, "R", 0x0, "M", 0x0, "_", 0x0, "C", 0x0, "L", 0x0, "K"
	DCB	0x0, "S", 0x0, "R", 0x0, "C", 0x0, "_", 0x0, "C", 0x0, "T"
	DCB	0x0, "R", 0x0, "L", 0x0, 0x0, 0x0	; `string'

  00000			 AREA	 |.rdata|, DATA, READONLY
|??_C@_1CC@PEAEBONP@?$AAP?$AAR?$AAM?$AA_?$AAS?$AAR?$AAA?$AAM?$AA_?$AAP?$AAC?$AAH?$AAA?$AAR?$AAG?$AAE?$AA?$AA@| DCB "P"
	DCB	0x0, "R", 0x0, "M", 0x0, "_", 0x0, "S", 0x0, "R", 0x0, "A"
	DCB	0x0, "M", 0x0, "_", 0x0, "P", 0x0, "C", 0x0, "H", 0x0, "A"
	DCB	0x0, "R", 0x0, "G", 0x0, "E", 0x0, 0x0, 0x0 ; `string'

  00000			 AREA	 |.rdata|, DATA, READONLY
|??_C@_1BK@HFKALEHA@?$AAP?$AAR?$AAM?$AA_?$AAV?$AAO?$AAL?$AAT?$AAC?$AAT?$AAR?$AAL?$AA?$AA@| DCB "P"
	DCB	0x0, "R", 0x0, "M", 0x0, "_", 0x0, "V", 0x0, "O", 0x0, "L"
	DCB	0x0, "T", 0x0, "C", 0x0, "T", 0x0, "R", 0x0, "L", 0x0, 0x0
	DCB	0x0					; `string'

  00000			 AREA	 |.rdata|, DATA, READONLY
|??_C@_1BE@HPDPAFDK@?$AAP?$AAR?$AAM?$AA_?$AAR?$AAS?$AAT?$AAS?$AAT?$AA?$AA@| DCB "P"
	DCB	0x0, "R", 0x0, "M", 0x0, "_", 0x0, "R", 0x0, "S", 0x0, "T"
	DCB	0x0, "S", 0x0, "T", 0x0, 0x0, 0x0	; `string'

  00000			 AREA	 |.rdata|, DATA, READONLY
|??_C@_1BI@BLFHBCIB@?$AAP?$AAR?$AAM?$AA_?$AAR?$AAS?$AAT?$AAT?$AAI?$AAM?$AAE?$AA?$AA@| DCB "P"
	DCB	0x0, "R", 0x0, "M", 0x0, "_", 0x0, "R", 0x0, "S", 0x0, "T"
	DCB	0x0, "T", 0x0, "I", 0x0, "M", 0x0, "E", 0x0, 0x0, 0x0 ; `string'

  00000			 AREA	 |.rdata|, DATA, READONLY
|??_C@_1BI@LGBDFDCO@?$AAP?$AAR?$AAM?$AA_?$AAR?$AAS?$AAT?$AAC?$AAT?$AAR?$AAL?$AA?$AA@| DCB "P"
	DCB	0x0, "R", 0x0, "M", 0x0, "_", 0x0, "R", 0x0, "S", 0x0, "T"
	DCB	0x0, "C", 0x0, "T", 0x0, "R", 0x0, "L", 0x0, 0x0, 0x0 ; `string'

  00000			 AREA	 |.rdata|, DATA, READONLY
|??_C@_1CE@LCNFDOGA@?$AAP?$AAR?$AAM?$AA_?$AAV?$AAC?$AA_?$AAB?$AAY?$AAP?$AAA?$AAS?$AAS?$AA_?$AAV?$AAA?$AAL?$AA?$AA@| DCB "P"
	DCB	0x0, "R", 0x0, "M", 0x0, "_", 0x0, "V", 0x0, "C", 0x0, "_"
	DCB	0x0, "B", 0x0, "Y", 0x0, "P", 0x0, "A", 0x0, "S", 0x0, "S"
	DCB	0x0, "_", 0x0, "V", 0x0, "A", 0x0, "L", 0x0, 0x0, 0x0 ; `string'

  00000			 AREA	 |.rdata|, DATA, READONLY
|??_C@_1BO@CDICEJPF@?$AAP?$AAR?$AAM?$AA_?$AAV?$AAC?$AA_?$AAI?$AA2?$AAC?$AA_?$AAC?$AAF?$AAG?$AA?$AA@| DCB "P"
	DCB	0x0, "R", 0x0, "M", 0x0, "_", 0x0, "V", 0x0, "C", 0x0, "_"
	DCB	0x0, "I", 0x0, "2", 0x0, "C", 0x0, "_", 0x0, "C", 0x0, "F"
	DCB	0x0, "G", 0x0, 0x0, 0x0			; `string'

  00000			 AREA	 |.rdata|, DATA, READONLY
|??_C@_1BO@NIKJKLFL@?$AAP?$AAR?$AAM?$AA_?$AAV?$AAC?$AA_?$AAC?$AAH?$AA_?$AAC?$AAO?$AAN?$AAF?$AA?$AA@| DCB "P"
	DCB	0x0, "R", 0x0, "M", 0x0, "_", 0x0, "V", 0x0, "C", 0x0, "_"
	DCB	0x0, "C", 0x0, "H", 0x0, "_", 0x0, "C", 0x0, "O", 0x0, "N"
	DCB	0x0, "F", 0x0, 0x0, 0x0			; `string'

  00000			 AREA	 |.rdata|, DATA, READONLY
|??_C@_1CC@GOJIALCP@?$AAP?$AAR?$AAM?$AA_?$AAV?$AAC?$AA_?$AAC?$AAM?$AAD?$AA_?$AAV?$AAA?$AAL?$AA_?$AA1?$AA?$AA@| DCB "P"
	DCB	0x0, "R", 0x0, "M", 0x0, "_", 0x0, "V", 0x0, "C", 0x0, "_"
	DCB	0x0, "C", 0x0, "M", 0x0, "D", 0x0, "_", 0x0, "V", 0x0, "A"
	DCB	0x0, "L", 0x0, "_", 0x0, "1", 0x0, 0x0, 0x0 ; `string'

  00000			 AREA	 |.rdata|, DATA, READONLY
|??_C@_1CC@NGCEGMEK@?$AAP?$AAR?$AAM?$AA_?$AAV?$AAC?$AA_?$AAC?$AAM?$AAD?$AA_?$AAV?$AAA?$AAL?$AA_?$AA0?$AA?$AA@| DCB "P"
	DCB	0x0, "R", 0x0, "M", 0x0, "_", 0x0, "V", 0x0, "C", 0x0, "_"
	DCB	0x0, "C", 0x0, "M", 0x0, "D", 0x0, "_", 0x0, "V", 0x0, "A"
	DCB	0x0, "L", 0x0, "_", 0x0, "0", 0x0, 0x0, 0x0 ; `string'

  00000			 AREA	 |.rdata|, DATA, READONLY
|??_C@_1CG@PFFOICKB@?$AAP?$AAR?$AAM?$AA_?$AAV?$AAC?$AA_?$AAS?$AAM?$AAP?$AAS?$AA_?$AAC?$AAM?$AAD?$AA_?$AAR?$AAA?$AA?$AA@| DCB "P"
	DCB	0x0, "R", 0x0, "M", 0x0, "_", 0x0, "V", 0x0, "C", 0x0, "_"
	DCB	0x0, "S", 0x0, "M", 0x0, "P", 0x0, "S", 0x0, "_", 0x0, "C"
	DCB	0x0, "M", 0x0, "D", 0x0, "_", 0x0, "R", 0x0, "A", 0x0, 0x0
	DCB	0x0					; `string'

  00000			 AREA	 |.rdata|, DATA, READONLY
|??_C@_1CG@OIKDAOML@?$AAP?$AAR?$AAM?$AA_?$AAV?$AAC?$AA_?$AAS?$AAM?$AAP?$AAS?$AA_?$AAV?$AAO?$AAL?$AA_?$AAR?$AAA?$AA?$AA@| DCB "P"
	DCB	0x0, "R", 0x0, "M", 0x0, "_", 0x0, "V", 0x0, "C", 0x0, "_"
	DCB	0x0, "S", 0x0, "M", 0x0, "P", 0x0, "S", 0x0, "_", 0x0, "V"
	DCB	0x0, "O", 0x0, "L", 0x0, "_", 0x0, "R", 0x0, "A", 0x0, 0x0
	DCB	0x0					; `string'

  00000			 AREA	 |.rdata|, DATA, READONLY
|??_C@_1BO@LBDDPNOG@?$AAP?$AAR?$AAM?$AA_?$AAV?$AAC?$AA_?$AAS?$AAM?$AAP?$AAS?$AA_?$AAS?$AAA?$AA?$AA@| DCB "P"
	DCB	0x0, "R", 0x0, "M", 0x0, "_", 0x0, "V", 0x0, "C", 0x0, "_"
	DCB	0x0, "S", 0x0, "M", 0x0, "P", 0x0, "S", 0x0, "_", 0x0, "S"
	DCB	0x0, "A", 0x0, 0x0, 0x0			; `string'

  00000			 AREA	 |.rdata|, DATA, READONLY
|??_C@_1BO@CAKCDBHG@?$AAG?$AAl?$AAo?$AAb?$AAa?$AAl?$AA_?$AAR?$AAe?$AAg?$AA_?$AAP?$AAR?$AAM?$AA?$AA@| DCB "G"
	DCB	0x0, "l", 0x0, "o", 0x0, "b", 0x0, "a", 0x0, "l", 0x0, "_"
	DCB	0x0, "R", 0x0, "e", 0x0, "g", 0x0, "_", 0x0, "P", 0x0, "R"
	DCB	0x0, "M", 0x0, 0x0, 0x0			; `string'

  00000			 AREA	 |.rdata|, DATA, READONLY
|??_C@_1BM@NIBECDJF@?$AAP?$AAM?$AA_?$AAP?$AAW?$AAS?$AAT?$AAS?$AAT?$AA_?$AAE?$AAM?$AAU?$AA?$AA@| DCB "P"
	DCB	0x0, "M", 0x0, "_", 0x0, "P", 0x0, "W", 0x0, "S", 0x0, "T"
	DCB	0x0, "S", 0x0, "T", 0x0, "_", 0x0, "E", 0x0, "M", 0x0, "U"
	DCB	0x0, 0x0, 0x0				; `string'

  00000			 AREA	 |.rdata|, DATA, READONLY
|??_C@_1BK@PHFAAKFB@?$AAR?$AAM?$AA_?$AAR?$AAS?$AAT?$AAS?$AAT?$AA_?$AAE?$AAM?$AAU?$AA?$AA@| DCB "R"
	DCB	0x0, "M", 0x0, "_", 0x0, "R", 0x0, "S", 0x0, "T", 0x0, "S"
	DCB	0x0, "T", 0x0, "_", 0x0, "E", 0x0, "M", 0x0, "U", 0x0, 0x0
	DCB	0x0					; `string'

  00000			 AREA	 |.rdata|, DATA, READONLY
|??_C@_1BA@CAPJDCOP@?$AAE?$AAM?$AAU?$AA_?$AAP?$AAR?$AAM?$AA?$AA@| DCB "E", 0x0
	DCB	"M", 0x0, "U", 0x0, "_", 0x0, "P", 0x0, "R", 0x0, "M", 0x0
	DCB	0x0, 0x0				; `string'

  00000			 AREA	 |.rdata|, DATA, READONLY
|??_C@_1CC@EPBJKNIO@?$AAP?$AAM?$AA_?$AAP?$AAR?$AAE?$AAP?$AAW?$AAS?$AAT?$AAS?$AAT?$AA_?$AAP?$AAE?$AAR?$AA?$AA@| DCB "P"
	DCB	0x0, "M", 0x0, "_", 0x0, "P", 0x0, "R", 0x0, "E", 0x0, "P"
	DCB	0x0, "W", 0x0, "S", 0x0, "T", 0x0, "S", 0x0, "T", 0x0, "_"
	DCB	0x0, "P", 0x0, "E", 0x0, "R", 0x0, 0x0, 0x0 ; `string'

  00000			 AREA	 |.rdata|, DATA, READONLY
|??_C@_1BM@JNMLKGAO@?$AAP?$AAM?$AA_?$AAP?$AAW?$AAS?$AAT?$AAS?$AAT?$AA_?$AAP?$AAE?$AAR?$AA?$AA@| DCB "P"
	DCB	0x0, "M", 0x0, "_", 0x0, "P", 0x0, "W", 0x0, "S", 0x0, "T"
	DCB	0x0, "S", 0x0, "T", 0x0, "_", 0x0, "P", 0x0, "E", 0x0, "R"
	DCB	0x0, 0x0, 0x0				; `string'

  00000			 AREA	 |.rdata|, DATA, READONLY
|??_C@_1CA@EHOJHBAJ@?$AAP?$AAM?$AA_?$AAP?$AAW?$AAS?$AAT?$AAC?$AAT?$AAR?$AAL?$AA_?$AAP?$AAE?$AAR?$AA?$AA@| DCB "P"
	DCB	0x0, "M", 0x0, "_", 0x0, "P", 0x0, "W", 0x0, "S", 0x0, "T"
	DCB	0x0, "C", 0x0, "T", 0x0, "R", 0x0, "L", 0x0, "_", 0x0, "P"
	DCB	0x0, "E", 0x0, "R", 0x0, 0x0, 0x0	; `string'

  00000			 AREA	 |.rdata|, DATA, READONLY
|??_C@_1BK@MOOMJEJF@?$AAP?$AAM?$AA_?$AAW?$AAK?$AAD?$AAE?$AAP?$AA_?$AAP?$AAE?$AAR?$AA?$AA@| DCB "P"
	DCB	0x0, "M", 0x0, "_", 0x0, "W", 0x0, "K", 0x0, "D", 0x0, "E"
	DCB	0x0, "P", 0x0, "_", 0x0, "P", 0x0, "E", 0x0, "R", 0x0, 0x0
	DCB	0x0					; `string'

  00000			 AREA	 |.rdata|, DATA, READONLY
|??_C@_1BI@NCLGDPNJ@?$AAP?$AAM?$AA_?$AAW?$AAK?$AAS?$AAT?$AA_?$AAP?$AAE?$AAR?$AA?$AA@| DCB "P"
	DCB	0x0, "M", 0x0, "_", 0x0, "W", 0x0, "K", 0x0, "S", 0x0, "T"
	DCB	0x0, "_", 0x0, "P", 0x0, "E", 0x0, "R", 0x0, 0x0, 0x0 ; `string'

  00000			 AREA	 |.rdata|, DATA, READONLY
|??_C@_1CE@KJGLJLDH@?$AAP?$AAM?$AA_?$AAI?$AAV?$AAA?$AA2?$AAG?$AAR?$AAP?$AAS?$AAE?$AAL?$AA_?$AAP?$AAE?$AAR?$AA?$AA@| DCB "P"
	DCB	0x0, "M", 0x0, "_", 0x0, "I", 0x0, "V", 0x0, "A", 0x0, "2"
	DCB	0x0, "G", 0x0, "R", 0x0, "P", 0x0, "S", 0x0, "E", 0x0, "L"
	DCB	0x0, "_", 0x0, "P", 0x0, "E", 0x0, "R", 0x0, 0x0, 0x0 ; `string'

  00000			 AREA	 |.rdata|, DATA, READONLY
|??_C@_1CC@FABFMEFM@?$AAP?$AAM?$AA_?$AAM?$AAP?$AAU?$AAG?$AAR?$AAP?$AAS?$AAE?$AAL?$AA_?$AAP?$AAE?$AAR?$AA?$AA@| DCB "P"
	DCB	0x0, "M", 0x0, "_", 0x0, "M", 0x0, "P", 0x0, "U", 0x0, "G"
	DCB	0x0, "R", 0x0, "P", 0x0, "S", 0x0, "E", 0x0, "L", 0x0, "_"
	DCB	0x0, "P", 0x0, "E", 0x0, "R", 0x0, 0x0, 0x0 ; `string'

  00000			 AREA	 |.rdata|, DATA, READONLY
|??_C@_1BI@KKOJENJO@?$AAP?$AAM?$AA_?$AAW?$AAK?$AAE?$AAN?$AA_?$AAP?$AAE?$AAR?$AA?$AA@| DCB "P"
	DCB	0x0, "M", 0x0, "_", 0x0, "W", 0x0, "K", 0x0, "E", 0x0, "N"
	DCB	0x0, "_", 0x0, "P", 0x0, "E", 0x0, "R", 0x0, 0x0, 0x0 ; `string'

  00000			 AREA	 |.rdata|, DATA, READONLY
|??_C@_1BK@LCIPIPMK@?$AAR?$AAM?$AA_?$AAR?$AAS?$AAT?$AAS?$AAT?$AA_?$AAP?$AAE?$AAR?$AA?$AA@| DCB "R"
	DCB	0x0, "M", 0x0, "_", 0x0, "R", 0x0, "S", 0x0, "T", 0x0, "S"
	DCB	0x0, "T", 0x0, "_", 0x0, "P", 0x0, "E", 0x0, "R", 0x0, 0x0
	DCB	0x0					; `string'

  00000			 AREA	 |.rdata|, DATA, READONLY
|??_C@_1BA@PLEGCGNO@?$AAP?$AAE?$AAR?$AA_?$AAP?$AAR?$AAM?$AA?$AA@| DCB "P", 0x0
	DCB	"E", 0x0, "R", 0x0, "_", 0x0, "P", 0x0, "R", 0x0, "M", 0x0
	DCB	0x0, 0x0				; `string'

  00000			 AREA	 |.rdata|, DATA, READONLY
|??_C@_1CC@COMGJOJJ@?$AAP?$AAM?$AA_?$AAP?$AAR?$AAE?$AAP?$AAW?$AAS?$AAT?$AAS?$AAT?$AA_?$AAC?$AAA?$AAM?$AA?$AA@| DCB "P"
	DCB	0x0, "M", 0x0, "_", 0x0, "P", 0x0, "R", 0x0, "E", 0x0, "P"
	DCB	0x0, "W", 0x0, "S", 0x0, "T", 0x0, "S", 0x0, "T", 0x0, "_"
	DCB	0x0, "C", 0x0, "A", 0x0, "M", 0x0, 0x0, 0x0 ; `string'

  00000			 AREA	 |.rdata|, DATA, READONLY
|??_C@_1BM@PMBEJFBJ@?$AAP?$AAM?$AA_?$AAP?$AAW?$AAS?$AAT?$AAS?$AAT?$AA_?$AAC?$AAA?$AAM?$AA?$AA@| DCB "P"
	DCB	0x0, "M", 0x0, "_", 0x0, "P", 0x0, "W", 0x0, "S", 0x0, "T"
	DCB	0x0, "S", 0x0, "T", 0x0, "_", 0x0, "C", 0x0, "A", 0x0, "M"
	DCB	0x0, 0x0, 0x0				; `string'

  00000			 AREA	 |.rdata|, DATA, READONLY
|??_C@_1CA@CGDGECBO@?$AAP?$AAM?$AA_?$AAP?$AAW?$AAS?$AAT?$AAC?$AAT?$AAR?$AAL?$AA_?$AAC?$AAA?$AAM?$AA?$AA@| DCB "P"
	DCB	0x0, "M", 0x0, "_", 0x0, "P", 0x0, "W", 0x0, "S", 0x0, "T"
	DCB	0x0, "C", 0x0, "T", 0x0, "R", 0x0, "L", 0x0, "_", 0x0, "C"
	DCB	0x0, "A", 0x0, "M", 0x0, 0x0, 0x0	; `string'

  00000			 AREA	 |.rdata|, DATA, READONLY
|??_C@_1BK@KPDDKHIC@?$AAP?$AAM?$AA_?$AAW?$AAK?$AAD?$AAE?$AAP?$AA_?$AAC?$AAA?$AAM?$AA?$AA@| DCB "P"
	DCB	0x0, "M", 0x0, "_", 0x0, "W", 0x0, "K", 0x0, "D", 0x0, "E"
	DCB	0x0, "P", 0x0, "_", 0x0, "C", 0x0, "A", 0x0, "M", 0x0, 0x0
	DCB	0x0					; `string'

  00000			 AREA	 |.rdata|, DATA, READONLY
|??_C@_1BK@NDFALMNN@?$AAR?$AAM?$AA_?$AAR?$AAS?$AAT?$AAS?$AAT?$AA_?$AAC?$AAA?$AAM?$AA?$AA@| DCB "R"
	DCB	0x0, "M", 0x0, "_", 0x0, "R", 0x0, "S", 0x0, "T", 0x0, "S"
	DCB	0x0, "T", 0x0, "_", 0x0, "C", 0x0, "A", 0x0, "M", 0x0, 0x0
	DCB	0x0					; `string'

  00000			 AREA	 |.rdata|, DATA, READONLY
|??_C@_1BA@FDIJFBCE@?$AAC?$AAA?$AAM?$AA_?$AAP?$AAR?$AAM?$AA?$AA@| DCB "C", 0x0
	DCB	"A", 0x0, "M", 0x0, "_", 0x0, "P", 0x0, "R", 0x0, "M", 0x0
	DCB	0x0, 0x0				; `string'

  00000			 AREA	 |.rdata|, DATA, READONLY
|??_C@_1CC@NKNLBELM@?$AAP?$AAM?$AA_?$AAP?$AAR?$AAE?$AAP?$AAW?$AAS?$AAT?$AAS?$AAT?$AA_?$AAD?$AAS?$AAS?$AA?$AA@| DCB "P"
	DCB	0x0, "M", 0x0, "_", 0x0, "P", 0x0, "R", 0x0, "E", 0x0, "P"
	DCB	0x0, "W", 0x0, "S", 0x0, "T", 0x0, "S", 0x0, "T", 0x0, "_"
	DCB	0x0, "D", 0x0, "S", 0x0, "S", 0x0, 0x0, 0x0 ; `string'

  00000			 AREA	 |.rdata|, DATA, READONLY
|??_C@_1BM@IAJBPDM@?$AAP?$AAM?$AA_?$AAP?$AAW?$AAS?$AAT?$AAS?$AAT?$AA_?$AAD?$AAS?$AAS?$AA?$AA@| DCB "P"
	DCB	0x0, "M", 0x0, "_", 0x0, "P", 0x0, "W", 0x0, "S", 0x0, "T"
	DCB	0x0, "S", 0x0, "T", 0x0, "_", 0x0, "D", 0x0, "S", 0x0, "S"
	DCB	0x0, 0x0, 0x0				; `string'

  00000			 AREA	 |.rdata|, DATA, READONLY
|??_C@_1CA@NCCLMIDL@?$AAP?$AAM?$AA_?$AAP?$AAW?$AAS?$AAT?$AAC?$AAT?$AAR?$AAL?$AA_?$AAD?$AAS?$AAS?$AA?$AA@| DCB "P"
	DCB	0x0, "M", 0x0, "_", 0x0, "P", 0x0, "W", 0x0, "S", 0x0, "T"
	DCB	0x0, "C", 0x0, "T", 0x0, "R", 0x0, "L", 0x0, "_", 0x0, "D"
	DCB	0x0, "S", 0x0, "S", 0x0, 0x0, 0x0	; `string'

  00000			 AREA	 |.rdata|, DATA, READONLY
|??_C@_1BK@FLCOCNKH@?$AAP?$AAM?$AA_?$AAW?$AAK?$AAD?$AAE?$AAP?$AA_?$AAD?$AAS?$AAS?$AA?$AA@| DCB "P"
	DCB	0x0, "M", 0x0, "_", 0x0, "W", 0x0, "K", 0x0, "D", 0x0, "E"
	DCB	0x0, "P", 0x0, "_", 0x0, "D", 0x0, "S", 0x0, "S", 0x0, 0x0
	DCB	0x0					; `string'

  00000			 AREA	 |.rdata|, DATA, READONLY
|??_C@_1BI@DPCLPEKM@?$AAP?$AAM?$AA_?$AAW?$AAK?$AAE?$AAN?$AA_?$AAD?$AAS?$AAS?$AA?$AA@| DCB "P"
	DCB	0x0, "M", 0x0, "_", 0x0, "W", 0x0, "K", 0x0, "E", 0x0, "N"
	DCB	0x0, "_", 0x0, "D", 0x0, "S", 0x0, "S", 0x0, 0x0, 0x0 ; `string'

  00000			 AREA	 |.rdata|, DATA, READONLY
|??_C@_1BK@CHENDGPI@?$AAR?$AAM?$AA_?$AAR?$AAS?$AAT?$AAS?$AAT?$AA_?$AAD?$AAS?$AAS?$AA?$AA@| DCB "R"
	DCB	0x0, "M", 0x0, "_", 0x0, "R", 0x0, "S", 0x0, "T", 0x0, "S"
	DCB	0x0, "T", 0x0, "_", 0x0, "D", 0x0, "S", 0x0, "S", 0x0, 0x0
	DCB	0x0					; `string'

  00000			 AREA	 |.rdata|, DATA, READONLY
|??_C@_1BA@MMIFGPHC@?$AAD?$AAS?$AAS?$AA_?$AAP?$AAR?$AAM?$AA?$AA@| DCB "D", 0x0
	DCB	"S", 0x0, "S", 0x0, "_", 0x0, "P", 0x0, "R", 0x0, "M", 0x0
	DCB	0x0, 0x0				; `string'

  00000			 AREA	 |.rdata|, DATA, READONLY
|??_C@_1CA@PGMOAOBH@?$AAP?$AAR?$AAM?$AA_?$AAC?$AAL?$AAK?$AAO?$AAU?$AAT?$AA_?$AAC?$AAT?$AAR?$AAL?$AA?$AA@| DCB "P"
	DCB	0x0, "R", 0x0, "M", 0x0, "_", 0x0, "C", 0x0, "L", 0x0, "K"
	DCB	0x0, "O", 0x0, "U", 0x0, "T", 0x0, "_", 0x0, "C", 0x0, "T"
	DCB	0x0, "R", 0x0, "L", 0x0, 0x0, 0x0	; `string'

  00000			 AREA	 |.rdata|, DATA, READONLY
|??_C@_1BG@BPBPBGIA@?$AAP?$AAR?$AAM?$AA_?$AAC?$AAL?$AAK?$AAS?$AAE?$AAL?$AA?$AA@| DCB "P"
	DCB	0x0, "R", 0x0, "M", 0x0, "_", 0x0, "C", 0x0, "L", 0x0, "K"
	DCB	0x0, "S", 0x0, "E", 0x0, "L", 0x0, 0x0, 0x0 ; `string'

  00000			 AREA	 |.rdata|, DATA, READONLY
|??_C@_1CM@BOLGGOBJ@?$AAC?$AAl?$AAo?$AAc?$AAk?$AA_?$AAC?$AAo?$AAn?$AAt?$AAr?$AAo?$AAl?$AA_?$AAR?$AAe?$AAg?$AA_?$AAP?$AAR?$AAM?$AA?$AA@| DCB "C"
	DCB	0x0, "l", 0x0, "o", 0x0, "c", 0x0, "k", 0x0, "_", 0x0, "C"
	DCB	0x0, "o", 0x0, "n", 0x0, "t", 0x0, "r", 0x0, "o", 0x0, "l"
	DCB	0x0, "_", 0x0, "R", 0x0, "e", 0x0, "g", 0x0, "_", 0x0, "P"
	DCB	0x0, "R", 0x0, "M", 0x0, 0x0, 0x0	; `string'

  00000			 AREA	 |.rdata|, DATA, READONLY
|??_C@_1BK@MHMCLHIM@?$AAP?$AAM?$AA_?$AAW?$AAK?$AAS?$AAT?$AA_?$AAW?$AAK?$AAU?$AAP?$AA?$AA@| DCB "P"
	DCB	0x0, "M", 0x0, "_", 0x0, "W", 0x0, "K", 0x0, "S", 0x0, "T"
	DCB	0x0, "_", 0x0, "W", 0x0, "K", 0x0, "U", 0x0, "P", 0x0, 0x0
	DCB	0x0					; `string'

  00000			 AREA	 |.rdata|, DATA, READONLY
|??_C@_1CG@NGIEHFMC@?$AAP?$AAM?$AA_?$AAI?$AAV?$AAA?$AA2?$AAG?$AAR?$AAP?$AAS?$AAE?$AAL?$AA_?$AAW?$AAK?$AAU?$AAP?$AA?$AA@| DCB "P"
	DCB	0x0, "M", 0x0, "_", 0x0, "I", 0x0, "V", 0x0, "A", 0x0, "2"
	DCB	0x0, "G", 0x0, "R", 0x0, "P", 0x0, "S", 0x0, "E", 0x0, "L"
	DCB	0x0, "_", 0x0, "W", 0x0, "K", 0x0, "U", 0x0, "P", 0x0, 0x0
	DCB	0x0					; `string'

  00000			 AREA	 |.rdata|, DATA, READONLY
|??_C@_1CE@KLFJHCLF@?$AAP?$AAM?$AA_?$AAM?$AAP?$AAU?$AAG?$AAR?$AAP?$AAS?$AAE?$AAL?$AA_?$AAW?$AAK?$AAU?$AAP?$AA?$AA@| DCB "P"
	DCB	0x0, "M", 0x0, "_", 0x0, "M", 0x0, "P", 0x0, "U", 0x0, "G"
	DCB	0x0, "R", 0x0, "P", 0x0, "S", 0x0, "E", 0x0, "L", 0x0, "_"
	DCB	0x0, "W", 0x0, "K", 0x0, "U", 0x0, "P", 0x0, 0x0, 0x0 ; `string'

  00000			 AREA	 |.rdata|, DATA, READONLY
|??_C@_1BK@MGPBAGAB@?$AAP?$AAM?$AA_?$AAW?$AAK?$AAE?$AAN?$AA_?$AAW?$AAK?$AAU?$AAP?$AA?$AA@| DCB "P"
	DCB	0x0, "M", 0x0, "_", 0x0, "W", 0x0, "K", 0x0, "E", 0x0, "N"
	DCB	0x0, "_", 0x0, "W", 0x0, "K", 0x0, "U", 0x0, "P", 0x0, 0x0
	DCB	0x0					; `string'

  00000			 AREA	 |.rdata|, DATA, READONLY
|??_C@_1BC@DDJDDDAK@?$AAW?$AAK?$AAU?$AAP?$AA_?$AAP?$AAR?$AAM?$AA?$AA@| DCB "W"
	DCB	0x0, "K", 0x0, "U", 0x0, "P", 0x0, "_", 0x0, "P", 0x0, "R"
	DCB	0x0, "M", 0x0, 0x0, 0x0			; `string'

  00000			 AREA	 |.rdata|, DATA, READONLY
|??_C@_1CC@ODODOLAC@?$AAP?$AAM?$AA_?$AAP?$AAR?$AAE?$AAP?$AAW?$AAS?$AAT?$AAS?$AAT?$AA_?$AAS?$AAG?$AAX?$AA?$AA@| DCB "P"
	DCB	0x0, "M", 0x0, "_", 0x0, "P", 0x0, "R", 0x0, "E", 0x0, "P"
	DCB	0x0, "W", 0x0, "S", 0x0, "T", 0x0, "S", 0x0, "T", 0x0, "_"
	DCB	0x0, "S", 0x0, "G", 0x0, "X", 0x0, 0x0, 0x0 ; `string'

  00000			 AREA	 |.rdata|, DATA, READONLY
|??_C@_1BM@DBDBOAIC@?$AAP?$AAM?$AA_?$AAP?$AAW?$AAS?$AAT?$AAS?$AAT?$AA_?$AAS?$AAG?$AAX?$AA?$AA@| DCB "P"
	DCB	0x0, "M", 0x0, "_", 0x0, "P", 0x0, "W", 0x0, "S", 0x0, "T"
	DCB	0x0, "S", 0x0, "T", 0x0, "_", 0x0, "S", 0x0, "G", 0x0, "X"
	DCB	0x0, 0x0, 0x0				; `string'

  00000			 AREA	 |.rdata|, DATA, READONLY
|??_C@_1CA@OLBDDHIF@?$AAP?$AAM?$AA_?$AAP?$AAW?$AAS?$AAT?$AAC?$AAT?$AAR?$AAL?$AA_?$AAS?$AAG?$AAX?$AA?$AA@| DCB "P"
	DCB	0x0, "M", 0x0, "_", 0x0, "P", 0x0, "W", 0x0, "S", 0x0, "T"
	DCB	0x0, "C", 0x0, "T", 0x0, "R", 0x0, "L", 0x0, "_", 0x0, "S"
	DCB	0x0, "G", 0x0, "X", 0x0, 0x0, 0x0	; `string'

  00000			 AREA	 |.rdata|, DATA, READONLY
|??_C@_1BK@GCBGNCBJ@?$AAP?$AAM?$AA_?$AAW?$AAK?$AAD?$AAE?$AAP?$AA_?$AAS?$AAG?$AAX?$AA?$AA@| DCB "P"
	DCB	0x0, "M", 0x0, "_", 0x0, "W", 0x0, "K", 0x0, "D", 0x0, "E"
	DCB	0x0, "P", 0x0, "_", 0x0, "S", 0x0, "G", 0x0, "X", 0x0, 0x0
	DCB	0x0					; `string'

  00000			 AREA	 |.rdata|, DATA, READONLY
|??_C@_1BK@BOHFMJEG@?$AAR?$AAM?$AA_?$AAR?$AAS?$AAT?$AAS?$AAT?$AA_?$AAS?$AAG?$AAX?$AA?$AA@| DCB "R"
	DCB	0x0, "M", 0x0, "_", 0x0, "R", 0x0, "S", 0x0, "T", 0x0, "S"
	DCB	0x0, "T", 0x0, "_", 0x0, "S", 0x0, "G", 0x0, "X", 0x0, 0x0
	DCB	0x0					; `string'

  00000			 AREA	 |.rdata|, DATA, READONLY
|??_C@_1BA@NJNHLOOA@?$AAS?$AAG?$AAX?$AA_?$AAP?$AAR?$AAM?$AA?$AA@| DCB "S", 0x0
	DCB	"G", 0x0, "X", 0x0, "_", 0x0, "P", 0x0, "R", 0x0, "M", 0x0
	DCB	0x0, 0x0				; `string'

  00000			 AREA	 |.rdata|, DATA, READONLY
|??_C@_1CG@JIDDONFN@?$AAP?$AAM?$AA_?$AAM?$AAP?$AAU?$AAG?$AAR?$AAP?$AAS?$AAE?$AAL?$AA3?$AA_?$AAC?$AAO?$AAR?$AAE?$AA?$AA@| DCB "P"
	DCB	0x0, "M", 0x0, "_", 0x0, "M", 0x0, "P", 0x0, "U", 0x0, "G"
	DCB	0x0, "R", 0x0, "P", 0x0, "S", 0x0, "E", 0x0, "L", 0x0, "3"
	DCB	0x0, "_", 0x0, "C", 0x0, "O", 0x0, "R", 0x0, "E", 0x0, 0x0
	DCB	0x0					; `string'

  00000			 AREA	 |.rdata|, DATA, READONLY
|??_C@_1CI@GGCJOKBC@?$AAP?$AAM?$AA_?$AAI?$AAV?$AAA?$AA2?$AAG?$AAR?$AAP?$AAS?$AAE?$AAL?$AA3?$AA_?$AAC?$AAO?$AAR?$AAE?$AA?$AA@| DCB "P"
	DCB	0x0, "M", 0x0, "_", 0x0, "I", 0x0, "V", 0x0, "A", 0x0, "2"
	DCB	0x0, "G", 0x0, "R", 0x0, "P", 0x0, "S", 0x0, "E", 0x0, "L"
	DCB	0x0, "3", 0x0, "_", 0x0, "C", 0x0, "O", 0x0, "R", 0x0, "E"
	DCB	0x0, 0x0, 0x0				; `string'

  00000			 AREA	 |.rdata|, DATA, READONLY
|??_C@_1BM@EPPCFOGM@?$AAP?$AAM?$AA_?$AAW?$AAK?$AAE?$AAN?$AA3?$AA_?$AAC?$AAO?$AAR?$AAE?$AA?$AA@| DCB "P"
	DCB	0x0, "M", 0x0, "_", 0x0, "W", 0x0, "K", 0x0, "E", 0x0, "N"
	DCB	0x0, "3", 0x0, "_", 0x0, "C", 0x0, "O", 0x0, "R", 0x0, "E"
	DCB	0x0, 0x0, 0x0				; `string'

  00000			 AREA	 |.rdata|, DATA, READONLY
|??_C@_1CE@PMPEKLKF@?$AAP?$AAM?$AA_?$AAP?$AAR?$AAE?$AAP?$AAW?$AAS?$AAT?$AAS?$AAT?$AA_?$AAC?$AAO?$AAR?$AAE?$AA?$AA@| DCB "P"
	DCB	0x0, "M", 0x0, "_", 0x0, "P", 0x0, "R", 0x0, "E", 0x0, "P"
	DCB	0x0, "W", 0x0, "S", 0x0, "T", 0x0, "S", 0x0, "T", 0x0, "_"
	DCB	0x0, "C", 0x0, "O", 0x0, "R", 0x0, "E", 0x0, 0x0, 0x0 ; `string'

  00000			 AREA	 |.rdata|, DATA, READONLY
|??_C@_1BO@FAKFDILE@?$AAP?$AAM?$AA_?$AAP?$AAW?$AAS?$AAT?$AAS?$AAT?$AA_?$AAC?$AAO?$AAR?$AAE?$AA?$AA@| DCB "P"
	DCB	0x0, "M", 0x0, "_", 0x0, "P", 0x0, "W", 0x0, "S", 0x0, "T"
	DCB	0x0, "S", 0x0, "T", 0x0, "_", 0x0, "C", 0x0, "O", 0x0, "R"
	DCB	0x0, "E", 0x0, 0x0, 0x0			; `string'

  00000			 AREA	 |.rdata|, DATA, READONLY
|??_C@_1CC@HFDDDCG@?$AAP?$AAM?$AA_?$AAP?$AAW?$AAS?$AAT?$AAC?$AAT?$AAR?$AAL?$AA_?$AAC?$AAO?$AAR?$AAE?$AA?$AA@| DCB "P"
	DCB	0x0, "M", 0x0, "_", 0x0, "P", 0x0, "W", 0x0, "S", 0x0, "T"
	DCB	0x0, "C", 0x0, "T", 0x0, "R", 0x0, "L", 0x0, "_", 0x0, "C"
	DCB	0x0, "O", 0x0, "R", 0x0, "E", 0x0, 0x0, 0x0 ; `string'

  00000			 AREA	 |.rdata|, DATA, READONLY
|??_C@_1BM@HNLJDKED@?$AAP?$AAM?$AA_?$AAW?$AAK?$AAS?$AAT?$AA3?$AA_?$AAC?$AAO?$AAR?$AAE?$AA?$AA@| DCB "P"
	DCB	0x0, "M", 0x0, "_", 0x0, "W", 0x0, "K", 0x0, "S", 0x0, "T"
	DCB	0x0, "3", 0x0, "_", 0x0, "C", 0x0, "O", 0x0, "R", 0x0, "E"
	DCB	0x0, 0x0, 0x0				; `string'

  00000			 AREA	 |.rdata|, DATA, READONLY
|??_C@_1BM@JMNHPOOO@?$AAP?$AAM?$AA_?$AAW?$AAK?$AAS?$AAT?$AA1?$AA_?$AAC?$AAO?$AAR?$AAE?$AA?$AA@| DCB "P"
	DCB	0x0, "M", 0x0, "_", 0x0, "W", 0x0, "K", 0x0, "S", 0x0, "T"
	DCB	0x0, "1", 0x0, "_", 0x0, "C", 0x0, "O", 0x0, "R", 0x0, "E"
	DCB	0x0, 0x0, 0x0				; `string'

  00000			 AREA	 |.rdata|, DATA, READONLY
|??_C@_1CI@IHEHCOLP@?$AAP?$AAM?$AA_?$AAI?$AAV?$AAA?$AA2?$AAG?$AAR?$AAP?$AAS?$AAE?$AAL?$AA1?$AA_?$AAC?$AAO?$AAR?$AAE?$AA?$AA@| DCB "P"
	DCB	0x0, "M", 0x0, "_", 0x0, "I", 0x0, "V", 0x0, "A", 0x0, "2"
	DCB	0x0, "G", 0x0, "R", 0x0, "P", 0x0, "S", 0x0, "E", 0x0, "L"
	DCB	0x0, "1", 0x0, "_", 0x0, "C", 0x0, "O", 0x0, "R", 0x0, "E"
	DCB	0x0, 0x0, 0x0				; `string'

  00000			 AREA	 |.rdata|, DATA, READONLY
|??_C@_1CG@HJFNCJPA@?$AAP?$AAM?$AA_?$AAM?$AAP?$AAU?$AAG?$AAR?$AAP?$AAS?$AAE?$AAL?$AA1?$AA_?$AAC?$AAO?$AAR?$AAE?$AA?$AA@| DCB "P"
	DCB	0x0, "M", 0x0, "_", 0x0, "M", 0x0, "P", 0x0, "U", 0x0, "G"
	DCB	0x0, "R", 0x0, "P", 0x0, "S", 0x0, "E", 0x0, "L", 0x0, "1"
	DCB	0x0, "_", 0x0, "C", 0x0, "O", 0x0, "R", 0x0, "E", 0x0, 0x0
	DCB	0x0					; `string'

  00000			 AREA	 |.rdata|, DATA, READONLY
|??_C@_1BM@KOJMJKMB@?$AAP?$AAM?$AA_?$AAW?$AAK?$AAE?$AAN?$AA1?$AA_?$AAC?$AAO?$AAR?$AAE?$AA?$AA@| DCB "P"
	DCB	0x0, "M", 0x0, "_", 0x0, "W", 0x0, "K", 0x0, "E", 0x0, "N"
	DCB	0x0, "1", 0x0, "_", 0x0, "C", 0x0, "O", 0x0, "R", 0x0, "E"
	DCB	0x0, 0x0, 0x0				; `string'

  00000			 AREA	 |.rdata|, DATA, READONLY
|??_C@_1BM@LNIBJNNG@?$AAR?$AAM?$AA_?$AAR?$AAS?$AAT?$AAS?$AAT?$AA_?$AAC?$AAO?$AAR?$AAE?$AA?$AA@| DCB "R"
	DCB	0x0, "M", 0x0, "_", 0x0, "R", 0x0, "S", 0x0, "T", 0x0, "S"
	DCB	0x0, "T", 0x0, "_", 0x0, "C", 0x0, "O", 0x0, "R", 0x0, "E"
	DCB	0x0, 0x0, 0x0				; `string'

  00000			 AREA	 |.rdata|, DATA, READONLY
|??_C@_1BC@DDNPMELP@?$AAC?$AAO?$AAR?$AAE?$AA_?$AAP?$AAR?$AAM?$AA?$AA@| DCB "C"
	DCB	0x0, "O", 0x0, "R", 0x0, "E", 0x0, "_", 0x0, "P", 0x0, "R"
	DCB	0x0, "M", 0x0, 0x0, 0x0			; `string'

  00000			 AREA	 |.rdata|, DATA, READONLY
|??_C@_1CC@GGGLCCOF@?$AAP?$AAM?$AA_?$AAP?$AAR?$AAE?$AAP?$AAW?$AAS?$AAT?$AAS?$AAT?$AA_?$AAM?$AAP?$AAU?$AA?$AA@| DCB "P"
	DCB	0x0, "M", 0x0, "_", 0x0, "P", 0x0, "R", 0x0, "E", 0x0, "P"
	DCB	0x0, "W", 0x0, "S", 0x0, "T", 0x0, "S", 0x0, "T", 0x0, "_"
	DCB	0x0, "M", 0x0, "P", 0x0, "U", 0x0, 0x0, 0x0 ; `string'

  00000			 AREA	 |.rdata|, DATA, READONLY
|??_C@_1BM@LELJCJGF@?$AAP?$AAM?$AA_?$AAP?$AAW?$AAS?$AAT?$AAS?$AAT?$AA_?$AAM?$AAP?$AAU?$AA?$AA@| DCB "P"
	DCB	0x0, "M", 0x0, "_", 0x0, "P", 0x0, "W", 0x0, "S", 0x0, "T"
	DCB	0x0, "S", 0x0, "T", 0x0, "_", 0x0, "M", 0x0, "P", 0x0, "U"
	DCB	0x0, 0x0, 0x0				; `string'

  00000			 AREA	 |.rdata|, DATA, READONLY
|??_C@_1CA@GOJLPOGC@?$AAP?$AAM?$AA_?$AAP?$AAW?$AAS?$AAT?$AAC?$AAT?$AAR?$AAL?$AA_?$AAM?$AAP?$AAU?$AA?$AA@| DCB "P"
	DCB	0x0, "M", 0x0, "_", 0x0, "P", 0x0, "W", 0x0, "S", 0x0, "T"
	DCB	0x0, "C", 0x0, "T", 0x0, "R", 0x0, "L", 0x0, "_", 0x0, "M"
	DCB	0x0, "P", 0x0, "U", 0x0, 0x0, 0x0	; `string'

  00000			 AREA	 |.rdata|, DATA, READONLY
|??_C@_1CG@EAPFPBNK@?$AAP?$AAM?$AA_?$AAE?$AAV?$AAG?$AAE?$AAN?$AAO?$AAF?$AAF?$AAT?$AAI?$AAM?$AA_?$AAM?$AAP?$AAU?$AA?$AA@| DCB "P"
	DCB	0x0, "M", 0x0, "_", 0x0, "E", 0x0, "V", 0x0, "G", 0x0, "E"
	DCB	0x0, "N", 0x0, "O", 0x0, "F", 0x0, "F", 0x0, "T", 0x0, "I"
	DCB	0x0, "M", 0x0, "_", 0x0, "M", 0x0, "P", 0x0, "U", 0x0, 0x0
	DCB	0x0					; `string'

  00000			 AREA	 |.rdata|, DATA, READONLY
|??_C@_1CE@GDJAJDKH@?$AAP?$AAM?$AA_?$AAE?$AAV?$AAG?$AAE?$AAN?$AAO?$AAN?$AAT?$AAI?$AAM?$AA_?$AAM?$AAP?$AAU?$AA?$AA@| DCB "P"
	DCB	0x0, "M", 0x0, "_", 0x0, "E", 0x0, "V", 0x0, "G", 0x0, "E"
	DCB	0x0, "N", 0x0, "O", 0x0, "N", 0x0, "T", 0x0, "I", 0x0, "M"
	DCB	0x0, "_", 0x0, "M", 0x0, "P", 0x0, "U", 0x0, 0x0, 0x0 ; `string'

  00000			 AREA	 |.rdata|, DATA, READONLY
|??_C@_1CC@MKEFHNLB@?$AAP?$AAM?$AA_?$AAE?$AAV?$AAG?$AAE?$AAN?$AAC?$AAT?$AAR?$AAL?$AA_?$AAM?$AAP?$AAU?$AA?$AA@| DCB "P"
	DCB	0x0, "M", 0x0, "_", 0x0, "E", 0x0, "V", 0x0, "G", 0x0, "E"
	DCB	0x0, "N", 0x0, "C", 0x0, "T", 0x0, "R", 0x0, "L", 0x0, "_"
	DCB	0x0, "M", 0x0, "P", 0x0, "U", 0x0, 0x0, 0x0 ; `string'

  00000			 AREA	 |.rdata|, DATA, READONLY
|??_C@_1BK@OHJOBLPO@?$AAP?$AAM?$AA_?$AAW?$AAK?$AAD?$AAE?$AAP?$AA_?$AAM?$AAP?$AAU?$AA?$AA@| DCB "P"
	DCB	0x0, "M", 0x0, "_", 0x0, "W", 0x0, "K", 0x0, "D", 0x0, "E"
	DCB	0x0, "P", 0x0, "_", 0x0, "M", 0x0, "P", 0x0, "U", 0x0, 0x0
	DCB	0x0					; `string'

  00000			 AREA	 |.rdata|, DATA, READONLY
|??_C@_1BK@JLPNAAKB@?$AAR?$AAM?$AA_?$AAR?$AAS?$AAT?$AAS?$AAT?$AA_?$AAM?$AAP?$AAU?$AA?$AA@| DCB "R"
	DCB	0x0, "M", 0x0, "_", 0x0, "R", 0x0, "S", 0x0, "T", 0x0, "S"
	DCB	0x0, "T", 0x0, "_", 0x0, "M", 0x0, "P", 0x0, "U", 0x0, 0x0
	DCB	0x0					; `string'

  00000			 AREA	 |.rdata|, DATA, READONLY
|??_C@_1BA@ICKCOBJH@?$AAM?$AAP?$AAU?$AA_?$AAP?$AAR?$AAM?$AA?$AA@| DCB "M", 0x0
	DCB	"P", 0x0, "U", 0x0, "_", 0x0, "P", 0x0, "R", 0x0, "M", 0x0
	DCB	0x0, 0x0				; `string'

  00000			 AREA	 |.rdata|, DATA, READONLY
|??_C@_1CE@BEHICOCH@?$AAP?$AAR?$AAM?$AA_?$AAI?$AAR?$AAQ?$AAE?$AAN?$AAA?$AAB?$AAL?$AAE?$AA_?$AAM?$AAP?$AAU?$AA?$AA@| DCB "P"
	DCB	0x0, "R", 0x0, "M", 0x0, "_", 0x0, "I", 0x0, "R", 0x0, "Q"
	DCB	0x0, "E", 0x0, "N", 0x0, "A", 0x0, "B", 0x0, "L", 0x0, "E"
	DCB	0x0, "_", 0x0, "M", 0x0, "P", 0x0, "U", 0x0, 0x0, 0x0 ; `string'

  00000			 AREA	 |.rdata|, DATA, READONLY
|??_C@_1CE@OGNKOJLH@?$AAP?$AAR?$AAM?$AA_?$AAI?$AAR?$AAQ?$AAS?$AAT?$AAA?$AAT?$AAU?$AAS?$AA_?$AAM?$AAP?$AAU?$AA?$AA@| DCB "P"
	DCB	0x0, "R", 0x0, "M", 0x0, "_", 0x0, "I", 0x0, "R", 0x0, "Q"
	DCB	0x0, "S", 0x0, "T", 0x0, "A", 0x0, "T", 0x0, "U", 0x0, "S"
	DCB	0x0, "_", 0x0, "M", 0x0, "P", 0x0, "U", 0x0, 0x0, 0x0 ; `string'

  00000			 AREA	 |.rdata|, DATA, READONLY
|??_C@_1BM@BIKNBGAP@?$AAP?$AAR?$AAM?$AA_?$AAS?$AAY?$AAS?$AAC?$AAO?$AAN?$AAF?$AAI?$AAG?$AA?$AA@| DCB "P"
	DCB	0x0, "R", 0x0, "M", 0x0, "_", 0x0, "S", 0x0, "Y", 0x0, "S"
	DCB	0x0, "C", 0x0, "O", 0x0, "N", 0x0, "F", 0x0, "I", 0x0, "G"
	DCB	0x0, 0x0, 0x0				; `string'

  00000			 AREA	 |.rdata|, DATA, READONLY
|??_C@_1BK@HJNIKPGD@?$AAP?$AAR?$AAM?$AA_?$AAR?$AAE?$AAV?$AAI?$AAS?$AAI?$AAO?$AAN?$AA?$AA@| DCB "P"
	DCB	0x0, "R", 0x0, "M", 0x0, "_", 0x0, "R", 0x0, "E", 0x0, "V"
	DCB	0x0, "I", 0x0, "S", 0x0, "I", 0x0, "O", 0x0, "N", 0x0, 0x0
	DCB	0x0					; `string'

  00000			 AREA	 |.rdata|, DATA, READONLY
|??_C@_1CG@MLMHCLLI@?$AAO?$AAC?$AAP?$AA_?$AAS?$AAy?$AAs?$AAt?$AAe?$AAm?$AA_?$AAR?$AAe?$AAg?$AA_?$AAP?$AAR?$AAM?$AA?$AA@| DCB "O"
	DCB	0x0, "C", 0x0, "P", 0x0, "_", 0x0, "S", 0x0, "y", 0x0, "s"
	DCB	0x0, "t", 0x0, "e", 0x0, "m", 0x0, "_", 0x0, "R", 0x0, "e"
	DCB	0x0, "g", 0x0, "_", 0x0, "P", 0x0, "R", 0x0, "M", 0x0, 0x0
	DCB	0x0					; `string'

  00000			 AREA	 |.rdata|, DATA, READONLY
|??_C@_1CG@LPCHCII@?$AAP?$AAR?$AAM?$AA_?$AAI?$AAR?$AAQ?$AAE?$AAN?$AAA?$AAB?$AAL?$AAE?$AA_?$AAI?$AAV?$AAA?$AA2?$AA?$AA@| DCB "P"
	DCB	0x0, "R", 0x0, "M", 0x0, "_", 0x0, "I", 0x0, "R", 0x0, "Q"
	DCB	0x0, "E", 0x0, "N", 0x0, "A", 0x0, "B", 0x0, "L", 0x0, "E"
	DCB	0x0, "_", 0x0, "I", 0x0, "V", 0x0, "A", 0x0, "2", 0x0, 0x0
	DCB	0x0					; `string'

  00000			 AREA	 |.rdata|, DATA, READONLY
|??_C@_1CG@HPLDFNCD@?$AAP?$AAR?$AAM?$AA_?$AAI?$AAR?$AAQ?$AAS?$AAT?$AAA?$AAT?$AAU?$AAS?$AA_?$AAI?$AAV?$AAA?$AA2?$AA?$AA@| DCB "P"
	DCB	0x0, "R", 0x0, "M", 0x0, "_", 0x0, "I", 0x0, "R", 0x0, "Q"
	DCB	0x0, "S", 0x0, "T", 0x0, "A", 0x0, "T", 0x0, "U", 0x0, "S"
	DCB	0x0, "_", 0x0, "I", 0x0, "V", 0x0, "A", 0x0, "2", 0x0, 0x0
	DCB	0x0					; `string'

  00000			 AREA	 |.rdata|, DATA, READONLY
|??_C@_1CE@PLIIPJHM@?$AAP?$AAM?$AA_?$AAP?$AAR?$AAE?$AAP?$AAW?$AAS?$AAT?$AAS?$AAT?$AA_?$AAI?$AAV?$AAA?$AA2?$AA?$AA@| DCB "P"
	DCB	0x0, "M", 0x0, "_", 0x0, "P", 0x0, "R", 0x0, "E", 0x0, "P"
	DCB	0x0, "W", 0x0, "S", 0x0, "T", 0x0, "S", 0x0, "T", 0x0, "_"
	DCB	0x0, "I", 0x0, "V", 0x0, "A", 0x0, "2", 0x0, 0x0, 0x0 ; `string'

  00000			 AREA	 |.rdata|, DATA, READONLY
|??_C@_1BO@FHNJGKGN@?$AAP?$AAM?$AA_?$AAP?$AAW?$AAS?$AAT?$AAS?$AAT?$AA_?$AAI?$AAV?$AAA?$AA2?$AA?$AA@| DCB "P"
	DCB	0x0, "M", 0x0, "_", 0x0, "P", 0x0, "W", 0x0, "S", 0x0, "T"
	DCB	0x0, "S", 0x0, "T", 0x0, "_", 0x0, "I", 0x0, "V", 0x0, "A"
	DCB	0x0, "2", 0x0, 0x0, 0x0			; `string'

  00000			 AREA	 |.rdata|, DATA, READONLY
|??_C@_1CC@CPGBPP@?$AAP?$AAM?$AA_?$AAP?$AAW?$AAS?$AAT?$AAC?$AAT?$AAR?$AAL?$AA_?$AAI?$AAV?$AAA?$AA2?$AA?$AA@| DCB "P"
	DCB	0x0, "M", 0x0, "_", 0x0, "P", 0x0, "W", 0x0, "S", 0x0, "T"
	DCB	0x0, "C", 0x0, "T", 0x0, "R", 0x0, "L", 0x0, "_", 0x0, "I"
	DCB	0x0, "V", 0x0, "A", 0x0, "2", 0x0, 0x0, 0x0 ; `string'

  00000			 AREA	 |.rdata|, DATA, READONLY
|??_C@_1BM@NLLDLBL@?$AAP?$AAM?$AA_?$AAW?$AAK?$AAD?$AAE?$AAP?$AA_?$AAI?$AAV?$AAA?$AA2?$AA?$AA@| DCB "P"
	DCB	0x0, "M", 0x0, "_", 0x0, "W", 0x0, "K", 0x0, "D", 0x0, "E"
	DCB	0x0, "P", 0x0, "_", 0x0, "I", 0x0, "V", 0x0, "A", 0x0, "2"
	DCB	0x0, 0x0, 0x0				; `string'

  00000			 AREA	 |.rdata|, DATA, READONLY
|??_C@_1BM@LKPNMPAP@?$AAR?$AAM?$AA_?$AAR?$AAS?$AAT?$AAS?$AAT?$AA_?$AAI?$AAV?$AAA?$AA2?$AA?$AA@| DCB "R"
	DCB	0x0, "M", 0x0, "_", 0x0, "R", 0x0, "S", 0x0, "T", 0x0, "S"
	DCB	0x0, "T", 0x0, "_", 0x0, "I", 0x0, "V", 0x0, "A", 0x0, "2"
	DCB	0x0, 0x0, 0x0				; `string'

  00000			 AREA	 |.rdata|, DATA, READONLY
|??_C@_1CA@GBOALOJP@?$AAR?$AAM?$AA_?$AAR?$AAS?$AAT?$AAC?$AAT?$AAR?$AAL?$AA_?$AAI?$AAV?$AAA?$AA2?$AA?$AA@| DCB "R"
	DCB	0x0, "M", 0x0, "_", 0x0, "R", 0x0, "S", 0x0, "T", 0x0, "C"
	DCB	0x0, "T", 0x0, "R", 0x0, "L", 0x0, "_", 0x0, "I", 0x0, "V"
	DCB	0x0, "A", 0x0, "2", 0x0, 0x0, 0x0	; `string'

  00000			 AREA	 |.rdata|, DATA, READONLY
|??_C@_1BC@FAAHEALM@?$AAI?$AAV?$AAA?$AA2?$AA_?$AAP?$AAR?$AAM?$AA?$AA@| DCB "I"
	DCB	0x0, "V", 0x0, "A", 0x0, "2", 0x0, "_", 0x0, "P", 0x0, "R"
	DCB	0x0, "M", 0x0, 0x0, 0x0			; `string'

  00000			 AREA	 |.rdata|, DATA, READONLY
|??_C@_1CG@EKKJOCAI@?$AAC?$AAM?$AA_?$AAC?$AAL?$AAK?$AAS?$AAT?$AAS?$AAT?$AA_?$AAU?$AAS?$AAB?$AAH?$AAO?$AAS?$AAT?$AA?$AA@| DCB "C"
	DCB	0x0, "M", 0x0, "_", 0x0, "C", 0x0, "L", 0x0, "K", 0x0, "S"
	DCB	0x0, "T", 0x0, "S", 0x0, "T", 0x0, "_", 0x0, "U", 0x0, "S"
	DCB	0x0, "B", 0x0, "H", 0x0, "O", 0x0, "S", 0x0, "T", 0x0, 0x0
	DCB	0x0					; `string'

  00000			 AREA	 |.rdata|, DATA, READONLY
|??_C@_1CK@EGBEEDCG@?$AAC?$AAM?$AA_?$AAC?$AAL?$AAK?$AAS?$AAT?$AAC?$AAT?$AAR?$AAL?$AA_?$AAU?$AAS?$AAB?$AAH?$AAO?$AAS?$AAT?$AA?$AA@| DCB "C"
	DCB	0x0, "M", 0x0, "_", 0x0, "C", 0x0, "L", 0x0, "K", 0x0, "S"
	DCB	0x0, "T", 0x0, "C", 0x0, "T", 0x0, "R", 0x0, "L", 0x0, "_"
	DCB	0x0, "U", 0x0, "S", 0x0, "B", 0x0, "H", 0x0, "O", 0x0, "S"
	DCB	0x0, "T", 0x0, 0x0, 0x0			; `string'

  00000			 AREA	 |.rdata|, DATA, READONLY
|??_C@_1CI@GKCHFPIN@?$AAC?$AAM?$AA_?$AAS?$AAL?$AAE?$AAE?$AAP?$AAD?$AAE?$AAP?$AA_?$AAU?$AAS?$AAB?$AAH?$AAO?$AAS?$AAT?$AA?$AA@| DCB "C"
	DCB	0x0, "M", 0x0, "_", 0x0, "S", 0x0, "L", 0x0, "E", 0x0, "E"
	DCB	0x0, "P", 0x0, "D", 0x0, "E", 0x0, "P", 0x0, "_", 0x0, "U"
	DCB	0x0, "S", 0x0, "B", 0x0, "H", 0x0, "O", 0x0, "S", 0x0, "T"
	DCB	0x0, 0x0, 0x0				; `string'

  00000			 AREA	 |.rdata|, DATA, READONLY
|??_C@_1CI@DGALJPCE@?$AAC?$AAM?$AA_?$AAA?$AAU?$AAT?$AAO?$AAI?$AAD?$AAL?$AAE?$AA_?$AAU?$AAS?$AAB?$AAH?$AAO?$AAS?$AAT?$AA?$AA@| DCB "C"
	DCB	0x0, "M", 0x0, "_", 0x0, "A", 0x0, "U", 0x0, "T", 0x0, "O"
	DCB	0x0, "I", 0x0, "D", 0x0, "L", 0x0, "E", 0x0, "_", 0x0, "U"
	DCB	0x0, "S", 0x0, "B", 0x0, "H", 0x0, "O", 0x0, "S", 0x0, "T"
	DCB	0x0, 0x0, 0x0				; `string'

  00000			 AREA	 |.rdata|, DATA, READONLY
|??_C@_1CE@JPANCJP@?$AAC?$AAM?$AA_?$AAI?$AAD?$AAL?$AAE?$AAS?$AAT?$AA_?$AAU?$AAS?$AAB?$AAH?$AAO?$AAS?$AAT?$AA?$AA@| DCB "C"
	DCB	0x0, "M", 0x0, "_", 0x0, "I", 0x0, "D", 0x0, "L", 0x0, "E"
	DCB	0x0, "S", 0x0, "T", 0x0, "_", 0x0, "U", 0x0, "S", 0x0, "B"
	DCB	0x0, "H", 0x0, "O", 0x0, "S", 0x0, "T", 0x0, 0x0, 0x0 ; `string'

  00000			 AREA	 |.rdata|, DATA, READONLY
|??_C@_1CE@DBMFEPI@?$AAC?$AAM?$AA_?$AAI?$AAC?$AAL?$AAK?$AAE?$AAN?$AA_?$AAU?$AAS?$AAB?$AAH?$AAO?$AAS?$AAT?$AA?$AA@| DCB "C"
	DCB	0x0, "M", 0x0, "_", 0x0, "I", 0x0, "C", 0x0, "L", 0x0, "K"
	DCB	0x0, "E", 0x0, "N", 0x0, "_", 0x0, "U", 0x0, "S", 0x0, "B"
	DCB	0x0, "H", 0x0, "O", 0x0, "S", 0x0, "T", 0x0, 0x0, 0x0 ; `string'

  00000			 AREA	 |.rdata|, DATA, READONLY
|??_C@_1CE@IOEIODMB@?$AAC?$AAM?$AA_?$AAF?$AAC?$AAL?$AAK?$AAE?$AAN?$AA_?$AAU?$AAS?$AAB?$AAH?$AAO?$AAS?$AAT?$AA?$AA@| DCB "C"
	DCB	0x0, "M", 0x0, "_", 0x0, "F", 0x0, "C", 0x0, "L", 0x0, "K"
	DCB	0x0, "E", 0x0, "N", 0x0, "_", 0x0, "U", 0x0, "S", 0x0, "B"
	DCB	0x0, "H", 0x0, "O", 0x0, "S", 0x0, "T", 0x0, 0x0, 0x0 ; `string'

  00000			 AREA	 |.rdata|, DATA, READONLY
|??_C@_1BG@GHMGBAHH@?$AAU?$AAS?$AAB?$AAH?$AAO?$AAS?$AAT?$AA_?$AAC?$AAM?$AA?$AA@| DCB "U"
	DCB	0x0, "S", 0x0, "B", 0x0, "H", 0x0, "O", 0x0, "S", 0x0, "T"
	DCB	0x0, "_", 0x0, "C", 0x0, "M", 0x0, 0x0, 0x0 ; `string'

  00000			 AREA	 |.rdata|, DATA, READONLY
|??_C@_1CE@ECPHHBNM@?$AAC?$AAM?$AA_?$AAC?$AAL?$AAK?$AAS?$AAT?$AAC?$AAT?$AAR?$AAL?$AA_?$AAN?$AAE?$AAO?$AAN?$AA?$AA@| DCB "C"
	DCB	0x0, "M", 0x0, "_", 0x0, "C", 0x0, "L", 0x0, "K", 0x0, "S"
	DCB	0x0, "T", 0x0, "C", 0x0, "T", 0x0, "R", 0x0, "L", 0x0, "_"
	DCB	0x0, "N", 0x0, "E", 0x0, "O", 0x0, "N", 0x0, 0x0, 0x0 ; `string'

  00000			 AREA	 |.rdata|, DATA, READONLY
|??_C@_1BO@IJPLNAMK@?$AAC?$AAM?$AA_?$AAI?$AAD?$AAL?$AAE?$AAS?$AAT?$AA_?$AAN?$AAE?$AAO?$AAN?$AA?$AA@| DCB "C"
	DCB	0x0, "M", 0x0, "_", 0x0, "I", 0x0, "D", 0x0, "L", 0x0, "E"
	DCB	0x0, "S", 0x0, "T", 0x0, "_", 0x0, "N", 0x0, "E", 0x0, "O"
	DCB	0x0, "N", 0x0, 0x0, 0x0			; `string'

  00000			 AREA	 |.rdata|, DATA, READONLY
|??_C@_1BA@HGJCCLLN@?$AAN?$AAE?$AAO?$AAN?$AA_?$AAC?$AAM?$AA?$AA@| DCB "N", 0x0
	DCB	"E", 0x0, "O", 0x0, "N", 0x0, "_", 0x0, "C", 0x0, "M", 0x0
	DCB	0x0, 0x0				; `string'

  00000			 AREA	 |.rdata|, DATA, READONLY
|??_C@_1BG@JLGAJAMH@?$AAC?$AAM?$AA_?$AAP?$AAO?$AAL?$AAC?$AAT?$AAR?$AAL?$AA?$AA@| DCB "C"
	DCB	0x0, "M", 0x0, "_", 0x0, "P", 0x0, "O", 0x0, "L", 0x0, "C"
	DCB	0x0, "T", 0x0, "R", 0x0, "L", 0x0, 0x0, 0x0 ; `string'

  00000			 AREA	 |.rdata|, DATA, READONLY
|??_C@_1BM@KLCMOAEB@?$AAG?$AAl?$AAo?$AAb?$AAa?$AAl?$AA_?$AAR?$AAe?$AAg?$AA_?$AAC?$AAM?$AA?$AA@| DCB "G"
	DCB	0x0, "l", 0x0, "o", 0x0, "b", 0x0, "a", 0x0, "l", 0x0, "_"
	DCB	0x0, "R", 0x0, "e", 0x0, "g", 0x0, "_", 0x0, "C", 0x0, "M"
	DCB	0x0, 0x0, 0x0				; `string'

  00000			 AREA	 |.rdata|, DATA, READONLY
|??_C@_1BO@DFKMIPJP@?$AAC?$AAM?$AA_?$AAC?$AAL?$AAK?$AAS?$AAE?$AAL?$AA3?$AA_?$AAE?$AAM?$AAU?$AA?$AA@| DCB "C"
	DCB	0x0, "M", 0x0, "_", 0x0, "C", 0x0, "L", 0x0, "K", 0x0, "S"
	DCB	0x0, "E", 0x0, "L", 0x0, "3", 0x0, "_", 0x0, "E", 0x0, "M"
	DCB	0x0, "U", 0x0, 0x0, 0x0			; `string'

  00000			 AREA	 |.rdata|, DATA, READONLY
|??_C@_1BO@KOAJMDPA@?$AAC?$AAM?$AA_?$AAC?$AAL?$AAK?$AAS?$AAE?$AAL?$AA2?$AA_?$AAE?$AAM?$AAU?$AA?$AA@| DCB "C"
	DCB	0x0, "M", 0x0, "_", 0x0, "C", 0x0, "L", 0x0, "K", 0x0, "S"
	DCB	0x0, "E", 0x0, "L", 0x0, "2", 0x0, "_", 0x0, "E", 0x0, "M"
	DCB	0x0, "U", 0x0, 0x0, 0x0			; `string'

  00000			 AREA	 |.rdata|, DATA, READONLY
|??_C@_1BO@BBAPCNIN@?$AAC?$AAM?$AA_?$AAC?$AAL?$AAK?$AAS?$AAT?$AAS?$AAT?$AA_?$AAE?$AAM?$AAU?$AA?$AA@| DCB "C"
	DCB	0x0, "M", 0x0, "_", 0x0, "C", 0x0, "L", 0x0, "K", 0x0, "S"
	DCB	0x0, "T", 0x0, "S", 0x0, "T", 0x0, "_", 0x0, "E", 0x0, "M"
	DCB	0x0, "U", 0x0, 0x0, 0x0			; `string'

  00000			 AREA	 |.rdata|, DATA, READONLY
|??_C@_1CC@NGILBHGG@?$AAC?$AAM?$AA_?$AAC?$AAL?$AAK?$AAS?$AAT?$AAC?$AAT?$AAR?$AAL?$AA_?$AAE?$AAM?$AAU?$AA?$AA@| DCB "C"
	DCB	0x0, "M", 0x0, "_", 0x0, "C", 0x0, "L", 0x0, "K", 0x0, "S"
	DCB	0x0, "T", 0x0, "C", 0x0, "T", 0x0, "R", 0x0, "L", 0x0, "_"
	DCB	0x0, "E", 0x0, "M", 0x0, "U", 0x0, 0x0, 0x0 ; `string'

  00000			 AREA	 |.rdata|, DATA, READONLY
|??_C@_1BO@NJJHBBAA@?$AAC?$AAM?$AA_?$AAC?$AAL?$AAK?$AAS?$AAE?$AAL?$AA1?$AA_?$AAE?$AAM?$AAU?$AA?$AA@| DCB "C"
	DCB	0x0, "M", 0x0, "_", 0x0, "C", 0x0, "L", 0x0, "K", 0x0, "S"
	DCB	0x0, "E", 0x0, "L", 0x0, "1", 0x0, "_", 0x0, "E", 0x0, "M"
	DCB	0x0, "U", 0x0, 0x0, 0x0			; `string'

  00000			 AREA	 |.rdata|, DATA, READONLY
|??_C@_1O@HGBLPNPO@?$AAE?$AAM?$AAU?$AA_?$AAC?$AAM?$AA?$AA@| DCB "E", 0x0, "M"
	DCB	0x0, "U", 0x0, "_", 0x0, "C", 0x0, "M", 0x0, 0x0, 0x0 ; `string'

  00000			 AREA	 |.rdata|, DATA, READONLY
|??_C@_1BO@FENAKIBG@?$AAC?$AAM?$AA_?$AAC?$AAL?$AAK?$AAS?$AAT?$AAS?$AAT?$AA_?$AAP?$AAE?$AAR?$AA?$AA@| DCB "C"
	DCB	0x0, "M", 0x0, "_", 0x0, "C", 0x0, "L", 0x0, "K", 0x0, "S"
	DCB	0x0, "T", 0x0, "S", 0x0, "T", 0x0, "_", 0x0, "P", 0x0, "E"
	DCB	0x0, "R", 0x0, 0x0, 0x0			; `string'

  00000			 AREA	 |.rdata|, DATA, READONLY
|??_C@_1CC@JDFEJCPN@?$AAC?$AAM?$AA_?$AAC?$AAL?$AAK?$AAS?$AAT?$AAC?$AAT?$AAR?$AAL?$AA_?$AAP?$AAE?$AAR?$AA?$AA@| DCB "C"
	DCB	0x0, "M", 0x0, "_", 0x0, "C", 0x0, "L", 0x0, "K", 0x0, "S"
	DCB	0x0, "T", 0x0, "C", 0x0, "T", 0x0, "R", 0x0, "L", 0x0, "_"
	DCB	0x0, "P", 0x0, "E", 0x0, "R", 0x0, 0x0, 0x0 ; `string'

  00000			 AREA	 |.rdata|, DATA, READONLY
|??_C@_1CA@OCEIBJJL@?$AAC?$AAM?$AA_?$AAS?$AAL?$AAE?$AAE?$AAP?$AAD?$AAE?$AAP?$AA_?$AAP?$AAE?$AAR?$AA?$AA@| DCB "C"
	DCB	0x0, "M", 0x0, "_", 0x0, "S", 0x0, "L", 0x0, "E", 0x0, "E"
	DCB	0x0, "P", 0x0, "D", 0x0, "E", 0x0, "P", 0x0, "_", 0x0, "P"
	DCB	0x0, "E", 0x0, "R", 0x0, 0x0, 0x0	; `string'

  00000			 AREA	 |.rdata|, DATA, READONLY
|??_C@_1BM@JGBOEBBM@?$AAC?$AAM?$AA_?$AAC?$AAL?$AAK?$AAS?$AAE?$AAL?$AA_?$AAP?$AAE?$AAR?$AA?$AA@| DCB "C"
	DCB	0x0, "M", 0x0, "_", 0x0, "C", 0x0, "L", 0x0, "K", 0x0, "S"
	DCB	0x0, "E", 0x0, "L", 0x0, "_", 0x0, "P", 0x0, "E", 0x0, "R"
	DCB	0x0, 0x0, 0x0				; `string'

  00000			 AREA	 |.rdata|, DATA, READONLY
|??_C@_1CA@HEJEIAMO@?$AAC?$AAM?$AA_?$AAA?$AAU?$AAT?$AAO?$AAI?$AAD?$AAL?$AAE?$AA_?$AAP?$AAE?$AAR?$AA?$AA@| DCB "C"
	DCB	0x0, "M", 0x0, "_", 0x0, "A", 0x0, "U", 0x0, "T", 0x0, "O"
	DCB	0x0, "I", 0x0, "D", 0x0, "L", 0x0, "E", 0x0, "_", 0x0, "P"
	DCB	0x0, "E", 0x0, "R", 0x0, 0x0, 0x0	; `string'

  00000			 AREA	 |.rdata|, DATA, READONLY
|??_C@_1BM@FMCKMJOI@?$AAC?$AAM?$AA_?$AAI?$AAD?$AAL?$AAE?$AAS?$AAT?$AA_?$AAP?$AAE?$AAR?$AA?$AA@| DCB "C"
	DCB	0x0, "M", 0x0, "_", 0x0, "I", 0x0, "D", 0x0, "L", 0x0, "E"
	DCB	0x0, "S", 0x0, "T", 0x0, "_", 0x0, "P", 0x0, "E", 0x0, "R"
	DCB	0x0, 0x0, 0x0				; `string'

  00000			 AREA	 |.rdata|, DATA, READONLY
|??_C@_1BM@OFLDOLJH@?$AAC?$AAM?$AA_?$AAI?$AAC?$AAL?$AAK?$AAE?$AAN?$AA_?$AAP?$AAE?$AAR?$AA?$AA@| DCB "C"
	DCB	0x0, "M", 0x0, "_", 0x0, "I", 0x0, "C", 0x0, "L", 0x0, "K"
	DCB	0x0, "E", 0x0, "N", 0x0, "_", 0x0, "P", 0x0, "E", 0x0, "R"
	DCB	0x0, 0x0, 0x0				; `string'

  00000			 AREA	 |.rdata|, DATA, READONLY
|??_C@_1BM@DJCJPDNH@?$AAC?$AAM?$AA_?$AAF?$AAC?$AAL?$AAK?$AAE?$AAN?$AA_?$AAP?$AAE?$AAR?$AA?$AA@| DCB "C"
	DCB	0x0, "M", 0x0, "_", 0x0, "F", 0x0, "C", 0x0, "L", 0x0, "K"
	DCB	0x0, "E", 0x0, "N", 0x0, "_", 0x0, "P", 0x0, "E", 0x0, "R"
	DCB	0x0, 0x0, 0x0				; `string'

  00000			 AREA	 |.rdata|, DATA, READONLY
|??_C@_1O@HANKMCHI@?$AAP?$AAE?$AAR?$AA_?$AAC?$AAM?$AA?$AA@| DCB "P", 0x0, "E"
	DCB	0x0, "R", 0x0, "_", 0x0, "C", 0x0, "M", 0x0, 0x0, 0x0 ; `string'

  00000			 AREA	 |.rdata|, DATA, READONLY
|??_C@_1BO@DFAPJLAB@?$AAC?$AAM?$AA_?$AAC?$AAL?$AAK?$AAS?$AAT?$AAS?$AAT?$AA_?$AAC?$AAA?$AAM?$AA?$AA@| DCB "C"
	DCB	0x0, "M", 0x0, "_", 0x0, "C", 0x0, "L", 0x0, "K", 0x0, "S"
	DCB	0x0, "T", 0x0, "S", 0x0, "T", 0x0, "_", 0x0, "C", 0x0, "A"
	DCB	0x0, "M", 0x0, 0x0, 0x0			; `string'

  00000			 AREA	 |.rdata|, DATA, READONLY
|??_C@_1CC@PCILKBOK@?$AAC?$AAM?$AA_?$AAC?$AAL?$AAK?$AAS?$AAT?$AAC?$AAT?$AAR?$AAL?$AA_?$AAC?$AAA?$AAM?$AA?$AA@| DCB "C"
	DCB	0x0, "M", 0x0, "_", 0x0, "C", 0x0, "L", 0x0, "K", 0x0, "S"
	DCB	0x0, "T", 0x0, "C", 0x0, "T", 0x0, "R", 0x0, "L", 0x0, "_"
	DCB	0x0, "C", 0x0, "A", 0x0, "M", 0x0, 0x0, 0x0 ; `string'

  00000			 AREA	 |.rdata|, DATA, READONLY
|??_C@_1CA@IDJHCKIM@?$AAC?$AAM?$AA_?$AAS?$AAL?$AAE?$AAE?$AAP?$AAD?$AAE?$AAP?$AA_?$AAC?$AAA?$AAM?$AA?$AA@| DCB "C"
	DCB	0x0, "M", 0x0, "_", 0x0, "S", 0x0, "L", 0x0, "E", 0x0, "E"
	DCB	0x0, "P", 0x0, "D", 0x0, "E", 0x0, "P", 0x0, "_", 0x0, "C"
	DCB	0x0, "A", 0x0, "M", 0x0, 0x0, 0x0	; `string'

  00000			 AREA	 |.rdata|, DATA, READONLY
|??_C@_1BM@PHMBHCAL@?$AAC?$AAM?$AA_?$AAC?$AAL?$AAK?$AAS?$AAE?$AAL?$AA_?$AAC?$AAA?$AAM?$AA?$AA@| DCB "C"
	DCB	0x0, "M", 0x0, "_", 0x0, "C", 0x0, "L", 0x0, "K", 0x0, "S"
	DCB	0x0, "E", 0x0, "L", 0x0, "_", 0x0, "C", 0x0, "A", 0x0, "M"
	DCB	0x0, 0x0, 0x0				; `string'

  00000			 AREA	 |.rdata|, DATA, READONLY
|??_C@_1CA@BFELLDNJ@?$AAC?$AAM?$AA_?$AAA?$AAU?$AAT?$AAO?$AAI?$AAD?$AAL?$AAE?$AA_?$AAC?$AAA?$AAM?$AA?$AA@| DCB "C"
	DCB	0x0, "M", 0x0, "_", 0x0, "A", 0x0, "U", 0x0, "T", 0x0, "O"
	DCB	0x0, "I", 0x0, "D", 0x0, "L", 0x0, "E", 0x0, "_", 0x0, "C"
	DCB	0x0, "A", 0x0, "M", 0x0, 0x0, 0x0	; `string'

  00000			 AREA	 |.rdata|, DATA, READONLY
|??_C@_1BM@DNPFPKPP@?$AAC?$AAM?$AA_?$AAI?$AAD?$AAL?$AAE?$AAS?$AAT?$AA_?$AAC?$AAA?$AAM?$AA?$AA@| DCB "C"
	DCB	0x0, "M", 0x0, "_", 0x0, "I", 0x0, "D", 0x0, "L", 0x0, "E"
	DCB	0x0, "S", 0x0, "T", 0x0, "_", 0x0, "C", 0x0, "A", 0x0, "M"
	DCB	0x0, 0x0, 0x0				; `string'

  00000			 AREA	 |.rdata|, DATA, READONLY
|??_C@_1BM@IEGMNIIA@?$AAC?$AAM?$AA_?$AAI?$AAC?$AAL?$AAK?$AAE?$AAN?$AA_?$AAC?$AAA?$AAM?$AA?$AA@| DCB "C"
	DCB	0x0, "M", 0x0, "_", 0x0, "I", 0x0, "C", 0x0, "L", 0x0, "K"
	DCB	0x0, "E", 0x0, "N", 0x0, "_", 0x0, "C", 0x0, "A", 0x0, "M"
	DCB	0x0, 0x0, 0x0				; `string'

  00000			 AREA	 |.rdata|, DATA, READONLY
|??_C@_1BM@FIPGMAMA@?$AAC?$AAM?$AA_?$AAF?$AAC?$AAL?$AAK?$AAE?$AAN?$AA_?$AAC?$AAA?$AAM?$AA?$AA@| DCB "C"
	DCB	0x0, "M", 0x0, "_", 0x0, "F", 0x0, "C", 0x0, "L", 0x0, "K"
	DCB	0x0, "E", 0x0, "N", 0x0, "_", 0x0, "C", 0x0, "A", 0x0, "M"
	DCB	0x0, 0x0, 0x0				; `string'

  00000			 AREA	 |.rdata|, DATA, READONLY
|??_C@_1O@LPKKDKNF@?$AAC?$AAA?$AAM?$AA_?$AAC?$AAM?$AA?$AA@| DCB "C", 0x0, "A"
	DCB	0x0, "M", 0x0, "_", 0x0, "C", 0x0, "M", 0x0, 0x0, 0x0 ; `string'

  00000			 AREA	 |.rdata|, DATA, READONLY
|??_C@_1BO@MBBCBBCE@?$AAC?$AAM?$AA_?$AAC?$AAL?$AAK?$AAS?$AAT?$AAS?$AAT?$AA_?$AAD?$AAS?$AAS?$AA?$AA@| DCB "C"
	DCB	0x0, "M", 0x0, "_", 0x0, "C", 0x0, "L", 0x0, "K", 0x0, "S"
	DCB	0x0, "T", 0x0, "S", 0x0, "T", 0x0, "_", 0x0, "D", 0x0, "S"
	DCB	0x0, "S", 0x0, 0x0, 0x0			; `string'

  00000			 AREA	 |.rdata|, DATA, READONLY
|??_C@_1CC@GJGCLMP@?$AAC?$AAM?$AA_?$AAC?$AAL?$AAK?$AAS?$AAT?$AAC?$AAT?$AAR?$AAL?$AA_?$AAD?$AAS?$AAS?$AA?$AA@| DCB "C"
	DCB	0x0, "M", 0x0, "_", 0x0, "C", 0x0, "L", 0x0, "K", 0x0, "S"
	DCB	0x0, "T", 0x0, "C", 0x0, "T", 0x0, "R", 0x0, "L", 0x0, "_"
	DCB	0x0, "D", 0x0, "S", 0x0, "S", 0x0, 0x0, 0x0 ; `string'

  00000			 AREA	 |.rdata|, DATA, READONLY
|??_C@_1CA@HHIKKAKJ@?$AAC?$AAM?$AA_?$AAS?$AAL?$AAE?$AAE?$AAP?$AAD?$AAE?$AAP?$AA_?$AAD?$AAS?$AAS?$AA?$AA@| DCB "C"
	DCB	0x0, "M", 0x0, "_", 0x0, "S", 0x0, "L", 0x0, "E", 0x0, "E"
	DCB	0x0, "P", 0x0, "D", 0x0, "E", 0x0, "P", 0x0, "_", 0x0, "D"
	DCB	0x0, "S", 0x0, "S", 0x0, 0x0, 0x0	; `string'

  00000			 AREA	 |.rdata|, DATA, READONLY
|??_C@_1BM@DNMPICO@?$AAC?$AAM?$AA_?$AAC?$AAL?$AAK?$AAS?$AAE?$AAL?$AA_?$AAD?$AAS?$AAS?$AA?$AA@| DCB "C"
	DCB	0x0, "M", 0x0, "_", 0x0, "C", 0x0, "L", 0x0, "K", 0x0, "S"
	DCB	0x0, "E", 0x0, "L", 0x0, "_", 0x0, "D", 0x0, "S", 0x0, "S"
	DCB	0x0, 0x0, 0x0				; `string'

  00000			 AREA	 |.rdata|, DATA, READONLY
|??_C@_1CA@OBFGDJPM@?$AAC?$AAM?$AA_?$AAA?$AAU?$AAT?$AAO?$AAI?$AAD?$AAL?$AAE?$AA_?$AAD?$AAS?$AAS?$AA?$AA@| DCB "C"
	DCB	0x0, "M", 0x0, "_", 0x0, "A", 0x0, "U", 0x0, "T", 0x0, "O"
	DCB	0x0, "I", 0x0, "D", 0x0, "L", 0x0, "E", 0x0, "_", 0x0, "D"
	DCB	0x0, "S", 0x0, "S", 0x0, 0x0, 0x0	; `string'

  00000			 AREA	 |.rdata|, DATA, READONLY
|??_C@_1BM@MJOIHANK@?$AAC?$AAM?$AA_?$AAI?$AAD?$AAL?$AAE?$AAS?$AAT?$AA_?$AAD?$AAS?$AAS?$AA?$AA@| DCB "C"
	DCB	0x0, "M", 0x0, "_", 0x0, "I", 0x0, "D", 0x0, "L", 0x0, "E"
	DCB	0x0, "S", 0x0, "T", 0x0, "_", 0x0, "D", 0x0, "S", 0x0, "S"
	DCB	0x0, 0x0, 0x0				; `string'

  00000			 AREA	 |.rdata|, DATA, READONLY
|??_C@_1BM@HAHBFCKF@?$AAC?$AAM?$AA_?$AAI?$AAC?$AAL?$AAK?$AAE?$AAN?$AA_?$AAD?$AAS?$AAS?$AA?$AA@| DCB "C"
	DCB	0x0, "M", 0x0, "_", 0x0, "I", 0x0, "C", 0x0, "L", 0x0, "K"
	DCB	0x0, "E", 0x0, "N", 0x0, "_", 0x0, "D", 0x0, "S", 0x0, "S"
	DCB	0x0, 0x0, 0x0				; `string'

  00000			 AREA	 |.rdata|, DATA, READONLY
|??_C@_1BM@KMOLEKOF@?$AAC?$AAM?$AA_?$AAF?$AAC?$AAL?$AAK?$AAE?$AAN?$AA_?$AAD?$AAS?$AAS?$AA?$AA@| DCB "C"
	DCB	0x0, "M", 0x0, "_", 0x0, "F", 0x0, "C", 0x0, "L", 0x0, "K"
	DCB	0x0, "E", 0x0, "N", 0x0, "_", 0x0, "D", 0x0, "S", 0x0, "S"
	DCB	0x0, 0x0, 0x0				; `string'

  00000			 AREA	 |.rdata|, DATA, READONLY
|??_C@_1O@DCDFCCN@?$AAD?$AAS?$AAS?$AA_?$AAC?$AAM?$AA?$AA@| DCB "D", 0x0, "S"
	DCB	0x0, "S", 0x0, "_", 0x0, "C", 0x0, "M", 0x0, 0x0, 0x0 ; `string'

  00000			 AREA	 |.rdata|, DATA, READONLY
|??_C@_1BO@MLHAGPEI@?$AAC?$AAM?$AA_?$AAC?$AAL?$AAK?$AAO?$AAU?$AAT?$AA_?$AAC?$AAT?$AAR?$AAL?$AA?$AA@| DCB "C"
	DCB	0x0, "M", 0x0, "_", 0x0, "C", 0x0, "L", 0x0, "K", 0x0, "O"
	DCB	0x0, "U", 0x0, "T", 0x0, "_", 0x0, "C", 0x0, "T", 0x0, "R"
	DCB	0x0, "L", 0x0, 0x0, 0x0			; `string'

  00000			 AREA	 |.rdata|, DATA, READONLY
|??_C@_1BO@IIHNOIA@?$AAC?$AAM?$AA_?$AAC?$AAL?$AAK?$AAS?$AAE?$AAL?$AA5?$AA_?$AAP?$AAL?$AAL?$AA?$AA@| DCB "C"
	DCB	0x0, "M", 0x0, "_", 0x0, "C", 0x0, "L", 0x0, "K", 0x0, "S"
	DCB	0x0, "E", 0x0, "L", 0x0, "5", 0x0, "_", 0x0, "P", 0x0, "L"
	DCB	0x0, "L", 0x0, 0x0, 0x0			; `string'

  00000			 AREA	 |.rdata|, DATA, READONLY
|??_C@_1BO@JDCCJCOP@?$AAC?$AAM?$AA_?$AAC?$AAL?$AAK?$AAS?$AAE?$AAL?$AA4?$AA_?$AAP?$AAL?$AAL?$AA?$AA@| DCB "C"
	DCB	0x0, "M", 0x0, "_", 0x0, "C", 0x0, "L", 0x0, "K", 0x0, "S"
	DCB	0x0, "E", 0x0, "L", 0x0, "4", 0x0, "_", 0x0, "P", 0x0, "L"
	DCB	0x0, "L", 0x0, 0x0, 0x0			; `string'

  00000			 AREA	 |.rdata|, DATA, READONLY
|??_C@_1BO@OHLKHLGA@?$AAC?$AAM?$AA_?$AAC?$AAL?$AAK?$AAS?$AAE?$AAL?$AA3?$AA_?$AAP?$AAL?$AAL?$AA?$AA@| DCB "C"
	DCB	0x0, "M", 0x0, "_", 0x0, "C", 0x0, "L", 0x0, "K", 0x0, "S"
	DCB	0x0, "E", 0x0, "L", 0x0, "3", 0x0, "_", 0x0, "P", 0x0, "L"
	DCB	0x0, "L", 0x0, 0x0, 0x0			; `string'

  00000			 AREA	 |.rdata|, DATA, READONLY
|??_C@_1BO@HMBPDHAP@?$AAC?$AAM?$AA_?$AAC?$AAL?$AAK?$AAS?$AAE?$AAL?$AA2?$AA_?$AAP?$AAL?$AAL?$AA?$AA@| DCB "C"
	DCB	0x0, "M", 0x0, "_", 0x0, "C", 0x0, "L", 0x0, "K", 0x0, "S"
	DCB	0x0, "E", 0x0, "L", 0x0, "2", 0x0, "_", 0x0, "P", 0x0, "L"
	DCB	0x0, "L", 0x0, 0x0, 0x0			; `string'

  00000			 AREA	 |.rdata|, DATA, READONLY
|??_C@_1BO@LIBOFPP@?$AAC?$AAM?$AA_?$AAC?$AAL?$AAK?$AAS?$AAE?$AAL?$AA1?$AA_?$AAP?$AAL?$AAL?$AA?$AA@| DCB "C"
	DCB	0x0, "M", 0x0, "_", 0x0, "C", 0x0, "L", 0x0, "K", 0x0, "S"
	DCB	0x0, "E", 0x0, "L", 0x0, "1", 0x0, "_", 0x0, "P", 0x0, "L"
	DCB	0x0, "L", 0x0, 0x0, 0x0			; `string'

  00000			 AREA	 |.rdata|, DATA, READONLY
|??_C@_1CC@CDHCIADO@?$AAC?$AAM?$AA_?$AAA?$AAU?$AAT?$AAO?$AAI?$AAD?$AAL?$AAE?$AA2?$AA_?$AAP?$AAL?$AAL?$AA?$AA@| DCB "C"
	DCB	0x0, "M", 0x0, "_", 0x0, "A", 0x0, "U", 0x0, "T", 0x0, "O"
	DCB	0x0, "I", 0x0, "D", 0x0, "L", 0x0, "E", 0x0, "2", 0x0, "_"
	DCB	0x0, "P", 0x0, "L", 0x0, "L", 0x0, 0x0, 0x0 ; `string'

  00000			 AREA	 |.rdata|, DATA, READONLY
|??_C@_1CA@ODFNPBKK@?$AAC?$AAM?$AA_?$AAA?$AAU?$AAT?$AAO?$AAI?$AAD?$AAL?$AAE?$AA_?$AAP?$AAL?$AAL?$AA?$AA@| DCB "C"
	DCB	0x0, "M", 0x0, "_", 0x0, "A", 0x0, "U", 0x0, "T", 0x0, "O"
	DCB	0x0, "I", 0x0, "D", 0x0, "L", 0x0, "E", 0x0, "_", 0x0, "P"
	DCB	0x0, "L", 0x0, "L", 0x0, 0x0, 0x0	; `string'

  00000			 AREA	 |.rdata|, DATA, READONLY
|??_C@_1CC@OBCEIAAE@?$AAC?$AAM?$AA_?$AAI?$AAD?$AAL?$AAE?$AAS?$AAT?$AA2?$AA_?$AAC?$AAK?$AAG?$AAE?$AAN?$AA?$AA@| DCB "C"
	DCB	0x0, "M", 0x0, "_", 0x0, "I", 0x0, "D", 0x0, "L", 0x0, "E"
	DCB	0x0, "S", 0x0, "T", 0x0, "2", 0x0, "_", 0x0, "C", 0x0, "K"
	DCB	0x0, "G", 0x0, "E", 0x0, "N", 0x0, 0x0, 0x0 ; `string'

  00000			 AREA	 |.rdata|, DATA, READONLY
|??_C@_1CA@PFEJJBMO@?$AAC?$AAM?$AA_?$AAI?$AAD?$AAL?$AAE?$AAS?$AAT?$AA_?$AAC?$AAK?$AAG?$AAE?$AAN?$AA?$AA@| DCB "C"
	DCB	0x0, "M", 0x0, "_", 0x0, "I", 0x0, "D", 0x0, "L", 0x0, "E"
	DCB	0x0, "S", 0x0, "T", 0x0, "_", 0x0, "C", 0x0, "K", 0x0, "G"
	DCB	0x0, "E", 0x0, "N", 0x0, 0x0, 0x0	; `string'

  00000			 AREA	 |.rdata|, DATA, READONLY
|??_C@_1BM@DGCCAOAF@?$AAC?$AAM?$AA_?$AAC?$AAL?$AAK?$AAE?$AAN?$AA2?$AA_?$AAP?$AAL?$AAL?$AA?$AA@| DCB "C"
	DCB	0x0, "M", 0x0, "_", 0x0, "C", 0x0, "L", 0x0, "K", 0x0, "E"
	DCB	0x0, "N", 0x0, "2", 0x0, "_", 0x0, "P", 0x0, "L", 0x0, "L"
	DCB	0x0, 0x0, 0x0				; `string'

  00000			 AREA	 |.rdata|, DATA, READONLY
|??_C@_1BK@CFOGEALB@?$AAC?$AAM?$AA_?$AAC?$AAL?$AAK?$AAE?$AAN?$AA_?$AAP?$AAL?$AAL?$AA?$AA@| DCB "C"
	DCB	0x0, "M", 0x0, "_", 0x0, "C", 0x0, "L", 0x0, "K", 0x0, "E"
	DCB	0x0, "N", 0x0, "_", 0x0, "P", 0x0, "L", 0x0, "L", 0x0, 0x0
	DCB	0x0					; `string'

  00000			 AREA	 |.rdata|, DATA, READONLY
|??_C@_1CK@OJMCKPMK@?$AAC?$AAl?$AAo?$AAc?$AAk?$AA_?$AAC?$AAo?$AAn?$AAt?$AAr?$AAo?$AAl?$AA_?$AAR?$AAe?$AAg?$AA_?$AAC?$AAM?$AA?$AA@| DCB "C"
	DCB	0x0, "l", 0x0, "o", 0x0, "c", 0x0, "k", 0x0, "_", 0x0, "C"
	DCB	0x0, "o", 0x0, "n", 0x0, "t", 0x0, "r", 0x0, "o", 0x0, "l"
	DCB	0x0, "_", 0x0, "R", 0x0, "e", 0x0, "g", 0x0, "_", 0x0, "C"
	DCB	0x0, "M", 0x0, 0x0, 0x0			; `string'

  00000			 AREA	 |.rdata|, DATA, READONLY
|??_C@_1BO@MGPCIMBE@?$AAC?$AAM?$AA_?$AAC?$AAL?$AAK?$AAS?$AAE?$AAL?$AA_?$AAW?$AAK?$AAU?$AAP?$AA?$AA@| DCB "C"
	DCB	0x0, "M", 0x0, "_", 0x0, "C", 0x0, "L", 0x0, "K", 0x0, "S"
	DCB	0x0, "E", 0x0, "L", 0x0, "_", 0x0, "W", 0x0, "K", 0x0, "U"
	DCB	0x0, "P", 0x0, 0x0, 0x0			; `string'

  00000			 AREA	 |.rdata|, DATA, READONLY
|??_C@_1CC@JJJPDLCF@?$AAC?$AAM?$AA_?$AAA?$AAU?$AAT?$AAO?$AAI?$AAD?$AAL?$AAE?$AA_?$AAW?$AAK?$AAU?$AAP?$AA?$AA@| DCB "C"
	DCB	0x0, "M", 0x0, "_", 0x0, "A", 0x0, "U", 0x0, "T", 0x0, "O"
	DCB	0x0, "I", 0x0, "D", 0x0, "L", 0x0, "E", 0x0, "_", 0x0, "W"
	DCB	0x0, "K", 0x0, "U", 0x0, "P", 0x0, 0x0, 0x0 ; `string'

  00000			 AREA	 |.rdata|, DATA, READONLY
|??_C@_1BO@FFEBGJIL@?$AAC?$AAM?$AA_?$AAI?$AAD?$AAL?$AAE?$AAS?$AAT?$AA_?$AAW?$AAK?$AAU?$AAP?$AA?$AA@| DCB "C"
	DCB	0x0, "M", 0x0, "_", 0x0, "I", 0x0, "D", 0x0, "L", 0x0, "E"
	DCB	0x0, "S", 0x0, "T", 0x0, "_", 0x0, "W", 0x0, "K", 0x0, "U"
	DCB	0x0, "P", 0x0, 0x0, 0x0			; `string'

  00000			 AREA	 |.rdata|, DATA, READONLY
|??_C@_1BO@CIIGPEMP@?$AAC?$AAM?$AA_?$AAI?$AAC?$AAL?$AAK?$AAE?$AAN?$AA_?$AAW?$AAK?$AAU?$AAP?$AA?$AA@| DCB "C"
	DCB	0x0, "M", 0x0, "_", 0x0, "I", 0x0, "C", 0x0, "L", 0x0, "K"
	DCB	0x0, "E", 0x0, "N", 0x0, "_", 0x0, "W", 0x0, "K", 0x0, "U"
	DCB	0x0, "P", 0x0, 0x0, 0x0			; `string'

  00000			 AREA	 |.rdata|, DATA, READONLY
|??_C@_1BO@MLJDPPAG@?$AAC?$AAM?$AA_?$AAF?$AAC?$AAL?$AAK?$AAE?$AAN?$AA_?$AAW?$AAK?$AAU?$AAP?$AA?$AA@| DCB "C"
	DCB	0x0, "M", 0x0, "_", 0x0, "F", 0x0, "C", 0x0, "L", 0x0, "K"
	DCB	0x0, "E", 0x0, "N", 0x0, "_", 0x0, "W", 0x0, "K", 0x0, "U"
	DCB	0x0, "P", 0x0, 0x0, 0x0			; `string'

  00000			 AREA	 |.rdata|, DATA, READONLY
|??_C@_1BA@FJBNPKLL@?$AAW?$AAK?$AAU?$AAP?$AA_?$AAC?$AAM?$AA?$AA@| DCB "W", 0x0
	DCB	"K", 0x0, "U", 0x0, "P", 0x0, "_", 0x0, "C", 0x0, "M", 0x0
	DCB	0x0, 0x0				; `string'

  00000			 AREA	 |.rdata|, DATA, READONLY
|??_C@_1BO@PICKOOJK@?$AAC?$AAM?$AA_?$AAC?$AAL?$AAK?$AAS?$AAT?$AAS?$AAT?$AA_?$AAS?$AAG?$AAX?$AA?$AA@| DCB "C"
	DCB	0x0, "M", 0x0, "_", 0x0, "C", 0x0, "L", 0x0, "K", 0x0, "S"
	DCB	0x0, "T", 0x0, "S", 0x0, "T", 0x0, "_", 0x0, "S", 0x0, "G"
	DCB	0x0, "X", 0x0, 0x0, 0x0			; `string'

  00000			 AREA	 |.rdata|, DATA, READONLY
|??_C@_1CC@DPKONEHB@?$AAC?$AAM?$AA_?$AAC?$AAL?$AAK?$AAS?$AAT?$AAC?$AAT?$AAR?$AAL?$AA_?$AAS?$AAG?$AAX?$AA?$AA@| DCB "C"
	DCB	0x0, "M", 0x0, "_", 0x0, "C", 0x0, "L", 0x0, "K", 0x0, "S"
	DCB	0x0, "T", 0x0, "C", 0x0, "T", 0x0, "R", 0x0, "L", 0x0, "_"
	DCB	0x0, "S", 0x0, "G", 0x0, "X", 0x0, 0x0, 0x0 ; `string'

  00000			 AREA	 |.rdata|, DATA, READONLY
|??_C@_1CA@EOLCFPBH@?$AAC?$AAM?$AA_?$AAS?$AAL?$AAE?$AAE?$AAP?$AAD?$AAE?$AAP?$AA_?$AAS?$AAG?$AAX?$AA?$AA@| DCB "C"
	DCB	0x0, "M", 0x0, "_", 0x0, "S", 0x0, "L", 0x0, "E", 0x0, "E"
	DCB	0x0, "P", 0x0, "D", 0x0, "E", 0x0, "P", 0x0, "_", 0x0, "S"
	DCB	0x0, "G", 0x0, "X", 0x0, 0x0, 0x0	; `string'

  00000			 AREA	 |.rdata|, DATA, READONLY
|??_C@_1BM@DKOEAHJA@?$AAC?$AAM?$AA_?$AAC?$AAL?$AAK?$AAS?$AAE?$AAL?$AA_?$AAS?$AAG?$AAX?$AA?$AA@| DCB "C"
	DCB	0x0, "M", 0x0, "_", 0x0, "C", 0x0, "L", 0x0, "K", 0x0, "S"
	DCB	0x0, "E", 0x0, "L", 0x0, "_", 0x0, "S", 0x0, "G", 0x0, "X"
	DCB	0x0, 0x0, 0x0				; `string'

  00000			 AREA	 |.rdata|, DATA, READONLY
|??_C@_1BM@PANAIPGE@?$AAC?$AAM?$AA_?$AAI?$AAD?$AAL?$AAE?$AAS?$AAT?$AA_?$AAS?$AAG?$AAX?$AA?$AA@| DCB "C"
	DCB	0x0, "M", 0x0, "_", 0x0, "I", 0x0, "D", 0x0, "L", 0x0, "E"
	DCB	0x0, "S", 0x0, "T", 0x0, "_", 0x0, "S", 0x0, "G", 0x0, "X"
	DCB	0x0, 0x0, 0x0				; `string'

  00000			 AREA	 |.rdata|, DATA, READONLY
|??_C@_1BM@EJEJKNBL@?$AAC?$AAM?$AA_?$AAI?$AAC?$AAL?$AAK?$AAE?$AAN?$AA_?$AAS?$AAG?$AAX?$AA?$AA@| DCB "C"
	DCB	0x0, "M", 0x0, "_", 0x0, "I", 0x0, "C", 0x0, "L", 0x0, "K"
	DCB	0x0, "E", 0x0, "N", 0x0, "_", 0x0, "S", 0x0, "G", 0x0, "X"
	DCB	0x0, 0x0, 0x0				; `string'

  00000			 AREA	 |.rdata|, DATA, READONLY
|??_C@_1BM@JFNDLFFL@?$AAC?$AAM?$AA_?$AAF?$AAC?$AAL?$AAK?$AAE?$AAN?$AA_?$AAS?$AAG?$AAX?$AA?$AA@| DCB "C"
	DCB	0x0, "M", 0x0, "_", 0x0, "F", 0x0, "C", 0x0, "L", 0x0, "K"
	DCB	0x0, "E", 0x0, "N", 0x0, "_", 0x0, "S", 0x0, "G", 0x0, "X"
	DCB	0x0, 0x0, 0x0				; `string'

  00000			 AREA	 |.rdata|, DATA, READONLY
|??_C@_1O@PHKCOJPF@?$AAS?$AAG?$AAX?$AA_?$AAC?$AAM?$AA?$AA@| DCB "S", 0x0, "G"
	DCB	0x0, "X", 0x0, "_", 0x0, "C", 0x0, "M", 0x0, 0x0, 0x0 ; `string'

  00000			 AREA	 |.rdata|, DATA, READONLY
|??_C@_1CA@DFAGEEPB@?$AAC?$AAM?$AA_?$AAC?$AAL?$AAK?$AAS?$AAT?$AAS?$AAT?$AA_?$AAC?$AAO?$AAR?$AAE?$AA?$AA@| DCB "C"
	DCB	0x0, "M", 0x0, "_", 0x0, "C", 0x0, "L", 0x0, "K", 0x0, "S"
	DCB	0x0, "T", 0x0, "S", 0x0, "T", 0x0, "_", 0x0, "C", 0x0, "O"
	DCB	0x0, "R", 0x0, "E", 0x0, 0x0, 0x0	; `string'

  00000			 AREA	 |.rdata|, DATA, READONLY
|??_C@_1CE@EOIAHAOA@?$AAC?$AAM?$AA_?$AAC?$AAL?$AAK?$AAS?$AAT?$AAC?$AAT?$AAR?$AAL?$AA_?$AAC?$AAO?$AAR?$AAE?$AA?$AA@| DCB "C"
	DCB	0x0, "M", 0x0, "_", 0x0, "C", 0x0, "L", 0x0, "K", 0x0, "S"
	DCB	0x0, "T", 0x0, "C", 0x0, "T", 0x0, "R", 0x0, "L", 0x0, "_"
	DCB	0x0, "C", 0x0, "O", 0x0, "R", 0x0, "E", 0x0, 0x0, 0x0 ; `string'

  00000			 AREA	 |.rdata|, DATA, READONLY
|??_C@_1BO@BGDPDEGJ@?$AAC?$AAM?$AA_?$AAC?$AAL?$AAK?$AAS?$AAE?$AAL?$AA_?$AAC?$AAO?$AAR?$AAE?$AA?$AA@| DCB "C"
	DCB	0x0, "M", 0x0, "_", 0x0, "C", 0x0, "L", 0x0, "K", 0x0, "S"
	DCB	0x0, "E", 0x0, "L", 0x0, "_", 0x0, "C", 0x0, "O", 0x0, "R"
	DCB	0x0, "E", 0x0, 0x0, 0x0			; `string'

  00000			 AREA	 |.rdata|, DATA, READONLY
|??_C@_1CE@OGHCKMLF@?$AAC?$AAM?$AA_?$AAA?$AAU?$AAT?$AAO?$AAI?$AAD?$AAL?$AAE?$AA3?$AA_?$AAC?$AAO?$AAR?$AAE?$AA?$AA@| DCB "C"
	DCB	0x0, "M", 0x0, "_", 0x0, "A", 0x0, "U", 0x0, "T", 0x0, "O"
	DCB	0x0, "I", 0x0, "D", 0x0, "L", 0x0, "E", 0x0, "3", 0x0, "_"
	DCB	0x0, "C", 0x0, "O", 0x0, "R", 0x0, "E", 0x0, 0x0, 0x0 ; `string'

  00000			 AREA	 |.rdata|, DATA, READONLY
|??_C@_1CE@HLHNENMD@?$AAC?$AAM?$AA_?$AAA?$AAU?$AAT?$AAO?$AAI?$AAD?$AAL?$AAE?$AA2?$AA_?$AAC?$AAO?$AAR?$AAE?$AA?$AA@| DCB "C"
	DCB	0x0, "M", 0x0, "_", 0x0, "A", 0x0, "U", 0x0, "T", 0x0, "O"
	DCB	0x0, "I", 0x0, "D", 0x0, "L", 0x0, "E", 0x0, "2", 0x0, "_"
	DCB	0x0, "C", 0x0, "O", 0x0, "R", 0x0, "E", 0x0, 0x0, 0x0 ; `string'

  00000			 AREA	 |.rdata|, DATA, READONLY
|??_C@_1CE@HBMGIBI@?$AAC?$AAM?$AA_?$AAA?$AAU?$AAT?$AAO?$AAI?$AAD?$AAL?$AAE?$AA1?$AA_?$AAC?$AAO?$AAR?$AAE?$AA?$AA@| DCB "C"
	DCB	0x0, "M", 0x0, "_", 0x0, "A", 0x0, "U", 0x0, "T", 0x0, "O"
	DCB	0x0, "I", 0x0, "D", 0x0, "L", 0x0, "E", 0x0, "1", 0x0, "_"
	DCB	0x0, "C", 0x0, "O", 0x0, "R", 0x0, "E", 0x0, 0x0, 0x0 ; `string'

  00000			 AREA	 |.rdata|, DATA, READONLY
|??_C@_1CA@FDJDMBNE@?$AAC?$AAM?$AA_?$AAI?$AAD?$AAL?$AAE?$AAS?$AAT?$AA3?$AA_?$AAC?$AAO?$AAR?$AAE?$AA?$AA@| DCB "C"
	DCB	0x0, "M", 0x0, "_", 0x0, "I", 0x0, "D", 0x0, "L", 0x0, "E"
	DCB	0x0, "S", 0x0, "T", 0x0, "3", 0x0, "_", 0x0, "C", 0x0, "O"
	DCB	0x0, "R", 0x0, "E", 0x0, 0x0, 0x0	; `string'

  00000			 AREA	 |.rdata|, DATA, READONLY
|??_C@_1CA@MOJMCAKC@?$AAC?$AAM?$AA_?$AAI?$AAD?$AAL?$AAE?$AAS?$AAT?$AA2?$AA_?$AAC?$AAO?$AAR?$AAE?$AA?$AA@| DCB "C"
	DCB	0x0, "M", 0x0, "_", 0x0, "I", 0x0, "D", 0x0, "L", 0x0, "E"
	DCB	0x0, "S", 0x0, "T", 0x0, "2", 0x0, "_", 0x0, "C", 0x0, "O"
	DCB	0x0, "R", 0x0, "E", 0x0, 0x0, 0x0	; `string'

  00000			 AREA	 |.rdata|, DATA, READONLY
|??_C@_1CA@LCPNAFHJ@?$AAC?$AAM?$AA_?$AAI?$AAD?$AAL?$AAE?$AAS?$AAT?$AA1?$AA_?$AAC?$AAO?$AAR?$AAE?$AA?$AA@| DCB "C"
	DCB	0x0, "M", 0x0, "_", 0x0, "I", 0x0, "D", 0x0, "L", 0x0, "E"
	DCB	0x0, "S", 0x0, "T", 0x0, "1", 0x0, "_", 0x0, "C", 0x0, "O"
	DCB	0x0, "R", 0x0, "E", 0x0, 0x0, 0x0	; `string'

  00000			 AREA	 |.rdata|, DATA, READONLY
|??_C@_1CA@EJDINJOL@?$AAC?$AAM?$AA_?$AAI?$AAC?$AAL?$AAK?$AAE?$AAN?$AA3?$AA_?$AAC?$AAO?$AAR?$AAE?$AA?$AA@| DCB "C"
	DCB	0x0, "M", 0x0, "_", 0x0, "I", 0x0, "C", 0x0, "L", 0x0, "K"
	DCB	0x0, "E", 0x0, "N", 0x0, "3", 0x0, "_", 0x0, "C", 0x0, "O"
	DCB	0x0, "R", 0x0, "E", 0x0, 0x0, 0x0	; `string'

  00000			 AREA	 |.rdata|, DATA, READONLY
|??_C@_1CA@NEDHDIJN@?$AAC?$AAM?$AA_?$AAI?$AAC?$AAL?$AAK?$AAE?$AAN?$AA2?$AA_?$AAC?$AAO?$AAR?$AAE?$AA?$AA@| DCB "C"
	DCB	0x0, "M", 0x0, "_", 0x0, "I", 0x0, "C", 0x0, "L", 0x0, "K"
	DCB	0x0, "E", 0x0, "N", 0x0, "2", 0x0, "_", 0x0, "C", 0x0, "O"
	DCB	0x0, "R", 0x0, "E", 0x0, 0x0, 0x0	; `string'

  00000			 AREA	 |.rdata|, DATA, READONLY
|??_C@_1CA@KIFGBNEG@?$AAC?$AAM?$AA_?$AAI?$AAC?$AAL?$AAK?$AAE?$AAN?$AA1?$AA_?$AAC?$AAO?$AAR?$AAE?$AA?$AA@| DCB "C"
	DCB	0x0, "M", 0x0, "_", 0x0, "I", 0x0, "C", 0x0, "L", 0x0, "K"
	DCB	0x0, "E", 0x0, "N", 0x0, "1", 0x0, "_", 0x0, "C", 0x0, "O"
	DCB	0x0, "R", 0x0, "E", 0x0, 0x0, 0x0	; `string'

  00000			 AREA	 |.rdata|, DATA, READONLY
|??_C@_1CA@MENCIPHB@?$AAC?$AAM?$AA_?$AAF?$AAC?$AAL?$AAK?$AAE?$AAN?$AA3?$AA_?$AAC?$AAO?$AAR?$AAE?$AA?$AA@| DCB "C"
	DCB	0x0, "M", 0x0, "_", 0x0, "F", 0x0, "C", 0x0, "L", 0x0, "K"
	DCB	0x0, "E", 0x0, "N", 0x0, "3", 0x0, "_", 0x0, "C", 0x0, "O"
	DCB	0x0, "R", 0x0, "E", 0x0, 0x0, 0x0	; `string'

  00000			 AREA	 |.rdata|, DATA, READONLY
|??_C@_1CA@CFLMELNM@?$AAC?$AAM?$AA_?$AAF?$AAC?$AAL?$AAK?$AAE?$AAN?$AA1?$AA_?$AAC?$AAO?$AAR?$AAE?$AA?$AA@| DCB "C"
	DCB	0x0, "M", 0x0, "_", 0x0, "F", 0x0, "C", 0x0, "L", 0x0, "K"
	DCB	0x0, "E", 0x0, "N", 0x0, "1", 0x0, "_", 0x0, "C", 0x0, "O"
	DCB	0x0, "R", 0x0, "E", 0x0, 0x0, 0x0	; `string'

  00000			 AREA	 |.rdata|, DATA, READONLY
|??_C@_1BA@MHLIKEJK@?$AAC?$AAO?$AAR?$AAE?$AA_?$AAC?$AAM?$AA?$AA@| DCB "C", 0x0
	DCB	"O", 0x0, "R", 0x0, "E", 0x0, "_", 0x0, "C", 0x0, "M", 0x0
	DCB	0x0, 0x0				; `string'

  00000			 AREA	 |.rdata|, DATA, READONLY
|??_C@_1BO@HNKCCHHN@?$AAC?$AAM?$AA_?$AAC?$AAL?$AAK?$AAS?$AAT?$AAS?$AAT?$AA_?$AAM?$AAP?$AAU?$AA?$AA@| DCB "C"
	DCB	0x0, "M", 0x0, "_", 0x0, "C", 0x0, "L", 0x0, "K", 0x0, "S"
	DCB	0x0, "T", 0x0, "S", 0x0, "T", 0x0, "_", 0x0, "M", 0x0, "P"
	DCB	0x0, "U", 0x0, 0x0, 0x0			; `string'

  00000			 AREA	 |.rdata|, DATA, READONLY
|??_C@_1CC@LKCGBNJG@?$AAC?$AAM?$AA_?$AAC?$AAL?$AAK?$AAS?$AAT?$AAC?$AAT?$AAR?$AAL?$AA_?$AAM?$AAP?$AAU?$AA?$AA@| DCB "C"
	DCB	0x0, "M", 0x0, "_", 0x0, "C", 0x0, "L", 0x0, "K", 0x0, "S"
	DCB	0x0, "T", 0x0, "C", 0x0, "T", 0x0, "R", 0x0, "L", 0x0, "_"
	DCB	0x0, "M", 0x0, "P", 0x0, "U", 0x0, 0x0, 0x0 ; `string'

  00000			 AREA	 |.rdata|, DATA, READONLY
|??_C@_1CG@HAJMMJGO@?$AAC?$AAM?$AA_?$AAC?$AAL?$AAK?$AAS?$AAE?$AAL?$AA2?$AA_?$AAP?$AAL?$AAL?$AA_?$AAM?$AAP?$AAU?$AA?$AA@| DCB "C"
	DCB	0x0, "M", 0x0, "_", 0x0, "C", 0x0, "L", 0x0, "K", 0x0, "S"
	DCB	0x0, "E", 0x0, "L", 0x0, "2", 0x0, "_", 0x0, "P", 0x0, "L"
	DCB	0x0, "L", 0x0, "_", 0x0, "M", 0x0, "P", 0x0, "U", 0x0, 0x0
	DCB	0x0					; `string'

  00000			 AREA	 |.rdata|, DATA, READONLY
|??_C@_1CG@NPDFIEKE@?$AAC?$AAM?$AA_?$AAC?$AAL?$AAK?$AAS?$AAE?$AAL?$AA1?$AA_?$AAP?$AAL?$AAL?$AA_?$AAM?$AAP?$AAU?$AA?$AA@| DCB "C"
	DCB	0x0, "M", 0x0, "_", 0x0, "C", 0x0, "L", 0x0, "K", 0x0, "S"
	DCB	0x0, "E", 0x0, "L", 0x0, "1", 0x0, "_", 0x0, "P", 0x0, "L"
	DCB	0x0, "L", 0x0, "_", 0x0, "M", 0x0, "P", 0x0, "U", 0x0, 0x0
	DCB	0x0					; `string'

  00000			 AREA	 |.rdata|, DATA, READONLY
|??_C@_1CI@CMDKJBJB@?$AAC?$AAM?$AA_?$AAA?$AAU?$AAT?$AAO?$AAI?$AAD?$AAL?$AAE?$AA_?$AAP?$AAL?$AAL?$AA_?$AAM?$AAP?$AAU?$AA?$AA@| DCB "C"
	DCB	0x0, "M", 0x0, "_", 0x0, "A", 0x0, "U", 0x0, "T", 0x0, "O"
	DCB	0x0, "I", 0x0, "D", 0x0, "L", 0x0, "E", 0x0, "_", 0x0, "P"
	DCB	0x0, "L", 0x0, "L", 0x0, "_", 0x0, "M", 0x0, "P", 0x0, "U"
	DCB	0x0, 0x0, 0x0				; `string'

  00000			 AREA	 |.rdata|, DATA, READONLY
|??_C@_1CE@BDMBNMCK@?$AAC?$AAM?$AA_?$AAI?$AAD?$AAL?$AAE?$AAS?$AAT?$AA_?$AAP?$AAL?$AAL?$AA_?$AAM?$AAP?$AAU?$AA?$AA@| DCB "C"
	DCB	0x0, "M", 0x0, "_", 0x0, "I", 0x0, "D", 0x0, "L", 0x0, "E"
	DCB	0x0, "S", 0x0, "T", 0x0, "_", 0x0, "P", 0x0, "L", 0x0, "L"
	DCB	0x0, "_", 0x0, "M", 0x0, "P", 0x0, "U", 0x0, 0x0, 0x0 ; `string'

  00000			 AREA	 |.rdata|, DATA, READONLY
|??_C@_1BM@HFFIEGID@?$AAC?$AAM?$AA_?$AAI?$AAD?$AAL?$AAE?$AAS?$AAT?$AA_?$AAM?$AAP?$AAU?$AA?$AA@| DCB "C"
	DCB	0x0, "M", 0x0, "_", 0x0, "I", 0x0, "D", 0x0, "L", 0x0, "E"
	DCB	0x0, "S", 0x0, "T", 0x0, "_", 0x0, "M", 0x0, "P", 0x0, "U"
	DCB	0x0, 0x0, 0x0				; `string'

  00000			 AREA	 |.rdata|, DATA, READONLY
|??_C@_1CC@JNLBAGDF@?$AAC?$AAM?$AA_?$AAC?$AAL?$AAK?$AAE?$AAN?$AA_?$AAP?$AAL?$AAL?$AA_?$AAM?$AAP?$AAU?$AA?$AA@| DCB "C"
	DCB	0x0, "M", 0x0, "_", 0x0, "C", 0x0, "L", 0x0, "K", 0x0, "E"
	DCB	0x0, "N", 0x0, "_", 0x0, "P", 0x0, "L", 0x0, "L", 0x0, "_"
	DCB	0x0, "M", 0x0, "P", 0x0, "U", 0x0, 0x0, 0x0 ; `string'

  00000			 AREA	 |.rdata|, DATA, READONLY
|??_C@_1O@NHPFAPNK@?$AAM?$AAP?$AAU?$AA_?$AAC?$AAM?$AA?$AA@| DCB "M", 0x0, "P"
	DCB	0x0, "U", 0x0, "_", 0x0, "C", 0x0, "M", 0x0, 0x0, 0x0 ; `string'

  00000			 AREA	 |.rdata|, DATA, READONLY
|??_C@_1BK@MFOLEKL@?$AAC?$AAM?$AA_?$AAS?$AAY?$AAS?$AAC?$AAO?$AAN?$AAF?$AAI?$AAG?$AA?$AA@| DCB "C"
	DCB	0x0, "M", 0x0, "_", 0x0, "S", 0x0, "Y", 0x0, "S", 0x0, "C"
	DCB	0x0, "O", 0x0, "N", 0x0, "F", 0x0, "I", 0x0, "G", 0x0, 0x0
	DCB	0x0					; `string'

  00000			 AREA	 |.rdata|, DATA, READONLY
|??_C@_1BI@OFDDPNDA@?$AAC?$AAM?$AA_?$AAR?$AAE?$AAV?$AAI?$AAS?$AAI?$AAO?$AAN?$AA?$AA@| DCB "C"
	DCB	0x0, "M", 0x0, "_", 0x0, "R", 0x0, "E", 0x0, "V", 0x0, "I"
	DCB	0x0, "S", 0x0, "I", 0x0, "O", 0x0, "N", 0x0, 0x0, 0x0 ; `string'

  00000			 AREA	 |.rdata|, DATA, READONLY
|??_C@_1CE@OMIMNBBB@?$AAO?$AAC?$AAP?$AA_?$AAS?$AAy?$AAs?$AAt?$AAe?$AAm?$AA_?$AAR?$AAe?$AAg?$AA_?$AAC?$AAM?$AA?$AA@| DCB "O"
	DCB	0x0, "C", 0x0, "P", 0x0, "_", 0x0, "S", 0x0, "y", 0x0, "s"
	DCB	0x0, "t", 0x0, "e", 0x0, "m", 0x0, "_", 0x0, "R", 0x0, "e"
	DCB	0x0, "g", 0x0, "_", 0x0, "C", 0x0, "M", 0x0, 0x0, 0x0 ; `string'

  00000			 AREA	 |.rdata|, DATA, READONLY
|??_C@_1CA@DCHKBGCI@?$AAC?$AAM?$AA_?$AAC?$AAL?$AAK?$AAS?$AAT?$AAS?$AAT?$AA_?$AAI?$AAV?$AAA?$AA2?$AA?$AA@| DCB "C"
	DCB	0x0, "M", 0x0, "_", 0x0, "C", 0x0, "L", 0x0, "K", 0x0, "S"
	DCB	0x0, "T", 0x0, "S", 0x0, "T", 0x0, "_", 0x0, "I", 0x0, "V"
	DCB	0x0, "A", 0x0, "2", 0x0, 0x0, 0x0	; `string'

  00000			 AREA	 |.rdata|, DATA, READONLY
|??_C@_1CE@EJPMCCDJ@?$AAC?$AAM?$AA_?$AAC?$AAL?$AAK?$AAS?$AAT?$AAC?$AAT?$AAR?$AAL?$AA_?$AAI?$AAV?$AAA?$AA2?$AA?$AA@| DCB "C"
	DCB	0x0, "M", 0x0, "_", 0x0, "C", 0x0, "L", 0x0, "K", 0x0, "S"
	DCB	0x0, "T", 0x0, "C", 0x0, "T", 0x0, "R", 0x0, "L", 0x0, "_"
	DCB	0x0, "I", 0x0, "V", 0x0, "A", 0x0, "2", 0x0, 0x0, 0x0 ; `string'

  00000			 AREA	 |.rdata|, DATA, READONLY
|??_C@_1CI@BECHJFPL@?$AAC?$AAM?$AA_?$AAC?$AAL?$AAK?$AAS?$AAE?$AAL?$AA2?$AA_?$AAP?$AAL?$AAL?$AA_?$AAI?$AAV?$AAA?$AA2?$AA?$AA@| DCB "C"
	DCB	0x0, "M", 0x0, "_", 0x0, "C", 0x0, "L", 0x0, "K", 0x0, "S"
	DCB	0x0, "E", 0x0, "L", 0x0, "2", 0x0, "_", 0x0, "P", 0x0, "L"
	DCB	0x0, "L", 0x0, "_", 0x0, "I", 0x0, "V", 0x0, "A", 0x0, "2"
	DCB	0x0, 0x0, 0x0				; `string'

  00000			 AREA	 |.rdata|, DATA, READONLY
|??_C@_1CI@CNFPDILL@?$AAC?$AAM?$AA_?$AAC?$AAL?$AAK?$AAS?$AAE?$AAL?$AA1?$AA_?$AAP?$AAL?$AAL?$AA_?$AAI?$AAV?$AAA?$AA2?$AA?$AA@| DCB "C"
	DCB	0x0, "M", 0x0, "_", 0x0, "C", 0x0, "L", 0x0, "K", 0x0, "S"
	DCB	0x0, "E", 0x0, "L", 0x0, "1", 0x0, "_", 0x0, "P", 0x0, "L"
	DCB	0x0, "L", 0x0, "_", 0x0, "I", 0x0, "V", 0x0, "A", 0x0, "2"
	DCB	0x0, 0x0, 0x0				; `string'

  00000			 AREA	 |.rdata|, DATA, READONLY
|??_C@_1CK@OCLDONOJ@?$AAC?$AAM?$AA_?$AAA?$AAU?$AAT?$AAO?$AAI?$AAD?$AAL?$AAE?$AA_?$AAP?$AAL?$AAL?$AA_?$AAI?$AAV?$AAA?$AA2?$AA?$AA@| DCB "C"
	DCB	0x0, "M", 0x0, "_", 0x0, "A", 0x0, "U", 0x0, "T", 0x0, "O"
	DCB	0x0, "I", 0x0, "D", 0x0, "L", 0x0, "E", 0x0, "_", 0x0, "P"
	DCB	0x0, "L", 0x0, "L", 0x0, "_", 0x0, "I", 0x0, "V", 0x0, "A"
	DCB	0x0, "2", 0x0, 0x0, 0x0			; `string'

  00000			 AREA	 |.rdata|, DATA, READONLY
|??_C@_1CG@ONOPJIEM@?$AAC?$AAM?$AA_?$AAI?$AAD?$AAL?$AAE?$AAS?$AAT?$AA_?$AAP?$AAL?$AAL?$AA_?$AAI?$AAV?$AAA?$AA2?$AA?$AA@| DCB "C"
	DCB	0x0, "M", 0x0, "_", 0x0, "I", 0x0, "D", 0x0, "L", 0x0, "E"
	DCB	0x0, "S", 0x0, "T", 0x0, "_", 0x0, "P", 0x0, "L", 0x0, "L"
	DCB	0x0, "_", 0x0, "I", 0x0, "V", 0x0, "A", 0x0, "2", 0x0, 0x0
	DCB	0x0					; `string'

  00000			 AREA	 |.rdata|, DATA, READONLY
|??_C@_1BO@ICPAIDCP@?$AAC?$AAM?$AA_?$AAI?$AAD?$AAL?$AAE?$AAS?$AAT?$AA_?$AAI?$AAV?$AAA?$AA2?$AA?$AA@| DCB "C"
	DCB	0x0, "M", 0x0, "_", 0x0, "I", 0x0, "D", 0x0, "L", 0x0, "E"
	DCB	0x0, "S", 0x0, "T", 0x0, "_", 0x0, "I", 0x0, "V", 0x0, "A"
	DCB	0x0, "2", 0x0, 0x0, 0x0			; `string'

  00000			 AREA	 |.rdata|, DATA, READONLY
|??_C@_1CE@EGLDCDGI@?$AAC?$AAM?$AA_?$AAC?$AAL?$AAK?$AAE?$AAN?$AA_?$AAP?$AAL?$AAL?$AA_?$AAI?$AAV?$AAA?$AA2?$AA?$AA@| DCB "C"
	DCB	0x0, "M", 0x0, "_", 0x0, "C", 0x0, "L", 0x0, "K", 0x0, "E"
	DCB	0x0, "N", 0x0, "_", 0x0, "P", 0x0, "L", 0x0, "L", 0x0, "_"
	DCB	0x0, "I", 0x0, "V", 0x0, "A", 0x0, "2", 0x0, 0x0, 0x0 ; `string'

  00000			 AREA	 |.rdata|, DATA, READONLY
|??_C@_1BO@BMCCBFKC@?$AAC?$AAM?$AA_?$AAF?$AAC?$AAL?$AAK?$AAE?$AAN?$AA_?$AAI?$AAV?$AAA?$AA2?$AA?$AA@| DCB "C"
	DCB	0x0, "M", 0x0, "_", 0x0, "F", 0x0, "C", 0x0, "L", 0x0, "K"
	DCB	0x0, "E", 0x0, "N", 0x0, "_", 0x0, "I", 0x0, "V", 0x0, "A"
	DCB	0x0, "2", 0x0, 0x0, 0x0			; `string'

  00000			 AREA	 |.rdata|, DATA, READONLY
|??_C@_1BA@JEPMHMHH@?$AAI?$AAV?$AAA?$AA2?$AA_?$AAC?$AAM?$AA?$AA@| DCB "I", 0x0
	DCB	"V", 0x0, "A", 0x0, "2", 0x0, "_", 0x0, "C", 0x0, "M", 0x0
	DCB	0x0, 0x0				; `string'

  00000			 AREA	 |.rdata|, DATA, READONLY
|??_C@_1DA@EDKFOKOO@?$AAP?$AAO?$AAW?$AAE?$AAR?$AAD?$AAO?$AAM?$AAA?$AAI?$AAN?$AA_?$AAS?$AAM?$AAA?$AAR?$AAT?$AAR?$AAE?$AAF?$AAL?$AAE?$AAX?$AA?$AA@| DCB "P"
	DCB	0x0, "O", 0x0, "W", 0x0, "E", 0x0, "R", 0x0, "D", 0x0, "O"
	DCB	0x0, "M", 0x0, "A", 0x0, "I", 0x0, "N", 0x0, "_", 0x0, "S"
	DCB	0x0, "M", 0x0, "A", 0x0, "R", 0x0, "T", 0x0, "R", 0x0, "E"
	DCB	0x0, "F", 0x0, "L", 0x0, "E", 0x0, "X", 0x0, 0x0, 0x0 ; `string'

  00000			 AREA	 |.rdata|, DATA, READONLY
|??_C@_1CE@NPBICAPK@?$AAP?$AAO?$AAW?$AAE?$AAR?$AAD?$AAO?$AAM?$AAA?$AAI?$AAN?$AA_?$AAE?$AAF?$AAU?$AAS?$AAE?$AA?$AA@| DCB "P"
	DCB	0x0, "O", 0x0, "W", 0x0, "E", 0x0, "R", 0x0, "D", 0x0, "O"
	DCB	0x0, "M", 0x0, "A", 0x0, "I", 0x0, "N", 0x0, "_", 0x0, "E"
	DCB	0x0, "F", 0x0, "U", 0x0, "S", 0x0, "E", 0x0, 0x0, 0x0 ; `string'

  00000			 AREA	 |.rdata|, DATA, READONLY
|??_C@_1CA@EPPNKFHH@?$AAP?$AAO?$AAW?$AAE?$AAR?$AAD?$AAO?$AAM?$AAA?$AAI?$AAN?$AA_?$AAS?$AAG?$AAX?$AA?$AA@| DCB "P"
	DCB	0x0, "O", 0x0, "W", 0x0, "E", 0x0, "R", 0x0, "D", 0x0, "O"
	DCB	0x0, "M", 0x0, "A", 0x0, "I", 0x0, "N", 0x0, "_", 0x0, "S"
	DCB	0x0, "G", 0x0, "X", 0x0, 0x0, 0x0	; `string'

  00000			 AREA	 |.rdata|, DATA, READONLY
|??_C@_1CG@OKLBKABF@?$AAP?$AAO?$AAW?$AAE?$AAR?$AAD?$AAO?$AAM?$AAA?$AAI?$AAN?$AA_?$AAC?$AAA?$AAM?$AAE?$AAR?$AAA?$AA?$AA@| DCB "P"
	DCB	0x0, "O", 0x0, "W", 0x0, "E", 0x0, "R", 0x0, "D", 0x0, "O"
	DCB	0x0, "M", 0x0, "A", 0x0, "I", 0x0, "N", 0x0, "_", 0x0, "C"
	DCB	0x0, "A", 0x0, "M", 0x0, "E", 0x0, "R", 0x0, "A", 0x0, 0x0
	DCB	0x0					; `string'

  00000			 AREA	 |.rdata|, DATA, READONLY
|??_C@_1CC@DIKELEEG@?$AAP?$AAO?$AAW?$AAE?$AAR?$AAD?$AAO?$AAM?$AAA?$AAI?$AAN?$AA_?$AAI?$AAV?$AAA?$AA2?$AA?$AA@| DCB "P"
	DCB	0x0, "O", 0x0, "W", 0x0, "E", 0x0, "R", 0x0, "D", 0x0, "O"
	DCB	0x0, "M", 0x0, "A", 0x0, "I", 0x0, "N", 0x0, "_", 0x0, "I"
	DCB	0x0, "V", 0x0, "A", 0x0, "2", 0x0, 0x0, 0x0 ; `string'

  00000			 AREA	 |.rdata|, DATA, READONLY
|??_C@_1CC@DDKPOHKD@?$AAP?$AAO?$AAW?$AAE?$AAR?$AAD?$AAO?$AAM?$AAA?$AAI?$AAN?$AA_?$AAN?$AAE?$AAO?$AAN?$AA?$AA@| DCB "P"
	DCB	0x0, "O", 0x0, "W", 0x0, "E", 0x0, "R", 0x0, "D", 0x0, "O"
	DCB	0x0, "M", 0x0, "A", 0x0, "I", 0x0, "N", 0x0, "_", 0x0, "N"
	DCB	0x0, "E", 0x0, "O", 0x0, "N", 0x0, 0x0, 0x0 ; `string'

  00000			 AREA	 |.rdata|, DATA, READONLY
|??_C@_1CA@HGMFFKMJ@?$AAP?$AAO?$AAW?$AAE?$AAR?$AAD?$AAO?$AAM?$AAA?$AAI?$AAN?$AA_?$AAD?$AAS?$AAS?$AA?$AA@| DCB "P"
	DCB	0x0, "O", 0x0, "W", 0x0, "E", 0x0, "R", 0x0, "D", 0x0, "O"
	DCB	0x0, "M", 0x0, "A", 0x0, "I", 0x0, "N", 0x0, "_", 0x0, "D"
	DCB	0x0, "S", 0x0, "S", 0x0, 0x0, 0x0	; `string'

  00000			 AREA	 |.rdata|, DATA, READONLY
|??_C@_1CA@MKHFGMJA@?$AAP?$AAO?$AAW?$AAE?$AAR?$AAD?$AAO?$AAM?$AAA?$AAI?$AAN?$AA_?$AAM?$AAP?$AAU?$AA?$AA@| DCB "P"
	DCB	0x0, "O", 0x0, "W", 0x0, "E", 0x0, "R", 0x0, "D", 0x0, "O"
	DCB	0x0, "M", 0x0, "A", 0x0, "I", 0x0, "N", 0x0, "_", 0x0, "M"
	DCB	0x0, "P", 0x0, "U", 0x0, 0x0, 0x0	; `string'

  00000			 AREA	 |.rdata|, DATA, READONLY
|??_C@_1CM@IICJPBKI@?$AAP?$AAO?$AAW?$AAE?$AAR?$AAD?$AAO?$AAM?$AAA?$AAI?$AAN?$AA_?$AAE?$AAM?$AAU?$AAL?$AAA?$AAT?$AAI?$AAO?$AAN?$AA?$AA@| DCB "P"
	DCB	0x0, "O", 0x0, "W", 0x0, "E", 0x0, "R", 0x0, "D", 0x0, "O"
	DCB	0x0, "M", 0x0, "A", 0x0, "I", 0x0, "N", 0x0, "_", 0x0, "E"
	DCB	0x0, "M", 0x0, "U", 0x0, "L", 0x0, "A", 0x0, "T", 0x0, "I"
	DCB	0x0, "O", 0x0, "N", 0x0, 0x0, 0x0	; `string'

  00000			 AREA	 |.rdata|, DATA, READONLY
|??_C@_1CI@LJKMALKI@?$AAP?$AAO?$AAW?$AAE?$AAR?$AAD?$AAO?$AAM?$AAA?$AAI?$AAN?$AA_?$AAU?$AAS?$AAB?$AAH?$AAO?$AAS?$AAT?$AA?$AA@| DCB "P"
	DCB	0x0, "O", 0x0, "W", 0x0, "E", 0x0, "R", 0x0, "D", 0x0, "O"
	DCB	0x0, "M", 0x0, "A", 0x0, "I", 0x0, "N", 0x0, "_", 0x0, "U"
	DCB	0x0, "S", 0x0, "B", 0x0, "H", 0x0, "O", 0x0, "S", 0x0, "T"
	DCB	0x0, 0x0, 0x0				; `string'

  00000			 AREA	 |.rdata|, DATA, READONLY
|??_C@_1CO@GHAPCMEA@?$AAP?$AAO?$AAW?$AAE?$AAR?$AAD?$AAO?$AAM?$AAA?$AAI?$AAN?$AA_?$AAP?$AAE?$AAR?$AAI?$AAP?$AAH?$AAE?$AAR?$AAA?$AAL?$AA?$AA@| DCB "P"
	DCB	0x0, "O", 0x0, "W", 0x0, "E", 0x0, "R", 0x0, "D", 0x0, "O"
	DCB	0x0, "M", 0x0, "A", 0x0, "I", 0x0, "N", 0x0, "_", 0x0, "P"
	DCB	0x0, "E", 0x0, "R", 0x0, "I", 0x0, "P", 0x0, "H", 0x0, "E"
	DCB	0x0, "R", 0x0, "A", 0x0, "L", 0x0, 0x0, 0x0 ; `string'

  00000			 AREA	 |.rdata|, DATA, READONLY
|??_C@_1CC@DPNIOGJP@?$AAP?$AAO?$AAW?$AAE?$AAR?$AAD?$AAO?$AAM?$AAA?$AAI?$AAN?$AA_?$AAC?$AAO?$AAR?$AAE?$AA?$AA@| DCB "P"
	DCB	0x0, "O", 0x0, "W", 0x0, "E", 0x0, "R", 0x0, "D", 0x0, "O"
	DCB	0x0, "M", 0x0, "A", 0x0, "I", 0x0, "N", 0x0, "_", 0x0, "C"
	DCB	0x0, "O", 0x0, "R", 0x0, "E", 0x0, 0x0, 0x0 ; `string'

  00000			 AREA	 |.rdata|, DATA, READONLY
|??_C@_1CG@GNBBGDGH@?$AAP?$AAO?$AAW?$AAE?$AAR?$AAD?$AAO?$AAM?$AAA?$AAI?$AAN?$AA_?$AAW?$AAA?$AAK?$AAE?$AAU?$AAP?$AA?$AA@| DCB "P"
	DCB	0x0, "O", 0x0, "W", 0x0, "E", 0x0, "R", 0x0, "D", 0x0, "O"
	DCB	0x0, "M", 0x0, "A", 0x0, "I", 0x0, "N", 0x0, "_", 0x0, "W"
	DCB	0x0, "A", 0x0, "K", 0x0, "E", 0x0, "U", 0x0, "P", 0x0, 0x0
	DCB	0x0					; `string'

  00000			 AREA	 |.rdata|, DATA, READONLY
|??_C@_1CI@CGCHDENN@?$AAO?$AAM?$AAA?$AAP?$AA_?$AAD?$AAE?$AAV?$AAI?$AAC?$AAE?$AA_?$AAG?$AAE?$AAN?$AAE?$AAR?$AAI?$AAC?$AA?$AA@| DCB "O"
	DCB	0x0, "M", 0x0, "A", 0x0, "P", 0x0, "_", 0x0, "D", 0x0, "E"
	DCB	0x0, "V", 0x0, "I", 0x0, "C", 0x0, "E", 0x0, "_", 0x0, "G"
	DCB	0x0, "E", 0x0, "N", 0x0, "E", 0x0, "R", 0x0, "I", 0x0, "C"
	DCB	0x0, 0x0, 0x0				; `string'

  00000			 AREA	 |.rdata|, DATA, READONLY
|??_C@_1CE@GFGBLIBN@?$AAO?$AAM?$AAA?$AAP?$AA_?$AAD?$AAE?$AAV?$AAI?$AAC?$AAE?$AA_?$AAU?$AAA?$AAR?$AAT?$AA4?$AA?$AA@| DCB "O"
	DCB	0x0, "M", 0x0, "A", 0x0, "P", 0x0, "_", 0x0, "D", 0x0, "E"
	DCB	0x0, "V", 0x0, "I", 0x0, "C", 0x0, "E", 0x0, "_", 0x0, "U"
	DCB	0x0, "A", 0x0, "R", 0x0, "T", 0x0, "4", 0x0, 0x0, 0x0 ; `string'

  00000			 AREA	 |.rdata|, DATA, READONLY
|??_C@_1CC@JFKAJPFG@?$AAO?$AAM?$AAA?$AAP?$AA_?$AAD?$AAE?$AAV?$AAI?$AAC?$AAE?$AA_?$AAV?$AAR?$AAF?$AAB?$AA?$AA@| DCB "O"
	DCB	0x0, "M", 0x0, "A", 0x0, "P", 0x0, "_", 0x0, "D", 0x0, "E"
	DCB	0x0, "V", 0x0, "I", 0x0, "C", 0x0, "E", 0x0, "_", 0x0, "V"
	DCB	0x0, "R", 0x0, "F", 0x0, "B", 0x0, 0x0, 0x0 ; `string'

  00000			 AREA	 |.rdata|, DATA, READONLY
|??_C@_1CK@PMNPNLDF@?$AAO?$AAM?$AAA?$AAP?$AA_?$AAD?$AAE?$AAV?$AAI?$AAC?$AAE?$AA_?$AAU?$AAS?$AAB?$AAH?$AAO?$AAS?$AAT?$AA3?$AA?$AA@| DCB "O"
	DCB	0x0, "M", 0x0, "A", 0x0, "P", 0x0, "_", 0x0, "D", 0x0, "E"
	DCB	0x0, "V", 0x0, "I", 0x0, "C", 0x0, "E", 0x0, "_", 0x0, "U"
	DCB	0x0, "S", 0x0, "B", 0x0, "H", 0x0, "O", 0x0, "S", 0x0, "T"
	DCB	0x0, "3", 0x0, 0x0, 0x0			; `string'

  00000			 AREA	 |.rdata|, DATA, READONLY
|??_C@_1CK@EEGDLMFA@?$AAO?$AAM?$AAA?$AAP?$AA_?$AAD?$AAE?$AAV?$AAI?$AAC?$AAE?$AA_?$AAU?$AAS?$AAB?$AAH?$AAO?$AAS?$AAT?$AA2?$AA?$AA@| DCB "O"
	DCB	0x0, "M", 0x0, "A", 0x0, "P", 0x0, "_", 0x0, "D", 0x0, "E"
	DCB	0x0, "V", 0x0, "I", 0x0, "C", 0x0, "E", 0x0, "_", 0x0, "U"
	DCB	0x0, "S", 0x0, "B", 0x0, "H", 0x0, "O", 0x0, "S", 0x0, "T"
	DCB	0x0, "2", 0x0, 0x0, 0x0			; `string'

  00000			 AREA	 |.rdata|, DATA, READONLY
|??_C@_1CK@FGNGBDLO@?$AAO?$AAM?$AAA?$AAP?$AA_?$AAD?$AAE?$AAV?$AAI?$AAC?$AAE?$AA_?$AAU?$AAS?$AAB?$AAH?$AAO?$AAS?$AAT?$AA1?$AA?$AA@| DCB "O"
	DCB	0x0, "M", 0x0, "A", 0x0, "P", 0x0, "_", 0x0, "D", 0x0, "E"
	DCB	0x0, "V", 0x0, "I", 0x0, "C", 0x0, "E", 0x0, "_", 0x0, "U"
	DCB	0x0, "S", 0x0, "B", 0x0, "H", 0x0, "O", 0x0, "S", 0x0, "T"
	DCB	0x0, "1", 0x0, 0x0, 0x0			; `string'

  00000			 AREA	 |.rdata|, DATA, READONLY
|??_C@_1CG@GEPNMBAB@?$AAO?$AAM?$AAA?$AAP?$AA_?$AAD?$AAE?$AAV?$AAI?$AAC?$AAE?$AA_?$AAH?$AAS?$AAU?$AAS?$AAB?$AA2?$AA?$AA@| DCB "O"
	DCB	0x0, "M", 0x0, "A", 0x0, "P", 0x0, "_", 0x0, "D", 0x0, "E"
	DCB	0x0, "V", 0x0, "I", 0x0, "C", 0x0, "E", 0x0, "_", 0x0, "H"
	DCB	0x0, "S", 0x0, "U", 0x0, "S", 0x0, "B", 0x0, "2", 0x0, 0x0
	DCB	0x0					; `string'

  00000			 AREA	 |.rdata|, DATA, READONLY
|??_C@_1CG@HGEIGOOP@?$AAO?$AAM?$AAA?$AAP?$AA_?$AAD?$AAE?$AAV?$AAI?$AAC?$AAE?$AA_?$AAH?$AAS?$AAU?$AAS?$AAB?$AA1?$AA?$AA@| DCB "O"
	DCB	0x0, "M", 0x0, "A", 0x0, "P", 0x0, "_", 0x0, "D", 0x0, "E"
	DCB	0x0, "V", 0x0, "I", 0x0, "C", 0x0, "E", 0x0, "_", 0x0, "H"
	DCB	0x0, "S", 0x0, "U", 0x0, "S", 0x0, "B", 0x0, "1", 0x0, 0x0
	DCB	0x0					; `string'

  00000			 AREA	 |.rdata|, DATA, READONLY
|??_C@_1CA@GGCFDGLE@?$AAO?$AAM?$AAA?$AAP?$AA_?$AAD?$AAE?$AAV?$AAI?$AAC?$AAE?$AA_?$AAS?$AAG?$AAX?$AA?$AA@| DCB "O"
	DCB	0x0, "M", 0x0, "A", 0x0, "P", 0x0, "_", 0x0, "D", 0x0, "E"
	DCB	0x0, "V", 0x0, "I", 0x0, "C", 0x0, "E", 0x0, "_", 0x0, "S"
	DCB	0x0, "G", 0x0, "X", 0x0, 0x0, 0x0	; `string'

  00000			 AREA	 |.rdata|, DATA, READONLY
|??_C@_1BO@LMDKBCBP@?$AAO?$AAM?$AAA?$AAP?$AA_?$AAD?$AAE?$AAV?$AAI?$AAC?$AAE?$AA_?$AA3?$AAD?$AA?$AA@| DCB "O"
	DCB	0x0, "M", 0x0, "A", 0x0, "P", 0x0, "_", 0x0, "D", 0x0, "E"
	DCB	0x0, "V", 0x0, "I", 0x0, "C", 0x0, "E", 0x0, "_", 0x0, "3"
	DCB	0x0, "D", 0x0, 0x0, 0x0			; `string'

  00000			 AREA	 |.rdata|, DATA, READONLY
|??_C@_1BO@HHGGMBLK@?$AAO?$AAM?$AAA?$AAP?$AA_?$AAD?$AAE?$AAV?$AAI?$AAC?$AAE?$AA_?$AA2?$AAD?$AA?$AA@| DCB "O"
	DCB	0x0, "M", 0x0, "A", 0x0, "P", 0x0, "_", 0x0, "D", 0x0, "E"
	DCB	0x0, "V", 0x0, "I", 0x0, "C", 0x0, "E", 0x0, "_", 0x0, "2"
	DCB	0x0, "D", 0x0, 0x0, 0x0			; `string'

  00000			 AREA	 |.rdata|, DATA, READONLY
|??_C@_1CA@ENKIGGOE@?$AAO?$AAM?$AAA?$AAP?$AA_?$AAD?$AAE?$AAV?$AAI?$AAC?$AAE?$AA_?$AAD?$AAS?$AAP?$AA?$AA@| DCB "O"
	DCB	0x0, "M", 0x0, "A", 0x0, "P", 0x0, "_", 0x0, "D", 0x0, "E"
	DCB	0x0, "V", 0x0, "I", 0x0, "C", 0x0, "E", 0x0, "_", 0x0, "D"
	DCB	0x0, "S", 0x0, "P", 0x0, 0x0, 0x0	; `string'

  00000			 AREA	 |.rdata|, DATA, READONLY
|??_C@_1CC@COEMHCN@?$AAO?$AAM?$AAA?$AAP?$AA_?$AAD?$AAE?$AAV?$AAI?$AAC?$AAE?$AA_?$AAC?$AAS?$AAI?$AA2?$AA?$AA@| DCB "O"
	DCB	0x0, "M", 0x0, "A", 0x0, "P", 0x0, "_", 0x0, "D", 0x0, "E"
	DCB	0x0, "V", 0x0, "I", 0x0, "C", 0x0, "E", 0x0, "_", 0x0, "C"
	DCB	0x0, "S", 0x0, "I", 0x0, "2", 0x0, 0x0, 0x0 ; `string'

  00000			 AREA	 |.rdata|, DATA, READONLY
|??_C@_1CG@DPBHHNNG@?$AAO?$AAM?$AAA?$AAP?$AA_?$AAD?$AAE?$AAV?$AAI?$AAC?$AAE?$AA_?$AAC?$AAA?$AAM?$AAE?$AAR?$AAA?$AA?$AA@| DCB "O"
	DCB	0x0, "M", 0x0, "A", 0x0, "P", 0x0, "_", 0x0, "D", 0x0, "E"
	DCB	0x0, "V", 0x0, "I", 0x0, "C", 0x0, "E", 0x0, "_", 0x0, "C"
	DCB	0x0, "A", 0x0, "M", 0x0, "E", 0x0, "R", 0x0, "A", 0x0, 0x0
	DCB	0x0					; `string'

  00000			 AREA	 |.rdata|, DATA, READONLY
|??_C@_1CE@CMHCGOLP@?$AAO?$AAM?$AAA?$AAP?$AA_?$AAD?$AAE?$AAV?$AAI?$AAC?$AAE?$AA_?$AAT?$AAV?$AAO?$AAU?$AAT?$AA?$AA@| DCB "O"
	DCB	0x0, "M", 0x0, "A", 0x0, "P", 0x0, "_", 0x0, "D", 0x0, "E"
	DCB	0x0, "V", 0x0, "I", 0x0, "C", 0x0, "E", 0x0, "_", 0x0, "T"
	DCB	0x0, "V", 0x0, "O", 0x0, "U", 0x0, "T", 0x0, 0x0, 0x0 ; `string'

  00000			 AREA	 |.rdata|, DATA, READONLY
|??_C@_1CC@ECHFPNKJ@?$AAO?$AAM?$AAA?$AAP?$AA_?$AAD?$AAE?$AAV?$AAI?$AAC?$AAE?$AA_?$AAD?$AAS?$AAS?$AA2?$AA?$AA@| DCB "O"
	DCB	0x0, "M", 0x0, "A", 0x0, "P", 0x0, "_", 0x0, "D", 0x0, "E"
	DCB	0x0, "V", 0x0, "I", 0x0, "C", 0x0, "E", 0x0, "_", 0x0, "D"
	DCB	0x0, "S", 0x0, "S", 0x0, "2", 0x0, 0x0, 0x0 ; `string'

  00000			 AREA	 |.rdata|, DATA, READONLY
|??_C@_1CC@FAMAFCEH@?$AAO?$AAM?$AAA?$AAP?$AA_?$AAD?$AAE?$AAV?$AAI?$AAC?$AAE?$AA_?$AAD?$AAS?$AAS?$AA1?$AA?$AA@| DCB "O"
	DCB	0x0, "M", 0x0, "A", 0x0, "P", 0x0, "_", 0x0, "D", 0x0, "E"
	DCB	0x0, "V", 0x0, "I", 0x0, "C", 0x0, "E", 0x0, "_", 0x0, "D"
	DCB	0x0, "S", 0x0, "S", 0x0, "1", 0x0, 0x0, 0x0 ; `string'

  00000			 AREA	 |.rdata|, DATA, READONLY
|??_C@_1CA@FPBNMJAK@?$AAO?$AAM?$AAA?$AAP?$AA_?$AAD?$AAE?$AAV?$AAI?$AAC?$AAE?$AA_?$AAD?$AAS?$AAS?$AA?$AA@| DCB "O"
	DCB	0x0, "M", 0x0, "A", 0x0, "P", 0x0, "_", 0x0, "D", 0x0, "E"
	DCB	0x0, "V", 0x0, "I", 0x0, "C", 0x0, "E", 0x0, "_", 0x0, "D"
	DCB	0x0, "S", 0x0, "S", 0x0, 0x0, 0x0	; `string'

  00000			 AREA	 |.rdata|, DATA, READONLY
|??_C@_1CC@FNCLKIKN@?$AAO?$AAM?$AAA?$AAP?$AA_?$AAD?$AAE?$AAV?$AAI?$AAC?$AAE?$AA_?$AAW?$AAD?$AAT?$AA3?$AA?$AA@| DCB "O"
	DCB	0x0, "M", 0x0, "A", 0x0, "P", 0x0, "_", 0x0, "D", 0x0, "E"
	DCB	0x0, "V", 0x0, "I", 0x0, "C", 0x0, "E", 0x0, "_", 0x0, "W"
	DCB	0x0, "D", 0x0, "T", 0x0, "3", 0x0, 0x0, 0x0 ; `string'

  00000			 AREA	 |.rdata|, DATA, READONLY
|??_C@_1CE@PILGIAKE@?$AAO?$AAM?$AAA?$AAP?$AA_?$AAD?$AAE?$AAV?$AAI?$AAC?$AAE?$AA_?$AAU?$AAA?$AAR?$AAT?$AA3?$AA?$AA@| DCB "O"
	DCB	0x0, "M", 0x0, "A", 0x0, "P", 0x0, "_", 0x0, "D", 0x0, "E"
	DCB	0x0, "V", 0x0, "I", 0x0, "C", 0x0, "E", 0x0, "_", 0x0, "U"
	DCB	0x0, "A", 0x0, "R", 0x0, "T", 0x0, "3", 0x0, 0x0, 0x0 ; `string'

  00000			 AREA	 |.rdata|, DATA, READONLY
|??_C@_1CK@PMHAIIAB@?$AAO?$AAM?$AAA?$AAP?$AA_?$AAD?$AAE?$AAV?$AAI?$AAC?$AAE?$AA_?$AAG?$AAP?$AAT?$AAI?$AAM?$AAE?$AAR?$AA9?$AA?$AA@| DCB "O"
	DCB	0x0, "M", 0x0, "A", 0x0, "P", 0x0, "_", 0x0, "D", 0x0, "E"
	DCB	0x0, "V", 0x0, "I", 0x0, "C", 0x0, "E", 0x0, "_", 0x0, "G"
	DCB	0x0, "P", 0x0, "T", 0x0, "I", 0x0, "M", 0x0, "E", 0x0, "R"
	DCB	0x0, "9", 0x0, 0x0, 0x0			; `string'

  00000			 AREA	 |.rdata|, DATA, READONLY
|??_C@_1CK@EEMMOPGE@?$AAO?$AAM?$AAA?$AAP?$AA_?$AAD?$AAE?$AAV?$AAI?$AAC?$AAE?$AA_?$AAG?$AAP?$AAT?$AAI?$AAM?$AAE?$AAR?$AA8?$AA?$AA@| DCB "O"
	DCB	0x0, "M", 0x0, "A", 0x0, "P", 0x0, "_", 0x0, "D", 0x0, "E"
	DCB	0x0, "V", 0x0, "I", 0x0, "C", 0x0, "E", 0x0, "_", 0x0, "G"
	DCB	0x0, "P", 0x0, "T", 0x0, "I", 0x0, "M", 0x0, "E", 0x0, "R"
	DCB	0x0, "8", 0x0, 0x0, 0x0			; `string'

  00000			 AREA	 |.rdata|, DATA, READONLY
|??_C@_1CK@BMKPPPDC@?$AAO?$AAM?$AAA?$AAP?$AA_?$AAD?$AAE?$AAV?$AAI?$AAC?$AAE?$AA_?$AAG?$AAP?$AAT?$AAI?$AAM?$AAE?$AAR?$AA7?$AA?$AA@| DCB "O"
	DCB	0x0, "M", 0x0, "A", 0x0, "P", 0x0, "_", 0x0, "D", 0x0, "E"
	DCB	0x0, "V", 0x0, "I", 0x0, "C", 0x0, "E", 0x0, "_", 0x0, "G"
	DCB	0x0, "P", 0x0, "T", 0x0, "I", 0x0, "M", 0x0, "E", 0x0, "R"
	DCB	0x0, "7", 0x0, 0x0, 0x0			; `string'

  00000			 AREA	 |.rdata|, DATA, READONLY
|??_C@_1CK@KEBDJIFH@?$AAO?$AAM?$AAA?$AAP?$AA_?$AAD?$AAE?$AAV?$AAI?$AAC?$AAE?$AA_?$AAG?$AAP?$AAT?$AAI?$AAM?$AAE?$AAR?$AA6?$AA?$AA@| DCB "O"
	DCB	0x0, "M", 0x0, "A", 0x0, "P", 0x0, "_", 0x0, "D", 0x0, "E"
	DCB	0x0, "V", 0x0, "I", 0x0, "C", 0x0, "E", 0x0, "_", 0x0, "G"
	DCB	0x0, "P", 0x0, "T", 0x0, "I", 0x0, "M", 0x0, "E", 0x0, "R"
	DCB	0x0, "6", 0x0, 0x0, 0x0			; `string'

  00000			 AREA	 |.rdata|, DATA, READONLY
|??_C@_1CK@LGKGDHLJ@?$AAO?$AAM?$AAA?$AAP?$AA_?$AAD?$AAE?$AAV?$AAI?$AAC?$AAE?$AA_?$AAG?$AAP?$AAT?$AAI?$AAM?$AAE?$AAR?$AA5?$AA?$AA@| DCB "O"
	DCB	0x0, "M", 0x0, "A", 0x0, "P", 0x0, "_", 0x0, "D", 0x0, "E"
	DCB	0x0, "V", 0x0, "I", 0x0, "C", 0x0, "E", 0x0, "_", 0x0, "G"
	DCB	0x0, "P", 0x0, "T", 0x0, "I", 0x0, "M", 0x0, "E", 0x0, "R"
	DCB	0x0, "5", 0x0, 0x0, 0x0			; `string'

  00000			 AREA	 |.rdata|, DATA, READONLY
|??_C@_1CK@OBKFANM@?$AAO?$AAM?$AAA?$AAP?$AA_?$AAD?$AAE?$AAV?$AAI?$AAC?$AAE?$AA_?$AAG?$AAP?$AAT?$AAI?$AAM?$AAE?$AAR?$AA4?$AA?$AA@| DCB "O"
	DCB	0x0, "M", 0x0, "A", 0x0, "P", 0x0, "_", 0x0, "D", 0x0, "E"
	DCB	0x0, "V", 0x0, "I", 0x0, "C", 0x0, "E", 0x0, "_", 0x0, "G"
	DCB	0x0, "P", 0x0, "T", 0x0, "I", 0x0, "M", 0x0, "E", 0x0, "R"
	DCB	0x0, "4", 0x0, 0x0, 0x0			; `string'

  00000			 AREA	 |.rdata|, DATA, READONLY
|??_C@_1CK@JDMNGIGF@?$AAO?$AAM?$AAA?$AAP?$AA_?$AAD?$AAE?$AAV?$AAI?$AAC?$AAE?$AA_?$AAG?$AAP?$AAT?$AAI?$AAM?$AAE?$AAR?$AA3?$AA?$AA@| DCB "O"
	DCB	0x0, "M", 0x0, "A", 0x0, "P", 0x0, "_", 0x0, "D", 0x0, "E"
	DCB	0x0, "V", 0x0, "I", 0x0, "C", 0x0, "E", 0x0, "_", 0x0, "G"
	DCB	0x0, "P", 0x0, "T", 0x0, "I", 0x0, "M", 0x0, "E", 0x0, "R"
	DCB	0x0, "3", 0x0, 0x0, 0x0			; `string'

  00000			 AREA	 |.rdata|, DATA, READONLY
|??_C@_1CK@CLHBAPAA@?$AAO?$AAM?$AAA?$AAP?$AA_?$AAD?$AAE?$AAV?$AAI?$AAC?$AAE?$AA_?$AAG?$AAP?$AAT?$AAI?$AAM?$AAE?$AAR?$AA2?$AA?$AA@| DCB "O"
	DCB	0x0, "M", 0x0, "A", 0x0, "P", 0x0, "_", 0x0, "D", 0x0, "E"
	DCB	0x0, "V", 0x0, "I", 0x0, "C", 0x0, "E", 0x0, "_", 0x0, "G"
	DCB	0x0, "P", 0x0, "T", 0x0, "I", 0x0, "M", 0x0, "E", 0x0, "R"
	DCB	0x0, "2", 0x0, 0x0, 0x0			; `string'

  00000			 AREA	 |.rdata|, DATA, READONLY
|??_C@_1CG@ECEBCEEN@?$AAO?$AAM?$AAA?$AAP?$AA_?$AAD?$AAE?$AAV?$AAI?$AAC?$AAE?$AA_?$AAM?$AAC?$AAB?$AAS?$AAP?$AA4?$AA?$AA@| DCB "O"
	DCB	0x0, "M", 0x0, "A", 0x0, "P", 0x0, "_", 0x0, "D", 0x0, "E"
	DCB	0x0, "V", 0x0, "I", 0x0, "C", 0x0, "E", 0x0, "_", 0x0, "M"
	DCB	0x0, "C", 0x0, "B", 0x0, "S", 0x0, "P", 0x0, "4", 0x0, 0x0
	DCB	0x0					; `string'

  00000			 AREA	 |.rdata|, DATA, READONLY
|??_C@_1CG@NPJGBMPE@?$AAO?$AAM?$AAA?$AAP?$AA_?$AAD?$AAE?$AAV?$AAI?$AAC?$AAE?$AA_?$AAM?$AAC?$AAB?$AAS?$AAP?$AA3?$AA?$AA@| DCB "O"
	DCB	0x0, "M", 0x0, "A", 0x0, "P", 0x0, "_", 0x0, "D", 0x0, "E"
	DCB	0x0, "V", 0x0, "I", 0x0, "C", 0x0, "E", 0x0, "_", 0x0, "M"
	DCB	0x0, "C", 0x0, "B", 0x0, "S", 0x0, "P", 0x0, "3", 0x0, 0x0
	DCB	0x0					; `string'

  00000			 AREA	 |.rdata|, DATA, READONLY
|??_C@_1CG@GHCKHLJB@?$AAO?$AAM?$AAA?$AAP?$AA_?$AAD?$AAE?$AAV?$AAI?$AAC?$AAE?$AA_?$AAM?$AAC?$AAB?$AAS?$AAP?$AA2?$AA?$AA@| DCB "O"
	DCB	0x0, "M", 0x0, "A", 0x0, "P", 0x0, "_", 0x0, "D", 0x0, "E"
	DCB	0x0, "V", 0x0, "I", 0x0, "C", 0x0, "E", 0x0, "_", 0x0, "M"
	DCB	0x0, "C", 0x0, "B", 0x0, "S", 0x0, "P", 0x0, "2", 0x0, 0x0
	DCB	0x0					; `string'

  00000			 AREA	 |.rdata|, DATA, READONLY
|??_C@_1CE@KPOHDGAG@?$AAO?$AAM?$AAA?$AAP?$AA_?$AAD?$AAE?$AAV?$AAI?$AAC?$AAE?$AA_?$AAG?$AAP?$AAI?$AAO?$AA6?$AA?$AA@| DCB "O"
	DCB	0x0, "M", 0x0, "A", 0x0, "P", 0x0, "_", 0x0, "D", 0x0, "E"
	DCB	0x0, "V", 0x0, "I", 0x0, "C", 0x0, "E", 0x0, "_", 0x0, "G"
	DCB	0x0, "P", 0x0, "I", 0x0, "O", 0x0, "6", 0x0, 0x0, 0x0 ; `string'

  00000			 AREA	 |.rdata|, DATA, READONLY
|??_C@_1CE@LNFCJJOI@?$AAO?$AAM?$AAA?$AAP?$AA_?$AAD?$AAE?$AAV?$AAI?$AAC?$AAE?$AA_?$AAG?$AAP?$AAI?$AAO?$AA5?$AA?$AA@| DCB "O"
	DCB	0x0, "M", 0x0, "A", 0x0, "P", 0x0, "_", 0x0, "D", 0x0, "E"
	DCB	0x0, "V", 0x0, "I", 0x0, "C", 0x0, "E", 0x0, "_", 0x0, "G"
	DCB	0x0, "P", 0x0, "I", 0x0, "O", 0x0, "5", 0x0, 0x0, 0x0 ; `string'

  00000			 AREA	 |.rdata|, DATA, READONLY
|??_C@_1CE@FOOPOIN@?$AAO?$AAM?$AAA?$AAP?$AA_?$AAD?$AAE?$AAV?$AAI?$AAC?$AAE?$AA_?$AAG?$AAP?$AAI?$AAO?$AA4?$AA?$AA@| DCB "O"
	DCB	0x0, "M", 0x0, "A", 0x0, "P", 0x0, "_", 0x0, "D", 0x0, "E"
	DCB	0x0, "V", 0x0, "I", 0x0, "C", 0x0, "E", 0x0, "_", 0x0, "G"
	DCB	0x0, "P", 0x0, "I", 0x0, "O", 0x0, "4", 0x0, 0x0, 0x0 ; `string'

  00000			 AREA	 |.rdata|, DATA, READONLY
|??_C@_1CE@JIDJMGDE@?$AAO?$AAM?$AAA?$AAP?$AA_?$AAD?$AAE?$AAV?$AAI?$AAC?$AAE?$AA_?$AAG?$AAP?$AAI?$AAO?$AA3?$AA?$AA@| DCB "O"
	DCB	0x0, "M", 0x0, "A", 0x0, "P", 0x0, "_", 0x0, "D", 0x0, "E"
	DCB	0x0, "V", 0x0, "I", 0x0, "C", 0x0, "E", 0x0, "_", 0x0, "G"
	DCB	0x0, "P", 0x0, "I", 0x0, "O", 0x0, "3", 0x0, 0x0, 0x0 ; `string'

  00000			 AREA	 |.rdata|, DATA, READONLY
|??_C@_1CE@CAIFKBFB@?$AAO?$AAM?$AAA?$AAP?$AA_?$AAD?$AAE?$AAV?$AAI?$AAC?$AAE?$AA_?$AAG?$AAP?$AAI?$AAO?$AA2?$AA?$AA@| DCB "O"
	DCB	0x0, "M", 0x0, "A", 0x0, "P", 0x0, "_", 0x0, "D", 0x0, "E"
	DCB	0x0, "V", 0x0, "I", 0x0, "C", 0x0, "E", 0x0, "_", 0x0, "G"
	DCB	0x0, "P", 0x0, "I", 0x0, "O", 0x0, "2", 0x0, 0x0, 0x0 ; `string'

  00000			 AREA	 |.rdata|, DATA, READONLY
|??_C@_1CC@BLAIIGEI@?$AAO?$AAM?$AAA?$AAP?$AA_?$AAD?$AAE?$AAV?$AAI?$AAC?$AAE?$AA_?$AAU?$AAS?$AAI?$AAM?$AA?$AA@| DCB "O"
	DCB	0x0, "M", 0x0, "A", 0x0, "P", 0x0, "_", 0x0, "D", 0x0, "E"
	DCB	0x0, "V", 0x0, "I", 0x0, "C", 0x0, "E", 0x0, "_", 0x0, "U"
	DCB	0x0, "S", 0x0, "I", 0x0, "M", 0x0, 0x0, 0x0 ; `string'

  00000			 AREA	 |.rdata|, DATA, READONLY
|??_C@_1CA@GBKFLCPL@?$AAO?$AAM?$AAA?$AAP?$AA_?$AAD?$AAE?$AAV?$AAI?$AAC?$AAE?$AA_?$AAS?$AAR?$AA2?$AA?$AA@| DCB "O"
	DCB	0x0, "M", 0x0, "A", 0x0, "P", 0x0, "_", 0x0, "D", 0x0, "E"
	DCB	0x0, "V", 0x0, "I", 0x0, "C", 0x0, "E", 0x0, "_", 0x0, "S"
	DCB	0x0, "R", 0x0, "2", 0x0, 0x0, 0x0	; `string'

  00000			 AREA	 |.rdata|, DATA, READONLY
|??_C@_1CA@HDBABNBF@?$AAO?$AAM?$AAA?$AAP?$AA_?$AAD?$AAE?$AAV?$AAI?$AAC?$AAE?$AA_?$AAS?$AAR?$AA1?$AA?$AA@| DCB "O"
	DCB	0x0, "M", 0x0, "A", 0x0, "P", 0x0, "_", 0x0, "D", 0x0, "E"
	DCB	0x0, "V", 0x0, "I", 0x0, "C", 0x0, "E", 0x0, "_", 0x0, "S"
	DCB	0x0, "R", 0x0, "1", 0x0, 0x0, 0x0	; `string'

  00000			 AREA	 |.rdata|, DATA, READONLY
|??_C@_1CE@DCDAAOLP@?$AAO?$AAM?$AAA?$AAP?$AA_?$AAD?$AAE?$AAV?$AAI?$AAC?$AAE?$AA_?$AAG?$AAP?$AAI?$AAO?$AA1?$AA?$AA@| DCB "O"
	DCB	0x0, "M", 0x0, "A", 0x0, "P", 0x0, "_", 0x0, "D", 0x0, "E"
	DCB	0x0, "V", 0x0, "I", 0x0, "C", 0x0, "E", 0x0, "_", 0x0, "G"
	DCB	0x0, "P", 0x0, "I", 0x0, "O", 0x0, "1", 0x0, 0x0, 0x0 ; `string'

  00000			 AREA	 |.rdata|, DATA, READONLY
|??_C@_1CC@OFJHMPMI@?$AAO?$AAM?$AAA?$AAP?$AA_?$AAD?$AAE?$AAV?$AAI?$AAC?$AAE?$AA_?$AAW?$AAD?$AAT?$AA2?$AA?$AA@| DCB "O"
	DCB	0x0, "M", 0x0, "A", 0x0, "P", 0x0, "_", 0x0, "D", 0x0, "E"
	DCB	0x0, "V", 0x0, "I", 0x0, "C", 0x0, "E", 0x0, "_", 0x0, "W"
	DCB	0x0, "D", 0x0, "T", 0x0, "2", 0x0, 0x0, 0x0 ; `string'

  00000			 AREA	 |.rdata|, DATA, READONLY
|??_C@_1CC@PHCCGACG@?$AAO?$AAM?$AAA?$AAP?$AA_?$AAD?$AAE?$AAV?$AAI?$AAC?$AAE?$AA_?$AAW?$AAD?$AAT?$AA1?$AA?$AA@| DCB "O"
	DCB	0x0, "M", 0x0, "A", 0x0, "P", 0x0, "_", 0x0, "D", 0x0, "E"
	DCB	0x0, "V", 0x0, "I", 0x0, "C", 0x0, "E", 0x0, "_", 0x0, "W"
	DCB	0x0, "D", 0x0, "T", 0x0, "1", 0x0, 0x0, 0x0 ; `string'

  00000			 AREA	 |.rdata|, DATA, READONLY
|??_C@_1CI@FAKOHIJH@?$AAO?$AAM?$AAA?$AAP?$AA_?$AAD?$AAE?$AAV?$AAI?$AAC?$AAE?$AA_?$AA3?$AA2?$AAK?$AAS?$AAY?$AAN?$AAC?$AA?$AA@| DCB "O"
	DCB	0x0, "M", 0x0, "A", 0x0, "P", 0x0, "_", 0x0, "D", 0x0, "E"
	DCB	0x0, "V", 0x0, "I", 0x0, "C", 0x0, "E", 0x0, "_", 0x0, "3"
	DCB	0x0, "2", 0x0, "K", 0x0, "S", 0x0, "Y", 0x0, "N", 0x0, "C"
	DCB	0x0, 0x0, 0x0				; `string'

  00000			 AREA	 |.rdata|, DATA, READONLY
|??_C@_1CM@EMAJHEGE@?$AAO?$AAM?$AAA?$AAP?$AA_?$AAD?$AAE?$AAV?$AAI?$AAC?$AAE?$AA_?$AAG?$AAP?$AAT?$AAI?$AAM?$AAE?$AAR?$AA1?$AA2?$AA?$AA@| DCB "O"
	DCB	0x0, "M", 0x0, "A", 0x0, "P", 0x0, "_", 0x0, "D", 0x0, "E"
	DCB	0x0, "V", 0x0, "I", 0x0, "C", 0x0, "E", 0x0, "_", 0x0, "G"
	DCB	0x0, "P", 0x0, "T", 0x0, "I", 0x0, "M", 0x0, "E", 0x0, "R"
	DCB	0x0, "1", 0x0, "2", 0x0, 0x0, 0x0	; `string'

  00000			 AREA	 |.rdata|, DATA, READONLY
|??_C@_1CK@DJMEKAOO@?$AAO?$AAM?$AAA?$AAP?$AA_?$AAD?$AAE?$AAV?$AAI?$AAC?$AAE?$AA_?$AAG?$AAP?$AAT?$AAI?$AAM?$AAE?$AAR?$AA1?$AA?$AA@| DCB "O"
	DCB	0x0, "M", 0x0, "A", 0x0, "P", 0x0, "_", 0x0, "D", 0x0, "E"
	DCB	0x0, "V", 0x0, "I", 0x0, "C", 0x0, "E", 0x0, "_", 0x0, "G"
	DCB	0x0, "P", 0x0, "T", 0x0, "I", 0x0, "M", 0x0, "E", 0x0, "R"
	DCB	0x0, "1", 0x0, 0x0, 0x0			; `string'

  00000			 AREA	 |.rdata|, DATA, READONLY
|??_C@_1CE@EPOGLAMA@?$AAO?$AAM?$AAA?$AAP?$AA_?$AAD?$AAE?$AAV?$AAI?$AAC?$AAE?$AA_?$AAE?$AAF?$AAU?$AAS?$AAE?$AA?$AA@| DCB "O"
	DCB	0x0, "M", 0x0, "A", 0x0, "P", 0x0, "_", 0x0, "D", 0x0, "E"
	DCB	0x0, "V", 0x0, "I", 0x0, "C", 0x0, "E", 0x0, "_", 0x0, "E"
	DCB	0x0, "F", 0x0, "U", 0x0, "S", 0x0, "E", 0x0, 0x0, 0x0 ; `string'

  00000			 AREA	 |.rdata|, DATA, READONLY
|??_C@_1BO@GEAFECNL@?$AAO?$AAM?$AAA?$AAP?$AA_?$AAD?$AAE?$AAV?$AAI?$AAC?$AAE?$AA_?$AAT?$AAS?$AA?$AA@| DCB "O"
	DCB	0x0, "M", 0x0, "A", 0x0, "P", 0x0, "_", 0x0, "D", 0x0, "E"
	DCB	0x0, "V", 0x0, "I", 0x0, "C", 0x0, "E", 0x0, "_", 0x0, "T"
	DCB	0x0, "S", 0x0, 0x0, 0x0			; `string'

  00000			 AREA	 |.rdata|, DATA, READONLY
|??_C@_1CG@MLOIKIGB@?$AAO?$AAM?$AAA?$AAP?$AA_?$AAD?$AAE?$AAV?$AAI?$AAC?$AAE?$AA_?$AAU?$AAS?$AAB?$AAT?$AAL?$AAL?$AA?$AA@| DCB "O"
	DCB	0x0, "M", 0x0, "A", 0x0, "P", 0x0, "_", 0x0, "D", 0x0, "E"
	DCB	0x0, "V", 0x0, "I", 0x0, "C", 0x0, "E", 0x0, "_", 0x0, "U"
	DCB	0x0, "S", 0x0, "B", 0x0, "T", 0x0, "L", 0x0, "L", 0x0, 0x0
	DCB	0x0					; `string'

  00000			 AREA	 |.rdata|, DATA, READONLY
|??_C@_1CA@LCHJOJDJ@?$AAO?$AAM?$AAA?$AAP?$AA_?$AAD?$AAE?$AAV?$AAI?$AAC?$AAE?$AA_?$AAP?$AAK?$AAA?$AA?$AA@| DCB "O"
	DCB	0x0, "M", 0x0, "A", 0x0, "P", 0x0, "_", 0x0, "D", 0x0, "E"
	DCB	0x0, "V", 0x0, "I", 0x0, "C", 0x0, "E", 0x0, "_", 0x0, "P"
	DCB	0x0, "K", 0x0, "A", 0x0, 0x0, 0x0	; `string'

  00000			 AREA	 |.rdata|, DATA, READONLY
|??_C@_1CC@MDNKBKP@?$AAO?$AAM?$AAA?$AAP?$AA_?$AAD?$AAE?$AAV?$AAI?$AAC?$AAE?$AA_?$AAA?$AAE?$AAS?$AA1?$AA?$AA@| DCB "O"
	DCB	0x0, "M", 0x0, "A", 0x0, "P", 0x0, "_", 0x0, "D", 0x0, "E"
	DCB	0x0, "V", 0x0, "I", 0x0, "C", 0x0, "E", 0x0, "_", 0x0, "A"
	DCB	0x0, "E", 0x0, "S", 0x0, "1", 0x0, 0x0, 0x0 ; `string'

  00000			 AREA	 |.rdata|, DATA, READONLY
|??_C@_1CA@IFPKCACL@?$AAO?$AAM?$AAA?$AAP?$AA_?$AAD?$AAE?$AAV?$AAI?$AAC?$AAE?$AA_?$AAR?$AAN?$AAG?$AA?$AA@| DCB "O"
	DCB	0x0, "M", 0x0, "A", 0x0, "P", 0x0, "_", 0x0, "D", 0x0, "E"
	DCB	0x0, "V", 0x0, "I", 0x0, "C", 0x0, "E", 0x0, "_", 0x0, "R"
	DCB	0x0, "N", 0x0, "G", 0x0, 0x0, 0x0	; `string'

  00000			 AREA	 |.rdata|, DATA, READONLY
|??_C@_1CE@OLJKGOCE@?$AAO?$AAM?$AAA?$AAP?$AA_?$AAD?$AAE?$AAV?$AAI?$AAC?$AAE?$AA_?$AAS?$AAH?$AAA?$AA1?$AA1?$AA?$AA@| DCB "O"
	DCB	0x0, "M", 0x0, "A", 0x0, "P", 0x0, "_", 0x0, "D", 0x0, "E"
	DCB	0x0, "V", 0x0, "I", 0x0, "C", 0x0, "E", 0x0, "_", 0x0, "S"
	DCB	0x0, "H", 0x0, "A", 0x0, "1", 0x0, "1", 0x0, 0x0, 0x0 ; `string'

  00000			 AREA	 |.rdata|, DATA, READONLY
|??_C@_1CC@OKBEGKOL@?$AAO?$AAM?$AAA?$AAP?$AA_?$AAD?$AAE?$AAV?$AAI?$AAC?$AAE?$AA_?$AAD?$AAE?$AAS?$AA1?$AA?$AA@| DCB "O"
	DCB	0x0, "M", 0x0, "A", 0x0, "P", 0x0, "_", 0x0, "D", 0x0, "E"
	DCB	0x0, "V", 0x0, "I", 0x0, "C", 0x0, "E", 0x0, "_", 0x0, "D"
	DCB	0x0, "E", 0x0, "S", 0x0, "1", 0x0, 0x0, 0x0 ; `string'

  00000			 AREA	 |.rdata|, DATA, READONLY
|??_C@_1CA@HPHCLJCF@?$AAO?$AAM?$AAA?$AAP?$AA_?$AAD?$AAE?$AAV?$AAI?$AAC?$AAE?$AA_?$AAI?$AAC?$AAR?$AA?$AA@| DCB "O"
	DCB	0x0, "M", 0x0, "A", 0x0, "P", 0x0, "_", 0x0, "D", 0x0, "E"
	DCB	0x0, "V", 0x0, "I", 0x0, "C", 0x0, "E", 0x0, "_", 0x0, "I"
	DCB	0x0, "C", 0x0, "R", 0x0, 0x0, 0x0	; `string'

  00000			 AREA	 |.rdata|, DATA, READONLY
|??_C@_1CC@BOIIAOEB@?$AAO?$AAM?$AAA?$AAP?$AA_?$AAD?$AAE?$AAV?$AAI?$AAC?$AAE?$AA_?$AAA?$AAE?$AAS?$AA2?$AA?$AA@| DCB "O"
	DCB	0x0, "M", 0x0, "A", 0x0, "P", 0x0, "_", 0x0, "D", 0x0, "E"
	DCB	0x0, "V", 0x0, "I", 0x0, "C", 0x0, "E", 0x0, "_", 0x0, "A"
	DCB	0x0, "E", 0x0, "S", 0x0, "2", 0x0, 0x0, 0x0 ; `string'

  00000			 AREA	 |.rdata|, DATA, READONLY
|??_C@_1CE@PJCPMBMK@?$AAO?$AAM?$AAA?$AAP?$AA_?$AAD?$AAE?$AAV?$AAI?$AAC?$AAE?$AA_?$AAS?$AAH?$AAA?$AA1?$AA2?$AA?$AA@| DCB "O"
	DCB	0x0, "M", 0x0, "A", 0x0, "P", 0x0, "_", 0x0, "D", 0x0, "E"
	DCB	0x0, "V", 0x0, "I", 0x0, "C", 0x0, "E", 0x0, "_", 0x0, "S"
	DCB	0x0, "H", 0x0, "A", 0x0, "1", 0x0, "2", 0x0, 0x0, 0x0 ; `string'

  00000			 AREA	 |.rdata|, DATA, READONLY
|??_C@_1CC@PIKBMFAF@?$AAO?$AAM?$AAA?$AAP?$AA_?$AAD?$AAE?$AAV?$AAI?$AAC?$AAE?$AA_?$AAD?$AAE?$AAS?$AA2?$AA?$AA@| DCB "O"
	DCB	0x0, "M", 0x0, "A", 0x0, "P", 0x0, "_", 0x0, "D", 0x0, "E"
	DCB	0x0, "V", 0x0, "I", 0x0, "C", 0x0, "E", 0x0, "_", 0x0, "D"
	DCB	0x0, "E", 0x0, "S", 0x0, "2", 0x0, 0x0, 0x0 ; `string'

  00000			 AREA	 |.rdata|, DATA, READONLY
|??_C@_1CC@GMDLJAIE@?$AAO?$AAM?$AAA?$AAP?$AA_?$AAD?$AAE?$AAV?$AAI?$AAC?$AAE?$AA_?$AAM?$AAM?$AAC?$AA3?$AA?$AA@| DCB "O"
	DCB	0x0, "M", 0x0, "A", 0x0, "P", 0x0, "_", 0x0, "D", 0x0, "E"
	DCB	0x0, "V", 0x0, "I", 0x0, "C", 0x0, "E", 0x0, "_", 0x0, "M"
	DCB	0x0, "M", 0x0, "C", 0x0, "3", 0x0, 0x0, 0x0 ; `string'

  00000			 AREA	 |.rdata|, DATA, READONLY
|??_C@_1CC@NEIHPHOB@?$AAO?$AAM?$AAA?$AAP?$AA_?$AAD?$AAE?$AAV?$AAI?$AAC?$AAE?$AA_?$AAM?$AAM?$AAC?$AA2?$AA?$AA@| DCB "O"
	DCB	0x0, "M", 0x0, "A", 0x0, "P", 0x0, "_", 0x0, "D", 0x0, "E"
	DCB	0x0, "V", 0x0, "I", 0x0, "C", 0x0, "E", 0x0, "_", 0x0, "M"
	DCB	0x0, "M", 0x0, "C", 0x0, "2", 0x0, 0x0, 0x0 ; `string'

  00000			 AREA	 |.rdata|, DATA, READONLY
|??_C@_1CC@MGDCFIAP@?$AAO?$AAM?$AAA?$AAP?$AA_?$AAD?$AAE?$AAV?$AAI?$AAC?$AAE?$AA_?$AAM?$AAM?$AAC?$AA1?$AA?$AA@| DCB "O"
	DCB	0x0, "M", 0x0, "A", 0x0, "P", 0x0, "_", 0x0, "D", 0x0, "E"
	DCB	0x0, "V", 0x0, "I", 0x0, "C", 0x0, "E", 0x0, "_", 0x0, "M"
	DCB	0x0, "M", 0x0, "C", 0x0, "1", 0x0, 0x0, 0x0 ; `string'

  00000			 AREA	 |.rdata|, DATA, READONLY
|??_C@_1CE@GEGMLBDH@?$AAO?$AAM?$AAA?$AAP?$AA_?$AAD?$AAE?$AAV?$AAI?$AAC?$AAE?$AA_?$AAM?$AAS?$AAP?$AAR?$AAO?$AA?$AA@| DCB "O"
	DCB	0x0, "M", 0x0, "A", 0x0, "P", 0x0, "_", 0x0, "D", 0x0, "E"
	DCB	0x0, "V", 0x0, "I", 0x0, "C", 0x0, "E", 0x0, "_", 0x0, "M"
	DCB	0x0, "S", 0x0, "P", 0x0, "R", 0x0, "O", 0x0, 0x0, 0x0 ; `string'

  00000			 AREA	 |.rdata|, DATA, READONLY
|??_C@_1CA@LMGICGON@?$AAO?$AAM?$AAA?$AAP?$AA_?$AAD?$AAE?$AAV?$AAI?$AAC?$AAE?$AA_?$AAH?$AAD?$AAQ?$AA?$AA@| DCB "O"
	DCB	0x0, "M", 0x0, "A", 0x0, "P", 0x0, "_", 0x0, "D", 0x0, "E"
	DCB	0x0, "V", 0x0, "I", 0x0, "C", 0x0, "E", 0x0, "_", 0x0, "H"
	DCB	0x0, "D", 0x0, "Q", 0x0, 0x0, 0x0	; `string'

  00000			 AREA	 |.rdata|, DATA, READONLY
|??_C@_1CG@CAHLJKCL@?$AAO?$AAM?$AAA?$AAP?$AA_?$AAD?$AAE?$AAV?$AAI?$AAC?$AAE?$AA_?$AAM?$AAC?$AAS?$AAP?$AAI?$AA4?$AA?$AA@| DCB "O"
	DCB	0x0, "M", 0x0, "A", 0x0, "P", 0x0, "_", 0x0, "D", 0x0, "E"
	DCB	0x0, "V", 0x0, "I", 0x0, "C", 0x0, "E", 0x0, "_", 0x0, "M"
	DCB	0x0, "C", 0x0, "S", 0x0, "P", 0x0, "I", 0x0, "4", 0x0, 0x0
	DCB	0x0					; `string'

  00000			 AREA	 |.rdata|, DATA, READONLY
|??_C@_1CG@LNKMKCJC@?$AAO?$AAM?$AAA?$AAP?$AA_?$AAD?$AAE?$AAV?$AAI?$AAC?$AAE?$AA_?$AAM?$AAC?$AAS?$AAP?$AAI?$AA3?$AA?$AA@| DCB "O"
	DCB	0x0, "M", 0x0, "A", 0x0, "P", 0x0, "_", 0x0, "D", 0x0, "E"
	DCB	0x0, "V", 0x0, "I", 0x0, "C", 0x0, "E", 0x0, "_", 0x0, "M"
	DCB	0x0, "C", 0x0, "S", 0x0, "P", 0x0, "I", 0x0, "3", 0x0, 0x0
	DCB	0x0					; `string'

  00000			 AREA	 |.rdata|, DATA, READONLY
|??_C@_1CG@FBAMFPH@?$AAO?$AAM?$AAA?$AAP?$AA_?$AAD?$AAE?$AAV?$AAI?$AAC?$AAE?$AA_?$AAM?$AAC?$AAS?$AAP?$AAI?$AA2?$AA?$AA@| DCB "O"
	DCB	0x0, "M", 0x0, "A", 0x0, "P", 0x0, "_", 0x0, "D", 0x0, "E"
	DCB	0x0, "V", 0x0, "I", 0x0, "C", 0x0, "E", 0x0, "_", 0x0, "M"
	DCB	0x0, "C", 0x0, "S", 0x0, "P", 0x0, "I", 0x0, "2", 0x0, 0x0
	DCB	0x0					; `string'

  00000			 AREA	 |.rdata|, DATA, READONLY
|??_C@_1CG@BHKFGKBJ@?$AAO?$AAM?$AAA?$AAP?$AA_?$AAD?$AAE?$AAV?$AAI?$AAC?$AAE?$AA_?$AAM?$AAC?$AAS?$AAP?$AAI?$AA1?$AA?$AA@| DCB "O"
	DCB	0x0, "M", 0x0, "A", 0x0, "P", 0x0, "_", 0x0, "D", 0x0, "E"
	DCB	0x0, "V", 0x0, "I", 0x0, "C", 0x0, "E", 0x0, "_", 0x0, "M"
	DCB	0x0, "C", 0x0, "S", 0x0, "P", 0x0, "I", 0x0, "1", 0x0, 0x0
	DCB	0x0					; `string'

  00000			 AREA	 |.rdata|, DATA, READONLY
|??_C@_1CC@BAKALDMC@?$AAO?$AAM?$AAA?$AAP?$AA_?$AAD?$AAE?$AAV?$AAI?$AAC?$AAE?$AA_?$AAI?$AA2?$AAC?$AA3?$AA?$AA@| DCB "O"
	DCB	0x0, "M", 0x0, "A", 0x0, "P", 0x0, "_", 0x0, "D", 0x0, "E"
	DCB	0x0, "V", 0x0, "I", 0x0, "C", 0x0, "E", 0x0, "_", 0x0, "I"
	DCB	0x0, "2", 0x0, "C", 0x0, "3", 0x0, 0x0, 0x0 ; `string'

  00000			 AREA	 |.rdata|, DATA, READONLY
|??_C@_1CC@KIBMNEKH@?$AAO?$AAM?$AAA?$AAP?$AA_?$AAD?$AAE?$AAV?$AAI?$AAC?$AAE?$AA_?$AAI?$AA2?$AAC?$AA2?$AA?$AA@| DCB "O"
	DCB	0x0, "M", 0x0, "A", 0x0, "P", 0x0, "_", 0x0, "D", 0x0, "E"
	DCB	0x0, "V", 0x0, "I", 0x0, "C", 0x0, "E", 0x0, "_", 0x0, "I"
	DCB	0x0, "2", 0x0, "C", 0x0, "2", 0x0, 0x0, 0x0 ; `string'

  00000			 AREA	 |.rdata|, DATA, READONLY
|??_C@_1CC@LKKJHLEJ@?$AAO?$AAM?$AAA?$AAP?$AA_?$AAD?$AAE?$AAV?$AAI?$AAC?$AAE?$AA_?$AAI?$AA2?$AAC?$AA1?$AA?$AA@| DCB "O"
	DCB	0x0, "M", 0x0, "A", 0x0, "P", 0x0, "_", 0x0, "D", 0x0, "E"
	DCB	0x0, "V", 0x0, "I", 0x0, "C", 0x0, "E", 0x0, "_", 0x0, "I"
	DCB	0x0, "2", 0x0, "C", 0x0, "1", 0x0, 0x0, 0x0 ; `string'

  00000			 AREA	 |.rdata|, DATA, READONLY
|??_C@_1CE@EAAKOHMB@?$AAO?$AAM?$AAA?$AAP?$AA_?$AAD?$AAE?$AAV?$AAI?$AAC?$AAE?$AA_?$AAU?$AAA?$AAR?$AAT?$AA2?$AA?$AA@| DCB "O"
	DCB	0x0, "M", 0x0, "A", 0x0, "P", 0x0, "_", 0x0, "D", 0x0, "E"
	DCB	0x0, "V", 0x0, "I", 0x0, "C", 0x0, "E", 0x0, "_", 0x0, "U"
	DCB	0x0, "A", 0x0, "R", 0x0, "T", 0x0, "2", 0x0, 0x0, 0x0 ; `string'

  00000			 AREA	 |.rdata|, DATA, READONLY
|??_C@_1CE@FCLPEICP@?$AAO?$AAM?$AAA?$AAP?$AA_?$AAD?$AAE?$AAV?$AAI?$AAC?$AAE?$AA_?$AAU?$AAA?$AAR?$AAT?$AA1?$AA?$AA@| DCB "O"
	DCB	0x0, "M", 0x0, "A", 0x0, "P", 0x0, "_", 0x0, "D", 0x0, "E"
	DCB	0x0, "V", 0x0, "I", 0x0, "C", 0x0, "E", 0x0, "_", 0x0, "U"
	DCB	0x0, "A", 0x0, "R", 0x0, "T", 0x0, "1", 0x0, 0x0, 0x0 ; `string'

  00000			 AREA	 |.rdata|, DATA, READONLY
|??_C@_1CM@FOLMNLIK@?$AAO?$AAM?$AAA?$AAP?$AA_?$AAD?$AAE?$AAV?$AAI?$AAC?$AAE?$AA_?$AAG?$AAP?$AAT?$AAI?$AAM?$AAE?$AAR?$AA1?$AA1?$AA?$AA@| DCB "O"
	DCB	0x0, "M", 0x0, "A", 0x0, "P", 0x0, "_", 0x0, "D", 0x0, "E"
	DCB	0x0, "V", 0x0, "I", 0x0, "C", 0x0, "E", 0x0, "_", 0x0, "G"
	DCB	0x0, "P", 0x0, "T", 0x0, "I", 0x0, "M", 0x0, "E", 0x0, "R"
	DCB	0x0, "1", 0x0, "1", 0x0, 0x0, 0x0	; `string'

  00000			 AREA	 |.rdata|, DATA, READONLY
|??_C@_1CM@OGAALMOP@?$AAO?$AAM?$AAA?$AAP?$AA_?$AAD?$AAE?$AAV?$AAI?$AAC?$AAE?$AA_?$AAG?$AAP?$AAT?$AAI?$AAM?$AAE?$AAR?$AA1?$AA0?$AA?$AA@| DCB "O"
	DCB	0x0, "M", 0x0, "A", 0x0, "P", 0x0, "_", 0x0, "D", 0x0, "E"
	DCB	0x0, "V", 0x0, "I", 0x0, "C", 0x0, "E", 0x0, "_", 0x0, "G"
	DCB	0x0, "P", 0x0, "T", 0x0, "I", 0x0, "M", 0x0, "E", 0x0, "R"
	DCB	0x0, "1", 0x0, "0", 0x0, 0x0, 0x0	; `string'

  00000			 AREA	 |.rdata|, DATA, READONLY
|??_C@_1CG@PKPNEDCI@?$AAO?$AAM?$AAA?$AAP?$AA_?$AAD?$AAE?$AAV?$AAI?$AAC?$AAE?$AA_?$AAM?$AAC?$AAB?$AAS?$AAP?$AA5?$AA?$AA@| DCB "O"
	DCB	0x0, "M", 0x0, "A", 0x0, "P", 0x0, "_", 0x0, "D", 0x0, "E"
	DCB	0x0, "V", 0x0, "I", 0x0, "C", 0x0, "E", 0x0, "_", 0x0, "M"
	DCB	0x0, "C", 0x0, "B", 0x0, "S", 0x0, "P", 0x0, "5", 0x0, 0x0
	DCB	0x0					; `string'

  00000			 AREA	 |.rdata|, DATA, READONLY
|??_C@_1CG@HFJPNEHP@?$AAO?$AAM?$AAA?$AAP?$AA_?$AAD?$AAE?$AAV?$AAI?$AAC?$AAE?$AA_?$AAM?$AAC?$AAB?$AAS?$AAP?$AA1?$AA?$AA@| DCB "O"
	DCB	0x0, "M", 0x0, "A", 0x0, "P", 0x0, "_", 0x0, "D", 0x0, "E"
	DCB	0x0, "V", 0x0, "I", 0x0, "C", 0x0, "E", 0x0, "_", 0x0, "M"
	DCB	0x0, "C", 0x0, "B", 0x0, "S", 0x0, "P", 0x0, "1", 0x0, 0x0
	DCB	0x0					; `string'

  00000			 AREA	 |.rdata|, DATA, READONLY
|??_C@_1CM@FGHMOAMI@?$AAO?$AAM?$AAA?$AAP?$AA_?$AAD?$AAE?$AAV?$AAI?$AAC?$AAE?$AA_?$AAM?$AAA?$AAI?$AAL?$AAB?$AAO?$AAX?$AAE?$AAS?$AA?$AA@| DCB "O"
	DCB	0x0, "M", 0x0, "A", 0x0, "P", 0x0, "_", 0x0, "D", 0x0, "E"
	DCB	0x0, "V", 0x0, "I", 0x0, "C", 0x0, "E", 0x0, "_", 0x0, "M"
	DCB	0x0, "A", 0x0, "I", 0x0, "L", 0x0, "B", 0x0, "O", 0x0, "X"
	DCB	0x0, "E", 0x0, "S", 0x0, 0x0, 0x0	; `string'

  00000			 AREA	 |.rdata|, DATA, READONLY
|??_C@_1CK@IFNFIOAO@?$AAO?$AAM?$AAA?$AAP?$AA_?$AAD?$AAE?$AAV?$AAI?$AAC?$AAE?$AA_?$AAO?$AAM?$AAA?$AAP?$AAC?$AAT?$AAR?$AAL?$AA?$AA@| DCB "O"
	DCB	0x0, "M", 0x0, "A", 0x0, "P", 0x0, "_", 0x0, "D", 0x0, "E"
	DCB	0x0, "V", 0x0, "I", 0x0, "C", 0x0, "E", 0x0, "_", 0x0, "O"
	DCB	0x0, "M", 0x0, "A", 0x0, "P", 0x0, "C", 0x0, "T", 0x0, "R"
	DCB	0x0, "L", 0x0, 0x0, 0x0			; `string'

  00000			 AREA	 |.rdata|, DATA, READONLY
|??_C@_1CK@IEABCGNC@?$AAO?$AAM?$AAA?$AAP?$AA_?$AAD?$AAE?$AAV?$AAI?$AAC?$AAE?$AA_?$AAH?$AAS?$AAO?$AAT?$AAG?$AAU?$AAS?$AAB?$AA?$AA@| DCB "O"
	DCB	0x0, "M", 0x0, "A", 0x0, "P", 0x0, "_", 0x0, "D", 0x0, "E"
	DCB	0x0, "V", 0x0, "I", 0x0, "C", 0x0, "E", 0x0, "_", 0x0, "H"
	DCB	0x0, "S", 0x0, "O", 0x0, "T", 0x0, "G", 0x0, "U", 0x0, "S"
	DCB	0x0, "B", 0x0, 0x0, 0x0			; `string'

  00000			 AREA	 |.rdata|, DATA, READONLY
|??_C@_1CA@FBHLHKND@?$AAO?$AAM?$AAA?$AAP?$AA_?$AAD?$AAE?$AAV?$AAI?$AAC?$AAE?$AA_?$AAD?$AA2?$AAD?$AA?$AA@| DCB "O"
	DCB	0x0, "M", 0x0, "A", 0x0, "P", 0x0, "_", 0x0, "D", 0x0, "E"
	DCB	0x0, "V", 0x0, "I", 0x0, "C", 0x0, "E", 0x0, "_", 0x0, "D"
	DCB	0x0, "2", 0x0, "D", 0x0, 0x0, 0x0	; `string'

  00000			 AREA	 |.rdata|, DATA, READONLY
|??_C@_1CC@OJKGELFG@?$AAO?$AAM?$AAA?$AAP?$AA_?$AAD?$AAE?$AAV?$AAI?$AAC?$AAE?$AA_?$AAS?$AAD?$AAR?$AAC?$AA?$AA@| DCB "O"
	DCB	0x0, "M", 0x0, "A", 0x0, "P", 0x0, "_", 0x0, "D", 0x0, "E"
	DCB	0x0, "V", 0x0, "I", 0x0, "C", 0x0, "E", 0x0, "_", 0x0, "S"
	DCB	0x0, "D", 0x0, "R", 0x0, "C", 0x0, 0x0, 0x0 ; `string'

  00000			 AREA	 |.rdata|, DATA, READONLY
|??_C@_1CI@JGKNPEFC@?$AAO?$AAM?$AAA?$AAP?$AA_?$AAD?$AAE?$AAV?$AAI?$AAC?$AAE?$AA_?$AAS?$AAS?$AAI?$AA?5?$AA?$DN?$AA?5?$AA0?$AA?$AA@| DCB "O"
	DCB	0x0, "M", 0x0, "A", 0x0, "P", 0x0, "_", 0x0, "D", 0x0, "E"
	DCB	0x0, "V", 0x0, "I", 0x0, "C", 0x0, "E", 0x0, "_", 0x0, "S"
	DCB	0x0, "S", 0x0, "I", 0x0, " ", 0x0, "=", 0x0, " ", 0x0, "0"
	DCB	0x0, 0x0, 0x0				; `string'

  00000			 AREA	 |.rdata|, DATA, READONLY
|??_C@_1BI@MMHHFKED@?$AAk?$AAG?$AAP?$AAT?$AA1?$AA1?$AA_?$AAF?$AAC?$AAL?$AAK?$AA?$AA@| DCB "k"
	DCB	0x0, "G", 0x0, "P", 0x0, "T", 0x0, "1", 0x0, "1", 0x0, "_"
	DCB	0x0, "F", 0x0, "C", 0x0, "L", 0x0, "K", 0x0, 0x0, 0x0 ; `string'

  00000			 AREA	 |.rdata|, DATA, READONLY
|??_C@_1BI@FBHILLDF@?$AAk?$AAG?$AAP?$AAT?$AA1?$AA0?$AA_?$AAF?$AAC?$AAL?$AAK?$AA?$AA@| DCB "k"
	DCB	0x0, "G", 0x0, "P", 0x0, "T", 0x0, "1", 0x0, "0", 0x0, "_"
	DCB	0x0, "F", 0x0, "C", 0x0, "L", 0x0, "K", 0x0, 0x0, 0x0 ; `string'

  00000			 AREA	 |.rdata|, DATA, READONLY
|??_C@_1CC@CDCMPIGB@?$AAk?$AAG?$AAP?$AAT?$AA9?$AA_?$AAA?$AAL?$AAW?$AAO?$AAN?$AA_?$AAF?$AAC?$AAL?$AAK?$AA?$AA@| DCB "k"
	DCB	0x0, "G", 0x0, "P", 0x0, "T", 0x0, "9", 0x0, "_", 0x0, "A"
	DCB	0x0, "L", 0x0, "W", 0x0, "O", 0x0, "N", 0x0, "_", 0x0, "F"
	DCB	0x0, "C", 0x0, "L", 0x0, "K", 0x0, 0x0, 0x0 ; `string'

  00000			 AREA	 |.rdata|, DATA, READONLY
|??_C@_1CC@MEDBFOPG@?$AAk?$AAG?$AAP?$AAT?$AA8?$AA_?$AAA?$AAL?$AAW?$AAO?$AAN?$AA_?$AAF?$AAC?$AAL?$AAK?$AA?$AA@| DCB "k"
	DCB	0x0, "G", 0x0, "P", 0x0, "T", 0x0, "8", 0x0, "_", 0x0, "A"
	DCB	0x0, "L", 0x0, "W", 0x0, "O", 0x0, "N", 0x0, "_", 0x0, "F"
	DCB	0x0, "C", 0x0, "L", 0x0, "K", 0x0, 0x0, 0x0 ; `string'

  00000			 AREA	 |.rdata|, DATA, READONLY
|??_C@_1CC@EJNLAIGM@?$AAk?$AAG?$AAP?$AAT?$AA7?$AA_?$AAA?$AAL?$AAW?$AAO?$AAN?$AA_?$AAF?$AAC?$AAL?$AAK?$AA?$AA@| DCB "k"
	DCB	0x0, "G", 0x0, "P", 0x0, "T", 0x0, "7", 0x0, "_", 0x0, "A"
	DCB	0x0, "L", 0x0, "W", 0x0, "O", 0x0, "N", 0x0, "_", 0x0, "F"
	DCB	0x0, "C", 0x0, "L", 0x0, "K", 0x0, 0x0, 0x0 ; `string'

  00000			 AREA	 |.rdata|, DATA, READONLY
|??_C@_1CC@KOMGKOPL@?$AAk?$AAG?$AAP?$AAT?$AA6?$AA_?$AAA?$AAL?$AAW?$AAO?$AAN?$AA_?$AAF?$AAC?$AAL?$AAK?$AA?$AA@| DCB "k"
	DCB	0x0, "G", 0x0, "P", 0x0, "T", 0x0, "6", 0x0, "_", 0x0, "A"
	DCB	0x0, "L", 0x0, "W", 0x0, "O", 0x0, "N", 0x0, "_", 0x0, "F"
	DCB	0x0, "C", 0x0, "L", 0x0, "K", 0x0, 0x0, 0x0 ; `string'

  00000			 AREA	 |.rdata|, DATA, READONLY
|??_C@_1CC@FMJBEDAD@?$AAk?$AAG?$AAP?$AAT?$AA5?$AA_?$AAA?$AAL?$AAW?$AAO?$AAN?$AA_?$AAF?$AAC?$AAL?$AAK?$AA?$AA@| DCB "k"
	DCB	0x0, "G", 0x0, "P", 0x0, "T", 0x0, "5", 0x0, "_", 0x0, "A"
	DCB	0x0, "L", 0x0, "W", 0x0, "O", 0x0, "N", 0x0, "_", 0x0, "F"
	DCB	0x0, "C", 0x0, "L", 0x0, "K", 0x0, 0x0, 0x0 ; `string'

  00000			 AREA	 |.rdata|, DATA, READONLY
|??_C@_1CC@LLIMOFJE@?$AAk?$AAG?$AAP?$AAT?$AA4?$AA_?$AAA?$AAL?$AAW?$AAO?$AAN?$AA_?$AAF?$AAC?$AAL?$AAK?$AA?$AA@| DCB "k"
	DCB	0x0, "G", 0x0, "P", 0x0, "T", 0x0, "4", 0x0, "_", 0x0, "A"
	DCB	0x0, "L", 0x0, "W", 0x0, "O", 0x0, "N", 0x0, "_", 0x0, "F"
	DCB	0x0, "C", 0x0, "L", 0x0, "K", 0x0, 0x0, 0x0 ; `string'

  00000			 AREA	 |.rdata|, DATA, READONLY
|??_C@_1CC@GDEPJOLC@?$AAk?$AAG?$AAP?$AAT?$AA3?$AA_?$AAA?$AAL?$AAW?$AAO?$AAN?$AA_?$AAF?$AAC?$AAL?$AAK?$AA?$AA@| DCB "k"
	DCB	0x0, "G", 0x0, "P", 0x0, "T", 0x0, "3", 0x0, "_", 0x0, "A"
	DCB	0x0, "L", 0x0, "W", 0x0, "O", 0x0, "N", 0x0, "_", 0x0, "F"
	DCB	0x0, "C", 0x0, "L", 0x0, "K", 0x0, 0x0, 0x0 ; `string'

  00000			 AREA	 |.rdata|, DATA, READONLY
|??_C@_1CC@IEFCDICF@?$AAk?$AAG?$AAP?$AAT?$AA2?$AA_?$AAA?$AAL?$AAW?$AAO?$AAN?$AA_?$AAF?$AAC?$AAL?$AAK?$AA?$AA@| DCB "k"
	DCB	0x0, "G", 0x0, "P", 0x0, "T", 0x0, "2", 0x0, "_", 0x0, "A"
	DCB	0x0, "L", 0x0, "W", 0x0, "O", 0x0, "N", 0x0, "_", 0x0, "F"
	DCB	0x0, "C", 0x0, "L", 0x0, "K", 0x0, 0x0, 0x0 ; `string'

  00000			 AREA	 |.rdata|, DATA, READONLY
|??_C@_1BG@LBMJBNDI@?$AAk?$AAG?$AAP?$AAT?$AA1?$AA_?$AAF?$AAC?$AAL?$AAK?$AA?$AA@| DCB "k"
	DCB	0x0, "G", 0x0, "P", 0x0, "T", 0x0, "1", 0x0, "_", 0x0, "F"
	DCB	0x0, "C", 0x0, "L", 0x0, "K", 0x0, 0x0, 0x0 ; `string'

  00000			 AREA	 |.rdata|, DATA, READONLY
|??_C@_1BE@BKPHEHJG@?$AAk?$AAS?$AAG?$AAX?$AA_?$AAF?$AAC?$AAL?$AAK?$AA?$AA@| DCB "k"
	DCB	0x0, "S", 0x0, "G", 0x0, "X", 0x0, "_", 0x0, "F", 0x0, "C"
	DCB	0x0, "L", 0x0, "K", 0x0, 0x0, 0x0	; `string'

  00000			 AREA	 |.rdata|, DATA, READONLY
|??_C@_1BE@OHPPGGKJ@?$AAk?$AA5?$AA4?$AAM?$AA_?$AAF?$AAC?$AAL?$AAK?$AA?$AA@| DCB "k"
	DCB	0x0, "5", 0x0, "4", 0x0, "M", 0x0, "_", 0x0, "F", 0x0, "C"
	DCB	0x0, "L", 0x0, "K", 0x0, 0x0, 0x0	; `string'

  00000			 AREA	 |.rdata|, DATA, READONLY
|??_C@_1BE@KPIPADIA@?$AAk?$AA4?$AA8?$AAM?$AA_?$AAF?$AAC?$AAL?$AAK?$AA?$AA@| DCB "k"
	DCB	0x0, "4", 0x0, "8", 0x0, "M", 0x0, "_", 0x0, "F", 0x0, "C"
	DCB	0x0, "L", 0x0, "K", 0x0, 0x0, 0x0	; `string'

  00000			 AREA	 |.rdata|, DATA, READONLY
|??_C@_1BE@HMKGDKMA@?$AAk?$AA9?$AA6?$AAM?$AA_?$AAF?$AAC?$AAL?$AAK?$AA?$AA@| DCB "k"
	DCB	0x0, "9", 0x0, "6", 0x0, "M", 0x0, "_", 0x0, "F", 0x0, "C"
	DCB	0x0, "L", 0x0, "K", 0x0, 0x0, 0x0	; `string'

  00000			 AREA	 |.rdata|, DATA, READONLY
|??_C@_1BG@FOLAEDFM@?$AAk?$AAU?$AAS?$AAI?$AAM?$AA_?$AAF?$AAC?$AAL?$AAK?$AA?$AA@| DCB "k"
	DCB	0x0, "U", 0x0, "S", 0x0, "I", 0x0, "M", 0x0, "_", 0x0, "F"
	DCB	0x0, "C", 0x0, "L", 0x0, "K", 0x0, 0x0, 0x0 ; `string'

  00000			 AREA	 |.rdata|, DATA, READONLY
|??_C@_1BK@FIGBAONF@?$AAk?$AAC?$AAM?$AA_?$AAU?$AAS?$AAI?$AAM?$AA_?$AAC?$AAL?$AAK?$AA?$AA@| DCB "k"
	DCB	0x0, "C", 0x0, "M", 0x0, "_", 0x0, "U", 0x0, "S", 0x0, "I"
	DCB	0x0, "M", 0x0, "_", 0x0, "C", 0x0, "L", 0x0, "K", 0x0, 0x0
	DCB	0x0					; `string'

  00000			 AREA	 |.rdata|, DATA, READONLY
|??_C@_1CG@INMPAIAN@?$AAk?$AAU?$AAS?$AAB?$AAH?$AAO?$AAS?$AAT?$AA_?$AA1?$AA2?$AA0?$AAM?$AA_?$AAF?$AAC?$AAL?$AAK?$AA?$AA@| DCB "k"
	DCB	0x0, "U", 0x0, "S", 0x0, "B", 0x0, "H", 0x0, "O", 0x0, "S"
	DCB	0x0, "T", 0x0, "_", 0x0, "1", 0x0, "2", 0x0, "0", 0x0, "M"
	DCB	0x0, "_", 0x0, "F", 0x0, "C", 0x0, "L", 0x0, "K", 0x0, 0x0
	DCB	0x0					; `string'

  00000			 AREA	 |.rdata|, DATA, READONLY
|??_C@_1BK@DMMIFOKJ@?$AAk?$AAD?$AAS?$AAS?$AA_?$AAT?$AAV?$AA_?$AAF?$AAC?$AAL?$AAK?$AA?$AA@| DCB "k"
	DCB	0x0, "D", 0x0, "S", 0x0, "S", 0x0, "_", 0x0, "T", 0x0, "V"
	DCB	0x0, "_", 0x0, "F", 0x0, "C", 0x0, "L", 0x0, "K", 0x0, 0x0
	DCB	0x0					; `string'

  00000			 AREA	 |.rdata|, DATA, READONLY
|??_C@_1BO@KGNEDEAO@?$AAk?$AAC?$AAO?$AAR?$AAE?$AA_?$AA1?$AA2?$AAM?$AA_?$AAF?$AAC?$AAL?$AAK?$AA?$AA@| DCB "k"
	DCB	0x0, "C", 0x0, "O", 0x0, "R", 0x0, "E", 0x0, "_", 0x0, "1"
	DCB	0x0, "2", 0x0, "M", 0x0, "_", 0x0, "F", 0x0, "C", 0x0, "L"
	DCB	0x0, "K", 0x0, 0x0, 0x0			; `string'

  00000			 AREA	 |.rdata|, DATA, READONLY
|??_C@_1BE@LPMGNIEL@?$AAk?$AA1?$AA2?$AAM?$AA_?$AAF?$AAC?$AAL?$AAK?$AA?$AA@| DCB "k"
	DCB	0x0, "1", 0x0, "2", 0x0, "M", 0x0, "_", 0x0, "F", 0x0, "C"
	DCB	0x0, "L", 0x0, "K", 0x0, 0x0, 0x0	; `string'

  00000			 AREA	 |.rdata|, DATA, READONLY
|??_C@_1BM@CNNCGJCM@?$AAk?$AAP?$AAE?$AAR?$AA_?$AA4?$AA8?$AAM?$AA_?$AAF?$AAC?$AAL?$AAK?$AA?$AA@| DCB "k"
	DCB	0x0, "P", 0x0, "E", 0x0, "R", 0x0, "_", 0x0, "4", 0x0, "8"
	DCB	0x0, "M", 0x0, "_", 0x0, "F", 0x0, "C", 0x0, "L", 0x0, "K"
	DCB	0x0, 0x0, 0x0				; `string'

  00000			 AREA	 |.rdata|, DATA, READONLY
|??_C@_1CE@JDPIHICJ@?$AAk?$AAU?$AAS?$AAB?$AAH?$AAO?$AAS?$AAT?$AA_?$AA4?$AA8?$AAM?$AA_?$AAF?$AAC?$AAL?$AAK?$AA?$AA@| DCB "k"
	DCB	0x0, "U", 0x0, "S", 0x0, "B", 0x0, "H", 0x0, "O", 0x0, "S"
	DCB	0x0, "T", 0x0, "_", 0x0, "4", 0x0, "8", 0x0, "M", 0x0, "_"
	DCB	0x0, "F", 0x0, "C", 0x0, "L", 0x0, "K", 0x0, 0x0, 0x0 ; `string'

  00000			 AREA	 |.rdata|, DATA, READONLY
|??_C@_1BO@LGJNOPMF@?$AAk?$AAC?$AAO?$AAR?$AAE?$AA_?$AA4?$AA8?$AAM?$AA_?$AAF?$AAC?$AAL?$AAK?$AA?$AA@| DCB "k"
	DCB	0x0, "C", 0x0, "O", 0x0, "R", 0x0, "E", 0x0, "_", 0x0, "4"
	DCB	0x0, "8", 0x0, "M", 0x0, "_", 0x0, "F", 0x0, "C", 0x0, "L"
	DCB	0x0, "K", 0x0, 0x0, 0x0			; `string'

  00000			 AREA	 |.rdata|, DATA, READONLY
|??_C@_1BO@MLNMBJDB@?$AAk?$AAC?$AAS?$AAI?$AA2?$AA_?$AA9?$AA6?$AAM?$AA_?$AAF?$AAC?$AAL?$AAK?$AA?$AA@| DCB "k"
	DCB	0x0, "C", 0x0, "S", 0x0, "I", 0x0, "2", 0x0, "_", 0x0, "9"
	DCB	0x0, "6", 0x0, "M", 0x0, "_", 0x0, "F", 0x0, "C", 0x0, "L"
	DCB	0x0, "K", 0x0, 0x0, 0x0			; `string'

  00000			 AREA	 |.rdata|, DATA, READONLY
|??_C@_1BM@KGEDNEGH@?$AAk?$AAD?$AAS?$AAS?$AA_?$AA9?$AA6?$AAM?$AA_?$AAF?$AAC?$AAL?$AAK?$AA?$AA@| DCB "k"
	DCB	0x0, "D", 0x0, "S", 0x0, "S", 0x0, "_", 0x0, "9", 0x0, "6"
	DCB	0x0, "M", 0x0, "_", 0x0, "F", 0x0, "C", 0x0, "L", 0x0, "K"
	DCB	0x0, 0x0, 0x0				; `string'

  00000			 AREA	 |.rdata|, DATA, READONLY
|??_C@_1BO@GFLENGIF@?$AAk?$AAC?$AAO?$AAR?$AAE?$AA_?$AA9?$AA6?$AAM?$AA_?$AAF?$AAC?$AAL?$AAK?$AA?$AA@| DCB "k"
	DCB	0x0, "C", 0x0, "O", 0x0, "R", 0x0, "E", 0x0, "_", 0x0, "9"
	DCB	0x0, "6", 0x0, "M", 0x0, "_", 0x0, "F", 0x0, "C", 0x0, "L"
	DCB	0x0, "K", 0x0, 0x0, 0x0			; `string'

  00000			 AREA	 |.rdata|, DATA, READONLY
|??_C@_1BM@JEIEMPJK@?$AAk?$AAS?$AAS?$AAI?$AA_?$AAS?$AAS?$AAT?$AA_?$AAF?$AAC?$AAL?$AAK?$AA?$AA@| DCB "k"
	DCB	0x0, "S", 0x0, "S", 0x0, "I", 0x0, "_", 0x0, "S", 0x0, "S"
	DCB	0x0, "T", 0x0, "_", 0x0, "F", 0x0, "C", 0x0, "L", 0x0, "K"
	DCB	0x0, 0x0, 0x0				; `string'

  00000			 AREA	 |.rdata|, DATA, READONLY
|??_C@_1BM@GMEGIECM@?$AAk?$AAS?$AAS?$AAI?$AA_?$AAS?$AAS?$AAR?$AA_?$AAF?$AAC?$AAL?$AAK?$AA?$AA@| DCB "k"
	DCB	0x0, "S", 0x0, "S", 0x0, "I", 0x0, "_", 0x0, "S", 0x0, "S"
	DCB	0x0, "R", 0x0, "_", 0x0, "F", 0x0, "C", 0x0, "L", 0x0, "K"
	DCB	0x0, 0x0, 0x0				; `string'

  00000			 AREA	 |.rdata|, DATA, READONLY
|??_C@_1BI@KNLMECEA@?$AAk?$AAS?$AAR?$AA_?$AAL?$AA4?$AA_?$AAI?$AAC?$AAL?$AAK?$AA?$AA@| DCB "k"
	DCB	0x0, "S", 0x0, "R", 0x0, "_", 0x0, "L", 0x0, "4", 0x0, "_"
	DCB	0x0, "I", 0x0, "C", 0x0, "L", 0x0, "K", 0x0, 0x0, 0x0 ; `string'

  00000			 AREA	 |.rdata|, DATA, READONLY
|??_C@_1BK@JNEICFJE@?$AAk?$AAP?$AAE?$AAR?$AA_?$AAL?$AA4?$AA_?$AAI?$AAC?$AAL?$AAK?$AA?$AA@| DCB "k"
	DCB	0x0, "P", 0x0, "E", 0x0, "R", 0x0, "_", 0x0, "L", 0x0, "4"
	DCB	0x0, "_", 0x0, "I", 0x0, "C", 0x0, "L", 0x0, "K", 0x0, 0x0
	DCB	0x0					; `string'

  00000			 AREA	 |.rdata|, DATA, READONLY
|??_C@_1CC@CIKJOCKA@?$AAk?$AAU?$AAS?$AAB?$AAH?$AAO?$AAS?$AAT?$AA_?$AAL?$AA4?$AA_?$AAI?$AAC?$AAL?$AAK?$AA?$AA@| DCB "k"
	DCB	0x0, "U", 0x0, "S", 0x0, "B", 0x0, "H", 0x0, "O", 0x0, "S"
	DCB	0x0, "T", 0x0, "_", 0x0, "L", 0x0, "4", 0x0, "_", 0x0, "I"
	DCB	0x0, "C", 0x0, "L", 0x0, "K", 0x0, 0x0, 0x0 ; `string'

  00000			 AREA	 |.rdata|, DATA, READONLY
|??_C@_1CC@ENGEEIGA@?$AAk?$AAU?$AAS?$AAB?$AAH?$AAO?$AAS?$AAT?$AA_?$AAL?$AA3?$AA_?$AAI?$AAC?$AAL?$AAK?$AA?$AA@| DCB "k"
	DCB	0x0, "U", 0x0, "S", 0x0, "B", 0x0, "H", 0x0, "O", 0x0, "S"
	DCB	0x0, "T", 0x0, "_", 0x0, "L", 0x0, "3", 0x0, "_", 0x0, "I"
	DCB	0x0, "C", 0x0, "L", 0x0, "K", 0x0, 0x0, 0x0 ; `string'

  00000			 AREA	 |.rdata|, DATA, READONLY
|??_C@_1BK@HKMFLLIF@?$AAk?$AAC?$AAA?$AAM?$AA_?$AAL?$AA4?$AA_?$AAI?$AAC?$AAL?$AAK?$AA?$AA@| DCB "k"
	DCB	0x0, "C", 0x0, "A", 0x0, "M", 0x0, "_", 0x0, "L", 0x0, "4"
	DCB	0x0, "_", 0x0, "I", 0x0, "C", 0x0, "L", 0x0, "K", 0x0, 0x0
	DCB	0x0					; `string'

  00000			 AREA	 |.rdata|, DATA, READONLY
|??_C@_1BK@BPAIBBEF@?$AAk?$AAC?$AAA?$AAM?$AA_?$AAL?$AA3?$AA_?$AAI?$AAC?$AAL?$AAK?$AA?$AA@| DCB "k"
	DCB	0x0, "C", 0x0, "A", 0x0, "M", 0x0, "_", 0x0, "L", 0x0, "3"
	DCB	0x0, "_", 0x0, "I", 0x0, "C", 0x0, "L", 0x0, "K", 0x0, 0x0
	DCB	0x0					; `string'

  00000			 AREA	 |.rdata|, DATA, READONLY
|??_C@_1BK@DFEEOPHB@?$AAk?$AAD?$AAS?$AAS?$AA_?$AAL?$AA4?$AA_?$AAI?$AAC?$AAL?$AAK?$AA?$AA@| DCB "k"
	DCB	0x0, "D", 0x0, "S", 0x0, "S", 0x0, "_", 0x0, "L", 0x0, "4"
	DCB	0x0, "_", 0x0, "I", 0x0, "C", 0x0, "L", 0x0, "K", 0x0, 0x0
	DCB	0x0					; `string'

  00000			 AREA	 |.rdata|, DATA, READONLY
|??_C@_1BK@FAIJEFLB@?$AAk?$AAD?$AAS?$AAS?$AA_?$AAL?$AA3?$AA_?$AAI?$AAC?$AAL?$AAK?$AA?$AA@| DCB "k"
	DCB	0x0, "D", 0x0, "S", 0x0, "S", 0x0, "_", 0x0, "L", 0x0, "3"
	DCB	0x0, "_", 0x0, "I", 0x0, "C", 0x0, "L", 0x0, "K", 0x0, 0x0
	DCB	0x0					; `string'

  00000			 AREA	 |.rdata|, DATA, READONLY
|??_C@_1BK@MMOEKMCA@?$AAk?$AAS?$AAS?$AAI?$AA_?$AAL?$AA4?$AA_?$AAI?$AAC?$AAL?$AAK?$AA?$AA@| DCB "k"
	DCB	0x0, "S", 0x0, "S", 0x0, "I", 0x0, "_", 0x0, "L", 0x0, "4"
	DCB	0x0, "_", 0x0, "I", 0x0, "C", 0x0, "L", 0x0, "K", 0x0, 0x0
	DCB	0x0					; `string'

  00000			 AREA	 |.rdata|, DATA, READONLY
|??_C@_1BK@NJNOEPMC@?$AAk?$AAS?$AAG?$AAX?$AA_?$AAL?$AA3?$AA_?$AAI?$AAC?$AAL?$AAK?$AA?$AA@| DCB "k"
	DCB	0x0, "S", 0x0, "G", 0x0, "X", 0x0, "_", 0x0, "L", 0x0, "3"
	DCB	0x0, "_", 0x0, "I", 0x0, "C", 0x0, "L", 0x0, "K", 0x0, 0x0
	DCB	0x0					; `string'

  00000			 AREA	 |.rdata|, DATA, READONLY
|??_C@_1CG@CFAPNILK@?$AAk?$AAS?$AAE?$AAC?$AAU?$AAR?$AAI?$AAT?$AAY?$AA_?$AAL?$AA4?$AA_?$AAI?$AAC?$AAL?$AAK?$AA2?$AA?$AA@| DCB "k"
	DCB	0x0, "S", 0x0, "E", 0x0, "C", 0x0, "U", 0x0, "R", 0x0, "I"
	DCB	0x0, "T", 0x0, "Y", 0x0, "_", 0x0, "L", 0x0, "4", 0x0, "_"
	DCB	0x0, "I", 0x0, "C", 0x0, "L", 0x0, "K", 0x0, "2", 0x0, 0x0
	DCB	0x0					; `string'

  00000			 AREA	 |.rdata|, DATA, READONLY
|??_C@_1CG@DHLKHHFE@?$AAk?$AAS?$AAE?$AAC?$AAU?$AAR?$AAI?$AAT?$AAY?$AA_?$AAL?$AA4?$AA_?$AAI?$AAC?$AAL?$AAK?$AA1?$AA?$AA@| DCB "k"
	DCB	0x0, "S", 0x0, "E", 0x0, "C", 0x0, "U", 0x0, "R", 0x0, "I"
	DCB	0x0, "T", 0x0, "Y", 0x0, "_", 0x0, "L", 0x0, "4", 0x0, "_"
	DCB	0x0, "I", 0x0, "C", 0x0, "L", 0x0, "K", 0x0, "1", 0x0, 0x0
	DCB	0x0					; `string'

  00000			 AREA	 |.rdata|, DATA, READONLY
|??_C@_1CE@DCCJJJCO@?$AAk?$AAS?$AAE?$AAC?$AAU?$AAR?$AAI?$AAT?$AAY?$AA_?$AAL?$AA3?$AA_?$AAI?$AAC?$AAL?$AAK?$AA?$AA@| DCB "k"
	DCB	0x0, "S", 0x0, "E", 0x0, "C", 0x0, "U", 0x0, "R", 0x0, "I"
	DCB	0x0, "T", 0x0, "Y", 0x0, "_", 0x0, "L", 0x0, "3", 0x0, "_"
	DCB	0x0, "I", 0x0, "C", 0x0, "L", 0x0, "K", 0x0, 0x0, 0x0 ; `string'

  00000			 AREA	 |.rdata|, DATA, READONLY
|??_C@_1BM@GNELHHCO@?$AAk?$AAC?$AAO?$AAR?$AAE?$AA_?$AAL?$AA4?$AA_?$AAI?$AAC?$AAL?$AAK?$AA?$AA@| DCB "k"
	DCB	0x0, "C", 0x0, "O", 0x0, "R", 0x0, "E", 0x0, "_", 0x0, "L"
	DCB	0x0, "4", 0x0, "_", 0x0, "I", 0x0, "C", 0x0, "L", 0x0, "K"
	DCB	0x0, 0x0, 0x0				; `string'

  00000			 AREA	 |.rdata|, DATA, READONLY
|??_C@_1BM@IIGNNOO@?$AAk?$AAC?$AAO?$AAR?$AAE?$AA_?$AAL?$AA3?$AA_?$AAI?$AAC?$AAL?$AAK?$AA?$AA@| DCB "k"
	DCB	0x0, "C", 0x0, "O", 0x0, "R", 0x0, "E", 0x0, "_", 0x0, "L"
	DCB	0x0, "3", 0x0, "_", 0x0, "I", 0x0, "C", 0x0, "L", 0x0, "K"
	DCB	0x0, 0x0, 0x0				; `string'

  00000			 AREA	 |.rdata|, DATA, READONLY
|??_C@_1BI@GGLANBIM@?$AAk?$AAD?$AAP?$AAL?$AAL?$AA2?$AA_?$AAF?$AAC?$AAL?$AAK?$AA?$AA@| DCB "k"
	DCB	0x0, "D", 0x0, "P", 0x0, "L", 0x0, "L", 0x0, "2", 0x0, "_"
	DCB	0x0, "F", 0x0, "C", 0x0, "L", 0x0, "K", 0x0, 0x0, 0x0 ; `string'

  00000			 AREA	 |.rdata|, DATA, READONLY
|??_C@_1BI@BKNBPEFH@?$AAk?$AAD?$AAP?$AAL?$AAL?$AA1?$AA_?$AAF?$AAC?$AAL?$AAK?$AA?$AA@| DCB "k"
	DCB	0x0, "D", 0x0, "P", 0x0, "L", 0x0, "L", 0x0, "1", 0x0, "_"
	DCB	0x0, "F", 0x0, "C", 0x0, "L", 0x0, "K", 0x0, 0x0, 0x0 ; `string'

  00000			 AREA	 |.rdata|, DATA, READONLY
|??_C@_1BC@IEJPNIBD@?$AAk?$AAR?$AAM?$AA_?$AAI?$AAC?$AAL?$AAK?$AA?$AA@| DCB "k"
	DCB	0x0, "R", 0x0, "M", 0x0, "_", 0x0, "I", 0x0, "C", 0x0, "L"
	DCB	0x0, "K", 0x0, 0x0, 0x0			; `string'

  00000			 AREA	 |.rdata|, DATA, READONLY
|??_C@_1BK@EOKLGFAI@?$AAk?$AAU?$AAS?$AAB?$AA_?$AAL?$AA4?$AA_?$AAI?$AAC?$AAL?$AAK?$AA?$AA@| DCB "k"
	DCB	0x0, "U", 0x0, "S", 0x0, "B", 0x0, "_", 0x0, "L", 0x0, "4"
	DCB	0x0, "_", 0x0, "I", 0x0, "C", 0x0, "L", 0x0, "K", 0x0, 0x0
	DCB	0x0					; `string'

  00000			 AREA	 |.rdata|, DATA, READONLY
|??_C@_1BC@GADFMCD@?$AAk?$AAL?$AA4?$AA_?$AAI?$AAC?$AAL?$AAK?$AA?$AA@| DCB "k"
	DCB	0x0, "L", 0x0, "4", 0x0, "_", 0x0, "I", 0x0, "C", 0x0, "L"
	DCB	0x0, "K", 0x0, 0x0, 0x0			; `string'

  00000			 AREA	 |.rdata|, DATA, READONLY
|??_C@_1BC@GDMOPGOD@?$AAk?$AAL?$AA3?$AA_?$AAI?$AAC?$AAL?$AAK?$AA?$AA@| DCB "k"
	DCB	0x0, "L", 0x0, "3", 0x0, "_", 0x0, "I", 0x0, "C", 0x0, "L"
	DCB	0x0, "K", 0x0, 0x0, 0x0			; `string'

  00000			 AREA	 |.rdata|, DATA, READONLY
|??_C@_1CA@PCEHGMIB@?$AAk?$AA9?$AA6?$AAM?$AA_?$AAA?$AAL?$AAW?$AAO?$AAN?$AA_?$AAF?$AAC?$AAL?$AAK?$AA?$AA@| DCB "k"
	DCB	0x0, "9", 0x0, "6", 0x0, "M", 0x0, "_", 0x0, "A", 0x0, "L"
	DCB	0x0, "W", 0x0, "O", 0x0, "N", 0x0, "_", 0x0, "F", 0x0, "C"
	DCB	0x0, "L", 0x0, "K", 0x0, 0x0, 0x0	; `string'

  00000			 AREA	 |.rdata|, DATA, READONLY
|??_C@_1BK@MCHPLJEE@?$AAk?$AAC?$AAM?$AA_?$AA9?$AA6?$AAM?$AA_?$AAF?$AAC?$AAL?$AAK?$AA?$AA@| DCB "k"
	DCB	0x0, "C", 0x0, "M", 0x0, "_", 0x0, "9", 0x0, "6", 0x0, "M"
	DCB	0x0, "_", 0x0, "F", 0x0, "C", 0x0, "L", 0x0, "K", 0x0, 0x0
	DCB	0x0					; `string'

  00000			 AREA	 |.rdata|, DATA, READONLY
|??_C@_1CA@BBGPJHGP@?$AAk?$AAC?$AAO?$AAR?$AAE?$AA_?$AA1?$AA2?$AA0?$AAM?$AA_?$AAF?$AAC?$AAL?$AAK?$AA?$AA@| DCB "k"
	DCB	0x0, "C", 0x0, "O", 0x0, "R", 0x0, "E", 0x0, "_", 0x0, "1"
	DCB	0x0, "2", 0x0, "0", 0x0, "M", 0x0, "_", 0x0, "F", 0x0, "C"
	DCB	0x0, "L", 0x0, "K", 0x0, 0x0, 0x0	; `string'

  00000			 AREA	 |.rdata|, DATA, READONLY
|??_C@_1CI@EADHIPEB@?$AAk?$AAP?$AAE?$AAR?$AA_?$AA3?$AA2?$AAK?$AA_?$AAA?$AAL?$AAW?$AAO?$AAN?$AA_?$AAF?$AAC?$AAL?$AAK?$AA?$AA@| DCB "k"
	DCB	0x0, "P", 0x0, "E", 0x0, "R", 0x0, "_", 0x0, "3", 0x0, "2"
	DCB	0x0, "K", 0x0, "_", 0x0, "A", 0x0, "L", 0x0, "W", 0x0, "O"
	DCB	0x0, "N", 0x0, "_", 0x0, "F", 0x0, "C", 0x0, "L", 0x0, "K"
	DCB	0x0, 0x0, 0x0				; `string'

  00000			 AREA	 |.rdata|, DATA, READONLY
|??_C@_1BO@LPLICNLH@?$AAk?$AAW?$AAK?$AAU?$AAP?$AA_?$AA3?$AA2?$AAK?$AA_?$AAF?$AAC?$AAL?$AAK?$AA?$AA@| DCB "k"
	DCB	0x0, "W", 0x0, "K", 0x0, "U", 0x0, "P", 0x0, "_", 0x0, "3"
	DCB	0x0, "2", 0x0, "K", 0x0, "_", 0x0, "F", 0x0, "C", 0x0, "L"
	DCB	0x0, "K", 0x0, 0x0, 0x0			; `string'

  00000			 AREA	 |.rdata|, DATA, READONLY
|??_C@_1BO@FLMCBEDL@?$AAk?$AAC?$AAO?$AAR?$AAE?$AA_?$AA3?$AA2?$AAK?$AA_?$AAF?$AAC?$AAL?$AAK?$AA?$AA@| DCB "k"
	DCB	0x0, "C", 0x0, "O", 0x0, "R", 0x0, "E", 0x0, "_", 0x0, "3"
	DCB	0x0, "2", 0x0, "K", 0x0, "_", 0x0, "F", 0x0, "C", 0x0, "L"
	DCB	0x0, "K", 0x0, 0x0, 0x0			; `string'

  00000			 AREA	 |.rdata|, DATA, READONLY
|??_C@_1BI@BEPCGLLM@?$AAk?$AAC?$AAM?$AA_?$AA3?$AA2?$AAK?$AA_?$AAC?$AAL?$AAK?$AA?$AA@| DCB "k"
	DCB	0x0, "C", 0x0, "M", 0x0, "_", 0x0, "3", 0x0, "2", 0x0, "K"
	DCB	0x0, "_", 0x0, "C", 0x0, "L", 0x0, "K", 0x0, 0x0, 0x0 ; `string'

  00000			 AREA	 |.rdata|, DATA, READONLY
|??_C@_1BM@CKBOGBKN@?$AAk?$AAW?$AAK?$AAU?$AAP?$AA_?$AAL?$AA4?$AA_?$AAI?$AAC?$AAL?$AAK?$AA?$AA@| DCB "k"
	DCB	0x0, "W", 0x0, "K", 0x0, "U", 0x0, "P", 0x0, "_", 0x0, "L"
	DCB	0x0, "4", 0x0, "_", 0x0, "I", 0x0, "C", 0x0, "L", 0x0, "K"
	DCB	0x0, 0x0, 0x0				; `string'

  00000			 AREA	 |.rdata|, DATA, READONLY
|??_C@_1CC@NOFOGNB@?$AAk?$AAD?$AAS?$AAS?$AA2?$AA_?$AAA?$AAL?$AAW?$AAO?$AAN?$AA_?$AAF?$AAC?$AAL?$AAK?$AA?$AA@| DCB "k"
	DCB	0x0, "D", 0x0, "S", 0x0, "S", 0x0, "2", 0x0, "_", 0x0, "A"
	DCB	0x0, "L", 0x0, "W", 0x0, "O", 0x0, "N", 0x0, "_", 0x0, "F"
	DCB	0x0, "C", 0x0, "L", 0x0, "K", 0x0, 0x0, 0x0 ; `string'

  00000			 AREA	 |.rdata|, DATA, READONLY
|??_C@_1BI@OEECMJPN@?$AAk?$AAC?$AAM?$AA_?$AAS?$AAY?$AAS?$AA_?$AAC?$AAL?$AAK?$AA?$AA@| DCB "k"
	DCB	0x0, "C", 0x0, "M", 0x0, "_", 0x0, "S", 0x0, "Y", 0x0, "S"
	DCB	0x0, "_", 0x0, "C", 0x0, "L", 0x0, "K", 0x0, 0x0, 0x0 ; `string'

  00000			 AREA	 |.rdata|, DATA, READONLY
|??_C@_1CE@IKHPAHF@?$AAk?$AAD?$AAP?$AAL?$AAL?$AA5?$AA_?$AAA?$AAL?$AAW?$AAO?$AAN?$AA_?$AAF?$AAC?$AAL?$AAK?$AA?$AA@| DCB "k"
	DCB	0x0, "D", 0x0, "P", 0x0, "L", 0x0, "L", 0x0, "5", 0x0, "_"
	DCB	0x0, "A", 0x0, "L", 0x0, "W", 0x0, "O", 0x0, "N", 0x0, "_"
	DCB	0x0, "F", 0x0, "C", 0x0, "L", 0x0, "K", 0x0, 0x0, 0x0 ; `string'

  00000			 AREA	 |.rdata|, DATA, READONLY
|??_C@_1CE@OPLKFGOC@?$AAk?$AAD?$AAP?$AAL?$AAL?$AA4?$AA_?$AAA?$AAL?$AAW?$AAO?$AAN?$AA_?$AAF?$AAC?$AAL?$AAK?$AA?$AA@| DCB "k"
	DCB	0x0, "D", 0x0, "P", 0x0, "L", 0x0, "L", 0x0, "4", 0x0, "_"
	DCB	0x0, "A", 0x0, "L", 0x0, "W", 0x0, "O", 0x0, "N", 0x0, "_"
	DCB	0x0, "F", 0x0, "C", 0x0, "L", 0x0, "K", 0x0, 0x0, 0x0 ; `string'

  00000			 AREA	 |.rdata|, DATA, READONLY
|??_C@_1CE@DHHJCNME@?$AAk?$AAD?$AAP?$AAL?$AAL?$AA3?$AA_?$AAA?$AAL?$AAW?$AAO?$AAN?$AA_?$AAF?$AAC?$AAL?$AAK?$AA?$AA@| DCB "k"
	DCB	0x0, "D", 0x0, "P", 0x0, "L", 0x0, "L", 0x0, "3", 0x0, "_"
	DCB	0x0, "A", 0x0, "L", 0x0, "W", 0x0, "O", 0x0, "N", 0x0, "_"
	DCB	0x0, "F", 0x0, "C", 0x0, "L", 0x0, "K", 0x0, 0x0, 0x0 ; `string'

  00000			 AREA	 |.rdata|, DATA, READONLY
|??_C@_1CE@NAGEILFD@?$AAk?$AAD?$AAP?$AAL?$AAL?$AA2?$AA_?$AAA?$AAL?$AAW?$AAO?$AAN?$AA_?$AAF?$AAC?$AAL?$AAK?$AA?$AA@| DCB "k"
	DCB	0x0, "D", 0x0, "P", 0x0, "L", 0x0, "L", 0x0, "2", 0x0, "_"
	DCB	0x0, "A", 0x0, "L", 0x0, "W", 0x0, "O", 0x0, "N", 0x0, "_"
	DCB	0x0, "F", 0x0, "C", 0x0, "L", 0x0, "K", 0x0, 0x0, 0x0 ; `string'

  00000			 AREA	 |.rdata|, DATA, READONLY
|??_C@_1CE@CCDDGGKL@?$AAk?$AAD?$AAP?$AAL?$AAL?$AA1?$AA_?$AAA?$AAL?$AAW?$AAO?$AAN?$AA_?$AAF?$AAC?$AAL?$AAK?$AA?$AA@| DCB "k"
	DCB	0x0, "D", 0x0, "P", 0x0, "L", 0x0, "L", 0x0, "1", 0x0, "_"
	DCB	0x0, "A", 0x0, "L", 0x0, "W", 0x0, "O", 0x0, "N", 0x0, "_"
	DCB	0x0, "F", 0x0, "C", 0x0, "L", 0x0, "K", 0x0, 0x0, 0x0 ; `string'

  00000			 AREA	 |.rdata|, DATA, READONLY
|??_C@_1BO@OFGDLBDE@?$AAk?$AAS?$AAR?$AA_?$AAA?$AAL?$AAW?$AAO?$AAN?$AA_?$AAF?$AAC?$AAL?$AAK?$AA?$AA@| DCB "k"
	DCB	0x0, "S", 0x0, "R", 0x0, "_", 0x0, "A", 0x0, "L", 0x0, "W"
	DCB	0x0, "O", 0x0, "N", 0x0, "_", 0x0, "F", 0x0, "C", 0x0, "L"
	DCB	0x0, "K", 0x0, 0x0, 0x0			; `string'

  00000			 AREA	 |.rdata|, DATA, READONLY
|??_C@_1CE@PPGNFPBP@?$AAk?$AAE?$AAF?$AAU?$AAS?$AAE?$AA_?$AAA?$AAL?$AAW?$AAO?$AAN?$AA_?$AAF?$AAC?$AAL?$AAK?$AA?$AA@| DCB "k"
	DCB	0x0, "E", 0x0, "F", 0x0, "U", 0x0, "S", 0x0, "E", 0x0, "_"
	DCB	0x0, "A", 0x0, "L", 0x0, "W", 0x0, "O", 0x0, "N", 0x0, "_"
	DCB	0x0, "F", 0x0, "C", 0x0, "L", 0x0, "K", 0x0, 0x0, 0x0 ; `string'

  00000			 AREA	 |.rdata|, DATA, READONLY
|??_C@_1CE@KHCGIPEA@?$AAk?$AAU?$AAS?$AAB?$AAH?$AAO?$AAS?$AAT?$AA_?$AAS?$AAA?$AAR?$AA_?$AAF?$AAC?$AAL?$AAK?$AA?$AA@| DCB "k"
	DCB	0x0, "U", 0x0, "S", 0x0, "B", 0x0, "H", 0x0, "O", 0x0, "S"
	DCB	0x0, "T", 0x0, "_", 0x0, "S", 0x0, "A", 0x0, "R", 0x0, "_"
	DCB	0x0, "F", 0x0, "C", 0x0, "L", 0x0, "K", 0x0, 0x0, 0x0 ; `string'

  00000			 AREA	 |.rdata|, DATA, READONLY
|??_C@_1CC@HCOAMGKK@?$AAk?$AAU?$AAS?$AAB?$AAT?$AAL?$AAL?$AA_?$AAS?$AAA?$AAR?$AA_?$AAF?$AAC?$AAL?$AAK?$AA?$AA@| DCB "k"
	DCB	0x0, "U", 0x0, "S", 0x0, "B", 0x0, "T", 0x0, "L", 0x0, "L"
	DCB	0x0, "_", 0x0, "S", 0x0, "A", 0x0, "R", 0x0, "_", 0x0, "F"
	DCB	0x0, "C", 0x0, "L", 0x0, "K", 0x0, 0x0, 0x0 ; `string'

  00000			 AREA	 |.rdata|, DATA, READONLY
|??_C@_1BI@CMEGODCK@?$AAk?$AAM?$AAC?$AAB?$AAS?$AAP?$AA_?$AAC?$AAL?$AAK?$AAS?$AA?$AA@| DCB "k"
	DCB	0x0, "M", 0x0, "C", 0x0, "B", 0x0, "S", 0x0, "P", 0x0, "_"
	DCB	0x0, "C", 0x0, "L", 0x0, "K", 0x0, "S", 0x0, 0x0, 0x0 ; `string'

  00000			 AREA	 |.rdata|, DATA, READONLY
|??_C@_1CC@EOBIKDKJ@?$AAk?$AAS?$AAE?$AAC?$AAU?$AAR?$AAE?$AA_?$AA3?$AA2?$AAK?$AA_?$AAF?$AAC?$AAL?$AAK?$AA?$AA@| DCB "k"
	DCB	0x0, "S", 0x0, "E", 0x0, "C", 0x0, "U", 0x0, "R", 0x0, "E"
	DCB	0x0, "_", 0x0, "3", 0x0, "2", 0x0, "K", 0x0, "_", 0x0, "F"
	DCB	0x0, "C", 0x0, "L", 0x0, "K", 0x0, 0x0, 0x0 ; `string'

  00000			 AREA	 |.rdata|, DATA, READONLY
|??_C@_1BI@ILMCMCCC@?$AAk?$AAS?$AAY?$AAS?$AA_?$AAA?$AAL?$AAT?$AAC?$AAL?$AAK?$AA?$AA@| DCB "k"
	DCB	0x0, "S", 0x0, "Y", 0x0, "S", 0x0, "_", 0x0, "A", 0x0, "L"
	DCB	0x0, "T", 0x0, "C", 0x0, "L", 0x0, "K", 0x0, 0x0, 0x0 ; `string'

  00000			 AREA	 |.rdata|, DATA, READONLY
|??_C@_1BC@HKFDEGNL@?$AAk?$AAS?$AAY?$AAS?$AA_?$AAC?$AAL?$AAK?$AA?$AA@| DCB "k"
	DCB	0x0, "S", 0x0, "Y", 0x0, "S", 0x0, "_", 0x0, "C", 0x0, "L"
	DCB	0x0, "K", 0x0, 0x0, 0x0			; `string'

  00000			 AREA	 |.rdata|, DATA, READONLY
|??_C@_1BE@ECNAPIHO@?$AAk?$AA3?$AA2?$AAK?$AA_?$AAF?$AAC?$AAL?$AAK?$AA?$AA@| DCB "k"
	DCB	0x0, "3", 0x0, "2", 0x0, "K", 0x0, "_", 0x0, "F", 0x0, "C"
	DCB	0x0, "L", 0x0, "K", 0x0, 0x0, 0x0	; `string'

  00000			 AREA	 |.rdata|, DATA, READONLY
|??_C@_1BG@DFNNJLGO@?$AAk?$AA1?$AA2?$AA0?$AAM?$AA_?$AAF?$AAC?$AAL?$AAK?$AA?$AA@| DCB "k"
	DCB	0x0, "1", 0x0, "2", 0x0, "0", 0x0, "M", 0x0, "_", 0x0, "F"
	DCB	0x0, "C", 0x0, "L", 0x0, "K", 0x0, 0x0, 0x0 ; `string'

  00000			 AREA	 |.rdata|, DATA, READONLY
|??_C@_1CK@BAAFIMCG@?$AAk?$AAE?$AAM?$AAU?$AAL?$AA_?$AAP?$AAE?$AAR?$AA_?$AAA?$AAL?$AAW?$AAO?$AAN?$AA_?$AAC?$AAL?$AAK?$AA?5?$AA?$AA@| DCB "k"
	DCB	0x0, "E", 0x0, "M", 0x0, "U", 0x0, "L", 0x0, "_", 0x0, "P"
	DCB	0x0, "E", 0x0, "R", 0x0, "_", 0x0, "A", 0x0, "L", 0x0, "W"
	DCB	0x0, "O", 0x0, "N", 0x0, "_", 0x0, "C", 0x0, "L", 0x0, "K"
	DCB	0x0, " ", 0x0, 0x0, 0x0			; `string'

  00000			 AREA	 |.rdata|, DATA, READONLY
|??_C@_1BE@HNDENLJM@?$AAk?$AAC?$AAA?$AAM?$AA_?$AAM?$AAC?$AAL?$AAK?$AA?$AA@| DCB "k"
	DCB	0x0, "C", 0x0, "A", 0x0, "M", 0x0, "_", 0x0, "M", 0x0, "C"
	DCB	0x0, "L", 0x0, "K", 0x0, 0x0, 0x0	; `string'

  00000			 AREA	 |.rdata|, DATA, READONLY
|??_C@_1CC@PPLCALCJ@?$AAk?$AAD?$AAS?$AAS?$AA1?$AA_?$AAA?$AAL?$AAW?$AAO?$AAN?$AA_?$AAF?$AAC?$AAL?$AAK?$AA?$AA@| DCB "k"
	DCB	0x0, "D", 0x0, "S", 0x0, "S", 0x0, "1", 0x0, "_", 0x0, "A"
	DCB	0x0, "L", 0x0, "W", 0x0, "O", 0x0, "N", 0x0, "_", 0x0, "F"
	DCB	0x0, "C", 0x0, "L", 0x0, "K", 0x0, 0x0, 0x0 ; `string'

  00000			 AREA	 |.rdata|, DATA, READONLY
|??_C@_1CA@EIKHJGPJ@?$AAk?$AAD?$AAP?$AAL?$AAL?$AA4?$AA_?$AAM?$AA3?$AAX?$AA2?$AA_?$AAC?$AAL?$AAK?$AA?$AA@| DCB "k"
	DCB	0x0, "D", 0x0, "P", 0x0, "L", 0x0, "L", 0x0, "4", 0x0, "_"
	DCB	0x0, "M", 0x0, "3", 0x0, "X", 0x0, "2", 0x0, "_", 0x0, "C"
	DCB	0x0, "L", 0x0, "K", 0x0, 0x0, 0x0	; `string'

  00000			 AREA	 |.rdata|, DATA, READONLY
|??_C@_1CG@DJDPLNE@?$AAk?$AAP?$AAR?$AAM?$AA_?$AA9?$AA6?$AAM?$AA_?$AAA?$AAL?$AAW?$AAO?$AAN?$AA_?$AAC?$AAL?$AAK?$AA?$AA@| DCB "k"
	DCB	0x0, "P", 0x0, "R", 0x0, "M", 0x0, "_", 0x0, "9", 0x0, "6"
	DCB	0x0, "M", 0x0, "_", 0x0, "A", 0x0, "L", 0x0, "W", 0x0, "O"
	DCB	0x0, "N", 0x0, "_", 0x0, "C", 0x0, "L", 0x0, "K", 0x0, 0x0
	DCB	0x0					; `string'

  00000			 AREA	 |.rdata|, DATA, READONLY
|??_C@_1CK@NDKHMFDM@?$AAk?$AAE?$AAM?$AAU?$AAL?$AA_?$AAC?$AAO?$AAR?$AAE?$AA_?$AAA?$AAL?$AAW?$AAO?$AAN?$AA_?$AAC?$AAL?$AAK?$AA?$AA@| DCB "k"
	DCB	0x0, "E", 0x0, "M", 0x0, "U", 0x0, "L", 0x0, "_", 0x0, "C"
	DCB	0x0, "O", 0x0, "R", 0x0, "E", 0x0, "_", 0x0, "A", 0x0, "L"
	DCB	0x0, "W", 0x0, "O", 0x0, "N", 0x0, "_", 0x0, "C", 0x0, "L"
	DCB	0x0, "K", 0x0, 0x0, 0x0			; `string'

  00000			 AREA	 |.rdata|, DATA, READONLY
|??_C@_1BK@CKNHOHLE@?$AAk?$AAC?$AAO?$AAR?$AAE?$AAX?$AA2?$AA_?$AAF?$AAC?$AAL?$AAK?$AA?$AA@| DCB "k"
	DCB	0x0, "C", 0x0, "O", 0x0, "R", 0x0, "E", 0x0, "X", 0x0, "2"
	DCB	0x0, "_", 0x0, "F", 0x0, "C", 0x0, "L", 0x0, "K", 0x0, 0x0
	DCB	0x0					; `string'

  00000			 AREA	 |.rdata|, DATA, READONLY
|??_C@_1BE@KIOEPBOF@?$AAk?$AAC?$AAO?$AAR?$AAE?$AA_?$AAC?$AAL?$AAK?$AA?$AA@| DCB "k"
	DCB	0x0, "C", 0x0, "O", 0x0, "R", 0x0, "E", 0x0, "_", 0x0, "C"
	DCB	0x0, "L", 0x0, "K", 0x0, 0x0, 0x0	; `string'

  00000			 AREA	 |.rdata|, DATA, READONLY
|??_C@_1BM@LAPEPOFC@?$AAk?$AAD?$AAP?$AAL?$AAL?$AA2?$AA_?$AAM?$AA2?$AA_?$AAC?$AAL?$AAK?$AA?$AA@| DCB "k"
	DCB	0x0, "D", 0x0, "P", 0x0, "L", 0x0, "L", 0x0, "2", 0x0, "_"
	DCB	0x0, "M", 0x0, "2", 0x0, "_", 0x0, "C", 0x0, "L", 0x0, "K"
	DCB	0x0, 0x0, 0x0				; `string'

  00000			 AREA	 |.rdata|, DATA, READONLY
|??_C@_1CA@KNEGPAKI@?$AAk?$AAD?$AAP?$AAL?$AAL?$AA1?$AA_?$AAM?$AA2?$AAX?$AA2?$AA_?$AAC?$AAL?$AAK?$AA?$AA@| DCB "k"
	DCB	0x0, "D", 0x0, "P", 0x0, "L", 0x0, "L", 0x0, "1", 0x0, "_"
	DCB	0x0, "M", 0x0, "2", 0x0, "X", 0x0, "2", 0x0, "_", 0x0, "C"
	DCB	0x0, "L", 0x0, "K", 0x0, 0x0, 0x0	; `string'

  00000			 AREA	 |.rdata|, DATA, READONLY
|??_C@_1BC@HPLLDAKE@?$AAk?$AAI?$AAN?$AAT?$AA_?$AAO?$AAS?$AAC?$AA?$AA@| DCB "k"
	DCB	0x0, "I", 0x0, "N", 0x0, "T", 0x0, "_", 0x0, "O", 0x0, "S"
	DCB	0x0, "C", 0x0, 0x0, 0x0			; `string'

  00000			 AREA	 |.rdata|, DATA, READONLY
|??_C@_1BE@CGAEBABM@?$AAk?$AAE?$AAX?$AAT?$AA_?$AAM?$AAI?$AAS?$AAC?$AA?$AA@| DCB "k"
	DCB	0x0, "E", 0x0, "X", 0x0, "T", 0x0, "_", 0x0, "M", 0x0, "I"
	DCB	0x0, "S", 0x0, "C", 0x0, 0x0, 0x0	; `string'

  00000			 AREA	 |.rdata|, DATA, READONLY
|??_C@_1BC@GMCNFJOM@?$AAk?$AAE?$AAX?$AAT?$AA_?$AAA?$AAL?$AAT?$AA?$AA@| DCB "k"
	DCB	0x0, "E", 0x0, "X", 0x0, "T", 0x0, "_", 0x0, "A", 0x0, "L"
	DCB	0x0, "T", 0x0, 0x0, 0x0			; `string'

  00000			 AREA	 |.rdata|, DATA, READONLY
|??_C@_1BK@KJEOLNHN@?$AAk?$AAE?$AAX?$AAT?$AA_?$AAS?$AAY?$AAS?$AA_?$AAC?$AAL?$AAK?$AA?$AA@| DCB "k"
	DCB	0x0, "E", 0x0, "X", 0x0, "T", 0x0, "_", 0x0, "S", 0x0, "Y"
	DCB	0x0, "S", 0x0, "_", 0x0, "C", 0x0, "L", 0x0, "K", 0x0, 0x0
	DCB	0x0					; `string'

  00000			 AREA	 |.rdata|, DATA, READONLY
|??_C@_1CC@LIKIOEDP@?$AAk?$AAD?$AAP?$AAL?$AAL?$AA5?$AA_?$AAC?$AAL?$AAK?$AAO?$AAU?$AAT?$AA_?$AAM?$AA2?$AA?$AA@| DCB "k"
	DCB	0x0, "D", 0x0, "P", 0x0, "L", 0x0, "L", 0x0, "5", 0x0, "_"
	DCB	0x0, "C", 0x0, "L", 0x0, "K", 0x0, "O", 0x0, "U", 0x0, "T"
	DCB	0x0, "_", 0x0, "M", 0x0, "2", 0x0, 0x0, 0x0 ; `string'

  00000			 AREA	 |.rdata|, DATA, READONLY
|??_C@_1CG@JKMHNEID@?$AAk?$AAD?$AAP?$AAL?$AAL?$AA4?$AA_?$AAC?$AAL?$AAK?$AAO?$AAU?$AAT?$AA_?$AAM?$AA6?$AAX?$AA2?$AA?$AA@| DCB "k"
	DCB	0x0, "D", 0x0, "P", 0x0, "L", 0x0, "L", 0x0, "4", 0x0, "_"
	DCB	0x0, "C", 0x0, "L", 0x0, "K", 0x0, "O", 0x0, "U", 0x0, "T"
	DCB	0x0, "_", 0x0, "M", 0x0, "6", 0x0, "X", 0x0, "2", 0x0, 0x0
	DCB	0x0					; `string'

  00000			 AREA	 |.rdata|, DATA, READONLY
|??_C@_1CG@BEEINDGA@?$AAk?$AAD?$AAP?$AAL?$AAL?$AA4?$AA_?$AAC?$AAL?$AAK?$AAO?$AAU?$AAT?$AA_?$AAM?$AA5?$AAX?$AA2?$AA?$AA@| DCB "k"
	DCB	0x0, "D", 0x0, "P", 0x0, "L", 0x0, "L", 0x0, "4", 0x0, "_"
	DCB	0x0, "C", 0x0, "L", 0x0, "K", 0x0, "O", 0x0, "U", 0x0, "T"
	DCB	0x0, "_", 0x0, "M", 0x0, "5", 0x0, "X", 0x0, "2", 0x0, 0x0
	DCB	0x0					; `string'

  00000			 AREA	 |.rdata|, DATA, READONLY
|??_C@_1CG@NIOCNDPO@?$AAk?$AAD?$AAP?$AAL?$AAL?$AA4?$AA_?$AAC?$AAL?$AAK?$AAO?$AAU?$AAT?$AA_?$AAM?$AA4?$AAX?$AA2?$AA?$AA@| DCB "k"
	DCB	0x0, "D", 0x0, "P", 0x0, "L", 0x0, "L", 0x0, "4", 0x0, "_"
	DCB	0x0, "C", 0x0, "L", 0x0, "K", 0x0, "O", 0x0, "U", 0x0, "T"
	DCB	0x0, "_", 0x0, "M", 0x0, "4", 0x0, "X", 0x0, "2", 0x0, 0x0
	DCB	0x0					; `string'

  00000			 AREA	 |.rdata|, DATA, READONLY
|??_C@_1CG@NCCHNKOH@?$AAk?$AAD?$AAP?$AAL?$AAL?$AA4?$AA_?$AAC?$AAL?$AAK?$AAO?$AAU?$AAT?$AA_?$AAM?$AA3?$AAX?$AA2?$AA?$AA@| DCB "k"
	DCB	0x0, "D", 0x0, "P", 0x0, "L", 0x0, "L", 0x0, "4", 0x0, "_"
	DCB	0x0, "C", 0x0, "L", 0x0, "K", 0x0, "O", 0x0, "U", 0x0, "T"
	DCB	0x0, "_", 0x0, "M", 0x0, "3", 0x0, "X", 0x0, "2", 0x0, 0x0
	DCB	0x0					; `string'

  00000			 AREA	 |.rdata|, DATA, READONLY
|??_C@_1CG@BOINNKHJ@?$AAk?$AAD?$AAP?$AAL?$AAL?$AA4?$AA_?$AAC?$AAL?$AAK?$AAO?$AAU?$AAT?$AA_?$AAM?$AA2?$AAX?$AA2?$AA?$AA@| DCB "k"
	DCB	0x0, "D", 0x0, "P", 0x0, "L", 0x0, "L", 0x0, "4", 0x0, "_"
	DCB	0x0, "C", 0x0, "L", 0x0, "K", 0x0, "O", 0x0, "U", 0x0, "T"
	DCB	0x0, "_", 0x0, "M", 0x0, "2", 0x0, "X", 0x0, "2", 0x0, 0x0
	DCB	0x0					; `string'

  00000			 AREA	 |.rdata|, DATA, READONLY
|??_C@_1CG@NGCOCJLE@?$AAk?$AAD?$AAP?$AAL?$AAL?$AA3?$AA_?$AAC?$AAL?$AAK?$AAO?$AAU?$AAT?$AA_?$AAM?$AA3?$AAX?$AA2?$AA?$AA@| DCB "k"
	DCB	0x0, "D", 0x0, "P", 0x0, "L", 0x0, "L", 0x0, "3", 0x0, "_"
	DCB	0x0, "C", 0x0, "L", 0x0, "K", 0x0, "O", 0x0, "U", 0x0, "T"
	DCB	0x0, "_", 0x0, "M", 0x0, "3", 0x0, "X", 0x0, "2", 0x0, 0x0
	DCB	0x0					; `string'

  00000			 AREA	 |.rdata|, DATA, READONLY
|??_C@_1CG@BKIECJCK@?$AAk?$AAD?$AAP?$AAL?$AAL?$AA3?$AA_?$AAC?$AAL?$AAK?$AAO?$AAU?$AAT?$AA_?$AAM?$AA2?$AAX?$AA2?$AA?$AA@| DCB "k"
	DCB	0x0, "D", 0x0, "P", 0x0, "L", 0x0, "L", 0x0, "3", 0x0, "_"
	DCB	0x0, "C", 0x0, "L", 0x0, "K", 0x0, "O", 0x0, "U", 0x0, "T"
	DCB	0x0, "_", 0x0, "M", 0x0, "2", 0x0, "X", 0x0, "2", 0x0, 0x0
	DCB	0x0					; `string'

  00000			 AREA	 |.rdata|, DATA, READONLY
|??_C@_1CC@IJFLGGP@?$AAk?$AAD?$AAP?$AAL?$AAL?$AA3?$AA_?$AAC?$AAL?$AAK?$AAO?$AAU?$AAT?$AA_?$AAM?$AA2?$AA?$AA@| DCB "k"
	DCB	0x0, "D", 0x0, "P", 0x0, "L", 0x0, "L", 0x0, "3", 0x0, "_"
	DCB	0x0, "C", 0x0, "L", 0x0, "K", 0x0, "O", 0x0, "U", 0x0, "T"
	DCB	0x0, "_", 0x0, "M", 0x0, "2", 0x0, 0x0, 0x0 ; `string'

  00000			 AREA	 |.rdata|, DATA, READONLY
|??_C@_1CC@IJLANDEI@?$AAk?$AAD?$AAP?$AAL?$AAL?$AA2?$AA_?$AAC?$AAL?$AAK?$AAO?$AAU?$AAT?$AA_?$AAM?$AA2?$AA?$AA@| DCB "k"
	DCB	0x0, "D", 0x0, "P", 0x0, "L", 0x0, "L", 0x0, "2", 0x0, "_"
	DCB	0x0, "C", 0x0, "L", 0x0, "K", 0x0, "O", 0x0, "U", 0x0, "T"
	DCB	0x0, "_", 0x0, "M", 0x0, "2", 0x0, 0x0, 0x0 ; `string'

  00000			 AREA	 |.rdata|, DATA, READONLY
|??_C@_1CG@BJOPNDBA@?$AAk?$AAD?$AAP?$AAL?$AAL?$AA1?$AA_?$AAC?$AAL?$AAK?$AAO?$AAU?$AAT?$AA_?$AAM?$AA2?$AAX?$AA2?$AA?$AA@| DCB "k"
	DCB	0x0, "D", 0x0, "P", 0x0, "L", 0x0, "L", 0x0, "1", 0x0, "_"
	DCB	0x0, "C", 0x0, "L", 0x0, "K", 0x0, "O", 0x0, "U", 0x0, "T"
	DCB	0x0, "_", 0x0, "M", 0x0, "2", 0x0, "X", 0x0, "2", 0x0, 0x0
	DCB	0x0					; `string'

  00000			 AREA	 |.rdata|, DATA, READONLY
|??_C@_1BG@FJDLHCCD@?$AAk?$AAE?$AAX?$AAT?$AA_?$AA3?$AA2?$AAK?$AAH?$AAZ?$AA?$AA@| DCB "k"
	DCB	0x0, "E", 0x0, "X", 0x0, "T", 0x0, "_", 0x0, "3", 0x0, "2"
	DCB	0x0, "K", 0x0, "H", 0x0, "Z", 0x0, 0x0, 0x0 ; `string'

  00000			 AREA	 |.rdata|, DATA, READONLY
|??_C@_1BE@EHNFPPJL@?$AAk?$AAD?$AAP?$AAL?$AAL?$AA_?$AAE?$AAX?$AAT?$AA?$AA@| DCB "k"
	DCB	0x0, "D", 0x0, "P", 0x0, "L", 0x0, "L", 0x0, "_", 0x0, "E"
	DCB	0x0, "X", 0x0, "T", 0x0, 0x0, 0x0	; `string'

  00000			 AREA	 |.rdata|, DATA, READONLY
|??_C@_1O@KGINCNBN@?$AAk?$AAD?$AAP?$AAL?$AAL?$AA5?$AA?$AA@| DCB "k", 0x0, "D"
	DCB	0x0, "P", 0x0, "L", 0x0, "L", 0x0, "5", 0x0, 0x0, 0x0 ; `string'

  00000			 AREA	 |.rdata|, DATA, READONLY
|??_C@_1O@BODBEKHI@?$AAk?$AAD?$AAP?$AAL?$AAL?$AA4?$AA?$AA@| DCB "k", 0x0, "D"
	DCB	0x0, "P", 0x0, "L", 0x0, "L", 0x0, "4", 0x0, 0x0, 0x0 ; `string'

  00000			 AREA	 |.rdata|, DATA, READONLY
|??_C@_1O@IDOGHCMB@?$AAk?$AAD?$AAP?$AAL?$AAL?$AA3?$AA?$AA@| DCB "k", 0x0, "D"
	DCB	0x0, "P", 0x0, "L", 0x0, "L", 0x0, "3", 0x0, 0x0, 0x0 ; `string'

  00000			 AREA	 |.rdata|, DATA, READONLY
|??_C@_1O@DLFKBFKE@?$AAk?$AAD?$AAP?$AAL?$AAL?$AA2?$AA?$AA@| DCB "k", 0x0, "D"
	DCB	0x0, "P", 0x0, "L", 0x0, "L", 0x0, "2", 0x0, 0x0, 0x0 ; `string'

  00000			 AREA	 |.rdata|, DATA, READONLY
|??_C@_1O@CJOPLKEK@?$AAk?$AAD?$AAP?$AAL?$AAL?$AA1?$AA?$AA@| DCB "k", 0x0, "D"
	DCB	0x0, "P", 0x0, "L", 0x0, "L", 0x0, "1", 0x0, 0x0, 0x0 ; `string'

  00000			 AREA	 |.rdata|, DATA, READONLY
|??_C@_1BE@KENFMBEG@?$AAk?$AAM?$AAM?$AAC?$AA_?$AAV?$AAD?$AAD?$AAS?$AA?$AA@| DCB "k"
	DCB	0x0, "M", 0x0, "M", 0x0, "C", 0x0, "_", 0x0, "V", 0x0, "D"
	DCB	0x0, "D", 0x0, "S", 0x0, 0x0, 0x0	; `string'

  00000			 AREA	 |.rdata|, DATA, READONLY
|??_C@_1BC@ODEKFAPK@?$AAk?$AAV?$AAD?$AAD?$AAA?$AAD?$AAA?$AAC?$AA?$AA@| DCB "k"
	DCB	0x0, "V", 0x0, "D", 0x0, "D", 0x0, "A", 0x0, "D", 0x0, "A"
	DCB	0x0, "C", 0x0, 0x0, 0x0			; `string'

  00000			 AREA	 |.rdata|, DATA, READONLY
|??_C@_1BA@PHFNGHLK@?$AAk?$AAV?$AAD?$AAD?$AAP?$AAL?$AAL?$AA?$AA@| DCB "k", 0x0
	DCB	"V", 0x0, "D", 0x0, "D", 0x0, "P", 0x0, "L", 0x0, "L", 0x0
	DCB	0x0, 0x0				; `string'

  00000			 AREA	 |.rdata|, DATA, READONLY
|??_C@_1M@IJEGCDLI@?$AAk?$AAV?$AAD?$AAD?$AAS?$AA?$AA@| DCB "k", 0x0, "V", 0x0
	DCB	"D", 0x0, "D", 0x0, "S", 0x0, 0x0, 0x0	; `string'

  00000			 AREA	 |.rdata|, DATA, READONLY
|??_C@_1BC@PPJANNEK@?$AAk?$AAV?$AAD?$AAD?$AA_?$AAE?$AAX?$AAT?$AA?$AA@| DCB "k"
	DCB	0x0, "V", 0x0, "D", 0x0, "D", 0x0, "_", 0x0, "E", 0x0, "X"
	DCB	0x0, "T", 0x0, 0x0, 0x0			; `string'

  00000			 AREA	 |.rdata|, DATA, READONLY
|??_C@_1M@JHALILGH@?$AAk?$AAV?$AAD?$AAD?$AA5?$AA?$AA@| DCB "k", 0x0, "V", 0x0
	DCB	"D", 0x0, "D", 0x0, "5", 0x0, 0x0, 0x0	; `string'

  00000			 AREA	 |.rdata|, DATA, READONLY
|??_C@_1M@CPLHOMAC@?$AAk?$AAV?$AAD?$AAD?$AA4?$AA?$AA@| DCB "k", 0x0, "V", 0x0
	DCB	"D", 0x0, "D", 0x0, "4", 0x0, 0x0, 0x0	; `string'

  00000			 AREA	 |.rdata|, DATA, READONLY
|??_C@_1M@LCGANELL@?$AAk?$AAV?$AAD?$AAD?$AA3?$AA?$AA@| DCB "k", 0x0, "V", 0x0
	DCB	"D", 0x0, "D", 0x0, "3", 0x0, 0x0, 0x0	; `string'

  00000			 AREA	 |.rdata|, DATA, READONLY
|??_C@_1M@KNMLDNO@?$AAk?$AAV?$AAD?$AAD?$AA2?$AA?$AA@| DCB "k", 0x0, "V", 0x0
	DCB	"D", 0x0, "D", 0x0, "2", 0x0, 0x0, 0x0	; `string'

  00000			 AREA	 |.rdata|, DATA, READONLY
|??_C@_1M@BIGJBMDA@?$AAk?$AAV?$AAD?$AAD?$AA1?$AA?$AA@| DCB "k", 0x0, "V", 0x0
	DCB	"D", 0x0, "D", 0x0, "1", 0x0, 0x0, 0x0	; `string'

  00000			 AREA	 |.data|, DATA
|_dpll_1| DCD	0x0
	DCD	0x0
	DCD	0x1
	DCD	0x0
	DCD	0x5
	DCD	0x1
	DCD	0x0
	DCD	0x0
	DCD	0x0
	DCD	0x1
|_dpll_2| DCD	0x0
	DCD	0x0
	DCD	0x1
	DCD	0x0
	DCD	0x1
	DCD	0x1
	DCD	0x0
	DCD	0x0
	DCD	0x0
	DCD	0x1
|_dpll_3| DCD	0x0
	DCD	0x0
	DCD	0x1
	DCD	0x0
	DCD	0x5
	DCD	0x1
	DCD	0x0
	DCD	0x0
	DCD	0x0
	DCD	0x1
|_dpll_4| DCD	0x0
	DCD	0x0
	DCD	0x1
	DCD	0x0
	DCD	0x1
	DCD	0x1
	DCD	0x0
	DCD	0x0
	DCD	0x0
	DCD	0x1
|_dpll_5| DCD	0x0
	DCD	0x0
	DCD	0x1
	DCD	0x0
	DCD	0x1
	DCD	0x1
	DCD	0x0
	DCD	0x0
	DCD	0x0
	DCD	0x1
|_ssr_fclk| DCD	0x1
	DCD	0x3
	DCD	0x1
|_cam_fclk| DCD	0x1
	DCD	0x9
	DCD	0x10
|_dss1_fclk| DCD 0x1
	DCD	0x8
	DCD	0x10
|_usim_fclk| DCD 0x2
	DCD	0xc
	DCD	0x2
	DCD	0x44
	DCD	0x0
|_cm_usim_fclk| DCD 0x2
	DCD	0x46
	DCD	0x0
	DCD	0xa
	DCD	0x0
|_sgx_fclk| DCD	0x4
	DCD	0x2
	DCD	0x0
	DCD	0x21
	DCD	0x3
	DCD	0x5
	DCD	0x4
	DCD	0x3
	DCD	0x6
|_tv_fclk| DCD	0x2
	DCD	0x6
	DCD	0x10
	DCD	0xd
	DCD	0x0
|?_usim_sysclk_map@?1??PrcmClockSetDivisor@@9@9| DCB 0xff ; `PrcmClockSetDivisor'::`2'::_usim_sysclk_map
	DCB	0x1
	DCB	0x2
	%	1
|s_DpllTable| DCD 0x0
	DCD	0x0
	DCD	|_dpll_1|
	DCD	0x0
	DCD	0x0
	DCD	|_dpll_2|
	DCD	0x1
	DCD	0x0
	DCD	|_dpll_3|
	DCD	0x3
	DCD	0x0
	DCD	|_dpll_4|
	DCD	0x4
	DCD	0x0
	DCD	|_dpll_5|
	DCD	0x5
	DCD	0x0
	DCD	0x0
|s_DpllClkOutTable| DCD 0x5
	DCD	0x0
	DCD	0x0
	DCD	0x0
	DCD	0x1
	DCD	0x0
	DCD	0x2
	DCD	0x0
	DCD	0x2
	DCD	0x0
	DCD	0x2
	DCD	0x0
	DCD	0x3
	DCD	0x0
	DCD	0x3
	DCD	0x0
	DCD	0x3
	DCD	0x0
	DCD	0x3
	DCD	0x0
	DCD	0x3
	DCD	0x0
	DCD	0x4
	DCD	0x0
	DCD	0x5
	DCD	0x0
	DCD	0x5
	DCD	0x0
	DCD	0x5
	DCD	0x0
	%	8
|s_SrcClockTable| DCD 0x1
	DCD	0x0
	DCD	0x1
	DCD	0x0
	DCD	0x0
	DCD	0x2
	DCD	0x0
	DCD	0x1
	DCD	0x0
	DCD	0x1
	DCD	0x3
	DCD	0x0
	DCD	0x1
	DCD	0x0
	DCD	0x2
	DCD	0x4
	DCD	0x0
	DCD	0x1
	DCD	0x0
	DCD	0x3
	DCD	0x5
	DCD	0x0
	DCD	0x1
	DCD	0x0
	DCD	0x4
	DCD	0x6
	DCD	0x0
	DCD	0x1
	DCD	0x0
	DCD	0x5
	DCD	0x7
	DCD	0x0
	DCD	0x1
	DCD	0x0
	DCD	0x6
	DCD	0x8
	DCD	0x0
	DCD	0x1
	DCD	|_dss1_fclk|
	DCD	0x7
	DCD	0x9
	DCD	0x0
	DCD	0x1
	DCD	|_cam_fclk|
	DCD	0x8
	DCD	0xa
	DCD	0x0
	DCD	0x1
	DCD	0x0
	DCD	0x9
	DCD	0xb
	DCD	0x0
	DCD	0x1
	DCD	0x0
	DCD	0xa
	DCD	0x0
	DCD	0x0
	DCD	0x1
	DCD	0x0
	DCD	0xb
	DCD	0xc
	DCD	0x0
	DCD	0x1
	DCD	0x0
	DCD	0xc
	DCD	0xd
	DCD	0x0
	DCD	0x1
	DCD	0x0
	DCD	0xd
	DCD	0xf
	DCD	0x0
	DCD	0x1
	DCD	0x0
	DCD	0xe
	DCD	0xe
	DCD	0x0
	DCD	0x1
	DCD	0x0
	DCD	0xf
	DCD	0xc
	DCD	0x0
	DCD	0x0
	DCD	0x0
	DCD	0x10
	DCD	0xc
	DCD	0x0
	DCD	0x0
	DCD	0x0
	DCD	0x11
	DCD	0xc
	DCD	0x0
	DCD	0x0
	DCD	0x0
	DCD	0x12
	DCD	0xc
	DCD	0x0
	DCD	0x0
	DCD	0x0
	DCD	0x13
	DCD	0xc
	DCD	0x0
	DCD	0x0
	DCD	0x0
	DCD	0x14
	DCD	0xc
	DCD	0x0
	DCD	0x0
	DCD	0x0
	DCD	0x15
	DCD	0xc
	DCD	0x0
	DCD	0x0
	DCD	0x0
	DCD	0x16
	DCD	0xc
	DCD	0x0
	DCD	0x0
	DCD	0x0
	DCD	0x17
	DCD	0xc
	DCD	0x0
	DCD	0x0
	DCD	0x0
	DCD	0x18
	DCD	0xc
	DCD	0x0
	DCD	0x0
	DCD	0x0
	DCD	0x19
	DCD	0xc
	DCD	0x0
	DCD	0x0
	DCD	0x0
	DCD	0x1a
	DCD	0xc
	DCD	0x0
	DCD	0x0
	DCD	0x0
	DCD	0x1b
	DCD	0xb
	DCD	0x0
	DCD	0x0
	DCD	0x0
	DCD	0x1c
	DCD	0x1c
	DCD	0x0
	DCD	0x0
	DCD	0x0
	DCD	0x1d
	DCD	0xb
	DCD	0x0
	DCD	0x0
	DCD	0x0
	DCD	0x1e
	DCD	0xb
	DCD	0x0
	DCD	0x0
	DCD	0x0
	DCD	0x1f
	DCD	0xa
	DCD	0x0
	DCD	0x0
	DCD	0x0
	DCD	0x20
	DCD	0x5
	DCD	0x0
	DCD	0x0
	DCD	0x0
	DCD	0x21
	DCD	0x5
	DCD	0x0
	DCD	0x0
	DCD	0x0
	DCD	0x22
	DCD	0x2
	DCD	0x0
	DCD	0x0
	DCD	0x0
	DCD	0x23
	DCD	0x23
	DCD	0x0
	DCD	0x0
	DCD	0x0
	DCD	0x24
	DCD	0x24
	DCD	0x0
	DCD	0x0
	DCD	0x0
	DCD	0x25
	DCD	0x24
	DCD	0x0
	DCD	0x0
	DCD	0x0
	DCD	0x26
	DCD	0x2
	DCD	0x0
	DCD	0x0
	DCD	0x0
	DCD	0x27
	DCD	0x2
	DCD	0x0
	DCD	0x0
	DCD	0x0
	DCD	0x28
	DCD	0x23
	DCD	0x0
	DCD	0x0
	DCD	0x0
	DCD	0x29
	DCD	0x24
	DCD	0x0
	DCD	0x0
	DCD	0x0
	DCD	0x2a
	DCD	0x23
	DCD	0x0
	DCD	0x0
	DCD	0x0
	DCD	0x2b
	DCD	0x24
	DCD	0x0
	DCD	0x0
	DCD	0x0
	DCD	0x2c
	DCD	0x24
	DCD	0x0
	DCD	0x0
	DCD	0x0
	DCD	0x2d
	DCD	0x23
	DCD	0x0
	DCD	0x0
	DCD	0x0
	DCD	0x2e
	DCD	0x24
	DCD	0x0
	DCD	0x0
	DCD	0x0
	DCD	0x2f
	DCD	0x23
	DCD	0x0
	DCD	0x0
	DCD	0x0
	DCD	0x30
	DCD	0x24
	DCD	0x0
	DCD	0x0
	DCD	0x0
	DCD	0x31
	DCD	0x23
	DCD	0x0
	DCD	0x0
	DCD	0x0
	DCD	0x32
	DCD	0x24
	DCD	0x0
	DCD	0x0
	DCD	0x0
	DCD	0x33
	DCD	0x23
	DCD	0x0
	DCD	0x0
	DCD	0x0
	DCD	0x34
	DCD	0x24
	DCD	0x0
	DCD	0x0
	DCD	0x0
	DCD	0x35
	DCD	0x24
	DCD	0x0
	DCD	0x0
	DCD	0x0
	DCD	0x36
	DCD	0x24
	DCD	0x0
	DCD	0x0
	DCD	0x0
	DCD	0x37
	DCD	0x3
	DCD	0x0
	DCD	0x0
	DCD	|_ssr_fclk|
	DCD	0x38
	DCD	0x3
	DCD	0x0
	DCD	0x0
	DCD	0x0
	DCD	0x39
	DCD	0x46
	DCD	0x0
	DCD	0x0
	DCD	0x0
	DCD	0x3a
	DCD	0x46
	DCD	0x0
	DCD	0x0
	DCD	0x0
	DCD	0x3b
	DCD	0x46
	DCD	0x0
	DCD	0x0
	DCD	0x0
	DCD	0x3c
	DCD	0x47
	DCD	0x0
	DCD	0x0
	DCD	0x0
	DCD	0x3d
	DCD	0x47
	DCD	0x0
	DCD	0x0
	DCD	0x0
	DCD	0x3e
	DCD	0x47
	DCD	0x0
	DCD	0x0
	DCD	0x0
	DCD	0x3f
	DCD	0x47
	DCD	0x0
	DCD	0x0
	DCD	0x0
	DCD	0x40
	DCD	0x40
	DCD	0x0
	DCD	0x0
	DCD	0x0
	DCD	0x41
	DCD	0x48
	DCD	0x0
	DCD	0x0
	DCD	0x0
	DCD	0x42
	DCD	0xa
	DCD	0x0
	DCD	0x0
	DCD	0x0
	DCD	0x43
	DCD	0x21
	DCD	0x0
	DCD	0x0
	DCD	|_cm_usim_fclk|
	DCD	0x44
	DCD	0xc
	DCD	0x0
	DCD	0x0
	DCD	|_usim_fclk|
	DCD	0x45
	DCD	0x21
	DCD	0x0
	DCD	0x0
	DCD	0x0
	DCD	0x46
	DCD	0x21
	DCD	0x0
	DCD	0x0
	DCD	0x0
	DCD	0x47
	DCD	0x6
	DCD	0x0
	DCD	0x0
	DCD	|_tv_fclk|
	DCD	0x48
	DCD	0x2
	DCD	0x0
	DCD	0x0
	DCD	|_sgx_fclk|
	DCD	0x49
	DCD	0xb
	DCD	0x0
	DCD	0x0
	DCD	0x0
	DCD	0x4a
	DCD	0xc
	DCD	0x0
	DCD	0x0
	DCD	0x0
	DCD	0x4b
	DCD	0xc
	DCD	0x0
	DCD	0x0
	DCD	0x0
	DCD	0x4c
	DCD	0xc
	DCD	0x0
	DCD	0x0
	DCD	0x0
	DCD	0x4d
	DCD	0xc
	DCD	0x0
	DCD	0x0
	DCD	0x0
	DCD	0x4e
	DCD	0xc
	DCD	0x0
	DCD	0x0
	DCD	0x0
	DCD	0x4f
	DCD	0xc
	DCD	0x0
	DCD	0x0
	DCD	0x0
	DCD	0x50
	DCD	0xc
	DCD	0x0
	DCD	0x0
	DCD	0x0
	DCD	0x51
	DCD	0xc
	DCD	0x0
	DCD	0x0
	DCD	0x0
	DCD	0x52
	DCD	0x19
	DCD	0x0
	DCD	0x0
	DCD	0x0
	DCD	0x53
	DCD	0x19
	DCD	0x0
	DCD	0x0
	DCD	0x0
	DCD	0x54
	DCD	0x3a
	DCD	0x0
	DCD	0x0
	DCD	0x0
	DCD	0x55
	DCD	0x22
	DCD	0x0
	DCD	0x0
	DCD	0x0
	DCD	0x56
	DCD	0x22
	DCD	0x0
	DCD	0x0
	DCD	0x0
	DCD	0x57
	DCD	0x22
	DCD	0x0
	DCD	0x0
	DCD	0x0
	DCD	0x58
	DCD	0x3a
	DCD	0x0
	DCD	0x0
	DCD	0x0
	DCD	0x59
|?_sgx_core_clk@?1??PrcmClockSetDivisor@@9@9| DCB 0xff	; `PrcmClockSetDivisor'::`2'::_sgx_core_clk
	DCB	0xff
	DCB	0x5
	DCB	0x0
	DCB	0x1
	DCB	0xff
	DCB	0x2
	%	1
|?_sgx_96M_fclk@?1??PrcmClockSetDivisor@@9@9| DCB 0xff	; `PrcmClockSetDivisor'::`2'::_sgx_96M_fclk
	DCB	0x3
	%	2
|?_sgx_96M_192_alwon_clk@?1??PrcmClockSetDivisor@@9@9| DCB 0xff ; `PrcmClockSetDivisor'::`2'::_sgx_96M_192_alwon_clk
	DCB	0x4
	%	2
|?_sgx_corex2_fclk@?1??PrcmClockSetDivisor@@9@9| DCB 0xff ; `PrcmClockSetDivisor'::`2'::_sgx_corex2_fclk
	DCB	0xff
	DCB	0xff
	DCB	0x6
	DCB	0xff
	DCB	0x7
	%	2
|?_usim_96m_map@?1??PrcmClockSetDivisor@@9@9| DCB 0xff	; `PrcmClockSetDivisor'::`2'::_usim_96m_map
	DCB	0xff
	DCB	0x3
	DCB	0xff
	DCB	0x4
	DCB	0xff
	DCB	0xff
	DCB	0xff
	DCB	0x5
	DCB	0xff
	DCB	0x6
	%	1
|?_usim_120m_map@?1??PrcmClockSetDivisor@@9@9| DCB 0xff	; `PrcmClockSetDivisor'::`2'::_usim_120m_map
	DCB	0xff
	DCB	0xff
	DCB	0xff
	DCB	0x7
	DCB	0xff
	DCB	0xff
	DCB	0xff
	DCB	0x8
	DCB	0xff
	DCB	0xff
	DCB	0xff
	DCB	0xff
	DCB	0xff
	DCB	0xff
	DCB	0xff
	DCB	0x9
	DCB	0xff
	DCB	0xff
	DCB	0xff
	DCB	0xa
	%	3
|?_rgSysClkTbl@?1??PrcmClockGetSystemClockFrequency@@9@9| DCD 0x41400000 ; 12 ; `PrcmClockGetSystemClockFrequency'::`2'::_rgSysClkTbl
	DCD	0x41500000				; 13
	DCD	0x4199999a				; 19.2
	DCD	0x41d00000				; 26
	DCD	0x4219999a				; 38.4
	DCD	0x41866666				; 16.8
|s_VddNameTable| DCD |??_C@_1M@BIGJBMDA@?$AAk?$AAV?$AAD?$AAD?$AA1?$AA?$AA@|
	DCD	|??_C@_1M@KNMLDNO@?$AAk?$AAV?$AAD?$AAD?$AA2?$AA?$AA@|
	DCD	|??_C@_1M@LCGANELL@?$AAk?$AAV?$AAD?$AAD?$AA3?$AA?$AA@|
	DCD	|??_C@_1M@CPLHOMAC@?$AAk?$AAV?$AAD?$AAD?$AA4?$AA?$AA@|
	DCD	|??_C@_1M@JHALILGH@?$AAk?$AAV?$AAD?$AAD?$AA5?$AA?$AA@|
	DCD	|??_C@_1BC@PPJANNEK@?$AAk?$AAV?$AAD?$AAD?$AA_?$AAE?$AAX?$AAT?$AA?$AA@|
	DCD	|??_C@_1M@IJEGCDLI@?$AAk?$AAV?$AAD?$AAD?$AAS?$AA?$AA@|
	DCD	|??_C@_1BA@PHFNGHLK@?$AAk?$AAV?$AAD?$AAD?$AAP?$AAL?$AAL?$AA?$AA@|
	DCD	|??_C@_1BC@ODEKFAPK@?$AAk?$AAV?$AAD?$AAD?$AAA?$AAD?$AAA?$AAC?$AA?$AA@|
	DCD	|??_C@_1BE@KENFMBEG@?$AAk?$AAM?$AAM?$AAC?$AA_?$AAV?$AAD?$AAD?$AAS?$AA?$AA@|
|s_DpllNameTable| DCD |??_C@_1O@CJOPLKEK@?$AAk?$AAD?$AAP?$AAL?$AAL?$AA1?$AA?$AA@|
	DCD	|??_C@_1O@DLFKBFKE@?$AAk?$AAD?$AAP?$AAL?$AAL?$AA2?$AA?$AA@|
	DCD	|??_C@_1O@IDOGHCMB@?$AAk?$AAD?$AAP?$AAL?$AAL?$AA3?$AA?$AA@|
	DCD	|??_C@_1O@BODBEKHI@?$AAk?$AAD?$AAP?$AAL?$AAL?$AA4?$AA?$AA@|
	DCD	|??_C@_1O@KGINCNBN@?$AAk?$AAD?$AAP?$AAL?$AAL?$AA5?$AA?$AA@|
	DCD	|??_C@_1BE@EHNFPPJL@?$AAk?$AAD?$AAP?$AAL?$AAL?$AA_?$AAE?$AAX?$AAT?$AA?$AA@|
|DomainNameTable| DCD |??_C@_1CG@GNBBGDGH@?$AAP?$AAO?$AAW?$AAE?$AAR?$AAD?$AAO?$AAM?$AAA?$AAI?$AAN?$AA_?$AAW?$AAA?$AAK?$AAE?$AAU?$AAP?$AA?$AA@|
	DCD	|??_C@_1CC@DPNIOGJP@?$AAP?$AAO?$AAW?$AAE?$AAR?$AAD?$AAO?$AAM?$AAA?$AAI?$AAN?$AA_?$AAC?$AAO?$AAR?$AAE?$AA?$AA@|
	DCD	|??_C@_1CO@GHAPCMEA@?$AAP?$AAO?$AAW?$AAE?$AAR?$AAD?$AAO?$AAM?$AAA?$AAI?$AAN?$AA_?$AAP?$AAE?$AAR?$AAI?$AAP?$AAH?$AAE?$AAR?$AAA?$AAL?$AA?$AA@|
	DCD	|??_C@_1CI@LJKMALKI@?$AAP?$AAO?$AAW?$AAE?$AAR?$AAD?$AAO?$AAM?$AAA?$AAI?$AAN?$AA_?$AAU?$AAS?$AAB?$AAH?$AAO?$AAS?$AAT?$AA?$AA@|
	DCD	|??_C@_1CM@IICJPBKI@?$AAP?$AAO?$AAW?$AAE?$AAR?$AAD?$AAO?$AAM?$AAA?$AAI?$AAN?$AA_?$AAE?$AAM?$AAU?$AAL?$AAA?$AAT?$AAI?$AAO?$AAN?$AA?$AA@|
	DCD	|??_C@_1CA@MKHFGMJA@?$AAP?$AAO?$AAW?$AAE?$AAR?$AAD?$AAO?$AAM?$AAA?$AAI?$AAN?$AA_?$AAM?$AAP?$AAU?$AA?$AA@|
	DCD	|??_C@_1CA@HGMFFKMJ@?$AAP?$AAO?$AAW?$AAE?$AAR?$AAD?$AAO?$AAM?$AAA?$AAI?$AAN?$AA_?$AAD?$AAS?$AAS?$AA?$AA@|
	DCD	|??_C@_1CC@DDKPOHKD@?$AAP?$AAO?$AAW?$AAE?$AAR?$AAD?$AAO?$AAM?$AAA?$AAI?$AAN?$AA_?$AAN?$AAE?$AAO?$AAN?$AA?$AA@|
	DCD	|??_C@_1CC@DIKELEEG@?$AAP?$AAO?$AAW?$AAE?$AAR?$AAD?$AAO?$AAM?$AAA?$AAI?$AAN?$AA_?$AAI?$AAV?$AAA?$AA2?$AA?$AA@|
	DCD	|??_C@_1CG@OKLBKABF@?$AAP?$AAO?$AAW?$AAE?$AAR?$AAD?$AAO?$AAM?$AAA?$AAI?$AAN?$AA_?$AAC?$AAA?$AAM?$AAE?$AAR?$AAA?$AA?$AA@|
	DCD	|??_C@_1CA@EPPNKFHH@?$AAP?$AAO?$AAW?$AAE?$AAR?$AAD?$AAO?$AAM?$AAA?$AAI?$AAN?$AA_?$AAS?$AAG?$AAX?$AA?$AA@|
	DCD	|??_C@_1CE@NPBICAPK@?$AAP?$AAO?$AAW?$AAE?$AAR?$AAD?$AAO?$AAM?$AAA?$AAI?$AAN?$AA_?$AAE?$AAF?$AAU?$AAS?$AAE?$AA?$AA@|
	DCD	|??_C@_1DA@EDKFOKOO@?$AAP?$AAO?$AAW?$AAE?$AAR?$AAD?$AAO?$AAM?$AAA?$AAI?$AAN?$AA_?$AAS?$AAM?$AAA?$AAR?$AAT?$AAR?$AAE?$AAF?$AAL?$AAE?$AAX?$AA?$AA@|
|s_DpllClkOutNameTable| DCD |??_C@_1BG@FJDLHCCD@?$AAk?$AAE?$AAX?$AAT?$AA_?$AA3?$AA2?$AAK?$AAH?$AAZ?$AA?$AA@|
	DCD	|??_C@_1CG@BJOPNDBA@?$AAk?$AAD?$AAP?$AAL?$AAL?$AA1?$AA_?$AAC?$AAL?$AAK?$AAO?$AAU?$AAT?$AA_?$AAM?$AA2?$AAX?$AA2?$AA?$AA@|
	DCD	|??_C@_1CC@IJLANDEI@?$AAk?$AAD?$AAP?$AAL?$AAL?$AA2?$AA_?$AAC?$AAL?$AAK?$AAO?$AAU?$AAT?$AA_?$AAM?$AA2?$AA?$AA@|
	DCD	|??_C@_1CC@IJFLGGP@?$AAk?$AAD?$AAP?$AAL?$AAL?$AA3?$AA_?$AAC?$AAL?$AAK?$AAO?$AAU?$AAT?$AA_?$AAM?$AA2?$AA?$AA@|
	DCD	|??_C@_1CG@BKIECJCK@?$AAk?$AAD?$AAP?$AAL?$AAL?$AA3?$AA_?$AAC?$AAL?$AAK?$AAO?$AAU?$AAT?$AA_?$AAM?$AA2?$AAX?$AA2?$AA?$AA@|
	DCD	|??_C@_1CG@NGCOCJLE@?$AAk?$AAD?$AAP?$AAL?$AAL?$AA3?$AA_?$AAC?$AAL?$AAK?$AAO?$AAU?$AAT?$AA_?$AAM?$AA3?$AAX?$AA2?$AA?$AA@|
	DCD	|??_C@_1CG@BOINNKHJ@?$AAk?$AAD?$AAP?$AAL?$AAL?$AA4?$AA_?$AAC?$AAL?$AAK?$AAO?$AAU?$AAT?$AA_?$AAM?$AA2?$AAX?$AA2?$AA?$AA@|
	DCD	|??_C@_1CG@NCCHNKOH@?$AAk?$AAD?$AAP?$AAL?$AAL?$AA4?$AA_?$AAC?$AAL?$AAK?$AAO?$AAU?$AAT?$AA_?$AAM?$AA3?$AAX?$AA2?$AA?$AA@|
	DCD	|??_C@_1CG@NIOCNDPO@?$AAk?$AAD?$AAP?$AAL?$AAL?$AA4?$AA_?$AAC?$AAL?$AAK?$AAO?$AAU?$AAT?$AA_?$AAM?$AA4?$AAX?$AA2?$AA?$AA@|
	DCD	|??_C@_1CG@BEEINDGA@?$AAk?$AAD?$AAP?$AAL?$AAL?$AA4?$AA_?$AAC?$AAL?$AAK?$AAO?$AAU?$AAT?$AA_?$AAM?$AA5?$AAX?$AA2?$AA?$AA@|
	DCD	|??_C@_1CG@JKMHNEID@?$AAk?$AAD?$AAP?$AAL?$AAL?$AA4?$AA_?$AAC?$AAL?$AAK?$AAO?$AAU?$AAT?$AA_?$AAM?$AA6?$AAX?$AA2?$AA?$AA@|
	DCD	|??_C@_1CC@LIKIOEDP@?$AAk?$AAD?$AAP?$AAL?$AAL?$AA5?$AA_?$AAC?$AAL?$AAK?$AAO?$AAU?$AAT?$AA_?$AAM?$AA2?$AA?$AA@|
	DCD	|??_C@_1BK@KJEOLNHN@?$AAk?$AAE?$AAX?$AAT?$AA_?$AAS?$AAY?$AAS?$AA_?$AAC?$AAL?$AAK?$AA?$AA@|
	DCD	|??_C@_1BC@GMCNFJOM@?$AAk?$AAE?$AAX?$AAT?$AA_?$AAA?$AAL?$AAT?$AA?$AA@|
	DCD	|??_C@_1BE@CGAEBABM@?$AAk?$AAE?$AAX?$AAT?$AA_?$AAM?$AAI?$AAS?$AAC?$AA?$AA@|
	DCD	|??_C@_1BC@HPLLDAKE@?$AAk?$AAI?$AAN?$AAT?$AA_?$AAO?$AAS?$AAC?$AA?$AA@|
|s_SrcClockNameTable| DCD |??_C@_1CA@KNEGPAKI@?$AAk?$AAD?$AAP?$AAL?$AAL?$AA1?$AA_?$AAM?$AA2?$AAX?$AA2?$AA_?$AAC?$AAL?$AAK?$AA?$AA@|
	DCD	|??_C@_1BM@LAPEPOFC@?$AAk?$AAD?$AAP?$AAL?$AAL?$AA2?$AA_?$AAM?$AA2?$AA_?$AAC?$AAL?$AAK?$AA?$AA@|
	DCD	|??_C@_1BE@KIOEPBOF@?$AAk?$AAC?$AAO?$AAR?$AAE?$AA_?$AAC?$AAL?$AAK?$AA?$AA@|
	DCD	|??_C@_1BK@CKNHOHLE@?$AAk?$AAC?$AAO?$AAR?$AAE?$AAX?$AA2?$AA_?$AAF?$AAC?$AAL?$AAK?$AA?$AA@|
	DCD	|??_C@_1CK@NDKHMFDM@?$AAk?$AAE?$AAM?$AAU?$AAL?$AA_?$AAC?$AAO?$AAR?$AAE?$AA_?$AAA?$AAL?$AAW?$AAO?$AAN?$AA_?$AAC?$AAL?$AAK?$AA?$AA@|
	DCD	|??_C@_1CG@DJDPLNE@?$AAk?$AAP?$AAR?$AAM?$AA_?$AA9?$AA6?$AAM?$AA_?$AAA?$AAL?$AAW?$AAO?$AAN?$AA_?$AAC?$AAL?$AAK?$AA?$AA@|
	DCD	|??_C@_1CA@EIKHJGPJ@?$AAk?$AAD?$AAP?$AAL?$AAL?$AA4?$AA_?$AAM?$AA3?$AAX?$AA2?$AA_?$AAC?$AAL?$AAK?$AA?$AA@|
	DCD	|??_C@_1CC@PPLCALCJ@?$AAk?$AAD?$AAS?$AAS?$AA1?$AA_?$AAA?$AAL?$AAW?$AAO?$AAN?$AA_?$AAF?$AAC?$AAL?$AAK?$AA?$AA@|
	DCD	|??_C@_1BE@HNDENLJM@?$AAk?$AAC?$AAA?$AAM?$AA_?$AAM?$AAC?$AAL?$AAK?$AA?$AA@|
	DCD	|??_C@_1CK@BAAFIMCG@?$AAk?$AAE?$AAM?$AAU?$AAL?$AA_?$AAP?$AAE?$AAR?$AA_?$AAA?$AAL?$AAW?$AAO?$AAN?$AA_?$AAC?$AAL?$AAK?$AA?5?$AA?$AA@|
	DCD	|??_C@_1BG@DFNNJLGO@?$AAk?$AA1?$AA2?$AA0?$AAM?$AA_?$AAF?$AAC?$AAL?$AAK?$AA?$AA@|
	DCD	|??_C@_1BE@ECNAPIHO@?$AAk?$AA3?$AA2?$AAK?$AA_?$AAF?$AAC?$AAL?$AAK?$AA?$AA@|
	DCD	|??_C@_1BC@HKFDEGNL@?$AAk?$AAS?$AAY?$AAS?$AA_?$AAC?$AAL?$AAK?$AA?$AA@|
	DCD	|??_C@_1BI@ILMCMCCC@?$AAk?$AAS?$AAY?$AAS?$AA_?$AAA?$AAL?$AAT?$AAC?$AAL?$AAK?$AA?$AA@|
	DCD	|??_C@_1CC@EOBIKDKJ@?$AAk?$AAS?$AAE?$AAC?$AAU?$AAR?$AAE?$AA_?$AA3?$AA2?$AAK?$AA_?$AAF?$AAC?$AAL?$AAK?$AA?$AA@|
	DCD	|??_C@_1BI@CMEGODCK@?$AAk?$AAM?$AAC?$AAB?$AAS?$AAP?$AA_?$AAC?$AAL?$AAK?$AAS?$AA?$AA@|
	DCD	|??_C@_1CC@HCOAMGKK@?$AAk?$AAU?$AAS?$AAB?$AAT?$AAL?$AAL?$AA_?$AAS?$AAA?$AAR?$AA_?$AAF?$AAC?$AAL?$AAK?$AA?$AA@|
	DCD	|??_C@_1CE@KHCGIPEA@?$AAk?$AAU?$AAS?$AAB?$AAH?$AAO?$AAS?$AAT?$AA_?$AAS?$AAA?$AAR?$AA_?$AAF?$AAC?$AAL?$AAK?$AA?$AA@|
	DCD	|??_C@_1CE@PPGNFPBP@?$AAk?$AAE?$AAF?$AAU?$AAS?$AAE?$AA_?$AAA?$AAL?$AAW?$AAO?$AAN?$AA_?$AAF?$AAC?$AAL?$AAK?$AA?$AA@|
	DCD	|??_C@_1BO@OFGDLBDE@?$AAk?$AAS?$AAR?$AA_?$AAA?$AAL?$AAW?$AAO?$AAN?$AA_?$AAF?$AAC?$AAL?$AAK?$AA?$AA@|
	DCD	|??_C@_1CE@CCDDGGKL@?$AAk?$AAD?$AAP?$AAL?$AAL?$AA1?$AA_?$AAA?$AAL?$AAW?$AAO?$AAN?$AA_?$AAF?$AAC?$AAL?$AAK?$AA?$AA@|
	DCD	|??_C@_1CE@NAGEILFD@?$AAk?$AAD?$AAP?$AAL?$AAL?$AA2?$AA_?$AAA?$AAL?$AAW?$AAO?$AAN?$AA_?$AAF?$AAC?$AAL?$AAK?$AA?$AA@|
	DCD	|??_C@_1CE@DHHJCNME@?$AAk?$AAD?$AAP?$AAL?$AAL?$AA3?$AA_?$AAA?$AAL?$AAW?$AAO?$AAN?$AA_?$AAF?$AAC?$AAL?$AAK?$AA?$AA@|
	DCD	|??_C@_1CE@OPLKFGOC@?$AAk?$AAD?$AAP?$AAL?$AAL?$AA4?$AA_?$AAA?$AAL?$AAW?$AAO?$AAN?$AA_?$AAF?$AAC?$AAL?$AAK?$AA?$AA@|
	DCD	|??_C@_1CE@IKHPAHF@?$AAk?$AAD?$AAP?$AAL?$AAL?$AA5?$AA_?$AAA?$AAL?$AAW?$AAO?$AAN?$AA_?$AAF?$AAC?$AAL?$AAK?$AA?$AA@|
	DCD	|??_C@_1BI@OEECMJPN@?$AAk?$AAC?$AAM?$AA_?$AAS?$AAY?$AAS?$AA_?$AAC?$AAL?$AAK?$AA?$AA@|
	DCD	|??_C@_1CC@NOFOGNB@?$AAk?$AAD?$AAS?$AAS?$AA2?$AA_?$AAA?$AAL?$AAW?$AAO?$AAN?$AA_?$AAF?$AAC?$AAL?$AAK?$AA?$AA@|
	DCD	|??_C@_1BM@CKBOGBKN@?$AAk?$AAW?$AAK?$AAU?$AAP?$AA_?$AAL?$AA4?$AA_?$AAI?$AAC?$AAL?$AAK?$AA?$AA@|
	DCD	|??_C@_1BI@BEPCGLLM@?$AAk?$AAC?$AAM?$AA_?$AA3?$AA2?$AAK?$AA_?$AAC?$AAL?$AAK?$AA?$AA@|
	DCD	|??_C@_1BO@FLMCBEDL@?$AAk?$AAC?$AAO?$AAR?$AAE?$AA_?$AA3?$AA2?$AAK?$AA_?$AAF?$AAC?$AAL?$AAK?$AA?$AA@|
	DCD	|??_C@_1BO@LPLICNLH@?$AAk?$AAW?$AAK?$AAU?$AAP?$AA_?$AA3?$AA2?$AAK?$AA_?$AAF?$AAC?$AAL?$AAK?$AA?$AA@|
	DCD	|??_C@_1CI@EADHIPEB@?$AAk?$AAP?$AAE?$AAR?$AA_?$AA3?$AA2?$AAK?$AA_?$AAA?$AAL?$AAW?$AAO?$AAN?$AA_?$AAF?$AAC?$AAL?$AAK?$AA?$AA@|
	DCD	|??_C@_1CA@BBGPJHGP@?$AAk?$AAC?$AAO?$AAR?$AAE?$AA_?$AA1?$AA2?$AA0?$AAM?$AA_?$AAF?$AAC?$AAL?$AAK?$AA?$AA@|
	DCD	|??_C@_1BK@MCHPLJEE@?$AAk?$AAC?$AAM?$AA_?$AA9?$AA6?$AAM?$AA_?$AAF?$AAC?$AAL?$AAK?$AA?$AA@|
	DCD	|??_C@_1CA@PCEHGMIB@?$AAk?$AA9?$AA6?$AAM?$AA_?$AAA?$AAL?$AAW?$AAO?$AAN?$AA_?$AAF?$AAC?$AAL?$AAK?$AA?$AA@|
	DCD	|??_C@_1BC@GDMOPGOD@?$AAk?$AAL?$AA3?$AA_?$AAI?$AAC?$AAL?$AAK?$AA?$AA@|
	DCD	|??_C@_1BC@GADFMCD@?$AAk?$AAL?$AA4?$AA_?$AAI?$AAC?$AAL?$AAK?$AA?$AA@|
	DCD	|??_C@_1BK@EOKLGFAI@?$AAk?$AAU?$AAS?$AAB?$AA_?$AAL?$AA4?$AA_?$AAI?$AAC?$AAL?$AAK?$AA?$AA@|
	DCD	|??_C@_1BC@IEJPNIBD@?$AAk?$AAR?$AAM?$AA_?$AAI?$AAC?$AAL?$AAK?$AA?$AA@|
	DCD	|??_C@_1BI@BKNBPEFH@?$AAk?$AAD?$AAP?$AAL?$AAL?$AA1?$AA_?$AAF?$AAC?$AAL?$AAK?$AA?$AA@|
	DCD	|??_C@_1BI@GGLANBIM@?$AAk?$AAD?$AAP?$AAL?$AAL?$AA2?$AA_?$AAF?$AAC?$AAL?$AAK?$AA?$AA@|
	DCD	|??_C@_1BM@IIGNNOO@?$AAk?$AAC?$AAO?$AAR?$AAE?$AA_?$AAL?$AA3?$AA_?$AAI?$AAC?$AAL?$AAK?$AA?$AA@|
	DCD	|??_C@_1BM@GNELHHCO@?$AAk?$AAC?$AAO?$AAR?$AAE?$AA_?$AAL?$AA4?$AA_?$AAI?$AAC?$AAL?$AAK?$AA?$AA@|
	DCD	|??_C@_1CE@DCCJJJCO@?$AAk?$AAS?$AAE?$AAC?$AAU?$AAR?$AAI?$AAT?$AAY?$AA_?$AAL?$AA3?$AA_?$AAI?$AAC?$AAL?$AAK?$AA?$AA@|
	DCD	|??_C@_1CG@DHLKHHFE@?$AAk?$AAS?$AAE?$AAC?$AAU?$AAR?$AAI?$AAT?$AAY?$AA_?$AAL?$AA4?$AA_?$AAI?$AAC?$AAL?$AAK?$AA1?$AA?$AA@|
	DCD	|??_C@_1CG@CFAPNILK@?$AAk?$AAS?$AAE?$AAC?$AAU?$AAR?$AAI?$AAT?$AAY?$AA_?$AAL?$AA4?$AA_?$AAI?$AAC?$AAL?$AAK?$AA2?$AA?$AA@|
	DCD	|??_C@_1BK@NJNOEPMC@?$AAk?$AAS?$AAG?$AAX?$AA_?$AAL?$AA3?$AA_?$AAI?$AAC?$AAL?$AAK?$AA?$AA@|
	DCD	|??_C@_1BK@MMOEKMCA@?$AAk?$AAS?$AAS?$AAI?$AA_?$AAL?$AA4?$AA_?$AAI?$AAC?$AAL?$AAK?$AA?$AA@|
	DCD	|??_C@_1BK@FAIJEFLB@?$AAk?$AAD?$AAS?$AAS?$AA_?$AAL?$AA3?$AA_?$AAI?$AAC?$AAL?$AAK?$AA?$AA@|
	DCD	|??_C@_1BK@DFEEOPHB@?$AAk?$AAD?$AAS?$AAS?$AA_?$AAL?$AA4?$AA_?$AAI?$AAC?$AAL?$AAK?$AA?$AA@|
	DCD	|??_C@_1BK@BPAIBBEF@?$AAk?$AAC?$AAA?$AAM?$AA_?$AAL?$AA3?$AA_?$AAI?$AAC?$AAL?$AAK?$AA?$AA@|
	DCD	|??_C@_1BK@HKMFLLIF@?$AAk?$AAC?$AAA?$AAM?$AA_?$AAL?$AA4?$AA_?$AAI?$AAC?$AAL?$AAK?$AA?$AA@|
	DCD	|??_C@_1CC@ENGEEIGA@?$AAk?$AAU?$AAS?$AAB?$AAH?$AAO?$AAS?$AAT?$AA_?$AAL?$AA3?$AA_?$AAI?$AAC?$AAL?$AAK?$AA?$AA@|
	DCD	|??_C@_1CC@CIKJOCKA@?$AAk?$AAU?$AAS?$AAB?$AAH?$AAO?$AAS?$AAT?$AA_?$AAL?$AA4?$AA_?$AAI?$AAC?$AAL?$AAK?$AA?$AA@|
	DCD	|??_C@_1BK@JNEICFJE@?$AAk?$AAP?$AAE?$AAR?$AA_?$AAL?$AA4?$AA_?$AAI?$AAC?$AAL?$AAK?$AA?$AA@|
	DCD	|??_C@_1BI@KNLMECEA@?$AAk?$AAS?$AAR?$AA_?$AAL?$AA4?$AA_?$AAI?$AAC?$AAL?$AAK?$AA?$AA@|
	DCD	|??_C@_1BM@GMEGIECM@?$AAk?$AAS?$AAS?$AAI?$AA_?$AAS?$AAS?$AAR?$AA_?$AAF?$AAC?$AAL?$AAK?$AA?$AA@|
	DCD	|??_C@_1BM@JEIEMPJK@?$AAk?$AAS?$AAS?$AAI?$AA_?$AAS?$AAS?$AAT?$AA_?$AAF?$AAC?$AAL?$AAK?$AA?$AA@|
	DCD	|??_C@_1BO@GFLENGIF@?$AAk?$AAC?$AAO?$AAR?$AAE?$AA_?$AA9?$AA6?$AAM?$AA_?$AAF?$AAC?$AAL?$AAK?$AA?$AA@|
	DCD	|??_C@_1BM@KGEDNEGH@?$AAk?$AAD?$AAS?$AAS?$AA_?$AA9?$AA6?$AAM?$AA_?$AAF?$AAC?$AAL?$AAK?$AA?$AA@|
	DCD	|??_C@_1BO@MLNMBJDB@?$AAk?$AAC?$AAS?$AAI?$AA2?$AA_?$AA9?$AA6?$AAM?$AA_?$AAF?$AAC?$AAL?$AAK?$AA?$AA@|
	DCD	|??_C@_1BO@LGJNOPMF@?$AAk?$AAC?$AAO?$AAR?$AAE?$AA_?$AA4?$AA8?$AAM?$AA_?$AAF?$AAC?$AAL?$AAK?$AA?$AA@|
	DCD	|??_C@_1CE@JDPIHICJ@?$AAk?$AAU?$AAS?$AAB?$AAH?$AAO?$AAS?$AAT?$AA_?$AA4?$AA8?$AAM?$AA_?$AAF?$AAC?$AAL?$AAK?$AA?$AA@|
	DCD	|??_C@_1BM@CNNCGJCM@?$AAk?$AAP?$AAE?$AAR?$AA_?$AA4?$AA8?$AAM?$AA_?$AAF?$AAC?$AAL?$AAK?$AA?$AA@|
	DCD	|??_C@_1BE@LPMGNIEL@?$AAk?$AA1?$AA2?$AAM?$AA_?$AAF?$AAC?$AAL?$AAK?$AA?$AA@|
	DCD	|??_C@_1BO@KGNEDEAO@?$AAk?$AAC?$AAO?$AAR?$AAE?$AA_?$AA1?$AA2?$AAM?$AA_?$AAF?$AAC?$AAL?$AAK?$AA?$AA@|
	DCD	|??_C@_1BK@DMMIFOKJ@?$AAk?$AAD?$AAS?$AAS?$AA_?$AAT?$AAV?$AA_?$AAF?$AAC?$AAL?$AAK?$AA?$AA@|
	DCD	|??_C@_1CG@INMPAIAN@?$AAk?$AAU?$AAS?$AAB?$AAH?$AAO?$AAS?$AAT?$AA_?$AA1?$AA2?$AA0?$AAM?$AA_?$AAF?$AAC?$AAL?$AAK?$AA?$AA@|
	DCD	|??_C@_1BK@FIGBAONF@?$AAk?$AAC?$AAM?$AA_?$AAU?$AAS?$AAI?$AAM?$AA_?$AAC?$AAL?$AAK?$AA?$AA@|
	DCD	|??_C@_1BG@FOLAEDFM@?$AAk?$AAU?$AAS?$AAI?$AAM?$AA_?$AAF?$AAC?$AAL?$AAK?$AA?$AA@|
	DCD	|??_C@_1BE@HMKGDKMA@?$AAk?$AA9?$AA6?$AAM?$AA_?$AAF?$AAC?$AAL?$AAK?$AA?$AA@|
	DCD	|??_C@_1BE@KPIPADIA@?$AAk?$AA4?$AA8?$AAM?$AA_?$AAF?$AAC?$AAL?$AAK?$AA?$AA@|
	DCD	|??_C@_1BE@OHPPGGKJ@?$AAk?$AA5?$AA4?$AAM?$AA_?$AAF?$AAC?$AAL?$AAK?$AA?$AA@|
	DCD	|??_C@_1BE@BKPHEHJG@?$AAk?$AAS?$AAG?$AAX?$AA_?$AAF?$AAC?$AAL?$AAK?$AA?$AA@|
	DCD	|??_C@_1BG@LBMJBNDI@?$AAk?$AAG?$AAP?$AAT?$AA1?$AA_?$AAF?$AAC?$AAL?$AAK?$AA?$AA@|
	DCD	|??_C@_1CC@IEFCDICF@?$AAk?$AAG?$AAP?$AAT?$AA2?$AA_?$AAA?$AAL?$AAW?$AAO?$AAN?$AA_?$AAF?$AAC?$AAL?$AAK?$AA?$AA@|
	DCD	|??_C@_1CC@GDEPJOLC@?$AAk?$AAG?$AAP?$AAT?$AA3?$AA_?$AAA?$AAL?$AAW?$AAO?$AAN?$AA_?$AAF?$AAC?$AAL?$AAK?$AA?$AA@|
	DCD	|??_C@_1CC@LLIMOFJE@?$AAk?$AAG?$AAP?$AAT?$AA4?$AA_?$AAA?$AAL?$AAW?$AAO?$AAN?$AA_?$AAF?$AAC?$AAL?$AAK?$AA?$AA@|
	DCD	|??_C@_1CC@FMJBEDAD@?$AAk?$AAG?$AAP?$AAT?$AA5?$AA_?$AAA?$AAL?$AAW?$AAO?$AAN?$AA_?$AAF?$AAC?$AAL?$AAK?$AA?$AA@|
	DCD	|??_C@_1CC@KOMGKOPL@?$AAk?$AAG?$AAP?$AAT?$AA6?$AA_?$AAA?$AAL?$AAW?$AAO?$AAN?$AA_?$AAF?$AAC?$AAL?$AAK?$AA?$AA@|
	DCD	|??_C@_1CC@EJNLAIGM@?$AAk?$AAG?$AAP?$AAT?$AA7?$AA_?$AAA?$AAL?$AAW?$AAO?$AAN?$AA_?$AAF?$AAC?$AAL?$AAK?$AA?$AA@|
	DCD	|??_C@_1CC@MEDBFOPG@?$AAk?$AAG?$AAP?$AAT?$AA8?$AA_?$AAA?$AAL?$AAW?$AAO?$AAN?$AA_?$AAF?$AAC?$AAL?$AAK?$AA?$AA@|
	DCD	|??_C@_1CC@CDCMPIGB@?$AAk?$AAG?$AAP?$AAT?$AA9?$AA_?$AAA?$AAL?$AAW?$AAO?$AAN?$AA_?$AAF?$AAC?$AAL?$AAK?$AA?$AA@|
	DCD	|??_C@_1BI@FBHILLDF@?$AAk?$AAG?$AAP?$AAT?$AA1?$AA0?$AA_?$AAF?$AAC?$AAL?$AAK?$AA?$AA@|
	DCD	|??_C@_1BI@MMHHFKED@?$AAk?$AAG?$AAP?$AAT?$AA1?$AA1?$AA_?$AAF?$AAC?$AAL?$AAK?$AA?$AA@|
	%	4
|DeviceNames| DCD |??_C@_1CI@JGKNPEFC@?$AAO?$AAM?$AAA?$AAP?$AA_?$AAD?$AAE?$AAV?$AAI?$AAC?$AAE?$AA_?$AAS?$AAS?$AAI?$AA?5?$AA?$DN?$AA?5?$AA0?$AA?$AA@|
	DCD	|??_C@_1CC@OJKGELFG@?$AAO?$AAM?$AAA?$AAP?$AA_?$AAD?$AAE?$AAV?$AAI?$AAC?$AAE?$AA_?$AAS?$AAD?$AAR?$AAC?$AA?$AA@|
	DCD	|??_C@_1CA@FBHLHKND@?$AAO?$AAM?$AAA?$AAP?$AA_?$AAD?$AAE?$AAV?$AAI?$AAC?$AAE?$AA_?$AAD?$AA2?$AAD?$AA?$AA@|
	DCD	|??_C@_1CK@IEABCGNC@?$AAO?$AAM?$AAA?$AAP?$AA_?$AAD?$AAE?$AAV?$AAI?$AAC?$AAE?$AA_?$AAH?$AAS?$AAO?$AAT?$AAG?$AAU?$AAS?$AAB?$AA?$AA@|
	DCD	|??_C@_1CK@IFNFIOAO@?$AAO?$AAM?$AAA?$AAP?$AA_?$AAD?$AAE?$AAV?$AAI?$AAC?$AAE?$AA_?$AAO?$AAM?$AAA?$AAP?$AAC?$AAT?$AAR?$AAL?$AA?$AA@|
	DCD	|??_C@_1CM@FGHMOAMI@?$AAO?$AAM?$AAA?$AAP?$AA_?$AAD?$AAE?$AAV?$AAI?$AAC?$AAE?$AA_?$AAM?$AAA?$AAI?$AAL?$AAB?$AAO?$AAX?$AAE?$AAS?$AA?$AA@|
	DCD	|??_C@_1CG@HFJPNEHP@?$AAO?$AAM?$AAA?$AAP?$AA_?$AAD?$AAE?$AAV?$AAI?$AAC?$AAE?$AA_?$AAM?$AAC?$AAB?$AAS?$AAP?$AA1?$AA?$AA@|
	DCD	|??_C@_1CG@PKPNEDCI@?$AAO?$AAM?$AAA?$AAP?$AA_?$AAD?$AAE?$AAV?$AAI?$AAC?$AAE?$AA_?$AAM?$AAC?$AAB?$AAS?$AAP?$AA5?$AA?$AA@|
	DCD	|??_C@_1CM@OGAALMOP@?$AAO?$AAM?$AAA?$AAP?$AA_?$AAD?$AAE?$AAV?$AAI?$AAC?$AAE?$AA_?$AAG?$AAP?$AAT?$AAI?$AAM?$AAE?$AAR?$AA1?$AA0?$AA?$AA@|
	DCD	|??_C@_1CM@FOLMNLIK@?$AAO?$AAM?$AAA?$AAP?$AA_?$AAD?$AAE?$AAV?$AAI?$AAC?$AAE?$AA_?$AAG?$AAP?$AAT?$AAI?$AAM?$AAE?$AAR?$AA1?$AA1?$AA?$AA@|
	DCD	|??_C@_1CE@FCLPEICP@?$AAO?$AAM?$AAA?$AAP?$AA_?$AAD?$AAE?$AAV?$AAI?$AAC?$AAE?$AA_?$AAU?$AAA?$AAR?$AAT?$AA1?$AA?$AA@|
	DCD	|??_C@_1CE@EAAKOHMB@?$AAO?$AAM?$AAA?$AAP?$AA_?$AAD?$AAE?$AAV?$AAI?$AAC?$AAE?$AA_?$AAU?$AAA?$AAR?$AAT?$AA2?$AA?$AA@|
	DCD	|??_C@_1CC@LKKJHLEJ@?$AAO?$AAM?$AAA?$AAP?$AA_?$AAD?$AAE?$AAV?$AAI?$AAC?$AAE?$AA_?$AAI?$AA2?$AAC?$AA1?$AA?$AA@|
	DCD	|??_C@_1CC@KIBMNEKH@?$AAO?$AAM?$AAA?$AAP?$AA_?$AAD?$AAE?$AAV?$AAI?$AAC?$AAE?$AA_?$AAI?$AA2?$AAC?$AA2?$AA?$AA@|
	DCD	|??_C@_1CC@BAKALDMC@?$AAO?$AAM?$AAA?$AAP?$AA_?$AAD?$AAE?$AAV?$AAI?$AAC?$AAE?$AA_?$AAI?$AA2?$AAC?$AA3?$AA?$AA@|
	DCD	|??_C@_1CG@BHKFGKBJ@?$AAO?$AAM?$AAA?$AAP?$AA_?$AAD?$AAE?$AAV?$AAI?$AAC?$AAE?$AA_?$AAM?$AAC?$AAS?$AAP?$AAI?$AA1?$AA?$AA@|
	DCD	|??_C@_1CG@FBAMFPH@?$AAO?$AAM?$AAA?$AAP?$AA_?$AAD?$AAE?$AAV?$AAI?$AAC?$AAE?$AA_?$AAM?$AAC?$AAS?$AAP?$AAI?$AA2?$AA?$AA@|
	DCD	|??_C@_1CG@LNKMKCJC@?$AAO?$AAM?$AAA?$AAP?$AA_?$AAD?$AAE?$AAV?$AAI?$AAC?$AAE?$AA_?$AAM?$AAC?$AAS?$AAP?$AAI?$AA3?$AA?$AA@|
	DCD	|??_C@_1CG@CAHLJKCL@?$AAO?$AAM?$AAA?$AAP?$AA_?$AAD?$AAE?$AAV?$AAI?$AAC?$AAE?$AA_?$AAM?$AAC?$AAS?$AAP?$AAI?$AA4?$AA?$AA@|
	DCD	|??_C@_1CA@LMGICGON@?$AAO?$AAM?$AAA?$AAP?$AA_?$AAD?$AAE?$AAV?$AAI?$AAC?$AAE?$AA_?$AAH?$AAD?$AAQ?$AA?$AA@|
	DCD	|??_C@_1CE@GEGMLBDH@?$AAO?$AAM?$AAA?$AAP?$AA_?$AAD?$AAE?$AAV?$AAI?$AAC?$AAE?$AA_?$AAM?$AAS?$AAP?$AAR?$AAO?$AA?$AA@|
	DCD	|??_C@_1CC@MGDCFIAP@?$AAO?$AAM?$AAA?$AAP?$AA_?$AAD?$AAE?$AAV?$AAI?$AAC?$AAE?$AA_?$AAM?$AAM?$AAC?$AA1?$AA?$AA@|
	DCD	|??_C@_1CC@NEIHPHOB@?$AAO?$AAM?$AAA?$AAP?$AA_?$AAD?$AAE?$AAV?$AAI?$AAC?$AAE?$AA_?$AAM?$AAM?$AAC?$AA2?$AA?$AA@|
	DCD	|??_C@_1CC@GMDLJAIE@?$AAO?$AAM?$AAA?$AAP?$AA_?$AAD?$AAE?$AAV?$AAI?$AAC?$AAE?$AA_?$AAM?$AAM?$AAC?$AA3?$AA?$AA@|
	DCD	|??_C@_1CC@PIKBMFAF@?$AAO?$AAM?$AAA?$AAP?$AA_?$AAD?$AAE?$AAV?$AAI?$AAC?$AAE?$AA_?$AAD?$AAE?$AAS?$AA2?$AA?$AA@|
	DCD	|??_C@_1CE@PJCPMBMK@?$AAO?$AAM?$AAA?$AAP?$AA_?$AAD?$AAE?$AAV?$AAI?$AAC?$AAE?$AA_?$AAS?$AAH?$AAA?$AA1?$AA2?$AA?$AA@|
	DCD	|??_C@_1CC@BOIIAOEB@?$AAO?$AAM?$AAA?$AAP?$AA_?$AAD?$AAE?$AAV?$AAI?$AAC?$AAE?$AA_?$AAA?$AAE?$AAS?$AA2?$AA?$AA@|
	DCD	|??_C@_1CA@HPHCLJCF@?$AAO?$AAM?$AAA?$AAP?$AA_?$AAD?$AAE?$AAV?$AAI?$AAC?$AAE?$AA_?$AAI?$AAC?$AAR?$AA?$AA@|
	DCD	|??_C@_1CC@OKBEGKOL@?$AAO?$AAM?$AAA?$AAP?$AA_?$AAD?$AAE?$AAV?$AAI?$AAC?$AAE?$AA_?$AAD?$AAE?$AAS?$AA1?$AA?$AA@|
	DCD	|??_C@_1CE@OLJKGOCE@?$AAO?$AAM?$AAA?$AAP?$AA_?$AAD?$AAE?$AAV?$AAI?$AAC?$AAE?$AA_?$AAS?$AAH?$AAA?$AA1?$AA1?$AA?$AA@|
	DCD	|??_C@_1CA@IFPKCACL@?$AAO?$AAM?$AAA?$AAP?$AA_?$AAD?$AAE?$AAV?$AAI?$AAC?$AAE?$AA_?$AAR?$AAN?$AAG?$AA?$AA@|
	DCD	|??_C@_1CC@MDNKBKP@?$AAO?$AAM?$AAA?$AAP?$AA_?$AAD?$AAE?$AAV?$AAI?$AAC?$AAE?$AA_?$AAA?$AAE?$AAS?$AA1?$AA?$AA@|
	DCD	|??_C@_1CA@LCHJOJDJ@?$AAO?$AAM?$AAA?$AAP?$AA_?$AAD?$AAE?$AAV?$AAI?$AAC?$AAE?$AA_?$AAP?$AAK?$AAA?$AA?$AA@|
	DCD	|??_C@_1CG@MLOIKIGB@?$AAO?$AAM?$AAA?$AAP?$AA_?$AAD?$AAE?$AAV?$AAI?$AAC?$AAE?$AA_?$AAU?$AAS?$AAB?$AAT?$AAL?$AAL?$AA?$AA@|
	DCD	|??_C@_1BO@GEAFECNL@?$AAO?$AAM?$AAA?$AAP?$AA_?$AAD?$AAE?$AAV?$AAI?$AAC?$AAE?$AA_?$AAT?$AAS?$AA?$AA@|
	DCD	|??_C@_1CE@EPOGLAMA@?$AAO?$AAM?$AAA?$AAP?$AA_?$AAD?$AAE?$AAV?$AAI?$AAC?$AAE?$AA_?$AAE?$AAF?$AAU?$AAS?$AAE?$AA?$AA@|
	DCD	|??_C@_1CK@DJMEKAOO@?$AAO?$AAM?$AAA?$AAP?$AA_?$AAD?$AAE?$AAV?$AAI?$AAC?$AAE?$AA_?$AAG?$AAP?$AAT?$AAI?$AAM?$AAE?$AAR?$AA1?$AA?$AA@|
	DCD	|??_C@_1CM@EMAJHEGE@?$AAO?$AAM?$AAA?$AAP?$AA_?$AAD?$AAE?$AAV?$AAI?$AAC?$AAE?$AA_?$AAG?$AAP?$AAT?$AAI?$AAM?$AAE?$AAR?$AA1?$AA2?$AA?$AA@|
	DCD	|??_C@_1CI@FAKOHIJH@?$AAO?$AAM?$AAA?$AAP?$AA_?$AAD?$AAE?$AAV?$AAI?$AAC?$AAE?$AA_?$AA3?$AA2?$AAK?$AAS?$AAY?$AAN?$AAC?$AA?$AA@|
	DCD	|??_C@_1CC@PHCCGACG@?$AAO?$AAM?$AAA?$AAP?$AA_?$AAD?$AAE?$AAV?$AAI?$AAC?$AAE?$AA_?$AAW?$AAD?$AAT?$AA1?$AA?$AA@|
	DCD	|??_C@_1CC@OFJHMPMI@?$AAO?$AAM?$AAA?$AAP?$AA_?$AAD?$AAE?$AAV?$AAI?$AAC?$AAE?$AA_?$AAW?$AAD?$AAT?$AA2?$AA?$AA@|
	DCD	|??_C@_1CE@DCDAAOLP@?$AAO?$AAM?$AAA?$AAP?$AA_?$AAD?$AAE?$AAV?$AAI?$AAC?$AAE?$AA_?$AAG?$AAP?$AAI?$AAO?$AA1?$AA?$AA@|
	DCD	|??_C@_1CA@HDBABNBF@?$AAO?$AAM?$AAA?$AAP?$AA_?$AAD?$AAE?$AAV?$AAI?$AAC?$AAE?$AA_?$AAS?$AAR?$AA1?$AA?$AA@|
	DCD	|??_C@_1CA@GBKFLCPL@?$AAO?$AAM?$AAA?$AAP?$AA_?$AAD?$AAE?$AAV?$AAI?$AAC?$AAE?$AA_?$AAS?$AAR?$AA2?$AA?$AA@|
	DCD	|??_C@_1CC@BLAIIGEI@?$AAO?$AAM?$AAA?$AAP?$AA_?$AAD?$AAE?$AAV?$AAI?$AAC?$AAE?$AA_?$AAU?$AAS?$AAI?$AAM?$AA?$AA@|
	DCD	|??_C@_1CE@CAIFKBFB@?$AAO?$AAM?$AAA?$AAP?$AA_?$AAD?$AAE?$AAV?$AAI?$AAC?$AAE?$AA_?$AAG?$AAP?$AAI?$AAO?$AA2?$AA?$AA@|
	DCD	|??_C@_1CE@JIDJMGDE@?$AAO?$AAM?$AAA?$AAP?$AA_?$AAD?$AAE?$AAV?$AAI?$AAC?$AAE?$AA_?$AAG?$AAP?$AAI?$AAO?$AA3?$AA?$AA@|
	DCD	|??_C@_1CE@FOOPOIN@?$AAO?$AAM?$AAA?$AAP?$AA_?$AAD?$AAE?$AAV?$AAI?$AAC?$AAE?$AA_?$AAG?$AAP?$AAI?$AAO?$AA4?$AA?$AA@|
	DCD	|??_C@_1CE@LNFCJJOI@?$AAO?$AAM?$AAA?$AAP?$AA_?$AAD?$AAE?$AAV?$AAI?$AAC?$AAE?$AA_?$AAG?$AAP?$AAI?$AAO?$AA5?$AA?$AA@|
	DCD	|??_C@_1CE@KPOHDGAG@?$AAO?$AAM?$AAA?$AAP?$AA_?$AAD?$AAE?$AAV?$AAI?$AAC?$AAE?$AA_?$AAG?$AAP?$AAI?$AAO?$AA6?$AA?$AA@|
	DCD	|??_C@_1CG@GHCKHLJB@?$AAO?$AAM?$AAA?$AAP?$AA_?$AAD?$AAE?$AAV?$AAI?$AAC?$AAE?$AA_?$AAM?$AAC?$AAB?$AAS?$AAP?$AA2?$AA?$AA@|
	DCD	|??_C@_1CG@NPJGBMPE@?$AAO?$AAM?$AAA?$AAP?$AA_?$AAD?$AAE?$AAV?$AAI?$AAC?$AAE?$AA_?$AAM?$AAC?$AAB?$AAS?$AAP?$AA3?$AA?$AA@|
	DCD	|??_C@_1CG@ECEBCEEN@?$AAO?$AAM?$AAA?$AAP?$AA_?$AAD?$AAE?$AAV?$AAI?$AAC?$AAE?$AA_?$AAM?$AAC?$AAB?$AAS?$AAP?$AA4?$AA?$AA@|
	DCD	|??_C@_1CK@CLHBAPAA@?$AAO?$AAM?$AAA?$AAP?$AA_?$AAD?$AAE?$AAV?$AAI?$AAC?$AAE?$AA_?$AAG?$AAP?$AAT?$AAI?$AAM?$AAE?$AAR?$AA2?$AA?$AA@|
	DCD	|??_C@_1CK@JDMNGIGF@?$AAO?$AAM?$AAA?$AAP?$AA_?$AAD?$AAE?$AAV?$AAI?$AAC?$AAE?$AA_?$AAG?$AAP?$AAT?$AAI?$AAM?$AAE?$AAR?$AA3?$AA?$AA@|
	DCD	|??_C@_1CK@OBKFANM@?$AAO?$AAM?$AAA?$AAP?$AA_?$AAD?$AAE?$AAV?$AAI?$AAC?$AAE?$AA_?$AAG?$AAP?$AAT?$AAI?$AAM?$AAE?$AAR?$AA4?$AA?$AA@|
	DCD	|??_C@_1CK@LGKGDHLJ@?$AAO?$AAM?$AAA?$AAP?$AA_?$AAD?$AAE?$AAV?$AAI?$AAC?$AAE?$AA_?$AAG?$AAP?$AAT?$AAI?$AAM?$AAE?$AAR?$AA5?$AA?$AA@|
	DCD	|??_C@_1CK@KEBDJIFH@?$AAO?$AAM?$AAA?$AAP?$AA_?$AAD?$AAE?$AAV?$AAI?$AAC?$AAE?$AA_?$AAG?$AAP?$AAT?$AAI?$AAM?$AAE?$AAR?$AA6?$AA?$AA@|
	DCD	|??_C@_1CK@BMKPPPDC@?$AAO?$AAM?$AAA?$AAP?$AA_?$AAD?$AAE?$AAV?$AAI?$AAC?$AAE?$AA_?$AAG?$AAP?$AAT?$AAI?$AAM?$AAE?$AAR?$AA7?$AA?$AA@|
	DCD	|??_C@_1CK@EEMMOPGE@?$AAO?$AAM?$AAA?$AAP?$AA_?$AAD?$AAE?$AAV?$AAI?$AAC?$AAE?$AA_?$AAG?$AAP?$AAT?$AAI?$AAM?$AAE?$AAR?$AA8?$AA?$AA@|
	DCD	|??_C@_1CK@PMHAIIAB@?$AAO?$AAM?$AAA?$AAP?$AA_?$AAD?$AAE?$AAV?$AAI?$AAC?$AAE?$AA_?$AAG?$AAP?$AAT?$AAI?$AAM?$AAE?$AAR?$AA9?$AA?$AA@|
	DCD	|??_C@_1CE@PILGIAKE@?$AAO?$AAM?$AAA?$AAP?$AA_?$AAD?$AAE?$AAV?$AAI?$AAC?$AAE?$AA_?$AAU?$AAA?$AAR?$AAT?$AA3?$AA?$AA@|
	DCD	|??_C@_1CC@FNCLKIKN@?$AAO?$AAM?$AAA?$AAP?$AA_?$AAD?$AAE?$AAV?$AAI?$AAC?$AAE?$AA_?$AAW?$AAD?$AAT?$AA3?$AA?$AA@|
	DCD	|??_C@_1CA@FPBNMJAK@?$AAO?$AAM?$AAA?$AAP?$AA_?$AAD?$AAE?$AAV?$AAI?$AAC?$AAE?$AA_?$AAD?$AAS?$AAS?$AA?$AA@|
	DCD	|??_C@_1CC@FAMAFCEH@?$AAO?$AAM?$AAA?$AAP?$AA_?$AAD?$AAE?$AAV?$AAI?$AAC?$AAE?$AA_?$AAD?$AAS?$AAS?$AA1?$AA?$AA@|
	DCD	|??_C@_1CC@ECHFPNKJ@?$AAO?$AAM?$AAA?$AAP?$AA_?$AAD?$AAE?$AAV?$AAI?$AAC?$AAE?$AA_?$AAD?$AAS?$AAS?$AA2?$AA?$AA@|
	DCD	|??_C@_1CE@CMHCGOLP@?$AAO?$AAM?$AAA?$AAP?$AA_?$AAD?$AAE?$AAV?$AAI?$AAC?$AAE?$AA_?$AAT?$AAV?$AAO?$AAU?$AAT?$AA?$AA@|
	DCD	|??_C@_1CG@DPBHHNNG@?$AAO?$AAM?$AAA?$AAP?$AA_?$AAD?$AAE?$AAV?$AAI?$AAC?$AAE?$AA_?$AAC?$AAA?$AAM?$AAE?$AAR?$AAA?$AA?$AA@|
	DCD	|??_C@_1CC@COEMHCN@?$AAO?$AAM?$AAA?$AAP?$AA_?$AAD?$AAE?$AAV?$AAI?$AAC?$AAE?$AA_?$AAC?$AAS?$AAI?$AA2?$AA?$AA@|
	DCD	|??_C@_1CA@ENKIGGOE@?$AAO?$AAM?$AAA?$AAP?$AA_?$AAD?$AAE?$AAV?$AAI?$AAC?$AAE?$AA_?$AAD?$AAS?$AAP?$AA?$AA@|
	DCD	|??_C@_1BO@HHGGMBLK@?$AAO?$AAM?$AAA?$AAP?$AA_?$AAD?$AAE?$AAV?$AAI?$AAC?$AAE?$AA_?$AA2?$AAD?$AA?$AA@|
	DCD	|??_C@_1BO@LMDKBCBP@?$AAO?$AAM?$AAA?$AAP?$AA_?$AAD?$AAE?$AAV?$AAI?$AAC?$AAE?$AA_?$AA3?$AAD?$AA?$AA@|
	DCD	|??_C@_1CA@GGCFDGLE@?$AAO?$AAM?$AAA?$AAP?$AA_?$AAD?$AAE?$AAV?$AAI?$AAC?$AAE?$AA_?$AAS?$AAG?$AAX?$AA?$AA@|
	DCD	|??_C@_1CG@HGEIGOOP@?$AAO?$AAM?$AAA?$AAP?$AA_?$AAD?$AAE?$AAV?$AAI?$AAC?$AAE?$AA_?$AAH?$AAS?$AAU?$AAS?$AAB?$AA1?$AA?$AA@|
	DCD	|??_C@_1CG@GEPNMBAB@?$AAO?$AAM?$AAA?$AAP?$AA_?$AAD?$AAE?$AAV?$AAI?$AAC?$AAE?$AA_?$AAH?$AAS?$AAU?$AAS?$AAB?$AA2?$AA?$AA@|
	DCD	|??_C@_1CK@FGNGBDLO@?$AAO?$AAM?$AAA?$AAP?$AA_?$AAD?$AAE?$AAV?$AAI?$AAC?$AAE?$AA_?$AAU?$AAS?$AAB?$AAH?$AAO?$AAS?$AAT?$AA1?$AA?$AA@|
	DCD	|??_C@_1CK@EEGDLMFA@?$AAO?$AAM?$AAA?$AAP?$AA_?$AAD?$AAE?$AAV?$AAI?$AAC?$AAE?$AA_?$AAU?$AAS?$AAB?$AAH?$AAO?$AAS?$AAT?$AA2?$AA?$AA@|
	DCD	|??_C@_1CK@PMNPNLDF@?$AAO?$AAM?$AAA?$AAP?$AA_?$AAD?$AAE?$AAV?$AAI?$AAC?$AAE?$AA_?$AAU?$AAS?$AAB?$AAH?$AAO?$AAS?$AAT?$AA3?$AA?$AA@|
	DCD	|??_C@_1CC@JFKAJPFG@?$AAO?$AAM?$AAA?$AAP?$AA_?$AAD?$AAE?$AAV?$AAI?$AAC?$AAE?$AA_?$AAV?$AAR?$AAF?$AAB?$AA?$AA@|
	DCD	|??_C@_1CE@GFGBLIBN@?$AAO?$AAM?$AAA?$AAP?$AA_?$AAD?$AAE?$AAV?$AAI?$AAC?$AAE?$AA_?$AAU?$AAA?$AAR?$AAT?$AA4?$AA?$AA@|
	DCD	|??_C@_1CI@CGCHDENN@?$AAO?$AAM?$AAA?$AAP?$AA_?$AAD?$AAE?$AAV?$AAI?$AAC?$AAE?$AA_?$AAG?$AAE?$AAN?$AAE?$AAR?$AAI?$AAC?$AA?$AA@|
	%	4
|DumpRegArray| DCD |??_C@_1BA@JEPMHMHH@?$AAI?$AAV?$AAA?$AA2?$AA_?$AAC?$AAM?$AA?$AA@|
	DCD	0x0
	DCD	0x0
	DCD	0x0
	DCD	|??_C@_1BO@BMCCBFKC@?$AAC?$AAM?$AA_?$AAF?$AAC?$AAL?$AAK?$AAE?$AAN?$AA_?$AAI?$AAV?$AAA?$AA2?$AA?$AA@|
	DCD	0x20
	DCD	0x48004000
	DCD	0x0
	DCD	|??_C@_1CE@EGLDCDGI@?$AAC?$AAM?$AA_?$AAC?$AAL?$AAK?$AAE?$AAN?$AA_?$AAP?$AAL?$AAL?$AA_?$AAI?$AAV?$AAA?$AA2?$AA?$AA@|
	DCD	0x20
	DCD	0x48004004
	DCD	0x0
	DCD	|??_C@_1BO@ICPAIDCP@?$AAC?$AAM?$AA_?$AAI?$AAD?$AAL?$AAE?$AAS?$AAT?$AA_?$AAI?$AAV?$AAA?$AA2?$AA?$AA@|
	DCD	0x20
	DCD	0x48004020
	DCD	0x0
	DCD	|??_C@_1CG@ONOPJIEM@?$AAC?$AAM?$AA_?$AAI?$AAD?$AAL?$AAE?$AAS?$AAT?$AA_?$AAP?$AAL?$AAL?$AA_?$AAI?$AAV?$AAA?$AA2?$AA?$AA@|
	DCD	0x20
	DCD	0x48004024
	DCD	0x0
	DCD	|??_C@_1CK@OCLDONOJ@?$AAC?$AAM?$AA_?$AAA?$AAU?$AAT?$AAO?$AAI?$AAD?$AAL?$AAE?$AA_?$AAP?$AAL?$AAL?$AA_?$AAI?$AAV?$AAA?$AA2?$AA?$AA@|
	DCD	0x20
	DCD	0x48004034
	DCD	0x0
	DCD	|??_C@_1CI@CNFPDILL@?$AAC?$AAM?$AA_?$AAC?$AAL?$AAK?$AAS?$AAE?$AAL?$AA1?$AA_?$AAP?$AAL?$AAL?$AA_?$AAI?$AAV?$AAA?$AA2?$AA?$AA@|
	DCD	0x20
	DCD	0x48004040
	DCD	0x0
	DCD	|??_C@_1CI@BECHJFPL@?$AAC?$AAM?$AA_?$AAC?$AAL?$AAK?$AAS?$AAE?$AAL?$AA2?$AA_?$AAP?$AAL?$AAL?$AA_?$AAI?$AAV?$AAA?$AA2?$AA?$AA@|
	DCD	0x20
	DCD	0x48004044
	DCD	0x0
	DCD	|??_C@_1CE@EJPMCCDJ@?$AAC?$AAM?$AA_?$AAC?$AAL?$AAK?$AAS?$AAT?$AAC?$AAT?$AAR?$AAL?$AA_?$AAI?$AAV?$AAA?$AA2?$AA?$AA@|
	DCD	0x20
	DCD	0x48004048
	DCD	0x0
	DCD	|??_C@_1CA@DCHKBGCI@?$AAC?$AAM?$AA_?$AAC?$AAL?$AAK?$AAS?$AAT?$AAS?$AAT?$AA_?$AAI?$AAV?$AAA?$AA2?$AA?$AA@|
	DCD	0x20
	DCD	0x4800404c
	DCD	0x0
	DCD	|??_C@_1CE@OMIMNBBB@?$AAO?$AAC?$AAP?$AA_?$AAS?$AAy?$AAs?$AAt?$AAe?$AAm?$AA_?$AAR?$AAe?$AAg?$AA_?$AAC?$AAM?$AA?$AA@|
	DCD	0x20
	DCD	0x0
	DCD	0x0
	DCD	|??_C@_1BI@OFDDPNDA@?$AAC?$AAM?$AA_?$AAR?$AAE?$AAV?$AAI?$AAS?$AAI?$AAO?$AAN?$AA?$AA@|
	DCD	0x20
	DCD	0x48004800
	DCD	0x0
	DCD	|??_C@_1BK@MFOLEKL@?$AAC?$AAM?$AA_?$AAS?$AAY?$AAS?$AAC?$AAO?$AAN?$AAF?$AAI?$AAG?$AA?$AA@|
	DCD	0x20
	DCD	0x48004810
	DCD	0x0
	DCD	|??_C@_1O@NHPFAPNK@?$AAM?$AAP?$AAU?$AA_?$AAC?$AAM?$AA?$AA@|
	DCD	0x0
	DCD	0x0
	DCD	0x0
	DCD	|??_C@_1CC@JNLBAGDF@?$AAC?$AAM?$AA_?$AAC?$AAL?$AAK?$AAE?$AAN?$AA_?$AAP?$AAL?$AAL?$AA_?$AAM?$AAP?$AAU?$AA?$AA@|
	DCD	0x20
	DCD	0x48004904
	DCD	0x0
	DCD	|??_C@_1BM@HFFIEGID@?$AAC?$AAM?$AA_?$AAI?$AAD?$AAL?$AAE?$AAS?$AAT?$AA_?$AAM?$AAP?$AAU?$AA?$AA@|
	DCD	0x20
	DCD	0x48004920
	DCD	0x0
	DCD	|??_C@_1CE@BDMBNMCK@?$AAC?$AAM?$AA_?$AAI?$AAD?$AAL?$AAE?$AAS?$AAT?$AA_?$AAP?$AAL?$AAL?$AA_?$AAM?$AAP?$AAU?$AA?$AA@|
	DCD	0x20
	DCD	0x48004924
	DCD	0x0
	DCD	|??_C@_1CI@CMDKJBJB@?$AAC?$AAM?$AA_?$AAA?$AAU?$AAT?$AAO?$AAI?$AAD?$AAL?$AAE?$AA_?$AAP?$AAL?$AAL?$AA_?$AAM?$AAP?$AAU?$AA?$AA@|
	DCD	0x20
	DCD	0x48004934
	DCD	0x0
	DCD	|??_C@_1CG@NPDFIEKE@?$AAC?$AAM?$AA_?$AAC?$AAL?$AAK?$AAS?$AAE?$AAL?$AA1?$AA_?$AAP?$AAL?$AAL?$AA_?$AAM?$AAP?$AAU?$AA?$AA@|
	DCD	0x20
	DCD	0x48004940
	DCD	0x0
	DCD	|??_C@_1CG@HAJMMJGO@?$AAC?$AAM?$AA_?$AAC?$AAL?$AAK?$AAS?$AAE?$AAL?$AA2?$AA_?$AAP?$AAL?$AAL?$AA_?$AAM?$AAP?$AAU?$AA?$AA@|
	DCD	0x20
	DCD	0x48004944
	DCD	0x0
	DCD	|??_C@_1CC@LKCGBNJG@?$AAC?$AAM?$AA_?$AAC?$AAL?$AAK?$AAS?$AAT?$AAC?$AAT?$AAR?$AAL?$AA_?$AAM?$AAP?$AAU?$AA?$AA@|
	DCD	0x20
	DCD	0x48004948
	DCD	0x0
	DCD	|??_C@_1BO@HNKCCHHN@?$AAC?$AAM?$AA_?$AAC?$AAL?$AAK?$AAS?$AAT?$AAS?$AAT?$AA_?$AAM?$AAP?$AAU?$AA?$AA@|
	DCD	0x20
	DCD	0x4800494c
	DCD	0x0
	DCD	|??_C@_1BA@MHLIKEJK@?$AAC?$AAO?$AAR?$AAE?$AA_?$AAC?$AAM?$AA?$AA@|
	DCD	0x0
	DCD	0x0
	DCD	0x0
	DCD	|??_C@_1CA@CFLMELNM@?$AAC?$AAM?$AA_?$AAF?$AAC?$AAL?$AAK?$AAE?$AAN?$AA1?$AA_?$AAC?$AAO?$AAR?$AAE?$AA?$AA@|
	DCD	0x20
	DCD	0x48004a00
	DCD	0x0
	DCD	|??_C@_1CA@MENCIPHB@?$AAC?$AAM?$AA_?$AAF?$AAC?$AAL?$AAK?$AAE?$AAN?$AA3?$AA_?$AAC?$AAO?$AAR?$AAE?$AA?$AA@|
	DCD	0x20
	DCD	0x48004a08
	DCD	0x0
	DCD	|??_C@_1CA@KIFGBNEG@?$AAC?$AAM?$AA_?$AAI?$AAC?$AAL?$AAK?$AAE?$AAN?$AA1?$AA_?$AAC?$AAO?$AAR?$AAE?$AA?$AA@|
	DCD	0x20
	DCD	0x48004a10
	DCD	0x0
	DCD	|??_C@_1CA@NEDHDIJN@?$AAC?$AAM?$AA_?$AAI?$AAC?$AAL?$AAK?$AAE?$AAN?$AA2?$AA_?$AAC?$AAO?$AAR?$AAE?$AA?$AA@|
	DCD	0x20
	DCD	0x48004a14
	DCD	0x0
	DCD	|??_C@_1CA@EJDINJOL@?$AAC?$AAM?$AA_?$AAI?$AAC?$AAL?$AAK?$AAE?$AAN?$AA3?$AA_?$AAC?$AAO?$AAR?$AAE?$AA?$AA@|
	DCD	0x20
	DCD	0x48004a18
	DCD	0x0
	DCD	|??_C@_1CA@LCPNAFHJ@?$AAC?$AAM?$AA_?$AAI?$AAD?$AAL?$AAE?$AAS?$AAT?$AA1?$AA_?$AAC?$AAO?$AAR?$AAE?$AA?$AA@|
	DCD	0x20
	DCD	0x48004a20
	DCD	0x0
	DCD	|??_C@_1CA@MOJMCAKC@?$AAC?$AAM?$AA_?$AAI?$AAD?$AAL?$AAE?$AAS?$AAT?$AA2?$AA_?$AAC?$AAO?$AAR?$AAE?$AA?$AA@|
	DCD	0x20
	DCD	0x48004a24
	DCD	0x0
	DCD	|??_C@_1CA@FDJDMBNE@?$AAC?$AAM?$AA_?$AAI?$AAD?$AAL?$AAE?$AAS?$AAT?$AA3?$AA_?$AAC?$AAO?$AAR?$AAE?$AA?$AA@|
	DCD	0x20
	DCD	0x48004a28
	DCD	0x0
	DCD	|??_C@_1CE@HBMGIBI@?$AAC?$AAM?$AA_?$AAA?$AAU?$AAT?$AAO?$AAI?$AAD?$AAL?$AAE?$AA1?$AA_?$AAC?$AAO?$AAR?$AAE?$AA?$AA@|
	DCD	0x20
	DCD	0x48004a30
	DCD	0x0
	DCD	|??_C@_1CE@HLHNENMD@?$AAC?$AAM?$AA_?$AAA?$AAU?$AAT?$AAO?$AAI?$AAD?$AAL?$AAE?$AA2?$AA_?$AAC?$AAO?$AAR?$AAE?$AA?$AA@|
	DCD	0x20
	DCD	0x48004a34
	DCD	0x0
	DCD	|??_C@_1CE@OGHCKMLF@?$AAC?$AAM?$AA_?$AAA?$AAU?$AAT?$AAO?$AAI?$AAD?$AAL?$AAE?$AA3?$AA_?$AAC?$AAO?$AAR?$AAE?$AA?$AA@|
	DCD	0x20
	DCD	0x48004a38
	DCD	0x0
	DCD	|??_C@_1BO@BGDPDEGJ@?$AAC?$AAM?$AA_?$AAC?$AAL?$AAK?$AAS?$AAE?$AAL?$AA_?$AAC?$AAO?$AAR?$AAE?$AA?$AA@|
	DCD	0x20
	DCD	0x48004a40
	DCD	0x0
	DCD	|??_C@_1CE@EOIAHAOA@?$AAC?$AAM?$AA_?$AAC?$AAL?$AAK?$AAS?$AAT?$AAC?$AAT?$AAR?$AAL?$AA_?$AAC?$AAO?$AAR?$AAE?$AA?$AA@|
	DCD	0x20
	DCD	0x48004a48
	DCD	0x0
	DCD	|??_C@_1CA@DFAGEEPB@?$AAC?$AAM?$AA_?$AAC?$AAL?$AAK?$AAS?$AAT?$AAS?$AAT?$AA_?$AAC?$AAO?$AAR?$AAE?$AA?$AA@|
	DCD	0x20
	DCD	0x48004a4c
	DCD	0x0
	DCD	|??_C@_1O@PHKCOJPF@?$AAS?$AAG?$AAX?$AA_?$AAC?$AAM?$AA?$AA@|
	DCD	0x0
	DCD	0x0
	DCD	0x0
	DCD	|??_C@_1BM@JFNDLFFL@?$AAC?$AAM?$AA_?$AAF?$AAC?$AAL?$AAK?$AAE?$AAN?$AA_?$AAS?$AAG?$AAX?$AA?$AA@|
	DCD	0x20
	DCD	0x48004b00
	DCD	0x0
	DCD	|??_C@_1BM@EJEJKNBL@?$AAC?$AAM?$AA_?$AAI?$AAC?$AAL?$AAK?$AAE?$AAN?$AA_?$AAS?$AAG?$AAX?$AA?$AA@|
	DCD	0x20
	DCD	0x48004b10
	DCD	0x0
	DCD	|??_C@_1BM@PANAIPGE@?$AAC?$AAM?$AA_?$AAI?$AAD?$AAL?$AAE?$AAS?$AAT?$AA_?$AAS?$AAG?$AAX?$AA?$AA@|
	DCD	0x20
	DCD	0x48004b20
	DCD	0x0
	DCD	|??_C@_1BM@DKOEAHJA@?$AAC?$AAM?$AA_?$AAC?$AAL?$AAK?$AAS?$AAE?$AAL?$AA_?$AAS?$AAG?$AAX?$AA?$AA@|
	DCD	0x20
	DCD	0x48004b40
	DCD	0x0
	DCD	|??_C@_1CA@EOLCFPBH@?$AAC?$AAM?$AA_?$AAS?$AAL?$AAE?$AAE?$AAP?$AAD?$AAE?$AAP?$AA_?$AAS?$AAG?$AAX?$AA?$AA@|
	DCD	0x20
	DCD	0x48004b44
	DCD	0x0
	DCD	|??_C@_1CC@DPKONEHB@?$AAC?$AAM?$AA_?$AAC?$AAL?$AAK?$AAS?$AAT?$AAC?$AAT?$AAR?$AAL?$AA_?$AAS?$AAG?$AAX?$AA?$AA@|
	DCD	0x20
	DCD	0x48004b48
	DCD	0x0
	DCD	|??_C@_1BO@PICKOOJK@?$AAC?$AAM?$AA_?$AAC?$AAL?$AAK?$AAS?$AAT?$AAS?$AAT?$AA_?$AAS?$AAG?$AAX?$AA?$AA@|
	DCD	0x20
	DCD	0x48004b4c
	DCD	0x0
	DCD	|??_C@_1BA@FJBNPKLL@?$AAW?$AAK?$AAU?$AAP?$AA_?$AAC?$AAM?$AA?$AA@|
	DCD	0x0
	DCD	0x0
	DCD	0x0
	DCD	|??_C@_1BO@MLJDPPAG@?$AAC?$AAM?$AA_?$AAF?$AAC?$AAL?$AAK?$AAE?$AAN?$AA_?$AAW?$AAK?$AAU?$AAP?$AA?$AA@|
	DCD	0x20
	DCD	0x48004c00
	DCD	0x0
	DCD	|??_C@_1BO@CIIGPEMP@?$AAC?$AAM?$AA_?$AAI?$AAC?$AAL?$AAK?$AAE?$AAN?$AA_?$AAW?$AAK?$AAU?$AAP?$AA?$AA@|
	DCD	0x20
	DCD	0x48004c10
	DCD	0x0
	DCD	|??_C@_1BO@FFEBGJIL@?$AAC?$AAM?$AA_?$AAI?$AAD?$AAL?$AAE?$AAS?$AAT?$AA_?$AAW?$AAK?$AAU?$AAP?$AA?$AA@|
	DCD	0x20
	DCD	0x48004c20
	DCD	0x0
	DCD	|??_C@_1CC@JJJPDLCF@?$AAC?$AAM?$AA_?$AAA?$AAU?$AAT?$AAO?$AAI?$AAD?$AAL?$AAE?$AA_?$AAW?$AAK?$AAU?$AAP?$AA?$AA@|
	DCD	0x20
	DCD	0x48004c30
	DCD	0x0
	DCD	|??_C@_1BO@MGPCIMBE@?$AAC?$AAM?$AA_?$AAC?$AAL?$AAK?$AAS?$AAE?$AAL?$AA_?$AAW?$AAK?$AAU?$AAP?$AA?$AA@|
	DCD	0x20
	DCD	0x48004c40
	DCD	0x0
	DCD	|??_C@_1CK@OJMCKPMK@?$AAC?$AAl?$AAo?$AAc?$AAk?$AA_?$AAC?$AAo?$AAn?$AAt?$AAr?$AAo?$AAl?$AA_?$AAR?$AAe?$AAg?$AA_?$AAC?$AAM?$AA?$AA@|
	DCD	0x20
	DCD	0x0
	DCD	0x0
	DCD	|??_C@_1BK@CFOGEALB@?$AAC?$AAM?$AA_?$AAC?$AAL?$AAK?$AAE?$AAN?$AA_?$AAP?$AAL?$AAL?$AA?$AA@|
	DCD	0x20
	DCD	0x48004d00
	DCD	0x0
	DCD	|??_C@_1BM@DGCCAOAF@?$AAC?$AAM?$AA_?$AAC?$AAL?$AAK?$AAE?$AAN?$AA2?$AA_?$AAP?$AAL?$AAL?$AA?$AA@|
	DCD	0x20
	DCD	0x48004d04
	DCD	0x0
	DCD	|??_C@_1CA@PFEJJBMO@?$AAC?$AAM?$AA_?$AAI?$AAD?$AAL?$AAE?$AAS?$AAT?$AA_?$AAC?$AAK?$AAG?$AAE?$AAN?$AA?$AA@|
	DCD	0x20
	DCD	0x48004d20
	DCD	0x0
	DCD	|??_C@_1CC@OBCEIAAE@?$AAC?$AAM?$AA_?$AAI?$AAD?$AAL?$AAE?$AAS?$AAT?$AA2?$AA_?$AAC?$AAK?$AAG?$AAE?$AAN?$AA?$AA@|
	DCD	0x20
	DCD	0x48004d24
	DCD	0x0
	DCD	|??_C@_1CA@ODFNPBKK@?$AAC?$AAM?$AA_?$AAA?$AAU?$AAT?$AAO?$AAI?$AAD?$AAL?$AAE?$AA_?$AAP?$AAL?$AAL?$AA?$AA@|
	DCD	0x20
	DCD	0x48004d30
	DCD	0x0
	DCD	|??_C@_1CC@CDHCIADO@?$AAC?$AAM?$AA_?$AAA?$AAU?$AAT?$AAO?$AAI?$AAD?$AAL?$AAE?$AA2?$AA_?$AAP?$AAL?$AAL?$AA?$AA@|
	DCD	0x20
	DCD	0x48004d34
	DCD	0x0
	DCD	|??_C@_1BO@LIBOFPP@?$AAC?$AAM?$AA_?$AAC?$AAL?$AAK?$AAS?$AAE?$AAL?$AA1?$AA_?$AAP?$AAL?$AAL?$AA?$AA@|
	DCD	0x20
	DCD	0x48004d40
	DCD	0x0
	DCD	|??_C@_1BO@HMBPDHAP@?$AAC?$AAM?$AA_?$AAC?$AAL?$AAK?$AAS?$AAE?$AAL?$AA2?$AA_?$AAP?$AAL?$AAL?$AA?$AA@|
	DCD	0x20
	DCD	0x48004d44
	DCD	0x0
	DCD	|??_C@_1BO@OHLKHLGA@?$AAC?$AAM?$AA_?$AAC?$AAL?$AAK?$AAS?$AAE?$AAL?$AA3?$AA_?$AAP?$AAL?$AAL?$AA?$AA@|
	DCD	0x20
	DCD	0x48004d48
	DCD	0x0
	DCD	|??_C@_1BO@JDCCJCOP@?$AAC?$AAM?$AA_?$AAC?$AAL?$AAK?$AAS?$AAE?$AAL?$AA4?$AA_?$AAP?$AAL?$AAL?$AA?$AA@|
	DCD	0x20
	DCD	0x48004d4c
	DCD	0x0
	DCD	|??_C@_1BO@IIHNOIA@?$AAC?$AAM?$AA_?$AAC?$AAL?$AAK?$AAS?$AAE?$AAL?$AA5?$AA_?$AAP?$AAL?$AAL?$AA?$AA@|
	DCD	0x20
	DCD	0x48004d50
	DCD	0x0
	DCD	|??_C@_1BO@MLHAGPEI@?$AAC?$AAM?$AA_?$AAC?$AAL?$AAK?$AAO?$AAU?$AAT?$AA_?$AAC?$AAT?$AAR?$AAL?$AA?$AA@|
	DCD	0x20
	DCD	0x48004d70
	DCD	0x0
	DCD	|??_C@_1O@DCDFCCN@?$AAD?$AAS?$AAS?$AA_?$AAC?$AAM?$AA?$AA@|
	DCD	0x0
	DCD	0x0
	DCD	0x0
	DCD	|??_C@_1BM@KMOLEKOF@?$AAC?$AAM?$AA_?$AAF?$AAC?$AAL?$AAK?$AAE?$AAN?$AA_?$AAD?$AAS?$AAS?$AA?$AA@|
	DCD	0x20
	DCD	0x48004e00
	DCD	0x0
	DCD	|??_C@_1BM@HAHBFCKF@?$AAC?$AAM?$AA_?$AAI?$AAC?$AAL?$AAK?$AAE?$AAN?$AA_?$AAD?$AAS?$AAS?$AA?$AA@|
	DCD	0x20
	DCD	0x48004e10
	DCD	0x0
	DCD	|??_C@_1BM@MJOIHANK@?$AAC?$AAM?$AA_?$AAI?$AAD?$AAL?$AAE?$AAS?$AAT?$AA_?$AAD?$AAS?$AAS?$AA?$AA@|
	DCD	0x20
	DCD	0x48004e20
	DCD	0x0
	DCD	|??_C@_1CA@OBFGDJPM@?$AAC?$AAM?$AA_?$AAA?$AAU?$AAT?$AAO?$AAI?$AAD?$AAL?$AAE?$AA_?$AAD?$AAS?$AAS?$AA?$AA@|
	DCD	0x20
	DCD	0x48004e30
	DCD	0x0
	DCD	|??_C@_1BM@DNMPICO@?$AAC?$AAM?$AA_?$AAC?$AAL?$AAK?$AAS?$AAE?$AAL?$AA_?$AAD?$AAS?$AAS?$AA?$AA@|
	DCD	0x20
	DCD	0x48004e40
	DCD	0x0
	DCD	|??_C@_1CA@HHIKKAKJ@?$AAC?$AAM?$AA_?$AAS?$AAL?$AAE?$AAE?$AAP?$AAD?$AAE?$AAP?$AA_?$AAD?$AAS?$AAS?$AA?$AA@|
	DCD	0x20
	DCD	0x48004e44
	DCD	0x0
	DCD	|??_C@_1CC@GJGCLMP@?$AAC?$AAM?$AA_?$AAC?$AAL?$AAK?$AAS?$AAT?$AAC?$AAT?$AAR?$AAL?$AA_?$AAD?$AAS?$AAS?$AA?$AA@|
	DCD	0x20
	DCD	0x48004e48
	DCD	0x0
	DCD	|??_C@_1BO@MBBCBBCE@?$AAC?$AAM?$AA_?$AAC?$AAL?$AAK?$AAS?$AAT?$AAS?$AAT?$AA_?$AAD?$AAS?$AAS?$AA?$AA@|
	DCD	0x20
	DCD	0x48004e4c
	DCD	0x0
	DCD	|??_C@_1O@LPKKDKNF@?$AAC?$AAA?$AAM?$AA_?$AAC?$AAM?$AA?$AA@|
	DCD	0x0
	DCD	0x0
	DCD	0x0
	DCD	|??_C@_1BM@FIPGMAMA@?$AAC?$AAM?$AA_?$AAF?$AAC?$AAL?$AAK?$AAE?$AAN?$AA_?$AAC?$AAA?$AAM?$AA?$AA@|
	DCD	0x20
	DCD	0x48004f00
	DCD	0x0
	DCD	|??_C@_1BM@IEGMNIIA@?$AAC?$AAM?$AA_?$AAI?$AAC?$AAL?$AAK?$AAE?$AAN?$AA_?$AAC?$AAA?$AAM?$AA?$AA@|
	DCD	0x20
	DCD	0x48004f10
	DCD	0x0
	DCD	|??_C@_1BM@DNPFPKPP@?$AAC?$AAM?$AA_?$AAI?$AAD?$AAL?$AAE?$AAS?$AAT?$AA_?$AAC?$AAA?$AAM?$AA?$AA@|
	DCD	0x20
	DCD	0x48004f20
	DCD	0x0
	DCD	|??_C@_1CA@BFELLDNJ@?$AAC?$AAM?$AA_?$AAA?$AAU?$AAT?$AAO?$AAI?$AAD?$AAL?$AAE?$AA_?$AAC?$AAA?$AAM?$AA?$AA@|
	DCD	0x20
	DCD	0x48004f30
	DCD	0x0
	DCD	|??_C@_1BM@PHMBHCAL@?$AAC?$AAM?$AA_?$AAC?$AAL?$AAK?$AAS?$AAE?$AAL?$AA_?$AAC?$AAA?$AAM?$AA?$AA@|
	DCD	0x20
	DCD	0x48004f40
	DCD	0x0
	DCD	|??_C@_1CA@IDJHCKIM@?$AAC?$AAM?$AA_?$AAS?$AAL?$AAE?$AAE?$AAP?$AAD?$AAE?$AAP?$AA_?$AAC?$AAA?$AAM?$AA?$AA@|
	DCD	0x20
	DCD	0x48004f44
	DCD	0x0
	DCD	|??_C@_1CC@PCILKBOK@?$AAC?$AAM?$AA_?$AAC?$AAL?$AAK?$AAS?$AAT?$AAC?$AAT?$AAR?$AAL?$AA_?$AAC?$AAA?$AAM?$AA?$AA@|
	DCD	0x20
	DCD	0x48004f48
	DCD	0x0
	DCD	|??_C@_1BO@DFAPJLAB@?$AAC?$AAM?$AA_?$AAC?$AAL?$AAK?$AAS?$AAT?$AAS?$AAT?$AA_?$AAC?$AAA?$AAM?$AA?$AA@|
	DCD	0x20
	DCD	0x48004f4c
	DCD	0x0
	DCD	|??_C@_1O@HANKMCHI@?$AAP?$AAE?$AAR?$AA_?$AAC?$AAM?$AA?$AA@|
	DCD	0x0
	DCD	0x0
	DCD	0x0
	DCD	|??_C@_1BM@DJCJPDNH@?$AAC?$AAM?$AA_?$AAF?$AAC?$AAL?$AAK?$AAE?$AAN?$AA_?$AAP?$AAE?$AAR?$AA?$AA@|
	DCD	0x20
	DCD	0x48005000
	DCD	0x0
	DCD	|??_C@_1BM@OFLDOLJH@?$AAC?$AAM?$AA_?$AAI?$AAC?$AAL?$AAK?$AAE?$AAN?$AA_?$AAP?$AAE?$AAR?$AA?$AA@|
	DCD	0x20
	DCD	0x48005010
	DCD	0x0
	DCD	|??_C@_1BM@FMCKMJOI@?$AAC?$AAM?$AA_?$AAI?$AAD?$AAL?$AAE?$AAS?$AAT?$AA_?$AAP?$AAE?$AAR?$AA?$AA@|
	DCD	0x20
	DCD	0x48005020
	DCD	0x0
	DCD	|??_C@_1CA@HEJEIAMO@?$AAC?$AAM?$AA_?$AAA?$AAU?$AAT?$AAO?$AAI?$AAD?$AAL?$AAE?$AA_?$AAP?$AAE?$AAR?$AA?$AA@|
	DCD	0x20
	DCD	0x48005030
	DCD	0x0
	DCD	|??_C@_1BM@JGBOEBBM@?$AAC?$AAM?$AA_?$AAC?$AAL?$AAK?$AAS?$AAE?$AAL?$AA_?$AAP?$AAE?$AAR?$AA?$AA@|
	DCD	0x20
	DCD	0x48005040
	DCD	0x0
	DCD	|??_C@_1CA@OCEIBJJL@?$AAC?$AAM?$AA_?$AAS?$AAL?$AAE?$AAE?$AAP?$AAD?$AAE?$AAP?$AA_?$AAP?$AAE?$AAR?$AA?$AA@|
	DCD	0x20
	DCD	0x48005044
	DCD	0x0
	DCD	|??_C@_1CC@JDFEJCPN@?$AAC?$AAM?$AA_?$AAC?$AAL?$AAK?$AAS?$AAT?$AAC?$AAT?$AAR?$AAL?$AA_?$AAP?$AAE?$AAR?$AA?$AA@|
	DCD	0x20
	DCD	0x48005048
	DCD	0x0
	DCD	|??_C@_1BO@FENAKIBG@?$AAC?$AAM?$AA_?$AAC?$AAL?$AAK?$AAS?$AAT?$AAS?$AAT?$AA_?$AAP?$AAE?$AAR?$AA?$AA@|
	DCD	0x20
	DCD	0x4800504c
	DCD	0x0
	DCD	|??_C@_1O@HGBLPNPO@?$AAE?$AAM?$AAU?$AA_?$AAC?$AAM?$AA?$AA@|
	DCD	0x0
	DCD	0x0
	DCD	0x0
	DCD	|??_C@_1BO@NJJHBBAA@?$AAC?$AAM?$AA_?$AAC?$AAL?$AAK?$AAS?$AAE?$AAL?$AA1?$AA_?$AAE?$AAM?$AAU?$AA?$AA@|
	DCD	0x20
	DCD	0x48005140
	DCD	0x0
	DCD	|??_C@_1CC@NGILBHGG@?$AAC?$AAM?$AA_?$AAC?$AAL?$AAK?$AAS?$AAT?$AAC?$AAT?$AAR?$AAL?$AA_?$AAE?$AAM?$AAU?$AA?$AA@|
	DCD	0x20
	DCD	0x48005148
	DCD	0x0
	DCD	|??_C@_1BO@BBAPCNIN@?$AAC?$AAM?$AA_?$AAC?$AAL?$AAK?$AAS?$AAT?$AAS?$AAT?$AA_?$AAE?$AAM?$AAU?$AA?$AA@|
	DCD	0x20
	DCD	0x4800514c
	DCD	0x0
	DCD	|??_C@_1BO@KOAJMDPA@?$AAC?$AAM?$AA_?$AAC?$AAL?$AAK?$AAS?$AAE?$AAL?$AA2?$AA_?$AAE?$AAM?$AAU?$AA?$AA@|
	DCD	0x20
	DCD	0x48005150
	DCD	0x0
	DCD	|??_C@_1BO@DFKMIPJP@?$AAC?$AAM?$AA_?$AAC?$AAL?$AAK?$AAS?$AAE?$AAL?$AA3?$AA_?$AAE?$AAM?$AAU?$AA?$AA@|
	DCD	0x20
	DCD	0x48005154
	DCD	0x0
	DCD	|??_C@_1BM@KLCMOAEB@?$AAG?$AAl?$AAo?$AAb?$AAa?$AAl?$AA_?$AAR?$AAe?$AAg?$AA_?$AAC?$AAM?$AA?$AA@|
	DCD	0x0
	DCD	0x0
	DCD	0x0
	DCD	|??_C@_1BG@JLGAJAMH@?$AAC?$AAM?$AA_?$AAP?$AAO?$AAL?$AAC?$AAT?$AAR?$AAL?$AA?$AA@|
	DCD	0x20
	DCD	0x4800529c
	DCD	0x0
	DCD	|??_C@_1BA@HGJCCLLN@?$AAN?$AAE?$AAO?$AAN?$AA_?$AAC?$AAM?$AA?$AA@|
	DCD	0x0
	DCD	0x0
	DCD	0x0
	DCD	|??_C@_1BO@IJPLNAMK@?$AAC?$AAM?$AA_?$AAI?$AAD?$AAL?$AAE?$AAS?$AAT?$AA_?$AAN?$AAE?$AAO?$AAN?$AA?$AA@|
	DCD	0x20
	DCD	0x48005320
	DCD	0x0
	DCD	|??_C@_1CE@ECPHHBNM@?$AAC?$AAM?$AA_?$AAC?$AAL?$AAK?$AAS?$AAT?$AAC?$AAT?$AAR?$AAL?$AA_?$AAN?$AAE?$AAO?$AAN?$AA?$AA@|
	DCD	0x20
	DCD	0x48005348
	DCD	0x0
	DCD	|??_C@_1BG@GHMGBAHH@?$AAU?$AAS?$AAB?$AAH?$AAO?$AAS?$AAT?$AA_?$AAC?$AAM?$AA?$AA@|
	DCD	0x0
	DCD	0x0
	DCD	0x0
	DCD	|??_C@_1CE@IOEIODMB@?$AAC?$AAM?$AA_?$AAF?$AAC?$AAL?$AAK?$AAE?$AAN?$AA_?$AAU?$AAS?$AAB?$AAH?$AAO?$AAS?$AAT?$AA?$AA@|
	DCD	0x20
	DCD	0x48005400
	DCD	0x0
	DCD	|??_C@_1CE@DBMFEPI@?$AAC?$AAM?$AA_?$AAI?$AAC?$AAL?$AAK?$AAE?$AAN?$AA_?$AAU?$AAS?$AAB?$AAH?$AAO?$AAS?$AAT?$AA?$AA@|
	DCD	0x20
	DCD	0x48005410
	DCD	0x0
	DCD	|??_C@_1CE@JPANCJP@?$AAC?$AAM?$AA_?$AAI?$AAD?$AAL?$AAE?$AAS?$AAT?$AA_?$AAU?$AAS?$AAB?$AAH?$AAO?$AAS?$AAT?$AA?$AA@|
	DCD	0x20
	DCD	0x48005420
	DCD	0x0
	DCD	|??_C@_1CI@DGALJPCE@?$AAC?$AAM?$AA_?$AAA?$AAU?$AAT?$AAO?$AAI?$AAD?$AAL?$AAE?$AA_?$AAU?$AAS?$AAB?$AAH?$AAO?$AAS?$AAT?$AA?$AA@|
	DCD	0x20
	DCD	0x48005430
	DCD	0x0
	DCD	|??_C@_1CI@GKCHFPIN@?$AAC?$AAM?$AA_?$AAS?$AAL?$AAE?$AAE?$AAP?$AAD?$AAE?$AAP?$AA_?$AAU?$AAS?$AAB?$AAH?$AAO?$AAS?$AAT?$AA?$AA@|
	DCD	0x20
	DCD	0x48005444
	DCD	0x0
	DCD	|??_C@_1CK@EGBEEDCG@?$AAC?$AAM?$AA_?$AAC?$AAL?$AAK?$AAS?$AAT?$AAC?$AAT?$AAR?$AAL?$AA_?$AAU?$AAS?$AAB?$AAH?$AAO?$AAS?$AAT?$AA?$AA@|
	DCD	0x20
	DCD	0x48005448
	DCD	0x0
	DCD	|??_C@_1CG@EKKJOCAI@?$AAC?$AAM?$AA_?$AAC?$AAL?$AAK?$AAS?$AAT?$AAS?$AAT?$AA_?$AAU?$AAS?$AAB?$AAH?$AAO?$AAS?$AAT?$AA?$AA@|
	DCD	0x20
	DCD	0x4800544c
	DCD	0x0
	DCD	|??_C@_1BC@FAAHEALM@?$AAI?$AAV?$AAA?$AA2?$AA_?$AAP?$AAR?$AAM?$AA?$AA@|
	DCD	0x0
	DCD	0x0
	DCD	0x0
	DCD	|??_C@_1CA@GBOALOJP@?$AAR?$AAM?$AA_?$AAR?$AAS?$AAT?$AAC?$AAT?$AAR?$AAL?$AA_?$AAI?$AAV?$AAA?$AA2?$AA?$AA@|
	DCD	0x20
	DCD	0x48306050
	DCD	0x0
	DCD	|??_C@_1BM@LKPNMPAP@?$AAR?$AAM?$AA_?$AAR?$AAS?$AAT?$AAS?$AAT?$AA_?$AAI?$AAV?$AAA?$AA2?$AA?$AA@|
	DCD	0x20
	DCD	0x48306058
	DCD	0x0
	DCD	|??_C@_1BM@NLLDLBL@?$AAP?$AAM?$AA_?$AAW?$AAK?$AAD?$AAE?$AAP?$AA_?$AAI?$AAV?$AAA?$AA2?$AA?$AA@|
	DCD	0x20
	DCD	0x483060c8
	DCD	0x0
	DCD	|??_C@_1CC@CPGBPP@?$AAP?$AAM?$AA_?$AAP?$AAW?$AAS?$AAT?$AAC?$AAT?$AAR?$AAL?$AA_?$AAI?$AAV?$AAA?$AA2?$AA?$AA@|
	DCD	0x20
	DCD	0x483060e0
	DCD	0x0
	DCD	|??_C@_1BO@FHNJGKGN@?$AAP?$AAM?$AA_?$AAP?$AAW?$AAS?$AAT?$AAS?$AAT?$AA_?$AAI?$AAV?$AAA?$AA2?$AA?$AA@|
	DCD	0x20
	DCD	0x483060e4
	DCD	0x0
	DCD	|??_C@_1CE@PLIIPJHM@?$AAP?$AAM?$AA_?$AAP?$AAR?$AAE?$AAP?$AAW?$AAS?$AAT?$AAS?$AAT?$AA_?$AAI?$AAV?$AAA?$AA2?$AA?$AA@|
	DCD	0x20
	DCD	0x483060e8
	DCD	0x0
	DCD	|??_C@_1CG@HPLDFNCD@?$AAP?$AAR?$AAM?$AA_?$AAI?$AAR?$AAQ?$AAS?$AAT?$AAA?$AAT?$AAU?$AAS?$AA_?$AAI?$AAV?$AAA?$AA2?$AA?$AA@|
	DCD	0x20
	DCD	0x483060f8
	DCD	0x0
	DCD	|??_C@_1CG@LPCHCII@?$AAP?$AAR?$AAM?$AA_?$AAI?$AAR?$AAQ?$AAE?$AAN?$AAA?$AAB?$AAL?$AAE?$AA_?$AAI?$AAV?$AAA?$AA2?$AA?$AA@|
	DCD	0x20
	DCD	0x483060fc
	DCD	0x0
	DCD	|??_C@_1CG@MLMHCLLI@?$AAO?$AAC?$AAP?$AA_?$AAS?$AAy?$AAs?$AAt?$AAe?$AAm?$AA_?$AAR?$AAe?$AAg?$AA_?$AAP?$AAR?$AAM?$AA?$AA@|
	DCD	0x0
	DCD	0x0
	DCD	0x0
	DCD	|??_C@_1BK@HJNIKPGD@?$AAP?$AAR?$AAM?$AA_?$AAR?$AAE?$AAV?$AAI?$AAS?$AAI?$AAO?$AAN?$AA?$AA@|
	DCD	0x20
	DCD	0x48306804
	DCD	0x0
	DCD	|??_C@_1BM@BIKNBGAP@?$AAP?$AAR?$AAM?$AA_?$AAS?$AAY?$AAS?$AAC?$AAO?$AAN?$AAF?$AAI?$AAG?$AA?$AA@|
	DCD	0x20
	DCD	0x48306814
	DCD	0x0
	DCD	|??_C@_1CE@OGNKOJLH@?$AAP?$AAR?$AAM?$AA_?$AAI?$AAR?$AAQ?$AAS?$AAT?$AAA?$AAT?$AAU?$AAS?$AA_?$AAM?$AAP?$AAU?$AA?$AA@|
	DCD	0x20
	DCD	0x48306818
	DCD	0x0
	DCD	|??_C@_1CE@BEHICOCH@?$AAP?$AAR?$AAM?$AA_?$AAI?$AAR?$AAQ?$AAE?$AAN?$AAA?$AAB?$AAL?$AAE?$AA_?$AAM?$AAP?$AAU?$AA?$AA@|
	DCD	0x20
	DCD	0x4830681c
	DCD	0x0
	DCD	|??_C@_1BA@ICKCOBJH@?$AAM?$AAP?$AAU?$AA_?$AAP?$AAR?$AAM?$AA?$AA@|
	DCD	0x0
	DCD	0x0
	DCD	0x0
	DCD	|??_C@_1BK@JLPNAAKB@?$AAR?$AAM?$AA_?$AAR?$AAS?$AAT?$AAS?$AAT?$AA_?$AAM?$AAP?$AAU?$AA?$AA@|
	DCD	0x20
	DCD	0x48306958
	DCD	0x0
	DCD	|??_C@_1BK@OHJOBLPO@?$AAP?$AAM?$AA_?$AAW?$AAK?$AAD?$AAE?$AAP?$AA_?$AAM?$AAP?$AAU?$AA?$AA@|
	DCD	0x20
	DCD	0x483069c8
	DCD	0x0
	DCD	|??_C@_1CC@MKEFHNLB@?$AAP?$AAM?$AA_?$AAE?$AAV?$AAG?$AAE?$AAN?$AAC?$AAT?$AAR?$AAL?$AA_?$AAM?$AAP?$AAU?$AA?$AA@|
	DCD	0x20
	DCD	0x483069d4
	DCD	0x0
	DCD	|??_C@_1CE@GDJAJDKH@?$AAP?$AAM?$AA_?$AAE?$AAV?$AAG?$AAE?$AAN?$AAO?$AAN?$AAT?$AAI?$AAM?$AA_?$AAM?$AAP?$AAU?$AA?$AA@|
	DCD	0x20
	DCD	0x483069d8
	DCD	0x0
	DCD	|??_C@_1CG@EAPFPBNK@?$AAP?$AAM?$AA_?$AAE?$AAV?$AAG?$AAE?$AAN?$AAO?$AAF?$AAF?$AAT?$AAI?$AAM?$AA_?$AAM?$AAP?$AAU?$AA?$AA@|
	DCD	0x20
	DCD	0x483069dc
	DCD	0x0
	DCD	|??_C@_1CA@GOJLPOGC@?$AAP?$AAM?$AA_?$AAP?$AAW?$AAS?$AAT?$AAC?$AAT?$AAR?$AAL?$AA_?$AAM?$AAP?$AAU?$AA?$AA@|
	DCD	0x20
	DCD	0x483069e0
	DCD	0x0
	DCD	|??_C@_1BM@LELJCJGF@?$AAP?$AAM?$AA_?$AAP?$AAW?$AAS?$AAT?$AAS?$AAT?$AA_?$AAM?$AAP?$AAU?$AA?$AA@|
	DCD	0x20
	DCD	0x483069e4
	DCD	0x0
	DCD	|??_C@_1CC@GGGLCCOF@?$AAP?$AAM?$AA_?$AAP?$AAR?$AAE?$AAP?$AAW?$AAS?$AAT?$AAS?$AAT?$AA_?$AAM?$AAP?$AAU?$AA?$AA@|
	DCD	0x20
	DCD	0x483069e8
	DCD	0x0
	DCD	|??_C@_1BC@DDNPMELP@?$AAC?$AAO?$AAR?$AAE?$AA_?$AAP?$AAR?$AAM?$AA?$AA@|
	DCD	0x0
	DCD	0x0
	DCD	0x0
	DCD	|??_C@_1BM@LNIBJNNG@?$AAR?$AAM?$AA_?$AAR?$AAS?$AAT?$AAS?$AAT?$AA_?$AAC?$AAO?$AAR?$AAE?$AA?$AA@|
	DCD	0x20
	DCD	0x48306a58
	DCD	0x0
	DCD	|??_C@_1BM@KOJMJKMB@?$AAP?$AAM?$AA_?$AAW?$AAK?$AAE?$AAN?$AA1?$AA_?$AAC?$AAO?$AAR?$AAE?$AA?$AA@|
	DCD	0x20
	DCD	0x48306aa0
	DCD	0x0
	DCD	|??_C@_1CG@HJFNCJPA@?$AAP?$AAM?$AA_?$AAM?$AAP?$AAU?$AAG?$AAR?$AAP?$AAS?$AAE?$AAL?$AA1?$AA_?$AAC?$AAO?$AAR?$AAE?$AA?$AA@|
	DCD	0x20
	DCD	0x48306aa4
	DCD	0x0
	DCD	|??_C@_1CI@IHEHCOLP@?$AAP?$AAM?$AA_?$AAI?$AAV?$AAA?$AA2?$AAG?$AAR?$AAP?$AAS?$AAE?$AAL?$AA1?$AA_?$AAC?$AAO?$AAR?$AAE?$AA?$AA@|
	DCD	0x20
	DCD	0x48306aa8
	DCD	0x0
	DCD	|??_C@_1BM@JMNHPOOO@?$AAP?$AAM?$AA_?$AAW?$AAK?$AAS?$AAT?$AA1?$AA_?$AAC?$AAO?$AAR?$AAE?$AA?$AA@|
	DCD	0x20
	DCD	0x48306ab0
	DCD	0x0
	DCD	|??_C@_1BM@HNLJDKED@?$AAP?$AAM?$AA_?$AAW?$AAK?$AAS?$AAT?$AA3?$AA_?$AAC?$AAO?$AAR?$AAE?$AA?$AA@|
	DCD	0x20
	DCD	0x48306ab8
	DCD	0x0
	DCD	|??_C@_1CC@HFDDDCG@?$AAP?$AAM?$AA_?$AAP?$AAW?$AAS?$AAT?$AAC?$AAT?$AAR?$AAL?$AA_?$AAC?$AAO?$AAR?$AAE?$AA?$AA@|
	DCD	0x20
	DCD	0x48306ae0
	DCD	0x0
	DCD	|??_C@_1BO@FAKFDILE@?$AAP?$AAM?$AA_?$AAP?$AAW?$AAS?$AAT?$AAS?$AAT?$AA_?$AAC?$AAO?$AAR?$AAE?$AA?$AA@|
	DCD	0x20
	DCD	0x48306ae4
	DCD	0x0
	DCD	|??_C@_1CE@PMPEKLKF@?$AAP?$AAM?$AA_?$AAP?$AAR?$AAE?$AAP?$AAW?$AAS?$AAT?$AAS?$AAT?$AA_?$AAC?$AAO?$AAR?$AAE?$AA?$AA@|
	DCD	0x20
	DCD	0x48306ae8
	DCD	0x0
	DCD	|??_C@_1BM@EPPCFOGM@?$AAP?$AAM?$AA_?$AAW?$AAK?$AAE?$AAN?$AA3?$AA_?$AAC?$AAO?$AAR?$AAE?$AA?$AA@|
	DCD	0x20
	DCD	0x48306af0
	DCD	0x0
	DCD	|??_C@_1CI@GGCJOKBC@?$AAP?$AAM?$AA_?$AAI?$AAV?$AAA?$AA2?$AAG?$AAR?$AAP?$AAS?$AAE?$AAL?$AA3?$AA_?$AAC?$AAO?$AAR?$AAE?$AA?$AA@|
	DCD	0x20
	DCD	0x48306af4
	DCD	0x0
	DCD	|??_C@_1CG@JIDDONFN@?$AAP?$AAM?$AA_?$AAM?$AAP?$AAU?$AAG?$AAR?$AAP?$AAS?$AAE?$AAL?$AA3?$AA_?$AAC?$AAO?$AAR?$AAE?$AA?$AA@|
	DCD	0x20
	DCD	0x48306af8
	DCD	0x0
	DCD	|??_C@_1BA@NJNHLOOA@?$AAS?$AAG?$AAX?$AA_?$AAP?$AAR?$AAM?$AA?$AA@|
	DCD	0x0
	DCD	0x0
	DCD	0x0
	DCD	|??_C@_1BK@BOHFMJEG@?$AAR?$AAM?$AA_?$AAR?$AAS?$AAT?$AAS?$AAT?$AA_?$AAS?$AAG?$AAX?$AA?$AA@|
	DCD	0x20
	DCD	0x48306b58
	DCD	0x0
	DCD	|??_C@_1BK@GCBGNCBJ@?$AAP?$AAM?$AA_?$AAW?$AAK?$AAD?$AAE?$AAP?$AA_?$AAS?$AAG?$AAX?$AA?$AA@|
	DCD	0x20
	DCD	0x48306bc8
	DCD	0x0
	DCD	|??_C@_1CA@OLBDDHIF@?$AAP?$AAM?$AA_?$AAP?$AAW?$AAS?$AAT?$AAC?$AAT?$AAR?$AAL?$AA_?$AAS?$AAG?$AAX?$AA?$AA@|
	DCD	0x20
	DCD	0x48306be0
	DCD	0x0
	DCD	|??_C@_1BM@DBDBOAIC@?$AAP?$AAM?$AA_?$AAP?$AAW?$AAS?$AAT?$AAS?$AAT?$AA_?$AAS?$AAG?$AAX?$AA?$AA@|
	DCD	0x20
	DCD	0x48306be4
	DCD	0x0
	DCD	|??_C@_1CC@ODODOLAC@?$AAP?$AAM?$AA_?$AAP?$AAR?$AAE?$AAP?$AAW?$AAS?$AAT?$AAS?$AAT?$AA_?$AAS?$AAG?$AAX?$AA?$AA@|
	DCD	0x20
	DCD	0x48306be8
	DCD	0x0
	DCD	|??_C@_1BC@DDJDDDAK@?$AAW?$AAK?$AAU?$AAP?$AA_?$AAP?$AAR?$AAM?$AA?$AA@|
	DCD	0x0
	DCD	0x0
	DCD	0x0
	DCD	|??_C@_1BK@MGPBAGAB@?$AAP?$AAM?$AA_?$AAW?$AAK?$AAE?$AAN?$AA_?$AAW?$AAK?$AAU?$AAP?$AA?$AA@|
	DCD	0x20
	DCD	0x48306ca0
	DCD	0x0
	DCD	|??_C@_1CE@KLFJHCLF@?$AAP?$AAM?$AA_?$AAM?$AAP?$AAU?$AAG?$AAR?$AAP?$AAS?$AAE?$AAL?$AA_?$AAW?$AAK?$AAU?$AAP?$AA?$AA@|
	DCD	0x20
	DCD	0x48306ca4
	DCD	0x0
	DCD	|??_C@_1CG@NGIEHFMC@?$AAP?$AAM?$AA_?$AAI?$AAV?$AAA?$AA2?$AAG?$AAR?$AAP?$AAS?$AAE?$AAL?$AA_?$AAW?$AAK?$AAU?$AAP?$AA?$AA@|
	DCD	0x20
	DCD	0x48306ca8
	DCD	0x0
	DCD	|??_C@_1BK@MHMCLHIM@?$AAP?$AAM?$AA_?$AAW?$AAK?$AAS?$AAT?$AA_?$AAW?$AAK?$AAU?$AAP?$AA?$AA@|
	DCD	0x20
	DCD	0x48306cb0
	DCD	0x0
	DCD	|??_C@_1CM@BOLGGOBJ@?$AAC?$AAl?$AAo?$AAc?$AAk?$AA_?$AAC?$AAo?$AAn?$AAt?$AAr?$AAo?$AAl?$AA_?$AAR?$AAe?$AAg?$AA_?$AAP?$AAR?$AAM?$AA?$AA@|
	DCD	0x0
	DCD	0x0
	DCD	0x0
	DCD	|??_C@_1BG@BPBPBGIA@?$AAP?$AAR?$AAM?$AA_?$AAC?$AAL?$AAK?$AAS?$AAE?$AAL?$AA?$AA@|
	DCD	0x20
	DCD	0x48306d40
	DCD	0x0
	DCD	|??_C@_1CA@PGMOAOBH@?$AAP?$AAR?$AAM?$AA_?$AAC?$AAL?$AAK?$AAO?$AAU?$AAT?$AA_?$AAC?$AAT?$AAR?$AAL?$AA?$AA@|
	DCD	0x20
	DCD	0x48306d70
	DCD	0x0
	DCD	|??_C@_1BA@MMIFGPHC@?$AAD?$AAS?$AAS?$AA_?$AAP?$AAR?$AAM?$AA?$AA@|
	DCD	0x0
	DCD	0x0
	DCD	0x0
	DCD	|??_C@_1BK@CHENDGPI@?$AAR?$AAM?$AA_?$AAR?$AAS?$AAT?$AAS?$AAT?$AA_?$AAD?$AAS?$AAS?$AA?$AA@|
	DCD	0x20
	DCD	0x48306e58
	DCD	0x0
	DCD	|??_C@_1BI@DPCLPEKM@?$AAP?$AAM?$AA_?$AAW?$AAK?$AAE?$AAN?$AA_?$AAD?$AAS?$AAS?$AA?$AA@|
	DCD	0x20
	DCD	0x48306ea0
	DCD	0x0
	DCD	|??_C@_1BK@FLCOCNKH@?$AAP?$AAM?$AA_?$AAW?$AAK?$AAD?$AAE?$AAP?$AA_?$AAD?$AAS?$AAS?$AA?$AA@|
	DCD	0x20
	DCD	0x48306ec8
	DCD	0x0
	DCD	|??_C@_1CA@NCCLMIDL@?$AAP?$AAM?$AA_?$AAP?$AAW?$AAS?$AAT?$AAC?$AAT?$AAR?$AAL?$AA_?$AAD?$AAS?$AAS?$AA?$AA@|
	DCD	0x20
	DCD	0x48306ee0
	DCD	0x0
	DCD	|??_C@_1BM@IAJBPDM@?$AAP?$AAM?$AA_?$AAP?$AAW?$AAS?$AAT?$AAS?$AAT?$AA_?$AAD?$AAS?$AAS?$AA?$AA@|
	DCD	0x20
	DCD	0x48306ee4
	DCD	0x0
	DCD	|??_C@_1CC@NKNLBELM@?$AAP?$AAM?$AA_?$AAP?$AAR?$AAE?$AAP?$AAW?$AAS?$AAT?$AAS?$AAT?$AA_?$AAD?$AAS?$AAS?$AA?$AA@|
	DCD	0x20
	DCD	0x48306ee8
	DCD	0x0
	DCD	|??_C@_1BA@FDIJFBCE@?$AAC?$AAA?$AAM?$AA_?$AAP?$AAR?$AAM?$AA?$AA@|
	DCD	0x0
	DCD	0x0
	DCD	0x0
	DCD	|??_C@_1BK@NDFALMNN@?$AAR?$AAM?$AA_?$AAR?$AAS?$AAT?$AAS?$AAT?$AA_?$AAC?$AAA?$AAM?$AA?$AA@|
	DCD	0x20
	DCD	0x48306f58
	DCD	0x0
	DCD	|??_C@_1BK@KPDDKHIC@?$AAP?$AAM?$AA_?$AAW?$AAK?$AAD?$AAE?$AAP?$AA_?$AAC?$AAA?$AAM?$AA?$AA@|
	DCD	0x20
	DCD	0x48306fc8
	DCD	0x0
	DCD	|??_C@_1CA@CGDGECBO@?$AAP?$AAM?$AA_?$AAP?$AAW?$AAS?$AAT?$AAC?$AAT?$AAR?$AAL?$AA_?$AAC?$AAA?$AAM?$AA?$AA@|
	DCD	0x20
	DCD	0x48306fe0
	DCD	0x0
	DCD	|??_C@_1BM@PMBEJFBJ@?$AAP?$AAM?$AA_?$AAP?$AAW?$AAS?$AAT?$AAS?$AAT?$AA_?$AAC?$AAA?$AAM?$AA?$AA@|
	DCD	0x20
	DCD	0x48306fe4
	DCD	0x0
	DCD	|??_C@_1CC@COMGJOJJ@?$AAP?$AAM?$AA_?$AAP?$AAR?$AAE?$AAP?$AAW?$AAS?$AAT?$AAS?$AAT?$AA_?$AAC?$AAA?$AAM?$AA?$AA@|
	DCD	0x20
	DCD	0x48306fe8
	DCD	0x0
	DCD	|??_C@_1BA@PLEGCGNO@?$AAP?$AAE?$AAR?$AA_?$AAP?$AAR?$AAM?$AA?$AA@|
	DCD	0x0
	DCD	0x0
	DCD	0x0
	DCD	|??_C@_1BK@LCIPIPMK@?$AAR?$AAM?$AA_?$AAR?$AAS?$AAT?$AAS?$AAT?$AA_?$AAP?$AAE?$AAR?$AA?$AA@|
	DCD	0x20
	DCD	0x48307058
	DCD	0x0
	DCD	|??_C@_1BI@KKOJENJO@?$AAP?$AAM?$AA_?$AAW?$AAK?$AAE?$AAN?$AA_?$AAP?$AAE?$AAR?$AA?$AA@|
	DCD	0x20
	DCD	0x483070a0
	DCD	0x0
	DCD	|??_C@_1CC@FABFMEFM@?$AAP?$AAM?$AA_?$AAM?$AAP?$AAU?$AAG?$AAR?$AAP?$AAS?$AAE?$AAL?$AA_?$AAP?$AAE?$AAR?$AA?$AA@|
	DCD	0x20
	DCD	0x483070a4
	DCD	0x0
	DCD	|??_C@_1CE@KJGLJLDH@?$AAP?$AAM?$AA_?$AAI?$AAV?$AAA?$AA2?$AAG?$AAR?$AAP?$AAS?$AAE?$AAL?$AA_?$AAP?$AAE?$AAR?$AA?$AA@|
	DCD	0x20
	DCD	0x483070a8
	DCD	0x0
	DCD	|??_C@_1BI@NCLGDPNJ@?$AAP?$AAM?$AA_?$AAW?$AAK?$AAS?$AAT?$AA_?$AAP?$AAE?$AAR?$AA?$AA@|
	DCD	0x20
	DCD	0x483070b0
	DCD	0x0
	DCD	|??_C@_1BK@MOOMJEJF@?$AAP?$AAM?$AA_?$AAW?$AAK?$AAD?$AAE?$AAP?$AA_?$AAP?$AAE?$AAR?$AA?$AA@|
	DCD	0x20
	DCD	0x483070c8
	DCD	0x0
	DCD	|??_C@_1CA@EHOJHBAJ@?$AAP?$AAM?$AA_?$AAP?$AAW?$AAS?$AAT?$AAC?$AAT?$AAR?$AAL?$AA_?$AAP?$AAE?$AAR?$AA?$AA@|
	DCD	0x20
	DCD	0x483070e0
	DCD	0x0
	DCD	|??_C@_1BM@JNMLKGAO@?$AAP?$AAM?$AA_?$AAP?$AAW?$AAS?$AAT?$AAS?$AAT?$AA_?$AAP?$AAE?$AAR?$AA?$AA@|
	DCD	0x20
	DCD	0x483070e4
	DCD	0x0
	DCD	|??_C@_1CC@EPBJKNIO@?$AAP?$AAM?$AA_?$AAP?$AAR?$AAE?$AAP?$AAW?$AAS?$AAT?$AAS?$AAT?$AA_?$AAP?$AAE?$AAR?$AA?$AA@|
	DCD	0x20
	DCD	0x483070e8
	DCD	0x0
	DCD	|??_C@_1BA@CAPJDCOP@?$AAE?$AAM?$AAU?$AA_?$AAP?$AAR?$AAM?$AA?$AA@|
	DCD	0x0
	DCD	0x0
	DCD	0x0
	DCD	|??_C@_1BK@PHFAAKFB@?$AAR?$AAM?$AA_?$AAR?$AAS?$AAT?$AAS?$AAT?$AA_?$AAE?$AAM?$AAU?$AA?$AA@|
	DCD	0x20
	DCD	0x48307158
	DCD	0x0
	DCD	|??_C@_1BM@NIBECDJF@?$AAP?$AAM?$AA_?$AAP?$AAW?$AAS?$AAT?$AAS?$AAT?$AA_?$AAE?$AAM?$AAU?$AA?$AA@|
	DCD	0x20
	DCD	0x483071e4
	DCD	0x0
	DCD	|??_C@_1BO@CAKCDBHG@?$AAG?$AAl?$AAo?$AAb?$AAa?$AAl?$AA_?$AAR?$AAe?$AAg?$AA_?$AAP?$AAR?$AAM?$AA?$AA@|
	DCD	0x0
	DCD	0x0
	DCD	0x0
	DCD	|??_C@_1BO@LBDDPNOG@?$AAP?$AAR?$AAM?$AA_?$AAV?$AAC?$AA_?$AAS?$AAM?$AAP?$AAS?$AA_?$AAS?$AAA?$AA?$AA@|
	DCD	0x20
	DCD	0x48307220
	DCD	0x0
	DCD	|??_C@_1CG@OIKDAOML@?$AAP?$AAR?$AAM?$AA_?$AAV?$AAC?$AA_?$AAS?$AAM?$AAP?$AAS?$AA_?$AAV?$AAO?$AAL?$AA_?$AAR?$AAA?$AA?$AA@|
	DCD	0x20
	DCD	0x48307224
	DCD	0x0
	DCD	|??_C@_1CG@PFFOICKB@?$AAP?$AAR?$AAM?$AA_?$AAV?$AAC?$AA_?$AAS?$AAM?$AAP?$AAS?$AA_?$AAC?$AAM?$AAD?$AA_?$AAR?$AAA?$AA?$AA@|
	DCD	0x20
	DCD	0x48307228
	DCD	0x0
	DCD	|??_C@_1CC@NGCEGMEK@?$AAP?$AAR?$AAM?$AA_?$AAV?$AAC?$AA_?$AAC?$AAM?$AAD?$AA_?$AAV?$AAA?$AAL?$AA_?$AA0?$AA?$AA@|
	DCD	0x20
	DCD	0x4830722c
	DCD	0x0
	DCD	|??_C@_1CC@GOJIALCP@?$AAP?$AAR?$AAM?$AA_?$AAV?$AAC?$AA_?$AAC?$AAM?$AAD?$AA_?$AAV?$AAA?$AAL?$AA_?$AA1?$AA?$AA@|
	DCD	0x20
	DCD	0x48307230
	DCD	0x0
	DCD	|??_C@_1BO@NIKJKLFL@?$AAP?$AAR?$AAM?$AA_?$AAV?$AAC?$AA_?$AAC?$AAH?$AA_?$AAC?$AAO?$AAN?$AAF?$AA?$AA@|
	DCD	0x20
	DCD	0x48307234
	DCD	0x0
	DCD	|??_C@_1BO@CDICEJPF@?$AAP?$AAR?$AAM?$AA_?$AAV?$AAC?$AA_?$AAI?$AA2?$AAC?$AA_?$AAC?$AAF?$AAG?$AA?$AA@|
	DCD	0x20
	DCD	0x48307238
	DCD	0x0
	DCD	|??_C@_1CE@LCNFDOGA@?$AAP?$AAR?$AAM?$AA_?$AAV?$AAC?$AA_?$AAB?$AAY?$AAP?$AAA?$AAS?$AAS?$AA_?$AAV?$AAA?$AAL?$AA?$AA@|
	DCD	0x20
	DCD	0x4830723c
	DCD	0x0
	DCD	|??_C@_1BI@LGBDFDCO@?$AAP?$AAR?$AAM?$AA_?$AAR?$AAS?$AAT?$AAC?$AAT?$AAR?$AAL?$AA?$AA@|
	DCD	0x20
	DCD	0x48307250
	DCD	0x0
	DCD	|??_C@_1BI@BLFHBCIB@?$AAP?$AAR?$AAM?$AA_?$AAR?$AAS?$AAT?$AAT?$AAI?$AAM?$AAE?$AA?$AA@|
	DCD	0x20
	DCD	0x48307254
	DCD	0x0
	DCD	|??_C@_1BE@HPDPAFDK@?$AAP?$AAR?$AAM?$AA_?$AAR?$AAS?$AAT?$AAS?$AAT?$AA?$AA@|
	DCD	0x20
	DCD	0x48307258
	DCD	0x0
	DCD	|??_C@_1BK@HFKALEHA@?$AAP?$AAR?$AAM?$AA_?$AAV?$AAO?$AAL?$AAT?$AAC?$AAT?$AAR?$AAL?$AA?$AA@|
	DCD	0x20
	DCD	0x48307260
	DCD	0x0
	DCD	|??_C@_1CC@PEAEBONP@?$AAP?$AAR?$AAM?$AA_?$AAS?$AAR?$AAA?$AAM?$AA_?$AAP?$AAC?$AAH?$AAA?$AAR?$AAG?$AAE?$AA?$AA@|
	DCD	0x20
	DCD	0x48307264
	DCD	0x0
	DCD	|??_C@_1CA@DKBCEFNM@?$AAP?$AAR?$AAM?$AA_?$AAC?$AAL?$AAK?$AAS?$AAR?$AAC?$AA_?$AAC?$AAT?$AAR?$AAL?$AA?$AA@|
	DCD	0x20
	DCD	0x48307270
	DCD	0x0
	DCD	|??_C@_1BA@JADOMDEP@?$AAP?$AAR?$AAM?$AA_?$AAO?$AAB?$AAS?$AA?$AA@|
	DCD	0x20
	DCD	0x48307280
	DCD	0x0
	DCD	|??_C@_1BO@PMPMJPIB@?$AAP?$AAR?$AAM?$AA_?$AAV?$AAO?$AAL?$AAT?$AAS?$AAE?$AAT?$AAU?$AAP?$AA1?$AA?$AA@|
	DCD	0x20
	DCD	0x48307290
	DCD	0x0
	DCD	|??_C@_1BO@HNPCCMHL@?$AAP?$AAR?$AAM?$AA_?$AAV?$AAO?$AAL?$AAT?$AAO?$AAF?$AAF?$AAS?$AAE?$AAT?$AA?$AA@|
	DCD	0x20
	DCD	0x48307294
	DCD	0x0
	DCD	|??_C@_1BK@INLANGOK@?$AAP?$AAR?$AAM?$AA_?$AAC?$AAL?$AAK?$AAS?$AAE?$AAT?$AAU?$AAP?$AA?$AA@|
	DCD	0x20
	DCD	0x48307298
	DCD	0x0
	DCD	|??_C@_1BI@HHOAEAAO@?$AAP?$AAR?$AAM?$AA_?$AAP?$AAO?$AAL?$AAC?$AAT?$AAR?$AAL?$AA?$AA@|
	DCD	0x20
	DCD	0x4830729c
	DCD	0x0
	DCD	|??_C@_1BO@OOEJDAGP@?$AAP?$AAR?$AAM?$AA_?$AAV?$AAO?$AAL?$AAT?$AAS?$AAE?$AAT?$AAU?$AAP?$AA2?$AA?$AA@|
	DCD	0x20
	DCD	0x483072a0
	DCD	0x0
	DCD	|??_C@_1BC@JEBNFJEB@?$AAN?$AAE?$AAO?$AAN?$AA_?$AAP?$AAR?$AAM?$AA?$AA@|
	DCD	0x0
	DCD	0x0
	DCD	0x0
	DCD	|??_C@_1BM@LBPGJMOK@?$AAR?$AAM?$AA_?$AAR?$AAS?$AAT?$AAS?$AAT?$AA_?$AAN?$AAE?$AAO?$AAN?$AA?$AA@|
	DCD	0x20
	DCD	0x48307358
	DCD	0x0
	DCD	|??_C@_1BM@GLAGIPO@?$AAP?$AAM?$AA_?$AAW?$AAK?$AAD?$AAE?$AAP?$AA_?$AAN?$AAE?$AAO?$AAN?$AA?$AA@|
	DCD	0x20
	DCD	0x483073c8
	DCD	0x0
	DCD	|??_C@_1CC@LCEDCBK@?$AAP?$AAM?$AA_?$AAP?$AAW?$AAS?$AAT?$AAC?$AAT?$AAR?$AAL?$AA_?$AAN?$AAE?$AAO?$AAN?$AA?$AA@|
	DCD	0x20
	DCD	0x483073e0
	DCD	0x0
	DCD	|??_C@_1BO@FMNCDJII@?$AAP?$AAM?$AA_?$AAP?$AAW?$AAS?$AAT?$AAS?$AAT?$AA_?$AAN?$AAE?$AAO?$AAN?$AA?$AA@|
	DCD	0x20
	DCD	0x483073e4
	DCD	0x0
	DCD	|??_C@_1CE@PAIDKKJJ@?$AAP?$AAM?$AA_?$AAP?$AAR?$AAE?$AAP?$AAW?$AAS?$AAT?$AAS?$AAT?$AA_?$AAN?$AAE?$AAO?$AAN?$AA?$AA@|
	DCD	0x20
	DCD	0x483073e8
	DCD	0x0
	DCD	|??_C@_1BI@BEADJOPF@?$AAU?$AAS?$AAB?$AAH?$AAO?$AAS?$AAT?$AA_?$AAP?$AAR?$AAM?$AA?$AA@|
	DCD	0x0
	DCD	0x0
	DCD	0x0
	DCD	|??_C@_1CC@ELENAOBE@?$AAR?$AAM?$AA_?$AAR?$AAS?$AAT?$AAS?$AAT?$AA_?$AAU?$AAS?$AAB?$AAH?$AAO?$AAS?$AAT?$AA?$AA@|
	DCD	0x20
	DCD	0x48307458
	DCD	0x0
	DCD	|??_C@_1CA@EPJOENIO@?$AAP?$AAM?$AA_?$AAW?$AAK?$AAE?$AAN?$AA_?$AAU?$AAS?$AAB?$AAH?$AAO?$AAS?$AAT?$AA?$AA@|
	DCD	0x20
	DCD	0x483074a0
	DCD	0x0
	DCD	|??_C@_1CK@KEHDDHL@?$AAP?$AAM?$AA_?$AAM?$AAP?$AAU?$AAG?$AAR?$AAP?$AAS?$AAE?$AAL?$AA_?$AAU?$AAS?$AAB?$AAH?$AAO?$AAS?$AAT?$AA?$AA@|
	DCD	0x20
	DCD	0x483074a4
	DCD	0x0
	DCD	|??_C@_1CM@CGFHEIFF@?$AAP?$AAM?$AA_?$AAI?$AAV?$AAA?$AA2?$AAG?$AAR?$AAP?$AAS?$AAE?$AAL?$AA_?$AAU?$AAS?$AAB?$AAH?$AAO?$AAS?$AAT?$AA?$AA@|
	DCD	0x20
	DCD	0x483074a8
	DCD	0x0
	DCD	|??_C@_1CA@CDELFGFE@?$AAP?$AAM?$AA_?$AAW?$AAK?$AAS?$AAT?$AA_?$AAU?$AAS?$AAB?$AAH?$AAO?$AAS?$AAT?$AA?$AA@|
	DCD	0x20
	DCD	0x483074b0
	DCD	0x0
	DCD	|??_C@_1CC@BANAFHHA@?$AAP?$AAM?$AA_?$AAW?$AAK?$AAD?$AAE?$AAP?$AA_?$AAU?$AAS?$AAB?$AAH?$AAO?$AAS?$AAT?$AA?$AA@|
	DCD	0x20
	DCD	0x483074c8
	DCD	0x0
	DCD	|??_C@_1CI@NFFMDMCO@?$AAP?$AAM?$AA_?$AAP?$AAW?$AAS?$AAT?$AAC?$AAT?$AAR?$AAL?$AA_?$AAU?$AAS?$AAB?$AAH?$AAO?$AAS?$AAT?$AA?$AA@|
	DCD	0x20
	DCD	0x483074e0
	DCD	0x0
	DCD	|??_C@_1CE@DINMMLDJ@?$AAP?$AAM?$AA_?$AAP?$AAW?$AAS?$AAT?$AAS?$AAT?$AA_?$AAU?$AAS?$AAB?$AAH?$AAO?$AAS?$AAT?$AA?$AA@|
	DCD	0x20
	DCD	0x483074e4
	DCD	0x0
	DCD	|??_C@_1CK@MFCDILAE@?$AAP?$AAM?$AA_?$AAP?$AAR?$AAE?$AAP?$AAW?$AAS?$AAT?$AAS?$AAT?$AA_?$AAU?$AAS?$AAB?$AAH?$AAO?$AAS?$AAT?$AA?$AA@|
	DCD	0x20
	DCD	0x483074e8
	DCD	0x0
	DCD	0x0
	DCD	0x0
	DCD	0x0
	DCD	0x0

  00000			 AREA	 |.rdata|, DATA, READONLY
|EdbgVendorIds| DCW 0x0
	DCW	0x0
	DCD	0x4033
	DCB	0x1
	DCB	"AD", 0x0
	DCW	0x1050
	DCW	0x940
	DCD	0x4005
	DCB	0x1
	DCB	"LS", 0x0
	DCW	0x1050
	DCW	0x940
	DCD	0x2078
	DCB	0x1
	DCB	"LS", 0x0
	DCW	0x10ec
	DCW	0x8029
	DCD	0xc0f0
	DCB	0x1
	DCB	"KS", 0x0
	DCW	0x10ec
	DCW	0x8129
	DCD	0x0
	DCB	0x4
	DCB	"RT", 0x0
	DCW	0x10ec
	DCW	0x8139
	DCD	0x900b
	DCB	0x4
	DCB	"RT", 0x0
	DCW	0x10ec
	DCW	0x8139
	DCD	0xd0c9
	DCB	0x4
	DCB	"RT", 0x0
	DCW	0x10ec
	DCW	0x8139
	DCD	0xe04c
	DCB	0x4
	DCB	"RT", 0x0
	DCW	0x1186
	DCW	0x1300
	DCD	0x50ba
	DCB	0x4
	DCB	"DL", 0x0
	DCW	0x100b
	DCW	0x20
	DCD	0xa0cc
	DCB	0x5
	DCB	"NG", 0x0
	DCW	0x10b7
	DCW	0x9050
	DCD	0x6008
	DCB	0x6
	DCB	"3C", 0x0
	DCW	0x10b7
	DCW	0x9200
	DCD	0x476
	DCB	0x6
	DCB	"3C", 0x0
	EXPORT	|_ClockHwUpdateDpllFrequency|
	IMPORT	|OutShadowReg32|
	IMPORT	|g_pSdrcRestore|
	IMPORT	|fnOALUpdateCoreFreq|
	IMPORT	|OmapProfilerMark|
	IMPORT	|g_pCPUInfo|
	IMPORT	|g_pSDRCRegs|
	IMPORT	|INTERRUPTS_ENABLE|
	IMPORT	|g_dwCpuFamily|
	IMPORT	|g_pPrcmRestore|
	IMPORT	|g_pPrcmCm|

  00000			 AREA	 |.pdata|, PDATA
|$T49260| DCD	|$LN25@ClockHwUpd|
	DCD	0x40021504
; Function compile flags: /Odtp
; File c:\wince600\platform\common\src\soc\common_ti_v1\omap3530\oal\prcm\prcm_clock.c

  00000			 AREA	 |.text|, CODE, ARM

  00000		 |_ClockHwUpdateDpllFrequency| PROC

; 1164 : {

  00000		 |$LN25@ClockHwUpd|
  00000	e1a0c00d	 mov         r12, sp
  00004	e92d0001	 stmdb       sp!, {r0}
  00008	e92d5000	 stmdb       sp!, {r12, lr}
  0000c	e24dd020	 sub         sp, sp, #0x20
  00010		 |$M49257|

; 1165 :     BOOL bEnable;
; 1166 :     UINT cm_clken_pll;
; 1167 :     UINT cm_clksel_pll;
; 1168 :     UINT outputDivisor;
; 1169 :     UINT sdrcRfrCtrl0, sdrcRfrCtrl1;
; 1170 :     
; 1171 :     switch (dpllId)

  00010	e59d3028	 ldr         r3, [sp, #0x28]
  00014	e58d3018	 str         r3, [sp, #0x18]
  00018	e59d3018	 ldr         r3, [sp, #0x18]
  0001c	e3530004	 cmp         r3, #4
  00020	8a0001fb	 bhi         |$LN12@ClockHwUpd|
  00024	e59d2018	 ldr         r2, [sp, #0x18]
  00028	e1a03102	 mov         r3, r2, lsl #2
  0002c	e083300f	 add         r3, r3, pc
  00030	e5933004	 ldr         r3, [r3, #4]
  00034	e08ff003	 add         pc, pc, r3
  00038		 |$LN17@ClockHwUpd|
  00038		 |$LN16@ClockHwUpd|
  00038		 |$LN18@ClockHwUpd|
  00038	00000010	 DCD         0x10
  0003c		 |$LN19@ClockHwUpd|
  0003c	00000178	 DCD         0x178
  00040		 |$LN20@ClockHwUpd|
  00040	000002a4	 DCD         0x2a4
  00044		 |$LN21@ClockHwUpd|
  00044	000005d0	 DCD         0x5d0
  00048		 |$LN22@ClockHwUpd|
  00048	000006ec	 DCD         0x6ec
  0004c		 |$LN11@ClockHwUpd|

; 1172 :         {
; 1173 :         case kDPLL1:
; 1174 :             cm_clken_pll = INREG32(&g_pPrcmCm->pOMAP_MPU_CM->CM_CLKEN_PLL_MPU);

  0004c	e59f37cc	 ldr         r3, [pc, #0x7CC]
  00050	e5933000	 ldr         r3, [r3]
  00054	e2833014	 add         r3, r3, #0x14
  00058	e5933000	 ldr         r3, [r3]
  0005c	e2833004	 add         r3, r3, #4
  00060	e5933000	 ldr         r3, [r3]
  00064	e58d3008	 str         r3, [sp, #8]

; 1175 :             cm_clksel_pll = INREG32(&g_pPrcmCm->pOMAP_MPU_CM->CM_CLKSEL1_PLL_MPU);

  00068	e59f37b0	 ldr         r3, [pc, #0x7B0]
  0006c	e5933000	 ldr         r3, [r3]
  00070	e2833014	 add         r3, r3, #0x14
  00074	e5933000	 ldr         r3, [r3]
  00078	e2833040	 add         r3, r3, #0x40
  0007c	e5933000	 ldr         r3, [r3]
  00080	e58d3014	 str         r3, [sp, #0x14]

; 1176 : 
; 1177 :             // update frequency selection and frequency
; 1178 :             cm_clken_pll &= ~DPLL_FREQSEL_MASK;

  00084	e59d2008	 ldr         r2, [sp, #8]
  00088	e3e030f0	 mvn         r3, #0xF0
  0008c	e0023003	 and         r3, r2, r3
  00090	e58d3008	 str         r3, [sp, #8]

; 1179 :             cm_clken_pll |= DPLL_FREQSEL(_dpll_1.freqSelection); 

  00094	e59f37b4	 ldr         r3, [pc, #0x7B4]
  00098	e5933008	 ldr         r3, [r3, #8]
  0009c	e203300f	 and         r3, r3, #0xF
  000a0	e1a02203	 mov         r2, r3, lsl #4
  000a4	e59d3008	 ldr         r3, [sp, #8]
  000a8	e1833002	 orr         r3, r3, r2
  000ac	e58d3008	 str         r3, [sp, #8]

; 1180 :             cm_clksel_pll &= ~(DPLL_CLK_SRC_MASK | DPLL_MULT_MASK | DPLL_DIV_MASK);

  000b0	e59d2014	 ldr         r2, [sp, #0x14]
  000b4	e3a034ff	 mov         r3, #0xFF, 8
  000b8	e3833080	 orr         r3, r3, #0x80
  000bc	e0023003	 and         r3, r2, r3
  000c0	e58d3014	 str         r3, [sp, #0x14]

; 1181 :             cm_clksel_pll |= DPLL_CLK_SRC(_dpll_1.sourceDivisor);

  000c4	e59f3784	 ldr         r3, [pc, #0x784]
  000c8	e5933014	 ldr         r3, [r3, #0x14]
  000cc	e203301f	 and         r3, r3, #0x1F
  000d0	e1a02983	 mov         r2, r3, lsl #19
  000d4	e59d3014	 ldr         r3, [sp, #0x14]
  000d8	e1833002	 orr         r3, r3, r2
  000dc	e58d3014	 str         r3, [sp, #0x14]

; 1182 :             cm_clksel_pll |= DPLL_MULT(_dpll_1.multiplier) | DPLL_DIV(_dpll_1.divisor);

  000e0	e59f3768	 ldr         r3, [pc, #0x768]
  000e4	e5932018	 ldr         r2, [r3, #0x18]
  000e8	e3a03c07	 mov         r3, #7, 24
  000ec	e38330ff	 orr         r3, r3, #0xFF
  000f0	e0023003	 and         r3, r2, r3
  000f4	e1a02403	 mov         r2, r3, lsl #8
  000f8	e59f3750	 ldr         r3, [pc, #0x750]
  000fc	e593301c	 ldr         r3, [r3, #0x1C]
  00100	e203307f	 and         r3, r3, #0x7F
  00104	e1822003	 orr         r2, r2, r3
  00108	e59d3014	 ldr         r3, [sp, #0x14]
  0010c	e1833002	 orr         r3, r3, r2
  00110	e58d3014	 str         r3, [sp, #0x14]

; 1183 :             outputDivisor = _dpll_1.outputDivisor << DPLL_MPU_CLKOUT_DIV_SHIFT;

  00114	e59f3734	 ldr         r3, [pc, #0x734]
  00118	e5933024	 ldr         r3, [r3, #0x24]
  0011c	e58d3000	 str         r3, [sp]

; 1184 : 
; 1185 :             OUTREG32(&g_pPrcmCm->pOMAP_MPU_CM->CM_CLKEN_PLL_MPU, cm_clken_pll);            

  00120	e59f36f8	 ldr         r3, [pc, #0x6F8]
  00124	e5933000	 ldr         r3, [r3]
  00128	e2833014	 add         r3, r3, #0x14
  0012c	e5933000	 ldr         r3, [r3]
  00130	e2832004	 add         r2, r3, #4
  00134	e59d3008	 ldr         r3, [sp, #8]
  00138	e5823000	 str         r3, [r2]

; 1186 :             OUTREG32(&g_pPrcmCm->pOMAP_MPU_CM->CM_CLKSEL1_PLL_MPU, cm_clksel_pll);

  0013c	e59f36dc	 ldr         r3, [pc, #0x6DC]
  00140	e5933000	 ldr         r3, [r3]
  00144	e2833014	 add         r3, r3, #0x14
  00148	e5933000	 ldr         r3, [r3]
  0014c	e2832040	 add         r2, r3, #0x40
  00150	e59d3014	 ldr         r3, [sp, #0x14]
  00154	e5823000	 str         r3, [r2]

; 1187 :             OUTREG32(&g_pPrcmCm->pOMAP_MPU_CM->CM_CLKSEL2_PLL_MPU, outputDivisor);

  00158	e59f36c0	 ldr         r3, [pc, #0x6C0]
  0015c	e5933000	 ldr         r3, [r3]
  00160	e2833014	 add         r3, r3, #0x14
  00164	e5933000	 ldr         r3, [r3]
  00168	e2832044	 add         r2, r3, #0x44
  0016c	e59d3000	 ldr         r3, [sp]
  00170	e5823000	 str         r3, [r2]

; 1188 : 
; 1189 :             OUTREG32(&g_pPrcmRestore->CM_CLKEN_PLL_MPU, cm_clken_pll);

  00174	e59f36b0	 ldr         r3, [pc, #0x6B0]
  00178	e5933000	 ldr         r3, [r3]
  0017c	e2832024	 add         r2, r3, #0x24
  00180	e59d3008	 ldr         r3, [sp, #8]
  00184	e5823000	 str         r3, [r2]

; 1190 :             OUTREG32(&g_pPrcmRestore->CM_CLKSEL1_PLL_MPU, cm_clksel_pll);

  00188	e59f369c	 ldr         r3, [pc, #0x69C]
  0018c	e5933000	 ldr         r3, [r3]
  00190	e283202c	 add         r2, r3, #0x2C
  00194	e59d3014	 ldr         r3, [sp, #0x14]
  00198	e5823000	 str         r3, [r2]

; 1191 :             OUTREG32(&g_pPrcmRestore->CM_CLKSEL2_PLL_MPU, outputDivisor);

  0019c	e59f3688	 ldr         r3, [pc, #0x688]
  001a0	e5933000	 ldr         r3, [r3]
  001a4	e2832030	 add         r2, r3, #0x30
  001a8	e59d3000	 ldr         r3, [sp]
  001ac	e5823000	 str         r3, [r2]

; 1192 :             break;

  001b0	ea000197	 b           |$LN12@ClockHwUpd|
  001b4		 |$LN10@ClockHwUpd|

; 1193 : 
; 1194 :         case kDPLL2:
; 1195 :             cm_clken_pll = INREG32(&g_pPrcmCm->pOMAP_IVA2_CM->CM_CLKEN_PLL_IVA2);

  001b4	e59f3664	 ldr         r3, [pc, #0x664]
  001b8	e5933000	 ldr         r3, [r3]
  001bc	e2833020	 add         r3, r3, #0x20
  001c0	e5933000	 ldr         r3, [r3]
  001c4	e2833004	 add         r3, r3, #4
  001c8	e5933000	 ldr         r3, [r3]
  001cc	e58d3008	 str         r3, [sp, #8]

; 1196 :             cm_clksel_pll = INREG32(&g_pPrcmCm->pOMAP_IVA2_CM->CM_CLKSEL1_PLL_IVA2);

  001d0	e59f3648	 ldr         r3, [pc, #0x648]
  001d4	e5933000	 ldr         r3, [r3]
  001d8	e2833020	 add         r3, r3, #0x20
  001dc	e5933000	 ldr         r3, [r3]
  001e0	e2833040	 add         r3, r3, #0x40
  001e4	e5933000	 ldr         r3, [r3]
  001e8	e58d3014	 str         r3, [sp, #0x14]

; 1197 : 
; 1198 :             // update frequency selection and frequency
; 1199 :             cm_clken_pll &= ~DPLL_FREQSEL_MASK;

  001ec	e59d2008	 ldr         r2, [sp, #8]
  001f0	e3e030f0	 mvn         r3, #0xF0
  001f4	e0023003	 and         r3, r2, r3
  001f8	e58d3008	 str         r3, [sp, #8]

; 1200 :             cm_clken_pll |= DPLL_FREQSEL(_dpll_2.freqSelection); 

  001fc	e59f3648	 ldr         r3, [pc, #0x648]
  00200	e5933008	 ldr         r3, [r3, #8]
  00204	e203300f	 and         r3, r3, #0xF
  00208	e1a02203	 mov         r2, r3, lsl #4
  0020c	e59d3008	 ldr         r3, [sp, #8]
  00210	e1833002	 orr         r3, r3, r2
  00214	e58d3008	 str         r3, [sp, #8]

; 1201 :             cm_clksel_pll &= ~(DPLL_CLK_SRC_MASK | DPLL_MULT_MASK | DPLL_DIV_MASK);

  00218	e59d2014	 ldr         r2, [sp, #0x14]
  0021c	e3a034ff	 mov         r3, #0xFF, 8
  00220	e3833080	 orr         r3, r3, #0x80
  00224	e0023003	 and         r3, r2, r3
  00228	e58d3014	 str         r3, [sp, #0x14]

; 1202 :             cm_clksel_pll |= DPLL_CLK_SRC(_dpll_2.sourceDivisor);

  0022c	e59f3618	 ldr         r3, [pc, #0x618]
  00230	e5933014	 ldr         r3, [r3, #0x14]
  00234	e203301f	 and         r3, r3, #0x1F
  00238	e1a02983	 mov         r2, r3, lsl #19
  0023c	e59d3014	 ldr         r3, [sp, #0x14]
  00240	e1833002	 orr         r3, r3, r2
  00244	e58d3014	 str         r3, [sp, #0x14]

; 1203 :             cm_clksel_pll |= DPLL_MULT(_dpll_2.multiplier) | DPLL_DIV(_dpll_2.divisor);

  00248	e59f35fc	 ldr         r3, [pc, #0x5FC]
  0024c	e5932018	 ldr         r2, [r3, #0x18]
  00250	e3a03c07	 mov         r3, #7, 24
  00254	e38330ff	 orr         r3, r3, #0xFF
  00258	e0023003	 and         r3, r2, r3
  0025c	e1a02403	 mov         r2, r3, lsl #8
  00260	e59f35e4	 ldr         r3, [pc, #0x5E4]
  00264	e593301c	 ldr         r3, [r3, #0x1C]
  00268	e203307f	 and         r3, r3, #0x7F
  0026c	e1822003	 orr         r2, r2, r3
  00270	e59d3014	 ldr         r3, [sp, #0x14]
  00274	e1833002	 orr         r3, r3, r2
  00278	e58d3014	 str         r3, [sp, #0x14]

; 1204 :             outputDivisor = _dpll_2.outputDivisor << DPLL_IVA2_CLKOUT_DIV_SHIFT;

  0027c	e59f35c8	 ldr         r3, [pc, #0x5C8]
  00280	e5933024	 ldr         r3, [r3, #0x24]
  00284	e58d3000	 str         r3, [sp]

; 1205 : 
; 1206 :             OUTREG32(&g_pPrcmCm->pOMAP_IVA2_CM->CM_CLKEN_PLL_IVA2, cm_clken_pll);

  00288	e59f3590	 ldr         r3, [pc, #0x590]
  0028c	e5933000	 ldr         r3, [r3]
  00290	e2833020	 add         r3, r3, #0x20
  00294	e5933000	 ldr         r3, [r3]
  00298	e2832004	 add         r2, r3, #4
  0029c	e59d3008	 ldr         r3, [sp, #8]
  002a0	e5823000	 str         r3, [r2]

; 1207 :             OUTREG32(&g_pPrcmCm->pOMAP_IVA2_CM->CM_CLKSEL1_PLL_IVA2, cm_clksel_pll);

  002a4	e59f3574	 ldr         r3, [pc, #0x574]
  002a8	e5933000	 ldr         r3, [r3]
  002ac	e2833020	 add         r3, r3, #0x20
  002b0	e5933000	 ldr         r3, [r3]
  002b4	e2832040	 add         r2, r3, #0x40
  002b8	e59d3014	 ldr         r3, [sp, #0x14]
  002bc	e5823000	 str         r3, [r2]

; 1208 :             OUTREG32(&g_pPrcmCm->pOMAP_IVA2_CM->CM_CLKSEL2_PLL_IVA2, outputDivisor);

  002c0	e59f3558	 ldr         r3, [pc, #0x558]
  002c4	e5933000	 ldr         r3, [r3]
  002c8	e2833020	 add         r3, r3, #0x20
  002cc	e5933000	 ldr         r3, [r3]
  002d0	e2832044	 add         r2, r3, #0x44
  002d4	e59d3000	 ldr         r3, [sp]
  002d8	e5823000	 str         r3, [r2]

; 1209 :             break;

  002dc	ea00014c	 b           |$LN12@ClockHwUpd|
  002e0		 |$LN9@ClockHwUpd|

; 1210 : 
; 1211 :         case kDPLL3:
; 1212 :             cm_clken_pll = INREG32(&g_pPrcmCm->pOMAP_CLOCK_CONTROL_CM->CM_CLKEN_PLL);

  002e0	e59f3538	 ldr         r3, [pc, #0x538]
  002e4	e5933000	 ldr         r3, [r3]
  002e8	e2833034	 add         r3, r3, #0x34
  002ec	e5933000	 ldr         r3, [r3]
  002f0	e5933000	 ldr         r3, [r3]
  002f4	e58d3008	 str         r3, [sp, #8]

; 1213 :             cm_clksel_pll = INREG32(&g_pPrcmCm->pOMAP_CLOCK_CONTROL_CM->CM_CLKSEL1_PLL);

  002f8	e59f3520	 ldr         r3, [pc, #0x520]
  002fc	e5933000	 ldr         r3, [r3]
  00300	e2833034	 add         r3, r3, #0x34
  00304	e5933000	 ldr         r3, [r3]
  00308	e2833040	 add         r3, r3, #0x40
  0030c	e5933000	 ldr         r3, [r3]
  00310	e58d3014	 str         r3, [sp, #0x14]

; 1214 : 
; 1215 :             // update frequency selection and frequency
; 1216 :             if (g_dwCpuFamily != CPU_FAMILY_DM37XX)

  00314	e59f350c	 ldr         r3, [pc, #0x50C]
  00318	e5933000	 ldr         r3, [r3]
  0031c	e3530001	 cmp         r3, #1
  00320	0a00000a	 beq         |$LN8@ClockHwUpd|

; 1217 : 			    {
; 1218 :             cm_clken_pll &= ~DPLL_FREQSEL_MASK;

  00324	e59d2008	 ldr         r2, [sp, #8]
  00328	e3e030f0	 mvn         r3, #0xF0
  0032c	e0023003	 and         r3, r2, r3
  00330	e58d3008	 str         r3, [sp, #8]

; 1219 :             cm_clken_pll |= DPLL_FREQSEL(_dpll_3.freqSelection)  /*|(0x3 << 8) | (1 << 3)*/;

  00334	e59f3500	 ldr         r3, [pc, #0x500]
  00338	e5933008	 ldr         r3, [r3, #8]
  0033c	e203300f	 and         r3, r3, #0xF
  00340	e1a02203	 mov         r2, r3, lsl #4
  00344	e59d3008	 ldr         r3, [sp, #8]
  00348	e1833002	 orr         r3, r3, r2
  0034c	e58d3008	 str         r3, [sp, #8]
  00350		 |$LN8@ClockHwUpd|

; 1220 :                 }
; 1221 :             cm_clksel_pll &= ~DPLL_CORE_CLKOUT_DIV_MASK;

  00350	e59d2014	 ldr         r2, [sp, #0x14]
  00354	e3e0333e	 mvn         r3, #0x3E, 6
  00358	e0023003	 and         r3, r2, r3
  0035c	e58d3014	 str         r3, [sp, #0x14]

; 1222 :             cm_clksel_pll &= ~((DPLL_MULT_MASK | DPLL_DIV_MASK) << DPLL_CORE_CLKSEL_SHIFT);

  00360	e59d2014	 ldr         r2, [sp, #0x14]
  00364	e59f34dc	 ldr         r3, [pc, #0x4DC]
  00368	e0023003	 and         r3, r2, r3
  0036c	e58d3014	 str         r3, [sp, #0x14]

; 1223 :             cm_clksel_pll |= (DPLL_MULT(_dpll_3.multiplier) | DPLL_DIV(_dpll_3.divisor)) << DPLL_CORE_CLKSEL_SHIFT;

  00370	e59f34c4	 ldr         r3, [pc, #0x4C4]
  00374	e5932018	 ldr         r2, [r3, #0x18]
  00378	e3a03c07	 mov         r3, #7, 24
  0037c	e38330ff	 orr         r3, r3, #0xFF
  00380	e0023003	 and         r3, r2, r3
  00384	e1a02403	 mov         r2, r3, lsl #8
  00388	e59f34ac	 ldr         r3, [pc, #0x4AC]
  0038c	e593301c	 ldr         r3, [r3, #0x1C]
  00390	e203307f	 and         r3, r3, #0x7F
  00394	e1823003	 orr         r3, r2, r3
  00398	e1a02403	 mov         r2, r3, lsl #8
  0039c	e59d3014	 ldr         r3, [sp, #0x14]
  003a0	e1833002	 orr         r3, r3, r2
  003a4	e58d3014	 str         r3, [sp, #0x14]

; 1224 :             cm_clksel_pll |= _dpll_3.outputDivisor << DPLL_CORE_CLKOUT_DIV_SHIFT;

  003a8	e59f348c	 ldr         r3, [pc, #0x48C]
  003ac	e5933024	 ldr         r3, [r3, #0x24]
  003b0	e1a02d83	 mov         r2, r3, lsl #27
  003b4	e59d3014	 ldr         r3, [sp, #0x14]
  003b8	e1833002	 orr         r3, r3, r2
  003bc	e58d3014	 str         r3, [sp, #0x14]

; 1225 : 
; 1226 :             //  Need to perform this in SRAM
; 1227 :             bEnable = INTERRUPTS_ENABLE(FALSE);   

  003c0	e3a00000	 mov         r0, #0
  003c4	eb000000	 bl          INTERRUPTS_ENABLE
  003c8	e58d001c	 str         r0, [sp, #0x1C]
  003cc	e59d301c	 ldr         r3, [sp, #0x1C]
  003d0	e58d3010	 str         r3, [sp, #0x10]

; 1228 : 
; 1229 :             sdrcRfrCtrl0 = INREG32(&g_pSDRCRegs->SDRC_RFR_CTRL_0);

  003d4	e59f345c	 ldr         r3, [pc, #0x45C]
  003d8	e5933000	 ldr         r3, [r3]
  003dc	e28330a4	 add         r3, r3, #0xA4
  003e0	e5933000	 ldr         r3, [r3]
  003e4	e58d300c	 str         r3, [sp, #0xC]

; 1230 :             sdrcRfrCtrl1 = INREG32(&g_pSDRCRegs->SDRC_RFR_CTRL_1);

  003e8	e59f3448	 ldr         r3, [pc, #0x448]
  003ec	e5933000	 ldr         r3, [r3]
  003f0	e28330d4	 add         r3, r3, #0xD4
  003f4	e5933000	 ldr         r3, [r3]
  003f8	e58d3004	 str         r3, [sp, #4]

; 1231 : 
; 1232 :             sdrcRfrCtrl0 &= ~SDRC_RFR_CTRL_ARCV_MASK;

  003fc	e59d200c	 ldr         r2, [sp, #0xC]
  00400	e3a034ff	 mov         r3, #0xFF, 8
  00404	e38330ff	 orr         r3, r3, #0xFF
  00408	e0023003	 and         r3, r2, r3
  0040c	e58d300c	 str         r3, [sp, #0xC]

; 1233 :             sdrcRfrCtrl1 &= ~SDRC_RFR_CTRL_ARCV_MASK;

  00410	e59d2004	 ldr         r2, [sp, #4]
  00414	e3a034ff	 mov         r3, #0xFF, 8
  00418	e38330ff	 orr         r3, r3, #0xFF
  0041c	e0023003	 and         r3, r2, r3
  00420	e58d3004	 str         r3, [sp, #4]

; 1234 :             
; 1235 :             // Update the ARCV before updating the core frequency
; 1236 :             if (_dpll_3.outputDivisor == 1)

  00424	e59f3410	 ldr         r3, [pc, #0x410]
  00428	e5933024	 ldr         r3, [r3, #0x24]
  0042c	e3530001	 cmp         r3, #1
  00430	1a00001f	 bne         |$LN7@ClockHwUpd|

; 1237 :                 {
; 1238 :                 // Core @ 332 MHZ
; 1239 :                 sdrcRfrCtrl0 |= (g_pCPUInfo->SDRC_HIGH_RFR_FREQ << SDRC_RFR_CTRL_ARCV_SHIFT);

  00434	e59f3408	 ldr         r3, [pc, #0x408]
  00438	e5933000	 ldr         r3, [r3]
  0043c	e2833028	 add         r3, r3, #0x28
  00440	e5933000	 ldr         r3, [r3]
  00444	e1a02403	 mov         r2, r3, lsl #8
  00448	e59d300c	 ldr         r3, [sp, #0xC]
  0044c	e1833002	 orr         r3, r3, r2
  00450	e58d300c	 str         r3, [sp, #0xC]

; 1240 :                 sdrcRfrCtrl1 |= (g_pCPUInfo->SDRC_HIGH_RFR_FREQ << SDRC_RFR_CTRL_ARCV_SHIFT);

  00454	e59f33e8	 ldr         r3, [pc, #0x3E8]
  00458	e5933000	 ldr         r3, [r3]
  0045c	e2833028	 add         r3, r3, #0x28
  00460	e5933000	 ldr         r3, [r3]
  00464	e1a02403	 mov         r2, r3, lsl #8
  00468	e59d3004	 ldr         r3, [sp, #4]
  0046c	e1833002	 orr         r3, r3, r2
  00470	e58d3004	 str         r3, [sp, #4]

; 1241 :                 g_pCPUInfo->DPLL_ARGS[0] = DVFS_HIGH_OPP_STALL;

  00474	e59f33c8	 ldr         r3, [pc, #0x3C8]
  00478	e5933000	 ldr         r3, [r3]
  0047c	e2832038	 add         r2, r3, #0x38
  00480	e3a03010	 mov         r3, #0x10
  00484	e5823000	 str         r3, [r2]

; 1242 :                 OUTREG32(&g_pSDRCRegs->SDRC_RFR_CTRL_0, sdrcRfrCtrl0);

  00488	e59f33a8	 ldr         r3, [pc, #0x3A8]
  0048c	e5933000	 ldr         r3, [r3]
  00490	e28320a4	 add         r2, r3, #0xA4
  00494	e59d300c	 ldr         r3, [sp, #0xC]
  00498	e5823000	 str         r3, [r2]

; 1243 :                 OUTREG32(&g_pSDRCRegs->SDRC_RFR_CTRL_1, sdrcRfrCtrl1);

  0049c	e59f3394	 ldr         r3, [pc, #0x394]
  004a0	e5933000	 ldr         r3, [r3]
  004a4	e28320d4	 add         r2, r3, #0xD4
  004a8	e59d3004	 ldr         r3, [sp, #4]
  004ac	e5823000	 str         r3, [r2]

; 1244 : 				
; 1245 :                 }
; 1246 :             else

  004b0	ea000014	 b           |$LN6@ClockHwUpd|
  004b4		 |$LN7@ClockHwUpd|

; 1247 :                 {
; 1248 :                 // Core @ 166 MHZ
; 1249 :                 sdrcRfrCtrl0 |= (g_pCPUInfo->SDRC_LOW_RFR_FREQ << SDRC_RFR_CTRL_ARCV_SHIFT);

  004b4	e59f3388	 ldr         r3, [pc, #0x388]
  004b8	e5933000	 ldr         r3, [r3]
  004bc	e283302c	 add         r3, r3, #0x2C
  004c0	e5933000	 ldr         r3, [r3]
  004c4	e1a02403	 mov         r2, r3, lsl #8
  004c8	e59d300c	 ldr         r3, [sp, #0xC]
  004cc	e1833002	 orr         r3, r3, r2
  004d0	e58d300c	 str         r3, [sp, #0xC]

; 1250 :                 sdrcRfrCtrl1 |= (g_pCPUInfo->SDRC_LOW_RFR_FREQ << SDRC_RFR_CTRL_ARCV_SHIFT);

  004d4	e59f3368	 ldr         r3, [pc, #0x368]
  004d8	e5933000	 ldr         r3, [r3]
  004dc	e283302c	 add         r3, r3, #0x2C
  004e0	e5933000	 ldr         r3, [r3]
  004e4	e1a02403	 mov         r2, r3, lsl #8
  004e8	e59d3004	 ldr         r3, [sp, #4]
  004ec	e1833002	 orr         r3, r3, r2
  004f0	e58d3004	 str         r3, [sp, #4]

; 1251 :                 g_pCPUInfo->DPLL_ARGS[0] = DVFS_LOW_OPP_STALL;

  004f4	e59f3348	 ldr         r3, [pc, #0x348]
  004f8	e5933000	 ldr         r3, [r3]
  004fc	e2832038	 add         r2, r3, #0x38
  00500	e3a03000	 mov         r3, #0
  00504	e5823000	 str         r3, [r2]
  00508		 |$LN6@ClockHwUpd|

; 1252 :                 }
; 1253 :             
; 1254 : 
; 1255 :             OMAP_PROFILE_MARK(PROFILE_CORE1_DVFS_BEGIN, 0);

  00508	e3a01000	 mov         r1, #0
  0050c	e3a00000	 mov         r0, #0
  00510	eb000000	 bl          OmapProfilerMark

; 1256 :             fnOALUpdateCoreFreq(g_pCPUInfo, cm_clken_pll, cm_clksel_pll);

  00514	e59d2014	 ldr         r2, [sp, #0x14]
  00518	e59d1008	 ldr         r1, [sp, #8]
  0051c	e59f3320	 ldr         r3, [pc, #0x320]
  00520	e5930000	 ldr         r0, [r3]
  00524	e59f3314	 ldr         r3, [pc, #0x314]
  00528	e5933000	 ldr         r3, [r3]
  0052c	e1a0e00f	 mov         lr, pc
  00530	e12fff13	 bx          r3

; 1257 :             OMAP_PROFILE_MARK(PROFILE_CORE1_DVFS_END, 0);

  00534	e3a01000	 mov         r1, #0
  00538	e3a00001	 mov         r0, #1
  0053c	eb000000	 bl          OmapProfilerMark

; 1258 :             INTERRUPTS_ENABLE(bEnable);

  00540	e59d0010	 ldr         r0, [sp, #0x10]
  00544	eb000000	 bl          INTERRUPTS_ENABLE

; 1259 : 
; 1260 :             if (_dpll_3.outputDivisor != 1)

  00548	e59f32ec	 ldr         r3, [pc, #0x2EC]
  0054c	e5933024	 ldr         r3, [r3, #0x24]
  00550	e3530001	 cmp         r3, #1
  00554	0a000009	 beq         |$LN5@ClockHwUpd|

; 1261 :             {
; 1262 :                 OUTREG32(&g_pSDRCRegs->SDRC_RFR_CTRL_0, sdrcRfrCtrl0);

  00558	e59f32d8	 ldr         r3, [pc, #0x2D8]
  0055c	e5933000	 ldr         r3, [r3]
  00560	e28320a4	 add         r2, r3, #0xA4
  00564	e59d300c	 ldr         r3, [sp, #0xC]
  00568	e5823000	 str         r3, [r2]

; 1263 :                 OUTREG32(&g_pSDRCRegs->SDRC_RFR_CTRL_1, sdrcRfrCtrl1);	

  0056c	e59f32c4	 ldr         r3, [pc, #0x2C4]
  00570	e5933000	 ldr         r3, [r3]
  00574	e28320d4	 add         r2, r3, #0xD4
  00578	e59d3004	 ldr         r3, [sp, #4]
  0057c	e5823000	 str         r3, [r2]
  00580		 |$LN5@ClockHwUpd|

; 1264 :             }
; 1265 : 
; 1266 :             // save updated frequencies
; 1267 :             OUTREG32(&g_pPrcmRestore->CM_CLKEN_PLL, cm_clken_pll);

  00580	e59f32a4	 ldr         r3, [pc, #0x2A4]
  00584	e5933000	 ldr         r3, [r3]
  00588	e2832010	 add         r2, r3, #0x10
  0058c	e59d3008	 ldr         r3, [sp, #8]
  00590	e5823000	 str         r3, [r2]

; 1268 :             OUTREG32(&g_pPrcmRestore->CM_CLKSEL1_PLL, cm_clksel_pll);

  00594	e59f3290	 ldr         r3, [pc, #0x290]
  00598	e5933000	 ldr         r3, [r3]
  0059c	e2832018	 add         r2, r3, #0x18
  005a0	e59d3014	 ldr         r3, [sp, #0x14]
  005a4	e5823000	 str         r3, [r2]

; 1269 : 
; 1270 :             // save updated sdram timings
; 1271 :             OUTREG32(&g_pSdrcRestore->DLLA_CTRL, INREG32(&g_pSDRCRegs->SDRC_DLLA_CTRL));

  005a8	e59f3288	 ldr         r3, [pc, #0x288]
  005ac	e5933000	 ldr         r3, [r3]
  005b0	e2833060	 add         r3, r3, #0x60
  005b4	e5932000	 ldr         r2, [r3]
  005b8	e59f3274	 ldr         r3, [pc, #0x274]
  005bc	e5933000	 ldr         r3, [r3]
  005c0	e2833008	 add         r3, r3, #8
  005c4	e5832000	 str         r2, [r3]

; 1272 :             OUTREG32(&g_pSdrcRestore->RFR_CTRL_0, INREG32(&g_pSDRCRegs->SDRC_RFR_CTRL_0));

  005c8	e59f3268	 ldr         r3, [pc, #0x268]
  005cc	e5933000	 ldr         r3, [r3]
  005d0	e28330a4	 add         r3, r3, #0xA4
  005d4	e5932000	 ldr         r2, [r3]
  005d8	e59f3254	 ldr         r3, [pc, #0x254]
  005dc	e5933000	 ldr         r3, [r3]
  005e0	e283302c	 add         r3, r3, #0x2C
  005e4	e5832000	 str         r2, [r3]

; 1273 :             OUTREG32(&g_pSdrcRestore->RFR_CTRL_1, INREG32(&g_pSDRCRegs->SDRC_RFR_CTRL_1));

  005e8	e59f3248	 ldr         r3, [pc, #0x248]
  005ec	e5933000	 ldr         r3, [r3]
  005f0	e28330d4	 add         r3, r3, #0xD4
  005f4	e5932000	 ldr         r2, [r3]
  005f8	e59f3234	 ldr         r3, [pc, #0x234]
  005fc	e5933000	 ldr         r3, [r3]
  00600	e2833048	 add         r3, r3, #0x48
  00604	e5832000	 str         r2, [r3]

; 1274 :             break;

  00608	ea000081	 b           |$LN12@ClockHwUpd|
  0060c		 |$LN4@ClockHwUpd|

; 1275 : 
; 1276 :         case kDPLL4:
; 1277 :             cm_clken_pll = INREG32(&g_pPrcmCm->pOMAP_CLOCK_CONTROL_CM->CM_CLKEN_PLL);

  0060c	e59f320c	 ldr         r3, [pc, #0x20C]
  00610	e5933000	 ldr         r3, [r3]
  00614	e2833034	 add         r3, r3, #0x34
  00618	e5933000	 ldr         r3, [r3]
  0061c	e5933000	 ldr         r3, [r3]
  00620	e58d3008	 str         r3, [sp, #8]

; 1278 :             cm_clksel_pll = INREG32(&g_pPrcmCm->pOMAP_CLOCK_CONTROL_CM->CM_CLKSEL2_PLL);

  00624	e59f31f4	 ldr         r3, [pc, #0x1F4]
  00628	e5933000	 ldr         r3, [r3]
  0062c	e2833034	 add         r3, r3, #0x34
  00630	e5933000	 ldr         r3, [r3]
  00634	e2833044	 add         r3, r3, #0x44
  00638	e5933000	 ldr         r3, [r3]
  0063c	e58d3014	 str         r3, [sp, #0x14]

; 1279 : 
; 1280 :             // update frequency selection and frequency
; 1281 :             if (g_dwCpuFamily != CPU_FAMILY_DM37XX)

  00640	e59f31e0	 ldr         r3, [pc, #0x1E0]
  00644	e5933000	 ldr         r3, [r3]
  00648	e3530001	 cmp         r3, #1
  0064c	0a00000b	 beq         |$LN3@ClockHwUpd|

; 1282 : 			    {
; 1283 :             cm_clken_pll &= ~(DPLL_FREQSEL_MASK << DPLL_PER_MODE_SHIFT);

  00650	e59d2008	 ldr         r2, [sp, #8]
  00654	e3e0360f	 mvn         r3, #0xF, 12
  00658	e0023003	 and         r3, r2, r3
  0065c	e58d3008	 str         r3, [sp, #8]

; 1284 :             cm_clken_pll |= DPLL_FREQSEL(_dpll_4.freqSelection) << DPLL_PER_MODE_SHIFT;

  00660	e59f31c8	 ldr         r3, [pc, #0x1C8]
  00664	e5933008	 ldr         r3, [r3, #8]
  00668	e203300f	 and         r3, r3, #0xF
  0066c	e1a03203	 mov         r3, r3, lsl #4
  00670	e1a02803	 mov         r2, r3, lsl #16
  00674	e59d3008	 ldr         r3, [sp, #8]
  00678	e1833002	 orr         r3, r3, r2
  0067c	e58d3008	 str         r3, [sp, #8]
  00680		 |$LN3@ClockHwUpd|

; 1285 :                 }
; 1286 :             cm_clksel_pll &= ~(DPLL_MULT_MASK | DPLL_DIV_MASK);

  00680	e59d2014	 ldr         r2, [sp, #0x14]
  00684	e3a03080	 mov         r3, #0x80
  00688	e2433702	 sub         r3, r3, #2, 14
  0068c	e0023003	 and         r3, r2, r3
  00690	e58d3014	 str         r3, [sp, #0x14]

; 1287 :             cm_clksel_pll |= DPLL_MULT(_dpll_4.multiplier) | DPLL_DIV(_dpll_4.divisor);

  00694	e59f3194	 ldr         r3, [pc, #0x194]
  00698	e5932018	 ldr         r2, [r3, #0x18]
  0069c	e3a03c07	 mov         r3, #7, 24
  006a0	e38330ff	 orr         r3, r3, #0xFF
  006a4	e0023003	 and         r3, r2, r3
  006a8	e1a02403	 mov         r2, r3, lsl #8
  006ac	e59f317c	 ldr         r3, [pc, #0x17C]
  006b0	e593301c	 ldr         r3, [r3, #0x1C]
  006b4	e203307f	 and         r3, r3, #0x7F
  006b8	e1822003	 orr         r2, r2, r3
  006bc	e59d3014	 ldr         r3, [sp, #0x14]
  006c0	e1833002	 orr         r3, r3, r2
  006c4	e58d3014	 str         r3, [sp, #0x14]

; 1288 : 
; 1289 :             OUTREG32(&g_pPrcmCm->pOMAP_CLOCK_CONTROL_CM->CM_CLKEN_PLL, cm_clken_pll);            

  006c8	e59f3150	 ldr         r3, [pc, #0x150]
  006cc	e5933000	 ldr         r3, [r3]
  006d0	e2833034	 add         r3, r3, #0x34
  006d4	e5932000	 ldr         r2, [r3]
  006d8	e59d3008	 ldr         r3, [sp, #8]
  006dc	e5823000	 str         r3, [r2]

; 1290 :             OUTREG32(&g_pPrcmCm->pOMAP_CLOCK_CONTROL_CM->CM_CLKSEL2_PLL, cm_clksel_pll);

  006e0	e59f3138	 ldr         r3, [pc, #0x138]
  006e4	e5933000	 ldr         r3, [r3]
  006e8	e2833034	 add         r3, r3, #0x34
  006ec	e5933000	 ldr         r3, [r3]
  006f0	e2832044	 add         r2, r3, #0x44
  006f4	e59d3014	 ldr         r3, [sp, #0x14]
  006f8	e5823000	 str         r3, [r2]

; 1291 : 
; 1292 :             OUTREG32(&g_pPrcmRestore->CM_CLKEN_PLL, cm_clken_pll);

  006fc	e59f3128	 ldr         r3, [pc, #0x128]
  00700	e5933000	 ldr         r3, [r3]
  00704	e2832010	 add         r2, r3, #0x10
  00708	e59d3008	 ldr         r3, [sp, #8]
  0070c	e5823000	 str         r3, [r2]

; 1293 :             OUTREG32(&g_pPrcmRestore->CM_CLKSEL2_PLL, cm_clksel_pll);

  00710	e59f3114	 ldr         r3, [pc, #0x114]
  00714	e5933000	 ldr         r3, [r3]
  00718	e283201c	 add         r2, r3, #0x1C
  0071c	e59d3014	 ldr         r3, [sp, #0x14]
  00720	e5823000	 str         r3, [r2]

; 1294 :             break;

  00724	ea00003a	 b           |$LN12@ClockHwUpd|
  00728		 |$LN2@ClockHwUpd|

; 1295 : 
; 1296 :         case kDPLL5:
; 1297 :             cm_clken_pll = INREG32(&g_pPrcmCm->pOMAP_CLOCK_CONTROL_CM->CM_CLKEN2_PLL);

  00728	e59f30f0	 ldr         r3, [pc, #0xF0]
  0072c	e5933000	 ldr         r3, [r3]
  00730	e2833034	 add         r3, r3, #0x34
  00734	e5933000	 ldr         r3, [r3]
  00738	e2833004	 add         r3, r3, #4
  0073c	e5933000	 ldr         r3, [r3]
  00740	e58d3008	 str         r3, [sp, #8]

; 1298 :             cm_clksel_pll = INREG32(&g_pPrcmCm->pOMAP_CLOCK_CONTROL_CM->CM_CLKSEL4_PLL);

  00744	e59f30d4	 ldr         r3, [pc, #0xD4]
  00748	e5933000	 ldr         r3, [r3]
  0074c	e2833034	 add         r3, r3, #0x34
  00750	e5933000	 ldr         r3, [r3]
  00754	e283304c	 add         r3, r3, #0x4C
  00758	e5933000	 ldr         r3, [r3]
  0075c	e58d3014	 str         r3, [sp, #0x14]

; 1299 : 
; 1300 :             // update frequency selection and frequency
; 1301 :             if (g_dwCpuFamily != CPU_FAMILY_DM37XX)

  00760	e59f30c0	 ldr         r3, [pc, #0xC0]
  00764	e5933000	 ldr         r3, [r3]
  00768	e3530001	 cmp         r3, #1
  0076c	0a00000a	 beq         |$LN1@ClockHwUpd|

; 1302 : 			    {
; 1303 :                 cm_clken_pll &= ~(DPLL_FREQSEL_MASK);

  00770	e59d2008	 ldr         r2, [sp, #8]
  00774	e3e030f0	 mvn         r3, #0xF0
  00778	e0023003	 and         r3, r2, r3
  0077c	e58d3008	 str         r3, [sp, #8]

; 1304 :                 cm_clken_pll |= DPLL_FREQSEL(_dpll_5.freqSelection);

  00780	e59f309c	 ldr         r3, [pc, #0x9C]
  00784	e5933008	 ldr         r3, [r3, #8]
  00788	e203300f	 and         r3, r3, #0xF
  0078c	e1a02203	 mov         r2, r3, lsl #4
  00790	e59d3008	 ldr         r3, [sp, #8]
  00794	e1833002	 orr         r3, r3, r2
  00798	e58d3008	 str         r3, [sp, #8]
  0079c		 |$LN1@ClockHwUpd|

; 1305 :                 }
; 1306 :             cm_clksel_pll &= ~(DPLL_MULT_MASK | DPLL_DIV_MASK);

  0079c	e59d2014	 ldr         r2, [sp, #0x14]
  007a0	e3a03080	 mov         r3, #0x80
  007a4	e2433702	 sub         r3, r3, #2, 14
  007a8	e0023003	 and         r3, r2, r3
  007ac	e58d3014	 str         r3, [sp, #0x14]

; 1307 :             cm_clksel_pll |= DPLL_MULT(_dpll_5.multiplier) | DPLL_DIV(_dpll_5.divisor);

  007b0	e59f306c	 ldr         r3, [pc, #0x6C]
  007b4	e5932018	 ldr         r2, [r3, #0x18]
  007b8	e3a03c07	 mov         r3, #7, 24
  007bc	e38330ff	 orr         r3, r3, #0xFF
  007c0	e0023003	 and         r3, r2, r3
  007c4	e1a02403	 mov         r2, r3, lsl #8
  007c8	e59f3054	 ldr         r3, [pc, #0x54]
  007cc	e593301c	 ldr         r3, [r3, #0x1C]
  007d0	e203307f	 and         r3, r3, #0x7F
  007d4	e1822003	 orr         r2, r2, r3
  007d8	e59d3014	 ldr         r3, [sp, #0x14]
  007dc	e1833002	 orr         r3, r3, r2
  007e0	e58d3014	 str         r3, [sp, #0x14]

; 1308 : 
; 1309 :             OUTSYSREG32(OMAP_PRCM_CLOCK_CONTROL_CM_REGS, CM_CLKEN2_PLL, cm_clken_pll);

  007e4	e59d2008	 ldr         r2, [sp, #8]
  007e8	e3a01004	 mov         r1, #4
  007ec	e3a00312	 mov         r0, #0x12, 6
  007f0	e3800c4d	 orr         r0, r0, #0x4D, 24
  007f4	eb000000	 bl          OutShadowReg32

; 1310 :             OUTREG32(&g_pPrcmCm->pOMAP_CLOCK_CONTROL_CM->CM_CLKSEL4_PLL, cm_clksel_pll);

  007f8	e59f3020	 ldr         r3, [pc, #0x20]
  007fc	e5933000	 ldr         r3, [r3]
  00800	e2833034	 add         r3, r3, #0x34
  00804	e5933000	 ldr         r3, [r3]
  00808	e283204c	 add         r2, r3, #0x4C
  0080c	e59d3014	 ldr         r3, [sp, #0x14]
  00810	e5823000	 str         r3, [r2]
  00814		 |$LN12@ClockHwUpd|

; 1311 :             // OMAP_PRCM_RESTORE_REGS does not have element for CM_CLKSEL4_PLL
; 1312 :             //OUTREG32(&g_pPrcmRestore->CM_CLKSEL4_PLL, cm_clksel_pll);
; 1313 :             break;
; 1314 :         }
; 1315 : }

  00814	e28dd020	 add         sp, sp, #0x20
  00818	e89d6000	 ldmia       sp, {sp, lr}
  0081c	e12fff1e	 bx          lr
  00820		 |$LN26@ClockHwUpd|
  00820		 |$LN27@ClockHwUpd|
  00820	00000000	 DCD         |g_pPrcmCm|
  00824		 |$LN28@ClockHwUpd|
  00824	00000000	 DCD         |_dpll_5|
  00828		 |$LN29@ClockHwUpd|
  00828	00000000	 DCD         |g_dwCpuFamily|
  0082c		 |$LN30@ClockHwUpd|
  0082c	00000000	 DCD         |g_pPrcmRestore|
  00830		 |$LN31@ClockHwUpd|
  00830	00000000	 DCD         |_dpll_4|
  00834		 |$LN32@ClockHwUpd|
  00834	00000000	 DCD         |g_pSdrcRestore|
  00838		 |$LN33@ClockHwUpd|
  00838	00000000	 DCD         |g_pSDRCRegs|
  0083c		 |$LN34@ClockHwUpd|
  0083c	00000000	 DCD         |_dpll_3|
  00840		 |$LN35@ClockHwUpd|
  00840	00000000	 DCD         |fnOALUpdateCoreFreq|
  00844		 |$LN36@ClockHwUpd|
  00844	00000000	 DCD         |g_pCPUInfo|
  00848		 |$LN37@ClockHwUpd|
  00848	f80080ff	 DCD         0xf80080ff
  0084c		 |$LN38@ClockHwUpd|
  0084c	00000000	 DCD         |_dpll_2|
  00850		 |$LN39@ClockHwUpd|
  00850	00000000	 DCD         |_dpll_1|
  00854		 |$M49258|

			 ENDP  ; |_ClockHwUpdateDpllFrequency|

	EXPORT	|??_C@_1DC@FACACCH@?$AA?9?$AA_?$AAC?$AAl?$AAo?$AAc?$AAk?$AAI?$AAn?$AAi?$AAt?$AAi?$AAa?$AAl?$AAi?$AAz?$AAe?$AA?$CI?$AA?$CJ?$AA?$DN?$AA?$CF?$AAd?$AA?$AN?$AA?6?$AA?$AA@| [ DATA ] ; `string'
	EXPORT	|??_C@_1CK@FHFJABDF@?$AA?$CL?$AAC?$AAl?$AAo?$AAc?$AAk?$AAI?$AAn?$AAi?$AAt?$AAi?$AAa?$AAl?$AAi?$AAz?$AAe?$AA?$CI?$AA?$CJ?$AA?$AN?$AA?6?$AA?$AA@| [ DATA ] ; `string'
	EXPORT	|ClockInitialize|
	IMPORT	|NKDbgPrintfW|
	IMPORT	|dpCurSettings|

  00008			 AREA	 |.pdata|, PDATA
|$T49315| DCD	|$LN49@ClockIniti|
	DCD	0x4001d002

  00000			 AREA	 |.rdata|, DATA, READONLY
|??_C@_1DC@FACACCH@?$AA?9?$AA_?$AAC?$AAl?$AAo?$AAc?$AAk?$AAI?$AAn?$AAi?$AAt?$AAi?$AAa?$AAl?$AAi?$AAz?$AAe?$AA?$CI?$AA?$CJ?$AA?$DN?$AA?$CF?$AAd?$AA?$AN?$AA?6?$AA?$AA@| DCB "-"
	DCB	0x0, "_", 0x0, "C", 0x0, "l", 0x0, "o", 0x0, "c", 0x0, "k"
	DCB	0x0, "I", 0x0, "n", 0x0, "i", 0x0, "t", 0x0, "i", 0x0, "a"
	DCB	0x0, "l", 0x0, "i", 0x0, "z", 0x0, "e", 0x0, "(", 0x0, ")"
	DCB	0x0, "=", 0x0, "%", 0x0, "d", 0x0, 0xd, 0x0, 0xa, 0x0, 0x0
	DCB	0x0					; `string'

  00000			 AREA	 |.rdata|, DATA, READONLY
|??_C@_1CK@FHFJABDF@?$AA?$CL?$AAC?$AAl?$AAo?$AAc?$AAk?$AAI?$AAn?$AAi?$AAt?$AAi?$AAa?$AAl?$AAi?$AAz?$AAe?$AA?$CI?$AA?$CJ?$AA?$AN?$AA?6?$AA?$AA@| DCB "+"
	DCB	0x0, "C", 0x0, "l", 0x0, "o", 0x0, "c", 0x0, "k", 0x0, "I"
	DCB	0x0, "n", 0x0, "i", 0x0, "t", 0x0, "i", 0x0, "a", 0x0, "l"
	DCB	0x0, "i", 0x0, "z", 0x0, "e", 0x0, "(", 0x0, ")", 0x0, 0xd
	DCB	0x0, 0xa, 0x0, 0x0, 0x0			; `string'
; Function compile flags: /Odtp

  00854			 AREA	 |.text|, CODE, ARM

  00854		 |ClockInitialize| PROC

; 1320 : {

  00854		 |$LN49@ClockIniti|
  00854	e52de004	 str         lr, [sp, #-4]!
  00858	e24dd06c	 sub         sp, sp, #0x6C
  0085c		 |$M49312|

; 1321 :     BOOL rc = TRUE;

  0085c	e3a03001	 mov         r3, #1
  00860	e58d300c	 str         r3, [sp, #0xC]

; 1322 :     UINT i;
; 1323 :     UINT cm_clken_pll;
; 1324 :     UINT cm_clksel_pll;
; 1325 :     UINT cm_autoidle_pll;
; 1326 :     UINT outputDivisor;
; 1327 :     UINT cm_clksel_per;
; 1328 :     UINT parentClock = 0;

  00864	e3a03000	 mov         r3, #0
  00868	e58d3020	 str         r3, [sp, #0x20]

; 1329 :     SrcClockDivisorTable_t *pDivisors;
; 1330 : 
; 1331 :     OALMSG(OAL_FUNC, (L"+ClockInitialize()\r\n"));

  0086c	e59f36fc	 ldr         r3, [pc, #0x6FC]
  00870	e5933440	 ldr         r3, [r3, #0x440]
  00874	e3130004	 tst         r3, #4
  00878	0a000004	 beq         |$LN17@ClockIniti|
  0087c	e59f070c	 ldr         r0, [pc, #0x70C]
  00880	eb000000	 bl          NKDbgPrintfW
  00884	e3a03001	 mov         r3, #1
  00888	e58d3040	 str         r3, [sp, #0x40]
  0088c	ea000001	 b           |$LN18@ClockIniti|
  00890		 |$LN17@ClockIniti|
  00890	e3a03000	 mov         r3, #0
  00894	e58d3040	 str         r3, [sp, #0x40]
  00898		 |$LN18@ClockIniti|

; 1332 : 
; 1333 :     // initialize dpll settings with what's current set in hw
; 1334 : 
; 1335 :     // dpll 1    
; 1336 :     cm_clken_pll = INREG32(&g_pPrcmCm->pOMAP_MPU_CM->CM_CLKEN_PLL_MPU);

  00898	e59f36d8	 ldr         r3, [pc, #0x6D8]
  0089c	e5933000	 ldr         r3, [r3]
  008a0	e2833014	 add         r3, r3, #0x14
  008a4	e5933000	 ldr         r3, [r3]
  008a8	e2833004	 add         r3, r3, #4
  008ac	e5933000	 ldr         r3, [r3]
  008b0	e58d301c	 str         r3, [sp, #0x1C]

; 1337 :     cm_clksel_pll = INREG32(&g_pPrcmCm->pOMAP_MPU_CM->CM_CLKSEL1_PLL_MPU);

  008b4	e59f36bc	 ldr         r3, [pc, #0x6BC]
  008b8	e5933000	 ldr         r3, [r3]
  008bc	e2833014	 add         r3, r3, #0x14
  008c0	e5933000	 ldr         r3, [r3]
  008c4	e2833040	 add         r3, r3, #0x40
  008c8	e5933000	 ldr         r3, [r3]
  008cc	e58d3024	 str         r3, [sp, #0x24]

; 1338 :     cm_autoidle_pll = INREG32(&g_pPrcmCm->pOMAP_MPU_CM->CM_AUTOIDLE_PLL_MPU);

  008d0	e59f36a0	 ldr         r3, [pc, #0x6A0]
  008d4	e5933000	 ldr         r3, [r3]
  008d8	e2833014	 add         r3, r3, #0x14
  008dc	e5933000	 ldr         r3, [r3]
  008e0	e2833034	 add         r3, r3, #0x34
  008e4	e5933000	 ldr         r3, [r3]
  008e8	e58d3008	 str         r3, [sp, #8]

; 1339 :     outputDivisor = INREG32(&g_pPrcmCm->pOMAP_MPU_CM->CM_CLKSEL2_PLL_MPU) >> DPLL_MPU_CLKOUT_DIV_SHIFT;

  008ec	e59f3684	 ldr         r3, [pc, #0x684]
  008f0	e5933000	 ldr         r3, [r3]
  008f4	e2833014	 add         r3, r3, #0x14
  008f8	e5933000	 ldr         r3, [r3]
  008fc	e2833044	 add         r3, r3, #0x44
  00900	e5933000	 ldr         r3, [r3]
  00904	e58d3004	 str         r3, [sp, #4]

; 1340 :     _ClockInitialize(&_dpll_1, cm_clken_pll, cm_clksel_pll, 
; 1341 :         cm_autoidle_pll, outputDivisor);

  00908	e59d3004	 ldr         r3, [sp, #4]
  0090c	e58d3000	 str         r3, [sp]
  00910	e59d3008	 ldr         r3, [sp, #8]
  00914	e59d2024	 ldr         r2, [sp, #0x24]
  00918	e59d101c	 ldr         r1, [sp, #0x1C]
  0091c	e59f0668	 ldr         r0, [pc, #0x668]
  00920	eb000000	 bl          _ClockInitialize

; 1342 : 
; 1343 :     // dpll 2    
; 1344 :     cm_clken_pll = INREG32(&g_pPrcmCm->pOMAP_IVA2_CM->CM_CLKEN_PLL_IVA2);

  00924	e59f364c	 ldr         r3, [pc, #0x64C]
  00928	e5933000	 ldr         r3, [r3]
  0092c	e2833020	 add         r3, r3, #0x20
  00930	e5933000	 ldr         r3, [r3]
  00934	e2833004	 add         r3, r3, #4
  00938	e5933000	 ldr         r3, [r3]
  0093c	e58d301c	 str         r3, [sp, #0x1C]

; 1345 :     cm_clksel_pll = INREG32(&g_pPrcmCm->pOMAP_IVA2_CM->CM_CLKSEL1_PLL_IVA2);

  00940	e59f3630	 ldr         r3, [pc, #0x630]
  00944	e5933000	 ldr         r3, [r3]
  00948	e2833020	 add         r3, r3, #0x20
  0094c	e5933000	 ldr         r3, [r3]
  00950	e2833040	 add         r3, r3, #0x40
  00954	e5933000	 ldr         r3, [r3]
  00958	e58d3024	 str         r3, [sp, #0x24]

; 1346 :     cm_autoidle_pll = INREG32(&g_pPrcmCm->pOMAP_IVA2_CM->CM_AUTOIDLE_PLL_IVA2);

  0095c	e59f3614	 ldr         r3, [pc, #0x614]
  00960	e5933000	 ldr         r3, [r3]
  00964	e2833020	 add         r3, r3, #0x20
  00968	e5933000	 ldr         r3, [r3]
  0096c	e2833034	 add         r3, r3, #0x34
  00970	e5933000	 ldr         r3, [r3]
  00974	e58d3008	 str         r3, [sp, #8]

; 1347 :     outputDivisor = INREG32(&g_pPrcmCm->pOMAP_IVA2_CM->CM_CLKSEL2_PLL_IVA2) >> DPLL_IVA2_CLKOUT_DIV_SHIFT;

  00978	e59f35f8	 ldr         r3, [pc, #0x5F8]
  0097c	e5933000	 ldr         r3, [r3]
  00980	e2833020	 add         r3, r3, #0x20
  00984	e5933000	 ldr         r3, [r3]
  00988	e2833044	 add         r3, r3, #0x44
  0098c	e5933000	 ldr         r3, [r3]
  00990	e58d3004	 str         r3, [sp, #4]

; 1348 :     _ClockInitialize(&_dpll_2, cm_clken_pll, cm_clksel_pll, 
; 1349 :         cm_autoidle_pll, outputDivisor);

  00994	e59d3004	 ldr         r3, [sp, #4]
  00998	e58d3000	 str         r3, [sp]
  0099c	e59d3008	 ldr         r3, [sp, #8]
  009a0	e59d2024	 ldr         r2, [sp, #0x24]
  009a4	e59d101c	 ldr         r1, [sp, #0x1C]
  009a8	e59f05d8	 ldr         r0, [pc, #0x5D8]
  009ac	eb000000	 bl          _ClockInitialize

; 1350 : 
; 1351 :     // dpll 3
; 1352 :     cm_clken_pll = INREG32(&g_pPrcmCm->pOMAP_CLOCK_CONTROL_CM->CM_CLKEN_PLL);

  009b0	e59f35c0	 ldr         r3, [pc, #0x5C0]
  009b4	e5933000	 ldr         r3, [r3]
  009b8	e2833034	 add         r3, r3, #0x34
  009bc	e5933000	 ldr         r3, [r3]
  009c0	e5933000	 ldr         r3, [r3]
  009c4	e58d301c	 str         r3, [sp, #0x1C]

; 1353 :     cm_clksel_pll = INREG32(&g_pPrcmCm->pOMAP_CLOCK_CONTROL_CM->CM_CLKSEL1_PLL) >> DPLL_CORE_CLKSEL_SHIFT;

  009c8	e59f35a8	 ldr         r3, [pc, #0x5A8]
  009cc	e5933000	 ldr         r3, [r3]
  009d0	e2833034	 add         r3, r3, #0x34
  009d4	e5933000	 ldr         r3, [r3]
  009d8	e2833040	 add         r3, r3, #0x40
  009dc	e5933000	 ldr         r3, [r3]
  009e0	e1a03423	 mov         r3, r3, lsr #8
  009e4	e58d3024	 str         r3, [sp, #0x24]

; 1354 :     cm_autoidle_pll = INREG32(&g_pPrcmCm->pOMAP_CLOCK_CONTROL_CM->CM_AUTOIDLE_PLL);

  009e8	e59f3588	 ldr         r3, [pc, #0x588]
  009ec	e5933000	 ldr         r3, [r3]
  009f0	e2833034	 add         r3, r3, #0x34
  009f4	e5933000	 ldr         r3, [r3]
  009f8	e2833030	 add         r3, r3, #0x30
  009fc	e5933000	 ldr         r3, [r3]
  00a00	e58d3008	 str         r3, [sp, #8]

; 1355 :     outputDivisor = INREG32(&g_pPrcmCm->pOMAP_CLOCK_CONTROL_CM->CM_CLKSEL1_PLL) >> DPLL_CORE_CLKOUT_DIV_SHIFT;

  00a04	e59f356c	 ldr         r3, [pc, #0x56C]
  00a08	e5933000	 ldr         r3, [r3]
  00a0c	e2833034	 add         r3, r3, #0x34
  00a10	e5933000	 ldr         r3, [r3]
  00a14	e2833040	 add         r3, r3, #0x40
  00a18	e5933000	 ldr         r3, [r3]
  00a1c	e1a03da3	 mov         r3, r3, lsr #27
  00a20	e58d3004	 str         r3, [sp, #4]

; 1356 :     _ClockInitialize(&_dpll_3, cm_clken_pll, cm_clksel_pll, 
; 1357 :         cm_autoidle_pll, outputDivisor);

  00a24	e59d3004	 ldr         r3, [sp, #4]
  00a28	e58d3000	 str         r3, [sp]
  00a2c	e59d3008	 ldr         r3, [sp, #8]
  00a30	e59d2024	 ldr         r2, [sp, #0x24]
  00a34	e59d101c	 ldr         r1, [sp, #0x1C]
  00a38	e59f0544	 ldr         r0, [pc, #0x544]
  00a3c	eb000000	 bl          _ClockInitialize

; 1358 : 
; 1359 :     // dpll 4
; 1360 :     outputDivisor = (UINT)-1;

  00a40	e3e03000	 mvn         r3, #0
  00a44	e58d3004	 str         r3, [sp, #4]

; 1361 :     cm_clken_pll = INREG32(&g_pPrcmCm->pOMAP_CLOCK_CONTROL_CM->CM_CLKEN_PLL) >> DPLL_PER_MODE_SHIFT;

  00a48	e59f3528	 ldr         r3, [pc, #0x528]
  00a4c	e5933000	 ldr         r3, [r3]
  00a50	e2833034	 add         r3, r3, #0x34
  00a54	e5933000	 ldr         r3, [r3]
  00a58	e5933000	 ldr         r3, [r3]
  00a5c	e1a03823	 mov         r3, r3, lsr #16
  00a60	e58d301c	 str         r3, [sp, #0x1C]

; 1362 :     cm_clksel_pll = INREG32(&g_pPrcmCm->pOMAP_CLOCK_CONTROL_CM->CM_CLKSEL2_PLL);

  00a64	e59f350c	 ldr         r3, [pc, #0x50C]
  00a68	e5933000	 ldr         r3, [r3]
  00a6c	e2833034	 add         r3, r3, #0x34
  00a70	e5933000	 ldr         r3, [r3]
  00a74	e2833044	 add         r3, r3, #0x44
  00a78	e5933000	 ldr         r3, [r3]
  00a7c	e58d3024	 str         r3, [sp, #0x24]

; 1363 :     cm_autoidle_pll = INREG32(&g_pPrcmCm->pOMAP_CLOCK_CONTROL_CM->CM_AUTOIDLE_PLL) >> DPLL_PER_MODE_SHIFT;

  00a80	e59f34f0	 ldr         r3, [pc, #0x4F0]
  00a84	e5933000	 ldr         r3, [r3]
  00a88	e2833034	 add         r3, r3, #0x34
  00a8c	e5933000	 ldr         r3, [r3]
  00a90	e2833030	 add         r3, r3, #0x30
  00a94	e5933000	 ldr         r3, [r3]
  00a98	e1a03823	 mov         r3, r3, lsr #16
  00a9c	e58d3008	 str         r3, [sp, #8]

; 1364 :     _ClockInitialize(&_dpll_4, cm_clken_pll, cm_clksel_pll, 
; 1365 :         cm_autoidle_pll, outputDivisor);

  00aa0	e59d3004	 ldr         r3, [sp, #4]
  00aa4	e58d3000	 str         r3, [sp]
  00aa8	e59d3008	 ldr         r3, [sp, #8]
  00aac	e59d2024	 ldr         r2, [sp, #0x24]
  00ab0	e59d101c	 ldr         r1, [sp, #0x1C]
  00ab4	e59f04c4	 ldr         r0, [pc, #0x4C4]
  00ab8	eb000000	 bl          _ClockInitialize

; 1366 : 
; 1367 :     // dpll 5
; 1368 :     outputDivisor = (UINT)-1;

  00abc	e3e03000	 mvn         r3, #0
  00ac0	e58d3004	 str         r3, [sp, #4]

; 1369 :     cm_clken_pll = INREG32(&g_pPrcmCm->pOMAP_CLOCK_CONTROL_CM->CM_CLKEN2_PLL);

  00ac4	e59f34ac	 ldr         r3, [pc, #0x4AC]
  00ac8	e5933000	 ldr         r3, [r3]
  00acc	e2833034	 add         r3, r3, #0x34
  00ad0	e5933000	 ldr         r3, [r3]
  00ad4	e2833004	 add         r3, r3, #4
  00ad8	e5933000	 ldr         r3, [r3]
  00adc	e58d301c	 str         r3, [sp, #0x1C]

; 1370 :     cm_clksel_pll = INREG32(&g_pPrcmCm->pOMAP_CLOCK_CONTROL_CM->CM_CLKSEL4_PLL);

  00ae0	e59f3490	 ldr         r3, [pc, #0x490]
  00ae4	e5933000	 ldr         r3, [r3]
  00ae8	e2833034	 add         r3, r3, #0x34
  00aec	e5933000	 ldr         r3, [r3]
  00af0	e283304c	 add         r3, r3, #0x4C
  00af4	e5933000	 ldr         r3, [r3]
  00af8	e58d3024	 str         r3, [sp, #0x24]

; 1371 :     cm_autoidle_pll = INREG32(&g_pPrcmCm->pOMAP_CLOCK_CONTROL_CM->CM_AUTOIDLE2_PLL);

  00afc	e59f3474	 ldr         r3, [pc, #0x474]
  00b00	e5933000	 ldr         r3, [r3]
  00b04	e2833034	 add         r3, r3, #0x34
  00b08	e5933000	 ldr         r3, [r3]
  00b0c	e2833034	 add         r3, r3, #0x34
  00b10	e5933000	 ldr         r3, [r3]
  00b14	e58d3008	 str         r3, [sp, #8]

; 1372 :     _ClockInitialize(&_dpll_5, cm_clken_pll, cm_clksel_pll, 
; 1373 :         cm_autoidle_pll, outputDivisor);

  00b18	e59d3004	 ldr         r3, [sp, #4]
  00b1c	e58d3000	 str         r3, [sp]
  00b20	e59d3008	 ldr         r3, [sp, #8]
  00b24	e59d2024	 ldr         r2, [sp, #0x24]
  00b28	e59d101c	 ldr         r1, [sp, #0x1C]
  00b2c	e59f0448	 ldr         r0, [pc, #0x448]
  00b30	eb000000	 bl          _ClockInitialize

; 1374 : 
; 1375 :     // Save dss clksel configuration
; 1376 :     pDivisors = s_SrcClockTable[kDSS1_ALWON_FCLK].pDivisors;

  00b34	e59f3438	 ldr         r3, [pc, #0x438]
  00b38	e5933098	 ldr         r3, [r3, #0x98]
  00b3c	e58d3014	 str         r3, [sp, #0x14]

; 1377 :     pDivisors->SourceClock[0].divisor = CLKSEL_DSS1(INREG32(&g_pPrcmCm->pOMAP_DSS_CM->CM_CLKSEL_DSS));

  00b40	e59f3430	 ldr         r3, [pc, #0x430]
  00b44	e5933000	 ldr         r3, [r3]
  00b48	e2833018	 add         r3, r3, #0x18
  00b4c	e5933000	 ldr         r3, [r3]
  00b50	e2833040	 add         r3, r3, #0x40
  00b54	e5933000	 ldr         r3, [r3]
  00b58	e203201f	 and         r2, r3, #0x1F
  00b5c	e59d3014	 ldr         r3, [sp, #0x14]
  00b60	e2833008	 add         r3, r3, #8
  00b64	e5832000	 str         r2, [r3]

; 1378 : 
; 1379 :     // Save Tv out clksel configuration
; 1380 :     pDivisors = s_SrcClockTable[k54M_FCLK].pDivisors;

  00b68	e59f3404	 ldr         r3, [pc, #0x404]
  00b6c	e59335ac	 ldr         r3, [r3, #0x5AC]
  00b70	e58d3014	 str         r3, [sp, #0x14]

; 1381 :     pDivisors->SourceClock[0].divisor = CLKSEL_TV(INREG32(&g_pPrcmCm->pOMAP_DSS_CM->CM_CLKSEL_DSS));

  00b74	e59f33fc	 ldr         r3, [pc, #0x3FC]
  00b78	e5933000	 ldr         r3, [r3]
  00b7c	e2833018	 add         r3, r3, #0x18
  00b80	e5933000	 ldr         r3, [r3]
  00b84	e2833040	 add         r3, r3, #0x40
  00b88	e5933000	 ldr         r3, [r3]
  00b8c	e203301f	 and         r3, r3, #0x1F
  00b90	e1a02403	 mov         r2, r3, lsl #8
  00b94	e59d3014	 ldr         r3, [sp, #0x14]
  00b98	e2833008	 add         r3, r3, #8
  00b9c	e5832000	 str         r2, [r3]

; 1382 : 
; 1383 :     // set GPTimer2(used as high perfomance timer)  to use SYSCLK
; 1384 :     SETREG32(&g_pPrcmCm->pOMAP_PER_CM->CM_CLKSEL_PER, CLKSEL_GPT2);

  00ba0	e59f33d0	 ldr         r3, [pc, #0x3D0]
  00ba4	e5933000	 ldr         r3, [r3]
  00ba8	e2833008	 add         r3, r3, #8
  00bac	e5933000	 ldr         r3, [r3]
  00bb0	e2833040	 add         r3, r3, #0x40
  00bb4	e5933000	 ldr         r3, [r3]
  00bb8	e3832001	 orr         r2, r3, #1
  00bbc	e59f33b4	 ldr         r3, [pc, #0x3B4]
  00bc0	e5933000	 ldr         r3, [r3]
  00bc4	e2833008	 add         r3, r3, #8
  00bc8	e5933000	 ldr         r3, [r3]
  00bcc	e2833040	 add         r3, r3, #0x40
  00bd0	e5832000	 str         r2, [r3]

; 1385 : 	
; 1386 :     // Save  PER CLKSEL configuration    
; 1387 :     cm_clksel_per = INREG32(&g_pPrcmCm->pOMAP_PER_CM->CM_CLKSEL_PER);

  00bd4	e59f339c	 ldr         r3, [pc, #0x39C]
  00bd8	e5933000	 ldr         r3, [r3]
  00bdc	e2833008	 add         r3, r3, #8
  00be0	e5933000	 ldr         r3, [r3]
  00be4	e2833040	 add         r3, r3, #0x40
  00be8	e5933000	 ldr         r3, [r3]
  00bec	e58d3018	 str         r3, [sp, #0x18]

; 1388 :     s_SrcClockTable[kGPT2_ALWON_FCLK].parentClk = (cm_clksel_per & CLKSEL_GPT2) ? kSYS_CLK : k32K_FCLK;

  00bf0	e59d3018	 ldr         r3, [sp, #0x18]
  00bf4	e3130001	 tst         r3, #1
  00bf8	0a000002	 beq         |$LN19@ClockIniti|
  00bfc	e3a0300c	 mov         r3, #0xC
  00c00	e58d3044	 str         r3, [sp, #0x44]
  00c04	ea000001	 b           |$LN20@ClockIniti|
  00c08		 |$LN19@ClockIniti|
  00c08	e3a0300b	 mov         r3, #0xB
  00c0c	e58d3044	 str         r3, [sp, #0x44]
  00c10		 |$LN20@ClockIniti|
  00c10	e59d2044	 ldr         r2, [sp, #0x44]
  00c14	e59f3358	 ldr         r3, [pc, #0x358]
  00c18	e58325dc	 str         r2, [r3, #0x5DC]

; 1389 :     s_SrcClockTable[kGPT3_ALWON_FCLK].parentClk = (cm_clksel_per & CLKSEL_GPT3) ? kSYS_CLK : k32K_FCLK;

  00c1c	e59d3018	 ldr         r3, [sp, #0x18]
  00c20	e3130002	 tst         r3, #2
  00c24	0a000002	 beq         |$LN21@ClockIniti|
  00c28	e3a0300c	 mov         r3, #0xC
  00c2c	e58d3048	 str         r3, [sp, #0x48]
  00c30	ea000001	 b           |$LN22@ClockIniti|
  00c34		 |$LN21@ClockIniti|
  00c34	e3a0300b	 mov         r3, #0xB
  00c38	e58d3048	 str         r3, [sp, #0x48]
  00c3c		 |$LN22@ClockIniti|
  00c3c	e59d2048	 ldr         r2, [sp, #0x48]
  00c40	e59f332c	 ldr         r3, [pc, #0x32C]
  00c44	e58325f0	 str         r2, [r3, #0x5F0]

; 1390 :     s_SrcClockTable[kGPT4_ALWON_FCLK].parentClk = (cm_clksel_per & CLKSEL_GPT4) ? kSYS_CLK : k32K_FCLK;

  00c48	e59d3018	 ldr         r3, [sp, #0x18]
  00c4c	e3130004	 tst         r3, #4
  00c50	0a000002	 beq         |$LN23@ClockIniti|
  00c54	e3a0300c	 mov         r3, #0xC
  00c58	e58d304c	 str         r3, [sp, #0x4C]
  00c5c	ea000001	 b           |$LN24@ClockIniti|
  00c60		 |$LN23@ClockIniti|
  00c60	e3a0300b	 mov         r3, #0xB
  00c64	e58d304c	 str         r3, [sp, #0x4C]
  00c68		 |$LN24@ClockIniti|
  00c68	e59d204c	 ldr         r2, [sp, #0x4C]
  00c6c	e59f3300	 ldr         r3, [pc, #0x300]
  00c70	e5832604	 str         r2, [r3, #0x604]

; 1391 :     s_SrcClockTable[kGPT5_ALWON_FCLK].parentClk = (cm_clksel_per & CLKSEL_GPT5) ? kSYS_CLK : k32K_FCLK;

  00c74	e59d3018	 ldr         r3, [sp, #0x18]
  00c78	e3130008	 tst         r3, #8
  00c7c	0a000002	 beq         |$LN25@ClockIniti|
  00c80	e3a0300c	 mov         r3, #0xC
  00c84	e58d3050	 str         r3, [sp, #0x50]
  00c88	ea000001	 b           |$LN26@ClockIniti|
  00c8c		 |$LN25@ClockIniti|
  00c8c	e3a0300b	 mov         r3, #0xB
  00c90	e58d3050	 str         r3, [sp, #0x50]
  00c94		 |$LN26@ClockIniti|
  00c94	e59d2050	 ldr         r2, [sp, #0x50]
  00c98	e59f32d4	 ldr         r3, [pc, #0x2D4]
  00c9c	e5832618	 str         r2, [r3, #0x618]

; 1392 :     s_SrcClockTable[kGPT6_ALWON_FCLK].parentClk = (cm_clksel_per & CLKSEL_GPT6) ? kSYS_CLK : k32K_FCLK;

  00ca0	e59d3018	 ldr         r3, [sp, #0x18]
  00ca4	e3130010	 tst         r3, #0x10
  00ca8	0a000002	 beq         |$LN27@ClockIniti|
  00cac	e3a0300c	 mov         r3, #0xC
  00cb0	e58d3054	 str         r3, [sp, #0x54]
  00cb4	ea000001	 b           |$LN28@ClockIniti|
  00cb8		 |$LN27@ClockIniti|
  00cb8	e3a0300b	 mov         r3, #0xB
  00cbc	e58d3054	 str         r3, [sp, #0x54]
  00cc0		 |$LN28@ClockIniti|
  00cc0	e59d2054	 ldr         r2, [sp, #0x54]
  00cc4	e59f32a8	 ldr         r3, [pc, #0x2A8]
  00cc8	e583262c	 str         r2, [r3, #0x62C]

; 1393 :     s_SrcClockTable[kGPT7_ALWON_FCLK].parentClk = (cm_clksel_per & CLKSEL_GPT7) ? kSYS_CLK : k32K_FCLK;

  00ccc	e59d3018	 ldr         r3, [sp, #0x18]
  00cd0	e3130020	 tst         r3, #0x20
  00cd4	0a000002	 beq         |$LN29@ClockIniti|
  00cd8	e3a0300c	 mov         r3, #0xC
  00cdc	e58d3058	 str         r3, [sp, #0x58]
  00ce0	ea000001	 b           |$LN30@ClockIniti|
  00ce4		 |$LN29@ClockIniti|
  00ce4	e3a0300b	 mov         r3, #0xB
  00ce8	e58d3058	 str         r3, [sp, #0x58]
  00cec		 |$LN30@ClockIniti|
  00cec	e59d2058	 ldr         r2, [sp, #0x58]
  00cf0	e59f327c	 ldr         r3, [pc, #0x27C]
  00cf4	e5832640	 str         r2, [r3, #0x640]

; 1394 :     s_SrcClockTable[kGPT8_ALWON_FCLK].parentClk = (cm_clksel_per & CLKSEL_GPT8) ? kSYS_CLK : k32K_FCLK;

  00cf8	e59d3018	 ldr         r3, [sp, #0x18]
  00cfc	e3130040	 tst         r3, #0x40
  00d00	0a000002	 beq         |$LN31@ClockIniti|
  00d04	e3a0300c	 mov         r3, #0xC
  00d08	e58d305c	 str         r3, [sp, #0x5C]
  00d0c	ea000001	 b           |$LN32@ClockIniti|
  00d10		 |$LN31@ClockIniti|
  00d10	e3a0300b	 mov         r3, #0xB
  00d14	e58d305c	 str         r3, [sp, #0x5C]
  00d18		 |$LN32@ClockIniti|
  00d18	e59d205c	 ldr         r2, [sp, #0x5C]
  00d1c	e59f3250	 ldr         r3, [pc, #0x250]
  00d20	e5832654	 str         r2, [r3, #0x654]

; 1395 :     s_SrcClockTable[kGPT9_ALWON_FCLK].parentClk = (cm_clksel_per & CLKSEL_GPT9) ? kSYS_CLK : k32K_FCLK;    

  00d24	e59d3018	 ldr         r3, [sp, #0x18]
  00d28	e3130080	 tst         r3, #0x80
  00d2c	0a000002	 beq         |$LN33@ClockIniti|
  00d30	e3a0300c	 mov         r3, #0xC
  00d34	e58d3060	 str         r3, [sp, #0x60]
  00d38	ea000001	 b           |$LN34@ClockIniti|
  00d3c		 |$LN33@ClockIniti|
  00d3c	e3a0300b	 mov         r3, #0xB
  00d40	e58d3060	 str         r3, [sp, #0x60]
  00d44		 |$LN34@ClockIniti|
  00d44	e59d2060	 ldr         r2, [sp, #0x60]
  00d48	e59f3224	 ldr         r3, [pc, #0x224]
  00d4c	e5832668	 str         r2, [r3, #0x668]

; 1396 : 
; 1397 :     // Save camera clksel configuration
; 1398 :     pDivisors = s_SrcClockTable[kCAM_MCLK].pDivisors;

  00d50	e59f321c	 ldr         r3, [pc, #0x21C]
  00d54	e59330ac	 ldr         r3, [r3, #0xAC]
  00d58	e58d3014	 str         r3, [sp, #0x14]

; 1399 :     pDivisors->SourceClock[0].divisor = CLKSEL_CAM(INREG32(&g_pPrcmCm->pOMAP_CAM_CM->CM_CLKSEL_CAM));

  00d5c	e59f3214	 ldr         r3, [pc, #0x214]
  00d60	e5933000	 ldr         r3, [r3]
  00d64	e2833024	 add         r3, r3, #0x24
  00d68	e5933000	 ldr         r3, [r3]
  00d6c	e2833040	 add         r3, r3, #0x40
  00d70	e5933000	 ldr         r3, [r3]
  00d74	e203201f	 and         r2, r3, #0x1F
  00d78	e59d3014	 ldr         r3, [sp, #0x14]
  00d7c	e2833008	 add         r3, r3, #8
  00d80	e5832000	 str         r2, [r3]

; 1400 : 
; 1401 :     // Save Sgx clksel configuration
; 1402 :     cm_clksel_pll = INREG32(&g_pPrcmCm->pOMAP_SGX_CM->CM_CLKSEL_SGX);

  00d84	e59f31ec	 ldr         r3, [pc, #0x1EC]
  00d88	e5933000	 ldr         r3, [r3]
  00d8c	e2833028	 add         r3, r3, #0x28
  00d90	e5933000	 ldr         r3, [r3]
  00d94	e2833040	 add         r3, r3, #0x40
  00d98	e5933000	 ldr         r3, [r3]
  00d9c	e58d3024	 str         r3, [sp, #0x24]

; 1403 :     switch (cm_clksel_pll & CLKSEL_SGX_MASK)

  00da0	e59d3024	 ldr         r3, [sp, #0x24]
  00da4	e2033007	 and         r3, r3, #7
  00da8	e58d3064	 str         r3, [sp, #0x64]
  00dac	e59d3064	 ldr         r3, [sp, #0x64]
  00db0	e3530007	 cmp         r3, #7
  00db4	8a000033	 bhi         |$LN13@ClockIniti|
  00db8	e59d2064	 ldr         r2, [sp, #0x64]
  00dbc	e1a03102	 mov         r3, r2, lsl #2
  00dc0	e083300f	 add         r3, r3, pc
  00dc4	e5933004	 ldr         r3, [r3, #4]
  00dc8	e08ff003	 add         pc, pc, r3
  00dcc		 |$LN38@ClockIniti|
  00dcc		 |$LN37@ClockIniti|
  00dcc		 |$LN39@ClockIniti|
  00dcc	0000001c	 DCD         0x1c
  00dd0		 |$LN40@ClockIniti|
  00dd0	00000030	 DCD         0x30
  00dd4		 |$LN41@ClockIniti|
  00dd4	00000044	 DCD         0x44
  00dd8		 |$LN42@ClockIniti|
  00dd8	00000058	 DCD         0x58
  00ddc		 |$LN43@ClockIniti|
  00ddc	0000006c	 DCD         0x6c
  00de0		 |$LN44@ClockIniti|
  00de0	00000080	 DCD         0x80
  00de4		 |$LN45@ClockIniti|
  00de4	00000094	 DCD         0x94
  00de8		 |$LN46@ClockIniti|
  00de8	000000a8	 DCD         0xa8
  00dec		 |$LN12@ClockIniti|

; 1404 :         {
; 1405 :         case 0:
; 1406 :             parentClock = kCORE_CLK;

  00dec	e3a03002	 mov         r3, #2
  00df0	e58d3020	 str         r3, [sp, #0x20]

; 1407 :             outputDivisor = 3;

  00df4	e3a03003	 mov         r3, #3
  00df8	e58d3004	 str         r3, [sp, #4]

; 1408 :             break;

  00dfc	ea000021	 b           |$LN13@ClockIniti|
  00e00		 |$LN11@ClockIniti|

; 1409 : 
; 1410 :         case 1:
; 1411 :             parentClock = kCORE_CLK;

  00e00	e3a03002	 mov         r3, #2
  00e04	e58d3020	 str         r3, [sp, #0x20]

; 1412 :             outputDivisor = 4;

  00e08	e3a03004	 mov         r3, #4
  00e0c	e58d3004	 str         r3, [sp, #4]

; 1413 :             break;

  00e10	ea00001c	 b           |$LN13@ClockIniti|
  00e14		 |$LN10@ClockIniti|

; 1414 : 
; 1415 :         case 2:
; 1416 :             parentClock = kCORE_CLK;

  00e14	e3a03002	 mov         r3, #2
  00e18	e58d3020	 str         r3, [sp, #0x20]

; 1417 :             outputDivisor = 6;

  00e1c	e3a03006	 mov         r3, #6
  00e20	e58d3004	 str         r3, [sp, #4]

; 1418 :             break;

  00e24	ea000017	 b           |$LN13@ClockIniti|
  00e28		 |$LN9@ClockIniti|

; 1419 : 
; 1420 :         case 3:
; 1421 :             parentClock = kCM_96M_FCLK;

  00e28	e3a03021	 mov         r3, #0x21
  00e2c	e58d3020	 str         r3, [sp, #0x20]

; 1422 :             outputDivisor = 1;

  00e30	e3a03001	 mov         r3, #1
  00e34	e58d3004	 str         r3, [sp, #4]

; 1423 :             break;

  00e38	ea000012	 b           |$LN13@ClockIniti|
  00e3c		 |$LN8@ClockIniti|

; 1424 : 
; 1425 :         case 4:
; 1426 :             parentClock = kPRM_96M_192M_ALWON_CLK;

  00e3c	e3a03005	 mov         r3, #5
  00e40	e58d3020	 str         r3, [sp, #0x20]

; 1427 :             outputDivisor = 1;

  00e44	e3a03001	 mov         r3, #1
  00e48	e58d3004	 str         r3, [sp, #4]

; 1428 :             break;

  00e4c	ea00000d	 b           |$LN13@ClockIniti|
  00e50		 |$LN7@ClockIniti|

; 1429 : 
; 1430 :         case 5:
; 1431 :             parentClock = kCORE_CLK;

  00e50	e3a03002	 mov         r3, #2
  00e54	e58d3020	 str         r3, [sp, #0x20]

; 1432 :             outputDivisor = 2;

  00e58	e3a03002	 mov         r3, #2
  00e5c	e58d3004	 str         r3, [sp, #4]

; 1433 :             break;

  00e60	ea000008	 b           |$LN13@ClockIniti|
  00e64		 |$LN6@ClockIniti|

; 1434 : 
; 1435 :         case 6:
; 1436 :             parentClock = kCOREX2_FCLK;

  00e64	e3a03003	 mov         r3, #3
  00e68	e58d3020	 str         r3, [sp, #0x20]

; 1437 :             outputDivisor = 3;

  00e6c	e3a03003	 mov         r3, #3
  00e70	e58d3004	 str         r3, [sp, #4]

; 1438 :             break;

  00e74	ea000003	 b           |$LN13@ClockIniti|
  00e78		 |$LN5@ClockIniti|

; 1439 : 
; 1440 :         case 7:
; 1441 :             parentClock = kCOREX2_FCLK;

  00e78	e3a03003	 mov         r3, #3
  00e7c	e58d3020	 str         r3, [sp, #0x20]

; 1442 :             outputDivisor = 5;

  00e80	e3a03005	 mov         r3, #5
  00e84	e58d3004	 str         r3, [sp, #4]
  00e88		 |$LN13@ClockIniti|

; 1443 :             break;
; 1444 :         }
; 1445 : 
; 1446 :     pDivisors = s_SrcClockTable[kSGX_FCLK].pDivisors;

  00e88	e59f30e4	 ldr         r3, [pc, #0xE4]
  00e8c	e59335c0	 ldr         r3, [r3, #0x5C0]
  00e90	e58d3014	 str         r3, [sp, #0x14]

; 1447 :     for (i = 0; i < pDivisors->count; ++i)

  00e94	e3a03000	 mov         r3, #0
  00e98	e58d3010	 str         r3, [sp, #0x10]
  00e9c	ea000002	 b           |$LN4@ClockIniti|
  00ea0		 |$LN3@ClockIniti|
  00ea0	e59d3010	 ldr         r3, [sp, #0x10]
  00ea4	e2833001	 add         r3, r3, #1
  00ea8	e58d3010	 str         r3, [sp, #0x10]
  00eac		 |$LN4@ClockIniti|
  00eac	e59d2010	 ldr         r2, [sp, #0x10]
  00eb0	e59d3014	 ldr         r3, [sp, #0x14]
  00eb4	e5933000	 ldr         r3, [r3]
  00eb8	e1520003	 cmp         r2, r3
  00ebc	2a000018	 bcs         |$LN2@ClockIniti|

; 1448 :         {
; 1449 :         if (parentClock == pDivisors->SourceClock[i].id)

  00ec0	e59d3014	 ldr         r3, [sp, #0x14]
  00ec4	e2831004	 add         r1, r3, #4
  00ec8	e59d2010	 ldr         r2, [sp, #0x10]
  00ecc	e3a03008	 mov         r3, #8
  00ed0	e0030392	 mul         r3, r2, r3
  00ed4	e0813003	 add         r3, r1, r3
  00ed8	e59d2020	 ldr         r2, [sp, #0x20]
  00edc	e5933000	 ldr         r3, [r3]
  00ee0	e1520003	 cmp         r2, r3
  00ee4	1a00000d	 bne         |$LN1@ClockIniti|

; 1450 :             {
; 1451 :             s_SrcClockTable[kSGX_FCLK].parentClk = parentClock;

  00ee8	e59d2020	 ldr         r2, [sp, #0x20]
  00eec	e59f3080	 ldr         r3, [pc, #0x80]
  00ef0	e58325b4	 str         r2, [r3, #0x5B4]

; 1452 :             pDivisors->SourceClock[i].divisor = cm_clksel_pll & CLKSEL_SGX_MASK;

  00ef4	e59d3024	 ldr         r3, [sp, #0x24]
  00ef8	e2030007	 and         r0, r3, #7
  00efc	e59d3014	 ldr         r3, [sp, #0x14]
  00f00	e2831004	 add         r1, r3, #4
  00f04	e59d2010	 ldr         r2, [sp, #0x10]
  00f08	e3a03008	 mov         r3, #8
  00f0c	e0030392	 mul         r3, r2, r3
  00f10	e0813003	 add         r3, r1, r3
  00f14	e2833004	 add         r3, r3, #4
  00f18	e5830000	 str         r0, [r3]

; 1453 :             break;

  00f1c	ea000000	 b           |$LN2@ClockIniti|
  00f20		 |$LN1@ClockIniti|

; 1454 :             }
; 1455 :         }

  00f20	eaffffde	 b           |$LN3@ClockIniti|
  00f24		 |$LN2@ClockIniti|

; 1456 : 
; 1457 :     OALMSG(OAL_FUNC, (L"-_ClockInitialize()=%d\r\n", rc));

  00f24	e59f3044	 ldr         r3, [pc, #0x44]
  00f28	e5933440	 ldr         r3, [r3, #0x440]
  00f2c	e3130004	 tst         r3, #4
  00f30	0a000005	 beq         |$LN35@ClockIniti|
  00f34	e59d100c	 ldr         r1, [sp, #0xC]
  00f38	e59f002c	 ldr         r0, [pc, #0x2C]
  00f3c	eb000000	 bl          NKDbgPrintfW
  00f40	e3a03001	 mov         r3, #1
  00f44	e58d3068	 str         r3, [sp, #0x68]
  00f48	ea000001	 b           |$LN36@ClockIniti|
  00f4c		 |$LN35@ClockIniti|
  00f4c	e3a03000	 mov         r3, #0
  00f50	e58d3068	 str         r3, [sp, #0x68]
  00f54		 |$LN36@ClockIniti|

; 1458 :     return rc;    

  00f54	e59d300c	 ldr         r3, [sp, #0xC]
  00f58	e58d303c	 str         r3, [sp, #0x3C]

; 1459 : }

  00f5c	e59d003c	 ldr         r0, [sp, #0x3C]
  00f60	e28dd06c	 add         sp, sp, #0x6C
  00f64	e49de004	 ldr         lr, [sp], #4
  00f68	e12fff1e	 bx          lr
  00f6c		 |$LN50@ClockIniti|
  00f6c		 |$LN51@ClockIniti|
  00f6c	00000000	 DCD         |??_C@_1DC@FACACCH@?$AA?9?$AA_?$AAC?$AAl?$AAo?$AAc?$AAk?$AAI?$AAn?$AAi?$AAt?$AAi?$AAa?$AAl?$AAi?$AAz?$AAe?$AA?$CI?$AA?$CJ?$AA?$DN?$AA?$CF?$AAd?$AA?$AN?$AA?6?$AA?$AA@|
  00f70		 |$LN52@ClockIniti|
  00f70	00000000	 DCD         |dpCurSettings|
  00f74		 |$LN53@ClockIniti|
  00f74	00000000	 DCD         |s_SrcClockTable|
  00f78		 |$LN54@ClockIniti|
  00f78	00000000	 DCD         |g_pPrcmCm|
  00f7c		 |$LN55@ClockIniti|
  00f7c	00000000	 DCD         |_dpll_5|
  00f80		 |$LN56@ClockIniti|
  00f80	00000000	 DCD         |_dpll_4|
  00f84		 |$LN57@ClockIniti|
  00f84	00000000	 DCD         |_dpll_3|
  00f88		 |$LN58@ClockIniti|
  00f88	00000000	 DCD         |_dpll_2|
  00f8c		 |$LN59@ClockIniti|
  00f8c	00000000	 DCD         |_dpll_1|
  00f90		 |$LN60@ClockIniti|
  00f90	00000000	 DCD         |??_C@_1CK@FHFJABDF@?$AA?$CL?$AAC?$AAl?$AAo?$AAc?$AAk?$AAI?$AAn?$AAi?$AAt?$AAi?$AAa?$AAl?$AAi?$AAz?$AAe?$AA?$CI?$AA?$CJ?$AA?$AN?$AA?6?$AA?$AA@|
  00f94		 |$M49313|

			 ENDP  ; |ClockInitialize|

	EXPORT	|??_C@_1MG@OONPFGBP@?$AA?$CL?$AA_?$AAC?$AAl?$AAo?$AAc?$AAk?$AAI?$AAn?$AAi?$AAt?$AAi?$AAa?$AAl?$AAi?$AAz?$AAe?$AA?$CI?$AAp?$AAD?$AAp?$AAl?$AAl?$AA?$DN?$AA0?$AAx?$AA?$CF?$AA0?$AA8?$AAX?$AA?0?$AA?5@| [ DATA ] ; `string'

  00010			 AREA	 |.pdata|, PDATA
|$T49337| DCD	|$LN9@ClockIniti@2|
	DCD	0x40006304

  00000			 AREA	 |.rdata|, DATA, READONLY
|??_C@_1MG@OONPFGBP@?$AA?$CL?$AA_?$AAC?$AAl?$AAo?$AAc?$AAk?$AAI?$AAn?$AAi?$AAt?$AAi?$AAa?$AAl?$AAi?$AAz?$AAe?$AA?$CI?$AAp?$AAD?$AAp?$AAl?$AAl?$AA?$DN?$AA0?$AAx?$AA?$CF?$AA0?$AA8?$AAX?$AA?0?$AA?5@| DCB "+"
	DCB	0x0, "_", 0x0, "C", 0x0, "l", 0x0, "o", 0x0, "c", 0x0, "k"
	DCB	0x0, "I", 0x0, "n", 0x0, "i", 0x0, "t", 0x0, "i", 0x0, "a"
	DCB	0x0, "l", 0x0, "i", 0x0, "z", 0x0, "e", 0x0, "(", 0x0, "p"
	DCB	0x0, "D", 0x0, "p", 0x0, "l", 0x0, "l", 0x0, "=", 0x0, "0"
	DCB	0x0, "x", 0x0, "%", 0x0, "0", 0x0, "8", 0x0, "X", 0x0, ","
	DCB	0x0, " ", 0x0, "c", 0x0, "m", 0x0, "_", 0x0, "c", 0x0, "l"
	DCB	0x0, "k", 0x0, "e", 0x0, "n", 0x0, "_", 0x0, "p", 0x0, "l"
	DCB	0x0, "l", 0x0, "=", 0x0, "0", 0x0, "x", 0x0, "%", 0x0, "0"
	DCB	0x0, "8", 0x0, "X", 0x0, ",", 0x0, " ", 0x0, "c", 0x0, "m"
	DCB	0x0, "_", 0x0, "c", 0x0, "l", 0x0, "k", 0x0, "s", 0x0, "e"
	DCB	0x0, "l", 0x0, "_", 0x0, "p", 0x0, "l", 0x0, "l", 0x0, "="
	DCB	0x0, "0", 0x0, "x", 0x0, "%", 0x0, "0", 0x0, "8", 0x0, "X"
	DCB	0x0, "c", 0x0, "m", 0x0, "_", 0x0, "a", 0x0, "u", 0x0, "t"
	DCB	0x0, "o", 0x0, "i", 0x0, "d", 0x0, "l", 0x0, "e", 0x0, "_"
	DCB	0x0, "p", 0x0, "l", 0x0, "l", 0x0, "=", 0x0, "0", 0x0, "x"
	DCB	0x0, "%", 0x0, "0", 0x0, "8", 0x0, "X", 0x0, ")", 0x0, 0xd
	DCB	0x0, 0xa, 0x0, 0x0, 0x0			; `string'
; Function compile flags: /Odtp

  00f94			 AREA	 |.text|, CODE, ARM

  00f94		 |_ClockInitialize| PROC

; 395  : {

  00f94		 |$LN9@ClockIniti@2|
  00f94	e1a0c00d	 mov         r12, sp
  00f98	e92d000f	 stmdb       sp!, {r0 - r3}
  00f9c	e92d5000	 stmdb       sp!, {r12, lr}
  00fa0	e24dd018	 sub         sp, sp, #0x18
  00fa4		 |$M49334|

; 396  :     BOOL rc = TRUE;

  00fa4	e3a03001	 mov         r3, #1
  00fa8	e58d3004	 str         r3, [sp, #4]

; 397  :     OALMSG(OAL_FUNC, (L"+_ClockInitialize("
; 398  :         L"pDpll=0x%08X, cm_clken_pll=0x%08X, cm_clksel_pll=0x%08X"
; 399  :         L"cm_autoidle_pll=0x%08X)\r\n", pDpll,
; 400  :         cm_clken_pll, cm_clksel_pll, cm_autoidle_pll)
; 401  :         );

  00fac	e59f3164	 ldr         r3, [pc, #0x164]
  00fb0	e5933440	 ldr         r3, [r3, #0x440]
  00fb4	e3130004	 tst         r3, #4
  00fb8	0a000009	 beq         |$LN3@ClockIniti@2|
  00fbc	e59d302c	 ldr         r3, [sp, #0x2C]
  00fc0	e58d3000	 str         r3, [sp]
  00fc4	e59d3028	 ldr         r3, [sp, #0x28]
  00fc8	e59d2024	 ldr         r2, [sp, #0x24]
  00fcc	e59d1020	 ldr         r1, [sp, #0x20]
  00fd0	e59f0144	 ldr         r0, [pc, #0x144]
  00fd4	eb000000	 bl          NKDbgPrintfW
  00fd8	e3a03001	 mov         r3, #1
  00fdc	e58d3010	 str         r3, [sp, #0x10]
  00fe0	ea000001	 b           |$LN4@ClockIniti@2|
  00fe4		 |$LN3@ClockIniti@2|
  00fe4	e3a03000	 mov         r3, #0
  00fe8	e58d3010	 str         r3, [sp, #0x10]
  00fec		 |$LN4@ClockIniti@2|

; 402  : 
; 403  :     // all values are normalized and then cached in SDRAM
; 404  : 
; 405  :     // save autoidle modes
; 406  :     pDpll->dpllAutoidleState = (cm_autoidle_pll & DPLL_AUTOIDLE_MASK) >> DPLL_AUTOIDLE_SHIFT;

  00fec	e59d302c	 ldr         r3, [sp, #0x2C]
  00ff0	e2032007	 and         r2, r3, #7
  00ff4	e59d3020	 ldr         r3, [sp, #0x20]
  00ff8	e2833020	 add         r3, r3, #0x20
  00ffc	e5832000	 str         r2, [r3]

; 407  : 
; 408  :     // save dpll modes
; 409  :     pDpll->lowPowerEnabled = (cm_clken_pll & EN_DPLL_LPMODE) >> EN_DPLL_LPMODE_SHIFT;

  01000	e59d3024	 ldr         r3, [sp, #0x24]
  01004	e2033b01	 and         r3, r3, #1, 22
  01008	e1a02523	 mov         r2, r3, lsr #10
  0100c	e59d3020	 ldr         r3, [sp, #0x20]
  01010	e5832000	 str         r2, [r3]

; 410  :     pDpll->dpllMode = (cm_clken_pll & DPLL_MODE_MASK) >> DPLL_MODE_SHIFT;

  01014	e59d3024	 ldr         r3, [sp, #0x24]
  01018	e2032007	 and         r2, r3, #7
  0101c	e59d3020	 ldr         r3, [sp, #0x20]
  01020	e2833010	 add         r3, r3, #0x10
  01024	e5832000	 str         r2, [r3]

; 411  :     pDpll->driftGuard = (cm_clken_pll & EN_DPLL_DRIFTGUARD) >> EN_DPLL_DRIFTGUARD_SHIFT;

  01028	e59d3024	 ldr         r3, [sp, #0x24]
  0102c	e2033008	 and         r3, r3, #8
  01030	e1a021a3	 mov         r2, r3, lsr #3
  01034	e59d3020	 ldr         r3, [sp, #0x20]
  01038	e283300c	 add         r3, r3, #0xC
  0103c	e5832000	 str         r2, [r3]

; 412  :     pDpll->rampTime = (cm_clken_pll & DPLL_RAMPTIME_MASK) >> DPLL_RAMPTIME_SHIFT;

  01040	e59d3024	 ldr         r3, [sp, #0x24]
  01044	e2033c03	 and         r3, r3, #3, 24
  01048	e1a02423	 mov         r2, r3, lsr #8
  0104c	e59d3020	 ldr         r3, [sp, #0x20]
  01050	e2833004	 add         r3, r3, #4
  01054	e5832000	 str         r2, [r3]

; 413  : 
; 414  :     // frequency info
; 415  :     pDpll->freqSelection = (cm_clken_pll & DPLL_FREQSEL_MASK) >> DPLL_FREQSEL_SHIFT;

  01058	e59d3024	 ldr         r3, [sp, #0x24]
  0105c	e20330f0	 and         r3, r3, #0xF0
  01060	e1a02223	 mov         r2, r3, lsr #4
  01064	e59d3020	 ldr         r3, [sp, #0x20]
  01068	e2833008	 add         r3, r3, #8
  0106c	e5832000	 str         r2, [r3]

; 416  :     pDpll->sourceDivisor = (cm_clksel_pll & DPLL_CLK_SRC_MASK) >> DPLL_CLK_SRC_SHIFT;

  01070	e59d3028	 ldr         r3, [sp, #0x28]
  01074	e203373e	 and         r3, r3, #0x3E, 14
  01078	e1a029a3	 mov         r2, r3, lsr #19
  0107c	e59d3020	 ldr         r3, [sp, #0x20]
  01080	e2833014	 add         r3, r3, #0x14
  01084	e5832000	 str         r2, [r3]

; 417  :     pDpll->divisor = (cm_clksel_pll & DPLL_DIV_MASK) >> DPLL_DIV_SHIFT;

  01088	e59d3028	 ldr         r3, [sp, #0x28]
  0108c	e203207f	 and         r2, r3, #0x7F
  01090	e59d3020	 ldr         r3, [sp, #0x20]
  01094	e283301c	 add         r3, r3, #0x1C
  01098	e5832000	 str         r2, [r3]

; 418  :     pDpll->multiplier = (cm_clksel_pll & DPLL_MULT_MASK) >> DPLL_MULT_SHIFT;

  0109c	e59d2028	 ldr         r2, [sp, #0x28]
  010a0	e3a03a7f	 mov         r3, #0x7F, 20
  010a4	e3833c0f	 orr         r3, r3, #0xF, 24
  010a8	e0023003	 and         r3, r2, r3
  010ac	e1a02423	 mov         r2, r3, lsr #8
  010b0	e59d3020	 ldr         r3, [sp, #0x20]
  010b4	e2833018	 add         r3, r3, #0x18
  010b8	e5832000	 str         r2, [r3]

; 419  :     pDpll->outputDivisor = outputDivisor;

  010bc	e59d3020	 ldr         r3, [sp, #0x20]
  010c0	e2832024	 add         r2, r3, #0x24
  010c4	e59d3030	 ldr         r3, [sp, #0x30]
  010c8	e5823000	 str         r3, [r2]

; 420  : 
; 421  :     OALMSG(OAL_FUNC, (L"-_ClockInitialize()=%d\r\n", rc));

  010cc	e59f3044	 ldr         r3, [pc, #0x44]
  010d0	e5933440	 ldr         r3, [r3, #0x440]
  010d4	e3130004	 tst         r3, #4
  010d8	0a000005	 beq         |$LN5@ClockIniti@2|
  010dc	e59d1004	 ldr         r1, [sp, #4]
  010e0	e59f002c	 ldr         r0, [pc, #0x2C]
  010e4	eb000000	 bl          NKDbgPrintfW
  010e8	e3a03001	 mov         r3, #1
  010ec	e58d3014	 str         r3, [sp, #0x14]
  010f0	ea000001	 b           |$LN6@ClockIniti@2|
  010f4		 |$LN5@ClockIniti@2|
  010f4	e3a03000	 mov         r3, #0
  010f8	e58d3014	 str         r3, [sp, #0x14]
  010fc		 |$LN6@ClockIniti@2|

; 422  :     return rc;    

  010fc	e59d3004	 ldr         r3, [sp, #4]
  01100	e58d300c	 str         r3, [sp, #0xC]

; 423  : }

  01104	e59d000c	 ldr         r0, [sp, #0xC]
  01108	e28dd018	 add         sp, sp, #0x18
  0110c	e89d6000	 ldmia       sp, {sp, lr}
  01110	e12fff1e	 bx          lr
  01114		 |$LN10@ClockIniti@2|
  01114		 |$LN11@ClockIniti@2|
  01114	00000000	 DCD         |??_C@_1DC@FACACCH@?$AA?9?$AA_?$AAC?$AAl?$AAo?$AAc?$AAk?$AAI?$AAn?$AAi?$AAt?$AAi?$AAa?$AAl?$AAi?$AAz?$AAe?$AA?$CI?$AA?$CJ?$AA?$DN?$AA?$CF?$AAd?$AA?$AN?$AA?6?$AA?$AA@|
  01118		 |$LN12@ClockIniti@2|
  01118	00000000	 DCD         |dpCurSettings|
  0111c		 |$LN13@ClockIniti@2|
  0111c	00000000	 DCD         |??_C@_1MG@OONPFGBP@?$AA?$CL?$AA_?$AAC?$AAl?$AAo?$AAc?$AAk?$AAI?$AAn?$AAi?$AAt?$AAi?$AAa?$AAl?$AAi?$AAz?$AAe?$AA?$CI?$AAp?$AAD?$AAp?$AAl?$AAl?$AA?$DN?$AA0?$AAx?$AA?$CF?$AA0?$AA8?$AAX?$AA?0?$AA?5@|
  01120		 |$M49335|

			 ENDP  ; |_ClockInitialize|

	EXPORT	|??_C@_1DO@ELKPCHFC@?$AA?9?$AAC?$AAl?$AAo?$AAc?$AAk?$AAU?$AAp?$AAd?$AAa?$AAt?$AAe?$AAP?$AAa?$AAr?$AAe?$AAn?$AAt?$AAC?$AAl?$AAo?$AAc?$AAk?$AA?$CI?$AA?$CJ?$AA?$DN?$AA?$CF?$AAd?$AA?$AN?$AA?6?$AA?$AA@| [ DATA ] ; `string'
	EXPORT	|??_C@_1GG@NDNOIECG@?$AA?$CL?$AAC?$AAl?$AAo?$AAc?$AAk?$AAU?$AAp?$AAd?$AAa?$AAt?$AAe?$AAP?$AAa?$AAr?$AAe?$AAn?$AAt?$AAC?$AAl?$AAo?$AAc?$AAk?$AA?$CI?$AAs?$AAr?$AAc?$AAC?$AAl?$AAk?$AAI?$AAd@| [ DATA ] ; `string'
	EXPORT	|ClockUpdateParentClock|
	IMPORT	|g_bSingleThreaded|

  00018			 AREA	 |.pdata|, PDATA
|$T49353| DCD	|$LN19@ClockUpdat|
	DCD	0x40008204

  00000			 AREA	 |.rdata|, DATA, READONLY
|??_C@_1DO@ELKPCHFC@?$AA?9?$AAC?$AAl?$AAo?$AAc?$AAk?$AAU?$AAp?$AAd?$AAa?$AAt?$AAe?$AAP?$AAa?$AAr?$AAe?$AAn?$AAt?$AAC?$AAl?$AAo?$AAc?$AAk?$AA?$CI?$AA?$CJ?$AA?$DN?$AA?$CF?$AAd?$AA?$AN?$AA?6?$AA?$AA@| DCB "-"
	DCB	0x0, "C", 0x0, "l", 0x0, "o", 0x0, "c", 0x0, "k", 0x0, "U"
	DCB	0x0, "p", 0x0, "d", 0x0, "a", 0x0, "t", 0x0, "e", 0x0, "P"
	DCB	0x0, "a", 0x0, "r", 0x0, "e", 0x0, "n", 0x0, "t", 0x0, "C"
	DCB	0x0, "l", 0x0, "o", 0x0, "c", 0x0, "k", 0x0, "(", 0x0, ")"
	DCB	0x0, "=", 0x0, "%", 0x0, "d", 0x0, 0xd, 0x0, 0xa, 0x0, 0x0
	DCB	0x0					; `string'

  00000			 AREA	 |.rdata|, DATA, READONLY
|??_C@_1GG@NDNOIECG@?$AA?$CL?$AAC?$AAl?$AAo?$AAc?$AAk?$AAU?$AAp?$AAd?$AAa?$AAt?$AAe?$AAP?$AAa?$AAr?$AAe?$AAn?$AAt?$AAC?$AAl?$AAo?$AAc?$AAk?$AA?$CI?$AAs?$AAr?$AAc?$AAC?$AAl?$AAk?$AAI?$AAd@| DCB "+"
	DCB	0x0, "C", 0x0, "l", 0x0, "o", 0x0, "c", 0x0, "k", 0x0, "U"
	DCB	0x0, "p", 0x0, "d", 0x0, "a", 0x0, "t", 0x0, "e", 0x0, "P"
	DCB	0x0, "a", 0x0, "r", 0x0, "e", 0x0, "n", 0x0, "t", 0x0, "C"
	DCB	0x0, "l", 0x0, "o", 0x0, "c", 0x0, "k", 0x0, "(", 0x0, "s"
	DCB	0x0, "r", 0x0, "c", 0x0, "C", 0x0, "l", 0x0, "k", 0x0, "I"
	DCB	0x0, "d", 0x0, "=", 0x0, "%", 0x0, "d", 0x0, ",", 0x0, " "
	DCB	0x0, "b", 0x0, "E", 0x0, "n", 0x0, "a", 0x0, "b", 0x0, "l"
	DCB	0x0, "e", 0x0, "=", 0x0, "%", 0x0, "d", 0x0, ")", 0x0, 0xd
	DCB	0x0, 0xa, 0x0, 0x0, 0x0			; `string'
; Function compile flags: /Odtp

  01120			 AREA	 |.text|, CODE, ARM

  01120		 |ClockUpdateParentClock| PROC

; 1467 : {

  01120		 |$LN19@ClockUpdat|
  01120	e1a0c00d	 mov         r12, sp
  01124	e92d0003	 stmdb       sp!, {r0, r1}
  01128	e92d5000	 stmdb       sp!, {r12, lr}
  0112c	e24dd014	 sub         sp, sp, #0x14
  01130		 |$M49350|

; 1468 :     BOOL rc = FALSE;

  01130	e3a03000	 mov         r3, #0
  01134	e58d3000	 str         r3, [sp]

; 1469 :     if (!g_bSingleThreaded)

  01138	e59f31dc	 ldr         r3, [pc, #0x1DC]
  0113c	e5933000	 ldr         r3, [r3]
  01140	e3530000	 cmp         r3, #0
  01144	1a00000c	 bne         |$LN8@ClockUpdat|

; 1470 :         OALMSG(OAL_FUNC, (L"+ClockUpdateParentClock"
; 1471 :             L"(srcClkId=%d, bEnable=%d)\r\n", srcClkId, bEnable)
; 1472 :             );

  01148	e59f31c8	 ldr         r3, [pc, #0x1C8]
  0114c	e5933440	 ldr         r3, [r3, #0x440]
  01150	e3130004	 tst         r3, #4
  01154	0a000006	 beq         |$LN11@ClockUpdat|
  01158	e59d2020	 ldr         r2, [sp, #0x20]
  0115c	e59d101c	 ldr         r1, [sp, #0x1C]
  01160	e59f01bc	 ldr         r0, [pc, #0x1BC]
  01164	eb000000	 bl          NKDbgPrintfW
  01168	e3a03001	 mov         r3, #1
  0116c	e58d3008	 str         r3, [sp, #8]
  01170	ea000001	 b           |$LN12@ClockUpdat|
  01174		 |$LN11@ClockUpdat|
  01174	e3a03000	 mov         r3, #0
  01178	e58d3008	 str         r3, [sp, #8]
  0117c		 |$LN12@ClockUpdat|
  0117c		 |$LN8@ClockUpdat|

; 1473 : 
; 1474 :     // quick check for valid source clock id's
; 1475 :     if ((UINT)srcClkId > kSOURCE_CLOCK_COUNT) goto cleanUp;

  0117c	e59d301c	 ldr         r3, [sp, #0x1C]
  01180	e353005a	 cmp         r3, #0x5A
  01184	9a000000	 bls         |$LN7@ClockUpdat|
  01188	ea00004b	 b           |$cleanUp$47678|
  0118c		 |$LN7@ClockUpdat|

; 1476 :     // check if clock is being enabled/disabled
; 1477 :     if ((s_SrcClockTable[srcClkId].refCount == 0 && bEnable == TRUE) ||
; 1478 :         (s_SrcClockTable[srcClkId].refCount == 1 && bEnable == FALSE))

  0118c	e59d101c	 ldr         r1, [sp, #0x1C]
  01190	e3a03014	 mov         r3, #0x14
  01194	e0020391	 mul         r2, r1, r3
  01198	e59f3180	 ldr         r3, [pc, #0x180]
  0119c	e0833002	 add         r3, r3, r2
  011a0	e2833004	 add         r3, r3, #4
  011a4	e5933000	 ldr         r3, [r3]
  011a8	e3530000	 cmp         r3, #0
  011ac	1a000002	 bne         |$LN4@ClockUpdat|
  011b0	e59d3020	 ldr         r3, [sp, #0x20]
  011b4	e3530001	 cmp         r3, #1
  011b8	0a00000b	 beq         |$LN5@ClockUpdat|
  011bc		 |$LN4@ClockUpdat|
  011bc	e59d101c	 ldr         r1, [sp, #0x1C]
  011c0	e3a03014	 mov         r3, #0x14
  011c4	e0020391	 mul         r2, r1, r3
  011c8	e59f3150	 ldr         r3, [pc, #0x150]
  011cc	e0833002	 add         r3, r3, r2
  011d0	e2833004	 add         r3, r3, #4
  011d4	e5933000	 ldr         r3, [r3]
  011d8	e3530001	 cmp         r3, #1
  011dc	1a00001c	 bne         |$LN6@ClockUpdat|
  011e0	e59d3020	 ldr         r3, [sp, #0x20]
  011e4	e3530000	 cmp         r3, #0
  011e8	1a000019	 bne         |$LN6@ClockUpdat|
  011ec		 |$LN5@ClockUpdat|

; 1479 :         {         
; 1480 :         if (s_SrcClockTable[srcClkId].bIsDpllSrcClk == TRUE)

  011ec	e59d101c	 ldr         r1, [sp, #0x1C]
  011f0	e3a03014	 mov         r3, #0x14
  011f4	e0020391	 mul         r2, r1, r3
  011f8	e59f3120	 ldr         r3, [pc, #0x120]
  011fc	e0833002	 add         r3, r3, r2
  01200	e2833008	 add         r3, r3, #8
  01204	e5933000	 ldr         r3, [r3]
  01208	e3530001	 cmp         r3, #1
  0120c	1a000008	 bne         |$LN3@ClockUpdat|

; 1481 :             {
; 1482 :             // update dpll output clocks
; 1483 :             _ClockUpdateDpllOutput(s_SrcClockTable[srcClkId].parentClk, bEnable);

  01210	e59d1020	 ldr         r1, [sp, #0x20]
  01214	e59d001c	 ldr         r0, [sp, #0x1C]
  01218	e3a03014	 mov         r3, #0x14
  0121c	e0020390	 mul         r2, r0, r3
  01220	e59f30f8	 ldr         r3, [pc, #0xF8]
  01224	e0833002	 add         r3, r3, r2
  01228	e5930000	 ldr         r0, [r3]
  0122c	eb000000	 bl          _ClockUpdateDpllOutput

; 1484 :             }
; 1485 :         else

  01230	ea000007	 b           |$LN2@ClockUpdat|
  01234		 |$LN3@ClockUpdat|

; 1486 :             {
; 1487 :             ClockUpdateParentClock(s_SrcClockTable[srcClkId].parentClk, bEnable);

  01234	e59d1020	 ldr         r1, [sp, #0x20]
  01238	e59d001c	 ldr         r0, [sp, #0x1C]
  0123c	e3a03014	 mov         r3, #0x14
  01240	e0020390	 mul         r2, r0, r3
  01244	e59f30d4	 ldr         r3, [pc, #0xD4]
  01248	e0833002	 add         r3, r3, r2
  0124c	e5930000	 ldr         r0, [r3]
  01250	eb000000	 bl          ClockUpdateParentClock
  01254		 |$LN2@ClockUpdat|
  01254		 |$LN6@ClockUpdat|

; 1488 :             }
; 1489 :         }
; 1490 :     // increment src clk refCount
; 1491 :     s_SrcClockTable[srcClkId].refCount += (bEnable != FALSE) ? 1 : -1;

  01254	e59d3020	 ldr         r3, [sp, #0x20]
  01258	e3530000	 cmp         r3, #0
  0125c	0a000002	 beq         |$LN13@ClockUpdat|
  01260	e3a03001	 mov         r3, #1
  01264	e58d300c	 str         r3, [sp, #0xC]
  01268	ea000001	 b           |$LN14@ClockUpdat|
  0126c		 |$LN13@ClockUpdat|
  0126c	e3e03000	 mvn         r3, #0
  01270	e58d300c	 str         r3, [sp, #0xC]
  01274		 |$LN14@ClockUpdat|
  01274	e59d101c	 ldr         r1, [sp, #0x1C]
  01278	e3a03014	 mov         r3, #0x14
  0127c	e0020391	 mul         r2, r1, r3
  01280	e59f3098	 ldr         r3, [pc, #0x98]
  01284	e0833002	 add         r3, r3, r2
  01288	e2833004	 add         r3, r3, #4
  0128c	e5932000	 ldr         r2, [r3]
  01290	e59d300c	 ldr         r3, [sp, #0xC]
  01294	e0820003	 add         r0, r2, r3
  01298	e59d101c	 ldr         r1, [sp, #0x1C]
  0129c	e3a03014	 mov         r3, #0x14
  012a0	e0020391	 mul         r2, r1, r3
  012a4	e59f3074	 ldr         r3, [pc, #0x74]
  012a8	e0833002	 add         r3, r3, r2
  012ac	e2833004	 add         r3, r3, #4
  012b0	e5830000	 str         r0, [r3]

; 1492 :     
; 1493 :     rc = TRUE;

  012b4	e3a03001	 mov         r3, #1
  012b8	e58d3000	 str         r3, [sp]
  012bc		 |$cleanUp$47678|

; 1494 : cleanUp:    
; 1495 :     if (!g_bSingleThreaded)

  012bc	e59f3058	 ldr         r3, [pc, #0x58]
  012c0	e5933000	 ldr         r3, [r3]
  012c4	e3530000	 cmp         r3, #0
  012c8	1a00000b	 bne         |$LN1@ClockUpdat|

; 1496 :         OALMSG(OAL_FUNC, (L"-ClockUpdateParentClock()=%d\r\n", rc));

  012cc	e59f3044	 ldr         r3, [pc, #0x44]
  012d0	e5933440	 ldr         r3, [r3, #0x440]
  012d4	e3130004	 tst         r3, #4
  012d8	0a000005	 beq         |$LN15@ClockUpdat|
  012dc	e59d1000	 ldr         r1, [sp]
  012e0	e59f002c	 ldr         r0, [pc, #0x2C]
  012e4	eb000000	 bl          NKDbgPrintfW
  012e8	e3a03001	 mov         r3, #1
  012ec	e58d3010	 str         r3, [sp, #0x10]
  012f0	ea000001	 b           |$LN16@ClockUpdat|
  012f4		 |$LN15@ClockUpdat|
  012f4	e3a03000	 mov         r3, #0
  012f8	e58d3010	 str         r3, [sp, #0x10]
  012fc		 |$LN16@ClockUpdat|
  012fc		 |$LN1@ClockUpdat|

; 1497 :     return rc;

  012fc	e59d3000	 ldr         r3, [sp]
  01300	e58d3004	 str         r3, [sp, #4]

; 1498 : }

  01304	e59d0004	 ldr         r0, [sp, #4]
  01308	e28dd014	 add         sp, sp, #0x14
  0130c	e89d6000	 ldmia       sp, {sp, lr}
  01310	e12fff1e	 bx          lr
  01314		 |$LN20@ClockUpdat|
  01314		 |$LN21@ClockUpdat|
  01314	00000000	 DCD         |??_C@_1DO@ELKPCHFC@?$AA?9?$AAC?$AAl?$AAo?$AAc?$AAk?$AAU?$AAp?$AAd?$AAa?$AAt?$AAe?$AAP?$AAa?$AAr?$AAe?$AAn?$AAt?$AAC?$AAl?$AAo?$AAc?$AAk?$AA?$CI?$AA?$CJ?$AA?$DN?$AA?$CF?$AAd?$AA?$AN?$AA?6?$AA?$AA@|
  01318		 |$LN22@ClockUpdat|
  01318	00000000	 DCD         |dpCurSettings|
  0131c		 |$LN23@ClockUpdat|
  0131c	00000000	 DCD         |g_bSingleThreaded|
  01320		 |$LN24@ClockUpdat|
  01320	00000000	 DCD         |s_SrcClockTable|
  01324		 |$LN25@ClockUpdat|
  01324	00000000	 DCD         |??_C@_1GG@NDNOIECG@?$AA?$CL?$AAC?$AAl?$AAo?$AAc?$AAk?$AAU?$AAp?$AAd?$AAa?$AAt?$AAe?$AAP?$AAa?$AAr?$AAe?$AAn?$AAt?$AAC?$AAl?$AAo?$AAc?$AAk?$AA?$CI?$AAs?$AAr?$AAc?$AAC?$AAl?$AAk?$AAI?$AAd@|
  01328		 |$M49351|

			 ENDP  ; |ClockUpdateParentClock|

	EXPORT	|??_C@_1DO@BLFNJPIJ@?$AA?9?$AA_?$AAC?$AAl?$AAo?$AAc?$AAk?$AAU?$AAp?$AAd?$AAa?$AAt?$AAe?$AAD?$AAp?$AAl?$AAl?$AAO?$AAu?$AAt?$AAp?$AAu?$AAt?$AA?$CI?$AA?$CJ?$AA?$DN?$AA?$CF?$AAd?$AA?$AN?$AA?6?$AA?$AA@| [ DATA ] ; `string'
	EXPORT	|??_C@_1GG@DBFCOCMC@?$AA?$CL?$AA_?$AAC?$AAl?$AAo?$AAc?$AAk?$AAU?$AAp?$AAd?$AAa?$AAt?$AAe?$AAD?$AAp?$AAl?$AAl?$AAO?$AAu?$AAt?$AAp?$AAu?$AAt?$AA?$CI?$AAs?$AAr?$AAc?$AAC?$AAl?$AAk?$AAI?$AAd@| [ DATA ] ; `string'

  00020			 AREA	 |.pdata|, PDATA
|$T49371| DCD	|$LN20@ClockUpdat@2|
	DCD	0x4000ac04

  00000			 AREA	 |.rdata|, DATA, READONLY
|??_C@_1DO@BLFNJPIJ@?$AA?9?$AA_?$AAC?$AAl?$AAo?$AAc?$AAk?$AAU?$AAp?$AAd?$AAa?$AAt?$AAe?$AAD?$AAp?$AAl?$AAl?$AAO?$AAu?$AAt?$AAp?$AAu?$AAt?$AA?$CI?$AA?$CJ?$AA?$DN?$AA?$CF?$AAd?$AA?$AN?$AA?6?$AA?$AA@| DCB "-"
	DCB	0x0, "_", 0x0, "C", 0x0, "l", 0x0, "o", 0x0, "c", 0x0, "k"
	DCB	0x0, "U", 0x0, "p", 0x0, "d", 0x0, "a", 0x0, "t", 0x0, "e"
	DCB	0x0, "D", 0x0, "p", 0x0, "l", 0x0, "l", 0x0, "O", 0x0, "u"
	DCB	0x0, "t", 0x0, "p", 0x0, "u", 0x0, "t", 0x0, "(", 0x0, ")"
	DCB	0x0, "=", 0x0, "%", 0x0, "d", 0x0, 0xd, 0x0, 0xa, 0x0, 0x0
	DCB	0x0					; `string'

  00000			 AREA	 |.rdata|, DATA, READONLY
|??_C@_1GG@DBFCOCMC@?$AA?$CL?$AA_?$AAC?$AAl?$AAo?$AAc?$AAk?$AAU?$AAp?$AAd?$AAa?$AAt?$AAe?$AAD?$AAp?$AAl?$AAl?$AAO?$AAu?$AAt?$AAp?$AAu?$AAt?$AA?$CI?$AAs?$AAr?$AAc?$AAC?$AAl?$AAk?$AAI?$AAd@| DCB "+"
	DCB	0x0, "_", 0x0, "C", 0x0, "l", 0x0, "o", 0x0, "c", 0x0, "k"
	DCB	0x0, "U", 0x0, "p", 0x0, "d", 0x0, "a", 0x0, "t", 0x0, "e"
	DCB	0x0, "D", 0x0, "p", 0x0, "l", 0x0, "l", 0x0, "O", 0x0, "u"
	DCB	0x0, "t", 0x0, "p", 0x0, "u", 0x0, "t", 0x0, "(", 0x0, "s"
	DCB	0x0, "r", 0x0, "c", 0x0, "C", 0x0, "l", 0x0, "k", 0x0, "I"
	DCB	0x0, "d", 0x0, "=", 0x0, "%", 0x0, "d", 0x0, ",", 0x0, " "
	DCB	0x0, "b", 0x0, "E", 0x0, "n", 0x0, "a", 0x0, "b", 0x0, "l"
	DCB	0x0, "e", 0x0, "=", 0x0, "%", 0x0, "d", 0x0, ")", 0x0, 0xd
	DCB	0x0, 0xa, 0x0, 0x0, 0x0			; `string'
; Function compile flags: /Odtp

  01328			 AREA	 |.text|, CODE, ARM

  01328		 |_ClockUpdateDpllOutput| PROC

; 1118 : {

  01328		 |$LN20@ClockUpdat@2|
  01328	e1a0c00d	 mov         r12, sp
  0132c	e92d0003	 stmdb       sp!, {r0, r1}
  01330	e92d5000	 stmdb       sp!, {r12, lr}
  01334	e24dd01c	 sub         sp, sp, #0x1C
  01338		 |$M49368|

; 1119 :     int addRef;
; 1120 :     if (!g_bSingleThreaded)

  01338	e59f3284	 ldr         r3, [pc, #0x284]
  0133c	e5933000	 ldr         r3, [r3]
  01340	e3530000	 cmp         r3, #0
  01344	1a00000c	 bne         |$LN9@ClockUpdat@2|

; 1121 :         OALMSG(OAL_FUNC, (L"+_ClockUpdateDpllOutput"
; 1122 :             L"(srcClkId=%d, bEnable=%d)\r\n", dpllClkId, bEnable)
; 1123 :             );

  01348	e59f3270	 ldr         r3, [pc, #0x270]
  0134c	e5933440	 ldr         r3, [r3, #0x440]
  01350	e3130004	 tst         r3, #4
  01354	0a000006	 beq         |$LN12@ClockUpdat@2|
  01358	e59d2028	 ldr         r2, [sp, #0x28]
  0135c	e59d1024	 ldr         r1, [sp, #0x24]
  01360	e59f026c	 ldr         r0, [pc, #0x26C]
  01364	eb000000	 bl          NKDbgPrintfW
  01368	e3a03001	 mov         r3, #1
  0136c	e58d3010	 str         r3, [sp, #0x10]
  01370	ea000001	 b           |$LN13@ClockUpdat@2|
  01374		 |$LN12@ClockUpdat@2|
  01374	e3a03000	 mov         r3, #0
  01378	e58d3010	 str         r3, [sp, #0x10]
  0137c		 |$LN13@ClockUpdat@2|
  0137c		 |$LN9@ClockUpdat@2|

; 1124 : 
; 1125 :     // quick check for valid dpll source clock id's
; 1126 :     if ((UINT)dpllClkId > kDPLL_CLKOUT_COUNT) goto cleanUp;

  0137c	e59d3024	 ldr         r3, [sp, #0x24]
  01380	e3530010	 cmp         r3, #0x10
  01384	9a000000	 bls         |$LN8@ClockUpdat@2|
  01388	ea000075	 b           |$cleanUp$47506|
  0138c		 |$LN8@ClockUpdat@2|

; 1127 : 
; 1128 :     // setup increment value
; 1129 :     addRef = (bEnable != FALSE) ? 1 : -1;

  0138c	e59d3028	 ldr         r3, [sp, #0x28]
  01390	e3530000	 cmp         r3, #0
  01394	0a000002	 beq         |$LN14@ClockUpdat@2|
  01398	e3a03001	 mov         r3, #1
  0139c	e58d3014	 str         r3, [sp, #0x14]
  013a0	ea000001	 b           |$LN15@ClockUpdat@2|
  013a4		 |$LN14@ClockUpdat@2|
  013a4	e3e03000	 mvn         r3, #0
  013a8	e58d3014	 str         r3, [sp, #0x14]
  013ac		 |$LN15@ClockUpdat@2|
  013ac	e59d3014	 ldr         r3, [sp, #0x14]
  013b0	e58d3000	 str         r3, [sp]

; 1130 : 
; 1131 :     // update dpll refCount
; 1132 :     if ((s_DpllClkOutTable[dpllClkId].refCount == 0 && bEnable == TRUE) ||
; 1133 :         (s_DpllClkOutTable[dpllClkId].refCount == 1 && bEnable == FALSE))

  013b4	e59d1024	 ldr         r1, [sp, #0x24]
  013b8	e3a03008	 mov         r3, #8
  013bc	e0020391	 mul         r2, r1, r3
  013c0	e59f3200	 ldr         r3, [pc, #0x200]
  013c4	e0833002	 add         r3, r3, r2
  013c8	e2833004	 add         r3, r3, #4
  013cc	e5933000	 ldr         r3, [r3]
  013d0	e3530000	 cmp         r3, #0
  013d4	1a000002	 bne         |$LN5@ClockUpdat@2|
  013d8	e59d3028	 ldr         r3, [sp, #0x28]
  013dc	e3530001	 cmp         r3, #1
  013e0	0a00000b	 beq         |$LN6@ClockUpdat@2|
  013e4		 |$LN5@ClockUpdat@2|
  013e4	e59d1024	 ldr         r1, [sp, #0x24]
  013e8	e3a03008	 mov         r3, #8
  013ec	e0020391	 mul         r2, r1, r3
  013f0	e59f31d0	 ldr         r3, [pc, #0x1D0]
  013f4	e0833002	 add         r3, r3, r2
  013f8	e2833004	 add         r3, r3, #4
  013fc	e5933000	 ldr         r3, [r3]
  01400	e3530001	 cmp         r3, #1
  01404	1a000046	 bne         |$LN7@ClockUpdat@2|
  01408	e59d3028	 ldr         r3, [sp, #0x28]
  0140c	e3530000	 cmp         r3, #0
  01410	1a000043	 bne         |$LN7@ClockUpdat@2|
  01414		 |$LN6@ClockUpdat@2|

; 1134 :         {
; 1135 :         int dpllId = s_DpllClkOutTable[dpllClkId].dpllDomain;

  01414	e59d1024	 ldr         r1, [sp, #0x24]
  01418	e3a03008	 mov         r3, #8
  0141c	e0020391	 mul         r2, r1, r3
  01420	e59f31a0	 ldr         r3, [pc, #0x1A0]
  01424	e0833002	 add         r3, r3, r2
  01428	e5933000	 ldr         r3, [r3]
  0142c	e58d3004	 str         r3, [sp, #4]

; 1136 : 
; 1137 :         // update vdd refCount
; 1138 :         if ((s_DpllTable[dpllId].refCount == 0 && bEnable == TRUE) ||
; 1139 :             (s_DpllTable[dpllId].refCount == 1 && bEnable == FALSE))

  01430	e59d1004	 ldr         r1, [sp, #4]
  01434	e3a0300c	 mov         r3, #0xC
  01438	e0020391	 mul         r2, r1, r3
  0143c	e59f3188	 ldr         r3, [pc, #0x188]
  01440	e0833002	 add         r3, r3, r2
  01444	e2833004	 add         r3, r3, #4
  01448	e5933000	 ldr         r3, [r3]
  0144c	e3530000	 cmp         r3, #0
  01450	1a000002	 bne         |$LN2@ClockUpdat@2|
  01454	e59d3028	 ldr         r3, [sp, #0x28]
  01458	e3530001	 cmp         r3, #1
  0145c	0a00000b	 beq         |$LN3@ClockUpdat@2|
  01460		 |$LN2@ClockUpdat@2|
  01460	e59d1004	 ldr         r1, [sp, #4]
  01464	e3a0300c	 mov         r3, #0xC
  01468	e0020391	 mul         r2, r1, r3
  0146c	e59f3158	 ldr         r3, [pc, #0x158]
  01470	e0833002	 add         r3, r3, r2
  01474	e2833004	 add         r3, r3, #4
  01478	e5933000	 ldr         r3, [r3]
  0147c	e3530001	 cmp         r3, #1
  01480	1a000017	 bne         |$LN4@ClockUpdat@2|
  01484	e59d3028	 ldr         r3, [sp, #0x28]
  01488	e3530000	 cmp         r3, #0
  0148c	1a000014	 bne         |$LN4@ClockUpdat@2|
  01490		 |$LN3@ClockUpdat@2|

; 1140 :             {
; 1141 :             // increment vdd refCount
; 1142 :             int vddId = s_DpllTable[dpllId].vddDomain;            

  01490	e59d1004	 ldr         r1, [sp, #4]
  01494	e3a0300c	 mov         r3, #0xC
  01498	e0020391	 mul         r2, r1, r3
  0149c	e59f3128	 ldr         r3, [pc, #0x128]
  014a0	e0833002	 add         r3, r3, r2
  014a4	e5933000	 ldr         r3, [r3]
  014a8	e58d3008	 str         r3, [sp, #8]

; 1143 :             s_VddTable[vddId] += addRef;   

  014ac	e59d1008	 ldr         r1, [sp, #8]
  014b0	e3a03004	 mov         r3, #4
  014b4	e0020391	 mul         r2, r1, r3
  014b8	e59f3110	 ldr         r3, [pc, #0x110]
  014bc	e0833002	 add         r3, r3, r2
  014c0	e5932000	 ldr         r2, [r3]
  014c4	e59d3000	 ldr         r3, [sp]
  014c8	e0820003	 add         r0, r2, r3
  014cc	e59d1008	 ldr         r1, [sp, #8]
  014d0	e3a03004	 mov         r3, #4
  014d4	e0020391	 mul         r2, r1, r3
  014d8	e59f30f0	 ldr         r3, [pc, #0xF0]
  014dc	e0833002	 add         r3, r3, r2
  014e0	e5830000	 str         r0, [r3]
  014e4		 |$LN4@ClockUpdat@2|

; 1144 :             }
; 1145 : 
; 1146 :         // incrment dpll refCount
; 1147 :         s_DpllTable[dpllId].refCount += addRef;

  014e4	e59d1004	 ldr         r1, [sp, #4]
  014e8	e3a0300c	 mov         r3, #0xC
  014ec	e0020391	 mul         r2, r1, r3
  014f0	e59f30d4	 ldr         r3, [pc, #0xD4]
  014f4	e0833002	 add         r3, r3, r2
  014f8	e2833004	 add         r3, r3, #4
  014fc	e5932000	 ldr         r2, [r3]
  01500	e59d3000	 ldr         r3, [sp]
  01504	e0820003	 add         r0, r2, r3
  01508	e59d1004	 ldr         r1, [sp, #4]
  0150c	e3a0300c	 mov         r3, #0xC
  01510	e0020391	 mul         r2, r1, r3
  01514	e59f30b0	 ldr         r3, [pc, #0xB0]
  01518	e0833002	 add         r3, r3, r2
  0151c	e2833004	 add         r3, r3, #4
  01520	e5830000	 str         r0, [r3]
  01524		 |$LN7@ClockUpdat@2|

; 1148 :         }
; 1149 : 
; 1150 :     // increment dpllClkSrc refCount
; 1151 :     s_DpllClkOutTable[dpllClkId].refCount += addRef;    

  01524	e59d1024	 ldr         r1, [sp, #0x24]
  01528	e3a03008	 mov         r3, #8
  0152c	e0020391	 mul         r2, r1, r3
  01530	e59f3090	 ldr         r3, [pc, #0x90]
  01534	e0833002	 add         r3, r3, r2
  01538	e2833004	 add         r3, r3, #4
  0153c	e5932000	 ldr         r2, [r3]
  01540	e59d3000	 ldr         r3, [sp]
  01544	e0820003	 add         r0, r2, r3
  01548	e59d1024	 ldr         r1, [sp, #0x24]
  0154c	e3a03008	 mov         r3, #8
  01550	e0020391	 mul         r2, r1, r3
  01554	e59f306c	 ldr         r3, [pc, #0x6C]
  01558	e0833002	 add         r3, r3, r2
  0155c	e2833004	 add         r3, r3, #4
  01560	e5830000	 str         r0, [r3]
  01564		 |$cleanUp$47506|

; 1152 : 
; 1153 : cleanUp:    
; 1154 :     if (!g_bSingleThreaded)

  01564	e59f3058	 ldr         r3, [pc, #0x58]
  01568	e5933000	 ldr         r3, [r3]
  0156c	e3530000	 cmp         r3, #0
  01570	1a00000b	 bne         |$LN1@ClockUpdat@2|

; 1155 :         OALMSG(OAL_FUNC, (L"-_ClockUpdateDpllOutput()=%d\r\n", TRUE));

  01574	e59f3044	 ldr         r3, [pc, #0x44]
  01578	e5933440	 ldr         r3, [r3, #0x440]
  0157c	e3130004	 tst         r3, #4
  01580	0a000005	 beq         |$LN16@ClockUpdat@2|
  01584	e3a01001	 mov         r1, #1
  01588	e59f002c	 ldr         r0, [pc, #0x2C]
  0158c	eb000000	 bl          NKDbgPrintfW
  01590	e3a03001	 mov         r3, #1
  01594	e58d3018	 str         r3, [sp, #0x18]
  01598	ea000001	 b           |$LN17@ClockUpdat@2|
  0159c		 |$LN16@ClockUpdat@2|
  0159c	e3a03000	 mov         r3, #0
  015a0	e58d3018	 str         r3, [sp, #0x18]
  015a4		 |$LN17@ClockUpdat@2|
  015a4		 |$LN1@ClockUpdat@2|

; 1156 :     return TRUE;

  015a4	e3a03001	 mov         r3, #1
  015a8	e58d300c	 str         r3, [sp, #0xC]

; 1157 : }

  015ac	e59d000c	 ldr         r0, [sp, #0xC]
  015b0	e28dd01c	 add         sp, sp, #0x1C
  015b4	e89d6000	 ldmia       sp, {sp, lr}
  015b8	e12fff1e	 bx          lr
  015bc		 |$LN21@ClockUpdat@2|
  015bc		 |$LN22@ClockUpdat@2|
  015bc	00000000	 DCD         |??_C@_1DO@BLFNJPIJ@?$AA?9?$AA_?$AAC?$AAl?$AAo?$AAc?$AAk?$AAU?$AAp?$AAd?$AAa?$AAt?$AAe?$AAD?$AAp?$AAl?$AAl?$AAO?$AAu?$AAt?$AAp?$AAu?$AAt?$AA?$CI?$AA?$CJ?$AA?$DN?$AA?$CF?$AAd?$AA?$AN?$AA?6?$AA?$AA@|
  015c0		 |$LN23@ClockUpdat@2|
  015c0	00000000	 DCD         |dpCurSettings|
  015c4		 |$LN24@ClockUpdat@2|
  015c4	00000000	 DCD         |g_bSingleThreaded|
  015c8		 |$LN25@ClockUpdat@2|
  015c8	00000000	 DCD         |s_DpllClkOutTable|
  015cc		 |$LN26@ClockUpdat@2|
  015cc	00000000	 DCD         |s_DpllTable|
  015d0		 |$LN27@ClockUpdat@2|
  015d0	00000000	 DCD         |s_VddTable|
  015d4		 |$LN28@ClockUpdat@2|
  015d4	00000000	 DCD         |??_C@_1GG@DBFCOCMC@?$AA?$CL?$AA_?$AAC?$AAl?$AAo?$AAc?$AAk?$AAU?$AAp?$AAd?$AAa?$AAt?$AAe?$AAD?$AAp?$AAl?$AAl?$AAO?$AAu?$AAt?$AAp?$AAu?$AAt?$AA?$CI?$AAs?$AAr?$AAc?$AAC?$AAl?$AAk?$AAI?$AAd@|
  015d8		 |$M49369|

			 ENDP  ; |_ClockUpdateDpllOutput|

	EXPORT	|??_C@_1DI@KBLNPMLI@?$AA?9?$AAP?$AAr?$AAc?$AAm?$AAC?$AAl?$AAo?$AAc?$AAk?$AAS?$AAe?$AAt?$AAD?$AAi?$AAv?$AAi?$AAs?$AAo?$AAr?$AA?$CI?$AA?$CJ?$AA?$DN?$AA?$CF?$AAd?$AA?$AN?$AA?6?$AA?$AA@| [ DATA ] ; `string'
	EXPORT	|Unlock|
	EXPORT	|Lock|
	EXPORT	|??_C@_1IC@LGPONKMO@?$AA?$CL?$AAP?$AAr?$AAc?$AAm?$AAC?$AAl?$AAo?$AAc?$AAk?$AAS?$AAe?$AAt?$AAD?$AAi?$AAv?$AAi?$AAs?$AAo?$AAr?$AA?$CI?$AAc?$AAl?$AAo?$AAc?$AAk?$AAI?$AAd?$AA?$DN?$AA?$CF?$AAd?$AA?0@| [ DATA ] ; `string'
	EXPORT	|PrcmClockSetDivisor|

  00028			 AREA	 |.pdata|, PDATA
|$T49391| DCD	|$LN56@PrcmClockS|
	DCD	0x40017604

  00000			 AREA	 |.rdata|, DATA, READONLY
|??_C@_1DI@KBLNPMLI@?$AA?9?$AAP?$AAr?$AAc?$AAm?$AAC?$AAl?$AAo?$AAc?$AAk?$AAS?$AAe?$AAt?$AAD?$AAi?$AAv?$AAi?$AAs?$AAo?$AAr?$AA?$CI?$AA?$CJ?$AA?$DN?$AA?$CF?$AAd?$AA?$AN?$AA?6?$AA?$AA@| DCB "-"
	DCB	0x0, "P", 0x0, "r", 0x0, "c", 0x0, "m", 0x0, "C", 0x0, "l"
	DCB	0x0, "o", 0x0, "c", 0x0, "k", 0x0, "S", 0x0, "e", 0x0, "t"
	DCB	0x0, "D", 0x0, "i", 0x0, "v", 0x0, "i", 0x0, "s", 0x0, "o"
	DCB	0x0, "r", 0x0, "(", 0x0, ")", 0x0, "=", 0x0, "%", 0x0, "d"
	DCB	0x0, 0xd, 0x0, 0xa, 0x0, 0x0, 0x0	; `string'

  00000			 AREA	 |.rdata|, DATA, READONLY
|??_C@_1IC@LGPONKMO@?$AA?$CL?$AAP?$AAr?$AAc?$AAm?$AAC?$AAl?$AAo?$AAc?$AAk?$AAS?$AAe?$AAt?$AAD?$AAi?$AAv?$AAi?$AAs?$AAo?$AAr?$AA?$CI?$AAc?$AAl?$AAo?$AAc?$AAk?$AAI?$AAd?$AA?$DN?$AA?$CF?$AAd?$AA?0@| DCB "+"
	DCB	0x0, "P", 0x0, "r", 0x0, "c", 0x0, "m", 0x0, "C", 0x0, "l"
	DCB	0x0, "o", 0x0, "c", 0x0, "k", 0x0, "S", 0x0, "e", 0x0, "t"
	DCB	0x0, "D", 0x0, "i", 0x0, "v", 0x0, "i", 0x0, "s", 0x0, "o"
	DCB	0x0, "r", 0x0, "(", 0x0, "c", 0x0, "l", 0x0, "o", 0x0, "c"
	DCB	0x0, "k", 0x0, "I", 0x0, "d", 0x0, "=", 0x0, "%", 0x0, "d"
	DCB	0x0, ",", 0x0, " ", 0x0, "p", 0x0, "a", 0x0, "r", 0x0, "e"
	DCB	0x0, "n", 0x0, "t", 0x0, "C", 0x0, "l", 0x0, "o", 0x0, "c"
	DCB	0x0, "k", 0x0, "I", 0x0, "d", 0x0, "=", 0x0, "%", 0x0, "d"
	DCB	0x0, ",", 0x0, " ", 0x0, "d", 0x0, "i", 0x0, "v", 0x0, "i"
	DCB	0x0, "s", 0x0, "o", 0x0, "r", 0x0, "=", 0x0, "%", 0x0, "d"
	DCB	0x0, ")", 0x0, 0xd, 0x0, 0xa, 0x0, 0x0, 0x0 ; `string'
; Function compile flags: /Odtp

  015d8			 AREA	 |.text|, CODE, ARM

  015d8		 |PrcmClockSetDivisor| PROC

; 1507 : {

  015d8		 |$LN56@PrcmClockS|
  015d8	e1a0c00d	 mov         r12, sp
  015dc	e92d0007	 stmdb       sp!, {r0 - r2}
  015e0	e92d5000	 stmdb       sp!, {r12, lr}
  015e4	e24dd040	 sub         sp, sp, #0x40
  015e8		 |$M49388|

; 1508 :     static BYTE _usim_sysclk_map[] = {(BYTE)-1, (BYTE)1, (BYTE)2};
; 1509 :     static BYTE _sgx_core_clk[]             = {(BYTE)-1, (BYTE)-1, (BYTE)5, (BYTE)0, (BYTE)1, (BYTE)-1, (BYTE)2};
; 1510 :     static BYTE _sgx_96M_fclk[]             = {(BYTE)-1, (BYTE)3};
; 1511 :     static BYTE _sgx_96M_192_alwon_clk[]    = {(BYTE)-1, (BYTE)4};
; 1512 :     static BYTE _sgx_corex2_fclk[]          = {(BYTE)-1, (BYTE)-1, (BYTE)-1, (BYTE)6, (BYTE)-1, (BYTE)7};
; 1513 :     static BYTE _usim_96m_map[] =    {(BYTE)-1, (BYTE)-1, (BYTE)3, (BYTE)-1, (BYTE)4, (BYTE)-1, (BYTE)-1, (BYTE)-1, (BYTE)5, (BYTE)-1, (BYTE)6};
; 1514 :     static BYTE _usim_120m_map[] =   {(BYTE)-1, (BYTE)-1, (BYTE)-1, (BYTE)-1,  (BYTE)7, (BYTE)-1, (BYTE)-1, (BYTE)-1,  (BYTE)8, (BYTE)-1, 
; 1515 :                                       (BYTE)-1, (BYTE)-1, (BYTE)-1, (BYTE)-1, (BYTE)-1, (BYTE)-1,  (BYTE)9, (BYTE)-1, (BYTE)-1, (BYTE)-1,
; 1516 :                                       (BYTE)10};
; 1517 : 
; 1518 :     UINT i;
; 1519 :     BYTE real_divisor = 0;

  015e8	e3a03000	 mov         r3, #0
  015ec	e5cd300c	 strb        r3, [sp, #0xC]

; 1520 :     BOOL rc = FALSE;

  015f0	e3a03000	 mov         r3, #0
  015f4	e58d3000	 str         r3, [sp]

; 1521 :     SrcClockDivisorTable_t *pDivisors;
; 1522 :     
; 1523 :     OALMSG(OAL_FUNC, (L"+PrcmClockSetDivisor"
; 1524 :         L"(clockId=%d, parentClockId=%d, divisor=%d)\r\n", 
; 1525 :         clockId, parentClockId, divisor)
; 1526 :         );

  015f8	e59f3588	 ldr         r3, [pc, #0x588]
  015fc	e5933440	 ldr         r3, [r3, #0x440]
  01600	e3130004	 tst         r3, #4
  01604	0a000007	 beq         |$LN48@PrcmClockS|
  01608	e59d3050	 ldr         r3, [sp, #0x50]
  0160c	e59d204c	 ldr         r2, [sp, #0x4C]
  01610	e59d1048	 ldr         r1, [sp, #0x48]
  01614	e59f0590	 ldr         r0, [pc, #0x590]
  01618	eb000000	 bl          NKDbgPrintfW
  0161c	e3a03001	 mov         r3, #1
  01620	e58d3014	 str         r3, [sp, #0x14]
  01624	ea000001	 b           |$LN49@PrcmClockS|
  01628		 |$LN48@PrcmClockS|
  01628	e3a03000	 mov         r3, #0
  0162c	e58d3014	 str         r3, [sp, #0x14]
  01630		 |$LN49@PrcmClockS|

; 1527 : 
; 1528 :     pDivisors = s_SrcClockTable[clockId].pDivisors;

  01630	e59d1048	 ldr         r1, [sp, #0x48]
  01634	e3a03014	 mov         r3, #0x14
  01638	e0020391	 mul         r2, r1, r3
  0163c	e59f3564	 ldr         r3, [pc, #0x564]
  01640	e0833002	 add         r3, r3, r2
  01644	e283300c	 add         r3, r3, #0xC
  01648	e5933000	 ldr         r3, [r3]
  0164c	e58d3008	 str         r3, [sp, #8]

; 1529 : 
; 1530 :     // get sync handle
; 1531 :     Lock(Mutex_Clock);

  01650	e3a00001	 mov         r0, #1
  01654	eb000000	 bl          Lock

; 1532 :     
; 1533 :     switch (clockId)

  01658	e59d3048	 ldr         r3, [sp, #0x48]
  0165c	e58d3018	 str         r3, [sp, #0x18]
  01660	e59d3018	 ldr         r3, [sp, #0x18]
  01664	e3530044	 cmp         r3, #0x44
  01668	8a00000c	 bhi         |$LN51@PrcmClockS|
  0166c	e59d3018	 ldr         r3, [sp, #0x18]
  01670	e3530044	 cmp         r3, #0x44
  01674	0a0000f8	 beq         |$LN9@PrcmClockS|
  01678	e59d3018	 ldr         r3, [sp, #0x18]
  0167c	e3530007	 cmp         r3, #7
  01680	0a000038	 beq         |$LN37@PrcmClockS|
  01684	e59d3018	 ldr         r3, [sp, #0x18]
  01688	e3530008	 cmp         r3, #8
  0168c	0a000021	 beq         |$LN40@PrcmClockS|
  01690	e59d3018	 ldr         r3, [sp, #0x18]
  01694	e3530038	 cmp         r3, #0x38
  01698	0a00000a	 beq         |$LN43@PrcmClockS|
  0169c	ea000124	 b           |$LN44@PrcmClockS|
  016a0		 |$LN51@PrcmClockS|
  016a0	e59d3018	 ldr         r3, [sp, #0x18]
  016a4	e3530045	 cmp         r3, #0x45
  016a8	0a0000ce	 beq         |$LN12@PrcmClockS|
  016ac	e59d3018	 ldr         r3, [sp, #0x18]
  016b0	e3530048	 cmp         r3, #0x48
  016b4	0a00003f	 beq         |$LN34@PrcmClockS|
  016b8	e59d3018	 ldr         r3, [sp, #0x18]
  016bc	e3530049	 cmp         r3, #0x49
  016c0	0a000050	 beq         |$LN31@PrcmClockS|
  016c4	ea00011a	 b           |$LN44@PrcmClockS|
  016c8		 |$LN43@PrcmClockS|

; 1534 :         {            
; 1535 :         case kSSI_SSR_FCLK:
; 1536 :             // validate parameters
; 1537 :             if (parentClockId != pDivisors->SourceClock[0].id || divisor > 8) goto cleanUp;

  016c8	e59d3008	 ldr         r3, [sp, #8]
  016cc	e2833004	 add         r3, r3, #4
  016d0	e59d204c	 ldr         r2, [sp, #0x4C]
  016d4	e5933000	 ldr         r3, [r3]
  016d8	e1520003	 cmp         r2, r3
  016dc	1a000002	 bne         |$LN41@PrcmClockS|
  016e0	e59d3050	 ldr         r3, [sp, #0x50]
  016e4	e3530008	 cmp         r3, #8
  016e8	9a000000	 bls         |$LN42@PrcmClockS|
  016ec		 |$LN41@PrcmClockS|
  016ec	ea000110	 b           |$cleanUp$47773|
  016f0		 |$LN42@PrcmClockS|

; 1538 : 
; 1539 :             // store divisor settings
; 1540 :             pDivisors->SourceClock[0].divisor = divisor;

  016f0	e59d3008	 ldr         r3, [sp, #8]
  016f4	e2832008	 add         r2, r3, #8
  016f8	e59d3050	 ldr         r3, [sp, #0x50]
  016fc	e5823000	 str         r3, [r2]

; 1541 :             rc = _ClockHwUpdateParentClock(clockId);

  01700	e59d0048	 ldr         r0, [sp, #0x48]
  01704	eb000000	 bl          _ClockHwUpdateParentClock
  01708	e58d001c	 str         r0, [sp, #0x1C]
  0170c	e59d301c	 ldr         r3, [sp, #0x1C]
  01710	e58d3000	 str         r3, [sp]

; 1542 :             break;

  01714	ea000106	 b           |$LN44@PrcmClockS|
  01718		 |$LN40@PrcmClockS|

; 1543 : 
; 1544 :         case kCAM_MCLK:            
; 1545 :             // validate parameters
; 1546 :             if (parentClockId != pDivisors->SourceClock[0].id || divisor > 16) goto cleanUp;

  01718	e59d3008	 ldr         r3, [sp, #8]
  0171c	e2833004	 add         r3, r3, #4
  01720	e59d204c	 ldr         r2, [sp, #0x4C]
  01724	e5933000	 ldr         r3, [r3]
  01728	e1520003	 cmp         r2, r3
  0172c	1a000002	 bne         |$LN38@PrcmClockS|
  01730	e59d3050	 ldr         r3, [sp, #0x50]
  01734	e3530010	 cmp         r3, #0x10
  01738	9a000000	 bls         |$LN39@PrcmClockS|
  0173c		 |$LN38@PrcmClockS|
  0173c	ea0000fc	 b           |$cleanUp$47773|
  01740		 |$LN39@PrcmClockS|

; 1547 :             
; 1548 :             // store divisor settings
; 1549 :             pDivisors->SourceClock[0].divisor = divisor;

  01740	e59d3008	 ldr         r3, [sp, #8]
  01744	e2832008	 add         r2, r3, #8
  01748	e59d3050	 ldr         r3, [sp, #0x50]
  0174c	e5823000	 str         r3, [r2]

; 1550 :             rc = _ClockHwUpdateParentClock(clockId);

  01750	e59d0048	 ldr         r0, [sp, #0x48]
  01754	eb000000	 bl          _ClockHwUpdateParentClock
  01758	e58d0020	 str         r0, [sp, #0x20]
  0175c	e59d3020	 ldr         r3, [sp, #0x20]
  01760	e58d3000	 str         r3, [sp]

; 1551 :             break;

  01764	ea0000f2	 b           |$LN44@PrcmClockS|
  01768		 |$LN37@PrcmClockS|

; 1552 : 
; 1553 :         case kDSS1_ALWON_FCLK:
; 1554 :             // validate parameters
; 1555 :             if (parentClockId != pDivisors->SourceClock[0].id || divisor > 16) goto cleanUp;

  01768	e59d3008	 ldr         r3, [sp, #8]
  0176c	e2833004	 add         r3, r3, #4
  01770	e59d204c	 ldr         r2, [sp, #0x4C]
  01774	e5933000	 ldr         r3, [r3]
  01778	e1520003	 cmp         r2, r3
  0177c	1a000002	 bne         |$LN35@PrcmClockS|
  01780	e59d3050	 ldr         r3, [sp, #0x50]
  01784	e3530010	 cmp         r3, #0x10
  01788	9a000000	 bls         |$LN36@PrcmClockS|
  0178c		 |$LN35@PrcmClockS|
  0178c	ea0000e8	 b           |$cleanUp$47773|
  01790		 |$LN36@PrcmClockS|

; 1556 : 
; 1557 :             // store divisor settings
; 1558 :             pDivisors->SourceClock[0].divisor = divisor;

  01790	e59d3008	 ldr         r3, [sp, #8]
  01794	e2832008	 add         r2, r3, #8
  01798	e59d3050	 ldr         r3, [sp, #0x50]
  0179c	e5823000	 str         r3, [r2]

; 1559 :             rc = _ClockHwUpdateParentClock(clockId);

  017a0	e59d0048	 ldr         r0, [sp, #0x48]
  017a4	eb000000	 bl          _ClockHwUpdateParentClock
  017a8	e58d0024	 str         r0, [sp, #0x24]
  017ac	e59d3024	 ldr         r3, [sp, #0x24]
  017b0	e58d3000	 str         r3, [sp]

; 1560 :             break;

  017b4	ea0000de	 b           |$LN44@PrcmClockS|
  017b8		 |$LN34@PrcmClockS|

; 1561 : 
; 1562 :         case k54M_FCLK:
; 1563 :             // validate parameters
; 1564 :             if (parentClockId != pDivisors->SourceClock[0].id || divisor > 16) goto cleanUp;

  017b8	e59d3008	 ldr         r3, [sp, #8]
  017bc	e2833004	 add         r3, r3, #4
  017c0	e59d204c	 ldr         r2, [sp, #0x4C]
  017c4	e5933000	 ldr         r3, [r3]
  017c8	e1520003	 cmp         r2, r3
  017cc	1a000002	 bne         |$LN32@PrcmClockS|
  017d0	e59d3050	 ldr         r3, [sp, #0x50]
  017d4	e3530010	 cmp         r3, #0x10
  017d8	9a000000	 bls         |$LN33@PrcmClockS|
  017dc		 |$LN32@PrcmClockS|
  017dc	ea0000d4	 b           |$cleanUp$47773|
  017e0		 |$LN33@PrcmClockS|

; 1565 : 
; 1566 :             // store divisor settings
; 1567 :             pDivisors->SourceClock[0].divisor = divisor;

  017e0	e59d3008	 ldr         r3, [sp, #8]
  017e4	e2832008	 add         r2, r3, #8
  017e8	e59d3050	 ldr         r3, [sp, #0x50]
  017ec	e5823000	 str         r3, [r2]

; 1568 :             rc = _ClockHwUpdateParentClock(clockId);

  017f0	e59d0048	 ldr         r0, [sp, #0x48]
  017f4	eb000000	 bl          _ClockHwUpdateParentClock
  017f8	e58d0028	 str         r0, [sp, #0x28]
  017fc	e59d3028	 ldr         r3, [sp, #0x28]
  01800	e58d3000	 str         r3, [sp]

; 1569 :             break;

  01804	ea0000ca	 b           |$LN44@PrcmClockS|
  01808		 |$LN31@PrcmClockS|

; 1570 : 
; 1571 :         case kSGX_FCLK:
; 1572 :             switch (parentClockId)

  01808	e59d304c	 ldr         r3, [sp, #0x4C]
  0180c	e58d302c	 str         r3, [sp, #0x2C]
  01810	e59d302c	 ldr         r3, [sp, #0x2C]
  01814	e3530005	 cmp         r3, #5
  01818	8a000009	 bhi         |$LN50@PrcmClockS|
  0181c	e59d302c	 ldr         r3, [sp, #0x2C]
  01820	e3530005	 cmp         r3, #5
  01824	0a00002a	 beq         |$LN22@PrcmClockS|
  01828	e59d302c	 ldr         r3, [sp, #0x2C]
  0182c	e3530002	 cmp         r3, #2
  01830	0a000007	 beq         |$LN28@PrcmClockS|
  01834	e59d302c	 ldr         r3, [sp, #0x2C]
  01838	e3530003	 cmp         r3, #3
  0183c	0a000034	 beq         |$LN19@PrcmClockS|
  01840	ea000042	 b           |$LN29@PrcmClockS|
  01844		 |$LN50@PrcmClockS|
  01844	e59d302c	 ldr         r3, [sp, #0x2C]
  01848	e3530021	 cmp         r3, #0x21
  0184c	0a000010	 beq         |$LN25@PrcmClockS|
  01850	ea00003e	 b           |$LN29@PrcmClockS|
  01854		 |$LN28@PrcmClockS|

; 1573 :                 {
; 1574 :                 case kCORE_CLK:
; 1575 :                     if (divisor >= sizeof(_sgx_core_clk) || _sgx_core_clk[divisor] == -1) goto cleanUp;

  01854	e59d3050	 ldr         r3, [sp, #0x50]
  01858	e3530007	 cmp         r3, #7
  0185c	2a000005	 bcs         |$LN26@PrcmClockS|
  01860	e59f233c	 ldr         r2, [pc, #0x33C]
  01864	e59d3050	 ldr         r3, [sp, #0x50]
  01868	e0823003	 add         r3, r2, r3
  0186c	e5d33000	 ldrb        r3, [r3]
  01870	e3730001	 cmn         r3, #1
  01874	1a000000	 bne         |$LN27@PrcmClockS|
  01878		 |$LN26@PrcmClockS|
  01878	ea0000ad	 b           |$cleanUp$47773|
  0187c		 |$LN27@PrcmClockS|

; 1576 :                     real_divisor = _sgx_core_clk[divisor];

  0187c	e59f2320	 ldr         r2, [pc, #0x320]
  01880	e59d3050	 ldr         r3, [sp, #0x50]
  01884	e0823003	 add         r3, r2, r3
  01888	e5d33000	 ldrb        r3, [r3]
  0188c	e5cd300c	 strb        r3, [sp, #0xC]

; 1577 :                     break;

  01890	ea00002e	 b           |$LN29@PrcmClockS|
  01894		 |$LN25@PrcmClockS|

; 1578 : 
; 1579 :                 case kCM_96M_FCLK:
; 1580 :                     if (divisor >= sizeof(_sgx_96M_fclk) || _sgx_96M_fclk[divisor] == -1) goto cleanUp;

  01894	e59d3050	 ldr         r3, [sp, #0x50]
  01898	e3530002	 cmp         r3, #2
  0189c	2a000005	 bcs         |$LN23@PrcmClockS|
  018a0	e59f22f8	 ldr         r2, [pc, #0x2F8]
  018a4	e59d3050	 ldr         r3, [sp, #0x50]
  018a8	e0823003	 add         r3, r2, r3
  018ac	e5d33000	 ldrb        r3, [r3]
  018b0	e3730001	 cmn         r3, #1
  018b4	1a000000	 bne         |$LN24@PrcmClockS|
  018b8		 |$LN23@PrcmClockS|
  018b8	ea00009d	 b           |$cleanUp$47773|
  018bc		 |$LN24@PrcmClockS|

; 1581 :                      real_divisor = _sgx_96M_fclk[divisor];

  018bc	e59f22dc	 ldr         r2, [pc, #0x2DC]
  018c0	e59d3050	 ldr         r3, [sp, #0x50]
  018c4	e0823003	 add         r3, r2, r3
  018c8	e5d33000	 ldrb        r3, [r3]
  018cc	e5cd300c	 strb        r3, [sp, #0xC]

; 1582 :                     break;

  018d0	ea00001e	 b           |$LN29@PrcmClockS|
  018d4		 |$LN22@PrcmClockS|

; 1583 : 
; 1584 :                 case kPRM_96M_192M_ALWON_CLK:
; 1585 :                     if (divisor >= sizeof(_sgx_96M_192_alwon_clk) || _sgx_96M_192_alwon_clk[divisor] == -1) goto cleanUp;

  018d4	e59d3050	 ldr         r3, [sp, #0x50]
  018d8	e3530002	 cmp         r3, #2
  018dc	2a000005	 bcs         |$LN20@PrcmClockS|
  018e0	e59f22b4	 ldr         r2, [pc, #0x2B4]
  018e4	e59d3050	 ldr         r3, [sp, #0x50]
  018e8	e0823003	 add         r3, r2, r3
  018ec	e5d33000	 ldrb        r3, [r3]
  018f0	e3730001	 cmn         r3, #1
  018f4	1a000000	 bne         |$LN21@PrcmClockS|
  018f8		 |$LN20@PrcmClockS|
  018f8	ea00008d	 b           |$cleanUp$47773|
  018fc		 |$LN21@PrcmClockS|

; 1586 :                     real_divisor = _sgx_96M_192_alwon_clk[divisor];

  018fc	e59f2298	 ldr         r2, [pc, #0x298]
  01900	e59d3050	 ldr         r3, [sp, #0x50]
  01904	e0823003	 add         r3, r2, r3
  01908	e5d33000	 ldrb        r3, [r3]
  0190c	e5cd300c	 strb        r3, [sp, #0xC]

; 1587 :                     break;

  01910	ea00000e	 b           |$LN29@PrcmClockS|
  01914		 |$LN19@PrcmClockS|

; 1588 : 
; 1589 :                 case kCOREX2_FCLK:
; 1590 :                     if (divisor >= sizeof(_sgx_corex2_fclk) || _sgx_corex2_fclk[divisor] == -1) goto cleanUp;

  01914	e59d3050	 ldr         r3, [sp, #0x50]
  01918	e3530006	 cmp         r3, #6
  0191c	2a000005	 bcs         |$LN17@PrcmClockS|
  01920	e59f2270	 ldr         r2, [pc, #0x270]
  01924	e59d3050	 ldr         r3, [sp, #0x50]
  01928	e0823003	 add         r3, r2, r3
  0192c	e5d33000	 ldrb        r3, [r3]
  01930	e3730001	 cmn         r3, #1
  01934	1a000000	 bne         |$LN18@PrcmClockS|
  01938		 |$LN17@PrcmClockS|
  01938	ea00007d	 b           |$cleanUp$47773|
  0193c		 |$LN18@PrcmClockS|

; 1591 :                     real_divisor = _sgx_corex2_fclk[divisor];

  0193c	e59f2254	 ldr         r2, [pc, #0x254]
  01940	e59d3050	 ldr         r3, [sp, #0x50]
  01944	e0823003	 add         r3, r2, r3
  01948	e5d33000	 ldrb        r3, [r3]
  0194c	e5cd300c	 strb        r3, [sp, #0xC]
  01950		 |$LN29@PrcmClockS|

; 1592 :                     break;
; 1593 :                 }
; 1594 : 
; 1595 :             // store divisor settings
; 1596 :             for (i = 0; i < pDivisors->count; ++i)

  01950	e3a03000	 mov         r3, #0
  01954	e58d3004	 str         r3, [sp, #4]
  01958	ea000002	 b           |$LN16@PrcmClockS|
  0195c		 |$LN15@PrcmClockS|
  0195c	e59d3004	 ldr         r3, [sp, #4]
  01960	e2833001	 add         r3, r3, #1
  01964	e58d3004	 str         r3, [sp, #4]
  01968		 |$LN16@PrcmClockS|
  01968	e59d2004	 ldr         r2, [sp, #4]
  0196c	e59d3008	 ldr         r3, [sp, #8]
  01970	e5933000	 ldr         r3, [r3]
  01974	e1520003	 cmp         r2, r3
  01978	2a000014	 bcs         |$LN14@PrcmClockS|

; 1597 :                 {
; 1598 :                 if (parentClockId == pDivisors->SourceClock[i].id)

  0197c	e59d3008	 ldr         r3, [sp, #8]
  01980	e2831004	 add         r1, r3, #4
  01984	e59d2004	 ldr         r2, [sp, #4]
  01988	e3a03008	 mov         r3, #8
  0198c	e0030392	 mul         r3, r2, r3
  01990	e0813003	 add         r3, r1, r3
  01994	e59d204c	 ldr         r2, [sp, #0x4C]
  01998	e5933000	 ldr         r3, [r3]
  0199c	e1520003	 cmp         r2, r3
  019a0	1a000009	 bne         |$LN13@PrcmClockS|

; 1599 :                     {
; 1600 :                     pDivisors->SourceClock[i].divisor = real_divisor;

  019a4	e59d3008	 ldr         r3, [sp, #8]
  019a8	e2831004	 add         r1, r3, #4
  019ac	e59d2004	 ldr         r2, [sp, #4]
  019b0	e3a03008	 mov         r3, #8
  019b4	e0030392	 mul         r3, r2, r3
  019b8	e0813003	 add         r3, r1, r3
  019bc	e2832004	 add         r2, r3, #4
  019c0	e5dd300c	 ldrb        r3, [sp, #0xC]
  019c4	e5823000	 str         r3, [r2]

; 1601 :                     break;

  019c8	ea000000	 b           |$LN14@PrcmClockS|
  019cc		 |$LN13@PrcmClockS|

; 1602 :                     }
; 1603 :                 }

  019cc	eaffffe2	 b           |$LN15@PrcmClockS|
  019d0		 |$LN14@PrcmClockS|

; 1604 :             rc = _ClockHwUpdateParentClock(clockId);

  019d0	e59d0048	 ldr         r0, [sp, #0x48]
  019d4	eb000000	 bl          _ClockHwUpdateParentClock
  019d8	e58d0030	 str         r0, [sp, #0x30]
  019dc	e59d3030	 ldr         r3, [sp, #0x30]
  019e0	e58d3000	 str         r3, [sp]

; 1605 :             break;

  019e4	ea000052	 b           |$LN44@PrcmClockS|
  019e8		 |$LN12@PrcmClockS|

; 1606 : 
; 1607 :         case kUSIM_FCLK:
; 1608 :             // validate parameters
; 1609 :             if (parentClockId != pDivisors->SourceClock[0].id || 
; 1610 :                 divisor >= sizeof(_usim_sysclk_map) || 
; 1611 :                 _usim_sysclk_map[divisor] == -1) 

  019e8	e59d3008	 ldr         r3, [sp, #8]
  019ec	e2833004	 add         r3, r3, #4
  019f0	e59d204c	 ldr         r2, [sp, #0x4C]
  019f4	e5933000	 ldr         r3, [r3]
  019f8	e1520003	 cmp         r2, r3
  019fc	1a000008	 bne         |$LN10@PrcmClockS|
  01a00	e59d3050	 ldr         r3, [sp, #0x50]
  01a04	e3530003	 cmp         r3, #3
  01a08	2a000005	 bcs         |$LN10@PrcmClockS|
  01a0c	e59f2180	 ldr         r2, [pc, #0x180]
  01a10	e59d3050	 ldr         r3, [sp, #0x50]
  01a14	e0823003	 add         r3, r2, r3
  01a18	e5d33000	 ldrb        r3, [r3]
  01a1c	e3730001	 cmn         r3, #1
  01a20	1a000000	 bne         |$LN11@PrcmClockS|
  01a24		 |$LN10@PrcmClockS|

; 1612 :                 {
; 1613 :                 goto cleanUp;

  01a24	ea000042	 b           |$cleanUp$47773|
  01a28		 |$LN11@PrcmClockS|

; 1614 :                 }
; 1615 : 
; 1616 :             // store divisor settings
; 1617 :             pDivisors->SourceClock[0].divisor = _usim_sysclk_map[divisor];

  01a28	e59f2164	 ldr         r2, [pc, #0x164]
  01a2c	e59d3050	 ldr         r3, [sp, #0x50]
  01a30	e0821003	 add         r1, r2, r3
  01a34	e59d3008	 ldr         r3, [sp, #8]
  01a38	e2832008	 add         r2, r3, #8
  01a3c	e5d13000	 ldrb        r3, [r1]
  01a40	e5823000	 str         r3, [r2]

; 1618 :             rc = _ClockHwUpdateParentClock(clockId);

  01a44	e59d0048	 ldr         r0, [sp, #0x48]
  01a48	eb000000	 bl          _ClockHwUpdateParentClock
  01a4c	e58d0034	 str         r0, [sp, #0x34]
  01a50	e59d3034	 ldr         r3, [sp, #0x34]
  01a54	e58d3000	 str         r3, [sp]

; 1619 :             break;

  01a58	ea000035	 b           |$LN44@PrcmClockS|
  01a5c		 |$LN9@PrcmClockS|

; 1620 : 
; 1621 :         case kCM_USIM_CLK:
; 1622 : 
; 1623 :             if (parentClockId == pDivisors->SourceClock[0].id)

  01a5c	e59d3008	 ldr         r3, [sp, #8]
  01a60	e2833004	 add         r3, r3, #4
  01a64	e59d204c	 ldr         r2, [sp, #0x4C]
  01a68	e5933000	 ldr         r3, [r3]
  01a6c	e1520003	 cmp         r2, r3
  01a70	1a000011	 bne         |$LN8@PrcmClockS|

; 1624 :                 {
; 1625 :                 if (divisor >= sizeof(_usim_96m_map) || _usim_96m_map[divisor] == -1) goto cleanUp;

  01a74	e59d3050	 ldr         r3, [sp, #0x50]
  01a78	e353000b	 cmp         r3, #0xB
  01a7c	2a000005	 bcs         |$LN6@PrcmClockS|
  01a80	e59f2108	 ldr         r2, [pc, #0x108]
  01a84	e59d3050	 ldr         r3, [sp, #0x50]
  01a88	e0823003	 add         r3, r2, r3
  01a8c	e5d33000	 ldrb        r3, [r3]
  01a90	e3730001	 cmn         r3, #1
  01a94	1a000000	 bne         |$LN7@PrcmClockS|
  01a98		 |$LN6@PrcmClockS|
  01a98	ea000025	 b           |$cleanUp$47773|
  01a9c		 |$LN7@PrcmClockS|

; 1626 : 
; 1627 :                 pDivisors->SourceClock[0].divisor = _usim_96m_map[divisor];

  01a9c	e59f20ec	 ldr         r2, [pc, #0xEC]
  01aa0	e59d3050	 ldr         r3, [sp, #0x50]
  01aa4	e0821003	 add         r1, r2, r3
  01aa8	e59d3008	 ldr         r3, [sp, #8]
  01aac	e2832008	 add         r2, r3, #8
  01ab0	e5d13000	 ldrb        r3, [r1]
  01ab4	e5823000	 str         r3, [r2]
  01ab8	ea000018	 b           |$LN5@PrcmClockS|
  01abc		 |$LN8@PrcmClockS|

; 1628 :                 }
; 1629 :             else if (parentClockId == pDivisors->SourceClock[1].id)

  01abc	e59d3008	 ldr         r3, [sp, #8]
  01ac0	e283300c	 add         r3, r3, #0xC
  01ac4	e59d204c	 ldr         r2, [sp, #0x4C]
  01ac8	e5933000	 ldr         r3, [r3]
  01acc	e1520003	 cmp         r2, r3
  01ad0	1a000011	 bne         |$LN4@PrcmClockS|

; 1630 :                 {
; 1631 :                 if (divisor >= sizeof(_usim_120m_map) || _usim_120m_map[divisor] == -1) goto cleanUp;

  01ad4	e59d3050	 ldr         r3, [sp, #0x50]
  01ad8	e3530015	 cmp         r3, #0x15
  01adc	2a000005	 bcs         |$LN2@PrcmClockS|
  01ae0	e59f20a4	 ldr         r2, [pc, #0xA4]
  01ae4	e59d3050	 ldr         r3, [sp, #0x50]
  01ae8	e0823003	 add         r3, r2, r3
  01aec	e5d33000	 ldrb        r3, [r3]
  01af0	e3730001	 cmn         r3, #1
  01af4	1a000000	 bne         |$LN3@PrcmClockS|
  01af8		 |$LN2@PrcmClockS|
  01af8	ea00000d	 b           |$cleanUp$47773|
  01afc		 |$LN3@PrcmClockS|

; 1632 : 
; 1633 :                 pDivisors->SourceClock[0].divisor = _usim_120m_map[divisor];

  01afc	e59f2088	 ldr         r2, [pc, #0x88]
  01b00	e59d3050	 ldr         r3, [sp, #0x50]
  01b04	e0821003	 add         r1, r2, r3
  01b08	e59d3008	 ldr         r3, [sp, #8]
  01b0c	e2832008	 add         r2, r3, #8
  01b10	e5d13000	 ldrb        r3, [r1]
  01b14	e5823000	 str         r3, [r2]

; 1634 :                 }
; 1635 :             else

  01b18	ea000000	 b           |$LN1@PrcmClockS|
  01b1c		 |$LN4@PrcmClockS|

; 1636 :                 {
; 1637 :                 goto cleanUp;

  01b1c	ea000004	 b           |$cleanUp$47773|
  01b20		 |$LN1@PrcmClockS|
  01b20		 |$LN5@PrcmClockS|

; 1638 :                 }
; 1639 :             
; 1640 :             rc = _ClockHwUpdateParentClock(clockId);

  01b20	e59d0048	 ldr         r0, [sp, #0x48]
  01b24	eb000000	 bl          _ClockHwUpdateParentClock
  01b28	e58d0038	 str         r0, [sp, #0x38]
  01b2c	e59d3038	 ldr         r3, [sp, #0x38]
  01b30	e58d3000	 str         r3, [sp]
  01b34		 |$LN44@PrcmClockS|
  01b34		 |$cleanUp$47773|

; 1641 :             break;            
; 1642 :         }    
; 1643 : 
; 1644 : cleanUp: 
; 1645 :     // release sync handle    
; 1646 :     Unlock(Mutex_Clock);

  01b34	e3a00001	 mov         r0, #1
  01b38	eb000000	 bl          Unlock

; 1647 :     OALMSG(OAL_FUNC, (L"-PrcmClockSetDivisor()=%d\r\n", rc));

  01b3c	e59f3044	 ldr         r3, [pc, #0x44]
  01b40	e5933440	 ldr         r3, [r3, #0x440]
  01b44	e3130004	 tst         r3, #4
  01b48	0a000005	 beq         |$LN52@PrcmClockS|
  01b4c	e59d1000	 ldr         r1, [sp]
  01b50	e59f002c	 ldr         r0, [pc, #0x2C]
  01b54	eb000000	 bl          NKDbgPrintfW
  01b58	e3a03001	 mov         r3, #1
  01b5c	e58d303c	 str         r3, [sp, #0x3C]
  01b60	ea000001	 b           |$LN53@PrcmClockS|
  01b64		 |$LN52@PrcmClockS|
  01b64	e3a03000	 mov         r3, #0
  01b68	e58d303c	 str         r3, [sp, #0x3C]
  01b6c		 |$LN53@PrcmClockS|

; 1648 :     return rc;

  01b6c	e59d3000	 ldr         r3, [sp]
  01b70	e58d3010	 str         r3, [sp, #0x10]

; 1649 : }

  01b74	e59d0010	 ldr         r0, [sp, #0x10]
  01b78	e28dd040	 add         sp, sp, #0x40
  01b7c	e89d6000	 ldmia       sp, {sp, lr}
  01b80	e12fff1e	 bx          lr
  01b84		 |$LN57@PrcmClockS|
  01b84		 |$LN58@PrcmClockS|
  01b84	00000000	 DCD         |??_C@_1DI@KBLNPMLI@?$AA?9?$AAP?$AAr?$AAc?$AAm?$AAC?$AAl?$AAo?$AAc?$AAk?$AAS?$AAe?$AAt?$AAD?$AAi?$AAv?$AAi?$AAs?$AAo?$AAr?$AA?$CI?$AA?$CJ?$AA?$DN?$AA?$CF?$AAd?$AA?$AN?$AA?6?$AA?$AA@|
  01b88		 |$LN59@PrcmClockS|
  01b88	00000000	 DCD         |dpCurSettings|
  01b8c		 |$LN60@PrcmClockS|
  01b8c	00000000	 DCD         |?_usim_120m_map@?1??PrcmClockSetDivisor@@9@9|
  01b90		 |$LN61@PrcmClockS|
  01b90	00000000	 DCD         |?_usim_96m_map@?1??PrcmClockSetDivisor@@9@9|
  01b94		 |$LN62@PrcmClockS|
  01b94	00000000	 DCD         |?_usim_sysclk_map@?1??PrcmClockSetDivisor@@9@9|
  01b98		 |$LN63@PrcmClockS|
  01b98	00000000	 DCD         |?_sgx_corex2_fclk@?1??PrcmClockSetDivisor@@9@9|
  01b9c		 |$LN64@PrcmClockS|
  01b9c	00000000	 DCD         |?_sgx_96M_192_alwon_clk@?1??PrcmClockSetDivisor@@9@9|
  01ba0		 |$LN65@PrcmClockS|
  01ba0	00000000	 DCD         |?_sgx_96M_fclk@?1??PrcmClockSetDivisor@@9@9|
  01ba4		 |$LN66@PrcmClockS|
  01ba4	00000000	 DCD         |?_sgx_core_clk@?1??PrcmClockSetDivisor@@9@9|
  01ba8		 |$LN67@PrcmClockS|
  01ba8	00000000	 DCD         |s_SrcClockTable|
  01bac		 |$LN68@PrcmClockS|
  01bac	00000000	 DCD         |??_C@_1IC@LGPONKMO@?$AA?$CL?$AAP?$AAr?$AAc?$AAm?$AAC?$AAl?$AAo?$AAc?$AAk?$AAS?$AAe?$AAt?$AAD?$AAi?$AAv?$AAi?$AAs?$AAo?$AAr?$AA?$CI?$AAc?$AAl?$AAo?$AAc?$AAk?$AAI?$AAd?$AA?$DN?$AA?$CF?$AAd?$AA?0@|
  01bb0		 |$M49389|

			 ENDP  ; |PrcmClockSetDivisor|

	IMPORT	|EnterCriticalSection|
	IMPORT	|g_rgPrcmMutex|
	IMPORT	|g_PrcmPostInit|
; File c:\wince600\platform\common\src\soc\common_ti_v1\omap3530\oal\prcm\prcm_priv.h

  00000			 AREA	 |.pdata|, PDATA
|$T49408| DCD	|$LN6@Lock|
	DCD	0x40001603
; Function compile flags: /Odtp

  00000			 AREA	 |.text|, CODE, ARM

  00000		 |Lock|	 PROC

; 266  : {

  00000		 |$LN6@Lock|
  00000	e1a0c00d	 mov         r12, sp
  00004	e92d0001	 stmdb       sp!, {r0}
  00008	e92d5000	 stmdb       sp!, {r12, lr}
  0000c		 |$M49405|

; 267  :     if (g_PrcmPostInit && !g_bSingleThreaded) 

  0000c	e59f3040	 ldr         r3, [pc, #0x40]
  00010	e5933000	 ldr         r3, [r3]
  00014	e3530000	 cmp         r3, #0
  00018	0a000009	 beq         |$LN1@Lock|
  0001c	e59f302c	 ldr         r3, [pc, #0x2C]
  00020	e5933000	 ldr         r3, [r3]
  00024	e3530000	 cmp         r3, #0
  00028	1a000005	 bne         |$LN1@Lock|

; 268  :         {
; 269  :         EnterCriticalSection(&g_rgPrcmMutex[mutexId]);

  0002c	e59d1008	 ldr         r1, [sp, #8]
  00030	e3a03014	 mov         r3, #0x14
  00034	e0020391	 mul         r2, r1, r3
  00038	e59f300c	 ldr         r3, [pc, #0xC]
  0003c	e0830002	 add         r0, r3, r2
  00040	eb000000	 bl          EnterCriticalSection
  00044		 |$LN1@Lock|

; 270  :         }
; 271  : }

  00044	e89d6000	 ldmia       sp, {sp, lr}
  00048	e12fff1e	 bx          lr
  0004c		 |$LN7@Lock|
  0004c		 |$LN8@Lock|
  0004c	00000000	 DCD         |g_rgPrcmMutex|
  00050		 |$LN9@Lock|
  00050	00000000	 DCD         |g_bSingleThreaded|
  00054		 |$LN10@Lock|
  00054	00000000	 DCD         |g_PrcmPostInit|
  00058		 |$M49406|

			 ENDP  ; |Lock|

	IMPORT	|LeaveCriticalSection|

  00000			 AREA	 |.pdata|, PDATA
|$T49419| DCD	|$LN6@Unlock|
	DCD	0x40001603
; Function compile flags: /Odtp

  00000			 AREA	 |.text|, CODE, ARM

  00000		 |Unlock| PROC

; 277  : {

  00000		 |$LN6@Unlock|
  00000	e1a0c00d	 mov         r12, sp
  00004	e92d0001	 stmdb       sp!, {r0}
  00008	e92d5000	 stmdb       sp!, {r12, lr}
  0000c		 |$M49416|

; 278  :     if (g_PrcmPostInit && !g_bSingleThreaded)

  0000c	e59f3040	 ldr         r3, [pc, #0x40]
  00010	e5933000	 ldr         r3, [r3]
  00014	e3530000	 cmp         r3, #0
  00018	0a000009	 beq         |$LN1@Unlock|
  0001c	e59f302c	 ldr         r3, [pc, #0x2C]
  00020	e5933000	 ldr         r3, [r3]
  00024	e3530000	 cmp         r3, #0
  00028	1a000005	 bne         |$LN1@Unlock|

; 279  :         {
; 280  :         LeaveCriticalSection(&g_rgPrcmMutex[mutexId]);

  0002c	e59d1008	 ldr         r1, [sp, #8]
  00030	e3a03014	 mov         r3, #0x14
  00034	e0020391	 mul         r2, r1, r3
  00038	e59f300c	 ldr         r3, [pc, #0xC]
  0003c	e0830002	 add         r0, r3, r2
  00040	eb000000	 bl          LeaveCriticalSection
  00044		 |$LN1@Unlock|

; 281  :         }
; 282  : }

  00044	e89d6000	 ldmia       sp, {sp, lr}
  00048	e12fff1e	 bx          lr
  0004c		 |$LN7@Unlock|
  0004c		 |$LN8@Unlock|
  0004c	00000000	 DCD         |g_rgPrcmMutex|
  00050		 |$LN9@Unlock|
  00050	00000000	 DCD         |g_bSingleThreaded|
  00054		 |$LN10@Unlock|
  00054	00000000	 DCD         |g_PrcmPostInit|
  00058		 |$M49417|

			 ENDP  ; |Unlock|

	EXPORT	|??_C@_1EE@LONBGGII@?$AA?9?$AA_?$AAC?$AAl?$AAo?$AAc?$AAk?$AAH?$AAw?$AAU?$AAp?$AAd?$AAa?$AAt?$AAe?$AAP?$AAa?$AAr?$AAe?$AAn?$AAt?$AAC?$AAl?$AAo?$AAc?$AAk?$AA?$CI?$AA?$CJ?$AA?$DN?$AA?$CF?$AAd?$AA?$AN@| [ DATA ] ; `string'
	EXPORT	|??_C@_1FC@MLOGNJBG@?$AA?$CL?$AA_?$AAC?$AAl?$AAo?$AAc?$AAk?$AAH?$AAw?$AAU?$AAp?$AAd?$AAa?$AAt?$AAe?$AAP?$AAa?$AAr?$AAe?$AAn?$AAt?$AAC?$AAl?$AAo?$AAc?$AAk?$AA?$CI?$AAc?$AAl?$AAo?$AAc?$AAk@| [ DATA ] ; `string'
	IMPORT	|g_pSysCtrlGenReg|

  00030			 AREA	 |.pdata|, PDATA
|$T49520| DCD	|$LN221@ClockHwUpd@2|
	DCD	0x4004d904
; File c:\wince600\platform\common\src\soc\common_ti_v1\omap3530\oal\prcm\prcm_clock.c

  00000			 AREA	 |.rdata|, DATA, READONLY
|??_C@_1EE@LONBGGII@?$AA?9?$AA_?$AAC?$AAl?$AAo?$AAc?$AAk?$AAH?$AAw?$AAU?$AAp?$AAd?$AAa?$AAt?$AAe?$AAP?$AAa?$AAr?$AAe?$AAn?$AAt?$AAC?$AAl?$AAo?$AAc?$AAk?$AA?$CI?$AA?$CJ?$AA?$DN?$AA?$CF?$AAd?$AA?$AN@| DCB "-"
	DCB	0x0, "_", 0x0, "C", 0x0, "l", 0x0, "o", 0x0, "c", 0x0, "k"
	DCB	0x0, "H", 0x0, "w", 0x0, "U", 0x0, "p", 0x0, "d", 0x0, "a"
	DCB	0x0, "t", 0x0, "e", 0x0, "P", 0x0, "a", 0x0, "r", 0x0, "e"
	DCB	0x0, "n", 0x0, "t", 0x0, "C", 0x0, "l", 0x0, "o", 0x0, "c"
	DCB	0x0, "k", 0x0, "(", 0x0, ")", 0x0, "=", 0x0, "%", 0x0, "d"
	DCB	0x0, 0xd, 0x0, 0xa, 0x0, 0x0, 0x0	; `string'

  00000			 AREA	 |.rdata|, DATA, READONLY
|??_C@_1FC@MLOGNJBG@?$AA?$CL?$AA_?$AAC?$AAl?$AAo?$AAc?$AAk?$AAH?$AAw?$AAU?$AAp?$AAd?$AAa?$AAt?$AAe?$AAP?$AAa?$AAr?$AAe?$AAn?$AAt?$AAC?$AAl?$AAo?$AAc?$AAk?$AA?$CI?$AAc?$AAl?$AAo?$AAc?$AAk@| DCB "+"
	DCB	0x0, "_", 0x0, "C", 0x0, "l", 0x0, "o", 0x0, "c", 0x0, "k"
	DCB	0x0, "H", 0x0, "w", 0x0, "U", 0x0, "p", 0x0, "d", 0x0, "a"
	DCB	0x0, "t", 0x0, "e", 0x0, "P", 0x0, "a", 0x0, "r", 0x0, "e"
	DCB	0x0, "n", 0x0, "t", 0x0, "C", 0x0, "l", 0x0, "o", 0x0, "c"
	DCB	0x0, "k", 0x0, "(", 0x0, "c", 0x0, "l", 0x0, "o", 0x0, "c"
	DCB	0x0, "k", 0x0, "I", 0x0, "d", 0x0, "=", 0x0, "%", 0x0, "d"
	DCB	0x0, ")", 0x0, 0xd, 0x0, 0xa, 0x0, 0x0, 0x0 ; `string'
; Function compile flags: /Odtp

  01bb0			 AREA	 |.text|, CODE, ARM

  01bb0		 |_ClockHwUpdateParentClock| PROC

; 431  : {

  01bb0		 |$LN221@ClockHwUpd@2|
  01bb0	e1a0c00d	 mov         r12, sp
  01bb4	e92d0001	 stmdb       sp!, {r0}
  01bb8	e92d5000	 stmdb       sp!, {r12, lr}
  01bbc	e24dd070	 sub         sp, sp, #0x70
  01bc0		 |$M49517|

; 432  :     UINT i;
; 433  :     UINT val;
; 434  :     BOOL rc = FALSE;

  01bc0	e3a03000	 mov         r3, #0
  01bc4	e58d3000	 str         r3, [sp]

; 435  :     UINT parentClock;
; 436  :     SrcClockDivisorTable_t *pDivisors;
; 437  :     OALMSG(OAL_FUNC, (L"+_ClockHwUpdateParentClock(clockId=%d)\r\n", clockId));

  01bc8	e59f3338	 ldr         r3, [pc, #0x338]
  01bcc	e5933440	 ldr         r3, [r3, #0x440]
  01bd0	e3130004	 tst         r3, #4
  01bd4	0a000005	 beq         |$LN130@ClockHwUpd@2|
  01bd8	e59d1078	 ldr         r1, [sp, #0x78]
  01bdc	e59f0320	 ldr         r0, [pc, #0x320]
  01be0	eb000000	 bl          NKDbgPrintfW
  01be4	e3a03001	 mov         r3, #1
  01be8	e58d3018	 str         r3, [sp, #0x18]
  01bec	ea000001	 b           |$LN131@ClockHwUpd@2|
  01bf0		 |$LN130@ClockHwUpd@2|
  01bf0	e3a03000	 mov         r3, #0
  01bf4	e58d3018	 str         r3, [sp, #0x18]
  01bf8		 |$LN131@ClockHwUpd@2|

; 438  : 
; 439  :     // quick check for valid source clock id's
; 440  :     if (clockId > kSOURCE_CLOCK_COUNT) goto cleanUp;

  01bf8	e59d3078	 ldr         r3, [sp, #0x78]
  01bfc	e353005a	 cmp         r3, #0x5A
  01c00	9a000000	 bls         |$LN127@ClockHwUpd@2|
  01c04	ea0004aa	 b           |$cleanUp$47056|
  01c08		 |$LN127@ClockHwUpd@2|

; 441  : 
; 442  :     // initialize local var.
; 443  :     pDivisors = s_SrcClockTable[clockId].pDivisors;

  01c08	e59d1078	 ldr         r1, [sp, #0x78]
  01c0c	e3a03014	 mov         r3, #0x14
  01c10	e0020391	 mul         r2, r1, r3
  01c14	e59f32e4	 ldr         r3, [pc, #0x2E4]
  01c18	e0833002	 add         r3, r3, r2
  01c1c	e283300c	 add         r3, r3, #0xC
  01c20	e5933000	 ldr         r3, [r3]
  01c24	e58d3008	 str         r3, [sp, #8]

; 444  :     parentClock = s_SrcClockTable[clockId].parentClk;

  01c28	e59d1078	 ldr         r1, [sp, #0x78]
  01c2c	e3a03014	 mov         r3, #0x14
  01c30	e0020391	 mul         r2, r1, r3
  01c34	e59f32c4	 ldr         r3, [pc, #0x2C4]
  01c38	e0833002	 add         r3, r3, r2
  01c3c	e5933000	 ldr         r3, [r3]
  01c40	e58d3010	 str         r3, [sp, #0x10]

; 445  : 
; 446  :     switch (clockId)

  01c44	e59d3078	 ldr         r3, [sp, #0x78]
  01c48	e58d301c	 str         r3, [sp, #0x1C]
  01c4c	e59d301c	 ldr         r3, [sp, #0x1C]
  01c50	e2433007	 sub         r3, r3, #7
  01c54	e58d301c	 str         r3, [sp, #0x1C]
  01c58	e59d301c	 ldr         r3, [sp, #0x1C]
  01c5c	e3530052	 cmp         r3, #0x52
  01c60	8a000491	 bhi         |$LN125@ClockHwUpd@2|
  01c64	e59d201c	 ldr         r2, [sp, #0x1C]
  01c68	e1a03102	 mov         r3, r2, lsl #2
  01c6c	e083300f	 add         r3, r3, pc
  01c70	e5933004	 ldr         r3, [r3, #4]
  01c74	e08ff003	 add         pc, pc, r3
  01c78		 |$LN135@ClockHwUpd@2|
  01c78		 |$LN134@ClockHwUpd@2|
  01c78		 |$LN136@ClockHwUpd@2|
  01c78	00000b4c	 DCD         0xb4c
  01c7c		 |$LN137@ClockHwUpd@2|
  01c7c	00000ae4	 DCD         0xae4
  01c80		 |$LN138@ClockHwUpd@2|
  01c80	00001230	 DCD         0x1230
  01c84		 |$LN139@ClockHwUpd@2|
  01c84	00001230	 DCD         0x1230
  01c88		 |$LN140@ClockHwUpd@2|
  01c88	00001230	 DCD         0x1230
  01c8c		 |$LN141@ClockHwUpd@2|
  01c8c	00001230	 DCD         0x1230
  01c90		 |$LN142@ClockHwUpd@2|
  01c90	00001230	 DCD         0x1230
  01c94		 |$LN143@ClockHwUpd@2|
  01c94	00001230	 DCD         0x1230
  01c98		 |$LN144@ClockHwUpd@2|
  01c98	00001230	 DCD         0x1230
  01c9c		 |$LN145@ClockHwUpd@2|
  01c9c	00001230	 DCD         0x1230
  01ca0		 |$LN146@ClockHwUpd@2|
  01ca0	00001230	 DCD         0x1230
  01ca4		 |$LN147@ClockHwUpd@2|
  01ca4	00001230	 DCD         0x1230
  01ca8		 |$LN148@ClockHwUpd@2|
  01ca8	00001230	 DCD         0x1230
  01cac		 |$LN149@ClockHwUpd@2|
  01cac	00001230	 DCD         0x1230
  01cb0		 |$LN150@ClockHwUpd@2|
  01cb0	00001230	 DCD         0x1230
  01cb4		 |$LN151@ClockHwUpd@2|
  01cb4	00001230	 DCD         0x1230
  01cb8		 |$LN152@ClockHwUpd@2|
  01cb8	00001230	 DCD         0x1230
  01cbc		 |$LN153@ClockHwUpd@2|
  01cbc	00001230	 DCD         0x1230
  01cc0		 |$LN154@ClockHwUpd@2|
  01cc0	00001230	 DCD         0x1230
  01cc4		 |$LN155@ClockHwUpd@2|
  01cc4	00001230	 DCD         0x1230
  01cc8		 |$LN156@ClockHwUpd@2|
  01cc8	00001230	 DCD         0x1230
  01ccc		 |$LN157@ClockHwUpd@2|
  01ccc	00001230	 DCD         0x1230
  01cd0		 |$LN158@ClockHwUpd@2|
  01cd0	00001230	 DCD         0x1230
  01cd4		 |$LN159@ClockHwUpd@2|
  01cd4	00001230	 DCD         0x1230
  01cd8		 |$LN160@ClockHwUpd@2|
  01cd8	00001230	 DCD         0x1230
  01cdc		 |$LN161@ClockHwUpd@2|
  01cdc	00001230	 DCD         0x1230
  01ce0		 |$LN162@ClockHwUpd@2|
  01ce0	00001230	 DCD         0x1230
  01ce4		 |$LN163@ClockHwUpd@2|
  01ce4	00001230	 DCD         0x1230
  01ce8		 |$LN164@ClockHwUpd@2|
  01ce8	00001230	 DCD         0x1230
  01cec		 |$LN165@ClockHwUpd@2|
  01cec	00001230	 DCD         0x1230
  01cf0		 |$LN166@ClockHwUpd@2|
  01cf0	00001230	 DCD         0x1230
  01cf4		 |$LN167@ClockHwUpd@2|
  01cf4	00001230	 DCD         0x1230
  01cf8		 |$LN168@ClockHwUpd@2|
  01cf8	00001230	 DCD         0x1230
  01cfc		 |$LN169@ClockHwUpd@2|
  01cfc	00001230	 DCD         0x1230
  01d00		 |$LN170@ClockHwUpd@2|
  01d00	00001230	 DCD         0x1230
  01d04		 |$LN171@ClockHwUpd@2|
  01d04	00001230	 DCD         0x1230
  01d08		 |$LN172@ClockHwUpd@2|
  01d08	00001230	 DCD         0x1230
  01d0c		 |$LN173@ClockHwUpd@2|
  01d0c	00001230	 DCD         0x1230
  01d10		 |$LN174@ClockHwUpd@2|
  01d10	00001230	 DCD         0x1230
  01d14		 |$LN175@ClockHwUpd@2|
  01d14	00001230	 DCD         0x1230
  01d18		 |$LN176@ClockHwUpd@2|
  01d18	00001230	 DCD         0x1230
  01d1c		 |$LN177@ClockHwUpd@2|
  01d1c	00001230	 DCD         0x1230
  01d20		 |$LN178@ClockHwUpd@2|
  01d20	00001230	 DCD         0x1230
  01d24		 |$LN179@ClockHwUpd@2|
  01d24	00001230	 DCD         0x1230
  01d28		 |$LN180@ClockHwUpd@2|
  01d28	00001230	 DCD         0x1230
  01d2c		 |$LN181@ClockHwUpd@2|
  01d2c	00001230	 DCD         0x1230
  01d30		 |$LN182@ClockHwUpd@2|
  01d30	00001230	 DCD         0x1230
  01d34		 |$LN183@ClockHwUpd@2|
  01d34	00001230	 DCD         0x1230
  01d38		 |$LN184@ClockHwUpd@2|
  01d38	00001230	 DCD         0x1230
  01d3c		 |$LN185@ClockHwUpd@2|
  01d3c	00000bb4	 DCD         0xbb4
  01d40		 |$LN186@ClockHwUpd@2|
  01d40	00001230	 DCD         0x1230
  01d44		 |$LN187@ClockHwUpd@2|
  01d44	00001230	 DCD         0x1230
  01d48		 |$LN188@ClockHwUpd@2|
  01d48	00001230	 DCD         0x1230
  01d4c		 |$LN189@ClockHwUpd@2|
  01d4c	00001230	 DCD         0x1230
  01d50		 |$LN190@ClockHwUpd@2|
  01d50	00001230	 DCD         0x1230
  01d54		 |$LN191@ClockHwUpd@2|
  01d54	00001230	 DCD         0x1230
  01d58		 |$LN192@ClockHwUpd@2|
  01d58	00001230	 DCD         0x1230
  01d5c		 |$LN193@ClockHwUpd@2|
  01d5c	00001230	 DCD         0x1230
  01d60		 |$LN194@ClockHwUpd@2|
  01d60	00001230	 DCD         0x1230
  01d64		 |$LN195@ClockHwUpd@2|
  01d64	00001230	 DCD         0x1230
  01d68		 |$LN196@ClockHwUpd@2|
  01d68	00001230	 DCD         0x1230
  01d6c		 |$LN197@ClockHwUpd@2|
  01d6c	00000e60	 DCD         0xe60
  01d70		 |$LN198@ClockHwUpd@2|
  01d70	00000e60	 DCD         0xe60
  01d74		 |$LN199@ClockHwUpd@2|
  01d74	000009f8	 DCD         0x9f8
  01d78		 |$LN200@ClockHwUpd@2|
  01d78	0000090c	 DCD         0x90c
  01d7c		 |$LN201@ClockHwUpd@2|
  01d7c	00000d0c	 DCD         0xd0c
  01d80		 |$LN202@ClockHwUpd@2|
  01d80	00000c34	 DCD         0xc34
  01d84		 |$LN203@ClockHwUpd@2|
  01d84	00000658	 DCD         0x658
  01d88		 |$LN204@ClockHwUpd@2|
  01d88	00000148	 DCD         0x148
  01d8c		 |$LN205@ClockHwUpd@2|
  01d8c	000001e8	 DCD         0x1e8
  01d90		 |$LN206@ClockHwUpd@2|
  01d90	00000298	 DCD         0x298
  01d94		 |$LN207@ClockHwUpd@2|
  01d94	00000338	 DCD         0x338
  01d98		 |$LN208@ClockHwUpd@2|
  01d98	000003d8	 DCD         0x3d8
  01d9c		 |$LN209@ClockHwUpd@2|
  01d9c	00000478	 DCD         0x478
  01da0		 |$LN210@ClockHwUpd@2|
  01da0	00000518	 DCD         0x518
  01da4		 |$LN211@ClockHwUpd@2|
  01da4	000005b8	 DCD         0x5b8
  01da8		 |$LN212@ClockHwUpd@2|
  01da8	00000734	 DCD         0x734
  01dac		 |$LN213@ClockHwUpd@2|
  01dac	00000820	 DCD         0x820
  01db0		 |$LN214@ClockHwUpd@2|
  01db0	00000fdc	 DCD         0xfdc
  01db4		 |$LN215@ClockHwUpd@2|
  01db4	00001054	 DCD         0x1054
  01db8		 |$LN216@ClockHwUpd@2|
  01db8	000010cc	 DCD         0x10cc
  01dbc		 |$LN217@ClockHwUpd@2|
  01dbc	00001144	 DCD         0x1144
  01dc0		 |$LN218@ClockHwUpd@2|
  01dc0	000011bc	 DCD         0x11bc
  01dc4		 |$LN124@ClockHwUpd@2|

; 447  :         {
; 448  :         case kGPT2_ALWON_FCLK:
; 449  :             // verify parent clock is valid
; 450  :             switch(parentClock)

  01dc4	e59d3010	 ldr         r3, [sp, #0x10]
  01dc8	e58d3020	 str         r3, [sp, #0x20]
  01dcc	e59d3020	 ldr         r3, [sp, #0x20]
  01dd0	e353000b	 cmp         r3, #0xB
  01dd4	0a000011	 beq         |$LN120@ClockHwUpd@2|
  01dd8	e59d3020	 ldr         r3, [sp, #0x20]
  01ddc	e353000c	 cmp         r3, #0xC
  01de0	0a000000	 beq         |$LN121@ClockHwUpd@2|
  01de4	ea00001c	 b           |$LN119@ClockHwUpd@2|
  01de8		 |$LN121@ClockHwUpd@2|

; 451  :                 {
; 452  :                 case kSYS_CLK:
; 453  :                     SETREG32(&g_pPrcmCm->pOMAP_PER_CM->CM_CLKSEL_PER, CLKSEL_GPT2);

  01de8	e59f310c	 ldr         r3, [pc, #0x10C]
  01dec	e5933000	 ldr         r3, [r3]
  01df0	e2833008	 add         r3, r3, #8
  01df4	e5933000	 ldr         r3, [r3]
  01df8	e2833040	 add         r3, r3, #0x40
  01dfc	e5933000	 ldr         r3, [r3]
  01e00	e3832001	 orr         r2, r3, #1
  01e04	e59f30f0	 ldr         r3, [pc, #0xF0]
  01e08	e5933000	 ldr         r3, [r3]
  01e0c	e2833008	 add         r3, r3, #8
  01e10	e5933000	 ldr         r3, [r3]
  01e14	e2833040	 add         r3, r3, #0x40
  01e18	e5832000	 str         r2, [r3]

; 454  :                     break;

  01e1c	ea00000f	 b           |$LN122@ClockHwUpd@2|
  01e20		 |$LN120@ClockHwUpd@2|

; 455  : 
; 456  :                 case k32K_FCLK:
; 457  :                     CLRREG32(&g_pPrcmCm->pOMAP_PER_CM->CM_CLKSEL_PER, CLKSEL_GPT2);

  01e20	e59f30d4	 ldr         r3, [pc, #0xD4]
  01e24	e5933000	 ldr         r3, [r3]
  01e28	e2833008	 add         r3, r3, #8
  01e2c	e5933000	 ldr         r3, [r3]
  01e30	e2833040	 add         r3, r3, #0x40
  01e34	e5932000	 ldr         r2, [r3]
  01e38	e3e03001	 mvn         r3, #1
  01e3c	e0022003	 and         r2, r2, r3
  01e40	e59f30b4	 ldr         r3, [pc, #0xB4]
  01e44	e5933000	 ldr         r3, [r3]
  01e48	e2833008	 add         r3, r3, #8
  01e4c	e5933000	 ldr         r3, [r3]
  01e50	e2833040	 add         r3, r3, #0x40
  01e54	e5832000	 str         r2, [r3]

; 458  :                     break;

  01e58	ea000000	 b           |$LN122@ClockHwUpd@2|
  01e5c		 |$LN119@ClockHwUpd@2|

; 459  : 
; 460  :                 default:
; 461  :                     goto cleanUp;

  01e5c	ea000414	 b           |$cleanUp$47056|
  01e60		 |$LN122@ClockHwUpd@2|

; 462  :                 }
; 463  :             break;

  01e60	ea000411	 b           |$LN125@ClockHwUpd@2|
  01e64		 |$LN118@ClockHwUpd@2|

; 464  : 
; 465  :         case kGPT3_ALWON_FCLK:
; 466  :             // verify parent clock is valid
; 467  :             switch(parentClock)

  01e64	e59d3010	 ldr         r3, [sp, #0x10]
  01e68	e58d3024	 str         r3, [sp, #0x24]
  01e6c	e59d3024	 ldr         r3, [sp, #0x24]
  01e70	e353000b	 cmp         r3, #0xB
  01e74	0a000011	 beq         |$LN114@ClockHwUpd@2|
  01e78	e59d3024	 ldr         r3, [sp, #0x24]
  01e7c	e353000c	 cmp         r3, #0xC
  01e80	0a000000	 beq         |$LN115@ClockHwUpd@2|
  01e84	ea000020	 b           |$LN113@ClockHwUpd@2|
  01e88		 |$LN115@ClockHwUpd@2|

; 468  :                 {
; 469  :                 case kSYS_CLK:
; 470  :                     SETREG32(&g_pPrcmCm->pOMAP_PER_CM->CM_CLKSEL_PER, CLKSEL_GPT3);

  01e88	e59f306c	 ldr         r3, [pc, #0x6C]
  01e8c	e5933000	 ldr         r3, [r3]
  01e90	e2833008	 add         r3, r3, #8
  01e94	e5933000	 ldr         r3, [r3]
  01e98	e2833040	 add         r3, r3, #0x40
  01e9c	e5933000	 ldr         r3, [r3]
  01ea0	e3832002	 orr         r2, r3, #2
  01ea4	e59f3050	 ldr         r3, [pc, #0x50]
  01ea8	e5933000	 ldr         r3, [r3]
  01eac	e2833008	 add         r3, r3, #8
  01eb0	e5933000	 ldr         r3, [r3]
  01eb4	e2833040	 add         r3, r3, #0x40
  01eb8	e5832000	 str         r2, [r3]

; 471  :                     break;

  01ebc	ea000013	 b           |$LN116@ClockHwUpd@2|
  01ec0		 |$LN114@ClockHwUpd@2|

; 472  : 
; 473  :                 case k32K_FCLK:
; 474  :                     CLRREG32(&g_pPrcmCm->pOMAP_PER_CM->CM_CLKSEL_PER, CLKSEL_GPT3);

  01ec0	e59f3034	 ldr         r3, [pc, #0x34]
  01ec4	e5933000	 ldr         r3, [r3]
  01ec8	e2833008	 add         r3, r3, #8
  01ecc	e5933000	 ldr         r3, [r3]
  01ed0	e2833040	 add         r3, r3, #0x40
  01ed4	e5932000	 ldr         r2, [r3]
  01ed8	e3e03002	 mvn         r3, #2
  01edc	e0022003	 and         r2, r2, r3
  01ee0	e59f3014	 ldr         r3, [pc, #0x14]
  01ee4	e5933000	 ldr         r3, [r3]
  01ee8	e2833008	 add         r3, r3, #8
  01eec	e5933000	 ldr         r3, [r3]
  01ef0	e2833040	 add         r3, r3, #0x40
  01ef4	e5832000	 str         r2, [r3]

; 475  :                     break;

  01ef8	ea000004	 b           |$LN116@ClockHwUpd@2|
  01efc		 |$LN229@ClockHwUpd@2|
  01efc		 |$LN230@ClockHwUpd@2|
  01efc	00000000	 DCD         |g_pPrcmCm|
  01f00		 |$LN231@ClockHwUpd@2|
  01f00	00000000	 DCD         |s_SrcClockTable|
  01f04		 |$LN232@ClockHwUpd@2|
  01f04	00000000	 DCD         |??_C@_1FC@MLOGNJBG@?$AA?$CL?$AA_?$AAC?$AAl?$AAo?$AAc?$AAk?$AAH?$AAw?$AAU?$AAp?$AAd?$AAa?$AAt?$AAe?$AAP?$AAa?$AAr?$AAe?$AAn?$AAt?$AAC?$AAl?$AAo?$AAc?$AAk?$AA?$CI?$AAc?$AAl?$AAo?$AAc?$AAk@|
  01f08		 |$LN233@ClockHwUpd@2|
  01f08	00000000	 DCD         |dpCurSettings|
  01f0c		 |$LN113@ClockHwUpd@2|

; 476  : 
; 477  :                 default:
; 478  :                     goto cleanUp;

  01f0c	ea0003e8	 b           |$cleanUp$47056|
  01f10		 |$LN116@ClockHwUpd@2|

; 479  :                 }
; 480  :             break;

  01f10	ea0003e5	 b           |$LN125@ClockHwUpd@2|
  01f14		 |$LN112@ClockHwUpd@2|

; 481  : 
; 482  :         case kGPT4_ALWON_FCLK:
; 483  :             // verify parent clock is valid
; 484  :             switch(parentClock)

  01f14	e59d3010	 ldr         r3, [sp, #0x10]
  01f18	e58d3028	 str         r3, [sp, #0x28]
  01f1c	e59d3028	 ldr         r3, [sp, #0x28]
  01f20	e353000b	 cmp         r3, #0xB
  01f24	0a000011	 beq         |$LN108@ClockHwUpd@2|
  01f28	e59d3028	 ldr         r3, [sp, #0x28]
  01f2c	e353000c	 cmp         r3, #0xC
  01f30	0a000000	 beq         |$LN109@ClockHwUpd@2|
  01f34	ea00001c	 b           |$LN107@ClockHwUpd@2|
  01f38		 |$LN109@ClockHwUpd@2|

; 485  :                 {
; 486  :                 case kSYS_CLK:
; 487  :                     SETREG32(&g_pPrcmCm->pOMAP_PER_CM->CM_CLKSEL_PER, CLKSEL_GPT4);

  01f38	e59f3fcc	 ldr         r3, [pc, #0xFCC]
  01f3c	e5933000	 ldr         r3, [r3]
  01f40	e2833008	 add         r3, r3, #8
  01f44	e5933000	 ldr         r3, [r3]
  01f48	e2833040	 add         r3, r3, #0x40
  01f4c	e5933000	 ldr         r3, [r3]
  01f50	e3832004	 orr         r2, r3, #4
  01f54	e59f3fb0	 ldr         r3, [pc, #0xFB0]
  01f58	e5933000	 ldr         r3, [r3]
  01f5c	e2833008	 add         r3, r3, #8
  01f60	e5933000	 ldr         r3, [r3]
  01f64	e2833040	 add         r3, r3, #0x40
  01f68	e5832000	 str         r2, [r3]

; 488  :                     break;

  01f6c	ea00000f	 b           |$LN110@ClockHwUpd@2|
  01f70		 |$LN108@ClockHwUpd@2|

; 489  : 
; 490  :                 case k32K_FCLK:
; 491  :                     CLRREG32(&g_pPrcmCm->pOMAP_PER_CM->CM_CLKSEL_PER, CLKSEL_GPT4);

  01f70	e59f3f94	 ldr         r3, [pc, #0xF94]
  01f74	e5933000	 ldr         r3, [r3]
  01f78	e2833008	 add         r3, r3, #8
  01f7c	e5933000	 ldr         r3, [r3]
  01f80	e2833040	 add         r3, r3, #0x40
  01f84	e5932000	 ldr         r2, [r3]
  01f88	e3e03004	 mvn         r3, #4
  01f8c	e0022003	 and         r2, r2, r3
  01f90	e59f3f74	 ldr         r3, [pc, #0xF74]
  01f94	e5933000	 ldr         r3, [r3]
  01f98	e2833008	 add         r3, r3, #8
  01f9c	e5933000	 ldr         r3, [r3]
  01fa0	e2833040	 add         r3, r3, #0x40
  01fa4	e5832000	 str         r2, [r3]

; 492  :                     break;

  01fa8	ea000000	 b           |$LN110@ClockHwUpd@2|
  01fac		 |$LN107@ClockHwUpd@2|

; 493  : 
; 494  :                 default:
; 495  :                     goto cleanUp;

  01fac	ea0003c0	 b           |$cleanUp$47056|
  01fb0		 |$LN110@ClockHwUpd@2|

; 496  :                 }
; 497  :             break;

  01fb0	ea0003bd	 b           |$LN125@ClockHwUpd@2|
  01fb4		 |$LN106@ClockHwUpd@2|

; 498  :             
; 499  :         case kGPT5_ALWON_FCLK:
; 500  :             // verify parent clock is valid
; 501  :             switch(parentClock)

  01fb4	e59d3010	 ldr         r3, [sp, #0x10]
  01fb8	e58d302c	 str         r3, [sp, #0x2C]
  01fbc	e59d302c	 ldr         r3, [sp, #0x2C]
  01fc0	e353000b	 cmp         r3, #0xB
  01fc4	0a000011	 beq         |$LN102@ClockHwUpd@2|
  01fc8	e59d302c	 ldr         r3, [sp, #0x2C]
  01fcc	e353000c	 cmp         r3, #0xC
  01fd0	0a000000	 beq         |$LN103@ClockHwUpd@2|
  01fd4	ea00001c	 b           |$LN101@ClockHwUpd@2|
  01fd8		 |$LN103@ClockHwUpd@2|

; 502  :                 {
; 503  :                 case kSYS_CLK:
; 504  :                     SETREG32(&g_pPrcmCm->pOMAP_PER_CM->CM_CLKSEL_PER, CLKSEL_GPT5);

  01fd8	e59f3f2c	 ldr         r3, [pc, #0xF2C]
  01fdc	e5933000	 ldr         r3, [r3]
  01fe0	e2833008	 add         r3, r3, #8
  01fe4	e5933000	 ldr         r3, [r3]
  01fe8	e2833040	 add         r3, r3, #0x40
  01fec	e5933000	 ldr         r3, [r3]
  01ff0	e3832008	 orr         r2, r3, #8
  01ff4	e59f3f10	 ldr         r3, [pc, #0xF10]
  01ff8	e5933000	 ldr         r3, [r3]
  01ffc	e2833008	 add         r3, r3, #8
  02000	e5933000	 ldr         r3, [r3]
  02004	e2833040	 add         r3, r3, #0x40
  02008	e5832000	 str         r2, [r3]

; 505  :                     break;

  0200c	ea00000f	 b           |$LN104@ClockHwUpd@2|
  02010		 |$LN102@ClockHwUpd@2|

; 506  : 
; 507  :                 case k32K_FCLK:
; 508  :                     CLRREG32(&g_pPrcmCm->pOMAP_PER_CM->CM_CLKSEL_PER, CLKSEL_GPT5);

  02010	e59f3ef4	 ldr         r3, [pc, #0xEF4]
  02014	e5933000	 ldr         r3, [r3]
  02018	e2833008	 add         r3, r3, #8
  0201c	e5933000	 ldr         r3, [r3]
  02020	e2833040	 add         r3, r3, #0x40
  02024	e5932000	 ldr         r2, [r3]
  02028	e3e03008	 mvn         r3, #8
  0202c	e0022003	 and         r2, r2, r3
  02030	e59f3ed4	 ldr         r3, [pc, #0xED4]
  02034	e5933000	 ldr         r3, [r3]
  02038	e2833008	 add         r3, r3, #8
  0203c	e5933000	 ldr         r3, [r3]
  02040	e2833040	 add         r3, r3, #0x40
  02044	e5832000	 str         r2, [r3]

; 509  :                     break;

  02048	ea000000	 b           |$LN104@ClockHwUpd@2|
  0204c		 |$LN101@ClockHwUpd@2|

; 510  : 
; 511  :                 default:
; 512  :                     goto cleanUp;

  0204c	ea000398	 b           |$cleanUp$47056|
  02050		 |$LN104@ClockHwUpd@2|

; 513  :                 }
; 514  :             break;

  02050	ea000395	 b           |$LN125@ClockHwUpd@2|
  02054		 |$LN100@ClockHwUpd@2|

; 515  :             
; 516  :         case kGPT6_ALWON_FCLK:
; 517  :             // verify parent clock is valid
; 518  :             switch(parentClock)

  02054	e59d3010	 ldr         r3, [sp, #0x10]
  02058	e58d3030	 str         r3, [sp, #0x30]
  0205c	e59d3030	 ldr         r3, [sp, #0x30]
  02060	e353000b	 cmp         r3, #0xB
  02064	0a000011	 beq         |$LN96@ClockHwUpd@2|
  02068	e59d3030	 ldr         r3, [sp, #0x30]
  0206c	e353000c	 cmp         r3, #0xC
  02070	0a000000	 beq         |$LN97@ClockHwUpd@2|
  02074	ea00001c	 b           |$LN95@ClockHwUpd@2|
  02078		 |$LN97@ClockHwUpd@2|

; 519  :                 {
; 520  :                 case kSYS_CLK:
; 521  :                     SETREG32(&g_pPrcmCm->pOMAP_PER_CM->CM_CLKSEL_PER, CLKSEL_GPT6);

  02078	e59f3e8c	 ldr         r3, [pc, #0xE8C]
  0207c	e5933000	 ldr         r3, [r3]
  02080	e2833008	 add         r3, r3, #8
  02084	e5933000	 ldr         r3, [r3]
  02088	e2833040	 add         r3, r3, #0x40
  0208c	e5933000	 ldr         r3, [r3]
  02090	e3832010	 orr         r2, r3, #0x10
  02094	e59f3e70	 ldr         r3, [pc, #0xE70]
  02098	e5933000	 ldr         r3, [r3]
  0209c	e2833008	 add         r3, r3, #8
  020a0	e5933000	 ldr         r3, [r3]
  020a4	e2833040	 add         r3, r3, #0x40
  020a8	e5832000	 str         r2, [r3]

; 522  :                     break;

  020ac	ea00000f	 b           |$LN98@ClockHwUpd@2|
  020b0		 |$LN96@ClockHwUpd@2|

; 523  : 
; 524  :                 case k32K_FCLK:
; 525  :                     CLRREG32(&g_pPrcmCm->pOMAP_PER_CM->CM_CLKSEL_PER, CLKSEL_GPT6);

  020b0	e59f3e54	 ldr         r3, [pc, #0xE54]
  020b4	e5933000	 ldr         r3, [r3]
  020b8	e2833008	 add         r3, r3, #8
  020bc	e5933000	 ldr         r3, [r3]
  020c0	e2833040	 add         r3, r3, #0x40
  020c4	e5932000	 ldr         r2, [r3]
  020c8	e3e03010	 mvn         r3, #0x10
  020cc	e0022003	 and         r2, r2, r3
  020d0	e59f3e34	 ldr         r3, [pc, #0xE34]
  020d4	e5933000	 ldr         r3, [r3]
  020d8	e2833008	 add         r3, r3, #8
  020dc	e5933000	 ldr         r3, [r3]
  020e0	e2833040	 add         r3, r3, #0x40
  020e4	e5832000	 str         r2, [r3]

; 526  :                     break;

  020e8	ea000000	 b           |$LN98@ClockHwUpd@2|
  020ec		 |$LN95@ClockHwUpd@2|

; 527  : 
; 528  :                 default:
; 529  :                     goto cleanUp;

  020ec	ea000370	 b           |$cleanUp$47056|
  020f0		 |$LN98@ClockHwUpd@2|

; 530  :                 }
; 531  :             break;

  020f0	ea00036d	 b           |$LN125@ClockHwUpd@2|
  020f4		 |$LN94@ClockHwUpd@2|

; 532  :             
; 533  :         case kGPT7_ALWON_FCLK:
; 534  :             // verify parent clock is valid
; 535  :             switch(parentClock)

  020f4	e59d3010	 ldr         r3, [sp, #0x10]
  020f8	e58d3034	 str         r3, [sp, #0x34]
  020fc	e59d3034	 ldr         r3, [sp, #0x34]
  02100	e353000b	 cmp         r3, #0xB
  02104	0a000011	 beq         |$LN90@ClockHwUpd@2|
  02108	e59d3034	 ldr         r3, [sp, #0x34]
  0210c	e353000c	 cmp         r3, #0xC
  02110	0a000000	 beq         |$LN91@ClockHwUpd@2|
  02114	ea00001c	 b           |$LN89@ClockHwUpd@2|
  02118		 |$LN91@ClockHwUpd@2|

; 536  :                 {
; 537  :                 case kSYS_CLK:
; 538  :                     SETREG32(&g_pPrcmCm->pOMAP_PER_CM->CM_CLKSEL_PER, CLKSEL_GPT7);

  02118	e59f3dec	 ldr         r3, [pc, #0xDEC]
  0211c	e5933000	 ldr         r3, [r3]
  02120	e2833008	 add         r3, r3, #8
  02124	e5933000	 ldr         r3, [r3]
  02128	e2833040	 add         r3, r3, #0x40
  0212c	e5933000	 ldr         r3, [r3]
  02130	e3832020	 orr         r2, r3, #0x20
  02134	e59f3dd0	 ldr         r3, [pc, #0xDD0]
  02138	e5933000	 ldr         r3, [r3]
  0213c	e2833008	 add         r3, r3, #8
  02140	e5933000	 ldr         r3, [r3]
  02144	e2833040	 add         r3, r3, #0x40
  02148	e5832000	 str         r2, [r3]

; 539  :                     break;

  0214c	ea00000f	 b           |$LN92@ClockHwUpd@2|
  02150		 |$LN90@ClockHwUpd@2|

; 540  : 
; 541  :                 case k32K_FCLK:
; 542  :                     CLRREG32(&g_pPrcmCm->pOMAP_PER_CM->CM_CLKSEL_PER, CLKSEL_GPT7);

  02150	e59f3db4	 ldr         r3, [pc, #0xDB4]
  02154	e5933000	 ldr         r3, [r3]
  02158	e2833008	 add         r3, r3, #8
  0215c	e5933000	 ldr         r3, [r3]
  02160	e2833040	 add         r3, r3, #0x40
  02164	e5932000	 ldr         r2, [r3]
  02168	e3e03020	 mvn         r3, #0x20
  0216c	e0022003	 and         r2, r2, r3
  02170	e59f3d94	 ldr         r3, [pc, #0xD94]
  02174	e5933000	 ldr         r3, [r3]
  02178	e2833008	 add         r3, r3, #8
  0217c	e5933000	 ldr         r3, [r3]
  02180	e2833040	 add         r3, r3, #0x40
  02184	e5832000	 str         r2, [r3]

; 543  :                     break;

  02188	ea000000	 b           |$LN92@ClockHwUpd@2|
  0218c		 |$LN89@ClockHwUpd@2|

; 544  : 
; 545  :                 default:
; 546  :                     goto cleanUp;

  0218c	ea000348	 b           |$cleanUp$47056|
  02190		 |$LN92@ClockHwUpd@2|

; 547  :                 }
; 548  :             break;

  02190	ea000345	 b           |$LN125@ClockHwUpd@2|
  02194		 |$LN88@ClockHwUpd@2|

; 549  :             
; 550  :         case kGPT8_ALWON_FCLK:
; 551  :             // verify parent clock is valid
; 552  :             switch(parentClock)

  02194	e59d3010	 ldr         r3, [sp, #0x10]
  02198	e58d3038	 str         r3, [sp, #0x38]
  0219c	e59d3038	 ldr         r3, [sp, #0x38]
  021a0	e353000b	 cmp         r3, #0xB
  021a4	0a000011	 beq         |$LN84@ClockHwUpd@2|
  021a8	e59d3038	 ldr         r3, [sp, #0x38]
  021ac	e353000c	 cmp         r3, #0xC
  021b0	0a000000	 beq         |$LN85@ClockHwUpd@2|
  021b4	ea00001c	 b           |$LN83@ClockHwUpd@2|
  021b8		 |$LN85@ClockHwUpd@2|

; 553  :                 {
; 554  :                 case kSYS_CLK:
; 555  :                     SETREG32(&g_pPrcmCm->pOMAP_PER_CM->CM_CLKSEL_PER, CLKSEL_GPT8);

  021b8	e59f3d4c	 ldr         r3, [pc, #0xD4C]
  021bc	e5933000	 ldr         r3, [r3]
  021c0	e2833008	 add         r3, r3, #8
  021c4	e5933000	 ldr         r3, [r3]
  021c8	e2833040	 add         r3, r3, #0x40
  021cc	e5933000	 ldr         r3, [r3]
  021d0	e3832040	 orr         r2, r3, #0x40
  021d4	e59f3d30	 ldr         r3, [pc, #0xD30]
  021d8	e5933000	 ldr         r3, [r3]
  021dc	e2833008	 add         r3, r3, #8
  021e0	e5933000	 ldr         r3, [r3]
  021e4	e2833040	 add         r3, r3, #0x40
  021e8	e5832000	 str         r2, [r3]

; 556  :                     break;

  021ec	ea00000f	 b           |$LN86@ClockHwUpd@2|
  021f0		 |$LN84@ClockHwUpd@2|

; 557  : 
; 558  :                 case k32K_FCLK:
; 559  :                     CLRREG32(&g_pPrcmCm->pOMAP_PER_CM->CM_CLKSEL_PER, CLKSEL_GPT8);

  021f0	e59f3d14	 ldr         r3, [pc, #0xD14]
  021f4	e5933000	 ldr         r3, [r3]
  021f8	e2833008	 add         r3, r3, #8
  021fc	e5933000	 ldr         r3, [r3]
  02200	e2833040	 add         r3, r3, #0x40
  02204	e5932000	 ldr         r2, [r3]
  02208	e3e03040	 mvn         r3, #0x40
  0220c	e0022003	 and         r2, r2, r3
  02210	e59f3cf4	 ldr         r3, [pc, #0xCF4]
  02214	e5933000	 ldr         r3, [r3]
  02218	e2833008	 add         r3, r3, #8
  0221c	e5933000	 ldr         r3, [r3]
  02220	e2833040	 add         r3, r3, #0x40
  02224	e5832000	 str         r2, [r3]

; 560  :                     break;

  02228	ea000000	 b           |$LN86@ClockHwUpd@2|
  0222c		 |$LN83@ClockHwUpd@2|

; 561  : 
; 562  :                 default:
; 563  :                     goto cleanUp;

  0222c	ea000320	 b           |$cleanUp$47056|
  02230		 |$LN86@ClockHwUpd@2|

; 564  :                 }
; 565  :             break;

  02230	ea00031d	 b           |$LN125@ClockHwUpd@2|
  02234		 |$LN82@ClockHwUpd@2|

; 566  :             
; 567  :         case kGPT9_ALWON_FCLK:
; 568  :             // verify parent clock is valid
; 569  :             switch(parentClock)

  02234	e59d3010	 ldr         r3, [sp, #0x10]
  02238	e58d303c	 str         r3, [sp, #0x3C]
  0223c	e59d303c	 ldr         r3, [sp, #0x3C]
  02240	e353000b	 cmp         r3, #0xB
  02244	0a000011	 beq         |$LN78@ClockHwUpd@2|
  02248	e59d303c	 ldr         r3, [sp, #0x3C]
  0224c	e353000c	 cmp         r3, #0xC
  02250	0a000000	 beq         |$LN79@ClockHwUpd@2|
  02254	ea00001c	 b           |$LN77@ClockHwUpd@2|
  02258		 |$LN79@ClockHwUpd@2|

; 570  :                 {
; 571  :                 case kSYS_CLK:
; 572  :                     SETREG32(&g_pPrcmCm->pOMAP_PER_CM->CM_CLKSEL_PER, CLKSEL_GPT9);

  02258	e59f3cac	 ldr         r3, [pc, #0xCAC]
  0225c	e5933000	 ldr         r3, [r3]
  02260	e2833008	 add         r3, r3, #8
  02264	e5933000	 ldr         r3, [r3]
  02268	e2833040	 add         r3, r3, #0x40
  0226c	e5933000	 ldr         r3, [r3]
  02270	e3832080	 orr         r2, r3, #0x80
  02274	e59f3c90	 ldr         r3, [pc, #0xC90]
  02278	e5933000	 ldr         r3, [r3]
  0227c	e2833008	 add         r3, r3, #8
  02280	e5933000	 ldr         r3, [r3]
  02284	e2833040	 add         r3, r3, #0x40
  02288	e5832000	 str         r2, [r3]

; 573  :                     break;

  0228c	ea00000f	 b           |$LN80@ClockHwUpd@2|
  02290		 |$LN78@ClockHwUpd@2|

; 574  : 
; 575  :                 case k32K_FCLK:
; 576  :                     CLRREG32(&g_pPrcmCm->pOMAP_PER_CM->CM_CLKSEL_PER, CLKSEL_GPT9);

  02290	e59f3c74	 ldr         r3, [pc, #0xC74]
  02294	e5933000	 ldr         r3, [r3]
  02298	e2833008	 add         r3, r3, #8
  0229c	e5933000	 ldr         r3, [r3]
  022a0	e2833040	 add         r3, r3, #0x40
  022a4	e5932000	 ldr         r2, [r3]
  022a8	e3e03080	 mvn         r3, #0x80
  022ac	e0022003	 and         r2, r2, r3
  022b0	e59f3c54	 ldr         r3, [pc, #0xC54]
  022b4	e5933000	 ldr         r3, [r3]
  022b8	e2833008	 add         r3, r3, #8
  022bc	e5933000	 ldr         r3, [r3]
  022c0	e2833040	 add         r3, r3, #0x40
  022c4	e5832000	 str         r2, [r3]

; 577  :                     break;

  022c8	ea000000	 b           |$LN80@ClockHwUpd@2|
  022cc		 |$LN77@ClockHwUpd@2|

; 578  : 
; 579  :                 default:
; 580  :                     goto cleanUp;

  022cc	ea0002f8	 b           |$cleanUp$47056|
  022d0		 |$LN80@ClockHwUpd@2|

; 581  :                 }
; 582  :             break;

  022d0	ea0002f5	 b           |$LN125@ClockHwUpd@2|
  022d4		 |$LN76@ClockHwUpd@2|

; 583  :             
; 584  :         case kGPT1_FCLK:
; 585  :             // verify parent clock is valid
; 586  :             switch(parentClock)

  022d4	e59d3010	 ldr         r3, [sp, #0x10]
  022d8	e58d3040	 str         r3, [sp, #0x40]
  022dc	e59d3040	 ldr         r3, [sp, #0x40]
  022e0	e353000b	 cmp         r3, #0xB
  022e4	0a000018	 beq         |$LN72@ClockHwUpd@2|
  022e8	e59d3040	 ldr         r3, [sp, #0x40]
  022ec	e353000c	 cmp         r3, #0xC
  022f0	0a000000	 beq         |$LN73@ClockHwUpd@2|
  022f4	ea00002b	 b           |$LN71@ClockHwUpd@2|
  022f8		 |$LN73@ClockHwUpd@2|

; 587  :                 {
; 588  :                 case kSYS_CLK:
; 589  :                     SETREG32(&g_pPrcmCm->pOMAP_WKUP_CM->CM_CLKSEL_WKUP, CLKSEL_GPT1);

  022f8	e59f3c0c	 ldr         r3, [pc, #0xC0C]
  022fc	e5933000	 ldr         r3, [r3]
  02300	e5933000	 ldr         r3, [r3]
  02304	e2833040	 add         r3, r3, #0x40
  02308	e5933000	 ldr         r3, [r3]
  0230c	e3832001	 orr         r2, r3, #1
  02310	e59f3bf4	 ldr         r3, [pc, #0xBF4]
  02314	e5933000	 ldr         r3, [r3]
  02318	e5933000	 ldr         r3, [r3]
  0231c	e2833040	 add         r3, r3, #0x40
  02320	e5832000	 str         r2, [r3]

; 590  :                     SETREG32(&g_pPrcmRestore->CM_CLKSEL_WKUP, CLKSEL_GPT1);

  02324	e59f3bdc	 ldr         r3, [pc, #0xBDC]
  02328	e5933000	 ldr         r3, [r3]
  0232c	e283300c	 add         r3, r3, #0xC
  02330	e5933000	 ldr         r3, [r3]
  02334	e3832001	 orr         r2, r3, #1
  02338	e59f3bc8	 ldr         r3, [pc, #0xBC8]
  0233c	e5933000	 ldr         r3, [r3]
  02340	e283300c	 add         r3, r3, #0xC
  02344	e5832000	 str         r2, [r3]

; 591  :                     break;

  02348	ea000017	 b           |$LN74@ClockHwUpd@2|
  0234c		 |$LN72@ClockHwUpd@2|

; 592  : 
; 593  :                 case k32K_FCLK:
; 594  :                     CLRREG32(&g_pPrcmCm->pOMAP_WKUP_CM->CM_CLKSEL_WKUP, CLKSEL_GPT1);

  0234c	e59f3bb8	 ldr         r3, [pc, #0xBB8]
  02350	e5933000	 ldr         r3, [r3]
  02354	e5933000	 ldr         r3, [r3]
  02358	e2833040	 add         r3, r3, #0x40
  0235c	e5932000	 ldr         r2, [r3]
  02360	e3e03001	 mvn         r3, #1
  02364	e0022003	 and         r2, r2, r3
  02368	e59f3b9c	 ldr         r3, [pc, #0xB9C]
  0236c	e5933000	 ldr         r3, [r3]
  02370	e5933000	 ldr         r3, [r3]
  02374	e2833040	 add         r3, r3, #0x40
  02378	e5832000	 str         r2, [r3]

; 595  :                     CLRREG32(&g_pPrcmRestore->CM_CLKSEL_WKUP, CLKSEL_GPT1);

  0237c	e59f3b84	 ldr         r3, [pc, #0xB84]
  02380	e5933000	 ldr         r3, [r3]
  02384	e283300c	 add         r3, r3, #0xC
  02388	e5932000	 ldr         r2, [r3]
  0238c	e3e03001	 mvn         r3, #1
  02390	e0022003	 and         r2, r2, r3
  02394	e59f3b6c	 ldr         r3, [pc, #0xB6C]
  02398	e5933000	 ldr         r3, [r3]
  0239c	e283300c	 add         r3, r3, #0xC
  023a0	e5832000	 str         r2, [r3]

; 596  :                     break;

  023a4	ea000000	 b           |$LN74@ClockHwUpd@2|
  023a8		 |$LN71@ClockHwUpd@2|

; 597  : 
; 598  :                 default:
; 599  :                     goto cleanUp;

  023a8	ea0002c1	 b           |$cleanUp$47056|
  023ac		 |$LN74@ClockHwUpd@2|

; 600  :                 }
; 601  :             break;

  023ac	ea0002be	 b           |$LN125@ClockHwUpd@2|
  023b0		 |$LN70@ClockHwUpd@2|

; 602  :             
; 603  :         case kGPT10_FCLK:
; 604  :             // verify parent clock is valid
; 605  :             switch(parentClock)

  023b0	e59d3010	 ldr         r3, [sp, #0x10]
  023b4	e58d3044	 str         r3, [sp, #0x44]
  023b8	e59d3044	 ldr         r3, [sp, #0x44]
  023bc	e3530019	 cmp         r3, #0x19
  023c0	0a000003	 beq         |$LN67@ClockHwUpd@2|
  023c4	e59d3044	 ldr         r3, [sp, #0x44]
  023c8	e353001c	 cmp         r3, #0x1C
  023cc	0a000017	 beq         |$LN66@ClockHwUpd@2|
  023d0	ea00002f	 b           |$LN65@ClockHwUpd@2|
  023d4		 |$LN67@ClockHwUpd@2|

; 606  :                 {
; 607  :                 case kCM_SYS_CLK:
; 608  :                     SETREG32(&g_pPrcmCm->pOMAP_CORE_CM->CM_CLKSEL_CORE, CLKSEL_GPT10);

  023d4	e59f3b30	 ldr         r3, [pc, #0xB30]
  023d8	e5933000	 ldr         r3, [r3]
  023dc	e2833004	 add         r3, r3, #4
  023e0	e5933000	 ldr         r3, [r3]
  023e4	e2833040	 add         r3, r3, #0x40
  023e8	e5933000	 ldr         r3, [r3]
  023ec	e3832040	 orr         r2, r3, #0x40
  023f0	e59f3b14	 ldr         r3, [pc, #0xB14]
  023f4	e5933000	 ldr         r3, [r3]
  023f8	e2833004	 add         r3, r3, #4
  023fc	e5933000	 ldr         r3, [r3]
  02400	e2833040	 add         r3, r3, #0x40
  02404	e5832000	 str         r2, [r3]

; 609  :                     SETREG32(&g_pPrcmRestore->CM_CLKSEL_CORE, CLKSEL_GPT10);

  02408	e59f3af8	 ldr         r3, [pc, #0xAF8]
  0240c	e5933000	 ldr         r3, [r3]
  02410	e2833008	 add         r3, r3, #8
  02414	e5933000	 ldr         r3, [r3]
  02418	e3832040	 orr         r2, r3, #0x40
  0241c	e59f3ae4	 ldr         r3, [pc, #0xAE4]
  02420	e5933000	 ldr         r3, [r3]
  02424	e2833008	 add         r3, r3, #8
  02428	e5832000	 str         r2, [r3]

; 610  :                     break;

  0242c	ea000019	 b           |$LN68@ClockHwUpd@2|
  02430		 |$LN66@ClockHwUpd@2|

; 611  : 
; 612  :                 case kCM_32K_CLK:
; 613  :                     CLRREG32(&g_pPrcmCm->pOMAP_CORE_CM->CM_CLKSEL_CORE, CLKSEL_GPT10);

  02430	e59f3ad4	 ldr         r3, [pc, #0xAD4]
  02434	e5933000	 ldr         r3, [r3]
  02438	e2833004	 add         r3, r3, #4
  0243c	e5933000	 ldr         r3, [r3]
  02440	e2833040	 add         r3, r3, #0x40
  02444	e5932000	 ldr         r2, [r3]
  02448	e3e03040	 mvn         r3, #0x40
  0244c	e0022003	 and         r2, r2, r3
  02450	e59f3ab4	 ldr         r3, [pc, #0xAB4]
  02454	e5933000	 ldr         r3, [r3]
  02458	e2833004	 add         r3, r3, #4
  0245c	e5933000	 ldr         r3, [r3]
  02460	e2833040	 add         r3, r3, #0x40
  02464	e5832000	 str         r2, [r3]

; 614  :                     CLRREG32(&g_pPrcmRestore->CM_CLKSEL_CORE, CLKSEL_GPT10);

  02468	e59f3a98	 ldr         r3, [pc, #0xA98]
  0246c	e5933000	 ldr         r3, [r3]
  02470	e2833008	 add         r3, r3, #8
  02474	e5932000	 ldr         r2, [r3]
  02478	e3e03040	 mvn         r3, #0x40
  0247c	e0022003	 and         r2, r2, r3
  02480	e59f3a80	 ldr         r3, [pc, #0xA80]
  02484	e5933000	 ldr         r3, [r3]
  02488	e2833008	 add         r3, r3, #8
  0248c	e5832000	 str         r2, [r3]

; 615  :                     break;

  02490	ea000000	 b           |$LN68@ClockHwUpd@2|
  02494		 |$LN65@ClockHwUpd@2|

; 616  : 
; 617  :                 default:
; 618  :                     goto cleanUp;

  02494	ea000286	 b           |$cleanUp$47056|
  02498		 |$LN68@ClockHwUpd@2|

; 619  :                 }
; 620  :             break;

  02498	ea000283	 b           |$LN125@ClockHwUpd@2|
  0249c		 |$LN64@ClockHwUpd@2|

; 621  :             
; 622  :         case kGPT11_FCLK:
; 623  :             // verify parent clock is valid
; 624  :             switch(parentClock)

  0249c	e59d3010	 ldr         r3, [sp, #0x10]
  024a0	e58d3048	 str         r3, [sp, #0x48]
  024a4	e59d3048	 ldr         r3, [sp, #0x48]
  024a8	e3530019	 cmp         r3, #0x19
  024ac	0a000003	 beq         |$LN61@ClockHwUpd@2|
  024b0	e59d3048	 ldr         r3, [sp, #0x48]
  024b4	e353001c	 cmp         r3, #0x1C
  024b8	0a000017	 beq         |$LN60@ClockHwUpd@2|
  024bc	ea00002f	 b           |$LN59@ClockHwUpd@2|
  024c0		 |$LN61@ClockHwUpd@2|

; 625  :                 {
; 626  :                 case kCM_SYS_CLK:
; 627  :                     SETREG32(&g_pPrcmCm->pOMAP_CORE_CM->CM_CLKSEL_CORE, CLKSEL_GPT11);

  024c0	e59f3a44	 ldr         r3, [pc, #0xA44]
  024c4	e5933000	 ldr         r3, [r3]
  024c8	e2833004	 add         r3, r3, #4
  024cc	e5933000	 ldr         r3, [r3]
  024d0	e2833040	 add         r3, r3, #0x40
  024d4	e5933000	 ldr         r3, [r3]
  024d8	e3832080	 orr         r2, r3, #0x80
  024dc	e59f3a28	 ldr         r3, [pc, #0xA28]
  024e0	e5933000	 ldr         r3, [r3]
  024e4	e2833004	 add         r3, r3, #4
  024e8	e5933000	 ldr         r3, [r3]
  024ec	e2833040	 add         r3, r3, #0x40
  024f0	e5832000	 str         r2, [r3]

; 628  :                     SETREG32(&g_pPrcmRestore->CM_CLKSEL_CORE, CLKSEL_GPT11);

  024f4	e59f3a0c	 ldr         r3, [pc, #0xA0C]
  024f8	e5933000	 ldr         r3, [r3]
  024fc	e2833008	 add         r3, r3, #8
  02500	e5933000	 ldr         r3, [r3]
  02504	e3832080	 orr         r2, r3, #0x80
  02508	e59f39f8	 ldr         r3, [pc, #0x9F8]
  0250c	e5933000	 ldr         r3, [r3]
  02510	e2833008	 add         r3, r3, #8
  02514	e5832000	 str         r2, [r3]

; 629  :                     break;

  02518	ea000019	 b           |$LN62@ClockHwUpd@2|
  0251c		 |$LN60@ClockHwUpd@2|

; 630  : 
; 631  :                 case kCM_32K_CLK:
; 632  :                     CLRREG32(&g_pPrcmCm->pOMAP_CORE_CM->CM_CLKSEL_CORE, CLKSEL_GPT11);

  0251c	e59f39e8	 ldr         r3, [pc, #0x9E8]
  02520	e5933000	 ldr         r3, [r3]
  02524	e2833004	 add         r3, r3, #4
  02528	e5933000	 ldr         r3, [r3]
  0252c	e2833040	 add         r3, r3, #0x40
  02530	e5932000	 ldr         r2, [r3]
  02534	e3e03080	 mvn         r3, #0x80
  02538	e0022003	 and         r2, r2, r3
  0253c	e59f39c8	 ldr         r3, [pc, #0x9C8]
  02540	e5933000	 ldr         r3, [r3]
  02544	e2833004	 add         r3, r3, #4
  02548	e5933000	 ldr         r3, [r3]
  0254c	e2833040	 add         r3, r3, #0x40
  02550	e5832000	 str         r2, [r3]

; 633  :                     CLRREG32(&g_pPrcmRestore->CM_CLKSEL_CORE, CLKSEL_GPT11);

  02554	e59f39ac	 ldr         r3, [pc, #0x9AC]
  02558	e5933000	 ldr         r3, [r3]
  0255c	e2833008	 add         r3, r3, #8
  02560	e5932000	 ldr         r2, [r3]
  02564	e3e03080	 mvn         r3, #0x80
  02568	e0022003	 and         r2, r2, r3
  0256c	e59f3994	 ldr         r3, [pc, #0x994]
  02570	e5933000	 ldr         r3, [r3]
  02574	e2833008	 add         r3, r3, #8
  02578	e5832000	 str         r2, [r3]

; 634  :                     break;

  0257c	ea000000	 b           |$LN62@ClockHwUpd@2|
  02580		 |$LN59@ClockHwUpd@2|

; 635  : 
; 636  :                 default:
; 637  :                     goto cleanUp;

  02580	ea00024b	 b           |$cleanUp$47056|
  02584		 |$LN62@ClockHwUpd@2|

; 638  :                 }
; 639  :             break;

  02584	ea000248	 b           |$LN125@ClockHwUpd@2|
  02588		 |$LN58@ClockHwUpd@2|

; 640  : 
; 641  :         case k48M_FCLK:                
; 642  :             // verify parent clock is valid
; 643  :             switch(parentClock)

  02588	e59d3010	 ldr         r3, [sp, #0x10]
  0258c	e58d304c	 str         r3, [sp, #0x4C]
  02590	e59d304c	 ldr         r3, [sp, #0x4C]
  02594	e353000d	 cmp         r3, #0xD
  02598	0a00001c	 beq         |$LN54@ClockHwUpd@2|
  0259c	e59d304c	 ldr         r3, [sp, #0x4C]
  025a0	e3530021	 cmp         r3, #0x21
  025a4	0a000000	 beq         |$LN55@ClockHwUpd@2|
  025a8	ea00002f	 b           |$LN53@ClockHwUpd@2|
  025ac		 |$LN55@ClockHwUpd@2|

; 644  :                 {
; 645  :                 case kCM_96M_FCLK:
; 646  :                     CLRREG32(&g_pPrcmCm->pOMAP_CLOCK_CONTROL_CM->CM_CLKSEL1_PLL, SOURCE_48M);

  025ac	e59f3958	 ldr         r3, [pc, #0x958]
  025b0	e5933000	 ldr         r3, [r3]
  025b4	e2833034	 add         r3, r3, #0x34
  025b8	e5933000	 ldr         r3, [r3]
  025bc	e2833040	 add         r3, r3, #0x40
  025c0	e5932000	 ldr         r2, [r3]
  025c4	e3e03008	 mvn         r3, #8
  025c8	e0022003	 and         r2, r2, r3
  025cc	e59f3938	 ldr         r3, [pc, #0x938]
  025d0	e5933000	 ldr         r3, [r3]
  025d4	e2833034	 add         r3, r3, #0x34
  025d8	e5933000	 ldr         r3, [r3]
  025dc	e2833040	 add         r3, r3, #0x40
  025e0	e5832000	 str         r2, [r3]

; 647  :                     CLRREG32(&g_pPrcmRestore->CM_CLKSEL1_PLL, SOURCE_48M);

  025e4	e59f391c	 ldr         r3, [pc, #0x91C]
  025e8	e5933000	 ldr         r3, [r3]
  025ec	e2833018	 add         r3, r3, #0x18
  025f0	e5932000	 ldr         r2, [r3]
  025f4	e3e03008	 mvn         r3, #8
  025f8	e0022003	 and         r2, r2, r3
  025fc	e59f3904	 ldr         r3, [pc, #0x904]
  02600	e5933000	 ldr         r3, [r3]
  02604	e2833018	 add         r3, r3, #0x18
  02608	e5832000	 str         r2, [r3]

; 648  :                     break;

  0260c	ea000017	 b           |$LN56@ClockHwUpd@2|
  02610		 |$LN54@ClockHwUpd@2|

; 649  : 
; 650  :                 case kSYS_ALTCLK:
; 651  :                     SETREG32(&g_pPrcmCm->pOMAP_CLOCK_CONTROL_CM->CM_CLKSEL1_PLL, SOURCE_48M);

  02610	e59f38f4	 ldr         r3, [pc, #0x8F4]
  02614	e5933000	 ldr         r3, [r3]
  02618	e2833034	 add         r3, r3, #0x34
  0261c	e5933000	 ldr         r3, [r3]
  02620	e2833040	 add         r3, r3, #0x40
  02624	e5933000	 ldr         r3, [r3]
  02628	e3832008	 orr         r2, r3, #8
  0262c	e59f38d8	 ldr         r3, [pc, #0x8D8]
  02630	e5933000	 ldr         r3, [r3]
  02634	e2833034	 add         r3, r3, #0x34
  02638	e5933000	 ldr         r3, [r3]
  0263c	e2833040	 add         r3, r3, #0x40
  02640	e5832000	 str         r2, [r3]

; 652  :                     SETREG32(&g_pPrcmRestore->CM_CLKSEL1_PLL, SOURCE_48M);

  02644	e59f38bc	 ldr         r3, [pc, #0x8BC]
  02648	e5933000	 ldr         r3, [r3]
  0264c	e2833018	 add         r3, r3, #0x18
  02650	e5933000	 ldr         r3, [r3]
  02654	e3832008	 orr         r2, r3, #8
  02658	e59f38a8	 ldr         r3, [pc, #0x8A8]
  0265c	e5933000	 ldr         r3, [r3]
  02660	e2833018	 add         r3, r3, #0x18
  02664	e5832000	 str         r2, [r3]

; 653  :                     break;

  02668	ea000000	 b           |$LN56@ClockHwUpd@2|
  0266c		 |$LN53@ClockHwUpd@2|

; 654  : 
; 655  :                 default:
; 656  :                     goto cleanUp;

  0266c	ea000210	 b           |$cleanUp$47056|
  02670		 |$LN56@ClockHwUpd@2|

; 657  :                 }
; 658  :             break;

  02670	ea00020d	 b           |$LN125@ClockHwUpd@2|
  02674		 |$LN52@ClockHwUpd@2|

; 659  : 
; 660  :         case k96M_FCLK:
; 661  :             // verify parent clock is valid
; 662  :             switch(parentClock)

  02674	e59d3010	 ldr         r3, [sp, #0x10]
  02678	e58d3050	 str         r3, [sp, #0x50]
  0267c	e59d3050	 ldr         r3, [sp, #0x50]
  02680	e3530019	 cmp         r3, #0x19
  02684	0a00001c	 beq         |$LN48@ClockHwUpd@2|
  02688	e59d3050	 ldr         r3, [sp, #0x50]
  0268c	e3530021	 cmp         r3, #0x21
  02690	0a000000	 beq         |$LN49@ClockHwUpd@2|
  02694	ea00002f	 b           |$LN47@ClockHwUpd@2|
  02698		 |$LN49@ClockHwUpd@2|

; 663  :                 {
; 664  :                 case kCM_96M_FCLK:
; 665  :                     CLRREG32(&g_pPrcmCm->pOMAP_CLOCK_CONTROL_CM->CM_CLKSEL1_PLL, SOURCE_96M);

  02698	e59f386c	 ldr         r3, [pc, #0x86C]
  0269c	e5933000	 ldr         r3, [r3]
  026a0	e2833034	 add         r3, r3, #0x34
  026a4	e5933000	 ldr         r3, [r3]
  026a8	e2833040	 add         r3, r3, #0x40
  026ac	e5932000	 ldr         r2, [r3]
  026b0	e3e03040	 mvn         r3, #0x40
  026b4	e0022003	 and         r2, r2, r3
  026b8	e59f384c	 ldr         r3, [pc, #0x84C]
  026bc	e5933000	 ldr         r3, [r3]
  026c0	e2833034	 add         r3, r3, #0x34
  026c4	e5933000	 ldr         r3, [r3]
  026c8	e2833040	 add         r3, r3, #0x40
  026cc	e5832000	 str         r2, [r3]

; 666  :                     CLRREG32(&g_pPrcmRestore->CM_CLKSEL1_PLL, SOURCE_96M);

  026d0	e59f3830	 ldr         r3, [pc, #0x830]
  026d4	e5933000	 ldr         r3, [r3]
  026d8	e2833018	 add         r3, r3, #0x18
  026dc	e5932000	 ldr         r2, [r3]
  026e0	e3e03040	 mvn         r3, #0x40
  026e4	e0022003	 and         r2, r2, r3
  026e8	e59f3818	 ldr         r3, [pc, #0x818]
  026ec	e5933000	 ldr         r3, [r3]
  026f0	e2833018	 add         r3, r3, #0x18
  026f4	e5832000	 str         r2, [r3]

; 667  :                     break;

  026f8	ea000017	 b           |$LN50@ClockHwUpd@2|
  026fc		 |$LN48@ClockHwUpd@2|

; 668  : 
; 669  :                 case kCM_SYS_CLK:
; 670  :                     SETREG32(&g_pPrcmCm->pOMAP_CLOCK_CONTROL_CM->CM_CLKSEL1_PLL, SOURCE_96M);

  026fc	e59f3808	 ldr         r3, [pc, #0x808]
  02700	e5933000	 ldr         r3, [r3]
  02704	e2833034	 add         r3, r3, #0x34
  02708	e5933000	 ldr         r3, [r3]
  0270c	e2833040	 add         r3, r3, #0x40
  02710	e5933000	 ldr         r3, [r3]
  02714	e3832040	 orr         r2, r3, #0x40
  02718	e59f37ec	 ldr         r3, [pc, #0x7EC]
  0271c	e5933000	 ldr         r3, [r3]
  02720	e2833034	 add         r3, r3, #0x34
  02724	e5933000	 ldr         r3, [r3]
  02728	e2833040	 add         r3, r3, #0x40
  0272c	e5832000	 str         r2, [r3]

; 671  :                     SETREG32(&g_pPrcmRestore->CM_CLKSEL1_PLL, SOURCE_96M);

  02730	e59f37d0	 ldr         r3, [pc, #0x7D0]
  02734	e5933000	 ldr         r3, [r3]
  02738	e2833018	 add         r3, r3, #0x18
  0273c	e5933000	 ldr         r3, [r3]
  02740	e3832040	 orr         r2, r3, #0x40
  02744	e59f37bc	 ldr         r3, [pc, #0x7BC]
  02748	e5933000	 ldr         r3, [r3]
  0274c	e2833018	 add         r3, r3, #0x18
  02750	e5832000	 str         r2, [r3]

; 672  :                     break;

  02754	ea000000	 b           |$LN50@ClockHwUpd@2|
  02758		 |$LN47@ClockHwUpd@2|

; 673  : 
; 674  :                 default:
; 675  :                     goto cleanUp;

  02758	ea0001d5	 b           |$cleanUp$47056|
  0275c		 |$LN50@ClockHwUpd@2|

; 676  :                 }
; 677  :             break;

  0275c	ea0001d2	 b           |$LN125@ClockHwUpd@2|
  02760		 |$LN46@ClockHwUpd@2|

; 678  : 
; 679  :         case kCAM_MCLK:
; 680  :             // format divider
; 681  :             val = INREG32(&g_pPrcmCm->pOMAP_CAM_CM->CM_CLKSEL_CAM);

  02760	e59f37a4	 ldr         r3, [pc, #0x7A4]
  02764	e5933000	 ldr         r3, [r3]
  02768	e2833024	 add         r3, r3, #0x24
  0276c	e5933000	 ldr         r3, [r3]
  02770	e2833040	 add         r3, r3, #0x40
  02774	e5933000	 ldr         r3, [r3]
  02778	e58d300c	 str         r3, [sp, #0xC]

; 682  :             val = (val & ~CLKSEL_CAM_MASK);

  0277c	e59d200c	 ldr         r2, [sp, #0xC]
  02780	e3e0301f	 mvn         r3, #0x1F
  02784	e0023003	 and         r3, r2, r3
  02788	e58d300c	 str         r3, [sp, #0xC]

; 683  :             val |= CLKSEL_CAM(pDivisors->SourceClock[0].divisor);

  0278c	e59d3008	 ldr         r3, [sp, #8]
  02790	e2833008	 add         r3, r3, #8
  02794	e5933000	 ldr         r3, [r3]
  02798	e203201f	 and         r2, r3, #0x1F
  0279c	e59d300c	 ldr         r3, [sp, #0xC]
  027a0	e1833002	 orr         r3, r3, r2
  027a4	e58d300c	 str         r3, [sp, #0xC]

; 684  : 
; 685  :             // write to hw
; 686  :             OUTREG32(&g_pPrcmCm->pOMAP_CAM_CM->CM_CLKSEL_CAM, val);

  027a8	e59f375c	 ldr         r3, [pc, #0x75C]
  027ac	e5933000	 ldr         r3, [r3]
  027b0	e2833024	 add         r3, r3, #0x24
  027b4	e5933000	 ldr         r3, [r3]
  027b8	e2832040	 add         r2, r3, #0x40
  027bc	e59d300c	 ldr         r3, [sp, #0xC]
  027c0	e5823000	 str         r3, [r2]

; 687  :             break;

  027c4	ea0001b8	 b           |$LN125@ClockHwUpd@2|
  027c8		 |$LN45@ClockHwUpd@2|

; 688  : 
; 689  :         case kDSS1_ALWON_FCLK:
; 690  :             // format divider
; 691  :             val = INREG32(&g_pPrcmCm->pOMAP_DSS_CM->CM_CLKSEL_DSS);

  027c8	e59f373c	 ldr         r3, [pc, #0x73C]
  027cc	e5933000	 ldr         r3, [r3]
  027d0	e2833018	 add         r3, r3, #0x18
  027d4	e5933000	 ldr         r3, [r3]
  027d8	e2833040	 add         r3, r3, #0x40
  027dc	e5933000	 ldr         r3, [r3]
  027e0	e58d300c	 str         r3, [sp, #0xC]

; 692  :             val = (val & ~CLKSEL_DSS1_MASK);

  027e4	e59d200c	 ldr         r2, [sp, #0xC]
  027e8	e3e0301f	 mvn         r3, #0x1F
  027ec	e0023003	 and         r3, r2, r3
  027f0	e58d300c	 str         r3, [sp, #0xC]

; 693  :             val |= CLKSEL_DSS1(pDivisors->SourceClock[0].divisor);

  027f4	e59d3008	 ldr         r3, [sp, #8]
  027f8	e2833008	 add         r3, r3, #8
  027fc	e5933000	 ldr         r3, [r3]
  02800	e203201f	 and         r2, r3, #0x1F
  02804	e59d300c	 ldr         r3, [sp, #0xC]
  02808	e1833002	 orr         r3, r3, r2
  0280c	e58d300c	 str         r3, [sp, #0xC]

; 694  : 
; 695  :             // write to hw
; 696  :             OUTREG32(&g_pPrcmCm->pOMAP_DSS_CM->CM_CLKSEL_DSS, val);

  02810	e59f36f4	 ldr         r3, [pc, #0x6F4]
  02814	e5933000	 ldr         r3, [r3]
  02818	e2833018	 add         r3, r3, #0x18
  0281c	e5933000	 ldr         r3, [r3]
  02820	e2832040	 add         r2, r3, #0x40
  02824	e59d300c	 ldr         r3, [sp, #0xC]
  02828	e5823000	 str         r3, [r2]

; 697  :             break;

  0282c	ea00019e	 b           |$LN125@ClockHwUpd@2|
  02830		 |$LN44@ClockHwUpd@2|

; 698  : 
; 699  :         case kSSI_SSR_FCLK:
; 700  :             // format divider
; 701  :             val = INREG32(&g_pPrcmCm->pOMAP_CORE_CM->CM_CLKSEL_CORE);

  02830	e59f36d4	 ldr         r3, [pc, #0x6D4]
  02834	e5933000	 ldr         r3, [r3]
  02838	e2833004	 add         r3, r3, #4
  0283c	e5933000	 ldr         r3, [r3]
  02840	e2833040	 add         r3, r3, #0x40
  02844	e5933000	 ldr         r3, [r3]
  02848	e58d300c	 str         r3, [sp, #0xC]

; 702  :             val = (val & ~CLKSEL_SSI_MASK);

  0284c	e59d200c	 ldr         r2, [sp, #0xC]
  02850	e3e03c0f	 mvn         r3, #0xF, 24
  02854	e0023003	 and         r3, r2, r3
  02858	e58d300c	 str         r3, [sp, #0xC]

; 703  :             val |= CLKSEL_SSI(pDivisors->SourceClock[0].divisor);

  0285c	e59d3008	 ldr         r3, [sp, #8]
  02860	e2833008	 add         r3, r3, #8
  02864	e5933000	 ldr         r3, [r3]
  02868	e203300f	 and         r3, r3, #0xF
  0286c	e1a02403	 mov         r2, r3, lsl #8
  02870	e59d300c	 ldr         r3, [sp, #0xC]
  02874	e1833002	 orr         r3, r3, r2
  02878	e58d300c	 str         r3, [sp, #0xC]

; 704  : 
; 705  :             // write to hw
; 706  :             OUTREG32(&g_pPrcmCm->pOMAP_CORE_CM->CM_CLKSEL_CORE, val);

  0287c	e59f3688	 ldr         r3, [pc, #0x688]
  02880	e5933000	 ldr         r3, [r3]
  02884	e2833004	 add         r3, r3, #4
  02888	e5933000	 ldr         r3, [r3]
  0288c	e2832040	 add         r2, r3, #0x40
  02890	e59d300c	 ldr         r3, [sp, #0xC]
  02894	e5823000	 str         r3, [r2]

; 707  :             OUTREG32(&g_pPrcmRestore->CM_CLKSEL_CORE, val);

  02898	e59f3668	 ldr         r3, [pc, #0x668]
  0289c	e5933000	 ldr         r3, [r3]
  028a0	e2832008	 add         r2, r3, #8
  028a4	e59d300c	 ldr         r3, [sp, #0xC]
  028a8	e5823000	 str         r3, [r2]

; 708  :             break;

  028ac	ea00017e	 b           |$LN125@ClockHwUpd@2|
  028b0		 |$LN43@ClockHwUpd@2|

; 709  : 
; 710  :         case kSGX_FCLK:
; 711  :             // verify parent clock is valid            
; 712  :             for (i = 0; i < pDivisors->count; ++i)

  028b0	e3a03000	 mov         r3, #0
  028b4	e58d3004	 str         r3, [sp, #4]
  028b8	ea000002	 b           |$LN42@ClockHwUpd@2|
  028bc		 |$LN41@ClockHwUpd@2|
  028bc	e59d3004	 ldr         r3, [sp, #4]
  028c0	e2833001	 add         r3, r3, #1
  028c4	e58d3004	 str         r3, [sp, #4]
  028c8		 |$LN42@ClockHwUpd@2|
  028c8	e59d2004	 ldr         r2, [sp, #4]
  028cc	e59d3008	 ldr         r3, [sp, #8]
  028d0	e5933000	 ldr         r3, [r3]
  028d4	e1520003	 cmp         r2, r3
  028d8	2a000029	 bcs         |$LN40@ClockHwUpd@2|

; 713  :                 {
; 714  :                 if (parentClock == pDivisors->SourceClock[i].id)

  028dc	e59d3008	 ldr         r3, [sp, #8]
  028e0	e2831004	 add         r1, r3, #4
  028e4	e59d2004	 ldr         r2, [sp, #4]
  028e8	e3a03008	 mov         r3, #8
  028ec	e0030392	 mul         r3, r2, r3
  028f0	e0813003	 add         r3, r1, r3
  028f4	e59d2010	 ldr         r2, [sp, #0x10]
  028f8	e5933000	 ldr         r3, [r3]
  028fc	e1520003	 cmp         r2, r3
  02900	1a00001e	 bne         |$LN39@ClockHwUpd@2|

; 715  :                     {
; 716  :                     // format divider
; 717  :                     val = INREG32(&g_pPrcmCm->pOMAP_SGX_CM->CM_CLKSEL_SGX);

  02904	e59f3600	 ldr         r3, [pc, #0x600]
  02908	e5933000	 ldr         r3, [r3]
  0290c	e2833028	 add         r3, r3, #0x28
  02910	e5933000	 ldr         r3, [r3]
  02914	e2833040	 add         r3, r3, #0x40
  02918	e5933000	 ldr         r3, [r3]
  0291c	e58d300c	 str         r3, [sp, #0xC]

; 718  :                     val = (val & ~CLKSEL_SGX_MASK);

  02920	e59d200c	 ldr         r2, [sp, #0xC]
  02924	e3e03007	 mvn         r3, #7
  02928	e0023003	 and         r3, r2, r3
  0292c	e58d300c	 str         r3, [sp, #0xC]

; 719  :                     val |= CLKSEL_SGX(pDivisors->SourceClock[i].divisor);

  02930	e59d3008	 ldr         r3, [sp, #8]
  02934	e2831004	 add         r1, r3, #4
  02938	e59d2004	 ldr         r2, [sp, #4]
  0293c	e3a03008	 mov         r3, #8
  02940	e0030392	 mul         r3, r2, r3
  02944	e0813003	 add         r3, r1, r3
  02948	e2833004	 add         r3, r3, #4
  0294c	e5933000	 ldr         r3, [r3]
  02950	e2032007	 and         r2, r3, #7
  02954	e59d300c	 ldr         r3, [sp, #0xC]
  02958	e1833002	 orr         r3, r3, r2
  0295c	e58d300c	 str         r3, [sp, #0xC]

; 720  : 
; 721  :                     // write to hw
; 722  :                     OUTREG32(&g_pPrcmCm->pOMAP_SGX_CM->CM_CLKSEL_SGX, val);

  02960	e59f35a4	 ldr         r3, [pc, #0x5A4]
  02964	e5933000	 ldr         r3, [r3]
  02968	e2833028	 add         r3, r3, #0x28
  0296c	e5933000	 ldr         r3, [r3]
  02970	e2832040	 add         r2, r3, #0x40
  02974	e59d300c	 ldr         r3, [sp, #0xC]
  02978	e5823000	 str         r3, [r2]

; 723  :                     break;

  0297c	ea000000	 b           |$LN40@ClockHwUpd@2|
  02980		 |$LN39@ClockHwUpd@2|

; 724  :                     }
; 725  :                 }

  02980	eaffffcd	 b           |$LN41@ClockHwUpd@2|
  02984		 |$LN40@ClockHwUpd@2|

; 726  :             break;

  02984	ea000148	 b           |$LN125@ClockHwUpd@2|
  02988		 |$LN38@ClockHwUpd@2|

; 727  : 
; 728  :         case k54M_FCLK:
; 729  :             switch (parentClock)

  02988	e59d3010	 ldr         r3, [sp, #0x10]
  0298c	e58d3054	 str         r3, [sp, #0x54]
  02990	e59d3054	 ldr         r3, [sp, #0x54]
  02994	e3530006	 cmp         r3, #6
  02998	0a000003	 beq         |$LN35@ClockHwUpd@2|
  0299c	e59d3054	 ldr         r3, [sp, #0x54]
  029a0	e353000d	 cmp         r3, #0xD
  029a4	0a000033	 beq         |$LN34@ClockHwUpd@2|
  029a8	ea000049	 b           |$LN33@ClockHwUpd@2|
  029ac		 |$LN35@ClockHwUpd@2|

; 730  :                 {
; 731  :                 case kDPLL4_M3X2_CLK:
; 732  :                     // format divider
; 733  :                     val = INREG32(&g_pPrcmCm->pOMAP_DSS_CM->CM_CLKSEL_DSS);

  029ac	e59f3558	 ldr         r3, [pc, #0x558]
  029b0	e5933000	 ldr         r3, [r3]
  029b4	e2833018	 add         r3, r3, #0x18
  029b8	e5933000	 ldr         r3, [r3]
  029bc	e2833040	 add         r3, r3, #0x40
  029c0	e5933000	 ldr         r3, [r3]
  029c4	e58d300c	 str         r3, [sp, #0xC]

; 734  :                     val = (val & ~CLKSEL_TV_MASK);

  029c8	e59d200c	 ldr         r2, [sp, #0xC]
  029cc	e3e03c1f	 mvn         r3, #0x1F, 24
  029d0	e0023003	 and         r3, r2, r3
  029d4	e58d300c	 str         r3, [sp, #0xC]

; 735  :                     val |= CLKSEL_TV(pDivisors->SourceClock[0].divisor);

  029d8	e59d3008	 ldr         r3, [sp, #8]
  029dc	e2833008	 add         r3, r3, #8
  029e0	e5933000	 ldr         r3, [r3]
  029e4	e203301f	 and         r3, r3, #0x1F
  029e8	e1a02403	 mov         r2, r3, lsl #8
  029ec	e59d300c	 ldr         r3, [sp, #0xC]
  029f0	e1833002	 orr         r3, r3, r2
  029f4	e58d300c	 str         r3, [sp, #0xC]

; 736  : 
; 737  :                     // write to hw
; 738  :                     OUTREG32(&g_pPrcmCm->pOMAP_DSS_CM->CM_CLKSEL_DSS, val);

  029f8	e59f350c	 ldr         r3, [pc, #0x50C]
  029fc	e5933000	 ldr         r3, [r3]
  02a00	e2833018	 add         r3, r3, #0x18
  02a04	e5933000	 ldr         r3, [r3]
  02a08	e2832040	 add         r2, r3, #0x40
  02a0c	e59d300c	 ldr         r3, [sp, #0xC]
  02a10	e5823000	 str         r3, [r2]

; 739  :                     CLRREG32(&g_pPrcmCm->pOMAP_CLOCK_CONTROL_CM->CM_CLKSEL1_PLL, SOURCE_54M);

  02a14	e59f34f0	 ldr         r3, [pc, #0x4F0]
  02a18	e5933000	 ldr         r3, [r3]
  02a1c	e2833034	 add         r3, r3, #0x34
  02a20	e5933000	 ldr         r3, [r3]
  02a24	e2833040	 add         r3, r3, #0x40
  02a28	e5932000	 ldr         r2, [r3]
  02a2c	e3e03020	 mvn         r3, #0x20
  02a30	e0022003	 and         r2, r2, r3
  02a34	e59f34d0	 ldr         r3, [pc, #0x4D0]
  02a38	e5933000	 ldr         r3, [r3]
  02a3c	e2833034	 add         r3, r3, #0x34
  02a40	e5933000	 ldr         r3, [r3]
  02a44	e2833040	 add         r3, r3, #0x40
  02a48	e5832000	 str         r2, [r3]

; 740  :                     CLRREG32(&g_pPrcmRestore->CM_CLKSEL1_PLL, SOURCE_54M);

  02a4c	e59f34b4	 ldr         r3, [pc, #0x4B4]
  02a50	e5933000	 ldr         r3, [r3]
  02a54	e2833018	 add         r3, r3, #0x18
  02a58	e5932000	 ldr         r2, [r3]
  02a5c	e3e03020	 mvn         r3, #0x20
  02a60	e0022003	 and         r2, r2, r3
  02a64	e59f349c	 ldr         r3, [pc, #0x49C]
  02a68	e5933000	 ldr         r3, [r3]
  02a6c	e2833018	 add         r3, r3, #0x18
  02a70	e5832000	 str         r2, [r3]

; 741  :                     break;

  02a74	ea000017	 b           |$LN36@ClockHwUpd@2|
  02a78		 |$LN34@ClockHwUpd@2|

; 742  : 
; 743  :                 case kSYS_ALTCLK:
; 744  :                     // write to hw
; 745  :                     SETREG32(&g_pPrcmCm->pOMAP_CLOCK_CONTROL_CM->CM_CLKSEL1_PLL, SOURCE_54M);

  02a78	e59f348c	 ldr         r3, [pc, #0x48C]
  02a7c	e5933000	 ldr         r3, [r3]
  02a80	e2833034	 add         r3, r3, #0x34
  02a84	e5933000	 ldr         r3, [r3]
  02a88	e2833040	 add         r3, r3, #0x40
  02a8c	e5933000	 ldr         r3, [r3]
  02a90	e3832020	 orr         r2, r3, #0x20
  02a94	e59f3470	 ldr         r3, [pc, #0x470]
  02a98	e5933000	 ldr         r3, [r3]
  02a9c	e2833034	 add         r3, r3, #0x34
  02aa0	e5933000	 ldr         r3, [r3]
  02aa4	e2833040	 add         r3, r3, #0x40
  02aa8	e5832000	 str         r2, [r3]

; 746  :                     SETREG32(&g_pPrcmRestore->CM_CLKSEL1_PLL, SOURCE_54M);

  02aac	e59f3454	 ldr         r3, [pc, #0x454]
  02ab0	e5933000	 ldr         r3, [r3]
  02ab4	e2833018	 add         r3, r3, #0x18
  02ab8	e5933000	 ldr         r3, [r3]
  02abc	e3832020	 orr         r2, r3, #0x20
  02ac0	e59f3440	 ldr         r3, [pc, #0x440]
  02ac4	e5933000	 ldr         r3, [r3]
  02ac8	e2833018	 add         r3, r3, #0x18
  02acc	e5832000	 str         r2, [r3]

; 747  :                     break;

  02ad0	ea000000	 b           |$LN36@ClockHwUpd@2|
  02ad4		 |$LN33@ClockHwUpd@2|

; 748  : 
; 749  :                 default:
; 750  :                     goto cleanUp;

  02ad4	ea0000f6	 b           |$cleanUp$47056|
  02ad8		 |$LN36@ClockHwUpd@2|

; 751  :                 }
; 752  :             break;

  02ad8	ea0000f3	 b           |$LN125@ClockHwUpd@2|
  02adc		 |$LN32@ClockHwUpd@2|

; 753  : 
; 754  :         case kUSIM_FCLK:
; 755  :         case kCM_USIM_CLK:
; 756  :             // ignore if parent clock *is not* the CM_USIM_CLK
; 757  :             if (s_SrcClockTable[kUSIM_FCLK].parentClk == kCM_USIM_CLK)

  02adc	e59f342c	 ldr         r3, [pc, #0x42C]
  02ae0	e5933564	 ldr         r3, [r3, #0x564]
  02ae4	e3530044	 cmp         r3, #0x44
  02ae8	1a00003c	 bne         |$LN31@ClockHwUpd@2|

; 758  :                 {   
; 759  :                 // make sure divisor pointer points to kCM_USIM_CLK divisor;
; 760  :                 pDivisors = s_SrcClockTable[kCM_USIM_CLK].pDivisors;

  02aec	e59f341c	 ldr         r3, [pc, #0x41C]
  02af0	e593355c	 ldr         r3, [r3, #0x55C]
  02af4	e58d3008	 str         r3, [sp, #8]

; 761  :                 
; 762  :                 // verify parent clock is valid
; 763  :                 for (i = 0; i < pDivisors->count; ++i)

  02af8	e3a03000	 mov         r3, #0
  02afc	e58d3004	 str         r3, [sp, #4]
  02b00	ea000002	 b           |$LN30@ClockHwUpd@2|
  02b04		 |$LN29@ClockHwUpd@2|
  02b04	e59d3004	 ldr         r3, [sp, #4]
  02b08	e2833001	 add         r3, r3, #1
  02b0c	e58d3004	 str         r3, [sp, #4]
  02b10		 |$LN30@ClockHwUpd@2|
  02b10	e59d2004	 ldr         r2, [sp, #4]
  02b14	e59d3008	 ldr         r3, [sp, #8]
  02b18	e5933000	 ldr         r3, [r3]
  02b1c	e1520003	 cmp         r2, r3
  02b20	2a00002d	 bcs         |$LN28@ClockHwUpd@2|

; 764  :                     {
; 765  :                     if (parentClock == pDivisors->SourceClock[i].id)

  02b24	e59d3008	 ldr         r3, [sp, #8]
  02b28	e2831004	 add         r1, r3, #4
  02b2c	e59d2004	 ldr         r2, [sp, #4]
  02b30	e3a03008	 mov         r3, #8
  02b34	e0030392	 mul         r3, r2, r3
  02b38	e0813003	 add         r3, r1, r3
  02b3c	e59d2010	 ldr         r2, [sp, #0x10]
  02b40	e5933000	 ldr         r3, [r3]
  02b44	e1520003	 cmp         r2, r3
  02b48	1a000022	 bne         |$LN27@ClockHwUpd@2|

; 766  :                         {
; 767  :                         // format divider
; 768  :                         val = INREG32(&g_pPrcmCm->pOMAP_WKUP_CM->CM_CLKSEL_WKUP);

  02b4c	e59f33b8	 ldr         r3, [pc, #0x3B8]
  02b50	e5933000	 ldr         r3, [r3]
  02b54	e5933000	 ldr         r3, [r3]
  02b58	e2833040	 add         r3, r3, #0x40
  02b5c	e5933000	 ldr         r3, [r3]
  02b60	e58d300c	 str         r3, [sp, #0xC]

; 769  :                         val = (val & ~CLKSEL_USIMOCP_MASK);

  02b64	e59d200c	 ldr         r2, [sp, #0xC]
  02b68	e3e03078	 mvn         r3, #0x78
  02b6c	e0023003	 and         r3, r2, r3
  02b70	e58d300c	 str         r3, [sp, #0xC]

; 770  :                         val |= CLKSEL_USIMOCP(pDivisors->SourceClock[i].divisor);

  02b74	e59d3008	 ldr         r3, [sp, #8]
  02b78	e2831004	 add         r1, r3, #4
  02b7c	e59d2004	 ldr         r2, [sp, #4]
  02b80	e3a03008	 mov         r3, #8
  02b84	e0030392	 mul         r3, r2, r3
  02b88	e0813003	 add         r3, r1, r3
  02b8c	e2833004	 add         r3, r3, #4
  02b90	e5933000	 ldr         r3, [r3]
  02b94	e203300f	 and         r3, r3, #0xF
  02b98	e1a02183	 mov         r2, r3, lsl #3
  02b9c	e59d300c	 ldr         r3, [sp, #0xC]
  02ba0	e1833002	 orr         r3, r3, r2
  02ba4	e58d300c	 str         r3, [sp, #0xC]

; 771  : 
; 772  :                         // write to hw
; 773  :                         OUTREG32(&g_pPrcmCm->pOMAP_WKUP_CM->CM_CLKSEL_WKUP, val);

  02ba8	e59f335c	 ldr         r3, [pc, #0x35C]
  02bac	e5933000	 ldr         r3, [r3]
  02bb0	e5933000	 ldr         r3, [r3]
  02bb4	e2832040	 add         r2, r3, #0x40
  02bb8	e59d300c	 ldr         r3, [sp, #0xC]
  02bbc	e5823000	 str         r3, [r2]

; 774  :                         OUTREG32(&g_pPrcmRestore->CM_CLKSEL_WKUP, val);

  02bc0	e59f3340	 ldr         r3, [pc, #0x340]
  02bc4	e5933000	 ldr         r3, [r3]
  02bc8	e283200c	 add         r2, r3, #0xC
  02bcc	e59d300c	 ldr         r3, [sp, #0xC]
  02bd0	e5823000	 str         r3, [r2]

; 775  :                         break;

  02bd4	ea000000	 b           |$LN28@ClockHwUpd@2|
  02bd8		 |$LN27@ClockHwUpd@2|

; 776  :                         }
; 777  :                     }

  02bd8	eaffffc9	 b           |$LN29@ClockHwUpd@2|
  02bdc		 |$LN28@ClockHwUpd@2|

; 778  :                 }
; 779  :             else

  02bdc	ea00001c	 b           |$LN26@ClockHwUpd@2|
  02be0		 |$LN31@ClockHwUpd@2|

; 780  :                 {
; 781  :                  // format divider
; 782  :                 val = INREG32(&g_pPrcmCm->pOMAP_WKUP_CM->CM_CLKSEL_WKUP);

  02be0	e59f3324	 ldr         r3, [pc, #0x324]
  02be4	e5933000	 ldr         r3, [r3]
  02be8	e5933000	 ldr         r3, [r3]
  02bec	e2833040	 add         r3, r3, #0x40
  02bf0	e5933000	 ldr         r3, [r3]
  02bf4	e58d300c	 str         r3, [sp, #0xC]

; 783  :                 val = (val & ~CLKSEL_USIMOCP_MASK);

  02bf8	e59d200c	 ldr         r2, [sp, #0xC]
  02bfc	e3e03078	 mvn         r3, #0x78
  02c00	e0023003	 and         r3, r2, r3
  02c04	e58d300c	 str         r3, [sp, #0xC]

; 784  :                 val |= CLKSEL_USIMOCP(pDivisors->SourceClock[0].divisor);

  02c08	e59d3008	 ldr         r3, [sp, #8]
  02c0c	e2833008	 add         r3, r3, #8
  02c10	e5933000	 ldr         r3, [r3]
  02c14	e203300f	 and         r3, r3, #0xF
  02c18	e1a02183	 mov         r2, r3, lsl #3
  02c1c	e59d300c	 ldr         r3, [sp, #0xC]
  02c20	e1833002	 orr         r3, r3, r2
  02c24	e58d300c	 str         r3, [sp, #0xC]

; 785  : 
; 786  :                 // write to hw
; 787  :                 OUTREG32(&g_pPrcmCm->pOMAP_WKUP_CM->CM_CLKSEL_WKUP, val);

  02c28	e59f32dc	 ldr         r3, [pc, #0x2DC]
  02c2c	e5933000	 ldr         r3, [r3]
  02c30	e5933000	 ldr         r3, [r3]
  02c34	e2832040	 add         r2, r3, #0x40
  02c38	e59d300c	 ldr         r3, [sp, #0xC]
  02c3c	e5823000	 str         r3, [r2]

; 788  :                 OUTREG32(&g_pPrcmRestore->CM_CLKSEL_WKUP, val);

  02c40	e59f32c0	 ldr         r3, [pc, #0x2C0]
  02c44	e5933000	 ldr         r3, [r3]
  02c48	e283200c	 add         r2, r3, #0xC
  02c4c	e59d300c	 ldr         r3, [sp, #0xC]
  02c50	e5823000	 str         r3, [r2]
  02c54		 |$LN26@ClockHwUpd@2|

; 789  :                 }
; 790  :             break;

  02c54	ea000094	 b           |$LN125@ClockHwUpd@2|
  02c58		 |$LN25@ClockHwUpd@2|

; 791  : 
; 792  :         case kMCBSP1_CLKS:
; 793  :             // verify parent clock is valid
; 794  :             switch(parentClock)

  02c58	e59d3010	 ldr         r3, [sp, #0x10]
  02c5c	e58d3058	 str         r3, [sp, #0x58]
  02c60	e59d3058	 ldr         r3, [sp, #0x58]
  02c64	e353000f	 cmp         r3, #0xF
  02c68	0a00000e	 beq         |$LN21@ClockHwUpd@2|
  02c6c	e59d3058	 ldr         r3, [sp, #0x58]
  02c70	e353003a	 cmp         r3, #0x3A
  02c74	0a000000	 beq         |$LN22@ClockHwUpd@2|
  02c78	ea000013	 b           |$LN23@ClockHwUpd@2|
  02c7c		 |$LN22@ClockHwUpd@2|

; 795  :                 {
; 796  :                 case kCORE_96M_FCLK:
; 797  :                     CLRREG32(&g_pSysCtrlGenReg->CONTROL_DEVCONF0, DEVCONF0_MCBSP1_CLKS);

  02c7c	e59f3280	 ldr         r3, [pc, #0x280]
  02c80	e5933000	 ldr         r3, [r3]
  02c84	e2833004	 add         r3, r3, #4
  02c88	e5932000	 ldr         r2, [r3]
  02c8c	e3e03004	 mvn         r3, #4
  02c90	e0022003	 and         r2, r2, r3
  02c94	e59f3268	 ldr         r3, [pc, #0x268]
  02c98	e5933000	 ldr         r3, [r3]
  02c9c	e2833004	 add         r3, r3, #4
  02ca0	e5832000	 str         r2, [r3]

; 798  :                     break;

  02ca4	ea000008	 b           |$LN23@ClockHwUpd@2|
  02ca8		 |$LN21@ClockHwUpd@2|

; 799  : 
; 800  :                 case kMCBSP_CLKS:
; 801  :                     SETREG32(&g_pSysCtrlGenReg->CONTROL_DEVCONF0, DEVCONF0_MCBSP1_CLKS);

  02ca8	e59f3254	 ldr         r3, [pc, #0x254]
  02cac	e5933000	 ldr         r3, [r3]
  02cb0	e2833004	 add         r3, r3, #4
  02cb4	e5933000	 ldr         r3, [r3]
  02cb8	e3832004	 orr         r2, r3, #4
  02cbc	e59f3240	 ldr         r3, [pc, #0x240]
  02cc0	e5933000	 ldr         r3, [r3]
  02cc4	e2833004	 add         r3, r3, #4
  02cc8	e5832000	 str         r2, [r3]
  02ccc		 |$LN23@ClockHwUpd@2|

; 802  :                     break;
; 803  :                 }
; 804  :             break;

  02ccc	ea000076	 b           |$LN125@ClockHwUpd@2|
  02cd0		 |$LN20@ClockHwUpd@2|

; 805  : 
; 806  :        case kMCBSP2_CLKS:
; 807  :             // verify parent clock is valid
; 808  :             switch(parentClock)

  02cd0	e59d3010	 ldr         r3, [sp, #0x10]
  02cd4	e58d305c	 str         r3, [sp, #0x5C]
  02cd8	e59d305c	 ldr         r3, [sp, #0x5C]
  02cdc	e353000f	 cmp         r3, #0xF
  02ce0	0a00000e	 beq         |$LN16@ClockHwUpd@2|
  02ce4	e59d305c	 ldr         r3, [sp, #0x5C]
  02ce8	e3530022	 cmp         r3, #0x22
  02cec	0a000000	 beq         |$LN17@ClockHwUpd@2|
  02cf0	ea000013	 b           |$LN18@ClockHwUpd@2|
  02cf4		 |$LN17@ClockHwUpd@2|

; 809  :                 {
; 810  :                 case k96M_ALWON_FCLK:
; 811  :                     CLRREG32(&g_pSysCtrlGenReg->CONTROL_DEVCONF0, DEVCONF0_MCBSP2_CLKS);

  02cf4	e59f3208	 ldr         r3, [pc, #0x208]
  02cf8	e5933000	 ldr         r3, [r3]
  02cfc	e2833004	 add         r3, r3, #4
  02d00	e5932000	 ldr         r2, [r3]
  02d04	e3e03040	 mvn         r3, #0x40
  02d08	e0022003	 and         r2, r2, r3
  02d0c	e59f31f0	 ldr         r3, [pc, #0x1F0]
  02d10	e5933000	 ldr         r3, [r3]
  02d14	e2833004	 add         r3, r3, #4
  02d18	e5832000	 str         r2, [r3]

; 812  :                     break;

  02d1c	ea000008	 b           |$LN18@ClockHwUpd@2|
  02d20		 |$LN16@ClockHwUpd@2|

; 813  : 
; 814  :                 case kMCBSP_CLKS:
; 815  :                     SETREG32(&g_pSysCtrlGenReg->CONTROL_DEVCONF0, DEVCONF0_MCBSP2_CLKS);

  02d20	e59f31dc	 ldr         r3, [pc, #0x1DC]
  02d24	e5933000	 ldr         r3, [r3]
  02d28	e2833004	 add         r3, r3, #4
  02d2c	e5933000	 ldr         r3, [r3]
  02d30	e3832040	 orr         r2, r3, #0x40
  02d34	e59f31c8	 ldr         r3, [pc, #0x1C8]
  02d38	e5933000	 ldr         r3, [r3]
  02d3c	e2833004	 add         r3, r3, #4
  02d40	e5832000	 str         r2, [r3]
  02d44		 |$LN18@ClockHwUpd@2|

; 816  :                     break;
; 817  :                 }
; 818  :             break;

  02d44	ea000058	 b           |$LN125@ClockHwUpd@2|
  02d48		 |$LN15@ClockHwUpd@2|

; 819  : 
; 820  :         case kMCBSP3_CLKS:
; 821  :             // verify parent clock is valid
; 822  :             switch(parentClock)

  02d48	e59d3010	 ldr         r3, [sp, #0x10]
  02d4c	e58d3060	 str         r3, [sp, #0x60]
  02d50	e59d3060	 ldr         r3, [sp, #0x60]
  02d54	e353000f	 cmp         r3, #0xF
  02d58	0a00000e	 beq         |$LN11@ClockHwUpd@2|
  02d5c	e59d3060	 ldr         r3, [sp, #0x60]
  02d60	e3530022	 cmp         r3, #0x22
  02d64	0a000000	 beq         |$LN12@ClockHwUpd@2|
  02d68	ea000013	 b           |$LN13@ClockHwUpd@2|
  02d6c		 |$LN12@ClockHwUpd@2|

; 823  :                 {
; 824  :                 case k96M_ALWON_FCLK:
; 825  :                     CLRREG32(&g_pSysCtrlGenReg->CONTROL_DEVCONF1, DEVCONF1_MCBSP3_CLKS);

  02d6c	e59f3190	 ldr         r3, [pc, #0x190]
  02d70	e5933000	 ldr         r3, [r3]
  02d74	e2833068	 add         r3, r3, #0x68
  02d78	e5932000	 ldr         r2, [r3]
  02d7c	e3e03001	 mvn         r3, #1
  02d80	e0022003	 and         r2, r2, r3
  02d84	e59f3178	 ldr         r3, [pc, #0x178]
  02d88	e5933000	 ldr         r3, [r3]
  02d8c	e2833068	 add         r3, r3, #0x68
  02d90	e5832000	 str         r2, [r3]

; 826  :                     break;

  02d94	ea000008	 b           |$LN13@ClockHwUpd@2|
  02d98		 |$LN11@ClockHwUpd@2|

; 827  : 
; 828  :                 case kMCBSP_CLKS:
; 829  :                     SETREG32(&g_pSysCtrlGenReg->CONTROL_DEVCONF1, DEVCONF1_MCBSP3_CLKS);

  02d98	e59f3164	 ldr         r3, [pc, #0x164]
  02d9c	e5933000	 ldr         r3, [r3]
  02da0	e2833068	 add         r3, r3, #0x68
  02da4	e5933000	 ldr         r3, [r3]
  02da8	e3832001	 orr         r2, r3, #1
  02dac	e59f3150	 ldr         r3, [pc, #0x150]
  02db0	e5933000	 ldr         r3, [r3]
  02db4	e2833068	 add         r3, r3, #0x68
  02db8	e5832000	 str         r2, [r3]
  02dbc		 |$LN13@ClockHwUpd@2|

; 830  :                     break;
; 831  :                 }
; 832  :             break;

  02dbc	ea00003a	 b           |$LN125@ClockHwUpd@2|
  02dc0		 |$LN10@ClockHwUpd@2|

; 833  : 
; 834  :         case kMCBSP4_CLKS:
; 835  :             // verify parent clock is valid
; 836  :             switch(parentClock)

  02dc0	e59d3010	 ldr         r3, [sp, #0x10]
  02dc4	e58d3064	 str         r3, [sp, #0x64]
  02dc8	e59d3064	 ldr         r3, [sp, #0x64]
  02dcc	e353000f	 cmp         r3, #0xF
  02dd0	0a00000e	 beq         |$LN6@ClockHwUpd@2|
  02dd4	e59d3064	 ldr         r3, [sp, #0x64]
  02dd8	e3530022	 cmp         r3, #0x22
  02ddc	0a000000	 beq         |$LN7@ClockHwUpd@2|
  02de0	ea000013	 b           |$LN8@ClockHwUpd@2|
  02de4		 |$LN7@ClockHwUpd@2|

; 837  :                 {
; 838  :                 case k96M_ALWON_FCLK:
; 839  :                     CLRREG32(&g_pSysCtrlGenReg->CONTROL_DEVCONF1, DEVCONF1_MCBSP4_CLKS);

  02de4	e59f3118	 ldr         r3, [pc, #0x118]
  02de8	e5933000	 ldr         r3, [r3]
  02dec	e2833068	 add         r3, r3, #0x68
  02df0	e5932000	 ldr         r2, [r3]
  02df4	e3e03004	 mvn         r3, #4
  02df8	e0022003	 and         r2, r2, r3
  02dfc	e59f3100	 ldr         r3, [pc, #0x100]
  02e00	e5933000	 ldr         r3, [r3]
  02e04	e2833068	 add         r3, r3, #0x68
  02e08	e5832000	 str         r2, [r3]

; 840  :                     break;

  02e0c	ea000008	 b           |$LN8@ClockHwUpd@2|
  02e10		 |$LN6@ClockHwUpd@2|

; 841  : 
; 842  :                 case kMCBSP_CLKS:
; 843  :                     SETREG32(&g_pSysCtrlGenReg->CONTROL_DEVCONF1, DEVCONF1_MCBSP4_CLKS);

  02e10	e59f30ec	 ldr         r3, [pc, #0xEC]
  02e14	e5933000	 ldr         r3, [r3]
  02e18	e2833068	 add         r3, r3, #0x68
  02e1c	e5933000	 ldr         r3, [r3]
  02e20	e3832004	 orr         r2, r3, #4
  02e24	e59f30d8	 ldr         r3, [pc, #0xD8]
  02e28	e5933000	 ldr         r3, [r3]
  02e2c	e2833068	 add         r3, r3, #0x68
  02e30	e5832000	 str         r2, [r3]
  02e34		 |$LN8@ClockHwUpd@2|

; 844  :                     break;
; 845  :                 }
; 846  :             break;

  02e34	ea00001c	 b           |$LN125@ClockHwUpd@2|
  02e38		 |$LN5@ClockHwUpd@2|

; 847  : 
; 848  :         case kMCBSP5_CLKS:
; 849  :             // verify parent clock is valid
; 850  :             switch(parentClock)

  02e38	e59d3010	 ldr         r3, [sp, #0x10]
  02e3c	e58d3068	 str         r3, [sp, #0x68]
  02e40	e59d3068	 ldr         r3, [sp, #0x68]
  02e44	e353000f	 cmp         r3, #0xF
  02e48	0a00000e	 beq         |$LN1@ClockHwUpd@2|
  02e4c	e59d3068	 ldr         r3, [sp, #0x68]
  02e50	e353003a	 cmp         r3, #0x3A
  02e54	0a000000	 beq         |$LN2@ClockHwUpd@2|
  02e58	ea000013	 b           |$LN3@ClockHwUpd@2|
  02e5c		 |$LN2@ClockHwUpd@2|

; 851  :                 {
; 852  :                 case kCORE_96M_FCLK:
; 853  :                     CLRREG32(&g_pSysCtrlGenReg->CONTROL_DEVCONF1, DEVCONF1_MCBSP5_CLKS);

  02e5c	e59f30a0	 ldr         r3, [pc, #0xA0]
  02e60	e5933000	 ldr         r3, [r3]
  02e64	e2833068	 add         r3, r3, #0x68
  02e68	e5932000	 ldr         r2, [r3]
  02e6c	e3e03010	 mvn         r3, #0x10
  02e70	e0022003	 and         r2, r2, r3
  02e74	e59f3088	 ldr         r3, [pc, #0x88]
  02e78	e5933000	 ldr         r3, [r3]
  02e7c	e2833068	 add         r3, r3, #0x68
  02e80	e5832000	 str         r2, [r3]

; 854  :                     break;

  02e84	ea000008	 b           |$LN3@ClockHwUpd@2|
  02e88		 |$LN1@ClockHwUpd@2|

; 855  : 
; 856  :                 case kMCBSP_CLKS:
; 857  :                     SETREG32(&g_pSysCtrlGenReg->CONTROL_DEVCONF1, DEVCONF1_MCBSP5_CLKS);

  02e88	e59f3074	 ldr         r3, [pc, #0x74]
  02e8c	e5933000	 ldr         r3, [r3]
  02e90	e2833068	 add         r3, r3, #0x68
  02e94	e5933000	 ldr         r3, [r3]
  02e98	e3832010	 orr         r2, r3, #0x10
  02e9c	e59f3060	 ldr         r3, [pc, #0x60]
  02ea0	e5933000	 ldr         r3, [r3]
  02ea4	e2833068	 add         r3, r3, #0x68
  02ea8	e5832000	 str         r2, [r3]
  02eac		 |$LN3@ClockHwUpd@2|
  02eac		 |$LN125@ClockHwUpd@2|

; 858  :                     break;
; 859  :                 }
; 860  :             break;
; 861  : 
; 862  : #if 0
; 863  :         case kIVA2_CLK:  
; 864  :             kDPLL2_M2_CLK/*DPLL2_FCLK*/
; 865  :             break;
; 866  : 
; 867  :         case kMPU_CLK:    
; 868  :             kDPLL1_M2X2_CLK/*DPLL1_FCLK*/
; 869  :             break;
; 870  : #endif            
; 871  :         }
; 872  : 
; 873  :     rc = TRUE;

  02eac	e3a03001	 mov         r3, #1
  02eb0	e58d3000	 str         r3, [sp]
  02eb4		 |$cleanUp$47056|

; 874  :             
; 875  : cleanUp:    
; 876  :     OALMSG(OAL_FUNC, (L"-_ClockHwUpdateParentClock()=%d\r\n", rc));

  02eb4	e59f3044	 ldr         r3, [pc, #0x44]
  02eb8	e5933440	 ldr         r3, [r3, #0x440]
  02ebc	e3130004	 tst         r3, #4
  02ec0	0a000005	 beq         |$LN132@ClockHwUpd@2|
  02ec4	e59d1000	 ldr         r1, [sp]
  02ec8	e59f002c	 ldr         r0, [pc, #0x2C]
  02ecc	eb000000	 bl          NKDbgPrintfW
  02ed0	e3a03001	 mov         r3, #1
  02ed4	e58d306c	 str         r3, [sp, #0x6C]
  02ed8	ea000001	 b           |$LN133@ClockHwUpd@2|
  02edc		 |$LN132@ClockHwUpd@2|
  02edc	e3a03000	 mov         r3, #0
  02ee0	e58d306c	 str         r3, [sp, #0x6C]
  02ee4		 |$LN133@ClockHwUpd@2|

; 877  :     return rc;

  02ee4	e59d3000	 ldr         r3, [sp]
  02ee8	e58d3014	 str         r3, [sp, #0x14]

; 878  : }

  02eec	e59d0014	 ldr         r0, [sp, #0x14]
  02ef0	e28dd070	 add         sp, sp, #0x70
  02ef4	e89d6000	 ldmia       sp, {sp, lr}
  02ef8	e12fff1e	 bx          lr
  02efc		 |$LN222@ClockHwUpd@2|
  02efc		 |$LN223@ClockHwUpd@2|
  02efc	00000000	 DCD         |??_C@_1EE@LONBGGII@?$AA?9?$AA_?$AAC?$AAl?$AAo?$AAc?$AAk?$AAH?$AAw?$AAU?$AAp?$AAd?$AAa?$AAt?$AAe?$AAP?$AAa?$AAr?$AAe?$AAn?$AAt?$AAC?$AAl?$AAo?$AAc?$AAk?$AA?$CI?$AA?$CJ?$AA?$DN?$AA?$CF?$AAd?$AA?$AN@|
  02f00		 |$LN224@ClockHwUpd@2|
  02f00	00000000	 DCD         |dpCurSettings|
  02f04		 |$LN225@ClockHwUpd@2|
  02f04	00000000	 DCD         |g_pSysCtrlGenReg|
  02f08		 |$LN226@ClockHwUpd@2|
  02f08	00000000	 DCD         |g_pPrcmRestore|
  02f0c		 |$LN227@ClockHwUpd@2|
  02f0c	00000000	 DCD         |g_pPrcmCm|
  02f10		 |$LN228@ClockHwUpd@2|
  02f10	00000000	 DCD         |s_SrcClockTable|
  02f14		 |$M49518|

			 ENDP  ; |_ClockHwUpdateParentClock|

	EXPORT	|??_C@_1DG@BPIDCFJO@?$AA?9?$AAP?$AAr?$AAc?$AAm?$AAC?$AAl?$AAo?$AAc?$AAk?$AAS?$AAe?$AAt?$AAP?$AAa?$AAr?$AAe?$AAn?$AAt?$AA?$CI?$AA?$CJ?$AA?$DN?$AA?$CF?$AAd?$AA?$AN?$AA?6?$AA?$AA@| [ DATA ] ; `string'
	EXPORT	|??_C@_1GO@JOGENMOG@?$AA?$CL?$AAP?$AAr?$AAc?$AAm?$AAC?$AAl?$AAo?$AAc?$AAk?$AAS?$AAe?$AAt?$AAP?$AAa?$AAr?$AAe?$AAn?$AAt?$AA?$CI?$AAc?$AAl?$AAo?$AAc?$AAk?$AAI?$AAd?$AA?$DN?$AA?$CF?$AAd?$AA?0?$AA?5@| [ DATA ] ; `string'
	EXPORT	|PrcmClockSetParent|

  00038			 AREA	 |.pdata|, PDATA
|$T49567| DCD	|$LN88@PrcmClockS@2|
	DCD	0x4000f704

  00000			 AREA	 |.rdata|, DATA, READONLY
|??_C@_1DG@BPIDCFJO@?$AA?9?$AAP?$AAr?$AAc?$AAm?$AAC?$AAl?$AAo?$AAc?$AAk?$AAS?$AAe?$AAt?$AAP?$AAa?$AAr?$AAe?$AAn?$AAt?$AA?$CI?$AA?$CJ?$AA?$DN?$AA?$CF?$AAd?$AA?$AN?$AA?6?$AA?$AA@| DCB "-"
	DCB	0x0, "P", 0x0, "r", 0x0, "c", 0x0, "m", 0x0, "C", 0x0, "l"
	DCB	0x0, "o", 0x0, "c", 0x0, "k", 0x0, "S", 0x0, "e", 0x0, "t"
	DCB	0x0, "P", 0x0, "a", 0x0, "r", 0x0, "e", 0x0, "n", 0x0, "t"
	DCB	0x0, "(", 0x0, ")", 0x0, "=", 0x0, "%", 0x0, "d", 0x0, 0xd
	DCB	0x0, 0xa, 0x0, 0x0, 0x0			; `string'

  00000			 AREA	 |.rdata|, DATA, READONLY
|??_C@_1GO@JOGENMOG@?$AA?$CL?$AAP?$AAr?$AAc?$AAm?$AAC?$AAl?$AAo?$AAc?$AAk?$AAS?$AAe?$AAt?$AAP?$AAa?$AAr?$AAe?$AAn?$AAt?$AA?$CI?$AAc?$AAl?$AAo?$AAc?$AAk?$AAI?$AAd?$AA?$DN?$AA?$CF?$AAd?$AA?0?$AA?5@| DCB "+"
	DCB	0x0, "P", 0x0, "r", 0x0, "c", 0x0, "m", 0x0, "C", 0x0, "l"
	DCB	0x0, "o", 0x0, "c", 0x0, "k", 0x0, "S", 0x0, "e", 0x0, "t"
	DCB	0x0, "P", 0x0, "a", 0x0, "r", 0x0, "e", 0x0, "n", 0x0, "t"
	DCB	0x0, "(", 0x0, "c", 0x0, "l", 0x0, "o", 0x0, "c", 0x0, "k"
	DCB	0x0, "I", 0x0, "d", 0x0, "=", 0x0, "%", 0x0, "d", 0x0, ","
	DCB	0x0, " ", 0x0, "n", 0x0, "e", 0x0, "w", 0x0, "P", 0x0, "a"
	DCB	0x0, "r", 0x0, "e", 0x0, "n", 0x0, "t", 0x0, "C", 0x0, "l"
	DCB	0x0, "o", 0x0, "c", 0x0, "k", 0x0, "I", 0x0, "d", 0x0, "="
	DCB	0x0, "%", 0x0, "d", 0x0, ")", 0x0, 0xd, 0x0, 0xa, 0x0, 0x0
	DCB	0x0					; `string'
; Function compile flags: /Odtp

  02f14			 AREA	 |.text|, CODE, ARM

  02f14		 |PrcmClockSetParent| PROC

; 1657 : {    

  02f14		 |$LN88@PrcmClockS@2|
  02f14	e1a0c00d	 mov         r12, sp
  02f18	e92d0003	 stmdb       sp!, {r0, r1}
  02f1c	e92d5000	 stmdb       sp!, {r12, lr}
  02f20	e24dd044	 sub         sp, sp, #0x44
  02f24		 |$M49564|

; 1658 :     BOOL rc = FALSE;

  02f24	e3a03000	 mov         r3, #0
  02f28	e58d3000	 str         r3, [sp]

; 1659 :     UINT oldParentClockId;
; 1660 :     OALMSG(OAL_FUNC, (L"+PrcmClockSetParent"
; 1661 :         L"(clockId=%d, newParentClockId=%d)\r\n", clockId, newParentClockId)
; 1662 :         );

  02f2c	e59f33b0	 ldr         r3, [pc, #0x3B0]
  02f30	e5933440	 ldr         r3, [r3, #0x440]
  02f34	e3130004	 tst         r3, #4
  02f38	0a000006	 beq         |$LN57@PrcmClockS@2|
  02f3c	e59d2050	 ldr         r2, [sp, #0x50]
  02f40	e59d104c	 ldr         r1, [sp, #0x4C]
  02f44	e59f03a0	 ldr         r0, [pc, #0x3A0]
  02f48	eb000000	 bl          NKDbgPrintfW
  02f4c	e3a03001	 mov         r3, #1
  02f50	e58d300c	 str         r3, [sp, #0xC]
  02f54	ea000001	 b           |$LN58@PrcmClockS@2|
  02f58		 |$LN57@PrcmClockS@2|
  02f58	e3a03000	 mov         r3, #0
  02f5c	e58d300c	 str         r3, [sp, #0xC]
  02f60		 |$LN58@PrcmClockS@2|

; 1663 : 
; 1664 :     // quick check for valid source clock id's
; 1665 :     if (clockId > kSOURCE_CLOCK_COUNT) goto cleanUp;

  02f60	e59d304c	 ldr         r3, [sp, #0x4C]
  02f64	e353005a	 cmp         r3, #0x5A
  02f68	9a000000	 bls         |$LN54@PrcmClockS@2|
  02f6c	ea0000c7	 b           |$cleanUp$47828|
  02f70		 |$LN54@PrcmClockS@2|

; 1666 : 
; 1667 :     // get sync handle
; 1668 :     Lock(Mutex_Clock);

  02f70	e3a00001	 mov         r0, #1
  02f74	eb000000	 bl          Lock

; 1669 :     oldParentClockId = s_SrcClockTable[clockId].parentClk;

  02f78	e59d104c	 ldr         r1, [sp, #0x4C]
  02f7c	e3a03014	 mov         r3, #0x14
  02f80	e0020391	 mul         r2, r1, r3
  02f84	e59f335c	 ldr         r3, [pc, #0x35C]
  02f88	e0833002	 add         r3, r3, r2
  02f8c	e5933000	 ldr         r3, [r3]
  02f90	e58d3004	 str         r3, [sp, #4]

; 1670 :     switch (clockId)

  02f94	e59d304c	 ldr         r3, [sp, #0x4C]
  02f98	e58d3010	 str         r3, [sp, #0x10]
  02f9c	e59d3010	 ldr         r3, [sp, #0x10]
  02fa0	e2433044	 sub         r3, r3, #0x44
  02fa4	e58d3010	 str         r3, [sp, #0x10]
  02fa8	e59d3010	 ldr         r3, [sp, #0x10]
  02fac	e3530015	 cmp         r3, #0x15
  02fb0	8a00009b	 bhi         |$LN52@PrcmClockS@2|
  02fb4	e59d2010	 ldr         r2, [sp, #0x10]
  02fb8	e1a03102	 mov         r3, r2, lsl #2
  02fbc	e083300f	 add         r3, r3, pc
  02fc0	e5933004	 ldr         r3, [r3, #4]
  02fc4	e08ff003	 add         pc, pc, r3
  02fc8		 |$LN63@PrcmClockS@2|
  02fc8		 |$LN62@PrcmClockS@2|
  02fc8		 |$LN64@PrcmClockS@2|
  02fc8	000001cc	 DCD         0x1cc
  02fcc		 |$LN65@PrcmClockS@2|
  02fcc	0000019c	 DCD         0x19c
  02fd0		 |$LN66@PrcmClockS@2|
  02fd0	0000016c	 DCD         0x16c
  02fd4		 |$LN67@PrcmClockS@2|
  02fd4	0000013c	 DCD         0x13c
  02fd8		 |$LN68@PrcmClockS@2|
  02fd8	0000010c	 DCD         0x10c
  02fdc		 |$LN69@PrcmClockS@2|
  02fdc	000000b4	 DCD         0xb4
  02fe0		 |$LN70@PrcmClockS@2|
  02fe0	00000054	 DCD         0x54
  02fe4		 |$LN71@PrcmClockS@2|
  02fe4	00000054	 DCD         0x54
  02fe8		 |$LN72@PrcmClockS@2|
  02fe8	00000054	 DCD         0x54
  02fec		 |$LN73@PrcmClockS@2|
  02fec	00000054	 DCD         0x54
  02ff0		 |$LN74@PrcmClockS@2|
  02ff0	00000054	 DCD         0x54
  02ff4		 |$LN75@PrcmClockS@2|
  02ff4	00000054	 DCD         0x54
  02ff8		 |$LN76@PrcmClockS@2|
  02ff8	00000054	 DCD         0x54
  02ffc		 |$LN77@PrcmClockS@2|
  02ffc	00000054	 DCD         0x54
  03000		 |$LN78@PrcmClockS@2|
  03000	00000054	 DCD         0x54
  03004		 |$LN79@PrcmClockS@2|
  03004	00000084	 DCD         0x84
  03008		 |$LN80@PrcmClockS@2|
  03008	00000084	 DCD         0x84
  0300c		 |$LN81@PrcmClockS@2|
  0300c	000001fc	 DCD         0x1fc
  03010		 |$LN82@PrcmClockS@2|
  03010	0000022c	 DCD         0x22c
  03014		 |$LN83@PrcmClockS@2|
  03014	0000022c	 DCD         0x22c
  03018		 |$LN84@PrcmClockS@2|
  03018	0000022c	 DCD         0x22c
  0301c		 |$LN85@PrcmClockS@2|
  0301c	000001fc	 DCD         0x1fc
  03020		 |$LN51@PrcmClockS@2|

; 1671 :         {
; 1672 :         case kGPT1_FCLK:
; 1673 :         case kGPT2_ALWON_FCLK:
; 1674 :         case kGPT3_ALWON_FCLK:
; 1675 :         case kGPT4_ALWON_FCLK:
; 1676 :         case kGPT5_ALWON_FCLK:
; 1677 :         case kGPT6_ALWON_FCLK:
; 1678 :         case kGPT7_ALWON_FCLK:
; 1679 :         case kGPT8_ALWON_FCLK:
; 1680 :         case kGPT9_ALWON_FCLK:
; 1681 :             // verify parent clock is valid
; 1682 :             switch(newParentClockId)

  03020	e59d3050	 ldr         r3, [sp, #0x50]
  03024	e58d3014	 str         r3, [sp, #0x14]
  03028	e59d3014	 ldr         r3, [sp, #0x14]
  0302c	e353000b	 cmp         r3, #0xB
  03030	3a000004	 bcc         |$LN47@PrcmClockS@2|
  03034	e59d3014	 ldr         r3, [sp, #0x14]
  03038	e353000c	 cmp         r3, #0xC
  0303c	9a000000	 bls         |$LN48@PrcmClockS@2|
  03040	ea000000	 b           |$LN47@PrcmClockS@2|
  03044		 |$LN48@PrcmClockS@2|

; 1683 :                 {
; 1684 :                 case kSYS_CLK:
; 1685 :                 case k32K_FCLK:                    
; 1686 :                     break;

  03044	ea000000	 b           |$LN49@PrcmClockS@2|
  03048		 |$LN47@PrcmClockS@2|

; 1687 : 
; 1688 :                 default: 
; 1689 :                     goto cleanUp;

  03048	ea000090	 b           |$cleanUp$47828|
  0304c		 |$LN49@PrcmClockS@2|

; 1690 :                 }
; 1691 :             break;

  0304c	ea000074	 b           |$LN52@PrcmClockS@2|
  03050		 |$LN46@PrcmClockS@2|

; 1692 :             
; 1693 :         case kGPT10_FCLK:
; 1694 :         case kGPT11_FCLK:
; 1695 :             // verify parent clock is valid
; 1696 :             switch(newParentClockId)

  03050	e59d3050	 ldr         r3, [sp, #0x50]
  03054	e58d3018	 str         r3, [sp, #0x18]
  03058	e59d3018	 ldr         r3, [sp, #0x18]
  0305c	e3530019	 cmp         r3, #0x19
  03060	0a000003	 beq         |$LN43@PrcmClockS@2|
  03064	e59d3018	 ldr         r3, [sp, #0x18]
  03068	e353001c	 cmp         r3, #0x1C
  0306c	0a000000	 beq         |$LN43@PrcmClockS@2|
  03070	ea000000	 b           |$LN42@PrcmClockS@2|
  03074		 |$LN43@PrcmClockS@2|

; 1697 :                 {
; 1698 :                 case kCM_SYS_CLK:
; 1699 :                 case kCM_32K_CLK:                    
; 1700 :                     break;

  03074	ea000000	 b           |$LN44@PrcmClockS@2|
  03078		 |$LN42@PrcmClockS@2|

; 1701 : 
; 1702 :                 default: 
; 1703 :                     goto cleanUp;

  03078	ea000084	 b           |$cleanUp$47828|
  0307c		 |$LN44@PrcmClockS@2|

; 1704 :                 }
; 1705 :             break;

  0307c	ea000068	 b           |$LN52@PrcmClockS@2|
  03080		 |$LN41@PrcmClockS@2|

; 1706 : 
; 1707 :         case kSGX_FCLK:
; 1708 :             // verify parent clock is valid
; 1709 :             switch(newParentClockId)

  03080	e59d3050	 ldr         r3, [sp, #0x50]
  03084	e58d301c	 str         r3, [sp, #0x1C]
  03088	e59d301c	 ldr         r3, [sp, #0x1C]
  0308c	e3530005	 cmp         r3, #5
  03090	8a000009	 bhi         |$LN59@PrcmClockS@2|
  03094	e59d301c	 ldr         r3, [sp, #0x1C]
  03098	e3530005	 cmp         r3, #5
  0309c	0a00000a	 beq         |$LN38@PrcmClockS@2|
  030a0	e59d301c	 ldr         r3, [sp, #0x1C]
  030a4	e3530002	 cmp         r3, #2
  030a8	3a000008	 bcc         |$LN37@PrcmClockS@2|
  030ac	e59d301c	 ldr         r3, [sp, #0x1C]
  030b0	e3530003	 cmp         r3, #3
  030b4	9a000004	 bls         |$LN38@PrcmClockS@2|
  030b8	ea000004	 b           |$LN37@PrcmClockS@2|
  030bc		 |$LN59@PrcmClockS@2|
  030bc	e59d301c	 ldr         r3, [sp, #0x1C]
  030c0	e3530021	 cmp         r3, #0x21
  030c4	0a000000	 beq         |$LN38@PrcmClockS@2|
  030c8	ea000000	 b           |$LN37@PrcmClockS@2|
  030cc		 |$LN38@PrcmClockS@2|

; 1710 :                 {
; 1711 :                 case kCORE_CLK:
; 1712 :                 case kCM_96M_FCLK:                    
; 1713 :                 case kCOREX2_FCLK:
; 1714 :                 case kPRM_96M_192M_ALWON_CLK:
; 1715 :                     break;

  030cc	ea000000	 b           |$LN39@PrcmClockS@2|
  030d0		 |$LN37@PrcmClockS@2|

; 1716 : 
; 1717 :                 default: 
; 1718 :                     goto cleanUp;

  030d0	ea00006e	 b           |$cleanUp$47828|
  030d4		 |$LN39@PrcmClockS@2|

; 1719 :                 }
; 1720 :             break;

  030d4	ea000052	 b           |$LN52@PrcmClockS@2|
  030d8		 |$LN36@PrcmClockS@2|

; 1721 : 
; 1722 :         case k54M_FCLK:
; 1723 :             // verify parent clock is valid
; 1724 :             switch(newParentClockId)

  030d8	e59d3050	 ldr         r3, [sp, #0x50]
  030dc	e58d3020	 str         r3, [sp, #0x20]
  030e0	e59d3020	 ldr         r3, [sp, #0x20]
  030e4	e3530006	 cmp         r3, #6
  030e8	0a000003	 beq         |$LN33@PrcmClockS@2|
  030ec	e59d3020	 ldr         r3, [sp, #0x20]
  030f0	e353000d	 cmp         r3, #0xD
  030f4	0a000000	 beq         |$LN33@PrcmClockS@2|
  030f8	ea000000	 b           |$LN32@PrcmClockS@2|
  030fc		 |$LN33@PrcmClockS@2|

; 1725 :                 {
; 1726 :                 case kDPLL4_M3X2_CLK:
; 1727 :                 case kSYS_ALTCLK:                    
; 1728 :                     break;

  030fc	ea000000	 b           |$LN34@PrcmClockS@2|
  03100		 |$LN32@PrcmClockS@2|

; 1729 : 
; 1730 :                 default: 
; 1731 :                     goto cleanUp;

  03100	ea000062	 b           |$cleanUp$47828|
  03104		 |$LN34@PrcmClockS@2|

; 1732 :                 }
; 1733 :             break;

  03104	ea000046	 b           |$LN52@PrcmClockS@2|
  03108		 |$LN31@PrcmClockS@2|

; 1734 : 
; 1735 :         case k48M_FCLK:
; 1736 :             // verify parent clock is valid
; 1737 :             switch(newParentClockId)

  03108	e59d3050	 ldr         r3, [sp, #0x50]
  0310c	e58d3024	 str         r3, [sp, #0x24]
  03110	e59d3024	 ldr         r3, [sp, #0x24]
  03114	e353000d	 cmp         r3, #0xD
  03118	0a000003	 beq         |$LN28@PrcmClockS@2|
  0311c	e59d3024	 ldr         r3, [sp, #0x24]
  03120	e3530021	 cmp         r3, #0x21
  03124	0a000000	 beq         |$LN28@PrcmClockS@2|
  03128	ea000000	 b           |$LN27@PrcmClockS@2|
  0312c		 |$LN28@PrcmClockS@2|

; 1738 :                 {
; 1739 :                 case kCM_96M_FCLK:
; 1740 :                 case kSYS_ALTCLK:                    
; 1741 :                     break;

  0312c	ea000000	 b           |$LN29@PrcmClockS@2|
  03130		 |$LN27@PrcmClockS@2|

; 1742 : 
; 1743 :                 default: 
; 1744 :                     goto cleanUp;

  03130	ea000056	 b           |$cleanUp$47828|
  03134		 |$LN29@PrcmClockS@2|

; 1745 :                 }
; 1746 :             break;

  03134	ea00003a	 b           |$LN52@PrcmClockS@2|
  03138		 |$LN26@PrcmClockS@2|

; 1747 : 
; 1748 :         case k96M_FCLK:
; 1749 :             // verify parent clock is valid
; 1750 :             switch(newParentClockId)

  03138	e59d3050	 ldr         r3, [sp, #0x50]
  0313c	e58d3028	 str         r3, [sp, #0x28]
  03140	e59d3028	 ldr         r3, [sp, #0x28]
  03144	e3530019	 cmp         r3, #0x19
  03148	0a000003	 beq         |$LN23@PrcmClockS@2|
  0314c	e59d3028	 ldr         r3, [sp, #0x28]
  03150	e3530021	 cmp         r3, #0x21
  03154	0a000000	 beq         |$LN23@PrcmClockS@2|
  03158	ea000000	 b           |$LN22@PrcmClockS@2|
  0315c		 |$LN23@PrcmClockS@2|

; 1751 :                 {
; 1752 :                 case kCM_96M_FCLK:
; 1753 :                 case kCM_SYS_CLK:                    
; 1754 :                     break;

  0315c	ea000000	 b           |$LN24@PrcmClockS@2|
  03160		 |$LN22@PrcmClockS@2|

; 1755 : 
; 1756 :                 default:
; 1757 :                     goto cleanUp;

  03160	ea00004a	 b           |$cleanUp$47828|
  03164		 |$LN24@PrcmClockS@2|

; 1758 :                 }
; 1759 :             break;

  03164	ea00002e	 b           |$LN52@PrcmClockS@2|
  03168		 |$LN21@PrcmClockS@2|

; 1760 : 
; 1761 :         case kUSIM_FCLK:  
; 1762 :             // verify parent clock is valid
; 1763 :             switch(newParentClockId)

  03168	e59d3050	 ldr         r3, [sp, #0x50]
  0316c	e58d302c	 str         r3, [sp, #0x2C]
  03170	e59d302c	 ldr         r3, [sp, #0x2C]
  03174	e353000c	 cmp         r3, #0xC
  03178	0a000003	 beq         |$LN18@PrcmClockS@2|
  0317c	e59d302c	 ldr         r3, [sp, #0x2C]
  03180	e3530044	 cmp         r3, #0x44
  03184	0a000000	 beq         |$LN18@PrcmClockS@2|
  03188	ea000000	 b           |$LN17@PrcmClockS@2|
  0318c		 |$LN18@PrcmClockS@2|

; 1764 :                 {
; 1765 :                 case kSYS_CLK:
; 1766 :                 case kCM_USIM_CLK:                    
; 1767 :                     break;

  0318c	ea000000	 b           |$LN19@PrcmClockS@2|
  03190		 |$LN17@PrcmClockS@2|

; 1768 : 
; 1769 :                 default: 
; 1770 :                     goto cleanUp;

  03190	ea00003e	 b           |$cleanUp$47828|
  03194		 |$LN19@PrcmClockS@2|

; 1771 :                 }
; 1772 :             break;

  03194	ea000022	 b           |$LN52@PrcmClockS@2|
  03198		 |$LN16@PrcmClockS@2|

; 1773 : 
; 1774 :         case kCM_USIM_CLK:  
; 1775 :             // verify parent clock is valid
; 1776 :             switch(newParentClockId)

  03198	e59d3050	 ldr         r3, [sp, #0x50]
  0319c	e58d3030	 str         r3, [sp, #0x30]
  031a0	e59d3030	 ldr         r3, [sp, #0x30]
  031a4	e353000a	 cmp         r3, #0xA
  031a8	0a000003	 beq         |$LN13@PrcmClockS@2|
  031ac	e59d3030	 ldr         r3, [sp, #0x30]
  031b0	e3530021	 cmp         r3, #0x21
  031b4	0a000000	 beq         |$LN13@PrcmClockS@2|
  031b8	ea000000	 b           |$LN12@PrcmClockS@2|
  031bc		 |$LN13@PrcmClockS@2|

; 1777 :                 {
; 1778 :                 case kCM_96M_FCLK:
; 1779 :                 case k120M_FCLK:                    
; 1780 :                     break;

  031bc	ea000000	 b           |$LN14@PrcmClockS@2|
  031c0		 |$LN12@PrcmClockS@2|

; 1781 : 
; 1782 :                 default: 
; 1783 :                     goto cleanUp;

  031c0	ea000032	 b           |$cleanUp$47828|
  031c4		 |$LN14@PrcmClockS@2|

; 1784 :                 }
; 1785 :             break;

  031c4	ea000016	 b           |$LN52@PrcmClockS@2|
  031c8		 |$LN11@PrcmClockS@2|

; 1786 : 
; 1787 :         case kMCBSP1_CLKS:
; 1788 :         case kMCBSP5_CLKS:
; 1789 :             // verify parent clock is valid
; 1790 :             switch(newParentClockId)

  031c8	e59d3050	 ldr         r3, [sp, #0x50]
  031cc	e58d3034	 str         r3, [sp, #0x34]
  031d0	e59d3034	 ldr         r3, [sp, #0x34]
  031d4	e353000f	 cmp         r3, #0xF
  031d8	0a000003	 beq         |$LN8@PrcmClockS@2|
  031dc	e59d3034	 ldr         r3, [sp, #0x34]
  031e0	e353003a	 cmp         r3, #0x3A
  031e4	0a000000	 beq         |$LN8@PrcmClockS@2|
  031e8	ea000000	 b           |$LN7@PrcmClockS@2|
  031ec		 |$LN8@PrcmClockS@2|

; 1791 :                 {
; 1792 :                 case kCORE_96M_FCLK:
; 1793 :                 case kMCBSP_CLKS:
; 1794 :                     break;

  031ec	ea000000	 b           |$LN9@PrcmClockS@2|
  031f0		 |$LN7@PrcmClockS@2|

; 1795 : 
; 1796 :                 default:
; 1797 :                     goto cleanUp;

  031f0	ea000026	 b           |$cleanUp$47828|
  031f4		 |$LN9@PrcmClockS@2|

; 1798 :                 }
; 1799 :             break;

  031f4	ea00000a	 b           |$LN52@PrcmClockS@2|
  031f8		 |$LN6@PrcmClockS@2|

; 1800 : 
; 1801 :         case kMCBSP2_CLKS:
; 1802 :         case kMCBSP3_CLKS:
; 1803 :         case kMCBSP4_CLKS:
; 1804 :             // verify parent clock is valid
; 1805 :             switch(newParentClockId)

  031f8	e59d3050	 ldr         r3, [sp, #0x50]
  031fc	e58d3038	 str         r3, [sp, #0x38]
  03200	e59d3038	 ldr         r3, [sp, #0x38]
  03204	e353000f	 cmp         r3, #0xF
  03208	0a000003	 beq         |$LN3@PrcmClockS@2|
  0320c	e59d3038	 ldr         r3, [sp, #0x38]
  03210	e3530022	 cmp         r3, #0x22
  03214	0a000000	 beq         |$LN3@PrcmClockS@2|
  03218	ea000000	 b           |$LN2@PrcmClockS@2|
  0321c		 |$LN3@PrcmClockS@2|

; 1806 :                 {
; 1807 :                 case k96M_ALWON_FCLK:
; 1808 :                 case kMCBSP_CLKS:
; 1809 :                     break;

  0321c	ea000000	 b           |$LN4@PrcmClockS@2|
  03220		 |$LN2@PrcmClockS@2|

; 1810 : 
; 1811 :                 default:
; 1812 :                     goto cleanUp;

  03220	ea00001a	 b           |$cleanUp$47828|
  03224		 |$LN4@PrcmClockS@2|
  03224		 |$LN52@PrcmClockS@2|

; 1813 :                 }
; 1814 :             break;
; 1815 : 
; 1816 :         }
; 1817 : 
; 1818 :     // check if clock is enabled.  If so then release old src clocks
; 1819 :     // and enable new ones
; 1820 :     if (s_SrcClockTable[clockId].refCount > 0)

  03224	e59d104c	 ldr         r1, [sp, #0x4C]
  03228	e3a03014	 mov         r3, #0x14
  0322c	e0020391	 mul         r2, r1, r3
  03230	e59f30b0	 ldr         r3, [pc, #0xB0]
  03234	e0833002	 add         r3, r3, r2
  03238	e2833004	 add         r3, r3, #4
  0323c	e5933000	 ldr         r3, [r3]
  03240	e3530000	 cmp         r3, #0
  03244	da000005	 ble         |$LN1@PrcmClockS@2|

; 1821 :         {
; 1822 :         ClockUpdateParentClock(newParentClockId, TRUE);

  03248	e3a01001	 mov         r1, #1
  0324c	e59d0050	 ldr         r0, [sp, #0x50]
  03250	eb000000	 bl          ClockUpdateParentClock

; 1823 :         ClockUpdateParentClock(oldParentClockId, FALSE);

  03254	e3a01000	 mov         r1, #0
  03258	e59d0004	 ldr         r0, [sp, #4]
  0325c	eb000000	 bl          ClockUpdateParentClock
  03260		 |$LN1@PrcmClockS@2|

; 1824 :         }
; 1825 : 
; 1826 :     // update state tree
; 1827 :     s_SrcClockTable[clockId].parentClk = newParentClockId;

  03260	e59d104c	 ldr         r1, [sp, #0x4C]
  03264	e3a03014	 mov         r3, #0x14
  03268	e0020391	 mul         r2, r1, r3
  0326c	e59f3074	 ldr         r3, [pc, #0x74]
  03270	e0832002	 add         r2, r3, r2
  03274	e59d3050	 ldr         r3, [sp, #0x50]
  03278	e5823000	 str         r3, [r2]

; 1828 :     rc = _ClockHwUpdateParentClock(clockId);

  0327c	e59d004c	 ldr         r0, [sp, #0x4C]
  03280	eb000000	 bl          _ClockHwUpdateParentClock
  03284	e58d003c	 str         r0, [sp, #0x3C]
  03288	e59d303c	 ldr         r3, [sp, #0x3C]
  0328c	e58d3000	 str         r3, [sp]
  03290		 |$cleanUp$47828|

; 1829 :     
; 1830 :             
; 1831 : cleanUp:    
; 1832 :     // release sync handle    
; 1833 :     Unlock(Mutex_Clock);

  03290	e3a00001	 mov         r0, #1
  03294	eb000000	 bl          Unlock

; 1834 :     OALMSG(OAL_FUNC, (L"-PrcmClockSetParent()=%d\r\n", TRUE));

  03298	e59f3044	 ldr         r3, [pc, #0x44]
  0329c	e5933440	 ldr         r3, [r3, #0x440]
  032a0	e3130004	 tst         r3, #4
  032a4	0a000005	 beq         |$LN60@PrcmClockS@2|
  032a8	e3a01001	 mov         r1, #1
  032ac	e59f002c	 ldr         r0, [pc, #0x2C]
  032b0	eb000000	 bl          NKDbgPrintfW
  032b4	e3a03001	 mov         r3, #1
  032b8	e58d3040	 str         r3, [sp, #0x40]
  032bc	ea000001	 b           |$LN61@PrcmClockS@2|
  032c0		 |$LN60@PrcmClockS@2|
  032c0	e3a03000	 mov         r3, #0
  032c4	e58d3040	 str         r3, [sp, #0x40]
  032c8		 |$LN61@PrcmClockS@2|

; 1835 :     return TRUE;

  032c8	e3a03001	 mov         r3, #1
  032cc	e58d3008	 str         r3, [sp, #8]

; 1836 : }

  032d0	e59d0008	 ldr         r0, [sp, #8]
  032d4	e28dd044	 add         sp, sp, #0x44
  032d8	e89d6000	 ldmia       sp, {sp, lr}
  032dc	e12fff1e	 bx          lr
  032e0		 |$LN89@PrcmClockS@2|
  032e0		 |$LN90@PrcmClockS@2|
  032e0	00000000	 DCD         |??_C@_1DG@BPIDCFJO@?$AA?9?$AAP?$AAr?$AAc?$AAm?$AAC?$AAl?$AAo?$AAc?$AAk?$AAS?$AAe?$AAt?$AAP?$AAa?$AAr?$AAe?$AAn?$AAt?$AA?$CI?$AA?$CJ?$AA?$DN?$AA?$CF?$AAd?$AA?$AN?$AA?6?$AA?$AA@|
  032e4		 |$LN91@PrcmClockS@2|
  032e4	00000000	 DCD         |dpCurSettings|
  032e8		 |$LN92@PrcmClockS@2|
  032e8	00000000	 DCD         |s_SrcClockTable|
  032ec		 |$LN93@PrcmClockS@2|
  032ec	00000000	 DCD         |??_C@_1GO@JOGENMOG@?$AA?$CL?$AAP?$AAr?$AAc?$AAm?$AAC?$AAl?$AAo?$AAc?$AAk?$AAS?$AAe?$AAt?$AAP?$AAa?$AAr?$AAe?$AAn?$AAt?$AA?$CI?$AAc?$AAl?$AAo?$AAc?$AAk?$AAI?$AAd?$AA?$DN?$AA?$CF?$AAd?$AA?0?$AA?5@|
  032f0		 |$M49565|

			 ENDP  ; |PrcmClockSetParent|

	EXPORT	|??_C@_1FA@MJCKPJCC@?$AA?$CL?$AAP?$AAr?$AAc?$AAm?$AAC?$AAl?$AAo?$AAc?$AAk?$AAG?$AAe?$AAt?$AAP?$AAa?$AAr?$AAe?$AAn?$AAt?$AAC?$AAl?$AAo?$AAc?$AAk?$AAR?$AAe?$AAf?$AAc?$AAo?$AAu?$AAn?$AAt@| [ DATA ] ; `string'
	EXPORT	|??_C@_1HE@MOBKNDOK@?$AA?$CL?$AAP?$AAr?$AAc?$AAm?$AAC?$AAl?$AAo?$AAc?$AAk?$AAG?$AAe?$AAt?$AAP?$AAa?$AAr?$AAe?$AAn?$AAt?$AAC?$AAl?$AAo?$AAc?$AAk?$AAR?$AAe?$AAf?$AAc?$AAo?$AAu?$AAn?$AAt@| [ DATA ] ; `string'
	EXPORT	|PrcmClockGetParentClockRefcount|

  00040			 AREA	 |.pdata|, PDATA
|$T49588| DCD	|$LN25@PrcmClockG|
	DCD	0x40007704

  00000			 AREA	 |.rdata|, DATA, READONLY
|??_C@_1FA@MJCKPJCC@?$AA?$CL?$AAP?$AAr?$AAc?$AAm?$AAC?$AAl?$AAo?$AAc?$AAk?$AAG?$AAe?$AAt?$AAP?$AAa?$AAr?$AAe?$AAn?$AAt?$AAC?$AAl?$AAo?$AAc?$AAk?$AAR?$AAe?$AAf?$AAc?$AAo?$AAu?$AAn?$AAt@| DCB "+"
	DCB	0x0, "P", 0x0, "r", 0x0, "c", 0x0, "m", 0x0, "C", 0x0, "l"
	DCB	0x0, "o", 0x0, "c", 0x0, "k", 0x0, "G", 0x0, "e", 0x0, "t"
	DCB	0x0, "P", 0x0, "a", 0x0, "r", 0x0, "e", 0x0, "n", 0x0, "t"
	DCB	0x0, "C", 0x0, "l", 0x0, "o", 0x0, "c", 0x0, "k", 0x0, "R"
	DCB	0x0, "e", 0x0, "f", 0x0, "c", 0x0, "o", 0x0, "u", 0x0, "n"
	DCB	0x0, "t", 0x0, "(", 0x0, ")", 0x0, "=", 0x0, "%", 0x0, "d"
	DCB	0x0, 0xd, 0x0, 0xa, 0x0, 0x0, 0x0	; `string'

  00000			 AREA	 |.rdata|, DATA, READONLY
|??_C@_1HE@MOBKNDOK@?$AA?$CL?$AAP?$AAr?$AAc?$AAm?$AAC?$AAl?$AAo?$AAc?$AAk?$AAG?$AAe?$AAt?$AAP?$AAa?$AAr?$AAe?$AAn?$AAt?$AAC?$AAl?$AAo?$AAc?$AAk?$AAR?$AAe?$AAf?$AAc?$AAo?$AAu?$AAn?$AAt@| DCB "+"
	DCB	0x0, "P", 0x0, "r", 0x0, "c", 0x0, "m", 0x0, "C", 0x0, "l"
	DCB	0x0, "o", 0x0, "c", 0x0, "k", 0x0, "G", 0x0, "e", 0x0, "t"
	DCB	0x0, "P", 0x0, "a", 0x0, "r", 0x0, "e", 0x0, "n", 0x0, "t"
	DCB	0x0, "C", 0x0, "l", 0x0, "o", 0x0, "c", 0x0, "k", 0x0, "R"
	DCB	0x0, "e", 0x0, "f", 0x0, "c", 0x0, "o", 0x0, "u", 0x0, "n"
	DCB	0x0, "t", 0x0, "(", 0x0, "c", 0x0, "l", 0x0, "o", 0x0, "c"
	DCB	0x0, "k", 0x0, "I", 0x0, "d", 0x0, "=", 0x0, "%", 0x0, "d"
	DCB	0x0, ",", 0x0, " ", 0x0, "n", 0x0, "L", 0x0, "e", 0x0, "v"
	DCB	0x0, "e", 0x0, "l", 0x0, "=", 0x0, "%", 0x0, "d", 0x0, ")"
	DCB	0x0, 0xd, 0x0, 0xa, 0x0, 0x0, 0x0	; `string'
; Function compile flags: /Odtp

  032f0			 AREA	 |.text|, CODE, ARM

  032f0		 |PrcmClockGetParentClockRefcount| PROC

; 1845 : {

  032f0		 |$LN25@PrcmClockG|
  032f0	e1a0c00d	 mov         r12, sp
  032f4	e92d0007	 stmdb       sp!, {r0 - r2}
  032f8	e92d5000	 stmdb       sp!, {r12, lr}
  032fc	e24dd014	 sub         sp, sp, #0x14
  03300		 |$M49585|

; 1846 :     BOOL rc = FALSE;

  03300	e3a03000	 mov         r3, #0
  03304	e58d3000	 str         r3, [sp]

; 1847 :     OALMSG(OAL_FUNC, (L"+PrcmClockGetParentClockRefcount"
; 1848 :         L"(clockId=%d, nLevel=%d)\r\n", clockId, nLevel)
; 1849 :         );

  03308	e59f31a4	 ldr         r3, [pc, #0x1A4]
  0330c	e5933440	 ldr         r3, [r3, #0x440]
  03310	e3130004	 tst         r3, #4
  03314	0a000006	 beq         |$LN13@PrcmClockG|
  03318	e59d2020	 ldr         r2, [sp, #0x20]
  0331c	e59d101c	 ldr         r1, [sp, #0x1C]
  03320	e59f01a0	 ldr         r0, [pc, #0x1A0]
  03324	eb000000	 bl          NKDbgPrintfW
  03328	e3a03001	 mov         r3, #1
  0332c	e58d3008	 str         r3, [sp, #8]
  03330	ea000001	 b           |$LN14@PrcmClockG|
  03334		 |$LN13@PrcmClockG|
  03334	e3a03000	 mov         r3, #0
  03338	e58d3008	 str         r3, [sp, #8]
  0333c		 |$LN14@PrcmClockG|

; 1850 : 
; 1851 :     switch (nLevel)

  0333c	e59d3020	 ldr         r3, [sp, #0x20]
  03340	e58d300c	 str         r3, [sp, #0xC]
  03344	e59d300c	 ldr         r3, [sp, #0xC]
  03348	e2433001	 sub         r3, r3, #1
  0334c	e58d300c	 str         r3, [sp, #0xC]
  03350	e59d300c	 ldr         r3, [sp, #0xC]
  03354	e3530003	 cmp         r3, #3
  03358	8a000042	 bhi         |$LN9@PrcmClockG|
  0335c	e59d200c	 ldr         r2, [sp, #0xC]
  03360	e1a03102	 mov         r3, r2, lsl #2
  03364	e083300f	 add         r3, r3, pc
  03368	e5933004	 ldr         r3, [r3, #4]
  0336c	e08ff003	 add         pc, pc, r3
  03370		 |$LN18@PrcmClockG|
  03370		 |$LN17@PrcmClockG|
  03370		 |$LN19@PrcmClockG|
  03370	0000000c	 DCD         0xc
  03374		 |$LN20@PrcmClockG|
  03374	00000048	 DCD         0x48
  03378		 |$LN21@PrcmClockG|
  03378	00000084	 DCD         0x84
  0337c		 |$LN22@PrcmClockG|
  0337c	000000c0	 DCD         0xc0
  03380		 |$LN8@PrcmClockG|

; 1852 :         {
; 1853 :         case 1:
; 1854 :             if (clockId < kSOURCE_CLOCK_COUNT)

  03380	e59d301c	 ldr         r3, [sp, #0x1C]
  03384	e353005a	 cmp         r3, #0x5A
  03388	2a00000a	 bcs         |$LN7@PrcmClockG|

; 1855 :                 {
; 1856 :                 *pRefCount = s_SrcClockTable[clockId].refCount;

  0338c	e59d101c	 ldr         r1, [sp, #0x1C]
  03390	e3a03014	 mov         r3, #0x14
  03394	e0020391	 mul         r2, r1, r3
  03398	e59f3124	 ldr         r3, [pc, #0x124]
  0339c	e0833002	 add         r3, r3, r2
  033a0	e2833004	 add         r3, r3, #4
  033a4	e5932000	 ldr         r2, [r3]
  033a8	e59d3024	 ldr         r3, [sp, #0x24]
  033ac	e5832000	 str         r2, [r3]

; 1857 :                 rc = TRUE;

  033b0	e3a03001	 mov         r3, #1
  033b4	e58d3000	 str         r3, [sp]
  033b8		 |$LN7@PrcmClockG|

; 1858 :                 }
; 1859 :             break;

  033b8	ea00002a	 b           |$LN9@PrcmClockG|
  033bc		 |$LN6@PrcmClockG|

; 1860 : 
; 1861 :         case 2:
; 1862 :             if (clockId < kDPLL_CLKOUT_COUNT)

  033bc	e59d301c	 ldr         r3, [sp, #0x1C]
  033c0	e3530010	 cmp         r3, #0x10
  033c4	2a00000a	 bcs         |$LN5@PrcmClockG|

; 1863 :                 {
; 1864 :                 *pRefCount = s_DpllClkOutTable[clockId].refCount;

  033c8	e59d101c	 ldr         r1, [sp, #0x1C]
  033cc	e3a03008	 mov         r3, #8
  033d0	e0020391	 mul         r2, r1, r3
  033d4	e59f30e4	 ldr         r3, [pc, #0xE4]
  033d8	e0833002	 add         r3, r3, r2
  033dc	e2833004	 add         r3, r3, #4
  033e0	e5932000	 ldr         r2, [r3]
  033e4	e59d3024	 ldr         r3, [sp, #0x24]
  033e8	e5832000	 str         r2, [r3]

; 1865 :                 rc = TRUE;

  033ec	e3a03001	 mov         r3, #1
  033f0	e58d3000	 str         r3, [sp]
  033f4		 |$LN5@PrcmClockG|

; 1866 :                 }
; 1867 :             break;

  033f4	ea00001b	 b           |$LN9@PrcmClockG|
  033f8		 |$LN4@PrcmClockG|

; 1868 : 
; 1869 :         case 3:
; 1870 :             if (clockId < kDPLL_COUNT)

  033f8	e59d301c	 ldr         r3, [sp, #0x1C]
  033fc	e3530006	 cmp         r3, #6
  03400	2a00000a	 bcs         |$LN3@PrcmClockG|

; 1871 :                 {
; 1872 :                 *pRefCount = s_DpllTable[clockId].refCount;

  03404	e59d101c	 ldr         r1, [sp, #0x1C]
  03408	e3a0300c	 mov         r3, #0xC
  0340c	e0020391	 mul         r2, r1, r3
  03410	e59f30a4	 ldr         r3, [pc, #0xA4]
  03414	e0833002	 add         r3, r3, r2
  03418	e2833004	 add         r3, r3, #4
  0341c	e5932000	 ldr         r2, [r3]
  03420	e59d3024	 ldr         r3, [sp, #0x24]
  03424	e5832000	 str         r2, [r3]

; 1873 :                 rc = TRUE;

  03428	e3a03001	 mov         r3, #1
  0342c	e58d3000	 str         r3, [sp]
  03430		 |$LN3@PrcmClockG|

; 1874 :                 }
; 1875 :             break;

  03430	ea00000c	 b           |$LN9@PrcmClockG|
  03434		 |$LN2@PrcmClockG|

; 1876 : 
; 1877 :         case 4:
; 1878 :             if (clockId < kVDD_COUNT)

  03434	e59d301c	 ldr         r3, [sp, #0x1C]
  03438	e353000a	 cmp         r3, #0xA
  0343c	2a000009	 bcs         |$LN1@PrcmClockG|

; 1879 :                 {
; 1880 :                 *pRefCount = s_VddTable[clockId];

  03440	e59d101c	 ldr         r1, [sp, #0x1C]
  03444	e3a03004	 mov         r3, #4
  03448	e0020391	 mul         r2, r1, r3
  0344c	e59f3064	 ldr         r3, [pc, #0x64]
  03450	e0833002	 add         r3, r3, r2
  03454	e5932000	 ldr         r2, [r3]
  03458	e59d3024	 ldr         r3, [sp, #0x24]
  0345c	e5832000	 str         r2, [r3]

; 1881 :                 rc = TRUE;

  03460	e3a03001	 mov         r3, #1
  03464	e58d3000	 str         r3, [sp]
  03468		 |$LN1@PrcmClockG|
  03468		 |$LN9@PrcmClockG|

; 1882 :                 }
; 1883 :             break;
; 1884 :         }
; 1885 :     
; 1886 : 
; 1887 :     OALMSG(OAL_FUNC, (L"+PrcmClockGetParentClockRefcount()=%d\r\n", rc));

  03468	e59f3044	 ldr         r3, [pc, #0x44]
  0346c	e5933440	 ldr         r3, [r3, #0x440]
  03470	e3130004	 tst         r3, #4
  03474	0a000005	 beq         |$LN15@PrcmClockG|
  03478	e59d1000	 ldr         r1, [sp]
  0347c	e59f002c	 ldr         r0, [pc, #0x2C]
  03480	eb000000	 bl          NKDbgPrintfW
  03484	e3a03001	 mov         r3, #1
  03488	e58d3010	 str         r3, [sp, #0x10]
  0348c	ea000001	 b           |$LN16@PrcmClockG|
  03490		 |$LN15@PrcmClockG|
  03490	e3a03000	 mov         r3, #0
  03494	e58d3010	 str         r3, [sp, #0x10]
  03498		 |$LN16@PrcmClockG|

; 1888 :     return rc;

  03498	e59d3000	 ldr         r3, [sp]
  0349c	e58d3004	 str         r3, [sp, #4]

; 1889 : }

  034a0	e59d0004	 ldr         r0, [sp, #4]
  034a4	e28dd014	 add         sp, sp, #0x14
  034a8	e89d6000	 ldmia       sp, {sp, lr}
  034ac	e12fff1e	 bx          lr
  034b0		 |$LN26@PrcmClockG|
  034b0		 |$LN27@PrcmClockG|
  034b0	00000000	 DCD         |??_C@_1FA@MJCKPJCC@?$AA?$CL?$AAP?$AAr?$AAc?$AAm?$AAC?$AAl?$AAo?$AAc?$AAk?$AAG?$AAe?$AAt?$AAP?$AAa?$AAr?$AAe?$AAn?$AAt?$AAC?$AAl?$AAo?$AAc?$AAk?$AAR?$AAe?$AAf?$AAc?$AAo?$AAu?$AAn?$AAt@|
  034b4		 |$LN28@PrcmClockG|
  034b4	00000000	 DCD         |dpCurSettings|
  034b8		 |$LN29@PrcmClockG|
  034b8	00000000	 DCD         |s_VddTable|
  034bc		 |$LN30@PrcmClockG|
  034bc	00000000	 DCD         |s_DpllTable|
  034c0		 |$LN31@PrcmClockG|
  034c0	00000000	 DCD         |s_DpllClkOutTable|
  034c4		 |$LN32@PrcmClockG|
  034c4	00000000	 DCD         |s_SrcClockTable|
  034c8		 |$LN33@PrcmClockG|
  034c8	00000000	 DCD         |??_C@_1HE@MOBKNDOK@?$AA?$CL?$AAP?$AAr?$AAc?$AAm?$AAC?$AAl?$AAo?$AAc?$AAk?$AAG?$AAe?$AAt?$AAP?$AAa?$AAr?$AAe?$AAn?$AAt?$AAC?$AAl?$AAo?$AAc?$AAk?$AAR?$AAe?$AAf?$AAc?$AAo?$AAu?$AAn?$AAt@|
  034cc		 |$M49586|

			 ENDP  ; |PrcmClockGetParentClockRefcount|

	EXPORT	|??_C@_1EI@CFCAKHBD@?$AA?$CL?$AAP?$AAr?$AAc?$AAm?$AAC?$AAl?$AAo?$AAc?$AAk?$AAG?$AAe?$AAt?$AAP?$AAa?$AAr?$AAe?$AAn?$AAt?$AAC?$AAl?$AAo?$AAc?$AAk?$AAI?$AAn?$AAf?$AAo?$AA?$CI?$AA?$CJ?$AA?$DN?$AA?$CF@| [ DATA ] ; `string'
	EXPORT	|??_C@_1II@JECHHBME@?$AA?$CL?$AAP?$AAr?$AAc?$AAm?$AAC?$AAl?$AAo?$AAc?$AAk?$AAG?$AAe?$AAt?$AAP?$AAa?$AAr?$AAe?$AAn?$AAt?$AAC?$AAl?$AAo?$AAc?$AAk?$AAI?$AAn?$AAf?$AAo?$AA?$CI?$AAc?$AAl?$AAo@| [ DATA ] ; `string'
	EXPORT	|PrcmClockGetParentClockInfo|

  00048			 AREA	 |.pdata|, PDATA
|$T49606| DCD	|$LN22@PrcmClockG@2|
	DCD	0x40008104

  00000			 AREA	 |.rdata|, DATA, READONLY
|??_C@_1EI@CFCAKHBD@?$AA?$CL?$AAP?$AAr?$AAc?$AAm?$AAC?$AAl?$AAo?$AAc?$AAk?$AAG?$AAe?$AAt?$AAP?$AAa?$AAr?$AAe?$AAn?$AAt?$AAC?$AAl?$AAo?$AAc?$AAk?$AAI?$AAn?$AAf?$AAo?$AA?$CI?$AA?$CJ?$AA?$DN?$AA?$CF@| DCB "+"
	DCB	0x0, "P", 0x0, "r", 0x0, "c", 0x0, "m", 0x0, "C", 0x0, "l"
	DCB	0x0, "o", 0x0, "c", 0x0, "k", 0x0, "G", 0x0, "e", 0x0, "t"
	DCB	0x0, "P", 0x0, "a", 0x0, "r", 0x0, "e", 0x0, "n", 0x0, "t"
	DCB	0x0, "C", 0x0, "l", 0x0, "o", 0x0, "c", 0x0, "k", 0x0, "I"
	DCB	0x0, "n", 0x0, "f", 0x0, "o", 0x0, "(", 0x0, ")", 0x0, "="
	DCB	0x0, "%", 0x0, "d", 0x0, 0xd, 0x0, 0xa, 0x0, 0x0, 0x0 ; `string'

  00000			 AREA	 |.rdata|, DATA, READONLY
|??_C@_1II@JECHHBME@?$AA?$CL?$AAP?$AAr?$AAc?$AAm?$AAC?$AAl?$AAo?$AAc?$AAk?$AAG?$AAe?$AAt?$AAP?$AAa?$AAr?$AAe?$AAn?$AAt?$AAC?$AAl?$AAo?$AAc?$AAk?$AAI?$AAn?$AAf?$AAo?$AA?$CI?$AAc?$AAl?$AAo@| DCB "+"
	DCB	0x0, "P", 0x0, "r", 0x0, "c", 0x0, "m", 0x0, "C", 0x0, "l"
	DCB	0x0, "o", 0x0, "c", 0x0, "k", 0x0, "G", 0x0, "e", 0x0, "t"
	DCB	0x0, "P", 0x0, "a", 0x0, "r", 0x0, "e", 0x0, "n", 0x0, "t"
	DCB	0x0, "C", 0x0, "l", 0x0, "o", 0x0, "c", 0x0, "k", 0x0, "I"
	DCB	0x0, "n", 0x0, "f", 0x0, "o", 0x0, "(", 0x0, "c", 0x0, "l"
	DCB	0x0, "o", 0x0, "c", 0x0, "k", 0x0, "I", 0x0, "d", 0x0, "="
	DCB	0x0, "%", 0x0, "d", 0x0, ",", 0x0, " ", 0x0, "n", 0x0, "L"
	DCB	0x0, "e", 0x0, "v", 0x0, "e", 0x0, "l", 0x0, "=", 0x0, "%"
	DCB	0x0, "d", 0x0, ",", 0x0, " ", 0x0, "p", 0x0, "I", 0x0, "n"
	DCB	0x0, "f", 0x0, "o", 0x0, "=", 0x0, "0", 0x0, "x", 0x0, "%"
	DCB	0x0, "0", 0x0, "8", 0x0, "X", 0x0, ")", 0x0, 0xd, 0x0, 0xa
	DCB	0x0, 0x0, 0x0				; `string'
; Function compile flags: /Odtp

  034cc			 AREA	 |.text|, CODE, ARM

  034cc		 |PrcmClockGetParentClockInfo| PROC

; 1898 : {

  034cc		 |$LN22@PrcmClockG@2|
  034cc	e1a0c00d	 mov         r12, sp
  034d0	e92d0007	 stmdb       sp!, {r0 - r2}
  034d4	e92d5000	 stmdb       sp!, {r12, lr}
  034d8	e24dd01c	 sub         sp, sp, #0x1C
  034dc		 |$M49603|

; 1899 :     BOOL rc = FALSE;

  034dc	e3a03000	 mov         r3, #0
  034e0	e58d3000	 str         r3, [sp]

; 1900 :     UINT parentClock;
; 1901 :     OALMSG(OAL_FUNC, (L"+PrcmClockGetParentClockInfo"
; 1902 :         L"(clockId=%d, nLevel=%d, pInfo=0x%08X)\r\n", clockId, nLevel, pInfo)
; 1903 :         );

  034e4	e59f31d0	 ldr         r3, [pc, #0x1D0]
  034e8	e5933440	 ldr         r3, [r3, #0x440]
  034ec	e3130004	 tst         r3, #4
  034f0	0a000007	 beq         |$LN16@PrcmClockG@2|
  034f4	e59d302c	 ldr         r3, [sp, #0x2C]
  034f8	e59d2028	 ldr         r2, [sp, #0x28]
  034fc	e59d1024	 ldr         r1, [sp, #0x24]
  03500	e59f01c4	 ldr         r0, [pc, #0x1C4]
  03504	eb000000	 bl          NKDbgPrintfW
  03508	e3a03001	 mov         r3, #1
  0350c	e58d300c	 str         r3, [sp, #0xC]
  03510	ea000001	 b           |$LN17@PrcmClockG@2|
  03514		 |$LN16@PrcmClockG@2|
  03514	e3a03000	 mov         r3, #0
  03518	e58d300c	 str         r3, [sp, #0xC]
  0351c		 |$LN17@PrcmClockG@2|

; 1904 : 
; 1905 :     // get parent clock
; 1906 :     switch (nLevel)

  0351c	e59d3028	 ldr         r3, [sp, #0x28]
  03520	e58d3010	 str         r3, [sp, #0x10]
  03524	e59d3010	 ldr         r3, [sp, #0x10]
  03528	e3530001	 cmp         r3, #1
  0352c	0a000006	 beq         |$LN11@PrcmClockG@2|
  03530	e59d3010	 ldr         r3, [sp, #0x10]
  03534	e3530002	 cmp         r3, #2
  03538	0a00001c	 beq         |$LN7@PrcmClockG@2|
  0353c	e59d3010	 ldr         r3, [sp, #0x10]
  03540	e3530003	 cmp         r3, #3
  03544	0a000029	 beq         |$LN4@PrcmClockG@2|
  03548	ea000038	 b           |$LN1@PrcmClockG@2|
  0354c		 |$LN11@PrcmClockG@2|

; 1907 :         {
; 1908 :         case 1:            
; 1909 :             if (clockId < kSOURCE_CLOCK_COUNT)

  0354c	e59d3024	 ldr         r3, [sp, #0x24]
  03550	e353005a	 cmp         r3, #0x5A
  03554	2a000013	 bcs         |$LN10@PrcmClockG@2|

; 1910 :                 {
; 1911 :                 parentClock = s_SrcClockTable[clockId].parentClk;

  03558	e59d1024	 ldr         r1, [sp, #0x24]
  0355c	e3a03014	 mov         r3, #0x14
  03560	e0020391	 mul         r2, r1, r3
  03564	e59f315c	 ldr         r3, [pc, #0x15C]
  03568	e0833002	 add         r3, r3, r2
  0356c	e5933000	 ldr         r3, [r3]
  03570	e58d3004	 str         r3, [sp, #4]

; 1912 :                 if (s_SrcClockTable[clockId].bIsDpllSrcClk) ++nLevel;                    

  03574	e59d1024	 ldr         r1, [sp, #0x24]
  03578	e3a03014	 mov         r3, #0x14
  0357c	e0020391	 mul         r2, r1, r3
  03580	e59f3140	 ldr         r3, [pc, #0x140]
  03584	e0833002	 add         r3, r3, r2
  03588	e2833008	 add         r3, r3, #8
  0358c	e5933000	 ldr         r3, [r3]
  03590	e3530000	 cmp         r3, #0
  03594	0a000002	 beq         |$LN9@PrcmClockG@2|
  03598	e59d3028	 ldr         r3, [sp, #0x28]
  0359c	e2833001	 add         r3, r3, #1
  035a0	e58d3028	 str         r3, [sp, #0x28]
  035a4		 |$LN9@PrcmClockG@2|

; 1913 :                 }
; 1914 :             else

  035a4	ea000000	 b           |$LN8@PrcmClockG@2|
  035a8		 |$LN10@PrcmClockG@2|

; 1915 :                 {
; 1916 :                 goto cleanUp;

  035a8	ea000030	 b           |$cleanUp$47949|
  035ac		 |$LN8@PrcmClockG@2|

; 1917 :                 }
; 1918 :             break;

  035ac	ea000020	 b           |$LN12@PrcmClockG@2|
  035b0		 |$LN7@PrcmClockG@2|

; 1919 : 
; 1920 :         case 2:
; 1921 :             if (clockId < kDPLL_CLKOUT_COUNT)

  035b0	e59d3024	 ldr         r3, [sp, #0x24]
  035b4	e3530010	 cmp         r3, #0x10
  035b8	2a00000a	 bcs         |$LN6@PrcmClockG@2|

; 1922 :                 {
; 1923 :                 parentClock = s_DpllClkOutTable[clockId].dpllDomain;

  035bc	e59d1024	 ldr         r1, [sp, #0x24]
  035c0	e3a03008	 mov         r3, #8
  035c4	e0020391	 mul         r2, r1, r3
  035c8	e59f30f4	 ldr         r3, [pc, #0xF4]
  035cc	e0833002	 add         r3, r3, r2
  035d0	e5933000	 ldr         r3, [r3]
  035d4	e58d3004	 str         r3, [sp, #4]

; 1924 :                 ++nLevel;                    

  035d8	e59d3028	 ldr         r3, [sp, #0x28]
  035dc	e2833001	 add         r3, r3, #1
  035e0	e58d3028	 str         r3, [sp, #0x28]

; 1925 :                 }
; 1926 :             else

  035e4	ea000000	 b           |$LN5@PrcmClockG@2|
  035e8		 |$LN6@PrcmClockG@2|

; 1927 :                 {
; 1928 :                 goto cleanUp;

  035e8	ea000020	 b           |$cleanUp$47949|
  035ec		 |$LN5@PrcmClockG@2|

; 1929 :                 }
; 1930 :             break;

  035ec	ea000010	 b           |$LN12@PrcmClockG@2|
  035f0		 |$LN4@PrcmClockG@2|

; 1931 : 
; 1932 :         case 3:
; 1933 :             if (clockId < kDPLL_COUNT)

  035f0	e59d3024	 ldr         r3, [sp, #0x24]
  035f4	e3530006	 cmp         r3, #6
  035f8	2a00000a	 bcs         |$LN3@PrcmClockG@2|

; 1934 :                 {
; 1935 :                 parentClock = s_DpllTable[clockId].vddDomain;

  035fc	e59d1024	 ldr         r1, [sp, #0x24]
  03600	e3a0300c	 mov         r3, #0xC
  03604	e0020391	 mul         r2, r1, r3
  03608	e59f30b0	 ldr         r3, [pc, #0xB0]
  0360c	e0833002	 add         r3, r3, r2
  03610	e5933000	 ldr         r3, [r3]
  03614	e58d3004	 str         r3, [sp, #4]

; 1936 :                 ++nLevel;                    

  03618	e59d3028	 ldr         r3, [sp, #0x28]
  0361c	e2833001	 add         r3, r3, #1
  03620	e58d3028	 str         r3, [sp, #0x28]

; 1937 :                 }
; 1938 :             else

  03624	ea000000	 b           |$LN2@PrcmClockG@2|
  03628		 |$LN3@PrcmClockG@2|

; 1939 :                 {
; 1940 :                 goto cleanUp;

  03628	ea000010	 b           |$cleanUp$47949|
  0362c		 |$LN2@PrcmClockG@2|

; 1941 :                 }
; 1942 :             break;

  0362c	ea000000	 b           |$LN12@PrcmClockG@2|
  03630		 |$LN1@PrcmClockG@2|

; 1943 : 
; 1944 :         default:
; 1945 :             goto cleanUp;

  03630	ea00000e	 b           |$cleanUp$47949|
  03634		 |$LN12@PrcmClockG@2|

; 1946 :         }
; 1947 : 
; 1948 : 
; 1949 :     // get parent information
; 1950 :     //
; 1951 :     pInfo->nLevel = nLevel;

  03634	e59d302c	 ldr         r3, [sp, #0x2C]
  03638	e2832008	 add         r2, r3, #8
  0363c	e59d3028	 ldr         r3, [sp, #0x28]
  03640	e5823000	 str         r3, [r2]

; 1952 :     pInfo->clockId = parentClock;

  03644	e59d2004	 ldr         r2, [sp, #4]
  03648	e59d302c	 ldr         r3, [sp, #0x2C]
  0364c	e5832000	 str         r2, [r3]

; 1953 :     rc = PrcmClockGetParentClockRefcount(parentClock, nLevel, &pInfo->refCount);

  03650	e59d302c	 ldr         r3, [sp, #0x2C]
  03654	e2832004	 add         r2, r3, #4
  03658	e59d1028	 ldr         r1, [sp, #0x28]
  0365c	e59d0004	 ldr         r0, [sp, #4]
  03660	eb000000	 bl          PrcmClockGetParentClockRefcount
  03664	e58d0014	 str         r0, [sp, #0x14]
  03668	e59d3014	 ldr         r3, [sp, #0x14]
  0366c	e58d3000	 str         r3, [sp]
  03670		 |$cleanUp$47949|

; 1954 : 
; 1955 : cleanUp:    
; 1956 :     OALMSG(OAL_FUNC, (L"+PrcmClockGetParentClockInfo()=%d\r\n", rc));

  03670	e59f3044	 ldr         r3, [pc, #0x44]
  03674	e5933440	 ldr         r3, [r3, #0x440]
  03678	e3130004	 tst         r3, #4
  0367c	0a000005	 beq         |$LN18@PrcmClockG@2|
  03680	e59d1000	 ldr         r1, [sp]
  03684	e59f002c	 ldr         r0, [pc, #0x2C]
  03688	eb000000	 bl          NKDbgPrintfW
  0368c	e3a03001	 mov         r3, #1
  03690	e58d3018	 str         r3, [sp, #0x18]
  03694	ea000001	 b           |$LN19@PrcmClockG@2|
  03698		 |$LN18@PrcmClockG@2|
  03698	e3a03000	 mov         r3, #0
  0369c	e58d3018	 str         r3, [sp, #0x18]
  036a0		 |$LN19@PrcmClockG@2|

; 1957 :     return rc;

  036a0	e59d3000	 ldr         r3, [sp]
  036a4	e58d3008	 str         r3, [sp, #8]

; 1958 : }

  036a8	e59d0008	 ldr         r0, [sp, #8]
  036ac	e28dd01c	 add         sp, sp, #0x1C
  036b0	e89d6000	 ldmia       sp, {sp, lr}
  036b4	e12fff1e	 bx          lr
  036b8		 |$LN23@PrcmClockG@2|
  036b8		 |$LN24@PrcmClockG@2|
  036b8	00000000	 DCD         |??_C@_1EI@CFCAKHBD@?$AA?$CL?$AAP?$AAr?$AAc?$AAm?$AAC?$AAl?$AAo?$AAc?$AAk?$AAG?$AAe?$AAt?$AAP?$AAa?$AAr?$AAe?$AAn?$AAt?$AAC?$AAl?$AAo?$AAc?$AAk?$AAI?$AAn?$AAf?$AAo?$AA?$CI?$AA?$CJ?$AA?$DN?$AA?$CF@|
  036bc		 |$LN25@PrcmClockG@2|
  036bc	00000000	 DCD         |dpCurSettings|
  036c0		 |$LN26@PrcmClockG@2|
  036c0	00000000	 DCD         |s_DpllTable|
  036c4		 |$LN27@PrcmClockG@2|
  036c4	00000000	 DCD         |s_DpllClkOutTable|
  036c8		 |$LN28@PrcmClockG@2|
  036c8	00000000	 DCD         |s_SrcClockTable|
  036cc		 |$LN29@PrcmClockG@2|
  036cc	00000000	 DCD         |??_C@_1II@JECHHBME@?$AA?$CL?$AAP?$AAr?$AAc?$AAm?$AAC?$AAl?$AAo?$AAc?$AAk?$AAG?$AAe?$AAt?$AAP?$AAa?$AAr?$AAe?$AAn?$AAt?$AAC?$AAl?$AAo?$AAc?$AAk?$AAI?$AAn?$AAf?$AAo?$AA?$CI?$AAc?$AAl?$AAo@|
  036d0		 |$M49604|

			 ENDP  ; |PrcmClockGetParentClockInfo|

	EXPORT	|??_C@_1DM@GILJKCEA@?$AA?$CL?$AAP?$AAr?$AAc?$AAm?$AAC?$AAl?$AAo?$AAc?$AAk?$AAS?$AAe?$AAt?$AAD?$AAp?$AAl?$AAl?$AAS?$AAt?$AAa?$AAt?$AAe?$AA?$CI?$AA?$CJ?$AA?$DN?$AA?$CF?$AAd?$AA?$AN?$AA?6?$AA?$AA@| [ DATA ] ; `string'
	EXPORT	|??_C@_1EO@FILIAOBC@?$AA?$CL?$AAP?$AAr?$AAc?$AAm?$AAC?$AAl?$AAo?$AAc?$AAk?$AAS?$AAe?$AAt?$AAD?$AAp?$AAl?$AAl?$AAS?$AAt?$AAa?$AAt?$AAe?$AA?$CI?$AAp?$AAI?$AAn?$AAf?$AAo?$AA?$DN?$AA0?$AAx?$AA?$CF@| [ DATA ] ; `string'
	EXPORT	|PrcmClockSetDpllState|

  00050			 AREA	 |.pdata|, PDATA
|$T49627| DCD	|$LN20@PrcmClockS@3|
	DCD	0x40009404

  00000			 AREA	 |.rdata|, DATA, READONLY
|??_C@_1DM@GILJKCEA@?$AA?$CL?$AAP?$AAr?$AAc?$AAm?$AAC?$AAl?$AAo?$AAc?$AAk?$AAS?$AAe?$AAt?$AAD?$AAp?$AAl?$AAl?$AAS?$AAt?$AAa?$AAt?$AAe?$AA?$CI?$AA?$CJ?$AA?$DN?$AA?$CF?$AAd?$AA?$AN?$AA?6?$AA?$AA@| DCB "+"
	DCB	0x0, "P", 0x0, "r", 0x0, "c", 0x0, "m", 0x0, "C", 0x0, "l"
	DCB	0x0, "o", 0x0, "c", 0x0, "k", 0x0, "S", 0x0, "e", 0x0, "t"
	DCB	0x0, "D", 0x0, "p", 0x0, "l", 0x0, "l", 0x0, "S", 0x0, "t"
	DCB	0x0, "a", 0x0, "t", 0x0, "e", 0x0, "(", 0x0, ")", 0x0, "="
	DCB	0x0, "%", 0x0, "d", 0x0, 0xd, 0x0, 0xa, 0x0, 0x0, 0x0 ; `string'

  00000			 AREA	 |.rdata|, DATA, READONLY
|??_C@_1EO@FILIAOBC@?$AA?$CL?$AAP?$AAr?$AAc?$AAm?$AAC?$AAl?$AAo?$AAc?$AAk?$AAS?$AAe?$AAt?$AAD?$AAp?$AAl?$AAl?$AAS?$AAt?$AAa?$AAt?$AAe?$AA?$CI?$AAp?$AAI?$AAn?$AAf?$AAo?$AA?$DN?$AA0?$AAx?$AA?$CF@| DCB "+"
	DCB	0x0, "P", 0x0, "r", 0x0, "c", 0x0, "m", 0x0, "C", 0x0, "l"
	DCB	0x0, "o", 0x0, "c", 0x0, "k", 0x0, "S", 0x0, "e", 0x0, "t"
	DCB	0x0, "D", 0x0, "p", 0x0, "l", 0x0, "l", 0x0, "S", 0x0, "t"
	DCB	0x0, "a", 0x0, "t", 0x0, "e", 0x0, "(", 0x0, "p", 0x0, "I"
	DCB	0x0, "n", 0x0, "f", 0x0, "o", 0x0, "=", 0x0, "0", 0x0, "x"
	DCB	0x0, "%", 0x0, "0", 0x0, "8", 0x0, "X", 0x0, ")", 0x0, 0xd
	DCB	0x0, 0xa, 0x0, 0x0, 0x0			; `string'
; Function compile flags: /Odtp

  036d0			 AREA	 |.text|, CODE, ARM

  036d0		 |PrcmClockSetDpllState| PROC

; 1965 : {

  036d0		 |$LN20@PrcmClockS@3|
  036d0	e1a0c00d	 mov         r12, sp
  036d4	e92d0001	 stmdb       sp!, {r0}
  036d8	e92d5000	 stmdb       sp!, {r12, lr}
  036dc	e24dd020	 sub         sp, sp, #0x20
  036e0		 |$M49624|

; 1966 :     BOOL rc = FALSE;

  036e0	e3a03000	 mov         r3, #0
  036e4	e58d3000	 str         r3, [sp]

; 1967 :     DpllState_t *pDpll;
; 1968 :     OALMSG(OAL_FUNC, (L"+PrcmClockSetDpllState(pInfo=0x%08X)\r\n", pInfo));

  036e8	e59f3224	 ldr         r3, [pc, #0x224]
  036ec	e5933440	 ldr         r3, [r3, #0x440]
  036f0	e3130004	 tst         r3, #4
  036f4	0a000005	 beq         |$LN10@PrcmClockS@3|
  036f8	e59d1028	 ldr         r1, [sp, #0x28]
  036fc	e59f0218	 ldr         r0, [pc, #0x218]
  03700	eb000000	 bl          NKDbgPrintfW
  03704	e3a03001	 mov         r3, #1
  03708	e58d300c	 str         r3, [sp, #0xC]
  0370c	ea000001	 b           |$LN11@PrcmClockS@3|
  03710		 |$LN10@PrcmClockS@3|
  03710	e3a03000	 mov         r3, #0
  03714	e58d300c	 str         r3, [sp, #0xC]
  03718		 |$LN11@PrcmClockS@3|

; 1969 : 
; 1970 :     Lock(Mutex_DeviceClock);

  03718	e3a00000	 mov         r0, #0
  0371c	eb000000	 bl          Lock

; 1971 :     if (pInfo->dpllId > kDPLL5) goto cleanUp;

  03720	e59d3028	 ldr         r3, [sp, #0x28]
  03724	e2833004	 add         r3, r3, #4
  03728	e5933000	 ldr         r3, [r3]
  0372c	e3530004	 cmp         r3, #4
  03730	9a000000	 bls         |$LN7@PrcmClockS@3|
  03734	ea000061	 b           |$cleanUp$47967|
  03738		 |$LN7@PrcmClockS@3|

; 1972 : 
; 1973 :     // get dpll pointer
; 1974 :     pDpll = s_DpllTable[pInfo->dpllId].pDpllInfo;

  03738	e59d3028	 ldr         r3, [sp, #0x28]
  0373c	e2833004	 add         r3, r3, #4
  03740	e5931000	 ldr         r1, [r3]
  03744	e3a0300c	 mov         r3, #0xC
  03748	e0020391	 mul         r2, r1, r3
  0374c	e59f31c4	 ldr         r3, [pc, #0x1C4]
  03750	e0833002	 add         r3, r3, r2
  03754	e2833008	 add         r3, r3, #8
  03758	e5933000	 ldr         r3, [r3]
  0375c	e58d3004	 str         r3, [sp, #4]

; 1975 :     if (pDpll == NULL) goto cleanUp;

  03760	e59d3004	 ldr         r3, [sp, #4]
  03764	e3530000	 cmp         r3, #0
  03768	1a000000	 bne         |$LN6@PrcmClockS@3|
  0376c	ea000053	 b           |$cleanUp$47967|
  03770		 |$LN6@PrcmClockS@3|

; 1976 : 
; 1977 :     if (pInfo->ffMask & DPLL_UPDATE_LPMODE)

  03770	e59d3028	 ldr         r3, [sp, #0x28]
  03774	e2833008	 add         r3, r3, #8
  03778	e5933000	 ldr         r3, [r3]
  0377c	e3130002	 tst         r3, #2
  03780	0a00000c	 beq         |$LN5@PrcmClockS@3|

; 1978 :         {
; 1979 :         pDpll->lowPowerEnabled = pInfo->lowPowerEnabled ? 0x01 : 0;

  03784	e59d3028	 ldr         r3, [sp, #0x28]
  03788	e283300c	 add         r3, r3, #0xC
  0378c	e5933000	 ldr         r3, [r3]
  03790	e3530000	 cmp         r3, #0
  03794	0a000002	 beq         |$LN12@PrcmClockS@3|
  03798	e3a03001	 mov         r3, #1
  0379c	e58d3010	 str         r3, [sp, #0x10]
  037a0	ea000001	 b           |$LN13@PrcmClockS@3|
  037a4		 |$LN12@PrcmClockS@3|
  037a4	e3a03000	 mov         r3, #0
  037a8	e58d3010	 str         r3, [sp, #0x10]
  037ac		 |$LN13@PrcmClockS@3|
  037ac	e59d2010	 ldr         r2, [sp, #0x10]
  037b0	e59d3004	 ldr         r3, [sp, #4]
  037b4	e5832000	 str         r2, [r3]
  037b8		 |$LN5@PrcmClockS@3|

; 1980 :         }
; 1981 : 
; 1982 :     if (pInfo->ffMask & DPLL_UPDATE_DRIFTGUARD)

  037b8	e59d3028	 ldr         r3, [sp, #0x28]
  037bc	e2833008	 add         r3, r3, #8
  037c0	e5933000	 ldr         r3, [r3]
  037c4	e3130004	 tst         r3, #4
  037c8	0a00000d	 beq         |$LN4@PrcmClockS@3|

; 1983 :         {
; 1984 :         pDpll->driftGuard = pInfo->driftGuardEnabled ? 0x01 : 0;    

  037cc	e59d3028	 ldr         r3, [sp, #0x28]
  037d0	e2833014	 add         r3, r3, #0x14
  037d4	e5933000	 ldr         r3, [r3]
  037d8	e3530000	 cmp         r3, #0
  037dc	0a000002	 beq         |$LN14@PrcmClockS@3|
  037e0	e3a03001	 mov         r3, #1
  037e4	e58d3014	 str         r3, [sp, #0x14]
  037e8	ea000001	 b           |$LN15@PrcmClockS@3|
  037ec		 |$LN14@PrcmClockS@3|
  037ec	e3a03000	 mov         r3, #0
  037f0	e58d3014	 str         r3, [sp, #0x14]
  037f4		 |$LN15@PrcmClockS@3|
  037f4	e59d3004	 ldr         r3, [sp, #4]
  037f8	e283200c	 add         r2, r3, #0xC
  037fc	e59d3014	 ldr         r3, [sp, #0x14]
  03800	e5823000	 str         r3, [r2]
  03804		 |$LN4@PrcmClockS@3|

; 1985 :         }
; 1986 : 
; 1987 :     if (pInfo->ffMask & DPLL_UPDATE_RAMPTIME)

  03804	e59d3028	 ldr         r3, [sp, #0x28]
  03808	e2833008	 add         r3, r3, #8
  0380c	e5933000	 ldr         r3, [r3]
  03810	e3130008	 tst         r3, #8
  03814	0a000007	 beq         |$LN3@PrcmClockS@3|

; 1988 :         {
; 1989 :         pDpll->rampTime = (pInfo->rampTime & DPLL_RAMPTIME_MASK) >> DPLL_RAMPTIME_SHIFT;               

  03818	e59d3028	 ldr         r3, [sp, #0x28]
  0381c	e2833010	 add         r3, r3, #0x10
  03820	e5933000	 ldr         r3, [r3]
  03824	e2033c03	 and         r3, r3, #3, 24
  03828	e1a02423	 mov         r2, r3, lsr #8
  0382c	e59d3004	 ldr         r3, [sp, #4]
  03830	e2833004	 add         r3, r3, #4
  03834	e5832000	 str         r2, [r3]
  03838		 |$LN3@PrcmClockS@3|

; 1990 :         }
; 1991 : 
; 1992 :     if (pInfo->ffMask & DPLL_UPDATE_DPLLMODE)

  03838	e59d3028	 ldr         r3, [sp, #0x28]
  0383c	e2833008	 add         r3, r3, #8
  03840	e5933000	 ldr         r3, [r3]
  03844	e3130001	 tst         r3, #1
  03848	0a000006	 beq         |$LN2@PrcmClockS@3|

; 1993 :         {
; 1994 :         pDpll->dpllMode = (pInfo->dpllMode & DPLL_MODE_MASK) >> DPLL_MODE_SHIFT;

  0384c	e59d3028	 ldr         r3, [sp, #0x28]
  03850	e2833018	 add         r3, r3, #0x18
  03854	e5933000	 ldr         r3, [r3]
  03858	e2032007	 and         r2, r3, #7
  0385c	e59d3004	 ldr         r3, [sp, #4]
  03860	e2833010	 add         r3, r3, #0x10
  03864	e5832000	 str         r2, [r3]
  03868		 |$LN2@PrcmClockS@3|

; 1995 :         }
; 1996 : 
; 1997 :     if (pInfo->ffMask & DPLL_UPDATE_AUTOIDLEMODE)

  03868	e59d3028	 ldr         r3, [sp, #0x28]
  0386c	e2833008	 add         r3, r3, #8
  03870	e5933000	 ldr         r3, [r3]
  03874	e3130010	 tst         r3, #0x10
  03878	0a000006	 beq         |$LN1@PrcmClockS@3|

; 1998 :         {
; 1999 :         pDpll->dpllAutoidleState = (pInfo->dpllAutoidleState & DPLL_AUTOIDLE_MASK) >> DPLL_AUTOIDLE_SHIFT;

  0387c	e59d3028	 ldr         r3, [sp, #0x28]
  03880	e283301c	 add         r3, r3, #0x1C
  03884	e5933000	 ldr         r3, [r3]
  03888	e2032007	 and         r2, r3, #7
  0388c	e59d3004	 ldr         r3, [sp, #4]
  03890	e2833020	 add         r3, r3, #0x20
  03894	e5832000	 str         r2, [r3]
  03898		 |$LN1@PrcmClockS@3|

; 2000 :         }
; 2001 :     
; 2002 :     rc = _ClockHwUpdateDpllState(pInfo->dpllId, pInfo->ffMask);

  03898	e59d3028	 ldr         r3, [sp, #0x28]
  0389c	e2833008	 add         r3, r3, #8
  038a0	e5931000	 ldr         r1, [r3]
  038a4	e59d3028	 ldr         r3, [sp, #0x28]
  038a8	e2833004	 add         r3, r3, #4
  038ac	e5930000	 ldr         r0, [r3]
  038b0	eb000000	 bl          _ClockHwUpdateDpllState
  038b4	e58d0018	 str         r0, [sp, #0x18]
  038b8	e59d3018	 ldr         r3, [sp, #0x18]
  038bc	e58d3000	 str         r3, [sp]
  038c0		 |$cleanUp$47967|

; 2003 :     
; 2004 : 
; 2005 : cleanUp:    
; 2006 :     Unlock(Mutex_DeviceClock);

  038c0	e3a00000	 mov         r0, #0
  038c4	eb000000	 bl          Unlock

; 2007 :     OALMSG(OAL_FUNC, (L"+PrcmClockSetDpllState()=%d\r\n", rc));

  038c8	e59f3044	 ldr         r3, [pc, #0x44]
  038cc	e5933440	 ldr         r3, [r3, #0x440]
  038d0	e3130004	 tst         r3, #4
  038d4	0a000005	 beq         |$LN16@PrcmClockS@3|
  038d8	e59d1000	 ldr         r1, [sp]
  038dc	e59f002c	 ldr         r0, [pc, #0x2C]
  038e0	eb000000	 bl          NKDbgPrintfW
  038e4	e3a03001	 mov         r3, #1
  038e8	e58d301c	 str         r3, [sp, #0x1C]
  038ec	ea000001	 b           |$LN17@PrcmClockS@3|
  038f0		 |$LN16@PrcmClockS@3|
  038f0	e3a03000	 mov         r3, #0
  038f4	e58d301c	 str         r3, [sp, #0x1C]
  038f8		 |$LN17@PrcmClockS@3|

; 2008 :     return rc;

  038f8	e59d3000	 ldr         r3, [sp]
  038fc	e58d3008	 str         r3, [sp, #8]

; 2009 : }

  03900	e59d0008	 ldr         r0, [sp, #8]
  03904	e28dd020	 add         sp, sp, #0x20
  03908	e89d6000	 ldmia       sp, {sp, lr}
  0390c	e12fff1e	 bx          lr
  03910		 |$LN21@PrcmClockS@3|
  03910		 |$LN22@PrcmClockS@3|
  03910	00000000	 DCD         |??_C@_1DM@GILJKCEA@?$AA?$CL?$AAP?$AAr?$AAc?$AAm?$AAC?$AAl?$AAo?$AAc?$AAk?$AAS?$AAe?$AAt?$AAD?$AAp?$AAl?$AAl?$AAS?$AAt?$AAa?$AAt?$AAe?$AA?$CI?$AA?$CJ?$AA?$DN?$AA?$CF?$AAd?$AA?$AN?$AA?6?$AA?$AA@|
  03914		 |$LN23@PrcmClockS@3|
  03914	00000000	 DCD         |dpCurSettings|
  03918		 |$LN24@PrcmClockS@3|
  03918	00000000	 DCD         |s_DpllTable|
  0391c		 |$LN25@PrcmClockS@3|
  0391c	00000000	 DCD         |??_C@_1EO@FILIAOBC@?$AA?$CL?$AAP?$AAr?$AAc?$AAm?$AAC?$AAl?$AAo?$AAc?$AAk?$AAS?$AAe?$AAt?$AAD?$AAp?$AAl?$AAl?$AAS?$AAt?$AAa?$AAt?$AAe?$AA?$CI?$AAp?$AAI?$AAn?$AAf?$AAo?$AA?$DN?$AA0?$AAx?$AA?$CF@|
  03920		 |$M49625|

			 ENDP  ; |PrcmClockSetDpllState|


  00058			 AREA	 |.pdata|, PDATA
|$T49646| DCD	|$LN48@ClockHwUpd@3|
	DCD	0x40020404
; Function compile flags: /Odtp

  03920			 AREA	 |.text|, CODE, ARM

  03920		 |_ClockHwUpdateDpllState| PROC

; 887  : {

  03920		 |$LN48@ClockHwUpd@3|
  03920	e1a0c00d	 mov         r12, sp
  03924	e92d0003	 stmdb       sp!, {r0, r1}
  03928	e92d5000	 stmdb       sp!, {r12, lr}
  0392c	e24dd014	 sub         sp, sp, #0x14
  03930		 |$M49643|

; 888  :     BOOL rc = TRUE;

  03930	e3a03001	 mov         r3, #1
  03934	e58d3004	 str         r3, [sp, #4]

; 889  :     UINT cm_clken_pll;
; 890  :     UINT cm_autoidle_pll;
; 891  :     
; 892  :     // update the following hw registers
; 893  :     // CM_AUTOIDLE_PLL_xxx
; 894  :     // CM_CLKEN_PLL_xxx
; 895  :     // CM_CLKSELn_PLL_xxx
; 896  :     // CM_CLKSTCTRL_xxx
; 897  : 
; 898  : 
; 899  :     switch (dpll)

  03938	e59d301c	 ldr         r3, [sp, #0x1C]
  0393c	e58d3010	 str         r3, [sp, #0x10]
  03940	e59d3010	 ldr         r3, [sp, #0x10]
  03944	e3530005	 cmp         r3, #5
  03948	8a0001e8	 bhi         |$LN1@ClockHwUpd@3|
  0394c	e59d2010	 ldr         r2, [sp, #0x10]
  03950	e1a03102	 mov         r3, r2, lsl #2
  03954	e083300f	 add         r3, r3, pc
  03958	e5933004	 ldr         r3, [r3, #4]
  0395c	e08ff003	 add         pc, pc, r3
  03960		 |$LN39@ClockHwUpd@3|
  03960		 |$LN38@ClockHwUpd@3|
  03960		 |$LN40@ClockHwUpd@3|
  03960	00000014	 DCD         0x14
  03964		 |$LN41@ClockHwUpd@3|
  03964	000001ac	 DCD         0x1ac
  03968		 |$LN42@ClockHwUpd@3|
  03968	0000031c	 DCD         0x31c
  0396c		 |$LN43@ClockHwUpd@3|
  0396c	00000490	 DCD         0x490
  03970		 |$LN44@ClockHwUpd@3|
  03970	00000628	 DCD         0x628
  03974		 |$LN45@ClockHwUpd@3|
  03974	00000788	 DCD         0x788
  03978		 |$LN33@ClockHwUpd@3|

; 900  :         {
; 901  :         case kDPLL1:               
; 902  :             cm_clken_pll = INREG32(&g_pPrcmCm->pOMAP_MPU_CM->CM_CLKEN_PLL_MPU);

  03978	e59f3794	 ldr         r3, [pc, #0x794]
  0397c	e5933000	 ldr         r3, [r3]
  03980	e2833014	 add         r3, r3, #0x14
  03984	e5933000	 ldr         r3, [r3]
  03988	e2833004	 add         r3, r3, #4
  0398c	e5933000	 ldr         r3, [r3]
  03990	e58d3008	 str         r3, [sp, #8]

; 903  :             cm_autoidle_pll = INREG32(&g_pPrcmCm->pOMAP_MPU_CM->CM_AUTOIDLE_PLL_MPU);

  03994	e59f3778	 ldr         r3, [pc, #0x778]
  03998	e5933000	 ldr         r3, [r3]
  0399c	e2833014	 add         r3, r3, #0x14
  039a0	e5933000	 ldr         r3, [r3]
  039a4	e2833034	 add         r3, r3, #0x34
  039a8	e5933000	 ldr         r3, [r3]
  039ac	e58d3000	 str         r3, [sp]

; 904  :             if (ffMask & DPLL_UPDATE_LPMODE)

  039b0	e59d3020	 ldr         r3, [sp, #0x20]
  039b4	e3130002	 tst         r3, #2
  039b8	0a000009	 beq         |$LN32@ClockHwUpd@3|

; 905  :                 {
; 906  :                 cm_clken_pll &= ~EN_DPLL_LPMODE_MASK;

  039bc	e59d2008	 ldr         r2, [sp, #8]
  039c0	e3e03b01	 mvn         r3, #1, 22
  039c4	e0023003	 and         r3, r2, r3
  039c8	e58d3008	 str         r3, [sp, #8]

; 907  :                 cm_clken_pll |= _dpll_1.lowPowerEnabled << EN_DPLL_LPMODE_SHIFT;

  039cc	e59f3758	 ldr         r3, [pc, #0x758]
  039d0	e5933000	 ldr         r3, [r3]
  039d4	e1a02503	 mov         r2, r3, lsl #10
  039d8	e59d3008	 ldr         r3, [sp, #8]
  039dc	e1833002	 orr         r3, r3, r2
  039e0	e58d3008	 str         r3, [sp, #8]
  039e4		 |$LN32@ClockHwUpd@3|

; 908  :                 }
; 909  : 
; 910  :             if (ffMask & DPLL_UPDATE_DRIFTGUARD)

  039e4	e59d3020	 ldr         r3, [sp, #0x20]
  039e8	e3130004	 tst         r3, #4
  039ec	0a000009	 beq         |$LN31@ClockHwUpd@3|

; 911  :                 {
; 912  :                 cm_clken_pll &= ~EN_DPLL_DRIFTGUARD_MASK;

  039f0	e59d2008	 ldr         r2, [sp, #8]
  039f4	e3e03008	 mvn         r3, #8
  039f8	e0023003	 and         r3, r2, r3
  039fc	e58d3008	 str         r3, [sp, #8]

; 913  :                 cm_clken_pll |= _dpll_1.driftGuard << EN_DPLL_DRIFTGUARD_SHIFT;

  03a00	e59f3724	 ldr         r3, [pc, #0x724]
  03a04	e593300c	 ldr         r3, [r3, #0xC]
  03a08	e1a02183	 mov         r2, r3, lsl #3
  03a0c	e59d3008	 ldr         r3, [sp, #8]
  03a10	e1833002	 orr         r3, r3, r2
  03a14	e58d3008	 str         r3, [sp, #8]
  03a18		 |$LN31@ClockHwUpd@3|

; 914  :                 }
; 915  : 
; 916  :             if (ffMask & DPLL_UPDATE_RAMPTIME)

  03a18	e59d3020	 ldr         r3, [sp, #0x20]
  03a1c	e3130008	 tst         r3, #8
  03a20	0a000009	 beq         |$LN30@ClockHwUpd@3|

; 917  :                 {
; 918  :                 cm_clken_pll &= ~DPLL_RAMPTIME_MASK;

  03a24	e59d2008	 ldr         r2, [sp, #8]
  03a28	e3e03c03	 mvn         r3, #3, 24
  03a2c	e0023003	 and         r3, r2, r3
  03a30	e58d3008	 str         r3, [sp, #8]

; 919  :                 cm_clken_pll |= _dpll_1.rampTime << DPLL_RAMPTIME_SHIFT;                

  03a34	e59f36f0	 ldr         r3, [pc, #0x6F0]
  03a38	e5933004	 ldr         r3, [r3, #4]
  03a3c	e1a02403	 mov         r2, r3, lsl #8
  03a40	e59d3008	 ldr         r3, [sp, #8]
  03a44	e1833002	 orr         r3, r3, r2
  03a48	e58d3008	 str         r3, [sp, #8]
  03a4c		 |$LN30@ClockHwUpd@3|

; 920  :                 }
; 921  : 
; 922  :             if (ffMask & DPLL_UPDATE_DPLLMODE)

  03a4c	e59d3020	 ldr         r3, [sp, #0x20]
  03a50	e3130001	 tst         r3, #1
  03a54	0a000008	 beq         |$LN29@ClockHwUpd@3|

; 923  :                 {
; 924  :                 cm_clken_pll &= ~DPLL_MODE_MASK;

  03a58	e59d2008	 ldr         r2, [sp, #8]
  03a5c	e3e03007	 mvn         r3, #7
  03a60	e0023003	 and         r3, r2, r3
  03a64	e58d3008	 str         r3, [sp, #8]

; 925  :                 cm_clken_pll |= _dpll_1.dpllMode << DPLL_MODE_SHIFT; 

  03a68	e59d2008	 ldr         r2, [sp, #8]
  03a6c	e59f36b8	 ldr         r3, [pc, #0x6B8]
  03a70	e5933010	 ldr         r3, [r3, #0x10]
  03a74	e1823003	 orr         r3, r2, r3
  03a78	e58d3008	 str         r3, [sp, #8]
  03a7c		 |$LN29@ClockHwUpd@3|

; 926  :                 }
; 927  : 
; 928  :             if (ffMask & DPLL_UPDATE_AUTOIDLEMODE)

  03a7c	e59d3020	 ldr         r3, [sp, #0x20]
  03a80	e3130010	 tst         r3, #0x10
  03a84	0a000008	 beq         |$LN28@ClockHwUpd@3|

; 929  :                 {
; 930  :                 cm_autoidle_pll &= ~DPLL_AUTOIDLE_MASK;

  03a88	e59d2000	 ldr         r2, [sp]
  03a8c	e3e03007	 mvn         r3, #7
  03a90	e0023003	 and         r3, r2, r3
  03a94	e58d3000	 str         r3, [sp]

; 931  :                 cm_autoidle_pll |= _dpll_1.dpllAutoidleState << DPLL_AUTOIDLE_SHIFT;

  03a98	e59d2000	 ldr         r2, [sp]
  03a9c	e59f3688	 ldr         r3, [pc, #0x688]
  03aa0	e5933020	 ldr         r3, [r3, #0x20]
  03aa4	e1823003	 orr         r3, r2, r3
  03aa8	e58d3000	 str         r3, [sp]
  03aac		 |$LN28@ClockHwUpd@3|

; 932  :                 }
; 933  : 
; 934  :             OUTREG32(&g_pPrcmCm->pOMAP_MPU_CM->CM_CLKEN_PLL_MPU, cm_clken_pll);

  03aac	e59f3660	 ldr         r3, [pc, #0x660]
  03ab0	e5933000	 ldr         r3, [r3]
  03ab4	e2833014	 add         r3, r3, #0x14
  03ab8	e5933000	 ldr         r3, [r3]
  03abc	e2832004	 add         r2, r3, #4
  03ac0	e59d3008	 ldr         r3, [sp, #8]
  03ac4	e5823000	 str         r3, [r2]

; 935  :             OUTREG32(&g_pPrcmCm->pOMAP_MPU_CM->CM_AUTOIDLE_PLL_MPU, cm_autoidle_pll);

  03ac8	e59f3644	 ldr         r3, [pc, #0x644]
  03acc	e5933000	 ldr         r3, [r3]
  03ad0	e2833014	 add         r3, r3, #0x14
  03ad4	e5933000	 ldr         r3, [r3]
  03ad8	e2832034	 add         r2, r3, #0x34
  03adc	e59d3000	 ldr         r3, [sp]
  03ae0	e5823000	 str         r3, [r2]

; 936  : 
; 937  :             // Save modifications to scratchpad register as well
; 938  :             OUTREG32(&g_pPrcmRestore->CM_CLKEN_PLL_MPU, cm_clken_pll);        

  03ae4	e59f362c	 ldr         r3, [pc, #0x62C]
  03ae8	e5933000	 ldr         r3, [r3]
  03aec	e2832024	 add         r2, r3, #0x24
  03af0	e59d3008	 ldr         r3, [sp, #8]
  03af4	e5823000	 str         r3, [r2]

; 939  :             OUTREG32(&g_pPrcmRestore->CM_AUTOIDLE_PLL_MPU, cm_autoidle_pll);

  03af8	e59f3618	 ldr         r3, [pc, #0x618]
  03afc	e5933000	 ldr         r3, [r3]
  03b00	e2832028	 add         r2, r3, #0x28
  03b04	e59d3000	 ldr         r3, [sp]
  03b08	e5823000	 str         r3, [r2]

; 940  :             break;

  03b0c	ea000179	 b           |$LN34@ClockHwUpd@3|
  03b10		 |$LN27@ClockHwUpd@3|

; 941  : 
; 942  :         case kDPLL2:
; 943  :             cm_clken_pll = INREG32(&g_pPrcmCm->pOMAP_IVA2_CM->CM_CLKEN_PLL_IVA2);

  03b10	e59f35fc	 ldr         r3, [pc, #0x5FC]
  03b14	e5933000	 ldr         r3, [r3]
  03b18	e2833020	 add         r3, r3, #0x20
  03b1c	e5933000	 ldr         r3, [r3]
  03b20	e2833004	 add         r3, r3, #4
  03b24	e5933000	 ldr         r3, [r3]
  03b28	e58d3008	 str         r3, [sp, #8]

; 944  :             cm_autoidle_pll = INREG32(&g_pPrcmCm->pOMAP_IVA2_CM->CM_AUTOIDLE_PLL_IVA2);

  03b2c	e59f35e0	 ldr         r3, [pc, #0x5E0]
  03b30	e5933000	 ldr         r3, [r3]
  03b34	e2833020	 add         r3, r3, #0x20
  03b38	e5933000	 ldr         r3, [r3]
  03b3c	e2833034	 add         r3, r3, #0x34
  03b40	e5933000	 ldr         r3, [r3]
  03b44	e58d3000	 str         r3, [sp]

; 945  :             if (ffMask & DPLL_UPDATE_LPMODE)

  03b48	e59d3020	 ldr         r3, [sp, #0x20]
  03b4c	e3130002	 tst         r3, #2
  03b50	0a000009	 beq         |$LN26@ClockHwUpd@3|

; 946  :                 {
; 947  :                 cm_clken_pll &= ~EN_DPLL_LPMODE;

  03b54	e59d2008	 ldr         r2, [sp, #8]
  03b58	e3e03b01	 mvn         r3, #1, 22
  03b5c	e0023003	 and         r3, r2, r3
  03b60	e58d3008	 str         r3, [sp, #8]

; 948  :                 cm_clken_pll |= _dpll_2.lowPowerEnabled << EN_DPLL_LPMODE_SHIFT;

  03b64	e59f35bc	 ldr         r3, [pc, #0x5BC]
  03b68	e5933000	 ldr         r3, [r3]
  03b6c	e1a02503	 mov         r2, r3, lsl #10
  03b70	e59d3008	 ldr         r3, [sp, #8]
  03b74	e1833002	 orr         r3, r3, r2
  03b78	e58d3008	 str         r3, [sp, #8]
  03b7c		 |$LN26@ClockHwUpd@3|

; 949  :                 }
; 950  : 
; 951  :             if (ffMask & DPLL_UPDATE_DRIFTGUARD)

  03b7c	e59d3020	 ldr         r3, [sp, #0x20]
  03b80	e3130004	 tst         r3, #4
  03b84	0a000009	 beq         |$LN25@ClockHwUpd@3|

; 952  :                 {
; 953  :                 cm_clken_pll &= ~EN_DPLL_DRIFTGUARD;

  03b88	e59d2008	 ldr         r2, [sp, #8]
  03b8c	e3e03008	 mvn         r3, #8
  03b90	e0023003	 and         r3, r2, r3
  03b94	e58d3008	 str         r3, [sp, #8]

; 954  :                 cm_clken_pll |= _dpll_2.driftGuard << EN_DPLL_DRIFTGUARD_SHIFT;                

  03b98	e59f3588	 ldr         r3, [pc, #0x588]
  03b9c	e593300c	 ldr         r3, [r3, #0xC]
  03ba0	e1a02183	 mov         r2, r3, lsl #3
  03ba4	e59d3008	 ldr         r3, [sp, #8]
  03ba8	e1833002	 orr         r3, r3, r2
  03bac	e58d3008	 str         r3, [sp, #8]
  03bb0		 |$LN25@ClockHwUpd@3|

; 955  :                 }
; 956  : 
; 957  :             if (ffMask & DPLL_UPDATE_RAMPTIME)

  03bb0	e59d3020	 ldr         r3, [sp, #0x20]
  03bb4	e3130008	 tst         r3, #8
  03bb8	0a000009	 beq         |$LN24@ClockHwUpd@3|

; 958  :                 {
; 959  :                 cm_clken_pll &= ~DPLL_RAMPTIME_MASK;

  03bbc	e59d2008	 ldr         r2, [sp, #8]
  03bc0	e3e03c03	 mvn         r3, #3, 24
  03bc4	e0023003	 and         r3, r2, r3
  03bc8	e58d3008	 str         r3, [sp, #8]

; 960  :                 cm_clken_pll |= _dpll_2.rampTime << DPLL_RAMPTIME_SHIFT;                

  03bcc	e59f3554	 ldr         r3, [pc, #0x554]
  03bd0	e5933004	 ldr         r3, [r3, #4]
  03bd4	e1a02403	 mov         r2, r3, lsl #8
  03bd8	e59d3008	 ldr         r3, [sp, #8]
  03bdc	e1833002	 orr         r3, r3, r2
  03be0	e58d3008	 str         r3, [sp, #8]
  03be4		 |$LN24@ClockHwUpd@3|

; 961  :                 }
; 962  : 
; 963  :             if (ffMask & DPLL_UPDATE_DPLLMODE)

  03be4	e59d3020	 ldr         r3, [sp, #0x20]
  03be8	e3130001	 tst         r3, #1
  03bec	0a000008	 beq         |$LN23@ClockHwUpd@3|

; 964  :                 {
; 965  :                 cm_clken_pll &= ~DPLL_MODE_MASK;

  03bf0	e59d2008	 ldr         r2, [sp, #8]
  03bf4	e3e03007	 mvn         r3, #7
  03bf8	e0023003	 and         r3, r2, r3
  03bfc	e58d3008	 str         r3, [sp, #8]

; 966  :                 cm_clken_pll |= _dpll_2.dpllMode << DPLL_MODE_SHIFT; 

  03c00	e59d2008	 ldr         r2, [sp, #8]
  03c04	e59f351c	 ldr         r3, [pc, #0x51C]
  03c08	e5933010	 ldr         r3, [r3, #0x10]
  03c0c	e1823003	 orr         r3, r2, r3
  03c10	e58d3008	 str         r3, [sp, #8]
  03c14		 |$LN23@ClockHwUpd@3|

; 967  :                 }
; 968  : 
; 969  :             if (ffMask & DPLL_UPDATE_AUTOIDLEMODE)

  03c14	e59d3020	 ldr         r3, [sp, #0x20]
  03c18	e3130010	 tst         r3, #0x10
  03c1c	0a000008	 beq         |$LN22@ClockHwUpd@3|

; 970  :                 {
; 971  :                 cm_autoidle_pll &= ~DPLL_AUTOIDLE_MASK;

  03c20	e59d2000	 ldr         r2, [sp]
  03c24	e3e03007	 mvn         r3, #7
  03c28	e0023003	 and         r3, r2, r3
  03c2c	e58d3000	 str         r3, [sp]

; 972  :                 cm_autoidle_pll |= _dpll_2.dpllAutoidleState << DPLL_AUTOIDLE_SHIFT;

  03c30	e59d2000	 ldr         r2, [sp]
  03c34	e59f34ec	 ldr         r3, [pc, #0x4EC]
  03c38	e5933020	 ldr         r3, [r3, #0x20]
  03c3c	e1823003	 orr         r3, r2, r3
  03c40	e58d3000	 str         r3, [sp]
  03c44		 |$LN22@ClockHwUpd@3|

; 973  :                 }
; 974  :             
; 975  :             OUTREG32(&g_pPrcmCm->pOMAP_IVA2_CM->CM_CLKEN_PLL_IVA2, cm_clken_pll);

  03c44	e59f34c8	 ldr         r3, [pc, #0x4C8]
  03c48	e5933000	 ldr         r3, [r3]
  03c4c	e2833020	 add         r3, r3, #0x20
  03c50	e5933000	 ldr         r3, [r3]
  03c54	e2832004	 add         r2, r3, #4
  03c58	e59d3008	 ldr         r3, [sp, #8]
  03c5c	e5823000	 str         r3, [r2]

; 976  :             OUTREG32(&g_pPrcmCm->pOMAP_IVA2_CM->CM_AUTOIDLE_PLL_IVA2, cm_autoidle_pll);

  03c60	e59f34ac	 ldr         r3, [pc, #0x4AC]
  03c64	e5933000	 ldr         r3, [r3]
  03c68	e2833020	 add         r3, r3, #0x20
  03c6c	e5933000	 ldr         r3, [r3]
  03c70	e2832034	 add         r2, r3, #0x34
  03c74	e59d3000	 ldr         r3, [sp]
  03c78	e5823000	 str         r3, [r2]

; 977  :             break;

  03c7c	ea00011d	 b           |$LN34@ClockHwUpd@3|
  03c80		 |$LN21@ClockHwUpd@3|

; 978  : 
; 979  :         case kDPLL3:
; 980  :             cm_clken_pll = INREG32(&g_pPrcmCm->pOMAP_CLOCK_CONTROL_CM->CM_CLKEN_PLL);

  03c80	e59f348c	 ldr         r3, [pc, #0x48C]
  03c84	e5933000	 ldr         r3, [r3]
  03c88	e2833034	 add         r3, r3, #0x34
  03c8c	e5933000	 ldr         r3, [r3]
  03c90	e5933000	 ldr         r3, [r3]
  03c94	e58d3008	 str         r3, [sp, #8]

; 981  :             cm_autoidle_pll = INREG32(&g_pPrcmCm->pOMAP_CLOCK_CONTROL_CM->CM_AUTOIDLE_PLL);

  03c98	e59f3474	 ldr         r3, [pc, #0x474]
  03c9c	e5933000	 ldr         r3, [r3]
  03ca0	e2833034	 add         r3, r3, #0x34
  03ca4	e5933000	 ldr         r3, [r3]
  03ca8	e2833030	 add         r3, r3, #0x30
  03cac	e5933000	 ldr         r3, [r3]
  03cb0	e58d3000	 str         r3, [sp]

; 982  :             if (ffMask & DPLL_UPDATE_LPMODE)

  03cb4	e59d3020	 ldr         r3, [sp, #0x20]
  03cb8	e3130002	 tst         r3, #2
  03cbc	0a000009	 beq         |$LN20@ClockHwUpd@3|

; 983  :                 {
; 984  :                 cm_clken_pll &= ~EN_DPLL_LPMODE;

  03cc0	e59d2008	 ldr         r2, [sp, #8]
  03cc4	e3e03b01	 mvn         r3, #1, 22
  03cc8	e0023003	 and         r3, r2, r3
  03ccc	e58d3008	 str         r3, [sp, #8]

; 985  :                 cm_clken_pll |= _dpll_3.lowPowerEnabled << EN_DPLL_LPMODE_SHIFT;

  03cd0	e59f344c	 ldr         r3, [pc, #0x44C]
  03cd4	e5933000	 ldr         r3, [r3]
  03cd8	e1a02503	 mov         r2, r3, lsl #10
  03cdc	e59d3008	 ldr         r3, [sp, #8]
  03ce0	e1833002	 orr         r3, r3, r2
  03ce4	e58d3008	 str         r3, [sp, #8]
  03ce8		 |$LN20@ClockHwUpd@3|

; 986  :                 }
; 987  : 
; 988  :             if (ffMask & DPLL_UPDATE_DRIFTGUARD)

  03ce8	e59d3020	 ldr         r3, [sp, #0x20]
  03cec	e3130004	 tst         r3, #4
  03cf0	0a000009	 beq         |$LN19@ClockHwUpd@3|

; 989  :                 {
; 990  :                 cm_clken_pll &= ~EN_DPLL_DRIFTGUARD;

  03cf4	e59d2008	 ldr         r2, [sp, #8]
  03cf8	e3e03008	 mvn         r3, #8
  03cfc	e0023003	 and         r3, r2, r3
  03d00	e58d3008	 str         r3, [sp, #8]

; 991  :                 cm_clken_pll |= _dpll_3.driftGuard << EN_DPLL_DRIFTGUARD_SHIFT;

  03d04	e59f3418	 ldr         r3, [pc, #0x418]
  03d08	e593300c	 ldr         r3, [r3, #0xC]
  03d0c	e1a02183	 mov         r2, r3, lsl #3
  03d10	e59d3008	 ldr         r3, [sp, #8]
  03d14	e1833002	 orr         r3, r3, r2
  03d18	e58d3008	 str         r3, [sp, #8]
  03d1c		 |$LN19@ClockHwUpd@3|

; 992  :                 }
; 993  : 
; 994  :             if (ffMask & DPLL_UPDATE_RAMPTIME)

  03d1c	e59d3020	 ldr         r3, [sp, #0x20]
  03d20	e3130008	 tst         r3, #8
  03d24	0a000009	 beq         |$LN18@ClockHwUpd@3|

; 995  :                 {
; 996  :                 cm_clken_pll &= ~DPLL_RAMPTIME_MASK;

  03d28	e59d2008	 ldr         r2, [sp, #8]
  03d2c	e3e03c03	 mvn         r3, #3, 24
  03d30	e0023003	 and         r3, r2, r3
  03d34	e58d3008	 str         r3, [sp, #8]

; 997  :                 cm_clken_pll |= _dpll_3.rampTime << DPLL_RAMPTIME_SHIFT;

  03d38	e59f33e4	 ldr         r3, [pc, #0x3E4]
  03d3c	e5933004	 ldr         r3, [r3, #4]
  03d40	e1a02403	 mov         r2, r3, lsl #8
  03d44	e59d3008	 ldr         r3, [sp, #8]
  03d48	e1833002	 orr         r3, r3, r2
  03d4c	e58d3008	 str         r3, [sp, #8]
  03d50		 |$LN18@ClockHwUpd@3|

; 998  :                 }
; 999  : 
; 1000 :             if (ffMask & DPLL_UPDATE_DPLLMODE)

  03d50	e59d3020	 ldr         r3, [sp, #0x20]
  03d54	e3130001	 tst         r3, #1
  03d58	0a000008	 beq         |$LN17@ClockHwUpd@3|

; 1001 :                 {
; 1002 :                 cm_clken_pll &= ~DPLL_MODE_MASK;

  03d5c	e59d2008	 ldr         r2, [sp, #8]
  03d60	e3e03007	 mvn         r3, #7
  03d64	e0023003	 and         r3, r2, r3
  03d68	e58d3008	 str         r3, [sp, #8]

; 1003 :                 cm_clken_pll |= _dpll_3.dpllMode << DPLL_MODE_SHIFT; 

  03d6c	e59d2008	 ldr         r2, [sp, #8]
  03d70	e59f33ac	 ldr         r3, [pc, #0x3AC]
  03d74	e5933010	 ldr         r3, [r3, #0x10]
  03d78	e1823003	 orr         r3, r2, r3
  03d7c	e58d3008	 str         r3, [sp, #8]
  03d80		 |$LN17@ClockHwUpd@3|

; 1004 :                 }
; 1005 : 
; 1006 :             if (ffMask & DPLL_UPDATE_AUTOIDLEMODE)

  03d80	e59d3020	 ldr         r3, [sp, #0x20]
  03d84	e3130010	 tst         r3, #0x10
  03d88	0a000008	 beq         |$LN16@ClockHwUpd@3|

; 1007 :                 {
; 1008 :                 cm_autoidle_pll &= ~DPLL_AUTOIDLE_MASK;

  03d8c	e59d2000	 ldr         r2, [sp]
  03d90	e3e03007	 mvn         r3, #7
  03d94	e0023003	 and         r3, r2, r3
  03d98	e58d3000	 str         r3, [sp]

; 1009 :                 cm_autoidle_pll |= _dpll_3.dpllAutoidleState << DPLL_AUTOIDLE_SHIFT;

  03d9c	e59d2000	 ldr         r2, [sp]
  03da0	e59f337c	 ldr         r3, [pc, #0x37C]
  03da4	e5933020	 ldr         r3, [r3, #0x20]
  03da8	e1823003	 orr         r3, r2, r3
  03dac	e58d3000	 str         r3, [sp]
  03db0		 |$LN16@ClockHwUpd@3|

; 1010 :                 }
; 1011 : 
; 1012 :             OUTREG32(&g_pPrcmCm->pOMAP_CLOCK_CONTROL_CM->CM_CLKEN_PLL, cm_clken_pll);

  03db0	e59f335c	 ldr         r3, [pc, #0x35C]
  03db4	e5933000	 ldr         r3, [r3]
  03db8	e2833034	 add         r3, r3, #0x34
  03dbc	e5932000	 ldr         r2, [r3]
  03dc0	e59d3008	 ldr         r3, [sp, #8]
  03dc4	e5823000	 str         r3, [r2]

; 1013 :             OUTSYSREG32(OMAP_PRCM_CLOCK_CONTROL_CM_REGS, CM_AUTOIDLE_PLL, cm_autoidle_pll);

  03dc8	e59d2000	 ldr         r2, [sp]
  03dcc	e3a01030	 mov         r1, #0x30
  03dd0	e3a00312	 mov         r0, #0x12, 6
  03dd4	e3800c4d	 orr         r0, r0, #0x4D, 24
  03dd8	eb000000	 bl          OutShadowReg32

; 1014 : 
; 1015 :             // Save modifications to scratchpad register as well
; 1016 :             OUTREG32(&g_pPrcmRestore->CM_CLKEN_PLL, cm_clken_pll);

  03ddc	e59f3334	 ldr         r3, [pc, #0x334]
  03de0	e5933000	 ldr         r3, [r3]
  03de4	e2832010	 add         r2, r3, #0x10
  03de8	e59d3008	 ldr         r3, [sp, #8]
  03dec	e5823000	 str         r3, [r2]

; 1017 :             break;

  03df0	ea0000c0	 b           |$LN34@ClockHwUpd@3|
  03df4		 |$LN15@ClockHwUpd@3|

; 1018 : 
; 1019 :         case kDPLL4:
; 1020 :             cm_clken_pll = INREG32(&g_pPrcmCm->pOMAP_CLOCK_CONTROL_CM->CM_CLKEN_PLL);

  03df4	e59f3318	 ldr         r3, [pc, #0x318]
  03df8	e5933000	 ldr         r3, [r3]
  03dfc	e2833034	 add         r3, r3, #0x34
  03e00	e5933000	 ldr         r3, [r3]
  03e04	e5933000	 ldr         r3, [r3]
  03e08	e58d3008	 str         r3, [sp, #8]

; 1021 :             cm_autoidle_pll = INREG32(&g_pPrcmCm->pOMAP_CLOCK_CONTROL_CM->CM_AUTOIDLE_PLL);

  03e0c	e59f3300	 ldr         r3, [pc, #0x300]
  03e10	e5933000	 ldr         r3, [r3]
  03e14	e2833034	 add         r3, r3, #0x34
  03e18	e5933000	 ldr         r3, [r3]
  03e1c	e2833030	 add         r3, r3, #0x30
  03e20	e5933000	 ldr         r3, [r3]
  03e24	e58d3000	 str         r3, [sp]

; 1022 :             if (ffMask & DPLL_UPDATE_LPMODE)

  03e28	e59d3020	 ldr         r3, [sp, #0x20]
  03e2c	e3130002	 tst         r3, #2
  03e30	0a00000a	 beq         |$LN14@ClockHwUpd@3|

; 1023 :                 {
; 1024 :                 cm_clken_pll &= ~(EN_DPLL_LPMODE << DPLL_PER_MODE_SHIFT);

  03e34	e59d2008	 ldr         r2, [sp, #8]
  03e38	e3e03301	 mvn         r3, #1, 6
  03e3c	e0023003	 and         r3, r2, r3
  03e40	e58d3008	 str         r3, [sp, #8]

; 1025 :                 cm_clken_pll |= (_dpll_4.lowPowerEnabled << EN_DPLL_LPMODE_SHIFT) << DPLL_PER_MODE_SHIFT;

  03e44	e59f32d0	 ldr         r3, [pc, #0x2D0]
  03e48	e5933000	 ldr         r3, [r3]
  03e4c	e1a03503	 mov         r3, r3, lsl #10
  03e50	e1a02803	 mov         r2, r3, lsl #16
  03e54	e59d3008	 ldr         r3, [sp, #8]
  03e58	e1833002	 orr         r3, r3, r2
  03e5c	e58d3008	 str         r3, [sp, #8]
  03e60		 |$LN14@ClockHwUpd@3|

; 1026 :                 }
; 1027 : 
; 1028 :             if (ffMask & DPLL_UPDATE_DRIFTGUARD)

  03e60	e59d3020	 ldr         r3, [sp, #0x20]
  03e64	e3130004	 tst         r3, #4
  03e68	0a00000a	 beq         |$LN13@ClockHwUpd@3|

; 1029 :                 {
; 1030 :                 cm_clken_pll &= ~(EN_DPLL_DRIFTGUARD << DPLL_PER_MODE_SHIFT);

  03e6c	e59d2008	 ldr         r2, [sp, #8]
  03e70	e3e03702	 mvn         r3, #2, 14
  03e74	e0023003	 and         r3, r2, r3
  03e78	e58d3008	 str         r3, [sp, #8]

; 1031 :                 cm_clken_pll |= (_dpll_4.driftGuard << EN_DPLL_DRIFTGUARD_SHIFT) << DPLL_PER_MODE_SHIFT;                

  03e7c	e59f3298	 ldr         r3, [pc, #0x298]
  03e80	e593300c	 ldr         r3, [r3, #0xC]
  03e84	e1a03183	 mov         r3, r3, lsl #3
  03e88	e1a02803	 mov         r2, r3, lsl #16
  03e8c	e59d3008	 ldr         r3, [sp, #8]
  03e90	e1833002	 orr         r3, r3, r2
  03e94	e58d3008	 str         r3, [sp, #8]
  03e98		 |$LN13@ClockHwUpd@3|

; 1032 :                 }
; 1033 : 
; 1034 :             if (g_dwCpuFamily != CPU_FAMILY_DM37XX)

  03e98	e59f3280	 ldr         r3, [pc, #0x280]
  03e9c	e5933000	 ldr         r3, [r3]
  03ea0	e3530001	 cmp         r3, #1
  03ea4	0a00000d	 beq         |$LN12@ClockHwUpd@3|

; 1035 :             if (ffMask & DPLL_UPDATE_RAMPTIME)

  03ea8	e59d3020	 ldr         r3, [sp, #0x20]
  03eac	e3130008	 tst         r3, #8
  03eb0	0a00000a	 beq         |$LN11@ClockHwUpd@3|

; 1036 :                 {
; 1037 :                 cm_clken_pll &= ~(DPLL_RAMPTIME_MASK << DPLL_PER_MODE_SHIFT);

  03eb4	e59d2008	 ldr         r2, [sp, #8]
  03eb8	e3e03403	 mvn         r3, #3, 8
  03ebc	e0023003	 and         r3, r2, r3
  03ec0	e58d3008	 str         r3, [sp, #8]

; 1038 :                 cm_clken_pll |= (_dpll_4.rampTime << DPLL_RAMPTIME_SHIFT) << DPLL_PER_MODE_SHIFT;                

  03ec4	e59f3250	 ldr         r3, [pc, #0x250]
  03ec8	e5933004	 ldr         r3, [r3, #4]
  03ecc	e1a03403	 mov         r3, r3, lsl #8
  03ed0	e1a02803	 mov         r2, r3, lsl #16
  03ed4	e59d3008	 ldr         r3, [sp, #8]
  03ed8	e1833002	 orr         r3, r3, r2
  03edc	e58d3008	 str         r3, [sp, #8]
  03ee0		 |$LN11@ClockHwUpd@3|
  03ee0		 |$LN12@ClockHwUpd@3|

; 1039 :                 }
; 1040 : 
; 1041 :             if (ffMask & DPLL_UPDATE_DPLLMODE)

  03ee0	e59d3020	 ldr         r3, [sp, #0x20]
  03ee4	e3130001	 tst         r3, #1
  03ee8	0a000009	 beq         |$LN10@ClockHwUpd@3|

; 1042 :                 {
; 1043 :                 cm_clken_pll &= ~(DPLL_MODE_MASK << DPLL_PER_MODE_SHIFT);

  03eec	e59d2008	 ldr         r2, [sp, #8]
  03ef0	e3e03807	 mvn         r3, #7, 16
  03ef4	e0023003	 and         r3, r2, r3
  03ef8	e58d3008	 str         r3, [sp, #8]

; 1044 :                 cm_clken_pll |= (_dpll_4.dpllMode << DPLL_MODE_SHIFT) << DPLL_PER_MODE_SHIFT; 

  03efc	e59f3218	 ldr         r3, [pc, #0x218]
  03f00	e5933010	 ldr         r3, [r3, #0x10]
  03f04	e1a02803	 mov         r2, r3, lsl #16
  03f08	e59d3008	 ldr         r3, [sp, #8]
  03f0c	e1833002	 orr         r3, r3, r2
  03f10	e58d3008	 str         r3, [sp, #8]
  03f14		 |$LN10@ClockHwUpd@3|

; 1045 :                 }
; 1046 : 
; 1047 :             if (ffMask & DPLL_UPDATE_AUTOIDLEMODE)

  03f14	e59d3020	 ldr         r3, [sp, #0x20]
  03f18	e3130010	 tst         r3, #0x10
  03f1c	0a000009	 beq         |$LN9@ClockHwUpd@3|

; 1048 :                 {
; 1049 :                 cm_autoidle_pll &= ~(DPLL_AUTOIDLE_MASK << DPLL_PER_IDLE_SHIFT);

  03f20	e59d2000	 ldr         r2, [sp]
  03f24	e3e03038	 mvn         r3, #0x38
  03f28	e0023003	 and         r3, r2, r3
  03f2c	e58d3000	 str         r3, [sp]

; 1050 :                 cm_autoidle_pll |= (_dpll_4.dpllAutoidleState << DPLL_AUTOIDLE_SHIFT) << DPLL_PER_IDLE_SHIFT;

  03f30	e59f31e4	 ldr         r3, [pc, #0x1E4]
  03f34	e5933020	 ldr         r3, [r3, #0x20]
  03f38	e1a02183	 mov         r2, r3, lsl #3
  03f3c	e59d3000	 ldr         r3, [sp]
  03f40	e1833002	 orr         r3, r3, r2
  03f44	e58d3000	 str         r3, [sp]
  03f48		 |$LN9@ClockHwUpd@3|

; 1051 :                 }
; 1052 : 
; 1053 :             OUTREG32(&g_pPrcmCm->pOMAP_CLOCK_CONTROL_CM->CM_CLKEN_PLL, cm_clken_pll);

  03f48	e59f31c4	 ldr         r3, [pc, #0x1C4]
  03f4c	e5933000	 ldr         r3, [r3]
  03f50	e2833034	 add         r3, r3, #0x34
  03f54	e5932000	 ldr         r2, [r3]
  03f58	e59d3008	 ldr         r3, [sp, #8]
  03f5c	e5823000	 str         r3, [r2]

; 1054 :             OUTSYSREG32(OMAP_PRCM_CLOCK_CONTROL_CM_REGS, CM_AUTOIDLE_PLL, cm_autoidle_pll);

  03f60	e59d2000	 ldr         r2, [sp]
  03f64	e3a01030	 mov         r1, #0x30
  03f68	e3a00312	 mov         r0, #0x12, 6
  03f6c	e3800c4d	 orr         r0, r0, #0x4D, 24
  03f70	eb000000	 bl          OutShadowReg32

; 1055 : 
; 1056 :             // Save modifications to scratchpad register as well
; 1057 :             OUTREG32(&g_pPrcmRestore->CM_CLKEN_PLL, cm_clken_pll);

  03f74	e59f319c	 ldr         r3, [pc, #0x19C]
  03f78	e5933000	 ldr         r3, [r3]
  03f7c	e2832010	 add         r2, r3, #0x10
  03f80	e59d3008	 ldr         r3, [sp, #8]
  03f84	e5823000	 str         r3, [r2]

; 1058 :             break;

  03f88	ea00005a	 b           |$LN34@ClockHwUpd@3|
  03f8c		 |$LN8@ClockHwUpd@3|

; 1059 : 
; 1060 :         case kDPLL5:
; 1061 :             cm_clken_pll = INREG32(&g_pPrcmCm->pOMAP_CLOCK_CONTROL_CM->CM_CLKEN2_PLL);

  03f8c	e59f3180	 ldr         r3, [pc, #0x180]
  03f90	e5933000	 ldr         r3, [r3]
  03f94	e2833034	 add         r3, r3, #0x34
  03f98	e5933000	 ldr         r3, [r3]
  03f9c	e2833004	 add         r3, r3, #4
  03fa0	e5933000	 ldr         r3, [r3]
  03fa4	e58d3008	 str         r3, [sp, #8]

; 1062 :             cm_autoidle_pll = INREG32(&g_pPrcmCm->pOMAP_CLOCK_CONTROL_CM->CM_AUTOIDLE2_PLL);

  03fa8	e59f3164	 ldr         r3, [pc, #0x164]
  03fac	e5933000	 ldr         r3, [r3]
  03fb0	e2833034	 add         r3, r3, #0x34
  03fb4	e5933000	 ldr         r3, [r3]
  03fb8	e2833034	 add         r3, r3, #0x34
  03fbc	e5933000	 ldr         r3, [r3]
  03fc0	e58d3000	 str         r3, [sp]

; 1063 :             if (ffMask & DPLL_UPDATE_LPMODE)

  03fc4	e59d3020	 ldr         r3, [sp, #0x20]
  03fc8	e3130002	 tst         r3, #2
  03fcc	0a000009	 beq         |$LN7@ClockHwUpd@3|

; 1064 :                 {
; 1065 :                 cm_clken_pll &= ~EN_DPLL_LPMODE;

  03fd0	e59d2008	 ldr         r2, [sp, #8]
  03fd4	e3e03b01	 mvn         r3, #1, 22
  03fd8	e0023003	 and         r3, r2, r3
  03fdc	e58d3008	 str         r3, [sp, #8]

; 1066 :                 cm_clken_pll |= _dpll_5.lowPowerEnabled << EN_DPLL_LPMODE_SHIFT;

  03fe0	e59f3128	 ldr         r3, [pc, #0x128]
  03fe4	e5933000	 ldr         r3, [r3]
  03fe8	e1a02503	 mov         r2, r3, lsl #10
  03fec	e59d3008	 ldr         r3, [sp, #8]
  03ff0	e1833002	 orr         r3, r3, r2
  03ff4	e58d3008	 str         r3, [sp, #8]
  03ff8		 |$LN7@ClockHwUpd@3|

; 1067 :                 }
; 1068 : 
; 1069 :             if (ffMask & DPLL_UPDATE_DRIFTGUARD)

  03ff8	e59d3020	 ldr         r3, [sp, #0x20]
  03ffc	e3130004	 tst         r3, #4
  04000	0a000009	 beq         |$LN6@ClockHwUpd@3|

; 1070 :                 {
; 1071 :                 cm_clken_pll &= ~EN_DPLL_DRIFTGUARD;

  04004	e59d2008	 ldr         r2, [sp, #8]
  04008	e3e03008	 mvn         r3, #8
  0400c	e0023003	 and         r3, r2, r3
  04010	e58d3008	 str         r3, [sp, #8]

; 1072 :                 cm_clken_pll |= _dpll_5.driftGuard << EN_DPLL_DRIFTGUARD_SHIFT;                

  04014	e59f30f4	 ldr         r3, [pc, #0xF4]
  04018	e593300c	 ldr         r3, [r3, #0xC]
  0401c	e1a02183	 mov         r2, r3, lsl #3
  04020	e59d3008	 ldr         r3, [sp, #8]
  04024	e1833002	 orr         r3, r3, r2
  04028	e58d3008	 str         r3, [sp, #8]
  0402c		 |$LN6@ClockHwUpd@3|

; 1073 :                 }
; 1074 : 
; 1075 :             if (ffMask & DPLL_UPDATE_RAMPTIME)

  0402c	e59d3020	 ldr         r3, [sp, #0x20]
  04030	e3130008	 tst         r3, #8
  04034	0a000009	 beq         |$LN5@ClockHwUpd@3|

; 1076 :                 {
; 1077 :                 cm_clken_pll &= ~DPLL_RAMPTIME_MASK;

  04038	e59d2008	 ldr         r2, [sp, #8]
  0403c	e3e03c03	 mvn         r3, #3, 24
  04040	e0023003	 and         r3, r2, r3
  04044	e58d3008	 str         r3, [sp, #8]

; 1078 :                 cm_clken_pll |= _dpll_5.rampTime << DPLL_RAMPTIME_SHIFT;                

  04048	e59f30c0	 ldr         r3, [pc, #0xC0]
  0404c	e5933004	 ldr         r3, [r3, #4]
  04050	e1a02403	 mov         r2, r3, lsl #8
  04054	e59d3008	 ldr         r3, [sp, #8]
  04058	e1833002	 orr         r3, r3, r2
  0405c	e58d3008	 str         r3, [sp, #8]
  04060		 |$LN5@ClockHwUpd@3|

; 1079 :                 }
; 1080 : 
; 1081 :             if (ffMask & DPLL_UPDATE_DPLLMODE)

  04060	e59d3020	 ldr         r3, [sp, #0x20]
  04064	e3130001	 tst         r3, #1
  04068	0a000008	 beq         |$LN4@ClockHwUpd@3|

; 1082 :                 {
; 1083 :                 cm_clken_pll &= ~DPLL_MODE_MASK;

  0406c	e59d2008	 ldr         r2, [sp, #8]
  04070	e3e03007	 mvn         r3, #7
  04074	e0023003	 and         r3, r2, r3
  04078	e58d3008	 str         r3, [sp, #8]

; 1084 :                 cm_clken_pll |= _dpll_5.dpllMode << DPLL_MODE_SHIFT; 

  0407c	e59d2008	 ldr         r2, [sp, #8]
  04080	e59f3088	 ldr         r3, [pc, #0x88]
  04084	e5933010	 ldr         r3, [r3, #0x10]
  04088	e1823003	 orr         r3, r2, r3
  0408c	e58d3008	 str         r3, [sp, #8]
  04090		 |$LN4@ClockHwUpd@3|

; 1085 :                 }
; 1086 : 
; 1087 :             if (ffMask & DPLL_UPDATE_AUTOIDLEMODE)

  04090	e59d3020	 ldr         r3, [sp, #0x20]
  04094	e3130010	 tst         r3, #0x10
  04098	0a000008	 beq         |$LN3@ClockHwUpd@3|

; 1088 :                 {
; 1089 :                 cm_autoidle_pll &= ~DPLL_AUTOIDLE_MASK;

  0409c	e59d2000	 ldr         r2, [sp]
  040a0	e3e03007	 mvn         r3, #7
  040a4	e0023003	 and         r3, r2, r3
  040a8	e58d3000	 str         r3, [sp]

; 1090 :                 cm_autoidle_pll |= _dpll_5.dpllAutoidleState << DPLL_AUTOIDLE_SHIFT;

  040ac	e59d2000	 ldr         r2, [sp]
  040b0	e59f3058	 ldr         r3, [pc, #0x58]
  040b4	e5933020	 ldr         r3, [r3, #0x20]
  040b8	e1823003	 orr         r3, r2, r3
  040bc	e58d3000	 str         r3, [sp]
  040c0		 |$LN3@ClockHwUpd@3|

; 1091 :                 }
; 1092 :             
; 1093 :             OUTSYSREG32(OMAP_PRCM_CLOCK_CONTROL_CM_REGS, CM_CLKEN2_PLL, cm_clken_pll);

  040c0	e59d2008	 ldr         r2, [sp, #8]
  040c4	e3a01004	 mov         r1, #4
  040c8	e3a00312	 mov         r0, #0x12, 6
  040cc	e3800c4d	 orr         r0, r0, #0x4D, 24
  040d0	eb000000	 bl          OutShadowReg32

; 1094 : 
; 1095 :             // CM_AUTOIDLE_PLL is shadowed for CORE OFF support, so OUTSYSREG32 is used
; 1096 :             // instead of OUTREG32
; 1097 :             OUTSYSREG32(OMAP_PRCM_CLOCK_CONTROL_CM_REGS, CM_AUTOIDLE2_PLL, cm_autoidle_pll);

  040d4	e59d2000	 ldr         r2, [sp]
  040d8	e3a01034	 mov         r1, #0x34
  040dc	e3a00312	 mov         r0, #0x12, 6
  040e0	e3800c4d	 orr         r0, r0, #0x4D, 24
  040e4	eb000000	 bl          OutShadowReg32

; 1098 : 
; 1099 :             break;

  040e8	ea000002	 b           |$LN34@ClockHwUpd@3|
  040ec		 |$LN2@ClockHwUpd@3|

; 1100 : 
; 1101 :         case kDPLL_EXT:
; 1102 :             break;

  040ec	ea000001	 b           |$LN34@ClockHwUpd@3|
  040f0		 |$LN1@ClockHwUpd@3|

; 1103 : 
; 1104 :         default:
; 1105 :             rc = FALSE;

  040f0	e3a03000	 mov         r3, #0
  040f4	e58d3004	 str         r3, [sp, #4]
  040f8		 |$LN34@ClockHwUpd@3|

; 1106 :         }
; 1107 : 
; 1108 :     return rc;

  040f8	e59d3004	 ldr         r3, [sp, #4]
  040fc	e58d300c	 str         r3, [sp, #0xC]

; 1109 : }

  04100	e59d000c	 ldr         r0, [sp, #0xC]
  04104	e28dd014	 add         sp, sp, #0x14
  04108	e89d6000	 ldmia       sp, {sp, lr}
  0410c	e12fff1e	 bx          lr
  04110		 |$LN49@ClockHwUpd@3|
  04110		 |$LN50@ClockHwUpd@3|
  04110	00000000	 DCD         |_dpll_5|
  04114		 |$LN51@ClockHwUpd@3|
  04114	00000000	 DCD         |g_pPrcmCm|
  04118		 |$LN52@ClockHwUpd@3|
  04118	00000000	 DCD         |g_pPrcmRestore|
  0411c		 |$LN53@ClockHwUpd@3|
  0411c	00000000	 DCD         |_dpll_4|
  04120		 |$LN54@ClockHwUpd@3|
  04120	00000000	 DCD         |g_dwCpuFamily|
  04124		 |$LN55@ClockHwUpd@3|
  04124	00000000	 DCD         |_dpll_3|
  04128		 |$LN56@ClockHwUpd@3|
  04128	00000000	 DCD         |_dpll_2|
  0412c		 |$LN57@ClockHwUpd@3|
  0412c	00000000	 DCD         |_dpll_1|
  04130		 |$M49644|

			 ENDP  ; |_ClockHwUpdateDpllState|

	EXPORT	|??_C@_1EE@PEIBGBP@?$AA?$CL?$AAP?$AAr?$AAc?$AAm?$AAC?$AAl?$AAo?$AAc?$AAk?$AAS?$AAe?$AAt?$AAD?$AAp?$AAl?$AAl?$AAF?$AAr?$AAe?$AAq?$AAu?$AAe?$AAn?$AAc?$AAy?$AA?$CI?$AA?$CJ?$AA?$DN?$AA?$CF?$AAd?$AA?$AN@| [ DATA ] ; `string'
	EXPORT	|??_C@_1IA@OGENNGBC@?$AA?$CL?$AAP?$AAr?$AAc?$AAm?$AAC?$AAl?$AAo?$AAc?$AAk?$AAS?$AAe?$AAt?$AAD?$AAp?$AAl?$AAl?$AAF?$AAr?$AAe?$AAq?$AAu?$AAe?$AAn?$AAc?$AAy?$AA?$CI?$AAd?$AAp?$AAl?$AAl?$AAI@| [ DATA ] ; `string'
	EXPORT	|PrcmClockSetDpllFrequency|

  00060			 AREA	 |.pdata|, PDATA
|$T49666| DCD	|$LN12@PrcmClockS@4|
	DCD	0x40006804

  00000			 AREA	 |.rdata|, DATA, READONLY
|??_C@_1EE@PEIBGBP@?$AA?$CL?$AAP?$AAr?$AAc?$AAm?$AAC?$AAl?$AAo?$AAc?$AAk?$AAS?$AAe?$AAt?$AAD?$AAp?$AAl?$AAl?$AAF?$AAr?$AAe?$AAq?$AAu?$AAe?$AAn?$AAc?$AAy?$AA?$CI?$AA?$CJ?$AA?$DN?$AA?$CF?$AAd?$AA?$AN@| DCB "+"
	DCB	0x0, "P", 0x0, "r", 0x0, "c", 0x0, "m", 0x0, "C", 0x0, "l"
	DCB	0x0, "o", 0x0, "c", 0x0, "k", 0x0, "S", 0x0, "e", 0x0, "t"
	DCB	0x0, "D", 0x0, "p", 0x0, "l", 0x0, "l", 0x0, "F", 0x0, "r"
	DCB	0x0, "e", 0x0, "q", 0x0, "u", 0x0, "e", 0x0, "n", 0x0, "c"
	DCB	0x0, "y", 0x0, "(", 0x0, ")", 0x0, "=", 0x0, "%", 0x0, "d"
	DCB	0x0, 0xd, 0x0, 0xa, 0x0, 0x0, 0x0	; `string'

  00000			 AREA	 |.rdata|, DATA, READONLY
|??_C@_1IA@OGENNGBC@?$AA?$CL?$AAP?$AAr?$AAc?$AAm?$AAC?$AAl?$AAo?$AAc?$AAk?$AAS?$AAe?$AAt?$AAD?$AAp?$AAl?$AAl?$AAF?$AAr?$AAe?$AAq?$AAu?$AAe?$AAn?$AAc?$AAy?$AA?$CI?$AAd?$AAp?$AAl?$AAl?$AAI@| DCB "+"
	DCB	0x0, "P", 0x0, "r", 0x0, "c", 0x0, "m", 0x0, "C", 0x0, "l"
	DCB	0x0, "o", 0x0, "c", 0x0, "k", 0x0, "S", 0x0, "e", 0x0, "t"
	DCB	0x0, "D", 0x0, "p", 0x0, "l", 0x0, "l", 0x0, "F", 0x0, "r"
	DCB	0x0, "e", 0x0, "q", 0x0, "u", 0x0, "e", 0x0, "n", 0x0, "c"
	DCB	0x0, "y", 0x0, "(", 0x0, "d", 0x0, "p", 0x0, "l", 0x0, "l"
	DCB	0x0, "I", 0x0, "d", 0x0, "=", 0x0, "%", 0x0, "d", 0x0, ","
	DCB	0x0, " ", 0x0, "m", 0x0, "=", 0x0, "%", 0x0, "d", 0x0, ","
	DCB	0x0, " ", 0x0, "n", 0x0, "=", 0x0, "%", 0x0, "d", 0x0, ","
	DCB	0x0, " ", 0x0, "f", 0x0, "r", 0x0, "e", 0x0, "q", 0x0, "S"
	DCB	0x0, "e", 0x0, "l", 0x0, "=", 0x0, "%", 0x0, "d", 0x0, ")"
	DCB	0x0, 0xd, 0x0, 0xa, 0x0, 0x0, 0x0	; `string'
; Function compile flags: /Odtp

  04130			 AREA	 |.text|, CODE, ARM

  04130		 |PrcmClockSetDpllFrequency| PROC

; 2020 : {

  04130		 |$LN12@PrcmClockS@4|
  04130	e1a0c00d	 mov         r12, sp
  04134	e92d000f	 stmdb       sp!, {r0 - r3}
  04138	e92d5000	 stmdb       sp!, {r12, lr}
  0413c	e24dd01c	 sub         sp, sp, #0x1C
  04140		 |$M49663|

; 2021 :     BOOL rc = FALSE;

  04140	e3a03000	 mov         r3, #0
  04144	e58d3004	 str         r3, [sp, #4]

; 2022 :     DpllState_t *pDpll;
; 2023 :     OALMSG(OAL_FUNC, (L"+PrcmClockSetDpllFrequency"
; 2024 :         L"(dpllId=%d, m=%d, n=%d, freqSel=%d)\r\n", 
; 2025 :         dpllId, m, n, freqSel
; 2026 :         ));

  04148	e59f3174	 ldr         r3, [pc, #0x174]
  0414c	e5933440	 ldr         r3, [r3, #0x440]
  04150	e3130004	 tst         r3, #4
  04154	0a000009	 beq         |$LN6@PrcmClockS@4|
  04158	e59d3030	 ldr         r3, [sp, #0x30]
  0415c	e58d3000	 str         r3, [sp]
  04160	e59d302c	 ldr         r3, [sp, #0x2C]
  04164	e59d2028	 ldr         r2, [sp, #0x28]
  04168	e59d1024	 ldr         r1, [sp, #0x24]
  0416c	e59f0158	 ldr         r0, [pc, #0x158]
  04170	eb000000	 bl          NKDbgPrintfW
  04174	e3a03001	 mov         r3, #1
  04178	e58d3014	 str         r3, [sp, #0x14]
  0417c	ea000001	 b           |$LN7@PrcmClockS@4|
  04180		 |$LN6@PrcmClockS@4|
  04180	e3a03000	 mov         r3, #0
  04184	e58d3014	 str         r3, [sp, #0x14]
  04188		 |$LN7@PrcmClockS@4|

; 2027 : 
; 2028 :     Lock(Mutex_DeviceClock);

  04188	e3a00000	 mov         r0, #0
  0418c	eb000000	 bl          Lock

; 2029 :     if (dpllId > kDPLL5) goto cleanUp;

  04190	e59d3024	 ldr         r3, [sp, #0x24]
  04194	e3530004	 cmp         r3, #4
  04198	9a000000	 bls         |$LN3@PrcmClockS@4|
  0419c	ea000033	 b           |$cleanUp$47993|
  041a0		 |$LN3@PrcmClockS@4|

; 2030 :     pDpll = s_DpllTable[dpllId].pDpllInfo;

  041a0	e59d1024	 ldr         r1, [sp, #0x24]
  041a4	e3a0300c	 mov         r3, #0xC
  041a8	e0020391	 mul         r2, r1, r3
  041ac	e59f3114	 ldr         r3, [pc, #0x114]
  041b0	e0833002	 add         r3, r3, r2
  041b4	e2833008	 add         r3, r3, #8
  041b8	e5933000	 ldr         r3, [r3]
  041bc	e58d3008	 str         r3, [sp, #8]

; 2031 : 
; 2032 :     // check if parameters are already set
; 2033 :     if (pDpll->freqSelection != freqSel ||
; 2034 :         pDpll->divisor != n             ||
; 2035 :         pDpll->multiplier != m          ||
; 2036 :         pDpll->outputDivisor != outputDivisor)

  041c0	e59d3008	 ldr         r3, [sp, #8]
  041c4	e2833008	 add         r3, r3, #8
  041c8	e5932000	 ldr         r2, [r3]
  041cc	e59d3030	 ldr         r3, [sp, #0x30]
  041d0	e1520003	 cmp         r2, r3
  041d4	1a000011	 bne         |$LN1@PrcmClockS@4|
  041d8	e59d3008	 ldr         r3, [sp, #8]
  041dc	e283301c	 add         r3, r3, #0x1C
  041e0	e5932000	 ldr         r2, [r3]
  041e4	e59d302c	 ldr         r3, [sp, #0x2C]
  041e8	e1520003	 cmp         r2, r3
  041ec	1a00000b	 bne         |$LN1@PrcmClockS@4|
  041f0	e59d3008	 ldr         r3, [sp, #8]
  041f4	e2833018	 add         r3, r3, #0x18
  041f8	e5932000	 ldr         r2, [r3]
  041fc	e59d3028	 ldr         r3, [sp, #0x28]
  04200	e1520003	 cmp         r2, r3
  04204	1a000005	 bne         |$LN1@PrcmClockS@4|
  04208	e59d3008	 ldr         r3, [sp, #8]
  0420c	e2833024	 add         r3, r3, #0x24
  04210	e5932000	 ldr         r2, [r3]
  04214	e59d3034	 ldr         r3, [sp, #0x34]
  04218	e1520003	 cmp         r2, r3
  0421c	0a000011	 beq         |$LN2@PrcmClockS@4|
  04220		 |$LN1@PrcmClockS@4|

; 2037 :         {
; 2038 :         // frequency info
; 2039 :         pDpll->freqSelection = freqSel;

  04220	e59d3008	 ldr         r3, [sp, #8]
  04224	e2832008	 add         r2, r3, #8
  04228	e59d3030	 ldr         r3, [sp, #0x30]
  0422c	e5823000	 str         r3, [r2]

; 2040 :         pDpll->divisor = n;

  04230	e59d3008	 ldr         r3, [sp, #8]
  04234	e283201c	 add         r2, r3, #0x1C
  04238	e59d302c	 ldr         r3, [sp, #0x2C]
  0423c	e5823000	 str         r3, [r2]

; 2041 :         pDpll->multiplier = m;

  04240	e59d3008	 ldr         r3, [sp, #8]
  04244	e2832018	 add         r2, r3, #0x18
  04248	e59d3028	 ldr         r3, [sp, #0x28]
  0424c	e5823000	 str         r3, [r2]

; 2042 :         pDpll->outputDivisor = outputDivisor;

  04250	e59d3008	 ldr         r3, [sp, #8]
  04254	e2832024	 add         r2, r3, #0x24
  04258	e59d3034	 ldr         r3, [sp, #0x34]
  0425c	e5823000	 str         r3, [r2]

; 2043 :     
; 2044 :         _ClockHwUpdateDpllFrequency(dpllId);

  04260	e59d0024	 ldr         r0, [sp, #0x24]
  04264	eb000000	 bl          _ClockHwUpdateDpllFrequency
  04268		 |$LN2@PrcmClockS@4|

; 2045 :         }
; 2046 : 
; 2047 :     rc = TRUE;

  04268	e3a03001	 mov         r3, #1
  0426c	e58d3004	 str         r3, [sp, #4]
  04270		 |$cleanUp$47993|

; 2048 :     
; 2049 : cleanUp:    
; 2050 :     Unlock(Mutex_DeviceClock);

  04270	e3a00000	 mov         r0, #0
  04274	eb000000	 bl          Unlock

; 2051 :     OALMSG(OAL_FUNC, (L"+PrcmClockSetDpllFrequency()=%d\r\n", rc));

  04278	e59f3044	 ldr         r3, [pc, #0x44]
  0427c	e5933440	 ldr         r3, [r3, #0x440]
  04280	e3130004	 tst         r3, #4
  04284	0a000005	 beq         |$LN8@PrcmClockS@4|
  04288	e59d1004	 ldr         r1, [sp, #4]
  0428c	e59f002c	 ldr         r0, [pc, #0x2C]
  04290	eb000000	 bl          NKDbgPrintfW
  04294	e3a03001	 mov         r3, #1
  04298	e58d3018	 str         r3, [sp, #0x18]
  0429c	ea000001	 b           |$LN9@PrcmClockS@4|
  042a0		 |$LN8@PrcmClockS@4|
  042a0	e3a03000	 mov         r3, #0
  042a4	e58d3018	 str         r3, [sp, #0x18]
  042a8		 |$LN9@PrcmClockS@4|

; 2052 :     return rc;

  042a8	e59d3004	 ldr         r3, [sp, #4]
  042ac	e58d3010	 str         r3, [sp, #0x10]

; 2053 : }    

  042b0	e59d0010	 ldr         r0, [sp, #0x10]
  042b4	e28dd01c	 add         sp, sp, #0x1C
  042b8	e89d6000	 ldmia       sp, {sp, lr}
  042bc	e12fff1e	 bx          lr
  042c0		 |$LN13@PrcmClockS@4|
  042c0		 |$LN14@PrcmClockS@4|
  042c0	00000000	 DCD         |??_C@_1EE@PEIBGBP@?$AA?$CL?$AAP?$AAr?$AAc?$AAm?$AAC?$AAl?$AAo?$AAc?$AAk?$AAS?$AAe?$AAt?$AAD?$AAp?$AAl?$AAl?$AAF?$AAr?$AAe?$AAq?$AAu?$AAe?$AAn?$AAc?$AAy?$AA?$CI?$AA?$CJ?$AA?$DN?$AA?$CF?$AAd?$AA?$AN@|
  042c4		 |$LN15@PrcmClockS@4|
  042c4	00000000	 DCD         |dpCurSettings|
  042c8		 |$LN16@PrcmClockS@4|
  042c8	00000000	 DCD         |s_DpllTable|
  042cc		 |$LN17@PrcmClockS@4|
  042cc	00000000	 DCD         |??_C@_1IA@OGENNGBC@?$AA?$CL?$AAP?$AAr?$AAc?$AAm?$AAC?$AAl?$AAo?$AAc?$AAk?$AAS?$AAe?$AAt?$AAD?$AAp?$AAl?$AAl?$AAF?$AAr?$AAe?$AAq?$AAu?$AAe?$AAn?$AAc?$AAy?$AA?$CI?$AAd?$AAp?$AAl?$AAl?$AAI@|
  042d0		 |$M49664|

			 ENDP  ; |PrcmClockSetDpllFrequency|

	EXPORT	|??_C@_1EM@DOKMKDJO@?$AA?$CL?$AAP?$AAr?$AAc?$AAm?$AAC?$AAl?$AAo?$AAc?$AAk?$AAS?$AAe?$AAt?$AAD?$AAp?$AAl?$AAl?$AAA?$AAu?$AAt?$AAo?$AAI?$AAd?$AAl?$AAe?$AAS?$AAt?$AAa?$AAt?$AAe?$AA?$CI?$AA?$CJ@| [ DATA ] ; `string'
	EXPORT	|??_C@_1IM@JIIHLGCG@?$AA?$CL?$AAP?$AAr?$AAc?$AAm?$AAC?$AAl?$AAo?$AAc?$AAk?$AAS?$AAe?$AAt?$AAD?$AAp?$AAl?$AAl?$AAA?$AAu?$AAt?$AAo?$AAI?$AAd?$AAl?$AAe?$AAS?$AAt?$AAa?$AAt?$AAe?$AA?$CI?$AAd@| [ DATA ] ; `string'
	EXPORT	|PrcmClockSetDpllAutoIdleState|

  00068			 AREA	 |.pdata|, PDATA
|$T49681| DCD	|$LN10@PrcmClockS@5|
	DCD	0x40004404

  00000			 AREA	 |.rdata|, DATA, READONLY
|??_C@_1EM@DOKMKDJO@?$AA?$CL?$AAP?$AAr?$AAc?$AAm?$AAC?$AAl?$AAo?$AAc?$AAk?$AAS?$AAe?$AAt?$AAD?$AAp?$AAl?$AAl?$AAA?$AAu?$AAt?$AAo?$AAI?$AAd?$AAl?$AAe?$AAS?$AAt?$AAa?$AAt?$AAe?$AA?$CI?$AA?$CJ@| DCB "+"
	DCB	0x0, "P", 0x0, "r", 0x0, "c", 0x0, "m", 0x0, "C", 0x0, "l"
	DCB	0x0, "o", 0x0, "c", 0x0, "k", 0x0, "S", 0x0, "e", 0x0, "t"
	DCB	0x0, "D", 0x0, "p", 0x0, "l", 0x0, "l", 0x0, "A", 0x0, "u"
	DCB	0x0, "t", 0x0, "o", 0x0, "I", 0x0, "d", 0x0, "l", 0x0, "e"
	DCB	0x0, "S", 0x0, "t", 0x0, "a", 0x0, "t", 0x0, "e", 0x0, "("
	DCB	0x0, ")", 0x0, "=", 0x0, "%", 0x0, "d", 0x0, 0xd, 0x0, 0xa
	DCB	0x0, 0x0, 0x0				; `string'

  00000			 AREA	 |.rdata|, DATA, READONLY
|??_C@_1IM@JIIHLGCG@?$AA?$CL?$AAP?$AAr?$AAc?$AAm?$AAC?$AAl?$AAo?$AAc?$AAk?$AAS?$AAe?$AAt?$AAD?$AAp?$AAl?$AAl?$AAA?$AAu?$AAt?$AAo?$AAI?$AAd?$AAl?$AAe?$AAS?$AAt?$AAa?$AAt?$AAe?$AA?$CI?$AAd@| DCB "+"
	DCB	0x0, "P", 0x0, "r", 0x0, "c", 0x0, "m", 0x0, "C", 0x0, "l"
	DCB	0x0, "o", 0x0, "c", 0x0, "k", 0x0, "S", 0x0, "e", 0x0, "t"
	DCB	0x0, "D", 0x0, "p", 0x0, "l", 0x0, "l", 0x0, "A", 0x0, "u"
	DCB	0x0, "t", 0x0, "o", 0x0, "I", 0x0, "d", 0x0, "l", 0x0, "e"
	DCB	0x0, "S", 0x0, "t", 0x0, "a", 0x0, "t", 0x0, "e", 0x0, "("
	DCB	0x0, "d", 0x0, "p", 0x0, "l", 0x0, "l", 0x0, "I", 0x0, "d"
	DCB	0x0, "=", 0x0, "%", 0x0, "d", 0x0, ",", 0x0, " ", 0x0, "d"
	DCB	0x0, "p", 0x0, "l", 0x0, "l", 0x0, "A", 0x0, "u", 0x0, "t"
	DCB	0x0, "o", 0x0, "i", 0x0, "d", 0x0, "l", 0x0, "e", 0x0, "S"
	DCB	0x0, "t", 0x0, "a", 0x0, "t", 0x0, "e", 0x0, "=", 0x0, "0"
	DCB	0x0, "x", 0x0, "%", 0x0, "0", 0x0, "8", 0x0, "X", 0x0, ")"
	DCB	0x0, 0xd, 0x0, 0xa, 0x0, 0x0, 0x0	; `string'
; Function compile flags: /Odtp

  042d0			 AREA	 |.text|, CODE, ARM

  042d0		 |PrcmClockSetDpllAutoIdleState| PROC

; 2061 : {

  042d0		 |$LN10@PrcmClockS@5|
  042d0	e1a0c00d	 mov         r12, sp
  042d4	e92d0003	 stmdb       sp!, {r0, r1}
  042d8	e92d5000	 stmdb       sp!, {r12, lr}
  042dc	e24dd018	 sub         sp, sp, #0x18
  042e0		 |$M49678|

; 2062 :     BOOL rc = FALSE;

  042e0	e3a03000	 mov         r3, #0
  042e4	e58d3000	 str         r3, [sp]

; 2063 :     DpllState_t *pDpll;
; 2064 :     OALMSG(OAL_FUNC, (L"+PrcmClockSetDpllAutoIdleState"
; 2065 :         L"(dpllId=%d, dpllAutoidleState=0x%08X)\r\n", 
; 2066 :         dpllId, dpllAutoidleState)
; 2067 :         );

  042e8	e59f30e4	 ldr         r3, [pc, #0xE4]
  042ec	e5933440	 ldr         r3, [r3, #0x440]
  042f0	e3130004	 tst         r3, #4
  042f4	0a000006	 beq         |$LN4@PrcmClockS@5|
  042f8	e59d2024	 ldr         r2, [sp, #0x24]
  042fc	e59d1020	 ldr         r1, [sp, #0x20]
  04300	e59f00d4	 ldr         r0, [pc, #0xD4]
  04304	eb000000	 bl          NKDbgPrintfW
  04308	e3a03001	 mov         r3, #1
  0430c	e58d300c	 str         r3, [sp, #0xC]
  04310	ea000001	 b           |$LN5@PrcmClockS@5|
  04314		 |$LN4@PrcmClockS@5|
  04314	e3a03000	 mov         r3, #0
  04318	e58d300c	 str         r3, [sp, #0xC]
  0431c		 |$LN5@PrcmClockS@5|

; 2068 : 
; 2069 :     if (dpllId > kVDD5) goto cleanUp;

  0431c	e59d3020	 ldr         r3, [sp, #0x20]
  04320	e3530004	 cmp         r3, #4
  04324	9a000000	 bls         |$LN1@PrcmClockS@5|
  04328	ea000016	 b           |$cleanUp$48008|
  0432c		 |$LN1@PrcmClockS@5|

; 2070 :     
; 2071 :     Lock(Mutex_DeviceClock);

  0432c	e3a00000	 mov         r0, #0
  04330	eb000000	 bl          Lock

; 2072 :     pDpll = s_DpllTable[dpllId].pDpllInfo;

  04334	e59d1020	 ldr         r1, [sp, #0x20]
  04338	e3a0300c	 mov         r3, #0xC
  0433c	e0020391	 mul         r2, r1, r3
  04340	e59f3090	 ldr         r3, [pc, #0x90]
  04344	e0833002	 add         r3, r3, r2
  04348	e2833008	 add         r3, r3, #8
  0434c	e5933000	 ldr         r3, [r3]
  04350	e58d3004	 str         r3, [sp, #4]

; 2073 :     pDpll->dpllAutoidleState = (dpllAutoidleState & DPLL_AUTOIDLE_MASK) >> DPLL_AUTOIDLE_SHIFT;

  04354	e59d3024	 ldr         r3, [sp, #0x24]
  04358	e2032007	 and         r2, r3, #7
  0435c	e59d3004	 ldr         r3, [sp, #4]
  04360	e2833020	 add         r3, r3, #0x20
  04364	e5832000	 str         r2, [r3]

; 2074 :     rc = _ClockHwUpdateDpllState(dpllId, DPLL_UPDATE_AUTOIDLEMODE);    

  04368	e3a01010	 mov         r1, #0x10
  0436c	e59d0020	 ldr         r0, [sp, #0x20]
  04370	eb000000	 bl          _ClockHwUpdateDpllState
  04374	e58d0010	 str         r0, [sp, #0x10]
  04378	e59d3010	 ldr         r3, [sp, #0x10]
  0437c	e58d3000	 str         r3, [sp]

; 2075 :     Unlock(Mutex_DeviceClock);

  04380	e3a00000	 mov         r0, #0
  04384	eb000000	 bl          Unlock
  04388		 |$cleanUp$48008|

; 2076 :     
; 2077 : cleanUp:    
; 2078 :     
; 2079 :     OALMSG(OAL_FUNC, (L"+PrcmClockSetDpllAutoIdleState()=%d\r\n", rc));

  04388	e59f3044	 ldr         r3, [pc, #0x44]
  0438c	e5933440	 ldr         r3, [r3, #0x440]
  04390	e3130004	 tst         r3, #4
  04394	0a000005	 beq         |$LN6@PrcmClockS@5|
  04398	e59d1000	 ldr         r1, [sp]
  0439c	e59f002c	 ldr         r0, [pc, #0x2C]
  043a0	eb000000	 bl          NKDbgPrintfW
  043a4	e3a03001	 mov         r3, #1
  043a8	e58d3014	 str         r3, [sp, #0x14]
  043ac	ea000001	 b           |$LN7@PrcmClockS@5|
  043b0		 |$LN6@PrcmClockS@5|
  043b0	e3a03000	 mov         r3, #0
  043b4	e58d3014	 str         r3, [sp, #0x14]
  043b8		 |$LN7@PrcmClockS@5|

; 2080 :     return rc;

  043b8	e59d3000	 ldr         r3, [sp]
  043bc	e58d3008	 str         r3, [sp, #8]

; 2081 : }

  043c0	e59d0008	 ldr         r0, [sp, #8]
  043c4	e28dd018	 add         sp, sp, #0x18
  043c8	e89d6000	 ldmia       sp, {sp, lr}
  043cc	e12fff1e	 bx          lr
  043d0		 |$LN11@PrcmClockS@5|
  043d0		 |$LN12@PrcmClockS@5|
  043d0	00000000	 DCD         |??_C@_1EM@DOKMKDJO@?$AA?$CL?$AAP?$AAr?$AAc?$AAm?$AAC?$AAl?$AAo?$AAc?$AAk?$AAS?$AAe?$AAt?$AAD?$AAp?$AAl?$AAl?$AAA?$AAu?$AAt?$AAo?$AAI?$AAd?$AAl?$AAe?$AAS?$AAt?$AAa?$AAt?$AAe?$AA?$CI?$AA?$CJ@|
  043d4		 |$LN13@PrcmClockS@5|
  043d4	00000000	 DCD         |dpCurSettings|
  043d8		 |$LN14@PrcmClockS@5|
  043d8	00000000	 DCD         |s_DpllTable|
  043dc		 |$LN15@PrcmClockS@5|
  043dc	00000000	 DCD         |??_C@_1IM@JIIHLGCG@?$AA?$CL?$AAP?$AAr?$AAc?$AAm?$AAC?$AAl?$AAo?$AAc?$AAk?$AAS?$AAe?$AAt?$AAD?$AAp?$AAl?$AAl?$AAA?$AAu?$AAt?$AAo?$AAI?$AAd?$AAl?$AAe?$AAS?$AAt?$AAa?$AAt?$AAe?$AA?$CI?$AAd@|
  043e0		 |$M49679|

			 ENDP  ; |PrcmClockSetDpllAutoIdleState|

	EXPORT	|PrcmClockSetExternalClockRequestMode|
	IMPORT	|g_pPrcmPrm|

  00070			 AREA	 |.pdata|, PDATA
|$T49692| DCD	|$LN5@PrcmClockS@6|
	DCD	0x40002b04
; Function compile flags: /Odtp

  043e0			 AREA	 |.text|, CODE, ARM

  043e0		 |PrcmClockSetExternalClockRequestMode| PROC

; 2088 : {    

  043e0		 |$LN5@PrcmClockS@6|
  043e0	e1a0c00d	 mov         r12, sp
  043e4	e92d0001	 stmdb       sp!, {r0}
  043e8	e92d5000	 stmdb       sp!, {r12, lr}
  043ec	e24dd008	 sub         sp, sp, #8
  043f0		 |$M49689|

; 2089 :     UINT val;
; 2090 :     
; 2091 :     // acquire sync handle   
; 2092 :     Lock(Mutex_Clock);

  043f0	e3a00001	 mov         r0, #1
  043f4	eb000000	 bl          Lock

; 2093 : 
; 2094 :     extClkReqMode &= AUTOEXTCLKMODE_MASK;

  043f8	e59d3010	 ldr         r3, [sp, #0x10]
  043fc	e2033018	 and         r3, r3, #0x18
  04400	e58d3010	 str         r3, [sp, #0x10]

; 2095 :     val = INREG32(&g_pPrcmPrm->pOMAP_GLOBAL_PRM->PRM_CLKSRC_CTRL) & ~AUTOEXTCLKMODE_MASK;

  04404	e59f307c	 ldr         r3, [pc, #0x7C]
  04408	e5933000	 ldr         r3, [r3]
  0440c	e283302c	 add         r3, r3, #0x2C
  04410	e5933000	 ldr         r3, [r3]
  04414	e2833070	 add         r3, r3, #0x70
  04418	e5932000	 ldr         r2, [r3]
  0441c	e3e03018	 mvn         r3, #0x18
  04420	e0023003	 and         r3, r2, r3
  04424	e58d3000	 str         r3, [sp]

; 2096 :     val |= extClkReqMode;

  04428	e59d2000	 ldr         r2, [sp]
  0442c	e59d3010	 ldr         r3, [sp, #0x10]
  04430	e1823003	 orr         r3, r2, r3
  04434	e58d3000	 str         r3, [sp]

; 2097 :     OUTREG32(&g_pPrcmPrm->pOMAP_GLOBAL_PRM->PRM_CLKSRC_CTRL, val);

  04438	e59f3048	 ldr         r3, [pc, #0x48]
  0443c	e5933000	 ldr         r3, [r3]
  04440	e283302c	 add         r3, r3, #0x2C
  04444	e5933000	 ldr         r3, [r3]
  04448	e2832070	 add         r2, r3, #0x70
  0444c	e59d3000	 ldr         r3, [sp]
  04450	e5823000	 str         r3, [r2]

; 2098 :     
; 2099 :     OUTREG32(&g_pPrcmRestore->PRM_CLKSRC_CTRL, val);

  04454	e59d2000	 ldr         r2, [sp]
  04458	e59f3024	 ldr         r3, [pc, #0x24]
  0445c	e5933000	 ldr         r3, [r3]
  04460	e5832000	 str         r2, [r3]

; 2100 :     
; 2101 :     // release sync handle    
; 2102 :     Unlock(Mutex_Clock);

  04464	e3a00001	 mov         r0, #1
  04468	eb000000	 bl          Unlock

; 2103 :     
; 2104 :     return TRUE;

  0446c	e3a03001	 mov         r3, #1
  04470	e58d3004	 str         r3, [sp, #4]

; 2105 : }

  04474	e59d0004	 ldr         r0, [sp, #4]
  04478	e28dd008	 add         sp, sp, #8
  0447c	e89d6000	 ldmia       sp, {sp, lr}
  04480	e12fff1e	 bx          lr
  04484		 |$LN6@PrcmClockS@6|
  04484		 |$LN7@PrcmClockS@6|
  04484	00000000	 DCD         |g_pPrcmRestore|
  04488		 |$LN8@PrcmClockS@6|
  04488	00000000	 DCD         |g_pPrcmPrm|
  0448c		 |$M49690|

			 ENDP  ; |PrcmClockSetExternalClockRequestMode|

	EXPORT	|PrcmClockSetSystemClockSetupTime|

  00078			 AREA	 |.pdata|, PDATA
|$T49701| DCD	|$LN5@PrcmClockS@7|
	DCD	0x40002c04
; Function compile flags: /Odtp

  0448c			 AREA	 |.text|, CODE, ARM

  0448c		 |PrcmClockSetSystemClockSetupTime| PROC

; 2112 : {    

  0448c		 |$LN5@PrcmClockS@7|
  0448c	e1a0c00d	 mov         r12, sp
  04490	e92d0001	 stmdb       sp!, {r0}
  04494	e92d5000	 stmdb       sp!, {r12, lr}
  04498	e24dd008	 sub         sp, sp, #8
  0449c		 |$M49698|

; 2113 :     UINT val;
; 2114 :     
; 2115 :     // acquire sync handle   
; 2116 :     Lock(Mutex_Clock);

  0449c	e3a00001	 mov         r0, #1
  044a0	eb000000	 bl          Lock

; 2117 : 
; 2118 :     setupTime &= SETUPTIME_MASK;

  044a4	e1dd31b0	 ldrh        r3, [sp, #0x10]
  044a8	e1a02003	 mov         r2, r3
  044ac	e3a03cff	 mov         r3, #0xFF, 24
  044b0	e38330ff	 orr         r3, r3, #0xFF
  044b4	e0023003	 and         r3, r2, r3
  044b8	e1a03803	 mov         r3, r3, lsl #16
  044bc	e1a03823	 mov         r3, r3, lsr #16
  044c0	e1cd31b0	 strh        r3, [sp, #0x10]

; 2119 :     val = INREG32(&g_pPrcmPrm->pOMAP_GLOBAL_PRM->PRM_CLKSETUP) & ~SETUPTIME_MASK;

  044c4	e59f306c	 ldr         r3, [pc, #0x6C]
  044c8	e5933000	 ldr         r3, [r3]
  044cc	e283302c	 add         r3, r3, #0x2C
  044d0	e5933000	 ldr         r3, [r3]
  044d4	e2833098	 add         r3, r3, #0x98
  044d8	e5932000	 ldr         r2, [r3]
  044dc	e3e03cff	 mvn         r3, #0xFF, 24
  044e0	e22330ff	 eor         r3, r3, #0xFF
  044e4	e0023003	 and         r3, r2, r3
  044e8	e58d3000	 str         r3, [sp]

; 2120 :     val |= setupTime;

  044ec	e1dd21b0	 ldrh        r2, [sp, #0x10]
  044f0	e59d3000	 ldr         r3, [sp]
  044f4	e1833002	 orr         r3, r3, r2
  044f8	e58d3000	 str         r3, [sp]

; 2121 :     OUTREG32(&g_pPrcmPrm->pOMAP_GLOBAL_PRM->PRM_CLKSETUP, val);

  044fc	e59f3034	 ldr         r3, [pc, #0x34]
  04500	e5933000	 ldr         r3, [r3]
  04504	e283302c	 add         r3, r3, #0x2C
  04508	e5933000	 ldr         r3, [r3]
  0450c	e2832098	 add         r2, r3, #0x98
  04510	e59d3000	 ldr         r3, [sp]
  04514	e5823000	 str         r3, [r2]

; 2122 :     
; 2123 :     // release sync handle    
; 2124 :     Unlock(Mutex_Clock);

  04518	e3a00001	 mov         r0, #1
  0451c	eb000000	 bl          Unlock

; 2125 :     
; 2126 :     return TRUE;

  04520	e3a03001	 mov         r3, #1
  04524	e58d3004	 str         r3, [sp, #4]

; 2127 : }

  04528	e59d0004	 ldr         r0, [sp, #4]
  0452c	e28dd008	 add         sp, sp, #8
  04530	e89d6000	 ldmia       sp, {sp, lr}
  04534	e12fff1e	 bx          lr
  04538		 |$LN6@PrcmClockS@7|
  04538		 |$LN7@PrcmClockS@7|
  04538	00000000	 DCD         |g_pPrcmPrm|
  0453c		 |$M49699|

			 ENDP  ; |PrcmClockSetSystemClockSetupTime|

	EXPORT	|PrcmClockGetSystemClockFrequency|
	IMPORT	|__muls|

  00080			 AREA	 |.pdata|, PDATA
|$T49710| DCD	|$LN5@PrcmClockG@3|
	DCD	0x40001702
; Function compile flags: /Odtp

  0453c			 AREA	 |.text|, CODE, ARM

  0453c		 |PrcmClockGetSystemClockFrequency| PROC

; 2132 : {

  0453c		 |$LN5@PrcmClockG@3|
  0453c	e52de004	 str         lr, [sp, #-4]!
  04540	e24dd004	 sub         sp, sp, #4
  04544		 |$M49707|

; 2133 :     static float _rgSysClkTbl[6] = {12.0f, 13.0f, 19.2f, 26.0f, 38.4f, 16.8f};
; 2134 :     return _rgSysClkTbl[INREG32(&g_pPrcmPrm->pOMAP_CLOCK_CONTROL_PRM->PRM_CLKSEL)] * 1000000.0f;

  04544	e59f3048	 ldr         r3, [pc, #0x48]
  04548	e5933000	 ldr         r3, [r3]
  0454c	e2833034	 add         r3, r3, #0x34
  04550	e5933000	 ldr         r3, [r3]
  04554	e2833040	 add         r3, r3, #0x40
  04558	e5931000	 ldr         r1, [r3]
  0455c	e3a03004	 mov         r3, #4
  04560	e0020391	 mul         r2, r1, r3
  04564	e59f3024	 ldr         r3, [pc, #0x24]
  04568	e0833002	 add         r3, r3, r2
  0456c	e5930000	 ldr         r0, [r3]
  04570	e59f1014	 ldr         r1, [pc, #0x14]
  04574	eb000000	 bl          __muls
  04578	e58d0000	 str         r0, [sp]

; 2135 : }

  0457c	e59d0000	 ldr         r0, [sp]
  04580	e28dd004	 add         sp, sp, #4
  04584	e49de004	 ldr         lr, [sp], #4
  04588	e12fff1e	 bx          lr
  0458c		 |$LN6@PrcmClockG@3|
  0458c		 |$LN7@PrcmClockG@3|
  0458c	49742400	 DCD         0x49742400
  04590		 |$LN8@PrcmClockG@3|
  04590	00000000	 DCD         |?_rgSysClkTbl@?1??PrcmClockGetSystemClockFrequency@@9@9|
  04594		 |$LN9@PrcmClockG@3|
  04594	00000000	 DCD         |g_pPrcmPrm|
  04598		 |$M49708|

			 ENDP  ; |PrcmClockGetSystemClockFrequency|

	EXPORT	|??_C@_1EE@NGFCOLAD@?$AA?9?$AAP?$AAr?$AAc?$AAm?$AAC?$AAl?$AAo?$AAc?$AAk?$AAG?$AAe?$AAt?$AAD?$AAp?$AAl?$AAl?$AAS?$AAt?$AAa?$AAt?$AAe?$AA?$CI?$AA?$CJ?$AA?$DN?$AA0?$AAx?$AA?$CF?$AA0?$AA8?$AAX?$AA?$AN@| [ DATA ] ; `string'
	EXPORT	|??_C@_1EI@DKCKIEEG@?$AA?$CL?$AAP?$AAr?$AAc?$AAm?$AAC?$AAl?$AAo?$AAc?$AAk?$AAG?$AAe?$AAt?$AAD?$AAp?$AAl?$AAl?$AAS?$AAt?$AAa?$AAt?$AAe?$AA?$CI?$AAd?$AAp?$AAl?$AAl?$AAI?$AAd?$AA?$DN?$AA?$CF?$AAd@| [ DATA ] ; `string'
	EXPORT	|PrcmClockGetDpllState|
	IMPORT	|GetCmRegisterSet|

  00088			 AREA	 |.pdata|, PDATA
|$T49724| DCD	|$LN14@PrcmClockG@4|
	DCD	0x40004104

  00000			 AREA	 |.rdata|, DATA, READONLY
|??_C@_1EE@NGFCOLAD@?$AA?9?$AAP?$AAr?$AAc?$AAm?$AAC?$AAl?$AAo?$AAc?$AAk?$AAG?$AAe?$AAt?$AAD?$AAp?$AAl?$AAl?$AAS?$AAt?$AAa?$AAt?$AAe?$AA?$CI?$AA?$CJ?$AA?$DN?$AA0?$AAx?$AA?$CF?$AA0?$AA8?$AAX?$AA?$AN@| DCB "-"
	DCB	0x0, "P", 0x0, "r", 0x0, "c", 0x0, "m", 0x0, "C", 0x0, "l"
	DCB	0x0, "o", 0x0, "c", 0x0, "k", 0x0, "G", 0x0, "e", 0x0, "t"
	DCB	0x0, "D", 0x0, "p", 0x0, "l", 0x0, "l", 0x0, "S", 0x0, "t"
	DCB	0x0, "a", 0x0, "t", 0x0, "e", 0x0, "(", 0x0, ")", 0x0, "="
	DCB	0x0, "0", 0x0, "x", 0x0, "%", 0x0, "0", 0x0, "8", 0x0, "X"
	DCB	0x0, 0xd, 0x0, 0xa, 0x0, 0x0, 0x0	; `string'

  00000			 AREA	 |.rdata|, DATA, READONLY
|??_C@_1EI@DKCKIEEG@?$AA?$CL?$AAP?$AAr?$AAc?$AAm?$AAC?$AAl?$AAo?$AAc?$AAk?$AAG?$AAe?$AAt?$AAD?$AAp?$AAl?$AAl?$AAS?$AAt?$AAa?$AAt?$AAe?$AA?$CI?$AAd?$AAp?$AAl?$AAl?$AAI?$AAd?$AA?$DN?$AA?$CF?$AAd@| DCB "+"
	DCB	0x0, "P", 0x0, "r", 0x0, "c", 0x0, "m", 0x0, "C", 0x0, "l"
	DCB	0x0, "o", 0x0, "c", 0x0, "k", 0x0, "G", 0x0, "e", 0x0, "t"
	DCB	0x0, "D", 0x0, "p", 0x0, "l", 0x0, "l", 0x0, "S", 0x0, "t"
	DCB	0x0, "a", 0x0, "t", 0x0, "e", 0x0, "(", 0x0, "d", 0x0, "p"
	DCB	0x0, "l", 0x0, "l", 0x0, "I", 0x0, "d", 0x0, "=", 0x0, "%"
	DCB	0x0, "d", 0x0, ")", 0x0, 0xd, 0x0, 0xa, 0x0, 0x0, 0x0 ; `string'
; Function compile flags: /Odtp

  04598			 AREA	 |.text|, CODE, ARM

  04598		 |PrcmClockGetDpllState| PROC

; 2142 : {

  04598		 |$LN14@PrcmClockG@4|
  04598	e1a0c00d	 mov         r12, sp
  0459c	e92d0001	 stmdb       sp!, {r0}
  045a0	e92d5000	 stmdb       sp!, {r12, lr}
  045a4	e24dd020	 sub         sp, sp, #0x20
  045a8		 |$M49721|

; 2143 :     UINT val = 0; 

  045a8	e3a03000	 mov         r3, #0
  045ac	e58d3004	 str         r3, [sp, #4]

; 2144 :     OMAP_CM_REGS *pPrcmCm;
; 2145 :     OALMSG(OAL_FUNC, (L"+PrcmClockGetDpllState(dpllId=%d)\r\n", dpllId));

  045b0	e59f30dc	 ldr         r3, [pc, #0xDC]
  045b4	e5933440	 ldr         r3, [r3, #0x440]
  045b8	e3130004	 tst         r3, #4
  045bc	0a000005	 beq         |$LN8@PrcmClockG@4|
  045c0	e59d1028	 ldr         r1, [sp, #0x28]
  045c4	e59f00cc	 ldr         r0, [pc, #0xCC]
  045c8	eb000000	 bl          NKDbgPrintfW
  045cc	e3a03001	 mov         r3, #1
  045d0	e58d300c	 str         r3, [sp, #0xC]
  045d4	ea000001	 b           |$LN9@PrcmClockG@4|
  045d8		 |$LN8@PrcmClockG@4|
  045d8	e3a03000	 mov         r3, #0
  045dc	e58d300c	 str         r3, [sp, #0xC]
  045e0		 |$LN9@PrcmClockG@4|

; 2146 : 
; 2147 :     switch (dpllId)

  045e0	e59d3028	 ldr         r3, [sp, #0x28]
  045e4	e58d3010	 str         r3, [sp, #0x10]
  045e8	e59d3010	 ldr         r3, [sp, #0x10]
  045ec	e3530000	 cmp         r3, #0
  045f0	0a000003	 beq         |$LN3@PrcmClockG@4|
  045f4	e59d3010	 ldr         r3, [sp, #0x10]
  045f8	e3530001	 cmp         r3, #1
  045fc	0a000006	 beq         |$LN2@PrcmClockG@4|
  04600	ea00000b	 b           |$LN1@PrcmClockG@4|
  04604		 |$LN3@PrcmClockG@4|

; 2148 :         {
; 2149 :         case kDPLL1:
; 2150 :             pPrcmCm = GetCmRegisterSet(POWERDOMAIN_MPU);

  04604	e3a00005	 mov         r0, #5
  04608	eb000000	 bl          GetCmRegisterSet
  0460c	e58d0014	 str         r0, [sp, #0x14]
  04610	e59d3014	 ldr         r3, [sp, #0x14]
  04614	e58d3000	 str         r3, [sp]

; 2151 :             break;

  04618	ea000006	 b           |$LN4@PrcmClockG@4|
  0461c		 |$LN2@PrcmClockG@4|

; 2152 : 
; 2153 :         case kDPLL2:
; 2154 :             pPrcmCm = GetCmRegisterSet(POWERDOMAIN_IVA2);

  0461c	e3a00008	 mov         r0, #8
  04620	eb000000	 bl          GetCmRegisterSet
  04624	e58d0018	 str         r0, [sp, #0x18]
  04628	e59d3018	 ldr         r3, [sp, #0x18]
  0462c	e58d3000	 str         r3, [sp]

; 2155 :             break;

  04630	ea000000	 b           |$LN4@PrcmClockG@4|
  04634		 |$LN1@PrcmClockG@4|

; 2156 : 
; 2157 :         default:
; 2158 :             goto cleanUp;

  04634	ea000003	 b           |$cleanUp$48045|
  04638		 |$LN4@PrcmClockG@4|

; 2159 :         }
; 2160 : 
; 2161 :     val = INREG32(&pPrcmCm->CM_IDLEST_PLL_xxx);

  04638	e59d3000	 ldr         r3, [sp]
  0463c	e2833024	 add         r3, r3, #0x24
  04640	e5933000	 ldr         r3, [r3]
  04644	e58d3004	 str         r3, [sp, #4]
  04648		 |$cleanUp$48045|

; 2162 : 
; 2163 : cleanUp:
; 2164 :     OALMSG(OAL_FUNC, (L"-PrcmClockGetDpllState()=0x%08X\r\n", val));

  04648	e59f3044	 ldr         r3, [pc, #0x44]
  0464c	e5933440	 ldr         r3, [r3, #0x440]
  04650	e3130004	 tst         r3, #4
  04654	0a000005	 beq         |$LN10@PrcmClockG@4|
  04658	e59d1004	 ldr         r1, [sp, #4]
  0465c	e59f002c	 ldr         r0, [pc, #0x2C]
  04660	eb000000	 bl          NKDbgPrintfW
  04664	e3a03001	 mov         r3, #1
  04668	e58d301c	 str         r3, [sp, #0x1C]
  0466c	ea000001	 b           |$LN11@PrcmClockG@4|
  04670		 |$LN10@PrcmClockG@4|
  04670	e3a03000	 mov         r3, #0
  04674	e58d301c	 str         r3, [sp, #0x1C]
  04678		 |$LN11@PrcmClockG@4|

; 2165 :     return val;

  04678	e59d3004	 ldr         r3, [sp, #4]
  0467c	e58d3008	 str         r3, [sp, #8]

; 2166 : }

  04680	e59d0008	 ldr         r0, [sp, #8]
  04684	e28dd020	 add         sp, sp, #0x20
  04688	e89d6000	 ldmia       sp, {sp, lr}
  0468c	e12fff1e	 bx          lr
  04690		 |$LN15@PrcmClockG@4|
  04690		 |$LN16@PrcmClockG@4|
  04690	00000000	 DCD         |??_C@_1EE@NGFCOLAD@?$AA?9?$AAP?$AAr?$AAc?$AAm?$AAC?$AAl?$AAo?$AAc?$AAk?$AAG?$AAe?$AAt?$AAD?$AAp?$AAl?$AAl?$AAS?$AAt?$AAa?$AAt?$AAe?$AA?$CI?$AA?$CJ?$AA?$DN?$AA0?$AAx?$AA?$CF?$AA0?$AA8?$AAX?$AA?$AN@|
  04694		 |$LN17@PrcmClockG@4|
  04694	00000000	 DCD         |dpCurSettings|
  04698		 |$LN18@PrcmClockG@4|
  04698	00000000	 DCD         |??_C@_1EI@DKCKIEEG@?$AA?$CL?$AAP?$AAr?$AAc?$AAm?$AAC?$AAl?$AAo?$AAc?$AAk?$AAG?$AAe?$AAt?$AAD?$AAp?$AAl?$AAl?$AAS?$AAt?$AAa?$AAt?$AAe?$AA?$CI?$AAd?$AAp?$AAl?$AAl?$AAI?$AAd?$AA?$DN?$AA?$CF?$AAd@|
  0469c		 |$M49722|

			 ENDP  ; |PrcmClockGetDpllState|

	EXPORT	|PrcmClockRestoreDpllState|

  00090			 AREA	 |.pdata|, PDATA
|$T49733| DCD	|$LN5@PrcmClockR|
	DCD	0x40000a03
; Function compile flags: /Odtp

  0469c			 AREA	 |.text|, CODE, ARM

  0469c		 |PrcmClockRestoreDpllState| PROC

; 2173 : {

  0469c		 |$LN5@PrcmClockR|
  0469c	e1a0c00d	 mov         r12, sp
  046a0	e92d0001	 stmdb       sp!, {r0}
  046a4	e92d5000	 stmdb       sp!, {r12, lr}
  046a8		 |$M49730|

; 2174 :     // Set the DPLL frequency
; 2175 :     _ClockHwUpdateDpllFrequency(dpll);

  046a8	e59d0008	 ldr         r0, [sp, #8]
  046ac	eb000000	 bl          _ClockHwUpdateDpllFrequency

; 2176 : 
; 2177 :     // Update the dpll state
; 2178 :     _ClockHwUpdateDpllState(dpll, DPLL_UPDATE_ALL);

  046b0	e3a0101f	 mov         r1, #0x1F
  046b4	e59d0008	 ldr         r0, [sp, #8]
  046b8	eb000000	 bl          _ClockHwUpdateDpllState

; 2179 : }

  046bc	e89d6000	 ldmia       sp, {sp, lr}
  046c0	e12fff1e	 bx          lr
  046c4		 |$M49731|

			 ENDP  ; |PrcmClockRestoreDpllState|

	EXPORT	|PrcmClockGetClockRate|
	IMPORT	|__adds|
	IMPORT	|__utos|
	IMPORT	|__divs|
	IMPORT	|__stou|

  00098			 AREA	 |.pdata|, PDATA
|$T49768| DCD	|$LN57@PrcmClockG@5|
	DCD	0x40012d04
; Function compile flags: /Odtp

  046c4			 AREA	 |.text|, CODE, ARM

  046c4		 |PrcmClockGetClockRate| PROC

; 2186 : {

  046c4		 |$LN57@PrcmClockG@5|
  046c4	e1a0c00d	 mov         r12, sp
  046c8	e92d0001	 stmdb       sp!, {r0}
  046cc	e92d5010	 stmdb       sp!, {r4, r12, lr}
  046d0	e24dd024	 sub         sp, sp, #0x24
  046d4		 |$M49765|

; 2187 :     DWORD val;
; 2188 :     DWORD val2;
; 2189 :     float sys_clk, freq=0, core_clk;

  046d4	e3a03000	 mov         r3, #0
  046d8	e58d3000	 str         r3, [sp]

; 2190 : 
; 2191 :     // get virtual address mapping to register
; 2192 :     val = INREG32(&g_pPrcmPrm->pOMAP_CLOCK_CONTROL_PRM->PRM_CLKSEL);

  046dc	e59f3490	 ldr         r3, [pc, #0x490]
  046e0	e5933000	 ldr         r3, [r3]
  046e4	e2833034	 add         r3, r3, #0x34
  046e8	e5933000	 ldr         r3, [r3]
  046ec	e2833040	 add         r3, r3, #0x40
  046f0	e5933000	 ldr         r3, [r3]
  046f4	e58d3010	 str         r3, [sp, #0x10]

; 2193 :     switch (val)

  046f8	e59d3010	 ldr         r3, [sp, #0x10]
  046fc	e58d3018	 str         r3, [sp, #0x18]
  04700	e59d3018	 ldr         r3, [sp, #0x18]
  04704	e3530005	 cmp         r3, #5
  04708	8a00001f	 bhi         |$LN19@PrcmClockG@5|
  0470c	e59d2018	 ldr         r2, [sp, #0x18]
  04710	e1a03102	 mov         r3, r2, lsl #2
  04714	e083300f	 add         r3, r3, pc
  04718	e5933004	 ldr         r3, [r3, #4]
  0471c	e08ff003	 add         pc, pc, r3
  04720		 |$LN31@PrcmClockG@5|
  04720		 |$LN30@PrcmClockG@5|
  04720		 |$LN32@PrcmClockG@5|
  04720	00000014	 DCD         0x14
  04724		 |$LN33@PrcmClockG@5|
  04724	00000024	 DCD         0x24
  04728		 |$LN34@PrcmClockG@5|
  04728	00000034	 DCD         0x34
  0472c		 |$LN35@PrcmClockG@5|
  0472c	00000040	 DCD         0x40
  04730		 |$LN36@PrcmClockG@5|
  04730	00000050	 DCD         0x50
  04734		 |$LN37@PrcmClockG@5|
  04734	0000005c	 DCD         0x5c
  04738		 |$LN25@PrcmClockG@5|

; 2194 :     {
; 2195 :         case 0:
; 2196 :             sys_clk = 12.0f;

  04738	e3a03441	 mov         r3, #0x41, 8
  0473c	e3833501	 orr         r3, r3, #1, 10
  04740	e58d300c	 str         r3, [sp, #0xC]

; 2197 :             break;

  04744	ea000011	 b           |$LN26@PrcmClockG@5|
  04748		 |$LN24@PrcmClockG@5|

; 2198 : 
; 2199 :         case 1:
; 2200 :             sys_clk = 13.0f;

  04748	e3a03441	 mov         r3, #0x41, 8
  0474c	e3833605	 orr         r3, r3, #5, 12
  04750	e58d300c	 str         r3, [sp, #0xC]

; 2201 :             break;

  04754	ea00000d	 b           |$LN26@PrcmClockG@5|
  04758		 |$LN23@PrcmClockG@5|

; 2202 : 
; 2203 :         case 2:
; 2204 :             sys_clk = 19.2f;

  04758	e59f3410	 ldr         r3, [pc, #0x410]
  0475c	e58d300c	 str         r3, [sp, #0xC]

; 2205 :             break;

  04760	ea00000a	 b           |$LN26@PrcmClockG@5|
  04764		 |$LN22@PrcmClockG@5|

; 2206 : 
; 2207 :         case 3:
; 2208 :             sys_clk = 26.0f;

  04764	e3a03441	 mov         r3, #0x41, 8
  04768	e383360d	 orr         r3, r3, #0xD, 12
  0476c	e58d300c	 str         r3, [sp, #0xC]

; 2209 :             break;

  04770	ea000006	 b           |$LN26@PrcmClockG@5|
  04774		 |$LN21@PrcmClockG@5|

; 2210 : 
; 2211 :         case 4:
; 2212 :             sys_clk = 38.4f;

  04774	e59f33f0	 ldr         r3, [pc, #0x3F0]
  04778	e58d300c	 str         r3, [sp, #0xC]

; 2213 :             break;

  0477c	ea000003	 b           |$LN26@PrcmClockG@5|
  04780		 |$LN20@PrcmClockG@5|

; 2214 : 
; 2215 :         case 5:
; 2216 :             sys_clk = 16.8f;

  04780	e59f33e0	 ldr         r3, [pc, #0x3E0]
  04784	e58d300c	 str         r3, [sp, #0xC]

; 2217 :             break;

  04788	ea000000	 b           |$LN26@PrcmClockG@5|
  0478c		 |$LN19@PrcmClockG@5|

; 2218 : 
; 2219 :         default:
; 2220 :             goto cleanUp;                

  0478c	ea0000ed	 b           |$cleanUp$48072|
  04790		 |$LN26@PrcmClockG@5|

; 2221 :     }
; 2222 :     
; 2223 :     switch(clock_id)

  04790	e59d3030	 ldr         r3, [sp, #0x30]
  04794	e58d301c	 str         r3, [sp, #0x1C]
  04798	e59d301c	 ldr         r3, [sp, #0x1C]
  0479c	e3530004	 cmp         r3, #4
  047a0	8a0000e6	 bhi         |$LN1@PrcmClockG@5|
  047a4	e59d201c	 ldr         r2, [sp, #0x1C]
  047a8	e1a03102	 mov         r3, r2, lsl #2
  047ac	e083300f	 add         r3, r3, pc
  047b0	e5933004	 ldr         r3, [r3, #4]
  047b4	e08ff003	 add         pc, pc, r3
  047b8		 |$LN39@PrcmClockG@5|
  047b8		 |$LN38@PrcmClockG@5|
  047b8		 |$LN40@PrcmClockG@5|
  047b8	00000010	 DCD         0x10
  047bc		 |$LN41@PrcmClockG@5|
  047bc	0000001c	 DCD         0x1c
  047c0		 |$LN42@PrcmClockG@5|
  047c0	000000b8	 DCD         0xb8
  047c4		 |$LN43@PrcmClockG@5|
  047c4	00000154	 DCD         0x154
  047c8		 |$LN44@PrcmClockG@5|
  047c8	000001dc	 DCD         0x1dc
  047cc		 |$LN16@PrcmClockG@5|

; 2224 :     {
; 2225 :         case SYS_CLK:
; 2226 : 		freq = sys_clk;

  047cc	e59d300c	 ldr         r3, [sp, #0xC]
  047d0	e58d3000	 str         r3, [sp]

; 2227 : 		break;

  047d4	ea0000db	 b           |$LN17@PrcmClockG@5|
  047d8		 |$LN15@PrcmClockG@5|

; 2228 : 		
; 2229 : 	 case MPU_CLK:
; 2230 : 	       // get mpu frequency
; 2231 : 	       val = INREG32(&g_pPrcmCm->pOMAP_MPU_CM->CM_CLKSEL1_PLL_MPU);

  047d8	e59f3384	 ldr         r3, [pc, #0x384]
  047dc	e5933000	 ldr         r3, [r3]
  047e0	e2833014	 add         r3, r3, #0x14
  047e4	e5933000	 ldr         r3, [r3]
  047e8	e2833040	 add         r3, r3, #0x40
  047ec	e5933000	 ldr         r3, [r3]
  047f0	e58d3010	 str         r3, [sp, #0x10]

; 2232 : 	       val2 = INREG32(&g_pPrcmCm->pOMAP_MPU_CM->CM_CLKSEL2_PLL_MPU);

  047f4	e59f3368	 ldr         r3, [pc, #0x368]
  047f8	e5933000	 ldr         r3, [r3]
  047fc	e2833014	 add         r3, r3, #0x14
  04800	e5933000	 ldr         r3, [r3]
  04804	e2833044	 add         r3, r3, #0x44
  04808	e5933000	 ldr         r3, [r3]
  0480c	e58d3008	 str         r3, [sp, #8]

; 2233 : 	       freq = ((float)((val & DPLL_MULT_MASK)>>DPLL_MULT_SHIFT) * sys_clk) /
; 2234 : 	                    ((float)((val & DPLL_DIV_MASK) >> DPLL_DIV_SHIFT) + 1.0f);

  04810	e59d2010	 ldr         r2, [sp, #0x10]
  04814	e3a03a7f	 mov         r3, #0x7F, 20
  04818	e3833c0f	 orr         r3, r3, #0xF, 24
  0481c	e0023003	 and         r3, r2, r3
  04820	e1a00423	 mov         r0, r3, lsr #8
  04824	eb000000	 bl          __utos
  04828	e59d100c	 ldr         r1, [sp, #0xC]
  0482c	eb000000	 bl          __muls
  04830	e1a04000	 mov         r4, r0
  04834	e59d3010	 ldr         r3, [sp, #0x10]
  04838	e203007f	 and         r0, r3, #0x7F
  0483c	eb000000	 bl          __utos
  04840	e3a015fe	 mov         r1, #0xFE, 10
  04844	eb000000	 bl          __adds
  04848	e1a01000	 mov         r1, r0
  0484c	e1a00004	 mov         r0, r4
  04850	eb000000	 bl          __divs
  04854	e58d0000	 str         r0, [sp]

; 2235 : 	       freq = freq / ((float)(val2 >> DPLL_MPU_CLKOUT_DIV_SHIFT));

  04858	e59d0008	 ldr         r0, [sp, #8]
  0485c	eb000000	 bl          __utos
  04860	e1a01000	 mov         r1, r0
  04864	e59d0000	 ldr         r0, [sp]
  04868	eb000000	 bl          __divs
  0486c	e58d0000	 str         r0, [sp]

; 2236 : 		break;

  04870	ea0000b4	 b           |$LN17@PrcmClockG@5|
  04874		 |$LN14@PrcmClockG@5|

; 2237 : 		
; 2238 : 	 case IVA_CLK:
; 2239 : 	    // get iva frequency
; 2240 : 	    val = INREG32(&g_pPrcmCm->pOMAP_IVA2_CM->CM_CLKSEL1_PLL_IVA2);

  04874	e59f32e8	 ldr         r3, [pc, #0x2E8]
  04878	e5933000	 ldr         r3, [r3]
  0487c	e2833020	 add         r3, r3, #0x20
  04880	e5933000	 ldr         r3, [r3]
  04884	e2833040	 add         r3, r3, #0x40
  04888	e5933000	 ldr         r3, [r3]
  0488c	e58d3010	 str         r3, [sp, #0x10]

; 2241 : 	    val2 = INREG32(&g_pPrcmCm->pOMAP_IVA2_CM->CM_CLKSEL1_PLL_IVA2);

  04890	e59f32cc	 ldr         r3, [pc, #0x2CC]
  04894	e5933000	 ldr         r3, [r3]
  04898	e2833020	 add         r3, r3, #0x20
  0489c	e5933000	 ldr         r3, [r3]
  048a0	e2833040	 add         r3, r3, #0x40
  048a4	e5933000	 ldr         r3, [r3]
  048a8	e58d3008	 str         r3, [sp, #8]

; 2242 : 	    freq = ((float)((val & DPLL_MULT_MASK)>>DPLL_MULT_SHIFT) * sys_clk) /
; 2243 : 	                    ((float)((val & DPLL_DIV_MASK) >> DPLL_DIV_SHIFT) + 1.0f);

  048ac	e59d2010	 ldr         r2, [sp, #0x10]
  048b0	e3a03a7f	 mov         r3, #0x7F, 20
  048b4	e3833c0f	 orr         r3, r3, #0xF, 24
  048b8	e0023003	 and         r3, r2, r3
  048bc	e1a00423	 mov         r0, r3, lsr #8
  048c0	eb000000	 bl          __utos
  048c4	e59d100c	 ldr         r1, [sp, #0xC]
  048c8	eb000000	 bl          __muls
  048cc	e1a04000	 mov         r4, r0
  048d0	e59d3010	 ldr         r3, [sp, #0x10]
  048d4	e203007f	 and         r0, r3, #0x7F
  048d8	eb000000	 bl          __utos
  048dc	e3a015fe	 mov         r1, #0xFE, 10
  048e0	eb000000	 bl          __adds
  048e4	e1a01000	 mov         r1, r0
  048e8	e1a00004	 mov         r0, r4
  048ec	eb000000	 bl          __divs
  048f0	e58d0000	 str         r0, [sp]

; 2244 : 	    freq = freq / ((float)(val2 >> DPLL_IVA2_CLKOUT_DIV_SHIFT));

  048f4	e59d0008	 ldr         r0, [sp, #8]
  048f8	eb000000	 bl          __utos
  048fc	e1a01000	 mov         r1, r0
  04900	e59d0000	 ldr         r0, [sp]
  04904	eb000000	 bl          __divs
  04908	e58d0000	 str         r0, [sp]

; 2245 :            break;

  0490c	ea00008d	 b           |$LN17@PrcmClockG@5|
  04910		 |$LN13@PrcmClockG@5|

; 2246 : 		
; 2247 : 	 case CORE_CLK:
; 2248 : 	    // get core frequency
; 2249 : 	    val = INREG32(&g_pPrcmCm->pOMAP_CLOCK_CONTROL_CM->CM_CLKSEL1_PLL) >> 8;

  04910	e59f324c	 ldr         r3, [pc, #0x24C]
  04914	e5933000	 ldr         r3, [r3]
  04918	e2833034	 add         r3, r3, #0x34
  0491c	e5933000	 ldr         r3, [r3]
  04920	e2833040	 add         r3, r3, #0x40
  04924	e5933000	 ldr         r3, [r3]
  04928	e1a03423	 mov         r3, r3, lsr #8
  0492c	e58d3010	 str         r3, [sp, #0x10]

; 2250 : 	    freq = ((float)((val & DPLL_MULT_MASK)>>DPLL_MULT_SHIFT) * sys_clk) /
; 2251 : 	                    ((float)((val & DPLL_DIV_MASK) >> DPLL_DIV_SHIFT) + 1.0f);

  04930	e59d2010	 ldr         r2, [sp, #0x10]
  04934	e3a03a7f	 mov         r3, #0x7F, 20
  04938	e3833c0f	 orr         r3, r3, #0xF, 24
  0493c	e0023003	 and         r3, r2, r3
  04940	e1a00423	 mov         r0, r3, lsr #8
  04944	eb000000	 bl          __utos
  04948	e59d100c	 ldr         r1, [sp, #0xC]
  0494c	eb000000	 bl          __muls
  04950	e1a04000	 mov         r4, r0
  04954	e59d3010	 ldr         r3, [sp, #0x10]
  04958	e203007f	 and         r0, r3, #0x7F
  0495c	eb000000	 bl          __utos
  04960	e3a015fe	 mov         r1, #0xFE, 10
  04964	eb000000	 bl          __adds
  04968	e1a01000	 mov         r1, r0
  0496c	e1a00004	 mov         r0, r4
  04970	eb000000	 bl          __divs
  04974	e58d0000	 str         r0, [sp]

; 2252 : 	    freq = freq / ((float)(val >> (DPLL_CORE_CLKOUT_DIV_SHIFT - 8)));

  04978	e59d3010	 ldr         r3, [sp, #0x10]
  0497c	e1a009a3	 mov         r0, r3, lsr #19
  04980	eb000000	 bl          __utos
  04984	e1a01000	 mov         r1, r0
  04988	e59d0000	 ldr         r0, [sp]
  0498c	eb000000	 bl          __divs
  04990	e58d0000	 str         r0, [sp]

; 2253 : 	    break;

  04994	ea00006b	 b           |$LN17@PrcmClockG@5|
  04998		 |$LN12@PrcmClockG@5|

; 2254 : 
; 2255 : 	 case SGX_CLK:
; 2256 : 	    val = INREG32(&g_pPrcmCm->pOMAP_CLOCK_CONTROL_CM->CM_CLKSEL1_PLL) >> 8;

  04998	e59f31c4	 ldr         r3, [pc, #0x1C4]
  0499c	e5933000	 ldr         r3, [r3]
  049a0	e2833034	 add         r3, r3, #0x34
  049a4	e5933000	 ldr         r3, [r3]
  049a8	e2833040	 add         r3, r3, #0x40
  049ac	e5933000	 ldr         r3, [r3]
  049b0	e1a03423	 mov         r3, r3, lsr #8
  049b4	e58d3010	 str         r3, [sp, #0x10]

; 2257 : 	    core_clk = ((float)((val & DPLL_MULT_MASK)>>DPLL_MULT_SHIFT) * sys_clk) /
; 2258 : 	                    ((float)((val & DPLL_DIV_MASK) >> DPLL_DIV_SHIFT) + 1.0f);

  049b8	e59d2010	 ldr         r2, [sp, #0x10]
  049bc	e3a03a7f	 mov         r3, #0x7F, 20
  049c0	e3833c0f	 orr         r3, r3, #0xF, 24
  049c4	e0023003	 and         r3, r2, r3
  049c8	e1a00423	 mov         r0, r3, lsr #8
  049cc	eb000000	 bl          __utos
  049d0	e59d100c	 ldr         r1, [sp, #0xC]
  049d4	eb000000	 bl          __muls
  049d8	e1a04000	 mov         r4, r0
  049dc	e59d3010	 ldr         r3, [sp, #0x10]
  049e0	e203007f	 and         r0, r3, #0x7F
  049e4	eb000000	 bl          __utos
  049e8	e3a015fe	 mov         r1, #0xFE, 10
  049ec	eb000000	 bl          __adds
  049f0	e1a01000	 mov         r1, r0
  049f4	e1a00004	 mov         r0, r4
  049f8	eb000000	 bl          __divs
  049fc	e58d0004	 str         r0, [sp, #4]

; 2259 : 	    core_clk = core_clk / ((float)(val >> (DPLL_CORE_CLKOUT_DIV_SHIFT - 8)));

  04a00	e59d3010	 ldr         r3, [sp, #0x10]
  04a04	e1a009a3	 mov         r0, r3, lsr #19
  04a08	eb000000	 bl          __utos
  04a0c	e1a01000	 mov         r1, r0
  04a10	e59d0004	 ldr         r0, [sp, #4]
  04a14	eb000000	 bl          __divs
  04a18	e58d0004	 str         r0, [sp, #4]

; 2260 : 		
; 2261 : 	    // get core frequency
; 2262 : 	    val = INREG32(&g_pPrcmCm->pOMAP_SGX_CM->CM_CLKSEL_SGX) & 0x7;

  04a1c	e59f3140	 ldr         r3, [pc, #0x140]
  04a20	e5933000	 ldr         r3, [r3]
  04a24	e2833028	 add         r3, r3, #0x28
  04a28	e5933000	 ldr         r3, [r3]
  04a2c	e2833040	 add         r3, r3, #0x40
  04a30	e5933000	 ldr         r3, [r3]
  04a34	e2033007	 and         r3, r3, #7
  04a38	e58d3010	 str         r3, [sp, #0x10]

; 2263 :            switch(val){

  04a3c	e59d3010	 ldr         r3, [sp, #0x10]
  04a40	e58d3020	 str         r3, [sp, #0x20]
  04a44	e59d3020	 ldr         r3, [sp, #0x20]
  04a48	e3530007	 cmp         r3, #7
  04a4c	8a00003a	 bhi         |$LN10@PrcmClockG@5|
  04a50	e59d2020	 ldr         r2, [sp, #0x20]
  04a54	e1a03102	 mov         r3, r2, lsl #2
  04a58	e083300f	 add         r3, r3, pc
  04a5c	e5933004	 ldr         r3, [r3, #4]
  04a60	e08ff003	 add         pc, pc, r3
  04a64		 |$LN46@PrcmClockG@5|
  04a64		 |$LN45@PrcmClockG@5|
  04a64		 |$LN47@PrcmClockG@5|
  04a64	0000001c	 DCD         0x1c
  04a68		 |$LN48@PrcmClockG@5|
  04a68	00000034	 DCD         0x34
  04a6c		 |$LN49@PrcmClockG@5|
  04a6c	0000004c	 DCD         0x4c
  04a70		 |$LN50@PrcmClockG@5|
  04a70	00000064	 DCD         0x64
  04a74		 |$LN51@PrcmClockG@5|
  04a74	00000074	 DCD         0x74
  04a78		 |$LN52@PrcmClockG@5|
  04a78	00000084	 DCD         0x84
  04a7c		 |$LN53@PrcmClockG@5|
  04a7c	00000098	 DCD         0x98
  04a80		 |$LN54@PrcmClockG@5|
  04a80	000000b8	 DCD         0xb8
  04a84		 |$LN9@PrcmClockG@5|

; 2264 : 		case 0: 
; 2265 : 		/* CORE_CLK / 3*/
; 2266 : 		    freq = core_clk/3;

  04a84	e59d0004	 ldr         r0, [sp, #4]
  04a88	e3a01101	 mov         r1, #1, 2
  04a8c	e3811501	 orr         r1, r1, #1, 10
  04a90	eb000000	 bl          __divs
  04a94	e58d0000	 str         r0, [sp]

; 2267 : 		    break;

  04a98	ea000027	 b           |$LN10@PrcmClockG@5|
  04a9c		 |$LN8@PrcmClockG@5|

; 2268 : 		case 1:
; 2269 : 		/* CORE_CLK / 4 */
; 2270 : 		    freq = core_clk/4;

  04a9c	e59d0004	 ldr         r0, [sp, #4]
  04aa0	e3a01101	 mov         r1, #1, 2
  04aa4	e3811502	 orr         r1, r1, #2, 10
  04aa8	eb000000	 bl          __divs
  04aac	e58d0000	 str         r0, [sp]

; 2271 : 		    break;

  04ab0	ea000021	 b           |$LN10@PrcmClockG@5|
  04ab4		 |$LN7@PrcmClockG@5|

; 2272 : 		case 2:
; 2273 : 		/* CORE_CLK / 6 */
; 2274 : 		    freq = core_clk/6;

  04ab4	e59d0004	 ldr         r0, [sp, #4]
  04ab8	e3a01101	 mov         r1, #1, 2
  04abc	e3811503	 orr         r1, r1, #3, 10
  04ac0	eb000000	 bl          __divs
  04ac4	e58d0000	 str         r0, [sp]

; 2275 : 		    break;

  04ac8	ea00001b	 b           |$LN10@PrcmClockG@5|
  04acc		 |$LN6@PrcmClockG@5|

; 2276 : 		case 3:
; 2277 : 		/* CM_96M_FCLK */
; 2278 : 		    freq = 96;

  04acc	e3a03442	 mov         r3, #0x42, 8
  04ad0	e3833503	 orr         r3, r3, #3, 10
  04ad4	e58d3000	 str         r3, [sp]

; 2279 : 		    break;

  04ad8	ea000017	 b           |$LN10@PrcmClockG@5|
  04adc		 |$LN5@PrcmClockG@5|

; 2280 : 		case 4:
; 2281 : 		/* SGX_192M_FCLK */
; 2282 : 		    freq = 192;

  04adc	e3a03443	 mov         r3, #0x43, 8
  04ae0	e3833501	 orr         r3, r3, #1, 10
  04ae4	e58d3000	 str         r3, [sp]

; 2283 : 		    break;			

  04ae8	ea000013	 b           |$LN10@PrcmClockG@5|
  04aec		 |$LN4@PrcmClockG@5|

; 2284 : 		case 5:
; 2285 : 		/* CORE_CLK / 2 */
; 2286 : 		    freq = core_clk/2;

  04aec	e59d0004	 ldr         r0, [sp, #4]
  04af0	e3a01101	 mov         r1, #1, 2
  04af4	eb000000	 bl          __divs
  04af8	e58d0000	 str         r0, [sp]

; 2287 : 		    break;

  04afc	ea00000e	 b           |$LN10@PrcmClockG@5|
  04b00		 |$LN3@PrcmClockG@5|

; 2288 : 		case 6:
; 2289 : 		/* CORE_CLK * 2 / 3 */
; 2290 : 		    freq = core_clk * 2 / 3;

  04b00	e59d0004	 ldr         r0, [sp, #4]
  04b04	e3a01101	 mov         r1, #1, 2
  04b08	eb000000	 bl          __muls
  04b0c	e3a01101	 mov         r1, #1, 2
  04b10	e3811501	 orr         r1, r1, #1, 10
  04b14	eb000000	 bl          __divs
  04b18	e58d0000	 str         r0, [sp]

; 2291 : 		    break;

  04b1c	ea000006	 b           |$LN10@PrcmClockG@5|
  04b20		 |$LN2@PrcmClockG@5|

; 2292 : 		case 7:
; 2293 : 		/* CORE_CLK * 2 / 5 */
; 2294 : 		    freq = core_clk * 2 /5;

  04b20	e59d0004	 ldr         r0, [sp, #4]
  04b24	e3a01101	 mov         r1, #1, 2
  04b28	eb000000	 bl          __muls
  04b2c	e3a01101	 mov         r1, #1, 2
  04b30	e381160a	 orr         r1, r1, #0xA, 12
  04b34	eb000000	 bl          __divs
  04b38	e58d0000	 str         r0, [sp]
  04b3c		 |$LN10@PrcmClockG@5|

; 2295 : 		    break;
; 2296 : 			
; 2297 :            	}
; 2298 : 	    break;

  04b3c	ea000001	 b           |$LN17@PrcmClockG@5|
  04b40		 |$LN1@PrcmClockG@5|

; 2299 : 		
; 2300 : 	default:
; 2301 : 	    freq = 0;

  04b40	e3a03000	 mov         r3, #0
  04b44	e58d3000	 str         r3, [sp]
  04b48		 |$LN17@PrcmClockG@5|
  04b48		 |$cleanUp$48072|

; 2302 : 	    break;
; 2303 :     }
; 2304 : 	
; 2305 : cleanUp:	
; 2306 :     return (UINT32)freq;

  04b48	e59d0000	 ldr         r0, [sp]
  04b4c	eb000000	 bl          __stou
  04b50	e58d0014	 str         r0, [sp, #0x14]

; 2307 : }

  04b54	e59d0014	 ldr         r0, [sp, #0x14]
  04b58	e28dd024	 add         sp, sp, #0x24
  04b5c	e89d6010	 ldmia       sp, {r4, sp, lr}
  04b60	e12fff1e	 bx          lr
  04b64		 |$LN58@PrcmClockG@5|
  04b64		 |$LN59@PrcmClockG@5|
  04b64	00000000	 DCD         |g_pPrcmCm|
  04b68		 |$LN60@PrcmClockG@5|
  04b68	41866666	 DCD         0x41866666
  04b6c		 |$LN61@PrcmClockG@5|
  04b6c	4219999a	 DCD         0x4219999a
  04b70		 |$LN62@PrcmClockG@5|
  04b70	4199999a	 DCD         0x4199999a
  04b74		 |$LN63@PrcmClockG@5|
  04b74	00000000	 DCD         |g_pPrcmPrm|
  04b78		 |$M49766|

			 ENDP  ; |PrcmClockGetClockRate|

	EXPORT	|??_C@_1DE@MNKDAJMB@?$AA?$AN?$AA?6?$AAS?$AAR?$AAC?$AA?5?$AAC?$AAL?$AAO?$AAC?$AAK?$AA?5?$AAr?$AAe?$AAf?$AA?5?$AAc?$AAo?$AAu?$AAn?$AAt?$AAs?$AA?3?$AA?$AN?$AA?6?$AA?$AA@| [ DATA ] ; `string'
	EXPORT	|??_C@_1DI@PIJNCBJB@?$AA?$AN?$AA?6?$AAD?$AAP?$AAL?$AAL?$AA?5?$AAC?$AAL?$AAK?$AAO?$AAU?$AAT?$AA?5?$AAr?$AAe?$AAf?$AA?5?$AAc?$AAo?$AAu?$AAn?$AAt?$AAs?$AA?3?$AA?$AN?$AA?6?$AA?$AA@| [ DATA ] ; `string'
	EXPORT	|??_C@_1CK@MBLFPBCE@?$AA?$AN?$AA?6?$AAD?$AAP?$AAL?$AAL?$AA?5?$AAr?$AAe?$AAf?$AA?5?$AAc?$AAo?$AAu?$AAn?$AAt?$AAs?$AA?3?$AA?$AN?$AA?6?$AA?$AA@| [ DATA ] ; `string'
	EXPORT	|??_C@_1BA@NOOLMKMI@?$AA?$CF?$AAs?$AA?5?$AA?$CF?$AAd?$AA?$AN?$AA?6?$AA?$AA@| [ DATA ] ; `string'
	EXPORT	|??_C@_1CI@DFICMPGN@?$AA?$AN?$AA?6?$AAV?$AAD?$AAD?$AA?5?$AAr?$AAe?$AAf?$AA?5?$AAc?$AAo?$AAu?$AAn?$AAt?$AAs?$AA?3?$AA?$AN?$AA?6?$AA?$AA@| [ DATA ] ; `string'
	EXPORT	|PrcmDumpRefCounts|
	IMPORT	|s_DomainTable|

  000a0			 AREA	 |.pdata|, PDATA
|$T49779| DCD	|$LN25@PrcmDumpRe|
	DCD	0x4000c202

  00000			 AREA	 |.rdata|, DATA, READONLY
|??_C@_1DE@MNKDAJMB@?$AA?$AN?$AA?6?$AAS?$AAR?$AAC?$AA?5?$AAC?$AAL?$AAO?$AAC?$AAK?$AA?5?$AAr?$AAe?$AAf?$AA?5?$AAc?$AAo?$AAu?$AAn?$AAt?$AAs?$AA?3?$AA?$AN?$AA?6?$AA?$AA@| DCB 0xd
	DCB	0x0, 0xa, 0x0, "S", 0x0, "R", 0x0, "C", 0x0, " ", 0x0, "C"
	DCB	0x0, "L", 0x0, "O", 0x0, "C", 0x0, "K", 0x0, " ", 0x0, "r"
	DCB	0x0, "e", 0x0, "f", 0x0, " ", 0x0, "c", 0x0, "o", 0x0, "u"
	DCB	0x0, "n", 0x0, "t", 0x0, "s", 0x0, ":", 0x0, 0xd, 0x0, 0xa
	DCB	0x0, 0x0, 0x0				; `string'

  00000			 AREA	 |.rdata|, DATA, READONLY
|??_C@_1DI@PIJNCBJB@?$AA?$AN?$AA?6?$AAD?$AAP?$AAL?$AAL?$AA?5?$AAC?$AAL?$AAK?$AAO?$AAU?$AAT?$AA?5?$AAr?$AAe?$AAf?$AA?5?$AAc?$AAo?$AAu?$AAn?$AAt?$AAs?$AA?3?$AA?$AN?$AA?6?$AA?$AA@| DCB 0xd
	DCB	0x0, 0xa, 0x0, "D", 0x0, "P", 0x0, "L", 0x0, "L", 0x0, " "
	DCB	0x0, "C", 0x0, "L", 0x0, "K", 0x0, "O", 0x0, "U", 0x0, "T"
	DCB	0x0, " ", 0x0, "r", 0x0, "e", 0x0, "f", 0x0, " ", 0x0, "c"
	DCB	0x0, "o", 0x0, "u", 0x0, "n", 0x0, "t", 0x0, "s", 0x0, ":"
	DCB	0x0, 0xd, 0x0, 0xa, 0x0, 0x0, 0x0	; `string'

  00000			 AREA	 |.rdata|, DATA, READONLY
|??_C@_1CK@MBLFPBCE@?$AA?$AN?$AA?6?$AAD?$AAP?$AAL?$AAL?$AA?5?$AAr?$AAe?$AAf?$AA?5?$AAc?$AAo?$AAu?$AAn?$AAt?$AAs?$AA?3?$AA?$AN?$AA?6?$AA?$AA@| DCB 0xd
	DCB	0x0, 0xa, 0x0, "D", 0x0, "P", 0x0, "L", 0x0, "L", 0x0, " "
	DCB	0x0, "r", 0x0, "e", 0x0, "f", 0x0, " ", 0x0, "c", 0x0, "o"
	DCB	0x0, "u", 0x0, "n", 0x0, "t", 0x0, "s", 0x0, ":", 0x0, 0xd
	DCB	0x0, 0xa, 0x0, 0x0, 0x0			; `string'

  00000			 AREA	 |.rdata|, DATA, READONLY
|??_C@_1BA@NOOLMKMI@?$AA?$CF?$AAs?$AA?5?$AA?$CF?$AAd?$AA?$AN?$AA?6?$AA?$AA@| DCB "%"
	DCB	0x0, "s", 0x0, " ", 0x0, "%", 0x0, "d", 0x0, 0xd, 0x0, 0xa
	DCB	0x0, 0x0, 0x0				; `string'

  00000			 AREA	 |.rdata|, DATA, READONLY
|??_C@_1CI@DFICMPGN@?$AA?$AN?$AA?6?$AAV?$AAD?$AAD?$AA?5?$AAr?$AAe?$AAf?$AA?5?$AAc?$AAo?$AAu?$AAn?$AAt?$AAs?$AA?3?$AA?$AN?$AA?6?$AA?$AA@| DCB 0xd
	DCB	0x0, 0xa, 0x0, "V", 0x0, "D", 0x0, "D", 0x0, " ", 0x0, "r"
	DCB	0x0, "e", 0x0, "f", 0x0, " ", 0x0, "c", 0x0, "o", 0x0, "u"
	DCB	0x0, "n", 0x0, "t", 0x0, "s", 0x0, ":", 0x0, 0xd, 0x0, 0xa
	DCB	0x0, 0x0, 0x0				; `string'
; Function compile flags: /Odtp

  04b78			 AREA	 |.text|, CODE, ARM

  04b78		 |PrcmDumpRefCounts| PROC

; 2563 : {

  04b78		 |$LN25@PrcmDumpRe|
  04b78	e52de004	 str         lr, [sp, #-4]!
  04b7c	e24dd004	 sub         sp, sp, #4
  04b80		 |$M49776|

; 2564 :     int i;
; 2565 : 	
; 2566 :     // dump s_VddTable
; 2567 :     OALMSG(1, (L"\r\nVDD ref counts:\r\n"));

  04b80	e59f02f4	 ldr         r0, [pc, #0x2F4]
  04b84	eb000000	 bl          NKDbgPrintfW

; 2568 :     for (i = 0; i < kVDD_COUNT; i++)

  04b88	e3a03000	 mov         r3, #0
  04b8c	e58d3000	 str         r3, [sp]
  04b90	ea000002	 b           |$LN20@PrcmDumpRe|
  04b94		 |$LN19@PrcmDumpRe|
  04b94	e59d3000	 ldr         r3, [sp]
  04b98	e2833001	 add         r3, r3, #1
  04b9c	e58d3000	 str         r3, [sp]
  04ba0		 |$LN20@PrcmDumpRe|
  04ba0	e59d3000	 ldr         r3, [sp]
  04ba4	e353000a	 cmp         r3, #0xA
  04ba8	aa000016	 bge         |$LN18@PrcmDumpRe|

; 2569 :         if (s_VddTable[i])

  04bac	e59d1000	 ldr         r1, [sp]
  04bb0	e3a03004	 mov         r3, #4
  04bb4	e0020391	 mul         r2, r1, r3
  04bb8	e59f32b8	 ldr         r3, [pc, #0x2B8]
  04bbc	e0833002	 add         r3, r3, r2
  04bc0	e5933000	 ldr         r3, [r3]
  04bc4	e3530000	 cmp         r3, #0
  04bc8	0a00000d	 beq         |$LN17@PrcmDumpRe|

; 2570 : 		    OALMSG(1, (L"%s %d\r\n", s_VddNameTable[i], s_VddTable[i]));

  04bcc	e59d1000	 ldr         r1, [sp]
  04bd0	e3a03004	 mov         r3, #4
  04bd4	e0020391	 mul         r2, r1, r3
  04bd8	e59f3298	 ldr         r3, [pc, #0x298]
  04bdc	e0833002	 add         r3, r3, r2
  04be0	e5932000	 ldr         r2, [r3]
  04be4	e59d0000	 ldr         r0, [sp]
  04be8	e3a03004	 mov         r3, #4
  04bec	e0010390	 mul         r1, r0, r3
  04bf0	e59f327c	 ldr         r3, [pc, #0x27C]
  04bf4	e0833001	 add         r3, r3, r1
  04bf8	e5931000	 ldr         r1, [r3]
  04bfc	e59f0240	 ldr         r0, [pc, #0x240]
  04c00	eb000000	 bl          NKDbgPrintfW
  04c04		 |$LN17@PrcmDumpRe|

; 2571 : 
; 2572 : 	// dump s_DpllTable ref count field
; 2573 :     OALMSG(1, (L"\r\nDPLL ref counts:\r\n"));

  04c04	eaffffe2	 b           |$LN19@PrcmDumpRe|
  04c08		 |$LN18@PrcmDumpRe|
  04c08	e59f0260	 ldr         r0, [pc, #0x260]
  04c0c	eb000000	 bl          NKDbgPrintfW

; 2574 :     for (i = 0; i < kDPLL_COUNT; i++)

  04c10	e3a03000	 mov         r3, #0
  04c14	e58d3000	 str         r3, [sp]
  04c18	ea000002	 b           |$LN16@PrcmDumpRe|
  04c1c		 |$LN15@PrcmDumpRe|
  04c1c	e59d3000	 ldr         r3, [sp]
  04c20	e2833001	 add         r3, r3, #1
  04c24	e58d3000	 str         r3, [sp]
  04c28		 |$LN16@PrcmDumpRe|
  04c28	e59d3000	 ldr         r3, [sp]
  04c2c	e3530006	 cmp         r3, #6
  04c30	aa000018	 bge         |$LN14@PrcmDumpRe|

; 2575 :         if (s_DpllTable[i].refCount)

  04c34	e59d1000	 ldr         r1, [sp]
  04c38	e3a0300c	 mov         r3, #0xC
  04c3c	e0020391	 mul         r2, r1, r3
  04c40	e59f3224	 ldr         r3, [pc, #0x224]
  04c44	e0833002	 add         r3, r3, r2
  04c48	e2833004	 add         r3, r3, #4
  04c4c	e5933000	 ldr         r3, [r3]
  04c50	e3530000	 cmp         r3, #0
  04c54	0a00000e	 beq         |$LN13@PrcmDumpRe|

; 2576 :             OALMSG(1, (L"%s %d\r\n", s_DpllNameTable[i], s_DpllTable[i].refCount));

  04c58	e59d1000	 ldr         r1, [sp]
  04c5c	e3a0300c	 mov         r3, #0xC
  04c60	e0020391	 mul         r2, r1, r3
  04c64	e59f3200	 ldr         r3, [pc, #0x200]
  04c68	e0833002	 add         r3, r3, r2
  04c6c	e2833004	 add         r3, r3, #4
  04c70	e5932000	 ldr         r2, [r3]
  04c74	e59d0000	 ldr         r0, [sp]
  04c78	e3a03004	 mov         r3, #4
  04c7c	e0010390	 mul         r1, r0, r3
  04c80	e59f31e0	 ldr         r3, [pc, #0x1E0]
  04c84	e0833001	 add         r3, r3, r1
  04c88	e5931000	 ldr         r1, [r3]
  04c8c	e59f01b0	 ldr         r0, [pc, #0x1B0]
  04c90	eb000000	 bl          NKDbgPrintfW
  04c94		 |$LN13@PrcmDumpRe|

; 2577 : 
; 2578 :     // dump s_DpllClkOutTable ref count field
; 2579 :     OALMSG(1, (L"\r\nDPLL CLKOUT ref counts:\r\n"));

  04c94	eaffffe0	 b           |$LN15@PrcmDumpRe|
  04c98		 |$LN14@PrcmDumpRe|
  04c98	e59f01c4	 ldr         r0, [pc, #0x1C4]
  04c9c	eb000000	 bl          NKDbgPrintfW

; 2580 :     for (i = 0; i < kDPLL_CLKOUT_COUNT; i++)

  04ca0	e3a03000	 mov         r3, #0
  04ca4	e58d3000	 str         r3, [sp]
  04ca8	ea000002	 b           |$LN12@PrcmDumpRe|
  04cac		 |$LN11@PrcmDumpRe|
  04cac	e59d3000	 ldr         r3, [sp]
  04cb0	e2833001	 add         r3, r3, #1
  04cb4	e58d3000	 str         r3, [sp]
  04cb8		 |$LN12@PrcmDumpRe|
  04cb8	e59d3000	 ldr         r3, [sp]
  04cbc	e3530010	 cmp         r3, #0x10
  04cc0	aa000018	 bge         |$LN10@PrcmDumpRe|

; 2581 :         if (s_DpllClkOutTable[i].refCount)

  04cc4	e59d1000	 ldr         r1, [sp]
  04cc8	e3a03008	 mov         r3, #8
  04ccc	e0020391	 mul         r2, r1, r3
  04cd0	e59f3188	 ldr         r3, [pc, #0x188]
  04cd4	e0833002	 add         r3, r3, r2
  04cd8	e2833004	 add         r3, r3, #4
  04cdc	e5933000	 ldr         r3, [r3]
  04ce0	e3530000	 cmp         r3, #0
  04ce4	0a00000e	 beq         |$LN9@PrcmDumpRe|

; 2582 :             OALMSG(1, (L"%s %d\r\n", s_DpllClkOutNameTable[i], s_DpllClkOutTable[i].refCount));

  04ce8	e59d1000	 ldr         r1, [sp]
  04cec	e3a03008	 mov         r3, #8
  04cf0	e0020391	 mul         r2, r1, r3
  04cf4	e59f3164	 ldr         r3, [pc, #0x164]
  04cf8	e0833002	 add         r3, r3, r2
  04cfc	e2833004	 add         r3, r3, #4
  04d00	e5932000	 ldr         r2, [r3]
  04d04	e59d0000	 ldr         r0, [sp]
  04d08	e3a03004	 mov         r3, #4
  04d0c	e0010390	 mul         r1, r0, r3
  04d10	e59f3144	 ldr         r3, [pc, #0x144]
  04d14	e0833001	 add         r3, r3, r1
  04d18	e5931000	 ldr         r1, [r3]
  04d1c	e59f0120	 ldr         r0, [pc, #0x120]
  04d20	eb000000	 bl          NKDbgPrintfW
  04d24		 |$LN9@PrcmDumpRe|

; 2583 : 
; 2584 : 	// dump s_SrcClockTable ref count field
; 2585 :     OALMSG(1, (L"\r\nSRC CLOCK ref counts:\r\n"));

  04d24	eaffffe0	 b           |$LN11@PrcmDumpRe|
  04d28		 |$LN10@PrcmDumpRe|
  04d28	e59f0128	 ldr         r0, [pc, #0x128]
  04d2c	eb000000	 bl          NKDbgPrintfW

; 2586 :     for (i = 0; i < kSOURCE_CLOCK_COUNT; i++)

  04d30	e3a03000	 mov         r3, #0
  04d34	e58d3000	 str         r3, [sp]
  04d38	ea000002	 b           |$LN8@PrcmDumpRe|
  04d3c		 |$LN7@PrcmDumpRe|
  04d3c	e59d3000	 ldr         r3, [sp]
  04d40	e2833001	 add         r3, r3, #1
  04d44	e58d3000	 str         r3, [sp]
  04d48		 |$LN8@PrcmDumpRe|
  04d48	e59d3000	 ldr         r3, [sp]
  04d4c	e353005a	 cmp         r3, #0x5A
  04d50	aa000018	 bge         |$LN6@PrcmDumpRe|

; 2587 :         if (s_SrcClockTable[i].refCount)

  04d54	e59d1000	 ldr         r1, [sp]
  04d58	e3a03014	 mov         r3, #0x14
  04d5c	e0020391	 mul         r2, r1, r3
  04d60	e59f30ec	 ldr         r3, [pc, #0xEC]
  04d64	e0833002	 add         r3, r3, r2
  04d68	e2833004	 add         r3, r3, #4
  04d6c	e5933000	 ldr         r3, [r3]
  04d70	e3530000	 cmp         r3, #0
  04d74	0a00000e	 beq         |$LN5@PrcmDumpRe|

; 2588 :             OALMSG(1, (L"%s %d\r\n", s_SrcClockNameTable[i], s_SrcClockTable[i].refCount));

  04d78	e59d1000	 ldr         r1, [sp]
  04d7c	e3a03014	 mov         r3, #0x14
  04d80	e0020391	 mul         r2, r1, r3
  04d84	e59f30c8	 ldr         r3, [pc, #0xC8]
  04d88	e0833002	 add         r3, r3, r2
  04d8c	e2833004	 add         r3, r3, #4
  04d90	e5932000	 ldr         r2, [r3]
  04d94	e59d0000	 ldr         r0, [sp]
  04d98	e3a03004	 mov         r3, #4
  04d9c	e0010390	 mul         r1, r0, r3
  04da0	e59f30a8	 ldr         r3, [pc, #0xA8]
  04da4	e0833001	 add         r3, r3, r1
  04da8	e5931000	 ldr         r1, [r3]
  04dac	e59f0090	 ldr         r0, [pc, #0x90]
  04db0	eb000000	 bl          NKDbgPrintfW
  04db4		 |$LN5@PrcmDumpRe|

; 2589 : 
; 2590 :     // domain refCount
; 2591 :     for (i = 0; i < POWERDOMAIN_COUNT; i++)

  04db4	eaffffe0	 b           |$LN7@PrcmDumpRe|
  04db8		 |$LN6@PrcmDumpRe|
  04db8	e3a03000	 mov         r3, #0
  04dbc	e58d3000	 str         r3, [sp]
  04dc0	ea000002	 b           |$LN4@PrcmDumpRe|
  04dc4		 |$LN3@PrcmDumpRe|
  04dc4	e59d3000	 ldr         r3, [sp]
  04dc8	e2833001	 add         r3, r3, #1
  04dcc	e58d3000	 str         r3, [sp]
  04dd0		 |$LN4@PrcmDumpRe|
  04dd0	e59d3000	 ldr         r3, [sp]
  04dd4	e353000d	 cmp         r3, #0xD
  04dd8	aa000016	 bge         |$LN2@PrcmDumpRe|

; 2592 :         if (s_DomainTable[i].refCount)

  04ddc	e59d1000	 ldr         r1, [sp]
  04de0	e3a0301c	 mov         r3, #0x1C
  04de4	e0020391	 mul         r2, r1, r3
  04de8	e59f305c	 ldr         r3, [pc, #0x5C]
  04dec	e0833002	 add         r3, r3, r2
  04df0	e5933000	 ldr         r3, [r3]
  04df4	e3530000	 cmp         r3, #0
  04df8	0a00000d	 beq         |$LN1@PrcmDumpRe|

; 2593 :             OALMSG(1, (L"%s %d\r\n", DomainNameTable[i], s_DomainTable[i].refCount));

  04dfc	e59d1000	 ldr         r1, [sp]
  04e00	e3a0301c	 mov         r3, #0x1C
  04e04	e0020391	 mul         r2, r1, r3
  04e08	e59f303c	 ldr         r3, [pc, #0x3C]
  04e0c	e0833002	 add         r3, r3, r2
  04e10	e5932000	 ldr         r2, [r3]
  04e14	e59d0000	 ldr         r0, [sp]
  04e18	e3a03004	 mov         r3, #4
  04e1c	e0010390	 mul         r1, r0, r3
  04e20	e59f3020	 ldr         r3, [pc, #0x20]
  04e24	e0833001	 add         r3, r3, r1
  04e28	e5931000	 ldr         r1, [r3]
  04e2c	e59f0010	 ldr         r0, [pc, #0x10]
  04e30	eb000000	 bl          NKDbgPrintfW
  04e34		 |$LN1@PrcmDumpRe|

; 2594 : }

  04e34	eaffffe2	 b           |$LN3@PrcmDumpRe|
  04e38		 |$LN2@PrcmDumpRe|
  04e38	e28dd004	 add         sp, sp, #4
  04e3c	e49de004	 ldr         lr, [sp], #4
  04e40	e12fff1e	 bx          lr
  04e44		 |$LN26@PrcmDumpRe|
  04e44		 |$LN27@PrcmDumpRe|
  04e44	00000000	 DCD         |??_C@_1BA@NOOLMKMI@?$AA?$CF?$AAs?$AA?5?$AA?$CF?$AAd?$AA?$AN?$AA?6?$AA?$AA@|
  04e48		 |$LN28@PrcmDumpRe|
  04e48	00000000	 DCD         |DomainNameTable|
  04e4c		 |$LN29@PrcmDumpRe|
  04e4c	00000000	 DCD         |s_DomainTable|
  04e50		 |$LN30@PrcmDumpRe|
  04e50	00000000	 DCD         |s_SrcClockNameTable|
  04e54		 |$LN31@PrcmDumpRe|
  04e54	00000000	 DCD         |s_SrcClockTable|
  04e58		 |$LN32@PrcmDumpRe|
  04e58	00000000	 DCD         |??_C@_1DE@MNKDAJMB@?$AA?$AN?$AA?6?$AAS?$AAR?$AAC?$AA?5?$AAC?$AAL?$AAO?$AAC?$AAK?$AA?5?$AAr?$AAe?$AAf?$AA?5?$AAc?$AAo?$AAu?$AAn?$AAt?$AAs?$AA?3?$AA?$AN?$AA?6?$AA?$AA@|
  04e5c		 |$LN33@PrcmDumpRe|
  04e5c	00000000	 DCD         |s_DpllClkOutNameTable|
  04e60		 |$LN34@PrcmDumpRe|
  04e60	00000000	 DCD         |s_DpllClkOutTable|
  04e64		 |$LN35@PrcmDumpRe|
  04e64	00000000	 DCD         |??_C@_1DI@PIJNCBJB@?$AA?$AN?$AA?6?$AAD?$AAP?$AAL?$AAL?$AA?5?$AAC?$AAL?$AAK?$AAO?$AAU?$AAT?$AA?5?$AAr?$AAe?$AAf?$AA?5?$AAc?$AAo?$AAu?$AAn?$AAt?$AAs?$AA?3?$AA?$AN?$AA?6?$AA?$AA@|
  04e68		 |$LN36@PrcmDumpRe|
  04e68	00000000	 DCD         |s_DpllNameTable|
  04e6c		 |$LN37@PrcmDumpRe|
  04e6c	00000000	 DCD         |s_DpllTable|
  04e70		 |$LN38@PrcmDumpRe|
  04e70	00000000	 DCD         |??_C@_1CK@MBLFPBCE@?$AA?$AN?$AA?6?$AAD?$AAP?$AAL?$AAL?$AA?5?$AAr?$AAe?$AAf?$AA?5?$AAc?$AAo?$AAu?$AAn?$AAt?$AAs?$AA?3?$AA?$AN?$AA?6?$AA?$AA@|
  04e74		 |$LN39@PrcmDumpRe|
  04e74	00000000	 DCD         |s_VddNameTable|
  04e78		 |$LN40@PrcmDumpRe|
  04e78	00000000	 DCD         |s_VddTable|
  04e7c		 |$LN41@PrcmDumpRe|
  04e7c	00000000	 DCD         |??_C@_1CI@DFICMPGN@?$AA?$AN?$AA?6?$AAV?$AAD?$AAD?$AA?5?$AAr?$AAe?$AAf?$AA?5?$AAc?$AAo?$AAu?$AAn?$AAt?$AAs?$AA?3?$AA?$AN?$AA?6?$AA?$AA@|
  04e80		 |$M49777|

			 ENDP  ; |PrcmDumpRefCounts|

	EXPORT	|PrcmSaveRefCounts|
	IMPORT	|s_rgDeviceLookupTable|
	IMPORT	|memcpy|

  00028			 AREA	 |.bss|, NOINIT
|DomainRefCountSnapshot| % 0x34
|SavedDeviceFClkRefCount| % 0x144
|SavedDeviceIClkRefCount| % 0x144
|s_SavedSrcClockTable| % 0x708
|s_SavedDpllClkOutTable| % 0x80
|s_SavedDpllTable| % 0x48
|s_SavedVddTable| % 0x28

  000a8			 AREA	 |.pdata|, PDATA
|$T49801| DCD	|$LN27@PrcmSaveRe|
	DCD	0x4000cb02
; Function compile flags: /Odtp

  04e80			 AREA	 |.text|, CODE, ARM

  04e80		 |PrcmSaveRefCounts| PROC

; 2598 : {

  04e80		 |$LN27@PrcmSaveRe|
  04e80	e52de004	 str         lr, [sp, #-4]!
  04e84	e24dd004	 sub         sp, sp, #4
  04e88		 |$M49798|

; 2599 :     int i;
; 2600 : 	
; 2601 :     // save s_VddTable
; 2602 :     for (i = 0; i < kVDD_COUNT; i++)

  04e88	e3a03000	 mov         r3, #0
  04e8c	e58d3000	 str         r3, [sp]
  04e90	ea000002	 b           |$LN22@PrcmSaveRe|
  04e94		 |$LN21@PrcmSaveRe|
  04e94	e59d3000	 ldr         r3, [sp]
  04e98	e2833001	 add         r3, r3, #1
  04e9c	e58d3000	 str         r3, [sp]
  04ea0		 |$LN22@PrcmSaveRe|
  04ea0	e59d3000	 ldr         r3, [sp]
  04ea4	e353000a	 cmp         r3, #0xA
  04ea8	aa00000c	 bge         |$LN20@PrcmSaveRe|

; 2603 :         s_SavedVddTable[i] = s_VddTable[i];

  04eac	e59d1000	 ldr         r1, [sp]
  04eb0	e3a03004	 mov         r3, #4
  04eb4	e0020391	 mul         r2, r1, r3
  04eb8	e59f32e8	 ldr         r3, [pc, #0x2E8]
  04ebc	e0830002	 add         r0, r3, r2
  04ec0	e59d1000	 ldr         r1, [sp]
  04ec4	e3a03004	 mov         r3, #4
  04ec8	e0020391	 mul         r2, r1, r3
  04ecc	e59f32d0	 ldr         r3, [pc, #0x2D0]
  04ed0	e0832002	 add         r2, r3, r2
  04ed4	e5903000	 ldr         r3, [r0]
  04ed8	e5823000	 str         r3, [r2]
  04edc	eaffffec	 b           |$LN21@PrcmSaveRe|
  04ee0		 |$LN20@PrcmSaveRe|

; 2604 : 
; 2605 : 	// save s_DpllTable
; 2606 :     for (i = 0; i < kDPLL_COUNT; i++)

  04ee0	e3a03000	 mov         r3, #0
  04ee4	e58d3000	 str         r3, [sp]
  04ee8	ea000002	 b           |$LN19@PrcmSaveRe|
  04eec		 |$LN18@PrcmSaveRe|
  04eec	e59d3000	 ldr         r3, [sp]
  04ef0	e2833001	 add         r3, r3, #1
  04ef4	e58d3000	 str         r3, [sp]
  04ef8		 |$LN19@PrcmSaveRe|
  04ef8	e59d3000	 ldr         r3, [sp]
  04efc	e3530006	 cmp         r3, #6
  04f00	aa00000d	 bge         |$LN17@PrcmSaveRe|

; 2607 :         s_SavedDpllTable[i] = s_DpllTable[i];

  04f04	e59d1000	 ldr         r1, [sp]
  04f08	e3a0300c	 mov         r3, #0xC
  04f0c	e0020391	 mul         r2, r1, r3
  04f10	e59f3288	 ldr         r3, [pc, #0x288]
  04f14	e083e002	 add         lr, r3, r2
  04f18	e59d1000	 ldr         r1, [sp]
  04f1c	e3a0300c	 mov         r3, #0xC
  04f20	e0020391	 mul         r2, r1, r3
  04f24	e59f3270	 ldr         r3, [pc, #0x270]
  04f28	e0830002	 add         r0, r3, r2
  04f2c	e1a0100e	 mov         r1, lr
  04f30	e3a0200c	 mov         r2, #0xC
  04f34	eb000000	 bl          memcpy
  04f38	eaffffeb	 b           |$LN18@PrcmSaveRe|
  04f3c		 |$LN17@PrcmSaveRe|

; 2608 : 
; 2609 :     // save s_DpllClkOutTable
; 2610 :     for (i = 0; i < kDPLL_CLKOUT_COUNT; i++)

  04f3c	e3a03000	 mov         r3, #0
  04f40	e58d3000	 str         r3, [sp]
  04f44	ea000002	 b           |$LN16@PrcmSaveRe|
  04f48		 |$LN15@PrcmSaveRe|
  04f48	e59d3000	 ldr         r3, [sp]
  04f4c	e2833001	 add         r3, r3, #1
  04f50	e58d3000	 str         r3, [sp]
  04f54		 |$LN16@PrcmSaveRe|
  04f54	e59d3000	 ldr         r3, [sp]
  04f58	e3530010	 cmp         r3, #0x10
  04f5c	aa00000d	 bge         |$LN14@PrcmSaveRe|

; 2611 :         s_SavedDpllClkOutTable[i] = s_DpllClkOutTable[i];

  04f60	e59d1000	 ldr         r1, [sp]
  04f64	e3a03008	 mov         r3, #8
  04f68	e0020391	 mul         r2, r1, r3
  04f6c	e59f3224	 ldr         r3, [pc, #0x224]
  04f70	e083e002	 add         lr, r3, r2
  04f74	e59d1000	 ldr         r1, [sp]
  04f78	e3a03008	 mov         r3, #8
  04f7c	e0020391	 mul         r2, r1, r3
  04f80	e59f320c	 ldr         r3, [pc, #0x20C]
  04f84	e0830002	 add         r0, r3, r2
  04f88	e1a0100e	 mov         r1, lr
  04f8c	e3a02008	 mov         r2, #8
  04f90	eb000000	 bl          memcpy
  04f94	eaffffeb	 b           |$LN15@PrcmSaveRe|
  04f98		 |$LN14@PrcmSaveRe|

; 2612 : 
; 2613 : 	// save s_SrcClockTable
; 2614 :     for (i = 0; i < kSOURCE_CLOCK_COUNT; i++)

  04f98	e3a03000	 mov         r3, #0
  04f9c	e58d3000	 str         r3, [sp]
  04fa0	ea000002	 b           |$LN13@PrcmSaveRe|
  04fa4		 |$LN12@PrcmSaveRe|
  04fa4	e59d3000	 ldr         r3, [sp]
  04fa8	e2833001	 add         r3, r3, #1
  04fac	e58d3000	 str         r3, [sp]
  04fb0		 |$LN13@PrcmSaveRe|
  04fb0	e59d3000	 ldr         r3, [sp]
  04fb4	e353005a	 cmp         r3, #0x5A
  04fb8	aa00000d	 bge         |$LN11@PrcmSaveRe|

; 2615 :         s_SavedSrcClockTable[i] = s_SrcClockTable[i];

  04fbc	e59d1000	 ldr         r1, [sp]
  04fc0	e3a03014	 mov         r3, #0x14
  04fc4	e0020391	 mul         r2, r1, r3
  04fc8	e59f31c0	 ldr         r3, [pc, #0x1C0]
  04fcc	e083e002	 add         lr, r3, r2
  04fd0	e59d1000	 ldr         r1, [sp]
  04fd4	e3a03014	 mov         r3, #0x14
  04fd8	e0020391	 mul         r2, r1, r3
  04fdc	e59f31a8	 ldr         r3, [pc, #0x1A8]
  04fe0	e0830002	 add         r0, r3, r2
  04fe4	e1a0100e	 mov         r1, lr
  04fe8	e3a02014	 mov         r2, #0x14
  04fec	eb000000	 bl          memcpy
  04ff0	eaffffeb	 b           |$LN12@PrcmSaveRe|
  04ff4		 |$LN11@PrcmSaveRe|

; 2616 : 
; 2617 :     for (i = 0; i < OMAP_DEVICE_COUNT; i++)

  04ff4	e3a03000	 mov         r3, #0
  04ff8	e58d3000	 str         r3, [sp]
  04ffc	ea000002	 b           |$LN10@PrcmSaveRe|
  05000		 |$LN9@PrcmSaveRe|
  05000	e59d3000	 ldr         r3, [sp]
  05004	e2833001	 add         r3, r3, #1
  05008	e58d3000	 str         r3, [sp]
  0500c		 |$LN10@PrcmSaveRe|
  0500c	e59d3000	 ldr         r3, [sp]
  05010	e3530051	 cmp         r3, #0x51
  05014	aa00003e	 bge         |$LN8@PrcmSaveRe|

; 2618 : 	{
; 2619 :         // prcm iclk ref count
; 2620 :         if (s_rgDeviceLookupTable[i].piclk)

  05018	e59d1000	 ldr         r1, [sp]
  0501c	e3a0301c	 mov         r3, #0x1C
  05020	e0020391	 mul         r2, r1, r3
  05024	e59f3158	 ldr         r3, [pc, #0x158]
  05028	e0833002	 add         r3, r3, r2
  0502c	e2833008	 add         r3, r3, #8
  05030	e5933000	 ldr         r3, [r3]
  05034	e3530000	 cmp         r3, #0
  05038	0a00000e	 beq         |$LN7@PrcmSaveRe|

; 2621 :             SavedDeviceIClkRefCount[i] = s_rgDeviceLookupTable[i].piclk->refCount;

  0503c	e59d1000	 ldr         r1, [sp]
  05040	e3a0301c	 mov         r3, #0x1C
  05044	e0020391	 mul         r2, r1, r3
  05048	e59f3134	 ldr         r3, [pc, #0x134]
  0504c	e0833002	 add         r3, r3, r2
  05050	e2833008	 add         r3, r3, #8
  05054	e5930000	 ldr         r0, [r3]
  05058	e59d1000	 ldr         r1, [sp]
  0505c	e3a03004	 mov         r3, #4
  05060	e0020391	 mul         r2, r1, r3
  05064	e59f311c	 ldr         r3, [pc, #0x11C]
  05068	e0832002	 add         r2, r3, r2
  0506c	e5903000	 ldr         r3, [r0]
  05070	e5823000	 str         r3, [r2]

; 2622 : 		else

  05074	ea000006	 b           |$LN6@PrcmSaveRe|
  05078		 |$LN7@PrcmSaveRe|

; 2623 : 		    SavedDeviceIClkRefCount[i] = 0;

  05078	e59d1000	 ldr         r1, [sp]
  0507c	e3a03004	 mov         r3, #4
  05080	e0020391	 mul         r2, r1, r3
  05084	e59f30fc	 ldr         r3, [pc, #0xFC]
  05088	e0832002	 add         r2, r3, r2
  0508c	e3a03000	 mov         r3, #0
  05090	e5823000	 str         r3, [r2]
  05094		 |$LN6@PrcmSaveRe|

; 2624 : 		// prcm fclk ref count
; 2625 :         if (s_rgDeviceLookupTable[i].pfclk)

  05094	e59d1000	 ldr         r1, [sp]
  05098	e3a0301c	 mov         r3, #0x1C
  0509c	e0020391	 mul         r2, r1, r3
  050a0	e59f30dc	 ldr         r3, [pc, #0xDC]
  050a4	e0833002	 add         r3, r3, r2
  050a8	e2833004	 add         r3, r3, #4
  050ac	e5933000	 ldr         r3, [r3]
  050b0	e3530000	 cmp         r3, #0
  050b4	0a00000e	 beq         |$LN5@PrcmSaveRe|

; 2626 :             SavedDeviceFClkRefCount[i] = s_rgDeviceLookupTable[i].pfclk->refCount;

  050b8	e59d1000	 ldr         r1, [sp]
  050bc	e3a0301c	 mov         r3, #0x1C
  050c0	e0020391	 mul         r2, r1, r3
  050c4	e59f30b8	 ldr         r3, [pc, #0xB8]
  050c8	e0833002	 add         r3, r3, r2
  050cc	e2833004	 add         r3, r3, #4
  050d0	e5930000	 ldr         r0, [r3]
  050d4	e59d1000	 ldr         r1, [sp]
  050d8	e3a03004	 mov         r3, #4
  050dc	e0020391	 mul         r2, r1, r3
  050e0	e59f3098	 ldr         r3, [pc, #0x98]
  050e4	e0832002	 add         r2, r3, r2
  050e8	e5903000	 ldr         r3, [r0]
  050ec	e5823000	 str         r3, [r2]

; 2627 : 		else

  050f0	ea000006	 b           |$LN4@PrcmSaveRe|
  050f4		 |$LN5@PrcmSaveRe|

; 2628 :             SavedDeviceFClkRefCount[i] = 0;

  050f4	e59d1000	 ldr         r1, [sp]
  050f8	e3a03004	 mov         r3, #4
  050fc	e0020391	 mul         r2, r1, r3
  05100	e59f3078	 ldr         r3, [pc, #0x78]
  05104	e0832002	 add         r2, r3, r2
  05108	e3a03000	 mov         r3, #0
  0510c	e5823000	 str         r3, [r2]
  05110		 |$LN4@PrcmSaveRe|

; 2629 : 	}

  05110	eaffffba	 b           |$LN9@PrcmSaveRe|
  05114		 |$LN8@PrcmSaveRe|

; 2630 : 	
; 2631 :     // domain refCount
; 2632 :     for (i = 0; i < POWERDOMAIN_COUNT; i++)

  05114	e3a03000	 mov         r3, #0
  05118	e58d3000	 str         r3, [sp]
  0511c	ea000002	 b           |$LN3@PrcmSaveRe|
  05120		 |$LN2@PrcmSaveRe|
  05120	e59d3000	 ldr         r3, [sp]
  05124	e2833001	 add         r3, r3, #1
  05128	e58d3000	 str         r3, [sp]
  0512c		 |$LN3@PrcmSaveRe|
  0512c	e59d3000	 ldr         r3, [sp]
  05130	e353000d	 cmp         r3, #0xD
  05134	aa00000c	 bge         |$LN1@PrcmSaveRe|

; 2633 :         DomainRefCountSnapshot[i] = s_DomainTable[i].refCount;

  05138	e59d1000	 ldr         r1, [sp]
  0513c	e3a0301c	 mov         r3, #0x1C
  05140	e0020391	 mul         r2, r1, r3
  05144	e59f3030	 ldr         r3, [pc, #0x30]
  05148	e0830002	 add         r0, r3, r2
  0514c	e59d1000	 ldr         r1, [sp]
  05150	e3a03004	 mov         r3, #4
  05154	e0020391	 mul         r2, r1, r3
  05158	e59f3018	 ldr         r3, [pc, #0x18]
  0515c	e0832002	 add         r2, r3, r2
  05160	e5903000	 ldr         r3, [r0]
  05164	e5823000	 str         r3, [r2]
  05168	eaffffec	 b           |$LN2@PrcmSaveRe|
  0516c		 |$LN1@PrcmSaveRe|

; 2634 : }

  0516c	e28dd004	 add         sp, sp, #4
  05170	e49de004	 ldr         lr, [sp], #4
  05174	e12fff1e	 bx          lr
  05178		 |$LN28@PrcmSaveRe|
  05178		 |$LN29@PrcmSaveRe|
  05178	00000000	 DCD         |DomainRefCountSnapshot|
  0517c		 |$LN30@PrcmSaveRe|
  0517c	00000000	 DCD         |s_DomainTable|
  05180		 |$LN31@PrcmSaveRe|
  05180	00000000	 DCD         |SavedDeviceFClkRefCount|
  05184		 |$LN32@PrcmSaveRe|
  05184	00000000	 DCD         |s_rgDeviceLookupTable|
  05188		 |$LN33@PrcmSaveRe|
  05188	00000000	 DCD         |SavedDeviceIClkRefCount|
  0518c		 |$LN34@PrcmSaveRe|
  0518c	00000000	 DCD         |s_SavedSrcClockTable|
  05190		 |$LN35@PrcmSaveRe|
  05190	00000000	 DCD         |s_SrcClockTable|
  05194		 |$LN36@PrcmSaveRe|
  05194	00000000	 DCD         |s_SavedDpllClkOutTable|
  05198		 |$LN37@PrcmSaveRe|
  05198	00000000	 DCD         |s_DpllClkOutTable|
  0519c		 |$LN38@PrcmSaveRe|
  0519c	00000000	 DCD         |s_SavedDpllTable|
  051a0		 |$LN39@PrcmSaveRe|
  051a0	00000000	 DCD         |s_DpllTable|
  051a4		 |$LN40@PrcmSaveRe|
  051a4	00000000	 DCD         |s_SavedVddTable|
  051a8		 |$LN41@PrcmSaveRe|
  051a8	00000000	 DCD         |s_VddTable|
  051ac		 |$M49799|

			 ENDP  ; |PrcmSaveRefCounts|

	EXPORT	|??_C@_1EA@JKDOBNCH@?$AAS?$AAa?$AAv?$AAe?$AAd?$AA?5?$AAD?$AAo?$AAm?$AAa?$AAi?$AAn?$AA?5?$AAR?$AAe?$AAf?$AAC?$AAo?$AAu?$AAn?$AAt?$AA?5?$AA?$CF?$AAs?$AA?5?$AA?$DN?$AA?5?$AA?$CF?$AAd?$AA?$AN?$AA?6?$AA?$AA@| [ DATA ] ; `string'
	EXPORT	|??_C@_1DI@LNGAMPKI@?$AA?$AN?$AA?6?$AAS?$AAa?$AAv?$AAe?$AAd?$AA?5?$AAD?$AAo?$AAm?$AAa?$AAi?$AAn?$AA?5?$AAR?$AAe?$AAf?$AAC?$AAo?$AAu?$AAn?$AAt?$AAs?$AA?3?$AA?$AN?$AA?6?$AA?$AA@| [ DATA ] ; `string'
	EXPORT	|??_C@_1FE@HIOGEJJC@?$AAS?$AAa?$AAv?$AAe?$AAd?$AA?5?$AAP?$AAR?$AAC?$AAM?$AA?5?$AAD?$AAe?$AAv?$AAi?$AAc?$AAe?$AA?5?$AAF?$AAC?$AAL?$AAK?$AA?5?$AAR?$AAe?$AAf?$AAC?$AAo?$AAu?$AAn?$AAt?$AA?5@| [ DATA ] ; `string'
	EXPORT	|??_C@_1EE@CNIHEABP@?$AA?$AN?$AA?6?$AAS?$AAa?$AAv?$AAe?$AAd?$AA?5?$AAd?$AAe?$AAv?$AAi?$AAc?$AAe?$AA?5?$AAF?$AAC?$AAL?$AAK?$AA?5?$AAr?$AAe?$AAf?$AA?5?$AAc?$AAo?$AAu?$AAn?$AAt?$AAs?$AA?3?$AA?$AN@| [ DATA ] ; `string'
	EXPORT	|??_C@_1FE@POANKPCH@?$AAS?$AAa?$AAv?$AAe?$AAd?$AA?5?$AAP?$AAR?$AAC?$AAM?$AA?5?$AAD?$AAe?$AAv?$AAi?$AAc?$AAe?$AA?5?$AAI?$AAC?$AAL?$AAK?$AA?5?$AAR?$AAe?$AAf?$AAC?$AAo?$AAu?$AAn?$AAt?$AA?5@| [ DATA ] ; `string'
	EXPORT	|??_C@_1EE@IMLOEHKF@?$AA?$AN?$AA?6?$AAS?$AAa?$AAv?$AAe?$AAd?$AA?5?$AAd?$AAe?$AAv?$AAi?$AAc?$AAe?$AA?5?$AAI?$AAC?$AAL?$AAK?$AA?5?$AAr?$AAe?$AAf?$AA?5?$AAc?$AAo?$AAu?$AAn?$AAt?$AAs?$AA?3?$AA?$AN@| [ DATA ] ; `string'
	EXPORT	|??_C@_1EA@FOBOPLCJ@?$AA?$AN?$AA?6?$AAS?$AAa?$AAv?$AAe?$AAd?$AA?5?$AAS?$AAR?$AAC?$AA?5?$AAC?$AAL?$AAO?$AAC?$AAK?$AA?5?$AAr?$AAe?$AAf?$AA?5?$AAc?$AAo?$AAu?$AAn?$AAt?$AAs?$AA?3?$AA?$AN?$AA?6?$AA?$AA@| [ DATA ] ; `string'
	EXPORT	|??_C@_1EE@GFHLPNPD@?$AA?$AN?$AA?6?$AAS?$AAa?$AAv?$AAe?$AAd?$AA?5?$AAD?$AAP?$AAL?$AAL?$AA?5?$AAC?$AAL?$AAK?$AAO?$AAU?$AAT?$AA?5?$AAr?$AAe?$AAf?$AA?5?$AAc?$AAo?$AAu?$AAn?$AAt?$AAs?$AA?3?$AA?$AN@| [ DATA ] ; `string'
	EXPORT	|??_C@_1DG@KDOAHHJA@?$AA?$AN?$AA?6?$AAS?$AAa?$AAv?$AAe?$AAd?$AA?5?$AAD?$AAP?$AAL?$AAL?$AA?5?$AAr?$AAe?$AAf?$AA?5?$AAc?$AAo?$AAu?$AAn?$AAt?$AAs?$AA?3?$AA?$AN?$AA?6?$AA?$AA@| [ DATA ] ; `string'
	EXPORT	|??_C@_1DE@KGLDHFLF@?$AA?$AN?$AA?6?$AAS?$AAa?$AAv?$AAe?$AAd?$AA?5?$AAV?$AAD?$AAD?$AA?5?$AAr?$AAe?$AAf?$AA?5?$AAc?$AAo?$AAu?$AAn?$AAt?$AAs?$AA?3?$AA?$AN?$AA?6?$AA?$AA@| [ DATA ] ; `string'
	EXPORT	|??_C@_1FC@DMOHKJJI@?$AA?$AN?$AA?6?$AAS?$AAa?$AAv?$AAe?$AAd?$AA?5?$AAI?$AAn?$AAf?$AAo?$AAr?$AAm?$AAa?$AAt?$AAi?$AAo?$AAn?$AA?5?$AAP?$AAr?$AAi?$AAo?$AAr?$AA?5?$AAt?$AAo?$AA?5?$AAS?$AAu?$AAs@| [ DATA ] ; `string'
	EXPORT	|PrcmDumpSavedRefCounts|

  000b0			 AREA	 |.pdata|, PDATA
|$T49820| DCD	|$LN33@PrcmDumpSa|
	DCD	0x40011402

  00000			 AREA	 |.rdata|, DATA, READONLY
|??_C@_1EA@JKDOBNCH@?$AAS?$AAa?$AAv?$AAe?$AAd?$AA?5?$AAD?$AAo?$AAm?$AAa?$AAi?$AAn?$AA?5?$AAR?$AAe?$AAf?$AAC?$AAo?$AAu?$AAn?$AAt?$AA?5?$AA?$CF?$AAs?$AA?5?$AA?$DN?$AA?5?$AA?$CF?$AAd?$AA?$AN?$AA?6?$AA?$AA@| DCB "S"
	DCB	0x0, "a", 0x0, "v", 0x0, "e", 0x0, "d", 0x0, " ", 0x0, "D"
	DCB	0x0, "o", 0x0, "m", 0x0, "a", 0x0, "i", 0x0, "n", 0x0, " "
	DCB	0x0, "R", 0x0, "e", 0x0, "f", 0x0, "C", 0x0, "o", 0x0, "u"
	DCB	0x0, "n", 0x0, "t", 0x0, " ", 0x0, "%", 0x0, "s", 0x0, " "
	DCB	0x0, "=", 0x0, " ", 0x0, "%", 0x0, "d", 0x0, 0xd, 0x0, 0xa
	DCB	0x0, 0x0, 0x0				; `string'

  00000			 AREA	 |.rdata|, DATA, READONLY
|??_C@_1DI@LNGAMPKI@?$AA?$AN?$AA?6?$AAS?$AAa?$AAv?$AAe?$AAd?$AA?5?$AAD?$AAo?$AAm?$AAa?$AAi?$AAn?$AA?5?$AAR?$AAe?$AAf?$AAC?$AAo?$AAu?$AAn?$AAt?$AAs?$AA?3?$AA?$AN?$AA?6?$AA?$AA@| DCB 0xd
	DCB	0x0, 0xa, 0x0, "S", 0x0, "a", 0x0, "v", 0x0, "e", 0x0, "d"
	DCB	0x0, " ", 0x0, "D", 0x0, "o", 0x0, "m", 0x0, "a", 0x0, "i"
	DCB	0x0, "n", 0x0, " ", 0x0, "R", 0x0, "e", 0x0, "f", 0x0, "C"
	DCB	0x0, "o", 0x0, "u", 0x0, "n", 0x0, "t", 0x0, "s", 0x0, ":"
	DCB	0x0, 0xd, 0x0, 0xa, 0x0, 0x0, 0x0	; `string'

  00000			 AREA	 |.rdata|, DATA, READONLY
|??_C@_1FE@HIOGEJJC@?$AAS?$AAa?$AAv?$AAe?$AAd?$AA?5?$AAP?$AAR?$AAC?$AAM?$AA?5?$AAD?$AAe?$AAv?$AAi?$AAc?$AAe?$AA?5?$AAF?$AAC?$AAL?$AAK?$AA?5?$AAR?$AAe?$AAf?$AAC?$AAo?$AAu?$AAn?$AAt?$AA?5@| DCB "S"
	DCB	0x0, "a", 0x0, "v", 0x0, "e", 0x0, "d", 0x0, " ", 0x0, "P"
	DCB	0x0, "R", 0x0, "C", 0x0, "M", 0x0, " ", 0x0, "D", 0x0, "e"
	DCB	0x0, "v", 0x0, "i", 0x0, "c", 0x0, "e", 0x0, " ", 0x0, "F"
	DCB	0x0, "C", 0x0, "L", 0x0, "K", 0x0, " ", 0x0, "R", 0x0, "e"
	DCB	0x0, "f", 0x0, "C", 0x0, "o", 0x0, "u", 0x0, "n", 0x0, "t"
	DCB	0x0, " ", 0x0, "%", 0x0, "s", 0x0, " ", 0x0, "=", 0x0, " "
	DCB	0x0, "%", 0x0, "d", 0x0, 0xd, 0x0, 0xa, 0x0, 0x0, 0x0 ; `string'

  00000			 AREA	 |.rdata|, DATA, READONLY
|??_C@_1EE@CNIHEABP@?$AA?$AN?$AA?6?$AAS?$AAa?$AAv?$AAe?$AAd?$AA?5?$AAd?$AAe?$AAv?$AAi?$AAc?$AAe?$AA?5?$AAF?$AAC?$AAL?$AAK?$AA?5?$AAr?$AAe?$AAf?$AA?5?$AAc?$AAo?$AAu?$AAn?$AAt?$AAs?$AA?3?$AA?$AN@| DCB 0xd
	DCB	0x0, 0xa, 0x0, "S", 0x0, "a", 0x0, "v", 0x0, "e", 0x0, "d"
	DCB	0x0, " ", 0x0, "d", 0x0, "e", 0x0, "v", 0x0, "i", 0x0, "c"
	DCB	0x0, "e", 0x0, " ", 0x0, "F", 0x0, "C", 0x0, "L", 0x0, "K"
	DCB	0x0, " ", 0x0, "r", 0x0, "e", 0x0, "f", 0x0, " ", 0x0, "c"
	DCB	0x0, "o", 0x0, "u", 0x0, "n", 0x0, "t", 0x0, "s", 0x0, ":"
	DCB	0x0, 0xd, 0x0, 0xa, 0x0, 0x0, 0x0	; `string'

  00000			 AREA	 |.rdata|, DATA, READONLY
|??_C@_1FE@POANKPCH@?$AAS?$AAa?$AAv?$AAe?$AAd?$AA?5?$AAP?$AAR?$AAC?$AAM?$AA?5?$AAD?$AAe?$AAv?$AAi?$AAc?$AAe?$AA?5?$AAI?$AAC?$AAL?$AAK?$AA?5?$AAR?$AAe?$AAf?$AAC?$AAo?$AAu?$AAn?$AAt?$AA?5@| DCB "S"
	DCB	0x0, "a", 0x0, "v", 0x0, "e", 0x0, "d", 0x0, " ", 0x0, "P"
	DCB	0x0, "R", 0x0, "C", 0x0, "M", 0x0, " ", 0x0, "D", 0x0, "e"
	DCB	0x0, "v", 0x0, "i", 0x0, "c", 0x0, "e", 0x0, " ", 0x0, "I"
	DCB	0x0, "C", 0x0, "L", 0x0, "K", 0x0, " ", 0x0, "R", 0x0, "e"
	DCB	0x0, "f", 0x0, "C", 0x0, "o", 0x0, "u", 0x0, "n", 0x0, "t"
	DCB	0x0, " ", 0x0, "%", 0x0, "s", 0x0, " ", 0x0, "=", 0x0, " "
	DCB	0x0, "%", 0x0, "d", 0x0, 0xd, 0x0, 0xa, 0x0, 0x0, 0x0 ; `string'

  00000			 AREA	 |.rdata|, DATA, READONLY
|??_C@_1EE@IMLOEHKF@?$AA?$AN?$AA?6?$AAS?$AAa?$AAv?$AAe?$AAd?$AA?5?$AAd?$AAe?$AAv?$AAi?$AAc?$AAe?$AA?5?$AAI?$AAC?$AAL?$AAK?$AA?5?$AAr?$AAe?$AAf?$AA?5?$AAc?$AAo?$AAu?$AAn?$AAt?$AAs?$AA?3?$AA?$AN@| DCB 0xd
	DCB	0x0, 0xa, 0x0, "S", 0x0, "a", 0x0, "v", 0x0, "e", 0x0, "d"
	DCB	0x0, " ", 0x0, "d", 0x0, "e", 0x0, "v", 0x0, "i", 0x0, "c"
	DCB	0x0, "e", 0x0, " ", 0x0, "I", 0x0, "C", 0x0, "L", 0x0, "K"
	DCB	0x0, " ", 0x0, "r", 0x0, "e", 0x0, "f", 0x0, " ", 0x0, "c"
	DCB	0x0, "o", 0x0, "u", 0x0, "n", 0x0, "t", 0x0, "s", 0x0, ":"
	DCB	0x0, 0xd, 0x0, 0xa, 0x0, 0x0, 0x0	; `string'

  00000			 AREA	 |.rdata|, DATA, READONLY
|??_C@_1EA@FOBOPLCJ@?$AA?$AN?$AA?6?$AAS?$AAa?$AAv?$AAe?$AAd?$AA?5?$AAS?$AAR?$AAC?$AA?5?$AAC?$AAL?$AAO?$AAC?$AAK?$AA?5?$AAr?$AAe?$AAf?$AA?5?$AAc?$AAo?$AAu?$AAn?$AAt?$AAs?$AA?3?$AA?$AN?$AA?6?$AA?$AA@| DCB 0xd
	DCB	0x0, 0xa, 0x0, "S", 0x0, "a", 0x0, "v", 0x0, "e", 0x0, "d"
	DCB	0x0, " ", 0x0, "S", 0x0, "R", 0x0, "C", 0x0, " ", 0x0, "C"
	DCB	0x0, "L", 0x0, "O", 0x0, "C", 0x0, "K", 0x0, " ", 0x0, "r"
	DCB	0x0, "e", 0x0, "f", 0x0, " ", 0x0, "c", 0x0, "o", 0x0, "u"
	DCB	0x0, "n", 0x0, "t", 0x0, "s", 0x0, ":", 0x0, 0xd, 0x0, 0xa
	DCB	0x0, 0x0, 0x0				; `string'

  00000			 AREA	 |.rdata|, DATA, READONLY
|??_C@_1EE@GFHLPNPD@?$AA?$AN?$AA?6?$AAS?$AAa?$AAv?$AAe?$AAd?$AA?5?$AAD?$AAP?$AAL?$AAL?$AA?5?$AAC?$AAL?$AAK?$AAO?$AAU?$AAT?$AA?5?$AAr?$AAe?$AAf?$AA?5?$AAc?$AAo?$AAu?$AAn?$AAt?$AAs?$AA?3?$AA?$AN@| DCB 0xd
	DCB	0x0, 0xa, 0x0, "S", 0x0, "a", 0x0, "v", 0x0, "e", 0x0, "d"
	DCB	0x0, " ", 0x0, "D", 0x0, "P", 0x0, "L", 0x0, "L", 0x0, " "
	DCB	0x0, "C", 0x0, "L", 0x0, "K", 0x0, "O", 0x0, "U", 0x0, "T"
	DCB	0x0, " ", 0x0, "r", 0x0, "e", 0x0, "f", 0x0, " ", 0x0, "c"
	DCB	0x0, "o", 0x0, "u", 0x0, "n", 0x0, "t", 0x0, "s", 0x0, ":"
	DCB	0x0, 0xd, 0x0, 0xa, 0x0, 0x0, 0x0	; `string'

  00000			 AREA	 |.rdata|, DATA, READONLY
|??_C@_1DG@KDOAHHJA@?$AA?$AN?$AA?6?$AAS?$AAa?$AAv?$AAe?$AAd?$AA?5?$AAD?$AAP?$AAL?$AAL?$AA?5?$AAr?$AAe?$AAf?$AA?5?$AAc?$AAo?$AAu?$AAn?$AAt?$AAs?$AA?3?$AA?$AN?$AA?6?$AA?$AA@| DCB 0xd
	DCB	0x0, 0xa, 0x0, "S", 0x0, "a", 0x0, "v", 0x0, "e", 0x0, "d"
	DCB	0x0, " ", 0x0, "D", 0x0, "P", 0x0, "L", 0x0, "L", 0x0, " "
	DCB	0x0, "r", 0x0, "e", 0x0, "f", 0x0, " ", 0x0, "c", 0x0, "o"
	DCB	0x0, "u", 0x0, "n", 0x0, "t", 0x0, "s", 0x0, ":", 0x0, 0xd
	DCB	0x0, 0xa, 0x0, 0x0, 0x0			; `string'

  00000			 AREA	 |.rdata|, DATA, READONLY
|??_C@_1DE@KGLDHFLF@?$AA?$AN?$AA?6?$AAS?$AAa?$AAv?$AAe?$AAd?$AA?5?$AAV?$AAD?$AAD?$AA?5?$AAr?$AAe?$AAf?$AA?5?$AAc?$AAo?$AAu?$AAn?$AAt?$AAs?$AA?3?$AA?$AN?$AA?6?$AA?$AA@| DCB 0xd
	DCB	0x0, 0xa, 0x0, "S", 0x0, "a", 0x0, "v", 0x0, "e", 0x0, "d"
	DCB	0x0, " ", 0x0, "V", 0x0, "D", 0x0, "D", 0x0, " ", 0x0, "r"
	DCB	0x0, "e", 0x0, "f", 0x0, " ", 0x0, "c", 0x0, "o", 0x0, "u"
	DCB	0x0, "n", 0x0, "t", 0x0, "s", 0x0, ":", 0x0, 0xd, 0x0, 0xa
	DCB	0x0, 0x0, 0x0				; `string'

  00000			 AREA	 |.rdata|, DATA, READONLY
|??_C@_1FC@DMOHKJJI@?$AA?$AN?$AA?6?$AAS?$AAa?$AAv?$AAe?$AAd?$AA?5?$AAI?$AAn?$AAf?$AAo?$AAr?$AAm?$AAa?$AAt?$AAi?$AAo?$AAn?$AA?5?$AAP?$AAr?$AAi?$AAo?$AAr?$AA?5?$AAt?$AAo?$AA?5?$AAS?$AAu?$AAs@| DCB 0xd
	DCB	0x0, 0xa, 0x0, "S", 0x0, "a", 0x0, "v", 0x0, "e", 0x0, "d"
	DCB	0x0, " ", 0x0, "I", 0x0, "n", 0x0, "f", 0x0, "o", 0x0, "r"
	DCB	0x0, "m", 0x0, "a", 0x0, "t", 0x0, "i", 0x0, "o", 0x0, "n"
	DCB	0x0, " ", 0x0, "P", 0x0, "r", 0x0, "i", 0x0, "o", 0x0, "r"
	DCB	0x0, " ", 0x0, "t", 0x0, "o", 0x0, " ", 0x0, "S", 0x0, "u"
	DCB	0x0, "s", 0x0, "p", 0x0, "e", 0x0, "n", 0x0, "d", 0x0, ":"
	DCB	0x0, ":", 0x0, 0xd, 0x0, 0xa, 0x0, 0x0, 0x0 ; `string'
; Function compile flags: /Odtp

  051ac			 AREA	 |.text|, CODE, ARM

  051ac		 |PrcmDumpSavedRefCounts| PROC

; 2638 : {

  051ac		 |$LN33@PrcmDumpSa|
  051ac	e52de004	 str         lr, [sp, #-4]!
  051b0	e24dd004	 sub         sp, sp, #4
  051b4		 |$M49817|

; 2639 :     int i;
; 2640 : 	
; 2641 :     OALMSG(1, (L"\r\nSaved Information Prior to Suspend::\r\n"));

  051b4	e59f043c	 ldr         r0, [pc, #0x43C]
  051b8	eb000000	 bl          NKDbgPrintfW

; 2642 : 
; 2643 :     // dump s_VddTable
; 2644 :     OALMSG(1, (L"\r\nSaved VDD ref counts:\r\n"));

  051bc	e59f0430	 ldr         r0, [pc, #0x430]
  051c0	eb000000	 bl          NKDbgPrintfW

; 2645 :     for (i = 0; i < kVDD_COUNT; i++)

  051c4	e3a03000	 mov         r3, #0
  051c8	e58d3000	 str         r3, [sp]
  051cc	ea000002	 b           |$LN28@PrcmDumpSa|
  051d0		 |$LN27@PrcmDumpSa|
  051d0	e59d3000	 ldr         r3, [sp]
  051d4	e2833001	 add         r3, r3, #1
  051d8	e58d3000	 str         r3, [sp]
  051dc		 |$LN28@PrcmDumpSa|
  051dc	e59d3000	 ldr         r3, [sp]
  051e0	e353000a	 cmp         r3, #0xA
  051e4	aa000016	 bge         |$LN26@PrcmDumpSa|

; 2646 :         if (s_SavedVddTable[i])

  051e8	e59d1000	 ldr         r1, [sp]
  051ec	e3a03004	 mov         r3, #4
  051f0	e0020391	 mul         r2, r1, r3
  051f4	e59f33f4	 ldr         r3, [pc, #0x3F4]
  051f8	e0833002	 add         r3, r3, r2
  051fc	e5933000	 ldr         r3, [r3]
  05200	e3530000	 cmp         r3, #0
  05204	0a00000d	 beq         |$LN25@PrcmDumpSa|

; 2647 :             OALMSG(1, (L"%s %d\r\n", s_VddNameTable[i], s_SavedVddTable[i]));

  05208	e59d1000	 ldr         r1, [sp]
  0520c	e3a03004	 mov         r3, #4
  05210	e0020391	 mul         r2, r1, r3
  05214	e59f33d4	 ldr         r3, [pc, #0x3D4]
  05218	e0833002	 add         r3, r3, r2
  0521c	e5932000	 ldr         r2, [r3]
  05220	e59d0000	 ldr         r0, [sp]
  05224	e3a03004	 mov         r3, #4
  05228	e0010390	 mul         r1, r0, r3
  0522c	e59f33b8	 ldr         r3, [pc, #0x3B8]
  05230	e0833001	 add         r3, r3, r1
  05234	e5931000	 ldr         r1, [r3]
  05238	e59f0384	 ldr         r0, [pc, #0x384]
  0523c	eb000000	 bl          NKDbgPrintfW
  05240		 |$LN25@PrcmDumpSa|

; 2648 : 
; 2649 : 	// dump s_DpllTable ref count field
; 2650 :     OALMSG(1, (L"\r\nSaved DPLL ref counts:\r\n"));

  05240	eaffffe2	 b           |$LN27@PrcmDumpSa|
  05244		 |$LN26@PrcmDumpSa|
  05244	e59f039c	 ldr         r0, [pc, #0x39C]
  05248	eb000000	 bl          NKDbgPrintfW

; 2651 :     for (i = 0; i < kDPLL_COUNT; i++)

  0524c	e3a03000	 mov         r3, #0
  05250	e58d3000	 str         r3, [sp]
  05254	ea000002	 b           |$LN24@PrcmDumpSa|
  05258		 |$LN23@PrcmDumpSa|
  05258	e59d3000	 ldr         r3, [sp]
  0525c	e2833001	 add         r3, r3, #1
  05260	e58d3000	 str         r3, [sp]
  05264		 |$LN24@PrcmDumpSa|
  05264	e59d3000	 ldr         r3, [sp]
  05268	e3530006	 cmp         r3, #6
  0526c	aa000018	 bge         |$LN22@PrcmDumpSa|

; 2652 :         if (s_SavedDpllTable[i].refCount)

  05270	e59d1000	 ldr         r1, [sp]
  05274	e3a0300c	 mov         r3, #0xC
  05278	e0020391	 mul         r2, r1, r3
  0527c	e59f3360	 ldr         r3, [pc, #0x360]
  05280	e0833002	 add         r3, r3, r2
  05284	e2833004	 add         r3, r3, #4
  05288	e5933000	 ldr         r3, [r3]
  0528c	e3530000	 cmp         r3, #0
  05290	0a00000e	 beq         |$LN21@PrcmDumpSa|

; 2653 :             OALMSG(1, (L"%s %d\r\n", s_DpllNameTable[i], s_SavedDpllTable[i].refCount));

  05294	e59d1000	 ldr         r1, [sp]
  05298	e3a0300c	 mov         r3, #0xC
  0529c	e0020391	 mul         r2, r1, r3
  052a0	e59f333c	 ldr         r3, [pc, #0x33C]
  052a4	e0833002	 add         r3, r3, r2
  052a8	e2833004	 add         r3, r3, #4
  052ac	e5932000	 ldr         r2, [r3]
  052b0	e59d0000	 ldr         r0, [sp]
  052b4	e3a03004	 mov         r3, #4
  052b8	e0010390	 mul         r1, r0, r3
  052bc	e59f331c	 ldr         r3, [pc, #0x31C]
  052c0	e0833001	 add         r3, r3, r1
  052c4	e5931000	 ldr         r1, [r3]
  052c8	e59f02f4	 ldr         r0, [pc, #0x2F4]
  052cc	eb000000	 bl          NKDbgPrintfW
  052d0		 |$LN21@PrcmDumpSa|

; 2654 : 
; 2655 :     // dump s_DpllClkOutTable ref count field
; 2656 :     OALMSG(1, (L"\r\nSaved DPLL CLKOUT ref counts:\r\n"));

  052d0	eaffffe0	 b           |$LN23@PrcmDumpSa|
  052d4		 |$LN22@PrcmDumpSa|
  052d4	e59f0300	 ldr         r0, [pc, #0x300]
  052d8	eb000000	 bl          NKDbgPrintfW

; 2657 :     for (i = 0; i < kDPLL_CLKOUT_COUNT; i++)

  052dc	e3a03000	 mov         r3, #0
  052e0	e58d3000	 str         r3, [sp]
  052e4	ea000002	 b           |$LN20@PrcmDumpSa|
  052e8		 |$LN19@PrcmDumpSa|
  052e8	e59d3000	 ldr         r3, [sp]
  052ec	e2833001	 add         r3, r3, #1
  052f0	e58d3000	 str         r3, [sp]
  052f4		 |$LN20@PrcmDumpSa|
  052f4	e59d3000	 ldr         r3, [sp]
  052f8	e3530010	 cmp         r3, #0x10
  052fc	aa000018	 bge         |$LN18@PrcmDumpSa|

; 2658 :         if (s_SavedDpllClkOutTable[i].refCount)

  05300	e59d1000	 ldr         r1, [sp]
  05304	e3a03008	 mov         r3, #8
  05308	e0020391	 mul         r2, r1, r3
  0530c	e59f32c4	 ldr         r3, [pc, #0x2C4]
  05310	e0833002	 add         r3, r3, r2
  05314	e2833004	 add         r3, r3, #4
  05318	e5933000	 ldr         r3, [r3]
  0531c	e3530000	 cmp         r3, #0
  05320	0a00000e	 beq         |$LN17@PrcmDumpSa|

; 2659 :             OALMSG(1, (L"%s %d\r\n", s_DpllClkOutNameTable[i], s_SavedDpllClkOutTable[i].refCount));

  05324	e59d1000	 ldr         r1, [sp]
  05328	e3a03008	 mov         r3, #8
  0532c	e0020391	 mul         r2, r1, r3
  05330	e59f32a0	 ldr         r3, [pc, #0x2A0]
  05334	e0833002	 add         r3, r3, r2
  05338	e2833004	 add         r3, r3, #4
  0533c	e5932000	 ldr         r2, [r3]
  05340	e59d0000	 ldr         r0, [sp]
  05344	e3a03004	 mov         r3, #4
  05348	e0010390	 mul         r1, r0, r3
  0534c	e59f3280	 ldr         r3, [pc, #0x280]
  05350	e0833001	 add         r3, r3, r1
  05354	e5931000	 ldr         r1, [r3]
  05358	e59f0264	 ldr         r0, [pc, #0x264]
  0535c	eb000000	 bl          NKDbgPrintfW
  05360		 |$LN17@PrcmDumpSa|

; 2660 : 
; 2661 : 	// dump s_SrcClockTable ref count field
; 2662 :     OALMSG(1, (L"\r\nSaved SRC CLOCK ref counts:\r\n"));

  05360	eaffffe0	 b           |$LN19@PrcmDumpSa|
  05364		 |$LN18@PrcmDumpSa|
  05364	e59f0264	 ldr         r0, [pc, #0x264]
  05368	eb000000	 bl          NKDbgPrintfW

; 2663 :     for (i = 0; i < kSOURCE_CLOCK_COUNT; i++)

  0536c	e3a03000	 mov         r3, #0
  05370	e58d3000	 str         r3, [sp]
  05374	ea000002	 b           |$LN16@PrcmDumpSa|
  05378		 |$LN15@PrcmDumpSa|
  05378	e59d3000	 ldr         r3, [sp]
  0537c	e2833001	 add         r3, r3, #1
  05380	e58d3000	 str         r3, [sp]
  05384		 |$LN16@PrcmDumpSa|
  05384	e59d3000	 ldr         r3, [sp]
  05388	e353005a	 cmp         r3, #0x5A
  0538c	aa000018	 bge         |$LN14@PrcmDumpSa|

; 2664 :         if (s_SavedSrcClockTable[i].refCount)

  05390	e59d1000	 ldr         r1, [sp]
  05394	e3a03014	 mov         r3, #0x14
  05398	e0020391	 mul         r2, r1, r3
  0539c	e59f3228	 ldr         r3, [pc, #0x228]
  053a0	e0833002	 add         r3, r3, r2
  053a4	e2833004	 add         r3, r3, #4
  053a8	e5933000	 ldr         r3, [r3]
  053ac	e3530000	 cmp         r3, #0
  053b0	0a00000e	 beq         |$LN13@PrcmDumpSa|

; 2665 :             OALMSG(1, (L"%s %d\r\n", s_SrcClockNameTable[i], s_SavedSrcClockTable[i].refCount));

  053b4	e59d1000	 ldr         r1, [sp]
  053b8	e3a03014	 mov         r3, #0x14
  053bc	e0020391	 mul         r2, r1, r3
  053c0	e59f3204	 ldr         r3, [pc, #0x204]
  053c4	e0833002	 add         r3, r3, r2
  053c8	e2833004	 add         r3, r3, #4
  053cc	e5932000	 ldr         r2, [r3]
  053d0	e59d0000	 ldr         r0, [sp]
  053d4	e3a03004	 mov         r3, #4
  053d8	e0010390	 mul         r1, r0, r3
  053dc	e59f31e4	 ldr         r3, [pc, #0x1E4]
  053e0	e0833001	 add         r3, r3, r1
  053e4	e5931000	 ldr         r1, [r3]
  053e8	e59f01d4	 ldr         r0, [pc, #0x1D4]
  053ec	eb000000	 bl          NKDbgPrintfW
  053f0		 |$LN13@PrcmDumpSa|

; 2666 : 
; 2667 :     // dump prcm device iclk ref count
; 2668 :     OALMSG(1, (L"\r\nSaved device ICLK ref counts:\r\n"));

  053f0	eaffffe0	 b           |$LN15@PrcmDumpSa|
  053f4		 |$LN14@PrcmDumpSa|
  053f4	e59f01c4	 ldr         r0, [pc, #0x1C4]
  053f8	eb000000	 bl          NKDbgPrintfW

; 2669 :     for (i = 0; i < OMAP_DEVICE_COUNT; i++)

  053fc	e3a03000	 mov         r3, #0
  05400	e58d3000	 str         r3, [sp]
  05404	ea000002	 b           |$LN12@PrcmDumpSa|
  05408		 |$LN11@PrcmDumpSa|
  05408	e59d3000	 ldr         r3, [sp]
  0540c	e2833001	 add         r3, r3, #1
  05410	e58d3000	 str         r3, [sp]
  05414		 |$LN12@PrcmDumpSa|
  05414	e59d3000	 ldr         r3, [sp]
  05418	e3530051	 cmp         r3, #0x51
  0541c	aa000016	 bge         |$LN10@PrcmDumpSa|

; 2670 :         if (SavedDeviceIClkRefCount[i])

  05420	e59d1000	 ldr         r1, [sp]
  05424	e3a03004	 mov         r3, #4
  05428	e0020391	 mul         r2, r1, r3
  0542c	e59f3188	 ldr         r3, [pc, #0x188]
  05430	e0833002	 add         r3, r3, r2
  05434	e5933000	 ldr         r3, [r3]
  05438	e3530000	 cmp         r3, #0
  0543c	0a00000d	 beq         |$LN9@PrcmDumpSa|

; 2671 :     	    OALMSG(1, (L"Saved PRCM Device ICLK RefCount %s = %d\r\n", DeviceNames[i], SavedDeviceIClkRefCount[i]));

  05440	e59d1000	 ldr         r1, [sp]
  05444	e3a03004	 mov         r3, #4
  05448	e0020391	 mul         r2, r1, r3
  0544c	e59f3168	 ldr         r3, [pc, #0x168]
  05450	e0833002	 add         r3, r3, r2
  05454	e5932000	 ldr         r2, [r3]
  05458	e59d0000	 ldr         r0, [sp]
  0545c	e3a03004	 mov         r3, #4
  05460	e0010390	 mul         r1, r0, r3
  05464	e59f3140	 ldr         r3, [pc, #0x140]
  05468	e0833001	 add         r3, r3, r1
  0546c	e5931000	 ldr         r1, [r3]
  05470	e59f0140	 ldr         r0, [pc, #0x140]
  05474	eb000000	 bl          NKDbgPrintfW
  05478		 |$LN9@PrcmDumpSa|

; 2672 : 
; 2673 : 	// dump prcm device fclk ref count
; 2674 :     OALMSG(1, (L"\r\nSaved device FCLK ref counts:\r\n"));

  05478	eaffffe2	 b           |$LN11@PrcmDumpSa|
  0547c		 |$LN10@PrcmDumpSa|
  0547c	e59f0130	 ldr         r0, [pc, #0x130]
  05480	eb000000	 bl          NKDbgPrintfW

; 2675 :     for (i = 0; i < OMAP_DEVICE_COUNT; i++)

  05484	e3a03000	 mov         r3, #0
  05488	e58d3000	 str         r3, [sp]
  0548c	ea000002	 b           |$LN8@PrcmDumpSa|
  05490		 |$LN7@PrcmDumpSa|
  05490	e59d3000	 ldr         r3, [sp]
  05494	e2833001	 add         r3, r3, #1
  05498	e58d3000	 str         r3, [sp]
  0549c		 |$LN8@PrcmDumpSa|
  0549c	e59d3000	 ldr         r3, [sp]
  054a0	e3530051	 cmp         r3, #0x51
  054a4	aa000016	 bge         |$LN6@PrcmDumpSa|

; 2676 :         if (SavedDeviceFClkRefCount[i])

  054a8	e59d1000	 ldr         r1, [sp]
  054ac	e3a03004	 mov         r3, #4
  054b0	e0020391	 mul         r2, r1, r3
  054b4	e59f30f4	 ldr         r3, [pc, #0xF4]
  054b8	e0833002	 add         r3, r3, r2
  054bc	e5933000	 ldr         r3, [r3]
  054c0	e3530000	 cmp         r3, #0
  054c4	0a00000d	 beq         |$LN5@PrcmDumpSa|

; 2677 :     	    OALMSG(1, (L"Saved PRCM Device FCLK RefCount %s = %d\r\n", DeviceNames[i], SavedDeviceFClkRefCount[i]));

  054c8	e59d1000	 ldr         r1, [sp]
  054cc	e3a03004	 mov         r3, #4
  054d0	e0020391	 mul         r2, r1, r3
  054d4	e59f30d4	 ldr         r3, [pc, #0xD4]
  054d8	e0833002	 add         r3, r3, r2
  054dc	e5932000	 ldr         r2, [r3]
  054e0	e59d0000	 ldr         r0, [sp]
  054e4	e3a03004	 mov         r3, #4
  054e8	e0010390	 mul         r1, r0, r3
  054ec	e59f30b8	 ldr         r3, [pc, #0xB8]
  054f0	e0833001	 add         r3, r3, r1
  054f4	e5931000	 ldr         r1, [r3]
  054f8	e59f00a8	 ldr         r0, [pc, #0xA8]
  054fc	eb000000	 bl          NKDbgPrintfW
  05500		 |$LN5@PrcmDumpSa|

; 2678 : 
; 2679 :     // domain refCount
; 2680 :     OALMSG(1, (L"\r\nSaved Domain RefCounts:\r\n"));

  05500	eaffffe2	 b           |$LN7@PrcmDumpSa|
  05504		 |$LN6@PrcmDumpSa|
  05504	e59f0098	 ldr         r0, [pc, #0x98]
  05508	eb000000	 bl          NKDbgPrintfW

; 2681 :     for (i = 0; i < POWERDOMAIN_COUNT; i++)

  0550c	e3a03000	 mov         r3, #0
  05510	e58d3000	 str         r3, [sp]
  05514	ea000002	 b           |$LN4@PrcmDumpSa|
  05518		 |$LN3@PrcmDumpSa|
  05518	e59d3000	 ldr         r3, [sp]
  0551c	e2833001	 add         r3, r3, #1
  05520	e58d3000	 str         r3, [sp]
  05524		 |$LN4@PrcmDumpSa|
  05524	e59d3000	 ldr         r3, [sp]
  05528	e353000d	 cmp         r3, #0xD
  0552c	aa000016	 bge         |$LN2@PrcmDumpSa|

; 2682 :         if (DomainRefCountSnapshot[i])

  05530	e59d1000	 ldr         r1, [sp]
  05534	e3a03004	 mov         r3, #4
  05538	e0020391	 mul         r2, r1, r3
  0553c	e59f305c	 ldr         r3, [pc, #0x5C]
  05540	e0833002	 add         r3, r3, r2
  05544	e5933000	 ldr         r3, [r3]
  05548	e3530000	 cmp         r3, #0
  0554c	0a00000d	 beq         |$LN1@PrcmDumpSa|

; 2683 :             OALMSG(1, (L"Saved Domain RefCount %s = %d\r\n", DomainNameTable[i], DomainRefCountSnapshot[i]));

  05550	e59d1000	 ldr         r1, [sp]
  05554	e3a03004	 mov         r3, #4
  05558	e0020391	 mul         r2, r1, r3
  0555c	e59f303c	 ldr         r3, [pc, #0x3C]
  05560	e0833002	 add         r3, r3, r2
  05564	e5932000	 ldr         r2, [r3]
  05568	e59d0000	 ldr         r0, [sp]
  0556c	e3a03004	 mov         r3, #4
  05570	e0010390	 mul         r1, r0, r3
  05574	e59f3020	 ldr         r3, [pc, #0x20]
  05578	e0833001	 add         r3, r3, r1
  0557c	e5931000	 ldr         r1, [r3]
  05580	e59f0010	 ldr         r0, [pc, #0x10]
  05584	eb000000	 bl          NKDbgPrintfW
  05588		 |$LN1@PrcmDumpSa|

; 2684 : }

  05588	eaffffe2	 b           |$LN3@PrcmDumpSa|
  0558c		 |$LN2@PrcmDumpSa|
  0558c	e28dd004	 add         sp, sp, #4
  05590	e49de004	 ldr         lr, [sp], #4
  05594	e12fff1e	 bx          lr
  05598		 |$LN34@PrcmDumpSa|
  05598		 |$LN35@PrcmDumpSa|
  05598	00000000	 DCD         |??_C@_1EA@JKDOBNCH@?$AAS?$AAa?$AAv?$AAe?$AAd?$AA?5?$AAD?$AAo?$AAm?$AAa?$AAi?$AAn?$AA?5?$AAR?$AAe?$AAf?$AAC?$AAo?$AAu?$AAn?$AAt?$AA?5?$AA?$CF?$AAs?$AA?5?$AA?$DN?$AA?5?$AA?$CF?$AAd?$AA?$AN?$AA?6?$AA?$AA@|
  0559c		 |$LN36@PrcmDumpSa|
  0559c	00000000	 DCD         |DomainNameTable|
  055a0		 |$LN37@PrcmDumpSa|
  055a0	00000000	 DCD         |DomainRefCountSnapshot|
  055a4		 |$LN38@PrcmDumpSa|
  055a4	00000000	 DCD         |??_C@_1DI@LNGAMPKI@?$AA?$AN?$AA?6?$AAS?$AAa?$AAv?$AAe?$AAd?$AA?5?$AAD?$AAo?$AAm?$AAa?$AAi?$AAn?$AA?5?$AAR?$AAe?$AAf?$AAC?$AAo?$AAu?$AAn?$AAt?$AAs?$AA?3?$AA?$AN?$AA?6?$AA?$AA@|
  055a8		 |$LN39@PrcmDumpSa|
  055a8	00000000	 DCD         |??_C@_1FE@HIOGEJJC@?$AAS?$AAa?$AAv?$AAe?$AAd?$AA?5?$AAP?$AAR?$AAC?$AAM?$AA?5?$AAD?$AAe?$AAv?$AAi?$AAc?$AAe?$AA?5?$AAF?$AAC?$AAL?$AAK?$AA?5?$AAR?$AAe?$AAf?$AAC?$AAo?$AAu?$AAn?$AAt?$AA?5@|
  055ac		 |$LN40@PrcmDumpSa|
  055ac	00000000	 DCD         |DeviceNames|
  055b0		 |$LN41@PrcmDumpSa|
  055b0	00000000	 DCD         |SavedDeviceFClkRefCount|
  055b4		 |$LN42@PrcmDumpSa|
  055b4	00000000	 DCD         |??_C@_1EE@CNIHEABP@?$AA?$AN?$AA?6?$AAS?$AAa?$AAv?$AAe?$AAd?$AA?5?$AAd?$AAe?$AAv?$AAi?$AAc?$AAe?$AA?5?$AAF?$AAC?$AAL?$AAK?$AA?5?$AAr?$AAe?$AAf?$AA?5?$AAc?$AAo?$AAu?$AAn?$AAt?$AAs?$AA?3?$AA?$AN@|
  055b8		 |$LN43@PrcmDumpSa|
  055b8	00000000	 DCD         |??_C@_1FE@POANKPCH@?$AAS?$AAa?$AAv?$AAe?$AAd?$AA?5?$AAP?$AAR?$AAC?$AAM?$AA?5?$AAD?$AAe?$AAv?$AAi?$AAc?$AAe?$AA?5?$AAI?$AAC?$AAL?$AAK?$AA?5?$AAR?$AAe?$AAf?$AAC?$AAo?$AAu?$AAn?$AAt?$AA?5@|
  055bc		 |$LN44@PrcmDumpSa|
  055bc	00000000	 DCD         |SavedDeviceIClkRefCount|
  055c0		 |$LN45@PrcmDumpSa|
  055c0	00000000	 DCD         |??_C@_1EE@IMLOEHKF@?$AA?$AN?$AA?6?$AAS?$AAa?$AAv?$AAe?$AAd?$AA?5?$AAd?$AAe?$AAv?$AAi?$AAc?$AAe?$AA?5?$AAI?$AAC?$AAL?$AAK?$AA?5?$AAr?$AAe?$AAf?$AA?5?$AAc?$AAo?$AAu?$AAn?$AAt?$AAs?$AA?3?$AA?$AN@|
  055c4		 |$LN46@PrcmDumpSa|
  055c4	00000000	 DCD         |??_C@_1BA@NOOLMKMI@?$AA?$CF?$AAs?$AA?5?$AA?$CF?$AAd?$AA?$AN?$AA?6?$AA?$AA@|
  055c8		 |$LN47@PrcmDumpSa|
  055c8	00000000	 DCD         |s_SrcClockNameTable|
  055cc		 |$LN48@PrcmDumpSa|
  055cc	00000000	 DCD         |s_SavedSrcClockTable|
  055d0		 |$LN49@PrcmDumpSa|
  055d0	00000000	 DCD         |??_C@_1EA@FOBOPLCJ@?$AA?$AN?$AA?6?$AAS?$AAa?$AAv?$AAe?$AAd?$AA?5?$AAS?$AAR?$AAC?$AA?5?$AAC?$AAL?$AAO?$AAC?$AAK?$AA?5?$AAr?$AAe?$AAf?$AA?5?$AAc?$AAo?$AAu?$AAn?$AAt?$AAs?$AA?3?$AA?$AN?$AA?6?$AA?$AA@|
  055d4		 |$LN50@PrcmDumpSa|
  055d4	00000000	 DCD         |s_DpllClkOutNameTable|
  055d8		 |$LN51@PrcmDumpSa|
  055d8	00000000	 DCD         |s_SavedDpllClkOutTable|
  055dc		 |$LN52@PrcmDumpSa|
  055dc	00000000	 DCD         |??_C@_1EE@GFHLPNPD@?$AA?$AN?$AA?6?$AAS?$AAa?$AAv?$AAe?$AAd?$AA?5?$AAD?$AAP?$AAL?$AAL?$AA?5?$AAC?$AAL?$AAK?$AAO?$AAU?$AAT?$AA?5?$AAr?$AAe?$AAf?$AA?5?$AAc?$AAo?$AAu?$AAn?$AAt?$AAs?$AA?3?$AA?$AN@|
  055e0		 |$LN53@PrcmDumpSa|
  055e0	00000000	 DCD         |s_DpllNameTable|
  055e4		 |$LN54@PrcmDumpSa|
  055e4	00000000	 DCD         |s_SavedDpllTable|
  055e8		 |$LN55@PrcmDumpSa|
  055e8	00000000	 DCD         |??_C@_1DG@KDOAHHJA@?$AA?$AN?$AA?6?$AAS?$AAa?$AAv?$AAe?$AAd?$AA?5?$AAD?$AAP?$AAL?$AAL?$AA?5?$AAr?$AAe?$AAf?$AA?5?$AAc?$AAo?$AAu?$AAn?$AAt?$AAs?$AA?3?$AA?$AN?$AA?6?$AA?$AA@|
  055ec		 |$LN56@PrcmDumpSa|
  055ec	00000000	 DCD         |s_VddNameTable|
  055f0		 |$LN57@PrcmDumpSa|
  055f0	00000000	 DCD         |s_SavedVddTable|
  055f4		 |$LN58@PrcmDumpSa|
  055f4	00000000	 DCD         |??_C@_1DE@KGLDHFLF@?$AA?$AN?$AA?6?$AAS?$AAa?$AAv?$AAe?$AAd?$AA?5?$AAV?$AAD?$AAD?$AA?5?$AAr?$AAe?$AAf?$AA?5?$AAc?$AAo?$AAu?$AAn?$AAt?$AAs?$AA?3?$AA?$AN?$AA?6?$AA?$AA@|
  055f8		 |$LN59@PrcmDumpSa|
  055f8	00000000	 DCD         |??_C@_1FC@DMOHKJJI@?$AA?$AN?$AA?6?$AAS?$AAa?$AAv?$AAe?$AAd?$AA?5?$AAI?$AAn?$AAf?$AAo?$AAr?$AAm?$AAa?$AAt?$AAi?$AAo?$AAn?$AA?5?$AAP?$AAr?$AAi?$AAo?$AAr?$AA?5?$AAt?$AAo?$AA?5?$AAS?$AAu?$AAs@|
  055fc		 |$M49818|

			 ENDP  ; |PrcmDumpSavedRefCounts|

	EXPORT	|PrcmRegsSnapshot|
	IMPORT	|OALPAtoVA|

  000b8			 AREA	 |.pdata|, PDATA
|$T49851| DCD	|$LN13@PrcmRegsSn|
	DCD	0x40007302
; Function compile flags: /Odtp

  055fc			 AREA	 |.text|, CODE, ARM

  055fc		 |PrcmRegsSnapshot| PROC

; 2924 : {

  055fc		 |$LN13@PrcmRegsSn|
  055fc	e52de004	 str         lr, [sp, #-4]!
  05600	e24dd010	 sub         sp, sp, #0x10
  05604		 |$M49848|

; 2925 :     int i = 0;

  05604	e3a03000	 mov         r3, #0
  05608	e58d3000	 str         r3, [sp]
  0560c		 |$LN8@PrcmRegsSn|

; 2926 : 	
; 2927 : 	while (DumpRegArray[i].RegName != NULL)

  0560c	e59d1000	 ldr         r1, [sp]
  05610	e3a03010	 mov         r3, #0x10
  05614	e0020391	 mul         r2, r1, r3
  05618	e59f31a4	 ldr         r3, [pc, #0x1A4]
  0561c	e0833002	 add         r3, r3, r2
  05620	e5933000	 ldr         r3, [r3]
  05624	e3530000	 cmp         r3, #0
  05628	0a000062	 beq         |$LN7@PrcmRegsSn|

; 2928 : 	{
; 2929 :         if (DumpRegArray[i].RegPA != 0)

  0562c	e59d1000	 ldr         r1, [sp]
  05630	e3a03010	 mov         r3, #0x10
  05634	e0020391	 mul         r2, r1, r3
  05638	e59f3184	 ldr         r3, [pc, #0x184]
  0563c	e0833002	 add         r3, r3, r2
  05640	e2833008	 add         r3, r3, #8
  05644	e5933000	 ldr         r3, [r3]
  05648	e3530000	 cmp         r3, #0
  0564c	0a000055	 beq         |$LN6@PrcmRegsSn|

; 2930 : 		{
; 2931 :             if (DumpRegArray[i].RegWidth == 32)

  05650	e59d1000	 ldr         r1, [sp]
  05654	e3a03010	 mov         r3, #0x10
  05658	e0020391	 mul         r2, r1, r3
  0565c	e59f3160	 ldr         r3, [pc, #0x160]
  05660	e0833002	 add         r3, r3, r2
  05664	e2833004	 add         r3, r3, #4
  05668	e5933000	 ldr         r3, [r3]
  0566c	e3530020	 cmp         r3, #0x20
  05670	1a000013	 bne         |$LN5@PrcmRegsSn|

; 2932 :                 DumpRegArray[i].RegVal = INREG32(OALPAtoUA(DumpRegArray[i].RegPA));

  05674	e3a01000	 mov         r1, #0
  05678	e59d0000	 ldr         r0, [sp]
  0567c	e3a03010	 mov         r3, #0x10
  05680	e0020390	 mul         r2, r0, r3
  05684	e59f3138	 ldr         r3, [pc, #0x138]
  05688	e0833002	 add         r3, r3, r2
  0568c	e2833008	 add         r3, r3, #8
  05690	e5930000	 ldr         r0, [r3]
  05694	eb000000	 bl          OALPAtoVA
  05698	e58d0004	 str         r0, [sp, #4]
  0569c	e59d1000	 ldr         r1, [sp]
  056a0	e3a03010	 mov         r3, #0x10
  056a4	e0020391	 mul         r2, r1, r3
  056a8	e59f3114	 ldr         r3, [pc, #0x114]
  056ac	e0833002	 add         r3, r3, r2
  056b0	e283200c	 add         r2, r3, #0xC
  056b4	e59d3004	 ldr         r3, [sp, #4]
  056b8	e5933000	 ldr         r3, [r3]
  056bc	e5823000	 str         r3, [r2]
  056c0	ea000038	 b           |$LN4@PrcmRegsSn|
  056c4		 |$LN5@PrcmRegsSn|

; 2933 :             else if (DumpRegArray[i].RegWidth == 16)

  056c4	e59d1000	 ldr         r1, [sp]
  056c8	e3a03010	 mov         r3, #0x10
  056cc	e0020391	 mul         r2, r1, r3
  056d0	e59f30ec	 ldr         r3, [pc, #0xEC]
  056d4	e0833002	 add         r3, r3, r2
  056d8	e2833004	 add         r3, r3, #4
  056dc	e5933000	 ldr         r3, [r3]
  056e0	e3530010	 cmp         r3, #0x10
  056e4	1a000013	 bne         |$LN3@PrcmRegsSn|

; 2934 :                 DumpRegArray[i].RegVal = INREG16(OALPAtoUA(DumpRegArray[i].RegPA));

  056e8	e3a01000	 mov         r1, #0
  056ec	e59d0000	 ldr         r0, [sp]
  056f0	e3a03010	 mov         r3, #0x10
  056f4	e0020390	 mul         r2, r0, r3
  056f8	e59f30c4	 ldr         r3, [pc, #0xC4]
  056fc	e0833002	 add         r3, r3, r2
  05700	e2833008	 add         r3, r3, #8
  05704	e5930000	 ldr         r0, [r3]
  05708	eb000000	 bl          OALPAtoVA
  0570c	e58d0008	 str         r0, [sp, #8]
  05710	e59d1000	 ldr         r1, [sp]
  05714	e3a03010	 mov         r3, #0x10
  05718	e0020391	 mul         r2, r1, r3
  0571c	e59f30a0	 ldr         r3, [pc, #0xA0]
  05720	e0833002	 add         r3, r3, r2
  05724	e283200c	 add         r2, r3, #0xC
  05728	e59d3008	 ldr         r3, [sp, #8]
  0572c	e1d330b0	 ldrh        r3, [r3]
  05730	e5823000	 str         r3, [r2]
  05734	ea00001b	 b           |$LN2@PrcmRegsSn|
  05738		 |$LN3@PrcmRegsSn|

; 2935 :             else if (DumpRegArray[i].RegWidth == 8)

  05738	e59d1000	 ldr         r1, [sp]
  0573c	e3a03010	 mov         r3, #0x10
  05740	e0020391	 mul         r2, r1, r3
  05744	e59f3078	 ldr         r3, [pc, #0x78]
  05748	e0833002	 add         r3, r3, r2
  0574c	e2833004	 add         r3, r3, #4
  05750	e5933000	 ldr         r3, [r3]
  05754	e3530008	 cmp         r3, #8
  05758	1a000012	 bne         |$LN1@PrcmRegsSn|

; 2936 :                 DumpRegArray[i].RegVal = INREG8(OALPAtoUA(DumpRegArray[i].RegPA));

  0575c	e3a01000	 mov         r1, #0
  05760	e59d0000	 ldr         r0, [sp]
  05764	e3a03010	 mov         r3, #0x10
  05768	e0020390	 mul         r2, r0, r3
  0576c	e59f3050	 ldr         r3, [pc, #0x50]
  05770	e0833002	 add         r3, r3, r2
  05774	e2833008	 add         r3, r3, #8
  05778	e5930000	 ldr         r0, [r3]
  0577c	eb000000	 bl          OALPAtoVA
  05780	e58d000c	 str         r0, [sp, #0xC]
  05784	e59d1000	 ldr         r1, [sp]
  05788	e3a03010	 mov         r3, #0x10
  0578c	e0020391	 mul         r2, r1, r3
  05790	e59f302c	 ldr         r3, [pc, #0x2C]
  05794	e0833002	 add         r3, r3, r2
  05798	e283200c	 add         r2, r3, #0xC
  0579c	e59d300c	 ldr         r3, [sp, #0xC]
  057a0	e5d33000	 ldrb        r3, [r3]
  057a4	e5823000	 str         r3, [r2]
  057a8		 |$LN1@PrcmRegsSn|
  057a8		 |$LN2@PrcmRegsSn|
  057a8		 |$LN4@PrcmRegsSn|
  057a8		 |$LN6@PrcmRegsSn|

; 2937 : 		}
; 2938 :         i++;

  057a8	e59d3000	 ldr         r3, [sp]
  057ac	e2833001	 add         r3, r3, #1
  057b0	e58d3000	 str         r3, [sp]

; 2939 : 	}

  057b4	eaffff94	 b           |$LN8@PrcmRegsSn|
  057b8		 |$LN7@PrcmRegsSn|

; 2940 : }

  057b8	e28dd010	 add         sp, sp, #0x10
  057bc	e49de004	 ldr         lr, [sp], #4
  057c0	e12fff1e	 bx          lr
  057c4		 |$LN14@PrcmRegsSn|
  057c4		 |$LN15@PrcmRegsSn|
  057c4	00000000	 DCD         |DumpRegArray|
  057c8		 |$M49849|

			 ENDP  ; |PrcmRegsSnapshot|

	EXPORT	|??_C@_1DC@FONOMHHH@?$AA?5?$AA?5?$AA?$CF?$AA?9?$AA2?$AA4?$AAs?$AA?5?$AA?$DM?$AAb?$AAa?$AAd?$AA?5?$AAR?$AAe?$AAg?$AAW?$AAi?$AAd?$AAt?$AAh?$AA?$DO?$AA?$AN?$AA?6?$AA?$AA@| [ DATA ] ; `string'
	EXPORT	|??_C@_1CO@MFMIFAHL@?$AA?5?$AA?5?$AA?$CF?$AA?9?$AA2?$AA4?$AAs?$AA?5?$AA?5?$AA?5?$AA?5?$AA?5?$AA?5?$AA?5?$AA0?$AAx?$AA?$CF?$AA0?$AA2?$AAx?$AA?$AN?$AA?6?$AA?$AA@| [ DATA ] ; `string'
	EXPORT	|??_C@_1CK@ILNIDBPM@?$AA?5?$AA?5?$AA?$CF?$AA?9?$AA2?$AA4?$AAs?$AA?5?$AA?5?$AA?5?$AA?5?$AA?5?$AA0?$AAx?$AA?$CF?$AA0?$AA4?$AAx?$AA?$AN?$AA?6?$AA?$AA@| [ DATA ] ; `string'
	EXPORT	|??_C@_1CC@JKABMCGA@?$AA?5?$AA?5?$AA?$CF?$AA?9?$AA2?$AA4?$AAs?$AA?5?$AA0?$AAx?$AA?$CF?$AA0?$AA8?$AAx?$AA?$AN?$AA?6?$AA?$AA@| [ DATA ] ; `string'
	EXPORT	|??_C@_1BA@JCPLACBE@?$AA?$AN?$AA?6?$AA?$CF?$AAs?$AA?3?$AA?$AN?$AA?6?$AA?$AA@| [ DATA ] ; `string'
	EXPORT	|DumpPrcmRegsSnapshot|

  000c0			 AREA	 |.pdata|, PDATA
|$T49858| DCD	|$LN15@DumpPrcmRe|
	DCD	0x40007802

  00000			 AREA	 |.rdata|, DATA, READONLY
|??_C@_1DC@FONOMHHH@?$AA?5?$AA?5?$AA?$CF?$AA?9?$AA2?$AA4?$AAs?$AA?5?$AA?$DM?$AAb?$AAa?$AAd?$AA?5?$AAR?$AAe?$AAg?$AAW?$AAi?$AAd?$AAt?$AAh?$AA?$DO?$AA?$AN?$AA?6?$AA?$AA@| DCB " "
	DCB	0x0, " ", 0x0, "%", 0x0, "-", 0x0, "2", 0x0, "4", 0x0, "s"
	DCB	0x0, " ", 0x0, "<", 0x0, "b", 0x0, "a", 0x0, "d", 0x0, " "
	DCB	0x0, "R", 0x0, "e", 0x0, "g", 0x0, "W", 0x0, "i", 0x0, "d"
	DCB	0x0, "t", 0x0, "h", 0x0, ">", 0x0, 0xd, 0x0, 0xa, 0x0, 0x0
	DCB	0x0					; `string'

  00000			 AREA	 |.rdata|, DATA, READONLY
|??_C@_1CO@MFMIFAHL@?$AA?5?$AA?5?$AA?$CF?$AA?9?$AA2?$AA4?$AAs?$AA?5?$AA?5?$AA?5?$AA?5?$AA?5?$AA?5?$AA?5?$AA0?$AAx?$AA?$CF?$AA0?$AA2?$AAx?$AA?$AN?$AA?6?$AA?$AA@| DCB " "
	DCB	0x0, " ", 0x0, "%", 0x0, "-", 0x0, "2", 0x0, "4", 0x0, "s"
	DCB	0x0, " ", 0x0, " ", 0x0, " ", 0x0, " ", 0x0, " ", 0x0, " "
	DCB	0x0, " ", 0x0, "0", 0x0, "x", 0x0, "%", 0x0, "0", 0x0, "2"
	DCB	0x0, "x", 0x0, 0xd, 0x0, 0xa, 0x0, 0x0, 0x0 ; `string'

  00000			 AREA	 |.rdata|, DATA, READONLY
|??_C@_1CK@ILNIDBPM@?$AA?5?$AA?5?$AA?$CF?$AA?9?$AA2?$AA4?$AAs?$AA?5?$AA?5?$AA?5?$AA?5?$AA?5?$AA0?$AAx?$AA?$CF?$AA0?$AA4?$AAx?$AA?$AN?$AA?6?$AA?$AA@| DCB " "
	DCB	0x0, " ", 0x0, "%", 0x0, "-", 0x0, "2", 0x0, "4", 0x0, "s"
	DCB	0x0, " ", 0x0, " ", 0x0, " ", 0x0, " ", 0x0, " ", 0x0, "0"
	DCB	0x0, "x", 0x0, "%", 0x0, "0", 0x0, "4", 0x0, "x", 0x0, 0xd
	DCB	0x0, 0xa, 0x0, 0x0, 0x0			; `string'

  00000			 AREA	 |.rdata|, DATA, READONLY
|??_C@_1CC@JKABMCGA@?$AA?5?$AA?5?$AA?$CF?$AA?9?$AA2?$AA4?$AAs?$AA?5?$AA0?$AAx?$AA?$CF?$AA0?$AA8?$AAx?$AA?$AN?$AA?6?$AA?$AA@| DCB " "
	DCB	0x0, " ", 0x0, "%", 0x0, "-", 0x0, "2", 0x0, "4", 0x0, "s"
	DCB	0x0, " ", 0x0, "0", 0x0, "x", 0x0, "%", 0x0, "0", 0x0, "8"
	DCB	0x0, "x", 0x0, 0xd, 0x0, 0xa, 0x0, 0x0, 0x0 ; `string'

  00000			 AREA	 |.rdata|, DATA, READONLY
|??_C@_1BA@JCPLACBE@?$AA?$AN?$AA?6?$AA?$CF?$AAs?$AA?3?$AA?$AN?$AA?6?$AA?$AA@| DCB 0xd
	DCB	0x0, 0xa, 0x0, "%", 0x0, "s", 0x0, ":", 0x0, 0xd, 0x0, 0xa
	DCB	0x0, 0x0, 0x0				; `string'
; Function compile flags: /Odtp

  057c8			 AREA	 |.text|, CODE, ARM

  057c8		 |DumpPrcmRegsSnapshot| PROC

; 2944 : {

  057c8		 |$LN15@DumpPrcmRe|
  057c8	e52de004	 str         lr, [sp, #-4]!
  057cc	e24dd004	 sub         sp, sp, #4
  057d0		 |$M49855|

; 2945 :     int i = 0;

  057d0	e3a03000	 mov         r3, #0
  057d4	e58d3000	 str         r3, [sp]
  057d8		 |$LN10@DumpPrcmRe|

; 2946 : 	
; 2947 : 	while (DumpRegArray[i].RegName != NULL)

  057d8	e59d1000	 ldr         r1, [sp]
  057dc	e3a03010	 mov         r3, #0x10
  057e0	e0020391	 mul         r2, r1, r3
  057e4	e59f31ac	 ldr         r3, [pc, #0x1AC]
  057e8	e0833002	 add         r3, r3, r2
  057ec	e5933000	 ldr         r3, [r3]
  057f0	e3530000	 cmp         r3, #0
  057f4	0a000062	 beq         |$LN9@DumpPrcmRe|

; 2948 : 	{
; 2949 :         if (DumpRegArray[i].RegPA == 0)

  057f8	e59d1000	 ldr         r1, [sp]
  057fc	e3a03010	 mov         r3, #0x10
  05800	e0020391	 mul         r2, r1, r3
  05804	e59f318c	 ldr         r3, [pc, #0x18C]
  05808	e0833002	 add         r3, r3, r2
  0580c	e2833008	 add         r3, r3, #8
  05810	e5933000	 ldr         r3, [r3]
  05814	e3530000	 cmp         r3, #0
  05818	1a000008	 bne         |$LN8@DumpPrcmRe|

; 2950 : 		{
; 2951 : 		    OALMSG(1, (L"\r\n%s:\r\n", DumpRegArray[i].RegName));

  0581c	e59d1000	 ldr         r1, [sp]
  05820	e3a03010	 mov         r3, #0x10
  05824	e0020391	 mul         r2, r1, r3
  05828	e59f3168	 ldr         r3, [pc, #0x168]
  0582c	e0833002	 add         r3, r3, r2
  05830	e5931000	 ldr         r1, [r3]
  05834	e59f0168	 ldr         r0, [pc, #0x168]
  05838	eb000000	 bl          NKDbgPrintfW

; 2952 : 		}
; 2953 :         else

  0583c	ea00004c	 b           |$LN7@DumpPrcmRe|
  05840		 |$LN8@DumpPrcmRe|

; 2954 : 		{
; 2955 :             if (DumpRegArray[i].RegWidth == 32)

  05840	e59d1000	 ldr         r1, [sp]
  05844	e3a03010	 mov         r3, #0x10
  05848	e0020391	 mul         r2, r1, r3
  0584c	e59f3144	 ldr         r3, [pc, #0x144]
  05850	e0833002	 add         r3, r3, r2
  05854	e2833004	 add         r3, r3, #4
  05858	e5933000	 ldr         r3, [r3]
  0585c	e3530020	 cmp         r3, #0x20
  05860	1a00000f	 bne         |$LN6@DumpPrcmRe|

; 2956 :     		    OALMSG(1, (L"  %-24s 0x%08x\r\n", DumpRegArray[i].RegName, DumpRegArray[i].RegVal));

  05864	e59d1000	 ldr         r1, [sp]
  05868	e3a03010	 mov         r3, #0x10
  0586c	e0020391	 mul         r2, r1, r3
  05870	e59f3120	 ldr         r3, [pc, #0x120]
  05874	e0833002	 add         r3, r3, r2
  05878	e283300c	 add         r3, r3, #0xC
  0587c	e5932000	 ldr         r2, [r3]
  05880	e59d0000	 ldr         r0, [sp]
  05884	e3a03010	 mov         r3, #0x10
  05888	e0010390	 mul         r1, r0, r3
  0588c	e59f3104	 ldr         r3, [pc, #0x104]
  05890	e0833001	 add         r3, r3, r1
  05894	e5931000	 ldr         r1, [r3]
  05898	e59f0100	 ldr         r0, [pc, #0x100]
  0589c	eb000000	 bl          NKDbgPrintfW
  058a0	ea000033	 b           |$LN5@DumpPrcmRe|
  058a4		 |$LN6@DumpPrcmRe|

; 2957 :             else if (DumpRegArray[i].RegWidth == 16)

  058a4	e59d1000	 ldr         r1, [sp]
  058a8	e3a03010	 mov         r3, #0x10
  058ac	e0020391	 mul         r2, r1, r3
  058b0	e59f30e0	 ldr         r3, [pc, #0xE0]
  058b4	e0833002	 add         r3, r3, r2
  058b8	e2833004	 add         r3, r3, #4
  058bc	e5933000	 ldr         r3, [r3]
  058c0	e3530010	 cmp         r3, #0x10
  058c4	1a00000f	 bne         |$LN4@DumpPrcmRe|

; 2958 :     		    OALMSG(1, (L"  %-24s     0x%04x\r\n", DumpRegArray[i].RegName, DumpRegArray[i].RegVal));

  058c8	e59d1000	 ldr         r1, [sp]
  058cc	e3a03010	 mov         r3, #0x10
  058d0	e0020391	 mul         r2, r1, r3
  058d4	e59f30bc	 ldr         r3, [pc, #0xBC]
  058d8	e0833002	 add         r3, r3, r2
  058dc	e283300c	 add         r3, r3, #0xC
  058e0	e5932000	 ldr         r2, [r3]
  058e4	e59d0000	 ldr         r0, [sp]
  058e8	e3a03010	 mov         r3, #0x10
  058ec	e0010390	 mul         r1, r0, r3
  058f0	e59f30a0	 ldr         r3, [pc, #0xA0]
  058f4	e0833001	 add         r3, r3, r1
  058f8	e5931000	 ldr         r1, [r3]
  058fc	e59f0098	 ldr         r0, [pc, #0x98]
  05900	eb000000	 bl          NKDbgPrintfW
  05904	ea00001a	 b           |$LN3@DumpPrcmRe|
  05908		 |$LN4@DumpPrcmRe|

; 2959 :             else if (DumpRegArray[i].RegWidth == 8)

  05908	e59d1000	 ldr         r1, [sp]
  0590c	e3a03010	 mov         r3, #0x10
  05910	e0020391	 mul         r2, r1, r3
  05914	e59f307c	 ldr         r3, [pc, #0x7C]
  05918	e0833002	 add         r3, r3, r2
  0591c	e2833004	 add         r3, r3, #4
  05920	e5933000	 ldr         r3, [r3]
  05924	e3530008	 cmp         r3, #8
  05928	1a00000f	 bne         |$LN2@DumpPrcmRe|

; 2960 :     		    OALMSG(1, (L"  %-24s       0x%02x\r\n", DumpRegArray[i].RegName, DumpRegArray[i].RegVal));

  0592c	e59d1000	 ldr         r1, [sp]
  05930	e3a03010	 mov         r3, #0x10
  05934	e0020391	 mul         r2, r1, r3
  05938	e59f3058	 ldr         r3, [pc, #0x58]
  0593c	e0833002	 add         r3, r3, r2
  05940	e283300c	 add         r3, r3, #0xC
  05944	e5932000	 ldr         r2, [r3]
  05948	e59d0000	 ldr         r0, [sp]
  0594c	e3a03010	 mov         r3, #0x10
  05950	e0010390	 mul         r1, r0, r3
  05954	e59f303c	 ldr         r3, [pc, #0x3C]
  05958	e0833001	 add         r3, r3, r1
  0595c	e5931000	 ldr         r1, [r3]
  05960	e59f002c	 ldr         r0, [pc, #0x2C]
  05964	eb000000	 bl          NKDbgPrintfW

; 2961 :             else

  05968	ea000001	 b           |$LN1@DumpPrcmRe|
  0596c		 |$LN2@DumpPrcmRe|

; 2962 :     		    OALMSG(1, (L"  %-24s <bad RegWidth>\r\n"));

  0596c	e59f001c	 ldr         r0, [pc, #0x1C]
  05970	eb000000	 bl          NKDbgPrintfW
  05974		 |$LN1@DumpPrcmRe|
  05974		 |$LN3@DumpPrcmRe|
  05974		 |$LN5@DumpPrcmRe|
  05974		 |$LN7@DumpPrcmRe|

; 2963 : 		}
; 2964 :         i++;

  05974	e59d3000	 ldr         r3, [sp]
  05978	e2833001	 add         r3, r3, #1
  0597c	e58d3000	 str         r3, [sp]

; 2965 : 	}

  05980	eaffff94	 b           |$LN10@DumpPrcmRe|
  05984		 |$LN9@DumpPrcmRe|

; 2966 : }

  05984	e28dd004	 add         sp, sp, #4
  05988	e49de004	 ldr         lr, [sp], #4
  0598c	e12fff1e	 bx          lr
  05990		 |$LN16@DumpPrcmRe|
  05990		 |$LN17@DumpPrcmRe|
  05990	00000000	 DCD         |??_C@_1DC@FONOMHHH@?$AA?5?$AA?5?$AA?$CF?$AA?9?$AA2?$AA4?$AAs?$AA?5?$AA?$DM?$AAb?$AAa?$AAd?$AA?5?$AAR?$AAe?$AAg?$AAW?$AAi?$AAd?$AAt?$AAh?$AA?$DO?$AA?$AN?$AA?6?$AA?$AA@|
  05994		 |$LN18@DumpPrcmRe|
  05994	00000000	 DCD         |??_C@_1CO@MFMIFAHL@?$AA?5?$AA?5?$AA?$CF?$AA?9?$AA2?$AA4?$AAs?$AA?5?$AA?5?$AA?5?$AA?5?$AA?5?$AA?5?$AA?5?$AA0?$AAx?$AA?$CF?$AA0?$AA2?$AAx?$AA?$AN?$AA?6?$AA?$AA@|
  05998		 |$LN19@DumpPrcmRe|
  05998	00000000	 DCD         |DumpRegArray|
  0599c		 |$LN20@DumpPrcmRe|
  0599c	00000000	 DCD         |??_C@_1CK@ILNIDBPM@?$AA?5?$AA?5?$AA?$CF?$AA?9?$AA2?$AA4?$AAs?$AA?5?$AA?5?$AA?5?$AA?5?$AA?5?$AA0?$AAx?$AA?$CF?$AA0?$AA4?$AAx?$AA?$AN?$AA?6?$AA?$AA@|
  059a0		 |$LN21@DumpPrcmRe|
  059a0	00000000	 DCD         |??_C@_1CC@JKABMCGA@?$AA?5?$AA?5?$AA?$CF?$AA?9?$AA2?$AA4?$AAs?$AA?5?$AA0?$AAx?$AA?$CF?$AA0?$AA8?$AAx?$AA?$AN?$AA?6?$AA?$AA@|
  059a4		 |$LN22@DumpPrcmRe|
  059a4	00000000	 DCD         |??_C@_1BA@JCPLACBE@?$AA?$AN?$AA?6?$AA?$CF?$AAs?$AA?3?$AA?$AN?$AA?6?$AA?$AA@|
  059a8		 |$M49856|

			 ENDP  ; |DumpPrcmRegsSnapshot|

	EXPORT	|DumpPrcmRegs|

  000c8			 AREA	 |.pdata|, PDATA
|$T49870| DCD	|$LN15@DumpPrcmRe@2|
	DCD	0x40008702
; Function compile flags: /Odtp

  059a8			 AREA	 |.text|, CODE, ARM

  059a8		 |DumpPrcmRegs| PROC

; 2970 : {

  059a8		 |$LN15@DumpPrcmRe@2|
  059a8	e52de004	 str         lr, [sp, #-4]!
  059ac	e24dd010	 sub         sp, sp, #0x10
  059b0		 |$M49867|

; 2971 :     int i = 0;

  059b0	e3a03000	 mov         r3, #0
  059b4	e58d3000	 str         r3, [sp]
  059b8		 |$LN10@DumpPrcmRe@2|

; 2972 : 	
; 2973 : 	while (DumpRegArray[i].RegName != NULL)

  059b8	e59d1000	 ldr         r1, [sp]
  059bc	e3a03010	 mov         r3, #0x10
  059c0	e0020391	 mul         r2, r1, r3
  059c4	e59f31e8	 ldr         r3, [pc, #0x1E8]
  059c8	e0833002	 add         r3, r3, r2
  059cc	e5933000	 ldr         r3, [r3]
  059d0	e3530000	 cmp         r3, #0
  059d4	0a000071	 beq         |$LN9@DumpPrcmRe@2|

; 2974 : 	{
; 2975 :         if (DumpRegArray[i].RegPA == 0)

  059d8	e59d1000	 ldr         r1, [sp]
  059dc	e3a03010	 mov         r3, #0x10
  059e0	e0020391	 mul         r2, r1, r3
  059e4	e59f31c8	 ldr         r3, [pc, #0x1C8]
  059e8	e0833002	 add         r3, r3, r2
  059ec	e2833008	 add         r3, r3, #8
  059f0	e5933000	 ldr         r3, [r3]
  059f4	e3530000	 cmp         r3, #0
  059f8	1a000008	 bne         |$LN8@DumpPrcmRe@2|

; 2976 : 		{
; 2977 : 		    OALMSG(1, (L"\r\n%s:\r\n", DumpRegArray[i].RegName));

  059fc	e59d1000	 ldr         r1, [sp]
  05a00	e3a03010	 mov         r3, #0x10
  05a04	e0020391	 mul         r2, r1, r3
  05a08	e59f31a4	 ldr         r3, [pc, #0x1A4]
  05a0c	e0833002	 add         r3, r3, r2
  05a10	e5931000	 ldr         r1, [r3]
  05a14	e59f01a4	 ldr         r0, [pc, #0x1A4]
  05a18	eb000000	 bl          NKDbgPrintfW

; 2978 : 		}
; 2979 :         else

  05a1c	ea00005b	 b           |$LN7@DumpPrcmRe@2|
  05a20		 |$LN8@DumpPrcmRe@2|

; 2980 :         {
; 2981 :             if (DumpRegArray[i].RegWidth == 32)

  05a20	e59d1000	 ldr         r1, [sp]
  05a24	e3a03010	 mov         r3, #0x10
  05a28	e0020391	 mul         r2, r1, r3
  05a2c	e59f3180	 ldr         r3, [pc, #0x180]
  05a30	e0833002	 add         r3, r3, r2
  05a34	e2833004	 add         r3, r3, #4
  05a38	e5933000	 ldr         r3, [r3]
  05a3c	e3530020	 cmp         r3, #0x20
  05a40	1a000014	 bne         |$LN6@DumpPrcmRe@2|

; 2982 :     		    OALMSG(1, (L"  %-24s 0x%08x\r\n", DumpRegArray[i].RegName, INREG32(OALPAtoUA(DumpRegArray[i].RegPA))));

  05a44	e3a01000	 mov         r1, #0
  05a48	e59d0000	 ldr         r0, [sp]
  05a4c	e3a03010	 mov         r3, #0x10
  05a50	e0020390	 mul         r2, r0, r3
  05a54	e59f3158	 ldr         r3, [pc, #0x158]
  05a58	e0833002	 add         r3, r3, r2
  05a5c	e2833008	 add         r3, r3, #8
  05a60	e5930000	 ldr         r0, [r3]
  05a64	eb000000	 bl          OALPAtoVA
  05a68	e58d0004	 str         r0, [sp, #4]
  05a6c	e59d3004	 ldr         r3, [sp, #4]
  05a70	e5932000	 ldr         r2, [r3]
  05a74	e59d0000	 ldr         r0, [sp]
  05a78	e3a03010	 mov         r3, #0x10
  05a7c	e0010390	 mul         r1, r0, r3
  05a80	e59f312c	 ldr         r3, [pc, #0x12C]
  05a84	e0833001	 add         r3, r3, r1
  05a88	e5931000	 ldr         r1, [r3]
  05a8c	e59f0128	 ldr         r0, [pc, #0x128]
  05a90	eb000000	 bl          NKDbgPrintfW
  05a94	ea00003d	 b           |$LN5@DumpPrcmRe@2|
  05a98		 |$LN6@DumpPrcmRe@2|

; 2983 :             else if (DumpRegArray[i].RegWidth == 16)

  05a98	e59d1000	 ldr         r1, [sp]
  05a9c	e3a03010	 mov         r3, #0x10
  05aa0	e0020391	 mul         r2, r1, r3
  05aa4	e59f3108	 ldr         r3, [pc, #0x108]
  05aa8	e0833002	 add         r3, r3, r2
  05aac	e2833004	 add         r3, r3, #4
  05ab0	e5933000	 ldr         r3, [r3]
  05ab4	e3530010	 cmp         r3, #0x10
  05ab8	1a000014	 bne         |$LN4@DumpPrcmRe@2|

; 2984 :     		    OALMSG(1, (L"  %-24s     0x%04x\r\n", DumpRegArray[i].RegName, INREG16(OALPAtoUA(DumpRegArray[i].RegPA))));

  05abc	e3a01000	 mov         r1, #0
  05ac0	e59d0000	 ldr         r0, [sp]
  05ac4	e3a03010	 mov         r3, #0x10
  05ac8	e0020390	 mul         r2, r0, r3
  05acc	e59f30e0	 ldr         r3, [pc, #0xE0]
  05ad0	e0833002	 add         r3, r3, r2
  05ad4	e2833008	 add         r3, r3, #8
  05ad8	e5930000	 ldr         r0, [r3]
  05adc	eb000000	 bl          OALPAtoVA
  05ae0	e58d0008	 str         r0, [sp, #8]
  05ae4	e59d3008	 ldr         r3, [sp, #8]
  05ae8	e1d320b0	 ldrh        r2, [r3]
  05aec	e59d0000	 ldr         r0, [sp]
  05af0	e3a03010	 mov         r3, #0x10
  05af4	e0010390	 mul         r1, r0, r3
  05af8	e59f30b4	 ldr         r3, [pc, #0xB4]
  05afc	e0833001	 add         r3, r3, r1
  05b00	e5931000	 ldr         r1, [r3]
  05b04	e59f00ac	 ldr         r0, [pc, #0xAC]
  05b08	eb000000	 bl          NKDbgPrintfW
  05b0c	ea00001f	 b           |$LN3@DumpPrcmRe@2|
  05b10		 |$LN4@DumpPrcmRe@2|

; 2985 :             else if (DumpRegArray[i].RegWidth == 8)

  05b10	e59d1000	 ldr         r1, [sp]
  05b14	e3a03010	 mov         r3, #0x10
  05b18	e0020391	 mul         r2, r1, r3
  05b1c	e59f3090	 ldr         r3, [pc, #0x90]
  05b20	e0833002	 add         r3, r3, r2
  05b24	e2833004	 add         r3, r3, #4
  05b28	e5933000	 ldr         r3, [r3]
  05b2c	e3530008	 cmp         r3, #8
  05b30	1a000014	 bne         |$LN2@DumpPrcmRe@2|

; 2986 :     		    OALMSG(1, (L"  %-24s       0x%02x\r\n", DumpRegArray[i].RegName, INREG8(OALPAtoUA(DumpRegArray[i].RegPA))));

  05b34	e3a01000	 mov         r1, #0
  05b38	e59d0000	 ldr         r0, [sp]
  05b3c	e3a03010	 mov         r3, #0x10
  05b40	e0020390	 mul         r2, r0, r3
  05b44	e59f3068	 ldr         r3, [pc, #0x68]
  05b48	e0833002	 add         r3, r3, r2
  05b4c	e2833008	 add         r3, r3, #8
  05b50	e5930000	 ldr         r0, [r3]
  05b54	eb000000	 bl          OALPAtoVA
  05b58	e58d000c	 str         r0, [sp, #0xC]
  05b5c	e59d300c	 ldr         r3, [sp, #0xC]
  05b60	e5d32000	 ldrb        r2, [r3]
  05b64	e59d0000	 ldr         r0, [sp]
  05b68	e3a03010	 mov         r3, #0x10
  05b6c	e0010390	 mul         r1, r0, r3
  05b70	e59f303c	 ldr         r3, [pc, #0x3C]
  05b74	e0833001	 add         r3, r3, r1
  05b78	e5931000	 ldr         r1, [r3]
  05b7c	e59f002c	 ldr         r0, [pc, #0x2C]
  05b80	eb000000	 bl          NKDbgPrintfW

; 2987 :             else

  05b84	ea000001	 b           |$LN1@DumpPrcmRe@2|
  05b88		 |$LN2@DumpPrcmRe@2|

; 2988 :     		    OALMSG(1, (L"  %-24s <bad RegWidth>\r\n"));

  05b88	e59f001c	 ldr         r0, [pc, #0x1C]
  05b8c	eb000000	 bl          NKDbgPrintfW
  05b90		 |$LN1@DumpPrcmRe@2|
  05b90		 |$LN3@DumpPrcmRe@2|
  05b90		 |$LN5@DumpPrcmRe@2|
  05b90		 |$LN7@DumpPrcmRe@2|

; 2989 :         }
; 2990 :         i++;

  05b90	e59d3000	 ldr         r3, [sp]
  05b94	e2833001	 add         r3, r3, #1
  05b98	e58d3000	 str         r3, [sp]

; 2991 : 	}

  05b9c	eaffff85	 b           |$LN10@DumpPrcmRe@2|
  05ba0		 |$LN9@DumpPrcmRe@2|

; 2992 : }

  05ba0	e28dd010	 add         sp, sp, #0x10
  05ba4	e49de004	 ldr         lr, [sp], #4
  05ba8	e12fff1e	 bx          lr
  05bac		 |$LN16@DumpPrcmRe@2|
  05bac		 |$LN17@DumpPrcmRe@2|
  05bac	00000000	 DCD         |??_C@_1DC@FONOMHHH@?$AA?5?$AA?5?$AA?$CF?$AA?9?$AA2?$AA4?$AAs?$AA?5?$AA?$DM?$AAb?$AAa?$AAd?$AA?5?$AAR?$AAe?$AAg?$AAW?$AAi?$AAd?$AAt?$AAh?$AA?$DO?$AA?$AN?$AA?6?$AA?$AA@|
  05bb0		 |$LN18@DumpPrcmRe@2|
  05bb0	00000000	 DCD         |??_C@_1CO@MFMIFAHL@?$AA?5?$AA?5?$AA?$CF?$AA?9?$AA2?$AA4?$AAs?$AA?5?$AA?5?$AA?5?$AA?5?$AA?5?$AA?5?$AA?5?$AA0?$AAx?$AA?$CF?$AA0?$AA2?$AAx?$AA?$AN?$AA?6?$AA?$AA@|
  05bb4		 |$LN19@DumpPrcmRe@2|
  05bb4	00000000	 DCD         |DumpRegArray|
  05bb8		 |$LN20@DumpPrcmRe@2|
  05bb8	00000000	 DCD         |??_C@_1CK@ILNIDBPM@?$AA?5?$AA?5?$AA?$CF?$AA?9?$AA2?$AA4?$AAs?$AA?5?$AA?5?$AA?5?$AA?5?$AA?5?$AA0?$AAx?$AA?$CF?$AA0?$AA4?$AAx?$AA?$AN?$AA?6?$AA?$AA@|
  05bbc		 |$LN21@DumpPrcmRe@2|
  05bbc	00000000	 DCD         |??_C@_1CC@JKABMCGA@?$AA?5?$AA?5?$AA?$CF?$AA?9?$AA2?$AA4?$AAs?$AA?5?$AA0?$AAx?$AA?$CF?$AA0?$AA8?$AAx?$AA?$AN?$AA?6?$AA?$AA@|
  05bc0		 |$LN22@DumpPrcmRe@2|
  05bc0	00000000	 DCD         |??_C@_1BA@JCPLACBE@?$AA?$AN?$AA?6?$AA?$CF?$AAs?$AA?3?$AA?$AN?$AA?6?$AA?$AA@|
  05bc4		 |$M49868|

			 ENDP  ; |DumpPrcmRegs|

	END
