; Listing generated by Microsoft (R) Optimizing Compiler Version 14.01.60511.01 

	TTL	C:\WINCE600\PLATFORM\COMMON\SRC\SOC\COMMON_TI_V1\COMMON_TI\PM\POWERPOLICYROOT\api.cpp
	CODE32

  00000			 AREA	 |.drectve|, DRECTVE
	DCB	"/include:?_factory@?$$singleton@V?$$free_list@$$0GE@Vall"
	DCB	"ocator@ce@@@ce@@$$03V?$$static_allocator@V?$$free_list@$$"
	DCB	"0GE@Vallocator@ce@@@ce@@$$03@2@@ce@@1Ulock_factory@12@A "
	DCB	"-defaultlib:LIBCMT "
	DCB	"-defaultlib:OLDNAMES "

	EXPORT	|?g_pPolicyRoot@@3PAVPolicyRoot@@A| [ DATA ] ; g_pPolicyRoot

  00000			 AREA	 |.bss|, NOINIT
|?g_pPolicyRoot@@3PAVPolicyRoot@@A| % 0x4		; g_pPolicyRoot
	EXPORT	|??_GPolicyRoot@@QAAPAXI@Z|		; PolicyRoot::`scalar deleting destructor'
	EXPORT	|?Uninitialize@PolicyRoot@@QAAXXZ|	; PolicyRoot::Uninitialize
	EXPORT	|?UninitializePolicyRoot@@YAXK@Z|	; UninitializePolicyRoot

  00000			 AREA	 |.pdata|, PDATA
|$T37260| DCD	|$LN8@Uninitiali|
	DCD	0x40002304
; Function compile flags: /Odtp
; File c:\wince600\platform\common\src\soc\common_ti_v1\common_ti\pm\powerpolicyroot\api.cpp

  00000			 AREA	 |.text|, CODE, ARM

  00000		 |?UninitializePolicyRoot@@YAXK@Z| PROC	; UninitializePolicyRoot

; 40   : {

  00000		 |$LN8@Uninitiali|
  00000	e1a0c00d	 mov         r12, sp
  00004	e92d0001	 stmdb       sp!, {r0}
  00008	e92d5000	 stmdb       sp!, {r12, lr}
  0000c	e24dd010	 sub         sp, sp, #0x10
  00010		 |$M37257|

; 41   :     UNREFERENCED_PARAMETER(dwExtContext);
; 42   : 
; 43   :     // delete policy root if initialization failed
; 44   :     if (g_pPolicyRoot != NULL)

  00010	e59f3070	 ldr         r3, [pc, #0x70]
  00014	e5933000	 ldr         r3, [r3]
  00018	e3530000	 cmp         r3, #0
  0001c	0a000013	 beq         |$LN1@Uninitiali|

; 45   :         {
; 46   :         g_pPolicyRoot->Uninitialize();

  00020	e59f3060	 ldr         r3, [pc, #0x60]
  00024	e5930000	 ldr         r0, [r3]
  00028	eb000000	 bl          |?Uninitialize@PolicyRoot@@QAAXXZ|

; 47   :         delete g_pPolicyRoot;

  0002c	e59f3054	 ldr         r3, [pc, #0x54]
  00030	e5933000	 ldr         r3, [r3]
  00034	e58d3004	 str         r3, [sp, #4]
  00038	e59d3004	 ldr         r3, [sp, #4]
  0003c	e58d3000	 str         r3, [sp]
  00040	e59d3000	 ldr         r3, [sp]
  00044	e3530000	 cmp         r3, #0
  00048	0a000006	 beq         |$LN4@Uninitiali|
  0004c	e3a01001	 mov         r1, #1
  00050	e59d0000	 ldr         r0, [sp]
  00054	eb000000	 bl          |??_GPolicyRoot@@QAAPAXI@Z|
  00058	e58d0008	 str         r0, [sp, #8]
  0005c	e59d3008	 ldr         r3, [sp, #8]
  00060	e58d300c	 str         r3, [sp, #0xC]
  00064	ea000001	 b           |$LN5@Uninitiali|
  00068		 |$LN4@Uninitiali|
  00068	e3a03000	 mov         r3, #0
  0006c	e58d300c	 str         r3, [sp, #0xC]
  00070		 |$LN5@Uninitiali|
  00070		 |$LN1@Uninitiali|

; 48   :         }
; 49   :     
; 50   :     g_pPolicyRoot = NULL;    

  00070	e59f2010	 ldr         r2, [pc, #0x10]
  00074	e3a03000	 mov         r3, #0
  00078	e5823000	 str         r3, [r2]

; 51   : }

  0007c	e28dd010	 add         sp, sp, #0x10
  00080	e89d6000	 ldmia       sp, {sp, lr}
  00084	e12fff1e	 bx          lr
  00088		 |$LN9@Uninitiali|
  00088		 |$LN10@Uninitiali|
  00088	00000000	 DCD         |?g_pPolicyRoot@@3PAVPolicyRoot@@A|
  0008c		 |$M37258|

			 ENDP  ; |?UninitializePolicyRoot@@YAXK@Z|, UninitializePolicyRoot

	IMPORT	|?Uninitialize@PolicyContainer@@QAAXXZ|	; PolicyContainer::Uninitialize
; File c:\wince600\platform\common\src\soc\common_ti_v1\common_ti\pm\powerpolicyroot\policyroot.h

  00000			 AREA	 |.pdata|, PDATA
|$T37267| DCD	|$LN5@Uninitiali@2|
	DCD	0x40000803
; Function compile flags: /Odtp

  00000			 AREA	 |.text|, CODE, ARM

  00000		 |?Uninitialize@PolicyRoot@@QAAXXZ| PROC ; PolicyRoot::Uninitialize

; 80   :     {

  00000		 |$LN5@Uninitiali@2|
  00000	e1a0c00d	 mov         r12, sp
  00004	e92d0001	 stmdb       sp!, {r0}
  00008	e92d5000	 stmdb       sp!, {r12, lr}
  0000c		 |$M37264|

; 81   :         m_PolicyContainer.Uninitialize();

  0000c	e59d3008	 ldr         r3, [sp, #8]
  00010	e2830f82	 add         r0, r3, #0x82, 30
  00014	eb000000	 bl          |?Uninitialize@PolicyContainer@@QAAXXZ|

; 82   :     }

  00018	e89d6000	 ldmia       sp, {sp, lr}
  0001c	e12fff1e	 bx          lr
  00020		 |$M37265|

			 ENDP  ; |?Uninitialize@PolicyRoot@@QAAXXZ|, PolicyRoot::Uninitialize

	EXPORT	|??1PolicyRoot@@QAA@XZ|			; PolicyRoot::~PolicyRoot
	IMPORT	|??3@YAXPAX@Z|				; operator delete

  00000			 AREA	 |.pdata|, PDATA
|$T37275| DCD	|$LN6@scalar|
	DCD	0x40001104
; Function compile flags: /Odtp

  00000			 AREA	 |.text|, CODE, ARM

  00000		 |??_GPolicyRoot@@QAAPAXI@Z| PROC	; PolicyRoot::`scalar deleting destructor'
  00000		 |$LN6@scalar|
  00000	e1a0c00d	 mov         r12, sp
  00004	e92d0003	 stmdb       sp!, {r0, r1}
  00008	e92d5000	 stmdb       sp!, {r12, lr}
  0000c	e24dd004	 sub         sp, sp, #4
  00010		 |$M37272|
  00010	e59d000c	 ldr         r0, [sp, #0xC]
  00014	eb000000	 bl          |??1PolicyRoot@@QAA@XZ|
  00018	e59d3010	 ldr         r3, [sp, #0x10]
  0001c	e3130001	 tst         r3, #1
  00020	0a000001	 beq         |$LN1@scalar|
  00024	e59d000c	 ldr         r0, [sp, #0xC]
  00028	eb000000	 bl          |??3@YAXPAX@Z|
  0002c		 |$LN1@scalar|
  0002c	e59d300c	 ldr         r3, [sp, #0xC]
  00030	e58d3000	 str         r3, [sp]
  00034	e59d0000	 ldr         r0, [sp]
  00038	e28dd004	 add         sp, sp, #4
  0003c	e89d6000	 ldmia       sp, {sp, lr}
  00040	e12fff1e	 bx          lr
  00044		 |$M37273|

			 ENDP  ; |??_GPolicyRoot@@QAAPAXI@Z|, PolicyRoot::`scalar deleting destructor'

	EXPORT	|??1PolicyContainer@@QAA@XZ|		; PolicyContainer::~PolicyContainer

  00000			 AREA	 |.pdata|, PDATA
|$T37282| DCD	|$LN5@PolicyRoot|
	DCD	0x40000803
; Function compile flags: /Odtp

  00000			 AREA	 |.text|, CODE, ARM

  00000		 |??1PolicyRoot@@QAA@XZ| PROC		; PolicyRoot::~PolicyRoot
  00000		 |$LN5@PolicyRoot|
  00000	e1a0c00d	 mov         r12, sp
  00004	e92d0001	 stmdb       sp!, {r0}
  00008	e92d5000	 stmdb       sp!, {r12, lr}
  0000c		 |$M37279|
  0000c	e59d3008	 ldr         r3, [sp, #8]
  00010	e2830f82	 add         r0, r3, #0x82, 30
  00014	eb000000	 bl          |??1PolicyContainer@@QAA@XZ|
  00018	e89d6000	 ldmia       sp, {sp, lr}
  0001c	e12fff1e	 bx          lr
  00020		 |$M37280|

			 ENDP  ; |??1PolicyRoot@@QAA@XZ|, PolicyRoot::~PolicyRoot

	EXPORT	|??1?$list@PAVPolicyAdapter@@Vallocator@ce@@@ce@@QAA@XZ| ; ce::list<PolicyAdapter *,ce::allocator>::~list<PolicyAdapter *,ce::allocator>

  00000			 AREA	 |.pdata|, PDATA
|$T37289| DCD	|$LN5@PolicyCont|
	DCD	0x40000703
; Function compile flags: /Odtp

  00000			 AREA	 |.text|, CODE, ARM

  00000		 |??1PolicyContainer@@QAA@XZ| PROC	; PolicyContainer::~PolicyContainer
  00000		 |$LN5@PolicyCont|
  00000	e1a0c00d	 mov         r12, sp
  00004	e92d0001	 stmdb       sp!, {r0}
  00008	e92d5000	 stmdb       sp!, {r12, lr}
  0000c		 |$M37286|
  0000c	e59d0008	 ldr         r0, [sp, #8]
  00010	eb000000	 bl          |??1?$list@PAVPolicyAdapter@@Vallocator@ce@@@ce@@QAA@XZ|
  00014	e89d6000	 ldmia       sp, {sp, lr}
  00018	e12fff1e	 bx          lr
  0001c		 |$M37287|

			 ENDP  ; |??1PolicyContainer@@QAA@XZ|, PolicyContainer::~PolicyContainer

	EXPORT	|??1CRegistryEdit@@QAA@XZ|		; CRegistryEdit::~CRegistryEdit
	EXPORT	|?PostInitialize@PolicyRoot@@QAAHXZ|	; PolicyRoot::PostInitialize
	EXPORT	|?RegQueryValueExW@CRegistryEdit@@QAAHPBGPAKPAE1@Z| ; CRegistryEdit::RegQueryValueExW
	EXPORT	|??_C@_1CA@IJGOHECG@?$AAP?$AAo?$AAw?$AAe?$AAr?$AAP?$AAo?$AAl?$AAi?$AAc?$AAy?$AAR?$AAo?$AAo?$AAt?$AA?$AA@| [ DATA ] ; `string'
	EXPORT	|??0PolicyRoot@@QAA@XZ|			; PolicyRoot::PolicyRoot
	EXPORT	|??0CRegistryEdit@@QAA@PAUHKEY__@@PBG@Z| ; CRegistryEdit::CRegistryEdit
	EXPORT	|__$ArrayPad$| [ DATA ]
	EXPORT	|?InitializePolicyRoot@@YAKPAUHKEY__@@PBG@Z| ; InitializePolicyRoot
	IMPORT	|?Initialize@PolicyRoot@@QAAHPBG@Z|	; PolicyRoot::Initialize
	IMPORT	|??2@YAPAXI@Z|				; operator new
	IMPORT	|__security_cookie|
	IMPORT	|__GSHandlerCheck|
	IMPORT	|__security_check_cookie|

  00008			 AREA	 |.pdata|, PDATA
|$T37307| DCD	|$LN13@Initialize|
	DCD	0xc0005904
; File c:\wince600\platform\common\src\soc\common_ti_v1\common_ti\pm\powerpolicyroot\api.cpp

  00000			 AREA	 |.rdata|, DATA, READONLY
|??_C@_1CA@IJGOHECG@?$AAP?$AAo?$AAw?$AAe?$AAr?$AAP?$AAo?$AAl?$AAi?$AAc?$AAy?$AAR?$AAo?$AAo?$AAt?$AA?$AA@| DCB "P"
	DCB	0x0, "o", 0x0, "w", 0x0, "e", 0x0, "r", 0x0, "P", 0x0, "o"
	DCB	0x0, "l", 0x0, "i", 0x0, "c", 0x0, "y", 0x0, "R", 0x0, "o"
	DCB	0x0, "o", 0x0, "t", 0x0, 0x0, 0x0	; `string'

  00000			 AREA	 |.xdata|, DATA
|$T37303| DCD	0xffffffc8
; Function compile flags: /Odtp

  0008c			 AREA	 |.text|, CODE, ARM

  0008c	00000000	 DCD         |__GSHandlerCheck|
  00090	00000000	 DCD         |$T37303|

  00094		 |?InitializePolicyRoot@@YAKPAUHKEY__@@PBG@Z| PROC ; InitializePolicyRoot

; 64   : {   

  00094		 |$LN13@Initialize|
  00094	e1a0c00d	 mov         r12, sp
  00098	e92d0003	 stmdb       sp!, {r0, r1}
  0009c	e92d5000	 stmdb       sp!, {r12, lr}
  000a0	e24ddf93	 sub         sp, sp, #0x93, 30
  000a4		 |$M37304|
  000a4	e59f3148	 ldr         r3, [pc, #0x148]
  000a8	e5933000	 ldr         r3, [r3]
  000ac	e58d3224	 str         r3, [sp, #0x224]

; 65   :     DWORD rc = FALSE;

  000b0	e3a03000	 mov         r3, #0
  000b4	e58d3008	 str         r3, [sp, #8]

; 66   :     _TCHAR szBuffer[MAX_PATH];
; 67   :     CRegistryEdit Registry(hKey, lpRegistryPath);

  000b8	e59d2258	 ldr         r2, [sp, #0x258]
  000bc	e59d1254	 ldr         r1, [sp, #0x254]
  000c0	e28d0f86	 add         r0, sp, #0x86, 30
  000c4	eb000000	 bl          |??0CRegistryEdit@@QAA@PAUHKEY__@@PBG@Z|
  000c8	e58d0230	 str         r0, [sp, #0x230]

; 68   : 
; 69   :     // initialize the policy root object
; 70   :     g_pPolicyRoot = new PolicyRoot();

  000cc	e3a00e22	 mov         r0, #0x22, 28
  000d0	eb000000	 bl          |??2@YAPAXI@Z|
  000d4	e58d0234	 str         r0, [sp, #0x234]
  000d8	e59d3234	 ldr         r3, [sp, #0x234]
  000dc	e58d321c	 str         r3, [sp, #0x21C]
  000e0	e59d321c	 ldr         r3, [sp, #0x21C]
  000e4	e3530000	 cmp         r3, #0
  000e8	0a000005	 beq         |$LN9@Initialize|
  000ec	e59d021c	 ldr         r0, [sp, #0x21C]
  000f0	eb000000	 bl          |??0PolicyRoot@@QAA@XZ|
  000f4	e58d0238	 str         r0, [sp, #0x238]
  000f8	e59d3238	 ldr         r3, [sp, #0x238]
  000fc	e58d323c	 str         r3, [sp, #0x23C]
  00100	ea000001	 b           |$LN10@Initialize|
  00104		 |$LN9@Initialize|
  00104	e3a03000	 mov         r3, #0
  00108	e58d323c	 str         r3, [sp, #0x23C]
  0010c		 |$LN10@Initialize|
  0010c	e59d223c	 ldr         r2, [sp, #0x23C]
  00110	e59f30d4	 ldr         r3, [pc, #0xD4]
  00114	e5832000	 str         r2, [r3]

; 71   :     if (g_pPolicyRoot == NULL) goto cleanUp;

  00118	e59f30cc	 ldr         r3, [pc, #0xCC]
  0011c	e5933000	 ldr         r3, [r3]
  00120	e3530000	 cmp         r3, #0
  00124	1a000000	 bne         |$LN6@Initialize|
  00128	ea00001d	 b           |$cleanUp$36314|
  0012c		 |$LN6@Initialize|

; 72   : 
; 73   :     // Read device parameters
; 74   :     DWORD dwType = REG_SZ;

  0012c	e3a03001	 mov         r3, #1
  00130	e58d3004	 str         r3, [sp, #4]

; 75   :     DWORD dwSize = sizeof(szBuffer);

  00134	e3a03f82	 mov         r3, #0x82, 30
  00138	e58d300c	 str         r3, [sp, #0xC]

; 76   :     if (TRUE == Registry.RegQueryValueEx(REGEDIT_POLICY_ROOT,
; 77   :             &dwType, (BYTE*)szBuffer, &dwSize))

  0013c	e28d300c	 add         r3, sp, #0xC
  00140	e58d3000	 str         r3, [sp]
  00144	e28d3010	 add         r3, sp, #0x10
  00148	e28d2004	 add         r2, sp, #4
  0014c	e59f109c	 ldr         r1, [pc, #0x9C]
  00150	e28d0f86	 add         r0, sp, #0x86, 30
  00154	eb000000	 bl          |?RegQueryValueExW@CRegistryEdit@@QAAHPBGPAKPAE1@Z|
  00158	e58d0240	 str         r0, [sp, #0x240]
  0015c	e59d3240	 ldr         r3, [sp, #0x240]
  00160	e3530001	 cmp         r3, #1
  00164	1a000008	 bne         |$LN4@Initialize|

; 78   :         {        
; 79   :         if (g_pPolicyRoot->Initialize(szBuffer) == FALSE)

  00168	e28d1010	 add         r1, sp, #0x10
  0016c	e59f3078	 ldr         r3, [pc, #0x78]
  00170	e5930000	 ldr         r0, [r3]
  00174	eb000000	 bl          |?Initialize@PolicyRoot@@QAAHPBG@Z|
  00178	e58d0244	 str         r0, [sp, #0x244]
  0017c	e59d3244	 ldr         r3, [sp, #0x244]
  00180	e3530000	 cmp         r3, #0
  00184	1a000000	 bne         |$LN3@Initialize|

; 80   :             {
; 81   :             goto cleanUp;

  00188	ea000005	 b           |$cleanUp$36314|
  0018c		 |$LN3@Initialize|
  0018c		 |$LN4@Initialize|

; 82   :             }
; 83   :         }
; 84   : 
; 85   :     // indicate success by returning a reference to global
; 86   :     //
; 87   :     rc = g_pPolicyRoot->PostInitialize();

  0018c	e59f3058	 ldr         r3, [pc, #0x58]
  00190	e5930000	 ldr         r0, [r3]
  00194	eb000000	 bl          |?PostInitialize@PolicyRoot@@QAAHXZ|
  00198	e58d0248	 str         r0, [sp, #0x248]
  0019c	e59d3248	 ldr         r3, [sp, #0x248]
  001a0	e58d3008	 str         r3, [sp, #8]
  001a4		 |$cleanUp$36314|

; 88   : 
; 89   : cleanUp:
; 90   :     if (rc == FALSE) UninitializePolicyRoot((DWORD)g_pPolicyRoot);

  001a4	e59d3008	 ldr         r3, [sp, #8]
  001a8	e3530000	 cmp         r3, #0
  001ac	1a000002	 bne         |$LN1@Initialize|
  001b0	e59f3034	 ldr         r3, [pc, #0x34]
  001b4	e5930000	 ldr         r0, [r3]
  001b8	eb000000	 bl          |?UninitializePolicyRoot@@YAXK@Z|
  001bc		 |$LN1@Initialize|

; 91   :     
; 92   :     return rc;

  001bc	e59d3008	 ldr         r3, [sp, #8]
  001c0	e58d3220	 str         r3, [sp, #0x220]
  001c4	e28d0f86	 add         r0, sp, #0x86, 30
  001c8	eb000000	 bl          |??1CRegistryEdit@@QAA@XZ|
  001cc	e59d0224	 ldr         r0, [sp, #0x224]
  001d0	eb000000	 bl          __security_check_cookie
  001d4	e59d3220	 ldr         r3, [sp, #0x220]
  001d8	e58d322c	 str         r3, [sp, #0x22C]

; 93   : }

  001dc	e59d022c	 ldr         r0, [sp, #0x22C]
  001e0	e28ddf93	 add         sp, sp, #0x93, 30
  001e4	e89d6000	 ldmia       sp, {sp, lr}
  001e8	e12fff1e	 bx          lr
  001ec		 |$LN14@Initialize|
  001ec		 |$LN15@Initialize|
  001ec	00000000	 DCD         |?g_pPolicyRoot@@3PAVPolicyRoot@@A|
  001f0		 |$LN16@Initialize|
  001f0	00000000	 DCD         |??_C@_1CA@IJGOHECG@?$AAP?$AAo?$AAw?$AAe?$AAr?$AAP?$AAo?$AAl?$AAi?$AAc?$AAy?$AAR?$AAo?$AAo?$AAt?$AA?$AA@|
  001f4		 |$LN17@Initialize|
  001f4	00000000	 DCD         |__security_cookie|
  001f8		 |$M37305|

			 ENDP  ; |?InitializePolicyRoot@@YAKPAUHKEY__@@PBG@Z|, InitializePolicyRoot

	IMPORT	|RegOpenKeyExW|
; File c:\wince600\public\common\oak\inc\cregedit.h

  00000			 AREA	 |.pdata|, PDATA
|$T37318| DCD	|$LN7@CRegistryE|
	DCD	0x40001e04
; Function compile flags: /Odtp

  00000			 AREA	 |.text|, CODE, ARM

  00000		 |??0CRegistryEdit@@QAA@PAUHKEY__@@PBG@Z| PROC ; CRegistryEdit::CRegistryEdit

; 45   :     CRegistryEdit( HKEY hKey, LPCTSTR pszRegPath )

  00000		 |$LN7@CRegistryE|
  00000	e1a0c00d	 mov         r12, sp
  00004	e92d0007	 stmdb       sp!, {r0 - r2}
  00008	e92d5000	 stmdb       sp!, {r12, lr}
  0000c	e24dd010	 sub         sp, sp, #0x10
  00010		 |$M37315|

; 46   :     {
; 47   :         m_hDevKey = NULL;

  00010	e59d2018	 ldr         r2, [sp, #0x18]
  00014	e3a03000	 mov         r3, #0
  00018	e5823000	 str         r3, [r2]

; 48   :         if( pszRegPath )

  0001c	e59d3020	 ldr         r3, [sp, #0x20]
  00020	e3530000	 cmp         r3, #0
  00024	0a00000d	 beq         |$LN2@CRegistryE|

; 49   :         {
; 50   :             if( RegOpenKeyEx( hKey, pszRegPath, 0, 0, &m_hDevKey ) != ERROR_SUCCESS )

  00028	e59d3018	 ldr         r3, [sp, #0x18]
  0002c	e58d3000	 str         r3, [sp]
  00030	e3a03000	 mov         r3, #0
  00034	e3a02000	 mov         r2, #0
  00038	e59d1020	 ldr         r1, [sp, #0x20]
  0003c	e59d001c	 ldr         r0, [sp, #0x1C]
  00040	eb000000	 bl          RegOpenKeyExW
  00044	e58d000c	 str         r0, [sp, #0xC]
  00048	e59d300c	 ldr         r3, [sp, #0xC]
  0004c	e3530000	 cmp         r3, #0
  00050	0a000002	 beq         |$LN1@CRegistryE|

; 51   :             {
; 52   :                 m_hDevKey = NULL;

  00054	e59d2018	 ldr         r2, [sp, #0x18]
  00058	e3a03000	 mov         r3, #0
  0005c	e5823000	 str         r3, [r2]
  00060		 |$LN1@CRegistryE|
  00060		 |$LN2@CRegistryE|

; 53   :             }
; 54   :         }
; 55   :     }

  00060	e59d3018	 ldr         r3, [sp, #0x18]
  00064	e58d3008	 str         r3, [sp, #8]
  00068	e59d0008	 ldr         r0, [sp, #8]
  0006c	e28dd010	 add         sp, sp, #0x10
  00070	e89d6000	 ldmia       sp, {sp, lr}
  00074	e12fff1e	 bx          lr
  00078		 |$M37316|

			 ENDP  ; |??0CRegistryEdit@@QAA@PAUHKEY__@@PBG@Z|, CRegistryEdit::CRegistryEdit

	IMPORT	|RegCloseKey|

  00000			 AREA	 |.pdata|, PDATA
|$T37325| DCD	|$LN6@CRegistryE@2|
	DCD	0x40000c03
; Function compile flags: /Odtp

  00000			 AREA	 |.text|, CODE, ARM

  00000		 |??1CRegistryEdit@@QAA@XZ| PROC	; CRegistryEdit::~CRegistryEdit

; 80   :     {

  00000		 |$LN6@CRegistryE@2|
  00000	e1a0c00d	 mov         r12, sp
  00004	e92d0001	 stmdb       sp!, {r0}
  00008	e92d5000	 stmdb       sp!, {r12, lr}
  0000c		 |$M37322|

; 81   :         if( m_hDevKey )

  0000c	e59d3008	 ldr         r3, [sp, #8]
  00010	e5933000	 ldr         r3, [r3]
  00014	e3530000	 cmp         r3, #0
  00018	0a000002	 beq         |$LN1@CRegistryE@2|

; 82   :         {
; 83   :             RegCloseKey( m_hDevKey );

  0001c	e59d3008	 ldr         r3, [sp, #8]
  00020	e5930000	 ldr         r0, [r3]
  00024	eb000000	 bl          RegCloseKey
  00028		 |$LN1@CRegistryE@2|

; 84   :         }
; 85   :     }

  00028	e89d6000	 ldmia       sp, {sp, lr}
  0002c	e12fff1e	 bx          lr
  00030		 |$M37323|

			 ENDP  ; |??1CRegistryEdit@@QAA@XZ|, CRegistryEdit::~CRegistryEdit

	IMPORT	|RegQueryValueExW|

  00000			 AREA	 |.pdata|, PDATA
|$T37337| DCD	|$LN7@RegQueryVa|
	DCD	0x40001f04
; Function compile flags: /Odtp

  00000			 AREA	 |.text|, CODE, ARM

  00000		 |?RegQueryValueExW@CRegistryEdit@@QAAHPBGPAKPAE1@Z| PROC ; CRegistryEdit::RegQueryValueExW

; 145  :     {

  00000		 |$LN7@RegQueryVa|
  00000	e1a0c00d	 mov         r12, sp
  00004	e92d000f	 stmdb       sp!, {r0 - r3}
  00008	e92d5000	 stmdb       sp!, {r12, lr}
  0000c	e24dd020	 sub         sp, sp, #0x20
  00010		 |$M37334|

; 146  :         LONG status = ::RegQueryValueEx( m_hDevKey,
; 147  :                                            lpcName,
; 148  :                                            NULL,
; 149  :                                            pdwType,
; 150  :                                            lpData,
; 151  :                                            pdwDataLen );

  00010	e59d3038	 ldr         r3, [sp, #0x38]
  00014	e58d3004	 str         r3, [sp, #4]
  00018	e59d3034	 ldr         r3, [sp, #0x34]
  0001c	e58d3000	 str         r3, [sp]
  00020	e59d3030	 ldr         r3, [sp, #0x30]
  00024	e3a02000	 mov         r2, #0
  00028	e59d102c	 ldr         r1, [sp, #0x2C]
  0002c	e59d0028	 ldr         r0, [sp, #0x28]
  00030	e5900000	 ldr         r0, [r0]
  00034	eb000000	 bl          RegQueryValueExW
  00038	e58d0018	 str         r0, [sp, #0x18]
  0003c	e59d3018	 ldr         r3, [sp, #0x18]
  00040	e58d3008	 str         r3, [sp, #8]

; 152  :         return ( status == ERROR_SUCCESS );

  00044	e59d3008	 ldr         r3, [sp, #8]
  00048	e3530000	 cmp         r3, #0
  0004c	1a000002	 bne         |$LN3@RegQueryVa|
  00050	e3a03001	 mov         r3, #1
  00054	e58d301c	 str         r3, [sp, #0x1C]
  00058	ea000001	 b           |$LN4@RegQueryVa|
  0005c		 |$LN3@RegQueryVa|
  0005c	e3a03000	 mov         r3, #0
  00060	e58d301c	 str         r3, [sp, #0x1C]
  00064		 |$LN4@RegQueryVa|
  00064	e59d301c	 ldr         r3, [sp, #0x1C]
  00068	e58d3014	 str         r3, [sp, #0x14]

; 153  :     };

  0006c	e59d0014	 ldr         r0, [sp, #0x14]
  00070	e28dd020	 add         sp, sp, #0x20
  00074	e89d6000	 ldmia       sp, {sp, lr}
  00078	e12fff1e	 bx          lr
  0007c		 |$M37335|

			 ENDP  ; |?RegQueryValueExW@CRegistryEdit@@QAAHPBGPAKPAE1@Z|, CRegistryEdit::RegQueryValueExW

	EXPORT	|??0PolicyContainer@@QAA@XZ|		; PolicyContainer::PolicyContainer
; File c:\wince600\platform\common\src\soc\common_ti_v1\common_ti\pm\powerpolicyroot\policyroot.h

  00000			 AREA	 |.pdata|, PDATA
|$T37345| DCD	|$LN5@PolicyRoot@2|
	DCD	0x40001904
; Function compile flags: /Odtp

  00000			 AREA	 |.text|, CODE, ARM

  00000		 |??0PolicyRoot@@QAA@XZ| PROC		; PolicyRoot::PolicyRoot

; 54   :     {

  00000		 |$LN5@PolicyRoot@2|
  00000	e1a0c00d	 mov         r12, sp
  00004	e92d0001	 stmdb       sp!, {r0}
  00008	e92d5000	 stmdb       sp!, {r12, lr}
  0000c	e24dd008	 sub         sp, sp, #8
  00010		 |$M37342|
  00010	e59d3010	 ldr         r3, [sp, #0x10]
  00014	e2830f82	 add         r0, r3, #0x82, 30
  00018	eb000000	 bl          |??0PolicyContainer@@QAA@XZ|
  0001c	e58d0004	 str         r0, [sp, #4]
  00020	e59d3010	 ldr         r3, [sp, #0x10]
  00024	e2832f86	 add         r2, r3, #0x86, 30
  00028	e3a03000	 mov         r3, #0
  0002c	e5823000	 str         r3, [r2]
  00030	e59d3010	 ldr         r3, [sp, #0x10]
  00034	e2832f87	 add         r2, r3, #0x87, 30
  00038	e3a03000	 mov         r3, #0
  0003c	e5823000	 str         r3, [r2]

; 55   :         *m_szPolicyKey = NULL;

  00040	e59d2010	 ldr         r2, [sp, #0x10]
  00044	e3a03000	 mov         r3, #0
  00048	e1c230b0	 strh        r3, [r2]

; 56   :         
; 57   :     }

  0004c	e59d3010	 ldr         r3, [sp, #0x10]
  00050	e58d3000	 str         r3, [sp]
  00054	e59d0000	 ldr         r0, [sp]
  00058	e28dd008	 add         sp, sp, #8
  0005c	e89d6000	 ldmia       sp, {sp, lr}
  00060	e12fff1e	 bx          lr
  00064		 |$M37343|

			 ENDP  ; |??0PolicyRoot@@QAA@XZ|, PolicyRoot::PolicyRoot

	EXPORT	|??0?$list@PAVPolicyAdapter@@Vallocator@ce@@@ce@@QAA@XZ| ; ce::list<PolicyAdapter *,ce::allocator>::list<PolicyAdapter *,ce::allocator>
; File c:\wince600\platform\common\src\soc\common_ti_v1\common_ti\pm\powerpolicyroot\policycontainer.h

  00000			 AREA	 |.pdata|, PDATA
|$T37353| DCD	|$LN5@PolicyCont@2|
	DCD	0x40000d04
; Function compile flags: /Odtp

  00000			 AREA	 |.text|, CODE, ARM

  00000		 |??0PolicyContainer@@QAA@XZ| PROC	; PolicyContainer::PolicyContainer

; 42   :     PolicyContainer() : PolicyList() {};

  00000		 |$LN5@PolicyCont@2|
  00000	e1a0c00d	 mov         r12, sp
  00004	e92d0001	 stmdb       sp!, {r0}
  00008	e92d5000	 stmdb       sp!, {r12, lr}
  0000c	e24dd008	 sub         sp, sp, #8
  00010		 |$M37350|
  00010	e59d0010	 ldr         r0, [sp, #0x10]
  00014	eb000000	 bl          |??0?$list@PAVPolicyAdapter@@Vallocator@ce@@@ce@@QAA@XZ|
  00018	e58d0004	 str         r0, [sp, #4]
  0001c	e59d3010	 ldr         r3, [sp, #0x10]
  00020	e58d3000	 str         r3, [sp]
  00024	e59d0000	 ldr         r0, [sp]
  00028	e28dd008	 add         sp, sp, #8
  0002c	e89d6000	 ldmia       sp, {sp, lr}
  00030	e12fff1e	 bx          lr
  00034		 |$M37351|

			 ENDP  ; |??0PolicyContainer@@QAA@XZ|, PolicyContainer::PolicyContainer

	IMPORT	|?PostInitialize@PolicyContainer@@QAAHPAVPolicyRoot@@@Z| ; PolicyContainer::PostInitialize
; File c:\wince600\platform\common\src\soc\common_ti_v1\common_ti\pm\powerpolicyroot\policyroot.h

  00000			 AREA	 |.pdata|, PDATA
|$T37361| DCD	|$LN5@PostInitia|
	DCD	0x40000f04
; Function compile flags: /Odtp

  00000			 AREA	 |.text|, CODE, ARM

  00000		 |?PostInitialize@PolicyRoot@@QAAHXZ| PROC ; PolicyRoot::PostInitialize

; 74   :     {

  00000		 |$LN5@PostInitia|
  00000	e1a0c00d	 mov         r12, sp
  00004	e92d0001	 stmdb       sp!, {r0}
  00008	e92d5000	 stmdb       sp!, {r12, lr}
  0000c	e24dd008	 sub         sp, sp, #8
  00010		 |$M37358|

; 75   :         return m_PolicyContainer.PostInitialize(this);

  00010	e59d1010	 ldr         r1, [sp, #0x10]
  00014	e59d3010	 ldr         r3, [sp, #0x10]
  00018	e2830f82	 add         r0, r3, #0x82, 30
  0001c	eb000000	 bl          |?PostInitialize@PolicyContainer@@QAAHPAVPolicyRoot@@@Z|
  00020	e58d0004	 str         r0, [sp, #4]
  00024	e59d3004	 ldr         r3, [sp, #4]
  00028	e58d3000	 str         r3, [sp]

; 76   :     }

  0002c	e59d0000	 ldr         r0, [sp]
  00030	e28dd008	 add         sp, sp, #8
  00034	e89d6000	 ldmia       sp, {sp, lr}
  00038	e12fff1e	 bx          lr
  0003c		 |$M37359|

			 ENDP  ; |?PostInitialize@PolicyRoot@@QAAHXZ|, PolicyRoot::PostInitialize

	EXPORT	|?PreDeviceStateChange@@YAHIII@Z|	; PreDeviceStateChange
	IMPORT	|?PreDeviceStateChange@PolicyRoot@@QAAHIII@Z| ; PolicyRoot::PreDeviceStateChange

  00010			 AREA	 |.pdata|, PDATA
|$T37369| DCD	|$LN6@PreDeviceS|
	DCD	0x40001504
; Function compile flags: /Odtp
; File c:\wince600\platform\common\src\soc\common_ti_v1\common_ti\pm\powerpolicyroot\api.cpp

  001f8			 AREA	 |.text|, CODE, ARM

  001f8		 |?PreDeviceStateChange@@YAHIII@Z| PROC	; PreDeviceStateChange

; 108  : {

  001f8		 |$LN6@PreDeviceS|
  001f8	e1a0c00d	 mov         r12, sp
  001fc	e92d0007	 stmdb       sp!, {r0 - r2}
  00200	e92d5000	 stmdb       sp!, {r12, lr}
  00204	e24dd004	 sub         sp, sp, #4
  00208		 |$M37366|

; 109  :     // UNDONE:
; 110  :     //  Need to encapsulate w/ mutex
; 111  :     if (g_pPolicyRoot != NULL)

  00208	e59f3038	 ldr         r3, [pc, #0x38]
  0020c	e5933000	 ldr         r3, [r3]
  00210	e3530000	 cmp         r3, #0
  00214	0a000005	 beq         |$LN1@PreDeviceS|

; 112  :         {
; 113  :         g_pPolicyRoot->PreDeviceStateChange(dev, oldState, newState);

  00218	e59d3014	 ldr         r3, [sp, #0x14]
  0021c	e59d2010	 ldr         r2, [sp, #0x10]
  00220	e59d100c	 ldr         r1, [sp, #0xC]
  00224	e59f001c	 ldr         r0, [pc, #0x1C]
  00228	e5900000	 ldr         r0, [r0]
  0022c	eb000000	 bl          |?PreDeviceStateChange@PolicyRoot@@QAAHIII@Z|
  00230		 |$LN1@PreDeviceS|

; 114  :         }
; 115  : 
; 116  :     return TRUE;

  00230	e3a03001	 mov         r3, #1
  00234	e58d3000	 str         r3, [sp]

; 117  : }

  00238	e59d0000	 ldr         r0, [sp]
  0023c	e28dd004	 add         sp, sp, #4
  00240	e89d6000	 ldmia       sp, {sp, lr}
  00244	e12fff1e	 bx          lr
  00248		 |$LN7@PreDeviceS|
  00248		 |$LN8@PreDeviceS|
  00248	00000000	 DCD         |?g_pPolicyRoot@@3PAVPolicyRoot@@A|
  0024c		 |$M37367|

			 ENDP  ; |?PreDeviceStateChange@@YAHIII@Z|, PreDeviceStateChange

	EXPORT	|?PostDeviceStateChange@@YAHIII@Z|	; PostDeviceStateChange
	IMPORT	|?PostDeviceStateChange@PolicyRoot@@QAAHIII@Z| ; PolicyRoot::PostDeviceStateChange

  00018			 AREA	 |.pdata|, PDATA
|$T37377| DCD	|$LN6@PostDevice|
	DCD	0x40001504
; Function compile flags: /Odtp

  0024c			 AREA	 |.text|, CODE, ARM

  0024c		 |?PostDeviceStateChange@@YAHIII@Z| PROC ; PostDeviceStateChange

; 132  : {

  0024c		 |$LN6@PostDevice|
  0024c	e1a0c00d	 mov         r12, sp
  00250	e92d0007	 stmdb       sp!, {r0 - r2}
  00254	e92d5000	 stmdb       sp!, {r12, lr}
  00258	e24dd004	 sub         sp, sp, #4
  0025c		 |$M37374|

; 133  :     // UNDONE:
; 134  :     //  Need to encapsulate w/ mutex
; 135  :     if (g_pPolicyRoot != NULL)

  0025c	e59f3038	 ldr         r3, [pc, #0x38]
  00260	e5933000	 ldr         r3, [r3]
  00264	e3530000	 cmp         r3, #0
  00268	0a000005	 beq         |$LN1@PostDevice|

; 136  :         {
; 137  :         g_pPolicyRoot->PostDeviceStateChange(dev, oldState, newState);

  0026c	e59d3014	 ldr         r3, [sp, #0x14]
  00270	e59d2010	 ldr         r2, [sp, #0x10]
  00274	e59d100c	 ldr         r1, [sp, #0xC]
  00278	e59f001c	 ldr         r0, [pc, #0x1C]
  0027c	e5900000	 ldr         r0, [r0]
  00280	eb000000	 bl          |?PostDeviceStateChange@PolicyRoot@@QAAHIII@Z|
  00284		 |$LN1@PostDevice|

; 138  :         }
; 139  : 
; 140  :     return TRUE;

  00284	e3a03001	 mov         r3, #1
  00288	e58d3000	 str         r3, [sp]

; 141  : }

  0028c	e59d0000	 ldr         r0, [sp]
  00290	e28dd004	 add         sp, sp, #4
  00294	e89d6000	 ldmia       sp, {sp, lr}
  00298	e12fff1e	 bx          lr
  0029c		 |$LN7@PostDevice|
  0029c		 |$LN8@PostDevice|
  0029c	00000000	 DCD         |?g_pPolicyRoot@@3PAVPolicyRoot@@A|
  002a0		 |$M37375|

			 ENDP  ; |?PostDeviceStateChange@@YAHIII@Z|, PostDeviceStateChange

	EXPORT	|?PreSystemStateChange@@YAKKPBGK@Z|	; PreSystemStateChange
	IMPORT	|?PreSystemStateChange@PolicyRoot@@QAAKKPBGK@Z| ; PolicyRoot::PreSystemStateChange

  00020			 AREA	 |.pdata|, PDATA
|$T37385| DCD	|$LN6@PreSystemS|
	DCD	0x40001504
; Function compile flags: /Odtp

  002a0			 AREA	 |.text|, CODE, ARM

  002a0		 |?PreSystemStateChange@@YAKKPBGK@Z| PROC ; PreSystemStateChange

; 155  : {

  002a0		 |$LN6@PreSystemS|
  002a0	e1a0c00d	 mov         r12, sp
  002a4	e92d0007	 stmdb       sp!, {r0 - r2}
  002a8	e92d5000	 stmdb       sp!, {r12, lr}
  002ac	e24dd004	 sub         sp, sp, #4
  002b0		 |$M37382|

; 156  :     if (g_pPolicyRoot != NULL)

  002b0	e59f3038	 ldr         r3, [pc, #0x38]
  002b4	e5933000	 ldr         r3, [r3]
  002b8	e3530000	 cmp         r3, #0
  002bc	0a000005	 beq         |$LN1@PreSystemS|

; 157  :         {
; 158  :         g_pPolicyRoot->PreSystemStateChange(dwExtContext, 
; 159  :                 lpNewStateName, dwFlags
; 160  :                 );

  002c0	e59d3014	 ldr         r3, [sp, #0x14]
  002c4	e59d2010	 ldr         r2, [sp, #0x10]
  002c8	e59d100c	 ldr         r1, [sp, #0xC]
  002cc	e59f001c	 ldr         r0, [pc, #0x1C]
  002d0	e5900000	 ldr         r0, [r0]
  002d4	eb000000	 bl          |?PreSystemStateChange@PolicyRoot@@QAAKKPBGK@Z|
  002d8		 |$LN1@PreSystemS|

; 161  :         }
; 162  :     return 1;

  002d8	e3a03001	 mov         r3, #1
  002dc	e58d3000	 str         r3, [sp]

; 163  : }

  002e0	e59d0000	 ldr         r0, [sp]
  002e4	e28dd004	 add         sp, sp, #4
  002e8	e89d6000	 ldmia       sp, {sp, lr}
  002ec	e12fff1e	 bx          lr
  002f0		 |$LN7@PreSystemS|
  002f0		 |$LN8@PreSystemS|
  002f0	00000000	 DCD         |?g_pPolicyRoot@@3PAVPolicyRoot@@A|
  002f4		 |$M37383|

			 ENDP  ; |?PreSystemStateChange@@YAKKPBGK@Z|, PreSystemStateChange

	EXPORT	|?PostSystemStateChange@@YAKKPBGK@Z|	; PostSystemStateChange
	IMPORT	|?PostSystemStateChange@PolicyRoot@@QAAKKPBGK@Z| ; PolicyRoot::PostSystemStateChange

  00028			 AREA	 |.pdata|, PDATA
|$T37393| DCD	|$LN6@PostSystem|
	DCD	0x40001504
; Function compile flags: /Odtp

  002f4			 AREA	 |.text|, CODE, ARM

  002f4		 |?PostSystemStateChange@@YAKKPBGK@Z| PROC ; PostSystemStateChange

; 177  : {

  002f4		 |$LN6@PostSystem|
  002f4	e1a0c00d	 mov         r12, sp
  002f8	e92d0007	 stmdb       sp!, {r0 - r2}
  002fc	e92d5000	 stmdb       sp!, {r12, lr}
  00300	e24dd004	 sub         sp, sp, #4
  00304		 |$M37390|

; 178  :     if (g_pPolicyRoot != NULL)

  00304	e59f3038	 ldr         r3, [pc, #0x38]
  00308	e5933000	 ldr         r3, [r3]
  0030c	e3530000	 cmp         r3, #0
  00310	0a000005	 beq         |$LN1@PostSystem|

; 179  :         {
; 180  :         g_pPolicyRoot->PostSystemStateChange(dwExtContext, 
; 181  :                 lpNewStateName, dwFlags
; 182  :                 );

  00314	e59d3014	 ldr         r3, [sp, #0x14]
  00318	e59d2010	 ldr         r2, [sp, #0x10]
  0031c	e59d100c	 ldr         r1, [sp, #0xC]
  00320	e59f001c	 ldr         r0, [pc, #0x1C]
  00324	e5900000	 ldr         r0, [r0]
  00328	eb000000	 bl          |?PostSystemStateChange@PolicyRoot@@QAAKKPBGK@Z|
  0032c		 |$LN1@PostSystem|

; 183  :         }
; 184  :     
; 185  :     return 1;

  0032c	e3a03001	 mov         r3, #1
  00330	e58d3000	 str         r3, [sp]

; 186  : }

  00334	e59d0000	 ldr         r0, [sp]
  00338	e28dd004	 add         sp, sp, #4
  0033c	e89d6000	 ldmia       sp, {sp, lr}
  00340	e12fff1e	 bx          lr
  00344		 |$LN7@PostSystem|
  00344		 |$LN8@PostSystem|
  00344	00000000	 DCD         |?g_pPolicyRoot@@3PAVPolicyRoot@@A|
  00348		 |$M37391|

			 ENDP  ; |?PostSystemStateChange@@YAKKPBGK@Z|, PostSystemStateChange

	EXPORT	|?OpenPolicy@PolicyAdapter@@QAAPAXXZ|	; PolicyAdapter::OpenPolicy
	EXPORT	|??0PolicyContext@@QAA@PAVPolicyAdapter@@@Z| ; PolicyContext::PolicyContext
	EXPORT	|?FindPolicy@PolicyRoot@@QAAPAVPolicyAdapter@@PBG@Z| ; PolicyRoot::FindPolicy
	EXPORT	|PmxOpenPolicy|

  00030			 AREA	 |.pdata|, PDATA
|$T37405| DCD	|$LN15@PmxOpenPol|
	DCD	0x40005004
; Function compile flags: /Odtp

  00348			 AREA	 |.text|, CODE, ARM

  00348		 |PmxOpenPolicy| PROC

; 198  : {

  00348		 |$LN15@PmxOpenPol|
  00348	e1a0c00d	 mov         r12, sp
  0034c	e92d0001	 stmdb       sp!, {r0}
  00350	e92d5000	 stmdb       sp!, {r12, lr}
  00354	e24dd02c	 sub         sp, sp, #0x2C
  00358		 |$M37402|

; 199  :     BOOL rc = FALSE;

  00358	e3a03000	 mov         r3, #0
  0035c	e58d3000	 str         r3, [sp]

; 200  :     PolicyContext *pContext = NULL;

  00360	e3a03000	 mov         r3, #0
  00364	e58d3008	 str         r3, [sp, #8]

; 201  :     PolicyAdapter *pAdapter;
; 202  :     
; 203  :     // validate
; 204  :     if (g_pPolicyRoot == NULL) goto cleanUp;

  00368	e59f3114	 ldr         r3, [pc, #0x114]
  0036c	e5933000	 ldr         r3, [r3]
  00370	e3530000	 cmp         r3, #0
  00374	1a000001	 bne         |$LN8@PmxOpenPol|
  00378	ea00002f	 b           |$LN7@PmxOpenPol|
  0037c	ea00002e	 b           |$cleanUp$36357|
  00380		 |$LN8@PmxOpenPol|

; 205  : 
; 206  :     // find a policy adapter with the matching class
; 207  :     pAdapter = g_pPolicyRoot->FindPolicy(szId);

  00380	e59d1034	 ldr         r1, [sp, #0x34]
  00384	e59f30f8	 ldr         r3, [pc, #0xF8]
  00388	e5930000	 ldr         r0, [r3]
  0038c	eb000000	 bl          |?FindPolicy@PolicyRoot@@QAAPAVPolicyAdapter@@PBG@Z|
  00390	e58d0018	 str         r0, [sp, #0x18]
  00394	e59d3018	 ldr         r3, [sp, #0x18]
  00398	e58d3004	 str         r3, [sp, #4]

; 208  :     if (pAdapter == NULL) goto cleanUp;

  0039c	e59d3004	 ldr         r3, [sp, #4]
  003a0	e3530000	 cmp         r3, #0
  003a4	1a000001	 bne         |$LN6@PmxOpenPol|
  003a8	ea000023	 b           |$LN5@PmxOpenPol|
  003ac	ea000022	 b           |$cleanUp$36357|
  003b0		 |$LN6@PmxOpenPol|

; 209  :     
; 210  :     // create a policy context
; 211  :     pContext = new PolicyContext(pAdapter);

  003b0	e3a0000c	 mov         r0, #0xC
  003b4	eb000000	 bl          |??2@YAPAXI@Z|
  003b8	e58d001c	 str         r0, [sp, #0x1C]
  003bc	e59d301c	 ldr         r3, [sp, #0x1C]
  003c0	e58d300c	 str         r3, [sp, #0xC]
  003c4	e59d300c	 ldr         r3, [sp, #0xC]
  003c8	e3530000	 cmp         r3, #0
  003cc	0a000006	 beq         |$LN11@PmxOpenPol|
  003d0	e59d1004	 ldr         r1, [sp, #4]
  003d4	e59d000c	 ldr         r0, [sp, #0xC]
  003d8	eb000000	 bl          |??0PolicyContext@@QAA@PAVPolicyAdapter@@@Z|
  003dc	e58d0020	 str         r0, [sp, #0x20]
  003e0	e59d3020	 ldr         r3, [sp, #0x20]
  003e4	e58d3024	 str         r3, [sp, #0x24]
  003e8	ea000001	 b           |$LN12@PmxOpenPol|
  003ec		 |$LN11@PmxOpenPol|
  003ec	e3a03000	 mov         r3, #0
  003f0	e58d3024	 str         r3, [sp, #0x24]
  003f4		 |$LN12@PmxOpenPol|
  003f4	e59d3024	 ldr         r3, [sp, #0x24]
  003f8	e58d3008	 str         r3, [sp, #8]

; 212  : 
; 213  :     // apply policy
; 214  :     pContext->m_hContext = pAdapter->OpenPolicy();

  003fc	e59d0004	 ldr         r0, [sp, #4]
  00400	eb000000	 bl          |?OpenPolicy@PolicyAdapter@@QAAPAXXZ|
  00404	e58d0028	 str         r0, [sp, #0x28]
  00408	e59d3008	 ldr         r3, [sp, #8]
  0040c	e2832004	 add         r2, r3, #4
  00410	e59d3028	 ldr         r3, [sp, #0x28]
  00414	e5823000	 str         r3, [r2]

; 215  :     if (pContext->m_hContext == NULL) goto cleanUp;

  00418	e59d3008	 ldr         r3, [sp, #8]
  0041c	e2833004	 add         r3, r3, #4
  00420	e5933000	 ldr         r3, [r3]
  00424	e3530000	 cmp         r3, #0
  00428	1a000001	 bne         |$LN4@PmxOpenPol|
  0042c	ea000002	 b           |$LN3@PmxOpenPol|
  00430	ea000001	 b           |$cleanUp$36357|
  00434		 |$LN4@PmxOpenPol|

; 216  : 
; 217  :     rc = TRUE;

  00434	e3a03001	 mov         r3, #1
  00438	e58d3000	 str         r3, [sp]
  0043c		 |$LN3@PmxOpenPol|
  0043c		 |$LN5@PmxOpenPol|
  0043c		 |$LN7@PmxOpenPol|
  0043c		 |$cleanUp$36357|

; 218  : 
; 219  : cleanUp:
; 220  :     if (rc == FALSE)

  0043c	e59d3000	 ldr         r3, [sp]
  00440	e3530000	 cmp         r3, #0
  00444	1a000008	 bne         |$LN2@PmxOpenPol|

; 221  :         {
; 222  :         if (pContext != NULL)

  00448	e59d3008	 ldr         r3, [sp, #8]
  0044c	e3530000	 cmp         r3, #0
  00450	0a000005	 beq         |$LN1@PmxOpenPol|

; 223  :             {
; 224  :             delete pContext;

  00454	e59d3008	 ldr         r3, [sp, #8]
  00458	e58d3010	 str         r3, [sp, #0x10]
  0045c	e59d0010	 ldr         r0, [sp, #0x10]
  00460	eb000000	 bl          |??3@YAXPAX@Z|

; 225  :             pContext = NULL;

  00464	e3a03000	 mov         r3, #0
  00468	e58d3008	 str         r3, [sp, #8]
  0046c		 |$LN1@PmxOpenPol|
  0046c		 |$LN2@PmxOpenPol|

; 226  :             }
; 227  :         }
; 228  :     
; 229  :     return (HANDLE)pContext;

  0046c	e59d3008	 ldr         r3, [sp, #8]
  00470	e58d3014	 str         r3, [sp, #0x14]

; 230  : }

  00474	e59d0014	 ldr         r0, [sp, #0x14]
  00478	e28dd02c	 add         sp, sp, #0x2C
  0047c	e89d6000	 ldmia       sp, {sp, lr}
  00480	e12fff1e	 bx          lr
  00484		 |$LN16@PmxOpenPol|
  00484		 |$LN17@PmxOpenPol|
  00484	00000000	 DCD         |?g_pPolicyRoot@@3PAVPolicyRoot@@A|
  00488		 |$M37403|

			 ENDP  ; |PmxOpenPolicy|

; File c:\wince600\platform\common\src\soc\common_ti_v1\common_ti\pm\powerpolicyroot\policyadapter.h

  00000			 AREA	 |.pdata|, PDATA
|$T37413| DCD	|$LN6@OpenPolicy|
	DCD	0x40001d04
; Function compile flags: /Odtp

  00000			 AREA	 |.text|, CODE, ARM

  00000		 |?OpenPolicy@PolicyAdapter@@QAAPAXXZ| PROC ; PolicyAdapter::OpenPolicy

; 123  :     {

  00000		 |$LN6@OpenPolicy|
  00000	e1a0c00d	 mov         r12, sp
  00004	e92d0001	 stmdb       sp!, {r0}
  00008	e92d5000	 stmdb       sp!, {r12, lr}
  0000c	e24dd008	 sub         sp, sp, #8
  00010		 |$M37410|

; 124  :         if (m_fns.OpenPolicy == NULL) return NULL;

  00010	e59d3010	 ldr         r3, [sp, #0x10]
  00014	e2833c06	 add         r3, r3, #6, 24
  00018	e283302c	 add         r3, r3, #0x2C
  0001c	e5933000	 ldr         r3, [r3]
  00020	e3530000	 cmp         r3, #0
  00024	1a000002	 bne         |$LN1@OpenPolicy|
  00028	e3a03000	 mov         r3, #0
  0002c	e58d3000	 str         r3, [sp]
  00030	ea00000b	 b           |$LN2@OpenPolicy|
  00034		 |$LN1@OpenPolicy|

; 125  :         return m_fns.OpenPolicy(m_hPolicyAdapter);

  00034	e59d3010	 ldr         r3, [sp, #0x10]
  00038	e2833e21	 add         r3, r3, #0x21, 28
  0003c	e5930000	 ldr         r0, [r3]
  00040	e59d3010	 ldr         r3, [sp, #0x10]
  00044	e2833c06	 add         r3, r3, #6, 24
  00048	e283302c	 add         r3, r3, #0x2C
  0004c	e5933000	 ldr         r3, [r3]
  00050	e1a0e00f	 mov         lr, pc
  00054	e12fff13	 bx          r3
  00058	e58d0004	 str         r0, [sp, #4]
  0005c	e59d3004	 ldr         r3, [sp, #4]
  00060	e58d3000	 str         r3, [sp]
  00064		 |$LN2@OpenPolicy|

; 126  :     }

  00064	e59d0000	 ldr         r0, [sp]
  00068	e28dd008	 add         sp, sp, #8
  0006c	e89d6000	 ldmia       sp, {sp, lr}
  00070	e12fff1e	 bx          lr
  00074		 |$M37411|

			 ENDP  ; |?OpenPolicy@PolicyAdapter@@QAAPAXXZ|, PolicyAdapter::OpenPolicy

; File c:\wince600\platform\common\src\soc\common_ti_v1\common_ti\pm\powerpolicyroot\policycontext.h

  00000			 AREA	 |.pdata|, PDATA
|$T37421| DCD	|$LN5@PolicyCont@3|
	DCD	0x40001504
; Function compile flags: /Odtp

  00000			 AREA	 |.text|, CODE, ARM

  00000		 |??0PolicyContext@@QAA@PAVPolicyAdapter@@@Z| PROC ; PolicyContext::PolicyContext

; 44   :     {

  00000		 |$LN5@PolicyCont@3|
  00000	e1a0c00d	 mov         r12, sp
  00004	e92d0003	 stmdb       sp!, {r0, r1}
  00008	e92d5000	 stmdb       sp!, {r12, lr}
  0000c	e24dd004	 sub         sp, sp, #4
  00010		 |$M37418|
  00010	e59d300c	 ldr         r3, [sp, #0xC]
  00014	e2832004	 add         r2, r3, #4
  00018	e3a03000	 mov         r3, #0
  0001c	e5823000	 str         r3, [r2]
  00020	e59d300c	 ldr         r3, [sp, #0xC]
  00024	e2832008	 add         r2, r3, #8
  00028	e59d3010	 ldr         r3, [sp, #0x10]
  0002c	e5823000	 str         r3, [r2]

; 45   :         m_cookie = (DWORD)this;

  00030	e59d200c	 ldr         r2, [sp, #0xC]
  00034	e59d300c	 ldr         r3, [sp, #0xC]
  00038	e5832000	 str         r2, [r3]

; 46   :     }   

  0003c	e59d300c	 ldr         r3, [sp, #0xC]
  00040	e58d3000	 str         r3, [sp]
  00044	e59d0000	 ldr         r0, [sp]
  00048	e28dd004	 add         sp, sp, #4
  0004c	e89d6000	 ldmia       sp, {sp, lr}
  00050	e12fff1e	 bx          lr
  00054		 |$M37419|

			 ENDP  ; |??0PolicyContext@@QAA@PAVPolicyAdapter@@@Z|, PolicyContext::PolicyContext

	IMPORT	|?FindAdapterById@PolicyContainer@@QAAPAVPolicyAdapter@@PBG@Z| ; PolicyContainer::FindAdapterById
; File c:\wince600\platform\common\src\soc\common_ti_v1\common_ti\pm\powerpolicyroot\policyroot.h

  00000			 AREA	 |.pdata|, PDATA
|$T37429| DCD	|$LN5@FindPolicy|
	DCD	0x40000f04
; Function compile flags: /Odtp

  00000			 AREA	 |.text|, CODE, ARM

  00000		 |?FindPolicy@PolicyRoot@@QAAPAVPolicyAdapter@@PBG@Z| PROC ; PolicyRoot::FindPolicy

; 68   :     {

  00000		 |$LN5@FindPolicy|
  00000	e1a0c00d	 mov         r12, sp
  00004	e92d0003	 stmdb       sp!, {r0, r1}
  00008	e92d5000	 stmdb       sp!, {r12, lr}
  0000c	e24dd008	 sub         sp, sp, #8
  00010		 |$M37426|

; 69   :         return m_PolicyContainer.FindAdapterById(szId);

  00010	e59d1014	 ldr         r1, [sp, #0x14]
  00014	e59d3010	 ldr         r3, [sp, #0x10]
  00018	e2830f82	 add         r0, r3, #0x82, 30
  0001c	eb000000	 bl          |?FindAdapterById@PolicyContainer@@QAAPAVPolicyAdapter@@PBG@Z|
  00020	e58d0004	 str         r0, [sp, #4]
  00024	e59d3004	 ldr         r3, [sp, #4]
  00028	e58d3000	 str         r3, [sp]

; 70   :     }

  0002c	e59d0000	 ldr         r0, [sp]
  00030	e28dd008	 add         sp, sp, #8
  00034	e89d6000	 ldmia       sp, {sp, lr}
  00038	e12fff1e	 bx          lr
  0003c		 |$M37427|

			 ENDP  ; |?FindPolicy@PolicyRoot@@QAAPAVPolicyAdapter@@PBG@Z|, PolicyRoot::FindPolicy

	EXPORT	|?NotifyPolicy@PolicyAdapter@@QAAHPAXK0I@Z| ; PolicyAdapter::NotifyPolicy
	EXPORT	|PmxNotifyPolicy|

  00038			 AREA	 |.pdata|, PDATA
|$T37438| DCD	|$LN12@PmxNotifyP|
	DCD	0x40003404
; Function compile flags: /Odtp
; File c:\wince600\platform\common\src\soc\common_ti_v1\common_ti\pm\powerpolicyroot\api.cpp

  00488			 AREA	 |.text|, CODE, ARM

  00488		 |PmxNotifyPolicy| PROC

; 245  : {

  00488		 |$LN12@PmxNotifyP|
  00488	e1a0c00d	 mov         r12, sp
  0048c	e92d000f	 stmdb       sp!, {r0 - r3}
  00490	e92d5000	 stmdb       sp!, {r12, lr}
  00494	e24dd01c	 sub         sp, sp, #0x1C
  00498		 |$M37435|

; 246  :     BOOL rc = FALSE;

  00498	e3a03000	 mov         r3, #0
  0049c	e58d3004	 str         r3, [sp, #4]

; 247  :     PolicyContext *pContext = (PolicyContext*)hPolicyContext;

  004a0	e59d3024	 ldr         r3, [sp, #0x24]
  004a4	e58d300c	 str         r3, [sp, #0xC]

; 248  :     PolicyAdapter *pAdapter;
; 249  :     
; 250  :     // validate
; 251  :     if (g_pPolicyRoot == NULL || pContext == NULL) goto cleanUp;

  004a8	e59f30a4	 ldr         r3, [pc, #0xA4]
  004ac	e5933000	 ldr         r3, [r3]
  004b0	e3530000	 cmp         r3, #0
  004b4	0a000002	 beq         |$LN6@PmxNotifyP|
  004b8	e59d300c	 ldr         r3, [sp, #0xC]
  004bc	e3530000	 cmp         r3, #0
  004c0	1a000001	 bne         |$LN7@PmxNotifyP|
  004c4		 |$LN6@PmxNotifyP|
  004c4	ea00001c	 b           |$LN5@PmxNotifyP|
  004c8	ea00001b	 b           |$cleanUp$36382|
  004cc		 |$LN7@PmxNotifyP|

; 252  :     if (pContext->m_cookie != (DWORD)hPolicyContext) goto cleanUp;

  004cc	e59d300c	 ldr         r3, [sp, #0xC]
  004d0	e5932000	 ldr         r2, [r3]
  004d4	e59d3024	 ldr         r3, [sp, #0x24]
  004d8	e1520003	 cmp         r2, r3
  004dc	0a000001	 beq         |$LN4@PmxNotifyP|
  004e0	ea000015	 b           |$LN3@PmxNotifyP|
  004e4	ea000014	 b           |$cleanUp$36382|
  004e8		 |$LN4@PmxNotifyP|

; 253  : 
; 254  :     // check if request succeeded
; 255  :     pAdapter = pContext->m_pPolicyAdapter;

  004e8	e59d300c	 ldr         r3, [sp, #0xC]
  004ec	e2833008	 add         r3, r3, #8
  004f0	e5933000	 ldr         r3, [r3]
  004f4	e58d3008	 str         r3, [sp, #8]

; 256  :     if (pAdapter->NotifyPolicy(pContext->m_hContext, msg, pParam, size) == FALSE)

  004f8	e59d3030	 ldr         r3, [sp, #0x30]
  004fc	e58d3000	 str         r3, [sp]
  00500	e59d302c	 ldr         r3, [sp, #0x2C]
  00504	e59d2028	 ldr         r2, [sp, #0x28]
  00508	e59d100c	 ldr         r1, [sp, #0xC]
  0050c	e2811004	 add         r1, r1, #4
  00510	e5911000	 ldr         r1, [r1]
  00514	e59d0008	 ldr         r0, [sp, #8]
  00518	eb000000	 bl          |?NotifyPolicy@PolicyAdapter@@QAAHPAXK0I@Z|
  0051c	e58d0018	 str         r0, [sp, #0x18]
  00520	e59d3018	 ldr         r3, [sp, #0x18]
  00524	e3530000	 cmp         r3, #0
  00528	1a000001	 bne         |$LN2@PmxNotifyP|
  0052c	ea000002	 b           |$LN1@PmxNotifyP|

; 257  :         {
; 258  :         goto cleanUp;

  00530	ea000001	 b           |$cleanUp$36382|
  00534		 |$LN2@PmxNotifyP|

; 259  :         }
; 260  :     
; 261  :     rc = TRUE;    

  00534	e3a03001	 mov         r3, #1
  00538	e58d3004	 str         r3, [sp, #4]
  0053c		 |$LN1@PmxNotifyP|
  0053c		 |$LN3@PmxNotifyP|
  0053c		 |$LN5@PmxNotifyP|
  0053c		 |$cleanUp$36382|

; 262  : cleanUp:    
; 263  :     return rc;

  0053c	e59d3004	 ldr         r3, [sp, #4]
  00540	e58d3014	 str         r3, [sp, #0x14]

; 264  : }

  00544	e59d0014	 ldr         r0, [sp, #0x14]
  00548	e28dd01c	 add         sp, sp, #0x1C
  0054c	e89d6000	 ldmia       sp, {sp, lr}
  00550	e12fff1e	 bx          lr
  00554		 |$LN13@PmxNotifyP|
  00554		 |$LN14@PmxNotifyP|
  00554	00000000	 DCD         |?g_pPolicyRoot@@3PAVPolicyRoot@@A|
  00558		 |$M37436|

			 ENDP  ; |PmxNotifyPolicy|

; File c:\wince600\platform\common\src\soc\common_ti_v1\common_ti\pm\powerpolicyroot\policyadapter.h

  00000			 AREA	 |.pdata|, PDATA
|$T37446| DCD	|$LN6@NotifyPoli|
	DCD	0x40001c04
; Function compile flags: /Odtp

  00000			 AREA	 |.text|, CODE, ARM

  00000		 |?NotifyPolicy@PolicyAdapter@@QAAHPAXK0I@Z| PROC ; PolicyAdapter::NotifyPolicy

; 134  :     {

  00000		 |$LN6@NotifyPoli|
  00000	e1a0c00d	 mov         r12, sp
  00004	e92d000f	 stmdb       sp!, {r0 - r3}
  00008	e92d5010	 stmdb       sp!, {r4, r12, lr}
  0000c	e24dd008	 sub         sp, sp, #8
  00010		 |$M37443|

; 135  :         if (m_fns.NotifyPolicy == NULL) return NULL;

  00010	e59d3014	 ldr         r3, [sp, #0x14]
  00014	e2833e63	 add         r3, r3, #0x63, 28
  00018	e5933000	 ldr         r3, [r3]
  0001c	e3530000	 cmp         r3, #0
  00020	1a000002	 bne         |$LN1@NotifyPoli|
  00024	e3a03000	 mov         r3, #0
  00028	e58d3000	 str         r3, [sp]
  0002c	ea00000b	 b           |$LN2@NotifyPoli|
  00030		 |$LN1@NotifyPoli|

; 136  :         return m_fns.NotifyPolicy(hPolicyContext, msg, pParam, size);

  00030	e59d3024	 ldr         r3, [sp, #0x24]
  00034	e59d2020	 ldr         r2, [sp, #0x20]
  00038	e59d101c	 ldr         r1, [sp, #0x1C]
  0003c	e59d0018	 ldr         r0, [sp, #0x18]
  00040	e59de014	 ldr         lr, [sp, #0x14]
  00044	e28eee63	 add         lr, lr, #0x63, 28
  00048	e59e4000	 ldr         r4, [lr]
  0004c	e1a0e00f	 mov         lr, pc
  00050	e12fff14	 bx          r4
  00054	e58d0004	 str         r0, [sp, #4]
  00058	e59d3004	 ldr         r3, [sp, #4]
  0005c	e58d3000	 str         r3, [sp]
  00060		 |$LN2@NotifyPoli|

; 137  :     }

  00060	e59d0000	 ldr         r0, [sp]
  00064	e28dd008	 add         sp, sp, #8
  00068	e89d6010	 ldmia       sp, {r4, sp, lr}
  0006c	e12fff1e	 bx          lr
  00070		 |$M37444|

			 ENDP  ; |?NotifyPolicy@PolicyAdapter@@QAAHPAXK0I@Z|, PolicyAdapter::NotifyPolicy

	EXPORT	|?ClosePolicy@PolicyAdapter@@QAAHPAX@Z|	; PolicyAdapter::ClosePolicy
	EXPORT	|PmxClosePolicy|

  00040			 AREA	 |.pdata|, PDATA
|$T37454| DCD	|$LN8@PmxClosePo|
	DCD	0x40002a04
; Function compile flags: /Odtp
; File c:\wince600\platform\common\src\soc\common_ti_v1\common_ti\pm\powerpolicyroot\api.cpp

  00558			 AREA	 |.text|, CODE, ARM

  00558		 |PmxClosePolicy| PROC

; 276  : {

  00558		 |$LN8@PmxClosePo|
  00558	e1a0c00d	 mov         r12, sp
  0055c	e92d0001	 stmdb       sp!, {r0}
  00560	e92d5000	 stmdb       sp!, {r12, lr}
  00564	e24dd014	 sub         sp, sp, #0x14
  00568		 |$M37451|

; 277  :     BOOL rc = FALSE;

  00568	e3a03000	 mov         r3, #0
  0056c	e58d3000	 str         r3, [sp]

; 278  :     PolicyContext *pContext = (PolicyContext*)hPolicyContext;

  00570	e59d301c	 ldr         r3, [sp, #0x1C]
  00574	e58d3008	 str         r3, [sp, #8]

; 279  :     PolicyAdapter *pAdapter;
; 280  : 
; 281  :     // validate
; 282  :     if (g_pPolicyRoot == NULL || pContext == NULL) return;

  00578	e59f307c	 ldr         r3, [pc, #0x7C]
  0057c	e5933000	 ldr         r3, [r3]
  00580	e3530000	 cmp         r3, #0
  00584	0a000002	 beq         |$LN2@PmxClosePo|
  00588	e59d3008	 ldr         r3, [sp, #8]
  0058c	e3530000	 cmp         r3, #0
  00590	1a000000	 bne         |$LN3@PmxClosePo|
  00594		 |$LN2@PmxClosePo|
  00594	ea000015	 b           |$LN4@PmxClosePo|
  00598		 |$LN3@PmxClosePo|

; 283  :     if (pContext->m_cookie != (DWORD)hPolicyContext) return;

  00598	e59d3008	 ldr         r3, [sp, #8]
  0059c	e5932000	 ldr         r2, [r3]
  005a0	e59d301c	 ldr         r3, [sp, #0x1C]
  005a4	e1520003	 cmp         r2, r3
  005a8	0a000000	 beq         |$LN1@PmxClosePo|
  005ac	ea00000f	 b           |$LN4@PmxClosePo|
  005b0		 |$LN1@PmxClosePo|

; 284  : 
; 285  :     // apply policy
; 286  :     pAdapter = pContext->m_pPolicyAdapter;

  005b0	e59d3008	 ldr         r3, [sp, #8]
  005b4	e2833008	 add         r3, r3, #8
  005b8	e5933000	 ldr         r3, [r3]
  005bc	e58d3004	 str         r3, [sp, #4]

; 287  :     rc = pAdapter->ClosePolicy(pContext->m_hContext);

  005c0	e59d3008	 ldr         r3, [sp, #8]
  005c4	e2833004	 add         r3, r3, #4
  005c8	e5931000	 ldr         r1, [r3]
  005cc	e59d0004	 ldr         r0, [sp, #4]
  005d0	eb000000	 bl          |?ClosePolicy@PolicyAdapter@@QAAHPAX@Z|
  005d4	e58d0010	 str         r0, [sp, #0x10]
  005d8	e59d3010	 ldr         r3, [sp, #0x10]
  005dc	e58d3000	 str         r3, [sp]

; 288  : 
; 289  :     delete pContext;

  005e0	e59d3008	 ldr         r3, [sp, #8]
  005e4	e58d300c	 str         r3, [sp, #0xC]
  005e8	e59d000c	 ldr         r0, [sp, #0xC]
  005ec	eb000000	 bl          |??3@YAXPAX@Z|
  005f0		 |$LN4@PmxClosePo|

; 290  : }

  005f0	e28dd014	 add         sp, sp, #0x14
  005f4	e89d6000	 ldmia       sp, {sp, lr}
  005f8	e12fff1e	 bx          lr
  005fc		 |$LN9@PmxClosePo|
  005fc		 |$LN10@PmxClosePo|
  005fc	00000000	 DCD         |?g_pPolicyRoot@@3PAVPolicyRoot@@A|
  00600		 |$M37452|

			 ENDP  ; |PmxClosePolicy|

; File c:\wince600\platform\common\src\soc\common_ti_v1\common_ti\pm\powerpolicyroot\policyadapter.h

  00000			 AREA	 |.pdata|, PDATA
|$T37462| DCD	|$LN6@ClosePolic|
	DCD	0x40001b04
; Function compile flags: /Odtp

  00000			 AREA	 |.text|, CODE, ARM

  00000		 |?ClosePolicy@PolicyAdapter@@QAAHPAX@Z| PROC ; PolicyAdapter::ClosePolicy

; 143  :     {

  00000		 |$LN6@ClosePolic|
  00000	e1a0c00d	 mov         r12, sp
  00004	e92d0003	 stmdb       sp!, {r0, r1}
  00008	e92d5000	 stmdb       sp!, {r12, lr}
  0000c	e24dd008	 sub         sp, sp, #8
  00010		 |$M37459|

; 144  :         if (m_fns.ClosePolicy == NULL) return FALSE;

  00010	e59d3010	 ldr         r3, [sp, #0x10]
  00014	e2833c06	 add         r3, r3, #6, 24
  00018	e2833034	 add         r3, r3, #0x34
  0001c	e5933000	 ldr         r3, [r3]
  00020	e3530000	 cmp         r3, #0
  00024	1a000002	 bne         |$LN1@ClosePolic|
  00028	e3a03000	 mov         r3, #0
  0002c	e58d3000	 str         r3, [sp]
  00030	ea000009	 b           |$LN2@ClosePolic|
  00034		 |$LN1@ClosePolic|

; 145  :         return m_fns.ClosePolicy(hPolicyContext);

  00034	e59d0014	 ldr         r0, [sp, #0x14]
  00038	e59d3010	 ldr         r3, [sp, #0x10]
  0003c	e2833c06	 add         r3, r3, #6, 24
  00040	e2833034	 add         r3, r3, #0x34
  00044	e5933000	 ldr         r3, [r3]
  00048	e1a0e00f	 mov         lr, pc
  0004c	e12fff13	 bx          r3
  00050	e58d0004	 str         r0, [sp, #4]
  00054	e59d3004	 ldr         r3, [sp, #4]
  00058	e58d3000	 str         r3, [sp]
  0005c		 |$LN2@ClosePolic|

; 146  :     }

  0005c	e59d0000	 ldr         r0, [sp]
  00060	e28dd008	 add         sp, sp, #8
  00064	e89d6000	 ldmia       sp, {sp, lr}
  00068	e12fff1e	 bx          lr
  0006c		 |$M37460|

			 ENDP  ; |?ClosePolicy@PolicyAdapter@@QAAHPAX@Z|, PolicyAdapter::ClosePolicy

	EXPORT	|PmxGetPolicyInfo|

  00048			 AREA	 |.pdata|, PDATA
|$T37470| DCD	|$LN7@PmxGetPoli|
	DCD	0x40000a04
; Function compile flags: /Odtp
; File c:\wince600\platform\common\src\soc\common_ti_v1\common_ti\pm\powerpolicyroot\api.cpp

  00600			 AREA	 |.text|, CODE, ARM

  00600		 |PmxGetPolicyInfo| PROC

; 304  : {

  00600		 |$LN7@PmxGetPoli|
  00600	e1a0c00d	 mov         r12, sp
  00604	e92d0007	 stmdb       sp!, {r0 - r2}
  00608	e92d5000	 stmdb       sp!, {r12, lr}
  0060c	e24dd004	 sub         sp, sp, #4
  00610		 |$M37467|
  00610		 |$cleanUp$36407|

; 305  :     // UNDONE:
; 306  :     // need to better define this once more of the infrastructure is built
; 307  :     UNREFERENCED_PARAMETER(size);
; 308  :     UNREFERENCED_PARAMETER(pParam);
; 309  :     UNREFERENCED_PARAMETER(hPolicyContext);
; 310  :     // validate
; 311  :     if (g_pPolicyRoot == NULL) goto cleanUp;
; 312  : 
; 313  : cleanUp:
; 314  :     return NULL;

  00610	e3a03000	 mov         r3, #0
  00614	e58d3000	 str         r3, [sp]

; 315  : }

  00618	e59d0000	 ldr         r0, [sp]
  0061c	e28dd004	 add         sp, sp, #4
  00620	e89d6000	 ldmia       sp, {sp, lr}
  00624	e12fff1e	 bx          lr
  00628		 |$M37468|

			 ENDP  ; |PmxGetPolicyInfo|

	EXPORT	|??_C@_1M@DFKENGJN@?$AA?$CF?$AAs?$AA?2?$AA?$CF?$AAs?$AA?$AA@| [ DATA ] ; `string'
	EXPORT	|?GetPolicyPath@PolicyRoot@@QBAPBGXZ|	; PolicyRoot::GetPolicyPath
	EXPORT	|__$ArrayPad$| [ DATA ]
	EXPORT	|PmxLoadPolicy|
	IMPORT	|?LoadPolicy@PolicyRoot@@QAAPAVPolicyAdapter@@PBG@Z| ; PolicyRoot::LoadPolicy
	IMPORT	|swprintf|
	IMPORT	|wcscpy|

  00050			 AREA	 |.pdata|, PDATA
|$T37484| DCD	|$LN20@PmxLoadPol|
	DCD	0xc0008704

  00000			 AREA	 |.rdata|, DATA, READONLY
|??_C@_1M@DFKENGJN@?$AA?$CF?$AAs?$AA?2?$AA?$CF?$AAs?$AA?$AA@| DCB "%", 0x0
	DCB	"s", 0x0, "\\", 0x0, "%", 0x0, "s", 0x0, 0x0, 0x0 ; `string'

  00004			 AREA	 |.xdata|, DATA
|$T37480| DCD	0xffffffc4
; Function compile flags: /Odtp

  00628			 AREA	 |.text|, CODE, ARM

  00628	00000000	 DCD         |__GSHandlerCheck|
  0062c	00000000	 DCD         |$T37480|

  00630		 |PmxLoadPolicy| PROC

; 327  : {

  00630		 |$LN20@PmxLoadPol|
  00630	e1a0c00d	 mov         r12, sp
  00634	e92d0001	 stmdb       sp!, {r0}
  00638	e92d5000	 stmdb       sp!, {r12, lr}
  0063c	e24ddf95	 sub         sp, sp, #0x95, 30
  00640		 |$M37481|
  00640	e59f3200	 ldr         r3, [pc, #0x200]
  00644	e5933000	 ldr         r3, [r3]
  00648	e58d3224	 str         r3, [sp, #0x224]

; 328  :     HKEY hKey = NULL;

  0064c	e3a03000	 mov         r3, #0
  00650	e58d3008	 str         r3, [sp, #8]

; 329  :     DWORD rc = FALSE;

  00654	e3a03000	 mov         r3, #0
  00658	e58d3004	 str         r3, [sp, #4]

; 330  :     _TCHAR szBuffer[MAX_PATH];
; 331  :     PolicyContext *pContext = NULL;

  0065c	e3a03000	 mov         r3, #0
  00660	e58d3218	 str         r3, [sp, #0x218]

; 332  :     PolicyAdapter *pAdapter;
; 333  :     
; 334  : 
; 335  :     // check for global root object
; 336  :     if (g_pPolicyRoot == NULL || context == NULL) goto cleanUp;

  00664	e59f31d4	 ldr         r3, [pc, #0x1D4]
  00668	e5933000	 ldr         r3, [r3]
  0066c	e3530000	 cmp         r3, #0
  00670	0a000002	 beq         |$LN12@PmxLoadPol|
  00674	e59d325c	 ldr         r3, [sp, #0x25C]
  00678	e3530000	 cmp         r3, #0
  0067c	1a000001	 bne         |$LN13@PmxLoadPol|
  00680		 |$LN12@PmxLoadPol|
  00680	ea000055	 b           |$LN11@PmxLoadPol|
  00684	ea000054	 b           |$cleanUp$36419|
  00688		 |$LN13@PmxLoadPol|

; 337  : 
; 338  :     // try opening context via registry key
; 339  :     _tcscpy(szBuffer, (_TCHAR*)context);

  00688	e59d125c	 ldr         r1, [sp, #0x25C]
  0068c	e28d000c	 add         r0, sp, #0xC
  00690	eb000000	 bl          wcscpy

; 340  :     if (RegOpenKeyEx(HKEY_LOCAL_MACHINE, szBuffer, 0, 0, &hKey ) != ERROR_SUCCESS)

  00694	e28d3008	 add         r3, sp, #8
  00698	e58d3000	 str         r3, [sp]
  0069c	e3a03000	 mov         r3, #0
  006a0	e3a02000	 mov         r2, #0
  006a4	e28d100c	 add         r1, sp, #0xC
  006a8	e3a0010a	 mov         r0, #0xA, 2
  006ac	eb000000	 bl          RegOpenKeyExW
  006b0	e58d0234	 str         r0, [sp, #0x234]
  006b4	e59d3234	 ldr         r3, [sp, #0x234]
  006b8	e3530000	 cmp         r3, #0
  006bc	0a000017	 beq         |$LN10@PmxLoadPol|

; 341  :         {
; 342  :         // check if context is a subkey
; 343  :         _stprintf(szBuffer, L"%s\\%s", 
; 344  :             g_pPolicyRoot->GetPolicyPath(),
; 345  :             (_TCHAR*)context
; 346  :             );

  006c0	e59f3178	 ldr         r3, [pc, #0x178]
  006c4	e5930000	 ldr         r0, [r3]
  006c8	eb000000	 bl          |?GetPolicyPath@PolicyRoot@@QBAPBGXZ|
  006cc	e58d0238	 str         r0, [sp, #0x238]
  006d0	e59d325c	 ldr         r3, [sp, #0x25C]
  006d4	e59d2238	 ldr         r2, [sp, #0x238]
  006d8	e59f1164	 ldr         r1, [pc, #0x164]
  006dc	e28d000c	 add         r0, sp, #0xC
  006e0	eb000000	 bl          swprintf

; 347  : 
; 348  :         // there isn't a member function to update internal 
; 349  :         // variables, do it manually
; 350  :         if (RegOpenKeyEx(HKEY_LOCAL_MACHINE, szBuffer, 0, 0, &hKey) != ERROR_SUCCESS)

  006e4	e28d3008	 add         r3, sp, #8
  006e8	e58d3000	 str         r3, [sp]
  006ec	e3a03000	 mov         r3, #0
  006f0	e3a02000	 mov         r2, #0
  006f4	e28d100c	 add         r1, sp, #0xC
  006f8	e3a0010a	 mov         r0, #0xA, 2
  006fc	eb000000	 bl          RegOpenKeyExW
  00700	e58d023c	 str         r0, [sp, #0x23C]
  00704	e59d323c	 ldr         r3, [sp, #0x23C]
  00708	e3530000	 cmp         r3, #0
  0070c	0a000003	 beq         |$LN9@PmxLoadPol|

; 351  :             {
; 352  :             hKey = NULL;

  00710	e3a03000	 mov         r3, #0
  00714	e58d3008	 str         r3, [sp, #8]
  00718	ea00002f	 b           |$LN8@PmxLoadPol|

; 353  :             goto cleanUp;

  0071c	ea00002e	 b           |$cleanUp$36419|
  00720		 |$LN9@PmxLoadPol|
  00720		 |$LN10@PmxLoadPol|

; 354  :             }
; 355  :         }
; 356  : 
; 357  :     // At this point we know the registry path of the constraint adapter
; 358  :     // pass it down to the adapter
; 359  :     pAdapter = g_pPolicyRoot->LoadPolicy(szBuffer);

  00720	e28d100c	 add         r1, sp, #0xC
  00724	e59f3114	 ldr         r3, [pc, #0x114]
  00728	e5930000	 ldr         r0, [r3]
  0072c	eb000000	 bl          |?LoadPolicy@PolicyRoot@@QAAPAVPolicyAdapter@@PBG@Z|
  00730	e58d0240	 str         r0, [sp, #0x240]
  00734	e59d3240	 ldr         r3, [sp, #0x240]
  00738	e58d3214	 str         r3, [sp, #0x214]

; 360  :     if (pAdapter == NULL) goto cleanUp;

  0073c	e59d3214	 ldr         r3, [sp, #0x214]
  00740	e3530000	 cmp         r3, #0
  00744	1a000001	 bne         |$LN7@PmxLoadPol|
  00748	ea000023	 b           |$LN6@PmxLoadPol|
  0074c	ea000022	 b           |$cleanUp$36419|
  00750		 |$LN7@PmxLoadPol|

; 361  : 
; 362  :     // create a constraint context
; 363  :     pContext = new PolicyContext(pAdapter);

  00750	e3a0000c	 mov         r0, #0xC
  00754	eb000000	 bl          |??2@YAPAXI@Z|
  00758	e58d0244	 str         r0, [sp, #0x244]
  0075c	e59d3244	 ldr         r3, [sp, #0x244]
  00760	e58d321c	 str         r3, [sp, #0x21C]
  00764	e59d321c	 ldr         r3, [sp, #0x21C]
  00768	e3530000	 cmp         r3, #0
  0076c	0a000006	 beq         |$LN16@PmxLoadPol|
  00770	e59d1214	 ldr         r1, [sp, #0x214]
  00774	e59d021c	 ldr         r0, [sp, #0x21C]
  00778	eb000000	 bl          |??0PolicyContext@@QAA@PAVPolicyAdapter@@@Z|
  0077c	e58d0248	 str         r0, [sp, #0x248]
  00780	e59d3248	 ldr         r3, [sp, #0x248]
  00784	e58d324c	 str         r3, [sp, #0x24C]
  00788	ea000001	 b           |$LN17@PmxLoadPol|
  0078c		 |$LN16@PmxLoadPol|
  0078c	e3a03000	 mov         r3, #0
  00790	e58d324c	 str         r3, [sp, #0x24C]
  00794		 |$LN17@PmxLoadPol|
  00794	e59d324c	 ldr         r3, [sp, #0x24C]
  00798	e58d3218	 str         r3, [sp, #0x218]

; 364  :     pContext->m_hContext = pAdapter->OpenPolicy();

  0079c	e59d0214	 ldr         r0, [sp, #0x214]
  007a0	eb000000	 bl          |?OpenPolicy@PolicyAdapter@@QAAPAXXZ|
  007a4	e58d0250	 str         r0, [sp, #0x250]
  007a8	e59d3218	 ldr         r3, [sp, #0x218]
  007ac	e2832004	 add         r2, r3, #4
  007b0	e59d3250	 ldr         r3, [sp, #0x250]
  007b4	e5823000	 str         r3, [r2]

; 365  :     if (pContext->m_hContext == NULL) goto cleanUp;

  007b8	e59d3218	 ldr         r3, [sp, #0x218]
  007bc	e2833004	 add         r3, r3, #4
  007c0	e5933000	 ldr         r3, [r3]
  007c4	e3530000	 cmp         r3, #0
  007c8	1a000001	 bne         |$LN5@PmxLoadPol|
  007cc	ea000002	 b           |$LN4@PmxLoadPol|
  007d0	ea000001	 b           |$cleanUp$36419|
  007d4		 |$LN5@PmxLoadPol|

; 366  : 
; 367  :     rc = TRUE;

  007d4	e3a03001	 mov         r3, #1
  007d8	e58d3004	 str         r3, [sp, #4]
  007dc		 |$LN4@PmxLoadPol|
  007dc		 |$LN6@PmxLoadPol|
  007dc		 |$LN8@PmxLoadPol|
  007dc		 |$LN11@PmxLoadPol|
  007dc		 |$cleanUp$36419|

; 368  : 
; 369  : cleanUp:
; 370  :     if (hKey != NULL)

  007dc	e59d3008	 ldr         r3, [sp, #8]
  007e0	e3530000	 cmp         r3, #0
  007e4	0a000001	 beq         |$LN3@PmxLoadPol|

; 371  :         {
; 372  :         RegCloseKey(hKey);

  007e8	e59d0008	 ldr         r0, [sp, #8]
  007ec	eb000000	 bl          RegCloseKey
  007f0		 |$LN3@PmxLoadPol|

; 373  :         }
; 374  :     
; 375  :     if (rc == FALSE)

  007f0	e59d3004	 ldr         r3, [sp, #4]
  007f4	e3530000	 cmp         r3, #0
  007f8	1a000008	 bne         |$LN2@PmxLoadPol|

; 376  :         {
; 377  :         if (pContext != NULL)

  007fc	e59d3218	 ldr         r3, [sp, #0x218]
  00800	e3530000	 cmp         r3, #0
  00804	0a000005	 beq         |$LN1@PmxLoadPol|

; 378  :             {
; 379  :             delete pContext;

  00808	e59d3218	 ldr         r3, [sp, #0x218]
  0080c	e58d3220	 str         r3, [sp, #0x220]
  00810	e59d0220	 ldr         r0, [sp, #0x220]
  00814	eb000000	 bl          |??3@YAXPAX@Z|

; 380  :             pContext = NULL;

  00818	e3a03000	 mov         r3, #0
  0081c	e58d3218	 str         r3, [sp, #0x218]
  00820		 |$LN1@PmxLoadPol|
  00820		 |$LN2@PmxLoadPol|

; 381  :             }
; 382  :         }
; 383  :     
; 384  :     return pContext;

  00820	e59d0224	 ldr         r0, [sp, #0x224]
  00824	eb000000	 bl          __security_check_cookie
  00828	e59d3218	 ldr         r3, [sp, #0x218]
  0082c	e58d3230	 str         r3, [sp, #0x230]

; 385  : }

  00830	e59d0230	 ldr         r0, [sp, #0x230]
  00834	e28ddf95	 add         sp, sp, #0x95, 30
  00838	e89d6000	 ldmia       sp, {sp, lr}
  0083c	e12fff1e	 bx          lr
  00840		 |$LN21@PmxLoadPol|
  00840		 |$LN22@PmxLoadPol|
  00840	00000000	 DCD         |?g_pPolicyRoot@@3PAVPolicyRoot@@A|
  00844		 |$LN23@PmxLoadPol|
  00844	00000000	 DCD         |??_C@_1M@DFKENGJN@?$AA?$CF?$AAs?$AA?2?$AA?$CF?$AAs?$AA?$AA@|
  00848		 |$LN24@PmxLoadPol|
  00848	00000000	 DCD         |__security_cookie|
  0084c		 |$M37482|

			 ENDP  ; |PmxLoadPolicy|

; File c:\wince600\platform\common\src\soc\common_ti_v1\common_ti\pm\powerpolicyroot\policyroot.h

  00000			 AREA	 |.pdata|, PDATA
|$T37494| DCD	|$LN5@GetPolicyP|
	DCD	0x40000a04
; Function compile flags: /Odtp

  00000			 AREA	 |.text|, CODE, ARM

  00000		 |?GetPolicyPath@PolicyRoot@@QBAPBGXZ| PROC ; PolicyRoot::GetPolicyPath

; 86   :     {

  00000		 |$LN5@GetPolicyP|
  00000	e1a0c00d	 mov         r12, sp
  00004	e92d0001	 stmdb       sp!, {r0}
  00008	e92d5000	 stmdb       sp!, {r12, lr}
  0000c	e24dd004	 sub         sp, sp, #4
  00010		 |$M37491|

; 87   :         return m_szPolicyKey;

  00010	e59d300c	 ldr         r3, [sp, #0xC]
  00014	e58d3000	 str         r3, [sp]

; 88   :     } 

  00018	e59d0000	 ldr         r0, [sp]
  0001c	e28dd004	 add         sp, sp, #4
  00020	e89d6000	 ldmia       sp, {sp, lr}
  00024	e12fff1e	 bx          lr
  00028		 |$M37492|

			 ENDP  ; |?GetPolicyPath@PolicyRoot@@QBAPBGXZ|, PolicyRoot::GetPolicyPath

	EXPORT	|??_C@_1NE@DLHOEDJM@?$AA?$AN?$AA?6?$AA?$CK?$AA?$CK?$AA?$CK?$AA?5?$AAA?$AAS?$AAS?$AAE?$AAR?$AAT?$AAI?$AAO?$AAN?$AA?5?$AAF?$AAA?$AAI?$AAL?$AAE?$AAD?$AA?5?$AAi?$AAn?$AA?5?$AAC?$AA?3?$AA?2?$AAW?$AAI?$AAN@| [ DATA ] ; `string'
	EXPORT	|??_C@_1NE@EMMCPGHA@?$AA?$AN?$AA?6?$AA?$CK?$AA?$CK?$AA?$CK?$AA?5?$AAA?$AAS?$AAS?$AAE?$AAR?$AAT?$AAI?$AAO?$AAN?$AA?5?$AAF?$AAA?$AAI?$AAL?$AAE?$AAD?$AA?5?$AAi?$AAn?$AA?5?$AAC?$AA?3?$AA?2?$AAW?$AAI?$AAN@| [ DATA ] ; `string'
	IMPORT	|OutputDebugStringW|
; File c:\wince600\public\common\oak\inc\list.hxx

  00000			 AREA	 |.pdata|, PDATA
|$T37504| DCD	|$LN7@list|
	DCD	0x40003704

  00000			 AREA	 |.rdata|, DATA, READONLY
|??_C@_1NE@DLHOEDJM@?$AA?$AN?$AA?6?$AA?$CK?$AA?$CK?$AA?$CK?$AA?5?$AAA?$AAS?$AAS?$AAE?$AAR?$AAT?$AAI?$AAO?$AAN?$AA?5?$AAF?$AAA?$AAI?$AAL?$AAE?$AAD?$AA?5?$AAi?$AAn?$AA?5?$AAC?$AA?3?$AA?2?$AAW?$AAI?$AAN@| DCB 0xd
	DCB	0x0, 0xa, 0x0, "*", 0x0, "*", 0x0, "*", 0x0, " ", 0x0, "A"
	DCB	0x0, "S", 0x0, "S", 0x0, "E", 0x0, "R", 0x0, "T", 0x0, "I"
	DCB	0x0, "O", 0x0, "N", 0x0, " ", 0x0, "F", 0x0, "A", 0x0, "I"
	DCB	0x0, "L", 0x0, "E", 0x0, "D", 0x0, " ", 0x0, "i", 0x0, "n"
	DCB	0x0, " ", 0x0, "C", 0x0, ":", 0x0, "\\", 0x0, "W", 0x0, "I"
	DCB	0x0, "N", 0x0, "C", 0x0, "E", 0x0, "6", 0x0, "0", 0x0, "0"
	DCB	0x0, "\\", 0x0, "p", 0x0, "u", 0x0, "b", 0x0, "l", 0x0, "i"
	DCB	0x0, "c", 0x0, "\\", 0x0, "c", 0x0, "o", 0x0, "m", 0x0, "m"
	DCB	0x0, "o", 0x0, "n", 0x0, "\\", 0x0, "o", 0x0, "a", 0x0, "k"
	DCB	0x0, "\\", 0x0, "i", 0x0, "n", 0x0, "c", 0x0, "\\", 0x0, "l"
	DCB	0x0, "i", 0x0, "s", 0x0, "t", 0x0, ".", 0x0, "h", 0x0, "x"
	DCB	0x0, "x", 0x0, "(", 0x0, "1", 0x0, "8", 0x0, "0", 0x0, ")"
	DCB	0x0, ":", 0x0, 0xd, 0x0, 0xa, 0x0, "&", 0x0, "_", 0x0, "H"
	DCB	0x0, "e", 0x0, "a", 0x0, "d", 0x0, "-", 0x0, ">", 0x0, "_"
	DCB	0x0, "N", 0x0, "e", 0x0, "x", 0x0, "t", 0x0, " ", 0x0, "="
	DCB	0x0, "=", 0x0, " ", 0x0, "&", 0x0, "_", 0x0, "H", 0x0, "e"
	DCB	0x0, "a", 0x0, "d", 0x0, "N", 0x0, "e", 0x0, "x", 0x0, "t"
	DCB	0x0, 0xd, 0x0, 0xa, 0x0, 0x0, 0x0	; `string'

  00000			 AREA	 |.rdata|, DATA, READONLY
|??_C@_1NE@EMMCPGHA@?$AA?$AN?$AA?6?$AA?$CK?$AA?$CK?$AA?$CK?$AA?5?$AAA?$AAS?$AAS?$AAE?$AAR?$AAT?$AAI?$AAO?$AAN?$AA?5?$AAF?$AAA?$AAI?$AAL?$AAE?$AAD?$AA?5?$AAi?$AAn?$AA?5?$AAC?$AA?3?$AA?2?$AAW?$AAI?$AAN@| DCB 0xd
	DCB	0x0, 0xa, 0x0, "*", 0x0, "*", 0x0, "*", 0x0, " ", 0x0, "A"
	DCB	0x0, "S", 0x0, "S", 0x0, "E", 0x0, "R", 0x0, "T", 0x0, "I"
	DCB	0x0, "O", 0x0, "N", 0x0, " ", 0x0, "F", 0x0, "A", 0x0, "I"
	DCB	0x0, "L", 0x0, "E", 0x0, "D", 0x0, " ", 0x0, "i", 0x0, "n"
	DCB	0x0, " ", 0x0, "C", 0x0, ":", 0x0, "\\", 0x0, "W", 0x0, "I"
	DCB	0x0, "N", 0x0, "C", 0x0, "E", 0x0, "6", 0x0, "0", 0x0, "0"
	DCB	0x0, "\\", 0x0, "p", 0x0, "u", 0x0, "b", 0x0, "l", 0x0, "i"
	DCB	0x0, "c", 0x0, "\\", 0x0, "c", 0x0, "o", 0x0, "m", 0x0, "m"
	DCB	0x0, "o", 0x0, "n", 0x0, "\\", 0x0, "o", 0x0, "a", 0x0, "k"
	DCB	0x0, "\\", 0x0, "i", 0x0, "n", 0x0, "c", 0x0, "\\", 0x0, "l"
	DCB	0x0, "i", 0x0, "s", 0x0, "t", 0x0, ".", 0x0, "h", 0x0, "x"
	DCB	0x0, "x", 0x0, "(", 0x0, "1", 0x0, "7", 0x0, "9", 0x0, ")"
	DCB	0x0, ":", 0x0, 0xd, 0x0, 0xa, 0x0, "&", 0x0, "_", 0x0, "H"
	DCB	0x0, "e", 0x0, "a", 0x0, "d", 0x0, "-", 0x0, ">", 0x0, "_"
	DCB	0x0, "P", 0x0, "r", 0x0, "e", 0x0, "v", 0x0, " ", 0x0, "="
	DCB	0x0, "=", 0x0, " ", 0x0, "&", 0x0, "_", 0x0, "H", 0x0, "e"
	DCB	0x0, "a", 0x0, "d", 0x0, "P", 0x0, "r", 0x0, "e", 0x0, "v"
	DCB	0x0, 0xd, 0x0, 0xa, 0x0, 0x0, 0x0	; `string'
; Function compile flags: /Odtp

  00000			 AREA	 |.text|, CODE, ARM

  00000		 |??0?$list@PAVPolicyAdapter@@Vallocator@ce@@@ce@@QAA@XZ| PROC ; ce::list<PolicyAdapter *,ce::allocator>::list<PolicyAdapter *,ce::allocator>

; 177  :     {

  00000		 |$LN7@list|
  00000	e1a0c00d	 mov         r12, sp
  00004	e92d0001	 stmdb       sp!, {r0}
  00008	e92d5000	 stmdb       sp!, {r12, lr}
  0000c	e24dd004	 sub         sp, sp, #4
  00010		 |$M37501|
  00010	e59d300c	 ldr         r3, [sp, #0xC]
  00014	e2833004	 add         r3, r3, #4
  00018	e2432004	 sub         r2, r3, #4
  0001c	e59d300c	 ldr         r3, [sp, #0xC]
  00020	e5832000	 str         r2, [r3]
  00024	e59d300c	 ldr         r3, [sp, #0xC]
  00028	e283200c	 add         r2, r3, #0xC
  0002c	e3a03000	 mov         r3, #0
  00030	e5823000	 str         r3, [r2]

; 178  :         // _HeadPrev and _HeadNext must have the same sizes and relative layout as _Node::_Prev and _Node::_Next
; 179  :         assert(&_Head->_Prev == &_HeadPrev);

  00034	e59d300c	 ldr         r3, [sp, #0xC]
  00038	e5933000	 ldr         r3, [r3]
  0003c	e2832008	 add         r2, r3, #8
  00040	e59d300c	 ldr         r3, [sp, #0xC]
  00044	e2833008	 add         r3, r3, #8
  00048	e1520003	 cmp         r2, r3
  0004c	0a000002	 beq         |$LN3@list|
  00050	e59f0080	 ldr         r0, [pc, #0x80]
  00054	eb000000	 bl          OutputDebugStringW
  00058	e6000010	 __debugbreak_ce
  0005c		 |$LN3@list|

; 180  :         assert(&_Head->_Next == &_HeadNext);

  0005c	e59d300c	 ldr         r3, [sp, #0xC]
  00060	e5933000	 ldr         r3, [r3]
  00064	e2832004	 add         r2, r3, #4
  00068	e59d300c	 ldr         r3, [sp, #0xC]
  0006c	e2833004	 add         r3, r3, #4
  00070	e1520003	 cmp         r2, r3
  00074	0a000002	 beq         |$LN4@list|
  00078	e59f0054	 ldr         r0, [pc, #0x54]
  0007c	eb000000	 bl          OutputDebugStringW
  00080	e6000010	 __debugbreak_ce
  00084		 |$LN4@list|

; 181  :         
; 182  :         _Head->_Prev = _Head->_Next = _Head;

  00084	e59d300c	 ldr         r3, [sp, #0xC]
  00088	e5933000	 ldr         r3, [r3]
  0008c	e2832004	 add         r2, r3, #4
  00090	e59d300c	 ldr         r3, [sp, #0xC]
  00094	e5933000	 ldr         r3, [r3]
  00098	e5823000	 str         r3, [r2]
  0009c	e59d300c	 ldr         r3, [sp, #0xC]
  000a0	e5933000	 ldr         r3, [r3]
  000a4	e2831004	 add         r1, r3, #4
  000a8	e59d300c	 ldr         r3, [sp, #0xC]
  000ac	e5933000	 ldr         r3, [r3]
  000b0	e2832008	 add         r2, r3, #8
  000b4	e5913000	 ldr         r3, [r1]
  000b8	e5823000	 str         r3, [r2]

; 183  :     }

  000bc	e59d300c	 ldr         r3, [sp, #0xC]
  000c0	e58d3000	 str         r3, [sp]
  000c4	e59d0000	 ldr         r0, [sp]
  000c8	e28dd004	 add         sp, sp, #4
  000cc	e89d6000	 ldmia       sp, {sp, lr}
  000d0	e12fff1e	 bx          lr
  000d4		 |$LN8@list|
  000d4		 |$LN9@list|
  000d4	00000000	 DCD         |??_C@_1NE@DLHOEDJM@?$AA?$AN?$AA?6?$AA?$CK?$AA?$CK?$AA?$CK?$AA?5?$AAA?$AAS?$AAS?$AAE?$AAR?$AAT?$AAI?$AAO?$AAN?$AA?5?$AAF?$AAA?$AAI?$AAL?$AAE?$AAD?$AA?5?$AAi?$AAn?$AA?5?$AAC?$AA?3?$AA?2?$AAW?$AAI?$AAN@|
  000d8		 |$LN10@list|
  000d8	00000000	 DCD         |??_C@_1NE@EMMCPGHA@?$AA?$AN?$AA?6?$AA?$CK?$AA?$CK?$AA?$CK?$AA?5?$AAA?$AAS?$AAS?$AAE?$AAR?$AAT?$AAI?$AAO?$AAN?$AA?5?$AAF?$AAA?$AAI?$AAL?$AAE?$AAD?$AA?5?$AAi?$AAn?$AA?5?$AAC?$AA?3?$AA?2?$AAW?$AAI?$AAN@|
  000dc		 |$M37502|

			 ENDP  ; |??0?$list@PAVPolicyAdapter@@Vallocator@ce@@@ce@@QAA@XZ|, ce::list<PolicyAdapter *,ce::allocator>::list<PolicyAdapter *,ce::allocator>

	EXPORT	|?clear@?$list@PAVPolicyAdapter@@Vallocator@ce@@@ce@@QAAXXZ| ; ce::list<PolicyAdapter *,ce::allocator>::clear

  00000			 AREA	 |.pdata|, PDATA
|$T37514| DCD	|$LN5@list@2|
	DCD	0x40000703
; Function compile flags: /Odtp

  00000			 AREA	 |.text|, CODE, ARM

  00000		 |??1?$list@PAVPolicyAdapter@@Vallocator@ce@@@ce@@QAA@XZ| PROC ; ce::list<PolicyAdapter *,ce::allocator>::~list<PolicyAdapter *,ce::allocator>

; 214  :     {

  00000		 |$LN5@list@2|
  00000	e1a0c00d	 mov         r12, sp
  00004	e92d0001	 stmdb       sp!, {r0}
  00008	e92d5000	 stmdb       sp!, {r12, lr}
  0000c		 |$M37511|

; 215  :         clear();

  0000c	e59d0008	 ldr         r0, [sp, #8]
  00010	eb000000	 bl          |?clear@?$list@PAVPolicyAdapter@@Vallocator@ce@@@ce@@QAAXXZ|

; 216  :     }

  00014	e89d6000	 ldmia       sp, {sp, lr}
  00018	e12fff1e	 bx          lr
  0001c		 |$M37512|

			 ENDP  ; |??1?$list@PAVPolicyAdapter@@Vallocator@ce@@@ce@@QAA@XZ|, ce::list<PolicyAdapter *,ce::allocator>::~list<PolicyAdapter *,ce::allocator>

	EXPORT	|?erase@?$list@PAVPolicyAdapter@@Vallocator@ce@@@ce@@QAA?AViterator@12@V312@0@Z| ; ce::list<PolicyAdapter *,ce::allocator>::erase
	EXPORT	|?begin@?$list@PAVPolicyAdapter@@Vallocator@ce@@@ce@@QAA?AViterator@12@XZ| ; ce::list<PolicyAdapter *,ce::allocator>::begin
	EXPORT	|?end@?$list@PAVPolicyAdapter@@Vallocator@ce@@@ce@@QAA?AViterator@12@XZ| ; ce::list<PolicyAdapter *,ce::allocator>::end

  00000			 AREA	 |.pdata|, PDATA
|$T37524| DCD	|$LN5@clear|
	DCD	0x40001a04
; Function compile flags: /Odtp

  00000			 AREA	 |.text|, CODE, ARM

  00000		 |?clear@?$list@PAVPolicyAdapter@@Vallocator@ce@@@ce@@QAAXXZ| PROC ; ce::list<PolicyAdapter *,ce::allocator>::clear

; 265  :         {erase(begin(), end());}

  00000		 |$LN5@clear|
  00000	e1a0c00d	 mov         r12, sp
  00004	e92d0001	 stmdb       sp!, {r0}
  00008	e92d5000	 stmdb       sp!, {r12, lr}
  0000c	e24dd01c	 sub         sp, sp, #0x1C
  00010		 |$M37521|
  00010	e28d1000	 add         r1, sp, #0
  00014	e59d0024	 ldr         r0, [sp, #0x24]
  00018	eb000000	 bl          |?end@?$list@PAVPolicyAdapter@@Vallocator@ce@@@ce@@QAA?AViterator@12@XZ|
  0001c	e58d000c	 str         r0, [sp, #0xC]
  00020	e28d1004	 add         r1, sp, #4
  00024	e59d0024	 ldr         r0, [sp, #0x24]
  00028	eb000000	 bl          |?begin@?$list@PAVPolicyAdapter@@Vallocator@ce@@@ce@@QAA?AViterator@12@XZ|
  0002c	e58d0010	 str         r0, [sp, #0x10]
  00030	e59d300c	 ldr         r3, [sp, #0xC]
  00034	e58d3014	 str         r3, [sp, #0x14]
  00038	e59d3014	 ldr         r3, [sp, #0x14]
  0003c	e5933000	 ldr         r3, [r3]
  00040	e59d2010	 ldr         r2, [sp, #0x10]
  00044	e58d2018	 str         r2, [sp, #0x18]
  00048	e59d2018	 ldr         r2, [sp, #0x18]
  0004c	e5922000	 ldr         r2, [r2]
  00050	e28d1008	 add         r1, sp, #8
  00054	e59d0024	 ldr         r0, [sp, #0x24]
  00058	eb000000	 bl          |?erase@?$list@PAVPolicyAdapter@@Vallocator@ce@@@ce@@QAA?AViterator@12@V312@0@Z|
  0005c	e28dd01c	 add         sp, sp, #0x1C
  00060	e89d6000	 ldmia       sp, {sp, lr}
  00064	e12fff1e	 bx          lr
  00068		 |$M37522|

			 ENDP  ; |?clear@?$list@PAVPolicyAdapter@@Vallocator@ce@@@ce@@QAAXXZ|, ce::list<PolicyAdapter *,ce::allocator>::clear

	EXPORT	|??0iterator@?$list@PAVPolicyAdapter@@Vallocator@ce@@@ce@@QAA@PAU_Node@12@@Z| ; ce::list<PolicyAdapter *,ce::allocator>::iterator::iterator

  00000			 AREA	 |.pdata|, PDATA
|$T37532| DCD	|$LN5@begin|
	DCD	0x40001004
; Function compile flags: /Odtp

  00000			 AREA	 |.text|, CODE, ARM

  00000		 |?begin@?$list@PAVPolicyAdapter@@Vallocator@ce@@@ce@@QAA?AViterator@12@XZ| PROC ; ce::list<PolicyAdapter *,ce::allocator>::begin

; 229  :         {return (iterator(_Head->_Next)); }

  00000		 |$LN5@begin|
  00000	e1a0c00d	 mov         r12, sp
  00004	e92d0003	 stmdb       sp!, {r0, r1}
  00008	e92d5000	 stmdb       sp!, {r12, lr}
  0000c	e24dd004	 sub         sp, sp, #4
  00010		 |$M37529|
  00010	e59d300c	 ldr         r3, [sp, #0xC]
  00014	e5933000	 ldr         r3, [r3]
  00018	e2833004	 add         r3, r3, #4
  0001c	e5931000	 ldr         r1, [r3]
  00020	e59d0010	 ldr         r0, [sp, #0x10]
  00024	eb000000	 bl          |??0iterator@?$list@PAVPolicyAdapter@@Vallocator@ce@@@ce@@QAA@PAU_Node@12@@Z|
  00028	e59d3010	 ldr         r3, [sp, #0x10]
  0002c	e58d3000	 str         r3, [sp]
  00030	e59d0000	 ldr         r0, [sp]
  00034	e28dd004	 add         sp, sp, #4
  00038	e89d6000	 ldmia       sp, {sp, lr}
  0003c	e12fff1e	 bx          lr
  00040		 |$M37530|

			 ENDP  ; |?begin@?$list@PAVPolicyAdapter@@Vallocator@ce@@@ce@@QAA?AViterator@12@XZ|, ce::list<PolicyAdapter *,ce::allocator>::begin


  00000			 AREA	 |.pdata|, PDATA
|$T37540| DCD	|$LN5@end|
	DCD	0x40000e04
; Function compile flags: /Odtp

  00000			 AREA	 |.text|, CODE, ARM

  00000		 |?end@?$list@PAVPolicyAdapter@@Vallocator@ce@@@ce@@QAA?AViterator@12@XZ| PROC ; ce::list<PolicyAdapter *,ce::allocator>::end

; 236  :         {return (iterator(_Head)); }

  00000		 |$LN5@end|
  00000	e1a0c00d	 mov         r12, sp
  00004	e92d0003	 stmdb       sp!, {r0, r1}
  00008	e92d5000	 stmdb       sp!, {r12, lr}
  0000c	e24dd004	 sub         sp, sp, #4
  00010		 |$M37537|
  00010	e59d300c	 ldr         r3, [sp, #0xC]
  00014	e5931000	 ldr         r1, [r3]
  00018	e59d0010	 ldr         r0, [sp, #0x10]
  0001c	eb000000	 bl          |??0iterator@?$list@PAVPolicyAdapter@@Vallocator@ce@@@ce@@QAA@PAU_Node@12@@Z|
  00020	e59d3010	 ldr         r3, [sp, #0x10]
  00024	e58d3000	 str         r3, [sp]
  00028	e59d0000	 ldr         r0, [sp]
  0002c	e28dd004	 add         sp, sp, #4
  00030	e89d6000	 ldmia       sp, {sp, lr}
  00034	e12fff1e	 bx          lr
  00038		 |$M37538|

			 ENDP  ; |?end@?$list@PAVPolicyAdapter@@Vallocator@ce@@@ce@@QAA?AViterator@12@XZ|, ce::list<PolicyAdapter *,ce::allocator>::end

	EXPORT	|?erase@?$list@PAVPolicyAdapter@@Vallocator@ce@@@ce@@QAA?AViterator@12@V312@@Z| ; ce::list<PolicyAdapter *,ce::allocator>::erase
	EXPORT	|??Eiterator@?$list@PAVPolicyAdapter@@Vallocator@ce@@@ce@@QAA?AV012@H@Z| ; ce::list<PolicyAdapter *,ce::allocator>::iterator::operator++
	EXPORT	|??9iterator@?$list@PAVPolicyAdapter@@Vallocator@ce@@@ce@@QBA_NABV012@@Z| ; ce::list<PolicyAdapter *,ce::allocator>::iterator::operator!=
	IMPORT	|memcpy|

  00000			 AREA	 |.pdata|, PDATA
|$T37551| DCD	|$LN7@erase|
	DCD	0x40002204
; Function compile flags: /Odtp

  00000			 AREA	 |.text|, CODE, ARM

  00000		 |?erase@?$list@PAVPolicyAdapter@@Vallocator@ce@@@ce@@QAA?AViterator@12@V312@0@Z| PROC ; ce::list<PolicyAdapter *,ce::allocator>::erase

; 383  :     {    

  00000		 |$LN7@erase|
  00000	e1a0c00d	 mov         r12, sp
  00004	e92d000f	 stmdb       sp!, {r0 - r3}
  00008	e92d5000	 stmdb       sp!, {r12, lr}
  0000c	e24dd018	 sub         sp, sp, #0x18
  00010		 |$M37548|
  00010		 |$LN2@erase|

; 384  :         while (First != Last)

  00010	e28d102c	 add         r1, sp, #0x2C
  00014	e28d0028	 add         r0, sp, #0x28
  00018	eb000000	 bl          |??9iterator@?$list@PAVPolicyAdapter@@Vallocator@ce@@@ce@@QBA_NABV012@@Z|
  0001c	e5cd000c	 strb        r0, [sp, #0xC]
  00020	e5dd300c	 ldrb        r3, [sp, #0xC]
  00024	e3530000	 cmp         r3, #0
  00028	0a00000c	 beq         |$LN1@erase|

; 385  :             erase(First++);

  0002c	e3a02000	 mov         r2, #0
  00030	e28d1000	 add         r1, sp, #0
  00034	e28d0028	 add         r0, sp, #0x28
  00038	eb000000	 bl          |??Eiterator@?$list@PAVPolicyAdapter@@Vallocator@ce@@@ce@@QAA?AV012@H@Z|
  0003c	e58d0010	 str         r0, [sp, #0x10]
  00040	e59d3010	 ldr         r3, [sp, #0x10]
  00044	e58d3014	 str         r3, [sp, #0x14]
  00048	e59d3014	 ldr         r3, [sp, #0x14]
  0004c	e5932000	 ldr         r2, [r3]
  00050	e28d1004	 add         r1, sp, #4
  00054	e59d0020	 ldr         r0, [sp, #0x20]
  00058	eb000000	 bl          |?erase@?$list@PAVPolicyAdapter@@Vallocator@ce@@@ce@@QAA?AViterator@12@V312@@Z|
  0005c	eaffffeb	 b           |$LN2@erase|
  00060		 |$LN1@erase|

; 386  :         
; 387  :         return First; 

  00060	e59d0024	 ldr         r0, [sp, #0x24]
  00064	e28d1028	 add         r1, sp, #0x28
  00068	e3a02004	 mov         r2, #4
  0006c	eb000000	 bl          memcpy
  00070	e59d3024	 ldr         r3, [sp, #0x24]
  00074	e58d3008	 str         r3, [sp, #8]

; 388  :     }

  00078	e59d0008	 ldr         r0, [sp, #8]
  0007c	e28dd018	 add         sp, sp, #0x18
  00080	e89d6000	 ldmia       sp, {sp, lr}
  00084	e12fff1e	 bx          lr
  00088		 |$M37549|

			 ENDP  ; |?erase@?$list@PAVPolicyAdapter@@Vallocator@ce@@@ce@@QAA?AViterator@12@V312@0@Z|, ce::list<PolicyAdapter *,ce::allocator>::erase

	EXPORT	|?_Freenode@?$list@PAVPolicyAdapter@@Vallocator@ce@@@ce@@IAAXPAU_Node@12@@Z| ; ce::list<PolicyAdapter *,ce::allocator>::_Freenode
	EXPORT	|??_C@_1LO@OOGIKPKN@?$AA?$AN?$AA?6?$AA?$CK?$AA?$CK?$AA?$CK?$AA?5?$AAA?$AAS?$AAS?$AAE?$AAR?$AAT?$AAI?$AAO?$AAN?$AA?5?$AAF?$AAA?$AAI?$AAL?$AAE?$AAD?$AA?5?$AAi?$AAn?$AA?5?$AAC?$AA?3?$AA?2?$AAW?$AAI?$AAN@| [ DATA ] ; `string'
	EXPORT	|??_C@_1LO@BAOOMFHO@?$AA?$AN?$AA?6?$AA?$CK?$AA?$CK?$AA?$CK?$AA?5?$AAA?$AAS?$AAS?$AAE?$AAR?$AAT?$AAI?$AAO?$AAN?$AA?5?$AAF?$AAA?$AAI?$AAL?$AAE?$AAD?$AA?5?$AAi?$AAn?$AA?5?$AAC?$AA?3?$AA?2?$AAW?$AAI?$AAN@| [ DATA ] ; `string'
	EXPORT	|??_C@_1LA@GONEHALC@?$AA?$AN?$AA?6?$AA?$CK?$AA?$CK?$AA?$CK?$AA?5?$AAA?$AAS?$AAS?$AAE?$AAR?$AAT?$AAI?$AAO?$AAN?$AA?5?$AAF?$AAA?$AAI?$AAL?$AAE?$AAD?$AA?5?$AAi?$AAn?$AA?5?$AAC?$AA?3?$AA?2?$AAW?$AAI?$AAN@| [ DATA ] ; `string'
	EXPORT	|?_MyNode@const_iterator@?$list@PAVPolicyAdapter@@Vallocator@ce@@@ce@@QBAPAU_Node@23@XZ| ; ce::list<PolicyAdapter *,ce::allocator>::const_iterator::_MyNode
	EXPORT	|??_C@_1LK@NOAKHIEP@?$AA?$AN?$AA?6?$AA?$CK?$AA?$CK?$AA?$CK?$AA?5?$AAA?$AAS?$AAS?$AAE?$AAR?$AAT?$AAI?$AAO?$AAN?$AA?5?$AAF?$AAA?$AAI?$AAL?$AAE?$AAD?$AA?5?$AAi?$AAn?$AA?5?$AAC?$AA?3?$AA?2?$AAW?$AAI?$AAN@| [ DATA ] ; `string'

  00000			 AREA	 |.pdata|, PDATA
|$T37565| DCD	|$LN9@erase@2|
	DCD	0x40005a04

  00000			 AREA	 |.rdata|, DATA, READONLY
|??_C@_1LO@OOGIKPKN@?$AA?$AN?$AA?6?$AA?$CK?$AA?$CK?$AA?$CK?$AA?5?$AAA?$AAS?$AAS?$AAE?$AAR?$AAT?$AAI?$AAO?$AAN?$AA?5?$AAF?$AAA?$AAI?$AAL?$AAE?$AAD?$AA?5?$AAi?$AAn?$AA?5?$AAC?$AA?3?$AA?2?$AAW?$AAI?$AAN@| DCB 0xd
	DCB	0x0, 0xa, 0x0, "*", 0x0, "*", 0x0, "*", 0x0, " ", 0x0, "A"
	DCB	0x0, "S", 0x0, "S", 0x0, "E", 0x0, "R", 0x0, "T", 0x0, "I"
	DCB	0x0, "O", 0x0, "N", 0x0, " ", 0x0, "F", 0x0, "A", 0x0, "I"
	DCB	0x0, "L", 0x0, "E", 0x0, "D", 0x0, " ", 0x0, "i", 0x0, "n"
	DCB	0x0, " ", 0x0, "C", 0x0, ":", 0x0, "\\", 0x0, "W", 0x0, "I"
	DCB	0x0, "N", 0x0, "C", 0x0, "E", 0x0, "6", 0x0, "0", 0x0, "0"
	DCB	0x0, "\\", 0x0, "p", 0x0, "u", 0x0, "b", 0x0, "l", 0x0, "i"
	DCB	0x0, "c", 0x0, "\\", 0x0, "c", 0x0, "o", 0x0, "m", 0x0, "m"
	DCB	0x0, "o", 0x0, "n", 0x0, "\\", 0x0, "o", 0x0, "a", 0x0, "k"
	DCB	0x0, "\\", 0x0, "i", 0x0, "n", 0x0, "c", 0x0, "\\", 0x0, "l"
	DCB	0x0, "i", 0x0, "s", 0x0, "t", 0x0, ".", 0x0, "h", 0x0, "x"
	DCB	0x0, "x", 0x0, "(", 0x0, "3", 0x0, "6", 0x0, "8", 0x0, ")"
	DCB	0x0, ":", 0x0, 0xd, 0x0, 0xa, 0x0, "W", 0x0, "h", 0x0, "e"
	DCB	0x0, "r", 0x0, "e", 0x0, "N", 0x0, "o", 0x0, "d", 0x0, "e"
	DCB	0x0, "-", 0x0, ">", 0x0, "_", 0x0, "N", 0x0, "e", 0x0, "x"
	DCB	0x0, "t", 0x0, 0xd, 0x0, 0xa, 0x0, 0x0, 0x0 ; `string'

  00000			 AREA	 |.rdata|, DATA, READONLY
|??_C@_1LO@BAOOMFHO@?$AA?$AN?$AA?6?$AA?$CK?$AA?$CK?$AA?$CK?$AA?5?$AAA?$AAS?$AAS?$AAE?$AAR?$AAT?$AAI?$AAO?$AAN?$AA?5?$AAF?$AAA?$AAI?$AAL?$AAE?$AAD?$AA?5?$AAi?$AAn?$AA?5?$AAC?$AA?3?$AA?2?$AAW?$AAI?$AAN@| DCB 0xd
	DCB	0x0, 0xa, 0x0, "*", 0x0, "*", 0x0, "*", 0x0, " ", 0x0, "A"
	DCB	0x0, "S", 0x0, "S", 0x0, "E", 0x0, "R", 0x0, "T", 0x0, "I"
	DCB	0x0, "O", 0x0, "N", 0x0, " ", 0x0, "F", 0x0, "A", 0x0, "I"
	DCB	0x0, "L", 0x0, "E", 0x0, "D", 0x0, " ", 0x0, "i", 0x0, "n"
	DCB	0x0, " ", 0x0, "C", 0x0, ":", 0x0, "\\", 0x0, "W", 0x0, "I"
	DCB	0x0, "N", 0x0, "C", 0x0, "E", 0x0, "6", 0x0, "0", 0x0, "0"
	DCB	0x0, "\\", 0x0, "p", 0x0, "u", 0x0, "b", 0x0, "l", 0x0, "i"
	DCB	0x0, "c", 0x0, "\\", 0x0, "c", 0x0, "o", 0x0, "m", 0x0, "m"
	DCB	0x0, "o", 0x0, "n", 0x0, "\\", 0x0, "o", 0x0, "a", 0x0, "k"
	DCB	0x0, "\\", 0x0, "i", 0x0, "n", 0x0, "c", 0x0, "\\", 0x0, "l"
	DCB	0x0, "i", 0x0, "s", 0x0, "t", 0x0, ".", 0x0, "h", 0x0, "x"
	DCB	0x0, "x", 0x0, "(", 0x0, "3", 0x0, "6", 0x0, "6", 0x0, ")"
	DCB	0x0, ":", 0x0, 0xd, 0x0, 0xa, 0x0, "W", 0x0, "h", 0x0, "e"
	DCB	0x0, "r", 0x0, "e", 0x0, "N", 0x0, "o", 0x0, "d", 0x0, "e"
	DCB	0x0, "-", 0x0, ">", 0x0, "_", 0x0, "P", 0x0, "r", 0x0, "e"
	DCB	0x0, "v", 0x0, 0xd, 0x0, 0xa, 0x0, 0x0, 0x0 ; `string'

  00000			 AREA	 |.rdata|, DATA, READONLY
|??_C@_1LA@GONEHALC@?$AA?$AN?$AA?6?$AA?$CK?$AA?$CK?$AA?$CK?$AA?5?$AAA?$AAS?$AAS?$AAE?$AAR?$AAT?$AAI?$AAO?$AAN?$AA?5?$AAF?$AAA?$AAI?$AAL?$AAE?$AAD?$AA?5?$AAi?$AAn?$AA?5?$AAC?$AA?3?$AA?2?$AAW?$AAI?$AAN@| DCB 0xd
	DCB	0x0, 0xa, 0x0, "*", 0x0, "*", 0x0, "*", 0x0, " ", 0x0, "A"
	DCB	0x0, "S", 0x0, "S", 0x0, "E", 0x0, "R", 0x0, "T", 0x0, "I"
	DCB	0x0, "O", 0x0, "N", 0x0, " ", 0x0, "F", 0x0, "A", 0x0, "I"
	DCB	0x0, "L", 0x0, "E", 0x0, "D", 0x0, " ", 0x0, "i", 0x0, "n"
	DCB	0x0, " ", 0x0, "C", 0x0, ":", 0x0, "\\", 0x0, "W", 0x0, "I"
	DCB	0x0, "N", 0x0, "C", 0x0, "E", 0x0, "6", 0x0, "0", 0x0, "0"
	DCB	0x0, "\\", 0x0, "p", 0x0, "u", 0x0, "b", 0x0, "l", 0x0, "i"
	DCB	0x0, "c", 0x0, "\\", 0x0, "c", 0x0, "o", 0x0, "m", 0x0, "m"
	DCB	0x0, "o", 0x0, "n", 0x0, "\\", 0x0, "o", 0x0, "a", 0x0, "k"
	DCB	0x0, "\\", 0x0, "i", 0x0, "n", 0x0, "c", 0x0, "\\", 0x0, "l"
	DCB	0x0, "i", 0x0, "s", 0x0, "t", 0x0, ".", 0x0, "h", 0x0, "x"
	DCB	0x0, "x", 0x0, "(", 0x0, "3", 0x0, "6", 0x0, "4", 0x0, ")"
	DCB	0x0, ":", 0x0, 0xd, 0x0, 0xa, 0x0, "W", 0x0, "h", 0x0, "e"
	DCB	0x0, "r", 0x0, "e", 0x0, "N", 0x0, "o", 0x0, "d", 0x0, "e"
	DCB	0x0, 0xd, 0x0, 0xa, 0x0, 0x0, 0x0	; `string'

  00000			 AREA	 |.rdata|, DATA, READONLY
|??_C@_1LK@NOAKHIEP@?$AA?$AN?$AA?6?$AA?$CK?$AA?$CK?$AA?$CK?$AA?5?$AAA?$AAS?$AAS?$AAE?$AAR?$AAT?$AAI?$AAO?$AAN?$AA?5?$AAF?$AAA?$AAI?$AAL?$AAE?$AAD?$AA?5?$AAi?$AAn?$AA?5?$AAC?$AA?3?$AA?2?$AAW?$AAI?$AAN@| DCB 0xd
	DCB	0x0, 0xa, 0x0, "*", 0x0, "*", 0x0, "*", 0x0, " ", 0x0, "A"
	DCB	0x0, "S", 0x0, "S", 0x0, "E", 0x0, "R", 0x0, "T", 0x0, "I"
	DCB	0x0, "O", 0x0, "N", 0x0, " ", 0x0, "F", 0x0, "A", 0x0, "I"
	DCB	0x0, "L", 0x0, "E", 0x0, "D", 0x0, " ", 0x0, "i", 0x0, "n"
	DCB	0x0, " ", 0x0, "C", 0x0, ":", 0x0, "\\", 0x0, "W", 0x0, "I"
	DCB	0x0, "N", 0x0, "C", 0x0, "E", 0x0, "6", 0x0, "0", 0x0, "0"
	DCB	0x0, "\\", 0x0, "p", 0x0, "u", 0x0, "b", 0x0, "l", 0x0, "i"
	DCB	0x0, "c", 0x0, "\\", 0x0, "c", 0x0, "o", 0x0, "m", 0x0, "m"
	DCB	0x0, "o", 0x0, "n", 0x0, "\\", 0x0, "o", 0x0, "a", 0x0, "k"
	DCB	0x0, "\\", 0x0, "i", 0x0, "n", 0x0, "c", 0x0, "\\", 0x0, "l"
	DCB	0x0, "i", 0x0, "s", 0x0, "t", 0x0, ".", 0x0, "h", 0x0, "x"
	DCB	0x0, "x", 0x0, "(", 0x0, "3", 0x0, "6", 0x0, "0", 0x0, ")"
	DCB	0x0, ":", 0x0, 0xd, 0x0, 0xa, 0x0, "W", 0x0, "h", 0x0, "e"
	DCB	0x0, "r", 0x0, "e", 0x0, " ", 0x0, "!", 0x0, "=", 0x0, " "
	DCB	0x0, "e", 0x0, "n", 0x0, "d", 0x0, "(", 0x0, ")", 0x0, 0xd
	DCB	0x0, 0xa, 0x0, 0x0, 0x0			; `string'
; Function compile flags: /Odtp

  00000			 AREA	 |.text|, CODE, ARM

  00000		 |?erase@?$list@PAVPolicyAdapter@@Vallocator@ce@@@ce@@QAA?AViterator@12@V312@@Z| PROC ; ce::list<PolicyAdapter *,ce::allocator>::erase

; 359  :     {

  00000		 |$LN9@erase@2|
  00000	e1a0c00d	 mov         r12, sp
  00004	e92d000f	 stmdb       sp!, {r0 - r3}
  00008	e92d5000	 stmdb       sp!, {r12, lr}
  0000c	e24dd020	 sub         sp, sp, #0x20
  00010		 |$M37562|

; 360  :         assert(Where != end());

  00010	e28d1004	 add         r1, sp, #4
  00014	e59d0028	 ldr         r0, [sp, #0x28]
  00018	eb000000	 bl          |?end@?$list@PAVPolicyAdapter@@Vallocator@ce@@@ce@@QAA?AViterator@12@XZ|
  0001c	e58d0010	 str         r0, [sp, #0x10]
  00020	e59d1010	 ldr         r1, [sp, #0x10]
  00024	e28d0030	 add         r0, sp, #0x30
  00028	eb000000	 bl          |??9iterator@?$list@PAVPolicyAdapter@@Vallocator@ce@@@ce@@QBA_NABV012@@Z|
  0002c	e5cd0014	 strb        r0, [sp, #0x14]
  00030	e5dd3014	 ldrb        r3, [sp, #0x14]
  00034	e3530000	 cmp         r3, #0
  00038	1a000002	 bne         |$LN3@erase@2|
  0003c	e59f0120	 ldr         r0, [pc, #0x120]
  00040	eb000000	 bl          OutputDebugStringW
  00044	e6000010	 __debugbreak_ce
  00048		 |$LN3@erase@2|

; 361  :         
; 362  :         _NodePtr WhereNode = (Where++)._MyNode();

  00048	e3a02000	 mov         r2, #0
  0004c	e28d1008	 add         r1, sp, #8
  00050	e28d0030	 add         r0, sp, #0x30
  00054	eb000000	 bl          |??Eiterator@?$list@PAVPolicyAdapter@@Vallocator@ce@@@ce@@QAA?AV012@H@Z|
  00058	e58d0018	 str         r0, [sp, #0x18]
  0005c	e59d0018	 ldr         r0, [sp, #0x18]
  00060	eb000000	 bl          |?_MyNode@const_iterator@?$list@PAVPolicyAdapter@@Vallocator@ce@@@ce@@QBAPAU_Node@23@XZ|
  00064	e58d001c	 str         r0, [sp, #0x1C]
  00068	e59d301c	 ldr         r3, [sp, #0x1C]
  0006c	e58d3000	 str         r3, [sp]

; 363  : 
; 364  :         assert(WhereNode);

  00070	e59d3000	 ldr         r3, [sp]
  00074	e3530000	 cmp         r3, #0
  00078	1a000002	 bne         |$LN4@erase@2|
  0007c	e59f00dc	 ldr         r0, [pc, #0xDC]
  00080	eb000000	 bl          OutputDebugStringW
  00084	e6000010	 __debugbreak_ce
  00088		 |$LN4@erase@2|

; 365  :         __assume(WhereNode);
; 366  :         assert(WhereNode->_Prev);

  00088	e59d3000	 ldr         r3, [sp]
  0008c	e2833008	 add         r3, r3, #8
  00090	e5933000	 ldr         r3, [r3]
  00094	e3530000	 cmp         r3, #0
  00098	1a000002	 bne         |$LN5@erase@2|
  0009c	e59f00b8	 ldr         r0, [pc, #0xB8]
  000a0	eb000000	 bl          OutputDebugStringW
  000a4	e6000010	 __debugbreak_ce
  000a8		 |$LN5@erase@2|

; 367  :         __assume(WhereNode->_Prev);
; 368  :         assert(WhereNode->_Next);

  000a8	e59d3000	 ldr         r3, [sp]
  000ac	e2833004	 add         r3, r3, #4
  000b0	e5933000	 ldr         r3, [r3]
  000b4	e3530000	 cmp         r3, #0
  000b8	1a000002	 bne         |$LN6@erase@2|
  000bc	e59f0094	 ldr         r0, [pc, #0x94]
  000c0	eb000000	 bl          OutputDebugStringW
  000c4	e6000010	 __debugbreak_ce
  000c8		 |$LN6@erase@2|

; 369  :         __assume(WhereNode->_Next);
; 370  :         
; 371  :         WhereNode->_Prev->_Next = WhereNode->_Next;

  000c8	e59d3000	 ldr         r3, [sp]
  000cc	e2831004	 add         r1, r3, #4
  000d0	e59d3000	 ldr         r3, [sp]
  000d4	e2833008	 add         r3, r3, #8
  000d8	e5933000	 ldr         r3, [r3]
  000dc	e2832004	 add         r2, r3, #4
  000e0	e5913000	 ldr         r3, [r1]
  000e4	e5823000	 str         r3, [r2]

; 372  :         WhereNode->_Next->_Prev = WhereNode->_Prev;

  000e8	e59d3000	 ldr         r3, [sp]
  000ec	e2831008	 add         r1, r3, #8
  000f0	e59d3000	 ldr         r3, [sp]
  000f4	e2833004	 add         r3, r3, #4
  000f8	e5933000	 ldr         r3, [r3]
  000fc	e2832008	 add         r2, r3, #8
  00100	e5913000	 ldr         r3, [r1]
  00104	e5823000	 str         r3, [r2]

; 373  :         
; 374  :         WhereNode->_Value.~T();
; 375  :         _Freenode(WhereNode);

  00108	e59d1000	 ldr         r1, [sp]
  0010c	e59d0028	 ldr         r0, [sp, #0x28]
  00110	eb000000	 bl          |?_Freenode@?$list@PAVPolicyAdapter@@Vallocator@ce@@@ce@@IAAXPAU_Node@12@@Z|

; 376  :         
; 377  :         --_Size;

  00114	e59d3028	 ldr         r3, [sp, #0x28]
  00118	e283300c	 add         r3, r3, #0xC
  0011c	e5933000	 ldr         r3, [r3]
  00120	e2432001	 sub         r2, r3, #1
  00124	e59d3028	 ldr         r3, [sp, #0x28]
  00128	e283300c	 add         r3, r3, #0xC
  0012c	e5832000	 str         r2, [r3]

; 378  :         
; 379  :         return Where;

  00130	e59d002c	 ldr         r0, [sp, #0x2C]
  00134	e28d1030	 add         r1, sp, #0x30
  00138	e3a02004	 mov         r2, #4
  0013c	eb000000	 bl          memcpy
  00140	e59d302c	 ldr         r3, [sp, #0x2C]
  00144	e58d300c	 str         r3, [sp, #0xC]

; 380  :     }

  00148	e59d000c	 ldr         r0, [sp, #0xC]
  0014c	e28dd020	 add         sp, sp, #0x20
  00150	e89d6000	 ldmia       sp, {sp, lr}
  00154	e12fff1e	 bx          lr
  00158		 |$LN10@erase@2|
  00158		 |$LN11@erase@2|
  00158	00000000	 DCD         |??_C@_1LO@OOGIKPKN@?$AA?$AN?$AA?6?$AA?$CK?$AA?$CK?$AA?$CK?$AA?5?$AAA?$AAS?$AAS?$AAE?$AAR?$AAT?$AAI?$AAO?$AAN?$AA?5?$AAF?$AAA?$AAI?$AAL?$AAE?$AAD?$AA?5?$AAi?$AAn?$AA?5?$AAC?$AA?3?$AA?2?$AAW?$AAI?$AAN@|
  0015c		 |$LN12@erase@2|
  0015c	00000000	 DCD         |??_C@_1LO@BAOOMFHO@?$AA?$AN?$AA?6?$AA?$CK?$AA?$CK?$AA?$CK?$AA?5?$AAA?$AAS?$AAS?$AAE?$AAR?$AAT?$AAI?$AAO?$AAN?$AA?5?$AAF?$AAA?$AAI?$AAL?$AAE?$AAD?$AA?5?$AAi?$AAn?$AA?5?$AAC?$AA?3?$AA?2?$AAW?$AAI?$AAN@|
  00160		 |$LN13@erase@2|
  00160	00000000	 DCD         |??_C@_1LA@GONEHALC@?$AA?$AN?$AA?6?$AA?$CK?$AA?$CK?$AA?$CK?$AA?5?$AAA?$AAS?$AAS?$AAE?$AAR?$AAT?$AAI?$AAO?$AAN?$AA?5?$AAF?$AAA?$AAI?$AAL?$AAE?$AAD?$AA?5?$AAi?$AAn?$AA?5?$AAC?$AA?3?$AA?2?$AAW?$AAI?$AAN@|
  00164		 |$LN14@erase@2|
  00164	00000000	 DCD         |??_C@_1LK@NOAKHIEP@?$AA?$AN?$AA?6?$AA?$CK?$AA?$CK?$AA?$CK?$AA?5?$AAA?$AAS?$AAS?$AAE?$AAR?$AAT?$AAI?$AAO?$AAN?$AA?5?$AAF?$AAA?$AAI?$AAL?$AAE?$AAD?$AA?5?$AAi?$AAn?$AA?5?$AAC?$AA?3?$AA?2?$AAW?$AAI?$AAN@|
  00168		 |$M37563|

			 ENDP  ; |?erase@?$list@PAVPolicyAdapter@@Vallocator@ce@@@ce@@QAA?AViterator@12@V312@@Z|, ce::list<PolicyAdapter *,ce::allocator>::erase

	EXPORT	|??0const_iterator@?$list@PAVPolicyAdapter@@Vallocator@ce@@@ce@@QAA@PAU_Node@12@@Z| ; ce::list<PolicyAdapter *,ce::allocator>::const_iterator::const_iterator

  00000			 AREA	 |.pdata|, PDATA
|$T37578| DCD	|$LN5@iterator|
	DCD	0x40000d04
; Function compile flags: /Odtp

  00000			 AREA	 |.text|, CODE, ARM

  00000		 |??0iterator@?$list@PAVPolicyAdapter@@Vallocator@ce@@@ce@@QAA@PAU_Node@12@@Z| PROC ; ce::list<PolicyAdapter *,ce::allocator>::iterator::iterator

; 523  :         iterator(_NodePtr _P)

  00000		 |$LN5@iterator|
  00000	e1a0c00d	 mov         r12, sp
  00004	e92d0003	 stmdb       sp!, {r0, r1}
  00008	e92d5000	 stmdb       sp!, {r12, lr}
  0000c	e24dd004	 sub         sp, sp, #4
  00010		 |$M37575|
  00010	e59d1010	 ldr         r1, [sp, #0x10]
  00014	e59d000c	 ldr         r0, [sp, #0xC]
  00018	eb000000	 bl          |??0const_iterator@?$list@PAVPolicyAdapter@@Vallocator@ce@@@ce@@QAA@PAU_Node@12@@Z|
  0001c	e59d300c	 ldr         r3, [sp, #0xC]
  00020	e58d3000	 str         r3, [sp]
  00024	e59d0000	 ldr         r0, [sp]
  00028	e28dd004	 add         sp, sp, #4
  0002c	e89d6000	 ldmia       sp, {sp, lr}
  00030	e12fff1e	 bx          lr
  00034		 |$M37576|

			 ENDP  ; |??0iterator@?$list@PAVPolicyAdapter@@Vallocator@ce@@@ce@@QAA@PAU_Node@12@@Z|, ce::list<PolicyAdapter *,ce::allocator>::iterator::iterator

	EXPORT	|??Eiterator@?$list@PAVPolicyAdapter@@Vallocator@ce@@@ce@@QAAAAV012@XZ| ; ce::list<PolicyAdapter *,ce::allocator>::iterator::operator++

  00000			 AREA	 |.pdata|, PDATA
|$T37586| DCD	|$LN5@operator|
	DCD	0x40001404
; Function compile flags: /Odtp

  00000			 AREA	 |.text|, CODE, ARM

  00000		 |??Eiterator@?$list@PAVPolicyAdapter@@Vallocator@ce@@@ce@@QAA?AV012@H@Z| PROC ; ce::list<PolicyAdapter *,ce::allocator>::iterator::operator++

; 533  :             {iterator Tmp = *this;

  00000		 |$LN5@operator|
  00000	e1a0c00d	 mov         r12, sp
  00004	e92d0007	 stmdb       sp!, {r0 - r2}
  00008	e92d5000	 stmdb       sp!, {r12, lr}
  0000c	e24dd008	 sub         sp, sp, #8
  00010		 |$M37583|
  00010	e59d1010	 ldr         r1, [sp, #0x10]
  00014	e28d0000	 add         r0, sp, #0
  00018	e3a02004	 mov         r2, #4
  0001c	eb000000	 bl          memcpy

; 534  :             ++*this;

  00020	e59d0010	 ldr         r0, [sp, #0x10]
  00024	eb000000	 bl          |??Eiterator@?$list@PAVPolicyAdapter@@Vallocator@ce@@@ce@@QAAAAV012@XZ|

; 535  :             return (Tmp); }

  00028	e59d0014	 ldr         r0, [sp, #0x14]
  0002c	e28d1000	 add         r1, sp, #0
  00030	e3a02004	 mov         r2, #4
  00034	eb000000	 bl          memcpy
  00038	e59d3014	 ldr         r3, [sp, #0x14]
  0003c	e58d3004	 str         r3, [sp, #4]
  00040	e59d0004	 ldr         r0, [sp, #4]
  00044	e28dd008	 add         sp, sp, #8
  00048	e89d6000	 ldmia       sp, {sp, lr}
  0004c	e12fff1e	 bx          lr
  00050		 |$M37584|

			 ENDP  ; |??Eiterator@?$list@PAVPolicyAdapter@@Vallocator@ce@@@ce@@QAA?AV012@H@Z|, ce::list<PolicyAdapter *,ce::allocator>::iterator::operator++

	EXPORT	|??8iterator@?$list@PAVPolicyAdapter@@Vallocator@ce@@@ce@@QBA_NABV012@@Z| ; ce::list<PolicyAdapter *,ce::allocator>::iterator::operator==

  00000			 AREA	 |.pdata|, PDATA
|$T37596| DCD	|$LN7@operator@2|
	DCD	0x40001704
; Function compile flags: /Odtp

  00000			 AREA	 |.text|, CODE, ARM

  00000		 |??9iterator@?$list@PAVPolicyAdapter@@Vallocator@ce@@@ce@@QBA_NABV012@@Z| PROC ; ce::list<PolicyAdapter *,ce::allocator>::iterator::operator!=

; 546  :             {return (!(*this == it)); }

  00000		 |$LN7@operator@2|
  00000	e1a0c00d	 mov         r12, sp
  00004	e92d0003	 stmdb       sp!, {r0, r1}
  00008	e92d5000	 stmdb       sp!, {r12, lr}
  0000c	e24dd00c	 sub         sp, sp, #0xC
  00010		 |$M37593|
  00010	e59d1018	 ldr         r1, [sp, #0x18]
  00014	e59d0014	 ldr         r0, [sp, #0x14]
  00018	eb000000	 bl          |??8iterator@?$list@PAVPolicyAdapter@@Vallocator@ce@@@ce@@QBA_NABV012@@Z|
  0001c	e5cd0004	 strb        r0, [sp, #4]
  00020	e5dd3004	 ldrb        r3, [sp, #4]
  00024	e3530000	 cmp         r3, #0
  00028	1a000002	 bne         |$LN3@operator@2|
  0002c	e3a03001	 mov         r3, #1
  00030	e58d3008	 str         r3, [sp, #8]
  00034	ea000001	 b           |$LN4@operator@2|
  00038		 |$LN3@operator@2|
  00038	e3a03000	 mov         r3, #0
  0003c	e58d3008	 str         r3, [sp, #8]
  00040		 |$LN4@operator@2|
  00040	e59d3008	 ldr         r3, [sp, #8]
  00044	e20330ff	 and         r3, r3, #0xFF
  00048	e5cd3000	 strb        r3, [sp]
  0004c	e5dd0000	 ldrb        r0, [sp]
  00050	e28dd00c	 add         sp, sp, #0xC
  00054	e89d6000	 ldmia       sp, {sp, lr}
  00058	e12fff1e	 bx          lr
  0005c		 |$M37594|

			 ENDP  ; |??9iterator@?$list@PAVPolicyAdapter@@Vallocator@ce@@@ce@@QBA_NABV012@@Z|, ce::list<PolicyAdapter *,ce::allocator>::iterator::operator!=

	EXPORT	|?deallocate@allocator@ce@@QBAXPAXI@Z|	; ce::allocator::deallocate

  00000			 AREA	 |.pdata|, PDATA
|$T37603| DCD	|$LN5@Freenode|
	DCD	0x40000903
; Function compile flags: /Odtp

  00000			 AREA	 |.text|, CODE, ARM

  00000		 |?_Freenode@?$list@PAVPolicyAdapter@@Vallocator@ce@@@ce@@IAAXPAU_Node@12@@Z| PROC ; ce::list<PolicyAdapter *,ce::allocator>::_Freenode

; 574  :         {deallocate(Node, sizeof(_Node)); }

  00000		 |$LN5@Freenode|
  00000	e1a0c00d	 mov         r12, sp
  00004	e92d0003	 stmdb       sp!, {r0, r1}
  00008	e92d5000	 stmdb       sp!, {r12, lr}
  0000c		 |$M37600|
  0000c	e3a0200c	 mov         r2, #0xC
  00010	e59d100c	 ldr         r1, [sp, #0xC]
  00014	e59d0008	 ldr         r0, [sp, #8]
  00018	eb000000	 bl          |?deallocate@allocator@ce@@QBAXPAXI@Z|
  0001c	e89d6000	 ldmia       sp, {sp, lr}
  00020	e12fff1e	 bx          lr
  00024		 |$M37601|

			 ENDP  ; |?_Freenode@?$list@PAVPolicyAdapter@@Vallocator@ce@@@ce@@IAAXPAU_Node@12@@Z|, ce::list<PolicyAdapter *,ce::allocator>::_Freenode

; File c:\wince600\public\common\oak\inc\allocator.hxx

  00000			 AREA	 |.pdata|, PDATA
|$T37610| DCD	|$LN5@deallocate|
	DCD	0x40000703
; Function compile flags: /Odtp

  00000			 AREA	 |.text|, CODE, ARM

  00000		 |?deallocate@allocator@ce@@QBAXPAXI@Z| PROC ; ce::allocator::deallocate

; 109  :         {operator delete(Ptr); }

  00000		 |$LN5@deallocate|
  00000	e1a0c00d	 mov         r12, sp
  00004	e92d0007	 stmdb       sp!, {r0 - r2}
  00008	e92d5000	 stmdb       sp!, {r12, lr}
  0000c		 |$M37607|
  0000c	e59d000c	 ldr         r0, [sp, #0xC]
  00010	eb000000	 bl          |??3@YAXPAX@Z|
  00014	e89d6000	 ldmia       sp, {sp, lr}
  00018	e12fff1e	 bx          lr
  0001c		 |$M37608|

			 ENDP  ; |?deallocate@allocator@ce@@QBAXPAXI@Z|, ce::allocator::deallocate

; File c:\wince600\public\common\oak\inc\list.hxx

  00000			 AREA	 |.pdata|, PDATA
|$T37618| DCD	|$LN5@operator@3|
	DCD	0x40001004
; Function compile flags: /Odtp

  00000			 AREA	 |.text|, CODE, ARM

  00000		 |??Eiterator@?$list@PAVPolicyAdapter@@Vallocator@ce@@@ce@@QAAAAV012@XZ| PROC ; ce::list<PolicyAdapter *,ce::allocator>::iterator::operator++

; 530  :             {_Ptr = _Ptr->_Next;

  00000		 |$LN5@operator@3|
  00000	e1a0c00d	 mov         r12, sp
  00004	e92d0001	 stmdb       sp!, {r0}
  00008	e92d5000	 stmdb       sp!, {r12, lr}
  0000c	e24dd004	 sub         sp, sp, #4
  00010		 |$M37615|
  00010	e59d300c	 ldr         r3, [sp, #0xC]
  00014	e5933000	 ldr         r3, [r3]
  00018	e2833004	 add         r3, r3, #4
  0001c	e5932000	 ldr         r2, [r3]
  00020	e59d300c	 ldr         r3, [sp, #0xC]
  00024	e5832000	 str         r2, [r3]

; 531  :             return (*this); }

  00028	e59d300c	 ldr         r3, [sp, #0xC]
  0002c	e58d3000	 str         r3, [sp]
  00030	e59d0000	 ldr         r0, [sp]
  00034	e28dd004	 add         sp, sp, #4
  00038	e89d6000	 ldmia       sp, {sp, lr}
  0003c	e12fff1e	 bx          lr
  00040		 |$M37616|

			 ENDP  ; |??Eiterator@?$list@PAVPolicyAdapter@@Vallocator@ce@@@ce@@QAAAAV012@XZ|, ce::list<PolicyAdapter *,ce::allocator>::iterator::operator++


  00000			 AREA	 |.pdata|, PDATA
|$T37628| DCD	|$LN7@operator@4|
	DCD	0x40001604
; Function compile flags: /Odtp

  00000			 AREA	 |.text|, CODE, ARM

  00000		 |??8iterator@?$list@PAVPolicyAdapter@@Vallocator@ce@@@ce@@QBA_NABV012@@Z| PROC ; ce::list<PolicyAdapter *,ce::allocator>::iterator::operator==

; 544  :             {return (_Ptr == it._Ptr); }

  00000		 |$LN7@operator@4|
  00000	e1a0c00d	 mov         r12, sp
  00004	e92d0003	 stmdb       sp!, {r0, r1}
  00008	e92d5000	 stmdb       sp!, {r12, lr}
  0000c	e24dd008	 sub         sp, sp, #8
  00010		 |$M37625|
  00010	e59d3010	 ldr         r3, [sp, #0x10]
  00014	e5932000	 ldr         r2, [r3]
  00018	e59d3014	 ldr         r3, [sp, #0x14]
  0001c	e5933000	 ldr         r3, [r3]
  00020	e1520003	 cmp         r2, r3
  00024	1a000002	 bne         |$LN3@operator@4|
  00028	e3a03001	 mov         r3, #1
  0002c	e58d3004	 str         r3, [sp, #4]
  00030	ea000001	 b           |$LN4@operator@4|
  00034		 |$LN3@operator@4|
  00034	e3a03000	 mov         r3, #0
  00038	e58d3004	 str         r3, [sp, #4]
  0003c		 |$LN4@operator@4|
  0003c	e59d3004	 ldr         r3, [sp, #4]
  00040	e20330ff	 and         r3, r3, #0xFF
  00044	e5cd3000	 strb        r3, [sp]
  00048	e5dd0000	 ldrb        r0, [sp]
  0004c	e28dd008	 add         sp, sp, #8
  00050	e89d6000	 ldmia       sp, {sp, lr}
  00054	e12fff1e	 bx          lr
  00058		 |$M37626|

			 ENDP  ; |??8iterator@?$list@PAVPolicyAdapter@@Vallocator@ce@@@ce@@QBA_NABV012@@Z|, ce::list<PolicyAdapter *,ce::allocator>::iterator::operator==


  00000			 AREA	 |.pdata|, PDATA
|$T37636| DCD	|$LN5@const_iter|
	DCD	0x40000d04
; Function compile flags: /Odtp

  00000			 AREA	 |.text|, CODE, ARM

  00000		 |??0const_iterator@?$list@PAVPolicyAdapter@@Vallocator@ce@@@ce@@QAA@PAU_Node@12@@Z| PROC ; ce::list<PolicyAdapter *,ce::allocator>::const_iterator::const_iterator

; 484  :         const_iterator(_NodePtr _P)

  00000		 |$LN5@const_iter|
  00000	e1a0c00d	 mov         r12, sp
  00004	e92d0003	 stmdb       sp!, {r0, r1}
  00008	e92d5000	 stmdb       sp!, {r12, lr}
  0000c	e24dd004	 sub         sp, sp, #4
  00010		 |$M37633|
  00010	e59d2010	 ldr         r2, [sp, #0x10]
  00014	e59d300c	 ldr         r3, [sp, #0xC]
  00018	e5832000	 str         r2, [r3]
  0001c	e59d300c	 ldr         r3, [sp, #0xC]
  00020	e58d3000	 str         r3, [sp]
  00024	e59d0000	 ldr         r0, [sp]
  00028	e28dd004	 add         sp, sp, #4
  0002c	e89d6000	 ldmia       sp, {sp, lr}
  00030	e12fff1e	 bx          lr
  00034		 |$M37634|

			 ENDP  ; |??0const_iterator@?$list@PAVPolicyAdapter@@Vallocator@ce@@@ce@@QAA@PAU_Node@12@@Z|, ce::list<PolicyAdapter *,ce::allocator>::const_iterator::const_iterator


  00000			 AREA	 |.pdata|, PDATA
|$T37644| DCD	|$LN5@MyNode|
	DCD	0x40000b04
; Function compile flags: /Odtp

  00000			 AREA	 |.text|, CODE, ARM

  00000		 |?_MyNode@const_iterator@?$list@PAVPolicyAdapter@@Vallocator@ce@@@ce@@QBAPAU_Node@23@XZ| PROC ; ce::list<PolicyAdapter *,ce::allocator>::const_iterator::_MyNode

; 511  :             {return (_Ptr); }

  00000		 |$LN5@MyNode|
  00000	e1a0c00d	 mov         r12, sp
  00004	e92d0001	 stmdb       sp!, {r0}
  00008	e92d5000	 stmdb       sp!, {r12, lr}
  0000c	e24dd004	 sub         sp, sp, #4
  00010		 |$M37641|
  00010	e59d300c	 ldr         r3, [sp, #0xC]
  00014	e5933000	 ldr         r3, [r3]
  00018	e58d3000	 str         r3, [sp]
  0001c	e59d0000	 ldr         r0, [sp]
  00020	e28dd004	 add         sp, sp, #4
  00024	e89d6000	 ldmia       sp, {sp, lr}
  00028	e12fff1e	 bx          lr
  0002c		 |$M37642|

			 ENDP  ; |?_MyNode@const_iterator@?$list@PAVPolicyAdapter@@Vallocator@ce@@@ce@@QBAPAU_Node@23@XZ|, ce::list<PolicyAdapter *,ce::allocator>::const_iterator::_MyNode

	EXPORT	|??0lock_factory@?$singleton@V?$free_list@$0GE@Vallocator@ce@@@ce@@$03V?$static_allocator@V?$free_list@$0GE@Vallocator@ce@@@ce@@$03@2@@ce@@QAA@XZ| ; ce::singleton<ce::free_list<100,ce::allocator>,4,ce::static_allocator<ce::free_list<100,ce::allocator>,4> >::lock_factory::lock_factory
; File c:\wince600\public\common\oak\inc\singleton.hxx

  00000			 AREA	 |.pdata|, PDATA
|$T37651| DCD	|$LN5@factory|
	DCD	0x40000601
; Function compile flags: /Odtp

  00000			 AREA	 |.text$yc|, CODE, ARM

  00000		 |??__E?_factory@?$singleton@V?$free_list@$0GE@Vallocator@ce@@@ce@@$03V?$static_allocator@V?$free_list@$0GE@Vallocator@ce@@@ce@@$03@2@@ce@@1Ulock_factory@12@A@@YAXXZ| PROC ; `dynamic initializer for 'ce::singleton<ce::free_list<100,ce::allocator>,4,ce::static_allocator<ce::free_list<100,ce::allocator>,4> >::_factory''

; 390  :     {

  00000		 |$LN5@factory|
  00000	e52de004	 str         lr, [sp, #-4]!
  00004		 |$M37648|
  00004	e59f0008	 ldr         r0, [pc, #8]
  00008	eb000000	 bl          |??0lock_factory@?$singleton@V?$free_list@$0GE@Vallocator@ce@@@ce@@$03V?$static_allocator@V?$free_list@$0GE@Vallocator@ce@@@ce@@$03@2@@ce@@QAA@XZ|
  0000c	e49de004	 ldr         lr, [sp], #4
  00010	e12fff1e	 bx          lr
  00014		 |$LN6@factory|
  00014		 |$LN7@factory|
  00014	00000000	 DCD         |?_factory@?$singleton@V?$free_list@$0GE@Vallocator@ce@@@ce@@$03V?$static_allocator@V?$free_list@$0GE@Vallocator@ce@@@ce@@$03@2@@ce@@1Ulock_factory@12@A|
  00018		 |$M37649|

			 ENDP  ; |??__E?_factory@?$singleton@V?$free_list@$0GE@Vallocator@ce@@@ce@@$03V?$static_allocator@V?$free_list@$0GE@Vallocator@ce@@@ce@@$03@2@@ce@@1Ulock_factory@12@A@@YAXXZ|, `dynamic initializer for 'ce::singleton<ce::free_list<100,ce::allocator>,4,ce::static_allocator<ce::free_list<100,ce::allocator>,4> >::_factory''

	EXPORT	|?get_lock@?$singleton@V?$free_list@$0GE@Vallocator@ce@@@ce@@$03V?$static_allocator@V?$free_list@$0GE@Vallocator@ce@@@ce@@$03@2@@ce@@KAAAVcritical_section@2@XZ| ; ce::singleton<ce::free_list<100,ce::allocator>,4,ce::static_allocator<ce::free_list<100,ce::allocator>,4> >::get_lock

  00000			 AREA	 |.pdata|, PDATA
|$T37661| DCD	|$LN5@lock_facto|
	DCD	0x40000b04
; Function compile flags: /Odtp

  00000			 AREA	 |.text|, CODE, ARM

  00000		 |??0lock_factory@?$singleton@V?$free_list@$0GE@Vallocator@ce@@@ce@@$03V?$static_allocator@V?$free_list@$0GE@Vallocator@ce@@@ce@@$03@2@@ce@@QAA@XZ| PROC ; ce::singleton<ce::free_list<100,ce::allocator>,4,ce::static_allocator<ce::free_list<100,ce::allocator>,4> >::lock_factory::lock_factory

; 339  :         lock_factory()

  00000		 |$LN5@lock_facto|
  00000	e1a0c00d	 mov         r12, sp
  00004	e92d0001	 stmdb       sp!, {r0}
  00008	e92d5000	 stmdb       sp!, {r12, lr}
  0000c	e24dd004	 sub         sp, sp, #4
  00010		 |$M37658|
  00010	eb000000	 bl          |?get_lock@?$singleton@V?$free_list@$0GE@Vallocator@ce@@@ce@@$03V?$static_allocator@V?$free_list@$0GE@Vallocator@ce@@@ce@@$03@2@@ce@@KAAAVcritical_section@2@XZ|

; 340  :             {get_lock(); }

  00014	e59d300c	 ldr         r3, [sp, #0xC]
  00018	e58d3000	 str         r3, [sp]
  0001c	e59d0000	 ldr         r0, [sp]
  00020	e28dd004	 add         sp, sp, #4
  00024	e89d6000	 ldmia       sp, {sp, lr}
  00028	e12fff1e	 bx          lr
  0002c		 |$M37659|

			 ENDP  ; |??0lock_factory@?$singleton@V?$free_list@$0GE@Vallocator@ce@@@ce@@$03V?$static_allocator@V?$free_list@$0GE@Vallocator@ce@@@ce@@$03@2@@ce@@QAA@XZ|, ce::singleton<ce::free_list<100,ce::allocator>,4,ce::static_allocator<ce::free_list<100,ce::allocator>,4> >::lock_factory::lock_factory

	EXPORT	|??__Fcs@?1??get_lock@?$singleton@V?$free_list@$0GE@Vallocator@ce@@@ce@@$03V?$static_allocator@V?$free_list@$0GE@Vallocator@ce@@@ce@@$03@2@@ce@@KAAAVcritical_section@2@XZ@YAXXZ| ; `ce::singleton<ce::free_list<100,ce::allocator>,4,ce::static_allocator<ce::free_list<100,ce::allocator>,4> >::get_lock'::`2'::`dynamic atexit destructor for 'cs''
	EXPORT	|??0critical_section@ce@@QAA@XZ|	; ce::critical_section::critical_section
	EXPORT	|?cs@?1??get_lock@?$singleton@V?$free_list@$0GE@Vallocator@ce@@@ce@@$03V?$static_allocator@V?$free_list@$0GE@Vallocator@ce@@@ce@@$03@2@@ce@@KAAAVcritical_section@3@XZ@4V43@A| [ DATA ] ; `ce::singleton<ce::free_list<100,ce::allocator>,4,ce::static_allocator<ce::free_list<100,ce::allocator>,4> >::get_lock'::`2'::cs
	EXPORT	|??_B?1??get_lock@?$singleton@V?$free_list@$0GE@Vallocator@ce@@@ce@@$03V?$static_allocator@V?$free_list@$0GE@Vallocator@ce@@@ce@@$03@2@@ce@@KAAAVcritical_section@2@XZ@51| [ DATA ] ; `ce::singleton<ce::free_list<100,ce::allocator>,4,ce::static_allocator<ce::free_list<100,ce::allocator>,4> >::get_lock'::`2'::`local static guard'
	IMPORT	|atexit|

  00000			 AREA	 |.bss|, NOINIT
|?cs@?1??get_lock@?$singleton@V?$free_list@$0GE@Vallocator@ce@@@ce@@$03V?$static_allocator@V?$free_list@$0GE@Vallocator@ce@@@ce@@$03@2@@ce@@KAAAVcritical_section@3@XZ@4V43@A| % 0x14 ; `ce::singleton<ce::free_list<100,ce::allocator>,4,ce::static_allocator<ce::free_list<100,ce::allocator>,4> >::get_lock'::`2'::cs

  00000			 AREA	 |.bss|, NOINIT
|??_B?1??get_lock@?$singleton@V?$free_list@$0GE@Vallocator@ce@@@ce@@$03V?$static_allocator@V?$free_list@$0GE@Vallocator@ce@@@ce@@$03@2@@ce@@KAAAVcritical_section@2@XZ@51| % 0x4 ; `ce::singleton<ce::free_list<100,ce::allocator>,4,ce::static_allocator<ce::free_list<100,ce::allocator>,4> >::get_lock'::`2'::`local static guard'

  00000			 AREA	 |.pdata|, PDATA
|$T37669| DCD	|$LN6@get_lock|
	DCD	0x40001b02
; Function compile flags: /Odtp

  00000			 AREA	 |.text|, CODE, ARM

  00000		 |?get_lock@?$singleton@V?$free_list@$0GE@Vallocator@ce@@@ce@@$03V?$static_allocator@V?$free_list@$0GE@Vallocator@ce@@@ce@@$03@2@@ce@@KAAAVcritical_section@2@XZ| PROC ; ce::singleton<ce::free_list<100,ce::allocator>,4,ce::static_allocator<ce::free_list<100,ce::allocator>,4> >::get_lock

; 320  :     {

  00000		 |$LN6@get_lock|
  00000	e52de004	 str         lr, [sp, #-4]!
  00004	e24dd008	 sub         sp, sp, #8
  00008		 |$M37666|

; 321  :         static critical_section cs;

  00008	e59f3058	 ldr         r3, [pc, #0x58]
  0000c	e5933000	 ldr         r3, [r3]
  00010	e3130001	 tst         r3, #1
  00014	1a000008	 bne         |$LN1@get_lock|
  00018	e59f3048	 ldr         r3, [pc, #0x48]
  0001c	e5933000	 ldr         r3, [r3]
  00020	e3832001	 orr         r2, r3, #1
  00024	e59f303c	 ldr         r3, [pc, #0x3C]
  00028	e5832000	 str         r2, [r3]
  0002c	e59f0028	 ldr         r0, [pc, #0x28]
  00030	eb000000	 bl          |??0critical_section@ce@@QAA@XZ|
  00034	e59f0028	 ldr         r0, [pc, #0x28]
  00038	eb000000	 bl          atexit
  0003c		 |$LN1@get_lock|

; 322  :         
; 323  :         //
; 324  :         // This statement forces compiler to instantiate _factory member
; 325  :         // thus assuring that lock_factory ctor is called. 
; 326  :         //
; 327  :         lock_factory* volatile p = &_factory;

  0003c	e59f301c	 ldr         r3, [pc, #0x1C]
  00040	e58d3000	 str         r3, [sp]

; 328  : 
; 329  :         return cs;

  00044	e59f3010	 ldr         r3, [pc, #0x10]
  00048	e58d3004	 str         r3, [sp, #4]

; 330  :     }

  0004c	e59d0004	 ldr         r0, [sp, #4]
  00050	e28dd008	 add         sp, sp, #8
  00054	e49de004	 ldr         lr, [sp], #4
  00058	e12fff1e	 bx          lr
  0005c		 |$LN7@get_lock|
  0005c		 |$LN8@get_lock|
  0005c	00000000	 DCD         |?cs@?1??get_lock@?$singleton@V?$free_list@$0GE@Vallocator@ce@@@ce@@$03V?$static_allocator@V?$free_list@$0GE@Vallocator@ce@@@ce@@$03@2@@ce@@KAAAVcritical_section@3@XZ@4V43@A|
  00060		 |$LN9@get_lock|
  00060	00000000	 DCD         |?_factory@?$singleton@V?$free_list@$0GE@Vallocator@ce@@@ce@@$03V?$static_allocator@V?$free_list@$0GE@Vallocator@ce@@@ce@@$03@2@@ce@@1Ulock_factory@12@A|
  00064		 |$LN10@get_lock|
  00064	00000000	 DCD         |??__Fcs@?1??get_lock@?$singleton@V?$free_list@$0GE@Vallocator@ce@@@ce@@$03V?$static_allocator@V?$free_list@$0GE@Vallocator@ce@@@ce@@$03@2@@ce@@KAAAVcritical_section@2@XZ@YAXXZ|
  00068		 |$LN11@get_lock|
  00068	00000000	 DCD         |??_B?1??get_lock@?$singleton@V?$free_list@$0GE@Vallocator@ce@@@ce@@$03V?$static_allocator@V?$free_list@$0GE@Vallocator@ce@@@ce@@$03@2@@ce@@KAAAVcritical_section@2@XZ@51|
  0006c		 |$M37667|

			 ENDP  ; |?get_lock@?$singleton@V?$free_list@$0GE@Vallocator@ce@@@ce@@$03V?$static_allocator@V?$free_list@$0GE@Vallocator@ce@@@ce@@$03@2@@ce@@KAAAVcritical_section@2@XZ|, ce::singleton<ce::free_list<100,ce::allocator>,4,ce::static_allocator<ce::free_list<100,ce::allocator>,4> >::get_lock

	IMPORT	|InitializeCriticalSection|
; File c:\wince600\public\common\oak\inc\sync.hxx

  00000			 AREA	 |.pdata|, PDATA
|$T37682| DCD	|$LN5@critical_s|
	DCD	0x40000c04
; Function compile flags: /Odtp

  00000			 AREA	 |.text|, CODE, ARM

  00000		 |??0critical_section@ce@@QAA@XZ| PROC	; ce::critical_section::critical_section

; 125  :     critical_section()

  00000		 |$LN5@critical_s|
  00000	e1a0c00d	 mov         r12, sp
  00004	e92d0001	 stmdb       sp!, {r0}
  00008	e92d5000	 stmdb       sp!, {r12, lr}
  0000c	e24dd004	 sub         sp, sp, #4
  00010		 |$M37679|
  00010	e59d000c	 ldr         r0, [sp, #0xC]
  00014	eb000000	 bl          InitializeCriticalSection
  00018	e59d300c	 ldr         r3, [sp, #0xC]
  0001c	e58d3000	 str         r3, [sp]
  00020	e59d0000	 ldr         r0, [sp]
  00024	e28dd004	 add         sp, sp, #4
  00028	e89d6000	 ldmia       sp, {sp, lr}
  0002c	e12fff1e	 bx          lr
  00030		 |$M37680|

			 ENDP  ; |??0critical_section@ce@@QAA@XZ|, ce::critical_section::critical_section

	EXPORT	|??1critical_section@ce@@QAA@XZ|	; ce::critical_section::~critical_section

  00000			 AREA	 |.pdata|, PDATA
|$T37689| DCD	|$LN5@dynamic|
	DCD	0x40000601
; Function compile flags: /Odtp

  00000			 AREA	 |.text$yd|, CODE, ARM

  00000		 |??__Fcs@?1??get_lock@?$singleton@V?$free_list@$0GE@Vallocator@ce@@@ce@@$03V?$static_allocator@V?$free_list@$0GE@Vallocator@ce@@@ce@@$03@2@@ce@@KAAAVcritical_section@2@XZ@YAXXZ| PROC ; `ce::singleton<ce::free_list<100,ce::allocator>,4,ce::static_allocator<ce::free_list<100,ce::allocator>,4> >::get_lock'::`2'::`dynamic atexit destructor for 'cs''
  00000		 |$LN5@dynamic|
  00000	e52de004	 str         lr, [sp, #-4]!
  00004		 |$M37686|
  00004	e59f0008	 ldr         r0, [pc, #8]
  00008	eb000000	 bl          |??1critical_section@ce@@QAA@XZ|
  0000c	e49de004	 ldr         lr, [sp], #4
  00010	e12fff1e	 bx          lr
  00014		 |$LN6@dynamic|
  00014		 |$LN7@dynamic|
  00014	00000000	 DCD         |?cs@?1??get_lock@?$singleton@V?$free_list@$0GE@Vallocator@ce@@@ce@@$03V?$static_allocator@V?$free_list@$0GE@Vallocator@ce@@@ce@@$03@2@@ce@@KAAAVcritical_section@3@XZ@4V43@A|
  00018		 |$M37687|

			 ENDP  ; |??__Fcs@?1??get_lock@?$singleton@V?$free_list@$0GE@Vallocator@ce@@@ce@@$03V?$static_allocator@V?$free_list@$0GE@Vallocator@ce@@@ce@@$03@2@@ce@@KAAAVcritical_section@2@XZ@YAXXZ|, `ce::singleton<ce::free_list<100,ce::allocator>,4,ce::static_allocator<ce::free_list<100,ce::allocator>,4> >::get_lock'::`2'::`dynamic atexit destructor for 'cs''

	IMPORT	|DeleteCriticalSection|

  00000			 AREA	 |.pdata|, PDATA
|$T37698| DCD	|$LN5@critical_s@2|
	DCD	0x40000703
; Function compile flags: /Odtp

  00000			 AREA	 |.text|, CODE, ARM

  00000		 |??1critical_section@ce@@QAA@XZ| PROC	; ce::critical_section::~critical_section

; 129  :         {DeleteCriticalSection(this); }

  00000		 |$LN5@critical_s@2|
  00000	e1a0c00d	 mov         r12, sp
  00004	e92d0001	 stmdb       sp!, {r0}
  00008	e92d5000	 stmdb       sp!, {r12, lr}
  0000c		 |$M37695|
  0000c	e59d0008	 ldr         r0, [sp, #8]
  00010	eb000000	 bl          DeleteCriticalSection
  00014	e89d6000	 ldmia       sp, {sp, lr}
  00018	e12fff1e	 bx          lr
  0001c		 |$M37696|

			 ENDP  ; |??1critical_section@ce@@QAA@XZ|, ce::critical_section::~critical_section

	EXPORT	|?_factory@?$singleton@V?$free_list@$0GE@Vallocator@ce@@@ce@@$03V?$static_allocator@V?$free_list@$0GE@Vallocator@ce@@@ce@@$03@2@@ce@@1Ulock_factory@12@A| [ DATA ] ; ce::singleton<ce::free_list<100,ce::allocator>,4,ce::static_allocator<ce::free_list<100,ce::allocator>,4> >::_factory

  00000			 AREA	 |.bss|, NOINIT
|?_factory@?$singleton@V?$free_list@$0GE@Vallocator@ce@@@ce@@$03V?$static_allocator@V?$free_list@$0GE@Vallocator@ce@@@ce@@$03@2@@ce@@1Ulock_factory@12@A| % 0x1 ; ce::singleton<ce::free_list<100,ce::allocator>,4,ce::static_allocator<ce::free_list<100,ce::allocator>,4> >::_factory

  00000			 AREA	 |.CRT$XCU|, DATA
|?_factory$initializer$@?$singleton@V?$free_list@$0GE@Vallocator@ce@@@ce@@$03V?$static_allocator@V?$free_list@$0GE@Vallocator@ce@@@ce@@$03@2@@ce@@1P6AXXZA| DCD |??__E?_factory@?$singleton@V?$free_list@$0GE@Vallocator@ce@@@ce@@$03V?$static_allocator@V?$free_list@$0GE@Vallocator@ce@@@ce@@$03@2@@ce@@1Ulock_factory@12@A@@YAXXZ| ; ce::singleton<ce::free_list<100,ce::allocator>,4,ce::static_allocator<ce::free_list<100,ce::allocator>,4> >::_factory$initializer$
	END
