; Listing generated by Microsoft (R) Optimizing Compiler Version 14.01.60511.01 

	TTL	C:\WINCE600\PLATFORM\COMMON\SRC\SOC\COMMON_TI_V1\COMMON_TI\PM\POWERPOLICYROOT\policyroot.cpp
	CODE32

  00000			 AREA	 |.drectve|, DRECTVE
	DCB	"/include:?_factory@?$$singleton@V?$$free_list@$$0GE@Vall"
	DCB	"ocator@ce@@@ce@@$$03V?$$static_allocator@V?$$free_list@$$"
	DCB	"0GE@Vallocator@ce@@@ce@@$$03@2@@ce@@1Ulock_factory@12@A "
	DCB	"-defaultlib:LIBCMT "
	DCB	"-defaultlib:OLDNAMES "

	EXPORT	|??_C@_1DA@CCBBGKBL@?$AAP?$AAo?$AAl?$AAi?$AAc?$AAy?$AAR?$AAo?$AAo?$AAt?$AA?3?$AA?3?$AA?9?$AAI?$AAn?$AAi?$AAt?$AA?$CI?$AA?$CF?$AAd?$AA?$CJ?$AA?$AN?$AA?6?$AA?$AA@| [ DATA ] ; `string'
	EXPORT	|??_C@_1EE@EOODDAOE@?$AAP?$AAo?$AAl?$AAi?$AAc?$AAy?$AAR?$AAo?$AAo?$AAt?$AA?3?$AA?3?$AA?$CL?$AAI?$AAn?$AAi?$AAt?$AA?$CI?$AA?8?$AA?$CF?$AAs?$AA?8?$AA?0?$AA?5?$AA0?$AAx?$AA?$CF?$AA0?$AA8?$AAx?$AA?$CJ?$AA?$AN@| [ DATA ] ; `string'
	EXPORT	|?Initialize@PolicyRoot@@QAAHPBG@Z|	; PolicyRoot::Initialize
	IMPORT	|wcscpy|
	IMPORT	|?Initialize@PolicyContainer@@QAAHPBG@Z| ; PolicyContainer::Initialize
	IMPORT	|NKDbgPrintfW|
	IMPORT	|dpCurSettings|

  00000			 AREA	 |.pdata|, PDATA
|$T36414| DCD	|$LN9@Initialize|
	DCD	0x40002d04
; File c:\wince600\platform\common\src\soc\common_ti_v1\common_ti\pm\powerpolicyroot\policyroot.cpp

  00000			 AREA	 |.rdata|, DATA, READONLY
|??_C@_1DA@CCBBGKBL@?$AAP?$AAo?$AAl?$AAi?$AAc?$AAy?$AAR?$AAo?$AAo?$AAt?$AA?3?$AA?3?$AA?9?$AAI?$AAn?$AAi?$AAt?$AA?$CI?$AA?$CF?$AAd?$AA?$CJ?$AA?$AN?$AA?6?$AA?$AA@| DCB "P"
	DCB	0x0, "o", 0x0, "l", 0x0, "i", 0x0, "c", 0x0, "y", 0x0, "R"
	DCB	0x0, "o", 0x0, "o", 0x0, "t", 0x0, ":", 0x0, ":", 0x0, "-"
	DCB	0x0, "I", 0x0, "n", 0x0, "i", 0x0, "t", 0x0, "(", 0x0, "%"
	DCB	0x0, "d", 0x0, ")", 0x0, 0xd, 0x0, 0xa, 0x0, 0x0, 0x0 ; `string'

  00000			 AREA	 |.rdata|, DATA, READONLY
|??_C@_1EE@EOODDAOE@?$AAP?$AAo?$AAl?$AAi?$AAc?$AAy?$AAR?$AAo?$AAo?$AAt?$AA?3?$AA?3?$AA?$CL?$AAI?$AAn?$AAi?$AAt?$AA?$CI?$AA?8?$AA?$CF?$AAs?$AA?8?$AA?0?$AA?5?$AA0?$AAx?$AA?$CF?$AA0?$AA8?$AAx?$AA?$CJ?$AA?$AN@| DCB "P"
	DCB	0x0, "o", 0x0, "l", 0x0, "i", 0x0, "c", 0x0, "y", 0x0, "R"
	DCB	0x0, "o", 0x0, "o", 0x0, "t", 0x0, ":", 0x0, ":", 0x0, "+"
	DCB	0x0, "I", 0x0, "n", 0x0, "i", 0x0, "t", 0x0, "(", 0x0, "'"
	DCB	0x0, "%", 0x0, "s", 0x0, "'", 0x0, ",", 0x0, " ", 0x0, "0"
	DCB	0x0, "x", 0x0, "%", 0x0, "0", 0x0, "8", 0x0, "x", 0x0, ")"
	DCB	0x0, 0xd, 0x0, 0xa, 0x0, 0x0, 0x0	; `string'
; Function compile flags: /Odtp

  00000			 AREA	 |.text|, CODE, ARM

  00000		 |?Initialize@PolicyRoot@@QAAHPBG@Z| PROC ; PolicyRoot::Initialize

; 38   : {

  00000		 |$LN9@Initialize|
  00000	e1a0c00d	 mov         r12, sp
  00004	e92d0003	 stmdb       sp!, {r0, r1}
  00008	e92d5000	 stmdb       sp!, {r12, lr}
  0000c	e24dd00c	 sub         sp, sp, #0xC
  00010		 |$M36411|

; 39   :     DEBUGMSG(ZONE_FUNCTION, (L"PolicyRoot::"
; 40   :         L"+Init('%s', 0x%08x)\r\n", context, this
; 41   :         ));

  00010	e59f3094	 ldr         r3, [pc, #0x94]
  00014	e5933440	 ldr         r3, [r3, #0x440]
  00018	e3130004	 tst         r3, #4
  0001c	0a000006	 beq         |$LN3@Initialize|
  00020	e59d2014	 ldr         r2, [sp, #0x14]
  00024	e59d1018	 ldr         r1, [sp, #0x18]
  00028	e59f0080	 ldr         r0, [pc, #0x80]
  0002c	eb000000	 bl          NKDbgPrintfW
  00030	e3a03001	 mov         r3, #1
  00034	e58d3004	 str         r3, [sp, #4]
  00038	ea000001	 b           |$LN4@Initialize|
  0003c		 |$LN3@Initialize|
  0003c	e3a03000	 mov         r3, #0
  00040	e58d3004	 str         r3, [sp, #4]
  00044		 |$LN4@Initialize|

; 42   :     
; 43   :     m_PolicyContainer.Initialize(context);

  00044	e59d1018	 ldr         r1, [sp, #0x18]
  00048	e59d3014	 ldr         r3, [sp, #0x14]
  0004c	e2830f82	 add         r0, r3, #0x82, 30
  00050	eb000000	 bl          |?Initialize@PolicyContainer@@QAAHPBG@Z|

; 44   : 
; 45   :     _tcscpy(m_szPolicyKey, context);

  00054	e59d1018	 ldr         r1, [sp, #0x18]
  00058	e59d0014	 ldr         r0, [sp, #0x14]
  0005c	eb000000	 bl          wcscpy

; 46   :     
; 47   :     DEBUGMSG(ZONE_FUNCTION, (L"PolicyRoot::"
; 48   :         L"-Init(%d)\r\n", TRUE
; 49   :         ));

  00060	e59f3044	 ldr         r3, [pc, #0x44]
  00064	e5933440	 ldr         r3, [r3, #0x440]
  00068	e3130004	 tst         r3, #4
  0006c	0a000005	 beq         |$LN5@Initialize|
  00070	e3a01001	 mov         r1, #1
  00074	e59f002c	 ldr         r0, [pc, #0x2C]
  00078	eb000000	 bl          NKDbgPrintfW
  0007c	e3a03001	 mov         r3, #1
  00080	e58d3008	 str         r3, [sp, #8]
  00084	ea000001	 b           |$LN6@Initialize|
  00088		 |$LN5@Initialize|
  00088	e3a03000	 mov         r3, #0
  0008c	e58d3008	 str         r3, [sp, #8]
  00090		 |$LN6@Initialize|

; 50   :     return TRUE;

  00090	e3a03001	 mov         r3, #1
  00094	e58d3000	 str         r3, [sp]

; 51   : }

  00098	e59d0000	 ldr         r0, [sp]
  0009c	e28dd00c	 add         sp, sp, #0xC
  000a0	e89d6000	 ldmia       sp, {sp, lr}
  000a4	e12fff1e	 bx          lr
  000a8		 |$LN10@Initialize|
  000a8		 |$LN11@Initialize|
  000a8	00000000	 DCD         |??_C@_1DA@CCBBGKBL@?$AAP?$AAo?$AAl?$AAi?$AAc?$AAy?$AAR?$AAo?$AAo?$AAt?$AA?3?$AA?3?$AA?9?$AAI?$AAn?$AAi?$AAt?$AA?$CI?$AA?$CF?$AAd?$AA?$CJ?$AA?$AN?$AA?6?$AA?$AA@|
  000ac		 |$LN12@Initialize|
  000ac	00000000	 DCD         |dpCurSettings|
  000b0		 |$LN13@Initialize|
  000b0	00000000	 DCD         |??_C@_1EE@EOODDAOE@?$AAP?$AAo?$AAl?$AAi?$AAc?$AAy?$AAR?$AAo?$AAo?$AAt?$AA?3?$AA?3?$AA?$CL?$AAI?$AAn?$AAi?$AAt?$AA?$CI?$AA?8?$AA?$CF?$AAs?$AA?8?$AA?0?$AA?5?$AA0?$AAx?$AA?$CF?$AA0?$AA8?$AAx?$AA?$CJ?$AA?$AN@|
  000b4		 |$M36412|

			 ENDP  ; |?Initialize@PolicyRoot@@QAAHPBG@Z|, PolicyRoot::Initialize

	EXPORT	|?AddDeviceChangeObserver@PolicyRoot@@QAAXPAVPolicyAdapter@@@Z| ; PolicyRoot::AddDeviceChangeObserver

  00008			 AREA	 |.pdata|, PDATA
|$T36423| DCD	|$LN9@AddDeviceC|
	DCD	0x40002b04
; Function compile flags: /Odtp

  000b4			 AREA	 |.text|, CODE, ARM

  000b4		 |?AddDeviceChangeObserver@PolicyRoot@@QAAXPAVPolicyAdapter@@@Z| PROC ; PolicyRoot::AddDeviceChangeObserver

; 62   : {

  000b4		 |$LN9@AddDeviceC|
  000b4	e1a0c00d	 mov         r12, sp
  000b8	e92d0003	 stmdb       sp!, {r0, r1}
  000bc	e92d5000	 stmdb       sp!, {r12, lr}
  000c0	e24dd004	 sub         sp, sp, #4
  000c4		 |$M36420|

; 63   :     PolicyAdapter *pPolicyCurrent;
; 64   :     
; 65   :     // initialize policy
; 66   :     pPolicy->m_pNextDeviceChangeObserver = NULL;

  000c4	e59d3010	 ldr         r3, [sp, #0x10]
  000c8	e2833c06	 add         r3, r3, #6, 24
  000cc	e2832048	 add         r2, r3, #0x48
  000d0	e3a03000	 mov         r3, #0
  000d4	e5823000	 str         r3, [r2]

; 67   : 
; 68   :     // insert into list
; 69   :     if (m_pDeviceChangeList == NULL)

  000d8	e59d300c	 ldr         r3, [sp, #0xC]
  000dc	e2833f87	 add         r3, r3, #0x87, 30
  000e0	e5933000	 ldr         r3, [r3]
  000e4	e3530000	 cmp         r3, #0
  000e8	1a000004	 bne         |$LN4@AddDeviceC|

; 70   :         {
; 71   :         m_pDeviceChangeList = pPolicy;

  000ec	e59d300c	 ldr         r3, [sp, #0xC]
  000f0	e2832f87	 add         r2, r3, #0x87, 30
  000f4	e59d3010	 ldr         r3, [sp, #0x10]
  000f8	e5823000	 str         r3, [r2]

; 72   :         }
; 73   :     else

  000fc	ea000014	 b           |$LN3@AddDeviceC|
  00100		 |$LN4@AddDeviceC|

; 74   :         {
; 75   :         // go to end of list
; 76   :         pPolicyCurrent = m_pDeviceChangeList;

  00100	e59d300c	 ldr         r3, [sp, #0xC]
  00104	e2833f87	 add         r3, r3, #0x87, 30
  00108	e5933000	 ldr         r3, [r3]
  0010c	e58d3000	 str         r3, [sp]
  00110		 |$LN2@AddDeviceC|

; 77   :         while (pPolicyCurrent->m_pNextDeviceChangeObserver != NULL)

  00110	e59d3000	 ldr         r3, [sp]
  00114	e2833c06	 add         r3, r3, #6, 24
  00118	e2833048	 add         r3, r3, #0x48
  0011c	e5933000	 ldr         r3, [r3]
  00120	e3530000	 cmp         r3, #0
  00124	0a000005	 beq         |$LN1@AddDeviceC|

; 78   :             {
; 79   :             pPolicyCurrent = pPolicyCurrent->m_pNextDeviceChangeObserver;

  00128	e59d3000	 ldr         r3, [sp]
  0012c	e2833c06	 add         r3, r3, #6, 24
  00130	e2833048	 add         r3, r3, #0x48
  00134	e5933000	 ldr         r3, [r3]
  00138	e58d3000	 str         r3, [sp]

; 80   :             }

  0013c	eafffff3	 b           |$LN2@AddDeviceC|
  00140		 |$LN1@AddDeviceC|

; 81   : 
; 82   :         // append to list
; 83   :         pPolicyCurrent->m_pNextDeviceChangeObserver = pPolicy;

  00140	e59d3000	 ldr         r3, [sp]
  00144	e2833c06	 add         r3, r3, #6, 24
  00148	e2832048	 add         r2, r3, #0x48
  0014c	e59d3010	 ldr         r3, [sp, #0x10]
  00150	e5823000	 str         r3, [r2]
  00154		 |$LN3@AddDeviceC|

; 84   :         }
; 85   : }

  00154	e28dd004	 add         sp, sp, #4
  00158	e89d6000	 ldmia       sp, {sp, lr}
  0015c	e12fff1e	 bx          lr
  00160		 |$M36421|

			 ENDP  ; |?AddDeviceChangeObserver@PolicyRoot@@QAAXPAVPolicyAdapter@@@Z|, PolicyRoot::AddDeviceChangeObserver

	EXPORT	|?AddSystemChangeObserver@PolicyRoot@@QAAXPAVPolicyAdapter@@@Z| ; PolicyRoot::AddSystemChangeObserver

  00010			 AREA	 |.pdata|, PDATA
|$T36428| DCD	|$LN9@AddSystemC|
	DCD	0x40002b04
; Function compile flags: /Odtp

  00160			 AREA	 |.text|, CODE, ARM

  00160		 |?AddSystemChangeObserver@PolicyRoot@@QAAXPAVPolicyAdapter@@@Z| PROC ; PolicyRoot::AddSystemChangeObserver

; 96   : {

  00160		 |$LN9@AddSystemC|
  00160	e1a0c00d	 mov         r12, sp
  00164	e92d0003	 stmdb       sp!, {r0, r1}
  00168	e92d5000	 stmdb       sp!, {r12, lr}
  0016c	e24dd004	 sub         sp, sp, #4
  00170		 |$M36425|

; 97   :     PolicyAdapter *pPolicyCurrent;
; 98   :     
; 99   :     // initialize policy
; 100  :     pPolicy->m_pNextSystemChangeObserver = NULL;

  00170	e59d3010	 ldr         r3, [sp, #0x10]
  00174	e2833c06	 add         r3, r3, #6, 24
  00178	e283204c	 add         r2, r3, #0x4C
  0017c	e3a03000	 mov         r3, #0
  00180	e5823000	 str         r3, [r2]

; 101  : 
; 102  :     // insert into list
; 103  :     if (m_pSystemChangeList == NULL)

  00184	e59d300c	 ldr         r3, [sp, #0xC]
  00188	e2833f86	 add         r3, r3, #0x86, 30
  0018c	e5933000	 ldr         r3, [r3]
  00190	e3530000	 cmp         r3, #0
  00194	1a000004	 bne         |$LN4@AddSystemC|

; 104  :         {
; 105  :         m_pSystemChangeList = pPolicy;

  00198	e59d300c	 ldr         r3, [sp, #0xC]
  0019c	e2832f86	 add         r2, r3, #0x86, 30
  001a0	e59d3010	 ldr         r3, [sp, #0x10]
  001a4	e5823000	 str         r3, [r2]

; 106  :         }
; 107  :     else

  001a8	ea000014	 b           |$LN3@AddSystemC|
  001ac		 |$LN4@AddSystemC|

; 108  :         {
; 109  :         // go to end of list
; 110  :         pPolicyCurrent = m_pSystemChangeList;

  001ac	e59d300c	 ldr         r3, [sp, #0xC]
  001b0	e2833f86	 add         r3, r3, #0x86, 30
  001b4	e5933000	 ldr         r3, [r3]
  001b8	e58d3000	 str         r3, [sp]
  001bc		 |$LN2@AddSystemC|

; 111  :         while (pPolicyCurrent->m_pNextSystemChangeObserver != NULL)

  001bc	e59d3000	 ldr         r3, [sp]
  001c0	e2833c06	 add         r3, r3, #6, 24
  001c4	e283304c	 add         r3, r3, #0x4C
  001c8	e5933000	 ldr         r3, [r3]
  001cc	e3530000	 cmp         r3, #0
  001d0	0a000005	 beq         |$LN1@AddSystemC|

; 112  :             {
; 113  :             pPolicyCurrent = pPolicyCurrent->m_pNextSystemChangeObserver;

  001d4	e59d3000	 ldr         r3, [sp]
  001d8	e2833c06	 add         r3, r3, #6, 24
  001dc	e283304c	 add         r3, r3, #0x4C
  001e0	e5933000	 ldr         r3, [r3]
  001e4	e58d3000	 str         r3, [sp]

; 114  :             }

  001e8	eafffff3	 b           |$LN2@AddSystemC|
  001ec		 |$LN1@AddSystemC|

; 115  : 
; 116  :         // append to list
; 117  :         pPolicyCurrent->m_pNextSystemChangeObserver = pPolicy;

  001ec	e59d3000	 ldr         r3, [sp]
  001f0	e2833c06	 add         r3, r3, #6, 24
  001f4	e283204c	 add         r2, r3, #0x4C
  001f8	e59d3010	 ldr         r3, [sp, #0x10]
  001fc	e5823000	 str         r3, [r2]
  00200		 |$LN3@AddSystemC|

; 118  :         }
; 119  : }

  00200	e28dd004	 add         sp, sp, #4
  00204	e89d6000	 ldmia       sp, {sp, lr}
  00208	e12fff1e	 bx          lr
  0020c		 |$M36426|

			 ENDP  ; |?AddSystemChangeObserver@PolicyRoot@@QAAXPAVPolicyAdapter@@@Z|, PolicyRoot::AddSystemChangeObserver

	EXPORT	|?PreSystemStateChange@PolicyAdapter@@QAAKKPBGK@Z| ; PolicyAdapter::PreSystemStateChange
	EXPORT	|?PreSystemStateChange@PolicyRoot@@QAAKKPBGK@Z| ; PolicyRoot::PreSystemStateChange
	IMPORT	|__C_specific_handler|

  00018			 AREA	 |.pdata|, PDATA
|$T36445| DCD	|$LN17@PreSystemS|
	DCD	0xc0001f05
|$T36447| DCD	|$LN7@PreSystemS|
	DCD	0x40000301

  00000			 AREA	 |.xdata|, DATA
|$T36443| DCD	0x1
	DCD	|$LN11@PreSystemS|
	DCD	|$LN12@PreSystemS|
	DCD	|$LN7@PreSystemS|
	DCD	|$LN8@PreSystemS|
; Function compile flags: /Odtp

  0020c			 AREA	 |.text|, CODE, ARM

  0020c	00000000	 DCD         |__C_specific_handler|
  00210	00000000	 DCD         |$T36443|

  00214		 |?PreSystemStateChange@PolicyRoot@@QAAKKPBGK@Z| PROC ; PolicyRoot::PreSystemStateChange

; 132  : {

  00214		 |$LN17@PreSystemS|
  00214	e1a0c00d	 mov         r12, sp
  00218	e92d000f	 stmdb       sp!, {r0 - r3}
  0021c	e92d5800	 stmdb       sp!, {r11, r12, lr}
  00220	e28db00c	 add         r11, sp, #0xC
  00224	e24dd008	 sub         sp, sp, #8
  00228		 |$LN15@PreSystemS|

; 133  :     PolicyAdapter *pPolicyCurrent = m_pSystemChangeList;

  00228	e59b3000	 ldr         r3, [r11]
  0022c	e2833f86	 add         r3, r3, #0x86, 30
  00230	e5933000	 ldr         r3, [r3]
  00234	e50b3014	 str         r3, [r11, #-0x14]
  00238		 |$LN3@PreSystemS|

; 134  : 
; 135  :     // go through and notify all observers
; 136  :     while (pPolicyCurrent != NULL)

  00238	e51b3014	 ldr         r3, [r11, #-0x14]
  0023c	e3530000	 cmp         r3, #0
  00240	0a00000c	 beq         |$LN2@PreSystemS|
  00244		 |$LN11@PreSystemS|

; 137  :         {
; 138  :         __try
; 139  :             {
; 140  :             pPolicyCurrent->PreSystemStateChange(
; 141  :                 dwExtContext, lpNewStateName, dwFlags
; 142  :                 );

  00244	e59b300c	 ldr         r3, [r11, #0xC]
  00248	e59b2008	 ldr         r2, [r11, #8]
  0024c	e59b1004	 ldr         r1, [r11, #4]
  00250	e51b0014	 ldr         r0, [r11, #-0x14]
  00254	eb000000	 bl          |?PreSystemStateChange@PolicyAdapter@@QAAKKPBGK@Z|
  00258		 |$LN12@PreSystemS|

; 143  :             }

  00258	ea000000	 b           |$LN13@PreSystemS|
  0025c		 |$LN8@PreSystemS|
  0025c	eaffffff	 b           |$LN13@PreSystemS|
  00260		 |$LN13@PreSystemS|

; 145  :             {
; 146  :             }
; 147  : 
; 148  :         pPolicyCurrent = pPolicyCurrent->m_pNextSystemChangeObserver;

  00260	e51b3014	 ldr         r3, [r11, #-0x14]
  00264	e2833c06	 add         r3, r3, #6, 24
  00268	e283304c	 add         r3, r3, #0x4C
  0026c	e5933000	 ldr         r3, [r3]
  00270	e50b3014	 str         r3, [r11, #-0x14]

; 149  :         }

  00274	eaffffef	 b           |$LN3@PreSystemS|
  00278		 |$LN2@PreSystemS|

; 150  :     return TRUE;

  00278	e3a03001	 mov         r3, #1
  0027c	e50b3010	 str         r3, [r11, #-0x10]
  00280		 |$LN6@PreSystemS|

; 151  : }

  00280	e51b0010	 ldr         r0, [r11, #-0x10]
  00284	e24bd00c	 sub         sp, r11, #0xC
  00288	e89d6800	 ldmia       sp, {r11, sp, lr}
  0028c	e12fff1e	 bx          lr

			 ENDP  ; |?PreSystemStateChange@PolicyRoot@@QAAKKPBGK@Z|, PolicyRoot::PreSystemStateChange

  00290		 |$LN7@PreSystemS|
  00290		 |$LN16@PreSystemS|

; 144  :         __except(EXCEPTION_EXECUTE_HANDLER)

  00290	e52de004	 str         lr, [sp, #-4]!
  00294		 |$LN10@PreSystemS|
  00294		 |$LN19@PreSystemS|
  00294	e3a00001	 mov         r0, #1
  00298		 |$LN9@PreSystemS|
  00298	e49df004	 ldr         pc, [sp], #4
  0029c		 |$LN20@PreSystemS|
  0029c		 |$LN18@PreSystemS|
; File c:\wince600\platform\common\src\soc\common_ti_v1\common_ti\pm\powerpolicyroot\policyadapter.h

  00000			 AREA	 |.pdata|, PDATA
|$T36455| DCD	|$LN6@PreSystemS@2|
	DCD	0x40001e04
; Function compile flags: /Odtp

  00000			 AREA	 |.text|, CODE, ARM

  00000		 |?PreSystemStateChange@PolicyAdapter@@QAAKKPBGK@Z| PROC ; PolicyAdapter::PreSystemStateChange

; 154  :     {

  00000		 |$LN6@PreSystemS@2|
  00000	e1a0c00d	 mov         r12, sp
  00004	e92d000f	 stmdb       sp!, {r0 - r3}
  00008	e92d5010	 stmdb       sp!, {r4, r12, lr}
  0000c	e24dd008	 sub         sp, sp, #8
  00010		 |$M36452|

; 155  :         if (m_fns.PreSystemStateChange == NULL) return FALSE;

  00010	e59d3014	 ldr         r3, [sp, #0x14]
  00014	e2833d19	 add         r3, r3, #0x19, 26
  00018	e5933000	 ldr         r3, [r3]
  0001c	e3530000	 cmp         r3, #0
  00020	1a000002	 bne         |$LN1@PreSystemS@2|
  00024	e3a03000	 mov         r3, #0
  00028	e58d3000	 str         r3, [sp]
  0002c	ea00000d	 b           |$LN2@PreSystemS@2|
  00030		 |$LN1@PreSystemS@2|

; 156  :         return m_fns.PreSystemStateChange(m_hPolicyAdapter, dwExtContext, lpNewStateName, dwFlags);

  00030	e59d3020	 ldr         r3, [sp, #0x20]
  00034	e59d201c	 ldr         r2, [sp, #0x1C]
  00038	e59d1018	 ldr         r1, [sp, #0x18]
  0003c	e59d0014	 ldr         r0, [sp, #0x14]
  00040	e2800e21	 add         r0, r0, #0x21, 28
  00044	e5900000	 ldr         r0, [r0]
  00048	e59de014	 ldr         lr, [sp, #0x14]
  0004c	e28eed19	 add         lr, lr, #0x19, 26
  00050	e59e4000	 ldr         r4, [lr]
  00054	e1a0e00f	 mov         lr, pc
  00058	e12fff14	 bx          r4
  0005c	e58d0004	 str         r0, [sp, #4]
  00060	e59d3004	 ldr         r3, [sp, #4]
  00064	e58d3000	 str         r3, [sp]
  00068		 |$LN2@PreSystemS@2|

; 157  :     }

  00068	e59d0000	 ldr         r0, [sp]
  0006c	e28dd008	 add         sp, sp, #8
  00070	e89d6010	 ldmia       sp, {r4, sp, lr}
  00074	e12fff1e	 bx          lr
  00078		 |$M36453|

			 ENDP  ; |?PreSystemStateChange@PolicyAdapter@@QAAKKPBGK@Z|, PolicyAdapter::PreSystemStateChange

	EXPORT	|?PostSystemStateChange@PolicyAdapter@@QAAKKPBGK@Z| ; PolicyAdapter::PostSystemStateChange
	EXPORT	|?PostSystemStateChange@PolicyRoot@@QAAKKPBGK@Z| ; PolicyRoot::PostSystemStateChange

  00028			 AREA	 |.pdata|, PDATA
|$T36473| DCD	|$LN17@PostSystem|
	DCD	0xc0001f05
|$T36475| DCD	|$LN7@PostSystem|
	DCD	0x40000301

  00014			 AREA	 |.xdata|, DATA
|$T36471| DCD	0x1
	DCD	|$LN11@PostSystem|
	DCD	|$LN12@PostSystem|
	DCD	|$LN7@PostSystem|
	DCD	|$LN8@PostSystem|
; Function compile flags: /Odtp
; File c:\wince600\platform\common\src\soc\common_ti_v1\common_ti\pm\powerpolicyroot\policyroot.cpp

  0029c			 AREA	 |.text|, CODE, ARM

  0029c	00000000	 DCD         |__C_specific_handler|
  002a0	00000000	 DCD         |$T36471|

  002a4		 |?PostSystemStateChange@PolicyRoot@@QAAKKPBGK@Z| PROC ; PolicyRoot::PostSystemStateChange

; 164  : {

  002a4		 |$LN17@PostSystem|
  002a4	e1a0c00d	 mov         r12, sp
  002a8	e92d000f	 stmdb       sp!, {r0 - r3}
  002ac	e92d5800	 stmdb       sp!, {r11, r12, lr}
  002b0	e28db00c	 add         r11, sp, #0xC
  002b4	e24dd008	 sub         sp, sp, #8
  002b8		 |$LN15@PostSystem|

; 165  :     PolicyAdapter *pPolicyCurrent = m_pSystemChangeList;

  002b8	e59b3000	 ldr         r3, [r11]
  002bc	e2833f86	 add         r3, r3, #0x86, 30
  002c0	e5933000	 ldr         r3, [r3]
  002c4	e50b3014	 str         r3, [r11, #-0x14]
  002c8		 |$LN3@PostSystem|

; 166  : 
; 167  :     // go through and notify all observers
; 168  :     while (pPolicyCurrent != NULL)

  002c8	e51b3014	 ldr         r3, [r11, #-0x14]
  002cc	e3530000	 cmp         r3, #0
  002d0	0a00000c	 beq         |$LN2@PostSystem|
  002d4		 |$LN11@PostSystem|

; 169  :         {
; 170  :         __try
; 171  :             {
; 172  :             pPolicyCurrent->PostSystemStateChange(
; 173  :                 dwExtContext, lpNewStateName, dwFlags
; 174  :                 );

  002d4	e59b300c	 ldr         r3, [r11, #0xC]
  002d8	e59b2008	 ldr         r2, [r11, #8]
  002dc	e59b1004	 ldr         r1, [r11, #4]
  002e0	e51b0014	 ldr         r0, [r11, #-0x14]
  002e4	eb000000	 bl          |?PostSystemStateChange@PolicyAdapter@@QAAKKPBGK@Z|
  002e8		 |$LN12@PostSystem|

; 175  :             }

  002e8	ea000000	 b           |$LN13@PostSystem|
  002ec		 |$LN8@PostSystem|
  002ec	eaffffff	 b           |$LN13@PostSystem|
  002f0		 |$LN13@PostSystem|

; 177  :             {
; 178  :             }
; 179  : 
; 180  :         pPolicyCurrent = pPolicyCurrent->m_pNextSystemChangeObserver;

  002f0	e51b3014	 ldr         r3, [r11, #-0x14]
  002f4	e2833c06	 add         r3, r3, #6, 24
  002f8	e283304c	 add         r3, r3, #0x4C
  002fc	e5933000	 ldr         r3, [r3]
  00300	e50b3014	 str         r3, [r11, #-0x14]

; 181  :         }

  00304	eaffffef	 b           |$LN3@PostSystem|
  00308		 |$LN2@PostSystem|

; 182  :     return TRUE;

  00308	e3a03001	 mov         r3, #1
  0030c	e50b3010	 str         r3, [r11, #-0x10]
  00310		 |$LN6@PostSystem|

; 183  : }

  00310	e51b0010	 ldr         r0, [r11, #-0x10]
  00314	e24bd00c	 sub         sp, r11, #0xC
  00318	e89d6800	 ldmia       sp, {r11, sp, lr}
  0031c	e12fff1e	 bx          lr

			 ENDP  ; |?PostSystemStateChange@PolicyRoot@@QAAKKPBGK@Z|, PolicyRoot::PostSystemStateChange

  00320		 |$LN7@PostSystem|
  00320		 |$LN16@PostSystem|

; 176  :         __except(EXCEPTION_EXECUTE_HANDLER)

  00320	e52de004	 str         lr, [sp, #-4]!
  00324		 |$LN10@PostSystem|
  00324		 |$LN19@PostSystem|
  00324	e3a00001	 mov         r0, #1
  00328		 |$LN9@PostSystem|
  00328	e49df004	 ldr         pc, [sp], #4
  0032c		 |$LN20@PostSystem|
  0032c		 |$LN18@PostSystem|
; File c:\wince600\platform\common\src\soc\common_ti_v1\common_ti\pm\powerpolicyroot\policyadapter.h

  00000			 AREA	 |.pdata|, PDATA
|$T36483| DCD	|$LN6@PostSystem@2|
	DCD	0x40002004
; Function compile flags: /Odtp

  00000			 AREA	 |.text|, CODE, ARM

  00000		 |?PostSystemStateChange@PolicyAdapter@@QAAKKPBGK@Z| PROC ; PolicyAdapter::PostSystemStateChange

; 165  :     {

  00000		 |$LN6@PostSystem@2|
  00000	e1a0c00d	 mov         r12, sp
  00004	e92d000f	 stmdb       sp!, {r0 - r3}
  00008	e92d5010	 stmdb       sp!, {r4, r12, lr}
  0000c	e24dd008	 sub         sp, sp, #8
  00010		 |$M36480|

; 166  :         if (m_fns.PostSystemStateChange == NULL) return FALSE;

  00010	e59d3014	 ldr         r3, [sp, #0x14]
  00014	e2833c06	 add         r3, r3, #6, 24
  00018	e2833044	 add         r3, r3, #0x44
  0001c	e5933000	 ldr         r3, [r3]
  00020	e3530000	 cmp         r3, #0
  00024	1a000002	 bne         |$LN1@PostSystem@2|
  00028	e3a03000	 mov         r3, #0
  0002c	e58d3000	 str         r3, [sp]
  00030	ea00000e	 b           |$LN2@PostSystem@2|
  00034		 |$LN1@PostSystem@2|

; 167  :         return m_fns.PostSystemStateChange(m_hPolicyAdapter, dwExtContext, lpNewStateName, dwFlags);

  00034	e59d3020	 ldr         r3, [sp, #0x20]
  00038	e59d201c	 ldr         r2, [sp, #0x1C]
  0003c	e59d1018	 ldr         r1, [sp, #0x18]
  00040	e59d0014	 ldr         r0, [sp, #0x14]
  00044	e2800e21	 add         r0, r0, #0x21, 28
  00048	e5900000	 ldr         r0, [r0]
  0004c	e59de014	 ldr         lr, [sp, #0x14]
  00050	e28eec06	 add         lr, lr, #6, 24
  00054	e28ee044	 add         lr, lr, #0x44
  00058	e59e4000	 ldr         r4, [lr]
  0005c	e1a0e00f	 mov         lr, pc
  00060	e12fff14	 bx          r4
  00064	e58d0004	 str         r0, [sp, #4]
  00068	e59d3004	 ldr         r3, [sp, #4]
  0006c	e58d3000	 str         r3, [sp]
  00070		 |$LN2@PostSystem@2|

; 168  :     }

  00070	e59d0000	 ldr         r0, [sp]
  00074	e28dd008	 add         sp, sp, #8
  00078	e89d6010	 ldmia       sp, {r4, sp, lr}
  0007c	e12fff1e	 bx          lr
  00080		 |$M36481|

			 ENDP  ; |?PostSystemStateChange@PolicyAdapter@@QAAKKPBGK@Z|, PolicyAdapter::PostSystemStateChange

	EXPORT	|?PreDeviceStateChange@PolicyAdapter@@QAAHIII@Z| ; PolicyAdapter::PreDeviceStateChange
	EXPORT	|?PreDeviceStateChange@PolicyRoot@@QAAHIII@Z| ; PolicyRoot::PreDeviceStateChange

  00038			 AREA	 |.pdata|, PDATA
|$T36501| DCD	|$LN17@PreDeviceS|
	DCD	0xc0001f05
|$T36503| DCD	|$LN7@PreDeviceS|
	DCD	0x40000301

  00028			 AREA	 |.xdata|, DATA
|$T36499| DCD	0x1
	DCD	|$LN11@PreDeviceS|
	DCD	|$LN12@PreDeviceS|
	DCD	|$LN7@PreDeviceS|
	DCD	|$LN8@PreDeviceS|
; Function compile flags: /Odtp
; File c:\wince600\platform\common\src\soc\common_ti_v1\common_ti\pm\powerpolicyroot\policyroot.cpp

  0032c			 AREA	 |.text|, CODE, ARM

  0032c	00000000	 DCD         |__C_specific_handler|
  00330	00000000	 DCD         |$T36499|

  00334		 |?PreDeviceStateChange@PolicyRoot@@QAAHIII@Z| PROC ; PolicyRoot::PreDeviceStateChange

; 196  : {

  00334		 |$LN17@PreDeviceS|
  00334	e1a0c00d	 mov         r12, sp
  00338	e92d000f	 stmdb       sp!, {r0 - r3}
  0033c	e92d5800	 stmdb       sp!, {r11, r12, lr}
  00340	e28db00c	 add         r11, sp, #0xC
  00344	e24dd008	 sub         sp, sp, #8
  00348		 |$LN15@PreDeviceS|

; 197  :     PolicyAdapter *pPolicyCurrent = m_pDeviceChangeList;

  00348	e59b3000	 ldr         r3, [r11]
  0034c	e2833f87	 add         r3, r3, #0x87, 30
  00350	e5933000	 ldr         r3, [r3]
  00354	e50b3014	 str         r3, [r11, #-0x14]
  00358		 |$LN3@PreDeviceS|

; 198  : 
; 199  :     // go through and notify all observers
; 200  :     while (pPolicyCurrent != NULL)

  00358	e51b3014	 ldr         r3, [r11, #-0x14]
  0035c	e3530000	 cmp         r3, #0
  00360	0a00000c	 beq         |$LN2@PreDeviceS|
  00364		 |$LN11@PreDeviceS|

; 201  :         {
; 202  :         __try
; 203  :             {
; 204  :             pPolicyCurrent->PreDeviceStateChange(
; 205  :                 dev, oldState, newState
; 206  :                 );

  00364	e59b300c	 ldr         r3, [r11, #0xC]
  00368	e59b2008	 ldr         r2, [r11, #8]
  0036c	e59b1004	 ldr         r1, [r11, #4]
  00370	e51b0014	 ldr         r0, [r11, #-0x14]
  00374	eb000000	 bl          |?PreDeviceStateChange@PolicyAdapter@@QAAHIII@Z|
  00378		 |$LN12@PreDeviceS|

; 207  :             }

  00378	ea000000	 b           |$LN13@PreDeviceS|
  0037c		 |$LN8@PreDeviceS|
  0037c	eaffffff	 b           |$LN13@PreDeviceS|
  00380		 |$LN13@PreDeviceS|

; 209  :             {
; 210  :             }
; 211  : 
; 212  :         pPolicyCurrent = pPolicyCurrent->m_pNextDeviceChangeObserver;

  00380	e51b3014	 ldr         r3, [r11, #-0x14]
  00384	e2833c06	 add         r3, r3, #6, 24
  00388	e2833048	 add         r3, r3, #0x48
  0038c	e5933000	 ldr         r3, [r3]
  00390	e50b3014	 str         r3, [r11, #-0x14]

; 213  :         }

  00394	eaffffef	 b           |$LN3@PreDeviceS|
  00398		 |$LN2@PreDeviceS|

; 214  :     return TRUE;

  00398	e3a03001	 mov         r3, #1
  0039c	e50b3010	 str         r3, [r11, #-0x10]
  003a0		 |$LN6@PreDeviceS|

; 215  : }

  003a0	e51b0010	 ldr         r0, [r11, #-0x10]
  003a4	e24bd00c	 sub         sp, r11, #0xC
  003a8	e89d6800	 ldmia       sp, {r11, sp, lr}
  003ac	e12fff1e	 bx          lr

			 ENDP  ; |?PreDeviceStateChange@PolicyRoot@@QAAHIII@Z|, PolicyRoot::PreDeviceStateChange

  003b0		 |$LN7@PreDeviceS|
  003b0		 |$LN16@PreDeviceS|

; 208  :         __except(EXCEPTION_EXECUTE_HANDLER)

  003b0	e52de004	 str         lr, [sp, #-4]!
  003b4		 |$LN10@PreDeviceS|
  003b4		 |$LN19@PreDeviceS|
  003b4	e3a00001	 mov         r0, #1
  003b8		 |$LN9@PreDeviceS|
  003b8	e49df004	 ldr         pc, [sp], #4
  003bc		 |$LN20@PreDeviceS|
  003bc		 |$LN18@PreDeviceS|
; File c:\wince600\platform\common\src\soc\common_ti_v1\common_ti\pm\powerpolicyroot\policyadapter.h

  00000			 AREA	 |.pdata|, PDATA
|$T36511| DCD	|$LN6@PreDeviceS@2|
	DCD	0x40002004
; Function compile flags: /Odtp

  00000			 AREA	 |.text|, CODE, ARM

  00000		 |?PreDeviceStateChange@PolicyAdapter@@QAAHIII@Z| PROC ; PolicyAdapter::PreDeviceStateChange

; 176  :     {

  00000		 |$LN6@PreDeviceS@2|
  00000	e1a0c00d	 mov         r12, sp
  00004	e92d000f	 stmdb       sp!, {r0 - r3}
  00008	e92d5010	 stmdb       sp!, {r4, r12, lr}
  0000c	e24dd008	 sub         sp, sp, #8
  00010		 |$M36508|

; 177  :         if (m_fns.PreDeviceStateChange == NULL) return FALSE;

  00010	e59d3014	 ldr         r3, [sp, #0x14]
  00014	e2833c06	 add         r3, r3, #6, 24
  00018	e2833038	 add         r3, r3, #0x38
  0001c	e5933000	 ldr         r3, [r3]
  00020	e3530000	 cmp         r3, #0
  00024	1a000002	 bne         |$LN1@PreDeviceS@2|
  00028	e3a03000	 mov         r3, #0
  0002c	e58d3000	 str         r3, [sp]
  00030	ea00000e	 b           |$LN2@PreDeviceS@2|
  00034		 |$LN1@PreDeviceS@2|

; 178  :         return m_fns.PreDeviceStateChange(m_hPolicyAdapter, dev, oldState, newState);

  00034	e59d3020	 ldr         r3, [sp, #0x20]
  00038	e59d201c	 ldr         r2, [sp, #0x1C]
  0003c	e59d1018	 ldr         r1, [sp, #0x18]
  00040	e59d0014	 ldr         r0, [sp, #0x14]
  00044	e2800e21	 add         r0, r0, #0x21, 28
  00048	e5900000	 ldr         r0, [r0]
  0004c	e59de014	 ldr         lr, [sp, #0x14]
  00050	e28eec06	 add         lr, lr, #6, 24
  00054	e28ee038	 add         lr, lr, #0x38
  00058	e59e4000	 ldr         r4, [lr]
  0005c	e1a0e00f	 mov         lr, pc
  00060	e12fff14	 bx          r4
  00064	e58d0004	 str         r0, [sp, #4]
  00068	e59d3004	 ldr         r3, [sp, #4]
  0006c	e58d3000	 str         r3, [sp]
  00070		 |$LN2@PreDeviceS@2|

; 179  :     }

  00070	e59d0000	 ldr         r0, [sp]
  00074	e28dd008	 add         sp, sp, #8
  00078	e89d6010	 ldmia       sp, {r4, sp, lr}
  0007c	e12fff1e	 bx          lr
  00080		 |$M36509|

			 ENDP  ; |?PreDeviceStateChange@PolicyAdapter@@QAAHIII@Z|, PolicyAdapter::PreDeviceStateChange

	EXPORT	|?PostDeviceStateChange@PolicyAdapter@@QAAHIII@Z| ; PolicyAdapter::PostDeviceStateChange
	EXPORT	|?PostDeviceStateChange@PolicyRoot@@QAAHIII@Z| ; PolicyRoot::PostDeviceStateChange

  00048			 AREA	 |.pdata|, PDATA
|$T36529| DCD	|$LN17@PostDevice|
	DCD	0xc0001f05
|$T36531| DCD	|$LN7@PostDevice|
	DCD	0x40000301

  0003c			 AREA	 |.xdata|, DATA
|$T36527| DCD	0x1
	DCD	|$LN11@PostDevice|
	DCD	|$LN12@PostDevice|
	DCD	|$LN7@PostDevice|
	DCD	|$LN8@PostDevice|
; Function compile flags: /Odtp
; File c:\wince600\platform\common\src\soc\common_ti_v1\common_ti\pm\powerpolicyroot\policyroot.cpp

  003bc			 AREA	 |.text|, CODE, ARM

  003bc	00000000	 DCD         |__C_specific_handler|
  003c0	00000000	 DCD         |$T36527|

  003c4		 |?PostDeviceStateChange@PolicyRoot@@QAAHIII@Z| PROC ; PolicyRoot::PostDeviceStateChange

; 228  : {

  003c4		 |$LN17@PostDevice|
  003c4	e1a0c00d	 mov         r12, sp
  003c8	e92d000f	 stmdb       sp!, {r0 - r3}
  003cc	e92d5800	 stmdb       sp!, {r11, r12, lr}
  003d0	e28db00c	 add         r11, sp, #0xC
  003d4	e24dd008	 sub         sp, sp, #8
  003d8		 |$LN15@PostDevice|

; 229  :     PolicyAdapter *pPolicyCurrent = m_pDeviceChangeList;

  003d8	e59b3000	 ldr         r3, [r11]
  003dc	e2833f87	 add         r3, r3, #0x87, 30
  003e0	e5933000	 ldr         r3, [r3]
  003e4	e50b3014	 str         r3, [r11, #-0x14]
  003e8		 |$LN3@PostDevice|

; 230  : 
; 231  :     // go through and notify all observers
; 232  :     while (pPolicyCurrent != NULL)

  003e8	e51b3014	 ldr         r3, [r11, #-0x14]
  003ec	e3530000	 cmp         r3, #0
  003f0	0a00000c	 beq         |$LN2@PostDevice|
  003f4		 |$LN11@PostDevice|

; 233  :         {
; 234  :         __try
; 235  :             {
; 236  :             pPolicyCurrent->PostDeviceStateChange(
; 237  :                 dev, oldState, newState
; 238  :                 );

  003f4	e59b300c	 ldr         r3, [r11, #0xC]
  003f8	e59b2008	 ldr         r2, [r11, #8]
  003fc	e59b1004	 ldr         r1, [r11, #4]
  00400	e51b0014	 ldr         r0, [r11, #-0x14]
  00404	eb000000	 bl          |?PostDeviceStateChange@PolicyAdapter@@QAAHIII@Z|
  00408		 |$LN12@PostDevice|

; 239  :             }

  00408	ea000000	 b           |$LN13@PostDevice|
  0040c		 |$LN8@PostDevice|
  0040c	eaffffff	 b           |$LN13@PostDevice|
  00410		 |$LN13@PostDevice|

; 241  :             {
; 242  :             }
; 243  : 
; 244  :         pPolicyCurrent = pPolicyCurrent->m_pNextDeviceChangeObserver;

  00410	e51b3014	 ldr         r3, [r11, #-0x14]
  00414	e2833c06	 add         r3, r3, #6, 24
  00418	e2833048	 add         r3, r3, #0x48
  0041c	e5933000	 ldr         r3, [r3]
  00420	e50b3014	 str         r3, [r11, #-0x14]

; 245  :         }

  00424	eaffffef	 b           |$LN3@PostDevice|
  00428		 |$LN2@PostDevice|

; 246  :     return TRUE;

  00428	e3a03001	 mov         r3, #1
  0042c	e50b3010	 str         r3, [r11, #-0x10]
  00430		 |$LN6@PostDevice|

; 247  : }

  00430	e51b0010	 ldr         r0, [r11, #-0x10]
  00434	e24bd00c	 sub         sp, r11, #0xC
  00438	e89d6800	 ldmia       sp, {r11, sp, lr}
  0043c	e12fff1e	 bx          lr

			 ENDP  ; |?PostDeviceStateChange@PolicyRoot@@QAAHIII@Z|, PolicyRoot::PostDeviceStateChange

  00440		 |$LN7@PostDevice|
  00440		 |$LN16@PostDevice|

; 240  :         __except(EXCEPTION_EXECUTE_HANDLER)

  00440	e52de004	 str         lr, [sp, #-4]!
  00444		 |$LN10@PostDevice|
  00444		 |$LN19@PostDevice|
  00444	e3a00001	 mov         r0, #1
  00448		 |$LN9@PostDevice|
  00448	e49df004	 ldr         pc, [sp], #4
  0044c		 |$LN20@PostDevice|
  0044c		 |$LN18@PostDevice|
; File c:\wince600\platform\common\src\soc\common_ti_v1\common_ti\pm\powerpolicyroot\policyadapter.h

  00000			 AREA	 |.pdata|, PDATA
|$T36539| DCD	|$LN6@PostDevice@2|
	DCD	0x40002004
; Function compile flags: /Odtp

  00000			 AREA	 |.text|, CODE, ARM

  00000		 |?PostDeviceStateChange@PolicyAdapter@@QAAHIII@Z| PROC ; PolicyAdapter::PostDeviceStateChange

; 187  :     {

  00000		 |$LN6@PostDevice@2|
  00000	e1a0c00d	 mov         r12, sp
  00004	e92d000f	 stmdb       sp!, {r0 - r3}
  00008	e92d5010	 stmdb       sp!, {r4, r12, lr}
  0000c	e24dd008	 sub         sp, sp, #8
  00010		 |$M36536|

; 188  :         if (m_fns.PostDeviceStateChange == NULL) return FALSE;

  00010	e59d3014	 ldr         r3, [sp, #0x14]
  00014	e2833c06	 add         r3, r3, #6, 24
  00018	e283303c	 add         r3, r3, #0x3C
  0001c	e5933000	 ldr         r3, [r3]
  00020	e3530000	 cmp         r3, #0
  00024	1a000002	 bne         |$LN1@PostDevice@2|
  00028	e3a03000	 mov         r3, #0
  0002c	e58d3000	 str         r3, [sp]
  00030	ea00000e	 b           |$LN2@PostDevice@2|
  00034		 |$LN1@PostDevice@2|

; 189  :         return m_fns.PostDeviceStateChange(m_hPolicyAdapter, dev, oldState, newState);

  00034	e59d3020	 ldr         r3, [sp, #0x20]
  00038	e59d201c	 ldr         r2, [sp, #0x1C]
  0003c	e59d1018	 ldr         r1, [sp, #0x18]
  00040	e59d0014	 ldr         r0, [sp, #0x14]
  00044	e2800e21	 add         r0, r0, #0x21, 28
  00048	e5900000	 ldr         r0, [r0]
  0004c	e59de014	 ldr         lr, [sp, #0x14]
  00050	e28eec06	 add         lr, lr, #6, 24
  00054	e28ee03c	 add         lr, lr, #0x3C
  00058	e59e4000	 ldr         r4, [lr]
  0005c	e1a0e00f	 mov         lr, pc
  00060	e12fff14	 bx          r4
  00064	e58d0004	 str         r0, [sp, #4]
  00068	e59d3004	 ldr         r3, [sp, #4]
  0006c	e58d3000	 str         r3, [sp]
  00070		 |$LN2@PostDevice@2|

; 190  :     }

  00070	e59d0000	 ldr         r0, [sp]
  00074	e28dd008	 add         sp, sp, #8
  00078	e89d6010	 ldmia       sp, {r4, sp, lr}
  0007c	e12fff1e	 bx          lr
  00080		 |$M36537|

			 ENDP  ; |?PostDeviceStateChange@PolicyAdapter@@QAAHIII@Z|, PolicyAdapter::PostDeviceStateChange

	EXPORT	|??$push_back@PAVPolicyAdapter@@@?$list@PAVPolicyAdapter@@Vallocator@ce@@@ce@@QAA_NABQAVPolicyAdapter@@@Z| ; ce::list<PolicyAdapter *,ce::allocator>::push_back<PolicyAdapter *>
	EXPORT	|?GetAdapterId@PolicyAdapter@@QBAPBGXZ|	; PolicyAdapter::GetAdapterId
	EXPORT	|??0PolicyAdapter@@QAA@XZ|		; PolicyAdapter::PolicyAdapter
	EXPORT	|?LoadPolicy@PolicyRoot@@QAAPAVPolicyAdapter@@PBG@Z| ; PolicyRoot::LoadPolicy
	IMPORT	|??3@YAXPAX@Z|				; operator delete
	IMPORT	|?Uninitialize@PolicyAdapter@@QAAXXZ|	; PolicyAdapter::Uninitialize
	IMPORT	|?PostInitialize@PolicyAdapter@@QAAHPAVPolicyRoot@@@Z| ; PolicyAdapter::PostInitialize
	IMPORT	|?FindAdapterById@PolicyContainer@@QAAPAVPolicyAdapter@@PBG@Z| ; PolicyContainer::FindAdapterById
	IMPORT	|?Initialize@PolicyAdapter@@QAAHPBG@Z|	; PolicyAdapter::Initialize
	IMPORT	|??2@YAPAXI@Z|				; operator new

  00058			 AREA	 |.pdata|, PDATA
|$T36552| DCD	|$LN17@LoadPolicy|
	DCD	0x40005f04
; Function compile flags: /Odtp
; File c:\wince600\platform\common\src\soc\common_ti_v1\common_ti\pm\powerpolicyroot\policyroot.cpp

  0044c			 AREA	 |.text|, CODE, ARM

  0044c		 |?LoadPolicy@PolicyRoot@@QAAPAVPolicyAdapter@@PBG@Z| PROC ; PolicyRoot::LoadPolicy

; 258  : {

  0044c		 |$LN17@LoadPolicy|
  0044c	e1a0c00d	 mov         r12, sp
  00450	e92d0003	 stmdb       sp!, {r0, r1}
  00454	e92d5000	 stmdb       sp!, {r12, lr}
  00458	e24dd038	 sub         sp, sp, #0x38
  0045c		 |$M36549|

; 259  :     BOOL bSuccess = FALSE;

  0045c	e3a03000	 mov         r3, #0
  00460	e58d3004	 str         r3, [sp, #4]

; 260  :     PolicyAdapter *pAdapterOld;
; 261  :     
; 262  :     // create an instance of a ConstraintAdapter
; 263  :     PolicyAdapter *pAdapter = new PolicyAdapter();

  00464	e3a00e65	 mov         r0, #0x65, 28
  00468	eb000000	 bl          |??2@YAPAXI@Z|
  0046c	e58d001c	 str         r0, [sp, #0x1C]
  00470	e59d301c	 ldr         r3, [sp, #0x1C]
  00474	e58d300c	 str         r3, [sp, #0xC]
  00478	e59d300c	 ldr         r3, [sp, #0xC]
  0047c	e3530000	 cmp         r3, #0
  00480	0a000005	 beq         |$LN13@LoadPolicy|
  00484	e59d000c	 ldr         r0, [sp, #0xC]
  00488	eb000000	 bl          |??0PolicyAdapter@@QAA@XZ|
  0048c	e58d0020	 str         r0, [sp, #0x20]
  00490	e59d3020	 ldr         r3, [sp, #0x20]
  00494	e58d3024	 str         r3, [sp, #0x24]
  00498	ea000001	 b           |$LN14@LoadPolicy|
  0049c		 |$LN13@LoadPolicy|
  0049c	e3a03000	 mov         r3, #0
  004a0	e58d3024	 str         r3, [sp, #0x24]
  004a4		 |$LN14@LoadPolicy|
  004a4	e59d3024	 ldr         r3, [sp, #0x24]
  004a8	e58d3008	 str         r3, [sp, #8]

; 264  :     if (pAdapter == NULL) goto cleanUp;

  004ac	e59d3008	 ldr         r3, [sp, #8]
  004b0	e3530000	 cmp         r3, #0
  004b4	1a000001	 bne         |$LN10@LoadPolicy|
  004b8	ea000030	 b           |$LN9@LoadPolicy|
  004bc	ea00002f	 b           |$cleanUp$35563|
  004c0		 |$LN10@LoadPolicy|

; 265  : 
; 266  :     // perform initialization steps
; 267  :     if (pAdapter->Initialize(szContext) == FALSE) goto cleanUp;

  004c0	e59d1044	 ldr         r1, [sp, #0x44]
  004c4	e59d0008	 ldr         r0, [sp, #8]
  004c8	eb000000	 bl          |?Initialize@PolicyAdapter@@QAAHPBG@Z|
  004cc	e58d0028	 str         r0, [sp, #0x28]
  004d0	e59d3028	 ldr         r3, [sp, #0x28]
  004d4	e3530000	 cmp         r3, #0
  004d8	1a000001	 bne         |$LN8@LoadPolicy|
  004dc	ea000027	 b           |$LN7@LoadPolicy|
  004e0	ea000026	 b           |$cleanUp$35563|
  004e4		 |$LN8@LoadPolicy|

; 268  : 
; 269  :     // we need to preserve the uniqueness of constraint adapter id's
; 270  :     // check if the constraint adapter is already in the collection
; 271  :     pAdapterOld = m_PolicyContainer.FindAdapterById(pAdapter->GetAdapterId());

  004e4	e59d0008	 ldr         r0, [sp, #8]
  004e8	eb000000	 bl          |?GetAdapterId@PolicyAdapter@@QBAPBGXZ|
  004ec	e58d002c	 str         r0, [sp, #0x2C]
  004f0	e59d102c	 ldr         r1, [sp, #0x2C]
  004f4	e59d3040	 ldr         r3, [sp, #0x40]
  004f8	e2830f82	 add         r0, r3, #0x82, 30
  004fc	eb000000	 bl          |?FindAdapterById@PolicyContainer@@QAAPAVPolicyAdapter@@PBG@Z|
  00500	e58d0030	 str         r0, [sp, #0x30]
  00504	e59d3030	 ldr         r3, [sp, #0x30]
  00508	e58d3000	 str         r3, [sp]

; 272  :     if (pAdapterOld == NULL)

  0050c	e59d3000	 ldr         r3, [sp]
  00510	e3530000	 cmp         r3, #0
  00514	1a00000f	 bne         |$LN6@LoadPolicy|

; 273  :         {
; 274  :         if (pAdapter->PostInitialize(this) == FALSE)

  00518	e59d1040	 ldr         r1, [sp, #0x40]
  0051c	e59d0008	 ldr         r0, [sp, #8]
  00520	eb000000	 bl          |?PostInitialize@PolicyAdapter@@QAAHPAVPolicyRoot@@@Z|
  00524	e58d0034	 str         r0, [sp, #0x34]
  00528	e59d3034	 ldr         r3, [sp, #0x34]
  0052c	e3530000	 cmp         r3, #0
  00530	1a000003	 bne         |$LN5@LoadPolicy|

; 275  :             {
; 276  :             pAdapter->Uninitialize();

  00534	e59d0008	 ldr         r0, [sp, #8]
  00538	eb000000	 bl          |?Uninitialize@PolicyAdapter@@QAAXXZ|
  0053c	ea00000f	 b           |$LN4@LoadPolicy|

; 277  :             goto cleanUp;        

  00540	ea00000e	 b           |$cleanUp$35563|
  00544		 |$LN5@LoadPolicy|

; 278  :             }
; 279  : 
; 280  :         // insert into list
; 281  :         m_PolicyContainer.push_back(pAdapter);

  00544	e28d1008	 add         r1, sp, #8
  00548	e59d3040	 ldr         r3, [sp, #0x40]
  0054c	e2830f82	 add         r0, r3, #0x82, 30
  00550	eb000000	 bl          |??$push_back@PAVPolicyAdapter@@@?$list@PAVPolicyAdapter@@Vallocator@ce@@@ce@@QAA_NABQAVPolicyAdapter@@@Z|

; 282  :         }
; 283  :     else

  00554	ea000007	 b           |$LN3@LoadPolicy|
  00558		 |$LN6@LoadPolicy|

; 284  :         {
; 285  :         // if adapter is already in the collection then delete new one
; 286  :         // and use the old one.
; 287  :         pAdapter->Uninitialize();

  00558	e59d0008	 ldr         r0, [sp, #8]
  0055c	eb000000	 bl          |?Uninitialize@PolicyAdapter@@QAAXXZ|

; 288  :         delete pAdapter;

  00560	e59d3008	 ldr         r3, [sp, #8]
  00564	e58d3010	 str         r3, [sp, #0x10]
  00568	e59d0010	 ldr         r0, [sp, #0x10]
  0056c	eb000000	 bl          |??3@YAXPAX@Z|

; 289  :         pAdapter = pAdapterOld;        

  00570	e59d3000	 ldr         r3, [sp]
  00574	e58d3008	 str         r3, [sp, #8]
  00578		 |$LN3@LoadPolicy|

; 290  :         }
; 291  : 
; 292  :     bSuccess = TRUE;

  00578	e3a03001	 mov         r3, #1
  0057c	e58d3004	 str         r3, [sp, #4]
  00580		 |$LN4@LoadPolicy|
  00580		 |$LN7@LoadPolicy|
  00580		 |$LN9@LoadPolicy|
  00580		 |$cleanUp$35563|

; 293  : 
; 294  : cleanUp:
; 295  :     if (bSuccess == FALSE)

  00580	e59d3004	 ldr         r3, [sp, #4]
  00584	e3530000	 cmp         r3, #0
  00588	1a000008	 bne         |$LN2@LoadPolicy|

; 296  :         {
; 297  :         if (pAdapter != NULL) delete pAdapter;

  0058c	e59d3008	 ldr         r3, [sp, #8]
  00590	e3530000	 cmp         r3, #0
  00594	0a000003	 beq         |$LN1@LoadPolicy|
  00598	e59d3008	 ldr         r3, [sp, #8]
  0059c	e58d3014	 str         r3, [sp, #0x14]
  005a0	e59d0014	 ldr         r0, [sp, #0x14]
  005a4	eb000000	 bl          |??3@YAXPAX@Z|
  005a8		 |$LN1@LoadPolicy|

; 298  :         pAdapter = NULL;

  005a8	e3a03000	 mov         r3, #0
  005ac	e58d3008	 str         r3, [sp, #8]
  005b0		 |$LN2@LoadPolicy|

; 299  :         }
; 300  :     return pAdapter;

  005b0	e59d3008	 ldr         r3, [sp, #8]
  005b4	e58d3018	 str         r3, [sp, #0x18]

; 301  : }

  005b8	e59d0018	 ldr         r0, [sp, #0x18]
  005bc	e28dd038	 add         sp, sp, #0x38
  005c0	e89d6000	 ldmia       sp, {sp, lr}
  005c4	e12fff1e	 bx          lr
  005c8		 |$M36550|

			 ENDP  ; |?LoadPolicy@PolicyRoot@@QAAPAVPolicyAdapter@@PBG@Z|, PolicyRoot::LoadPolicy

	IMPORT	|memset|
; File c:\wince600\platform\common\src\soc\common_ti_v1\common_ti\pm\powerpolicyroot\policyadapter.h

  00000			 AREA	 |.pdata|, PDATA
|$T36558| DCD	|$LN5@PolicyAdap|
	DCD	0x40003204
; Function compile flags: /Odtp

  00000			 AREA	 |.text|, CODE, ARM

  00000		 |??0PolicyAdapter@@QAA@XZ| PROC	; PolicyAdapter::PolicyAdapter

; 87   :     {

  00000		 |$LN5@PolicyAdap|
  00000	e1a0c00d	 mov         r12, sp
  00004	e92d0001	 stmdb       sp!, {r0}
  00008	e92d5000	 stmdb       sp!, {r12, lr}
  0000c	e24dd004	 sub         sp, sp, #4
  00010		 |$M36555|
  00010	e59d200c	 ldr         r2, [sp, #0xC]
  00014	e3a03000	 mov         r3, #0
  00018	e5823000	 str         r3, [r2]
  0001c	e59d300c	 ldr         r3, [sp, #0xC]
  00020	e2832004	 add         r2, r3, #4
  00024	e3a03000	 mov         r3, #0
  00028	e5823000	 str         r3, [r2]
  0002c	e59d300c	 ldr         r3, [sp, #0xC]
  00030	e2832e21	 add         r2, r3, #0x21, 28
  00034	e3a03000	 mov         r3, #0
  00038	e5823000	 str         r3, [r2]
  0003c	e59d300c	 ldr         r3, [sp, #0xC]
  00040	e2833c06	 add         r3, r3, #6, 24
  00044	e2832048	 add         r2, r3, #0x48
  00048	e3a03000	 mov         r3, #0
  0004c	e5823000	 str         r3, [r2]
  00050	e59d300c	 ldr         r3, [sp, #0xC]
  00054	e2833c06	 add         r3, r3, #6, 24
  00058	e283204c	 add         r2, r3, #0x4C
  0005c	e3a03000	 mov         r3, #0
  00060	e5823000	 str         r3, [r2]

; 88   :         *m_szDll = NULL;

  00064	e59d300c	 ldr         r3, [sp, #0xC]
  00068	e2832008	 add         r2, r3, #8
  0006c	e3a03000	 mov         r3, #0
  00070	e1c230b0	 strh        r3, [r2]

; 89   :         *m_szRegKey = NULL;

  00074	e59d300c	 ldr         r3, [sp, #0xC]
  00078	e2832f85	 add         r2, r3, #0x85, 30
  0007c	e3a03000	 mov         r3, #0
  00080	e1c230b0	 strh        r3, [r2]

; 90   :         *m_szPolicyName = NULL;

  00084	e59d300c	 ldr         r3, [sp, #0xC]
  00088	e2833b01	 add         r3, r3, #1, 22
  0008c	e283201c	 add         r2, r3, #0x1C
  00090	e3a03000	 mov         r3, #0
  00094	e1c230b0	 strh        r3, [r2]

; 91   :         memset(&m_fns, 0, sizeof(PolicyAdapterFns));

  00098	e3a02024	 mov         r2, #0x24
  0009c	e3a01000	 mov         r1, #0
  000a0	e59d300c	 ldr         r3, [sp, #0xC]
  000a4	e2833c06	 add         r3, r3, #6, 24
  000a8	e2830024	 add         r0, r3, #0x24
  000ac	eb000000	 bl          memset

; 92   :     }

  000b0	e59d300c	 ldr         r3, [sp, #0xC]
  000b4	e58d3000	 str         r3, [sp]
  000b8	e59d0000	 ldr         r0, [sp]
  000bc	e28dd004	 add         sp, sp, #4
  000c0	e89d6000	 ldmia       sp, {sp, lr}
  000c4	e12fff1e	 bx          lr
  000c8		 |$M36556|

			 ENDP  ; |??0PolicyAdapter@@QAA@XZ|, PolicyAdapter::PolicyAdapter


  00000			 AREA	 |.pdata|, PDATA
|$T36566| DCD	|$LN5@GetAdapter|
	DCD	0x40000c04
; Function compile flags: /Odtp

  00000			 AREA	 |.text|, CODE, ARM

  00000		 |?GetAdapterId@PolicyAdapter@@QBAPBGXZ| PROC ; PolicyAdapter::GetAdapterId

; 117  :     {

  00000		 |$LN5@GetAdapter|
  00000	e1a0c00d	 mov         r12, sp
  00004	e92d0001	 stmdb       sp!, {r0}
  00008	e92d5000	 stmdb       sp!, {r12, lr}
  0000c	e24dd004	 sub         sp, sp, #4
  00010		 |$M36563|

; 118  :         return m_szPolicyName;

  00010	e59d300c	 ldr         r3, [sp, #0xC]
  00014	e2833b01	 add         r3, r3, #1, 22
  00018	e283301c	 add         r3, r3, #0x1C
  0001c	e58d3000	 str         r3, [sp]

; 119  :     }

  00020	e59d0000	 ldr         r0, [sp]
  00024	e28dd004	 add         sp, sp, #4
  00028	e89d6000	 ldmia       sp, {sp, lr}
  0002c	e12fff1e	 bx          lr
  00030		 |$M36564|

			 ENDP  ; |?GetAdapterId@PolicyAdapter@@QBAPBGXZ|, PolicyAdapter::GetAdapterId

	EXPORT	|??9iterator@?$list@PAVPolicyAdapter@@Vallocator@ce@@@ce@@QBA_NABV012@@Z| ; ce::list<PolicyAdapter *,ce::allocator>::iterator::operator!=
	EXPORT	|??$insert@PAVPolicyAdapter@@@?$list@PAVPolicyAdapter@@Vallocator@ce@@@ce@@QAA?AViterator@01@V201@ABQAVPolicyAdapter@@@Z| ; ce::list<PolicyAdapter *,ce::allocator>::insert<PolicyAdapter *>
	EXPORT	|?end@?$list@PAVPolicyAdapter@@Vallocator@ce@@@ce@@QAA?AViterator@12@XZ| ; ce::list<PolicyAdapter *,ce::allocator>::end
; File c:\wince600\public\common\oak\inc\list.hxx

  00000			 AREA	 |.pdata|, PDATA
|$T36577| DCD	|$LN5@push_back|
	DCD	0x40001f04
; Function compile flags: /Odtp

  00000			 AREA	 |.text|, CODE, ARM

  00000		 |??$push_back@PAVPolicyAdapter@@@?$list@PAVPolicyAdapter@@Vallocator@ce@@@ce@@QAA_NABQAVPolicyAdapter@@@Z| PROC ; ce::list<PolicyAdapter *,ce::allocator>::push_back<PolicyAdapter *>

; 444  :     bool push_back(const _Val& Value)

  00000		 |$LN5@push_back|
  00000	e1a0c00d	 mov         r12, sp
  00004	e92d0003	 stmdb       sp!, {r0, r1}
  00008	e92d5000	 stmdb       sp!, {r12, lr}
  0000c	e24dd024	 sub         sp, sp, #0x24
  00010		 |$M36574|
  00010	e28d1004	 add         r1, sp, #4
  00014	e59d002c	 ldr         r0, [sp, #0x2C]
  00018	eb000000	 bl          |?end@?$list@PAVPolicyAdapter@@Vallocator@ce@@@ce@@QAA?AViterator@12@XZ|
  0001c	e58d0010	 str         r0, [sp, #0x10]
  00020	e59d3030	 ldr         r3, [sp, #0x30]
  00024	e59d2010	 ldr         r2, [sp, #0x10]
  00028	e58d2014	 str         r2, [sp, #0x14]
  0002c	e59d2014	 ldr         r2, [sp, #0x14]
  00030	e5922000	 ldr         r2, [r2]
  00034	e28d1008	 add         r1, sp, #8
  00038	e59d002c	 ldr         r0, [sp, #0x2C]
  0003c	eb000000	 bl          |??$insert@PAVPolicyAdapter@@@?$list@PAVPolicyAdapter@@Vallocator@ce@@@ce@@QAA?AViterator@01@V201@ABQAVPolicyAdapter@@@Z|
  00040	e58d0018	 str         r0, [sp, #0x18]
  00044	e28d1000	 add         r1, sp, #0
  00048	e59d002c	 ldr         r0, [sp, #0x2C]
  0004c	eb000000	 bl          |?end@?$list@PAVPolicyAdapter@@Vallocator@ce@@@ce@@QAA?AViterator@12@XZ|
  00050	e58d001c	 str         r0, [sp, #0x1C]
  00054	e59d1018	 ldr         r1, [sp, #0x18]
  00058	e59d001c	 ldr         r0, [sp, #0x1C]
  0005c	eb000000	 bl          |??9iterator@?$list@PAVPolicyAdapter@@Vallocator@ce@@@ce@@QBA_NABV012@@Z|
  00060	e5cd0020	 strb        r0, [sp, #0x20]
  00064	e5dd3020	 ldrb        r3, [sp, #0x20]
  00068	e5cd300c	 strb        r3, [sp, #0xC]

; 445  :         {return end() != insert(end(), Value); }

  0006c	e5dd000c	 ldrb        r0, [sp, #0xC]
  00070	e28dd024	 add         sp, sp, #0x24
  00074	e89d6000	 ldmia       sp, {sp, lr}
  00078	e12fff1e	 bx          lr
  0007c		 |$M36575|

			 ENDP  ; |??$push_back@PAVPolicyAdapter@@@?$list@PAVPolicyAdapter@@Vallocator@ce@@@ce@@QAA_NABQAVPolicyAdapter@@@Z|, ce::list<PolicyAdapter *,ce::allocator>::push_back<PolicyAdapter *>

	EXPORT	|??0iterator@?$list@PAVPolicyAdapter@@Vallocator@ce@@@ce@@QAA@PAU_Node@12@@Z| ; ce::list<PolicyAdapter *,ce::allocator>::iterator::iterator

  00000			 AREA	 |.pdata|, PDATA
|$T36585| DCD	|$LN5@end|
	DCD	0x40000e04
; Function compile flags: /Odtp

  00000			 AREA	 |.text|, CODE, ARM

  00000		 |?end@?$list@PAVPolicyAdapter@@Vallocator@ce@@@ce@@QAA?AViterator@12@XZ| PROC ; ce::list<PolicyAdapter *,ce::allocator>::end

; 236  :         {return (iterator(_Head)); }

  00000		 |$LN5@end|
  00000	e1a0c00d	 mov         r12, sp
  00004	e92d0003	 stmdb       sp!, {r0, r1}
  00008	e92d5000	 stmdb       sp!, {r12, lr}
  0000c	e24dd004	 sub         sp, sp, #4
  00010		 |$M36582|
  00010	e59d300c	 ldr         r3, [sp, #0xC]
  00014	e5931000	 ldr         r1, [r3]
  00018	e59d0010	 ldr         r0, [sp, #0x10]
  0001c	eb000000	 bl          |??0iterator@?$list@PAVPolicyAdapter@@Vallocator@ce@@@ce@@QAA@PAU_Node@12@@Z|
  00020	e59d3010	 ldr         r3, [sp, #0x10]
  00024	e58d3000	 str         r3, [sp]
  00028	e59d0000	 ldr         r0, [sp]
  0002c	e28dd004	 add         sp, sp, #4
  00030	e89d6000	 ldmia       sp, {sp, lr}
  00034	e12fff1e	 bx          lr
  00038		 |$M36583|

			 ENDP  ; |?end@?$list@PAVPolicyAdapter@@Vallocator@ce@@@ce@@QAA?AViterator@12@XZ|, ce::list<PolicyAdapter *,ce::allocator>::end

	EXPORT	|??0const_iterator@?$list@PAVPolicyAdapter@@Vallocator@ce@@@ce@@QAA@PAU_Node@12@@Z| ; ce::list<PolicyAdapter *,ce::allocator>::const_iterator::const_iterator

  00000			 AREA	 |.pdata|, PDATA
|$T36593| DCD	|$LN5@iterator|
	DCD	0x40000d04
; Function compile flags: /Odtp

  00000			 AREA	 |.text|, CODE, ARM

  00000		 |??0iterator@?$list@PAVPolicyAdapter@@Vallocator@ce@@@ce@@QAA@PAU_Node@12@@Z| PROC ; ce::list<PolicyAdapter *,ce::allocator>::iterator::iterator

; 523  :         iterator(_NodePtr _P)

  00000		 |$LN5@iterator|
  00000	e1a0c00d	 mov         r12, sp
  00004	e92d0003	 stmdb       sp!, {r0, r1}
  00008	e92d5000	 stmdb       sp!, {r12, lr}
  0000c	e24dd004	 sub         sp, sp, #4
  00010		 |$M36590|
  00010	e59d1010	 ldr         r1, [sp, #0x10]
  00014	e59d000c	 ldr         r0, [sp, #0xC]
  00018	eb000000	 bl          |??0const_iterator@?$list@PAVPolicyAdapter@@Vallocator@ce@@@ce@@QAA@PAU_Node@12@@Z|
  0001c	e59d300c	 ldr         r3, [sp, #0xC]
  00020	e58d3000	 str         r3, [sp]
  00024	e59d0000	 ldr         r0, [sp]
  00028	e28dd004	 add         sp, sp, #4
  0002c	e89d6000	 ldmia       sp, {sp, lr}
  00030	e12fff1e	 bx          lr
  00034		 |$M36591|

			 ENDP  ; |??0iterator@?$list@PAVPolicyAdapter@@Vallocator@ce@@@ce@@QAA@PAU_Node@12@@Z|, ce::list<PolicyAdapter *,ce::allocator>::iterator::iterator

	EXPORT	|??8iterator@?$list@PAVPolicyAdapter@@Vallocator@ce@@@ce@@QBA_NABV012@@Z| ; ce::list<PolicyAdapter *,ce::allocator>::iterator::operator==

  00000			 AREA	 |.pdata|, PDATA
|$T36603| DCD	|$LN7@operator|
	DCD	0x40001704
; Function compile flags: /Odtp

  00000			 AREA	 |.text|, CODE, ARM

  00000		 |??9iterator@?$list@PAVPolicyAdapter@@Vallocator@ce@@@ce@@QBA_NABV012@@Z| PROC ; ce::list<PolicyAdapter *,ce::allocator>::iterator::operator!=

; 546  :             {return (!(*this == it)); }

  00000		 |$LN7@operator|
  00000	e1a0c00d	 mov         r12, sp
  00004	e92d0003	 stmdb       sp!, {r0, r1}
  00008	e92d5000	 stmdb       sp!, {r12, lr}
  0000c	e24dd00c	 sub         sp, sp, #0xC
  00010		 |$M36600|
  00010	e59d1018	 ldr         r1, [sp, #0x18]
  00014	e59d0014	 ldr         r0, [sp, #0x14]
  00018	eb000000	 bl          |??8iterator@?$list@PAVPolicyAdapter@@Vallocator@ce@@@ce@@QBA_NABV012@@Z|
  0001c	e5cd0004	 strb        r0, [sp, #4]
  00020	e5dd3004	 ldrb        r3, [sp, #4]
  00024	e3530000	 cmp         r3, #0
  00028	1a000002	 bne         |$LN3@operator|
  0002c	e3a03001	 mov         r3, #1
  00030	e58d3008	 str         r3, [sp, #8]
  00034	ea000001	 b           |$LN4@operator|
  00038		 |$LN3@operator|
  00038	e3a03000	 mov         r3, #0
  0003c	e58d3008	 str         r3, [sp, #8]
  00040		 |$LN4@operator|
  00040	e59d3008	 ldr         r3, [sp, #8]
  00044	e20330ff	 and         r3, r3, #0xFF
  00048	e5cd3000	 strb        r3, [sp]
  0004c	e5dd0000	 ldrb        r0, [sp]
  00050	e28dd00c	 add         sp, sp, #0xC
  00054	e89d6000	 ldmia       sp, {sp, lr}
  00058	e12fff1e	 bx          lr
  0005c		 |$M36601|

			 ENDP  ; |??9iterator@?$list@PAVPolicyAdapter@@Vallocator@ce@@@ce@@QBA_NABV012@@Z|, ce::list<PolicyAdapter *,ce::allocator>::iterator::operator!=


  00000			 AREA	 |.pdata|, PDATA
|$T36613| DCD	|$LN7@operator@2|
	DCD	0x40001604
; Function compile flags: /Odtp

  00000			 AREA	 |.text|, CODE, ARM

  00000		 |??8iterator@?$list@PAVPolicyAdapter@@Vallocator@ce@@@ce@@QBA_NABV012@@Z| PROC ; ce::list<PolicyAdapter *,ce::allocator>::iterator::operator==

; 544  :             {return (_Ptr == it._Ptr); }

  00000		 |$LN7@operator@2|
  00000	e1a0c00d	 mov         r12, sp
  00004	e92d0003	 stmdb       sp!, {r0, r1}
  00008	e92d5000	 stmdb       sp!, {r12, lr}
  0000c	e24dd008	 sub         sp, sp, #8
  00010		 |$M36610|
  00010	e59d3010	 ldr         r3, [sp, #0x10]
  00014	e5932000	 ldr         r2, [r3]
  00018	e59d3014	 ldr         r3, [sp, #0x14]
  0001c	e5933000	 ldr         r3, [r3]
  00020	e1520003	 cmp         r2, r3
  00024	1a000002	 bne         |$LN3@operator@2|
  00028	e3a03001	 mov         r3, #1
  0002c	e58d3004	 str         r3, [sp, #4]
  00030	ea000001	 b           |$LN4@operator@2|
  00034		 |$LN3@operator@2|
  00034	e3a03000	 mov         r3, #0
  00038	e58d3004	 str         r3, [sp, #4]
  0003c		 |$LN4@operator@2|
  0003c	e59d3004	 ldr         r3, [sp, #4]
  00040	e20330ff	 and         r3, r3, #0xFF
  00044	e5cd3000	 strb        r3, [sp]
  00048	e5dd0000	 ldrb        r0, [sp]
  0004c	e28dd008	 add         sp, sp, #8
  00050	e89d6000	 ldmia       sp, {sp, lr}
  00054	e12fff1e	 bx          lr
  00058		 |$M36611|

			 ENDP  ; |??8iterator@?$list@PAVPolicyAdapter@@Vallocator@ce@@@ce@@QBA_NABV012@@Z|, ce::list<PolicyAdapter *,ce::allocator>::iterator::operator==


  00000			 AREA	 |.pdata|, PDATA
|$T36621| DCD	|$LN5@const_iter|
	DCD	0x40000d04
; Function compile flags: /Odtp

  00000			 AREA	 |.text|, CODE, ARM

  00000		 |??0const_iterator@?$list@PAVPolicyAdapter@@Vallocator@ce@@@ce@@QAA@PAU_Node@12@@Z| PROC ; ce::list<PolicyAdapter *,ce::allocator>::const_iterator::const_iterator

; 484  :         const_iterator(_NodePtr _P)

  00000		 |$LN5@const_iter|
  00000	e1a0c00d	 mov         r12, sp
  00004	e92d0003	 stmdb       sp!, {r0, r1}
  00008	e92d5000	 stmdb       sp!, {r12, lr}
  0000c	e24dd004	 sub         sp, sp, #4
  00010		 |$M36618|
  00010	e59d2010	 ldr         r2, [sp, #0x10]
  00014	e59d300c	 ldr         r3, [sp, #0xC]
  00018	e5832000	 str         r2, [r3]
  0001c	e59d300c	 ldr         r3, [sp, #0xC]
  00020	e58d3000	 str         r3, [sp]
  00024	e59d0000	 ldr         r0, [sp]
  00028	e28dd004	 add         sp, sp, #4
  0002c	e89d6000	 ldmia       sp, {sp, lr}
  00030	e12fff1e	 bx          lr
  00034		 |$M36619|

			 ENDP  ; |??0const_iterator@?$list@PAVPolicyAdapter@@Vallocator@ce@@@ce@@QAA@PAU_Node@12@@Z|, ce::list<PolicyAdapter *,ce::allocator>::const_iterator::const_iterator

	EXPORT	|??2@YAPAXIPAX@Z|			; operator new
	EXPORT	|?_Buynode@?$list@PAVPolicyAdapter@@Vallocator@ce@@@ce@@IAAPAU_Node@12@PAU312@@Z| ; ce::list<PolicyAdapter *,ce::allocator>::_Buynode
	EXPORT	|?_MyNode@const_iterator@?$list@PAVPolicyAdapter@@Vallocator@ce@@@ce@@QBAPAU_Node@23@XZ| ; ce::list<PolicyAdapter *,ce::allocator>::const_iterator::_MyNode

  00000			 AREA	 |.pdata|, PDATA
|$T36632| DCD	|$LN8@insert|
	DCD	0x40003104
; Function compile flags: /Odtp

  00000			 AREA	 |.text|, CODE, ARM

  00000		 |??$insert@PAVPolicyAdapter@@@?$list@PAVPolicyAdapter@@Vallocator@ce@@@ce@@QAA?AViterator@01@V201@ABQAVPolicyAdapter@@@Z| PROC ; ce::list<PolicyAdapter *,ce::allocator>::insert<PolicyAdapter *>

; 269  :     iterator insert(iterator Where, const _Val& Value)

  00000		 |$LN8@insert|
  00000	e1a0c00d	 mov         r12, sp
  00004	e92d000f	 stmdb       sp!, {r0 - r3}
  00008	e92d5000	 stmdb       sp!, {r12, lr}
  0000c	e24dd01c	 sub         sp, sp, #0x1C
  00010		 |$M36629|

; 270  :     {
; 271  :         _NodePtr NewNode = _Buynode(Where._MyNode());

  00010	e28d002c	 add         r0, sp, #0x2C
  00014	eb000000	 bl          |?_MyNode@const_iterator@?$list@PAVPolicyAdapter@@Vallocator@ce@@@ce@@QBAPAU_Node@23@XZ|
  00018	e58d000c	 str         r0, [sp, #0xC]
  0001c	e59d100c	 ldr         r1, [sp, #0xC]
  00020	e59d0024	 ldr         r0, [sp, #0x24]
  00024	eb000000	 bl          |?_Buynode@?$list@PAVPolicyAdapter@@Vallocator@ce@@@ce@@IAAPAU_Node@12@PAU312@@Z|
  00028	e58d0010	 str         r0, [sp, #0x10]
  0002c	e59d3010	 ldr         r3, [sp, #0x10]
  00030	e58d3000	 str         r3, [sp]

; 272  :         
; 273  :         if(NewNode == NULL)

  00034	e59d3000	 ldr         r3, [sp]
  00038	e3530000	 cmp         r3, #0
  0003c	1a000005	 bne         |$LN1@insert|

; 274  :             return end();

  00040	e59d1028	 ldr         r1, [sp, #0x28]
  00044	e59d0024	 ldr         r0, [sp, #0x24]
  00048	eb000000	 bl          |?end@?$list@PAVPolicyAdapter@@Vallocator@ce@@@ce@@QAA?AViterator@12@XZ|
  0004c	e59d3028	 ldr         r3, [sp, #0x28]
  00050	e58d3008	 str         r3, [sp, #8]
  00054	ea000016	 b           |$LN2@insert|
  00058		 |$LN1@insert|

; 275  : 
; 276  :         // To avoid using operator& for type T (which may be overloaded)
; 277  :         // we are constructing item in the memory pointed to by NewNode.
; 278  :         // This assumes that _Value is the first member.
; 279  :         new (NewNode) T(Value);

  00058	e59d1000	 ldr         r1, [sp]
  0005c	e3a00004	 mov         r0, #4
  00060	eb000000	 bl          |??2@YAPAXIPAX@Z|
  00064	e58d0014	 str         r0, [sp, #0x14]
  00068	e59d3014	 ldr         r3, [sp, #0x14]
  0006c	e58d3004	 str         r3, [sp, #4]
  00070	e59d3004	 ldr         r3, [sp, #4]
  00074	e3530000	 cmp         r3, #0
  00078	0a000006	 beq         |$LN4@insert|
  0007c	e59d3030	 ldr         r3, [sp, #0x30]
  00080	e5932000	 ldr         r2, [r3]
  00084	e59d3004	 ldr         r3, [sp, #4]
  00088	e5832000	 str         r2, [r3]
  0008c	e59d3004	 ldr         r3, [sp, #4]
  00090	e58d3018	 str         r3, [sp, #0x18]
  00094	ea000001	 b           |$LN5@insert|
  00098		 |$LN4@insert|
  00098	e3a03000	 mov         r3, #0
  0009c	e58d3018	 str         r3, [sp, #0x18]
  000a0		 |$LN5@insert|

; 280  :         
; 281  :         return NewNode;

  000a0	e59d1000	 ldr         r1, [sp]
  000a4	e59d0028	 ldr         r0, [sp, #0x28]
  000a8	eb000000	 bl          |??0iterator@?$list@PAVPolicyAdapter@@Vallocator@ce@@@ce@@QAA@PAU_Node@12@@Z|
  000ac	e59d3028	 ldr         r3, [sp, #0x28]
  000b0	e58d3008	 str         r3, [sp, #8]
  000b4		 |$LN2@insert|

; 282  :     }

  000b4	e59d0008	 ldr         r0, [sp, #8]
  000b8	e28dd01c	 add         sp, sp, #0x1C
  000bc	e89d6000	 ldmia       sp, {sp, lr}
  000c0	e12fff1e	 bx          lr
  000c4		 |$M36630|

			 ENDP  ; |??$insert@PAVPolicyAdapter@@@?$list@PAVPolicyAdapter@@Vallocator@ce@@@ce@@QAA?AViterator@01@V201@ABQAVPolicyAdapter@@@Z|, ce::list<PolicyAdapter *,ce::allocator>::insert<PolicyAdapter *>

; File c:\wince600\public\common\sdk\inc\new

  00000			 AREA	 |.pdata|, PDATA
|$T36640| DCD	|$LN5@operator@3|
	DCD	0x40000a04
; Function compile flags: /Odtp

  00000			 AREA	 |.text|, CODE, ARM

  00000		 |??2@YAPAXIPAX@Z| PROC			; operator new

; 73   :     {return (_P); }

  00000		 |$LN5@operator@3|
  00000	e1a0c00d	 mov         r12, sp
  00004	e92d0003	 stmdb       sp!, {r0, r1}
  00008	e92d5000	 stmdb       sp!, {r12, lr}
  0000c	e24dd004	 sub         sp, sp, #4
  00010		 |$M36637|
  00010	e59d3010	 ldr         r3, [sp, #0x10]
  00014	e58d3000	 str         r3, [sp]
  00018	e59d0000	 ldr         r0, [sp]
  0001c	e28dd004	 add         sp, sp, #4
  00020	e89d6000	 ldmia       sp, {sp, lr}
  00024	e12fff1e	 bx          lr
  00028		 |$M36638|

			 ENDP  ; |??2@YAPAXIPAX@Z|, operator new

; File c:\wince600\public\common\oak\inc\list.hxx

  00000			 AREA	 |.pdata|, PDATA
|$T36648| DCD	|$LN5@MyNode|
	DCD	0x40000b04
; Function compile flags: /Odtp

  00000			 AREA	 |.text|, CODE, ARM

  00000		 |?_MyNode@const_iterator@?$list@PAVPolicyAdapter@@Vallocator@ce@@@ce@@QBAPAU_Node@23@XZ| PROC ; ce::list<PolicyAdapter *,ce::allocator>::const_iterator::_MyNode

; 511  :             {return (_Ptr); }

  00000		 |$LN5@MyNode|
  00000	e1a0c00d	 mov         r12, sp
  00004	e92d0001	 stmdb       sp!, {r0}
  00008	e92d5000	 stmdb       sp!, {r12, lr}
  0000c	e24dd004	 sub         sp, sp, #4
  00010		 |$M36645|
  00010	e59d300c	 ldr         r3, [sp, #0xC]
  00014	e5933000	 ldr         r3, [r3]
  00018	e58d3000	 str         r3, [sp]
  0001c	e59d0000	 ldr         r0, [sp]
  00020	e28dd004	 add         sp, sp, #4
  00024	e89d6000	 ldmia       sp, {sp, lr}
  00028	e12fff1e	 bx          lr
  0002c		 |$M36646|

			 ENDP  ; |?_MyNode@const_iterator@?$list@PAVPolicyAdapter@@Vallocator@ce@@@ce@@QBAPAU_Node@23@XZ|, ce::list<PolicyAdapter *,ce::allocator>::const_iterator::_MyNode

	EXPORT	|?allocate@allocator@ce@@QBAPAXI@Z|	; ce::allocator::allocate
	EXPORT	|??_C@_1LO@JDHEDOPL@?$AA?$AN?$AA?6?$AA?$CK?$AA?$CK?$AA?$CK?$AA?5?$AAA?$AAS?$AAS?$AAE?$AAR?$AAT?$AAI?$AAO?$AAN?$AA?5?$AAF?$AAA?$AAI?$AAL?$AAE?$AAD?$AA?5?$AAi?$AAn?$AA?5?$AAC?$AA?3?$AA?2?$AAW?$AAI?$AAN@| [ DATA ] ; `string'
	EXPORT	|??_C@_1LA@EKOJONDG@?$AA?$AN?$AA?6?$AA?$CK?$AA?$CK?$AA?$CK?$AA?5?$AAA?$AAS?$AAS?$AAE?$AAR?$AAT?$AAI?$AAO?$AAN?$AA?5?$AAF?$AAA?$AAI?$AAL?$AAE?$AAD?$AA?5?$AAi?$AAn?$AA?5?$AAC?$AA?3?$AA?2?$AAW?$AAI?$AAN@| [ DATA ] ; `string'
	IMPORT	|OutputDebugStringW|

  00000			 AREA	 |.pdata|, PDATA
|$T36658| DCD	|$LN9@Buynode|
	DCD	0x40004204

  00000			 AREA	 |.rdata|, DATA, READONLY
|??_C@_1LO@JDHEDOPL@?$AA?$AN?$AA?6?$AA?$CK?$AA?$CK?$AA?$CK?$AA?5?$AAA?$AAS?$AAS?$AAE?$AAR?$AAT?$AAI?$AAO?$AAN?$AA?5?$AAF?$AAA?$AAI?$AAL?$AAE?$AAD?$AA?5?$AAi?$AAn?$AA?5?$AAC?$AA?3?$AA?2?$AAW?$AAI?$AAN@| DCB 0xd
	DCB	0x0, 0xa, 0x0, "*", 0x0, "*", 0x0, "*", 0x0, " ", 0x0, "A"
	DCB	0x0, "S", 0x0, "S", 0x0, "E", 0x0, "R", 0x0, "T", 0x0, "I"
	DCB	0x0, "O", 0x0, "N", 0x0, " ", 0x0, "F", 0x0, "A", 0x0, "I"
	DCB	0x0, "L", 0x0, "E", 0x0, "D", 0x0, " ", 0x0, "i", 0x0, "n"
	DCB	0x0, " ", 0x0, "C", 0x0, ":", 0x0, "\\", 0x0, "W", 0x0, "I"
	DCB	0x0, "N", 0x0, "C", 0x0, "E", 0x0, "6", 0x0, "0", 0x0, "0"
	DCB	0x0, "\\", 0x0, "p", 0x0, "u", 0x0, "b", 0x0, "l", 0x0, "i"
	DCB	0x0, "c", 0x0, "\\", 0x0, "c", 0x0, "o", 0x0, "m", 0x0, "m"
	DCB	0x0, "o", 0x0, "n", 0x0, "\\", 0x0, "o", 0x0, "a", 0x0, "k"
	DCB	0x0, "\\", 0x0, "i", 0x0, "n", 0x0, "c", 0x0, "\\", 0x0, "l"
	DCB	0x0, "i", 0x0, "s", 0x0, "t", 0x0, ".", 0x0, "h", 0x0, "x"
	DCB	0x0, "x", 0x0, "(", 0x0, "5", 0x0, "5", 0x0, "4", 0x0, ")"
	DCB	0x0, ":", 0x0, 0xd, 0x0, 0xa, 0x0, "W", 0x0, "h", 0x0, "e"
	DCB	0x0, "r", 0x0, "e", 0x0, "N", 0x0, "o", 0x0, "d", 0x0, "e"
	DCB	0x0, "-", 0x0, ">", 0x0, "_", 0x0, "P", 0x0, "r", 0x0, "e"
	DCB	0x0, "v", 0x0, 0xd, 0x0, 0xa, 0x0, 0x0, 0x0 ; `string'

  00000			 AREA	 |.rdata|, DATA, READONLY
|??_C@_1LA@EKOJONDG@?$AA?$AN?$AA?6?$AA?$CK?$AA?$CK?$AA?$CK?$AA?5?$AAA?$AAS?$AAS?$AAE?$AAR?$AAT?$AAI?$AAO?$AAN?$AA?5?$AAF?$AAA?$AAI?$AAL?$AAE?$AAD?$AA?5?$AAi?$AAn?$AA?5?$AAC?$AA?3?$AA?2?$AAW?$AAI?$AAN@| DCB 0xd
	DCB	0x0, 0xa, 0x0, "*", 0x0, "*", 0x0, "*", 0x0, " ", 0x0, "A"
	DCB	0x0, "S", 0x0, "S", 0x0, "E", 0x0, "R", 0x0, "T", 0x0, "I"
	DCB	0x0, "O", 0x0, "N", 0x0, " ", 0x0, "F", 0x0, "A", 0x0, "I"
	DCB	0x0, "L", 0x0, "E", 0x0, "D", 0x0, " ", 0x0, "i", 0x0, "n"
	DCB	0x0, " ", 0x0, "C", 0x0, ":", 0x0, "\\", 0x0, "W", 0x0, "I"
	DCB	0x0, "N", 0x0, "C", 0x0, "E", 0x0, "6", 0x0, "0", 0x0, "0"
	DCB	0x0, "\\", 0x0, "p", 0x0, "u", 0x0, "b", 0x0, "l", 0x0, "i"
	DCB	0x0, "c", 0x0, "\\", 0x0, "c", 0x0, "o", 0x0, "m", 0x0, "m"
	DCB	0x0, "o", 0x0, "n", 0x0, "\\", 0x0, "o", 0x0, "a", 0x0, "k"
	DCB	0x0, "\\", 0x0, "i", 0x0, "n", 0x0, "c", 0x0, "\\", 0x0, "l"
	DCB	0x0, "i", 0x0, "s", 0x0, "t", 0x0, ".", 0x0, "h", 0x0, "x"
	DCB	0x0, "x", 0x0, "(", 0x0, "5", 0x0, "5", 0x0, "2", 0x0, ")"
	DCB	0x0, ":", 0x0, 0xd, 0x0, 0xa, 0x0, "W", 0x0, "h", 0x0, "e"
	DCB	0x0, "r", 0x0, "e", 0x0, "N", 0x0, "o", 0x0, "d", 0x0, "e"
	DCB	0x0, 0xd, 0x0, 0xa, 0x0, 0x0, 0x0	; `string'
; Function compile flags: /Odtp

  00000			 AREA	 |.text|, CODE, ARM

  00000		 |?_Buynode@?$list@PAVPolicyAdapter@@Vallocator@ce@@@ce@@IAAPAU_Node@12@PAU312@@Z| PROC ; ce::list<PolicyAdapter *,ce::allocator>::_Buynode

; 551  :     {

  00000		 |$LN9@Buynode|
  00000	e1a0c00d	 mov         r12, sp
  00004	e92d0003	 stmdb       sp!, {r0, r1}
  00008	e92d5000	 stmdb       sp!, {r12, lr}
  0000c	e24dd00c	 sub         sp, sp, #0xC
  00010		 |$M36655|

; 552  :         assert(WhereNode);

  00010	e59d3018	 ldr         r3, [sp, #0x18]
  00014	e3530000	 cmp         r3, #0
  00018	1a000002	 bne         |$LN5@Buynode|
  0001c	e59f00e0	 ldr         r0, [pc, #0xE0]
  00020	eb000000	 bl          OutputDebugStringW
  00024	e6000010	 __debugbreak_ce
  00028		 |$LN5@Buynode|

; 553  :         __assume(WhereNode);
; 554  :         assert(WhereNode->_Prev);

  00028	e59d3018	 ldr         r3, [sp, #0x18]
  0002c	e2833008	 add         r3, r3, #8
  00030	e5933000	 ldr         r3, [r3]
  00034	e3530000	 cmp         r3, #0
  00038	1a000002	 bne         |$LN6@Buynode|
  0003c	e59f00bc	 ldr         r0, [pc, #0xBC]
  00040	eb000000	 bl          OutputDebugStringW
  00044	e6000010	 __debugbreak_ce
  00048		 |$LN6@Buynode|

; 555  :         __assume(WhereNode->_Prev);
; 556  :         
; 557  :         if(_NodePtr NewNode = (_NodePtr)allocate(sizeof(_Node)))

  00048	e3a0100c	 mov         r1, #0xC
  0004c	e59d0014	 ldr         r0, [sp, #0x14]
  00050	eb000000	 bl          |?allocate@allocator@ce@@QBAPAXI@Z|
  00054	e58d0008	 str         r0, [sp, #8]
  00058	e59d3008	 ldr         r3, [sp, #8]
  0005c	e58d3000	 str         r3, [sp]
  00060	e59d3000	 ldr         r3, [sp]
  00064	e3530000	 cmp         r3, #0
  00068	0a00001e	 beq         |$LN2@Buynode|

; 558  :         {
; 559  :             NewNode->_Next = WhereNode;

  0006c	e59d3000	 ldr         r3, [sp]
  00070	e2832004	 add         r2, r3, #4
  00074	e59d3018	 ldr         r3, [sp, #0x18]
  00078	e5823000	 str         r3, [r2]

; 560  :             NewNode->_Prev = WhereNode->_Prev;

  0007c	e59d3018	 ldr         r3, [sp, #0x18]
  00080	e2831008	 add         r1, r3, #8
  00084	e59d3000	 ldr         r3, [sp]
  00088	e2832008	 add         r2, r3, #8
  0008c	e5913000	 ldr         r3, [r1]
  00090	e5823000	 str         r3, [r2]

; 561  :             
; 562  :             WhereNode->_Prev->_Next = NewNode;

  00094	e59d3018	 ldr         r3, [sp, #0x18]
  00098	e2833008	 add         r3, r3, #8
  0009c	e5933000	 ldr         r3, [r3]
  000a0	e2832004	 add         r2, r3, #4
  000a4	e59d3000	 ldr         r3, [sp]
  000a8	e5823000	 str         r3, [r2]

; 563  :             WhereNode->_Prev = NewNode;

  000ac	e59d3018	 ldr         r3, [sp, #0x18]
  000b0	e2832008	 add         r2, r3, #8
  000b4	e59d3000	 ldr         r3, [sp]
  000b8	e5823000	 str         r3, [r2]

; 564  :             
; 565  :             ++_Size;

  000bc	e59d3014	 ldr         r3, [sp, #0x14]
  000c0	e283300c	 add         r3, r3, #0xC
  000c4	e5933000	 ldr         r3, [r3]
  000c8	e2832001	 add         r2, r3, #1
  000cc	e59d3014	 ldr         r3, [sp, #0x14]
  000d0	e283300c	 add         r3, r3, #0xC
  000d4	e5832000	 str         r2, [r3]

; 566  :             
; 567  :             return NewNode;

  000d8	e59d3000	 ldr         r3, [sp]
  000dc	e58d3004	 str         r3, [sp, #4]
  000e0	ea000002	 b           |$LN3@Buynode|

; 568  :         }
; 569  :         else

  000e4	ea000001	 b           |$LN1@Buynode|
  000e8		 |$LN2@Buynode|

; 570  :             return NULL;

  000e8	e3a03000	 mov         r3, #0
  000ec	e58d3004	 str         r3, [sp, #4]
  000f0		 |$LN1@Buynode|
  000f0		 |$LN3@Buynode|

; 571  :     }

  000f0	e59d0004	 ldr         r0, [sp, #4]
  000f4	e28dd00c	 add         sp, sp, #0xC
  000f8	e89d6000	 ldmia       sp, {sp, lr}
  000fc	e12fff1e	 bx          lr
  00100		 |$LN10@Buynode|
  00100		 |$LN11@Buynode|
  00100	00000000	 DCD         |??_C@_1LO@JDHEDOPL@?$AA?$AN?$AA?6?$AA?$CK?$AA?$CK?$AA?$CK?$AA?5?$AAA?$AAS?$AAS?$AAE?$AAR?$AAT?$AAI?$AAO?$AAN?$AA?5?$AAF?$AAA?$AAI?$AAL?$AAE?$AAD?$AA?5?$AAi?$AAn?$AA?5?$AAC?$AA?3?$AA?2?$AAW?$AAI?$AAN@|
  00104		 |$LN12@Buynode|
  00104	00000000	 DCD         |??_C@_1LA@EKOJONDG@?$AA?$AN?$AA?6?$AA?$CK?$AA?$CK?$AA?$CK?$AA?5?$AAA?$AAS?$AAS?$AAE?$AAR?$AAT?$AAI?$AAO?$AAN?$AA?5?$AAF?$AAA?$AAI?$AAL?$AAE?$AAD?$AA?5?$AAi?$AAn?$AA?5?$AAC?$AA?3?$AA?2?$AAW?$AAI?$AAN@|
  00108		 |$M36656|

			 ENDP  ; |?_Buynode@?$list@PAVPolicyAdapter@@Vallocator@ce@@@ce@@IAAPAU_Node@12@PAU312@@Z|, ce::list<PolicyAdapter *,ce::allocator>::_Buynode

; File c:\wince600\public\common\oak\inc\allocator.hxx

  00000			 AREA	 |.pdata|, PDATA
|$T36669| DCD	|$LN5@allocate|
	DCD	0x40000d04
; Function compile flags: /Odtp

  00000			 AREA	 |.text|, CODE, ARM

  00000		 |?allocate@allocator@ce@@QBAPAXI@Z| PROC ; ce::allocator::allocate

; 106  :         {return operator new(Size); }

  00000		 |$LN5@allocate|
  00000	e1a0c00d	 mov         r12, sp
  00004	e92d0003	 stmdb       sp!, {r0, r1}
  00008	e92d5000	 stmdb       sp!, {r12, lr}
  0000c	e24dd008	 sub         sp, sp, #8
  00010		 |$M36666|
  00010	e59d0014	 ldr         r0, [sp, #0x14]
  00014	eb000000	 bl          |??2@YAPAXI@Z|
  00018	e58d0004	 str         r0, [sp, #4]
  0001c	e59d3004	 ldr         r3, [sp, #4]
  00020	e58d3000	 str         r3, [sp]
  00024	e59d0000	 ldr         r0, [sp]
  00028	e28dd008	 add         sp, sp, #8
  0002c	e89d6000	 ldmia       sp, {sp, lr}
  00030	e12fff1e	 bx          lr
  00034		 |$M36667|

			 ENDP  ; |?allocate@allocator@ce@@QBAPAXI@Z|, ce::allocator::allocate

	EXPORT	|??0lock_factory@?$singleton@V?$free_list@$0GE@Vallocator@ce@@@ce@@$03V?$static_allocator@V?$free_list@$0GE@Vallocator@ce@@@ce@@$03@2@@ce@@QAA@XZ| ; ce::singleton<ce::free_list<100,ce::allocator>,4,ce::static_allocator<ce::free_list<100,ce::allocator>,4> >::lock_factory::lock_factory
; File c:\wince600\public\common\oak\inc\singleton.hxx

  00000			 AREA	 |.pdata|, PDATA
|$T36676| DCD	|$LN5@factory|
	DCD	0x40000601
; Function compile flags: /Odtp

  00000			 AREA	 |.text$yc|, CODE, ARM

  00000		 |??__E?_factory@?$singleton@V?$free_list@$0GE@Vallocator@ce@@@ce@@$03V?$static_allocator@V?$free_list@$0GE@Vallocator@ce@@@ce@@$03@2@@ce@@1Ulock_factory@12@A@@YAXXZ| PROC ; `dynamic initializer for 'ce::singleton<ce::free_list<100,ce::allocator>,4,ce::static_allocator<ce::free_list<100,ce::allocator>,4> >::_factory''

; 390  :     {

  00000		 |$LN5@factory|
  00000	e52de004	 str         lr, [sp, #-4]!
  00004		 |$M36673|
  00004	e59f0008	 ldr         r0, [pc, #8]
  00008	eb000000	 bl          |??0lock_factory@?$singleton@V?$free_list@$0GE@Vallocator@ce@@@ce@@$03V?$static_allocator@V?$free_list@$0GE@Vallocator@ce@@@ce@@$03@2@@ce@@QAA@XZ|
  0000c	e49de004	 ldr         lr, [sp], #4
  00010	e12fff1e	 bx          lr
  00014		 |$LN6@factory|
  00014		 |$LN7@factory|
  00014	00000000	 DCD         |?_factory@?$singleton@V?$free_list@$0GE@Vallocator@ce@@@ce@@$03V?$static_allocator@V?$free_list@$0GE@Vallocator@ce@@@ce@@$03@2@@ce@@1Ulock_factory@12@A|
  00018		 |$M36674|

			 ENDP  ; |??__E?_factory@?$singleton@V?$free_list@$0GE@Vallocator@ce@@@ce@@$03V?$static_allocator@V?$free_list@$0GE@Vallocator@ce@@@ce@@$03@2@@ce@@1Ulock_factory@12@A@@YAXXZ|, `dynamic initializer for 'ce::singleton<ce::free_list<100,ce::allocator>,4,ce::static_allocator<ce::free_list<100,ce::allocator>,4> >::_factory''

	EXPORT	|?get_lock@?$singleton@V?$free_list@$0GE@Vallocator@ce@@@ce@@$03V?$static_allocator@V?$free_list@$0GE@Vallocator@ce@@@ce@@$03@2@@ce@@KAAAVcritical_section@2@XZ| ; ce::singleton<ce::free_list<100,ce::allocator>,4,ce::static_allocator<ce::free_list<100,ce::allocator>,4> >::get_lock

  00000			 AREA	 |.pdata|, PDATA
|$T36686| DCD	|$LN5@lock_facto|
	DCD	0x40000b04
; Function compile flags: /Odtp

  00000			 AREA	 |.text|, CODE, ARM

  00000		 |??0lock_factory@?$singleton@V?$free_list@$0GE@Vallocator@ce@@@ce@@$03V?$static_allocator@V?$free_list@$0GE@Vallocator@ce@@@ce@@$03@2@@ce@@QAA@XZ| PROC ; ce::singleton<ce::free_list<100,ce::allocator>,4,ce::static_allocator<ce::free_list<100,ce::allocator>,4> >::lock_factory::lock_factory

; 339  :         lock_factory()

  00000		 |$LN5@lock_facto|
  00000	e1a0c00d	 mov         r12, sp
  00004	e92d0001	 stmdb       sp!, {r0}
  00008	e92d5000	 stmdb       sp!, {r12, lr}
  0000c	e24dd004	 sub         sp, sp, #4
  00010		 |$M36683|
  00010	eb000000	 bl          |?get_lock@?$singleton@V?$free_list@$0GE@Vallocator@ce@@@ce@@$03V?$static_allocator@V?$free_list@$0GE@Vallocator@ce@@@ce@@$03@2@@ce@@KAAAVcritical_section@2@XZ|

; 340  :             {get_lock(); }

  00014	e59d300c	 ldr         r3, [sp, #0xC]
  00018	e58d3000	 str         r3, [sp]
  0001c	e59d0000	 ldr         r0, [sp]
  00020	e28dd004	 add         sp, sp, #4
  00024	e89d6000	 ldmia       sp, {sp, lr}
  00028	e12fff1e	 bx          lr
  0002c		 |$M36684|

			 ENDP  ; |??0lock_factory@?$singleton@V?$free_list@$0GE@Vallocator@ce@@@ce@@$03V?$static_allocator@V?$free_list@$0GE@Vallocator@ce@@@ce@@$03@2@@ce@@QAA@XZ|, ce::singleton<ce::free_list<100,ce::allocator>,4,ce::static_allocator<ce::free_list<100,ce::allocator>,4> >::lock_factory::lock_factory

	EXPORT	|??__Fcs@?1??get_lock@?$singleton@V?$free_list@$0GE@Vallocator@ce@@@ce@@$03V?$static_allocator@V?$free_list@$0GE@Vallocator@ce@@@ce@@$03@2@@ce@@KAAAVcritical_section@2@XZ@YAXXZ| ; `ce::singleton<ce::free_list<100,ce::allocator>,4,ce::static_allocator<ce::free_list<100,ce::allocator>,4> >::get_lock'::`2'::`dynamic atexit destructor for 'cs''
	EXPORT	|??0critical_section@ce@@QAA@XZ|	; ce::critical_section::critical_section
	EXPORT	|?cs@?1??get_lock@?$singleton@V?$free_list@$0GE@Vallocator@ce@@@ce@@$03V?$static_allocator@V?$free_list@$0GE@Vallocator@ce@@@ce@@$03@2@@ce@@KAAAVcritical_section@3@XZ@4V43@A| [ DATA ] ; `ce::singleton<ce::free_list<100,ce::allocator>,4,ce::static_allocator<ce::free_list<100,ce::allocator>,4> >::get_lock'::`2'::cs
	EXPORT	|??_B?1??get_lock@?$singleton@V?$free_list@$0GE@Vallocator@ce@@@ce@@$03V?$static_allocator@V?$free_list@$0GE@Vallocator@ce@@@ce@@$03@2@@ce@@KAAAVcritical_section@2@XZ@51| [ DATA ] ; `ce::singleton<ce::free_list<100,ce::allocator>,4,ce::static_allocator<ce::free_list<100,ce::allocator>,4> >::get_lock'::`2'::`local static guard'
	IMPORT	|atexit|

  00000			 AREA	 |.bss|, NOINIT
|?cs@?1??get_lock@?$singleton@V?$free_list@$0GE@Vallocator@ce@@@ce@@$03V?$static_allocator@V?$free_list@$0GE@Vallocator@ce@@@ce@@$03@2@@ce@@KAAAVcritical_section@3@XZ@4V43@A| % 0x14 ; `ce::singleton<ce::free_list<100,ce::allocator>,4,ce::static_allocator<ce::free_list<100,ce::allocator>,4> >::get_lock'::`2'::cs

  00000			 AREA	 |.bss|, NOINIT
|??_B?1??get_lock@?$singleton@V?$free_list@$0GE@Vallocator@ce@@@ce@@$03V?$static_allocator@V?$free_list@$0GE@Vallocator@ce@@@ce@@$03@2@@ce@@KAAAVcritical_section@2@XZ@51| % 0x4 ; `ce::singleton<ce::free_list<100,ce::allocator>,4,ce::static_allocator<ce::free_list<100,ce::allocator>,4> >::get_lock'::`2'::`local static guard'

  00000			 AREA	 |.pdata|, PDATA
|$T36694| DCD	|$LN6@get_lock|
	DCD	0x40001b02
; Function compile flags: /Odtp

  00000			 AREA	 |.text|, CODE, ARM

  00000		 |?get_lock@?$singleton@V?$free_list@$0GE@Vallocator@ce@@@ce@@$03V?$static_allocator@V?$free_list@$0GE@Vallocator@ce@@@ce@@$03@2@@ce@@KAAAVcritical_section@2@XZ| PROC ; ce::singleton<ce::free_list<100,ce::allocator>,4,ce::static_allocator<ce::free_list<100,ce::allocator>,4> >::get_lock

; 320  :     {

  00000		 |$LN6@get_lock|
  00000	e52de004	 str         lr, [sp, #-4]!
  00004	e24dd008	 sub         sp, sp, #8
  00008		 |$M36691|

; 321  :         static critical_section cs;

  00008	e59f3058	 ldr         r3, [pc, #0x58]
  0000c	e5933000	 ldr         r3, [r3]
  00010	e3130001	 tst         r3, #1
  00014	1a000008	 bne         |$LN1@get_lock|
  00018	e59f3048	 ldr         r3, [pc, #0x48]
  0001c	e5933000	 ldr         r3, [r3]
  00020	e3832001	 orr         r2, r3, #1
  00024	e59f303c	 ldr         r3, [pc, #0x3C]
  00028	e5832000	 str         r2, [r3]
  0002c	e59f0028	 ldr         r0, [pc, #0x28]
  00030	eb000000	 bl          |??0critical_section@ce@@QAA@XZ|
  00034	e59f0028	 ldr         r0, [pc, #0x28]
  00038	eb000000	 bl          atexit
  0003c		 |$LN1@get_lock|

; 322  :         
; 323  :         //
; 324  :         // This statement forces compiler to instantiate _factory member
; 325  :         // thus assuring that lock_factory ctor is called. 
; 326  :         //
; 327  :         lock_factory* volatile p = &_factory;

  0003c	e59f301c	 ldr         r3, [pc, #0x1C]
  00040	e58d3000	 str         r3, [sp]

; 328  : 
; 329  :         return cs;

  00044	e59f3010	 ldr         r3, [pc, #0x10]
  00048	e58d3004	 str         r3, [sp, #4]

; 330  :     }

  0004c	e59d0004	 ldr         r0, [sp, #4]
  00050	e28dd008	 add         sp, sp, #8
  00054	e49de004	 ldr         lr, [sp], #4
  00058	e12fff1e	 bx          lr
  0005c		 |$LN7@get_lock|
  0005c		 |$LN8@get_lock|
  0005c	00000000	 DCD         |?cs@?1??get_lock@?$singleton@V?$free_list@$0GE@Vallocator@ce@@@ce@@$03V?$static_allocator@V?$free_list@$0GE@Vallocator@ce@@@ce@@$03@2@@ce@@KAAAVcritical_section@3@XZ@4V43@A|
  00060		 |$LN9@get_lock|
  00060	00000000	 DCD         |?_factory@?$singleton@V?$free_list@$0GE@Vallocator@ce@@@ce@@$03V?$static_allocator@V?$free_list@$0GE@Vallocator@ce@@@ce@@$03@2@@ce@@1Ulock_factory@12@A|
  00064		 |$LN10@get_lock|
  00064	00000000	 DCD         |??__Fcs@?1??get_lock@?$singleton@V?$free_list@$0GE@Vallocator@ce@@@ce@@$03V?$static_allocator@V?$free_list@$0GE@Vallocator@ce@@@ce@@$03@2@@ce@@KAAAVcritical_section@2@XZ@YAXXZ|
  00068		 |$LN11@get_lock|
  00068	00000000	 DCD         |??_B?1??get_lock@?$singleton@V?$free_list@$0GE@Vallocator@ce@@@ce@@$03V?$static_allocator@V?$free_list@$0GE@Vallocator@ce@@@ce@@$03@2@@ce@@KAAAVcritical_section@2@XZ@51|
  0006c		 |$M36692|

			 ENDP  ; |?get_lock@?$singleton@V?$free_list@$0GE@Vallocator@ce@@@ce@@$03V?$static_allocator@V?$free_list@$0GE@Vallocator@ce@@@ce@@$03@2@@ce@@KAAAVcritical_section@2@XZ|, ce::singleton<ce::free_list<100,ce::allocator>,4,ce::static_allocator<ce::free_list<100,ce::allocator>,4> >::get_lock

	IMPORT	|InitializeCriticalSection|
; File c:\wince600\public\common\oak\inc\sync.hxx

  00000			 AREA	 |.pdata|, PDATA
|$T36707| DCD	|$LN5@critical_s|
	DCD	0x40000c04
; Function compile flags: /Odtp

  00000			 AREA	 |.text|, CODE, ARM

  00000		 |??0critical_section@ce@@QAA@XZ| PROC	; ce::critical_section::critical_section

; 125  :     critical_section()

  00000		 |$LN5@critical_s|
  00000	e1a0c00d	 mov         r12, sp
  00004	e92d0001	 stmdb       sp!, {r0}
  00008	e92d5000	 stmdb       sp!, {r12, lr}
  0000c	e24dd004	 sub         sp, sp, #4
  00010		 |$M36704|
  00010	e59d000c	 ldr         r0, [sp, #0xC]
  00014	eb000000	 bl          InitializeCriticalSection
  00018	e59d300c	 ldr         r3, [sp, #0xC]
  0001c	e58d3000	 str         r3, [sp]
  00020	e59d0000	 ldr         r0, [sp]
  00024	e28dd004	 add         sp, sp, #4
  00028	e89d6000	 ldmia       sp, {sp, lr}
  0002c	e12fff1e	 bx          lr
  00030		 |$M36705|

			 ENDP  ; |??0critical_section@ce@@QAA@XZ|, ce::critical_section::critical_section

	EXPORT	|??1critical_section@ce@@QAA@XZ|	; ce::critical_section::~critical_section

  00000			 AREA	 |.pdata|, PDATA
|$T36714| DCD	|$LN5@dynamic|
	DCD	0x40000601
; Function compile flags: /Odtp

  00000			 AREA	 |.text$yd|, CODE, ARM

  00000		 |??__Fcs@?1??get_lock@?$singleton@V?$free_list@$0GE@Vallocator@ce@@@ce@@$03V?$static_allocator@V?$free_list@$0GE@Vallocator@ce@@@ce@@$03@2@@ce@@KAAAVcritical_section@2@XZ@YAXXZ| PROC ; `ce::singleton<ce::free_list<100,ce::allocator>,4,ce::static_allocator<ce::free_list<100,ce::allocator>,4> >::get_lock'::`2'::`dynamic atexit destructor for 'cs''
  00000		 |$LN5@dynamic|
  00000	e52de004	 str         lr, [sp, #-4]!
  00004		 |$M36711|
  00004	e59f0008	 ldr         r0, [pc, #8]
  00008	eb000000	 bl          |??1critical_section@ce@@QAA@XZ|
  0000c	e49de004	 ldr         lr, [sp], #4
  00010	e12fff1e	 bx          lr
  00014		 |$LN6@dynamic|
  00014		 |$LN7@dynamic|
  00014	00000000	 DCD         |?cs@?1??get_lock@?$singleton@V?$free_list@$0GE@Vallocator@ce@@@ce@@$03V?$static_allocator@V?$free_list@$0GE@Vallocator@ce@@@ce@@$03@2@@ce@@KAAAVcritical_section@3@XZ@4V43@A|
  00018		 |$M36712|

			 ENDP  ; |??__Fcs@?1??get_lock@?$singleton@V?$free_list@$0GE@Vallocator@ce@@@ce@@$03V?$static_allocator@V?$free_list@$0GE@Vallocator@ce@@@ce@@$03@2@@ce@@KAAAVcritical_section@2@XZ@YAXXZ|, `ce::singleton<ce::free_list<100,ce::allocator>,4,ce::static_allocator<ce::free_list<100,ce::allocator>,4> >::get_lock'::`2'::`dynamic atexit destructor for 'cs''

	IMPORT	|DeleteCriticalSection|

  00000			 AREA	 |.pdata|, PDATA
|$T36723| DCD	|$LN5@critical_s@2|
	DCD	0x40000703
; Function compile flags: /Odtp

  00000			 AREA	 |.text|, CODE, ARM

  00000		 |??1critical_section@ce@@QAA@XZ| PROC	; ce::critical_section::~critical_section

; 129  :         {DeleteCriticalSection(this); }

  00000		 |$LN5@critical_s@2|
  00000	e1a0c00d	 mov         r12, sp
  00004	e92d0001	 stmdb       sp!, {r0}
  00008	e92d5000	 stmdb       sp!, {r12, lr}
  0000c		 |$M36720|
  0000c	e59d0008	 ldr         r0, [sp, #8]
  00010	eb000000	 bl          DeleteCriticalSection
  00014	e89d6000	 ldmia       sp, {sp, lr}
  00018	e12fff1e	 bx          lr
  0001c		 |$M36721|

			 ENDP  ; |??1critical_section@ce@@QAA@XZ|, ce::critical_section::~critical_section

	EXPORT	|?_factory@?$singleton@V?$free_list@$0GE@Vallocator@ce@@@ce@@$03V?$static_allocator@V?$free_list@$0GE@Vallocator@ce@@@ce@@$03@2@@ce@@1Ulock_factory@12@A| [ DATA ] ; ce::singleton<ce::free_list<100,ce::allocator>,4,ce::static_allocator<ce::free_list<100,ce::allocator>,4> >::_factory

  00000			 AREA	 |.bss|, NOINIT
|?_factory@?$singleton@V?$free_list@$0GE@Vallocator@ce@@@ce@@$03V?$static_allocator@V?$free_list@$0GE@Vallocator@ce@@@ce@@$03@2@@ce@@1Ulock_factory@12@A| % 0x1 ; ce::singleton<ce::free_list<100,ce::allocator>,4,ce::static_allocator<ce::free_list<100,ce::allocator>,4> >::_factory

  00000			 AREA	 |.CRT$XCU|, DATA
|?_factory$initializer$@?$singleton@V?$free_list@$0GE@Vallocator@ce@@@ce@@$03V?$static_allocator@V?$free_list@$0GE@Vallocator@ce@@@ce@@$03@2@@ce@@1P6AXXZA| DCD |??__E?_factory@?$singleton@V?$free_list@$0GE@Vallocator@ce@@@ce@@$03V?$static_allocator@V?$free_list@$0GE@Vallocator@ce@@@ce@@$03@2@@ce@@1Ulock_factory@12@A@@YAXXZ| ; ce::singleton<ce::free_list<100,ce::allocator>,4,ce::static_allocator<ce::free_list<100,ce::allocator>,4> >::_factory$initializer$
	END
