; Listing generated by Microsoft (R) Optimizing Compiler Version 14.01.60511.01 

	TTL	C:\WINCE600\PLATFORM\COMMON\SRC\SOC\PXA27X_MS_V1\XLLP\SOURCE\xllp_serialization.c
	CODE32

  00000			 AREA	 |.drectve|, DRECTVE
	DCB	"-defaultlib:LIBCMT "
	DCB	"-defaultlib:OLDNAMES "

	EXPORT	|XllpLock|

  00000			 AREA	 |.pdata|, PDATA
|$T510|	DCD	|$LN5@XllpLock|
	DCD	0x40000a04
; Function compile flags: /Odtp
; File c:\wince600\platform\common\src\soc\pxa27x_ms_v1\xllp\source\xllp_serialization.c

  00000			 AREA	 |.text|, CODE, ARM

  00000		 |XllpLock| PROC

; 17   : {

  00000		 |$LN5@XllpLock|
  00000	e1a0c00d	 mov         r12, sp
  00004	e92d0001	 stmdb       sp!, {r0}
  00008	e92d5000	 stmdb       sp!, {r12, lr}
  0000c	e24dd004	 sub         sp, sp, #4
  00010		 |$M507|

; 18   : 	return 0;

  00010	e3a03000	 mov         r3, #0
  00014	e58d3000	 str         r3, [sp]

; 19   : }

  00018	e59d0000	 ldr         r0, [sp]
  0001c	e28dd004	 add         sp, sp, #4
  00020	e89d6000	 ldmia       sp, {sp, lr}
  00024	e12fff1e	 bx          lr
  00028		 |$M508|

			 ENDP  ; |XllpLock|

	EXPORT	|XllpUnlock|

  00008			 AREA	 |.pdata|, PDATA
|$T515|	DCD	|$LN5@XllpUnlock|
	DCD	0x40000503
; Function compile flags: /Odtp

  00028			 AREA	 |.text|, CODE, ARM

  00028		 |XllpUnlock| PROC

; 22   : {

  00028		 |$LN5@XllpUnlock|
  00028	e1a0c00d	 mov         r12, sp
  0002c	e92d0001	 stmdb       sp!, {r0}
  00030	e92d5000	 stmdb       sp!, {r12, lr}
  00034		 |$M512|

; 23   : 
; 24   : }

  00034	e89d6000	 ldmia       sp, {sp, lr}
  00038	e12fff1e	 bx          lr
  0003c		 |$M513|

			 ENDP  ; |XllpUnlock|

	END
