; Listing generated by Microsoft (R) Optimizing Compiler Version 14.01.60511.01 

	TTL	C:\WINCE600\PLATFORM\COMMON\SRC\SOC\PXA27X_MS_V1\XLLP\SOURCE\xllp_pm_sleepcontext.c
	CODE32

  00000			 AREA	 |.drectve|, DRECTVE
	DCB	"-defaultlib:LIBCMT "
	DCB	"-defaultlib:OLDNAMES "

	EXPORT	|XllpPmRestoreAllRegLists|
	EXPORT	|XllpPmWakeCLevelProcessing|

  00000			 AREA	 |.pdata|, PDATA
|$T39482| DCD	|$LN6@XllpPmWake|
	DCD	0x40008604
; Function compile flags: /Odtp
; File c:\wince600\platform\common\src\soc\pxa27x_ms_v1\xllp\source\xllp_pm_sleepcontext.c

  00000			 AREA	 |.text|, CODE, ARM

  00000		 |XllpPmWakeCLevelProcessing| PROC

; 71   : {

  00000		 |$LN6@XllpPmWake|
  00000	e1a0c00d	 mov         r12, sp
  00004	e92d0007	 stmdb       sp!, {r0 - r2}
  00008	e92d5000	 stmdb       sp!, {r12, lr}
  0000c	e24dd010	 sub         sp, sp, #0x10
  00010		 |$M39479|

; 72   :     P_XLLP_PWRMGR_T  pPwrMgrRegs = (P_XLLP_PWRMGR_T) pSleepParam->ProcRegs.UAPwrMgrRegs;

  00010	e59d3018	 ldr         r3, [sp, #0x18]
  00014	e283300c	 add         r3, r3, #0xC
  00018	e5933000	 ldr         r3, [r3]
  0001c	e58d3000	 str         r3, [sp]

; 73   :     P_XLLP_GPIO_T       pGpioRegs   = (P_XLLP_GPIO_T)   pSleepParam->ProcRegs.UAGPIORegs;

  00020	e59d3018	 ldr         r3, [sp, #0x18]
  00024	e2833010	 add         r3, r3, #0x10
  00028	e5933000	 ldr         r3, [r3]
  0002c	e58d300c	 str         r3, [sp, #0xC]

; 74   :     P_XLLP_OST_T        pOstRegs =      (P_XLLP_OST_T)  pSleepParam->ProcRegs.UAOSTRegs;

  00030	e59d3018	 ldr         r3, [sp, #0x18]
  00034	e2833018	 add         r3, r3, #0x18
  00038	e5933000	 ldr         r3, [r3]
  0003c	e58d3004	 str         r3, [sp, #4]

; 75   :     P_XLLP_UINT32_T    pIMControlReg   = (P_XLLP_UINT32_T) pSleepParam->ProcRegs.UAIMControlReg; 

  00040	e59d3018	 ldr         r3, [sp, #0x18]
  00044	e2833020	 add         r3, r3, #0x20
  00048	e5933000	 ldr         r3, [r3]
  0004c	e58d3008	 str         r3, [sp, #8]

; 76   :     
; 77   :     // Restore GPLRx (values restored via GPSR and GPCR regs)
; 78   :     //
; 79   :     pGpioRegs->GPSR0 = pSleepDataArea->GPLR0   ;

  00050	e59d301c	 ldr         r3, [sp, #0x1C]
  00054	e2831068	 add         r1, r3, #0x68
  00058	e59d300c	 ldr         r3, [sp, #0xC]
  0005c	e2832018	 add         r2, r3, #0x18
  00060	e5913000	 ldr         r3, [r1]
  00064	e5823000	 str         r3, [r2]

; 80   :     pGpioRegs->GPCR0 = ~(pSleepDataArea->GPLR0) ;

  00068	e59d301c	 ldr         r3, [sp, #0x1C]
  0006c	e2833068	 add         r3, r3, #0x68
  00070	e5933000	 ldr         r3, [r3]
  00074	e1e02003	 mvn         r2, r3
  00078	e59d300c	 ldr         r3, [sp, #0xC]
  0007c	e2833024	 add         r3, r3, #0x24
  00080	e5832000	 str         r2, [r3]

; 81   :     pGpioRegs->GPSR1 = pSleepDataArea->GPLR1   ;

  00084	e59d301c	 ldr         r3, [sp, #0x1C]
  00088	e283106c	 add         r1, r3, #0x6C
  0008c	e59d300c	 ldr         r3, [sp, #0xC]
  00090	e283201c	 add         r2, r3, #0x1C
  00094	e5913000	 ldr         r3, [r1]
  00098	e5823000	 str         r3, [r2]

; 82   :     pGpioRegs->GPCR1 = ~(pSleepDataArea->GPLR1) ;

  0009c	e59d301c	 ldr         r3, [sp, #0x1C]
  000a0	e283306c	 add         r3, r3, #0x6C
  000a4	e5933000	 ldr         r3, [r3]
  000a8	e1e02003	 mvn         r2, r3
  000ac	e59d300c	 ldr         r3, [sp, #0xC]
  000b0	e2833028	 add         r3, r3, #0x28
  000b4	e5832000	 str         r2, [r3]

; 83   :     pGpioRegs->GPSR2 = pSleepDataArea->GPLR2   ;

  000b8	e59d301c	 ldr         r3, [sp, #0x1C]
  000bc	e2831070	 add         r1, r3, #0x70
  000c0	e59d300c	 ldr         r3, [sp, #0xC]
  000c4	e2832020	 add         r2, r3, #0x20
  000c8	e5913000	 ldr         r3, [r1]
  000cc	e5823000	 str         r3, [r2]

; 84   :     pGpioRegs->GPCR2 = ~(pSleepDataArea->GPLR2) ;

  000d0	e59d301c	 ldr         r3, [sp, #0x1C]
  000d4	e2833070	 add         r3, r3, #0x70
  000d8	e5933000	 ldr         r3, [r3]
  000dc	e1e02003	 mvn         r2, r3
  000e0	e59d300c	 ldr         r3, [sp, #0xC]
  000e4	e283302c	 add         r3, r3, #0x2C
  000e8	e5832000	 str         r2, [r3]

; 85   :     pGpioRegs->GPSR3 = pSleepDataArea->GPLR3   ;

  000ec	e59d301c	 ldr         r3, [sp, #0x1C]
  000f0	e2831074	 add         r1, r3, #0x74
  000f4	e59d300c	 ldr         r3, [sp, #0xC]
  000f8	e2832f46	 add         r2, r3, #0x46, 30
  000fc	e5913000	 ldr         r3, [r1]
  00100	e5823000	 str         r3, [r2]

; 86   :     pGpioRegs->GPCR3 = ~(pSleepDataArea->GPLR3) ;

  00104	e59d301c	 ldr         r3, [sp, #0x1C]
  00108	e2833074	 add         r3, r3, #0x74
  0010c	e5933000	 ldr         r3, [r3]
  00110	e1e02003	 mvn         r2, r3
  00114	e59d300c	 ldr         r3, [sp, #0xC]
  00118	e2833f49	 add         r3, r3, #0x49, 30
  0011c	e5832000	 str         r2, [r3]

; 87   : 
; 88   :     // Restore IMPMCR
; 89   :     //
; 90   :     *pIMControlReg = pSleepDataArea->impmcr & XLLP_IMPMCR_USEDBITS;

  00120	e59d301c	 ldr         r3, [sp, #0x1C]
  00124	e2833050	 add         r3, r3, #0x50
  00128	e5932000	 ldr         r2, [r3]
  0012c	e3e034ff	 mvn         r3, #0xFF, 8
  00130	e2233a0f	 eor         r3, r3, #0xF, 20
  00134	e0022003	 and         r2, r2, r3
  00138	e59d3008	 ldr         r3, [sp, #8]
  0013c	e5832000	 str         r2, [r3]

; 91   :     
; 92   :     XllpPmRestoreAllRegLists (pSleepDataArea); 

  00140	e59d001c	 ldr         r0, [sp, #0x1C]
  00144	eb000000	 bl          XllpPmRestoreAllRegLists

; 93   : 
; 94   :     // Currently OS uses OSCR0, OSMR0, OSMR1 and OSMR2
; 95   :     // Restore these regs if PI domain was powered off during sleep
; 96   :     //
; 97   :     if (XLLP_PSLR_SL_PI_OFF==(pPwrMgrRegs->PSLR & XLLP_PSLR_SL_PI_MSK))

  00148	e59d3000	 ldr         r3, [sp]
  0014c	e2833034	 add         r3, r3, #0x34
  00150	e5933000	 ldr         r3, [r3]
  00154	e313000c	 tst         r3, #0xC
  00158	1a000022	 bne         |$LN1@XllpPmWake|

; 98   :     {
; 99   :         pOstRegs->oscr0 = pSleepDataArea->OSCR0;

  0015c	e59d301c	 ldr         r3, [sp, #0x1C]
  00160	e2831054	 add         r1, r3, #0x54
  00164	e59d3004	 ldr         r3, [sp, #4]
  00168	e2832010	 add         r2, r3, #0x10
  0016c	e5913000	 ldr         r3, [r1]
  00170	e5823000	 str         r3, [r2]

; 100  :         pOstRegs->osmr0 = pSleepDataArea->OSMR0;

  00174	e59d301c	 ldr         r3, [sp, #0x1C]
  00178	e2833058	 add         r3, r3, #0x58
  0017c	e5932000	 ldr         r2, [r3]
  00180	e59d3004	 ldr         r3, [sp, #4]
  00184	e5832000	 str         r2, [r3]

; 101  :         pOstRegs->osmr1 = pSleepDataArea->OSMR1;

  00188	e59d301c	 ldr         r3, [sp, #0x1C]
  0018c	e283105c	 add         r1, r3, #0x5C
  00190	e59d3004	 ldr         r3, [sp, #4]
  00194	e2832004	 add         r2, r3, #4
  00198	e5913000	 ldr         r3, [r1]
  0019c	e5823000	 str         r3, [r2]

; 102  :         pOstRegs->osmr2 = pSleepDataArea->OSMR2;

  001a0	e59d301c	 ldr         r3, [sp, #0x1C]
  001a4	e2831060	 add         r1, r3, #0x60
  001a8	e59d3004	 ldr         r3, [sp, #4]
  001ac	e2832008	 add         r2, r3, #8
  001b0	e5913000	 ldr         r3, [r1]
  001b4	e5823000	 str         r3, [r2]

; 103  :         pOstRegs->oier    = pSleepDataArea->OIER;

  001b8	e59d301c	 ldr         r3, [sp, #0x1C]
  001bc	e2831064	 add         r1, r3, #0x64
  001c0	e59d3004	 ldr         r3, [sp, #4]
  001c4	e283201c	 add         r2, r3, #0x1C
  001c8	e5913000	 ldr         r3, [r1]
  001cc	e5823000	 str         r3, [r2]

; 104  :         pOstRegs->oscr0 = pOstRegs->osmr0 - 5;

  001d0	e59d3004	 ldr         r3, [sp, #4]
  001d4	e5933000	 ldr         r3, [r3]
  001d8	e2432005	 sub         r2, r3, #5
  001dc	e59d3004	 ldr         r3, [sp, #4]
  001e0	e2833010	 add         r3, r3, #0x10
  001e4	e5832000	 str         r2, [r3]
  001e8		 |$LN1@XllpPmWake|

; 105  :     }
; 106  : 
; 107  :     // Invalidate the checksum and zero the PSPR because the saved state is about to become obsolete.
; 108  :     //
; 109  :     pSleepDataArea->checksum++;

  001e8	e59d301c	 ldr         r3, [sp, #0x1C]
  001ec	e5933000	 ldr         r3, [r3]
  001f0	e2832001	 add         r2, r3, #1
  001f4	e59d301c	 ldr         r3, [sp, #0x1C]
  001f8	e5832000	 str         r2, [r3]

; 110  :     pPwrMgrRegs->PSPR = 0;

  001fc	e59d3000	 ldr         r3, [sp]
  00200	e2832008	 add         r2, r3, #8
  00204	e3a03000	 mov         r3, #0
  00208	e5823000	 str         r3, [r2]

; 111  : 
; 112  : } // XllpPmWakeCLevelProcessing()

  0020c	e28dd010	 add         sp, sp, #0x10
  00210	e89d6000	 ldmia       sp, {sp, lr}
  00214	e12fff1e	 bx          lr
  00218		 |$M39480|

			 ENDP  ; |XllpPmWakeCLevelProcessing|

	EXPORT	|XllpPmSaveAllRegLists|
	EXPORT	|XllpPmSleepCLevelProcessing|
	IMPORT	|OEMCacheRangeFlush|
	IMPORT	|XllpPmChecksumSleepDataVi|
	IMPORT	|XllpPmRestoreAfterSleep|

  00000			 AREA	 |.bss|, NOINIT
|dummyRegReadTarget| % 0x4

  00008			 AREA	 |.pdata|, PDATA
|$T39487| DCD	|$LN6@XllpPmSlee|
	DCD	0x40008504
; Function compile flags: /Odtp

  00218			 AREA	 |.text|, CODE, ARM

  00218		 |XllpPmSleepCLevelProcessing| PROC

; 121  : {

  00218		 |$LN6@XllpPmSlee|
  00218	e1a0c00d	 mov         r12, sp
  0021c	e92d0001	 stmdb       sp!, {r0}
  00220	e92d5000	 stmdb       sp!, {r12, lr}
  00224	e24dd018	 sub         sp, sp, #0x18
  00228		 |$M39484|

; 122  :     P_XLLP_PM_SLEEP_SAVE_DATA_T  pSleepDataArea;
; 123  :     P_XLLP_PWRMGR_T  pPwrMgrRegs    = (P_XLLP_PWRMGR_T) pSleepParam->ProcRegs.UAPwrMgrRegs;

  00228	e59d3020	 ldr         r3, [sp, #0x20]
  0022c	e283300c	 add         r3, r3, #0xC
  00230	e5933000	 ldr         r3, [r3]
  00234	e58d3000	 str         r3, [sp]

; 124  :     P_XLLP_UINT32_T pIMControlReg = (P_XLLP_UINT32_T) pSleepParam->ProcRegs.UAIMControlReg; 

  00238	e59d3020	 ldr         r3, [sp, #0x20]
  0023c	e2833020	 add         r3, r3, #0x20
  00240	e5933000	 ldr         r3, [r3]
  00244	e58d3008	 str         r3, [sp, #8]

; 125  :     P_XLLP_OST_T pOstRegs =  (P_XLLP_OST_T)  pSleepParam->ProcRegs.UAOSTRegs;

  00248	e59d3020	 ldr         r3, [sp, #0x20]
  0024c	e2833018	 add         r3, r3, #0x18
  00250	e5933000	 ldr         r3, [r3]
  00254	e58d3004	 str         r3, [sp, #4]

; 126  :     P_XLLP_GPIO_T pGpioRegs = (P_XLLP_GPIO_T)   pSleepParam->ProcRegs.UAGPIORegs;

  00258	e59d3020	 ldr         r3, [sp, #0x20]
  0025c	e2833010	 add         r3, r3, #0x10
  00260	e5933000	 ldr         r3, [r3]
  00264	e58d3010	 str         r3, [sp, #0x10]

; 127  : 
; 128  :     // Will need after waking.  Startup code only gets physical address
; 129  :     //  of saved data area, the restoration code needs the virtual addr.
; 130  :     //
; 131  :     pSleepDataArea  = pSleepParam->SleepDataAreaVA;

  00268	e59d3020	 ldr         r3, [sp, #0x20]
  0026c	e2833004	 add         r3, r3, #4
  00270	e5933000	 ldr         r3, [r3]
  00274	e58d300c	 str         r3, [sp, #0xC]

; 132  :     pSleepDataArea->pSleepDataArea  = pSleepDataArea;

  00278	e59d300c	 ldr         r3, [sp, #0xC]
  0027c	e283200c	 add         r2, r3, #0xC
  00280	e59d300c	 ldr         r3, [sp, #0xC]
  00284	e5823000	 str         r3, [r2]

; 133  : 
; 134  :     // Restoration code needs this to access UA addresses of registers
; 135  :     //
; 136  :     pSleepDataArea->pSleepParam = pSleepParam;

  00288	e59d300c	 ldr         r3, [sp, #0xC]
  0028c	e2832010	 add         r2, r3, #0x10
  00290	e59d3020	 ldr         r3, [sp, #0x20]
  00294	e5823000	 str         r3, [r2]

; 137  : 
; 138  :     // save internal memory power manager control register, IMPMCR
; 139  :     //
; 140  :     pSleepDataArea->impmcr = (*pIMControlReg);

  00298	e59d300c	 ldr         r3, [sp, #0xC]
  0029c	e2832050	 add         r2, r3, #0x50
  002a0	e59d3008	 ldr         r3, [sp, #8]
  002a4	e5933000	 ldr         r3, [r3]
  002a8	e5823000	 str         r3, [r2]

; 141  : 
; 142  :     // Currently OS uses OSCR0, OSMR0, OSMR1 and OSMR2.
; 143  :     // Save these regs if PI domain will be powered off during sleep
; 144  :     //
; 145  :     if (XLLP_PSLR_SL_PI_OFF == (pPwrMgrRegs->PSLR & XLLP_PSLR_SL_PI_MSK))

  002ac	e59d3000	 ldr         r3, [sp]
  002b0	e2833034	 add         r3, r3, #0x34
  002b4	e5933000	 ldr         r3, [r3]
  002b8	e313000c	 tst         r3, #0xC
  002bc	1a00001c	 bne         |$LN1@XllpPmSlee|

; 146  :     {
; 147  :         pSleepDataArea->OSCR0  = pOstRegs->oscr0;

  002c0	e59d3004	 ldr         r3, [sp, #4]
  002c4	e2831010	 add         r1, r3, #0x10
  002c8	e59d300c	 ldr         r3, [sp, #0xC]
  002cc	e2832054	 add         r2, r3, #0x54
  002d0	e5913000	 ldr         r3, [r1]
  002d4	e5823000	 str         r3, [r2]

; 148  :         pSleepDataArea->OSMR0 = pOstRegs->osmr0;

  002d8	e59d300c	 ldr         r3, [sp, #0xC]
  002dc	e2832058	 add         r2, r3, #0x58
  002e0	e59d3004	 ldr         r3, [sp, #4]
  002e4	e5933000	 ldr         r3, [r3]
  002e8	e5823000	 str         r3, [r2]

; 149  :         pSleepDataArea->OSMR1 = pOstRegs->osmr1;

  002ec	e59d3004	 ldr         r3, [sp, #4]
  002f0	e2831004	 add         r1, r3, #4
  002f4	e59d300c	 ldr         r3, [sp, #0xC]
  002f8	e283205c	 add         r2, r3, #0x5C
  002fc	e5913000	 ldr         r3, [r1]
  00300	e5823000	 str         r3, [r2]

; 150  :         pSleepDataArea->OSMR2 = pOstRegs->osmr2;

  00304	e59d3004	 ldr         r3, [sp, #4]
  00308	e2831008	 add         r1, r3, #8
  0030c	e59d300c	 ldr         r3, [sp, #0xC]
  00310	e2832060	 add         r2, r3, #0x60
  00314	e5913000	 ldr         r3, [r1]
  00318	e5823000	 str         r3, [r2]

; 151  :         pSleepDataArea->OIER    = pOstRegs->oier;

  0031c	e59d3004	 ldr         r3, [sp, #4]
  00320	e283101c	 add         r1, r3, #0x1C
  00324	e59d300c	 ldr         r3, [sp, #0xC]
  00328	e2832064	 add         r2, r3, #0x64
  0032c	e5913000	 ldr         r3, [r1]
  00330	e5823000	 str         r3, [r2]
  00334		 |$LN1@XllpPmSlee|

; 152  :     }
; 153  : 
; 154  :     // Save GPIO pin level registers
; 155  :     //
; 156  :     pSleepDataArea->GPLR0  =  pGpioRegs->GPLR0;

  00334	e59d300c	 ldr         r3, [sp, #0xC]
  00338	e2832068	 add         r2, r3, #0x68
  0033c	e59d3010	 ldr         r3, [sp, #0x10]
  00340	e5933000	 ldr         r3, [r3]
  00344	e5823000	 str         r3, [r2]

; 157  :     pSleepDataArea->GPLR1  =  pGpioRegs->GPLR1;

  00348	e59d3010	 ldr         r3, [sp, #0x10]
  0034c	e2831004	 add         r1, r3, #4
  00350	e59d300c	 ldr         r3, [sp, #0xC]
  00354	e283206c	 add         r2, r3, #0x6C
  00358	e5913000	 ldr         r3, [r1]
  0035c	e5823000	 str         r3, [r2]

; 158  :     pSleepDataArea->GPLR2  =  pGpioRegs->GPLR2;

  00360	e59d3010	 ldr         r3, [sp, #0x10]
  00364	e2831008	 add         r1, r3, #8
  00368	e59d300c	 ldr         r3, [sp, #0xC]
  0036c	e2832070	 add         r2, r3, #0x70
  00370	e5913000	 ldr         r3, [r1]
  00374	e5823000	 str         r3, [r2]

; 159  :     pSleepDataArea->GPLR3  =  pGpioRegs->GPLR3;

  00378	e59d3010	 ldr         r3, [sp, #0x10]
  0037c	e2831c01	 add         r1, r3, #1, 24
  00380	e59d300c	 ldr         r3, [sp, #0xC]
  00384	e2832074	 add         r2, r3, #0x74
  00388	e5913000	 ldr         r3, [r1]
  0038c	e5823000	 str         r3, [r2]

; 160  : 
; 161  :     // Save word count of saved data area
; 162  :     // (total number of 32-bit words stored, excluding only checksum))
; 163  :     //
; 164  :     pSleepDataArea->SleepAreaWordCount = 
; 165  :         (sizeof(XLLP_PM_SLEEP_SAVE_DATA_T)/4)   // Checksum is done on 4-byte words
; 166  :         - 1;                                                        // Don't include the checksum itself.

  00390	e59d300c	 ldr         r3, [sp, #0xC]
  00394	e2832004	 add         r2, r3, #4
  00398	e3a0305c	 mov         r3, #0x5C
  0039c	e5823000	 str         r3, [r2]

; 167  : 
; 168  :     // Save function address to jump to on resuming
; 169  :     //
; 170  :     pSleepDataArea->AwakeAddr = XllpPmRestoreAfterSleep;

  003a0	e59d300c	 ldr         r3, [sp, #0xC]
  003a4	e2832008	 add         r2, r3, #8
  003a8	e59f3078	 ldr         r3, [pc, #0x78]
  003ac	e5823000	 str         r3, [r2]

; 171  : 
; 172  :     // Save proc registers 
; 173  :     //
; 174  :     XllpPmSaveAllRegLists (pSleepDataArea);

  003b0	e59d000c	 ldr         r0, [sp, #0xC]
  003b4	eb000000	 bl          XllpPmSaveAllRegLists

; 175  : 
; 176  :     // Now, set the checksum to validate data at wakeup
; 177  :     // Must be done after all data saved.
; 178  :     pSleepDataArea->checksum = XllpPmChecksumSleepDataVi (&pSleepDataArea->SleepAreaWordCount,
; 179  :                                                 pSleepDataArea->SleepAreaWordCount);

  003b8	e59d300c	 ldr         r3, [sp, #0xC]
  003bc	e2833004	 add         r3, r3, #4
  003c0	e5931000	 ldr         r1, [r3]
  003c4	e59d300c	 ldr         r3, [sp, #0xC]
  003c8	e2830004	 add         r0, r3, #4
  003cc	eb000000	 bl          XllpPmChecksumSleepDataVi
  003d0	e58d0014	 str         r0, [sp, #0x14]
  003d4	e59d2014	 ldr         r2, [sp, #0x14]
  003d8	e59d300c	 ldr         r3, [sp, #0xC]
  003dc	e5832000	 str         r2, [r3]

; 180  : 
; 181  :     // Make sure that the startup code can find the context.
; 182  :     pPwrMgrRegs->PSPR = pSleepParam->SleepDataAreaPA;

  003e0	e59d3000	 ldr         r3, [sp]
  003e4	e2832008	 add         r2, r3, #8
  003e8	e59d3020	 ldr         r3, [sp, #0x20]
  003ec	e5933000	 ldr         r3, [r3]
  003f0	e5823000	 str         r3, [r2]

; 183  :     dummyRegReadTarget = pPwrMgrRegs->PSPR ;

  003f4	e59d3000	 ldr         r3, [sp]
  003f8	e2833008	 add         r3, r3, #8
  003fc	e5932000	 ldr         r2, [r3]
  00400	e59f301c	 ldr         r3, [pc, #0x1C]
  00404	e5832000	 str         r2, [r3]

; 184  : 
; 185  :     // Flush DCache, Flush ICache, Flush TLB
; 186  :     OEMCacheRangeFlush(0, 0, CACHE_SYNC_WRITEBACK | CACHE_SYNC_INSTRUCTIONS | CACHE_SYNC_FLUSH_I_TLB);

  00408	e3a0200e	 mov         r2, #0xE
  0040c	e3a01000	 mov         r1, #0
  00410	e3a00000	 mov         r0, #0
  00414	eb000000	 bl          OEMCacheRangeFlush

; 187  : 
; 188  : } // XllpPmSleepCLevelProcessing()

  00418	e28dd018	 add         sp, sp, #0x18
  0041c	e89d6000	 ldmia       sp, {sp, lr}
  00420	e12fff1e	 bx          lr
  00424		 |$LN7@XllpPmSlee|
  00424		 |$LN8@XllpPmSlee|
  00424	00000000	 DCD         |dummyRegReadTarget|
  00428		 |$LN9@XllpPmSlee|
  00428	00000000	 DCD         |XllpPmRestoreAfterSleep|
  0042c		 |$M39485|

			 ENDP  ; |XllpPmSleepCLevelProcessing|

	EXPORT	|??_C@_1FK@FNONLNGN@?$AA?$CF?$AAs?$AA?3?$AA?5?$AAD?$AAE?$AAB?$AAU?$AAG?$AAC?$AAH?$AAK?$AA?5?$AAf?$AAa?$AAi?$AAl?$AAe?$AAd?$AA?5?$AAi?$AAn?$AA?5?$AAf?$AAi?$AAl?$AAe?$AA?5?$AA?$CF?$AAs?$AA?5?$AAa@| [ DATA ] ; `string'
	EXPORT	|??_C@_1BA@LEPJIIOK@?$AAU?$AAn?$AAk?$AAn?$AAo?$AAw?$AAn?$AA?$AA@| [ DATA ] ; `string'
	EXPORT	|??_C@_1KM@IKMIPLEM@?$AAC?$AA?3?$AA?2?$AAW?$AAI?$AAN?$AAC?$AAE?$AA6?$AA0?$AA0?$AA?2?$AAP?$AAL?$AAA?$AAT?$AAF?$AAO?$AAR?$AAM?$AA?2?$AAC?$AAO?$AAM?$AAM?$AAO?$AAN?$AA?2?$AAS?$AAR?$AAC?$AA?2@| [ DATA ] ; `string'
	EXPORT	|XllpPmSaveStdRegList|
	IMPORT	|NKDbgPrintfW|

  00010			 AREA	 |.pdata|, PDATA
|$T39497| DCD	|$LN10@XllpPmSave|
	DCD	0x4001f004

  00000			 AREA	 |.rdata|, DATA, READONLY
|??_C@_1FK@FNONLNGN@?$AA?$CF?$AAs?$AA?3?$AA?5?$AAD?$AAE?$AAB?$AAU?$AAG?$AAC?$AAH?$AAK?$AA?5?$AAf?$AAa?$AAi?$AAl?$AAe?$AAd?$AA?5?$AAi?$AAn?$AA?5?$AAf?$AAi?$AAl?$AAe?$AA?5?$AA?$CF?$AAs?$AA?5?$AAa@| DCB "%"
	DCB	0x0, "s", 0x0, ":", 0x0, " ", 0x0, "D", 0x0, "E", 0x0, "B"
	DCB	0x0, "U", 0x0, "G", 0x0, "C", 0x0, "H", 0x0, "K", 0x0, " "
	DCB	0x0, "f", 0x0, "a", 0x0, "i", 0x0, "l", 0x0, "e", 0x0, "d"
	DCB	0x0, " ", 0x0, "i", 0x0, "n", 0x0, " ", 0x0, "f", 0x0, "i"
	DCB	0x0, "l", 0x0, "e", 0x0, " ", 0x0, "%", 0x0, "s", 0x0, " "
	DCB	0x0, "a", 0x0, "t", 0x0, " ", 0x0, "l", 0x0, "i", 0x0, "n"
	DCB	0x0, "e", 0x0, " ", 0x0, "%", 0x0, "d", 0x0, " ", 0x0, 0xd
	DCB	0x0, 0xa, 0x0, 0x0, 0x0			; `string'

  00000			 AREA	 |.rdata|, DATA, READONLY
|??_C@_1BA@LEPJIIOK@?$AAU?$AAn?$AAk?$AAn?$AAo?$AAw?$AAn?$AA?$AA@| DCB "U", 0x0
	DCB	"n", 0x0, "k", 0x0, "n", 0x0, "o", 0x0, "w", 0x0, "n", 0x0
	DCB	0x0, 0x0				; `string'

  00000			 AREA	 |.rdata|, DATA, READONLY
|??_C@_1KM@IKMIPLEM@?$AAC?$AA?3?$AA?2?$AAW?$AAI?$AAN?$AAC?$AAE?$AA6?$AA0?$AA0?$AA?2?$AAP?$AAL?$AAA?$AAT?$AAF?$AAO?$AAR?$AAM?$AA?2?$AAC?$AAO?$AAM?$AAM?$AAO?$AAN?$AA?2?$AAS?$AAR?$AAC?$AA?2@| DCB "C"
	DCB	0x0, ":", 0x0, "\\", 0x0, "W", 0x0, "I", 0x0, "N", 0x0, "C"
	DCB	0x0, "E", 0x0, "6", 0x0, "0", 0x0, "0", 0x0, "\\", 0x0, "P"
	DCB	0x0, "L", 0x0, "A", 0x0, "T", 0x0, "F", 0x0, "O", 0x0, "R"
	DCB	0x0, "M", 0x0, "\\", 0x0, "C", 0x0, "O", 0x0, "M", 0x0, "M"
	DCB	0x0, "O", 0x0, "N", 0x0, "\\", 0x0, "S", 0x0, "R", 0x0, "C"
	DCB	0x0, "\\", 0x0, "S", 0x0, "O", 0x0, "C", 0x0, "\\", 0x0, "P"
	DCB	0x0, "X", 0x0, "A", 0x0, "2", 0x0, "7", 0x0, "X", 0x0, "_"
	DCB	0x0, "M", 0x0, "S", 0x0, "_", 0x0, "V", 0x0, "1", 0x0, "\\"
	DCB	0x0, "X", 0x0, "L", 0x0, "L", 0x0, "P", 0x0, "\\", 0x0, "S"
	DCB	0x0, "O", 0x0, "U", 0x0, "R", 0x0, "C", 0x0, "E", 0x0, "\\"
	DCB	0x0, ".", 0x0, "\\", 0x0, "x", 0x0, "l", 0x0, "l", 0x0, "p"
	DCB	0x0, "_", 0x0, "p", 0x0, "m", 0x0, "_", 0x0, "s", 0x0, "l"
	DCB	0x0, "e", 0x0, "e", 0x0, "p", 0x0, "c", 0x0, "o", 0x0, "n"
	DCB	0x0, "t", 0x0, "e", 0x0, "x", 0x0, "t", 0x0, ".", 0x0, "c"
	DCB	0x0, 0x0, 0x0				; `string'
; Function compile flags: /Odtp

  0042c			 AREA	 |.text|, CODE, ARM

  0042c		 |XllpPmSaveStdRegList| PROC

; 192  : {

  0042c		 |$LN10@XllpPmSave|
  0042c	e1a0c00d	 mov         r12, sp
  00430	e92d0001	 stmdb       sp!, {r0}
  00434	e92d5000	 stmdb       sp!, {r12, lr}
  00438	e24dd018	 sub         sp, sp, #0x18
  0043c		 |$M39494|

; 193  :     UINT32 i = 0;

  0043c	e3a03000	 mov         r3, #0
  00440	e58d3000	 str         r3, [sp]

; 194  :     UINT32 j = 0;

  00444	e3a03000	 mov         r3, #0
  00448	e58d3010	 str         r3, [sp, #0x10]

; 195  :     
; 196  :     P_XLLP_PWRMGR_T pPwrMgrRegs = (P_XLLP_PWRMGR_T) pDataSaveArea->pSleepParam->ProcRegs.UAPwrMgrRegs;

  0044c	e59d3020	 ldr         r3, [sp, #0x20]
  00450	e2833010	 add         r3, r3, #0x10
  00454	e5933000	 ldr         r3, [r3]
  00458	e283300c	 add         r3, r3, #0xC
  0045c	e5933000	 ldr         r3, [r3]
  00460	e58d3004	 str         r3, [sp, #4]

; 197  :     P_XLLP_GPIO_T   pGpioRegs   = (P_XLLP_GPIO_T)   pDataSaveArea->pSleepParam->ProcRegs.UAGPIORegs;

  00464	e59d3020	 ldr         r3, [sp, #0x20]
  00468	e2833010	 add         r3, r3, #0x10
  0046c	e5933000	 ldr         r3, [r3]
  00470	e2833010	 add         r3, r3, #0x10
  00474	e5933000	 ldr         r3, [r3]
  00478	e58d300c	 str         r3, [sp, #0xC]

; 198  :     P_XLLP_INTC_T   pIntcRegs   = (P_XLLP_INTC_T)   pDataSaveArea->pSleepParam->ProcRegs.UAIntcRegs;

  0047c	e59d3020	 ldr         r3, [sp, #0x20]
  00480	e2833010	 add         r3, r3, #0x10
  00484	e5933000	 ldr         r3, [r3]
  00488	e2833014	 add         r3, r3, #0x14
  0048c	e5933000	 ldr         r3, [r3]
  00490	e58d3008	 str         r3, [sp, #8]

; 199  : 
; 200  :     // Save PGSRx regs
; 201  :     // PGSRx regs will be restored, but must be modified before being saved
; 202  :     //
; 203  :     pDataSaveArea->StandardRegListStore[i++] =  pPwrMgrRegs->PGSR0 & XLLP_PM_PGSR0_VLD_MSK;

  00494	e59d3004	 ldr         r3, [sp, #4]
  00498	e2833020	 add         r3, r3, #0x20
  0049c	e5932000	 ldr         r2, [r3]
  004a0	e3e03f79	 mvn         r3, #0x79, 30
  004a4	e0020003	 and         r0, r2, r3
  004a8	e59d3020	 ldr         r3, [sp, #0x20]
  004ac	e2831078	 add         r1, r3, #0x78
  004b0	e59d2000	 ldr         r2, [sp]
  004b4	e3a03004	 mov         r3, #4
  004b8	e0030392	 mul         r3, r2, r3
  004bc	e0813003	 add         r3, r1, r3
  004c0	e5830000	 str         r0, [r3]
  004c4	e59d3000	 ldr         r3, [sp]
  004c8	e2833001	 add         r3, r3, #1
  004cc	e58d3000	 str         r3, [sp]

; 204  :     pDataSaveArea->StandardRegListStore[i++] =  pPwrMgrRegs->PGSR1 & XLLP_PM_PGSR1_VLD_MSK;

  004d0	e59d3004	 ldr         r3, [sp, #4]
  004d4	e2833024	 add         r3, r3, #0x24
  004d8	e5930000	 ldr         r0, [r3]
  004dc	e59d3020	 ldr         r3, [sp, #0x20]
  004e0	e2831078	 add         r1, r3, #0x78
  004e4	e59d2000	 ldr         r2, [sp]
  004e8	e3a03004	 mov         r3, #4
  004ec	e0030392	 mul         r3, r2, r3
  004f0	e0813003	 add         r3, r1, r3
  004f4	e5830000	 str         r0, [r3]
  004f8	e59d3000	 ldr         r3, [sp]
  004fc	e2833001	 add         r3, r3, #1
  00500	e58d3000	 str         r3, [sp]

; 205  :     pDataSaveArea->StandardRegListStore[i++] =  pPwrMgrRegs->PGSR2 & XLLP_PM_PGSR2_VLD_MSK;

  00504	e59d3004	 ldr         r3, [sp, #4]
  00508	e2833028	 add         r3, r3, #0x28
  0050c	e5930000	 ldr         r0, [r3]
  00510	e59d3020	 ldr         r3, [sp, #0x20]
  00514	e2831078	 add         r1, r3, #0x78
  00518	e59d2000	 ldr         r2, [sp]
  0051c	e3a03004	 mov         r3, #4
  00520	e0030392	 mul         r3, r2, r3
  00524	e0813003	 add         r3, r1, r3
  00528	e5830000	 str         r0, [r3]
  0052c	e59d3000	 ldr         r3, [sp]
  00530	e2833001	 add         r3, r3, #1
  00534	e58d3000	 str         r3, [sp]

; 206  :     pDataSaveArea->StandardRegListStore[i++] =  pPwrMgrRegs->PGSR3 & XLLP_PM_PGSR3_VLD_MSK;

  00538	e59d3004	 ldr         r3, [sp, #4]
  0053c	e283302c	 add         r3, r3, #0x2C
  00540	e5932000	 ldr         r2, [r3]
  00544	e3e034ff	 mvn         r3, #0xFF, 8
  00548	e2233502	 eor         r3, r3, #2, 10
  0054c	e0020003	 and         r0, r2, r3
  00550	e59d3020	 ldr         r3, [sp, #0x20]
  00554	e2831078	 add         r1, r3, #0x78
  00558	e59d2000	 ldr         r2, [sp]
  0055c	e3a03004	 mov         r3, #4
  00560	e0030392	 mul         r3, r2, r3
  00564	e0813003	 add         r3, r1, r3
  00568	e5830000	 str         r0, [r3]
  0056c	e59d3000	 ldr         r3, [sp]
  00570	e2833001	 add         r3, r3, #1
  00574	e58d3000	 str         r3, [sp]

; 207  :     
; 208  :     // Save GPIO regs
; 209  :     //
; 210  :     pDataSaveArea->StandardRegListStore[i++] =  pGpioRegs->GPDR0 & XLLP_GPIO_GPDR0_VLD_MSK;

  00578	e59d300c	 ldr         r3, [sp, #0xC]
  0057c	e283300c	 add         r3, r3, #0xC
  00580	e5930000	 ldr         r0, [r3]
  00584	e59d3020	 ldr         r3, [sp, #0x20]
  00588	e2831078	 add         r1, r3, #0x78
  0058c	e59d2000	 ldr         r2, [sp]
  00590	e3a03004	 mov         r3, #4
  00594	e0030392	 mul         r3, r2, r3
  00598	e0813003	 add         r3, r1, r3
  0059c	e5830000	 str         r0, [r3]
  005a0	e59d3000	 ldr         r3, [sp]
  005a4	e2833001	 add         r3, r3, #1
  005a8	e58d3000	 str         r3, [sp]

; 211  :     pDataSaveArea->StandardRegListStore[i++] =  pGpioRegs->GPDR1 & XLLP_GPIO_GPDR1_VLD_MSK;

  005ac	e59d300c	 ldr         r3, [sp, #0xC]
  005b0	e2833010	 add         r3, r3, #0x10
  005b4	e5930000	 ldr         r0, [r3]
  005b8	e59d3020	 ldr         r3, [sp, #0x20]
  005bc	e2831078	 add         r1, r3, #0x78
  005c0	e59d2000	 ldr         r2, [sp]
  005c4	e3a03004	 mov         r3, #4
  005c8	e0030392	 mul         r3, r2, r3
  005cc	e0813003	 add         r3, r1, r3
  005d0	e5830000	 str         r0, [r3]
  005d4	e59d3000	 ldr         r3, [sp]
  005d8	e2833001	 add         r3, r3, #1
  005dc	e58d3000	 str         r3, [sp]

; 212  :     pDataSaveArea->StandardRegListStore[i++] =  pGpioRegs->GPDR2 & XLLP_GPIO_GPDR2_VLD_MSK;

  005e0	e59d300c	 ldr         r3, [sp, #0xC]
  005e4	e2833014	 add         r3, r3, #0x14
  005e8	e5930000	 ldr         r0, [r3]
  005ec	e59d3020	 ldr         r3, [sp, #0x20]
  005f0	e2831078	 add         r1, r3, #0x78
  005f4	e59d2000	 ldr         r2, [sp]
  005f8	e3a03004	 mov         r3, #4
  005fc	e0030392	 mul         r3, r2, r3
  00600	e0813003	 add         r3, r1, r3
  00604	e5830000	 str         r0, [r3]
  00608	e59d3000	 ldr         r3, [sp]
  0060c	e2833001	 add         r3, r3, #1
  00610	e58d3000	 str         r3, [sp]

; 213  :     pDataSaveArea->StandardRegListStore[i++] =  pGpioRegs->GPDR3 & XLLP_GPIO_GPDR3_VLD_MSK;

  00614	e59d300c	 ldr         r3, [sp, #0xC]
  00618	e2833f43	 add         r3, r3, #0x43, 30
  0061c	e5932000	 ldr         r2, [r3]
  00620	e3e034fe	 mvn         r3, #0xFE, 8
  00624	e0020003	 and         r0, r2, r3
  00628	e59d3020	 ldr         r3, [sp, #0x20]
  0062c	e2831078	 add         r1, r3, #0x78
  00630	e59d2000	 ldr         r2, [sp]
  00634	e3a03004	 mov         r3, #4
  00638	e0030392	 mul         r3, r2, r3
  0063c	e0813003	 add         r3, r1, r3
  00640	e5830000	 str         r0, [r3]
  00644	e59d3000	 ldr         r3, [sp]
  00648	e2833001	 add         r3, r3, #1
  0064c	e58d3000	 str         r3, [sp]

; 214  :     pDataSaveArea->StandardRegListStore[i++] =  pGpioRegs->GAFR0_L & XLLP_GPIO_GAFR0_L_VLD_MSK;

  00650	e59d300c	 ldr         r3, [sp, #0xC]
  00654	e2833054	 add         r3, r3, #0x54
  00658	e5930000	 ldr         r0, [r3]
  0065c	e59d3020	 ldr         r3, [sp, #0x20]
  00660	e2831078	 add         r1, r3, #0x78
  00664	e59d2000	 ldr         r2, [sp]
  00668	e3a03004	 mov         r3, #4
  0066c	e0030392	 mul         r3, r2, r3
  00670	e0813003	 add         r3, r1, r3
  00674	e5830000	 str         r0, [r3]
  00678	e59d3000	 ldr         r3, [sp]
  0067c	e2833001	 add         r3, r3, #1
  00680	e58d3000	 str         r3, [sp]

; 215  :     pDataSaveArea->StandardRegListStore[i++] =  pGpioRegs->GAFR0_U & XLLP_GPIO_GAFR0_U_VLD_MSK;

  00684	e59d300c	 ldr         r3, [sp, #0xC]
  00688	e2833058	 add         r3, r3, #0x58
  0068c	e5930000	 ldr         r0, [r3]
  00690	e59d3020	 ldr         r3, [sp, #0x20]
  00694	e2831078	 add         r1, r3, #0x78
  00698	e59d2000	 ldr         r2, [sp]
  0069c	e3a03004	 mov         r3, #4
  006a0	e0030392	 mul         r3, r2, r3
  006a4	e0813003	 add         r3, r1, r3
  006a8	e5830000	 str         r0, [r3]
  006ac	e59d3000	 ldr         r3, [sp]
  006b0	e2833001	 add         r3, r3, #1
  006b4	e58d3000	 str         r3, [sp]

; 216  :     pDataSaveArea->StandardRegListStore[i++] =  pGpioRegs->GAFR1_L & XLLP_GPIO_GAFR1_L_VLD_MSK;

  006b8	e59d300c	 ldr         r3, [sp, #0xC]
  006bc	e283305c	 add         r3, r3, #0x5C
  006c0	e5930000	 ldr         r0, [r3]
  006c4	e59d3020	 ldr         r3, [sp, #0x20]
  006c8	e2831078	 add         r1, r3, #0x78
  006cc	e59d2000	 ldr         r2, [sp]
  006d0	e3a03004	 mov         r3, #4
  006d4	e0030392	 mul         r3, r2, r3
  006d8	e0813003	 add         r3, r1, r3
  006dc	e5830000	 str         r0, [r3]
  006e0	e59d3000	 ldr         r3, [sp]
  006e4	e2833001	 add         r3, r3, #1
  006e8	e58d3000	 str         r3, [sp]

; 217  :     pDataSaveArea->StandardRegListStore[i++] =  pGpioRegs->GAFR1_U & XLLP_GPIO_GAFR1_U_VLD_MSK;

  006ec	e59d300c	 ldr         r3, [sp, #0xC]
  006f0	e2833060	 add         r3, r3, #0x60
  006f4	e5930000	 ldr         r0, [r3]
  006f8	e59d3020	 ldr         r3, [sp, #0x20]
  006fc	e2831078	 add         r1, r3, #0x78
  00700	e59d2000	 ldr         r2, [sp]
  00704	e3a03004	 mov         r3, #4
  00708	e0030392	 mul         r3, r2, r3
  0070c	e0813003	 add         r3, r1, r3
  00710	e5830000	 str         r0, [r3]
  00714	e59d3000	 ldr         r3, [sp]
  00718	e2833001	 add         r3, r3, #1
  0071c	e58d3000	 str         r3, [sp]

; 218  :     pDataSaveArea->StandardRegListStore[i++] =  pGpioRegs->GAFR2_L & XLLP_GPIO_GAFR2_L_VLD_MSK;

  00720	e59d300c	 ldr         r3, [sp, #0xC]
  00724	e2833064	 add         r3, r3, #0x64
  00728	e5930000	 ldr         r0, [r3]
  0072c	e59d3020	 ldr         r3, [sp, #0x20]
  00730	e2831078	 add         r1, r3, #0x78
  00734	e59d2000	 ldr         r2, [sp]
  00738	e3a03004	 mov         r3, #4
  0073c	e0030392	 mul         r3, r2, r3
  00740	e0813003	 add         r3, r1, r3
  00744	e5830000	 str         r0, [r3]
  00748	e59d3000	 ldr         r3, [sp]
  0074c	e2833001	 add         r3, r3, #1
  00750	e58d3000	 str         r3, [sp]

; 219  :     pDataSaveArea->StandardRegListStore[i++] =  pGpioRegs->GAFR2_U & XLLP_GPIO_GAFR2_U_VLD_MSK;

  00754	e59d300c	 ldr         r3, [sp, #0xC]
  00758	e2833068	 add         r3, r3, #0x68
  0075c	e5930000	 ldr         r0, [r3]
  00760	e59d3020	 ldr         r3, [sp, #0x20]
  00764	e2831078	 add         r1, r3, #0x78
  00768	e59d2000	 ldr         r2, [sp]
  0076c	e3a03004	 mov         r3, #4
  00770	e0030392	 mul         r3, r2, r3
  00774	e0813003	 add         r3, r1, r3
  00778	e5830000	 str         r0, [r3]
  0077c	e59d3000	 ldr         r3, [sp]
  00780	e2833001	 add         r3, r3, #1
  00784	e58d3000	 str         r3, [sp]

; 220  :     pDataSaveArea->StandardRegListStore[i++] =  pGpioRegs->GAFR3_L & XLLP_GPIO_GAFR3_L_VLD_MSK;

  00788	e59d300c	 ldr         r3, [sp, #0xC]
  0078c	e283306c	 add         r3, r3, #0x6C
  00790	e5930000	 ldr         r0, [r3]
  00794	e59d3020	 ldr         r3, [sp, #0x20]
  00798	e2831078	 add         r1, r3, #0x78
  0079c	e59d2000	 ldr         r2, [sp]
  007a0	e3a03004	 mov         r3, #4
  007a4	e0030392	 mul         r3, r2, r3
  007a8	e0813003	 add         r3, r1, r3
  007ac	e5830000	 str         r0, [r3]
  007b0	e59d3000	 ldr         r3, [sp]
  007b4	e2833001	 add         r3, r3, #1
  007b8	e58d3000	 str         r3, [sp]

; 221  :     pDataSaveArea->StandardRegListStore[i++] =  pGpioRegs->GAFR3_U & XLLP_GPIO_GAFR3_U_VLD_MSK;

  007bc	e59d300c	 ldr         r3, [sp, #0xC]
  007c0	e2833070	 add         r3, r3, #0x70
  007c4	e5932000	 ldr         r2, [r3]
  007c8	e3e034ff	 mvn         r3, #0xFF, 8
  007cc	e223373f	 eor         r3, r3, #0x3F, 14
  007d0	e0020003	 and         r0, r2, r3
  007d4	e59d3020	 ldr         r3, [sp, #0x20]
  007d8	e2831078	 add         r1, r3, #0x78
  007dc	e59d2000	 ldr         r2, [sp]
  007e0	e3a03004	 mov         r3, #4
  007e4	e0030392	 mul         r3, r2, r3
  007e8	e0813003	 add         r3, r1, r3
  007ec	e5830000	 str         r0, [r3]
  007f0	e59d3000	 ldr         r3, [sp]
  007f4	e2833001	 add         r3, r3, #1
  007f8	e58d3000	 str         r3, [sp]

; 222  :     pDataSaveArea->StandardRegListStore[i++] =  pGpioRegs->GRER0 & XLLP_GPIO_GRER0_VLD_MSK;

  007fc	e59d300c	 ldr         r3, [sp, #0xC]
  00800	e2833030	 add         r3, r3, #0x30
  00804	e5930000	 ldr         r0, [r3]
  00808	e59d3020	 ldr         r3, [sp, #0x20]
  0080c	e2831078	 add         r1, r3, #0x78
  00810	e59d2000	 ldr         r2, [sp]
  00814	e3a03004	 mov         r3, #4
  00818	e0030392	 mul         r3, r2, r3
  0081c	e0813003	 add         r3, r1, r3
  00820	e5830000	 str         r0, [r3]
  00824	e59d3000	 ldr         r3, [sp]
  00828	e2833001	 add         r3, r3, #1
  0082c	e58d3000	 str         r3, [sp]

; 223  :     pDataSaveArea->StandardRegListStore[i++] =  pGpioRegs->GRER1 & XLLP_GPIO_GRER1_VLD_MSK;

  00830	e59d300c	 ldr         r3, [sp, #0xC]
  00834	e2833034	 add         r3, r3, #0x34
  00838	e5930000	 ldr         r0, [r3]
  0083c	e59d3020	 ldr         r3, [sp, #0x20]
  00840	e2831078	 add         r1, r3, #0x78
  00844	e59d2000	 ldr         r2, [sp]
  00848	e3a03004	 mov         r3, #4
  0084c	e0030392	 mul         r3, r2, r3
  00850	e0813003	 add         r3, r1, r3
  00854	e5830000	 str         r0, [r3]
  00858	e59d3000	 ldr         r3, [sp]
  0085c	e2833001	 add         r3, r3, #1
  00860	e58d3000	 str         r3, [sp]

; 224  :     pDataSaveArea->StandardRegListStore[i++] =  pGpioRegs->GRER2 & XLLP_GPIO_GRER2_VLD_MSK;

  00864	e59d300c	 ldr         r3, [sp, #0xC]
  00868	e2833038	 add         r3, r3, #0x38
  0086c	e5930000	 ldr         r0, [r3]
  00870	e59d3020	 ldr         r3, [sp, #0x20]
  00874	e2831078	 add         r1, r3, #0x78
  00878	e59d2000	 ldr         r2, [sp]
  0087c	e3a03004	 mov         r3, #4
  00880	e0030392	 mul         r3, r2, r3
  00884	e0813003	 add         r3, r1, r3
  00888	e5830000	 str         r0, [r3]
  0088c	e59d3000	 ldr         r3, [sp]
  00890	e2833001	 add         r3, r3, #1
  00894	e58d3000	 str         r3, [sp]

; 225  :     pDataSaveArea->StandardRegListStore[i++] =  pGpioRegs->GRER3 & XLLP_GPIO_GRER3_VLD_MSK;

  00898	e59d300c	 ldr         r3, [sp, #0xC]
  0089c	e2833e13	 add         r3, r3, #0x13, 28
  008a0	e5932000	 ldr         r2, [r3]
  008a4	e3e034fe	 mvn         r3, #0xFE, 8
  008a8	e0020003	 and         r0, r2, r3
  008ac	e59d3020	 ldr         r3, [sp, #0x20]
  008b0	e2831078	 add         r1, r3, #0x78
  008b4	e59d2000	 ldr         r2, [sp]
  008b8	e3a03004	 mov         r3, #4
  008bc	e0030392	 mul         r3, r2, r3
  008c0	e0813003	 add         r3, r1, r3
  008c4	e5830000	 str         r0, [r3]
  008c8	e59d3000	 ldr         r3, [sp]
  008cc	e2833001	 add         r3, r3, #1
  008d0	e58d3000	 str         r3, [sp]

; 226  :     pDataSaveArea->StandardRegListStore[i++] =  pGpioRegs->GFER0 & XLLP_GPIO_GFER0_VLD_MSK;

  008d4	e59d300c	 ldr         r3, [sp, #0xC]
  008d8	e283303c	 add         r3, r3, #0x3C
  008dc	e5930000	 ldr         r0, [r3]
  008e0	e59d3020	 ldr         r3, [sp, #0x20]
  008e4	e2831078	 add         r1, r3, #0x78
  008e8	e59d2000	 ldr         r2, [sp]
  008ec	e3a03004	 mov         r3, #4
  008f0	e0030392	 mul         r3, r2, r3
  008f4	e0813003	 add         r3, r1, r3
  008f8	e5830000	 str         r0, [r3]
  008fc	e59d3000	 ldr         r3, [sp]
  00900	e2833001	 add         r3, r3, #1
  00904	e58d3000	 str         r3, [sp]

; 227  :     pDataSaveArea->StandardRegListStore[i++] =  pGpioRegs->GFER1 & XLLP_GPIO_GFER1_VLD_MSK;

  00908	e59d300c	 ldr         r3, [sp, #0xC]
  0090c	e2833040	 add         r3, r3, #0x40
  00910	e5930000	 ldr         r0, [r3]
  00914	e59d3020	 ldr         r3, [sp, #0x20]
  00918	e2831078	 add         r1, r3, #0x78
  0091c	e59d2000	 ldr         r2, [sp]
  00920	e3a03004	 mov         r3, #4
  00924	e0030392	 mul         r3, r2, r3
  00928	e0813003	 add         r3, r1, r3
  0092c	e5830000	 str         r0, [r3]
  00930	e59d3000	 ldr         r3, [sp]
  00934	e2833001	 add         r3, r3, #1
  00938	e58d3000	 str         r3, [sp]

; 228  :     pDataSaveArea->StandardRegListStore[i++] =  pGpioRegs->GFER2 & XLLP_GPIO_GFER2_VLD_MSK;

  0093c	e59d300c	 ldr         r3, [sp, #0xC]
  00940	e2833044	 add         r3, r3, #0x44
  00944	e5930000	 ldr         r0, [r3]
  00948	e59d3020	 ldr         r3, [sp, #0x20]
  0094c	e2831078	 add         r1, r3, #0x78
  00950	e59d2000	 ldr         r2, [sp]
  00954	e3a03004	 mov         r3, #4
  00958	e0030392	 mul         r3, r2, r3
  0095c	e0813003	 add         r3, r1, r3
  00960	e5830000	 str         r0, [r3]
  00964	e59d3000	 ldr         r3, [sp]
  00968	e2833001	 add         r3, r3, #1
  0096c	e58d3000	 str         r3, [sp]

; 229  :     pDataSaveArea->StandardRegListStore[i++] =  pGpioRegs->GFER3 & XLLP_GPIO_GFER3_VLD_MSK;

  00970	e59d300c	 ldr         r3, [sp, #0xC]
  00974	e2833f4f	 add         r3, r3, #0x4F, 30
  00978	e5932000	 ldr         r2, [r3]
  0097c	e3e034fe	 mvn         r3, #0xFE, 8
  00980	e0020003	 and         r0, r2, r3
  00984	e59d3020	 ldr         r3, [sp, #0x20]
  00988	e2831078	 add         r1, r3, #0x78
  0098c	e59d2000	 ldr         r2, [sp]
  00990	e3a03004	 mov         r3, #4
  00994	e0030392	 mul         r3, r2, r3
  00998	e0813003	 add         r3, r1, r3
  0099c	e5830000	 str         r0, [r3]
  009a0	e59d3000	 ldr         r3, [sp]
  009a4	e2833001	 add         r3, r3, #1
  009a8	e58d3000	 str         r3, [sp]

; 230  :     
; 231  :     // INTC registers
; 232  :     //
; 233  :     pDataSaveArea->StandardRegListStore[i++] = pIntcRegs->iclr & XLLP_INTC_ICLR_MASK;

  009ac	e59d3008	 ldr         r3, [sp, #8]
  009b0	e2833008	 add         r3, r3, #8
  009b4	e5930000	 ldr         r0, [r3]
  009b8	e59d3020	 ldr         r3, [sp, #0x20]
  009bc	e2831078	 add         r1, r3, #0x78
  009c0	e59d2000	 ldr         r2, [sp]
  009c4	e3a03004	 mov         r3, #4
  009c8	e0030392	 mul         r3, r2, r3
  009cc	e0813003	 add         r3, r1, r3
  009d0	e5830000	 str         r0, [r3]
  009d4	e59d3000	 ldr         r3, [sp]
  009d8	e2833001	 add         r3, r3, #1
  009dc	e58d3000	 str         r3, [sp]

; 234  :     pDataSaveArea->StandardRegListStore[i++] = pIntcRegs->iclr2 & XLLP_INTC_ICLR2_MASK;

  009e0	e59d3008	 ldr         r3, [sp, #8]
  009e4	e28330a4	 add         r3, r3, #0xA4
  009e8	e5933000	 ldr         r3, [r3]
  009ec	e2030003	 and         r0, r3, #3
  009f0	e59d3020	 ldr         r3, [sp, #0x20]
  009f4	e2831078	 add         r1, r3, #0x78
  009f8	e59d2000	 ldr         r2, [sp]
  009fc	e3a03004	 mov         r3, #4
  00a00	e0030392	 mul         r3, r2, r3
  00a04	e0813003	 add         r3, r1, r3
  00a08	e5830000	 str         r0, [r3]
  00a0c	e59d3000	 ldr         r3, [sp]
  00a10	e2833001	 add         r3, r3, #1
  00a14	e58d3000	 str         r3, [sp]

; 235  :     pDataSaveArea->StandardRegListStore[i++] = pIntcRegs->iccr & XLLP_INTC_ICCR_MASK;

  00a18	e59d3008	 ldr         r3, [sp, #8]
  00a1c	e2833014	 add         r3, r3, #0x14
  00a20	e5933000	 ldr         r3, [r3]
  00a24	e2030001	 and         r0, r3, #1
  00a28	e59d3020	 ldr         r3, [sp, #0x20]
  00a2c	e2831078	 add         r1, r3, #0x78
  00a30	e59d2000	 ldr         r2, [sp]
  00a34	e3a03004	 mov         r3, #4
  00a38	e0030392	 mul         r3, r2, r3
  00a3c	e0813003	 add         r3, r1, r3
  00a40	e5830000	 str         r0, [r3]
  00a44	e59d3000	 ldr         r3, [sp]
  00a48	e2833001	 add         r3, r3, #1
  00a4c	e58d3000	 str         r3, [sp]

; 236  :     for (j=0; j<32; j++) {

  00a50	e3a03000	 mov         r3, #0
  00a54	e58d3010	 str         r3, [sp, #0x10]
  00a58	ea000002	 b           |$LN3@XllpPmSave|
  00a5c		 |$LN2@XllpPmSave|
  00a5c	e59d3010	 ldr         r3, [sp, #0x10]
  00a60	e2833001	 add         r3, r3, #1
  00a64	e58d3010	 str         r3, [sp, #0x10]
  00a68		 |$LN3@XllpPmSave|
  00a68	e59d3010	 ldr         r3, [sp, #0x10]
  00a6c	e3530020	 cmp         r3, #0x20
  00a70	2a000012	 bcs         |$LN1@XllpPmSave|

; 237  :         pDataSaveArea->StandardRegListStore[i++] = pIntcRegs->ipr[j] & XLLP_INTC_IPR_MASK;    

  00a74	e59d3008	 ldr         r3, [sp, #8]
  00a78	e283101c	 add         r1, r3, #0x1C
  00a7c	e59d2010	 ldr         r2, [sp, #0x10]
  00a80	e3a03004	 mov         r3, #4
  00a84	e0030392	 mul         r3, r2, r3
  00a88	e0813003	 add         r3, r1, r3
  00a8c	e5933000	 ldr         r3, [r3]
  00a90	e20301fe	 and         r0, r3, #0xFE, 2
  00a94	e59d3020	 ldr         r3, [sp, #0x20]
  00a98	e2831078	 add         r1, r3, #0x78
  00a9c	e59d2000	 ldr         r2, [sp]
  00aa0	e3a03004	 mov         r3, #4
  00aa4	e0030392	 mul         r3, r2, r3
  00aa8	e0813003	 add         r3, r1, r3
  00aac	e5830000	 str         r0, [r3]
  00ab0	e59d3000	 ldr         r3, [sp]
  00ab4	e2833001	 add         r3, r3, #1
  00ab8	e58d3000	 str         r3, [sp]

; 238  :     }

  00abc	eaffffe6	 b           |$LN2@XllpPmSave|
  00ac0		 |$LN1@XllpPmSave|

; 239  :     pDataSaveArea->StandardRegListStore[i++] = pIntcRegs->ipr2[0] & XLLP_INTC_IPR2_MASK;    

  00ac0	e59d3008	 ldr         r3, [sp, #8]
  00ac4	e28330b0	 add         r3, r3, #0xB0
  00ac8	e5933000	 ldr         r3, [r3]
  00acc	e20301fe	 and         r0, r3, #0xFE, 2
  00ad0	e59d3020	 ldr         r3, [sp, #0x20]
  00ad4	e2831078	 add         r1, r3, #0x78
  00ad8	e59d2000	 ldr         r2, [sp]
  00adc	e3a03004	 mov         r3, #4
  00ae0	e0030392	 mul         r3, r2, r3
  00ae4	e0813003	 add         r3, r1, r3
  00ae8	e5830000	 str         r0, [r3]
  00aec	e59d3000	 ldr         r3, [sp]
  00af0	e2833001	 add         r3, r3, #1
  00af4	e58d3000	 str         r3, [sp]

; 240  :     pDataSaveArea->StandardRegListStore[i++] = pIntcRegs->ipr2[1] & XLLP_INTC_IPR2_MASK;

  00af8	e59d3008	 ldr         r3, [sp, #8]
  00afc	e28330b4	 add         r3, r3, #0xB4
  00b00	e5933000	 ldr         r3, [r3]
  00b04	e20301fe	 and         r0, r3, #0xFE, 2
  00b08	e59d3020	 ldr         r3, [sp, #0x20]
  00b0c	e2831078	 add         r1, r3, #0x78
  00b10	e59d2000	 ldr         r2, [sp]
  00b14	e3a03004	 mov         r3, #4
  00b18	e0030392	 mul         r3, r2, r3
  00b1c	e0813003	 add         r3, r1, r3
  00b20	e5830000	 str         r0, [r3]
  00b24	e59d3000	 ldr         r3, [sp]
  00b28	e2833001	 add         r3, r3, #1
  00b2c	e58d3000	 str         r3, [sp]

; 241  :     pDataSaveArea->StandardRegListStore[i++] = pIntcRegs->icmr    & XLLP_INTC_ICMR_MASK;

  00b30	e59d3008	 ldr         r3, [sp, #8]
  00b34	e2833004	 add         r3, r3, #4
  00b38	e5930000	 ldr         r0, [r3]
  00b3c	e59d3020	 ldr         r3, [sp, #0x20]
  00b40	e2831078	 add         r1, r3, #0x78
  00b44	e59d2000	 ldr         r2, [sp]
  00b48	e3a03004	 mov         r3, #4
  00b4c	e0030392	 mul         r3, r2, r3
  00b50	e0813003	 add         r3, r1, r3
  00b54	e5830000	 str         r0, [r3]
  00b58	e59d3000	 ldr         r3, [sp]
  00b5c	e2833001	 add         r3, r3, #1
  00b60	e58d3000	 str         r3, [sp]

; 242  :     pDataSaveArea->StandardRegListStore[i++] = pIntcRegs->icmr2   & XLLP_INTC_ICMR2_MASK;

  00b64	e59d3008	 ldr         r3, [sp, #8]
  00b68	e28330a0	 add         r3, r3, #0xA0
  00b6c	e5933000	 ldr         r3, [r3]
  00b70	e2030003	 and         r0, r3, #3
  00b74	e59d3020	 ldr         r3, [sp, #0x20]
  00b78	e2831078	 add         r1, r3, #0x78
  00b7c	e59d2000	 ldr         r2, [sp]
  00b80	e3a03004	 mov         r3, #4
  00b84	e0030392	 mul         r3, r2, r3
  00b88	e0813003	 add         r3, r1, r3
  00b8c	e5830000	 str         r0, [r3]
  00b90	e59d3000	 ldr         r3, [sp]
  00b94	e2833001	 add         r3, r3, #1
  00b98	e58d3000	 str         r3, [sp]

; 243  : 
; 244  :     PREFAST_ASSERT(i<=XLLP_PM_SLEEP_STD_REGLIST_CNT);

  00b9c	e59d3000	 ldr         r3, [sp]
  00ba0	e353003f	 cmp         r3, #0x3F
  00ba4	8a000002	 bhi         |$LN6@XllpPmSave|
  00ba8	e3a03001	 mov         r3, #1
  00bac	e58d3014	 str         r3, [sp, #0x14]
  00bb0	ea000007	 b           |$LN7@XllpPmSave|
  00bb4		 |$LN6@XllpPmSave|
  00bb4	e3a030f4	 mov         r3, #0xF4
  00bb8	e59f2028	 ldr         r2, [pc, #0x28]
  00bbc	e59f1020	 ldr         r1, [pc, #0x20]
  00bc0	e59f0018	 ldr         r0, [pc, #0x18]
  00bc4	eb000000	 bl          NKDbgPrintfW
  00bc8	e6000010	 __debugbreak_ce
  00bcc	e3a03000	 mov         r3, #0
  00bd0	e58d3014	 str         r3, [sp, #0x14]
  00bd4		 |$LN7@XllpPmSave|

; 245  :     
; 246  : }

  00bd4	e28dd018	 add         sp, sp, #0x18
  00bd8	e89d6000	 ldmia       sp, {sp, lr}
  00bdc	e12fff1e	 bx          lr
  00be0		 |$LN11@XllpPmSave|
  00be0		 |$LN12@XllpPmSave|
  00be0	00000000	 DCD         |??_C@_1FK@FNONLNGN@?$AA?$CF?$AAs?$AA?3?$AA?5?$AAD?$AAE?$AAB?$AAU?$AAG?$AAC?$AAH?$AAK?$AA?5?$AAf?$AAa?$AAi?$AAl?$AAe?$AAd?$AA?5?$AAi?$AAn?$AA?5?$AAf?$AAi?$AAl?$AAe?$AA?5?$AA?$CF?$AAs?$AA?5?$AAa@|
  00be4		 |$LN13@XllpPmSave|
  00be4	00000000	 DCD         |??_C@_1BA@LEPJIIOK@?$AAU?$AAn?$AAk?$AAn?$AAo?$AAw?$AAn?$AA?$AA@|
  00be8		 |$LN14@XllpPmSave|
  00be8	00000000	 DCD         |??_C@_1KM@IKMIPLEM@?$AAC?$AA?3?$AA?2?$AAW?$AAI?$AAN?$AAC?$AAE?$AA6?$AA0?$AA0?$AA?2?$AAP?$AAL?$AAA?$AAT?$AAF?$AAO?$AAR?$AAM?$AA?2?$AAC?$AAO?$AAM?$AAM?$AAO?$AAN?$AA?2?$AAS?$AAR?$AAC?$AA?2@|
  00bec		 |$M39495|

			 ENDP  ; |XllpPmSaveStdRegList|

	EXPORT	|XllpPmRestoreStdRegList|

  00018			 AREA	 |.pdata|, PDATA
|$T39508| DCD	|$LN10@XllpPmRest|
	DCD	0x4001dd04
; Function compile flags: /Odtp

  00bec			 AREA	 |.text|, CODE, ARM

  00bec		 |XllpPmRestoreStdRegList| PROC

; 248  : {

  00bec		 |$LN10@XllpPmRest|
  00bec	e1a0c00d	 mov         r12, sp
  00bf0	e92d0001	 stmdb       sp!, {r0}
  00bf4	e92d5000	 stmdb       sp!, {r12, lr}
  00bf8	e24dd018	 sub         sp, sp, #0x18
  00bfc		 |$M39505|

; 249  :     UINT32 i = 0;

  00bfc	e3a03000	 mov         r3, #0
  00c00	e58d3000	 str         r3, [sp]

; 250  :     UINT32 j = 0;

  00c04	e3a03000	 mov         r3, #0
  00c08	e58d3010	 str         r3, [sp, #0x10]

; 251  :     
; 252  :     P_XLLP_PWRMGR_T pPwrMgrRegs = (P_XLLP_PWRMGR_T) pDataSaveArea->pSleepParam->ProcRegs.UAPwrMgrRegs;

  00c0c	e59d3020	 ldr         r3, [sp, #0x20]
  00c10	e2833010	 add         r3, r3, #0x10
  00c14	e5933000	 ldr         r3, [r3]
  00c18	e283300c	 add         r3, r3, #0xC
  00c1c	e5933000	 ldr         r3, [r3]
  00c20	e58d3004	 str         r3, [sp, #4]

; 253  :     P_XLLP_GPIO_T   pGpioRegs   = (P_XLLP_GPIO_T)   pDataSaveArea->pSleepParam->ProcRegs.UAGPIORegs;

  00c24	e59d3020	 ldr         r3, [sp, #0x20]
  00c28	e2833010	 add         r3, r3, #0x10
  00c2c	e5933000	 ldr         r3, [r3]
  00c30	e2833010	 add         r3, r3, #0x10
  00c34	e5933000	 ldr         r3, [r3]
  00c38	e58d300c	 str         r3, [sp, #0xC]

; 254  :     P_XLLP_INTC_T   pIntcRegs   = (P_XLLP_INTC_T)   pDataSaveArea->pSleepParam->ProcRegs.UAIntcRegs;

  00c3c	e59d3020	 ldr         r3, [sp, #0x20]
  00c40	e2833010	 add         r3, r3, #0x10
  00c44	e5933000	 ldr         r3, [r3]
  00c48	e2833014	 add         r3, r3, #0x14
  00c4c	e5933000	 ldr         r3, [r3]
  00c50	e58d3008	 str         r3, [sp, #8]

; 255  : 
; 256  :     // Restore PGSRx regs
; 257  :     //
; 258  :     pPwrMgrRegs->PGSR0 = pDataSaveArea->StandardRegListStore[i++];

  00c54	e59d3020	 ldr         r3, [sp, #0x20]
  00c58	e2831078	 add         r1, r3, #0x78
  00c5c	e59d2000	 ldr         r2, [sp]
  00c60	e3a03004	 mov         r3, #4
  00c64	e0030392	 mul         r3, r2, r3
  00c68	e0811003	 add         r1, r1, r3
  00c6c	e59d3004	 ldr         r3, [sp, #4]
  00c70	e2832020	 add         r2, r3, #0x20
  00c74	e5913000	 ldr         r3, [r1]
  00c78	e5823000	 str         r3, [r2]
  00c7c	e59d3000	 ldr         r3, [sp]
  00c80	e2833001	 add         r3, r3, #1
  00c84	e58d3000	 str         r3, [sp]

; 259  :     pPwrMgrRegs->PGSR1 = pDataSaveArea->StandardRegListStore[i++];

  00c88	e59d3020	 ldr         r3, [sp, #0x20]
  00c8c	e2831078	 add         r1, r3, #0x78
  00c90	e59d2000	 ldr         r2, [sp]
  00c94	e3a03004	 mov         r3, #4
  00c98	e0030392	 mul         r3, r2, r3
  00c9c	e0811003	 add         r1, r1, r3
  00ca0	e59d3004	 ldr         r3, [sp, #4]
  00ca4	e2832024	 add         r2, r3, #0x24
  00ca8	e5913000	 ldr         r3, [r1]
  00cac	e5823000	 str         r3, [r2]
  00cb0	e59d3000	 ldr         r3, [sp]
  00cb4	e2833001	 add         r3, r3, #1
  00cb8	e58d3000	 str         r3, [sp]

; 260  :     pPwrMgrRegs->PGSR2 = pDataSaveArea->StandardRegListStore[i++];

  00cbc	e59d3020	 ldr         r3, [sp, #0x20]
  00cc0	e2831078	 add         r1, r3, #0x78
  00cc4	e59d2000	 ldr         r2, [sp]
  00cc8	e3a03004	 mov         r3, #4
  00ccc	e0030392	 mul         r3, r2, r3
  00cd0	e0811003	 add         r1, r1, r3
  00cd4	e59d3004	 ldr         r3, [sp, #4]
  00cd8	e2832028	 add         r2, r3, #0x28
  00cdc	e5913000	 ldr         r3, [r1]
  00ce0	e5823000	 str         r3, [r2]
  00ce4	e59d3000	 ldr         r3, [sp]
  00ce8	e2833001	 add         r3, r3, #1
  00cec	e58d3000	 str         r3, [sp]

; 261  :     pPwrMgrRegs->PGSR3 = pDataSaveArea->StandardRegListStore[i++];

  00cf0	e59d3020	 ldr         r3, [sp, #0x20]
  00cf4	e2831078	 add         r1, r3, #0x78
  00cf8	e59d2000	 ldr         r2, [sp]
  00cfc	e3a03004	 mov         r3, #4
  00d00	e0030392	 mul         r3, r2, r3
  00d04	e0811003	 add         r1, r1, r3
  00d08	e59d3004	 ldr         r3, [sp, #4]
  00d0c	e283202c	 add         r2, r3, #0x2C
  00d10	e5913000	 ldr         r3, [r1]
  00d14	e5823000	 str         r3, [r2]
  00d18	e59d3000	 ldr         r3, [sp]
  00d1c	e2833001	 add         r3, r3, #1
  00d20	e58d3000	 str         r3, [sp]

; 262  :     
; 263  :     // Restore GPIO regs
; 264  :     //
; 265  :     pGpioRegs->GPDR0 = pDataSaveArea->StandardRegListStore[i++];

  00d24	e59d3020	 ldr         r3, [sp, #0x20]
  00d28	e2831078	 add         r1, r3, #0x78
  00d2c	e59d2000	 ldr         r2, [sp]
  00d30	e3a03004	 mov         r3, #4
  00d34	e0030392	 mul         r3, r2, r3
  00d38	e0811003	 add         r1, r1, r3
  00d3c	e59d300c	 ldr         r3, [sp, #0xC]
  00d40	e283200c	 add         r2, r3, #0xC
  00d44	e5913000	 ldr         r3, [r1]
  00d48	e5823000	 str         r3, [r2]
  00d4c	e59d3000	 ldr         r3, [sp]
  00d50	e2833001	 add         r3, r3, #1
  00d54	e58d3000	 str         r3, [sp]

; 266  :     pGpioRegs->GPDR1 = pDataSaveArea->StandardRegListStore[i++];

  00d58	e59d3020	 ldr         r3, [sp, #0x20]
  00d5c	e2831078	 add         r1, r3, #0x78
  00d60	e59d2000	 ldr         r2, [sp]
  00d64	e3a03004	 mov         r3, #4
  00d68	e0030392	 mul         r3, r2, r3
  00d6c	e0811003	 add         r1, r1, r3
  00d70	e59d300c	 ldr         r3, [sp, #0xC]
  00d74	e2832010	 add         r2, r3, #0x10
  00d78	e5913000	 ldr         r3, [r1]
  00d7c	e5823000	 str         r3, [r2]
  00d80	e59d3000	 ldr         r3, [sp]
  00d84	e2833001	 add         r3, r3, #1
  00d88	e58d3000	 str         r3, [sp]

; 267  :     pGpioRegs->GPDR2 = pDataSaveArea->StandardRegListStore[i++];

  00d8c	e59d3020	 ldr         r3, [sp, #0x20]
  00d90	e2831078	 add         r1, r3, #0x78
  00d94	e59d2000	 ldr         r2, [sp]
  00d98	e3a03004	 mov         r3, #4
  00d9c	e0030392	 mul         r3, r2, r3
  00da0	e0811003	 add         r1, r1, r3
  00da4	e59d300c	 ldr         r3, [sp, #0xC]
  00da8	e2832014	 add         r2, r3, #0x14
  00dac	e5913000	 ldr         r3, [r1]
  00db0	e5823000	 str         r3, [r2]
  00db4	e59d3000	 ldr         r3, [sp]
  00db8	e2833001	 add         r3, r3, #1
  00dbc	e58d3000	 str         r3, [sp]

; 268  :     pGpioRegs->GPDR3 = pDataSaveArea->StandardRegListStore[i++];

  00dc0	e59d3020	 ldr         r3, [sp, #0x20]
  00dc4	e2831078	 add         r1, r3, #0x78
  00dc8	e59d2000	 ldr         r2, [sp]
  00dcc	e3a03004	 mov         r3, #4
  00dd0	e0030392	 mul         r3, r2, r3
  00dd4	e0811003	 add         r1, r1, r3
  00dd8	e59d300c	 ldr         r3, [sp, #0xC]
  00ddc	e2832f43	 add         r2, r3, #0x43, 30
  00de0	e5913000	 ldr         r3, [r1]
  00de4	e5823000	 str         r3, [r2]
  00de8	e59d3000	 ldr         r3, [sp]
  00dec	e2833001	 add         r3, r3, #1
  00df0	e58d3000	 str         r3, [sp]

; 269  :     pGpioRegs->GAFR0_L = pDataSaveArea->StandardRegListStore[i++];

  00df4	e59d3020	 ldr         r3, [sp, #0x20]
  00df8	e2831078	 add         r1, r3, #0x78
  00dfc	e59d2000	 ldr         r2, [sp]
  00e00	e3a03004	 mov         r3, #4
  00e04	e0030392	 mul         r3, r2, r3
  00e08	e0811003	 add         r1, r1, r3
  00e0c	e59d300c	 ldr         r3, [sp, #0xC]
  00e10	e2832054	 add         r2, r3, #0x54
  00e14	e5913000	 ldr         r3, [r1]
  00e18	e5823000	 str         r3, [r2]
  00e1c	e59d3000	 ldr         r3, [sp]
  00e20	e2833001	 add         r3, r3, #1
  00e24	e58d3000	 str         r3, [sp]

; 270  :     pGpioRegs->GAFR0_U = pDataSaveArea->StandardRegListStore[i++];

  00e28	e59d3020	 ldr         r3, [sp, #0x20]
  00e2c	e2831078	 add         r1, r3, #0x78
  00e30	e59d2000	 ldr         r2, [sp]
  00e34	e3a03004	 mov         r3, #4
  00e38	e0030392	 mul         r3, r2, r3
  00e3c	e0811003	 add         r1, r1, r3
  00e40	e59d300c	 ldr         r3, [sp, #0xC]
  00e44	e2832058	 add         r2, r3, #0x58
  00e48	e5913000	 ldr         r3, [r1]
  00e4c	e5823000	 str         r3, [r2]
  00e50	e59d3000	 ldr         r3, [sp]
  00e54	e2833001	 add         r3, r3, #1
  00e58	e58d3000	 str         r3, [sp]

; 271  :     pGpioRegs->GAFR1_L = pDataSaveArea->StandardRegListStore[i++];

  00e5c	e59d3020	 ldr         r3, [sp, #0x20]
  00e60	e2831078	 add         r1, r3, #0x78
  00e64	e59d2000	 ldr         r2, [sp]
  00e68	e3a03004	 mov         r3, #4
  00e6c	e0030392	 mul         r3, r2, r3
  00e70	e0811003	 add         r1, r1, r3
  00e74	e59d300c	 ldr         r3, [sp, #0xC]
  00e78	e283205c	 add         r2, r3, #0x5C
  00e7c	e5913000	 ldr         r3, [r1]
  00e80	e5823000	 str         r3, [r2]
  00e84	e59d3000	 ldr         r3, [sp]
  00e88	e2833001	 add         r3, r3, #1
  00e8c	e58d3000	 str         r3, [sp]

; 272  :     pGpioRegs->GAFR1_U = pDataSaveArea->StandardRegListStore[i++];

  00e90	e59d3020	 ldr         r3, [sp, #0x20]
  00e94	e2831078	 add         r1, r3, #0x78
  00e98	e59d2000	 ldr         r2, [sp]
  00e9c	e3a03004	 mov         r3, #4
  00ea0	e0030392	 mul         r3, r2, r3
  00ea4	e0811003	 add         r1, r1, r3
  00ea8	e59d300c	 ldr         r3, [sp, #0xC]
  00eac	e2832060	 add         r2, r3, #0x60
  00eb0	e5913000	 ldr         r3, [r1]
  00eb4	e5823000	 str         r3, [r2]
  00eb8	e59d3000	 ldr         r3, [sp]
  00ebc	e2833001	 add         r3, r3, #1
  00ec0	e58d3000	 str         r3, [sp]

; 273  :     pGpioRegs->GAFR2_L = pDataSaveArea->StandardRegListStore[i++];

  00ec4	e59d3020	 ldr         r3, [sp, #0x20]
  00ec8	e2831078	 add         r1, r3, #0x78
  00ecc	e59d2000	 ldr         r2, [sp]
  00ed0	e3a03004	 mov         r3, #4
  00ed4	e0030392	 mul         r3, r2, r3
  00ed8	e0811003	 add         r1, r1, r3
  00edc	e59d300c	 ldr         r3, [sp, #0xC]
  00ee0	e2832064	 add         r2, r3, #0x64
  00ee4	e5913000	 ldr         r3, [r1]
  00ee8	e5823000	 str         r3, [r2]
  00eec	e59d3000	 ldr         r3, [sp]
  00ef0	e2833001	 add         r3, r3, #1
  00ef4	e58d3000	 str         r3, [sp]

; 274  :     pGpioRegs->GAFR2_U = pDataSaveArea->StandardRegListStore[i++];

  00ef8	e59d3020	 ldr         r3, [sp, #0x20]
  00efc	e2831078	 add         r1, r3, #0x78
  00f00	e59d2000	 ldr         r2, [sp]
  00f04	e3a03004	 mov         r3, #4
  00f08	e0030392	 mul         r3, r2, r3
  00f0c	e0811003	 add         r1, r1, r3
  00f10	e59d300c	 ldr         r3, [sp, #0xC]
  00f14	e2832068	 add         r2, r3, #0x68
  00f18	e5913000	 ldr         r3, [r1]
  00f1c	e5823000	 str         r3, [r2]
  00f20	e59d3000	 ldr         r3, [sp]
  00f24	e2833001	 add         r3, r3, #1
  00f28	e58d3000	 str         r3, [sp]

; 275  :     pGpioRegs->GAFR3_L = pDataSaveArea->StandardRegListStore[i++];

  00f2c	e59d3020	 ldr         r3, [sp, #0x20]
  00f30	e2831078	 add         r1, r3, #0x78
  00f34	e59d2000	 ldr         r2, [sp]
  00f38	e3a03004	 mov         r3, #4
  00f3c	e0030392	 mul         r3, r2, r3
  00f40	e0811003	 add         r1, r1, r3
  00f44	e59d300c	 ldr         r3, [sp, #0xC]
  00f48	e283206c	 add         r2, r3, #0x6C
  00f4c	e5913000	 ldr         r3, [r1]
  00f50	e5823000	 str         r3, [r2]
  00f54	e59d3000	 ldr         r3, [sp]
  00f58	e2833001	 add         r3, r3, #1
  00f5c	e58d3000	 str         r3, [sp]

; 276  :     pGpioRegs->GAFR3_U = pDataSaveArea->StandardRegListStore[i++];

  00f60	e59d3020	 ldr         r3, [sp, #0x20]
  00f64	e2831078	 add         r1, r3, #0x78
  00f68	e59d2000	 ldr         r2, [sp]
  00f6c	e3a03004	 mov         r3, #4
  00f70	e0030392	 mul         r3, r2, r3
  00f74	e0811003	 add         r1, r1, r3
  00f78	e59d300c	 ldr         r3, [sp, #0xC]
  00f7c	e2832070	 add         r2, r3, #0x70
  00f80	e5913000	 ldr         r3, [r1]
  00f84	e5823000	 str         r3, [r2]
  00f88	e59d3000	 ldr         r3, [sp]
  00f8c	e2833001	 add         r3, r3, #1
  00f90	e58d3000	 str         r3, [sp]

; 277  :     pGpioRegs->GRER0 = pDataSaveArea->StandardRegListStore[i++];

  00f94	e59d3020	 ldr         r3, [sp, #0x20]
  00f98	e2831078	 add         r1, r3, #0x78
  00f9c	e59d2000	 ldr         r2, [sp]
  00fa0	e3a03004	 mov         r3, #4
  00fa4	e0030392	 mul         r3, r2, r3
  00fa8	e0811003	 add         r1, r1, r3
  00fac	e59d300c	 ldr         r3, [sp, #0xC]
  00fb0	e2832030	 add         r2, r3, #0x30
  00fb4	e5913000	 ldr         r3, [r1]
  00fb8	e5823000	 str         r3, [r2]
  00fbc	e59d3000	 ldr         r3, [sp]
  00fc0	e2833001	 add         r3, r3, #1
  00fc4	e58d3000	 str         r3, [sp]

; 278  :     pGpioRegs->GRER1 = pDataSaveArea->StandardRegListStore[i++];

  00fc8	e59d3020	 ldr         r3, [sp, #0x20]
  00fcc	e2831078	 add         r1, r3, #0x78
  00fd0	e59d2000	 ldr         r2, [sp]
  00fd4	e3a03004	 mov         r3, #4
  00fd8	e0030392	 mul         r3, r2, r3
  00fdc	e0811003	 add         r1, r1, r3
  00fe0	e59d300c	 ldr         r3, [sp, #0xC]
  00fe4	e2832034	 add         r2, r3, #0x34
  00fe8	e5913000	 ldr         r3, [r1]
  00fec	e5823000	 str         r3, [r2]
  00ff0	e59d3000	 ldr         r3, [sp]
  00ff4	e2833001	 add         r3, r3, #1
  00ff8	e58d3000	 str         r3, [sp]

; 279  :     pGpioRegs->GRER2 = pDataSaveArea->StandardRegListStore[i++];

  00ffc	e59d3020	 ldr         r3, [sp, #0x20]
  01000	e2831078	 add         r1, r3, #0x78
  01004	e59d2000	 ldr         r2, [sp]
  01008	e3a03004	 mov         r3, #4
  0100c	e0030392	 mul         r3, r2, r3
  01010	e0811003	 add         r1, r1, r3
  01014	e59d300c	 ldr         r3, [sp, #0xC]
  01018	e2832038	 add         r2, r3, #0x38
  0101c	e5913000	 ldr         r3, [r1]
  01020	e5823000	 str         r3, [r2]
  01024	e59d3000	 ldr         r3, [sp]
  01028	e2833001	 add         r3, r3, #1
  0102c	e58d3000	 str         r3, [sp]

; 280  :     pGpioRegs->GRER3 = pDataSaveArea->StandardRegListStore[i++];

  01030	e59d3020	 ldr         r3, [sp, #0x20]
  01034	e2831078	 add         r1, r3, #0x78
  01038	e59d2000	 ldr         r2, [sp]
  0103c	e3a03004	 mov         r3, #4
  01040	e0030392	 mul         r3, r2, r3
  01044	e0811003	 add         r1, r1, r3
  01048	e59d300c	 ldr         r3, [sp, #0xC]
  0104c	e2832e13	 add         r2, r3, #0x13, 28
  01050	e5913000	 ldr         r3, [r1]
  01054	e5823000	 str         r3, [r2]
  01058	e59d3000	 ldr         r3, [sp]
  0105c	e2833001	 add         r3, r3, #1
  01060	e58d3000	 str         r3, [sp]

; 281  :     pGpioRegs->GFER0 = pDataSaveArea->StandardRegListStore[i++];

  01064	e59d3020	 ldr         r3, [sp, #0x20]
  01068	e2831078	 add         r1, r3, #0x78
  0106c	e59d2000	 ldr         r2, [sp]
  01070	e3a03004	 mov         r3, #4
  01074	e0030392	 mul         r3, r2, r3
  01078	e0811003	 add         r1, r1, r3
  0107c	e59d300c	 ldr         r3, [sp, #0xC]
  01080	e283203c	 add         r2, r3, #0x3C
  01084	e5913000	 ldr         r3, [r1]
  01088	e5823000	 str         r3, [r2]
  0108c	e59d3000	 ldr         r3, [sp]
  01090	e2833001	 add         r3, r3, #1
  01094	e58d3000	 str         r3, [sp]

; 282  :     pGpioRegs->GFER1 = pDataSaveArea->StandardRegListStore[i++];

  01098	e59d3020	 ldr         r3, [sp, #0x20]
  0109c	e2831078	 add         r1, r3, #0x78
  010a0	e59d2000	 ldr         r2, [sp]
  010a4	e3a03004	 mov         r3, #4
  010a8	e0030392	 mul         r3, r2, r3
  010ac	e0811003	 add         r1, r1, r3
  010b0	e59d300c	 ldr         r3, [sp, #0xC]
  010b4	e2832040	 add         r2, r3, #0x40
  010b8	e5913000	 ldr         r3, [r1]
  010bc	e5823000	 str         r3, [r2]
  010c0	e59d3000	 ldr         r3, [sp]
  010c4	e2833001	 add         r3, r3, #1
  010c8	e58d3000	 str         r3, [sp]

; 283  :     pGpioRegs->GFER2 = pDataSaveArea->StandardRegListStore[i++];

  010cc	e59d3020	 ldr         r3, [sp, #0x20]
  010d0	e2831078	 add         r1, r3, #0x78
  010d4	e59d2000	 ldr         r2, [sp]
  010d8	e3a03004	 mov         r3, #4
  010dc	e0030392	 mul         r3, r2, r3
  010e0	e0811003	 add         r1, r1, r3
  010e4	e59d300c	 ldr         r3, [sp, #0xC]
  010e8	e2832044	 add         r2, r3, #0x44
  010ec	e5913000	 ldr         r3, [r1]
  010f0	e5823000	 str         r3, [r2]
  010f4	e59d3000	 ldr         r3, [sp]
  010f8	e2833001	 add         r3, r3, #1
  010fc	e58d3000	 str         r3, [sp]

; 284  :     pGpioRegs->GFER3 = pDataSaveArea->StandardRegListStore[i++];  

  01100	e59d3020	 ldr         r3, [sp, #0x20]
  01104	e2831078	 add         r1, r3, #0x78
  01108	e59d2000	 ldr         r2, [sp]
  0110c	e3a03004	 mov         r3, #4
  01110	e0030392	 mul         r3, r2, r3
  01114	e0811003	 add         r1, r1, r3
  01118	e59d300c	 ldr         r3, [sp, #0xC]
  0111c	e2832f4f	 add         r2, r3, #0x4F, 30
  01120	e5913000	 ldr         r3, [r1]
  01124	e5823000	 str         r3, [r2]
  01128	e59d3000	 ldr         r3, [sp]
  0112c	e2833001	 add         r3, r3, #1
  01130	e58d3000	 str         r3, [sp]

; 285  : 
; 286  :     // INTC registers
; 287  :     //
; 288  :     pIntcRegs->iclr  = pDataSaveArea->StandardRegListStore[i++];

  01134	e59d3020	 ldr         r3, [sp, #0x20]
  01138	e2831078	 add         r1, r3, #0x78
  0113c	e59d2000	 ldr         r2, [sp]
  01140	e3a03004	 mov         r3, #4
  01144	e0030392	 mul         r3, r2, r3
  01148	e0811003	 add         r1, r1, r3
  0114c	e59d3008	 ldr         r3, [sp, #8]
  01150	e2832008	 add         r2, r3, #8
  01154	e5913000	 ldr         r3, [r1]
  01158	e5823000	 str         r3, [r2]
  0115c	e59d3000	 ldr         r3, [sp]
  01160	e2833001	 add         r3, r3, #1
  01164	e58d3000	 str         r3, [sp]

; 289  :     pIntcRegs->iclr2 = pDataSaveArea->StandardRegListStore[i++];

  01168	e59d3020	 ldr         r3, [sp, #0x20]
  0116c	e2831078	 add         r1, r3, #0x78
  01170	e59d2000	 ldr         r2, [sp]
  01174	e3a03004	 mov         r3, #4
  01178	e0030392	 mul         r3, r2, r3
  0117c	e0811003	 add         r1, r1, r3
  01180	e59d3008	 ldr         r3, [sp, #8]
  01184	e28320a4	 add         r2, r3, #0xA4
  01188	e5913000	 ldr         r3, [r1]
  0118c	e5823000	 str         r3, [r2]
  01190	e59d3000	 ldr         r3, [sp]
  01194	e2833001	 add         r3, r3, #1
  01198	e58d3000	 str         r3, [sp]

; 290  :     pIntcRegs->iccr  = pDataSaveArea->StandardRegListStore[i++];

  0119c	e59d3020	 ldr         r3, [sp, #0x20]
  011a0	e2831078	 add         r1, r3, #0x78
  011a4	e59d2000	 ldr         r2, [sp]
  011a8	e3a03004	 mov         r3, #4
  011ac	e0030392	 mul         r3, r2, r3
  011b0	e0811003	 add         r1, r1, r3
  011b4	e59d3008	 ldr         r3, [sp, #8]
  011b8	e2832014	 add         r2, r3, #0x14
  011bc	e5913000	 ldr         r3, [r1]
  011c0	e5823000	 str         r3, [r2]
  011c4	e59d3000	 ldr         r3, [sp]
  011c8	e2833001	 add         r3, r3, #1
  011cc	e58d3000	 str         r3, [sp]

; 291  :     for (j=0; j<32; j++) {

  011d0	e3a03000	 mov         r3, #0
  011d4	e58d3010	 str         r3, [sp, #0x10]
  011d8	ea000002	 b           |$LN3@XllpPmRest|
  011dc		 |$LN2@XllpPmRest|
  011dc	e59d3010	 ldr         r3, [sp, #0x10]
  011e0	e2833001	 add         r3, r3, #1
  011e4	e58d3010	 str         r3, [sp, #0x10]
  011e8		 |$LN3@XllpPmRest|
  011e8	e59d3010	 ldr         r3, [sp, #0x10]
  011ec	e3530020	 cmp         r3, #0x20
  011f0	2a000011	 bcs         |$LN1@XllpPmRest|

; 292  :         pIntcRegs->ipr[j] = pDataSaveArea->StandardRegListStore[i++];

  011f4	e59d3020	 ldr         r3, [sp, #0x20]
  011f8	e2831078	 add         r1, r3, #0x78
  011fc	e59d2000	 ldr         r2, [sp]
  01200	e3a03004	 mov         r3, #4
  01204	e0030392	 mul         r3, r2, r3
  01208	e0810003	 add         r0, r1, r3
  0120c	e59d3008	 ldr         r3, [sp, #8]
  01210	e283101c	 add         r1, r3, #0x1C
  01214	e59d2010	 ldr         r2, [sp, #0x10]
  01218	e3a03004	 mov         r3, #4
  0121c	e0030392	 mul         r3, r2, r3
  01220	e0812003	 add         r2, r1, r3
  01224	e5903000	 ldr         r3, [r0]
  01228	e5823000	 str         r3, [r2]
  0122c	e59d3000	 ldr         r3, [sp]
  01230	e2833001	 add         r3, r3, #1
  01234	e58d3000	 str         r3, [sp]

; 293  :     }

  01238	eaffffe7	 b           |$LN2@XllpPmRest|
  0123c		 |$LN1@XllpPmRest|

; 294  :     pIntcRegs->ipr2[0] = pDataSaveArea->StandardRegListStore[i++];

  0123c	e59d3020	 ldr         r3, [sp, #0x20]
  01240	e2831078	 add         r1, r3, #0x78
  01244	e59d2000	 ldr         r2, [sp]
  01248	e3a03004	 mov         r3, #4
  0124c	e0030392	 mul         r3, r2, r3
  01250	e0811003	 add         r1, r1, r3
  01254	e59d3008	 ldr         r3, [sp, #8]
  01258	e28320b0	 add         r2, r3, #0xB0
  0125c	e5913000	 ldr         r3, [r1]
  01260	e5823000	 str         r3, [r2]
  01264	e59d3000	 ldr         r3, [sp]
  01268	e2833001	 add         r3, r3, #1
  0126c	e58d3000	 str         r3, [sp]

; 295  :     pIntcRegs->ipr2[1] = pDataSaveArea->StandardRegListStore[i++];

  01270	e59d3020	 ldr         r3, [sp, #0x20]
  01274	e2831078	 add         r1, r3, #0x78
  01278	e59d2000	 ldr         r2, [sp]
  0127c	e3a03004	 mov         r3, #4
  01280	e0030392	 mul         r3, r2, r3
  01284	e0811003	 add         r1, r1, r3
  01288	e59d3008	 ldr         r3, [sp, #8]
  0128c	e28320b4	 add         r2, r3, #0xB4
  01290	e5913000	 ldr         r3, [r1]
  01294	e5823000	 str         r3, [r2]
  01298	e59d3000	 ldr         r3, [sp]
  0129c	e2833001	 add         r3, r3, #1
  012a0	e58d3000	 str         r3, [sp]

; 296  :     pIntcRegs->icmr    = pDataSaveArea->StandardRegListStore[i++];

  012a4	e59d3020	 ldr         r3, [sp, #0x20]
  012a8	e2831078	 add         r1, r3, #0x78
  012ac	e59d2000	 ldr         r2, [sp]
  012b0	e3a03004	 mov         r3, #4
  012b4	e0030392	 mul         r3, r2, r3
  012b8	e0811003	 add         r1, r1, r3
  012bc	e59d3008	 ldr         r3, [sp, #8]
  012c0	e2832004	 add         r2, r3, #4
  012c4	e5913000	 ldr         r3, [r1]
  012c8	e5823000	 str         r3, [r2]
  012cc	e59d3000	 ldr         r3, [sp]
  012d0	e2833001	 add         r3, r3, #1
  012d4	e58d3000	 str         r3, [sp]

; 297  :     pIntcRegs->icmr2   = pDataSaveArea->StandardRegListStore[i++];

  012d8	e59d3020	 ldr         r3, [sp, #0x20]
  012dc	e2831078	 add         r1, r3, #0x78
  012e0	e59d2000	 ldr         r2, [sp]
  012e4	e3a03004	 mov         r3, #4
  012e8	e0030392	 mul         r3, r2, r3
  012ec	e0811003	 add         r1, r1, r3
  012f0	e59d3008	 ldr         r3, [sp, #8]
  012f4	e28320a0	 add         r2, r3, #0xA0
  012f8	e5913000	 ldr         r3, [r1]
  012fc	e5823000	 str         r3, [r2]
  01300	e59d3000	 ldr         r3, [sp]
  01304	e2833001	 add         r3, r3, #1
  01308	e58d3000	 str         r3, [sp]

; 298  : 
; 299  :     PREFAST_ASSERT(i<=XLLP_PM_SLEEP_STD_REGLIST_CNT);

  0130c	e59d3000	 ldr         r3, [sp]
  01310	e353003f	 cmp         r3, #0x3F
  01314	8a000002	 bhi         |$LN6@XllpPmRest|
  01318	e3a03001	 mov         r3, #1
  0131c	e58d3014	 str         r3, [sp, #0x14]
  01320	ea000008	 b           |$LN7@XllpPmRest|
  01324		 |$LN6@XllpPmRest|
  01324	e3a03c01	 mov         r3, #1, 24
  01328	e383302b	 orr         r3, r3, #0x2B
  0132c	e59f2028	 ldr         r2, [pc, #0x28]
  01330	e59f1020	 ldr         r1, [pc, #0x20]
  01334	e59f0018	 ldr         r0, [pc, #0x18]
  01338	eb000000	 bl          NKDbgPrintfW
  0133c	e6000010	 __debugbreak_ce
  01340	e3a03000	 mov         r3, #0
  01344	e58d3014	 str         r3, [sp, #0x14]
  01348		 |$LN7@XllpPmRest|

; 300  :     
; 301  : }

  01348	e28dd018	 add         sp, sp, #0x18
  0134c	e89d6000	 ldmia       sp, {sp, lr}
  01350	e12fff1e	 bx          lr
  01354		 |$LN11@XllpPmRest|
  01354		 |$LN12@XllpPmRest|
  01354	00000000	 DCD         |??_C@_1FK@FNONLNGN@?$AA?$CF?$AAs?$AA?3?$AA?5?$AAD?$AAE?$AAB?$AAU?$AAG?$AAC?$AAH?$AAK?$AA?5?$AAf?$AAa?$AAi?$AAl?$AAe?$AAd?$AA?5?$AAi?$AAn?$AA?5?$AAf?$AAi?$AAl?$AAe?$AA?5?$AA?$CF?$AAs?$AA?5?$AAa@|
  01358		 |$LN13@XllpPmRest|
  01358	00000000	 DCD         |??_C@_1BA@LEPJIIOK@?$AAU?$AAn?$AAk?$AAn?$AAo?$AAw?$AAn?$AA?$AA@|
  0135c		 |$LN14@XllpPmRest|
  0135c	00000000	 DCD         |??_C@_1KM@IKMIPLEM@?$AAC?$AA?3?$AA?2?$AAW?$AAI?$AAN?$AAC?$AAE?$AA6?$AA0?$AA0?$AA?2?$AAP?$AAL?$AAA?$AAT?$AAF?$AAO?$AAR?$AAM?$AA?2?$AAC?$AAO?$AAM?$AAM?$AAO?$AAN?$AA?2?$AAS?$AAR?$AAC?$AA?2@|
  01360		 |$M39506|

			 ENDP  ; |XllpPmRestoreStdRegList|


  00020			 AREA	 |.pdata|, PDATA
|$T39517| DCD	|$LN5@XllpPmSave@2|
	DCD	0x40000703
; Function compile flags: /Odtp

  01360			 AREA	 |.text|, CODE, ARM

  01360		 |XllpPmSaveAllRegLists| PROC

; 304  : {

  01360		 |$LN5@XllpPmSave@2|
  01360	e1a0c00d	 mov         r12, sp
  01364	e92d0001	 stmdb       sp!, {r0}
  01368	e92d5000	 stmdb       sp!, {r12, lr}
  0136c		 |$M39514|

; 305  : 
; 306  :     // First, store registers from standard list
; 307  :     XllpPmSaveStdRegList(pDataSaveArea);

  0136c	e59d0008	 ldr         r0, [sp, #8]
  01370	eb000000	 bl          XllpPmSaveStdRegList

; 308  : 
; 309  :     // Also call special coprocessor save function here.
; 310  :  #ifdef USING_COPROCSUPPORT
; 311  :     Xllp_Store_All_WMMX_Regs(&pDataSaveArea->IWMMXTRegs[0]);
; 312  : #endif  
; 313  : 
; 314  : }  // XllpPmSaveAllRegLists()

  01374	e89d6000	 ldmia       sp, {sp, lr}
  01378	e12fff1e	 bx          lr
  0137c		 |$M39515|

			 ENDP  ; |XllpPmSaveAllRegLists|


  00028			 AREA	 |.pdata|, PDATA
|$T39522| DCD	|$LN5@XllpPmRest@2|
	DCD	0x40000703
; Function compile flags: /Odtp

  0137c			 AREA	 |.text|, CODE, ARM

  0137c		 |XllpPmRestoreAllRegLists| PROC

; 318  : {

  0137c		 |$LN5@XllpPmRest@2|
  0137c	e1a0c00d	 mov         r12, sp
  01380	e92d0001	 stmdb       sp!, {r0}
  01384	e92d5000	 stmdb       sp!, {r12, lr}
  01388		 |$M39519|

; 319  : 
; 320  :     // First, restore registers from standard list
; 321  :     XllpPmRestoreStdRegList(pDataSaveArea);

  01388	e59d0008	 ldr         r0, [sp, #8]
  0138c	eb000000	 bl          XllpPmRestoreStdRegList

; 322  : 
; 323  :     // Also call special coprocessor restore function here.
; 324  :  #ifdef USING_COPROCSUPPORT
; 325  :     Xllp_Restore_All_WMMX_Regs(&pDataSaveArea->IWMMXTRegs[0]);
; 326  : #endif //def USING_COPROCSUPPORT
; 327  : 
; 328  : }   // XllpPmRestoreAllRegLists()

  01390	e89d6000	 ldmia       sp, {sp, lr}
  01394	e12fff1e	 bx          lr
  01398		 |$M39520|

			 ENDP  ; |XllpPmRestoreAllRegLists|

	END
