; Listing generated by Microsoft (R) Optimizing Compiler Version 14.01.60511.01 

	TTL	C:\WINCE600\PLATFORM\COMMON\SRC\SOC\COMMON_TI_V1\OMAP3530\MUSB\APPL\musb_sessreq.cpp
	CODE32

  00000			 AREA	 |.drectve|, DRECTVE
	DCB	"-defaultlib:LIBCMT "
	DCB	"-defaultlib:OLDNAMES "

	EXPORT	|??_C@_1BI@IKINCDMB@?$AA?5?$AA?$DP?$AA?5?$AA?9?$AA?5?$AAH?$AAe?$AAl?$AAp?$AA?$AN?$AA?6?$AA?$AA@| [ DATA ] ; `string'
	EXPORT	|??_C@_1EE@CJILKDBD@?$AA?5?$AAR?$AA?0?$AAr?$AA?5?$AA?9?$AA?5?$AAR?$AAe?$AAs?$AAu?$AAm?$AAe?$AA?5?$AA?$CI?$AAh?$AAo?$AAs?$AAt?$AA?5?$AAm?$AAo?$AAd?$AAe?$AA?5?$AAo?$AAn?$AAl?$AAy?$AA?$CJ?$AA?5?$AA?$AN@| [ DATA ] ; `string'
	EXPORT	|??_C@_1FI@FGHDEEHC@?$AA?5?$AAS?$AA?0?$AAs?$AA?5?$AA?9?$AA?5?$AAS?$AAe?$AAt?$AA?5?$AAS?$AAu?$AAs?$AAp?$AAe?$AAn?$AAd?$AA?5?$AAM?$AAo?$AAd?$AAe?$AA?5?$AA?$CI?$AAh?$AAo?$AAs?$AAt?$AA?5?$AAm?$AAo@| [ DATA ] ; `string'
	EXPORT	|??_C@_1HC@CCGCAOFH@?$AA?5?$AAH?$AA?0?$AAh?$AA?5?$AA?9?$AA?5?$AAH?$AAo?$AAs?$AAt?$AA?5?$AAR?$AAe?$AAq?$AAu?$AAe?$AAs?$AAt?$AA?5?$AAM?$AAo?$AAd?$AAe?$AA?5?$AAf?$AAo?$AAr?$AA?5?$AAH?$AAN?$AAP@| [ DATA ] ; `string'
	EXPORT	|??_C@_1DI@OAPABILM@?$AA?5?$AAL?$AA?0?$AAl?$AA?5?$AA?9?$AA?5?$AAS?$AAe?$AAt?$AA?5?$AAL?$AAo?$AAw?$AA?5?$AAP?$AAo?$AAw?$AAe?$AAr?$AA?5?$AAM?$AAo?$AAd?$AAe?$AA?$AN?$AA?6?$AA?$AA@| [ DATA ] ; `string'
	EXPORT	|??_C@_1DC@CJFBHHH@?$AA?5?$AAU?$AA?0?$AAu?$AA?5?$AA?9?$AA?5?$AAQ?$AAu?$AAe?$AAr?$AAy?$AA?5?$AAU?$AAL?$AAP?$AAI?$AA?5?$AAI?$AAn?$AAf?$AAo?$AA?$AN?$AA?6?$AA?$AA@| [ DATA ] ; `string'
	EXPORT	|??_C@_1DO@PKJCKKGO@?$AA?5?$AAQ?$AA?0?$AAq?$AA?5?$AA?9?$AA?5?$AAQ?$AAu?$AAe?$AAr?$AAy?$AA?5?$AAC?$AAo?$AAn?$AAt?$AAr?$AAo?$AAl?$AAl?$AAe?$AAr?$AA?5?$AAI?$AAn?$AAf?$AAo?$AA?$AN?$AA?6?$AA?$AA@| [ DATA ] ; `string'
	EXPORT	|??_C@_1EC@JABHNGOA@?$AA?5?$AAD?$AA?0?$AAd?$AA?5?$AA?9?$AA?5?$AAD?$AAi?$AAs?$AAa?$AAb?$AAl?$AAe?$AA?5?$AAS?$AAe?$AAs?$AAs?$AAi?$AAo?$AAn?$AA?5?$AAR?$AAe?$AAq?$AAu?$AAe?$AAs?$AAt?$AA?$AN?$AA?6@| [ DATA ] ; `string'
	EXPORT	|??_C@_1EA@IKLGGLFP@?$AA?5?$AAE?$AA?0?$AAe?$AA?5?$AA?9?$AA?5?$AAE?$AAn?$AAa?$AAb?$AAl?$AAe?$AA?5?$AAS?$AAe?$AAs?$AAs?$AAi?$AAo?$AAn?$AA?5?$AAR?$AAe?$AAq?$AAu?$AAe?$AAs?$AAt?$AA?$AN?$AA?6?$AA?$AA@| [ DATA ] ; `string'
	EXPORT	|??_C@_1CA@JOBPBFAK@?$AA?5?$AA?$FL?$AAp?$AAa?$AAr?$AAa?$AAm?$AAt?$AAe?$AAr?$AA?5?$AA1?$AA?$FN?$AA?$AN?$AA?6?$AA?$AA@| [ DATA ] ; `string'
	EXPORT	|??_C@_1EI@BHPBPOFG@?$AAU?$AAs?$AAa?$AAg?$AAe?$AA?3?$AA?5?$AAm?$AAu?$AAs?$AAb?$AA_?$AAs?$AAe?$AAs?$AAs?$AAr?$AAe?$AAq?$AA?5?$AA?9?$AA?$FL?$AAp?$AAa?$AAr?$AAm?$AAa?$AAt?$AAe?$AAr?$AA?5?$AA1@| [ DATA ] ; `string'
	EXPORT	|?PrintHelp@@YAXXZ|			; PrintHelp
	IMPORT	|NKDbgPrintfW|

  00000			 AREA	 |.pdata|, PDATA
|$T32160| DCD	|$LN5@PrintHelp|
	DCD	0x40002401
; File c:\wince600\platform\common\src\soc\common_ti_v1\omap3530\musb\appl\musb_sessreq.cpp

  00000			 AREA	 |.rdata|, DATA, READONLY
|??_C@_1BI@IKINCDMB@?$AA?5?$AA?$DP?$AA?5?$AA?9?$AA?5?$AAH?$AAe?$AAl?$AAp?$AA?$AN?$AA?6?$AA?$AA@| DCB " "
	DCB	0x0, "?", 0x0, " ", 0x0, "-", 0x0, " ", 0x0, "H", 0x0, "e"
	DCB	0x0, "l", 0x0, "p", 0x0, 0xd, 0x0, 0xa, 0x0, 0x0, 0x0 ; `string'

  00000			 AREA	 |.rdata|, DATA, READONLY
|??_C@_1EE@CJILKDBD@?$AA?5?$AAR?$AA?0?$AAr?$AA?5?$AA?9?$AA?5?$AAR?$AAe?$AAs?$AAu?$AAm?$AAe?$AA?5?$AA?$CI?$AAh?$AAo?$AAs?$AAt?$AA?5?$AAm?$AAo?$AAd?$AAe?$AA?5?$AAo?$AAn?$AAl?$AAy?$AA?$CJ?$AA?5?$AA?$AN@| DCB " "
	DCB	0x0, "R", 0x0, ",", 0x0, "r", 0x0, " ", 0x0, "-", 0x0, " "
	DCB	0x0, "R", 0x0, "e", 0x0, "s", 0x0, "u", 0x0, "m", 0x0, "e"
	DCB	0x0, " ", 0x0, "(", 0x0, "h", 0x0, "o", 0x0, "s", 0x0, "t"
	DCB	0x0, " ", 0x0, "m", 0x0, "o", 0x0, "d", 0x0, "e", 0x0, " "
	DCB	0x0, "o", 0x0, "n", 0x0, "l", 0x0, "y", 0x0, ")", 0x0, " "
	DCB	0x0, 0xd, 0x0, 0xa, 0x0, 0x0, 0x0	; `string'

  00000			 AREA	 |.rdata|, DATA, READONLY
|??_C@_1FI@FGHDEEHC@?$AA?5?$AAS?$AA?0?$AAs?$AA?5?$AA?9?$AA?5?$AAS?$AAe?$AAt?$AA?5?$AAS?$AAu?$AAs?$AAp?$AAe?$AAn?$AAd?$AA?5?$AAM?$AAo?$AAd?$AAe?$AA?5?$AA?$CI?$AAh?$AAo?$AAs?$AAt?$AA?5?$AAm?$AAo@| DCB " "
	DCB	0x0, "S", 0x0, ",", 0x0, "s", 0x0, " ", 0x0, "-", 0x0, " "
	DCB	0x0, "S", 0x0, "e", 0x0, "t", 0x0, " ", 0x0, "S", 0x0, "u"
	DCB	0x0, "s", 0x0, "p", 0x0, "e", 0x0, "n", 0x0, "d", 0x0, " "
	DCB	0x0, "M", 0x0, "o", 0x0, "d", 0x0, "e", 0x0, " ", 0x0, "("
	DCB	0x0, "h", 0x0, "o", 0x0, "s", 0x0, "t", 0x0, " ", 0x0, "m"
	DCB	0x0, "o", 0x0, "d", 0x0, "e", 0x0, " ", 0x0, "o", 0x0, "n"
	DCB	0x0, "l", 0x0, "y", 0x0, ")", 0x0, " ", 0x0, 0xd, 0x0, 0xa
	DCB	0x0, 0x0, 0x0				; `string'

  00000			 AREA	 |.rdata|, DATA, READONLY
|??_C@_1HC@CCGCAOFH@?$AA?5?$AAH?$AA?0?$AAh?$AA?5?$AA?9?$AA?5?$AAH?$AAo?$AAs?$AAt?$AA?5?$AAR?$AAe?$AAq?$AAu?$AAe?$AAs?$AAt?$AA?5?$AAM?$AAo?$AAd?$AAe?$AA?5?$AAf?$AAo?$AAr?$AA?5?$AAH?$AAN?$AAP@| DCB " "
	DCB	0x0, "H", 0x0, ",", 0x0, "h", 0x0, " ", 0x0, "-", 0x0, " "
	DCB	0x0, "H", 0x0, "o", 0x0, "s", 0x0, "t", 0x0, " ", 0x0, "R"
	DCB	0x0, "e", 0x0, "q", 0x0, "u", 0x0, "e", 0x0, "s", 0x0, "t"
	DCB	0x0, " ", 0x0, "M", 0x0, "o", 0x0, "d", 0x0, "e", 0x0, " "
	DCB	0x0, "f", 0x0, "o", 0x0, "r", 0x0, " ", 0x0, "H", 0x0, "N"
	DCB	0x0, "P", 0x0, " ", 0x0, "(", 0x0, "p", 0x0, "e", 0x0, "r"
	DCB	0x0, "i", 0x0, "p", 0x0, "h", 0x0, "e", 0x0, "r", 0x0, "a"
	DCB	0x0, "l", 0x0, " ", 0x0, "m", 0x0, "o", 0x0, "d", 0x0, "e"
	DCB	0x0, " ", 0x0, "o", 0x0, "n", 0x0, "l", 0x0, "y", 0x0, 0xd
	DCB	0x0, 0xa, 0x0, 0x0, 0x0			; `string'

  00000			 AREA	 |.rdata|, DATA, READONLY
|??_C@_1DI@OAPABILM@?$AA?5?$AAL?$AA?0?$AAl?$AA?5?$AA?9?$AA?5?$AAS?$AAe?$AAt?$AA?5?$AAL?$AAo?$AAw?$AA?5?$AAP?$AAo?$AAw?$AAe?$AAr?$AA?5?$AAM?$AAo?$AAd?$AAe?$AA?$AN?$AA?6?$AA?$AA@| DCB " "
	DCB	0x0, "L", 0x0, ",", 0x0, "l", 0x0, " ", 0x0, "-", 0x0, " "
	DCB	0x0, "S", 0x0, "e", 0x0, "t", 0x0, " ", 0x0, "L", 0x0, "o"
	DCB	0x0, "w", 0x0, " ", 0x0, "P", 0x0, "o", 0x0, "w", 0x0, "e"
	DCB	0x0, "r", 0x0, " ", 0x0, "M", 0x0, "o", 0x0, "d", 0x0, "e"
	DCB	0x0, 0xd, 0x0, 0xa, 0x0, 0x0, 0x0	; `string'

  00000			 AREA	 |.rdata|, DATA, READONLY
|??_C@_1DC@CJFBHHH@?$AA?5?$AAU?$AA?0?$AAu?$AA?5?$AA?9?$AA?5?$AAQ?$AAu?$AAe?$AAr?$AAy?$AA?5?$AAU?$AAL?$AAP?$AAI?$AA?5?$AAI?$AAn?$AAf?$AAo?$AA?$AN?$AA?6?$AA?$AA@| DCB " "
	DCB	0x0, "U", 0x0, ",", 0x0, "u", 0x0, " ", 0x0, "-", 0x0, " "
	DCB	0x0, "Q", 0x0, "u", 0x0, "e", 0x0, "r", 0x0, "y", 0x0, " "
	DCB	0x0, "U", 0x0, "L", 0x0, "P", 0x0, "I", 0x0, " ", 0x0, "I"
	DCB	0x0, "n", 0x0, "f", 0x0, "o", 0x0, 0xd, 0x0, 0xa, 0x0, 0x0
	DCB	0x0					; `string'

  00000			 AREA	 |.rdata|, DATA, READONLY
|??_C@_1DO@PKJCKKGO@?$AA?5?$AAQ?$AA?0?$AAq?$AA?5?$AA?9?$AA?5?$AAQ?$AAu?$AAe?$AAr?$AAy?$AA?5?$AAC?$AAo?$AAn?$AAt?$AAr?$AAo?$AAl?$AAl?$AAe?$AAr?$AA?5?$AAI?$AAn?$AAf?$AAo?$AA?$AN?$AA?6?$AA?$AA@| DCB " "
	DCB	0x0, "Q", 0x0, ",", 0x0, "q", 0x0, " ", 0x0, "-", 0x0, " "
	DCB	0x0, "Q", 0x0, "u", 0x0, "e", 0x0, "r", 0x0, "y", 0x0, " "
	DCB	0x0, "C", 0x0, "o", 0x0, "n", 0x0, "t", 0x0, "r", 0x0, "o"
	DCB	0x0, "l", 0x0, "l", 0x0, "e", 0x0, "r", 0x0, " ", 0x0, "I"
	DCB	0x0, "n", 0x0, "f", 0x0, "o", 0x0, 0xd, 0x0, 0xa, 0x0, 0x0
	DCB	0x0					; `string'

  00000			 AREA	 |.rdata|, DATA, READONLY
|??_C@_1EC@JABHNGOA@?$AA?5?$AAD?$AA?0?$AAd?$AA?5?$AA?9?$AA?5?$AAD?$AAi?$AAs?$AAa?$AAb?$AAl?$AAe?$AA?5?$AAS?$AAe?$AAs?$AAs?$AAi?$AAo?$AAn?$AA?5?$AAR?$AAe?$AAq?$AAu?$AAe?$AAs?$AAt?$AA?$AN?$AA?6@| DCB " "
	DCB	0x0, "D", 0x0, ",", 0x0, "d", 0x0, " ", 0x0, "-", 0x0, " "
	DCB	0x0, "D", 0x0, "i", 0x0, "s", 0x0, "a", 0x0, "b", 0x0, "l"
	DCB	0x0, "e", 0x0, " ", 0x0, "S", 0x0, "e", 0x0, "s", 0x0, "s"
	DCB	0x0, "i", 0x0, "o", 0x0, "n", 0x0, " ", 0x0, "R", 0x0, "e"
	DCB	0x0, "q", 0x0, "u", 0x0, "e", 0x0, "s", 0x0, "t", 0x0, 0xd
	DCB	0x0, 0xa, 0x0, 0x0, 0x0			; `string'

  00000			 AREA	 |.rdata|, DATA, READONLY
|??_C@_1EA@IKLGGLFP@?$AA?5?$AAE?$AA?0?$AAe?$AA?5?$AA?9?$AA?5?$AAE?$AAn?$AAa?$AAb?$AAl?$AAe?$AA?5?$AAS?$AAe?$AAs?$AAs?$AAi?$AAo?$AAn?$AA?5?$AAR?$AAe?$AAq?$AAu?$AAe?$AAs?$AAt?$AA?$AN?$AA?6?$AA?$AA@| DCB " "
	DCB	0x0, "E", 0x0, ",", 0x0, "e", 0x0, " ", 0x0, "-", 0x0, " "
	DCB	0x0, "E", 0x0, "n", 0x0, "a", 0x0, "b", 0x0, "l", 0x0, "e"
	DCB	0x0, " ", 0x0, "S", 0x0, "e", 0x0, "s", 0x0, "s", 0x0, "i"
	DCB	0x0, "o", 0x0, "n", 0x0, " ", 0x0, "R", 0x0, "e", 0x0, "q"
	DCB	0x0, "u", 0x0, "e", 0x0, "s", 0x0, "t", 0x0, 0xd, 0x0, 0xa
	DCB	0x0, 0x0, 0x0				; `string'

  00000			 AREA	 |.rdata|, DATA, READONLY
|??_C@_1CA@JOBPBFAK@?$AA?5?$AA?$FL?$AAp?$AAa?$AAr?$AAa?$AAm?$AAt?$AAe?$AAr?$AA?5?$AA1?$AA?$FN?$AA?$AN?$AA?6?$AA?$AA@| DCB " "
	DCB	0x0, "[", 0x0, "p", 0x0, "a", 0x0, "r", 0x0, "a", 0x0, "m"
	DCB	0x0, "t", 0x0, "e", 0x0, "r", 0x0, " ", 0x0, "1", 0x0, "]"
	DCB	0x0, 0xd, 0x0, 0xa, 0x0, 0x0, 0x0	; `string'

  00000			 AREA	 |.rdata|, DATA, READONLY
|??_C@_1EI@BHPBPOFG@?$AAU?$AAs?$AAa?$AAg?$AAe?$AA?3?$AA?5?$AAm?$AAu?$AAs?$AAb?$AA_?$AAs?$AAe?$AAs?$AAs?$AAr?$AAe?$AAq?$AA?5?$AA?9?$AA?$FL?$AAp?$AAa?$AAr?$AAm?$AAa?$AAt?$AAe?$AAr?$AA?5?$AA1@| DCB "U"
	DCB	0x0, "s", 0x0, "a", 0x0, "g", 0x0, "e", 0x0, ":", 0x0, " "
	DCB	0x0, "m", 0x0, "u", 0x0, "s", 0x0, "b", 0x0, "_", 0x0, "s"
	DCB	0x0, "e", 0x0, "s", 0x0, "s", 0x0, "r", 0x0, "e", 0x0, "q"
	DCB	0x0, " ", 0x0, "-", 0x0, "[", 0x0, "p", 0x0, "a", 0x0, "r"
	DCB	0x0, "m", 0x0, "a", 0x0, "t", 0x0, "e", 0x0, "r", 0x0, " "
	DCB	0x0, "1", 0x0, "]", 0x0, 0xd, 0x0, 0xa, 0x0, 0x0, 0x0 ; `string'
; Function compile flags: /Odtp

  00000			 AREA	 |.text|, CODE, ARM

  00000		 |?PrintHelp@@YAXXZ| PROC		; PrintHelp

; 26   : {    

  00000		 |$LN5@PrintHelp|
  00000	e52de004	 str         lr, [sp, #-4]!
  00004		 |$M32157|

; 27   :     NKDbgPrintfW(TEXT("Usage: musb_sessreq -[parmater 1]\r\n"));

  00004	e59f0080	 ldr         r0, [pc, #0x80]
  00008	eb000000	 bl          NKDbgPrintfW

; 28   :     NKDbgPrintfW(TEXT(" [paramter 1]\r\n"));

  0000c	e59f0074	 ldr         r0, [pc, #0x74]
  00010	eb000000	 bl          NKDbgPrintfW

; 29   :     NKDbgPrintfW(TEXT(" E,e - Enable Session Request\r\n"));

  00014	e59f0068	 ldr         r0, [pc, #0x68]
  00018	eb000000	 bl          NKDbgPrintfW

; 30   :     NKDbgPrintfW(TEXT(" D,d - Disable Session Request\r\n"));

  0001c	e59f005c	 ldr         r0, [pc, #0x5C]
  00020	eb000000	 bl          NKDbgPrintfW

; 31   :     NKDbgPrintfW(TEXT(" Q,q - Query Controller Info\r\n"));

  00024	e59f0050	 ldr         r0, [pc, #0x50]
  00028	eb000000	 bl          NKDbgPrintfW

; 32   :     NKDbgPrintfW(TEXT(" U,u - Query ULPI Info\r\n"));

  0002c	e59f0044	 ldr         r0, [pc, #0x44]
  00030	eb000000	 bl          NKDbgPrintfW

; 33   :     NKDbgPrintfW(TEXT(" L,l - Set Low Power Mode\r\n"));

  00034	e59f0038	 ldr         r0, [pc, #0x38]
  00038	eb000000	 bl          NKDbgPrintfW

; 34   :     NKDbgPrintfW(TEXT(" H,h - Host Request Mode for HNP (peripheral mode only\r\n"));

  0003c	e59f002c	 ldr         r0, [pc, #0x2C]
  00040	eb000000	 bl          NKDbgPrintfW

; 35   :     NKDbgPrintfW(TEXT(" S,s - Set Suspend Mode (host mode only) \r\n"));

  00044	e59f0020	 ldr         r0, [pc, #0x20]
  00048	eb000000	 bl          NKDbgPrintfW

; 36   :     NKDbgPrintfW(TEXT(" R,r - Resume (host mode only) \r\n"));

  0004c	e59f0014	 ldr         r0, [pc, #0x14]
  00050	eb000000	 bl          NKDbgPrintfW

; 37   :     NKDbgPrintfW(TEXT(" ? - Help\r\n"));

  00054	e59f0008	 ldr         r0, [pc, #8]
  00058	eb000000	 bl          NKDbgPrintfW

; 38   : }

  0005c	e49de004	 ldr         lr, [sp], #4
  00060	e12fff1e	 bx          lr
  00064		 |$LN6@PrintHelp|
  00064		 |$LN7@PrintHelp|
  00064	00000000	 DCD         |??_C@_1BI@IKINCDMB@?$AA?5?$AA?$DP?$AA?5?$AA?9?$AA?5?$AAH?$AAe?$AAl?$AAp?$AA?$AN?$AA?6?$AA?$AA@|
  00068		 |$LN8@PrintHelp|
  00068	00000000	 DCD         |??_C@_1EE@CJILKDBD@?$AA?5?$AAR?$AA?0?$AAr?$AA?5?$AA?9?$AA?5?$AAR?$AAe?$AAs?$AAu?$AAm?$AAe?$AA?5?$AA?$CI?$AAh?$AAo?$AAs?$AAt?$AA?5?$AAm?$AAo?$AAd?$AAe?$AA?5?$AAo?$AAn?$AAl?$AAy?$AA?$CJ?$AA?5?$AA?$AN@|
  0006c		 |$LN9@PrintHelp|
  0006c	00000000	 DCD         |??_C@_1FI@FGHDEEHC@?$AA?5?$AAS?$AA?0?$AAs?$AA?5?$AA?9?$AA?5?$AAS?$AAe?$AAt?$AA?5?$AAS?$AAu?$AAs?$AAp?$AAe?$AAn?$AAd?$AA?5?$AAM?$AAo?$AAd?$AAe?$AA?5?$AA?$CI?$AAh?$AAo?$AAs?$AAt?$AA?5?$AAm?$AAo@|
  00070		 |$LN10@PrintHelp|
  00070	00000000	 DCD         |??_C@_1HC@CCGCAOFH@?$AA?5?$AAH?$AA?0?$AAh?$AA?5?$AA?9?$AA?5?$AAH?$AAo?$AAs?$AAt?$AA?5?$AAR?$AAe?$AAq?$AAu?$AAe?$AAs?$AAt?$AA?5?$AAM?$AAo?$AAd?$AAe?$AA?5?$AAf?$AAo?$AAr?$AA?5?$AAH?$AAN?$AAP@|
  00074		 |$LN11@PrintHelp|
  00074	00000000	 DCD         |??_C@_1DI@OAPABILM@?$AA?5?$AAL?$AA?0?$AAl?$AA?5?$AA?9?$AA?5?$AAS?$AAe?$AAt?$AA?5?$AAL?$AAo?$AAw?$AA?5?$AAP?$AAo?$AAw?$AAe?$AAr?$AA?5?$AAM?$AAo?$AAd?$AAe?$AA?$AN?$AA?6?$AA?$AA@|
  00078		 |$LN12@PrintHelp|
  00078	00000000	 DCD         |??_C@_1DC@CJFBHHH@?$AA?5?$AAU?$AA?0?$AAu?$AA?5?$AA?9?$AA?5?$AAQ?$AAu?$AAe?$AAr?$AAy?$AA?5?$AAU?$AAL?$AAP?$AAI?$AA?5?$AAI?$AAn?$AAf?$AAo?$AA?$AN?$AA?6?$AA?$AA@|
  0007c		 |$LN13@PrintHelp|
  0007c	00000000	 DCD         |??_C@_1DO@PKJCKKGO@?$AA?5?$AAQ?$AA?0?$AAq?$AA?5?$AA?9?$AA?5?$AAQ?$AAu?$AAe?$AAr?$AAy?$AA?5?$AAC?$AAo?$AAn?$AAt?$AAr?$AAo?$AAl?$AAl?$AAe?$AAr?$AA?5?$AAI?$AAn?$AAf?$AAo?$AA?$AN?$AA?6?$AA?$AA@|
  00080		 |$LN14@PrintHelp|
  00080	00000000	 DCD         |??_C@_1EC@JABHNGOA@?$AA?5?$AAD?$AA?0?$AAd?$AA?5?$AA?9?$AA?5?$AAD?$AAi?$AAs?$AAa?$AAb?$AAl?$AAe?$AA?5?$AAS?$AAe?$AAs?$AAs?$AAi?$AAo?$AAn?$AA?5?$AAR?$AAe?$AAq?$AAu?$AAe?$AAs?$AAt?$AA?$AN?$AA?6@|
  00084		 |$LN15@PrintHelp|
  00084	00000000	 DCD         |??_C@_1EA@IKLGGLFP@?$AA?5?$AAE?$AA?0?$AAe?$AA?5?$AA?9?$AA?5?$AAE?$AAn?$AAa?$AAb?$AAl?$AAe?$AA?5?$AAS?$AAe?$AAs?$AAs?$AAi?$AAo?$AAn?$AA?5?$AAR?$AAe?$AAq?$AAu?$AAe?$AAs?$AAt?$AA?$AN?$AA?6?$AA?$AA@|
  00088		 |$LN16@PrintHelp|
  00088	00000000	 DCD         |??_C@_1CA@JOBPBFAK@?$AA?5?$AA?$FL?$AAp?$AAa?$AAr?$AAa?$AAm?$AAt?$AAe?$AAr?$AA?5?$AA1?$AA?$FN?$AA?$AN?$AA?6?$AA?$AA@|
  0008c		 |$LN17@PrintHelp|
  0008c	00000000	 DCD         |??_C@_1EI@BHPBPOFG@?$AAU?$AAs?$AAa?$AAg?$AAe?$AA?3?$AA?5?$AAm?$AAu?$AAs?$AAb?$AA_?$AAs?$AAe?$AAs?$AAs?$AAr?$AAe?$AAq?$AA?5?$AA?9?$AA?$FL?$AAp?$AAa?$AAr?$AAm?$AAa?$AAt?$AAe?$AAr?$AA?5?$AA1@|
  00090		 |$M32158|

			 ENDP  ; |?PrintHelp@@YAXXZ|, PrintHelp

	EXPORT	|??_C@_1CA@IIOPPBL@?$AAW?$AAr?$AAi?$AAt?$AAe?$AA?5?$AAS?$AAu?$AAc?$AAc?$AAe?$AAs?$AAs?$AA?$AN?$AA?6?$AA?$AA@| [ DATA ] ; `string'
	EXPORT	|??_C@_1BM@BGDBPOLE@?$AAW?$AAr?$AAi?$AAt?$AAe?$AA?5?$AAE?$AAr?$AAr?$AAo?$AAr?$AA?$AN?$AA?6?$AA?$AA@| [ DATA ] ; `string'
	EXPORT	|??_C@_1FK@KFGLMDPF@?$AAF?$AAa?$AAi?$AAl?$AAe?$AAd?$AA?5?$AAi?$AAn?$AA?5?$AAo?$AAp?$AAe?$AAn?$AA?5?$AAd?$AAe?$AAv?$AAi?$AAc?$AAe?$AA?5?$AAf?$AAi?$AAl?$AAe?$AA?5?$AAO?$AAT?$AAG?$AA?3?$AA?5@| [ DATA ] ; `string'
	EXPORT	|??_C@_1M@FMKDABK@?$AAO?$AAT?$AAG?$AA1?$AA?3?$AA?$AA@| [ DATA ] ; `string'
	EXPORT	|??_C@_1BM@BMIKOJJH@?$AAH?$AAo?$AAs?$AAt?$AA?5?$AAR?$AAe?$AAs?$AAu?$AAm?$AAe?$AA?$AN?$AA?6?$AA?$AA@| [ DATA ] ; `string'
	EXPORT	|??_C@_1BO@GLEBLFPN@?$AAH?$AAo?$AAs?$AAt?$AA?5?$AAS?$AAu?$AAs?$AAp?$AAe?$AAn?$AAd?$AA?$AN?$AA?6?$AA?$AA@| [ DATA ] ; `string'
	EXPORT	|??_C@_1CI@GPMNNNKP@?$AAH?$AAo?$AAs?$AAt?$AA?5?$AAM?$AAo?$AAd?$AAe?$AA?5?$AAR?$AAe?$AAq?$AAu?$AAe?$AAs?$AAt?$AA?$AN?$AA?6?$AA?$AA@| [ DATA ] ; `string'
	EXPORT	|??_C@_1CC@JOBAOHDK@?$AAL?$AAo?$AAw?$AA?5?$AAP?$AAO?$AAw?$AAe?$AAr?$AA?5?$AAM?$AAo?$AAd?$AAe?$AA?$AN?$AA?6?$AA?$AA@| [ DATA ] ; `string'
	EXPORT	|??_C@_1CC@BBOLLLCL@?$AAQ?$AAu?$AAe?$AAr?$AAy?$AA?5?$AAU?$AAL?$AAP?$AAI?$AA?5?$AAR?$AAe?$AAq?$AA?$AN?$AA?6?$AA?$AA@| [ DATA ] ; `string'
	EXPORT	|??_C@_1CI@EOAHAJEJ@?$AAQ?$AAu?$AAe?$AAr?$AAy?$AA?5?$AAS?$AAe?$AAs?$AAs?$AAi?$AAo?$AAn?$AA?5?$AAR?$AAe?$AAq?$AA?$AN?$AA?6?$AA?$AA@| [ DATA ] ; `string'
	EXPORT	|??_C@_1CM@EPDCHFBD@?$AAD?$AAi?$AAs?$AAa?$AAb?$AAl?$AAe?$AA?5?$AAS?$AAe?$AAs?$AAs?$AAi?$AAo?$AAn?$AA?5?$AAR?$AAe?$AAq?$AA?$AN?$AA?6?$AA?$AA@| [ DATA ] ; `string'
	EXPORT	|??_C@_1CK@DNKKEJPL@?$AAE?$AAn?$AAa?$AAb?$AAl?$AAe?$AA?5?$AAS?$AAe?$AAs?$AAs?$AAi?$AAo?$AAn?$AA?5?$AAR?$AAe?$AAq?$AA?$AN?$AA?6?$AA?$AA@| [ DATA ] ; `string'
	EXPORT	|WinMain|
	IMPORT	|CloseHandle|
	IMPORT	|DeviceIoControl|
	IMPORT	|GetLastError|
	IMPORT	|CreateFileW|
	IMPORT	|wcslen|

  00008			 AREA	 |.pdata|, PDATA
|$T32237| DCD	|$LN74@WinMain|
	DCD	0x4000ce04

  00000			 AREA	 |.rdata|, DATA, READONLY
|??_C@_1CA@IIOPPBL@?$AAW?$AAr?$AAi?$AAt?$AAe?$AA?5?$AAS?$AAu?$AAc?$AAc?$AAe?$AAs?$AAs?$AA?$AN?$AA?6?$AA?$AA@| DCB "W"
	DCB	0x0, "r", 0x0, "i", 0x0, "t", 0x0, "e", 0x0, " ", 0x0, "S"
	DCB	0x0, "u", 0x0, "c", 0x0, "c", 0x0, "e", 0x0, "s", 0x0, "s"
	DCB	0x0, 0xd, 0x0, 0xa, 0x0, 0x0, 0x0	; `string'

  00000			 AREA	 |.rdata|, DATA, READONLY
|??_C@_1BM@BGDBPOLE@?$AAW?$AAr?$AAi?$AAt?$AAe?$AA?5?$AAE?$AAr?$AAr?$AAo?$AAr?$AA?$AN?$AA?6?$AA?$AA@| DCB "W"
	DCB	0x0, "r", 0x0, "i", 0x0, "t", 0x0, "e", 0x0, " ", 0x0, "E"
	DCB	0x0, "r", 0x0, "r", 0x0, "o", 0x0, "r", 0x0, 0xd, 0x0, 0xa
	DCB	0x0, 0x0, 0x0				; `string'

  00000			 AREA	 |.rdata|, DATA, READONLY
|??_C@_1FK@KFGLMDPF@?$AAF?$AAa?$AAi?$AAl?$AAe?$AAd?$AA?5?$AAi?$AAn?$AA?5?$AAo?$AAp?$AAe?$AAn?$AA?5?$AAd?$AAe?$AAv?$AAi?$AAc?$AAe?$AA?5?$AAf?$AAi?$AAl?$AAe?$AA?5?$AAO?$AAT?$AAG?$AA?3?$AA?5@| DCB "F"
	DCB	0x0, "a", 0x0, "i", 0x0, "l", 0x0, "e", 0x0, "d", 0x0, " "
	DCB	0x0, "i", 0x0, "n", 0x0, " ", 0x0, "o", 0x0, "p", 0x0, "e"
	DCB	0x0, "n", 0x0, " ", 0x0, "d", 0x0, "e", 0x0, "v", 0x0, "i"
	DCB	0x0, "c", 0x0, "e", 0x0, " ", 0x0, "f", 0x0, "i", 0x0, "l"
	DCB	0x0, "e", 0x0, " ", 0x0, "O", 0x0, "T", 0x0, "G", 0x0, ":"
	DCB	0x0, " ", 0x0, "(", 0x0, "E", 0x0, "r", 0x0, "r", 0x0, "o"
	DCB	0x0, "r", 0x0, " ", 0x0, "=", 0x0, " ", 0x0, "%", 0x0, "d"
	DCB	0x0, ")", 0x0, 0x0, 0x0			; `string'

  00000			 AREA	 |.rdata|, DATA, READONLY
|??_C@_1M@FMKDABK@?$AAO?$AAT?$AAG?$AA1?$AA?3?$AA?$AA@| DCB "O", 0x0, "T", 0x0
	DCB	"G", 0x0, "1", 0x0, ":", 0x0, 0x0, 0x0	; `string'

  00000			 AREA	 |.rdata|, DATA, READONLY
|??_C@_1BM@BMIKOJJH@?$AAH?$AAo?$AAs?$AAt?$AA?5?$AAR?$AAe?$AAs?$AAu?$AAm?$AAe?$AA?$AN?$AA?6?$AA?$AA@| DCB "H"
	DCB	0x0, "o", 0x0, "s", 0x0, "t", 0x0, " ", 0x0, "R", 0x0, "e"
	DCB	0x0, "s", 0x0, "u", 0x0, "m", 0x0, "e", 0x0, 0xd, 0x0, 0xa
	DCB	0x0, 0x0, 0x0				; `string'

  00000			 AREA	 |.rdata|, DATA, READONLY
|??_C@_1BO@GLEBLFPN@?$AAH?$AAo?$AAs?$AAt?$AA?5?$AAS?$AAu?$AAs?$AAp?$AAe?$AAn?$AAd?$AA?$AN?$AA?6?$AA?$AA@| DCB "H"
	DCB	0x0, "o", 0x0, "s", 0x0, "t", 0x0, " ", 0x0, "S", 0x0, "u"
	DCB	0x0, "s", 0x0, "p", 0x0, "e", 0x0, "n", 0x0, "d", 0x0, 0xd
	DCB	0x0, 0xa, 0x0, 0x0, 0x0			; `string'

  00000			 AREA	 |.rdata|, DATA, READONLY
|??_C@_1CI@GPMNNNKP@?$AAH?$AAo?$AAs?$AAt?$AA?5?$AAM?$AAo?$AAd?$AAe?$AA?5?$AAR?$AAe?$AAq?$AAu?$AAe?$AAs?$AAt?$AA?$AN?$AA?6?$AA?$AA@| DCB "H"
	DCB	0x0, "o", 0x0, "s", 0x0, "t", 0x0, " ", 0x0, "M", 0x0, "o"
	DCB	0x0, "d", 0x0, "e", 0x0, " ", 0x0, "R", 0x0, "e", 0x0, "q"
	DCB	0x0, "u", 0x0, "e", 0x0, "s", 0x0, "t", 0x0, 0xd, 0x0, 0xa
	DCB	0x0, 0x0, 0x0				; `string'

  00000			 AREA	 |.rdata|, DATA, READONLY
|??_C@_1CC@JOBAOHDK@?$AAL?$AAo?$AAw?$AA?5?$AAP?$AAO?$AAw?$AAe?$AAr?$AA?5?$AAM?$AAo?$AAd?$AAe?$AA?$AN?$AA?6?$AA?$AA@| DCB "L"
	DCB	0x0, "o", 0x0, "w", 0x0, " ", 0x0, "P", 0x0, "O", 0x0, "w"
	DCB	0x0, "e", 0x0, "r", 0x0, " ", 0x0, "M", 0x0, "o", 0x0, "d"
	DCB	0x0, "e", 0x0, 0xd, 0x0, 0xa, 0x0, 0x0, 0x0 ; `string'

  00000			 AREA	 |.rdata|, DATA, READONLY
|??_C@_1CC@BBOLLLCL@?$AAQ?$AAu?$AAe?$AAr?$AAy?$AA?5?$AAU?$AAL?$AAP?$AAI?$AA?5?$AAR?$AAe?$AAq?$AA?$AN?$AA?6?$AA?$AA@| DCB "Q"
	DCB	0x0, "u", 0x0, "e", 0x0, "r", 0x0, "y", 0x0, " ", 0x0, "U"
	DCB	0x0, "L", 0x0, "P", 0x0, "I", 0x0, " ", 0x0, "R", 0x0, "e"
	DCB	0x0, "q", 0x0, 0xd, 0x0, 0xa, 0x0, 0x0, 0x0 ; `string'

  00000			 AREA	 |.rdata|, DATA, READONLY
|??_C@_1CI@EOAHAJEJ@?$AAQ?$AAu?$AAe?$AAr?$AAy?$AA?5?$AAS?$AAe?$AAs?$AAs?$AAi?$AAo?$AAn?$AA?5?$AAR?$AAe?$AAq?$AA?$AN?$AA?6?$AA?$AA@| DCB "Q"
	DCB	0x0, "u", 0x0, "e", 0x0, "r", 0x0, "y", 0x0, " ", 0x0, "S"
	DCB	0x0, "e", 0x0, "s", 0x0, "s", 0x0, "i", 0x0, "o", 0x0, "n"
	DCB	0x0, " ", 0x0, "R", 0x0, "e", 0x0, "q", 0x0, 0xd, 0x0, 0xa
	DCB	0x0, 0x0, 0x0				; `string'

  00000			 AREA	 |.rdata|, DATA, READONLY
|??_C@_1CM@EPDCHFBD@?$AAD?$AAi?$AAs?$AAa?$AAb?$AAl?$AAe?$AA?5?$AAS?$AAe?$AAs?$AAs?$AAi?$AAo?$AAn?$AA?5?$AAR?$AAe?$AAq?$AA?$AN?$AA?6?$AA?$AA@| DCB "D"
	DCB	0x0, "i", 0x0, "s", 0x0, "a", 0x0, "b", 0x0, "l", 0x0, "e"
	DCB	0x0, " ", 0x0, "S", 0x0, "e", 0x0, "s", 0x0, "s", 0x0, "i"
	DCB	0x0, "o", 0x0, "n", 0x0, " ", 0x0, "R", 0x0, "e", 0x0, "q"
	DCB	0x0, 0xd, 0x0, 0xa, 0x0, 0x0, 0x0	; `string'

  00000			 AREA	 |.rdata|, DATA, READONLY
|??_C@_1CK@DNKKEJPL@?$AAE?$AAn?$AAa?$AAb?$AAl?$AAe?$AA?5?$AAS?$AAe?$AAs?$AAs?$AAi?$AAo?$AAn?$AA?5?$AAR?$AAe?$AAq?$AA?$AN?$AA?6?$AA?$AA@| DCB "E"
	DCB	0x0, "n", 0x0, "a", 0x0, "b", 0x0, "l", 0x0, "e", 0x0, " "
	DCB	0x0, "S", 0x0, "e", 0x0, "s", 0x0, "s", 0x0, "i", 0x0, "o"
	DCB	0x0, "n", 0x0, " ", 0x0, "R", 0x0, "e", 0x0, "q", 0x0, 0xd
	DCB	0x0, 0xa, 0x0, 0x0, 0x0			; `string'
; Function compile flags: /Odtp

  00090			 AREA	 |.text|, CODE, ARM

  00090		 |WinMain| PROC

; 44   : {

  00090		 |$LN74@WinMain|
  00090	e1a0c00d	 mov         r12, sp
  00094	e92d000f	 stmdb       sp!, {r0 - r3}
  00098	e92d5000	 stmdb       sp!, {r12, lr}
  0009c	e24dd050	 sub         sp, sp, #0x50
  000a0		 |$M32234|

; 45   :     DWORD dwErr = 0;

  000a0	e3a03000	 mov         r3, #0
  000a4	e58d3010	 str         r3, [sp, #0x10]

; 46   :     HANDLE hHandle;
; 47   :     DWORD dwCode = 0xFF;

  000a8	e3a030ff	 mov         r3, #0xFF
  000ac	e58d3014	 str         r3, [sp, #0x14]

; 48   :     
; 49   : 	UNREFERENCED_PARAMETER(hInstance);
; 50   : 	UNREFERENCED_PARAMETER(hPrevInstance);
; 51   : 	UNREFERENCED_PARAMETER(nCmdShow);
; 52   : 
; 53   :     if( lpCmdLine == NULL || wcslen(lpCmdLine)==0)

  000b0	e59d3060	 ldr         r3, [sp, #0x60]
  000b4	e3530000	 cmp         r3, #0
  000b8	0a000005	 beq         |$LN16@WinMain|
  000bc	e59d0060	 ldr         r0, [sp, #0x60]
  000c0	eb000000	 bl          wcslen
  000c4	e58d003c	 str         r0, [sp, #0x3C]
  000c8	e59d303c	 ldr         r3, [sp, #0x3C]
  000cc	e3530000	 cmp         r3, #0
  000d0	1a000005	 bne         |$LN17@WinMain|
  000d4		 |$LN16@WinMain|

; 54   :     {
; 55   :         NKDbgPrintfW(TEXT("Enable Session Req\r\n"));

  000d4	e59f02e8	 ldr         r0, [pc, #0x2E8]
  000d8	eb000000	 bl          NKDbgPrintfW

; 56   :         dwCode = IOCTL_USBOTG_REQUEST_SESSION_ENABLE;

  000dc	e3a03822	 mov         r3, #0x22, 16
  000e0	e3833a02	 orr         r3, r3, #2, 20
  000e4	e58d3014	 str         r3, [sp, #0x14]

; 57   :     }
; 58   :     else

  000e8	ea00006a	 b           |$LN15@WinMain|
  000ec		 |$LN17@WinMain|

; 59   :     {      
; 60   :         switch(lpCmdLine[1])

  000ec	e59d3060	 ldr         r3, [sp, #0x60]
  000f0	e2833002	 add         r3, r3, #2
  000f4	e1d330b0	 ldrh        r3, [r3]
  000f8	e58d3040	 str         r3, [sp, #0x40]
  000fc	e59d3040	 ldr         r3, [sp, #0x40]
  00100	e2433044	 sub         r3, r3, #0x44
  00104	e58d3040	 str         r3, [sp, #0x40]
  00108	e59d3040	 ldr         r3, [sp, #0x40]
  0010c	e3530031	 cmp         r3, #0x31
  00110	8a00005f	 bhi         |$LN4@WinMain|
  00114	e59d2040	 ldr         r2, [sp, #0x40]
  00118	e1a03102	 mov         r3, r2, lsl #2
  0011c	e083300f	 add         r3, r3, pc
  00120	e5933004	 ldr         r3, [r3, #4]
  00124	e08ff003	 add         pc, pc, r3
  00128		 |$LN21@WinMain|
  00128		 |$LN20@WinMain|
  00128		 |$LN22@WinMain|
  00128	000000dc	 DCD         0xdc
  0012c		 |$LN23@WinMain|
  0012c	000000c4	 DCD         0xc4
  00130		 |$LN24@WinMain|
  00130	00000168	 DCD         0x168
  00134		 |$LN25@WinMain|
  00134	00000168	 DCD         0x168
  00138		 |$LN26@WinMain|
  00138	0000012c	 DCD         0x12c
  0013c		 |$LN27@WinMain|
  0013c	00000168	 DCD         0x168
  00140		 |$LN28@WinMain|
  00140	00000168	 DCD         0x168
  00144		 |$LN29@WinMain|
  00144	00000168	 DCD         0x168
  00148		 |$LN30@WinMain|
  00148	00000118	 DCD         0x118
  0014c		 |$LN31@WinMain|
  0014c	00000168	 DCD         0x168
  00150		 |$LN32@WinMain|
  00150	00000168	 DCD         0x168
  00154		 |$LN33@WinMain|
  00154	00000168	 DCD         0x168
  00158		 |$LN34@WinMain|
  00158	00000168	 DCD         0x168
  0015c		 |$LN35@WinMain|
  0015c	000000f0	 DCD         0xf0
  00160		 |$LN36@WinMain|
  00160	00000154	 DCD         0x154
  00164		 |$LN37@WinMain|
  00164	00000140	 DCD         0x140
  00168		 |$LN38@WinMain|
  00168	00000168	 DCD         0x168
  0016c		 |$LN39@WinMain|
  0016c	00000104	 DCD         0x104
  00170		 |$LN40@WinMain|
  00170	00000168	 DCD         0x168
  00174		 |$LN41@WinMain|
  00174	00000168	 DCD         0x168
  00178		 |$LN42@WinMain|
  00178	00000168	 DCD         0x168
  0017c		 |$LN43@WinMain|
  0017c	00000168	 DCD         0x168
  00180		 |$LN44@WinMain|
  00180	00000168	 DCD         0x168
  00184		 |$LN45@WinMain|
  00184	00000168	 DCD         0x168
  00188		 |$LN46@WinMain|
  00188	00000168	 DCD         0x168
  0018c		 |$LN47@WinMain|
  0018c	00000168	 DCD         0x168
  00190		 |$LN48@WinMain|
  00190	00000168	 DCD         0x168
  00194		 |$LN49@WinMain|
  00194	00000168	 DCD         0x168
  00198		 |$LN50@WinMain|
  00198	00000168	 DCD         0x168
  0019c		 |$LN51@WinMain|
  0019c	00000168	 DCD         0x168
  001a0		 |$LN52@WinMain|
  001a0	00000168	 DCD         0x168
  001a4		 |$LN53@WinMain|
  001a4	00000168	 DCD         0x168
  001a8		 |$LN54@WinMain|
  001a8	000000dc	 DCD         0xdc
  001ac		 |$LN55@WinMain|
  001ac	000000c4	 DCD         0xc4
  001b0		 |$LN56@WinMain|
  001b0	00000168	 DCD         0x168
  001b4		 |$LN57@WinMain|
  001b4	00000168	 DCD         0x168
  001b8		 |$LN58@WinMain|
  001b8	0000012c	 DCD         0x12c
  001bc		 |$LN59@WinMain|
  001bc	00000168	 DCD         0x168
  001c0		 |$LN60@WinMain|
  001c0	00000168	 DCD         0x168
  001c4		 |$LN61@WinMain|
  001c4	00000168	 DCD         0x168
  001c8		 |$LN62@WinMain|
  001c8	00000118	 DCD         0x118
  001cc		 |$LN63@WinMain|
  001cc	00000168	 DCD         0x168
  001d0		 |$LN64@WinMain|
  001d0	00000168	 DCD         0x168
  001d4		 |$LN65@WinMain|
  001d4	00000168	 DCD         0x168
  001d8		 |$LN66@WinMain|
  001d8	00000168	 DCD         0x168
  001dc		 |$LN67@WinMain|
  001dc	000000f0	 DCD         0xf0
  001e0		 |$LN68@WinMain|
  001e0	00000154	 DCD         0x154
  001e4		 |$LN69@WinMain|
  001e4	00000140	 DCD         0x140
  001e8		 |$LN70@WinMain|
  001e8	00000168	 DCD         0x168
  001ec		 |$LN71@WinMain|
  001ec	00000104	 DCD         0x104
  001f0		 |$LN12@WinMain|

; 61   :         {
; 62   :             case 'e':
; 63   :             case 'E':    
; 64   :                 NKDbgPrintfW(TEXT("Enable Session Req\r\n"));

  001f0	e59f01cc	 ldr         r0, [pc, #0x1CC]
  001f4	eb000000	 bl          NKDbgPrintfW

; 65   :                 dwCode = IOCTL_USBOTG_REQUEST_SESSION_ENABLE;

  001f8	e3a03822	 mov         r3, #0x22, 16
  001fc	e3833a02	 orr         r3, r3, #2, 20
  00200	e58d3014	 str         r3, [sp, #0x14]

; 66   :                 break;

  00204	ea000023	 b           |$LN13@WinMain|
  00208		 |$LN11@WinMain|

; 67   : 
; 68   :             case 'd':
; 69   :             case 'D':
; 70   :                 NKDbgPrintfW(TEXT("Disable Session Req\r\n"));

  00208	e59f01b0	 ldr         r0, [pc, #0x1B0]
  0020c	eb000000	 bl          NKDbgPrintfW

; 71   :                 dwCode = IOCTL_USBOTG_REQUEST_SESSION_DISABLE;

  00210	e59f31a4	 ldr         r3, [pc, #0x1A4]
  00214	e58d3014	 str         r3, [sp, #0x14]

; 72   :                 break;

  00218	ea00001e	 b           |$LN13@WinMain|
  0021c		 |$LN10@WinMain|

; 73   : 
; 74   :             case 'q':
; 75   :             case 'Q':
; 76   :                 NKDbgPrintfW(TEXT("Query Session Req\r\n"));

  0021c	e59f0194	 ldr         r0, [pc, #0x194]
  00220	eb000000	 bl          NKDbgPrintfW

; 77   :                 dwCode = IOCTL_USBOTG_REQUEST_SESSION_QUERY;

  00224	e59f3188	 ldr         r3, [pc, #0x188]
  00228	e58d3014	 str         r3, [sp, #0x14]

; 78   :                 break;

  0022c	ea000019	 b           |$LN13@WinMain|
  00230		 |$LN9@WinMain|

; 79   : 
; 80   :             case 'u':
; 81   :             case 'U':
; 82   :                 NKDbgPrintfW(TEXT("Query ULPI Req\r\n"));

  00230	e59f0178	 ldr         r0, [pc, #0x178]
  00234	eb000000	 bl          NKDbgPrintfW

; 83   :                 dwCode = IOCTL_USBOTG_DUMP_ULPI_REG;

  00238	e59f316c	 ldr         r3, [pc, #0x16C]
  0023c	e58d3014	 str         r3, [sp, #0x14]

; 84   :                 break;

  00240	ea000014	 b           |$LN13@WinMain|
  00244		 |$LN8@WinMain|

; 85   : 
; 86   :             case 'l':
; 87   :             case 'L':
; 88   :                 NKDbgPrintfW(TEXT("Low POwer Mode\r\n"));

  00244	e59f015c	 ldr         r0, [pc, #0x15C]
  00248	eb000000	 bl          NKDbgPrintfW

; 89   :                 dwCode = IOCTL_USBOTG_ULPI_SET_LOW_POWER_MODE;

  0024c	e59f3150	 ldr         r3, [pc, #0x150]
  00250	e58d3014	 str         r3, [sp, #0x14]

; 90   :                 break;

  00254	ea00000f	 b           |$LN13@WinMain|
  00258		 |$LN7@WinMain|

; 91   : 
; 92   :             case 'H':
; 93   :             case 'h':
; 94   :                 NKDbgPrintfW(TEXT("Host Mode Request\r\n"));

  00258	e59f0140	 ldr         r0, [pc, #0x140]
  0025c	eb000000	 bl          NKDbgPrintfW

; 95   :                 dwCode = IOCTL_USBOTG_REQUEST_HOST_MODE;

  00260	e59f3134	 ldr         r3, [pc, #0x134]
  00264	e58d3014	 str         r3, [sp, #0x14]

; 96   :                 break;

  00268	ea00000a	 b           |$LN13@WinMain|
  0026c		 |$LN6@WinMain|

; 97   : 
; 98   :             case 's':
; 99   :             case 'S':
; 100  :                 NKDbgPrintfW(TEXT("Host Suspend\r\n"));

  0026c	e59f0124	 ldr         r0, [pc, #0x124]
  00270	eb000000	 bl          NKDbgPrintfW

; 101  :                 dwCode = IOCTL_USBOTG_SUSPEND_HOST;

  00274	e59f3118	 ldr         r3, [pc, #0x118]
  00278	e58d3014	 str         r3, [sp, #0x14]

; 102  :                 break;

  0027c	ea000005	 b           |$LN13@WinMain|
  00280		 |$LN5@WinMain|

; 103  : 
; 104  :             case 'r':
; 105  :             case 'R':
; 106  :                 NKDbgPrintfW(TEXT("Host Resume\r\n"));

  00280	e59f0108	 ldr         r0, [pc, #0x108]
  00284	eb000000	 bl          NKDbgPrintfW

; 107  :                 dwCode = IOCTL_USBOTG_RESUME_HOST;

  00288	e59f30fc	 ldr         r3, [pc, #0xFC]
  0028c	e58d3014	 str         r3, [sp, #0x14]

; 108  :                 break;

  00290	ea000000	 b           |$LN13@WinMain|
  00294		 |$LN4@WinMain|

; 109  : 
; 110  : 
; 111  :             case '?':
; 112  :             default:
; 113  :                 PrintHelp();

  00294	eb000000	 bl          |?PrintHelp@@YAXXZ|
  00298		 |$LN13@WinMain|
  00298		 |$LN15@WinMain|

; 114  :         }
; 115  :     }
; 116  : 
; 117  :     hHandle = CreateFile(TEXT("OTG1:"), 
; 118  :                                 0,
; 119  :                                 FILE_SHARE_READ | FILE_SHARE_WRITE,
; 120  :                                 NULL,
; 121  :                                 OPEN_EXISTING,
; 122  :                                 0,
; 123  :                                 NULL);

  00298	e3a03000	 mov         r3, #0
  0029c	e58d3008	 str         r3, [sp, #8]
  002a0	e3a03000	 mov         r3, #0
  002a4	e58d3004	 str         r3, [sp, #4]
  002a8	e3a03003	 mov         r3, #3
  002ac	e58d3000	 str         r3, [sp]
  002b0	e3a03000	 mov         r3, #0
  002b4	e3a02003	 mov         r2, #3
  002b8	e3a01000	 mov         r1, #0
  002bc	e59f00c4	 ldr         r0, [pc, #0xC4]
  002c0	eb000000	 bl          CreateFileW
  002c4	e58d0044	 str         r0, [sp, #0x44]
  002c8	e59d3044	 ldr         r3, [sp, #0x44]
  002cc	e58d3018	 str         r3, [sp, #0x18]

; 124  : 
; 125  :     if (INVALID_HANDLE_VALUE == hHandle)

  002d0	e59d3018	 ldr         r3, [sp, #0x18]
  002d4	e3730001	 cmn         r3, #1
  002d8	1a000009	 bne         |$LN3@WinMain|

; 126  :     {
; 127  :         dwErr = GetLastError();

  002dc	eb000000	 bl          GetLastError
  002e0	e58d0048	 str         r0, [sp, #0x48]
  002e4	e59d3048	 ldr         r3, [sp, #0x48]
  002e8	e58d3010	 str         r3, [sp, #0x10]

; 128  :         NKDbgPrintfW(TEXT("Failed in open device file OTG: (Error = %d)"), dwErr);

  002ec	e59d1010	 ldr         r1, [sp, #0x10]
  002f0	e59f008c	 ldr         r0, [pc, #0x8C]
  002f4	eb000000	 bl          NKDbgPrintfW

; 129  :         return 0;        

  002f8	e3a03000	 mov         r3, #0
  002fc	e58d3028	 str         r3, [sp, #0x28]
  00300	ea000019	 b           |$LN18@WinMain|
  00304		 |$LN3@WinMain|

; 130  :     }
; 131  : 
; 132  :     if( !DeviceIoControl (hHandle, dwCode, NULL, 0,  NULL, 0, NULL, NULL))

  00304	e3a03000	 mov         r3, #0
  00308	e58d300c	 str         r3, [sp, #0xC]
  0030c	e3a03000	 mov         r3, #0
  00310	e58d3008	 str         r3, [sp, #8]
  00314	e3a03000	 mov         r3, #0
  00318	e58d3004	 str         r3, [sp, #4]
  0031c	e3a03000	 mov         r3, #0
  00320	e58d3000	 str         r3, [sp]
  00324	e3a03000	 mov         r3, #0
  00328	e3a02000	 mov         r2, #0
  0032c	e59d1014	 ldr         r1, [sp, #0x14]
  00330	e59d0018	 ldr         r0, [sp, #0x18]
  00334	eb000000	 bl          DeviceIoControl
  00338	e58d004c	 str         r0, [sp, #0x4C]
  0033c	e59d304c	 ldr         r3, [sp, #0x4C]
  00340	e3530000	 cmp         r3, #0
  00344	1a000002	 bne         |$LN2@WinMain|

; 133  :         NKDbgPrintfW(TEXT("Write Error\r\n"));

  00348	e59f0030	 ldr         r0, [pc, #0x30]
  0034c	eb000000	 bl          NKDbgPrintfW

; 134  :     else

  00350	ea000001	 b           |$LN1@WinMain|
  00354		 |$LN2@WinMain|

; 135  :         NKDbgPrintfW(TEXT("Write Success\r\n"));

  00354	e59f0020	 ldr         r0, [pc, #0x20]
  00358	eb000000	 bl          NKDbgPrintfW
  0035c		 |$LN1@WinMain|

; 136  :     CloseHandle(hHandle);

  0035c	e59d0018	 ldr         r0, [sp, #0x18]
  00360	eb000000	 bl          CloseHandle

; 137  :     return 0;

  00364	e3a03000	 mov         r3, #0
  00368	e58d3028	 str         r3, [sp, #0x28]
  0036c		 |$LN18@WinMain|

; 138  : }

  0036c	e59d0028	 ldr         r0, [sp, #0x28]
  00370	e28dd050	 add         sp, sp, #0x50
  00374	e89d6000	 ldmia       sp, {sp, lr}
  00378	e12fff1e	 bx          lr
  0037c		 |$LN75@WinMain|
  0037c		 |$LN76@WinMain|
  0037c	00000000	 DCD         |??_C@_1CA@IIOPPBL@?$AAW?$AAr?$AAi?$AAt?$AAe?$AA?5?$AAS?$AAu?$AAc?$AAc?$AAe?$AAs?$AAs?$AA?$AN?$AA?6?$AA?$AA@|
  00380		 |$LN77@WinMain|
  00380	00000000	 DCD         |??_C@_1BM@BGDBPOLE@?$AAW?$AAr?$AAi?$AAt?$AAe?$AA?5?$AAE?$AAr?$AAr?$AAo?$AAr?$AA?$AN?$AA?6?$AA?$AA@|
  00384		 |$LN78@WinMain|
  00384	00000000	 DCD         |??_C@_1FK@KFGLMDPF@?$AAF?$AAa?$AAi?$AAl?$AAe?$AAd?$AA?5?$AAi?$AAn?$AA?5?$AAo?$AAp?$AAe?$AAn?$AA?5?$AAd?$AAe?$AAv?$AAi?$AAc?$AAe?$AA?5?$AAf?$AAi?$AAl?$AAe?$AA?5?$AAO?$AAT?$AAG?$AA?3?$AA?5@|
  00388		 |$LN79@WinMain|
  00388	00000000	 DCD         |??_C@_1M@FMKDABK@?$AAO?$AAT?$AAG?$AA1?$AA?3?$AA?$AA@|
  0038c		 |$LN80@WinMain|
  0038c	0022201c	 DCD         0x22201c
  00390		 |$LN81@WinMain|
  00390	00000000	 DCD         |??_C@_1BM@BMIKOJJH@?$AAH?$AAo?$AAs?$AAt?$AA?5?$AAR?$AAe?$AAs?$AAu?$AAm?$AAe?$AA?$AN?$AA?6?$AA?$AA@|
  00394		 |$LN82@WinMain|
  00394	00222018	 DCD         0x222018
  00398		 |$LN83@WinMain|
  00398	00000000	 DCD         |??_C@_1BO@GLEBLFPN@?$AAH?$AAo?$AAs?$AAt?$AA?5?$AAS?$AAu?$AAs?$AAp?$AAe?$AAn?$AAd?$AA?$AN?$AA?6?$AA?$AA@|
  0039c		 |$LN84@WinMain|
  0039c	00222014	 DCD         0x222014
  003a0		 |$LN85@WinMain|
  003a0	00000000	 DCD         |??_C@_1CI@GPMNNNKP@?$AAH?$AAo?$AAs?$AAt?$AA?5?$AAM?$AAo?$AAd?$AAe?$AA?5?$AAR?$AAe?$AAq?$AAu?$AAe?$AAs?$AAt?$AA?$AN?$AA?6?$AA?$AA@|
  003a4		 |$LN86@WinMain|
  003a4	00222010	 DCD         0x222010
  003a8		 |$LN87@WinMain|
  003a8	00000000	 DCD         |??_C@_1CC@JOBAOHDK@?$AAL?$AAo?$AAw?$AA?5?$AAP?$AAO?$AAw?$AAe?$AAr?$AA?5?$AAM?$AAo?$AAd?$AAe?$AA?$AN?$AA?6?$AA?$AA@|
  003ac		 |$LN88@WinMain|
  003ac	0022200c	 DCD         0x22200c
  003b0		 |$LN89@WinMain|
  003b0	00000000	 DCD         |??_C@_1CC@BBOLLLCL@?$AAQ?$AAu?$AAe?$AAr?$AAy?$AA?5?$AAU?$AAL?$AAP?$AAI?$AA?5?$AAR?$AAe?$AAq?$AA?$AN?$AA?6?$AA?$AA@|
  003b4		 |$LN90@WinMain|
  003b4	00222008	 DCD         0x222008
  003b8		 |$LN91@WinMain|
  003b8	00000000	 DCD         |??_C@_1CI@EOAHAJEJ@?$AAQ?$AAu?$AAe?$AAr?$AAy?$AA?5?$AAS?$AAe?$AAs?$AAs?$AAi?$AAo?$AAn?$AA?5?$AAR?$AAe?$AAq?$AA?$AN?$AA?6?$AA?$AA@|
  003bc		 |$LN92@WinMain|
  003bc	00222004	 DCD         0x222004
  003c0		 |$LN93@WinMain|
  003c0	00000000	 DCD         |??_C@_1CM@EPDCHFBD@?$AAD?$AAi?$AAs?$AAa?$AAb?$AAl?$AAe?$AA?5?$AAS?$AAe?$AAs?$AAs?$AAi?$AAo?$AAn?$AA?5?$AAR?$AAe?$AAq?$AA?$AN?$AA?6?$AA?$AA@|
  003c4		 |$LN94@WinMain|
  003c4	00000000	 DCD         |??_C@_1CK@DNKKEJPL@?$AAE?$AAn?$AAa?$AAb?$AAl?$AAe?$AA?5?$AAS?$AAe?$AAs?$AAs?$AAi?$AAo?$AAn?$AA?5?$AAR?$AAe?$AAq?$AA?$AN?$AA?6?$AA?$AA@|
  003c8		 |$M32235|

			 ENDP  ; |WinMain|

	END
