; Listing generated by Microsoft (R) Optimizing Compiler Version 14.01.60511.01 

	TTL	C:\WINCE600\PLATFORM\COMMON\SRC\SOC\COMMON_TI_V1\COMMON_TI\CEDDK\CLOCK\clock.c
	CODE32

  00000			 AREA	 |.drectve|, DRECTVE
	DCB	"-defaultlib:LIBCMT "
	DCB	"-defaultlib:OLDNAMES "


  00000			 AREA	 |.bss|, NOINIT
|bclockTableInit| % 0x4

  00000			 AREA	 |.rdata|, DATA, READONLY
|EdbgVendorIds| DCW 0x0
	DCW	0x0
	DCD	0x4033
	DCB	0x1
	DCB	"AD", 0x0
	DCW	0x1050
	DCW	0x940
	DCD	0x4005
	DCB	0x1
	DCB	"LS", 0x0
	DCW	0x1050
	DCW	0x940
	DCD	0x2078
	DCB	0x1
	DCB	"LS", 0x0
	DCW	0x10ec
	DCW	0x8029
	DCD	0xc0f0
	DCB	0x1
	DCB	"KS", 0x0
	DCW	0x10ec
	DCW	0x8129
	DCD	0x0
	DCB	0x4
	DCB	"RT", 0x0
	DCW	0x10ec
	DCW	0x8139
	DCD	0x900b
	DCB	0x4
	DCB	"RT", 0x0
	DCW	0x10ec
	DCW	0x8139
	DCD	0xd0c9
	DCB	0x4
	DCB	"RT", 0x0
	DCW	0x10ec
	DCW	0x8139
	DCD	0xe04c
	DCB	0x4
	DCB	"RT", 0x0
	DCW	0x1186
	DCW	0x1300
	DCD	0x50ba
	DCB	0x4
	DCB	"DL", 0x0
	DCW	0x100b
	DCW	0x20
	DCD	0xa0cc
	DCB	0x5
	DCB	"NG", 0x0
	DCW	0x10b7
	DCW	0x9050
	DCD	0x6008
	DCB	0x6
	DCB	"3C", 0x0
	DCW	0x10b7
	DCW	0x9200
	DCD	0x476
	DCB	0x6
	DCB	"3C", 0x0
	EXPORT	|EnableDeviceClockAutoIdle|

  00004			 AREA	 |.bss|, NOINIT
|clockFnTable| % 0x20

  00000			 AREA	 |.pdata|, PDATA
|$T44118| DCD	|$LN7@EnableDevi|
	DCD	0x40001f04
; Function compile flags: /Odtp
; File c:\wince600\platform\common\src\soc\common_ti_v1\common_ti\ceddk\clock\clock.c

  00000			 AREA	 |.text|, CODE, ARM

  00000		 |EnableDeviceClockAutoIdle| PROC

; 50   : {

  00000		 |$LN7@EnableDevi|
  00000	e1a0c00d	 mov         r12, sp
  00004	e92d0003	 stmdb       sp!, {r0, r1}
  00008	e92d5000	 stmdb       sp!, {r12, lr}
  0000c	e24dd008	 sub         sp, sp, #8
  00010		 |$M44115|

; 51   : 	if (!bclockTableInit) ClockInitialize();

  00010	e59f3060	 ldr         r3, [pc, #0x60]
  00014	e5933000	 ldr         r3, [r3]
  00018	e3530000	 cmp         r3, #0
  0001c	1a000000	 bne         |$LN2@EnableDevi|
  00020	eb000000	 bl          ClockInitialize
  00024		 |$LN2@EnableDevi|

; 52   :     if (clockFnTable.pfnEnableDeviceClockAutoIdle)

  00024	e59f3048	 ldr         r3, [pc, #0x48]
  00028	e593300c	 ldr         r3, [r3, #0xC]
  0002c	e3530000	 cmp         r3, #0
  00030	0a000009	 beq         |$LN1@EnableDevi|

; 53   : 	    return clockFnTable.pfnEnableDeviceClockAutoIdle( devID, fEnable );

  00034	e59d1014	 ldr         r1, [sp, #0x14]
  00038	e59d0010	 ldr         r0, [sp, #0x10]
  0003c	e59f3030	 ldr         r3, [pc, #0x30]
  00040	e593300c	 ldr         r3, [r3, #0xC]
  00044	e1a0e00f	 mov         lr, pc
  00048	e12fff13	 bx          r3
  0004c	e58d0004	 str         r0, [sp, #4]
  00050	e59d3004	 ldr         r3, [sp, #4]
  00054	e58d3000	 str         r3, [sp]
  00058	ea000001	 b           |$LN3@EnableDevi|
  0005c		 |$LN1@EnableDevi|

; 54   :     return FALSE;

  0005c	e3a03000	 mov         r3, #0
  00060	e58d3000	 str         r3, [sp]
  00064		 |$LN3@EnableDevi|

; 55   : }

  00064	e59d0000	 ldr         r0, [sp]
  00068	e28dd008	 add         sp, sp, #8
  0006c	e89d6000	 ldmia       sp, {sp, lr}
  00070	e12fff1e	 bx          lr
  00074		 |$LN8@EnableDevi|
  00074		 |$LN9@EnableDevi|
  00074	00000000	 DCD         |clockFnTable|
  00078		 |$LN10@EnableDevi|
  00078	00000000	 DCD         |bclockTableInit|
  0007c		 |$M44116|

			 ENDP  ; |EnableDeviceClockAutoIdle|

	IMPORT	|memset|
	IMPORT	|KernelIoControl|

  00008			 AREA	 |.pdata|, PDATA
|$T44129| DCD	|$LN8@ClockIniti|
	DCD	0x40002502
; Function compile flags: /Odtp

  0007c			 AREA	 |.text|, CODE, ARM

  0007c		 |ClockInitialize| PROC

; 27   : {

  0007c		 |$LN8@ClockIniti|
  0007c	e52de004	 str         lr, [sp, #-4]!
  00080	e24dd018	 sub         sp, sp, #0x18
  00084		 |$M44126|

; 28   :     if (bclockTableInit == FALSE)

  00084	e59f3078	 ldr         r3, [pc, #0x78]
  00088	e5933000	 ldr         r3, [r3]
  0008c	e3530000	 cmp         r3, #0
  00090	1a000014	 bne         |$LN3@ClockIniti|

; 29   :     {
; 30   :         if (KernelIoControl(IOCTL_PRCM_DEVICE_GET_DEVICEMANAGEMENTTABLE, NULL, 0,(void*)&clockFnTable,
; 31   :             sizeof(OMAP_DEVCLKMGMT_FNTABLE),  NULL))

  00094	e3a03000	 mov         r3, #0
  00098	e58d3004	 str         r3, [sp, #4]
  0009c	e3a03020	 mov         r3, #0x20
  000a0	e58d3000	 str         r3, [sp]
  000a4	e59f305c	 ldr         r3, [pc, #0x5C]
  000a8	e3a02000	 mov         r2, #0
  000ac	e3a01000	 mov         r1, #0
  000b0	e59f0054	 ldr         r0, [pc, #0x54]
  000b4	eb000000	 bl          KernelIoControl
  000b8	e58d0014	 str         r0, [sp, #0x14]
  000bc	e59d3014	 ldr         r3, [sp, #0x14]
  000c0	e3530000	 cmp         r3, #0
  000c4	0a000003	 beq         |$LN2@ClockIniti|

; 32   :         {
; 33   :             bclockTableInit = TRUE;

  000c8	e59f2034	 ldr         r2, [pc, #0x34]
  000cc	e3a03001	 mov         r3, #1
  000d0	e5823000	 str         r3, [r2]

; 34   :         }
; 35   :         else

  000d4	ea000003	 b           |$LN1@ClockIniti|
  000d8		 |$LN2@ClockIniti|

; 36   :         {
; 37   :             memset(&clockFnTable,0,sizeof(clockFnTable));

  000d8	e3a02020	 mov         r2, #0x20
  000dc	e3a01000	 mov         r1, #0
  000e0	e59f0020	 ldr         r0, [pc, #0x20]
  000e4	eb000000	 bl          memset
  000e8		 |$LN1@ClockIniti|
  000e8		 |$LN3@ClockIniti|

; 38   :         }
; 39   :     }
; 40   :     return bclockTableInit;

  000e8	e59f3014	 ldr         r3, [pc, #0x14]
  000ec	e5933000	 ldr         r3, [r3]
  000f0	e58d3010	 str         r3, [sp, #0x10]

; 41   : }

  000f4	e59d0010	 ldr         r0, [sp, #0x10]
  000f8	e28dd018	 add         sp, sp, #0x18
  000fc	e49de004	 ldr         lr, [sp], #4
  00100	e12fff1e	 bx          lr
  00104		 |$LN9@ClockIniti|
  00104		 |$LN10@ClockIniti|
  00104	00000000	 DCD         |bclockTableInit|
  00108		 |$LN11@ClockIniti|
  00108	00000000	 DCD         |clockFnTable|
  0010c		 |$LN12@ClockIniti|
  0010c	01f50fa4	 DCD         0x1f50fa4
  00110		 |$M44127|

			 ENDP  ; |ClockInitialize|

	EXPORT	|EnableDeviceClocks|

  00010			 AREA	 |.pdata|, PDATA
|$T44139| DCD	|$LN7@EnableDevi@2|
	DCD	0x40001f04
; Function compile flags: /Odtp

  00110			 AREA	 |.text|, CODE, ARM

  00110		 |EnableDeviceClocks| PROC

; 64   : {

  00110		 |$LN7@EnableDevi@2|
  00110	e1a0c00d	 mov         r12, sp
  00114	e92d0003	 stmdb       sp!, {r0, r1}
  00118	e92d5000	 stmdb       sp!, {r12, lr}
  0011c	e24dd008	 sub         sp, sp, #8
  00120		 |$M44136|

; 65   : 	if (!bclockTableInit) ClockInitialize();

  00120	e59f3060	 ldr         r3, [pc, #0x60]
  00124	e5933000	 ldr         r3, [r3]
  00128	e3530000	 cmp         r3, #0
  0012c	1a000000	 bne         |$LN2@EnableDevi@2|
  00130	eb000000	 bl          ClockInitialize
  00134		 |$LN2@EnableDevi@2|

; 66   :     if (clockFnTable.pfnEnableDeviceClocks)

  00134	e59f3048	 ldr         r3, [pc, #0x48]
  00138	e5933000	 ldr         r3, [r3]
  0013c	e3530000	 cmp         r3, #0
  00140	0a000009	 beq         |$LN1@EnableDevi@2|

; 67   : 	    return clockFnTable.pfnEnableDeviceClocks( devID, bEnable );

  00144	e59d1014	 ldr         r1, [sp, #0x14]
  00148	e59d0010	 ldr         r0, [sp, #0x10]
  0014c	e59f3030	 ldr         r3, [pc, #0x30]
  00150	e5933000	 ldr         r3, [r3]
  00154	e1a0e00f	 mov         lr, pc
  00158	e12fff13	 bx          r3
  0015c	e58d0004	 str         r0, [sp, #4]
  00160	e59d3004	 ldr         r3, [sp, #4]
  00164	e58d3000	 str         r3, [sp]
  00168	ea000001	 b           |$LN3@EnableDevi@2|
  0016c		 |$LN1@EnableDevi@2|

; 68   :     return FALSE;

  0016c	e3a03000	 mov         r3, #0
  00170	e58d3000	 str         r3, [sp]
  00174		 |$LN3@EnableDevi@2|

; 69   : }

  00174	e59d0000	 ldr         r0, [sp]
  00178	e28dd008	 add         sp, sp, #8
  0017c	e89d6000	 ldmia       sp, {sp, lr}
  00180	e12fff1e	 bx          lr
  00184		 |$LN8@EnableDevi@2|
  00184		 |$LN9@EnableDevi@2|
  00184	00000000	 DCD         |clockFnTable|
  00188		 |$LN10@EnableDevi@2|
  00188	00000000	 DCD         |bclockTableInit|
  0018c		 |$M44137|

			 ENDP  ; |EnableDeviceClocks|

	EXPORT	|EnableDeviceIClock|

  00018			 AREA	 |.pdata|, PDATA
|$T44148| DCD	|$LN7@EnableDevi@3|
	DCD	0x40001f04
; Function compile flags: /Odtp

  0018c			 AREA	 |.text|, CODE, ARM

  0018c		 |EnableDeviceIClock| PROC

; 79   : {

  0018c		 |$LN7@EnableDevi@3|
  0018c	e1a0c00d	 mov         r12, sp
  00190	e92d0003	 stmdb       sp!, {r0, r1}
  00194	e92d5000	 stmdb       sp!, {r12, lr}
  00198	e24dd008	 sub         sp, sp, #8
  0019c		 |$M44145|

; 80   : 	if (!bclockTableInit) ClockInitialize();

  0019c	e59f3060	 ldr         r3, [pc, #0x60]
  001a0	e5933000	 ldr         r3, [r3]
  001a4	e3530000	 cmp         r3, #0
  001a8	1a000000	 bne         |$LN2@EnableDevi@3|
  001ac	eb000000	 bl          ClockInitialize
  001b0		 |$LN2@EnableDevi@3|

; 81   :     if (clockFnTable.pfnEnableDeviceIClock)

  001b0	e59f3048	 ldr         r3, [pc, #0x48]
  001b4	e5933004	 ldr         r3, [r3, #4]
  001b8	e3530000	 cmp         r3, #0
  001bc	0a000009	 beq         |$LN1@EnableDevi@3|

; 82   : 	    return clockFnTable.pfnEnableDeviceIClock( devID, bEnable );

  001c0	e59d1014	 ldr         r1, [sp, #0x14]
  001c4	e59d0010	 ldr         r0, [sp, #0x10]
  001c8	e59f3030	 ldr         r3, [pc, #0x30]
  001cc	e5933004	 ldr         r3, [r3, #4]
  001d0	e1a0e00f	 mov         lr, pc
  001d4	e12fff13	 bx          r3
  001d8	e58d0004	 str         r0, [sp, #4]
  001dc	e59d3004	 ldr         r3, [sp, #4]
  001e0	e58d3000	 str         r3, [sp]
  001e4	ea000001	 b           |$LN3@EnableDevi@3|
  001e8		 |$LN1@EnableDevi@3|

; 83   :     return FALSE;

  001e8	e3a03000	 mov         r3, #0
  001ec	e58d3000	 str         r3, [sp]
  001f0		 |$LN3@EnableDevi@3|

; 84   : }

  001f0	e59d0000	 ldr         r0, [sp]
  001f4	e28dd008	 add         sp, sp, #8
  001f8	e89d6000	 ldmia       sp, {sp, lr}
  001fc	e12fff1e	 bx          lr
  00200		 |$LN8@EnableDevi@3|
  00200		 |$LN9@EnableDevi@3|
  00200	00000000	 DCD         |clockFnTable|
  00204		 |$LN10@EnableDevi@3|
  00204	00000000	 DCD         |bclockTableInit|
  00208		 |$M44146|

			 ENDP  ; |EnableDeviceIClock|

	EXPORT	|EnableDeviceFClock|

  00020			 AREA	 |.pdata|, PDATA
|$T44157| DCD	|$LN7@EnableDevi@4|
	DCD	0x40001f04
; Function compile flags: /Odtp

  00208			 AREA	 |.text|, CODE, ARM

  00208		 |EnableDeviceFClock| PROC

; 93   : {

  00208		 |$LN7@EnableDevi@4|
  00208	e1a0c00d	 mov         r12, sp
  0020c	e92d0003	 stmdb       sp!, {r0, r1}
  00210	e92d5000	 stmdb       sp!, {r12, lr}
  00214	e24dd008	 sub         sp, sp, #8
  00218		 |$M44154|

; 94   : 	if (!bclockTableInit) ClockInitialize();

  00218	e59f3060	 ldr         r3, [pc, #0x60]
  0021c	e5933000	 ldr         r3, [r3]
  00220	e3530000	 cmp         r3, #0
  00224	1a000000	 bne         |$LN2@EnableDevi@4|
  00228	eb000000	 bl          ClockInitialize
  0022c		 |$LN2@EnableDevi@4|

; 95   :     if (clockFnTable.pfnEnableDeviceFClock)

  0022c	e59f3048	 ldr         r3, [pc, #0x48]
  00230	e5933008	 ldr         r3, [r3, #8]
  00234	e3530000	 cmp         r3, #0
  00238	0a000009	 beq         |$LN1@EnableDevi@4|

; 96   : 	    return clockFnTable.pfnEnableDeviceFClock( devID, bEnable );

  0023c	e59d1014	 ldr         r1, [sp, #0x14]
  00240	e59d0010	 ldr         r0, [sp, #0x10]
  00244	e59f3030	 ldr         r3, [pc, #0x30]
  00248	e5933008	 ldr         r3, [r3, #8]
  0024c	e1a0e00f	 mov         lr, pc
  00250	e12fff13	 bx          r3
  00254	e58d0004	 str         r0, [sp, #4]
  00258	e59d3004	 ldr         r3, [sp, #4]
  0025c	e58d3000	 str         r3, [sp]
  00260	ea000001	 b           |$LN3@EnableDevi@4|
  00264		 |$LN1@EnableDevi@4|

; 97   :     return FALSE;

  00264	e3a03000	 mov         r3, #0
  00268	e58d3000	 str         r3, [sp]
  0026c		 |$LN3@EnableDevi@4|

; 98   : }

  0026c	e59d0000	 ldr         r0, [sp]
  00270	e28dd008	 add         sp, sp, #8
  00274	e89d6000	 ldmia       sp, {sp, lr}
  00278	e12fff1e	 bx          lr
  0027c		 |$LN8@EnableDevi@4|
  0027c		 |$LN9@EnableDevi@4|
  0027c	00000000	 DCD         |clockFnTable|
  00280		 |$LN10@EnableDevi@4|
  00280	00000000	 DCD         |bclockTableInit|
  00284		 |$M44155|

			 ENDP  ; |EnableDeviceFClock|

	EXPORT	|SelectDeviceSourceClocks|

  00028			 AREA	 |.pdata|, PDATA
|$T44166| DCD	|$LN7@SelectDevi|
	DCD	0x40002004
; Function compile flags: /Odtp

  00284			 AREA	 |.text|, CODE, ARM

  00284		 |SelectDeviceSourceClocks| PROC

; 108  : {

  00284		 |$LN7@SelectDevi|
  00284	e1a0c00d	 mov         r12, sp
  00288	e92d0007	 stmdb       sp!, {r0 - r2}
  0028c	e92d5000	 stmdb       sp!, {r12, lr}
  00290	e24dd008	 sub         sp, sp, #8
  00294		 |$M44163|

; 109  : 	if (!bclockTableInit) ClockInitialize();

  00294	e59f3064	 ldr         r3, [pc, #0x64]
  00298	e5933000	 ldr         r3, [r3]
  0029c	e3530000	 cmp         r3, #0
  002a0	1a000000	 bne         |$LN2@SelectDevi|
  002a4	eb000000	 bl          ClockInitialize
  002a8		 |$LN2@SelectDevi|

; 110  : 
; 111  :     if (clockFnTable.pfnSetSourceDeviceClocks)

  002a8	e59f304c	 ldr         r3, [pc, #0x4C]
  002ac	e5933010	 ldr         r3, [r3, #0x10]
  002b0	e3530000	 cmp         r3, #0
  002b4	0a00000a	 beq         |$LN1@SelectDevi|

; 112  : 	    return clockFnTable.pfnSetSourceDeviceClocks( devID, count, clockIDs );

  002b8	e59d2018	 ldr         r2, [sp, #0x18]
  002bc	e59d1014	 ldr         r1, [sp, #0x14]
  002c0	e59d0010	 ldr         r0, [sp, #0x10]
  002c4	e59f3030	 ldr         r3, [pc, #0x30]
  002c8	e5933010	 ldr         r3, [r3, #0x10]
  002cc	e1a0e00f	 mov         lr, pc
  002d0	e12fff13	 bx          r3
  002d4	e58d0004	 str         r0, [sp, #4]
  002d8	e59d3004	 ldr         r3, [sp, #4]
  002dc	e58d3000	 str         r3, [sp]
  002e0	ea000001	 b           |$LN3@SelectDevi|
  002e4		 |$LN1@SelectDevi|

; 113  :     return FALSE;

  002e4	e3a03000	 mov         r3, #0
  002e8	e58d3000	 str         r3, [sp]
  002ec		 |$LN3@SelectDevi|

; 114  : }

  002ec	e59d0000	 ldr         r0, [sp]
  002f0	e28dd008	 add         sp, sp, #8
  002f4	e89d6000	 ldmia       sp, {sp, lr}
  002f8	e12fff1e	 bx          lr
  002fc		 |$LN8@SelectDevi|
  002fc		 |$LN9@SelectDevi|
  002fc	00000000	 DCD         |clockFnTable|
  00300		 |$LN10@SelectDevi|
  00300	00000000	 DCD         |bclockTableInit|
  00304		 |$M44164|

			 ENDP  ; |SelectDeviceSourceClocks|

	EXPORT	|GetSystemClockFrequency|
	IMPORT	|__stou|

  00030			 AREA	 |.pdata|, PDATA
|$T44176| DCD	|$LN6@GetSystemC|
	DCD	0x40001502
; Function compile flags: /Odtp

  00304			 AREA	 |.text|, CODE, ARM

  00304		 |GetSystemClockFrequency| PROC

; 120  : {

  00304		 |$LN6@GetSystemC|
  00304	e52de004	 str         lr, [sp, #-4]!
  00308	e24dd008	 sub         sp, sp, #8
  0030c		 |$M44173|

; 121  : 	if (!bclockTableInit) ClockInitialize();

  0030c	e59f3040	 ldr         r3, [pc, #0x40]
  00310	e5933000	 ldr         r3, [r3]
  00314	e3530000	 cmp         r3, #0
  00318	1a000000	 bne         |$LN1@GetSystemC|
  0031c	eb000000	 bl          ClockInitialize
  00320		 |$LN1@GetSystemC|

; 122  :     
; 123  :     return (DWORD) clockFnTable.pfnGetSystemClockFrequency();

  00320	e59f3028	 ldr         r3, [pc, #0x28]
  00324	e593301c	 ldr         r3, [r3, #0x1C]
  00328	e1a0e00f	 mov         lr, pc
  0032c	e12fff13	 bx          r3
  00330	e58d0004	 str         r0, [sp, #4]
  00334	e59d0004	 ldr         r0, [sp, #4]
  00338	eb000000	 bl          __stou
  0033c	e58d0000	 str         r0, [sp]

; 124  : }

  00340	e59d0000	 ldr         r0, [sp]
  00344	e28dd008	 add         sp, sp, #8
  00348	e49de004	 ldr         lr, [sp], #4
  0034c	e12fff1e	 bx          lr
  00350		 |$LN7@GetSystemC|
  00350		 |$LN8@GetSystemC|
  00350	00000000	 DCD         |clockFnTable|
  00354		 |$LN9@GetSystemC|
  00354	00000000	 DCD         |bclockTableInit|
  00358		 |$M44174|

			 ENDP  ; |GetSystemClockFrequency|

	EXPORT	|PrcmDeviceGetContextState|

  00038			 AREA	 |.pdata|, PDATA
|$T44185| DCD	|$LN7@PrcmDevice|
	DCD	0x40001f04
; Function compile flags: /Odtp

  00358			 AREA	 |.text|, CODE, ARM

  00358		 |PrcmDeviceGetContextState| PROC

; 131  : {

  00358		 |$LN7@PrcmDevice|
  00358	e1a0c00d	 mov         r12, sp
  0035c	e92d0003	 stmdb       sp!, {r0, r1}
  00360	e92d5000	 stmdb       sp!, {r12, lr}
  00364	e24dd008	 sub         sp, sp, #8
  00368		 |$M44182|

; 132  :     if (!bclockTableInit) ClockInitialize();

  00368	e59f3060	 ldr         r3, [pc, #0x60]
  0036c	e5933000	 ldr         r3, [r3]
  00370	e3530000	 cmp         r3, #0
  00374	1a000000	 bne         |$LN2@PrcmDevice|
  00378	eb000000	 bl          ClockInitialize
  0037c		 |$LN2@PrcmDevice|

; 133  :     if (clockFnTable.pfnGetDeviceContextState)

  0037c	e59f3048	 ldr         r3, [pc, #0x48]
  00380	e5933014	 ldr         r3, [r3, #0x14]
  00384	e3530000	 cmp         r3, #0
  00388	0a000009	 beq         |$LN1@PrcmDevice|

; 134  : 	    return clockFnTable.pfnGetDeviceContextState( devId, bSet );

  0038c	e59d1014	 ldr         r1, [sp, #0x14]
  00390	e59d0010	 ldr         r0, [sp, #0x10]
  00394	e59f3030	 ldr         r3, [pc, #0x30]
  00398	e5933014	 ldr         r3, [r3, #0x14]
  0039c	e1a0e00f	 mov         lr, pc
  003a0	e12fff13	 bx          r3
  003a4	e58d0004	 str         r0, [sp, #4]
  003a8	e59d3004	 ldr         r3, [sp, #4]
  003ac	e58d3000	 str         r3, [sp]
  003b0	ea000001	 b           |$LN3@PrcmDevice|
  003b4		 |$LN1@PrcmDevice|

; 135  :     return FALSE;

  003b4	e3a03000	 mov         r3, #0
  003b8	e58d3000	 str         r3, [sp]
  003bc		 |$LN3@PrcmDevice|

; 136  : 
; 137  : }

  003bc	e59d0000	 ldr         r0, [sp]
  003c0	e28dd008	 add         sp, sp, #8
  003c4	e89d6000	 ldmia       sp, {sp, lr}
  003c8	e12fff1e	 bx          lr
  003cc		 |$LN8@PrcmDevice|
  003cc		 |$LN9@PrcmDevice|
  003cc	00000000	 DCD         |clockFnTable|
  003d0		 |$LN10@PrcmDevice|
  003d0	00000000	 DCD         |bclockTableInit|
  003d4		 |$M44183|

			 ENDP  ; |PrcmDeviceGetContextState|

	END
