; Listing generated by Microsoft (R) Optimizing Compiler Version 14.01.60511.01 

	TTL	C:\WINCE600\PLATFORM\COMMON\SRC\SOC\COMMON_TI_V1\COMMON_TI\BUS\OMAPBUS\Bus.cpp
	CODE32

  00000			 AREA	 |.drectve|, DRECTVE
	DCB	"/include:?_factory@?$$singleton@V?$$free_list@$$0GE@Vall"
	DCB	"ocator@ce@@@ce@@$$03V?$$static_allocator@V?$$free_list@$$"
	DCB	"0GE@Vallocator@ce@@@ce@@$$03@2@@ce@@1Ulock_factory@12@A "
	DCB	"-defaultlib:LIBCMT "
	DCB	"-defaultlib:OLDNAMES "

	EXPORT	|dpCurSettings| [ DATA ]

  00000			 AREA	 |.data|, DATA
|dpCurSettings| DCB "B", 0x0, "a", 0x0, "s", 0x0, "e", 0x0, "B", 0x0, "u", 0x0
	DCB	"s", 0x0, 0x0, 0x0
	%	48
	DCB	"E", 0x0, "r", 0x0, "r", 0x0, "o", 0x0, "r", 0x0, "s", 0x0
	DCB	0x0, 0x0
	%	50
	DCB	"W", 0x0, "a", 0x0, "r", 0x0, "n", 0x0, "i", 0x0, "n", 0x0
	DCB	"g", 0x0, "s", 0x0, 0x0, 0x0
	%	46
	DCB	"F", 0x0, "u", 0x0, "n", 0x0, "c", 0x0, "t", 0x0, "i", 0x0
	DCB	"o", 0x0, "n", 0x0, 0x0, 0x0
	%	46
	DCB	"I", 0x0, "n", 0x0, "f", 0x0, "o", 0x0, 0x0, 0x0
	%	54
	DCB	"U", 0x0, "n", 0x0, "d", 0x0, "e", 0x0, "f", 0x0, "i", 0x0
	DCB	"n", 0x0, "e", 0x0, "d", 0x0, 0x0, 0x0
	%	44
	DCB	"U", 0x0, "n", 0x0, "d", 0x0, "e", 0x0, "f", 0x0, "i", 0x0
	DCB	"n", 0x0, "e", 0x0, "d", 0x0, 0x0, 0x0
	%	44
	DCB	"U", 0x0, "n", 0x0, "d", 0x0, "e", 0x0, "f", 0x0, "i", 0x0
	DCB	"n", 0x0, "e", 0x0, "d", 0x0, 0x0, 0x0
	%	44
	DCB	"U", 0x0, "n", 0x0, "d", 0x0, "e", 0x0, "f", 0x0, "i", 0x0
	DCB	"n", 0x0, "e", 0x0, "d", 0x0, 0x0, 0x0
	%	44
	DCB	"U", 0x0, "n", 0x0, "d", 0x0, "e", 0x0, "f", 0x0, "i", 0x0
	DCB	"n", 0x0, "e", 0x0, "d", 0x0, 0x0, 0x0
	%	44
	DCB	"U", 0x0, "n", 0x0, "d", 0x0, "e", 0x0, "f", 0x0, "i", 0x0
	DCB	"n", 0x0, "e", 0x0, "d", 0x0, 0x0, 0x0
	%	44
	DCB	"U", 0x0, "n", 0x0, "d", 0x0, "e", 0x0, "f", 0x0, "i", 0x0
	DCB	"n", 0x0, "e", 0x0, "d", 0x0, 0x0, 0x0
	%	44
	DCB	"U", 0x0, "n", 0x0, "d", 0x0, "e", 0x0, "f", 0x0, "i", 0x0
	DCB	"n", 0x0, "e", 0x0, "d", 0x0, 0x0, 0x0
	%	44
	DCB	"U", 0x0, "n", 0x0, "d", 0x0, "e", 0x0, "f", 0x0, "i", 0x0
	DCB	"n", 0x0, "e", 0x0, "d", 0x0, 0x0, 0x0
	%	44
	DCB	"U", 0x0, "n", 0x0, "d", 0x0, "e", 0x0, "f", 0x0, "i", 0x0
	DCB	"n", 0x0, "e", 0x0, "d", 0x0, 0x0, 0x0
	%	44
	DCB	"U", 0x0, "n", 0x0, "d", 0x0, "e", 0x0, "f", 0x0, "i", 0x0
	DCB	"n", 0x0, "e", 0x0, "d", 0x0, 0x0, 0x0
	%	44
	DCB	"U", 0x0, "n", 0x0, "d", 0x0, "e", 0x0, "f", 0x0, "i", 0x0
	DCB	"n", 0x0, "e", 0x0, "d", 0x0, 0x0, 0x0
	%	44
	DCD	0x3
	EXPORT	|?CreateDevice@Driver_t@@SAPAV1@XZ|	; Driver_t::CreateDevice
	IMPORT	|??0omap35xxBus_t@@IAA@XZ|		; omap35xxBus_t::omap35xxBus_t
	IMPORT	|??2@YAPAXI@Z|				; operator new

  00000			 AREA	 |.pdata|, PDATA
|$T42215| DCD	|$LN7@CreateDevi|
	DCD	0x40001802
; Function compile flags: /Odtp
; File c:\wince600\platform\common\src\soc\common_ti_v1\common_ti\bus\omapbus\bus.cpp

  00000			 AREA	 |.text|, CODE, ARM

  00000		 |?CreateDevice@Driver_t@@SAPAV1@XZ| PROC ; Driver_t::CreateDevice

; 48   : {

  00000		 |$LN7@CreateDevi|
  00000	e52de004	 str         lr, [sp, #-4]!
  00004	e24dd014	 sub         sp, sp, #0x14
  00008		 |$M42212|

; 49   :     return new omap35xxBus_t();

  00008	e3a000b0	 mov         r0, #0xB0
  0000c	eb000000	 bl          |??2@YAPAXI@Z|
  00010	e58d0008	 str         r0, [sp, #8]
  00014	e59d3008	 ldr         r3, [sp, #8]
  00018	e58d3000	 str         r3, [sp]
  0001c	e59d3000	 ldr         r3, [sp]
  00020	e3530000	 cmp         r3, #0
  00024	0a000005	 beq         |$LN3@CreateDevi|
  00028	e59d0000	 ldr         r0, [sp]
  0002c	eb000000	 bl          |??0omap35xxBus_t@@IAA@XZ|
  00030	e58d000c	 str         r0, [sp, #0xC]
  00034	e59d300c	 ldr         r3, [sp, #0xC]
  00038	e58d3010	 str         r3, [sp, #0x10]
  0003c	ea000001	 b           |$LN4@CreateDevi|
  00040		 |$LN3@CreateDevi|
  00040	e3a03000	 mov         r3, #0
  00044	e58d3010	 str         r3, [sp, #0x10]
  00048		 |$LN4@CreateDevi|
  00048	e59d3010	 ldr         r3, [sp, #0x10]
  0004c	e58d3004	 str         r3, [sp, #4]

; 50   : }

  00050	e59d0004	 ldr         r0, [sp, #4]
  00054	e28dd014	 add         sp, sp, #0x14
  00058	e49de004	 ldr         lr, [sp], #4
  0005c	e12fff1e	 bx          lr
  00060		 |$M42213|

			 ENDP  ; |?CreateDevice@Driver_t@@SAPAV1@XZ|, Driver_t::CreateDevice

	EXPORT	|DllMain|
	IMPORT	|DisableThreadLibraryCalls|
	IMPORT	|RegisterDbgZones|

  00008			 AREA	 |.pdata|, PDATA
|$T42221| DCD	|$LN8@DllMain|
	DCD	0x40001404
; Function compile flags: /Odtp

  00060			 AREA	 |.text|, CODE, ARM

  00060		 |DllMain| PROC

; 65   : {

  00060		 |$LN8@DllMain|
  00060	e1a0c00d	 mov         r12, sp
  00064	e92d0007	 stmdb       sp!, {r0 - r2}
  00068	e92d5000	 stmdb       sp!, {r12, lr}
  0006c	e24dd004	 sub         sp, sp, #4
  00070		 |$M42218|

; 66   :     UNREFERENCED_PARAMETER(pReserved);
; 67   :     switch (reason)

  00070	e59d3010	 ldr         r3, [sp, #0x10]
  00074	e3530001	 cmp         r3, #1
  00078	0a000000	 beq         |$LN1@DllMain|
  0007c	ea000004	 b           |$LN2@DllMain|
  00080		 |$LN1@DllMain|

; 68   :         {
; 69   :         case DLL_PROCESS_ATTACH:
; 70   :             RETAILREGISTERZONES(reinterpret_cast<HMODULE>(hDLL));

  00080	e59f1024	 ldr         r1, [pc, #0x24]
  00084	e59d000c	 ldr         r0, [sp, #0xC]
  00088	eb000000	 bl          RegisterDbgZones

; 71   :             DisableThreadLibraryCalls((HMODULE)hDLL);

  0008c	e59d000c	 ldr         r0, [sp, #0xC]
  00090	eb000000	 bl          DisableThreadLibraryCalls
  00094		 |$LN2@DllMain|

; 72   :             break;
; 73   :         }
; 74   :     return TRUE;

  00094	e3a03001	 mov         r3, #1
  00098	e58d3000	 str         r3, [sp]

; 75   : }

  0009c	e59d0000	 ldr         r0, [sp]
  000a0	e28dd004	 add         sp, sp, #4
  000a4	e89d6000	 ldmia       sp, {sp, lr}
  000a8	e12fff1e	 bx          lr
  000ac		 |$LN9@DllMain|
  000ac		 |$LN10@DllMain|
  000ac	00000000	 DCD         |dpCurSettings|
  000b0		 |$M42219|

			 ENDP  ; |DllMain|

	EXPORT	|??0lock_factory@?$singleton@V?$free_list@$0GE@Vallocator@ce@@@ce@@$03V?$static_allocator@V?$free_list@$0GE@Vallocator@ce@@@ce@@$03@2@@ce@@QAA@XZ| ; ce::singleton<ce::free_list<100,ce::allocator>,4,ce::static_allocator<ce::free_list<100,ce::allocator>,4> >::lock_factory::lock_factory
; File c:\wince600\public\common\oak\inc\singleton.hxx

  00000			 AREA	 |.pdata|, PDATA
|$T42228| DCD	|$LN5@factory|
	DCD	0x40000601
; Function compile flags: /Odtp

  00000			 AREA	 |.text$yc|, CODE, ARM

  00000		 |??__E?_factory@?$singleton@V?$free_list@$0GE@Vallocator@ce@@@ce@@$03V?$static_allocator@V?$free_list@$0GE@Vallocator@ce@@@ce@@$03@2@@ce@@1Ulock_factory@12@A@@YAXXZ| PROC ; `dynamic initializer for 'ce::singleton<ce::free_list<100,ce::allocator>,4,ce::static_allocator<ce::free_list<100,ce::allocator>,4> >::_factory''

; 390  :     {

  00000		 |$LN5@factory|
  00000	e52de004	 str         lr, [sp, #-4]!
  00004		 |$M42225|
  00004	e59f0008	 ldr         r0, [pc, #8]
  00008	eb000000	 bl          |??0lock_factory@?$singleton@V?$free_list@$0GE@Vallocator@ce@@@ce@@$03V?$static_allocator@V?$free_list@$0GE@Vallocator@ce@@@ce@@$03@2@@ce@@QAA@XZ|
  0000c	e49de004	 ldr         lr, [sp], #4
  00010	e12fff1e	 bx          lr
  00014		 |$LN6@factory|
  00014		 |$LN7@factory|
  00014	00000000	 DCD         |?_factory@?$singleton@V?$free_list@$0GE@Vallocator@ce@@@ce@@$03V?$static_allocator@V?$free_list@$0GE@Vallocator@ce@@@ce@@$03@2@@ce@@1Ulock_factory@12@A|
  00018		 |$M42226|

			 ENDP  ; |??__E?_factory@?$singleton@V?$free_list@$0GE@Vallocator@ce@@@ce@@$03V?$static_allocator@V?$free_list@$0GE@Vallocator@ce@@@ce@@$03@2@@ce@@1Ulock_factory@12@A@@YAXXZ|, `dynamic initializer for 'ce::singleton<ce::free_list<100,ce::allocator>,4,ce::static_allocator<ce::free_list<100,ce::allocator>,4> >::_factory''

	EXPORT	|?get_lock@?$singleton@V?$free_list@$0GE@Vallocator@ce@@@ce@@$03V?$static_allocator@V?$free_list@$0GE@Vallocator@ce@@@ce@@$03@2@@ce@@KAAAVcritical_section@2@XZ| ; ce::singleton<ce::free_list<100,ce::allocator>,4,ce::static_allocator<ce::free_list<100,ce::allocator>,4> >::get_lock

  00000			 AREA	 |.pdata|, PDATA
|$T42238| DCD	|$LN5@lock_facto|
	DCD	0x40000b04
; Function compile flags: /Odtp

  00000			 AREA	 |.text|, CODE, ARM

  00000		 |??0lock_factory@?$singleton@V?$free_list@$0GE@Vallocator@ce@@@ce@@$03V?$static_allocator@V?$free_list@$0GE@Vallocator@ce@@@ce@@$03@2@@ce@@QAA@XZ| PROC ; ce::singleton<ce::free_list<100,ce::allocator>,4,ce::static_allocator<ce::free_list<100,ce::allocator>,4> >::lock_factory::lock_factory

; 339  :         lock_factory()

  00000		 |$LN5@lock_facto|
  00000	e1a0c00d	 mov         r12, sp
  00004	e92d0001	 stmdb       sp!, {r0}
  00008	e92d5000	 stmdb       sp!, {r12, lr}
  0000c	e24dd004	 sub         sp, sp, #4
  00010		 |$M42235|
  00010	eb000000	 bl          |?get_lock@?$singleton@V?$free_list@$0GE@Vallocator@ce@@@ce@@$03V?$static_allocator@V?$free_list@$0GE@Vallocator@ce@@@ce@@$03@2@@ce@@KAAAVcritical_section@2@XZ|

; 340  :             {get_lock(); }

  00014	e59d300c	 ldr         r3, [sp, #0xC]
  00018	e58d3000	 str         r3, [sp]
  0001c	e59d0000	 ldr         r0, [sp]
  00020	e28dd004	 add         sp, sp, #4
  00024	e89d6000	 ldmia       sp, {sp, lr}
  00028	e12fff1e	 bx          lr
  0002c		 |$M42236|

			 ENDP  ; |??0lock_factory@?$singleton@V?$free_list@$0GE@Vallocator@ce@@@ce@@$03V?$static_allocator@V?$free_list@$0GE@Vallocator@ce@@@ce@@$03@2@@ce@@QAA@XZ|, ce::singleton<ce::free_list<100,ce::allocator>,4,ce::static_allocator<ce::free_list<100,ce::allocator>,4> >::lock_factory::lock_factory

	EXPORT	|??__Fcs@?1??get_lock@?$singleton@V?$free_list@$0GE@Vallocator@ce@@@ce@@$03V?$static_allocator@V?$free_list@$0GE@Vallocator@ce@@@ce@@$03@2@@ce@@KAAAVcritical_section@2@XZ@YAXXZ| ; `ce::singleton<ce::free_list<100,ce::allocator>,4,ce::static_allocator<ce::free_list<100,ce::allocator>,4> >::get_lock'::`2'::`dynamic atexit destructor for 'cs''
	EXPORT	|??0critical_section@ce@@QAA@XZ|	; ce::critical_section::critical_section
	EXPORT	|?cs@?1??get_lock@?$singleton@V?$free_list@$0GE@Vallocator@ce@@@ce@@$03V?$static_allocator@V?$free_list@$0GE@Vallocator@ce@@@ce@@$03@2@@ce@@KAAAVcritical_section@3@XZ@4V43@A| [ DATA ] ; `ce::singleton<ce::free_list<100,ce::allocator>,4,ce::static_allocator<ce::free_list<100,ce::allocator>,4> >::get_lock'::`2'::cs
	EXPORT	|??_B?1??get_lock@?$singleton@V?$free_list@$0GE@Vallocator@ce@@@ce@@$03V?$static_allocator@V?$free_list@$0GE@Vallocator@ce@@@ce@@$03@2@@ce@@KAAAVcritical_section@2@XZ@51| [ DATA ] ; `ce::singleton<ce::free_list<100,ce::allocator>,4,ce::static_allocator<ce::free_list<100,ce::allocator>,4> >::get_lock'::`2'::`local static guard'
	IMPORT	|atexit|

  00000			 AREA	 |.bss|, NOINIT
|?cs@?1??get_lock@?$singleton@V?$free_list@$0GE@Vallocator@ce@@@ce@@$03V?$static_allocator@V?$free_list@$0GE@Vallocator@ce@@@ce@@$03@2@@ce@@KAAAVcritical_section@3@XZ@4V43@A| % 0x14 ; `ce::singleton<ce::free_list<100,ce::allocator>,4,ce::static_allocator<ce::free_list<100,ce::allocator>,4> >::get_lock'::`2'::cs

  00000			 AREA	 |.bss|, NOINIT
|??_B?1??get_lock@?$singleton@V?$free_list@$0GE@Vallocator@ce@@@ce@@$03V?$static_allocator@V?$free_list@$0GE@Vallocator@ce@@@ce@@$03@2@@ce@@KAAAVcritical_section@2@XZ@51| % 0x4 ; `ce::singleton<ce::free_list<100,ce::allocator>,4,ce::static_allocator<ce::free_list<100,ce::allocator>,4> >::get_lock'::`2'::`local static guard'

  00000			 AREA	 |.pdata|, PDATA
|$T42246| DCD	|$LN6@get_lock|
	DCD	0x40001b02
; Function compile flags: /Odtp

  00000			 AREA	 |.text|, CODE, ARM

  00000		 |?get_lock@?$singleton@V?$free_list@$0GE@Vallocator@ce@@@ce@@$03V?$static_allocator@V?$free_list@$0GE@Vallocator@ce@@@ce@@$03@2@@ce@@KAAAVcritical_section@2@XZ| PROC ; ce::singleton<ce::free_list<100,ce::allocator>,4,ce::static_allocator<ce::free_list<100,ce::allocator>,4> >::get_lock

; 320  :     {

  00000		 |$LN6@get_lock|
  00000	e52de004	 str         lr, [sp, #-4]!
  00004	e24dd008	 sub         sp, sp, #8
  00008		 |$M42243|

; 321  :         static critical_section cs;

  00008	e59f3058	 ldr         r3, [pc, #0x58]
  0000c	e5933000	 ldr         r3, [r3]
  00010	e3130001	 tst         r3, #1
  00014	1a000008	 bne         |$LN1@get_lock|
  00018	e59f3048	 ldr         r3, [pc, #0x48]
  0001c	e5933000	 ldr         r3, [r3]
  00020	e3832001	 orr         r2, r3, #1
  00024	e59f303c	 ldr         r3, [pc, #0x3C]
  00028	e5832000	 str         r2, [r3]
  0002c	e59f0028	 ldr         r0, [pc, #0x28]
  00030	eb000000	 bl          |??0critical_section@ce@@QAA@XZ|
  00034	e59f0028	 ldr         r0, [pc, #0x28]
  00038	eb000000	 bl          atexit
  0003c		 |$LN1@get_lock|

; 322  :         
; 323  :         //
; 324  :         // This statement forces compiler to instantiate _factory member
; 325  :         // thus assuring that lock_factory ctor is called. 
; 326  :         //
; 327  :         lock_factory* volatile p = &_factory;

  0003c	e59f301c	 ldr         r3, [pc, #0x1C]
  00040	e58d3000	 str         r3, [sp]

; 328  : 
; 329  :         return cs;

  00044	e59f3010	 ldr         r3, [pc, #0x10]
  00048	e58d3004	 str         r3, [sp, #4]

; 330  :     }

  0004c	e59d0004	 ldr         r0, [sp, #4]
  00050	e28dd008	 add         sp, sp, #8
  00054	e49de004	 ldr         lr, [sp], #4
  00058	e12fff1e	 bx          lr
  0005c		 |$LN7@get_lock|
  0005c		 |$LN8@get_lock|
  0005c	00000000	 DCD         |?cs@?1??get_lock@?$singleton@V?$free_list@$0GE@Vallocator@ce@@@ce@@$03V?$static_allocator@V?$free_list@$0GE@Vallocator@ce@@@ce@@$03@2@@ce@@KAAAVcritical_section@3@XZ@4V43@A|
  00060		 |$LN9@get_lock|
  00060	00000000	 DCD         |?_factory@?$singleton@V?$free_list@$0GE@Vallocator@ce@@@ce@@$03V?$static_allocator@V?$free_list@$0GE@Vallocator@ce@@@ce@@$03@2@@ce@@1Ulock_factory@12@A|
  00064		 |$LN10@get_lock|
  00064	00000000	 DCD         |??__Fcs@?1??get_lock@?$singleton@V?$free_list@$0GE@Vallocator@ce@@@ce@@$03V?$static_allocator@V?$free_list@$0GE@Vallocator@ce@@@ce@@$03@2@@ce@@KAAAVcritical_section@2@XZ@YAXXZ|
  00068		 |$LN11@get_lock|
  00068	00000000	 DCD         |??_B?1??get_lock@?$singleton@V?$free_list@$0GE@Vallocator@ce@@@ce@@$03V?$static_allocator@V?$free_list@$0GE@Vallocator@ce@@@ce@@$03@2@@ce@@KAAAVcritical_section@2@XZ@51|
  0006c		 |$M42244|

			 ENDP  ; |?get_lock@?$singleton@V?$free_list@$0GE@Vallocator@ce@@@ce@@$03V?$static_allocator@V?$free_list@$0GE@Vallocator@ce@@@ce@@$03@2@@ce@@KAAAVcritical_section@2@XZ|, ce::singleton<ce::free_list<100,ce::allocator>,4,ce::static_allocator<ce::free_list<100,ce::allocator>,4> >::get_lock

	IMPORT	|InitializeCriticalSection|
; File c:\wince600\public\common\oak\inc\sync.hxx

  00000			 AREA	 |.pdata|, PDATA
|$T42259| DCD	|$LN5@critical_s|
	DCD	0x40000c04
; Function compile flags: /Odtp

  00000			 AREA	 |.text|, CODE, ARM

  00000		 |??0critical_section@ce@@QAA@XZ| PROC	; ce::critical_section::critical_section

; 125  :     critical_section()

  00000		 |$LN5@critical_s|
  00000	e1a0c00d	 mov         r12, sp
  00004	e92d0001	 stmdb       sp!, {r0}
  00008	e92d5000	 stmdb       sp!, {r12, lr}
  0000c	e24dd004	 sub         sp, sp, #4
  00010		 |$M42256|
  00010	e59d000c	 ldr         r0, [sp, #0xC]
  00014	eb000000	 bl          InitializeCriticalSection
  00018	e59d300c	 ldr         r3, [sp, #0xC]
  0001c	e58d3000	 str         r3, [sp]
  00020	e59d0000	 ldr         r0, [sp]
  00024	e28dd004	 add         sp, sp, #4
  00028	e89d6000	 ldmia       sp, {sp, lr}
  0002c	e12fff1e	 bx          lr
  00030		 |$M42257|

			 ENDP  ; |??0critical_section@ce@@QAA@XZ|, ce::critical_section::critical_section

	EXPORT	|??1critical_section@ce@@QAA@XZ|	; ce::critical_section::~critical_section

  00000			 AREA	 |.pdata|, PDATA
|$T42266| DCD	|$LN5@dynamic|
	DCD	0x40000601
; Function compile flags: /Odtp

  00000			 AREA	 |.text$yd|, CODE, ARM

  00000		 |??__Fcs@?1??get_lock@?$singleton@V?$free_list@$0GE@Vallocator@ce@@@ce@@$03V?$static_allocator@V?$free_list@$0GE@Vallocator@ce@@@ce@@$03@2@@ce@@KAAAVcritical_section@2@XZ@YAXXZ| PROC ; `ce::singleton<ce::free_list<100,ce::allocator>,4,ce::static_allocator<ce::free_list<100,ce::allocator>,4> >::get_lock'::`2'::`dynamic atexit destructor for 'cs''
  00000		 |$LN5@dynamic|
  00000	e52de004	 str         lr, [sp, #-4]!
  00004		 |$M42263|
  00004	e59f0008	 ldr         r0, [pc, #8]
  00008	eb000000	 bl          |??1critical_section@ce@@QAA@XZ|
  0000c	e49de004	 ldr         lr, [sp], #4
  00010	e12fff1e	 bx          lr
  00014		 |$LN6@dynamic|
  00014		 |$LN7@dynamic|
  00014	00000000	 DCD         |?cs@?1??get_lock@?$singleton@V?$free_list@$0GE@Vallocator@ce@@@ce@@$03V?$static_allocator@V?$free_list@$0GE@Vallocator@ce@@@ce@@$03@2@@ce@@KAAAVcritical_section@3@XZ@4V43@A|
  00018		 |$M42264|

			 ENDP  ; |??__Fcs@?1??get_lock@?$singleton@V?$free_list@$0GE@Vallocator@ce@@@ce@@$03V?$static_allocator@V?$free_list@$0GE@Vallocator@ce@@@ce@@$03@2@@ce@@KAAAVcritical_section@2@XZ@YAXXZ|, `ce::singleton<ce::free_list<100,ce::allocator>,4,ce::static_allocator<ce::free_list<100,ce::allocator>,4> >::get_lock'::`2'::`dynamic atexit destructor for 'cs''

	IMPORT	|DeleteCriticalSection|

  00000			 AREA	 |.pdata|, PDATA
|$T42275| DCD	|$LN5@critical_s@2|
	DCD	0x40000703
; Function compile flags: /Odtp

  00000			 AREA	 |.text|, CODE, ARM

  00000		 |??1critical_section@ce@@QAA@XZ| PROC	; ce::critical_section::~critical_section

; 129  :         {DeleteCriticalSection(this); }

  00000		 |$LN5@critical_s@2|
  00000	e1a0c00d	 mov         r12, sp
  00004	e92d0001	 stmdb       sp!, {r0}
  00008	e92d5000	 stmdb       sp!, {r12, lr}
  0000c		 |$M42272|
  0000c	e59d0008	 ldr         r0, [sp, #8]
  00010	eb000000	 bl          DeleteCriticalSection
  00014	e89d6000	 ldmia       sp, {sp, lr}
  00018	e12fff1e	 bx          lr
  0001c		 |$M42273|

			 ENDP  ; |??1critical_section@ce@@QAA@XZ|, ce::critical_section::~critical_section

	EXPORT	|?_factory@?$singleton@V?$free_list@$0GE@Vallocator@ce@@@ce@@$03V?$static_allocator@V?$free_list@$0GE@Vallocator@ce@@@ce@@$03@2@@ce@@1Ulock_factory@12@A| [ DATA ] ; ce::singleton<ce::free_list<100,ce::allocator>,4,ce::static_allocator<ce::free_list<100,ce::allocator>,4> >::_factory

  00000			 AREA	 |.bss|, NOINIT
|?_factory@?$singleton@V?$free_list@$0GE@Vallocator@ce@@@ce@@$03V?$static_allocator@V?$free_list@$0GE@Vallocator@ce@@@ce@@$03@2@@ce@@1Ulock_factory@12@A| % 0x1 ; ce::singleton<ce::free_list<100,ce::allocator>,4,ce::static_allocator<ce::free_list<100,ce::allocator>,4> >::_factory

  00000			 AREA	 |.CRT$XCU|, DATA
|?_factory$initializer$@?$singleton@V?$free_list@$0GE@Vallocator@ce@@@ce@@$03V?$static_allocator@V?$free_list@$0GE@Vallocator@ce@@@ce@@$03@2@@ce@@1P6AXXZA| DCD |??__E?_factory@?$singleton@V?$free_list@$0GE@Vallocator@ce@@@ce@@$03V?$static_allocator@V?$free_list@$0GE@Vallocator@ce@@@ce@@$03@2@@ce@@1Ulock_factory@12@A@@YAXXZ| ; ce::singleton<ce::free_list<100,ce::allocator>,4,ce::static_allocator<ce::free_list<100,ce::allocator>,4> >::_factory$initializer$
	END
