; Listing generated by Microsoft (R) Optimizing Compiler Version 14.01.60511.01 

	TTL	C:\WINCE600\PLATFORM\COMMON\SRC\SOC\COMMON_TI_V1\COMMON_TI\BUS\OMAPBUS\omap35xxbuscontext.cpp
	CODE32

  00000			 AREA	 |.drectve|, DRECTVE
	DCB	"/include:?_factory@?$$singleton@V?$$free_list@$$0GE@Vall"
	DCB	"ocator@ce@@@ce@@$$03V?$$static_allocator@V?$$free_list@$$"
	DCB	"0GE@Vallocator@ce@@@ce@@$$03@2@@ce@@1Ulock_factory@12@A "
	DCB	"-defaultlib:LIBCMT "
	DCB	"-defaultlib:OLDNAMES "

	EXPORT	|??_7omap35xxBusContext_t@@6B@| [ DATA ] ; omap35xxBusContext_t::`vftable'
	EXPORT	|??0omap35xxBusContext_t@@IAA@PAVomap35xxBus_t@@@Z| ; omap35xxBusContext_t::omap35xxBusContext_t
	EXPORT	|?Read@DriverContext_t@@UAAKPAXK@Z|	; DriverContext_t::Read
	EXPORT	|?Write@DriverContext_t@@UAAKPAXK@Z|	; DriverContext_t::Write
	EXPORT	|?Seek@DriverContext_t@@UAAKJG@Z|	; DriverContext_t::Seek
	EXPORT	|?PreClose@DriverContext_t@@UAAHXZ|	; DriverContext_t::PreClose
	EXPORT	|?IOControl@omap35xxBusContext_t@@UAAHKPAEK0KPAK@Z| ; omap35xxBusContext_t::IOControl
	IMPORT	|??0DefaultBusContext_t@@IAA@PAVBusDriver_t@@@Z| ; DefaultBusContext_t::DefaultBusContext_t
	IMPORT	|??_Eomap35xxBusContext_t@@UAAPAXI@Z|, WEAK |??_Gomap35xxBusContext_t@@UAAPAXI@Z| ; omap35xxBusContext_t::`vector deleting destructor', omap35xxBusContext_t::`scalar deleting destructor'
	IMPORT	|?Close@DefaultBusContext_t@@UAAHXZ|	; DefaultBusContext_t::Close

  00000			 AREA	 |.pdata|, PDATA
|$T42361| DCD	|$LN5@omap35xxBu|
	DCD	0x40001204
; File c:\wince600\platform\common\src\soc\common_ti_v1\common_ti\bus\omapbus\omap35xxbuscontext.cpp

  00000			 AREA	 |.rdata|, DATA, READONLY
|??_7omap35xxBusContext_t@@6B@| DCD |??_Eomap35xxBusContext_t@@UAAPAXI@Z| ; omap35xxBusContext_t::`vftable'
	DCD	|?Read@DriverContext_t@@UAAKPAXK@Z|
	DCD	|?Write@DriverContext_t@@UAAKPAXK@Z|
	DCD	|?Seek@DriverContext_t@@UAAKJG@Z|
	DCD	|?Close@DefaultBusContext_t@@UAAHXZ|
	DCD	|?PreClose@DriverContext_t@@UAAHXZ|
	DCD	|?IOControl@omap35xxBusContext_t@@UAAHKPAEK0KPAK@Z|
; Function compile flags: /Odtp

  00000			 AREA	 |.text|, CODE, ARM

  00000		 |??0omap35xxBusContext_t@@IAA@PAVomap35xxBus_t@@@Z| PROC ; omap35xxBusContext_t::omap35xxBusContext_t

; 32   : {

  00000		 |$LN5@omap35xxBu|
  00000	e1a0c00d	 mov         r12, sp
  00004	e92d0003	 stmdb       sp!, {r0, r1}
  00008	e92d5000	 stmdb       sp!, {r12, lr}
  0000c	e24dd008	 sub         sp, sp, #8
  00010		 |$M42358|
  00010	e59d1014	 ldr         r1, [sp, #0x14]
  00014	e59d0010	 ldr         r0, [sp, #0x10]
  00018	eb000000	 bl          |??0DefaultBusContext_t@@IAA@PAVBusDriver_t@@@Z|
  0001c	e58d0004	 str         r0, [sp, #4]
  00020	e59f201c	 ldr         r2, [pc, #0x1C]
  00024	e59d3010	 ldr         r3, [sp, #0x10]
  00028	e5832000	 str         r2, [r3]

; 33   : }

  0002c	e59d3010	 ldr         r3, [sp, #0x10]
  00030	e58d3000	 str         r3, [sp]
  00034	e59d0000	 ldr         r0, [sp]
  00038	e28dd008	 add         sp, sp, #8
  0003c	e89d6000	 ldmia       sp, {sp, lr}
  00040	e12fff1e	 bx          lr
  00044		 |$LN6@omap35xxBu|
  00044		 |$LN7@omap35xxBu|
  00044	00000000	 DCD         |??_7omap35xxBusContext_t@@6B@|
  00048		 |$M42359|

			 ENDP  ; |??0omap35xxBusContext_t@@IAA@PAVomap35xxBus_t@@@Z|, omap35xxBusContext_t::omap35xxBusContext_t

; File c:\wince600\platform\common\src\soc\common_ti_v1\common_ti\bus\inc\driver.hxx

  00000			 AREA	 |.pdata|, PDATA
|$T42369| DCD	|$LN5@Read|
	DCD	0x40000a04
; Function compile flags: /Odtp

  00000			 AREA	 |.text|, CODE, ARM

  00000		 |?Read@DriverContext_t@@UAAKPAXK@Z| PROC ; DriverContext_t::Read

; 157  :         ) {

  00000		 |$LN5@Read|
  00000	e1a0c00d	 mov         r12, sp
  00004	e92d0007	 stmdb       sp!, {r0 - r2}
  00008	e92d5000	 stmdb       sp!, {r12, lr}
  0000c	e24dd004	 sub         sp, sp, #4
  00010		 |$M42366|

; 158  :         return (DWORD) -1;

  00010	e3e03000	 mvn         r3, #0
  00014	e58d3000	 str         r3, [sp]

; 159  :         }

  00018	e59d0000	 ldr         r0, [sp]
  0001c	e28dd004	 add         sp, sp, #4
  00020	e89d6000	 ldmia       sp, {sp, lr}
  00024	e12fff1e	 bx          lr
  00028		 |$M42367|

			 ENDP  ; |?Read@DriverContext_t@@UAAKPAXK@Z|, DriverContext_t::Read


  00000			 AREA	 |.pdata|, PDATA
|$T42377| DCD	|$LN5@Write|
	DCD	0x40000a04
; Function compile flags: /Odtp

  00000			 AREA	 |.text|, CODE, ARM

  00000		 |?Write@DriverContext_t@@UAAKPAXK@Z| PROC ; DriverContext_t::Write

; 167  :         ) {

  00000		 |$LN5@Write|
  00000	e1a0c00d	 mov         r12, sp
  00004	e92d0007	 stmdb       sp!, {r0 - r2}
  00008	e92d5000	 stmdb       sp!, {r12, lr}
  0000c	e24dd004	 sub         sp, sp, #4
  00010		 |$M42374|

; 168  :         return (DWORD) -1;

  00010	e3e03000	 mvn         r3, #0
  00014	e58d3000	 str         r3, [sp]

; 169  :         }

  00018	e59d0000	 ldr         r0, [sp]
  0001c	e28dd004	 add         sp, sp, #4
  00020	e89d6000	 ldmia       sp, {sp, lr}
  00024	e12fff1e	 bx          lr
  00028		 |$M42375|

			 ENDP  ; |?Write@DriverContext_t@@UAAKPAXK@Z|, DriverContext_t::Write


  00000			 AREA	 |.pdata|, PDATA
|$T42385| DCD	|$LN5@Seek|
	DCD	0x40000a04
; Function compile flags: /Odtp

  00000			 AREA	 |.text|, CODE, ARM

  00000		 |?Seek@DriverContext_t@@UAAKJG@Z| PROC	; DriverContext_t::Seek

; 177  :         ) {

  00000		 |$LN5@Seek|
  00000	e1a0c00d	 mov         r12, sp
  00004	e92d0007	 stmdb       sp!, {r0 - r2}
  00008	e92d5000	 stmdb       sp!, {r12, lr}
  0000c	e24dd004	 sub         sp, sp, #4
  00010		 |$M42382|

; 178  :         return (DWORD) -1;

  00010	e3e03000	 mvn         r3, #0
  00014	e58d3000	 str         r3, [sp]

; 179  :         }

  00018	e59d0000	 ldr         r0, [sp]
  0001c	e28dd004	 add         sp, sp, #4
  00020	e89d6000	 ldmia       sp, {sp, lr}
  00024	e12fff1e	 bx          lr
  00028		 |$M42383|

			 ENDP  ; |?Seek@DriverContext_t@@UAAKJG@Z|, DriverContext_t::Seek


  00000			 AREA	 |.pdata|, PDATA
|$T42393| DCD	|$LN5@PreClose|
	DCD	0x40000a04
; Function compile flags: /Odtp

  00000			 AREA	 |.text|, CODE, ARM

  00000		 |?PreClose@DriverContext_t@@UAAHXZ| PROC ; DriverContext_t::PreClose

; 192  :         {

  00000		 |$LN5@PreClose|
  00000	e1a0c00d	 mov         r12, sp
  00004	e92d0001	 stmdb       sp!, {r0}
  00008	e92d5000	 stmdb       sp!, {r12, lr}
  0000c	e24dd004	 sub         sp, sp, #4
  00010		 |$M42390|

; 193  :         return TRUE;

  00010	e3a03001	 mov         r3, #1
  00014	e58d3000	 str         r3, [sp]

; 194  :         };

  00018	e59d0000	 ldr         r0, [sp]
  0001c	e28dd004	 add         sp, sp, #4
  00020	e89d6000	 ldmia       sp, {sp, lr}
  00024	e12fff1e	 bx          lr
  00028		 |$M42391|

			 ENDP  ; |?PreClose@DriverContext_t@@UAAHXZ|, DriverContext_t::PreClose

	EXPORT	|??1omap35xxBusContext_t@@UAA@XZ|	; omap35xxBusContext_t::~omap35xxBusContext_t
	IMPORT	|??3@YAXPAX@Z|				; operator delete

  00000			 AREA	 |.pdata|, PDATA
|$T42401| DCD	|$LN6@scalar|
	DCD	0x40001104
; Function compile flags: /Odtp

  00000			 AREA	 |.text|, CODE, ARM

  00000		 |??_Gomap35xxBusContext_t@@UAAPAXI@Z| PROC ; omap35xxBusContext_t::`scalar deleting destructor'
  00000		 |$LN6@scalar|
  00000	e1a0c00d	 mov         r12, sp
  00004	e92d0003	 stmdb       sp!, {r0, r1}
  00008	e92d5000	 stmdb       sp!, {r12, lr}
  0000c	e24dd004	 sub         sp, sp, #4
  00010		 |$M42398|
  00010	e59d000c	 ldr         r0, [sp, #0xC]
  00014	eb000000	 bl          |??1omap35xxBusContext_t@@UAA@XZ|
  00018	e59d3010	 ldr         r3, [sp, #0x10]
  0001c	e3130001	 tst         r3, #1
  00020	0a000001	 beq         |$LN1@scalar|
  00024	e59d000c	 ldr         r0, [sp, #0xC]
  00028	eb000000	 bl          |??3@YAXPAX@Z|
  0002c		 |$LN1@scalar|
  0002c	e59d300c	 ldr         r3, [sp, #0xC]
  00030	e58d3000	 str         r3, [sp]
  00034	e59d0000	 ldr         r0, [sp]
  00038	e28dd004	 add         sp, sp, #4
  0003c	e89d6000	 ldmia       sp, {sp, lr}
  00040	e12fff1e	 bx          lr
  00044		 |$M42399|

			 ENDP  ; |??_Gomap35xxBusContext_t@@UAAPAXI@Z|, omap35xxBusContext_t::`scalar deleting destructor'

	IMPORT	|??1DefaultBusContext_t@@MAA@XZ|	; DefaultBusContext_t::~DefaultBusContext_t

  00000			 AREA	 |.pdata|, PDATA
|$T42408| DCD	|$LN5@omap35xxBu@2|
	DCD	0x40000703
; Function compile flags: /Odtp

  00000			 AREA	 |.text|, CODE, ARM

  00000		 |??1omap35xxBusContext_t@@UAA@XZ| PROC	; omap35xxBusContext_t::~omap35xxBusContext_t
  00000		 |$LN5@omap35xxBu@2|
  00000	e1a0c00d	 mov         r12, sp
  00004	e92d0001	 stmdb       sp!, {r0}
  00008	e92d5000	 stmdb       sp!, {r12, lr}
  0000c		 |$M42405|
  0000c	e59d0008	 ldr         r0, [sp, #8]
  00010	eb000000	 bl          |??1DefaultBusContext_t@@MAA@XZ|
  00014	e89d6000	 ldmia       sp, {sp, lr}
  00018	e12fff1e	 bx          lr
  0001c		 |$M42406|

			 ENDP  ; |??1omap35xxBusContext_t@@UAA@XZ|, omap35xxBusContext_t::~omap35xxBusContext_t

	EXPORT	|?Release@RefCount_t@@QAAJXZ|		; RefCount_t::Release
	IMPORT	|?IOControl@DefaultBusContext_t@@UAAHKPAEK0KPAK@Z| ; DefaultBusContext_t::IOControl
	IMPORT	|?SetDevicePowerStateChangeCallbacks@omap35xxBus_t@@QAAHPAX0@Z| ; omap35xxBus_t::SetDevicePowerStateChangeCallbacks
	IMPORT	|?SetSourceDeviceClocks@omap35xxBus_t@@QAAHKIQAI@Z| ; omap35xxBus_t::SetSourceDeviceClocks
	IMPORT	|?CloseChildBusFromBind@omap35xxBus_t@@QAAHPAVBusDriverChild_t@@@Z| ; omap35xxBus_t::CloseChildBusFromBind
	IMPORT	|?OpenChildBusToBind@omap35xxBus_t@@QAAPAVBusDriverChild_t@@PAUOMAP_BIND_CHILD_INFO@@@Z| ; omap35xxBus_t::OpenChildBusToBind
	IMPORT	|?SetPowerState@omap35xxBus_t@@QAAHKW4_CEDEVICE_POWER_STATE@@@Z| ; omap35xxBus_t::SetPowerState
	IMPORT	|SetLastError|

  00008			 AREA	 |.pdata|, PDATA
|$T42420| DCD	|$LN27@IOControl|
	DCD	0x4000cb04
; Function compile flags: /Odtp
; File c:\wince600\platform\common\src\soc\common_ti_v1\common_ti\bus\omapbus\omap35xxbuscontext.cpp

  00048			 AREA	 |.text|, CODE, ARM

  00048		 |?IOControl@omap35xxBusContext_t@@UAAHKPAEK0KPAK@Z| PROC ; omap35xxBusContext_t::IOControl

; 57   : {

  00048		 |$LN27@IOControl|
  00048	e1a0c00d	 mov         r12, sp
  0004c	e92d000f	 stmdb       sp!, {r0 - r3}
  00050	e92d5000	 stmdb       sp!, {r12, lr}
  00054	e24dd04c	 sub         sp, sp, #0x4C
  00058		 |$M42417|

; 58   :     BOOL rc = FALSE;

  00058	e3a03000	 mov         r3, #0
  0005c	e58d300c	 str         r3, [sp, #0xC]

; 59   :     CE_BUS_DEVICE_SOURCE_CLOCKS *pClockInfo;
; 60   :     CE_BUS_DEVICESTATE_CALLBACKS *pDeviceStateCallbacks;
; 61   :     omap35xxBus_t* pBus = reinterpret_cast<omap35xxBus_t*>(m_pBus);

  00060	e59d3054	 ldr         r3, [sp, #0x54]
  00064	e2833008	 add         r3, r3, #8
  00068	e5933000	 ldr         r3, [r3]
  0006c	e58d3010	 str         r3, [sp, #0x10]

; 62   : 
; 63   :     switch (code)

  00070	e59d3058	 ldr         r3, [sp, #0x58]
  00074	e58d302c	 str         r3, [sp, #0x2C]
  00078	e59d202c	 ldr         r2, [sp, #0x2C]
  0007c	e3a03822	 mov         r3, #0x22, 16
  00080	e3833ec1	 orr         r3, r3, #0xC1, 28
  00084	e1520003	 cmp         r2, r3
  00088	8a000012	 bhi         |$LN24@IOControl|
  0008c	e59d202c	 ldr         r2, [sp, #0x2C]
  00090	e3a03822	 mov         r3, #0x22, 16
  00094	e3833ec1	 orr         r3, r3, #0xC1, 28
  00098	e1520003	 cmp         r2, r3
  0009c	0a000054	 beq         |$LN9@IOControl|
  000a0	e59d202c	 ldr         r2, [sp, #0x2C]
  000a4	e3a03822	 mov         r3, #0x22, 16
  000a8	e3833b03	 orr         r3, r3, #3, 22
  000ac	e1520003	 cmp         r2, r3
  000b0	0a000011	 beq         |$LN19@IOControl|
  000b4	e59d202c	 ldr         r2, [sp, #0x2C]
  000b8	e59f32b0	 ldr         r3, [pc, #0x2B0]
  000bc	e1520003	 cmp         r2, r3
  000c0	0a00001f	 beq         |$LN16@IOControl|
  000c4	e59d202c	 ldr         r2, [sp, #0x2C]
  000c8	e59f329c	 ldr         r3, [pc, #0x29C]
  000cc	e1520003	 cmp         r2, r3
  000d0	0a00002d	 beq         |$LN13@IOControl|
  000d4	ea00008e	 b           |$LN1@IOControl|
  000d8		 |$LN24@IOControl|
  000d8	e59d202c	 ldr         r2, [sp, #0x2C]
  000dc	e59f3284	 ldr         r3, [pc, #0x284]
  000e0	e1520003	 cmp         r2, r3
  000e4	0a000059	 beq         |$LN7@IOControl|
  000e8	e59d202c	 ldr         r2, [sp, #0x2C]
  000ec	e59f3270	 ldr         r3, [pc, #0x270]
  000f0	e1520003	 cmp         r2, r3
  000f4	0a00006f	 beq         |$LN4@IOControl|
  000f8	ea000085	 b           |$LN1@IOControl|
  000fc		 |$LN19@IOControl|

; 64   :         {
; 65   :         case IOCTL_BUS_REQUEST_CLOCK:
; 66   :             if ((pInBuffer == NULL) || (inSize < sizeof(OMAP_DEVICE)))

  000fc	e59d305c	 ldr         r3, [sp, #0x5C]
  00100	e3530000	 cmp         r3, #0
  00104	0a000002	 beq         |$LN17@IOControl|
  00108	e59d3060	 ldr         r3, [sp, #0x60]
  0010c	e3530004	 cmp         r3, #4
  00110	2a000002	 bcs         |$LN18@IOControl|
  00114		 |$LN17@IOControl|

; 67   :                 {
; 68   :                 SetLastError(ERROR_INVALID_PARAMETER);

  00114	e3a00057	 mov         r0, #0x57
  00118	eb000000	 bl          SetLastError

; 69   :                 break;

  0011c	ea00008a	 b           |$LN20@IOControl|
  00120		 |$LN18@IOControl|

; 70   :                 }
; 71   :             rc = pBus->SetPowerState(
; 72   :                 *reinterpret_cast<UINT*>(pInBuffer), D0
; 73   :                 );

  00120	e3a02000	 mov         r2, #0
  00124	e59d305c	 ldr         r3, [sp, #0x5C]
  00128	e5931000	 ldr         r1, [r3]
  0012c	e59d0010	 ldr         r0, [sp, #0x10]
  00130	eb000000	 bl          |?SetPowerState@omap35xxBus_t@@QAAHKW4_CEDEVICE_POWER_STATE@@@Z|
  00134	e58d0030	 str         r0, [sp, #0x30]
  00138	e59d3030	 ldr         r3, [sp, #0x30]
  0013c	e58d300c	 str         r3, [sp, #0xC]

; 74   :             break;       

  00140	ea000081	 b           |$LN20@IOControl|
  00144		 |$LN16@IOControl|

; 75   :             
; 76   :         case IOCTL_BUS_RELEASE_CLOCK:
; 77   :             if ((pInBuffer == NULL) || (inSize < sizeof(OMAP_DEVICE)))

  00144	e59d305c	 ldr         r3, [sp, #0x5C]
  00148	e3530000	 cmp         r3, #0
  0014c	0a000002	 beq         |$LN14@IOControl|
  00150	e59d3060	 ldr         r3, [sp, #0x60]
  00154	e3530004	 cmp         r3, #4
  00158	2a000002	 bcs         |$LN15@IOControl|
  0015c		 |$LN14@IOControl|

; 78   :                 {
; 79   :                 SetLastError(ERROR_INVALID_PARAMETER);

  0015c	e3a00057	 mov         r0, #0x57
  00160	eb000000	 bl          SetLastError

; 80   :                 break;

  00164	ea000078	 b           |$LN20@IOControl|
  00168		 |$LN15@IOControl|

; 81   :                 }
; 82   :             rc = pBus->SetPowerState(
; 83   :                 *reinterpret_cast<UINT*>(pInBuffer), D4
; 84   :                 );

  00168	e3a02004	 mov         r2, #4
  0016c	e59d305c	 ldr         r3, [sp, #0x5C]
  00170	e5931000	 ldr         r1, [r3]
  00174	e59d0010	 ldr         r0, [sp, #0x10]
  00178	eb000000	 bl          |?SetPowerState@omap35xxBus_t@@QAAHKW4_CEDEVICE_POWER_STATE@@@Z|
  0017c	e58d0034	 str         r0, [sp, #0x34]
  00180	e59d3034	 ldr         r3, [sp, #0x34]
  00184	e58d300c	 str         r3, [sp, #0xC]

; 85   :             break;            

  00188	ea00006f	 b           |$LN20@IOControl|
  0018c		 |$LN13@IOControl|

; 86   :             
; 87   :         case IOCTL_BUS_CHILD_BIND:
; 88   :             if ((pInBuffer == NULL) || (inSize < sizeof(OMAP_BIND_CHILD_INFO)))

  0018c	e59d305c	 ldr         r3, [sp, #0x5C]
  00190	e3530000	 cmp         r3, #0
  00194	0a000002	 beq         |$LN11@IOControl|
  00198	e59d3060	 ldr         r3, [sp, #0x60]
  0019c	e3530f83	 cmp         r3, #0x83, 30
  001a0	2a000002	 bcs         |$LN12@IOControl|
  001a4		 |$LN11@IOControl|

; 89   :                 {
; 90   :                 SetLastError(ERROR_INVALID_PARAMETER);

  001a4	e3a00057	 mov         r0, #0x57
  001a8	eb000000	 bl          SetLastError

; 91   :                 break;

  001ac	ea000066	 b           |$LN20@IOControl|
  001b0		 |$LN12@IOControl|

; 92   :                 }
; 93   :             // check if this is already binded to a child.  If so then
; 94   :             // refuse request.
; 95   :             if (m_pChild != NULL) break;            

  001b0	e59d3054	 ldr         r3, [sp, #0x54]
  001b4	e283300c	 add         r3, r3, #0xC
  001b8	e5933000	 ldr         r3, [r3]
  001bc	e3530000	 cmp         r3, #0
  001c0	0a000000	 beq         |$LN10@IOControl|
  001c4	ea000060	 b           |$LN20@IOControl|
  001c8		 |$LN10@IOControl|

; 96   :             m_pChild = pBus->OpenChildBusToBind(
; 97   :                 reinterpret_cast<OMAP_BIND_CHILD_INFO*>(pInBuffer)
; 98   :                 );

  001c8	e59d105c	 ldr         r1, [sp, #0x5C]
  001cc	e59d0010	 ldr         r0, [sp, #0x10]
  001d0	eb000000	 bl          |?OpenChildBusToBind@omap35xxBus_t@@QAAPAVBusDriverChild_t@@PAUOMAP_BIND_CHILD_INFO@@@Z|
  001d4	e58d0038	 str         r0, [sp, #0x38]
  001d8	e59d3054	 ldr         r3, [sp, #0x54]
  001dc	e283200c	 add         r2, r3, #0xC
  001e0	e59d3038	 ldr         r3, [sp, #0x38]
  001e4	e5823000	 str         r3, [r2]

; 99   :             rc = TRUE;

  001e8	e3a03001	 mov         r3, #1
  001ec	e58d300c	 str         r3, [sp, #0xC]

; 100  :             break;

  001f0	ea000055	 b           |$LN20@IOControl|
  001f4		 |$LN9@IOControl|

; 101  :             
; 102  :         case IOCTL_BUS_CHILD_UNBIND:            
; 103  :             // check if this is already binded to a child.  If so then
; 104  :             // refuse request.
; 105  :             if (m_pChild == NULL) break;            

  001f4	e59d3054	 ldr         r3, [sp, #0x54]
  001f8	e283300c	 add         r3, r3, #0xC
  001fc	e5933000	 ldr         r3, [r3]
  00200	e3530000	 cmp         r3, #0
  00204	1a000000	 bne         |$LN8@IOControl|
  00208	ea00004f	 b           |$LN20@IOControl|
  0020c		 |$LN8@IOControl|

; 106  :             rc = pBus->CloseChildBusFromBind(m_pChild);

  0020c	e59d3054	 ldr         r3, [sp, #0x54]
  00210	e283300c	 add         r3, r3, #0xC
  00214	e5931000	 ldr         r1, [r3]
  00218	e59d0010	 ldr         r0, [sp, #0x10]
  0021c	eb000000	 bl          |?CloseChildBusFromBind@omap35xxBus_t@@QAAHPAVBusDriverChild_t@@@Z|
  00220	e58d003c	 str         r0, [sp, #0x3C]
  00224	e59d303c	 ldr         r3, [sp, #0x3C]
  00228	e58d300c	 str         r3, [sp, #0xC]

; 107  :             m_pChild->Release();

  0022c	e59d3054	 ldr         r3, [sp, #0x54]
  00230	e283300c	 add         r3, r3, #0xC
  00234	e5930000	 ldr         r0, [r3]
  00238	eb000000	 bl          |?Release@RefCount_t@@QAAJXZ|

; 108  :             m_pChild = NULL;

  0023c	e59d3054	 ldr         r3, [sp, #0x54]
  00240	e283200c	 add         r2, r3, #0xC
  00244	e3a03000	 mov         r3, #0
  00248	e5823000	 str         r3, [r2]

; 109  :             break;

  0024c	ea00003e	 b           |$LN20@IOControl|
  00250		 |$LN7@IOControl|

; 110  : 
; 111  :         case IOCTL_BUS_SOURCE_CLOCKS:
; 112  :             if ((pInBuffer == NULL) || (inSize < sizeof(CE_BUS_DEVICE_SOURCE_CLOCKS)))

  00250	e59d305c	 ldr         r3, [sp, #0x5C]
  00254	e3530000	 cmp         r3, #0
  00258	0a000004	 beq         |$LN5@IOControl|
  0025c	e59d2060	 ldr         r2, [sp, #0x60]
  00260	e3a03b01	 mov         r3, #1, 22
  00264	e3833018	 orr         r3, r3, #0x18
  00268	e1520003	 cmp         r2, r3
  0026c	2a000002	 bcs         |$LN6@IOControl|
  00270		 |$LN5@IOControl|

; 113  :                 {
; 114  :                 SetLastError(ERROR_INVALID_PARAMETER);

  00270	e3a00057	 mov         r0, #0x57
  00274	eb000000	 bl          SetLastError

; 115  :                 break;

  00278	ea000033	 b           |$LN20@IOControl|
  0027c		 |$LN6@IOControl|

; 116  :                 }
; 117  :             pClockInfo = (CE_BUS_DEVICE_SOURCE_CLOCKS*)pInBuffer;

  0027c	e59d305c	 ldr         r3, [sp, #0x5C]
  00280	e58d3018	 str         r3, [sp, #0x18]

; 118  :             rc = pBus->SetSourceDeviceClocks(pClockInfo->devId,
; 119  :                     pClockInfo->count, pClockInfo->rgSourceClocks
; 120  :                     );

  00284	e59d3018	 ldr         r3, [sp, #0x18]
  00288	e2833008	 add         r3, r3, #8
  0028c	e59d2018	 ldr         r2, [sp, #0x18]
  00290	e2822004	 add         r2, r2, #4
  00294	e5922000	 ldr         r2, [r2]
  00298	e59d1018	 ldr         r1, [sp, #0x18]
  0029c	e5911000	 ldr         r1, [r1]
  002a0	e59d0010	 ldr         r0, [sp, #0x10]
  002a4	eb000000	 bl          |?SetSourceDeviceClocks@omap35xxBus_t@@QAAHKIQAI@Z|
  002a8	e58d0040	 str         r0, [sp, #0x40]
  002ac	e59d3040	 ldr         r3, [sp, #0x40]
  002b0	e58d300c	 str         r3, [sp, #0xC]

; 121  :             break;

  002b4	ea000024	 b           |$LN20@IOControl|
  002b8		 |$LN4@IOControl|

; 122  : 
; 123  :         case IOCTL_BUS_DEVICESTATE_CALLBACKS:
; 124  :             if ((pInBuffer == NULL) || (inSize < sizeof(CE_BUS_DEVICESTATE_CALLBACKS)))

  002b8	e59d305c	 ldr         r3, [sp, #0x5C]
  002bc	e3530000	 cmp         r3, #0
  002c0	0a000002	 beq         |$LN2@IOControl|
  002c4	e59d3060	 ldr         r3, [sp, #0x60]
  002c8	e353000c	 cmp         r3, #0xC
  002cc	2a000002	 bcs         |$LN3@IOControl|
  002d0		 |$LN2@IOControl|

; 125  :                 {
; 126  :                 SetLastError(ERROR_INVALID_PARAMETER);

  002d0	e3a00057	 mov         r0, #0x57
  002d4	eb000000	 bl          SetLastError

; 127  :                 break;

  002d8	ea00001b	 b           |$LN20@IOControl|
  002dc		 |$LN3@IOControl|

; 128  :                 }
; 129  : 
; 130  :             pDeviceStateCallbacks = (CE_BUS_DEVICESTATE_CALLBACKS*)pInBuffer;

  002dc	e59d305c	 ldr         r3, [sp, #0x5C]
  002e0	e58d3014	 str         r3, [sp, #0x14]

; 131  :             rc = pBus->SetDevicePowerStateChangeCallbacks(
; 132  :                         pDeviceStateCallbacks->PreDeviceStateChange, 
; 133  :                         pDeviceStateCallbacks->PostDeviceStateChange
; 134  :                         );

  002e4	e59d3014	 ldr         r3, [sp, #0x14]
  002e8	e2833008	 add         r3, r3, #8
  002ec	e5932000	 ldr         r2, [r3]
  002f0	e59d3014	 ldr         r3, [sp, #0x14]
  002f4	e2833004	 add         r3, r3, #4
  002f8	e5931000	 ldr         r1, [r3]
  002fc	e59d0010	 ldr         r0, [sp, #0x10]
  00300	eb000000	 bl          |?SetDevicePowerStateChangeCallbacks@omap35xxBus_t@@QAAHPAX0@Z|
  00304	e58d0044	 str         r0, [sp, #0x44]
  00308	e59d3044	 ldr         r3, [sp, #0x44]
  0030c	e58d300c	 str         r3, [sp, #0xC]

; 135  :             break;

  00310	ea00000d	 b           |$LN20@IOControl|
  00314		 |$LN1@IOControl|

; 136  :         
; 137  :         default:
; 138  :             rc = DefaultBusContext_t::IOControl(
; 139  :                 code, pInBuffer, inSize, pOutBuffer, outSize, pOutSize
; 140  :                 );

  00314	e59d306c	 ldr         r3, [sp, #0x6C]
  00318	e58d3008	 str         r3, [sp, #8]
  0031c	e59d3068	 ldr         r3, [sp, #0x68]
  00320	e58d3004	 str         r3, [sp, #4]
  00324	e59d3064	 ldr         r3, [sp, #0x64]
  00328	e58d3000	 str         r3, [sp]
  0032c	e59d3060	 ldr         r3, [sp, #0x60]
  00330	e59d205c	 ldr         r2, [sp, #0x5C]
  00334	e59d1058	 ldr         r1, [sp, #0x58]
  00338	e59d0054	 ldr         r0, [sp, #0x54]
  0033c	eb000000	 bl          |?IOControl@DefaultBusContext_t@@UAAHKPAEK0KPAK@Z|
  00340	e58d0048	 str         r0, [sp, #0x48]
  00344	e59d3048	 ldr         r3, [sp, #0x48]
  00348	e58d300c	 str         r3, [sp, #0xC]
  0034c		 |$LN20@IOControl|

; 141  :         }
; 142  :     
; 143  :     return rc;

  0034c	e59d300c	 ldr         r3, [sp, #0xC]
  00350	e58d3028	 str         r3, [sp, #0x28]

; 144  : }

  00354	e59d0028	 ldr         r0, [sp, #0x28]
  00358	e28dd04c	 add         sp, sp, #0x4C
  0035c	e89d6000	 ldmia       sp, {sp, lr}
  00360	e12fff1e	 bx          lr
  00364		 |$LN28@IOControl|
  00364		 |$LN29@IOControl|
  00364	00220c1c	 DCD         0x220c1c
  00368		 |$LN30@IOControl|
  00368	00220c18	 DCD         0x220c18
  0036c		 |$LN31@IOControl|
  0036c	00220c0c	 DCD         0x220c0c
  00370		 |$LN32@IOControl|
  00370	00220c04	 DCD         0x220c04
  00374		 |$M42418|

			 ENDP  ; |?IOControl@omap35xxBusContext_t@@UAAHKPAEK0KPAK@Z|, omap35xxBusContext_t::IOControl

	IMPORT	|InterlockedDecrement|
; File c:\wince600\platform\common\src\soc\common_ti_v1\common_ti\bus\inc\driver.hxx

  00000			 AREA	 |.pdata|, PDATA
|$T42435| DCD	|$LN8@Release|
	DCD	0x40002704
; Function compile flags: /Odtp

  00000			 AREA	 |.text|, CODE, ARM

  00000		 |?Release@RefCount_t@@QAAJXZ| PROC	; RefCount_t::Release

; 59   :         ) {

  00000		 |$LN8@Release|
  00000	e1a0c00d	 mov         r12, sp
  00004	e92d0001	 stmdb       sp!, {r0}
  00008	e92d5000	 stmdb       sp!, {r12, lr}
  0000c	e24dd01c	 sub         sp, sp, #0x1C
  00010		 |$M42432|

; 60   :         LONG count = InterlockedDecrement(&m_refCount);

  00010	e59d3024	 ldr         r3, [sp, #0x24]
  00014	e2830004	 add         r0, r3, #4
  00018	eb000000	 bl          InterlockedDecrement
  0001c	e58d0010	 str         r0, [sp, #0x10]
  00020	e59d3010	 ldr         r3, [sp, #0x10]
  00024	e58d3000	 str         r3, [sp]

; 61   :         if (count <= 0) delete this;

  00028	e59d3000	 ldr         r3, [sp]
  0002c	e3530000	 cmp         r3, #0
  00030	ca000013	 bgt         |$LN1@Release|
  00034	e59d3024	 ldr         r3, [sp, #0x24]
  00038	e58d3008	 str         r3, [sp, #8]
  0003c	e59d3008	 ldr         r3, [sp, #8]
  00040	e58d3004	 str         r3, [sp, #4]
  00044	e59d3004	 ldr         r3, [sp, #4]
  00048	e3530000	 cmp         r3, #0
  0004c	0a00000a	 beq         |$LN4@Release|
  00050	e3a01001	 mov         r1, #1
  00054	e59d3004	 ldr         r3, [sp, #4]
  00058	e5933000	 ldr         r3, [r3]
  0005c	e59d0004	 ldr         r0, [sp, #4]
  00060	e5933000	 ldr         r3, [r3]
  00064	e1a0e00f	 mov         lr, pc
  00068	e12fff13	 bx          r3
  0006c	e58d0014	 str         r0, [sp, #0x14]
  00070	e59d3014	 ldr         r3, [sp, #0x14]
  00074	e58d3018	 str         r3, [sp, #0x18]
  00078	ea000001	 b           |$LN5@Release|
  0007c		 |$LN4@Release|
  0007c	e3a03000	 mov         r3, #0
  00080	e58d3018	 str         r3, [sp, #0x18]
  00084		 |$LN5@Release|
  00084		 |$LN1@Release|

; 62   :         return count;

  00084	e59d3000	 ldr         r3, [sp]
  00088	e58d300c	 str         r3, [sp, #0xC]

; 63   :         };

  0008c	e59d000c	 ldr         r0, [sp, #0xC]
  00090	e28dd01c	 add         sp, sp, #0x1C
  00094	e89d6000	 ldmia       sp, {sp, lr}
  00098	e12fff1e	 bx          lr
  0009c		 |$M42433|

			 ENDP  ; |?Release@RefCount_t@@QAAJXZ|, RefCount_t::Release

	EXPORT	|??0lock_factory@?$singleton@V?$free_list@$0GE@Vallocator@ce@@@ce@@$03V?$static_allocator@V?$free_list@$0GE@Vallocator@ce@@@ce@@$03@2@@ce@@QAA@XZ| ; ce::singleton<ce::free_list<100,ce::allocator>,4,ce::static_allocator<ce::free_list<100,ce::allocator>,4> >::lock_factory::lock_factory
; File c:\wince600\public\common\oak\inc\singleton.hxx

  00000			 AREA	 |.pdata|, PDATA
|$T42442| DCD	|$LN5@factory|
	DCD	0x40000601
; Function compile flags: /Odtp

  00000			 AREA	 |.text$yc|, CODE, ARM

  00000		 |??__E?_factory@?$singleton@V?$free_list@$0GE@Vallocator@ce@@@ce@@$03V?$static_allocator@V?$free_list@$0GE@Vallocator@ce@@@ce@@$03@2@@ce@@1Ulock_factory@12@A@@YAXXZ| PROC ; `dynamic initializer for 'ce::singleton<ce::free_list<100,ce::allocator>,4,ce::static_allocator<ce::free_list<100,ce::allocator>,4> >::_factory''

; 390  :     {

  00000		 |$LN5@factory|
  00000	e52de004	 str         lr, [sp, #-4]!
  00004		 |$M42439|
  00004	e59f0008	 ldr         r0, [pc, #8]
  00008	eb000000	 bl          |??0lock_factory@?$singleton@V?$free_list@$0GE@Vallocator@ce@@@ce@@$03V?$static_allocator@V?$free_list@$0GE@Vallocator@ce@@@ce@@$03@2@@ce@@QAA@XZ|
  0000c	e49de004	 ldr         lr, [sp], #4
  00010	e12fff1e	 bx          lr
  00014		 |$LN6@factory|
  00014		 |$LN7@factory|
  00014	00000000	 DCD         |?_factory@?$singleton@V?$free_list@$0GE@Vallocator@ce@@@ce@@$03V?$static_allocator@V?$free_list@$0GE@Vallocator@ce@@@ce@@$03@2@@ce@@1Ulock_factory@12@A|
  00018		 |$M42440|

			 ENDP  ; |??__E?_factory@?$singleton@V?$free_list@$0GE@Vallocator@ce@@@ce@@$03V?$static_allocator@V?$free_list@$0GE@Vallocator@ce@@@ce@@$03@2@@ce@@1Ulock_factory@12@A@@YAXXZ|, `dynamic initializer for 'ce::singleton<ce::free_list<100,ce::allocator>,4,ce::static_allocator<ce::free_list<100,ce::allocator>,4> >::_factory''

	EXPORT	|?get_lock@?$singleton@V?$free_list@$0GE@Vallocator@ce@@@ce@@$03V?$static_allocator@V?$free_list@$0GE@Vallocator@ce@@@ce@@$03@2@@ce@@KAAAVcritical_section@2@XZ| ; ce::singleton<ce::free_list<100,ce::allocator>,4,ce::static_allocator<ce::free_list<100,ce::allocator>,4> >::get_lock

  00000			 AREA	 |.pdata|, PDATA
|$T42452| DCD	|$LN5@lock_facto|
	DCD	0x40000b04
; Function compile flags: /Odtp

  00000			 AREA	 |.text|, CODE, ARM

  00000		 |??0lock_factory@?$singleton@V?$free_list@$0GE@Vallocator@ce@@@ce@@$03V?$static_allocator@V?$free_list@$0GE@Vallocator@ce@@@ce@@$03@2@@ce@@QAA@XZ| PROC ; ce::singleton<ce::free_list<100,ce::allocator>,4,ce::static_allocator<ce::free_list<100,ce::allocator>,4> >::lock_factory::lock_factory

; 339  :         lock_factory()

  00000		 |$LN5@lock_facto|
  00000	e1a0c00d	 mov         r12, sp
  00004	e92d0001	 stmdb       sp!, {r0}
  00008	e92d5000	 stmdb       sp!, {r12, lr}
  0000c	e24dd004	 sub         sp, sp, #4
  00010		 |$M42449|
  00010	eb000000	 bl          |?get_lock@?$singleton@V?$free_list@$0GE@Vallocator@ce@@@ce@@$03V?$static_allocator@V?$free_list@$0GE@Vallocator@ce@@@ce@@$03@2@@ce@@KAAAVcritical_section@2@XZ|

; 340  :             {get_lock(); }

  00014	e59d300c	 ldr         r3, [sp, #0xC]
  00018	e58d3000	 str         r3, [sp]
  0001c	e59d0000	 ldr         r0, [sp]
  00020	e28dd004	 add         sp, sp, #4
  00024	e89d6000	 ldmia       sp, {sp, lr}
  00028	e12fff1e	 bx          lr
  0002c		 |$M42450|

			 ENDP  ; |??0lock_factory@?$singleton@V?$free_list@$0GE@Vallocator@ce@@@ce@@$03V?$static_allocator@V?$free_list@$0GE@Vallocator@ce@@@ce@@$03@2@@ce@@QAA@XZ|, ce::singleton<ce::free_list<100,ce::allocator>,4,ce::static_allocator<ce::free_list<100,ce::allocator>,4> >::lock_factory::lock_factory

	EXPORT	|??__Fcs@?1??get_lock@?$singleton@V?$free_list@$0GE@Vallocator@ce@@@ce@@$03V?$static_allocator@V?$free_list@$0GE@Vallocator@ce@@@ce@@$03@2@@ce@@KAAAVcritical_section@2@XZ@YAXXZ| ; `ce::singleton<ce::free_list<100,ce::allocator>,4,ce::static_allocator<ce::free_list<100,ce::allocator>,4> >::get_lock'::`2'::`dynamic atexit destructor for 'cs''
	EXPORT	|??0critical_section@ce@@QAA@XZ|	; ce::critical_section::critical_section
	EXPORT	|?cs@?1??get_lock@?$singleton@V?$free_list@$0GE@Vallocator@ce@@@ce@@$03V?$static_allocator@V?$free_list@$0GE@Vallocator@ce@@@ce@@$03@2@@ce@@KAAAVcritical_section@3@XZ@4V43@A| [ DATA ] ; `ce::singleton<ce::free_list<100,ce::allocator>,4,ce::static_allocator<ce::free_list<100,ce::allocator>,4> >::get_lock'::`2'::cs
	EXPORT	|??_B?1??get_lock@?$singleton@V?$free_list@$0GE@Vallocator@ce@@@ce@@$03V?$static_allocator@V?$free_list@$0GE@Vallocator@ce@@@ce@@$03@2@@ce@@KAAAVcritical_section@2@XZ@51| [ DATA ] ; `ce::singleton<ce::free_list<100,ce::allocator>,4,ce::static_allocator<ce::free_list<100,ce::allocator>,4> >::get_lock'::`2'::`local static guard'
	IMPORT	|atexit|

  00000			 AREA	 |.bss|, NOINIT
|?cs@?1??get_lock@?$singleton@V?$free_list@$0GE@Vallocator@ce@@@ce@@$03V?$static_allocator@V?$free_list@$0GE@Vallocator@ce@@@ce@@$03@2@@ce@@KAAAVcritical_section@3@XZ@4V43@A| % 0x14 ; `ce::singleton<ce::free_list<100,ce::allocator>,4,ce::static_allocator<ce::free_list<100,ce::allocator>,4> >::get_lock'::`2'::cs

  00000			 AREA	 |.bss|, NOINIT
|??_B?1??get_lock@?$singleton@V?$free_list@$0GE@Vallocator@ce@@@ce@@$03V?$static_allocator@V?$free_list@$0GE@Vallocator@ce@@@ce@@$03@2@@ce@@KAAAVcritical_section@2@XZ@51| % 0x4 ; `ce::singleton<ce::free_list<100,ce::allocator>,4,ce::static_allocator<ce::free_list<100,ce::allocator>,4> >::get_lock'::`2'::`local static guard'

  00000			 AREA	 |.pdata|, PDATA
|$T42460| DCD	|$LN6@get_lock|
	DCD	0x40001b02
; Function compile flags: /Odtp

  00000			 AREA	 |.text|, CODE, ARM

  00000		 |?get_lock@?$singleton@V?$free_list@$0GE@Vallocator@ce@@@ce@@$03V?$static_allocator@V?$free_list@$0GE@Vallocator@ce@@@ce@@$03@2@@ce@@KAAAVcritical_section@2@XZ| PROC ; ce::singleton<ce::free_list<100,ce::allocator>,4,ce::static_allocator<ce::free_list<100,ce::allocator>,4> >::get_lock

; 320  :     {

  00000		 |$LN6@get_lock|
  00000	e52de004	 str         lr, [sp, #-4]!
  00004	e24dd008	 sub         sp, sp, #8
  00008		 |$M42457|

; 321  :         static critical_section cs;

  00008	e59f3058	 ldr         r3, [pc, #0x58]
  0000c	e5933000	 ldr         r3, [r3]
  00010	e3130001	 tst         r3, #1
  00014	1a000008	 bne         |$LN1@get_lock|
  00018	e59f3048	 ldr         r3, [pc, #0x48]
  0001c	e5933000	 ldr         r3, [r3]
  00020	e3832001	 orr         r2, r3, #1
  00024	e59f303c	 ldr         r3, [pc, #0x3C]
  00028	e5832000	 str         r2, [r3]
  0002c	e59f0028	 ldr         r0, [pc, #0x28]
  00030	eb000000	 bl          |??0critical_section@ce@@QAA@XZ|
  00034	e59f0028	 ldr         r0, [pc, #0x28]
  00038	eb000000	 bl          atexit
  0003c		 |$LN1@get_lock|

; 322  :         
; 323  :         //
; 324  :         // This statement forces compiler to instantiate _factory member
; 325  :         // thus assuring that lock_factory ctor is called. 
; 326  :         //
; 327  :         lock_factory* volatile p = &_factory;

  0003c	e59f301c	 ldr         r3, [pc, #0x1C]
  00040	e58d3000	 str         r3, [sp]

; 328  : 
; 329  :         return cs;

  00044	e59f3010	 ldr         r3, [pc, #0x10]
  00048	e58d3004	 str         r3, [sp, #4]

; 330  :     }

  0004c	e59d0004	 ldr         r0, [sp, #4]
  00050	e28dd008	 add         sp, sp, #8
  00054	e49de004	 ldr         lr, [sp], #4
  00058	e12fff1e	 bx          lr
  0005c		 |$LN7@get_lock|
  0005c		 |$LN8@get_lock|
  0005c	00000000	 DCD         |?cs@?1??get_lock@?$singleton@V?$free_list@$0GE@Vallocator@ce@@@ce@@$03V?$static_allocator@V?$free_list@$0GE@Vallocator@ce@@@ce@@$03@2@@ce@@KAAAVcritical_section@3@XZ@4V43@A|
  00060		 |$LN9@get_lock|
  00060	00000000	 DCD         |?_factory@?$singleton@V?$free_list@$0GE@Vallocator@ce@@@ce@@$03V?$static_allocator@V?$free_list@$0GE@Vallocator@ce@@@ce@@$03@2@@ce@@1Ulock_factory@12@A|
  00064		 |$LN10@get_lock|
  00064	00000000	 DCD         |??__Fcs@?1??get_lock@?$singleton@V?$free_list@$0GE@Vallocator@ce@@@ce@@$03V?$static_allocator@V?$free_list@$0GE@Vallocator@ce@@@ce@@$03@2@@ce@@KAAAVcritical_section@2@XZ@YAXXZ|
  00068		 |$LN11@get_lock|
  00068	00000000	 DCD         |??_B?1??get_lock@?$singleton@V?$free_list@$0GE@Vallocator@ce@@@ce@@$03V?$static_allocator@V?$free_list@$0GE@Vallocator@ce@@@ce@@$03@2@@ce@@KAAAVcritical_section@2@XZ@51|
  0006c		 |$M42458|

			 ENDP  ; |?get_lock@?$singleton@V?$free_list@$0GE@Vallocator@ce@@@ce@@$03V?$static_allocator@V?$free_list@$0GE@Vallocator@ce@@@ce@@$03@2@@ce@@KAAAVcritical_section@2@XZ|, ce::singleton<ce::free_list<100,ce::allocator>,4,ce::static_allocator<ce::free_list<100,ce::allocator>,4> >::get_lock

	IMPORT	|InitializeCriticalSection|
; File c:\wince600\public\common\oak\inc\sync.hxx

  00000			 AREA	 |.pdata|, PDATA
|$T42473| DCD	|$LN5@critical_s|
	DCD	0x40000c04
; Function compile flags: /Odtp

  00000			 AREA	 |.text|, CODE, ARM

  00000		 |??0critical_section@ce@@QAA@XZ| PROC	; ce::critical_section::critical_section

; 125  :     critical_section()

  00000		 |$LN5@critical_s|
  00000	e1a0c00d	 mov         r12, sp
  00004	e92d0001	 stmdb       sp!, {r0}
  00008	e92d5000	 stmdb       sp!, {r12, lr}
  0000c	e24dd004	 sub         sp, sp, #4
  00010		 |$M42470|
  00010	e59d000c	 ldr         r0, [sp, #0xC]
  00014	eb000000	 bl          InitializeCriticalSection
  00018	e59d300c	 ldr         r3, [sp, #0xC]
  0001c	e58d3000	 str         r3, [sp]
  00020	e59d0000	 ldr         r0, [sp]
  00024	e28dd004	 add         sp, sp, #4
  00028	e89d6000	 ldmia       sp, {sp, lr}
  0002c	e12fff1e	 bx          lr
  00030		 |$M42471|

			 ENDP  ; |??0critical_section@ce@@QAA@XZ|, ce::critical_section::critical_section

	EXPORT	|??1critical_section@ce@@QAA@XZ|	; ce::critical_section::~critical_section

  00000			 AREA	 |.pdata|, PDATA
|$T42480| DCD	|$LN5@dynamic|
	DCD	0x40000601
; Function compile flags: /Odtp

  00000			 AREA	 |.text$yd|, CODE, ARM

  00000		 |??__Fcs@?1??get_lock@?$singleton@V?$free_list@$0GE@Vallocator@ce@@@ce@@$03V?$static_allocator@V?$free_list@$0GE@Vallocator@ce@@@ce@@$03@2@@ce@@KAAAVcritical_section@2@XZ@YAXXZ| PROC ; `ce::singleton<ce::free_list<100,ce::allocator>,4,ce::static_allocator<ce::free_list<100,ce::allocator>,4> >::get_lock'::`2'::`dynamic atexit destructor for 'cs''
  00000		 |$LN5@dynamic|
  00000	e52de004	 str         lr, [sp, #-4]!
  00004		 |$M42477|
  00004	e59f0008	 ldr         r0, [pc, #8]
  00008	eb000000	 bl          |??1critical_section@ce@@QAA@XZ|
  0000c	e49de004	 ldr         lr, [sp], #4
  00010	e12fff1e	 bx          lr
  00014		 |$LN6@dynamic|
  00014		 |$LN7@dynamic|
  00014	00000000	 DCD         |?cs@?1??get_lock@?$singleton@V?$free_list@$0GE@Vallocator@ce@@@ce@@$03V?$static_allocator@V?$free_list@$0GE@Vallocator@ce@@@ce@@$03@2@@ce@@KAAAVcritical_section@3@XZ@4V43@A|
  00018		 |$M42478|

			 ENDP  ; |??__Fcs@?1??get_lock@?$singleton@V?$free_list@$0GE@Vallocator@ce@@@ce@@$03V?$static_allocator@V?$free_list@$0GE@Vallocator@ce@@@ce@@$03@2@@ce@@KAAAVcritical_section@2@XZ@YAXXZ|, `ce::singleton<ce::free_list<100,ce::allocator>,4,ce::static_allocator<ce::free_list<100,ce::allocator>,4> >::get_lock'::`2'::`dynamic atexit destructor for 'cs''

	IMPORT	|DeleteCriticalSection|

  00000			 AREA	 |.pdata|, PDATA
|$T42489| DCD	|$LN5@critical_s@2|
	DCD	0x40000703
; Function compile flags: /Odtp

  00000			 AREA	 |.text|, CODE, ARM

  00000		 |??1critical_section@ce@@QAA@XZ| PROC	; ce::critical_section::~critical_section

; 129  :         {DeleteCriticalSection(this); }

  00000		 |$LN5@critical_s@2|
  00000	e1a0c00d	 mov         r12, sp
  00004	e92d0001	 stmdb       sp!, {r0}
  00008	e92d5000	 stmdb       sp!, {r12, lr}
  0000c		 |$M42486|
  0000c	e59d0008	 ldr         r0, [sp, #8]
  00010	eb000000	 bl          DeleteCriticalSection
  00014	e89d6000	 ldmia       sp, {sp, lr}
  00018	e12fff1e	 bx          lr
  0001c		 |$M42487|

			 ENDP  ; |??1critical_section@ce@@QAA@XZ|, ce::critical_section::~critical_section

	EXPORT	|?_factory@?$singleton@V?$free_list@$0GE@Vallocator@ce@@@ce@@$03V?$static_allocator@V?$free_list@$0GE@Vallocator@ce@@@ce@@$03@2@@ce@@1Ulock_factory@12@A| [ DATA ] ; ce::singleton<ce::free_list<100,ce::allocator>,4,ce::static_allocator<ce::free_list<100,ce::allocator>,4> >::_factory

  00000			 AREA	 |.bss|, NOINIT
|?_factory@?$singleton@V?$free_list@$0GE@Vallocator@ce@@@ce@@$03V?$static_allocator@V?$free_list@$0GE@Vallocator@ce@@@ce@@$03@2@@ce@@1Ulock_factory@12@A| % 0x1 ; ce::singleton<ce::free_list<100,ce::allocator>,4,ce::static_allocator<ce::free_list<100,ce::allocator>,4> >::_factory

  00000			 AREA	 |.CRT$XCU|, DATA
|?_factory$initializer$@?$singleton@V?$free_list@$0GE@Vallocator@ce@@@ce@@$03V?$static_allocator@V?$free_list@$0GE@Vallocator@ce@@@ce@@$03@2@@ce@@1P6AXXZA| DCD |??__E?_factory@?$singleton@V?$free_list@$0GE@Vallocator@ce@@@ce@@$03V?$static_allocator@V?$free_list@$0GE@Vallocator@ce@@@ce@@$03@2@@ce@@1Ulock_factory@12@A@@YAXXZ| ; ce::singleton<ce::free_list<100,ce::allocator>,4,ce::static_allocator<ce::free_list<100,ce::allocator>,4> >::_factory$initializer$
	END
