; Listing generated by Microsoft (R) Optimizing Compiler Version 14.01.60511.01 

	TTL	C:\WINCE600\PLATFORM\EVM_OMAP3530\SRC\test\testNAND\testapp\nandtest.c
	CODE32

  00000			 AREA	 |.drectve|, DRECTVE
	DCB	"-defaultlib:LIBCMT "
	DCB	"-defaultlib:OLDNAMES "

	EXPORT	|RetailPrint|
	IMPORT	|vwprintf|
; File c:\wince600\platform\evm_omap3530\src\test\testnand\testapp\nandtest.c

  00000			 AREA	 |.pdata|, PDATA
|$T40183| DCD	|$LN5@RetailPrin|
	DCD	0x40000803
; Function compile flags: /Ogspy

  00000			 AREA	 |.text|, CODE, ARM

  00000		 |RetailPrint| PROC

; 21   : {

  00000		 |$LN5@RetailPrin|
  00000	e1a0c00d	 mov         r12, sp
  00004	e92d000f	 stmdb       sp!, {r0 - r3}
  00008	e92d5000	 stmdb       sp!, {r12, lr}
  0000c		 |$M40180|
  0000c	e58d0008	 str         r0, [sp, #8]

; 22   :     va_list al;
; 23   :     va_start(al, pszFormat);
; 24   :     vwprintf(pszFormat, al);

  00010	e28d100c	 add         r1, sp, #0xC
  00014	eb000000	 bl          vwprintf

; 25   :     va_end(al);
; 26   : }

  00018	e89d6000	 ldmia       sp, {sp, lr}
  0001c	e12fff1e	 bx          lr
  00020		 |$M40181|

			 ENDP  ; |RetailPrint|

	EXPORT	|__$ArrayPad$| [ DATA ]
	EXPORT	|WinMain|
	EXPORT	|??_C@_1EA@JHBPEMHJ@?$AAW?$AAR?$AAI?$AAT?$AAE?$AA?5?$AAt?$AAo?$AA?5?$AAo?$AAu?$AAt?$AA?5?$AAd?$AAa?$AAt?$AAa?$AA?5?$AAf?$AAi?$AAl?$AAe?$AA?5?$AAf?$AAa?$AAi?$AAl?$AAe?$AAd?$AA?$AN?$AA?6?$AA?$AA@| [ DATA ] ; `string'
	EXPORT	|??_C@_1EC@BEFFJHFH@?$AAn?$AAa?$AAn?$AAd?$AA?5?$AAt?$AAe?$AAs?$AAt?$AA?3?$AA?5?$AAe?$AAc?$AAc?$AA?5?$AAc?$AAo?$AAr?$AAr?$AAe?$AAc?$AAt?$AAi?$AAo?$AAn?$AA?5?$AAi?$AAs?$AA?5?$AA?$CF?$AAs?$AA?6@| [ DATA ] ; `string'
	EXPORT	|??_C@_1O@KPGHAGDD@?$AAf?$AAa?$AAi?$AAl?$AAe?$AAd?$AA?$AA@| [ DATA ] ; `string'
	EXPORT	|??_C@_1BG@GELEOFE@?$AAs?$AAu?$AAc?$AAc?$AAe?$AAs?$AAs?$AAf?$AAu?$AAl?$AA?$AA@| [ DATA ] ; `string'
	EXPORT	|??_C@_1FI@NPPAMJPP@?$AAn?$AAa?$AAn?$AAd?$AA?5?$AAt?$AAe?$AAs?$AAt?$AA?3?$AA?5?$AAF?$AAa?$AAi?$AAl?$AAe?$AAd?$AA?5?$AAt?$AAo?$AA?5?$AAo?$AAp?$AAe?$AAn?$AA?5?$AAN?$AAA?$AAN?$AAD?$AA?5?$AAt@| [ DATA ] ; `string'
	EXPORT	|??_C@_1M@KFDHPDAJ@?$AAD?$AAF?$AAT?$AA1?$AA?3?$AA?$AA@| [ DATA ] ; `string'
	EXPORT	|??_C@_1FO@BKDHMDDE@?$AA?$CI?$AAn?$AAb?$AAR?$AAe?$AAa?$AAd?$AA?5?$AA?$CI?$AA?$CF?$AAd?$AA?$CJ?$AA?0?$AA?5?$AAr?$AAe?$AAa?$AAd?$AA?5?$AAf?$AAr?$AAo?$AAm?$AA?5?$AAb?$AAa?$AAd?$AA?5?$AAd?$AAa?$AAt?$AAa@| [ DATA ] ; `string'
	EXPORT	|??_C@_1IM@GIJDFAFN@?$AA?$CI?$AAn?$AAb?$AAR?$AAe?$AAa?$AAd?$AA?5?$AA?$CI?$AA?$CF?$AAd?$AA?$CJ?$AA?0?$AA?5?$AAr?$AAe?$AAa?$AAd?$AA?5?$AAf?$AAr?$AAo?$AAm?$AA?5?$AAg?$AAo?$AAo?$AAd?$AA?5?$AAd?$AAa?$AAt@| [ DATA ] ; `string'
	EXPORT	|??_C@_1EM@HEHBNKF@?$AA?$CI?$AAc?$AAr?$AAe?$AAa?$AAt?$AAe?$AA?5?$AAf?$AAi?$AAl?$AAe?$AA?5?$AAf?$AAi?$AAl?$AAe?$AAd?$AA?5?$AAf?$AAo?$AAr?$AA?5?$AA?$CF?$AAs?$AA?0?$AA?5?$AAe?$AAr?$AAr?$AAo?$AAr@| [ DATA ] ; `string'
	EXPORT	|??_C@_1HK@MFPHMPDG@?$AA?5?$AAn?$AAa?$AAn?$AAd?$AAt?$AAe?$AAs?$AAt?$AA?3?$AA?5?$AAs?$AAe?$AAc?$AAt?$AAo?$AAr?$AA?$DN?$AA?$CF?$AAd?$AA?5?$AAg?$AAo?$AAo?$AAd?$AA_?$AAf?$AAi?$AAl?$AAe?$AA?$DN?$AA?$CF@| [ DATA ] ; `string'
	EXPORT	|??_C@_1KG@EMLJMDO@?$AAU?$AAs?$AAa?$AAg?$AAe?$AA?3?$AA?5?$AAn?$AAa?$AAn?$AAd?$AAt?$AAe?$AAs?$AAt?$AA?5?$AA?$DM?$AAe?$AAc?$AAc?$AA?5?$AAt?$AAy?$AAp?$AAe?$AA?$DO?$AA?5?$AA?$DM?$AAs?$AAe?$AAc?$AAt@| [ DATA ] ; `string'
	EXPORT	|??_C@_15KNBIKKIN@?$AA?$CF?$AAd?$AA?$AA@| [ DATA ] ; `string'
	EXPORT	|??_C@_1JA@LFMKIAMJ@?$AAU?$AAs?$AAa?$AAg?$AAe?$AA?3?$AA?5?$AAn?$AAa?$AAn?$AAd?$AAt?$AAe?$AAs?$AAt?$AA?5?$AA?$DM?$AAs?$AAe?$AAc?$AAt?$AAo?$AAr?$AA?$DO?$AA?5?$AA?$DM?$AAg?$AAo?$AAo?$AAd?$AA?5?$AAd@| [ DATA ] ; `string'
	EXPORT	|??_C@_1BC@JDHLLIDK@?$AAn?$AAa?$AAn?$AAd?$AAt?$AAe?$AAs?$AAt?$AA?$AA@| [ DATA ] ; `string'
	IMPORT	|WriteFile|
	IMPORT	|DeviceIoControl|
	IMPORT	|CloseHandle|
	IMPORT	|ReadFile|
	IMPORT	|GetLastError|
	IMPORT	|CreateFileW|
	IMPORT	|swscanf|
	IMPORT	|CreateArgvArgc|
	IMPORT	|__GSHandlerCheck|
	IMPORT	|__security_cookie|
	IMPORT	|__security_check_cookie|

  00000			 AREA	 |.pdata|, PDATA
|$T40211| DCD	|$LN22@WinMain|
	DCD	0xc000c803

  00000			 AREA	 |.xdata|, DATA
|$T40207| DCD	0xffffffe8

  00000			 AREA	 |.rdata|, DATA, READONLY
|??_C@_1EA@JHBPEMHJ@?$AAW?$AAR?$AAI?$AAT?$AAE?$AA?5?$AAt?$AAo?$AA?5?$AAo?$AAu?$AAt?$AA?5?$AAd?$AAa?$AAt?$AAa?$AA?5?$AAf?$AAi?$AAl?$AAe?$AA?5?$AAf?$AAa?$AAi?$AAl?$AAe?$AAd?$AA?$AN?$AA?6?$AA?$AA@| DCB "W"
	DCB	0x0, "R", 0x0, "I", 0x0, "T", 0x0, "E", 0x0, " ", 0x0, "t"
	DCB	0x0, "o", 0x0, " ", 0x0, "o", 0x0, "u", 0x0, "t", 0x0, " "
	DCB	0x0, "d", 0x0, "a", 0x0, "t", 0x0, "a", 0x0, " ", 0x0, "f"
	DCB	0x0, "i", 0x0, "l", 0x0, "e", 0x0, " ", 0x0, "f", 0x0, "a"
	DCB	0x0, "i", 0x0, "l", 0x0, "e", 0x0, "d", 0x0, 0xd, 0x0, 0xa
	DCB	0x0, 0x0, 0x0				; `string'

  00000			 AREA	 |.rdata|, DATA, READONLY
|??_C@_1EC@BEFFJHFH@?$AAn?$AAa?$AAn?$AAd?$AA?5?$AAt?$AAe?$AAs?$AAt?$AA?3?$AA?5?$AAe?$AAc?$AAc?$AA?5?$AAc?$AAo?$AAr?$AAr?$AAe?$AAc?$AAt?$AAi?$AAo?$AAn?$AA?5?$AAi?$AAs?$AA?5?$AA?$CF?$AAs?$AA?6@| DCB "n"
	DCB	0x0, "a", 0x0, "n", 0x0, "d", 0x0, " ", 0x0, "t", 0x0, "e"
	DCB	0x0, "s", 0x0, "t", 0x0, ":", 0x0, " ", 0x0, "e", 0x0, "c"
	DCB	0x0, "c", 0x0, " ", 0x0, "c", 0x0, "o", 0x0, "r", 0x0, "r"
	DCB	0x0, "e", 0x0, "c", 0x0, "t", 0x0, "i", 0x0, "o", 0x0, "n"
	DCB	0x0, " ", 0x0, "i", 0x0, "s", 0x0, " ", 0x0, "%", 0x0, "s"
	DCB	0x0, 0xa, 0x0, 0x0, 0x0			; `string'

  00000			 AREA	 |.rdata|, DATA, READONLY
|??_C@_1O@KPGHAGDD@?$AAf?$AAa?$AAi?$AAl?$AAe?$AAd?$AA?$AA@| DCB "f", 0x0, "a"
	DCB	0x0, "i", 0x0, "l", 0x0, "e", 0x0, "d", 0x0, 0x0, 0x0 ; `string'

  00000			 AREA	 |.rdata|, DATA, READONLY
|??_C@_1BG@GELEOFE@?$AAs?$AAu?$AAc?$AAc?$AAe?$AAs?$AAs?$AAf?$AAu?$AAl?$AA?$AA@| DCB "s"
	DCB	0x0, "u", 0x0, "c", 0x0, "c", 0x0, "e", 0x0, "s", 0x0, "s"
	DCB	0x0, "f", 0x0, "u", 0x0, "l", 0x0, 0x0, 0x0 ; `string'

  00000			 AREA	 |.rdata|, DATA, READONLY
|??_C@_1FI@NPPAMJPP@?$AAn?$AAa?$AAn?$AAd?$AA?5?$AAt?$AAe?$AAs?$AAt?$AA?3?$AA?5?$AAF?$AAa?$AAi?$AAl?$AAe?$AAd?$AA?5?$AAt?$AAo?$AA?5?$AAo?$AAp?$AAe?$AAn?$AA?5?$AAN?$AAA?$AAN?$AAD?$AA?5?$AAt@| DCB "n"
	DCB	0x0, "a", 0x0, "n", 0x0, "d", 0x0, " ", 0x0, "t", 0x0, "e"
	DCB	0x0, "s", 0x0, "t", 0x0, ":", 0x0, " ", 0x0, "F", 0x0, "a"
	DCB	0x0, "i", 0x0, "l", 0x0, "e", 0x0, "d", 0x0, " ", 0x0, "t"
	DCB	0x0, "o", 0x0, " ", 0x0, "o", 0x0, "p", 0x0, "e", 0x0, "n"
	DCB	0x0, " ", 0x0, "N", 0x0, "A", 0x0, "N", 0x0, "D", 0x0, " "
	DCB	0x0, "t", 0x0, "e", 0x0, "s", 0x0, "t", 0x0, " ", 0x0, "d"
	DCB	0x0, "r", 0x0, "i", 0x0, "v", 0x0, "e", 0x0, "r", 0x0, 0xa
	DCB	0x0, 0x0, 0x0				; `string'

  00000			 AREA	 |.rdata|, DATA, READONLY
|??_C@_1M@KFDHPDAJ@?$AAD?$AAF?$AAT?$AA1?$AA?3?$AA?$AA@| DCB "D", 0x0, "F", 0x0
	DCB	"T", 0x0, "1", 0x0, ":", 0x0, 0x0, 0x0	; `string'

  00000			 AREA	 |.rdata|, DATA, READONLY
|??_C@_1FO@BKDHMDDE@?$AA?$CI?$AAn?$AAb?$AAR?$AAe?$AAa?$AAd?$AA?5?$AA?$CI?$AA?$CF?$AAd?$AA?$CJ?$AA?0?$AA?5?$AAr?$AAe?$AAa?$AAd?$AA?5?$AAf?$AAr?$AAo?$AAm?$AA?5?$AAb?$AAa?$AAd?$AA?5?$AAd?$AAa?$AAt?$AAa@| DCB "("
	DCB	0x0, "n", 0x0, "b", 0x0, "R", 0x0, "e", 0x0, "a", 0x0, "d"
	DCB	0x0, " ", 0x0, "(", 0x0, "%", 0x0, "d", 0x0, ")", 0x0, ","
	DCB	0x0, " ", 0x0, "r", 0x0, "e", 0x0, "a", 0x0, "d", 0x0, " "
	DCB	0x0, "f", 0x0, "r", 0x0, "o", 0x0, "m", 0x0, " ", 0x0, "b"
	DCB	0x0, "a", 0x0, "d", 0x0, " ", 0x0, "d", 0x0, "a", 0x0, "t"
	DCB	0x0, "a", 0x0, " ", 0x0, "f", 0x0, "i", 0x0, "l", 0x0, "e"
	DCB	0x0, " ", 0x0, "f", 0x0, "a", 0x0, "i", 0x0, "l", 0x0, "e"
	DCB	0x0, "d", 0x0, 0xd, 0x0, 0xa, 0x0, 0x0, 0x0 ; `string'

  00000			 AREA	 |.rdata|, DATA, READONLY
|??_C@_1IM@GIJDFAFN@?$AA?$CI?$AAn?$AAb?$AAR?$AAe?$AAa?$AAd?$AA?5?$AA?$CI?$AA?$CF?$AAd?$AA?$CJ?$AA?0?$AA?5?$AAr?$AAe?$AAa?$AAd?$AA?5?$AAf?$AAr?$AAo?$AAm?$AA?5?$AAg?$AAo?$AAo?$AAd?$AA?5?$AAd?$AAa?$AAt@| DCB "("
	DCB	0x0, "n", 0x0, "b", 0x0, "R", 0x0, "e", 0x0, "a", 0x0, "d"
	DCB	0x0, " ", 0x0, "(", 0x0, "%", 0x0, "d", 0x0, ")", 0x0, ","
	DCB	0x0, " ", 0x0, "r", 0x0, "e", 0x0, "a", 0x0, "d", 0x0, " "
	DCB	0x0, "f", 0x0, "r", 0x0, "o", 0x0, "m", 0x0, " ", 0x0, "g"
	DCB	0x0, "o", 0x0, "o", 0x0, "d", 0x0, " ", 0x0, "d", 0x0, "a"
	DCB	0x0, "t", 0x0, "a", 0x0, " ", 0x0, "f", 0x0, "i", 0x0, "l"
	DCB	0x0, "e", 0x0, "(", 0x0, "%", 0x0, "s", 0x0, ")", 0x0, " "
	DCB	0x0, "h", 0x0, "a", 0x0, "n", 0x0, "d", 0x0, "l", 0x0, "e"
	DCB	0x0, "=", 0x0, "%", 0x0, "p", 0x0, ",", 0x0, " ", 0x0, "f"
	DCB	0x0, "a", 0x0, "i", 0x0, "l", 0x0, "e", 0x0, "d", 0x0, " "
	DCB	0x0, "f", 0x0, "o", 0x0, "r", 0x0, " ", 0x0, "%", 0x0, "d"
	DCB	0x0, 0xd, 0x0, 0xa, 0x0, 0x0, 0x0	; `string'

  00000			 AREA	 |.rdata|, DATA, READONLY
|??_C@_1EM@HEHBNKF@?$AA?$CI?$AAc?$AAr?$AAe?$AAa?$AAt?$AAe?$AA?5?$AAf?$AAi?$AAl?$AAe?$AA?5?$AAf?$AAi?$AAl?$AAe?$AAd?$AA?5?$AAf?$AAo?$AAr?$AA?5?$AA?$CF?$AAs?$AA?0?$AA?5?$AAe?$AAr?$AAr?$AAo?$AAr@| DCB "("
	DCB	0x0, "c", 0x0, "r", 0x0, "e", 0x0, "a", 0x0, "t", 0x0, "e"
	DCB	0x0, " ", 0x0, "f", 0x0, "i", 0x0, "l", 0x0, "e", 0x0, " "
	DCB	0x0, "f", 0x0, "i", 0x0, "l", 0x0, "e", 0x0, "d", 0x0, " "
	DCB	0x0, "f", 0x0, "o", 0x0, "r", 0x0, " ", 0x0, "%", 0x0, "s"
	DCB	0x0, ",", 0x0, " ", 0x0, "e", 0x0, "r", 0x0, "r", 0x0, "o"
	DCB	0x0, "r", 0x0, "=", 0x0, "%", 0x0, "d", 0x0, 0xd, 0x0, 0xa
	DCB	0x0, 0x0, 0x0				; `string'

  00000			 AREA	 |.rdata|, DATA, READONLY
|??_C@_1HK@MFPHMPDG@?$AA?5?$AAn?$AAa?$AAn?$AAd?$AAt?$AAe?$AAs?$AAt?$AA?3?$AA?5?$AAs?$AAe?$AAc?$AAt?$AAo?$AAr?$AA?$DN?$AA?$CF?$AAd?$AA?5?$AAg?$AAo?$AAo?$AAd?$AA_?$AAf?$AAi?$AAl?$AAe?$AA?$DN?$AA?$CF@| DCB " "
	DCB	0x0, "n", 0x0, "a", 0x0, "n", 0x0, "d", 0x0, "t", 0x0, "e"
	DCB	0x0, "s", 0x0, "t", 0x0, ":", 0x0, " ", 0x0, "s", 0x0, "e"
	DCB	0x0, "c", 0x0, "t", 0x0, "o", 0x0, "r", 0x0, "=", 0x0, "%"
	DCB	0x0, "d", 0x0, " ", 0x0, "g", 0x0, "o", 0x0, "o", 0x0, "d"
	DCB	0x0, "_", 0x0, "f", 0x0, "i", 0x0, "l", 0x0, "e", 0x0, "="
	DCB	0x0, "%", 0x0, "s", 0x0, ",", 0x0, " ", 0x0, "b", 0x0, "a"
	DCB	0x0, "d", 0x0, " ", 0x0, "f", 0x0, "i", 0x0, "l", 0x0, "e"
	DCB	0x0, "=", 0x0, "%", 0x0, "s", 0x0, ",", 0x0, " ", 0x0, "o"
	DCB	0x0, "u", 0x0, "t", 0x0, "_", 0x0, "f", 0x0, "i", 0x0, "l"
	DCB	0x0, "e", 0x0, "=", 0x0, "%", 0x0, "s", 0x0, 0xa, 0x0, 0x0
	DCB	0x0					; `string'

  00000			 AREA	 |.rdata|, DATA, READONLY
|??_C@_1KG@EMLJMDO@?$AAU?$AAs?$AAa?$AAg?$AAe?$AA?3?$AA?5?$AAn?$AAa?$AAn?$AAd?$AAt?$AAe?$AAs?$AAt?$AA?5?$AA?$DM?$AAe?$AAc?$AAc?$AA?5?$AAt?$AAy?$AAp?$AAe?$AA?$DO?$AA?5?$AA?$DM?$AAs?$AAe?$AAc?$AAt@| DCB "U"
	DCB	0x0, "s", 0x0, "a", 0x0, "g", 0x0, "e", 0x0, ":", 0x0, " "
	DCB	0x0, "n", 0x0, "a", 0x0, "n", 0x0, "d", 0x0, "t", 0x0, "e"
	DCB	0x0, "s", 0x0, "t", 0x0, " ", 0x0, "<", 0x0, "e", 0x0, "c"
	DCB	0x0, "c", 0x0, " ", 0x0, "t", 0x0, "y", 0x0, "p", 0x0, "e"
	DCB	0x0, ">", 0x0, " ", 0x0, "<", 0x0, "s", 0x0, "e", 0x0, "c"
	DCB	0x0, "t", 0x0, "o", 0x0, "r", 0x0, ">", 0x0, " ", 0x0, "<"
	DCB	0x0, "g", 0x0, "o", 0x0, "o", 0x0, "d", 0x0, " ", 0x0, "d"
	DCB	0x0, "a", 0x0, "t", 0x0, "a", 0x0, " ", 0x0, "f", 0x0, "i"
	DCB	0x0, "l", 0x0, "e", 0x0, ">", 0x0, " ", 0x0, "<", 0x0, "b"
	DCB	0x0, "a", 0x0, "d", 0x0, " ", 0x0, "d", 0x0, "a", 0x0, "t"
	DCB	0x0, "a", 0x0, " ", 0x0, "f", 0x0, "i", 0x0, "l", 0x0, "e"
	DCB	0x0, ">", 0x0, " ", 0x0, "<", 0x0, "o", 0x0, "u", 0x0, "p"
	DCB	0x0, "u", 0x0, "t", 0x0, " ", 0x0, "f", 0x0, "i", 0x0, "l"
	DCB	0x0, "e", 0x0, ">", 0x0, 0xa, 0x0, 0x0, 0x0 ; `string'

  00000			 AREA	 |.rdata|, DATA, READONLY
|??_C@_15KNBIKKIN@?$AA?$CF?$AAd?$AA?$AA@| DCB "%", 0x0, "d", 0x0, 0x0, 0x0 ; `string'

  00000			 AREA	 |.rdata|, DATA, READONLY
|??_C@_1JA@LFMKIAMJ@?$AAU?$AAs?$AAa?$AAg?$AAe?$AA?3?$AA?5?$AAn?$AAa?$AAn?$AAd?$AAt?$AAe?$AAs?$AAt?$AA?5?$AA?$DM?$AAs?$AAe?$AAc?$AAt?$AAo?$AAr?$AA?$DO?$AA?5?$AA?$DM?$AAg?$AAo?$AAo?$AAd?$AA?5?$AAd@| DCB "U"
	DCB	0x0, "s", 0x0, "a", 0x0, "g", 0x0, "e", 0x0, ":", 0x0, " "
	DCB	0x0, "n", 0x0, "a", 0x0, "n", 0x0, "d", 0x0, "t", 0x0, "e"
	DCB	0x0, "s", 0x0, "t", 0x0, " ", 0x0, "<", 0x0, "s", 0x0, "e"
	DCB	0x0, "c", 0x0, "t", 0x0, "o", 0x0, "r", 0x0, ">", 0x0, " "
	DCB	0x0, "<", 0x0, "g", 0x0, "o", 0x0, "o", 0x0, "d", 0x0, " "
	DCB	0x0, "d", 0x0, "a", 0x0, "t", 0x0, "a", 0x0, " ", 0x0, "f"
	DCB	0x0, "i", 0x0, "l", 0x0, "e", 0x0, ">", 0x0, " ", 0x0, "<"
	DCB	0x0, "b", 0x0, "a", 0x0, "d", 0x0, " ", 0x0, "d", 0x0, "a"
	DCB	0x0, "t", 0x0, "a", 0x0, " ", 0x0, "f", 0x0, "i", 0x0, "l"
	DCB	0x0, "e", 0x0, ">", 0x0, " ", 0x0, "<", 0x0, "o", 0x0, "u"
	DCB	0x0, "p", 0x0, "u", 0x0, "t", 0x0, " ", 0x0, "f", 0x0, "i"
	DCB	0x0, "l", 0x0, "e", 0x0, ">", 0x0, 0xa, 0x0, 0x0, 0x0 ; `string'

  00000			 AREA	 |.rdata|, DATA, READONLY
|??_C@_1BC@JDHLLIDK@?$AAn?$AAa?$AAn?$AAd?$AAt?$AAe?$AAs?$AAt?$AA?$AA@| DCB "n"
	DCB	0x0, "a", 0x0, "n", 0x0, "d", 0x0, "t", 0x0, "e", 0x0, "s"
	DCB	0x0, "t", 0x0, 0x0, 0x0			; `string'
; Function compile flags: /Ogspy

  00000			 AREA	 |.text|, CODE, ARM

  00000	00000000	 DCD         |__GSHandlerCheck|
  00004	00000000	 DCD         |$T40207|

  00008		 |WinMain| PROC

; 29   : {

  00008		 |$LN22@WinMain|
  00008	e92d40f0	 stmdb       sp!, {r4 - r7, lr}
  0000c	e59fc310	 ldr         r12, [pc, #0x310]
  00010	e08dd00c	 add         sp, sp, r12
  00014		 |$M40208|
  00014	e59f3304	 ldr         r3, [pc, #0x304]
  00018	e5933000	 ldr         r3, [r3]
  0001c	e28dca01	 add         r12, sp, #1, 20
  00020	e58c3868	 str         r3, [r12, #0x868]

; 30   :     HANDLE hDevice=NULL;
; 31   :     HANDLE hFile;
; 32   :     TCHAR *argv[20];
; 33   :     int argc;
; 34   :     BOOL fSuccess = FALSE;
; 35   :     DWORD sector, nbRead=0;
; 36   :     UCHAR indata[SECTOR_SIZE*2], outdata[SECTOR_SIZE];
; 37   : 
; 38   :     UNREFERENCED_PARAMETER(hInst);
; 39   :     UNREFERENCED_PARAMETER(hPrevInst);
; 40   :     UNREFERENCED_PARAMETER(nCmShow);
; 41   : 
; 42   :     // Parse command line
; 43   :     argc = CreateArgvArgc(TEXT("nandtest" ), argv, lpCmdLine);

  00024	e59f02f0	 ldr         r0, [pc, #0x2F0]
  00028	e3a03000	 mov         r3, #0
  0002c	e28d1018	 add         r1, sp, #0x18
  00030	e58d3010	 str         r3, [sp, #0x10]
  00034	eb000000	 bl          CreateArgvArgc

; 44   :     if (argc < 5 )

  00038	e3500005	 cmp         r0, #5
  0003c	aa000006	 bge         |$LN11@WinMain|

; 45   :     {
; 46   :         RetailPrint(TEXT("Usage: nandtest <sector> <good data file> <bad data file> <ouput file>\n"));

  00040	e59f02d0	 ldr         r0, [pc, #0x2D0]
  00044		 |$LN18@WinMain|
  00044	eb000000	 bl          RetailPrint

; 47   :         return 1;

  00048	e28d0a01	 add         r0, sp, #1, 20
  0004c	e5900868	 ldr         r0, [r0, #0x868]
  00050	eb000000	 bl          __security_check_cookie
  00054	e3a00001	 mov         r0, #1
  00058	ea00009d	 b           |$LN12@WinMain|
  0005c		 |$LN11@WinMain|

; 48   :     }
; 49   : 
; 50   :      /* parse parameters */
; 51   :      if((swscanf(argv[1], TEXT("%d"), &sector)) ==0)

  0005c	e59f12b0	 ldr         r1, [pc, #0x2B0]
  00060	e59d001c	 ldr         r0, [sp, #0x1C]
  00064	e28d2014	 add         r2, sp, #0x14
  00068	eb000000	 bl          swscanf
  0006c	e3500000	 cmp         r0, #0

; 52   :     {
; 53   :         RetailPrint(TEXT("Usage: nandtest <ecc type> <sector> <good data file> <bad data file> <ouput file>\n"));

  00070	059f0298	 ldreq       r0, [pc, #0x298]
  00074	0afffff2	 beq         |$LN18@WinMain|

; 54   :         return 1;
; 55   :     }
; 56   : 
; 57   :     RetailPrint(TEXT(" nandtest: sector=%d good_file=%s, bad file=%s, out_file=%s\n"),
; 58   : 		sector, argv[2], argv[3], argv[4]);

  00078	e59de028	 ldr         lr, [sp, #0x28]
  0007c	e59d3024	 ldr         r3, [sp, #0x24]
  00080	e59d2020	 ldr         r2, [sp, #0x20]
  00084	e59d1014	 ldr         r1, [sp, #0x14]
  00088	e59f027c	 ldr         r0, [pc, #0x27C]
  0008c	e58de000	 str         lr, [sp]
  00090	eb000000	 bl          RetailPrint

; 59   : 
; 60   :     hFile = CreateFile(argv[2],GENERIC_READ|GENERIC_WRITE,0,NULL,OPEN_EXISTING,FILE_ATTRIBUTE_NORMAL,NULL);

  00094	e59d0020	 ldr         r0, [sp, #0x20]
  00098	e3a06000	 mov         r6, #0
  0009c	e3a07080	 mov         r7, #0x80
  000a0	e3a05003	 mov         r5, #3
  000a4	e3a03000	 mov         r3, #0
  000a8	e3a02000	 mov         r2, #0
  000ac	e3a01103	 mov         r1, #3, 2
  000b0	e58d6008	 str         r6, [sp, #8]
  000b4	e58d7004	 str         r7, [sp, #4]
  000b8	e58d5000	 str         r5, [sp]
  000bc	eb000000	 bl          CreateFileW
  000c0	e1a04000	 mov         r4, r0

; 61   :     if(hFile == (HANDLE)0xffffffff)

  000c4	e3740001	 cmn         r4, #1
  000c8	1a000005	 bne         |$LN9@WinMain|

; 62   :     {
; 63   :         RetailPrint(TEXT("(create file filed for %s, error=%d\r\n"),argv[2], GetLastError());

  000cc	eb000000	 bl          GetLastError
  000d0	e59d1020	 ldr         r1, [sp, #0x20]
  000d4		 |$LN19@WinMain|
  000d4	e1a02000	 mov         r2, r0
  000d8	e59f0228	 ldr         r0, [pc, #0x228]
  000dc	eb000000	 bl          RetailPrint

; 64   :         goto cleanUp;

  000e0	ea000077	 b           |$LN1@WinMain|
  000e4		 |$LN9@WinMain|

; 65   :     }
; 66   : 		
; 67   :     if (!ReadFile(hFile,&indata[0],SECTOR_SIZE,&nbRead,NULL))

  000e4	e28d3010	 add         r3, sp, #0x10
  000e8	e3a02b02	 mov         r2, #2, 22
  000ec	e3821068	 orr         r1, r2, #0x68
  000f0	e08d1001	 add         r1, sp, r1
  000f4	e1a00004	 mov         r0, r4
  000f8	e58d6000	 str         r6, [sp]
  000fc	eb000000	 bl          ReadFile
  00100	e3500000	 cmp         r0, #0
  00104	1a000008	 bne         |$LN8@WinMain|

; 68   :     {
; 69   :         RetailPrint(TEXT("(nbRead (%d), read from good data file(%s) handle=%p, failed for %d\r\n"),nbRead, argv[2], hFile, GetLastError());

  00108	eb000000	 bl          GetLastError
  0010c	e59d2020	 ldr         r2, [sp, #0x20]
  00110	e59d1010	 ldr         r1, [sp, #0x10]
  00114	e1a0e000	 mov         lr, r0
  00118	e59f01e4	 ldr         r0, [pc, #0x1E4]
  0011c	e1a03004	 mov         r3, r4
  00120	e58de000	 str         lr, [sp]
  00124	eb000000	 bl          RetailPrint

; 70   :         CloseHandle(hFile);
; 71   : 	 goto cleanUp;

  00128	ea000063	 b           |$LN16@WinMain|
  0012c		 |$LN8@WinMain|

; 72   :     }
; 73   :     CloseHandle(hFile);

  0012c	e1a00004	 mov         r0, r4
  00130	eb000000	 bl          CloseHandle

; 74   : 
; 75   :     nbRead = 0;
; 76   :     hFile = CreateFile(argv[3],GENERIC_READ|GENERIC_WRITE,0,NULL,OPEN_EXISTING,FILE_ATTRIBUTE_NORMAL,NULL);

  00134	e59d0024	 ldr         r0, [sp, #0x24]
  00138	e3a0e000	 mov         lr, #0
  0013c	e3a03000	 mov         r3, #0
  00140	e3a02000	 mov         r2, #0
  00144	e3a01103	 mov         r1, #3, 2
  00148	e58de010	 str         lr, [sp, #0x10]
  0014c	e58d6008	 str         r6, [sp, #8]
  00150	e58d7004	 str         r7, [sp, #4]
  00154	e58d5000	 str         r5, [sp]
  00158	eb000000	 bl          CreateFileW
  0015c	e1a04000	 mov         r4, r0

; 77   :     if(hFile == (HANDLE)0xffffffff)

  00160	e3740001	 cmn         r4, #1
  00164	1a000002	 bne         |$LN7@WinMain|

; 78   :     {
; 79   :         RetailPrint(TEXT("(create file filed for %s, error=%d\r\n"),argv[3], GetLastError());

  00168	eb000000	 bl          GetLastError
  0016c	e59d1024	 ldr         r1, [sp, #0x24]

; 80   : 	 goto cleanUp;

  00170	eaffffd7	 b           |$LN19@WinMain|
  00174		 |$LN7@WinMain|

; 81   :     }
; 82   :     if (!ReadFile(hFile,&indata[SECTOR_SIZE],SECTOR_SIZE,&nbRead,NULL))

  00174	e28d3010	 add         r3, sp, #0x10
  00178	e3a02b02	 mov         r2, #2, 22
  0017c	e3a01a01	 mov         r1, #1, 20
  00180	e3811068	 orr         r1, r1, #0x68
  00184	e08d1001	 add         r1, sp, r1
  00188	e1a00004	 mov         r0, r4
  0018c	e58d6000	 str         r6, [sp]
  00190	eb000000	 bl          ReadFile
  00194	e3500000	 cmp         r0, #0
  00198	1a000003	 bne         |$LN6@WinMain|

; 83   :     {
; 84   :         RetailPrint(TEXT("(nbRead (%d), read from bad data file failed\r\n"),nbRead);

  0019c	e59d1010	 ldr         r1, [sp, #0x10]
  001a0	e59f0158	 ldr         r0, [pc, #0x158]
  001a4	eb000000	 bl          RetailPrint

; 85   :         CloseHandle(hFile);
; 86   : 	 goto cleanUp;

  001a8	ea000043	 b           |$LN16@WinMain|
  001ac		 |$LN6@WinMain|

; 87   :     }  
; 88   :     CloseHandle(hFile);

  001ac	e1a00004	 mov         r0, r4
  001b0	eb000000	 bl          CloseHandle

; 89   : 
; 90   :     hDevice = CreateFile(L"DFT1:", GENERIC_WRITE | GENERIC_READ, FILE_SHARE_READ | FILE_SHARE_WRITE, 
; 91   : 		NULL, OPEN_EXISTING, FILE_ATTRIBUTE_NORMAL, NULL);

  001b4	e59f0140	 ldr         r0, [pc, #0x140]
  001b8	e3a03000	 mov         r3, #0
  001bc	e3a02003	 mov         r2, #3
  001c0	e3a01103	 mov         r1, #3, 2
  001c4	e58d6008	 str         r6, [sp, #8]
  001c8	e58d7004	 str         r7, [sp, #4]
  001cc	e58d5000	 str         r5, [sp]
  001d0	eb000000	 bl          CreateFileW
  001d4	e1a04000	 mov         r4, r0

; 92   :     if (hDevice == INVALID_HANDLE_VALUE)

  001d8	e3740001	 cmn         r4, #1

; 93   :     {
; 94   :         RetailPrint(TEXT("nand test: Failed to open NAND test driver\n"));

  001dc	059f0114	 ldreq       r0, [pc, #0x114]
  001e0	0affff97	 beq         |$LN18@WinMain|

; 95   :         return 1;
; 96   :     }
; 97   : 	
; 98   :     fSuccess = DeviceIoControl(hDevice, NAND_SET_SECTOR, (VOID *)&sector, sizeof(DWORD), NULL, 0, NULL, NULL);

  001e4	e3a03004	 mov         r3, #4
  001e8	e28d2014	 add         r2, sp, #0x14
  001ec	e3a01001	 mov         r1, #1
  001f0	e1a00004	 mov         r0, r4
  001f4	e58d600c	 str         r6, [sp, #0xC]
  001f8	e58d6008	 str         r6, [sp, #8]
  001fc	e58d6004	 str         r6, [sp, #4]
  00200	e58d6000	 str         r6, [sp]
  00204	eb000000	 bl          DeviceIoControl
  00208	e1b05000	 movs        r5, r0

; 99   : 
; 100  :     if(fSuccess)

  0020c	0a00000c	 beq         |$LN4@WinMain|

; 101  :     	fSuccess = DeviceIoControl(hDevice, NAND_ECC_CORRECTION, (VOID *)&indata, SECTOR_SIZE*2, (VOID *)outdata, SECTOR_SIZE, NULL, NULL);

  00210	e3a02b02	 mov         r2, #2, 22
  00214	e28d3068	 add         r3, sp, #0x68
  00218	e58d2004	 str         r2, [sp, #4]
  0021c	e58d3000	 str         r3, [sp]
  00220	e3a03a01	 mov         r3, #1, 20
  00224	e3822068	 orr         r2, r2, #0x68
  00228	e08d2002	 add         r2, sp, r2
  0022c	e3a01002	 mov         r1, #2
  00230	e1a00004	 mov         r0, r4
  00234	e58d600c	 str         r6, [sp, #0xC]
  00238	e58d6008	 str         r6, [sp, #8]
  0023c	eb000000	 bl          DeviceIoControl
  00240	e1a05000	 mov         r5, r0
  00244		 |$LN4@WinMain|

; 102  :     RetailPrint(TEXT("nand test: ecc correction is %s\n"),  (fSuccess==TRUE) ? L"successful" : L"failed");

  00244	e3550001	 cmp         r5, #1
  00248	059f10a4	 ldreq       r1, [pc, #0xA4]
  0024c	159f109c	 ldrne       r1, [pc, #0x9C]
  00250	e59f0094	 ldr         r0, [pc, #0x94]
  00254	eb000000	 bl          RetailPrint

; 103  : 
; 104  :     if(fSuccess)

  00258	e3550000	 cmp         r5, #0
  0025c	0a000014	 beq         |$cleanUp$40114|

; 105  :     {
; 106  :         hFile = CreateFile(argv[4],GENERIC_WRITE,0,NULL,CREATE_ALWAYS,FILE_ATTRIBUTE_NORMAL,NULL);

  00260	e59d0028	 ldr         r0, [sp, #0x28]
  00264	e3a0e002	 mov         lr, #2
  00268	e3a03000	 mov         r3, #0
  0026c	e3a02000	 mov         r2, #0
  00270	e3a01101	 mov         r1, #1, 2
  00274	e58d6008	 str         r6, [sp, #8]
  00278	e58d7004	 str         r7, [sp, #4]
  0027c	e58de000	 str         lr, [sp]
  00280	eb000000	 bl          CreateFileW

; 107  :         if (!WriteFile(hFile,outdata,sizeof(outdata),&nbRead,NULL))

  00284	e28d3010	 add         r3, sp, #0x10
  00288	e3a02b02	 mov         r2, #2, 22
  0028c	e28d1068	 add         r1, sp, #0x68
  00290	e1a05000	 mov         r5, r0
  00294	e58d6000	 str         r6, [sp]
  00298	eb000000	 bl          WriteFile
  0029c	e3500000	 cmp         r0, #0

; 108  :         {
; 109  :             RetailPrint(TEXT("WRITE to out data file failed\r\n"),nbRead);

  002a0	059d1010	 ldreq       r1, [sp, #0x10]
  002a4	059f003c	 ldreq       r0, [pc, #0x3C]
  002a8	0b000000	 bleq        RetailPrint

; 110  :         }  
; 111  :         CloseHandle(hFile);

  002ac	e1a00005	 mov         r0, r5
  002b0	eb000000	 bl          CloseHandle
  002b4		 |$cleanUp$40114|

; 112  :     }		
; 113  : 	
; 114  : cleanUp:
; 115  :     if(hDevice) CloseHandle(hDevice);

  002b4	e3540000	 cmp         r4, #0
  002b8	0a000001	 beq         |$LN1@WinMain|
  002bc		 |$LN16@WinMain|
  002bc	e1a00004	 mov         r0, r4
  002c0	eb000000	 bl          CloseHandle
  002c4		 |$LN1@WinMain|

; 116  : 
; 117  :     return 0;

  002c4	e28d0a01	 add         r0, sp, #1, 20
  002c8	e5900868	 ldr         r0, [r0, #0x868]
  002cc	eb000000	 bl          __security_check_cookie
  002d0	e3a00000	 mov         r0, #0
  002d4		 |$LN12@WinMain|

; 118  : }

  002d4	e3a0cb06	 mov         r12, #6, 22
  002d8	e38cc06c	 orr         r12, r12, #0x6C
  002dc	e08dd00c	 add         sp, sp, r12
  002e0	e8bd40f0	 ldmia       sp!, {r4 - r7, lr}
  002e4	e12fff1e	 bx          lr
  002e8		 |$LN23@WinMain|
  002e8		 |$LN24@WinMain|
  002e8	00000000	 DCD         |??_C@_1EA@JHBPEMHJ@?$AAW?$AAR?$AAI?$AAT?$AAE?$AA?5?$AAt?$AAo?$AA?5?$AAo?$AAu?$AAt?$AA?5?$AAd?$AAa?$AAt?$AAa?$AA?5?$AAf?$AAi?$AAl?$AAe?$AA?5?$AAf?$AAa?$AAi?$AAl?$AAe?$AAd?$AA?$AN?$AA?6?$AA?$AA@|
  002ec		 |$LN25@WinMain|
  002ec	00000000	 DCD         |??_C@_1EC@BEFFJHFH@?$AAn?$AAa?$AAn?$AAd?$AA?5?$AAt?$AAe?$AAs?$AAt?$AA?3?$AA?5?$AAe?$AAc?$AAc?$AA?5?$AAc?$AAo?$AAr?$AAr?$AAe?$AAc?$AAt?$AAi?$AAo?$AAn?$AA?5?$AAi?$AAs?$AA?5?$AA?$CF?$AAs?$AA?6@|
  002f0		 |$LN26@WinMain|
  002f0	00000000	 DCD         |??_C@_1O@KPGHAGDD@?$AAf?$AAa?$AAi?$AAl?$AAe?$AAd?$AA?$AA@|
  002f4		 |$LN27@WinMain|
  002f4	00000000	 DCD         |??_C@_1BG@GELEOFE@?$AAs?$AAu?$AAc?$AAc?$AAe?$AAs?$AAs?$AAf?$AAu?$AAl?$AA?$AA@|
  002f8		 |$LN28@WinMain|
  002f8	00000000	 DCD         |??_C@_1FI@NPPAMJPP@?$AAn?$AAa?$AAn?$AAd?$AA?5?$AAt?$AAe?$AAs?$AAt?$AA?3?$AA?5?$AAF?$AAa?$AAi?$AAl?$AAe?$AAd?$AA?5?$AAt?$AAo?$AA?5?$AAo?$AAp?$AAe?$AAn?$AA?5?$AAN?$AAA?$AAN?$AAD?$AA?5?$AAt@|
  002fc		 |$LN29@WinMain|
  002fc	00000000	 DCD         |??_C@_1M@KFDHPDAJ@?$AAD?$AAF?$AAT?$AA1?$AA?3?$AA?$AA@|
  00300		 |$LN30@WinMain|
  00300	00000000	 DCD         |??_C@_1FO@BKDHMDDE@?$AA?$CI?$AAn?$AAb?$AAR?$AAe?$AAa?$AAd?$AA?5?$AA?$CI?$AA?$CF?$AAd?$AA?$CJ?$AA?0?$AA?5?$AAr?$AAe?$AAa?$AAd?$AA?5?$AAf?$AAr?$AAo?$AAm?$AA?5?$AAb?$AAa?$AAd?$AA?5?$AAd?$AAa?$AAt?$AAa@|
  00304		 |$LN31@WinMain|
  00304	00000000	 DCD         |??_C@_1IM@GIJDFAFN@?$AA?$CI?$AAn?$AAb?$AAR?$AAe?$AAa?$AAd?$AA?5?$AA?$CI?$AA?$CF?$AAd?$AA?$CJ?$AA?0?$AA?5?$AAr?$AAe?$AAa?$AAd?$AA?5?$AAf?$AAr?$AAo?$AAm?$AA?5?$AAg?$AAo?$AAo?$AAd?$AA?5?$AAd?$AAa?$AAt@|
  00308		 |$LN32@WinMain|
  00308	00000000	 DCD         |??_C@_1EM@HEHBNKF@?$AA?$CI?$AAc?$AAr?$AAe?$AAa?$AAt?$AAe?$AA?5?$AAf?$AAi?$AAl?$AAe?$AA?5?$AAf?$AAi?$AAl?$AAe?$AAd?$AA?5?$AAf?$AAo?$AAr?$AA?5?$AA?$CF?$AAs?$AA?0?$AA?5?$AAe?$AAr?$AAr?$AAo?$AAr@|
  0030c		 |$LN33@WinMain|
  0030c	00000000	 DCD         |??_C@_1HK@MFPHMPDG@?$AA?5?$AAn?$AAa?$AAn?$AAd?$AAt?$AAe?$AAs?$AAt?$AA?3?$AA?5?$AAs?$AAe?$AAc?$AAt?$AAo?$AAr?$AA?$DN?$AA?$CF?$AAd?$AA?5?$AAg?$AAo?$AAo?$AAd?$AA_?$AAf?$AAi?$AAl?$AAe?$AA?$DN?$AA?$CF@|
  00310		 |$LN34@WinMain|
  00310	00000000	 DCD         |??_C@_1KG@EMLJMDO@?$AAU?$AAs?$AAa?$AAg?$AAe?$AA?3?$AA?5?$AAn?$AAa?$AAn?$AAd?$AAt?$AAe?$AAs?$AAt?$AA?5?$AA?$DM?$AAe?$AAc?$AAc?$AA?5?$AAt?$AAy?$AAp?$AAe?$AA?$DO?$AA?5?$AA?$DM?$AAs?$AAe?$AAc?$AAt@|
  00314		 |$LN35@WinMain|
  00314	00000000	 DCD         |??_C@_15KNBIKKIN@?$AA?$CF?$AAd?$AA?$AA@|
  00318		 |$LN36@WinMain|
  00318	00000000	 DCD         |??_C@_1JA@LFMKIAMJ@?$AAU?$AAs?$AAa?$AAg?$AAe?$AA?3?$AA?5?$AAn?$AAa?$AAn?$AAd?$AAt?$AAe?$AAs?$AAt?$AA?5?$AA?$DM?$AAs?$AAe?$AAc?$AAt?$AAo?$AAr?$AA?$DO?$AA?5?$AA?$DM?$AAg?$AAo?$AAo?$AAd?$AA?5?$AAd@|
  0031c		 |$LN37@WinMain|
  0031c	00000000	 DCD         |??_C@_1BC@JDHLLIDK@?$AAn?$AAa?$AAn?$AAd?$AAt?$AAe?$AAs?$AAt?$AA?$AA@|
  00320		 |$LN38@WinMain|
  00320	00000000	 DCD         |__security_cookie|
  00324		 |$LN39@WinMain|
  00324	ffffe794	 DCD         0xffffe794
  00328		 |$M40209|

			 ENDP  ; |WinMain|

	END
