; Listing generated by Microsoft (R) Optimizing Compiler Version 14.01.60511.01 

	TTL	C:\WINCE600\PLATFORM\COMMON\SRC\SOC\COMMON_TI_V1\COMMON_TI\DSS\ENTRY\entry.cpp
	CODE32

  00000			 AREA	 |.drectve|, DRECTVE
	DCB	"-defaultlib:LIBCMT "
	DCB	"-defaultlib:OLDNAMES "


  00000			 AREA	 |.rdata|, DATA, READONLY
|FourCCDescriptionTable| DCD 0x32595559
	DCD	0x10
	DCD	0xff00ff
	DCD	0xff00
	DCD	0xff000000
	DCD	0x56595559
	DCD	0x10
	DCD	0xff00ff
	DCD	0xff00
	DCD	0xff000000
	DCD	0x55595659
	DCD	0x10
	DCD	0xff00ff00
	DCD	0xff
	DCD	0xff0000
	DCD	0x59565955
	DCD	0x10
	DCD	0xff00ff00
	DCD	0xff
	DCD	0xff0000
	DCD	0x36315659
	DCD	0x10
	DCD	0xffffffff
	DCD	0xffffffff
	DCD	0xffffffff
	DCD	0x32315659
	DCD	0xc
	DCD	0xffffffff
	DCD	0xffffffff
	DCD	0xffffffff
	DCD	0x3231564e
	DCD	0xc
	DCD	0xffffffff
	DCD	0xffffffff
	DCD	0xffffffff
	DCD	0x30323449
	DCD	0xc
	DCD	0xffffffff
	DCD	0xffffffff
	DCD	0xffffffff
	DCD	0x56555949
	DCD	0xc
	DCD	0xffffffff
	DCD	0xffffffff
	DCD	0xffffffff
	EXPORT	|GetGPE|
	IMPORT	|??0OMAPDDGPE@@QAA@XZ|			; OMAPDDGPE::OMAPDDGPE
	IMPORT	|??2@YAPAXI@Z|				; operator new
	IMPORT	|?g_pGPE@@3PAVDDGPE@@A|			; g_pGPE

  00000			 AREA	 |.pdata|, PDATA
|$T42057| DCD	|$LN8@GetGPE|
	DCD	0x40002102
; Function compile flags: /Odtp
; File c:\wince600\platform\common\src\soc\common_ti_v1\common_ti\dss\entry\entry.cpp

  00000			 AREA	 |.text|, CODE, ARM

  00000		 |GetGPE| PROC

; 28   : {

  00000		 |$LN8@GetGPE|
  00000	e52de004	 str         lr, [sp, #-4]!
  00004	e24dd014	 sub         sp, sp, #0x14
  00008		 |$M42054|

; 29   :     if (!g_pGPE)

  00008	e59f3070	 ldr         r3, [pc, #0x70]
  0000c	e5933000	 ldr         r3, [r3]
  00010	e3530000	 cmp         r3, #0
  00014	1a000012	 bne         |$LN1@GetGPE|

; 30   :     {
; 31   :         g_pGPE = new OMAPDDGPE();

  00018	e3a00f61	 mov         r0, #0x61, 30
  0001c	eb000000	 bl          |??2@YAPAXI@Z|
  00020	e58d0008	 str         r0, [sp, #8]
  00024	e59d3008	 ldr         r3, [sp, #8]
  00028	e58d3000	 str         r3, [sp]
  0002c	e59d3000	 ldr         r3, [sp]
  00030	e3530000	 cmp         r3, #0
  00034	0a000005	 beq         |$LN4@GetGPE|
  00038	e59d0000	 ldr         r0, [sp]
  0003c	eb000000	 bl          |??0OMAPDDGPE@@QAA@XZ|
  00040	e58d000c	 str         r0, [sp, #0xC]
  00044	e59d300c	 ldr         r3, [sp, #0xC]
  00048	e58d3010	 str         r3, [sp, #0x10]
  0004c	ea000001	 b           |$LN5@GetGPE|
  00050		 |$LN4@GetGPE|
  00050	e3a03000	 mov         r3, #0
  00054	e58d3010	 str         r3, [sp, #0x10]
  00058		 |$LN5@GetGPE|
  00058	e59d2010	 ldr         r2, [sp, #0x10]
  0005c	e59f301c	 ldr         r3, [pc, #0x1C]
  00060	e5832000	 str         r2, [r3]
  00064		 |$LN1@GetGPE|

; 32   :     }
; 33   : 
; 34   :     return g_pGPE;

  00064	e59f3014	 ldr         r3, [pc, #0x14]
  00068	e5933000	 ldr         r3, [r3]
  0006c	e58d3004	 str         r3, [sp, #4]

; 35   : }

  00070	e59d0004	 ldr         r0, [sp, #4]
  00074	e28dd014	 add         sp, sp, #0x14
  00078	e49de004	 ldr         lr, [sp], #4
  0007c	e12fff1e	 bx          lr
  00080		 |$LN9@GetGPE|
  00080		 |$LN10@GetGPE|
  00080	00000000	 DCD         |?g_pGPE@@3PAVDDGPE@@A|
  00084		 |$M42055|

			 ENDP  ; |GetGPE|

	END
