; Listing generated by Microsoft (R) Optimizing Compiler Version 14.01.60511.01 

	TTL	C:\WINCE600\PLATFORM\COMMON\SRC\SOC\COMMON_TI_V1\AM3517\USB\USBH\cohcd.cpp
	CODE32

  00000			 AREA	 |.drectve|, DRECTVE
	DCB	"-defaultlib:LIBCMT "
	DCB	"-defaultlib:OLDNAMES "

	EXPORT	|??_C@_1DK@JPBDFEOB@?$AAD?$AAE?$AAV?$AAI?$AAC?$AAE?$AA_?$AAC?$AAO?$AAN?$AAF?$AAI?$AAG?$AA_?$AAS?$AAT?$AAA?$AAT?$AAU?$AAS?$AA_?$AAI?$AAN?$AAV?$AAA?$AAL?$AAI?$AAD?$AA?$AA@| [ DATA ] ; `string'
	EXPORT	|??_C@_1DE@IMCKALLA@?$AAD?$AAE?$AAV?$AAI?$AAC?$AAE?$AA_?$AAC?$AAO?$AAN?$AAF?$AAI?$AAG?$AA_?$AAS?$AAT?$AAA?$AAT?$AAU?$AAS?$AA_?$AAD?$AAO?$AAN?$AAE?$AA?$AA@| [ DATA ] ; `string'
	EXPORT	|??_C@_1DI@CEGNOBAM@?$AAD?$AAE?$AAV?$AAI?$AAC?$AAE?$AA_?$AAC?$AAO?$AAN?$AAF?$AAI?$AAG?$AA_?$AAS?$AAT?$AAA?$AAT?$AAU?$AAS?$AA_?$AAF?$AAA?$AAI?$AAL?$AAE?$AAD?$AA?$AA@| [ DATA ] ; `string'
	EXPORT	|??_C@_1HO@PGHDEMEK@?$AAD?$AAE?$AAV?$AAI?$AAC?$AAE?$AA_?$AAC?$AAO?$AAN?$AAF?$AAI?$AAG?$AA_?$AAS?$AAT?$AAA?$AAT?$AAU?$AAS?$AA_?$AAS?$AAI?$AAG?$AAN?$AAA?$AAL?$AA_?$AAN?$AAE?$AAW?$AA_@| [ DATA ] ; `string'
	EXPORT	|??_C@_1II@FBBOBKGN@?$AAD?$AAE?$AAV?$AAI?$AAC?$AAE?$AA_?$AAC?$AAO?$AAN?$AAF?$AAI?$AAG?$AA_?$AAS?$AAT?$AAA?$AAT?$AAU?$AAS?$AA_?$AAI?$AAN?$AAS?$AAE?$AAR?$AAT?$AA_?$AAN?$AAE?$AAW?$AA_@| [ DATA ] ; `string'
	EXPORT	|??_C@_1FC@LCLFDJDO@?$AAD?$AAE?$AAV?$AAI?$AAC?$AAE?$AA_?$AAC?$AAO?$AAN?$AAF?$AAI?$AAG?$AA_?$AAS?$AAT?$AAA?$AAT?$AAU?$AAS?$AA_?$AAC?$AAR?$AAE?$AAA?$AAT?$AAE?$AA_?$AAN?$AAE?$AAW?$AA_@| [ DATA ] ; `string'
	EXPORT	|??_C@_1EI@COKEBMOE@?$AAD?$AAE?$AAV?$AAI?$AAC?$AAE?$AA_?$AAC?$AAO?$AAN?$AAF?$AAI?$AAG?$AA_?$AAS?$AAT?$AAA?$AAT?$AAU?$AAS?$AA_?$AAC?$AAR?$AAE?$AAA?$AAT?$AAE?$AA_?$AAN?$AAE?$AAW?$AA_@| [ DATA ] ; `string'
	EXPORT	|??_C@_1GG@HPGGGHKI@?$AAD?$AAE?$AAV?$AAI?$AAC?$AAE?$AA_?$AAC?$AAO?$AAN?$AAF?$AAI?$AAG?$AA_?$AAS?$AAT?$AAA?$AAT?$AAU?$AAS?$AA_?$AAS?$AAC?$AAH?$AAE?$AAD?$AAU?$AAL?$AAI?$AAN?$AAG?$AA_@| [ DATA ] ; `string'
	EXPORT	|??_C@_1HG@KPBCOGEF@?$AAD?$AAE?$AAV?$AAI?$AAC?$AAE?$AA_?$AAC?$AAO?$AAN?$AAF?$AAI?$AAG?$AA_?$AAS?$AAT?$AAA?$AAT?$AAU?$AAS?$AA_?$AAS?$AAC?$AAH?$AAE?$AAD?$AAU?$AAL?$AAI?$AAN?$AAG?$AA_@| [ DATA ] ; `string'
	EXPORT	|??_C@_1FG@CFFAAPDL@?$AAD?$AAE?$AAV?$AAI?$AAC?$AAE?$AA_?$AAC?$AAO?$AAN?$AAF?$AAI?$AAG?$AA_?$AAS?$AAT?$AAA?$AAT?$AAU?$AAS?$AA_?$AAS?$AAC?$AAH?$AAE?$AAD?$AAU?$AAL?$AAI?$AAN?$AAG?$AA_@| [ DATA ] ; `string'
	EXPORT	|??_C@_1GA@NDHJOKMM@?$AAD?$AAE?$AAV?$AAI?$AAC?$AAE?$AA_?$AAC?$AAO?$AAN?$AAF?$AAI?$AAG?$AA_?$AAS?$AAT?$AAA?$AAT?$AAU?$AAS?$AA_?$AAD?$AAE?$AAT?$AAE?$AAR?$AAM?$AAI?$AAN?$AAE?$AA_?$AAC@| [ DATA ] ; `string'
	EXPORT	|??_C@_1GM@JADKDKDC@?$AAD?$AAE?$AAV?$AAI?$AAC?$AAE?$AA_?$AAC?$AAO?$AAN?$AAF?$AAI?$AAG?$AA_?$AAS?$AAT?$AAA?$AAT?$AAU?$AAS?$AA_?$AAS?$AAC?$AAH?$AAE?$AAD?$AAU?$AAL?$AAI?$AAN?$AAG?$AA_@| [ DATA ] ; `string'
	EXPORT	|??_C@_1HM@NPLCKJLH@?$AAD?$AAE?$AAV?$AAI?$AAC?$AAE?$AA_?$AAC?$AAO?$AAN?$AAF?$AAI?$AAG?$AA_?$AAS?$AAT?$AAA?$AAT?$AAU?$AAS?$AA_?$AAS?$AAC?$AAH?$AAE?$AAD?$AAU?$AAL?$AAI?$AAN?$AAG?$AA_@| [ DATA ] ; `string'
	EXPORT	|??_C@_1HE@MEMGEMJJ@?$AAD?$AAE?$AAV?$AAI?$AAC?$AAE?$AA_?$AAC?$AAO?$AAN?$AAF?$AAI?$AAG?$AA_?$AAS?$AAT?$AAA?$AAT?$AAU?$AAS?$AA_?$AAS?$AAE?$AAT?$AAU?$AAP?$AA_?$AAC?$AAO?$AAN?$AAF?$AAI@| [ DATA ] ; `string'
	EXPORT	|??_C@_1GM@BCHKIAPP@?$AAD?$AAE?$AAV?$AAI?$AAC?$AAE?$AA_?$AAC?$AAO?$AAN?$AAF?$AAI?$AAG?$AA_?$AAS?$AAT?$AAA?$AAT?$AAU?$AAS?$AA_?$AAS?$AAC?$AAH?$AAE?$AAD?$AAU?$AAL?$AAI?$AAN?$AAG?$AA_@| [ DATA ] ; `string'
	EXPORT	|??_C@_1HM@FNPCBDHK@?$AAD?$AAE?$AAV?$AAI?$AAC?$AAE?$AA_?$AAC?$AAO?$AAN?$AAF?$AAI?$AAG?$AA_?$AAS?$AAT?$AAA?$AAT?$AAU?$AAS?$AA_?$AAS?$AAC?$AAH?$AAE?$AAD?$AAU?$AAL?$AAI?$AAN?$AAG?$AA_@| [ DATA ] ; `string'
	EXPORT	|??_C@_1EI@BBOOKHNN@?$AAD?$AAE?$AAV?$AAI?$AAC?$AAE?$AA_?$AAC?$AAO?$AAN?$AAF?$AAI?$AAG?$AA_?$AAS?$AAT?$AAA?$AAT?$AAU?$AAS?$AA_?$AAL?$AAE?$AAA?$AAV?$AAE?$AA_?$AAA?$AAD?$AAD?$AAR?$AAE@| [ DATA ] ; `string'
	EXPORT	|??_C@_1FI@LGLHPFAK@?$AAD?$AAE?$AAV?$AAI?$AAC?$AAE?$AA_?$AAC?$AAO?$AAN?$AAF?$AAI?$AAG?$AA_?$AAS?$AAT?$AAA?$AAT?$AAU?$AAS?$AA_?$AAS?$AAC?$AAH?$AAE?$AAD?$AAU?$AAL?$AAI?$AAN?$AAG?$AA_@| [ DATA ] ; `string'
	EXPORT	|??_C@_1HG@BLNLBKIO@?$AAD?$AAE?$AAV?$AAI?$AAC?$AAE?$AA_?$AAC?$AAO?$AAN?$AAF?$AAI?$AAG?$AA_?$AAS?$AAT?$AAA?$AAT?$AAU?$AAS?$AA_?$AAS?$AAC?$AAH?$AAE?$AAD?$AAU?$AAL?$AAI?$AAN?$AAG?$AA_@| [ DATA ] ; `string'
	EXPORT	|??_C@_1FG@NMCKCJLL@?$AAD?$AAE?$AAV?$AAI?$AAC?$AAE?$AA_?$AAC?$AAO?$AAN?$AAF?$AAI?$AAG?$AA_?$AAS?$AAT?$AAA?$AAT?$AAU?$AAS?$AA_?$AAR?$AAE?$AAS?$AAE?$AAT?$AA_?$AAA?$AAN?$AAD?$AA_?$AAE@| [ DATA ] ; `string'
	EXPORT	|??_C@_1EI@KNOIBOPH@?$AAD?$AAE?$AAV?$AAI?$AAC?$AAE?$AA_?$AAC?$AAO?$AAN?$AAF?$AAI?$AAG?$AA_?$AAS?$AAT?$AAA?$AAT?$AAU?$AAS?$AA_?$AAU?$AAS?$AAI?$AAN?$AAG?$AA_?$AAA?$AAD?$AAD?$AAR?$AAE@| [ DATA ] ; `string'
	EXPORT	|??_C@_1FI@COMJHLEF@?$AAD?$AAE?$AAV?$AAI?$AAC?$AAE?$AA_?$AAC?$AAO?$AAN?$AAF?$AAI?$AAG?$AA_?$AAS?$AAT?$AAA?$AAT?$AAU?$AAS?$AA_?$AAO?$AAP?$AAE?$AAN?$AAI?$AAN?$AAG?$AA_?$AAE?$AAN?$AAD@| [ DATA ] ; `string'

  00000			 AREA	 |.data|, DATA
|cszCfgStateStrings| DCD |??_C@_1FI@COMJHLEF@?$AAD?$AAE?$AAV?$AAI?$AAC?$AAE?$AA_?$AAC?$AAO?$AAN?$AAF?$AAI?$AAG?$AA_?$AAS?$AAT?$AAA?$AAT?$AAU?$AAS?$AA_?$AAO?$AAP?$AAE?$AAN?$AAI?$AAN?$AAG?$AA_?$AAE?$AAN?$AAD@|
	DCD	|??_C@_1EI@KNOIBOPH@?$AAD?$AAE?$AAV?$AAI?$AAC?$AAE?$AA_?$AAC?$AAO?$AAN?$AAF?$AAI?$AAG?$AA_?$AAS?$AAT?$AAA?$AAT?$AAU?$AAS?$AA_?$AAU?$AAS?$AAI?$AAN?$AAG?$AA_?$AAA?$AAD?$AAD?$AAR?$AAE@|
	DCD	|??_C@_1FG@NMCKCJLL@?$AAD?$AAE?$AAV?$AAI?$AAC?$AAE?$AA_?$AAC?$AAO?$AAN?$AAF?$AAI?$AAG?$AA_?$AAS?$AAT?$AAA?$AAT?$AAU?$AAS?$AA_?$AAR?$AAE?$AAS?$AAE?$AAT?$AA_?$AAA?$AAN?$AAD?$AA_?$AAE@|
	DCD	|??_C@_1HG@BLNLBKIO@?$AAD?$AAE?$AAV?$AAI?$AAC?$AAE?$AA_?$AAC?$AAO?$AAN?$AAF?$AAI?$AAG?$AA_?$AAS?$AAT?$AAA?$AAT?$AAU?$AAS?$AA_?$AAS?$AAC?$AAH?$AAE?$AAD?$AAU?$AAL?$AAI?$AAN?$AAG?$AA_@|
	DCD	|??_C@_1FI@LGLHPFAK@?$AAD?$AAE?$AAV?$AAI?$AAC?$AAE?$AA_?$AAC?$AAO?$AAN?$AAF?$AAI?$AAG?$AA_?$AAS?$AAT?$AAA?$AAT?$AAU?$AAS?$AA_?$AAS?$AAC?$AAH?$AAE?$AAD?$AAU?$AAL?$AAI?$AAN?$AAG?$AA_@|
	DCD	|??_C@_1EI@BBOOKHNN@?$AAD?$AAE?$AAV?$AAI?$AAC?$AAE?$AA_?$AAC?$AAO?$AAN?$AAF?$AAI?$AAG?$AA_?$AAS?$AAT?$AAA?$AAT?$AAU?$AAS?$AA_?$AAL?$AAE?$AAA?$AAV?$AAE?$AA_?$AAA?$AAD?$AAD?$AAR?$AAE@|
	DCD	|??_C@_1HM@FNPCBDHK@?$AAD?$AAE?$AAV?$AAI?$AAC?$AAE?$AA_?$AAC?$AAO?$AAN?$AAF?$AAI?$AAG?$AA_?$AAS?$AAT?$AAA?$AAT?$AAU?$AAS?$AA_?$AAS?$AAC?$AAH?$AAE?$AAD?$AAU?$AAL?$AAI?$AAN?$AAG?$AA_@|
	DCD	|??_C@_1GM@BCHKIAPP@?$AAD?$AAE?$AAV?$AAI?$AAC?$AAE?$AA_?$AAC?$AAO?$AAN?$AAF?$AAI?$AAG?$AA_?$AAS?$AAT?$AAA?$AAT?$AAU?$AAS?$AA_?$AAS?$AAC?$AAH?$AAE?$AAD?$AAU?$AAL?$AAI?$AAN?$AAG?$AA_@|
	DCD	|??_C@_1HE@MEMGEMJJ@?$AAD?$AAE?$AAV?$AAI?$AAC?$AAE?$AA_?$AAC?$AAO?$AAN?$AAF?$AAI?$AAG?$AA_?$AAS?$AAT?$AAA?$AAT?$AAU?$AAS?$AA_?$AAS?$AAE?$AAT?$AAU?$AAP?$AA_?$AAC?$AAO?$AAN?$AAF?$AAI@|
	DCD	|??_C@_1HM@NPLCKJLH@?$AAD?$AAE?$AAV?$AAI?$AAC?$AAE?$AA_?$AAC?$AAO?$AAN?$AAF?$AAI?$AAG?$AA_?$AAS?$AAT?$AAA?$AAT?$AAU?$AAS?$AA_?$AAS?$AAC?$AAH?$AAE?$AAD?$AAU?$AAL?$AAI?$AAN?$AAG?$AA_@|
	DCD	|??_C@_1GM@JADKDKDC@?$AAD?$AAE?$AAV?$AAI?$AAC?$AAE?$AA_?$AAC?$AAO?$AAN?$AAF?$AAI?$AAG?$AA_?$AAS?$AAT?$AAA?$AAT?$AAU?$AAS?$AA_?$AAS?$AAC?$AAH?$AAE?$AAD?$AAU?$AAL?$AAI?$AAN?$AAG?$AA_@|
	DCD	|??_C@_1GA@NDHJOKMM@?$AAD?$AAE?$AAV?$AAI?$AAC?$AAE?$AA_?$AAC?$AAO?$AAN?$AAF?$AAI?$AAG?$AA_?$AAS?$AAT?$AAA?$AAT?$AAU?$AAS?$AA_?$AAD?$AAE?$AAT?$AAE?$AAR?$AAM?$AAI?$AAN?$AAE?$AA_?$AAC@|
	DCD	|??_C@_1FG@CFFAAPDL@?$AAD?$AAE?$AAV?$AAI?$AAC?$AAE?$AA_?$AAC?$AAO?$AAN?$AAF?$AAI?$AAG?$AA_?$AAS?$AAT?$AAA?$AAT?$AAU?$AAS?$AA_?$AAS?$AAC?$AAH?$AAE?$AAD?$AAU?$AAL?$AAI?$AAN?$AAG?$AA_@|
	DCD	|??_C@_1HG@KPBCOGEF@?$AAD?$AAE?$AAV?$AAI?$AAC?$AAE?$AA_?$AAC?$AAO?$AAN?$AAF?$AAI?$AAG?$AA_?$AAS?$AAT?$AAA?$AAT?$AAU?$AAS?$AA_?$AAS?$AAC?$AAH?$AAE?$AAD?$AAU?$AAL?$AAI?$AAN?$AAG?$AA_@|
	DCD	|??_C@_1GG@HPGGGHKI@?$AAD?$AAE?$AAV?$AAI?$AAC?$AAE?$AA_?$AAC?$AAO?$AAN?$AAF?$AAI?$AAG?$AA_?$AAS?$AAT?$AAA?$AAT?$AAU?$AAS?$AA_?$AAS?$AAC?$AAH?$AAE?$AAD?$AAU?$AAL?$AAI?$AAN?$AAG?$AA_@|
	DCD	|??_C@_1EI@COKEBMOE@?$AAD?$AAE?$AAV?$AAI?$AAC?$AAE?$AA_?$AAC?$AAO?$AAN?$AAF?$AAI?$AAG?$AA_?$AAS?$AAT?$AAA?$AAT?$AAU?$AAS?$AA_?$AAC?$AAR?$AAE?$AAA?$AAT?$AAE?$AA_?$AAN?$AAE?$AAW?$AA_@|
	DCD	|??_C@_1FC@LCLFDJDO@?$AAD?$AAE?$AAV?$AAI?$AAC?$AAE?$AA_?$AAC?$AAO?$AAN?$AAF?$AAI?$AAG?$AA_?$AAS?$AAT?$AAA?$AAT?$AAU?$AAS?$AA_?$AAC?$AAR?$AAE?$AAA?$AAT?$AAE?$AA_?$AAN?$AAE?$AAW?$AA_@|
	DCD	|??_C@_1II@FBBOBKGN@?$AAD?$AAE?$AAV?$AAI?$AAC?$AAE?$AA_?$AAC?$AAO?$AAN?$AAF?$AAI?$AAG?$AA_?$AAS?$AAT?$AAA?$AAT?$AAU?$AAS?$AA_?$AAI?$AAN?$AAS?$AAE?$AAR?$AAT?$AA_?$AAN?$AAE?$AAW?$AA_@|
	DCD	|??_C@_1HO@PGHDEMEK@?$AAD?$AAE?$AAV?$AAI?$AAC?$AAE?$AA_?$AAC?$AAO?$AAN?$AAF?$AAI?$AAG?$AA_?$AAS?$AAT?$AAA?$AAT?$AAU?$AAS?$AA_?$AAS?$AAI?$AAG?$AAN?$AAA?$AAL?$AA_?$AAN?$AAE?$AAW?$AA_@|
	DCD	|??_C@_1DI@CEGNOBAM@?$AAD?$AAE?$AAV?$AAI?$AAC?$AAE?$AA_?$AAC?$AAO?$AAN?$AAF?$AAI?$AAG?$AA_?$AAS?$AAT?$AAA?$AAT?$AAU?$AAS?$AA_?$AAF?$AAA?$AAI?$AAL?$AAE?$AAD?$AA?$AA@|
	DCD	|??_C@_1DE@IMCKALLA@?$AAD?$AAE?$AAV?$AAI?$AAC?$AAE?$AA_?$AAC?$AAO?$AAN?$AAF?$AAI?$AAG?$AA_?$AAS?$AAT?$AAA?$AAT?$AAU?$AAS?$AA_?$AAD?$AAO?$AAN?$AAE?$AA?$AA@|
	DCD	|??_C@_1DK@JPBDFEOB@?$AAD?$AAE?$AAV?$AAI?$AAC?$AAE?$AA_?$AAC?$AAO?$AAN?$AAF?$AAI?$AAG?$AA_?$AAS?$AAT?$AAA?$AAT?$AAU?$AAS?$AA_?$AAI?$AAN?$AAV?$AAA?$AAL?$AAI?$AAD?$AA?$AA@|

  00000			 AREA	 |.rdata|, DATA, READONLY
|??_C@_1DK@JPBDFEOB@?$AAD?$AAE?$AAV?$AAI?$AAC?$AAE?$AA_?$AAC?$AAO?$AAN?$AAF?$AAI?$AAG?$AA_?$AAS?$AAT?$AAA?$AAT?$AAU?$AAS?$AA_?$AAI?$AAN?$AAV?$AAA?$AAL?$AAI?$AAD?$AA?$AA@| DCB "D"
	DCB	0x0, "E", 0x0, "V", 0x0, "I", 0x0, "C", 0x0, "E", 0x0, "_"
	DCB	0x0, "C", 0x0, "O", 0x0, "N", 0x0, "F", 0x0, "I", 0x0, "G"
	DCB	0x0, "_", 0x0, "S", 0x0, "T", 0x0, "A", 0x0, "T", 0x0, "U"
	DCB	0x0, "S", 0x0, "_", 0x0, "I", 0x0, "N", 0x0, "V", 0x0, "A"
	DCB	0x0, "L", 0x0, "I", 0x0, "D", 0x0, 0x0, 0x0 ; `string'

  00000			 AREA	 |.rdata|, DATA, READONLY
|??_C@_1DE@IMCKALLA@?$AAD?$AAE?$AAV?$AAI?$AAC?$AAE?$AA_?$AAC?$AAO?$AAN?$AAF?$AAI?$AAG?$AA_?$AAS?$AAT?$AAA?$AAT?$AAU?$AAS?$AA_?$AAD?$AAO?$AAN?$AAE?$AA?$AA@| DCB "D"
	DCB	0x0, "E", 0x0, "V", 0x0, "I", 0x0, "C", 0x0, "E", 0x0, "_"
	DCB	0x0, "C", 0x0, "O", 0x0, "N", 0x0, "F", 0x0, "I", 0x0, "G"
	DCB	0x0, "_", 0x0, "S", 0x0, "T", 0x0, "A", 0x0, "T", 0x0, "U"
	DCB	0x0, "S", 0x0, "_", 0x0, "D", 0x0, "O", 0x0, "N", 0x0, "E"
	DCB	0x0, 0x0, 0x0				; `string'

  00000			 AREA	 |.rdata|, DATA, READONLY
|??_C@_1DI@CEGNOBAM@?$AAD?$AAE?$AAV?$AAI?$AAC?$AAE?$AA_?$AAC?$AAO?$AAN?$AAF?$AAI?$AAG?$AA_?$AAS?$AAT?$AAA?$AAT?$AAU?$AAS?$AA_?$AAF?$AAA?$AAI?$AAL?$AAE?$AAD?$AA?$AA@| DCB "D"
	DCB	0x0, "E", 0x0, "V", 0x0, "I", 0x0, "C", 0x0, "E", 0x0, "_"
	DCB	0x0, "C", 0x0, "O", 0x0, "N", 0x0, "F", 0x0, "I", 0x0, "G"
	DCB	0x0, "_", 0x0, "S", 0x0, "T", 0x0, "A", 0x0, "T", 0x0, "U"
	DCB	0x0, "S", 0x0, "_", 0x0, "F", 0x0, "A", 0x0, "I", 0x0, "L"
	DCB	0x0, "E", 0x0, "D", 0x0, 0x0, 0x0	; `string'

  00000			 AREA	 |.rdata|, DATA, READONLY
|??_C@_1HO@PGHDEMEK@?$AAD?$AAE?$AAV?$AAI?$AAC?$AAE?$AA_?$AAC?$AAO?$AAN?$AAF?$AAI?$AAG?$AA_?$AAS?$AAT?$AAA?$AAT?$AAU?$AAS?$AA_?$AAS?$AAI?$AAG?$AAN?$AAA?$AAL?$AA_?$AAN?$AAE?$AAW?$AA_@| DCB "D"
	DCB	0x0, "E", 0x0, "V", 0x0, "I", 0x0, "C", 0x0, "E", 0x0, "_"
	DCB	0x0, "C", 0x0, "O", 0x0, "N", 0x0, "F", 0x0, "I", 0x0, "G"
	DCB	0x0, "_", 0x0, "S", 0x0, "T", 0x0, "A", 0x0, "T", 0x0, "U"
	DCB	0x0, "S", 0x0, "_", 0x0, "S", 0x0, "I", 0x0, "G", 0x0, "N"
	DCB	0x0, "A", 0x0, "L", 0x0, "_", 0x0, "N", 0x0, "E", 0x0, "W"
	DCB	0x0, "_", 0x0, "D", 0x0, "E", 0x0, "V", 0x0, "I", 0x0, "C"
	DCB	0x0, "E", 0x0, "_", 0x0, "E", 0x0, "N", 0x0, "T", 0x0, "E"
	DCB	0x0, "R", 0x0, "_", 0x0, "O", 0x0, "P", 0x0, "E", 0x0, "R"
	DCB	0x0, "A", 0x0, "T", 0x0, "I", 0x0, "O", 0x0, "N", 0x0, "A"
	DCB	0x0, "L", 0x0, "_", 0x0, "S", 0x0, "T", 0x0, "A", 0x0, "T"
	DCB	0x0, "E", 0x0, 0x0, 0x0			; `string'

  00000			 AREA	 |.rdata|, DATA, READONLY
|??_C@_1II@FBBOBKGN@?$AAD?$AAE?$AAV?$AAI?$AAC?$AAE?$AA_?$AAC?$AAO?$AAN?$AAF?$AAI?$AAG?$AA_?$AAS?$AAT?$AAA?$AAT?$AAU?$AAS?$AA_?$AAI?$AAN?$AAS?$AAE?$AAR?$AAT?$AA_?$AAN?$AAE?$AAW?$AA_@| DCB "D"
	DCB	0x0, "E", 0x0, "V", 0x0, "I", 0x0, "C", 0x0, "E", 0x0, "_"
	DCB	0x0, "C", 0x0, "O", 0x0, "N", 0x0, "F", 0x0, "I", 0x0, "G"
	DCB	0x0, "_", 0x0, "S", 0x0, "T", 0x0, "A", 0x0, "T", 0x0, "U"
	DCB	0x0, "S", 0x0, "_", 0x0, "I", 0x0, "N", 0x0, "S", 0x0, "E"
	DCB	0x0, "R", 0x0, "T", 0x0, "_", 0x0, "N", 0x0, "E", 0x0, "W"
	DCB	0x0, "_", 0x0, "D", 0x0, "E", 0x0, "V", 0x0, "I", 0x0, "C"
	DCB	0x0, "E", 0x0, "_", 0x0, "I", 0x0, "N", 0x0, "T", 0x0, "O"
	DCB	0x0, "_", 0x0, "U", 0x0, "P", 0x0, "S", 0x0, "T", 0x0, "R"
	DCB	0x0, "E", 0x0, "A", 0x0, "M", 0x0, "_", 0x0, "H", 0x0, "U"
	DCB	0x0, "B", 0x0, "_", 0x0, "P", 0x0, "O", 0x0, "R", 0x0, "T"
	DCB	0x0, "_", 0x0, "A", 0x0, "R", 0x0, "R", 0x0, "A", 0x0, "Y"
	DCB	0x0, 0x0, 0x0				; `string'

  00000			 AREA	 |.rdata|, DATA, READONLY
|??_C@_1FC@LCLFDJDO@?$AAD?$AAE?$AAV?$AAI?$AAC?$AAE?$AA_?$AAC?$AAO?$AAN?$AAF?$AAI?$AAG?$AA_?$AAS?$AAT?$AAA?$AAT?$AAU?$AAS?$AA_?$AAC?$AAR?$AAE?$AAA?$AAT?$AAE?$AA_?$AAN?$AAE?$AAW?$AA_@| DCB "D"
	DCB	0x0, "E", 0x0, "V", 0x0, "I", 0x0, "C", 0x0, "E", 0x0, "_"
	DCB	0x0, "C", 0x0, "O", 0x0, "N", 0x0, "F", 0x0, "I", 0x0, "G"
	DCB	0x0, "_", 0x0, "S", 0x0, "T", 0x0, "A", 0x0, "T", 0x0, "U"
	DCB	0x0, "S", 0x0, "_", 0x0, "C", 0x0, "R", 0x0, "E", 0x0, "A"
	DCB	0x0, "T", 0x0, "E", 0x0, "_", 0x0, "N", 0x0, "E", 0x0, "W"
	DCB	0x0, "_", 0x0, "F", 0x0, "U", 0x0, "N", 0x0, "C", 0x0, "T"
	DCB	0x0, "I", 0x0, "O", 0x0, "N", 0x0, 0x0, 0x0 ; `string'

  00000			 AREA	 |.rdata|, DATA, READONLY
|??_C@_1EI@COKEBMOE@?$AAD?$AAE?$AAV?$AAI?$AAC?$AAE?$AA_?$AAC?$AAO?$AAN?$AAF?$AAI?$AAG?$AA_?$AAS?$AAT?$AAA?$AAT?$AAU?$AAS?$AA_?$AAC?$AAR?$AAE?$AAA?$AAT?$AAE?$AA_?$AAN?$AAE?$AAW?$AA_@| DCB "D"
	DCB	0x0, "E", 0x0, "V", 0x0, "I", 0x0, "C", 0x0, "E", 0x0, "_"
	DCB	0x0, "C", 0x0, "O", 0x0, "N", 0x0, "F", 0x0, "I", 0x0, "G"
	DCB	0x0, "_", 0x0, "S", 0x0, "T", 0x0, "A", 0x0, "T", 0x0, "U"
	DCB	0x0, "S", 0x0, "_", 0x0, "C", 0x0, "R", 0x0, "E", 0x0, "A"
	DCB	0x0, "T", 0x0, "E", 0x0, "_", 0x0, "N", 0x0, "E", 0x0, "W"
	DCB	0x0, "_", 0x0, "H", 0x0, "U", 0x0, "B", 0x0, 0x0, 0x0 ; `string'

  00000			 AREA	 |.rdata|, DATA, READONLY
|??_C@_1GG@HPGGGHKI@?$AAD?$AAE?$AAV?$AAI?$AAC?$AAE?$AA_?$AAC?$AAO?$AAN?$AAF?$AAI?$AAG?$AA_?$AAS?$AAT?$AAA?$AAT?$AAU?$AAS?$AA_?$AAS?$AAC?$AAH?$AAE?$AAD?$AAU?$AAL?$AAI?$AAN?$AAG?$AA_@| DCB "D"
	DCB	0x0, "E", 0x0, "V", 0x0, "I", 0x0, "C", 0x0, "E", 0x0, "_"
	DCB	0x0, "C", 0x0, "O", 0x0, "N", 0x0, "F", 0x0, "I", 0x0, "G"
	DCB	0x0, "_", 0x0, "S", 0x0, "T", 0x0, "A", 0x0, "T", 0x0, "U"
	DCB	0x0, "S", 0x0, "_", 0x0, "S", 0x0, "C", 0x0, "H", 0x0, "E"
	DCB	0x0, "D", 0x0, "U", 0x0, "L", 0x0, "I", 0x0, "N", 0x0, "G"
	DCB	0x0, "_", 0x0, "G", 0x0, "E", 0x0, "T", 0x0, "_", 0x0, "H"
	DCB	0x0, "U", 0x0, "B", 0x0, "_", 0x0, "D", 0x0, "E", 0x0, "S"
	DCB	0x0, "C", 0x0, "R", 0x0, "I", 0x0, "P", 0x0, "T", 0x0, "O"
	DCB	0x0, "R", 0x0, 0x0, 0x0			; `string'

  00000			 AREA	 |.rdata|, DATA, READONLY
|??_C@_1HG@KPBCOGEF@?$AAD?$AAE?$AAV?$AAI?$AAC?$AAE?$AA_?$AAC?$AAO?$AAN?$AAF?$AAI?$AAG?$AA_?$AAS?$AAT?$AAA?$AAT?$AAU?$AAS?$AA_?$AAS?$AAC?$AAH?$AAE?$AAD?$AAU?$AAL?$AAI?$AAN?$AAG?$AA_@| DCB "D"
	DCB	0x0, "E", 0x0, "V", 0x0, "I", 0x0, "C", 0x0, "E", 0x0, "_"
	DCB	0x0, "C", 0x0, "O", 0x0, "N", 0x0, "F", 0x0, "I", 0x0, "G"
	DCB	0x0, "_", 0x0, "S", 0x0, "T", 0x0, "A", 0x0, "T", 0x0, "U"
	DCB	0x0, "S", 0x0, "_", 0x0, "S", 0x0, "C", 0x0, "H", 0x0, "E"
	DCB	0x0, "D", 0x0, "U", 0x0, "L", 0x0, "I", 0x0, "N", 0x0, "G"
	DCB	0x0, "_", 0x0, "G", 0x0, "E", 0x0, "T", 0x0, "_", 0x0, "I"
	DCB	0x0, "N", 0x0, "I", 0x0, "T", 0x0, "I", 0x0, "A", 0x0, "L"
	DCB	0x0, "_", 0x0, "H", 0x0, "U", 0x0, "B", 0x0, "_", 0x0, "D"
	DCB	0x0, "E", 0x0, "S", 0x0, "C", 0x0, "R", 0x0, "I", 0x0, "P"
	DCB	0x0, "T", 0x0, "O", 0x0, "R", 0x0, 0x0, 0x0 ; `string'

  00000			 AREA	 |.rdata|, DATA, READONLY
|??_C@_1FG@CFFAAPDL@?$AAD?$AAE?$AAV?$AAI?$AAC?$AAE?$AA_?$AAC?$AAO?$AAN?$AAF?$AAI?$AAG?$AA_?$AAS?$AAT?$AAA?$AAT?$AAU?$AAS?$AA_?$AAS?$AAC?$AAH?$AAE?$AAD?$AAU?$AAL?$AAI?$AAN?$AAG?$AA_@| DCB "D"
	DCB	0x0, "E", 0x0, "V", 0x0, "I", 0x0, "C", 0x0, "E", 0x0, "_"
	DCB	0x0, "C", 0x0, "O", 0x0, "N", 0x0, "F", 0x0, "I", 0x0, "G"
	DCB	0x0, "_", 0x0, "S", 0x0, "T", 0x0, "A", 0x0, "T", 0x0, "U"
	DCB	0x0, "S", 0x0, "_", 0x0, "S", 0x0, "C", 0x0, "H", 0x0, "E"
	DCB	0x0, "D", 0x0, "U", 0x0, "L", 0x0, "I", 0x0, "N", 0x0, "G"
	DCB	0x0, "_", 0x0, "S", 0x0, "E", 0x0, "T", 0x0, "_", 0x0, "C"
	DCB	0x0, "O", 0x0, "N", 0x0, "F", 0x0, "I", 0x0, "G", 0x0, 0x0
	DCB	0x0					; `string'

  00000			 AREA	 |.rdata|, DATA, READONLY
|??_C@_1GA@NDHJOKMM@?$AAD?$AAE?$AAV?$AAI?$AAC?$AAE?$AA_?$AAC?$AAO?$AAN?$AAF?$AAI?$AAG?$AA_?$AAS?$AAT?$AAA?$AAT?$AAU?$AAS?$AA_?$AAD?$AAE?$AAT?$AAE?$AAR?$AAM?$AAI?$AAN?$AAE?$AA_?$AAC@| DCB "D"
	DCB	0x0, "E", 0x0, "V", 0x0, "I", 0x0, "C", 0x0, "E", 0x0, "_"
	DCB	0x0, "C", 0x0, "O", 0x0, "N", 0x0, "F", 0x0, "I", 0x0, "G"
	DCB	0x0, "_", 0x0, "S", 0x0, "T", 0x0, "A", 0x0, "T", 0x0, "U"
	DCB	0x0, "S", 0x0, "_", 0x0, "D", 0x0, "E", 0x0, "T", 0x0, "E"
	DCB	0x0, "R", 0x0, "M", 0x0, "I", 0x0, "N", 0x0, "E", 0x0, "_"
	DCB	0x0, "C", 0x0, "O", 0x0, "N", 0x0, "F", 0x0, "I", 0x0, "G"
	DCB	0x0, "_", 0x0, "T", 0x0, "O", 0x0, "_", 0x0, "C", 0x0, "H"
	DCB	0x0, "O", 0x0, "O", 0x0, "S", 0x0, "E", 0x0, 0x0, 0x0 ; `string'

  00000			 AREA	 |.rdata|, DATA, READONLY
|??_C@_1GM@JADKDKDC@?$AAD?$AAE?$AAV?$AAI?$AAC?$AAE?$AA_?$AAC?$AAO?$AAN?$AAF?$AAI?$AAG?$AA_?$AAS?$AAT?$AAA?$AAT?$AAU?$AAS?$AA_?$AAS?$AAC?$AAH?$AAE?$AAD?$AAU?$AAL?$AAI?$AAN?$AAG?$AA_@| DCB "D"
	DCB	0x0, "E", 0x0, "V", 0x0, "I", 0x0, "C", 0x0, "E", 0x0, "_"
	DCB	0x0, "C", 0x0, "O", 0x0, "N", 0x0, "F", 0x0, "I", 0x0, "G"
	DCB	0x0, "_", 0x0, "S", 0x0, "T", 0x0, "A", 0x0, "T", 0x0, "U"
	DCB	0x0, "S", 0x0, "_", 0x0, "S", 0x0, "C", 0x0, "H", 0x0, "E"
	DCB	0x0, "D", 0x0, "U", 0x0, "L", 0x0, "I", 0x0, "N", 0x0, "G"
	DCB	0x0, "_", 0x0, "G", 0x0, "E", 0x0, "T", 0x0, "_", 0x0, "C"
	DCB	0x0, "O", 0x0, "N", 0x0, "F", 0x0, "I", 0x0, "G", 0x0, "_"
	DCB	0x0, "D", 0x0, "E", 0x0, "S", 0x0, "C", 0x0, "R", 0x0, "I"
	DCB	0x0, "P", 0x0, "T", 0x0, "O", 0x0, "R", 0x0, 0x0, 0x0 ; `string'

  00000			 AREA	 |.rdata|, DATA, READONLY
|??_C@_1HM@NPLCKJLH@?$AAD?$AAE?$AAV?$AAI?$AAC?$AAE?$AA_?$AAC?$AAO?$AAN?$AAF?$AAI?$AAG?$AA_?$AAS?$AAT?$AAA?$AAT?$AAU?$AAS?$AA_?$AAS?$AAC?$AAH?$AAE?$AAD?$AAU?$AAL?$AAI?$AAN?$AAG?$AA_@| DCB "D"
	DCB	0x0, "E", 0x0, "V", 0x0, "I", 0x0, "C", 0x0, "E", 0x0, "_"
	DCB	0x0, "C", 0x0, "O", 0x0, "N", 0x0, "F", 0x0, "I", 0x0, "G"
	DCB	0x0, "_", 0x0, "S", 0x0, "T", 0x0, "A", 0x0, "T", 0x0, "U"
	DCB	0x0, "S", 0x0, "_", 0x0, "S", 0x0, "C", 0x0, "H", 0x0, "E"
	DCB	0x0, "D", 0x0, "U", 0x0, "L", 0x0, "I", 0x0, "N", 0x0, "G"
	DCB	0x0, "_", 0x0, "G", 0x0, "E", 0x0, "T", 0x0, "_", 0x0, "I"
	DCB	0x0, "N", 0x0, "I", 0x0, "T", 0x0, "I", 0x0, "A", 0x0, "L"
	DCB	0x0, "_", 0x0, "C", 0x0, "O", 0x0, "N", 0x0, "F", 0x0, "I"
	DCB	0x0, "G", 0x0, "_", 0x0, "D", 0x0, "E", 0x0, "S", 0x0, "C"
	DCB	0x0, "R", 0x0, "I", 0x0, "P", 0x0, "T", 0x0, "O", 0x0, "R"
	DCB	0x0, 0x0, 0x0				; `string'

  00000			 AREA	 |.rdata|, DATA, READONLY
|??_C@_1HE@MEMGEMJJ@?$AAD?$AAE?$AAV?$AAI?$AAC?$AAE?$AA_?$AAC?$AAO?$AAN?$AAF?$AAI?$AAG?$AA_?$AAS?$AAT?$AAA?$AAT?$AAU?$AAS?$AA_?$AAS?$AAE?$AAT?$AAU?$AAP?$AA_?$AAC?$AAO?$AAN?$AAF?$AAI@| DCB "D"
	DCB	0x0, "E", 0x0, "V", 0x0, "I", 0x0, "C", 0x0, "E", 0x0, "_"
	DCB	0x0, "C", 0x0, "O", 0x0, "N", 0x0, "F", 0x0, "I", 0x0, "G"
	DCB	0x0, "_", 0x0, "S", 0x0, "T", 0x0, "A", 0x0, "T", 0x0, "U"
	DCB	0x0, "S", 0x0, "_", 0x0, "S", 0x0, "E", 0x0, "T", 0x0, "U"
	DCB	0x0, "P", 0x0, "_", 0x0, "C", 0x0, "O", 0x0, "N", 0x0, "F"
	DCB	0x0, "I", 0x0, "G", 0x0, "U", 0x0, "R", 0x0, "A", 0x0, "T"
	DCB	0x0, "I", 0x0, "O", 0x0, "N", 0x0, "_", 0x0, "D", 0x0, "E"
	DCB	0x0, "S", 0x0, "C", 0x0, "R", 0x0, "I", 0x0, "P", 0x0, "T"
	DCB	0x0, "O", 0x0, "R", 0x0, "_", 0x0, "A", 0x0, "R", 0x0, "R"
	DCB	0x0, "A", 0x0, "Y", 0x0, 0x0, 0x0	; `string'

  00000			 AREA	 |.rdata|, DATA, READONLY
|??_C@_1GM@BCHKIAPP@?$AAD?$AAE?$AAV?$AAI?$AAC?$AAE?$AA_?$AAC?$AAO?$AAN?$AAF?$AAI?$AAG?$AA_?$AAS?$AAT?$AAA?$AAT?$AAU?$AAS?$AA_?$AAS?$AAC?$AAH?$AAE?$AAD?$AAU?$AAL?$AAI?$AAN?$AAG?$AA_@| DCB "D"
	DCB	0x0, "E", 0x0, "V", 0x0, "I", 0x0, "C", 0x0, "E", 0x0, "_"
	DCB	0x0, "C", 0x0, "O", 0x0, "N", 0x0, "F", 0x0, "I", 0x0, "G"
	DCB	0x0, "_", 0x0, "S", 0x0, "T", 0x0, "A", 0x0, "T", 0x0, "U"
	DCB	0x0, "S", 0x0, "_", 0x0, "S", 0x0, "C", 0x0, "H", 0x0, "E"
	DCB	0x0, "D", 0x0, "U", 0x0, "L", 0x0, "I", 0x0, "N", 0x0, "G"
	DCB	0x0, "_", 0x0, "G", 0x0, "E", 0x0, "T", 0x0, "_", 0x0, "D"
	DCB	0x0, "E", 0x0, "V", 0x0, "I", 0x0, "C", 0x0, "E", 0x0, "_"
	DCB	0x0, "D", 0x0, "E", 0x0, "S", 0x0, "C", 0x0, "R", 0x0, "I"
	DCB	0x0, "P", 0x0, "T", 0x0, "O", 0x0, "R", 0x0, 0x0, 0x0 ; `string'

  00000			 AREA	 |.rdata|, DATA, READONLY
|??_C@_1HM@FNPCBDHK@?$AAD?$AAE?$AAV?$AAI?$AAC?$AAE?$AA_?$AAC?$AAO?$AAN?$AAF?$AAI?$AAG?$AA_?$AAS?$AAT?$AAA?$AAT?$AAU?$AAS?$AA_?$AAS?$AAC?$AAH?$AAE?$AAD?$AAU?$AAL?$AAI?$AAN?$AAG?$AA_@| DCB "D"
	DCB	0x0, "E", 0x0, "V", 0x0, "I", 0x0, "C", 0x0, "E", 0x0, "_"
	DCB	0x0, "C", 0x0, "O", 0x0, "N", 0x0, "F", 0x0, "I", 0x0, "G"
	DCB	0x0, "_", 0x0, "S", 0x0, "T", 0x0, "A", 0x0, "T", 0x0, "U"
	DCB	0x0, "S", 0x0, "_", 0x0, "S", 0x0, "C", 0x0, "H", 0x0, "E"
	DCB	0x0, "D", 0x0, "U", 0x0, "L", 0x0, "I", 0x0, "N", 0x0, "G"
	DCB	0x0, "_", 0x0, "G", 0x0, "E", 0x0, "T", 0x0, "_", 0x0, "I"
	DCB	0x0, "N", 0x0, "I", 0x0, "T", 0x0, "I", 0x0, "A", 0x0, "L"
	DCB	0x0, "_", 0x0, "D", 0x0, "E", 0x0, "V", 0x0, "I", 0x0, "C"
	DCB	0x0, "E", 0x0, "_", 0x0, "D", 0x0, "E", 0x0, "S", 0x0, "C"
	DCB	0x0, "R", 0x0, "I", 0x0, "P", 0x0, "T", 0x0, "O", 0x0, "R"
	DCB	0x0, 0x0, 0x0				; `string'

  00000			 AREA	 |.rdata|, DATA, READONLY
|??_C@_1EI@BBOOKHNN@?$AAD?$AAE?$AAV?$AAI?$AAC?$AAE?$AA_?$AAC?$AAO?$AAN?$AAF?$AAI?$AAG?$AA_?$AAS?$AAT?$AAA?$AAT?$AAU?$AAS?$AA_?$AAL?$AAE?$AAA?$AAV?$AAE?$AA_?$AAA?$AAD?$AAD?$AAR?$AAE@| DCB "D"
	DCB	0x0, "E", 0x0, "V", 0x0, "I", 0x0, "C", 0x0, "E", 0x0, "_"
	DCB	0x0, "C", 0x0, "O", 0x0, "N", 0x0, "F", 0x0, "I", 0x0, "G"
	DCB	0x0, "_", 0x0, "S", 0x0, "T", 0x0, "A", 0x0, "T", 0x0, "U"
	DCB	0x0, "S", 0x0, "_", 0x0, "L", 0x0, "E", 0x0, "A", 0x0, "V"
	DCB	0x0, "E", 0x0, "_", 0x0, "A", 0x0, "D", 0x0, "D", 0x0, "R"
	DCB	0x0, "E", 0x0, "S", 0x0, "S", 0x0, "0", 0x0, 0x0, 0x0 ; `string'

  00000			 AREA	 |.rdata|, DATA, READONLY
|??_C@_1FI@LGLHPFAK@?$AAD?$AAE?$AAV?$AAI?$AAC?$AAE?$AA_?$AAC?$AAO?$AAN?$AAF?$AAI?$AAG?$AA_?$AAS?$AAT?$AAA?$AAT?$AAU?$AAS?$AA_?$AAS?$AAC?$AAH?$AAE?$AAD?$AAU?$AAL?$AAI?$AAN?$AAG?$AA_@| DCB "D"
	DCB	0x0, "E", 0x0, "V", 0x0, "I", 0x0, "C", 0x0, "E", 0x0, "_"
	DCB	0x0, "C", 0x0, "O", 0x0, "N", 0x0, "F", 0x0, "I", 0x0, "G"
	DCB	0x0, "_", 0x0, "S", 0x0, "T", 0x0, "A", 0x0, "T", 0x0, "U"
	DCB	0x0, "S", 0x0, "_", 0x0, "S", 0x0, "C", 0x0, "H", 0x0, "E"
	DCB	0x0, "D", 0x0, "U", 0x0, "L", 0x0, "I", 0x0, "N", 0x0, "G"
	DCB	0x0, "_", 0x0, "S", 0x0, "E", 0x0, "T", 0x0, "_", 0x0, "A"
	DCB	0x0, "D", 0x0, "D", 0x0, "R", 0x0, "E", 0x0, "S", 0x0, "S"
	DCB	0x0, 0x0, 0x0				; `string'

  00000			 AREA	 |.rdata|, DATA, READONLY
|??_C@_1HG@BLNLBKIO@?$AAD?$AAE?$AAV?$AAI?$AAC?$AAE?$AA_?$AAC?$AAO?$AAN?$AAF?$AAI?$AAG?$AA_?$AAS?$AAT?$AAA?$AAT?$AAU?$AAS?$AA_?$AAS?$AAC?$AAH?$AAE?$AAD?$AAU?$AAL?$AAI?$AAN?$AAG?$AA_@| DCB "D"
	DCB	0x0, "E", 0x0, "V", 0x0, "I", 0x0, "C", 0x0, "E", 0x0, "_"
	DCB	0x0, "C", 0x0, "O", 0x0, "N", 0x0, "F", 0x0, "I", 0x0, "G"
	DCB	0x0, "_", 0x0, "S", 0x0, "T", 0x0, "A", 0x0, "T", 0x0, "U"
	DCB	0x0, "S", 0x0, "_", 0x0, "S", 0x0, "C", 0x0, "H", 0x0, "E"
	DCB	0x0, "D", 0x0, "U", 0x0, "L", 0x0, "I", 0x0, "N", 0x0, "G"
	DCB	0x0, "_", 0x0, "G", 0x0, "E", 0x0, "T", 0x0, "_", 0x0, "D"
	DCB	0x0, "E", 0x0, "V", 0x0, "I", 0x0, "C", 0x0, "E", 0x0, "_"
	DCB	0x0, "D", 0x0, "E", 0x0, "S", 0x0, "C", 0x0, "R", 0x0, "I"
	DCB	0x0, "P", 0x0, "T", 0x0, "O", 0x0, "R", 0x0, "_", 0x0, "T"
	DCB	0x0, "E", 0x0, "S", 0x0, "T", 0x0, 0x0, 0x0 ; `string'

  00000			 AREA	 |.rdata|, DATA, READONLY
|??_C@_1FG@NMCKCJLL@?$AAD?$AAE?$AAV?$AAI?$AAC?$AAE?$AA_?$AAC?$AAO?$AAN?$AAF?$AAI?$AAG?$AA_?$AAS?$AAT?$AAA?$AAT?$AAU?$AAS?$AA_?$AAR?$AAE?$AAS?$AAE?$AAT?$AA_?$AAA?$AAN?$AAD?$AA_?$AAE@| DCB "D"
	DCB	0x0, "E", 0x0, "V", 0x0, "I", 0x0, "C", 0x0, "E", 0x0, "_"
	DCB	0x0, "C", 0x0, "O", 0x0, "N", 0x0, "F", 0x0, "I", 0x0, "G"
	DCB	0x0, "_", 0x0, "S", 0x0, "T", 0x0, "A", 0x0, "T", 0x0, "U"
	DCB	0x0, "S", 0x0, "_", 0x0, "R", 0x0, "E", 0x0, "S", 0x0, "E"
	DCB	0x0, "T", 0x0, "_", 0x0, "A", 0x0, "N", 0x0, "D", 0x0, "_"
	DCB	0x0, "E", 0x0, "N", 0x0, "A", 0x0, "B", 0x0, "L", 0x0, "E"
	DCB	0x0, "_", 0x0, "P", 0x0, "O", 0x0, "R", 0x0, "T", 0x0, 0x0
	DCB	0x0					; `string'

  00000			 AREA	 |.rdata|, DATA, READONLY
|??_C@_1EI@KNOIBOPH@?$AAD?$AAE?$AAV?$AAI?$AAC?$AAE?$AA_?$AAC?$AAO?$AAN?$AAF?$AAI?$AAG?$AA_?$AAS?$AAT?$AAA?$AAT?$AAU?$AAS?$AA_?$AAU?$AAS?$AAI?$AAN?$AAG?$AA_?$AAA?$AAD?$AAD?$AAR?$AAE@| DCB "D"
	DCB	0x0, "E", 0x0, "V", 0x0, "I", 0x0, "C", 0x0, "E", 0x0, "_"
	DCB	0x0, "C", 0x0, "O", 0x0, "N", 0x0, "F", 0x0, "I", 0x0, "G"
	DCB	0x0, "_", 0x0, "S", 0x0, "T", 0x0, "A", 0x0, "T", 0x0, "U"
	DCB	0x0, "S", 0x0, "_", 0x0, "U", 0x0, "S", 0x0, "I", 0x0, "N"
	DCB	0x0, "G", 0x0, "_", 0x0, "A", 0x0, "D", 0x0, "D", 0x0, "R"
	DCB	0x0, "E", 0x0, "S", 0x0, "S", 0x0, "0", 0x0, 0x0, 0x0 ; `string'

  00000			 AREA	 |.rdata|, DATA, READONLY
|??_C@_1FI@COMJHLEF@?$AAD?$AAE?$AAV?$AAI?$AAC?$AAE?$AA_?$AAC?$AAO?$AAN?$AAF?$AAI?$AAG?$AA_?$AAS?$AAT?$AAA?$AAT?$AAU?$AAS?$AA_?$AAO?$AAP?$AAE?$AAN?$AAI?$AAN?$AAG?$AA_?$AAE?$AAN?$AAD@| DCB "D"
	DCB	0x0, "E", 0x0, "V", 0x0, "I", 0x0, "C", 0x0, "E", 0x0, "_"
	DCB	0x0, "C", 0x0, "O", 0x0, "N", 0x0, "F", 0x0, "I", 0x0, "G"
	DCB	0x0, "_", 0x0, "S", 0x0, "T", 0x0, "A", 0x0, "T", 0x0, "U"
	DCB	0x0, "S", 0x0, "_", 0x0, "O", 0x0, "P", 0x0, "E", 0x0, "N"
	DCB	0x0, "I", 0x0, "N", 0x0, "G", 0x0, "_", 0x0, "E", 0x0, "N"
	DCB	0x0, "D", 0x0, "P", 0x0, "O", 0x0, "I", 0x0, "N", 0x0, "T"
	DCB	0x0, "0", 0x0, "_", 0x0, "P", 0x0, "I", 0x0, "P", 0x0, "E"
	DCB	0x0, 0x0, 0x0				; `string'
	EXPORT	|??_C@_1BO@KGAIOMPP@?$AA?9?$AAC?$AAO?$AAh?$AAc?$AAd?$AA?3?$AA?3?$AAC?$AAO?$AAh?$AAc?$AAd?$AA?6?$AA?$AA@| [ DATA ] ; `string'
	EXPORT	|??_C@_1BO@CPEKKGMP@?$AA?$CL?$AAC?$AAO?$AAh?$AAc?$AAd?$AA?3?$AA?3?$AAC?$AAO?$AAh?$AAc?$AAd?$AA?6?$AA?$AA@| [ DATA ] ; `string'
	EXPORT	|??_7COhcd@@6B@| [ DATA ]		; COhcd::`vftable'
	EXPORT	|??0COhcd@@QAA@PAXPAVCPhysMem@@PBGRAE3KK@Z| ; COhcd::COhcd
	EXPORT	|?AddedTt@COhcd@@UAAHEE@Z|		; COhcd::AddedTt
	EXPORT	|?DeleteTt@COhcd@@UAAHEE@Z|		; COhcd::DeleteTt
	EXPORT	|?DeviceInitialize@COhcd@@UAAHXZ|	; COhcd::DeviceInitialize
	EXPORT	|?DeviceDeInitialize@COhcd@@UAAXXZ|	; COhcd::DeviceDeInitialize
	EXPORT	|?StopAdjustingFrame@CHW@@UAAHXZ|	; CHW::StopAdjustingFrame
	EXPORT	|?SetCapability@?ICHcd@CHW@@UAAKK@Z|	; CHW[::CHcd]::SetCapability
	EXPORT	|?GetCapability@?ICHcd@CHW@@UAAKXZ|	; CHW[::CHcd]::GetCapability
	EXPORT	|?SuspendHC@CHcd@@UAAHXZ|		; CHcd::SuspendHC
	EXPORT	|?ResumeNotification@CHcd@@MAAHXZ|	; CHcd::ResumeNotification
	EXPORT	|?SignalCheckForDoneTransfers@CHW@@UAAXK@Z| ; CHW::SignalCheckForDoneTransfers
	IMPORT	|NKDbgPrintfW|
	IMPORT	|dpCurSettings|
	IMPORT	|??0CHCCArea@@QAA@QAVCPhysMem@@@Z|	; CHCCArea::CHCCArea
	IMPORT	|??0CHW@@QAA@SAE0KKQAVCPhysMem@@PAX@Z|	; CHW::CHW
	IMPORT	|??_ECOhcd@@UAAPAXI@Z|, WEAK |??_GCOhcd@@UAAPAXI@Z| ; COhcd::`vector deleting destructor', COhcd::`scalar deleting destructor'
	IMPORT	|?GetFrameNumber@CHW@@UAAHPAK@Z|	; CHW::GetFrameNumber
	IMPORT	|?GetFrameLength@CHW@@UAAHPAG@Z|	; CHW::GetFrameLength
	IMPORT	|?SetFrameLength@CHW@@UAAHPAXG@Z|	; CHW::SetFrameLength
	IMPORT	|?PowerMgmtCallback@CHW@@UAAXH@Z|	; CHW::PowerMgmtCallback
	IMPORT	|?DisableDevice@CHcd@@UAAHIH@Z|		; CHcd::DisableDevice
	IMPORT	|?SuspendResume@CHcd@@UAAHIH@Z|		; CHcd::SuspendResume
	IMPORT	|?DidPortStatusChange@CHW@@UAAHE@Z|	; CHW::DidPortStatusChange
	IMPORT	|?GetPortStatus@CHW@@UAAHEAAU_USB_HUB_AND_PORT_STATUS@@@Z| ; CHW::GetPortStatus
	IMPORT	|?RootHubFeature@CHW@@UAAHEEG@Z|	; CHW::RootHubFeature
	IMPORT	|?ResetAndEnablePort@CHW@@UAAHE@Z|	; CHW::ResetAndEnablePort
	IMPORT	|?DisablePort@CHW@@UAAXE@Z|		; CHW::DisablePort
	IMPORT	|?WaitForPortStatusChange@CHW@@UAAHPAX@Z| ; CHW::WaitForPortStatusChange
	IMPORT	|?Initialize@CHW@@UAAHXZ|		; CHW::Initialize
	IMPORT	|?DeInitialize@CHW@@UAAXXZ|		; CHW::DeInitialize

  00000			 AREA	 |.pdata|, PDATA
|$T41679| DCD	|$LN9@COhcd|
	DCD	0x40004604
; File c:\wince600\platform\common\src\soc\common_ti_v1\am3517\usb\usbh\cohcd.cpp

  00000			 AREA	 |.rdata|, DATA, READONLY
|??_C@_1BO@KGAIOMPP@?$AA?9?$AAC?$AAO?$AAh?$AAc?$AAd?$AA?3?$AA?3?$AAC?$AAO?$AAh?$AAc?$AAd?$AA?6?$AA?$AA@| DCB "-"
	DCB	0x0, "C", 0x0, "O", 0x0, "h", 0x0, "c", 0x0, "d", 0x0, ":"
	DCB	0x0, ":", 0x0, "C", 0x0, "O", 0x0, "h", 0x0, "c", 0x0, "d"
	DCB	0x0, 0xa, 0x0, 0x0, 0x0			; `string'

  00000			 AREA	 |.rdata|, DATA, READONLY
|??_C@_1BO@CPEKKGMP@?$AA?$CL?$AAC?$AAO?$AAh?$AAc?$AAd?$AA?3?$AA?3?$AAC?$AAO?$AAh?$AAc?$AAd?$AA?6?$AA?$AA@| DCB "+"
	DCB	0x0, "C", 0x0, "O", 0x0, "h", 0x0, "c", 0x0, "d", 0x0, ":"
	DCB	0x0, ":", 0x0, "C", 0x0, "O", 0x0, "h", 0x0, "c", 0x0, "d"
	DCB	0x0, 0xa, 0x0, 0x0, 0x0			; `string'

  00000			 AREA	 |.rdata|, DATA, READONLY
|??_7COhcd@@6B@| DCD |?AddedTt@COhcd@@UAAHEE@Z|		; COhcd::`vftable'
	DCD	|?DeleteTt@COhcd@@UAAHEE@Z|
	DCD	|??_ECOhcd@@UAAPAXI@Z|
	DCD	|?DeviceInitialize@COhcd@@UAAHXZ|
	DCD	|?DeviceDeInitialize@COhcd@@UAAXXZ|
	DCD	|?GetFrameNumber@CHW@@UAAHPAK@Z|
	DCD	|?GetFrameLength@CHW@@UAAHPAG@Z|
	DCD	|?SetFrameLength@CHW@@UAAHPAXG@Z|
	DCD	|?StopAdjustingFrame@CHW@@UAAHXZ|
	DCD	|?PowerMgmtCallback@CHW@@UAAXH@Z|
	DCD	|?DisableDevice@CHcd@@UAAHIH@Z|
	DCD	|?SuspendResume@CHcd@@UAAHIH@Z|
	DCD	|?DidPortStatusChange@CHW@@UAAHE@Z|
	DCD	|?GetPortStatus@CHW@@UAAHEAAU_USB_HUB_AND_PORT_STATUS@@@Z|
	DCD	|?RootHubFeature@CHW@@UAAHEEG@Z|
	DCD	|?ResetAndEnablePort@CHW@@UAAHE@Z|
	DCD	|?DisablePort@CHW@@UAAXE@Z|
	DCD	|?WaitForPortStatusChange@CHW@@UAAHPAX@Z|
	DCD	|?SetCapability@?ICHcd@CHW@@UAAKK@Z|
	DCD	|?GetCapability@?ICHcd@CHW@@UAAKXZ|
	DCD	|?SuspendHC@CHcd@@UAAHXZ|
	DCD	|?ResumeNotification@CHcd@@MAAHXZ|
	DCD	|?Initialize@CHW@@UAAHXZ|
	DCD	|?DeInitialize@CHW@@UAAXXZ|
	DCD	|?SignalCheckForDoneTransfers@CHW@@UAAXK@Z|
; Function compile flags: /Odtp

  00000			 AREA	 |.text|, CODE, ARM

  00000		 |??0COhcd@@QAA@PAXPAVCPhysMem@@PBGRAE3KK@Z| PROC ; COhcd::COhcd

; 66   : {

  00000		 |$LN9@COhcd|
  00000	e1a0c00d	 mov         r12, sp
  00004	e92d000f	 stmdb       sp!, {r0 - r3}
  00008	e92d5000	 stmdb       sp!, {r12, lr}
  0000c	e24dd02c	 sub         sp, sp, #0x2C
  00010		 |$M41676|
  00010	e59d3038	 ldr         r3, [sp, #0x38]
  00014	e58d3008	 str         r3, [sp, #8]
  00018	e59d303c	 ldr         r3, [sp, #0x3C]
  0001c	e58d3004	 str         r3, [sp, #4]
  00020	e59d3050	 ldr         r3, [sp, #0x50]
  00024	e58d3000	 str         r3, [sp]
  00028	e59d304c	 ldr         r3, [sp, #0x4C]
  0002c	e59d2048	 ldr         r2, [sp, #0x48]
  00030	e59d1044	 ldr         r1, [sp, #0x44]
  00034	e59d0034	 ldr         r0, [sp, #0x34]
  00038	eb000000	 bl          |??0CHW@@QAA@SAE0KKQAVCPhysMem@@PAX@Z|
  0003c	e58d001c	 str         r0, [sp, #0x1C]
  00040	e59d103c	 ldr         r1, [sp, #0x3C]
  00044	e59d3034	 ldr         r3, [sp, #0x34]
  00048	e2833b01	 add         r3, r3, #1, 22
  0004c	e2830078	 add         r0, r3, #0x78
  00050	eb000000	 bl          |??0CHCCArea@@QAA@QAVCPhysMem@@@Z|
  00054	e58d0020	 str         r0, [sp, #0x20]
  00058	e59f20b4	 ldr         r2, [pc, #0xB4]
  0005c	e59d3034	 ldr         r3, [sp, #0x34]
  00060	e5832000	 str         r2, [r3]

; 67   :     DEBUGMSG(ZONE_HCD && ZONE_VERBOSE, (TEXT("+COhcd::COhcd\n")));

  00064	e59f30a0	 ldr         r3, [pc, #0xA0]
  00068	e5933440	 ldr         r3, [r3, #0x440]
  0006c	e3130001	 tst         r3, #1
  00070	0a000008	 beq         |$LN3@COhcd|
  00074	e59f3090	 ldr         r3, [pc, #0x90]
  00078	e5933440	 ldr         r3, [r3, #0x440]
  0007c	e3130a01	 tst         r3, #1, 20
  00080	0a000004	 beq         |$LN3@COhcd|
  00084	e59f0084	 ldr         r0, [pc, #0x84]
  00088	eb000000	 bl          NKDbgPrintfW
  0008c	e3a03001	 mov         r3, #1
  00090	e58d3024	 str         r3, [sp, #0x24]
  00094	ea000001	 b           |$LN4@COhcd|
  00098		 |$LN3@COhcd|
  00098	e3a03000	 mov         r3, #0
  0009c	e58d3024	 str         r3, [sp, #0x24]
  000a0		 |$LN4@COhcd|

; 68   :     m_dwSysIntr = dwSysIntr;

  000a0	e59d3034	 ldr         r3, [sp, #0x34]
  000a4	e2833c05	 add         r3, r3, #5, 24
  000a8	e28320b4	 add         r2, r3, #0xB4
  000ac	e59d304c	 ldr         r3, [sp, #0x4C]
  000b0	e5823000	 str         r3, [r2]

; 69   :     DEBUGMSG(ZONE_HCD && ZONE_VERBOSE, (TEXT("-COhcd::COhcd\n")));

  000b4	e59f3050	 ldr         r3, [pc, #0x50]
  000b8	e5933440	 ldr         r3, [r3, #0x440]
  000bc	e3130001	 tst         r3, #1
  000c0	0a000008	 beq         |$LN5@COhcd|
  000c4	e59f3040	 ldr         r3, [pc, #0x40]
  000c8	e5933440	 ldr         r3, [r3, #0x440]
  000cc	e3130a01	 tst         r3, #1, 20
  000d0	0a000004	 beq         |$LN5@COhcd|
  000d4	e59f002c	 ldr         r0, [pc, #0x2C]
  000d8	eb000000	 bl          NKDbgPrintfW
  000dc	e3a03001	 mov         r3, #1
  000e0	e58d3028	 str         r3, [sp, #0x28]
  000e4	ea000001	 b           |$LN6@COhcd|
  000e8		 |$LN5@COhcd|
  000e8	e3a03000	 mov         r3, #0
  000ec	e58d3028	 str         r3, [sp, #0x28]
  000f0		 |$LN6@COhcd|

; 70   : }

  000f0	e59d3034	 ldr         r3, [sp, #0x34]
  000f4	e58d3018	 str         r3, [sp, #0x18]
  000f8	e59d0018	 ldr         r0, [sp, #0x18]
  000fc	e28dd02c	 add         sp, sp, #0x2C
  00100	e89d6000	 ldmia       sp, {sp, lr}
  00104	e12fff1e	 bx          lr
  00108		 |$LN10@COhcd|
  00108		 |$LN11@COhcd|
  00108	00000000	 DCD         |??_C@_1BO@KGAIOMPP@?$AA?9?$AAC?$AAO?$AAh?$AAc?$AAd?$AA?3?$AA?3?$AAC?$AAO?$AAh?$AAc?$AAd?$AA?6?$AA?$AA@|
  0010c		 |$LN12@COhcd|
  0010c	00000000	 DCD         |dpCurSettings|
  00110		 |$LN13@COhcd|
  00110	00000000	 DCD         |??_C@_1BO@CPEKKGMP@?$AA?$CL?$AAC?$AAO?$AAh?$AAc?$AAd?$AA?3?$AA?3?$AAC?$AAO?$AAh?$AAc?$AAd?$AA?6?$AA?$AA@|
  00114		 |$LN14@COhcd|
  00114	00000000	 DCD         |??_7COhcd@@6B@|
  00118		 |$M41677|

			 ENDP  ; |??0COhcd@@QAA@PAXPAVCPhysMem@@PBGRAE3KK@Z|, COhcd::COhcd

; File c:\wince600\public\common\oak\drivers\usb\hcd\usb20\usb2com\hcd.hpp

  00000			 AREA	 |.pdata|, PDATA
|$T41690| DCD	|$LN5@SuspendHC|
	DCD	0x40000a04
; Function compile flags: /Odtp

  00000			 AREA	 |.text|, CODE, ARM

  00000		 |?SuspendHC@CHcd@@UAAHXZ| PROC		; CHcd::SuspendHC

; 112  :     virtual BOOL    SuspendHC() { return FALSE; }; // Default does not support it function.

  00000		 |$LN5@SuspendHC|
  00000	e1a0c00d	 mov         r12, sp
  00004	e92d0001	 stmdb       sp!, {r0}
  00008	e92d5000	 stmdb       sp!, {r12, lr}
  0000c	e24dd004	 sub         sp, sp, #4
  00010		 |$M41687|
  00010	e3a03000	 mov         r3, #0
  00014	e58d3000	 str         r3, [sp]
  00018	e59d0000	 ldr         r0, [sp]
  0001c	e28dd004	 add         sp, sp, #4
  00020	e89d6000	 ldmia       sp, {sp, lr}
  00024	e12fff1e	 bx          lr
  00028		 |$M41688|

			 ENDP  ; |?SuspendHC@CHcd@@UAAHXZ|, CHcd::SuspendHC

	EXPORT	|?Unlock@LockObject@@QAAXXZ|		; LockObject::Unlock
	EXPORT	|?Lock@LockObject@@QAAXXZ|		; LockObject::Lock

  00000			 AREA	 |.pdata|, PDATA
|$T41698| DCD	|$LN6@ResumeNoti|
	DCD	0x40003d04
; Function compile flags: /Odtp

  00000			 AREA	 |.text|, CODE, ARM

  00000		 |?ResumeNotification@CHcd@@MAAHXZ| PROC ; CHcd::ResumeNotification

; 120  :     virtual BOOL ResumeNotification ()  {

  00000		 |$LN6@ResumeNoti|
  00000	e1a0c00d	 mov         r12, sp
  00004	e92d0001	 stmdb       sp!, {r0}
  00008	e92d5000	 stmdb       sp!, {r12, lr}
  0000c	e24dd00c	 sub         sp, sp, #0xC
  00010		 |$M41695|

; 121  :         Lock();

  00010	e59d3014	 ldr         r3, [sp, #0x14]
  00014	e2830090	 add         r0, r3, #0x90
  00018	eb000000	 bl          |?Lock@LockObject@@QAAXXZ|

; 122  :         BOOL fReturn = FALSE;

  0001c	e3a03000	 mov         r3, #0
  00020	e58d3000	 str         r3, [sp]

; 123  :         if (m_pCRootHub) {

  00024	e59d3014	 ldr         r3, [sp, #0x14]
  00028	e28330a4	 add         r3, r3, #0xA4
  0002c	e5933000	 ldr         r3, [r3]
  00030	e3530000	 cmp         r3, #0
  00034	0a000025	 beq         |$LN1@ResumeNoti|

; 124  :             fReturn = m_pCRootHub->ResumeNotification();

  00038	e59d3014	 ldr         r3, [sp, #0x14]
  0003c	e28330a4	 add         r3, r3, #0xA4
  00040	e5932000	 ldr         r2, [r3]
  00044	e59d3014	 ldr         r3, [sp, #0x14]
  00048	e28330a4	 add         r3, r3, #0xA4
  0004c	e5930000	 ldr         r0, [r3]
  00050	e5923000	 ldr         r3, [r2]
  00054	e2833028	 add         r3, r3, #0x28
  00058	e5933000	 ldr         r3, [r3]
  0005c	e1a0e00f	 mov         lr, pc
  00060	e12fff13	 bx          r3
  00064	e58d0008	 str         r0, [sp, #8]
  00068	e59d3008	 ldr         r3, [sp, #8]
  0006c	e58d3000	 str         r3, [sp]

; 125  :             m_pCRootHub->NotifyOnSuspendedResumed(FALSE);

  00070	e3a01000	 mov         r1, #0
  00074	e59d3014	 ldr         r3, [sp, #0x14]
  00078	e28330a4	 add         r3, r3, #0xA4
  0007c	e5932000	 ldr         r2, [r3]
  00080	e59d3014	 ldr         r3, [sp, #0x14]
  00084	e28330a4	 add         r3, r3, #0xA4
  00088	e5930000	 ldr         r0, [r3]
  0008c	e5923000	 ldr         r3, [r2]
  00090	e283302c	 add         r3, r3, #0x2C
  00094	e5933000	 ldr         r3, [r3]
  00098	e1a0e00f	 mov         lr, pc
  0009c	e12fff13	 bx          r3

; 126  :             m_pCRootHub->NotifyOnSuspendedResumed(TRUE);

  000a0	e3a01001	 mov         r1, #1
  000a4	e59d3014	 ldr         r3, [sp, #0x14]
  000a8	e28330a4	 add         r3, r3, #0xA4
  000ac	e5932000	 ldr         r2, [r3]
  000b0	e59d3014	 ldr         r3, [sp, #0x14]
  000b4	e28330a4	 add         r3, r3, #0xA4
  000b8	e5930000	 ldr         r0, [r3]
  000bc	e5923000	 ldr         r3, [r2]
  000c0	e283302c	 add         r3, r3, #0x2C
  000c4	e5933000	 ldr         r3, [r3]
  000c8	e1a0e00f	 mov         lr, pc
  000cc	e12fff13	 bx          r3
  000d0		 |$LN1@ResumeNoti|

; 127  :         }
; 128  :         Unlock();

  000d0	e59d3014	 ldr         r3, [sp, #0x14]
  000d4	e2830090	 add         r0, r3, #0x90
  000d8	eb000000	 bl          |?Unlock@LockObject@@QAAXXZ|

; 129  :         return fReturn;

  000dc	e59d3000	 ldr         r3, [sp]
  000e0	e58d3004	 str         r3, [sp, #4]

; 130  :     }

  000e4	e59d0004	 ldr         r0, [sp, #4]
  000e8	e28dd00c	 add         sp, sp, #0xC
  000ec	e89d6000	 ldmia       sp, {sp, lr}
  000f0	e12fff1e	 bx          lr
  000f4		 |$M41696|

			 ENDP  ; |?ResumeNotification@CHcd@@MAAHXZ|, CHcd::ResumeNotification

	IMPORT	|EnterCriticalSection|
; File c:\wince600\public\common\oak\drivers\usb\hcd\usb20\usb2com\sync.hpp

  00000			 AREA	 |.pdata|, PDATA
|$T41705| DCD	|$LN5@Lock|
	DCD	0x40000703
; Function compile flags: /Odtp

  00000			 AREA	 |.text|, CODE, ARM

  00000		 |?Lock@LockObject@@QAAXXZ| PROC	; LockObject::Lock

; 74   :     void Lock(void) { EnterCriticalSection(&m_CSection); };

  00000		 |$LN5@Lock|
  00000	e1a0c00d	 mov         r12, sp
  00004	e92d0001	 stmdb       sp!, {r0}
  00008	e92d5000	 stmdb       sp!, {r12, lr}
  0000c		 |$M41702|
  0000c	e59d0008	 ldr         r0, [sp, #8]
  00010	eb000000	 bl          EnterCriticalSection
  00014	e89d6000	 ldmia       sp, {sp, lr}
  00018	e12fff1e	 bx          lr
  0001c		 |$M41703|

			 ENDP  ; |?Lock@LockObject@@QAAXXZ|, LockObject::Lock

	IMPORT	|LeaveCriticalSection|

  00000			 AREA	 |.pdata|, PDATA
|$T41712| DCD	|$LN5@Unlock|
	DCD	0x40000703
; Function compile flags: /Odtp

  00000			 AREA	 |.text|, CODE, ARM

  00000		 |?Unlock@LockObject@@QAAXXZ| PROC	; LockObject::Unlock

; 75   :     void Unlock(void) {LeaveCriticalSection( &m_CSection); };

  00000		 |$LN5@Unlock|
  00000	e1a0c00d	 mov         r12, sp
  00004	e92d0001	 stmdb       sp!, {r0}
  00008	e92d5000	 stmdb       sp!, {r12, lr}
  0000c		 |$M41709|
  0000c	e59d0008	 ldr         r0, [sp, #8]
  00010	eb000000	 bl          LeaveCriticalSection
  00014	e89d6000	 ldmia       sp, {sp, lr}
  00018	e12fff1e	 bx          lr
  0001c		 |$M41710|

			 ENDP  ; |?Unlock@LockObject@@QAAXXZ|, LockObject::Unlock

	EXPORT	|??_C@_1FK@FNONLNGN@?$AA?$CF?$AAs?$AA?3?$AA?5?$AAD?$AAE?$AAB?$AAU?$AAG?$AAC?$AAH?$AAK?$AA?5?$AAf?$AAa?$AAi?$AAl?$AAe?$AAd?$AA?5?$AAi?$AAn?$AA?5?$AAf?$AAi?$AAl?$AAe?$AA?5?$AA?$CF?$AAs?$AA?5?$AAa@| [ DATA ] ; `string'
	EXPORT	|??_C@_1BA@LEPJIIOK@?$AAU?$AAn?$AAk?$AAn?$AAo?$AAw?$AAn?$AA?$AA@| [ DATA ] ; `string'
	EXPORT	|??_C@_1JC@CKCKCJMC@?$AAc?$AA?3?$AA?2?$AAw?$AAi?$AAn?$AAc?$AAe?$AA6?$AA0?$AA0?$AA?2?$AAp?$AAl?$AAa?$AAt?$AAf?$AAo?$AAr?$AAm?$AA?2?$AAc?$AAo?$AAm?$AAm?$AAo?$AAn?$AA?2?$AAs?$AAr?$AAc?$AA?2@| [ DATA ] ; `string'
; File c:\wince600\platform\common\src\soc\common_ti_v1\am3517\usb\usbh\chw.hpp

  00000			 AREA	 |.pdata|, PDATA
|$T41721| DCD	|$LN7@SignalChec|
	DCD	0x40001604

  00000			 AREA	 |.rdata|, DATA, READONLY
|??_C@_1FK@FNONLNGN@?$AA?$CF?$AAs?$AA?3?$AA?5?$AAD?$AAE?$AAB?$AAU?$AAG?$AAC?$AAH?$AAK?$AA?5?$AAf?$AAa?$AAi?$AAl?$AAe?$AAd?$AA?5?$AAi?$AAn?$AA?5?$AAf?$AAi?$AAl?$AAe?$AA?5?$AA?$CF?$AAs?$AA?5?$AAa@| DCB "%"
	DCB	0x0, "s", 0x0, ":", 0x0, " ", 0x0, "D", 0x0, "E", 0x0, "B"
	DCB	0x0, "U", 0x0, "G", 0x0, "C", 0x0, "H", 0x0, "K", 0x0, " "
	DCB	0x0, "f", 0x0, "a", 0x0, "i", 0x0, "l", 0x0, "e", 0x0, "d"
	DCB	0x0, " ", 0x0, "i", 0x0, "n", 0x0, " ", 0x0, "f", 0x0, "i"
	DCB	0x0, "l", 0x0, "e", 0x0, " ", 0x0, "%", 0x0, "s", 0x0, " "
	DCB	0x0, "a", 0x0, "t", 0x0, " ", 0x0, "l", 0x0, "i", 0x0, "n"
	DCB	0x0, "e", 0x0, " ", 0x0, "%", 0x0, "d", 0x0, " ", 0x0, 0xd
	DCB	0x0, 0xa, 0x0, 0x0, 0x0			; `string'

  00000			 AREA	 |.rdata|, DATA, READONLY
|??_C@_1BA@LEPJIIOK@?$AAU?$AAn?$AAk?$AAn?$AAo?$AAw?$AAn?$AA?$AA@| DCB "U", 0x0
	DCB	"n", 0x0, "k", 0x0, "n", 0x0, "o", 0x0, "w", 0x0, "n", 0x0
	DCB	0x0, 0x0				; `string'

  00000			 AREA	 |.rdata|, DATA, READONLY
|??_C@_1JC@CKCKCJMC@?$AAc?$AA?3?$AA?2?$AAw?$AAi?$AAn?$AAc?$AAe?$AA6?$AA0?$AA0?$AA?2?$AAp?$AAl?$AAa?$AAt?$AAf?$AAo?$AAr?$AAm?$AA?2?$AAc?$AAo?$AAm?$AAm?$AAo?$AAn?$AA?2?$AAs?$AAr?$AAc?$AA?2@| DCB "c"
	DCB	0x0, ":", 0x0, "\\", 0x0, "w", 0x0, "i", 0x0, "n", 0x0, "c"
	DCB	0x0, "e", 0x0, "6", 0x0, "0", 0x0, "0", 0x0, "\\", 0x0, "p"
	DCB	0x0, "l", 0x0, "a", 0x0, "t", 0x0, "f", 0x0, "o", 0x0, "r"
	DCB	0x0, "m", 0x0, "\\", 0x0, "c", 0x0, "o", 0x0, "m", 0x0, "m"
	DCB	0x0, "o", 0x0, "n", 0x0, "\\", 0x0, "s", 0x0, "r", 0x0, "c"
	DCB	0x0, "\\", 0x0, "s", 0x0, "o", 0x0, "c", 0x0, "\\", 0x0, "c"
	DCB	0x0, "o", 0x0, "m", 0x0, "m", 0x0, "o", 0x0, "n", 0x0, "_"
	DCB	0x0, "t", 0x0, "i", 0x0, "_", 0x0, "v", 0x0, "1", 0x0, "\\"
	DCB	0x0, "a", 0x0, "m", 0x0, "3", 0x0, "5", 0x0, "1", 0x0, "7"
	DCB	0x0, "\\", 0x0, "u", 0x0, "s", 0x0, "b", 0x0, "\\", 0x0, "u"
	DCB	0x0, "s", 0x0, "b", 0x0, "h", 0x0, "\\", 0x0, "C", 0x0, "h"
	DCB	0x0, "w", 0x0, ".", 0x0, "h", 0x0, "p", 0x0, "p", 0x0, 0x0
	DCB	0x0					; `string'
; Function compile flags: /Odtp

  00000			 AREA	 |.text|, CODE, ARM

  00000		 |?SignalCheckForDoneTransfers@CHW@@UAAXK@Z| PROC ; CHW::SignalCheckForDoneTransfers

; 85   :     virtual void   SignalCheckForDoneTransfers ( DWORD  ) { ASSERT(FALSE); };

  00000		 |$LN7@SignalChec|
  00000	e1a0c00d	 mov         r12, sp
  00004	e92d0003	 stmdb       sp!, {r0, r1}
  00008	e92d5000	 stmdb       sp!, {r12, lr}
  0000c	e24dd004	 sub         sp, sp, #4
  00010		 |$M41718|
  00010	ea000002	 b           |$LN3@SignalChec|
  00014	e3a03001	 mov         r3, #1
  00018	e58d3000	 str         r3, [sp]
  0001c	ea000007	 b           |$LN4@SignalChec|
  00020		 |$LN3@SignalChec|
  00020	e3a03055	 mov         r3, #0x55
  00024	e59f2028	 ldr         r2, [pc, #0x28]
  00028	e59f1020	 ldr         r1, [pc, #0x20]
  0002c	e59f0018	 ldr         r0, [pc, #0x18]
  00030	eb000000	 bl          NKDbgPrintfW
  00034	e6000010	 __debugbreak_ce
  00038	e3a03000	 mov         r3, #0
  0003c	e58d3000	 str         r3, [sp]
  00040		 |$LN4@SignalChec|
  00040	e28dd004	 add         sp, sp, #4
  00044	e89d6000	 ldmia       sp, {sp, lr}
  00048	e12fff1e	 bx          lr
  0004c		 |$LN8@SignalChec|
  0004c		 |$LN9@SignalChec|
  0004c	00000000	 DCD         |??_C@_1FK@FNONLNGN@?$AA?$CF?$AAs?$AA?3?$AA?5?$AAD?$AAE?$AAB?$AAU?$AAG?$AAC?$AAH?$AAK?$AA?5?$AAf?$AAa?$AAi?$AAl?$AAe?$AAd?$AA?5?$AAi?$AAn?$AA?5?$AAf?$AAi?$AAl?$AAe?$AA?5?$AA?$CF?$AAs?$AA?5?$AAa@|
  00050		 |$LN10@SignalChec|
  00050	00000000	 DCD         |??_C@_1BA@LEPJIIOK@?$AAU?$AAn?$AAk?$AAn?$AAo?$AAw?$AAn?$AA?$AA@|
  00054		 |$LN11@SignalChec|
  00054	00000000	 DCD         |??_C@_1JC@CKCKCJMC@?$AAc?$AA?3?$AA?2?$AAw?$AAi?$AAn?$AAc?$AAe?$AA6?$AA0?$AA0?$AA?2?$AAp?$AAl?$AAa?$AAt?$AAf?$AAo?$AAr?$AAm?$AA?2?$AAc?$AAo?$AAm?$AAm?$AAo?$AAn?$AA?2?$AAs?$AAr?$AAc?$AA?2@|
  00058		 |$M41719|

			 ENDP  ; |?SignalCheckForDoneTransfers@CHW@@UAAXK@Z|, CHW::SignalCheckForDoneTransfers


  00000			 AREA	 |.pdata|, PDATA
|$T41733| DCD	|$LN5@StopAdjust|
	DCD	0x40000a04
; Function compile flags: /Odtp

  00000			 AREA	 |.text|, CODE, ARM

  00000		 |?StopAdjustingFrame@CHW@@UAAHXZ| PROC	; CHW::StopAdjustingFrame

; 94   :     BOOL StopAdjustingFrame(void) { return TRUE; };

  00000		 |$LN5@StopAdjust|
  00000	e1a0c00d	 mov         r12, sp
  00004	e92d0001	 stmdb       sp!, {r0}
  00008	e92d5000	 stmdb       sp!, {r12, lr}
  0000c	e24dd004	 sub         sp, sp, #4
  00010		 |$M41730|
  00010	e3a03001	 mov         r3, #1
  00014	e58d3000	 str         r3, [sp]
  00018	e59d0000	 ldr         r0, [sp]
  0001c	e28dd004	 add         sp, sp, #4
  00020	e89d6000	 ldmia       sp, {sp, lr}
  00024	e12fff1e	 bx          lr
  00028		 |$M41731|

			 ENDP  ; |?StopAdjustingFrame@CHW@@UAAHXZ|, CHW::StopAdjustingFrame


  00000			 AREA	 |.pdata|, PDATA
|$T41741| DCD	|$LN5@GetCapabil|
	DCD	0x40000c04
; Function compile flags: /Odtp

  00000			 AREA	 |.text|, CODE, ARM

  00000		 |?GetCapability@?ICHcd@CHW@@UAAKXZ| PROC ; CHW[::CHcd]::GetCapability

; 116  :     DWORD CHcd::GetCapability(void) { return m_dwCap; }

  00000		 |$LN5@GetCapabil|
  00000	e1a0c00d	 mov         r12, sp
  00004	e92d0001	 stmdb       sp!, {r0}
  00008	e92d5000	 stmdb       sp!, {r12, lr}
  0000c	e24dd004	 sub         sp, sp, #4
  00010		 |$M41738|
  00010	e59d300c	 ldr         r3, [sp, #0xC]
  00014	e2833e1a	 add         r3, r3, #0x1A, 28
  00018	e5933000	 ldr         r3, [r3]
  0001c	e58d3000	 str         r3, [sp]
  00020	e59d0000	 ldr         r0, [sp]
  00024	e28dd004	 add         sp, sp, #4
  00028	e89d6000	 ldmia       sp, {sp, lr}
  0002c	e12fff1e	 bx          lr
  00030		 |$M41739|

			 ENDP  ; |?GetCapability@?ICHcd@CHW@@UAAKXZ|, CHW[::CHcd]::GetCapability


  00000			 AREA	 |.pdata|, PDATA
|$T41749| DCD	|$LN5@SetCapabil|
	DCD	0x40001404
; Function compile flags: /Odtp

  00000			 AREA	 |.text|, CODE, ARM

  00000		 |?SetCapability@?ICHcd@CHW@@UAAKK@Z| PROC ; CHW[::CHcd]::SetCapability

; 117  :     DWORD CHcd::SetCapability(DWORD dwCap) { return (m_dwCap |= dwCap); }

  00000		 |$LN5@SetCapabil|
  00000	e1a0c00d	 mov         r12, sp
  00004	e92d0003	 stmdb       sp!, {r0, r1}
  00008	e92d5000	 stmdb       sp!, {r12, lr}
  0000c	e24dd004	 sub         sp, sp, #4
  00010		 |$M41746|
  00010	e59d300c	 ldr         r3, [sp, #0xC]
  00014	e2833e1a	 add         r3, r3, #0x1A, 28
  00018	e5932000	 ldr         r2, [r3]
  0001c	e59d3010	 ldr         r3, [sp, #0x10]
  00020	e1822003	 orr         r2, r2, r3
  00024	e59d300c	 ldr         r3, [sp, #0xC]
  00028	e2833e1a	 add         r3, r3, #0x1A, 28
  0002c	e5832000	 str         r2, [r3]
  00030	e59d300c	 ldr         r3, [sp, #0xC]
  00034	e2833e1a	 add         r3, r3, #0x1A, 28
  00038	e5933000	 ldr         r3, [r3]
  0003c	e58d3000	 str         r3, [sp]
  00040	e59d0000	 ldr         r0, [sp]
  00044	e28dd004	 add         sp, sp, #4
  00048	e89d6000	 ldmia       sp, {sp, lr}
  0004c	e12fff1e	 bx          lr
  00050		 |$M41747|

			 ENDP  ; |?SetCapability@?ICHcd@CHW@@UAAKK@Z|, CHW[::CHcd]::SetCapability

; File c:\wince600\platform\common\src\soc\common_ti_v1\am3517\usb\usbh\cohcd.hpp

  00000			 AREA	 |.pdata|, PDATA
|$T41757| DCD	|$LN5@AddedTt|
	DCD	0x40000e04
; Function compile flags: /Odtp

  00000			 AREA	 |.text|, CODE, ARM

  00000		 |?AddedTt@COhcd@@UAAHEE@Z| PROC	; COhcd::AddedTt

; 71   :     virtual BOOL AddedTt( UCHAR uHubAddress,UCHAR uPort) { uHubAddress = uHubAddress;uPort = uPort;return TRUE; };

  00000		 |$LN5@AddedTt|
  00000	e1a0c00d	 mov         r12, sp
  00004	e92d0007	 stmdb       sp!, {r0 - r2}
  00008	e92d5000	 stmdb       sp!, {r12, lr}
  0000c	e24dd004	 sub         sp, sp, #4
  00010		 |$M41754|
  00010	e5dd3010	 ldrb        r3, [sp, #0x10]
  00014	e5cd3010	 strb        r3, [sp, #0x10]
  00018	e5dd3014	 ldrb        r3, [sp, #0x14]
  0001c	e5cd3014	 strb        r3, [sp, #0x14]
  00020	e3a03001	 mov         r3, #1
  00024	e58d3000	 str         r3, [sp]
  00028	e59d0000	 ldr         r0, [sp]
  0002c	e28dd004	 add         sp, sp, #4
  00030	e89d6000	 ldmia       sp, {sp, lr}
  00034	e12fff1e	 bx          lr
  00038		 |$M41755|

			 ENDP  ; |?AddedTt@COhcd@@UAAHEE@Z|, COhcd::AddedTt


  00000			 AREA	 |.pdata|, PDATA
|$T41765| DCD	|$LN5@DeleteTt|
	DCD	0x40000e04
; Function compile flags: /Odtp

  00000			 AREA	 |.text|, CODE, ARM

  00000		 |?DeleteTt@COhcd@@UAAHEE@Z| PROC	; COhcd::DeleteTt

; 72   :     virtual BOOL DeleteTt( UCHAR uHubAddress,UCHAR uPort) { uHubAddress = uHubAddress;uPort = uPort;return TRUE; };

  00000		 |$LN5@DeleteTt|
  00000	e1a0c00d	 mov         r12, sp
  00004	e92d0007	 stmdb       sp!, {r0 - r2}
  00008	e92d5000	 stmdb       sp!, {r12, lr}
  0000c	e24dd004	 sub         sp, sp, #4
  00010		 |$M41762|
  00010	e5dd3010	 ldrb        r3, [sp, #0x10]
  00014	e5cd3010	 strb        r3, [sp, #0x10]
  00018	e5dd3014	 ldrb        r3, [sp, #0x14]
  0001c	e5cd3014	 strb        r3, [sp, #0x14]
  00020	e3a03001	 mov         r3, #1
  00024	e58d3000	 str         r3, [sp]
  00028	e59d0000	 ldr         r0, [sp]
  0002c	e28dd004	 add         sp, sp, #4
  00030	e89d6000	 ldmia       sp, {sp, lr}
  00034	e12fff1e	 bx          lr
  00038		 |$M41763|

			 ENDP  ; |?DeleteTt@COhcd@@UAAHEE@Z|, COhcd::DeleteTt

	EXPORT	|??1COhcd@@UAA@XZ|			; COhcd::~COhcd
	IMPORT	|??3@YAXPAX@Z|				; operator delete

  00000			 AREA	 |.pdata|, PDATA
|$T41773| DCD	|$LN6@scalar|
	DCD	0x40001104
; Function compile flags: /Odtp

  00000			 AREA	 |.text|, CODE, ARM

  00000		 |??_GCOhcd@@UAAPAXI@Z| PROC		; COhcd::`scalar deleting destructor'
  00000		 |$LN6@scalar|
  00000	e1a0c00d	 mov         r12, sp
  00004	e92d0003	 stmdb       sp!, {r0, r1}
  00008	e92d5000	 stmdb       sp!, {r12, lr}
  0000c	e24dd004	 sub         sp, sp, #4
  00010		 |$M41770|
  00010	e59d000c	 ldr         r0, [sp, #0xC]
  00014	eb000000	 bl          |??1COhcd@@UAA@XZ|
  00018	e59d3010	 ldr         r3, [sp, #0x10]
  0001c	e3130001	 tst         r3, #1
  00020	0a000001	 beq         |$LN1@scalar|
  00024	e59d000c	 ldr         r0, [sp, #0xC]
  00028	eb000000	 bl          |??3@YAXPAX@Z|
  0002c		 |$LN1@scalar|
  0002c	e59d300c	 ldr         r3, [sp, #0xC]
  00030	e58d3000	 str         r3, [sp]
  00034	e59d0000	 ldr         r0, [sp]
  00038	e28dd004	 add         sp, sp, #4
  0003c	e89d6000	 ldmia       sp, {sp, lr}
  00040	e12fff1e	 bx          lr
  00044		 |$M41771|

			 ENDP  ; |??_GCOhcd@@UAAPAXI@Z|, COhcd::`scalar deleting destructor'

	EXPORT	|??_C@_1CA@CLPACNGJ@?$AA?9?$AAC?$AAO?$AAh?$AAc?$AAd?$AA?3?$AA?3?$AA?$HO?$AAC?$AAO?$AAh?$AAc?$AAd?$AA?6?$AA?$AA@| [ DATA ] ; `string'
	EXPORT	|??_C@_1CA@GCLPDKFG@?$AA?$CL?$AAC?$AAO?$AAh?$AAc?$AAd?$AA?3?$AA?3?$AA?$HO?$AAC?$AAO?$AAh?$AAc?$AAd?$AA?6?$AA?$AA@| [ DATA ] ; `string'
	IMPORT	|??1CHW@@UAA@XZ|			; CHW::~CHW
	IMPORT	|??1CHCCArea@@QAA@XZ|			; CHCCArea::~CHCCArea
	IMPORT	|?StopHostController@CHW@@QAAXXZ|	; CHW::StopHostController
	IMPORT	|?SetRootHub@CHcd@@QAAPAVCRootHub@@PAV2@@Z| ; CHcd::SetRootHub

  00008			 AREA	 |.pdata|, PDATA
|$T41790| DCD	|$LN14@COhcd@2|
	DCD	0x40006004
; File c:\wince600\platform\common\src\soc\common_ti_v1\am3517\usb\usbh\cohcd.cpp

  00000			 AREA	 |.rdata|, DATA, READONLY
|??_C@_1CA@CLPACNGJ@?$AA?9?$AAC?$AAO?$AAh?$AAc?$AAd?$AA?3?$AA?3?$AA?$HO?$AAC?$AAO?$AAh?$AAc?$AAd?$AA?6?$AA?$AA@| DCB "-"
	DCB	0x0, "C", 0x0, "O", 0x0, "h", 0x0, "c", 0x0, "d", 0x0, ":"
	DCB	0x0, ":", 0x0, "~", 0x0, "C", 0x0, "O", 0x0, "h", 0x0, "c"
	DCB	0x0, "d", 0x0, 0xa, 0x0, 0x0, 0x0	; `string'

  00000			 AREA	 |.rdata|, DATA, READONLY
|??_C@_1CA@GCLPDKFG@?$AA?$CL?$AAC?$AAO?$AAh?$AAc?$AAd?$AA?3?$AA?3?$AA?$HO?$AAC?$AAO?$AAh?$AAc?$AAd?$AA?6?$AA?$AA@| DCB "+"
	DCB	0x0, "C", 0x0, "O", 0x0, "h", 0x0, "c", 0x0, "d", 0x0, ":"
	DCB	0x0, ":", 0x0, "~", 0x0, "C", 0x0, "O", 0x0, "h", 0x0, "c"
	DCB	0x0, "d", 0x0, 0xa, 0x0, 0x0, 0x0	; `string'
; Function compile flags: /Odtp

  00118			 AREA	 |.text|, CODE, ARM

  00118		 |??1COhcd@@UAA@XZ| PROC		; COhcd::~COhcd

; 83   : {

  00118		 |$LN14@COhcd@2|
  00118	e1a0c00d	 mov         r12, sp
  0011c	e92d0001	 stmdb       sp!, {r0}
  00120	e92d5000	 stmdb       sp!, {r12, lr}
  00124	e24dd024	 sub         sp, sp, #0x24
  00128		 |$M41787|
  00128	e59f2164	 ldr         r2, [pc, #0x164]
  0012c	e59d302c	 ldr         r3, [sp, #0x2C]
  00130	e5832000	 str         r2, [r3]

; 84   :     DEBUGMSG(ZONE_HCD && ZONE_VERBOSE, (TEXT("+COhcd::~COhcd\n")));

  00134	e59f3150	 ldr         r3, [pc, #0x150]
  00138	e5933440	 ldr         r3, [r3, #0x440]
  0013c	e3130001	 tst         r3, #1
  00140	0a000008	 beq         |$LN6@COhcd@2|
  00144	e59f3140	 ldr         r3, [pc, #0x140]
  00148	e5933440	 ldr         r3, [r3, #0x440]
  0014c	e3130a01	 tst         r3, #1, 20
  00150	0a000004	 beq         |$LN6@COhcd@2|
  00154	e59f0134	 ldr         r0, [pc, #0x134]
  00158	eb000000	 bl          NKDbgPrintfW
  0015c	e3a03001	 mov         r3, #1
  00160	e58d300c	 str         r3, [sp, #0xC]
  00164	ea000001	 b           |$LN7@COhcd@2|
  00168		 |$LN6@COhcd@2|
  00168	e3a03000	 mov         r3, #0
  0016c	e58d300c	 str         r3, [sp, #0xC]
  00170		 |$LN7@COhcd@2|

; 85   : 
; 86   :     // make the API set inaccessible
; 87   :     CRootHub *pRoot = SetRootHub(NULL);

  00170	e3a01000	 mov         r1, #0
  00174	e59d002c	 ldr         r0, [sp, #0x2C]
  00178	eb000000	 bl          |?SetRootHub@CHcd@@QAAPAVCRootHub@@PAV2@@Z|
  0017c	e58d0010	 str         r0, [sp, #0x10]
  00180	e59d3010	 ldr         r3, [sp, #0x10]
  00184	e58d3000	 str         r3, [sp]

; 88   :     // signal root hub to close
; 89   :     if ( pRoot ) {

  00188	e59d3000	 ldr         r3, [sp]
  0018c	e3530000	 cmp         r3, #0
  00190	0a00001a	 beq         |$LN1@COhcd@2|

; 90   :         pRoot->HandleDetach();

  00194	e59d3000	 ldr         r3, [sp]
  00198	e5933000	 ldr         r3, [r3]
  0019c	e2833030	 add         r3, r3, #0x30
  001a0	e59d0000	 ldr         r0, [sp]
  001a4	e5933000	 ldr         r3, [r3]
  001a8	e1a0e00f	 mov         lr, pc
  001ac	e12fff13	 bx          r3

; 91   :         delete pRoot;

  001b0	e59d3000	 ldr         r3, [sp]
  001b4	e58d3008	 str         r3, [sp, #8]
  001b8	e59d3008	 ldr         r3, [sp, #8]
  001bc	e58d3004	 str         r3, [sp, #4]
  001c0	e59d3004	 ldr         r3, [sp, #4]
  001c4	e3530000	 cmp         r3, #0
  001c8	0a00000a	 beq         |$LN8@COhcd@2|
  001cc	e3a01001	 mov         r1, #1
  001d0	e59d3004	 ldr         r3, [sp, #4]
  001d4	e5933000	 ldr         r3, [r3]
  001d8	e59d0004	 ldr         r0, [sp, #4]
  001dc	e5933000	 ldr         r3, [r3]
  001e0	e1a0e00f	 mov         lr, pc
  001e4	e12fff13	 bx          r3
  001e8	e58d0014	 str         r0, [sp, #0x14]
  001ec	e59d3014	 ldr         r3, [sp, #0x14]
  001f0	e58d3018	 str         r3, [sp, #0x18]
  001f4	ea000001	 b           |$LN9@COhcd@2|
  001f8		 |$LN8@COhcd@2|
  001f8	e3a03000	 mov         r3, #0
  001fc	e58d3018	 str         r3, [sp, #0x18]
  00200		 |$LN9@COhcd@2|
  00200		 |$LN1@COhcd@2|

; 92   :     }
; 93   :     CHW::StopHostController();

  00200	e59d002c	 ldr         r0, [sp, #0x2C]
  00204	eb000000	 bl          |?StopHostController@CHW@@QAAXXZ|

; 94   : 
; 95   :     DEBUGMSG(ZONE_HCD && ZONE_VERBOSE, (TEXT("-COhcd::~COhcd\n")));

  00208	e59f307c	 ldr         r3, [pc, #0x7C]
  0020c	e5933440	 ldr         r3, [r3, #0x440]
  00210	e3130001	 tst         r3, #1
  00214	0a000008	 beq         |$LN10@COhcd@2|
  00218	e59f306c	 ldr         r3, [pc, #0x6C]
  0021c	e5933440	 ldr         r3, [r3, #0x440]
  00220	e3130a01	 tst         r3, #1, 20
  00224	0a000004	 beq         |$LN10@COhcd@2|
  00228	e59f0058	 ldr         r0, [pc, #0x58]
  0022c	eb000000	 bl          NKDbgPrintfW
  00230	e3a03001	 mov         r3, #1
  00234	e58d301c	 str         r3, [sp, #0x1C]
  00238	ea000001	 b           |$LN11@COhcd@2|
  0023c		 |$LN10@COhcd@2|
  0023c	e3a03000	 mov         r3, #0
  00240	e58d301c	 str         r3, [sp, #0x1C]
  00244		 |$LN11@COhcd@2|

; 96   : }

  00244	e59d302c	 ldr         r3, [sp, #0x2C]
  00248	e3530000	 cmp         r3, #0
  0024c	0a000004	 beq         |$LN4@COhcd@2|
  00250	e59d302c	 ldr         r3, [sp, #0x2C]
  00254	e2833b01	 add         r3, r3, #1, 22
  00258	e2833078	 add         r3, r3, #0x78
  0025c	e58d3020	 str         r3, [sp, #0x20]
  00260	ea000001	 b           |$LN5@COhcd@2|
  00264		 |$LN4@COhcd@2|
  00264	e3a03000	 mov         r3, #0
  00268	e58d3020	 str         r3, [sp, #0x20]
  0026c		 |$LN5@COhcd@2|
  0026c	e59d0020	 ldr         r0, [sp, #0x20]
  00270	eb000000	 bl          |??1CHCCArea@@QAA@XZ|
  00274	e59d002c	 ldr         r0, [sp, #0x2C]
  00278	eb000000	 bl          |??1CHW@@UAA@XZ|
  0027c	e28dd024	 add         sp, sp, #0x24
  00280	e89d6000	 ldmia       sp, {sp, lr}
  00284	e12fff1e	 bx          lr
  00288		 |$LN15@COhcd@2|
  00288		 |$LN16@COhcd@2|
  00288	00000000	 DCD         |??_C@_1CA@CLPACNGJ@?$AA?9?$AAC?$AAO?$AAh?$AAc?$AAd?$AA?3?$AA?3?$AA?$HO?$AAC?$AAO?$AAh?$AAc?$AAd?$AA?6?$AA?$AA@|
  0028c		 |$LN17@COhcd@2|
  0028c	00000000	 DCD         |dpCurSettings|
  00290		 |$LN18@COhcd@2|
  00290	00000000	 DCD         |??_C@_1CA@GCLPDKFG@?$AA?$CL?$AAC?$AAO?$AAh?$AAc?$AAd?$AA?3?$AA?3?$AA?$HO?$AAC?$AAO?$AAh?$AAc?$AAd?$AA?6?$AA?$AA@|
  00294		 |$LN19@COhcd@2|
  00294	00000000	 DCD         |??_7COhcd@@6B@|
  00298		 |$M41788|

			 ENDP  ; |??1COhcd@@UAA@XZ|, COhcd::~COhcd

	EXPORT	|??_C@_1CM@MLKLFHDG@?$AA?9?$AAC?$AAO?$AAh?$AAc?$AAd?$AA?3?$AA?3?$AAD?$AAe?$AAI?$AAn?$AAi?$AAt?$AAi?$AAa?$AAl?$AAi?$AAz?$AAe?$AA?6?$AA?$AA@| [ DATA ] ; `string'
	EXPORT	|??_C@_1CM@DHFLMGHK@?$AA?$CL?$AAC?$AAO?$AAh?$AAc?$AAd?$AA?3?$AA?3?$AAD?$AAe?$AAI?$AAn?$AAi?$AAt?$AAi?$AAa?$AAl?$AAi?$AAz?$AAe?$AA?6?$AA?$AA@| [ DATA ] ; `string'
	IMPORT	|?DeInitialize@CDeviceGlobal@@QAAXXZ|	; CDeviceGlobal::DeInitialize
	IMPORT	|?DeInitialize@CHCCArea@@QAAXXZ|	; CHCCArea::DeInitialize
	IMPORT	|?WaitForPipes@CHCCArea@@QAAHK@Z|	; CHCCArea::WaitForPipes

  00010			 AREA	 |.pdata|, PDATA
|$T41808| DCD	|$LN12@DeviceDeIn|
	DCD	0x40005c04

  00000			 AREA	 |.rdata|, DATA, READONLY
|??_C@_1CM@MLKLFHDG@?$AA?9?$AAC?$AAO?$AAh?$AAc?$AAd?$AA?3?$AA?3?$AAD?$AAe?$AAI?$AAn?$AAi?$AAt?$AAi?$AAa?$AAl?$AAi?$AAz?$AAe?$AA?6?$AA?$AA@| DCB "-"
	DCB	0x0, "C", 0x0, "O", 0x0, "h", 0x0, "c", 0x0, "d", 0x0, ":"
	DCB	0x0, ":", 0x0, "D", 0x0, "e", 0x0, "I", 0x0, "n", 0x0, "i"
	DCB	0x0, "t", 0x0, "i", 0x0, "a", 0x0, "l", 0x0, "i", 0x0, "z"
	DCB	0x0, "e", 0x0, 0xa, 0x0, 0x0, 0x0	; `string'

  00000			 AREA	 |.rdata|, DATA, READONLY
|??_C@_1CM@DHFLMGHK@?$AA?$CL?$AAC?$AAO?$AAh?$AAc?$AAd?$AA?3?$AA?3?$AAD?$AAe?$AAI?$AAn?$AAi?$AAt?$AAi?$AAa?$AAl?$AAi?$AAz?$AAe?$AA?6?$AA?$AA@| DCB "+"
	DCB	0x0, "C", 0x0, "O", 0x0, "h", 0x0, "c", 0x0, "d", 0x0, ":"
	DCB	0x0, ":", 0x0, "D", 0x0, "e", 0x0, "I", 0x0, "n", 0x0, "i"
	DCB	0x0, "t", 0x0, "i", 0x0, "a", 0x0, "l", 0x0, "i", 0x0, "z"
	DCB	0x0, "e", 0x0, 0xa, 0x0, 0x0, 0x0	; `string'
; Function compile flags: /Odtp

  00298			 AREA	 |.text|, CODE, ARM

  00298		 |?DeviceDeInitialize@COhcd@@UAAXXZ| PROC ; COhcd::DeviceDeInitialize

; 98   : {

  00298		 |$LN12@DeviceDeIn|
  00298	e1a0c00d	 mov         r12, sp
  0029c	e92d0001	 stmdb       sp!, {r0}
  002a0	e92d5000	 stmdb       sp!, {r12, lr}
  002a4	e24dd020	 sub         sp, sp, #0x20
  002a8		 |$M41805|

; 99   :     DEBUGMSG(ZONE_HCD && ZONE_VERBOSE, (TEXT("+COhcd::DeInitialize\n")));

  002a8	e59f3150	 ldr         r3, [pc, #0x150]
  002ac	e5933440	 ldr         r3, [r3, #0x440]
  002b0	e3130001	 tst         r3, #1
  002b4	0a000008	 beq         |$LN4@DeviceDeIn|
  002b8	e59f3140	 ldr         r3, [pc, #0x140]
  002bc	e5933440	 ldr         r3, [r3, #0x440]
  002c0	e3130a01	 tst         r3, #1, 20
  002c4	0a000004	 beq         |$LN4@DeviceDeIn|
  002c8	e59f0134	 ldr         r0, [pc, #0x134]
  002cc	eb000000	 bl          NKDbgPrintfW
  002d0	e3a03001	 mov         r3, #1
  002d4	e58d300c	 str         r3, [sp, #0xC]
  002d8	ea000001	 b           |$LN5@DeviceDeIn|
  002dc		 |$LN4@DeviceDeIn|
  002dc	e3a03000	 mov         r3, #0
  002e0	e58d300c	 str         r3, [sp, #0xC]
  002e4		 |$LN5@DeviceDeIn|

; 100  : 
; 101  :     // Wait for all the pipes to finish first...
; 102  :     CHCCArea::WaitForPipes(3000);

  002e4	e3a01c0b	 mov         r1, #0xB, 24
  002e8	e38110b8	 orr         r1, r1, #0xB8
  002ec	e59d3028	 ldr         r3, [sp, #0x28]
  002f0	e2833b01	 add         r3, r3, #1, 22
  002f4	e2830078	 add         r0, r3, #0x78
  002f8	eb000000	 bl          |?WaitForPipes@CHCCArea@@QAAHK@Z|

; 103  : 
; 104  :     CHW::StopHostController();

  002fc	e59d0028	 ldr         r0, [sp, #0x28]
  00300	eb000000	 bl          |?StopHostController@CHW@@QAAXXZ|

; 105  : 
; 106  :     // make the API set inaccessible
; 107  :     CRootHub *pRoot = SetRootHub(NULL);

  00304	e3a01000	 mov         r1, #0
  00308	e59d0028	 ldr         r0, [sp, #0x28]
  0030c	eb000000	 bl          |?SetRootHub@CHcd@@QAAPAVCRootHub@@PAV2@@Z|
  00310	e58d0010	 str         r0, [sp, #0x10]
  00314	e59d3010	 ldr         r3, [sp, #0x10]
  00318	e58d3000	 str         r3, [sp]

; 108  :     // signal root hub to close
; 109  :     if ( pRoot ) {

  0031c	e59d3000	 ldr         r3, [sp]
  00320	e3530000	 cmp         r3, #0
  00324	0a00001a	 beq         |$LN1@DeviceDeIn|

; 110  :         pRoot->HandleDetach();

  00328	e59d3000	 ldr         r3, [sp]
  0032c	e5933000	 ldr         r3, [r3]
  00330	e2833030	 add         r3, r3, #0x30
  00334	e59d0000	 ldr         r0, [sp]
  00338	e5933000	 ldr         r3, [r3]
  0033c	e1a0e00f	 mov         lr, pc
  00340	e12fff13	 bx          r3

; 111  :         delete pRoot;

  00344	e59d3000	 ldr         r3, [sp]
  00348	e58d3008	 str         r3, [sp, #8]
  0034c	e59d3008	 ldr         r3, [sp, #8]
  00350	e58d3004	 str         r3, [sp, #4]
  00354	e59d3004	 ldr         r3, [sp, #4]
  00358	e3530000	 cmp         r3, #0
  0035c	0a00000a	 beq         |$LN6@DeviceDeIn|
  00360	e3a01001	 mov         r1, #1
  00364	e59d3004	 ldr         r3, [sp, #4]
  00368	e5933000	 ldr         r3, [r3]
  0036c	e59d0004	 ldr         r0, [sp, #4]
  00370	e5933000	 ldr         r3, [r3]
  00374	e1a0e00f	 mov         lr, pc
  00378	e12fff13	 bx          r3
  0037c	e58d0014	 str         r0, [sp, #0x14]
  00380	e59d3014	 ldr         r3, [sp, #0x14]
  00384	e58d3018	 str         r3, [sp, #0x18]
  00388	ea000001	 b           |$LN7@DeviceDeIn|
  0038c		 |$LN6@DeviceDeIn|
  0038c	e3a03000	 mov         r3, #0
  00390	e58d3018	 str         r3, [sp, #0x18]
  00394		 |$LN7@DeviceDeIn|
  00394		 |$LN1@DeviceDeIn|

; 112  :     }
; 113  :     // this is safe because by now all clients have been unloaded
; 114  :     //DeleteCriticalSection ( &m_csHCLock );
; 115  : 
; 116  :     CHW::DeInitialize();

  00394	e59d0028	 ldr         r0, [sp, #0x28]
  00398	eb000000	 bl          |?DeInitialize@CHW@@UAAXXZ|

; 117  :     CHCCArea::DeInitialize();

  0039c	e59d3028	 ldr         r3, [sp, #0x28]
  003a0	e2833b01	 add         r3, r3, #1, 22
  003a4	e2830078	 add         r0, r3, #0x78
  003a8	eb000000	 bl          |?DeInitialize@CHCCArea@@QAAXXZ|

; 118  :     CDeviceGlobal::DeInitialize();

  003ac	e59d0028	 ldr         r0, [sp, #0x28]
  003b0	eb000000	 bl          |?DeInitialize@CDeviceGlobal@@QAAXXZ|

; 119  : 
; 120  :     DEBUGMSG(ZONE_HCD && ZONE_VERBOSE, (TEXT("-COhcd::DeInitialize\n")));

  003b4	e59f3044	 ldr         r3, [pc, #0x44]
  003b8	e5933440	 ldr         r3, [r3, #0x440]
  003bc	e3130001	 tst         r3, #1
  003c0	0a000008	 beq         |$LN8@DeviceDeIn|
  003c4	e59f3034	 ldr         r3, [pc, #0x34]
  003c8	e5933440	 ldr         r3, [r3, #0x440]
  003cc	e3130a01	 tst         r3, #1, 20
  003d0	0a000004	 beq         |$LN8@DeviceDeIn|
  003d4	e59f0020	 ldr         r0, [pc, #0x20]
  003d8	eb000000	 bl          NKDbgPrintfW
  003dc	e3a03001	 mov         r3, #1
  003e0	e58d301c	 str         r3, [sp, #0x1C]
  003e4	ea000001	 b           |$LN9@DeviceDeIn|
  003e8		 |$LN8@DeviceDeIn|
  003e8	e3a03000	 mov         r3, #0
  003ec	e58d301c	 str         r3, [sp, #0x1C]
  003f0		 |$LN9@DeviceDeIn|

; 121  : }

  003f0	e28dd020	 add         sp, sp, #0x20
  003f4	e89d6000	 ldmia       sp, {sp, lr}
  003f8	e12fff1e	 bx          lr
  003fc		 |$LN13@DeviceDeIn|
  003fc		 |$LN14@DeviceDeIn|
  003fc	00000000	 DCD         |??_C@_1CM@MLKLFHDG@?$AA?9?$AAC?$AAO?$AAh?$AAc?$AAd?$AA?3?$AA?3?$AAD?$AAe?$AAI?$AAn?$AAi?$AAt?$AAi?$AAa?$AAl?$AAi?$AAz?$AAe?$AA?6?$AA?$AA@|
  00400		 |$LN15@DeviceDeIn|
  00400	00000000	 DCD         |dpCurSettings|
  00404		 |$LN16@DeviceDeIn|
  00404	00000000	 DCD         |??_C@_1CM@DHFLMGHK@?$AA?$CL?$AAC?$AAO?$AAh?$AAc?$AAd?$AA?3?$AA?3?$AAD?$AAe?$AAI?$AAn?$AAi?$AAt?$AAi?$AAa?$AAl?$AAi?$AAz?$AAe?$AA?6?$AA?$AA@|
  00408		 |$M41806|

			 ENDP  ; |?DeviceDeInitialize@COhcd@@UAAXXZ|, COhcd::DeviceDeInitialize

	EXPORT	|??_C@_1EM@MDGFLJFF@?$AA?9?$AAC?$AAO?$AAh?$AAc?$AAd?$AA?3?$AA?3?$AAD?$AAe?$AAv?$AAi?$AAc?$AAe?$AAI?$AAn?$AAi?$AAt?$AAi?$AAa?$AAl?$AAi?$AAz?$AAe?$AA?4?$AA?5?$AAS?$AAu?$AAc?$AAc?$AAe?$AAs@| [ DATA ] ; `string'
	EXPORT	|??_C@_1GO@IIFGMAAI@?$AA?9?$AAC?$AAO?$AAh?$AAc?$AAd?$AA?3?$AA?3?$AAD?$AAe?$AAv?$AAi?$AAc?$AAe?$AAI?$AAn?$AAi?$AAt?$AAi?$AAa?$AAl?$AAi?$AAz?$AAe?$AA?4?$AA?5?$AAE?$AAr?$AAr?$AAo?$AAr?$AA?5@| [ DATA ] ; `string'
	EXPORT	|??_C@_1HK@BBJOLJMI@?$AA?9?$AAC?$AAO?$AAh?$AAc?$AAd?$AA?3?$AA?3?$AAD?$AAe?$AAv?$AAi?$AAc?$AAe?$AAI?$AAn?$AAi?$AAt?$AAi?$AAa?$AAl?$AAi?$AAz?$AAe?$AA?5?$AA?9?$AA?5?$AAu?$AAn?$AAa?$AAb?$AAl@| [ DATA ] ; `string'
	EXPORT	|?GetRootHub@CHcd@@QAAPAVCRootHub@@XZ|	; CHcd::GetRootHub
	EXPORT	|??_C@_1JO@LJPNGEMI@?$AA?9?$AAC?$AAO?$AAh?$AAc?$AAd?$AA?3?$AA?3?$AAD?$AAe?$AAv?$AAi?$AAc?$AAe?$AAI?$AAn?$AAi?$AAt?$AAi?$AAa?$AAl?$AAi?$AAz?$AAe?$AA?4?$AA?5?$AAE?$AAr?$AAr?$AAo?$AAr?$AA?5@| [ DATA ] ; `string'
	EXPORT	|??_C@_1EE@GMJMOEHE@?$AA?$CL?$AAC?$AAO?$AAh?$AAc?$AAd?$AA?3?$AA?3?$AAD?$AAe?$AAv?$AAi?$AAc?$AAe?$AAI?$AAn?$AAi?$AAt?$AAi?$AAa?$AAl?$AAi?$AAz?$AAe?$AA?4?$AA?5?$AAE?$AAn?$AAt?$AAr?$AAy?$AA?$AN@| [ DATA ] ; `string'
	EXPORT	|__$ArrayPad$| [ DATA ]
	IMPORT	|?EnterOperationalState@CHW@@QAAXXZ|	; CHW::EnterOperationalState
	IMPORT	|??0CRootHub@@QAA@ABU_USB_DEVICE_INFO@@HHABU_USB_HUB_DESCRIPTOR@@QAVCHcd@@@Z| ; CRootHub::CRootHub
	IMPORT	|??2@YAPAXI@Z|				; operator new
	IMPORT	|?GetRootHubDescriptor@CHW@@QAAXAAU_USB_HUB_DESCRIPTOR@@@Z| ; CHW::GetRootHubDescriptor
	IMPORT	|?Initialize@CHCCArea@@QAAHPAVCOhcd@@@Z| ; CHCCArea::Initialize
	IMPORT	|?Initialize@CDeviceGlobal@@QAAHPAX@Z|	; CDeviceGlobal::Initialize
	IMPORT	|__security_cookie|
	IMPORT	|__GSHandlerCheck|
	IMPORT	|__security_check_cookie|

  00018			 AREA	 |.pdata|, PDATA
|$T41838| DCD	|$LN21@DeviceInit|
	DCD	0xc000c404

  00000			 AREA	 |.rdata|, DATA, READONLY
|??_C@_1EM@MDGFLJFF@?$AA?9?$AAC?$AAO?$AAh?$AAc?$AAd?$AA?3?$AA?3?$AAD?$AAe?$AAv?$AAi?$AAc?$AAe?$AAI?$AAn?$AAi?$AAt?$AAi?$AAa?$AAl?$AAi?$AAz?$AAe?$AA?4?$AA?5?$AAS?$AAu?$AAc?$AAc?$AAe?$AAs@| DCB "-"
	DCB	0x0, "C", 0x0, "O", 0x0, "h", 0x0, "c", 0x0, "d", 0x0, ":"
	DCB	0x0, ":", 0x0, "D", 0x0, "e", 0x0, "v", 0x0, "i", 0x0, "c"
	DCB	0x0, "e", 0x0, "I", 0x0, "n", 0x0, "i", 0x0, "t", 0x0, "i"
	DCB	0x0, "a", 0x0, "l", 0x0, "i", 0x0, "z", 0x0, "e", 0x0, "."
	DCB	0x0, " ", 0x0, "S", 0x0, "u", 0x0, "c", 0x0, "c", 0x0, "e"
	DCB	0x0, "s", 0x0, "s", 0x0, "!", 0x0, "!", 0x0, 0xd, 0x0, 0xa
	DCB	0x0, 0x0, 0x0				; `string'

  00000			 AREA	 |.rdata|, DATA, READONLY
|??_C@_1GO@IIFGMAAI@?$AA?9?$AAC?$AAO?$AAh?$AAc?$AAd?$AA?3?$AA?3?$AAD?$AAe?$AAv?$AAi?$AAc?$AAe?$AAI?$AAn?$AAi?$AAt?$AAi?$AAa?$AAl?$AAi?$AAz?$AAe?$AA?4?$AA?5?$AAE?$AAr?$AAr?$AAo?$AAr?$AA?5@| DCB "-"
	DCB	0x0, "C", 0x0, "O", 0x0, "h", 0x0, "c", 0x0, "d", 0x0, ":"
	DCB	0x0, ":", 0x0, "D", 0x0, "e", 0x0, "v", 0x0, "i", 0x0, "c"
	DCB	0x0, "e", 0x0, "I", 0x0, "n", 0x0, "i", 0x0, "t", 0x0, "i"
	DCB	0x0, "a", 0x0, "l", 0x0, "i", 0x0, "z", 0x0, "e", 0x0, "."
	DCB	0x0, " ", 0x0, "E", 0x0, "r", 0x0, "r", 0x0, "o", 0x0, "r"
	DCB	0x0, " ", 0x0, "i", 0x0, "n", 0x0, "i", 0x0, "t", 0x0, "i"
	DCB	0x0, "a", 0x0, "l", 0x0, "i", 0x0, "z", 0x0, "i", 0x0, "n"
	DCB	0x0, "g", 0x0, " ", 0x0, "r", 0x0, "o", 0x0, "o", 0x0, "t"
	DCB	0x0, " ", 0x0, "h", 0x0, "u", 0x0, "b", 0x0, 0xa, 0x0, 0x0
	DCB	0x0					; `string'

  00000			 AREA	 |.rdata|, DATA, READONLY
|??_C@_1HK@BBJOLJMI@?$AA?9?$AAC?$AAO?$AAh?$AAc?$AAd?$AA?3?$AA?3?$AAD?$AAe?$AAv?$AAi?$AAc?$AAe?$AAI?$AAn?$AAi?$AAt?$AAi?$AAa?$AAl?$AAi?$AAz?$AAe?$AA?5?$AA?9?$AA?5?$AAu?$AAn?$AAa?$AAb?$AAl@| DCB "-"
	DCB	0x0, "C", 0x0, "O", 0x0, "h", 0x0, "c", 0x0, "d", 0x0, ":"
	DCB	0x0, ":", 0x0, "D", 0x0, "e", 0x0, "v", 0x0, "i", 0x0, "c"
	DCB	0x0, "e", 0x0, "I", 0x0, "n", 0x0, "i", 0x0, "t", 0x0, "i"
	DCB	0x0, "a", 0x0, "l", 0x0, "i", 0x0, "z", 0x0, "e", 0x0, " "
	DCB	0x0, "-", 0x0, " ", 0x0, "u", 0x0, "n", 0x0, "a", 0x0, "b"
	DCB	0x0, "l", 0x0, "e", 0x0, " ", 0x0, "t", 0x0, "o", 0x0, " "
	DCB	0x0, "c", 0x0, "r", 0x0, "e", 0x0, "a", 0x0, "t", 0x0, "e"
	DCB	0x0, " ", 0x0, "r", 0x0, "o", 0x0, "o", 0x0, "t", 0x0, " "
	DCB	0x0, "h", 0x0, "u", 0x0, "b", 0x0, " ", 0x0, "o", 0x0, "b"
	DCB	0x0, "j", 0x0, "e", 0x0, "c", 0x0, "t", 0x0, 0xa, 0x0, 0x0
	DCB	0x0					; `string'

  00000			 AREA	 |.rdata|, DATA, READONLY
|??_C@_1JO@LJPNGEMI@?$AA?9?$AAC?$AAO?$AAh?$AAc?$AAd?$AA?3?$AA?3?$AAD?$AAe?$AAv?$AAi?$AAc?$AAe?$AAI?$AAn?$AAi?$AAt?$AAi?$AAa?$AAl?$AAi?$AAz?$AAe?$AA?4?$AA?5?$AAE?$AAr?$AAr?$AAo?$AAr?$AA?5@| DCB "-"
	DCB	0x0, "C", 0x0, "O", 0x0, "h", 0x0, "c", 0x0, "d", 0x0, ":"
	DCB	0x0, ":", 0x0, "D", 0x0, "e", 0x0, "v", 0x0, "i", 0x0, "c"
	DCB	0x0, "e", 0x0, "I", 0x0, "n", 0x0, "i", 0x0, "t", 0x0, "i"
	DCB	0x0, "a", 0x0, "l", 0x0, "i", 0x0, "z", 0x0, "e", 0x0, "."
	DCB	0x0, " ", 0x0, "E", 0x0, "r", 0x0, "r", 0x0, "o", 0x0, "r"
	DCB	0x0, " ", 0x0, "-", 0x0, " ", 0x0, "c", 0x0, "o", 0x0, "u"
	DCB	0x0, "l", 0x0, "d", 0x0, " ", 0x0, "n", 0x0, "o", 0x0, "t"
	DCB	0x0, " ", 0x0, "i", 0x0, "n", 0x0, "i", 0x0, "t", 0x0, "i"
	DCB	0x0, "a", 0x0, "l", 0x0, "i", 0x0, "z", 0x0, "e", 0x0, " "
	DCB	0x0, "d", 0x0, "e", 0x0, "v", 0x0, "i", 0x0, "c", 0x0, "e"
	DCB	0x0, "/", 0x0, "p", 0x0, "i", 0x0, "p", 0x0, "e", 0x0, "/"
	DCB	0x0, "h", 0x0, "w", 0x0, " ", 0x0, "c", 0x0, "l", 0x0, "a"
	DCB	0x0, "s", 0x0, "s", 0x0, "e", 0x0, "s", 0x0, 0xa, 0x0, 0x0
	DCB	0x0					; `string'

  00000			 AREA	 |.rdata|, DATA, READONLY
|??_C@_1EE@GMJMOEHE@?$AA?$CL?$AAC?$AAO?$AAh?$AAc?$AAd?$AA?3?$AA?3?$AAD?$AAe?$AAv?$AAi?$AAc?$AAe?$AAI?$AAn?$AAi?$AAt?$AAi?$AAa?$AAl?$AAi?$AAz?$AAe?$AA?4?$AA?5?$AAE?$AAn?$AAt?$AAr?$AAy?$AA?$AN@| DCB "+"
	DCB	0x0, "C", 0x0, "O", 0x0, "h", 0x0, "c", 0x0, "d", 0x0, ":"
	DCB	0x0, ":", 0x0, "D", 0x0, "e", 0x0, "v", 0x0, "i", 0x0, "c"
	DCB	0x0, "e", 0x0, "I", 0x0, "n", 0x0, "i", 0x0, "t", 0x0, "i"
	DCB	0x0, "a", 0x0, "l", 0x0, "i", 0x0, "z", 0x0, "e", 0x0, "."
	DCB	0x0, " ", 0x0, "E", 0x0, "n", 0x0, "t", 0x0, "r", 0x0, "y"
	DCB	0x0, 0xd, 0x0, 0xa, 0x0, 0x0, 0x0	; `string'

  00000			 AREA	 |.xdata|, DATA
|$T41834| DCD	0xffffffa8
; Function compile flags: /Odtp

  00408			 AREA	 |.text|, CODE, ARM

  00408	00000000	 DCD         |__GSHandlerCheck|
  0040c	00000000	 DCD         |$T41834|

  00410		 |?DeviceInitialize@COhcd@@UAAHXZ| PROC	; COhcd::DeviceInitialize

; 148  : {

  00410		 |$LN21@DeviceInit|
  00410	e1a0c00d	 mov         r12, sp
  00414	e92d0001	 stmdb       sp!, {r0}
  00418	e92d5000	 stmdb       sp!, {r12, lr}
  0041c	e24dd0cc	 sub         sp, sp, #0xCC
  00420		 |$M41835|
  00420	e59f32f4	 ldr         r3, [pc, #0x2F4]
  00424	e5933000	 ldr         r3, [r3]
  00428	e58d3080	 str         r3, [sp, #0x80]

; 149  :     DEBUGMSG(ZONE_INIT,(TEXT("+COhcd::DeviceInitialize. Entry\r\n")));

  0042c	e59f32d4	 ldr         r3, [pc, #0x2D4]
  00430	e5933440	 ldr         r3, [r3, #0x440]
  00434	e3130002	 tst         r3, #2
  00438	0a000004	 beq         |$LN7@DeviceInit|
  0043c	e59f02d4	 ldr         r0, [pc, #0x2D4]
  00440	eb000000	 bl          NKDbgPrintfW
  00444	e3a03001	 mov         r3, #1
  00448	e58d3090	 str         r3, [sp, #0x90]
  0044c	ea000001	 b           |$LN8@DeviceInit|
  00450		 |$LN7@DeviceInit|
  00450	e3a03000	 mov         r3, #0
  00454	e58d3090	 str         r3, [sp, #0x90]
  00458		 |$LN8@DeviceInit|

; 150  : 
; 151  :     // All Initialize routines must be called, so we can't write
; 152  :     // if ( !CDevice::Initialize() || !CPipe::Initialize() etc )
; 153  :     // due to short circuit eval.
; 154  :     {
; 155  :         BOOL fCDeviceInitOK = CDeviceGlobal::Initialize(this);

  00458	e59d10d4	 ldr         r1, [sp, #0xD4]
  0045c	e59d00d4	 ldr         r0, [sp, #0xD4]
  00460	eb000000	 bl          |?Initialize@CDeviceGlobal@@QAAHPAX@Z|
  00464	e58d0094	 str         r0, [sp, #0x94]
  00468	e59d3094	 ldr         r3, [sp, #0x94]
  0046c	e58d3010	 str         r3, [sp, #0x10]

; 156  :         BOOL fCHWInitOK = CHW::Initialize( );

  00470	e59d00d4	 ldr         r0, [sp, #0xD4]
  00474	eb000000	 bl          |?Initialize@CHW@@UAAHXZ|
  00478	e58d0098	 str         r0, [sp, #0x98]
  0047c	e59d3098	 ldr         r3, [sp, #0x98]
  00480	e58d300c	 str         r3, [sp, #0xC]

; 157  :         BOOL fCPipeInitOK = CHCCArea::Initialize(this);

  00484	e59d10d4	 ldr         r1, [sp, #0xD4]
  00488	e59d30d4	 ldr         r3, [sp, #0xD4]
  0048c	e2833b01	 add         r3, r3, #1, 22
  00490	e2830078	 add         r0, r3, #0x78
  00494	eb000000	 bl          |?Initialize@CHCCArea@@QAAHPAVCOhcd@@@Z|
  00498	e58d009c	 str         r0, [sp, #0x9C]
  0049c	e59d309c	 ldr         r3, [sp, #0x9C]
  004a0	e58d3008	 str         r3, [sp, #8]

; 158  : 
; 159  :         if ( !fCDeviceInitOK || !fCPipeInitOK || !fCHWInitOK ) {

  004a4	e59d3010	 ldr         r3, [sp, #0x10]
  004a8	e3530000	 cmp         r3, #0
  004ac	0a000005	 beq         |$LN3@DeviceInit|
  004b0	e59d3008	 ldr         r3, [sp, #8]
  004b4	e3530000	 cmp         r3, #0
  004b8	0a000002	 beq         |$LN3@DeviceInit|
  004bc	e59d300c	 ldr         r3, [sp, #0xC]
  004c0	e3530000	 cmp         r3, #0
  004c4	1a00000f	 bne         |$LN4@DeviceInit|
  004c8		 |$LN3@DeviceInit|

; 160  :             DEBUGMSG(ZONE_ERROR, (TEXT("-COhcd::DeviceInitialize. Error - could not initialize device/pipe/hw classes\n")));

  004c8	e59f3238	 ldr         r3, [pc, #0x238]
  004cc	e5933440	 ldr         r3, [r3, #0x440]
  004d0	e3130901	 tst         r3, #1, 18
  004d4	0a000004	 beq         |$LN9@DeviceInit|
  004d8	e59f0234	 ldr         r0, [pc, #0x234]
  004dc	eb000000	 bl          NKDbgPrintfW
  004e0	e3a03001	 mov         r3, #1
  004e4	e58d30a0	 str         r3, [sp, #0xA0]
  004e8	ea000001	 b           |$LN10@DeviceInit|
  004ec		 |$LN9@DeviceInit|
  004ec	e3a03000	 mov         r3, #0
  004f0	e58d30a0	 str         r3, [sp, #0xA0]
  004f4		 |$LN10@DeviceInit|

; 161  :             return FALSE;

  004f4	e59d0080	 ldr         r0, [sp, #0x80]
  004f8	eb000000	 bl          __security_check_cookie
  004fc	e3a03000	 mov         r3, #0
  00500	e58d3084	 str         r3, [sp, #0x84]
  00504	ea00007a	 b           |$LN5@DeviceInit|
  00508		 |$LN4@DeviceInit|

; 162  :         }
; 163  :     }
; 164  : 
; 165  :     // set up the root hub object
; 166  :     {
; 167  :         USB_DEVICE_INFO deviceInfo;
; 168  :         USB_HUB_DESCRIPTOR usbHubDescriptor;
; 169  : 
; 170  :         deviceInfo.dwCount = sizeof( USB_DEVICE_INFO );

  00508	e3a03020	 mov         r3, #0x20
  0050c	e58d3014	 str         r3, [sp, #0x14]

; 171  :         deviceInfo.lpConfigs = NULL;

  00510	e3a03000	 mov         r3, #0
  00514	e58d302c	 str         r3, [sp, #0x2C]

; 172  :         deviceInfo.lpActiveConfig = NULL;

  00518	e3a03000	 mov         r3, #0
  0051c	e58d3030	 str         r3, [sp, #0x30]

; 173  :         deviceInfo.Descriptor.bLength = sizeof( USB_DEVICE_DESCRIPTOR );

  00520	e3a03012	 mov         r3, #0x12
  00524	e5cd3018	 strb        r3, [sp, #0x18]

; 174  :         deviceInfo.Descriptor.bDescriptorType = USB_DEVICE_DESCRIPTOR_TYPE;

  00528	e3a03001	 mov         r3, #1
  0052c	e5cd3019	 strb        r3, [sp, #0x19]

; 175  :         deviceInfo.Descriptor.bcdUSB = 0x110; // USB spec 1.10

  00530	e3a03e11	 mov         r3, #0x11, 28
  00534	e1cd31ba	 strh        r3, [sp, #0x1A]

; 176  :         deviceInfo.Descriptor.bDeviceClass = USB_DEVICE_CLASS_HUB;

  00538	e3a03009	 mov         r3, #9
  0053c	e5cd301c	 strb        r3, [sp, #0x1C]

; 177  :         deviceInfo.Descriptor.bDeviceSubClass = 0xff;

  00540	e3a030ff	 mov         r3, #0xFF
  00544	e5cd301d	 strb        r3, [sp, #0x1D]

; 178  :         deviceInfo.Descriptor.bDeviceProtocol = 0xff;

  00548	e3a030ff	 mov         r3, #0xFF
  0054c	e5cd301e	 strb        r3, [sp, #0x1E]

; 179  :         deviceInfo.Descriptor.bMaxPacketSize0 = 0;

  00550	e3a03000	 mov         r3, #0
  00554	e5cd301f	 strb        r3, [sp, #0x1F]

; 180  :         deviceInfo.Descriptor.bNumConfigurations = 0;

  00558	e3a03000	 mov         r3, #0
  0055c	e5cd3029	 strb        r3, [sp, #0x29]

; 181  : 
; 182  :         CHW::GetRootHubDescriptor(usbHubDescriptor);

  00560	e28d1034	 add         r1, sp, #0x34
  00564	e59d00d4	 ldr         r0, [sp, #0xD4]
  00568	eb000000	 bl          |?GetRootHubDescriptor@CHW@@QAAXAAU_USB_HUB_DESCRIPTOR@@@Z|

; 183  : 
; 184  :         // FALSE indicates root hub is not low speed
; 185  :         // (though, this is ignored for hubs anyway)
; 186  :         // during root hub object creation, we are configuring as
; 187  :         // though the root hub is operation in High speed. But actually,
; 188  :         // the root hub should(will?) be configured to match the speed of the device
; 189  :         // directly connected to root hub
; 190  : 
; 191  :         /*2 & 3 arguments may be confusing. these two arguments initialize
; 192  :         m_fIsLowSpeed & m_fIsHighSpeed but it is updated in CRootHub::GetStatus
; 193  :         */
; 194  :         SetRootHub( new CRootHub( deviceInfo, FALSE,TRUE, usbHubDescriptor,this ));

  0056c	e3a000cc	 mov         r0, #0xCC
  00570	eb000000	 bl          |??2@YAPAXI@Z|
  00574	e58d00a4	 str         r0, [sp, #0xA4]
  00578	e59d30a4	 ldr         r3, [sp, #0xA4]
  0057c	e58d307c	 str         r3, [sp, #0x7C]
  00580	e59d307c	 ldr         r3, [sp, #0x7C]
  00584	e3530000	 cmp         r3, #0
  00588	0a00000c	 beq         |$LN11@DeviceInit|
  0058c	e59d30d4	 ldr         r3, [sp, #0xD4]
  00590	e58d3004	 str         r3, [sp, #4]
  00594	e28d3034	 add         r3, sp, #0x34
  00598	e58d3000	 str         r3, [sp]
  0059c	e3a03001	 mov         r3, #1
  005a0	e3a02000	 mov         r2, #0
  005a4	e28d1014	 add         r1, sp, #0x14
  005a8	e59d007c	 ldr         r0, [sp, #0x7C]
  005ac	eb000000	 bl          |??0CRootHub@@QAA@ABU_USB_DEVICE_INFO@@HHABU_USB_HUB_DESCRIPTOR@@QAVCHcd@@@Z|
  005b0	e58d00a8	 str         r0, [sp, #0xA8]
  005b4	e59d30a8	 ldr         r3, [sp, #0xA8]
  005b8	e58d30ac	 str         r3, [sp, #0xAC]
  005bc	ea000001	 b           |$LN12@DeviceInit|
  005c0		 |$LN11@DeviceInit|
  005c0	e3a03000	 mov         r3, #0
  005c4	e58d30ac	 str         r3, [sp, #0xAC]
  005c8		 |$LN12@DeviceInit|
  005c8	e59d10ac	 ldr         r1, [sp, #0xAC]
  005cc	e59d00d4	 ldr         r0, [sp, #0xD4]
  005d0	eb000000	 bl          |?SetRootHub@CHcd@@QAAPAVCRootHub@@PAV2@@Z|

; 195  :     }
; 196  :     if ( !GetRootHub() ) {

  005d4	e59d00d4	 ldr         r0, [sp, #0xD4]
  005d8	eb000000	 bl          |?GetRootHub@CHcd@@QAAPAVCRootHub@@XZ|
  005dc	e58d00b0	 str         r0, [sp, #0xB0]
  005e0	e59d30b0	 ldr         r3, [sp, #0xB0]
  005e4	e3530000	 cmp         r3, #0
  005e8	1a00000f	 bne         |$LN2@DeviceInit|

; 197  :         DEBUGMSG( ZONE_ERROR, (TEXT("-COhcd::DeviceInitialize - unable to create root hub object\n")) );

  005ec	e59f3114	 ldr         r3, [pc, #0x114]
  005f0	e5933440	 ldr         r3, [r3, #0x440]
  005f4	e3130901	 tst         r3, #1, 18
  005f8	0a000004	 beq         |$LN13@DeviceInit|
  005fc	e59f010c	 ldr         r0, [pc, #0x10C]
  00600	eb000000	 bl          NKDbgPrintfW
  00604	e3a03001	 mov         r3, #1
  00608	e58d30b4	 str         r3, [sp, #0xB4]
  0060c	ea000001	 b           |$LN14@DeviceInit|
  00610		 |$LN13@DeviceInit|
  00610	e3a03000	 mov         r3, #0
  00614	e58d30b4	 str         r3, [sp, #0xB4]
  00618		 |$LN14@DeviceInit|

; 198  :         return FALSE;

  00618	e59d0080	 ldr         r0, [sp, #0x80]
  0061c	eb000000	 bl          __security_check_cookie
  00620	e3a03000	 mov         r3, #0
  00624	e58d3084	 str         r3, [sp, #0x84]
  00628	ea000031	 b           |$LN5@DeviceInit|
  0062c		 |$LN2@DeviceInit|

; 199  :     }
; 200  : 
; 201  :     // Signal root hub to start processing port changes
; 202  :     // The root hub doesn't have any pipes, so we pass NULL as the
; 203  :     // endpoint0 pipe
; 204  :     if ( !GetRootHub()->EnterOperationalState( NULL ) ) {

  0062c	e59d00d4	 ldr         r0, [sp, #0xD4]
  00630	eb000000	 bl          |?GetRootHub@CHcd@@QAAPAVCRootHub@@XZ|
  00634	e58d00b8	 str         r0, [sp, #0xB8]
  00638	e59d30b8	 ldr         r3, [sp, #0xB8]
  0063c	e58d30bc	 str         r3, [sp, #0xBC]
  00640	e3a01000	 mov         r1, #0
  00644	e59d00bc	 ldr         r0, [sp, #0xBC]
  00648	e59d30bc	 ldr         r3, [sp, #0xBC]
  0064c	e5933000	 ldr         r3, [r3]
  00650	e2833004	 add         r3, r3, #4
  00654	e5933000	 ldr         r3, [r3]
  00658	e1a0e00f	 mov         lr, pc
  0065c	e12fff13	 bx          r3
  00660	e58d00c0	 str         r0, [sp, #0xC0]
  00664	e59d30c0	 ldr         r3, [sp, #0xC0]
  00668	e3530000	 cmp         r3, #0
  0066c	1a00000f	 bne         |$LN1@DeviceInit|

; 205  :         DEBUGMSG(ZONE_ERROR, (TEXT("-COhcd::DeviceInitialize. Error initializing root hub\n")));

  00670	e59f3090	 ldr         r3, [pc, #0x90]
  00674	e5933440	 ldr         r3, [r3, #0x440]
  00678	e3130901	 tst         r3, #1, 18
  0067c	0a000004	 beq         |$LN15@DeviceInit|
  00680	e59f0084	 ldr         r0, [pc, #0x84]
  00684	eb000000	 bl          NKDbgPrintfW
  00688	e3a03001	 mov         r3, #1
  0068c	e58d30c4	 str         r3, [sp, #0xC4]
  00690	ea000001	 b           |$LN16@DeviceInit|
  00694		 |$LN15@DeviceInit|
  00694	e3a03000	 mov         r3, #0
  00698	e58d30c4	 str         r3, [sp, #0xC4]
  0069c		 |$LN16@DeviceInit|

; 206  :         return FALSE;

  0069c	e59d0080	 ldr         r0, [sp, #0x80]
  006a0	eb000000	 bl          __security_check_cookie
  006a4	e3a03000	 mov         r3, #0
  006a8	e58d3084	 str         r3, [sp, #0x84]
  006ac	ea000010	 b           |$LN5@DeviceInit|
  006b0		 |$LN1@DeviceInit|

; 207  :     }
; 208  : 
; 209  :     // Start processing frames
; 210  :     CHW::EnterOperationalState();

  006b0	e59d00d4	 ldr         r0, [sp, #0xD4]
  006b4	eb000000	 bl          |?EnterOperationalState@CHW@@QAAXXZ|

; 211  : 
; 212  :     DEBUGMSG(ZONE_INIT,(TEXT("-COhcd::DeviceInitialize. Success!!\r\n")));

  006b8	e59f3048	 ldr         r3, [pc, #0x48]
  006bc	e5933440	 ldr         r3, [r3, #0x440]
  006c0	e3130002	 tst         r3, #2
  006c4	0a000004	 beq         |$LN17@DeviceInit|
  006c8	e59f0034	 ldr         r0, [pc, #0x34]
  006cc	eb000000	 bl          NKDbgPrintfW
  006d0	e3a03001	 mov         r3, #1
  006d4	e58d30c8	 str         r3, [sp, #0xC8]
  006d8	ea000001	 b           |$LN18@DeviceInit|
  006dc		 |$LN17@DeviceInit|
  006dc	e3a03000	 mov         r3, #0
  006e0	e58d30c8	 str         r3, [sp, #0xC8]
  006e4		 |$LN18@DeviceInit|

; 213  :     return TRUE;

  006e4	e59d0080	 ldr         r0, [sp, #0x80]
  006e8	eb000000	 bl          __security_check_cookie
  006ec	e3a03001	 mov         r3, #1
  006f0	e58d3084	 str         r3, [sp, #0x84]
  006f4		 |$LN5@DeviceInit|

; 214  : };

  006f4	e59d0084	 ldr         r0, [sp, #0x84]
  006f8	e28dd0cc	 add         sp, sp, #0xCC
  006fc	e89d6000	 ldmia       sp, {sp, lr}
  00700	e12fff1e	 bx          lr
  00704		 |$LN22@DeviceInit|
  00704		 |$LN23@DeviceInit|
  00704	00000000	 DCD         |??_C@_1EM@MDGFLJFF@?$AA?9?$AAC?$AAO?$AAh?$AAc?$AAd?$AA?3?$AA?3?$AAD?$AAe?$AAv?$AAi?$AAc?$AAe?$AAI?$AAn?$AAi?$AAt?$AAi?$AAa?$AAl?$AAi?$AAz?$AAe?$AA?4?$AA?5?$AAS?$AAu?$AAc?$AAc?$AAe?$AAs@|
  00708		 |$LN24@DeviceInit|
  00708	00000000	 DCD         |dpCurSettings|
  0070c		 |$LN25@DeviceInit|
  0070c	00000000	 DCD         |??_C@_1GO@IIFGMAAI@?$AA?9?$AAC?$AAO?$AAh?$AAc?$AAd?$AA?3?$AA?3?$AAD?$AAe?$AAv?$AAi?$AAc?$AAe?$AAI?$AAn?$AAi?$AAt?$AAi?$AAa?$AAl?$AAi?$AAz?$AAe?$AA?4?$AA?5?$AAE?$AAr?$AAr?$AAo?$AAr?$AA?5@|
  00710		 |$LN26@DeviceInit|
  00710	00000000	 DCD         |??_C@_1HK@BBJOLJMI@?$AA?9?$AAC?$AAO?$AAh?$AAc?$AAd?$AA?3?$AA?3?$AAD?$AAe?$AAv?$AAi?$AAc?$AAe?$AAI?$AAn?$AAi?$AAt?$AAi?$AAa?$AAl?$AAi?$AAz?$AAe?$AA?5?$AA?9?$AA?5?$AAu?$AAn?$AAa?$AAb?$AAl@|
  00714		 |$LN27@DeviceInit|
  00714	00000000	 DCD         |??_C@_1JO@LJPNGEMI@?$AA?9?$AAC?$AAO?$AAh?$AAc?$AAd?$AA?3?$AA?3?$AAD?$AAe?$AAv?$AAi?$AAc?$AAe?$AAI?$AAn?$AAi?$AAt?$AAi?$AAa?$AAl?$AAi?$AAz?$AAe?$AA?4?$AA?5?$AAE?$AAr?$AAr?$AAo?$AAr?$AA?5@|
  00718		 |$LN28@DeviceInit|
  00718	00000000	 DCD         |??_C@_1EE@GMJMOEHE@?$AA?$CL?$AAC?$AAO?$AAh?$AAc?$AAd?$AA?3?$AA?3?$AAD?$AAe?$AAv?$AAi?$AAc?$AAe?$AAI?$AAn?$AAi?$AAt?$AAi?$AAa?$AAl?$AAi?$AAz?$AAe?$AA?4?$AA?5?$AAE?$AAn?$AAt?$AAr?$AAy?$AA?$AN@|
  0071c		 |$LN29@DeviceInit|
  0071c	00000000	 DCD         |__security_cookie|
  00720		 |$M41836|

			 ENDP  ; |?DeviceInitialize@COhcd@@UAAHXZ|, COhcd::DeviceInitialize

; File c:\wince600\public\common\oak\drivers\usb\hcd\usb20\usb2com\hcd.hpp

  00000			 AREA	 |.pdata|, PDATA
|$T41852| DCD	|$LN5@GetRootHub|
	DCD	0x40000c04
; Function compile flags: /Odtp

  00000			 AREA	 |.text|, CODE, ARM

  00000		 |?GetRootHub@CHcd@@QAAPAVCRootHub@@XZ| PROC ; CHcd::GetRootHub

; 90   :     CRootHub* GetRootHub() { return m_pCRootHub;};

  00000		 |$LN5@GetRootHub|
  00000	e1a0c00d	 mov         r12, sp
  00004	e92d0001	 stmdb       sp!, {r0}
  00008	e92d5000	 stmdb       sp!, {r12, lr}
  0000c	e24dd004	 sub         sp, sp, #4
  00010		 |$M41849|
  00010	e59d300c	 ldr         r3, [sp, #0xC]
  00014	e28330a4	 add         r3, r3, #0xA4
  00018	e5933000	 ldr         r3, [r3]
  0001c	e58d3000	 str         r3, [sp]
  00020	e59d0000	 ldr         r0, [sp]
  00024	e28dd004	 add         sp, sp, #4
  00028	e89d6000	 ldmia       sp, {sp, lr}
  0002c	e12fff1e	 bx          lr
  00030		 |$M41850|

			 ENDP  ; |?GetRootHub@CHcd@@QAAPAVCRootHub@@XZ|, CHcd::GetRootHub

	EXPORT	|??_C@_1JK@BDLJCDDO@?$AAC?$AA?3?$AA?2?$AAW?$AAI?$AAN?$AAC?$AAE?$AA6?$AA0?$AA0?$AA?2?$AAP?$AAL?$AAA?$AAT?$AAF?$AAO?$AAR?$AAM?$AA?2?$AAC?$AAO?$AAM?$AAM?$AAO?$AAN?$AA?2?$AAS?$AAR?$AAC?$AA?2@| [ DATA ] ; `string'
	EXPORT	|?CreateHCDObject@@YAPAVCHcd@@PAXPAVCPhysMem@@PBGRAEK@Z| ; CreateHCDObject

  00020			 AREA	 |.pdata|, PDATA
|$T41869| DCD	|$LN10@CreateHCDO|
	DCD	0x40004704
; File c:\wince600\platform\common\src\soc\common_ti_v1\am3517\usb\usbh\cohcd.cpp

  00000			 AREA	 |.rdata|, DATA, READONLY
|??_C@_1JK@BDLJCDDO@?$AAC?$AA?3?$AA?2?$AAW?$AAI?$AAN?$AAC?$AAE?$AA6?$AA0?$AA0?$AA?2?$AAP?$AAL?$AAA?$AAT?$AAF?$AAO?$AAR?$AAM?$AA?2?$AAC?$AAO?$AAM?$AAM?$AAO?$AAN?$AA?2?$AAS?$AAR?$AAC?$AA?2@| DCB "C"
	DCB	0x0, ":", 0x0, "\\", 0x0, "W", 0x0, "I", 0x0, "N", 0x0, "C"
	DCB	0x0, "E", 0x0, "6", 0x0, "0", 0x0, "0", 0x0, "\\", 0x0, "P"
	DCB	0x0, "L", 0x0, "A", 0x0, "T", 0x0, "F", 0x0, "O", 0x0, "R"
	DCB	0x0, "M", 0x0, "\\", 0x0, "C", 0x0, "O", 0x0, "M", 0x0, "M"
	DCB	0x0, "O", 0x0, "N", 0x0, "\\", 0x0, "S", 0x0, "R", 0x0, "C"
	DCB	0x0, "\\", 0x0, "S", 0x0, "O", 0x0, "C", 0x0, "\\", 0x0, "C"
	DCB	0x0, "O", 0x0, "M", 0x0, "M", 0x0, "O", 0x0, "N", 0x0, "_"
	DCB	0x0, "T", 0x0, "I", 0x0, "_", 0x0, "V", 0x0, "1", 0x0, "\\"
	DCB	0x0, "A", 0x0, "M", 0x0, "3", 0x0, "5", 0x0, "1", 0x0, "7"
	DCB	0x0, "\\", 0x0, "U", 0x0, "S", 0x0, "B", 0x0, "\\", 0x0, "U"
	DCB	0x0, "S", 0x0, "B", 0x0, "H", 0x0, "\\", 0x0, ".", 0x0, "\\"
	DCB	0x0, "c", 0x0, "o", 0x0, "h", 0x0, "c", 0x0, "d", 0x0, "."
	DCB	0x0, "c", 0x0, "p", 0x0, "p", 0x0, 0x0, 0x0 ; `string'
; Function compile flags: /Odtp

  00720			 AREA	 |.text|, CODE, ARM

  00720		 |?CreateHCDObject@@YAPAVCHcd@@PAXPAVCPhysMem@@PBGRAEK@Z| PROC ; CreateHCDObject

; 221  : {

  00720		 |$LN10@CreateHCDO|
  00720	e1a0c00d	 mov         r12, sp
  00724	e92d000f	 stmdb       sp!, {r0 - r3}
  00728	e92d5000	 stmdb       sp!, {r12, lr}
  0072c	e24dd044	 sub         sp, sp, #0x44
  00730		 |$M41866|

; 222  :     SOhcdPdd *pPddObject = (SOhcdPdd *)pvOhcdPddObject;

  00730	e59d304c	 ldr         r3, [sp, #0x4C]
  00734	e58d3010	 str         r3, [sp, #0x10]

; 223  : 
; 224  :     DEBUGCHK(pPddObject != NULL);

  00738	e59d3010	 ldr         r3, [sp, #0x10]
  0073c	e3530000	 cmp         r3, #0
  00740	0a000002	 beq         |$LN4@CreateHCDO|
  00744	e3a03001	 mov         r3, #1
  00748	e58d3034	 str         r3, [sp, #0x34]
  0074c	ea000007	 b           |$LN5@CreateHCDO|
  00750		 |$LN4@CreateHCDO|
  00750	e3a030e0	 mov         r3, #0xE0
  00754	e59f20dc	 ldr         r2, [pc, #0xDC]
  00758	e59f10d4	 ldr         r1, [pc, #0xD4]
  0075c	e59f00cc	 ldr         r0, [pc, #0xCC]
  00760	eb000000	 bl          NKDbgPrintfW
  00764	e6000010	 __debugbreak_ce
  00768	e3a03000	 mov         r3, #0
  0076c	e58d3034	 str         r3, [sp, #0x34]
  00770		 |$LN5@CreateHCDO|

; 225  :     if (pPddObject == NULL)

  00770	e59d3010	 ldr         r3, [sp, #0x10]
  00774	e3530000	 cmp         r3, #0
  00778	1a000002	 bne         |$LN1@CreateHCDO|

; 226  :         return NULL;

  0077c	e3a03000	 mov         r3, #0
  00780	e58d3020	 str         r3, [sp, #0x20]
  00784	ea000025	 b           |$LN2@CreateHCDO|
  00788		 |$LN1@CreateHCDO|

; 227  : 
; 228  :     PUCHAR cppiBase = pPddObject->ioCppiBase;

  00788	e59d3010	 ldr         r3, [sp, #0x10]
  0078c	e2833f85	 add         r3, r3, #0x85, 30
  00790	e5933000	 ldr         r3, [r3]
  00794	e58d3018	 str         r3, [sp, #0x18]

; 229  :     DWORD dwDescriptorCount = pPddObject->dwDescriptorCount;

  00798	e59d3010	 ldr         r3, [sp, #0x10]
  0079c	e2833f8a	 add         r3, r3, #0x8A, 30
  007a0	e5933000	 ldr         r3, [r3]
  007a4	e58d3014	 str         r3, [sp, #0x14]

; 230  : 
; 231  :     return new COhcd(pvOhcdPddObject,
; 232  :         pCPhysMem,
; 233  :         szDriverRegistryKey,
; 234  :         portBase,
; 235  :         cppiBase,
; 236  :         dwSysIntr,
; 237  :         dwDescriptorCount);

  007a8	e3a00c05	 mov         r0, #5, 24
  007ac	e38000b8	 orr         r0, r0, #0xB8
  007b0	eb000000	 bl          |??2@YAPAXI@Z|
  007b4	e58d0038	 str         r0, [sp, #0x38]
  007b8	e59d3038	 ldr         r3, [sp, #0x38]
  007bc	e58d301c	 str         r3, [sp, #0x1C]
  007c0	e59d301c	 ldr         r3, [sp, #0x1C]
  007c4	e3530000	 cmp         r3, #0
  007c8	0a000010	 beq         |$LN6@CreateHCDO|
  007cc	e59d3014	 ldr         r3, [sp, #0x14]
  007d0	e58d300c	 str         r3, [sp, #0xC]
  007d4	e59d305c	 ldr         r3, [sp, #0x5C]
  007d8	e58d3008	 str         r3, [sp, #8]
  007dc	e59d3018	 ldr         r3, [sp, #0x18]
  007e0	e58d3004	 str         r3, [sp, #4]
  007e4	e59d3058	 ldr         r3, [sp, #0x58]
  007e8	e58d3000	 str         r3, [sp]
  007ec	e59d3054	 ldr         r3, [sp, #0x54]
  007f0	e59d2050	 ldr         r2, [sp, #0x50]
  007f4	e59d104c	 ldr         r1, [sp, #0x4C]
  007f8	e59d001c	 ldr         r0, [sp, #0x1C]
  007fc	eb000000	 bl          |??0COhcd@@QAA@PAXPAVCPhysMem@@PBGRAE3KK@Z|
  00800	e58d003c	 str         r0, [sp, #0x3C]
  00804	e59d303c	 ldr         r3, [sp, #0x3C]
  00808	e58d3040	 str         r3, [sp, #0x40]
  0080c	ea000001	 b           |$LN7@CreateHCDO|
  00810		 |$LN6@CreateHCDO|
  00810	e3a03000	 mov         r3, #0
  00814	e58d3040	 str         r3, [sp, #0x40]
  00818		 |$LN7@CreateHCDO|
  00818	e59d3040	 ldr         r3, [sp, #0x40]
  0081c	e58d3020	 str         r3, [sp, #0x20]
  00820		 |$LN2@CreateHCDO|

; 238  : }

  00820	e59d0020	 ldr         r0, [sp, #0x20]
  00824	e28dd044	 add         sp, sp, #0x44
  00828	e89d6000	 ldmia       sp, {sp, lr}
  0082c	e12fff1e	 bx          lr
  00830		 |$LN11@CreateHCDO|
  00830		 |$LN12@CreateHCDO|
  00830	00000000	 DCD         |??_C@_1FK@FNONLNGN@?$AA?$CF?$AAs?$AA?3?$AA?5?$AAD?$AAE?$AAB?$AAU?$AAG?$AAC?$AAH?$AAK?$AA?5?$AAf?$AAa?$AAi?$AAl?$AAe?$AAd?$AA?5?$AAi?$AAn?$AA?5?$AAf?$AAi?$AAl?$AAe?$AA?5?$AA?$CF?$AAs?$AA?5?$AAa@|
  00834		 |$LN13@CreateHCDO|
  00834	00000000	 DCD         |dpCurSettings|
  00838		 |$LN14@CreateHCDO|
  00838	00000000	 DCD         |??_C@_1JK@BDLJCDDO@?$AAC?$AA?3?$AA?2?$AAW?$AAI?$AAN?$AAC?$AAE?$AA6?$AA0?$AA0?$AA?2?$AAP?$AAL?$AAA?$AAT?$AAF?$AAO?$AAR?$AAM?$AA?2?$AAC?$AAO?$AAM?$AAM?$AAO?$AAN?$AA?2?$AAS?$AAR?$AAC?$AA?2@|
  0083c		 |$M41867|

			 ENDP  ; |?CreateHCDObject@@YAPAVCHcd@@PAXPAVCPhysMem@@PBGRAEK@Z|, CreateHCDObject

	END
