; Listing generated by Microsoft (R) Optimizing Compiler Version 14.01.60511.01 

	TTL	C:\WINCE600\PLATFORM\COMMON\SRC\SOC\COMMON_TI_V1\AM3517\USB\USBH\transfer.cpp
	CODE32

  00000			 AREA	 |.drectve|, DRECTVE
	DCB	"-defaultlib:LIBCMT "
	DCB	"-defaultlib:OLDNAMES "

	EXPORT	|??_C@_1DK@JPBDFEOB@?$AAD?$AAE?$AAV?$AAI?$AAC?$AAE?$AA_?$AAC?$AAO?$AAN?$AAF?$AAI?$AAG?$AA_?$AAS?$AAT?$AAA?$AAT?$AAU?$AAS?$AA_?$AAI?$AAN?$AAV?$AAA?$AAL?$AAI?$AAD?$AA?$AA@| [ DATA ] ; `string'
	EXPORT	|??_C@_1DE@IMCKALLA@?$AAD?$AAE?$AAV?$AAI?$AAC?$AAE?$AA_?$AAC?$AAO?$AAN?$AAF?$AAI?$AAG?$AA_?$AAS?$AAT?$AAA?$AAT?$AAU?$AAS?$AA_?$AAD?$AAO?$AAN?$AAE?$AA?$AA@| [ DATA ] ; `string'
	EXPORT	|??_C@_1DI@CEGNOBAM@?$AAD?$AAE?$AAV?$AAI?$AAC?$AAE?$AA_?$AAC?$AAO?$AAN?$AAF?$AAI?$AAG?$AA_?$AAS?$AAT?$AAA?$AAT?$AAU?$AAS?$AA_?$AAF?$AAA?$AAI?$AAL?$AAE?$AAD?$AA?$AA@| [ DATA ] ; `string'
	EXPORT	|??_C@_1HO@PGHDEMEK@?$AAD?$AAE?$AAV?$AAI?$AAC?$AAE?$AA_?$AAC?$AAO?$AAN?$AAF?$AAI?$AAG?$AA_?$AAS?$AAT?$AAA?$AAT?$AAU?$AAS?$AA_?$AAS?$AAI?$AAG?$AAN?$AAA?$AAL?$AA_?$AAN?$AAE?$AAW?$AA_@| [ DATA ] ; `string'
	EXPORT	|??_C@_1II@FBBOBKGN@?$AAD?$AAE?$AAV?$AAI?$AAC?$AAE?$AA_?$AAC?$AAO?$AAN?$AAF?$AAI?$AAG?$AA_?$AAS?$AAT?$AAA?$AAT?$AAU?$AAS?$AA_?$AAI?$AAN?$AAS?$AAE?$AAR?$AAT?$AA_?$AAN?$AAE?$AAW?$AA_@| [ DATA ] ; `string'
	EXPORT	|??_C@_1FC@LCLFDJDO@?$AAD?$AAE?$AAV?$AAI?$AAC?$AAE?$AA_?$AAC?$AAO?$AAN?$AAF?$AAI?$AAG?$AA_?$AAS?$AAT?$AAA?$AAT?$AAU?$AAS?$AA_?$AAC?$AAR?$AAE?$AAA?$AAT?$AAE?$AA_?$AAN?$AAE?$AAW?$AA_@| [ DATA ] ; `string'
	EXPORT	|??_C@_1EI@COKEBMOE@?$AAD?$AAE?$AAV?$AAI?$AAC?$AAE?$AA_?$AAC?$AAO?$AAN?$AAF?$AAI?$AAG?$AA_?$AAS?$AAT?$AAA?$AAT?$AAU?$AAS?$AA_?$AAC?$AAR?$AAE?$AAA?$AAT?$AAE?$AA_?$AAN?$AAE?$AAW?$AA_@| [ DATA ] ; `string'
	EXPORT	|??_C@_1GG@HPGGGHKI@?$AAD?$AAE?$AAV?$AAI?$AAC?$AAE?$AA_?$AAC?$AAO?$AAN?$AAF?$AAI?$AAG?$AA_?$AAS?$AAT?$AAA?$AAT?$AAU?$AAS?$AA_?$AAS?$AAC?$AAH?$AAE?$AAD?$AAU?$AAL?$AAI?$AAN?$AAG?$AA_@| [ DATA ] ; `string'
	EXPORT	|??_C@_1HG@KPBCOGEF@?$AAD?$AAE?$AAV?$AAI?$AAC?$AAE?$AA_?$AAC?$AAO?$AAN?$AAF?$AAI?$AAG?$AA_?$AAS?$AAT?$AAA?$AAT?$AAU?$AAS?$AA_?$AAS?$AAC?$AAH?$AAE?$AAD?$AAU?$AAL?$AAI?$AAN?$AAG?$AA_@| [ DATA ] ; `string'
	EXPORT	|??_C@_1FG@CFFAAPDL@?$AAD?$AAE?$AAV?$AAI?$AAC?$AAE?$AA_?$AAC?$AAO?$AAN?$AAF?$AAI?$AAG?$AA_?$AAS?$AAT?$AAA?$AAT?$AAU?$AAS?$AA_?$AAS?$AAC?$AAH?$AAE?$AAD?$AAU?$AAL?$AAI?$AAN?$AAG?$AA_@| [ DATA ] ; `string'
	EXPORT	|??_C@_1GA@NDHJOKMM@?$AAD?$AAE?$AAV?$AAI?$AAC?$AAE?$AA_?$AAC?$AAO?$AAN?$AAF?$AAI?$AAG?$AA_?$AAS?$AAT?$AAA?$AAT?$AAU?$AAS?$AA_?$AAD?$AAE?$AAT?$AAE?$AAR?$AAM?$AAI?$AAN?$AAE?$AA_?$AAC@| [ DATA ] ; `string'
	EXPORT	|??_C@_1GM@JADKDKDC@?$AAD?$AAE?$AAV?$AAI?$AAC?$AAE?$AA_?$AAC?$AAO?$AAN?$AAF?$AAI?$AAG?$AA_?$AAS?$AAT?$AAA?$AAT?$AAU?$AAS?$AA_?$AAS?$AAC?$AAH?$AAE?$AAD?$AAU?$AAL?$AAI?$AAN?$AAG?$AA_@| [ DATA ] ; `string'
	EXPORT	|??_C@_1HM@NPLCKJLH@?$AAD?$AAE?$AAV?$AAI?$AAC?$AAE?$AA_?$AAC?$AAO?$AAN?$AAF?$AAI?$AAG?$AA_?$AAS?$AAT?$AAA?$AAT?$AAU?$AAS?$AA_?$AAS?$AAC?$AAH?$AAE?$AAD?$AAU?$AAL?$AAI?$AAN?$AAG?$AA_@| [ DATA ] ; `string'
	EXPORT	|??_C@_1HE@MEMGEMJJ@?$AAD?$AAE?$AAV?$AAI?$AAC?$AAE?$AA_?$AAC?$AAO?$AAN?$AAF?$AAI?$AAG?$AA_?$AAS?$AAT?$AAA?$AAT?$AAU?$AAS?$AA_?$AAS?$AAE?$AAT?$AAU?$AAP?$AA_?$AAC?$AAO?$AAN?$AAF?$AAI@| [ DATA ] ; `string'
	EXPORT	|??_C@_1GM@BCHKIAPP@?$AAD?$AAE?$AAV?$AAI?$AAC?$AAE?$AA_?$AAC?$AAO?$AAN?$AAF?$AAI?$AAG?$AA_?$AAS?$AAT?$AAA?$AAT?$AAU?$AAS?$AA_?$AAS?$AAC?$AAH?$AAE?$AAD?$AAU?$AAL?$AAI?$AAN?$AAG?$AA_@| [ DATA ] ; `string'
	EXPORT	|??_C@_1HM@FNPCBDHK@?$AAD?$AAE?$AAV?$AAI?$AAC?$AAE?$AA_?$AAC?$AAO?$AAN?$AAF?$AAI?$AAG?$AA_?$AAS?$AAT?$AAA?$AAT?$AAU?$AAS?$AA_?$AAS?$AAC?$AAH?$AAE?$AAD?$AAU?$AAL?$AAI?$AAN?$AAG?$AA_@| [ DATA ] ; `string'
	EXPORT	|??_C@_1EI@BBOOKHNN@?$AAD?$AAE?$AAV?$AAI?$AAC?$AAE?$AA_?$AAC?$AAO?$AAN?$AAF?$AAI?$AAG?$AA_?$AAS?$AAT?$AAA?$AAT?$AAU?$AAS?$AA_?$AAL?$AAE?$AAA?$AAV?$AAE?$AA_?$AAA?$AAD?$AAD?$AAR?$AAE@| [ DATA ] ; `string'
	EXPORT	|??_C@_1FI@LGLHPFAK@?$AAD?$AAE?$AAV?$AAI?$AAC?$AAE?$AA_?$AAC?$AAO?$AAN?$AAF?$AAI?$AAG?$AA_?$AAS?$AAT?$AAA?$AAT?$AAU?$AAS?$AA_?$AAS?$AAC?$AAH?$AAE?$AAD?$AAU?$AAL?$AAI?$AAN?$AAG?$AA_@| [ DATA ] ; `string'
	EXPORT	|??_C@_1HG@BLNLBKIO@?$AAD?$AAE?$AAV?$AAI?$AAC?$AAE?$AA_?$AAC?$AAO?$AAN?$AAF?$AAI?$AAG?$AA_?$AAS?$AAT?$AAA?$AAT?$AAU?$AAS?$AA_?$AAS?$AAC?$AAH?$AAE?$AAD?$AAU?$AAL?$AAI?$AAN?$AAG?$AA_@| [ DATA ] ; `string'
	EXPORT	|??_C@_1FG@NMCKCJLL@?$AAD?$AAE?$AAV?$AAI?$AAC?$AAE?$AA_?$AAC?$AAO?$AAN?$AAF?$AAI?$AAG?$AA_?$AAS?$AAT?$AAA?$AAT?$AAU?$AAS?$AA_?$AAR?$AAE?$AAS?$AAE?$AAT?$AA_?$AAA?$AAN?$AAD?$AA_?$AAE@| [ DATA ] ; `string'
	EXPORT	|??_C@_1EI@KNOIBOPH@?$AAD?$AAE?$AAV?$AAI?$AAC?$AAE?$AA_?$AAC?$AAO?$AAN?$AAF?$AAI?$AAG?$AA_?$AAS?$AAT?$AAA?$AAT?$AAU?$AAS?$AA_?$AAU?$AAS?$AAI?$AAN?$AAG?$AA_?$AAA?$AAD?$AAD?$AAR?$AAE@| [ DATA ] ; `string'
	EXPORT	|??_C@_1FI@COMJHLEF@?$AAD?$AAE?$AAV?$AAI?$AAC?$AAE?$AA_?$AAC?$AAO?$AAN?$AAF?$AAI?$AAG?$AA_?$AAS?$AAT?$AAA?$AAT?$AAU?$AAS?$AA_?$AAO?$AAP?$AAE?$AAN?$AAI?$AAN?$AAG?$AA_?$AAE?$AAN?$AAD@| [ DATA ] ; `string'

  00000			 AREA	 |.data|, DATA
|cszCfgStateStrings| DCD |??_C@_1FI@COMJHLEF@?$AAD?$AAE?$AAV?$AAI?$AAC?$AAE?$AA_?$AAC?$AAO?$AAN?$AAF?$AAI?$AAG?$AA_?$AAS?$AAT?$AAA?$AAT?$AAU?$AAS?$AA_?$AAO?$AAP?$AAE?$AAN?$AAI?$AAN?$AAG?$AA_?$AAE?$AAN?$AAD@|
	DCD	|??_C@_1EI@KNOIBOPH@?$AAD?$AAE?$AAV?$AAI?$AAC?$AAE?$AA_?$AAC?$AAO?$AAN?$AAF?$AAI?$AAG?$AA_?$AAS?$AAT?$AAA?$AAT?$AAU?$AAS?$AA_?$AAU?$AAS?$AAI?$AAN?$AAG?$AA_?$AAA?$AAD?$AAD?$AAR?$AAE@|
	DCD	|??_C@_1FG@NMCKCJLL@?$AAD?$AAE?$AAV?$AAI?$AAC?$AAE?$AA_?$AAC?$AAO?$AAN?$AAF?$AAI?$AAG?$AA_?$AAS?$AAT?$AAA?$AAT?$AAU?$AAS?$AA_?$AAR?$AAE?$AAS?$AAE?$AAT?$AA_?$AAA?$AAN?$AAD?$AA_?$AAE@|
	DCD	|??_C@_1HG@BLNLBKIO@?$AAD?$AAE?$AAV?$AAI?$AAC?$AAE?$AA_?$AAC?$AAO?$AAN?$AAF?$AAI?$AAG?$AA_?$AAS?$AAT?$AAA?$AAT?$AAU?$AAS?$AA_?$AAS?$AAC?$AAH?$AAE?$AAD?$AAU?$AAL?$AAI?$AAN?$AAG?$AA_@|
	DCD	|??_C@_1FI@LGLHPFAK@?$AAD?$AAE?$AAV?$AAI?$AAC?$AAE?$AA_?$AAC?$AAO?$AAN?$AAF?$AAI?$AAG?$AA_?$AAS?$AAT?$AAA?$AAT?$AAU?$AAS?$AA_?$AAS?$AAC?$AAH?$AAE?$AAD?$AAU?$AAL?$AAI?$AAN?$AAG?$AA_@|
	DCD	|??_C@_1EI@BBOOKHNN@?$AAD?$AAE?$AAV?$AAI?$AAC?$AAE?$AA_?$AAC?$AAO?$AAN?$AAF?$AAI?$AAG?$AA_?$AAS?$AAT?$AAA?$AAT?$AAU?$AAS?$AA_?$AAL?$AAE?$AAA?$AAV?$AAE?$AA_?$AAA?$AAD?$AAD?$AAR?$AAE@|
	DCD	|??_C@_1HM@FNPCBDHK@?$AAD?$AAE?$AAV?$AAI?$AAC?$AAE?$AA_?$AAC?$AAO?$AAN?$AAF?$AAI?$AAG?$AA_?$AAS?$AAT?$AAA?$AAT?$AAU?$AAS?$AA_?$AAS?$AAC?$AAH?$AAE?$AAD?$AAU?$AAL?$AAI?$AAN?$AAG?$AA_@|
	DCD	|??_C@_1GM@BCHKIAPP@?$AAD?$AAE?$AAV?$AAI?$AAC?$AAE?$AA_?$AAC?$AAO?$AAN?$AAF?$AAI?$AAG?$AA_?$AAS?$AAT?$AAA?$AAT?$AAU?$AAS?$AA_?$AAS?$AAC?$AAH?$AAE?$AAD?$AAU?$AAL?$AAI?$AAN?$AAG?$AA_@|
	DCD	|??_C@_1HE@MEMGEMJJ@?$AAD?$AAE?$AAV?$AAI?$AAC?$AAE?$AA_?$AAC?$AAO?$AAN?$AAF?$AAI?$AAG?$AA_?$AAS?$AAT?$AAA?$AAT?$AAU?$AAS?$AA_?$AAS?$AAE?$AAT?$AAU?$AAP?$AA_?$AAC?$AAO?$AAN?$AAF?$AAI@|
	DCD	|??_C@_1HM@NPLCKJLH@?$AAD?$AAE?$AAV?$AAI?$AAC?$AAE?$AA_?$AAC?$AAO?$AAN?$AAF?$AAI?$AAG?$AA_?$AAS?$AAT?$AAA?$AAT?$AAU?$AAS?$AA_?$AAS?$AAC?$AAH?$AAE?$AAD?$AAU?$AAL?$AAI?$AAN?$AAG?$AA_@|
	DCD	|??_C@_1GM@JADKDKDC@?$AAD?$AAE?$AAV?$AAI?$AAC?$AAE?$AA_?$AAC?$AAO?$AAN?$AAF?$AAI?$AAG?$AA_?$AAS?$AAT?$AAA?$AAT?$AAU?$AAS?$AA_?$AAS?$AAC?$AAH?$AAE?$AAD?$AAU?$AAL?$AAI?$AAN?$AAG?$AA_@|
	DCD	|??_C@_1GA@NDHJOKMM@?$AAD?$AAE?$AAV?$AAI?$AAC?$AAE?$AA_?$AAC?$AAO?$AAN?$AAF?$AAI?$AAG?$AA_?$AAS?$AAT?$AAA?$AAT?$AAU?$AAS?$AA_?$AAD?$AAE?$AAT?$AAE?$AAR?$AAM?$AAI?$AAN?$AAE?$AA_?$AAC@|
	DCD	|??_C@_1FG@CFFAAPDL@?$AAD?$AAE?$AAV?$AAI?$AAC?$AAE?$AA_?$AAC?$AAO?$AAN?$AAF?$AAI?$AAG?$AA_?$AAS?$AAT?$AAA?$AAT?$AAU?$AAS?$AA_?$AAS?$AAC?$AAH?$AAE?$AAD?$AAU?$AAL?$AAI?$AAN?$AAG?$AA_@|
	DCD	|??_C@_1HG@KPBCOGEF@?$AAD?$AAE?$AAV?$AAI?$AAC?$AAE?$AA_?$AAC?$AAO?$AAN?$AAF?$AAI?$AAG?$AA_?$AAS?$AAT?$AAA?$AAT?$AAU?$AAS?$AA_?$AAS?$AAC?$AAH?$AAE?$AAD?$AAU?$AAL?$AAI?$AAN?$AAG?$AA_@|
	DCD	|??_C@_1GG@HPGGGHKI@?$AAD?$AAE?$AAV?$AAI?$AAC?$AAE?$AA_?$AAC?$AAO?$AAN?$AAF?$AAI?$AAG?$AA_?$AAS?$AAT?$AAA?$AAT?$AAU?$AAS?$AA_?$AAS?$AAC?$AAH?$AAE?$AAD?$AAU?$AAL?$AAI?$AAN?$AAG?$AA_@|
	DCD	|??_C@_1EI@COKEBMOE@?$AAD?$AAE?$AAV?$AAI?$AAC?$AAE?$AA_?$AAC?$AAO?$AAN?$AAF?$AAI?$AAG?$AA_?$AAS?$AAT?$AAA?$AAT?$AAU?$AAS?$AA_?$AAC?$AAR?$AAE?$AAA?$AAT?$AAE?$AA_?$AAN?$AAE?$AAW?$AA_@|
	DCD	|??_C@_1FC@LCLFDJDO@?$AAD?$AAE?$AAV?$AAI?$AAC?$AAE?$AA_?$AAC?$AAO?$AAN?$AAF?$AAI?$AAG?$AA_?$AAS?$AAT?$AAA?$AAT?$AAU?$AAS?$AA_?$AAC?$AAR?$AAE?$AAA?$AAT?$AAE?$AA_?$AAN?$AAE?$AAW?$AA_@|
	DCD	|??_C@_1II@FBBOBKGN@?$AAD?$AAE?$AAV?$AAI?$AAC?$AAE?$AA_?$AAC?$AAO?$AAN?$AAF?$AAI?$AAG?$AA_?$AAS?$AAT?$AAA?$AAT?$AAU?$AAS?$AA_?$AAI?$AAN?$AAS?$AAE?$AAR?$AAT?$AA_?$AAN?$AAE?$AAW?$AA_@|
	DCD	|??_C@_1HO@PGHDEMEK@?$AAD?$AAE?$AAV?$AAI?$AAC?$AAE?$AA_?$AAC?$AAO?$AAN?$AAF?$AAI?$AAG?$AA_?$AAS?$AAT?$AAA?$AAT?$AAU?$AAS?$AA_?$AAS?$AAI?$AAG?$AAN?$AAA?$AAL?$AA_?$AAN?$AAE?$AAW?$AA_@|
	DCD	|??_C@_1DI@CEGNOBAM@?$AAD?$AAE?$AAV?$AAI?$AAC?$AAE?$AA_?$AAC?$AAO?$AAN?$AAF?$AAI?$AAG?$AA_?$AAS?$AAT?$AAA?$AAT?$AAU?$AAS?$AA_?$AAF?$AAA?$AAI?$AAL?$AAE?$AAD?$AA?$AA@|
	DCD	|??_C@_1DE@IMCKALLA@?$AAD?$AAE?$AAV?$AAI?$AAC?$AAE?$AA_?$AAC?$AAO?$AAN?$AAF?$AAI?$AAG?$AA_?$AAS?$AAT?$AAA?$AAT?$AAU?$AAS?$AA_?$AAD?$AAO?$AAN?$AAE?$AA?$AA@|
	DCD	|??_C@_1DK@JPBDFEOB@?$AAD?$AAE?$AAV?$AAI?$AAC?$AAE?$AA_?$AAC?$AAO?$AAN?$AAF?$AAI?$AAG?$AA_?$AAS?$AAT?$AAA?$AAT?$AAU?$AAS?$AA_?$AAI?$AAN?$AAV?$AAA?$AAL?$AAI?$AAD?$AA?$AA@|

  00000			 AREA	 |.rdata|, DATA, READONLY
|??_C@_1DK@JPBDFEOB@?$AAD?$AAE?$AAV?$AAI?$AAC?$AAE?$AA_?$AAC?$AAO?$AAN?$AAF?$AAI?$AAG?$AA_?$AAS?$AAT?$AAA?$AAT?$AAU?$AAS?$AA_?$AAI?$AAN?$AAV?$AAA?$AAL?$AAI?$AAD?$AA?$AA@| DCB "D"
	DCB	0x0, "E", 0x0, "V", 0x0, "I", 0x0, "C", 0x0, "E", 0x0, "_"
	DCB	0x0, "C", 0x0, "O", 0x0, "N", 0x0, "F", 0x0, "I", 0x0, "G"
	DCB	0x0, "_", 0x0, "S", 0x0, "T", 0x0, "A", 0x0, "T", 0x0, "U"
	DCB	0x0, "S", 0x0, "_", 0x0, "I", 0x0, "N", 0x0, "V", 0x0, "A"
	DCB	0x0, "L", 0x0, "I", 0x0, "D", 0x0, 0x0, 0x0 ; `string'

  00000			 AREA	 |.rdata|, DATA, READONLY
|??_C@_1DE@IMCKALLA@?$AAD?$AAE?$AAV?$AAI?$AAC?$AAE?$AA_?$AAC?$AAO?$AAN?$AAF?$AAI?$AAG?$AA_?$AAS?$AAT?$AAA?$AAT?$AAU?$AAS?$AA_?$AAD?$AAO?$AAN?$AAE?$AA?$AA@| DCB "D"
	DCB	0x0, "E", 0x0, "V", 0x0, "I", 0x0, "C", 0x0, "E", 0x0, "_"
	DCB	0x0, "C", 0x0, "O", 0x0, "N", 0x0, "F", 0x0, "I", 0x0, "G"
	DCB	0x0, "_", 0x0, "S", 0x0, "T", 0x0, "A", 0x0, "T", 0x0, "U"
	DCB	0x0, "S", 0x0, "_", 0x0, "D", 0x0, "O", 0x0, "N", 0x0, "E"
	DCB	0x0, 0x0, 0x0				; `string'

  00000			 AREA	 |.rdata|, DATA, READONLY
|??_C@_1DI@CEGNOBAM@?$AAD?$AAE?$AAV?$AAI?$AAC?$AAE?$AA_?$AAC?$AAO?$AAN?$AAF?$AAI?$AAG?$AA_?$AAS?$AAT?$AAA?$AAT?$AAU?$AAS?$AA_?$AAF?$AAA?$AAI?$AAL?$AAE?$AAD?$AA?$AA@| DCB "D"
	DCB	0x0, "E", 0x0, "V", 0x0, "I", 0x0, "C", 0x0, "E", 0x0, "_"
	DCB	0x0, "C", 0x0, "O", 0x0, "N", 0x0, "F", 0x0, "I", 0x0, "G"
	DCB	0x0, "_", 0x0, "S", 0x0, "T", 0x0, "A", 0x0, "T", 0x0, "U"
	DCB	0x0, "S", 0x0, "_", 0x0, "F", 0x0, "A", 0x0, "I", 0x0, "L"
	DCB	0x0, "E", 0x0, "D", 0x0, 0x0, 0x0	; `string'

  00000			 AREA	 |.rdata|, DATA, READONLY
|??_C@_1HO@PGHDEMEK@?$AAD?$AAE?$AAV?$AAI?$AAC?$AAE?$AA_?$AAC?$AAO?$AAN?$AAF?$AAI?$AAG?$AA_?$AAS?$AAT?$AAA?$AAT?$AAU?$AAS?$AA_?$AAS?$AAI?$AAG?$AAN?$AAA?$AAL?$AA_?$AAN?$AAE?$AAW?$AA_@| DCB "D"
	DCB	0x0, "E", 0x0, "V", 0x0, "I", 0x0, "C", 0x0, "E", 0x0, "_"
	DCB	0x0, "C", 0x0, "O", 0x0, "N", 0x0, "F", 0x0, "I", 0x0, "G"
	DCB	0x0, "_", 0x0, "S", 0x0, "T", 0x0, "A", 0x0, "T", 0x0, "U"
	DCB	0x0, "S", 0x0, "_", 0x0, "S", 0x0, "I", 0x0, "G", 0x0, "N"
	DCB	0x0, "A", 0x0, "L", 0x0, "_", 0x0, "N", 0x0, "E", 0x0, "W"
	DCB	0x0, "_", 0x0, "D", 0x0, "E", 0x0, "V", 0x0, "I", 0x0, "C"
	DCB	0x0, "E", 0x0, "_", 0x0, "E", 0x0, "N", 0x0, "T", 0x0, "E"
	DCB	0x0, "R", 0x0, "_", 0x0, "O", 0x0, "P", 0x0, "E", 0x0, "R"
	DCB	0x0, "A", 0x0, "T", 0x0, "I", 0x0, "O", 0x0, "N", 0x0, "A"
	DCB	0x0, "L", 0x0, "_", 0x0, "S", 0x0, "T", 0x0, "A", 0x0, "T"
	DCB	0x0, "E", 0x0, 0x0, 0x0			; `string'

  00000			 AREA	 |.rdata|, DATA, READONLY
|??_C@_1II@FBBOBKGN@?$AAD?$AAE?$AAV?$AAI?$AAC?$AAE?$AA_?$AAC?$AAO?$AAN?$AAF?$AAI?$AAG?$AA_?$AAS?$AAT?$AAA?$AAT?$AAU?$AAS?$AA_?$AAI?$AAN?$AAS?$AAE?$AAR?$AAT?$AA_?$AAN?$AAE?$AAW?$AA_@| DCB "D"
	DCB	0x0, "E", 0x0, "V", 0x0, "I", 0x0, "C", 0x0, "E", 0x0, "_"
	DCB	0x0, "C", 0x0, "O", 0x0, "N", 0x0, "F", 0x0, "I", 0x0, "G"
	DCB	0x0, "_", 0x0, "S", 0x0, "T", 0x0, "A", 0x0, "T", 0x0, "U"
	DCB	0x0, "S", 0x0, "_", 0x0, "I", 0x0, "N", 0x0, "S", 0x0, "E"
	DCB	0x0, "R", 0x0, "T", 0x0, "_", 0x0, "N", 0x0, "E", 0x0, "W"
	DCB	0x0, "_", 0x0, "D", 0x0, "E", 0x0, "V", 0x0, "I", 0x0, "C"
	DCB	0x0, "E", 0x0, "_", 0x0, "I", 0x0, "N", 0x0, "T", 0x0, "O"
	DCB	0x0, "_", 0x0, "U", 0x0, "P", 0x0, "S", 0x0, "T", 0x0, "R"
	DCB	0x0, "E", 0x0, "A", 0x0, "M", 0x0, "_", 0x0, "H", 0x0, "U"
	DCB	0x0, "B", 0x0, "_", 0x0, "P", 0x0, "O", 0x0, "R", 0x0, "T"
	DCB	0x0, "_", 0x0, "A", 0x0, "R", 0x0, "R", 0x0, "A", 0x0, "Y"
	DCB	0x0, 0x0, 0x0				; `string'

  00000			 AREA	 |.rdata|, DATA, READONLY
|??_C@_1FC@LCLFDJDO@?$AAD?$AAE?$AAV?$AAI?$AAC?$AAE?$AA_?$AAC?$AAO?$AAN?$AAF?$AAI?$AAG?$AA_?$AAS?$AAT?$AAA?$AAT?$AAU?$AAS?$AA_?$AAC?$AAR?$AAE?$AAA?$AAT?$AAE?$AA_?$AAN?$AAE?$AAW?$AA_@| DCB "D"
	DCB	0x0, "E", 0x0, "V", 0x0, "I", 0x0, "C", 0x0, "E", 0x0, "_"
	DCB	0x0, "C", 0x0, "O", 0x0, "N", 0x0, "F", 0x0, "I", 0x0, "G"
	DCB	0x0, "_", 0x0, "S", 0x0, "T", 0x0, "A", 0x0, "T", 0x0, "U"
	DCB	0x0, "S", 0x0, "_", 0x0, "C", 0x0, "R", 0x0, "E", 0x0, "A"
	DCB	0x0, "T", 0x0, "E", 0x0, "_", 0x0, "N", 0x0, "E", 0x0, "W"
	DCB	0x0, "_", 0x0, "F", 0x0, "U", 0x0, "N", 0x0, "C", 0x0, "T"
	DCB	0x0, "I", 0x0, "O", 0x0, "N", 0x0, 0x0, 0x0 ; `string'

  00000			 AREA	 |.rdata|, DATA, READONLY
|??_C@_1EI@COKEBMOE@?$AAD?$AAE?$AAV?$AAI?$AAC?$AAE?$AA_?$AAC?$AAO?$AAN?$AAF?$AAI?$AAG?$AA_?$AAS?$AAT?$AAA?$AAT?$AAU?$AAS?$AA_?$AAC?$AAR?$AAE?$AAA?$AAT?$AAE?$AA_?$AAN?$AAE?$AAW?$AA_@| DCB "D"
	DCB	0x0, "E", 0x0, "V", 0x0, "I", 0x0, "C", 0x0, "E", 0x0, "_"
	DCB	0x0, "C", 0x0, "O", 0x0, "N", 0x0, "F", 0x0, "I", 0x0, "G"
	DCB	0x0, "_", 0x0, "S", 0x0, "T", 0x0, "A", 0x0, "T", 0x0, "U"
	DCB	0x0, "S", 0x0, "_", 0x0, "C", 0x0, "R", 0x0, "E", 0x0, "A"
	DCB	0x0, "T", 0x0, "E", 0x0, "_", 0x0, "N", 0x0, "E", 0x0, "W"
	DCB	0x0, "_", 0x0, "H", 0x0, "U", 0x0, "B", 0x0, 0x0, 0x0 ; `string'

  00000			 AREA	 |.rdata|, DATA, READONLY
|??_C@_1GG@HPGGGHKI@?$AAD?$AAE?$AAV?$AAI?$AAC?$AAE?$AA_?$AAC?$AAO?$AAN?$AAF?$AAI?$AAG?$AA_?$AAS?$AAT?$AAA?$AAT?$AAU?$AAS?$AA_?$AAS?$AAC?$AAH?$AAE?$AAD?$AAU?$AAL?$AAI?$AAN?$AAG?$AA_@| DCB "D"
	DCB	0x0, "E", 0x0, "V", 0x0, "I", 0x0, "C", 0x0, "E", 0x0, "_"
	DCB	0x0, "C", 0x0, "O", 0x0, "N", 0x0, "F", 0x0, "I", 0x0, "G"
	DCB	0x0, "_", 0x0, "S", 0x0, "T", 0x0, "A", 0x0, "T", 0x0, "U"
	DCB	0x0, "S", 0x0, "_", 0x0, "S", 0x0, "C", 0x0, "H", 0x0, "E"
	DCB	0x0, "D", 0x0, "U", 0x0, "L", 0x0, "I", 0x0, "N", 0x0, "G"
	DCB	0x0, "_", 0x0, "G", 0x0, "E", 0x0, "T", 0x0, "_", 0x0, "H"
	DCB	0x0, "U", 0x0, "B", 0x0, "_", 0x0, "D", 0x0, "E", 0x0, "S"
	DCB	0x0, "C", 0x0, "R", 0x0, "I", 0x0, "P", 0x0, "T", 0x0, "O"
	DCB	0x0, "R", 0x0, 0x0, 0x0			; `string'

  00000			 AREA	 |.rdata|, DATA, READONLY
|??_C@_1HG@KPBCOGEF@?$AAD?$AAE?$AAV?$AAI?$AAC?$AAE?$AA_?$AAC?$AAO?$AAN?$AAF?$AAI?$AAG?$AA_?$AAS?$AAT?$AAA?$AAT?$AAU?$AAS?$AA_?$AAS?$AAC?$AAH?$AAE?$AAD?$AAU?$AAL?$AAI?$AAN?$AAG?$AA_@| DCB "D"
	DCB	0x0, "E", 0x0, "V", 0x0, "I", 0x0, "C", 0x0, "E", 0x0, "_"
	DCB	0x0, "C", 0x0, "O", 0x0, "N", 0x0, "F", 0x0, "I", 0x0, "G"
	DCB	0x0, "_", 0x0, "S", 0x0, "T", 0x0, "A", 0x0, "T", 0x0, "U"
	DCB	0x0, "S", 0x0, "_", 0x0, "S", 0x0, "C", 0x0, "H", 0x0, "E"
	DCB	0x0, "D", 0x0, "U", 0x0, "L", 0x0, "I", 0x0, "N", 0x0, "G"
	DCB	0x0, "_", 0x0, "G", 0x0, "E", 0x0, "T", 0x0, "_", 0x0, "I"
	DCB	0x0, "N", 0x0, "I", 0x0, "T", 0x0, "I", 0x0, "A", 0x0, "L"
	DCB	0x0, "_", 0x0, "H", 0x0, "U", 0x0, "B", 0x0, "_", 0x0, "D"
	DCB	0x0, "E", 0x0, "S", 0x0, "C", 0x0, "R", 0x0, "I", 0x0, "P"
	DCB	0x0, "T", 0x0, "O", 0x0, "R", 0x0, 0x0, 0x0 ; `string'

  00000			 AREA	 |.rdata|, DATA, READONLY
|??_C@_1FG@CFFAAPDL@?$AAD?$AAE?$AAV?$AAI?$AAC?$AAE?$AA_?$AAC?$AAO?$AAN?$AAF?$AAI?$AAG?$AA_?$AAS?$AAT?$AAA?$AAT?$AAU?$AAS?$AA_?$AAS?$AAC?$AAH?$AAE?$AAD?$AAU?$AAL?$AAI?$AAN?$AAG?$AA_@| DCB "D"
	DCB	0x0, "E", 0x0, "V", 0x0, "I", 0x0, "C", 0x0, "E", 0x0, "_"
	DCB	0x0, "C", 0x0, "O", 0x0, "N", 0x0, "F", 0x0, "I", 0x0, "G"
	DCB	0x0, "_", 0x0, "S", 0x0, "T", 0x0, "A", 0x0, "T", 0x0, "U"
	DCB	0x0, "S", 0x0, "_", 0x0, "S", 0x0, "C", 0x0, "H", 0x0, "E"
	DCB	0x0, "D", 0x0, "U", 0x0, "L", 0x0, "I", 0x0, "N", 0x0, "G"
	DCB	0x0, "_", 0x0, "S", 0x0, "E", 0x0, "T", 0x0, "_", 0x0, "C"
	DCB	0x0, "O", 0x0, "N", 0x0, "F", 0x0, "I", 0x0, "G", 0x0, 0x0
	DCB	0x0					; `string'

  00000			 AREA	 |.rdata|, DATA, READONLY
|??_C@_1GA@NDHJOKMM@?$AAD?$AAE?$AAV?$AAI?$AAC?$AAE?$AA_?$AAC?$AAO?$AAN?$AAF?$AAI?$AAG?$AA_?$AAS?$AAT?$AAA?$AAT?$AAU?$AAS?$AA_?$AAD?$AAE?$AAT?$AAE?$AAR?$AAM?$AAI?$AAN?$AAE?$AA_?$AAC@| DCB "D"
	DCB	0x0, "E", 0x0, "V", 0x0, "I", 0x0, "C", 0x0, "E", 0x0, "_"
	DCB	0x0, "C", 0x0, "O", 0x0, "N", 0x0, "F", 0x0, "I", 0x0, "G"
	DCB	0x0, "_", 0x0, "S", 0x0, "T", 0x0, "A", 0x0, "T", 0x0, "U"
	DCB	0x0, "S", 0x0, "_", 0x0, "D", 0x0, "E", 0x0, "T", 0x0, "E"
	DCB	0x0, "R", 0x0, "M", 0x0, "I", 0x0, "N", 0x0, "E", 0x0, "_"
	DCB	0x0, "C", 0x0, "O", 0x0, "N", 0x0, "F", 0x0, "I", 0x0, "G"
	DCB	0x0, "_", 0x0, "T", 0x0, "O", 0x0, "_", 0x0, "C", 0x0, "H"
	DCB	0x0, "O", 0x0, "O", 0x0, "S", 0x0, "E", 0x0, 0x0, 0x0 ; `string'

  00000			 AREA	 |.rdata|, DATA, READONLY
|??_C@_1GM@JADKDKDC@?$AAD?$AAE?$AAV?$AAI?$AAC?$AAE?$AA_?$AAC?$AAO?$AAN?$AAF?$AAI?$AAG?$AA_?$AAS?$AAT?$AAA?$AAT?$AAU?$AAS?$AA_?$AAS?$AAC?$AAH?$AAE?$AAD?$AAU?$AAL?$AAI?$AAN?$AAG?$AA_@| DCB "D"
	DCB	0x0, "E", 0x0, "V", 0x0, "I", 0x0, "C", 0x0, "E", 0x0, "_"
	DCB	0x0, "C", 0x0, "O", 0x0, "N", 0x0, "F", 0x0, "I", 0x0, "G"
	DCB	0x0, "_", 0x0, "S", 0x0, "T", 0x0, "A", 0x0, "T", 0x0, "U"
	DCB	0x0, "S", 0x0, "_", 0x0, "S", 0x0, "C", 0x0, "H", 0x0, "E"
	DCB	0x0, "D", 0x0, "U", 0x0, "L", 0x0, "I", 0x0, "N", 0x0, "G"
	DCB	0x0, "_", 0x0, "G", 0x0, "E", 0x0, "T", 0x0, "_", 0x0, "C"
	DCB	0x0, "O", 0x0, "N", 0x0, "F", 0x0, "I", 0x0, "G", 0x0, "_"
	DCB	0x0, "D", 0x0, "E", 0x0, "S", 0x0, "C", 0x0, "R", 0x0, "I"
	DCB	0x0, "P", 0x0, "T", 0x0, "O", 0x0, "R", 0x0, 0x0, 0x0 ; `string'

  00000			 AREA	 |.rdata|, DATA, READONLY
|??_C@_1HM@NPLCKJLH@?$AAD?$AAE?$AAV?$AAI?$AAC?$AAE?$AA_?$AAC?$AAO?$AAN?$AAF?$AAI?$AAG?$AA_?$AAS?$AAT?$AAA?$AAT?$AAU?$AAS?$AA_?$AAS?$AAC?$AAH?$AAE?$AAD?$AAU?$AAL?$AAI?$AAN?$AAG?$AA_@| DCB "D"
	DCB	0x0, "E", 0x0, "V", 0x0, "I", 0x0, "C", 0x0, "E", 0x0, "_"
	DCB	0x0, "C", 0x0, "O", 0x0, "N", 0x0, "F", 0x0, "I", 0x0, "G"
	DCB	0x0, "_", 0x0, "S", 0x0, "T", 0x0, "A", 0x0, "T", 0x0, "U"
	DCB	0x0, "S", 0x0, "_", 0x0, "S", 0x0, "C", 0x0, "H", 0x0, "E"
	DCB	0x0, "D", 0x0, "U", 0x0, "L", 0x0, "I", 0x0, "N", 0x0, "G"
	DCB	0x0, "_", 0x0, "G", 0x0, "E", 0x0, "T", 0x0, "_", 0x0, "I"
	DCB	0x0, "N", 0x0, "I", 0x0, "T", 0x0, "I", 0x0, "A", 0x0, "L"
	DCB	0x0, "_", 0x0, "C", 0x0, "O", 0x0, "N", 0x0, "F", 0x0, "I"
	DCB	0x0, "G", 0x0, "_", 0x0, "D", 0x0, "E", 0x0, "S", 0x0, "C"
	DCB	0x0, "R", 0x0, "I", 0x0, "P", 0x0, "T", 0x0, "O", 0x0, "R"
	DCB	0x0, 0x0, 0x0				; `string'

  00000			 AREA	 |.rdata|, DATA, READONLY
|??_C@_1HE@MEMGEMJJ@?$AAD?$AAE?$AAV?$AAI?$AAC?$AAE?$AA_?$AAC?$AAO?$AAN?$AAF?$AAI?$AAG?$AA_?$AAS?$AAT?$AAA?$AAT?$AAU?$AAS?$AA_?$AAS?$AAE?$AAT?$AAU?$AAP?$AA_?$AAC?$AAO?$AAN?$AAF?$AAI@| DCB "D"
	DCB	0x0, "E", 0x0, "V", 0x0, "I", 0x0, "C", 0x0, "E", 0x0, "_"
	DCB	0x0, "C", 0x0, "O", 0x0, "N", 0x0, "F", 0x0, "I", 0x0, "G"
	DCB	0x0, "_", 0x0, "S", 0x0, "T", 0x0, "A", 0x0, "T", 0x0, "U"
	DCB	0x0, "S", 0x0, "_", 0x0, "S", 0x0, "E", 0x0, "T", 0x0, "U"
	DCB	0x0, "P", 0x0, "_", 0x0, "C", 0x0, "O", 0x0, "N", 0x0, "F"
	DCB	0x0, "I", 0x0, "G", 0x0, "U", 0x0, "R", 0x0, "A", 0x0, "T"
	DCB	0x0, "I", 0x0, "O", 0x0, "N", 0x0, "_", 0x0, "D", 0x0, "E"
	DCB	0x0, "S", 0x0, "C", 0x0, "R", 0x0, "I", 0x0, "P", 0x0, "T"
	DCB	0x0, "O", 0x0, "R", 0x0, "_", 0x0, "A", 0x0, "R", 0x0, "R"
	DCB	0x0, "A", 0x0, "Y", 0x0, 0x0, 0x0	; `string'

  00000			 AREA	 |.rdata|, DATA, READONLY
|??_C@_1GM@BCHKIAPP@?$AAD?$AAE?$AAV?$AAI?$AAC?$AAE?$AA_?$AAC?$AAO?$AAN?$AAF?$AAI?$AAG?$AA_?$AAS?$AAT?$AAA?$AAT?$AAU?$AAS?$AA_?$AAS?$AAC?$AAH?$AAE?$AAD?$AAU?$AAL?$AAI?$AAN?$AAG?$AA_@| DCB "D"
	DCB	0x0, "E", 0x0, "V", 0x0, "I", 0x0, "C", 0x0, "E", 0x0, "_"
	DCB	0x0, "C", 0x0, "O", 0x0, "N", 0x0, "F", 0x0, "I", 0x0, "G"
	DCB	0x0, "_", 0x0, "S", 0x0, "T", 0x0, "A", 0x0, "T", 0x0, "U"
	DCB	0x0, "S", 0x0, "_", 0x0, "S", 0x0, "C", 0x0, "H", 0x0, "E"
	DCB	0x0, "D", 0x0, "U", 0x0, "L", 0x0, "I", 0x0, "N", 0x0, "G"
	DCB	0x0, "_", 0x0, "G", 0x0, "E", 0x0, "T", 0x0, "_", 0x0, "D"
	DCB	0x0, "E", 0x0, "V", 0x0, "I", 0x0, "C", 0x0, "E", 0x0, "_"
	DCB	0x0, "D", 0x0, "E", 0x0, "S", 0x0, "C", 0x0, "R", 0x0, "I"
	DCB	0x0, "P", 0x0, "T", 0x0, "O", 0x0, "R", 0x0, 0x0, 0x0 ; `string'

  00000			 AREA	 |.rdata|, DATA, READONLY
|??_C@_1HM@FNPCBDHK@?$AAD?$AAE?$AAV?$AAI?$AAC?$AAE?$AA_?$AAC?$AAO?$AAN?$AAF?$AAI?$AAG?$AA_?$AAS?$AAT?$AAA?$AAT?$AAU?$AAS?$AA_?$AAS?$AAC?$AAH?$AAE?$AAD?$AAU?$AAL?$AAI?$AAN?$AAG?$AA_@| DCB "D"
	DCB	0x0, "E", 0x0, "V", 0x0, "I", 0x0, "C", 0x0, "E", 0x0, "_"
	DCB	0x0, "C", 0x0, "O", 0x0, "N", 0x0, "F", 0x0, "I", 0x0, "G"
	DCB	0x0, "_", 0x0, "S", 0x0, "T", 0x0, "A", 0x0, "T", 0x0, "U"
	DCB	0x0, "S", 0x0, "_", 0x0, "S", 0x0, "C", 0x0, "H", 0x0, "E"
	DCB	0x0, "D", 0x0, "U", 0x0, "L", 0x0, "I", 0x0, "N", 0x0, "G"
	DCB	0x0, "_", 0x0, "G", 0x0, "E", 0x0, "T", 0x0, "_", 0x0, "I"
	DCB	0x0, "N", 0x0, "I", 0x0, "T", 0x0, "I", 0x0, "A", 0x0, "L"
	DCB	0x0, "_", 0x0, "D", 0x0, "E", 0x0, "V", 0x0, "I", 0x0, "C"
	DCB	0x0, "E", 0x0, "_", 0x0, "D", 0x0, "E", 0x0, "S", 0x0, "C"
	DCB	0x0, "R", 0x0, "I", 0x0, "P", 0x0, "T", 0x0, "O", 0x0, "R"
	DCB	0x0, 0x0, 0x0				; `string'

  00000			 AREA	 |.rdata|, DATA, READONLY
|??_C@_1EI@BBOOKHNN@?$AAD?$AAE?$AAV?$AAI?$AAC?$AAE?$AA_?$AAC?$AAO?$AAN?$AAF?$AAI?$AAG?$AA_?$AAS?$AAT?$AAA?$AAT?$AAU?$AAS?$AA_?$AAL?$AAE?$AAA?$AAV?$AAE?$AA_?$AAA?$AAD?$AAD?$AAR?$AAE@| DCB "D"
	DCB	0x0, "E", 0x0, "V", 0x0, "I", 0x0, "C", 0x0, "E", 0x0, "_"
	DCB	0x0, "C", 0x0, "O", 0x0, "N", 0x0, "F", 0x0, "I", 0x0, "G"
	DCB	0x0, "_", 0x0, "S", 0x0, "T", 0x0, "A", 0x0, "T", 0x0, "U"
	DCB	0x0, "S", 0x0, "_", 0x0, "L", 0x0, "E", 0x0, "A", 0x0, "V"
	DCB	0x0, "E", 0x0, "_", 0x0, "A", 0x0, "D", 0x0, "D", 0x0, "R"
	DCB	0x0, "E", 0x0, "S", 0x0, "S", 0x0, "0", 0x0, 0x0, 0x0 ; `string'

  00000			 AREA	 |.rdata|, DATA, READONLY
|??_C@_1FI@LGLHPFAK@?$AAD?$AAE?$AAV?$AAI?$AAC?$AAE?$AA_?$AAC?$AAO?$AAN?$AAF?$AAI?$AAG?$AA_?$AAS?$AAT?$AAA?$AAT?$AAU?$AAS?$AA_?$AAS?$AAC?$AAH?$AAE?$AAD?$AAU?$AAL?$AAI?$AAN?$AAG?$AA_@| DCB "D"
	DCB	0x0, "E", 0x0, "V", 0x0, "I", 0x0, "C", 0x0, "E", 0x0, "_"
	DCB	0x0, "C", 0x0, "O", 0x0, "N", 0x0, "F", 0x0, "I", 0x0, "G"
	DCB	0x0, "_", 0x0, "S", 0x0, "T", 0x0, "A", 0x0, "T", 0x0, "U"
	DCB	0x0, "S", 0x0, "_", 0x0, "S", 0x0, "C", 0x0, "H", 0x0, "E"
	DCB	0x0, "D", 0x0, "U", 0x0, "L", 0x0, "I", 0x0, "N", 0x0, "G"
	DCB	0x0, "_", 0x0, "S", 0x0, "E", 0x0, "T", 0x0, "_", 0x0, "A"
	DCB	0x0, "D", 0x0, "D", 0x0, "R", 0x0, "E", 0x0, "S", 0x0, "S"
	DCB	0x0, 0x0, 0x0				; `string'

  00000			 AREA	 |.rdata|, DATA, READONLY
|??_C@_1HG@BLNLBKIO@?$AAD?$AAE?$AAV?$AAI?$AAC?$AAE?$AA_?$AAC?$AAO?$AAN?$AAF?$AAI?$AAG?$AA_?$AAS?$AAT?$AAA?$AAT?$AAU?$AAS?$AA_?$AAS?$AAC?$AAH?$AAE?$AAD?$AAU?$AAL?$AAI?$AAN?$AAG?$AA_@| DCB "D"
	DCB	0x0, "E", 0x0, "V", 0x0, "I", 0x0, "C", 0x0, "E", 0x0, "_"
	DCB	0x0, "C", 0x0, "O", 0x0, "N", 0x0, "F", 0x0, "I", 0x0, "G"
	DCB	0x0, "_", 0x0, "S", 0x0, "T", 0x0, "A", 0x0, "T", 0x0, "U"
	DCB	0x0, "S", 0x0, "_", 0x0, "S", 0x0, "C", 0x0, "H", 0x0, "E"
	DCB	0x0, "D", 0x0, "U", 0x0, "L", 0x0, "I", 0x0, "N", 0x0, "G"
	DCB	0x0, "_", 0x0, "G", 0x0, "E", 0x0, "T", 0x0, "_", 0x0, "D"
	DCB	0x0, "E", 0x0, "V", 0x0, "I", 0x0, "C", 0x0, "E", 0x0, "_"
	DCB	0x0, "D", 0x0, "E", 0x0, "S", 0x0, "C", 0x0, "R", 0x0, "I"
	DCB	0x0, "P", 0x0, "T", 0x0, "O", 0x0, "R", 0x0, "_", 0x0, "T"
	DCB	0x0, "E", 0x0, "S", 0x0, "T", 0x0, 0x0, 0x0 ; `string'

  00000			 AREA	 |.rdata|, DATA, READONLY
|??_C@_1FG@NMCKCJLL@?$AAD?$AAE?$AAV?$AAI?$AAC?$AAE?$AA_?$AAC?$AAO?$AAN?$AAF?$AAI?$AAG?$AA_?$AAS?$AAT?$AAA?$AAT?$AAU?$AAS?$AA_?$AAR?$AAE?$AAS?$AAE?$AAT?$AA_?$AAA?$AAN?$AAD?$AA_?$AAE@| DCB "D"
	DCB	0x0, "E", 0x0, "V", 0x0, "I", 0x0, "C", 0x0, "E", 0x0, "_"
	DCB	0x0, "C", 0x0, "O", 0x0, "N", 0x0, "F", 0x0, "I", 0x0, "G"
	DCB	0x0, "_", 0x0, "S", 0x0, "T", 0x0, "A", 0x0, "T", 0x0, "U"
	DCB	0x0, "S", 0x0, "_", 0x0, "R", 0x0, "E", 0x0, "S", 0x0, "E"
	DCB	0x0, "T", 0x0, "_", 0x0, "A", 0x0, "N", 0x0, "D", 0x0, "_"
	DCB	0x0, "E", 0x0, "N", 0x0, "A", 0x0, "B", 0x0, "L", 0x0, "E"
	DCB	0x0, "_", 0x0, "P", 0x0, "O", 0x0, "R", 0x0, "T", 0x0, 0x0
	DCB	0x0					; `string'

  00000			 AREA	 |.rdata|, DATA, READONLY
|??_C@_1EI@KNOIBOPH@?$AAD?$AAE?$AAV?$AAI?$AAC?$AAE?$AA_?$AAC?$AAO?$AAN?$AAF?$AAI?$AAG?$AA_?$AAS?$AAT?$AAA?$AAT?$AAU?$AAS?$AA_?$AAU?$AAS?$AAI?$AAN?$AAG?$AA_?$AAA?$AAD?$AAD?$AAR?$AAE@| DCB "D"
	DCB	0x0, "E", 0x0, "V", 0x0, "I", 0x0, "C", 0x0, "E", 0x0, "_"
	DCB	0x0, "C", 0x0, "O", 0x0, "N", 0x0, "F", 0x0, "I", 0x0, "G"
	DCB	0x0, "_", 0x0, "S", 0x0, "T", 0x0, "A", 0x0, "T", 0x0, "U"
	DCB	0x0, "S", 0x0, "_", 0x0, "U", 0x0, "S", 0x0, "I", 0x0, "N"
	DCB	0x0, "G", 0x0, "_", 0x0, "A", 0x0, "D", 0x0, "D", 0x0, "R"
	DCB	0x0, "E", 0x0, "S", 0x0, "S", 0x0, "0", 0x0, 0x0, 0x0 ; `string'

  00000			 AREA	 |.rdata|, DATA, READONLY
|??_C@_1FI@COMJHLEF@?$AAD?$AAE?$AAV?$AAI?$AAC?$AAE?$AA_?$AAC?$AAO?$AAN?$AAF?$AAI?$AAG?$AA_?$AAS?$AAT?$AAA?$AAT?$AAU?$AAS?$AA_?$AAO?$AAP?$AAE?$AAN?$AAI?$AAN?$AAG?$AA_?$AAE?$AAN?$AAD@| DCB "D"
	DCB	0x0, "E", 0x0, "V", 0x0, "I", 0x0, "C", 0x0, "E", 0x0, "_"
	DCB	0x0, "C", 0x0, "O", 0x0, "N", 0x0, "F", 0x0, "I", 0x0, "G"
	DCB	0x0, "_", 0x0, "S", 0x0, "T", 0x0, "A", 0x0, "T", 0x0, "U"
	DCB	0x0, "S", 0x0, "_", 0x0, "O", 0x0, "P", 0x0, "E", 0x0, "N"
	DCB	0x0, "I", 0x0, "N", 0x0, "G", 0x0, "_", 0x0, "E", 0x0, "N"
	DCB	0x0, "D", 0x0, "P", 0x0, "O", 0x0, "I", 0x0, "N", 0x0, "T"
	DCB	0x0, "0", 0x0, "_", 0x0, "P", 0x0, "I", 0x0, "P", 0x0, "E"
	DCB	0x0, 0x0, 0x0				; `string'
	EXPORT	|??0CTransfer@@QAA@QAVCQueuedPipe@@USTRANSFER@@PAV0@@Z| ; CTransfer::CTransfer
	IMPORT	|__C_specific_handler|
	IMPORT	|memcpy|

  00000			 AREA	 |.pdata|, PDATA
|$T36526| DCD	|$LN17@CTransfer|
	DCD	0xc0005705
|$T36528| DCD	|$LN7@CTransfer|
	DCD	0x40000301

  00000			 AREA	 |.xdata|, DATA
|$T36524| DCD	0x1
	DCD	|$LN11@CTransfer|
	DCD	|$LN12@CTransfer|
	DCD	|$LN7@CTransfer|
	DCD	|$LN8@CTransfer|
; Function compile flags: /Odtp
; File c:\wince600\platform\common\src\soc\common_ti_v1\am3517\usb\usbh\transfer.cpp

  00000			 AREA	 |.text|, CODE, ARM

  00000	00000000	 DCD         |__C_specific_handler|
  00004	00000000	 DCD         |$T36524|

  00008		 |??0CTransfer@@QAA@QAVCQueuedPipe@@USTRANSFER@@PAV0@@Z| PROC ; CTransfer::CTransfer

; 45   : {

  00008		 |$LN17@CTransfer|
  00008	e1a0c00d	 mov         r12, sp
  0000c	e92d000f	 stmdb       sp!, {r0 - r3}
  00010	e92d5800	 stmdb       sp!, {r11, r12, lr}
  00014	e28db00c	 add         r11, sp, #0xC
  00018	e24dd004	 sub         sp, sp, #4
  0001c		 |$LN15@CTransfer|
  0001c	e59b3000	 ldr         r3, [r11]
  00020	e2832048	 add         r2, r3, #0x48
  00024	e59b3004	 ldr         r3, [r11, #4]
  00028	e5823000	 str         r3, [r2]
  0002c	e59b3000	 ldr         r3, [r11]
  00030	e283204c	 add         r2, r3, #0x4C
  00034	e59b3050	 ldr         r3, [r11, #0x50]
  00038	e5823000	 str         r3, [r2]

; 46   :     m_Transfer = sTransfer;

  0003c	e59b0000	 ldr         r0, [r11]
  00040	e28b1008	 add         r1, r11, #8
  00044	e3a02048	 mov         r2, #0x48
  00048	eb000000	 bl          memcpy

; 47   :     if ( m_Transfer.lpvControlHeader!=NULL ) { // Control Transfer

  0004c	e59b3000	 ldr         r3, [r11]
  00050	e2833010	 add         r3, r3, #0x10
  00054	e5933000	 ldr         r3, [r3]
  00058	e3530000	 cmp         r3, #0
  0005c	0a000010	 beq         |$LN3@CTransfer|

; 48   :         m_dwNextToQueueIndex = m_dwNextToCompleteIndex=(DWORD)-1; // Need Setup.

  00060	e59b3000	 ldr         r3, [r11]
  00064	e2832054	 add         r2, r3, #0x54
  00068	e3e03000	 mvn         r3, #0
  0006c	e5823000	 str         r3, [r2]
  00070	e59b3000	 ldr         r3, [r11]
  00074	e2832050	 add         r2, r3, #0x50
  00078	e3e03000	 mvn         r3, #0
  0007c	e5823000	 str         r3, [r2]

; 49   :         m_bNeedStatus = m_bNeedStatusComplete = TRUE;

  00080	e59b3000	 ldr         r3, [r11]
  00084	e2832064	 add         r2, r3, #0x64
  00088	e3a03001	 mov         r3, #1
  0008c	e5823000	 str         r3, [r2]
  00090	e59b3000	 ldr         r3, [r11]
  00094	e2832060	 add         r2, r3, #0x60
  00098	e3a03001	 mov         r3, #1
  0009c	e5823000	 str         r3, [r2]

; 50   :     }
; 51   :     else {

  000a0	ea00000f	 b           |$LN2@CTransfer|
  000a4		 |$LN3@CTransfer|

; 52   :         m_dwNextToQueueIndex=m_dwNextToCompleteIndex=0; // Need Setup.

  000a4	e59b3000	 ldr         r3, [r11]
  000a8	e2832054	 add         r2, r3, #0x54
  000ac	e3a03000	 mov         r3, #0
  000b0	e5823000	 str         r3, [r2]
  000b4	e59b3000	 ldr         r3, [r11]
  000b8	e2832050	 add         r2, r3, #0x50
  000bc	e3a03000	 mov         r3, #0
  000c0	e5823000	 str         r3, [r2]

; 53   :         m_bNeedStatus = m_bNeedStatusComplete = FALSE;

  000c4	e59b3000	 ldr         r3, [r11]
  000c8	e2832064	 add         r2, r3, #0x64
  000cc	e3a03000	 mov         r3, #0
  000d0	e5823000	 str         r3, [r2]
  000d4	e59b3000	 ldr         r3, [r11]
  000d8	e2832060	 add         r2, r3, #0x60
  000dc	e3a03000	 mov         r3, #0
  000e0	e5823000	 str         r3, [r2]
  000e4		 |$LN2@CTransfer|

; 54   :     };
; 55   :     m_dwQueueTD =0;

  000e4	e59b3000	 ldr         r3, [r11]
  000e8	e2832058	 add         r2, r3, #0x58
  000ec	e3a03000	 mov         r3, #0
  000f0	e5823000	 str         r3, [r2]

; 56   :     m_dwFirstError=USB_NO_ERROR;

  000f4	e59b3000	 ldr         r3, [r11]
  000f8	e283205c	 add         r2, r3, #0x5C
  000fc	e3a03000	 mov         r3, #0
  00100	e5823000	 str         r3, [r2]
  00104		 |$LN11@CTransfer|

; 57   : #pragma prefast(disable: 322, "Recover gracefully from hardware failure")
; 58   :     __try { // initializing transfer status parameters
; 59   :         *m_Transfer.lpfComplete = FALSE;

  00104	e59b3000	 ldr         r3, [r11]
  00108	e283303c	 add         r3, r3, #0x3C
  0010c	e5932000	 ldr         r2, [r3]
  00110	e3a03000	 mov         r3, #0
  00114	e5823000	 str         r3, [r2]

; 60   :         *m_Transfer.lpdwBytesTransferred = 0;

  00118	e59b3000	 ldr         r3, [r11]
  0011c	e2833040	 add         r3, r3, #0x40
  00120	e5932000	 ldr         r2, [r3]
  00124	e3a03000	 mov         r3, #0
  00128	e5823000	 str         r3, [r2]

; 61   :         *m_Transfer.lpdwError = USB_NOT_COMPLETE_ERROR;

  0012c	e59b3000	 ldr         r3, [r11]
  00130	e2833044	 add         r3, r3, #0x44
  00134	e5932000	 ldr         r2, [r3]
  00138	e3a03c01	 mov         r3, #1, 24
  0013c	e3833003	 orr         r3, r3, #3
  00140	e5823000	 str         r3, [r2]
  00144		 |$LN12@CTransfer|
  00144	ea000000	 b           |$LN13@CTransfer|
  00148		 |$LN8@CTransfer|
  00148	eaffffff	 b           |$LN13@CTransfer|
  0014c		 |$LN13@CTransfer|

; 63   :     }
; 64   : #pragma prefast(pop)
; 65   : };

  0014c	e59b3000	 ldr         r3, [r11]
  00150	e50b3010	 str         r3, [r11, #-0x10]
  00154		 |$LN6@CTransfer|
  00154	e51b0010	 ldr         r0, [r11, #-0x10]
  00158	e24bd00c	 sub         sp, r11, #0xC
  0015c	e89d6800	 ldmia       sp, {r11, sp, lr}
  00160	e12fff1e	 bx          lr

			 ENDP  ; |??0CTransfer@@QAA@QAVCQueuedPipe@@USTRANSFER@@PAV0@@Z|, CTransfer::CTransfer

  00164		 |$LN7@CTransfer|
  00164		 |$LN16@CTransfer|

; 62   :     } __except( EXCEPTION_EXECUTE_HANDLER ) {

  00164	e52de004	 str         lr, [sp, #-4]!
  00168		 |$LN10@CTransfer|
  00168		 |$LN19@CTransfer|
  00168	e3a00001	 mov         r0, #1
  0016c		 |$LN9@CTransfer|
  0016c	e49df004	 ldr         pc, [sp], #4
  00170		 |$LN20@CTransfer|
  00170		 |$LN18@CTransfer|
	EXPORT	|?ScheduleTD@CTransfer@@QAAHXZ|		; CTransfer::ScheduleTD

  00010			 AREA	 |.pdata|, PDATA
|$T36536| DCD	|$LN5@ScheduleTD|
	DCD	0x40000a04
; Function compile flags: /Odtp

  00170			 AREA	 |.text|, CODE, ARM

  00170		 |?ScheduleTD@CTransfer@@QAAHXZ| PROC	; CTransfer::ScheduleTD

; 77   : {

  00170		 |$LN5@ScheduleTD|
  00170	e1a0c00d	 mov         r12, sp
  00174	e92d0001	 stmdb       sp!, {r0}
  00178	e92d5000	 stmdb       sp!, {r12, lr}
  0017c	e24dd004	 sub         sp, sp, #4
  00180		 |$M36533|

; 78   :     return TRUE;

  00180	e3a03001	 mov         r3, #1
  00184	e58d3000	 str         r3, [sp]

; 79   : }

  00188	e59d0000	 ldr         r0, [sp]
  0018c	e28dd004	 add         sp, sp, #4
  00190	e89d6000	 ldmia       sp, {sp, lr}
  00194	e12fff1e	 bx          lr
  00198		 |$M36534|

			 ENDP  ; |?ScheduleTD@CTransfer@@QAAHXZ|, CTransfer::ScheduleTD

	EXPORT	|?DoneTD@CTransfer@@QAAHXZ|		; CTransfer::DoneTD

  00018			 AREA	 |.pdata|, PDATA
|$T36542| DCD	|$LN5@DoneTD|
	DCD	0x40000a04
; Function compile flags: /Odtp

  00198			 AREA	 |.text|, CODE, ARM

  00198		 |?DoneTD@CTransfer@@QAAHXZ| PROC	; CTransfer::DoneTD

; 91   : {

  00198		 |$LN5@DoneTD|
  00198	e1a0c00d	 mov         r12, sp
  0019c	e92d0001	 stmdb       sp!, {r0}
  001a0	e92d5000	 stmdb       sp!, {r12, lr}
  001a4	e24dd004	 sub         sp, sp, #4
  001a8		 |$M36539|

; 92   :     return FALSE;

  001a8	e3a03000	 mov         r3, #0
  001ac	e58d3000	 str         r3, [sp]

; 93   : };

  001b0	e59d0000	 ldr         r0, [sp]
  001b4	e28dd004	 add         sp, sp, #4
  001b8	e89d6000	 ldmia       sp, {sp, lr}
  001bc	e12fff1e	 bx          lr
  001c0		 |$M36540|

			 ENDP  ; |?DoneTD@CTransfer@@QAAHXZ|, CTransfer::DoneTD

	EXPORT	|??_C@_1JA@KGCFHEAD@?$AAC?$AAT?$AAr?$AAa?$AAn?$AAs?$AAf?$AAe?$AAr?$AA?3?$AA?3?$AAD?$AAo?$AAn?$AAe?$AAT?$AAD?$AA?$CI?$AA?$CJ?$AA?$CI?$AA?$CF?$AAs?$AA?$CJ?$AA?3?$AA?3?$AAe?$AAx?$AAc?$AAe?$AAp?$AAt?$AAi@| [ DATA ] ; `string'
	EXPORT	|?Canceled@CTransfer@@QAAHXZ|		; CTransfer::Canceled
	IMPORT	|NKDbgPrintfW|
	IMPORT	|dpCurSettings|

  00020			 AREA	 |.pdata|, PDATA
|$T36560| DCD	|$LN18@Canceled|
	DCD	0xc0004d05
|$T36562| DCD	|$LN8@Canceled|
	DCD	0x40000501

  00000			 AREA	 |.rdata|, DATA, READONLY
|??_C@_1JA@KGCFHEAD@?$AAC?$AAT?$AAr?$AAa?$AAn?$AAs?$AAf?$AAe?$AAr?$AA?3?$AA?3?$AAD?$AAo?$AAn?$AAe?$AAT?$AAD?$AA?$CI?$AA?$CJ?$AA?$CI?$AA?$CF?$AAs?$AA?$CJ?$AA?3?$AA?3?$AAe?$AAx?$AAc?$AAe?$AAp?$AAt?$AAi@| DCB "C"
	DCB	0x0, "T", 0x0, "r", 0x0, "a", 0x0, "n", 0x0, "s", 0x0, "f"
	DCB	0x0, "e", 0x0, "r", 0x0, ":", 0x0, ":", 0x0, "D", 0x0, "o"
	DCB	0x0, "n", 0x0, "e", 0x0, "T", 0x0, "D", 0x0, "(", 0x0, ")"
	DCB	0x0, "(", 0x0, "%", 0x0, "s", 0x0, ")", 0x0, ":", 0x0, ":"
	DCB	0x0, "e", 0x0, "x", 0x0, "c", 0x0, "e", 0x0, "p", 0x0, "t"
	DCB	0x0, "i", 0x0, "o", 0x0, "n", 0x0, " ", 0x0, "s", 0x0, "e"
	DCB	0x0, "t", 0x0, "t", 0x0, "i", 0x0, "n", 0x0, "g", 0x0, " "
	DCB	0x0, "t", 0x0, "r", 0x0, "a", 0x0, "n", 0x0, "s", 0x0, "f"
	DCB	0x0, "e", 0x0, "r", 0x0, " ", 0x0, "s", 0x0, "t", 0x0, "a"
	DCB	0x0, "t", 0x0, "u", 0x0, "s", 0x0, " ", 0x0, "t", 0x0, "o"
	DCB	0x0, " ", 0x0, "c", 0x0, "o", 0x0, "m", 0x0, "p", 0x0, "l"
	DCB	0x0, "e", 0x0, "t", 0x0, "e", 0x0, 0xa, 0x0, 0x0, 0x0 ; `string'

  00014			 AREA	 |.xdata|, DATA
|$T36558| DCD	0x1
	DCD	|$LN12@Canceled|
	DCD	|$LN13@Canceled|
	DCD	|$LN8@Canceled|
	DCD	|$LN9@Canceled|
; Function compile flags: /Odtp

  001c0			 AREA	 |.text|, CODE, ARM

  001c0	00000000	 DCD         |__C_specific_handler|
  001c4	00000000	 DCD         |$T36558|

  001c8		 |?Canceled@CTransfer@@QAAHXZ| PROC	; CTransfer::Canceled

; 96   : {

  001c8		 |$LN18@Canceled|
  001c8	e1a0c00d	 mov         r12, sp
  001cc	e92d0001	 stmdb       sp!, {r0}
  001d0	e92d5800	 stmdb       sp!, {r11, r12, lr}
  001d4	e28db00c	 add         r11, sp, #0xC
  001d8	e24dd00c	 sub         sp, sp, #0xC
  001dc		 |$LN16@Canceled|
  001dc		 |$LN12@Canceled|

; 97   :     __try { // initializing transfer status parameters
; 98   :         m_dwNextToQueueIndex=m_dwNextToCompleteIndex=m_Transfer.dwBufferSize;

  001dc	e59b3000	 ldr         r3, [r11]
  001e0	e2831024	 add         r1, r3, #0x24
  001e4	e59b3000	 ldr         r3, [r11]
  001e8	e2832054	 add         r2, r3, #0x54
  001ec	e5913000	 ldr         r3, [r1]
  001f0	e5823000	 str         r3, [r2]
  001f4	e59b3000	 ldr         r3, [r11]
  001f8	e2831054	 add         r1, r3, #0x54
  001fc	e59b3000	 ldr         r3, [r11]
  00200	e2832050	 add         r2, r3, #0x50
  00204	e5913000	 ldr         r3, [r1]
  00208	e5823000	 str         r3, [r2]

; 99   :         *m_Transfer.lpfComplete = TRUE;

  0020c	e59b3000	 ldr         r3, [r11]
  00210	e283303c	 add         r3, r3, #0x3C
  00214	e5932000	 ldr         r2, [r3]
  00218	e3a03001	 mov         r3, #1
  0021c	e5823000	 str         r3, [r2]

; 100  :         *m_Transfer.lpdwError = USB_CANCELED_ERROR;

  00220	e59b3000	 ldr         r3, [r11]
  00224	e2833044	 add         r3, r3, #0x44
  00228	e5932000	 ldr         r2, [r3]
  0022c	e3a03c01	 mov         r3, #1, 24
  00230	e3833001	 orr         r3, r3, #1
  00234	e5823000	 str         r3, [r2]

; 101  :         if (m_Transfer.lpfnCallback ) {

  00238	e59b3000	 ldr         r3, [r11]
  0023c	e2833004	 add         r3, r3, #4
  00240	e5933000	 ldr         r3, [r3]
  00244	e3530000	 cmp         r3, #0
  00248	0a00000b	 beq         |$LN1@Canceled|

; 102  :             ( *m_Transfer.lpfnCallback )( m_Transfer.lpvCallbackParameter );

  0024c	e59b3000	 ldr         r3, [r11]
  00250	e2833008	 add         r3, r3, #8
  00254	e5930000	 ldr         r0, [r3]
  00258	e59b3000	 ldr         r3, [r11]
  0025c	e2833004	 add         r3, r3, #4
  00260	e5933000	 ldr         r3, [r3]
  00264	e1a0e00f	 mov         lr, pc
  00268	e12fff13	 bx          r3

; 103  :             m_Transfer.lpfnCallback =NULL;

  0026c	e59b3000	 ldr         r3, [r11]
  00270	e2832004	 add         r2, r3, #4
  00274	e3a03000	 mov         r3, #0
  00278	e5823000	 str         r3, [r2]
  0027c		 |$LN1@Canceled|
  0027c		 |$LN13@Canceled|

; 104  :         }

  0027c	ea000018	 b           |$LN14@Canceled|
  00280		 |$LN9@Canceled|

; 106  :         DEBUGMSG( ZONE_ERROR, (TEXT("CTransfer::DoneTD()(%s)::exception setting transfer status to complete\n"), m_rPipe->GetPipeType() ) );

  00280	e59f3084	 ldr         r3, [pc, #0x84]
  00284	e5933440	 ldr         r3, [r3, #0x440]
  00288	e3130901	 tst         r3, #1, 18
  0028c	0a000011	 beq         |$LN5@Canceled|
  00290	e59b3000	 ldr         r3, [r11]
  00294	e2833048	 add         r3, r3, #0x48
  00298	e5932000	 ldr         r2, [r3]
  0029c	e59b3000	 ldr         r3, [r11]
  002a0	e2833048	 add         r3, r3, #0x48
  002a4	e5930000	 ldr         r0, [r3]
  002a8	e5923000	 ldr         r3, [r2]
  002ac	e283302c	 add         r3, r3, #0x2C
  002b0	e5933000	 ldr         r3, [r3]
  002b4	e1a0e00f	 mov         lr, pc
  002b8	e12fff13	 bx          r3
  002bc	e50b0014	 str         r0, [r11, #-0x14]
  002c0	e51b1014	 ldr         r1, [r11, #-0x14]
  002c4	e59f003c	 ldr         r0, [pc, #0x3C]
  002c8	eb000000	 bl          NKDbgPrintfW
  002cc	e3a03001	 mov         r3, #1
  002d0	e50b3010	 str         r3, [r11, #-0x10]
  002d4	ea000001	 b           |$LN6@Canceled|
  002d8		 |$LN5@Canceled|
  002d8	e3a03000	 mov         r3, #0
  002dc	e50b3010	 str         r3, [r11, #-0x10]
  002e0		 |$LN6@Canceled|
  002e0	eaffffff	 b           |$LN14@Canceled|
  002e4		 |$LN14@Canceled|

; 107  :     }
; 108  : 
; 109  :     return TRUE;

  002e4	e3a03001	 mov         r3, #1
  002e8	e50b3018	 str         r3, [r11, #-0x18]
  002ec		 |$LN7@Canceled|

; 110  : 
; 111  : }

  002ec	e51b0018	 ldr         r0, [r11, #-0x18]
  002f0	e24bd00c	 sub         sp, r11, #0xC
  002f4	e89d6800	 ldmia       sp, {r11, sp, lr}
  002f8	e12fff1e	 bx          lr

			 ENDP  ; |?Canceled@CTransfer@@QAAHXZ|, CTransfer::Canceled

  002fc		 |$LN8@Canceled|
  002fc		 |$LN17@Canceled|

; 105  :     } __except( EXCEPTION_EXECUTE_HANDLER ) {

  002fc	e52de004	 str         lr, [sp, #-4]!
  00300		 |$LN11@Canceled|
  00300		 |$LN20@Canceled|
  00300	e3a00001	 mov         r0, #1
  00304		 |$LN10@Canceled|
  00304	e49df004	 ldr         pc, [sp], #4
  00308		 |$LN22@Canceled|
  00308		 |$LN23@Canceled|
  00308	00000000	 DCD         |??_C@_1JA@KGCFHEAD@?$AAC?$AAT?$AAr?$AAa?$AAn?$AAs?$AAf?$AAe?$AAr?$AA?3?$AA?3?$AAD?$AAo?$AAn?$AAe?$AAT?$AAD?$AA?$CI?$AA?$CJ?$AA?$CI?$AA?$CF?$AAs?$AA?$CJ?$AA?3?$AA?3?$AAe?$AAx?$AAc?$AAe?$AAp?$AAt?$AAi@|
  0030c		 |$LN24@Canceled|
  0030c	00000000	 DCD         |dpCurSettings|
  00310		 |$LN21@Canceled|
  00310		 |$LN19@Canceled|
	EXPORT	|??0TDQueue@@QAA@QAVCPhysMem@@KK@Z|	; TDQueue::TDQueue

  00030			 AREA	 |.pdata|, PDATA
|$T36573| DCD	|$LN5@TDQueue|
	DCD	0x40001d04
; Function compile flags: /Odtp

  00310			 AREA	 |.text|, CODE, ARM

  00310		 |??0TDQueue@@QAA@QAVCPhysMem@@KK@Z| PROC ; TDQueue::TDQueue

; 117  : {

  00310		 |$LN5@TDQueue|
  00310	e1a0c00d	 mov         r12, sp
  00314	e92d000f	 stmdb       sp!, {r0 - r3}
  00318	e92d5000	 stmdb       sp!, {r12, lr}
  0031c	e24dd004	 sub         sp, sp, #4
  00320		 |$M36570|
  00320	e59d2010	 ldr         r2, [sp, #0x10]
  00324	e59d300c	 ldr         r3, [sp, #0xC]
  00328	e5832000	 str         r2, [r3]
  0032c	e59d300c	 ldr         r3, [sp, #0xC]
  00330	e2832004	 add         r2, r3, #4
  00334	e59d3014	 ldr         r3, [sp, #0x14]
  00338	e5823000	 str         r3, [r2]
  0033c	e59d300c	 ldr         r3, [sp, #0xC]
  00340	e2832008	 add         r2, r3, #8
  00344	e59d3018	 ldr         r3, [sp, #0x18]
  00348	e5823000	 str         r3, [r2]

; 118  :     m_pTDQueue = NULL;

  0034c	e59d300c	 ldr         r3, [sp, #0xC]
  00350	e283200c	 add         r2, r3, #0xC
  00354	e3a03000	 mov         r3, #0
  00358	e5823000	 str         r3, [r2]

; 119  :     m_pBuffer = NULL;

  0035c	e59d300c	 ldr         r3, [sp, #0xC]
  00360	e2832014	 add         r2, r3, #0x14
  00364	e3a03000	 mov         r3, #0
  00368	e5823000	 str         r3, [r2]

; 120  : };

  0036c	e59d300c	 ldr         r3, [sp, #0xC]
  00370	e58d3000	 str         r3, [sp]
  00374	e59d0000	 ldr         r0, [sp]
  00378	e28dd004	 add         sp, sp, #4
  0037c	e89d6000	 ldmia       sp, {sp, lr}
  00380	e12fff1e	 bx          lr
  00384		 |$M36571|

			 ENDP  ; |??0TDQueue@@QAA@QAVCPhysMem@@KK@Z|, TDQueue::TDQueue

	EXPORT	|?QueueDeInit@TDQueue@@QAAXXZ|		; TDQueue::QueueDeInit
	EXPORT	|??1TDQueue@@QAA@XZ|			; TDQueue::~TDQueue

  00038			 AREA	 |.pdata|, PDATA
|$T36578| DCD	|$LN5@TDQueue@2|
	DCD	0x40000703
; Function compile flags: /Odtp

  00384			 AREA	 |.text|, CODE, ARM

  00384		 |??1TDQueue@@QAA@XZ| PROC		; TDQueue::~TDQueue

; 122  : {

  00384		 |$LN5@TDQueue@2|
  00384	e1a0c00d	 mov         r12, sp
  00388	e92d0001	 stmdb       sp!, {r0}
  0038c	e92d5000	 stmdb       sp!, {r12, lr}
  00390		 |$M36575|

; 123  :     QueueDeInit();

  00390	e59d0008	 ldr         r0, [sp, #8]
  00394	eb000000	 bl          |?QueueDeInit@TDQueue@@QAAXXZ|

; 124  : }

  00398	e89d6000	 ldmia       sp, {sp, lr}
  0039c	e12fff1e	 bx          lr
  003a0		 |$M36576|

			 ENDP  ; |??1TDQueue@@QAA@XZ|, TDQueue::~TDQueue

	IMPORT	|?FreeMemory@CPhysMem@@QAAXQAEKK@Z|	; CPhysMem::FreeMemory

  00040			 AREA	 |.pdata|, PDATA
|$T36583| DCD	|$LN7@QueueDeIni|
	DCD	0x40003303
; Function compile flags: /Odtp

  003a0			 AREA	 |.text|, CODE, ARM

  003a0		 |?QueueDeInit@TDQueue@@QAAXXZ| PROC	; TDQueue::QueueDeInit

; 126  : {

  003a0		 |$LN7@QueueDeIni|
  003a0	e1a0c00d	 mov         r12, sp
  003a4	e92d0001	 stmdb       sp!, {r0}
  003a8	e92d5000	 stmdb       sp!, {r12, lr}
  003ac		 |$M36580|

; 127  :     if (m_pBuffer) {

  003ac	e59d3008	 ldr         r3, [sp, #8]
  003b0	e2833014	 add         r3, r3, #0x14
  003b4	e5933000	 ldr         r3, [r3]
  003b8	e3530000	 cmp         r3, #0
  003bc	0a000011	 beq         |$LN2@QueueDeIni|

; 128  :         m_pCPhysMem->FreeMemory(m_pBuffer,m_pBufferPhysAddr,CPHYSMEM_FLAG_NOBLOCK);

  003c0	e3a03002	 mov         r3, #2
  003c4	e59d2008	 ldr         r2, [sp, #8]
  003c8	e2822018	 add         r2, r2, #0x18
  003cc	e5922000	 ldr         r2, [r2]
  003d0	e59d1008	 ldr         r1, [sp, #8]
  003d4	e2811014	 add         r1, r1, #0x14
  003d8	e5911000	 ldr         r1, [r1]
  003dc	e59d0008	 ldr         r0, [sp, #8]
  003e0	e5900000	 ldr         r0, [r0]
  003e4	eb000000	 bl          |?FreeMemory@CPhysMem@@QAAXQAEKK@Z|

; 129  :         m_pBuffer=NULL;

  003e8	e59d3008	 ldr         r3, [sp, #8]
  003ec	e2832014	 add         r2, r3, #0x14
  003f0	e3a03000	 mov         r3, #0
  003f4	e5823000	 str         r3, [r2]

; 130  :         m_pBufferPhysAddr = 0;

  003f8	e59d3008	 ldr         r3, [sp, #8]
  003fc	e2832018	 add         r2, r3, #0x18
  00400	e3a03000	 mov         r3, #0
  00404	e5823000	 str         r3, [r2]
  00408		 |$LN2@QueueDeIni|

; 131  :     }
; 132  :     if (m_pTDQueue) {

  00408	e59d3008	 ldr         r3, [sp, #8]
  0040c	e283300c	 add         r3, r3, #0xC
  00410	e5933000	 ldr         r3, [r3]
  00414	e3530000	 cmp         r3, #0
  00418	0a000011	 beq         |$LN1@QueueDeIni|

; 133  :         m_pCPhysMem->FreeMemory((PBYTE)m_pTDQueue,m_pTDQueuePhysAddr,CPHYSMEM_FLAG_NOBLOCK);

  0041c	e3a03002	 mov         r3, #2
  00420	e59d2008	 ldr         r2, [sp, #8]
  00424	e2822010	 add         r2, r2, #0x10
  00428	e5922000	 ldr         r2, [r2]
  0042c	e59d1008	 ldr         r1, [sp, #8]
  00430	e281100c	 add         r1, r1, #0xC
  00434	e5911000	 ldr         r1, [r1]
  00438	e59d0008	 ldr         r0, [sp, #8]
  0043c	e5900000	 ldr         r0, [r0]
  00440	eb000000	 bl          |?FreeMemory@CPhysMem@@QAAXQAEKK@Z|

; 134  :         m_pTDQueue = NULL;

  00444	e59d3008	 ldr         r3, [sp, #8]
  00448	e283200c	 add         r2, r3, #0xC
  0044c	e3a03000	 mov         r3, #0
  00450	e5823000	 str         r3, [r2]

; 135  :         m_pTDQueuePhysAddr = 0;

  00454	e59d3008	 ldr         r3, [sp, #8]
  00458	e2832010	 add         r2, r3, #0x10
  0045c	e3a03000	 mov         r3, #0
  00460	e5823000	 str         r3, [r2]
  00464		 |$LN1@QueueDeIni|

; 136  :     }
; 137  : }

  00464	e89d6000	 ldmia       sp, {sp, lr}
  00468	e12fff1e	 bx          lr
  0046c		 |$M36581|

			 ENDP  ; |?QueueDeInit@TDQueue@@QAAXXZ|, TDQueue::QueueDeInit

	EXPORT	|?IncIndex@TDQueue@@QBAKK@Z|		; TDQueue::IncIndex
	EXPORT	|?VaToPa@CPhysMem@@QAAKPAE@Z|		; CPhysMem::VaToPa
	EXPORT	|??_C@_1FE@EINAKJAA@?$AAT?$AAD?$AAQ?$AAu?$AAe?$AAu?$AAe?$AA?3?$AA?3?$AAT?$AAD?$AAQ?$AAu?$AAe?$AAu?$AAe?$AA?5?$AA?9?$AA?5?$AAn?$AAo?$AA?5?$AAm?$AAe?$AAm?$AAo?$AAr?$AAy?$AA?5?$AAf?$AAo?$AAr@| [ DATA ] ; `string'
	EXPORT	|??_C@_1CE@PGNPLLNK@?$AAI?$AAs?$AAs?$AAu?$AAe?$AAT?$AAr?$AAa?$AAn?$AAs?$AAf?$AAe?$AAr?$AA?5?$AAT?$AAD?$AAs?$AA?$AA@| [ DATA ] ; `string'
	EXPORT	|?QueueInit@TDQueue@@QAAHXZ|		; TDQueue::QueueInit
	IMPORT	|memset|
	IMPORT	|?AllocateMemory@CPhysMem@@QAAHPBGKQAPAEKPAH@Z| ; CPhysMem::AllocateMemory

  00048			 AREA	 |.pdata|, PDATA
|$T36597| DCD	|$LN19@QueueInit|
	DCD	0x4000e204

  00000			 AREA	 |.rdata|, DATA, READONLY
|??_C@_1FE@EINAKJAA@?$AAT?$AAD?$AAQ?$AAu?$AAe?$AAu?$AAe?$AA?3?$AA?3?$AAT?$AAD?$AAQ?$AAu?$AAe?$AAu?$AAe?$AA?5?$AA?9?$AA?5?$AAn?$AAo?$AA?5?$AAm?$AAe?$AAm?$AAo?$AAr?$AAy?$AA?5?$AAf?$AAo?$AAr@| DCB "T"
	DCB	0x0, "D", 0x0, "Q", 0x0, "u", 0x0, "e", 0x0, "u", 0x0, "e"
	DCB	0x0, ":", 0x0, ":", 0x0, "T", 0x0, "D", 0x0, "Q", 0x0, "u"
	DCB	0x0, "e", 0x0, "u", 0x0, "e", 0x0, " ", 0x0, "-", 0x0, " "
	DCB	0x0, "n", 0x0, "o", 0x0, " ", 0x0, "m", 0x0, "e", 0x0, "m"
	DCB	0x0, "o", 0x0, "r", 0x0, "y", 0x0, " ", 0x0, "f", 0x0, "o"
	DCB	0x0, "r", 0x0, " ", 0x0, "T", 0x0, "D", 0x0, " ", 0x0, "l"
	DCB	0x0, "i", 0x0, "s", 0x0, "t", 0x0, 0xa, 0x0, 0x0, 0x0 ; `string'

  00000			 AREA	 |.rdata|, DATA, READONLY
|??_C@_1CE@PGNPLLNK@?$AAI?$AAs?$AAs?$AAu?$AAe?$AAT?$AAr?$AAa?$AAn?$AAs?$AAf?$AAe?$AAr?$AA?5?$AAT?$AAD?$AAs?$AA?$AA@| DCB "I"
	DCB	0x0, "s", 0x0, "s", 0x0, "u", 0x0, "e", 0x0, "T", 0x0, "r"
	DCB	0x0, "a", 0x0, "n", 0x0, "s", 0x0, "f", 0x0, "e", 0x0, "r"
	DCB	0x0, " ", 0x0, "T", 0x0, "D", 0x0, "s", 0x0, 0x0, 0x0 ; `string'
; Function compile flags: /Odtp

  0046c			 AREA	 |.text|, CODE, ARM

  0046c		 |?QueueInit@TDQueue@@QAAHXZ| PROC	; TDQueue::QueueInit

; 139  : {

  0046c		 |$LN19@QueueInit|
  0046c	e1a0c00d	 mov         r12, sp
  00470	e92d0001	 stmdb       sp!, {r0}
  00474	e92d5000	 stmdb       sp!, {r12, lr}
  00478	e24dd03c	 sub         sp, sp, #0x3C
  0047c		 |$M36594|

; 140  :     if (m_pTDQueue==NULL) {

  0047c	e59d3044	 ldr         r3, [sp, #0x44]
  00480	e283300c	 add         r3, r3, #0xC
  00484	e5933000	 ldr         r3, [r3]
  00488	e3530000	 cmp         r3, #0
  0048c	1a000037	 bne         |$LN10@QueueInit|

; 141  :         if (!m_pCPhysMem->AllocateMemory( DEBUG_PARAM( TEXT("IssueTransfer TDs") )
; 142  :                                 m_dwNumOfTD *sizeof(TD),
; 143  :                                 (PUCHAR *) &m_pTDQueue,
; 144  :                                 CPHYSMEM_FLAG_NOBLOCK))  {

  00490	e3a03000	 mov         r3, #0
  00494	e58d3004	 str         r3, [sp, #4]
  00498	e3a03002	 mov         r3, #2
  0049c	e58d3000	 str         r3, [sp]
  004a0	e59d3044	 ldr         r3, [sp, #0x44]
  004a4	e283300c	 add         r3, r3, #0xC
  004a8	e59d2044	 ldr         r2, [sp, #0x44]
  004ac	e2822004	 add         r2, r2, #4
  004b0	e5921000	 ldr         r1, [r2]
  004b4	e3a02020	 mov         r2, #0x20
  004b8	e0020291	 mul         r2, r1, r2
  004bc	e59f132c	 ldr         r1, [pc, #0x32C]
  004c0	e59d0044	 ldr         r0, [sp, #0x44]
  004c4	e5900000	 ldr         r0, [r0]
  004c8	eb000000	 bl          |?AllocateMemory@CPhysMem@@QAAHPBGKQAPAEKPAH@Z|
  004cc	e58d0020	 str         r0, [sp, #0x20]
  004d0	e59d3020	 ldr         r3, [sp, #0x20]
  004d4	e3530000	 cmp         r3, #0
  004d8	1a00000f	 bne         |$LN9@QueueInit|

; 145  :             DEBUGMSG( ZONE_WARNING, (TEXT("TDQueue::TDQueue - no memory for TD list\n") ) );

  004dc	e59f3308	 ldr         r3, [pc, #0x308]
  004e0	e5933440	 ldr         r3, [r3, #0x440]
  004e4	e3130a02	 tst         r3, #2, 20
  004e8	0a000004	 beq         |$LN13@QueueInit|
  004ec	e59f02f4	 ldr         r0, [pc, #0x2F4]
  004f0	eb000000	 bl          NKDbgPrintfW
  004f4	e3a03001	 mov         r3, #1
  004f8	e58d3024	 str         r3, [sp, #0x24]
  004fc	ea000001	 b           |$LN14@QueueInit|
  00500		 |$LN13@QueueInit|
  00500	e3a03000	 mov         r3, #0
  00504	e58d3024	 str         r3, [sp, #0x24]
  00508		 |$LN14@QueueInit|

; 146  :             m_pTDQueue= NULL;

  00508	e59d3044	 ldr         r3, [sp, #0x44]
  0050c	e283200c	 add         r2, r3, #0xC
  00510	e3a03000	 mov         r3, #0
  00514	e5823000	 str         r3, [r2]

; 147  :         }
; 148  :         else {

  00518	ea000014	 b           |$LN8@QueueInit|
  0051c		 |$LN9@QueueInit|

; 149  :             m_pTDQueuePhysAddr = m_pCPhysMem->VaToPa((PBYTE) m_pTDQueue );

  0051c	e59d3044	 ldr         r3, [sp, #0x44]
  00520	e283300c	 add         r3, r3, #0xC
  00524	e5931000	 ldr         r1, [r3]
  00528	e59d3044	 ldr         r3, [sp, #0x44]
  0052c	e5930000	 ldr         r0, [r3]
  00530	eb000000	 bl          |?VaToPa@CPhysMem@@QAAKPAE@Z|
  00534	e58d0028	 str         r0, [sp, #0x28]
  00538	e59d3044	 ldr         r3, [sp, #0x44]
  0053c	e2832010	 add         r2, r3, #0x10
  00540	e59d3028	 ldr         r3, [sp, #0x28]
  00544	e5823000	 str         r3, [r2]

; 150  :             memset (  m_pTDQueue , 0, m_dwNumOfTD *sizeof(TD));

  00548	e59d3044	 ldr         r3, [sp, #0x44]
  0054c	e2833004	 add         r3, r3, #4
  00550	e5931000	 ldr         r1, [r3]
  00554	e3a03020	 mov         r3, #0x20
  00558	e0020391	 mul         r2, r1, r3
  0055c	e3a01000	 mov         r1, #0
  00560	e59d3044	 ldr         r3, [sp, #0x44]
  00564	e283300c	 add         r3, r3, #0xC
  00568	e5930000	 ldr         r0, [r3]
  0056c	eb000000	 bl          memset
  00570		 |$LN8@QueueInit|
  00570		 |$LN10@QueueInit|

; 151  :         }
; 152  :     }
; 153  :     if (m_pBuffer==NULL) {

  00570	e59d3044	 ldr         r3, [sp, #0x44]
  00574	e2833014	 add         r3, r3, #0x14
  00578	e5933000	 ldr         r3, [r3]
  0057c	e3530000	 cmp         r3, #0
  00580	1a00002f	 bne         |$LN7@QueueInit|

; 154  :         if (!m_pCPhysMem->AllocateMemory( DEBUG_PARAM( TEXT("IssueTransfer TDs") )
; 155  :                                 m_dwNumOfTD * m_dwTDBufferSize ,
; 156  :                                 (PUCHAR *) &m_pBuffer,
; 157  :                                 CPHYSMEM_FLAG_NOBLOCK))  {

  00584	e3a03000	 mov         r3, #0
  00588	e58d3004	 str         r3, [sp, #4]
  0058c	e3a03002	 mov         r3, #2
  00590	e58d3000	 str         r3, [sp]
  00594	e59d3044	 ldr         r3, [sp, #0x44]
  00598	e2833014	 add         r3, r3, #0x14
  0059c	e59d2044	 ldr         r2, [sp, #0x44]
  005a0	e2821004	 add         r1, r2, #4
  005a4	e59d2044	 ldr         r2, [sp, #0x44]
  005a8	e2822008	 add         r2, r2, #8
  005ac	e5911000	 ldr         r1, [r1]
  005b0	e5922000	 ldr         r2, [r2]
  005b4	e0020291	 mul         r2, r1, r2
  005b8	e59f1230	 ldr         r1, [pc, #0x230]
  005bc	e59d0044	 ldr         r0, [sp, #0x44]
  005c0	e5900000	 ldr         r0, [r0]
  005c4	eb000000	 bl          |?AllocateMemory@CPhysMem@@QAAHPBGKQAPAEKPAH@Z|
  005c8	e58d002c	 str         r0, [sp, #0x2C]
  005cc	e59d302c	 ldr         r3, [sp, #0x2C]
  005d0	e3530000	 cmp         r3, #0
  005d4	1a00000f	 bne         |$LN6@QueueInit|

; 158  :             DEBUGMSG( ZONE_WARNING, (TEXT("TDQueue::TDQueue - no memory for TD list\n") ) );

  005d8	e59f320c	 ldr         r3, [pc, #0x20C]
  005dc	e5933440	 ldr         r3, [r3, #0x440]
  005e0	e3130a02	 tst         r3, #2, 20
  005e4	0a000004	 beq         |$LN15@QueueInit|
  005e8	e59f01f8	 ldr         r0, [pc, #0x1F8]
  005ec	eb000000	 bl          NKDbgPrintfW
  005f0	e3a03001	 mov         r3, #1
  005f4	e58d3030	 str         r3, [sp, #0x30]
  005f8	ea000001	 b           |$LN16@QueueInit|
  005fc		 |$LN15@QueueInit|
  005fc	e3a03000	 mov         r3, #0
  00600	e58d3030	 str         r3, [sp, #0x30]
  00604		 |$LN16@QueueInit|

; 159  :             m_pBuffer= NULL;

  00604	e59d3044	 ldr         r3, [sp, #0x44]
  00608	e2832014	 add         r2, r3, #0x14
  0060c	e3a03000	 mov         r3, #0
  00610	e5823000	 str         r3, [r2]

; 160  :         }
; 161  :         else

  00614	ea00000a	 b           |$LN5@QueueInit|
  00618		 |$LN6@QueueInit|

; 162  :             m_pBufferPhysAddr =  m_pCPhysMem->VaToPa(m_pBuffer);

  00618	e59d3044	 ldr         r3, [sp, #0x44]
  0061c	e2833014	 add         r3, r3, #0x14
  00620	e5931000	 ldr         r1, [r3]
  00624	e59d3044	 ldr         r3, [sp, #0x44]
  00628	e5930000	 ldr         r0, [r3]
  0062c	eb000000	 bl          |?VaToPa@CPhysMem@@QAAKPAE@Z|
  00630	e58d0034	 str         r0, [sp, #0x34]
  00634	e59d3044	 ldr         r3, [sp, #0x44]
  00638	e2832018	 add         r2, r3, #0x18
  0063c	e59d3034	 ldr         r3, [sp, #0x34]
  00640	e5823000	 str         r3, [r2]
  00644		 |$LN5@QueueInit|
  00644		 |$LN7@QueueInit|

; 163  :     }
; 164  :     m_dwHeadIndex = m_dwTailIndex = 0;

  00644	e59d3044	 ldr         r3, [sp, #0x44]
  00648	e2832020	 add         r2, r3, #0x20
  0064c	e3a03000	 mov         r3, #0
  00650	e5823000	 str         r3, [r2]
  00654	e59d3044	 ldr         r3, [sp, #0x44]
  00658	e283201c	 add         r2, r3, #0x1C
  0065c	e3a03000	 mov         r3, #0
  00660	e5823000	 str         r3, [r2]

; 165  :     if  ( m_pTDQueue!=NULL && m_pBuffer!=NULL ) {

  00664	e59d3044	 ldr         r3, [sp, #0x44]
  00668	e283300c	 add         r3, r3, #0xC
  0066c	e5933000	 ldr         r3, [r3]
  00670	e3530000	 cmp         r3, #0
  00674	0a000055	 beq         |$LN4@QueueInit|
  00678	e59d3044	 ldr         r3, [sp, #0x44]
  0067c	e2833014	 add         r3, r3, #0x14
  00680	e5933000	 ldr         r3, [r3]
  00684	e3530000	 cmp         r3, #0
  00688	0a000050	 beq         |$LN4@QueueInit|

; 166  :         for (DWORD dwIndex=0;dwIndex< m_dwNumOfTD;dwIndex++) {

  0068c	e3a03000	 mov         r3, #0
  00690	e58d3008	 str         r3, [sp, #8]
  00694	ea000002	 b           |$LN3@QueueInit|
  00698		 |$LN2@QueueInit|
  00698	e59d3008	 ldr         r3, [sp, #8]
  0069c	e2833001	 add         r3, r3, #1
  006a0	e58d3008	 str         r3, [sp, #8]
  006a4		 |$LN3@QueueInit|
  006a4	e59d3044	 ldr         r3, [sp, #0x44]
  006a8	e2833004	 add         r3, r3, #4
  006ac	e59d2008	 ldr         r2, [sp, #8]
  006b0	e5933000	 ldr         r3, [r3]
  006b4	e1520003	 cmp         r2, r3
  006b8	2a000039	 bcs         |$LN1@QueueInit|

; 167  :             (m_pTDQueue+dwIndex)->bfDiscard=1;

  006bc	e59d3044	 ldr         r3, [sp, #0x44]
  006c0	e283000c	 add         r0, r3, #0xC
  006c4	e59d1008	 ldr         r1, [sp, #8]
  006c8	e3a03020	 mov         r3, #0x20
  006cc	e0020391	 mul         r2, r1, r3
  006d0	e5903000	 ldr         r3, [r0]
  006d4	e0833002	 add         r3, r3, r2
  006d8	e5933000	 ldr         r3, [r3]
  006dc	e383e801	 orr         lr, r3, #1, 16
  006e0	e59d3044	 ldr         r3, [sp, #0x44]
  006e4	e283000c	 add         r0, r3, #0xC
  006e8	e59d1008	 ldr         r1, [sp, #8]
  006ec	e3a03020	 mov         r3, #0x20
  006f0	e0020391	 mul         r2, r1, r3
  006f4	e5903000	 ldr         r3, [r0]
  006f8	e0833002	 add         r3, r3, r2
  006fc	e583e000	 str         lr, [r3]

; 168  :             (m_pTDQueue+dwIndex)->paNextTd.phys =  m_pTDQueuePhysAddr + sizeof(TD) * IncIndex(dwIndex);

  00700	e59d1008	 ldr         r1, [sp, #8]
  00704	e59d0044	 ldr         r0, [sp, #0x44]
  00708	eb000000	 bl          |?IncIndex@TDQueue@@QBAKK@Z|
  0070c	e58d0038	 str         r0, [sp, #0x38]
  00710	e59d3044	 ldr         r3, [sp, #0x44]
  00714	e2830010	 add         r0, r3, #0x10
  00718	e59d1038	 ldr         r1, [sp, #0x38]
  0071c	e3a03020	 mov         r3, #0x20
  00720	e0020391	 mul         r2, r1, r3
  00724	e5903000	 ldr         r3, [r0]
  00728	e083e002	 add         lr, r3, r2
  0072c	e59d3044	 ldr         r3, [sp, #0x44]
  00730	e283000c	 add         r0, r3, #0xC
  00734	e59d1008	 ldr         r1, [sp, #8]
  00738	e3a03020	 mov         r3, #0x20
  0073c	e0020391	 mul         r2, r1, r3
  00740	e5903000	 ldr         r3, [r0]
  00744	e0833002	 add         r3, r3, r2
  00748	e2833008	 add         r3, r3, #8
  0074c	e583e000	 str         lr, [r3]

; 169  :             (m_pTDQueue+dwIndex)->paCurBuffer = m_pBufferPhysAddr + m_dwTDBufferSize * m_dwTailIndex;

  00750	e59d3044	 ldr         r3, [sp, #0x44]
  00754	e2830018	 add         r0, r3, #0x18
  00758	e59d3044	 ldr         r3, [sp, #0x44]
  0075c	e2832008	 add         r2, r3, #8
  00760	e59d3044	 ldr         r3, [sp, #0x44]
  00764	e2833020	 add         r3, r3, #0x20
  00768	e5921000	 ldr         r1, [r2]
  0076c	e5933000	 ldr         r3, [r3]
  00770	e0020391	 mul         r2, r1, r3
  00774	e5903000	 ldr         r3, [r0]
  00778	e083e002	 add         lr, r3, r2
  0077c	e59d3044	 ldr         r3, [sp, #0x44]
  00780	e283000c	 add         r0, r3, #0xC
  00784	e59d1008	 ldr         r1, [sp, #8]
  00788	e3a03020	 mov         r3, #0x20
  0078c	e0020391	 mul         r2, r1, r3
  00790	e5903000	 ldr         r3, [r0]
  00794	e0833002	 add         r3, r3, r2
  00798	e2833004	 add         r3, r3, #4
  0079c	e583e000	 str         lr, [r3]

; 170  :         }

  007a0	eaffffbc	 b           |$LN2@QueueInit|
  007a4		 |$LN1@QueueInit|

; 171  :         m_dwHeadIndex = m_dwTailIndex = 0;

  007a4	e59d3044	 ldr         r3, [sp, #0x44]
  007a8	e2832020	 add         r2, r3, #0x20
  007ac	e3a03000	 mov         r3, #0
  007b0	e5823000	 str         r3, [r2]
  007b4	e59d3044	 ldr         r3, [sp, #0x44]
  007b8	e283201c	 add         r2, r3, #0x1C
  007bc	e3a03000	 mov         r3, #0
  007c0	e5823000	 str         r3, [r2]

; 172  :         return TRUE;

  007c4	e3a03001	 mov         r3, #1
  007c8	e58d301c	 str         r3, [sp, #0x1C]
  007cc	ea000001	 b           |$LN11@QueueInit|
  007d0		 |$LN4@QueueInit|

; 173  :     }
; 174  :     return FALSE;

  007d0	e3a03000	 mov         r3, #0
  007d4	e58d301c	 str         r3, [sp, #0x1C]
  007d8		 |$LN11@QueueInit|

; 175  : }

  007d8	e59d001c	 ldr         r0, [sp, #0x1C]
  007dc	e28dd03c	 add         sp, sp, #0x3C
  007e0	e89d6000	 ldmia       sp, {sp, lr}
  007e4	e12fff1e	 bx          lr
  007e8		 |$LN20@QueueInit|
  007e8		 |$LN21@QueueInit|
  007e8	00000000	 DCD         |??_C@_1FE@EINAKJAA@?$AAT?$AAD?$AAQ?$AAu?$AAe?$AAu?$AAe?$AA?3?$AA?3?$AAT?$AAD?$AAQ?$AAu?$AAe?$AAu?$AAe?$AA?5?$AA?9?$AA?5?$AAn?$AAo?$AA?5?$AAm?$AAe?$AAm?$AAo?$AAr?$AAy?$AA?5?$AAf?$AAo?$AAr@|
  007ec		 |$LN22@QueueInit|
  007ec	00000000	 DCD         |dpCurSettings|
  007f0		 |$LN23@QueueInit|
  007f0	00000000	 DCD         |??_C@_1CE@PGNPLLNK@?$AAI?$AAs?$AAs?$AAu?$AAe?$AAT?$AAr?$AAa?$AAn?$AAs?$AAf?$AAe?$AAr?$AA?5?$AAT?$AAD?$AAs?$AA?$AA@|
  007f4		 |$M36595|

			 ENDP  ; |?QueueInit@TDQueue@@QAAHXZ|, TDQueue::QueueInit

	EXPORT	|??_C@_1BA@LEPJIIOK@?$AAU?$AAn?$AAk?$AAn?$AAo?$AAw?$AAn?$AA?$AA@| [ DATA ] ; `string'
	EXPORT	|??_C@_1FK@FNONLNGN@?$AA?$CF?$AAs?$AA?3?$AA?5?$AAD?$AAE?$AAB?$AAU?$AAG?$AAC?$AAH?$AAK?$AA?5?$AAf?$AAa?$AAi?$AAl?$AAe?$AAd?$AA?5?$AAi?$AAn?$AA?5?$AAf?$AAi?$AAl?$AAe?$AA?5?$AA?$CF?$AAs?$AA?5?$AAa@| [ DATA ] ; `string'
	EXPORT	|??_C@_1JC@IKPFBEAB@?$AAC?$AA?3?$AA?2?$AAW?$AAI?$AAN?$AAC?$AAE?$AA6?$AA0?$AA0?$AA?2?$AAp?$AAu?$AAb?$AAl?$AAi?$AAc?$AA?2?$AAC?$AAO?$AAM?$AAM?$AAO?$AAN?$AA?2?$AAO?$AAA?$AAK?$AA?2?$AAD?$AAR@| [ DATA ] ; `string'
; File c:\wince600\public\common\oak\drivers\usb\hcd\usb20\usb2com\cphysmem.hpp

  00000			 AREA	 |.pdata|, PDATA
|$T36611| DCD	|$LN9@VaToPa|
	DCD	0x40003a04

  00000			 AREA	 |.rdata|, DATA, READONLY
|??_C@_1BA@LEPJIIOK@?$AAU?$AAn?$AAk?$AAn?$AAo?$AAw?$AAn?$AA?$AA@| DCB "U", 0x0
	DCB	"n", 0x0, "k", 0x0, "n", 0x0, "o", 0x0, "w", 0x0, "n", 0x0
	DCB	0x0, 0x0				; `string'

  00000			 AREA	 |.rdata|, DATA, READONLY
|??_C@_1FK@FNONLNGN@?$AA?$CF?$AAs?$AA?3?$AA?5?$AAD?$AAE?$AAB?$AAU?$AAG?$AAC?$AAH?$AAK?$AA?5?$AAf?$AAa?$AAi?$AAl?$AAe?$AAd?$AA?5?$AAi?$AAn?$AA?5?$AAf?$AAi?$AAl?$AAe?$AA?5?$AA?$CF?$AAs?$AA?5?$AAa@| DCB "%"
	DCB	0x0, "s", 0x0, ":", 0x0, " ", 0x0, "D", 0x0, "E", 0x0, "B"
	DCB	0x0, "U", 0x0, "G", 0x0, "C", 0x0, "H", 0x0, "K", 0x0, " "
	DCB	0x0, "f", 0x0, "a", 0x0, "i", 0x0, "l", 0x0, "e", 0x0, "d"
	DCB	0x0, " ", 0x0, "i", 0x0, "n", 0x0, " ", 0x0, "f", 0x0, "i"
	DCB	0x0, "l", 0x0, "e", 0x0, " ", 0x0, "%", 0x0, "s", 0x0, " "
	DCB	0x0, "a", 0x0, "t", 0x0, " ", 0x0, "l", 0x0, "i", 0x0, "n"
	DCB	0x0, "e", 0x0, " ", 0x0, "%", 0x0, "d", 0x0, " ", 0x0, 0xd
	DCB	0x0, 0xa, 0x0, 0x0, 0x0			; `string'

  00000			 AREA	 |.rdata|, DATA, READONLY
|??_C@_1JC@IKPFBEAB@?$AAC?$AA?3?$AA?2?$AAW?$AAI?$AAN?$AAC?$AAE?$AA6?$AA0?$AA0?$AA?2?$AAp?$AAu?$AAb?$AAl?$AAi?$AAc?$AA?2?$AAC?$AAO?$AAM?$AAM?$AAO?$AAN?$AA?2?$AAO?$AAA?$AAK?$AA?2?$AAD?$AAR@| DCB "C"
	DCB	0x0, ":", 0x0, "\\", 0x0, "W", 0x0, "I", 0x0, "N", 0x0, "C"
	DCB	0x0, "E", 0x0, "6", 0x0, "0", 0x0, "0", 0x0, "\\", 0x0, "p"
	DCB	0x0, "u", 0x0, "b", 0x0, "l", 0x0, "i", 0x0, "c", 0x0, "\\"
	DCB	0x0, "C", 0x0, "O", 0x0, "M", 0x0, "M", 0x0, "O", 0x0, "N"
	DCB	0x0, "\\", 0x0, "O", 0x0, "A", 0x0, "K", 0x0, "\\", 0x0, "D"
	DCB	0x0, "R", 0x0, "I", 0x0, "V", 0x0, "E", 0x0, "R", 0x0, "S"
	DCB	0x0, "\\", 0x0, "U", 0x0, "S", 0x0, "B", 0x0, "\\", 0x0, "H"
	DCB	0x0, "C", 0x0, "D", 0x0, "\\", 0x0, "U", 0x0, "S", 0x0, "B"
	DCB	0x0, "2", 0x0, "0", 0x0, "\\", 0x0, "U", 0x0, "S", 0x0, "B"
	DCB	0x0, "2", 0x0, "C", 0x0, "O", 0x0, "M", 0x0, "\\", 0x0, "c"
	DCB	0x0, "p", 0x0, "h", 0x0, "y", 0x0, "s", 0x0, "m", 0x0, "e"
	DCB	0x0, "m", 0x0, ".", 0x0, "h", 0x0, "p", 0x0, "p", 0x0, 0x0
	DCB	0x0					; `string'
; Function compile flags: /Odtp

  00000			 AREA	 |.text|, CODE, ARM

  00000		 |?VaToPa@CPhysMem@@QAAKPAE@Z| PROC	; CPhysMem::VaToPa

; 184  : {

  00000		 |$LN9@VaToPa|
  00000	e1a0c00d	 mov         r12, sp
  00004	e92d0003	 stmdb       sp!, {r0, r1}
  00008	e92d5000	 stmdb       sp!, {r12, lr}
  0000c	e24dd00c	 sub         sp, sp, #0xC
  00010		 |$M36608|

; 185  :     DEBUGCHK( virtAddr != NULL );

  00010	e59d3018	 ldr         r3, [sp, #0x18]
  00014	e3530000	 cmp         r3, #0
  00018	0a000002	 beq         |$LN3@VaToPa|
  0001c	e3a03001	 mov         r3, #1
  00020	e58d3004	 str         r3, [sp, #4]
  00024	ea000007	 b           |$LN4@VaToPa|
  00028		 |$LN3@VaToPa|
  00028	e3a030b9	 mov         r3, #0xB9
  0002c	e59f20ac	 ldr         r2, [pc, #0xAC]
  00030	e59f10ac	 ldr         r1, [pc, #0xAC]
  00034	e59f009c	 ldr         r0, [pc, #0x9C]
  00038	eb000000	 bl          NKDbgPrintfW
  0003c	e6000010	 __debugbreak_ce
  00040	e3a03000	 mov         r3, #0
  00044	e58d3004	 str         r3, [sp, #4]
  00048		 |$LN4@VaToPa|

; 186  :     ASSERT((DWORD)m_pPhysicalBufferAddr <=(DWORD)virtAddr && (DWORD)virtAddr <(DWORD) m_pPhysicalBufferAddr + m_cbTotal);

  00048	e59d3014	 ldr         r3, [sp, #0x14]
  0004c	e283303c	 add         r3, r3, #0x3C
  00050	e5932000	 ldr         r2, [r3]
  00054	e59d3018	 ldr         r3, [sp, #0x18]
  00058	e1520003	 cmp         r2, r3
  0005c	8a00000b	 bhi         |$LN5@VaToPa|
  00060	e59d3014	 ldr         r3, [sp, #0x14]
  00064	e283303c	 add         r3, r3, #0x3C
  00068	e5932000	 ldr         r2, [r3]
  0006c	e59d3014	 ldr         r3, [sp, #0x14]
  00070	e5933000	 ldr         r3, [r3]
  00074	e0822003	 add         r2, r2, r3
  00078	e59d3018	 ldr         r3, [sp, #0x18]
  0007c	e1530002	 cmp         r3, r2
  00080	2a000002	 bcs         |$LN5@VaToPa|
  00084	e3a03001	 mov         r3, #1
  00088	e58d3008	 str         r3, [sp, #8]
  0008c	ea000007	 b           |$LN6@VaToPa|
  00090		 |$LN5@VaToPa|
  00090	e3a030ba	 mov         r3, #0xBA
  00094	e59f2044	 ldr         r2, [pc, #0x44]
  00098	e59f103c	 ldr         r1, [pc, #0x3C]
  0009c	e59f0034	 ldr         r0, [pc, #0x34]
  000a0	eb000000	 bl          NKDbgPrintfW
  000a4	e6000010	 __debugbreak_ce
  000a8	e3a03000	 mov         r3, #0
  000ac	e58d3008	 str         r3, [sp, #8]
  000b0		 |$LN6@VaToPa|

; 187  :     return ULONG(ULONG(virtAddr) + m_PaVaConversion);

  000b0	e59d3014	 ldr         r3, [sp, #0x14]
  000b4	e2833034	 add         r3, r3, #0x34
  000b8	e59d2018	 ldr         r2, [sp, #0x18]
  000bc	e5933000	 ldr         r3, [r3]
  000c0	e0823003	 add         r3, r2, r3
  000c4	e58d3000	 str         r3, [sp]

; 188  : }

  000c8	e59d0000	 ldr         r0, [sp]
  000cc	e28dd00c	 add         sp, sp, #0xC
  000d0	e89d6000	 ldmia       sp, {sp, lr}
  000d4	e12fff1e	 bx          lr
  000d8		 |$LN10@VaToPa|
  000d8		 |$LN11@VaToPa|
  000d8	00000000	 DCD         |??_C@_1FK@FNONLNGN@?$AA?$CF?$AAs?$AA?3?$AA?5?$AAD?$AAE?$AAB?$AAU?$AAG?$AAC?$AAH?$AAK?$AA?5?$AAf?$AAa?$AAi?$AAl?$AAe?$AAd?$AA?5?$AAi?$AAn?$AA?5?$AAf?$AAi?$AAl?$AAe?$AA?5?$AA?$CF?$AAs?$AA?5?$AAa@|
  000dc		 |$LN12@VaToPa|
  000dc	00000000	 DCD         |??_C@_1BA@LEPJIIOK@?$AAU?$AAn?$AAk?$AAn?$AAo?$AAw?$AAn?$AA?$AA@|
  000e0		 |$LN13@VaToPa|
  000e0	00000000	 DCD         |??_C@_1JC@IKPFBEAB@?$AAC?$AA?3?$AA?2?$AAW?$AAI?$AAN?$AAC?$AAE?$AA6?$AA0?$AA0?$AA?2?$AAp?$AAu?$AAb?$AAl?$AAi?$AAc?$AA?2?$AAC?$AAO?$AAM?$AAM?$AAO?$AAN?$AA?2?$AAO?$AAA?$AAK?$AA?2?$AAD?$AAR@|
  000e4		 |$LN14@VaToPa|
  000e4	00000000	 DCD         |dpCurSettings|
  000e8		 |$M36609|

			 ENDP  ; |?VaToPa@CPhysMem@@QAAKPAE@Z|, CPhysMem::VaToPa

; File c:\wince600\platform\common\src\soc\common_ti_v1\am3517\usb\usbh\transfer.hpp

  00000			 AREA	 |.pdata|, PDATA
|$T36626| DCD	|$LN7@IncIndex|
	DCD	0x40001804
; Function compile flags: /Odtp

  00000			 AREA	 |.text|, CODE, ARM

  00000		 |?IncIndex@TDQueue@@QBAKK@Z| PROC	; TDQueue::IncIndex

; 144  :     DWORD   IncIndex(DWORD dwIndex) const {

  00000		 |$LN7@IncIndex|
  00000	e1a0c00d	 mov         r12, sp
  00004	e92d0003	 stmdb       sp!, {r0, r1}
  00008	e92d5000	 stmdb       sp!, {r12, lr}
  0000c	e24dd008	 sub         sp, sp, #8
  00010		 |$M36623|

; 145  :         dwIndex++;

  00010	e59d3014	 ldr         r3, [sp, #0x14]
  00014	e2833001	 add         r3, r3, #1
  00018	e58d3014	 str         r3, [sp, #0x14]

; 146  :         return (dwIndex<m_dwNumOfTD?dwIndex:0);

  0001c	e59d3010	 ldr         r3, [sp, #0x10]
  00020	e2833004	 add         r3, r3, #4
  00024	e59d2014	 ldr         r2, [sp, #0x14]
  00028	e5933000	 ldr         r3, [r3]
  0002c	e1520003	 cmp         r2, r3
  00030	2a000002	 bcs         |$LN3@IncIndex|
  00034	e59d3014	 ldr         r3, [sp, #0x14]
  00038	e58d3004	 str         r3, [sp, #4]
  0003c	ea000001	 b           |$LN4@IncIndex|
  00040		 |$LN3@IncIndex|
  00040	e3a03000	 mov         r3, #0
  00044	e58d3004	 str         r3, [sp, #4]
  00048		 |$LN4@IncIndex|
  00048	e59d3004	 ldr         r3, [sp, #4]
  0004c	e58d3000	 str         r3, [sp]

; 147  :     }

  00050	e59d0000	 ldr         r0, [sp]
  00054	e28dd008	 add         sp, sp, #8
  00058	e89d6000	 ldmia       sp, {sp, lr}
  0005c	e12fff1e	 bx          lr
  00060		 |$M36624|

			 ENDP  ; |?IncIndex@TDQueue@@QBAKK@Z|, TDQueue::IncIndex

	EXPORT	|?QueueDisable@TDQueue@@QAAHXZ|		; TDQueue::QueueDisable

  00050			 AREA	 |.pdata|, PDATA
|$T36634| DCD	|$LN9@QueueDisab|
	DCD	0x40003204
; Function compile flags: /Odtp
; File c:\wince600\platform\common\src\soc\common_ti_v1\am3517\usb\usbh\transfer.cpp

  007f4			 AREA	 |.text|, CODE, ARM

  007f4		 |?QueueDisable@TDQueue@@QAAHXZ| PROC	; TDQueue::QueueDisable

; 177  : {

  007f4		 |$LN9@QueueDisab|
  007f4	e1a0c00d	 mov         r12, sp
  007f8	e92d0001	 stmdb       sp!, {r0}
  007fc	e92d5000	 stmdb       sp!, {r12, lr}
  00800	e24dd008	 sub         sp, sp, #8
  00804		 |$M36631|

; 178  :     if  ( m_pTDQueue!=NULL && m_pBuffer!=NULL ) {

  00804	e59d3010	 ldr         r3, [sp, #0x10]
  00808	e283300c	 add         r3, r3, #0xC
  0080c	e5933000	 ldr         r3, [r3]
  00810	e3530000	 cmp         r3, #0
  00814	0a000022	 beq         |$LN4@QueueDisab|
  00818	e59d3010	 ldr         r3, [sp, #0x10]
  0081c	e2833014	 add         r3, r3, #0x14
  00820	e5933000	 ldr         r3, [r3]
  00824	e3530000	 cmp         r3, #0
  00828	0a00001d	 beq         |$LN4@QueueDisab|

; 179  :         for (DWORD dwIndex=0;dwIndex< m_dwNumOfTD;dwIndex++) {

  0082c	e3a03000	 mov         r3, #0
  00830	e58d3000	 str         r3, [sp]
  00834	ea000002	 b           |$LN3@QueueDisab|
  00838		 |$LN2@QueueDisab|
  00838	e59d3000	 ldr         r3, [sp]
  0083c	e2833001	 add         r3, r3, #1
  00840	e58d3000	 str         r3, [sp]
  00844		 |$LN3@QueueDisab|
  00844	e59d3010	 ldr         r3, [sp, #0x10]
  00848	e2833004	 add         r3, r3, #4
  0084c	e59d2000	 ldr         r2, [sp]
  00850	e5933000	 ldr         r3, [r3]
  00854	e1520003	 cmp         r2, r3
  00858	2a000011	 bcs         |$LN1@QueueDisab|

; 180  :             (m_pTDQueue+dwIndex)->bfDiscard=1;

  0085c	e59d3010	 ldr         r3, [sp, #0x10]
  00860	e283000c	 add         r0, r3, #0xC
  00864	e59d1000	 ldr         r1, [sp]
  00868	e3a03020	 mov         r3, #0x20
  0086c	e0020391	 mul         r2, r1, r3
  00870	e5903000	 ldr         r3, [r0]
  00874	e0833002	 add         r3, r3, r2
  00878	e5933000	 ldr         r3, [r3]
  0087c	e383e801	 orr         lr, r3, #1, 16
  00880	e59d3010	 ldr         r3, [sp, #0x10]
  00884	e283000c	 add         r0, r3, #0xC
  00888	e59d1000	 ldr         r1, [sp]
  0088c	e3a03020	 mov         r3, #0x20
  00890	e0020391	 mul         r2, r1, r3
  00894	e5903000	 ldr         r3, [r0]
  00898	e0833002	 add         r3, r3, r2
  0089c	e583e000	 str         lr, [r3]

; 181  :         }

  008a0	eaffffe4	 b           |$LN2@QueueDisab|
  008a4		 |$LN1@QueueDisab|
  008a4		 |$LN4@QueueDisab|

; 182  :     }
; 183  :     return TRUE;

  008a4	e3a03001	 mov         r3, #1
  008a8	e58d3004	 str         r3, [sp, #4]

; 184  : }

  008ac	e59d0004	 ldr         r0, [sp, #4]
  008b0	e28dd008	 add         sp, sp, #8
  008b4	e89d6000	 ldmia       sp, {sp, lr}
  008b8	e12fff1e	 bx          lr
  008bc		 |$M36632|

			 ENDP  ; |?QueueDisable@TDQueue@@QAAHXZ|, TDQueue::QueueDisable

	EXPORT	|??_C@_1KA@PGFIKFOG@?$AAC?$AA?3?$AA?2?$AAW?$AAI?$AAN?$AAC?$AAE?$AA6?$AA0?$AA0?$AA?2?$AAP?$AAL?$AAA?$AAT?$AAF?$AAO?$AAR?$AAM?$AA?2?$AAC?$AAO?$AAM?$AAM?$AAO?$AAN?$AA?2?$AAS?$AAR?$AAC?$AA?2@| [ DATA ] ; `string'
	EXPORT	|?IsTDQueueFull@TDQueue@@QBAHXZ|	; TDQueue::IsTDQueueFull
	EXPORT	|?InitTDQueueTailTD@TDQueue@@QAAHPAVCTransfer@@PAVCQueuedPipe@@EKGKKH@Z| ; TDQueue::InitTDQueueTailTD

  00058			 AREA	 |.pdata|, PDATA
|$T36648| DCD	|$LN17@InitTDQueu|
	DCD	0x4000e804

  00000			 AREA	 |.rdata|, DATA, READONLY
|??_C@_1KA@PGFIKFOG@?$AAC?$AA?3?$AA?2?$AAW?$AAI?$AAN?$AAC?$AAE?$AA6?$AA0?$AA0?$AA?2?$AAP?$AAL?$AAA?$AAT?$AAF?$AAO?$AAR?$AAM?$AA?2?$AAC?$AAO?$AAM?$AAM?$AAO?$AAN?$AA?2?$AAS?$AAR?$AAC?$AA?2@| DCB "C"
	DCB	0x0, ":", 0x0, "\\", 0x0, "W", 0x0, "I", 0x0, "N", 0x0, "C"
	DCB	0x0, "E", 0x0, "6", 0x0, "0", 0x0, "0", 0x0, "\\", 0x0, "P"
	DCB	0x0, "L", 0x0, "A", 0x0, "T", 0x0, "F", 0x0, "O", 0x0, "R"
	DCB	0x0, "M", 0x0, "\\", 0x0, "C", 0x0, "O", 0x0, "M", 0x0, "M"
	DCB	0x0, "O", 0x0, "N", 0x0, "\\", 0x0, "S", 0x0, "R", 0x0, "C"
	DCB	0x0, "\\", 0x0, "S", 0x0, "O", 0x0, "C", 0x0, "\\", 0x0, "C"
	DCB	0x0, "O", 0x0, "M", 0x0, "M", 0x0, "O", 0x0, "N", 0x0, "_"
	DCB	0x0, "T", 0x0, "I", 0x0, "_", 0x0, "V", 0x0, "1", 0x0, "\\"
	DCB	0x0, "A", 0x0, "M", 0x0, "3", 0x0, "5", 0x0, "1", 0x0, "7"
	DCB	0x0, "\\", 0x0, "U", 0x0, "S", 0x0, "B", 0x0, "\\", 0x0, "U"
	DCB	0x0, "S", 0x0, "B", 0x0, "H", 0x0, "\\", 0x0, ".", 0x0, "\\"
	DCB	0x0, "t", 0x0, "r", 0x0, "a", 0x0, "n", 0x0, "s", 0x0, "f"
	DCB	0x0, "e", 0x0, "r", 0x0, ".", 0x0, "c", 0x0, "p", 0x0, "p"
	DCB	0x0, 0x0, 0x0				; `string'
; Function compile flags: /Odtp

  008bc			 AREA	 |.text|, CODE, ARM

  008bc		 |?InitTDQueueTailTD@TDQueue@@QAAHPAVCTransfer@@PAVCQueuedPipe@@EKGKKH@Z| PROC ; TDQueue::InitTDQueueTailTD

; 196  : {

  008bc		 |$LN17@InitTDQueu|
  008bc	e1a0c00d	 mov         r12, sp
  008c0	e92d000f	 stmdb       sp!, {r0 - r3}
  008c4	e92d5000	 stmdb       sp!, {r12, lr}
  008c8	e24dd028	 sub         sp, sp, #0x28
  008cc		 |$M36645|

; 197  :     if (IsTDQueueFull() || m_pTDQueue==NULL || m_pBuffer == NULL)

  008cc	e59d0030	 ldr         r0, [sp, #0x30]
  008d0	eb000000	 bl          |?IsTDQueueFull@TDQueue@@QBAHXZ|
  008d4	e58d000c	 str         r0, [sp, #0xC]
  008d8	e59d300c	 ldr         r3, [sp, #0xC]
  008dc	e3530000	 cmp         r3, #0
  008e0	1a000009	 bne         |$LN3@InitTDQueu|
  008e4	e59d3030	 ldr         r3, [sp, #0x30]
  008e8	e283300c	 add         r3, r3, #0xC
  008ec	e5933000	 ldr         r3, [r3]
  008f0	e3530000	 cmp         r3, #0
  008f4	0a000004	 beq         |$LN3@InitTDQueu|
  008f8	e59d3030	 ldr         r3, [sp, #0x30]
  008fc	e2833014	 add         r3, r3, #0x14
  00900	e5933000	 ldr         r3, [r3]
  00904	e3530000	 cmp         r3, #0
  00908	1a000002	 bne         |$LN4@InitTDQueu|
  0090c		 |$LN3@InitTDQueu|

; 198  :         return FALSE;

  0090c	e3a03000	 mov         r3, #0
  00910	e58d3008	 str         r3, [sp, #8]
  00914	ea0000c9	 b           |$LN5@InitTDQueu|
  00918		 |$LN4@InitTDQueu|

; 199  :     TD * pTD = m_pTDQueue + m_dwTailIndex;

  00918	e59d3030	 ldr         r3, [sp, #0x30]
  0091c	e283000c	 add         r0, r3, #0xC
  00920	e59d3030	 ldr         r3, [sp, #0x30]
  00924	e2833020	 add         r3, r3, #0x20
  00928	e5931000	 ldr         r1, [r3]
  0092c	e3a03020	 mov         r3, #0x20
  00930	e0020391	 mul         r2, r1, r3
  00934	e5903000	 ldr         r3, [r0]
  00938	e0833002	 add         r3, r3, r2
  0093c	e58d3000	 str         r3, [sp]

; 200  : 
; 201  :     // not really part of the TD
; 202  :     pTD->pTransfer = pTransfer;

  00940	e59d3000	 ldr         r3, [sp]
  00944	e2832010	 add         r2, r3, #0x10
  00948	e59d3034	 ldr         r3, [sp, #0x34]
  0094c	e5823000	 str         r3, [r2]

; 203  :     pTD->pNextTd =  m_pTDQueue + IncIndex(m_dwTailIndex);

  00950	e59d3030	 ldr         r3, [sp, #0x30]
  00954	e2833020	 add         r3, r3, #0x20
  00958	e5931000	 ldr         r1, [r3]
  0095c	e59d0030	 ldr         r0, [sp, #0x30]
  00960	eb000000	 bl          |?IncIndex@TDQueue@@QBAKK@Z|
  00964	e58d0010	 str         r0, [sp, #0x10]
  00968	e59d3030	 ldr         r3, [sp, #0x30]
  0096c	e283000c	 add         r0, r3, #0xC
  00970	e59d1010	 ldr         r1, [sp, #0x10]
  00974	e3a03020	 mov         r3, #0x20
  00978	e0020391	 mul         r2, r1, r3
  0097c	e5903000	 ldr         r3, [r0]
  00980	e0832002	 add         r2, r3, r2
  00984	e59d3000	 ldr         r3, [sp]
  00988	e2833014	 add         r3, r3, #0x14
  0098c	e5832000	 str         r2, [r3]

; 204  :     pTD->pPipe = pPipe;

  00990	e59d3000	 ldr         r3, [sp]
  00994	e2832018	 add         r2, r3, #0x18
  00998	e59d3038	 ldr         r3, [sp, #0x38]
  0099c	e5823000	 str         r3, [r2]

; 205  :     pTD->bfIsIsoch = 0;

  009a0	e59d3000	 ldr         r3, [sp]
  009a4	e5932000	 ldr         r2, [r3]
  009a8	e3e03802	 mvn         r3, #2, 16
  009ac	e0022003	 and         r2, r2, r3
  009b0	e59d3000	 ldr         r3, [sp]
  009b4	e5832000	 str         r2, [r3]

; 206  :     pTD->bfDiscard = 0;

  009b8	e59d3000	 ldr         r3, [sp]
  009bc	e5932000	 ldr         r2, [r3]
  009c0	e3e03801	 mvn         r3, #1, 16
  009c4	e0022003	 and         r2, r2, r3
  009c8	e59d3000	 ldr         r3, [sp]
  009cc	e5832000	 str         r2, [r3]

; 207  : 
; 208  :     // the actual TD (null is legal for the last TD)
; 209  :     pTD->paNextTd.phys = m_pTDQueuePhysAddr + sizeof(TD) * IncIndex(m_dwTailIndex);

  009d0	e59d3030	 ldr         r3, [sp, #0x30]
  009d4	e2833020	 add         r3, r3, #0x20
  009d8	e5931000	 ldr         r1, [r3]
  009dc	e59d0030	 ldr         r0, [sp, #0x30]
  009e0	eb000000	 bl          |?IncIndex@TDQueue@@QBAKK@Z|
  009e4	e58d0014	 str         r0, [sp, #0x14]
  009e8	e59d3030	 ldr         r3, [sp, #0x30]
  009ec	e2830010	 add         r0, r3, #0x10
  009f0	e59d1014	 ldr         r1, [sp, #0x14]
  009f4	e3a03020	 mov         r3, #0x20
  009f8	e0020391	 mul         r2, r1, r3
  009fc	e5903000	 ldr         r3, [r0]
  00a00	e0832002	 add         r2, r3, r2
  00a04	e59d3000	 ldr         r3, [sp]
  00a08	e2833008	 add         r3, r3, #8
  00a0c	e5832000	 str         r2, [r3]

; 210  : 
; 211  : //    DEBUGCHK( InterruptOnComplete == 0 || InterruptOnComplete == 7 );
; 212  :     pTD->bfShortPacketOk = bShortPacketOk;

  00a10	e59d1050	 ldr         r1, [sp, #0x50]
  00a14	e59d3000	 ldr         r3, [sp]
  00a18	e5932000	 ldr         r2, [r3]
  00a1c	e3e03701	 mvn         r3, #1, 14
  00a20	e0022003	 and         r2, r2, r3
  00a24	e2013001	 and         r3, r1, #1
  00a28	e1a03903	 mov         r3, r3, lsl #18
  00a2c	e1822003	 orr         r2, r2, r3
  00a30	e59d3000	 ldr         r3, [sp]
  00a34	e5832000	 str         r2, [r3]

; 213  :     pTD->bfDelayInterrupt = InterruptOnComplete ? gcTdInterruptOnComplete : gcTdNoInterrupt;

  00a38	e5dd303c	 ldrb        r3, [sp, #0x3C]
  00a3c	e3530000	 cmp         r3, #0
  00a40	0a000002	 beq         |$LN7@InitTDQueu|
  00a44	e3a03000	 mov         r3, #0
  00a48	e58d3018	 str         r3, [sp, #0x18]
  00a4c	ea000001	 b           |$LN8@InitTDQueu|
  00a50		 |$LN7@InitTDQueu|
  00a50	e3a03007	 mov         r3, #7
  00a54	e58d3018	 str         r3, [sp, #0x18]
  00a58		 |$LN8@InitTDQueu|
  00a58	e59d1018	 ldr         r1, [sp, #0x18]
  00a5c	e59d3000	 ldr         r3, [sp]
  00a60	e5932000	 ldr         r2, [r3]
  00a64	e3e0360e	 mvn         r3, #0xE, 12
  00a68	e0022003	 and         r2, r2, r3
  00a6c	e2013007	 and         r3, r1, #7
  00a70	e1a03a83	 mov         r3, r3, lsl #21
  00a74	e1822003	 orr         r2, r2, r3
  00a78	e59d3000	 ldr         r3, [sp]
  00a7c	e5832000	 str         r2, [r3]

; 214  :     pTD->bfDataToggle = DataToggle;

  00a80	e1dd14b4	 ldrh        r1, [sp, #0x44]
  00a84	e59d3000	 ldr         r3, [sp]
  00a88	e5932000	 ldr         r2, [r3]
  00a8c	e3e03403	 mvn         r3, #3, 8
  00a90	e0022003	 and         r2, r2, r3
  00a94	e2013003	 and         r3, r1, #3
  00a98	e1a03c03	 mov         r3, r3, lsl #24
  00a9c	e1822003	 orr         r2, r2, r3
  00aa0	e59d3000	 ldr         r3, [sp]
  00aa4	e5832000	 str         r2, [r3]

; 215  :     pTD->bfErrorCount = 0;

  00aa8	e59d3000	 ldr         r3, [sp]
  00aac	e5932000	 ldr         r2, [r3]
  00ab0	e3e03303	 mvn         r3, #3, 6
  00ab4	e0022003	 and         r2, r2, r3
  00ab8	e59d3000	 ldr         r3, [sp]
  00abc	e5832000	 str         r2, [r3]

; 216  :     pTD->bfConditionCode = USB_NOT_ACCESSED_ERROR;

  00ac0	e59d3000	 ldr         r3, [sp]
  00ac4	e5932000	 ldr         r2, [r3]
  00ac8	e3e0320f	 mvn         r3, #0xF, 4
  00acc	e0023003	 and         r3, r2, r3
  00ad0	e383220e	 orr         r2, r3, #0xE, 4
  00ad4	e59d3000	 ldr         r3, [sp]
  00ad8	e5832000	 str         r2, [r3]

; 217  : 
; 218  :     DEBUGCHK( PID == TD_IN_PID ||
; 219  :               PID == TD_OUT_PID ||
; 220  :               PID == TD_SETUP_PID );

  00adc	e59d3040	 ldr         r3, [sp, #0x40]
  00ae0	e3530002	 cmp         r3, #2
  00ae4	0a00000e	 beq         |$LN9@InitTDQueu|
  00ae8	e59d3040	 ldr         r3, [sp, #0x40]
  00aec	e3530001	 cmp         r3, #1
  00af0	0a00000b	 beq         |$LN9@InitTDQueu|
  00af4	e59d3040	 ldr         r3, [sp, #0x40]
  00af8	e3530000	 cmp         r3, #0
  00afc	0a000008	 beq         |$LN9@InitTDQueu|
  00b00	e3a030dc	 mov         r3, #0xDC
  00b04	e59f214c	 ldr         r2, [pc, #0x14C]
  00b08	e59f1144	 ldr         r1, [pc, #0x144]
  00b0c	e59f013c	 ldr         r0, [pc, #0x13C]
  00b10	eb000000	 bl          NKDbgPrintfW
  00b14	e6000010	 __debugbreak_ce
  00b18	e3a03000	 mov         r3, #0
  00b1c	e58d301c	 str         r3, [sp, #0x1C]
  00b20	ea000001	 b           |$LN10@InitTDQueu|
  00b24		 |$LN9@InitTDQueu|
  00b24	e3a03001	 mov         r3, #1
  00b28	e58d301c	 str         r3, [sp, #0x1C]
  00b2c		 |$LN10@InitTDQueu|

; 221  :     pTD->bfPID = PID;

  00b2c	e59d1040	 ldr         r1, [sp, #0x40]
  00b30	e59d3000	 ldr         r3, [sp]
  00b34	e5932000	 ldr         r2, [r3]
  00b38	e3e03706	 mvn         r3, #6, 14
  00b3c	e0022003	 and         r2, r2, r3
  00b40	e2013003	 and         r3, r1, #3
  00b44	e1a03983	 mov         r3, r3, lsl #19
  00b48	e1822003	 orr         r2, r2, r3
  00b4c	e59d3000	 ldr         r3, [sp]
  00b50	e5832000	 str         r2, [r3]

; 222  :     DWORD phAddr = (paBuffer==0? (m_pBufferPhysAddr + m_dwTDBufferSize * m_dwTailIndex):paBuffer);

  00b54	e59d3048	 ldr         r3, [sp, #0x48]
  00b58	e3530000	 cmp         r3, #0
  00b5c	1a00000c	 bne         |$LN11@InitTDQueu|
  00b60	e59d3030	 ldr         r3, [sp, #0x30]
  00b64	e2830018	 add         r0, r3, #0x18
  00b68	e59d3030	 ldr         r3, [sp, #0x30]
  00b6c	e2832008	 add         r2, r3, #8
  00b70	e59d3030	 ldr         r3, [sp, #0x30]
  00b74	e2833020	 add         r3, r3, #0x20
  00b78	e5921000	 ldr         r1, [r2]
  00b7c	e5933000	 ldr         r3, [r3]
  00b80	e0020391	 mul         r2, r1, r3
  00b84	e5903000	 ldr         r3, [r0]
  00b88	e0833002	 add         r3, r3, r2
  00b8c	e58d3020	 str         r3, [sp, #0x20]
  00b90	ea000001	 b           |$LN12@InitTDQueu|
  00b94		 |$LN11@InitTDQueu|
  00b94	e59d3048	 ldr         r3, [sp, #0x48]
  00b98	e58d3020	 str         r3, [sp, #0x20]
  00b9c		 |$LN12@InitTDQueu|
  00b9c	e59d3020	 ldr         r3, [sp, #0x20]
  00ba0	e58d3004	 str         r3, [sp, #4]

; 223  :     if (MaxLength == 0 ) {

  00ba4	e59d304c	 ldr         r3, [sp, #0x4C]
  00ba8	e3530000	 cmp         r3, #0
  00bac	1a000008	 bne         |$LN2@InitTDQueu|

; 224  :         // zero-length transfer
; 225  :         pTD->paCurBuffer = 0;

  00bb0	e59d3000	 ldr         r3, [sp]
  00bb4	e2832004	 add         r2, r3, #4
  00bb8	e3a03000	 mov         r3, #0
  00bbc	e5823000	 str         r3, [r2]

; 226  :         pTD->paBufferEnd = 0;

  00bc0	e59d3000	 ldr         r3, [sp]
  00bc4	e283200c	 add         r2, r3, #0xC
  00bc8	e3a03000	 mov         r3, #0
  00bcc	e5823000	 str         r3, [r2]

; 227  :     } else {

  00bd0	ea000018	 b           |$LN1@InitTDQueu|
  00bd4		 |$LN2@InitTDQueu|

; 228  :         DEBUGCHK( MaxLength <= 0x2000 /*8K*/ );

  00bd4	e59d304c	 ldr         r3, [sp, #0x4C]
  00bd8	e3530a02	 cmp         r3, #2, 20
  00bdc	8a000002	 bhi         |$LN13@InitTDQueu|
  00be0	e3a03001	 mov         r3, #1
  00be4	e58d3024	 str         r3, [sp, #0x24]
  00be8	ea000007	 b           |$LN14@InitTDQueu|
  00bec		 |$LN13@InitTDQueu|
  00bec	e3a030e4	 mov         r3, #0xE4
  00bf0	e59f2060	 ldr         r2, [pc, #0x60]
  00bf4	e59f1058	 ldr         r1, [pc, #0x58]
  00bf8	e59f0050	 ldr         r0, [pc, #0x50]
  00bfc	eb000000	 bl          NKDbgPrintfW
  00c00	e6000010	 __debugbreak_ce
  00c04	e3a03000	 mov         r3, #0
  00c08	e58d3024	 str         r3, [sp, #0x24]
  00c0c		 |$LN14@InitTDQueu|

; 229  :         pTD->paCurBuffer = phAddr;

  00c0c	e59d3000	 ldr         r3, [sp]
  00c10	e2832004	 add         r2, r3, #4
  00c14	e59d3004	 ldr         r3, [sp, #4]
  00c18	e5823000	 str         r3, [r2]

; 230  :         pTD->paBufferEnd = phAddr+MaxLength-1;

  00c1c	e59d2004	 ldr         r2, [sp, #4]
  00c20	e59d304c	 ldr         r3, [sp, #0x4C]
  00c24	e0823003	 add         r3, r2, r3
  00c28	e2432001	 sub         r2, r3, #1
  00c2c	e59d3000	 ldr         r3, [sp]
  00c30	e283300c	 add         r3, r3, #0xC
  00c34	e5832000	 str         r2, [r3]
  00c38		 |$LN1@InitTDQueu|

; 231  :     }
; 232  :     return TRUE;

  00c38	e3a03001	 mov         r3, #1
  00c3c	e58d3008	 str         r3, [sp, #8]
  00c40		 |$LN5@InitTDQueu|

; 233  : };

  00c40	e59d0008	 ldr         r0, [sp, #8]
  00c44	e28dd028	 add         sp, sp, #0x28
  00c48	e89d6000	 ldmia       sp, {sp, lr}
  00c4c	e12fff1e	 bx          lr
  00c50		 |$LN18@InitTDQueu|
  00c50		 |$LN19@InitTDQueu|
  00c50	00000000	 DCD         |??_C@_1FK@FNONLNGN@?$AA?$CF?$AAs?$AA?3?$AA?5?$AAD?$AAE?$AAB?$AAU?$AAG?$AAC?$AAH?$AAK?$AA?5?$AAf?$AAa?$AAi?$AAl?$AAe?$AAd?$AA?5?$AAi?$AAn?$AA?5?$AAf?$AAi?$AAl?$AAe?$AA?5?$AA?$CF?$AAs?$AA?5?$AAa@|
  00c54		 |$LN20@InitTDQueu|
  00c54	00000000	 DCD         |dpCurSettings|
  00c58		 |$LN21@InitTDQueu|
  00c58	00000000	 DCD         |??_C@_1KA@PGFIKFOG@?$AAC?$AA?3?$AA?2?$AAW?$AAI?$AAN?$AAC?$AAE?$AA6?$AA0?$AA0?$AA?2?$AAP?$AAL?$AAA?$AAT?$AAF?$AAO?$AAR?$AAM?$AA?2?$AAC?$AAO?$AAM?$AAM?$AAO?$AAN?$AA?2?$AAS?$AAR?$AAC?$AA?2@|
  00c5c		 |$M36646|

			 ENDP  ; |?InitTDQueueTailTD@TDQueue@@QAAHPAVCTransfer@@PAVCQueuedPipe@@EKGKKH@Z|, TDQueue::InitTDQueueTailTD

; File c:\wince600\platform\common\src\soc\common_ti_v1\am3517\usb\usbh\transfer.hpp

  00000			 AREA	 |.pdata|, PDATA
|$T36660| DCD	|$LN7@IsTDQueueF|
	DCD	0x40001b04
; Function compile flags: /Odtp

  00000			 AREA	 |.text|, CODE, ARM

  00000		 |?IsTDQueueFull@TDQueue@@QBAHXZ| PROC	; TDQueue::IsTDQueueFull

; 148  :     BOOL IsTDQueueFull() const {

  00000		 |$LN7@IsTDQueueF|
  00000	e1a0c00d	 mov         r12, sp
  00004	e92d0001	 stmdb       sp!, {r0}
  00008	e92d5000	 stmdb       sp!, {r12, lr}
  0000c	e24dd00c	 sub         sp, sp, #0xC
  00010		 |$M36657|

; 149  :         return ( IncIndex(m_dwTailIndex) == m_dwHeadIndex);

  00010	e59d3014	 ldr         r3, [sp, #0x14]
  00014	e2833020	 add         r3, r3, #0x20
  00018	e5931000	 ldr         r1, [r3]
  0001c	e59d0014	 ldr         r0, [sp, #0x14]
  00020	eb000000	 bl          |?IncIndex@TDQueue@@QBAKK@Z|
  00024	e58d0004	 str         r0, [sp, #4]
  00028	e59d3014	 ldr         r3, [sp, #0x14]
  0002c	e283301c	 add         r3, r3, #0x1C
  00030	e59d2004	 ldr         r2, [sp, #4]
  00034	e5933000	 ldr         r3, [r3]
  00038	e1520003	 cmp         r2, r3
  0003c	1a000002	 bne         |$LN3@IsTDQueueF|
  00040	e3a03001	 mov         r3, #1
  00044	e58d3008	 str         r3, [sp, #8]
  00048	ea000001	 b           |$LN4@IsTDQueueF|
  0004c		 |$LN3@IsTDQueueF|
  0004c	e3a03000	 mov         r3, #0
  00050	e58d3008	 str         r3, [sp, #8]
  00054		 |$LN4@IsTDQueueF|
  00054	e59d3008	 ldr         r3, [sp, #8]
  00058	e58d3000	 str         r3, [sp]

; 150  :     }

  0005c	e59d0000	 ldr         r0, [sp]
  00060	e28dd00c	 add         sp, sp, #0xC
  00064	e89d6000	 ldmia       sp, {sp, lr}
  00068	e12fff1e	 bx          lr
  0006c		 |$M36658|

			 ENDP  ; |?IsTDQueueFull@TDQueue@@QBAHXZ|, TDQueue::IsTDQueueFull

	END
