; Listing generated by Microsoft (R) Optimizing Compiler Version 14.01.60511.01 

	TTL	C:\WINCE600\PLATFORM\COMMON\SRC\SOC\COMMON_TI_V1\OMAP3530\PM\POLICYADAPTERS\SMARTREFLEX\smartreflexpolicy.cpp
	CODE32

  00000			 AREA	 |.drectve|, DRECTVE
	DCB	"-defaultlib:LIBCMT "
	DCB	"-defaultlib:OLDNAMES "

	EXPORT	|??_C@_1BE@LJCCPHDL@?$AAL?$AAp?$AAr?$AAO?$AAf?$AAf?$AAO?$AAp?$AAm?$AA?$AA@| [ DATA ] ; `string'
	EXPORT	|??_C@_1BK@KMIGPPHB@?$AAS?$AAe?$AAn?$AAs?$AAi?$AAn?$AAg?$AAD?$AAe?$AAl?$AAa?$AAy?$AA?$AA@| [ DATA ] ; `string'
	EXPORT	|??_C@_1BM@OPHBJDPH@?$AAS?$AAe?$AAn?$AAs?$AAi?$AAn?$AAg?$AAP?$AAe?$AAr?$AAi?$AAo?$AAd?$AA?$AA@| [ DATA ] ; `string'
	EXPORT	|dpCurSettings| [ DATA ]

  00000			 AREA	 |.rdata|, DATA, READONLY
|g_policyRegParams| DCD |??_C@_1BM@OPHBJDPH@?$AAS?$AAe?$AAn?$AAs?$AAi?$AAn?$AAg?$AAP?$AAe?$AAr?$AAi?$AAo?$AAd?$AA?$AA@|
	DCD	0x1
	DCD	0x0
	DCD	0x4
	DCD	0x4
	DCD	0x3e8
	DCD	|??_C@_1BK@KMIGPPHB@?$AAS?$AAe?$AAn?$AAs?$AAi?$AAn?$AAg?$AAD?$AAe?$AAl?$AAa?$AAy?$AA?$AA@|
	DCD	0x1
	DCD	0x0
	DCD	0x8
	DCD	0x4
	DCD	0x3e8
	DCD	|??_C@_1BE@LJCCPHDL@?$AAL?$AAp?$AAr?$AAO?$AAf?$AAf?$AAO?$AAp?$AAm?$AA?$AA@|
	DCD	0x1
	DCD	0x0
	DCD	0x30
	DCD	0x4
	DCD	0x2

  00000			 AREA	 |.rdata|, DATA, READONLY
|??_C@_1BE@LJCCPHDL@?$AAL?$AAp?$AAr?$AAO?$AAf?$AAf?$AAO?$AAp?$AAm?$AA?$AA@| DCB "L"
	DCB	0x0, "p", 0x0, "r", 0x0, "O", 0x0, "f", 0x0, "f", 0x0, "O"
	DCB	0x0, "p", 0x0, "m", 0x0, 0x0, 0x0	; `string'

  00000			 AREA	 |.rdata|, DATA, READONLY
|??_C@_1BK@KMIGPPHB@?$AAS?$AAe?$AAn?$AAs?$AAi?$AAn?$AAg?$AAD?$AAe?$AAl?$AAa?$AAy?$AA?$AA@| DCB "S"
	DCB	0x0, "e", 0x0, "n", 0x0, "s", 0x0, "i", 0x0, "n", 0x0, "g"
	DCB	0x0, "D", 0x0, "e", 0x0, "l", 0x0, "a", 0x0, "y", 0x0, 0x0
	DCB	0x0					; `string'

  00000			 AREA	 |.rdata|, DATA, READONLY
|??_C@_1BM@OPHBJDPH@?$AAS?$AAe?$AAn?$AAs?$AAi?$AAn?$AAg?$AAP?$AAe?$AAr?$AAi?$AAo?$AAd?$AA?$AA@| DCB "S"
	DCB	0x0, "e", 0x0, "n", 0x0, "s", 0x0, "i", 0x0, "n", 0x0, "g"
	DCB	0x0, "P", 0x0, "e", 0x0, "r", 0x0, "i", 0x0, "o", 0x0, "d"
	DCB	0x0, 0x0, 0x0				; `string'

  00000			 AREA	 |.data|, DATA
|dpCurSettings| DCB "P", 0x0, "r", 0x0, "o", 0x0, "x", 0x0, "y", 0x0, "D", 0x0
	DCB	"r", 0x0, "i", 0x0, "v", 0x0, "e", 0x0, "r", 0x0, 0x0, 0x0
	%	40
	DCB	"E", 0x0, "r", 0x0, "r", 0x0, "o", 0x0, "r", 0x0, "s", 0x0
	DCB	0x0, 0x0
	%	50
	DCB	"W", 0x0, "a", 0x0, "r", 0x0, "n", 0x0, "i", 0x0, "n", 0x0
	DCB	"g", 0x0, "s", 0x0, 0x0, 0x0
	%	46
	DCB	"F", 0x0, "u", 0x0, "n", 0x0, "c", 0x0, "t", 0x0, "i", 0x0
	DCB	"o", 0x0, "n", 0x0, 0x0, 0x0
	%	46
	DCB	"I", 0x0, "n", 0x0, "f", 0x0, "o", 0x0, 0x0, 0x0
	%	54
	DCB	"U", 0x0, "n", 0x0, "d", 0x0, "e", 0x0, "f", 0x0, "i", 0x0
	DCB	"n", 0x0, "e", 0x0, "d", 0x0, 0x0, 0x0
	%	44
	DCB	"U", 0x0, "n", 0x0, "d", 0x0, "e", 0x0, "f", 0x0, "i", 0x0
	DCB	"n", 0x0, "e", 0x0, "d", 0x0, 0x0, 0x0
	%	44
	DCB	"U", 0x0, "n", 0x0, "d", 0x0, "e", 0x0, "f", 0x0, "i", 0x0
	DCB	"n", 0x0, "e", 0x0, "d", 0x0, 0x0, 0x0
	%	44
	DCB	"U", 0x0, "n", 0x0, "d", 0x0, "e", 0x0, "f", 0x0, "i", 0x0
	DCB	"n", 0x0, "e", 0x0, "d", 0x0, 0x0, 0x0
	%	44
	DCB	"U", 0x0, "n", 0x0, "d", 0x0, "e", 0x0, "f", 0x0, "i", 0x0
	DCB	"n", 0x0, "e", 0x0, "d", 0x0, 0x0, 0x0
	%	44
	DCB	"U", 0x0, "n", 0x0, "d", 0x0, "e", 0x0, "f", 0x0, "i", 0x0
	DCB	"n", 0x0, "e", 0x0, "d", 0x0, 0x0, 0x0
	%	44
	DCB	"U", 0x0, "n", 0x0, "d", 0x0, "e", 0x0, "f", 0x0, "i", 0x0
	DCB	"n", 0x0, "e", 0x0, "d", 0x0, 0x0, 0x0
	%	44
	DCB	"U", 0x0, "n", 0x0, "d", 0x0, "e", 0x0, "f", 0x0, "i", 0x0
	DCB	"n", 0x0, "e", 0x0, "d", 0x0, 0x0, 0x0
	%	44
	DCB	"U", 0x0, "n", 0x0, "d", 0x0, "e", 0x0, "f", 0x0, "i", 0x0
	DCB	"n", 0x0, "e", 0x0, "d", 0x0, 0x0, 0x0
	%	44
	DCB	"U", 0x0, "n", 0x0, "d", 0x0, "e", 0x0, "f", 0x0, "i", 0x0
	DCB	"n", 0x0, "e", 0x0, "d", 0x0, 0x0, 0x0
	%	44
	DCB	"U", 0x0, "n", 0x0, "d", 0x0, "e", 0x0, "f", 0x0, "i", 0x0
	DCB	"n", 0x0, "e", 0x0, "d", 0x0, 0x0, 0x0
	%	44
	DCB	"U", 0x0, "n", 0x0, "d", 0x0, "e", 0x0, "f", 0x0, "i", 0x0
	DCB	"n", 0x0, "e", 0x0, "d", 0x0, 0x0, 0x0
	%	44
	DCD	0x0
	EXPORT	|??_C@_1FC@LOBCMHCK@?$AAS?$AAm?$AAa?$AAr?$AAt?$AAR?$AAe?$AAf?$AAl?$AAe?$AAx?$AAP?$AAo?$AAl?$AAi?$AAc?$AAy?$AA?3?$AA?5?$AAE?$AAn?$AAa?$AAb?$AAl?$AAe?$AAS?$AAm?$AAa?$AAr?$AAt?$AAR?$AAe@| [ DATA ] ; `string'
	EXPORT	|?EnableSmartReflex@@YAXH@Z|		; EnableSmartReflex
	IMPORT	|NKDbgPrintfW|
	IMPORT	|KernelIoControl|

  00000			 AREA	 |.pdata|, PDATA
|$T37841| DCD	|$LN7@EnableSmar|
	DCD	0x40001f04
; File c:\wince600\platform\common\src\soc\common_ti_v1\omap3530\pm\policyadapters\smartreflex\smartreflexpolicy.cpp

  00000			 AREA	 |.rdata|, DATA, READONLY
|??_C@_1FC@LOBCMHCK@?$AAS?$AAm?$AAa?$AAr?$AAt?$AAR?$AAe?$AAf?$AAl?$AAe?$AAx?$AAP?$AAo?$AAl?$AAi?$AAc?$AAy?$AA?3?$AA?5?$AAE?$AAn?$AAa?$AAb?$AAl?$AAe?$AAS?$AAm?$AAa?$AAr?$AAt?$AAR?$AAe@| DCB "S"
	DCB	0x0, "m", 0x0, "a", 0x0, "r", 0x0, "t", 0x0, "R", 0x0, "e"
	DCB	0x0, "f", 0x0, "l", 0x0, "e", 0x0, "x", 0x0, "P", 0x0, "o"
	DCB	0x0, "l", 0x0, "i", 0x0, "c", 0x0, "y", 0x0, ":", 0x0, " "
	DCB	0x0, "E", 0x0, "n", 0x0, "a", 0x0, "b", 0x0, "l", 0x0, "e"
	DCB	0x0, "S", 0x0, "m", 0x0, "a", 0x0, "r", 0x0, "t", 0x0, "R"
	DCB	0x0, "e", 0x0, "f", 0x0, "l", 0x0, "e", 0x0, "x", 0x0, "("
	DCB	0x0, "%", 0x0, "d", 0x0, ")", 0x0, 0x0, 0x0 ; `string'
; Function compile flags: /Odtp

  00000			 AREA	 |.text|, CODE, ARM

  00000		 |?EnableSmartReflex@@YAXH@Z| PROC	; EnableSmartReflex

; 143  : {

  00000		 |$LN7@EnableSmar|
  00000	e1a0c00d	 mov         r12, sp
  00004	e92d000f	 stmdb       sp!, {r0 - r3}
  00008	e92d5000	 stmdb       sp!, {r12, lr}
  0000c	e24dd014	 sub         sp, sp, #0x14
  00010		 |$M37838|

; 144  :     KernelIoControl(
; 145  :         IOCTL_SMARTREFLEX_CONTROL,
; 146  :         &bEnable,
; 147  :         sizeof(BOOL),
; 148  :         NULL,
; 149  :         0,
; 150  :         NULL
; 151  :         );

  00010	e3a03000	 mov         r3, #0
  00014	e58d3004	 str         r3, [sp, #4]
  00018	e3a03000	 mov         r3, #0
  0001c	e58d3000	 str         r3, [sp]
  00020	e3a03000	 mov         r3, #0
  00024	e3a02004	 mov         r2, #4
  00028	e28d101c	 add         r1, sp, #0x1C
  0002c	e59f0044	 ldr         r0, [pc, #0x44]
  00030	eb000000	 bl          KernelIoControl

; 152  :      RETAILMSG(ZONE_INFO,(L"SmartReflexPolicy: EnableSmartReflex(%d)",bEnable));

  00034	e59f3038	 ldr         r3, [pc, #0x38]
  00038	e5933440	 ldr         r3, [r3, #0x440]
  0003c	e3130008	 tst         r3, #8
  00040	0a000005	 beq         |$LN3@EnableSmar|
  00044	e59d101c	 ldr         r1, [sp, #0x1C]
  00048	e59f0020	 ldr         r0, [pc, #0x20]
  0004c	eb000000	 bl          NKDbgPrintfW
  00050	e3a03001	 mov         r3, #1
  00054	e58d3010	 str         r3, [sp, #0x10]
  00058	ea000001	 b           |$LN4@EnableSmar|
  0005c		 |$LN3@EnableSmar|
  0005c	e3a03000	 mov         r3, #0
  00060	e58d3010	 str         r3, [sp, #0x10]
  00064		 |$LN4@EnableSmar|

; 153  : }

  00064	e28dd014	 add         sp, sp, #0x14
  00068	e89d6000	 ldmia       sp, {sp, lr}
  0006c	e12fff1e	 bx          lr
  00070		 |$LN8@EnableSmar|
  00070		 |$LN9@EnableSmar|
  00070	00000000	 DCD         |??_C@_1FC@LOBCMHCK@?$AAS?$AAm?$AAa?$AAr?$AAt?$AAR?$AAe?$AAf?$AAl?$AAe?$AAx?$AAP?$AAo?$AAl?$AAi?$AAc?$AAy?$AA?3?$AA?5?$AAE?$AAn?$AAa?$AAb?$AAl?$AAe?$AAS?$AAm?$AAa?$AAr?$AAt?$AAR?$AAe@|
  00074		 |$LN10@EnableSmar|
  00074	00000000	 DCD         |dpCurSettings|
  00078		 |$LN11@EnableSmar|
  00078	02bd0fa4	 DCD         0x2bd0fa4
  0007c		 |$M37839|

			 ENDP  ; |?EnableSmartReflex@@YAXH@Z|, EnableSmartReflex

	EXPORT	|?SendRetentionVoltages@@YAXXZ|		; SendRetentionVoltages

  00000			 AREA	 |.bss|, NOINIT
|s_KernIoCtlInfo| % 0x8

  00008			 AREA	 |.pdata|, PDATA
|$T37852| DCD	|$LN5@SendRetent|
	DCD	0x40001002
; Function compile flags: /Odtp

  0007c			 AREA	 |.text|, CODE, ARM

  0007c		 |?SendRetentionVoltages@@YAXXZ| PROC	; SendRetentionVoltages

; 163  : {

  0007c		 |$LN5@SendRetent|
  0007c	e52de004	 str         lr, [sp, #-4]!
  00080	e24dd010	 sub         sp, sp, #0x10
  00084		 |$M37849|

; 164  :     KernelIoControl(
; 165  :         IOCTL_UPDATE_RETENTION_VOLTAGES,
; 166  :         &s_KernIoCtlInfo,
; 167  :         sizeof(IOCTL_RETENTION_VOLTAGES),
; 168  :         NULL,
; 169  :         0,
; 170  :         NULL
; 171  :         );

  00084	e3a03000	 mov         r3, #0
  00088	e58d3004	 str         r3, [sp, #4]
  0008c	e3a03000	 mov         r3, #0
  00090	e58d3000	 str         r3, [sp]
  00094	e3a03000	 mov         r3, #0
  00098	e3a02008	 mov         r2, #8
  0009c	e59f1014	 ldr         r1, [pc, #0x14]
  000a0	e59f000c	 ldr         r0, [pc, #0xC]
  000a4	eb000000	 bl          KernelIoControl

; 172  : }

  000a8	e28dd010	 add         sp, sp, #0x10
  000ac	e49de004	 ldr         lr, [sp], #4
  000b0	e12fff1e	 bx          lr
  000b4		 |$LN6@SendRetent|
  000b4		 |$LN7@SendRetent|
  000b4	02bd0fa8	 DCD         0x2bd0fa8
  000b8		 |$LN8@SendRetent|
  000b8	00000000	 DCD         |s_KernIoCtlInfo|
  000bc		 |$M37850|

			 ENDP  ; |?SendRetentionVoltages@@YAXXZ|, SendRetentionVoltages

	EXPORT	|?SaveCalibratedVoltages@@YAXXZ|	; SaveCalibratedVoltages

  00008			 AREA	 |.bss|, NOINIT
|s_VddOptimizationInfo| % 0x10

  00010			 AREA	 |.pdata|, PDATA
|$T37860| DCD	|$LN8@SaveCalibr|
	DCD	0x40001c01
; Function compile flags: /Odtp

  000bc			 AREA	 |.text|, CODE, ARM

  000bc		 |?SaveCalibratedVoltages@@YAXXZ| PROC	; SaveCalibratedVoltages

; 182  : {

  000bc		 |$LN8@SaveCalibr|
  000bc	e24dd004	 sub         sp, sp, #4
  000c0		 |$M37857|

; 183  :     UINT idx;
; 184  :     for (idx = 0 ; idx < 2 ; idx++)

  000c0	e3a03000	 mov         r3, #0
  000c4	e58d3000	 str         r3, [sp]
  000c8	ea000002	 b           |$LN3@SaveCalibr|
  000cc		 |$LN2@SaveCalibr|
  000cc	e59d3000	 ldr         r3, [sp]
  000d0	e2833001	 add         r3, r3, #1
  000d4	e58d3000	 str         r3, [sp]
  000d8		 |$LN3@SaveCalibr|
  000d8	e59d3000	 ldr         r3, [sp]
  000dc	e3530002	 cmp         r3, #2
  000e0	2a00000e	 bcs         |$LN1@SaveCalibr|

; 185  :         {
; 186  :         s_VddOptimizationInfo[idx].optimizedVoltage = INREG32(s_VddOptimizationInfo[idx].pPrcmRegistryAddress);

  000e4	e59d1000	 ldr         r1, [sp]
  000e8	e3a03008	 mov         r3, #8
  000ec	e0020391	 mul         r2, r1, r3
  000f0	e59f3030	 ldr         r3, [pc, #0x30]
  000f4	e0833002	 add         r3, r3, r2
  000f8	e5933000	 ldr         r3, [r3]
  000fc	e5930000	 ldr         r0, [r3]
  00100	e59d1000	 ldr         r1, [sp]
  00104	e3a03008	 mov         r3, #8
  00108	e0020391	 mul         r2, r1, r3
  0010c	e59f3014	 ldr         r3, [pc, #0x14]
  00110	e0833002	 add         r3, r3, r2
  00114	e2833004	 add         r3, r3, #4
  00118	e5830000	 str         r0, [r3]
  0011c	eaffffea	 b           |$LN2@SaveCalibr|
  00120		 |$LN1@SaveCalibr|

; 187  :         }
; 188  : }

  00120	e28dd004	 add         sp, sp, #4
  00124	e12fff1e	 bx          lr
  00128		 |$LN9@SaveCalibr|
  00128		 |$LN10@SaveCalibr|
  00128	00000000	 DCD         |s_VddOptimizationInfo|
  0012c		 |$M37858|

			 ENDP  ; |?SaveCalibratedVoltages@@YAXXZ|, SaveCalibratedVoltages

	EXPORT	|?FlushCalibratedVoltages@@YAXXZ|	; FlushCalibratedVoltages

  00018			 AREA	 |.pdata|, PDATA
|$T37867| DCD	|$LN8@FlushCalib|
	DCD	0x40001f02
; Function compile flags: /Odtp

  0012c			 AREA	 |.text|, CODE, ARM

  0012c		 |?FlushCalibratedVoltages@@YAXXZ| PROC	; FlushCalibratedVoltages

; 198  : {

  0012c		 |$LN8@FlushCalib|
  0012c	e52de004	 str         lr, [sp, #-4]!
  00130	e24dd004	 sub         sp, sp, #4
  00134		 |$M37864|

; 199  :     UINT idx;
; 200  :     for (idx = 0 ; idx < 2 ; idx++)

  00134	e3a03000	 mov         r3, #0
  00138	e58d3000	 str         r3, [sp]
  0013c	ea000002	 b           |$LN3@FlushCalib|
  00140		 |$LN2@FlushCalib|
  00140	e59d3000	 ldr         r3, [sp]
  00144	e2833001	 add         r3, r3, #1
  00148	e58d3000	 str         r3, [sp]
  0014c		 |$LN3@FlushCalib|
  0014c	e59d3000	 ldr         r3, [sp]
  00150	e3530002	 cmp         r3, #2
  00154	2a00000d	 bcs         |$LN1@FlushCalib|

; 201  :         {
; 202  :         s_KernIoCtlInfo.retentionVoltage[idx] = s_VddOptimizationInfo[idx].optimizedVoltage;

  00158	e59d1000	 ldr         r1, [sp]
  0015c	e3a03008	 mov         r3, #8
  00160	e0020391	 mul         r2, r1, r3
  00164	e59f3038	 ldr         r3, [pc, #0x38]
  00168	e0833002	 add         r3, r3, r2
  0016c	e2830004	 add         r0, r3, #4
  00170	e59d1000	 ldr         r1, [sp]
  00174	e3a03004	 mov         r3, #4
  00178	e0020391	 mul         r2, r1, r3
  0017c	e59f301c	 ldr         r3, [pc, #0x1C]
  00180	e0832002	 add         r2, r3, r2
  00184	e5903000	 ldr         r3, [r0]
  00188	e5823000	 str         r3, [r2]

; 203  :         }

  0018c	eaffffeb	 b           |$LN2@FlushCalib|
  00190		 |$LN1@FlushCalib|

; 204  : 
; 205  :     SendRetentionVoltages();

  00190	eb000000	 bl          |?SendRetentionVoltages@@YAXXZ|

; 206  : }

  00194	e28dd004	 add         sp, sp, #4
  00198	e49de004	 ldr         lr, [sp], #4
  0019c	e12fff1e	 bx          lr
  001a0		 |$LN9@FlushCalib|
  001a0		 |$LN10@FlushCalib|
  001a0	00000000	 DCD         |s_KernIoCtlInfo|
  001a4		 |$LN11@FlushCalib|
  001a4	00000000	 DCD         |s_VddOptimizationInfo|
  001a8		 |$M37865|

			 ENDP  ; |?FlushCalibratedVoltages@@YAXXZ|, FlushCalibratedVoltages

	EXPORT	|?UpdateSmartReflex@@YAXXZ|		; UpdateSmartReflex

  00018			 AREA	 |.bss|, NOINIT
|s_SmartReflexLoadPolicyInfo| % 0x34

  00020			 AREA	 |.pdata|, PDATA
|$T37875| DCD	|$LN10@UpdateSmar|
	DCD	0x40002901
; Function compile flags: /Odtp

  001a8			 AREA	 |.text|, CODE, ARM

  001a8		 |?UpdateSmartReflex@@YAXXZ| PROC	; UpdateSmartReflex

; 216  : {

  001a8		 |$LN10@UpdateSmar|
  001a8	e52de004	 str         lr, [sp, #-4]!
  001ac		 |$M37872|

; 217  :     if ((s_SmartReflexLoadPolicyInfo.dwActiveDevices > 0 ||
; 218  :          s_SmartReflexLoadPolicyInfo.nSensingState == STATE_SENSING
; 219  :          ) &&
; 220  :         s_SmartReflexLoadPolicyInfo.bSmartReflexState == FALSE
; 221  :            )

  001ac	e59f3094	 ldr         r3, [pc, #0x94]
  001b0	e5933000	 ldr         r3, [r3]
  001b4	e3530000	 cmp         r3, #0
  001b8	8a000003	 bhi         |$LN4@UpdateSmar|
  001bc	e59f3084	 ldr         r3, [pc, #0x84]
  001c0	e5933014	 ldr         r3, [r3, #0x14]
  001c4	e3530002	 cmp         r3, #2
  001c8	1a00000a	 bne         |$LN5@UpdateSmar|
  001cc		 |$LN4@UpdateSmar|
  001cc	e59f3074	 ldr         r3, [pc, #0x74]
  001d0	e5933010	 ldr         r3, [r3, #0x10]
  001d4	e3530000	 cmp         r3, #0
  001d8	1a000006	 bne         |$LN5@UpdateSmar|

; 222  :         {
; 223  :         //enable SR
; 224  :         s_SmartReflexLoadPolicyInfo.bSmartReflexState = TRUE;

  001dc	e59f2064	 ldr         r2, [pc, #0x64]
  001e0	e3a03001	 mov         r3, #1
  001e4	e5823010	 str         r3, [r2, #0x10]

; 225  :         EnableSmartReflex(s_SmartReflexLoadPolicyInfo.bSmartReflexState);

  001e8	e59f3058	 ldr         r3, [pc, #0x58]
  001ec	e5930010	 ldr         r0, [r3, #0x10]
  001f0	eb000000	 bl          |?EnableSmartReflex@@YAXH@Z|

; 226  :         }
; 227  : 
; 228  :     else if ((s_SmartReflexLoadPolicyInfo.dwActiveDevices == 0 ||

  001f4	ea000011	 b           |$LN3@UpdateSmar|
  001f8		 |$LN5@UpdateSmar|

; 229  :         s_SmartReflexLoadPolicyInfo.nSensingState == STATE_SENSING
; 230  :         ) &&
; 231  :         s_SmartReflexLoadPolicyInfo.bSmartReflexState == TRUE
; 232  :            )

  001f8	e59f3048	 ldr         r3, [pc, #0x48]
  001fc	e5933000	 ldr         r3, [r3]
  00200	e3530000	 cmp         r3, #0
  00204	0a000003	 beq         |$LN1@UpdateSmar|
  00208	e59f3038	 ldr         r3, [pc, #0x38]
  0020c	e5933014	 ldr         r3, [r3, #0x14]
  00210	e3530002	 cmp         r3, #2
  00214	1a000009	 bne         |$LN2@UpdateSmar|
  00218		 |$LN1@UpdateSmar|
  00218	e59f3028	 ldr         r3, [pc, #0x28]
  0021c	e5933010	 ldr         r3, [r3, #0x10]
  00220	e3530001	 cmp         r3, #1
  00224	1a000005	 bne         |$LN2@UpdateSmar|

; 233  :         {
; 234  :         //diable SR
; 235  :         s_SmartReflexLoadPolicyInfo.bSmartReflexState = FALSE;

  00228	e59f2018	 ldr         r2, [pc, #0x18]
  0022c	e3a03000	 mov         r3, #0
  00230	e5823010	 str         r3, [r2, #0x10]

; 236  :         EnableSmartReflex(s_SmartReflexLoadPolicyInfo.bSmartReflexState);

  00234	e59f300c	 ldr         r3, [pc, #0xC]
  00238	e5930010	 ldr         r0, [r3, #0x10]
  0023c	eb000000	 bl          |?EnableSmartReflex@@YAXH@Z|
  00240		 |$LN2@UpdateSmar|
  00240		 |$LN3@UpdateSmar|

; 237  :         }
; 238  : }

  00240	e49de004	 ldr         lr, [sp], #4
  00244	e12fff1e	 bx          lr
  00248		 |$LN11@UpdateSmar|
  00248		 |$LN12@UpdateSmar|
  00248	00000000	 DCD         |s_SmartReflexLoadPolicyInfo|
  0024c		 |$M37873|

			 ENDP  ; |?UpdateSmartReflex@@YAXXZ|, UpdateSmartReflex

	EXPORT	|?SmartReflexSensingThread@@YAKPAX@Z|	; SmartReflexSensingThread
	IMPORT	|WaitForSingleObject|
	IMPORT	|CeSetThreadPriority|

  0004c			 AREA	 |.bss|, NOINIT
|s_currentOpm| % 0x4

  00028			 AREA	 |.pdata|, PDATA
|$T37883| DCD	|$LN29@SmartRefle|
	DCD	0x40008704
; Function compile flags: /Odtp

  0024c			 AREA	 |.text|, CODE, ARM

  0024c		 |?SmartReflexSensingThread@@YAKPAX@Z| PROC ; SmartReflexSensingThread

; 255  : {

  0024c		 |$LN29@SmartRefle|
  0024c	e1a0c00d	 mov         r12, sp
  00250	e92d0001	 stmdb       sp!, {r0}
  00254	e92d5000	 stmdb       sp!, {r12, lr}
  00258	e24dd01c	 sub         sp, sp, #0x1C
  0025c		 |$M37880|

; 256  :     DWORD code;
; 257  :     DWORD dwTimeout;
; 258  : 
; 259  :     UNREFERENCED_PARAMETER(pvParam);
; 260  : 
; 261  :     // set thread priority to lowest to prevent possible thread inversion
; 262  :     CeSetThreadPriority(s_SmartReflexLoadPolicyInfo.hSmartReflexSensingThread, 255);

  0025c	e3a010ff	 mov         r1, #0xFF
  00260	e59f31f8	 ldr         r3, [pc, #0x1F8]
  00264	e5930028	 ldr         r0, [r3, #0x28]
  00268	eb000000	 bl          CeSetThreadPriority

; 263  : 
; 264  :     // events
; 265  :     // -----------------
; 266  :     //
; 267  :     // abort - when currently not in OPM0 or
; 268  :     //         a device is active which causes smartreflex to be enabled
; 269  :     //
; 270  :     // signal - currently at opm 0 and
; 271  :     //          no device active to trigger smartreflex
; 272  :     //
; 273  :     // timeout - wait time expired
; 274  :     //
; 275  : 
; 276  :     // states
; 277  :     //--------
; 278  :     //
; 279  :     // Inactive - not waiting to calibrate or
; 280  :     //            not currently calibrating
; 281  :     //
; 282  :     // Waiting  - currently waiting to calibrate
; 283  :     //
; 284  :     // Sensing  - currently calibrating
; 285  :     //
; 286  : 
; 287  :     // current state   |       abort       |       signal       |       timeout     |
; 288  :     //--------------------------------------------------------------------------------
; 289  :     //
; 290  :     // Inactive               Inactive             Waiting              Inactive
; 291  :     //
; 292  :     // Waiting                Inactive             Waiting              Sensing
; 293  :     //
; 294  :     // Sensing                Inactive             Waiting              Inactive
; 295  :     //
; 296  : 
; 297  :     dwTimeout = INFINITE;

  0026c	e3e03000	 mvn         r3, #0
  00270	e58d3004	 str         r3, [sp, #4]
  00274		 |$LN24@SmartRefle|

; 298  :     for(;;)
; 299  :         {
; 300  :         code = WaitForSingleObject(s_SmartReflexLoadPolicyInfo.hSmartReflexSensingEvent, dwTimeout);

  00274	e59d1004	 ldr         r1, [sp, #4]
  00278	e59f31e0	 ldr         r3, [pc, #0x1E0]
  0027c	e5930024	 ldr         r0, [r3, #0x24]
  00280	eb000000	 bl          WaitForSingleObject
  00284	e58d000c	 str         r0, [sp, #0xC]
  00288	e59d300c	 ldr         r3, [sp, #0xC]
  0028c	e58d3000	 str         r3, [sp]

; 301  : 
; 302  :         // check for exit thread
; 303  :         if (s_SmartReflexLoadPolicyInfo.bExitThread == TRUE) goto cleanUp;

  00290	e59f31c8	 ldr         r3, [pc, #0x1C8]
  00294	e5933018	 ldr         r3, [r3, #0x18]
  00298	e3530001	 cmp         r3, #1
  0029c	1a000001	 bne         |$LN22@SmartRefle|
  002a0	ea000068	 b           |$LN21@SmartRefle|
  002a4	ea000067	 b           |$cleanUp$37612|
  002a8		 |$LN22@SmartRefle|

; 304  : 
; 305  :         // identify event
; 306  :         if (s_currentOpm != kOpm0 || s_SmartReflexLoadPolicyInfo.dwActiveDevices != 0)

  002a8	e59f31b4	 ldr         r3, [pc, #0x1B4]
  002ac	e5933000	 ldr         r3, [r3]
  002b0	e3530000	 cmp         r3, #0
  002b4	1a000003	 bne         |$LN19@SmartRefle|
  002b8	e59f31a0	 ldr         r3, [pc, #0x1A0]
  002bc	e5933000	 ldr         r3, [r3]
  002c0	e3530000	 cmp         r3, #0
  002c4	0a000015	 beq         |$LN20@SmartRefle|
  002c8		 |$LN19@SmartRefle|

; 307  :             {
; 308  :             // Event: abort
; 309  :             dwTimeout = INFINITE;

  002c8	e3e03000	 mvn         r3, #0
  002cc	e58d3004	 str         r3, [sp, #4]

; 310  :             switch (s_SmartReflexLoadPolicyInfo.nSensingState)

  002d0	e59f3188	 ldr         r3, [pc, #0x188]
  002d4	e5933014	 ldr         r3, [r3, #0x14]
  002d8	e58d3010	 str         r3, [sp, #0x10]
  002dc	e59d3010	 ldr         r3, [sp, #0x10]
  002e0	e3530001	 cmp         r3, #1
  002e4	0a000004	 beq         |$LN15@SmartRefle|
  002e8	e59d3010	 ldr         r3, [sp, #0x10]
  002ec	e3530002	 cmp         r3, #2
  002f0	0a000005	 beq         |$LN14@SmartRefle|
  002f4	ea000008	 b           |$LN17@SmartRefle|

; 311  :                 {
; 312  :                 case STATE_INACTIVE:
; 313  :                     break;

  002f8	ea000007	 b           |$LN17@SmartRefle|
  002fc		 |$LN15@SmartRefle|

; 314  : 
; 315  :                 case STATE_WAITING:
; 316  :                     s_SmartReflexLoadPolicyInfo.nSensingState = STATE_INACTIVE;

  002fc	e59f215c	 ldr         r2, [pc, #0x15C]
  00300	e3a03000	 mov         r3, #0
  00304	e5823014	 str         r3, [r2, #0x14]

; 317  :                     break;

  00308	ea000003	 b           |$LN17@SmartRefle|
  0030c		 |$LN14@SmartRefle|

; 318  : 
; 319  :                 case STATE_SENSING:
; 320  :                     // check if smartreflex should be disabled
; 321  :                     s_SmartReflexLoadPolicyInfo.nSensingState = STATE_INACTIVE;

  0030c	e59f214c	 ldr         r2, [pc, #0x14C]
  00310	e3a03000	 mov         r3, #0
  00314	e5823014	 str         r3, [r2, #0x14]

; 322  :                     UpdateSmartReflex();

  00318	eb000000	 bl          |?UpdateSmartReflex@@YAXXZ|
  0031c		 |$LN17@SmartRefle|

; 323  :                     break;
; 324  :                 }
; 325  :             }
; 326  :         else if (code == WAIT_OBJECT_0)

  0031c	ea000048	 b           |$LN13@SmartRefle|
  00320		 |$LN20@SmartRefle|
  00320	e59d3000	 ldr         r3, [sp]
  00324	e3530000	 cmp         r3, #0
  00328	1a000022	 bne         |$LN12@SmartRefle|

; 327  :             {
; 328  :             // Event: signal
; 329  :             switch (s_SmartReflexLoadPolicyInfo.nSensingState)

  0032c	e59f312c	 ldr         r3, [pc, #0x12C]
  00330	e5933014	 ldr         r3, [r3, #0x14]
  00334	e58d3014	 str         r3, [sp, #0x14]
  00338	e59d3014	 ldr         r3, [sp, #0x14]
  0033c	e3530000	 cmp         r3, #0
  00340	0a000006	 beq         |$LN9@SmartRefle|
  00344	e59d3014	 ldr         r3, [sp, #0x14]
  00348	e3530001	 cmp         r3, #1
  0034c	0a00000a	 beq         |$LN8@SmartRefle|
  00350	e59d3014	 ldr         r3, [sp, #0x14]
  00354	e3530002	 cmp         r3, #2
  00358	0a00000e	 beq         |$LN7@SmartRefle|
  0035c	ea000014	 b           |$LN10@SmartRefle|
  00360		 |$LN9@SmartRefle|

; 330  :                 {
; 331  :                 case STATE_INACTIVE:
; 332  :                     dwTimeout = s_SmartReflexLoadPolicyInfo.dwSensingDelay;

  00360	e59f30f8	 ldr         r3, [pc, #0xF8]
  00364	e5933008	 ldr         r3, [r3, #8]
  00368	e58d3004	 str         r3, [sp, #4]

; 333  :                     s_SmartReflexLoadPolicyInfo.nSensingState = STATE_WAITING;

  0036c	e59f20ec	 ldr         r2, [pc, #0xEC]
  00370	e3a03001	 mov         r3, #1
  00374	e5823014	 str         r3, [r2, #0x14]

; 334  :                     break;

  00378	ea00000d	 b           |$LN10@SmartRefle|
  0037c		 |$LN8@SmartRefle|

; 335  : 
; 336  :                 case STATE_WAITING:
; 337  :                     dwTimeout = s_SmartReflexLoadPolicyInfo.dwSensingDelay;

  0037c	e59f30dc	 ldr         r3, [pc, #0xDC]
  00380	e5933008	 ldr         r3, [r3, #8]
  00384	e58d3004	 str         r3, [sp, #4]

; 338  :                     s_SmartReflexLoadPolicyInfo.nSensingState = STATE_WAITING;

  00388	e59f20d0	 ldr         r2, [pc, #0xD0]
  0038c	e3a03001	 mov         r3, #1
  00390	e5823014	 str         r3, [r2, #0x14]

; 339  :                     break;

  00394	ea000006	 b           |$LN10@SmartRefle|
  00398		 |$LN7@SmartRefle|

; 340  : 
; 341  :                 case STATE_SENSING:
; 342  :                     dwTimeout = s_SmartReflexLoadPolicyInfo.dwSensingDelay;

  00398	e59f30c0	 ldr         r3, [pc, #0xC0]
  0039c	e5933008	 ldr         r3, [r3, #8]
  003a0	e58d3004	 str         r3, [sp, #4]

; 343  :                     s_SmartReflexLoadPolicyInfo.nSensingState = STATE_WAITING;

  003a4	e59f20b4	 ldr         r2, [pc, #0xB4]
  003a8	e3a03001	 mov         r3, #1
  003ac	e5823014	 str         r3, [r2, #0x14]

; 344  :                     UpdateSmartReflex();

  003b0	eb000000	 bl          |?UpdateSmartReflex@@YAXXZ|
  003b4		 |$LN10@SmartRefle|

; 345  :                     break;
; 346  :                 }
; 347  :             }
; 348  :         else

  003b4	ea000022	 b           |$LN6@SmartRefle|
  003b8		 |$LN12@SmartRefle|

; 349  :             {
; 350  :             // Event: timeout
; 351  :             switch (s_SmartReflexLoadPolicyInfo.nSensingState)

  003b8	e59f30a0	 ldr         r3, [pc, #0xA0]
  003bc	e5933014	 ldr         r3, [r3, #0x14]
  003c0	e58d3018	 str         r3, [sp, #0x18]
  003c4	e59d3018	 ldr         r3, [sp, #0x18]
  003c8	e3530000	 cmp         r3, #0
  003cc	0a000006	 beq         |$LN3@SmartRefle|
  003d0	e59d3018	 ldr         r3, [sp, #0x18]
  003d4	e3530001	 cmp         r3, #1
  003d8	0a000009	 beq         |$LN2@SmartRefle|
  003dc	e59d3018	 ldr         r3, [sp, #0x18]
  003e0	e3530002	 cmp         r3, #2
  003e4	0a00000e	 beq         |$LN1@SmartRefle|
  003e8	ea000015	 b           |$LN4@SmartRefle|
  003ec		 |$LN3@SmartRefle|

; 352  :                 {
; 353  :                 case STATE_INACTIVE:
; 354  :                     dwTimeout = INFINITE;

  003ec	e3e03000	 mvn         r3, #0
  003f0	e58d3004	 str         r3, [sp, #4]

; 355  :                     s_SmartReflexLoadPolicyInfo.nSensingState = STATE_INACTIVE;

  003f4	e59f2064	 ldr         r2, [pc, #0x64]
  003f8	e3a03000	 mov         r3, #0
  003fc	e5823014	 str         r3, [r2, #0x14]

; 356  :                     break;

  00400	ea00000f	 b           |$LN4@SmartRefle|
  00404		 |$LN2@SmartRefle|

; 357  : 
; 358  :                 case STATE_WAITING:
; 359  :                     dwTimeout = s_SmartReflexLoadPolicyInfo.dwSensingPeriod;

  00404	e59f3054	 ldr         r3, [pc, #0x54]
  00408	e5933004	 ldr         r3, [r3, #4]
  0040c	e58d3004	 str         r3, [sp, #4]

; 360  :                     s_SmartReflexLoadPolicyInfo.nSensingState = STATE_SENSING;

  00410	e59f2048	 ldr         r2, [pc, #0x48]
  00414	e3a03002	 mov         r3, #2
  00418	e5823014	 str         r3, [r2, #0x14]

; 361  :                     UpdateSmartReflex();

  0041c	eb000000	 bl          |?UpdateSmartReflex@@YAXXZ|

; 362  :                     break;

  00420	ea000007	 b           |$LN4@SmartRefle|
  00424		 |$LN1@SmartRefle|

; 363  : 
; 364  :                 case STATE_SENSING:
; 365  :                     dwTimeout = INFINITE;

  00424	e3e03000	 mvn         r3, #0
  00428	e58d3004	 str         r3, [sp, #4]

; 366  :                     s_SmartReflexLoadPolicyInfo.nSensingState = STATE_INACTIVE;

  0042c	e59f202c	 ldr         r2, [pc, #0x2C]
  00430	e3a03000	 mov         r3, #0
  00434	e5823014	 str         r3, [r2, #0x14]

; 367  :                     SaveCalibratedVoltages();

  00438	eb000000	 bl          |?SaveCalibratedVoltages@@YAXXZ|

; 368  :                     UpdateSmartReflex();

  0043c	eb000000	 bl          |?UpdateSmartReflex@@YAXXZ|

; 369  :                     FlushCalibratedVoltages();

  00440	eb000000	 bl          |?FlushCalibratedVoltages@@YAXXZ|
  00444		 |$LN4@SmartRefle|
  00444		 |$LN6@SmartRefle|
  00444		 |$LN13@SmartRefle|

; 370  :                     break;
; 371  :                 }
; 372  :             }

  00444	eaffff8a	 b           |$LN24@SmartRefle|
  00448		 |$LN21@SmartRefle|
  00448		 |$cleanUp$37612|

; 373  :         }
; 374  : 
; 375  : cleanUp:
; 376  :     return 0;

  00448	e3a03000	 mov         r3, #0
  0044c	e58d3008	 str         r3, [sp, #8]

; 377  : }

  00450	e59d0008	 ldr         r0, [sp, #8]
  00454	e28dd01c	 add         sp, sp, #0x1C
  00458	e89d6000	 ldmia       sp, {sp, lr}
  0045c	e12fff1e	 bx          lr
  00460		 |$LN30@SmartRefle|
  00460		 |$LN31@SmartRefle|
  00460	00000000	 DCD         |s_SmartReflexLoadPolicyInfo|
  00464		 |$LN32@SmartRefle|
  00464	00000000	 DCD         |s_currentOpm|
  00468		 |$M37881|

			 ENDP  ; |?SmartReflexSensingThread@@YAKPAX@Z|, SmartReflexSensingThread

	EXPORT	|SetEvent|
	EXPORT	|?SignalSensingThread@@YAXXZ|		; SignalSensingThread

  00030			 AREA	 |.pdata|, PDATA
|$T37891| DCD	|$LN8@SignalSens|
	DCD	0x40001401
; Function compile flags: /Odtp

  00468			 AREA	 |.text|, CODE, ARM

  00468		 |?SignalSensingThread@@YAXXZ| PROC	; SignalSensingThread

; 388  : {

  00468		 |$LN8@SignalSens|
  00468	e52de004	 str         lr, [sp, #-4]!
  0046c		 |$M37888|

; 389  :     if ((s_currentOpm == kOpm0 && s_SmartReflexLoadPolicyInfo.dwActiveDevices == 0) ||
; 390  :         s_SmartReflexLoadPolicyInfo.nSensingState != STATE_INACTIVE)

  0046c	e59f3040	 ldr         r3, [pc, #0x40]
  00470	e5933000	 ldr         r3, [r3]
  00474	e3530000	 cmp         r3, #0
  00478	1a000003	 bne         |$LN1@SignalSens|
  0047c	e59f302c	 ldr         r3, [pc, #0x2C]
  00480	e5933000	 ldr         r3, [r3]
  00484	e3530000	 cmp         r3, #0
  00488	0a000003	 beq         |$LN2@SignalSens|
  0048c		 |$LN1@SignalSens|
  0048c	e59f301c	 ldr         r3, [pc, #0x1C]
  00490	e5933014	 ldr         r3, [r3, #0x14]
  00494	e3530000	 cmp         r3, #0
  00498	0a000002	 beq         |$LN3@SignalSens|
  0049c		 |$LN2@SignalSens|

; 391  :         {
; 392  :         SetEvent(s_SmartReflexLoadPolicyInfo.hSmartReflexSensingEvent);

  0049c	e59f300c	 ldr         r3, [pc, #0xC]
  004a0	e5930024	 ldr         r0, [r3, #0x24]
  004a4	eb000000	 bl          SetEvent
  004a8		 |$LN3@SignalSens|

; 393  :         }
; 394  : }

  004a8	e49de004	 ldr         lr, [sp], #4
  004ac	e12fff1e	 bx          lr
  004b0		 |$LN9@SignalSens|
  004b0		 |$LN10@SignalSens|
  004b0	00000000	 DCD         |s_SmartReflexLoadPolicyInfo|
  004b4		 |$LN11@SignalSens|
  004b4	00000000	 DCD         |s_currentOpm|
  004b8		 |$M37889|

			 ENDP  ; |?SignalSensingThread@@YAXXZ|, SignalSensingThread

	IMPORT	|EventModify|
; File c:\wince600\public\common\sdk\inc\kfuncs.h

  00000			 AREA	 |.pdata|, PDATA
|$T37900| DCD	|$LN5@SetEvent|
	DCD	0x40000e04
; Function compile flags: /Odtp

  00000			 AREA	 |.text|, CODE, ARM

  00000		 |SetEvent| PROC

; 235  : _inline BOOL SetEvent(HANDLE h) {

  00000		 |$LN5@SetEvent|
  00000	e1a0c00d	 mov         r12, sp
  00004	e92d0001	 stmdb       sp!, {r0}
  00008	e92d5000	 stmdb       sp!, {r12, lr}
  0000c	e24dd008	 sub         sp, sp, #8
  00010		 |$M37897|

; 236  : 	return EventModify(h,EVENT_SET);

  00010	e3a01003	 mov         r1, #3
  00014	e59d0010	 ldr         r0, [sp, #0x10]
  00018	eb000000	 bl          EventModify
  0001c	e58d0004	 str         r0, [sp, #4]
  00020	e59d3004	 ldr         r3, [sp, #4]
  00024	e58d3000	 str         r3, [sp]

; 237  : }

  00028	e59d0000	 ldr         r0, [sp]
  0002c	e28dd008	 add         sp, sp, #8
  00030	e89d6000	 ldmia       sp, {sp, lr}
  00034	e12fff1e	 bx          lr
  00038		 |$M37898|

			 ENDP  ; |SetEvent|

	EXPORT	|?DvfsConstraintCallback@@YAHPAXK0I@Z|	; DvfsConstraintCallback

  00038			 AREA	 |.pdata|, PDATA
|$T37908| DCD	|$LN6@DvfsConstr|
	DCD	0x40001404
; Function compile flags: /Odtp
; File c:\wince600\platform\common\src\soc\common_ti_v1\omap3530\pm\policyadapters\smartreflex\smartreflexpolicy.cpp

  004b8			 AREA	 |.text|, CODE, ARM

  004b8		 |?DvfsConstraintCallback@@YAHPAXK0I@Z| PROC ; DvfsConstraintCallback

; 408  : {

  004b8		 |$LN6@DvfsConstr|
  004b8	e1a0c00d	 mov         r12, sp
  004bc	e92d000f	 stmdb       sp!, {r0 - r3}
  004c0	e92d5000	 stmdb       sp!, {r12, lr}
  004c4	e24dd004	 sub         sp, sp, #4
  004c8		 |$M37905|

; 409  :     UNREFERENCED_PARAMETER(size);
; 410  :     UNREFERENCED_PARAMETER(hRefContext);
; 411  : 
; 412  :     if (msg == CONSTRAINT_MSG_DVFS_NEWOPM)

  004c8	e59d2010	 ldr         r2, [sp, #0x10]
  004cc	e3a03801	 mov         r3, #1, 16
  004d0	e3833001	 orr         r3, r3, #1
  004d4	e1520003	 cmp         r2, r3
  004d8	1a000003	 bne         |$LN1@DvfsConstr|

; 413  :         {
; 414  :         s_currentOpm = (DWORD)pParam;

  004dc	e59d2014	 ldr         r2, [sp, #0x14]
  004e0	e59f301c	 ldr         r3, [pc, #0x1C]
  004e4	e5832000	 str         r2, [r3]

; 415  :         // When OPM changes check if smartreflex sensing is active
; 416  :         // if it is then abort activity
; 417  :         SignalSensingThread();

  004e8	eb000000	 bl          |?SignalSensingThread@@YAXXZ|
  004ec		 |$LN1@DvfsConstr|

; 418  :         }
; 419  : 
; 420  :     return TRUE;

  004ec	e3a03001	 mov         r3, #1
  004f0	e58d3000	 str         r3, [sp]

; 421  : }

  004f4	e59d0000	 ldr         r0, [sp]
  004f8	e28dd004	 add         sp, sp, #4
  004fc	e89d6000	 ldmia       sp, {sp, lr}
  00500	e12fff1e	 bx          lr
  00504		 |$LN7@DvfsConstr|
  00504		 |$LN8@DvfsConstr|
  00504	00000000	 DCD         |s_currentOpm|
  00508		 |$M37906|

			 ENDP  ; |?DvfsConstraintCallback@@YAHPAXK0I@Z|, DvfsConstraintCallback

	EXPORT	|??_C@_1DI@KFGABDLO@?$AA?9?$AAS?$AAM?$AAA?$AAR?$AAT?$AAR?$AAE?$AAF?$AAL?$AAE?$AAX?$AA_?$AAI?$AAn?$AAi?$AAt?$AAP?$AAo?$AAl?$AAi?$AAc?$AAy?$AA?$CI?$AA?$CJ?$AA?$AN?$AA?6?$AA?$AA@| [ DATA ] ; `string'
	EXPORT	|??_C@_19BINEIDCP@?$AAD?$AAV?$AAF?$AAS?$AA?$AA@| [ DATA ] ; `string'
	EXPORT	|??_C@_1KC@KJEOONBL@?$AAS?$AAM?$AAA?$AAR?$AAT?$AAR?$AAE?$AAF?$AAL?$AAE?$AAX?$AA_?$AAI?$AAn?$AAi?$AAt?$AAP?$AAo?$AAl?$AAi?$AAc?$AAy?$AA?3?$AA?5?$AAI?$AAn?$AAv?$AAa?$AAl?$AAi?$AAd?$AA?1@| [ DATA ] ; `string'
	EXPORT	|??_C@_1EE@JFKJFJLC@?$AA?$CL?$AAS?$AAM?$AAA?$AAR?$AAT?$AAR?$AAE?$AAF?$AAL?$AAE?$AAX?$AA_?$AAI?$AAn?$AAi?$AAt?$AAP?$AAo?$AAl?$AAi?$AAc?$AAy?$AA?$CI?$AA0?$AAx?$AA?$CF?$AA0?$AA8?$AAx?$AA?$CJ?$AA?$AN@| [ DATA ] ; `string'
	EXPORT	|?SMARTREFLEX_InitPolicy@@YAPAXPBG@Z|	; SMARTREFLEX_InitPolicy
	IMPORT	|MmMapIoSpace|
	IMPORT	|PmxRegisterConstraintCallback|
	IMPORT	|PmxSetConstraintById|
	IMPORT	|CreateThread|
	IMPORT	|CreateEventW|
	IMPORT	|GetDeviceRegistryParams|
	IMPORT	|memset|

  00040			 AREA	 |.pdata|, PDATA
|$T37925| DCD	|$LN12@SMARTREFLE|
	DCD	0x40009504

  00000			 AREA	 |.rdata|, DATA, READONLY
|??_C@_1DI@KFGABDLO@?$AA?9?$AAS?$AAM?$AAA?$AAR?$AAT?$AAR?$AAE?$AAF?$AAL?$AAE?$AAX?$AA_?$AAI?$AAn?$AAi?$AAt?$AAP?$AAo?$AAl?$AAi?$AAc?$AAy?$AA?$CI?$AA?$CJ?$AA?$AN?$AA?6?$AA?$AA@| DCB "-"
	DCB	0x0, "S", 0x0, "M", 0x0, "A", 0x0, "R", 0x0, "T", 0x0, "R"
	DCB	0x0, "E", 0x0, "F", 0x0, "L", 0x0, "E", 0x0, "X", 0x0, "_"
	DCB	0x0, "I", 0x0, "n", 0x0, "i", 0x0, "t", 0x0, "P", 0x0, "o"
	DCB	0x0, "l", 0x0, "i", 0x0, "c", 0x0, "y", 0x0, "(", 0x0, ")"
	DCB	0x0, 0xd, 0x0, 0xa, 0x0, 0x0, 0x0	; `string'

  00000			 AREA	 |.rdata|, DATA, READONLY
|??_C@_19BINEIDCP@?$AAD?$AAV?$AAF?$AAS?$AA?$AA@| DCB "D", 0x0, "V", 0x0, "F"
	DCB	0x0, "S", 0x0, 0x0, 0x0			; `string'

  00000			 AREA	 |.rdata|, DATA, READONLY
|??_C@_1KC@KJEOONBL@?$AAS?$AAM?$AAA?$AAR?$AAT?$AAR?$AAE?$AAF?$AAL?$AAE?$AAX?$AA_?$AAI?$AAn?$AAi?$AAt?$AAP?$AAo?$AAl?$AAi?$AAc?$AAy?$AA?3?$AA?5?$AAI?$AAn?$AAv?$AAa?$AAl?$AAi?$AAd?$AA?1@| DCB "S"
	DCB	0x0, "M", 0x0, "A", 0x0, "R", 0x0, "T", 0x0, "R", 0x0, "E"
	DCB	0x0, "F", 0x0, "L", 0x0, "E", 0x0, "X", 0x0, "_", 0x0, "I"
	DCB	0x0, "n", 0x0, "i", 0x0, "t", 0x0, "P", 0x0, "o", 0x0, "l"
	DCB	0x0, "i", 0x0, "c", 0x0, "y", 0x0, ":", 0x0, " ", 0x0, "I"
	DCB	0x0, "n", 0x0, "v", 0x0, "a", 0x0, "l", 0x0, "i", 0x0, "d"
	DCB	0x0, "/", 0x0, "M", 0x0, "i", 0x0, "s", 0x0, "s", 0x0, "i"
	DCB	0x0, "n", 0x0, "g", 0x0, " ", 0x0, "r", 0x0, "e", 0x0, "g"
	DCB	0x0, "i", 0x0, "s", 0x0, "t", 0x0, "r", 0x0, "y", 0x0, " "
	DCB	0x0, "p", 0x0, "a", 0x0, "r", 0x0, "a", 0x0, "m", 0x0, "e"
	DCB	0x0, "t", 0x0, "e", 0x0, "r", 0x0, "s", 0x0, ".", 0x0, " "
	DCB	0x0, " ", 0x0, "U", 0x0, "n", 0x0, "l", 0x0, "o", 0x0, "a"
	DCB	0x0, "d", 0x0, "i", 0x0, "n", 0x0, "g", 0x0, " ", 0x0, "p"
	DCB	0x0, "o", 0x0, "l", 0x0, "i", 0x0, "c", 0x0, "y", 0x0, 0xd
	DCB	0x0, 0xa, 0x0, 0x0, 0x0			; `string'

  00000			 AREA	 |.rdata|, DATA, READONLY
|??_C@_1EE@JFKJFJLC@?$AA?$CL?$AAS?$AAM?$AAA?$AAR?$AAT?$AAR?$AAE?$AAF?$AAL?$AAE?$AAX?$AA_?$AAI?$AAn?$AAi?$AAt?$AAP?$AAo?$AAl?$AAi?$AAc?$AAy?$AA?$CI?$AA0?$AAx?$AA?$CF?$AA0?$AA8?$AAx?$AA?$CJ?$AA?$AN@| DCB "+"
	DCB	0x0, "S", 0x0, "M", 0x0, "A", 0x0, "R", 0x0, "T", 0x0, "R"
	DCB	0x0, "E", 0x0, "F", 0x0, "L", 0x0, "E", 0x0, "X", 0x0, "_"
	DCB	0x0, "I", 0x0, "n", 0x0, "i", 0x0, "t", 0x0, "P", 0x0, "o"
	DCB	0x0, "l", 0x0, "i", 0x0, "c", 0x0, "y", 0x0, "(", 0x0, "0"
	DCB	0x0, "x", 0x0, "%", 0x0, "0", 0x0, "8", 0x0, "x", 0x0, ")"
	DCB	0x0, 0xd, 0x0, 0xa, 0x0, 0x0, 0x0	; `string'
; Function compile flags: /Odtp

  00508			 AREA	 |.text|, CODE, ARM

  00508		 |?SMARTREFLEX_InitPolicy@@YAPAXPBG@Z| PROC ; SMARTREFLEX_InitPolicy

; 434  : {

  00508		 |$LN12@SMARTREFLE|
  00508	e1a0c00d	 mov         r12, sp
  0050c	e92d0001	 stmdb       sp!, {r0}
  00510	e92d5000	 stmdb       sp!, {r12, lr}
  00514	e24dd04c	 sub         sp, sp, #0x4C
  00518		 |$M37922|

; 435  :     RETAILMSG(ZONE_FUNCTION, (
; 436  :       L"+SMARTREFLEX_InitPolicy(0x%08x)\r\n",
; 437  :       szContext
; 438  :       ));

  00518	e59f3214	 ldr         r3, [pc, #0x214]
  0051c	e5933440	 ldr         r3, [r3, #0x440]
  00520	e3130004	 tst         r3, #4
  00524	0a000005	 beq         |$LN4@SMARTREFLE|
  00528	e59d1054	 ldr         r1, [sp, #0x54]
  0052c	e59f0224	 ldr         r0, [pc, #0x224]
  00530	eb000000	 bl          NKDbgPrintfW
  00534	e3a03001	 mov         r3, #1
  00538	e58d3024	 str         r3, [sp, #0x24]
  0053c	ea000001	 b           |$LN5@SMARTREFLE|
  00540		 |$LN4@SMARTREFLE|
  00540	e3a03000	 mov         r3, #0
  00544	e58d3024	 str         r3, [sp, #0x24]
  00548		 |$LN5@SMARTREFLE|

; 439  : 
; 440  :     PHYSICAL_ADDRESS PhysAddr;
; 441  :     DWORD dwInitOpm = CONSTRAINT_STATE_NULL;

  00548	e3e03cff	 mvn         r3, #0xFF, 24
  0054c	e22330ff	 eor         r3, r3, #0xFF
  00550	e58d3010	 str         r3, [sp, #0x10]

; 442  : 
; 443  :     // initializt global structure
; 444  :     memset(&s_SmartReflexLoadPolicyInfo, 0, sizeof(SmartReflexPolicyInfo_t));

  00554	e3a02034	 mov         r2, #0x34
  00558	e3a01000	 mov         r1, #0
  0055c	e59f01c8	 ldr         r0, [pc, #0x1C8]
  00560	eb000000	 bl          memset

; 445  :     s_SmartReflexLoadPolicyInfo.dwActiveDevices = 0x1; //because LPR starts disabled

  00564	e59f21c0	 ldr         r2, [pc, #0x1C0]
  00568	e3a03001	 mov         r3, #1
  0056c	e5823000	 str         r3, [r2]

; 446  :     s_SmartReflexLoadPolicyInfo.bSmartReflexState = FALSE;

  00570	e59f21b4	 ldr         r2, [pc, #0x1B4]
  00574	e3a03000	 mov         r3, #0
  00578	e5823010	 str         r3, [r2, #0x10]

; 447  :     s_SmartReflexLoadPolicyInfo.nSensingState = STATE_INACTIVE;

  0057c	e59f21a8	 ldr         r2, [pc, #0x1A8]
  00580	e3a03000	 mov         r3, #0
  00584	e5823014	 str         r3, [r2, #0x14]

; 448  :     s_SmartReflexLoadPolicyInfo.bLprModeState = FALSE;

  00588	e59f219c	 ldr         r2, [pc, #0x19C]
  0058c	e3a03000	 mov         r3, #0
  00590	e582302c	 str         r3, [r2, #0x2C]

; 449  : 
; 450  :     // Read policy registry params
; 451  :     if (GetDeviceRegistryParams(
; 452  :         szContext, &s_SmartReflexLoadPolicyInfo, dimof(g_policyRegParams),
; 453  :         g_policyRegParams) != ERROR_SUCCESS)

  00594	e59f31b8	 ldr         r3, [pc, #0x1B8]
  00598	e3a02003	 mov         r2, #3
  0059c	e59f1188	 ldr         r1, [pc, #0x188]
  005a0	e59d0054	 ldr         r0, [sp, #0x54]
  005a4	eb000000	 bl          GetDeviceRegistryParams
  005a8	e58d0028	 str         r0, [sp, #0x28]
  005ac	e59d3028	 ldr         r3, [sp, #0x28]
  005b0	e3530000	 cmp         r3, #0
  005b4	0a000006	 beq         |$LN1@SMARTREFLE|

; 454  :         {
; 455  :         RETAILMSG(ZONE_ERROR, (L"SMARTREFLEX_InitPolicy: Invalid/Missing "
; 456  :             L"registry parameters.  Unloading policy\r\n")
; 457  :             );

  005b8	e59f0190	 ldr         r0, [pc, #0x190]
  005bc	eb000000	 bl          NKDbgPrintfW
  005c0	e3a03001	 mov         r3, #1
  005c4	e58d302c	 str         r3, [sp, #0x2C]
  005c8	ea000001	 b           |$LN7@SMARTREFLE|
  005cc	e3a03000	 mov         r3, #0
  005d0	e58d302c	 str         r3, [sp, #0x2C]
  005d4		 |$LN7@SMARTREFLE|
  005d4		 |$LN1@SMARTREFLE|

; 458  :         }
; 459  : 
; 460  :     //create DVFS change notification event
; 461  :     s_SmartReflexLoadPolicyInfo.hSmartReflexSensingEvent = CreateEvent(
; 462  :                                                                NULL,
; 463  :                                                                FALSE,
; 464  :                                                                FALSE,
; 465  :                                                                NULL
; 466  :                                                                );

  005d4	e3a03000	 mov         r3, #0
  005d8	e3a02000	 mov         r2, #0
  005dc	e3a01000	 mov         r1, #0
  005e0	e3a00000	 mov         r0, #0
  005e4	eb000000	 bl          CreateEventW
  005e8	e58d0030	 str         r0, [sp, #0x30]
  005ec	e59d2030	 ldr         r2, [sp, #0x30]
  005f0	e59f3134	 ldr         r3, [pc, #0x134]
  005f4	e5832024	 str         r2, [r3, #0x24]

; 467  : 
; 468  :     //start retention optimization thread
; 469  :     s_SmartReflexLoadPolicyInfo.hSmartReflexSensingThread = CreateThread(
; 470  :                                                                    NULL,
; 471  :                                                                    0,
; 472  :                                                                    SmartReflexSensingThread,
; 473  :                                                                    NULL,
; 474  :                                                                    0,
; 475  :                                                                    NULL
; 476  :                                                                    );

  005f8	e3a03000	 mov         r3, #0
  005fc	e58d3004	 str         r3, [sp, #4]
  00600	e3a03000	 mov         r3, #0
  00604	e58d3000	 str         r3, [sp]
  00608	e3a03000	 mov         r3, #0
  0060c	e59f2138	 ldr         r2, [pc, #0x138]
  00610	e3a01000	 mov         r1, #0
  00614	e3a00000	 mov         r0, #0
  00618	eb000000	 bl          CreateThread
  0061c	e58d0034	 str         r0, [sp, #0x34]
  00620	e59d2034	 ldr         r2, [sp, #0x34]
  00624	e59f3100	 ldr         r3, [pc, #0x100]
  00628	e5832028	 str         r2, [r3, #0x28]

; 477  : 
; 478  :     // Obtain DVFS constraint handler
; 479  :     s_SmartReflexLoadPolicyInfo.hDvfsConstraint = PmxSetConstraintById(
; 480  :                                     CONSTRAINT_ID_DVFS,
; 481  :                                     CONSTRAINT_MSG_DVFS_REQUEST,
; 482  :                                     (void*)&dwInitOpm,
; 483  :                                     sizeof(DWORD)
; 484  :                                     );

  0062c	e3a03004	 mov         r3, #4
  00630	e28d2010	 add         r2, sp, #0x10
  00634	e3a01001	 mov         r1, #1
  00638	e59f0108	 ldr         r0, [pc, #0x108]
  0063c	eb000000	 bl          PmxSetConstraintById
  00640	e58d0038	 str         r0, [sp, #0x38]
  00644	e59d2038	 ldr         r2, [sp, #0x38]
  00648	e59f30dc	 ldr         r3, [pc, #0xDC]
  0064c	e583201c	 str         r2, [r3, #0x1C]

; 485  : 
; 486  :     // register for DVFS change notifications
; 487  :     s_SmartReflexLoadPolicyInfo.hDvfsCallback = PmxRegisterConstraintCallback(
; 488  :                                         s_SmartReflexLoadPolicyInfo.hDvfsConstraint,
; 489  :                                         DvfsConstraintCallback,
; 490  :                                         NULL,
; 491  :                                         0,
; 492  :                                         (HANDLE)&s_SmartReflexLoadPolicyInfo
; 493  :                                         );

  00650	e59f30d4	 ldr         r3, [pc, #0xD4]
  00654	e58d3000	 str         r3, [sp]
  00658	e3a03000	 mov         r3, #0
  0065c	e3a02000	 mov         r2, #0
  00660	e59f10dc	 ldr         r1, [pc, #0xDC]
  00664	e59f00c0	 ldr         r0, [pc, #0xC0]
  00668	e590001c	 ldr         r0, [r0, #0x1C]
  0066c	eb000000	 bl          PmxRegisterConstraintCallback
  00670	e58d003c	 str         r0, [sp, #0x3C]
  00674	e59d203c	 ldr         r2, [sp, #0x3C]
  00678	e59f30ac	 ldr         r3, [pc, #0xAC]
  0067c	e5832020	 str         r2, [r3, #0x20]

; 494  : 
; 495  :     //map vdd1 voltage register to virtual memory
; 496  :     PhysAddr.QuadPart = PRM_VP1_VOLTAGE;

  00680	e59f30b8	 ldr         r3, [pc, #0xB8]
  00684	e58d3008	 str         r3, [sp, #8]
  00688	e3a03000	 mov         r3, #0
  0068c	e58d300c	 str         r3, [sp, #0xC]

; 497  :     s_VddOptimizationInfo[0].pPrcmRegistryAddress = MmMapIoSpace(
; 498  :                                                         PhysAddr,
; 499  :                                                         sizeof(UINT32),
; 500  :                                                         FALSE
; 501  :                                                         );

  00690	e3a03000	 mov         r3, #0
  00694	e3a02004	 mov         r2, #4
  00698	e59d0008	 ldr         r0, [sp, #8]
  0069c	e59d100c	 ldr         r1, [sp, #0xC]
  006a0	eb000000	 bl          MmMapIoSpace
  006a4	e58d0040	 str         r0, [sp, #0x40]
  006a8	e59d2040	 ldr         r2, [sp, #0x40]
  006ac	e59f3084	 ldr         r3, [pc, #0x84]
  006b0	e5832000	 str         r2, [r3]

; 502  : 
; 503  :     //map vdd2 voltage register to virtual memory
; 504  :     PhysAddr.QuadPart = PRM_VP2_VOLTAGE;

  006b4	e59f3080	 ldr         r3, [pc, #0x80]
  006b8	e58d3008	 str         r3, [sp, #8]
  006bc	e3a03000	 mov         r3, #0
  006c0	e58d300c	 str         r3, [sp, #0xC]

; 505  :     s_VddOptimizationInfo[1].pPrcmRegistryAddress = MmMapIoSpace(
; 506  :                                                         PhysAddr,
; 507  :                                                         sizeof(UINT32),
; 508  :                                                         FALSE
; 509  :                                                         );

  006c4	e3a03000	 mov         r3, #0
  006c8	e3a02004	 mov         r2, #4
  006cc	e59d0008	 ldr         r0, [sp, #8]
  006d0	e59d100c	 ldr         r1, [sp, #0xC]
  006d4	eb000000	 bl          MmMapIoSpace
  006d8	e58d0044	 str         r0, [sp, #0x44]
  006dc	e59d2044	 ldr         r2, [sp, #0x44]
  006e0	e59f3050	 ldr         r3, [pc, #0x50]
  006e4	e5832008	 str         r2, [r3, #8]

; 510  : 
; 511  : 
; 512  :     RETAILMSG(ZONE_FUNCTION, (L"-SMARTREFLEX_InitPolicy()\r\n"));

  006e8	e59f3044	 ldr         r3, [pc, #0x44]
  006ec	e5933440	 ldr         r3, [r3, #0x440]
  006f0	e3130004	 tst         r3, #4
  006f4	0a000004	 beq         |$LN8@SMARTREFLE|
  006f8	e59f0030	 ldr         r0, [pc, #0x30]
  006fc	eb000000	 bl          NKDbgPrintfW
  00700	e3a03001	 mov         r3, #1
  00704	e58d3048	 str         r3, [sp, #0x48]
  00708	ea000001	 b           |$LN9@SMARTREFLE|
  0070c		 |$LN8@SMARTREFLE|
  0070c	e3a03000	 mov         r3, #0
  00710	e58d3048	 str         r3, [sp, #0x48]
  00714		 |$LN9@SMARTREFLE|

; 513  :     return (HANDLE)&s_SmartReflexLoadPolicyInfo;

  00714	e59f3010	 ldr         r3, [pc, #0x10]
  00718	e58d3020	 str         r3, [sp, #0x20]

; 514  : }

  0071c	e59d0020	 ldr         r0, [sp, #0x20]
  00720	e28dd04c	 add         sp, sp, #0x4C
  00724	e89d6000	 ldmia       sp, {sp, lr}
  00728	e12fff1e	 bx          lr
  0072c		 |$LN13@SMARTREFLE|
  0072c		 |$LN14@SMARTREFLE|
  0072c	00000000	 DCD         |s_SmartReflexLoadPolicyInfo|
  00730		 |$LN15@SMARTREFLE|
  00730	00000000	 DCD         |??_C@_1DI@KFGABDLO@?$AA?9?$AAS?$AAM?$AAA?$AAR?$AAT?$AAR?$AAE?$AAF?$AAL?$AAE?$AAX?$AA_?$AAI?$AAn?$AAi?$AAt?$AAP?$AAo?$AAl?$AAi?$AAc?$AAy?$AA?$CI?$AA?$CJ?$AA?$AN?$AA?6?$AA?$AA@|
  00734		 |$LN16@SMARTREFLE|
  00734	00000000	 DCD         |dpCurSettings|
  00738		 |$LN17@SMARTREFLE|
  00738	00000000	 DCD         |s_VddOptimizationInfo|
  0073c		 |$LN18@SMARTREFLE|
  0073c	483072e0	 DCD         0x483072e0
  00740		 |$LN19@SMARTREFLE|
  00740	483072c0	 DCD         0x483072c0
  00744		 |$LN20@SMARTREFLE|
  00744	00000000	 DCD         |?DvfsConstraintCallback@@YAHPAXK0I@Z|
  00748		 |$LN21@SMARTREFLE|
  00748	00000000	 DCD         |??_C@_19BINEIDCP@?$AAD?$AAV?$AAF?$AAS?$AA?$AA@|
  0074c		 |$LN22@SMARTREFLE|
  0074c	00000000	 DCD         |?SmartReflexSensingThread@@YAKPAX@Z|
  00750		 |$LN23@SMARTREFLE|
  00750	00000000	 DCD         |??_C@_1KC@KJEOONBL@?$AAS?$AAM?$AAA?$AAR?$AAT?$AAR?$AAE?$AAF?$AAL?$AAE?$AAX?$AA_?$AAI?$AAn?$AAi?$AAt?$AAP?$AAo?$AAl?$AAi?$AAc?$AAy?$AA?3?$AA?5?$AAI?$AAn?$AAv?$AAa?$AAl?$AAi?$AAd?$AA?1@|
  00754		 |$LN24@SMARTREFLE|
  00754	00000000	 DCD         |g_policyRegParams|
  00758		 |$LN25@SMARTREFLE|
  00758	00000000	 DCD         |??_C@_1EE@JFKJFJLC@?$AA?$CL?$AAS?$AAM?$AAA?$AAR?$AAT?$AAR?$AAE?$AAF?$AAL?$AAE?$AAX?$AA_?$AAI?$AAn?$AAi?$AAt?$AAP?$AAo?$AAl?$AAi?$AAc?$AAy?$AA?$CI?$AA0?$AAx?$AA?$CF?$AA0?$AA8?$AAx?$AA?$CJ?$AA?$AN@|
  0075c		 |$M37923|

			 ENDP  ; |?SMARTREFLEX_InitPolicy@@YAPAXPBG@Z|, SMARTREFLEX_InitPolicy

	EXPORT	|??_C@_1DM@FLJKFFNF@?$AA?9?$AAS?$AAM?$AAA?$AAR?$AAT?$AAR?$AAE?$AAF?$AAL?$AAE?$AAX?$AA_?$AAD?$AAe?$AAi?$AAn?$AAi?$AAt?$AAP?$AAo?$AAl?$AAi?$AAc?$AAy?$AA?$CI?$AA?$CJ?$AA?$AN?$AA?6?$AA?$AA@| [ DATA ] ; `string'
	EXPORT	|??_C@_1HM@EOFDEPCO@?$AAE?$AAR?$AAR?$AAO?$AAR?$AA?3?$AA?5?$AAS?$AAM?$AAA?$AAR?$AAT?$AAR?$AAE?$AAF?$AAL?$AAE?$AAX?$AA_?$AAD?$AAe?$AAi?$AAn?$AAi?$AAt?$AAP?$AAo?$AAl?$AAi?$AAc?$AAy?$AA?3@| [ DATA ] ; `string'
	EXPORT	|??_C@_1EI@HMOLPFDH@?$AA?$CL?$AAS?$AAM?$AAA?$AAR?$AAT?$AAR?$AAE?$AAF?$AAL?$AAE?$AAX?$AA_?$AAD?$AAe?$AAi?$AAn?$AAi?$AAt?$AAP?$AAo?$AAl?$AAi?$AAc?$AAy?$AA?$CI?$AA0?$AAx?$AA?$CF?$AA0?$AA8?$AAx@| [ DATA ] ; `string'
	EXPORT	|?SMARTREFLEX_DeinitPolicy@@YAHPAX@Z|	; SMARTREFLEX_DeinitPolicy
	IMPORT	|CloseHandle|
	IMPORT	|PmxReleaseConstraint|
	IMPORT	|PmxUnregisterConstraintCallback|
	IMPORT	|MmUnmapIoSpace|

  00048			 AREA	 |.pdata|, PDATA
|$T37950| DCD	|$LN14@SMARTREFLE@2|
	DCD	0x40006004

  00000			 AREA	 |.rdata|, DATA, READONLY
|??_C@_1DM@FLJKFFNF@?$AA?9?$AAS?$AAM?$AAA?$AAR?$AAT?$AAR?$AAE?$AAF?$AAL?$AAE?$AAX?$AA_?$AAD?$AAe?$AAi?$AAn?$AAi?$AAt?$AAP?$AAo?$AAl?$AAi?$AAc?$AAy?$AA?$CI?$AA?$CJ?$AA?$AN?$AA?6?$AA?$AA@| DCB "-"
	DCB	0x0, "S", 0x0, "M", 0x0, "A", 0x0, "R", 0x0, "T", 0x0, "R"
	DCB	0x0, "E", 0x0, "F", 0x0, "L", 0x0, "E", 0x0, "X", 0x0, "_"
	DCB	0x0, "D", 0x0, "e", 0x0, "i", 0x0, "n", 0x0, "i", 0x0, "t"
	DCB	0x0, "P", 0x0, "o", 0x0, "l", 0x0, "i", 0x0, "c", 0x0, "y"
	DCB	0x0, "(", 0x0, ")", 0x0, 0xd, 0x0, 0xa, 0x0, 0x0, 0x0 ; `string'

  00000			 AREA	 |.rdata|, DATA, READONLY
|??_C@_1HM@EOFDEPCO@?$AAE?$AAR?$AAR?$AAO?$AAR?$AA?3?$AA?5?$AAS?$AAM?$AAA?$AAR?$AAT?$AAR?$AAE?$AAF?$AAL?$AAE?$AAX?$AA_?$AAD?$AAe?$AAi?$AAn?$AAi?$AAt?$AAP?$AAo?$AAl?$AAi?$AAc?$AAy?$AA?3@| DCB "E"
	DCB	0x0, "R", 0x0, "R", 0x0, "O", 0x0, "R", 0x0, ":", 0x0, " "
	DCB	0x0, "S", 0x0, "M", 0x0, "A", 0x0, "R", 0x0, "T", 0x0, "R"
	DCB	0x0, "E", 0x0, "F", 0x0, "L", 0x0, "E", 0x0, "X", 0x0, "_"
	DCB	0x0, "D", 0x0, "e", 0x0, "i", 0x0, "n", 0x0, "i", 0x0, "t"
	DCB	0x0, "P", 0x0, "o", 0x0, "l", 0x0, "i", 0x0, "c", 0x0, "y"
	DCB	0x0, ":", 0x0, "I", 0x0, "n", 0x0, "c", 0x0, "o", 0x0, "r"
	DCB	0x0, "r", 0x0, "e", 0x0, "c", 0x0, "t", 0x0, " ", 0x0, "c"
	DCB	0x0, "o", 0x0, "n", 0x0, "t", 0x0, "e", 0x0, "x", 0x0, "t"
	DCB	0x0, " ", 0x0, "p", 0x0, "a", 0x0, "r", 0x0, "a", 0x0, "m"
	DCB	0x0, "e", 0x0, "t", 0x0, "e", 0x0, "r", 0x0, 0xd, 0x0, 0xa
	DCB	0x0, 0x0, 0x0				; `string'

  00000			 AREA	 |.rdata|, DATA, READONLY
|??_C@_1EI@HMOLPFDH@?$AA?$CL?$AAS?$AAM?$AAA?$AAR?$AAT?$AAR?$AAE?$AAF?$AAL?$AAE?$AAX?$AA_?$AAD?$AAe?$AAi?$AAn?$AAi?$AAt?$AAP?$AAo?$AAl?$AAi?$AAc?$AAy?$AA?$CI?$AA0?$AAx?$AA?$CF?$AA0?$AA8?$AAx@| DCB "+"
	DCB	0x0, "S", 0x0, "M", 0x0, "A", 0x0, "R", 0x0, "T", 0x0, "R"
	DCB	0x0, "E", 0x0, "F", 0x0, "L", 0x0, "E", 0x0, "X", 0x0, "_"
	DCB	0x0, "D", 0x0, "e", 0x0, "i", 0x0, "n", 0x0, "i", 0x0, "t"
	DCB	0x0, "P", 0x0, "o", 0x0, "l", 0x0, "i", 0x0, "c", 0x0, "y"
	DCB	0x0, "(", 0x0, "0", 0x0, "x", 0x0, "%", 0x0, "0", 0x0, "8"
	DCB	0x0, "x", 0x0, ")", 0x0, 0xd, 0x0, 0xa, 0x0, 0x0, 0x0 ; `string'
; Function compile flags: /Odtp

  0075c			 AREA	 |.text|, CODE, ARM

  0075c		 |?SMARTREFLEX_DeinitPolicy@@YAHPAX@Z| PROC ; SMARTREFLEX_DeinitPolicy

; 526  : {

  0075c		 |$LN14@SMARTREFLE@2|
  0075c	e1a0c00d	 mov         r12, sp
  00760	e92d0001	 stmdb       sp!, {r0}
  00764	e92d5000	 stmdb       sp!, {r12, lr}
  00768	e24dd014	 sub         sp, sp, #0x14
  0076c		 |$M37947|

; 527  :     BOOL rc = FALSE;

  0076c	e3a03000	 mov         r3, #0
  00770	e58d3000	 str         r3, [sp]

; 528  : 
; 529  :     RETAILMSG(ZONE_FUNCTION, (
; 530  :       L"+SMARTREFLEX_DeinitPolicy(0x%08x)\r\n",
; 531  :       hPolicyAdapter
; 532  :       ));

  00774	e59f3148	 ldr         r3, [pc, #0x148]
  00778	e5933440	 ldr         r3, [r3, #0x440]
  0077c	e3130004	 tst         r3, #4
  00780	0a000005	 beq         |$LN6@SMARTREFLE@2|
  00784	e59d101c	 ldr         r1, [sp, #0x1C]
  00788	e59f0148	 ldr         r0, [pc, #0x148]
  0078c	eb000000	 bl          NKDbgPrintfW
  00790	e3a03001	 mov         r3, #1
  00794	e58d3008	 str         r3, [sp, #8]
  00798	ea000001	 b           |$LN7@SMARTREFLE@2|
  0079c		 |$LN6@SMARTREFLE@2|
  0079c	e3a03000	 mov         r3, #0
  007a0	e58d3008	 str         r3, [sp, #8]
  007a4		 |$LN7@SMARTREFLE@2|

; 533  : 
; 534  :     // validate parameters
; 535  :     if (hPolicyAdapter != (HANDLE)&s_SmartReflexLoadPolicyInfo)

  007a4	e59d201c	 ldr         r2, [sp, #0x1C]
  007a8	e59f3118	 ldr         r3, [pc, #0x118]
  007ac	e1520003	 cmp         r2, r3
  007b0	0a000008	 beq         |$LN3@SMARTREFLE@2|

; 536  :         {
; 537  :         RETAILMSG (ZONE_ERROR, (L"ERROR: SMARTREFLEX_DeinitPolicy:"
; 538  :             L"Incorrect context parameter\r\n"
; 539  :             ));

  007b4	e59f0118	 ldr         r0, [pc, #0x118]
  007b8	eb000000	 bl          NKDbgPrintfW
  007bc	e3a03001	 mov         r3, #1
  007c0	e58d300c	 str         r3, [sp, #0xC]
  007c4	ea000001	 b           |$LN9@SMARTREFLE@2|
  007c8	e3a03000	 mov         r3, #0
  007cc	e58d300c	 str         r3, [sp, #0xC]
  007d0		 |$LN9@SMARTREFLE@2|

; 540  :         goto cleanUp;

  007d0	ea000029	 b           |$LN2@SMARTREFLE@2|
  007d4	ea000028	 b           |$cleanUp$37678|
  007d8		 |$LN3@SMARTREFLE@2|

; 541  :         }
; 542  : 
; 543  :     //unmap vdd1 voltage register to virtual memory
; 544  :     MmUnmapIoSpace(s_VddOptimizationInfo[0].pPrcmRegistryAddress,sizeof(UINT32));

  007d8	e3a01004	 mov         r1, #4
  007dc	e59f30ec	 ldr         r3, [pc, #0xEC]
  007e0	e5930000	 ldr         r0, [r3]
  007e4	eb000000	 bl          MmUnmapIoSpace

; 545  : 
; 546  :     //unmap vdd2 voltage register to virtual memory
; 547  :     MmUnmapIoSpace(s_VddOptimizationInfo[1].pPrcmRegistryAddress,sizeof(UINT32));

  007e8	e3a01004	 mov         r1, #4
  007ec	e59f30dc	 ldr         r3, [pc, #0xDC]
  007f0	e5930008	 ldr         r0, [r3, #8]
  007f4	eb000000	 bl          MmUnmapIoSpace

; 548  : 
; 549  :     //unregisted DVFS change callback function
; 550  :     PmxUnregisterConstraintCallback(s_SmartReflexLoadPolicyInfo.hDvfsConstraint,
; 551  :                                     DvfsConstraintCallback
; 552  :                                     );

  007f8	e59f10cc	 ldr         r1, [pc, #0xCC]
  007fc	e59f30c4	 ldr         r3, [pc, #0xC4]
  00800	e593001c	 ldr         r0, [r3, #0x1C]
  00804	eb000000	 bl          PmxUnregisterConstraintCallback

; 553  : 
; 554  :     //release DVFS constraint handler
; 555  :     PmxReleaseConstraint(s_SmartReflexLoadPolicyInfo.hDvfsConstraint);

  00808	e59f30b8	 ldr         r3, [pc, #0xB8]
  0080c	e593001c	 ldr         r0, [r3, #0x1C]
  00810	eb000000	 bl          PmxReleaseConstraint

; 556  : 
; 557  :     //stop thread gracefuly
; 558  :     if (s_SmartReflexLoadPolicyInfo.hSmartReflexSensingThread != NULL)

  00814	e59f30ac	 ldr         r3, [pc, #0xAC]
  00818	e5933028	 ldr         r3, [r3, #0x28]
  0081c	e3530000	 cmp         r3, #0
  00820	0a00000c	 beq         |$LN1@SMARTREFLE@2|

; 559  :         {
; 560  :         s_SmartReflexLoadPolicyInfo.bExitThread = TRUE;

  00824	e59f209c	 ldr         r2, [pc, #0x9C]
  00828	e3a03001	 mov         r3, #1
  0082c	e5823018	 str         r3, [r2, #0x18]

; 561  :         SetEvent(s_SmartReflexLoadPolicyInfo.hSmartReflexSensingEvent);

  00830	e59f3090	 ldr         r3, [pc, #0x90]
  00834	e5930024	 ldr         r0, [r3, #0x24]
  00838	eb000000	 bl          SetEvent

; 562  :         WaitForSingleObject(s_SmartReflexLoadPolicyInfo.hSmartReflexSensingThread, INFINITE);

  0083c	e3e01000	 mvn         r1, #0
  00840	e59f3080	 ldr         r3, [pc, #0x80]
  00844	e5930028	 ldr         r0, [r3, #0x28]
  00848	eb000000	 bl          WaitForSingleObject

; 563  :         CloseHandle(s_SmartReflexLoadPolicyInfo.hSmartReflexSensingThread);

  0084c	e59f3074	 ldr         r3, [pc, #0x74]
  00850	e5930028	 ldr         r0, [r3, #0x28]
  00854	eb000000	 bl          CloseHandle
  00858		 |$LN1@SMARTREFLE@2|

; 564  :         }
; 565  : 
; 566  :     //close sync event hanle
; 567  :     CloseHandle(s_SmartReflexLoadPolicyInfo.hSmartReflexSensingEvent);

  00858	e59f3068	 ldr         r3, [pc, #0x68]
  0085c	e5930024	 ldr         r0, [r3, #0x24]
  00860	eb000000	 bl          CloseHandle

; 568  : 
; 569  :     // clear main policy structure
; 570  :     memset(&s_SmartReflexLoadPolicyInfo, 0, sizeof(SmartReflexPolicyInfo_t));

  00864	e3a02034	 mov         r2, #0x34
  00868	e3a01000	 mov         r1, #0
  0086c	e59f0054	 ldr         r0, [pc, #0x54]
  00870	eb000000	 bl          memset

; 571  : 
; 572  :     rc = TRUE;

  00874	e3a03001	 mov         r3, #1
  00878	e58d3000	 str         r3, [sp]
  0087c		 |$LN2@SMARTREFLE@2|
  0087c		 |$cleanUp$37678|

; 573  : 
; 574  : cleanUp:
; 575  :     RETAILMSG(ZONE_FUNCTION, (L"-SMARTREFLEX_DeinitPolicy()\r\n"));

  0087c	e59f3040	 ldr         r3, [pc, #0x40]
  00880	e5933440	 ldr         r3, [r3, #0x440]
  00884	e3130004	 tst         r3, #4
  00888	0a000004	 beq         |$LN10@SMARTREFLE@2|
  0088c	e59f002c	 ldr         r0, [pc, #0x2C]
  00890	eb000000	 bl          NKDbgPrintfW
  00894	e3a03001	 mov         r3, #1
  00898	e58d3010	 str         r3, [sp, #0x10]
  0089c	ea000001	 b           |$LN11@SMARTREFLE@2|
  008a0		 |$LN10@SMARTREFLE@2|
  008a0	e3a03000	 mov         r3, #0
  008a4	e58d3010	 str         r3, [sp, #0x10]
  008a8		 |$LN11@SMARTREFLE@2|

; 576  :     return rc;

  008a8	e59d3000	 ldr         r3, [sp]
  008ac	e58d3004	 str         r3, [sp, #4]

; 577  : }

  008b0	e59d0004	 ldr         r0, [sp, #4]
  008b4	e28dd014	 add         sp, sp, #0x14
  008b8	e89d6000	 ldmia       sp, {sp, lr}
  008bc	e12fff1e	 bx          lr
  008c0		 |$LN15@SMARTREFLE@2|
  008c0		 |$LN16@SMARTREFLE@2|
  008c0	00000000	 DCD         |??_C@_1DM@FLJKFFNF@?$AA?9?$AAS?$AAM?$AAA?$AAR?$AAT?$AAR?$AAE?$AAF?$AAL?$AAE?$AAX?$AA_?$AAD?$AAe?$AAi?$AAn?$AAi?$AAt?$AAP?$AAo?$AAl?$AAi?$AAc?$AAy?$AA?$CI?$AA?$CJ?$AA?$AN?$AA?6?$AA?$AA@|
  008c4		 |$LN17@SMARTREFLE@2|
  008c4	00000000	 DCD         |dpCurSettings|
  008c8		 |$LN18@SMARTREFLE@2|
  008c8	00000000	 DCD         |s_SmartReflexLoadPolicyInfo|
  008cc		 |$LN19@SMARTREFLE@2|
  008cc	00000000	 DCD         |?DvfsConstraintCallback@@YAHPAXK0I@Z|
  008d0		 |$LN20@SMARTREFLE@2|
  008d0	00000000	 DCD         |s_VddOptimizationInfo|
  008d4		 |$LN21@SMARTREFLE@2|
  008d4	00000000	 DCD         |??_C@_1HM@EOFDEPCO@?$AAE?$AAR?$AAR?$AAO?$AAR?$AA?3?$AA?5?$AAS?$AAM?$AAA?$AAR?$AAT?$AAR?$AAE?$AAF?$AAL?$AAE?$AAX?$AA_?$AAD?$AAe?$AAi?$AAn?$AAi?$AAt?$AAP?$AAo?$AAl?$AAi?$AAc?$AAy?$AA?3@|
  008d8		 |$LN22@SMARTREFLE@2|
  008d8	00000000	 DCD         |??_C@_1EI@HMOLPFDH@?$AA?$CL?$AAS?$AAM?$AAA?$AAR?$AAT?$AAR?$AAE?$AAF?$AAL?$AAE?$AAX?$AA_?$AAD?$AAe?$AAi?$AAn?$AAi?$AAt?$AAP?$AAo?$AAl?$AAi?$AAc?$AAy?$AA?$CI?$AA0?$AAx?$AA?$CF?$AA0?$AA8?$AAx@|
  008dc		 |$M37948|

			 ENDP  ; |?SMARTREFLEX_DeinitPolicy@@YAHPAX@Z|, SMARTREFLEX_DeinitPolicy

	EXPORT	|??_C@_1DI@DEIOFKBG@?$AA?9?$AAS?$AAM?$AAA?$AAR?$AAT?$AAR?$AAE?$AAF?$AAL?$AAE?$AAX?$AA_?$AAO?$AAp?$AAe?$AAn?$AAP?$AAo?$AAl?$AAi?$AAc?$AAy?$AA?$CI?$AA?$CJ?$AA?$AN?$AA?6?$AA?$AA@| [ DATA ] ; `string'
	EXPORT	|??_C@_1IM@DJEKKHLG@?$AAW?$AAA?$AAR?$AAN?$AAI?$AAN?$AAG?$AA?3?$AA?5?$AAS?$AAM?$AAA?$AAR?$AAT?$AAR?$AAE?$AAF?$AAL?$AAE?$AAX?$AA_?$AAO?$AAp?$AAe?$AAn?$AAP?$AAo?$AAl?$AAi?$AAc?$AAy?$AA?3@| [ DATA ] ; `string'
	EXPORT	|??_C@_1HI@BOGPJPFG@?$AAE?$AAR?$AAR?$AAO?$AAR?$AA?3?$AA?5?$AAS?$AAM?$AAA?$AAR?$AAT?$AAR?$AAE?$AAF?$AAL?$AAE?$AAX?$AA_?$AAO?$AAp?$AAe?$AAn?$AAP?$AAo?$AAl?$AAi?$AAc?$AAy?$AA?3?$AAI?$AAn@| [ DATA ] ; `string'
	EXPORT	|??_C@_1EE@LCJDNHIB@?$AA?$CL?$AAS?$AAM?$AAA?$AAR?$AAT?$AAR?$AAE?$AAF?$AAL?$AAE?$AAX?$AA_?$AAO?$AAp?$AAe?$AAn?$AAP?$AAo?$AAl?$AAi?$AAc?$AAy?$AA?$CI?$AA0?$AAx?$AA?$CF?$AA0?$AA8?$AAx?$AA?$CJ?$AA?$AN@| [ DATA ] ; `string'
	EXPORT	|?SMARTREFLEX_OpenPolicy@@YAPAXPAX@Z|	; SMARTREFLEX_OpenPolicy
	IMPORT	|LocalAlloc|

  00050			 AREA	 |.pdata|, PDATA
|$T37972| DCD	|$LN17@SMARTREFLE@3|
	DCD	0x40005204

  00000			 AREA	 |.rdata|, DATA, READONLY
|??_C@_1DI@DEIOFKBG@?$AA?9?$AAS?$AAM?$AAA?$AAR?$AAT?$AAR?$AAE?$AAF?$AAL?$AAE?$AAX?$AA_?$AAO?$AAp?$AAe?$AAn?$AAP?$AAo?$AAl?$AAi?$AAc?$AAy?$AA?$CI?$AA?$CJ?$AA?$AN?$AA?6?$AA?$AA@| DCB "-"
	DCB	0x0, "S", 0x0, "M", 0x0, "A", 0x0, "R", 0x0, "T", 0x0, "R"
	DCB	0x0, "E", 0x0, "F", 0x0, "L", 0x0, "E", 0x0, "X", 0x0, "_"
	DCB	0x0, "O", 0x0, "p", 0x0, "e", 0x0, "n", 0x0, "P", 0x0, "o"
	DCB	0x0, "l", 0x0, "i", 0x0, "c", 0x0, "y", 0x0, "(", 0x0, ")"
	DCB	0x0, 0xd, 0x0, 0xa, 0x0, 0x0, 0x0	; `string'

  00000			 AREA	 |.rdata|, DATA, READONLY
|??_C@_1IM@DJEKKHLG@?$AAW?$AAA?$AAR?$AAN?$AAI?$AAN?$AAG?$AA?3?$AA?5?$AAS?$AAM?$AAA?$AAR?$AAT?$AAR?$AAE?$AAF?$AAL?$AAE?$AAX?$AA_?$AAO?$AAp?$AAe?$AAn?$AAP?$AAo?$AAl?$AAi?$AAc?$AAy?$AA?3@| DCB "W"
	DCB	0x0, "A", 0x0, "R", 0x0, "N", 0x0, "I", 0x0, "N", 0x0, "G"
	DCB	0x0, ":", 0x0, " ", 0x0, "S", 0x0, "M", 0x0, "A", 0x0, "R"
	DCB	0x0, "T", 0x0, "R", 0x0, "E", 0x0, "F", 0x0, "L", 0x0, "E"
	DCB	0x0, "X", 0x0, "_", 0x0, "O", 0x0, "p", 0x0, "e", 0x0, "n"
	DCB	0x0, "P", 0x0, "o", 0x0, "l", 0x0, "i", 0x0, "c", 0x0, "y"
	DCB	0x0, ":", 0x0, "P", 0x0, "o", 0x0, "l", 0x0, "i", 0x0, "c"
	DCB	0x0, "y", 0x0, " ", 0x0, "r", 0x0, "e", 0x0, "s", 0x0, "o"
	DCB	0x0, "u", 0x0, "r", 0x0, "c", 0x0, "e", 0x0, "s", 0x0, " "
	DCB	0x0, "a", 0x0, "l", 0x0, "l", 0x0, "o", 0x0, "c", 0x0, "a"
	DCB	0x0, "t", 0x0, "i", 0x0, "o", 0x0, "n", 0x0, " ", 0x0, "f"
	DCB	0x0, "a", 0x0, "i", 0x0, "l", 0x0, "e", 0x0, "d", 0x0, "!"
	DCB	0x0, 0xd, 0x0, 0xa, 0x0, 0x0, 0x0	; `string'

  00000			 AREA	 |.rdata|, DATA, READONLY
|??_C@_1HI@BOGPJPFG@?$AAE?$AAR?$AAR?$AAO?$AAR?$AA?3?$AA?5?$AAS?$AAM?$AAA?$AAR?$AAT?$AAR?$AAE?$AAF?$AAL?$AAE?$AAX?$AA_?$AAO?$AAp?$AAe?$AAn?$AAP?$AAo?$AAl?$AAi?$AAc?$AAy?$AA?3?$AAI?$AAn@| DCB "E"
	DCB	0x0, "R", 0x0, "R", 0x0, "O", 0x0, "R", 0x0, ":", 0x0, " "
	DCB	0x0, "S", 0x0, "M", 0x0, "A", 0x0, "R", 0x0, "T", 0x0, "R"
	DCB	0x0, "E", 0x0, "F", 0x0, "L", 0x0, "E", 0x0, "X", 0x0, "_"
	DCB	0x0, "O", 0x0, "p", 0x0, "e", 0x0, "n", 0x0, "P", 0x0, "o"
	DCB	0x0, "l", 0x0, "i", 0x0, "c", 0x0, "y", 0x0, ":", 0x0, "I"
	DCB	0x0, "n", 0x0, "c", 0x0, "o", 0x0, "r", 0x0, "r", 0x0, "e"
	DCB	0x0, "c", 0x0, "t", 0x0, " ", 0x0, "c", 0x0, "o", 0x0, "n"
	DCB	0x0, "t", 0x0, "e", 0x0, "x", 0x0, "t", 0x0, " ", 0x0, "p"
	DCB	0x0, "a", 0x0, "r", 0x0, "a", 0x0, "m", 0x0, "e", 0x0, "t"
	DCB	0x0, "e", 0x0, "r", 0x0, 0xd, 0x0, 0xa, 0x0, 0x0, 0x0 ; `string'

  00000			 AREA	 |.rdata|, DATA, READONLY
|??_C@_1EE@LCJDNHIB@?$AA?$CL?$AAS?$AAM?$AAA?$AAR?$AAT?$AAR?$AAE?$AAF?$AAL?$AAE?$AAX?$AA_?$AAO?$AAp?$AAe?$AAn?$AAP?$AAo?$AAl?$AAi?$AAc?$AAy?$AA?$CI?$AA0?$AAx?$AA?$CF?$AA0?$AA8?$AAx?$AA?$CJ?$AA?$AN@| DCB "+"
	DCB	0x0, "S", 0x0, "M", 0x0, "A", 0x0, "R", 0x0, "T", 0x0, "R"
	DCB	0x0, "E", 0x0, "F", 0x0, "L", 0x0, "E", 0x0, "X", 0x0, "_"
	DCB	0x0, "O", 0x0, "p", 0x0, "e", 0x0, "n", 0x0, "P", 0x0, "o"
	DCB	0x0, "l", 0x0, "i", 0x0, "c", 0x0, "y", 0x0, "(", 0x0, "0"
	DCB	0x0, "x", 0x0, "%", 0x0, "0", 0x0, "8", 0x0, "x", 0x0, ")"
	DCB	0x0, 0xd, 0x0, 0xa, 0x0, 0x0, 0x0	; `string'
; Function compile flags: /Odtp

  008dc			 AREA	 |.text|, CODE, ARM

  008dc		 |?SMARTREFLEX_OpenPolicy@@YAPAXPAX@Z| PROC ; SMARTREFLEX_OpenPolicy

; 591  : {

  008dc		 |$LN17@SMARTREFLE@3|
  008dc	e1a0c00d	 mov         r12, sp
  008e0	e92d0001	 stmdb       sp!, {r0}
  008e4	e92d5000	 stmdb       sp!, {r12, lr}
  008e8	e24dd020	 sub         sp, sp, #0x20
  008ec		 |$M37969|

; 592  :     HANDLE                  rc = NULL;

  008ec	e3a03000	 mov         r3, #0
  008f0	e58d3000	 str         r3, [sp]

; 593  :     SmartReflexPolicyContext_t    *pContext;
; 594  : 
; 595  :     RETAILMSG(ZONE_FUNCTION, (
; 596  :       L"+SMARTREFLEX_OpenPolicy(0x%08x)\r\n",
; 597  :       hPolicyAdapter
; 598  :       ));

  008f4	e59f3110	 ldr         r3, [pc, #0x110]
  008f8	e5933440	 ldr         r3, [r3, #0x440]
  008fc	e3130004	 tst         r3, #4
  00900	0a000005	 beq         |$LN7@SMARTREFLE@3|
  00904	e59d1028	 ldr         r1, [sp, #0x28]
  00908	e59f0110	 ldr         r0, [pc, #0x110]
  0090c	eb000000	 bl          NKDbgPrintfW
  00910	e3a03001	 mov         r3, #1
  00914	e58d300c	 str         r3, [sp, #0xC]
  00918	ea000001	 b           |$LN8@SMARTREFLE@3|
  0091c		 |$LN7@SMARTREFLE@3|
  0091c	e3a03000	 mov         r3, #0
  00920	e58d300c	 str         r3, [sp, #0xC]
  00924		 |$LN8@SMARTREFLE@3|

; 599  : 
; 600  :     // validate parameters
; 601  :     if (hPolicyAdapter != (HANDLE)&s_SmartReflexLoadPolicyInfo)

  00924	e59d2028	 ldr         r2, [sp, #0x28]
  00928	e59f30ec	 ldr         r3, [pc, #0xEC]
  0092c	e1520003	 cmp         r2, r3
  00930	0a000008	 beq         |$LN4@SMARTREFLE@3|

; 602  :         {
; 603  :         RETAILMSG (ZONE_ERROR, (L"ERROR: SMARTREFLEX_OpenPolicy:"
; 604  :             L"Incorrect context parameter\r\n"
; 605  :             ));

  00934	e59f00dc	 ldr         r0, [pc, #0xDC]
  00938	eb000000	 bl          NKDbgPrintfW
  0093c	e3a03001	 mov         r3, #1
  00940	e58d3010	 str         r3, [sp, #0x10]
  00944	ea000001	 b           |$LN10@SMARTREFLE@3|
  00948	e3a03000	 mov         r3, #0
  0094c	e58d3010	 str         r3, [sp, #0x10]
  00950		 |$LN10@SMARTREFLE@3|

; 606  :         goto cleanUp;

  00950	ea00001b	 b           |$LN3@SMARTREFLE@3|
  00954	ea00001a	 b           |$cleanUp$37694|
  00958		 |$LN4@SMARTREFLE@3|

; 607  :         }
; 608  : 
; 609  :     // Create a policy context handle and return handle
; 610  :     pContext = (SmartReflexPolicyContext_t*)LocalAlloc(LPTR, sizeof(SmartReflexPolicyContext_t));

  00958	e3a01004	 mov         r1, #4
  0095c	e3a00040	 mov         r0, #0x40
  00960	eb000000	 bl          LocalAlloc
  00964	e58d0014	 str         r0, [sp, #0x14]
  00968	e59d3014	 ldr         r3, [sp, #0x14]
  0096c	e58d3004	 str         r3, [sp, #4]

; 611  :     if (pContext == NULL)

  00970	e59d3004	 ldr         r3, [sp, #4]
  00974	e3530000	 cmp         r3, #0
  00978	1a00000c	 bne         |$LN2@SMARTREFLE@3|

; 612  :         {
; 613  :         RETAILMSG (ZONE_WARN, (L"WARNING: SMARTREFLEX_OpenPolicy:"
; 614  :             L"Policy resources allocation failed!\r\n"
; 615  :             ));

  0097c	e59f3088	 ldr         r3, [pc, #0x88]
  00980	e5933440	 ldr         r3, [r3, #0x440]
  00984	e3130002	 tst         r3, #2
  00988	0a000004	 beq         |$LN11@SMARTREFLE@3|
  0098c	e59f0080	 ldr         r0, [pc, #0x80]
  00990	eb000000	 bl          NKDbgPrintfW
  00994	e3a03001	 mov         r3, #1
  00998	e58d3018	 str         r3, [sp, #0x18]
  0099c	ea000001	 b           |$LN12@SMARTREFLE@3|
  009a0		 |$LN11@SMARTREFLE@3|
  009a0	e3a03000	 mov         r3, #0
  009a4	e58d3018	 str         r3, [sp, #0x18]
  009a8		 |$LN12@SMARTREFLE@3|

; 616  :         goto cleanUp;

  009a8	ea000005	 b           |$LN1@SMARTREFLE@3|
  009ac	ea000004	 b           |$cleanUp$37694|
  009b0		 |$LN2@SMARTREFLE@3|

; 617  :         }
; 618  : 
; 619  :     // initialize variables
; 620  :     pContext->cookie = POLICY_CONTEXT_COOKIE;

  009b0	e59d2004	 ldr         r2, [sp, #4]
  009b4	e59f3054	 ldr         r3, [pc, #0x54]
  009b8	e5823000	 str         r3, [r2]

; 621  : 
; 622  :     // add to list of collection
; 623  :     rc = (HANDLE)pContext;

  009bc	e59d3004	 ldr         r3, [sp, #4]
  009c0	e58d3000	 str         r3, [sp]
  009c4		 |$LN1@SMARTREFLE@3|
  009c4		 |$LN3@SMARTREFLE@3|
  009c4		 |$cleanUp$37694|

; 624  : 
; 625  : cleanUp:
; 626  :     RETAILMSG(ZONE_FUNCTION, (L"-SMARTREFLEX_OpenPolicy()\r\n"));

  009c4	e59f3040	 ldr         r3, [pc, #0x40]
  009c8	e5933440	 ldr         r3, [r3, #0x440]
  009cc	e3130004	 tst         r3, #4
  009d0	0a000004	 beq         |$LN13@SMARTREFLE@3|
  009d4	e59f002c	 ldr         r0, [pc, #0x2C]
  009d8	eb000000	 bl          NKDbgPrintfW
  009dc	e3a03001	 mov         r3, #1
  009e0	e58d301c	 str         r3, [sp, #0x1C]
  009e4	ea000001	 b           |$LN14@SMARTREFLE@3|
  009e8		 |$LN13@SMARTREFLE@3|
  009e8	e3a03000	 mov         r3, #0
  009ec	e58d301c	 str         r3, [sp, #0x1C]
  009f0		 |$LN14@SMARTREFLE@3|

; 627  :     return rc;

  009f0	e59d3000	 ldr         r3, [sp]
  009f4	e58d3008	 str         r3, [sp, #8]

; 628  : }

  009f8	e59d0008	 ldr         r0, [sp, #8]
  009fc	e28dd020	 add         sp, sp, #0x20
  00a00	e89d6000	 ldmia       sp, {sp, lr}
  00a04	e12fff1e	 bx          lr
  00a08		 |$LN18@SMARTREFLE@3|
  00a08		 |$LN19@SMARTREFLE@3|
  00a08	00000000	 DCD         |??_C@_1DI@DEIOFKBG@?$AA?9?$AAS?$AAM?$AAA?$AAR?$AAT?$AAR?$AAE?$AAF?$AAL?$AAE?$AAX?$AA_?$AAO?$AAp?$AAe?$AAn?$AAP?$AAo?$AAl?$AAi?$AAc?$AAy?$AA?$CI?$AA?$CJ?$AA?$AN?$AA?6?$AA?$AA@|
  00a0c		 |$LN20@SMARTREFLE@3|
  00a0c	00000000	 DCD         |dpCurSettings|
  00a10		 |$LN21@SMARTREFLE@3|
  00a10	73747278	 DCD         0x73747278
  00a14		 |$LN22@SMARTREFLE@3|
  00a14	00000000	 DCD         |??_C@_1IM@DJEKKHLG@?$AAW?$AAA?$AAR?$AAN?$AAI?$AAN?$AAG?$AA?3?$AA?5?$AAS?$AAM?$AAA?$AAR?$AAT?$AAR?$AAE?$AAF?$AAL?$AAE?$AAX?$AA_?$AAO?$AAp?$AAe?$AAn?$AAP?$AAo?$AAl?$AAi?$AAc?$AAy?$AA?3@|
  00a18		 |$LN23@SMARTREFLE@3|
  00a18	00000000	 DCD         |??_C@_1HI@BOGPJPFG@?$AAE?$AAR?$AAR?$AAO?$AAR?$AA?3?$AA?5?$AAS?$AAM?$AAA?$AAR?$AAT?$AAR?$AAE?$AAF?$AAL?$AAE?$AAX?$AA_?$AAO?$AAp?$AAe?$AAn?$AAP?$AAo?$AAl?$AAi?$AAc?$AAy?$AA?3?$AAI?$AAn@|
  00a1c		 |$LN24@SMARTREFLE@3|
  00a1c	00000000	 DCD         |s_SmartReflexLoadPolicyInfo|
  00a20		 |$LN25@SMARTREFLE@3|
  00a20	00000000	 DCD         |??_C@_1EE@LCJDNHIB@?$AA?$CL?$AAS?$AAM?$AAA?$AAR?$AAT?$AAR?$AAE?$AAF?$AAL?$AAE?$AAX?$AA_?$AAO?$AAp?$AAe?$AAn?$AAP?$AAo?$AAl?$AAi?$AAc?$AAy?$AA?$CI?$AA0?$AAx?$AA?$CF?$AA0?$AA8?$AAx?$AA?$CJ?$AA?$AN@|
  00a24		 |$M37970|

			 ENDP  ; |?SMARTREFLEX_OpenPolicy@@YAPAXPAX@Z|, SMARTREFLEX_OpenPolicy

	EXPORT	|??_C@_1DK@FIAGOGJH@?$AA?9?$AAS?$AAM?$AAA?$AAR?$AAT?$AAR?$AAE?$AAF?$AAL?$AAE?$AAX?$AA_?$AAC?$AAl?$AAo?$AAs?$AAe?$AAP?$AAo?$AAl?$AAi?$AAc?$AAy?$AA?$CI?$AA?$CJ?$AA?$AN?$AA?6?$AA?$AA@| [ DATA ] ; `string'
	EXPORT	|??_C@_1HK@GDIPKJIG@?$AAE?$AAR?$AAR?$AAO?$AAR?$AA?3?$AA?5?$AAS?$AAM?$AAA?$AAR?$AAT?$AAR?$AAE?$AAF?$AAL?$AAE?$AAX?$AA_?$AAC?$AAl?$AAo?$AAs?$AAe?$AAP?$AAo?$AAl?$AAi?$AAc?$AAy?$AA?3?$AAI@| [ DATA ] ; `string'
	EXPORT	|??_C@_1GM@DPKGEGNM@?$AA?$CL?$AAS?$AAM?$AAA?$AAR?$AAT?$AAR?$AAE?$AAF?$AAL?$AAE?$AAX?$AA_?$AAC?$AAl?$AAo?$AAs?$AAe?$AAP?$AAo?$AAl?$AAi?$AAc?$AAy?$AA?$CI?$AA0?$AAx?$AA?$CF?$AA0?$AA8?$AAx?$AA?0@| [ DATA ] ; `string'
	EXPORT	|?SMARTREFLEX_ClosePolicy@@YAHPAXIII@Z|	; SMARTREFLEX_ClosePolicy
	IMPORT	|LocalFree|

  00058			 AREA	 |.pdata|, PDATA
|$T37993| DCD	|$LN13@SMARTREFLE@4|
	DCD	0x40004004

  00000			 AREA	 |.rdata|, DATA, READONLY
|??_C@_1DK@FIAGOGJH@?$AA?9?$AAS?$AAM?$AAA?$AAR?$AAT?$AAR?$AAE?$AAF?$AAL?$AAE?$AAX?$AA_?$AAC?$AAl?$AAo?$AAs?$AAe?$AAP?$AAo?$AAl?$AAi?$AAc?$AAy?$AA?$CI?$AA?$CJ?$AA?$AN?$AA?6?$AA?$AA@| DCB "-"
	DCB	0x0, "S", 0x0, "M", 0x0, "A", 0x0, "R", 0x0, "T", 0x0, "R"
	DCB	0x0, "E", 0x0, "F", 0x0, "L", 0x0, "E", 0x0, "X", 0x0, "_"
	DCB	0x0, "C", 0x0, "l", 0x0, "o", 0x0, "s", 0x0, "e", 0x0, "P"
	DCB	0x0, "o", 0x0, "l", 0x0, "i", 0x0, "c", 0x0, "y", 0x0, "("
	DCB	0x0, ")", 0x0, 0xd, 0x0, 0xa, 0x0, 0x0, 0x0 ; `string'

  00000			 AREA	 |.rdata|, DATA, READONLY
|??_C@_1HK@GDIPKJIG@?$AAE?$AAR?$AAR?$AAO?$AAR?$AA?3?$AA?5?$AAS?$AAM?$AAA?$AAR?$AAT?$AAR?$AAE?$AAF?$AAL?$AAE?$AAX?$AA_?$AAC?$AAl?$AAo?$AAs?$AAe?$AAP?$AAo?$AAl?$AAi?$AAc?$AAy?$AA?3?$AAI@| DCB "E"
	DCB	0x0, "R", 0x0, "R", 0x0, "O", 0x0, "R", 0x0, ":", 0x0, " "
	DCB	0x0, "S", 0x0, "M", 0x0, "A", 0x0, "R", 0x0, "T", 0x0, "R"
	DCB	0x0, "E", 0x0, "F", 0x0, "L", 0x0, "E", 0x0, "X", 0x0, "_"
	DCB	0x0, "C", 0x0, "l", 0x0, "o", 0x0, "s", 0x0, "e", 0x0, "P"
	DCB	0x0, "o", 0x0, "l", 0x0, "i", 0x0, "c", 0x0, "y", 0x0, ":"
	DCB	0x0, "I", 0x0, "n", 0x0, "c", 0x0, "o", 0x0, "r", 0x0, "r"
	DCB	0x0, "e", 0x0, "c", 0x0, "t", 0x0, " ", 0x0, "c", 0x0, "o"
	DCB	0x0, "n", 0x0, "t", 0x0, "e", 0x0, "x", 0x0, "t", 0x0, " "
	DCB	0x0, "p", 0x0, "a", 0x0, "r", 0x0, "a", 0x0, "m", 0x0, "e"
	DCB	0x0, "t", 0x0, "e", 0x0, "r", 0x0, 0xd, 0x0, 0xa, 0x0, 0x0
	DCB	0x0					; `string'

  00000			 AREA	 |.rdata|, DATA, READONLY
|??_C@_1GM@DPKGEGNM@?$AA?$CL?$AAS?$AAM?$AAA?$AAR?$AAT?$AAR?$AAE?$AAF?$AAL?$AAE?$AAX?$AA_?$AAC?$AAl?$AAo?$AAs?$AAe?$AAP?$AAo?$AAl?$AAi?$AAc?$AAy?$AA?$CI?$AA0?$AAx?$AA?$CF?$AA0?$AA8?$AAx?$AA?0@| DCB "+"
	DCB	0x0, "S", 0x0, "M", 0x0, "A", 0x0, "R", 0x0, "T", 0x0, "R"
	DCB	0x0, "E", 0x0, "F", 0x0, "L", 0x0, "E", 0x0, "X", 0x0, "_"
	DCB	0x0, "C", 0x0, "l", 0x0, "o", 0x0, "s", 0x0, "e", 0x0, "P"
	DCB	0x0, "o", 0x0, "l", 0x0, "i", 0x0, "c", 0x0, "y", 0x0, "("
	DCB	0x0, "0", 0x0, "x", 0x0, "%", 0x0, "0", 0x0, "8", 0x0, "x"
	DCB	0x0, ",", 0x0, "0", 0x0, "x", 0x0, "d", 0x0, ",", 0x0, "0"
	DCB	0x0, "x", 0x0, "%", 0x0, "0", 0x0, "2", 0x0, "x", 0x0, ","
	DCB	0x0, "0", 0x0, "x", 0x0, "%", 0x0, "0", 0x0, "2", 0x0, "x"
	DCB	0x0, " ", 0x0, ")", 0x0, 0xd, 0x0, 0xa, 0x0, 0x0, 0x0 ; `string'
; Function compile flags: /Odtp

  00a24			 AREA	 |.text|, CODE, ARM

  00a24		 |?SMARTREFLEX_ClosePolicy@@YAHPAXIII@Z| PROC ; SMARTREFLEX_ClosePolicy

; 643  : {

  00a24		 |$LN13@SMARTREFLE@4|
  00a24	e1a0c00d	 mov         r12, sp
  00a28	e92d000f	 stmdb       sp!, {r0 - r3}
  00a2c	e92d5000	 stmdb       sp!, {r12, lr}
  00a30	e24dd01c	 sub         sp, sp, #0x1C
  00a34		 |$M37990|

; 644  :     SmartReflexPolicyContext_t  *pContext = (SmartReflexPolicyContext_t*)hPolicyContext;

  00a34	e59d3024	 ldr         r3, [sp, #0x24]
  00a38	e58d3004	 str         r3, [sp, #4]

; 645  : 
; 646  : 	UNREFERENCED_PARAMETER(dev);
; 647  : 	UNREFERENCED_PARAMETER(oldState);
; 648  : 	UNREFERENCED_PARAMETER(newState);
; 649  : 
; 650  :     RETAILMSG(ZONE_FUNCTION, (
; 651  :       L"+SMARTREFLEX_ClosePolicy(0x%08x,0xd,0x%02x,0x%02x )\r\n",
; 652  :       hPolicyContext,
; 653  :       dev,
; 654  :       oldState,
; 655  :       newState
; 656  :       ));

  00a3c	e59f30d0	 ldr         r3, [pc, #0xD0]
  00a40	e5933440	 ldr         r3, [r3, #0x440]
  00a44	e3130004	 tst         r3, #4
  00a48	0a000009	 beq         |$LN5@SMARTREFLE@4|
  00a4c	e59d3030	 ldr         r3, [sp, #0x30]
  00a50	e58d3000	 str         r3, [sp]
  00a54	e59d302c	 ldr         r3, [sp, #0x2C]
  00a58	e59d2028	 ldr         r2, [sp, #0x28]
  00a5c	e59d1024	 ldr         r1, [sp, #0x24]
  00a60	e59f00b8	 ldr         r0, [pc, #0xB8]
  00a64	eb000000	 bl          NKDbgPrintfW
  00a68	e3a03001	 mov         r3, #1
  00a6c	e58d3010	 str         r3, [sp, #0x10]
  00a70	ea000001	 b           |$LN6@SMARTREFLE@4|
  00a74		 |$LN5@SMARTREFLE@4|
  00a74	e3a03000	 mov         r3, #0
  00a78	e58d3010	 str         r3, [sp, #0x10]
  00a7c		 |$LN6@SMARTREFLE@4|

; 657  : 
; 658  :     // validate parameters
; 659  :     if (pContext == NULL || pContext->cookie != POLICY_CONTEXT_COOKIE)

  00a7c	e59d3004	 ldr         r3, [sp, #4]
  00a80	e3530000	 cmp         r3, #0
  00a84	0a000004	 beq         |$LN1@SMARTREFLE@4|
  00a88	e59d3004	 ldr         r3, [sp, #4]
  00a8c	e5932000	 ldr         r2, [r3]
  00a90	e59f3084	 ldr         r3, [pc, #0x84]
  00a94	e1520003	 cmp         r2, r3
  00a98	0a000009	 beq         |$LN2@SMARTREFLE@4|
  00a9c		 |$LN1@SMARTREFLE@4|

; 660  :         {
; 661  :         RETAILMSG (ZONE_ERROR, (L"ERROR: SMARTREFLEX_ClosePolicy:"
; 662  :             L"Incorrect context parameter\r\n"
; 663  :             ));

  00a9c	e59f0074	 ldr         r0, [pc, #0x74]
  00aa0	eb000000	 bl          NKDbgPrintfW
  00aa4	e3a03001	 mov         r3, #1
  00aa8	e58d3014	 str         r3, [sp, #0x14]
  00aac	ea000001	 b           |$LN8@SMARTREFLE@4|
  00ab0	e3a03000	 mov         r3, #0
  00ab4	e58d3014	 str         r3, [sp, #0x14]
  00ab8		 |$LN8@SMARTREFLE@4|

; 664  :         return FALSE;

  00ab8	e3a03000	 mov         r3, #0
  00abc	e58d300c	 str         r3, [sp, #0xC]
  00ac0	ea00000e	 b           |$LN3@SMARTREFLE@4|
  00ac4		 |$LN2@SMARTREFLE@4|

; 665  :         }
; 666  : 
; 667  :     // free resources
; 668  :     LocalFree(pContext);

  00ac4	e59d0004	 ldr         r0, [sp, #4]
  00ac8	eb000000	 bl          LocalFree

; 669  : 
; 670  :     RETAILMSG(ZONE_FUNCTION, (L"-SMARTREFLEX_ClosePolicy()\r\n"));

  00acc	e59f3040	 ldr         r3, [pc, #0x40]
  00ad0	e5933440	 ldr         r3, [r3, #0x440]
  00ad4	e3130004	 tst         r3, #4
  00ad8	0a000004	 beq         |$LN9@SMARTREFLE@4|
  00adc	e59f002c	 ldr         r0, [pc, #0x2C]
  00ae0	eb000000	 bl          NKDbgPrintfW
  00ae4	e3a03001	 mov         r3, #1
  00ae8	e58d3018	 str         r3, [sp, #0x18]
  00aec	ea000001	 b           |$LN10@SMARTREFLE@4|
  00af0		 |$LN9@SMARTREFLE@4|
  00af0	e3a03000	 mov         r3, #0
  00af4	e58d3018	 str         r3, [sp, #0x18]
  00af8		 |$LN10@SMARTREFLE@4|

; 671  :     return TRUE;

  00af8	e3a03001	 mov         r3, #1
  00afc	e58d300c	 str         r3, [sp, #0xC]
  00b00		 |$LN3@SMARTREFLE@4|

; 672  : }

  00b00	e59d000c	 ldr         r0, [sp, #0xC]
  00b04	e28dd01c	 add         sp, sp, #0x1C
  00b08	e89d6000	 ldmia       sp, {sp, lr}
  00b0c	e12fff1e	 bx          lr
  00b10		 |$LN14@SMARTREFLE@4|
  00b10		 |$LN15@SMARTREFLE@4|
  00b10	00000000	 DCD         |??_C@_1DK@FIAGOGJH@?$AA?9?$AAS?$AAM?$AAA?$AAR?$AAT?$AAR?$AAE?$AAF?$AAL?$AAE?$AAX?$AA_?$AAC?$AAl?$AAo?$AAs?$AAe?$AAP?$AAo?$AAl?$AAi?$AAc?$AAy?$AA?$CI?$AA?$CJ?$AA?$AN?$AA?6?$AA?$AA@|
  00b14		 |$LN16@SMARTREFLE@4|
  00b14	00000000	 DCD         |dpCurSettings|
  00b18		 |$LN17@SMARTREFLE@4|
  00b18	00000000	 DCD         |??_C@_1HK@GDIPKJIG@?$AAE?$AAR?$AAR?$AAO?$AAR?$AA?3?$AA?5?$AAS?$AAM?$AAA?$AAR?$AAT?$AAR?$AAE?$AAF?$AAL?$AAE?$AAX?$AA_?$AAC?$AAl?$AAo?$AAs?$AAe?$AAP?$AAo?$AAl?$AAi?$AAc?$AAy?$AA?3?$AAI@|
  00b1c		 |$LN18@SMARTREFLE@4|
  00b1c	73747278	 DCD         0x73747278
  00b20		 |$LN19@SMARTREFLE@4|
  00b20	00000000	 DCD         |??_C@_1GM@DPKGEGNM@?$AA?$CL?$AAS?$AAM?$AAA?$AAR?$AAT?$AAR?$AAE?$AAF?$AAL?$AAE?$AAX?$AA_?$AAC?$AAl?$AAo?$AAs?$AAe?$AAP?$AAo?$AAl?$AAi?$AAc?$AAy?$AA?$CI?$AA0?$AAx?$AA?$CF?$AA0?$AA8?$AAx?$AA?0@|
  00b24		 |$M37991|

			 ENDP  ; |?SMARTREFLEX_ClosePolicy@@YAHPAXIII@Z|, SMARTREFLEX_ClosePolicy

	EXPORT	|??_C@_1DM@JIGOCN@?$AA?9?$AAS?$AAM?$AAA?$AAR?$AAT?$AAR?$AAE?$AAF?$AAL?$AAE?$AAX?$AA_?$AAN?$AAo?$AAt?$AAi?$AAf?$AAy?$AAP?$AAo?$AAl?$AAi?$AAc?$AAy?$AA?$CI?$AA?$CJ?$AA?$AN?$AA?6?$AA?$AA@| [ DATA ] ; `string'
	EXPORT	|??_C@_1FC@FLMJLJFL@?$AAS?$AAM?$AAA?$AAR?$AAT?$AAR?$AAE?$AAF?$AAL?$AAE?$AAX?$AA_?$AAN?$AAo?$AAt?$AAi?$AAf?$AAy?$AAP?$AAo?$AAl?$AAi?$AAc?$AAy?$AA?3?$AA?5?$AAL?$AAP?$AAR?$AA?5?$AAm?$AAo@| [ DATA ] ; `string'
	EXPORT	|??_C@_1FA@HBLKMNLH@?$AAS?$AAM?$AAA?$AAR?$AAT?$AAR?$AAE?$AAF?$AAL?$AAE?$AAX?$AA_?$AAN?$AAo?$AAt?$AAi?$AAf?$AAy?$AAP?$AAo?$AAl?$AAi?$AAc?$AAy?$AA?3?$AA?5?$AAL?$AAP?$AAR?$AA?5?$AAm?$AAo@| [ DATA ] ; `string'
	EXPORT	|??_C@_1IG@ELLJNDN@?$AAW?$AAA?$AAR?$AAN?$AAI?$AAN?$AAG?$AA?3?$AA?5?$AAS?$AAM?$AAA?$AAR?$AAT?$AAR?$AAE?$AAF?$AAL?$AAE?$AAX?$AA_?$AAN?$AAo?$AAt?$AAi?$AAf?$AAy?$AAP?$AAo?$AAl?$AAi?$AAc@| [ DATA ] ; `string'
	EXPORT	|??_C@_1HM@BKMHFMGB@?$AAE?$AAR?$AAR?$AAO?$AAR?$AA?3?$AA?5?$AAS?$AAM?$AAA?$AAR?$AAT?$AAR?$AAE?$AAF?$AAL?$AAE?$AAX?$AA_?$AAN?$AAo?$AAt?$AAi?$AAf?$AAy?$AAP?$AAo?$AAl?$AAi?$AAc?$AAy?$AA?3@| [ DATA ] ; `string'
	EXPORT	|??_C@_1GM@EACNBHGG@?$AA?$CL?$AAS?$AAM?$AAA?$AAR?$AAT?$AAR?$AAE?$AAF?$AAL?$AAE?$AAX?$AA_?$AAN?$AAo?$AAt?$AAi?$AAf?$AAy?$AAP?$AAo?$AAl?$AAi?$AAc?$AAy?$AA?$CI?$AA0?$AAx?$AA?$CF?$AA0?$AA8?$AAx@| [ DATA ] ; `string'
	EXPORT	|?SMARTREFLEX_NotifyPolicy@@YAHPAXK0I@Z| ; SMARTREFLEX_NotifyPolicy
	IMPORT	|PmxUpdateConstraint|

  00000			 AREA	 |.bss|, NOINIT
|?pEnable@?1??SMARTREFLEX_NotifyPolicy@@YAHPAXK0I@Z@4PAHA| % 0x4 ; `SMARTREFLEX_NotifyPolicy'::`2'::pEnable

  00060			 AREA	 |.pdata|, PDATA
|$T38018| DCD	|$LN29@SMARTREFLE@5|
	DCD	0x4000a804

  00000			 AREA	 |.rdata|, DATA, READONLY
|??_C@_1DM@JIGOCN@?$AA?9?$AAS?$AAM?$AAA?$AAR?$AAT?$AAR?$AAE?$AAF?$AAL?$AAE?$AAX?$AA_?$AAN?$AAo?$AAt?$AAi?$AAf?$AAy?$AAP?$AAo?$AAl?$AAi?$AAc?$AAy?$AA?$CI?$AA?$CJ?$AA?$AN?$AA?6?$AA?$AA@| DCB "-"
	DCB	0x0, "S", 0x0, "M", 0x0, "A", 0x0, "R", 0x0, "T", 0x0, "R"
	DCB	0x0, "E", 0x0, "F", 0x0, "L", 0x0, "E", 0x0, "X", 0x0, "_"
	DCB	0x0, "N", 0x0, "o", 0x0, "t", 0x0, "i", 0x0, "f", 0x0, "y"
	DCB	0x0, "P", 0x0, "o", 0x0, "l", 0x0, "i", 0x0, "c", 0x0, "y"
	DCB	0x0, "(", 0x0, ")", 0x0, 0xd, 0x0, 0xa, 0x0, 0x0, 0x0 ; `string'

  00000			 AREA	 |.rdata|, DATA, READONLY
|??_C@_1FC@FLMJLJFL@?$AAS?$AAM?$AAA?$AAR?$AAT?$AAR?$AAE?$AAF?$AAL?$AAE?$AAX?$AA_?$AAN?$AAo?$AAt?$AAi?$AAf?$AAy?$AAP?$AAo?$AAl?$AAi?$AAc?$AAy?$AA?3?$AA?5?$AAL?$AAP?$AAR?$AA?5?$AAm?$AAo@| DCB "S"
	DCB	0x0, "M", 0x0, "A", 0x0, "R", 0x0, "T", 0x0, "R", 0x0, "E"
	DCB	0x0, "F", 0x0, "L", 0x0, "E", 0x0, "X", 0x0, "_", 0x0, "N"
	DCB	0x0, "o", 0x0, "t", 0x0, "i", 0x0, "f", 0x0, "y", 0x0, "P"
	DCB	0x0, "o", 0x0, "l", 0x0, "i", 0x0, "c", 0x0, "y", 0x0, ":"
	DCB	0x0, " ", 0x0, "L", 0x0, "P", 0x0, "R", 0x0, " ", 0x0, "m"
	DCB	0x0, "o", 0x0, "d", 0x0, "e", 0x0, " ", 0x0, "O", 0x0, "F"
	DCB	0x0, "F", 0x0, 0xd, 0x0, 0xa, 0x0, 0x0, 0x0 ; `string'

  00000			 AREA	 |.rdata|, DATA, READONLY
|??_C@_1FA@HBLKMNLH@?$AAS?$AAM?$AAA?$AAR?$AAT?$AAR?$AAE?$AAF?$AAL?$AAE?$AAX?$AA_?$AAN?$AAo?$AAt?$AAi?$AAf?$AAy?$AAP?$AAo?$AAl?$AAi?$AAc?$AAy?$AA?3?$AA?5?$AAL?$AAP?$AAR?$AA?5?$AAm?$AAo@| DCB "S"
	DCB	0x0, "M", 0x0, "A", 0x0, "R", 0x0, "T", 0x0, "R", 0x0, "E"
	DCB	0x0, "F", 0x0, "L", 0x0, "E", 0x0, "X", 0x0, "_", 0x0, "N"
	DCB	0x0, "o", 0x0, "t", 0x0, "i", 0x0, "f", 0x0, "y", 0x0, "P"
	DCB	0x0, "o", 0x0, "l", 0x0, "i", 0x0, "c", 0x0, "y", 0x0, ":"
	DCB	0x0, " ", 0x0, "L", 0x0, "P", 0x0, "R", 0x0, " ", 0x0, "m"
	DCB	0x0, "o", 0x0, "d", 0x0, "e", 0x0, " ", 0x0, "O", 0x0, "N"
	DCB	0x0, 0xd, 0x0, 0xa, 0x0, 0x0, 0x0	; `string'

  00000			 AREA	 |.rdata|, DATA, READONLY
|??_C@_1IG@ELLJNDN@?$AAW?$AAA?$AAR?$AAN?$AAI?$AAN?$AAG?$AA?3?$AA?5?$AAS?$AAM?$AAA?$AAR?$AAT?$AAR?$AAE?$AAF?$AAL?$AAE?$AAX?$AA_?$AAN?$AAo?$AAt?$AAi?$AAf?$AAy?$AAP?$AAo?$AAl?$AAi?$AAc@| DCB "W"
	DCB	0x0, "A", 0x0, "R", 0x0, "N", 0x0, "I", 0x0, "N", 0x0, "G"
	DCB	0x0, ":", 0x0, " ", 0x0, "S", 0x0, "M", 0x0, "A", 0x0, "R"
	DCB	0x0, "T", 0x0, "R", 0x0, "E", 0x0, "F", 0x0, "L", 0x0, "E"
	DCB	0x0, "X", 0x0, "_", 0x0, "N", 0x0, "o", 0x0, "t", 0x0, "i"
	DCB	0x0, "f", 0x0, "y", 0x0, "P", 0x0, "o", 0x0, "l", 0x0, "i"
	DCB	0x0, "c", 0x0, "y", 0x0, ":", 0x0, "I", 0x0, "n", 0x0, "c"
	DCB	0x0, "o", 0x0, "r", 0x0, "r", 0x0, "e", 0x0, "c", 0x0, "t"
	DCB	0x0, " ", 0x0, "i", 0x0, "n", 0x0, "p", 0x0, "u", 0x0, "t"
	DCB	0x0, " ", 0x0, "b", 0x0, "u", 0x0, "f", 0x0, "f", 0x0, "e"
	DCB	0x0, "r", 0x0, " ", 0x0, "c", 0x0, "o", 0x0, "n", 0x0, "t"
	DCB	0x0, "e", 0x0, "x", 0x0, "t", 0x0, 0xd, 0x0, 0xa, 0x0, 0x0
	DCB	0x0					; `string'

  00000			 AREA	 |.rdata|, DATA, READONLY
|??_C@_1HM@BKMHFMGB@?$AAE?$AAR?$AAR?$AAO?$AAR?$AA?3?$AA?5?$AAS?$AAM?$AAA?$AAR?$AAT?$AAR?$AAE?$AAF?$AAL?$AAE?$AAX?$AA_?$AAN?$AAo?$AAt?$AAi?$AAf?$AAy?$AAP?$AAo?$AAl?$AAi?$AAc?$AAy?$AA?3@| DCB "E"
	DCB	0x0, "R", 0x0, "R", 0x0, "O", 0x0, "R", 0x0, ":", 0x0, " "
	DCB	0x0, "S", 0x0, "M", 0x0, "A", 0x0, "R", 0x0, "T", 0x0, "R"
	DCB	0x0, "E", 0x0, "F", 0x0, "L", 0x0, "E", 0x0, "X", 0x0, "_"
	DCB	0x0, "N", 0x0, "o", 0x0, "t", 0x0, "i", 0x0, "f", 0x0, "y"
	DCB	0x0, "P", 0x0, "o", 0x0, "l", 0x0, "i", 0x0, "c", 0x0, "y"
	DCB	0x0, ":", 0x0, "I", 0x0, "n", 0x0, "c", 0x0, "o", 0x0, "r"
	DCB	0x0, "r", 0x0, "e", 0x0, "c", 0x0, "t", 0x0, " ", 0x0, "c"
	DCB	0x0, "o", 0x0, "n", 0x0, "t", 0x0, "e", 0x0, "x", 0x0, "t"
	DCB	0x0, " ", 0x0, "p", 0x0, "a", 0x0, "r", 0x0, "a", 0x0, "m"
	DCB	0x0, "e", 0x0, "t", 0x0, "e", 0x0, "r", 0x0, 0xd, 0x0, 0xa
	DCB	0x0, 0x0, 0x0				; `string'

  00000			 AREA	 |.rdata|, DATA, READONLY
|??_C@_1GM@EACNBHGG@?$AA?$CL?$AAS?$AAM?$AAA?$AAR?$AAT?$AAR?$AAE?$AAF?$AAL?$AAE?$AAX?$AA_?$AAN?$AAo?$AAt?$AAi?$AAf?$AAy?$AAP?$AAo?$AAl?$AAi?$AAc?$AAy?$AA?$CI?$AA0?$AAx?$AA?$CF?$AA0?$AA8?$AAx@| DCB "+"
	DCB	0x0, "S", 0x0, "M", 0x0, "A", 0x0, "R", 0x0, "T", 0x0, "R"
	DCB	0x0, "E", 0x0, "F", 0x0, "L", 0x0, "E", 0x0, "X", 0x0, "_"
	DCB	0x0, "N", 0x0, "o", 0x0, "t", 0x0, "i", 0x0, "f", 0x0, "y"
	DCB	0x0, "P", 0x0, "o", 0x0, "l", 0x0, "i", 0x0, "c", 0x0, "y"
	DCB	0x0, "(", 0x0, "0", 0x0, "x", 0x0, "%", 0x0, "0", 0x0, "8"
	DCB	0x0, "x", 0x0, ",", 0x0, "0", 0x0, "x", 0x0, "%", 0x0, "0"
	DCB	0x0, "8", 0x0, "x", 0x0, ",", 0x0, "0", 0x0, "x", 0x0, "%"
	DCB	0x0, "0", 0x0, "8", 0x0, "x", 0x0, ",", 0x0, "%", 0x0, "d"
	DCB	0x0, " ", 0x0, ")", 0x0, 0xd, 0x0, 0xa, 0x0, 0x0, 0x0 ; `string'
; Function compile flags: /Odtp

  00b24			 AREA	 |.text|, CODE, ARM

  00b24		 |?SMARTREFLEX_NotifyPolicy@@YAHPAXK0I@Z| PROC ; SMARTREFLEX_NotifyPolicy

; 688  : {

  00b24		 |$LN29@SMARTREFLE@5|
  00b24	e1a0c00d	 mov         r12, sp
  00b28	e92d000f	 stmdb       sp!, {r0 - r3}
  00b2c	e92d5000	 stmdb       sp!, {r12, lr}
  00b30	e24dd030	 sub         sp, sp, #0x30
  00b34		 |$M38015|

; 689  :     BOOL rc = FALSE;

  00b34	e3a03000	 mov         r3, #0
  00b38	e58d3004	 str         r3, [sp, #4]

; 690  :     static BOOL * pEnable = NULL;
; 691  :     DWORD       dwOpm;
; 692  :     SmartReflexPolicyContext_t    *pContext = (SmartReflexPolicyContext_t*)hPolicyContext;

  00b3c	e59d3038	 ldr         r3, [sp, #0x38]
  00b40	e58d3008	 str         r3, [sp, #8]

; 693  :     pEnable = (BOOL*)pParam;

  00b44	e59d2040	 ldr         r2, [sp, #0x40]
  00b48	e59f3260	 ldr         r3, [pc, #0x260]
  00b4c	e5832000	 str         r2, [r3]

; 694  : 
; 695  : 	UNREFERENCED_PARAMETER(size);
; 696  : 
; 697  :     RETAILMSG(ZONE_FUNCTION, (
; 698  :         L"+SMARTREFLEX_NotifyPolicy(0x%08x,0x%08x,0x%08x,%d )\r\n",
; 699  :         hPolicyContext,
; 700  :         msg,
; 701  :         pParam,
; 702  :         size
; 703  :         ));

  00b50	e59f3248	 ldr         r3, [pc, #0x248]
  00b54	e5933440	 ldr         r3, [r3, #0x440]
  00b58	e3130004	 tst         r3, #4
  00b5c	0a000009	 beq         |$LN15@SMARTREFLE@5|
  00b60	e59d3044	 ldr         r3, [sp, #0x44]
  00b64	e58d3000	 str         r3, [sp]
  00b68	e59d3040	 ldr         r3, [sp, #0x40]
  00b6c	e59d203c	 ldr         r2, [sp, #0x3C]
  00b70	e59d1038	 ldr         r1, [sp, #0x38]
  00b74	e59f0244	 ldr         r0, [pc, #0x244]
  00b78	eb000000	 bl          NKDbgPrintfW
  00b7c	e3a03001	 mov         r3, #1
  00b80	e58d3018	 str         r3, [sp, #0x18]
  00b84	ea000001	 b           |$LN16@SMARTREFLE@5|
  00b88		 |$LN15@SMARTREFLE@5|
  00b88	e3a03000	 mov         r3, #0
  00b8c	e58d3018	 str         r3, [sp, #0x18]
  00b90		 |$LN16@SMARTREFLE@5|

; 704  : 
; 705  :     // validate parameters
; 706  :     if (pContext == NULL || pContext->cookie != POLICY_CONTEXT_COOKIE)

  00b90	e59d3008	 ldr         r3, [sp, #8]
  00b94	e3530000	 cmp         r3, #0
  00b98	0a000004	 beq         |$LN11@SMARTREFLE@5|
  00b9c	e59d3008	 ldr         r3, [sp, #8]
  00ba0	e5932000	 ldr         r2, [r3]
  00ba4	e59f3210	 ldr         r3, [pc, #0x210]
  00ba8	e1520003	 cmp         r2, r3
  00bac	0a000008	 beq         |$LN12@SMARTREFLE@5|
  00bb0		 |$LN11@SMARTREFLE@5|

; 707  :         {
; 708  :         RETAILMSG (ZONE_ERROR, (L"ERROR: SMARTREFLEX_NotifyPolicy:"
; 709  :             L"Incorrect context parameter\r\n"
; 710  :             ));

  00bb0	e59f0200	 ldr         r0, [pc, #0x200]
  00bb4	eb000000	 bl          NKDbgPrintfW
  00bb8	e3a03001	 mov         r3, #1
  00bbc	e58d301c	 str         r3, [sp, #0x1C]
  00bc0	ea000001	 b           |$LN18@SMARTREFLE@5|
  00bc4	e3a03000	 mov         r3, #0
  00bc8	e58d301c	 str         r3, [sp, #0x1C]
  00bcc		 |$LN18@SMARTREFLE@5|

; 711  :         goto cleanUp;

  00bcc	ea000061	 b           |$LN10@SMARTREFLE@5|
  00bd0	ea000060	 b           |$cleanUp$37733|
  00bd4		 |$LN12@SMARTREFLE@5|

; 712  :         }
; 713  : 
; 714  :     if (pEnable == NULL)

  00bd4	e59f31d4	 ldr         r3, [pc, #0x1D4]
  00bd8	e5933000	 ldr         r3, [r3]
  00bdc	e3530000	 cmp         r3, #0
  00be0	1a00000c	 bne         |$LN9@SMARTREFLE@5|

; 715  :         {
; 716  :         RETAILMSG (ZONE_WARN, (L"WARNING: SMARTREFLEX_NotifyPolicy:"
; 717  :             L"Incorrect input buffer context\r\n"
; 718  :             ));

  00be4	e59f31b4	 ldr         r3, [pc, #0x1B4]
  00be8	e5933440	 ldr         r3, [r3, #0x440]
  00bec	e3130002	 tst         r3, #2
  00bf0	0a000004	 beq         |$LN19@SMARTREFLE@5|
  00bf4	e59f01b8	 ldr         r0, [pc, #0x1B8]
  00bf8	eb000000	 bl          NKDbgPrintfW
  00bfc	e3a03001	 mov         r3, #1
  00c00	e58d3020	 str         r3, [sp, #0x20]
  00c04	ea000001	 b           |$LN20@SMARTREFLE@5|
  00c08		 |$LN19@SMARTREFLE@5|
  00c08	e3a03000	 mov         r3, #0
  00c0c	e58d3020	 str         r3, [sp, #0x20]
  00c10		 |$LN20@SMARTREFLE@5|

; 719  :         goto cleanUp;

  00c10	ea000050	 b           |$LN8@SMARTREFLE@5|
  00c14	ea00004f	 b           |$cleanUp$37733|
  00c18		 |$LN9@SMARTREFLE@5|

; 720  :         }
; 721  : 
; 722  :     switch (msg)

  00c18	e59d203c	 ldr         r2, [sp, #0x3C]
  00c1c	e3a03106	 mov         r3, #6, 2
  00c20	e3833801	 orr         r3, r3, #1, 16
  00c24	e1520003	 cmp         r2, r3
  00c28	0a000000	 beq         |$LN5@SMARTREFLE@5|
  00c2c	ea000047	 b           |$LN6@SMARTREFLE@5|
  00c30		 |$LN5@SMARTREFLE@5|

; 723  :         {
; 724  :         case SMARTREFLEX_LPR_MODE:
; 725  :             if (*pEnable)

  00c30	e59f3178	 ldr         r3, [pc, #0x178]
  00c34	e5933000	 ldr         r3, [r3]
  00c38	e5933000	 ldr         r3, [r3]
  00c3c	e3530000	 cmp         r3, #0
  00c40	0a000021	 beq         |$LN4@SMARTREFLE@5|

; 726  :                 {
; 727  : 
; 728  :                 if (s_SmartReflexLoadPolicyInfo.bLprModeState == FALSE)

  00c44	e59f3158	 ldr         r3, [pc, #0x158]
  00c48	e593302c	 ldr         r3, [r3, #0x2C]
  00c4c	e3530000	 cmp         r3, #0
  00c50	1a00001c	 bne         |$LN3@SMARTREFLE@5|

; 729  :                     {
; 730  :                     RETAILMSG(ZONE_INFO, (L"SMARTREFLEX_NotifyPolicy: LPR mode ON\r\n"));

  00c54	e59f3144	 ldr         r3, [pc, #0x144]
  00c58	e5933440	 ldr         r3, [r3, #0x440]
  00c5c	e3130008	 tst         r3, #8
  00c60	0a000004	 beq         |$LN21@SMARTREFLE@5|
  00c64	e59f0140	 ldr         r0, [pc, #0x140]
  00c68	eb000000	 bl          NKDbgPrintfW
  00c6c	e3a03001	 mov         r3, #1
  00c70	e58d3024	 str         r3, [sp, #0x24]
  00c74	ea000001	 b           |$LN22@SMARTREFLE@5|
  00c78		 |$LN21@SMARTREFLE@5|
  00c78	e3a03000	 mov         r3, #0
  00c7c	e58d3024	 str         r3, [sp, #0x24]
  00c80		 |$LN22@SMARTREFLE@5|

; 731  : 
; 732  :                     //  Enabling LPR, so drop DVFS constraint
; 733  :                     dwOpm = CONSTRAINT_STATE_NULL;

  00c80	e3e03cff	 mvn         r3, #0xFF, 24
  00c84	e22330ff	 eor         r3, r3, #0xFF
  00c88	e58d300c	 str         r3, [sp, #0xC]

; 734  : 
; 735  :                     PmxUpdateConstraint(
; 736  :                         s_SmartReflexLoadPolicyInfo.hDvfsConstraint,
; 737  :                         CONSTRAINT_MSG_DVFS_REQUEST,
; 738  :                         (void*)&dwOpm,
; 739  :                         sizeof(DWORD)
; 740  :                         );

  00c8c	e3a03004	 mov         r3, #4
  00c90	e28d200c	 add         r2, sp, #0xC
  00c94	e3a01001	 mov         r1, #1
  00c98	e59f0104	 ldr         r0, [pc, #0x104]
  00c9c	e590001c	 ldr         r0, [r0, #0x1C]
  00ca0	eb000000	 bl          PmxUpdateConstraint

; 741  : 
; 742  :                     //  Update SmartReflex
; 743  :                     s_SmartReflexLoadPolicyInfo.bLprModeState = TRUE;

  00ca4	e59f20f8	 ldr         r2, [pc, #0xF8]
  00ca8	e3a03001	 mov         r3, #1
  00cac	e582302c	 str         r3, [r2, #0x2C]

; 744  :                     s_SmartReflexLoadPolicyInfo.dwActiveDevices--;

  00cb0	e59f30ec	 ldr         r3, [pc, #0xEC]
  00cb4	e5933000	 ldr         r3, [r3]
  00cb8	e2432001	 sub         r2, r3, #1
  00cbc	e59f30e0	 ldr         r3, [pc, #0xE0]
  00cc0	e5832000	 str         r2, [r3]

; 745  :                     UpdateSmartReflex();

  00cc4	eb000000	 bl          |?UpdateSmartReflex@@YAXXZ|
  00cc8		 |$LN3@SMARTREFLE@5|

; 746  :                     }
; 747  :                 }
; 748  :             else

  00cc8	ea000020	 b           |$LN2@SMARTREFLE@5|
  00ccc		 |$LN4@SMARTREFLE@5|

; 749  :                 {
; 750  :                 if (s_SmartReflexLoadPolicyInfo.bLprModeState == TRUE)

  00ccc	e59f30d0	 ldr         r3, [pc, #0xD0]
  00cd0	e593302c	 ldr         r3, [r3, #0x2C]
  00cd4	e3530001	 cmp         r3, #1
  00cd8	1a00001c	 bne         |$LN1@SMARTREFLE@5|

; 751  :                     {
; 752  :                     RETAILMSG(ZONE_INFO, (L"SMARTREFLEX_NotifyPolicy: LPR mode OFF\r\n"));

  00cdc	e59f30bc	 ldr         r3, [pc, #0xBC]
  00ce0	e5933440	 ldr         r3, [r3, #0x440]
  00ce4	e3130008	 tst         r3, #8
  00ce8	0a000004	 beq         |$LN23@SMARTREFLE@5|
  00cec	e59f00b4	 ldr         r0, [pc, #0xB4]
  00cf0	eb000000	 bl          NKDbgPrintfW
  00cf4	e3a03001	 mov         r3, #1
  00cf8	e58d3028	 str         r3, [sp, #0x28]
  00cfc	ea000001	 b           |$LN24@SMARTREFLE@5|
  00d00		 |$LN23@SMARTREFLE@5|
  00d00	e3a03000	 mov         r3, #0
  00d04	e58d3028	 str         r3, [sp, #0x28]
  00d08		 |$LN24@SMARTREFLE@5|

; 753  : 
; 754  :                     //  Disabling LPR, so set DVFS constraint for minimum memory bandwidth
; 755  :                     dwOpm = s_SmartReflexLoadPolicyInfo.dwLprOffOpm;

  00d08	e59f3094	 ldr         r3, [pc, #0x94]
  00d0c	e5933030	 ldr         r3, [r3, #0x30]
  00d10	e58d300c	 str         r3, [sp, #0xC]

; 756  : 
; 757  :                     PmxUpdateConstraint(
; 758  :                         s_SmartReflexLoadPolicyInfo.hDvfsConstraint,
; 759  :                         CONSTRAINT_MSG_DVFS_REQUEST,
; 760  :                         (void*)&dwOpm,
; 761  :                         sizeof(DWORD)
; 762  :                         );

  00d14	e3a03004	 mov         r3, #4
  00d18	e28d200c	 add         r2, sp, #0xC
  00d1c	e3a01001	 mov         r1, #1
  00d20	e59f007c	 ldr         r0, [pc, #0x7C]
  00d24	e590001c	 ldr         r0, [r0, #0x1C]
  00d28	eb000000	 bl          PmxUpdateConstraint

; 763  : 
; 764  :                     //  Update SmartReflex
; 765  :                     s_SmartReflexLoadPolicyInfo.bLprModeState = FALSE;

  00d2c	e59f2070	 ldr         r2, [pc, #0x70]
  00d30	e3a03000	 mov         r3, #0
  00d34	e582302c	 str         r3, [r2, #0x2C]

; 766  :                     s_SmartReflexLoadPolicyInfo.dwActiveDevices++;

  00d38	e59f3064	 ldr         r3, [pc, #0x64]
  00d3c	e5933000	 ldr         r3, [r3]
  00d40	e2832001	 add         r2, r3, #1
  00d44	e59f3058	 ldr         r3, [pc, #0x58]
  00d48	e5832000	 str         r2, [r3]

; 767  :                     UpdateSmartReflex();

  00d4c	eb000000	 bl          |?UpdateSmartReflex@@YAXXZ|
  00d50		 |$LN1@SMARTREFLE@5|
  00d50		 |$LN2@SMARTREFLE@5|
  00d50		 |$LN6@SMARTREFLE@5|

; 768  :                     }
; 769  :                 }
; 770  :             break;
; 771  :         }
; 772  :     // exit routine
; 773  :     rc = TRUE;

  00d50	e3a03001	 mov         r3, #1
  00d54	e58d3004	 str         r3, [sp, #4]
  00d58		 |$LN8@SMARTREFLE@5|
  00d58		 |$LN10@SMARTREFLE@5|
  00d58		 |$cleanUp$37733|

; 774  : 
; 775  : cleanUp:
; 776  :     RETAILMSG(ZONE_FUNCTION, (L"-SMARTREFLEX_NotifyPolicy()\r\n"));

  00d58	e59f3040	 ldr         r3, [pc, #0x40]
  00d5c	e5933440	 ldr         r3, [r3, #0x440]
  00d60	e3130004	 tst         r3, #4
  00d64	0a000004	 beq         |$LN25@SMARTREFLE@5|
  00d68	e59f002c	 ldr         r0, [pc, #0x2C]
  00d6c	eb000000	 bl          NKDbgPrintfW
  00d70	e3a03001	 mov         r3, #1
  00d74	e58d302c	 str         r3, [sp, #0x2C]
  00d78	ea000001	 b           |$LN26@SMARTREFLE@5|
  00d7c		 |$LN25@SMARTREFLE@5|
  00d7c	e3a03000	 mov         r3, #0
  00d80	e58d302c	 str         r3, [sp, #0x2C]
  00d84		 |$LN26@SMARTREFLE@5|

; 777  :     return rc;

  00d84	e59d3004	 ldr         r3, [sp, #4]
  00d88	e58d3014	 str         r3, [sp, #0x14]

; 778  : }

  00d8c	e59d0014	 ldr         r0, [sp, #0x14]
  00d90	e28dd030	 add         sp, sp, #0x30
  00d94	e89d6000	 ldmia       sp, {sp, lr}
  00d98	e12fff1e	 bx          lr
  00d9c		 |$LN30@SMARTREFLE@5|
  00d9c		 |$LN31@SMARTREFLE@5|
  00d9c	00000000	 DCD         |??_C@_1DM@JIGOCN@?$AA?9?$AAS?$AAM?$AAA?$AAR?$AAT?$AAR?$AAE?$AAF?$AAL?$AAE?$AAX?$AA_?$AAN?$AAo?$AAt?$AAi?$AAf?$AAy?$AAP?$AAo?$AAl?$AAi?$AAc?$AAy?$AA?$CI?$AA?$CJ?$AA?$AN?$AA?6?$AA?$AA@|
  00da0		 |$LN32@SMARTREFLE@5|
  00da0	00000000	 DCD         |dpCurSettings|
  00da4		 |$LN33@SMARTREFLE@5|
  00da4	00000000	 DCD         |s_SmartReflexLoadPolicyInfo|
  00da8		 |$LN34@SMARTREFLE@5|
  00da8	00000000	 DCD         |??_C@_1FC@FLMJLJFL@?$AAS?$AAM?$AAA?$AAR?$AAT?$AAR?$AAE?$AAF?$AAL?$AAE?$AAX?$AA_?$AAN?$AAo?$AAt?$AAi?$AAf?$AAy?$AAP?$AAo?$AAl?$AAi?$AAc?$AAy?$AA?3?$AA?5?$AAL?$AAP?$AAR?$AA?5?$AAm?$AAo@|
  00dac		 |$LN35@SMARTREFLE@5|
  00dac	00000000	 DCD         |??_C@_1FA@HBLKMNLH@?$AAS?$AAM?$AAA?$AAR?$AAT?$AAR?$AAE?$AAF?$AAL?$AAE?$AAX?$AA_?$AAN?$AAo?$AAt?$AAi?$AAf?$AAy?$AAP?$AAo?$AAl?$AAi?$AAc?$AAy?$AA?3?$AA?5?$AAL?$AAP?$AAR?$AA?5?$AAm?$AAo@|
  00db0		 |$LN36@SMARTREFLE@5|
  00db0	00000000	 DCD         |?pEnable@?1??SMARTREFLEX_NotifyPolicy@@YAHPAXK0I@Z@4PAHA|
  00db4		 |$LN37@SMARTREFLE@5|
  00db4	00000000	 DCD         |??_C@_1IG@ELLJNDN@?$AAW?$AAA?$AAR?$AAN?$AAI?$AAN?$AAG?$AA?3?$AA?5?$AAS?$AAM?$AAA?$AAR?$AAT?$AAR?$AAE?$AAF?$AAL?$AAE?$AAX?$AA_?$AAN?$AAo?$AAt?$AAi?$AAf?$AAy?$AAP?$AAo?$AAl?$AAi?$AAc@|
  00db8		 |$LN38@SMARTREFLE@5|
  00db8	00000000	 DCD         |??_C@_1HM@BKMHFMGB@?$AAE?$AAR?$AAR?$AAO?$AAR?$AA?3?$AA?5?$AAS?$AAM?$AAA?$AAR?$AAT?$AAR?$AAE?$AAF?$AAL?$AAE?$AAX?$AA_?$AAN?$AAo?$AAt?$AAi?$AAf?$AAy?$AAP?$AAo?$AAl?$AAi?$AAc?$AAy?$AA?3@|
  00dbc		 |$LN39@SMARTREFLE@5|
  00dbc	73747278	 DCD         0x73747278
  00dc0		 |$LN40@SMARTREFLE@5|
  00dc0	00000000	 DCD         |??_C@_1GM@EACNBHGG@?$AA?$CL?$AAS?$AAM?$AAA?$AAR?$AAT?$AAR?$AAE?$AAF?$AAL?$AAE?$AAX?$AA_?$AAN?$AAo?$AAt?$AAi?$AAf?$AAy?$AAP?$AAo?$AAl?$AAi?$AAc?$AAy?$AA?$CI?$AA0?$AAx?$AA?$CF?$AA0?$AA8?$AAx@|
  00dc4		 |$M38016|

			 ENDP  ; |?SMARTREFLEX_NotifyPolicy@@YAHPAXK0I@Z|, SMARTREFLEX_NotifyPolicy

	EXPORT	|??_C@_1EM@FMLOFHEC@?$AA?9?$AAS?$AAM?$AAA?$AAR?$AAT?$AAR?$AAE?$AAF?$AAL?$AAE?$AAX?$AA_?$AAP?$AAr?$AAe?$AAD?$AAe?$AAv?$AAi?$AAc?$AAe?$AAS?$AAt?$AAa?$AAt?$AAe?$AAC?$AAh?$AAa?$AAn?$AAg@| [ DATA ] ; `string'
	EXPORT	|??_C@_1FK@IAAFBHNF@?$AAS?$AAm?$AAa?$AAr?$AAt?$AAR?$AAe?$AAf?$AAl?$AAe?$AAx?$AAP?$AAo?$AAl?$AAi?$AAc?$AAy?$AA?3?$AA?5?$AAC?$AAO?$AAR?$AAE?$AA?5?$AAA?$AAc?$AAt?$AAi?$AAv?$AAe?$AA?5?$AAD@| [ DATA ] ; `string'
	EXPORT	|??_C@_1IE@GLOKMLDB@?$AA?$CL?$AAS?$AAM?$AAA?$AAR?$AAT?$AAR?$AAE?$AAF?$AAL?$AAE?$AAX?$AA_?$AAP?$AAr?$AAe?$AAD?$AAe?$AAv?$AAi?$AAc?$AAe?$AAS?$AAt?$AAa?$AAt?$AAe?$AAC?$AAh?$AAa?$AAn?$AAg@| [ DATA ] ; `string'
	EXPORT	|?SMARTREFLEX_PreDeviceStateChange@@YAHPAXIII@Z| ; SMARTREFLEX_PreDeviceStateChange

  00068			 AREA	 |.pdata|, PDATA
|$T38045| DCD	|$LN23@SMARTREFLE@6|
	DCD	0x40007e04

  00000			 AREA	 |.rdata|, DATA, READONLY
|??_C@_1EM@FMLOFHEC@?$AA?9?$AAS?$AAM?$AAA?$AAR?$AAT?$AAR?$AAE?$AAF?$AAL?$AAE?$AAX?$AA_?$AAP?$AAr?$AAe?$AAD?$AAe?$AAv?$AAi?$AAc?$AAe?$AAS?$AAt?$AAa?$AAt?$AAe?$AAC?$AAh?$AAa?$AAn?$AAg@| DCB "-"
	DCB	0x0, "S", 0x0, "M", 0x0, "A", 0x0, "R", 0x0, "T", 0x0, "R"
	DCB	0x0, "E", 0x0, "F", 0x0, "L", 0x0, "E", 0x0, "X", 0x0, "_"
	DCB	0x0, "P", 0x0, "r", 0x0, "e", 0x0, "D", 0x0, "e", 0x0, "v"
	DCB	0x0, "i", 0x0, "c", 0x0, "e", 0x0, "S", 0x0, "t", 0x0, "a"
	DCB	0x0, "t", 0x0, "e", 0x0, "C", 0x0, "h", 0x0, "a", 0x0, "n"
	DCB	0x0, "g", 0x0, "e", 0x0, "(", 0x0, ")", 0x0, 0xd, 0x0, 0xa
	DCB	0x0, 0x0, 0x0				; `string'

  00000			 AREA	 |.rdata|, DATA, READONLY
|??_C@_1FK@IAAFBHNF@?$AAS?$AAm?$AAa?$AAr?$AAt?$AAR?$AAe?$AAf?$AAl?$AAe?$AAx?$AAP?$AAo?$AAl?$AAi?$AAc?$AAy?$AA?3?$AA?5?$AAC?$AAO?$AAR?$AAE?$AA?5?$AAA?$AAc?$AAt?$AAi?$AAv?$AAe?$AA?5?$AAD@| DCB "S"
	DCB	0x0, "m", 0x0, "a", 0x0, "r", 0x0, "t", 0x0, "R", 0x0, "e"
	DCB	0x0, "f", 0x0, "l", 0x0, "e", 0x0, "x", 0x0, "P", 0x0, "o"
	DCB	0x0, "l", 0x0, "i", 0x0, "c", 0x0, "y", 0x0, ":", 0x0, " "
	DCB	0x0, "C", 0x0, "O", 0x0, "R", 0x0, "E", 0x0, " ", 0x0, "A"
	DCB	0x0, "c", 0x0, "t", 0x0, "i", 0x0, "v", 0x0, "e", 0x0, " "
	DCB	0x0, "D", 0x0, "e", 0x0, "v", 0x0, "i", 0x0, "c", 0x0, "e"
	DCB	0x0, "s", 0x0, ":", 0x0, " ", 0x0, "%", 0x0, "d", 0x0, 0xd
	DCB	0x0, 0xa, 0x0, 0x0, 0x0			; `string'

  00000			 AREA	 |.rdata|, DATA, READONLY
|??_C@_1IE@GLOKMLDB@?$AA?$CL?$AAS?$AAM?$AAA?$AAR?$AAT?$AAR?$AAE?$AAF?$AAL?$AAE?$AAX?$AA_?$AAP?$AAr?$AAe?$AAD?$AAe?$AAv?$AAi?$AAc?$AAe?$AAS?$AAt?$AAa?$AAt?$AAe?$AAC?$AAh?$AAa?$AAn?$AAg@| DCB "+"
	DCB	0x0, "S", 0x0, "M", 0x0, "A", 0x0, "R", 0x0, "T", 0x0, "R"
	DCB	0x0, "E", 0x0, "F", 0x0, "L", 0x0, "E", 0x0, "X", 0x0, "_"
	DCB	0x0, "P", 0x0, "r", 0x0, "e", 0x0, "D", 0x0, "e", 0x0, "v"
	DCB	0x0, "i", 0x0, "c", 0x0, "e", 0x0, "S", 0x0, "t", 0x0, "a"
	DCB	0x0, "t", 0x0, "e", 0x0, "C", 0x0, "h", 0x0, "a", 0x0, "n"
	DCB	0x0, "g", 0x0, "e", 0x0, "(", 0x0, "0", 0x0, "x", 0x0, "%"
	DCB	0x0, "0", 0x0, "8", 0x0, "x", 0x0, ",", 0x0, "0", 0x0, "x"
	DCB	0x0, "%", 0x0, "0", 0x0, "2", 0x0, "x", 0x0, ",", 0x0, "0"
	DCB	0x0, "x", 0x0, "%", 0x0, "0", 0x0, "2", 0x0, "x", 0x0, ","
	DCB	0x0, "0", 0x0, "x", 0x0, "%", 0x0, "0", 0x0, "2", 0x0, "x"
	DCB	0x0, " ", 0x0, ")", 0x0, 0xd, 0x0, 0xa, 0x0, 0x0, 0x0 ; `string'
; Function compile flags: /Odtp

  00dc4			 AREA	 |.text|, CODE, ARM

  00dc4		 |?SMARTREFLEX_PreDeviceStateChange@@YAHPAXIII@Z| PROC ; SMARTREFLEX_PreDeviceStateChange

; 794  : {

  00dc4		 |$LN23@SMARTREFLE@6|
  00dc4	e1a0c00d	 mov         r12, sp
  00dc8	e92d000f	 stmdb       sp!, {r0 - r3}
  00dcc	e92d5000	 stmdb       sp!, {r12, lr}
  00dd0	e24dd020	 sub         sp, sp, #0x20
  00dd4		 |$M38042|

; 795  :     RETAILMSG(ZONE_FUNCTION, (
; 796  :       L"+SMARTREFLEX_PreDeviceStateChange(0x%08x,0x%02x,0x%02x,0x%02x )\r\n",
; 797  :       hPolicyAdapter,
; 798  :       dev,
; 799  :       oldState,
; 800  :       newState
; 801  :       ));

  00dd4	e59f31d0	 ldr         r3, [pc, #0x1D0]
  00dd8	e5933440	 ldr         r3, [r3, #0x440]
  00ddc	e3130004	 tst         r3, #4
  00de0	0a000009	 beq         |$LN13@SMARTREFLE@6|
  00de4	e59d3034	 ldr         r3, [sp, #0x34]
  00de8	e58d3000	 str         r3, [sp]
  00dec	e59d3030	 ldr         r3, [sp, #0x30]
  00df0	e59d202c	 ldr         r2, [sp, #0x2C]
  00df4	e59d1028	 ldr         r1, [sp, #0x28]
  00df8	e59f01b8	 ldr         r0, [pc, #0x1B8]
  00dfc	eb000000	 bl          NKDbgPrintfW
  00e00	e3a03001	 mov         r3, #1
  00e04	e58d3010	 str         r3, [sp, #0x10]
  00e08	ea000001	 b           |$LN14@SMARTREFLE@6|
  00e0c		 |$LN13@SMARTREFLE@6|
  00e0c	e3a03000	 mov         r3, #0
  00e10	e58d3010	 str         r3, [sp, #0x10]
  00e14		 |$LN14@SMARTREFLE@6|

; 802  : 
; 803  :     BOOL bCoreDevice = FALSE;

  00e14	e3a03000	 mov         r3, #0
  00e18	e58d3004	 str         r3, [sp, #4]

; 804  : 
; 805  :     // validate parameters
; 806  :     if (hPolicyAdapter != (HANDLE)&s_SmartReflexLoadPolicyInfo) return FALSE;

  00e1c	e59d2028	 ldr         r2, [sp, #0x28]
  00e20	e59f318c	 ldr         r3, [pc, #0x18C]
  00e24	e1520003	 cmp         r2, r3
  00e28	0a000002	 beq         |$LN10@SMARTREFLE@6|
  00e2c	e3a03000	 mov         r3, #0
  00e30	e58d300c	 str         r3, [sp, #0xC]
  00e34	ea000057	 b           |$LN11@SMARTREFLE@6|
  00e38		 |$LN10@SMARTREFLE@6|

; 807  : 
; 808  :     // record the new device state for the device
; 809  :     if (dev >= OMAP_DEVICE_GENERIC) return TRUE;

  00e38	e59d302c	 ldr         r3, [sp, #0x2C]
  00e3c	e3530050	 cmp         r3, #0x50
  00e40	3a000002	 bcc         |$LN9@SMARTREFLE@6|
  00e44	e3a03001	 mov         r3, #1
  00e48	e58d300c	 str         r3, [sp, #0xC]
  00e4c	ea000051	 b           |$LN11@SMARTREFLE@6|
  00e50		 |$LN9@SMARTREFLE@6|

; 810  : 
; 811  :     switch (dev)

  00e50	e59d302c	 ldr         r3, [sp, #0x2C]
  00e54	e58d3014	 str         r3, [sp, #0x14]
  00e58	e59d3014	 ldr         r3, [sp, #0x14]
  00e5c	e3530034	 cmp         r3, #0x34
  00e60	8a000010	 bhi         |$LN17@SMARTREFLE@6|
  00e64	e59d3014	 ldr         r3, [sp, #0x14]
  00e68	e3530032	 cmp         r3, #0x32
  00e6c	2a000013	 bcs         |$LN5@SMARTREFLE@6|
  00e70	e59d3014	 ldr         r3, [sp, #0x14]
  00e74	e3530023	 cmp         r3, #0x23
  00e78	8a000009	 bhi         |$LN18@SMARTREFLE@6|
  00e7c	e59d3014	 ldr         r3, [sp, #0x14]
  00e80	e3530021	 cmp         r3, #0x21
  00e84	2a00000b	 bcs         |$LN6@SMARTREFLE@6|
  00e88	e59d3014	 ldr         r3, [sp, #0x14]
  00e8c	e3530006	 cmp         r3, #6
  00e90	3a00002f	 bcc         |$LN7@SMARTREFLE@6|
  00e94	e59d3014	 ldr         r3, [sp, #0x14]
  00e98	e3530017	 cmp         r3, #0x17
  00e9c	9a000005	 bls         |$LN6@SMARTREFLE@6|
  00ea0	ea00002b	 b           |$LN7@SMARTREFLE@6|
  00ea4		 |$LN18@SMARTREFLE@6|
  00ea4	ea00002a	 b           |$LN7@SMARTREFLE@6|
  00ea8		 |$LN17@SMARTREFLE@6|
  00ea8	e59d3014	 ldr         r3, [sp, #0x14]
  00eac	e3530048	 cmp         r3, #0x48
  00eb0	0a000002	 beq         |$LN5@SMARTREFLE@6|
  00eb4	ea000026	 b           |$LN7@SMARTREFLE@6|
  00eb8		 |$LN6@SMARTREFLE@6|

; 812  :         {
; 813  :         case OMAP_DEVICE_I2C1:
; 814  :         case OMAP_DEVICE_I2C2:
; 815  :         case OMAP_DEVICE_I2C3:
; 816  :         case OMAP_DEVICE_MMC1:
; 817  :         case OMAP_DEVICE_MMC2:
; 818  :         case OMAP_DEVICE_MMC3:
; 819  :         case OMAP_DEVICE_USBTLL:
; 820  :         case OMAP_DEVICE_HDQ:
; 821  :         case OMAP_DEVICE_MCBSP1:
; 822  :         case OMAP_DEVICE_MCBSP5:
; 823  :         case OMAP_DEVICE_MCSPI1:
; 824  :         case OMAP_DEVICE_MCSPI2:
; 825  :         case OMAP_DEVICE_MCSPI3:
; 826  :         case OMAP_DEVICE_MCSPI4:
; 827  :         case OMAP_DEVICE_UART1:
; 828  :         case OMAP_DEVICE_UART2:
; 829  :         case OMAP_DEVICE_TS:
; 830  :         case OMAP_DEVICE_GPTIMER10:
; 831  :         case OMAP_DEVICE_GPTIMER11:
; 832  :         case OMAP_DEVICE_MSPRO:
; 833  :         case OMAP_DEVICE_EFUSE:
; 834  : 
; 835  :             // Core devices can effect the load on vdd2.  So
; 836  :             // a recalibration of vdd2 may be required of currently in
; 837  :             // opm0.
; 838  :             bCoreDevice = true;

  00eb8	e3a03001	 mov         r3, #1
  00ebc	e58d3004	 str         r3, [sp, #4]
  00ec0		 |$LN5@SMARTREFLE@6|

; 839  : 
; 840  :             // fall-through
; 841  :         case OMAP_DEVICE_MCBSP2:
; 842  :         case OMAP_DEVICE_MCBSP3:
; 843  :         case OMAP_DEVICE_MCBSP4:
; 844  :             // PER devices
; 845  : 
; 846  :             // fall-through
; 847  :         case OMAP_DEVICE_SGX:
; 848  :             if (newState < (UINT)D3 && oldState >= (UINT)D3)

  00ec0	e59d3034	 ldr         r3, [sp, #0x34]
  00ec4	e3530003	 cmp         r3, #3
  00ec8	2a000008	 bcs         |$LN4@SMARTREFLE@6|
  00ecc	e59d3030	 ldr         r3, [sp, #0x30]
  00ed0	e3530003	 cmp         r3, #3
  00ed4	3a000005	 bcc         |$LN4@SMARTREFLE@6|

; 849  :                 {
; 850  :                 //Add an Active device
; 851  :                 s_SmartReflexLoadPolicyInfo.dwActiveDevices++;

  00ed8	e59f30d4	 ldr         r3, [pc, #0xD4]
  00edc	e5933000	 ldr         r3, [r3]
  00ee0	e2832001	 add         r2, r3, #1
  00ee4	e59f30c8	 ldr         r3, [pc, #0xC8]
  00ee8	e5832000	 str         r2, [r3]
  00eec	ea00000a	 b           |$LN3@SMARTREFLE@6|
  00ef0		 |$LN4@SMARTREFLE@6|

; 852  :                 }
; 853  :             else if (newState >= (UINT)D3 && oldState < (UINT)D3)

  00ef0	e59d3034	 ldr         r3, [sp, #0x34]
  00ef4	e3530003	 cmp         r3, #3
  00ef8	3a000007	 bcc         |$LN2@SMARTREFLE@6|
  00efc	e59d3030	 ldr         r3, [sp, #0x30]
  00f00	e3530003	 cmp         r3, #3
  00f04	2a000004	 bcs         |$LN2@SMARTREFLE@6|

; 854  :                 {
; 855  :                 //Remove an Active device
; 856  :                 s_SmartReflexLoadPolicyInfo.dwActiveDevices--;

  00f08	e59f30a4	 ldr         r3, [pc, #0xA4]
  00f0c	e5933000	 ldr         r3, [r3]
  00f10	e2432001	 sub         r2, r3, #1
  00f14	e59f3098	 ldr         r3, [pc, #0x98]
  00f18	e5832000	 str         r2, [r3]
  00f1c		 |$LN2@SMARTREFLE@6|
  00f1c		 |$LN3@SMARTREFLE@6|

; 857  :                 }
; 858  : 
; 859  :             UpdateSmartReflex();

  00f1c	eb000000	 bl          |?UpdateSmartReflex@@YAXXZ|

; 860  : 
; 861  :             RETAILMSG(ZONE_INFO, (L"SmartReflexPolicy: CORE Active Devices: %d\r\n",
; 862  :                 s_SmartReflexLoadPolicyInfo.dwActiveDevices
; 863  :                 ));

  00f20	e59f3084	 ldr         r3, [pc, #0x84]
  00f24	e5933440	 ldr         r3, [r3, #0x440]
  00f28	e3130008	 tst         r3, #8
  00f2c	0a000006	 beq         |$LN15@SMARTREFLE@6|
  00f30	e59f307c	 ldr         r3, [pc, #0x7C]
  00f34	e5931000	 ldr         r1, [r3]
  00f38	e59f0070	 ldr         r0, [pc, #0x70]
  00f3c	eb000000	 bl          NKDbgPrintfW
  00f40	e3a03001	 mov         r3, #1
  00f44	e58d3018	 str         r3, [sp, #0x18]
  00f48	ea000001	 b           |$LN16@SMARTREFLE@6|
  00f4c		 |$LN15@SMARTREFLE@6|
  00f4c	e3a03000	 mov         r3, #0
  00f50	e58d3018	 str         r3, [sp, #0x18]
  00f54		 |$LN16@SMARTREFLE@6|
  00f54		 |$LN7@SMARTREFLE@6|

; 864  : 
; 865  :             break;
; 866  :         }
; 867  : 
; 868  :     // recalibrate new voltage levels if SmartReflex is disabled and we're at opm0
; 869  :     if (bCoreDevice == 0)

  00f54	e59d3004	 ldr         r3, [sp, #4]
  00f58	e3530000	 cmp         r3, #0
  00f5c	1a000000	 bne         |$LN1@SMARTREFLE@6|

; 870  :         {
; 871  :         SignalSensingThread();

  00f60	eb000000	 bl          |?SignalSensingThread@@YAXXZ|
  00f64		 |$LN1@SMARTREFLE@6|

; 872  :         }
; 873  : 
; 874  :     RETAILMSG(ZONE_FUNCTION, (L"-SMARTREFLEX_PreDeviceStateChange()\r\n"));

  00f64	e59f3040	 ldr         r3, [pc, #0x40]
  00f68	e5933440	 ldr         r3, [r3, #0x440]
  00f6c	e3130004	 tst         r3, #4
  00f70	0a000004	 beq         |$LN19@SMARTREFLE@6|
  00f74	e59f002c	 ldr         r0, [pc, #0x2C]
  00f78	eb000000	 bl          NKDbgPrintfW
  00f7c	e3a03001	 mov         r3, #1
  00f80	e58d301c	 str         r3, [sp, #0x1C]
  00f84	ea000001	 b           |$LN20@SMARTREFLE@6|
  00f88		 |$LN19@SMARTREFLE@6|
  00f88	e3a03000	 mov         r3, #0
  00f8c	e58d301c	 str         r3, [sp, #0x1C]
  00f90		 |$LN20@SMARTREFLE@6|

; 875  :     return TRUE;

  00f90	e3a03001	 mov         r3, #1
  00f94	e58d300c	 str         r3, [sp, #0xC]
  00f98		 |$LN11@SMARTREFLE@6|

; 876  : }

  00f98	e59d000c	 ldr         r0, [sp, #0xC]
  00f9c	e28dd020	 add         sp, sp, #0x20
  00fa0	e89d6000	 ldmia       sp, {sp, lr}
  00fa4	e12fff1e	 bx          lr
  00fa8		 |$LN24@SMARTREFLE@6|
  00fa8		 |$LN25@SMARTREFLE@6|
  00fa8	00000000	 DCD         |??_C@_1EM@FMLOFHEC@?$AA?9?$AAS?$AAM?$AAA?$AAR?$AAT?$AAR?$AAE?$AAF?$AAL?$AAE?$AAX?$AA_?$AAP?$AAr?$AAe?$AAD?$AAe?$AAv?$AAi?$AAc?$AAe?$AAS?$AAt?$AAa?$AAt?$AAe?$AAC?$AAh?$AAa?$AAn?$AAg@|
  00fac		 |$LN26@SMARTREFLE@6|
  00fac	00000000	 DCD         |dpCurSettings|
  00fb0		 |$LN27@SMARTREFLE@6|
  00fb0	00000000	 DCD         |??_C@_1FK@IAAFBHNF@?$AAS?$AAm?$AAa?$AAr?$AAt?$AAR?$AAe?$AAf?$AAl?$AAe?$AAx?$AAP?$AAo?$AAl?$AAi?$AAc?$AAy?$AA?3?$AA?5?$AAC?$AAO?$AAR?$AAE?$AA?5?$AAA?$AAc?$AAt?$AAi?$AAv?$AAe?$AA?5?$AAD@|
  00fb4		 |$LN28@SMARTREFLE@6|
  00fb4	00000000	 DCD         |s_SmartReflexLoadPolicyInfo|
  00fb8		 |$LN29@SMARTREFLE@6|
  00fb8	00000000	 DCD         |??_C@_1IE@GLOKMLDB@?$AA?$CL?$AAS?$AAM?$AAA?$AAR?$AAT?$AAR?$AAE?$AAF?$AAL?$AAE?$AAX?$AA_?$AAP?$AAr?$AAe?$AAD?$AAe?$AAv?$AAi?$AAc?$AAe?$AAS?$AAt?$AAa?$AAt?$AAe?$AAC?$AAh?$AAa?$AAn?$AAg@|
  00fbc		 |$M38043|

			 ENDP  ; |?SMARTREFLEX_PreDeviceStateChange@@YAHPAXIII@Z|, SMARTREFLEX_PreDeviceStateChange

	EXPORT	|??_C@_1EO@PNOIICGB@?$AA?9?$AAS?$AAM?$AAA?$AAR?$AAT?$AAR?$AAE?$AAF?$AAL?$AAE?$AAX?$AA_?$AAP?$AAo?$AAs?$AAt?$AAD?$AAe?$AAv?$AAi?$AAc?$AAe?$AAS?$AAt?$AAa?$AAt?$AAe?$AAC?$AAh?$AAa?$AAn@| [ DATA ] ; `string'
	EXPORT	|??_C@_1IG@OMOEKAOD@?$AA?$CL?$AAS?$AAM?$AAA?$AAR?$AAT?$AAR?$AAE?$AAF?$AAL?$AAE?$AAX?$AA_?$AAP?$AAo?$AAs?$AAt?$AAD?$AAe?$AAv?$AAi?$AAc?$AAe?$AAS?$AAt?$AAa?$AAt?$AAe?$AAC?$AAh?$AAa?$AAn@| [ DATA ] ; `string'
	EXPORT	|?SMARTREFLEX_PostDeviceStateChange@@YAHPAXIII@Z| ; SMARTREFLEX_PostDeviceStateChange

  00070			 AREA	 |.pdata|, PDATA
|$T38062| DCD	|$LN9@SMARTREFLE@7|
	DCD	0x40002804

  00000			 AREA	 |.rdata|, DATA, READONLY
|??_C@_1EO@PNOIICGB@?$AA?9?$AAS?$AAM?$AAA?$AAR?$AAT?$AAR?$AAE?$AAF?$AAL?$AAE?$AAX?$AA_?$AAP?$AAo?$AAs?$AAt?$AAD?$AAe?$AAv?$AAi?$AAc?$AAe?$AAS?$AAt?$AAa?$AAt?$AAe?$AAC?$AAh?$AAa?$AAn@| DCB "-"
	DCB	0x0, "S", 0x0, "M", 0x0, "A", 0x0, "R", 0x0, "T", 0x0, "R"
	DCB	0x0, "E", 0x0, "F", 0x0, "L", 0x0, "E", 0x0, "X", 0x0, "_"
	DCB	0x0, "P", 0x0, "o", 0x0, "s", 0x0, "t", 0x0, "D", 0x0, "e"
	DCB	0x0, "v", 0x0, "i", 0x0, "c", 0x0, "e", 0x0, "S", 0x0, "t"
	DCB	0x0, "a", 0x0, "t", 0x0, "e", 0x0, "C", 0x0, "h", 0x0, "a"
	DCB	0x0, "n", 0x0, "g", 0x0, "e", 0x0, "(", 0x0, ")", 0x0, 0xd
	DCB	0x0, 0xa, 0x0, 0x0, 0x0			; `string'

  00000			 AREA	 |.rdata|, DATA, READONLY
|??_C@_1IG@OMOEKAOD@?$AA?$CL?$AAS?$AAM?$AAA?$AAR?$AAT?$AAR?$AAE?$AAF?$AAL?$AAE?$AAX?$AA_?$AAP?$AAo?$AAs?$AAt?$AAD?$AAe?$AAv?$AAi?$AAc?$AAe?$AAS?$AAt?$AAa?$AAt?$AAe?$AAC?$AAh?$AAa?$AAn@| DCB "+"
	DCB	0x0, "S", 0x0, "M", 0x0, "A", 0x0, "R", 0x0, "T", 0x0, "R"
	DCB	0x0, "E", 0x0, "F", 0x0, "L", 0x0, "E", 0x0, "X", 0x0, "_"
	DCB	0x0, "P", 0x0, "o", 0x0, "s", 0x0, "t", 0x0, "D", 0x0, "e"
	DCB	0x0, "v", 0x0, "i", 0x0, "c", 0x0, "e", 0x0, "S", 0x0, "t"
	DCB	0x0, "a", 0x0, "t", 0x0, "e", 0x0, "C", 0x0, "h", 0x0, "a"
	DCB	0x0, "n", 0x0, "g", 0x0, "e", 0x0, "(", 0x0, "0", 0x0, "x"
	DCB	0x0, "%", 0x0, "0", 0x0, "8", 0x0, "x", 0x0, ",", 0x0, "0"
	DCB	0x0, "x", 0x0, "%", 0x0, "0", 0x0, "2", 0x0, "x", 0x0, ","
	DCB	0x0, "0", 0x0, "x", 0x0, "%", 0x0, "0", 0x0, "2", 0x0, "x"
	DCB	0x0, ",", 0x0, "0", 0x0, "x", 0x0, "%", 0x0, "0", 0x0, "2"
	DCB	0x0, "x", 0x0, " ", 0x0, ")", 0x0, 0xd, 0x0, 0xa, 0x0, 0x0
	DCB	0x0					; `string'
; Function compile flags: /Odtp

  00fbc			 AREA	 |.text|, CODE, ARM

  00fbc		 |?SMARTREFLEX_PostDeviceStateChange@@YAHPAXIII@Z| PROC ; SMARTREFLEX_PostDeviceStateChange

; 891  : {

  00fbc		 |$LN9@SMARTREFLE@7|
  00fbc	e1a0c00d	 mov         r12, sp
  00fc0	e92d000f	 stmdb       sp!, {r0 - r3}
  00fc4	e92d5000	 stmdb       sp!, {r12, lr}
  00fc8	e24dd014	 sub         sp, sp, #0x14
  00fcc		 |$M38059|

; 892  : 	UNREFERENCED_PARAMETER(hPolicyAdapter);
; 893  : 	UNREFERENCED_PARAMETER(dev);
; 894  : 	UNREFERENCED_PARAMETER(oldState);
; 895  : 	UNREFERENCED_PARAMETER(newState);
; 896  : 
; 897  :     RETAILMSG(ZONE_FUNCTION, (
; 898  :       L"+SMARTREFLEX_PostDeviceStateChange(0x%08x,0x%02x,0x%02x,0x%02x )\r\n",
; 899  :       hPolicyAdapter,
; 900  :       dev,
; 901  :       oldState,
; 902  :       newState
; 903  :       ));

  00fcc	e59f3080	 ldr         r3, [pc, #0x80]
  00fd0	e5933440	 ldr         r3, [r3, #0x440]
  00fd4	e3130004	 tst         r3, #4
  00fd8	0a000009	 beq         |$LN3@SMARTREFLE@7|
  00fdc	e59d3028	 ldr         r3, [sp, #0x28]
  00fe0	e58d3000	 str         r3, [sp]
  00fe4	e59d3024	 ldr         r3, [sp, #0x24]
  00fe8	e59d2020	 ldr         r2, [sp, #0x20]
  00fec	e59d101c	 ldr         r1, [sp, #0x1C]
  00ff0	e59f0060	 ldr         r0, [pc, #0x60]
  00ff4	eb000000	 bl          NKDbgPrintfW
  00ff8	e3a03001	 mov         r3, #1
  00ffc	e58d300c	 str         r3, [sp, #0xC]
  01000	ea000001	 b           |$LN4@SMARTREFLE@7|
  01004		 |$LN3@SMARTREFLE@7|
  01004	e3a03000	 mov         r3, #0
  01008	e58d300c	 str         r3, [sp, #0xC]
  0100c		 |$LN4@SMARTREFLE@7|

; 904  : 
; 905  :     RETAILMSG(ZONE_FUNCTION, (L"-SMARTREFLEX_PostDeviceStateChange()\r\n"));

  0100c	e59f3040	 ldr         r3, [pc, #0x40]
  01010	e5933440	 ldr         r3, [r3, #0x440]
  01014	e3130004	 tst         r3, #4
  01018	0a000004	 beq         |$LN5@SMARTREFLE@7|
  0101c	e59f002c	 ldr         r0, [pc, #0x2C]
  01020	eb000000	 bl          NKDbgPrintfW
  01024	e3a03001	 mov         r3, #1
  01028	e58d3010	 str         r3, [sp, #0x10]
  0102c	ea000001	 b           |$LN6@SMARTREFLE@7|
  01030		 |$LN5@SMARTREFLE@7|
  01030	e3a03000	 mov         r3, #0
  01034	e58d3010	 str         r3, [sp, #0x10]
  01038		 |$LN6@SMARTREFLE@7|

; 906  :     return TRUE;

  01038	e3a03001	 mov         r3, #1
  0103c	e58d3008	 str         r3, [sp, #8]

; 907  : }

  01040	e59d0008	 ldr         r0, [sp, #8]
  01044	e28dd014	 add         sp, sp, #0x14
  01048	e89d6000	 ldmia       sp, {sp, lr}
  0104c	e12fff1e	 bx          lr
  01050		 |$LN10@SMARTREFLE@7|
  01050		 |$LN11@SMARTREFLE@7|
  01050	00000000	 DCD         |??_C@_1EO@PNOIICGB@?$AA?9?$AAS?$AAM?$AAA?$AAR?$AAT?$AAR?$AAE?$AAF?$AAL?$AAE?$AAX?$AA_?$AAP?$AAo?$AAs?$AAt?$AAD?$AAe?$AAv?$AAi?$AAc?$AAe?$AAS?$AAt?$AAa?$AAt?$AAe?$AAC?$AAh?$AAa?$AAn@|
  01054		 |$LN12@SMARTREFLE@7|
  01054	00000000	 DCD         |dpCurSettings|
  01058		 |$LN13@SMARTREFLE@7|
  01058	00000000	 DCD         |??_C@_1IG@OMOEKAOD@?$AA?$CL?$AAS?$AAM?$AAA?$AAR?$AAT?$AAR?$AAE?$AAF?$AAL?$AAE?$AAX?$AA_?$AAP?$AAo?$AAs?$AAt?$AAD?$AAe?$AAv?$AAi?$AAc?$AAe?$AAS?$AAt?$AAa?$AAt?$AAe?$AAC?$AAh?$AAa?$AAn@|
  0105c		 |$M38060|

			 ENDP  ; |?SMARTREFLEX_PostDeviceStateChange@@YAHPAXIII@Z|, SMARTREFLEX_PostDeviceStateChange

	END
