; Listing generated by Microsoft (R) Optimizing Compiler Version 14.01.60511.01 

	TTL	C:\WINCE600\PLATFORM\COMMON\SRC\SOC\OMAP2420_MS_V1\SDHC\IMPL\sdcontroller.cpp
	CODE32

  00000			 AREA	 |.drectve|, DRECTVE
	DCB	"-defaultlib:LIBCMT "
	DCB	"-defaultlib:OLDNAMES "

	EXPORT	|SetEvent|
	IMPORT	|EventModify|
; File c:\wince600\public\common\sdk\inc\kfuncs.h

  00000			 AREA	 |.pdata|, PDATA
|$T40881| DCD	|$LN5@SetEvent|
	DCD	0x40000501
; Function compile flags: /Ogspy

  00000			 AREA	 |.text|, CODE, ARM

  00000		 |SetEvent| PROC

; 235  : _inline BOOL SetEvent(HANDLE h) {

  00000		 |$LN5@SetEvent|
  00000	e52de004	 str         lr, [sp, #-4]!
  00004		 |$M40878|

; 236  : 	return EventModify(h,EVENT_SET);

  00004	e3a01003	 mov         r1, #3
  00008	eb000000	 bl          EventModify

; 237  : }

  0000c	e49de004	 ldr         lr, [sp], #4
  00010	e12fff1e	 bx          lr
  00014		 |$M40879|

			 ENDP  ; |SetEvent|

	EXPORT	|GetCurrentThread|

  00000			 AREA	 |.pdata|, PDATA
|$T40890| DCD	|$LN5@GetCurrent|
	DCD	0x40000200
; Function compile flags: /Ogspy

  00000			 AREA	 |.text|, CODE, ARM

  00000		 |GetCurrentThread| PROC

; 351  : _inline HANDLE GetCurrentThread(void) {

  00000		 |$LN5@GetCurrent|
  00000		 |$M40887|

; 352  : 	return ((HANDLE)(SH_CURTHREAD+SYS_HANDLE_BASE));

  00000	e3a00041	 mov         r0, #0x41

; 353  : }

  00004	e12fff1e	 bx          lr
  00008		 |$M40888|

			 ENDP  ; |GetCurrentThread|

	EXPORT	|?ValueDW@CReg@@QAAKPBGK@Z|		; CReg::ValueDW
	IMPORT	|RegQueryValueExW|
; File c:\wince600\public\common\sdk\inc\creg.hxx

  00000			 AREA	 |.pdata|, PDATA
|$T40903| DCD	|$LN6@ValueDW|
	DCD	0x40001402
; Function compile flags: /Ogspy

  00000			 AREA	 |.text|, CODE, ARM

  00000		 |?ValueDW@CReg@@QAAKPBGK@Z| PROC	; CReg::ValueDW

; 197  : 	DWORD ValueDW(LPCTSTR szName, DWORD dwDefault=0) {

  00000		 |$LN6@ValueDW|
  00000	e52de004	 str         lr, [sp, #-4]!
  00004	e24dd010	 sub         sp, sp, #0x10
  00008		 |$M40900|

; 198  : 		DWORD dwValue = dwDefault;
; 199  : 		if(m_hKey) 

  00008	e5903000	 ldr         r3, [r0]
  0000c	e58d2008	 str         r2, [sp, #8]
  00010	e1b00003	 movs        r0, r3
  00014	0a000009	 beq         |$LN1@ValueDW|

; 200  : 		{
; 201  : 			DWORD dwLen = sizeof(DWORD);
; 202  : 			RegQueryValueEx(m_hKey, szName, NULL, NULL, (LPBYTE)&dwValue, &dwLen);

  00018	e28d300c	 add         r3, sp, #0xC
  0001c	e28d2008	 add         r2, sp, #8
  00020	e58d3004	 str         r3, [sp, #4]
  00024	e58d2000	 str         r2, [sp]
  00028	e3a0e004	 mov         lr, #4
  0002c	e3a03000	 mov         r3, #0
  00030	e3a02000	 mov         r2, #0
  00034	e58de00c	 str         lr, [sp, #0xC]
  00038	eb000000	 bl          RegQueryValueExW
  0003c	e59d2008	 ldr         r2, [sp, #8]
  00040		 |$LN1@ValueDW|

; 203  : 		}
; 204  : 		return dwValue;
; 205  : 	}

  00040	e1a00002	 mov         r0, r2
  00044	e28dd010	 add         sp, sp, #0x10
  00048	e49de004	 ldr         lr, [sp], #4
  0004c	e12fff1e	 bx          lr
  00050		 |$M40901|

			 ENDP  ; |?ValueDW@CReg@@QAAKPBGK@Z|, CReg::ValueDW

	EXPORT	|?get_Slot1State@CMenelaus@@QBAHXZ|	; CMenelaus::get_Slot1State
; File c:\wince600\platform\common\src\soc\omap2420_ms_v1\sdhc\impl\menelaus.h

  00000			 AREA	 |.pdata|, PDATA
|$T40913| DCD	|$LN5@get_Slot1S|
	DCD	0x40000200
; Function compile flags: /Ogspy

  00000			 AREA	 |.text|, CODE, ARM

  00000		 |?get_Slot1State@CMenelaus@@QBAHXZ| PROC ; CMenelaus::get_Slot1State

; 35   : 	BOOL get_Slot1State() const {return m_bSlot1;}

  00000		 |$LN5@get_Slot1S|
  00000		 |$M40910|
  00000	e5900010	 ldr         r0, [r0, #0x10]
  00004	e12fff1e	 bx          lr
  00008		 |$M40911|

			 ENDP  ; |?get_Slot1State@CMenelaus@@QBAHXZ|, CMenelaus::get_Slot1State

	EXPORT	|?get_Slot2State@CMenelaus@@QBAHXZ|	; CMenelaus::get_Slot2State

  00000			 AREA	 |.pdata|, PDATA
|$T40923| DCD	|$LN5@get_Slot2S|
	DCD	0x40000200
; Function compile flags: /Ogspy

  00000			 AREA	 |.text|, CODE, ARM

  00000		 |?get_Slot2State@CMenelaus@@QBAHXZ| PROC ; CMenelaus::get_Slot2State

; 36   : 	BOOL get_Slot2State() const {return m_bSlot2;}

  00000		 |$LN5@get_Slot2S|
  00000		 |$M40920|
  00000	e5900014	 ldr         r0, [r0, #0x14]
  00004	e12fff1e	 bx          lr
  00008		 |$M40921|

			 ENDP  ; |?get_Slot2State@CMenelaus@@QBAHXZ|, CMenelaus::get_Slot2State

	EXPORT	|??0CSDIOController@@QAA@XZ|		; CSDIOController::CSDIOController
	EXPORT	|??_C@_1M@LCEEOPDH@?$AAI?$AA2?$AAC?$AA1?$AA?3?$AA?$AA@| [ DATA ] ; `string'
	EXPORT	|??_7CSDIOController@@6B@| [ DATA ]	; CSDIOController::`vftable'
	EXPORT	|?InitializeHardware@CSDIOController@@MAAHXZ| ; CSDIOController::InitializeHardware
	EXPORT	|?DeinitializeHardware@CSDIOController@@MAAXXZ| ; CSDIOController::DeinitializeHardware
	EXPORT	|?IsWriteProtected@CSDIOController@@MAAHXZ| ; CSDIOController::IsWriteProtected
	EXPORT	|?SDCardDetect@CSDIOController@@MAAHXZ|	; CSDIOController::SDCardDetect
	EXPORT	|?SDHCCardDetectIstThreadImpl@CSDIOController@@MAAKXZ| ; CSDIOController::SDHCCardDetectIstThreadImpl
	EXPORT	|?TurnCardPowerOn@CSDIOController@@MAAXXZ| ; CSDIOController::TurnCardPowerOn
	EXPORT	|?TurnCardPowerOff@CSDIOController@@MAAXXZ| ; CSDIOController::TurnCardPowerOff
	EXPORT	|?GetRegistrySettings@CSDIOController@@MAAHPAVCReg@@@Z| ; CSDIOController::GetRegistrySettings
	IMPORT	|??0CMenelaus@@QAA@PBGKK@Z|		; CMenelaus::CMenelaus
	IMPORT	|??2@YAPAXI@Z|				; operator new
	IMPORT	|??0CSDIOControllerBase@@QAA@XZ|	; CSDIOControllerBase::CSDIOControllerBase
	IMPORT	|??_ECSDIOController@@UAAPAXI@Z|, WEAK |??_GCSDIOController@@UAAPAXI@Z| ; CSDIOController::`vector deleting destructor', CSDIOController::`scalar deleting destructor'
	IMPORT	|?IndicateBusRequestComplete@CSDIOControllerBase@@UAAXPAU_SD_BUS_REQUEST@@J@Z| ; CSDIOControllerBase::IndicateBusRequestComplete
	IMPORT	|?InterpretCapabilities@CSDIOControllerBase@@UAAHXZ| ; CSDIOControllerBase::InterpretCapabilities
; File c:\wince600\platform\common\src\soc\omap2420_ms_v1\sdhc\impl\sdcontroller.cpp

  00000			 AREA	 |.pdata|, PDATA
|$T40937| DCD	|$LN7@CSDIOContr|
	DCD	0x40001801

  00000			 AREA	 |.rdata|, DATA, READONLY
|??_C@_1M@LCEEOPDH@?$AAI?$AA2?$AAC?$AA1?$AA?3?$AA?$AA@| DCB "I", 0x0, "2", 0x0
	DCB	"C", 0x0, "1", 0x0, ":", 0x0, 0x0, 0x0	; `string'

  00000			 AREA	 |.rdata|, DATA, READONLY
|??_7CSDIOController@@6B@| DCD |??_ECSDIOController@@UAAPAXI@Z| ; CSDIOController::`vftable'
	DCD	|?IndicateBusRequestComplete@CSDIOControllerBase@@UAAXPAU_SD_BUS_REQUEST@@J@Z|
	DCD	|?InitializeHardware@CSDIOController@@MAAHXZ|
	DCD	|?DeinitializeHardware@CSDIOController@@MAAXXZ|
	DCD	|?IsWriteProtected@CSDIOController@@MAAHXZ|
	DCD	|?SDCardDetect@CSDIOController@@MAAHXZ|
	DCD	|?SDHCCardDetectIstThreadImpl@CSDIOController@@MAAKXZ|
	DCD	|?TurnCardPowerOn@CSDIOController@@MAAXXZ|
	DCD	|?TurnCardPowerOff@CSDIOController@@MAAXXZ|
	DCD	|?GetRegistrySettings@CSDIOController@@MAAHPAVCReg@@@Z|
	DCD	|?InterpretCapabilities@CSDIOControllerBase@@UAAHXZ|
; Function compile flags: /Ogspy

  00000			 AREA	 |.text|, CODE, ARM

  00000		 |??0CSDIOController@@QAA@XZ| PROC	; CSDIOController::CSDIOController

; 31   : {

  00000		 |$LN7@CSDIOContr|
  00000	e92d4010	 stmdb       sp!, {r4, lr}
  00004		 |$M40934|
  00004	e1a04000	 mov         r4, r0
  00008	eb000000	 bl          |??0CSDIOControllerBase@@QAA@XZ|
  0000c	e59f3048	 ldr         r3, [pc, #0x48]
  00010	e3a02000	 mov         r2, #0
  00014	e3a00018	 mov         r0, #0x18
  00018	e5843000	 str         r3, [r4]
  0001c	e58420a8	 str         r2, [r4, #0xA8]
  00020	e58420ac	 str         r2, [r4, #0xAC]
  00024	eb000000	 bl          |??2@YAPAXI@Z|
  00028	e3500000	 cmp         r0, #0
  0002c	0a000004	 beq         |$LN3@CSDIOContr|
  00030	e59f1020	 ldr         r1, [pc, #0x20]
  00034	e3a03007	 mov         r3, #7
  00038	e3a02072	 mov         r2, #0x72
  0003c	eb000000	 bl          |??0CMenelaus@@QAA@PBGKK@Z|
  00040	ea000000	 b           |$LN4@CSDIOContr|
  00044		 |$LN3@CSDIOContr|
  00044	e3a00000	 mov         r0, #0
  00048		 |$LN4@CSDIOContr|
  00048	e58400b0	 str         r0, [r4, #0xB0]

; 32   : }

  0004c	e1a00004	 mov         r0, r4
  00050	e8bd4010	 ldmia       sp!, {r4, lr}
  00054	e12fff1e	 bx          lr
  00058		 |$LN8@CSDIOContr|
  00058		 |$LN9@CSDIOContr|
  00058	00000000	 DCD         |??_C@_1M@LCEEOPDH@?$AAI?$AA2?$AAC?$AA1?$AA?3?$AA?$AA@|
  0005c		 |$LN10@CSDIOContr|
  0005c	00000000	 DCD         |??_7CSDIOController@@6B@|
  00060		 |$M40935|

			 ENDP  ; |??0CSDIOController@@QAA@XZ|, CSDIOController::CSDIOController

	EXPORT	|??_GCMenelaus@@QAAPAXI@Z|		; CMenelaus::`scalar deleting destructor'
	IMPORT	|??3@YAXPAX@Z|				; operator delete
	IMPORT	|??1CMenelaus@@QAA@XZ|			; CMenelaus::~CMenelaus

  00000			 AREA	 |.pdata|, PDATA
|$T40951| DCD	|$LN6@scalar|
	DCD	0x40000a01
; Function compile flags: /Ogspy

  00000			 AREA	 |.text|, CODE, ARM

  00000		 |??_GCMenelaus@@QAAPAXI@Z| PROC	; CMenelaus::`scalar deleting destructor'
  00000		 |$LN6@scalar|
  00000	e92d4030	 stmdb       sp!, {r4, r5, lr}
  00004		 |$M40948|
  00004	e1a04001	 mov         r4, r1
  00008	e1a05000	 mov         r5, r0
  0000c	eb000000	 bl          |??1CMenelaus@@QAA@XZ|
  00010	e3140001	 tst         r4, #1
  00014	11a00005	 movne       r0, r5
  00018	1b000000	 blne        |??3@YAXPAX@Z|
  0001c	e1a00005	 mov         r0, r5
  00020	e8bd4030	 ldmia       sp!, {r4, r5, lr}
  00024	e12fff1e	 bx          lr
  00028		 |$M40949|

			 ENDP  ; |??_GCMenelaus@@QAAPAXI@Z|, CMenelaus::`scalar deleting destructor'

; File c:\wince600\platform\common\src\soc\omap2420_ms_v1\sdhc\impl\menelaus.h

  00000			 AREA	 |.pdata|, PDATA
|$T40977| DCD	|$LN19@IsWritePro|
	DCD	0x40001801
; Function compile flags: /Ogspy
; File c:\wince600\platform\common\src\soc\omap2420_ms_v1\sdhc\impl\sdcontroller.cpp

  00000			 AREA	 |.text|, CODE, ARM

  00000		 |?IsWriteProtected@CSDIOController@@MAAHXZ| PROC ; CSDIOController::IsWriteProtected

; 41   : {

  00000		 |$LN19@IsWritePro|
  00000	e52de004	 str         lr, [sp, #-4]!
  00004		 |$M40974|

; 42   :     if (m_Menelaus.get_Slot1State())

  00004	e59020b0	 ldr         r2, [r0, #0xB0]
  00008	e5923010	 ldr         r3, [r2, #0x10]
  0000c	e3530000	 cmp         r3, #0

; 43   :     {
; 44   :         BOOL state = (INREG32(&m_pGPIO1Regs->ulGPIO_DATAIN) & 
; 45   :                      (1 << m_dwCardReadWriteSlot1GPIO % sizeof(UINT32)))
; 46   :                      && m_dwCardWriteProtectedState ? TRUE : FALSE;

  00010	159030a8	 ldrne       r3, [r0, #0xA8]
  00014	1590109c	 ldrne       r1, [r0, #0x9C]
  00018	1a000004	 bne         |$LN16@IsWritePro|

; 47   :         DEBUGMSG(SDCARD_ZONE_ERROR, (L"CSDIOController::IsWriteProtected: "
; 48   :             L"WriteProtect State Slot1 %d\r\n", state
; 49   :         ));
; 50   :         return state;
; 51   :     } 
; 52   :     else if (m_Menelaus.get_Slot2State())

  0001c	e5923014	 ldr         r3, [r2, #0x14]
  00020	e3530000	 cmp         r3, #0
  00024	0a00000a	 beq         |$LN2@IsWritePro|

; 53   :     {
; 54   :         BOOL state = (INREG32(&m_pGPIO4Regs->ulGPIO_DATAIN) & 
; 55   :                      (1 << m_dwCardReadWriteSlot2GPIO % sizeof(UINT32)))
; 56   :                      && m_dwCardWriteProtectedState ? TRUE : FALSE;

  00028	e59030ac	 ldr         r3, [r0, #0xAC]
  0002c	e59010a0	 ldr         r1, [r0, #0xA0]
  00030		 |$LN16@IsWritePro|
  00030	e5932038	 ldr         r2, [r3, #0x38]
  00034	e3a0e001	 mov         lr, #1
  00038	e2013003	 and         r3, r1, #3
  0003c	e112031e	 tst         r2, lr, lsl r3
  00040	159030a4	 ldrne       r3, [r0, #0xA4]
  00044	13530000	 cmpne       r3, #0
  00048	13a00001	 movne       r0, #1

; 64   : }

  0004c	149de004	 ldrne       lr, [sp], #4
  00050	112fff1e	 bxne        lr
  00054		 |$LN2@IsWritePro|

; 57   :         DEBUGMSG(SDCARD_ZONE_ERROR, (L"CSDIOController::IsWriteProtected: "
; 58   :             L"WriteProtect State Slot2 %d\r\n", state
; 59   :         ));
; 60   :         return state;
; 61   :     }
; 62   :     else
; 63   :         return FALSE;

  00054	e3a00000	 mov         r0, #0

; 64   : }

  00058	e49de004	 ldr         lr, [sp], #4
  0005c	e12fff1e	 bx          lr
  00060		 |$M40975|

			 ENDP  ; |?IsWriteProtected@CSDIOController@@MAAHXZ|, CSDIOController::IsWriteProtected

; File c:\wince600\platform\common\src\soc\omap2420_ms_v1\sdhc\impl\menelaus.h

  00000			 AREA	 |.pdata|, PDATA
|$T40995| DCD	|$LN12@SDCardDete|
	DCD	0x40000800
; Function compile flags: /Ogspy
; File c:\wince600\platform\common\src\soc\omap2420_ms_v1\sdhc\impl\sdcontroller.cpp

  00000			 AREA	 |.text|, CODE, ARM

  00000		 |?SDCardDetect@CSDIOController@@MAAHXZ| PROC ; CSDIOController::SDCardDetect

; 68   : {

  00000		 |$LN12@SDCardDete|
  00000		 |$M40992|

; 69   :     
; 70   :     if (m_Menelaus.get_Slot1State() || m_Menelaus.get_Slot2State())

  00000	e59020b0	 ldr         r2, [r0, #0xB0]
  00004	e5923010	 ldr         r3, [r2, #0x10]
  00008	e3530000	 cmp         r3, #0
  0000c	05923014	 ldreq       r3, [r2, #0x14]
  00010	03530000	 cmpeq       r3, #0

; 73   :     }
; 74   :     else
; 75   :     {
; 76   :         return FALSE;                           // card not inserted into either slot

  00014	03a00000	 moveq       r0, #0

; 71   :     {
; 72   :         return TRUE;                            // card inserted into Slot1 or Slot2

  00018	13a00001	 movne       r0, #1

; 77   :     }
; 78   : }

  0001c	e12fff1e	 bx          lr
  00020		 |$M40993|

			 ENDP  ; |?SDCardDetect@CSDIOController@@MAAHXZ|, CSDIOController::SDCardDetect

	IMPORT	|?HandleSlot2Insert@CMenelaus@@QAAHXZ|	; CMenelaus::HandleSlot2Insert
	IMPORT	|?HandleSlot1Insert@CMenelaus@@QAAHXZ|	; CMenelaus::HandleSlot1Insert
; File c:\wince600\platform\common\src\soc\omap2420_ms_v1\sdhc\impl\menelaus.h

  00000			 AREA	 |.pdata|, PDATA
|$T41011| DCD	|$LN13@TurnCardPo|
	DCD	0x40000d01
; Function compile flags: /Ogspy
; File c:\wince600\platform\common\src\soc\omap2420_ms_v1\sdhc\impl\sdcontroller.cpp

  00000			 AREA	 |.text|, CODE, ARM

  00000		 |?TurnCardPowerOn@CSDIOController@@MAAXXZ| PROC ; CSDIOController::TurnCardPowerOn

; 81   : {

  00000		 |$LN13@TurnCardPo|
  00000	e52de004	 str         lr, [sp, #-4]!
  00004		 |$M41008|

; 82   :     if (m_Menelaus.get_Slot1State())

  00004	e59000b0	 ldr         r0, [r0, #0xB0]
  00008	e5903010	 ldr         r3, [r0, #0x10]
  0000c	e3530000	 cmp         r3, #0
  00010	0a000002	 beq         |$LN4@TurnCardPo|

; 83   :     {
; 84   :         DEBUGMSG(SDCARD_ZONE_INFO, (L"CSDIOController::TurnCardPowerOn: "
; 85   :             L"TurnCardPowerOn & Select- Slot1\r\n"));
; 86   :         m_Menelaus.HandleSlot1Insert();

  00014	eb000000	 bl          |?HandleSlot1Insert@CMenelaus@@QAAHXZ|

; 93   :     }
; 94   :     else
; 95   :     {
; 96   :         DEBUGMSG(SDCARD_ZONE_INFO, (L"CSDIOController::TurnCardPowerOn: "
; 97   :             L"TurnCardPowerOn - Slot ? \r\n"));
; 98   :     }
; 99   :         
; 100  : 
; 101  : }

  00018	e49de004	 ldr         lr, [sp], #4
  0001c	e12fff1e	 bx          lr
  00020		 |$LN4@TurnCardPo|

; 87   :     } 
; 88   :     else if (m_Menelaus.get_Slot2State())

  00020	e5903014	 ldr         r3, [r0, #0x14]
  00024	e3530000	 cmp         r3, #0

; 89   :     {
; 90   :         DEBUGMSG(SDCARD_ZONE_INFO, (L"CSDIOController::TurnCardPowerOn: "
; 91   :             L"Select - Slot2\r\n"));
; 92   :         m_Menelaus.HandleSlot2Insert();

  00028	1b000000	 blne        |?HandleSlot2Insert@CMenelaus@@QAAHXZ|

; 93   :     }
; 94   :     else
; 95   :     {
; 96   :         DEBUGMSG(SDCARD_ZONE_INFO, (L"CSDIOController::TurnCardPowerOn: "
; 97   :             L"TurnCardPowerOn - Slot ? \r\n"));
; 98   :     }
; 99   :         
; 100  : 
; 101  : }

  0002c	e49de004	 ldr         lr, [sp], #4
  00030	e12fff1e	 bx          lr
  00034		 |$M41009|

			 ENDP  ; |?TurnCardPowerOn@CSDIOController@@MAAXXZ|, CSDIOController::TurnCardPowerOn

	IMPORT	|?SlotsEnabled@CMenelaus@@QAAHXZ|	; CMenelaus::SlotsEnabled

  00000			 AREA	 |.pdata|, PDATA
|$T41019| DCD	|$LN5@TurnCardPo@2|
	DCD	0x40000501
; Function compile flags: /Ogspy

  00000			 AREA	 |.text|, CODE, ARM

  00000		 |?TurnCardPowerOff@CSDIOController@@MAAXXZ| PROC ; CSDIOController::TurnCardPowerOff

; 104  : {

  00000		 |$LN5@TurnCardPo@2|
  00000	e52de004	 str         lr, [sp, #-4]!
  00004		 |$M41016|

; 105  :     DEBUGMSG(SDCARD_ZONE_FUNC, (L"+CSDIOController::TurnCardPowerOff\r\n"));
; 106  :     m_Menelaus.SlotsEnabled();      

  00004	e59000b0	 ldr         r0, [r0, #0xB0]
  00008	eb000000	 bl          |?SlotsEnabled@CMenelaus@@QAAHXZ|

; 107  : }

  0000c	e49de004	 ldr         lr, [sp], #4
  00010	e12fff1e	 bx          lr
  00014		 |$M41017|

			 ENDP  ; |?TurnCardPowerOff@CSDIOController@@MAAXXZ|, CSDIOController::TurnCardPowerOff

	IMPORT	|Sleep|
	IMPORT	|MmMapIoSpace|
	IMPORT	|?MenelausInit@CMenelaus@@QAAHXZ|	; CMenelaus::MenelausInit

  00000			 AREA	 |.pdata|, PDATA
|$T41034| DCD	|$LN8@Initialize|
	DCD	0x40001e01
; Function compile flags: /Ogspy

  00000			 AREA	 |.text|, CODE, ARM

  00000		 |?InitializeHardware@CSDIOController@@MAAHXZ| PROC ; CSDIOController::InitializeHardware

; 110  : {

  00000		 |$LN8@Initialize|
  00000	e92d4010	 stmdb       sp!, {r4, lr}
  00004		 |$M41031|
  00004	e1a04000	 mov         r4, r0

; 111  :     PHYSICAL_ADDRESS pa;
; 112  : 
; 113  :     m_Menelaus.MenelausInit();

  00008	e59400b0	 ldr         r0, [r4, #0xB0]
  0000c	eb000000	 bl          |?MenelausInit@CMenelaus@@QAAHXZ|
  00010	e3a03312	 mov         r3, #0x12, 6

; 114  : 
; 115  : 
; 116  :     // map gpio memory space
; 117  :     pa.QuadPart = OMAP2420_GPIO1_REGS_PA;

  00014	e3830906	 orr         r0, r3, #6, 18

; 118  :     m_pGPIO1Regs = (OMAP2420_GPIO_REGS *) MmMapIoSpace(pa, sizeof(OMAP2420_GPIO_REGS), FALSE);

  00018	e3a03000	 mov         r3, #0
  0001c	e3a01000	 mov         r1, #0
  00020	e3a02098	 mov         r2, #0x98
  00024	eb000000	 bl          MmMapIoSpace
  00028	e3500000	 cmp         r0, #0
  0002c	e58400a8	 str         r0, [r4, #0xA8]

; 119  :     if (m_pGPIO1Regs == NULL)

  00030	1a000002	 bne         |$LN2@Initialize|
  00034		 |$LN5@Initialize|

; 120  :     {
; 121  :         DEBUGMSG(SDCARD_ZONE_ERROR, (L"CSDIOController::InitializeHardware: "
; 122  :             L"Failed to map GPIO1 registers\r\n"
; 123  :         ));
; 124  :         return FALSE;

  00034	e3a00000	 mov         r0, #0

; 140  : }

  00038	e8bd4010	 ldmia       sp!, {r4, lr}
  0003c	e12fff1e	 bx          lr
  00040		 |$LN2@Initialize|

; 120  :     {
; 121  :         DEBUGMSG(SDCARD_ZONE_ERROR, (L"CSDIOController::InitializeHardware: "
; 122  :             L"Failed to map GPIO1 registers\r\n"
; 123  :         ));
; 124  :         return FALSE;

  00040	e3a03312	 mov         r3, #0x12, 6

; 125  :     }
; 126  : 
; 127  :     pa.QuadPart = OMAP2420_GPIO4_REGS_PA;

  00044	e3830a1e	 orr         r0, r3, #0x1E, 20

; 128  :     m_pGPIO4Regs = (OMAP2420_GPIO_REGS *) MmMapIoSpace(pa, sizeof(OMAP2420_GPIO_REGS), FALSE);

  00048	e3a03000	 mov         r3, #0
  0004c	e3a01000	 mov         r1, #0
  00050	e3a02098	 mov         r2, #0x98
  00054	eb000000	 bl          MmMapIoSpace
  00058	e3500000	 cmp         r0, #0
  0005c	e58400ac	 str         r0, [r4, #0xAC]

; 129  :     if (m_pGPIO4Regs == NULL)
; 130  :     {
; 131  :         DEBUGMSG(SDCARD_ZONE_ERROR, (L"CSDIOController::InitializeHardware: "
; 132  :             L"Failed to map GPIO4 registers\r\n"
; 133  :         ));
; 134  :         return FALSE;

  00060	0afffff3	 beq         |$LN5@Initialize|

; 135  :     }
; 136  : 
; 137  : 
; 138  :     Sleep(1000);

  00064	e3a00ffa	 mov         r0, #0xFA, 30
  00068	eb000000	 bl          Sleep

; 139  :     return TRUE;

  0006c	e3a00001	 mov         r0, #1

; 140  : }

  00070	e8bd4010	 ldmia       sp!, {r4, lr}
  00074	e12fff1e	 bx          lr
  00078		 |$M41032|

			 ENDP  ; |?InitializeHardware@CSDIOController@@MAAHXZ|, CSDIOController::InitializeHardware

	IMPORT	|MmUnmapIoSpace|
	IMPORT	|?MenelausDeinit@CMenelaus@@QAAHXZ|	; CMenelaus::MenelausDeinit

  00000			 AREA	 |.pdata|, PDATA
|$T41042| DCD	|$LN5@Deinitiali|
	DCD	0x40000c01
; Function compile flags: /Ogspy

  00000			 AREA	 |.text|, CODE, ARM

  00000		 |?DeinitializeHardware@CSDIOController@@MAAXXZ| PROC ; CSDIOController::DeinitializeHardware

; 143  : {

  00000		 |$LN5@Deinitiali|
  00000	e92d4010	 stmdb       sp!, {r4, lr}
  00004		 |$M41039|
  00004	e1a04000	 mov         r4, r0

; 144  :     m_Menelaus.MenelausDeinit();

  00008	e59400b0	 ldr         r0, [r4, #0xB0]
  0000c	eb000000	 bl          |?MenelausDeinit@CMenelaus@@QAAHXZ|

; 145  : 
; 146  :     MmUnmapIoSpace((VOID*)m_pGPIO1Regs, sizeof(OMAP2420_GPIO_REGS));

  00010	e59400a8	 ldr         r0, [r4, #0xA8]
  00014	e3a01098	 mov         r1, #0x98
  00018	eb000000	 bl          MmUnmapIoSpace

; 147  :     MmUnmapIoSpace((VOID*)m_pGPIO4Regs, sizeof(OMAP2420_GPIO_REGS));

  0001c	e59400ac	 ldr         r0, [r4, #0xAC]
  00020	e3a01098	 mov         r1, #0x98
  00024	eb000000	 bl          MmUnmapIoSpace

; 148  : }

  00028	e8bd4010	 ldmia       sp!, {r4, lr}
  0002c	e12fff1e	 bx          lr
  00030		 |$M41040|

			 ENDP  ; |?DeinitializeHardware@CSDIOController@@MAAXXZ|, CSDIOController::DeinitializeHardware

	IMPORT	|?AckInterrupts@CMenelaus@@QAAHXZ|	; CMenelaus::AckInterrupts
	IMPORT	|?HandleCardDetectInterrupt@CSDIOControllerBase@@QAAXXZ| ; CSDIOControllerBase::HandleCardDetectInterrupt
	IMPORT	|?UpdateSlotsState@CMenelaus@@QAAHXZ|	; CMenelaus::UpdateSlotsState
	IMPORT	|WaitForSingleObject|
	IMPORT	|CeSetThreadPriority|
; File c:\wince600\public\common\sdk\inc\kfuncs.h

  00000			 AREA	 |.pdata|, PDATA
|$T41065| DCD	|$LN19@SDHCCardDe|
	DCD	0x40002401
; Function compile flags: /Ogspy
; File c:\wince600\platform\common\src\soc\omap2420_ms_v1\sdhc\impl\sdcontroller.cpp

  00000			 AREA	 |.text|, CODE, ARM

  00000		 |?SDHCCardDetectIstThreadImpl@CSDIOController@@MAAKXZ| PROC ; CSDIOController::SDHCCardDetectIstThreadImpl

; 164  : {

  00000		 |$LN19@SDHCCardDe|
  00000	e92d4070	 stmdb       sp!, {r4 - r6, lr}
  00004		 |$M41062|
  00004	e1a04000	 mov         r4, r0

; 165  :     DWORD  dwWaitStatus = WAIT_TIMEOUT;     // wait status
; 166  :     DWORD dwWaitTime    = 10000;            // INFINITE;
; 167  : 
; 168  :     if (!CeSetThreadPriority(GetCurrentThread(), m_dwCDPriority )) {

  00008	e594105c	 ldr         r1, [r4, #0x5C]
  0000c	e3a00041	 mov         r0, #0x41
  00010	eb000000	 bl          CeSetThreadPriority

; 169  :         DEBUGMSG(SDCARD_ZONE_WARN, (L"SDHCCardDetectIstThread: warning, failed to set CEThreadPriority\r\n"));
; 170  :     }
; 171  : 
; 172  :     // check for the card already inserted when the driver is loaded
; 173  :     SetEvent( m_hCardDetectEvent );

  00014	e5940050	 ldr         r0, [r4, #0x50]
  00018	e3a01003	 mov         r1, #3
  0001c	eb000000	 bl          EventModify

; 174  :     
; 175  :     while (TRUE) {
; 176  :         dwWaitStatus = WaitForSingleObject(m_hCardDetectEvent, dwWaitTime);

  00020	e5940050	 ldr         r0, [r4, #0x50]
  00024	e3a06c27	 mov         r6, #0x27, 24
  00028	e3861010	 orr         r1, r6, #0x10
  0002c	eb000000	 bl          WaitForSingleObject

; 177  :     
; 178  :         if (m_fDriverShutdown) {

  00030	e5943060	 ldr         r3, [r4, #0x60]
  00034	e3530000	 cmp         r3, #0
  00038	1a000011	 bne         |$LN15@SDHCCardDe|
  0003c	e3a03c01	 mov         r3, #1, 24
  00040	e3835002	 orr         r5, r3, #2
  00044		 |$LL4@SDHCCardDe|

; 179  :             break;
; 180  :         }
; 181  : 
; 182  :         if( WAIT_TIMEOUT == dwWaitStatus )

  00044	e1500005	 cmp         r0, r5
  00048	0a000007	 beq         |$LN16@SDHCCardDe|

; 183  :         {
; 184  :             continue;
; 185  :         }
; 186  : 
; 187  :         // Delay to ensure the spurrious interrupts are done. 
; 188  :         Sleep( 250 );

  0004c	e3a000fa	 mov         r0, #0xFA
  00050	eb000000	 bl          Sleep

; 189  : 
; 190  :         DEBUGMSG(SDCARD_ZONE_INIT, (L"SDHCardDetectIstThread: calling CSDHCSlot::HandleCardDetectInterrupt\r\n"));
; 191  : 
; 192  :         m_Menelaus.UpdateSlotsState();

  00054	e59400b0	 ldr         r0, [r4, #0xB0]
  00058	eb000000	 bl          |?UpdateSlotsState@CMenelaus@@QAAHXZ|

; 193  :     
; 194  :         HandleCardDetectInterrupt();

  0005c	e1a00004	 mov         r0, r4
  00060	eb000000	 bl          |?HandleCardDetectInterrupt@CSDIOControllerBase@@QAAXXZ|

; 195  : 
; 196  :         m_Menelaus.AckInterrupts();

  00064	e59400b0	 ldr         r0, [r4, #0xB0]
  00068	eb000000	 bl          |?AckInterrupts@CMenelaus@@QAAHXZ|
  0006c		 |$LN16@SDHCCardDe|
  0006c	e5940050	 ldr         r0, [r4, #0x50]
  00070	e3861010	 orr         r1, r6, #0x10
  00074	eb000000	 bl          WaitForSingleObject
  00078	e5943060	 ldr         r3, [r4, #0x60]
  0007c	e3530000	 cmp         r3, #0
  00080	0affffef	 beq         |$LL4@SDHCCardDe|
  00084		 |$LN15@SDHCCardDe|

; 197  : 
; 198  :     }
; 199  : 
; 200  :     DEBUGMSG(SDCARD_ZONE_INIT, (L"SDHCCardDetectIstThread: Thread Exiting\r\n"));
; 201  : 
; 202  :     return 0;

  00084	e3a00000	 mov         r0, #0

; 203  : }

  00088	e8bd4070	 ldmia       sp!, {r4 - r6, lr}
  0008c	e12fff1e	 bx          lr
  00090		 |$M41063|

			 ENDP  ; |?SDHCCardDetectIstThreadImpl@CSDIOController@@MAAKXZ|, CSDIOController::SDHCCardDetectIstThreadImpl

	EXPORT	|??_C@_1CO@HACNBHLC@?$AAC?$AAa?$AAr?$AAd?$AAR?$AAe?$AAa?$AAd?$AAW?$AAr?$AAi?$AAt?$AAe?$AAS?$AAl?$AAo?$AAt?$AA1?$AAG?$AAP?$AAI?$AAO?$AA?$AA@| [ DATA ] ; `string'
	EXPORT	|??_C@_1CO@HLDMFEC@?$AAC?$AAa?$AAr?$AAd?$AAR?$AAe?$AAa?$AAd?$AAW?$AAr?$AAi?$AAt?$AAe?$AAS?$AAl?$AAo?$AAt?$AA2?$AAG?$AAP?$AAI?$AAO?$AA?$AA@| [ DATA ] ; `string'
	EXPORT	|??_C@_1DA@KLIJNKLI@?$AAC?$AAa?$AAr?$AAd?$AAW?$AAr?$AAi?$AAt?$AAe?$AAP?$AAr?$AAo?$AAt?$AAe?$AAc?$AAt?$AAe?$AAd?$AAS?$AAt?$AAa?$AAt?$AAe?$AA?$AA@| [ DATA ] ; `string'
	IMPORT	|?GetRegistrySettings@CSDIOControllerBase@@UAAHPAVCReg@@@Z| ; CSDIOControllerBase::GetRegistrySettings

  00000			 AREA	 |.pdata|, PDATA
|$T41076| DCD	|$LN6@GetRegistr|
	DCD	0x40001f01

  00000			 AREA	 |.rdata|, DATA, READONLY
|??_C@_1CO@HACNBHLC@?$AAC?$AAa?$AAr?$AAd?$AAR?$AAe?$AAa?$AAd?$AAW?$AAr?$AAi?$AAt?$AAe?$AAS?$AAl?$AAo?$AAt?$AA1?$AAG?$AAP?$AAI?$AAO?$AA?$AA@| DCB "C"
	DCB	0x0, "a", 0x0, "r", 0x0, "d", 0x0, "R", 0x0, "e", 0x0, "a"
	DCB	0x0, "d", 0x0, "W", 0x0, "r", 0x0, "i", 0x0, "t", 0x0, "e"
	DCB	0x0, "S", 0x0, "l", 0x0, "o", 0x0, "t", 0x0, "1", 0x0, "G"
	DCB	0x0, "P", 0x0, "I", 0x0, "O", 0x0, 0x0, 0x0 ; `string'

  00000			 AREA	 |.rdata|, DATA, READONLY
|??_C@_1CO@HLDMFEC@?$AAC?$AAa?$AAr?$AAd?$AAR?$AAe?$AAa?$AAd?$AAW?$AAr?$AAi?$AAt?$AAe?$AAS?$AAl?$AAo?$AAt?$AA2?$AAG?$AAP?$AAI?$AAO?$AA?$AA@| DCB "C"
	DCB	0x0, "a", 0x0, "r", 0x0, "d", 0x0, "R", 0x0, "e", 0x0, "a"
	DCB	0x0, "d", 0x0, "W", 0x0, "r", 0x0, "i", 0x0, "t", 0x0, "e"
	DCB	0x0, "S", 0x0, "l", 0x0, "o", 0x0, "t", 0x0, "2", 0x0, "G"
	DCB	0x0, "P", 0x0, "I", 0x0, "O", 0x0, 0x0, 0x0 ; `string'

  00000			 AREA	 |.rdata|, DATA, READONLY
|??_C@_1DA@KLIJNKLI@?$AAC?$AAa?$AAr?$AAd?$AAW?$AAr?$AAi?$AAt?$AAe?$AAP?$AAr?$AAo?$AAt?$AAe?$AAc?$AAt?$AAe?$AAd?$AAS?$AAt?$AAa?$AAt?$AAe?$AA?$AA@| DCB "C"
	DCB	0x0, "a", 0x0, "r", 0x0, "d", 0x0, "W", 0x0, "r", 0x0, "i"
	DCB	0x0, "t", 0x0, "e", 0x0, "P", 0x0, "r", 0x0, "o", 0x0, "t"
	DCB	0x0, "e", 0x0, "c", 0x0, "t", 0x0, "e", 0x0, "d", 0x0, "S"
	DCB	0x0, "t", 0x0, "a", 0x0, "t", 0x0, "e", 0x0, 0x0, 0x0 ; `string'
; Function compile flags: /Ogspy

  00000			 AREA	 |.text|, CODE, ARM

  00000		 |?GetRegistrySettings@CSDIOController@@MAAHPAVCReg@@@Z| PROC ; CSDIOController::GetRegistrySettings

; 207  : {

  00000		 |$LN6@GetRegistr|
  00000	e92d4030	 stmdb       sp!, {r4, r5, lr}
  00004		 |$M41073|
  00004	e1a04001	 mov         r4, r1
  00008	e1a05000	 mov         r5, r0

; 208  :     if( !CSDIOControllerBase::GetRegistrySettings( pReg ) )

  0000c	eb000000	 bl          |?GetRegistrySettings@CSDIOControllerBase@@UAAHPAVCReg@@@Z|
  00010	e3500000	 cmp         r0, #0

; 209  :     {
; 210  :         return FALSE;

  00014	03a00000	 moveq       r0, #0

; 217  : }

  00018	08bd4030	 ldmeqia     sp!, {r4, r5, lr}
  0001c	012fff1e	 bxeq        lr

; 211  :     }
; 212  :     
; 213  :     m_dwCardReadWriteSlot1GPIO = pReg->ValueDW(SHC_SLOT1_WRITEPROTECT_KEY, 1);

  00020	e59f1050	 ldr         r1, [pc, #0x50]
  00024	e3a02001	 mov         r2, #1
  00028	e1a00004	 mov         r0, r4
  0002c	eb000000	 bl          |?ValueDW@CReg@@QAAKPBGK@Z|

; 214  :     m_dwCardReadWriteSlot2GPIO = pReg->ValueDW(SHC_SLOT2_WRITEPROTECT_KEY, 96);

  00030	e59f103c	 ldr         r1, [pc, #0x3C]
  00034	e1a03000	 mov         r3, r0
  00038	e1a00004	 mov         r0, r4
  0003c	e585309c	 str         r3, [r5, #0x9C]
  00040	e3a02060	 mov         r2, #0x60
  00044	eb000000	 bl          |?ValueDW@CReg@@QAAKPBGK@Z|

; 215  :     m_dwCardWriteProtectedState = pReg->ValueDW(SHC_CARD_WRITE_PROTECTED_STATE_KEY, 1);

  00048	e59f1020	 ldr         r1, [pc, #0x20]
  0004c	e1a03000	 mov         r3, r0
  00050	e1a00004	 mov         r0, r4
  00054	e58530a0	 str         r3, [r5, #0xA0]
  00058	e3a02001	 mov         r2, #1
  0005c	eb000000	 bl          |?ValueDW@CReg@@QAAKPBGK@Z|
  00060	e58500a4	 str         r0, [r5, #0xA4]

; 216  :     return TRUE;

  00064	e3a00001	 mov         r0, #1

; 217  : }

  00068	e8bd4030	 ldmia       sp!, {r4, r5, lr}
  0006c	e12fff1e	 bx          lr
  00070		 |$LN7@GetRegistr|
  00070		 |$LN8@GetRegistr|
  00070	00000000	 DCD         |??_C@_1DA@KLIJNKLI@?$AAC?$AAa?$AAr?$AAd?$AAW?$AAr?$AAi?$AAt?$AAe?$AAP?$AAr?$AAo?$AAt?$AAe?$AAc?$AAt?$AAe?$AAd?$AAS?$AAt?$AAa?$AAt?$AAe?$AA?$AA@|
  00074		 |$LN9@GetRegistr|
  00074	00000000	 DCD         |??_C@_1CO@HLDMFEC@?$AAC?$AAa?$AAr?$AAd?$AAR?$AAe?$AAa?$AAd?$AAW?$AAr?$AAi?$AAt?$AAe?$AAS?$AAl?$AAo?$AAt?$AA2?$AAG?$AAP?$AAI?$AAO?$AA?$AA@|
  00078		 |$LN10@GetRegistr|
  00078	00000000	 DCD         |??_C@_1CO@HACNBHLC@?$AAC?$AAa?$AAr?$AAd?$AAR?$AAe?$AAa?$AAd?$AAW?$AAr?$AAi?$AAt?$AAe?$AAS?$AAl?$AAo?$AAt?$AA1?$AAG?$AAP?$AAI?$AAO?$AA?$AA@|
  0007c		 |$M41074|

			 ENDP  ; |?GetRegistrySettings@CSDIOController@@MAAHPAVCReg@@@Z|, CSDIOController::GetRegistrySettings

	EXPORT	|?CreateSDIOController@@YAPAVCSDIOControllerBase@@XZ| ; CreateSDIOController

  00000			 AREA	 |.pdata|, PDATA
|$T41093| DCD	|$LN7@CreateSDIO|
	DCD	0x40000b01
; Function compile flags: /Ogspy

  00000			 AREA	 |.text|, CODE, ARM

  00000		 |?CreateSDIOController@@YAPAVCSDIOControllerBase@@XZ| PROC ; CreateSDIOController

; 221  : {

  00000		 |$LN7@CreateSDIO|
  00000	e52de004	 str         lr, [sp, #-4]!
  00004		 |$M41090|

; 222  :     return new CSDIOController();

  00004	e3a000b4	 mov         r0, #0xB4
  00008	eb000000	 bl          |??2@YAPAXI@Z|
  0000c	e3500000	 cmp         r0, #0
  00010	0a000002	 beq         |$LN3@CreateSDIO|
  00014	eb000000	 bl          |??0CSDIOController@@QAA@XZ|

; 223  : }

  00018	e49de004	 ldr         lr, [sp], #4
  0001c	e12fff1e	 bx          lr
  00020		 |$LN3@CreateSDIO|

; 222  :     return new CSDIOController();

  00020	e3a00000	 mov         r0, #0

; 223  : }

  00024	e49de004	 ldr         lr, [sp], #4
  00028	e12fff1e	 bx          lr
  0002c		 |$M41091|

			 ENDP  ; |?CreateSDIOController@@YAPAVCSDIOControllerBase@@XZ|, CreateSDIOController

	EXPORT	|??1CSDIOController@@UAA@XZ|		; CSDIOController::~CSDIOController
	IMPORT	|??1CSDIOControllerBase@@UAA@XZ|	; CSDIOControllerBase::~CSDIOControllerBase

  00000			 AREA	 |.pdata|, PDATA
|$T41110| DCD	|$LN10@CSDIOContr@2|
	DCD	0x40001001
; Function compile flags: /Ogspy

  00000			 AREA	 |.text|, CODE, ARM

  00000		 |??1CSDIOController@@UAA@XZ| PROC	; CSDIOController::~CSDIOController

; 35   : {

  00000		 |$LN10@CSDIOContr@2|
  00000	e92d4030	 stmdb       sp!, {r4, r5, lr}
  00004		 |$M41107|
  00004	e1a04000	 mov         r4, r0
  00008	e59f302c	 ldr         r3, [pc, #0x2C]

; 36   :     delete &m_Menelaus;

  0000c	e59420b0	 ldr         r2, [r4, #0xB0]
  00010	e5843000	 str         r3, [r4]
  00014	e1b05002	 movs        r5, r2
  00018	0a000003	 beq         |$LN3@CSDIOContr@2|
  0001c	e1a00005	 mov         r0, r5
  00020	eb000000	 bl          |??1CMenelaus@@QAA@XZ|
  00024	e1a00005	 mov         r0, r5
  00028	eb000000	 bl          |??3@YAXPAX@Z|
  0002c		 |$LN3@CSDIOContr@2|

; 37   : }

  0002c	e1a00004	 mov         r0, r4
  00030	eb000000	 bl          |??1CSDIOControllerBase@@UAA@XZ|
  00034	e8bd4030	 ldmia       sp!, {r4, r5, lr}
  00038	e12fff1e	 bx          lr
  0003c		 |$LN11@CSDIOContr@2|
  0003c		 |$LN12@CSDIOContr@2|
  0003c	00000000	 DCD         |??_7CSDIOController@@6B@|
  00040		 |$M41108|

			 ENDP  ; |??1CSDIOController@@UAA@XZ|, CSDIOController::~CSDIOController


  00000			 AREA	 |.pdata|, PDATA
|$T41123| DCD	|$LN6@scalar@2|
	DCD	0x40000a01
; Function compile flags: /Ogspy

  00000			 AREA	 |.text|, CODE, ARM

  00000		 |??_GCSDIOController@@UAAPAXI@Z| PROC	; CSDIOController::`scalar deleting destructor'
  00000		 |$LN6@scalar@2|
  00000	e92d4030	 stmdb       sp!, {r4, r5, lr}
  00004		 |$M41120|
  00004	e1a04001	 mov         r4, r1
  00008	e1a05000	 mov         r5, r0
  0000c	eb000000	 bl          |??1CSDIOController@@UAA@XZ|
  00010	e3140001	 tst         r4, #1
  00014	11a00005	 movne       r0, r5
  00018	1b000000	 blne        |??3@YAXPAX@Z|
  0001c	e1a00005	 mov         r0, r5
  00020	e8bd4030	 ldmia       sp!, {r4, r5, lr}
  00024	e12fff1e	 bx          lr
  00028		 |$M41121|

			 ENDP  ; |??_GCSDIOController@@UAAPAXI@Z|, CSDIOController::`scalar deleting destructor'

	END
