; Listing generated by Microsoft (R) Optimizing Compiler Version 14.01.60511.01 

	TTL	C:\WINCE600\PLATFORM\COMMON\SRC\SOC\PXA27X_MS_V1\OAL\MISC\feature.cpp
	CODE32

  00000			 AREA	 |.drectve|, DRECTVE
	DCB	"-defaultlib:LIBCMT "
	DCB	"-defaultlib:OLDNAMES "

	EXPORT	|OALIsProcessorFeaturePresent|
	IMPORT	|OALIsARMProcessorFeaturePresent|

  00000			 AREA	 |.pdata|, PDATA
|$T35429| DCD	|$LN9@OALIsProce|
	DCD	0x40002104
; Function compile flags: /Odtp
; File c:\wince600\platform\common\src\soc\pxa27x_ms_v1\oal\misc\feature.cpp

  00000			 AREA	 |.text|, CODE, ARM

  00000		 |OALIsProcessorFeaturePresent| PROC

; 30   : {

  00000		 |$LN9@OALIsProce|
  00000	e1a0c00d	 mov         r12, sp
  00004	e92d0001	 stmdb       sp!, {r0}
  00008	e92d5000	 stmdb       sp!, {r12, lr}
  0000c	e24dd010	 sub         sp, sp, #0x10
  00010		 |$M35426|

; 31   :     BOOL rc = FALSE;

  00010	e3a03000	 mov         r3, #0
  00014	e58d3000	 str         r3, [sp]

; 32   : 
; 33   :     switch(feature) {

  00018	e59d3018	 ldr         r3, [sp, #0x18]
  0001c	e58d3008	 str         r3, [sp, #8]
  00020	e59d2008	 ldr         r2, [sp, #8]
  00024	e3a03106	 mov         r3, #6, 2
  00028	e3833801	 orr         r3, r3, #1, 16
  0002c	e1520003	 cmp         r2, r3
  00030	0a000005	 beq         |$LN2@OALIsProce|
  00034	e59d2008	 ldr         r2, [sp, #8]
  00038	e3a0310e	 mov         r3, #0xE, 2
  0003c	e3833801	 orr         r3, r3, #1, 16
  00040	e1520003	 cmp         r2, r3
  00044	0a000000	 beq         |$LN2@OALIsProce|
  00048	ea000002	 b           |$LN1@OALIsProce|
  0004c		 |$LN2@OALIsProce|

; 34   :     case PF_ARM_INTEL_XSCALE:
; 35   :     case PF_ARM_INTEL_WMMX:
; 36   :         rc = TRUE;

  0004c	e3a03001	 mov         r3, #1
  00050	e58d3000	 str         r3, [sp]

; 37   :         break;

  00054	ea000004	 b           |$LN3@OALIsProce|
  00058		 |$LN1@OALIsProce|

; 38   :     default:
; 39   :         rc = OALIsARMProcessorFeaturePresent(feature);

  00058	e59d0018	 ldr         r0, [sp, #0x18]
  0005c	eb000000	 bl          OALIsARMProcessorFeaturePresent
  00060	e58d000c	 str         r0, [sp, #0xC]
  00064	e59d300c	 ldr         r3, [sp, #0xC]
  00068	e58d3000	 str         r3, [sp]
  0006c		 |$LN3@OALIsProce|

; 40   :     }
; 41   :     return rc;

  0006c	e59d3000	 ldr         r3, [sp]
  00070	e58d3004	 str         r3, [sp, #4]

; 42   : }

  00074	e59d0004	 ldr         r0, [sp, #4]
  00078	e28dd010	 add         sp, sp, #0x10
  0007c	e89d6000	 ldmia       sp, {sp, lr}
  00080	e12fff1e	 bx          lr
  00084		 |$M35427|

			 ENDP  ; |OALIsProcessorFeaturePresent|

	END
