; Listing generated by Microsoft (R) Optimizing Compiler Version 14.01.60511.01 

	TTL	C:\WINCE600\PLATFORM\Z2170P\SRC\BOOTLOADER\EBOOT\menu.c
	CODE32

  00000			 AREA	 |.drectve|, DRECTVE
	DCB	"-defaultlib:LIBCMT "
	DCB	"-defaultlib:OLDNAMES "

	EXPORT	|??_C@_1BG@FGGFONDG@?$AAB?$AAr?$AAi?$AAg?$AAh?$AAt?$AAn?$AAe?$AAs?$AAs?$AA?$AA@| [ DATA ] ; `string'
	EXPORT	|??_C@_1CA@ICPLCDKN@?$AAI?$AAn?$AAi?$AAt?$AAi?$AAa?$AAl?$AA?5?$AAB?$AAa?$AAt?$AAt?$AAe?$AAr?$AAy?$AA?$AA@| [ DATA ] ; `string'
	EXPORT	|??_C@_17OLKFNCJO@?$AAL?$AAo?$AAw?$AA?$AA@| [ DATA ] ; `string'
	EXPORT	|??_C@_19LFNPILED@?$AAH?$AAi?$AAg?$AAh?$AA?$AA@| [ DATA ] ; `string'
	EXPORT	|??_C@_13IMODFHAA@?$AA?9?$AA?$AA@| [ DATA ] ; `string'
	EXPORT	|??_C@_13KJIIAINM@?$AA?$CL?$AA?$AA@| [ DATA ] ; `string'
	EXPORT	|??_C@_1BO@DFMGFDAM@?$AAS?$AAh?$AAo?$AAw?$AA?5?$AA?4?$AAn?$AAb?$AA0?$AA?5?$AAD?$AAa?$AAt?$AAa?$AA?$AA@| [ DATA ] ; `string'
	EXPORT	|??_C@_1BA@DMBHJKCI@?$AAW?$AAr?$AAi?$AAt?$AAi?$AAn?$AAg?$AA?$AA@| [ DATA ] ; `string'
	EXPORT	|??_C@_1BA@GEJDCGIE@?$AAR?$AAe?$AAa?$AAd?$AAi?$AAn?$AAg?$AA?$AA@| [ DATA ] ; `string'
	EXPORT	|??_C@_19IOBNHAEP@?$AAE?$AAX?$AAI?$AAT?$AA?$AA@| [ DATA ] ; `string'
	EXPORT	|??_C@_1BG@MCAABGNO@?$AAB?$AAR?$AAI?$AAG?$AAH?$AAT?$AAN?$AAE?$AAS?$AAS?$AA?$AA@| [ DATA ] ; `string'
	EXPORT	|??_C@_17NBOBOEH@?$AAO?$AAF?$AAF?$AA?$AA@| [ DATA ] ; `string'
	EXPORT	|??_C@_15MLPIMJOL@?$AAO?$AAN?$AA?$AA@| [ DATA ] ; `string'
	EXPORT	|??_C@_1FK@IBMDHDI@?$AAM?$AAP?$AAU?$AA?$FL?$AA1?$AA0?$AA0?$AA0?$AAM?$AAh?$AAz?$AA?5?$AA?$EA?$AA?5?$AA1?$AA?4?$AA3?$AA7?$AA5?$AAV?$AA?$FN?$AA?0?$AA?5?$AAI?$AAV?$AAA?$AA2?$AA?$FL?$AA8?$AA0?$AA0?$AAM@| [ DATA ] ; `string'
	EXPORT	|??_C@_1FO@MCHCGGFD@?$AAM?$AAP?$AAU?$AA?$FL?$AA8?$AA0?$AA0?$AAM?$AAh?$AAz?$AA?5?$AA?5?$AA?$EA?$AA?5?$AA1?$AA?4?$AA2?$AA6?$AA2?$AA5?$AAV?$AA?$FN?$AA?0?$AA?5?$AAI?$AAV?$AAA?$AA2?$AA?$FL?$AA6?$AA6?$AA0@| [ DATA ] ; `string'
	EXPORT	|??_C@_1FO@CAGHGIKC@?$AAM?$AAP?$AAU?$AA?$FL?$AA6?$AA0?$AA0?$AAM?$AAh?$AAz?$AA?5?$AA?5?$AA?$EA?$AA?5?$AA1?$AA?4?$AA1?$AA0?$AA0?$AA0?$AAV?$AA?$FN?$AA?0?$AA?5?$AAI?$AAV?$AAA?$AA2?$AA?$FL?$AA5?$AA2?$AA0@| [ DATA ] ; `string'
	EXPORT	|??_C@_1FO@ELABMNJD@?$AAM?$AAP?$AAU?$AA?$FL?$AA3?$AA0?$AA0?$AAM?$AAh?$AAz?$AA?5?$AA?5?$AA?$EA?$AA?5?$AA0?$AA?4?$AA9?$AA3?$AA7?$AA5?$AAV?$AA?$FN?$AA?0?$AA?5?$AAI?$AAV?$AAA?$AA2?$AA?$FL?$AA2?$AA6?$AA0@| [ DATA ] ; `string'
	EXPORT	|??_C@_1FG@KPBOKIAA@?$AAM?$AAP?$AAU?$AA?$FL?$AA7?$AA2?$AA0?$AAh?$AAz?$AA?5?$AA?$EA?$AA?5?$AA1?$AA?4?$AA3?$AA5?$AA0?$AA0?$AAV?$AA?$FN?$AA?0?$AA?5?$AAI?$AAV?$AAA?$AA2?$AA?$FL?$AA5?$AA2?$AA0?$AAM?$AAh@| [ DATA ] ; `string'
	EXPORT	|??_C@_1FI@GKLNGOFA@?$AAM?$AAP?$AAU?$AA?$FL?$AA6?$AA0?$AA0?$AAM?$AAh?$AAz?$AA?5?$AA?$EA?$AA?5?$AA1?$AA?4?$AA3?$AA5?$AA0?$AA0?$AAV?$AA?$FN?$AA?0?$AA?5?$AAI?$AAV?$AAA?$AA2?$AA?$FL?$AA4?$AA3?$AA0?$AAM@| [ DATA ] ; `string'
	EXPORT	|??_C@_1FI@GMIAOKFE@?$AAM?$AAP?$AAU?$AA?$FL?$AA5?$AA5?$AA0?$AAM?$AAh?$AAz?$AA?5?$AA?$EA?$AA?5?$AA1?$AA?4?$AA2?$AA7?$AA5?$AA0?$AAV?$AA?$FN?$AA?0?$AA?5?$AAI?$AAV?$AAA?$AA2?$AA?$FL?$AA4?$AA0?$AA0?$AAM@| [ DATA ] ; `string'
	EXPORT	|??_C@_1FI@LNIHINJA@?$AAM?$AAP?$AAU?$AA?$FL?$AA5?$AA0?$AA0?$AAM?$AAh?$AAz?$AA?5?$AA?$EA?$AA?5?$AA1?$AA?4?$AA2?$AA0?$AA0?$AA0?$AAV?$AA?$FN?$AA?0?$AA?5?$AAI?$AAV?$AAA?$AA2?$AA?$FL?$AA3?$AA6?$AA0?$AAM@| [ DATA ] ; `string'
	EXPORT	|??_C@_1FG@IMGDNCBP@?$AAM?$AAP?$AAU?$AA?$FL?$AA2?$AA5?$AA0?$AAM?$AAh?$AAz?$AA?5?$AA?$EA?$AA?5?$AA1?$AA?4?$AA0?$AA0?$AA0?$AAV?$AA?$FN?$AA?0?$AA?5?$AAI?$AAV?$AAA?$AA2?$AA?$FL?$AA1?$AA8?$AA0?$AAM?$AAh@| [ DATA ] ; `string'
	EXPORT	|??_C@_1FI@HKFGBOFG@?$AAM?$AAP?$AAU?$AA?$FL?$AA1?$AA2?$AA5?$AAM?$AAh?$AAz?$AA?5?$AA?$EA?$AA?5?$AA0?$AA?4?$AA9?$AA7?$AA5?$AAV?$AA?$FN?$AA?0?$AA?5?$AAI?$AAV?$AAA?$AA2?$AA?$FL?$AA?5?$AA9?$AA0?$AAM?$AAh@| [ DATA ] ; `string'
	EXPORT	|??_C@_1BM@KBHAINFM@?$AAI?$AAn?$AAv?$AAa?$AAl?$AAi?$AAd?$AA?5?$AAE?$AAn?$AAt?$AAr?$AAy?$AA?$AA@| [ DATA ] ; `string'
	EXPORT	|??_C@_1CE@BMIKEEML@?$AAD?$AAV?$AAI?$AA?5?$AA1?$AA2?$AA8?$AA0?$AAx?$AA7?$AA2?$AA0?$AA?5?$AA6?$AA0?$AAH?$AAz?$AA?$AA@| [ DATA ] ; `string'
	EXPORT	|??_C@_1CE@LJDPDOKE@?$AAD?$AAV?$AAI?$AA?5?$AA1?$AA0?$AA2?$AA4?$AAx?$AA7?$AA6?$AA8?$AA?5?$AA6?$AA0?$AAH?$AAz?$AA?$AA@| [ DATA ] ; `string'
	EXPORT	|??_C@_1CE@NBKEBDGN@?$AAD?$AAV?$AAI?$AA?5?$AA?5?$AA8?$AA0?$AA0?$AAx?$AA6?$AA0?$AA0?$AA?5?$AA5?$AA6?$AAH?$AAz?$AA?$AA@| [ DATA ] ; `string'
	EXPORT	|??_C@_1CE@PMPMKBOJ@?$AAD?$AAV?$AAI?$AA?5?$AA?5?$AA8?$AA0?$AA0?$AAx?$AA6?$AA0?$AA0?$AA?5?$AA6?$AA0?$AAH?$AAz?$AA?$AA@| [ DATA ] ; `string'
	EXPORT	|??_C@_1CE@IKDLFFCF@?$AAD?$AAV?$AAI?$AA?5?$AA?5?$AA8?$AA0?$AA0?$AAx?$AA4?$AA8?$AA0?$AA?5?$AA6?$AA0?$AAH?$AAz?$AA?$AA@| [ DATA ] ; `string'
	EXPORT	|??_C@_1CE@CECNFHDE@?$AAD?$AAV?$AAI?$AA?5?$AA?5?$AA6?$AA4?$AA0?$AAx?$AA4?$AA8?$AA0?$AA?5?$AA7?$AA2?$AAH?$AAz?$AA?$AA@| [ DATA ] ; `string'
	EXPORT	|??_C@_1CE@IJMKDLHH@?$AAD?$AAV?$AAI?$AA?5?$AA?5?$AA6?$AA4?$AA0?$AAx?$AA4?$AA8?$AA0?$AA?5?$AA6?$AA0?$AAH?$AAz?$AA?$AA@| [ DATA ] ; `string'
	EXPORT	|??_C@_1CE@FKEPMAF@?$AAL?$AAC?$AAD?$AA?5?$AA?5?$AA4?$AA8?$AA0?$AAx?$AA6?$AA4?$AA0?$AA?5?$AA6?$AA0?$AAH?$AAz?$AA?$AA@| [ DATA ] ; `string'
	EXPORT	|??_C@_1BE@FNAHCCDL@?$AAM?$AAa?$AAi?$AAn?$AA?5?$AAM?$AAe?$AAn?$AAu?$AA?$AA@| [ DATA ] ; `string'
	EXPORT	|??_C@_1BO@KCFMLMDG@?$AAB?$AAa?$AAt?$AAt?$AAe?$AAr?$AAy?$AA?5?$AAS?$AAt?$AAa?$AAt?$AAu?$AAs?$AA?$AA@| [ DATA ] ; `string'
	EXPORT	|LCMInitial|
	EXPORT	|??_C@_1BI@GPNGIDKF@?$AAL?$AAC?$AAM?$AA?5?$AAI?$AAn?$AAi?$AAt?$AAi?$AAa?$AAl?$AA?$AA@| [ DATA ] ; `string'
	EXPORT	|??_C@_1EI@LALMHHNG@?$AAF?$AAi?$AAl?$AAe?$AA?5?$AAT?$AAr?$AAa?$AAn?$AAs?$AAf?$AAe?$AAr?$AA?5?$AAf?$AAr?$AAo?$AAm?$AA?5?$AAS?$AAD?$AA?5?$AAC?$AAa?$AAr?$AAd?$AA?5?$AAt?$AAo?$AA?5?$AAF?$AAl@| [ DATA ] ; `string'
	EXPORT	|??_C@_1CC@COAEHFII@?$AAB?$AAa?$AAc?$AAk?$AAl?$AAi?$AAg?$AAh?$AAt?$AA?5?$AAO?$AAN?$AA?1?$AAO?$AAF?$AAF?$AA?$AA@| [ DATA ] ; `string'
	EXPORT	|??_C@_1CA@MOPOGELI@?$AAS?$AAe?$AAl?$AAe?$AAc?$AAt?$AA?5?$AAO?$AAP?$AAP?$AA?5?$AAM?$AAo?$AAd?$AAe?$AA?$AA@| [ DATA ] ; `string'
	EXPORT	|??_C@_1DE@DBBLEEO@?$AAS?$AAe?$AAl?$AAe?$AAc?$AAt?$AA?5?$AAD?$AAi?$AAs?$AAp?$AAl?$AAa?$AAy?$AA?5?$AAR?$AAe?$AAs?$AAo?$AAl?$AAu?$AAt?$AAi?$AAo?$AAn?$AA?$AA@| [ DATA ] ; `string'
	EXPORT	|??_C@_1EG@HMEOLENI@?$AAE?$AAn?$AAa?$AAb?$AAl?$AAe?$AA?1?$AAD?$AAi?$AAs?$AAa?$AAb?$AAl?$AAe?$AA?5?$AAO?$AAA?$AAL?$AA?5?$AAR?$AAe?$AAt?$AAa?$AAi?$AAl?$AA?5?$AAM?$AAe?$AAs?$AAs?$AAa?$AAg@| [ DATA ] ; `string'
	EXPORT	|??_C@_1CC@GBKCLJHP@?$AAF?$AAl?$AAa?$AAs?$AAh?$AA?5?$AAM?$AAa?$AAn?$AAa?$AAg?$AAe?$AAm?$AAe?$AAn?$AAt?$AA?$AA@| [ DATA ] ; `string'
	EXPORT	|??_C@_1BM@MOEMNNDE@?$AAS?$AAa?$AAv?$AAe?$AA?5?$AAS?$AAe?$AAt?$AAt?$AAi?$AAn?$AAg?$AAs?$AA?$AA@| [ DATA ] ; `string'
	EXPORT	|??_C@_1BM@LAACEGCM@?$AAS?$AAe?$AAt?$AA?5?$AAD?$AAe?$AAv?$AAi?$AAc?$AAe?$AA?5?$AAI?$AAD?$AA?$AA@| [ DATA ] ; `string'
	EXPORT	|??_C@_1CA@HKCGHDKE@?$AAS?$AAD?$AAC?$AAa?$AAr?$AAd?$AA?5?$AAS?$AAe?$AAt?$AAt?$AAi?$AAn?$AAg?$AAs?$AA?$AA@| [ DATA ] ; `string'
	EXPORT	|??_C@_1CC@PCCBMLKB@?$AAN?$AAe?$AAt?$AAw?$AAo?$AAr?$AAk?$AA?5?$AAS?$AAe?$AAt?$AAt?$AAi?$AAn?$AAg?$AAs?$AA?$AA@| [ DATA ] ; `string'
	EXPORT	|??_C@_1M@OPFBIOCF@?$AAD?$AAe?$AAb?$AAu?$AAg?$AA?$AA@| [ DATA ] ; `string'
	EXPORT	|??_C@_1DG@LLAJHPJA@?$AAS?$AAe?$AAl?$AAe?$AAc?$AAt?$AA?5?$AAK?$AAI?$AAT?$AAL?$AA?5?$AA?$CI?$AAD?$AAe?$AAb?$AAu?$AAg?$AA?$CJ?$AA?5?$AAD?$AAe?$AAv?$AAi?$AAc?$AAe?$AA?$AA@| [ DATA ] ; `string'
	EXPORT	|??_C@_19JCAOHIEH@?$AAB?$AAo?$AAo?$AAt?$AA?$AA@| [ DATA ] ; `string'
	EXPORT	|??_C@_1CG@BBALNGAE@?$AAS?$AAe?$AAl?$AAe?$AAc?$AAt?$AA?5?$AAB?$AAo?$AAo?$AAt?$AA?5?$AAD?$AAe?$AAv?$AAi?$AAc?$AAe?$AA?$AA@| [ DATA ] ; `string'
	EXPORT	|??_C@_1BO@HAIPBIND@?$AAE?$AAn?$AAt?$AAe?$AAr?$AA?5?$AAF?$AAi?$AAl?$AAe?$AAn?$AAa?$AAm?$AAe?$AA?$AA@| [ DATA ] ; `string'
	EXPORT	|??_C@_1CE@DFLFAFMD@?$AAE?$AAx?$AAi?$AAt?$AA?5?$AAa?$AAn?$AAd?$AA?5?$AAC?$AAo?$AAn?$AAt?$AAi?$AAn?$AAu?$AAe?$AA?$AA@| [ DATA ] ; `string'
	EXPORT	|??_C@_1CA@LLFAIJM@?$AAS?$AAe?$AAt?$AA?5?$AAM?$AAA?$AAC?$AA?5?$AAa?$AAd?$AAd?$AAr?$AAe?$AAs?$AAs?$AA?$AA@| [ DATA ] ; `string'
	EXPORT	|??_C@_1M@NJLEOPAB@?$AAV?$AAM?$AAI?$AAN?$AAI?$AA?$AA@| [ DATA ] ; `string'
	EXPORT	|??_C@_1CK@OKOLJFGH@?$AAE?$AAn?$AAa?$AAb?$AAl?$AAe?$AA?1?$AAd?$AAi?$AAs?$AAa?$AAb?$AAl?$AAe?$AA?5?$AAV?$AAM?$AAI?$AAN?$AAI?$AA?$AA@| [ DATA ] ; `string'
	EXPORT	|??_C@_1BO@BODFGHPI@?$AAD?$AAe?$AAf?$AAa?$AAu?$AAl?$AAt?$AA?5?$AAr?$AAo?$AAu?$AAt?$AAe?$AAr?$AA?$AA@| [ DATA ] ; `string'
	EXPORT	|??_C@_1CG@PDJPJAON@?$AAS?$AAe?$AAt?$AA?5?$AAd?$AAe?$AAf?$AAa?$AAu?$AAl?$AAt?$AA?5?$AAr?$AAo?$AAu?$AAt?$AAe?$AAr?$AA?$AA@| [ DATA ] ; `string'
	EXPORT	|??_C@_1BI@BNFAJPCD@?$AAS?$AAe?$AAt?$AA?5?$AAI?$AAP?$AA?5?$AAm?$AAa?$AAs?$AAk?$AA?$AA@| [ DATA ] ; `string'
	EXPORT	|??_C@_1O@HAMLNBEA@?$AAD?$AAe?$AAv?$AAi?$AAc?$AAe?$AA?$AA@| [ DATA ] ; `string'
	EXPORT	|??_C@_1BO@OBBADFOO@?$AAS?$AAe?$AAt?$AA?5?$AAI?$AAP?$AA?5?$AAa?$AAd?$AAd?$AAr?$AAe?$AAs?$AAs?$AA?$AA@| [ DATA ] ; `string'
	EXPORT	|??_C@_19DDJNJOGL@?$AAD?$AAH?$AAC?$AAP?$AA?$AA@| [ DATA ] ; `string'
	EXPORT	|??_C@_1CI@OHHEPHNA@?$AAE?$AAn?$AAa?$AAb?$AAl?$AAe?$AA?1?$AAd?$AAi?$AAs?$AAa?$AAb?$AAl?$AAe?$AA?5?$AAD?$AAH?$AAC?$AAP?$AA?$AA@| [ DATA ] ; `string'
	EXPORT	|??_C@_1DC@FMHJOEGL@?$AAK?$AAI?$AAT?$AAL?$AA?5?$AAA?$AAc?$AAt?$AAi?$AAv?$AAe?$AA?1?$AAP?$AAa?$AAs?$AAs?$AAi?$AAv?$AAe?$AA?5?$AAm?$AAo?$AAd?$AAe?$AA?$AA@| [ DATA ] ; `string'
	EXPORT	|??_C@_1DC@FHPHDMKC@?$AAK?$AAI?$AAT?$AAL?$AA?5?$AAi?$AAn?$AAt?$AAe?$AAr?$AAr?$AAu?$AAp?$AAt?$AA?1?$AAp?$AAo?$AAl?$AAl?$AA?5?$AAm?$AAo?$AAd?$AAe?$AA?$AA@| [ DATA ] ; `string'
	EXPORT	|??_C@_19KCABPHM@?$AAK?$AAI?$AAT?$AAL?$AA?$AA@| [ DATA ] ; `string'
	EXPORT	|??_C@_1CI@NOMJHGMH@?$AAE?$AAn?$AAa?$AAb?$AAl?$AAe?$AA?1?$AAd?$AAi?$AAs?$AAa?$AAb?$AAl?$AAe?$AA?5?$AAK?$AAI?$AAT?$AAL?$AA?$AA@| [ DATA ] ; `string'
	EXPORT	|??_C@_1CM@CFLHLMJF@?$AAS?$AAh?$AAo?$AAw?$AA?5?$AAC?$AAu?$AAr?$AAr?$AAe?$AAn?$AAt?$AA?5?$AAS?$AAe?$AAt?$AAt?$AAi?$AAn?$AAg?$AAs?$AA?$AA@| [ DATA ] ; `string'
	EXPORT	|dispResMenu| [ DATA ]
	EXPORT	|oppModeMenu35x| [ DATA ]
	EXPORT	|oppModeMenu37x| [ DATA ]
	EXPORT	|disBacklight| [ DATA ]
	EXPORT	|sdToFlash| [ DATA ]
	EXPORT	|backlightBN| [ DATA ]
	EXPORT	|LCMInitiaArray| [ DATA ]
	EXPORT	|BatteryStatusArray| [ DATA ]
	EXPORT	|BACKLIGHT_EN_GPIO| [ DATA ]
	IMPORT	|g_menuFlash|
	IMPORT	|OALBLMenuShow|
	IMPORT	|g_kitlDevices|
	IMPORT	|g_bootDevices|
	IMPORT	|OALBLMenuSelectDevice|
	IMPORT	|OALBLMenuSetIpMask|
	IMPORT	|OALBLMenuSetIpAddress|
	IMPORT	|g_bootCfg|
	IMPORT	|OALBLMenuEnable|

  00000			 AREA	 |.data|, DATA
	 COMMON	|hGPIO|, 0x4

	 COMMON	|tempData|, 0x40

	 COMMON	|RxData|, 0x20

	 COMMON	|TxData|, 0x20


  00000			 AREA	 |.rdata|, DATA, READONLY
|??_C@_1BG@FGGFONDG@?$AAB?$AAr?$AAi?$AAg?$AAh?$AAt?$AAn?$AAe?$AAs?$AAs?$AA?$AA@| DCB "B"
	DCB	0x0, "r", 0x0, "i", 0x0, "g", 0x0, "h", 0x0, "t", 0x0, "n"
	DCB	0x0, "e", 0x0, "s", 0x0, "s", 0x0, 0x0, 0x0 ; `string'

  00000			 AREA	 |.rdata|, DATA, READONLY
|??_C@_1CA@ICPLCDKN@?$AAI?$AAn?$AAi?$AAt?$AAi?$AAa?$AAl?$AA?5?$AAB?$AAa?$AAt?$AAt?$AAe?$AAr?$AAy?$AA?$AA@| DCB "I"
	DCB	0x0, "n", 0x0, "i", 0x0, "t", 0x0, "i", 0x0, "a", 0x0, "l"
	DCB	0x0, " ", 0x0, "B", 0x0, "a", 0x0, "t", 0x0, "t", 0x0, "e"
	DCB	0x0, "r", 0x0, "y", 0x0, 0x0, 0x0	; `string'

  00000			 AREA	 |.rdata|, DATA, READONLY
|??_C@_17OLKFNCJO@?$AAL?$AAo?$AAw?$AA?$AA@| DCB "L", 0x0, "o", 0x0, "w", 0x0
	DCB	0x0, 0x0				; `string'

  00000			 AREA	 |.rdata|, DATA, READONLY
|??_C@_19LFNPILED@?$AAH?$AAi?$AAg?$AAh?$AA?$AA@| DCB "H", 0x0, "i", 0x0, "g"
	DCB	0x0, "h", 0x0, 0x0, 0x0			; `string'

  00000			 AREA	 |.rdata|, DATA, READONLY
|??_C@_13IMODFHAA@?$AA?9?$AA?$AA@| DCB "-", 0x0, 0x0, 0x0 ; `string'

  00000			 AREA	 |.rdata|, DATA, READONLY
|??_C@_13KJIIAINM@?$AA?$CL?$AA?$AA@| DCB "+", 0x0, 0x0, 0x0 ; `string'

  00000			 AREA	 |.rdata|, DATA, READONLY
|??_C@_1BO@DFMGFDAM@?$AAS?$AAh?$AAo?$AAw?$AA?5?$AA?4?$AAn?$AAb?$AA0?$AA?5?$AAD?$AAa?$AAt?$AAa?$AA?$AA@| DCB "S"
	DCB	0x0, "h", 0x0, "o", 0x0, "w", 0x0, " ", 0x0, ".", 0x0, "n"
	DCB	0x0, "b", 0x0, "0", 0x0, " ", 0x0, "D", 0x0, "a", 0x0, "t"
	DCB	0x0, "a", 0x0, 0x0, 0x0			; `string'

  00000			 AREA	 |.rdata|, DATA, READONLY
|??_C@_1BA@DMBHJKCI@?$AAW?$AAr?$AAi?$AAt?$AAi?$AAn?$AAg?$AA?$AA@| DCB "W", 0x0
	DCB	"r", 0x0, "i", 0x0, "t", 0x0, "i", 0x0, "n", 0x0, "g", 0x0
	DCB	0x0, 0x0				; `string'

  00000			 AREA	 |.rdata|, DATA, READONLY
|??_C@_1BA@GEJDCGIE@?$AAR?$AAe?$AAa?$AAd?$AAi?$AAn?$AAg?$AA?$AA@| DCB "R", 0x0
	DCB	"e", 0x0, "a", 0x0, "d", 0x0, "i", 0x0, "n", 0x0, "g", 0x0
	DCB	0x0, 0x0				; `string'

  00000			 AREA	 |.rdata|, DATA, READONLY
|??_C@_19IOBNHAEP@?$AAE?$AAX?$AAI?$AAT?$AA?$AA@| DCB "E", 0x0, "X", 0x0, "I"
	DCB	0x0, "T", 0x0, 0x0, 0x0			; `string'

  00000			 AREA	 |.rdata|, DATA, READONLY
|??_C@_1BG@MCAABGNO@?$AAB?$AAR?$AAI?$AAG?$AAH?$AAT?$AAN?$AAE?$AAS?$AAS?$AA?$AA@| DCB "B"
	DCB	0x0, "R", 0x0, "I", 0x0, "G", 0x0, "H", 0x0, "T", 0x0, "N"
	DCB	0x0, "E", 0x0, "S", 0x0, "S", 0x0, 0x0, 0x0 ; `string'

  00000			 AREA	 |.rdata|, DATA, READONLY
|??_C@_17NBOBOEH@?$AAO?$AAF?$AAF?$AA?$AA@| DCB "O", 0x0, "F", 0x0, "F", 0x0
	DCB	0x0, 0x0				; `string'

  00000			 AREA	 |.rdata|, DATA, READONLY
|??_C@_15MLPIMJOL@?$AAO?$AAN?$AA?$AA@| DCB "O", 0x0, "N", 0x0, 0x0, 0x0 ; `string'

  00000			 AREA	 |.rdata|, DATA, READONLY
|??_C@_1FK@IBMDHDI@?$AAM?$AAP?$AAU?$AA?$FL?$AA1?$AA0?$AA0?$AA0?$AAM?$AAh?$AAz?$AA?5?$AA?$EA?$AA?5?$AA1?$AA?4?$AA3?$AA7?$AA5?$AAV?$AA?$FN?$AA?0?$AA?5?$AAI?$AAV?$AAA?$AA2?$AA?$FL?$AA8?$AA0?$AA0?$AAM@| DCB "M"
	DCB	0x0, "P", 0x0, "U", 0x0, "[", 0x0, "1", 0x0, "0", 0x0, "0"
	DCB	0x0, "0", 0x0, "M", 0x0, "h", 0x0, "z", 0x0, " ", 0x0, "@"
	DCB	0x0, " ", 0x0, "1", 0x0, ".", 0x0, "3", 0x0, "7", 0x0, "5"
	DCB	0x0, "V", 0x0, "]", 0x0, ",", 0x0, " ", 0x0, "I", 0x0, "V"
	DCB	0x0, "A", 0x0, "2", 0x0, "[", 0x0, "8", 0x0, "0", 0x0, "0"
	DCB	0x0, "M", 0x0, "h", 0x0, "z", 0x0, " ", 0x0, "@", 0x0, " "
	DCB	0x0, "1", 0x0, ".", 0x0, "3", 0x0, "7", 0x0, "5", 0x0, "V"
	DCB	0x0, "]", 0x0, 0x0, 0x0			; `string'

  00000			 AREA	 |.rdata|, DATA, READONLY
|??_C@_1FO@MCHCGGFD@?$AAM?$AAP?$AAU?$AA?$FL?$AA8?$AA0?$AA0?$AAM?$AAh?$AAz?$AA?5?$AA?5?$AA?$EA?$AA?5?$AA1?$AA?4?$AA2?$AA6?$AA2?$AA5?$AAV?$AA?$FN?$AA?0?$AA?5?$AAI?$AAV?$AAA?$AA2?$AA?$FL?$AA6?$AA6?$AA0@| DCB "M"
	DCB	0x0, "P", 0x0, "U", 0x0, "[", 0x0, "8", 0x0, "0", 0x0, "0"
	DCB	0x0, "M", 0x0, "h", 0x0, "z", 0x0, " ", 0x0, " ", 0x0, "@"
	DCB	0x0, " ", 0x0, "1", 0x0, ".", 0x0, "2", 0x0, "6", 0x0, "2"
	DCB	0x0, "5", 0x0, "V", 0x0, "]", 0x0, ",", 0x0, " ", 0x0, "I"
	DCB	0x0, "V", 0x0, "A", 0x0, "2", 0x0, "[", 0x0, "6", 0x0, "6"
	DCB	0x0, "0", 0x0, "M", 0x0, "h", 0x0, "z", 0x0, " ", 0x0, "@"
	DCB	0x0, " ", 0x0, "1", 0x0, ".", 0x0, "2", 0x0, "6", 0x0, "2"
	DCB	0x0, "5", 0x0, "V", 0x0, "]", 0x0, 0x0, 0x0 ; `string'

  00000			 AREA	 |.rdata|, DATA, READONLY
|??_C@_1FO@CAGHGIKC@?$AAM?$AAP?$AAU?$AA?$FL?$AA6?$AA0?$AA0?$AAM?$AAh?$AAz?$AA?5?$AA?5?$AA?$EA?$AA?5?$AA1?$AA?4?$AA1?$AA0?$AA0?$AA0?$AAV?$AA?$FN?$AA?0?$AA?5?$AAI?$AAV?$AAA?$AA2?$AA?$FL?$AA5?$AA2?$AA0@| DCB "M"
	DCB	0x0, "P", 0x0, "U", 0x0, "[", 0x0, "6", 0x0, "0", 0x0, "0"
	DCB	0x0, "M", 0x0, "h", 0x0, "z", 0x0, " ", 0x0, " ", 0x0, "@"
	DCB	0x0, " ", 0x0, "1", 0x0, ".", 0x0, "1", 0x0, "0", 0x0, "0"
	DCB	0x0, "0", 0x0, "V", 0x0, "]", 0x0, ",", 0x0, " ", 0x0, "I"
	DCB	0x0, "V", 0x0, "A", 0x0, "2", 0x0, "[", 0x0, "5", 0x0, "2"
	DCB	0x0, "0", 0x0, "M", 0x0, "h", 0x0, "z", 0x0, " ", 0x0, "@"
	DCB	0x0, " ", 0x0, "1", 0x0, ".", 0x0, "1", 0x0, "0", 0x0, "0"
	DCB	0x0, "0", 0x0, "V", 0x0, "]", 0x0, 0x0, 0x0 ; `string'

  00000			 AREA	 |.rdata|, DATA, READONLY
|??_C@_1FO@ELABMNJD@?$AAM?$AAP?$AAU?$AA?$FL?$AA3?$AA0?$AA0?$AAM?$AAh?$AAz?$AA?5?$AA?5?$AA?$EA?$AA?5?$AA0?$AA?4?$AA9?$AA3?$AA7?$AA5?$AAV?$AA?$FN?$AA?0?$AA?5?$AAI?$AAV?$AAA?$AA2?$AA?$FL?$AA2?$AA6?$AA0@| DCB "M"
	DCB	0x0, "P", 0x0, "U", 0x0, "[", 0x0, "3", 0x0, "0", 0x0, "0"
	DCB	0x0, "M", 0x0, "h", 0x0, "z", 0x0, " ", 0x0, " ", 0x0, "@"
	DCB	0x0, " ", 0x0, "0", 0x0, ".", 0x0, "9", 0x0, "3", 0x0, "7"
	DCB	0x0, "5", 0x0, "V", 0x0, "]", 0x0, ",", 0x0, " ", 0x0, "I"
	DCB	0x0, "V", 0x0, "A", 0x0, "2", 0x0, "[", 0x0, "2", 0x0, "6"
	DCB	0x0, "0", 0x0, "M", 0x0, "h", 0x0, "z", 0x0, " ", 0x0, "@"
	DCB	0x0, " ", 0x0, "0", 0x0, ".", 0x0, "9", 0x0, "3", 0x0, "7"
	DCB	0x0, "5", 0x0, "V", 0x0, "]", 0x0, 0x0, 0x0 ; `string'

  00000			 AREA	 |.rdata|, DATA, READONLY
|??_C@_1FG@KPBOKIAA@?$AAM?$AAP?$AAU?$AA?$FL?$AA7?$AA2?$AA0?$AAh?$AAz?$AA?5?$AA?$EA?$AA?5?$AA1?$AA?4?$AA3?$AA5?$AA0?$AA0?$AAV?$AA?$FN?$AA?0?$AA?5?$AAI?$AAV?$AAA?$AA2?$AA?$FL?$AA5?$AA2?$AA0?$AAM?$AAh@| DCB "M"
	DCB	0x0, "P", 0x0, "U", 0x0, "[", 0x0, "7", 0x0, "2", 0x0, "0"
	DCB	0x0, "h", 0x0, "z", 0x0, " ", 0x0, "@", 0x0, " ", 0x0, "1"
	DCB	0x0, ".", 0x0, "3", 0x0, "5", 0x0, "0", 0x0, "0", 0x0, "V"
	DCB	0x0, "]", 0x0, ",", 0x0, " ", 0x0, "I", 0x0, "V", 0x0, "A"
	DCB	0x0, "2", 0x0, "[", 0x0, "5", 0x0, "2", 0x0, "0", 0x0, "M"
	DCB	0x0, "h", 0x0, "z", 0x0, " ", 0x0, "@", 0x0, " ", 0x0, "1"
	DCB	0x0, ".", 0x0, "3", 0x0, "5", 0x0, "V", 0x0, "]", 0x0, 0x0
	DCB	0x0					; `string'

  00000			 AREA	 |.rdata|, DATA, READONLY
|??_C@_1FI@GKLNGOFA@?$AAM?$AAP?$AAU?$AA?$FL?$AA6?$AA0?$AA0?$AAM?$AAh?$AAz?$AA?5?$AA?$EA?$AA?5?$AA1?$AA?4?$AA3?$AA5?$AA0?$AA0?$AAV?$AA?$FN?$AA?0?$AA?5?$AAI?$AAV?$AAA?$AA2?$AA?$FL?$AA4?$AA3?$AA0?$AAM@| DCB "M"
	DCB	0x0, "P", 0x0, "U", 0x0, "[", 0x0, "6", 0x0, "0", 0x0, "0"
	DCB	0x0, "M", 0x0, "h", 0x0, "z", 0x0, " ", 0x0, "@", 0x0, " "
	DCB	0x0, "1", 0x0, ".", 0x0, "3", 0x0, "5", 0x0, "0", 0x0, "0"
	DCB	0x0, "V", 0x0, "]", 0x0, ",", 0x0, " ", 0x0, "I", 0x0, "V"
	DCB	0x0, "A", 0x0, "2", 0x0, "[", 0x0, "4", 0x0, "3", 0x0, "0"
	DCB	0x0, "M", 0x0, "h", 0x0, "z", 0x0, " ", 0x0, "@", 0x0, " "
	DCB	0x0, "1", 0x0, ".", 0x0, "3", 0x0, "5", 0x0, "V", 0x0, "]"
	DCB	0x0, 0x0, 0x0				; `string'

  00000			 AREA	 |.rdata|, DATA, READONLY
|??_C@_1FI@GMIAOKFE@?$AAM?$AAP?$AAU?$AA?$FL?$AA5?$AA5?$AA0?$AAM?$AAh?$AAz?$AA?5?$AA?$EA?$AA?5?$AA1?$AA?4?$AA2?$AA7?$AA5?$AA0?$AAV?$AA?$FN?$AA?0?$AA?5?$AAI?$AAV?$AAA?$AA2?$AA?$FL?$AA4?$AA0?$AA0?$AAM@| DCB "M"
	DCB	0x0, "P", 0x0, "U", 0x0, "[", 0x0, "5", 0x0, "5", 0x0, "0"
	DCB	0x0, "M", 0x0, "h", 0x0, "z", 0x0, " ", 0x0, "@", 0x0, " "
	DCB	0x0, "1", 0x0, ".", 0x0, "2", 0x0, "7", 0x0, "5", 0x0, "0"
	DCB	0x0, "V", 0x0, "]", 0x0, ",", 0x0, " ", 0x0, "I", 0x0, "V"
	DCB	0x0, "A", 0x0, "2", 0x0, "[", 0x0, "4", 0x0, "0", 0x0, "0"
	DCB	0x0, "M", 0x0, "h", 0x0, "z", 0x0, " ", 0x0, "@", 0x0, " "
	DCB	0x0, "1", 0x0, ".", 0x0, "2", 0x0, "7", 0x0, "V", 0x0, "]"
	DCB	0x0, 0x0, 0x0				; `string'

  00000			 AREA	 |.rdata|, DATA, READONLY
|??_C@_1FI@LNIHINJA@?$AAM?$AAP?$AAU?$AA?$FL?$AA5?$AA0?$AA0?$AAM?$AAh?$AAz?$AA?5?$AA?$EA?$AA?5?$AA1?$AA?4?$AA2?$AA0?$AA0?$AA0?$AAV?$AA?$FN?$AA?0?$AA?5?$AAI?$AAV?$AAA?$AA2?$AA?$FL?$AA3?$AA6?$AA0?$AAM@| DCB "M"
	DCB	0x0, "P", 0x0, "U", 0x0, "[", 0x0, "5", 0x0, "0", 0x0, "0"
	DCB	0x0, "M", 0x0, "h", 0x0, "z", 0x0, " ", 0x0, "@", 0x0, " "
	DCB	0x0, "1", 0x0, ".", 0x0, "2", 0x0, "0", 0x0, "0", 0x0, "0"
	DCB	0x0, "V", 0x0, "]", 0x0, ",", 0x0, " ", 0x0, "I", 0x0, "V"
	DCB	0x0, "A", 0x0, "2", 0x0, "[", 0x0, "3", 0x0, "6", 0x0, "0"
	DCB	0x0, "M", 0x0, "h", 0x0, "z", 0x0, " ", 0x0, "@", 0x0, " "
	DCB	0x0, "1", 0x0, ".", 0x0, "2", 0x0, "0", 0x0, "V", 0x0, "]"
	DCB	0x0, 0x0, 0x0				; `string'

  00000			 AREA	 |.rdata|, DATA, READONLY
|??_C@_1FG@IMGDNCBP@?$AAM?$AAP?$AAU?$AA?$FL?$AA2?$AA5?$AA0?$AAM?$AAh?$AAz?$AA?5?$AA?$EA?$AA?5?$AA1?$AA?4?$AA0?$AA0?$AA0?$AAV?$AA?$FN?$AA?0?$AA?5?$AAI?$AAV?$AAA?$AA2?$AA?$FL?$AA1?$AA8?$AA0?$AAM?$AAh@| DCB "M"
	DCB	0x0, "P", 0x0, "U", 0x0, "[", 0x0, "2", 0x0, "5", 0x0, "0"
	DCB	0x0, "M", 0x0, "h", 0x0, "z", 0x0, " ", 0x0, "@", 0x0, " "
	DCB	0x0, "1", 0x0, ".", 0x0, "0", 0x0, "0", 0x0, "0", 0x0, "V"
	DCB	0x0, "]", 0x0, ",", 0x0, " ", 0x0, "I", 0x0, "V", 0x0, "A"
	DCB	0x0, "2", 0x0, "[", 0x0, "1", 0x0, "8", 0x0, "0", 0x0, "M"
	DCB	0x0, "h", 0x0, "z", 0x0, " ", 0x0, "@", 0x0, " ", 0x0, "1"
	DCB	0x0, ".", 0x0, "0", 0x0, "0", 0x0, "V", 0x0, "]", 0x0, 0x0
	DCB	0x0					; `string'

  00000			 AREA	 |.rdata|, DATA, READONLY
|??_C@_1FI@HKFGBOFG@?$AAM?$AAP?$AAU?$AA?$FL?$AA1?$AA2?$AA5?$AAM?$AAh?$AAz?$AA?5?$AA?$EA?$AA?5?$AA0?$AA?4?$AA9?$AA7?$AA5?$AAV?$AA?$FN?$AA?0?$AA?5?$AAI?$AAV?$AAA?$AA2?$AA?$FL?$AA?5?$AA9?$AA0?$AAM?$AAh@| DCB "M"
	DCB	0x0, "P", 0x0, "U", 0x0, "[", 0x0, "1", 0x0, "2", 0x0, "5"
	DCB	0x0, "M", 0x0, "h", 0x0, "z", 0x0, " ", 0x0, "@", 0x0, " "
	DCB	0x0, "0", 0x0, ".", 0x0, "9", 0x0, "7", 0x0, "5", 0x0, "V"
	DCB	0x0, "]", 0x0, ",", 0x0, " ", 0x0, "I", 0x0, "V", 0x0, "A"
	DCB	0x0, "2", 0x0, "[", 0x0, " ", 0x0, "9", 0x0, "0", 0x0, "M"
	DCB	0x0, "h", 0x0, "z", 0x0, " ", 0x0, "@", 0x0, " ", 0x0, "0"
	DCB	0x0, ".", 0x0, "9", 0x0, "7", 0x0, "5", 0x0, "V", 0x0, "]"
	DCB	0x0, 0x0, 0x0				; `string'

  00000			 AREA	 |.rdata|, DATA, READONLY
|??_C@_1BM@KBHAINFM@?$AAI?$AAn?$AAv?$AAa?$AAl?$AAi?$AAd?$AA?5?$AAE?$AAn?$AAt?$AAr?$AAy?$AA?$AA@| DCB "I"
	DCB	0x0, "n", 0x0, "v", 0x0, "a", 0x0, "l", 0x0, "i", 0x0, "d"
	DCB	0x0, " ", 0x0, "E", 0x0, "n", 0x0, "t", 0x0, "r", 0x0, "y"
	DCB	0x0, 0x0, 0x0				; `string'

  00000			 AREA	 |.rdata|, DATA, READONLY
|??_C@_1CE@BMIKEEML@?$AAD?$AAV?$AAI?$AA?5?$AA1?$AA2?$AA8?$AA0?$AAx?$AA7?$AA2?$AA0?$AA?5?$AA6?$AA0?$AAH?$AAz?$AA?$AA@| DCB "D"
	DCB	0x0, "V", 0x0, "I", 0x0, " ", 0x0, "1", 0x0, "2", 0x0, "8"
	DCB	0x0, "0", 0x0, "x", 0x0, "7", 0x0, "2", 0x0, "0", 0x0, " "
	DCB	0x0, "6", 0x0, "0", 0x0, "H", 0x0, "z", 0x0, 0x0, 0x0 ; `string'

  00000			 AREA	 |.rdata|, DATA, READONLY
|??_C@_1CE@LJDPDOKE@?$AAD?$AAV?$AAI?$AA?5?$AA1?$AA0?$AA2?$AA4?$AAx?$AA7?$AA6?$AA8?$AA?5?$AA6?$AA0?$AAH?$AAz?$AA?$AA@| DCB "D"
	DCB	0x0, "V", 0x0, "I", 0x0, " ", 0x0, "1", 0x0, "0", 0x0, "2"
	DCB	0x0, "4", 0x0, "x", 0x0, "7", 0x0, "6", 0x0, "8", 0x0, " "
	DCB	0x0, "6", 0x0, "0", 0x0, "H", 0x0, "z", 0x0, 0x0, 0x0 ; `string'

  00000			 AREA	 |.rdata|, DATA, READONLY
|??_C@_1CE@NBKEBDGN@?$AAD?$AAV?$AAI?$AA?5?$AA?5?$AA8?$AA0?$AA0?$AAx?$AA6?$AA0?$AA0?$AA?5?$AA5?$AA6?$AAH?$AAz?$AA?$AA@| DCB "D"
	DCB	0x0, "V", 0x0, "I", 0x0, " ", 0x0, " ", 0x0, "8", 0x0, "0"
	DCB	0x0, "0", 0x0, "x", 0x0, "6", 0x0, "0", 0x0, "0", 0x0, " "
	DCB	0x0, "5", 0x0, "6", 0x0, "H", 0x0, "z", 0x0, 0x0, 0x0 ; `string'

  00000			 AREA	 |.rdata|, DATA, READONLY
|??_C@_1CE@PMPMKBOJ@?$AAD?$AAV?$AAI?$AA?5?$AA?5?$AA8?$AA0?$AA0?$AAx?$AA6?$AA0?$AA0?$AA?5?$AA6?$AA0?$AAH?$AAz?$AA?$AA@| DCB "D"
	DCB	0x0, "V", 0x0, "I", 0x0, " ", 0x0, " ", 0x0, "8", 0x0, "0"
	DCB	0x0, "0", 0x0, "x", 0x0, "6", 0x0, "0", 0x0, "0", 0x0, " "
	DCB	0x0, "6", 0x0, "0", 0x0, "H", 0x0, "z", 0x0, 0x0, 0x0 ; `string'

  00000			 AREA	 |.rdata|, DATA, READONLY
|??_C@_1CE@IKDLFFCF@?$AAD?$AAV?$AAI?$AA?5?$AA?5?$AA8?$AA0?$AA0?$AAx?$AA4?$AA8?$AA0?$AA?5?$AA6?$AA0?$AAH?$AAz?$AA?$AA@| DCB "D"
	DCB	0x0, "V", 0x0, "I", 0x0, " ", 0x0, " ", 0x0, "8", 0x0, "0"
	DCB	0x0, "0", 0x0, "x", 0x0, "4", 0x0, "8", 0x0, "0", 0x0, " "
	DCB	0x0, "6", 0x0, "0", 0x0, "H", 0x0, "z", 0x0, 0x0, 0x0 ; `string'

  00000			 AREA	 |.rdata|, DATA, READONLY
|??_C@_1CE@CECNFHDE@?$AAD?$AAV?$AAI?$AA?5?$AA?5?$AA6?$AA4?$AA0?$AAx?$AA4?$AA8?$AA0?$AA?5?$AA7?$AA2?$AAH?$AAz?$AA?$AA@| DCB "D"
	DCB	0x0, "V", 0x0, "I", 0x0, " ", 0x0, " ", 0x0, "6", 0x0, "4"
	DCB	0x0, "0", 0x0, "x", 0x0, "4", 0x0, "8", 0x0, "0", 0x0, " "
	DCB	0x0, "7", 0x0, "2", 0x0, "H", 0x0, "z", 0x0, 0x0, 0x0 ; `string'

  00000			 AREA	 |.rdata|, DATA, READONLY
|??_C@_1CE@IJMKDLHH@?$AAD?$AAV?$AAI?$AA?5?$AA?5?$AA6?$AA4?$AA0?$AAx?$AA4?$AA8?$AA0?$AA?5?$AA6?$AA0?$AAH?$AAz?$AA?$AA@| DCB "D"
	DCB	0x0, "V", 0x0, "I", 0x0, " ", 0x0, " ", 0x0, "6", 0x0, "4"
	DCB	0x0, "0", 0x0, "x", 0x0, "4", 0x0, "8", 0x0, "0", 0x0, " "
	DCB	0x0, "6", 0x0, "0", 0x0, "H", 0x0, "z", 0x0, 0x0, 0x0 ; `string'

  00000			 AREA	 |.rdata|, DATA, READONLY
|??_C@_1CE@FKEPMAF@?$AAL?$AAC?$AAD?$AA?5?$AA?5?$AA4?$AA8?$AA0?$AAx?$AA6?$AA4?$AA0?$AA?5?$AA6?$AA0?$AAH?$AAz?$AA?$AA@| DCB "L"
	DCB	0x0, "C", 0x0, "D", 0x0, " ", 0x0, " ", 0x0, "4", 0x0, "8"
	DCB	0x0, "0", 0x0, "x", 0x0, "6", 0x0, "4", 0x0, "0", 0x0, " "
	DCB	0x0, "6", 0x0, "0", 0x0, "H", 0x0, "z", 0x0, 0x0, 0x0 ; `string'

  00000			 AREA	 |.rdata|, DATA, READONLY
|??_C@_1BE@FNAHCCDL@?$AAM?$AAa?$AAi?$AAn?$AA?5?$AAM?$AAe?$AAn?$AAu?$AA?$AA@| DCB "M"
	DCB	0x0, "a", 0x0, "i", 0x0, "n", 0x0, " ", 0x0, "M", 0x0, "e"
	DCB	0x0, "n", 0x0, "u", 0x0, 0x0, 0x0	; `string'

  00000			 AREA	 |.rdata|, DATA, READONLY
|??_C@_1BO@KCFMLMDG@?$AAB?$AAa?$AAt?$AAt?$AAe?$AAr?$AAy?$AA?5?$AAS?$AAt?$AAa?$AAt?$AAu?$AAs?$AA?$AA@| DCB "B"
	DCB	0x0, "a", 0x0, "t", 0x0, "t", 0x0, "e", 0x0, "r", 0x0, "y"
	DCB	0x0, " ", 0x0, "S", 0x0, "t", 0x0, "a", 0x0, "t", 0x0, "u"
	DCB	0x0, "s", 0x0, 0x0, 0x0			; `string'

  00000			 AREA	 |.rdata|, DATA, READONLY
|??_C@_1BI@GPNGIDKF@?$AAL?$AAC?$AAM?$AA?5?$AAI?$AAn?$AAi?$AAt?$AAi?$AAa?$AAl?$AA?$AA@| DCB "L"
	DCB	0x0, "C", 0x0, "M", 0x0, " ", 0x0, "I", 0x0, "n", 0x0, "i"
	DCB	0x0, "t", 0x0, "i", 0x0, "a", 0x0, "l", 0x0, 0x0, 0x0 ; `string'

  00000			 AREA	 |.rdata|, DATA, READONLY
|??_C@_1EI@LALMHHNG@?$AAF?$AAi?$AAl?$AAe?$AA?5?$AAT?$AAr?$AAa?$AAn?$AAs?$AAf?$AAe?$AAr?$AA?5?$AAf?$AAr?$AAo?$AAm?$AA?5?$AAS?$AAD?$AA?5?$AAC?$AAa?$AAr?$AAd?$AA?5?$AAt?$AAo?$AA?5?$AAF?$AAl@| DCB "F"
	DCB	0x0, "i", 0x0, "l", 0x0, "e", 0x0, " ", 0x0, "T", 0x0, "r"
	DCB	0x0, "a", 0x0, "n", 0x0, "s", 0x0, "f", 0x0, "e", 0x0, "r"
	DCB	0x0, " ", 0x0, "f", 0x0, "r", 0x0, "o", 0x0, "m", 0x0, " "
	DCB	0x0, "S", 0x0, "D", 0x0, " ", 0x0, "C", 0x0, "a", 0x0, "r"
	DCB	0x0, "d", 0x0, " ", 0x0, "t", 0x0, "o", 0x0, " ", 0x0, "F"
	DCB	0x0, "l", 0x0, "a", 0x0, "s", 0x0, "h", 0x0, 0x0, 0x0 ; `string'

  00000			 AREA	 |.rdata|, DATA, READONLY
|??_C@_1CC@COAEHFII@?$AAB?$AAa?$AAc?$AAk?$AAl?$AAi?$AAg?$AAh?$AAt?$AA?5?$AAO?$AAN?$AA?1?$AAO?$AAF?$AAF?$AA?$AA@| DCB "B"
	DCB	0x0, "a", 0x0, "c", 0x0, "k", 0x0, "l", 0x0, "i", 0x0, "g"
	DCB	0x0, "h", 0x0, "t", 0x0, " ", 0x0, "O", 0x0, "N", 0x0, "/"
	DCB	0x0, "O", 0x0, "F", 0x0, "F", 0x0, 0x0, 0x0 ; `string'

  00000			 AREA	 |.rdata|, DATA, READONLY
|??_C@_1CA@MOPOGELI@?$AAS?$AAe?$AAl?$AAe?$AAc?$AAt?$AA?5?$AAO?$AAP?$AAP?$AA?5?$AAM?$AAo?$AAd?$AAe?$AA?$AA@| DCB "S"
	DCB	0x0, "e", 0x0, "l", 0x0, "e", 0x0, "c", 0x0, "t", 0x0, " "
	DCB	0x0, "O", 0x0, "P", 0x0, "P", 0x0, " ", 0x0, "M", 0x0, "o"
	DCB	0x0, "d", 0x0, "e", 0x0, 0x0, 0x0	; `string'

  00000			 AREA	 |.rdata|, DATA, READONLY
|??_C@_1DE@DBBLEEO@?$AAS?$AAe?$AAl?$AAe?$AAc?$AAt?$AA?5?$AAD?$AAi?$AAs?$AAp?$AAl?$AAa?$AAy?$AA?5?$AAR?$AAe?$AAs?$AAo?$AAl?$AAu?$AAt?$AAi?$AAo?$AAn?$AA?$AA@| DCB "S"
	DCB	0x0, "e", 0x0, "l", 0x0, "e", 0x0, "c", 0x0, "t", 0x0, " "
	DCB	0x0, "D", 0x0, "i", 0x0, "s", 0x0, "p", 0x0, "l", 0x0, "a"
	DCB	0x0, "y", 0x0, " ", 0x0, "R", 0x0, "e", 0x0, "s", 0x0, "o"
	DCB	0x0, "l", 0x0, "u", 0x0, "t", 0x0, "i", 0x0, "o", 0x0, "n"
	DCB	0x0, 0x0, 0x0				; `string'

  00000			 AREA	 |.rdata|, DATA, READONLY
|??_C@_1EG@HMEOLENI@?$AAE?$AAn?$AAa?$AAb?$AAl?$AAe?$AA?1?$AAD?$AAi?$AAs?$AAa?$AAb?$AAl?$AAe?$AA?5?$AAO?$AAA?$AAL?$AA?5?$AAR?$AAe?$AAt?$AAa?$AAi?$AAl?$AA?5?$AAM?$AAe?$AAs?$AAs?$AAa?$AAg@| DCB "E"
	DCB	0x0, "n", 0x0, "a", 0x0, "b", 0x0, "l", 0x0, "e", 0x0, "/"
	DCB	0x0, "D", 0x0, "i", 0x0, "s", 0x0, "a", 0x0, "b", 0x0, "l"
	DCB	0x0, "e", 0x0, " ", 0x0, "O", 0x0, "A", 0x0, "L", 0x0, " "
	DCB	0x0, "R", 0x0, "e", 0x0, "t", 0x0, "a", 0x0, "i", 0x0, "l"
	DCB	0x0, " ", 0x0, "M", 0x0, "e", 0x0, "s", 0x0, "s", 0x0, "a"
	DCB	0x0, "g", 0x0, "e", 0x0, "s", 0x0, 0x0, 0x0 ; `string'

  00000			 AREA	 |.rdata|, DATA, READONLY
|??_C@_1CC@GBKCLJHP@?$AAF?$AAl?$AAa?$AAs?$AAh?$AA?5?$AAM?$AAa?$AAn?$AAa?$AAg?$AAe?$AAm?$AAe?$AAn?$AAt?$AA?$AA@| DCB "F"
	DCB	0x0, "l", 0x0, "a", 0x0, "s", 0x0, "h", 0x0, " ", 0x0, "M"
	DCB	0x0, "a", 0x0, "n", 0x0, "a", 0x0, "g", 0x0, "e", 0x0, "m"
	DCB	0x0, "e", 0x0, "n", 0x0, "t", 0x0, 0x0, 0x0 ; `string'

  00000			 AREA	 |.rdata|, DATA, READONLY
|??_C@_1BM@MOEMNNDE@?$AAS?$AAa?$AAv?$AAe?$AA?5?$AAS?$AAe?$AAt?$AAt?$AAi?$AAn?$AAg?$AAs?$AA?$AA@| DCB "S"
	DCB	0x0, "a", 0x0, "v", 0x0, "e", 0x0, " ", 0x0, "S", 0x0, "e"
	DCB	0x0, "t", 0x0, "t", 0x0, "i", 0x0, "n", 0x0, "g", 0x0, "s"
	DCB	0x0, 0x0, 0x0				; `string'

  00000			 AREA	 |.rdata|, DATA, READONLY
|??_C@_1BM@LAACEGCM@?$AAS?$AAe?$AAt?$AA?5?$AAD?$AAe?$AAv?$AAi?$AAc?$AAe?$AA?5?$AAI?$AAD?$AA?$AA@| DCB "S"
	DCB	0x0, "e", 0x0, "t", 0x0, " ", 0x0, "D", 0x0, "e", 0x0, "v"
	DCB	0x0, "i", 0x0, "c", 0x0, "e", 0x0, " ", 0x0, "I", 0x0, "D"
	DCB	0x0, 0x0, 0x0				; `string'

  00000			 AREA	 |.rdata|, DATA, READONLY
|??_C@_1CA@HKCGHDKE@?$AAS?$AAD?$AAC?$AAa?$AAr?$AAd?$AA?5?$AAS?$AAe?$AAt?$AAt?$AAi?$AAn?$AAg?$AAs?$AA?$AA@| DCB "S"
	DCB	0x0, "D", 0x0, "C", 0x0, "a", 0x0, "r", 0x0, "d", 0x0, " "
	DCB	0x0, "S", 0x0, "e", 0x0, "t", 0x0, "t", 0x0, "i", 0x0, "n"
	DCB	0x0, "g", 0x0, "s", 0x0, 0x0, 0x0	; `string'

  00000			 AREA	 |.rdata|, DATA, READONLY
|??_C@_1CC@PCCBMLKB@?$AAN?$AAe?$AAt?$AAw?$AAo?$AAr?$AAk?$AA?5?$AAS?$AAe?$AAt?$AAt?$AAi?$AAn?$AAg?$AAs?$AA?$AA@| DCB "N"
	DCB	0x0, "e", 0x0, "t", 0x0, "w", 0x0, "o", 0x0, "r", 0x0, "k"
	DCB	0x0, " ", 0x0, "S", 0x0, "e", 0x0, "t", 0x0, "t", 0x0, "i"
	DCB	0x0, "n", 0x0, "g", 0x0, "s", 0x0, 0x0, 0x0 ; `string'

  00000			 AREA	 |.rdata|, DATA, READONLY
|??_C@_1M@OPFBIOCF@?$AAD?$AAe?$AAb?$AAu?$AAg?$AA?$AA@| DCB "D", 0x0, "e", 0x0
	DCB	"b", 0x0, "u", 0x0, "g", 0x0, 0x0, 0x0	; `string'

  00000			 AREA	 |.rdata|, DATA, READONLY
|??_C@_1DG@LLAJHPJA@?$AAS?$AAe?$AAl?$AAe?$AAc?$AAt?$AA?5?$AAK?$AAI?$AAT?$AAL?$AA?5?$AA?$CI?$AAD?$AAe?$AAb?$AAu?$AAg?$AA?$CJ?$AA?5?$AAD?$AAe?$AAv?$AAi?$AAc?$AAe?$AA?$AA@| DCB "S"
	DCB	0x0, "e", 0x0, "l", 0x0, "e", 0x0, "c", 0x0, "t", 0x0, " "
	DCB	0x0, "K", 0x0, "I", 0x0, "T", 0x0, "L", 0x0, " ", 0x0, "("
	DCB	0x0, "D", 0x0, "e", 0x0, "b", 0x0, "u", 0x0, "g", 0x0, ")"
	DCB	0x0, " ", 0x0, "D", 0x0, "e", 0x0, "v", 0x0, "i", 0x0, "c"
	DCB	0x0, "e", 0x0, 0x0, 0x0			; `string'

  00000			 AREA	 |.rdata|, DATA, READONLY
|??_C@_19JCAOHIEH@?$AAB?$AAo?$AAo?$AAt?$AA?$AA@| DCB "B", 0x0, "o", 0x0, "o"
	DCB	0x0, "t", 0x0, 0x0, 0x0			; `string'

  00000			 AREA	 |.rdata|, DATA, READONLY
|??_C@_1CG@BBALNGAE@?$AAS?$AAe?$AAl?$AAe?$AAc?$AAt?$AA?5?$AAB?$AAo?$AAo?$AAt?$AA?5?$AAD?$AAe?$AAv?$AAi?$AAc?$AAe?$AA?$AA@| DCB "S"
	DCB	0x0, "e", 0x0, "l", 0x0, "e", 0x0, "c", 0x0, "t", 0x0, " "
	DCB	0x0, "B", 0x0, "o", 0x0, "o", 0x0, "t", 0x0, " ", 0x0, "D"
	DCB	0x0, "e", 0x0, "v", 0x0, "i", 0x0, "c", 0x0, "e", 0x0, 0x0
	DCB	0x0					; `string'

  00000			 AREA	 |.rdata|, DATA, READONLY
|??_C@_1BO@HAIPBIND@?$AAE?$AAn?$AAt?$AAe?$AAr?$AA?5?$AAF?$AAi?$AAl?$AAe?$AAn?$AAa?$AAm?$AAe?$AA?$AA@| DCB "E"
	DCB	0x0, "n", 0x0, "t", 0x0, "e", 0x0, "r", 0x0, " ", 0x0, "F"
	DCB	0x0, "i", 0x0, "l", 0x0, "e", 0x0, "n", 0x0, "a", 0x0, "m"
	DCB	0x0, "e", 0x0, 0x0, 0x0			; `string'

  00000			 AREA	 |.data|, DATA
|g_menuNetwork| DCW 0x31
	%	2
	DCD	|??_C@_1CM@CFLHLMJF@?$AAS?$AAh?$AAo?$AAw?$AA?5?$AAC?$AAu?$AAr?$AAr?$AAe?$AAn?$AAt?$AA?5?$AAS?$AAe?$AAt?$AAt?$AAi?$AAn?$AAg?$AAs?$AA?$AA@|
	DCD	|ShowNetworkSettings|
	DCD	0x0
	DCD	0x0
	DCD	0x0
	DCW	0x32
	%	2
	DCD	|??_C@_1CI@NOMJHGMH@?$AAE?$AAn?$AAa?$AAb?$AAl?$AAe?$AA?1?$AAd?$AAi?$AAs?$AAa?$AAb?$AAl?$AAe?$AA?5?$AAK?$AAI?$AAT?$AAL?$AA?$AA@|
	DCD	|OALBLMenuEnable|
	DCD	|??_C@_19KCABPHM@?$AAK?$AAI?$AAT?$AAL?$AA?$AA@|
	DCD	|g_bootCfg|+48
	DCD	0x1
	DCW	0x33
	%	2
	DCD	|??_C@_1DC@FHPHDMKC@?$AAK?$AAI?$AAT?$AAL?$AA?5?$AAi?$AAn?$AAt?$AAe?$AAr?$AAr?$AAu?$AAp?$AAt?$AA?1?$AAp?$AAo?$AAl?$AAl?$AA?5?$AAm?$AAo?$AAd?$AAe?$AA?$AA@|
	DCD	|SetKitlMode|
	DCD	0x0
	DCD	0x0
	DCD	0x0
	DCW	0x34
	%	2
	DCD	|??_C@_1DC@FMHJOEGL@?$AAK?$AAI?$AAT?$AAL?$AA?5?$AAA?$AAc?$AAt?$AAi?$AAv?$AAe?$AA?1?$AAP?$AAa?$AAs?$AAs?$AAi?$AAv?$AAe?$AA?5?$AAm?$AAo?$AAd?$AAe?$AA?$AA@|
	DCD	|SetKitlType|
	DCD	0x0
	DCD	0x0
	DCD	0x0
	DCW	0x35
	%	2
	DCD	|??_C@_1CI@OHHEPHNA@?$AAE?$AAn?$AAa?$AAb?$AAl?$AAe?$AA?1?$AAd?$AAi?$AAs?$AAa?$AAb?$AAl?$AAe?$AA?5?$AAD?$AAH?$AAC?$AAP?$AA?$AA@|
	DCD	|OALBLMenuEnable|
	DCD	|??_C@_19DDJNJOGL@?$AAD?$AAH?$AAC?$AAP?$AA?$AA@|
	DCD	|g_bootCfg|+48
	DCD	0x4
	DCW	0x36
	%	2
	DCD	|??_C@_1BO@OBBADFOO@?$AAS?$AAe?$AAt?$AA?5?$AAI?$AAP?$AA?5?$AAa?$AAd?$AAd?$AAr?$AAe?$AAs?$AAs?$AA?$AA@|
	DCD	|OALBLMenuSetIpAddress|
	DCD	|??_C@_1O@HAMLNBEA@?$AAD?$AAe?$AAv?$AAi?$AAc?$AAe?$AA?$AA@|
	DCD	|g_bootCfg|+56
	DCD	0x0
	DCW	0x37
	%	2
	DCD	|??_C@_1BI@BNFAJPCD@?$AAS?$AAe?$AAt?$AA?5?$AAI?$AAP?$AA?5?$AAm?$AAa?$AAs?$AAk?$AA?$AA@|
	DCD	|OALBLMenuSetIpMask|
	DCD	|??_C@_1O@HAMLNBEA@?$AAD?$AAe?$AAv?$AAi?$AAc?$AAe?$AA?$AA@|
	DCD	|g_bootCfg|+60
	DCD	0x0
	DCW	0x38
	%	2
	DCD	|??_C@_1CG@PDJPJAON@?$AAS?$AAe?$AAt?$AA?5?$AAd?$AAe?$AAf?$AAa?$AAu?$AAl?$AAt?$AA?5?$AAr?$AAo?$AAu?$AAt?$AAe?$AAr?$AA?$AA@|
	DCD	|OALBLMenuSetIpAddress|
	DCD	|??_C@_1BO@BODFGHPI@?$AAD?$AAe?$AAf?$AAa?$AAu?$AAl?$AAt?$AA?5?$AAr?$AAo?$AAu?$AAt?$AAe?$AAr?$AA?$AA@|
	DCD	|g_bootCfg|+64
	DCD	0x0
	DCW	0x39
	%	2
	DCD	|??_C@_1CK@OKOLJFGH@?$AAE?$AAn?$AAa?$AAb?$AAl?$AAe?$AA?1?$AAd?$AAi?$AAs?$AAa?$AAb?$AAl?$AAe?$AA?5?$AAV?$AAM?$AAI?$AAN?$AAI?$AA?$AA@|
	DCD	|OALBLMenuEnable|
	DCD	|??_C@_1M@NJLEOPAB@?$AAV?$AAM?$AAI?$AAN?$AAI?$AA?$AA@|
	DCD	|g_bootCfg|+48
	DCD	0x8
	DCW	0x61
	%	2
	DCD	|??_C@_1CA@LLFAIJM@?$AAS?$AAe?$AAt?$AA?5?$AAM?$AAA?$AAC?$AA?5?$AAa?$AAd?$AAd?$AAr?$AAe?$AAs?$AAs?$AA?$AA@|
	DCD	|SetMacAddress|
	DCD	0x0
	DCD	0x0
	DCD	0x0
	DCW	0x30
	%	2
	DCD	|??_C@_1CE@DFLFAFMD@?$AAE?$AAx?$AAi?$AAt?$AA?5?$AAa?$AAn?$AAd?$AA?5?$AAC?$AAo?$AAn?$AAt?$AAi?$AAn?$AAu?$AAe?$AA?$AA@|
	DCD	0x0
	DCD	0x0
	DCD	0x0
	DCD	0x0
	DCW	0x0
	%	2
	DCD	0x0
	DCD	0x0
	DCD	0x0
	DCD	0x0
	DCD	0x0
|g_menuSDCard| DCW 0x31
	%	2
	DCD	|??_C@_1CM@CFLHLMJF@?$AAS?$AAh?$AAo?$AAw?$AA?5?$AAC?$AAu?$AAr?$AAr?$AAe?$AAn?$AAt?$AA?5?$AAS?$AAe?$AAt?$AAt?$AAi?$AAn?$AAg?$AAs?$AA?$AA@|
	DCD	|ShowSDCardSettings|
	DCD	0x0
	DCD	0x0
	DCD	0x0
	DCW	0x32
	%	2
	DCD	|??_C@_1BO@HAIPBIND@?$AAE?$AAn?$AAt?$AAe?$AAr?$AA?5?$AAF?$AAi?$AAl?$AAe?$AAn?$AAa?$AAm?$AAe?$AA?$AA@|
	DCD	|EnterSDCardFilename|
	DCD	0x0
	DCD	0x0
	DCD	0x0
	DCW	0x30
	%	2
	DCD	|??_C@_1CE@DFLFAFMD@?$AAE?$AAx?$AAi?$AAt?$AA?5?$AAa?$AAn?$AAd?$AA?5?$AAC?$AAo?$AAn?$AAt?$AAi?$AAn?$AAu?$AAe?$AA?$AA@|
	DCD	0x0
	DCD	0x0
	DCD	0x0
	DCD	0x0
	DCW	0x0
	%	2
	DCD	0x0
	DCD	0x0
	DCD	0x0
	DCD	0x0
	DCD	0x0
|g_menuMain| DCW 0x31
	%	2
	DCD	|??_C@_1CM@CFLHLMJF@?$AAS?$AAh?$AAo?$AAw?$AA?5?$AAC?$AAu?$AAr?$AAr?$AAe?$AAn?$AAt?$AA?5?$AAS?$AAe?$AAt?$AAt?$AAi?$AAn?$AAg?$AAs?$AA?$AA@|
	DCD	|ShowSettings|
	DCD	0x0
	DCD	0x0
	DCD	0x0
	DCW	0x32
	%	2
	DCD	|??_C@_1CG@BBALNGAE@?$AAS?$AAe?$AAl?$AAe?$AAc?$AAt?$AA?5?$AAB?$AAo?$AAo?$AAt?$AA?5?$AAD?$AAe?$AAv?$AAi?$AAc?$AAe?$AA?$AA@|
	DCD	|OALBLMenuSelectDevice|
	DCD	|??_C@_19JCAOHIEH@?$AAB?$AAo?$AAo?$AAt?$AA?$AA@|
	DCD	|g_bootCfg|+8
	DCD	|g_bootDevices|
	DCW	0x33
	%	2
	DCD	|??_C@_1DG@LLAJHPJA@?$AAS?$AAe?$AAl?$AAe?$AAc?$AAt?$AA?5?$AAK?$AAI?$AAT?$AAL?$AA?5?$AA?$CI?$AAD?$AAe?$AAb?$AAu?$AAg?$AA?$CJ?$AA?5?$AAD?$AAe?$AAv?$AAi?$AAc?$AAe?$AA?$AA@|
	DCD	|OALBLMenuSelectDevice|
	DCD	|??_C@_1M@OPFBIOCF@?$AAD?$AAe?$AAb?$AAu?$AAg?$AA?$AA@|
	DCD	|g_bootCfg|+28
	DCD	|g_kitlDevices|
	DCW	0x34
	%	2
	DCD	|??_C@_1CC@PCCBMLKB@?$AAN?$AAe?$AAt?$AAw?$AAo?$AAr?$AAk?$AA?5?$AAS?$AAe?$AAt?$AAt?$AAi?$AAn?$AAg?$AAs?$AA?$AA@|
	DCD	|OALBLMenuShow|
	DCD	|??_C@_1CC@PCCBMLKB@?$AAN?$AAe?$AAt?$AAw?$AAo?$AAr?$AAk?$AA?5?$AAS?$AAe?$AAt?$AAt?$AAi?$AAn?$AAg?$AAs?$AA?$AA@|
	DCD	|g_menuNetwork|
	DCD	0x0
	DCW	0x35
	%	2
	DCD	|??_C@_1CA@HKCGHDKE@?$AAS?$AAD?$AAC?$AAa?$AAr?$AAd?$AA?5?$AAS?$AAe?$AAt?$AAt?$AAi?$AAn?$AAg?$AAs?$AA?$AA@|
	DCD	|OALBLMenuShow|
	DCD	|??_C@_1CA@HKCGHDKE@?$AAS?$AAD?$AAC?$AAa?$AAr?$AAd?$AA?5?$AAS?$AAe?$AAt?$AAt?$AAi?$AAn?$AAg?$AAs?$AA?$AA@|
	DCD	|g_menuSDCard|
	DCD	0x0
	DCW	0x36
	%	2
	DCD	|??_C@_1BM@LAACEGCM@?$AAS?$AAe?$AAt?$AA?5?$AAD?$AAe?$AAv?$AAi?$AAc?$AAe?$AA?5?$AAI?$AAD?$AA?$AA@|
	DCD	|SetDeviceID|
	DCD	0x0
	DCD	0x0
	DCD	0x0
	DCW	0x37
	%	2
	DCD	|??_C@_1BM@MOEMNNDE@?$AAS?$AAa?$AAv?$AAe?$AA?5?$AAS?$AAe?$AAt?$AAt?$AAi?$AAn?$AAg?$AAs?$AA?$AA@|
	DCD	|SaveSettings|
	DCD	0x0
	DCD	0x0
	DCD	0x0
	DCW	0x38
	%	2
	DCD	|??_C@_1CC@GBKCLJHP@?$AAF?$AAl?$AAa?$AAs?$AAh?$AA?5?$AAM?$AAa?$AAn?$AAa?$AAg?$AAe?$AAm?$AAe?$AAn?$AAt?$AA?$AA@|
	DCD	|OALBLMenuShow|
	DCD	|??_C@_1CC@GBKCLJHP@?$AAF?$AAl?$AAa?$AAs?$AAh?$AA?5?$AAM?$AAa?$AAn?$AAa?$AAg?$AAe?$AAm?$AAe?$AAn?$AAt?$AA?$AA@|
	DCD	|g_menuFlash|
	DCD	0x0
	DCW	0x39
	%	2
	DCD	|??_C@_1EG@HMEOLENI@?$AAE?$AAn?$AAa?$AAb?$AAl?$AAe?$AA?1?$AAD?$AAi?$AAs?$AAa?$AAb?$AAl?$AAe?$AA?5?$AAO?$AAA?$AAL?$AA?5?$AAR?$AAe?$AAt?$AAa?$AAi?$AAl?$AA?5?$AAM?$AAe?$AAs?$AAs?$AAa?$AAg@|
	DCD	|SetRetailMsgMode|
	DCD	0x0
	DCD	0x0
	DCD	0x0
	DCW	0x61
	%	2
	DCD	|??_C@_1DE@DBBLEEO@?$AAS?$AAe?$AAl?$AAe?$AAc?$AAt?$AA?5?$AAD?$AAi?$AAs?$AAp?$AAl?$AAa?$AAy?$AA?5?$AAR?$AAe?$AAs?$AAo?$AAl?$AAu?$AAt?$AAi?$AAo?$AAn?$AA?$AA@|
	DCD	|SetDisplayResolution|
	DCD	0x0
	DCD	0x0
	DCD	0x0
	DCW	0x62
	%	2
	DCD	|??_C@_1CA@MOPOGELI@?$AAS?$AAe?$AAl?$AAe?$AAc?$AAt?$AA?5?$AAO?$AAP?$AAP?$AA?5?$AAM?$AAo?$AAd?$AAe?$AA?$AA@|
	DCD	|SetOPPmode|
	DCD	0x0
	DCD	0x0
	DCD	0x0
	DCW	0x63
	%	2
	DCD	|??_C@_1CC@COAEHFII@?$AAB?$AAa?$AAc?$AAk?$AAl?$AAi?$AAg?$AAh?$AAt?$AA?5?$AAO?$AAN?$AA?1?$AAO?$AAF?$AAF?$AA?$AA@|
	DCD	|SetBacklight|
	DCD	0x0
	DCD	0x0
	DCD	0x0
	DCW	0x64
	%	2
	DCD	|??_C@_1EI@LALMHHNG@?$AAF?$AAi?$AAl?$AAe?$AA?5?$AAT?$AAr?$AAa?$AAn?$AAs?$AAf?$AAe?$AAr?$AA?5?$AAf?$AAr?$AAo?$AAm?$AA?5?$AAS?$AAD?$AA?5?$AAC?$AAa?$AAr?$AAd?$AA?5?$AAt?$AAo?$AA?5?$AAF?$AAl@|
	DCD	|SDtoFlash|
	DCD	0x0
	DCD	0x0
	DCD	0x0
	DCW	0x65
	%	2
	DCD	|??_C@_1BI@GPNGIDKF@?$AAL?$AAC?$AAM?$AA?5?$AAI?$AAn?$AAi?$AAt?$AAi?$AAa?$AAl?$AA?$AA@|
	DCD	|LCMInitial|
	DCD	0x0
	DCD	0x0
	DCD	0x0
	DCW	0x66
	%	2
	DCD	|??_C@_1BO@KCFMLMDG@?$AAB?$AAa?$AAt?$AAt?$AAe?$AAr?$AAy?$AA?5?$AAS?$AAt?$AAa?$AAt?$AAu?$AAs?$AA?$AA@|
	DCD	|FuelGaugeWithBattery|
	DCD	0x0
	DCD	0x0
	DCD	0x0
	DCW	0x30
	%	2
	DCD	|??_C@_1CE@DFLFAFMD@?$AAE?$AAx?$AAi?$AAt?$AA?5?$AAa?$AAn?$AAd?$AA?5?$AAC?$AAo?$AAn?$AAt?$AAi?$AAn?$AAu?$AAe?$AA?$AA@|
	DCD	0x0
	DCD	0x0
	DCD	0x0
	DCD	0x0
	DCW	0x0
	%	2
	DCD	0x0
	DCD	0x0
	DCD	0x0
	DCD	0x0
	DCD	0x0
|g_menuRoot| DCW 0x0
	%	2
	DCD	0x0
	DCD	|OALBLMenuShow|
	DCD	|??_C@_1BE@FNAHCCDL@?$AAM?$AAa?$AAi?$AAn?$AA?5?$AAM?$AAe?$AAn?$AAu?$AA?$AA@|
	DCD	|g_menuMain|
	DCD	0x0
|dispResMenu| DCD 0x0
	DCD	|??_C@_1CE@FKEPMAF@?$AAL?$AAC?$AAD?$AA?5?$AA?5?$AA4?$AA8?$AA0?$AAx?$AA6?$AA4?$AA0?$AA?5?$AA6?$AA0?$AAH?$AAz?$AA?$AA@|
	DCD	0x1
	DCD	|??_C@_1CE@IJMKDLHH@?$AAD?$AAV?$AAI?$AA?5?$AA?5?$AA6?$AA4?$AA0?$AAx?$AA4?$AA8?$AA0?$AA?5?$AA6?$AA0?$AAH?$AAz?$AA?$AA@|
	DCD	0x2
	DCD	|??_C@_1CE@CECNFHDE@?$AAD?$AAV?$AAI?$AA?5?$AA?5?$AA6?$AA4?$AA0?$AAx?$AA4?$AA8?$AA0?$AA?5?$AA7?$AA2?$AAH?$AAz?$AA?$AA@|
	DCD	0x3
	DCD	|??_C@_1CE@IKDLFFCF@?$AAD?$AAV?$AAI?$AA?5?$AA?5?$AA8?$AA0?$AA0?$AAx?$AA4?$AA8?$AA0?$AA?5?$AA6?$AA0?$AAH?$AAz?$AA?$AA@|
	DCD	0x4
	DCD	|??_C@_1CE@PMPMKBOJ@?$AAD?$AAV?$AAI?$AA?5?$AA?5?$AA8?$AA0?$AA0?$AAx?$AA6?$AA0?$AA0?$AA?5?$AA6?$AA0?$AAH?$AAz?$AA?$AA@|
	DCD	0x5
	DCD	|??_C@_1CE@NBKEBDGN@?$AAD?$AAV?$AAI?$AA?5?$AA?5?$AA8?$AA0?$AA0?$AAx?$AA6?$AA0?$AA0?$AA?5?$AA5?$AA6?$AAH?$AAz?$AA?$AA@|
	DCD	0x6
	DCD	|??_C@_1CE@LJDPDOKE@?$AAD?$AAV?$AAI?$AA?5?$AA1?$AA0?$AA2?$AA4?$AAx?$AA7?$AA6?$AA8?$AA?5?$AA6?$AA0?$AAH?$AAz?$AA?$AA@|
	DCD	0x7
	DCD	|??_C@_1CE@BMIKEEML@?$AAD?$AAV?$AAI?$AA?5?$AA1?$AA2?$AA8?$AA0?$AAx?$AA7?$AA2?$AA0?$AA?5?$AA6?$AA0?$AAH?$AAz?$AA?$AA@|
	DCD	0x8
	DCD	|??_C@_1BM@KBHAINFM@?$AAI?$AAn?$AAv?$AAa?$AAl?$AAi?$AAd?$AA?5?$AAE?$AAn?$AAt?$AAr?$AAy?$AA?$AA@|
|oppModeMenu35x| DCD |??_C@_1FI@HKFGBOFG@?$AAM?$AAP?$AAU?$AA?$FL?$AA1?$AA2?$AA5?$AAM?$AAh?$AAz?$AA?5?$AA?$EA?$AA?5?$AA0?$AA?4?$AA9?$AA7?$AA5?$AAV?$AA?$FN?$AA?0?$AA?5?$AAI?$AAV?$AAA?$AA2?$AA?$FL?$AA?5?$AA9?$AA0?$AAM?$AAh@|
	DCD	|??_C@_1FG@IMGDNCBP@?$AAM?$AAP?$AAU?$AA?$FL?$AA2?$AA5?$AA0?$AAM?$AAh?$AAz?$AA?5?$AA?$EA?$AA?5?$AA1?$AA?4?$AA0?$AA0?$AA0?$AAV?$AA?$FN?$AA?0?$AA?5?$AAI?$AAV?$AAA?$AA2?$AA?$FL?$AA1?$AA8?$AA0?$AAM?$AAh@|
	DCD	|??_C@_1FI@LNIHINJA@?$AAM?$AAP?$AAU?$AA?$FL?$AA5?$AA0?$AA0?$AAM?$AAh?$AAz?$AA?5?$AA?$EA?$AA?5?$AA1?$AA?4?$AA2?$AA0?$AA0?$AA0?$AAV?$AA?$FN?$AA?0?$AA?5?$AAI?$AAV?$AAA?$AA2?$AA?$FL?$AA3?$AA6?$AA0?$AAM@|
	DCD	|??_C@_1FI@GMIAOKFE@?$AAM?$AAP?$AAU?$AA?$FL?$AA5?$AA5?$AA0?$AAM?$AAh?$AAz?$AA?5?$AA?$EA?$AA?5?$AA1?$AA?4?$AA2?$AA7?$AA5?$AA0?$AAV?$AA?$FN?$AA?0?$AA?5?$AAI?$AAV?$AAA?$AA2?$AA?$FL?$AA4?$AA0?$AA0?$AAM@|
	DCD	|??_C@_1FI@GKLNGOFA@?$AAM?$AAP?$AAU?$AA?$FL?$AA6?$AA0?$AA0?$AAM?$AAh?$AAz?$AA?5?$AA?$EA?$AA?5?$AA1?$AA?4?$AA3?$AA5?$AA0?$AA0?$AAV?$AA?$FN?$AA?0?$AA?5?$AAI?$AAV?$AAA?$AA2?$AA?$FL?$AA4?$AA3?$AA0?$AAM@|
	DCD	|??_C@_1FG@KPBOKIAA@?$AAM?$AAP?$AAU?$AA?$FL?$AA7?$AA2?$AA0?$AAh?$AAz?$AA?5?$AA?$EA?$AA?5?$AA1?$AA?4?$AA3?$AA5?$AA0?$AA0?$AAV?$AA?$FN?$AA?0?$AA?5?$AAI?$AAV?$AAA?$AA2?$AA?$FL?$AA5?$AA2?$AA0?$AAM?$AAh@|
|oppModeMenu37x| DCD |??_C@_1FO@ELABMNJD@?$AAM?$AAP?$AAU?$AA?$FL?$AA3?$AA0?$AA0?$AAM?$AAh?$AAz?$AA?5?$AA?5?$AA?$EA?$AA?5?$AA0?$AA?4?$AA9?$AA3?$AA7?$AA5?$AAV?$AA?$FN?$AA?0?$AA?5?$AAI?$AAV?$AAA?$AA2?$AA?$FL?$AA2?$AA6?$AA0@|
	DCD	|??_C@_1FO@CAGHGIKC@?$AAM?$AAP?$AAU?$AA?$FL?$AA6?$AA0?$AA0?$AAM?$AAh?$AAz?$AA?5?$AA?5?$AA?$EA?$AA?5?$AA1?$AA?4?$AA1?$AA0?$AA0?$AA0?$AAV?$AA?$FN?$AA?0?$AA?5?$AAI?$AAV?$AAA?$AA2?$AA?$FL?$AA5?$AA2?$AA0@|
	DCD	|??_C@_1FO@MCHCGGFD@?$AAM?$AAP?$AAU?$AA?$FL?$AA8?$AA0?$AA0?$AAM?$AAh?$AAz?$AA?5?$AA?5?$AA?$EA?$AA?5?$AA1?$AA?4?$AA2?$AA6?$AA2?$AA5?$AAV?$AA?$FN?$AA?0?$AA?5?$AAI?$AAV?$AAA?$AA2?$AA?$FL?$AA6?$AA6?$AA0@|
	DCD	|??_C@_1FK@IBMDHDI@?$AAM?$AAP?$AAU?$AA?$FL?$AA1?$AA0?$AA0?$AA0?$AAM?$AAh?$AAz?$AA?5?$AA?$EA?$AA?5?$AA1?$AA?4?$AA3?$AA7?$AA5?$AAV?$AA?$FN?$AA?0?$AA?5?$AAI?$AAV?$AAA?$AA2?$AA?$FL?$AA8?$AA0?$AA0?$AAM@|
|disBacklight| DCD 0x0
	DCD	|??_C@_15MLPIMJOL@?$AAO?$AAN?$AA?$AA@|
	DCD	0x1
	DCD	|??_C@_17NBOBOEH@?$AAO?$AAF?$AAF?$AA?$AA@|
	DCD	0x2
	DCD	|??_C@_1BG@MCAABGNO@?$AAB?$AAR?$AAI?$AAG?$AAH?$AAT?$AAN?$AAE?$AAS?$AAS?$AA?$AA@|
	DCD	0x3
	DCD	|??_C@_19IOBNHAEP@?$AAE?$AAX?$AAI?$AAT?$AA?$AA@|
|sdToFlash| DCD	0x0
	DCD	|??_C@_1BA@GEJDCGIE@?$AAR?$AAe?$AAa?$AAd?$AAi?$AAn?$AAg?$AA?$AA@|
	DCD	0x1
	DCD	|??_C@_1BA@DMBHJKCI@?$AAW?$AAr?$AAi?$AAt?$AAi?$AAn?$AAg?$AA?$AA@|
	DCD	0x2
	DCD	|??_C@_1BO@DFMGFDAM@?$AAS?$AAh?$AAo?$AAw?$AA?5?$AA?4?$AAn?$AAb?$AA0?$AA?5?$AAD?$AAa?$AAt?$AAa?$AA?$AA@|
	DCD	0x3
	DCD	|??_C@_19IOBNHAEP@?$AAE?$AAX?$AAI?$AAT?$AA?$AA@|
|backlightBN| DCD 0x0
	DCD	|??_C@_13KJIIAINM@?$AA?$CL?$AA?$AA@|
	DCD	0x1
	DCD	|??_C@_13IMODFHAA@?$AA?9?$AA?$AA@|
	DCD	0x2
	DCD	|??_C@_19IOBNHAEP@?$AAE?$AAX?$AAI?$AAT?$AA?$AA@|
|LCMInitiaArray| DCD 0x0
	DCD	|??_C@_19LFNPILED@?$AAH?$AAi?$AAg?$AAh?$AA?$AA@|
	DCD	0x1
	DCD	|??_C@_17OLKFNCJO@?$AAL?$AAo?$AAw?$AA?$AA@|
	DCD	0x2
	DCD	|??_C@_19IOBNHAEP@?$AAE?$AAX?$AAI?$AAT?$AA?$AA@|
|BatteryStatusArray| DCD 0x0
	DCD	|??_C@_1CA@ICPLCDKN@?$AAI?$AAn?$AAi?$AAt?$AAi?$AAa?$AAl?$AA?5?$AAB?$AAa?$AAt?$AAt?$AAe?$AAr?$AAy?$AA?$AA@|
	DCD	0x1
	DCD	|??_C@_1BO@KCFMLMDG@?$AAB?$AAa?$AAt?$AAt?$AAe?$AAr?$AAy?$AA?5?$AAS?$AAt?$AAa?$AAt?$AAu?$AAs?$AA?$AA@|
	DCD	0x2
	DCD	|??_C@_19IOBNHAEP@?$AAE?$AAX?$AAI?$AAT?$AA?$AA@|
|BACKLIGHT_EN_GPIO| DCD 0x3d
	%	4
|g_menuBrightness| DCW 0x31
	%	2
	DCD	|??_C@_15MLPIMJOL@?$AAO?$AAN?$AA?$AA@|
	DCD	|BacklightON|
	DCD	0x0
	DCD	0x0
	DCD	0x0
	DCW	0x32
	%	2
	DCD	|??_C@_17NBOBOEH@?$AAO?$AAF?$AAF?$AA?$AA@|
	DCD	|BacklightOFF|
	DCD	0x0
	DCD	0x0
	DCD	0x0
	DCW	0x33
	%	2
	DCD	|??_C@_1BG@FGGFONDG@?$AAB?$AAr?$AAi?$AAg?$AAh?$AAt?$AAn?$AAe?$AAs?$AAs?$AA?$AA@|
	DCD	|BacklightBrightness|
	DCD	0x0
	DCD	0x0
	DCD	0x0
	DCW	0x30
	%	2
	DCD	|??_C@_1CE@DFLFAFMD@?$AAE?$AAx?$AAi?$AAt?$AA?5?$AAa?$AAn?$AAd?$AA?5?$AAC?$AAo?$AAn?$AAt?$AAi?$AAn?$AAu?$AAe?$AA?$AA@|
	DCD	0x0
	DCD	0x0
	DCD	0x0
	DCD	0x0

  00000			 AREA	 |.rdata|, DATA, READONLY
|??_C@_1CE@DFLFAFMD@?$AAE?$AAx?$AAi?$AAt?$AA?5?$AAa?$AAn?$AAd?$AA?5?$AAC?$AAo?$AAn?$AAt?$AAi?$AAn?$AAu?$AAe?$AA?$AA@| DCB "E"
	DCB	0x0, "x", 0x0, "i", 0x0, "t", 0x0, " ", 0x0, "a", 0x0, "n"
	DCB	0x0, "d", 0x0, " ", 0x0, "C", 0x0, "o", 0x0, "n", 0x0, "t"
	DCB	0x0, "i", 0x0, "n", 0x0, "u", 0x0, "e", 0x0, 0x0, 0x0 ; `string'

  00000			 AREA	 |.rdata|, DATA, READONLY
|??_C@_1CA@LLFAIJM@?$AAS?$AAe?$AAt?$AA?5?$AAM?$AAA?$AAC?$AA?5?$AAa?$AAd?$AAd?$AAr?$AAe?$AAs?$AAs?$AA?$AA@| DCB "S"
	DCB	0x0, "e", 0x0, "t", 0x0, " ", 0x0, "M", 0x0, "A", 0x0, "C"
	DCB	0x0, " ", 0x0, "a", 0x0, "d", 0x0, "d", 0x0, "r", 0x0, "e"
	DCB	0x0, "s", 0x0, "s", 0x0, 0x0, 0x0	; `string'

  00000			 AREA	 |.rdata|, DATA, READONLY
|??_C@_1M@NJLEOPAB@?$AAV?$AAM?$AAI?$AAN?$AAI?$AA?$AA@| DCB "V", 0x0, "M", 0x0
	DCB	"I", 0x0, "N", 0x0, "I", 0x0, 0x0, 0x0	; `string'

  00000			 AREA	 |.rdata|, DATA, READONLY
|??_C@_1CK@OKOLJFGH@?$AAE?$AAn?$AAa?$AAb?$AAl?$AAe?$AA?1?$AAd?$AAi?$AAs?$AAa?$AAb?$AAl?$AAe?$AA?5?$AAV?$AAM?$AAI?$AAN?$AAI?$AA?$AA@| DCB "E"
	DCB	0x0, "n", 0x0, "a", 0x0, "b", 0x0, "l", 0x0, "e", 0x0, "/"
	DCB	0x0, "d", 0x0, "i", 0x0, "s", 0x0, "a", 0x0, "b", 0x0, "l"
	DCB	0x0, "e", 0x0, " ", 0x0, "V", 0x0, "M", 0x0, "I", 0x0, "N"
	DCB	0x0, "I", 0x0, 0x0, 0x0			; `string'

  00000			 AREA	 |.rdata|, DATA, READONLY
|??_C@_1BO@BODFGHPI@?$AAD?$AAe?$AAf?$AAa?$AAu?$AAl?$AAt?$AA?5?$AAr?$AAo?$AAu?$AAt?$AAe?$AAr?$AA?$AA@| DCB "D"
	DCB	0x0, "e", 0x0, "f", 0x0, "a", 0x0, "u", 0x0, "l", 0x0, "t"
	DCB	0x0, " ", 0x0, "r", 0x0, "o", 0x0, "u", 0x0, "t", 0x0, "e"
	DCB	0x0, "r", 0x0, 0x0, 0x0			; `string'

  00000			 AREA	 |.rdata|, DATA, READONLY
|??_C@_1CG@PDJPJAON@?$AAS?$AAe?$AAt?$AA?5?$AAd?$AAe?$AAf?$AAa?$AAu?$AAl?$AAt?$AA?5?$AAr?$AAo?$AAu?$AAt?$AAe?$AAr?$AA?$AA@| DCB "S"
	DCB	0x0, "e", 0x0, "t", 0x0, " ", 0x0, "d", 0x0, "e", 0x0, "f"
	DCB	0x0, "a", 0x0, "u", 0x0, "l", 0x0, "t", 0x0, " ", 0x0, "r"
	DCB	0x0, "o", 0x0, "u", 0x0, "t", 0x0, "e", 0x0, "r", 0x0, 0x0
	DCB	0x0					; `string'

  00000			 AREA	 |.rdata|, DATA, READONLY
|??_C@_1BI@BNFAJPCD@?$AAS?$AAe?$AAt?$AA?5?$AAI?$AAP?$AA?5?$AAm?$AAa?$AAs?$AAk?$AA?$AA@| DCB "S"
	DCB	0x0, "e", 0x0, "t", 0x0, " ", 0x0, "I", 0x0, "P", 0x0, " "
	DCB	0x0, "m", 0x0, "a", 0x0, "s", 0x0, "k", 0x0, 0x0, 0x0 ; `string'

  00000			 AREA	 |.rdata|, DATA, READONLY
|??_C@_1O@HAMLNBEA@?$AAD?$AAe?$AAv?$AAi?$AAc?$AAe?$AA?$AA@| DCB "D", 0x0, "e"
	DCB	0x0, "v", 0x0, "i", 0x0, "c", 0x0, "e", 0x0, 0x0, 0x0 ; `string'

  00000			 AREA	 |.rdata|, DATA, READONLY
|??_C@_1BO@OBBADFOO@?$AAS?$AAe?$AAt?$AA?5?$AAI?$AAP?$AA?5?$AAa?$AAd?$AAd?$AAr?$AAe?$AAs?$AAs?$AA?$AA@| DCB "S"
	DCB	0x0, "e", 0x0, "t", 0x0, " ", 0x0, "I", 0x0, "P", 0x0, " "
	DCB	0x0, "a", 0x0, "d", 0x0, "d", 0x0, "r", 0x0, "e", 0x0, "s"
	DCB	0x0, "s", 0x0, 0x0, 0x0			; `string'

  00000			 AREA	 |.rdata|, DATA, READONLY
|??_C@_19DDJNJOGL@?$AAD?$AAH?$AAC?$AAP?$AA?$AA@| DCB "D", 0x0, "H", 0x0, "C"
	DCB	0x0, "P", 0x0, 0x0, 0x0			; `string'

  00000			 AREA	 |.rdata|, DATA, READONLY
|??_C@_1CI@OHHEPHNA@?$AAE?$AAn?$AAa?$AAb?$AAl?$AAe?$AA?1?$AAd?$AAi?$AAs?$AAa?$AAb?$AAl?$AAe?$AA?5?$AAD?$AAH?$AAC?$AAP?$AA?$AA@| DCB "E"
	DCB	0x0, "n", 0x0, "a", 0x0, "b", 0x0, "l", 0x0, "e", 0x0, "/"
	DCB	0x0, "d", 0x0, "i", 0x0, "s", 0x0, "a", 0x0, "b", 0x0, "l"
	DCB	0x0, "e", 0x0, " ", 0x0, "D", 0x0, "H", 0x0, "C", 0x0, "P"
	DCB	0x0, 0x0, 0x0				; `string'

  00000			 AREA	 |.rdata|, DATA, READONLY
|??_C@_1DC@FMHJOEGL@?$AAK?$AAI?$AAT?$AAL?$AA?5?$AAA?$AAc?$AAt?$AAi?$AAv?$AAe?$AA?1?$AAP?$AAa?$AAs?$AAs?$AAi?$AAv?$AAe?$AA?5?$AAm?$AAo?$AAd?$AAe?$AA?$AA@| DCB "K"
	DCB	0x0, "I", 0x0, "T", 0x0, "L", 0x0, " ", 0x0, "A", 0x0, "c"
	DCB	0x0, "t", 0x0, "i", 0x0, "v", 0x0, "e", 0x0, "/", 0x0, "P"
	DCB	0x0, "a", 0x0, "s", 0x0, "s", 0x0, "i", 0x0, "v", 0x0, "e"
	DCB	0x0, " ", 0x0, "m", 0x0, "o", 0x0, "d", 0x0, "e", 0x0, 0x0
	DCB	0x0					; `string'

  00000			 AREA	 |.rdata|, DATA, READONLY
|??_C@_1DC@FHPHDMKC@?$AAK?$AAI?$AAT?$AAL?$AA?5?$AAi?$AAn?$AAt?$AAe?$AAr?$AAr?$AAu?$AAp?$AAt?$AA?1?$AAp?$AAo?$AAl?$AAl?$AA?5?$AAm?$AAo?$AAd?$AAe?$AA?$AA@| DCB "K"
	DCB	0x0, "I", 0x0, "T", 0x0, "L", 0x0, " ", 0x0, "i", 0x0, "n"
	DCB	0x0, "t", 0x0, "e", 0x0, "r", 0x0, "r", 0x0, "u", 0x0, "p"
	DCB	0x0, "t", 0x0, "/", 0x0, "p", 0x0, "o", 0x0, "l", 0x0, "l"
	DCB	0x0, " ", 0x0, "m", 0x0, "o", 0x0, "d", 0x0, "e", 0x0, 0x0
	DCB	0x0					; `string'

  00000			 AREA	 |.rdata|, DATA, READONLY
|??_C@_19KCABPHM@?$AAK?$AAI?$AAT?$AAL?$AA?$AA@| DCB "K", 0x0, "I", 0x0, "T"
	DCB	0x0, "L", 0x0, 0x0, 0x0			; `string'

  00000			 AREA	 |.rdata|, DATA, READONLY
|??_C@_1CI@NOMJHGMH@?$AAE?$AAn?$AAa?$AAb?$AAl?$AAe?$AA?1?$AAd?$AAi?$AAs?$AAa?$AAb?$AAl?$AAe?$AA?5?$AAK?$AAI?$AAT?$AAL?$AA?$AA@| DCB "E"
	DCB	0x0, "n", 0x0, "a", 0x0, "b", 0x0, "l", 0x0, "e", 0x0, "/"
	DCB	0x0, "d", 0x0, "i", 0x0, "s", 0x0, "a", 0x0, "b", 0x0, "l"
	DCB	0x0, "e", 0x0, " ", 0x0, "K", 0x0, "I", 0x0, "T", 0x0, "L"
	DCB	0x0, 0x0, 0x0				; `string'

  00000			 AREA	 |.rdata|, DATA, READONLY
|??_C@_1CM@CFLHLMJF@?$AAS?$AAh?$AAo?$AAw?$AA?5?$AAC?$AAu?$AAr?$AAr?$AAe?$AAn?$AAt?$AA?5?$AAS?$AAe?$AAt?$AAt?$AAi?$AAn?$AAg?$AAs?$AA?$AA@| DCB "S"
	DCB	0x0, "h", 0x0, "o", 0x0, "w", 0x0, " ", 0x0, "C", 0x0, "u"
	DCB	0x0, "r", 0x0, "r", 0x0, "e", 0x0, "n", 0x0, "t", 0x0, " "
	DCB	0x0, "S", 0x0, "e", 0x0, "t", 0x0, "t", 0x0, "i", 0x0, "n"
	DCB	0x0, "g", 0x0, "s", 0x0, 0x0, 0x0	; `string'

  00000			 AREA	 |.rdata|, DATA, READONLY
|EdbgVendorIds| DCW 0x0
	DCW	0x0
	DCD	0x4033
	DCB	0x1
	DCB	"AD", 0x0
	DCW	0x1050
	DCW	0x940
	DCD	0x4005
	DCB	0x1
	DCB	"LS", 0x0
	DCW	0x1050
	DCW	0x940
	DCD	0x2078
	DCB	0x1
	DCB	"LS", 0x0
	DCW	0x10ec
	DCW	0x8029
	DCD	0xc0f0
	DCB	0x1
	DCB	"KS", 0x0
	DCW	0x10ec
	DCW	0x8129
	DCD	0x0
	DCB	0x4
	DCB	"RT", 0x0
	DCW	0x10ec
	DCW	0x8139
	DCD	0x900b
	DCB	0x4
	DCB	"RT", 0x0
	DCW	0x10ec
	DCW	0x8139
	DCD	0xd0c9
	DCB	0x4
	DCB	"RT", 0x0
	DCW	0x10ec
	DCW	0x8139
	DCD	0xe04c
	DCB	0x4
	DCB	"RT", 0x0
	DCW	0x1186
	DCW	0x1300
	DCD	0x50ba
	DCB	0x4
	DCB	"DL", 0x0
	DCW	0x100b
	DCW	0x20
	DCD	0xa0cc
	DCB	0x5
	DCB	"NG", 0x0
	DCW	0x10b7
	DCW	0x9050
	DCD	0x6008
	DCB	0x6
	DCB	"3C", 0x0
	DCW	0x10b7
	DCW	0x9200
	DCD	0x476
	DCB	0x6
	DCB	"3C", 0x0
	EXPORT	|BLMenu|
	EXPORT	|??_C@_1HA@HEOLOGAM@?$AAS?$AAy?$AAn?$AAc?$AA?9?$AAp?$AAr?$AAe?$AAs?$AAs?$AA?5?$AAs?$AAi?$AAd?$AAe?$AA?5?$AAk?$AAe?$AAy?$AA?5?$AAt?$AAo?$AA?5?$AAe?$AAn?$AAt?$AAe?$AAr?$AA?5?$AAc?$AAo?$AAn@| [ DATA ] ; `string'
	IMPORT	|BLShowLogo|
	IMPORT	|LCD_SPI_Init|
	IMPORT	|OALBLMenuReadKey|
	IMPORT	|OALGetTickCount|
	IMPORT	|NKDbgPrintfW|
	IMPORT	|GPIOGetBit|
	IMPORT	|GPIOOpen|
; File c:\wince600\platform\z2170p\src\bootloader\eboot\menu.c

  00000			 AREA	 |.pdata|, PDATA
|$T49265| DCD	|$LN21@BLMenu|
	DCD	0x40003201

  00000			 AREA	 |.rdata|, DATA, READONLY
|??_C@_1HA@HEOLOGAM@?$AAS?$AAy?$AAn?$AAc?$AA?9?$AAp?$AAr?$AAe?$AAs?$AAs?$AA?5?$AAs?$AAi?$AAd?$AAe?$AA?5?$AAk?$AAe?$AAy?$AA?5?$AAt?$AAo?$AA?5?$AAe?$AAn?$AAt?$AAe?$AAr?$AA?5?$AAc?$AAo?$AAn@| DCB "S"
	DCB	0x0, "y", 0x0, "n", 0x0, "c", 0x0, "-", 0x0, "p", 0x0, "r"
	DCB	0x0, "e", 0x0, "s", 0x0, "s", 0x0, " ", 0x0, "s", 0x0, "i"
	DCB	0x0, "d", 0x0, "e", 0x0, " ", 0x0, "k", 0x0, "e", 0x0, "y"
	DCB	0x0, " ", 0x0, "t", 0x0, "o", 0x0, " ", 0x0, "e", 0x0, "n"
	DCB	0x0, "t", 0x0, "e", 0x0, "r", 0x0, " ", 0x0, "c", 0x0, "o"
	DCB	0x0, "n", 0x0, "f", 0x0, "i", 0x0, "g", 0x0, "u", 0x0, "r"
	DCB	0x0, "a", 0x0, "t", 0x0, "i", 0x0, "o", 0x0, "n", 0x0, " "
	DCB	0x0, "m", 0x0, "e", 0x0, "n", 0x0, "u", 0x0, " ", 0x0, "%"
	DCB	0x0, "d", 0x0, ".", 0x0, ".", 0x0, ".", 0x0, 0xd, 0x0, 0xa
	DCB	0x0, 0x0, 0x0				; `string'
; Function compile flags: /Ogspy

  00000			 AREA	 |.text|, CODE, ARM

  00000		 |BLMenu| PROC

; 406  : {

  00000		 |$LN21@BLMenu|
  00000	e92d41f0	 stmdb       sp!, {r4 - r8, lr}
  00004		 |$M49262|
  00004	e1a07000	 mov         r7, r0

; 407  :     UINT32 time, delay = 8;

  00008	e3a05008	 mov         r5, #8

; 408  :     WCHAR key = 0;

  0000c	e3a06000	 mov         r6, #0

; 409  : 	//BOOL entry;
; 410  :     BSP_ARGS *pArgs = OALCAtoUA(IMAGE_SHARE_ARGS_CA);

  00010	e3a0820a	 mov         r8, #0xA, 4

; 411  : 
; 412  : 	HANDLE hGPIO;
; 413  : 	hGPIO = GPIOOpen();

  00014	eb000000	 bl          GPIOOpen

; 414  : 	GPIOGetBit(hGPIO, 114);	//key SD1

  00018	e3a01072	 mov         r1, #0x72
  0001c	e1a04000	 mov         r4, r0
  00020	eb000000	 bl          GPIOGetBit

; 415  : 	GPIOGetBit(hGPIO, 115); //key SD3

  00024	e3a01073	 mov         r1, #0x73
  00028	e1a00004	 mov         r0, r4
  0002c	eb000000	 bl          GPIOGetBit

; 416  :     
; 417  :     // First let user break to menu 
; 418  :     // Break to menu & count, Ray 13-09-26 
; 419  :     while (!bForced && (delay > 0 && key != L' ')) 

  00030	e3570000	 cmp         r7, #0
  00034	1a000015	 bne         |$LN6@BLMenu|
  00038		 |$LL7@BLMenu|
  00038	e3550000	 cmp         r5, #0
  0003c	0a000015	 beq         |$LN14@BLMenu|
  00040	e3560020	 cmp         r6, #0x20
  00044	0a000015	 beq         |$LN1@BLMenu|

; 420  :     //while (!bForced && (delay > 0 && key != GPIOGetBit(hGPIO, 114) 
; 421  : 	//								&& key != GPIOGetBit(hGPIO, 115) )) 
; 422  : 	{
; 423  : 		//OALLog(L"Hit space to enter configuration menu %d...\r\n", delay);
; 424  : 		OALLog(L"Sync-press side key to enter configuration menu %d...\r\n", delay);

  00048	e59f0074	 ldr         r0, [pc, #0x74]
  0004c	e1a01005	 mov         r1, r5
  00050	eb000000	 bl          NKDbgPrintfW

; 425  : 		time = OALGetTickCount();

  00054	eb000000	 bl          OALGetTickCount
  00058	e1a04000	 mov         r4, r0

; 426  : 		while ((OALGetTickCount() - time) < 1000) 

  0005c	ea000005	 b           |$LN18@BLMenu|
  00060		 |$LL5@BLMenu|

; 427  : 		{
; 428  : 			if ((key = OALBLMenuReadKey(FALSE)) == L' ') 

  00060	e3a00000	 mov         r0, #0
  00064	eb000000	 bl          OALBLMenuReadKey
  00068	e1a06800	 mov         r6, r0, lsl #16
  0006c	e1a06826	 mov         r6, r6, lsr #16
  00070	e3560020	 cmp         r6, #0x20
  00074	0a000003	 beq         |$LN15@BLMenu|
  00078		 |$LN18@BLMenu|
  00078	eb000000	 bl          OALGetTickCount
  0007c	e0403004	 sub         r3, r0, r4
  00080	e3530ffa	 cmp         r3, #0xFA, 30
  00084	3afffff5	 bcc         |$LL5@BLMenu|
  00088		 |$LN15@BLMenu|

; 429  : 			/*if ( (key = OALBLMenuReadKey(FALSE)) == GPIOGetBit(hGPIO, 114) 
; 430  : 					&& (key = OALBLMenuReadKey(FALSE)) == GPIOGetBit(hGPIO, 115) )*/ 
; 431  : 				break;
; 432  : 		}
; 433  : 		delay--;

  00088	e2455001	 sub         r5, r5, #1

; 416  :     
; 417  :     // First let user break to menu 
; 418  :     // Break to menu & count, Ray 13-09-26 
; 419  :     while (!bForced && (delay > 0 && key != L' ')) 

  0008c	eaffffe9	 b           |$LL7@BLMenu|
  00090		 |$LN6@BLMenu|

; 434  : 	}
; 435  : 	
; 436  :     //entry = FALSE;
; 437  :     if ((bForced == TRUE) || (key == L' '))

  00090	e3570001	 cmp         r7, #1
  00094	0a000001	 beq         |$LN1@BLMenu|
  00098		 |$LN14@BLMenu|
  00098	e3560020	 cmp         r6, #0x20
  0009c	1a000005	 bne         |$LN2@BLMenu|
  000a0		 |$LN1@BLMenu|

; 438  :     //if ((!bForced == TRUE))
; 439  : 	//if ((bForced == TRUE) || (key ==  GPIOGetBit(hGPIO, 114)) && (key ==  GPIOGetBit(hGPIO, 115))) 
; 440  : 	{									//Combo SIDE KEY 
; 441  :         LCD_SPI_Init();

  000a0	eb000000	 bl          LCD_SPI_Init

; 442  :         BLShowLogo();					//function is TRUE,so Forever go , Ray 13-07-31 

  000a4	eb000000	 bl          BLShowLogo

; 443  :         OALBLMenuShow(&g_menuRoot);

  000a8	e59f0010	 ldr         r0, [pc, #0x10]
  000ac	eb000000	 bl          OALBLMenuShow

; 444  : 		//KeypadState();
; 445  : 		// Invalidate arguments to force them to be reinitialized
; 446  :         // with new config data generated by the boot menu
; 447  : 		pArgs->header.signature = 0;

  000b0	e3a03000	 mov         r3, #0
  000b4	e5883000	 str         r3, [r8]
  000b8		 |$LN2@BLMenu|

; 448  :     }  
; 449  : }

  000b8	e8bd41f0	 ldmia       sp!, {r4 - r8, lr}
  000bc	e12fff1e	 bx          lr
  000c0		 |$LN22@BLMenu|
  000c0		 |$LN23@BLMenu|
  000c0	00000000	 DCD         |g_menuRoot|
  000c4		 |$LN24@BLMenu|
  000c4	00000000	 DCD         |??_C@_1HA@HEOLOGAM@?$AAS?$AAy?$AAn?$AAc?$AA?9?$AAp?$AAr?$AAe?$AAs?$AAs?$AA?5?$AAs?$AAi?$AAd?$AAe?$AA?5?$AAk?$AAe?$AAy?$AA?5?$AAt?$AAo?$AA?5?$AAe?$AAn?$AAt?$AAe?$AAr?$AA?5?$AAc?$AAo?$AAn@|
  000c8		 |$M49263|

			 ENDP  ; |BLMenu|

	EXPORT	|__$ArrayPad$| [ DATA ]
	EXPORT	|??_C@_1FI@GAMDHEMA@?$AA?$AN?$AA?6?$AA?5?$AA?5?$AA?5?$AAW?$AAA?$AAR?$AAN?$AAI?$AAN?$AAG?$AA?3?$AA?5?$AAM?$AAA?$AAC?$AA?5?$AAa?$AAd?$AAd?$AAr?$AAe?$AAs?$AAs?$AA?5?$AAn?$AAo?$AAt?$AA?5?$AAp?$AAr@| [ DATA ] ; `string'
	EXPORT	|??_C@_1KG@MHFLKBMF@?$AAm?$AAa?$AAc?$AA?5?$AAa?$AAd?$AAd?$AAr?$AAe?$AAs?$AAs?$AA?5?$AAn?$AAo?$AAt?$AA?5?$AAf?$AAo?$AAu?$AAn?$AAd?$AA?5?$AAi?$AAn?$AA?5?$AAE?$AAE?$AAP?$AAR?$AAO?$AAM?$AA?4@| [ DATA ] ; `string'
	EXPORT	|??_C@_19OEFLBHKA@?$AAE?$AAV?$AAM?$AA?5?$AA?$AA@| [ DATA ] ; `string'
	EXPORT	|??_C@_1FC@DDNFDPMF@?$AA?$AN?$AA?6?$AA?5?$AAS?$AAe?$AAt?$AA?5?$AAE?$AAt?$AAh?$AAe?$AAr?$AAn?$AAe?$AAt?$AA?5?$AA?$CI?$AAL?$AAA?$AAN?$AA9?$AAx?$AAx?$AAx?$AA?$CJ?$AA?5?$AAM?$AAA?$AAC?$AA?5?$AAA?$AAd@| [ DATA ] ; `string'
	IMPORT	|LAN911XSetMacAddress|
	IMPORT	|LAN911XFindController|
	IMPORT	|OALBLMenuSetMacAddress|
	IMPORT	|LAN911XGetMacAddress|
	IMPORT	|OALPAtoVA|
	IMPORT	|__GSHandlerCheck|
	IMPORT	|__security_cookie|
	IMPORT	|memcpy|
	IMPORT	|__security_check_cookie|

  00000			 AREA	 |.pdata|, PDATA
|$T49285| DCD	|$LN12@SetMacAddr|
	DCD	0xc0006502

  00000			 AREA	 |.xdata|, DATA
|$T49281| DCD	0xffffffe8

  00000			 AREA	 |.rdata|, DATA, READONLY
|??_C@_1FI@GAMDHEMA@?$AA?$AN?$AA?6?$AA?5?$AA?5?$AA?5?$AAW?$AAA?$AAR?$AAN?$AAI?$AAN?$AAG?$AA?3?$AA?5?$AAM?$AAA?$AAC?$AA?5?$AAa?$AAd?$AAd?$AAr?$AAe?$AAs?$AAs?$AA?5?$AAn?$AAo?$AAt?$AA?5?$AAp?$AAr@| DCB 0xd
	DCB	0x0, 0xa, 0x0, " ", 0x0, " ", 0x0, " ", 0x0, "W", 0x0, "A"
	DCB	0x0, "R", 0x0, "N", 0x0, "I", 0x0, "N", 0x0, "G", 0x0, ":"
	DCB	0x0, " ", 0x0, "M", 0x0, "A", 0x0, "C", 0x0, " ", 0x0, "a"
	DCB	0x0, "d", 0x0, "d", 0x0, "r", 0x0, "e", 0x0, "s", 0x0, "s"
	DCB	0x0, " ", 0x0, "n", 0x0, "o", 0x0, "t", 0x0, " ", 0x0, "p"
	DCB	0x0, "r", 0x0, "o", 0x0, "g", 0x0, "r", 0x0, "a", 0x0, "m"
	DCB	0x0, "m", 0x0, "e", 0x0, "d", 0x0, "!", 0x0, 0xd, 0x0, 0xa
	DCB	0x0, 0x0, 0x0				; `string'

  00000			 AREA	 |.rdata|, DATA, READONLY
|??_C@_1KG@MHFLKBMF@?$AAm?$AAa?$AAc?$AA?5?$AAa?$AAd?$AAd?$AAr?$AAe?$AAs?$AAs?$AA?5?$AAn?$AAo?$AAt?$AA?5?$AAf?$AAo?$AAu?$AAn?$AAd?$AA?5?$AAi?$AAn?$AA?5?$AAE?$AAE?$AAP?$AAR?$AAO?$AAM?$AA?4@| DCB "m"
	DCB	0x0, "a", 0x0, "c", 0x0, " ", 0x0, "a", 0x0, "d", 0x0, "d"
	DCB	0x0, "r", 0x0, "e", 0x0, "s", 0x0, "s", 0x0, " ", 0x0, "n"
	DCB	0x0, "o", 0x0, "t", 0x0, " ", 0x0, "f", 0x0, "o", 0x0, "u"
	DCB	0x0, "n", 0x0, "d", 0x0, " ", 0x0, "i", 0x0, "n", 0x0, " "
	DCB	0x0, "E", 0x0, "E", 0x0, "P", 0x0, "R", 0x0, "O", 0x0, "M"
	DCB	0x0, ".", 0x0, " ", 0x0, "U", 0x0, "s", 0x0, "i", 0x0, "n"
	DCB	0x0, "g", 0x0, " ", 0x0, "M", 0x0, "a", 0x0, "c", 0x0, " "
	DCB	0x0, "a", 0x0, "d", 0x0, "d", 0x0, "r", 0x0, "e", 0x0, "s"
	DCB	0x0, "s", 0x0, " ", 0x0, "s", 0x0, "t", 0x0, "o", 0x0, "r"
	DCB	0x0, "e", 0x0, "d", 0x0, " ", 0x0, "w", 0x0, "i", 0x0, "t"
	DCB	0x0, "h", 0x0, " ", 0x0, "t", 0x0, "h", 0x0, "e", 0x0, " "
	DCB	0x0, "b", 0x0, "o", 0x0, "o", 0x0, "t", 0x0, " ", 0x0, "s"
	DCB	0x0, "e", 0x0, "t", 0x0, "t", 0x0, "i", 0x0, "n", 0x0, "g"
	DCB	0x0, "s", 0x0, 0xd, 0x0, 0xa, 0x0, 0x0, 0x0 ; `string'

  00000			 AREA	 |.rdata|, DATA, READONLY
|??_C@_19OEFLBHKA@?$AAE?$AAV?$AAM?$AA?5?$AA?$AA@| DCB "E", 0x0, "V", 0x0, "M"
	DCB	0x0, " ", 0x0, 0x0, 0x0			; `string'

  00000			 AREA	 |.rdata|, DATA, READONLY
|??_C@_1FC@DDNFDPMF@?$AA?$AN?$AA?6?$AA?5?$AAS?$AAe?$AAt?$AA?5?$AAE?$AAt?$AAh?$AAe?$AAr?$AAn?$AAe?$AAt?$AA?5?$AA?$CI?$AAL?$AAA?$AAN?$AA9?$AAx?$AAx?$AAx?$AA?$CJ?$AA?5?$AAM?$AAA?$AAC?$AA?5?$AAA?$AAd@| DCB 0xd
	DCB	0x0, 0xa, 0x0, " ", 0x0, "S", 0x0, "e", 0x0, "t", 0x0, " "
	DCB	0x0, "E", 0x0, "t", 0x0, "h", 0x0, "e", 0x0, "r", 0x0, "n"
	DCB	0x0, "e", 0x0, "t", 0x0, " ", 0x0, "(", 0x0, "L", 0x0, "A"
	DCB	0x0, "N", 0x0, "9", 0x0, "x", 0x0, "x", 0x0, "x", 0x0, ")"
	DCB	0x0, " ", 0x0, "M", 0x0, "A", 0x0, "C", 0x0, " ", 0x0, "A"
	DCB	0x0, "d", 0x0, "d", 0x0, "r", 0x0, "e", 0x0, "s", 0x0, "s"
	DCB	0x0, ":", 0x0, 0xd, 0x0, 0xa, 0x0, 0x0, 0x0 ; `string'
; Function compile flags: /Ogspy

  00000			 AREA	 |.text|, CODE, ARM

  00000	00000000	 DCD         |__GSHandlerCheck|
  00004	00000000	 DCD         |$T49281|

  00008		 |SetMacAddress| PROC

; 454  : {

  00008		 |$LN12@SetMacAddr|
  00008	e92d40f0	 stmdb       sp!, {r4 - r7, lr}
  0000c	e24dd028	 sub         sp, sp, #0x28
  00010		 |$M49282|
  00010	e59f3180	 ldr         r3, [pc, #0x180]
  00014	e5933000	 ldr         r3, [r3]
  00018	e58d3024	 str         r3, [sp, #0x24]

; 455  :     DWORD dummy;
; 456  : #pragma warning(push)
; 457  : #pragma warning(disable:4204 4221)
; 458  :     UINT16 mac[3] = {0xFFFF, 0xFFFF, 0xFFFF};
; 459  :     // We're using OALBLMenuSetMacAddress outside of a menu, but it still requires 
; 460  :     // a menu item input structure
; 461  :     OAL_BLMENU_ITEM DummyMacMenuItem = 
; 462  :     {
; 463  :         0, NULL, NULL,
; 464  :         L"EVM ", mac, NULL

  0001c	e59f3170	 ldr         r3, [pc, #0x170]

; 465  :     };
; 466  : #pragma warning(pop)
; 467  : 
; 468  :     UNREFERENCED_PARAMETER(pMenu);
; 469  : 
; 470  :     OALLog(L"\r\n Set Ethernet (LAN9xxx) MAC Address:\r\n");   

  00020	e59f0168	 ldr         r0, [pc, #0x168]
  00024	e3a01cff	 mov         r1, #0xFF, 24
  00028	e38140ff	 orr         r4, r1, #0xFF
  0002c	e3a0e000	 mov         lr, #0
  00030	e3a05000	 mov         r5, #0
  00034	e3a06000	 mov         r6, #0
  00038	e28d201c	 add         r2, sp, #0x1C
  0003c	e3a07000	 mov         r7, #0
  00040	e58d300c	 str         r3, [sp, #0xC]
  00044	e1cd41bc	 strh        r4, [sp, #0x1C]
  00048	e1cd41be	 strh        r4, [sp, #0x1E]
  0004c	e1cd42b0	 strh        r4, [sp, #0x20]
  00050	e1cde0b0	 strh        lr, [sp]
  00054	e58d5004	 str         r5, [sp, #4]
  00058	e58d6008	 str         r6, [sp, #8]
  0005c	e58d2010	 str         r2, [sp, #0x10]
  00060	e58d7014	 str         r7, [sp, #0x14]
  00064	eb000000	 bl          NKDbgPrintfW

; 471  : 	
; 472  : 	
; 473  :     memset(mac,0xFF,sizeof(mac));

  00068	e1cd41bc	 strh        r4, [sp, #0x1C]
  0006c	e1cd41be	 strh        r4, [sp, #0x1E]

; 474  :     LAN911XGetMacAddress(OALPAtoUA((DWORD) BSP_LAN9115_REGS_PA),mac);

  00070	e3a01000	 mov         r1, #0
  00074	e3a00415	 mov         r0, #0x15, 8
  00078	e1cd42b0	 strh        r4, [sp, #0x20]
  0007c	eb000000	 bl          OALPAtoVA
  00080	e28d101c	 add         r1, sp, #0x1C
  00084	eb000000	 bl          LAN911XGetMacAddress

; 475  :     if (((mac[0]== 0xFFFF) && (mac[1] == 0xFFFF) && (mac[2] == 0xFFFF)) || ((mac[0]== 0x0) && (mac[1] == 0x0) && (mac[2] == 0x0)))

  00088	e1dd11bc	 ldrh        r1, [sp, #0x1C]
  0008c	e59f50f8	 ldr         r5, [pc, #0xF8]
  00090	e1dd32b0	 ldrh        r3, [sp, #0x20]
  00094	e1dd21be	 ldrh        r2, [sp, #0x1E]
  00098	e1510004	 cmp         r1, r4
  0009c	1a000003	 bne         |$LN5@SetMacAddr|
  000a0	e1520004	 cmp         r2, r4
  000a4	1a000001	 bne         |$LN5@SetMacAddr|
  000a8	e1530004	 cmp         r3, r4
  000ac	0a000005	 beq         |$LN6@SetMacAddr|
  000b0		 |$LN5@SetMacAddr|
  000b0	e3510000	 cmp         r1, #0
  000b4	1a000009	 bne         |$LN7@SetMacAddr|
  000b8	e3520000	 cmp         r2, #0
  000bc	1a000007	 bne         |$LN7@SetMacAddr|
  000c0	e3530000	 cmp         r3, #0
  000c4	1a000005	 bne         |$LN7@SetMacAddr|
  000c8		 |$LN6@SetMacAddr|

; 476  :     {
; 477  :         RETAILMSG(1,(TEXT("mac address not found in EEPROM. Using Mac address stored with the boot settings\r\n")));

  000c8	e59f00b8	 ldr         r0, [pc, #0xB8]
  000cc	eb000000	 bl          NKDbgPrintfW

; 478  :         memcpy(mac,g_bootCfg.mac,sizeof(mac));       

  000d0	e2851066	 add         r1, r5, #0x66
  000d4	e28d001c	 add         r0, sp, #0x1C
  000d8	e3a02006	 mov         r2, #6
  000dc	eb000000	 bl          memcpy
  000e0		 |$LN7@SetMacAddr|

; 479  :     }
; 480  : 
; 481  :     OALBLMenuSetMacAddress(&DummyMacMenuItem);

  000e0	e28d0000	 add         r0, sp, #0
  000e4	eb000000	 bl          OALBLMenuSetMacAddress

; 482  :     
; 483  :     // Make sure we don't come out of OALBLMenuSetMacAddress with the original 0xFFFF FFFF FFFF or with all zeros
; 484  :     if (((mac[0]== 0xFFFF) && (mac[1] == 0xFFFF) && (mac[2] == 0xFFFF)) || ((mac[0]== 0x0) && (mac[1] == 0x0) && (mac[2] == 0x0)))

  000e8	e1dd11bc	 ldrh        r1, [sp, #0x1C]
  000ec	e1dd32b0	 ldrh        r3, [sp, #0x20]
  000f0	e1dd21be	 ldrh        r2, [sp, #0x1E]
  000f4	e1510004	 cmp         r1, r4
  000f8	1a000003	 bne         |$LN2@SetMacAddr|
  000fc	e1520004	 cmp         r2, r4
  00100	1a000001	 bne         |$LN2@SetMacAddr|
  00104	e1530004	 cmp         r3, r4
  00108	0a000005	 beq         |$LN3@SetMacAddr|
  0010c		 |$LN2@SetMacAddr|
  0010c	e3510000	 cmp         r1, #0
  00110	1a000006	 bne         |$LN4@SetMacAddr|
  00114	e3520000	 cmp         r2, #0
  00118	1a000004	 bne         |$LN4@SetMacAddr|
  0011c	e3530000	 cmp         r3, #0
  00120	1a000002	 bne         |$LN4@SetMacAddr|
  00124		 |$LN3@SetMacAddr|

; 485  :     {
; 486  :         OALLog(L"\r\n   WARNING: MAC address not programmed!\r\n");

  00124	e59f0058	 ldr         r0, [pc, #0x58]
  00128	eb000000	 bl          NKDbgPrintfW

; 487  :         return;

  0012c	ea00000f	 b           |$LN8@SetMacAddr|
  00130		 |$LN4@SetMacAddr|

; 488  :     }
; 489  :         
; 490  :    memcpy(g_bootCfg.mac,mac,sizeof(mac));

  00130	e2850066	 add         r0, r5, #0x66
  00134	e28d101c	 add         r1, sp, #0x1C
  00138	e3a02006	 mov         r2, #6
  0013c	eb000000	 bl          memcpy

; 491  : 
; 492  : 
; 493  :     if (!LAN911XFindController(OALPAtoUA((DWORD) BSP_LAN9115_REGS_PA),&dummy))

  00140	e3a01000	 mov         r1, #0
  00144	e3a00415	 mov         r0, #0x15, 8
  00148	eb000000	 bl          OALPAtoVA
  0014c	e28d1018	 add         r1, sp, #0x18
  00150	eb000000	 bl          LAN911XFindController
  00154	e3500000	 cmp         r0, #0
  00158	0a000004	 beq         |$LN8@SetMacAddr|

; 494  :     {     
; 495  :         return;
; 496  :     }
; 497  :    LAN911XSetMacAddress(OALPAtoUA((DWORD) BSP_LAN9115_REGS_PA),mac);  

  0015c	e3a01000	 mov         r1, #0
  00160	e3a00415	 mov         r0, #0x15, 8
  00164	eb000000	 bl          OALPAtoVA
  00168	e28d101c	 add         r1, sp, #0x1C
  0016c	eb000000	 bl          LAN911XSetMacAddress
  00170		 |$LN8@SetMacAddr|
  00170	e59d0024	 ldr         r0, [sp, #0x24]
  00174	eb000000	 bl          __security_check_cookie

; 498  : }

  00178	e28dd028	 add         sp, sp, #0x28
  0017c	e8bd40f0	 ldmia       sp!, {r4 - r7, lr}
  00180	e12fff1e	 bx          lr
  00184		 |$LN13@SetMacAddr|
  00184		 |$LN14@SetMacAddr|
  00184	00000000	 DCD         |??_C@_1FI@GAMDHEMA@?$AA?$AN?$AA?6?$AA?5?$AA?5?$AA?5?$AAW?$AAA?$AAR?$AAN?$AAI?$AAN?$AAG?$AA?3?$AA?5?$AAM?$AAA?$AAC?$AA?5?$AAa?$AAd?$AAd?$AAr?$AAe?$AAs?$AAs?$AA?5?$AAn?$AAo?$AAt?$AA?5?$AAp?$AAr@|
  00188		 |$LN15@SetMacAddr|
  00188	00000000	 DCD         |??_C@_1KG@MHFLKBMF@?$AAm?$AAa?$AAc?$AA?5?$AAa?$AAd?$AAd?$AAr?$AAe?$AAs?$AAs?$AA?5?$AAn?$AAo?$AAt?$AA?5?$AAf?$AAo?$AAu?$AAn?$AAd?$AA?5?$AAi?$AAn?$AA?5?$AAE?$AAE?$AAP?$AAR?$AAO?$AAM?$AA?4@|
  0018c		 |$LN16@SetMacAddr|
  0018c	00000000	 DCD         |g_bootCfg|
  00190		 |$LN17@SetMacAddr|
  00190	00000000	 DCD         |??_C@_1FC@DDNFDPMF@?$AA?$AN?$AA?6?$AA?5?$AAS?$AAe?$AAt?$AA?5?$AAE?$AAt?$AAh?$AAe?$AAr?$AAn?$AAe?$AAt?$AA?5?$AA?$CI?$AAL?$AAA?$AAN?$AA9?$AAx?$AAx?$AAx?$AA?$CJ?$AA?5?$AAM?$AAA?$AAC?$AA?5?$AAA?$AAd@|
  00194		 |$LN18@SetMacAddr|
  00194	00000000	 DCD         |??_C@_19OEFLBHKA@?$AAE?$AAV?$AAM?$AA?5?$AA?$AA@|
  00198		 |$LN19@SetMacAddr|
  00198	00000000	 DCD         |__security_cookie|
  0019c		 |$M49283|

			 ENDP  ; |SetMacAddress|

	EXPORT	|__$ArrayPad$| [ DATA ]
	EXPORT	|??_C@_1CM@MBNEBDDK@?$AA?5?$AA?5?$AAV?$AAM?$AAI?$AAN?$AAI?$AA?3?$AA?5?$AA?5?$AA?5?$AA?5?$AA?5?$AA?5?$AA?5?$AA?5?$AA?5?$AA?$CF?$AAs?$AA?$AN?$AA?6?$AA?$AA@| [ DATA ] ; `string'
	EXPORT	|??_C@_1GE@BGIPLJDA@?$AA?5?$AA?5?$AAN?$AAo?$AAt?$AAe?$AA?3?$AA?5?$AAU?$AAS?$AAB?$AAF?$AAN?$AA?5?$AAR?$AAN?$AAD?$AAI?$AAS?$AA?5?$AAM?$AAA?$AAC?$AA?5?$AAA?$AAd?$AAd?$AAr?$AA?5?$AAc?$AAa?$AAn@| [ DATA ] ; `string'
	EXPORT	|??_C@_1DG@LEIGGFEH@?$AA?5?$AA?5?$AAE?$AAt?$AAh?$AA?5?$AAM?$AAA?$AAC?$AA?5?$AAA?$AAd?$AAd?$AAr?$AA?3?$AA?5?$AA?5?$AA?$CF?$AAs?$AA?5?$AA?$CI?$AA?$CF?$AAs?$AA?$CJ?$AA?$AN?$AA?6?$AA?$AA@| [ DATA ] ; `string'
	EXPORT	|??_C@_1BM@HBILLBOB@?$AAB?$AAo?$AAo?$AAt?$AA?5?$AAs?$AAe?$AAt?$AAt?$AAi?$AAn?$AAg?$AAs?$AA?$AA@| [ DATA ] ; `string'
	EXPORT	|??_C@_1O@HKPJJFOO@?$AAE?$AAE?$AAP?$AAR?$AAO?$AAM?$AA?$AA@| [ DATA ] ; `string'
	EXPORT	|??_C@_1CM@ENNBLIDC@?$AA?5?$AA?5?$AAD?$AAH?$AAC?$AAP?$AA?3?$AA?5?$AA?5?$AA?5?$AA?5?$AA?5?$AA?5?$AA?5?$AA?5?$AA?5?$AA?5?$AA?$CF?$AAs?$AA?$AN?$AA?6?$AA?$AA@| [ DATA ] ; `string'
	EXPORT	|??_C@_1CM@PFJOPCHK@?$AA?5?$AA?5?$AAI?$AAP?$AA?5?$AAa?$AAd?$AAd?$AAr?$AAe?$AAs?$AAs?$AA?3?$AA?5?$AA?5?$AA?5?$AA?5?$AA?$CF?$AAs?$AA?$AN?$AA?6?$AA?$AA@| [ DATA ] ; `string'
	EXPORT	|??_C@_1CM@MFPGPOHA@?$AA?5?$AA?5?$AAI?$AAP?$AA?5?$AAm?$AAa?$AAs?$AAk?$AA?3?$AA?5?$AA?5?$AA?5?$AA?5?$AA?5?$AA?5?$AA?5?$AA?$CF?$AAs?$AA?$AN?$AA?6?$AA?$AA@| [ DATA ] ; `string'
	EXPORT	|??_C@_1CM@IMEGPKBH@?$AA?5?$AA?5?$AAI?$AAP?$AA?5?$AAr?$AAo?$AAu?$AAt?$AAe?$AAr?$AA?3?$AA?5?$AA?5?$AA?5?$AA?5?$AA?5?$AA?$CF?$AAs?$AA?$AN?$AA?6?$AA?$AA@| [ DATA ] ; `string'
	EXPORT	|??_C@_1CM@OEGKHNAF@?$AA?5?$AA?5?$AAK?$AAI?$AAT?$AAL?$AA?5?$AAm?$AAo?$AAd?$AAe?$AA?3?$AA?5?$AA?5?$AA?5?$AA?5?$AA?5?$AA?$CF?$AAs?$AA?$AN?$AA?6?$AA?$AA@| [ DATA ] ; `string'
	EXPORT	|??_C@_1BE@OLFPFCKI@?$AAi?$AAn?$AAt?$AAe?$AAr?$AAr?$AAu?$AAp?$AAt?$AA?$AA@| [ DATA ] ; `string'
	EXPORT	|??_C@_1O@DOAPGJLD@?$AAp?$AAo?$AAl?$AAl?$AAe?$AAd?$AA?$AA@| [ DATA ] ; `string'
	EXPORT	|??_C@_1CM@OLFKODG@?$AA?5?$AA?5?$AAK?$AAI?$AAT?$AAL?$AA?5?$AAt?$AAy?$AAp?$AAe?$AA?3?$AA?5?$AA?5?$AA?5?$AA?5?$AA?5?$AA?$CF?$AAs?$AA?$AN?$AA?6?$AA?$AA@| [ DATA ] ; `string'
	EXPORT	|??_C@_1O@IBNPCBAA@?$AAa?$AAc?$AAt?$AAi?$AAv?$AAe?$AA?$AA@| [ DATA ] ; `string'
	EXPORT	|??_C@_1BA@INHNFGAO@?$AAp?$AAa?$AAs?$AAs?$AAi?$AAv?$AAe?$AA?$AA@| [ DATA ] ; `string'
	EXPORT	|??_C@_1CM@KKLHLKH@?$AA?5?$AA?5?$AAK?$AAI?$AAT?$AAL?$AA?5?$AAs?$AAt?$AAa?$AAt?$AAe?$AA?3?$AA?5?$AA?5?$AA?5?$AA?5?$AA?$CF?$AAs?$AA?$AN?$AA?6?$AA?$AA@| [ DATA ] ; `string'
	EXPORT	|??_C@_1BC@LGPIFEA@?$AAd?$AAi?$AAs?$AAa?$AAb?$AAl?$AAe?$AAd?$AA?$AA@| [ DATA ] ; `string'
	EXPORT	|??_C@_1BA@BKMGIBPB@?$AAe?$AAn?$AAa?$AAb?$AAl?$AAe?$AAd?$AA?$AA@| [ DATA ] ; `string'
	EXPORT	|??_C@_1BM@NCMLOBGF@?$AA?$AN?$AA?6?$AA?5?$AAN?$AAe?$AAt?$AAw?$AAo?$AAr?$AAk?$AA?3?$AA?$AN?$AA?6?$AA?$AA@| [ DATA ] ; `string'
	IMPORT	|OALKitlMACtoString|
	IMPORT	|OALKitlIPtoString|

  00000			 AREA	 |.pdata|, PDATA
|$T49319| DCD	|$LN23@ShowNetwor|
	DCD	0xc0007b02

  00000			 AREA	 |.xdata|, DATA
|$T49315| DCD	0xffffffe8

  00000			 AREA	 |.rdata|, DATA, READONLY
|??_C@_1CM@MBNEBDDK@?$AA?5?$AA?5?$AAV?$AAM?$AAI?$AAN?$AAI?$AA?3?$AA?5?$AA?5?$AA?5?$AA?5?$AA?5?$AA?5?$AA?5?$AA?5?$AA?5?$AA?$CF?$AAs?$AA?$AN?$AA?6?$AA?$AA@| DCB " "
	DCB	0x0, " ", 0x0, "V", 0x0, "M", 0x0, "I", 0x0, "N", 0x0, "I"
	DCB	0x0, ":", 0x0, " ", 0x0, " ", 0x0, " ", 0x0, " ", 0x0, " "
	DCB	0x0, " ", 0x0, " ", 0x0, " ", 0x0, " ", 0x0, "%", 0x0, "s"
	DCB	0x0, 0xd, 0x0, 0xa, 0x0, 0x0, 0x0	; `string'

  00000			 AREA	 |.rdata|, DATA, READONLY
|??_C@_1GE@BGIPLJDA@?$AA?5?$AA?5?$AAN?$AAo?$AAt?$AAe?$AA?3?$AA?5?$AAU?$AAS?$AAB?$AAF?$AAN?$AA?5?$AAR?$AAN?$AAD?$AAI?$AAS?$AA?5?$AAM?$AAA?$AAC?$AA?5?$AAA?$AAd?$AAd?$AAr?$AA?5?$AAc?$AAa?$AAn@| DCB " "
	DCB	0x0, " ", 0x0, "N", 0x0, "o", 0x0, "t", 0x0, "e", 0x0, ":"
	DCB	0x0, " ", 0x0, "U", 0x0, "S", 0x0, "B", 0x0, "F", 0x0, "N"
	DCB	0x0, " ", 0x0, "R", 0x0, "N", 0x0, "D", 0x0, "I", 0x0, "S"
	DCB	0x0, " ", 0x0, "M", 0x0, "A", 0x0, "C", 0x0, " ", 0x0, "A"
	DCB	0x0, "d", 0x0, "d", 0x0, "r", 0x0, " ", 0x0, "c", 0x0, "a"
	DCB	0x0, "n", 0x0, "n", 0x0, "o", 0x0, "t", 0x0, " ", 0x0, "b"
	DCB	0x0, "e", 0x0, " ", 0x0, "c", 0x0, "h", 0x0, "a", 0x0, "n"
	DCB	0x0, "g", 0x0, "e", 0x0, "d", 0x0, ".", 0x0, 0xd, 0x0, 0xa
	DCB	0x0, 0x0, 0x0				; `string'

  00000			 AREA	 |.rdata|, DATA, READONLY
|??_C@_1DG@LEIGGFEH@?$AA?5?$AA?5?$AAE?$AAt?$AAh?$AA?5?$AAM?$AAA?$AAC?$AA?5?$AAA?$AAd?$AAd?$AAr?$AA?3?$AA?5?$AA?5?$AA?$CF?$AAs?$AA?5?$AA?$CI?$AA?$CF?$AAs?$AA?$CJ?$AA?$AN?$AA?6?$AA?$AA@| DCB " "
	DCB	0x0, " ", 0x0, "E", 0x0, "t", 0x0, "h", 0x0, " ", 0x0, "M"
	DCB	0x0, "A", 0x0, "C", 0x0, " ", 0x0, "A", 0x0, "d", 0x0, "d"
	DCB	0x0, "r", 0x0, ":", 0x0, " ", 0x0, " ", 0x0, "%", 0x0, "s"
	DCB	0x0, " ", 0x0, "(", 0x0, "%", 0x0, "s", 0x0, ")", 0x0, 0xd
	DCB	0x0, 0xa, 0x0, 0x0, 0x0			; `string'

  00000			 AREA	 |.rdata|, DATA, READONLY
|??_C@_1BM@HBILLBOB@?$AAB?$AAo?$AAo?$AAt?$AA?5?$AAs?$AAe?$AAt?$AAt?$AAi?$AAn?$AAg?$AAs?$AA?$AA@| DCB "B"
	DCB	0x0, "o", 0x0, "o", 0x0, "t", 0x0, " ", 0x0, "s", 0x0, "e"
	DCB	0x0, "t", 0x0, "t", 0x0, "i", 0x0, "n", 0x0, "g", 0x0, "s"
	DCB	0x0, 0x0, 0x0				; `string'

  00000			 AREA	 |.rdata|, DATA, READONLY
|??_C@_1O@HKPJJFOO@?$AAE?$AAE?$AAP?$AAR?$AAO?$AAM?$AA?$AA@| DCB "E", 0x0, "E"
	DCB	0x0, "P", 0x0, "R", 0x0, "O", 0x0, "M", 0x0, 0x0, 0x0 ; `string'

  00000			 AREA	 |.rdata|, DATA, READONLY
|??_C@_1CM@ENNBLIDC@?$AA?5?$AA?5?$AAD?$AAH?$AAC?$AAP?$AA?3?$AA?5?$AA?5?$AA?5?$AA?5?$AA?5?$AA?5?$AA?5?$AA?5?$AA?5?$AA?5?$AA?$CF?$AAs?$AA?$AN?$AA?6?$AA?$AA@| DCB " "
	DCB	0x0, " ", 0x0, "D", 0x0, "H", 0x0, "C", 0x0, "P", 0x0, ":"
	DCB	0x0, " ", 0x0, " ", 0x0, " ", 0x0, " ", 0x0, " ", 0x0, " "
	DCB	0x0, " ", 0x0, " ", 0x0, " ", 0x0, " ", 0x0, "%", 0x0, "s"
	DCB	0x0, 0xd, 0x0, 0xa, 0x0, 0x0, 0x0	; `string'

  00000			 AREA	 |.rdata|, DATA, READONLY
|??_C@_1CM@PFJOPCHK@?$AA?5?$AA?5?$AAI?$AAP?$AA?5?$AAa?$AAd?$AAd?$AAr?$AAe?$AAs?$AAs?$AA?3?$AA?5?$AA?5?$AA?5?$AA?5?$AA?$CF?$AAs?$AA?$AN?$AA?6?$AA?$AA@| DCB " "
	DCB	0x0, " ", 0x0, "I", 0x0, "P", 0x0, " ", 0x0, "a", 0x0, "d"
	DCB	0x0, "d", 0x0, "r", 0x0, "e", 0x0, "s", 0x0, "s", 0x0, ":"
	DCB	0x0, " ", 0x0, " ", 0x0, " ", 0x0, " ", 0x0, "%", 0x0, "s"
	DCB	0x0, 0xd, 0x0, 0xa, 0x0, 0x0, 0x0	; `string'

  00000			 AREA	 |.rdata|, DATA, READONLY
|??_C@_1CM@MFPGPOHA@?$AA?5?$AA?5?$AAI?$AAP?$AA?5?$AAm?$AAa?$AAs?$AAk?$AA?3?$AA?5?$AA?5?$AA?5?$AA?5?$AA?5?$AA?5?$AA?5?$AA?$CF?$AAs?$AA?$AN?$AA?6?$AA?$AA@| DCB " "
	DCB	0x0, " ", 0x0, "I", 0x0, "P", 0x0, " ", 0x0, "m", 0x0, "a"
	DCB	0x0, "s", 0x0, "k", 0x0, ":", 0x0, " ", 0x0, " ", 0x0, " "
	DCB	0x0, " ", 0x0, " ", 0x0, " ", 0x0, " ", 0x0, "%", 0x0, "s"
	DCB	0x0, 0xd, 0x0, 0xa, 0x0, 0x0, 0x0	; `string'

  00000			 AREA	 |.rdata|, DATA, READONLY
|??_C@_1CM@IMEGPKBH@?$AA?5?$AA?5?$AAI?$AAP?$AA?5?$AAr?$AAo?$AAu?$AAt?$AAe?$AAr?$AA?3?$AA?5?$AA?5?$AA?5?$AA?5?$AA?5?$AA?$CF?$AAs?$AA?$AN?$AA?6?$AA?$AA@| DCB " "
	DCB	0x0, " ", 0x0, "I", 0x0, "P", 0x0, " ", 0x0, "r", 0x0, "o"
	DCB	0x0, "u", 0x0, "t", 0x0, "e", 0x0, "r", 0x0, ":", 0x0, " "
	DCB	0x0, " ", 0x0, " ", 0x0, " ", 0x0, " ", 0x0, "%", 0x0, "s"
	DCB	0x0, 0xd, 0x0, 0xa, 0x0, 0x0, 0x0	; `string'

  00000			 AREA	 |.rdata|, DATA, READONLY
|??_C@_1CM@OEGKHNAF@?$AA?5?$AA?5?$AAK?$AAI?$AAT?$AAL?$AA?5?$AAm?$AAo?$AAd?$AAe?$AA?3?$AA?5?$AA?5?$AA?5?$AA?5?$AA?5?$AA?$CF?$AAs?$AA?$AN?$AA?6?$AA?$AA@| DCB " "
	DCB	0x0, " ", 0x0, "K", 0x0, "I", 0x0, "T", 0x0, "L", 0x0, " "
	DCB	0x0, "m", 0x0, "o", 0x0, "d", 0x0, "e", 0x0, ":", 0x0, " "
	DCB	0x0, " ", 0x0, " ", 0x0, " ", 0x0, " ", 0x0, "%", 0x0, "s"
	DCB	0x0, 0xd, 0x0, 0xa, 0x0, 0x0, 0x0	; `string'

  00000			 AREA	 |.rdata|, DATA, READONLY
|??_C@_1BE@OLFPFCKI@?$AAi?$AAn?$AAt?$AAe?$AAr?$AAr?$AAu?$AAp?$AAt?$AA?$AA@| DCB "i"
	DCB	0x0, "n", 0x0, "t", 0x0, "e", 0x0, "r", 0x0, "r", 0x0, "u"
	DCB	0x0, "p", 0x0, "t", 0x0, 0x0, 0x0	; `string'

  00000			 AREA	 |.rdata|, DATA, READONLY
|??_C@_1O@DOAPGJLD@?$AAp?$AAo?$AAl?$AAl?$AAe?$AAd?$AA?$AA@| DCB "p", 0x0, "o"
	DCB	0x0, "l", 0x0, "l", 0x0, "e", 0x0, "d", 0x0, 0x0, 0x0 ; `string'

  00000			 AREA	 |.rdata|, DATA, READONLY
|??_C@_1CM@OLFKODG@?$AA?5?$AA?5?$AAK?$AAI?$AAT?$AAL?$AA?5?$AAt?$AAy?$AAp?$AAe?$AA?3?$AA?5?$AA?5?$AA?5?$AA?5?$AA?5?$AA?$CF?$AAs?$AA?$AN?$AA?6?$AA?$AA@| DCB " "
	DCB	0x0, " ", 0x0, "K", 0x0, "I", 0x0, "T", 0x0, "L", 0x0, " "
	DCB	0x0, "t", 0x0, "y", 0x0, "p", 0x0, "e", 0x0, ":", 0x0, " "
	DCB	0x0, " ", 0x0, " ", 0x0, " ", 0x0, " ", 0x0, "%", 0x0, "s"
	DCB	0x0, 0xd, 0x0, 0xa, 0x0, 0x0, 0x0	; `string'

  00000			 AREA	 |.rdata|, DATA, READONLY
|??_C@_1O@IBNPCBAA@?$AAa?$AAc?$AAt?$AAi?$AAv?$AAe?$AA?$AA@| DCB "a", 0x0, "c"
	DCB	0x0, "t", 0x0, "i", 0x0, "v", 0x0, "e", 0x0, 0x0, 0x0 ; `string'

  00000			 AREA	 |.rdata|, DATA, READONLY
|??_C@_1BA@INHNFGAO@?$AAp?$AAa?$AAs?$AAs?$AAi?$AAv?$AAe?$AA?$AA@| DCB "p", 0x0
	DCB	"a", 0x0, "s", 0x0, "s", 0x0, "i", 0x0, "v", 0x0, "e", 0x0
	DCB	0x0, 0x0				; `string'

  00000			 AREA	 |.rdata|, DATA, READONLY
|??_C@_1CM@KKLHLKH@?$AA?5?$AA?5?$AAK?$AAI?$AAT?$AAL?$AA?5?$AAs?$AAt?$AAa?$AAt?$AAe?$AA?3?$AA?5?$AA?5?$AA?5?$AA?5?$AA?$CF?$AAs?$AA?$AN?$AA?6?$AA?$AA@| DCB " "
	DCB	0x0, " ", 0x0, "K", 0x0, "I", 0x0, "T", 0x0, "L", 0x0, " "
	DCB	0x0, "s", 0x0, "t", 0x0, "a", 0x0, "t", 0x0, "e", 0x0, ":"
	DCB	0x0, " ", 0x0, " ", 0x0, " ", 0x0, " ", 0x0, "%", 0x0, "s"
	DCB	0x0, 0xd, 0x0, 0xa, 0x0, 0x0, 0x0	; `string'

  00000			 AREA	 |.rdata|, DATA, READONLY
|??_C@_1BC@LGPIFEA@?$AAd?$AAi?$AAs?$AAa?$AAb?$AAl?$AAe?$AAd?$AA?$AA@| DCB "d"
	DCB	0x0, "i", 0x0, "s", 0x0, "a", 0x0, "b", 0x0, "l", 0x0, "e"
	DCB	0x0, "d", 0x0, 0x0, 0x0			; `string'

  00000			 AREA	 |.rdata|, DATA, READONLY
|??_C@_1BA@BKMGIBPB@?$AAe?$AAn?$AAa?$AAb?$AAl?$AAe?$AAd?$AA?$AA@| DCB "e", 0x0
	DCB	"n", 0x0, "a", 0x0, "b", 0x0, "l", 0x0, "e", 0x0, "d", 0x0
	DCB	0x0, 0x0				; `string'

  00000			 AREA	 |.rdata|, DATA, READONLY
|??_C@_1BM@NCMLOBGF@?$AA?$AN?$AA?6?$AA?5?$AAN?$AAe?$AAt?$AAw?$AAo?$AAr?$AAk?$AA?3?$AA?$AN?$AA?6?$AA?$AA@| DCB 0xd
	DCB	0x0, 0xa, 0x0, " ", 0x0, "N", 0x0, "e", 0x0, "t", 0x0, "w"
	DCB	0x0, "o", 0x0, "r", 0x0, "k", 0x0, ":", 0x0, 0xd, 0x0, 0xa
	DCB	0x0, 0x0, 0x0				; `string'
; Function compile flags: /Ogspy

  00000			 AREA	 |.text|, CODE, ARM

  00000	00000000	 DCD         |__GSHandlerCheck|
  00004	00000000	 DCD         |$T49315|

  00008		 |ShowNetworkSettings| PROC

; 554  : {

  00008		 |$LN23@ShowNetwor|
  00008	e92d40f0	 stmdb       sp!, {r4 - r7, lr}
  0000c	e24dd00c	 sub         sp, sp, #0xC
  00010		 |$M49316|
  00010	e59f31d8	 ldr         r3, [pc, #0x1D8]
  00014	e5933000	 ldr         r3, [r3]
  00018	e58d3008	 str         r3, [sp, #8]

; 555  :     BOOL fValidExtMacAddr;
; 556  :     UINT16 mac[3];
; 557  :     UNREFERENCED_PARAMETER(pMenu);
; 558  : 
; 559  :     memset(mac,0xFF,sizeof(mac));

  0001c	e3a03cff	 mov         r3, #0xFF, 24
  00020	e38340ff	 orr         r4, r3, #0xFF
  00024	e1cd40b0	 strh        r4, [sp]
  00028	e1cd40b2	 strh        r4, [sp, #2]

; 560  :     LAN911XGetMacAddress(OALPAtoUA((DWORD) BSP_LAN9115_REGS_PA),mac);

  0002c	e3a01000	 mov         r1, #0
  00030	e3a00415	 mov         r0, #0x15, 8
  00034	e1cd40b4	 strh        r4, [sp, #4]
  00038	eb000000	 bl          OALPAtoVA
  0003c	e28d1000	 add         r1, sp, #0
  00040	eb000000	 bl          LAN911XGetMacAddress

; 561  :     if (((mac[0]== 0xFFFF) && (mac[1] == 0xFFFF) && (mac[2] == 0xFFFF)) || ((mac[0]== 0x0) && (mac[1] == 0x0) && (mac[2] == 0x0)))

  00044	e1dd10b0	 ldrh        r1, [sp]
  00048	e1dd30b4	 ldrh        r3, [sp, #4]
  0004c	e1dd20b2	 ldrh        r2, [sp, #2]
  00050	e1510004	 cmp         r1, r4
  00054	1a000003	 bne         |$LN2@ShowNetwor|
  00058	e1520004	 cmp         r2, r4
  0005c	1a000001	 bne         |$LN2@ShowNetwor|
  00060	e1530004	 cmp         r3, r4
  00064	0a000005	 beq         |$LN3@ShowNetwor|
  00068		 |$LN2@ShowNetwor|
  00068	e3510000	 cmp         r1, #0
  0006c	1a000005	 bne         |$LN4@ShowNetwor|
  00070	e3520000	 cmp         r2, #0
  00074	1a000003	 bne         |$LN4@ShowNetwor|
  00078	e3530000	 cmp         r3, #0
  0007c	1a000001	 bne         |$LN4@ShowNetwor|
  00080		 |$LN3@ShowNetwor|

; 562  :     {
; 563  :         fValidExtMacAddr = FALSE;        

  00080	e3a06000	 mov         r6, #0

; 564  :     }
; 565  :     else

  00084	ea000000	 b           |$LN1@ShowNetwor|
  00088		 |$LN4@ShowNetwor|

; 566  :     {
; 567  :         fValidExtMacAddr = TRUE;        

  00088	e3a06001	 mov         r6, #1
  0008c		 |$LN1@ShowNetwor|

; 568  :     }
; 569  : 
; 570  : 
; 571  :     OALLog(L"\r\n Network:\r\n");

  0008c	e59f0158	 ldr         r0, [pc, #0x158]
  00090	eb000000	 bl          NKDbgPrintfW

; 572  :     OALLog(
; 573  :         L"  KITL state:    %s\r\n",
; 574  :         (g_bootCfg.kitlFlags & OAL_KITL_FLAGS_ENABLED) ? L"enabled" : L"disabled"
; 575  :     );

  00094	e59f414c	 ldr         r4, [pc, #0x14C]
  00098	e59f5144	 ldr         r5, [pc, #0x144]
  0009c	e59f013c	 ldr         r0, [pc, #0x13C]
  000a0	e5943030	 ldr         r3, [r4, #0x30]
  000a4	e3130001	 tst         r3, #1
  000a8	11a01005	 movne       r1, r5
  000ac	059f10f0	 ldreq       r1, [pc, #0xF0]
  000b0	eb000000	 bl          NKDbgPrintfW

; 576  : 
; 577  :     OALLog(
; 578  :         L"  KITL type:     %s\r\n",
; 579  :         (g_bootCfg.kitlFlags & OAL_KITL_FLAGS_PASSIVE) ? L"passive" : L"active"
; 580  :     );

  000b4	e5943030	 ldr         r3, [r4, #0x30]
  000b8	e59f011c	 ldr         r0, [pc, #0x11C]
  000bc	e3130002	 tst         r3, #2
  000c0	159f1110	 ldrne       r1, [pc, #0x110]
  000c4	059f1108	 ldreq       r1, [pc, #0x108]
  000c8	eb000000	 bl          NKDbgPrintfW

; 581  : 
; 582  :     OALLog(
; 583  :         L"  KITL mode:     %s\r\n",
; 584  :         (g_bootCfg.kitlFlags & OAL_KITL_FLAGS_POLL) ? L"polled" : L"interrupt"
; 585  :     );

  000cc	e5943030	 ldr         r3, [r4, #0x30]
  000d0	e59f00f8	 ldr         r0, [pc, #0xF8]
  000d4	e3130010	 tst         r3, #0x10
  000d8	159f10ec	 ldrne       r1, [pc, #0xEC]
  000dc	059f10e4	 ldreq       r1, [pc, #0xE4]
  000e0	eb000000	 bl          NKDbgPrintfW

; 586  :     OALLog(
; 587  :         L"  DHCP:          %s\r\n",
; 588  :         (g_bootCfg.kitlFlags & OAL_KITL_FLAGS_DHCP) ? L"enabled" : L"disabled"
; 589  :     );

  000e4	e5943030	 ldr         r3, [r4, #0x30]
  000e8	e59f00d4	 ldr         r0, [pc, #0xD4]
  000ec	e3130004	 tst         r3, #4
  000f0	11a01005	 movne       r1, r5
  000f4	059f10a8	 ldreq       r1, [pc, #0xA8]
  000f8	eb000000	 bl          NKDbgPrintfW

; 590  :     OALLog(L"  IP address:    %s\r\n", OALKitlIPtoString(g_bootCfg.ipAddress));

  000fc	e5940038	 ldr         r0, [r4, #0x38]
  00100	eb000000	 bl          OALKitlIPtoString
  00104	e1a01000	 mov         r1, r0
  00108	e59f00b0	 ldr         r0, [pc, #0xB0]
  0010c	eb000000	 bl          NKDbgPrintfW

; 591  :     OALLog(L"  IP mask:       %s\r\n", OALKitlIPtoString(g_bootCfg.ipMask));

  00110	e594003c	 ldr         r0, [r4, #0x3C]
  00114	eb000000	 bl          OALKitlIPtoString
  00118	e1a01000	 mov         r1, r0
  0011c	e59f0098	 ldr         r0, [pc, #0x98]
  00120	eb000000	 bl          NKDbgPrintfW

; 592  :     OALLog(L"  IP router:     %s\r\n", OALKitlIPtoString(g_bootCfg.ipRoute));

  00124	e5940040	 ldr         r0, [r4, #0x40]
  00128	eb000000	 bl          OALKitlIPtoString
  0012c	e1a01000	 mov         r1, r0
  00130	e59f0080	 ldr         r0, [pc, #0x80]
  00134	eb000000	 bl          NKDbgPrintfW

; 593  :     OALLog(L"  Eth MAC Addr:  %s (%s)\r\n", 
; 594  :         OALKitlMACtoString(fValidExtMacAddr ? mac : g_bootCfg.mac)
; 595  :         ,fValidExtMacAddr ? L"EEPROM" : L"Boot settings");

  00138	e3560000	 cmp         r6, #0
  0013c	159f7070	 ldrne       r7, [pc, #0x70]
  00140	059f7068	 ldreq       r7, [pc, #0x68]
  00144	e3560000	 cmp         r6, #0
  00148	128d0000	 addne       r0, sp, #0
  0014c	02840066	 addeq       r0, r4, #0x66
  00150	eb000000	 bl          OALKitlMACtoString
  00154	e1a01000	 mov         r1, r0
  00158	e59f004c	 ldr         r0, [pc, #0x4C]
  0015c	e1a02007	 mov         r2, r7
  00160	eb000000	 bl          NKDbgPrintfW

; 596  :     OALLog(
; 597  :         L"  VMINI:         %s\r\n",
; 598  :         (g_bootCfg.kitlFlags & OAL_KITL_FLAGS_VMINI) ? L"enabled" : L"disabled"
; 599  :     );

  00164	e5943030	 ldr         r3, [r4, #0x30]
  00168	e59f0038	 ldr         r0, [pc, #0x38]
  0016c	e3130008	 tst         r3, #8
  00170	059f502c	 ldreq       r5, [pc, #0x2C]
  00174	e1a01005	 mov         r1, r5
  00178	eb000000	 bl          NKDbgPrintfW

; 600  :     OALLog(L"  Note: USBFN RNDIS MAC Addr cannot be changed.\r\n");

  0017c	e59f001c	 ldr         r0, [pc, #0x1C]
  00180	eb000000	 bl          NKDbgPrintfW

; 601  :     
; 602  :     OALBLMenuReadKey(TRUE);

  00184	e3a00001	 mov         r0, #1
  00188	eb000000	 bl          OALBLMenuReadKey
  0018c	e59d0008	 ldr         r0, [sp, #8]
  00190	eb000000	 bl          __security_check_cookie

; 603  : }

  00194	e28dd00c	 add         sp, sp, #0xC
  00198	e8bd40f0	 ldmia       sp!, {r4 - r7, lr}
  0019c	e12fff1e	 bx          lr
  001a0		 |$LN24@ShowNetwor|
  001a0		 |$LN25@ShowNetwor|
  001a0	00000000	 DCD         |??_C@_1GE@BGIPLJDA@?$AA?5?$AA?5?$AAN?$AAo?$AAt?$AAe?$AA?3?$AA?5?$AAU?$AAS?$AAB?$AAF?$AAN?$AA?5?$AAR?$AAN?$AAD?$AAI?$AAS?$AA?5?$AAM?$AAA?$AAC?$AA?5?$AAA?$AAd?$AAd?$AAr?$AA?5?$AAc?$AAa?$AAn@|
  001a4		 |$LN26@ShowNetwor|
  001a4	00000000	 DCD         |??_C@_1BC@LGPIFEA@?$AAd?$AAi?$AAs?$AAa?$AAb?$AAl?$AAe?$AAd?$AA?$AA@|
  001a8		 |$LN27@ShowNetwor|
  001a8	00000000	 DCD         |??_C@_1CM@MBNEBDDK@?$AA?5?$AA?5?$AAV?$AAM?$AAI?$AAN?$AAI?$AA?3?$AA?5?$AA?5?$AA?5?$AA?5?$AA?5?$AA?5?$AA?5?$AA?5?$AA?5?$AA?$CF?$AAs?$AA?$AN?$AA?6?$AA?$AA@|
  001ac		 |$LN28@ShowNetwor|
  001ac	00000000	 DCD         |??_C@_1DG@LEIGGFEH@?$AA?5?$AA?5?$AAE?$AAt?$AAh?$AA?5?$AAM?$AAA?$AAC?$AA?5?$AAA?$AAd?$AAd?$AAr?$AA?3?$AA?5?$AA?5?$AA?$CF?$AAs?$AA?5?$AA?$CI?$AA?$CF?$AAs?$AA?$CJ?$AA?$AN?$AA?6?$AA?$AA@|
  001b0		 |$LN29@ShowNetwor|
  001b0	00000000	 DCD         |??_C@_1BM@HBILLBOB@?$AAB?$AAo?$AAo?$AAt?$AA?5?$AAs?$AAe?$AAt?$AAt?$AAi?$AAn?$AAg?$AAs?$AA?$AA@|
  001b4		 |$LN30@ShowNetwor|
  001b4	00000000	 DCD         |??_C@_1O@HKPJJFOO@?$AAE?$AAE?$AAP?$AAR?$AAO?$AAM?$AA?$AA@|
  001b8		 |$LN31@ShowNetwor|
  001b8	00000000	 DCD         |??_C@_1CM@IMEGPKBH@?$AA?5?$AA?5?$AAI?$AAP?$AA?5?$AAr?$AAo?$AAu?$AAt?$AAe?$AAr?$AA?3?$AA?5?$AA?5?$AA?5?$AA?5?$AA?5?$AA?$CF?$AAs?$AA?$AN?$AA?6?$AA?$AA@|
  001bc		 |$LN32@ShowNetwor|
  001bc	00000000	 DCD         |??_C@_1CM@MFPGPOHA@?$AA?5?$AA?5?$AAI?$AAP?$AA?5?$AAm?$AAa?$AAs?$AAk?$AA?3?$AA?5?$AA?5?$AA?5?$AA?5?$AA?5?$AA?5?$AA?5?$AA?$CF?$AAs?$AA?$AN?$AA?6?$AA?$AA@|
  001c0		 |$LN33@ShowNetwor|
  001c0	00000000	 DCD         |??_C@_1CM@PFJOPCHK@?$AA?5?$AA?5?$AAI?$AAP?$AA?5?$AAa?$AAd?$AAd?$AAr?$AAe?$AAs?$AAs?$AA?3?$AA?5?$AA?5?$AA?5?$AA?5?$AA?$CF?$AAs?$AA?$AN?$AA?6?$AA?$AA@|
  001c4		 |$LN34@ShowNetwor|
  001c4	00000000	 DCD         |??_C@_1CM@ENNBLIDC@?$AA?5?$AA?5?$AAD?$AAH?$AAC?$AAP?$AA?3?$AA?5?$AA?5?$AA?5?$AA?5?$AA?5?$AA?5?$AA?5?$AA?5?$AA?5?$AA?5?$AA?$CF?$AAs?$AA?$AN?$AA?6?$AA?$AA@|
  001c8		 |$LN35@ShowNetwor|
  001c8	00000000	 DCD         |??_C@_1BE@OLFPFCKI@?$AAi?$AAn?$AAt?$AAe?$AAr?$AAr?$AAu?$AAp?$AAt?$AA?$AA@|
  001cc		 |$LN36@ShowNetwor|
  001cc	00000000	 DCD         |??_C@_1O@DOAPGJLD@?$AAp?$AAo?$AAl?$AAl?$AAe?$AAd?$AA?$AA@|
  001d0		 |$LN37@ShowNetwor|
  001d0	00000000	 DCD         |??_C@_1CM@OEGKHNAF@?$AA?5?$AA?5?$AAK?$AAI?$AAT?$AAL?$AA?5?$AAm?$AAo?$AAd?$AAe?$AA?3?$AA?5?$AA?5?$AA?5?$AA?5?$AA?5?$AA?$CF?$AAs?$AA?$AN?$AA?6?$AA?$AA@|
  001d4		 |$LN38@ShowNetwor|
  001d4	00000000	 DCD         |??_C@_1O@IBNPCBAA@?$AAa?$AAc?$AAt?$AAi?$AAv?$AAe?$AA?$AA@|
  001d8		 |$LN39@ShowNetwor|
  001d8	00000000	 DCD         |??_C@_1BA@INHNFGAO@?$AAp?$AAa?$AAs?$AAs?$AAi?$AAv?$AAe?$AA?$AA@|
  001dc		 |$LN40@ShowNetwor|
  001dc	00000000	 DCD         |??_C@_1CM@OLFKODG@?$AA?5?$AA?5?$AAK?$AAI?$AAT?$AAL?$AA?5?$AAt?$AAy?$AAp?$AAe?$AA?3?$AA?5?$AA?5?$AA?5?$AA?5?$AA?5?$AA?$CF?$AAs?$AA?$AN?$AA?6?$AA?$AA@|
  001e0		 |$LN41@ShowNetwor|
  001e0	00000000	 DCD         |??_C@_1CM@KKLHLKH@?$AA?5?$AA?5?$AAK?$AAI?$AAT?$AAL?$AA?5?$AAs?$AAt?$AAa?$AAt?$AAe?$AA?3?$AA?5?$AA?5?$AA?5?$AA?5?$AA?$CF?$AAs?$AA?$AN?$AA?6?$AA?$AA@|
  001e4		 |$LN42@ShowNetwor|
  001e4	00000000	 DCD         |??_C@_1BA@BKMGIBPB@?$AAe?$AAn?$AAa?$AAb?$AAl?$AAe?$AAd?$AA?$AA@|
  001e8		 |$LN43@ShowNetwor|
  001e8	00000000	 DCD         |g_bootCfg|
  001ec		 |$LN44@ShowNetwor|
  001ec	00000000	 DCD         |??_C@_1BM@NCMLOBGF@?$AA?$AN?$AA?6?$AA?5?$AAN?$AAe?$AAt?$AAw?$AAo?$AAr?$AAk?$AA?3?$AA?$AN?$AA?6?$AA?$AA@|
  001f0		 |$LN45@ShowNetwor|
  001f0	00000000	 DCD         |__security_cookie|
  001f4		 |$M49317|

			 ENDP  ; |ShowNetworkSettings|

	EXPORT	|??_C@_1DG@GANBFOFA@?$AA?5?$AAK?$AAI?$AAT?$AAL?$AA?5?$AAs?$AAe?$AAt?$AA?5?$AAt?$AAo?$AA?5?$AAp?$AAo?$AAl?$AAl?$AAe?$AAd?$AA?5?$AAm?$AAo?$AAd?$AAe?$AA?$AN?$AA?6?$AA?$AA@| [ DATA ] ; `string'
	EXPORT	|??_C@_1DM@IPPCLHEI@?$AA?5?$AAK?$AAI?$AAT?$AAL?$AA?5?$AAs?$AAe?$AAt?$AA?5?$AAt?$AAo?$AA?5?$AAi?$AAn?$AAt?$AAe?$AAr?$AAr?$AAu?$AAp?$AAt?$AA?5?$AAm?$AAo?$AAd?$AAe?$AA?$AN?$AA?6?$AA?$AA@| [ DATA ] ; `string'
	EXPORT	|??_C@_19DIEGALPP@?$AA?$CF?$AAc?$AA?$AN?$AA?6?$AA?$AA@| [ DATA ] ; `string'
	EXPORT	|??_C@_1EC@JHPHMHOA@?$AA?5?$AAS?$AAe?$AAt?$AA?5?$AAK?$AAI?$AAT?$AAL?$AA?5?$AAt?$AAo?$AA?5?$AAp?$AAo?$AAl?$AAl?$AAe?$AAd?$AA?5?$AAm?$AAo?$AAd?$AAe?$AA?5?$AA?$FL?$AAy?$AA?1?$AA?9?$AA?$FN?$AA?3?$AA?5@| [ DATA ] ; `string'
	EXPORT	|??_C@_1EI@CAADENIK@?$AA?5?$AAS?$AAe?$AAt?$AA?5?$AAK?$AAI?$AAT?$AAL?$AA?5?$AAt?$AAo?$AA?5?$AAi?$AAn?$AAt?$AAe?$AAr?$AAr?$AAu?$AAp?$AAt?$AA?5?$AAm?$AAo?$AAd?$AAe?$AA?5?$AA?$FL?$AAy?$AA?1?$AA?9@| [ DATA ] ; `string'

  00000			 AREA	 |.pdata|, PDATA
|$T49352| DCD	|$LN13@SetKitlMod|
	DCD	0x40002201

  00000			 AREA	 |.rdata|, DATA, READONLY
|??_C@_1DG@GANBFOFA@?$AA?5?$AAK?$AAI?$AAT?$AAL?$AA?5?$AAs?$AAe?$AAt?$AA?5?$AAt?$AAo?$AA?5?$AAp?$AAo?$AAl?$AAl?$AAe?$AAd?$AA?5?$AAm?$AAo?$AAd?$AAe?$AA?$AN?$AA?6?$AA?$AA@| DCB " "
	DCB	0x0, "K", 0x0, "I", 0x0, "T", 0x0, "L", 0x0, " ", 0x0, "s"
	DCB	0x0, "e", 0x0, "t", 0x0, " ", 0x0, "t", 0x0, "o", 0x0, " "
	DCB	0x0, "p", 0x0, "o", 0x0, "l", 0x0, "l", 0x0, "e", 0x0, "d"
	DCB	0x0, " ", 0x0, "m", 0x0, "o", 0x0, "d", 0x0, "e", 0x0, 0xd
	DCB	0x0, 0xa, 0x0, 0x0, 0x0			; `string'

  00000			 AREA	 |.rdata|, DATA, READONLY
|??_C@_1DM@IPPCLHEI@?$AA?5?$AAK?$AAI?$AAT?$AAL?$AA?5?$AAs?$AAe?$AAt?$AA?5?$AAt?$AAo?$AA?5?$AAi?$AAn?$AAt?$AAe?$AAr?$AAr?$AAu?$AAp?$AAt?$AA?5?$AAm?$AAo?$AAd?$AAe?$AA?$AN?$AA?6?$AA?$AA@| DCB " "
	DCB	0x0, "K", 0x0, "I", 0x0, "T", 0x0, "L", 0x0, " ", 0x0, "s"
	DCB	0x0, "e", 0x0, "t", 0x0, " ", 0x0, "t", 0x0, "o", 0x0, " "
	DCB	0x0, "i", 0x0, "n", 0x0, "t", 0x0, "e", 0x0, "r", 0x0, "r"
	DCB	0x0, "u", 0x0, "p", 0x0, "t", 0x0, " ", 0x0, "m", 0x0, "o"
	DCB	0x0, "d", 0x0, "e", 0x0, 0xd, 0x0, 0xa, 0x0, 0x0, 0x0 ; `string'

  00000			 AREA	 |.rdata|, DATA, READONLY
|??_C@_19DIEGALPP@?$AA?$CF?$AAc?$AA?$AN?$AA?6?$AA?$AA@| DCB "%", 0x0, "c", 0x0
	DCB	0xd, 0x0, 0xa, 0x0, 0x0, 0x0		; `string'

  00000			 AREA	 |.rdata|, DATA, READONLY
|??_C@_1EC@JHPHMHOA@?$AA?5?$AAS?$AAe?$AAt?$AA?5?$AAK?$AAI?$AAT?$AAL?$AA?5?$AAt?$AAo?$AA?5?$AAp?$AAo?$AAl?$AAl?$AAe?$AAd?$AA?5?$AAm?$AAo?$AAd?$AAe?$AA?5?$AA?$FL?$AAy?$AA?1?$AA?9?$AA?$FN?$AA?3?$AA?5@| DCB " "
	DCB	0x0, "S", 0x0, "e", 0x0, "t", 0x0, " ", 0x0, "K", 0x0, "I"
	DCB	0x0, "T", 0x0, "L", 0x0, " ", 0x0, "t", 0x0, "o", 0x0, " "
	DCB	0x0, "p", 0x0, "o", 0x0, "l", 0x0, "l", 0x0, "e", 0x0, "d"
	DCB	0x0, " ", 0x0, "m", 0x0, "o", 0x0, "d", 0x0, "e", 0x0, " "
	DCB	0x0, "[", 0x0, "y", 0x0, "/", 0x0, "-", 0x0, "]", 0x0, ":"
	DCB	0x0, " ", 0x0, 0x0, 0x0			; `string'

  00000			 AREA	 |.rdata|, DATA, READONLY
|??_C@_1EI@CAADENIK@?$AA?5?$AAS?$AAe?$AAt?$AA?5?$AAK?$AAI?$AAT?$AAL?$AA?5?$AAt?$AAo?$AA?5?$AAi?$AAn?$AAt?$AAe?$AAr?$AAr?$AAu?$AAp?$AAt?$AA?5?$AAm?$AAo?$AAd?$AAe?$AA?5?$AA?$FL?$AAy?$AA?1?$AA?9@| DCB " "
	DCB	0x0, "S", 0x0, "e", 0x0, "t", 0x0, " ", 0x0, "K", 0x0, "I"
	DCB	0x0, "T", 0x0, "L", 0x0, " ", 0x0, "t", 0x0, "o", 0x0, " "
	DCB	0x0, "i", 0x0, "n", 0x0, "t", 0x0, "e", 0x0, "r", 0x0, "r"
	DCB	0x0, "u", 0x0, "p", 0x0, "t", 0x0, " ", 0x0, "m", 0x0, "o"
	DCB	0x0, "d", 0x0, "e", 0x0, " ", 0x0, "[", 0x0, "y", 0x0, "/"
	DCB	0x0, "-", 0x0, "]", 0x0, ":", 0x0, " ", 0x0, 0x0, 0x0 ; `string'
; Function compile flags: /Ogspy

  00000			 AREA	 |.text|, CODE, ARM

  00000		 |SetKitlMode| PROC

; 608  : {

  00000		 |$LN13@SetKitlMod|
  00000	e92d4030	 stmdb       sp!, {r4, r5, lr}
  00004		 |$M49349|

; 609  :     WCHAR key;
; 610  :     UNREFERENCED_PARAMETER(pMenu);
; 611  : 
; 612  :     if ((g_bootCfg.kitlFlags & OAL_KITL_FLAGS_POLL) != 0) {

  00004	e59f4078	 ldr         r4, [pc, #0x78]
  00008	e5943030	 ldr         r3, [r4, #0x30]
  0000c	e3130010	 tst         r3, #0x10

; 613  :         OALLog(L" Set KITL to interrupt mode [y/-]: ");

  00010	159f0068	 ldrne       r0, [pc, #0x68]

; 614  :     } else {
; 615  :         OALLog(L" Set KITL to polled mode [y/-]: ");

  00014	059f0060	 ldreq       r0, [pc, #0x60]
  00018	eb000000	 bl          NKDbgPrintfW

; 616  :     }    
; 617  : 
; 618  :     // Get key
; 619  :     key = OALBLMenuReadKey(TRUE);

  0001c	e3a00001	 mov         r0, #1
  00020	eb000000	 bl          OALBLMenuReadKey
  00024	e1a05800	 mov         r5, r0, lsl #16

; 620  :     OALLog(L"%c\r\n", key);

  00028	e59f0048	 ldr         r0, [pc, #0x48]
  0002c	e1a05825	 mov         r5, r5, lsr #16
  00030	e1a01005	 mov         r1, r5
  00034	eb000000	 bl          NKDbgPrintfW

; 621  : 
; 622  :     if (key == L'y' || key == L'Y') {

  00038	e3550079	 cmp         r5, #0x79
  0003c	0a000001	 beq         |$LN3@SetKitlMod|
  00040	e3550059	 cmp         r5, #0x59
  00044	1a000007	 bne         |$LN1@SetKitlMod|
  00048		 |$LN3@SetKitlMod|

; 623  :         if ((g_bootCfg.kitlFlags & OAL_KITL_FLAGS_POLL) != 0) {

  00048	e5943030	 ldr         r3, [r4, #0x30]
  0004c	e3130010	 tst         r3, #0x10

; 624  :             g_bootCfg.kitlFlags &= ~OAL_KITL_FLAGS_POLL;
; 625  :             OALLog(L" KITL set to interrupt mode\r\n");

  00050	159f001c	 ldrne       r0, [pc, #0x1C]

; 626  :         } else {
; 627  :             g_bootCfg.kitlFlags |= OAL_KITL_FLAGS_POLL;
; 628  :             OALLog(L" KITL set to polled mode\r\n");

  00054	059f0014	 ldreq       r0, [pc, #0x14]
  00058	13c33010	 bicne       r3, r3, #0x10
  0005c	03833010	 orreq       r3, r3, #0x10
  00060	e5843030	 str         r3, [r4, #0x30]
  00064	eb000000	 bl          NKDbgPrintfW
  00068		 |$LN1@SetKitlMod|

; 629  :         }            
; 630  :     }
; 631  : }

  00068	e8bd4030	 ldmia       sp!, {r4, r5, lr}
  0006c	e12fff1e	 bx          lr
  00070		 |$LN14@SetKitlMod|
  00070		 |$LN15@SetKitlMod|
  00070	00000000	 DCD         |??_C@_1DG@GANBFOFA@?$AA?5?$AAK?$AAI?$AAT?$AAL?$AA?5?$AAs?$AAe?$AAt?$AA?5?$AAt?$AAo?$AA?5?$AAp?$AAo?$AAl?$AAl?$AAe?$AAd?$AA?5?$AAm?$AAo?$AAd?$AAe?$AA?$AN?$AA?6?$AA?$AA@|
  00074		 |$LN16@SetKitlMod|
  00074	00000000	 DCD         |??_C@_1DM@IPPCLHEI@?$AA?5?$AAK?$AAI?$AAT?$AAL?$AA?5?$AAs?$AAe?$AAt?$AA?5?$AAt?$AAo?$AA?5?$AAi?$AAn?$AAt?$AAe?$AAr?$AAr?$AAu?$AAp?$AAt?$AA?5?$AAm?$AAo?$AAd?$AAe?$AA?$AN?$AA?6?$AA?$AA@|
  00078		 |$LN17@SetKitlMod|
  00078	00000000	 DCD         |??_C@_19DIEGALPP@?$AA?$CF?$AAc?$AA?$AN?$AA?6?$AA?$AA@|
  0007c		 |$LN18@SetKitlMod|
  0007c	00000000	 DCD         |??_C@_1EC@JHPHMHOA@?$AA?5?$AAS?$AAe?$AAt?$AA?5?$AAK?$AAI?$AAT?$AAL?$AA?5?$AAt?$AAo?$AA?5?$AAp?$AAo?$AAl?$AAl?$AAe?$AAd?$AA?5?$AAm?$AAo?$AAd?$AAe?$AA?5?$AA?$FL?$AAy?$AA?1?$AA?9?$AA?$FN?$AA?3?$AA?5@|
  00080		 |$LN19@SetKitlMod|
  00080	00000000	 DCD         |??_C@_1EI@CAADENIK@?$AA?5?$AAS?$AAe?$AAt?$AA?5?$AAK?$AAI?$AAT?$AAL?$AA?5?$AAt?$AAo?$AA?5?$AAi?$AAn?$AAt?$AAe?$AAr?$AAr?$AAu?$AAp?$AAt?$AA?5?$AAm?$AAo?$AAd?$AAe?$AA?5?$AA?$FL?$AAy?$AA?1?$AA?9@|
  00084		 |$LN20@SetKitlMod|
  00084	00000000	 DCD         |g_bootCfg|
  00088		 |$M49350|

			 ENDP  ; |SetKitlMode|

	EXPORT	|??_C@_1DI@DNJMHDAE@?$AA?5?$AAK?$AAI?$AAT?$AAL?$AA?5?$AAs?$AAe?$AAt?$AA?5?$AAt?$AAo?$AA?5?$AAp?$AAa?$AAs?$AAs?$AAi?$AAv?$AAe?$AA?5?$AAm?$AAo?$AAd?$AAe?$AA?$AN?$AA?6?$AA?$AA@| [ DATA ] ; `string'
	EXPORT	|??_C@_1DG@EDFECNLC@?$AA?5?$AAK?$AAI?$AAT?$AAL?$AA?5?$AAs?$AAe?$AAt?$AA?5?$AAt?$AAo?$AA?5?$AAa?$AAc?$AAt?$AAi?$AAv?$AAe?$AA?5?$AAm?$AAo?$AAd?$AAe?$AA?$AN?$AA?6?$AA?$AA@| [ DATA ] ; `string'
	EXPORT	|??_C@_1EE@HIABIPBL@?$AA?5?$AAS?$AAe?$AAt?$AA?5?$AAK?$AAI?$AAT?$AAL?$AA?5?$AAt?$AAo?$AA?5?$AAp?$AAa?$AAs?$AAs?$AAi?$AAv?$AAe?$AA?5?$AAm?$AAo?$AAd?$AAe?$AA?5?$AA?$FL?$AAy?$AA?1?$AA?9?$AA?$FN?$AA?3@| [ DATA ] ; `string'
	EXPORT	|??_C@_1EC@OPMJBCEG@?$AA?5?$AAS?$AAe?$AAt?$AA?5?$AAK?$AAI?$AAT?$AAL?$AA?5?$AAt?$AAo?$AA?5?$AAa?$AAc?$AAt?$AAi?$AAv?$AAe?$AA?5?$AAm?$AAo?$AAd?$AAe?$AA?5?$AA?$FL?$AAy?$AA?1?$AA?9?$AA?$FN?$AA?3?$AA?5@| [ DATA ] ; `string'

  00000			 AREA	 |.pdata|, PDATA
|$T49369| DCD	|$LN13@SetKitlTyp|
	DCD	0x40002201

  00000			 AREA	 |.rdata|, DATA, READONLY
|??_C@_1DI@DNJMHDAE@?$AA?5?$AAK?$AAI?$AAT?$AAL?$AA?5?$AAs?$AAe?$AAt?$AA?5?$AAt?$AAo?$AA?5?$AAp?$AAa?$AAs?$AAs?$AAi?$AAv?$AAe?$AA?5?$AAm?$AAo?$AAd?$AAe?$AA?$AN?$AA?6?$AA?$AA@| DCB " "
	DCB	0x0, "K", 0x0, "I", 0x0, "T", 0x0, "L", 0x0, " ", 0x0, "s"
	DCB	0x0, "e", 0x0, "t", 0x0, " ", 0x0, "t", 0x0, "o", 0x0, " "
	DCB	0x0, "p", 0x0, "a", 0x0, "s", 0x0, "s", 0x0, "i", 0x0, "v"
	DCB	0x0, "e", 0x0, " ", 0x0, "m", 0x0, "o", 0x0, "d", 0x0, "e"
	DCB	0x0, 0xd, 0x0, 0xa, 0x0, 0x0, 0x0	; `string'

  00000			 AREA	 |.rdata|, DATA, READONLY
|??_C@_1DG@EDFECNLC@?$AA?5?$AAK?$AAI?$AAT?$AAL?$AA?5?$AAs?$AAe?$AAt?$AA?5?$AAt?$AAo?$AA?5?$AAa?$AAc?$AAt?$AAi?$AAv?$AAe?$AA?5?$AAm?$AAo?$AAd?$AAe?$AA?$AN?$AA?6?$AA?$AA@| DCB " "
	DCB	0x0, "K", 0x0, "I", 0x0, "T", 0x0, "L", 0x0, " ", 0x0, "s"
	DCB	0x0, "e", 0x0, "t", 0x0, " ", 0x0, "t", 0x0, "o", 0x0, " "
	DCB	0x0, "a", 0x0, "c", 0x0, "t", 0x0, "i", 0x0, "v", 0x0, "e"
	DCB	0x0, " ", 0x0, "m", 0x0, "o", 0x0, "d", 0x0, "e", 0x0, 0xd
	DCB	0x0, 0xa, 0x0, 0x0, 0x0			; `string'

  00000			 AREA	 |.rdata|, DATA, READONLY
|??_C@_1EE@HIABIPBL@?$AA?5?$AAS?$AAe?$AAt?$AA?5?$AAK?$AAI?$AAT?$AAL?$AA?5?$AAt?$AAo?$AA?5?$AAp?$AAa?$AAs?$AAs?$AAi?$AAv?$AAe?$AA?5?$AAm?$AAo?$AAd?$AAe?$AA?5?$AA?$FL?$AAy?$AA?1?$AA?9?$AA?$FN?$AA?3@| DCB " "
	DCB	0x0, "S", 0x0, "e", 0x0, "t", 0x0, " ", 0x0, "K", 0x0, "I"
	DCB	0x0, "T", 0x0, "L", 0x0, " ", 0x0, "t", 0x0, "o", 0x0, " "
	DCB	0x0, "p", 0x0, "a", 0x0, "s", 0x0, "s", 0x0, "i", 0x0, "v"
	DCB	0x0, "e", 0x0, " ", 0x0, "m", 0x0, "o", 0x0, "d", 0x0, "e"
	DCB	0x0, " ", 0x0, "[", 0x0, "y", 0x0, "/", 0x0, "-", 0x0, "]"
	DCB	0x0, ":", 0x0, " ", 0x0, 0x0, 0x0	; `string'

  00000			 AREA	 |.rdata|, DATA, READONLY
|??_C@_1EC@OPMJBCEG@?$AA?5?$AAS?$AAe?$AAt?$AA?5?$AAK?$AAI?$AAT?$AAL?$AA?5?$AAt?$AAo?$AA?5?$AAa?$AAc?$AAt?$AAi?$AAv?$AAe?$AA?5?$AAm?$AAo?$AAd?$AAe?$AA?5?$AA?$FL?$AAy?$AA?1?$AA?9?$AA?$FN?$AA?3?$AA?5@| DCB " "
	DCB	0x0, "S", 0x0, "e", 0x0, "t", 0x0, " ", 0x0, "K", 0x0, "I"
	DCB	0x0, "T", 0x0, "L", 0x0, " ", 0x0, "t", 0x0, "o", 0x0, " "
	DCB	0x0, "a", 0x0, "c", 0x0, "t", 0x0, "i", 0x0, "v", 0x0, "e"
	DCB	0x0, " ", 0x0, "m", 0x0, "o", 0x0, "d", 0x0, "e", 0x0, " "
	DCB	0x0, "[", 0x0, "y", 0x0, "/", 0x0, "-", 0x0, "]", 0x0, ":"
	DCB	0x0, " ", 0x0, 0x0, 0x0			; `string'
; Function compile flags: /Ogspy

  00000			 AREA	 |.text|, CODE, ARM

  00000		 |SetKitlType| PROC

; 636  : {

  00000		 |$LN13@SetKitlTyp|
  00000	e92d4030	 stmdb       sp!, {r4, r5, lr}
  00004		 |$M49366|

; 637  :     WCHAR key;
; 638  :     UNREFERENCED_PARAMETER(pMenu);
; 639  : 
; 640  :     if ((g_bootCfg.kitlFlags & OAL_KITL_FLAGS_PASSIVE) != 0) 

  00004	e59f4078	 ldr         r4, [pc, #0x78]
  00008	e5943030	 ldr         r3, [r4, #0x30]
  0000c	e3130002	 tst         r3, #2

; 641  :         {
; 642  :         OALLog(L" Set KITL to active mode [y/-]: ");

  00010	159f0068	 ldrne       r0, [pc, #0x68]

; 643  :         } 
; 644  :    else 
; 645  :         {
; 646  :         OALLog(L" Set KITL to passive mode [y/-]: ");

  00014	059f0060	 ldreq       r0, [pc, #0x60]
  00018	eb000000	 bl          NKDbgPrintfW

; 647  :         }    
; 648  : 
; 649  :     // Get key
; 650  :     key = OALBLMenuReadKey(TRUE);

  0001c	e3a00001	 mov         r0, #1
  00020	eb000000	 bl          OALBLMenuReadKey
  00024	e1a05800	 mov         r5, r0, lsl #16

; 651  :     OALLog(L"%c\r\n", key);

  00028	e59f0048	 ldr         r0, [pc, #0x48]
  0002c	e1a05825	 mov         r5, r5, lsr #16
  00030	e1a01005	 mov         r1, r5
  00034	eb000000	 bl          NKDbgPrintfW

; 652  : 
; 653  :     if (key == L'y' || key == L'Y') 

  00038	e3550079	 cmp         r5, #0x79
  0003c	0a000001	 beq         |$LN3@SetKitlTyp|
  00040	e3550059	 cmp         r5, #0x59
  00044	1a000007	 bne         |$LN1@SetKitlTyp|
  00048		 |$LN3@SetKitlTyp|

; 654  :         {
; 655  :         if ((g_bootCfg.kitlFlags & OAL_KITL_FLAGS_PASSIVE) != 0) 

  00048	e5943030	 ldr         r3, [r4, #0x30]
  0004c	e3130002	 tst         r3, #2

; 656  :             {
; 657  :             g_bootCfg.kitlFlags &= ~OAL_KITL_FLAGS_PASSIVE;
; 658  :             OALLog(L" KITL set to active mode\r\n");

  00050	159f001c	 ldrne       r0, [pc, #0x1C]

; 659  :             }
; 660  :         else 
; 661  :             {
; 662  :             g_bootCfg.kitlFlags |= OAL_KITL_FLAGS_PASSIVE;
; 663  :             OALLog(L" KITL set to passive mode\r\n");

  00054	059f0014	 ldreq       r0, [pc, #0x14]
  00058	13c33002	 bicne       r3, r3, #2
  0005c	03833002	 orreq       r3, r3, #2
  00060	e5843030	 str         r3, [r4, #0x30]
  00064	eb000000	 bl          NKDbgPrintfW
  00068		 |$LN1@SetKitlTyp|

; 664  :             }            
; 665  :         }
; 666  : }

  00068	e8bd4030	 ldmia       sp!, {r4, r5, lr}
  0006c	e12fff1e	 bx          lr
  00070		 |$LN14@SetKitlTyp|
  00070		 |$LN15@SetKitlTyp|
  00070	00000000	 DCD         |??_C@_1DI@DNJMHDAE@?$AA?5?$AAK?$AAI?$AAT?$AAL?$AA?5?$AAs?$AAe?$AAt?$AA?5?$AAt?$AAo?$AA?5?$AAp?$AAa?$AAs?$AAs?$AAi?$AAv?$AAe?$AA?5?$AAm?$AAo?$AAd?$AAe?$AA?$AN?$AA?6?$AA?$AA@|
  00074		 |$LN16@SetKitlTyp|
  00074	00000000	 DCD         |??_C@_1DG@EDFECNLC@?$AA?5?$AAK?$AAI?$AAT?$AAL?$AA?5?$AAs?$AAe?$AAt?$AA?5?$AAt?$AAo?$AA?5?$AAa?$AAc?$AAt?$AAi?$AAv?$AAe?$AA?5?$AAm?$AAo?$AAd?$AAe?$AA?$AN?$AA?6?$AA?$AA@|
  00078		 |$LN17@SetKitlTyp|
  00078	00000000	 DCD         |??_C@_19DIEGALPP@?$AA?$CF?$AAc?$AA?$AN?$AA?6?$AA?$AA@|
  0007c		 |$LN18@SetKitlTyp|
  0007c	00000000	 DCD         |??_C@_1EE@HIABIPBL@?$AA?5?$AAS?$AAe?$AAt?$AA?5?$AAK?$AAI?$AAT?$AAL?$AA?5?$AAt?$AAo?$AA?5?$AAp?$AAa?$AAs?$AAs?$AAi?$AAv?$AAe?$AA?5?$AAm?$AAo?$AAd?$AAe?$AA?5?$AA?$FL?$AAy?$AA?1?$AA?9?$AA?$FN?$AA?3@|
  00080		 |$LN19@SetKitlTyp|
  00080	00000000	 DCD         |??_C@_1EC@OPMJBCEG@?$AA?5?$AAS?$AAe?$AAt?$AA?5?$AAK?$AAI?$AAT?$AAL?$AA?5?$AAt?$AAo?$AA?5?$AAa?$AAc?$AAt?$AAi?$AAv?$AAe?$AA?5?$AAm?$AAo?$AAd?$AAe?$AA?5?$AA?$FL?$AAy?$AA?1?$AA?9?$AA?$FN?$AA?3?$AA?5@|
  00084		 |$LN20@SetKitlTyp|
  00084	00000000	 DCD         |g_bootCfg|
  00088		 |$M49367|

			 ENDP  ; |SetKitlType|

	EXPORT	|??_C@_1DO@IPDMADGH@?$AA?5?$AAO?$AAA?$AAL?$AA?5?$AAR?$AAe?$AAt?$AAa?$AAi?$AAl?$AA?5?$AAM?$AAe?$AAs?$AAs?$AAa?$AAg?$AAe?$AAs?$AA?5?$AAe?$AAn?$AAa?$AAb?$AAl?$AAe?$AAd?$AA?$AN?$AA?6?$AA?$AA@| [ DATA ] ; `string'
	EXPORT	|??_C@_1EA@EDIKANLP@?$AA?5?$AAO?$AAA?$AAL?$AA?5?$AAR?$AAe?$AAt?$AAa?$AAi?$AAl?$AA?5?$AAM?$AAe?$AAs?$AAs?$AAa?$AAg?$AAe?$AAs?$AA?5?$AAd?$AAi?$AAs?$AAa?$AAb?$AAl?$AAe?$AAd?$AA?$AN?$AA?6?$AA?$AA@| [ DATA ] ; `string'
	EXPORT	|??_C@_1EI@IEOEJKJK@?$AA?5?$AAE?$AAn?$AAa?$AAb?$AAl?$AAe?$AA?5?$AAO?$AAA?$AAL?$AA?5?$AAR?$AAe?$AAt?$AAa?$AAi?$AAl?$AA?5?$AAM?$AAe?$AAs?$AAs?$AAa?$AAg?$AAe?$AAs?$AA?5?$AA?$FL?$AAy?$AA?1?$AA?9@| [ DATA ] ; `string'
	EXPORT	|??_C@_1EK@NMKAIECH@?$AA?5?$AAD?$AAi?$AAs?$AAa?$AAb?$AAl?$AAe?$AA?5?$AAO?$AAA?$AAL?$AA?5?$AAR?$AAe?$AAt?$AAa?$AAi?$AAl?$AA?5?$AAM?$AAe?$AAs?$AAs?$AAa?$AAg?$AAe?$AAs?$AA?5?$AA?$FL?$AAy?$AA?1@| [ DATA ] ; `string'

  00000			 AREA	 |.pdata|, PDATA
|$T49386| DCD	|$LN13@SetRetailM|
	DCD	0x40002201

  00000			 AREA	 |.rdata|, DATA, READONLY
|??_C@_1DO@IPDMADGH@?$AA?5?$AAO?$AAA?$AAL?$AA?5?$AAR?$AAe?$AAt?$AAa?$AAi?$AAl?$AA?5?$AAM?$AAe?$AAs?$AAs?$AAa?$AAg?$AAe?$AAs?$AA?5?$AAe?$AAn?$AAa?$AAb?$AAl?$AAe?$AAd?$AA?$AN?$AA?6?$AA?$AA@| DCB " "
	DCB	0x0, "O", 0x0, "A", 0x0, "L", 0x0, " ", 0x0, "R", 0x0, "e"
	DCB	0x0, "t", 0x0, "a", 0x0, "i", 0x0, "l", 0x0, " ", 0x0, "M"
	DCB	0x0, "e", 0x0, "s", 0x0, "s", 0x0, "a", 0x0, "g", 0x0, "e"
	DCB	0x0, "s", 0x0, " ", 0x0, "e", 0x0, "n", 0x0, "a", 0x0, "b"
	DCB	0x0, "l", 0x0, "e", 0x0, "d", 0x0, 0xd, 0x0, 0xa, 0x0, 0x0
	DCB	0x0					; `string'

  00000			 AREA	 |.rdata|, DATA, READONLY
|??_C@_1EA@EDIKANLP@?$AA?5?$AAO?$AAA?$AAL?$AA?5?$AAR?$AAe?$AAt?$AAa?$AAi?$AAl?$AA?5?$AAM?$AAe?$AAs?$AAs?$AAa?$AAg?$AAe?$AAs?$AA?5?$AAd?$AAi?$AAs?$AAa?$AAb?$AAl?$AAe?$AAd?$AA?$AN?$AA?6?$AA?$AA@| DCB " "
	DCB	0x0, "O", 0x0, "A", 0x0, "L", 0x0, " ", 0x0, "R", 0x0, "e"
	DCB	0x0, "t", 0x0, "a", 0x0, "i", 0x0, "l", 0x0, " ", 0x0, "M"
	DCB	0x0, "e", 0x0, "s", 0x0, "s", 0x0, "a", 0x0, "g", 0x0, "e"
	DCB	0x0, "s", 0x0, " ", 0x0, "d", 0x0, "i", 0x0, "s", 0x0, "a"
	DCB	0x0, "b", 0x0, "l", 0x0, "e", 0x0, "d", 0x0, 0xd, 0x0, 0xa
	DCB	0x0, 0x0, 0x0				; `string'

  00000			 AREA	 |.rdata|, DATA, READONLY
|??_C@_1EI@IEOEJKJK@?$AA?5?$AAE?$AAn?$AAa?$AAb?$AAl?$AAe?$AA?5?$AAO?$AAA?$AAL?$AA?5?$AAR?$AAe?$AAt?$AAa?$AAi?$AAl?$AA?5?$AAM?$AAe?$AAs?$AAs?$AAa?$AAg?$AAe?$AAs?$AA?5?$AA?$FL?$AAy?$AA?1?$AA?9@| DCB " "
	DCB	0x0, "E", 0x0, "n", 0x0, "a", 0x0, "b", 0x0, "l", 0x0, "e"
	DCB	0x0, " ", 0x0, "O", 0x0, "A", 0x0, "L", 0x0, " ", 0x0, "R"
	DCB	0x0, "e", 0x0, "t", 0x0, "a", 0x0, "i", 0x0, "l", 0x0, " "
	DCB	0x0, "M", 0x0, "e", 0x0, "s", 0x0, "s", 0x0, "a", 0x0, "g"
	DCB	0x0, "e", 0x0, "s", 0x0, " ", 0x0, "[", 0x0, "y", 0x0, "/"
	DCB	0x0, "-", 0x0, "]", 0x0, ":", 0x0, " ", 0x0, 0x0, 0x0 ; `string'

  00000			 AREA	 |.rdata|, DATA, READONLY
|??_C@_1EK@NMKAIECH@?$AA?5?$AAD?$AAi?$AAs?$AAa?$AAb?$AAl?$AAe?$AA?5?$AAO?$AAA?$AAL?$AA?5?$AAR?$AAe?$AAt?$AAa?$AAi?$AAl?$AA?5?$AAM?$AAe?$AAs?$AAs?$AAa?$AAg?$AAe?$AAs?$AA?5?$AA?$FL?$AAy?$AA?1@| DCB " "
	DCB	0x0, "D", 0x0, "i", 0x0, "s", 0x0, "a", 0x0, "b", 0x0, "l"
	DCB	0x0, "e", 0x0, " ", 0x0, "O", 0x0, "A", 0x0, "L", 0x0, " "
	DCB	0x0, "R", 0x0, "e", 0x0, "t", 0x0, "a", 0x0, "i", 0x0, "l"
	DCB	0x0, " ", 0x0, "M", 0x0, "e", 0x0, "s", 0x0, "s", 0x0, "a"
	DCB	0x0, "g", 0x0, "e", 0x0, "s", 0x0, " ", 0x0, "[", 0x0, "y"
	DCB	0x0, "/", 0x0, "-", 0x0, "]", 0x0, ":", 0x0, " ", 0x0, 0x0
	DCB	0x0					; `string'
; Function compile flags: /Ogspy

  00000			 AREA	 |.text|, CODE, ARM

  00000		 |SetRetailMsgMode| PROC

; 696  : {

  00000		 |$LN13@SetRetailM|
  00000	e92d4030	 stmdb       sp!, {r4, r5, lr}
  00004		 |$M49383|

; 697  :     WCHAR key;
; 698  : 
; 699  :     UNREFERENCED_PARAMETER(pMenu);
; 700  : 
; 701  :     if (g_bootCfg.oalFlags & BOOT_CFG_OAL_FLAGS_RETAILMSG_ENABLE) {

  00004	e59f4078	 ldr         r4, [pc, #0x78]
  00008	e5943034	 ldr         r3, [r4, #0x34]
  0000c	e3130001	 tst         r3, #1

; 702  :         OALLog(L" Disable OAL Retail Messages [y/-]: ");

  00010	159f0068	 ldrne       r0, [pc, #0x68]

; 703  :     } else {
; 704  :         OALLog(L" Enable OAL Retail Messages [y/-]: ");

  00014	059f0060	 ldreq       r0, [pc, #0x60]
  00018	eb000000	 bl          NKDbgPrintfW

; 705  :     }    
; 706  : 
; 707  :     // Get key
; 708  :     key = OALBLMenuReadKey(TRUE);

  0001c	e3a00001	 mov         r0, #1
  00020	eb000000	 bl          OALBLMenuReadKey
  00024	e1a05800	 mov         r5, r0, lsl #16

; 709  :     OALLog(L"%c\r\n", key);

  00028	e59f0048	 ldr         r0, [pc, #0x48]
  0002c	e1a05825	 mov         r5, r5, lsr #16
  00030	e1a01005	 mov         r1, r5
  00034	eb000000	 bl          NKDbgPrintfW

; 710  : 
; 711  :     if (key == L'y' || key == L'Y') {

  00038	e3550079	 cmp         r5, #0x79
  0003c	0a000001	 beq         |$LN3@SetRetailM|
  00040	e3550059	 cmp         r5, #0x59
  00044	1a000007	 bne         |$LN1@SetRetailM|
  00048		 |$LN3@SetRetailM|

; 712  :         if (g_bootCfg.oalFlags & BOOT_CFG_OAL_FLAGS_RETAILMSG_ENABLE) 

  00048	e5943034	 ldr         r3, [r4, #0x34]
  0004c	e3130001	 tst         r3, #1

; 713  : 		{
; 714  :             g_bootCfg.oalFlags &= ~BOOT_CFG_OAL_FLAGS_RETAILMSG_ENABLE;
; 715  :             OALLog(L" OAL Retail Messages disabled\r\n");

  00050	159f001c	 ldrne       r0, [pc, #0x1C]

; 716  :         }
; 717  : 		else 
; 718  : 		{
; 719  :             g_bootCfg.oalFlags |= BOOT_CFG_OAL_FLAGS_RETAILMSG_ENABLE;
; 720  :             OALLog(L" OAL Retail Messages enabled\r\n");

  00054	059f0014	 ldreq       r0, [pc, #0x14]
  00058	13c33001	 bicne       r3, r3, #1
  0005c	03833001	 orreq       r3, r3, #1
  00060	e5843034	 str         r3, [r4, #0x34]
  00064	eb000000	 bl          NKDbgPrintfW
  00068		 |$LN1@SetRetailM|

; 721  :         }    
; 722  :     }
; 723  : }

  00068	e8bd4030	 ldmia       sp!, {r4, r5, lr}
  0006c	e12fff1e	 bx          lr
  00070		 |$LN14@SetRetailM|
  00070		 |$LN15@SetRetailM|
  00070	00000000	 DCD         |??_C@_1DO@IPDMADGH@?$AA?5?$AAO?$AAA?$AAL?$AA?5?$AAR?$AAe?$AAt?$AAa?$AAi?$AAl?$AA?5?$AAM?$AAe?$AAs?$AAs?$AAa?$AAg?$AAe?$AAs?$AA?5?$AAe?$AAn?$AAa?$AAb?$AAl?$AAe?$AAd?$AA?$AN?$AA?6?$AA?$AA@|
  00074		 |$LN16@SetRetailM|
  00074	00000000	 DCD         |??_C@_1EA@EDIKANLP@?$AA?5?$AAO?$AAA?$AAL?$AA?5?$AAR?$AAe?$AAt?$AAa?$AAi?$AAl?$AA?5?$AAM?$AAe?$AAs?$AAs?$AAa?$AAg?$AAe?$AAs?$AA?5?$AAd?$AAi?$AAs?$AAa?$AAb?$AAl?$AAe?$AAd?$AA?$AN?$AA?6?$AA?$AA@|
  00078		 |$LN17@SetRetailM|
  00078	00000000	 DCD         |??_C@_19DIEGALPP@?$AA?$CF?$AAc?$AA?$AN?$AA?6?$AA?$AA@|
  0007c		 |$LN18@SetRetailM|
  0007c	00000000	 DCD         |??_C@_1EI@IEOEJKJK@?$AA?5?$AAE?$AAn?$AAa?$AAb?$AAl?$AAe?$AA?5?$AAO?$AAA?$AAL?$AA?5?$AAR?$AAe?$AAt?$AAa?$AAi?$AAl?$AA?5?$AAM?$AAe?$AAs?$AAs?$AAa?$AAg?$AAe?$AAs?$AA?5?$AA?$FL?$AAy?$AA?1?$AA?9@|
  00080		 |$LN19@SetRetailM|
  00080	00000000	 DCD         |??_C@_1EK@NMKAIECH@?$AA?5?$AAD?$AAi?$AAs?$AAa?$AAb?$AAl?$AAe?$AA?5?$AAO?$AAA?$AAL?$AA?5?$AAR?$AAe?$AAt?$AAa?$AAi?$AAl?$AA?5?$AAM?$AAe?$AAs?$AAs?$AAa?$AAg?$AAe?$AAs?$AA?5?$AA?$FL?$AAy?$AA?1@|
  00084		 |$LN20@SetRetailM|
  00084	00000000	 DCD         |g_bootCfg|
  00088		 |$M49384|

			 ENDP  ; |SetRetailMsgMode|

	EXPORT	|??_C@_1DC@KGICMHCL@?$AA?5?$AA?$FL?$AA0?$AA?$FN?$AA?5?$AAE?$AAx?$AAi?$AAt?$AA?5?$AAa?$AAn?$AAd?$AA?5?$AAC?$AAo?$AAn?$AAt?$AAi?$AAn?$AAu?$AAe?$AA?$AN?$AA?6?$AA?$AA@| [ DATA ] ; `string'
	EXPORT	|??_C@_1DG@FKDJCDHM@?$AA?$AN?$AA?6?$AA?5?$AAS?$AAe?$AAl?$AAe?$AAc?$AAt?$AAi?$AAo?$AAn?$AA?5?$AA?$CI?$AAa?$AAc?$AAt?$AAu?$AAa?$AAl?$AA?5?$AA?$CF?$AAs?$AA?$CJ?$AA?3?$AA?5?$AA?$AA@| [ DATA ] ; `string'
	EXPORT	|??_C@_1BG@LMIBJJCD@?$AA?5?$AA?$FL?$AA?$CF?$AAd?$AA?$FN?$AA?5?$AA?$CF?$AAs?$AA?$AN?$AA?6?$AA?$AA@| [ DATA ] ; `string'
	IMPORT	|OALBLMenuHeader|

  00000			 AREA	 |.pdata|, PDATA
|$T49406| DCD	|$LN16@SetDisplay|
	DCD	0x40002e01

  00000			 AREA	 |.rdata|, DATA, READONLY
|??_C@_1DC@KGICMHCL@?$AA?5?$AA?$FL?$AA0?$AA?$FN?$AA?5?$AAE?$AAx?$AAi?$AAt?$AA?5?$AAa?$AAn?$AAd?$AA?5?$AAC?$AAo?$AAn?$AAt?$AAi?$AAn?$AAu?$AAe?$AA?$AN?$AA?6?$AA?$AA@| DCB " "
	DCB	0x0, "[", 0x0, "0", 0x0, "]", 0x0, " ", 0x0, "E", 0x0, "x"
	DCB	0x0, "i", 0x0, "t", 0x0, " ", 0x0, "a", 0x0, "n", 0x0, "d"
	DCB	0x0, " ", 0x0, "C", 0x0, "o", 0x0, "n", 0x0, "t", 0x0, "i"
	DCB	0x0, "n", 0x0, "u", 0x0, "e", 0x0, 0xd, 0x0, 0xa, 0x0, 0x0
	DCB	0x0					; `string'

  00000			 AREA	 |.rdata|, DATA, READONLY
|??_C@_1DG@FKDJCDHM@?$AA?$AN?$AA?6?$AA?5?$AAS?$AAe?$AAl?$AAe?$AAc?$AAt?$AAi?$AAo?$AAn?$AA?5?$AA?$CI?$AAa?$AAc?$AAt?$AAu?$AAa?$AAl?$AA?5?$AA?$CF?$AAs?$AA?$CJ?$AA?3?$AA?5?$AA?$AA@| DCB 0xd
	DCB	0x0, 0xa, 0x0, " ", 0x0, "S", 0x0, "e", 0x0, "l", 0x0, "e"
	DCB	0x0, "c", 0x0, "t", 0x0, "i", 0x0, "o", 0x0, "n", 0x0, " "
	DCB	0x0, "(", 0x0, "a", 0x0, "c", 0x0, "t", 0x0, "u", 0x0, "a"
	DCB	0x0, "l", 0x0, " ", 0x0, "%", 0x0, "s", 0x0, ")", 0x0, ":"
	DCB	0x0, " ", 0x0, 0x0, 0x0			; `string'

  00000			 AREA	 |.rdata|, DATA, READONLY
|??_C@_1BG@LMIBJJCD@?$AA?5?$AA?$FL?$AA?$CF?$AAd?$AA?$FN?$AA?5?$AA?$CF?$AAs?$AA?$AN?$AA?6?$AA?$AA@| DCB " "
	DCB	0x0, "[", 0x0, "%", 0x0, "d", 0x0, "]", 0x0, " ", 0x0, "%"
	DCB	0x0, "s", 0x0, 0xd, 0x0, 0xa, 0x0, 0x0, 0x0 ; `string'
; Function compile flags: /Ogspy

  00000			 AREA	 |.text|, CODE, ARM

  00000		 |SetDisplayResolution| PROC

; 728  : {

  00000		 |$LN16@SetDisplay|
  00000	e92d4070	 stmdb       sp!, {r4 - r6, lr}
  00004		 |$M49403|

; 729  :     WCHAR key;
; 730  :     UINT32 i;
; 731  : 
; 732  :     UNREFERENCED_PARAMETER(pMenu);
; 733  :     
; 734  :     OALBLMenuHeader(L"Select Display Resolution");

  00004	e59f00a8	 ldr         r0, [pc, #0xA8]
  00008	eb000000	 bl          OALBLMenuHeader
  0000c	e59f409c	 ldr         r4, [pc, #0x9C]

; 735  : 
; 736  :     for (i=0; i<OMAP_RES_INVALID; i++)

  00010	e3a05000	 mov         r5, #0
  00014	e1a06004	 mov         r6, r4
  00018		 |$LL7@SetDisplay|

; 737  :     {
; 738  :         OALLog(L" [%d] %s\r\n", i+1 , dispResMenu[i].resName);

  00018	e5962004	 ldr         r2, [r6, #4]
  0001c	e59f0088	 ldr         r0, [pc, #0x88]
  00020	e2855001	 add         r5, r5, #1
  00024	e1a01005	 mov         r1, r5
  00028	eb000000	 bl          NKDbgPrintfW
  0002c	e2866008	 add         r6, r6, #8
  00030	e3550008	 cmp         r5, #8
  00034	3afffff7	 bcc         |$LL7@SetDisplay|

; 739  :     }
; 740  :     OALLog(L" [0] Exit and Continue\r\n");

  00038	e59f0068	 ldr         r0, [pc, #0x68]
  0003c	eb000000	 bl          NKDbgPrintfW

; 741  : 
; 742  :     OALLog(L"\r\n Selection (actual %s): ", dispResMenu[g_bootCfg.displayRes].resName);

  00040	e59f605c	 ldr         r6, [pc, #0x5C]
  00044	e59f0054	 ldr         r0, [pc, #0x54]
  00048	e596306c	 ldr         r3, [r6, #0x6C]
  0004c	e0843183	 add         r3, r4, r3, lsl #3
  00050	e5931004	 ldr         r1, [r3, #4]
  00054	eb000000	 bl          NKDbgPrintfW
  00058		 |$LL4@SetDisplay|

; 743  :     // Get key
; 744  :     do {
; 745  :         key = OALBLMenuReadKey(TRUE);

  00058	e3a00001	 mov         r0, #1
  0005c	eb000000	 bl          OALBLMenuReadKey
  00060	e1a04800	 mov         r4, r0, lsl #16
  00064	e1a04824	 mov         r4, r4, lsr #16

; 746  :     } while (key < L'0' || key > L'0' + i);    

  00068	e3540030	 cmp         r4, #0x30
  0006c	3afffff9	 bcc         |$LL4@SetDisplay|
  00070	e2853030	 add         r3, r5, #0x30
  00074	e1540003	 cmp         r4, r3
  00078	8afffff6	 bhi         |$LL4@SetDisplay|

; 747  :     OALLog(L"%c\r\n", key);

  0007c	e59f0018	 ldr         r0, [pc, #0x18]
  00080	e1a01004	 mov         r1, r4
  00084	eb000000	 bl          NKDbgPrintfW

; 748  :     
; 749  :     // If user select exit don't change device
; 750  :     if (key == L'0') return;

  00088	e3540030	 cmp         r4, #0x30

; 751  : 
; 752  :     g_bootCfg.displayRes = (key - L'0' - 1);

  0008c	12443031	 subne       r3, r4, #0x31
  00090	1586306c	 strne       r3, [r6, #0x6C]

; 753  : 
; 754  : }

  00094	e8bd4070	 ldmia       sp!, {r4 - r6, lr}
  00098	e12fff1e	 bx          lr
  0009c		 |$LN17@SetDisplay|
  0009c		 |$LN18@SetDisplay|
  0009c	00000000	 DCD         |??_C@_19DIEGALPP@?$AA?$CF?$AAc?$AA?$AN?$AA?6?$AA?$AA@|
  000a0		 |$LN19@SetDisplay|
  000a0	00000000	 DCD         |??_C@_1DG@FKDJCDHM@?$AA?$AN?$AA?6?$AA?5?$AAS?$AAe?$AAl?$AAe?$AAc?$AAt?$AAi?$AAo?$AAn?$AA?5?$AA?$CI?$AAa?$AAc?$AAt?$AAu?$AAa?$AAl?$AA?5?$AA?$CF?$AAs?$AA?$CJ?$AA?3?$AA?5?$AA?$AA@|
  000a4		 |$LN20@SetDisplay|
  000a4	00000000	 DCD         |g_bootCfg|
  000a8		 |$LN21@SetDisplay|
  000a8	00000000	 DCD         |??_C@_1DC@KGICMHCL@?$AA?5?$AA?$FL?$AA0?$AA?$FN?$AA?5?$AAE?$AAx?$AAi?$AAt?$AA?5?$AAa?$AAn?$AAd?$AA?5?$AAC?$AAo?$AAn?$AAt?$AAi?$AAn?$AAu?$AAe?$AA?$AN?$AA?6?$AA?$AA@|
  000ac		 |$LN22@SetDisplay|
  000ac	00000000	 DCD         |??_C@_1BG@LMIBJJCD@?$AA?5?$AA?$FL?$AA?$CF?$AAd?$AA?$FN?$AA?5?$AA?$CF?$AAs?$AA?$AN?$AA?6?$AA?$AA@|
  000b0		 |$LN23@SetDisplay|
  000b0	00000000	 DCD         |dispResMenu|
  000b4		 |$LN24@SetDisplay|
  000b4	00000000	 DCD         |??_C@_1DE@DBBLEEO@?$AAS?$AAe?$AAl?$AAe?$AAc?$AAt?$AA?5?$AAD?$AAi?$AAs?$AAp?$AAl?$AAa?$AAy?$AA?5?$AAR?$AAe?$AAs?$AAo?$AAl?$AAu?$AAt?$AAi?$AAo?$AAn?$AA?$AA@|
  000b8		 |$M49404|

			 ENDP  ; |SetDisplayResolution|

	EXPORT	|??_C@_1DK@EBBOCKOO@?$AA?$AN?$AA?6?$AA?5?$AAS?$AAe?$AAl?$AAe?$AAc?$AAt?$AAi?$AAo?$AAn?$AA?5?$AA?$CI?$AAa?$AAc?$AAt?$AAu?$AAa?$AAl?$AA?5?$AA?$FL?$AA?$CF?$AAs?$AA?$FN?$AA?$CJ?$AA?3?$AA?5?$AA?$AA@| [ DATA ] ; `string'
	IMPORT	|g_CPUFamily|

  00000			 AREA	 |.pdata|, PDATA
|$T49429| DCD	|$LN17@SetOPPmode|
	DCD	0x40003501

  00000			 AREA	 |.rdata|, DATA, READONLY
|??_C@_1DK@EBBOCKOO@?$AA?$AN?$AA?6?$AA?5?$AAS?$AAe?$AAl?$AAe?$AAc?$AAt?$AAi?$AAo?$AAn?$AA?5?$AA?$CI?$AAa?$AAc?$AAt?$AAu?$AAa?$AAl?$AA?5?$AA?$FL?$AA?$CF?$AAs?$AA?$FN?$AA?$CJ?$AA?3?$AA?5?$AA?$AA@| DCB 0xd
	DCB	0x0, 0xa, 0x0, " ", 0x0, "S", 0x0, "e", 0x0, "l", 0x0, "e"
	DCB	0x0, "c", 0x0, "t", 0x0, "i", 0x0, "o", 0x0, "n", 0x0, " "
	DCB	0x0, "(", 0x0, "a", 0x0, "c", 0x0, "t", 0x0, "u", 0x0, "a"
	DCB	0x0, "l", 0x0, " ", 0x0, "[", 0x0, "%", 0x0, "s", 0x0, "]"
	DCB	0x0, ")", 0x0, ":", 0x0, " ", 0x0, 0x0, 0x0 ; `string'
; Function compile flags: /Ogspy

  00000			 AREA	 |.text|, CODE, ARM

  00000		 |SetOPPmode| PROC

; 760  : {

  00000		 |$LN17@SetOPPmode|
  00000	e92d40f0	 stmdb       sp!, {r4 - r7, lr}
  00004		 |$M49426|

; 761  :     WCHAR key;
; 762  :     UINT32 i;
; 763  :     UINT32 len = OMAP35x_OPP_NUM;
; 764  :     OPP_MODE_MENU * pOppMenu = oppModeMenu35x;
; 765  : 
; 766  :     UNREFERENCED_PARAMETER(pMenu);
; 767  :     
; 768  :     OALBLMenuHeader(L"Select OPP Mode");

  00004	e59f00c4	 ldr         r0, [pc, #0xC4]
  00008	e59f40bc	 ldr         r4, [pc, #0xBC]
  0000c	e3a05006	 mov         r5, #6
  00010	eb000000	 bl          OALBLMenuHeader

; 769  : 
; 770  :     
; 771  :     if(g_CPUFamily == CPU_FAMILY_DM37XX)

  00014	e59f30ac	 ldr         r3, [pc, #0xAC]

; 772  :     {
; 773  :         len = OMAP37x_OPP_NUM;
; 774  :         pOppMenu = oppModeMenu37x;
; 775  :     }
; 776  :     
; 777  :     for (i=0; i<len; i++)

  00018	e3a06000	 mov         r6, #0
  0001c	e5933000	 ldr         r3, [r3]
  00020	e3530001	 cmp         r3, #1
  00024	03a05004	 moveq       r5, #4
  00028	02844018	 addeq       r4, r4, #0x18
  0002c	e3550000	 cmp         r5, #0
  00030	0a000007	 beq         |$LN5@SetOPPmode|
  00034	e1a07004	 mov         r7, r4
  00038		 |$LL7@SetOPPmode|

; 778  :     {
; 779  :         OALLog(L" [%d] %s\r\n", i+1 , pOppMenu[i].oppModeName);

  00038	e4972004	 ldr         r2, [r7], #4
  0003c	e59f0080	 ldr         r0, [pc, #0x80]
  00040	e2866001	 add         r6, r6, #1
  00044	e1a01006	 mov         r1, r6
  00048	eb000000	 bl          NKDbgPrintfW
  0004c	e1560005	 cmp         r6, r5
  00050	3afffff8	 bcc         |$LL7@SetOPPmode|
  00054		 |$LN5@SetOPPmode|

; 780  :     }
; 781  :     OALLog(L" [0] Exit and Continue\r\n");

  00054	e59f0064	 ldr         r0, [pc, #0x64]
  00058	eb000000	 bl          NKDbgPrintfW

; 782  : 
; 783  :     OALLog(L"\r\n Selection (actual [%s]): ", pOppMenu[g_bootCfg.opp_mode].oppModeName);

  0005c	e59f5058	 ldr         r5, [pc, #0x58]
  00060	e59f0050	 ldr         r0, [pc, #0x50]
  00064	e595308c	 ldr         r3, [r5, #0x8C]
  00068	e7941103	 ldr         r1, [r4, +r3, lsl #2]
  0006c	eb000000	 bl          NKDbgPrintfW
  00070	e2866030	 add         r6, r6, #0x30
  00074		 |$LL4@SetOPPmode|

; 784  :     
; 785  :     // Get key
; 786  :     do {
; 787  :         key = OALBLMenuReadKey(TRUE);

  00074	e3a00001	 mov         r0, #1
  00078	eb000000	 bl          OALBLMenuReadKey
  0007c	e1a04800	 mov         r4, r0, lsl #16
  00080	e1a04824	 mov         r4, r4, lsr #16

; 788  :     } while (key < L'0' || key > L'0' + i);    

  00084	e3540030	 cmp         r4, #0x30
  00088	3afffff9	 bcc         |$LL4@SetOPPmode|
  0008c	e1540006	 cmp         r4, r6
  00090	8afffff7	 bhi         |$LL4@SetOPPmode|

; 789  :     OALLog(L"%c\r\n", key);

  00094	e59f0018	 ldr         r0, [pc, #0x18]
  00098	e1a01004	 mov         r1, r4
  0009c	eb000000	 bl          NKDbgPrintfW

; 790  :     
; 791  :     // If user select exit don't change device
; 792  :     if (key == L'0') return;

  000a0	e3540030	 cmp         r4, #0x30

; 793  : 
; 794  :     g_bootCfg.opp_mode = (key - L'0' -1);

  000a4	12443031	 subne       r3, r4, #0x31
  000a8	1585308c	 strne       r3, [r5, #0x8C]

; 795  : 
; 796  : }

  000ac	e8bd40f0	 ldmia       sp!, {r4 - r7, lr}
  000b0	e12fff1e	 bx          lr
  000b4		 |$LN18@SetOPPmode|
  000b4		 |$LN19@SetOPPmode|
  000b4	00000000	 DCD         |??_C@_19DIEGALPP@?$AA?$CF?$AAc?$AA?$AN?$AA?6?$AA?$AA@|
  000b8		 |$LN20@SetOPPmode|
  000b8	00000000	 DCD         |??_C@_1DK@EBBOCKOO@?$AA?$AN?$AA?6?$AA?5?$AAS?$AAe?$AAl?$AAe?$AAc?$AAt?$AAi?$AAo?$AAn?$AA?5?$AA?$CI?$AAa?$AAc?$AAt?$AAu?$AAa?$AAl?$AA?5?$AA?$FL?$AA?$CF?$AAs?$AA?$FN?$AA?$CJ?$AA?3?$AA?5?$AA?$AA@|
  000bc		 |$LN21@SetOPPmode|
  000bc	00000000	 DCD         |g_bootCfg|
  000c0		 |$LN22@SetOPPmode|
  000c0	00000000	 DCD         |??_C@_1DC@KGICMHCL@?$AA?5?$AA?$FL?$AA0?$AA?$FN?$AA?5?$AAE?$AAx?$AAi?$AAt?$AA?5?$AAa?$AAn?$AAd?$AA?5?$AAC?$AAo?$AAn?$AAt?$AAi?$AAn?$AAu?$AAe?$AA?$AN?$AA?6?$AA?$AA@|
  000c4		 |$LN23@SetOPPmode|
  000c4	00000000	 DCD         |??_C@_1BG@LMIBJJCD@?$AA?5?$AA?$FL?$AA?$CF?$AAd?$AA?$FN?$AA?5?$AA?$CF?$AAs?$AA?$AN?$AA?6?$AA?$AA@|
  000c8		 |$LN24@SetOPPmode|
  000c8	00000000	 DCD         |g_CPUFamily|
  000cc		 |$LN25@SetOPPmode|
  000cc	00000000	 DCD         |oppModeMenu35x|
  000d0		 |$LN26@SetOPPmode|
  000d0	00000000	 DCD         |??_C@_1CA@MOPOGELI@?$AAS?$AAe?$AAl?$AAe?$AAc?$AAt?$AA?5?$AAO?$AAP?$AAP?$AA?5?$AAM?$AAo?$AAd?$AAe?$AA?$AA@|
  000d4		 |$M49427|

			 ENDP  ; |SetOPPmode|

	IMPORT	|GPIOSetBit|

  00000			 AREA	 |.pdata|, PDATA
|$T49445| DCD	|$LN5@BacklightO|
	DCD	0x40000c01
; Function compile flags: /Ogspy

  00000			 AREA	 |.text|, CODE, ARM

  00000		 |BacklightON| PROC

; 820  : {

  00000		 |$LN5@BacklightO|
  00000	e52de004	 str         lr, [sp, #-4]!
  00004		 |$M49442|

; 821  :     //HANDLE hGPIO = NULL;
; 822  :     hGPIO = GPIOOpen();

  00004	eb000000	 bl          GPIOOpen

; 823  :     GPIOSetBit(hGPIO, BACKLIGHT_EN_GPIO);

  00008	e59f301c	 ldr         r3, [pc, #0x1C]
  0000c	e59fe014	 ldr         lr, [pc, #0x14]
  00010	e1a02000	 mov         r2, r0
  00014	e5931000	 ldr         r1, [r3]
  00018	e58e2000	 str         r2, [lr]
  0001c	eb000000	 bl          GPIOSetBit

; 824  :     UNREFERENCED_PARAMETER(pMenu);	
; 825  : }

  00020	e49de004	 ldr         lr, [sp], #4
  00024	e12fff1e	 bx          lr
  00028		 |$LN6@BacklightO|
  00028		 |$LN7@BacklightO|
  00028	00000000	 DCD         |hGPIO|
  0002c		 |$LN8@BacklightO|
  0002c	00000000	 DCD         |BACKLIGHT_EN_GPIO|
  00030		 |$M49443|

			 ENDP  ; |BacklightON|

	IMPORT	|GPIOClrBit|

  00000			 AREA	 |.pdata|, PDATA
|$T49455| DCD	|$LN5@BacklightO@2|
	DCD	0x40000c01
; Function compile flags: /Ogspy

  00000			 AREA	 |.text|, CODE, ARM

  00000		 |BacklightOFF| PROC

; 828  : {

  00000		 |$LN5@BacklightO@2|
  00000	e52de004	 str         lr, [sp, #-4]!
  00004		 |$M49452|

; 829  :     //HANDLE hGPIO = NULL;
; 830  :     hGPIO = GPIOOpen();

  00004	eb000000	 bl          GPIOOpen

; 831  :     GPIOClrBit(hGPIO, BACKLIGHT_EN_GPIO);

  00008	e59f301c	 ldr         r3, [pc, #0x1C]
  0000c	e59fe014	 ldr         lr, [pc, #0x14]
  00010	e1a02000	 mov         r2, r0
  00014	e5931000	 ldr         r1, [r3]
  00018	e58e2000	 str         r2, [lr]
  0001c	eb000000	 bl          GPIOClrBit

; 832  :     UNREFERENCED_PARAMETER(pMenu);	
; 833  : }

  00020	e49de004	 ldr         lr, [sp], #4
  00024	e12fff1e	 bx          lr
  00028		 |$LN6@BacklightO@2|
  00028		 |$LN7@BacklightO@2|
  00028	00000000	 DCD         |hGPIO|
  0002c		 |$LN8@BacklightO@2|
  0002c	00000000	 DCD         |BACKLIGHT_EN_GPIO|
  00030		 |$M49453|

			 ENDP  ; |BacklightOFF|

	EXPORT	|??_C@_1M@IDGKDCGK@?$AA?$CF?$AAs?$AA?$AN?$AA?6?$AA?5?$AA?$AA@| [ DATA ] ; `string'
	EXPORT	|??_C@_19EEPNDKNE@?$AA?$CF?$AAs?$AA?$AN?$AA?6?$AA?$AA@| [ DATA ] ; `string'
	EXPORT	|??_C@_1CA@LBCOEEPJ@?$AA?$AN?$AA?6?$AA?5?$AAS?$AAe?$AAl?$AAe?$AAc?$AAt?$AAi?$AAo?$AAn?$AA?5?$AA?3?$AA?5?$AA?$AA@| [ DATA ] ; `string'
	EXPORT	|??_C@_1EA@MCBAEIOC@?$AAS?$AAe?$AAl?$AAe?$AAc?$AAt?$AA?5?$AAB?$AAa?$AAc?$AAk?$AAl?$AAi?$AAg?$AAh?$AAt?$AA?5?$AAB?$AAr?$AAi?$AAg?$AAh?$AAt?$AAn?$AAe?$AAs?$AAs?$AA?5?$AA?$CL?$AA?1?$AA?9?$AA?$AA@| [ DATA ] ; `string'
	IMPORT	|OALStall|

  00000			 AREA	 |.pdata|, PDATA
|$T49470| DCD	|$LN16@BacklightB|
	DCD	0x40004301

  00000			 AREA	 |.rdata|, DATA, READONLY
|??_C@_1M@IDGKDCGK@?$AA?$CF?$AAs?$AA?$AN?$AA?6?$AA?5?$AA?$AA@| DCB "%", 0x0
	DCB	"s", 0x0, 0xd, 0x0, 0xa, 0x0, " ", 0x0, 0x0, 0x0 ; `string'

  00000			 AREA	 |.rdata|, DATA, READONLY
|??_C@_19EEPNDKNE@?$AA?$CF?$AAs?$AA?$AN?$AA?6?$AA?$AA@| DCB "%", 0x0, "s", 0x0
	DCB	0xd, 0x0, 0xa, 0x0, 0x0, 0x0		; `string'

  00000			 AREA	 |.rdata|, DATA, READONLY
|??_C@_1CA@LBCOEEPJ@?$AA?$AN?$AA?6?$AA?5?$AAS?$AAe?$AAl?$AAe?$AAc?$AAt?$AAi?$AAo?$AAn?$AA?5?$AA?3?$AA?5?$AA?$AA@| DCB 0xd
	DCB	0x0, 0xa, 0x0, " ", 0x0, "S", 0x0, "e", 0x0, "l", 0x0, "e"
	DCB	0x0, "c", 0x0, "t", 0x0, "i", 0x0, "o", 0x0, "n", 0x0, " "
	DCB	0x0, ":", 0x0, " ", 0x0, 0x0, 0x0	; `string'

  00000			 AREA	 |.rdata|, DATA, READONLY
|??_C@_1EA@MCBAEIOC@?$AAS?$AAe?$AAl?$AAe?$AAc?$AAt?$AA?5?$AAB?$AAa?$AAc?$AAk?$AAl?$AAi?$AAg?$AAh?$AAt?$AA?5?$AAB?$AAr?$AAi?$AAg?$AAh?$AAt?$AAn?$AAe?$AAs?$AAs?$AA?5?$AA?$CL?$AA?1?$AA?9?$AA?$AA@| DCB "S"
	DCB	0x0, "e", 0x0, "l", 0x0, "e", 0x0, "c", 0x0, "t", 0x0, " "
	DCB	0x0, "B", 0x0, "a", 0x0, "c", 0x0, "k", 0x0, "l", 0x0, "i"
	DCB	0x0, "g", 0x0, "h", 0x0, "t", 0x0, " ", 0x0, "B", 0x0, "r"
	DCB	0x0, "i", 0x0, "g", 0x0, "h", 0x0, "t", 0x0, "n", 0x0, "e"
	DCB	0x0, "s", 0x0, "s", 0x0, " ", 0x0, "+", 0x0, "/", 0x0, "-"
	DCB	0x0, 0x0, 0x0				; `string'
; Function compile flags: /Ogspy

  00000			 AREA	 |.text|, CODE, ARM

  00000		 |BacklightBrightness| PROC

; 836  : {

  00000		 |$LN16@BacklightB|
  00000	e92d40f0	 stmdb       sp!, {r4 - r7, lr}
  00004		 |$M49467|

; 837  :     
; 838  : //    UINT32 AAT3123_Code[CODE_SIZE] = { 1, 4 , 7, 10, 13, 16, 19, 22, 25, 28, 31};
; 839  :                                     /*{ 1, 2, 3, 4, 5, 6, 7, 8, 9,10,
; 840  :                                        11,12,13,14,15,16,17,18,19,20,
; 841  :                                        21,22,23,24,25,26,27,28,29,30,
; 842  :                                        31,32};*/
; 843  :     WCHAR key;
; 844  : //    UINT32 i = 6;
; 845  :     int k;
; 846  :     //HANDLE hGPIO = NULL;
; 847  :     hGPIO = GPIOOpen();

  00004	eb000000	 bl          GPIOOpen
  00008	e59f70f8	 ldr         r7, [pc, #0xF8]
  0000c	e1a03000	 mov         r3, r0

; 848  :     
; 849  :     OALBLMenuHeader(L"Select Backlight Brightness +/-");

  00010	e59f00ec	 ldr         r0, [pc, #0xEC]
  00014	e5873000	 str         r3, [r7]
  00018	eb000000	 bl          OALBLMenuHeader
  0001c	e59f50dc	 ldr         r5, [pc, #0xDC]

; 850  :     for (k=0; k< BN_EXIT ; k++)

  00020	e3a04000	 mov         r4, #0
  00024	e1a06005	 mov         r6, r5
  00028		 |$LL8@BacklightB|

; 851  :     {
; 852  :         OALLog(L" [%d] %s\r\n", k+1,
; 853  :                                 backlightBN[k].bnName);

  00028	e5962004	 ldr         r2, [r6, #4]
  0002c	e59f00c8	 ldr         r0, [pc, #0xC8]
  00030	e2844001	 add         r4, r4, #1
  00034	e1a01004	 mov         r1, r4
  00038	eb000000	 bl          NKDbgPrintfW
  0003c	e2866008	 add         r6, r6, #8
  00040	e3540002	 cmp         r4, #2
  00044	bafffff7	 blt         |$LL8@BacklightB|

; 854  : 	}
; 855  :     OALLog(L" [0] Exit and Continue\r\n");

  00048	e59f00a8	 ldr         r0, [pc, #0xA8]
  0004c	eb000000	 bl          NKDbgPrintfW

; 856  :     
; 857  :     GPIOClrBit( hGPIO, BACKLIGHT_EN_GPIO);

  00050	e5951048	 ldr         r1, [r5, #0x48]
  00054	e5970000	 ldr         r0, [r7]
  00058	eb000000	 bl          GPIOClrBit

; 858  :     OALStall(1000);

  0005c	e3a00ffa	 mov         r0, #0xFA, 30
  00060	eb000000	 bl          OALStall

; 859  : 
; 860  :     GPIOSetBit( hGPIO, BACKLIGHT_EN_GPIO);

  00064	e5951048	 ldr         r1, [r5, #0x48]
  00068	e5970000	 ldr         r0, [r7]
  0006c	eb000000	 bl          GPIOSetBit

; 861  :     OALStall(1);

  00070	e3a00001	 mov         r0, #1
  00074	eb000000	 bl          OALStall

; 862  : 
; 863  : 
; 864  :     
; 865  :     key = OALBLMenuReadKey(TRUE);

  00078	e3a00001	 mov         r0, #1
  0007c	eb000000	 bl          OALBLMenuReadKey
  00080	e1a04800	 mov         r4, r0, lsl #16
  00084	e1a04824	 mov         r4, r4, lsr #16

; 866  :     // Show +/- selection
; 867  :     if(key != L'0'){

  00088	e59f6064	 ldr         r6, [pc, #0x64]

; 868  :             OALLog(L"\r\n Selection : ");

  0008c	e59f005c	 ldr         r0, [pc, #0x5C]
  00090	e3540030	 cmp         r4, #0x30
  00094	0a000009	 beq         |$LN5@BacklightB|
  00098	eb000000	 bl          NKDbgPrintfW

; 869  :         
; 870  :         
; 871  :        if(key == L'1'){
; 872  :           OALLog(L"%s\r\n", backlightBN[g_bootCfg.backlighbn].bnName );

  0009c	e5963078	 ldr         r3, [r6, #0x78]
  000a0	e3540031	 cmp         r4, #0x31
  000a4	059f0040	 ldreq       r0, [pc, #0x40]
  000a8	e0853183	 add         r3, r5, r3, lsl #3
  000ac	05931004	 ldreq       r1, [r3, #4]
  000b0	0a000005	 beq         |$LN13@BacklightB|

; 873  :        }else{
; 874  :           OALLog(L"%s\r\n ", (backlightBN[(g_bootCfg.backlighbn) +1 ].bnName));

  000b4	e59f002c	 ldr         r0, [pc, #0x2C]
  000b8	e593100c	 ldr         r1, [r3, #0xC]

; 875  :        }
; 876  : 
; 877  :         
; 878  :            /*switch(key)
; 879  :             {
; 880  :             case L'1':
; 881  :                 
; 882  :                 GPIOClrBit( hGPIO, BACKLIGHT_EN_GPIO);
; 883  :                 OALStall(1000);
; 884  : 
; 885  :                 GPIOSetBit( hGPIO, BACKLIGHT_EN_GPIO);
; 886  :                 OALStall(1000);
; 887  :                 i = AAT3123_Code[i++];
; 888  :                 OALLog(L"\r\n i: %d, AAT3123_Code[i++]:%d.",i ,AAT3123_Code[i]);
; 889  :                 if(AAT3123_Code[i] > 31){
; 890  :                     OALLog(L"\r\n Brightness is the largest. ");
; 891  :                 }else{
; 892  :                     OALLog(L"\r\n Brightness increased.");
; 893  :                 }
; 894  :                 break;
; 895  :             case L'2':
; 896  :                 
; 897  :                 GPIOClrBit( hGPIO, BACKLIGHT_EN_GPIO);
; 898  :                 OALStall(1000);
; 899  : 
; 900  :                 GPIOSetBit( hGPIO, BACKLIGHT_EN_GPIO);
; 901  :                 OALStall(1000);
; 902  :                 i = AAT3123_Code[i--];
; 903  :                 if(AAT3123_Code[i] < 1){
; 904  :                     OALLog(L"\r\n Brightness is the lowest.");
; 905  :                 }else{
; 906  :                     OALLog(L"\r\n Brightness  decreased.");
; 907  :                 }
; 908  :                 break;
; 909  :             case L'0':
; 910  :                // goto stop;
; 911  :                break;
; 912  :             }*/
; 913  :      }else{ /*(key == L'0'){*/

  000bc	ea000002	 b           |$LN13@BacklightB|
  000c0		 |$LN5@BacklightB|

; 914  :         OALLog(L"\r\n Selection : ");

  000c0	eb000000	 bl          NKDbgPrintfW

; 915  :         OALLog(L"%c\r\n", key);

  000c4	e59f0018	 ldr         r0, [pc, #0x18]
  000c8	e3a01030	 mov         r1, #0x30
  000cc		 |$LN13@BacklightB|
  000cc	eb000000	 bl          NKDbgPrintfW

; 916  :      }
; 917  :    
; 918  :     //key = OALBLMenuReadKey(TRUE);
; 919  :     
; 920  :     /*do{
; 921  :         key = OALBLMenuReadKey(TRUE);
; 922  :         
; 923  :     }while (key != L'0');*/
; 924  : 
; 925  :     /*if(key == L'0'){
; 926  :         OALLog(L"\r\n Selection : ");
; 927  :         OALLog(L"%c\r\n", key);
; 928  :     }*/
; 929  : 
; 930  :     
; 931  :     
; 932  :    //do{
; 933  :      // key = OALBLMenuReadKey(TRUE);
; 934  :       //OALLog(L"%c\r\n", key);
; 935  :      /* switch(key)
; 936  :         {
; 937  :             case L'1':
; 938  :                 
; 939  :                 GPIOClrBit( hGPIO, BACKLIGHT_EN_GPIO);
; 940  :                 OALStall(1000);
; 941  : 
; 942  :                 GPIOSetBit( hGPIO, BACKLIGHT_EN_GPIO);
; 943  :                 OALStall(1000);
; 944  :                 i = AAT3123_Code[i++];
; 945  :                 OALLog(L"\r\n i: %d, AAT3123_Code[i++]:%d.",i ,AAT3123_Code[i]);
; 946  :                 if(AAT3123_Code[i] > 31){
; 947  :                     OALLog(L"\r\n Brightness is the largest. ");
; 948  :                 }else{
; 949  :                     OALLog(L"\r\n Brightness increased.");
; 950  :                 }
; 951  :                 break;
; 952  :             case L'2':
; 953  :                 
; 954  :                 GPIOClrBit( hGPIO, BACKLIGHT_EN_GPIO);
; 955  :                 OALStall(1000);
; 956  : 
; 957  :                 GPIOSetBit( hGPIO, BACKLIGHT_EN_GPIO);
; 958  :                 OALStall(1000);
; 959  :                 i = AAT3123_Code[i--];
; 960  :                 if(AAT3123_Code[i] < 1){
; 961  :                     OALLog(L"\r\n Brightness is the lowest.");
; 962  :                 }else{
; 963  :                     OALLog(L"\r\n Brightness  decreased.");
; 964  :                 }
; 965  :                 break;
; 966  :             
; 967  :         }*/
; 968  :    //}while(key != L'0');
; 969  : 
; 970  :    //OALLog(L"%c\r\n", key);
; 971  :    UNREFERENCED_PARAMETER(pMenu);
; 972  : //stop:
; 973  :    if (key == L'0') return;

  000d0	e3540030	 cmp         r4, #0x30

; 974  :    g_bootCfg.backlighbn = (key - L'0' - 1);

  000d4	12443031	 subne       r3, r4, #0x31
  000d8	15863078	 strne       r3, [r6, #0x78]

; 975  : }

  000dc	e8bd40f0	 ldmia       sp!, {r4 - r7, lr}
  000e0	e12fff1e	 bx          lr
  000e4		 |$LN17@BacklightB|
  000e4		 |$LN18@BacklightB|
  000e4	00000000	 DCD         |??_C@_19DIEGALPP@?$AA?$CF?$AAc?$AA?$AN?$AA?6?$AA?$AA@|
  000e8		 |$LN19@BacklightB|
  000e8	00000000	 DCD         |??_C@_1M@IDGKDCGK@?$AA?$CF?$AAs?$AA?$AN?$AA?6?$AA?5?$AA?$AA@|
  000ec		 |$LN20@BacklightB|
  000ec	00000000	 DCD         |??_C@_19EEPNDKNE@?$AA?$CF?$AAs?$AA?$AN?$AA?6?$AA?$AA@|
  000f0		 |$LN21@BacklightB|
  000f0	00000000	 DCD         |??_C@_1CA@LBCOEEPJ@?$AA?$AN?$AA?6?$AA?5?$AAS?$AAe?$AAl?$AAe?$AAc?$AAt?$AAi?$AAo?$AAn?$AA?5?$AA?3?$AA?5?$AA?$AA@|
  000f4		 |$LN22@BacklightB|
  000f4	00000000	 DCD         |g_bootCfg|
  000f8		 |$LN23@BacklightB|
  000f8	00000000	 DCD         |??_C@_1DC@KGICMHCL@?$AA?5?$AA?$FL?$AA0?$AA?$FN?$AA?5?$AAE?$AAx?$AAi?$AAt?$AA?5?$AAa?$AAn?$AAd?$AA?5?$AAC?$AAo?$AAn?$AAt?$AAi?$AAn?$AAu?$AAe?$AA?$AN?$AA?6?$AA?$AA@|
  000fc		 |$LN24@BacklightB|
  000fc	00000000	 DCD         |??_C@_1BG@LMIBJJCD@?$AA?5?$AA?$FL?$AA?$CF?$AAd?$AA?$FN?$AA?5?$AA?$CF?$AAs?$AA?$AN?$AA?6?$AA?$AA@|
  00100		 |$LN25@BacklightB|
  00100	00000000	 DCD         |backlightBN|
  00104		 |$LN26@BacklightB|
  00104	00000000	 DCD         |??_C@_1EA@MCBAEIOC@?$AAS?$AAe?$AAl?$AAe?$AAc?$AAt?$AA?5?$AAB?$AAa?$AAc?$AAk?$AAl?$AAi?$AAg?$AAh?$AAt?$AA?5?$AAB?$AAr?$AAi?$AAg?$AAh?$AAt?$AAn?$AAe?$AAs?$AAs?$AA?5?$AA?$CL?$AA?1?$AA?9?$AA?$AA@|
  00108		 |$LN27@BacklightB|
  00108	00000000	 DCD         |hGPIO|
  0010c		 |$M49468|

			 ENDP  ; |BacklightBrightness|

	EXPORT	|??_C@_1BG@EBHIGBFG@?$AA?5?$AA?$FL?$AA?$CF?$AAc?$AA?$FN?$AA?5?$AA?$CF?$AAs?$AA?$AN?$AA?6?$AA?$AA@| [ DATA ] ; `string'
	EXPORT	|??_C@_1DA@BOLJNFCB@?$AAS?$AAe?$AAl?$AAe?$AAc?$AAt?$AA?5?$AAB?$AAa?$AAc?$AAk?$AAl?$AAi?$AAg?$AAh?$AAt?$AA?5?$AAO?$AAN?$AA?1?$AAO?$AAF?$AAF?$AA?$AA@| [ DATA ] ; `string'

  00000			 AREA	 |.pdata|, PDATA
|$T49504| DCD	|$LN31@SetBacklig|
	DCD	0x40003401

  00000			 AREA	 |.rdata|, DATA, READONLY
|??_C@_1BG@EBHIGBFG@?$AA?5?$AA?$FL?$AA?$CF?$AAc?$AA?$FN?$AA?5?$AA?$CF?$AAs?$AA?$AN?$AA?6?$AA?$AA@| DCB " "
	DCB	0x0, "[", 0x0, "%", 0x0, "c", 0x0, "]", 0x0, " ", 0x0, "%"
	DCB	0x0, "s", 0x0, 0xd, 0x0, 0xa, 0x0, 0x0, 0x0 ; `string'

  00000			 AREA	 |.rdata|, DATA, READONLY
|??_C@_1DA@BOLJNFCB@?$AAS?$AAe?$AAl?$AAe?$AAc?$AAt?$AA?5?$AAB?$AAa?$AAc?$AAk?$AAl?$AAi?$AAg?$AAh?$AAt?$AA?5?$AAO?$AAN?$AA?1?$AAO?$AAF?$AAF?$AA?$AA@| DCB "S"
	DCB	0x0, "e", 0x0, "l", 0x0, "e", 0x0, "c", 0x0, "t", 0x0, " "
	DCB	0x0, "B", 0x0, "a", 0x0, "c", 0x0, "k", 0x0, "l", 0x0, "i"
	DCB	0x0, "g", 0x0, "h", 0x0, "t", 0x0, " ", 0x0, "O", 0x0, "N"
	DCB	0x0, "/", 0x0, "O", 0x0, "F", 0x0, "F", 0x0, 0x0, 0x0 ; `string'
; Function compile flags: /Ogspy

  00000			 AREA	 |.text|, CODE, ARM

  00000		 |SetBacklight| PROC

; 980  : {

  00000		 |$LN31@SetBacklig|
  00000	e92d4030	 stmdb       sp!, {r4, r5, lr}
  00004		 |$M49501|
  00004	e59f50c0	 ldr         r5, [pc, #0xC0]
  00008		 |$LL13@SetBacklig|

; 981  :     //OALBLMenuShow(&g_menuBrightness);
; 982  :     OAL_BLMENU_ITEM *pBnItem;
; 983  :     WCHAR key;
; 984  :     //UINT32 i;
; 985  :     const int running = 1;
; 986  : 	//HANDLE hGPIO;
; 987  :    
; 988  :     while(running)
; 989  :     {
; 990  :         OALBLMenuHeader(L"Select Backlight ON/OFF");

  00008	e59f00b8	 ldr         r0, [pc, #0xB8]
  0000c	eb000000	 bl          OALBLMenuHeader

; 991  : 
; 992  :         // Print menu items [1]~[3], Ray 13-09-23 
; 993  :         for (pBnItem = g_menuBrightness; pBnItem->key != L'0'; pBnItem++) {

  00010	e1d530b0	 ldrh        r3, [r5]
  00014	e1a04005	 mov         r4, r5
  00018	ea000004	 b           |$LN27@SetBacklig|
  0001c		 |$LL11@SetBacklig|

; 994  :             OALLog(L" [%c] %s\r\n", pBnItem->key, pBnItem->text);

  0001c	e5942004	 ldr         r2, [r4, #4]
  00020	e59f009c	 ldr         r0, [pc, #0x9C]
  00024	e1a01003	 mov         r1, r3
  00028	eb000000	 bl          NKDbgPrintfW
  0002c	e1f431b8	 ldrh        r3, [r4, #0x18]!
  00030		 |$LN27@SetBacklig|
  00030	e3530030	 cmp         r3, #0x30
  00034	1afffff8	 bne         |$LL11@SetBacklig|

; 995  :         }
; 996  :         OALLog(L" [0] Exit and Continue\r\n"); 

  00038	e59f0080	 ldr         r0, [pc, #0x80]
  0003c	eb000000	 bl          NKDbgPrintfW

; 997  :         OALLog(L"\r\n Selection : ");

  00040	e59f0074	 ldr         r0, [pc, #0x74]
  00044	eb000000	 bl          NKDbgPrintfW
  00048		 |$LL8@SetBacklig|

; 998  : 
; 999  :         while(running)
; 1000 :         {
; 1001 :            // Get key
; 1002 :             key = OALBLMenuReadKey(TRUE);

  00048	e3a00001	 mov         r0, #1
  0004c	eb000000	 bl          OALBLMenuReadKey

; 1003 :             // Look for key in menu
; 1004 :             for (pBnItem = g_menuBrightness; pBnItem->key != 0; pBnItem++) {

  00050	e1a02800	 mov         r2, r0, lsl #16
  00054	e1d530b0	 ldrh        r3, [r5]
  00058	e1a02822	 mov         r2, r2, lsr #16
  0005c	e1a04005	 mov         r4, r5
  00060	ea000002	 b           |$LN28@SetBacklig|
  00064		 |$LL6@SetBacklig|

; 1005 :                 if (pBnItem->key == key)  

  00064	e1530002	 cmp         r3, r2
  00068	0a000002	 beq         |$LN26@SetBacklig|
  0006c	e1f431b8	 ldrh        r3, [r4, #0x18]!
  00070		 |$LN28@SetBacklig|
  00070	e3530000	 cmp         r3, #0
  00074	1afffffa	 bne         |$LL6@SetBacklig|
  00078		 |$LN26@SetBacklig|

; 1006 :                     break;
; 1007 :             }
; 1008 :             //If we find it, break loop
; 1009 :             if (pBnItem->key != 0) 

  00078	e1d430b0	 ldrh        r3, [r4]
  0007c	e3530000	 cmp         r3, #0
  00080	0afffff0	 beq         |$LL8@SetBacklig|

; 1010 :                 break;
; 1011 :         }
; 1012 : 
; 1013 :         // Show ON/OFF selection
; 1014 :     	 OALLog(L"%c\r\n", pBnItem->key);

  00084	e59f002c	 ldr         r0, [pc, #0x2C]
  00088	e1a01803	 mov         r1, r3, lsl #16
  0008c	e1a01821	 mov         r1, r1, lsr #16
  00090	eb000000	 bl          NKDbgPrintfW

; 1015 : 	    
; 1016 : 	    // When action is NULL return back to parent menu
; 1017 :         if (pBnItem->pfnAction == NULL) break;

  00094	e5943008	 ldr         r3, [r4, #8]
  00098	e3530000	 cmp         r3, #0
  0009c	0a000003	 beq         |$LN22@SetBacklig|

; 1018 :         
; 1019 :         // Else call menu action(function pointer)
; 1020 :         pBnItem->pfnAction(pBnItem);

  000a0	e1a00004	 mov         r0, r4
  000a4	e1a0e00f	 mov         lr, pc
  000a8	e12fff13	 bx          r3
  000ac	eaffffd5	 b           |$LL13@SetBacklig|
  000b0		 |$LN22@SetBacklig|

; 1021 :    }	
; 1022 :    
; 1023 : 
; 1024 :     /*for (i=0; i<BACKLIGHT_EXIT; i++)
; 1025 :     {
; 1026 :         OALLog(L" [%d] %s\r\n", i+1, disBacklight[i].blName);
; 1027 : 	}
; 1028 :     OALLog(L" [0] Exit and Continue\r\n");*/
; 1029 : 	
; 1030 : 	//OALLog(L"\r\n Selection : [%s] ", disBacklight[g_bootCfg.backlight].blName);
; 1031 : 	//OALLog(L"\r\n Selection : ");
; 1032 :     // Get key
; 1033 :    /* do {
; 1034 :         key = OALBLMenuReadKey(TRUE);
; 1035 :     } while (key < L'0' || key > L'0' + i);*/ 
; 1036 : 	
; 1037 : 	
; 1038 : 	// Show ON/OFF selection
; 1039 : 	//OALLog(L"%c\r\n", key);
; 1040 : 	
; 1041 : 	//ON/OFF Backlight action.
; 1042 : 	//hGPIO = GPIOOpen();
; 1043 : 
; 1044 : 	/*switch(key)
; 1045 : 	{
; 1046 : 		case L'1':
; 1047 :             BacklightNO(hGPIO);
; 1048 : 			//GPIOSetBit(hGPIO, 61);
; 1049 : 			break;
; 1050 : 		case L'2':
; 1051 :             BacklightOFF(hGPIO);
; 1052 : 			//GPIOClrBit(hGPIO, 61);
; 1053 :         case L'3':
; 1054 :             //.........
; 1055 :             BacklightBrightness(hGPIO);
; 1056 : 			break;
; 1057 : 		default:
; 1058 : 			break;
; 1059 : 	}*/
; 1060 : 	/*if(key == L'2'){
; 1061 : 		GPIOClrBit(hGPIO, 61);
; 1062 : 	}else{
; 1063 : 		GPIOSetBit(hGPIO, 61);
; 1064 : 	}*/
; 1065 :     
; 1066 : 	// If user select exit don't any change device
; 1067 :     //if (key == L'0') return;
; 1068 :      UNREFERENCED_PARAMETER(pMenu);
; 1069 :     //g_bootCfg.backlight = (key - L'0' - 1);
; 1070 : }

  000b0	e8bd4030	 ldmia       sp!, {r4, r5, lr}
  000b4	e12fff1e	 bx          lr
  000b8		 |$LN32@SetBacklig|
  000b8		 |$LN33@SetBacklig|
  000b8	00000000	 DCD         |??_C@_19DIEGALPP@?$AA?$CF?$AAc?$AA?$AN?$AA?6?$AA?$AA@|
  000bc		 |$LN34@SetBacklig|
  000bc	00000000	 DCD         |??_C@_1CA@LBCOEEPJ@?$AA?$AN?$AA?6?$AA?5?$AAS?$AAe?$AAl?$AAe?$AAc?$AAt?$AAi?$AAo?$AAn?$AA?5?$AA?3?$AA?5?$AA?$AA@|
  000c0		 |$LN35@SetBacklig|
  000c0	00000000	 DCD         |??_C@_1DC@KGICMHCL@?$AA?5?$AA?$FL?$AA0?$AA?$FN?$AA?5?$AAE?$AAx?$AAi?$AAt?$AA?5?$AAa?$AAn?$AAd?$AA?5?$AAC?$AAo?$AAn?$AAt?$AAi?$AAn?$AAu?$AAe?$AA?$AN?$AA?6?$AA?$AA@|
  000c4		 |$LN36@SetBacklig|
  000c4	00000000	 DCD         |??_C@_1BG@EBHIGBFG@?$AA?5?$AA?$FL?$AA?$CF?$AAc?$AA?$FN?$AA?5?$AA?$CF?$AAs?$AA?$AN?$AA?6?$AA?$AA@|
  000c8		 |$LN37@SetBacklig|
  000c8	00000000	 DCD         |??_C@_1DA@BOLJNFCB@?$AAS?$AAe?$AAl?$AAe?$AAc?$AAt?$AA?5?$AAB?$AAa?$AAc?$AAk?$AAl?$AAi?$AAg?$AAh?$AAt?$AA?5?$AAO?$AAN?$AA?1?$AAO?$AAF?$AAF?$AA?$AA@|
  000cc		 |$LN38@SetBacklig|
  000cc	00000000	 DCD         |g_menuBrightness|
  000d0		 |$M49502|

			 ENDP  ; |SetBacklight|

	EXPORT	|??_C@_1BI@CCBAMNMF@?$AA?5?$AAR?$AAe?$AAa?$AAd?$AAi?$AAn?$AAg?$AA?5?$AA?3?$AA?5?$AA?$AA@| [ DATA ] ; `string'
	EXPORT	|??_C@_1CA@ILICILPM@?$AAF?$AAi?$AAl?$AAe?$AA?5?$AAR?$AAe?$AAa?$AAd?$AA?5?$AAo?$AAk?$AA?$CB?$AA?$CB?$AA?6?$AA?$AA@| [ DATA ] ; `string'
	EXPORT	|??_C@_1BI@JJGNKHCB@?$AA?5?$AAW?$AAr?$AAi?$AAt?$AAi?$AAn?$AAg?$AA?5?$AA?3?$AA?5?$AA?$AA@| [ DATA ] ; `string'
	EXPORT	|??_C@_1CG@BPLJMLOC@?$AAF?$AAi?$AAl?$AAe?$AA?5?$AAW?$AAr?$AAi?$AAt?$AAt?$AAe?$AAn?$AA?5?$AAo?$AAk?$AA?$CB?$AA?$CB?$AA?6?$AA?$AA@| [ DATA ] ; `string'
	EXPORT	|??_C@_17FHEBOJIN@?$AA?$CF?$AAc?$AA?$AN?$AA?$AA@| [ DATA ] ; `string'
	EXPORT	|??_C@_1FG@GGAKBCDG@?$AAS?$AAe?$AAl?$AAe?$AAc?$AAt?$AA?5?$AAF?$AAi?$AAl?$AAe?$AA?5?$AAT?$AAr?$AAa?$AAn?$AAs?$AAf?$AAe?$AAr?$AA?5?$AAf?$AAr?$AAo?$AAm?$AA?5?$AAS?$AAD?$AA?5?$AAC?$AAa?$AAr@| [ DATA ] ; `string'

  00000			 AREA	 |.pdata|, PDATA
|$T49525| DCD	|$LN27@SDtoFlash|
	DCD	0x40003a01

  00000			 AREA	 |.rdata|, DATA, READONLY
|??_C@_1BI@CCBAMNMF@?$AA?5?$AAR?$AAe?$AAa?$AAd?$AAi?$AAn?$AAg?$AA?5?$AA?3?$AA?5?$AA?$AA@| DCB " "
	DCB	0x0, "R", 0x0, "e", 0x0, "a", 0x0, "d", 0x0, "i", 0x0, "n"
	DCB	0x0, "g", 0x0, " ", 0x0, ":", 0x0, " ", 0x0, 0x0, 0x0 ; `string'

  00000			 AREA	 |.rdata|, DATA, READONLY
|??_C@_1CA@ILICILPM@?$AAF?$AAi?$AAl?$AAe?$AA?5?$AAR?$AAe?$AAa?$AAd?$AA?5?$AAo?$AAk?$AA?$CB?$AA?$CB?$AA?6?$AA?$AA@| DCB "F"
	DCB	0x0, "i", 0x0, "l", 0x0, "e", 0x0, " ", 0x0, "R", 0x0, "e"
	DCB	0x0, "a", 0x0, "d", 0x0, " ", 0x0, "o", 0x0, "k", 0x0, "!"
	DCB	0x0, "!", 0x0, 0xa, 0x0, 0x0, 0x0	; `string'

  00000			 AREA	 |.rdata|, DATA, READONLY
|??_C@_1BI@JJGNKHCB@?$AA?5?$AAW?$AAr?$AAi?$AAt?$AAi?$AAn?$AAg?$AA?5?$AA?3?$AA?5?$AA?$AA@| DCB " "
	DCB	0x0, "W", 0x0, "r", 0x0, "i", 0x0, "t", 0x0, "i", 0x0, "n"
	DCB	0x0, "g", 0x0, " ", 0x0, ":", 0x0, " ", 0x0, 0x0, 0x0 ; `string'

  00000			 AREA	 |.rdata|, DATA, READONLY
|??_C@_1CG@BPLJMLOC@?$AAF?$AAi?$AAl?$AAe?$AA?5?$AAW?$AAr?$AAi?$AAt?$AAt?$AAe?$AAn?$AA?5?$AAo?$AAk?$AA?$CB?$AA?$CB?$AA?6?$AA?$AA@| DCB "F"
	DCB	0x0, "i", 0x0, "l", 0x0, "e", 0x0, " ", 0x0, "W", 0x0, "r"
	DCB	0x0, "i", 0x0, "t", 0x0, "t", 0x0, "e", 0x0, "n", 0x0, " "
	DCB	0x0, "o", 0x0, "k", 0x0, "!", 0x0, "!", 0x0, 0xa, 0x0, 0x0
	DCB	0x0					; `string'

  00000			 AREA	 |.rdata|, DATA, READONLY
|??_C@_17FHEBOJIN@?$AA?$CF?$AAc?$AA?$AN?$AA?$AA@| DCB "%", 0x0, "c", 0x0, 0xd
	DCB	0x0, 0x0, 0x0				; `string'

  00000			 AREA	 |.rdata|, DATA, READONLY
|??_C@_1FG@GGAKBCDG@?$AAS?$AAe?$AAl?$AAe?$AAc?$AAt?$AA?5?$AAF?$AAi?$AAl?$AAe?$AA?5?$AAT?$AAr?$AAa?$AAn?$AAs?$AAf?$AAe?$AAr?$AA?5?$AAf?$AAr?$AAo?$AAm?$AA?5?$AAS?$AAD?$AA?5?$AAC?$AAa?$AAr@| DCB "S"
	DCB	0x0, "e", 0x0, "l", 0x0, "e", 0x0, "c", 0x0, "t", 0x0, " "
	DCB	0x0, "F", 0x0, "i", 0x0, "l", 0x0, "e", 0x0, " ", 0x0, "T"
	DCB	0x0, "r", 0x0, "a", 0x0, "n", 0x0, "s", 0x0, "f", 0x0, "e"
	DCB	0x0, "r", 0x0, " ", 0x0, "f", 0x0, "r", 0x0, "o", 0x0, "m"
	DCB	0x0, " ", 0x0, "S", 0x0, "D", 0x0, " ", 0x0, "C", 0x0, "a"
	DCB	0x0, "r", 0x0, "d", 0x0, " ", 0x0, "t", 0x0, "o", 0x0, " "
	DCB	0x0, "F", 0x0, "l", 0x0, "a", 0x0, "s", 0x0, "h", 0x0, 0x0
	DCB	0x0					; `string'
; Function compile flags: /Ogspy

  00000			 AREA	 |.text|, CODE, ARM

  00000		 |SDtoFlash| PROC

; 1076 : {

  00000		 |$LN27@SDtoFlash|
  00000	e92d4030	 stmdb       sp!, {r4, r5, lr}
  00004		 |$M49522|

; 1077 : 	WCHAR key;
; 1078 : 	UINT32 i;
; 1079 : //	BOOL read;
; 1080 : //  BOOL write;
; 1081 : 	BOOL check = TRUE;
; 1082 : //  char size[500];
; 1083 : //  OAL_BLMENU_ITEM dumpFlashBuFunc;
; 1084 : //	int ch;
; 1085 : 	
; 1086 : 	//This function Initial SD Card file prepare file R/W
; 1087 : 	//pRead =
; 1088 : 	//BLSDtoFlash();
; 1089 : 	//check = BLSDCardToFlash(L"OUT_DATA.txt");
; 1090 : 	//read = BLSDtoFlash();
; 1091 :     //OEMWriteFlash(IMAGE_STARTUP_IMAGE_PA,
; 1092 :     //? Ray 13-09-16 
; 1093 :     /*write = WriteFlashFromEEBOOT(IMAGE_STARTUP_IMAGE_PA,
; 1094 :                          IMAGE_XLDR_BOOTSEC_NAND_SIZE + IMAGE_EBOOT_CODE_SIZE+
; 1095 :                          IMAGE_BOOTLOADER_BITMAP_SIZE + 8);*/
; 1096 : 
; 1097 :     /*write = WriteFlashNK(IMAGE_STARTUP_IMAGE_PA,
; 1098 :                          IMAGE_XLDR_BOOTSEC_NAND_SIZE + IMAGE_EBOOT_CODE_SIZE+
; 1099 :                          IMAGE_BOOTLOADER_BITMAP_SIZE + 8);*/
; 1100 : 
; 1101 :     //pRead  = fopen("c:/wince600/file/output_data.txt", "r");
; 1102 : 	//pWrite = fopen("c:/wince600/file/input_data.txt", "w");
; 1103 : 	
; 1104 : 	UNREFERENCED_PARAMETER(pMenu);
; 1105 : 	OALBLMenuHeader(L"Select File Transfer from SD Card to Flash");

  00004	e59f00d8	 ldr         r0, [pc, #0xD8]
  00008	eb000000	 bl          OALBLMenuHeader
  0000c	e59f40cc	 ldr         r4, [pc, #0xCC]

; 1106 : 
; 1107 : 	for(i=0; i<FLASH_EXIT; i++){

  00010	e3a05000	 mov         r5, #0
  00014		 |$LL17@SDtoFlash|

; 1108 : 		OALLog(L" [%d] %s\r\n", i+1, sdToFlash[i].sdName);

  00014	e5942004	 ldr         r2, [r4, #4]
  00018	e59f00bc	 ldr         r0, [pc, #0xBC]
  0001c	e2855001	 add         r5, r5, #1
  00020	e1a01005	 mov         r1, r5
  00024	eb000000	 bl          NKDbgPrintfW
  00028	e2844008	 add         r4, r4, #8
  0002c	e3550003	 cmp         r5, #3
  00030	3afffff7	 bcc         |$LL17@SDtoFlash|

; 1109 : 	}
; 1110 : 	OALLog(L" [0] Exit and Continue\r\n");

  00034	e59f009c	 ldr         r0, [pc, #0x9C]
  00038	eb000000	 bl          NKDbgPrintfW

; 1111 : 
; 1112 : 	OALLog(L"\r\n Selection : ");

  0003c	e59f0090	 ldr         r0, [pc, #0x90]
  00040	eb000000	 bl          NKDbgPrintfW
  00044		 |$LL14@SDtoFlash|

; 1113 : 	
; 1114 : 	do{
; 1115 : 		key = OALBLMenuReadKey(TRUE);

  00044	e3a00001	 mov         r0, #1
  00048	eb000000	 bl          OALBLMenuReadKey
  0004c	e1a04800	 mov         r4, r0, lsl #16
  00050	e1a04824	 mov         r4, r4, lsr #16

; 1116 : 	}while(key < L'0' || key > '0'+i);

  00054	e3540030	 cmp         r4, #0x30
  00058	3afffff9	 bcc         |$LL14@SDtoFlash|
  0005c	e2853030	 add         r3, r5, #0x30
  00060	e1540003	 cmp         r4, r3
  00064	8afffff6	 bhi         |$LL14@SDtoFlash|

; 1117 : 
; 1118 :     /*if(key < L'0' || key > '0'+2){
; 1119 :         break;
; 1120 :     }else if (key == '3'){
; 1121 : 
; 1122 :     }*/
; 1123 : 
; 1124 : 	OALLog(L"%c\r", key);

  00068	e59f0060	 ldr         r0, [pc, #0x60]
  0006c	e1a01004	 mov         r1, r4
  00070	eb000000	 bl          NKDbgPrintfW

; 1125 : 	
; 1126 : 	switch(key)

  00074	e3540031	 cmp         r4, #0x31
  00078	0a000005	 beq         |$LN9@SDtoFlash|
  0007c	e3540032	 cmp         r4, #0x32
  00080	1a000007	 bne         |$LN7@SDtoFlash|

; 1133 :             }else{
; 1134 : 				OALLog(L"File Read failure!!\n");
; 1135 : 			} 
; 1136 : 			
; 1137 : 			/*if((pRead != NULL) && (pWrite!= NULL))
; 1138 : 			{
; 1139 : 				OALLog(L"\tReading: \r");
; 1140 : 				while((ch = getc(pWrite)) != EOF)
; 1141 : 				{
; 1142 : 					OALLog(L"%c,\r\n", ch);
; 1143 : 				}
; 1144 : 				OALLog(L"\rFile Read end!!\n");
; 1145 : 				fclose(pRead);
; 1146 : 				fclose(pWrite);
; 1147 : 			}else{
; 1148 : 				OALLog(L"\rFile Read failure!!\n");
; 1149 : 			}*/
; 1150 : 			break;
; 1151 : 		case L'2':                  //Ray 13-09-14
; 1152 :             OALLog(L" Writing : ");

  00084	e59f0040	 ldr         r0, [pc, #0x40]
  00088	eb000000	 bl          NKDbgPrintfW

; 1153 :             
; 1154 :             if(/*write ==*/ check){
; 1155 :                 OALLog(L"File Written ok!!\n");

  0008c	e59f0034	 ldr         r0, [pc, #0x34]

; 1156 :             }else{  
; 1157 :                 OALLog(L"File Write failure!!\n");
; 1158 :             }
; 1159 :          
; 1160 :             /*if((pRead != NULL) && (pWrite!= NULL))
; 1161 : 			{
; 1162 : 				while( (ch = getc(pRead)) != EOF)
; 1163 : 				{
; 1164 : 					putc(ch, pWrite);
; 1165 : 				}
; 1166 : 				OALLog(L"\rFile Write end!!\n");
; 1167 : 			}else{
; 1168 : 				OALLog(L"\rFile Read failure!!\n");
; 1169 : 			}*/
; 1170 : 			break;

  00090	ea000002	 b           |$LN24@SDtoFlash|
  00094		 |$LN9@SDtoFlash|

; 1127 : 	{
; 1128 : 		case L'1':
; 1129 :             OALLog(L" Reading : ");

  00094	e59f0028	 ldr         r0, [pc, #0x28]
  00098	eb000000	 bl          NKDbgPrintfW

; 1130 :             
; 1131 : 			if(/*read==*/check){
; 1132 : 				OALLog(L"File Read ok!!\n");

  0009c	e59f001c	 ldr         r0, [pc, #0x1C]
  000a0		 |$LN24@SDtoFlash|
  000a0	eb000000	 bl          NKDbgPrintfW
  000a4		 |$LN7@SDtoFlash|

; 1171 :        case L'3':
; 1172 :             //OALLog(L" Show .nb0 Data : ");
; 1173 :             //VOID DumpFlash(OAL_BLMENU_ITEM *pMenu)
; 1174 :             //dumpFlashBuFunc.pfnAction = DumpFlashBuffer;//dumpFlashBufer;
; 1175 :             //dumpFlashBuFunc.pfnAction = DumpFlashBuffer; 
; 1176 :             break;
; 1177 : 		default:break;
; 1178 : 	}
; 1179 : 		
; 1180 : 	// If user select exit, don't any change device		//Ray 13-09-04	
; 1181 : 	if(key == L'0')return;

  000a4	e3540030	 cmp         r4, #0x30

; 1182 : 
; 1183 : 	//Call ShowSettings() , show current settings status
; 1184 : 	g_bootCfg.sdtoflash = (key - L'0' - 1);

  000a8	159f200c	 ldrne       r2, [pc, #0xC]
  000ac	12443031	 subne       r3, r4, #0x31
  000b0	15823074	 strne       r3, [r2, #0x74]

; 1185 : }

  000b4	e8bd4030	 ldmia       sp!, {r4, r5, lr}
  000b8	e12fff1e	 bx          lr
  000bc		 |$LN28@SDtoFlash|
  000bc		 |$LN29@SDtoFlash|
  000bc	00000000	 DCD         |g_bootCfg|
  000c0		 |$LN30@SDtoFlash|
  000c0	00000000	 DCD         |??_C@_1CA@ILICILPM@?$AAF?$AAi?$AAl?$AAe?$AA?5?$AAR?$AAe?$AAa?$AAd?$AA?5?$AAo?$AAk?$AA?$CB?$AA?$CB?$AA?6?$AA?$AA@|
  000c4		 |$LN31@SDtoFlash|
  000c4	00000000	 DCD         |??_C@_1BI@CCBAMNMF@?$AA?5?$AAR?$AAe?$AAa?$AAd?$AAi?$AAn?$AAg?$AA?5?$AA?3?$AA?5?$AA?$AA@|
  000c8		 |$LN32@SDtoFlash|
  000c8	00000000	 DCD         |??_C@_1CG@BPLJMLOC@?$AAF?$AAi?$AAl?$AAe?$AA?5?$AAW?$AAr?$AAi?$AAt?$AAt?$AAe?$AAn?$AA?5?$AAo?$AAk?$AA?$CB?$AA?$CB?$AA?6?$AA?$AA@|
  000cc		 |$LN33@SDtoFlash|
  000cc	00000000	 DCD         |??_C@_1BI@JJGNKHCB@?$AA?5?$AAW?$AAr?$AAi?$AAt?$AAi?$AAn?$AAg?$AA?5?$AA?3?$AA?5?$AA?$AA@|
  000d0		 |$LN34@SDtoFlash|
  000d0	00000000	 DCD         |??_C@_17FHEBOJIN@?$AA?$CF?$AAc?$AA?$AN?$AA?$AA@|
  000d4		 |$LN35@SDtoFlash|
  000d4	00000000	 DCD         |??_C@_1CA@LBCOEEPJ@?$AA?$AN?$AA?6?$AA?5?$AAS?$AAe?$AAl?$AAe?$AAc?$AAt?$AAi?$AAo?$AAn?$AA?5?$AA?3?$AA?5?$AA?$AA@|
  000d8		 |$LN36@SDtoFlash|
  000d8	00000000	 DCD         |??_C@_1DC@KGICMHCL@?$AA?5?$AA?$FL?$AA0?$AA?$FN?$AA?5?$AAE?$AAx?$AAi?$AAt?$AA?5?$AAa?$AAn?$AAd?$AA?5?$AAC?$AAo?$AAn?$AAt?$AAi?$AAn?$AAu?$AAe?$AA?$AN?$AA?6?$AA?$AA@|
  000dc		 |$LN37@SDtoFlash|
  000dc	00000000	 DCD         |??_C@_1BG@LMIBJJCD@?$AA?5?$AA?$FL?$AA?$CF?$AAd?$AA?$FN?$AA?5?$AA?$CF?$AAs?$AA?$AN?$AA?6?$AA?$AA@|
  000e0		 |$LN38@SDtoFlash|
  000e0	00000000	 DCD         |sdToFlash|
  000e4		 |$LN39@SDtoFlash|
  000e4	00000000	 DCD         |??_C@_1FG@GGAKBCDG@?$AAS?$AAe?$AAl?$AAe?$AAc?$AAt?$AA?5?$AAF?$AAi?$AAl?$AAe?$AA?5?$AAT?$AAr?$AAa?$AAn?$AAs?$AAf?$AAe?$AAr?$AA?5?$AAf?$AAr?$AAo?$AAm?$AA?5?$AAS?$AAD?$AA?5?$AAC?$AAa?$AAr@|
  000e8		 |$M49523|

			 ENDP  ; |SDtoFlash|

	EXPORT	|??_C@_1CM@IBBBDEFC@?$AAL?$AAC?$AAM?$AA?5?$AAI?$AAn?$AAi?$AAt?$AAi?$AAa?$AAl?$AA?5?$AAa?$AAn?$AAd?$AA?5?$AAC?$AAh?$AAe?$AAc?$AAk?$AA?$AA@| [ DATA ] ; `string'
	IMPORT	|LcdStall|
	IMPORT	|FillASCII|
	IMPORT	|spi_Low|

  00000			 AREA	 |.pdata|, PDATA
|$T49550| DCD	|$LN21@LCMInitial|
	DCD	0x40003401

  00000			 AREA	 |.rdata|, DATA, READONLY
|??_C@_1CM@IBBBDEFC@?$AAL?$AAC?$AAM?$AA?5?$AAI?$AAn?$AAi?$AAt?$AAi?$AAa?$AAl?$AA?5?$AAa?$AAn?$AAd?$AA?5?$AAC?$AAh?$AAe?$AAc?$AAk?$AA?$AA@| DCB "L"
	DCB	0x0, "C", 0x0, "M", 0x0, " ", 0x0, "I", 0x0, "n", 0x0, "i"
	DCB	0x0, "t", 0x0, "i", 0x0, "a", 0x0, "l", 0x0, " ", 0x0, "a"
	DCB	0x0, "n", 0x0, "d", 0x0, " ", 0x0, "C", 0x0, "h", 0x0, "e"
	DCB	0x0, "c", 0x0, "k", 0x0, 0x0, 0x0	; `string'
; Function compile flags: /Ogspy

  00000			 AREA	 |.text|, CODE, ARM

  00000		 |LCMInitial| PROC

; 1191 : {

  00000		 |$LN21@LCMInitial|
  00000	e92d4030	 stmdb       sp!, {r4, r5, lr}
  00004		 |$M49547|

; 1192 :     WCHAR key;
; 1193 :     UINT32 i;
; 1194 :     DWORD dTime = 10000000;
; 1195 : 
; 1196 :     UNREFERENCED_PARAMETER(pMenu);
; 1197 :     
; 1198 :     OALBLMenuHeader(L"LCM Initial and Check");

  00004	e59f00c0	 ldr         r0, [pc, #0xC0]
  00008	eb000000	 bl          OALBLMenuHeader
  0000c	e59f40b4	 ldr         r4, [pc, #0xB4]

; 1199 :     
; 1200 :     for (i=0; i<LCM_EXIT; i++)

  00010	e3a05000	 mov         r5, #0
  00014		 |$LL12@LCMInitial|

; 1201 :     {
; 1202 :         OALLog(L" [%d] %s\r\n", i+1 , LCMInitiaArray[i].lcmIniName);

  00014	e5942004	 ldr         r2, [r4, #4]
  00018	e59f00a4	 ldr         r0, [pc, #0xA4]
  0001c	e2855001	 add         r5, r5, #1
  00020	e1a01005	 mov         r1, r5
  00024	eb000000	 bl          NKDbgPrintfW
  00028	e2844008	 add         r4, r4, #8
  0002c	e3550002	 cmp         r5, #2
  00030	3afffff7	 bcc         |$LL12@LCMInitial|

; 1203 :     }
; 1204 :     OALLog(L" [0] Exit and Continue\r\n");

  00034	e59f0084	 ldr         r0, [pc, #0x84]
  00038	eb000000	 bl          NKDbgPrintfW

; 1205 : 
; 1206 :     OALLog(L"\r\n Selection : ");

  0003c	e59f0078	 ldr         r0, [pc, #0x78]
  00040	eb000000	 bl          NKDbgPrintfW
  00044		 |$LL9@LCMInitial|

; 1207 :     // Get key
; 1208 :     do {
; 1209 :         key = OALBLMenuReadKey(TRUE);

  00044	e3a00001	 mov         r0, #1
  00048	eb000000	 bl          OALBLMenuReadKey
  0004c	e1a04800	 mov         r4, r0, lsl #16
  00050	e1a04824	 mov         r4, r4, lsr #16

; 1210 :     } while (key < L'0' || key > L'0'+ i);

  00054	e3540030	 cmp         r4, #0x30
  00058	3afffff9	 bcc         |$LL9@LCMInitial|
  0005c	e2853030	 add         r3, r5, #0x30
  00060	e1540003	 cmp         r4, r3
  00064	8afffff6	 bhi         |$LL9@LCMInitial|

; 1211 :     
; 1212 :     OALLog(L"%c\r\n", key);

  00068	e59f0048	 ldr         r0, [pc, #0x48]
  0006c	e1a01004	 mov         r1, r4
  00070	eb000000	 bl          NKDbgPrintfW

; 1213 : 
; 1214 : 
; 1215 :     switch(key)

  00074	e3540031	 cmp         r4, #0x31
  00078	0a000003	 beq         |$LN4@LCMInitial|
  0007c	e3540032	 cmp         r4, #0x32
  00080	1a000004	 bne         |$LN5@LCMInitial|

; 1221 : 			break;
; 1222 : 		case L'2':
; 1223 :             spi_Low();

  00084	eb000000	 bl          spi_Low

; 1224 :             break;

  00088	ea000002	 b           |$LN5@LCMInitial|
  0008c		 |$LN4@LCMInitial|

; 1216 : 	{
; 1217 : 		case L'1':
; 1218 : 		    FillASCII();

  0008c	eb000000	 bl          FillASCII

; 1219 :             //LCD_SPI_Init();
; 1220 :             LcdStall(dTime);

  00090	e59f001c	 ldr         r0, [pc, #0x1C]
  00094	eb000000	 bl          LcdStall
  00098		 |$LN5@LCMInitial|

; 1225 : 		default:
; 1226 : 			break;
; 1227 : 	}
; 1228 :     
; 1229 :     // If user select exit don't change device
; 1230 :     if (key == L'0') return;

  00098	e3540030	 cmp         r4, #0x30

; 1231 : 
; 1232 :     g_bootCfg.lcmInitial = (key - L'0' - 1);

  0009c	159f200c	 ldrne       r2, [pc, #0xC]
  000a0	12443031	 subne       r3, r4, #0x31
  000a4	1582307c	 strne       r3, [r2, #0x7C]

; 1233 : 
; 1234 : }

  000a8	e8bd4030	 ldmia       sp!, {r4, r5, lr}
  000ac	e12fff1e	 bx          lr
  000b0		 |$LN22@LCMInitial|
  000b0		 |$LN23@LCMInitial|
  000b0	00000000	 DCD         |g_bootCfg|
  000b4		 |$LN24@LCMInitial|
  000b4	00989680	 DCD         0x989680
  000b8		 |$LN25@LCMInitial|
  000b8	00000000	 DCD         |??_C@_19DIEGALPP@?$AA?$CF?$AAc?$AA?$AN?$AA?6?$AA?$AA@|
  000bc		 |$LN26@LCMInitial|
  000bc	00000000	 DCD         |??_C@_1CA@LBCOEEPJ@?$AA?$AN?$AA?6?$AA?5?$AAS?$AAe?$AAl?$AAe?$AAc?$AAt?$AAi?$AAo?$AAn?$AA?5?$AA?3?$AA?5?$AA?$AA@|
  000c0		 |$LN27@LCMInitial|
  000c0	00000000	 DCD         |??_C@_1DC@KGICMHCL@?$AA?5?$AA?$FL?$AA0?$AA?$FN?$AA?5?$AAE?$AAx?$AAi?$AAt?$AA?5?$AAa?$AAn?$AAd?$AA?5?$AAC?$AAo?$AAn?$AAt?$AAi?$AAn?$AAu?$AAe?$AA?$AN?$AA?6?$AA?$AA@|
  000c4		 |$LN28@LCMInitial|
  000c4	00000000	 DCD         |??_C@_1BG@LMIBJJCD@?$AA?5?$AA?$FL?$AA?$CF?$AAd?$AA?$FN?$AA?5?$AA?$CF?$AAs?$AA?$AN?$AA?6?$AA?$AA@|
  000c8		 |$LN29@LCMInitial|
  000c8	00000000	 DCD         |LCMInitiaArray|
  000cc		 |$LN30@LCMInitial|
  000cc	00000000	 DCD         |??_C@_1CM@IBBBDEFC@?$AAL?$AAC?$AAM?$AA?5?$AAI?$AAn?$AAi?$AAt?$AAi?$AAa?$AAl?$AA?5?$AAa?$AAn?$AAd?$AA?5?$AAC?$AAh?$AAe?$AAc?$AAk?$AA?$AA@|
  000d0		 |$M49548|

			 ENDP  ; |LCMInitial|

	EXPORT	|BQ27410_WriteReg|
	EXPORT	|??_C@_1DA@GEGKHPJM@?$AA?$AN?$AA?5?$AAB?$AAQ?$AA2?$AA7?$AA4?$AA1?$AA0?$AA_?$AAW?$AAr?$AAi?$AAt?$AAe?$AAR?$AAe?$AAg?$AA?3?$AA?$CF?$AAd?$AA?$AN?$AA?6?$AA?$AA@| [ DATA ] ; `string'
	EXPORT	|??_C@_1EI@MBAGMDEO@?$AA?5?$AAE?$AAR?$AAR?$AAO?$AAR?$AA?3?$AA?5?$AAB?$AAQ?$AA2?$AA7?$AA4?$AA1?$AA0?$AA_?$AAW?$AAr?$AAi?$AAt?$AAe?$AAR?$AAe?$AAg?$AA?5?$AAF?$AAa?$AAi?$AAl?$AAe?$AAd?$AA?$CB@| [ DATA ] ; `string'
	EXPORT	|??_C@_1EG@DMCHGNNH@?$AA?$AN?$AA?5?$AAT?$AAe?$AAs?$AAt?$AAi?$AAn?$AAg?$AA?5?$AAI?$AA2?$AAC?$AAW?$AAr?$AAi?$AAt?$AAe?$AA?$CI?$AA?$CJ?$AA?5?$AAo?$AAf?$AA?5?$AAh?$AAI?$AA2?$AAC?$AA?3?$AA?5?$AA?$CF?$AAX@| [ DATA ] ; `string'
	EXPORT	|??_C@_1FC@BOBMMKHJ@?$AA?$AN?$AA?5?$AA?9?$AA?9?$AA?9?$AA?9?$AA?9?$AA?9?$AA?9?$AA?9?$AA?9?$AA?9?$AA?9?$AA?9?$AA?9?$AA?9?$AA?9?$AA?9?$AA?9?$AA?9?$AA?9?$AA?9?$AA?9?$AA?9?$AA?9?$AA?9?$AA?9?$AA?9?$AA?9?$AA?9?$AA?9?$AA?9@| [ DATA ] ; `string'
	EXPORT	|??_C@_1FC@LHBGLCOO@?$AA?$AN?$AA?5?$AAA?$AAn?$AAd?$AA?5?$AAT?$AAe?$AAs?$AAt?$AAi?$AAn?$AAg?$AA?5?$AAI?$AA2?$AAC?$AAW?$AAr?$AAi?$AAt?$AAe?$AA?$CI?$AA?$CJ?$AA?5?$AAa?$AAf?$AAt?$AAe?$AAr?$AA?5?$AAl@| [ DATA ] ; `string'
	IMPORT	|I2CWrite|

  00000			 AREA	 |.bss|, NOINIT
|hI2C|	%	0x4
|hI2C|	%	0x4

  00000			 AREA	 |.pdata|, PDATA
|$T49571| DCD	|$LN8@BQ27410_Wr|
	DCD	0x40002a03

  00000			 AREA	 |.rdata|, DATA, READONLY
|??_C@_1DA@GEGKHPJM@?$AA?$AN?$AA?5?$AAB?$AAQ?$AA2?$AA7?$AA4?$AA1?$AA0?$AA_?$AAW?$AAr?$AAi?$AAt?$AAe?$AAR?$AAe?$AAg?$AA?3?$AA?$CF?$AAd?$AA?$AN?$AA?6?$AA?$AA@| DCB 0xd
	DCB	0x0, " ", 0x0, "B", 0x0, "Q", 0x0, "2", 0x0, "7", 0x0, "4"
	DCB	0x0, "1", 0x0, "0", 0x0, "_", 0x0, "W", 0x0, "r", 0x0, "i"
	DCB	0x0, "t", 0x0, "e", 0x0, "R", 0x0, "e", 0x0, "g", 0x0, ":"
	DCB	0x0, "%", 0x0, "d", 0x0, 0xd, 0x0, 0xa, 0x0, 0x0, 0x0 ; `string'

  00000			 AREA	 |.rdata|, DATA, READONLY
|??_C@_1EI@MBAGMDEO@?$AA?5?$AAE?$AAR?$AAR?$AAO?$AAR?$AA?3?$AA?5?$AAB?$AAQ?$AA2?$AA7?$AA4?$AA1?$AA0?$AA_?$AAW?$AAr?$AAi?$AAt?$AAe?$AAR?$AAe?$AAg?$AA?5?$AAF?$AAa?$AAi?$AAl?$AAe?$AAd?$AA?$CB@| DCB " "
	DCB	0x0, "E", 0x0, "R", 0x0, "R", 0x0, "O", 0x0, "R", 0x0, ":"
	DCB	0x0, " ", 0x0, "B", 0x0, "Q", 0x0, "2", 0x0, "7", 0x0, "4"
	DCB	0x0, "1", 0x0, "0", 0x0, "_", 0x0, "W", 0x0, "r", 0x0, "i"
	DCB	0x0, "t", 0x0, "e", 0x0, "R", 0x0, "e", 0x0, "g", 0x0, " "
	DCB	0x0, "F", 0x0, "a", 0x0, "i", 0x0, "l", 0x0, "e", 0x0, "d"
	DCB	0x0, "!", 0x0, "!", 0x0, 0xd, 0x0, 0xa, 0x0, 0x0, 0x0 ; `string'

  00000			 AREA	 |.rdata|, DATA, READONLY
|??_C@_1EG@DMCHGNNH@?$AA?$AN?$AA?5?$AAT?$AAe?$AAs?$AAt?$AAi?$AAn?$AAg?$AA?5?$AAI?$AA2?$AAC?$AAW?$AAr?$AAi?$AAt?$AAe?$AA?$CI?$AA?$CJ?$AA?5?$AAo?$AAf?$AA?5?$AAh?$AAI?$AA2?$AAC?$AA?3?$AA?5?$AA?$CF?$AAX@| DCB 0xd
	DCB	0x0, " ", 0x0, "T", 0x0, "e", 0x0, "s", 0x0, "t", 0x0, "i"
	DCB	0x0, "n", 0x0, "g", 0x0, " ", 0x0, "I", 0x0, "2", 0x0, "C"
	DCB	0x0, "W", 0x0, "r", 0x0, "i", 0x0, "t", 0x0, "e", 0x0, "("
	DCB	0x0, ")", 0x0, " ", 0x0, "o", 0x0, "f", 0x0, " ", 0x0, "h"
	DCB	0x0, "I", 0x0, "2", 0x0, "C", 0x0, ":", 0x0, " ", 0x0, "%"
	DCB	0x0, "X", 0x0, 0xd, 0x0, 0xa, 0x0, 0x0, 0x0 ; `string'

  00000			 AREA	 |.rdata|, DATA, READONLY
|??_C@_1FC@BOBMMKHJ@?$AA?$AN?$AA?5?$AA?9?$AA?9?$AA?9?$AA?9?$AA?9?$AA?9?$AA?9?$AA?9?$AA?9?$AA?9?$AA?9?$AA?9?$AA?9?$AA?9?$AA?9?$AA?9?$AA?9?$AA?9?$AA?9?$AA?9?$AA?9?$AA?9?$AA?9?$AA?9?$AA?9?$AA?9?$AA?9?$AA?9?$AA?9?$AA?9@| DCB 0xd
	DCB	0x0, " ", 0x0, "-", 0x0, "-", 0x0, "-", 0x0, "-", 0x0, "-"
	DCB	0x0, "-", 0x0, "-", 0x0, "-", 0x0, "-", 0x0, "-", 0x0, "-"
	DCB	0x0, "-", 0x0, "-", 0x0, "-", 0x0, "-", 0x0, "-", 0x0, "-"
	DCB	0x0, "-", 0x0, "-", 0x0, "-", 0x0, "-", 0x0, "-", 0x0, "-"
	DCB	0x0, "-", 0x0, "-", 0x0, "-", 0x0, "-", 0x0, "-", 0x0, "-"
	DCB	0x0, "-", 0x0, "-", 0x0, "-", 0x0, "-", 0x0, "-", 0x0, "-"
	DCB	0x0, "-", 0x0, 0xd, 0x0, 0xa, 0x0, 0x0, 0x0 ; `string'

  00000			 AREA	 |.rdata|, DATA, READONLY
|??_C@_1FC@LHBGLCOO@?$AA?$AN?$AA?5?$AAA?$AAn?$AAd?$AA?5?$AAT?$AAe?$AAs?$AAt?$AAi?$AAn?$AAg?$AA?5?$AAI?$AA2?$AAC?$AAW?$AAr?$AAi?$AAt?$AAe?$AA?$CI?$AA?$CJ?$AA?5?$AAa?$AAf?$AAt?$AAe?$AAr?$AA?5?$AAl@| DCB 0xd
	DCB	0x0, " ", 0x0, "A", 0x0, "n", 0x0, "d", 0x0, " ", 0x0, "T"
	DCB	0x0, "e", 0x0, "s", 0x0, "t", 0x0, "i", 0x0, "n", 0x0, "g"
	DCB	0x0, " ", 0x0, "I", 0x0, "2", 0x0, "C", 0x0, "W", 0x0, "r"
	DCB	0x0, "i", 0x0, "t", 0x0, "e", 0x0, "(", 0x0, ")", 0x0, " "
	DCB	0x0, "a", 0x0, "f", 0x0, "t", 0x0, "e", 0x0, "r", 0x0, " "
	DCB	0x0, "l", 0x0, "e", 0x0, "n", 0x0, ":", 0x0, " ", 0x0, "%"
	DCB	0x0, "d", 0x0, 0xd, 0x0, 0xa, 0x0, 0x0, 0x0 ; `string'
; Function compile flags: /Ogspy

  00000			 AREA	 |.text|, CODE, ARM

  00000		 |BQ27410_WriteReg| PROC

; 1248 : {

  00000		 |$LN8@BQ27410_Wr|
  00000	e1a0c00d	 mov         r12, sp
  00004	e92d000f	 stmdb       sp!, {r0 - r3}
  00008	e92d5070	 stmdb       sp!, {r4 - r6, r12, lr}
  0000c		 |$M49568|
  0000c	e1a06000	 mov         r6, r0

; 1249 :     BOOL rc = FALSE;
; 1250 :     UINT len;
; 1251 :     
; 1252 :     //OALLog(L"\r Testing I2COpen()\r\n"); 
; 1253 :     //hI2C = I2COpen(OMAP_DEVICE_I2C3);
; 1254 :    
; 1255 :     if (hI2C)

  00010	e59f408c	 ldr         r4, [pc, #0x8C]
  00014	e3a05000	 mov         r5, #0
  00018	e5941000	 ldr         r1, [r4]
  0001c	e3510000	 cmp         r1, #0
  00020	0a000014	 beq         |$LN1@BQ27410_Wr|

; 1256 :     {
; 1257 :         OALLog(L"\r Testing I2CWrite() of hI2C: %X\r\n", hI2C);

  00024	e59f0074	 ldr         r0, [pc, #0x74]
  00028	eb000000	 bl          NKDbgPrintfW

; 1258 :         OALLog(L"\r ------------------------------------\r\n");

  0002c	e59f0068	 ldr         r0, [pc, #0x68]
  00030	eb000000	 bl          NKDbgPrintfW

; 1259 :         //handle , ,0x0C ,2Bytes  
; 1260 :         //len = I2CWrite(hI2C, bq27410CMD_CNTL_MSB, CHRG_VOLT, 2);
; 1261 :         len = I2CWrite(hI2C, subAddr, &value, sizeof(UINT16));

  00034	e5940000	 ldr         r0, [r4]
  00038	e3a03002	 mov         r3, #2
  0003c	e28d2018	 add         r2, sp, #0x18
  00040	e1a01006	 mov         r1, r6
  00044	eb000000	 bl          I2CWrite
  00048	e1a04000	 mov         r4, r0

; 1262 :         OALLog(L"\r ------------------------------------\r\n");

  0004c	e59f0048	 ldr         r0, [pc, #0x48]
  00050	eb000000	 bl          NKDbgPrintfW

; 1263 :         //UINT16 = 2Bytes..., so return len = 2                   
; 1264 :         OALLog(L"\r And Testing I2CWrite() after len: %d\r\n", len);

  00054	e59f003c	 ldr         r0, [pc, #0x3C]
  00058	e1a01004	 mov         r1, r4
  0005c	eb000000	 bl          NKDbgPrintfW

; 1265 :         
; 1266 :         if ( len != sizeof(UINT16)) 

  00060	e3540002	 cmp         r4, #2
  00064	0a000002	 beq         |$LN2@BQ27410_Wr|

; 1267 :         	RETAILMSG(1,(L" ERROR: BQ27410_WriteReg Failed!!\r\n"));

  00068	e59f0024	 ldr         r0, [pc, #0x24]
  0006c	eb000000	 bl          NKDbgPrintfW

; 1268 : 		else

  00070	ea000000	 b           |$LN1@BQ27410_Wr|
  00074		 |$LN2@BQ27410_Wr|

; 1269 : 			rc = TRUE;  //len are 2Bytes

  00074	e3a05001	 mov         r5, #1
  00078		 |$LN1@BQ27410_Wr|

; 1270 : 	}
; 1271 : 	
; 1272 : 	OALLog(L"\r BQ27410_WriteReg:%d\r\n",rc);

  00078	e59f0010	 ldr         r0, [pc, #0x10]
  0007c	e1a01005	 mov         r1, r5
  00080	eb000000	 bl          NKDbgPrintfW

; 1273 : 	return rc;
; 1274 : }

  00084	e1a00005	 mov         r0, r5
  00088	e89d6070	 ldmia       sp, {r4 - r6, sp, lr}
  0008c	e12fff1e	 bx          lr
  00090		 |$LN9@BQ27410_Wr|
  00090		 |$LN10@BQ27410_Wr|
  00090	00000000	 DCD         |??_C@_1DA@GEGKHPJM@?$AA?$AN?$AA?5?$AAB?$AAQ?$AA2?$AA7?$AA4?$AA1?$AA0?$AA_?$AAW?$AAr?$AAi?$AAt?$AAe?$AAR?$AAe?$AAg?$AA?3?$AA?$CF?$AAd?$AA?$AN?$AA?6?$AA?$AA@|
  00094		 |$LN11@BQ27410_Wr|
  00094	00000000	 DCD         |??_C@_1EI@MBAGMDEO@?$AA?5?$AAE?$AAR?$AAR?$AAO?$AAR?$AA?3?$AA?5?$AAB?$AAQ?$AA2?$AA7?$AA4?$AA1?$AA0?$AA_?$AAW?$AAr?$AAi?$AAt?$AAe?$AAR?$AAe?$AAg?$AA?5?$AAF?$AAa?$AAi?$AAl?$AAe?$AAd?$AA?$CB@|
  00098		 |$LN12@BQ27410_Wr|
  00098	00000000	 DCD         |??_C@_1FC@LHBGLCOO@?$AA?$AN?$AA?5?$AAA?$AAn?$AAd?$AA?5?$AAT?$AAe?$AAs?$AAt?$AAi?$AAn?$AAg?$AA?5?$AAI?$AA2?$AAC?$AAW?$AAr?$AAi?$AAt?$AAe?$AA?$CI?$AA?$CJ?$AA?5?$AAa?$AAf?$AAt?$AAe?$AAr?$AA?5?$AAl@|
  0009c		 |$LN13@BQ27410_Wr|
  0009c	00000000	 DCD         |??_C@_1FC@BOBMMKHJ@?$AA?$AN?$AA?5?$AA?9?$AA?9?$AA?9?$AA?9?$AA?9?$AA?9?$AA?9?$AA?9?$AA?9?$AA?9?$AA?9?$AA?9?$AA?9?$AA?9?$AA?9?$AA?9?$AA?9?$AA?9?$AA?9?$AA?9?$AA?9?$AA?9?$AA?9?$AA?9?$AA?9?$AA?9?$AA?9?$AA?9?$AA?9?$AA?9@|
  000a0		 |$LN14@BQ27410_Wr|
  000a0	00000000	 DCD         |??_C@_1EG@DMCHGNNH@?$AA?$AN?$AA?5?$AAT?$AAe?$AAs?$AAt?$AAi?$AAn?$AAg?$AA?5?$AAI?$AA2?$AAC?$AAW?$AAr?$AAi?$AAt?$AAe?$AA?$CI?$AA?$CJ?$AA?5?$AAo?$AAf?$AA?5?$AAh?$AAI?$AA2?$AAC?$AA?3?$AA?5?$AA?$CF?$AAX@|
  000a4		 |$LN15@BQ27410_Wr|
  000a4	00000000	 DCD         |hI2C|
  000a8		 |$M49569|

			 ENDP  ; |BQ27410_WriteReg|

	EXPORT	|InitI2CWithBQ27410|
	EXPORT	|??_C@_1CG@JKFIEEJ@?$AA?$AN?$AA?6?$AA?5?$AAW?$AAr?$AAi?$AAt?$AAe?$AAR?$AAe?$AAg?$AA?5?$AAO?$AAK?$AA?$CB?$AA?$CB?$AA?$AN?$AA?6?$AA?$AA@| [ DATA ] ; `string'
	EXPORT	|??_C@_1GK@PNABBOMJ@?$AAE?$AAR?$AAR?$AAO?$AAR?$AA?3?$AA?5?$AAB?$AAa?$AAt?$AAt?$AAe?$AAr?$AAy?$AAP?$AAD?$AAD?$AAI?$AAn?$AAi?$AAt?$AAi?$AAa?$AAl?$AAi?$AAz?$AAe?$AA?3?$AA?5?$AAB?$AAa?$AAt@| [ DATA ] ; `string'
	EXPORT	|??_C@_1EG@BOGIFNHC@?$AA?$AN?$AA?5?$AAT?$AAe?$AAs?$AAt?$AAi?$AAn?$AAg?$AA?5?$AAI?$AA2?$AAC?$AAS?$AAe?$AAt?$AAS?$AAu?$AAb?$AAA?$AAd?$AAd?$AAr?$AAe?$AAs?$AAs?$AAM?$AAo?$AAd?$AAe?$AA?$CI?$AA?$CJ@| [ DATA ] ; `string'
	EXPORT	|??_C@_1DO@FDDDBLEK@?$AA?$AN?$AA?5?$AAT?$AAe?$AAs?$AAt?$AAi?$AAn?$AAg?$AA?5?$AAB?$AAQ?$AA2?$AA7?$AA4?$AA1?$AA0?$AA_?$AAW?$AAr?$AAi?$AAt?$AAe?$AAR?$AAe?$AAg?$AA?$CI?$AA?$CJ?$AA?$AN?$AA?6?$AA?$AA@| [ DATA ] ; `string'
	EXPORT	|??_C@_1GG@JIPJEIK@?$AA?5?$AAE?$AAR?$AAR?$AAO?$AAR?$AA?3?$AA?5?$AAb?$AAq?$AA2?$AA7?$AA4?$AA1?$AA0?$AA_?$AAi?$AAn?$AAi?$AAt?$AA?5?$AA?9?$AA?5?$AAI?$AA2?$AAC?$AAS?$AAe?$AAt?$AAS?$AAl?$AAa@| [ DATA ] ; `string'
	EXPORT	|??_C@_1FK@BBKNPGP@?$AA?$AN?$AA?5?$AAT?$AAe?$AAs?$AAt?$AAi?$AAn?$AAg?$AA?5?$AAI?$AAn?$AAi?$AAt?$AAI?$AA2?$AAC?$AAW?$AAi?$AAt?$AAh?$AAB?$AAQ?$AA2?$AA7?$AA4?$AA1?$AA0?$AA?$CI?$AA?$CJ?$AA?5?$AAo@| [ DATA ] ; `string'
	EXPORT	|??_C@_1EC@BNHJNFGL@?$AA?$AN?$AA?5?$AAT?$AAe?$AAs?$AAt?$AAi?$AAn?$AAg?$AA?5?$AAI?$AA2?$AAC?$AAS?$AAe?$AAt?$AAS?$AAl?$AAa?$AAv?$AAe?$AAA?$AAd?$AAd?$AAr?$AAe?$AAs?$AAs?$AA?$CI?$AA?$CJ?$AA?$AN?$AA?6@| [ DATA ] ; `string'
	EXPORT	|??_C@_1GI@DCKJGFNI@?$AAE?$AAR?$AAR?$AAO?$AAR?$AA?3?$AA?5?$AAb?$AAq?$AA2?$AA7?$AA4?$AA1?$AA0?$AA_?$AAi?$AAn?$AAi?$AAt?$AA?5?$AAF?$AAa?$AAi?$AAl?$AAe?$AAd?$AA?5?$AAo?$AAp?$AAe?$AAn?$AA?5@| [ DATA ] ; `string'
	EXPORT	|??_C@_1CM@BNHBOACG@?$AA?$AN?$AA?5?$AAT?$AAe?$AAs?$AAt?$AAi?$AAn?$AAg?$AA?5?$AAI?$AA2?$AAC?$AAO?$AAp?$AAe?$AAn?$AA?$CI?$AA?$CJ?$AA?$AN?$AA?6?$AA?$AA@| [ DATA ] ; `string'
	IMPORT	|I2CClose|
	IMPORT	|I2CSetBaudIndex|
	IMPORT	|I2CSetSubAddressMode|
	IMPORT	|I2CSetSlaveAddress|
	IMPORT	|I2COpen|

  00000			 AREA	 |.pdata|, PDATA
|$T49588| DCD	|$LN8@InitI2CWit|
	DCD	0x40003901

  00000			 AREA	 |.rdata|, DATA, READONLY
|??_C@_1CG@JKFIEEJ@?$AA?$AN?$AA?6?$AA?5?$AAW?$AAr?$AAi?$AAt?$AAe?$AAR?$AAe?$AAg?$AA?5?$AAO?$AAK?$AA?$CB?$AA?$CB?$AA?$AN?$AA?6?$AA?$AA@| DCB 0xd
	DCB	0x0, 0xa, 0x0, " ", 0x0, "W", 0x0, "r", 0x0, "i", 0x0, "t"
	DCB	0x0, "e", 0x0, "R", 0x0, "e", 0x0, "g", 0x0, " ", 0x0, "O"
	DCB	0x0, "K", 0x0, "!", 0x0, "!", 0x0, 0xd, 0x0, 0xa, 0x0, 0x0
	DCB	0x0					; `string'

  00000			 AREA	 |.rdata|, DATA, READONLY
|??_C@_1GK@PNABBOMJ@?$AAE?$AAR?$AAR?$AAO?$AAR?$AA?3?$AA?5?$AAB?$AAa?$AAt?$AAt?$AAe?$AAr?$AAy?$AAP?$AAD?$AAD?$AAI?$AAn?$AAi?$AAt?$AAi?$AAa?$AAl?$AAi?$AAz?$AAe?$AA?3?$AA?5?$AAB?$AAa?$AAt@| DCB "E"
	DCB	0x0, "R", 0x0, "R", 0x0, "O", 0x0, "R", 0x0, ":", 0x0, " "
	DCB	0x0, "B", 0x0, "a", 0x0, "t", 0x0, "t", 0x0, "e", 0x0, "r"
	DCB	0x0, "y", 0x0, "P", 0x0, "D", 0x0, "D", 0x0, "I", 0x0, "n"
	DCB	0x0, "i", 0x0, "t", 0x0, "i", 0x0, "a", 0x0, "l", 0x0, "i"
	DCB	0x0, "z", 0x0, "e", 0x0, ":", 0x0, " ", 0x0, "B", 0x0, "a"
	DCB	0x0, "t", 0x0, "t", 0x0, "e", 0x0, "r", 0x0, "y", 0x0, " "
	DCB	0x0, "i", 0x0, "n", 0x0, "s", 0x0, "e", 0x0, "r", 0x0, "t"
	DCB	0x0, " ", 0x0, "F", 0x0, "a", 0x0, "i", 0x0, "l", 0x0, "e"
	DCB	0x0, "d", 0x0, 0xd, 0x0, 0xa, 0x0, 0x0, 0x0 ; `string'

  00000			 AREA	 |.rdata|, DATA, READONLY
|??_C@_1EG@BOGIFNHC@?$AA?$AN?$AA?5?$AAT?$AAe?$AAs?$AAt?$AAi?$AAn?$AAg?$AA?5?$AAI?$AA2?$AAC?$AAS?$AAe?$AAt?$AAS?$AAu?$AAb?$AAA?$AAd?$AAd?$AAr?$AAe?$AAs?$AAs?$AAM?$AAo?$AAd?$AAe?$AA?$CI?$AA?$CJ@| DCB 0xd
	DCB	0x0, " ", 0x0, "T", 0x0, "e", 0x0, "s", 0x0, "t", 0x0, "i"
	DCB	0x0, "n", 0x0, "g", 0x0, " ", 0x0, "I", 0x0, "2", 0x0, "C"
	DCB	0x0, "S", 0x0, "e", 0x0, "t", 0x0, "S", 0x0, "u", 0x0, "b"
	DCB	0x0, "A", 0x0, "d", 0x0, "d", 0x0, "r", 0x0, "e", 0x0, "s"
	DCB	0x0, "s", 0x0, "M", 0x0, "o", 0x0, "d", 0x0, "e", 0x0, "("
	DCB	0x0, ")", 0x0, 0xd, 0x0, 0xa, 0x0, 0x0, 0x0 ; `string'

  00000			 AREA	 |.rdata|, DATA, READONLY
|??_C@_1DO@FDDDBLEK@?$AA?$AN?$AA?5?$AAT?$AAe?$AAs?$AAt?$AAi?$AAn?$AAg?$AA?5?$AAB?$AAQ?$AA2?$AA7?$AA4?$AA1?$AA0?$AA_?$AAW?$AAr?$AAi?$AAt?$AAe?$AAR?$AAe?$AAg?$AA?$CI?$AA?$CJ?$AA?$AN?$AA?6?$AA?$AA@| DCB 0xd
	DCB	0x0, " ", 0x0, "T", 0x0, "e", 0x0, "s", 0x0, "t", 0x0, "i"
	DCB	0x0, "n", 0x0, "g", 0x0, " ", 0x0, "B", 0x0, "Q", 0x0, "2"
	DCB	0x0, "7", 0x0, "4", 0x0, "1", 0x0, "0", 0x0, "_", 0x0, "W"
	DCB	0x0, "r", 0x0, "i", 0x0, "t", 0x0, "e", 0x0, "R", 0x0, "e"
	DCB	0x0, "g", 0x0, "(", 0x0, ")", 0x0, 0xd, 0x0, 0xa, 0x0, 0x0
	DCB	0x0					; `string'

  00000			 AREA	 |.rdata|, DATA, READONLY
|??_C@_1GG@JIPJEIK@?$AA?5?$AAE?$AAR?$AAR?$AAO?$AAR?$AA?3?$AA?5?$AAb?$AAq?$AA2?$AA7?$AA4?$AA1?$AA0?$AA_?$AAi?$AAn?$AAi?$AAt?$AA?5?$AA?9?$AA?5?$AAI?$AA2?$AAC?$AAS?$AAe?$AAt?$AAS?$AAl?$AAa@| DCB " "
	DCB	0x0, "E", 0x0, "R", 0x0, "R", 0x0, "O", 0x0, "R", 0x0, ":"
	DCB	0x0, " ", 0x0, "b", 0x0, "q", 0x0, "2", 0x0, "7", 0x0, "4"
	DCB	0x0, "1", 0x0, "0", 0x0, "_", 0x0, "i", 0x0, "n", 0x0, "i"
	DCB	0x0, "t", 0x0, " ", 0x0, "-", 0x0, " ", 0x0, "I", 0x0, "2"
	DCB	0x0, "C", 0x0, "S", 0x0, "e", 0x0, "t", 0x0, "S", 0x0, "l"
	DCB	0x0, "a", 0x0, "v", 0x0, "e", 0x0, "A", 0x0, "d", 0x0, "d"
	DCB	0x0, "r", 0x0, "e", 0x0, "s", 0x0, "s", 0x0, " ", 0x0, "F"
	DCB	0x0, "a", 0x0, "i", 0x0, "l", 0x0, "e", 0x0, "d", 0x0, 0xd
	DCB	0x0, 0xa, 0x0, 0x0, 0x0			; `string'

  00000			 AREA	 |.rdata|, DATA, READONLY
|??_C@_1FK@BBKNPGP@?$AA?$AN?$AA?5?$AAT?$AAe?$AAs?$AAt?$AAi?$AAn?$AAg?$AA?5?$AAI?$AAn?$AAi?$AAt?$AAI?$AA2?$AAC?$AAW?$AAi?$AAt?$AAh?$AAB?$AAQ?$AA2?$AA7?$AA4?$AA1?$AA0?$AA?$CI?$AA?$CJ?$AA?5?$AAo@| DCB 0xd
	DCB	0x0, " ", 0x0, "T", 0x0, "e", 0x0, "s", 0x0, "t", 0x0, "i"
	DCB	0x0, "n", 0x0, "g", 0x0, " ", 0x0, "I", 0x0, "n", 0x0, "i"
	DCB	0x0, "t", 0x0, "I", 0x0, "2", 0x0, "C", 0x0, "W", 0x0, "i"
	DCB	0x0, "t", 0x0, "h", 0x0, "B", 0x0, "Q", 0x0, "2", 0x0, "7"
	DCB	0x0, "4", 0x0, "1", 0x0, "0", 0x0, "(", 0x0, ")", 0x0, " "
	DCB	0x0, "o", 0x0, "f", 0x0, " ", 0x0, "h", 0x0, "I", 0x0, "2"
	DCB	0x0, "C", 0x0, ":", 0x0, " ", 0x0, "%", 0x0, "X", 0x0, 0xd
	DCB	0x0, 0xa, 0x0, 0x0, 0x0			; `string'

  00000			 AREA	 |.rdata|, DATA, READONLY
|??_C@_1EC@BNHJNFGL@?$AA?$AN?$AA?5?$AAT?$AAe?$AAs?$AAt?$AAi?$AAn?$AAg?$AA?5?$AAI?$AA2?$AAC?$AAS?$AAe?$AAt?$AAS?$AAl?$AAa?$AAv?$AAe?$AAA?$AAd?$AAd?$AAr?$AAe?$AAs?$AAs?$AA?$CI?$AA?$CJ?$AA?$AN?$AA?6@| DCB 0xd
	DCB	0x0, " ", 0x0, "T", 0x0, "e", 0x0, "s", 0x0, "t", 0x0, "i"
	DCB	0x0, "n", 0x0, "g", 0x0, " ", 0x0, "I", 0x0, "2", 0x0, "C"
	DCB	0x0, "S", 0x0, "e", 0x0, "t", 0x0, "S", 0x0, "l", 0x0, "a"
	DCB	0x0, "v", 0x0, "e", 0x0, "A", 0x0, "d", 0x0, "d", 0x0, "r"
	DCB	0x0, "e", 0x0, "s", 0x0, "s", 0x0, "(", 0x0, ")", 0x0, 0xd
	DCB	0x0, 0xa, 0x0, 0x0, 0x0			; `string'

  00000			 AREA	 |.rdata|, DATA, READONLY
|??_C@_1GI@DCKJGFNI@?$AAE?$AAR?$AAR?$AAO?$AAR?$AA?3?$AA?5?$AAb?$AAq?$AA2?$AA7?$AA4?$AA1?$AA0?$AA_?$AAi?$AAn?$AAi?$AAt?$AA?5?$AAF?$AAa?$AAi?$AAl?$AAe?$AAd?$AA?5?$AAo?$AAp?$AAe?$AAn?$AA?5@| DCB "E"
	DCB	0x0, "R", 0x0, "R", 0x0, "O", 0x0, "R", 0x0, ":", 0x0, " "
	DCB	0x0, "b", 0x0, "q", 0x0, "2", 0x0, "7", 0x0, "4", 0x0, "1"
	DCB	0x0, "0", 0x0, "_", 0x0, "i", 0x0, "n", 0x0, "i", 0x0, "t"
	DCB	0x0, " ", 0x0, "F", 0x0, "a", 0x0, "i", 0x0, "l", 0x0, "e"
	DCB	0x0, "d", 0x0, " ", 0x0, "o", 0x0, "p", 0x0, "e", 0x0, "n"
	DCB	0x0, " ", 0x0, "I", 0x0, "2", 0x0, "C", 0x0, " ", 0x0, "d"
	DCB	0x0, "e", 0x0, "v", 0x0, "i", 0x0, "c", 0x0, "e", 0x0, " "
	DCB	0x0, "d", 0x0, "r", 0x0, "i", 0x0, "v", 0x0, "e", 0x0, "r"
	DCB	0x0, 0xd, 0x0, 0xa, 0x0, 0x0, 0x0	; `string'

  00000			 AREA	 |.rdata|, DATA, READONLY
|??_C@_1CM@BNHBOACG@?$AA?$AN?$AA?5?$AAT?$AAe?$AAs?$AAt?$AAi?$AAn?$AAg?$AA?5?$AAI?$AA2?$AAC?$AAO?$AAp?$AAe?$AAn?$AA?$CI?$AA?$CJ?$AA?$AN?$AA?6?$AA?$AA@| DCB 0xd
	DCB	0x0, " ", 0x0, "T", 0x0, "e", 0x0, "s", 0x0, "t", 0x0, "i"
	DCB	0x0, "n", 0x0, "g", 0x0, " ", 0x0, "I", 0x0, "2", 0x0, "C"
	DCB	0x0, "O", 0x0, "p", 0x0, "e", 0x0, "n", 0x0, "(", 0x0, ")"
	DCB	0x0, 0xd, 0x0, 0xa, 0x0, 0x0, 0x0	; `string'
; Function compile flags: /Ogspy

  00000			 AREA	 |.text|, CODE, ARM

  00000		 |InitI2CWithBQ27410| PROC

; 1297 : {

  00000		 |$LN8@InitI2CWit|
  00000	e92d4030	 stmdb       sp!, {r4, r5, lr}
  00004		 |$M49585|

; 1298 :     //static i2c_Device;
; 1299 :     BOOL rc = FALSE;
; 1300 :    //UINT16 i =0;
; 1301 :     //USHORT volt = 0;
; 1302 :     //DWORD d3sec = 3000000;   
; 1303 :     //DWORD d500msec = 500000;
; 1304 :    
; 1305 :     //HANDLE hGPIO;
; 1306 : 
; 1307 :     //initialization i2c buses, Ray 13-10-09
; 1308 :     OALLog(L"\r Testing I2COpen()\r\n");

  00004	e59f00d4	 ldr         r0, [pc, #0xD4]
  00008	e3a05000	 mov         r5, #0
  0000c	eb000000	 bl          NKDbgPrintfW

; 1309 :     if( (hI2C = I2COpen(OMAP_DEVICE_I2C3)) == NULL) 

  00010	e3a0000e	 mov         r0, #0xE
  00014	eb000000	 bl          I2COpen
  00018	e59f40bc	 ldr         r4, [pc, #0xBC]
  0001c	e1b01000	 movs        r1, r0
  00020	e5841000	 str         r1, [r4]
  00024	1a000002	 bne         |$LN3@InitI2CWit|

; 1310 : 	{
; 1311 :         RETAILMSG(1,(L"ERROR: bq27410_init Failed open I2C device driver\r\n"));

  00028	e59f00a8	 ldr         r0, [pc, #0xA8]
  0002c	eb000000	 bl          NKDbgPrintfW

; 1312 :         goto cleanUp;

  00030	ea00001e	 b           |$cleanUp$48953|
  00034		 |$LN3@InitI2CWit|

; 1313 : 	}
; 1314 : 	OALLog(L"\r Testing InitI2CWithBQ27410() of hI2C: %X\r\n", hI2C);

  00034	e59f0098	 ldr         r0, [pc, #0x98]
  00038	eb000000	 bl          NKDbgPrintfW

; 1315 : 
; 1316 : 	//OALLog(L"\r Testing GPIOOpen()\r\n");  
; 1317 :     //Set the initialize status of each i2c3 interface, Ray 13-10-09
; 1318 :     /*hGPIO = GPIOOpen();
; 1319 :     GPIOSetBit(hGPIO, I2C3_SCL_GPIO );
; 1320 :     GPIOSetBit(hGPIO, I2C3_SDA_GPIO );
; 1321 :     LcdStall(d3sec);*/
; 1322 : 
; 1323 :     //Specify slave address for BQ27410 Fuel Gaug, Ray 13-10-09
; 1324 :     OALLog(L"\r Testing I2CSetSlaveAddress()\r\n");

  0003c	e59f008c	 ldr         r0, [pc, #0x8C]
  00040	eb000000	 bl          NKDbgPrintfW

; 1325 :     if( I2CSetSlaveAddress(hI2C, BQ27410_SLAVE_ADDRESS) == rc )

  00044	e5940000	 ldr         r0, [r4]
  00048	e3a01055	 mov         r1, #0x55
  0004c	eb000000	 bl          I2CSetSlaveAddress
  00050	e3500000	 cmp         r0, #0

; 1326 : 		RETAILMSG(TRUE, (L" ERROR: bq27410_init - I2CSetSlaveAddress Failed\r\n") );

  00054	059f0070	 ldreq       r0, [pc, #0x70]
  00058	0b000000	 bleq        NKDbgPrintfW

; 1327 : 
; 1328 :     OALLog(L"\r Testing I2CSetSubAddressMode()\r\n");

  0005c	e59f0064	 ldr         r0, [pc, #0x64]
  00060	eb000000	 bl          NKDbgPrintfW

; 1329 :     //Set up SubAddress(SCCB Phase 2) and the mode for transfer Ray 13-10-09
; 1330 :     I2CSetSubAddressMode(hI2C, I2C_SUBADDRESS_MODE_8);

  00064	e5940000	 ldr         r0, [r4]
  00068	e3a01001	 mov         r1, #1
  0006c	eb000000	 bl          I2CSetSubAddressMode

; 1331 :     I2CSetBaudIndex(hI2C, FULLSPEED_MODE);

  00070	e5940000	 ldr         r0, [r4]
  00074	e3a01001	 mov         r1, #1
  00078	eb000000	 bl          I2CSetBaudIndex

; 1332 :     //I2CSetBaudIndex(hI2C, SLOWSPEED_MODE);
; 1333 :     
; 1334 :     /*tempData[i]     = bq27410CMD_CNTL_LSB;    //0x00  
; 1335 :     tempData[i+1]   = bq27410CMD_CNTL_MSB;    //0x01
; 1336 :     
; 1337 :     memcpy(TxData , tempData+0, 1);
; 1338 :     memcpy(TxData+1 , tempData+1 , 1);
; 1339 : 
; 1340 :     OALLog(L"\r TxData[0X%d]\r\n", *(TxData));
; 1341 :     OALLog(L"\r TxData[0X%d]\r\n", *(TxData+1));*/
; 1342 :     
; 1343 :     OALLog(L"\r Testing BQ27410_WriteReg()\r\n");

  0007c	e59f0040	 ldr         r0, [pc, #0x40]
  00080	eb000000	 bl          NKDbgPrintfW

; 1344 :     /*if(BQ27410_WriteReg(bq27410CMD_CNTL_LSB, 0x0C) == rc ) // send battery insert
; 1345 :         //BQ27410_WriteReg( *(TxData+1), 0x02) == rc )  //**1
; 1346 :         RETAILMSG(TRUE, (L" ERROR: BatteryPDDInitialize: Battery insert Failed\r\n") );
; 1347 :         OALLog(L"\r\n WriteReg OK!!\r\n");*/
; 1348 : 
; 1349 :    if( BQ27410_WriteReg(bq27410CMD_CNTL_MSB, 0x0C) == rc ) // send battery insert

  00084	e3a0100c	 mov         r1, #0xC
  00088	e3a00001	 mov         r0, #1
  0008c	eb000000	 bl          BQ27410_WriteReg
  00090	e3500000	 cmp         r0, #0

; 1350 :         RETAILMSG(TRUE, (L"ERROR: BatteryPDDInitialize: Battery insert Failed\r\n") );

  00094	059f0024	 ldreq       r0, [pc, #0x24]
  00098	0b000000	 bleq        NKDbgPrintfW

; 1351 :         OALLog(L"\r\n WriteReg OK!!\r\n");

  0009c	e59f0018	 ldr         r0, [pc, #0x18]
  000a0	eb000000	 bl          NKDbgPrintfW

; 1352 : 
; 1353 : 
; 1354 :     //LcdStall(d500msec);
; 1355 :     /*OALLog(L"\r Testing BQ27410_ReadReg()\r\n");   
; 1356 :     if( BQ27410_ReadReg(bq27410CMD_VOLT_LSB, &volt) )
; 1357 : 		RETAILMSG(1,(L"bq27410_init: volt = %d\r\n", volt));
; 1358 : 		OALLog(L"\r\n ReadReg OK!!\r\n");
; 1359 : 		//LcdStall(d500msec);
; 1360 : 	
; 1361 :        /* BQ27410_ReadReg(bq27410CMD_FLAGS_LSB, &flags);
; 1362 :         BQ27410_ReadReg(bq27410CMD_SOC_LSB,  &soc);
; 1363 :         BQ27410_ReadReg(bq27410CMD_TEMP_LSB, &temp);
; 1364 :         BQ27410_Rea
; 1365 :         dReg(bq27410CMD_VOLT_LSB, &volt);*/
; 1366 :     I2CClose(hI2C);

  000a4	e5940000	 ldr         r0, [r4]
  000a8	eb000000	 bl          I2CClose

; 1367 : 	rc = TRUE;

  000ac	e3a05001	 mov         r5, #1
  000b0		 |$cleanUp$48953|

; 1368 : 	//LcdStall(d1sec);
; 1369 : cleanUp:
; 1370 :     return rc;
; 1371 : }

  000b0	e1a00005	 mov         r0, r5
  000b4	e8bd4030	 ldmia       sp!, {r4, r5, lr}
  000b8	e12fff1e	 bx          lr
  000bc		 |$LN9@InitI2CWit|
  000bc		 |$LN10@InitI2CWit|
  000bc	00000000	 DCD         |??_C@_1CG@JKFIEEJ@?$AA?$AN?$AA?6?$AA?5?$AAW?$AAr?$AAi?$AAt?$AAe?$AAR?$AAe?$AAg?$AA?5?$AAO?$AAK?$AA?$CB?$AA?$CB?$AA?$AN?$AA?6?$AA?$AA@|
  000c0		 |$LN11@InitI2CWit|
  000c0	00000000	 DCD         |??_C@_1GK@PNABBOMJ@?$AAE?$AAR?$AAR?$AAO?$AAR?$AA?3?$AA?5?$AAB?$AAa?$AAt?$AAt?$AAe?$AAr?$AAy?$AAP?$AAD?$AAD?$AAI?$AAn?$AAi?$AAt?$AAi?$AAa?$AAl?$AAi?$AAz?$AAe?$AA?3?$AA?5?$AAB?$AAa?$AAt@|
  000c4		 |$LN12@InitI2CWit|
  000c4	00000000	 DCD         |??_C@_1DO@FDDDBLEK@?$AA?$AN?$AA?5?$AAT?$AAe?$AAs?$AAt?$AAi?$AAn?$AAg?$AA?5?$AAB?$AAQ?$AA2?$AA7?$AA4?$AA1?$AA0?$AA_?$AAW?$AAr?$AAi?$AAt?$AAe?$AAR?$AAe?$AAg?$AA?$CI?$AA?$CJ?$AA?$AN?$AA?6?$AA?$AA@|
  000c8		 |$LN13@InitI2CWit|
  000c8	00000000	 DCD         |??_C@_1EG@BOGIFNHC@?$AA?$AN?$AA?5?$AAT?$AAe?$AAs?$AAt?$AAi?$AAn?$AAg?$AA?5?$AAI?$AA2?$AAC?$AAS?$AAe?$AAt?$AAS?$AAu?$AAb?$AAA?$AAd?$AAd?$AAr?$AAe?$AAs?$AAs?$AAM?$AAo?$AAd?$AAe?$AA?$CI?$AA?$CJ@|
  000cc		 |$LN14@InitI2CWit|
  000cc	00000000	 DCD         |??_C@_1GG@JIPJEIK@?$AA?5?$AAE?$AAR?$AAR?$AAO?$AAR?$AA?3?$AA?5?$AAb?$AAq?$AA2?$AA7?$AA4?$AA1?$AA0?$AA_?$AAi?$AAn?$AAi?$AAt?$AA?5?$AA?9?$AA?5?$AAI?$AA2?$AAC?$AAS?$AAe?$AAt?$AAS?$AAl?$AAa@|
  000d0		 |$LN15@InitI2CWit|
  000d0	00000000	 DCD         |??_C@_1EC@BNHJNFGL@?$AA?$AN?$AA?5?$AAT?$AAe?$AAs?$AAt?$AAi?$AAn?$AAg?$AA?5?$AAI?$AA2?$AAC?$AAS?$AAe?$AAt?$AAS?$AAl?$AAa?$AAv?$AAe?$AAA?$AAd?$AAd?$AAr?$AAe?$AAs?$AAs?$AA?$CI?$AA?$CJ?$AA?$AN?$AA?6@|
  000d4		 |$LN16@InitI2CWit|
  000d4	00000000	 DCD         |??_C@_1FK@BBKNPGP@?$AA?$AN?$AA?5?$AAT?$AAe?$AAs?$AAt?$AAi?$AAn?$AAg?$AA?5?$AAI?$AAn?$AAi?$AAt?$AAI?$AA2?$AAC?$AAW?$AAi?$AAt?$AAh?$AAB?$AAQ?$AA2?$AA7?$AA4?$AA1?$AA0?$AA?$CI?$AA?$CJ?$AA?5?$AAo@|
  000d8		 |$LN17@InitI2CWit|
  000d8	00000000	 DCD         |??_C@_1GI@DCKJGFNI@?$AAE?$AAR?$AAR?$AAO?$AAR?$AA?3?$AA?5?$AAb?$AAq?$AA2?$AA7?$AA4?$AA1?$AA0?$AA_?$AAi?$AAn?$AAi?$AAt?$AA?5?$AAF?$AAa?$AAi?$AAl?$AAe?$AAd?$AA?5?$AAo?$AAp?$AAe?$AAn?$AA?5@|
  000dc		 |$LN18@InitI2CWit|
  000dc	00000000	 DCD         |hI2C|
  000e0		 |$LN19@InitI2CWit|
  000e0	00000000	 DCD         |??_C@_1CM@BNHBOACG@?$AA?$AN?$AA?5?$AAT?$AAe?$AAs?$AAt?$AAi?$AAn?$AAg?$AA?5?$AAI?$AA2?$AAC?$AAO?$AAp?$AAe?$AAn?$AA?$CI?$AA?$CJ?$AA?$AN?$AA?6?$AA?$AA@|
  000e4		 |$M49586|

			 ENDP  ; |InitI2CWithBQ27410|


  00000			 AREA	 |.pdata|, PDATA
|$T49612| DCD	|$LN21@FuelGaugeW|
	DCD	0x40002c01
; Function compile flags: /Ogspy

  00000			 AREA	 |.text|, CODE, ARM

  00000		 |FuelGaugeWithBattery| PROC

; 1375 : {

  00000		 |$LN21@FuelGaugeW|
  00000	e92d4030	 stmdb       sp!, {r4, r5, lr}
  00004		 |$M49609|

; 1376 :     WCHAR key;
; 1377 :     UINT32 i;
; 1378 : 
; 1379 :     UNREFERENCED_PARAMETER(pMenu);
; 1380 : 
; 1381 :     OALBLMenuHeader(L"Battery Status");

  00004	e59f00a0	 ldr         r0, [pc, #0xA0]
  00008	eb000000	 bl          OALBLMenuHeader
  0000c	e59f4094	 ldr         r4, [pc, #0x94]

; 1382 : 
; 1383 :     for(i=0; i<BATTERY_EXIT; i++){

  00010	e3a05000	 mov         r5, #0
  00014		 |$LL12@FuelGaugeW|

; 1384 :         OALLog(L" [%d] %s\r\n", i+1 , BatteryStatusArray[i].BatteryName);

  00014	e5942004	 ldr         r2, [r4, #4]
  00018	e59f0084	 ldr         r0, [pc, #0x84]
  0001c	e2855001	 add         r5, r5, #1
  00020	e1a01005	 mov         r1, r5
  00024	eb000000	 bl          NKDbgPrintfW
  00028	e2844008	 add         r4, r4, #8
  0002c	e3550002	 cmp         r5, #2
  00030	3afffff7	 bcc         |$LL12@FuelGaugeW|

; 1385 :     }
; 1386 :     OALLog(L" [0] Exit and Continue\r\n");

  00034	e59f0064	 ldr         r0, [pc, #0x64]
  00038	eb000000	 bl          NKDbgPrintfW

; 1387 : 
; 1388 :     OALLog(L"\r\n Selection : ");

  0003c	e59f0058	 ldr         r0, [pc, #0x58]
  00040	eb000000	 bl          NKDbgPrintfW
  00044		 |$LL9@FuelGaugeW|

; 1389 : 
; 1390 :     do {
; 1391 :         key = OALBLMenuReadKey(TRUE);

  00044	e3a00001	 mov         r0, #1
  00048	eb000000	 bl          OALBLMenuReadKey
  0004c	e1a04800	 mov         r4, r0, lsl #16
  00050	e1a04824	 mov         r4, r4, lsr #16

; 1392 :     } while (key < L'0' || key > L'0'+ i);

  00054	e3540030	 cmp         r4, #0x30
  00058	3afffff9	 bcc         |$LL9@FuelGaugeW|
  0005c	e2853030	 add         r3, r5, #0x30
  00060	e1540003	 cmp         r4, r3
  00064	8afffff6	 bhi         |$LL9@FuelGaugeW|

; 1393 :     
; 1394 :     OALLog(L"%c\r\n", key);

  00068	e59f0028	 ldr         r0, [pc, #0x28]
  0006c	e1a01004	 mov         r1, r4
  00070	eb000000	 bl          NKDbgPrintfW

; 1395 : 
; 1396 :     switch(key)

  00074	e3540031	 cmp         r4, #0x31

; 1397 :     {
; 1398 :         case L'1':
; 1399 :             InitI2CWithBQ27410();

  00078	0b000000	 bleq        InitI2CWithBQ27410

; 1400 :             //I2C3_High();
; 1401 :             break;
; 1402 :         case L'2':
; 1403 :             //I2C3_Low();
; 1404 :             //................
; 1405 :             break;
; 1406 :         default:
; 1407 : 			break;
; 1408 :     }
; 1409 : 
; 1410 :     // If user select exit don't change device
; 1411 :     if(key == L'0') return;

  0007c	e3540030	 cmp         r4, #0x30

; 1412 : 
; 1413 :      g_bootCfg.BatteryStatus = (key - L'0' - 1);    

  00080	159f200c	 ldrne       r2, [pc, #0xC]
  00084	12443031	 subne       r3, r4, #0x31
  00088	15823080	 strne       r3, [r2, #0x80]

; 1414 : }

  0008c	e8bd4030	 ldmia       sp!, {r4, r5, lr}
  00090	e12fff1e	 bx          lr
  00094		 |$LN22@FuelGaugeW|
  00094		 |$LN23@FuelGaugeW|
  00094	00000000	 DCD         |g_bootCfg|
  00098		 |$LN24@FuelGaugeW|
  00098	00000000	 DCD         |??_C@_19DIEGALPP@?$AA?$CF?$AAc?$AA?$AN?$AA?6?$AA?$AA@|
  0009c		 |$LN25@FuelGaugeW|
  0009c	00000000	 DCD         |??_C@_1CA@LBCOEEPJ@?$AA?$AN?$AA?6?$AA?5?$AAS?$AAe?$AAl?$AAe?$AAc?$AAt?$AAi?$AAo?$AAn?$AA?5?$AA?3?$AA?5?$AA?$AA@|
  000a0		 |$LN26@FuelGaugeW|
  000a0	00000000	 DCD         |??_C@_1DC@KGICMHCL@?$AA?5?$AA?$FL?$AA0?$AA?$FN?$AA?5?$AAE?$AAx?$AAi?$AAt?$AA?5?$AAa?$AAn?$AAd?$AA?5?$AAC?$AAo?$AAn?$AAt?$AAi?$AAn?$AAu?$AAe?$AA?$AN?$AA?6?$AA?$AA@|
  000a4		 |$LN27@FuelGaugeW|
  000a4	00000000	 DCD         |??_C@_1BG@LMIBJJCD@?$AA?5?$AA?$FL?$AA?$CF?$AAd?$AA?$FN?$AA?5?$AA?$CF?$AAs?$AA?$AN?$AA?6?$AA?$AA@|
  000a8		 |$LN28@FuelGaugeW|
  000a8	00000000	 DCD         |BatteryStatusArray|
  000ac		 |$LN29@FuelGaugeW|
  000ac	00000000	 DCD         |??_C@_1BO@KCFMLMDG@?$AAB?$AAa?$AAt?$AAt?$AAe?$AAr?$AAy?$AA?5?$AAS?$AAt?$AAa?$AAt?$AAu?$AAs?$AA?$AA@|
  000b0		 |$M49610|

			 ENDP  ; |FuelGaugeWithBattery|

	EXPORT	|??_C@_1DO@GCBJIIGC@?$AAE?$AAR?$AAR?$AAO?$AAR?$AA?3?$AA?5?$AAS?$AAe?$AAt?$AAt?$AAi?$AAn?$AAg?$AAs?$AA?5?$AAs?$AAa?$AAv?$AAe?$AA?5?$AAf?$AAa?$AAi?$AAl?$AAe?$AAd?$AA?$CB?$AA?$AN?$AA?6?$AA?$AA@| [ DATA ] ; `string'
	EXPORT	|??_C@_1EG@EPHHPOIA@?$AA?5?$AAC?$AAu?$AAr?$AAr?$AAe?$AAn?$AAt?$AA?5?$AAs?$AAe?$AAt?$AAt?$AAi?$AAn?$AAg?$AAs?$AA?5?$AAh?$AAa?$AAs?$AA?5?$AAb?$AAe?$AAe?$AAn?$AA?5?$AAs?$AAa?$AAv?$AAe?$AAd@| [ DATA ] ; `string'
	EXPORT	|??_C@_1FG@NGGODBPB@?$AA?5?$AAD?$AAo?$AA?5?$AAy?$AAo?$AAu?$AA?5?$AAw?$AAa?$AAn?$AAt?$AA?5?$AAs?$AAa?$AAv?$AAe?$AA?5?$AAc?$AAu?$AAr?$AAr?$AAe?$AAn?$AAt?$AA?5?$AAs?$AAe?$AAt?$AAt?$AAi?$AAn@| [ DATA ] ; `string'
	IMPORT	|BLWriteBootCfg|

  00000			 AREA	 |.pdata|, PDATA
|$T49629| DCD	|$LN9@SaveSettin|
	DCD	0x40001b01

  00000			 AREA	 |.rdata|, DATA, READONLY
|??_C@_1DO@GCBJIIGC@?$AAE?$AAR?$AAR?$AAO?$AAR?$AA?3?$AA?5?$AAS?$AAe?$AAt?$AAt?$AAi?$AAn?$AAg?$AAs?$AA?5?$AAs?$AAa?$AAv?$AAe?$AA?5?$AAf?$AAa?$AAi?$AAl?$AAe?$AAd?$AA?$CB?$AA?$AN?$AA?6?$AA?$AA@| DCB "E"
	DCB	0x0, "R", 0x0, "R", 0x0, "O", 0x0, "R", 0x0, ":", 0x0, " "
	DCB	0x0, "S", 0x0, "e", 0x0, "t", 0x0, "t", 0x0, "i", 0x0, "n"
	DCB	0x0, "g", 0x0, "s", 0x0, " ", 0x0, "s", 0x0, "a", 0x0, "v"
	DCB	0x0, "e", 0x0, " ", 0x0, "f", 0x0, "a", 0x0, "i", 0x0, "l"
	DCB	0x0, "e", 0x0, "d", 0x0, "!", 0x0, 0xd, 0x0, 0xa, 0x0, 0x0
	DCB	0x0					; `string'

  00000			 AREA	 |.rdata|, DATA, READONLY
|??_C@_1EG@EPHHPOIA@?$AA?5?$AAC?$AAu?$AAr?$AAr?$AAe?$AAn?$AAt?$AA?5?$AAs?$AAe?$AAt?$AAt?$AAi?$AAn?$AAg?$AAs?$AA?5?$AAh?$AAa?$AAs?$AA?5?$AAb?$AAe?$AAe?$AAn?$AA?5?$AAs?$AAa?$AAv?$AAe?$AAd@| DCB " "
	DCB	0x0, "C", 0x0, "u", 0x0, "r", 0x0, "r", 0x0, "e", 0x0, "n"
	DCB	0x0, "t", 0x0, " ", 0x0, "s", 0x0, "e", 0x0, "t", 0x0, "t"
	DCB	0x0, "i", 0x0, "n", 0x0, "g", 0x0, "s", 0x0, " ", 0x0, "h"
	DCB	0x0, "a", 0x0, "s", 0x0, " ", 0x0, "b", 0x0, "e", 0x0, "e"
	DCB	0x0, "n", 0x0, " ", 0x0, "s", 0x0, "a", 0x0, "v", 0x0, "e"
	DCB	0x0, "d", 0x0, 0xd, 0x0, 0xa, 0x0, 0x0, 0x0 ; `string'

  00000			 AREA	 |.rdata|, DATA, READONLY
|??_C@_1FG@NGGODBPB@?$AA?5?$AAD?$AAo?$AA?5?$AAy?$AAo?$AAu?$AA?5?$AAw?$AAa?$AAn?$AAt?$AA?5?$AAs?$AAa?$AAv?$AAe?$AA?5?$AAc?$AAu?$AAr?$AAr?$AAe?$AAn?$AAt?$AA?5?$AAs?$AAe?$AAt?$AAt?$AAi?$AAn@| DCB " "
	DCB	0x0, "D", 0x0, "o", 0x0, " ", 0x0, "y", 0x0, "o", 0x0, "u"
	DCB	0x0, " ", 0x0, "w", 0x0, "a", 0x0, "n", 0x0, "t", 0x0, " "
	DCB	0x0, "s", 0x0, "a", 0x0, "v", 0x0, "e", 0x0, " ", 0x0, "c"
	DCB	0x0, "u", 0x0, "r", 0x0, "r", 0x0, "e", 0x0, "n", 0x0, "t"
	DCB	0x0, " ", 0x0, "s", 0x0, "e", 0x0, "t", 0x0, "t", 0x0, "i"
	DCB	0x0, "n", 0x0, "g", 0x0, "s", 0x0, " ", 0x0, "[", 0x0, "-"
	DCB	0x0, "/", 0x0, "y", 0x0, "]", 0x0, "?", 0x0, " ", 0x0, 0x0
	DCB	0x0					; `string'
; Function compile flags: /Ogspy

  00000			 AREA	 |.text|, CODE, ARM

  00000		 |SaveSettings| PROC

; 1420 : {

  00000		 |$LN9@SaveSettin|
  00000	e92d4010	 stmdb       sp!, {r4, lr}
  00004		 |$M49626|

; 1421 :     WCHAR key;
; 1422 :     UNREFERENCED_PARAMETER(pMenu);
; 1423 : 
; 1424 :     OALLog(L" Do you want save current settings [-/y]? ");

  00004	e59f005c	 ldr         r0, [pc, #0x5C]
  00008	eb000000	 bl          NKDbgPrintfW

; 1425 : 
; 1426 :     // Get key
; 1427 :     key = OALBLMenuReadKey(TRUE);

  0000c	e3a00001	 mov         r0, #1
  00010	eb000000	 bl          OALBLMenuReadKey
  00014	e1a04800	 mov         r4, r0, lsl #16

; 1428 :     OALLog(L"%c\r\n", key);

  00018	e59f0044	 ldr         r0, [pc, #0x44]
  0001c	e1a04824	 mov         r4, r4, lsr #16
  00020	e1a01004	 mov         r1, r4
  00024	eb000000	 bl          NKDbgPrintfW

; 1429 : 
; 1430 :     // Depending on result
; 1431 :     if (key != L'y' && key != L'Y') goto cleanUp;

  00028	e3540079	 cmp         r4, #0x79
  0002c	0a000001	 beq         |$LN3@SaveSettin|
  00030	e3540059	 cmp         r4, #0x59
  00034	1a000005	 bne         |$cleanUp$48988|
  00038		 |$LN3@SaveSettin|

; 1432 : 
; 1433 :     if (BLWriteBootCfg(&g_bootCfg)) {

  00038	e59f0020	 ldr         r0, [pc, #0x20]
  0003c	eb000000	 bl          BLWriteBootCfg
  00040	e3500000	 cmp         r0, #0

; 1434 :         OALLog(L" Current settings has been saved\r\n");

  00044	159f0010	 ldrne       r0, [pc, #0x10]

; 1435 :     } else {        
; 1436 :         OALLog(L"ERROR: Settings save failed!\r\n");

  00048	059f0008	 ldreq       r0, [pc, #8]
  0004c	eb000000	 bl          NKDbgPrintfW
  00050		 |$cleanUp$48988|

; 1437 :     }
; 1438 : 
; 1439 : cleanUp:
; 1440 :     return;
; 1441 : }

  00050	e8bd4010	 ldmia       sp!, {r4, lr}
  00054	e12fff1e	 bx          lr
  00058		 |$LN10@SaveSettin|
  00058		 |$LN11@SaveSettin|
  00058	00000000	 DCD         |??_C@_1DO@GCBJIIGC@?$AAE?$AAR?$AAR?$AAO?$AAR?$AA?3?$AA?5?$AAS?$AAe?$AAt?$AAt?$AAi?$AAn?$AAg?$AAs?$AA?5?$AAs?$AAa?$AAv?$AAe?$AA?5?$AAf?$AAa?$AAi?$AAl?$AAe?$AAd?$AA?$CB?$AA?$AN?$AA?6?$AA?$AA@|
  0005c		 |$LN12@SaveSettin|
  0005c	00000000	 DCD         |??_C@_1EG@EPHHPOIA@?$AA?5?$AAC?$AAu?$AAr?$AAr?$AAe?$AAn?$AAt?$AA?5?$AAs?$AAe?$AAt?$AAt?$AAi?$AAn?$AAg?$AAs?$AA?5?$AAh?$AAa?$AAs?$AA?5?$AAb?$AAe?$AAe?$AAn?$AA?5?$AAs?$AAa?$AAv?$AAe?$AAd@|
  00060		 |$LN13@SaveSettin|
  00060	00000000	 DCD         |g_bootCfg|
  00064		 |$LN14@SaveSettin|
  00064	00000000	 DCD         |??_C@_19DIEGALPP@?$AA?$CF?$AAc?$AA?$AN?$AA?6?$AA?$AA@|
  00068		 |$LN15@SaveSettin|
  00068	00000000	 DCD         |??_C@_1FG@NGGODBPB@?$AA?5?$AAD?$AAo?$AA?5?$AAy?$AAo?$AAu?$AA?5?$AAw?$AAa?$AAn?$AAt?$AA?5?$AAs?$AAa?$AAv?$AAe?$AA?5?$AAc?$AAu?$AAr?$AAr?$AAe?$AAn?$AAt?$AA?5?$AAs?$AAe?$AAt?$AAt?$AAi?$AAn@|
  0006c		 |$M49627|

			 ENDP  ; |SaveSettings|

	EXPORT	|OALStringToUINT32|

  00000			 AREA	 |.pdata|, PDATA
|$T49650| DCD	|$LN13@OALStringT|
	DCD	0x40001000
; Function compile flags: /Ogspy

  00000			 AREA	 |.text|, CODE, ARM

  00000		 |OALStringToUINT32| PROC

; 1446 : {

  00000		 |$LN13@OALStringT|
  00000		 |$M49647|
  00000	e1b01000	 movs        r1, r0

; 1447 :     UINT32 i = 0;

  00004	e3a00000	 mov         r0, #0

; 1448 : 
; 1449 :     // Replace the dots with NULL terminators
; 1450 :     while (psz != NULL && *psz != L'\0') 

  00008	0a00000b	 beq         |$LN10@OALStringT|
  0000c		 |$LL4@OALStringT|
  0000c	e1d130b0	 ldrh        r3, [r1]
  00010	e1b02003	 movs        r2, r3
  00014	0a000008	 beq         |$LN10@OALStringT|

; 1451 :         {
; 1452 :         if (*psz < L'0' || *psz > L'9') 

  00018	e3520030	 cmp         r2, #0x30
  0001c	3a000006	 bcc         |$LN10@OALStringT|
  00020	e3520039	 cmp         r2, #0x39
  00024	8a000004	 bhi         |$LN10@OALStringT|

; 1453 :             {
; 1454 :             break;
; 1455 :             }
; 1456 :         i = i * 10 + (*psz - L'0');

  00028	e0803100	 add         r3, r0, r0, lsl #2
  0002c	e0823083	 add         r3, r2, r3, lsl #1
  00030	e2430030	 sub         r0, r3, #0x30

; 1457 :         psz++;

  00034	e2911002	 adds        r1, r1, #2
  00038	1afffff3	 bne         |$LL4@OALStringT|
  0003c		 |$LN10@OALStringT|

; 1458 :         }
; 1459 : 
; 1460 :     return i;
; 1461 : }

  0003c	e12fff1e	 bx          lr
  00040		 |$M49648|

			 ENDP  ; |OALStringToUINT32|

	EXPORT	|??_C@_1BK@EBJPPEOM@?$AA?$AN?$AA?6?$AA?5?$AAS?$AAD?$AAC?$AAa?$AAr?$AAd?$AA?3?$AA?$AN?$AA?6?$AA?$AA@| [ DATA ] ; `string'
	EXPORT	|??_C@_1DA@JKMEDIID@?$AA?5?$AA?5?$AAF?$AAi?$AAl?$AAe?$AAn?$AAa?$AAm?$AAe?$AA?3?$AA?5?$AA?5?$AA?5?$AA?5?$AA?5?$AA?5?$AA?$CC?$AA?$CF?$AAs?$AA?$CC?$AA?$AN?$AA?6?$AA?$AA@| [ DATA ] ; `string'

  00000			 AREA	 |.pdata|, PDATA
|$T49657| DCD	|$LN5@ShowSDCard|
	DCD	0x40000c01

  00000			 AREA	 |.rdata|, DATA, READONLY
|??_C@_1BK@EBJPPEOM@?$AA?$AN?$AA?6?$AA?5?$AAS?$AAD?$AAC?$AAa?$AAr?$AAd?$AA?3?$AA?$AN?$AA?6?$AA?$AA@| DCB 0xd
	DCB	0x0, 0xa, 0x0, " ", 0x0, "S", 0x0, "D", 0x0, "C", 0x0, "a"
	DCB	0x0, "r", 0x0, "d", 0x0, ":", 0x0, 0xd, 0x0, 0xa, 0x0, 0x0
	DCB	0x0					; `string'

  00000			 AREA	 |.rdata|, DATA, READONLY
|??_C@_1DA@JKMEDIID@?$AA?5?$AA?5?$AAF?$AAi?$AAl?$AAe?$AAn?$AAa?$AAm?$AAe?$AA?3?$AA?5?$AA?5?$AA?5?$AA?5?$AA?5?$AA?5?$AA?$CC?$AA?$CF?$AAs?$AA?$CC?$AA?$AN?$AA?6?$AA?$AA@| DCB " "
	DCB	0x0, " ", 0x0, "F", 0x0, "i", 0x0, "l", 0x0, "e", 0x0, "n"
	DCB	0x0, "a", 0x0, "m", 0x0, "e", 0x0, ":", 0x0, " ", 0x0, " "
	DCB	0x0, " ", 0x0, " ", 0x0, " ", 0x0, " ", 0x0, """", 0x0, "%"
	DCB	0x0, "s", 0x0, """", 0x0, 0xd, 0x0, 0xa, 0x0, 0x0, 0x0 ; `string'
; Function compile flags: /Ogspy

  00000			 AREA	 |.text|, CODE, ARM

  00000		 |ShowSDCardSettings| PROC

; 1468 : {

  00000		 |$LN5@ShowSDCard|
  00000	e52de004	 str         lr, [sp, #-4]!
  00004		 |$M49654|

; 1469 :     UNREFERENCED_PARAMETER(pMenu);
; 1470 : 
; 1471 :     OALLog(L"\r\n SDCard:\r\n");

  00004	e59f0020	 ldr         r0, [pc, #0x20]
  00008	eb000000	 bl          NKDbgPrintfW

; 1472 :     OALLog(
; 1473 :         L"  Filename:      \"%s\"\r\n", g_bootCfg.filename
; 1474 :     );

  0000c	e59f3014	 ldr         r3, [pc, #0x14]
  00010	e59f000c	 ldr         r0, [pc, #0xC]
  00014	e283104c	 add         r1, r3, #0x4C
  00018	eb000000	 bl          NKDbgPrintfW

; 1475 : //  OALBLMenuReadKey(TRUE);
; 1476 : }

  0001c	e49de004	 ldr         lr, [sp], #4
  00020	e12fff1e	 bx          lr
  00024		 |$LN6@ShowSDCard|
  00024		 |$LN7@ShowSDCard|
  00024	00000000	 DCD         |??_C@_1DA@JKMEDIID@?$AA?5?$AA?5?$AAF?$AAi?$AAl?$AAe?$AAn?$AAa?$AAm?$AAe?$AA?3?$AA?5?$AA?5?$AA?5?$AA?5?$AA?5?$AA?5?$AA?$CC?$AA?$CF?$AAs?$AA?$CC?$AA?$AN?$AA?6?$AA?$AA@|
  00028		 |$LN8@ShowSDCard|
  00028	00000000	 DCD         |g_bootCfg|
  0002c		 |$LN9@ShowSDCard|
  0002c	00000000	 DCD         |??_C@_1BK@EBJPPEOM@?$AA?$AN?$AA?6?$AA?5?$AAS?$AAD?$AAC?$AAa?$AAr?$AAd?$AA?3?$AA?$AN?$AA?6?$AA?$AA@|
  00030		 |$M49655|

			 ENDP  ; |ShowSDCardSettings|

	EXPORT	|??_C@_1EI@OPDBDDPE@?$AA?$AN?$AA?6?$AA?5?$AAT?$AAy?$AAp?$AAe?$AA?5?$AAn?$AAe?$AAw?$AA?5?$AAf?$AAi?$AAl?$AAe?$AAn?$AAa?$AAm?$AAe?$AA?5?$AA?$CI?$AA8?$AA?4?$AA3?$AA?5?$AAf?$AAo?$AAr?$AAm?$AAa?$AAt@| [ DATA ] ; `string'
	IMPORT	|OALBLMenuReadLine|

  00000			 AREA	 |.pdata|, PDATA
|$T49668| DCD	|$LN5@EnterSDCar|
	DCD	0x40000b01

  00000			 AREA	 |.rdata|, DATA, READONLY
|??_C@_1EI@OPDBDDPE@?$AA?$AN?$AA?6?$AA?5?$AAT?$AAy?$AAp?$AAe?$AA?5?$AAn?$AAe?$AAw?$AA?5?$AAf?$AAi?$AAl?$AAe?$AAn?$AAa?$AAm?$AAe?$AA?5?$AA?$CI?$AA8?$AA?4?$AA3?$AA?5?$AAf?$AAo?$AAr?$AAm?$AAa?$AAt@| DCB 0xd
	DCB	0x0, 0xa, 0x0, " ", 0x0, "T", 0x0, "y", 0x0, "p", 0x0, "e"
	DCB	0x0, " ", 0x0, "n", 0x0, "e", 0x0, "w", 0x0, " ", 0x0, "f"
	DCB	0x0, "i", 0x0, "l", 0x0, "e", 0x0, "n", 0x0, "a", 0x0, "m"
	DCB	0x0, "e", 0x0, " ", 0x0, "(", 0x0, "8", 0x0, ".", 0x0, "3"
	DCB	0x0, " ", 0x0, "f", 0x0, "o", 0x0, "r", 0x0, "m", 0x0, "a"
	DCB	0x0, "t", 0x0, ")", 0x0, " ", 0x0, ":", 0x0, 0x0, 0x0 ; `string'
; Function compile flags: /Ogspy

  00000			 AREA	 |.text|, CODE, ARM

  00000		 |EnterSDCardFilename| PROC

; 1482 : {

  00000		 |$LN5@EnterSDCar|
  00000	e52de004	 str         lr, [sp, #-4]!
  00004		 |$M49665|

; 1483 :     UNREFERENCED_PARAMETER(pMenu);
; 1484 : 
; 1485 :     OALLog(L"\r\n Type new filename (8.3 format) :");

  00004	e59f001c	 ldr         r0, [pc, #0x1C]
  00008	eb000000	 bl          NKDbgPrintfW

; 1486 :     OALBLMenuReadLine(g_bootCfg.filename, dimof(g_bootCfg.filename));

  0000c	e59f3010	 ldr         r3, [pc, #0x10]
  00010	e3a0100d	 mov         r1, #0xD
  00014	e283004c	 add         r0, r3, #0x4C
  00018	eb000000	 bl          OALBLMenuReadLine

; 1487 : }

  0001c	e49de004	 ldr         lr, [sp], #4
  00020	e12fff1e	 bx          lr
  00024		 |$LN6@EnterSDCar|
  00024		 |$LN7@EnterSDCar|
  00024	00000000	 DCD         |g_bootCfg|
  00028		 |$LN8@EnterSDCar|
  00028	00000000	 DCD         |??_C@_1EI@OPDBDDPE@?$AA?$AN?$AA?6?$AA?5?$AAT?$AAy?$AAp?$AAe?$AA?5?$AAn?$AAe?$AAw?$AA?5?$AAf?$AAi?$AAl?$AAe?$AAn?$AAa?$AAm?$AAe?$AA?5?$AA?$CI?$AA8?$AA?4?$AA3?$AA?5?$AAf?$AAo?$AAr?$AAm?$AAa?$AAt@|
  0002c		 |$M49666|

			 ENDP  ; |EnterSDCardFilename|

	EXPORT	|??_C@_1DE@FKCOLIJA@?$AA?5?$AA?5?$AAF?$AAl?$AAa?$AAs?$AAh?$AAi?$AAn?$AAg?$AA?5?$AAN?$AAK?$AA?4?$AAb?$AAi?$AAn?$AA?3?$AA?5?$AA?5?$AA?5?$AA?$CF?$AAs?$AA?$AN?$AA?6?$AA?$AA@| [ DATA ] ; `string'
	EXPORT	|??_C@_1CG@OIGCIHAG@?$AA?5?$AA?5?$AAO?$AAP?$AAP?$AA?5?$AAM?$AAo?$AAd?$AAe?$AA?3?$AA?5?$AA?5?$AA?5?$AA?$CF?$AAs?$AA?$AN?$AA?6?$AA?$AA@| [ DATA ] ; `string'
	EXPORT	|??_C@_1CI@GNFBDCCP@?$AA?5?$AA?5?$AAB?$AAa?$AAc?$AAk?$AAl?$AAi?$AAg?$AAh?$AAt?$AA?3?$AA?5?$AA?5?$AA?5?$AA?$CF?$AAs?$AA?$AN?$AA?6?$AA?$AA@| [ DATA ] ; `string'
	EXPORT	|??_C@_1EE@JFPPGEDH@?$AA?5?$AA?5?$AAS?$AAD?$AA?5?$AAC?$AAa?$AAr?$AAd?$AA?5?$AAt?$AAo?$AA?5?$AAF?$AAl?$AAa?$AAs?$AAh?$AA?5?$AAs?$AAt?$AAa?$AAt?$AAu?$AAs?$AA?3?$AA?5?$AA?5?$AA?5?$AA?$CF?$AAs?$AA?$AN@| [ DATA ] ; `string'
	EXPORT	|??_C@_1CM@JIGPKFND@?$AA?5?$AA?5?$AAR?$AAe?$AAt?$AAa?$AAi?$AAl?$AA?5?$AAM?$AAs?$AAg?$AAs?$AA?3?$AA?5?$AA?5?$AA?5?$AA?$CF?$AAs?$AA?$AN?$AA?6?$AA?$AA@| [ DATA ] ; `string'
	EXPORT	|??_C@_1CM@NDEIFMBL@?$AA?5?$AA?5?$AAD?$AAe?$AAv?$AAi?$AAc?$AAe?$AA?5?$AAI?$AAD?$AA?3?$AA?5?$AA?5?$AA?5?$AA?5?$AA?5?$AA?$CF?$AAd?$AA?$AN?$AA?6?$AA?$AA@| [ DATA ] ; `string'
	EXPORT	|??_C@_1CM@FFHNOGK@?$AA?5?$AA?5?$AAD?$AAi?$AAs?$AAp?$AAl?$AAa?$AAy?$AA?5?$AAR?$AAe?$AAs?$AA?3?$AA?5?$AA?5?$AA?5?$AA?$CF?$AAs?$AA?$AN?$AA?6?$AA?$AA@| [ DATA ] ; `string'
	EXPORT	|??_C@_1CM@NPGGEGKD@?$AA?5?$AA?5?$AAD?$AAe?$AAb?$AAu?$AAg?$AA?5?$AAd?$AAe?$AAv?$AAi?$AAc?$AAe?$AA?3?$AA?5?$AA?5?$AA?$CF?$AAs?$AA?$AN?$AA?6?$AA?$AA@| [ DATA ] ; `string'
	EXPORT	|??_C@_1BM@PMDNGDGM@?$AAn?$AAo?$AAt?$AA?5?$AAs?$AAp?$AAe?$AAc?$AAi?$AAf?$AAi?$AAe?$AAd?$AA?$AA@| [ DATA ] ; `string'
	EXPORT	|??_C@_1BG@CEFCIDHI@?$AA?$AN?$AA?6?$AA?5?$AAM?$AAa?$AAi?$AAn?$AA?3?$AA?$AN?$AA?6?$AA?$AA@| [ DATA ] ; `string'
	EXPORT	|??_C@_1CM@IGJFNOHM@?$AA?5?$AA?5?$AAB?$AAo?$AAo?$AAt?$AA?5?$AAd?$AAe?$AAv?$AAi?$AAc?$AAe?$AA?3?$AA?5?$AA?5?$AA?5?$AA?$CF?$AAs?$AA?$AN?$AA?6?$AA?$AA@| [ DATA ] ; `string'
	IMPORT	|OALKitlDeviceName|

  00000			 AREA	 |.pdata|, PDATA
|$T49686| DCD	|$LN12@ShowSettin|
	DCD	0x40005901

  00000			 AREA	 |.rdata|, DATA, READONLY
|??_C@_1DE@FKCOLIJA@?$AA?5?$AA?5?$AAF?$AAl?$AAa?$AAs?$AAh?$AAi?$AAn?$AAg?$AA?5?$AAN?$AAK?$AA?4?$AAb?$AAi?$AAn?$AA?3?$AA?5?$AA?5?$AA?5?$AA?$CF?$AAs?$AA?$AN?$AA?6?$AA?$AA@| DCB " "
	DCB	0x0, " ", 0x0, "F", 0x0, "l", 0x0, "a", 0x0, "s", 0x0, "h"
	DCB	0x0, "i", 0x0, "n", 0x0, "g", 0x0, " ", 0x0, "N", 0x0, "K"
	DCB	0x0, ".", 0x0, "b", 0x0, "i", 0x0, "n", 0x0, ":", 0x0, " "
	DCB	0x0, " ", 0x0, " ", 0x0, "%", 0x0, "s", 0x0, 0xd, 0x0, 0xa
	DCB	0x0, 0x0, 0x0				; `string'

  00000			 AREA	 |.rdata|, DATA, READONLY
|??_C@_1CG@OIGCIHAG@?$AA?5?$AA?5?$AAO?$AAP?$AAP?$AA?5?$AAM?$AAo?$AAd?$AAe?$AA?3?$AA?5?$AA?5?$AA?5?$AA?$CF?$AAs?$AA?$AN?$AA?6?$AA?$AA@| DCB " "
	DCB	0x0, " ", 0x0, "O", 0x0, "P", 0x0, "P", 0x0, " ", 0x0, "M"
	DCB	0x0, "o", 0x0, "d", 0x0, "e", 0x0, ":", 0x0, " ", 0x0, " "
	DCB	0x0, " ", 0x0, "%", 0x0, "s", 0x0, 0xd, 0x0, 0xa, 0x0, 0x0
	DCB	0x0					; `string'

  00000			 AREA	 |.rdata|, DATA, READONLY
|??_C@_1CI@GNFBDCCP@?$AA?5?$AA?5?$AAB?$AAa?$AAc?$AAk?$AAl?$AAi?$AAg?$AAh?$AAt?$AA?3?$AA?5?$AA?5?$AA?5?$AA?$CF?$AAs?$AA?$AN?$AA?6?$AA?$AA@| DCB " "
	DCB	0x0, " ", 0x0, "B", 0x0, "a", 0x0, "c", 0x0, "k", 0x0, "l"
	DCB	0x0, "i", 0x0, "g", 0x0, "h", 0x0, "t", 0x0, ":", 0x0, " "
	DCB	0x0, " ", 0x0, " ", 0x0, "%", 0x0, "s", 0x0, 0xd, 0x0, 0xa
	DCB	0x0, 0x0, 0x0				; `string'

  00000			 AREA	 |.rdata|, DATA, READONLY
|??_C@_1EE@JFPPGEDH@?$AA?5?$AA?5?$AAS?$AAD?$AA?5?$AAC?$AAa?$AAr?$AAd?$AA?5?$AAt?$AAo?$AA?5?$AAF?$AAl?$AAa?$AAs?$AAh?$AA?5?$AAs?$AAt?$AAa?$AAt?$AAu?$AAs?$AA?3?$AA?5?$AA?5?$AA?5?$AA?$CF?$AAs?$AA?$AN@| DCB " "
	DCB	0x0, " ", 0x0, "S", 0x0, "D", 0x0, " ", 0x0, "C", 0x0, "a"
	DCB	0x0, "r", 0x0, "d", 0x0, " ", 0x0, "t", 0x0, "o", 0x0, " "
	DCB	0x0, "F", 0x0, "l", 0x0, "a", 0x0, "s", 0x0, "h", 0x0, " "
	DCB	0x0, "s", 0x0, "t", 0x0, "a", 0x0, "t", 0x0, "u", 0x0, "s"
	DCB	0x0, ":", 0x0, " ", 0x0, " ", 0x0, " ", 0x0, "%", 0x0, "s"
	DCB	0x0, 0xd, 0x0, 0xa, 0x0, 0x0, 0x0	; `string'

  00000			 AREA	 |.rdata|, DATA, READONLY
|??_C@_1CM@JIGPKFND@?$AA?5?$AA?5?$AAR?$AAe?$AAt?$AAa?$AAi?$AAl?$AA?5?$AAM?$AAs?$AAg?$AAs?$AA?3?$AA?5?$AA?5?$AA?5?$AA?$CF?$AAs?$AA?$AN?$AA?6?$AA?$AA@| DCB " "
	DCB	0x0, " ", 0x0, "R", 0x0, "e", 0x0, "t", 0x0, "a", 0x0, "i"
	DCB	0x0, "l", 0x0, " ", 0x0, "M", 0x0, "s", 0x0, "g", 0x0, "s"
	DCB	0x0, ":", 0x0, " ", 0x0, " ", 0x0, " ", 0x0, "%", 0x0, "s"
	DCB	0x0, 0xd, 0x0, 0xa, 0x0, 0x0, 0x0	; `string'

  00000			 AREA	 |.rdata|, DATA, READONLY
|??_C@_1CM@NDEIFMBL@?$AA?5?$AA?5?$AAD?$AAe?$AAv?$AAi?$AAc?$AAe?$AA?5?$AAI?$AAD?$AA?3?$AA?5?$AA?5?$AA?5?$AA?5?$AA?5?$AA?$CF?$AAd?$AA?$AN?$AA?6?$AA?$AA@| DCB " "
	DCB	0x0, " ", 0x0, "D", 0x0, "e", 0x0, "v", 0x0, "i", 0x0, "c"
	DCB	0x0, "e", 0x0, " ", 0x0, "I", 0x0, "D", 0x0, ":", 0x0, " "
	DCB	0x0, " ", 0x0, " ", 0x0, " ", 0x0, " ", 0x0, "%", 0x0, "d"
	DCB	0x0, 0xd, 0x0, 0xa, 0x0, 0x0, 0x0	; `string'

  00000			 AREA	 |.rdata|, DATA, READONLY
|??_C@_1CM@FFHNOGK@?$AA?5?$AA?5?$AAD?$AAi?$AAs?$AAp?$AAl?$AAa?$AAy?$AA?5?$AAR?$AAe?$AAs?$AA?3?$AA?5?$AA?5?$AA?5?$AA?$CF?$AAs?$AA?$AN?$AA?6?$AA?$AA@| DCB " "
	DCB	0x0, " ", 0x0, "D", 0x0, "i", 0x0, "s", 0x0, "p", 0x0, "l"
	DCB	0x0, "a", 0x0, "y", 0x0, " ", 0x0, "R", 0x0, "e", 0x0, "s"
	DCB	0x0, ":", 0x0, " ", 0x0, " ", 0x0, " ", 0x0, "%", 0x0, "s"
	DCB	0x0, 0xd, 0x0, 0xa, 0x0, 0x0, 0x0	; `string'

  00000			 AREA	 |.rdata|, DATA, READONLY
|??_C@_1CM@NPGGEGKD@?$AA?5?$AA?5?$AAD?$AAe?$AAb?$AAu?$AAg?$AA?5?$AAd?$AAe?$AAv?$AAi?$AAc?$AAe?$AA?3?$AA?5?$AA?5?$AA?$CF?$AAs?$AA?$AN?$AA?6?$AA?$AA@| DCB " "
	DCB	0x0, " ", 0x0, "D", 0x0, "e", 0x0, "b", 0x0, "u", 0x0, "g"
	DCB	0x0, " ", 0x0, "d", 0x0, "e", 0x0, "v", 0x0, "i", 0x0, "c"
	DCB	0x0, "e", 0x0, ":", 0x0, " ", 0x0, " ", 0x0, "%", 0x0, "s"
	DCB	0x0, 0xd, 0x0, 0xa, 0x0, 0x0, 0x0	; `string'

  00000			 AREA	 |.rdata|, DATA, READONLY
|??_C@_1BM@PMDNGDGM@?$AAn?$AAo?$AAt?$AA?5?$AAs?$AAp?$AAe?$AAc?$AAi?$AAf?$AAi?$AAe?$AAd?$AA?$AA@| DCB "n"
	DCB	0x0, "o", 0x0, "t", 0x0, " ", 0x0, "s", 0x0, "p", 0x0, "e"
	DCB	0x0, "c", 0x0, "i", 0x0, "f", 0x0, "i", 0x0, "e", 0x0, "d"
	DCB	0x0, 0x0, 0x0				; `string'

  00000			 AREA	 |.rdata|, DATA, READONLY
|??_C@_1BG@CEFCIDHI@?$AA?$AN?$AA?6?$AA?5?$AAM?$AAa?$AAi?$AAn?$AA?3?$AA?$AN?$AA?6?$AA?$AA@| DCB 0xd
	DCB	0x0, 0xa, 0x0, " ", 0x0, "M", 0x0, "a", 0x0, "i", 0x0, "n"
	DCB	0x0, ":", 0x0, 0xd, 0x0, 0xa, 0x0, 0x0, 0x0 ; `string'

  00000			 AREA	 |.rdata|, DATA, READONLY
|??_C@_1CM@IGJFNOHM@?$AA?5?$AA?5?$AAB?$AAo?$AAo?$AAt?$AA?5?$AAd?$AAe?$AAv?$AAi?$AAc?$AAe?$AA?3?$AA?5?$AA?5?$AA?5?$AA?$CF?$AAs?$AA?$AN?$AA?6?$AA?$AA@| DCB " "
	DCB	0x0, " ", 0x0, "B", 0x0, "o", 0x0, "o", 0x0, "t", 0x0, " "
	DCB	0x0, "d", 0x0, "e", 0x0, "v", 0x0, "i", 0x0, "c", 0x0, "e"
	DCB	0x0, ":", 0x0, " ", 0x0, " ", 0x0, " ", 0x0, "%", 0x0, "s"
	DCB	0x0, 0xd, 0x0, 0xa, 0x0, 0x0, 0x0	; `string'
; Function compile flags: /Ogspy

  00000			 AREA	 |.text|, CODE, ARM

  00000		 |ShowSettings| PROC

; 503  : {

  00000		 |$LN12@ShowSettin|
  00000	e92d41f0	 stmdb       sp!, {r4 - r8, lr}
  00004		 |$M49683|
  00004	e1a08000	 mov         r8, r0

; 504  :     OPP_MODE_MENU * pOppMenu = oppModeMenu35x;
; 505  :     UNREFERENCED_PARAMETER(pMenu);
; 506  :     
; 507  :     if(g_CPUFamily == CPU_FAMILY_DM37XX)

  00008	e59f3150	 ldr         r3, [pc, #0x150]
  0000c	e59f5148	 ldr         r5, [pc, #0x148]

; 508  :     {
; 509  :         pOppMenu = oppModeMenu37x;
; 510  :     }
; 511  : 
; 512  :     OALLog(L"\r\n Main:\r\n");

  00010	e59f0140	 ldr         r0, [pc, #0x140]
  00014	e5933000	 ldr         r3, [r3]
  00018	e2857048	 add         r7, r5, #0x48
  0001c	e3530001	 cmp         r3, #1
  00020	02857060	 addeq       r7, r5, #0x60
  00024	eb000000	 bl          NKDbgPrintfW

; 513  :     OALLog(
; 514  :         L"  Boot device:   %s\r\n",
; 515  :         OALKitlDeviceName(&g_bootCfg.bootDevLoc, g_bootDevices)
; 516  :     );

  00028	e59f4124	 ldr         r4, [pc, #0x124]
  0002c	e59f111c	 ldr         r1, [pc, #0x11C]
  00030	e2840008	 add         r0, r4, #8
  00034	eb000000	 bl          OALKitlDeviceName
  00038	e1a01000	 mov         r1, r0
  0003c	e59f0108	 ldr         r0, [pc, #0x108]
  00040	eb000000	 bl          NKDbgPrintfW

; 517  :     OALLog(
; 518  :         L"  Debug device:  %s\r\n",
; 519  :         (g_bootCfg.kitlDevLoc.LogicalLoc) ? OALKitlDeviceName(&g_bootCfg.kitlDevLoc, g_kitlDevices) : L"not specified"
; 520  :     );

  00044	e5943024	 ldr         r3, [r4, #0x24]
  00048	e3530000	 cmp         r3, #0
  0004c	0a000004	 beq         |$LN4@ShowSettin|
  00050	e59f10f0	 ldr         r1, [pc, #0xF0]
  00054	e284001c	 add         r0, r4, #0x1C
  00058	eb000000	 bl          OALKitlDeviceName
  0005c	e1a01000	 mov         r1, r0
  00060	ea000000	 b           |$LN5@ShowSettin|
  00064		 |$LN4@ShowSettin|
  00064	e59f10d8	 ldr         r1, [pc, #0xD8]
  00068		 |$LN5@ShowSettin|
  00068	e59f00d0	 ldr         r0, [pc, #0xD0]
  0006c	eb000000	 bl          NKDbgPrintfW

; 521  :     OALLog(
; 522  :         L"  Retail Msgs:   %s\r\n",
; 523  :         (g_bootCfg.oalFlags & BOOT_CFG_OAL_FLAGS_RETAILMSG_ENABLE) ? L"enabled" : L"disabled"
; 524  :     );

  00070	e5943034	 ldr         r3, [r4, #0x34]
  00074	e59f60c0	 ldr         r6, [pc, #0xC0]
  00078	e59f00b8	 ldr         r0, [pc, #0xB8]
  0007c	e3130001	 tst         r3, #1
  00080	11a01006	 movne       r1, r6
  00084	059f109c	 ldreq       r1, [pc, #0x9C]
  00088	eb000000	 bl          NKDbgPrintfW

; 525  :     OALLog(
; 526  :         L"  Device ID:     %d\r\n", g_bootCfg.deviceID
; 527  :     );

  0008c	e5941044	 ldr         r1, [r4, #0x44]
  00090	e59f009c	 ldr         r0, [pc, #0x9C]
  00094	eb000000	 bl          NKDbgPrintfW

; 528  :     OALLog(
; 529  :         L"  Display Res:   %s\r\n", dispResMenu[g_bootCfg.displayRes].resName
; 530  :     );

  00098	e594306c	 ldr         r3, [r4, #0x6C]
  0009c	e59f008c	 ldr         r0, [pc, #0x8C]
  000a0	e0853183	 add         r3, r5, r3, lsl #3
  000a4	e5931004	 ldr         r1, [r3, #4]
  000a8	eb000000	 bl          NKDbgPrintfW

; 531  :     OALLog(
; 532  :         L"  Flashing NK.bin:   %s\r\n", 
; 533  :         (g_bootCfg.flashNKFlags & ENABLE_FLASH_NK) ? L"enabled" : L"disabled"
; 534  :     );    

  000ac	e5943084	 ldr         r3, [r4, #0x84]
  000b0	e59f0074	 ldr         r0, [pc, #0x74]
  000b4	e3130001	 tst         r3, #1
  000b8	059f6068	 ldreq       r6, [pc, #0x68]
  000bc	e1a01006	 mov         r1, r6
  000c0	eb000000	 bl          NKDbgPrintfW

; 535  :     OALLog(
; 536  :         L"  OPP Mode:   %s\r\n", pOppMenu[g_bootCfg.opp_mode].oppModeName
; 537  :     );

  000c4	e594308c	 ldr         r3, [r4, #0x8C]
  000c8	e59f0054	 ldr         r0, [pc, #0x54]
  000cc	e7971103	 ldr         r1, [r7, +r3, lsl #2]
  000d0	eb000000	 bl          NKDbgPrintfW

; 538  : 	OALLog(
; 539  :         L"  Backlight:   %s\r\n", disBacklight[g_bootCfg.backlight].blName	//Ray 13-07-29
; 540  :     );

  000d4	e5942070	 ldr         r2, [r4, #0x70]
  000d8	e2853070	 add         r3, r5, #0x70
  000dc	e59f003c	 ldr         r0, [pc, #0x3C]
  000e0	e0833182	 add         r3, r3, r2, lsl #3
  000e4	e5931004	 ldr         r1, [r3, #4]
  000e8	eb000000	 bl          NKDbgPrintfW

; 541  : 	OALLog(
; 542  :         L"  SD Card to Flash status:   %s\r\n", sdToFlash[g_bootCfg.sdtoflash].sdName //Ray 13-07-29
; 543  :     );

  000ec	e5942074	 ldr         r2, [r4, #0x74]
  000f0	e2853090	 add         r3, r5, #0x90
  000f4	e59f0020	 ldr         r0, [pc, #0x20]
  000f8	e0833182	 add         r3, r3, r2, lsl #3
  000fc	e5931004	 ldr         r1, [r3, #4]
  00100	eb000000	 bl          NKDbgPrintfW

; 544  : 	
; 545  : #if BUILDING_EBOOT_SD
; 546  :     ShowSDCardSettings(pMenu);

  00104	e1a00008	 mov         r0, r8
  00108	eb000000	 bl          ShowSDCardSettings

; 547  : #endif
; 548  :     ShowNetworkSettings(pMenu);

  0010c	e1a00008	 mov         r0, r8
  00110	eb000000	 bl          ShowNetworkSettings

; 549  : }

  00114	e8bd41f0	 ldmia       sp!, {r4 - r8, lr}
  00118	e12fff1e	 bx          lr
  0011c		 |$LN13@ShowSettin|
  0011c		 |$LN14@ShowSettin|
  0011c	00000000	 DCD         |??_C@_1EE@JFPPGEDH@?$AA?5?$AA?5?$AAS?$AAD?$AA?5?$AAC?$AAa?$AAr?$AAd?$AA?5?$AAt?$AAo?$AA?5?$AAF?$AAl?$AAa?$AAs?$AAh?$AA?5?$AAs?$AAt?$AAa?$AAt?$AAu?$AAs?$AA?3?$AA?5?$AA?5?$AA?5?$AA?$CF?$AAs?$AA?$AN@|
  00120		 |$LN15@ShowSettin|
  00120	00000000	 DCD         |??_C@_1CI@GNFBDCCP@?$AA?5?$AA?5?$AAB?$AAa?$AAc?$AAk?$AAl?$AAi?$AAg?$AAh?$AAt?$AA?3?$AA?5?$AA?5?$AA?5?$AA?$CF?$AAs?$AA?$AN?$AA?6?$AA?$AA@|
  00124		 |$LN16@ShowSettin|
  00124	00000000	 DCD         |??_C@_1CG@OIGCIHAG@?$AA?5?$AA?5?$AAO?$AAP?$AAP?$AA?5?$AAM?$AAo?$AAd?$AAe?$AA?3?$AA?5?$AA?5?$AA?5?$AA?$CF?$AAs?$AA?$AN?$AA?6?$AA?$AA@|
  00128		 |$LN17@ShowSettin|
  00128	00000000	 DCD         |??_C@_1BC@LGPIFEA@?$AAd?$AAi?$AAs?$AAa?$AAb?$AAl?$AAe?$AAd?$AA?$AA@|
  0012c		 |$LN18@ShowSettin|
  0012c	00000000	 DCD         |??_C@_1DE@FKCOLIJA@?$AA?5?$AA?5?$AAF?$AAl?$AAa?$AAs?$AAh?$AAi?$AAn?$AAg?$AA?5?$AAN?$AAK?$AA?4?$AAb?$AAi?$AAn?$AA?3?$AA?5?$AA?5?$AA?5?$AA?$CF?$AAs?$AA?$AN?$AA?6?$AA?$AA@|
  00130		 |$LN19@ShowSettin|
  00130	00000000	 DCD         |??_C@_1CM@FFHNOGK@?$AA?5?$AA?5?$AAD?$AAi?$AAs?$AAp?$AAl?$AAa?$AAy?$AA?5?$AAR?$AAe?$AAs?$AA?3?$AA?5?$AA?5?$AA?5?$AA?$CF?$AAs?$AA?$AN?$AA?6?$AA?$AA@|
  00134		 |$LN20@ShowSettin|
  00134	00000000	 DCD         |??_C@_1CM@NDEIFMBL@?$AA?5?$AA?5?$AAD?$AAe?$AAv?$AAi?$AAc?$AAe?$AA?5?$AAI?$AAD?$AA?3?$AA?5?$AA?5?$AA?5?$AA?5?$AA?5?$AA?$CF?$AAd?$AA?$AN?$AA?6?$AA?$AA@|
  00138		 |$LN21@ShowSettin|
  00138	00000000	 DCD         |??_C@_1CM@JIGPKFND@?$AA?5?$AA?5?$AAR?$AAe?$AAt?$AAa?$AAi?$AAl?$AA?5?$AAM?$AAs?$AAg?$AAs?$AA?3?$AA?5?$AA?5?$AA?5?$AA?$CF?$AAs?$AA?$AN?$AA?6?$AA?$AA@|
  0013c		 |$LN22@ShowSettin|
  0013c	00000000	 DCD         |??_C@_1BA@BKMGIBPB@?$AAe?$AAn?$AAa?$AAb?$AAl?$AAe?$AAd?$AA?$AA@|
  00140		 |$LN23@ShowSettin|
  00140	00000000	 DCD         |??_C@_1CM@NPGGEGKD@?$AA?5?$AA?5?$AAD?$AAe?$AAb?$AAu?$AAg?$AA?5?$AAd?$AAe?$AAv?$AAi?$AAc?$AAe?$AA?3?$AA?5?$AA?5?$AA?$CF?$AAs?$AA?$AN?$AA?6?$AA?$AA@|
  00144		 |$LN24@ShowSettin|
  00144	00000000	 DCD         |??_C@_1BM@PMDNGDGM@?$AAn?$AAo?$AAt?$AA?5?$AAs?$AAp?$AAe?$AAc?$AAi?$AAf?$AAi?$AAe?$AAd?$AA?$AA@|
  00148		 |$LN25@ShowSettin|
  00148	00000000	 DCD         |g_kitlDevices|
  0014c		 |$LN26@ShowSettin|
  0014c	00000000	 DCD         |??_C@_1CM@IGJFNOHM@?$AA?5?$AA?5?$AAB?$AAo?$AAo?$AAt?$AA?5?$AAd?$AAe?$AAv?$AAi?$AAc?$AAe?$AA?3?$AA?5?$AA?5?$AA?5?$AA?$CF?$AAs?$AA?$AN?$AA?6?$AA?$AA@|
  00150		 |$LN27@ShowSettin|
  00150	00000000	 DCD         |g_bootDevices|
  00154		 |$LN28@ShowSettin|
  00154	00000000	 DCD         |g_bootCfg|
  00158		 |$LN29@ShowSettin|
  00158	00000000	 DCD         |??_C@_1BG@CEFCIDHI@?$AA?$AN?$AA?6?$AA?5?$AAM?$AAa?$AAi?$AAn?$AA?3?$AA?$AN?$AA?6?$AA?$AA@|
  0015c		 |$LN30@ShowSettin|
  0015c	00000000	 DCD         |dispResMenu|
  00160		 |$LN31@ShowSettin|
  00160	00000000	 DCD         |g_CPUFamily|
  00164		 |$M49684|

			 ENDP  ; |ShowSettings|

	EXPORT	|__$ArrayPad$| [ DATA ]
	EXPORT	|??_C@_1DE@MLCCPHNO@?$AA?5?$AAC?$AAu?$AAr?$AAr?$AAe?$AAn?$AAt?$AA?5?$AAD?$AAe?$AAv?$AAi?$AAc?$AAe?$AA?5?$AAI?$AAD?$AA?3?$AA?5?$AA?5?$AA?$CF?$AAd?$AA?$AN?$AA?6?$AA?$AA@| [ DATA ] ; `string'
	EXPORT	|??_C@_1CG@DEECOADH@?$AA?$AN?$AA?6?$AA?5?$AAN?$AAe?$AAw?$AA?5?$AAD?$AAe?$AAv?$AAi?$AAc?$AAe?$AA?5?$AAI?$AAD?$AA?3?$AA?5?$AA?$AA@| [ DATA ] ; `string'

  00000			 AREA	 |.pdata|, PDATA
|$T49714| DCD	|$LN6@SetDeviceI|
	DCD	0xc0001c02

  00000			 AREA	 |.xdata|, DATA
|$T49710| DCD	0xfffffff4

  00000			 AREA	 |.rdata|, DATA, READONLY
|??_C@_1DE@MLCCPHNO@?$AA?5?$AAC?$AAu?$AAr?$AAr?$AAe?$AAn?$AAt?$AA?5?$AAD?$AAe?$AAv?$AAi?$AAc?$AAe?$AA?5?$AAI?$AAD?$AA?3?$AA?5?$AA?5?$AA?$CF?$AAd?$AA?$AN?$AA?6?$AA?$AA@| DCB " "
	DCB	0x0, "C", 0x0, "u", 0x0, "r", 0x0, "r", 0x0, "e", 0x0, "n"
	DCB	0x0, "t", 0x0, " ", 0x0, "D", 0x0, "e", 0x0, "v", 0x0, "i"
	DCB	0x0, "c", 0x0, "e", 0x0, " ", 0x0, "I", 0x0, "D", 0x0, ":"
	DCB	0x0, " ", 0x0, " ", 0x0, "%", 0x0, "d", 0x0, 0xd, 0x0, 0xa
	DCB	0x0, 0x0, 0x0				; `string'

  00000			 AREA	 |.rdata|, DATA, READONLY
|??_C@_1CG@DEECOADH@?$AA?$AN?$AA?6?$AA?5?$AAN?$AAe?$AAw?$AA?5?$AAD?$AAe?$AAv?$AAi?$AAc?$AAe?$AA?5?$AAI?$AAD?$AA?3?$AA?5?$AA?$AA@| DCB 0xd
	DCB	0x0, 0xa, 0x0, " ", 0x0, "N", 0x0, "e", 0x0, "w", 0x0, " "
	DCB	0x0, "D", 0x0, "e", 0x0, "v", 0x0, "i", 0x0, "c", 0x0, "e"
	DCB	0x0, " ", 0x0, "I", 0x0, "D", 0x0, ":", 0x0, " ", 0x0, 0x0
	DCB	0x0					; `string'
; Function compile flags: /Ogspy

  00000			 AREA	 |.text|, CODE, ARM

  00000	00000000	 DCD         |__GSHandlerCheck|
  00004	00000000	 DCD         |$T49710|

  00008		 |SetDeviceID| PROC

; 671  : {

  00008		 |$LN6@SetDeviceI|
  00008	e92d4010	 stmdb       sp!, {r4, lr}
  0000c	e24dd024	 sub         sp, sp, #0x24
  00010		 |$M49711|
  00010	e59f305c	 ldr         r3, [pc, #0x5C]
  00014	e5933000	 ldr         r3, [r3]
  00018	e58d3020	 str         r3, [sp, #0x20]

; 672  :     WCHAR  szInputLine[16];
; 673  :     UNREFERENCED_PARAMETER(pMenu);
; 674  : 
; 675  :     OALLog(
; 676  :         L" Current Device ID:  %d\r\n", g_bootCfg.deviceID
; 677  :     );

  0001c	e59f404c	 ldr         r4, [pc, #0x4C]
  00020	e59f0044	 ldr         r0, [pc, #0x44]
  00024	e5941044	 ldr         r1, [r4, #0x44]
  00028	eb000000	 bl          NKDbgPrintfW

; 678  : 
; 679  :     OALLog(L"\r\n New Device ID: ");

  0002c	e59f0034	 ldr         r0, [pc, #0x34]
  00030	eb000000	 bl          NKDbgPrintfW

; 680  : 
; 681  :     if (OALBLMenuReadLine(szInputLine, dimof(szInputLine)) == 0) 

  00034	e3a01010	 mov         r1, #0x10
  00038	e28d0000	 add         r0, sp, #0
  0003c	eb000000	 bl          OALBLMenuReadLine
  00040	e3500000	 cmp         r0, #0
  00044	0a000002	 beq         |$cleanUp$48759|

; 682  :         {
; 683  :         goto cleanUp;
; 684  :         }
; 685  : 
; 686  :     // Get device ID
; 687  :     g_bootCfg.deviceID = OALStringToUINT32(szInputLine);

  00048	e28d0000	 add         r0, sp, #0
  0004c	eb000000	 bl          OALStringToUINT32
  00050	e5840044	 str         r0, [r4, #0x44]
  00054		 |$cleanUp$48759|
  00054	e59d0020	 ldr         r0, [sp, #0x20]
  00058	eb000000	 bl          __security_check_cookie

; 688  : 
; 689  : cleanUp:
; 690  :     return;
; 691  : }

  0005c	e28dd024	 add         sp, sp, #0x24
  00060	e8bd4010	 ldmia       sp!, {r4, lr}
  00064	e12fff1e	 bx          lr
  00068		 |$LN7@SetDeviceI|
  00068		 |$LN8@SetDeviceI|
  00068	00000000	 DCD         |??_C@_1CG@DEECOADH@?$AA?$AN?$AA?6?$AA?5?$AAN?$AAe?$AAw?$AA?5?$AAD?$AAe?$AAv?$AAi?$AAc?$AAe?$AA?5?$AAI?$AAD?$AA?3?$AA?5?$AA?$AA@|
  0006c		 |$LN9@SetDeviceI|
  0006c	00000000	 DCD         |??_C@_1DE@MLCCPHNO@?$AA?5?$AAC?$AAu?$AAr?$AAr?$AAe?$AAn?$AAt?$AA?5?$AAD?$AAe?$AAv?$AAi?$AAc?$AAe?$AA?5?$AAI?$AAD?$AA?3?$AA?5?$AA?5?$AA?$CF?$AAd?$AA?$AN?$AA?6?$AA?$AA@|
  00070		 |$LN10@SetDeviceI|
  00070	00000000	 DCD         |g_bootCfg|
  00074		 |$LN11@SetDeviceI|
  00074	00000000	 DCD         |__security_cookie|
  00078		 |$M49712|

			 ENDP  ; |SetDeviceID|

	END
