; Listing generated by Microsoft (R) Optimizing Compiler Version 14.01.60511.01 

	TTL	C:\WINCE600\PLATFORM\COMMON\SRC\SOC\OMAP2420_MS_V1\SDHC\IMPL\menelaus.cpp
	CODE32

  00000			 AREA	 |.drectve|, DRECTVE
	DCB	"-defaultlib:LIBCMT "
	DCB	"-defaultlib:OLDNAMES "

	EXPORT	|DEVICE_IFC_I2C_GUID| [ DATA ]
	EXPORT	|??_C@_1EK@BIFPIHNB@?$AAc?$AAt?$AAo?$AAr?$AA?5?$AAC?$AAM?$AAe?$AAn?$AAe?$AAl?$AAa?$AAu?$AAs?$AA?$CI?$AA?$CF?$AAs?$AA?0?$AA?5?$AA0?$AAx?$AA?$CF?$AA0?$AA8?$AAx?$AA?0?$AA?5?$AA0?$AAx?$AA?$CF?$AA0?$AA8@| [ DATA ] ; `string'
	EXPORT	|??0CMenelaus@@QAA@PBGKK@Z|		; CMenelaus::CMenelaus
	IMPORT	|NKDbgPrintfW|
	IMPORT	|dpCurSettings|

  00000			 AREA	 |.pdata|, PDATA
|$T36765| DCD	|$LN7@CMenelaus|
	DCD	0x40003704
; File c:\wince600\platform\common\src\soc\omap2420_ms_v1\sdhc\impl\menelaus.cpp

  00000			 AREA	 |.rdata|, DATA, READONLY
|??_C@_1EK@BIFPIHNB@?$AAc?$AAt?$AAo?$AAr?$AA?5?$AAC?$AAM?$AAe?$AAn?$AAe?$AAl?$AAa?$AAu?$AAs?$AA?$CI?$AA?$CF?$AAs?$AA?0?$AA?5?$AA0?$AAx?$AA?$CF?$AA0?$AA8?$AAx?$AA?0?$AA?5?$AA0?$AAx?$AA?$CF?$AA0?$AA8@| DCB "c"
	DCB	0x0, "t", 0x0, "o", 0x0, "r", 0x0, " ", 0x0, "C", 0x0, "M"
	DCB	0x0, "e", 0x0, "n", 0x0, "e", 0x0, "l", 0x0, "a", 0x0, "u"
	DCB	0x0, "s", 0x0, "(", 0x0, "%", 0x0, "s", 0x0, ",", 0x0, " "
	DCB	0x0, "0", 0x0, "x", 0x0, "%", 0x0, "0", 0x0, "8", 0x0, "x"
	DCB	0x0, ",", 0x0, " ", 0x0, "0", 0x0, "x", 0x0, "%", 0x0, "0"
	DCB	0x0, "8", 0x0, "x", 0x0, ")", 0x0, 0xd, 0x0, 0xa, 0x0, 0x0
	DCB	0x0					; `string'
; Function compile flags: /Odtp

  00000			 AREA	 |.text|, CODE, ARM

  00000		 |??0CMenelaus@@QAA@PBGKK@Z| PROC	; CMenelaus::CMenelaus

; 67   : {

  00000		 |$LN7@CMenelaus|
  00000	e1a0c00d	 mov         r12, sp
  00004	e92d000f	 stmdb       sp!, {r0 - r3}
  00008	e92d5000	 stmdb       sp!, {r12, lr}
  0000c	e24dd008	 sub         sp, sp, #8
  00010		 |$M36762|
  00010	e59d2010	 ldr         r2, [sp, #0x10]
  00014	e3a03000	 mov         r3, #0
  00018	e5823000	 str         r3, [r2]
  0001c	e59d3010	 ldr         r3, [sp, #0x10]
  00020	e2832004	 add         r2, r3, #4
  00024	e59d3014	 ldr         r3, [sp, #0x14]
  00028	e5823000	 str         r3, [r2]
  0002c	e59d3010	 ldr         r3, [sp, #0x10]
  00030	e2832008	 add         r2, r3, #8
  00034	e59d3018	 ldr         r3, [sp, #0x18]
  00038	e5823000	 str         r3, [r2]
  0003c	e59d3010	 ldr         r3, [sp, #0x10]
  00040	e283200c	 add         r2, r3, #0xC
  00044	e59d301c	 ldr         r3, [sp, #0x1C]
  00048	e5823000	 str         r3, [r2]
  0004c	e59d3010	 ldr         r3, [sp, #0x10]
  00050	e2832010	 add         r2, r3, #0x10
  00054	e3a03000	 mov         r3, #0
  00058	e5823000	 str         r3, [r2]
  0005c	e59d3010	 ldr         r3, [sp, #0x10]
  00060	e2832014	 add         r2, r3, #0x14
  00064	e3a03000	 mov         r3, #0
  00068	e5823000	 str         r3, [r2]

; 68   :     DEBUGMSG(SDCARD_ZONE_FUNC, (L"ctor CMenelaus(%s, 0x%08x, 0x%08x)\r\n", 
; 69   :         m_lpsI2CDeviceName, 
; 70   :         m_dwI2CMenelausAddress, 
; 71   :         m_dwI2CMenelausAddrSize));

  0006c	e59f3064	 ldr         r3, [pc, #0x64]
  00070	e5933440	 ldr         r3, [r3, #0x440]
  00074	e3130b02	 tst         r3, #2, 22
  00078	0a00000d	 beq         |$LN3@CMenelaus|
  0007c	e59d3010	 ldr         r3, [sp, #0x10]
  00080	e283300c	 add         r3, r3, #0xC
  00084	e5933000	 ldr         r3, [r3]
  00088	e59d2010	 ldr         r2, [sp, #0x10]
  0008c	e2822008	 add         r2, r2, #8
  00090	e5922000	 ldr         r2, [r2]
  00094	e59d1010	 ldr         r1, [sp, #0x10]
  00098	e2811004	 add         r1, r1, #4
  0009c	e5911000	 ldr         r1, [r1]
  000a0	e59f002c	 ldr         r0, [pc, #0x2C]
  000a4	eb000000	 bl          NKDbgPrintfW
  000a8	e3a03001	 mov         r3, #1
  000ac	e58d3004	 str         r3, [sp, #4]
  000b0	ea000001	 b           |$LN4@CMenelaus|
  000b4		 |$LN3@CMenelaus|
  000b4	e3a03000	 mov         r3, #0
  000b8	e58d3004	 str         r3, [sp, #4]
  000bc		 |$LN4@CMenelaus|

; 72   : 
; 73   : }

  000bc	e59d3010	 ldr         r3, [sp, #0x10]
  000c0	e58d3000	 str         r3, [sp]
  000c4	e59d0000	 ldr         r0, [sp]
  000c8	e28dd008	 add         sp, sp, #8
  000cc	e89d6000	 ldmia       sp, {sp, lr}
  000d0	e12fff1e	 bx          lr
  000d4		 |$LN8@CMenelaus|
  000d4		 |$LN9@CMenelaus|
  000d4	00000000	 DCD         |??_C@_1EK@BIFPIHNB@?$AAc?$AAt?$AAo?$AAr?$AA?5?$AAC?$AAM?$AAe?$AAn?$AAe?$AAl?$AAa?$AAu?$AAs?$AA?$CI?$AA?$CF?$AAs?$AA?0?$AA?5?$AA0?$AAx?$AA?$CF?$AA0?$AA8?$AAx?$AA?0?$AA?5?$AA0?$AAx?$AA?$CF?$AA0?$AA8@|
  000d8		 |$LN10@CMenelaus|
  000d8	00000000	 DCD         |dpCurSettings|
  000dc		 |$M36763|

			 ENDP  ; |??0CMenelaus@@QAA@PBGKK@Z|, CMenelaus::CMenelaus

	EXPORT	|?MenelausDeinit@CMenelaus@@QAAHXZ|	; CMenelaus::MenelausDeinit
	EXPORT	|??_C@_1CC@GBCOMIBL@?$AAd?$AAt?$AAo?$AAr?$AA?5?$AAC?$AAM?$AAe?$AAn?$AAe?$AAl?$AAa?$AAu?$AAs?$AA?$AN?$AA?6?$AA?$AA@| [ DATA ] ; `string'
	EXPORT	|??1CMenelaus@@QAA@XZ|			; CMenelaus::~CMenelaus

  00008			 AREA	 |.pdata|, PDATA
|$T36775| DCD	|$LN7@CMenelaus@2|
	DCD	0x40001604

  00000			 AREA	 |.rdata|, DATA, READONLY
|??_C@_1CC@GBCOMIBL@?$AAd?$AAt?$AAo?$AAr?$AA?5?$AAC?$AAM?$AAe?$AAn?$AAe?$AAl?$AAa?$AAu?$AAs?$AA?$AN?$AA?6?$AA?$AA@| DCB "d"
	DCB	0x0, "t", 0x0, "o", 0x0, "r", 0x0, " ", 0x0, "C", 0x0, "M"
	DCB	0x0, "e", 0x0, "n", 0x0, "e", 0x0, "l", 0x0, "a", 0x0, "u"
	DCB	0x0, "s", 0x0, 0xd, 0x0, 0xa, 0x0, 0x0, 0x0 ; `string'
; Function compile flags: /Odtp

  000dc			 AREA	 |.text|, CODE, ARM

  000dc		 |??1CMenelaus@@QAA@XZ| PROC		; CMenelaus::~CMenelaus

; 82   : {

  000dc		 |$LN7@CMenelaus@2|
  000dc	e1a0c00d	 mov         r12, sp
  000e0	e92d0001	 stmdb       sp!, {r0}
  000e4	e92d5000	 stmdb       sp!, {r12, lr}
  000e8	e24dd004	 sub         sp, sp, #4
  000ec		 |$M36772|

; 83   :     DEBUGMSG(SDCARD_ZONE_FUNC, (L"dtor CMenelaus\r\n"));

  000ec	e59f303c	 ldr         r3, [pc, #0x3C]
  000f0	e5933440	 ldr         r3, [r3, #0x440]
  000f4	e3130b02	 tst         r3, #2, 22
  000f8	0a000004	 beq         |$LN3@CMenelaus@2|
  000fc	e59f0028	 ldr         r0, [pc, #0x28]
  00100	eb000000	 bl          NKDbgPrintfW
  00104	e3a03001	 mov         r3, #1
  00108	e58d3000	 str         r3, [sp]
  0010c	ea000001	 b           |$LN4@CMenelaus@2|
  00110		 |$LN3@CMenelaus@2|
  00110	e3a03000	 mov         r3, #0
  00114	e58d3000	 str         r3, [sp]
  00118		 |$LN4@CMenelaus@2|

; 84   :     MenelausDeinit();

  00118	e59d000c	 ldr         r0, [sp, #0xC]
  0011c	eb000000	 bl          |?MenelausDeinit@CMenelaus@@QAAHXZ|

; 85   : }

  00120	e28dd004	 add         sp, sp, #4
  00124	e89d6000	 ldmia       sp, {sp, lr}
  00128	e12fff1e	 bx          lr
  0012c		 |$LN8@CMenelaus@2|
  0012c		 |$LN9@CMenelaus@2|
  0012c	00000000	 DCD         |??_C@_1CC@GBCOMIBL@?$AAd?$AAt?$AAo?$AAr?$AA?5?$AAC?$AAM?$AAe?$AAn?$AAe?$AAl?$AAa?$AAu?$AAs?$AA?$AN?$AA?6?$AA?$AA@|
  00130		 |$LN10@CMenelaus@2|
  00130	00000000	 DCD         |dpCurSettings|
  00134		 |$M36773|

			 ENDP  ; |??1CMenelaus@@QAA@XZ|, CMenelaus::~CMenelaus

	EXPORT	|??_C@_1EI@DJOMLHCB@?$AAE?$AAn?$AAd?$AA?5?$AAD?$AAu?$AAm?$AAp?$AA?5?$AAM?$AAe?$AAn?$AAe?$AAl?$AAa?$AAu?$AAs?$AA?5?$AAC?$AAo?$AAn?$AAf?$AAi?$AAg?$AAu?$AAr?$AAa?$AAt?$AAi?$AAo?$AAn?$AA?$CB@| [ DATA ] ; `string'
	EXPORT	|??_C@_1CG@MCGJMPCL@?$AAD?$AAE?$AAB?$AAO?$AAU?$AAN?$AAC?$AAE?$AA?5?$AA0?$AAx?$AA?$CF?$AA0?$AA2?$AAX?$AA?5?$AA?$AN?$AA?6?$AA?$AA@| [ DATA ] ; `string'
	EXPORT	|??_C@_1CG@GECGGHNN@?$AAM?$AAC?$AAT?$AAP?$AAI?$AAN?$AAS?$AAT?$AA?5?$AA0?$AAx?$AA?$CF?$AA0?$AA2?$AAX?$AA?5?$AA?$AN?$AA?6?$AA?$AA@| [ DATA ] ; `string'
	EXPORT	|??_C@_1CG@OLJELPLG@?$AAM?$AAC?$AAT?$AAC?$AAT?$AAR?$AAL?$AA3?$AA?5?$AA0?$AAx?$AA?$CF?$AA0?$AA2?$AAX?$AA?5?$AA?$AN?$AA?6?$AA?$AA@| [ DATA ] ; `string'
	EXPORT	|??_C@_1CG@GKLBNKJB@?$AAM?$AAC?$AAT?$AAC?$AAT?$AAR?$AAL?$AA2?$AA?5?$AA0?$AAx?$AA?$CF?$AA0?$AA2?$AAX?$AA?5?$AA?$AN?$AA?6?$AA?$AA@| [ DATA ] ; `string'
	EXPORT	|??_C@_1CG@DCKPHDLJ@?$AAM?$AAC?$AAT?$AAC?$AAT?$AAR?$AAL?$AA1?$AA?5?$AA0?$AAx?$AA?$CF?$AA0?$AA2?$AAX?$AA?5?$AA?$AN?$AA?6?$AA?$AA@| [ DATA ] ; `string'
	EXPORT	|??_C@_1CI@GBOLIOK@?$AAS?$AA2?$AAP?$AAU?$AAL?$AAL?$AAD?$AAI?$AAR?$AA?5?$AA0?$AAx?$AA?$CF?$AA0?$AA2?$AAX?$AA?5?$AA?$AN?$AA?6?$AA?$AA@| [ DATA ] ; `string'
	EXPORT	|??_C@_1CG@JOAAFICF@?$AAS?$AA2?$AAP?$AAU?$AAL?$AAL?$AAE?$AAN?$AA?5?$AA0?$AAx?$AA?$CF?$AA0?$AA2?$AAX?$AA?5?$AA?$AN?$AA?6?$AA?$AA@| [ DATA ] ; `string'
	EXPORT	|??_C@_1CI@ELPGLIIN@?$AAS?$AA1?$AAP?$AAU?$AAL?$AAL?$AAD?$AAI?$AAR?$AA?5?$AA0?$AAx?$AA?$CF?$AA0?$AA2?$AAX?$AA?5?$AA?$AN?$AA?6?$AA?$AA@| [ DATA ] ; `string'
	EXPORT	|??_C@_1CG@PKOACDNL@?$AAS?$AA1?$AAP?$AAU?$AAL?$AAL?$AAE?$AAN?$AA?5?$AA0?$AAx?$AA?$CF?$AA0?$AA2?$AAX?$AA?5?$AA?$AN?$AA?6?$AA?$AA@| [ DATA ] ; `string'
	EXPORT	|??_C@_1CK@MCHNJILE@?$AAR?$AAT?$AAC?$AAC?$AAO?$AAM?$AAP?$AAL?$AAS?$AAB?$AA?5?$AA0?$AAx?$AA?$CF?$AA0?$AA2?$AAX?$AA?5?$AA?$AN?$AA?6?$AA?$AA@| [ DATA ] ; `string'
	EXPORT	|??_C@_1CK@MDMIGFKJ@?$AAR?$AAT?$AAC?$AAC?$AAO?$AAM?$AAP?$AAM?$AAS?$AAB?$AA?5?$AA0?$AAx?$AA?$CF?$AA0?$AA2?$AAX?$AA?5?$AA?$AN?$AA?6?$AA?$AA@| [ DATA ] ; `string'
	EXPORT	|??_C@_1CE@CHFMHDNE@?$AAR?$AAT?$AAC?$AAA?$AAL?$AAY?$AAR?$AA?5?$AA0?$AAx?$AA?$CF?$AA0?$AA2?$AAX?$AA?5?$AA?$AN?$AA?6?$AA?$AA@| [ DATA ] ; `string'
	EXPORT	|??_C@_1CG@JFGJBAME@?$AAR?$AAT?$AAC?$AAA?$AAL?$AAM?$AAO?$AAN?$AA?5?$AA0?$AAx?$AA?$CF?$AA0?$AA2?$AAX?$AA?5?$AA?$AN?$AA?6?$AA?$AA@| [ DATA ] ; `string'
	EXPORT	|??_C@_1CG@LNPHLNHG@?$AAR?$AAT?$AAC?$AAA?$AAL?$AAD?$AAA?$AAY?$AA?5?$AA0?$AAx?$AA?$CF?$AA0?$AA2?$AAX?$AA?5?$AA?$AN?$AA?6?$AA?$AA@| [ DATA ] ; `string'
	EXPORT	|??_C@_1CE@GKBDIODL@?$AAR?$AAT?$AAC?$AAA?$AAL?$AAH?$AAR?$AA?5?$AA0?$AAx?$AA?$CF?$AA0?$AA2?$AAX?$AA?5?$AA?$AN?$AA?6?$AA?$AA@| [ DATA ] ; `string'
	EXPORT	|??_C@_1CG@KKLHMNHF@?$AAR?$AAT?$AAC?$AAA?$AAL?$AAM?$AAI?$AAN?$AA?5?$AA0?$AAx?$AA?$CF?$AA0?$AA2?$AAX?$AA?5?$AA?$AN?$AA?6?$AA?$AA@| [ DATA ] ; `string'
	EXPORT	|??_C@_1CG@PMGIIGKH@?$AAR?$AAT?$AAC?$AAA?$AAL?$AAS?$AAE?$AAC?$AA?5?$AA0?$AAx?$AA?$CF?$AA0?$AA2?$AAX?$AA?5?$AA?$AN?$AA?6?$AA?$AA@| [ DATA ] ; `string'
	EXPORT	|??_C@_1CG@FMMDGNJI@?$AAR?$AAT?$AAC?$AAW?$AAK?$AAD?$AAA?$AAY?$AA?5?$AA0?$AAx?$AA?$CF?$AA0?$AA2?$AAX?$AA?5?$AA?$AN?$AA?6?$AA?$AA@| [ DATA ] ; `string'
	EXPORT	|??_C@_1CA@OJLMEEM@?$AAR?$AAT?$AAC?$AAY?$AAR?$AA?5?$AA0?$AAx?$AA?$CF?$AA0?$AA2?$AAX?$AA?5?$AA?$AN?$AA?6?$AA?$AA@| [ DATA ] ; `string'
	EXPORT	|??_C@_1CC@HJPEBPDO@?$AAR?$AAT?$AAC?$AAM?$AAO?$AAN?$AA?5?$AA0?$AAx?$AA?$CF?$AA0?$AA2?$AAX?$AA?5?$AA?$AN?$AA?6?$AA?$AA@| [ DATA ] ; `string'
	EXPORT	|??_C@_1CC@FBGKLCIM@?$AAR?$AAT?$AAC?$AAD?$AAA?$AAY?$AA?5?$AA0?$AAx?$AA?$CF?$AA0?$AA2?$AAX?$AA?5?$AA?$AN?$AA?6?$AA?$AA@| [ DATA ] ; `string'
	EXPORT	|??_C@_1CA@EDNEDJKD@?$AAR?$AAT?$AAC?$AAH?$AAR?$AA?5?$AA0?$AAx?$AA?$CF?$AA0?$AA2?$AAX?$AA?5?$AA?$AN?$AA?6?$AA?$AA@| [ DATA ] ; `string'
	EXPORT	|??_C@_1CC@EGCKMCIP@?$AAR?$AAT?$AAC?$AAM?$AAI?$AAN?$AA?5?$AA0?$AAx?$AA?$CF?$AA0?$AA2?$AAX?$AA?5?$AA?$AN?$AA?6?$AA?$AA@| [ DATA ] ; `string'
	EXPORT	|??_C@_1CC@BAPFIJFN@?$AAR?$AAT?$AAC?$AAS?$AAE?$AAC?$AA?5?$AA0?$AAx?$AA?$CF?$AA0?$AA2?$AAX?$AA?5?$AA?$AN?$AA?6?$AA?$AA@| [ DATA ] ; `string'
	EXPORT	|??_C@_1CI@HADFENBF@?$AAR?$AAT?$AAC?$AAU?$AAP?$AAD?$AAA?$AAT?$AAE?$AA?5?$AA0?$AAx?$AA?$CF?$AA0?$AA2?$AAX?$AA?5?$AA?$AN?$AA?6?$AA?$AA@| [ DATA ] ; `string'
	EXPORT	|??_C@_1CE@PDEIFNGL@?$AAR?$AAT?$AAC?$AAC?$AAT?$AAR?$AAL?$AA?5?$AA0?$AAx?$AA?$CF?$AA0?$AA2?$AAX?$AA?5?$AA?$AN?$AA?6?$AA?$AA@| [ DATA ] ; `string'
	EXPORT	|??_C@_1CA@PANAKFMG@?$AAB?$AAB?$AAS?$AAM?$AAS?$AA?5?$AA0?$AAx?$AA?$CF?$AA0?$AA2?$AAX?$AA?5?$AA?$AN?$AA?6?$AA?$AA@| [ DATA ] ; `string'
	EXPORT	|??_C@_1CG@MJIGECEG@?$AAG?$AAP?$AAI?$AAO?$AAO?$AAU?$AAT?$AA1?$AA?5?$AA0?$AAx?$AA?$CF?$AA0?$AA2?$AAX?$AA?5?$AA?$AN?$AA?6?$AA?$AA@| [ DATA ] ; `string'
	EXPORT	|??_C@_1CC@OHEBPGMD@?$AAG?$AAP?$AAI?$AAO?$AAI?$AAN?$AA?5?$AA0?$AAx?$AA?$CF?$AA0?$AA2?$AAX?$AA?5?$AA?$AN?$AA?6?$AA?$AA@| [ DATA ] ; `string'
	EXPORT	|??_C@_1CG@KDFHEMPP@?$AAG?$AAP?$AAI?$AAO?$AAC?$AAT?$AAR?$AAL?$AA?5?$AA0?$AAx?$AA?$CF?$AA0?$AA2?$AAX?$AA?5?$AA?$AN?$AA?6?$AA?$AA@| [ DATA ] ; `string'
	EXPORT	|??_C@_1CE@IKPEJMHJ@?$AAI?$AAN?$AAT?$AAA?$AAC?$AAK?$AA2?$AA?5?$AA0?$AAx?$AA?$CF?$AA0?$AA2?$AAX?$AA?5?$AA?$AN?$AA?6?$AA?$AA@| [ DATA ] ; `string'
	EXPORT	|??_C@_1CE@NCOKDFFB@?$AAI?$AAN?$AAT?$AAA?$AAC?$AAK?$AA1?$AA?5?$AA0?$AAx?$AA?$CF?$AA0?$AA2?$AAX?$AA?5?$AA?$AN?$AA?6?$AA?$AA@| [ DATA ] ; `string'
	EXPORT	|??_C@_1CK@MNEGPKEM@?$AAI?$AAN?$AAT?$AAS?$AAT?$AAA?$AAT?$AAU?$AAS?$AA2?$AA?5?$AA0?$AAx?$AA?$CF?$AA0?$AA2?$AAX?$AA?5?$AA?$AN?$AA?6?$AA?$AA@| [ DATA ] ; `string'
	EXPORT	|??_C@_1CK@JFFIFDGE@?$AAI?$AAN?$AAT?$AAS?$AAT?$AAA?$AAT?$AAU?$AAS?$AA1?$AA?5?$AA0?$AAx?$AA?$CF?$AA0?$AA2?$AAX?$AA?5?$AA?$AN?$AA?6?$AA?$AA@| [ DATA ] ; `string'
	EXPORT	|??_C@_1CG@CCKDOMIM@?$AAI?$AAN?$AAT?$AAM?$AAA?$AAS?$AAK?$AA2?$AA?5?$AA0?$AAx?$AA?$CF?$AA0?$AA2?$AAX?$AA?5?$AA?$AN?$AA?6?$AA?$AA@| [ DATA ] ; `string'
	EXPORT	|??_C@_1CG@HKLNEFKE@?$AAI?$AAN?$AAT?$AAM?$AAA?$AAS?$AAK?$AA1?$AA?5?$AA0?$AAx?$AA?$CF?$AA0?$AA2?$AAX?$AA?5?$AA?$AN?$AA?6?$AA?$AA@| [ DATA ] ; `string'
	EXPORT	|??_C@_1CK@FFNIPDFN@?$AAD?$AAE?$AAT?$AAE?$AAC?$AAT?$AAC?$AAT?$AAR?$AAL?$AA?5?$AA0?$AAx?$AA?$CF?$AA0?$AA2?$AAX?$AA?5?$AA?$AN?$AA?6?$AA?$AA@| [ DATA ] ; `string'
	EXPORT	|??_C@_1CE@DAAGLFJJ@?$AAO?$AAS?$AAC?$AAC?$AAT?$AAR?$AAL?$AA?5?$AA0?$AAx?$AA?$CF?$AA0?$AA2?$AAX?$AA?5?$AA?$AN?$AA?6?$AA?$AA@| [ DATA ] ; `string'
	EXPORT	|??_C@_1CI@OKBPMHGH@?$AAD?$AAE?$AAV?$AAI?$AAC?$AAE?$AAO?$AAF?$AAF?$AA?5?$AA0?$AAx?$AA?$CF?$AA0?$AA2?$AAX?$AA?5?$AA?$AN?$AA?6?$AA?$AA@| [ DATA ] ; `string'
	EXPORT	|??_C@_1CK@FCNHKGJE@?$AAS?$AAL?$AAE?$AAE?$AAP?$AAC?$AAT?$AAR?$AAL?$AA2?$AA?5?$AA0?$AAx?$AA?$CF?$AA0?$AA2?$AAX?$AA?5?$AA?$AN?$AA?6?$AA?$AA@| [ DATA ] ; `string'
	EXPORT	|??_C@_1CK@KMJAPLM@?$AAS?$AAL?$AAE?$AAE?$AAP?$AAC?$AAT?$AAR?$AAL?$AA1?$AA?5?$AA0?$AAx?$AA?$CF?$AA0?$AA2?$AAX?$AA?5?$AA?$AN?$AA?6?$AA?$AA@| [ DATA ] ; `string'
	EXPORT	|??_C@_1CG@PPACOFLJ@?$AAL?$AAD?$AA0?$AAC?$AAT?$AAR?$AAL?$AA8?$AA?5?$AA0?$AAx?$AA?$CF?$AA0?$AA2?$AAX?$AA?5?$AA?$AN?$AA?6?$AA?$AA@| [ DATA ] ; `string'
	EXPORT	|??_C@_1CG@BMBHOOHA@?$AAL?$AAD?$AA0?$AAC?$AAT?$AAR?$AAL?$AA7?$AA?5?$AA0?$AAx?$AA?$CF?$AA0?$AA2?$AAX?$AA?5?$AA?$AN?$AA?6?$AA?$AA@| [ DATA ] ; `string'
	EXPORT	|??_C@_1CG@JNDCILFH@?$AAL?$AAD?$AA0?$AAC?$AAT?$AAR?$AAL?$AA6?$AA?5?$AA0?$AAx?$AA?$CF?$AA0?$AA2?$AAX?$AA?5?$AA?$AN?$AA?6?$AA?$AA@| [ DATA ] ; `string'
	EXPORT	|??_C@_1CG@MFCMCCHP@?$AAL?$AAD?$AA0?$AAC?$AAT?$AAR?$AAL?$AA5?$AA?5?$AA0?$AAx?$AA?$CF?$AA0?$AA2?$AAX?$AA?5?$AA?$AN?$AA?6?$AA?$AA@| [ DATA ] ; `string'
	EXPORT	|??_C@_1CG@EEAJEHFI@?$AAL?$AAD?$AA0?$AAC?$AAT?$AAR?$AAL?$AA4?$AA?5?$AA0?$AAx?$AA?$CF?$AA0?$AA2?$AAX?$AA?5?$AA?$AN?$AA?6?$AA?$AA@| [ DATA ] ; `string'
	EXPORT	|??_C@_1CG@HFBBHACP@?$AAL?$AAD?$AA0?$AAC?$AAT?$AAR?$AAL?$AA3?$AA?5?$AA0?$AAx?$AA?$CF?$AA0?$AA2?$AAX?$AA?5?$AA?$AN?$AA?6?$AA?$AA@| [ DATA ] ; `string'
	EXPORT	|??_C@_1CG@PEDEBFAI@?$AAL?$AAD?$AA0?$AAC?$AAT?$AAR?$AAL?$AA2?$AA?5?$AA0?$AAx?$AA?$CF?$AA0?$AA2?$AAX?$AA?5?$AA?$AN?$AA?6?$AA?$AA@| [ DATA ] ; `string'
	EXPORT	|??_C@_1CG@KMCKLMCA@?$AAL?$AAD?$AA0?$AAC?$AAT?$AAR?$AAL?$AA1?$AA?5?$AA0?$AAx?$AA?$CF?$AA0?$AA2?$AAX?$AA?5?$AA?$AN?$AA?6?$AA?$AA@| [ DATA ] ; `string'
	EXPORT	|??_C@_1CI@IFEGCOAB@?$AAD?$AAC?$AAD?$AAC?$AAC?$AAT?$AAR?$AAL?$AA3?$AA?5?$AA0?$AAx?$AA?$CF?$AA0?$AA2?$AAX?$AA?5?$AA?$AN?$AA?6?$AA?$AA@| [ DATA ] ; `string'
	EXPORT	|??_C@_1CI@EGDELCG@?$AAD?$AAC?$AAD?$AAC?$AAC?$AAT?$AAR?$AAL?$AA2?$AA?5?$AA0?$AAx?$AA?$CF?$AA0?$AA2?$AAX?$AA?5?$AA?$AN?$AA?6?$AA?$AA@| [ DATA ] ; `string'
	EXPORT	|??_C@_1CI@FMHNOCAO@?$AAD?$AAC?$AAD?$AAC?$AAC?$AAT?$AAR?$AAL?$AA1?$AA?5?$AA0?$AAx?$AA?$CF?$AA0?$AA2?$AAX?$AA?5?$AA?$AN?$AA?6?$AA?$AA@| [ DATA ] ; `string'
	EXPORT	|??_C@_1CK@PCAADELF@?$AAV?$AAC?$AAO?$AAR?$AAE?$AAC?$AAT?$AAR?$AAL?$AA5?$AA?5?$AA0?$AAx?$AA?$CF?$AA0?$AA2?$AAX?$AA?5?$AA?$AN?$AA?6?$AA?$AA@| [ DATA ] ; `string'
	EXPORT	|??_C@_1CK@HDCFFBJC@?$AAV?$AAC?$AAO?$AAR?$AAE?$AAC?$AAT?$AAR?$AAL?$AA4?$AA?5?$AA0?$AAx?$AA?$CF?$AA0?$AA2?$AAX?$AA?5?$AA?$AN?$AA?6?$AA?$AA@| [ DATA ] ; `string'
	EXPORT	|??_C@_1CK@ECDNGGOF@?$AAV?$AAC?$AAO?$AAR?$AAE?$AAC?$AAT?$AAR?$AAL?$AA3?$AA?5?$AA0?$AAx?$AA?$CF?$AA0?$AA2?$AAX?$AA?5?$AA?$AN?$AA?6?$AA?$AA@| [ DATA ] ; `string'
	EXPORT	|??_C@_1CK@MDBIADMC@?$AAV?$AAC?$AAO?$AAR?$AAE?$AAC?$AAT?$AAR?$AAL?$AA2?$AA?5?$AA0?$AAx?$AA?$CF?$AA0?$AA2?$AAX?$AA?5?$AA?$AN?$AA?6?$AA?$AA@| [ DATA ] ; `string'
	EXPORT	|??_C@_1CK@JLAGKKOK@?$AAV?$AAC?$AAO?$AAR?$AAE?$AAC?$AAT?$AAR?$AAL?$AA1?$AA?5?$AA0?$AAx?$AA?$CF?$AA0?$AA2?$AAX?$AA?5?$AA?$AN?$AA?6?$AA?$AA@| [ DATA ] ; `string'
	EXPORT	|??_C@_1EA@JAEAIJFA@?$AAD?$AAu?$AAm?$AAp?$AA?5?$AAM?$AAe?$AAn?$AAe?$AAl?$AAa?$AAu?$AAs?$AA?5?$AAC?$AAo?$AAn?$AAf?$AAi?$AAg?$AAu?$AAr?$AAa?$AAt?$AAi?$AAo?$AAn?$AA?$CB?$AA?5?$AA?$AN?$AA?6?$AA?$AA@| [ DATA ] ; `string'
	EXPORT	|?UnMaskMenelausIrq@CMenelaus@@AAAHI@Z|	; CMenelaus::UnMaskMenelausIrq
	EXPORT	|?WriteData@CMenelaus@@AAAHEE@Z|	; CMenelaus::WriteData
	EXPORT	|?ReadData@CMenelaus@@AAAHEPAE@Z|	; CMenelaus::ReadData
	EXPORT	|?MaskMenelausIrq@CMenelaus@@AAAHI@Z|	; CMenelaus::MaskMenelausIrq
	EXPORT	|?ClearMenelausIrq@CMenelaus@@AAAHI@Z|	; CMenelaus::ClearMenelausIrq
	EXPORT	|??_C@_1KA@OFBPCJPI@?$AAC?$AAM?$AAe?$AAn?$AAe?$AAl?$AAa?$AAu?$AAs?$AA?3?$AA?3?$AAM?$AAe?$AAn?$AAe?$AAl?$AAa?$AAu?$AAs?$AAI?$AAn?$AAi?$AAt?$AA?3?$AA?5?$AAF?$AAa?$AAi?$AAl?$AAe?$AAd?$AA?5@| [ DATA ] ; `string'
	EXPORT	|I2CSetSlaveAddress|
	EXPORT	|??_C@_1GK@FALHCHFO@?$AAC?$AAM?$AAe?$AAn?$AAe?$AAl?$AAa?$AAu?$AAs?$AA?3?$AA?3?$AAM?$AAe?$AAn?$AAe?$AAl?$AAa?$AAu?$AAs?$AAI?$AAn?$AAi?$AAt?$AA?3?$AA?5?$AAF?$AAa?$AAi?$AAl?$AAe?$AAd?$AA?5@| [ DATA ] ; `string'
	EXPORT	|I2COpen|
	EXPORT	|??_C@_1HI@EHEDCEON@?$AAC?$AAM?$AAe?$AAn?$AAe?$AAl?$AAa?$AAu?$AAs?$AA?3?$AA?3?$AAM?$AAe?$AAn?$AAe?$AAl?$AAa?$AAu?$AAs?$AAI?$AAn?$AAi?$AAt?$AA?3?$AA?5?$AAI?$AAn?$AAi?$AAt?$AAi?$AAa?$AAl@| [ DATA ] ; `string'
	EXPORT	|?MenelausInit@CMenelaus@@QAAHXZ|	; CMenelaus::MenelausInit

  00010			 AREA	 |.pdata|, PDATA
|$T36908| DCD	|$LN152@MenelausIn|
	DCD	0x40052904

  00000			 AREA	 |.rdata|, DATA, READONLY
|??_C@_1EI@DJOMLHCB@?$AAE?$AAn?$AAd?$AA?5?$AAD?$AAu?$AAm?$AAp?$AA?5?$AAM?$AAe?$AAn?$AAe?$AAl?$AAa?$AAu?$AAs?$AA?5?$AAC?$AAo?$AAn?$AAf?$AAi?$AAg?$AAu?$AAr?$AAa?$AAt?$AAi?$AAo?$AAn?$AA?$CB@| DCB "E"
	DCB	0x0, "n", 0x0, "d", 0x0, " ", 0x0, "D", 0x0, "u", 0x0, "m"
	DCB	0x0, "p", 0x0, " ", 0x0, "M", 0x0, "e", 0x0, "n", 0x0, "e"
	DCB	0x0, "l", 0x0, "a", 0x0, "u", 0x0, "s", 0x0, " ", 0x0, "C"
	DCB	0x0, "o", 0x0, "n", 0x0, "f", 0x0, "i", 0x0, "g", 0x0, "u"
	DCB	0x0, "r", 0x0, "a", 0x0, "t", 0x0, "i", 0x0, "o", 0x0, "n"
	DCB	0x0, "!", 0x0, " ", 0x0, 0xd, 0x0, 0xa, 0x0, 0x0, 0x0 ; `string'

  00000			 AREA	 |.rdata|, DATA, READONLY
|??_C@_1CG@MCGJMPCL@?$AAD?$AAE?$AAB?$AAO?$AAU?$AAN?$AAC?$AAE?$AA?5?$AA0?$AAx?$AA?$CF?$AA0?$AA2?$AAX?$AA?5?$AA?$AN?$AA?6?$AA?$AA@| DCB "D"
	DCB	0x0, "E", 0x0, "B", 0x0, "O", 0x0, "U", 0x0, "N", 0x0, "C"
	DCB	0x0, "E", 0x0, " ", 0x0, "0", 0x0, "x", 0x0, "%", 0x0, "0"
	DCB	0x0, "2", 0x0, "X", 0x0, " ", 0x0, 0xd, 0x0, 0xa, 0x0, 0x0
	DCB	0x0					; `string'

  00000			 AREA	 |.rdata|, DATA, READONLY
|??_C@_1CG@GECGGHNN@?$AAM?$AAC?$AAT?$AAP?$AAI?$AAN?$AAS?$AAT?$AA?5?$AA0?$AAx?$AA?$CF?$AA0?$AA2?$AAX?$AA?5?$AA?$AN?$AA?6?$AA?$AA@| DCB "M"
	DCB	0x0, "C", 0x0, "T", 0x0, "P", 0x0, "I", 0x0, "N", 0x0, "S"
	DCB	0x0, "T", 0x0, " ", 0x0, "0", 0x0, "x", 0x0, "%", 0x0, "0"
	DCB	0x0, "2", 0x0, "X", 0x0, " ", 0x0, 0xd, 0x0, 0xa, 0x0, 0x0
	DCB	0x0					; `string'

  00000			 AREA	 |.rdata|, DATA, READONLY
|??_C@_1CG@OLJELPLG@?$AAM?$AAC?$AAT?$AAC?$AAT?$AAR?$AAL?$AA3?$AA?5?$AA0?$AAx?$AA?$CF?$AA0?$AA2?$AAX?$AA?5?$AA?$AN?$AA?6?$AA?$AA@| DCB "M"
	DCB	0x0, "C", 0x0, "T", 0x0, "C", 0x0, "T", 0x0, "R", 0x0, "L"
	DCB	0x0, "3", 0x0, " ", 0x0, "0", 0x0, "x", 0x0, "%", 0x0, "0"
	DCB	0x0, "2", 0x0, "X", 0x0, " ", 0x0, 0xd, 0x0, 0xa, 0x0, 0x0
	DCB	0x0					; `string'

  00000			 AREA	 |.rdata|, DATA, READONLY
|??_C@_1CG@GKLBNKJB@?$AAM?$AAC?$AAT?$AAC?$AAT?$AAR?$AAL?$AA2?$AA?5?$AA0?$AAx?$AA?$CF?$AA0?$AA2?$AAX?$AA?5?$AA?$AN?$AA?6?$AA?$AA@| DCB "M"
	DCB	0x0, "C", 0x0, "T", 0x0, "C", 0x0, "T", 0x0, "R", 0x0, "L"
	DCB	0x0, "2", 0x0, " ", 0x0, "0", 0x0, "x", 0x0, "%", 0x0, "0"
	DCB	0x0, "2", 0x0, "X", 0x0, " ", 0x0, 0xd, 0x0, 0xa, 0x0, 0x0
	DCB	0x0					; `string'

  00000			 AREA	 |.rdata|, DATA, READONLY
|??_C@_1CG@DCKPHDLJ@?$AAM?$AAC?$AAT?$AAC?$AAT?$AAR?$AAL?$AA1?$AA?5?$AA0?$AAx?$AA?$CF?$AA0?$AA2?$AAX?$AA?5?$AA?$AN?$AA?6?$AA?$AA@| DCB "M"
	DCB	0x0, "C", 0x0, "T", 0x0, "C", 0x0, "T", 0x0, "R", 0x0, "L"
	DCB	0x0, "1", 0x0, " ", 0x0, "0", 0x0, "x", 0x0, "%", 0x0, "0"
	DCB	0x0, "2", 0x0, "X", 0x0, " ", 0x0, 0xd, 0x0, 0xa, 0x0, 0x0
	DCB	0x0					; `string'

  00000			 AREA	 |.rdata|, DATA, READONLY
|??_C@_1CI@GBOLIOK@?$AAS?$AA2?$AAP?$AAU?$AAL?$AAL?$AAD?$AAI?$AAR?$AA?5?$AA0?$AAx?$AA?$CF?$AA0?$AA2?$AAX?$AA?5?$AA?$AN?$AA?6?$AA?$AA@| DCB "S"
	DCB	0x0, "2", 0x0, "P", 0x0, "U", 0x0, "L", 0x0, "L", 0x0, "D"
	DCB	0x0, "I", 0x0, "R", 0x0, " ", 0x0, "0", 0x0, "x", 0x0, "%"
	DCB	0x0, "0", 0x0, "2", 0x0, "X", 0x0, " ", 0x0, 0xd, 0x0, 0xa
	DCB	0x0, 0x0, 0x0				; `string'

  00000			 AREA	 |.rdata|, DATA, READONLY
|??_C@_1CG@JOAAFICF@?$AAS?$AA2?$AAP?$AAU?$AAL?$AAL?$AAE?$AAN?$AA?5?$AA0?$AAx?$AA?$CF?$AA0?$AA2?$AAX?$AA?5?$AA?$AN?$AA?6?$AA?$AA@| DCB "S"
	DCB	0x0, "2", 0x0, "P", 0x0, "U", 0x0, "L", 0x0, "L", 0x0, "E"
	DCB	0x0, "N", 0x0, " ", 0x0, "0", 0x0, "x", 0x0, "%", 0x0, "0"
	DCB	0x0, "2", 0x0, "X", 0x0, " ", 0x0, 0xd, 0x0, 0xa, 0x0, 0x0
	DCB	0x0					; `string'

  00000			 AREA	 |.rdata|, DATA, READONLY
|??_C@_1CI@ELPGLIIN@?$AAS?$AA1?$AAP?$AAU?$AAL?$AAL?$AAD?$AAI?$AAR?$AA?5?$AA0?$AAx?$AA?$CF?$AA0?$AA2?$AAX?$AA?5?$AA?$AN?$AA?6?$AA?$AA@| DCB "S"
	DCB	0x0, "1", 0x0, "P", 0x0, "U", 0x0, "L", 0x0, "L", 0x0, "D"
	DCB	0x0, "I", 0x0, "R", 0x0, " ", 0x0, "0", 0x0, "x", 0x0, "%"
	DCB	0x0, "0", 0x0, "2", 0x0, "X", 0x0, " ", 0x0, 0xd, 0x0, 0xa
	DCB	0x0, 0x0, 0x0				; `string'

  00000			 AREA	 |.rdata|, DATA, READONLY
|??_C@_1CG@PKOACDNL@?$AAS?$AA1?$AAP?$AAU?$AAL?$AAL?$AAE?$AAN?$AA?5?$AA0?$AAx?$AA?$CF?$AA0?$AA2?$AAX?$AA?5?$AA?$AN?$AA?6?$AA?$AA@| DCB "S"
	DCB	0x0, "1", 0x0, "P", 0x0, "U", 0x0, "L", 0x0, "L", 0x0, "E"
	DCB	0x0, "N", 0x0, " ", 0x0, "0", 0x0, "x", 0x0, "%", 0x0, "0"
	DCB	0x0, "2", 0x0, "X", 0x0, " ", 0x0, 0xd, 0x0, 0xa, 0x0, 0x0
	DCB	0x0					; `string'

  00000			 AREA	 |.rdata|, DATA, READONLY
|??_C@_1CK@MCHNJILE@?$AAR?$AAT?$AAC?$AAC?$AAO?$AAM?$AAP?$AAL?$AAS?$AAB?$AA?5?$AA0?$AAx?$AA?$CF?$AA0?$AA2?$AAX?$AA?5?$AA?$AN?$AA?6?$AA?$AA@| DCB "R"
	DCB	0x0, "T", 0x0, "C", 0x0, "C", 0x0, "O", 0x0, "M", 0x0, "P"
	DCB	0x0, "L", 0x0, "S", 0x0, "B", 0x0, " ", 0x0, "0", 0x0, "x"
	DCB	0x0, "%", 0x0, "0", 0x0, "2", 0x0, "X", 0x0, " ", 0x0, 0xd
	DCB	0x0, 0xa, 0x0, 0x0, 0x0			; `string'

  00000			 AREA	 |.rdata|, DATA, READONLY
|??_C@_1CK@MDMIGFKJ@?$AAR?$AAT?$AAC?$AAC?$AAO?$AAM?$AAP?$AAM?$AAS?$AAB?$AA?5?$AA0?$AAx?$AA?$CF?$AA0?$AA2?$AAX?$AA?5?$AA?$AN?$AA?6?$AA?$AA@| DCB "R"
	DCB	0x0, "T", 0x0, "C", 0x0, "C", 0x0, "O", 0x0, "M", 0x0, "P"
	DCB	0x0, "M", 0x0, "S", 0x0, "B", 0x0, " ", 0x0, "0", 0x0, "x"
	DCB	0x0, "%", 0x0, "0", 0x0, "2", 0x0, "X", 0x0, " ", 0x0, 0xd
	DCB	0x0, 0xa, 0x0, 0x0, 0x0			; `string'

  00000			 AREA	 |.rdata|, DATA, READONLY
|??_C@_1CE@CHFMHDNE@?$AAR?$AAT?$AAC?$AAA?$AAL?$AAY?$AAR?$AA?5?$AA0?$AAx?$AA?$CF?$AA0?$AA2?$AAX?$AA?5?$AA?$AN?$AA?6?$AA?$AA@| DCB "R"
	DCB	0x0, "T", 0x0, "C", 0x0, "A", 0x0, "L", 0x0, "Y", 0x0, "R"
	DCB	0x0, " ", 0x0, "0", 0x0, "x", 0x0, "%", 0x0, "0", 0x0, "2"
	DCB	0x0, "X", 0x0, " ", 0x0, 0xd, 0x0, 0xa, 0x0, 0x0, 0x0 ; `string'

  00000			 AREA	 |.rdata|, DATA, READONLY
|??_C@_1CG@JFGJBAME@?$AAR?$AAT?$AAC?$AAA?$AAL?$AAM?$AAO?$AAN?$AA?5?$AA0?$AAx?$AA?$CF?$AA0?$AA2?$AAX?$AA?5?$AA?$AN?$AA?6?$AA?$AA@| DCB "R"
	DCB	0x0, "T", 0x0, "C", 0x0, "A", 0x0, "L", 0x0, "M", 0x0, "O"
	DCB	0x0, "N", 0x0, " ", 0x0, "0", 0x0, "x", 0x0, "%", 0x0, "0"
	DCB	0x0, "2", 0x0, "X", 0x0, " ", 0x0, 0xd, 0x0, 0xa, 0x0, 0x0
	DCB	0x0					; `string'

  00000			 AREA	 |.rdata|, DATA, READONLY
|??_C@_1CG@LNPHLNHG@?$AAR?$AAT?$AAC?$AAA?$AAL?$AAD?$AAA?$AAY?$AA?5?$AA0?$AAx?$AA?$CF?$AA0?$AA2?$AAX?$AA?5?$AA?$AN?$AA?6?$AA?$AA@| DCB "R"
	DCB	0x0, "T", 0x0, "C", 0x0, "A", 0x0, "L", 0x0, "D", 0x0, "A"
	DCB	0x0, "Y", 0x0, " ", 0x0, "0", 0x0, "x", 0x0, "%", 0x0, "0"
	DCB	0x0, "2", 0x0, "X", 0x0, " ", 0x0, 0xd, 0x0, 0xa, 0x0, 0x0
	DCB	0x0					; `string'

  00000			 AREA	 |.rdata|, DATA, READONLY
|??_C@_1CE@GKBDIODL@?$AAR?$AAT?$AAC?$AAA?$AAL?$AAH?$AAR?$AA?5?$AA0?$AAx?$AA?$CF?$AA0?$AA2?$AAX?$AA?5?$AA?$AN?$AA?6?$AA?$AA@| DCB "R"
	DCB	0x0, "T", 0x0, "C", 0x0, "A", 0x0, "L", 0x0, "H", 0x0, "R"
	DCB	0x0, " ", 0x0, "0", 0x0, "x", 0x0, "%", 0x0, "0", 0x0, "2"
	DCB	0x0, "X", 0x0, " ", 0x0, 0xd, 0x0, 0xa, 0x0, 0x0, 0x0 ; `string'

  00000			 AREA	 |.rdata|, DATA, READONLY
|??_C@_1CG@KKLHMNHF@?$AAR?$AAT?$AAC?$AAA?$AAL?$AAM?$AAI?$AAN?$AA?5?$AA0?$AAx?$AA?$CF?$AA0?$AA2?$AAX?$AA?5?$AA?$AN?$AA?6?$AA?$AA@| DCB "R"
	DCB	0x0, "T", 0x0, "C", 0x0, "A", 0x0, "L", 0x0, "M", 0x0, "I"
	DCB	0x0, "N", 0x0, " ", 0x0, "0", 0x0, "x", 0x0, "%", 0x0, "0"
	DCB	0x0, "2", 0x0, "X", 0x0, " ", 0x0, 0xd, 0x0, 0xa, 0x0, 0x0
	DCB	0x0					; `string'

  00000			 AREA	 |.rdata|, DATA, READONLY
|??_C@_1CG@PMGIIGKH@?$AAR?$AAT?$AAC?$AAA?$AAL?$AAS?$AAE?$AAC?$AA?5?$AA0?$AAx?$AA?$CF?$AA0?$AA2?$AAX?$AA?5?$AA?$AN?$AA?6?$AA?$AA@| DCB "R"
	DCB	0x0, "T", 0x0, "C", 0x0, "A", 0x0, "L", 0x0, "S", 0x0, "E"
	DCB	0x0, "C", 0x0, " ", 0x0, "0", 0x0, "x", 0x0, "%", 0x0, "0"
	DCB	0x0, "2", 0x0, "X", 0x0, " ", 0x0, 0xd, 0x0, 0xa, 0x0, 0x0
	DCB	0x0					; `string'

  00000			 AREA	 |.rdata|, DATA, READONLY
|??_C@_1CG@FMMDGNJI@?$AAR?$AAT?$AAC?$AAW?$AAK?$AAD?$AAA?$AAY?$AA?5?$AA0?$AAx?$AA?$CF?$AA0?$AA2?$AAX?$AA?5?$AA?$AN?$AA?6?$AA?$AA@| DCB "R"
	DCB	0x0, "T", 0x0, "C", 0x0, "W", 0x0, "K", 0x0, "D", 0x0, "A"
	DCB	0x0, "Y", 0x0, " ", 0x0, "0", 0x0, "x", 0x0, "%", 0x0, "0"
	DCB	0x0, "2", 0x0, "X", 0x0, " ", 0x0, 0xd, 0x0, 0xa, 0x0, 0x0
	DCB	0x0					; `string'

  00000			 AREA	 |.rdata|, DATA, READONLY
|??_C@_1CA@OJLMEEM@?$AAR?$AAT?$AAC?$AAY?$AAR?$AA?5?$AA0?$AAx?$AA?$CF?$AA0?$AA2?$AAX?$AA?5?$AA?$AN?$AA?6?$AA?$AA@| DCB "R"
	DCB	0x0, "T", 0x0, "C", 0x0, "Y", 0x0, "R", 0x0, " ", 0x0, "0"
	DCB	0x0, "x", 0x0, "%", 0x0, "0", 0x0, "2", 0x0, "X", 0x0, " "
	DCB	0x0, 0xd, 0x0, 0xa, 0x0, 0x0, 0x0	; `string'

  00000			 AREA	 |.rdata|, DATA, READONLY
|??_C@_1CC@HJPEBPDO@?$AAR?$AAT?$AAC?$AAM?$AAO?$AAN?$AA?5?$AA0?$AAx?$AA?$CF?$AA0?$AA2?$AAX?$AA?5?$AA?$AN?$AA?6?$AA?$AA@| DCB "R"
	DCB	0x0, "T", 0x0, "C", 0x0, "M", 0x0, "O", 0x0, "N", 0x0, " "
	DCB	0x0, "0", 0x0, "x", 0x0, "%", 0x0, "0", 0x0, "2", 0x0, "X"
	DCB	0x0, " ", 0x0, 0xd, 0x0, 0xa, 0x0, 0x0, 0x0 ; `string'

  00000			 AREA	 |.rdata|, DATA, READONLY
|??_C@_1CC@FBGKLCIM@?$AAR?$AAT?$AAC?$AAD?$AAA?$AAY?$AA?5?$AA0?$AAx?$AA?$CF?$AA0?$AA2?$AAX?$AA?5?$AA?$AN?$AA?6?$AA?$AA@| DCB "R"
	DCB	0x0, "T", 0x0, "C", 0x0, "D", 0x0, "A", 0x0, "Y", 0x0, " "
	DCB	0x0, "0", 0x0, "x", 0x0, "%", 0x0, "0", 0x0, "2", 0x0, "X"
	DCB	0x0, " ", 0x0, 0xd, 0x0, 0xa, 0x0, 0x0, 0x0 ; `string'

  00000			 AREA	 |.rdata|, DATA, READONLY
|??_C@_1CA@EDNEDJKD@?$AAR?$AAT?$AAC?$AAH?$AAR?$AA?5?$AA0?$AAx?$AA?$CF?$AA0?$AA2?$AAX?$AA?5?$AA?$AN?$AA?6?$AA?$AA@| DCB "R"
	DCB	0x0, "T", 0x0, "C", 0x0, "H", 0x0, "R", 0x0, " ", 0x0, "0"
	DCB	0x0, "x", 0x0, "%", 0x0, "0", 0x0, "2", 0x0, "X", 0x0, " "
	DCB	0x0, 0xd, 0x0, 0xa, 0x0, 0x0, 0x0	; `string'

  00000			 AREA	 |.rdata|, DATA, READONLY
|??_C@_1CC@EGCKMCIP@?$AAR?$AAT?$AAC?$AAM?$AAI?$AAN?$AA?5?$AA0?$AAx?$AA?$CF?$AA0?$AA2?$AAX?$AA?5?$AA?$AN?$AA?6?$AA?$AA@| DCB "R"
	DCB	0x0, "T", 0x0, "C", 0x0, "M", 0x0, "I", 0x0, "N", 0x0, " "
	DCB	0x0, "0", 0x0, "x", 0x0, "%", 0x0, "0", 0x0, "2", 0x0, "X"
	DCB	0x0, " ", 0x0, 0xd, 0x0, 0xa, 0x0, 0x0, 0x0 ; `string'

  00000			 AREA	 |.rdata|, DATA, READONLY
|??_C@_1CC@BAPFIJFN@?$AAR?$AAT?$AAC?$AAS?$AAE?$AAC?$AA?5?$AA0?$AAx?$AA?$CF?$AA0?$AA2?$AAX?$AA?5?$AA?$AN?$AA?6?$AA?$AA@| DCB "R"
	DCB	0x0, "T", 0x0, "C", 0x0, "S", 0x0, "E", 0x0, "C", 0x0, " "
	DCB	0x0, "0", 0x0, "x", 0x0, "%", 0x0, "0", 0x0, "2", 0x0, "X"
	DCB	0x0, " ", 0x0, 0xd, 0x0, 0xa, 0x0, 0x0, 0x0 ; `string'

  00000			 AREA	 |.rdata|, DATA, READONLY
|??_C@_1CI@HADFENBF@?$AAR?$AAT?$AAC?$AAU?$AAP?$AAD?$AAA?$AAT?$AAE?$AA?5?$AA0?$AAx?$AA?$CF?$AA0?$AA2?$AAX?$AA?5?$AA?$AN?$AA?6?$AA?$AA@| DCB "R"
	DCB	0x0, "T", 0x0, "C", 0x0, "U", 0x0, "P", 0x0, "D", 0x0, "A"
	DCB	0x0, "T", 0x0, "E", 0x0, " ", 0x0, "0", 0x0, "x", 0x0, "%"
	DCB	0x0, "0", 0x0, "2", 0x0, "X", 0x0, " ", 0x0, 0xd, 0x0, 0xa
	DCB	0x0, 0x0, 0x0				; `string'

  00000			 AREA	 |.rdata|, DATA, READONLY
|??_C@_1CE@PDEIFNGL@?$AAR?$AAT?$AAC?$AAC?$AAT?$AAR?$AAL?$AA?5?$AA0?$AAx?$AA?$CF?$AA0?$AA2?$AAX?$AA?5?$AA?$AN?$AA?6?$AA?$AA@| DCB "R"
	DCB	0x0, "T", 0x0, "C", 0x0, "C", 0x0, "T", 0x0, "R", 0x0, "L"
	DCB	0x0, " ", 0x0, "0", 0x0, "x", 0x0, "%", 0x0, "0", 0x0, "2"
	DCB	0x0, "X", 0x0, " ", 0x0, 0xd, 0x0, 0xa, 0x0, 0x0, 0x0 ; `string'

  00000			 AREA	 |.rdata|, DATA, READONLY
|??_C@_1CA@PANAKFMG@?$AAB?$AAB?$AAS?$AAM?$AAS?$AA?5?$AA0?$AAx?$AA?$CF?$AA0?$AA2?$AAX?$AA?5?$AA?$AN?$AA?6?$AA?$AA@| DCB "B"
	DCB	0x0, "B", 0x0, "S", 0x0, "M", 0x0, "S", 0x0, " ", 0x0, "0"
	DCB	0x0, "x", 0x0, "%", 0x0, "0", 0x0, "2", 0x0, "X", 0x0, " "
	DCB	0x0, 0xd, 0x0, 0xa, 0x0, 0x0, 0x0	; `string'

  00000			 AREA	 |.rdata|, DATA, READONLY
|??_C@_1CG@MJIGECEG@?$AAG?$AAP?$AAI?$AAO?$AAO?$AAU?$AAT?$AA1?$AA?5?$AA0?$AAx?$AA?$CF?$AA0?$AA2?$AAX?$AA?5?$AA?$AN?$AA?6?$AA?$AA@| DCB "G"
	DCB	0x0, "P", 0x0, "I", 0x0, "O", 0x0, "O", 0x0, "U", 0x0, "T"
	DCB	0x0, "1", 0x0, " ", 0x0, "0", 0x0, "x", 0x0, "%", 0x0, "0"
	DCB	0x0, "2", 0x0, "X", 0x0, " ", 0x0, 0xd, 0x0, 0xa, 0x0, 0x0
	DCB	0x0					; `string'

  00000			 AREA	 |.rdata|, DATA, READONLY
|??_C@_1CC@OHEBPGMD@?$AAG?$AAP?$AAI?$AAO?$AAI?$AAN?$AA?5?$AA0?$AAx?$AA?$CF?$AA0?$AA2?$AAX?$AA?5?$AA?$AN?$AA?6?$AA?$AA@| DCB "G"
	DCB	0x0, "P", 0x0, "I", 0x0, "O", 0x0, "I", 0x0, "N", 0x0, " "
	DCB	0x0, "0", 0x0, "x", 0x0, "%", 0x0, "0", 0x0, "2", 0x0, "X"
	DCB	0x0, " ", 0x0, 0xd, 0x0, 0xa, 0x0, 0x0, 0x0 ; `string'

  00000			 AREA	 |.rdata|, DATA, READONLY
|??_C@_1CG@KDFHEMPP@?$AAG?$AAP?$AAI?$AAO?$AAC?$AAT?$AAR?$AAL?$AA?5?$AA0?$AAx?$AA?$CF?$AA0?$AA2?$AAX?$AA?5?$AA?$AN?$AA?6?$AA?$AA@| DCB "G"
	DCB	0x0, "P", 0x0, "I", 0x0, "O", 0x0, "C", 0x0, "T", 0x0, "R"
	DCB	0x0, "L", 0x0, " ", 0x0, "0", 0x0, "x", 0x0, "%", 0x0, "0"
	DCB	0x0, "2", 0x0, "X", 0x0, " ", 0x0, 0xd, 0x0, 0xa, 0x0, 0x0
	DCB	0x0					; `string'

  00000			 AREA	 |.rdata|, DATA, READONLY
|??_C@_1CE@IKPEJMHJ@?$AAI?$AAN?$AAT?$AAA?$AAC?$AAK?$AA2?$AA?5?$AA0?$AAx?$AA?$CF?$AA0?$AA2?$AAX?$AA?5?$AA?$AN?$AA?6?$AA?$AA@| DCB "I"
	DCB	0x0, "N", 0x0, "T", 0x0, "A", 0x0, "C", 0x0, "K", 0x0, "2"
	DCB	0x0, " ", 0x0, "0", 0x0, "x", 0x0, "%", 0x0, "0", 0x0, "2"
	DCB	0x0, "X", 0x0, " ", 0x0, 0xd, 0x0, 0xa, 0x0, 0x0, 0x0 ; `string'

  00000			 AREA	 |.rdata|, DATA, READONLY
|??_C@_1CE@NCOKDFFB@?$AAI?$AAN?$AAT?$AAA?$AAC?$AAK?$AA1?$AA?5?$AA0?$AAx?$AA?$CF?$AA0?$AA2?$AAX?$AA?5?$AA?$AN?$AA?6?$AA?$AA@| DCB "I"
	DCB	0x0, "N", 0x0, "T", 0x0, "A", 0x0, "C", 0x0, "K", 0x0, "1"
	DCB	0x0, " ", 0x0, "0", 0x0, "x", 0x0, "%", 0x0, "0", 0x0, "2"
	DCB	0x0, "X", 0x0, " ", 0x0, 0xd, 0x0, 0xa, 0x0, 0x0, 0x0 ; `string'

  00000			 AREA	 |.rdata|, DATA, READONLY
|??_C@_1CK@MNEGPKEM@?$AAI?$AAN?$AAT?$AAS?$AAT?$AAA?$AAT?$AAU?$AAS?$AA2?$AA?5?$AA0?$AAx?$AA?$CF?$AA0?$AA2?$AAX?$AA?5?$AA?$AN?$AA?6?$AA?$AA@| DCB "I"
	DCB	0x0, "N", 0x0, "T", 0x0, "S", 0x0, "T", 0x0, "A", 0x0, "T"
	DCB	0x0, "U", 0x0, "S", 0x0, "2", 0x0, " ", 0x0, "0", 0x0, "x"
	DCB	0x0, "%", 0x0, "0", 0x0, "2", 0x0, "X", 0x0, " ", 0x0, 0xd
	DCB	0x0, 0xa, 0x0, 0x0, 0x0			; `string'

  00000			 AREA	 |.rdata|, DATA, READONLY
|??_C@_1CK@JFFIFDGE@?$AAI?$AAN?$AAT?$AAS?$AAT?$AAA?$AAT?$AAU?$AAS?$AA1?$AA?5?$AA0?$AAx?$AA?$CF?$AA0?$AA2?$AAX?$AA?5?$AA?$AN?$AA?6?$AA?$AA@| DCB "I"
	DCB	0x0, "N", 0x0, "T", 0x0, "S", 0x0, "T", 0x0, "A", 0x0, "T"
	DCB	0x0, "U", 0x0, "S", 0x0, "1", 0x0, " ", 0x0, "0", 0x0, "x"
	DCB	0x0, "%", 0x0, "0", 0x0, "2", 0x0, "X", 0x0, " ", 0x0, 0xd
	DCB	0x0, 0xa, 0x0, 0x0, 0x0			; `string'

  00000			 AREA	 |.rdata|, DATA, READONLY
|??_C@_1CG@CCKDOMIM@?$AAI?$AAN?$AAT?$AAM?$AAA?$AAS?$AAK?$AA2?$AA?5?$AA0?$AAx?$AA?$CF?$AA0?$AA2?$AAX?$AA?5?$AA?$AN?$AA?6?$AA?$AA@| DCB "I"
	DCB	0x0, "N", 0x0, "T", 0x0, "M", 0x0, "A", 0x0, "S", 0x0, "K"
	DCB	0x0, "2", 0x0, " ", 0x0, "0", 0x0, "x", 0x0, "%", 0x0, "0"
	DCB	0x0, "2", 0x0, "X", 0x0, " ", 0x0, 0xd, 0x0, 0xa, 0x0, 0x0
	DCB	0x0					; `string'

  00000			 AREA	 |.rdata|, DATA, READONLY
|??_C@_1CG@HKLNEFKE@?$AAI?$AAN?$AAT?$AAM?$AAA?$AAS?$AAK?$AA1?$AA?5?$AA0?$AAx?$AA?$CF?$AA0?$AA2?$AAX?$AA?5?$AA?$AN?$AA?6?$AA?$AA@| DCB "I"
	DCB	0x0, "N", 0x0, "T", 0x0, "M", 0x0, "A", 0x0, "S", 0x0, "K"
	DCB	0x0, "1", 0x0, " ", 0x0, "0", 0x0, "x", 0x0, "%", 0x0, "0"
	DCB	0x0, "2", 0x0, "X", 0x0, " ", 0x0, 0xd, 0x0, 0xa, 0x0, 0x0
	DCB	0x0					; `string'

  00000			 AREA	 |.rdata|, DATA, READONLY
|??_C@_1CK@FFNIPDFN@?$AAD?$AAE?$AAT?$AAE?$AAC?$AAT?$AAC?$AAT?$AAR?$AAL?$AA?5?$AA0?$AAx?$AA?$CF?$AA0?$AA2?$AAX?$AA?5?$AA?$AN?$AA?6?$AA?$AA@| DCB "D"
	DCB	0x0, "E", 0x0, "T", 0x0, "E", 0x0, "C", 0x0, "T", 0x0, "C"
	DCB	0x0, "T", 0x0, "R", 0x0, "L", 0x0, " ", 0x0, "0", 0x0, "x"
	DCB	0x0, "%", 0x0, "0", 0x0, "2", 0x0, "X", 0x0, " ", 0x0, 0xd
	DCB	0x0, 0xa, 0x0, 0x0, 0x0			; `string'

  00000			 AREA	 |.rdata|, DATA, READONLY
|??_C@_1CE@DAAGLFJJ@?$AAO?$AAS?$AAC?$AAC?$AAT?$AAR?$AAL?$AA?5?$AA0?$AAx?$AA?$CF?$AA0?$AA2?$AAX?$AA?5?$AA?$AN?$AA?6?$AA?$AA@| DCB "O"
	DCB	0x0, "S", 0x0, "C", 0x0, "C", 0x0, "T", 0x0, "R", 0x0, "L"
	DCB	0x0, " ", 0x0, "0", 0x0, "x", 0x0, "%", 0x0, "0", 0x0, "2"
	DCB	0x0, "X", 0x0, " ", 0x0, 0xd, 0x0, 0xa, 0x0, 0x0, 0x0 ; `string'

  00000			 AREA	 |.rdata|, DATA, READONLY
|??_C@_1CI@OKBPMHGH@?$AAD?$AAE?$AAV?$AAI?$AAC?$AAE?$AAO?$AAF?$AAF?$AA?5?$AA0?$AAx?$AA?$CF?$AA0?$AA2?$AAX?$AA?5?$AA?$AN?$AA?6?$AA?$AA@| DCB "D"
	DCB	0x0, "E", 0x0, "V", 0x0, "I", 0x0, "C", 0x0, "E", 0x0, "O"
	DCB	0x0, "F", 0x0, "F", 0x0, " ", 0x0, "0", 0x0, "x", 0x0, "%"
	DCB	0x0, "0", 0x0, "2", 0x0, "X", 0x0, " ", 0x0, 0xd, 0x0, 0xa
	DCB	0x0, 0x0, 0x0				; `string'

  00000			 AREA	 |.rdata|, DATA, READONLY
|??_C@_1CK@FCNHKGJE@?$AAS?$AAL?$AAE?$AAE?$AAP?$AAC?$AAT?$AAR?$AAL?$AA2?$AA?5?$AA0?$AAx?$AA?$CF?$AA0?$AA2?$AAX?$AA?5?$AA?$AN?$AA?6?$AA?$AA@| DCB "S"
	DCB	0x0, "L", 0x0, "E", 0x0, "E", 0x0, "P", 0x0, "C", 0x0, "T"
	DCB	0x0, "R", 0x0, "L", 0x0, "2", 0x0, " ", 0x0, "0", 0x0, "x"
	DCB	0x0, "%", 0x0, "0", 0x0, "2", 0x0, "X", 0x0, " ", 0x0, 0xd
	DCB	0x0, 0xa, 0x0, 0x0, 0x0			; `string'

  00000			 AREA	 |.rdata|, DATA, READONLY
|??_C@_1CK@KMJAPLM@?$AAS?$AAL?$AAE?$AAE?$AAP?$AAC?$AAT?$AAR?$AAL?$AA1?$AA?5?$AA0?$AAx?$AA?$CF?$AA0?$AA2?$AAX?$AA?5?$AA?$AN?$AA?6?$AA?$AA@| DCB "S"
	DCB	0x0, "L", 0x0, "E", 0x0, "E", 0x0, "P", 0x0, "C", 0x0, "T"
	DCB	0x0, "R", 0x0, "L", 0x0, "1", 0x0, " ", 0x0, "0", 0x0, "x"
	DCB	0x0, "%", 0x0, "0", 0x0, "2", 0x0, "X", 0x0, " ", 0x0, 0xd
	DCB	0x0, 0xa, 0x0, 0x0, 0x0			; `string'

  00000			 AREA	 |.rdata|, DATA, READONLY
|??_C@_1CG@PPACOFLJ@?$AAL?$AAD?$AA0?$AAC?$AAT?$AAR?$AAL?$AA8?$AA?5?$AA0?$AAx?$AA?$CF?$AA0?$AA2?$AAX?$AA?5?$AA?$AN?$AA?6?$AA?$AA@| DCB "L"
	DCB	0x0, "D", 0x0, "0", 0x0, "C", 0x0, "T", 0x0, "R", 0x0, "L"
	DCB	0x0, "8", 0x0, " ", 0x0, "0", 0x0, "x", 0x0, "%", 0x0, "0"
	DCB	0x0, "2", 0x0, "X", 0x0, " ", 0x0, 0xd, 0x0, 0xa, 0x0, 0x0
	DCB	0x0					; `string'

  00000			 AREA	 |.rdata|, DATA, READONLY
|??_C@_1CG@BMBHOOHA@?$AAL?$AAD?$AA0?$AAC?$AAT?$AAR?$AAL?$AA7?$AA?5?$AA0?$AAx?$AA?$CF?$AA0?$AA2?$AAX?$AA?5?$AA?$AN?$AA?6?$AA?$AA@| DCB "L"
	DCB	0x0, "D", 0x0, "0", 0x0, "C", 0x0, "T", 0x0, "R", 0x0, "L"
	DCB	0x0, "7", 0x0, " ", 0x0, "0", 0x0, "x", 0x0, "%", 0x0, "0"
	DCB	0x0, "2", 0x0, "X", 0x0, " ", 0x0, 0xd, 0x0, 0xa, 0x0, 0x0
	DCB	0x0					; `string'

  00000			 AREA	 |.rdata|, DATA, READONLY
|??_C@_1CG@JNDCILFH@?$AAL?$AAD?$AA0?$AAC?$AAT?$AAR?$AAL?$AA6?$AA?5?$AA0?$AAx?$AA?$CF?$AA0?$AA2?$AAX?$AA?5?$AA?$AN?$AA?6?$AA?$AA@| DCB "L"
	DCB	0x0, "D", 0x0, "0", 0x0, "C", 0x0, "T", 0x0, "R", 0x0, "L"
	DCB	0x0, "6", 0x0, " ", 0x0, "0", 0x0, "x", 0x0, "%", 0x0, "0"
	DCB	0x0, "2", 0x0, "X", 0x0, " ", 0x0, 0xd, 0x0, 0xa, 0x0, 0x0
	DCB	0x0					; `string'

  00000			 AREA	 |.rdata|, DATA, READONLY
|??_C@_1CG@MFCMCCHP@?$AAL?$AAD?$AA0?$AAC?$AAT?$AAR?$AAL?$AA5?$AA?5?$AA0?$AAx?$AA?$CF?$AA0?$AA2?$AAX?$AA?5?$AA?$AN?$AA?6?$AA?$AA@| DCB "L"
	DCB	0x0, "D", 0x0, "0", 0x0, "C", 0x0, "T", 0x0, "R", 0x0, "L"
	DCB	0x0, "5", 0x0, " ", 0x0, "0", 0x0, "x", 0x0, "%", 0x0, "0"
	DCB	0x0, "2", 0x0, "X", 0x0, " ", 0x0, 0xd, 0x0, 0xa, 0x0, 0x0
	DCB	0x0					; `string'

  00000			 AREA	 |.rdata|, DATA, READONLY
|??_C@_1CG@EEAJEHFI@?$AAL?$AAD?$AA0?$AAC?$AAT?$AAR?$AAL?$AA4?$AA?5?$AA0?$AAx?$AA?$CF?$AA0?$AA2?$AAX?$AA?5?$AA?$AN?$AA?6?$AA?$AA@| DCB "L"
	DCB	0x0, "D", 0x0, "0", 0x0, "C", 0x0, "T", 0x0, "R", 0x0, "L"
	DCB	0x0, "4", 0x0, " ", 0x0, "0", 0x0, "x", 0x0, "%", 0x0, "0"
	DCB	0x0, "2", 0x0, "X", 0x0, " ", 0x0, 0xd, 0x0, 0xa, 0x0, 0x0
	DCB	0x0					; `string'

  00000			 AREA	 |.rdata|, DATA, READONLY
|??_C@_1CG@HFBBHACP@?$AAL?$AAD?$AA0?$AAC?$AAT?$AAR?$AAL?$AA3?$AA?5?$AA0?$AAx?$AA?$CF?$AA0?$AA2?$AAX?$AA?5?$AA?$AN?$AA?6?$AA?$AA@| DCB "L"
	DCB	0x0, "D", 0x0, "0", 0x0, "C", 0x0, "T", 0x0, "R", 0x0, "L"
	DCB	0x0, "3", 0x0, " ", 0x0, "0", 0x0, "x", 0x0, "%", 0x0, "0"
	DCB	0x0, "2", 0x0, "X", 0x0, " ", 0x0, 0xd, 0x0, 0xa, 0x0, 0x0
	DCB	0x0					; `string'

  00000			 AREA	 |.rdata|, DATA, READONLY
|??_C@_1CG@PEDEBFAI@?$AAL?$AAD?$AA0?$AAC?$AAT?$AAR?$AAL?$AA2?$AA?5?$AA0?$AAx?$AA?$CF?$AA0?$AA2?$AAX?$AA?5?$AA?$AN?$AA?6?$AA?$AA@| DCB "L"
	DCB	0x0, "D", 0x0, "0", 0x0, "C", 0x0, "T", 0x0, "R", 0x0, "L"
	DCB	0x0, "2", 0x0, " ", 0x0, "0", 0x0, "x", 0x0, "%", 0x0, "0"
	DCB	0x0, "2", 0x0, "X", 0x0, " ", 0x0, 0xd, 0x0, 0xa, 0x0, 0x0
	DCB	0x0					; `string'

  00000			 AREA	 |.rdata|, DATA, READONLY
|??_C@_1CG@KMCKLMCA@?$AAL?$AAD?$AA0?$AAC?$AAT?$AAR?$AAL?$AA1?$AA?5?$AA0?$AAx?$AA?$CF?$AA0?$AA2?$AAX?$AA?5?$AA?$AN?$AA?6?$AA?$AA@| DCB "L"
	DCB	0x0, "D", 0x0, "0", 0x0, "C", 0x0, "T", 0x0, "R", 0x0, "L"
	DCB	0x0, "1", 0x0, " ", 0x0, "0", 0x0, "x", 0x0, "%", 0x0, "0"
	DCB	0x0, "2", 0x0, "X", 0x0, " ", 0x0, 0xd, 0x0, 0xa, 0x0, 0x0
	DCB	0x0					; `string'

  00000			 AREA	 |.rdata|, DATA, READONLY
|??_C@_1CI@IFEGCOAB@?$AAD?$AAC?$AAD?$AAC?$AAC?$AAT?$AAR?$AAL?$AA3?$AA?5?$AA0?$AAx?$AA?$CF?$AA0?$AA2?$AAX?$AA?5?$AA?$AN?$AA?6?$AA?$AA@| DCB "D"
	DCB	0x0, "C", 0x0, "D", 0x0, "C", 0x0, "C", 0x0, "T", 0x0, "R"
	DCB	0x0, "L", 0x0, "3", 0x0, " ", 0x0, "0", 0x0, "x", 0x0, "%"
	DCB	0x0, "0", 0x0, "2", 0x0, "X", 0x0, " ", 0x0, 0xd, 0x0, 0xa
	DCB	0x0, 0x0, 0x0				; `string'

  00000			 AREA	 |.rdata|, DATA, READONLY
|??_C@_1CI@EGDELCG@?$AAD?$AAC?$AAD?$AAC?$AAC?$AAT?$AAR?$AAL?$AA2?$AA?5?$AA0?$AAx?$AA?$CF?$AA0?$AA2?$AAX?$AA?5?$AA?$AN?$AA?6?$AA?$AA@| DCB "D"
	DCB	0x0, "C", 0x0, "D", 0x0, "C", 0x0, "C", 0x0, "T", 0x0, "R"
	DCB	0x0, "L", 0x0, "2", 0x0, " ", 0x0, "0", 0x0, "x", 0x0, "%"
	DCB	0x0, "0", 0x0, "2", 0x0, "X", 0x0, " ", 0x0, 0xd, 0x0, 0xa
	DCB	0x0, 0x0, 0x0				; `string'

  00000			 AREA	 |.rdata|, DATA, READONLY
|??_C@_1CI@FMHNOCAO@?$AAD?$AAC?$AAD?$AAC?$AAC?$AAT?$AAR?$AAL?$AA1?$AA?5?$AA0?$AAx?$AA?$CF?$AA0?$AA2?$AAX?$AA?5?$AA?$AN?$AA?6?$AA?$AA@| DCB "D"
	DCB	0x0, "C", 0x0, "D", 0x0, "C", 0x0, "C", 0x0, "T", 0x0, "R"
	DCB	0x0, "L", 0x0, "1", 0x0, " ", 0x0, "0", 0x0, "x", 0x0, "%"
	DCB	0x0, "0", 0x0, "2", 0x0, "X", 0x0, " ", 0x0, 0xd, 0x0, 0xa
	DCB	0x0, 0x0, 0x0				; `string'

  00000			 AREA	 |.rdata|, DATA, READONLY
|??_C@_1CK@PCAADELF@?$AAV?$AAC?$AAO?$AAR?$AAE?$AAC?$AAT?$AAR?$AAL?$AA5?$AA?5?$AA0?$AAx?$AA?$CF?$AA0?$AA2?$AAX?$AA?5?$AA?$AN?$AA?6?$AA?$AA@| DCB "V"
	DCB	0x0, "C", 0x0, "O", 0x0, "R", 0x0, "E", 0x0, "C", 0x0, "T"
	DCB	0x0, "R", 0x0, "L", 0x0, "5", 0x0, " ", 0x0, "0", 0x0, "x"
	DCB	0x0, "%", 0x0, "0", 0x0, "2", 0x0, "X", 0x0, " ", 0x0, 0xd
	DCB	0x0, 0xa, 0x0, 0x0, 0x0			; `string'

  00000			 AREA	 |.rdata|, DATA, READONLY
|??_C@_1CK@HDCFFBJC@?$AAV?$AAC?$AAO?$AAR?$AAE?$AAC?$AAT?$AAR?$AAL?$AA4?$AA?5?$AA0?$AAx?$AA?$CF?$AA0?$AA2?$AAX?$AA?5?$AA?$AN?$AA?6?$AA?$AA@| DCB "V"
	DCB	0x0, "C", 0x0, "O", 0x0, "R", 0x0, "E", 0x0, "C", 0x0, "T"
	DCB	0x0, "R", 0x0, "L", 0x0, "4", 0x0, " ", 0x0, "0", 0x0, "x"
	DCB	0x0, "%", 0x0, "0", 0x0, "2", 0x0, "X", 0x0, " ", 0x0, 0xd
	DCB	0x0, 0xa, 0x0, 0x0, 0x0			; `string'

  00000			 AREA	 |.rdata|, DATA, READONLY
|??_C@_1CK@ECDNGGOF@?$AAV?$AAC?$AAO?$AAR?$AAE?$AAC?$AAT?$AAR?$AAL?$AA3?$AA?5?$AA0?$AAx?$AA?$CF?$AA0?$AA2?$AAX?$AA?5?$AA?$AN?$AA?6?$AA?$AA@| DCB "V"
	DCB	0x0, "C", 0x0, "O", 0x0, "R", 0x0, "E", 0x0, "C", 0x0, "T"
	DCB	0x0, "R", 0x0, "L", 0x0, "3", 0x0, " ", 0x0, "0", 0x0, "x"
	DCB	0x0, "%", 0x0, "0", 0x0, "2", 0x0, "X", 0x0, " ", 0x0, 0xd
	DCB	0x0, 0xa, 0x0, 0x0, 0x0			; `string'

  00000			 AREA	 |.rdata|, DATA, READONLY
|??_C@_1CK@MDBIADMC@?$AAV?$AAC?$AAO?$AAR?$AAE?$AAC?$AAT?$AAR?$AAL?$AA2?$AA?5?$AA0?$AAx?$AA?$CF?$AA0?$AA2?$AAX?$AA?5?$AA?$AN?$AA?6?$AA?$AA@| DCB "V"
	DCB	0x0, "C", 0x0, "O", 0x0, "R", 0x0, "E", 0x0, "C", 0x0, "T"
	DCB	0x0, "R", 0x0, "L", 0x0, "2", 0x0, " ", 0x0, "0", 0x0, "x"
	DCB	0x0, "%", 0x0, "0", 0x0, "2", 0x0, "X", 0x0, " ", 0x0, 0xd
	DCB	0x0, 0xa, 0x0, 0x0, 0x0			; `string'

  00000			 AREA	 |.rdata|, DATA, READONLY
|??_C@_1CK@JLAGKKOK@?$AAV?$AAC?$AAO?$AAR?$AAE?$AAC?$AAT?$AAR?$AAL?$AA1?$AA?5?$AA0?$AAx?$AA?$CF?$AA0?$AA2?$AAX?$AA?5?$AA?$AN?$AA?6?$AA?$AA@| DCB "V"
	DCB	0x0, "C", 0x0, "O", 0x0, "R", 0x0, "E", 0x0, "C", 0x0, "T"
	DCB	0x0, "R", 0x0, "L", 0x0, "1", 0x0, " ", 0x0, "0", 0x0, "x"
	DCB	0x0, "%", 0x0, "0", 0x0, "2", 0x0, "X", 0x0, " ", 0x0, 0xd
	DCB	0x0, 0xa, 0x0, 0x0, 0x0			; `string'

  00000			 AREA	 |.rdata|, DATA, READONLY
|??_C@_1EA@JAEAIJFA@?$AAD?$AAu?$AAm?$AAp?$AA?5?$AAM?$AAe?$AAn?$AAe?$AAl?$AAa?$AAu?$AAs?$AA?5?$AAC?$AAo?$AAn?$AAf?$AAi?$AAg?$AAu?$AAr?$AAa?$AAt?$AAi?$AAo?$AAn?$AA?$CB?$AA?5?$AA?$AN?$AA?6?$AA?$AA@| DCB "D"
	DCB	0x0, "u", 0x0, "m", 0x0, "p", 0x0, " ", 0x0, "M", 0x0, "e"
	DCB	0x0, "n", 0x0, "e", 0x0, "l", 0x0, "a", 0x0, "u", 0x0, "s"
	DCB	0x0, " ", 0x0, "C", 0x0, "o", 0x0, "n", 0x0, "f", 0x0, "i"
	DCB	0x0, "g", 0x0, "u", 0x0, "r", 0x0, "a", 0x0, "t", 0x0, "i"
	DCB	0x0, "o", 0x0, "n", 0x0, "!", 0x0, " ", 0x0, 0xd, 0x0, 0xa
	DCB	0x0, 0x0, 0x0				; `string'

  00000			 AREA	 |.rdata|, DATA, READONLY
|??_C@_1KA@OFBPCJPI@?$AAC?$AAM?$AAe?$AAn?$AAe?$AAl?$AAa?$AAu?$AAs?$AA?3?$AA?3?$AAM?$AAe?$AAn?$AAe?$AAl?$AAa?$AAu?$AAs?$AAI?$AAn?$AAi?$AAt?$AA?3?$AA?5?$AAF?$AAa?$AAi?$AAl?$AAe?$AAd?$AA?5@| DCB "C"
	DCB	0x0, "M", 0x0, "e", 0x0, "n", 0x0, "e", 0x0, "l", 0x0, "a"
	DCB	0x0, "u", 0x0, "s", 0x0, ":", 0x0, ":", 0x0, "M", 0x0, "e"
	DCB	0x0, "n", 0x0, "e", 0x0, "l", 0x0, "a", 0x0, "u", 0x0, "s"
	DCB	0x0, "I", 0x0, "n", 0x0, "i", 0x0, "t", 0x0, ":", 0x0, " "
	DCB	0x0, "F", 0x0, "a", 0x0, "i", 0x0, "l", 0x0, "e", 0x0, "d"
	DCB	0x0, " ", 0x0, "t", 0x0, "o", 0x0, " ", 0x0, "s", 0x0, "e"
	DCB	0x0, "t", 0x0, " ", 0x0, "I", 0x0, "2", 0x0, "C", 0x0, " "
	DCB	0x0, "S", 0x0, "l", 0x0, "a", 0x0, "v", 0x0, "e", 0x0, " "
	DCB	0x0, "a", 0x0, "d", 0x0, "d", 0x0, "r", 0x0, "e", 0x0, "s"
	DCB	0x0, "s", 0x0, " ", 0x0, "0", 0x0, "x", 0x0, "%", 0x0, "0"
	DCB	0x0, "8", 0x0, "x", 0x0, ",", 0x0, " ", 0x0, "s", 0x0, "i"
	DCB	0x0, "z", 0x0, "e", 0x0, " ", 0x0, "0", 0x0, "x", 0x0, "%"
	DCB	0x0, "0", 0x0, "8", 0x0, "x", 0x0, ")", 0x0, 0xd, 0x0, 0xa
	DCB	0x0, 0x0, 0x0				; `string'

  00000			 AREA	 |.rdata|, DATA, READONLY
|??_C@_1GK@FALHCHFO@?$AAC?$AAM?$AAe?$AAn?$AAe?$AAl?$AAa?$AAu?$AAs?$AA?3?$AA?3?$AAM?$AAe?$AAn?$AAe?$AAl?$AAa?$AAu?$AAs?$AAI?$AAn?$AAi?$AAt?$AA?3?$AA?5?$AAF?$AAa?$AAi?$AAl?$AAe?$AAd?$AA?5@| DCB "C"
	DCB	0x0, "M", 0x0, "e", 0x0, "n", 0x0, "e", 0x0, "l", 0x0, "a"
	DCB	0x0, "u", 0x0, "s", 0x0, ":", 0x0, ":", 0x0, "M", 0x0, "e"
	DCB	0x0, "n", 0x0, "e", 0x0, "l", 0x0, "a", 0x0, "u", 0x0, "s"
	DCB	0x0, "I", 0x0, "n", 0x0, "i", 0x0, "t", 0x0, ":", 0x0, " "
	DCB	0x0, "F", 0x0, "a", 0x0, "i", 0x0, "l", 0x0, "e", 0x0, "d"
	DCB	0x0, " ", 0x0, "o", 0x0, "p", 0x0, "e", 0x0, "n", 0x0, " "
	DCB	0x0, "I", 0x0, "2", 0x0, "C", 0x0, " ", 0x0, "d", 0x0, "e"
	DCB	0x0, "v", 0x0, "i", 0x0, "c", 0x0, "e", 0x0, " ", 0x0, "%"
	DCB	0x0, "s", 0x0, 0xd, 0x0, 0xa, 0x0, 0x0, 0x0 ; `string'

  00000			 AREA	 |.rdata|, DATA, READONLY
|??_C@_1HI@EHEDCEON@?$AAC?$AAM?$AAe?$AAn?$AAe?$AAl?$AAa?$AAu?$AAs?$AA?3?$AA?3?$AAM?$AAe?$AAn?$AAe?$AAl?$AAa?$AAu?$AAs?$AAI?$AAn?$AAi?$AAt?$AA?3?$AA?5?$AAI?$AAn?$AAi?$AAt?$AAi?$AAa?$AAl@| DCB "C"
	DCB	0x0, "M", 0x0, "e", 0x0, "n", 0x0, "e", 0x0, "l", 0x0, "a"
	DCB	0x0, "u", 0x0, "s", 0x0, ":", 0x0, ":", 0x0, "M", 0x0, "e"
	DCB	0x0, "n", 0x0, "e", 0x0, "l", 0x0, "a", 0x0, "u", 0x0, "s"
	DCB	0x0, "I", 0x0, "n", 0x0, "i", 0x0, "t", 0x0, ":", 0x0, " "
	DCB	0x0, "I", 0x0, "n", 0x0, "i", 0x0, "t", 0x0, "i", 0x0, "a"
	DCB	0x0, "l", 0x0, "i", 0x0, "z", 0x0, "e", 0x0, " ", 0x0, "H"
	DCB	0x0, "a", 0x0, "r", 0x0, "d", 0x0, "w", 0x0, "a", 0x0, "r"
	DCB	0x0, "e", 0x0, " ", 0x0, "&", 0x0, " ", 0x0, "I", 0x0, "n"
	DCB	0x0, "t", 0x0, "e", 0x0, "r", 0x0, "r", 0x0, "u", 0x0, "p"
	DCB	0x0, "t", 0x0, "s", 0x0, 0xd, 0x0, 0xa, 0x0, 0x0, 0x0 ; `string'
; Function compile flags: /Odtp

  00134			 AREA	 |.text|, CODE, ARM

  00134		 |?MenelausInit@CMenelaus@@QAAHXZ| PROC	; CMenelaus::MenelausInit

; 96   : {

  00134		 |$LN152@MenelausIn|
  00134	e1a0c00d	 mov         r12, sp
  00138	e92d0001	 stmdb       sp!, {r0}
  0013c	e92d5000	 stmdb       sp!, {r12, lr}
  00140	e24dde15	 sub         sp, sp, #0x15, 28
  00144		 |$M36905|

; 97   :     BOOL rc = FALSE;

  00144	e3a03000	 mov         r3, #0
  00148	e58d3004	 str         r3, [sp, #4]

; 98   :     DEBUGMSG(SDCARD_ZONE_FUNC, (L"CMenelaus::MenelausInit: "
; 99   :         L"Initialize Hardware & Interrupts\r\n"
; 100  :     ));

  0014c	e59f3484	 ldr         r3, [pc, #0x484]
  00150	e5933440	 ldr         r3, [r3, #0x440]
  00154	e3130b02	 tst         r3, #2, 22
  00158	0a000004	 beq         |$LN26@MenelausIn|
  0015c	e59f0488	 ldr         r0, [pc, #0x488]
  00160	eb000000	 bl          NKDbgPrintfW
  00164	e3a03001	 mov         r3, #1
  00168	e58d300c	 str         r3, [sp, #0xC]
  0016c	ea000001	 b           |$LN27@MenelausIn|
  00170		 |$LN26@MenelausIn|
  00170	e3a03000	 mov         r3, #0
  00174	e58d300c	 str         r3, [sp, #0xC]
  00178		 |$LN27@MenelausIn|

; 101  : 
; 102  :     // open I2C bus
; 103  :     m_hI2C = I2COpen(m_lpsI2CDeviceName);

  00178	e59d3158	 ldr         r3, [sp, #0x158]
  0017c	e2833004	 add         r3, r3, #4
  00180	e5930000	 ldr         r0, [r3]
  00184	eb000000	 bl          I2COpen
  00188	e58d0010	 str         r0, [sp, #0x10]
  0018c	e59d2010	 ldr         r2, [sp, #0x10]
  00190	e59d3158	 ldr         r3, [sp, #0x158]
  00194	e5832000	 str         r2, [r3]

; 104  : 
; 105  :     if (m_hI2C == NULL) {

  00198	e59d3158	 ldr         r3, [sp, #0x158]
  0019c	e5933000	 ldr         r3, [r3]
  001a0	e3530000	 cmp         r3, #0
  001a4	1a00000f	 bne         |$LN23@MenelausIn|

; 106  :         DEBUGMSG(SDCARD_ZONE_ERROR, (L"CMenelaus::MenelausInit: "
; 107  :             L"Failed open I2C device %s\r\n", m_lpsI2CDeviceName
; 108  :         ));

  001a8	e59f3428	 ldr         r3, [pc, #0x428]
  001ac	e5933440	 ldr         r3, [r3, #0x440]
  001b0	e3130902	 tst         r3, #2, 18
  001b4	0a000007	 beq         |$LN28@MenelausIn|
  001b8	e59d3158	 ldr         r3, [sp, #0x158]
  001bc	e2833004	 add         r3, r3, #4
  001c0	e5931000	 ldr         r1, [r3]
  001c4	e59f041c	 ldr         r0, [pc, #0x41C]
  001c8	eb000000	 bl          NKDbgPrintfW
  001cc	e3a03001	 mov         r3, #1
  001d0	e58d3014	 str         r3, [sp, #0x14]
  001d4	ea000001	 b           |$LN29@MenelausIn|
  001d8		 |$LN28@MenelausIn|
  001d8	e3a03000	 mov         r3, #0
  001dc	e58d3014	 str         r3, [sp, #0x14]
  001e0		 |$LN29@MenelausIn|

; 109  :         goto cleanUp;

  001e0	ea0004b8	 b           |$LN22@MenelausIn|
  001e4	ea0004b7	 b           |$cleanUp$36372|
  001e8		 |$LN23@MenelausIn|

; 110  :     }
; 111  : 
; 112  :     if (!I2CSetSlaveAddress(m_hI2C,
; 113  :                             m_dwI2CMenelausAddrSize,
; 114  :                             m_dwI2CMenelausAddress)) {

  001e8	e59d3158	 ldr         r3, [sp, #0x158]
  001ec	e2833008	 add         r3, r3, #8
  001f0	e5932000	 ldr         r2, [r3]
  001f4	e59d3158	 ldr         r3, [sp, #0x158]
  001f8	e283300c	 add         r3, r3, #0xC
  001fc	e5931000	 ldr         r1, [r3]
  00200	e59d3158	 ldr         r3, [sp, #0x158]
  00204	e5930000	 ldr         r0, [r3]
  00208	eb000000	 bl          I2CSetSlaveAddress
  0020c	e58d0018	 str         r0, [sp, #0x18]
  00210	e59d3018	 ldr         r3, [sp, #0x18]
  00214	e3530000	 cmp         r3, #0
  00218	1a000012	 bne         |$LN21@MenelausIn|

; 115  :         
; 116  :         DEBUGMSG(SDCARD_ZONE_ERROR, (L"CMenelaus::MenelausInit: "
; 117  :             L"Failed to set I2C Slave address 0x%08x, size 0x%08x)\r\n", m_dwI2CMenelausAddress, m_dwI2CMenelausAddrSize
; 118  :         ));

  0021c	e59f33b4	 ldr         r3, [pc, #0x3B4]
  00220	e5933440	 ldr         r3, [r3, #0x440]
  00224	e3130902	 tst         r3, #2, 18
  00228	0a00000a	 beq         |$LN30@MenelausIn|
  0022c	e59d3158	 ldr         r3, [sp, #0x158]
  00230	e283300c	 add         r3, r3, #0xC
  00234	e5932000	 ldr         r2, [r3]
  00238	e59d3158	 ldr         r3, [sp, #0x158]
  0023c	e2833008	 add         r3, r3, #8
  00240	e5931000	 ldr         r1, [r3]
  00244	e59f0398	 ldr         r0, [pc, #0x398]
  00248	eb000000	 bl          NKDbgPrintfW
  0024c	e3a03001	 mov         r3, #1
  00250	e58d301c	 str         r3, [sp, #0x1C]
  00254	ea000001	 b           |$LN31@MenelausIn|
  00258		 |$LN30@MenelausIn|
  00258	e3a03000	 mov         r3, #0
  0025c	e58d301c	 str         r3, [sp, #0x1C]
  00260		 |$LN31@MenelausIn|

; 119  : 
; 120  :         goto cleanUp;

  00260	ea000498	 b           |$LN20@MenelausIn|
  00264	ea000497	 b           |$cleanUp$36372|
  00268		 |$LN21@MenelausIn|

; 121  :     }
; 122  : 
; 123  :     // Setup Menelaus Chip
; 124  :     UCHAR pData = 0x00;

  00268	e3a03000	 mov         r3, #0
  0026c	e5cd3000	 strb        r3, [sp]

; 125  :     
; 126  :     // Clear & Mask MTC Menelaus Interrupts
; 127  :     if ( !ClearMenelausIrq(IRQ_MENELAUS_CD1) || !MaskMenelausIrq(IRQ_MENELAUS_CD1) ||
; 128  :          !ClearMenelausIrq(IRQ_MENELAUS_CD2) || !MaskMenelausIrq(IRQ_MENELAUS_CD2) ||
; 129  :          !ClearMenelausIrq(IRQ_MENELAUS_DL1) || !MaskMenelausIrq(IRQ_MENELAUS_DL1) ||
; 130  :          !ClearMenelausIrq(IRQ_MENELAUS_DL2) || !MaskMenelausIrq(IRQ_MENELAUS_DL2))

  00270	e3a01064	 mov         r1, #0x64
  00274	e59d0158	 ldr         r0, [sp, #0x158]
  00278	eb000000	 bl          |?ClearMenelausIrq@CMenelaus@@AAAHI@Z|
  0027c	e58d0020	 str         r0, [sp, #0x20]
  00280	e59d3020	 ldr         r3, [sp, #0x20]
  00284	e3530000	 cmp         r3, #0
  00288	0a000030	 beq         |$LN18@MenelausIn|
  0028c	e3a01064	 mov         r1, #0x64
  00290	e59d0158	 ldr         r0, [sp, #0x158]
  00294	eb000000	 bl          |?MaskMenelausIrq@CMenelaus@@AAAHI@Z|
  00298	e58d0024	 str         r0, [sp, #0x24]
  0029c	e59d3024	 ldr         r3, [sp, #0x24]
  002a0	e3530000	 cmp         r3, #0
  002a4	0a000029	 beq         |$LN18@MenelausIn|
  002a8	e3a01065	 mov         r1, #0x65
  002ac	e59d0158	 ldr         r0, [sp, #0x158]
  002b0	eb000000	 bl          |?ClearMenelausIrq@CMenelaus@@AAAHI@Z|
  002b4	e58d0028	 str         r0, [sp, #0x28]
  002b8	e59d3028	 ldr         r3, [sp, #0x28]
  002bc	e3530000	 cmp         r3, #0
  002c0	0a000022	 beq         |$LN18@MenelausIn|
  002c4	e3a01065	 mov         r1, #0x65
  002c8	e59d0158	 ldr         r0, [sp, #0x158]
  002cc	eb000000	 bl          |?MaskMenelausIrq@CMenelaus@@AAAHI@Z|
  002d0	e58d002c	 str         r0, [sp, #0x2C]
  002d4	e59d302c	 ldr         r3, [sp, #0x2C]
  002d8	e3530000	 cmp         r3, #0
  002dc	0a00001b	 beq         |$LN18@MenelausIn|
  002e0	e3a01066	 mov         r1, #0x66
  002e4	e59d0158	 ldr         r0, [sp, #0x158]
  002e8	eb000000	 bl          |?ClearMenelausIrq@CMenelaus@@AAAHI@Z|
  002ec	e58d0030	 str         r0, [sp, #0x30]
  002f0	e59d3030	 ldr         r3, [sp, #0x30]
  002f4	e3530000	 cmp         r3, #0
  002f8	0a000014	 beq         |$LN18@MenelausIn|
  002fc	e3a01066	 mov         r1, #0x66
  00300	e59d0158	 ldr         r0, [sp, #0x158]
  00304	eb000000	 bl          |?MaskMenelausIrq@CMenelaus@@AAAHI@Z|
  00308	e58d0034	 str         r0, [sp, #0x34]
  0030c	e59d3034	 ldr         r3, [sp, #0x34]
  00310	e3530000	 cmp         r3, #0
  00314	0a00000d	 beq         |$LN18@MenelausIn|
  00318	e3a01067	 mov         r1, #0x67
  0031c	e59d0158	 ldr         r0, [sp, #0x158]
  00320	eb000000	 bl          |?ClearMenelausIrq@CMenelaus@@AAAHI@Z|
  00324	e58d0038	 str         r0, [sp, #0x38]
  00328	e59d3038	 ldr         r3, [sp, #0x38]
  0032c	e3530000	 cmp         r3, #0
  00330	0a000006	 beq         |$LN18@MenelausIn|
  00334	e3a01067	 mov         r1, #0x67
  00338	e59d0158	 ldr         r0, [sp, #0x158]
  0033c	eb000000	 bl          |?MaskMenelausIrq@CMenelaus@@AAAHI@Z|
  00340	e58d003c	 str         r0, [sp, #0x3C]
  00344	e59d303c	 ldr         r3, [sp, #0x3C]
  00348	e3530000	 cmp         r3, #0
  0034c	1a000001	 bne         |$LN19@MenelausIn|
  00350		 |$LN18@MenelausIn|

; 131  :      {
; 132  :         goto cleanUp;

  00350	ea00045c	 b           |$LN17@MenelausIn|
  00354	ea00045b	 b           |$cleanUp$36372|
  00358		 |$LN19@MenelausIn|

; 133  :      }
; 134  :     
; 135  :     // confgure VMMC (Power Supply Slot1) for 3.2V
; 136  :     if (ReadData(MENELAUS_LD0CTRL1_OFFSET, &pData))

  00358	e28d2000	 add         r2, sp, #0
  0035c	e3a0100a	 mov         r1, #0xA
  00360	e59d0158	 ldr         r0, [sp, #0x158]
  00364	eb000000	 bl          |?ReadData@CMenelaus@@AAAHEPAE@Z|
  00368	e58d0040	 str         r0, [sp, #0x40]
  0036c	e59d3040	 ldr         r3, [sp, #0x40]
  00370	e3530000	 cmp         r3, #0
  00374	0a00001c	 beq         |$LN16@MenelausIn|

; 137  :     {
; 138  :         pData &= ~(VMCC_VOLT);  // clear bits

  00378	e5dd3000	 ldrb        r3, [sp]
  0037c	e1a02003	 mov         r2, r3
  00380	e3e030c0	 mvn         r3, #0xC0
  00384	e0023003	 and         r3, r2, r3
  00388	e20330ff	 and         r3, r3, #0xFF
  0038c	e5cd3000	 strb        r3, [sp]

; 139  :         pData |= VMMC_VOLT32;   // set bits

  00390	e5dd3000	 ldrb        r3, [sp]
  00394	e38330c0	 orr         r3, r3, #0xC0
  00398	e20330ff	 and         r3, r3, #0xFF
  0039c	e5cd3000	 strb        r3, [sp]

; 140  :         
; 141  :         if (!WriteData(MENELAUS_LD0CTRL1_OFFSET, pData) ||
; 142  :             !WriteData(MENELAUS_LD0CTRL7_OFFSET, (VMMC_MODE_ON)))

  003a0	e5dd2000	 ldrb        r2, [sp]
  003a4	e3a0100a	 mov         r1, #0xA
  003a8	e59d0158	 ldr         r0, [sp, #0x158]
  003ac	eb000000	 bl          |?WriteData@CMenelaus@@AAAHEE@Z|
  003b0	e58d0044	 str         r0, [sp, #0x44]
  003b4	e59d3044	 ldr         r3, [sp, #0x44]
  003b8	e3530000	 cmp         r3, #0
  003bc	0a000007	 beq         |$LN14@MenelausIn|
  003c0	e3a02002	 mov         r2, #2
  003c4	e3a01010	 mov         r1, #0x10
  003c8	e59d0158	 ldr         r0, [sp, #0x158]
  003cc	eb000000	 bl          |?WriteData@CMenelaus@@AAAHEE@Z|
  003d0	e58d0048	 str         r0, [sp, #0x48]
  003d4	e59d3048	 ldr         r3, [sp, #0x48]
  003d8	e3530000	 cmp         r3, #0
  003dc	1a000001	 bne         |$LN15@MenelausIn|
  003e0		 |$LN14@MenelausIn|

; 143  :         {
; 144  :             goto cleanUp;

  003e0	ea000438	 b           |$LN13@MenelausIn|
  003e4	ea000437	 b           |$cleanUp$36372|
  003e8		 |$LN15@MenelausIn|

; 145  :         }
; 146  :     }
; 147  :     else

  003e8	ea000001	 b           |$LN12@MenelausIn|
  003ec		 |$LN16@MenelausIn|

; 148  :     {
; 149  :         goto cleanUp;

  003ec	ea000435	 b           |$LN11@MenelausIn|
  003f0	ea000434	 b           |$cleanUp$36372|
  003f4		 |$LN12@MenelausIn|

; 150  :     }
; 151  : 
; 152  :     // configure DCDC3 (Power Supply Slot2) for 3.2V
; 153  :     // turn on DCDC3 suppply to Slot2
; 154  :     if (ReadData(MENELAUS_DCDCCTRL1_OFFSET, &pData))

  003f4	e28d2000	 add         r2, sp, #0
  003f8	e3a01007	 mov         r1, #7
  003fc	e59d0158	 ldr         r0, [sp, #0x158]
  00400	eb000000	 bl          |?ReadData@CMenelaus@@AAAHEPAE@Z|
  00404	e58d004c	 str         r0, [sp, #0x4C]
  00408	e59d304c	 ldr         r3, [sp, #0x4C]
  0040c	e3530000	 cmp         r3, #0
  00410	0a00001c	 beq         |$LN10@MenelausIn|

; 155  :     {
; 156  :         pData &= ~(DCDC3_VOLT);  // clear bits

  00414	e5dd3000	 ldrb        r3, [sp]
  00418	e1a02003	 mov         r2, r3
  0041c	e3e03038	 mvn         r3, #0x38
  00420	e0023003	 and         r3, r2, r3
  00424	e20330ff	 and         r3, r3, #0xFF
  00428	e5cd3000	 strb        r3, [sp]

; 157  :         pData |= DCDC3_VOLT32;   // set bits

  0042c	e5dd3000	 ldrb        r3, [sp]
  00430	e3833038	 orr         r3, r3, #0x38
  00434	e20330ff	 and         r3, r3, #0xFF
  00438	e5cd3000	 strb        r3, [sp]

; 158  :         
; 159  :         if (!WriteData(MENELAUS_DCDCCTRL1_OFFSET, pData) || 
; 160  :             !WriteData(MENELAUS_DCDCCTRL3_OFFSET, (DCDC3_MODE_ONPWM)))

  0043c	e5dd2000	 ldrb        r2, [sp]
  00440	e3a01007	 mov         r1, #7
  00444	e59d0158	 ldr         r0, [sp, #0x158]
  00448	eb000000	 bl          |?WriteData@CMenelaus@@AAAHEE@Z|
  0044c	e58d0050	 str         r0, [sp, #0x50]
  00450	e59d3050	 ldr         r3, [sp, #0x50]
  00454	e3530000	 cmp         r3, #0
  00458	0a000007	 beq         |$LN8@MenelausIn|
  0045c	e3a02003	 mov         r2, #3
  00460	e3a01009	 mov         r1, #9
  00464	e59d0158	 ldr         r0, [sp, #0x158]
  00468	eb000000	 bl          |?WriteData@CMenelaus@@AAAHEE@Z|
  0046c	e58d0054	 str         r0, [sp, #0x54]
  00470	e59d3054	 ldr         r3, [sp, #0x54]
  00474	e3530000	 cmp         r3, #0
  00478	1a000001	 bne         |$LN9@MenelausIn|
  0047c		 |$LN8@MenelausIn|

; 161  :         {
; 162  :             goto cleanUp;

  0047c	ea000411	 b           |$LN7@MenelausIn|
  00480	ea000410	 b           |$cleanUp$36372|
  00484		 |$LN9@MenelausIn|

; 163  :         }
; 164  :     }
; 165  :     else

  00484	ea000001	 b           |$LN6@MenelausIn|
  00488		 |$LN10@MenelausIn|

; 166  :     {
; 167  :         goto cleanUp;

  00488	ea00040e	 b           |$LN5@MenelausIn|
  0048c	ea00040d	 b           |$cleanUp$36372|
  00490		 |$LN6@MenelausIn|

; 168  :     }
; 169  : 
; 170  :     // Configure Slots
; 171  :     // MCT Control Reg 3
; 172  :     // Slots 1 and slot 2 Auto Power Supply Shutoff Disabled.
; 173  : 
; 174  :     // MCT Control Reg 2
; 175  :     // DCDC3 Power Supply for Slot2 Selected, buffers and debounce enabled
; 176  :     // CD1, CD2 buffer enabled
; 177  :     // S1Dat1, S2Dat1 Buffer enabled (note must be enabled only after power applied to slot)
; 178  : 
; 179  :     // MCT Control Reg 1
; 180  :     // Push-Pull Buffer
; 181  :     // Normally Open  Switch
; 182  :     if (!WriteData(MENELAUS_MCTCTRL3_OFFSET, 0x00) || 
; 183  :         !WriteData(MENELAUS_MCTCTRL2_OFFSET, (S2D1_BUFEN | S1D1_BUFEN | S2CD_BUFEN | S1CD_BUFEN | VS2_DCDC3)) || 
; 184  :         !WriteData(MENELAUS_MCTCTRL1_OFFSET, (S2CD_SWNO | S1CD_SWNO)))

  00490	e3a02000	 mov         r2, #0
  00494	e3a01038	 mov         r1, #0x38
  00498	e59d0158	 ldr         r0, [sp, #0x158]
  0049c	eb000000	 bl          |?WriteData@CMenelaus@@AAAHEE@Z|
  004a0	e58d0058	 str         r0, [sp, #0x58]
  004a4	e59d3058	 ldr         r3, [sp, #0x58]
  004a8	e3530000	 cmp         r3, #0
  004ac	0a00000f	 beq         |$LN3@MenelausIn|
  004b0	e3a0203c	 mov         r2, #0x3C
  004b4	e3a01037	 mov         r1, #0x37
  004b8	e59d0158	 ldr         r0, [sp, #0x158]
  004bc	eb000000	 bl          |?WriteData@CMenelaus@@AAAHEE@Z|
  004c0	e58d005c	 str         r0, [sp, #0x5C]
  004c4	e59d305c	 ldr         r3, [sp, #0x5C]
  004c8	e3530000	 cmp         r3, #0
  004cc	0a000007	 beq         |$LN3@MenelausIn|
  004d0	e3a02003	 mov         r2, #3
  004d4	e3a01036	 mov         r1, #0x36
  004d8	e59d0158	 ldr         r0, [sp, #0x158]
  004dc	eb000000	 bl          |?WriteData@CMenelaus@@AAAHEE@Z|
  004e0	e58d0060	 str         r0, [sp, #0x60]
  004e4	e59d3060	 ldr         r3, [sp, #0x60]
  004e8	e3530000	 cmp         r3, #0
  004ec	1a000001	 bne         |$LN4@MenelausIn|
  004f0		 |$LN3@MenelausIn|

; 185  :     {
; 186  :         goto cleanUp;

  004f0	ea0003f4	 b           |$LN2@MenelausIn|
  004f4	ea0003f3	 b           |$cleanUp$36372|
  004f8		 |$LN4@MenelausIn|

; 187  :     }
; 188  :     
; 189  :     // Unmask Desired Menelaus Interrupts
; 190  :     UnMaskMenelausIrq(IRQ_MENELAUS_CD1);

  004f8	e3a01064	 mov         r1, #0x64
  004fc	e59d0158	 ldr         r0, [sp, #0x158]
  00500	eb000000	 bl          |?UnMaskMenelausIrq@CMenelaus@@AAAHI@Z|

; 191  :     UnMaskMenelausIrq(IRQ_MENELAUS_CD2);

  00504	e3a01065	 mov         r1, #0x65
  00508	e59d0158	 ldr         r0, [sp, #0x158]
  0050c	eb000000	 bl          |?UnMaskMenelausIrq@CMenelaus@@AAAHI@Z|

; 192  :     UnMaskMenelausIrq(IRQ_MENELAUS_DL1);

  00510	e3a01066	 mov         r1, #0x66
  00514	e59d0158	 ldr         r0, [sp, #0x158]
  00518	eb000000	 bl          |?UnMaskMenelausIrq@CMenelaus@@AAAHI@Z|

; 193  :     UnMaskMenelausIrq(IRQ_MENELAUS_DL2);

  0051c	e3a01067	 mov         r1, #0x67
  00520	e59d0158	 ldr         r0, [sp, #0x158]
  00524	eb000000	 bl          |?UnMaskMenelausIrq@CMenelaus@@AAAHI@Z|

; 194  : 
; 195  : #ifdef DEBUG
; 196  :     DEBUGMSG(SDCARD_ZONE_INFO, (L"Dump Menelaus Configuration! \r\n")); 

  00528	e59f30a8	 ldr         r3, [pc, #0xA8]
  0052c	e5933440	 ldr         r3, [r3, #0x440]
  00530	e3130a01	 tst         r3, #1, 20
  00534	0a000004	 beq         |$LN32@MenelausIn|
  00538	e59f00a0	 ldr         r0, [pc, #0xA0]
  0053c	eb000000	 bl          NKDbgPrintfW
  00540	e3a03001	 mov         r3, #1
  00544	e58d3064	 str         r3, [sp, #0x64]
  00548	ea000001	 b           |$LN33@MenelausIn|
  0054c		 |$LN32@MenelausIn|
  0054c	e3a03000	 mov         r3, #0
  00550	e58d3064	 str         r3, [sp, #0x64]
  00554		 |$LN33@MenelausIn|

; 197  :     ReadData(MENELAUS_VCORECTRL1_OFFSET, &pData); DEBUGMSG(SDCARD_ZONE_INFO, (L"VCORECTRL1 0x%02X \r\n", pData));

  00554	e28d2000	 add         r2, sp, #0
  00558	e3a01002	 mov         r1, #2
  0055c	e59d0158	 ldr         r0, [sp, #0x158]
  00560	eb000000	 bl          |?ReadData@CMenelaus@@AAAHEPAE@Z|
  00564	e59f306c	 ldr         r3, [pc, #0x6C]
  00568	e5933440	 ldr         r3, [r3, #0x440]
  0056c	e3130a01	 tst         r3, #1, 20
  00570	0a000006	 beq         |$LN34@MenelausIn|
  00574	e5dd3000	 ldrb        r3, [sp]
  00578	e1a01003	 mov         r1, r3
  0057c	e59f0058	 ldr         r0, [pc, #0x58]
  00580	eb000000	 bl          NKDbgPrintfW
  00584	e3a03001	 mov         r3, #1
  00588	e58d3068	 str         r3, [sp, #0x68]
  0058c	ea000001	 b           |$LN35@MenelausIn|
  00590		 |$LN34@MenelausIn|
  00590	e3a03000	 mov         r3, #0
  00594	e58d3068	 str         r3, [sp, #0x68]
  00598		 |$LN35@MenelausIn|

; 198  :     ReadData(MENELAUS_VCORECTRL2_OFFSET, &pData); DEBUGMSG(SDCARD_ZONE_INFO, (L"VCORECTRL2 0x%02X \r\n", pData));

  00598	e28d2000	 add         r2, sp, #0
  0059c	e3a01003	 mov         r1, #3
  005a0	e59d0158	 ldr         r0, [sp, #0x158]
  005a4	eb000000	 bl          |?ReadData@CMenelaus@@AAAHEPAE@Z|
  005a8	e59f3028	 ldr         r3, [pc, #0x28]
  005ac	e5933440	 ldr         r3, [r3, #0x440]
  005b0	e3130a01	 tst         r3, #1, 20
  005b4	0a00000d	 beq         |$LN36@MenelausIn|
  005b8	e5dd3000	 ldrb        r3, [sp]
  005bc	e1a01003	 mov         r1, r3
  005c0	e59f000c	 ldr         r0, [pc, #0xC]
  005c4	eb000000	 bl          NKDbgPrintfW
  005c8	e3a03001	 mov         r3, #1
  005cc	e58d306c	 str         r3, [sp, #0x6C]
  005d0	ea000008	 b           |$LN37@MenelausIn|
  005d4		 |$LN211@MenelausIn|
  005d4		 |$LN212@MenelausIn|
  005d4	00000000	 DCD         |??_C@_1CK@MDBIADMC@?$AAV?$AAC?$AAO?$AAR?$AAE?$AAC?$AAT?$AAR?$AAL?$AA2?$AA?5?$AA0?$AAx?$AA?$CF?$AA0?$AA2?$AAX?$AA?5?$AA?$AN?$AA?6?$AA?$AA@|
  005d8		 |$LN213@MenelausIn|
  005d8	00000000	 DCD         |dpCurSettings|
  005dc		 |$LN214@MenelausIn|
  005dc	00000000	 DCD         |??_C@_1CK@JLAGKKOK@?$AAV?$AAC?$AAO?$AAR?$AAE?$AAC?$AAT?$AAR?$AAL?$AA1?$AA?5?$AA0?$AAx?$AA?$CF?$AA0?$AA2?$AAX?$AA?5?$AA?$AN?$AA?6?$AA?$AA@|
  005e0		 |$LN215@MenelausIn|
  005e0	00000000	 DCD         |??_C@_1EA@JAEAIJFA@?$AAD?$AAu?$AAm?$AAp?$AA?5?$AAM?$AAe?$AAn?$AAe?$AAl?$AAa?$AAu?$AAs?$AA?5?$AAC?$AAo?$AAn?$AAf?$AAi?$AAg?$AAu?$AAr?$AAa?$AAt?$AAi?$AAo?$AAn?$AA?$CB?$AA?5?$AA?$AN?$AA?6?$AA?$AA@|
  005e4		 |$LN216@MenelausIn|
  005e4	00000000	 DCD         |??_C@_1KA@OFBPCJPI@?$AAC?$AAM?$AAe?$AAn?$AAe?$AAl?$AAa?$AAu?$AAs?$AA?3?$AA?3?$AAM?$AAe?$AAn?$AAe?$AAl?$AAa?$AAu?$AAs?$AAI?$AAn?$AAi?$AAt?$AA?3?$AA?5?$AAF?$AAa?$AAi?$AAl?$AAe?$AAd?$AA?5@|
  005e8		 |$LN217@MenelausIn|
  005e8	00000000	 DCD         |??_C@_1GK@FALHCHFO@?$AAC?$AAM?$AAe?$AAn?$AAe?$AAl?$AAa?$AAu?$AAs?$AA?3?$AA?3?$AAM?$AAe?$AAn?$AAe?$AAl?$AAa?$AAu?$AAs?$AAI?$AAn?$AAi?$AAt?$AA?3?$AA?5?$AAF?$AAa?$AAi?$AAl?$AAe?$AAd?$AA?5@|
  005ec		 |$LN218@MenelausIn|
  005ec	00000000	 DCD         |??_C@_1HI@EHEDCEON@?$AAC?$AAM?$AAe?$AAn?$AAe?$AAl?$AAa?$AAu?$AAs?$AA?3?$AA?3?$AAM?$AAe?$AAn?$AAe?$AAl?$AAa?$AAu?$AAs?$AAI?$AAn?$AAi?$AAt?$AA?3?$AA?5?$AAI?$AAn?$AAi?$AAt?$AAi?$AAa?$AAl@|
  005f0		 |$LN36@MenelausIn|
  005f0	e3a03000	 mov         r3, #0
  005f4	e58d306c	 str         r3, [sp, #0x6C]
  005f8		 |$LN37@MenelausIn|

; 199  :     ReadData(MENELAUS_VCORECTRL3_OFFSET, &pData); DEBUGMSG(SDCARD_ZONE_INFO, (L"VCORECTRL3 0x%02X \r\n", pData));

  005f8	e28d2000	 add         r2, sp, #0
  005fc	e3a01004	 mov         r1, #4
  00600	e59d0158	 ldr         r0, [sp, #0x158]
  00604	eb000000	 bl          |?ReadData@CMenelaus@@AAAHEPAE@Z|
  00608	e59f3ee8	 ldr         r3, [pc, #0xEE8]
  0060c	e5933440	 ldr         r3, [r3, #0x440]
  00610	e3130a01	 tst         r3, #1, 20
  00614	0a000006	 beq         |$LN38@MenelausIn|
  00618	e5dd3000	 ldrb        r3, [sp]
  0061c	e1a01003	 mov         r1, r3
  00620	e59f0fac	 ldr         r0, [pc, #0xFAC]
  00624	eb000000	 bl          NKDbgPrintfW
  00628	e3a03001	 mov         r3, #1
  0062c	e58d3070	 str         r3, [sp, #0x70]
  00630	ea000001	 b           |$LN39@MenelausIn|
  00634		 |$LN38@MenelausIn|
  00634	e3a03000	 mov         r3, #0
  00638	e58d3070	 str         r3, [sp, #0x70]
  0063c		 |$LN39@MenelausIn|

; 200  :     ReadData(MENELAUS_VCORECTRL4_OFFSET, &pData); DEBUGMSG(SDCARD_ZONE_INFO, (L"VCORECTRL4 0x%02X \r\n", pData));

  0063c	e28d2000	 add         r2, sp, #0
  00640	e3a01005	 mov         r1, #5
  00644	e59d0158	 ldr         r0, [sp, #0x158]
  00648	eb000000	 bl          |?ReadData@CMenelaus@@AAAHEPAE@Z|
  0064c	e59f3ea4	 ldr         r3, [pc, #0xEA4]
  00650	e5933440	 ldr         r3, [r3, #0x440]
  00654	e3130a01	 tst         r3, #1, 20
  00658	0a000006	 beq         |$LN40@MenelausIn|
  0065c	e5dd3000	 ldrb        r3, [sp]
  00660	e1a01003	 mov         r1, r3
  00664	e59f0f64	 ldr         r0, [pc, #0xF64]
  00668	eb000000	 bl          NKDbgPrintfW
  0066c	e3a03001	 mov         r3, #1
  00670	e58d3074	 str         r3, [sp, #0x74]
  00674	ea000001	 b           |$LN41@MenelausIn|
  00678		 |$LN40@MenelausIn|
  00678	e3a03000	 mov         r3, #0
  0067c	e58d3074	 str         r3, [sp, #0x74]
  00680		 |$LN41@MenelausIn|

; 201  :     ReadData(MENELAUS_VCORECTRL5_OFFSET, &pData); DEBUGMSG(SDCARD_ZONE_INFO, (L"VCORECTRL5 0x%02X \r\n", pData));

  00680	e28d2000	 add         r2, sp, #0
  00684	e3a01006	 mov         r1, #6
  00688	e59d0158	 ldr         r0, [sp, #0x158]
  0068c	eb000000	 bl          |?ReadData@CMenelaus@@AAAHEPAE@Z|
  00690	e59f3e60	 ldr         r3, [pc, #0xE60]
  00694	e5933440	 ldr         r3, [r3, #0x440]
  00698	e3130a01	 tst         r3, #1, 20
  0069c	0a000006	 beq         |$LN42@MenelausIn|
  006a0	e5dd3000	 ldrb        r3, [sp]
  006a4	e1a01003	 mov         r1, r3
  006a8	e59f0f1c	 ldr         r0, [pc, #0xF1C]
  006ac	eb000000	 bl          NKDbgPrintfW
  006b0	e3a03001	 mov         r3, #1
  006b4	e58d3078	 str         r3, [sp, #0x78]
  006b8	ea000001	 b           |$LN43@MenelausIn|
  006bc		 |$LN42@MenelausIn|
  006bc	e3a03000	 mov         r3, #0
  006c0	e58d3078	 str         r3, [sp, #0x78]
  006c4		 |$LN43@MenelausIn|

; 202  :     ReadData(MENELAUS_DCDCCTRL1_OFFSET, &pData); DEBUGMSG(SDCARD_ZONE_INFO, (L"DCDCCTRL1 0x%02X \r\n", pData));

  006c4	e28d2000	 add         r2, sp, #0
  006c8	e3a01007	 mov         r1, #7
  006cc	e59d0158	 ldr         r0, [sp, #0x158]
  006d0	eb000000	 bl          |?ReadData@CMenelaus@@AAAHEPAE@Z|
  006d4	e59f3e1c	 ldr         r3, [pc, #0xE1C]
  006d8	e5933440	 ldr         r3, [r3, #0x440]
  006dc	e3130a01	 tst         r3, #1, 20
  006e0	0a000006	 beq         |$LN44@MenelausIn|
  006e4	e5dd3000	 ldrb        r3, [sp]
  006e8	e1a01003	 mov         r1, r3
  006ec	e59f0ed4	 ldr         r0, [pc, #0xED4]
  006f0	eb000000	 bl          NKDbgPrintfW
  006f4	e3a03001	 mov         r3, #1
  006f8	e58d307c	 str         r3, [sp, #0x7C]
  006fc	ea000001	 b           |$LN45@MenelausIn|
  00700		 |$LN44@MenelausIn|
  00700	e3a03000	 mov         r3, #0
  00704	e58d307c	 str         r3, [sp, #0x7C]
  00708		 |$LN45@MenelausIn|

; 203  :     ReadData(MENELAUS_DCDCCTRL2_OFFSET, &pData); DEBUGMSG(SDCARD_ZONE_INFO, (L"DCDCCTRL2 0x%02X \r\n", pData));

  00708	e28d2000	 add         r2, sp, #0
  0070c	e3a01008	 mov         r1, #8
  00710	e59d0158	 ldr         r0, [sp, #0x158]
  00714	eb000000	 bl          |?ReadData@CMenelaus@@AAAHEPAE@Z|
  00718	e59f3dd8	 ldr         r3, [pc, #0xDD8]
  0071c	e5933440	 ldr         r3, [r3, #0x440]
  00720	e3130a01	 tst         r3, #1, 20
  00724	0a000006	 beq         |$LN46@MenelausIn|
  00728	e5dd3000	 ldrb        r3, [sp]
  0072c	e1a01003	 mov         r1, r3
  00730	e59f0e8c	 ldr         r0, [pc, #0xE8C]
  00734	eb000000	 bl          NKDbgPrintfW
  00738	e3a03001	 mov         r3, #1
  0073c	e58d3080	 str         r3, [sp, #0x80]
  00740	ea000001	 b           |$LN47@MenelausIn|
  00744		 |$LN46@MenelausIn|
  00744	e3a03000	 mov         r3, #0
  00748	e58d3080	 str         r3, [sp, #0x80]
  0074c		 |$LN47@MenelausIn|

; 204  :     ReadData(MENELAUS_DCDCCTRL3_OFFSET, &pData); DEBUGMSG(SDCARD_ZONE_INFO, (L"DCDCCTRL3 0x%02X \r\n", pData));

  0074c	e28d2000	 add         r2, sp, #0
  00750	e3a01009	 mov         r1, #9
  00754	e59d0158	 ldr         r0, [sp, #0x158]
  00758	eb000000	 bl          |?ReadData@CMenelaus@@AAAHEPAE@Z|
  0075c	e59f3d94	 ldr         r3, [pc, #0xD94]
  00760	e5933440	 ldr         r3, [r3, #0x440]
  00764	e3130a01	 tst         r3, #1, 20
  00768	0a000006	 beq         |$LN48@MenelausIn|
  0076c	e5dd3000	 ldrb        r3, [sp]
  00770	e1a01003	 mov         r1, r3
  00774	e59f0e44	 ldr         r0, [pc, #0xE44]
  00778	eb000000	 bl          NKDbgPrintfW
  0077c	e3a03001	 mov         r3, #1
  00780	e58d3084	 str         r3, [sp, #0x84]
  00784	ea000001	 b           |$LN49@MenelausIn|
  00788		 |$LN48@MenelausIn|
  00788	e3a03000	 mov         r3, #0
  0078c	e58d3084	 str         r3, [sp, #0x84]
  00790		 |$LN49@MenelausIn|

; 205  :     ReadData(MENELAUS_LD0CTRL1_OFFSET, &pData); DEBUGMSG(SDCARD_ZONE_INFO, (L"LD0CTRL1 0x%02X \r\n", pData));

  00790	e28d2000	 add         r2, sp, #0
  00794	e3a0100a	 mov         r1, #0xA
  00798	e59d0158	 ldr         r0, [sp, #0x158]
  0079c	eb000000	 bl          |?ReadData@CMenelaus@@AAAHEPAE@Z|
  007a0	e59f3d50	 ldr         r3, [pc, #0xD50]
  007a4	e5933440	 ldr         r3, [r3, #0x440]
  007a8	e3130a01	 tst         r3, #1, 20
  007ac	0a000006	 beq         |$LN50@MenelausIn|
  007b0	e5dd3000	 ldrb        r3, [sp]
  007b4	e1a01003	 mov         r1, r3
  007b8	e59f0dfc	 ldr         r0, [pc, #0xDFC]
  007bc	eb000000	 bl          NKDbgPrintfW
  007c0	e3a03001	 mov         r3, #1
  007c4	e58d3088	 str         r3, [sp, #0x88]
  007c8	ea000001	 b           |$LN51@MenelausIn|
  007cc		 |$LN50@MenelausIn|
  007cc	e3a03000	 mov         r3, #0
  007d0	e58d3088	 str         r3, [sp, #0x88]
  007d4		 |$LN51@MenelausIn|

; 206  :     ReadData(MENELAUS_LD0CTRL2_OFFSET, &pData); DEBUGMSG(SDCARD_ZONE_INFO, (L"LD0CTRL2 0x%02X \r\n", pData));

  007d4	e28d2000	 add         r2, sp, #0
  007d8	e3a0100b	 mov         r1, #0xB
  007dc	e59d0158	 ldr         r0, [sp, #0x158]
  007e0	eb000000	 bl          |?ReadData@CMenelaus@@AAAHEPAE@Z|
  007e4	e59f3d0c	 ldr         r3, [pc, #0xD0C]
  007e8	e5933440	 ldr         r3, [r3, #0x440]
  007ec	e3130a01	 tst         r3, #1, 20
  007f0	0a000006	 beq         |$LN52@MenelausIn|
  007f4	e5dd3000	 ldrb        r3, [sp]
  007f8	e1a01003	 mov         r1, r3
  007fc	e59f0db4	 ldr         r0, [pc, #0xDB4]
  00800	eb000000	 bl          NKDbgPrintfW
  00804	e3a03001	 mov         r3, #1
  00808	e58d308c	 str         r3, [sp, #0x8C]
  0080c	ea000001	 b           |$LN53@MenelausIn|
  00810		 |$LN52@MenelausIn|
  00810	e3a03000	 mov         r3, #0
  00814	e58d308c	 str         r3, [sp, #0x8C]
  00818		 |$LN53@MenelausIn|

; 207  :     ReadData(MENELAUS_LD0CTRL3_OFFSET, &pData); DEBUGMSG(SDCARD_ZONE_INFO, (L"LD0CTRL3 0x%02X \r\n", pData));

  00818	e28d2000	 add         r2, sp, #0
  0081c	e3a0100c	 mov         r1, #0xC
  00820	e59d0158	 ldr         r0, [sp, #0x158]
  00824	eb000000	 bl          |?ReadData@CMenelaus@@AAAHEPAE@Z|
  00828	e59f3cc8	 ldr         r3, [pc, #0xCC8]
  0082c	e5933440	 ldr         r3, [r3, #0x440]
  00830	e3130a01	 tst         r3, #1, 20
  00834	0a000006	 beq         |$LN54@MenelausIn|
  00838	e5dd3000	 ldrb        r3, [sp]
  0083c	e1a01003	 mov         r1, r3
  00840	e59f0d6c	 ldr         r0, [pc, #0xD6C]
  00844	eb000000	 bl          NKDbgPrintfW
  00848	e3a03001	 mov         r3, #1
  0084c	e58d3090	 str         r3, [sp, #0x90]
  00850	ea000001	 b           |$LN55@MenelausIn|
  00854		 |$LN54@MenelausIn|
  00854	e3a03000	 mov         r3, #0
  00858	e58d3090	 str         r3, [sp, #0x90]
  0085c		 |$LN55@MenelausIn|

; 208  :     ReadData(MENELAUS_LD0CTRL4_OFFSET, &pData); DEBUGMSG(SDCARD_ZONE_INFO, (L"LD0CTRL4 0x%02X \r\n", pData));

  0085c	e28d2000	 add         r2, sp, #0
  00860	e3a0100d	 mov         r1, #0xD
  00864	e59d0158	 ldr         r0, [sp, #0x158]
  00868	eb000000	 bl          |?ReadData@CMenelaus@@AAAHEPAE@Z|
  0086c	e59f3c84	 ldr         r3, [pc, #0xC84]
  00870	e5933440	 ldr         r3, [r3, #0x440]
  00874	e3130a01	 tst         r3, #1, 20
  00878	0a000006	 beq         |$LN56@MenelausIn|
  0087c	e5dd3000	 ldrb        r3, [sp]
  00880	e1a01003	 mov         r1, r3
  00884	e59f0d24	 ldr         r0, [pc, #0xD24]
  00888	eb000000	 bl          NKDbgPrintfW
  0088c	e3a03001	 mov         r3, #1
  00890	e58d3094	 str         r3, [sp, #0x94]
  00894	ea000001	 b           |$LN57@MenelausIn|
  00898		 |$LN56@MenelausIn|
  00898	e3a03000	 mov         r3, #0
  0089c	e58d3094	 str         r3, [sp, #0x94]
  008a0		 |$LN57@MenelausIn|

; 209  :     ReadData(MENELAUS_LD0CTRL5_OFFSET, &pData); DEBUGMSG(SDCARD_ZONE_INFO, (L"LD0CTRL5 0x%02X \r\n", pData));

  008a0	e28d2000	 add         r2, sp, #0
  008a4	e3a0100e	 mov         r1, #0xE
  008a8	e59d0158	 ldr         r0, [sp, #0x158]
  008ac	eb000000	 bl          |?ReadData@CMenelaus@@AAAHEPAE@Z|
  008b0	e59f3c40	 ldr         r3, [pc, #0xC40]
  008b4	e5933440	 ldr         r3, [r3, #0x440]
  008b8	e3130a01	 tst         r3, #1, 20
  008bc	0a000006	 beq         |$LN58@MenelausIn|
  008c0	e5dd3000	 ldrb        r3, [sp]
  008c4	e1a01003	 mov         r1, r3
  008c8	e59f0cdc	 ldr         r0, [pc, #0xCDC]
  008cc	eb000000	 bl          NKDbgPrintfW
  008d0	e3a03001	 mov         r3, #1
  008d4	e58d3098	 str         r3, [sp, #0x98]
  008d8	ea000001	 b           |$LN59@MenelausIn|
  008dc		 |$LN58@MenelausIn|
  008dc	e3a03000	 mov         r3, #0
  008e0	e58d3098	 str         r3, [sp, #0x98]
  008e4		 |$LN59@MenelausIn|

; 210  :     ReadData(MENELAUS_LD0CTRL6_OFFSET, &pData); DEBUGMSG(SDCARD_ZONE_INFO, (L"LD0CTRL6 0x%02X \r\n", pData));

  008e4	e28d2000	 add         r2, sp, #0
  008e8	e3a0100f	 mov         r1, #0xF
  008ec	e59d0158	 ldr         r0, [sp, #0x158]
  008f0	eb000000	 bl          |?ReadData@CMenelaus@@AAAHEPAE@Z|
  008f4	e59f3bfc	 ldr         r3, [pc, #0xBFC]
  008f8	e5933440	 ldr         r3, [r3, #0x440]
  008fc	e3130a01	 tst         r3, #1, 20
  00900	0a000006	 beq         |$LN60@MenelausIn|
  00904	e5dd3000	 ldrb        r3, [sp]
  00908	e1a01003	 mov         r1, r3
  0090c	e59f0c94	 ldr         r0, [pc, #0xC94]
  00910	eb000000	 bl          NKDbgPrintfW
  00914	e3a03001	 mov         r3, #1
  00918	e58d309c	 str         r3, [sp, #0x9C]
  0091c	ea000001	 b           |$LN61@MenelausIn|
  00920		 |$LN60@MenelausIn|
  00920	e3a03000	 mov         r3, #0
  00924	e58d309c	 str         r3, [sp, #0x9C]
  00928		 |$LN61@MenelausIn|

; 211  :     ReadData(MENELAUS_LD0CTRL7_OFFSET, &pData); DEBUGMSG(SDCARD_ZONE_INFO, (L"LD0CTRL7 0x%02X \r\n", pData));

  00928	e28d2000	 add         r2, sp, #0
  0092c	e3a01010	 mov         r1, #0x10
  00930	e59d0158	 ldr         r0, [sp, #0x158]
  00934	eb000000	 bl          |?ReadData@CMenelaus@@AAAHEPAE@Z|
  00938	e59f3bb8	 ldr         r3, [pc, #0xBB8]
  0093c	e5933440	 ldr         r3, [r3, #0x440]
  00940	e3130a01	 tst         r3, #1, 20
  00944	0a000006	 beq         |$LN62@MenelausIn|
  00948	e5dd3000	 ldrb        r3, [sp]
  0094c	e1a01003	 mov         r1, r3
  00950	e59f0c4c	 ldr         r0, [pc, #0xC4C]
  00954	eb000000	 bl          NKDbgPrintfW
  00958	e3a03001	 mov         r3, #1
  0095c	e58d30a0	 str         r3, [sp, #0xA0]
  00960	ea000001	 b           |$LN63@MenelausIn|
  00964		 |$LN62@MenelausIn|
  00964	e3a03000	 mov         r3, #0
  00968	e58d30a0	 str         r3, [sp, #0xA0]
  0096c		 |$LN63@MenelausIn|

; 212  :     ReadData(MENELAUS_LD0CTRL8_OFFSET, &pData); DEBUGMSG(SDCARD_ZONE_INFO, (L"LD0CTRL8 0x%02X \r\n", pData));

  0096c	e28d2000	 add         r2, sp, #0
  00970	e3a01011	 mov         r1, #0x11
  00974	e59d0158	 ldr         r0, [sp, #0x158]
  00978	eb000000	 bl          |?ReadData@CMenelaus@@AAAHEPAE@Z|
  0097c	e59f3b74	 ldr         r3, [pc, #0xB74]
  00980	e5933440	 ldr         r3, [r3, #0x440]
  00984	e3130a01	 tst         r3, #1, 20
  00988	0a000006	 beq         |$LN64@MenelausIn|
  0098c	e5dd3000	 ldrb        r3, [sp]
  00990	e1a01003	 mov         r1, r3
  00994	e59f0c04	 ldr         r0, [pc, #0xC04]
  00998	eb000000	 bl          NKDbgPrintfW
  0099c	e3a03001	 mov         r3, #1
  009a0	e58d30a4	 str         r3, [sp, #0xA4]
  009a4	ea000001	 b           |$LN65@MenelausIn|
  009a8		 |$LN64@MenelausIn|
  009a8	e3a03000	 mov         r3, #0
  009ac	e58d30a4	 str         r3, [sp, #0xA4]
  009b0		 |$LN65@MenelausIn|

; 213  :     ReadData(MENELAUS_SLEEPCTRL1_OFFSET, &pData); DEBUGMSG(SDCARD_ZONE_INFO, (L"SLEEPCTRL1 0x%02X \r\n", pData));

  009b0	e28d2000	 add         r2, sp, #0
  009b4	e3a01012	 mov         r1, #0x12
  009b8	e59d0158	 ldr         r0, [sp, #0x158]
  009bc	eb000000	 bl          |?ReadData@CMenelaus@@AAAHEPAE@Z|
  009c0	e59f3b30	 ldr         r3, [pc, #0xB30]
  009c4	e5933440	 ldr         r3, [r3, #0x440]
  009c8	e3130a01	 tst         r3, #1, 20
  009cc	0a000006	 beq         |$LN66@MenelausIn|
  009d0	e5dd3000	 ldrb        r3, [sp]
  009d4	e1a01003	 mov         r1, r3
  009d8	e59f0bbc	 ldr         r0, [pc, #0xBBC]
  009dc	eb000000	 bl          NKDbgPrintfW
  009e0	e3a03001	 mov         r3, #1
  009e4	e58d30a8	 str         r3, [sp, #0xA8]
  009e8	ea000001	 b           |$LN67@MenelausIn|
  009ec		 |$LN66@MenelausIn|
  009ec	e3a03000	 mov         r3, #0
  009f0	e58d30a8	 str         r3, [sp, #0xA8]
  009f4		 |$LN67@MenelausIn|

; 214  :     ReadData(MENELAUS_SLEEPCTRL2_OFFSET, &pData); DEBUGMSG(SDCARD_ZONE_INFO, (L"SLEEPCTRL2 0x%02X \r\n", pData));

  009f4	e28d2000	 add         r2, sp, #0
  009f8	e3a01013	 mov         r1, #0x13
  009fc	e59d0158	 ldr         r0, [sp, #0x158]
  00a00	eb000000	 bl          |?ReadData@CMenelaus@@AAAHEPAE@Z|
  00a04	e59f3aec	 ldr         r3, [pc, #0xAEC]
  00a08	e5933440	 ldr         r3, [r3, #0x440]
  00a0c	e3130a01	 tst         r3, #1, 20
  00a10	0a000006	 beq         |$LN68@MenelausIn|
  00a14	e5dd3000	 ldrb        r3, [sp]
  00a18	e1a01003	 mov         r1, r3
  00a1c	e59f0b74	 ldr         r0, [pc, #0xB74]
  00a20	eb000000	 bl          NKDbgPrintfW
  00a24	e3a03001	 mov         r3, #1
  00a28	e58d30ac	 str         r3, [sp, #0xAC]
  00a2c	ea000001	 b           |$LN69@MenelausIn|
  00a30		 |$LN68@MenelausIn|
  00a30	e3a03000	 mov         r3, #0
  00a34	e58d30ac	 str         r3, [sp, #0xAC]
  00a38		 |$LN69@MenelausIn|

; 215  :     ReadData(MENELAUS_DEVICEOFF_OFFSET, &pData); DEBUGMSG(SDCARD_ZONE_INFO, (L"DEVICEOFF 0x%02X \r\n", pData));

  00a38	e28d2000	 add         r2, sp, #0
  00a3c	e3a01014	 mov         r1, #0x14
  00a40	e59d0158	 ldr         r0, [sp, #0x158]
  00a44	eb000000	 bl          |?ReadData@CMenelaus@@AAAHEPAE@Z|
  00a48	e59f3aa8	 ldr         r3, [pc, #0xAA8]
  00a4c	e5933440	 ldr         r3, [r3, #0x440]
  00a50	e3130a01	 tst         r3, #1, 20
  00a54	0a000006	 beq         |$LN70@MenelausIn|
  00a58	e5dd3000	 ldrb        r3, [sp]
  00a5c	e1a01003	 mov         r1, r3
  00a60	e59f0b2c	 ldr         r0, [pc, #0xB2C]
  00a64	eb000000	 bl          NKDbgPrintfW
  00a68	e3a03001	 mov         r3, #1
  00a6c	e58d30b0	 str         r3, [sp, #0xB0]
  00a70	ea000001	 b           |$LN71@MenelausIn|
  00a74		 |$LN70@MenelausIn|
  00a74	e3a03000	 mov         r3, #0
  00a78	e58d30b0	 str         r3, [sp, #0xB0]
  00a7c		 |$LN71@MenelausIn|

; 216  :     ReadData(MENELAUS_OSCCTRL_OFFSET, &pData); DEBUGMSG(SDCARD_ZONE_INFO, (L"OSCCTRL 0x%02X \r\n", pData));

  00a7c	e28d2000	 add         r2, sp, #0
  00a80	e3a01015	 mov         r1, #0x15
  00a84	e59d0158	 ldr         r0, [sp, #0x158]
  00a88	eb000000	 bl          |?ReadData@CMenelaus@@AAAHEPAE@Z|
  00a8c	e59f3a64	 ldr         r3, [pc, #0xA64]
  00a90	e5933440	 ldr         r3, [r3, #0x440]
  00a94	e3130a01	 tst         r3, #1, 20
  00a98	0a000006	 beq         |$LN72@MenelausIn|
  00a9c	e5dd3000	 ldrb        r3, [sp]
  00aa0	e1a01003	 mov         r1, r3
  00aa4	e59f0ae4	 ldr         r0, [pc, #0xAE4]
  00aa8	eb000000	 bl          NKDbgPrintfW
  00aac	e3a03001	 mov         r3, #1
  00ab0	e58d30b4	 str         r3, [sp, #0xB4]
  00ab4	ea000001	 b           |$LN73@MenelausIn|
  00ab8		 |$LN72@MenelausIn|
  00ab8	e3a03000	 mov         r3, #0
  00abc	e58d30b4	 str         r3, [sp, #0xB4]
  00ac0		 |$LN73@MenelausIn|

; 217  :     ReadData(MENELAUS_DETECTCTRL_OFFSET, &pData); DEBUGMSG(SDCARD_ZONE_INFO, (L"DETECTCTRL 0x%02X \r\n", pData));

  00ac0	e28d2000	 add         r2, sp, #0
  00ac4	e3a01016	 mov         r1, #0x16
  00ac8	e59d0158	 ldr         r0, [sp, #0x158]
  00acc	eb000000	 bl          |?ReadData@CMenelaus@@AAAHEPAE@Z|
  00ad0	e59f3a20	 ldr         r3, [pc, #0xA20]
  00ad4	e5933440	 ldr         r3, [r3, #0x440]
  00ad8	e3130a01	 tst         r3, #1, 20
  00adc	0a000006	 beq         |$LN74@MenelausIn|
  00ae0	e5dd3000	 ldrb        r3, [sp]
  00ae4	e1a01003	 mov         r1, r3
  00ae8	e59f0a9c	 ldr         r0, [pc, #0xA9C]
  00aec	eb000000	 bl          NKDbgPrintfW
  00af0	e3a03001	 mov         r3, #1
  00af4	e58d30b8	 str         r3, [sp, #0xB8]
  00af8	ea000001	 b           |$LN75@MenelausIn|
  00afc		 |$LN74@MenelausIn|
  00afc	e3a03000	 mov         r3, #0
  00b00	e58d30b8	 str         r3, [sp, #0xB8]
  00b04		 |$LN75@MenelausIn|

; 218  :     ReadData(MENELAUS_INTMASK1_OFFSET, &pData); DEBUGMSG(SDCARD_ZONE_INFO, (L"INTMASK1 0x%02X \r\n", pData));

  00b04	e28d2000	 add         r2, sp, #0
  00b08	e3a01017	 mov         r1, #0x17
  00b0c	e59d0158	 ldr         r0, [sp, #0x158]
  00b10	eb000000	 bl          |?ReadData@CMenelaus@@AAAHEPAE@Z|
  00b14	e59f39dc	 ldr         r3, [pc, #0x9DC]
  00b18	e5933440	 ldr         r3, [r3, #0x440]
  00b1c	e3130a01	 tst         r3, #1, 20
  00b20	0a000006	 beq         |$LN76@MenelausIn|
  00b24	e5dd3000	 ldrb        r3, [sp]
  00b28	e1a01003	 mov         r1, r3
  00b2c	e59f0a54	 ldr         r0, [pc, #0xA54]
  00b30	eb000000	 bl          NKDbgPrintfW
  00b34	e3a03001	 mov         r3, #1
  00b38	e58d30bc	 str         r3, [sp, #0xBC]
  00b3c	ea000001	 b           |$LN77@MenelausIn|
  00b40		 |$LN76@MenelausIn|
  00b40	e3a03000	 mov         r3, #0
  00b44	e58d30bc	 str         r3, [sp, #0xBC]
  00b48		 |$LN77@MenelausIn|

; 219  :     ReadData(MENELAUS_INTMASK2_OFFSET, &pData); DEBUGMSG(SDCARD_ZONE_INFO, (L"INTMASK2 0x%02X \r\n", pData));

  00b48	e28d2000	 add         r2, sp, #0
  00b4c	e3a01018	 mov         r1, #0x18
  00b50	e59d0158	 ldr         r0, [sp, #0x158]
  00b54	eb000000	 bl          |?ReadData@CMenelaus@@AAAHEPAE@Z|
  00b58	e59f3998	 ldr         r3, [pc, #0x998]
  00b5c	e5933440	 ldr         r3, [r3, #0x440]
  00b60	e3130a01	 tst         r3, #1, 20
  00b64	0a000006	 beq         |$LN78@MenelausIn|
  00b68	e5dd3000	 ldrb        r3, [sp]
  00b6c	e1a01003	 mov         r1, r3
  00b70	e59f0a0c	 ldr         r0, [pc, #0xA0C]
  00b74	eb000000	 bl          NKDbgPrintfW
  00b78	e3a03001	 mov         r3, #1
  00b7c	e58d30c0	 str         r3, [sp, #0xC0]
  00b80	ea000001	 b           |$LN79@MenelausIn|
  00b84		 |$LN78@MenelausIn|
  00b84	e3a03000	 mov         r3, #0
  00b88	e58d30c0	 str         r3, [sp, #0xC0]
  00b8c		 |$LN79@MenelausIn|

; 220  :     ReadData(MENELAUS_INTSTATUS1_OFFSET, &pData); DEBUGMSG(SDCARD_ZONE_INFO, (L"INTSTATUS1 0x%02X \r\n", pData));

  00b8c	e28d2000	 add         r2, sp, #0
  00b90	e3a01019	 mov         r1, #0x19
  00b94	e59d0158	 ldr         r0, [sp, #0x158]
  00b98	eb000000	 bl          |?ReadData@CMenelaus@@AAAHEPAE@Z|
  00b9c	e59f3954	 ldr         r3, [pc, #0x954]
  00ba0	e5933440	 ldr         r3, [r3, #0x440]
  00ba4	e3130a01	 tst         r3, #1, 20
  00ba8	0a000006	 beq         |$LN80@MenelausIn|
  00bac	e5dd3000	 ldrb        r3, [sp]
  00bb0	e1a01003	 mov         r1, r3
  00bb4	e59f09c4	 ldr         r0, [pc, #0x9C4]
  00bb8	eb000000	 bl          NKDbgPrintfW
  00bbc	e3a03001	 mov         r3, #1
  00bc0	e58d30c4	 str         r3, [sp, #0xC4]
  00bc4	ea000001	 b           |$LN81@MenelausIn|
  00bc8		 |$LN80@MenelausIn|
  00bc8	e3a03000	 mov         r3, #0
  00bcc	e58d30c4	 str         r3, [sp, #0xC4]
  00bd0		 |$LN81@MenelausIn|

; 221  :     ReadData(MENELAUS_INTSTATUS2_OFFSET, &pData); DEBUGMSG(SDCARD_ZONE_INFO, (L"INTSTATUS2 0x%02X \r\n", pData));

  00bd0	e28d2000	 add         r2, sp, #0
  00bd4	e3a0101a	 mov         r1, #0x1A
  00bd8	e59d0158	 ldr         r0, [sp, #0x158]
  00bdc	eb000000	 bl          |?ReadData@CMenelaus@@AAAHEPAE@Z|
  00be0	e59f3910	 ldr         r3, [pc, #0x910]
  00be4	e5933440	 ldr         r3, [r3, #0x440]
  00be8	e3130a01	 tst         r3, #1, 20
  00bec	0a000006	 beq         |$LN82@MenelausIn|
  00bf0	e5dd3000	 ldrb        r3, [sp]
  00bf4	e1a01003	 mov         r1, r3
  00bf8	e59f097c	 ldr         r0, [pc, #0x97C]
  00bfc	eb000000	 bl          NKDbgPrintfW
  00c00	e3a03001	 mov         r3, #1
  00c04	e58d30c8	 str         r3, [sp, #0xC8]
  00c08	ea000001	 b           |$LN83@MenelausIn|
  00c0c		 |$LN82@MenelausIn|
  00c0c	e3a03000	 mov         r3, #0
  00c10	e58d30c8	 str         r3, [sp, #0xC8]
  00c14		 |$LN83@MenelausIn|

; 222  :     ReadData(MENELAUS_INTACK1_OFFSET, &pData); DEBUGMSG(SDCARD_ZONE_INFO, (L"INTACK1 0x%02X \r\n", pData));

  00c14	e28d2000	 add         r2, sp, #0
  00c18	e3a0101b	 mov         r1, #0x1B
  00c1c	e59d0158	 ldr         r0, [sp, #0x158]
  00c20	eb000000	 bl          |?ReadData@CMenelaus@@AAAHEPAE@Z|
  00c24	e59f38cc	 ldr         r3, [pc, #0x8CC]
  00c28	e5933440	 ldr         r3, [r3, #0x440]
  00c2c	e3130a01	 tst         r3, #1, 20
  00c30	0a000006	 beq         |$LN84@MenelausIn|
  00c34	e5dd3000	 ldrb        r3, [sp]
  00c38	e1a01003	 mov         r1, r3
  00c3c	e59f0934	 ldr         r0, [pc, #0x934]
  00c40	eb000000	 bl          NKDbgPrintfW
  00c44	e3a03001	 mov         r3, #1
  00c48	e58d30cc	 str         r3, [sp, #0xCC]
  00c4c	ea000001	 b           |$LN85@MenelausIn|
  00c50		 |$LN84@MenelausIn|
  00c50	e3a03000	 mov         r3, #0
  00c54	e58d30cc	 str         r3, [sp, #0xCC]
  00c58		 |$LN85@MenelausIn|

; 223  :     ReadData(MENELAUS_INTACK2_OFFSET, &pData); DEBUGMSG(SDCARD_ZONE_INFO, (L"INTACK2 0x%02X \r\n", pData));

  00c58	e28d2000	 add         r2, sp, #0
  00c5c	e3a0101c	 mov         r1, #0x1C
  00c60	e59d0158	 ldr         r0, [sp, #0x158]
  00c64	eb000000	 bl          |?ReadData@CMenelaus@@AAAHEPAE@Z|
  00c68	e59f3888	 ldr         r3, [pc, #0x888]
  00c6c	e5933440	 ldr         r3, [r3, #0x440]
  00c70	e3130a01	 tst         r3, #1, 20
  00c74	0a000006	 beq         |$LN86@MenelausIn|
  00c78	e5dd3000	 ldrb        r3, [sp]
  00c7c	e1a01003	 mov         r1, r3
  00c80	e59f08ec	 ldr         r0, [pc, #0x8EC]
  00c84	eb000000	 bl          NKDbgPrintfW
  00c88	e3a03001	 mov         r3, #1
  00c8c	e58d30d0	 str         r3, [sp, #0xD0]
  00c90	ea000001	 b           |$LN87@MenelausIn|
  00c94		 |$LN86@MenelausIn|
  00c94	e3a03000	 mov         r3, #0
  00c98	e58d30d0	 str         r3, [sp, #0xD0]
  00c9c		 |$LN87@MenelausIn|

; 224  :     ReadData(MENELAUS_GPIOCTRL_OFFSET, &pData); DEBUGMSG(SDCARD_ZONE_INFO, (L"GPIOCTRL 0x%02X \r\n", pData));

  00c9c	e28d2000	 add         r2, sp, #0
  00ca0	e3a0101d	 mov         r1, #0x1D
  00ca4	e59d0158	 ldr         r0, [sp, #0x158]
  00ca8	eb000000	 bl          |?ReadData@CMenelaus@@AAAHEPAE@Z|
  00cac	e59f3844	 ldr         r3, [pc, #0x844]
  00cb0	e5933440	 ldr         r3, [r3, #0x440]
  00cb4	e3130a01	 tst         r3, #1, 20
  00cb8	0a000006	 beq         |$LN88@MenelausIn|
  00cbc	e5dd3000	 ldrb        r3, [sp]
  00cc0	e1a01003	 mov         r1, r3
  00cc4	e59f08a4	 ldr         r0, [pc, #0x8A4]
  00cc8	eb000000	 bl          NKDbgPrintfW
  00ccc	e3a03001	 mov         r3, #1
  00cd0	e58d30d4	 str         r3, [sp, #0xD4]
  00cd4	ea000001	 b           |$LN89@MenelausIn|
  00cd8		 |$LN88@MenelausIn|
  00cd8	e3a03000	 mov         r3, #0
  00cdc	e58d30d4	 str         r3, [sp, #0xD4]
  00ce0		 |$LN89@MenelausIn|

; 225  :     ReadData(MENELAUS_GPIOIN_OFFSET, &pData); DEBUGMSG(SDCARD_ZONE_INFO, (L"GPIOIN 0x%02X \r\n", pData));

  00ce0	e28d2000	 add         r2, sp, #0
  00ce4	e3a0101e	 mov         r1, #0x1E
  00ce8	e59d0158	 ldr         r0, [sp, #0x158]
  00cec	eb000000	 bl          |?ReadData@CMenelaus@@AAAHEPAE@Z|
  00cf0	e59f3800	 ldr         r3, [pc, #0x800]
  00cf4	e5933440	 ldr         r3, [r3, #0x440]
  00cf8	e3130a01	 tst         r3, #1, 20
  00cfc	0a000006	 beq         |$LN90@MenelausIn|
  00d00	e5dd3000	 ldrb        r3, [sp]
  00d04	e1a01003	 mov         r1, r3
  00d08	e59f085c	 ldr         r0, [pc, #0x85C]
  00d0c	eb000000	 bl          NKDbgPrintfW
  00d10	e3a03001	 mov         r3, #1
  00d14	e58d30d8	 str         r3, [sp, #0xD8]
  00d18	ea000001	 b           |$LN91@MenelausIn|
  00d1c		 |$LN90@MenelausIn|
  00d1c	e3a03000	 mov         r3, #0
  00d20	e58d30d8	 str         r3, [sp, #0xD8]
  00d24		 |$LN91@MenelausIn|

; 226  :     ReadData(MENELAUS_GPIOOUT_OFFSET, &pData); DEBUGMSG(SDCARD_ZONE_INFO, (L"GPIOOUT1 0x%02X \r\n", pData));

  00d24	e28d2000	 add         r2, sp, #0
  00d28	e3a0101f	 mov         r1, #0x1F
  00d2c	e59d0158	 ldr         r0, [sp, #0x158]
  00d30	eb000000	 bl          |?ReadData@CMenelaus@@AAAHEPAE@Z|
  00d34	e59f37bc	 ldr         r3, [pc, #0x7BC]
  00d38	e5933440	 ldr         r3, [r3, #0x440]
  00d3c	e3130a01	 tst         r3, #1, 20
  00d40	0a000006	 beq         |$LN92@MenelausIn|
  00d44	e5dd3000	 ldrb        r3, [sp]
  00d48	e1a01003	 mov         r1, r3
  00d4c	e59f0814	 ldr         r0, [pc, #0x814]
  00d50	eb000000	 bl          NKDbgPrintfW
  00d54	e3a03001	 mov         r3, #1
  00d58	e58d30dc	 str         r3, [sp, #0xDC]
  00d5c	ea000001	 b           |$LN93@MenelausIn|
  00d60		 |$LN92@MenelausIn|
  00d60	e3a03000	 mov         r3, #0
  00d64	e58d30dc	 str         r3, [sp, #0xDC]
  00d68		 |$LN93@MenelausIn|

; 227  :     ReadData(MENELAUS_BBSMS_OFFSET, &pData); DEBUGMSG(SDCARD_ZONE_INFO, (L"BBSMS 0x%02X \r\n", pData));

  00d68	e28d2000	 add         r2, sp, #0
  00d6c	e3a01020	 mov         r1, #0x20
  00d70	e59d0158	 ldr         r0, [sp, #0x158]
  00d74	eb000000	 bl          |?ReadData@CMenelaus@@AAAHEPAE@Z|
  00d78	e59f3778	 ldr         r3, [pc, #0x778]
  00d7c	e5933440	 ldr         r3, [r3, #0x440]
  00d80	e3130a01	 tst         r3, #1, 20
  00d84	0a000006	 beq         |$LN94@MenelausIn|
  00d88	e5dd3000	 ldrb        r3, [sp]
  00d8c	e1a01003	 mov         r1, r3
  00d90	e59f07cc	 ldr         r0, [pc, #0x7CC]
  00d94	eb000000	 bl          NKDbgPrintfW
  00d98	e3a03001	 mov         r3, #1
  00d9c	e58d30e0	 str         r3, [sp, #0xE0]
  00da0	ea000001	 b           |$LN95@MenelausIn|
  00da4		 |$LN94@MenelausIn|
  00da4	e3a03000	 mov         r3, #0
  00da8	e58d30e0	 str         r3, [sp, #0xE0]
  00dac		 |$LN95@MenelausIn|

; 228  :     ReadData(MENELAUS_RTCCTRL_OFFSET, &pData); DEBUGMSG(SDCARD_ZONE_INFO, (L"RTCCTRL 0x%02X \r\n", pData));

  00dac	e28d2000	 add         r2, sp, #0
  00db0	e3a01021	 mov         r1, #0x21
  00db4	e59d0158	 ldr         r0, [sp, #0x158]
  00db8	eb000000	 bl          |?ReadData@CMenelaus@@AAAHEPAE@Z|
  00dbc	e59f3734	 ldr         r3, [pc, #0x734]
  00dc0	e5933440	 ldr         r3, [r3, #0x440]
  00dc4	e3130a01	 tst         r3, #1, 20
  00dc8	0a000006	 beq         |$LN96@MenelausIn|
  00dcc	e5dd3000	 ldrb        r3, [sp]
  00dd0	e1a01003	 mov         r1, r3
  00dd4	e59f0784	 ldr         r0, [pc, #0x784]
  00dd8	eb000000	 bl          NKDbgPrintfW
  00ddc	e3a03001	 mov         r3, #1
  00de0	e58d30e4	 str         r3, [sp, #0xE4]
  00de4	ea000001	 b           |$LN97@MenelausIn|
  00de8		 |$LN96@MenelausIn|
  00de8	e3a03000	 mov         r3, #0
  00dec	e58d30e4	 str         r3, [sp, #0xE4]
  00df0		 |$LN97@MenelausIn|

; 229  :     ReadData(MENELAUS_RTCUPDATE_OFFSET, &pData); DEBUGMSG(SDCARD_ZONE_INFO, (L"RTCUPDATE 0x%02X \r\n", pData));

  00df0	e28d2000	 add         r2, sp, #0
  00df4	e3a01022	 mov         r1, #0x22
  00df8	e59d0158	 ldr         r0, [sp, #0x158]
  00dfc	eb000000	 bl          |?ReadData@CMenelaus@@AAAHEPAE@Z|
  00e00	e59f36f0	 ldr         r3, [pc, #0x6F0]
  00e04	e5933440	 ldr         r3, [r3, #0x440]
  00e08	e3130a01	 tst         r3, #1, 20
  00e0c	0a000006	 beq         |$LN98@MenelausIn|
  00e10	e5dd3000	 ldrb        r3, [sp]
  00e14	e1a01003	 mov         r1, r3
  00e18	e59f073c	 ldr         r0, [pc, #0x73C]
  00e1c	eb000000	 bl          NKDbgPrintfW
  00e20	e3a03001	 mov         r3, #1
  00e24	e58d30e8	 str         r3, [sp, #0xE8]
  00e28	ea000001	 b           |$LN99@MenelausIn|
  00e2c		 |$LN98@MenelausIn|
  00e2c	e3a03000	 mov         r3, #0
  00e30	e58d30e8	 str         r3, [sp, #0xE8]
  00e34		 |$LN99@MenelausIn|

; 230  :     ReadData(MENELAUS_RTCSEC_OFFSET, &pData); DEBUGMSG(SDCARD_ZONE_INFO, (L"RTCSEC 0x%02X \r\n", pData));

  00e34	e28d2000	 add         r2, sp, #0
  00e38	e3a01023	 mov         r1, #0x23
  00e3c	e59d0158	 ldr         r0, [sp, #0x158]
  00e40	eb000000	 bl          |?ReadData@CMenelaus@@AAAHEPAE@Z|
  00e44	e59f36ac	 ldr         r3, [pc, #0x6AC]
  00e48	e5933440	 ldr         r3, [r3, #0x440]
  00e4c	e3130a01	 tst         r3, #1, 20
  00e50	0a000006	 beq         |$LN100@MenelausIn|
  00e54	e5dd3000	 ldrb        r3, [sp]
  00e58	e1a01003	 mov         r1, r3
  00e5c	e59f06f4	 ldr         r0, [pc, #0x6F4]
  00e60	eb000000	 bl          NKDbgPrintfW
  00e64	e3a03001	 mov         r3, #1
  00e68	e58d30ec	 str         r3, [sp, #0xEC]
  00e6c	ea000001	 b           |$LN101@MenelausIn|
  00e70		 |$LN100@MenelausIn|
  00e70	e3a03000	 mov         r3, #0
  00e74	e58d30ec	 str         r3, [sp, #0xEC]
  00e78		 |$LN101@MenelausIn|

; 231  :     ReadData(MENELAUS_RTCMIN_OFFSET, &pData); DEBUGMSG(SDCARD_ZONE_INFO, (L"RTCMIN 0x%02X \r\n", pData));

  00e78	e28d2000	 add         r2, sp, #0
  00e7c	e3a01024	 mov         r1, #0x24
  00e80	e59d0158	 ldr         r0, [sp, #0x158]
  00e84	eb000000	 bl          |?ReadData@CMenelaus@@AAAHEPAE@Z|
  00e88	e59f3668	 ldr         r3, [pc, #0x668]
  00e8c	e5933440	 ldr         r3, [r3, #0x440]
  00e90	e3130a01	 tst         r3, #1, 20
  00e94	0a000006	 beq         |$LN102@MenelausIn|
  00e98	e5dd3000	 ldrb        r3, [sp]
  00e9c	e1a01003	 mov         r1, r3
  00ea0	e59f06ac	 ldr         r0, [pc, #0x6AC]
  00ea4	eb000000	 bl          NKDbgPrintfW
  00ea8	e3a03001	 mov         r3, #1
  00eac	e58d30f0	 str         r3, [sp, #0xF0]
  00eb0	ea000001	 b           |$LN103@MenelausIn|
  00eb4		 |$LN102@MenelausIn|
  00eb4	e3a03000	 mov         r3, #0
  00eb8	e58d30f0	 str         r3, [sp, #0xF0]
  00ebc		 |$LN103@MenelausIn|

; 232  :     ReadData(MENELAUS_RTCHR_OFFSET, &pData); DEBUGMSG(SDCARD_ZONE_INFO, (L"RTCHR 0x%02X \r\n", pData));

  00ebc	e28d2000	 add         r2, sp, #0
  00ec0	e3a01025	 mov         r1, #0x25
  00ec4	e59d0158	 ldr         r0, [sp, #0x158]
  00ec8	eb000000	 bl          |?ReadData@CMenelaus@@AAAHEPAE@Z|
  00ecc	e59f3624	 ldr         r3, [pc, #0x624]
  00ed0	e5933440	 ldr         r3, [r3, #0x440]
  00ed4	e3130a01	 tst         r3, #1, 20
  00ed8	0a000006	 beq         |$LN104@MenelausIn|
  00edc	e5dd3000	 ldrb        r3, [sp]
  00ee0	e1a01003	 mov         r1, r3
  00ee4	e59f0664	 ldr         r0, [pc, #0x664]
  00ee8	eb000000	 bl          NKDbgPrintfW
  00eec	e3a03001	 mov         r3, #1
  00ef0	e58d30f4	 str         r3, [sp, #0xF4]
  00ef4	ea000001	 b           |$LN105@MenelausIn|
  00ef8		 |$LN104@MenelausIn|
  00ef8	e3a03000	 mov         r3, #0
  00efc	e58d30f4	 str         r3, [sp, #0xF4]
  00f00		 |$LN105@MenelausIn|

; 233  :     ReadData(MENELAUS_RTCDAY_OFFSET, &pData); DEBUGMSG(SDCARD_ZONE_INFO, (L"RTCDAY 0x%02X \r\n", pData));

  00f00	e28d2000	 add         r2, sp, #0
  00f04	e3a01026	 mov         r1, #0x26
  00f08	e59d0158	 ldr         r0, [sp, #0x158]
  00f0c	eb000000	 bl          |?ReadData@CMenelaus@@AAAHEPAE@Z|
  00f10	e59f35e0	 ldr         r3, [pc, #0x5E0]
  00f14	e5933440	 ldr         r3, [r3, #0x440]
  00f18	e3130a01	 tst         r3, #1, 20
  00f1c	0a000006	 beq         |$LN106@MenelausIn|
  00f20	e5dd3000	 ldrb        r3, [sp]
  00f24	e1a01003	 mov         r1, r3
  00f28	e59f061c	 ldr         r0, [pc, #0x61C]
  00f2c	eb000000	 bl          NKDbgPrintfW
  00f30	e3a03001	 mov         r3, #1
  00f34	e58d30f8	 str         r3, [sp, #0xF8]
  00f38	ea000001	 b           |$LN107@MenelausIn|
  00f3c		 |$LN106@MenelausIn|
  00f3c	e3a03000	 mov         r3, #0
  00f40	e58d30f8	 str         r3, [sp, #0xF8]
  00f44		 |$LN107@MenelausIn|

; 234  :     ReadData(MENELAUS_RTCMON_OFFSET, &pData); DEBUGMSG(SDCARD_ZONE_INFO, (L"RTCMON 0x%02X \r\n", pData));

  00f44	e28d2000	 add         r2, sp, #0
  00f48	e3a01027	 mov         r1, #0x27
  00f4c	e59d0158	 ldr         r0, [sp, #0x158]
  00f50	eb000000	 bl          |?ReadData@CMenelaus@@AAAHEPAE@Z|
  00f54	e59f359c	 ldr         r3, [pc, #0x59C]
  00f58	e5933440	 ldr         r3, [r3, #0x440]
  00f5c	e3130a01	 tst         r3, #1, 20
  00f60	0a000006	 beq         |$LN108@MenelausIn|
  00f64	e5dd3000	 ldrb        r3, [sp]
  00f68	e1a01003	 mov         r1, r3
  00f6c	e59f05d4	 ldr         r0, [pc, #0x5D4]
  00f70	eb000000	 bl          NKDbgPrintfW
  00f74	e3a03001	 mov         r3, #1
  00f78	e58d30fc	 str         r3, [sp, #0xFC]
  00f7c	ea000001	 b           |$LN109@MenelausIn|
  00f80		 |$LN108@MenelausIn|
  00f80	e3a03000	 mov         r3, #0
  00f84	e58d30fc	 str         r3, [sp, #0xFC]
  00f88		 |$LN109@MenelausIn|

; 235  :     ReadData(MENELAUS_RTCYR_OFFSET, &pData); DEBUGMSG(SDCARD_ZONE_INFO, (L"RTCYR 0x%02X \r\n", pData));

  00f88	e28d2000	 add         r2, sp, #0
  00f8c	e3a01028	 mov         r1, #0x28
  00f90	e59d0158	 ldr         r0, [sp, #0x158]
  00f94	eb000000	 bl          |?ReadData@CMenelaus@@AAAHEPAE@Z|
  00f98	e59f3558	 ldr         r3, [pc, #0x558]
  00f9c	e5933440	 ldr         r3, [r3, #0x440]
  00fa0	e3130a01	 tst         r3, #1, 20
  00fa4	0a000006	 beq         |$LN110@MenelausIn|
  00fa8	e5dd3000	 ldrb        r3, [sp]
  00fac	e1a01003	 mov         r1, r3
  00fb0	e59f058c	 ldr         r0, [pc, #0x58C]
  00fb4	eb000000	 bl          NKDbgPrintfW
  00fb8	e3a03001	 mov         r3, #1
  00fbc	e58d3100	 str         r3, [sp, #0x100]
  00fc0	ea000001	 b           |$LN111@MenelausIn|
  00fc4		 |$LN110@MenelausIn|
  00fc4	e3a03000	 mov         r3, #0
  00fc8	e58d3100	 str         r3, [sp, #0x100]
  00fcc		 |$LN111@MenelausIn|

; 236  :     ReadData(MENELAUS_RTCWKDAY_OFFSET, &pData); DEBUGMSG(SDCARD_ZONE_INFO, (L"RTCWKDAY 0x%02X \r\n", pData));

  00fcc	e28d2000	 add         r2, sp, #0
  00fd0	e3a01029	 mov         r1, #0x29
  00fd4	e59d0158	 ldr         r0, [sp, #0x158]
  00fd8	eb000000	 bl          |?ReadData@CMenelaus@@AAAHEPAE@Z|
  00fdc	e59f3514	 ldr         r3, [pc, #0x514]
  00fe0	e5933440	 ldr         r3, [r3, #0x440]
  00fe4	e3130a01	 tst         r3, #1, 20
  00fe8	0a000006	 beq         |$LN112@MenelausIn|
  00fec	e5dd3000	 ldrb        r3, [sp]
  00ff0	e1a01003	 mov         r1, r3
  00ff4	e59f0544	 ldr         r0, [pc, #0x544]
  00ff8	eb000000	 bl          NKDbgPrintfW
  00ffc	e3a03001	 mov         r3, #1
  01000	e58d3104	 str         r3, [sp, #0x104]
  01004	ea000001	 b           |$LN113@MenelausIn|
  01008		 |$LN112@MenelausIn|
  01008	e3a03000	 mov         r3, #0
  0100c	e58d3104	 str         r3, [sp, #0x104]
  01010		 |$LN113@MenelausIn|

; 237  :     ReadData(MENELAUS_RTCALSEC_OFFSET, &pData); DEBUGMSG(SDCARD_ZONE_INFO, (L"RTCALSEC 0x%02X \r\n", pData));

  01010	e28d2000	 add         r2, sp, #0
  01014	e3a0102a	 mov         r1, #0x2A
  01018	e59d0158	 ldr         r0, [sp, #0x158]
  0101c	eb000000	 bl          |?ReadData@CMenelaus@@AAAHEPAE@Z|
  01020	e59f34d0	 ldr         r3, [pc, #0x4D0]
  01024	e5933440	 ldr         r3, [r3, #0x440]
  01028	e3130a01	 tst         r3, #1, 20
  0102c	0a000006	 beq         |$LN114@MenelausIn|
  01030	e5dd3000	 ldrb        r3, [sp]
  01034	e1a01003	 mov         r1, r3
  01038	e59f04fc	 ldr         r0, [pc, #0x4FC]
  0103c	eb000000	 bl          NKDbgPrintfW
  01040	e3a03001	 mov         r3, #1
  01044	e58d3108	 str         r3, [sp, #0x108]
  01048	ea000001	 b           |$LN115@MenelausIn|
  0104c		 |$LN114@MenelausIn|
  0104c	e3a03000	 mov         r3, #0
  01050	e58d3108	 str         r3, [sp, #0x108]
  01054		 |$LN115@MenelausIn|

; 238  :     ReadData(MENELAUS_RTCALMIN_OFFSET, &pData); DEBUGMSG(SDCARD_ZONE_INFO, (L"RTCALMIN 0x%02X \r\n", pData));

  01054	e28d2000	 add         r2, sp, #0
  01058	e3a0102b	 mov         r1, #0x2B
  0105c	e59d0158	 ldr         r0, [sp, #0x158]
  01060	eb000000	 bl          |?ReadData@CMenelaus@@AAAHEPAE@Z|
  01064	e59f348c	 ldr         r3, [pc, #0x48C]
  01068	e5933440	 ldr         r3, [r3, #0x440]
  0106c	e3130a01	 tst         r3, #1, 20
  01070	0a000006	 beq         |$LN116@MenelausIn|
  01074	e5dd3000	 ldrb        r3, [sp]
  01078	e1a01003	 mov         r1, r3
  0107c	e59f04b4	 ldr         r0, [pc, #0x4B4]
  01080	eb000000	 bl          NKDbgPrintfW
  01084	e3a03001	 mov         r3, #1
  01088	e58d310c	 str         r3, [sp, #0x10C]
  0108c	ea000001	 b           |$LN117@MenelausIn|
  01090		 |$LN116@MenelausIn|
  01090	e3a03000	 mov         r3, #0
  01094	e58d310c	 str         r3, [sp, #0x10C]
  01098		 |$LN117@MenelausIn|

; 239  :     ReadData(MENELAUS_RTCALHR_OFFSET, &pData); DEBUGMSG(SDCARD_ZONE_INFO, (L"RTCALHR 0x%02X \r\n", pData));

  01098	e28d2000	 add         r2, sp, #0
  0109c	e3a0102c	 mov         r1, #0x2C
  010a0	e59d0158	 ldr         r0, [sp, #0x158]
  010a4	eb000000	 bl          |?ReadData@CMenelaus@@AAAHEPAE@Z|
  010a8	e59f3448	 ldr         r3, [pc, #0x448]
  010ac	e5933440	 ldr         r3, [r3, #0x440]
  010b0	e3130a01	 tst         r3, #1, 20
  010b4	0a000006	 beq         |$LN118@MenelausIn|
  010b8	e5dd3000	 ldrb        r3, [sp]
  010bc	e1a01003	 mov         r1, r3
  010c0	e59f046c	 ldr         r0, [pc, #0x46C]
  010c4	eb000000	 bl          NKDbgPrintfW
  010c8	e3a03001	 mov         r3, #1
  010cc	e58d3110	 str         r3, [sp, #0x110]
  010d0	ea000001	 b           |$LN119@MenelausIn|
  010d4		 |$LN118@MenelausIn|
  010d4	e3a03000	 mov         r3, #0
  010d8	e58d3110	 str         r3, [sp, #0x110]
  010dc		 |$LN119@MenelausIn|

; 240  :     ReadData(MENELAUS_RTCALDAY_OFFSET, &pData); DEBUGMSG(SDCARD_ZONE_INFO, (L"RTCALDAY 0x%02X \r\n", pData));

  010dc	e28d2000	 add         r2, sp, #0
  010e0	e3a0102d	 mov         r1, #0x2D
  010e4	e59d0158	 ldr         r0, [sp, #0x158]
  010e8	eb000000	 bl          |?ReadData@CMenelaus@@AAAHEPAE@Z|
  010ec	e59f3404	 ldr         r3, [pc, #0x404]
  010f0	e5933440	 ldr         r3, [r3, #0x440]
  010f4	e3130a01	 tst         r3, #1, 20
  010f8	0a000006	 beq         |$LN120@MenelausIn|
  010fc	e5dd3000	 ldrb        r3, [sp]
  01100	e1a01003	 mov         r1, r3
  01104	e59f0424	 ldr         r0, [pc, #0x424]
  01108	eb000000	 bl          NKDbgPrintfW
  0110c	e3a03001	 mov         r3, #1
  01110	e58d3114	 str         r3, [sp, #0x114]
  01114	ea000001	 b           |$LN121@MenelausIn|
  01118		 |$LN120@MenelausIn|
  01118	e3a03000	 mov         r3, #0
  0111c	e58d3114	 str         r3, [sp, #0x114]
  01120		 |$LN121@MenelausIn|

; 241  :     ReadData(MENELAUS_RTCALMON_OFFSET, &pData); DEBUGMSG(SDCARD_ZONE_INFO, (L"RTCALMON 0x%02X \r\n", pData));

  01120	e28d2000	 add         r2, sp, #0
  01124	e3a0102e	 mov         r1, #0x2E
  01128	e59d0158	 ldr         r0, [sp, #0x158]
  0112c	eb000000	 bl          |?ReadData@CMenelaus@@AAAHEPAE@Z|
  01130	e59f33c0	 ldr         r3, [pc, #0x3C0]
  01134	e5933440	 ldr         r3, [r3, #0x440]
  01138	e3130a01	 tst         r3, #1, 20
  0113c	0a000006	 beq         |$LN122@MenelausIn|
  01140	e5dd3000	 ldrb        r3, [sp]
  01144	e1a01003	 mov         r1, r3
  01148	e59f03dc	 ldr         r0, [pc, #0x3DC]
  0114c	eb000000	 bl          NKDbgPrintfW
  01150	e3a03001	 mov         r3, #1
  01154	e58d3118	 str         r3, [sp, #0x118]
  01158	ea000001	 b           |$LN123@MenelausIn|
  0115c		 |$LN122@MenelausIn|
  0115c	e3a03000	 mov         r3, #0
  01160	e58d3118	 str         r3, [sp, #0x118]
  01164		 |$LN123@MenelausIn|

; 242  :     ReadData(MENELAUS_RTCALYR_OFFSET, &pData); DEBUGMSG(SDCARD_ZONE_INFO, (L"RTCALYR 0x%02X \r\n", pData));

  01164	e28d2000	 add         r2, sp, #0
  01168	e3a0102f	 mov         r1, #0x2F
  0116c	e59d0158	 ldr         r0, [sp, #0x158]
  01170	eb000000	 bl          |?ReadData@CMenelaus@@AAAHEPAE@Z|
  01174	e59f337c	 ldr         r3, [pc, #0x37C]
  01178	e5933440	 ldr         r3, [r3, #0x440]
  0117c	e3130a01	 tst         r3, #1, 20
  01180	0a000006	 beq         |$LN124@MenelausIn|
  01184	e5dd3000	 ldrb        r3, [sp]
  01188	e1a01003	 mov         r1, r3
  0118c	e59f0394	 ldr         r0, [pc, #0x394]
  01190	eb000000	 bl          NKDbgPrintfW
  01194	e3a03001	 mov         r3, #1
  01198	e58d311c	 str         r3, [sp, #0x11C]
  0119c	ea000001	 b           |$LN125@MenelausIn|
  011a0		 |$LN124@MenelausIn|
  011a0	e3a03000	 mov         r3, #0
  011a4	e58d311c	 str         r3, [sp, #0x11C]
  011a8		 |$LN125@MenelausIn|

; 243  :     ReadData(MENELAUS_RTCCOMPMSB_OFFSET, &pData); DEBUGMSG(SDCARD_ZONE_INFO, (L"RTCCOMPMSB 0x%02X \r\n", pData));

  011a8	e28d2000	 add         r2, sp, #0
  011ac	e3a01030	 mov         r1, #0x30
  011b0	e59d0158	 ldr         r0, [sp, #0x158]
  011b4	eb000000	 bl          |?ReadData@CMenelaus@@AAAHEPAE@Z|
  011b8	e59f3338	 ldr         r3, [pc, #0x338]
  011bc	e5933440	 ldr         r3, [r3, #0x440]
  011c0	e3130a01	 tst         r3, #1, 20
  011c4	0a000006	 beq         |$LN126@MenelausIn|
  011c8	e5dd3000	 ldrb        r3, [sp]
  011cc	e1a01003	 mov         r1, r3
  011d0	e59f034c	 ldr         r0, [pc, #0x34C]
  011d4	eb000000	 bl          NKDbgPrintfW
  011d8	e3a03001	 mov         r3, #1
  011dc	e58d3120	 str         r3, [sp, #0x120]
  011e0	ea000001	 b           |$LN127@MenelausIn|
  011e4		 |$LN126@MenelausIn|
  011e4	e3a03000	 mov         r3, #0
  011e8	e58d3120	 str         r3, [sp, #0x120]
  011ec		 |$LN127@MenelausIn|

; 244  :     ReadData(MENELAUS_RTCCOMPLSB_OFFSET, &pData); DEBUGMSG(SDCARD_ZONE_INFO, (L"RTCCOMPLSB 0x%02X \r\n", pData));

  011ec	e28d2000	 add         r2, sp, #0
  011f0	e3a01031	 mov         r1, #0x31
  011f4	e59d0158	 ldr         r0, [sp, #0x158]
  011f8	eb000000	 bl          |?ReadData@CMenelaus@@AAAHEPAE@Z|
  011fc	e59f32f4	 ldr         r3, [pc, #0x2F4]
  01200	e5933440	 ldr         r3, [r3, #0x440]
  01204	e3130a01	 tst         r3, #1, 20
  01208	0a000006	 beq         |$LN128@MenelausIn|
  0120c	e5dd3000	 ldrb        r3, [sp]
  01210	e1a01003	 mov         r1, r3
  01214	e59f0304	 ldr         r0, [pc, #0x304]
  01218	eb000000	 bl          NKDbgPrintfW
  0121c	e3a03001	 mov         r3, #1
  01220	e58d3124	 str         r3, [sp, #0x124]
  01224	ea000001	 b           |$LN129@MenelausIn|
  01228		 |$LN128@MenelausIn|
  01228	e3a03000	 mov         r3, #0
  0122c	e58d3124	 str         r3, [sp, #0x124]
  01230		 |$LN129@MenelausIn|

; 245  :     ReadData(MENELAUS_S1PULLEN_OFFSET, &pData); DEBUGMSG(SDCARD_ZONE_INFO, (L"S1PULLEN 0x%02X \r\n", pData));

  01230	e28d2000	 add         r2, sp, #0
  01234	e3a01032	 mov         r1, #0x32
  01238	e59d0158	 ldr         r0, [sp, #0x158]
  0123c	eb000000	 bl          |?ReadData@CMenelaus@@AAAHEPAE@Z|
  01240	e59f32b0	 ldr         r3, [pc, #0x2B0]
  01244	e5933440	 ldr         r3, [r3, #0x440]
  01248	e3130a01	 tst         r3, #1, 20
  0124c	0a000006	 beq         |$LN130@MenelausIn|
  01250	e5dd3000	 ldrb        r3, [sp]
  01254	e1a01003	 mov         r1, r3
  01258	e59f02bc	 ldr         r0, [pc, #0x2BC]
  0125c	eb000000	 bl          NKDbgPrintfW
  01260	e3a03001	 mov         r3, #1
  01264	e58d3128	 str         r3, [sp, #0x128]
  01268	ea000001	 b           |$LN131@MenelausIn|
  0126c		 |$LN130@MenelausIn|
  0126c	e3a03000	 mov         r3, #0
  01270	e58d3128	 str         r3, [sp, #0x128]
  01274		 |$LN131@MenelausIn|

; 246  :     ReadData(MENELAUS_S1PULLDIR_OFFSET, &pData); DEBUGMSG(SDCARD_ZONE_INFO, (L"S1PULLDIR 0x%02X \r\n", pData));

  01274	e28d2000	 add         r2, sp, #0
  01278	e3a01033	 mov         r1, #0x33
  0127c	e59d0158	 ldr         r0, [sp, #0x158]
  01280	eb000000	 bl          |?ReadData@CMenelaus@@AAAHEPAE@Z|
  01284	e59f326c	 ldr         r3, [pc, #0x26C]
  01288	e5933440	 ldr         r3, [r3, #0x440]
  0128c	e3130a01	 tst         r3, #1, 20
  01290	0a000006	 beq         |$LN132@MenelausIn|
  01294	e5dd3000	 ldrb        r3, [sp]
  01298	e1a01003	 mov         r1, r3
  0129c	e59f0274	 ldr         r0, [pc, #0x274]
  012a0	eb000000	 bl          NKDbgPrintfW
  012a4	e3a03001	 mov         r3, #1
  012a8	e58d312c	 str         r3, [sp, #0x12C]
  012ac	ea000001	 b           |$LN133@MenelausIn|
  012b0		 |$LN132@MenelausIn|
  012b0	e3a03000	 mov         r3, #0
  012b4	e58d312c	 str         r3, [sp, #0x12C]
  012b8		 |$LN133@MenelausIn|

; 247  :     ReadData(MENELAUS_S2PULLEN_OFFSET, &pData); DEBUGMSG(SDCARD_ZONE_INFO, (L"S2PULLEN 0x%02X \r\n", pData));

  012b8	e28d2000	 add         r2, sp, #0
  012bc	e3a01034	 mov         r1, #0x34
  012c0	e59d0158	 ldr         r0, [sp, #0x158]
  012c4	eb000000	 bl          |?ReadData@CMenelaus@@AAAHEPAE@Z|
  012c8	e59f3228	 ldr         r3, [pc, #0x228]
  012cc	e5933440	 ldr         r3, [r3, #0x440]
  012d0	e3130a01	 tst         r3, #1, 20
  012d4	0a000006	 beq         |$LN134@MenelausIn|
  012d8	e5dd3000	 ldrb        r3, [sp]
  012dc	e1a01003	 mov         r1, r3
  012e0	e59f022c	 ldr         r0, [pc, #0x22C]
  012e4	eb000000	 bl          NKDbgPrintfW
  012e8	e3a03001	 mov         r3, #1
  012ec	e58d3130	 str         r3, [sp, #0x130]
  012f0	ea000001	 b           |$LN135@MenelausIn|
  012f4		 |$LN134@MenelausIn|
  012f4	e3a03000	 mov         r3, #0
  012f8	e58d3130	 str         r3, [sp, #0x130]
  012fc		 |$LN135@MenelausIn|

; 248  :     ReadData(MENELAUS_S2PULLDIR_OFFSET, &pData); DEBUGMSG(SDCARD_ZONE_INFO, (L"S2PULLDIR 0x%02X \r\n", pData));

  012fc	e28d2000	 add         r2, sp, #0
  01300	e3a01035	 mov         r1, #0x35
  01304	e59d0158	 ldr         r0, [sp, #0x158]
  01308	eb000000	 bl          |?ReadData@CMenelaus@@AAAHEPAE@Z|
  0130c	e59f31e4	 ldr         r3, [pc, #0x1E4]
  01310	e5933440	 ldr         r3, [r3, #0x440]
  01314	e3130a01	 tst         r3, #1, 20
  01318	0a000006	 beq         |$LN136@MenelausIn|
  0131c	e5dd3000	 ldrb        r3, [sp]
  01320	e1a01003	 mov         r1, r3
  01324	e59f01e4	 ldr         r0, [pc, #0x1E4]
  01328	eb000000	 bl          NKDbgPrintfW
  0132c	e3a03001	 mov         r3, #1
  01330	e58d3134	 str         r3, [sp, #0x134]
  01334	ea000001	 b           |$LN137@MenelausIn|
  01338		 |$LN136@MenelausIn|
  01338	e3a03000	 mov         r3, #0
  0133c	e58d3134	 str         r3, [sp, #0x134]
  01340		 |$LN137@MenelausIn|

; 249  :     ReadData(MENELAUS_MCTCTRL1_OFFSET, &pData); DEBUGMSG(SDCARD_ZONE_INFO, (L"MCTCTRL1 0x%02X \r\n", pData));

  01340	e28d2000	 add         r2, sp, #0
  01344	e3a01036	 mov         r1, #0x36
  01348	e59d0158	 ldr         r0, [sp, #0x158]
  0134c	eb000000	 bl          |?ReadData@CMenelaus@@AAAHEPAE@Z|
  01350	e59f31a0	 ldr         r3, [pc, #0x1A0]
  01354	e5933440	 ldr         r3, [r3, #0x440]
  01358	e3130a01	 tst         r3, #1, 20
  0135c	0a000006	 beq         |$LN138@MenelausIn|
  01360	e5dd3000	 ldrb        r3, [sp]
  01364	e1a01003	 mov         r1, r3
  01368	e59f019c	 ldr         r0, [pc, #0x19C]
  0136c	eb000000	 bl          NKDbgPrintfW
  01370	e3a03001	 mov         r3, #1
  01374	e58d3138	 str         r3, [sp, #0x138]
  01378	ea000001	 b           |$LN139@MenelausIn|
  0137c		 |$LN138@MenelausIn|
  0137c	e3a03000	 mov         r3, #0
  01380	e58d3138	 str         r3, [sp, #0x138]
  01384		 |$LN139@MenelausIn|

; 250  :     ReadData(MENELAUS_MCTCTRL2_OFFSET, &pData); DEBUGMSG(SDCARD_ZONE_INFO, (L"MCTCTRL2 0x%02X \r\n", pData));

  01384	e28d2000	 add         r2, sp, #0
  01388	e3a01037	 mov         r1, #0x37
  0138c	e59d0158	 ldr         r0, [sp, #0x158]
  01390	eb000000	 bl          |?ReadData@CMenelaus@@AAAHEPAE@Z|
  01394	e59f315c	 ldr         r3, [pc, #0x15C]
  01398	e5933440	 ldr         r3, [r3, #0x440]
  0139c	e3130a01	 tst         r3, #1, 20
  013a0	0a000006	 beq         |$LN140@MenelausIn|
  013a4	e5dd3000	 ldrb        r3, [sp]
  013a8	e1a01003	 mov         r1, r3
  013ac	e59f0154	 ldr         r0, [pc, #0x154]
  013b0	eb000000	 bl          NKDbgPrintfW
  013b4	e3a03001	 mov         r3, #1
  013b8	e58d313c	 str         r3, [sp, #0x13C]
  013bc	ea000001	 b           |$LN141@MenelausIn|
  013c0		 |$LN140@MenelausIn|
  013c0	e3a03000	 mov         r3, #0
  013c4	e58d313c	 str         r3, [sp, #0x13C]
  013c8		 |$LN141@MenelausIn|

; 251  :     ReadData(MENELAUS_MCTCTRL3_OFFSET, &pData); DEBUGMSG(SDCARD_ZONE_INFO, (L"MCTCTRL3 0x%02X \r\n", pData));

  013c8	e28d2000	 add         r2, sp, #0
  013cc	e3a01038	 mov         r1, #0x38
  013d0	e59d0158	 ldr         r0, [sp, #0x158]
  013d4	eb000000	 bl          |?ReadData@CMenelaus@@AAAHEPAE@Z|
  013d8	e59f3118	 ldr         r3, [pc, #0x118]
  013dc	e5933440	 ldr         r3, [r3, #0x440]
  013e0	e3130a01	 tst         r3, #1, 20
  013e4	0a000006	 beq         |$LN142@MenelausIn|
  013e8	e5dd3000	 ldrb        r3, [sp]
  013ec	e1a01003	 mov         r1, r3
  013f0	e59f010c	 ldr         r0, [pc, #0x10C]
  013f4	eb000000	 bl          NKDbgPrintfW
  013f8	e3a03001	 mov         r3, #1
  013fc	e58d3140	 str         r3, [sp, #0x140]
  01400	ea000001	 b           |$LN143@MenelausIn|
  01404		 |$LN142@MenelausIn|
  01404	e3a03000	 mov         r3, #0
  01408	e58d3140	 str         r3, [sp, #0x140]
  0140c		 |$LN143@MenelausIn|

; 252  :     ReadData(MENELAUS_MCTPINST_OFFSET, &pData); DEBUGMSG(SDCARD_ZONE_INFO, (L"MCTPINST 0x%02X \r\n", pData));

  0140c	e28d2000	 add         r2, sp, #0
  01410	e3a01039	 mov         r1, #0x39
  01414	e59d0158	 ldr         r0, [sp, #0x158]
  01418	eb000000	 bl          |?ReadData@CMenelaus@@AAAHEPAE@Z|
  0141c	e59f30d4	 ldr         r3, [pc, #0xD4]
  01420	e5933440	 ldr         r3, [r3, #0x440]
  01424	e3130a01	 tst         r3, #1, 20
  01428	0a000006	 beq         |$LN144@MenelausIn|
  0142c	e5dd3000	 ldrb        r3, [sp]
  01430	e1a01003	 mov         r1, r3
  01434	e59f00c4	 ldr         r0, [pc, #0xC4]
  01438	eb000000	 bl          NKDbgPrintfW
  0143c	e3a03001	 mov         r3, #1
  01440	e58d3144	 str         r3, [sp, #0x144]
  01444	ea000001	 b           |$LN145@MenelausIn|
  01448		 |$LN144@MenelausIn|
  01448	e3a03000	 mov         r3, #0
  0144c	e58d3144	 str         r3, [sp, #0x144]
  01450		 |$LN145@MenelausIn|

; 253  :     ReadData(MENELAUS_DEBOUNCE_OFFSET, &pData); DEBUGMSG(SDCARD_ZONE_INFO, (L"DEBOUNCE 0x%02X \r\n", pData)); 

  01450	e28d2000	 add         r2, sp, #0
  01454	e3a0103a	 mov         r1, #0x3A
  01458	e59d0158	 ldr         r0, [sp, #0x158]
  0145c	eb000000	 bl          |?ReadData@CMenelaus@@AAAHEPAE@Z|
  01460	e59f3090	 ldr         r3, [pc, #0x90]
  01464	e5933440	 ldr         r3, [r3, #0x440]
  01468	e3130a01	 tst         r3, #1, 20
  0146c	0a000006	 beq         |$LN146@MenelausIn|
  01470	e5dd3000	 ldrb        r3, [sp]
  01474	e1a01003	 mov         r1, r3
  01478	e59f007c	 ldr         r0, [pc, #0x7C]
  0147c	eb000000	 bl          NKDbgPrintfW
  01480	e3a03001	 mov         r3, #1
  01484	e58d3148	 str         r3, [sp, #0x148]
  01488	ea000001	 b           |$LN147@MenelausIn|
  0148c		 |$LN146@MenelausIn|
  0148c	e3a03000	 mov         r3, #0
  01490	e58d3148	 str         r3, [sp, #0x148]
  01494		 |$LN147@MenelausIn|

; 254  :     DEBUGMSG(SDCARD_ZONE_INFO, (L"End Dump Menelaus Configuration! \r\n")); 

  01494	e59f305c	 ldr         r3, [pc, #0x5C]
  01498	e5933440	 ldr         r3, [r3, #0x440]
  0149c	e3130a01	 tst         r3, #1, 20
  014a0	0a000004	 beq         |$LN148@MenelausIn|
  014a4	e59f0048	 ldr         r0, [pc, #0x48]
  014a8	eb000000	 bl          NKDbgPrintfW
  014ac	e3a03001	 mov         r3, #1
  014b0	e58d314c	 str         r3, [sp, #0x14C]
  014b4	ea000001	 b           |$LN149@MenelausIn|
  014b8		 |$LN148@MenelausIn|
  014b8	e3a03000	 mov         r3, #0
  014bc	e58d314c	 str         r3, [sp, #0x14C]
  014c0		 |$LN149@MenelausIn|

; 255  : #endif
; 256  : 
; 257  :     rc = TRUE;

  014c0	e3a03001	 mov         r3, #1
  014c4	e58d3004	 str         r3, [sp, #4]
  014c8		 |$LN2@MenelausIn|
  014c8		 |$LN5@MenelausIn|
  014c8		 |$LN7@MenelausIn|
  014c8		 |$LN11@MenelausIn|
  014c8		 |$LN13@MenelausIn|
  014c8		 |$LN17@MenelausIn|
  014c8		 |$LN20@MenelausIn|
  014c8		 |$LN22@MenelausIn|
  014c8		 |$cleanUp$36372|

; 258  : 
; 259  : cleanUp:
; 260  :     if(!rc) {

  014c8	e59d3004	 ldr         r3, [sp, #4]
  014cc	e3530000	 cmp         r3, #0
  014d0	1a000001	 bne         |$LN1@MenelausIn|

; 261  :         // Handle error specific 
; 262  :         MenelausDeinit();

  014d4	e59d0158	 ldr         r0, [sp, #0x158]
  014d8	eb000000	 bl          |?MenelausDeinit@CMenelaus@@QAAHXZ|
  014dc		 |$LN1@MenelausIn|

; 263  :     }
; 264  :     return rc;

  014dc	e59d3004	 ldr         r3, [sp, #4]
  014e0	e58d3008	 str         r3, [sp, #8]

; 265  : }

  014e4	e59d0008	 ldr         r0, [sp, #8]
  014e8	e28dde15	 add         sp, sp, #0x15, 28
  014ec	e89d6000	 ldmia       sp, {sp, lr}
  014f0	e12fff1e	 bx          lr
  014f4		 |$LN153@MenelausIn|
  014f4		 |$LN154@MenelausIn|
  014f4	00000000	 DCD         |??_C@_1EI@DJOMLHCB@?$AAE?$AAn?$AAd?$AA?5?$AAD?$AAu?$AAm?$AAp?$AA?5?$AAM?$AAe?$AAn?$AAe?$AAl?$AAa?$AAu?$AAs?$AA?5?$AAC?$AAo?$AAn?$AAf?$AAi?$AAg?$AAu?$AAr?$AAa?$AAt?$AAi?$AAo?$AAn?$AA?$CB@|
  014f8		 |$LN155@MenelausIn|
  014f8	00000000	 DCD         |dpCurSettings|
  014fc		 |$LN156@MenelausIn|
  014fc	00000000	 DCD         |??_C@_1CG@MCGJMPCL@?$AAD?$AAE?$AAB?$AAO?$AAU?$AAN?$AAC?$AAE?$AA?5?$AA0?$AAx?$AA?$CF?$AA0?$AA2?$AAX?$AA?5?$AA?$AN?$AA?6?$AA?$AA@|
  01500		 |$LN157@MenelausIn|
  01500	00000000	 DCD         |??_C@_1CG@GECGGHNN@?$AAM?$AAC?$AAT?$AAP?$AAI?$AAN?$AAS?$AAT?$AA?5?$AA0?$AAx?$AA?$CF?$AA0?$AA2?$AAX?$AA?5?$AA?$AN?$AA?6?$AA?$AA@|
  01504		 |$LN158@MenelausIn|
  01504	00000000	 DCD         |??_C@_1CG@OLJELPLG@?$AAM?$AAC?$AAT?$AAC?$AAT?$AAR?$AAL?$AA3?$AA?5?$AA0?$AAx?$AA?$CF?$AA0?$AA2?$AAX?$AA?5?$AA?$AN?$AA?6?$AA?$AA@|
  01508		 |$LN159@MenelausIn|
  01508	00000000	 DCD         |??_C@_1CG@GKLBNKJB@?$AAM?$AAC?$AAT?$AAC?$AAT?$AAR?$AAL?$AA2?$AA?5?$AA0?$AAx?$AA?$CF?$AA0?$AA2?$AAX?$AA?5?$AA?$AN?$AA?6?$AA?$AA@|
  0150c		 |$LN160@MenelausIn|
  0150c	00000000	 DCD         |??_C@_1CG@DCKPHDLJ@?$AAM?$AAC?$AAT?$AAC?$AAT?$AAR?$AAL?$AA1?$AA?5?$AA0?$AAx?$AA?$CF?$AA0?$AA2?$AAX?$AA?5?$AA?$AN?$AA?6?$AA?$AA@|
  01510		 |$LN161@MenelausIn|
  01510	00000000	 DCD         |??_C@_1CI@GBOLIOK@?$AAS?$AA2?$AAP?$AAU?$AAL?$AAL?$AAD?$AAI?$AAR?$AA?5?$AA0?$AAx?$AA?$CF?$AA0?$AA2?$AAX?$AA?5?$AA?$AN?$AA?6?$AA?$AA@|
  01514		 |$LN162@MenelausIn|
  01514	00000000	 DCD         |??_C@_1CG@JOAAFICF@?$AAS?$AA2?$AAP?$AAU?$AAL?$AAL?$AAE?$AAN?$AA?5?$AA0?$AAx?$AA?$CF?$AA0?$AA2?$AAX?$AA?5?$AA?$AN?$AA?6?$AA?$AA@|
  01518		 |$LN163@MenelausIn|
  01518	00000000	 DCD         |??_C@_1CI@ELPGLIIN@?$AAS?$AA1?$AAP?$AAU?$AAL?$AAL?$AAD?$AAI?$AAR?$AA?5?$AA0?$AAx?$AA?$CF?$AA0?$AA2?$AAX?$AA?5?$AA?$AN?$AA?6?$AA?$AA@|
  0151c		 |$LN164@MenelausIn|
  0151c	00000000	 DCD         |??_C@_1CG@PKOACDNL@?$AAS?$AA1?$AAP?$AAU?$AAL?$AAL?$AAE?$AAN?$AA?5?$AA0?$AAx?$AA?$CF?$AA0?$AA2?$AAX?$AA?5?$AA?$AN?$AA?6?$AA?$AA@|
  01520		 |$LN165@MenelausIn|
  01520	00000000	 DCD         |??_C@_1CK@MCHNJILE@?$AAR?$AAT?$AAC?$AAC?$AAO?$AAM?$AAP?$AAL?$AAS?$AAB?$AA?5?$AA0?$AAx?$AA?$CF?$AA0?$AA2?$AAX?$AA?5?$AA?$AN?$AA?6?$AA?$AA@|
  01524		 |$LN166@MenelausIn|
  01524	00000000	 DCD         |??_C@_1CK@MDMIGFKJ@?$AAR?$AAT?$AAC?$AAC?$AAO?$AAM?$AAP?$AAM?$AAS?$AAB?$AA?5?$AA0?$AAx?$AA?$CF?$AA0?$AA2?$AAX?$AA?5?$AA?$AN?$AA?6?$AA?$AA@|
  01528		 |$LN167@MenelausIn|
  01528	00000000	 DCD         |??_C@_1CE@CHFMHDNE@?$AAR?$AAT?$AAC?$AAA?$AAL?$AAY?$AAR?$AA?5?$AA0?$AAx?$AA?$CF?$AA0?$AA2?$AAX?$AA?5?$AA?$AN?$AA?6?$AA?$AA@|
  0152c		 |$LN168@MenelausIn|
  0152c	00000000	 DCD         |??_C@_1CG@JFGJBAME@?$AAR?$AAT?$AAC?$AAA?$AAL?$AAM?$AAO?$AAN?$AA?5?$AA0?$AAx?$AA?$CF?$AA0?$AA2?$AAX?$AA?5?$AA?$AN?$AA?6?$AA?$AA@|
  01530		 |$LN169@MenelausIn|
  01530	00000000	 DCD         |??_C@_1CG@LNPHLNHG@?$AAR?$AAT?$AAC?$AAA?$AAL?$AAD?$AAA?$AAY?$AA?5?$AA0?$AAx?$AA?$CF?$AA0?$AA2?$AAX?$AA?5?$AA?$AN?$AA?6?$AA?$AA@|
  01534		 |$LN170@MenelausIn|
  01534	00000000	 DCD         |??_C@_1CE@GKBDIODL@?$AAR?$AAT?$AAC?$AAA?$AAL?$AAH?$AAR?$AA?5?$AA0?$AAx?$AA?$CF?$AA0?$AA2?$AAX?$AA?5?$AA?$AN?$AA?6?$AA?$AA@|
  01538		 |$LN171@MenelausIn|
  01538	00000000	 DCD         |??_C@_1CG@KKLHMNHF@?$AAR?$AAT?$AAC?$AAA?$AAL?$AAM?$AAI?$AAN?$AA?5?$AA0?$AAx?$AA?$CF?$AA0?$AA2?$AAX?$AA?5?$AA?$AN?$AA?6?$AA?$AA@|
  0153c		 |$LN172@MenelausIn|
  0153c	00000000	 DCD         |??_C@_1CG@PMGIIGKH@?$AAR?$AAT?$AAC?$AAA?$AAL?$AAS?$AAE?$AAC?$AA?5?$AA0?$AAx?$AA?$CF?$AA0?$AA2?$AAX?$AA?5?$AA?$AN?$AA?6?$AA?$AA@|
  01540		 |$LN173@MenelausIn|
  01540	00000000	 DCD         |??_C@_1CG@FMMDGNJI@?$AAR?$AAT?$AAC?$AAW?$AAK?$AAD?$AAA?$AAY?$AA?5?$AA0?$AAx?$AA?$CF?$AA0?$AA2?$AAX?$AA?5?$AA?$AN?$AA?6?$AA?$AA@|
  01544		 |$LN174@MenelausIn|
  01544	00000000	 DCD         |??_C@_1CA@OJLMEEM@?$AAR?$AAT?$AAC?$AAY?$AAR?$AA?5?$AA0?$AAx?$AA?$CF?$AA0?$AA2?$AAX?$AA?5?$AA?$AN?$AA?6?$AA?$AA@|
  01548		 |$LN175@MenelausIn|
  01548	00000000	 DCD         |??_C@_1CC@HJPEBPDO@?$AAR?$AAT?$AAC?$AAM?$AAO?$AAN?$AA?5?$AA0?$AAx?$AA?$CF?$AA0?$AA2?$AAX?$AA?5?$AA?$AN?$AA?6?$AA?$AA@|
  0154c		 |$LN176@MenelausIn|
  0154c	00000000	 DCD         |??_C@_1CC@FBGKLCIM@?$AAR?$AAT?$AAC?$AAD?$AAA?$AAY?$AA?5?$AA0?$AAx?$AA?$CF?$AA0?$AA2?$AAX?$AA?5?$AA?$AN?$AA?6?$AA?$AA@|
  01550		 |$LN177@MenelausIn|
  01550	00000000	 DCD         |??_C@_1CA@EDNEDJKD@?$AAR?$AAT?$AAC?$AAH?$AAR?$AA?5?$AA0?$AAx?$AA?$CF?$AA0?$AA2?$AAX?$AA?5?$AA?$AN?$AA?6?$AA?$AA@|
  01554		 |$LN178@MenelausIn|
  01554	00000000	 DCD         |??_C@_1CC@EGCKMCIP@?$AAR?$AAT?$AAC?$AAM?$AAI?$AAN?$AA?5?$AA0?$AAx?$AA?$CF?$AA0?$AA2?$AAX?$AA?5?$AA?$AN?$AA?6?$AA?$AA@|
  01558		 |$LN179@MenelausIn|
  01558	00000000	 DCD         |??_C@_1CC@BAPFIJFN@?$AAR?$AAT?$AAC?$AAS?$AAE?$AAC?$AA?5?$AA0?$AAx?$AA?$CF?$AA0?$AA2?$AAX?$AA?5?$AA?$AN?$AA?6?$AA?$AA@|
  0155c		 |$LN180@MenelausIn|
  0155c	00000000	 DCD         |??_C@_1CI@HADFENBF@?$AAR?$AAT?$AAC?$AAU?$AAP?$AAD?$AAA?$AAT?$AAE?$AA?5?$AA0?$AAx?$AA?$CF?$AA0?$AA2?$AAX?$AA?5?$AA?$AN?$AA?6?$AA?$AA@|
  01560		 |$LN181@MenelausIn|
  01560	00000000	 DCD         |??_C@_1CE@PDEIFNGL@?$AAR?$AAT?$AAC?$AAC?$AAT?$AAR?$AAL?$AA?5?$AA0?$AAx?$AA?$CF?$AA0?$AA2?$AAX?$AA?5?$AA?$AN?$AA?6?$AA?$AA@|
  01564		 |$LN182@MenelausIn|
  01564	00000000	 DCD         |??_C@_1CA@PANAKFMG@?$AAB?$AAB?$AAS?$AAM?$AAS?$AA?5?$AA0?$AAx?$AA?$CF?$AA0?$AA2?$AAX?$AA?5?$AA?$AN?$AA?6?$AA?$AA@|
  01568		 |$LN183@MenelausIn|
  01568	00000000	 DCD         |??_C@_1CG@MJIGECEG@?$AAG?$AAP?$AAI?$AAO?$AAO?$AAU?$AAT?$AA1?$AA?5?$AA0?$AAx?$AA?$CF?$AA0?$AA2?$AAX?$AA?5?$AA?$AN?$AA?6?$AA?$AA@|
  0156c		 |$LN184@MenelausIn|
  0156c	00000000	 DCD         |??_C@_1CC@OHEBPGMD@?$AAG?$AAP?$AAI?$AAO?$AAI?$AAN?$AA?5?$AA0?$AAx?$AA?$CF?$AA0?$AA2?$AAX?$AA?5?$AA?$AN?$AA?6?$AA?$AA@|
  01570		 |$LN185@MenelausIn|
  01570	00000000	 DCD         |??_C@_1CG@KDFHEMPP@?$AAG?$AAP?$AAI?$AAO?$AAC?$AAT?$AAR?$AAL?$AA?5?$AA0?$AAx?$AA?$CF?$AA0?$AA2?$AAX?$AA?5?$AA?$AN?$AA?6?$AA?$AA@|
  01574		 |$LN186@MenelausIn|
  01574	00000000	 DCD         |??_C@_1CE@IKPEJMHJ@?$AAI?$AAN?$AAT?$AAA?$AAC?$AAK?$AA2?$AA?5?$AA0?$AAx?$AA?$CF?$AA0?$AA2?$AAX?$AA?5?$AA?$AN?$AA?6?$AA?$AA@|
  01578		 |$LN187@MenelausIn|
  01578	00000000	 DCD         |??_C@_1CE@NCOKDFFB@?$AAI?$AAN?$AAT?$AAA?$AAC?$AAK?$AA1?$AA?5?$AA0?$AAx?$AA?$CF?$AA0?$AA2?$AAX?$AA?5?$AA?$AN?$AA?6?$AA?$AA@|
  0157c		 |$LN188@MenelausIn|
  0157c	00000000	 DCD         |??_C@_1CK@MNEGPKEM@?$AAI?$AAN?$AAT?$AAS?$AAT?$AAA?$AAT?$AAU?$AAS?$AA2?$AA?5?$AA0?$AAx?$AA?$CF?$AA0?$AA2?$AAX?$AA?5?$AA?$AN?$AA?6?$AA?$AA@|
  01580		 |$LN189@MenelausIn|
  01580	00000000	 DCD         |??_C@_1CK@JFFIFDGE@?$AAI?$AAN?$AAT?$AAS?$AAT?$AAA?$AAT?$AAU?$AAS?$AA1?$AA?5?$AA0?$AAx?$AA?$CF?$AA0?$AA2?$AAX?$AA?5?$AA?$AN?$AA?6?$AA?$AA@|
  01584		 |$LN190@MenelausIn|
  01584	00000000	 DCD         |??_C@_1CG@CCKDOMIM@?$AAI?$AAN?$AAT?$AAM?$AAA?$AAS?$AAK?$AA2?$AA?5?$AA0?$AAx?$AA?$CF?$AA0?$AA2?$AAX?$AA?5?$AA?$AN?$AA?6?$AA?$AA@|
  01588		 |$LN191@MenelausIn|
  01588	00000000	 DCD         |??_C@_1CG@HKLNEFKE@?$AAI?$AAN?$AAT?$AAM?$AAA?$AAS?$AAK?$AA1?$AA?5?$AA0?$AAx?$AA?$CF?$AA0?$AA2?$AAX?$AA?5?$AA?$AN?$AA?6?$AA?$AA@|
  0158c		 |$LN192@MenelausIn|
  0158c	00000000	 DCD         |??_C@_1CK@FFNIPDFN@?$AAD?$AAE?$AAT?$AAE?$AAC?$AAT?$AAC?$AAT?$AAR?$AAL?$AA?5?$AA0?$AAx?$AA?$CF?$AA0?$AA2?$AAX?$AA?5?$AA?$AN?$AA?6?$AA?$AA@|
  01590		 |$LN193@MenelausIn|
  01590	00000000	 DCD         |??_C@_1CE@DAAGLFJJ@?$AAO?$AAS?$AAC?$AAC?$AAT?$AAR?$AAL?$AA?5?$AA0?$AAx?$AA?$CF?$AA0?$AA2?$AAX?$AA?5?$AA?$AN?$AA?6?$AA?$AA@|
  01594		 |$LN194@MenelausIn|
  01594	00000000	 DCD         |??_C@_1CI@OKBPMHGH@?$AAD?$AAE?$AAV?$AAI?$AAC?$AAE?$AAO?$AAF?$AAF?$AA?5?$AA0?$AAx?$AA?$CF?$AA0?$AA2?$AAX?$AA?5?$AA?$AN?$AA?6?$AA?$AA@|
  01598		 |$LN195@MenelausIn|
  01598	00000000	 DCD         |??_C@_1CK@FCNHKGJE@?$AAS?$AAL?$AAE?$AAE?$AAP?$AAC?$AAT?$AAR?$AAL?$AA2?$AA?5?$AA0?$AAx?$AA?$CF?$AA0?$AA2?$AAX?$AA?5?$AA?$AN?$AA?6?$AA?$AA@|
  0159c		 |$LN196@MenelausIn|
  0159c	00000000	 DCD         |??_C@_1CK@KMJAPLM@?$AAS?$AAL?$AAE?$AAE?$AAP?$AAC?$AAT?$AAR?$AAL?$AA1?$AA?5?$AA0?$AAx?$AA?$CF?$AA0?$AA2?$AAX?$AA?5?$AA?$AN?$AA?6?$AA?$AA@|
  015a0		 |$LN197@MenelausIn|
  015a0	00000000	 DCD         |??_C@_1CG@PPACOFLJ@?$AAL?$AAD?$AA0?$AAC?$AAT?$AAR?$AAL?$AA8?$AA?5?$AA0?$AAx?$AA?$CF?$AA0?$AA2?$AAX?$AA?5?$AA?$AN?$AA?6?$AA?$AA@|
  015a4		 |$LN198@MenelausIn|
  015a4	00000000	 DCD         |??_C@_1CG@BMBHOOHA@?$AAL?$AAD?$AA0?$AAC?$AAT?$AAR?$AAL?$AA7?$AA?5?$AA0?$AAx?$AA?$CF?$AA0?$AA2?$AAX?$AA?5?$AA?$AN?$AA?6?$AA?$AA@|
  015a8		 |$LN199@MenelausIn|
  015a8	00000000	 DCD         |??_C@_1CG@JNDCILFH@?$AAL?$AAD?$AA0?$AAC?$AAT?$AAR?$AAL?$AA6?$AA?5?$AA0?$AAx?$AA?$CF?$AA0?$AA2?$AAX?$AA?5?$AA?$AN?$AA?6?$AA?$AA@|
  015ac		 |$LN200@MenelausIn|
  015ac	00000000	 DCD         |??_C@_1CG@MFCMCCHP@?$AAL?$AAD?$AA0?$AAC?$AAT?$AAR?$AAL?$AA5?$AA?5?$AA0?$AAx?$AA?$CF?$AA0?$AA2?$AAX?$AA?5?$AA?$AN?$AA?6?$AA?$AA@|
  015b0		 |$LN201@MenelausIn|
  015b0	00000000	 DCD         |??_C@_1CG@EEAJEHFI@?$AAL?$AAD?$AA0?$AAC?$AAT?$AAR?$AAL?$AA4?$AA?5?$AA0?$AAx?$AA?$CF?$AA0?$AA2?$AAX?$AA?5?$AA?$AN?$AA?6?$AA?$AA@|
  015b4		 |$LN202@MenelausIn|
  015b4	00000000	 DCD         |??_C@_1CG@HFBBHACP@?$AAL?$AAD?$AA0?$AAC?$AAT?$AAR?$AAL?$AA3?$AA?5?$AA0?$AAx?$AA?$CF?$AA0?$AA2?$AAX?$AA?5?$AA?$AN?$AA?6?$AA?$AA@|
  015b8		 |$LN203@MenelausIn|
  015b8	00000000	 DCD         |??_C@_1CG@PEDEBFAI@?$AAL?$AAD?$AA0?$AAC?$AAT?$AAR?$AAL?$AA2?$AA?5?$AA0?$AAx?$AA?$CF?$AA0?$AA2?$AAX?$AA?5?$AA?$AN?$AA?6?$AA?$AA@|
  015bc		 |$LN204@MenelausIn|
  015bc	00000000	 DCD         |??_C@_1CG@KMCKLMCA@?$AAL?$AAD?$AA0?$AAC?$AAT?$AAR?$AAL?$AA1?$AA?5?$AA0?$AAx?$AA?$CF?$AA0?$AA2?$AAX?$AA?5?$AA?$AN?$AA?6?$AA?$AA@|
  015c0		 |$LN205@MenelausIn|
  015c0	00000000	 DCD         |??_C@_1CI@IFEGCOAB@?$AAD?$AAC?$AAD?$AAC?$AAC?$AAT?$AAR?$AAL?$AA3?$AA?5?$AA0?$AAx?$AA?$CF?$AA0?$AA2?$AAX?$AA?5?$AA?$AN?$AA?6?$AA?$AA@|
  015c4		 |$LN206@MenelausIn|
  015c4	00000000	 DCD         |??_C@_1CI@EGDELCG@?$AAD?$AAC?$AAD?$AAC?$AAC?$AAT?$AAR?$AAL?$AA2?$AA?5?$AA0?$AAx?$AA?$CF?$AA0?$AA2?$AAX?$AA?5?$AA?$AN?$AA?6?$AA?$AA@|
  015c8		 |$LN207@MenelausIn|
  015c8	00000000	 DCD         |??_C@_1CI@FMHNOCAO@?$AAD?$AAC?$AAD?$AAC?$AAC?$AAT?$AAR?$AAL?$AA1?$AA?5?$AA0?$AAx?$AA?$CF?$AA0?$AA2?$AAX?$AA?5?$AA?$AN?$AA?6?$AA?$AA@|
  015cc		 |$LN208@MenelausIn|
  015cc	00000000	 DCD         |??_C@_1CK@PCAADELF@?$AAV?$AAC?$AAO?$AAR?$AAE?$AAC?$AAT?$AAR?$AAL?$AA5?$AA?5?$AA0?$AAx?$AA?$CF?$AA0?$AA2?$AAX?$AA?5?$AA?$AN?$AA?6?$AA?$AA@|
  015d0		 |$LN209@MenelausIn|
  015d0	00000000	 DCD         |??_C@_1CK@HDCFFBJC@?$AAV?$AAC?$AAO?$AAR?$AAE?$AAC?$AAT?$AAR?$AAL?$AA4?$AA?5?$AA0?$AAx?$AA?$CF?$AA0?$AA2?$AAX?$AA?5?$AA?$AN?$AA?6?$AA?$AA@|
  015d4		 |$LN210@MenelausIn|
  015d4	00000000	 DCD         |??_C@_1CK@ECDNGGOF@?$AAV?$AAC?$AAO?$AAR?$AAE?$AAC?$AAT?$AAR?$AAL?$AA3?$AA?5?$AA0?$AAx?$AA?$CF?$AA0?$AA2?$AAX?$AA?5?$AA?$AN?$AA?6?$AA?$AA@|
  015d8		 |$M36906|

			 ENDP  ; |?MenelausInit@CMenelaus@@QAAHXZ|, CMenelaus::MenelausInit

	IMPORT	|LocalFree|
	IMPORT	|DeviceIoControl|
	IMPORT	|CloseHandle|
	IMPORT	|LocalAlloc|
	IMPORT	|CreateFileW|
; File c:\wince600\platform\common\src\soc\omap2420_ms_v1\inc\i2c.h

  00000			 AREA	 |.pdata|, PDATA
|$T36987| DCD	|$LN11@I2COpen|
	DCD	0x40004b04
; Function compile flags: /Odtp

  00000			 AREA	 |.text|, CODE, ARM

  00000		 |I2COpen| PROC

; 86   : {

  00000		 |$LN11@I2COpen|
  00000	e1a0c00d	 mov         r12, sp
  00004	e92d0001	 stmdb       sp!, {r0}
  00008	e92d5000	 stmdb       sp!, {r12, lr}
  0000c	e24dd044	 sub         sp, sp, #0x44
  00010		 |$M36984|

; 87   :     HANDLE hDevice;
; 88   :     DEVICE_CONTEXT_I2C *pContext = NULL;

  00010	e3a03000	 mov         r3, #0
  00014	e58d3014	 str         r3, [sp, #0x14]

; 89   : 
; 90   :     hDevice = CreateFile(devicename, 0, 0, NULL, 0, 0, NULL);

  00018	e3a03000	 mov         r3, #0
  0001c	e58d3008	 str         r3, [sp, #8]
  00020	e3a03000	 mov         r3, #0
  00024	e58d3004	 str         r3, [sp, #4]
  00028	e3a03000	 mov         r3, #0
  0002c	e58d3000	 str         r3, [sp]
  00030	e3a03000	 mov         r3, #0
  00034	e3a02000	 mov         r2, #0
  00038	e3a01000	 mov         r1, #0
  0003c	e59d004c	 ldr         r0, [sp, #0x4C]
  00040	eb000000	 bl          CreateFileW
  00044	e58d0038	 str         r0, [sp, #0x38]
  00048	e59d3038	 ldr         r3, [sp, #0x38]
  0004c	e58d3010	 str         r3, [sp, #0x10]

; 91   :     if (hDevice == INVALID_HANDLE_VALUE) goto clean;

  00050	e59d3010	 ldr         r3, [sp, #0x10]
  00054	e3730001	 cmn         r3, #1
  00058	1a000001	 bne         |$LN6@I2COpen|
  0005c	ea00002b	 b           |$LN5@I2COpen|
  00060	ea00002a	 b           |$clean$33303|
  00064		 |$LN6@I2COpen|

; 92   : 
; 93   :     // Allocate memory for our handler...
; 94   :     if ((pContext = (DEVICE_CONTEXT_I2C *)LocalAlloc(
; 95   :         LPTR, sizeof(DEVICE_CONTEXT_I2C)
; 96   :     )) == NULL) {

  00064	e3a01010	 mov         r1, #0x10
  00068	e3a00040	 mov         r0, #0x40
  0006c	eb000000	 bl          LocalAlloc
  00070	e58d003c	 str         r0, [sp, #0x3C]
  00074	e59d303c	 ldr         r3, [sp, #0x3C]
  00078	e58d3014	 str         r3, [sp, #0x14]
  0007c	e59d3014	 ldr         r3, [sp, #0x14]
  00080	e3530000	 cmp         r3, #0
  00084	1a000003	 bne         |$LN4@I2COpen|

; 97   :         CloseHandle(hDevice);

  00088	e59d0010	 ldr         r0, [sp, #0x10]
  0008c	eb000000	 bl          CloseHandle
  00090	ea00001e	 b           |$LN3@I2COpen|

; 98   :         goto clean;

  00094	ea00001d	 b           |$clean$33303|
  00098		 |$LN4@I2COpen|

; 99   :     }
; 100  : 
; 101  :     // Get function pointers, fail when IOCTL isn't supported...
; 102  :     if (!DeviceIoControl(
; 103  :         hDevice, IOCTL_DDK_GET_DRIVER_IFC, (VOID*)&DEVICE_IFC_I2C_GUID,
; 104  :         sizeof(DEVICE_IFC_I2C_GUID), &pContext->ifc, sizeof(DEVICE_IFC_I2C),
; 105  :         NULL, NULL
; 106  :     )) {

  00098	e3a03000	 mov         r3, #0
  0009c	e58d300c	 str         r3, [sp, #0xC]
  000a0	e3a03000	 mov         r3, #0
  000a4	e58d3008	 str         r3, [sp, #8]
  000a8	e3a0300c	 mov         r3, #0xC
  000ac	e58d3004	 str         r3, [sp, #4]
  000b0	e59d3014	 ldr         r3, [sp, #0x14]
  000b4	e58d3000	 str         r3, [sp]
  000b8	e3a03010	 mov         r3, #0x10
  000bc	e59f2064	 ldr         r2, [pc, #0x64]
  000c0	e3a01822	 mov         r1, #0x22, 16
  000c4	e3811b01	 orr         r1, r1, #1, 22
  000c8	e59d0010	 ldr         r0, [sp, #0x10]
  000cc	eb000000	 bl          DeviceIoControl
  000d0	e58d0040	 str         r0, [sp, #0x40]
  000d4	e59d3040	 ldr         r3, [sp, #0x40]
  000d8	e3530000	 cmp         r3, #0
  000dc	1a000007	 bne         |$LN2@I2COpen|

; 107  :         CloseHandle(hDevice);

  000e0	e59d0010	 ldr         r0, [sp, #0x10]
  000e4	eb000000	 bl          CloseHandle

; 108  :         LocalFree(pContext);

  000e8	e59d0014	 ldr         r0, [sp, #0x14]
  000ec	eb000000	 bl          LocalFree

; 109  :         pContext = NULL;

  000f0	e3a03000	 mov         r3, #0
  000f4	e58d3014	 str         r3, [sp, #0x14]
  000f8	ea000004	 b           |$LN1@I2COpen|

; 110  :         goto clean;

  000fc	ea000003	 b           |$clean$33303|
  00100		 |$LN2@I2COpen|

; 111  :     }
; 112  : 
; 113  :     // Save device handle
; 114  :     pContext->hDevice = hDevice;

  00100	e59d3014	 ldr         r3, [sp, #0x14]
  00104	e283200c	 add         r2, r3, #0xC
  00108	e59d3010	 ldr         r3, [sp, #0x10]
  0010c	e5823000	 str         r3, [r2]
  00110		 |$LN1@I2COpen|
  00110		 |$LN3@I2COpen|
  00110		 |$LN5@I2COpen|
  00110		 |$clean$33303|

; 115  : 
; 116  : clean:
; 117  :     return pContext;

  00110	e59d3014	 ldr         r3, [sp, #0x14]
  00114	e58d3034	 str         r3, [sp, #0x34]

; 118  : }

  00118	e59d0034	 ldr         r0, [sp, #0x34]
  0011c	e28dd044	 add         sp, sp, #0x44
  00120	e89d6000	 ldmia       sp, {sp, lr}
  00124	e12fff1e	 bx          lr
  00128		 |$LN12@I2COpen|
  00128		 |$LN13@I2COpen|
  00128	00000000	 DCD         |DEVICE_IFC_I2C_GUID|
  0012c		 |$M36985|

			 ENDP  ; |I2COpen|


  00000			 AREA	 |.pdata|, PDATA
|$T36997| DCD	|$LN5@I2CSetSlav|
	DCD	0x40001604
; Function compile flags: /Odtp

  00000			 AREA	 |.text|, CODE, ARM

  00000		 |I2CSetSlaveAddress| PROC

; 132  : {

  00000		 |$LN5@I2CSetSlav|
  00000	e1a0c00d	 mov         r12, sp
  00004	e92d0007	 stmdb       sp!, {r0 - r2}
  00008	e92d5000	 stmdb       sp!, {r12, lr}
  0000c	e24dd00c	 sub         sp, sp, #0xC
  00010		 |$M36994|

; 133  :     DEVICE_CONTEXT_I2C *pContext = (DEVICE_CONTEXT_I2C *)hContext;

  00010	e59d3014	 ldr         r3, [sp, #0x14]
  00014	e58d3000	 str         r3, [sp]

; 134  :     return pContext->ifc.pfnSetSlaveAddress(pContext->ifc.context, size, address);

  00018	e59d201c	 ldr         r2, [sp, #0x1C]
  0001c	e59d1018	 ldr         r1, [sp, #0x18]
  00020	e59d3000	 ldr         r3, [sp]
  00024	e5930000	 ldr         r0, [r3]
  00028	e59d3000	 ldr         r3, [sp]
  0002c	e2833004	 add         r3, r3, #4
  00030	e5933000	 ldr         r3, [r3]
  00034	e1a0e00f	 mov         lr, pc
  00038	e12fff13	 bx          r3
  0003c	e58d0008	 str         r0, [sp, #8]
  00040	e59d3008	 ldr         r3, [sp, #8]
  00044	e58d3004	 str         r3, [sp, #4]

; 135  : }

  00048	e59d0004	 ldr         r0, [sp, #4]
  0004c	e28dd00c	 add         sp, sp, #0xC
  00050	e89d6000	 ldmia       sp, {sp, lr}
  00054	e12fff1e	 bx          lr
  00058		 |$M36995|

			 ENDP  ; |I2CSetSlaveAddress|

	EXPORT	|I2CClose|
	EXPORT	|??_C@_1IC@NCCBOLAI@?$AAC?$AAM?$AAe?$AAn?$AAe?$AAl?$AAa?$AAu?$AAs?$AA?3?$AA?3?$AAM?$AAe?$AAn?$AAe?$AAl?$AAa?$AAu?$AAs?$AAD?$AAe?$AAi?$AAn?$AAi?$AAt?$AA?3?$AA?5?$AAD?$AAe?$AA?9?$AAI?$AAn@| [ DATA ] ; `string'

  00018			 AREA	 |.pdata|, PDATA
|$T37007| DCD	|$LN8@MenelausDe|
	DCD	0x40004804
; File c:\wince600\platform\common\src\soc\omap2420_ms_v1\sdhc\impl\menelaus.cpp

  00000			 AREA	 |.rdata|, DATA, READONLY
|??_C@_1IC@NCCBOLAI@?$AAC?$AAM?$AAe?$AAn?$AAe?$AAl?$AAa?$AAu?$AAs?$AA?3?$AA?3?$AAM?$AAe?$AAn?$AAe?$AAl?$AAa?$AAu?$AAs?$AAD?$AAe?$AAi?$AAn?$AAi?$AAt?$AA?3?$AA?5?$AAD?$AAe?$AA?9?$AAI?$AAn@| DCB "C"
	DCB	0x0, "M", 0x0, "e", 0x0, "n", 0x0, "e", 0x0, "l", 0x0, "a"
	DCB	0x0, "u", 0x0, "s", 0x0, ":", 0x0, ":", 0x0, "M", 0x0, "e"
	DCB	0x0, "n", 0x0, "e", 0x0, "l", 0x0, "a", 0x0, "u", 0x0, "s"
	DCB	0x0, "D", 0x0, "e", 0x0, "i", 0x0, "n", 0x0, "i", 0x0, "t"
	DCB	0x0, ":", 0x0, " ", 0x0, "D", 0x0, "e", 0x0, "-", 0x0, "I"
	DCB	0x0, "n", 0x0, "i", 0x0, "t", 0x0, "i", 0x0, "a", 0x0, "l"
	DCB	0x0, "i", 0x0, "z", 0x0, "e", 0x0, " ", 0x0, "H", 0x0, "a"
	DCB	0x0, "r", 0x0, "d", 0x0, "w", 0x0, "a", 0x0, "r", 0x0, "e"
	DCB	0x0, " ", 0x0, "&", 0x0, " ", 0x0, "I", 0x0, "n", 0x0, "t"
	DCB	0x0, "e", 0x0, "r", 0x0, "r", 0x0, "u", 0x0, "p", 0x0, "t"
	DCB	0x0, "s", 0x0, 0xd, 0x0, 0xa, 0x0, 0x0, 0x0 ; `string'
; Function compile flags: /Odtp

  015d8			 AREA	 |.text|, CODE, ARM

  015d8		 |?MenelausDeinit@CMenelaus@@QAAHXZ| PROC ; CMenelaus::MenelausDeinit

; 273  : {

  015d8		 |$LN8@MenelausDe|
  015d8	e1a0c00d	 mov         r12, sp
  015dc	e92d0001	 stmdb       sp!, {r0}
  015e0	e92d5000	 stmdb       sp!, {r12, lr}
  015e4	e24dd008	 sub         sp, sp, #8
  015e8		 |$M37004|

; 274  :     if (m_hI2C != NULL)

  015e8	e59d3010	 ldr         r3, [sp, #0x10]
  015ec	e5933000	 ldr         r3, [r3]
  015f0	e3530000	 cmp         r3, #0
  015f4	0a000037	 beq         |$LN1@MenelausDe|

; 275  :     {
; 276  :         DEBUGMSG(SDCARD_ZONE_FUNC, (L"CMenelaus::MenelausDeinit: "
; 277  :             L"De-Initialize Hardware & Interrupts\r\n"
; 278  :         ));

  015f8	e59f30f4	 ldr         r3, [pc, #0xF4]
  015fc	e5933440	 ldr         r3, [r3, #0x440]
  01600	e3130b02	 tst         r3, #2, 22
  01604	0a000004	 beq         |$LN4@MenelausDe|
  01608	e59f00e0	 ldr         r0, [pc, #0xE0]
  0160c	eb000000	 bl          NKDbgPrintfW
  01610	e3a03001	 mov         r3, #1
  01614	e58d3004	 str         r3, [sp, #4]
  01618	ea000001	 b           |$LN5@MenelausDe|
  0161c		 |$LN4@MenelausDe|
  0161c	e3a03000	 mov         r3, #0
  01620	e58d3004	 str         r3, [sp, #4]
  01624		 |$LN5@MenelausDe|

; 279  : 
; 280  :         // turn off power to slots
; 281  :         WriteData(MENELAUS_DCDCCTRL3_OFFSET, (DCDC3_MODE_OFF));

  01624	e3a02000	 mov         r2, #0
  01628	e3a01009	 mov         r1, #9
  0162c	e59d0010	 ldr         r0, [sp, #0x10]
  01630	eb000000	 bl          |?WriteData@CMenelaus@@AAAHEE@Z|

; 282  :         WriteData(MENELAUS_LD0CTRL7_OFFSET, (VMMC_MODE_OFF));

  01634	e3a02000	 mov         r2, #0
  01638	e3a01010	 mov         r1, #0x10
  0163c	e59d0010	 ldr         r0, [sp, #0x10]
  01640	eb000000	 bl          |?WriteData@CMenelaus@@AAAHEE@Z|

; 283  :         
; 284  :         // MCT Control Reg 3
; 285  :         // disable slots 1 & 2
; 286  :         WriteData(MENELAUS_MCTCTRL3_OFFSET, 0x00);

  01644	e3a02000	 mov         r2, #0
  01648	e3a01038	 mov         r1, #0x38
  0164c	e59d0010	 ldr         r0, [sp, #0x10]
  01650	eb000000	 bl          |?WriteData@CMenelaus@@AAAHEE@Z|

; 287  : 
; 288  :         // Clear & Mask MTC Menelaus Interrupts
; 289  :         ClearMenelausIrq(IRQ_MENELAUS_CD1);

  01654	e3a01064	 mov         r1, #0x64
  01658	e59d0010	 ldr         r0, [sp, #0x10]
  0165c	eb000000	 bl          |?ClearMenelausIrq@CMenelaus@@AAAHI@Z|

; 290  :         MaskMenelausIrq(IRQ_MENELAUS_CD1);

  01660	e3a01064	 mov         r1, #0x64
  01664	e59d0010	 ldr         r0, [sp, #0x10]
  01668	eb000000	 bl          |?MaskMenelausIrq@CMenelaus@@AAAHI@Z|

; 291  :         ClearMenelausIrq(IRQ_MENELAUS_CD2);

  0166c	e3a01065	 mov         r1, #0x65
  01670	e59d0010	 ldr         r0, [sp, #0x10]
  01674	eb000000	 bl          |?ClearMenelausIrq@CMenelaus@@AAAHI@Z|

; 292  :         MaskMenelausIrq(IRQ_MENELAUS_CD2);

  01678	e3a01065	 mov         r1, #0x65
  0167c	e59d0010	 ldr         r0, [sp, #0x10]
  01680	eb000000	 bl          |?MaskMenelausIrq@CMenelaus@@AAAHI@Z|

; 293  :         ClearMenelausIrq(IRQ_MENELAUS_DL1);

  01684	e3a01066	 mov         r1, #0x66
  01688	e59d0010	 ldr         r0, [sp, #0x10]
  0168c	eb000000	 bl          |?ClearMenelausIrq@CMenelaus@@AAAHI@Z|

; 294  :         MaskMenelausIrq(IRQ_MENELAUS_DL1);

  01690	e3a01066	 mov         r1, #0x66
  01694	e59d0010	 ldr         r0, [sp, #0x10]
  01698	eb000000	 bl          |?MaskMenelausIrq@CMenelaus@@AAAHI@Z|

; 295  :         ClearMenelausIrq(IRQ_MENELAUS_DL2);

  0169c	e3a01067	 mov         r1, #0x67
  016a0	e59d0010	 ldr         r0, [sp, #0x10]
  016a4	eb000000	 bl          |?ClearMenelausIrq@CMenelaus@@AAAHI@Z|

; 296  :         MaskMenelausIrq(IRQ_MENELAUS_DL2);

  016a8	e3a01067	 mov         r1, #0x67
  016ac	e59d0010	 ldr         r0, [sp, #0x10]
  016b0	eb000000	 bl          |?MaskMenelausIrq@CMenelaus@@AAAHI@Z|

; 297  : 
; 298  :         I2CClose(m_hI2C);

  016b4	e59d3010	 ldr         r3, [sp, #0x10]
  016b8	e5930000	 ldr         r0, [r3]
  016bc	eb000000	 bl          I2CClose

; 299  :         m_hI2C = NULL;

  016c0	e59d2010	 ldr         r2, [sp, #0x10]
  016c4	e3a03000	 mov         r3, #0
  016c8	e5823000	 str         r3, [r2]

; 300  : 
; 301  :         return TRUE;

  016cc	e3a03001	 mov         r3, #1
  016d0	e58d3000	 str         r3, [sp]
  016d4	ea000001	 b           |$LN2@MenelausDe|
  016d8		 |$LN1@MenelausDe|

; 302  :     }
; 303  : 
; 304  :     return FALSE;

  016d8	e3a03000	 mov         r3, #0
  016dc	e58d3000	 str         r3, [sp]
  016e0		 |$LN2@MenelausDe|

; 305  : }

  016e0	e59d0000	 ldr         r0, [sp]
  016e4	e28dd008	 add         sp, sp, #8
  016e8	e89d6000	 ldmia       sp, {sp, lr}
  016ec	e12fff1e	 bx          lr
  016f0		 |$LN9@MenelausDe|
  016f0		 |$LN10@MenelausDe|
  016f0	00000000	 DCD         |??_C@_1IC@NCCBOLAI@?$AAC?$AAM?$AAe?$AAn?$AAe?$AAl?$AAa?$AAu?$AAs?$AA?3?$AA?3?$AAM?$AAe?$AAn?$AAe?$AAl?$AAa?$AAu?$AAs?$AAD?$AAe?$AAi?$AAn?$AAi?$AAt?$AA?3?$AA?5?$AAD?$AAe?$AA?9?$AAI?$AAn@|
  016f4		 |$LN11@MenelausDe|
  016f4	00000000	 DCD         |dpCurSettings|
  016f8		 |$M37005|

			 ENDP  ; |?MenelausDeinit@CMenelaus@@QAAHXZ|, CMenelaus::MenelausDeinit

; File c:\wince600\platform\common\src\soc\omap2420_ms_v1\inc\i2c.h

  00000			 AREA	 |.pdata|, PDATA
|$T37015| DCD	|$LN7@I2CClose|
	DCD	0x40001a04
; Function compile flags: /Odtp

  00000			 AREA	 |.text|, CODE, ARM

  00000		 |I2CClose| PROC

; 121  : {

  00000		 |$LN7@I2CClose|
  00000	e1a0c00d	 mov         r12, sp
  00004	e92d0001	 stmdb       sp!, {r0}
  00008	e92d5000	 stmdb       sp!, {r12, lr}
  0000c	e24dd004	 sub         sp, sp, #4
  00010		 |$M37012|

; 122  :     DEVICE_CONTEXT_I2C *pContext = (DEVICE_CONTEXT_I2C *)hContext;

  00010	e59d300c	 ldr         r3, [sp, #0xC]
  00014	e58d3000	 str         r3, [sp]

; 123  : 
; 124  :     if ( (pContext != NULL) && (pContext->hDevice != INVALID_HANDLE_VALUE) )

  00018	e59d3000	 ldr         r3, [sp]
  0001c	e3530000	 cmp         r3, #0
  00020	0a000008	 beq         |$LN2@I2CClose|
  00024	e59d3000	 ldr         r3, [sp]
  00028	e283300c	 add         r3, r3, #0xC
  0002c	e5933000	 ldr         r3, [r3]
  00030	e3730001	 cmn         r3, #1
  00034	0a000003	 beq         |$LN2@I2CClose|

; 125  :         CloseHandle(pContext->hDevice);

  00038	e59d3000	 ldr         r3, [sp]
  0003c	e283300c	 add         r3, r3, #0xC
  00040	e5930000	 ldr         r0, [r3]
  00044	eb000000	 bl          CloseHandle
  00048		 |$LN2@I2CClose|

; 126  : 
; 127  :     if (pContext != NULL)

  00048	e59d3000	 ldr         r3, [sp]
  0004c	e3530000	 cmp         r3, #0
  00050	0a000001	 beq         |$LN1@I2CClose|

; 128  :         LocalFree(pContext);

  00054	e59d0000	 ldr         r0, [sp]
  00058	eb000000	 bl          LocalFree
  0005c		 |$LN1@I2CClose|

; 129  : }

  0005c	e28dd004	 add         sp, sp, #4
  00060	e89d6000	 ldmia       sp, {sp, lr}
  00064	e12fff1e	 bx          lr
  00068		 |$M37013|

			 ENDP  ; |I2CClose|

	EXPORT	|??_C@_1DG@JPNLDJPK@?$AA?9?$AAC?$AAM?$AAe?$AAn?$AAe?$AAl?$AAa?$AAu?$AAs?$AA?3?$AA?3?$AAS?$AAl?$AAo?$AAt?$AAs?$AAE?$AAn?$AAa?$AAb?$AAl?$AAe?$AAd?$AA?$AN?$AA?6?$AA?$AA@| [ DATA ] ; `string'
	EXPORT	|??_C@_1GA@KAJCCCMH@?$AAC?$AAM?$AAe?$AAn?$AAe?$AAl?$AAa?$AAu?$AAs?$AA?3?$AA?3?$AAS?$AAl?$AAo?$AAt?$AAs?$AAE?$AAn?$AAa?$AAb?$AAl?$AAe?$AAd?$AA?3?$AA?5?$AAF?$AAa?$AAi?$AAl?$AAe?$AAd?$AA?5@| [ DATA ] ; `string'
	EXPORT	|??_C@_1DG@JKAGMMEO@?$AA?$CL?$AAC?$AAM?$AAe?$AAn?$AAe?$AAl?$AAa?$AAu?$AAs?$AA?3?$AA?3?$AAS?$AAl?$AAo?$AAt?$AAs?$AAE?$AAn?$AAa?$AAb?$AAl?$AAe?$AAd?$AA?$AN?$AA?6?$AA?$AA@| [ DATA ] ; `string'
	EXPORT	|?SlotsEnabled@CMenelaus@@QAAHXZ|	; CMenelaus::SlotsEnabled

  00020			 AREA	 |.pdata|, PDATA
|$T37037| DCD	|$LN21@SlotsEnabl|
	DCD	0x4000a004
; File c:\wince600\platform\common\src\soc\omap2420_ms_v1\sdhc\impl\menelaus.cpp

  00000			 AREA	 |.rdata|, DATA, READONLY
|??_C@_1DG@JPNLDJPK@?$AA?9?$AAC?$AAM?$AAe?$AAn?$AAe?$AAl?$AAa?$AAu?$AAs?$AA?3?$AA?3?$AAS?$AAl?$AAo?$AAt?$AAs?$AAE?$AAn?$AAa?$AAb?$AAl?$AAe?$AAd?$AA?$AN?$AA?6?$AA?$AA@| DCB "-"
	DCB	0x0, "C", 0x0, "M", 0x0, "e", 0x0, "n", 0x0, "e", 0x0, "l"
	DCB	0x0, "a", 0x0, "u", 0x0, "s", 0x0, ":", 0x0, ":", 0x0, "S"
	DCB	0x0, "l", 0x0, "o", 0x0, "t", 0x0, "s", 0x0, "E", 0x0, "n"
	DCB	0x0, "a", 0x0, "b", 0x0, "l", 0x0, "e", 0x0, "d", 0x0, 0xd
	DCB	0x0, 0xa, 0x0, 0x0, 0x0			; `string'

  00000			 AREA	 |.rdata|, DATA, READONLY
|??_C@_1GA@KAJCCCMH@?$AAC?$AAM?$AAe?$AAn?$AAe?$AAl?$AAa?$AAu?$AAs?$AA?3?$AA?3?$AAS?$AAl?$AAo?$AAt?$AAs?$AAE?$AAn?$AAa?$AAb?$AAl?$AAe?$AAd?$AA?3?$AA?5?$AAF?$AAa?$AAi?$AAl?$AAe?$AAd?$AA?5@| DCB "C"
	DCB	0x0, "M", 0x0, "e", 0x0, "n", 0x0, "e", 0x0, "l", 0x0, "a"
	DCB	0x0, "u", 0x0, "s", 0x0, ":", 0x0, ":", 0x0, "S", 0x0, "l"
	DCB	0x0, "o", 0x0, "t", 0x0, "s", 0x0, "E", 0x0, "n", 0x0, "a"
	DCB	0x0, "b", 0x0, "l", 0x0, "e", 0x0, "d", 0x0, ":", 0x0, " "
	DCB	0x0, "F", 0x0, "a", 0x0, "i", 0x0, "l", 0x0, "e", 0x0, "d"
	DCB	0x0, " ", 0x0, "S", 0x0, "l", 0x0, "o", 0x0, "t", 0x0, "s"
	DCB	0x0, "E", 0x0, "n", 0x0, "a", 0x0, "b", 0x0, "l", 0x0, "e"
	DCB	0x0, "d", 0x0, " ", 0x0, 0xd, 0x0, 0xa, 0x0, 0x0, 0x0 ; `string'

  00000			 AREA	 |.rdata|, DATA, READONLY
|??_C@_1DG@JKAGMMEO@?$AA?$CL?$AAC?$AAM?$AAe?$AAn?$AAe?$AAl?$AAa?$AAu?$AAs?$AA?3?$AA?3?$AAS?$AAl?$AAo?$AAt?$AAs?$AAE?$AAn?$AAa?$AAb?$AAl?$AAe?$AAd?$AA?$AN?$AA?6?$AA?$AA@| DCB "+"
	DCB	0x0, "C", 0x0, "M", 0x0, "e", 0x0, "n", 0x0, "e", 0x0, "l"
	DCB	0x0, "a", 0x0, "u", 0x0, "s", 0x0, ":", 0x0, ":", 0x0, "S"
	DCB	0x0, "l", 0x0, "o", 0x0, "t", 0x0, "s", 0x0, "E", 0x0, "n"
	DCB	0x0, "a", 0x0, "b", 0x0, "l", 0x0, "e", 0x0, "d", 0x0, 0xd
	DCB	0x0, 0xa, 0x0, 0x0, 0x0			; `string'
; Function compile flags: /Odtp

  016f8			 AREA	 |.text|, CODE, ARM

  016f8		 |?SlotsEnabled@CMenelaus@@QAAHXZ| PROC	; CMenelaus::SlotsEnabled

; 313  : {

  016f8		 |$LN21@SlotsEnabl|
  016f8	e1a0c00d	 mov         r12, sp
  016fc	e92d0001	 stmdb       sp!, {r0}
  01700	e92d5000	 stmdb       sp!, {r12, lr}
  01704	e24dd038	 sub         sp, sp, #0x38
  01708		 |$M37034|

; 314  :     DEBUGMSG(SDCARD_ZONE_FUNC, (L"+CMenelaus::SlotsEnabled\r\n"));

  01708	e59f324c	 ldr         r3, [pc, #0x24C]
  0170c	e5933440	 ldr         r3, [r3, #0x440]
  01710	e3130b02	 tst         r3, #2, 22
  01714	0a000004	 beq         |$LN5@SlotsEnabl|
  01718	e59f0254	 ldr         r0, [pc, #0x254]
  0171c	eb000000	 bl          NKDbgPrintfW
  01720	e3a03001	 mov         r3, #1
  01724	e58d3008	 str         r3, [sp, #8]
  01728	ea000001	 b           |$LN6@SlotsEnabl|
  0172c		 |$LN5@SlotsEnabl|
  0172c	e3a03000	 mov         r3, #0
  01730	e58d3008	 str         r3, [sp, #8]
  01734		 |$LN6@SlotsEnabl|

; 315  : 
; 316  :     // de-select both slots
; 317  :     if (!WriteData(MENELAUS_MCTCTRL3_OFFSET, 0x00) ||
; 318  :         !UnMaskMenelausIrq(IRQ_MENELAUS_CD1) ||
; 319  :         !UnMaskMenelausIrq(IRQ_MENELAUS_CD2) ||
; 320  :         !UnMaskMenelausIrq(IRQ_MENELAUS_DL1) ||
; 321  :         !UnMaskMenelausIrq(IRQ_MENELAUS_DL2))

  01734	e3a02000	 mov         r2, #0
  01738	e3a01038	 mov         r1, #0x38
  0173c	e59d0040	 ldr         r0, [sp, #0x40]
  01740	eb000000	 bl          |?WriteData@CMenelaus@@AAAHEE@Z|
  01744	e58d000c	 str         r0, [sp, #0xC]
  01748	e59d300c	 ldr         r3, [sp, #0xC]
  0174c	e3530000	 cmp         r3, #0
  01750	0a00001b	 beq         |$LN1@SlotsEnabl|
  01754	e3a01064	 mov         r1, #0x64
  01758	e59d0040	 ldr         r0, [sp, #0x40]
  0175c	eb000000	 bl          |?UnMaskMenelausIrq@CMenelaus@@AAAHI@Z|
  01760	e58d0010	 str         r0, [sp, #0x10]
  01764	e59d3010	 ldr         r3, [sp, #0x10]
  01768	e3530000	 cmp         r3, #0
  0176c	0a000014	 beq         |$LN1@SlotsEnabl|
  01770	e3a01065	 mov         r1, #0x65
  01774	e59d0040	 ldr         r0, [sp, #0x40]
  01778	eb000000	 bl          |?UnMaskMenelausIrq@CMenelaus@@AAAHI@Z|
  0177c	e58d0014	 str         r0, [sp, #0x14]
  01780	e59d3014	 ldr         r3, [sp, #0x14]
  01784	e3530000	 cmp         r3, #0
  01788	0a00000d	 beq         |$LN1@SlotsEnabl|
  0178c	e3a01066	 mov         r1, #0x66
  01790	e59d0040	 ldr         r0, [sp, #0x40]
  01794	eb000000	 bl          |?UnMaskMenelausIrq@CMenelaus@@AAAHI@Z|
  01798	e58d0018	 str         r0, [sp, #0x18]
  0179c	e59d3018	 ldr         r3, [sp, #0x18]
  017a0	e3530000	 cmp         r3, #0
  017a4	0a000006	 beq         |$LN1@SlotsEnabl|
  017a8	e3a01067	 mov         r1, #0x67
  017ac	e59d0040	 ldr         r0, [sp, #0x40]
  017b0	eb000000	 bl          |?UnMaskMenelausIrq@CMenelaus@@AAAHI@Z|
  017b4	e58d001c	 str         r0, [sp, #0x1C]
  017b8	e59d301c	 ldr         r3, [sp, #0x1C]
  017bc	e3530000	 cmp         r3, #0
  017c0	1a00000d	 bne         |$LN2@SlotsEnabl|
  017c4		 |$LN1@SlotsEnabl|

; 322  :     {
; 323  :         DEBUGMSG(SDCARD_ZONE_ERROR, (L"CMenelaus::SlotsEnabled: "
; 324  :             L"Failed SlotsEnabled \r\n"
; 325  :         ));

  017c4	e59f3190	 ldr         r3, [pc, #0x190]
  017c8	e5933440	 ldr         r3, [r3, #0x440]
  017cc	e3130902	 tst         r3, #2, 18
  017d0	0a000004	 beq         |$LN7@SlotsEnabl|
  017d4	e59f0194	 ldr         r0, [pc, #0x194]
  017d8	eb000000	 bl          NKDbgPrintfW
  017dc	e3a03001	 mov         r3, #1
  017e0	e58d3020	 str         r3, [sp, #0x20]
  017e4	ea000001	 b           |$LN8@SlotsEnabl|
  017e8		 |$LN7@SlotsEnabl|
  017e8	e3a03000	 mov         r3, #0
  017ec	e58d3020	 str         r3, [sp, #0x20]
  017f0		 |$LN8@SlotsEnabl|

; 326  :         return FALSE;

  017f0	e3a03000	 mov         r3, #0
  017f4	e58d3004	 str         r3, [sp, #4]
  017f8	ea000052	 b           |$LN3@SlotsEnabl|
  017fc		 |$LN2@SlotsEnabl|

; 327  :     }
; 328  : 
; 329  : #ifdef DEBUG
; 330  :     UCHAR pData = 0x00;

  017fc	e3a03000	 mov         r3, #0
  01800	e5cd3000	 strb        r3, [sp]

; 331  :     ReadData(MENELAUS_MCTCTRL1_OFFSET, &pData); DEBUGMSG(SDCARD_ZONE_INFO, (L"MCTCTRL1 0x%02X \r\n", pData));

  01804	e28d2000	 add         r2, sp, #0
  01808	e3a01036	 mov         r1, #0x36
  0180c	e59d0040	 ldr         r0, [sp, #0x40]
  01810	eb000000	 bl          |?ReadData@CMenelaus@@AAAHEPAE@Z|
  01814	e59f3140	 ldr         r3, [pc, #0x140]
  01818	e5933440	 ldr         r3, [r3, #0x440]
  0181c	e3130a01	 tst         r3, #1, 20
  01820	0a000006	 beq         |$LN9@SlotsEnabl|
  01824	e5dd3000	 ldrb        r3, [sp]
  01828	e1a01003	 mov         r1, r3
  0182c	e59f0138	 ldr         r0, [pc, #0x138]
  01830	eb000000	 bl          NKDbgPrintfW
  01834	e3a03001	 mov         r3, #1
  01838	e58d3024	 str         r3, [sp, #0x24]
  0183c	ea000001	 b           |$LN10@SlotsEnabl|
  01840		 |$LN9@SlotsEnabl|
  01840	e3a03000	 mov         r3, #0
  01844	e58d3024	 str         r3, [sp, #0x24]
  01848		 |$LN10@SlotsEnabl|

; 332  :     ReadData(MENELAUS_MCTCTRL2_OFFSET, &pData); DEBUGMSG(SDCARD_ZONE_INFO, (L"MCTCTRL2 0x%02X \r\n", pData));

  01848	e28d2000	 add         r2, sp, #0
  0184c	e3a01037	 mov         r1, #0x37
  01850	e59d0040	 ldr         r0, [sp, #0x40]
  01854	eb000000	 bl          |?ReadData@CMenelaus@@AAAHEPAE@Z|
  01858	e59f30fc	 ldr         r3, [pc, #0xFC]
  0185c	e5933440	 ldr         r3, [r3, #0x440]
  01860	e3130a01	 tst         r3, #1, 20
  01864	0a000006	 beq         |$LN11@SlotsEnabl|
  01868	e5dd3000	 ldrb        r3, [sp]
  0186c	e1a01003	 mov         r1, r3
  01870	e59f00f0	 ldr         r0, [pc, #0xF0]
  01874	eb000000	 bl          NKDbgPrintfW
  01878	e3a03001	 mov         r3, #1
  0187c	e58d3028	 str         r3, [sp, #0x28]
  01880	ea000001	 b           |$LN12@SlotsEnabl|
  01884		 |$LN11@SlotsEnabl|
  01884	e3a03000	 mov         r3, #0
  01888	e58d3028	 str         r3, [sp, #0x28]
  0188c		 |$LN12@SlotsEnabl|

; 333  :     ReadData(MENELAUS_MCTCTRL3_OFFSET, &pData); DEBUGMSG(SDCARD_ZONE_INFO, (L"MCTCTRL3 0x%02X \r\n", pData));

  0188c	e28d2000	 add         r2, sp, #0
  01890	e3a01038	 mov         r1, #0x38
  01894	e59d0040	 ldr         r0, [sp, #0x40]
  01898	eb000000	 bl          |?ReadData@CMenelaus@@AAAHEPAE@Z|
  0189c	e59f30b8	 ldr         r3, [pc, #0xB8]
  018a0	e5933440	 ldr         r3, [r3, #0x440]
  018a4	e3130a01	 tst         r3, #1, 20
  018a8	0a000006	 beq         |$LN13@SlotsEnabl|
  018ac	e5dd3000	 ldrb        r3, [sp]
  018b0	e1a01003	 mov         r1, r3
  018b4	e59f00a8	 ldr         r0, [pc, #0xA8]
  018b8	eb000000	 bl          NKDbgPrintfW
  018bc	e3a03001	 mov         r3, #1
  018c0	e58d302c	 str         r3, [sp, #0x2C]
  018c4	ea000001	 b           |$LN14@SlotsEnabl|
  018c8		 |$LN13@SlotsEnabl|
  018c8	e3a03000	 mov         r3, #0
  018cc	e58d302c	 str         r3, [sp, #0x2C]
  018d0		 |$LN14@SlotsEnabl|

; 334  :     ReadData(MENELAUS_MCTPINST_OFFSET, &pData); DEBUGMSG(SDCARD_ZONE_INFO, (L"MCTPINST 0x%02X \r\n", pData));

  018d0	e28d2000	 add         r2, sp, #0
  018d4	e3a01039	 mov         r1, #0x39
  018d8	e59d0040	 ldr         r0, [sp, #0x40]
  018dc	eb000000	 bl          |?ReadData@CMenelaus@@AAAHEPAE@Z|
  018e0	e59f3074	 ldr         r3, [pc, #0x74]
  018e4	e5933440	 ldr         r3, [r3, #0x440]
  018e8	e3130a01	 tst         r3, #1, 20
  018ec	0a000006	 beq         |$LN15@SlotsEnabl|
  018f0	e5dd3000	 ldrb        r3, [sp]
  018f4	e1a01003	 mov         r1, r3
  018f8	e59f0060	 ldr         r0, [pc, #0x60]
  018fc	eb000000	 bl          NKDbgPrintfW
  01900	e3a03001	 mov         r3, #1
  01904	e58d3030	 str         r3, [sp, #0x30]
  01908	ea000001	 b           |$LN16@SlotsEnabl|
  0190c		 |$LN15@SlotsEnabl|
  0190c	e3a03000	 mov         r3, #0
  01910	e58d3030	 str         r3, [sp, #0x30]
  01914		 |$LN16@SlotsEnabl|

; 335  : #endif
; 336  : 
; 337  :     DEBUGMSG(SDCARD_ZONE_FUNC, (L"-CMenelaus::SlotsEnabled\r\n"));

  01914	e59f3040	 ldr         r3, [pc, #0x40]
  01918	e5933440	 ldr         r3, [r3, #0x440]
  0191c	e3130b02	 tst         r3, #2, 22
  01920	0a000004	 beq         |$LN17@SlotsEnabl|
  01924	e59f002c	 ldr         r0, [pc, #0x2C]
  01928	eb000000	 bl          NKDbgPrintfW
  0192c	e3a03001	 mov         r3, #1
  01930	e58d3034	 str         r3, [sp, #0x34]
  01934	ea000001	 b           |$LN18@SlotsEnabl|
  01938		 |$LN17@SlotsEnabl|
  01938	e3a03000	 mov         r3, #0
  0193c	e58d3034	 str         r3, [sp, #0x34]
  01940		 |$LN18@SlotsEnabl|

; 338  :     return TRUE;

  01940	e3a03001	 mov         r3, #1
  01944	e58d3004	 str         r3, [sp, #4]
  01948		 |$LN3@SlotsEnabl|

; 339  : }

  01948	e59d0004	 ldr         r0, [sp, #4]
  0194c	e28dd038	 add         sp, sp, #0x38
  01950	e89d6000	 ldmia       sp, {sp, lr}
  01954	e12fff1e	 bx          lr
  01958		 |$LN22@SlotsEnabl|
  01958		 |$LN23@SlotsEnabl|
  01958	00000000	 DCD         |??_C@_1DG@JPNLDJPK@?$AA?9?$AAC?$AAM?$AAe?$AAn?$AAe?$AAl?$AAa?$AAu?$AAs?$AA?3?$AA?3?$AAS?$AAl?$AAo?$AAt?$AAs?$AAE?$AAn?$AAa?$AAb?$AAl?$AAe?$AAd?$AA?$AN?$AA?6?$AA?$AA@|
  0195c		 |$LN24@SlotsEnabl|
  0195c	00000000	 DCD         |dpCurSettings|
  01960		 |$LN25@SlotsEnabl|
  01960	00000000	 DCD         |??_C@_1CG@GECGGHNN@?$AAM?$AAC?$AAT?$AAP?$AAI?$AAN?$AAS?$AAT?$AA?5?$AA0?$AAx?$AA?$CF?$AA0?$AA2?$AAX?$AA?5?$AA?$AN?$AA?6?$AA?$AA@|
  01964		 |$LN26@SlotsEnabl|
  01964	00000000	 DCD         |??_C@_1CG@OLJELPLG@?$AAM?$AAC?$AAT?$AAC?$AAT?$AAR?$AAL?$AA3?$AA?5?$AA0?$AAx?$AA?$CF?$AA0?$AA2?$AAX?$AA?5?$AA?$AN?$AA?6?$AA?$AA@|
  01968		 |$LN27@SlotsEnabl|
  01968	00000000	 DCD         |??_C@_1CG@GKLBNKJB@?$AAM?$AAC?$AAT?$AAC?$AAT?$AAR?$AAL?$AA2?$AA?5?$AA0?$AAx?$AA?$CF?$AA0?$AA2?$AAX?$AA?5?$AA?$AN?$AA?6?$AA?$AA@|
  0196c		 |$LN28@SlotsEnabl|
  0196c	00000000	 DCD         |??_C@_1CG@DCKPHDLJ@?$AAM?$AAC?$AAT?$AAC?$AAT?$AAR?$AAL?$AA1?$AA?5?$AA0?$AAx?$AA?$CF?$AA0?$AA2?$AAX?$AA?5?$AA?$AN?$AA?6?$AA?$AA@|
  01970		 |$LN29@SlotsEnabl|
  01970	00000000	 DCD         |??_C@_1GA@KAJCCCMH@?$AAC?$AAM?$AAe?$AAn?$AAe?$AAl?$AAa?$AAu?$AAs?$AA?3?$AA?3?$AAS?$AAl?$AAo?$AAt?$AAs?$AAE?$AAn?$AAa?$AAb?$AAl?$AAe?$AAd?$AA?3?$AA?5?$AAF?$AAa?$AAi?$AAl?$AAe?$AAd?$AA?5@|
  01974		 |$LN30@SlotsEnabl|
  01974	00000000	 DCD         |??_C@_1DG@JKAGMMEO@?$AA?$CL?$AAC?$AAM?$AAe?$AAn?$AAe?$AAl?$AAa?$AAu?$AAs?$AA?3?$AA?3?$AAS?$AAl?$AAo?$AAt?$AAs?$AAE?$AAn?$AAa?$AAb?$AAl?$AAe?$AAd?$AA?$AN?$AA?6?$AA?$AA@|
  01978		 |$M37035|

			 ENDP  ; |?SlotsEnabled@CMenelaus@@QAAHXZ|, CMenelaus::SlotsEnabled

	EXPORT	|??_C@_1EA@FIFBNGMF@?$AA?9?$AAC?$AAM?$AAe?$AAn?$AAe?$AAl?$AAa?$AAu?$AAs?$AA?3?$AA?3?$AAH?$AAa?$AAn?$AAd?$AAl?$AAe?$AAS?$AAl?$AAo?$AAt?$AA1?$AAI?$AAn?$AAs?$AAe?$AAr?$AAt?$AA?$AN?$AA?6?$AA?$AA@| [ DATA ] ; `string'
	EXPORT	|??_C@_1EA@MMANDHDJ@?$AA?$CL?$AAC?$AAM?$AAe?$AAn?$AAe?$AAl?$AAa?$AAu?$AAs?$AA?3?$AA?3?$AAH?$AAa?$AAn?$AAd?$AAl?$AAe?$AAS?$AAl?$AAo?$AAt?$AA1?$AAI?$AAn?$AAs?$AAe?$AAr?$AAt?$AA?$AN?$AA?6?$AA?$AA@| [ DATA ] ; `string'
	EXPORT	|?HandleSlot1Insert@CMenelaus@@QAAHXZ|	; CMenelaus::HandleSlot1Insert

  00028			 AREA	 |.pdata|, PDATA
|$T37056| DCD	|$LN11@HandleSlot|
	DCD	0x40003e04

  00000			 AREA	 |.rdata|, DATA, READONLY
|??_C@_1EA@FIFBNGMF@?$AA?9?$AAC?$AAM?$AAe?$AAn?$AAe?$AAl?$AAa?$AAu?$AAs?$AA?3?$AA?3?$AAH?$AAa?$AAn?$AAd?$AAl?$AAe?$AAS?$AAl?$AAo?$AAt?$AA1?$AAI?$AAn?$AAs?$AAe?$AAr?$AAt?$AA?$AN?$AA?6?$AA?$AA@| DCB "-"
	DCB	0x0, "C", 0x0, "M", 0x0, "e", 0x0, "n", 0x0, "e", 0x0, "l"
	DCB	0x0, "a", 0x0, "u", 0x0, "s", 0x0, ":", 0x0, ":", 0x0, "H"
	DCB	0x0, "a", 0x0, "n", 0x0, "d", 0x0, "l", 0x0, "e", 0x0, "S"
	DCB	0x0, "l", 0x0, "o", 0x0, "t", 0x0, "1", 0x0, "I", 0x0, "n"
	DCB	0x0, "s", 0x0, "e", 0x0, "r", 0x0, "t", 0x0, 0xd, 0x0, 0xa
	DCB	0x0, 0x0, 0x0				; `string'

  00000			 AREA	 |.rdata|, DATA, READONLY
|??_C@_1EA@MMANDHDJ@?$AA?$CL?$AAC?$AAM?$AAe?$AAn?$AAe?$AAl?$AAa?$AAu?$AAs?$AA?3?$AA?3?$AAH?$AAa?$AAn?$AAd?$AAl?$AAe?$AAS?$AAl?$AAo?$AAt?$AA1?$AAI?$AAn?$AAs?$AAe?$AAr?$AAt?$AA?$AN?$AA?6?$AA?$AA@| DCB "+"
	DCB	0x0, "C", 0x0, "M", 0x0, "e", 0x0, "n", 0x0, "e", 0x0, "l"
	DCB	0x0, "a", 0x0, "u", 0x0, "s", 0x0, ":", 0x0, ":", 0x0, "H"
	DCB	0x0, "a", 0x0, "n", 0x0, "d", 0x0, "l", 0x0, "e", 0x0, "S"
	DCB	0x0, "l", 0x0, "o", 0x0, "t", 0x0, "1", 0x0, "I", 0x0, "n"
	DCB	0x0, "s", 0x0, "e", 0x0, "r", 0x0, "t", 0x0, 0xd, 0x0, 0xa
	DCB	0x0, 0x0, 0x0				; `string'
; Function compile flags: /Odtp

  01978			 AREA	 |.text|, CODE, ARM

  01978		 |?HandleSlot1Insert@CMenelaus@@QAAHXZ| PROC ; CMenelaus::HandleSlot1Insert

; 349  : {

  01978		 |$LN11@HandleSlot|
  01978	e1a0c00d	 mov         r12, sp
  0197c	e92d0001	 stmdb       sp!, {r0}
  01980	e92d5000	 stmdb       sp!, {r12, lr}
  01984	e24dd018	 sub         sp, sp, #0x18
  01988		 |$M37053|

; 350  :     DEBUGMSG(SDCARD_ZONE_FUNC, (L"+CMenelaus::HandleSlot1Insert\r\n"));

  01988	e59f30d8	 ldr         r3, [pc, #0xD8]
  0198c	e5933440	 ldr         r3, [r3, #0x440]
  01990	e3130b02	 tst         r3, #2, 22
  01994	0a000004	 beq         |$LN5@HandleSlot|
  01998	e59f00cc	 ldr         r0, [pc, #0xCC]
  0199c	eb000000	 bl          NKDbgPrintfW
  019a0	e3a03001	 mov         r3, #1
  019a4	e58d3004	 str         r3, [sp, #4]
  019a8	ea000001	 b           |$LN6@HandleSlot|
  019ac		 |$LN5@HandleSlot|
  019ac	e3a03000	 mov         r3, #0
  019b0	e58d3004	 str         r3, [sp, #4]
  019b4		 |$LN6@HandleSlot|

; 351  : 
; 352  :     // set VMCC to ON
; 353  :     // enable slot 1 and auto shutoff
; 354  :     if (!WriteData(MENELAUS_MCTCTRL3_OFFSET, (SLOT1_EN)) ||
; 355  :         !MaskMenelausIrq(IRQ_MENELAUS_DL2) ||
; 356  :         !MaskMenelausIrq(IRQ_MENELAUS_CD2))

  019b4	e3a02001	 mov         r2, #1
  019b8	e3a01038	 mov         r1, #0x38
  019bc	e59d0020	 ldr         r0, [sp, #0x20]
  019c0	eb000000	 bl          |?WriteData@CMenelaus@@AAAHEE@Z|
  019c4	e58d0008	 str         r0, [sp, #8]
  019c8	e59d3008	 ldr         r3, [sp, #8]
  019cc	e3530000	 cmp         r3, #0
  019d0	0a00000d	 beq         |$LN1@HandleSlot|
  019d4	e3a01067	 mov         r1, #0x67
  019d8	e59d0020	 ldr         r0, [sp, #0x20]
  019dc	eb000000	 bl          |?MaskMenelausIrq@CMenelaus@@AAAHI@Z|
  019e0	e58d000c	 str         r0, [sp, #0xC]
  019e4	e59d300c	 ldr         r3, [sp, #0xC]
  019e8	e3530000	 cmp         r3, #0
  019ec	0a000006	 beq         |$LN1@HandleSlot|
  019f0	e3a01065	 mov         r1, #0x65
  019f4	e59d0020	 ldr         r0, [sp, #0x20]
  019f8	eb000000	 bl          |?MaskMenelausIrq@CMenelaus@@AAAHI@Z|
  019fc	e58d0010	 str         r0, [sp, #0x10]
  01a00	e59d3010	 ldr         r3, [sp, #0x10]
  01a04	e3530000	 cmp         r3, #0
  01a08	1a000004	 bne         |$LN2@HandleSlot|
  01a0c		 |$LN1@HandleSlot|

; 357  :     {
; 358  :         MenelausDeinit();

  01a0c	e59d0020	 ldr         r0, [sp, #0x20]
  01a10	eb000000	 bl          |?MenelausDeinit@CMenelaus@@QAAHXZ|

; 359  :         return FALSE;

  01a14	e3a03000	 mov         r3, #0
  01a18	e58d3000	 str         r3, [sp]
  01a1c	ea00000c	 b           |$LN3@HandleSlot|
  01a20		 |$LN2@HandleSlot|

; 360  :     }
; 361  : 
; 362  : #if DEBUG_MENELUS == 1
; 363  :     UCHAR pData = 0x00;
; 364  :     ReadData(MENELAUS_MCTCTRL1_OFFSET, &pData); DEBUGMSG(SDCARD_ZONE_INFO, (L"MCTCTRL1 0x%02X \r\n"), pData));
; 365  :     ReadData(MENELAUS_MCTCTRL2_OFFSET, &pData); DEBUGMSG(SDCARD_ZONE_INFO, (L"MCTCTRL2 0x%02X \r\n"), pData));
; 366  :     ReadData(MENELAUS_MCTCTRL3_OFFSET, &pData); DEBUGMSG(SDCARD_ZONE_INFO, (L"MCTCTRL3 0x%02X \r\n"), pData));
; 367  :     ReadData(MENELAUS_MCTPINST_OFFSET, &pData); DEBUGMSG(SDCARD_ZONE_INFO, (L"MCTPINST 0x%02X \r\n"), pData));
; 368  : #endif
; 369  : 
; 370  : 
; 371  :     DEBUGMSG(SDCARD_ZONE_FUNC, (L"-CMenelaus::HandleSlot1Insert\r\n"));

  01a20	e59f3040	 ldr         r3, [pc, #0x40]
  01a24	e5933440	 ldr         r3, [r3, #0x440]
  01a28	e3130b02	 tst         r3, #2, 22
  01a2c	0a000004	 beq         |$LN7@HandleSlot|
  01a30	e59f002c	 ldr         r0, [pc, #0x2C]
  01a34	eb000000	 bl          NKDbgPrintfW
  01a38	e3a03001	 mov         r3, #1
  01a3c	e58d3014	 str         r3, [sp, #0x14]
  01a40	ea000001	 b           |$LN8@HandleSlot|
  01a44		 |$LN7@HandleSlot|
  01a44	e3a03000	 mov         r3, #0
  01a48	e58d3014	 str         r3, [sp, #0x14]
  01a4c		 |$LN8@HandleSlot|

; 372  :     return TRUE;

  01a4c	e3a03001	 mov         r3, #1
  01a50	e58d3000	 str         r3, [sp]
  01a54		 |$LN3@HandleSlot|

; 373  : }

  01a54	e59d0000	 ldr         r0, [sp]
  01a58	e28dd018	 add         sp, sp, #0x18
  01a5c	e89d6000	 ldmia       sp, {sp, lr}
  01a60	e12fff1e	 bx          lr
  01a64		 |$LN12@HandleSlot|
  01a64		 |$LN13@HandleSlot|
  01a64	00000000	 DCD         |??_C@_1EA@FIFBNGMF@?$AA?9?$AAC?$AAM?$AAe?$AAn?$AAe?$AAl?$AAa?$AAu?$AAs?$AA?3?$AA?3?$AAH?$AAa?$AAn?$AAd?$AAl?$AAe?$AAS?$AAl?$AAo?$AAt?$AA1?$AAI?$AAn?$AAs?$AAe?$AAr?$AAt?$AA?$AN?$AA?6?$AA?$AA@|
  01a68		 |$LN14@HandleSlot|
  01a68	00000000	 DCD         |dpCurSettings|
  01a6c		 |$LN15@HandleSlot|
  01a6c	00000000	 DCD         |??_C@_1EA@MMANDHDJ@?$AA?$CL?$AAC?$AAM?$AAe?$AAn?$AAe?$AAl?$AAa?$AAu?$AAs?$AA?3?$AA?3?$AAH?$AAa?$AAn?$AAd?$AAl?$AAe?$AAS?$AAl?$AAo?$AAt?$AA1?$AAI?$AAn?$AAs?$AAe?$AAr?$AAt?$AA?$AN?$AA?6?$AA?$AA@|
  01a70		 |$M37054|

			 ENDP  ; |?HandleSlot1Insert@CMenelaus@@QAAHXZ|, CMenelaus::HandleSlot1Insert

	EXPORT	|??_C@_1EA@PHPIJLAP@?$AA?9?$AAC?$AAM?$AAe?$AAn?$AAe?$AAl?$AAa?$AAu?$AAs?$AA?3?$AA?3?$AAH?$AAa?$AAn?$AAd?$AAl?$AAe?$AAS?$AAl?$AAo?$AAt?$AA2?$AAI?$AAn?$AAs?$AAe?$AAr?$AAt?$AA?$AN?$AA?6?$AA?$AA@| [ DATA ] ; `string'
	EXPORT	|??_C@_1EA@GDKEHKPD@?$AA?$CL?$AAC?$AAM?$AAe?$AAn?$AAe?$AAl?$AAa?$AAu?$AAs?$AA?3?$AA?3?$AAH?$AAa?$AAn?$AAd?$AAl?$AAe?$AAS?$AAl?$AAo?$AAt?$AA2?$AAI?$AAn?$AAs?$AAe?$AAr?$AAt?$AA?$AN?$AA?6?$AA?$AA@| [ DATA ] ; `string'
	EXPORT	|?HandleSlot2Insert@CMenelaus@@QAAHXZ|	; CMenelaus::HandleSlot2Insert

  00030			 AREA	 |.pdata|, PDATA
|$T37070| DCD	|$LN11@HandleSlot@2|
	DCD	0x40003e04

  00000			 AREA	 |.rdata|, DATA, READONLY
|??_C@_1EA@PHPIJLAP@?$AA?9?$AAC?$AAM?$AAe?$AAn?$AAe?$AAl?$AAa?$AAu?$AAs?$AA?3?$AA?3?$AAH?$AAa?$AAn?$AAd?$AAl?$AAe?$AAS?$AAl?$AAo?$AAt?$AA2?$AAI?$AAn?$AAs?$AAe?$AAr?$AAt?$AA?$AN?$AA?6?$AA?$AA@| DCB "-"
	DCB	0x0, "C", 0x0, "M", 0x0, "e", 0x0, "n", 0x0, "e", 0x0, "l"
	DCB	0x0, "a", 0x0, "u", 0x0, "s", 0x0, ":", 0x0, ":", 0x0, "H"
	DCB	0x0, "a", 0x0, "n", 0x0, "d", 0x0, "l", 0x0, "e", 0x0, "S"
	DCB	0x0, "l", 0x0, "o", 0x0, "t", 0x0, "2", 0x0, "I", 0x0, "n"
	DCB	0x0, "s", 0x0, "e", 0x0, "r", 0x0, "t", 0x0, 0xd, 0x0, 0xa
	DCB	0x0, 0x0, 0x0				; `string'

  00000			 AREA	 |.rdata|, DATA, READONLY
|??_C@_1EA@GDKEHKPD@?$AA?$CL?$AAC?$AAM?$AAe?$AAn?$AAe?$AAl?$AAa?$AAu?$AAs?$AA?3?$AA?3?$AAH?$AAa?$AAn?$AAd?$AAl?$AAe?$AAS?$AAl?$AAo?$AAt?$AA2?$AAI?$AAn?$AAs?$AAe?$AAr?$AAt?$AA?$AN?$AA?6?$AA?$AA@| DCB "+"
	DCB	0x0, "C", 0x0, "M", 0x0, "e", 0x0, "n", 0x0, "e", 0x0, "l"
	DCB	0x0, "a", 0x0, "u", 0x0, "s", 0x0, ":", 0x0, ":", 0x0, "H"
	DCB	0x0, "a", 0x0, "n", 0x0, "d", 0x0, "l", 0x0, "e", 0x0, "S"
	DCB	0x0, "l", 0x0, "o", 0x0, "t", 0x0, "2", 0x0, "I", 0x0, "n"
	DCB	0x0, "s", 0x0, "e", 0x0, "r", 0x0, "t", 0x0, 0xd, 0x0, 0xa
	DCB	0x0, 0x0, 0x0				; `string'
; Function compile flags: /Odtp

  01a70			 AREA	 |.text|, CODE, ARM

  01a70		 |?HandleSlot2Insert@CMenelaus@@QAAHXZ| PROC ; CMenelaus::HandleSlot2Insert

; 383  : {

  01a70		 |$LN11@HandleSlot@2|
  01a70	e1a0c00d	 mov         r12, sp
  01a74	e92d0001	 stmdb       sp!, {r0}
  01a78	e92d5000	 stmdb       sp!, {r12, lr}
  01a7c	e24dd018	 sub         sp, sp, #0x18
  01a80		 |$M37067|

; 384  :     DEBUGMSG(SDCARD_ZONE_FUNC, (L"+CMenelaus::HandleSlot2Insert\r\n"));

  01a80	e59f30d8	 ldr         r3, [pc, #0xD8]
  01a84	e5933440	 ldr         r3, [r3, #0x440]
  01a88	e3130b02	 tst         r3, #2, 22
  01a8c	0a000004	 beq         |$LN5@HandleSlot@2|
  01a90	e59f00cc	 ldr         r0, [pc, #0xCC]
  01a94	eb000000	 bl          NKDbgPrintfW
  01a98	e3a03001	 mov         r3, #1
  01a9c	e58d3004	 str         r3, [sp, #4]
  01aa0	ea000001	 b           |$LN6@HandleSlot@2|
  01aa4		 |$LN5@HandleSlot@2|
  01aa4	e3a03000	 mov         r3, #0
  01aa8	e58d3004	 str         r3, [sp, #4]
  01aac		 |$LN6@HandleSlot@2|

; 385  :     
; 386  :     // enable slot2
; 387  :     if (!WriteData(MENELAUS_MCTCTRL3_OFFSET, (SLOT2_EN)) ||
; 388  :         !MaskMenelausIrq(IRQ_MENELAUS_DL1) ||
; 389  :         !MaskMenelausIrq(IRQ_MENELAUS_CD1))

  01aac	e3a02002	 mov         r2, #2
  01ab0	e3a01038	 mov         r1, #0x38
  01ab4	e59d0020	 ldr         r0, [sp, #0x20]
  01ab8	eb000000	 bl          |?WriteData@CMenelaus@@AAAHEE@Z|
  01abc	e58d0008	 str         r0, [sp, #8]
  01ac0	e59d3008	 ldr         r3, [sp, #8]
  01ac4	e3530000	 cmp         r3, #0
  01ac8	0a00000d	 beq         |$LN1@HandleSlot@2|
  01acc	e3a01066	 mov         r1, #0x66
  01ad0	e59d0020	 ldr         r0, [sp, #0x20]
  01ad4	eb000000	 bl          |?MaskMenelausIrq@CMenelaus@@AAAHI@Z|
  01ad8	e58d000c	 str         r0, [sp, #0xC]
  01adc	e59d300c	 ldr         r3, [sp, #0xC]
  01ae0	e3530000	 cmp         r3, #0
  01ae4	0a000006	 beq         |$LN1@HandleSlot@2|
  01ae8	e3a01064	 mov         r1, #0x64
  01aec	e59d0020	 ldr         r0, [sp, #0x20]
  01af0	eb000000	 bl          |?MaskMenelausIrq@CMenelaus@@AAAHI@Z|
  01af4	e58d0010	 str         r0, [sp, #0x10]
  01af8	e59d3010	 ldr         r3, [sp, #0x10]
  01afc	e3530000	 cmp         r3, #0
  01b00	1a000004	 bne         |$LN2@HandleSlot@2|
  01b04		 |$LN1@HandleSlot@2|

; 390  :     {
; 391  :         MenelausDeinit();

  01b04	e59d0020	 ldr         r0, [sp, #0x20]
  01b08	eb000000	 bl          |?MenelausDeinit@CMenelaus@@QAAHXZ|

; 392  :         return FALSE;

  01b0c	e3a03000	 mov         r3, #0
  01b10	e58d3000	 str         r3, [sp]
  01b14	ea00000c	 b           |$LN3@HandleSlot@2|
  01b18		 |$LN2@HandleSlot@2|

; 393  :     }
; 394  : 
; 395  : #if DEBUG_MENELUS == 1
; 396  :     UCHAR pData = 0x00;
; 397  :     ReadData(MENELAUS_MCTCTRL1_OFFSET, &pData); DEBUGMSG(SDCARD_ZONE_INFO, (L"MCTCTRL1 0x%02X \r\n"), pData));
; 398  :     ReadData(MENELAUS_MCTCTRL2_OFFSET, &pData); DEBUGMSG(SDCARD_ZONE_INFO, (L"MCTCTRL2 0x%02X \r\n"), pData));
; 399  :     ReadData(MENELAUS_MCTCTRL3_OFFSET, &pData); DEBUGMSG(SDCARD_ZONE_INFO, (L"MCTCTRL3 0x%02X \r\n"), pData));
; 400  :     ReadData(MENELAUS_MCTPINST_OFFSET, &pData); DEBUGMSG(SDCARD_ZONE_INFO, (L"MCTPINST 0x%02X \r\n"), pData));
; 401  : #endif 
; 402  : 
; 403  :     DEBUGMSG(SDCARD_ZONE_FUNC, (L"-CMenelaus::HandleSlot2Insert\r\n"));

  01b18	e59f3040	 ldr         r3, [pc, #0x40]
  01b1c	e5933440	 ldr         r3, [r3, #0x440]
  01b20	e3130b02	 tst         r3, #2, 22
  01b24	0a000004	 beq         |$LN7@HandleSlot@2|
  01b28	e59f002c	 ldr         r0, [pc, #0x2C]
  01b2c	eb000000	 bl          NKDbgPrintfW
  01b30	e3a03001	 mov         r3, #1
  01b34	e58d3014	 str         r3, [sp, #0x14]
  01b38	ea000001	 b           |$LN8@HandleSlot@2|
  01b3c		 |$LN7@HandleSlot@2|
  01b3c	e3a03000	 mov         r3, #0
  01b40	e58d3014	 str         r3, [sp, #0x14]
  01b44		 |$LN8@HandleSlot@2|

; 404  :     return TRUE;

  01b44	e3a03001	 mov         r3, #1
  01b48	e58d3000	 str         r3, [sp]
  01b4c		 |$LN3@HandleSlot@2|

; 405  : }

  01b4c	e59d0000	 ldr         r0, [sp]
  01b50	e28dd018	 add         sp, sp, #0x18
  01b54	e89d6000	 ldmia       sp, {sp, lr}
  01b58	e12fff1e	 bx          lr
  01b5c		 |$LN12@HandleSlot@2|
  01b5c		 |$LN13@HandleSlot@2|
  01b5c	00000000	 DCD         |??_C@_1EA@PHPIJLAP@?$AA?9?$AAC?$AAM?$AAe?$AAn?$AAe?$AAl?$AAa?$AAu?$AAs?$AA?3?$AA?3?$AAH?$AAa?$AAn?$AAd?$AAl?$AAe?$AAS?$AAl?$AAo?$AAt?$AA2?$AAI?$AAn?$AAs?$AAe?$AAr?$AAt?$AA?$AN?$AA?6?$AA?$AA@|
  01b60		 |$LN14@HandleSlot@2|
  01b60	00000000	 DCD         |dpCurSettings|
  01b64		 |$LN15@HandleSlot@2|
  01b64	00000000	 DCD         |??_C@_1EA@GDKEHKPD@?$AA?$CL?$AAC?$AAM?$AAe?$AAn?$AAe?$AAl?$AAa?$AAu?$AAs?$AA?3?$AA?3?$AAH?$AAa?$AAn?$AAd?$AAl?$AAe?$AAS?$AAl?$AAo?$AAt?$AA2?$AAI?$AAn?$AAs?$AAe?$AAr?$AAt?$AA?$AN?$AA?6?$AA?$AA@|
  01b68		 |$M37068|

			 ENDP  ; |?HandleSlot2Insert@CMenelaus@@QAAHXZ|, CMenelaus::HandleSlot2Insert

	EXPORT	|??_C@_1DO@ELHMAEHN@?$AA?9?$AAC?$AAM?$AAe?$AAn?$AAe?$AAl?$AAa?$AAu?$AAs?$AA?3?$AA?3?$AAU?$AAp?$AAd?$AAa?$AAt?$AAe?$AAS?$AAl?$AAo?$AAt?$AAs?$AAS?$AAt?$AAa?$AAt?$AAe?$AA?$AN?$AA?6?$AA?$AA@| [ DATA ] ; `string'
	EXPORT	|??_C@_1GO@CLFLCDIB@?$AAC?$AAM?$AAe?$AAn?$AAe?$AAl?$AAa?$AAu?$AAs?$AA?3?$AA?3?$AAU?$AAp?$AAd?$AAa?$AAt?$AAe?$AAS?$AAl?$AAo?$AAt?$AAs?$AAS?$AAt?$AAa?$AAt?$AAe?$AA?3?$AA?5?$AAF?$AAa?$AAi@| [ DATA ] ; `string'
	EXPORT	|??_C@_1DO@EJMGEJNP@?$AA?$CL?$AAC?$AAM?$AAe?$AAn?$AAe?$AAl?$AAa?$AAu?$AAs?$AA?3?$AA?3?$AAU?$AAp?$AAd?$AAa?$AAt?$AAe?$AAS?$AAl?$AAo?$AAt?$AAs?$AAS?$AAt?$AAa?$AAt?$AAe?$AA?$AN?$AA?6?$AA?$AA@| [ DATA ] ; `string'
	EXPORT	|?UpdateSlotsState@CMenelaus@@QAAHXZ|	; CMenelaus::UpdateSlotsState

  00038			 AREA	 |.pdata|, PDATA
|$T37090| DCD	|$LN18@UpdateSlot|
	DCD	0x40006b04

  00000			 AREA	 |.rdata|, DATA, READONLY
|??_C@_1DO@ELHMAEHN@?$AA?9?$AAC?$AAM?$AAe?$AAn?$AAe?$AAl?$AAa?$AAu?$AAs?$AA?3?$AA?3?$AAU?$AAp?$AAd?$AAa?$AAt?$AAe?$AAS?$AAl?$AAo?$AAt?$AAs?$AAS?$AAt?$AAa?$AAt?$AAe?$AA?$AN?$AA?6?$AA?$AA@| DCB "-"
	DCB	0x0, "C", 0x0, "M", 0x0, "e", 0x0, "n", 0x0, "e", 0x0, "l"
	DCB	0x0, "a", 0x0, "u", 0x0, "s", 0x0, ":", 0x0, ":", 0x0, "U"
	DCB	0x0, "p", 0x0, "d", 0x0, "a", 0x0, "t", 0x0, "e", 0x0, "S"
	DCB	0x0, "l", 0x0, "o", 0x0, "t", 0x0, "s", 0x0, "S", 0x0, "t"
	DCB	0x0, "a", 0x0, "t", 0x0, "e", 0x0, 0xd, 0x0, 0xa, 0x0, 0x0
	DCB	0x0					; `string'

  00000			 AREA	 |.rdata|, DATA, READONLY
|??_C@_1GO@CLFLCDIB@?$AAC?$AAM?$AAe?$AAn?$AAe?$AAl?$AAa?$AAu?$AAs?$AA?3?$AA?3?$AAU?$AAp?$AAd?$AAa?$AAt?$AAe?$AAS?$AAl?$AAo?$AAt?$AAs?$AAS?$AAt?$AAa?$AAt?$AAe?$AA?3?$AA?5?$AAF?$AAa?$AAi@| DCB "C"
	DCB	0x0, "M", 0x0, "e", 0x0, "n", 0x0, "e", 0x0, "l", 0x0, "a"
	DCB	0x0, "u", 0x0, "s", 0x0, ":", 0x0, ":", 0x0, "U", 0x0, "p"
	DCB	0x0, "d", 0x0, "a", 0x0, "t", 0x0, "e", 0x0, "S", 0x0, "l"
	DCB	0x0, "o", 0x0, "t", 0x0, "s", 0x0, "S", 0x0, "t", 0x0, "a"
	DCB	0x0, "t", 0x0, "e", 0x0, ":", 0x0, " ", 0x0, "F", 0x0, "a"
	DCB	0x0, "i", 0x0, "l", 0x0, "e", 0x0, "d", 0x0, " ", 0x0, "U"
	DCB	0x0, "p", 0x0, "d", 0x0, "a", 0x0, "t", 0x0, "e", 0x0, "S"
	DCB	0x0, "l", 0x0, "o", 0x0, "t", 0x0, "s", 0x0, "S", 0x0, "t"
	DCB	0x0, "a", 0x0, "t", 0x0, "e", 0x0, 0xd, 0x0, 0xa, 0x0, 0x0
	DCB	0x0					; `string'

  00000			 AREA	 |.rdata|, DATA, READONLY
|??_C@_1DO@EJMGEJNP@?$AA?$CL?$AAC?$AAM?$AAe?$AAn?$AAe?$AAl?$AAa?$AAu?$AAs?$AA?3?$AA?3?$AAU?$AAp?$AAd?$AAa?$AAt?$AAe?$AAS?$AAl?$AAo?$AAt?$AAs?$AAS?$AAt?$AAa?$AAt?$AAe?$AA?$AN?$AA?6?$AA?$AA@| DCB "+"
	DCB	0x0, "C", 0x0, "M", 0x0, "e", 0x0, "n", 0x0, "e", 0x0, "l"
	DCB	0x0, "a", 0x0, "u", 0x0, "s", 0x0, ":", 0x0, ":", 0x0, "U"
	DCB	0x0, "p", 0x0, "d", 0x0, "a", 0x0, "t", 0x0, "e", 0x0, "S"
	DCB	0x0, "l", 0x0, "o", 0x0, "t", 0x0, "s", 0x0, "S", 0x0, "t"
	DCB	0x0, "a", 0x0, "t", 0x0, "e", 0x0, 0xd, 0x0, 0xa, 0x0, 0x0
	DCB	0x0					; `string'
; Function compile flags: /Odtp

  01b68			 AREA	 |.text|, CODE, ARM

  01b68		 |?UpdateSlotsState@CMenelaus@@QAAHXZ| PROC ; CMenelaus::UpdateSlotsState

; 413  : {

  01b68		 |$LN18@UpdateSlot|
  01b68	e1a0c00d	 mov         r12, sp
  01b6c	e92d0001	 stmdb       sp!, {r0}
  01b70	e92d5000	 stmdb       sp!, {r12, lr}
  01b74	e24dd024	 sub         sp, sp, #0x24
  01b78		 |$M37087|

; 414  :     DEBUGMSG(SDCARD_ZONE_FUNC, (L"+CMenelaus::UpdateSlotsState\r\n"));

  01b78	e59f3188	 ldr         r3, [pc, #0x188]
  01b7c	e5933440	 ldr         r3, [r3, #0x440]
  01b80	e3130b02	 tst         r3, #2, 22
  01b84	0a000004	 beq         |$LN6@UpdateSlot|
  01b88	e59f0180	 ldr         r0, [pc, #0x180]
  01b8c	eb000000	 bl          NKDbgPrintfW
  01b90	e3a03001	 mov         r3, #1
  01b94	e58d3008	 str         r3, [sp, #8]
  01b98	ea000001	 b           |$LN7@UpdateSlot|
  01b9c		 |$LN6@UpdateSlot|
  01b9c	e3a03000	 mov         r3, #0
  01ba0	e58d3008	 str         r3, [sp, #8]
  01ba4		 |$LN7@UpdateSlot|

; 415  : 
; 416  :     if (m_hI2C == NULL)

  01ba4	e59d302c	 ldr         r3, [sp, #0x2C]
  01ba8	e5933000	 ldr         r3, [r3]
  01bac	e3530000	 cmp         r3, #0
  01bb0	1a000002	 bne         |$LN3@UpdateSlot|

; 417  :         return FALSE;

  01bb4	e3a03000	 mov         r3, #0
  01bb8	e58d3004	 str         r3, [sp, #4]
  01bbc	ea00004c	 b           |$LN4@UpdateSlot|
  01bc0		 |$LN3@UpdateSlot|

; 418  : 
; 419  :     UCHAR pinState = 0x00;

  01bc0	e3a03000	 mov         r3, #0
  01bc4	e5cd3000	 strb        r3, [sp]

; 420  :     UCHAR mask = 0x00;

  01bc8	e3a03000	 mov         r3, #0
  01bcc	e5cd3001	 strb        r3, [sp, #1]

; 421  :     
; 422  :     if (!ReadData(MENELAUS_MCTPINST_OFFSET, &pinState) ||
; 423  :         !ReadData(MENELAUS_INTMASK1_OFFSET, &mask))

  01bd0	e28d2000	 add         r2, sp, #0
  01bd4	e3a01039	 mov         r1, #0x39
  01bd8	e59d002c	 ldr         r0, [sp, #0x2C]
  01bdc	eb000000	 bl          |?ReadData@CMenelaus@@AAAHEPAE@Z|
  01be0	e58d000c	 str         r0, [sp, #0xC]
  01be4	e59d300c	 ldr         r3, [sp, #0xC]
  01be8	e3530000	 cmp         r3, #0
  01bec	0a000007	 beq         |$LN1@UpdateSlot|
  01bf0	e28d2001	 add         r2, sp, #1
  01bf4	e3a01017	 mov         r1, #0x17
  01bf8	e59d002c	 ldr         r0, [sp, #0x2C]
  01bfc	eb000000	 bl          |?ReadData@CMenelaus@@AAAHEPAE@Z|
  01c00	e58d0010	 str         r0, [sp, #0x10]
  01c04	e59d3010	 ldr         r3, [sp, #0x10]
  01c08	e3530000	 cmp         r3, #0
  01c0c	1a00000d	 bne         |$LN2@UpdateSlot|
  01c10		 |$LN1@UpdateSlot|

; 424  :     {
; 425  :         DEBUGMSG(SDCARD_ZONE_ERROR, (L"CMenelaus::UpdateSlotsState: "
; 426  :             L"Failed UpdateSlotsState\r\n"
; 427  :         ));

  01c10	e59f30f0	 ldr         r3, [pc, #0xF0]
  01c14	e5933440	 ldr         r3, [r3, #0x440]
  01c18	e3130902	 tst         r3, #2, 18
  01c1c	0a000004	 beq         |$LN8@UpdateSlot|
  01c20	e59f00e4	 ldr         r0, [pc, #0xE4]
  01c24	eb000000	 bl          NKDbgPrintfW
  01c28	e3a03001	 mov         r3, #1
  01c2c	e58d3014	 str         r3, [sp, #0x14]
  01c30	ea000001	 b           |$LN9@UpdateSlot|
  01c34		 |$LN8@UpdateSlot|
  01c34	e3a03000	 mov         r3, #0
  01c38	e58d3014	 str         r3, [sp, #0x14]
  01c3c		 |$LN9@UpdateSlot|

; 428  :         return FALSE;

  01c3c	e3a03000	 mov         r3, #0
  01c40	e58d3004	 str         r3, [sp, #4]
  01c44	ea00002a	 b           |$LN4@UpdateSlot|
  01c48		 |$LN2@UpdateSlot|

; 429  :     }
; 430  :     
; 431  :     m_bSlot1 = (~pinState & S1_CD_ST) ? TRUE : FALSE;

  01c48	e5dd3000	 ldrb        r3, [sp]
  01c4c	e1e03003	 mvn         r3, r3
  01c50	e3130001	 tst         r3, #1
  01c54	0a000002	 beq         |$LN10@UpdateSlot|
  01c58	e3a03001	 mov         r3, #1
  01c5c	e58d3018	 str         r3, [sp, #0x18]
  01c60	ea000001	 b           |$LN11@UpdateSlot|
  01c64		 |$LN10@UpdateSlot|
  01c64	e3a03000	 mov         r3, #0
  01c68	e58d3018	 str         r3, [sp, #0x18]
  01c6c		 |$LN11@UpdateSlot|
  01c6c	e59d302c	 ldr         r3, [sp, #0x2C]
  01c70	e2832010	 add         r2, r3, #0x10
  01c74	e59d3018	 ldr         r3, [sp, #0x18]
  01c78	e5823000	 str         r3, [r2]

; 432  :     
; 433  :     m_bSlot2 = ((~pinState & S2_DAT1_ST) ||
; 434  :                 (~pinState & S2_CD_ST)) ? TRUE : FALSE;

  01c7c	e5dd3000	 ldrb        r3, [sp]
  01c80	e1e03003	 mvn         r3, r3
  01c84	e3130008	 tst         r3, #8
  01c88	1a000006	 bne         |$LN12@UpdateSlot|
  01c8c	e5dd3000	 ldrb        r3, [sp]
  01c90	e1e03003	 mvn         r3, r3
  01c94	e3130002	 tst         r3, #2
  01c98	1a000002	 bne         |$LN12@UpdateSlot|
  01c9c	e3a03000	 mov         r3, #0
  01ca0	e58d301c	 str         r3, [sp, #0x1C]
  01ca4	ea000001	 b           |$LN13@UpdateSlot|
  01ca8		 |$LN12@UpdateSlot|
  01ca8	e3a03001	 mov         r3, #1
  01cac	e58d301c	 str         r3, [sp, #0x1C]
  01cb0		 |$LN13@UpdateSlot|
  01cb0	e59d302c	 ldr         r3, [sp, #0x2C]
  01cb4	e2832014	 add         r2, r3, #0x14
  01cb8	e59d301c	 ldr         r3, [sp, #0x1C]
  01cbc	e5823000	 str         r3, [r2]

; 435  : 
; 436  : #if DEBUG_MENELUS == 1
; 437  :     UCHAR pData = 0x00;
; 438  :     ReadData(MENELAUS_MCTCTRL1_OFFSET, &pData); DEBUGMSG(SDCARD_ZONE_INFO, (L"MCTCTRL1 0x%02X \r\n"), pData));
; 439  :     ReadData(MENELAUS_MCTCTRL2_OFFSET, &pData); DEBUGMSG(SDCARD_ZONE_INFO, (L"MCTCTRL2 0x%02X \r\n"), pData));
; 440  :     ReadData(MENELAUS_MCTCTRL3_OFFSET, &pData); DEBUGMSG(SDCARD_ZONE_INFO, (L"MCTCTRL3 0x%02X \r\n"), pData));
; 441  :     ReadData(MENELAUS_MCTPINST_OFFSET, &pData); DEBUGMSG(SDCARD_ZONE_INFO, (L"MCTPINST 0x%02X \r\n"), pData));
; 442  : #endif
; 443  : 
; 444  :     DEBUGMSG(SDCARD_ZONE_FUNC, (L"-CMenelaus::UpdateSlotsState\r\n"));

  01cc0	e59f3040	 ldr         r3, [pc, #0x40]
  01cc4	e5933440	 ldr         r3, [r3, #0x440]
  01cc8	e3130b02	 tst         r3, #2, 22
  01ccc	0a000004	 beq         |$LN14@UpdateSlot|
  01cd0	e59f002c	 ldr         r0, [pc, #0x2C]
  01cd4	eb000000	 bl          NKDbgPrintfW
  01cd8	e3a03001	 mov         r3, #1
  01cdc	e58d3020	 str         r3, [sp, #0x20]
  01ce0	ea000001	 b           |$LN15@UpdateSlot|
  01ce4		 |$LN14@UpdateSlot|
  01ce4	e3a03000	 mov         r3, #0
  01ce8	e58d3020	 str         r3, [sp, #0x20]
  01cec		 |$LN15@UpdateSlot|

; 445  :     return TRUE;

  01cec	e3a03001	 mov         r3, #1
  01cf0	e58d3004	 str         r3, [sp, #4]
  01cf4		 |$LN4@UpdateSlot|

; 446  : }

  01cf4	e59d0004	 ldr         r0, [sp, #4]
  01cf8	e28dd024	 add         sp, sp, #0x24
  01cfc	e89d6000	 ldmia       sp, {sp, lr}
  01d00	e12fff1e	 bx          lr
  01d04		 |$LN19@UpdateSlot|
  01d04		 |$LN20@UpdateSlot|
  01d04	00000000	 DCD         |??_C@_1DO@ELHMAEHN@?$AA?9?$AAC?$AAM?$AAe?$AAn?$AAe?$AAl?$AAa?$AAu?$AAs?$AA?3?$AA?3?$AAU?$AAp?$AAd?$AAa?$AAt?$AAe?$AAS?$AAl?$AAo?$AAt?$AAs?$AAS?$AAt?$AAa?$AAt?$AAe?$AA?$AN?$AA?6?$AA?$AA@|
  01d08		 |$LN21@UpdateSlot|
  01d08	00000000	 DCD         |dpCurSettings|
  01d0c		 |$LN22@UpdateSlot|
  01d0c	00000000	 DCD         |??_C@_1GO@CLFLCDIB@?$AAC?$AAM?$AAe?$AAn?$AAe?$AAl?$AAa?$AAu?$AAs?$AA?3?$AA?3?$AAU?$AAp?$AAd?$AAa?$AAt?$AAe?$AAS?$AAl?$AAo?$AAt?$AAs?$AAS?$AAt?$AAa?$AAt?$AAe?$AA?3?$AA?5?$AAF?$AAa?$AAi@|
  01d10		 |$LN23@UpdateSlot|
  01d10	00000000	 DCD         |??_C@_1DO@EJMGEJNP@?$AA?$CL?$AAC?$AAM?$AAe?$AAn?$AAe?$AAl?$AAa?$AAu?$AAs?$AA?3?$AA?3?$AAU?$AAp?$AAd?$AAa?$AAt?$AAe?$AAS?$AAl?$AAo?$AAt?$AAs?$AAS?$AAt?$AAa?$AAt?$AAe?$AA?$AN?$AA?6?$AA?$AA@|
  01d14		 |$M37088|

			 ENDP  ; |?UpdateSlotsState@CMenelaus@@QAAHXZ|, CMenelaus::UpdateSlotsState

	EXPORT	|??_C@_1DI@HBIIGDBK@?$AA?9?$AAC?$AAM?$AAe?$AAn?$AAe?$AAl?$AAa?$AAu?$AAs?$AA?3?$AA?3?$AAA?$AAc?$AAk?$AAI?$AAn?$AAt?$AAe?$AAr?$AAr?$AAu?$AAp?$AAt?$AAs?$AA?$AN?$AA?6?$AA?$AA@| [ DATA ] ; `string'
	EXPORT	|??_C@_1JA@CBEBEBPE@?$AAC?$AAM?$AAe?$AAn?$AAe?$AAl?$AAa?$AAu?$AAs?$AA?3?$AA?3?$AAA?$AAc?$AAk?$AAI?$AAn?$AAt?$AAe?$AAr?$AAr?$AAu?$AAp?$AAt?$AAs?$AA?3?$AA?5?$AAM?$AAe?$AAn?$AAe?$AAl?$AAa@| [ DATA ] ; `string'
	EXPORT	|??_C@_1GI@NDFOOEKP@?$AAC?$AAM?$AAe?$AAn?$AAe?$AAl?$AAa?$AAu?$AAs?$AA?3?$AA?3?$AAA?$AAc?$AAk?$AAI?$AAn?$AAt?$AAe?$AAr?$AAr?$AAu?$AAp?$AAt?$AAs?$AA?3?$AA?5?$AAF?$AAa?$AAi?$AAl?$AAe?$AAd@| [ DATA ] ; `string'
	EXPORT	|??_C@_1DI@DMPGALOI@?$AA?$CL?$AAC?$AAM?$AAe?$AAn?$AAe?$AAl?$AAa?$AAu?$AAs?$AA?3?$AA?3?$AAA?$AAc?$AAk?$AAI?$AAn?$AAt?$AAe?$AAr?$AAr?$AAu?$AAp?$AAt?$AAs?$AA?$AN?$AA?6?$AA?$AA@| [ DATA ] ; `string'
	EXPORT	|?AckInterrupts@CMenelaus@@QAAHXZ|	; CMenelaus::AckInterrupts

  00040			 AREA	 |.pdata|, PDATA
|$T37117| DCD	|$LN27@AckInterru|
	DCD	0x4000ba04

  00000			 AREA	 |.rdata|, DATA, READONLY
|??_C@_1DI@HBIIGDBK@?$AA?9?$AAC?$AAM?$AAe?$AAn?$AAe?$AAl?$AAa?$AAu?$AAs?$AA?3?$AA?3?$AAA?$AAc?$AAk?$AAI?$AAn?$AAt?$AAe?$AAr?$AAr?$AAu?$AAp?$AAt?$AAs?$AA?$AN?$AA?6?$AA?$AA@| DCB "-"
	DCB	0x0, "C", 0x0, "M", 0x0, "e", 0x0, "n", 0x0, "e", 0x0, "l"
	DCB	0x0, "a", 0x0, "u", 0x0, "s", 0x0, ":", 0x0, ":", 0x0, "A"
	DCB	0x0, "c", 0x0, "k", 0x0, "I", 0x0, "n", 0x0, "t", 0x0, "e"
	DCB	0x0, "r", 0x0, "r", 0x0, "u", 0x0, "p", 0x0, "t", 0x0, "s"
	DCB	0x0, 0xd, 0x0, 0xa, 0x0, 0x0, 0x0	; `string'

  00000			 AREA	 |.rdata|, DATA, READONLY
|??_C@_1JA@CBEBEBPE@?$AAC?$AAM?$AAe?$AAn?$AAe?$AAl?$AAa?$AAu?$AAs?$AA?3?$AA?3?$AAA?$AAc?$AAk?$AAI?$AAn?$AAt?$AAe?$AAr?$AAr?$AAu?$AAp?$AAt?$AAs?$AA?3?$AA?5?$AAM?$AAe?$AAn?$AAe?$AAl?$AAa@| DCB "C"
	DCB	0x0, "M", 0x0, "e", 0x0, "n", 0x0, "e", 0x0, "l", 0x0, "a"
	DCB	0x0, "u", 0x0, "s", 0x0, ":", 0x0, ":", 0x0, "A", 0x0, "c"
	DCB	0x0, "k", 0x0, "I", 0x0, "n", 0x0, "t", 0x0, "e", 0x0, "r"
	DCB	0x0, "r", 0x0, "u", 0x0, "p", 0x0, "t", 0x0, "s", 0x0, ":"
	DCB	0x0, " ", 0x0, "M", 0x0, "e", 0x0, "n", 0x0, "e", 0x0, "l"
	DCB	0x0, "a", 0x0, "u", 0x0, "s", 0x0, " ", 0x0, "I", 0x0, "n"
	DCB	0x0, "t", 0x0, " ", 0x0, "S", 0x0, "t", 0x0, "a", 0x0, "t"
	DCB	0x0, "u", 0x0, "s", 0x0, " ", 0x0, "0", 0x0, "x", 0x0, "%"
	DCB	0x0, "0", 0x0, "2", 0x0, "X", 0x0, " ", 0x0, "I", 0x0, "n"
	DCB	0x0, "t", 0x0, " ", 0x0, "M", 0x0, "a", 0x0, "s", 0x0, "k"
	DCB	0x0, " ", 0x0, "0", 0x0, "x", 0x0, "%", 0x0, "0", 0x0, "2"
	DCB	0x0, "X", 0x0, " ", 0x0, 0xd, 0x0, 0xa, 0x0, 0x0, 0x0 ; `string'

  00000			 AREA	 |.rdata|, DATA, READONLY
|??_C@_1GI@NDFOOEKP@?$AAC?$AAM?$AAe?$AAn?$AAe?$AAl?$AAa?$AAu?$AAs?$AA?3?$AA?3?$AAA?$AAc?$AAk?$AAI?$AAn?$AAt?$AAe?$AAr?$AAr?$AAu?$AAp?$AAt?$AAs?$AA?3?$AA?5?$AAF?$AAa?$AAi?$AAl?$AAe?$AAd@| DCB "C"
	DCB	0x0, "M", 0x0, "e", 0x0, "n", 0x0, "e", 0x0, "l", 0x0, "a"
	DCB	0x0, "u", 0x0, "s", 0x0, ":", 0x0, ":", 0x0, "A", 0x0, "c"
	DCB	0x0, "k", 0x0, "I", 0x0, "n", 0x0, "t", 0x0, "e", 0x0, "r"
	DCB	0x0, "r", 0x0, "u", 0x0, "p", 0x0, "t", 0x0, "s", 0x0, ":"
	DCB	0x0, " ", 0x0, "F", 0x0, "a", 0x0, "i", 0x0, "l", 0x0, "e"
	DCB	0x0, "d", 0x0, " ", 0x0, "U", 0x0, "p", 0x0, "d", 0x0, "a"
	DCB	0x0, "t", 0x0, "e", 0x0, "S", 0x0, "l", 0x0, "o", 0x0, "t"
	DCB	0x0, "s", 0x0, "S", 0x0, "t", 0x0, "a", 0x0, "t", 0x0, "e"
	DCB	0x0, 0xd, 0x0, 0xa, 0x0, 0x0, 0x0	; `string'

  00000			 AREA	 |.rdata|, DATA, READONLY
|??_C@_1DI@DMPGALOI@?$AA?$CL?$AAC?$AAM?$AAe?$AAn?$AAe?$AAl?$AAa?$AAu?$AAs?$AA?3?$AA?3?$AAA?$AAc?$AAk?$AAI?$AAn?$AAt?$AAe?$AAr?$AAr?$AAu?$AAp?$AAt?$AAs?$AA?$AN?$AA?6?$AA?$AA@| DCB "+"
	DCB	0x0, "C", 0x0, "M", 0x0, "e", 0x0, "n", 0x0, "e", 0x0, "l"
	DCB	0x0, "a", 0x0, "u", 0x0, "s", 0x0, ":", 0x0, ":", 0x0, "A"
	DCB	0x0, "c", 0x0, "k", 0x0, "I", 0x0, "n", 0x0, "t", 0x0, "e"
	DCB	0x0, "r", 0x0, "r", 0x0, "u", 0x0, "p", 0x0, "t", 0x0, "s"
	DCB	0x0, 0xd, 0x0, 0xa, 0x0, 0x0, 0x0	; `string'
; Function compile flags: /Odtp

  01d14			 AREA	 |.text|, CODE, ARM

  01d14		 |?AckInterrupts@CMenelaus@@QAAHXZ| PROC ; CMenelaus::AckInterrupts

; 454  : {

  01d14		 |$LN27@AckInterru|
  01d14	e1a0c00d	 mov         r12, sp
  01d18	e92d0001	 stmdb       sp!, {r0}
  01d1c	e92d5000	 stmdb       sp!, {r12, lr}
  01d20	e24dd050	 sub         sp, sp, #0x50
  01d24		 |$M37114|

; 455  :     DEBUGMSG(SDCARD_ZONE_FUNC, (L"+CMenelaus::AckInterrupts\r\n"));

  01d24	e59f32c0	 ldr         r3, [pc, #0x2C0]
  01d28	e5933440	 ldr         r3, [r3, #0x440]
  01d2c	e3130b02	 tst         r3, #2, 22
  01d30	0a000004	 beq         |$LN9@AckInterru|
  01d34	e59f02bc	 ldr         r0, [pc, #0x2BC]
  01d38	eb000000	 bl          NKDbgPrintfW
  01d3c	e3a03001	 mov         r3, #1
  01d40	e58d3008	 str         r3, [sp, #8]
  01d44	ea000001	 b           |$LN10@AckInterru|
  01d48		 |$LN9@AckInterru|
  01d48	e3a03000	 mov         r3, #0
  01d4c	e58d3008	 str         r3, [sp, #8]
  01d50		 |$LN10@AckInterru|

; 456  :    
; 457  :     UCHAR status = 0x00;

  01d50	e3a03000	 mov         r3, #0
  01d54	e5cd3001	 strb        r3, [sp, #1]

; 458  :     UCHAR mask = 0x00;

  01d58	e3a03000	 mov         r3, #0
  01d5c	e5cd3000	 strb        r3, [sp]

; 459  :     
; 460  :     if (!ReadData(MENELAUS_INTSTATUS1_OFFSET, &status) ||
; 461  :         !ReadData(MENELAUS_INTMASK1_OFFSET, &mask))

  01d60	e28d2001	 add         r2, sp, #1
  01d64	e3a01019	 mov         r1, #0x19
  01d68	e59d0058	 ldr         r0, [sp, #0x58]
  01d6c	eb000000	 bl          |?ReadData@CMenelaus@@AAAHEPAE@Z|
  01d70	e58d000c	 str         r0, [sp, #0xC]
  01d74	e59d300c	 ldr         r3, [sp, #0xC]
  01d78	e3530000	 cmp         r3, #0
  01d7c	0a000007	 beq         |$LN5@AckInterru|
  01d80	e28d2000	 add         r2, sp, #0
  01d84	e3a01017	 mov         r1, #0x17
  01d88	e59d0058	 ldr         r0, [sp, #0x58]
  01d8c	eb000000	 bl          |?ReadData@CMenelaus@@AAAHEPAE@Z|
  01d90	e58d0010	 str         r0, [sp, #0x10]
  01d94	e59d3010	 ldr         r3, [sp, #0x10]
  01d98	e3530000	 cmp         r3, #0
  01d9c	1a00000d	 bne         |$LN6@AckInterru|
  01da0		 |$LN5@AckInterru|

; 462  :     {
; 463  :         DEBUGMSG(SDCARD_ZONE_ERROR, (L"CMenelaus::AckInterrupts: "
; 464  :             L"Failed UpdateSlotsState\r\n"
; 465  :         ));

  01da0	e59f3244	 ldr         r3, [pc, #0x244]
  01da4	e5933440	 ldr         r3, [r3, #0x440]
  01da8	e3130902	 tst         r3, #2, 18
  01dac	0a000004	 beq         |$LN11@AckInterru|
  01db0	e59f023c	 ldr         r0, [pc, #0x23C]
  01db4	eb000000	 bl          NKDbgPrintfW
  01db8	e3a03001	 mov         r3, #1
  01dbc	e58d3014	 str         r3, [sp, #0x14]
  01dc0	ea000001	 b           |$LN12@AckInterru|
  01dc4		 |$LN11@AckInterru|
  01dc4	e3a03000	 mov         r3, #0
  01dc8	e58d3014	 str         r3, [sp, #0x14]
  01dcc		 |$LN12@AckInterru|

; 466  :         return FALSE;

  01dcc	e3a03000	 mov         r3, #0
  01dd0	e58d3004	 str         r3, [sp, #4]
  01dd4	ea00007f	 b           |$LN7@AckInterru|
  01dd8		 |$LN6@AckInterru|

; 467  :     }
; 468  : 
; 469  :     DEBUGMSG(SDCARD_ZONE_INFO, (L"CMenelaus::AckInterrupts: "
; 470  :         L"Menelaus Int Status 0x%02X Int Mask 0x%02X \r\n", status, mask
; 471  :     ));

  01dd8	e59f320c	 ldr         r3, [pc, #0x20C]
  01ddc	e5933440	 ldr         r3, [r3, #0x440]
  01de0	e3130a01	 tst         r3, #1, 20
  01de4	0a000008	 beq         |$LN13@AckInterru|
  01de8	e5dd3000	 ldrb        r3, [sp]
  01dec	e1a02003	 mov         r2, r3
  01df0	e5dd3001	 ldrb        r3, [sp, #1]
  01df4	e1a01003	 mov         r1, r3
  01df8	e59f01f0	 ldr         r0, [pc, #0x1F0]
  01dfc	eb000000	 bl          NKDbgPrintfW
  01e00	e3a03001	 mov         r3, #1
  01e04	e58d3018	 str         r3, [sp, #0x18]
  01e08	ea000001	 b           |$LN14@AckInterru|
  01e0c		 |$LN13@AckInterru|
  01e0c	e3a03000	 mov         r3, #0
  01e10	e58d3018	 str         r3, [sp, #0x18]
  01e14		 |$LN14@AckInterru|

; 472  : 
; 473  :     if (status & S1_CD_ST)

  01e14	e5dd3001	 ldrb        r3, [sp, #1]
  01e18	e3130001	 tst         r3, #1
  01e1c	0a000015	 beq         |$LN4@AckInterru|

; 474  :         return ClearMenelausIrq(IRQ_MENELAUS_CD1) && UnMaskMenelausIrq(IRQ_MENELAUS_CD1);

  01e20	e3a01064	 mov         r1, #0x64
  01e24	e59d0058	 ldr         r0, [sp, #0x58]
  01e28	eb000000	 bl          |?ClearMenelausIrq@CMenelaus@@AAAHI@Z|
  01e2c	e58d001c	 str         r0, [sp, #0x1C]
  01e30	e59d301c	 ldr         r3, [sp, #0x1C]
  01e34	e3530000	 cmp         r3, #0
  01e38	0a000009	 beq         |$LN15@AckInterru|
  01e3c	e3a01064	 mov         r1, #0x64
  01e40	e59d0058	 ldr         r0, [sp, #0x58]
  01e44	eb000000	 bl          |?UnMaskMenelausIrq@CMenelaus@@AAAHI@Z|
  01e48	e58d0020	 str         r0, [sp, #0x20]
  01e4c	e59d3020	 ldr         r3, [sp, #0x20]
  01e50	e3530000	 cmp         r3, #0
  01e54	0a000002	 beq         |$LN15@AckInterru|
  01e58	e3a03001	 mov         r3, #1
  01e5c	e58d3024	 str         r3, [sp, #0x24]
  01e60	ea000001	 b           |$LN16@AckInterru|
  01e64		 |$LN15@AckInterru|
  01e64	e3a03000	 mov         r3, #0
  01e68	e58d3024	 str         r3, [sp, #0x24]
  01e6c		 |$LN16@AckInterru|
  01e6c	e59d3024	 ldr         r3, [sp, #0x24]
  01e70	e58d3004	 str         r3, [sp, #4]
  01e74	ea000057	 b           |$LN7@AckInterru|
  01e78		 |$LN4@AckInterru|

; 475  :     
; 476  :     if (status & S1_DAT1_ST)

  01e78	e5dd3001	 ldrb        r3, [sp, #1]
  01e7c	e3130004	 tst         r3, #4
  01e80	0a000015	 beq         |$LN3@AckInterru|

; 477  :         return ClearMenelausIrq(IRQ_MENELAUS_DL1) && UnMaskMenelausIrq(IRQ_MENELAUS_DL1);

  01e84	e3a01066	 mov         r1, #0x66
  01e88	e59d0058	 ldr         r0, [sp, #0x58]
  01e8c	eb000000	 bl          |?ClearMenelausIrq@CMenelaus@@AAAHI@Z|
  01e90	e58d0028	 str         r0, [sp, #0x28]
  01e94	e59d3028	 ldr         r3, [sp, #0x28]
  01e98	e3530000	 cmp         r3, #0
  01e9c	0a000009	 beq         |$LN17@AckInterru|
  01ea0	e3a01066	 mov         r1, #0x66
  01ea4	e59d0058	 ldr         r0, [sp, #0x58]
  01ea8	eb000000	 bl          |?UnMaskMenelausIrq@CMenelaus@@AAAHI@Z|
  01eac	e58d002c	 str         r0, [sp, #0x2C]
  01eb0	e59d302c	 ldr         r3, [sp, #0x2C]
  01eb4	e3530000	 cmp         r3, #0
  01eb8	0a000002	 beq         |$LN17@AckInterru|
  01ebc	e3a03001	 mov         r3, #1
  01ec0	e58d3030	 str         r3, [sp, #0x30]
  01ec4	ea000001	 b           |$LN18@AckInterru|
  01ec8		 |$LN17@AckInterru|
  01ec8	e3a03000	 mov         r3, #0
  01ecc	e58d3030	 str         r3, [sp, #0x30]
  01ed0		 |$LN18@AckInterru|
  01ed0	e59d3030	 ldr         r3, [sp, #0x30]
  01ed4	e58d3004	 str         r3, [sp, #4]
  01ed8	ea00003e	 b           |$LN7@AckInterru|
  01edc		 |$LN3@AckInterru|

; 478  : 
; 479  :     if (status & S2_CD_ST)

  01edc	e5dd3001	 ldrb        r3, [sp, #1]
  01ee0	e3130002	 tst         r3, #2
  01ee4	0a000015	 beq         |$LN2@AckInterru|

; 480  :         return ClearMenelausIrq(IRQ_MENELAUS_CD2) && UnMaskMenelausIrq(IRQ_MENELAUS_CD2);

  01ee8	e3a01065	 mov         r1, #0x65
  01eec	e59d0058	 ldr         r0, [sp, #0x58]
  01ef0	eb000000	 bl          |?ClearMenelausIrq@CMenelaus@@AAAHI@Z|
  01ef4	e58d0034	 str         r0, [sp, #0x34]
  01ef8	e59d3034	 ldr         r3, [sp, #0x34]
  01efc	e3530000	 cmp         r3, #0
  01f00	0a000009	 beq         |$LN19@AckInterru|
  01f04	e3a01065	 mov         r1, #0x65
  01f08	e59d0058	 ldr         r0, [sp, #0x58]
  01f0c	eb000000	 bl          |?UnMaskMenelausIrq@CMenelaus@@AAAHI@Z|
  01f10	e58d0038	 str         r0, [sp, #0x38]
  01f14	e59d3038	 ldr         r3, [sp, #0x38]
  01f18	e3530000	 cmp         r3, #0
  01f1c	0a000002	 beq         |$LN19@AckInterru|
  01f20	e3a03001	 mov         r3, #1
  01f24	e58d303c	 str         r3, [sp, #0x3C]
  01f28	ea000001	 b           |$LN20@AckInterru|
  01f2c		 |$LN19@AckInterru|
  01f2c	e3a03000	 mov         r3, #0
  01f30	e58d303c	 str         r3, [sp, #0x3C]
  01f34		 |$LN20@AckInterru|
  01f34	e59d303c	 ldr         r3, [sp, #0x3C]
  01f38	e58d3004	 str         r3, [sp, #4]
  01f3c	ea000025	 b           |$LN7@AckInterru|
  01f40		 |$LN2@AckInterru|

; 481  : 
; 482  :     if (status & S2_DAT1_ST)

  01f40	e5dd3001	 ldrb        r3, [sp, #1]
  01f44	e3130008	 tst         r3, #8
  01f48	0a000015	 beq         |$LN1@AckInterru|

; 483  :         return ClearMenelausIrq(IRQ_MENELAUS_DL2) && UnMaskMenelausIrq(IRQ_MENELAUS_DL2);

  01f4c	e3a01067	 mov         r1, #0x67
  01f50	e59d0058	 ldr         r0, [sp, #0x58]
  01f54	eb000000	 bl          |?ClearMenelausIrq@CMenelaus@@AAAHI@Z|
  01f58	e58d0040	 str         r0, [sp, #0x40]
  01f5c	e59d3040	 ldr         r3, [sp, #0x40]
  01f60	e3530000	 cmp         r3, #0
  01f64	0a000009	 beq         |$LN21@AckInterru|
  01f68	e3a01067	 mov         r1, #0x67
  01f6c	e59d0058	 ldr         r0, [sp, #0x58]
  01f70	eb000000	 bl          |?UnMaskMenelausIrq@CMenelaus@@AAAHI@Z|
  01f74	e58d0044	 str         r0, [sp, #0x44]
  01f78	e59d3044	 ldr         r3, [sp, #0x44]
  01f7c	e3530000	 cmp         r3, #0
  01f80	0a000002	 beq         |$LN21@AckInterru|
  01f84	e3a03001	 mov         r3, #1
  01f88	e58d3048	 str         r3, [sp, #0x48]
  01f8c	ea000001	 b           |$LN22@AckInterru|
  01f90		 |$LN21@AckInterru|
  01f90	e3a03000	 mov         r3, #0
  01f94	e58d3048	 str         r3, [sp, #0x48]
  01f98		 |$LN22@AckInterru|
  01f98	e59d3048	 ldr         r3, [sp, #0x48]
  01f9c	e58d3004	 str         r3, [sp, #4]
  01fa0	ea00000c	 b           |$LN7@AckInterru|
  01fa4		 |$LN1@AckInterru|

; 484  :         
; 485  :     DEBUGMSG(SDCARD_ZONE_FUNC, (L"-CMenelaus::AckInterrupts\r\n"));

  01fa4	e59f3040	 ldr         r3, [pc, #0x40]
  01fa8	e5933440	 ldr         r3, [r3, #0x440]
  01fac	e3130b02	 tst         r3, #2, 22
  01fb0	0a000004	 beq         |$LN23@AckInterru|
  01fb4	e59f002c	 ldr         r0, [pc, #0x2C]
  01fb8	eb000000	 bl          NKDbgPrintfW
  01fbc	e3a03001	 mov         r3, #1
  01fc0	e58d304c	 str         r3, [sp, #0x4C]
  01fc4	ea000001	 b           |$LN24@AckInterru|
  01fc8		 |$LN23@AckInterru|
  01fc8	e3a03000	 mov         r3, #0
  01fcc	e58d304c	 str         r3, [sp, #0x4C]
  01fd0		 |$LN24@AckInterru|

; 486  :     return TRUE;

  01fd0	e3a03001	 mov         r3, #1
  01fd4	e58d3004	 str         r3, [sp, #4]
  01fd8		 |$LN7@AckInterru|

; 487  : }

  01fd8	e59d0004	 ldr         r0, [sp, #4]
  01fdc	e28dd050	 add         sp, sp, #0x50
  01fe0	e89d6000	 ldmia       sp, {sp, lr}
  01fe4	e12fff1e	 bx          lr
  01fe8		 |$LN28@AckInterru|
  01fe8		 |$LN29@AckInterru|
  01fe8	00000000	 DCD         |??_C@_1DI@HBIIGDBK@?$AA?9?$AAC?$AAM?$AAe?$AAn?$AAe?$AAl?$AAa?$AAu?$AAs?$AA?3?$AA?3?$AAA?$AAc?$AAk?$AAI?$AAn?$AAt?$AAe?$AAr?$AAr?$AAu?$AAp?$AAt?$AAs?$AA?$AN?$AA?6?$AA?$AA@|
  01fec		 |$LN30@AckInterru|
  01fec	00000000	 DCD         |dpCurSettings|
  01ff0		 |$LN31@AckInterru|
  01ff0	00000000	 DCD         |??_C@_1JA@CBEBEBPE@?$AAC?$AAM?$AAe?$AAn?$AAe?$AAl?$AAa?$AAu?$AAs?$AA?3?$AA?3?$AAA?$AAc?$AAk?$AAI?$AAn?$AAt?$AAe?$AAr?$AAr?$AAu?$AAp?$AAt?$AAs?$AA?3?$AA?5?$AAM?$AAe?$AAn?$AAe?$AAl?$AAa@|
  01ff4		 |$LN32@AckInterru|
  01ff4	00000000	 DCD         |??_C@_1GI@NDFOOEKP@?$AAC?$AAM?$AAe?$AAn?$AAe?$AAl?$AAa?$AAu?$AAs?$AA?3?$AA?3?$AAA?$AAc?$AAk?$AAI?$AAn?$AAt?$AAe?$AAr?$AAr?$AAu?$AAp?$AAt?$AAs?$AA?3?$AA?5?$AAF?$AAa?$AAi?$AAl?$AAe?$AAd@|
  01ff8		 |$LN33@AckInterru|
  01ff8	00000000	 DCD         |??_C@_1DI@DMPGALOI@?$AA?$CL?$AAC?$AAM?$AAe?$AAn?$AAe?$AAl?$AAa?$AAu?$AAs?$AA?3?$AA?3?$AAA?$AAc?$AAk?$AAI?$AAn?$AAt?$AAe?$AAr?$AAr?$AAu?$AAp?$AAt?$AAs?$AA?$AN?$AA?6?$AA?$AA@|
  01ffc		 |$M37115|

			 ENDP  ; |?AckInterrupts@CMenelaus@@QAAHXZ|, CMenelaus::AckInterrupts

	EXPORT	|??_C@_1GK@BPMCMBKO@?$AAC?$AAM?$AAe?$AAn?$AAe?$AAl?$AAa?$AAu?$AAs?$AA?3?$AA?3?$AAR?$AAe?$AAa?$AAd?$AAD?$AAa?$AAt?$AAa?$AA?3?$AA?5?$AAF?$AAa?$AAi?$AAl?$AAe?$AAd?$AA?5?$AAw?$AAi?$AAt?$AAh@| [ DATA ] ; `string'
	EXPORT	|I2CTransact|
	EXPORT	|__$ArrayPad$| [ DATA ]
	IMPORT	|memset|
	IMPORT	|__security_cookie|
	IMPORT	|__GSHandlerCheck|
	IMPORT	|__security_check_cookie|

  00048			 AREA	 |.pdata|, PDATA
|$T37136| DCD	|$LN8@ReadData|
	DCD	0xc0004104

  00000			 AREA	 |.rdata|, DATA, READONLY
|??_C@_1GK@BPMCMBKO@?$AAC?$AAM?$AAe?$AAn?$AAe?$AAl?$AAa?$AAu?$AAs?$AA?3?$AA?3?$AAR?$AAe?$AAa?$AAd?$AAD?$AAa?$AAt?$AAa?$AA?3?$AA?5?$AAF?$AAa?$AAi?$AAl?$AAe?$AAd?$AA?5?$AAw?$AAi?$AAt?$AAh@| DCB "C"
	DCB	0x0, "M", 0x0, "e", 0x0, "n", 0x0, "e", 0x0, "l", 0x0, "a"
	DCB	0x0, "u", 0x0, "s", 0x0, ":", 0x0, ":", 0x0, "R", 0x0, "e"
	DCB	0x0, "a", 0x0, "d", 0x0, "D", 0x0, "a", 0x0, "t", 0x0, "a"
	DCB	0x0, ":", 0x0, " ", 0x0, "F", 0x0, "a", 0x0, "i", 0x0, "l"
	DCB	0x0, "e", 0x0, "d", 0x0, " ", 0x0, "w", 0x0, "i", 0x0, "t"
	DCB	0x0, "h", 0x0, " ", 0x0, "e", 0x0, "r", 0x0, "r", 0x0, "o"
	DCB	0x0, "r", 0x0, " ", 0x0, "c", 0x0, "o", 0x0, "d", 0x0, "e"
	DCB	0x0, " ", 0x0, "0", 0x0, "x", 0x0, "%", 0x0, "0", 0x0, "8"
	DCB	0x0, "X", 0x0, 0xd, 0x0, 0xa, 0x0, 0x0, 0x0 ; `string'

  00000			 AREA	 |.xdata|, DATA
|$T37132| DCD	0xffffffe0
; Function compile flags: /Odtp

  01ffc			 AREA	 |.text|, CODE, ARM

  01ffc	00000000	 DCD         |__GSHandlerCheck|
  02000	00000000	 DCD         |$T37132|

  02004		 |?ReadData@CMenelaus@@AAAHEPAE@Z| PROC	; CMenelaus::ReadData

; 498  : {

  02004		 |$LN8@ReadData|
  02004	e1a0c00d	 mov         r12, sp
  02008	e92d0007	 stmdb       sp!, {r0 - r2}
  0200c	e92d5000	 stmdb       sp!, {r12, lr}
  02010	e24ddf5f	 sub         sp, sp, #0x5F, 30
  02014		 |$M37133|
  02014	e59f30e8	 ldr         r3, [pc, #0xE8]
  02018	e5933000	 ldr         r3, [r3]
  0201c	e58d3170	 str         r3, [sp, #0x170]

; 499  :     I2CTRANS trans;
; 500  :     ZeroMemory(&trans,sizeof(trans));

  02020	e3a02e17	 mov         r2, #0x17, 28
  02024	e3a01000	 mov         r1, #0
  02028	e28d0000	 add         r0, sp, #0
  0202c	eb000000	 bl          memset

; 501  :     trans.mClk_HL_Divisor = I2C_CLOCK_DEFAULT;

  02030	e3a0300f	 mov         r3, #0xF
  02034	e58d3008	 str         r3, [sp, #8]

; 502  :     trans.mOpCode[0] = I2C_OPCODE_WRITE;

  02038	e3a03002	 mov         r3, #2
  0203c	e58d300c	 str         r3, [sp, #0xC]

; 503  :     trans.mBufferOffset[0] = 0;

  02040	e3a03000	 mov         r3, #0
  02044	e58d302c	 str         r3, [sp, #0x2C]

; 504  :     trans.mBuffer[0] = reg;

  02048	e5dd3188	 ldrb        r3, [sp, #0x188]
  0204c	e5cd3070	 strb        r3, [sp, #0x70]

; 505  :     trans.mTransLen[0] = 1;

  02050	e3a03001	 mov         r3, #1
  02054	e58d304c	 str         r3, [sp, #0x4C]

; 506  :     trans.mOpCode[1] = I2C_OPCODE_READ;

  02058	e3a03001	 mov         r3, #1
  0205c	e58d3010	 str         r3, [sp, #0x10]

; 507  :     trans.mBufferOffset[1] = 1;

  02060	e3a03001	 mov         r3, #1
  02064	e58d3030	 str         r3, [sp, #0x30]

; 508  :     trans.mTransLen[1] = 1;

  02068	e3a03001	 mov         r3, #1
  0206c	e58d3050	 str         r3, [sp, #0x50]

; 509  :     
; 510  :     I2CTransact(m_hI2C, &trans);

  02070	e28d1000	 add         r1, sp, #0
  02074	e59d3184	 ldr         r3, [sp, #0x184]
  02078	e5930000	 ldr         r0, [r3]
  0207c	eb000000	 bl          I2CTransact

; 511  : 
; 512  :     if (trans.mErrorCode)

  02080	e59d306c	 ldr         r3, [sp, #0x6C]
  02084	e3530000	 cmp         r3, #0
  02088	0a000010	 beq         |$LN1@ReadData|

; 513  :     {
; 514  :         DEBUGMSG(SDCARD_ZONE_ERROR, (L"CMenelaus::ReadData: "
; 515  :             L"Failed with error code 0x%08X\r\n",trans.mErrorCode
; 516  :         ));

  0208c	e59f306c	 ldr         r3, [pc, #0x6C]
  02090	e5933440	 ldr         r3, [r3, #0x440]
  02094	e3130902	 tst         r3, #2, 18
  02098	0a000005	 beq         |$LN4@ReadData|
  0209c	e59d106c	 ldr         r1, [sp, #0x6C]
  020a0	e59f0054	 ldr         r0, [pc, #0x54]
  020a4	eb000000	 bl          NKDbgPrintfW
  020a8	e3a03001	 mov         r3, #1
  020ac	e58d3178	 str         r3, [sp, #0x178]
  020b0	ea000001	 b           |$LN5@ReadData|
  020b4		 |$LN4@ReadData|
  020b4	e3a03000	 mov         r3, #0
  020b8	e58d3178	 str         r3, [sp, #0x178]
  020bc		 |$LN5@ReadData|

; 517  :         return FALSE;

  020bc	e59d0170	 ldr         r0, [sp, #0x170]
  020c0	eb000000	 bl          __security_check_cookie
  020c4	e3a03000	 mov         r3, #0
  020c8	e58d3174	 str         r3, [sp, #0x174]
  020cc	ea000006	 b           |$LN2@ReadData|
  020d0		 |$LN1@ReadData|

; 518  :     }
; 519  : 
; 520  :     *pData = trans.mBuffer[1];

  020d0	e5dd2071	 ldrb        r2, [sp, #0x71]
  020d4	e59d318c	 ldr         r3, [sp, #0x18C]
  020d8	e5c32000	 strb        r2, [r3]

; 521  :     return TRUE;

  020dc	e59d0170	 ldr         r0, [sp, #0x170]
  020e0	eb000000	 bl          __security_check_cookie
  020e4	e3a03001	 mov         r3, #1
  020e8	e58d3174	 str         r3, [sp, #0x174]
  020ec		 |$LN2@ReadData|

; 522  : }

  020ec	e59d0174	 ldr         r0, [sp, #0x174]
  020f0	e28ddf5f	 add         sp, sp, #0x5F, 30
  020f4	e89d6000	 ldmia       sp, {sp, lr}
  020f8	e12fff1e	 bx          lr
  020fc		 |$LN9@ReadData|
  020fc		 |$LN10@ReadData|
  020fc	00000000	 DCD         |??_C@_1GK@BPMCMBKO@?$AAC?$AAM?$AAe?$AAn?$AAe?$AAl?$AAa?$AAu?$AAs?$AA?3?$AA?3?$AAR?$AAe?$AAa?$AAd?$AAD?$AAa?$AAt?$AAa?$AA?3?$AA?5?$AAF?$AAa?$AAi?$AAl?$AAe?$AAd?$AA?5?$AAw?$AAi?$AAt?$AAh@|
  02100		 |$LN11@ReadData|
  02100	00000000	 DCD         |dpCurSettings|
  02104		 |$LN12@ReadData|
  02104	00000000	 DCD         |__security_cookie|
  02108		 |$M37134|

			 ENDP  ; |?ReadData@CMenelaus@@AAAHEPAE@Z|, CMenelaus::ReadData

; File c:\wince600\platform\common\src\soc\omap2420_ms_v1\inc\i2c.h

  00000			 AREA	 |.pdata|, PDATA
|$T37146| DCD	|$LN5@I2CTransac|
	DCD	0x40001504
; Function compile flags: /Odtp

  00000			 AREA	 |.text|, CODE, ARM

  00000		 |I2CTransact| PROC

; 138  : {

  00000		 |$LN5@I2CTransac|
  00000	e1a0c00d	 mov         r12, sp
  00004	e92d0003	 stmdb       sp!, {r0, r1}
  00008	e92d5000	 stmdb       sp!, {r12, lr}
  0000c	e24dd00c	 sub         sp, sp, #0xC
  00010		 |$M37143|

; 139  :     DEVICE_CONTEXT_I2C *pContext = (DEVICE_CONTEXT_I2C *)hContext;

  00010	e59d3014	 ldr         r3, [sp, #0x14]
  00014	e58d3000	 str         r3, [sp]

; 140  :     return pContext->ifc.pfnTransact(pContext->ifc.context, pTrans);

  00018	e59d1018	 ldr         r1, [sp, #0x18]
  0001c	e59d3000	 ldr         r3, [sp]
  00020	e5930000	 ldr         r0, [r3]
  00024	e59d3000	 ldr         r3, [sp]
  00028	e2833008	 add         r3, r3, #8
  0002c	e5933000	 ldr         r3, [r3]
  00030	e1a0e00f	 mov         lr, pc
  00034	e12fff13	 bx          r3
  00038	e58d0008	 str         r0, [sp, #8]
  0003c	e59d3008	 ldr         r3, [sp, #8]
  00040	e58d3004	 str         r3, [sp, #4]

; 141  : }

  00044	e59d0004	 ldr         r0, [sp, #4]
  00048	e28dd00c	 add         sp, sp, #0xC
  0004c	e89d6000	 ldmia       sp, {sp, lr}
  00050	e12fff1e	 bx          lr
  00054		 |$M37144|

			 ENDP  ; |I2CTransact|

	EXPORT	|??_C@_1GM@DBLEBCJK@?$AAC?$AAM?$AAe?$AAn?$AAe?$AAl?$AAa?$AAu?$AAs?$AA?3?$AA?3?$AAW?$AAr?$AAi?$AAt?$AAe?$AAD?$AAa?$AAt?$AAa?$AA?3?$AA?5?$AAF?$AAa?$AAi?$AAl?$AAe?$AAd?$AA?5?$AAw?$AAi?$AAt@| [ DATA ] ; `string'
	EXPORT	|__$ArrayPad$| [ DATA ]

  00050			 AREA	 |.pdata|, PDATA
|$T37158| DCD	|$LN8@WriteData|
	DCD	0xc0003a04
; File c:\wince600\platform\common\src\soc\omap2420_ms_v1\sdhc\impl\menelaus.cpp

  00000			 AREA	 |.rdata|, DATA, READONLY
|??_C@_1GM@DBLEBCJK@?$AAC?$AAM?$AAe?$AAn?$AAe?$AAl?$AAa?$AAu?$AAs?$AA?3?$AA?3?$AAW?$AAr?$AAi?$AAt?$AAe?$AAD?$AAa?$AAt?$AAa?$AA?3?$AA?5?$AAF?$AAa?$AAi?$AAl?$AAe?$AAd?$AA?5?$AAw?$AAi?$AAt@| DCB "C"
	DCB	0x0, "M", 0x0, "e", 0x0, "n", 0x0, "e", 0x0, "l", 0x0, "a"
	DCB	0x0, "u", 0x0, "s", 0x0, ":", 0x0, ":", 0x0, "W", 0x0, "r"
	DCB	0x0, "i", 0x0, "t", 0x0, "e", 0x0, "D", 0x0, "a", 0x0, "t"
	DCB	0x0, "a", 0x0, ":", 0x0, " ", 0x0, "F", 0x0, "a", 0x0, "i"
	DCB	0x0, "l", 0x0, "e", 0x0, "d", 0x0, " ", 0x0, "w", 0x0, "i"
	DCB	0x0, "t", 0x0, "h", 0x0, " ", 0x0, "e", 0x0, "r", 0x0, "r"
	DCB	0x0, "o", 0x0, "r", 0x0, " ", 0x0, "c", 0x0, "o", 0x0, "d"
	DCB	0x0, "e", 0x0, " ", 0x0, "0", 0x0, "x", 0x0, "%", 0x0, "0"
	DCB	0x0, "8", 0x0, "X", 0x0, 0xd, 0x0, 0xa, 0x0, 0x0, 0x0 ; `string'

  00004			 AREA	 |.xdata|, DATA
|$T37154| DCD	0xffffffe0
; Function compile flags: /Odtp

  02108			 AREA	 |.text|, CODE, ARM

  02108	00000000	 DCD         |__GSHandlerCheck|
  0210c	00000000	 DCD         |$T37154|

  02110		 |?WriteData@CMenelaus@@AAAHEE@Z| PROC	; CMenelaus::WriteData

; 531  : {

  02110		 |$LN8@WriteData|
  02110	e1a0c00d	 mov         r12, sp
  02114	e92d0007	 stmdb       sp!, {r0 - r2}
  02118	e92d5000	 stmdb       sp!, {r12, lr}
  0211c	e24ddf5f	 sub         sp, sp, #0x5F, 30
  02120		 |$M37155|
  02120	e59f30cc	 ldr         r3, [pc, #0xCC]
  02124	e5933000	 ldr         r3, [r3]
  02128	e58d3170	 str         r3, [sp, #0x170]

; 532  :     I2CTRANS trans;
; 533  :     ZeroMemory(&trans,sizeof(trans));

  0212c	e3a02e17	 mov         r2, #0x17, 28
  02130	e3a01000	 mov         r1, #0
  02134	e28d0000	 add         r0, sp, #0
  02138	eb000000	 bl          memset

; 534  :     trans.mClk_HL_Divisor = I2C_CLOCK_DEFAULT;

  0213c	e3a0300f	 mov         r3, #0xF
  02140	e58d3008	 str         r3, [sp, #8]

; 535  :     trans.mOpCode[0] = I2C_OPCODE_WRITE;

  02144	e3a03002	 mov         r3, #2
  02148	e58d300c	 str         r3, [sp, #0xC]

; 536  :     trans.mBufferOffset[0] = 0;

  0214c	e3a03000	 mov         r3, #0
  02150	e58d302c	 str         r3, [sp, #0x2C]

; 537  :     trans.mBuffer[0] = reg;

  02154	e5dd3188	 ldrb        r3, [sp, #0x188]
  02158	e5cd3070	 strb        r3, [sp, #0x70]

; 538  :     trans.mBuffer[1] = data;

  0215c	e5dd318c	 ldrb        r3, [sp, #0x18C]
  02160	e5cd3071	 strb        r3, [sp, #0x71]

; 539  :     trans.mTransLen[0] = 2;

  02164	e3a03002	 mov         r3, #2
  02168	e58d304c	 str         r3, [sp, #0x4C]

; 540  :     
; 541  :     I2CTransact(m_hI2C, &trans);

  0216c	e28d1000	 add         r1, sp, #0
  02170	e59d3184	 ldr         r3, [sp, #0x184]
  02174	e5930000	 ldr         r0, [r3]
  02178	eb000000	 bl          I2CTransact

; 542  : 
; 543  :     if (trans.mErrorCode)

  0217c	e59d306c	 ldr         r3, [sp, #0x6C]
  02180	e3530000	 cmp         r3, #0
  02184	0a000010	 beq         |$LN1@WriteData|

; 544  :     {
; 545  :         DEBUGMSG(SDCARD_ZONE_ERROR, (L"CMenelaus::WriteData: "
; 546  :             L"Failed with error code 0x%08X\r\n",trans.mErrorCode
; 547  :         ));

  02188	e59f3060	 ldr         r3, [pc, #0x60]
  0218c	e5933440	 ldr         r3, [r3, #0x440]
  02190	e3130902	 tst         r3, #2, 18
  02194	0a000005	 beq         |$LN4@WriteData|
  02198	e59d106c	 ldr         r1, [sp, #0x6C]
  0219c	e59f0048	 ldr         r0, [pc, #0x48]
  021a0	eb000000	 bl          NKDbgPrintfW
  021a4	e3a03001	 mov         r3, #1
  021a8	e58d3178	 str         r3, [sp, #0x178]
  021ac	ea000001	 b           |$LN5@WriteData|
  021b0		 |$LN4@WriteData|
  021b0	e3a03000	 mov         r3, #0
  021b4	e58d3178	 str         r3, [sp, #0x178]
  021b8		 |$LN5@WriteData|

; 548  :         return FALSE;

  021b8	e59d0170	 ldr         r0, [sp, #0x170]
  021bc	eb000000	 bl          __security_check_cookie
  021c0	e3a03000	 mov         r3, #0
  021c4	e58d3174	 str         r3, [sp, #0x174]
  021c8	ea000003	 b           |$LN2@WriteData|
  021cc		 |$LN1@WriteData|

; 549  :     }
; 550  :     return TRUE;

  021cc	e59d0170	 ldr         r0, [sp, #0x170]
  021d0	eb000000	 bl          __security_check_cookie
  021d4	e3a03001	 mov         r3, #1
  021d8	e58d3174	 str         r3, [sp, #0x174]
  021dc		 |$LN2@WriteData|

; 551  : }

  021dc	e59d0174	 ldr         r0, [sp, #0x174]
  021e0	e28ddf5f	 add         sp, sp, #0x5F, 30
  021e4	e89d6000	 ldmia       sp, {sp, lr}
  021e8	e12fff1e	 bx          lr
  021ec		 |$LN9@WriteData|
  021ec		 |$LN10@WriteData|
  021ec	00000000	 DCD         |??_C@_1GM@DBLEBCJK@?$AAC?$AAM?$AAe?$AAn?$AAe?$AAl?$AAa?$AAu?$AAs?$AA?3?$AA?3?$AAW?$AAr?$AAi?$AAt?$AAe?$AAD?$AAa?$AAt?$AAa?$AA?3?$AA?5?$AAF?$AAa?$AAi?$AAl?$AAe?$AAd?$AA?5?$AAw?$AAi?$AAt@|
  021f0		 |$LN11@WriteData|
  021f0	00000000	 DCD         |dpCurSettings|
  021f4		 |$LN12@WriteData|
  021f4	00000000	 DCD         |__security_cookie|
  021f8		 |$M37156|

			 ENDP  ; |?WriteData@CMenelaus@@AAAHEE@Z|, CMenelaus::WriteData

	EXPORT	|??_C@_1DM@OADKOEGO@?$AA?9?$AAC?$AAM?$AAe?$AAn?$AAe?$AAl?$AAa?$AAu?$AAs?$AA?3?$AA?3?$AAM?$AAa?$AAs?$AAk?$AAM?$AAe?$AAn?$AAe?$AAl?$AAa?$AAu?$AAs?$AAI?$AAr?$AAq?$AA?$AN?$AA?6?$AA?$AA@| [ DATA ] ; `string'
	EXPORT	|??_C@_1EG@OMIHJNMJ@?$AA?$CL?$AAC?$AAM?$AAe?$AAn?$AAe?$AAl?$AAa?$AAu?$AAs?$AA?3?$AA?3?$AAM?$AAa?$AAs?$AAk?$AAM?$AAe?$AAn?$AAe?$AAl?$AAa?$AAu?$AAs?$AAI?$AAr?$AAq?$AA?5?$AA?$CI?$AA?$CF?$AAd?$AA?$CJ@| [ DATA ] ; `string'

  00058			 AREA	 |.pdata|, PDATA
|$T37172| DCD	|$LN14@MaskMenela|
	DCD	0x40006504

  00000			 AREA	 |.rdata|, DATA, READONLY
|??_C@_1DM@OADKOEGO@?$AA?9?$AAC?$AAM?$AAe?$AAn?$AAe?$AAl?$AAa?$AAu?$AAs?$AA?3?$AA?3?$AAM?$AAa?$AAs?$AAk?$AAM?$AAe?$AAn?$AAe?$AAl?$AAa?$AAu?$AAs?$AAI?$AAr?$AAq?$AA?$AN?$AA?6?$AA?$AA@| DCB "-"
	DCB	0x0, "C", 0x0, "M", 0x0, "e", 0x0, "n", 0x0, "e", 0x0, "l"
	DCB	0x0, "a", 0x0, "u", 0x0, "s", 0x0, ":", 0x0, ":", 0x0, "M"
	DCB	0x0, "a", 0x0, "s", 0x0, "k", 0x0, "M", 0x0, "e", 0x0, "n"
	DCB	0x0, "e", 0x0, "l", 0x0, "a", 0x0, "u", 0x0, "s", 0x0, "I"
	DCB	0x0, "r", 0x0, "q", 0x0, 0xd, 0x0, 0xa, 0x0, 0x0, 0x0 ; `string'

  00000			 AREA	 |.rdata|, DATA, READONLY
|??_C@_1EG@OMIHJNMJ@?$AA?$CL?$AAC?$AAM?$AAe?$AAn?$AAe?$AAl?$AAa?$AAu?$AAs?$AA?3?$AA?3?$AAM?$AAa?$AAs?$AAk?$AAM?$AAe?$AAn?$AAe?$AAl?$AAa?$AAu?$AAs?$AAI?$AAr?$AAq?$AA?5?$AA?$CI?$AA?$CF?$AAd?$AA?$CJ@| DCB "+"
	DCB	0x0, "C", 0x0, "M", 0x0, "e", 0x0, "n", 0x0, "e", 0x0, "l"
	DCB	0x0, "a", 0x0, "u", 0x0, "s", 0x0, ":", 0x0, ":", 0x0, "M"
	DCB	0x0, "a", 0x0, "s", 0x0, "k", 0x0, "M", 0x0, "e", 0x0, "n"
	DCB	0x0, "e", 0x0, "l", 0x0, "a", 0x0, "u", 0x0, "s", 0x0, "I"
	DCB	0x0, "r", 0x0, "q", 0x0, " ", 0x0, "(", 0x0, "%", 0x0, "d"
	DCB	0x0, ")", 0x0, 0xd, 0x0, 0xa, 0x0, 0x0, 0x0 ; `string'
; Function compile flags: /Odtp

  021f8			 AREA	 |.text|, CODE, ARM

  021f8		 |?MaskMenelausIrq@CMenelaus@@AAAHI@Z| PROC ; CMenelaus::MaskMenelausIrq

; 558  : {

  021f8		 |$LN14@MaskMenela|
  021f8	e1a0c00d	 mov         r12, sp
  021fc	e92d0003	 stmdb       sp!, {r0, r1}
  02200	e92d5000	 stmdb       sp!, {r12, lr}
  02204	e24dd024	 sub         sp, sp, #0x24
  02208		 |$M37169|

; 559  :     DEBUGMSG(SDCARD_ZONE_FUNC, (L"+CMenelaus::MaskMenelausIrq (%d)\r\n", irq));

  02208	e59f3174	 ldr         r3, [pc, #0x174]
  0220c	e5933440	 ldr         r3, [r3, #0x440]
  02210	e3130b02	 tst         r3, #2, 22
  02214	0a000005	 beq         |$LN8@MaskMenela|
  02218	e59d1030	 ldr         r1, [sp, #0x30]
  0221c	e59f0164	 ldr         r0, [pc, #0x164]
  02220	eb000000	 bl          NKDbgPrintfW
  02224	e3a03001	 mov         r3, #1
  02228	e58d300c	 str         r3, [sp, #0xC]
  0222c	ea000001	 b           |$LN9@MaskMenela|
  02230		 |$LN8@MaskMenela|
  02230	e3a03000	 mov         r3, #0
  02234	e58d300c	 str         r3, [sp, #0xC]
  02238		 |$LN9@MaskMenela|

; 560  : 
; 561  :     BOOL rc = FALSE;

  02238	e3a03000	 mov         r3, #0
  0223c	e58d3000	 str         r3, [sp]

; 562  :     UCHAR reg;
; 563  :     UCHAR mask;
; 564  : 
; 565  :     // get the current mask in the Menelaus; first determin which register.
; 566  :     if ((irq - IRQ_MENELAUS_CD1) < 8)

  02240	e59d3030	 ldr         r3, [sp, #0x30]
  02244	e2433064	 sub         r3, r3, #0x64
  02248	e3530008	 cmp         r3, #8
  0224c	2a00001b	 bcs         |$LN5@MaskMenela|

; 567  :     {
; 568  :         reg = MENELAUS_INTMASK1_OFFSET;

  02250	e3a03017	 mov         r3, #0x17
  02254	e5cd3005	 strb        r3, [sp, #5]

; 569  :                 
; 570  :         rc = ReadData(reg, &mask);

  02258	e28d2004	 add         r2, sp, #4
  0225c	e5dd1005	 ldrb        r1, [sp, #5]
  02260	e59d002c	 ldr         r0, [sp, #0x2C]
  02264	eb000000	 bl          |?ReadData@CMenelaus@@AAAHEPAE@Z|
  02268	e58d0010	 str         r0, [sp, #0x10]
  0226c	e59d3010	 ldr         r3, [sp, #0x10]
  02270	e58d3000	 str         r3, [sp]

; 571  : 
; 572  :         if (rc)

  02274	e59d3000	 ldr         r3, [sp]
  02278	e3530000	 cmp         r3, #0
  0227c	0a000007	 beq         |$LN4@MaskMenela|

; 573  :             mask |= 1 << (irq - IRQ_MENELAUS_CD1); 

  02280	e59d3030	 ldr         r3, [sp, #0x30]
  02284	e2432064	 sub         r2, r3, #0x64
  02288	e3a03001	 mov         r3, #1
  0228c	e1a02213	 mov         r2, r3, lsl r2
  02290	e5dd3004	 ldrb        r3, [sp, #4]
  02294	e1833002	 orr         r3, r3, r2
  02298	e20330ff	 and         r3, r3, #0xFF
  0229c	e5cd3004	 strb        r3, [sp, #4]
  022a0		 |$LN4@MaskMenela|

; 574  : 
; 575  :         rc =  WriteData(reg, mask);  // Apply Mask

  022a0	e5dd2004	 ldrb        r2, [sp, #4]
  022a4	e5dd1005	 ldrb        r1, [sp, #5]
  022a8	e59d002c	 ldr         r0, [sp, #0x2C]
  022ac	eb000000	 bl          |?WriteData@CMenelaus@@AAAHEE@Z|
  022b0	e58d0014	 str         r0, [sp, #0x14]
  022b4	e59d3014	 ldr         r3, [sp, #0x14]
  022b8	e58d3000	 str         r3, [sp]
  022bc	ea00001e	 b           |$LN3@MaskMenela|
  022c0		 |$LN5@MaskMenela|

; 576  :     }
; 577  :     else if ((irq - IRQ_MENELAUS_RTCTMR) < 5)

  022c0	e59d3030	 ldr         r3, [sp, #0x30]
  022c4	e243306c	 sub         r3, r3, #0x6C
  022c8	e3530005	 cmp         r3, #5
  022cc	2a00001a	 bcs         |$LN2@MaskMenela|

; 578  :     {
; 579  :         reg = MENELAUS_INTMASK2_OFFSET;

  022d0	e3a03018	 mov         r3, #0x18
  022d4	e5cd3005	 strb        r3, [sp, #5]

; 580  : 
; 581  :         rc = ReadData(reg, &mask);

  022d8	e28d2004	 add         r2, sp, #4
  022dc	e5dd1005	 ldrb        r1, [sp, #5]
  022e0	e59d002c	 ldr         r0, [sp, #0x2C]
  022e4	eb000000	 bl          |?ReadData@CMenelaus@@AAAHEPAE@Z|
  022e8	e58d0018	 str         r0, [sp, #0x18]
  022ec	e59d3018	 ldr         r3, [sp, #0x18]
  022f0	e58d3000	 str         r3, [sp]

; 582  : 
; 583  :         if (rc)

  022f4	e59d3000	 ldr         r3, [sp]
  022f8	e3530000	 cmp         r3, #0
  022fc	0a000007	 beq         |$LN1@MaskMenela|

; 584  :             mask |= 1 << (irq - IRQ_MENELAUS_RTCTMR); 

  02300	e59d3030	 ldr         r3, [sp, #0x30]
  02304	e243206c	 sub         r2, r3, #0x6C
  02308	e3a03001	 mov         r3, #1
  0230c	e1a02213	 mov         r2, r3, lsl r2
  02310	e5dd3004	 ldrb        r3, [sp, #4]
  02314	e1833002	 orr         r3, r3, r2
  02318	e20330ff	 and         r3, r3, #0xFF
  0231c	e5cd3004	 strb        r3, [sp, #4]
  02320		 |$LN1@MaskMenela|

; 585  : 
; 586  :         rc =  WriteData(reg, mask);  // Apply Mask

  02320	e5dd2004	 ldrb        r2, [sp, #4]
  02324	e5dd1005	 ldrb        r1, [sp, #5]
  02328	e59d002c	 ldr         r0, [sp, #0x2C]
  0232c	eb000000	 bl          |?WriteData@CMenelaus@@AAAHEE@Z|
  02330	e58d001c	 str         r0, [sp, #0x1C]
  02334	e59d301c	 ldr         r3, [sp, #0x1C]
  02338	e58d3000	 str         r3, [sp]
  0233c		 |$LN2@MaskMenela|
  0233c		 |$LN3@MaskMenela|

; 587  :     }
; 588  : 
; 589  :     DEBUGMSG(SDCARD_ZONE_FUNC, (L"-CMenelaus::MaskMenelausIrq\r\n"));

  0233c	e59f3040	 ldr         r3, [pc, #0x40]
  02340	e5933440	 ldr         r3, [r3, #0x440]
  02344	e3130b02	 tst         r3, #2, 22
  02348	0a000004	 beq         |$LN10@MaskMenela|
  0234c	e59f002c	 ldr         r0, [pc, #0x2C]
  02350	eb000000	 bl          NKDbgPrintfW
  02354	e3a03001	 mov         r3, #1
  02358	e58d3020	 str         r3, [sp, #0x20]
  0235c	ea000001	 b           |$LN11@MaskMenela|
  02360		 |$LN10@MaskMenela|
  02360	e3a03000	 mov         r3, #0
  02364	e58d3020	 str         r3, [sp, #0x20]
  02368		 |$LN11@MaskMenela|

; 590  :     return rc;

  02368	e59d3000	 ldr         r3, [sp]
  0236c	e58d3008	 str         r3, [sp, #8]

; 591  : }

  02370	e59d0008	 ldr         r0, [sp, #8]
  02374	e28dd024	 add         sp, sp, #0x24
  02378	e89d6000	 ldmia       sp, {sp, lr}
  0237c	e12fff1e	 bx          lr
  02380		 |$LN15@MaskMenela|
  02380		 |$LN16@MaskMenela|
  02380	00000000	 DCD         |??_C@_1DM@OADKOEGO@?$AA?9?$AAC?$AAM?$AAe?$AAn?$AAe?$AAl?$AAa?$AAu?$AAs?$AA?3?$AA?3?$AAM?$AAa?$AAs?$AAk?$AAM?$AAe?$AAn?$AAe?$AAl?$AAa?$AAu?$AAs?$AAI?$AAr?$AAq?$AA?$AN?$AA?6?$AA?$AA@|
  02384		 |$LN17@MaskMenela|
  02384	00000000	 DCD         |dpCurSettings|
  02388		 |$LN18@MaskMenela|
  02388	00000000	 DCD         |??_C@_1EG@OMIHJNMJ@?$AA?$CL?$AAC?$AAM?$AAe?$AAn?$AAe?$AAl?$AAa?$AAu?$AAs?$AA?3?$AA?3?$AAM?$AAa?$AAs?$AAk?$AAM?$AAe?$AAn?$AAe?$AAl?$AAa?$AAu?$AAs?$AAI?$AAr?$AAq?$AA?5?$AA?$CI?$AA?$CF?$AAd?$AA?$CJ@|
  0238c		 |$M37170|

			 ENDP  ; |?MaskMenelausIrq@CMenelaus@@AAAHI@Z|, CMenelaus::MaskMenelausIrq

	EXPORT	|??_C@_1EA@POMMLCIN@?$AA?$CL?$AAC?$AAM?$AAe?$AAn?$AAe?$AAl?$AAa?$AAu?$AAs?$AA?3?$AA?3?$AAU?$AAn?$AAM?$AAa?$AAs?$AAk?$AAM?$AAe?$AAn?$AAe?$AAl?$AAa?$AAu?$AAs?$AAI?$AAr?$AAq?$AA?$AN?$AA?6?$AA?$AA@| [ DATA ] ; `string'
	EXPORT	|??_C@_1EK@DDNKHOCC@?$AA?$CL?$AAC?$AAM?$AAe?$AAn?$AAe?$AAl?$AAa?$AAu?$AAs?$AA?3?$AA?3?$AAU?$AAn?$AAM?$AAa?$AAs?$AAk?$AAM?$AAe?$AAn?$AAe?$AAl?$AAa?$AAu?$AAs?$AAI?$AAr?$AAq?$AA?5?$AA?$CI?$AA?$CF@| [ DATA ] ; `string'

  00060			 AREA	 |.pdata|, PDATA
|$T37186| DCD	|$LN14@UnMaskMene|
	DCD	0x40006704

  00000			 AREA	 |.rdata|, DATA, READONLY
|??_C@_1EA@POMMLCIN@?$AA?$CL?$AAC?$AAM?$AAe?$AAn?$AAe?$AAl?$AAa?$AAu?$AAs?$AA?3?$AA?3?$AAU?$AAn?$AAM?$AAa?$AAs?$AAk?$AAM?$AAe?$AAn?$AAe?$AAl?$AAa?$AAu?$AAs?$AAI?$AAr?$AAq?$AA?$AN?$AA?6?$AA?$AA@| DCB "+"
	DCB	0x0, "C", 0x0, "M", 0x0, "e", 0x0, "n", 0x0, "e", 0x0, "l"
	DCB	0x0, "a", 0x0, "u", 0x0, "s", 0x0, ":", 0x0, ":", 0x0, "U"
	DCB	0x0, "n", 0x0, "M", 0x0, "a", 0x0, "s", 0x0, "k", 0x0, "M"
	DCB	0x0, "e", 0x0, "n", 0x0, "e", 0x0, "l", 0x0, "a", 0x0, "u"
	DCB	0x0, "s", 0x0, "I", 0x0, "r", 0x0, "q", 0x0, 0xd, 0x0, 0xa
	DCB	0x0, 0x0, 0x0				; `string'

  00000			 AREA	 |.rdata|, DATA, READONLY
|??_C@_1EK@DDNKHOCC@?$AA?$CL?$AAC?$AAM?$AAe?$AAn?$AAe?$AAl?$AAa?$AAu?$AAs?$AA?3?$AA?3?$AAU?$AAn?$AAM?$AAa?$AAs?$AAk?$AAM?$AAe?$AAn?$AAe?$AAl?$AAa?$AAu?$AAs?$AAI?$AAr?$AAq?$AA?5?$AA?$CI?$AA?$CF@| DCB "+"
	DCB	0x0, "C", 0x0, "M", 0x0, "e", 0x0, "n", 0x0, "e", 0x0, "l"
	DCB	0x0, "a", 0x0, "u", 0x0, "s", 0x0, ":", 0x0, ":", 0x0, "U"
	DCB	0x0, "n", 0x0, "M", 0x0, "a", 0x0, "s", 0x0, "k", 0x0, "M"
	DCB	0x0, "e", 0x0, "n", 0x0, "e", 0x0, "l", 0x0, "a", 0x0, "u"
	DCB	0x0, "s", 0x0, "I", 0x0, "r", 0x0, "q", 0x0, " ", 0x0, "("
	DCB	0x0, "%", 0x0, "d", 0x0, ")", 0x0, 0xd, 0x0, 0xa, 0x0, 0x0
	DCB	0x0					; `string'
; Function compile flags: /Odtp

  0238c			 AREA	 |.text|, CODE, ARM

  0238c		 |?UnMaskMenelausIrq@CMenelaus@@AAAHI@Z| PROC ; CMenelaus::UnMaskMenelausIrq

; 598  : {

  0238c		 |$LN14@UnMaskMene|
  0238c	e1a0c00d	 mov         r12, sp
  02390	e92d0003	 stmdb       sp!, {r0, r1}
  02394	e92d5000	 stmdb       sp!, {r12, lr}
  02398	e24dd024	 sub         sp, sp, #0x24
  0239c		 |$M37183|

; 599  :     DEBUGMSG(SDCARD_ZONE_FUNC, (L"+CMenelaus::UnMaskMenelausIrq (%d)\r\n", irq));

  0239c	e59f317c	 ldr         r3, [pc, #0x17C]
  023a0	e5933440	 ldr         r3, [r3, #0x440]
  023a4	e3130b02	 tst         r3, #2, 22
  023a8	0a000005	 beq         |$LN8@UnMaskMene|
  023ac	e59d1030	 ldr         r1, [sp, #0x30]
  023b0	e59f016c	 ldr         r0, [pc, #0x16C]
  023b4	eb000000	 bl          NKDbgPrintfW
  023b8	e3a03001	 mov         r3, #1
  023bc	e58d300c	 str         r3, [sp, #0xC]
  023c0	ea000001	 b           |$LN9@UnMaskMene|
  023c4		 |$LN8@UnMaskMene|
  023c4	e3a03000	 mov         r3, #0
  023c8	e58d300c	 str         r3, [sp, #0xC]
  023cc		 |$LN9@UnMaskMene|

; 600  : 
; 601  :     BOOL rc = FALSE;

  023cc	e3a03000	 mov         r3, #0
  023d0	e58d3000	 str         r3, [sp]

; 602  :     UCHAR reg;
; 603  :     UCHAR mask;
; 604  :     
; 605  :     // get the current mask in the Menelaus; first determin which register.
; 606  :     if ((irq - IRQ_MENELAUS_CD1) < 5)

  023d4	e59d3030	 ldr         r3, [sp, #0x30]
  023d8	e2433064	 sub         r3, r3, #0x64
  023dc	e3530005	 cmp         r3, #5
  023e0	2a00001c	 bcs         |$LN5@UnMaskMene|

; 607  :     {
; 608  :         reg = MENELAUS_INTMASK1_OFFSET;

  023e4	e3a03017	 mov         r3, #0x17
  023e8	e5cd3005	 strb        r3, [sp, #5]

; 609  :                 
; 610  :         rc = ReadData(reg, &mask);

  023ec	e28d2004	 add         r2, sp, #4
  023f0	e5dd1005	 ldrb        r1, [sp, #5]
  023f4	e59d002c	 ldr         r0, [sp, #0x2C]
  023f8	eb000000	 bl          |?ReadData@CMenelaus@@AAAHEPAE@Z|
  023fc	e58d0010	 str         r0, [sp, #0x10]
  02400	e59d3010	 ldr         r3, [sp, #0x10]
  02404	e58d3000	 str         r3, [sp]

; 611  : 
; 612  :         if (rc)

  02408	e59d3000	 ldr         r3, [sp]
  0240c	e3530000	 cmp         r3, #0
  02410	0a000008	 beq         |$LN4@UnMaskMene|

; 613  :             mask &= ~(1 << (irq - IRQ_MENELAUS_CD1)); 

  02414	e59d3030	 ldr         r3, [sp, #0x30]
  02418	e2432064	 sub         r2, r3, #0x64
  0241c	e3a03001	 mov         r3, #1
  02420	e1a03213	 mov         r3, r3, lsl r2
  02424	e1e02003	 mvn         r2, r3
  02428	e5dd3004	 ldrb        r3, [sp, #4]
  0242c	e0033002	 and         r3, r3, r2
  02430	e20330ff	 and         r3, r3, #0xFF
  02434	e5cd3004	 strb        r3, [sp, #4]
  02438		 |$LN4@UnMaskMene|

; 614  : 
; 615  :         rc =  WriteData(reg, mask);  // Apply Mask

  02438	e5dd2004	 ldrb        r2, [sp, #4]
  0243c	e5dd1005	 ldrb        r1, [sp, #5]
  02440	e59d002c	 ldr         r0, [sp, #0x2C]
  02444	eb000000	 bl          |?WriteData@CMenelaus@@AAAHEE@Z|
  02448	e58d0014	 str         r0, [sp, #0x14]
  0244c	e59d3014	 ldr         r3, [sp, #0x14]
  02450	e58d3000	 str         r3, [sp]
  02454	ea00001f	 b           |$LN3@UnMaskMene|
  02458		 |$LN5@UnMaskMene|

; 616  :     }
; 617  :     else if ((irq - IRQ_MENELAUS_RTCTMR) < 5)

  02458	e59d3030	 ldr         r3, [sp, #0x30]
  0245c	e243306c	 sub         r3, r3, #0x6C
  02460	e3530005	 cmp         r3, #5
  02464	2a00001b	 bcs         |$LN2@UnMaskMene|

; 618  :     {
; 619  :         reg = MENELAUS_INTMASK2_OFFSET;

  02468	e3a03018	 mov         r3, #0x18
  0246c	e5cd3005	 strb        r3, [sp, #5]

; 620  : 
; 621  :         rc = ReadData(reg, &mask);

  02470	e28d2004	 add         r2, sp, #4
  02474	e5dd1005	 ldrb        r1, [sp, #5]
  02478	e59d002c	 ldr         r0, [sp, #0x2C]
  0247c	eb000000	 bl          |?ReadData@CMenelaus@@AAAHEPAE@Z|
  02480	e58d0018	 str         r0, [sp, #0x18]
  02484	e59d3018	 ldr         r3, [sp, #0x18]
  02488	e58d3000	 str         r3, [sp]

; 622  : 
; 623  :         if (rc)

  0248c	e59d3000	 ldr         r3, [sp]
  02490	e3530000	 cmp         r3, #0
  02494	0a000008	 beq         |$LN1@UnMaskMene|

; 624  :             mask &= ~(1 << (irq - IRQ_MENELAUS_RTCTMR)); 

  02498	e59d3030	 ldr         r3, [sp, #0x30]
  0249c	e243206c	 sub         r2, r3, #0x6C
  024a0	e3a03001	 mov         r3, #1
  024a4	e1a03213	 mov         r3, r3, lsl r2
  024a8	e1e02003	 mvn         r2, r3
  024ac	e5dd3004	 ldrb        r3, [sp, #4]
  024b0	e0033002	 and         r3, r3, r2
  024b4	e20330ff	 and         r3, r3, #0xFF
  024b8	e5cd3004	 strb        r3, [sp, #4]
  024bc		 |$LN1@UnMaskMene|

; 625  : 
; 626  :         rc =  WriteData(reg, mask);  // Apply Mask

  024bc	e5dd2004	 ldrb        r2, [sp, #4]
  024c0	e5dd1005	 ldrb        r1, [sp, #5]
  024c4	e59d002c	 ldr         r0, [sp, #0x2C]
  024c8	eb000000	 bl          |?WriteData@CMenelaus@@AAAHEE@Z|
  024cc	e58d001c	 str         r0, [sp, #0x1C]
  024d0	e59d301c	 ldr         r3, [sp, #0x1C]
  024d4	e58d3000	 str         r3, [sp]
  024d8		 |$LN2@UnMaskMene|
  024d8		 |$LN3@UnMaskMene|

; 627  :     }
; 628  :     
; 629  :     DEBUGMSG(SDCARD_ZONE_FUNC, (L"+CMenelaus::UnMaskMenelausIrq\r\n"));

  024d8	e59f3040	 ldr         r3, [pc, #0x40]
  024dc	e5933440	 ldr         r3, [r3, #0x440]
  024e0	e3130b02	 tst         r3, #2, 22
  024e4	0a000004	 beq         |$LN10@UnMaskMene|
  024e8	e59f002c	 ldr         r0, [pc, #0x2C]
  024ec	eb000000	 bl          NKDbgPrintfW
  024f0	e3a03001	 mov         r3, #1
  024f4	e58d3020	 str         r3, [sp, #0x20]
  024f8	ea000001	 b           |$LN11@UnMaskMene|
  024fc		 |$LN10@UnMaskMene|
  024fc	e3a03000	 mov         r3, #0
  02500	e58d3020	 str         r3, [sp, #0x20]
  02504		 |$LN11@UnMaskMene|

; 630  :     return rc;

  02504	e59d3000	 ldr         r3, [sp]
  02508	e58d3008	 str         r3, [sp, #8]

; 631  : }

  0250c	e59d0008	 ldr         r0, [sp, #8]
  02510	e28dd024	 add         sp, sp, #0x24
  02514	e89d6000	 ldmia       sp, {sp, lr}
  02518	e12fff1e	 bx          lr
  0251c		 |$LN15@UnMaskMene|
  0251c		 |$LN16@UnMaskMene|
  0251c	00000000	 DCD         |??_C@_1EA@POMMLCIN@?$AA?$CL?$AAC?$AAM?$AAe?$AAn?$AAe?$AAl?$AAa?$AAu?$AAs?$AA?3?$AA?3?$AAU?$AAn?$AAM?$AAa?$AAs?$AAk?$AAM?$AAe?$AAn?$AAe?$AAl?$AAa?$AAu?$AAs?$AAI?$AAr?$AAq?$AA?$AN?$AA?6?$AA?$AA@|
  02520		 |$LN17@UnMaskMene|
  02520	00000000	 DCD         |dpCurSettings|
  02524		 |$LN18@UnMaskMene|
  02524	00000000	 DCD         |??_C@_1EK@DDNKHOCC@?$AA?$CL?$AAC?$AAM?$AAe?$AAn?$AAe?$AAl?$AAa?$AAu?$AAs?$AA?3?$AA?3?$AAU?$AAn?$AAM?$AAa?$AAs?$AAk?$AAM?$AAe?$AAn?$AAe?$AAl?$AAa?$AAu?$AAs?$AAI?$AAr?$AAq?$AA?5?$AA?$CI?$AA?$CF@|
  02528		 |$M37184|

			 ENDP  ; |?UnMaskMenelausIrq@CMenelaus@@AAAHI@Z|, CMenelaus::UnMaskMenelausIrq

	EXPORT	|??_C@_1DO@JCNFCJEH@?$AA?9?$AAC?$AAM?$AAe?$AAn?$AAe?$AAl?$AAa?$AAu?$AAs?$AA?3?$AA?3?$AAC?$AAl?$AAe?$AAa?$AAr?$AAM?$AAe?$AAn?$AAe?$AAl?$AAa?$AAu?$AAs?$AAI?$AAr?$AAq?$AA?$AN?$AA?6?$AA?$AA@| [ DATA ] ; `string'
	EXPORT	|??_C@_1EI@GJLMNFMC@?$AA?$CL?$AAC?$AAM?$AAe?$AAn?$AAe?$AAl?$AAa?$AAu?$AAs?$AA?3?$AA?3?$AAC?$AAl?$AAe?$AAa?$AAr?$AAM?$AAe?$AAn?$AAe?$AAl?$AAa?$AAu?$AAs?$AAI?$AAr?$AAq?$AA?5?$AA?$CI?$AA?$CF?$AAd@| [ DATA ] ; `string'

  00068			 AREA	 |.pdata|, PDATA
|$T37200| DCD	|$LN12@ClearMenel|
	DCD	0x40004504

  00000			 AREA	 |.rdata|, DATA, READONLY
|??_C@_1DO@JCNFCJEH@?$AA?9?$AAC?$AAM?$AAe?$AAn?$AAe?$AAl?$AAa?$AAu?$AAs?$AA?3?$AA?3?$AAC?$AAl?$AAe?$AAa?$AAr?$AAM?$AAe?$AAn?$AAe?$AAl?$AAa?$AAu?$AAs?$AAI?$AAr?$AAq?$AA?$AN?$AA?6?$AA?$AA@| DCB "-"
	DCB	0x0, "C", 0x0, "M", 0x0, "e", 0x0, "n", 0x0, "e", 0x0, "l"
	DCB	0x0, "a", 0x0, "u", 0x0, "s", 0x0, ":", 0x0, ":", 0x0, "C"
	DCB	0x0, "l", 0x0, "e", 0x0, "a", 0x0, "r", 0x0, "M", 0x0, "e"
	DCB	0x0, "n", 0x0, "e", 0x0, "l", 0x0, "a", 0x0, "u", 0x0, "s"
	DCB	0x0, "I", 0x0, "r", 0x0, "q", 0x0, 0xd, 0x0, 0xa, 0x0, 0x0
	DCB	0x0					; `string'

  00000			 AREA	 |.rdata|, DATA, READONLY
|??_C@_1EI@GJLMNFMC@?$AA?$CL?$AAC?$AAM?$AAe?$AAn?$AAe?$AAl?$AAa?$AAu?$AAs?$AA?3?$AA?3?$AAC?$AAl?$AAe?$AAa?$AAr?$AAM?$AAe?$AAn?$AAe?$AAl?$AAa?$AAu?$AAs?$AAI?$AAr?$AAq?$AA?5?$AA?$CI?$AA?$CF?$AAd@| DCB "+"
	DCB	0x0, "C", 0x0, "M", 0x0, "e", 0x0, "n", 0x0, "e", 0x0, "l"
	DCB	0x0, "a", 0x0, "u", 0x0, "s", 0x0, ":", 0x0, ":", 0x0, "C"
	DCB	0x0, "l", 0x0, "e", 0x0, "a", 0x0, "r", 0x0, "M", 0x0, "e"
	DCB	0x0, "n", 0x0, "e", 0x0, "l", 0x0, "a", 0x0, "u", 0x0, "s"
	DCB	0x0, "I", 0x0, "r", 0x0, "q", 0x0, " ", 0x0, "(", 0x0, "%"
	DCB	0x0, "d", 0x0, ")", 0x0, 0xd, 0x0, 0xa, 0x0, 0x0, 0x0 ; `string'
; Function compile flags: /Odtp

  02528			 AREA	 |.text|, CODE, ARM

  02528		 |?ClearMenelausIrq@CMenelaus@@AAAHI@Z| PROC ; CMenelaus::ClearMenelausIrq

; 638  : {

  02528		 |$LN12@ClearMenel|
  02528	e1a0c00d	 mov         r12, sp
  0252c	e92d0003	 stmdb       sp!, {r0, r1}
  02530	e92d5000	 stmdb       sp!, {r12, lr}
  02534	e24dd018	 sub         sp, sp, #0x18
  02538		 |$M37197|

; 639  :     DEBUGMSG(SDCARD_ZONE_FUNC, (L"+CMenelaus::ClearMenelausIrq (%d)\r\n", irq));

  02538	e59f30f4	 ldr         r3, [pc, #0xF4]
  0253c	e5933440	 ldr         r3, [r3, #0x440]
  02540	e3130b02	 tst         r3, #2, 22
  02544	0a000005	 beq         |$LN6@ClearMenel|
  02548	e59d1024	 ldr         r1, [sp, #0x24]
  0254c	e59f00e4	 ldr         r0, [pc, #0xE4]
  02550	eb000000	 bl          NKDbgPrintfW
  02554	e3a03001	 mov         r3, #1
  02558	e58d3008	 str         r3, [sp, #8]
  0255c	ea000001	 b           |$LN7@ClearMenel|
  02560		 |$LN6@ClearMenel|
  02560	e3a03000	 mov         r3, #0
  02564	e58d3008	 str         r3, [sp, #8]
  02568		 |$LN7@ClearMenel|

; 640  :     BOOL rc = FALSE;

  02568	e3a03000	 mov         r3, #0
  0256c	e58d3000	 str         r3, [sp]

; 641  : 
; 642  :     if ((irq - IRQ_MENELAUS_CD1) < 8)

  02570	e59d3024	 ldr         r3, [sp, #0x24]
  02574	e2433064	 sub         r3, r3, #0x64
  02578	e3530008	 cmp         r3, #8
  0257c	2a00000b	 bcs         |$LN3@ClearMenel|

; 643  :     {
; 644  :         rc = WriteData(MENELAUS_INTACK1_OFFSET, (1 << (irq - IRQ_MENELAUS_CD1)));

  02580	e59d3024	 ldr         r3, [sp, #0x24]
  02584	e2432064	 sub         r2, r3, #0x64
  02588	e3a03001	 mov         r3, #1
  0258c	e1a03213	 mov         r3, r3, lsl r2
  02590	e20320ff	 and         r2, r3, #0xFF
  02594	e3a0101b	 mov         r1, #0x1B
  02598	e59d0020	 ldr         r0, [sp, #0x20]
  0259c	eb000000	 bl          |?WriteData@CMenelaus@@AAAHEE@Z|
  025a0	e58d000c	 str         r0, [sp, #0xC]
  025a4	e59d300c	 ldr         r3, [sp, #0xC]
  025a8	e58d3000	 str         r3, [sp]
  025ac	ea00000e	 b           |$LN2@ClearMenel|
  025b0		 |$LN3@ClearMenel|

; 645  :     }
; 646  :     else if ((irq - IRQ_MENELAUS_RTCTMR) < 5)

  025b0	e59d3024	 ldr         r3, [sp, #0x24]
  025b4	e243306c	 sub         r3, r3, #0x6C
  025b8	e3530005	 cmp         r3, #5
  025bc	2a00000a	 bcs         |$LN1@ClearMenel|

; 647  :     {
; 648  :         rc = WriteData(MENELAUS_INTACK2_OFFSET, (1 << (irq - IRQ_MENELAUS_RTCTMR)));

  025c0	e59d3024	 ldr         r3, [sp, #0x24]
  025c4	e243206c	 sub         r2, r3, #0x6C
  025c8	e3a03001	 mov         r3, #1
  025cc	e1a03213	 mov         r3, r3, lsl r2
  025d0	e20320ff	 and         r2, r3, #0xFF
  025d4	e3a0101c	 mov         r1, #0x1C
  025d8	e59d0020	 ldr         r0, [sp, #0x20]
  025dc	eb000000	 bl          |?WriteData@CMenelaus@@AAAHEE@Z|
  025e0	e58d0010	 str         r0, [sp, #0x10]
  025e4	e59d3010	 ldr         r3, [sp, #0x10]
  025e8	e58d3000	 str         r3, [sp]
  025ec		 |$LN1@ClearMenel|
  025ec		 |$LN2@ClearMenel|

; 649  :     }
; 650  :         
; 651  :     DEBUGMSG(SDCARD_ZONE_FUNC, (L"-CMenelaus::ClearMenelausIrq\r\n"));

  025ec	e59f3040	 ldr         r3, [pc, #0x40]
  025f0	e5933440	 ldr         r3, [r3, #0x440]
  025f4	e3130b02	 tst         r3, #2, 22
  025f8	0a000004	 beq         |$LN8@ClearMenel|
  025fc	e59f002c	 ldr         r0, [pc, #0x2C]
  02600	eb000000	 bl          NKDbgPrintfW
  02604	e3a03001	 mov         r3, #1
  02608	e58d3014	 str         r3, [sp, #0x14]
  0260c	ea000001	 b           |$LN9@ClearMenel|
  02610		 |$LN8@ClearMenel|
  02610	e3a03000	 mov         r3, #0
  02614	e58d3014	 str         r3, [sp, #0x14]
  02618		 |$LN9@ClearMenel|

; 652  :     return rc;

  02618	e59d3000	 ldr         r3, [sp]
  0261c	e58d3004	 str         r3, [sp, #4]

; 653  : }

  02620	e59d0004	 ldr         r0, [sp, #4]
  02624	e28dd018	 add         sp, sp, #0x18
  02628	e89d6000	 ldmia       sp, {sp, lr}
  0262c	e12fff1e	 bx          lr
  02630		 |$LN13@ClearMenel|
  02630		 |$LN14@ClearMenel|
  02630	00000000	 DCD         |??_C@_1DO@JCNFCJEH@?$AA?9?$AAC?$AAM?$AAe?$AAn?$AAe?$AAl?$AAa?$AAu?$AAs?$AA?3?$AA?3?$AAC?$AAl?$AAe?$AAa?$AAr?$AAM?$AAe?$AAn?$AAe?$AAl?$AAa?$AAu?$AAs?$AAI?$AAr?$AAq?$AA?$AN?$AA?6?$AA?$AA@|
  02634		 |$LN15@ClearMenel|
  02634	00000000	 DCD         |dpCurSettings|
  02638		 |$LN16@ClearMenel|
  02638	00000000	 DCD         |??_C@_1EI@GJLMNFMC@?$AA?$CL?$AAC?$AAM?$AAe?$AAn?$AAe?$AAl?$AAa?$AAu?$AAs?$AA?3?$AA?3?$AAC?$AAl?$AAe?$AAa?$AAr?$AAM?$AAe?$AAn?$AAe?$AAl?$AAa?$AAu?$AAs?$AAI?$AAr?$AAq?$AA?5?$AA?$CI?$AA?$CF?$AAd@|
  0263c		 |$M37198|

			 ENDP  ; |?ClearMenelausIrq@CMenelaus@@AAAHI@Z|, CMenelaus::ClearMenelausIrq

	END
