; Listing generated by Microsoft (R) Optimizing Compiler Version 14.01.60511.01 

	TTL	C:\WINCE600\PLATFORM\COMMON\SRC\SOC\OMAP2420_MS_V1\WAVEDEV\btauspi.cpp
	CODE32

  00000			 AREA	 |.drectve|, DRECTVE
	DCB	"-defaultlib:LIBCMT "
	DCB	"-defaultlib:OLDNAMES "

	EXPORT	|??_C@_1DA@OPDLKJNL@?$AAA?$AAC?$AA?3?$AA?5?$AAS?$AAe?$AAl?$AAe?$AAc?$AAt?$AAB?$AAt?$AAA?$AAu?$AAd?$AAi?$AAo?$AA?$CI?$AA?$CF?$AAd?$AA?$CJ?$AA?$AN?$AA?6?$AA?$AA@| [ DATA ] ; `string'
	EXPORT	|?SelectBtAudio@ACAudioHWContext@@AAAXK@Z| ; ACAudioHWContext::SelectBtAudio
	IMPORT	|NKDbgPrintfW|
	IMPORT	|dpCurSettings|

  00000			 AREA	 |.pdata|, PDATA
|$T37445| DCD	|$LN7@SelectBtAu|
	DCD	0x40001504
; File c:\wince600\platform\common\src\soc\omap2420_ms_v1\wavedev\btauspi.cpp

  00000			 AREA	 |.rdata|, DATA, READONLY
|??_C@_1DA@OPDLKJNL@?$AAA?$AAC?$AA?3?$AA?5?$AAS?$AAe?$AAl?$AAe?$AAc?$AAt?$AAB?$AAt?$AAA?$AAu?$AAd?$AAi?$AAo?$AA?$CI?$AA?$CF?$AAd?$AA?$CJ?$AA?$AN?$AA?6?$AA?$AA@| DCB "A"
	DCB	0x0, "C", 0x0, ":", 0x0, " ", 0x0, "S", 0x0, "e", 0x0, "l"
	DCB	0x0, "e", 0x0, "c", 0x0, "t", 0x0, "B", 0x0, "t", 0x0, "A"
	DCB	0x0, "u", 0x0, "d", 0x0, "i", 0x0, "o", 0x0, "(", 0x0, "%"
	DCB	0x0, "d", 0x0, ")", 0x0, 0xd, 0x0, 0xa, 0x0, 0x0, 0x0 ; `string'
; Function compile flags: /Odtp

  00000			 AREA	 |.text|, CODE, ARM

  00000		 |?SelectBtAudio@ACAudioHWContext@@AAAXK@Z| PROC ; ACAudioHWContext::SelectBtAudio

; 31   : {

  00000		 |$LN7@SelectBtAu|
  00000	e1a0c00d	 mov         r12, sp
  00004	e92d0003	 stmdb       sp!, {r0, r1}
  00008	e92d5000	 stmdb       sp!, {r12, lr}
  0000c	e24dd004	 sub         sp, sp, #4
  00010		 |$M37442|

; 32   :     DEBUGMSG(ZONE_AC,(TEXT("AC: SelectBtAudio(%d)\r\n"),dwAudioRouting));

  00010	e59f3038	 ldr         r3, [pc, #0x38]
  00014	e5933440	 ldr         r3, [r3, #0x440]
  00018	e3130001	 tst         r3, #1
  0001c	0a000005	 beq         |$LN3@SelectBtAu|
  00020	e59d1010	 ldr         r1, [sp, #0x10]
  00024	e59f0020	 ldr         r0, [pc, #0x20]
  00028	eb000000	 bl          NKDbgPrintfW
  0002c	e3a03001	 mov         r3, #1
  00030	e58d3000	 str         r3, [sp]
  00034	ea000001	 b           |$LN4@SelectBtAu|
  00038		 |$LN3@SelectBtAu|
  00038	e3a03000	 mov         r3, #0
  0003c	e58d3000	 str         r3, [sp]
  00040		 |$LN4@SelectBtAu|

; 33   : 
; 34   : /*    EnableEAC12MClockREQ(TRUE);
; 35   : 
; 36   :     if (m_CurBTEacConnection != V3U3V2T4_TO_EAC_BT_AUSPI)
; 37   :     {
; 38   :         ConfigEacBTAuSpiPins(V3U3V2T4_TO_EAC_BT_AUSPI);         
; 39   :     }
; 40   : 
; 41   :     m_CurBTEacConnection = V3U3V2T4_TO_EAC_BT_AUSPI;   
; 42   : 
; 43   : 
; 44   :     if (dwAudioRouting & BT_AUDIO_SYSTEM)
; 45   :     {
; 46   :         // Enable system audio to BT AUSPI port
; 47   :         SETREG16(&m_pMCBSPRegisters->AMSCFR,BIT10);
; 48   :     }
; 49   :     else
; 50   :     {
; 51   :         // Disable system audio to BT AUSPI port
; 52   :         CLRREG16(&m_pMCBSPRegisters->AMSCFR,BIT10);
; 53   :     }
; 54   :     
; 55   :     if (dwAudioRouting & BT_AUDIO_MODEM)
; 56   :     {
; 57   :         // Enable modem audio to BT Auspi port
; 58   :         SETREG16(&m_pMCBSPRegisters->AMSCFR, BIT9 | BIT11);
; 59   :     }
; 60   :     else
; 61   :     {
; 62   :         // Disable modem audio to BT AUSPI port
; 63   :         CLRREG16(&m_pMCBSPRegisters->AMSCFR, BIT9 | BIT11);
; 64   :     }
; 65   : */        
; 66   : }

  00040	e28dd004	 add         sp, sp, #4
  00044	e89d6000	 ldmia       sp, {sp, lr}
  00048	e12fff1e	 bx          lr
  0004c		 |$LN8@SelectBtAu|
  0004c		 |$LN9@SelectBtAu|
  0004c	00000000	 DCD         |??_C@_1DA@OPDLKJNL@?$AAA?$AAC?$AA?3?$AA?5?$AAS?$AAe?$AAl?$AAe?$AAc?$AAt?$AAB?$AAt?$AAA?$AAu?$AAd?$AAi?$AAo?$AA?$CI?$AA?$CF?$AAd?$AA?$CJ?$AA?$AN?$AA?6?$AA?$AA@|
  00050		 |$LN10@SelectBtAu|
  00050	00000000	 DCD         |dpCurSettings|
  00054		 |$M37443|

			 ENDP  ; |?SelectBtAudio@ACAudioHWContext@@AAAXK@Z|, ACAudioHWContext::SelectBtAudio

	EXPORT	|??_C@_1CO@MBNKNOFH@?$AAA?$AAC?$AA?3?$AA?5?$AAS?$AAe?$AAl?$AAe?$AAc?$AAt?$AAV?$AAo?$AAi?$AAc?$AAe?$AAC?$AAo?$AAd?$AAe?$AAc?$AA?$AN?$AA?6?$AA?$AA@| [ DATA ] ; `string'
	EXPORT	|?SelectVoiceCodec@ACAudioHWContext@@AAAXXZ| ; ACAudioHWContext::SelectVoiceCodec

  00008			 AREA	 |.pdata|, PDATA
|$T37455| DCD	|$LN7@SelectVoic|
	DCD	0x40001404

  00000			 AREA	 |.rdata|, DATA, READONLY
|??_C@_1CO@MBNKNOFH@?$AAA?$AAC?$AA?3?$AA?5?$AAS?$AAe?$AAl?$AAe?$AAc?$AAt?$AAV?$AAo?$AAi?$AAc?$AAe?$AAC?$AAo?$AAd?$AAe?$AAc?$AA?$AN?$AA?6?$AA?$AA@| DCB "A"
	DCB	0x0, "C", 0x0, ":", 0x0, " ", 0x0, "S", 0x0, "e", 0x0, "l"
	DCB	0x0, "e", 0x0, "c", 0x0, "t", 0x0, "V", 0x0, "o", 0x0, "i"
	DCB	0x0, "c", 0x0, "e", 0x0, "C", 0x0, "o", 0x0, "d", 0x0, "e"
	DCB	0x0, "c", 0x0, 0xd, 0x0, 0xa, 0x0, 0x0, 0x0 ; `string'
; Function compile flags: /Odtp

  00054			 AREA	 |.text|, CODE, ARM

  00054		 |?SelectVoiceCodec@ACAudioHWContext@@AAAXXZ| PROC ; ACAudioHWContext::SelectVoiceCodec

; 76   : {

  00054		 |$LN7@SelectVoic|
  00054	e1a0c00d	 mov         r12, sp
  00058	e92d0001	 stmdb       sp!, {r0}
  0005c	e92d5000	 stmdb       sp!, {r12, lr}
  00060	e24dd004	 sub         sp, sp, #4
  00064		 |$M37452|

; 77   :     DEBUGMSG(ZONE_AC,(TEXT("AC: SelectVoiceCodec\r\n")));

  00064	e59f3034	 ldr         r3, [pc, #0x34]
  00068	e5933440	 ldr         r3, [r3, #0x440]
  0006c	e3130001	 tst         r3, #1
  00070	0a000004	 beq         |$LN3@SelectVoic|
  00074	e59f0020	 ldr         r0, [pc, #0x20]
  00078	eb000000	 bl          NKDbgPrintfW
  0007c	e3a03001	 mov         r3, #1
  00080	e58d3000	 str         r3, [sp]
  00084	ea000001	 b           |$LN4@SelectVoic|
  00088		 |$LN3@SelectVoic|
  00088	e3a03000	 mov         r3, #0
  0008c	e58d3000	 str         r3, [sp]
  00090		 |$LN4@SelectVoic|

; 78   :     
; 79   : /*    if (m_CurBTEacConnection != W6R9Y6Y5_TO_EAC_BT_AUSPI)
; 80   :     {
; 81   :         EnableEAC12MClockREQ(TRUE);
; 82   :         ConfigEacBTAuSpiPins(W6R9Y6Y5_TO_EAC_BT_AUSPI);    
; 83   :         
; 84   :         // Enable modem audio to BT Auspi port
; 85   :         SETREG16(&m_pMCBSPRegisters->AMSCFR,BIT9 | BIT11);
; 86   : 
; 87   :         // Disable system audio to BT AUSPI port
; 88   :         CLRREG16(&m_pMCBSPRegisters->AMSCFR,BIT10);
; 89   :     }
; 90   :             
; 91   :     m_CurBTEacConnection = W6R9Y6Y5_TO_EAC_BT_AUSPI;   
; 92   : */        
; 93   : }

  00090	e28dd004	 add         sp, sp, #4
  00094	e89d6000	 ldmia       sp, {sp, lr}
  00098	e12fff1e	 bx          lr
  0009c		 |$LN8@SelectVoic|
  0009c		 |$LN9@SelectVoic|
  0009c	00000000	 DCD         |??_C@_1CO@MBNKNOFH@?$AAA?$AAC?$AA?3?$AA?5?$AAS?$AAe?$AAl?$AAe?$AAc?$AAt?$AAV?$AAo?$AAi?$AAc?$AAe?$AAC?$AAo?$AAd?$AAe?$AAc?$AA?$AN?$AA?6?$AA?$AA@|
  000a0		 |$LN10@SelectVoic|
  000a0	00000000	 DCD         |dpCurSettings|
  000a4		 |$M37453|

			 ENDP  ; |?SelectVoiceCodec@ACAudioHWContext@@AAAXXZ|, ACAudioHWContext::SelectVoiceCodec

	END
