; Listing generated by Microsoft (R) Optimizing Compiler Version 14.01.60511.01 

	TTL	C:\WINCE600\PLATFORM\COMMON\SRC\SOC\OMAP2420_MS_V1\WAVEDEV\devctxt.cpp
	CODE32

  00000			 AREA	 |.drectve|, DRECTVE
	DCB	"-defaultlib:LIBCMT "
	DCB	"-defaultlib:OLDNAMES "

	EXPORT	|?IsSupportedFormat@DeviceContext@@UAAHPAUtWAVEFORMATEX@@@Z| ; DeviceContext::IsSupportedFormat

  00000			 AREA	 |.pdata|, PDATA
|$T37604| DCD	|$LN10@IsSupporte|
	DCD	0x40006504
; Function compile flags: /Odtp
; File c:\wince600\platform\common\src\soc\omap2420_ms_v1\wavedev\devctxt.cpp

  00000			 AREA	 |.text|, CODE, ARM

  00000		 |?IsSupportedFormat@DeviceContext@@UAAHPAUtWAVEFORMATEX@@@Z| PROC ; DeviceContext::IsSupportedFormat

; 29   : {

  00000		 |$LN10@IsSupporte|
  00000	e1a0c00d	 mov         r12, sp
  00004	e92d0003	 stmdb       sp!, {r0, r1}
  00008	e92d5000	 stmdb       sp!, {r12, lr}
  0000c	e24dd004	 sub         sp, sp, #4
  00010		 |$M37601|

; 30   :     if (lpFormat->wFormatTag != WAVE_FORMAT_PCM)

  00010	e59d1010	 ldr         r1, [sp, #0x10]
  00014	e5d13001	 ldrb        r3, [r1, #1]
  00018	e1a03403	 mov         r3, r3, lsl #8
  0001c	e1a02803	 mov         r2, r3, lsl #16
  00020	e1a02822	 mov         r2, r2, lsr #16
  00024	e5d13000	 ldrb        r3, [r1]
  00028	e1833002	 orr         r3, r3, r2
  0002c	e3530001	 cmp         r3, #1
  00030	0a000002	 beq         |$LN5@IsSupporte|

; 31   :         return FALSE;

  00034	e3a03000	 mov         r3, #0
  00038	e58d3000	 str         r3, [sp]
  0003c	ea000050	 b           |$LN6@IsSupporte|
  00040		 |$LN5@IsSupporte|

; 32   : 
; 33   :     if (  (lpFormat->nChannels!=1) && (lpFormat->nChannels!=2) )

  00040	e59d3010	 ldr         r3, [sp, #0x10]
  00044	e2831002	 add         r1, r3, #2
  00048	e5d13001	 ldrb        r3, [r1, #1]
  0004c	e1a03403	 mov         r3, r3, lsl #8
  00050	e1a02803	 mov         r2, r3, lsl #16
  00054	e1a02822	 mov         r2, r2, lsr #16
  00058	e5d13000	 ldrb        r3, [r1]
  0005c	e1833002	 orr         r3, r3, r2
  00060	e3530001	 cmp         r3, #1
  00064	0a00000c	 beq         |$LN4@IsSupporte|
  00068	e59d3010	 ldr         r3, [sp, #0x10]
  0006c	e2831002	 add         r1, r3, #2
  00070	e5d13001	 ldrb        r3, [r1, #1]
  00074	e1a03403	 mov         r3, r3, lsl #8
  00078	e1a02803	 mov         r2, r3, lsl #16
  0007c	e1a02822	 mov         r2, r2, lsr #16
  00080	e5d13000	 ldrb        r3, [r1]
  00084	e1833002	 orr         r3, r3, r2
  00088	e3530002	 cmp         r3, #2
  0008c	0a000002	 beq         |$LN4@IsSupporte|

; 34   :         return FALSE;

  00090	e3a03000	 mov         r3, #0
  00094	e58d3000	 str         r3, [sp]
  00098	ea000039	 b           |$LN6@IsSupporte|
  0009c		 |$LN4@IsSupporte|

; 35   : 
; 36   :     if (  (lpFormat->wBitsPerSample!=8) && (lpFormat->wBitsPerSample!=16) )

  0009c	e59d3010	 ldr         r3, [sp, #0x10]
  000a0	e283100e	 add         r1, r3, #0xE
  000a4	e5d13001	 ldrb        r3, [r1, #1]
  000a8	e1a03403	 mov         r3, r3, lsl #8
  000ac	e1a02803	 mov         r2, r3, lsl #16
  000b0	e1a02822	 mov         r2, r2, lsr #16
  000b4	e5d13000	 ldrb        r3, [r1]
  000b8	e1833002	 orr         r3, r3, r2
  000bc	e3530008	 cmp         r3, #8
  000c0	0a00000c	 beq         |$LN3@IsSupporte|
  000c4	e59d3010	 ldr         r3, [sp, #0x10]
  000c8	e283100e	 add         r1, r3, #0xE
  000cc	e5d13001	 ldrb        r3, [r1, #1]
  000d0	e1a03403	 mov         r3, r3, lsl #8
  000d4	e1a02803	 mov         r2, r3, lsl #16
  000d8	e1a02822	 mov         r2, r2, lsr #16
  000dc	e5d13000	 ldrb        r3, [r1]
  000e0	e1833002	 orr         r3, r3, r2
  000e4	e3530010	 cmp         r3, #0x10
  000e8	0a000002	 beq         |$LN3@IsSupporte|

; 37   :         return FALSE;

  000ec	e3a03000	 mov         r3, #0
  000f0	e58d3000	 str         r3, [sp]
  000f4	ea000022	 b           |$LN6@IsSupporte|
  000f8		 |$LN3@IsSupporte|

; 38   : 
; 39   :     if (lpFormat->nSamplesPerSec < 100 || 
; 40   :         lpFormat->nSamplesPerSec > 48000)

  000f8	e59d3010	 ldr         r3, [sp, #0x10]
  000fc	e2831004	 add         r1, r3, #4
  00100	e5d13003	 ldrb        r3, [r1, #3]
  00104	e1a02403	 mov         r2, r3, lsl #8
  00108	e5d13002	 ldrb        r3, [r1, #2]
  0010c	e1833002	 orr         r3, r3, r2
  00110	e1a02403	 mov         r2, r3, lsl #8
  00114	e5d13001	 ldrb        r3, [r1, #1]
  00118	e1833002	 orr         r3, r3, r2
  0011c	e1a02403	 mov         r2, r3, lsl #8
  00120	e5d13000	 ldrb        r3, [r1]
  00124	e1833002	 orr         r3, r3, r2
  00128	e3530064	 cmp         r3, #0x64
  0012c	3a00000f	 bcc         |$LN1@IsSupporte|
  00130	e59d3010	 ldr         r3, [sp, #0x10]
  00134	e2831004	 add         r1, r3, #4
  00138	e5d13003	 ldrb        r3, [r1, #3]
  0013c	e1a02403	 mov         r2, r3, lsl #8
  00140	e5d13002	 ldrb        r3, [r1, #2]
  00144	e1833002	 orr         r3, r3, r2
  00148	e1a02403	 mov         r2, r3, lsl #8
  0014c	e5d13001	 ldrb        r3, [r1, #1]
  00150	e1833002	 orr         r3, r3, r2
  00154	e1a02403	 mov         r2, r3, lsl #8
  00158	e5d13000	 ldrb        r3, [r1]
  0015c	e1832002	 orr         r2, r3, r2
  00160	e3a03cbb	 mov         r3, #0xBB, 24
  00164	e3833080	 orr         r3, r3, #0x80
  00168	e1520003	 cmp         r2, r3
  0016c	9a000002	 bls         |$LN2@IsSupporte|
  00170		 |$LN1@IsSupporte|

; 41   :         return FALSE;

  00170	e3a03000	 mov         r3, #0
  00174	e58d3000	 str         r3, [sp]
  00178	ea000001	 b           |$LN6@IsSupporte|
  0017c		 |$LN2@IsSupporte|

; 42   : 
; 43   :     return TRUE;

  0017c	e3a03001	 mov         r3, #1
  00180	e58d3000	 str         r3, [sp]
  00184		 |$LN6@IsSupporte|

; 44   : }

  00184	e59d0000	 ldr         r0, [sp]
  00188	e28dd004	 add         sp, sp, #4
  0018c	e89d6000	 ldmia       sp, {sp, lr}
  00190	e12fff1e	 bx          lr
  00194		 |$M37602|

			 ENDP  ; |?IsSupportedFormat@DeviceContext@@UAAHPAUtWAVEFORMATEX@@@Z|, DeviceContext::IsSupportedFormat

	EXPORT	|?IsSupportedFormat@OutputDeviceContext@@UAAHPAUtWAVEFORMATEX@@@Z| ; OutputDeviceContext::IsSupportedFormat

  00008			 AREA	 |.pdata|, PDATA
|$T37610| DCD	|$LN6@IsSupporte@2|
	DCD	0x40001a04
; Function compile flags: /Odtp

  00194			 AREA	 |.text|, CODE, ARM

  00194		 |?IsSupportedFormat@OutputDeviceContext@@UAAHPAUtWAVEFORMATEX@@@Z| PROC ; OutputDeviceContext::IsSupportedFormat

; 55   : {

  00194		 |$LN6@IsSupporte@2|
  00194	e1a0c00d	 mov         r12, sp
  00198	e92d0003	 stmdb       sp!, {r0, r1}
  0019c	e92d5000	 stmdb       sp!, {r12, lr}
  001a0	e24dd008	 sub         sp, sp, #8
  001a4		 |$M37607|

; 56   :     if (lpFormat->wFormatTag == WAVE_FORMAT_MIDI)

  001a4	e59d1014	 ldr         r1, [sp, #0x14]
  001a8	e5d13001	 ldrb        r3, [r1, #1]
  001ac	e1a03403	 mov         r3, r3, lsl #8
  001b0	e1a02803	 mov         r2, r3, lsl #16
  001b4	e1a02822	 mov         r2, r2, lsr #16
  001b8	e5d13000	 ldrb        r3, [r1]
  001bc	e1833002	 orr         r3, r3, r2
  001c0	e3530a03	 cmp         r3, #3, 20
  001c4	1a000002	 bne         |$LN1@IsSupporte@2|

; 57   :     {
; 58   :         return TRUE;

  001c8	e3a03001	 mov         r3, #1
  001cc	e58d3000	 str         r3, [sp]
  001d0	ea000005	 b           |$LN2@IsSupporte@2|
  001d4		 |$LN1@IsSupporte@2|

; 59   :     }
; 60   : 
; 61   :     return DeviceContext::IsSupportedFormat(lpFormat);

  001d4	e59d1014	 ldr         r1, [sp, #0x14]
  001d8	e59d0010	 ldr         r0, [sp, #0x10]
  001dc	eb000000	 bl          |?IsSupportedFormat@DeviceContext@@UAAHPAUtWAVEFORMATEX@@@Z|
  001e0	e58d0004	 str         r0, [sp, #4]
  001e4	e59d3004	 ldr         r3, [sp, #4]
  001e8	e58d3000	 str         r3, [sp]
  001ec		 |$LN2@IsSupporte@2|

; 62   : }

  001ec	e59d0000	 ldr         r0, [sp]
  001f0	e28dd008	 add         sp, sp, #8
  001f4	e89d6000	 ldmia       sp, {sp, lr}
  001f8	e12fff1e	 bx          lr
  001fc		 |$M37608|

			 ENDP  ; |?IsSupportedFormat@OutputDeviceContext@@UAAHPAUtWAVEFORMATEX@@@Z|, OutputDeviceContext::IsSupportedFormat

	EXPORT	|?NewStream@DeviceContext@@QAAXPAVStreamContext@@@Z| ; DeviceContext::NewStream

  00010			 AREA	 |.pdata|, PDATA
|$T37615| DCD	|$LN8@NewStream|
	DCD	0x40001f04
; Function compile flags: /Odtp

  001fc			 AREA	 |.text|, CODE, ARM

  001fc		 |?NewStream@DeviceContext@@QAAXPAVStreamContext@@@Z| PROC ; DeviceContext::NewStream

; 74   : {

  001fc		 |$LN8@NewStream|
  001fc	e1a0c00d	 mov         r12, sp
  00200	e92d0003	 stmdb       sp!, {r0, r1}
  00204	e92d5000	 stmdb       sp!, {r12, lr}
  00208	e24dd008	 sub         sp, sp, #8
  0020c		 |$M37612|

; 75   :     InsertTailList(&m_StreamList,&pStreamContext->m_Link);

  0020c	e59d3010	 ldr         r3, [sp, #0x10]
  00210	e2833004	 add         r3, r3, #4
  00214	e58d3004	 str         r3, [sp, #4]
  00218	e59d3004	 ldr         r3, [sp, #4]
  0021c	e2833004	 add         r3, r3, #4
  00220	e5933000	 ldr         r3, [r3]
  00224	e58d3000	 str         r3, [sp]
  00228	e59d3014	 ldr         r3, [sp, #0x14]
  0022c	e2832004	 add         r2, r3, #4
  00230	e59d3004	 ldr         r3, [sp, #4]
  00234	e5823000	 str         r3, [r2]
  00238	e59d3014	 ldr         r3, [sp, #0x14]
  0023c	e2832008	 add         r2, r3, #8
  00240	e59d3000	 ldr         r3, [sp]
  00244	e5823000	 str         r3, [r2]
  00248	e59d3014	 ldr         r3, [sp, #0x14]
  0024c	e2832004	 add         r2, r3, #4
  00250	e59d3000	 ldr         r3, [sp]
  00254	e5832000	 str         r2, [r3]
  00258	e59d3014	 ldr         r3, [sp, #0x14]
  0025c	e2832004	 add         r2, r3, #4
  00260	e59d3004	 ldr         r3, [sp, #4]
  00264	e2833004	 add         r3, r3, #4
  00268	e5832000	 str         r2, [r3]

; 76   : }

  0026c	e28dd008	 add         sp, sp, #8
  00270	e89d6000	 ldmia       sp, {sp, lr}
  00274	e12fff1e	 bx          lr
  00278		 |$M37613|

			 ENDP  ; |?NewStream@DeviceContext@@QAAXPAVStreamContext@@@Z|, DeviceContext::NewStream

	EXPORT	|?DeleteStream@DeviceContext@@QAAXPAVStreamContext@@@Z| ; DeviceContext::DeleteStream

  00018			 AREA	 |.pdata|, PDATA
|$T37620| DCD	|$LN8@DeleteStre|
	DCD	0x40001704
; Function compile flags: /Odtp

  00278			 AREA	 |.text|, CODE, ARM

  00278		 |?DeleteStream@DeviceContext@@QAAXPAVStreamContext@@@Z| PROC ; DeviceContext::DeleteStream

; 88   : {

  00278		 |$LN8@DeleteStre|
  00278	e1a0c00d	 mov         r12, sp
  0027c	e92d0003	 stmdb       sp!, {r0, r1}
  00280	e92d5000	 stmdb       sp!, {r12, lr}
  00284	e24dd004	 sub         sp, sp, #4
  00288		 |$M37617|

; 89   :     RemoveEntryList(&pStreamContext->m_Link);

  00288	e59d3010	 ldr         r3, [sp, #0x10]
  0028c	e2833004	 add         r3, r3, #4
  00290	e58d3000	 str         r3, [sp]
  00294	e59d3000	 ldr         r3, [sp]
  00298	e2833004	 add         r3, r3, #4
  0029c	e5932000	 ldr         r2, [r3]
  002a0	e59d3000	 ldr         r3, [sp]
  002a4	e5933000	 ldr         r3, [r3]
  002a8	e5823000	 str         r3, [r2]
  002ac	e59d3000	 ldr         r3, [sp]
  002b0	e2831004	 add         r1, r3, #4
  002b4	e59d3000	 ldr         r3, [sp]
  002b8	e5933000	 ldr         r3, [r3]
  002bc	e2832004	 add         r2, r3, #4
  002c0	e5913000	 ldr         r3, [r1]
  002c4	e5823000	 str         r3, [r2]

; 90   : }

  002c8	e28dd004	 add         sp, sp, #4
  002cc	e89d6000	 ldmia       sp, {sp, lr}
  002d0	e12fff1e	 bx          lr
  002d4		 |$M37618|

			 ENDP  ; |?DeleteStream@DeviceContext@@QAAXPAVStreamContext@@@Z|, DeviceContext::DeleteStream

	EXPORT	|?TransferBuffer@DeviceContext@@QAAPAEPAE0PAK@Z| ; DeviceContext::TransferBuffer
	IMPORT	|?Release@StreamContext@@QAAJXZ|	; StreamContext::Release
	IMPORT	|?AddRef@StreamContext@@QAAJXZ|		; StreamContext::AddRef

  00020			 AREA	 |.pdata|, PDATA
|$T37626| DCD	|$LN10@TransferBu|
	DCD	0x40004204
; Function compile flags: /Odtp

  002d4			 AREA	 |.text|, CODE, ARM

  002d4		 |?TransferBuffer@DeviceContext@@QAAPAEPAE0PAK@Z| PROC ; DeviceContext::TransferBuffer

; 102  : {

  002d4		 |$LN10@TransferBu|
  002d4	e1a0c00d	 mov         r12, sp
  002d8	e92d000f	 stmdb       sp!, {r0 - r3}
  002dc	e92d5010	 stmdb       sp!, {r4, r12, lr}
  002e0	e24dd01c	 sub         sp, sp, #0x1C
  002e4		 |$M37623|

; 103  :     PLIST_ENTRY pListEntry;
; 104  :     StreamContext *pStreamContext;
; 105  :     PBYTE pBufferLastThis;
; 106  :     PBYTE pBufferLast=pBuffer;

  002e4	e59d302c	 ldr         r3, [sp, #0x2C]
  002e8	e58d3004	 str         r3, [sp, #4]

; 107  :     DWORD NumStreams=0;

  002ec	e3a03000	 mov         r3, #0
  002f0	e58d300c	 str         r3, [sp, #0xC]

; 108  : 
; 109  : 
; 110  :     pListEntry = m_StreamList.Flink;

  002f4	e59d3028	 ldr         r3, [sp, #0x28]
  002f8	e2833004	 add         r3, r3, #4
  002fc	e5933000	 ldr         r3, [r3]
  00300	e58d3000	 str         r3, [sp]
  00304		 |$LN5@TransferBu|

; 111  :     while (pListEntry != &m_StreamList)

  00304	e59d3028	 ldr         r3, [sp, #0x28]
  00308	e2832004	 add         r2, r3, #4
  0030c	e59d3000	 ldr         r3, [sp]
  00310	e1530002	 cmp         r3, r2
  00314	0a000024	 beq         |$LN4@TransferBu|

; 112  :     {
; 113  :         // Get a pointer to the stream context
; 114  :         pStreamContext = CONTAINING_RECORD(pListEntry,StreamContext,m_Link);

  00318	e59d3000	 ldr         r3, [sp]
  0031c	e2433004	 sub         r3, r3, #4
  00320	e58d3010	 str         r3, [sp, #0x10]

; 115  : 
; 116  :         // Note: The stream context may be closed and removed from the list inside
; 117  :         // of Render, and the context may be freed as soon as we call Release.
; 118  :         // Therefore we need to grab the next Flink first in case the
; 119  :         // entry disappears out from under us.
; 120  :         pListEntry = pListEntry->Flink;

  00324	e59d3000	 ldr         r3, [sp]
  00328	e5933000	 ldr         r3, [r3]
  0032c	e58d3000	 str         r3, [sp]

; 121  : 
; 122  :         // Render buffers
; 123  :         pStreamContext->AddRef();

  00330	e59d0010	 ldr         r0, [sp, #0x10]
  00334	eb000000	 bl          |?AddRef@StreamContext@@QAAJXZ|

; 124  :         pBufferLastThis = pStreamContext->Render(pBuffer, pBufferEnd, pBufferLast);

  00338	e59d3004	 ldr         r3, [sp, #4]
  0033c	e59d2030	 ldr         r2, [sp, #0x30]
  00340	e59d102c	 ldr         r1, [sp, #0x2C]
  00344	e59d0010	 ldr         r0, [sp, #0x10]
  00348	e5900000	 ldr         r0, [r0]
  0034c	e280e01c	 add         lr, r0, #0x1C
  00350	e59d0010	 ldr         r0, [sp, #0x10]
  00354	e59e4000	 ldr         r4, [lr]
  00358	e1a0e00f	 mov         lr, pc
  0035c	e12fff14	 bx          r4
  00360	e58d0018	 str         r0, [sp, #0x18]
  00364	e59d3018	 ldr         r3, [sp, #0x18]
  00368	e58d3008	 str         r3, [sp, #8]

; 125  :         pStreamContext->Release();

  0036c	e59d0010	 ldr         r0, [sp, #0x10]
  00370	eb000000	 bl          |?Release@StreamContext@@QAAJXZ|

; 126  :         if (pBufferLastThis>pBuffer)

  00374	e59d2008	 ldr         r2, [sp, #8]
  00378	e59d302c	 ldr         r3, [sp, #0x2C]
  0037c	e1520003	 cmp         r2, r3
  00380	9a000002	 bls         |$LN3@TransferBu|

; 127  :         {
; 128  :             NumStreams++;

  00384	e59d300c	 ldr         r3, [sp, #0xC]
  00388	e2833001	 add         r3, r3, #1
  0038c	e58d300c	 str         r3, [sp, #0xC]
  00390		 |$LN3@TransferBu|

; 129  :         }
; 130  :         if (pBufferLast < pBufferLastThis)

  00390	e59d2004	 ldr         r2, [sp, #4]
  00394	e59d3008	 ldr         r3, [sp, #8]
  00398	e1520003	 cmp         r2, r3
  0039c	2a000001	 bcs         |$LN2@TransferBu|

; 131  :         {
; 132  :             pBufferLast = pBufferLastThis;

  003a0	e59d3008	 ldr         r3, [sp, #8]
  003a4	e58d3004	 str         r3, [sp, #4]
  003a8		 |$LN2@TransferBu|

; 133  :         }
; 134  :     }

  003a8	eaffffd5	 b           |$LN5@TransferBu|
  003ac		 |$LN4@TransferBu|

; 135  : 
; 136  :     if (pNumStreams)

  003ac	e59d3034	 ldr         r3, [sp, #0x34]
  003b0	e3530000	 cmp         r3, #0
  003b4	0a000002	 beq         |$LN1@TransferBu|

; 137  :     {
; 138  :         *pNumStreams=NumStreams;

  003b8	e59d200c	 ldr         r2, [sp, #0xC]
  003bc	e59d3034	 ldr         r3, [sp, #0x34]
  003c0	e5832000	 str         r2, [r3]
  003c4		 |$LN1@TransferBu|

; 139  :     }
; 140  :     return pBufferLast;

  003c4	e59d3004	 ldr         r3, [sp, #4]
  003c8	e58d3014	 str         r3, [sp, #0x14]

; 141  : }

  003cc	e59d0014	 ldr         r0, [sp, #0x14]
  003d0	e28dd01c	 add         sp, sp, #0x1C
  003d4	e89d6010	 ldmia       sp, {r4, sp, lr}
  003d8	e12fff1e	 bx          lr
  003dc		 |$M37624|

			 ENDP  ; |?TransferBuffer@DeviceContext@@QAAPAEPAE0PAK@Z|, DeviceContext::TransferBuffer

	EXPORT	|?RecalcAllGains@DeviceContext@@QAAXXZ|	; DeviceContext::RecalcAllGains

  00028			 AREA	 |.pdata|, PDATA
|$T37631| DCD	|$LN8@RecalcAllG|
	DCD	0x40001f04
; Function compile flags: /Odtp

  003dc			 AREA	 |.text|, CODE, ARM

  003dc		 |?RecalcAllGains@DeviceContext@@QAAXXZ| PROC ; DeviceContext::RecalcAllGains

; 152  : {

  003dc		 |$LN8@RecalcAllG|
  003dc	e1a0c00d	 mov         r12, sp
  003e0	e92d0001	 stmdb       sp!, {r0}
  003e4	e92d5000	 stmdb       sp!, {r12, lr}
  003e8	e24dd008	 sub         sp, sp, #8
  003ec		 |$M37628|

; 153  :     PLIST_ENTRY pListEntry;
; 154  :     StreamContext *pStreamContext;
; 155  : 
; 156  :     for (pListEntry = m_StreamList.Flink;

  003ec	e59d3010	 ldr         r3, [sp, #0x10]
  003f0	e2833004	 add         r3, r3, #4
  003f4	e5933000	 ldr         r3, [r3]
  003f8	e58d3000	 str         r3, [sp]

; 157  :         pListEntry != &m_StreamList;

  003fc	ea000002	 b           |$LN3@RecalcAllG|
  00400		 |$LN2@RecalcAllG|

; 158  :         pListEntry = pListEntry->Flink)

  00400	e59d3000	 ldr         r3, [sp]
  00404	e5933000	 ldr         r3, [r3]
  00408	e58d3000	 str         r3, [sp]
  0040c		 |$LN3@RecalcAllG|
  0040c	e59d3010	 ldr         r3, [sp, #0x10]
  00410	e2832004	 add         r2, r3, #4
  00414	e59d3000	 ldr         r3, [sp]
  00418	e1530002	 cmp         r3, r2
  0041c	0a00000a	 beq         |$LN1@RecalcAllG|

; 159  :     {
; 160  :         pStreamContext = CONTAINING_RECORD(pListEntry,StreamContext,m_Link);

  00420	e59d3000	 ldr         r3, [sp]
  00424	e2433004	 sub         r3, r3, #4
  00428	e58d3004	 str         r3, [sp, #4]

; 161  :         pStreamContext->GainChange();

  0042c	e59d3004	 ldr         r3, [sp, #4]
  00430	e5933000	 ldr         r3, [r3]
  00434	e2833030	 add         r3, r3, #0x30
  00438	e59d0004	 ldr         r0, [sp, #4]
  0043c	e5933000	 ldr         r3, [r3]
  00440	e1a0e00f	 mov         lr, pc
  00444	e12fff13	 bx          r3

; 162  :     }

  00448	eaffffec	 b           |$LN2@RecalcAllG|
  0044c		 |$LN1@RecalcAllG|

; 163  :     return;
; 164  : }

  0044c	e28dd008	 add         sp, sp, #8
  00450	e89d6000	 ldmia       sp, {sp, lr}
  00454	e12fff1e	 bx          lr
  00458		 |$M37629|

			 ENDP  ; |?RecalcAllGains@DeviceContext@@QAAXXZ|, DeviceContext::RecalcAllGains

	EXPORT	|?StreamReadyToRender@OutputDeviceContext@@UAAXPAVStreamContext@@@Z| ; OutputDeviceContext::StreamReadyToRender
	IMPORT	|?StartOutputDMA@HardwareContext@@QAAXXZ| ; HardwareContext::StartOutputDMA
	IMPORT	|?g_pHWContext@@3PAVHardwareContext@@A|	; g_pHWContext

  00030			 AREA	 |.pdata|, PDATA
|$T37636| DCD	|$LN5@StreamRead|
	DCD	0x40000903
; Function compile flags: /Odtp

  00458			 AREA	 |.text|, CODE, ARM

  00458		 |?StreamReadyToRender@OutputDeviceContext@@UAAXPAVStreamContext@@@Z| PROC ; OutputDeviceContext::StreamReadyToRender

; 175  : {

  00458		 |$LN5@StreamRead|
  00458	e1a0c00d	 mov         r12, sp
  0045c	e92d0003	 stmdb       sp!, {r0, r1}
  00460	e92d5000	 stmdb       sp!, {r12, lr}
  00464		 |$M37633|

; 176  :     g_pHWContext->StartOutputDMA();

  00464	e59f300c	 ldr         r3, [pc, #0xC]
  00468	e5930000	 ldr         r0, [r3]
  0046c	eb000000	 bl          |?StartOutputDMA@HardwareContext@@QAAXXZ|

; 177  :     return;
; 178  : }

  00470	e89d6000	 ldmia       sp, {sp, lr}
  00474	e12fff1e	 bx          lr
  00478		 |$LN6@StreamRead|
  00478		 |$LN7@StreamRead|
  00478	00000000	 DCD         |?g_pHWContext@@3PAVHardwareContext@@A|
  0047c		 |$M37634|

			 ENDP  ; |?StreamReadyToRender@OutputDeviceContext@@UAAXPAVStreamContext@@@Z|, OutputDeviceContext::StreamReadyToRender

	EXPORT	|?StreamReadyToRender@InputDeviceContext@@UAAXPAVStreamContext@@@Z| ; InputDeviceContext::StreamReadyToRender
	IMPORT	|?StartInputDMA@HardwareContext@@QAAXXZ| ; HardwareContext::StartInputDMA

  00038			 AREA	 |.pdata|, PDATA
|$T37643| DCD	|$LN5@StreamRead@2|
	DCD	0x40000903
; Function compile flags: /Odtp

  0047c			 AREA	 |.text|, CODE, ARM

  0047c		 |?StreamReadyToRender@InputDeviceContext@@UAAXPAVStreamContext@@@Z| PROC ; InputDeviceContext::StreamReadyToRender

; 189  : {

  0047c		 |$LN5@StreamRead@2|
  0047c	e1a0c00d	 mov         r12, sp
  00480	e92d0003	 stmdb       sp!, {r0, r1}
  00484	e92d5000	 stmdb       sp!, {r12, lr}
  00488		 |$M37640|

; 190  :     g_pHWContext->StartInputDMA();

  00488	e59f300c	 ldr         r3, [pc, #0xC]
  0048c	e5930000	 ldr         r0, [r3]
  00490	eb000000	 bl          |?StartInputDMA@HardwareContext@@QAAXXZ|

; 191  :     return;
; 192  : }

  00494	e89d6000	 ldmia       sp, {sp, lr}
  00498	e12fff1e	 bx          lr
  0049c		 |$LN6@StreamRead@2|
  0049c		 |$LN7@StreamRead@2|
  0049c	00000000	 DCD         |?g_pHWContext@@3PAVHardwareContext@@A|
  004a0		 |$M37641|

			 ENDP  ; |?StreamReadyToRender@InputDeviceContext@@UAAXPAVStreamContext@@@Z|, InputDeviceContext::StreamReadyToRender

	EXPORT	|?GetDevCaps@OutputDeviceContext@@UAAKPAXK@Z| ; OutputDeviceContext::GetDevCaps
	IMPORT	|memcpy|

  00040			 AREA	 |.pdata|, PDATA
|$T37651| DCD	|$LN6@GetDevCaps|
	DCD	0x40001404

  00000			 AREA	 |.rdata|, DATA, READONLY
|?wc@?1??GetDevCaps@OutputDeviceContext@@UAAKPAXK@Z@4UtagWAVEOUTCAPS@@B| DCW 0x1 ; `OutputDeviceContext::GetDevCaps'::`2'::wc
	DCW	0x18
	DCD	0x1
	DCB	"A", 0x0, "u", 0x0, "d", 0x0, "i", 0x0, "o", 0x0, " ", 0x0
	DCB	"O", 0x0, "u", 0x0, "t", 0x0, "p", 0x0, "u", 0x0, "t", 0x0
	DCB	0x0, 0x0
	%	38
	DCD	0xfff
	DCW	0x1
	DCW	0x0
	DCD	0x6
; Function compile flags: /Odtp

  004a0			 AREA	 |.text|, CODE, ARM

  004a0		 |?GetDevCaps@OutputDeviceContext@@UAAKPAXK@Z| PROC ; OutputDeviceContext::GetDevCaps

; 204  : {

  004a0		 |$LN6@GetDevCaps|
  004a0	e1a0c00d	 mov         r12, sp
  004a4	e92d0007	 stmdb       sp!, {r0 - r2}
  004a8	e92d5000	 stmdb       sp!, {r12, lr}
  004ac	e24dd004	 sub         sp, sp, #4
  004b0		 |$M37648|

; 205  :     static const WAVEOUTCAPS wc =
; 206  :     {
; 207  :         MM_MICROSOFT,
; 208  :         24,
; 209  :         0x0001,
; 210  :         TEXT("Audio Output"),
; 211  :         WAVE_FORMAT_1M08 | WAVE_FORMAT_2M08 | WAVE_FORMAT_4M08 |
; 212  :         WAVE_FORMAT_1S08 | WAVE_FORMAT_2S08 | WAVE_FORMAT_4S08 |
; 213  :         WAVE_FORMAT_1M16 | WAVE_FORMAT_2M16 | WAVE_FORMAT_4M16 |
; 214  :         WAVE_FORMAT_1S16 | WAVE_FORMAT_2S16 | WAVE_FORMAT_4S16,
; 215  :         1,
; 216  :         0,
; 217  :         WAVECAPS_VOLUME | WAVECAPS_PLAYBACKRATE
; 218  :     };
; 219  : 
; 220  :     if (dwSize > sizeof(wc))

  004b0	e59d3014	 ldr         r3, [sp, #0x14]
  004b4	e3530054	 cmp         r3, #0x54
  004b8	9a000001	 bls         |$LN1@GetDevCaps|

; 221  :         dwSize = sizeof(wc);

  004bc	e3a03054	 mov         r3, #0x54
  004c0	e58d3014	 str         r3, [sp, #0x14]
  004c4		 |$LN1@GetDevCaps|

; 222  : 
; 223  :     memcpy( pCaps, &wc, dwSize);

  004c4	e59d2014	 ldr         r2, [sp, #0x14]
  004c8	e59f101c	 ldr         r1, [pc, #0x1C]
  004cc	e59d0010	 ldr         r0, [sp, #0x10]
  004d0	eb000000	 bl          memcpy

; 224  : 
; 225  :     return MMSYSERR_NOERROR;

  004d4	e3a03000	 mov         r3, #0
  004d8	e58d3000	 str         r3, [sp]

; 226  : }

  004dc	e59d0000	 ldr         r0, [sp]
  004e0	e28dd004	 add         sp, sp, #4
  004e4	e89d6000	 ldmia       sp, {sp, lr}
  004e8	e12fff1e	 bx          lr
  004ec		 |$LN7@GetDevCaps|
  004ec		 |$LN8@GetDevCaps|
  004ec	00000000	 DCD         |?wc@?1??GetDevCaps@OutputDeviceContext@@UAAKPAXK@Z@4UtagWAVEOUTCAPS@@B|
  004f0		 |$M37649|

			 ENDP  ; |?GetDevCaps@OutputDeviceContext@@UAAKPAXK@Z|, OutputDeviceContext::GetDevCaps

	EXPORT	|?GetDevCaps@InputDeviceContext@@UAAKPAXK@Z| ; InputDeviceContext::GetDevCaps

  00048			 AREA	 |.pdata|, PDATA
|$T37659| DCD	|$LN6@GetDevCaps@2|
	DCD	0x40001404

  00000			 AREA	 |.rdata|, DATA, READONLY
|?wc@?1??GetDevCaps@InputDeviceContext@@UAAKPAXK@Z@4UtagWAVEINCAPS@@B| DCW 0x1 ; `InputDeviceContext::GetDevCaps'::`2'::wc
	DCW	0x17
	DCD	0x1
	DCB	"A", 0x0, "u", 0x0, "d", 0x0, "i", 0x0, "o", 0x0, " ", 0x0
	DCB	"I", 0x0, "n", 0x0, "p", 0x0, "u", 0x0, "t", 0x0, 0x0, 0x0
	%	40
	DCD	0xfff
	DCW	0x1
	DCW	0x0
; Function compile flags: /Odtp

  004f0			 AREA	 |.text|, CODE, ARM

  004f0		 |?GetDevCaps@InputDeviceContext@@UAAKPAXK@Z| PROC ; InputDeviceContext::GetDevCaps

; 237  : {

  004f0		 |$LN6@GetDevCaps@2|
  004f0	e1a0c00d	 mov         r12, sp
  004f4	e92d0007	 stmdb       sp!, {r0 - r2}
  004f8	e92d5000	 stmdb       sp!, {r12, lr}
  004fc	e24dd004	 sub         sp, sp, #4
  00500		 |$M37656|

; 238  :     static const WAVEINCAPS wc =
; 239  :     {
; 240  :         MM_MICROSOFT,
; 241  :         23,
; 242  :         0x0001,
; 243  :         TEXT("Audio Input"),
; 244  :         WAVE_FORMAT_1M08 | WAVE_FORMAT_2M08 | WAVE_FORMAT_4M08 |
; 245  :         WAVE_FORMAT_1S08 | WAVE_FORMAT_2S08 | WAVE_FORMAT_4S08 |
; 246  :         WAVE_FORMAT_1M16 | WAVE_FORMAT_2M16 | WAVE_FORMAT_4M16 |
; 247  :         WAVE_FORMAT_1S16 | WAVE_FORMAT_2S16 | WAVE_FORMAT_4S16,
; 248  :         1,
; 249  :         0
; 250  :     };
; 251  : 
; 252  :     if (dwSize > sizeof(wc))

  00500	e59d3014	 ldr         r3, [sp, #0x14]
  00504	e3530050	 cmp         r3, #0x50
  00508	9a000001	 bls         |$LN1@GetDevCaps@2|

; 253  :         dwSize = sizeof(wc);

  0050c	e3a03050	 mov         r3, #0x50
  00510	e58d3014	 str         r3, [sp, #0x14]
  00514		 |$LN1@GetDevCaps@2|

; 254  : 
; 255  :     memcpy( pCaps, &wc, dwSize);

  00514	e59d2014	 ldr         r2, [sp, #0x14]
  00518	e59f101c	 ldr         r1, [pc, #0x1C]
  0051c	e59d0010	 ldr         r0, [sp, #0x10]
  00520	eb000000	 bl          memcpy

; 256  : 
; 257  :     return MMSYSERR_NOERROR;

  00524	e3a03000	 mov         r3, #0
  00528	e58d3000	 str         r3, [sp]

; 258  : }

  0052c	e59d0000	 ldr         r0, [sp]
  00530	e28dd004	 add         sp, sp, #4
  00534	e89d6000	 ldmia       sp, {sp, lr}
  00538	e12fff1e	 bx          lr
  0053c		 |$LN7@GetDevCaps@2|
  0053c		 |$LN8@GetDevCaps@2|
  0053c	00000000	 DCD         |?wc@?1??GetDevCaps@InputDeviceContext@@UAAKPAXK@Z@4UtagWAVEINCAPS@@B|
  00540		 |$M37657|

			 ENDP  ; |?GetDevCaps@InputDeviceContext@@UAAKPAXK@Z|, InputDeviceContext::GetDevCaps

	EXPORT	|?GetExtDevCaps@OutputDeviceContext@@UAAKPAXK@Z| ; OutputDeviceContext::GetExtDevCaps

  00050			 AREA	 |.pdata|, PDATA
|$T37667| DCD	|$LN6@GetExtDevC|
	DCD	0x40001404

  00000			 AREA	 |.rdata|, DATA, READONLY
|?wec@?1??GetExtDevCaps@OutputDeviceContext@@UAAKPAXK@Z@4Utag_WAVEOUTEXTCAPS@@B| DCD 0xffff ; `OutputDeviceContext::GetExtDevCaps'::`2'::wec
	DCD	0xffff
	DCD	0x0
	DCD	0x6
	DCD	0x0
	DCD	0x1f40
	DCD	0xbb80
; Function compile flags: /Odtp

  00540			 AREA	 |.text|, CODE, ARM

  00540		 |?GetExtDevCaps@OutputDeviceContext@@UAAKPAXK@Z| PROC ; OutputDeviceContext::GetExtDevCaps

; 269  : {

  00540		 |$LN6@GetExtDevC|
  00540	e1a0c00d	 mov         r12, sp
  00544	e92d0007	 stmdb       sp!, {r0 - r2}
  00548	e92d5000	 stmdb       sp!, {r12, lr}
  0054c	e24dd004	 sub         sp, sp, #4
  00550		 |$M37664|

; 270  :     static const WAVEOUTEXTCAPS wec =
; 271  :     {
; 272  :         0x0000FFFF,                         // max number of hw-mixed streams
; 273  :         0x0000FFFF,                         // available HW streams
; 274  :         0,                                  // preferred sample rate for software mixer (0 indicates no preference)
; 275  : // dev note: this value prevents the Windows CE software mixer from
; 276  : // allocating mixer memory. This driver does all mixing internally (was 0)
; 277  :         6,                                  // preferred buffer size for software mixer (0 indicates no preference)
; 278  :         0,                                  // preferred number of buffers for software mixer (0 indicates no preference)
; 279  :         8000,                               // minimum sample rate for a hw-mixed stream
; 280  :         48000                               // maximum sample rate for a hw-mixed stream
; 281  :     };
; 282  : 
; 283  :     if (dwSize > sizeof(wec))

  00550	e59d3014	 ldr         r3, [sp, #0x14]
  00554	e353001c	 cmp         r3, #0x1C
  00558	9a000001	 bls         |$LN1@GetExtDevC|

; 284  :     {
; 285  :         dwSize = sizeof(wec);

  0055c	e3a0301c	 mov         r3, #0x1C
  00560	e58d3014	 str         r3, [sp, #0x14]
  00564		 |$LN1@GetExtDevC|

; 286  :     }
; 287  : 
; 288  :     memcpy( pCaps, &wec, dwSize);

  00564	e59d2014	 ldr         r2, [sp, #0x14]
  00568	e59f101c	 ldr         r1, [pc, #0x1C]
  0056c	e59d0010	 ldr         r0, [sp, #0x10]
  00570	eb000000	 bl          memcpy

; 289  : 
; 290  :     return MMSYSERR_NOERROR;

  00574	e3a03000	 mov         r3, #0
  00578	e58d3000	 str         r3, [sp]

; 291  : }

  0057c	e59d0000	 ldr         r0, [sp]
  00580	e28dd004	 add         sp, sp, #4
  00584	e89d6000	 ldmia       sp, {sp, lr}
  00588	e12fff1e	 bx          lr
  0058c		 |$LN7@GetExtDevC|
  0058c		 |$LN8@GetExtDevC|
  0058c	00000000	 DCD         |?wec@?1??GetExtDevCaps@OutputDeviceContext@@UAAKPAXK@Z@4Utag_WAVEOUTEXTCAPS@@B|
  00590		 |$M37665|

			 ENDP  ; |?GetExtDevCaps@OutputDeviceContext@@UAAKPAXK@Z|, OutputDeviceContext::GetExtDevCaps

	EXPORT	|?GetExtDevCaps@InputDeviceContext@@UAAKPAXK@Z| ; InputDeviceContext::GetExtDevCaps

  00058			 AREA	 |.pdata|, PDATA
|$T37675| DCD	|$LN5@GetExtDevC@2|
	DCD	0x40000a04
; Function compile flags: /Odtp

  00590			 AREA	 |.text|, CODE, ARM

  00590		 |?GetExtDevCaps@InputDeviceContext@@UAAKPAXK@Z| PROC ; InputDeviceContext::GetExtDevCaps

; 302  : {

  00590		 |$LN5@GetExtDevC@2|
  00590	e1a0c00d	 mov         r12, sp
  00594	e92d0007	 stmdb       sp!, {r0 - r2}
  00598	e92d5000	 stmdb       sp!, {r12, lr}
  0059c	e24dd004	 sub         sp, sp, #4
  005a0		 |$M37672|

; 303  :     return MMSYSERR_NOTSUPPORTED;

  005a0	e3a03008	 mov         r3, #8
  005a4	e58d3000	 str         r3, [sp]

; 304  : }

  005a8	e59d0000	 ldr         r0, [sp]
  005ac	e28dd004	 add         sp, sp, #4
  005b0	e89d6000	 ldmia       sp, {sp, lr}
  005b4	e12fff1e	 bx          lr
  005b8		 |$M37673|

			 ENDP  ; |?GetExtDevCaps@InputDeviceContext@@UAAKPAXK@Z|, InputDeviceContext::GetExtDevCaps

	EXPORT	|??0InputStreamContext@@QAA@XZ|		; InputStreamContext::InputStreamContext
	EXPORT	|?CreateStream@InputDeviceContext@@UAAPAVStreamContext@@PAUwaveopendesc_tag@@@Z| ; InputDeviceContext::CreateStream
	IMPORT	|??2@YAPAXI@Z|				; operator new

  00060			 AREA	 |.pdata|, PDATA
|$T37684| DCD	|$LN7@CreateStre|
	DCD	0x40001a04
; Function compile flags: /Odtp

  005b8			 AREA	 |.text|, CODE, ARM

  005b8		 |?CreateStream@InputDeviceContext@@UAAPAVStreamContext@@PAUwaveopendesc_tag@@@Z| PROC ; InputDeviceContext::CreateStream

; 315  : {

  005b8		 |$LN7@CreateStre|
  005b8	e1a0c00d	 mov         r12, sp
  005bc	e92d0003	 stmdb       sp!, {r0, r1}
  005c0	e92d5000	 stmdb       sp!, {r12, lr}
  005c4	e24dd014	 sub         sp, sp, #0x14
  005c8		 |$M37681|

; 316  :     return new InputStreamContext;

  005c8	e3a0008c	 mov         r0, #0x8C
  005cc	eb000000	 bl          |??2@YAPAXI@Z|
  005d0	e58d0008	 str         r0, [sp, #8]
  005d4	e59d3008	 ldr         r3, [sp, #8]
  005d8	e58d3000	 str         r3, [sp]
  005dc	e59d3000	 ldr         r3, [sp]
  005e0	e3530000	 cmp         r3, #0
  005e4	0a000005	 beq         |$LN3@CreateStre|
  005e8	e59d0000	 ldr         r0, [sp]
  005ec	eb000000	 bl          |??0InputStreamContext@@QAA@XZ|
  005f0	e58d000c	 str         r0, [sp, #0xC]
  005f4	e59d300c	 ldr         r3, [sp, #0xC]
  005f8	e58d3010	 str         r3, [sp, #0x10]
  005fc	ea000001	 b           |$LN4@CreateStre|
  00600		 |$LN3@CreateStre|
  00600	e3a03000	 mov         r3, #0
  00604	e58d3010	 str         r3, [sp, #0x10]
  00608		 |$LN4@CreateStre|
  00608	e59d3010	 ldr         r3, [sp, #0x10]
  0060c	e58d3004	 str         r3, [sp, #4]

; 317  : }

  00610	e59d0004	 ldr         r0, [sp, #4]
  00614	e28dd014	 add         sp, sp, #0x14
  00618	e89d6000	 ldmia       sp, {sp, lr}
  0061c	e12fff1e	 bx          lr
  00620		 |$M37682|

			 ENDP  ; |?CreateStream@InputDeviceContext@@UAAPAVStreamContext@@PAUwaveopendesc_tag@@@Z|, InputDeviceContext::CreateStream

	EXPORT	|??_7InputStreamContext@@6B@| [ DATA ]	; InputStreamContext::`vftable'
	EXPORT	|??0WaveStreamContext@@QAA@XZ|		; WaveStreamContext::WaveStreamContext
	EXPORT	|?DoCallbackReturnBuffer@InputStreamContext@@UAAXPAUwavehdr_tag@@@Z| ; InputStreamContext::DoCallbackReturnBuffer
	EXPORT	|?DoCallbackStreamOpened@InputStreamContext@@UAAXXZ| ; InputStreamContext::DoCallbackStreamOpened
	EXPORT	|?DoCallbackStreamClosed@InputStreamContext@@UAAXXZ| ; InputStreamContext::DoCallbackStreamClosed
	EXPORT	|?GainChange@StreamContext@@UAAXXZ|	; StreamContext::GainChange
	IMPORT	|??_EInputStreamContext@@UAAPAXI@Z|, WEAK |??_GInputStreamContext@@UAAPAXI@Z| ; InputStreamContext::`vector deleting destructor', InputStreamContext::`scalar deleting destructor'
	IMPORT	|?Open@InputStreamContext@@UAAJPAVDeviceContext@@PAUwaveopendesc_tag@@K@Z| ; InputStreamContext::Open
	IMPORT	|?Close@StreamContext@@UAAKXZ|		; StreamContext::Close
	IMPORT	|?GetPos@StreamContext@@UAAKPAUmmtime_tag@@@Z| ; StreamContext::GetPos
	IMPORT	|?Run@StreamContext@@UAAKXZ|		; StreamContext::Run
	IMPORT	|?Stop@InputStreamContext@@UAAKXZ|	; InputStreamContext::Stop
	IMPORT	|?Reset@StreamContext@@UAAKXZ|		; StreamContext::Reset
	IMPORT	|?Render@WaveStreamContext@@UAAPAEPAE00@Z| ; WaveStreamContext::Render
	IMPORT	|?QueueBuffer@StreamContext@@UAAKPAUwavehdr_tag@@@Z| ; StreamContext::QueueBuffer
	IMPORT	|?SetRate@InputStreamContext@@UAAKK@Z|	; InputStreamContext::SetRate
	IMPORT	|?Render2@InputStreamContext@@UAAPAEPAE00@Z| ; InputStreamContext::Render2

  00000			 AREA	 |.pdata|, PDATA
|$T37690| DCD	|$LN5@InputStrea|
	DCD	0x40001104

  00000			 AREA	 |.rdata|, DATA, READONLY
|??_7InputStreamContext@@6B@| DCD |??_EInputStreamContext@@UAAPAXI@Z| ; InputStreamContext::`vftable'
	DCD	|?Open@InputStreamContext@@UAAJPAVDeviceContext@@PAUwaveopendesc_tag@@K@Z|
	DCD	|?Close@StreamContext@@UAAKXZ|
	DCD	|?GetPos@StreamContext@@UAAKPAUmmtime_tag@@@Z|
	DCD	|?Run@StreamContext@@UAAKXZ|
	DCD	|?Stop@InputStreamContext@@UAAKXZ|
	DCD	|?Reset@StreamContext@@UAAKXZ|
	DCD	|?Render@WaveStreamContext@@UAAPAEPAE00@Z|
	DCD	|?DoCallbackReturnBuffer@InputStreamContext@@UAAXPAUwavehdr_tag@@@Z|
	DCD	|?DoCallbackStreamOpened@InputStreamContext@@UAAXXZ|
	DCD	|?DoCallbackStreamClosed@InputStreamContext@@UAAXXZ|
	DCD	|?QueueBuffer@StreamContext@@UAAKPAUwavehdr_tag@@@Z|
	DCD	|?GainChange@StreamContext@@UAAXXZ|
	DCD	|?SetRate@InputStreamContext@@UAAKK@Z|
	DCD	|?Render2@InputStreamContext@@UAAPAEPAE00@Z|
; Function compile flags: /Odtp

  00000			 AREA	 |.text|, CODE, ARM

  00000		 |??0InputStreamContext@@QAA@XZ| PROC	; InputStreamContext::InputStreamContext
  00000		 |$LN5@InputStrea|
  00000	e1a0c00d	 mov         r12, sp
  00004	e92d0001	 stmdb       sp!, {r0}
  00008	e92d5000	 stmdb       sp!, {r12, lr}
  0000c	e24dd008	 sub         sp, sp, #8
  00010		 |$M37687|
  00010	e59d0010	 ldr         r0, [sp, #0x10]
  00014	eb000000	 bl          |??0WaveStreamContext@@QAA@XZ|
  00018	e58d0004	 str         r0, [sp, #4]
  0001c	e59f201c	 ldr         r2, [pc, #0x1C]
  00020	e59d3010	 ldr         r3, [sp, #0x10]
  00024	e5832000	 str         r2, [r3]
  00028	e59d3010	 ldr         r3, [sp, #0x10]
  0002c	e58d3000	 str         r3, [sp]
  00030	e59d0000	 ldr         r0, [sp]
  00034	e28dd008	 add         sp, sp, #8
  00038	e89d6000	 ldmia       sp, {sp, lr}
  0003c	e12fff1e	 bx          lr
  00040		 |$LN6@InputStrea|
  00040		 |$LN7@InputStrea|
  00040	00000000	 DCD         |??_7InputStreamContext@@6B@|
  00044		 |$M37688|

			 ENDP  ; |??0InputStreamContext@@QAA@XZ|, InputStreamContext::InputStreamContext

	IMPORT	|?MapGain@StreamContext@@QAAKK@Z|	; StreamContext::MapGain
; File c:\wince600\platform\common\src\soc\omap2420_ms_v1\wavedev\strmctxt.h

  00000			 AREA	 |.pdata|, PDATA
|$T37699| DCD	|$LN5@GainChange|
	DCD	0x40001104
; Function compile flags: /Odtp

  00000			 AREA	 |.text|, CODE, ARM

  00000		 |?GainChange@StreamContext@@UAAXXZ| PROC ; StreamContext::GainChange

; 155  :     {

  00000		 |$LN5@GainChange|
  00000	e1a0c00d	 mov         r12, sp
  00004	e92d0001	 stmdb       sp!, {r0}
  00008	e92d5000	 stmdb       sp!, {r12, lr}
  0000c	e24dd004	 sub         sp, sp, #4
  00010		 |$M37696|

; 156  :         m_fxpGain = MapGain(m_dwGain);

  00010	e59d300c	 ldr         r3, [sp, #0xC]
  00014	e2833058	 add         r3, r3, #0x58
  00018	e5931000	 ldr         r1, [r3]
  0001c	e59d000c	 ldr         r0, [sp, #0xC]
  00020	eb000000	 bl          |?MapGain@StreamContext@@QAAKK@Z|
  00024	e58d0000	 str         r0, [sp]
  00028	e59d300c	 ldr         r3, [sp, #0xC]
  0002c	e2832060	 add         r2, r3, #0x60
  00030	e59d3000	 ldr         r3, [sp]
  00034	e5823000	 str         r3, [r2]

; 157  :     }

  00038	e28dd004	 add         sp, sp, #4
  0003c	e89d6000	 ldmia       sp, {sp, lr}
  00040	e12fff1e	 bx          lr
  00044		 |$M37697|

			 ENDP  ; |?GainChange@StreamContext@@UAAXXZ|, StreamContext::GainChange

	EXPORT	|?DoDriverCallback@StreamContext@@QAAXIKK@Z| ; StreamContext::DoDriverCallback
	EXPORT	|??_C@_1DO@NEPGLLMP@?$AAW?$AAI?$AAD?$AAM?$AA?3?$AA?5?$AAD?$AAo?$AAC?$AAa?$AAl?$AAl?$AAb?$AAa?$AAc?$AAk?$AAR?$AAe?$AAt?$AAu?$AAr?$AAn?$AAB?$AAu?$AAf?$AAf?$AAe?$AAr?$AA?$AN?$AA?6?$AA?$AA@| [ DATA ] ; `string'
	IMPORT	|NKDbgPrintfW|
	IMPORT	|dpCurSettings|

  00000			 AREA	 |.pdata|, PDATA
|$T37708| DCD	|$LN7@DoCallback|
	DCD	0x40001d04

  00000			 AREA	 |.rdata|, DATA, READONLY
|??_C@_1DO@NEPGLLMP@?$AAW?$AAI?$AAD?$AAM?$AA?3?$AA?5?$AAD?$AAo?$AAC?$AAa?$AAl?$AAl?$AAb?$AAa?$AAc?$AAk?$AAR?$AAe?$AAt?$AAu?$AAr?$AAn?$AAB?$AAu?$AAf?$AAf?$AAe?$AAr?$AA?$AN?$AA?6?$AA?$AA@| DCB "W"
	DCB	0x0, "I", 0x0, "D", 0x0, "M", 0x0, ":", 0x0, " ", 0x0, "D"
	DCB	0x0, "o", 0x0, "C", 0x0, "a", 0x0, "l", 0x0, "l", 0x0, "b"
	DCB	0x0, "a", 0x0, "c", 0x0, "k", 0x0, "R", 0x0, "e", 0x0, "t"
	DCB	0x0, "u", 0x0, "r", 0x0, "n", 0x0, "B", 0x0, "u", 0x0, "f"
	DCB	0x0, "f", 0x0, "e", 0x0, "r", 0x0, 0xd, 0x0, 0xa, 0x0, 0x0
	DCB	0x0					; `string'
; Function compile flags: /Odtp

  00000			 AREA	 |.text|, CODE, ARM

  00000		 |?DoCallbackReturnBuffer@InputStreamContext@@UAAXPAUwavehdr_tag@@@Z| PROC ; InputStreamContext::DoCallbackReturnBuffer

; 225  :     {

  00000		 |$LN7@DoCallback|
  00000	e1a0c00d	 mov         r12, sp
  00004	e92d0003	 stmdb       sp!, {r0, r1}
  00008	e92d5000	 stmdb       sp!, {r12, lr}
  0000c	e24dd004	 sub         sp, sp, #4
  00010		 |$M37705|

; 226  :         DEBUGMSG(ZONE_WIDM && ZONE_VERBOSE,(TEXT("WIDM: DoCallbackReturnBuffer\r\n")));

  00010	e59f3058	 ldr         r3, [pc, #0x58]
  00014	e5933440	 ldr         r3, [r3, #0x440]
  00018	e3130020	 tst         r3, #0x20
  0001c	0a000008	 beq         |$LN3@DoCallback|
  00020	e59f3048	 ldr         r3, [pc, #0x48]
  00024	e5933440	 ldr         r3, [r3, #0x440]
  00028	e3130004	 tst         r3, #4
  0002c	0a000004	 beq         |$LN3@DoCallback|
  00030	e59f0034	 ldr         r0, [pc, #0x34]
  00034	eb000000	 bl          NKDbgPrintfW
  00038	e3a03001	 mov         r3, #1
  0003c	e58d3000	 str         r3, [sp]
  00040	ea000001	 b           |$LN4@DoCallback|
  00044		 |$LN3@DoCallback|
  00044	e3a03000	 mov         r3, #0
  00048	e58d3000	 str         r3, [sp]
  0004c		 |$LN4@DoCallback|

; 227  :         DoDriverCallback(WIM_DATA,(DWORD)lpHdr,0);

  0004c	e3a03000	 mov         r3, #0
  00050	e59d2010	 ldr         r2, [sp, #0x10]
  00054	e3a01d0f	 mov         r1, #0xF, 26
  00058	e59d000c	 ldr         r0, [sp, #0xC]
  0005c	eb000000	 bl          |?DoDriverCallback@StreamContext@@QAAXIKK@Z|

; 228  :     }

  00060	e28dd004	 add         sp, sp, #4
  00064	e89d6000	 ldmia       sp, {sp, lr}
  00068	e12fff1e	 bx          lr
  0006c		 |$LN8@DoCallback|
  0006c		 |$LN9@DoCallback|
  0006c	00000000	 DCD         |??_C@_1DO@NEPGLLMP@?$AAW?$AAI?$AAD?$AAM?$AA?3?$AA?5?$AAD?$AAo?$AAC?$AAa?$AAl?$AAl?$AAb?$AAa?$AAc?$AAk?$AAR?$AAe?$AAt?$AAu?$AAr?$AAn?$AAB?$AAu?$AAf?$AAf?$AAe?$AAr?$AA?$AN?$AA?6?$AA?$AA@|
  00070		 |$LN10@DoCallback|
  00070	00000000	 DCD         |dpCurSettings|
  00074		 |$M37706|

			 ENDP  ; |?DoCallbackReturnBuffer@InputStreamContext@@UAAXPAUwavehdr_tag@@@Z|, InputStreamContext::DoCallbackReturnBuffer


  00000			 AREA	 |.pdata|, PDATA
|$T37719| DCD	|$LN5@DoDriverCa|
	DCD	0x40001604
; Function compile flags: /Odtp

  00000			 AREA	 |.text|, CODE, ARM

  00000		 |?DoDriverCallback@StreamContext@@QAAXIKK@Z| PROC ; StreamContext::DoDriverCallback

; 97   :     {

  00000		 |$LN5@DoDriverCa|
  00000	e1a0c00d	 mov         r12, sp
  00004	e92d000f	 stmdb       sp!, {r0 - r3}
  00008	e92d5010	 stmdb       sp!, {r4, r12, lr}
  0000c	e24dd008	 sub         sp, sp, #8
  00010		 |$M37716|

; 98   :         m_pfnCallback(m_hWave,msg,m_dwInstance,dwParam1,dwParam2);

  00010	e59d3020	 ldr         r3, [sp, #0x20]
  00014	e58d3000	 str         r3, [sp]
  00018	e59d301c	 ldr         r3, [sp, #0x1C]
  0001c	e59d2014	 ldr         r2, [sp, #0x14]
  00020	e2822020	 add         r2, r2, #0x20
  00024	e5922000	 ldr         r2, [r2]
  00028	e59d1018	 ldr         r1, [sp, #0x18]
  0002c	e59d0014	 ldr         r0, [sp, #0x14]
  00030	e2800018	 add         r0, r0, #0x18
  00034	e5900000	 ldr         r0, [r0]
  00038	e59de014	 ldr         lr, [sp, #0x14]
  0003c	e28ee01c	 add         lr, lr, #0x1C
  00040	e59e4000	 ldr         r4, [lr]
  00044	e1a0e00f	 mov         lr, pc
  00048	e12fff14	 bx          r4

; 99   :     }

  0004c	e28dd008	 add         sp, sp, #8
  00050	e89d6010	 ldmia       sp, {r4, sp, lr}
  00054	e12fff1e	 bx          lr
  00058		 |$M37717|

			 ENDP  ; |?DoDriverCallback@StreamContext@@QAAXIKK@Z|, StreamContext::DoDriverCallback

	EXPORT	|??_C@_1DO@MEKEAFDJ@?$AAW?$AAI?$AAD?$AAM?$AA?3?$AA?5?$AAD?$AAo?$AAC?$AAa?$AAl?$AAl?$AAb?$AAa?$AAc?$AAk?$AAS?$AAt?$AAr?$AAe?$AAa?$AAm?$AAO?$AAp?$AAe?$AAn?$AAe?$AAd?$AA?$AN?$AA?6?$AA?$AA@| [ DATA ] ; `string'

  00000			 AREA	 |.pdata|, PDATA
|$T37728| DCD	|$LN7@DoCallback@2|
	DCD	0x40002804

  00000			 AREA	 |.rdata|, DATA, READONLY
|??_C@_1DO@MEKEAFDJ@?$AAW?$AAI?$AAD?$AAM?$AA?3?$AA?5?$AAD?$AAo?$AAC?$AAa?$AAl?$AAl?$AAb?$AAa?$AAc?$AAk?$AAS?$AAt?$AAr?$AAe?$AAa?$AAm?$AAO?$AAp?$AAe?$AAn?$AAe?$AAd?$AA?$AN?$AA?6?$AA?$AA@| DCB "W"
	DCB	0x0, "I", 0x0, "D", 0x0, "M", 0x0, ":", 0x0, " ", 0x0, "D"
	DCB	0x0, "o", 0x0, "C", 0x0, "a", 0x0, "l", 0x0, "l", 0x0, "b"
	DCB	0x0, "a", 0x0, "c", 0x0, "k", 0x0, "S", 0x0, "t", 0x0, "r"
	DCB	0x0, "e", 0x0, "a", 0x0, "m", 0x0, "O", 0x0, "p", 0x0, "e"
	DCB	0x0, "n", 0x0, "e", 0x0, "d", 0x0, 0xd, 0x0, 0xa, 0x0, 0x0
	DCB	0x0					; `string'
; Function compile flags: /Odtp

  00000			 AREA	 |.text|, CODE, ARM

  00000		 |?DoCallbackStreamOpened@InputStreamContext@@UAAXXZ| PROC ; InputStreamContext::DoCallbackStreamOpened

; 230  :     {

  00000		 |$LN7@DoCallback@2|
  00000	e1a0c00d	 mov         r12, sp
  00004	e92d0001	 stmdb       sp!, {r0}
  00008	e92d5000	 stmdb       sp!, {r12, lr}
  0000c	e24dd004	 sub         sp, sp, #4
  00010		 |$M37725|

; 231  :         g_pHWContext->InputStreamOpened();

  00010	e59f3084	 ldr         r3, [pc, #0x84]
  00014	e5933000	 ldr         r3, [r3]
  00018	e5933000	 ldr         r3, [r3]
  0001c	e2832060	 add         r2, r3, #0x60
  00020	e59f3074	 ldr         r3, [pc, #0x74]
  00024	e5930000	 ldr         r0, [r3]
  00028	e5923000	 ldr         r3, [r2]
  0002c	e1a0e00f	 mov         lr, pc
  00030	e12fff13	 bx          r3

; 232  :         DEBUGMSG(ZONE_WIDM && ZONE_VERBOSE,(TEXT("WIDM: DoCallbackStreamOpened\r\n")));

  00034	e59f305c	 ldr         r3, [pc, #0x5C]
  00038	e5933440	 ldr         r3, [r3, #0x440]
  0003c	e3130020	 tst         r3, #0x20
  00040	0a000008	 beq         |$LN3@DoCallback@2|
  00044	e59f304c	 ldr         r3, [pc, #0x4C]
  00048	e5933440	 ldr         r3, [r3, #0x440]
  0004c	e3130004	 tst         r3, #4
  00050	0a000004	 beq         |$LN3@DoCallback@2|
  00054	e59f0038	 ldr         r0, [pc, #0x38]
  00058	eb000000	 bl          NKDbgPrintfW
  0005c	e3a03001	 mov         r3, #1
  00060	e58d3000	 str         r3, [sp]
  00064	ea000001	 b           |$LN4@DoCallback@2|
  00068		 |$LN3@DoCallback@2|
  00068	e3a03000	 mov         r3, #0
  0006c	e58d3000	 str         r3, [sp]
  00070		 |$LN4@DoCallback@2|

; 233  :         DoDriverCallback(WIM_OPEN,0,0);

  00070	e3a03000	 mov         r3, #0
  00074	e3a02000	 mov         r2, #0
  00078	e3a01c03	 mov         r1, #3, 24
  0007c	e38110be	 orr         r1, r1, #0xBE
  00080	e59d000c	 ldr         r0, [sp, #0xC]
  00084	eb000000	 bl          |?DoDriverCallback@StreamContext@@QAAXIKK@Z|

; 234  :     }

  00088	e28dd004	 add         sp, sp, #4
  0008c	e89d6000	 ldmia       sp, {sp, lr}
  00090	e12fff1e	 bx          lr
  00094		 |$LN8@DoCallback@2|
  00094		 |$LN9@DoCallback@2|
  00094	00000000	 DCD         |??_C@_1DO@MEKEAFDJ@?$AAW?$AAI?$AAD?$AAM?$AA?3?$AA?5?$AAD?$AAo?$AAC?$AAa?$AAl?$AAl?$AAb?$AAa?$AAc?$AAk?$AAS?$AAt?$AAr?$AAe?$AAa?$AAm?$AAO?$AAp?$AAe?$AAn?$AAe?$AAd?$AA?$AN?$AA?6?$AA?$AA@|
  00098		 |$LN10@DoCallback@2|
  00098	00000000	 DCD         |dpCurSettings|
  0009c		 |$LN11@DoCallback@2|
  0009c	00000000	 DCD         |?g_pHWContext@@3PAVHardwareContext@@A|
  000a0		 |$M37726|

			 ENDP  ; |?DoCallbackStreamOpened@InputStreamContext@@UAAXXZ|, InputStreamContext::DoCallbackStreamOpened


  00000			 AREA	 |.pdata|, PDATA
|$T37741| DCD	|$LN7@DoCallback@3|
	DCD	0x40002804
; Function compile flags: /Odtp

  00000			 AREA	 |.text|, CODE, ARM

  00000		 |?DoCallbackStreamClosed@InputStreamContext@@UAAXXZ| PROC ; InputStreamContext::DoCallbackStreamClosed

; 236  :     {

  00000		 |$LN7@DoCallback@3|
  00000	e1a0c00d	 mov         r12, sp
  00004	e92d0001	 stmdb       sp!, {r0}
  00008	e92d5000	 stmdb       sp!, {r12, lr}
  0000c	e24dd004	 sub         sp, sp, #4
  00010		 |$M37738|

; 237  :         g_pHWContext->InputStreamClosed();

  00010	e59f3084	 ldr         r3, [pc, #0x84]
  00014	e5933000	 ldr         r3, [r3]
  00018	e5933000	 ldr         r3, [r3]
  0001c	e2832064	 add         r2, r3, #0x64
  00020	e59f3074	 ldr         r3, [pc, #0x74]
  00024	e5930000	 ldr         r0, [r3]
  00028	e5923000	 ldr         r3, [r2]
  0002c	e1a0e00f	 mov         lr, pc
  00030	e12fff13	 bx          r3

; 238  :         DEBUGMSG(ZONE_WIDM && ZONE_VERBOSE,(TEXT("WIDM: DoCallbackStreamOpened\r\n")));

  00034	e59f305c	 ldr         r3, [pc, #0x5C]
  00038	e5933440	 ldr         r3, [r3, #0x440]
  0003c	e3130020	 tst         r3, #0x20
  00040	0a000008	 beq         |$LN3@DoCallback@3|
  00044	e59f304c	 ldr         r3, [pc, #0x4C]
  00048	e5933440	 ldr         r3, [r3, #0x440]
  0004c	e3130004	 tst         r3, #4
  00050	0a000004	 beq         |$LN3@DoCallback@3|
  00054	e59f0038	 ldr         r0, [pc, #0x38]
  00058	eb000000	 bl          NKDbgPrintfW
  0005c	e3a03001	 mov         r3, #1
  00060	e58d3000	 str         r3, [sp]
  00064	ea000001	 b           |$LN4@DoCallback@3|
  00068		 |$LN3@DoCallback@3|
  00068	e3a03000	 mov         r3, #0
  0006c	e58d3000	 str         r3, [sp]
  00070		 |$LN4@DoCallback@3|

; 239  :         DoDriverCallback(WIM_CLOSE,0,0);

  00070	e3a03000	 mov         r3, #0
  00074	e3a02000	 mov         r2, #0
  00078	e3a01c03	 mov         r1, #3, 24
  0007c	e38110bf	 orr         r1, r1, #0xBF
  00080	e59d000c	 ldr         r0, [sp, #0xC]
  00084	eb000000	 bl          |?DoDriverCallback@StreamContext@@QAAXIKK@Z|

; 240  :     }

  00088	e28dd004	 add         sp, sp, #4
  0008c	e89d6000	 ldmia       sp, {sp, lr}
  00090	e12fff1e	 bx          lr
  00094		 |$LN8@DoCallback@3|
  00094		 |$LN9@DoCallback@3|
  00094	00000000	 DCD         |??_C@_1DO@MEKEAFDJ@?$AAW?$AAI?$AAD?$AAM?$AA?3?$AA?5?$AAD?$AAo?$AAC?$AAa?$AAl?$AAl?$AAb?$AAa?$AAc?$AAk?$AAS?$AAt?$AAr?$AAe?$AAa?$AAm?$AAO?$AAp?$AAe?$AAn?$AAe?$AAd?$AA?$AN?$AA?6?$AA?$AA@|
  00098		 |$LN10@DoCallback@3|
  00098	00000000	 DCD         |dpCurSettings|
  0009c		 |$LN11@DoCallback@3|
  0009c	00000000	 DCD         |?g_pHWContext@@3PAVHardwareContext@@A|
  000a0		 |$M37739|

			 ENDP  ; |?DoCallbackStreamClosed@InputStreamContext@@UAAXXZ|, InputStreamContext::DoCallbackStreamClosed

	EXPORT	|??1InputStreamContext@@UAA@XZ|		; InputStreamContext::~InputStreamContext
	IMPORT	|??3@YAXPAX@Z|				; operator delete

  00000			 AREA	 |.pdata|, PDATA
|$T37753| DCD	|$LN6@scalar|
	DCD	0x40001104
; Function compile flags: /Odtp

  00000			 AREA	 |.text|, CODE, ARM

  00000		 |??_GInputStreamContext@@UAAPAXI@Z| PROC ; InputStreamContext::`scalar deleting destructor'
  00000		 |$LN6@scalar|
  00000	e1a0c00d	 mov         r12, sp
  00004	e92d0003	 stmdb       sp!, {r0, r1}
  00008	e92d5000	 stmdb       sp!, {r12, lr}
  0000c	e24dd004	 sub         sp, sp, #4
  00010		 |$M37750|
  00010	e59d000c	 ldr         r0, [sp, #0xC]
  00014	eb000000	 bl          |??1InputStreamContext@@UAA@XZ|
  00018	e59d3010	 ldr         r3, [sp, #0x10]
  0001c	e3130001	 tst         r3, #1
  00020	0a000001	 beq         |$LN1@scalar|
  00024	e59d000c	 ldr         r0, [sp, #0xC]
  00028	eb000000	 bl          |??3@YAXPAX@Z|
  0002c		 |$LN1@scalar|
  0002c	e59d300c	 ldr         r3, [sp, #0xC]
  00030	e58d3000	 str         r3, [sp]
  00034	e59d0000	 ldr         r0, [sp]
  00038	e28dd004	 add         sp, sp, #4
  0003c	e89d6000	 ldmia       sp, {sp, lr}
  00040	e12fff1e	 bx          lr
  00044		 |$M37751|

			 ENDP  ; |??_GInputStreamContext@@UAAPAXI@Z|, InputStreamContext::`scalar deleting destructor'

	EXPORT	|??_7WaveStreamContext@@6B@| [ DATA ]	; WaveStreamContext::`vftable'
	EXPORT	|??0StreamContext@@QAA@XZ|		; StreamContext::StreamContext
	EXPORT	|?DoCallbackReturnBuffer@StreamContext@@UAAXPAUwavehdr_tag@@@Z| ; StreamContext::DoCallbackReturnBuffer
	EXPORT	|?DoCallbackStreamOpened@StreamContext@@UAAXXZ| ; StreamContext::DoCallbackStreamOpened
	EXPORT	|?DoCallbackStreamClosed@StreamContext@@UAAXXZ| ; StreamContext::DoCallbackStreamClosed
	IMPORT	|??_EWaveStreamContext@@UAAPAXI@Z|, WEAK |??_GWaveStreamContext@@UAAPAXI@Z| ; WaveStreamContext::`vector deleting destructor', WaveStreamContext::`scalar deleting destructor'
	IMPORT	|?Open@WaveStreamContext@@UAAJPAVDeviceContext@@PAUwaveopendesc_tag@@K@Z| ; WaveStreamContext::Open
	IMPORT	|?Stop@StreamContext@@UAAKXZ|		; StreamContext::Stop
	IMPORT	|_purecall|

  00000			 AREA	 |.pdata|, PDATA
|$T37761| DCD	|$LN5@WaveStream|
	DCD	0x40001104

  00000			 AREA	 |.rdata|, DATA, READONLY
|??_7WaveStreamContext@@6B@| DCD |??_EWaveStreamContext@@UAAPAXI@Z| ; WaveStreamContext::`vftable'
	DCD	|?Open@WaveStreamContext@@UAAJPAVDeviceContext@@PAUwaveopendesc_tag@@K@Z|
	DCD	|?Close@StreamContext@@UAAKXZ|
	DCD	|?GetPos@StreamContext@@UAAKPAUmmtime_tag@@@Z|
	DCD	|?Run@StreamContext@@UAAKXZ|
	DCD	|?Stop@StreamContext@@UAAKXZ|
	DCD	|?Reset@StreamContext@@UAAKXZ|
	DCD	|?Render@WaveStreamContext@@UAAPAEPAE00@Z|
	DCD	|?DoCallbackReturnBuffer@StreamContext@@UAAXPAUwavehdr_tag@@@Z|
	DCD	|?DoCallbackStreamOpened@StreamContext@@UAAXXZ|
	DCD	|?DoCallbackStreamClosed@StreamContext@@UAAXXZ|
	DCD	|?QueueBuffer@StreamContext@@UAAKPAUwavehdr_tag@@@Z|
	DCD	|?GainChange@StreamContext@@UAAXXZ|
	DCD	|_purecall|
	DCD	|_purecall|
; Function compile flags: /Odtp

  00000			 AREA	 |.text|, CODE, ARM

  00000		 |??0WaveStreamContext@@QAA@XZ| PROC	; WaveStreamContext::WaveStreamContext
  00000		 |$LN5@WaveStream|
  00000	e1a0c00d	 mov         r12, sp
  00004	e92d0001	 stmdb       sp!, {r0}
  00008	e92d5000	 stmdb       sp!, {r12, lr}
  0000c	e24dd008	 sub         sp, sp, #8
  00010		 |$M37758|
  00010	e59d0010	 ldr         r0, [sp, #0x10]
  00014	eb000000	 bl          |??0StreamContext@@QAA@XZ|
  00018	e58d0004	 str         r0, [sp, #4]
  0001c	e59f201c	 ldr         r2, [pc, #0x1C]
  00020	e59d3010	 ldr         r3, [sp, #0x10]
  00024	e5832000	 str         r2, [r3]
  00028	e59d3010	 ldr         r3, [sp, #0x10]
  0002c	e58d3000	 str         r3, [sp]
  00030	e59d0000	 ldr         r0, [sp]
  00034	e28dd008	 add         sp, sp, #8
  00038	e89d6000	 ldmia       sp, {sp, lr}
  0003c	e12fff1e	 bx          lr
  00040		 |$LN6@WaveStream|
  00040		 |$LN7@WaveStream|
  00040	00000000	 DCD         |??_7WaveStreamContext@@6B@|
  00044		 |$M37759|

			 ENDP  ; |??0WaveStreamContext@@QAA@XZ|, WaveStreamContext::WaveStreamContext

	EXPORT	|??_7StreamContext@@6B@| [ DATA ]	; StreamContext::`vftable'
	IMPORT	|??_EStreamContext@@UAAPAXI@Z|, WEAK |??_GStreamContext@@UAAPAXI@Z| ; StreamContext::`vector deleting destructor', StreamContext::`scalar deleting destructor'
	IMPORT	|?Open@StreamContext@@UAAJPAVDeviceContext@@PAUwaveopendesc_tag@@K@Z| ; StreamContext::Open

  00000			 AREA	 |.pdata|, PDATA
|$T37771| DCD	|$LN5@StreamCont|
	DCD	0x40000e04

  00000			 AREA	 |.rdata|, DATA, READONLY
|??_7StreamContext@@6B@| DCD |??_EStreamContext@@UAAPAXI@Z| ; StreamContext::`vftable'
	DCD	|?Open@StreamContext@@UAAJPAVDeviceContext@@PAUwaveopendesc_tag@@K@Z|
	DCD	|?Close@StreamContext@@UAAKXZ|
	DCD	|?GetPos@StreamContext@@UAAKPAUmmtime_tag@@@Z|
	DCD	|?Run@StreamContext@@UAAKXZ|
	DCD	|?Stop@StreamContext@@UAAKXZ|
	DCD	|?Reset@StreamContext@@UAAKXZ|
	DCD	|_purecall|
	DCD	|?DoCallbackReturnBuffer@StreamContext@@UAAXPAUwavehdr_tag@@@Z|
	DCD	|?DoCallbackStreamOpened@StreamContext@@UAAXXZ|
	DCD	|?DoCallbackStreamClosed@StreamContext@@UAAXXZ|
	DCD	|?QueueBuffer@StreamContext@@UAAKPAUwavehdr_tag@@@Z|
	DCD	|?GainChange@StreamContext@@UAAXXZ|
; Function compile flags: /Odtp

  00000			 AREA	 |.text|, CODE, ARM

  00000		 |??0StreamContext@@QAA@XZ| PROC	; StreamContext::StreamContext

; 76   :     StreamContext() {};

  00000		 |$LN5@StreamCont|
  00000	e1a0c00d	 mov         r12, sp
  00004	e92d0001	 stmdb       sp!, {r0}
  00008	e92d5000	 stmdb       sp!, {r12, lr}
  0000c	e24dd004	 sub         sp, sp, #4
  00010		 |$M37768|
  00010	e59f201c	 ldr         r2, [pc, #0x1C]
  00014	e59d300c	 ldr         r3, [sp, #0xC]
  00018	e5832000	 str         r2, [r3]
  0001c	e59d300c	 ldr         r3, [sp, #0xC]
  00020	e58d3000	 str         r3, [sp]
  00024	e59d0000	 ldr         r0, [sp]
  00028	e28dd004	 add         sp, sp, #4
  0002c	e89d6000	 ldmia       sp, {sp, lr}
  00030	e12fff1e	 bx          lr
  00034		 |$LN6@StreamCont|
  00034		 |$LN7@StreamCont|
  00034	00000000	 DCD         |??_7StreamContext@@6B@|
  00038		 |$M37769|

			 ENDP  ; |??0StreamContext@@QAA@XZ|, StreamContext::StreamContext


  00000			 AREA	 |.pdata|, PDATA
|$T37780| DCD	|$LN5@DoCallback@4|
	DCD	0x40000b03
; Function compile flags: /Odtp

  00000			 AREA	 |.text|, CODE, ARM

  00000		 |?DoCallbackReturnBuffer@StreamContext@@UAAXPAUwavehdr_tag@@@Z| PROC ; StreamContext::DoCallbackReturnBuffer

; 101  :     {

  00000		 |$LN5@DoCallback@4|
  00000	e1a0c00d	 mov         r12, sp
  00004	e92d0003	 stmdb       sp!, {r0, r1}
  00008	e92d5000	 stmdb       sp!, {r12, lr}
  0000c		 |$M37777|

; 102  :         DoDriverCallback(WOM_DONE,(DWORD)lpHdr,0);

  0000c	e3a03000	 mov         r3, #0
  00010	e59d200c	 ldr         r2, [sp, #0xC]
  00014	e3a01c03	 mov         r1, #3, 24
  00018	e38110bd	 orr         r1, r1, #0xBD
  0001c	e59d0008	 ldr         r0, [sp, #8]
  00020	eb000000	 bl          |?DoDriverCallback@StreamContext@@QAAXIKK@Z|

; 103  :     }

  00024	e89d6000	 ldmia       sp, {sp, lr}
  00028	e12fff1e	 bx          lr
  0002c		 |$M37778|

			 ENDP  ; |?DoCallbackReturnBuffer@StreamContext@@UAAXPAUwavehdr_tag@@@Z|, StreamContext::DoCallbackReturnBuffer

	EXPORT	|??_C@_1DO@BHNOCINI@?$AAW?$AAO?$AAD?$AAM?$AA?3?$AA?5?$AAD?$AAo?$AAC?$AAa?$AAl?$AAl?$AAb?$AAa?$AAc?$AAk?$AAS?$AAt?$AAr?$AAe?$AAa?$AAm?$AAO?$AAp?$AAe?$AAn?$AAe?$AAd?$AA?$AN?$AA?6?$AA?$AA@| [ DATA ] ; `string'

  00000			 AREA	 |.pdata|, PDATA
|$T37789| DCD	|$LN7@DoCallback@5|
	DCD	0x40002804

  00000			 AREA	 |.rdata|, DATA, READONLY
|??_C@_1DO@BHNOCINI@?$AAW?$AAO?$AAD?$AAM?$AA?3?$AA?5?$AAD?$AAo?$AAC?$AAa?$AAl?$AAl?$AAb?$AAa?$AAc?$AAk?$AAS?$AAt?$AAr?$AAe?$AAa?$AAm?$AAO?$AAp?$AAe?$AAn?$AAe?$AAd?$AA?$AN?$AA?6?$AA?$AA@| DCB "W"
	DCB	0x0, "O", 0x0, "D", 0x0, "M", 0x0, ":", 0x0, " ", 0x0, "D"
	DCB	0x0, "o", 0x0, "C", 0x0, "a", 0x0, "l", 0x0, "l", 0x0, "b"
	DCB	0x0, "a", 0x0, "c", 0x0, "k", 0x0, "S", 0x0, "t", 0x0, "r"
	DCB	0x0, "e", 0x0, "a", 0x0, "m", 0x0, "O", 0x0, "p", 0x0, "e"
	DCB	0x0, "n", 0x0, "e", 0x0, "d", 0x0, 0xd, 0x0, 0xa, 0x0, 0x0
	DCB	0x0					; `string'
; Function compile flags: /Odtp

  00000			 AREA	 |.text|, CODE, ARM

  00000		 |?DoCallbackStreamOpened@StreamContext@@UAAXXZ| PROC ; StreamContext::DoCallbackStreamOpened

; 105  :     {

  00000		 |$LN7@DoCallback@5|
  00000	e1a0c00d	 mov         r12, sp
  00004	e92d0001	 stmdb       sp!, {r0}
  00008	e92d5000	 stmdb       sp!, {r12, lr}
  0000c	e24dd004	 sub         sp, sp, #4
  00010		 |$M37786|

; 106  :         g_pHWContext->OutputStreamOpened();

  00010	e59f3084	 ldr         r3, [pc, #0x84]
  00014	e5933000	 ldr         r3, [r3]
  00018	e5933000	 ldr         r3, [r3]
  0001c	e2832058	 add         r2, r3, #0x58
  00020	e59f3074	 ldr         r3, [pc, #0x74]
  00024	e5930000	 ldr         r0, [r3]
  00028	e5923000	 ldr         r3, [r2]
  0002c	e1a0e00f	 mov         lr, pc
  00030	e12fff13	 bx          r3

; 107  :         DEBUGMSG(ZONE_WODM && ZONE_VERBOSE,(TEXT("WODM: DoCallbackStreamOpened\r\n")));

  00034	e59f305c	 ldr         r3, [pc, #0x5C]
  00038	e5933440	 ldr         r3, [r3, #0x440]
  0003c	e3130010	 tst         r3, #0x10
  00040	0a000008	 beq         |$LN3@DoCallback@5|
  00044	e59f304c	 ldr         r3, [pc, #0x4C]
  00048	e5933440	 ldr         r3, [r3, #0x440]
  0004c	e3130004	 tst         r3, #4
  00050	0a000004	 beq         |$LN3@DoCallback@5|
  00054	e59f0038	 ldr         r0, [pc, #0x38]
  00058	eb000000	 bl          NKDbgPrintfW
  0005c	e3a03001	 mov         r3, #1
  00060	e58d3000	 str         r3, [sp]
  00064	ea000001	 b           |$LN4@DoCallback@5|
  00068		 |$LN3@DoCallback@5|
  00068	e3a03000	 mov         r3, #0
  0006c	e58d3000	 str         r3, [sp]
  00070		 |$LN4@DoCallback@5|

; 108  :         DoDriverCallback(WOM_OPEN,0,0);

  00070	e3a03000	 mov         r3, #0
  00074	e3a02000	 mov         r2, #0
  00078	e3a01c03	 mov         r1, #3, 24
  0007c	e38110bb	 orr         r1, r1, #0xBB
  00080	e59d000c	 ldr         r0, [sp, #0xC]
  00084	eb000000	 bl          |?DoDriverCallback@StreamContext@@QAAXIKK@Z|

; 109  :     }

  00088	e28dd004	 add         sp, sp, #4
  0008c	e89d6000	 ldmia       sp, {sp, lr}
  00090	e12fff1e	 bx          lr
  00094		 |$LN8@DoCallback@5|
  00094		 |$LN9@DoCallback@5|
  00094	00000000	 DCD         |??_C@_1DO@BHNOCINI@?$AAW?$AAO?$AAD?$AAM?$AA?3?$AA?5?$AAD?$AAo?$AAC?$AAa?$AAl?$AAl?$AAb?$AAa?$AAc?$AAk?$AAS?$AAt?$AAr?$AAe?$AAa?$AAm?$AAO?$AAp?$AAe?$AAn?$AAe?$AAd?$AA?$AN?$AA?6?$AA?$AA@|
  00098		 |$LN10@DoCallback@5|
  00098	00000000	 DCD         |dpCurSettings|
  0009c		 |$LN11@DoCallback@5|
  0009c	00000000	 DCD         |?g_pHWContext@@3PAVHardwareContext@@A|
  000a0		 |$M37787|

			 ENDP  ; |?DoCallbackStreamOpened@StreamContext@@UAAXXZ|, StreamContext::DoCallbackStreamOpened

	EXPORT	|??_C@_1DO@KKCIKAN@?$AAW?$AAO?$AAD?$AAM?$AA?3?$AA?5?$AAD?$AAo?$AAC?$AAa?$AAl?$AAl?$AAb?$AAa?$AAc?$AAk?$AAS?$AAt?$AAr?$AAe?$AAa?$AAm?$AAC?$AAl?$AAo?$AAs?$AAe?$AAd?$AA?$AN?$AA?6?$AA?$AA@| [ DATA ] ; `string'

  00000			 AREA	 |.pdata|, PDATA
|$T37802| DCD	|$LN7@DoCallback@6|
	DCD	0x40002704

  00000			 AREA	 |.rdata|, DATA, READONLY
|??_C@_1DO@KKCIKAN@?$AAW?$AAO?$AAD?$AAM?$AA?3?$AA?5?$AAD?$AAo?$AAC?$AAa?$AAl?$AAl?$AAb?$AAa?$AAc?$AAk?$AAS?$AAt?$AAr?$AAe?$AAa?$AAm?$AAC?$AAl?$AAo?$AAs?$AAe?$AAd?$AA?$AN?$AA?6?$AA?$AA@| DCB "W"
	DCB	0x0, "O", 0x0, "D", 0x0, "M", 0x0, ":", 0x0, " ", 0x0, "D"
	DCB	0x0, "o", 0x0, "C", 0x0, "a", 0x0, "l", 0x0, "l", 0x0, "b"
	DCB	0x0, "a", 0x0, "c", 0x0, "k", 0x0, "S", 0x0, "t", 0x0, "r"
	DCB	0x0, "e", 0x0, "a", 0x0, "m", 0x0, "C", 0x0, "l", 0x0, "o"
	DCB	0x0, "s", 0x0, "e", 0x0, "d", 0x0, 0xd, 0x0, 0xa, 0x0, 0x0
	DCB	0x0					; `string'
; Function compile flags: /Odtp

  00000			 AREA	 |.text|, CODE, ARM

  00000		 |?DoCallbackStreamClosed@StreamContext@@UAAXXZ| PROC ; StreamContext::DoCallbackStreamClosed

; 111  :     {

  00000		 |$LN7@DoCallback@6|
  00000	e1a0c00d	 mov         r12, sp
  00004	e92d0001	 stmdb       sp!, {r0}
  00008	e92d5000	 stmdb       sp!, {r12, lr}
  0000c	e24dd004	 sub         sp, sp, #4
  00010		 |$M37799|

; 112  :         g_pHWContext->OutputStreamClosed();

  00010	e59f3080	 ldr         r3, [pc, #0x80]
  00014	e5933000	 ldr         r3, [r3]
  00018	e5933000	 ldr         r3, [r3]
  0001c	e283205c	 add         r2, r3, #0x5C
  00020	e59f3070	 ldr         r3, [pc, #0x70]
  00024	e5930000	 ldr         r0, [r3]
  00028	e5923000	 ldr         r3, [r2]
  0002c	e1a0e00f	 mov         lr, pc
  00030	e12fff13	 bx          r3

; 113  :         DEBUGMSG(ZONE_WODM && ZONE_VERBOSE,(TEXT("WODM: DoCallbackStreamClosed\r\n")));

  00034	e59f3058	 ldr         r3, [pc, #0x58]
  00038	e5933440	 ldr         r3, [r3, #0x440]
  0003c	e3130010	 tst         r3, #0x10
  00040	0a000008	 beq         |$LN3@DoCallback@6|
  00044	e59f3048	 ldr         r3, [pc, #0x48]
  00048	e5933440	 ldr         r3, [r3, #0x440]
  0004c	e3130004	 tst         r3, #4
  00050	0a000004	 beq         |$LN3@DoCallback@6|
  00054	e59f0034	 ldr         r0, [pc, #0x34]
  00058	eb000000	 bl          NKDbgPrintfW
  0005c	e3a03001	 mov         r3, #1
  00060	e58d3000	 str         r3, [sp]
  00064	ea000001	 b           |$LN4@DoCallback@6|
  00068		 |$LN3@DoCallback@6|
  00068	e3a03000	 mov         r3, #0
  0006c	e58d3000	 str         r3, [sp]
  00070		 |$LN4@DoCallback@6|

; 114  :         DoDriverCallback(WOM_CLOSE,0,0);

  00070	e3a03000	 mov         r3, #0
  00074	e3a02000	 mov         r2, #0
  00078	e3a01fef	 mov         r1, #0xEF, 30
  0007c	e59d000c	 ldr         r0, [sp, #0xC]
  00080	eb000000	 bl          |?DoDriverCallback@StreamContext@@QAAXIKK@Z|

; 115  :     }

  00084	e28dd004	 add         sp, sp, #4
  00088	e89d6000	 ldmia       sp, {sp, lr}
  0008c	e12fff1e	 bx          lr
  00090		 |$LN8@DoCallback@6|
  00090		 |$LN9@DoCallback@6|
  00090	00000000	 DCD         |??_C@_1DO@KKCIKAN@?$AAW?$AAO?$AAD?$AAM?$AA?3?$AA?5?$AAD?$AAo?$AAC?$AAa?$AAl?$AAl?$AAb?$AAa?$AAc?$AAk?$AAS?$AAt?$AAr?$AAe?$AAa?$AAm?$AAC?$AAl?$AAo?$AAs?$AAe?$AAd?$AA?$AN?$AA?6?$AA?$AA@|
  00094		 |$LN10@DoCallback@6|
  00094	00000000	 DCD         |dpCurSettings|
  00098		 |$LN11@DoCallback@6|
  00098	00000000	 DCD         |?g_pHWContext@@3PAVHardwareContext@@A|
  0009c		 |$M37800|

			 ENDP  ; |?DoCallbackStreamClosed@StreamContext@@UAAXXZ|, StreamContext::DoCallbackStreamClosed

	EXPORT	|??1StreamContext@@UAA@XZ|		; StreamContext::~StreamContext

  00000			 AREA	 |.pdata|, PDATA
|$T37814| DCD	|$LN6@scalar@2|
	DCD	0x40001104
; Function compile flags: /Odtp

  00000			 AREA	 |.text|, CODE, ARM

  00000		 |??_GStreamContext@@UAAPAXI@Z| PROC	; StreamContext::`scalar deleting destructor'
  00000		 |$LN6@scalar@2|
  00000	e1a0c00d	 mov         r12, sp
  00004	e92d0003	 stmdb       sp!, {r0, r1}
  00008	e92d5000	 stmdb       sp!, {r12, lr}
  0000c	e24dd004	 sub         sp, sp, #4
  00010		 |$M37811|
  00010	e59d000c	 ldr         r0, [sp, #0xC]
  00014	eb000000	 bl          |??1StreamContext@@UAA@XZ|
  00018	e59d3010	 ldr         r3, [sp, #0x10]
  0001c	e3130001	 tst         r3, #1
  00020	0a000001	 beq         |$LN1@scalar@2|
  00024	e59d000c	 ldr         r0, [sp, #0xC]
  00028	eb000000	 bl          |??3@YAXPAX@Z|
  0002c		 |$LN1@scalar@2|
  0002c	e59d300c	 ldr         r3, [sp, #0xC]
  00030	e58d3000	 str         r3, [sp]
  00034	e59d0000	 ldr         r0, [sp]
  00038	e28dd004	 add         sp, sp, #4
  0003c	e89d6000	 ldmia       sp, {sp, lr}
  00040	e12fff1e	 bx          lr
  00044		 |$M37812|

			 ENDP  ; |??_GStreamContext@@UAAPAXI@Z|, StreamContext::`scalar deleting destructor'


  00000			 AREA	 |.pdata|, PDATA
|$T37821| DCD	|$LN5@StreamCont@2|
	DCD	0x40000903
; Function compile flags: /Odtp

  00000			 AREA	 |.text|, CODE, ARM

  00000		 |??1StreamContext@@UAA@XZ| PROC	; StreamContext::~StreamContext

; 77   :     virtual ~StreamContext() {};

  00000		 |$LN5@StreamCont@2|
  00000	e1a0c00d	 mov         r12, sp
  00004	e92d0001	 stmdb       sp!, {r0}
  00008	e92d5000	 stmdb       sp!, {r12, lr}
  0000c		 |$M37818|
  0000c	e59f200c	 ldr         r2, [pc, #0xC]
  00010	e59d3008	 ldr         r3, [sp, #8]
  00014	e5832000	 str         r2, [r3]
  00018	e89d6000	 ldmia       sp, {sp, lr}
  0001c	e12fff1e	 bx          lr
  00020		 |$LN6@StreamCont@2|
  00020		 |$LN7@StreamCont@2|
  00020	00000000	 DCD         |??_7StreamContext@@6B@|
  00024		 |$M37819|

			 ENDP  ; |??1StreamContext@@UAA@XZ|, StreamContext::~StreamContext

	EXPORT	|??1WaveStreamContext@@UAA@XZ|		; WaveStreamContext::~WaveStreamContext

  00000			 AREA	 |.pdata|, PDATA
|$T37830| DCD	|$LN5@InputStrea@2|
	DCD	0x40000703
; Function compile flags: /Odtp

  00000			 AREA	 |.text|, CODE, ARM

  00000		 |??1InputStreamContext@@UAA@XZ| PROC	; InputStreamContext::~InputStreamContext
  00000		 |$LN5@InputStrea@2|
  00000	e1a0c00d	 mov         r12, sp
  00004	e92d0001	 stmdb       sp!, {r0}
  00008	e92d5000	 stmdb       sp!, {r12, lr}
  0000c		 |$M37827|
  0000c	e59d0008	 ldr         r0, [sp, #8]
  00010	eb000000	 bl          |??1WaveStreamContext@@UAA@XZ|
  00014	e89d6000	 ldmia       sp, {sp, lr}
  00018	e12fff1e	 bx          lr
  0001c		 |$M37828|

			 ENDP  ; |??1InputStreamContext@@UAA@XZ|, InputStreamContext::~InputStreamContext


  00000			 AREA	 |.pdata|, PDATA
|$T37837| DCD	|$LN5@WaveStream@2|
	DCD	0x40000703
; Function compile flags: /Odtp

  00000			 AREA	 |.text|, CODE, ARM

  00000		 |??1WaveStreamContext@@UAA@XZ| PROC	; WaveStreamContext::~WaveStreamContext
  00000		 |$LN5@WaveStream@2|
  00000	e1a0c00d	 mov         r12, sp
  00004	e92d0001	 stmdb       sp!, {r0}
  00008	e92d5000	 stmdb       sp!, {r12, lr}
  0000c		 |$M37834|
  0000c	e59d0008	 ldr         r0, [sp, #8]
  00010	eb000000	 bl          |??1StreamContext@@UAA@XZ|
  00014	e89d6000	 ldmia       sp, {sp, lr}
  00018	e12fff1e	 bx          lr
  0001c		 |$M37835|

			 ENDP  ; |??1WaveStreamContext@@UAA@XZ|, WaveStreamContext::~WaveStreamContext


  00000			 AREA	 |.pdata|, PDATA
|$T37845| DCD	|$LN6@scalar@3|
	DCD	0x40001104
; Function compile flags: /Odtp

  00000			 AREA	 |.text|, CODE, ARM

  00000		 |??_GWaveStreamContext@@UAAPAXI@Z| PROC ; WaveStreamContext::`scalar deleting destructor'
  00000		 |$LN6@scalar@3|
  00000	e1a0c00d	 mov         r12, sp
  00004	e92d0003	 stmdb       sp!, {r0, r1}
  00008	e92d5000	 stmdb       sp!, {r12, lr}
  0000c	e24dd004	 sub         sp, sp, #4
  00010		 |$M37842|
  00010	e59d000c	 ldr         r0, [sp, #0xC]
  00014	eb000000	 bl          |??1WaveStreamContext@@UAA@XZ|
  00018	e59d3010	 ldr         r3, [sp, #0x10]
  0001c	e3130001	 tst         r3, #1
  00020	0a000001	 beq         |$LN1@scalar@3|
  00024	e59d000c	 ldr         r0, [sp, #0xC]
  00028	eb000000	 bl          |??3@YAXPAX@Z|
  0002c		 |$LN1@scalar@3|
  0002c	e59d300c	 ldr         r3, [sp, #0xC]
  00030	e58d3000	 str         r3, [sp]
  00034	e59d0000	 ldr         r0, [sp]
  00038	e28dd004	 add         sp, sp, #4
  0003c	e89d6000	 ldmia       sp, {sp, lr}
  00040	e12fff1e	 bx          lr
  00044		 |$M37843|

			 ENDP  ; |??_GWaveStreamContext@@UAAPAXI@Z|, WaveStreamContext::`scalar deleting destructor'

	EXPORT	|??0OutputStreamContextS16@@QAA@XZ|	; OutputStreamContextS16::OutputStreamContextS16
	EXPORT	|??0OutputStreamContextS8@@QAA@XZ|	; OutputStreamContextS8::OutputStreamContextS8
	EXPORT	|??0OutputStreamContextM16@@QAA@XZ|	; OutputStreamContextM16::OutputStreamContextM16
	EXPORT	|??0OutputStreamContextM8@@QAA@XZ|	; OutputStreamContextM8::OutputStreamContextM8
	EXPORT	|??0CMidiStream@@QAA@XZ|		; CMidiStream::CMidiStream
	EXPORT	|?CreateStream@OutputDeviceContext@@UAAPAVStreamContext@@PAUwaveopendesc_tag@@@Z| ; OutputDeviceContext::CreateStream

  00068			 AREA	 |.pdata|, PDATA
|$T37868| DCD	|$LN22@CreateStre@2|
	DCD	0x4000a804
; Function compile flags: /Odtp
; File c:\wince600\platform\common\src\soc\omap2420_ms_v1\wavedev\devctxt.cpp

  00620			 AREA	 |.text|, CODE, ARM

  00620		 |?CreateStream@OutputDeviceContext@@UAAPAVStreamContext@@PAUwaveopendesc_tag@@@Z| PROC ; OutputDeviceContext::CreateStream

; 328  : {

  00620		 |$LN22@CreateStre@2|
  00620	e1a0c00d	 mov         r12, sp
  00624	e92d0003	 stmdb       sp!, {r0, r1}
  00628	e92d5000	 stmdb       sp!, {r12, lr}
  0062c	e24dd058	 sub         sp, sp, #0x58
  00630		 |$M37865|

; 329  :     LPWAVEFORMATEX lpFormat=lpWOD->lpFormat;

  00630	e59d3064	 ldr         r3, [sp, #0x64]
  00634	e2831004	 add         r1, r3, #4
  00638	e1d130d3	 ldrsb       r3, [r1, #3]
  0063c	e1a02403	 mov         r2, r3, lsl #8
  00640	e5d13002	 ldrb        r3, [r1, #2]
  00644	e1833002	 orr         r3, r3, r2
  00648	e1a02403	 mov         r2, r3, lsl #8
  0064c	e5d13001	 ldrb        r3, [r1, #1]
  00650	e1833002	 orr         r3, r3, r2
  00654	e1a02403	 mov         r2, r3, lsl #8
  00658	e5d13000	 ldrb        r3, [r1]
  0065c	e1833002	 orr         r3, r3, r2
  00660	e58d3000	 str         r3, [sp]

; 330  : 
; 331  :     if (lpWOD->lpFormat->wFormatTag == WAVE_FORMAT_MIDI)

  00664	e59d3064	 ldr         r3, [sp, #0x64]
  00668	e2831004	 add         r1, r3, #4
  0066c	e1d130d3	 ldrsb       r3, [r1, #3]
  00670	e1a02403	 mov         r2, r3, lsl #8
  00674	e5d13002	 ldrb        r3, [r1, #2]
  00678	e1833002	 orr         r3, r3, r2
  0067c	e1a02403	 mov         r2, r3, lsl #8
  00680	e5d13001	 ldrb        r3, [r1, #1]
  00684	e1833002	 orr         r3, r3, r2
  00688	e1a02403	 mov         r2, r3, lsl #8
  0068c	e5d13000	 ldrb        r3, [r1]
  00690	e1831002	 orr         r1, r3, r2
  00694	e5d13001	 ldrb        r3, [r1, #1]
  00698	e1a03403	 mov         r3, r3, lsl #8
  0069c	e1a02803	 mov         r2, r3, lsl #16
  006a0	e1a02822	 mov         r2, r2, lsr #16
  006a4	e5d13000	 ldrb        r3, [r1]
  006a8	e1833002	 orr         r3, r3, r2
  006ac	e3530a03	 cmp         r3, #3, 20
  006b0	1a000012	 bne         |$LN7@CreateStre@2|

; 332  :     {
; 333  :         return new CMidiStream;

  006b4	e3a00e61	 mov         r0, #0x61, 28
  006b8	eb000000	 bl          |??2@YAPAXI@Z|
  006bc	e58d001c	 str         r0, [sp, #0x1C]
  006c0	e59d301c	 ldr         r3, [sp, #0x1C]
  006c4	e58d3004	 str         r3, [sp, #4]
  006c8	e59d3004	 ldr         r3, [sp, #4]
  006cc	e3530000	 cmp         r3, #0
  006d0	0a000005	 beq         |$LN10@CreateStre@2|
  006d4	e59d0004	 ldr         r0, [sp, #4]
  006d8	eb000000	 bl          |??0CMidiStream@@QAA@XZ|
  006dc	e58d0020	 str         r0, [sp, #0x20]
  006e0	e59d3020	 ldr         r3, [sp, #0x20]
  006e4	e58d3024	 str         r3, [sp, #0x24]
  006e8	ea000001	 b           |$LN11@CreateStre@2|
  006ec		 |$LN10@CreateStre@2|
  006ec	e3a03000	 mov         r3, #0
  006f0	e58d3024	 str         r3, [sp, #0x24]
  006f4		 |$LN11@CreateStre@2|
  006f4	e59d3024	 ldr         r3, [sp, #0x24]
  006f8	e58d3018	 str         r3, [sp, #0x18]
  006fc	ea00006b	 b           |$LN8@CreateStre@2|
  00700		 |$LN7@CreateStre@2|

; 334  :     }
; 335  : 
; 336  :     if (lpFormat->nChannels==1)

  00700	e59d3000	 ldr         r3, [sp]
  00704	e2831002	 add         r1, r3, #2
  00708	e5d13001	 ldrb        r3, [r1, #1]
  0070c	e1a03403	 mov         r3, r3, lsl #8
  00710	e1a02803	 mov         r2, r3, lsl #16
  00714	e1a02822	 mov         r2, r2, lsr #16
  00718	e5d13000	 ldrb        r3, [r1]
  0071c	e1833002	 orr         r3, r3, r2
  00720	e3530001	 cmp         r3, #1
  00724	1a000031	 bne         |$LN6@CreateStre@2|

; 337  :     {
; 338  :         if (lpFormat->wBitsPerSample==8)

  00728	e59d3000	 ldr         r3, [sp]
  0072c	e283100e	 add         r1, r3, #0xE
  00730	e5d13001	 ldrb        r3, [r1, #1]
  00734	e1a03403	 mov         r3, r3, lsl #8
  00738	e1a02803	 mov         r2, r3, lsl #16
  0073c	e1a02822	 mov         r2, r2, lsr #16
  00740	e5d13000	 ldrb        r3, [r1]
  00744	e1833002	 orr         r3, r3, r2
  00748	e3530008	 cmp         r3, #8
  0074c	1a000013	 bne         |$LN5@CreateStre@2|

; 339  :         {
; 340  :             return new OutputStreamContextM8;

  00750	e3a0008c	 mov         r0, #0x8C
  00754	eb000000	 bl          |??2@YAPAXI@Z|
  00758	e58d0028	 str         r0, [sp, #0x28]
  0075c	e59d3028	 ldr         r3, [sp, #0x28]
  00760	e58d3008	 str         r3, [sp, #8]
  00764	e59d3008	 ldr         r3, [sp, #8]
  00768	e3530000	 cmp         r3, #0
  0076c	0a000005	 beq         |$LN12@CreateStre@2|
  00770	e59d0008	 ldr         r0, [sp, #8]
  00774	eb000000	 bl          |??0OutputStreamContextM8@@QAA@XZ|
  00778	e58d002c	 str         r0, [sp, #0x2C]
  0077c	e59d302c	 ldr         r3, [sp, #0x2C]
  00780	e58d3030	 str         r3, [sp, #0x30]
  00784	ea000001	 b           |$LN13@CreateStre@2|
  00788		 |$LN12@CreateStre@2|
  00788	e3a03000	 mov         r3, #0
  0078c	e58d3030	 str         r3, [sp, #0x30]
  00790		 |$LN13@CreateStre@2|
  00790	e59d3030	 ldr         r3, [sp, #0x30]
  00794	e58d3018	 str         r3, [sp, #0x18]
  00798	ea000044	 b           |$LN8@CreateStre@2|

; 341  :         }
; 342  :         else

  0079c	ea000012	 b           |$LN4@CreateStre@2|
  007a0		 |$LN5@CreateStre@2|

; 343  :         {
; 344  :             return new OutputStreamContextM16;

  007a0	e3a0008c	 mov         r0, #0x8C
  007a4	eb000000	 bl          |??2@YAPAXI@Z|
  007a8	e58d0034	 str         r0, [sp, #0x34]
  007ac	e59d3034	 ldr         r3, [sp, #0x34]
  007b0	e58d300c	 str         r3, [sp, #0xC]
  007b4	e59d300c	 ldr         r3, [sp, #0xC]
  007b8	e3530000	 cmp         r3, #0
  007bc	0a000005	 beq         |$LN14@CreateStre@2|
  007c0	e59d000c	 ldr         r0, [sp, #0xC]
  007c4	eb000000	 bl          |??0OutputStreamContextM16@@QAA@XZ|
  007c8	e58d0038	 str         r0, [sp, #0x38]
  007cc	e59d3038	 ldr         r3, [sp, #0x38]
  007d0	e58d303c	 str         r3, [sp, #0x3C]
  007d4	ea000001	 b           |$LN15@CreateStre@2|
  007d8		 |$LN14@CreateStre@2|
  007d8	e3a03000	 mov         r3, #0
  007dc	e58d303c	 str         r3, [sp, #0x3C]
  007e0		 |$LN15@CreateStre@2|
  007e0	e59d303c	 ldr         r3, [sp, #0x3C]
  007e4	e58d3018	 str         r3, [sp, #0x18]
  007e8	ea000030	 b           |$LN8@CreateStre@2|
  007ec		 |$LN4@CreateStre@2|

; 345  :         }
; 346  :     }
; 347  :     else

  007ec	ea00002f	 b           |$LN3@CreateStre@2|
  007f0		 |$LN6@CreateStre@2|

; 348  :     {
; 349  :         if (lpFormat->wBitsPerSample==8)

  007f0	e59d3000	 ldr         r3, [sp]
  007f4	e283100e	 add         r1, r3, #0xE
  007f8	e5d13001	 ldrb        r3, [r1, #1]
  007fc	e1a03403	 mov         r3, r3, lsl #8
  00800	e1a02803	 mov         r2, r3, lsl #16
  00804	e1a02822	 mov         r2, r2, lsr #16
  00808	e5d13000	 ldrb        r3, [r1]
  0080c	e1833002	 orr         r3, r3, r2
  00810	e3530008	 cmp         r3, #8
  00814	1a000013	 bne         |$LN2@CreateStre@2|

; 350  :         {
; 351  :             return new OutputStreamContextS8;

  00818	e3a0008c	 mov         r0, #0x8C
  0081c	eb000000	 bl          |??2@YAPAXI@Z|
  00820	e58d0040	 str         r0, [sp, #0x40]
  00824	e59d3040	 ldr         r3, [sp, #0x40]
  00828	e58d3010	 str         r3, [sp, #0x10]
  0082c	e59d3010	 ldr         r3, [sp, #0x10]
  00830	e3530000	 cmp         r3, #0
  00834	0a000005	 beq         |$LN16@CreateStre@2|
  00838	e59d0010	 ldr         r0, [sp, #0x10]
  0083c	eb000000	 bl          |??0OutputStreamContextS8@@QAA@XZ|
  00840	e58d0044	 str         r0, [sp, #0x44]
  00844	e59d3044	 ldr         r3, [sp, #0x44]
  00848	e58d3048	 str         r3, [sp, #0x48]
  0084c	ea000001	 b           |$LN17@CreateStre@2|
  00850		 |$LN16@CreateStre@2|
  00850	e3a03000	 mov         r3, #0
  00854	e58d3048	 str         r3, [sp, #0x48]
  00858		 |$LN17@CreateStre@2|
  00858	e59d3048	 ldr         r3, [sp, #0x48]
  0085c	e58d3018	 str         r3, [sp, #0x18]
  00860	ea000012	 b           |$LN8@CreateStre@2|

; 352  :         }
; 353  :         else

  00864	ea000011	 b           |$LN1@CreateStre@2|
  00868		 |$LN2@CreateStre@2|

; 354  :         {
; 355  :             return new OutputStreamContextS16;

  00868	e3a0008c	 mov         r0, #0x8C
  0086c	eb000000	 bl          |??2@YAPAXI@Z|
  00870	e58d004c	 str         r0, [sp, #0x4C]
  00874	e59d304c	 ldr         r3, [sp, #0x4C]
  00878	e58d3014	 str         r3, [sp, #0x14]
  0087c	e59d3014	 ldr         r3, [sp, #0x14]
  00880	e3530000	 cmp         r3, #0
  00884	0a000005	 beq         |$LN18@CreateStre@2|
  00888	e59d0014	 ldr         r0, [sp, #0x14]
  0088c	eb000000	 bl          |??0OutputStreamContextS16@@QAA@XZ|
  00890	e58d0050	 str         r0, [sp, #0x50]
  00894	e59d3050	 ldr         r3, [sp, #0x50]
  00898	e58d3054	 str         r3, [sp, #0x54]
  0089c	ea000001	 b           |$LN19@CreateStre@2|
  008a0		 |$LN18@CreateStre@2|
  008a0	e3a03000	 mov         r3, #0
  008a4	e58d3054	 str         r3, [sp, #0x54]
  008a8		 |$LN19@CreateStre@2|
  008a8	e59d3054	 ldr         r3, [sp, #0x54]
  008ac	e58d3018	 str         r3, [sp, #0x18]
  008b0		 |$LN1@CreateStre@2|
  008b0		 |$LN3@CreateStre@2|
  008b0		 |$LN8@CreateStre@2|

; 356  :         }
; 357  :     }
; 358  : }

  008b0	e59d0018	 ldr         r0, [sp, #0x18]
  008b4	e28dd058	 add         sp, sp, #0x58
  008b8	e89d6000	 ldmia       sp, {sp, lr}
  008bc	e12fff1e	 bx          lr
  008c0		 |$M37866|

			 ENDP  ; |?CreateStream@OutputDeviceContext@@UAAPAVStreamContext@@PAUwaveopendesc_tag@@@Z|, OutputDeviceContext::CreateStream

	EXPORT	|??_7CMidiStream@@6B@| [ DATA ]		; CMidiStream::`vftable'
	IMPORT	|??_ECMidiStream@@UAAPAXI@Z|, WEAK |??_GCMidiStream@@UAAPAXI@Z| ; CMidiStream::`vector deleting destructor', CMidiStream::`scalar deleting destructor'
	IMPORT	|?Open@CMidiStream@@UAAJPAVDeviceContext@@PAUwaveopendesc_tag@@K@Z| ; CMidiStream::Open
	IMPORT	|?Close@CMidiStream@@UAAKXZ|		; CMidiStream::Close
	IMPORT	|?Reset@CMidiStream@@UAAKXZ|		; CMidiStream::Reset
	IMPORT	|?Render@CMidiStream@@UAAPAEPAE00@Z|	; CMidiStream::Render
	IMPORT	|?GainChange@CMidiStream@@UAAXXZ|	; CMidiStream::GainChange

  00000			 AREA	 |.pdata|, PDATA
|$T37874| DCD	|$LN5@CMidiStrea|
	DCD	0x40001104

  00000			 AREA	 |.rdata|, DATA, READONLY
|??_7CMidiStream@@6B@| DCD |??_ECMidiStream@@UAAPAXI@Z|	; CMidiStream::`vftable'
	DCD	|?Open@CMidiStream@@UAAJPAVDeviceContext@@PAUwaveopendesc_tag@@K@Z|
	DCD	|?Close@CMidiStream@@UAAKXZ|
	DCD	|?GetPos@StreamContext@@UAAKPAUmmtime_tag@@@Z|
	DCD	|?Run@StreamContext@@UAAKXZ|
	DCD	|?Stop@StreamContext@@UAAKXZ|
	DCD	|?Reset@CMidiStream@@UAAKXZ|
	DCD	|?Render@CMidiStream@@UAAPAEPAE00@Z|
	DCD	|?DoCallbackReturnBuffer@StreamContext@@UAAXPAUwavehdr_tag@@@Z|
	DCD	|?DoCallbackStreamOpened@StreamContext@@UAAXXZ|
	DCD	|?DoCallbackStreamClosed@StreamContext@@UAAXXZ|
	DCD	|?QueueBuffer@StreamContext@@UAAKPAUwavehdr_tag@@@Z|
	DCD	|?GainChange@CMidiStream@@UAAXXZ|
; Function compile flags: /Odtp

  00000			 AREA	 |.text|, CODE, ARM

  00000		 |??0CMidiStream@@QAA@XZ| PROC		; CMidiStream::CMidiStream
  00000		 |$LN5@CMidiStrea|
  00000	e1a0c00d	 mov         r12, sp
  00004	e92d0001	 stmdb       sp!, {r0}
  00008	e92d5000	 stmdb       sp!, {r12, lr}
  0000c	e24dd008	 sub         sp, sp, #8
  00010		 |$M37871|
  00010	e59d0010	 ldr         r0, [sp, #0x10]
  00014	eb000000	 bl          |??0StreamContext@@QAA@XZ|
  00018	e58d0004	 str         r0, [sp, #4]
  0001c	e59f201c	 ldr         r2, [pc, #0x1C]
  00020	e59d3010	 ldr         r3, [sp, #0x10]
  00024	e5832000	 str         r2, [r3]
  00028	e59d3010	 ldr         r3, [sp, #0x10]
  0002c	e58d3000	 str         r3, [sp]
  00030	e59d0000	 ldr         r0, [sp]
  00034	e28dd008	 add         sp, sp, #8
  00038	e89d6000	 ldmia       sp, {sp, lr}
  0003c	e12fff1e	 bx          lr
  00040		 |$LN6@CMidiStrea|
  00040		 |$LN7@CMidiStrea|
  00040	00000000	 DCD         |??_7CMidiStream@@6B@|
  00044		 |$M37872|

			 ENDP  ; |??0CMidiStream@@QAA@XZ|, CMidiStream::CMidiStream

	EXPORT	|??_7OutputStreamContextM8@@6B@| [ DATA ] ; OutputStreamContextM8::`vftable'
	EXPORT	|??0OutputStreamContext@@QAA@XZ|	; OutputStreamContext::OutputStreamContext
	IMPORT	|??_EOutputStreamContextM8@@UAAPAXI@Z|, WEAK |??_GOutputStreamContextM8@@UAAPAXI@Z| ; OutputStreamContextM8::`vector deleting destructor', OutputStreamContextM8::`scalar deleting destructor'
	IMPORT	|?Open@OutputStreamContext@@UAAJPAVDeviceContext@@PAUwaveopendesc_tag@@K@Z| ; OutputStreamContext::Open
	IMPORT	|?Reset@OutputStreamContext@@UAAKXZ|	; OutputStreamContext::Reset
	IMPORT	|?SetRate@OutputStreamContext@@UAAKK@Z|	; OutputStreamContext::SetRate
	IMPORT	|?Render2@OutputStreamContextM8@@UAAPAEPAE00@Z| ; OutputStreamContextM8::Render2

  00000			 AREA	 |.pdata|, PDATA
|$T37884| DCD	|$LN5@OutputStre|
	DCD	0x40001104

  00000			 AREA	 |.rdata|, DATA, READONLY
|??_7OutputStreamContextM8@@6B@| DCD |??_EOutputStreamContextM8@@UAAPAXI@Z| ; OutputStreamContextM8::`vftable'
	DCD	|?Open@OutputStreamContext@@UAAJPAVDeviceContext@@PAUwaveopendesc_tag@@K@Z|
	DCD	|?Close@StreamContext@@UAAKXZ|
	DCD	|?GetPos@StreamContext@@UAAKPAUmmtime_tag@@@Z|
	DCD	|?Run@StreamContext@@UAAKXZ|
	DCD	|?Stop@StreamContext@@UAAKXZ|
	DCD	|?Reset@OutputStreamContext@@UAAKXZ|
	DCD	|?Render@WaveStreamContext@@UAAPAEPAE00@Z|
	DCD	|?DoCallbackReturnBuffer@StreamContext@@UAAXPAUwavehdr_tag@@@Z|
	DCD	|?DoCallbackStreamOpened@StreamContext@@UAAXXZ|
	DCD	|?DoCallbackStreamClosed@StreamContext@@UAAXXZ|
	DCD	|?QueueBuffer@StreamContext@@UAAKPAUwavehdr_tag@@@Z|
	DCD	|?GainChange@StreamContext@@UAAXXZ|
	DCD	|?SetRate@OutputStreamContext@@UAAKK@Z|
	DCD	|?Render2@OutputStreamContextM8@@UAAPAEPAE00@Z|
; Function compile flags: /Odtp

  00000			 AREA	 |.text|, CODE, ARM

  00000		 |??0OutputStreamContextM8@@QAA@XZ| PROC ; OutputStreamContextM8::OutputStreamContextM8
  00000		 |$LN5@OutputStre|
  00000	e1a0c00d	 mov         r12, sp
  00004	e92d0001	 stmdb       sp!, {r0}
  00008	e92d5000	 stmdb       sp!, {r12, lr}
  0000c	e24dd008	 sub         sp, sp, #8
  00010		 |$M37881|
  00010	e59d0010	 ldr         r0, [sp, #0x10]
  00014	eb000000	 bl          |??0OutputStreamContext@@QAA@XZ|
  00018	e58d0004	 str         r0, [sp, #4]
  0001c	e59f201c	 ldr         r2, [pc, #0x1C]
  00020	e59d3010	 ldr         r3, [sp, #0x10]
  00024	e5832000	 str         r2, [r3]
  00028	e59d3010	 ldr         r3, [sp, #0x10]
  0002c	e58d3000	 str         r3, [sp]
  00030	e59d0000	 ldr         r0, [sp]
  00034	e28dd008	 add         sp, sp, #8
  00038	e89d6000	 ldmia       sp, {sp, lr}
  0003c	e12fff1e	 bx          lr
  00040		 |$LN6@OutputStre|
  00040		 |$LN7@OutputStre|
  00040	00000000	 DCD         |??_7OutputStreamContextM8@@6B@|
  00044		 |$M37882|

			 ENDP  ; |??0OutputStreamContextM8@@QAA@XZ|, OutputStreamContextM8::OutputStreamContextM8

	EXPORT	|??_7OutputStreamContextM16@@6B@| [ DATA ] ; OutputStreamContextM16::`vftable'
	IMPORT	|??_EOutputStreamContextM16@@UAAPAXI@Z|, WEAK |??_GOutputStreamContextM16@@UAAPAXI@Z| ; OutputStreamContextM16::`vector deleting destructor', OutputStreamContextM16::`scalar deleting destructor'
	IMPORT	|?Render2@OutputStreamContextM16@@UAAPAEPAE00@Z| ; OutputStreamContextM16::Render2

  00000			 AREA	 |.pdata|, PDATA
|$T37894| DCD	|$LN5@OutputStre@2|
	DCD	0x40001104

  00000			 AREA	 |.rdata|, DATA, READONLY
|??_7OutputStreamContextM16@@6B@| DCD |??_EOutputStreamContextM16@@UAAPAXI@Z| ; OutputStreamContextM16::`vftable'
	DCD	|?Open@OutputStreamContext@@UAAJPAVDeviceContext@@PAUwaveopendesc_tag@@K@Z|
	DCD	|?Close@StreamContext@@UAAKXZ|
	DCD	|?GetPos@StreamContext@@UAAKPAUmmtime_tag@@@Z|
	DCD	|?Run@StreamContext@@UAAKXZ|
	DCD	|?Stop@StreamContext@@UAAKXZ|
	DCD	|?Reset@OutputStreamContext@@UAAKXZ|
	DCD	|?Render@WaveStreamContext@@UAAPAEPAE00@Z|
	DCD	|?DoCallbackReturnBuffer@StreamContext@@UAAXPAUwavehdr_tag@@@Z|
	DCD	|?DoCallbackStreamOpened@StreamContext@@UAAXXZ|
	DCD	|?DoCallbackStreamClosed@StreamContext@@UAAXXZ|
	DCD	|?QueueBuffer@StreamContext@@UAAKPAUwavehdr_tag@@@Z|
	DCD	|?GainChange@StreamContext@@UAAXXZ|
	DCD	|?SetRate@OutputStreamContext@@UAAKK@Z|
	DCD	|?Render2@OutputStreamContextM16@@UAAPAEPAE00@Z|
; Function compile flags: /Odtp

  00000			 AREA	 |.text|, CODE, ARM

  00000		 |??0OutputStreamContextM16@@QAA@XZ| PROC ; OutputStreamContextM16::OutputStreamContextM16
  00000		 |$LN5@OutputStre@2|
  00000	e1a0c00d	 mov         r12, sp
  00004	e92d0001	 stmdb       sp!, {r0}
  00008	e92d5000	 stmdb       sp!, {r12, lr}
  0000c	e24dd008	 sub         sp, sp, #8
  00010		 |$M37891|
  00010	e59d0010	 ldr         r0, [sp, #0x10]
  00014	eb000000	 bl          |??0OutputStreamContext@@QAA@XZ|
  00018	e58d0004	 str         r0, [sp, #4]
  0001c	e59f201c	 ldr         r2, [pc, #0x1C]
  00020	e59d3010	 ldr         r3, [sp, #0x10]
  00024	e5832000	 str         r2, [r3]
  00028	e59d3010	 ldr         r3, [sp, #0x10]
  0002c	e58d3000	 str         r3, [sp]
  00030	e59d0000	 ldr         r0, [sp]
  00034	e28dd008	 add         sp, sp, #8
  00038	e89d6000	 ldmia       sp, {sp, lr}
  0003c	e12fff1e	 bx          lr
  00040		 |$LN6@OutputStre@2|
  00040		 |$LN7@OutputStre@2|
  00040	00000000	 DCD         |??_7OutputStreamContextM16@@6B@|
  00044		 |$M37892|

			 ENDP  ; |??0OutputStreamContextM16@@QAA@XZ|, OutputStreamContextM16::OutputStreamContextM16

	EXPORT	|??_7OutputStreamContextS8@@6B@| [ DATA ] ; OutputStreamContextS8::`vftable'
	IMPORT	|??_EOutputStreamContextS8@@UAAPAXI@Z|, WEAK |??_GOutputStreamContextS8@@UAAPAXI@Z| ; OutputStreamContextS8::`vector deleting destructor', OutputStreamContextS8::`scalar deleting destructor'
	IMPORT	|?Render2@OutputStreamContextS8@@UAAPAEPAE00@Z| ; OutputStreamContextS8::Render2

  00000			 AREA	 |.pdata|, PDATA
|$T37904| DCD	|$LN5@OutputStre@3|
	DCD	0x40001104

  00000			 AREA	 |.rdata|, DATA, READONLY
|??_7OutputStreamContextS8@@6B@| DCD |??_EOutputStreamContextS8@@UAAPAXI@Z| ; OutputStreamContextS8::`vftable'
	DCD	|?Open@OutputStreamContext@@UAAJPAVDeviceContext@@PAUwaveopendesc_tag@@K@Z|
	DCD	|?Close@StreamContext@@UAAKXZ|
	DCD	|?GetPos@StreamContext@@UAAKPAUmmtime_tag@@@Z|
	DCD	|?Run@StreamContext@@UAAKXZ|
	DCD	|?Stop@StreamContext@@UAAKXZ|
	DCD	|?Reset@OutputStreamContext@@UAAKXZ|
	DCD	|?Render@WaveStreamContext@@UAAPAEPAE00@Z|
	DCD	|?DoCallbackReturnBuffer@StreamContext@@UAAXPAUwavehdr_tag@@@Z|
	DCD	|?DoCallbackStreamOpened@StreamContext@@UAAXXZ|
	DCD	|?DoCallbackStreamClosed@StreamContext@@UAAXXZ|
	DCD	|?QueueBuffer@StreamContext@@UAAKPAUwavehdr_tag@@@Z|
	DCD	|?GainChange@StreamContext@@UAAXXZ|
	DCD	|?SetRate@OutputStreamContext@@UAAKK@Z|
	DCD	|?Render2@OutputStreamContextS8@@UAAPAEPAE00@Z|
; Function compile flags: /Odtp

  00000			 AREA	 |.text|, CODE, ARM

  00000		 |??0OutputStreamContextS8@@QAA@XZ| PROC ; OutputStreamContextS8::OutputStreamContextS8
  00000		 |$LN5@OutputStre@3|
  00000	e1a0c00d	 mov         r12, sp
  00004	e92d0001	 stmdb       sp!, {r0}
  00008	e92d5000	 stmdb       sp!, {r12, lr}
  0000c	e24dd008	 sub         sp, sp, #8
  00010		 |$M37901|
  00010	e59d0010	 ldr         r0, [sp, #0x10]
  00014	eb000000	 bl          |??0OutputStreamContext@@QAA@XZ|
  00018	e58d0004	 str         r0, [sp, #4]
  0001c	e59f201c	 ldr         r2, [pc, #0x1C]
  00020	e59d3010	 ldr         r3, [sp, #0x10]
  00024	e5832000	 str         r2, [r3]
  00028	e59d3010	 ldr         r3, [sp, #0x10]
  0002c	e58d3000	 str         r3, [sp]
  00030	e59d0000	 ldr         r0, [sp]
  00034	e28dd008	 add         sp, sp, #8
  00038	e89d6000	 ldmia       sp, {sp, lr}
  0003c	e12fff1e	 bx          lr
  00040		 |$LN6@OutputStre@3|
  00040		 |$LN7@OutputStre@3|
  00040	00000000	 DCD         |??_7OutputStreamContextS8@@6B@|
  00044		 |$M37902|

			 ENDP  ; |??0OutputStreamContextS8@@QAA@XZ|, OutputStreamContextS8::OutputStreamContextS8

	EXPORT	|??_7OutputStreamContextS16@@6B@| [ DATA ] ; OutputStreamContextS16::`vftable'
	IMPORT	|??_EOutputStreamContextS16@@UAAPAXI@Z|, WEAK |??_GOutputStreamContextS16@@UAAPAXI@Z| ; OutputStreamContextS16::`vector deleting destructor', OutputStreamContextS16::`scalar deleting destructor'
	IMPORT	|?Render2@OutputStreamContextS16@@UAAPAEPAE00@Z| ; OutputStreamContextS16::Render2

  00000			 AREA	 |.pdata|, PDATA
|$T37914| DCD	|$LN5@OutputStre@4|
	DCD	0x40001104

  00000			 AREA	 |.rdata|, DATA, READONLY
|??_7OutputStreamContextS16@@6B@| DCD |??_EOutputStreamContextS16@@UAAPAXI@Z| ; OutputStreamContextS16::`vftable'
	DCD	|?Open@OutputStreamContext@@UAAJPAVDeviceContext@@PAUwaveopendesc_tag@@K@Z|
	DCD	|?Close@StreamContext@@UAAKXZ|
	DCD	|?GetPos@StreamContext@@UAAKPAUmmtime_tag@@@Z|
	DCD	|?Run@StreamContext@@UAAKXZ|
	DCD	|?Stop@StreamContext@@UAAKXZ|
	DCD	|?Reset@OutputStreamContext@@UAAKXZ|
	DCD	|?Render@WaveStreamContext@@UAAPAEPAE00@Z|
	DCD	|?DoCallbackReturnBuffer@StreamContext@@UAAXPAUwavehdr_tag@@@Z|
	DCD	|?DoCallbackStreamOpened@StreamContext@@UAAXXZ|
	DCD	|?DoCallbackStreamClosed@StreamContext@@UAAXXZ|
	DCD	|?QueueBuffer@StreamContext@@UAAKPAUwavehdr_tag@@@Z|
	DCD	|?GainChange@StreamContext@@UAAXXZ|
	DCD	|?SetRate@OutputStreamContext@@UAAKK@Z|
	DCD	|?Render2@OutputStreamContextS16@@UAAPAEPAE00@Z|
; Function compile flags: /Odtp

  00000			 AREA	 |.text|, CODE, ARM

  00000		 |??0OutputStreamContextS16@@QAA@XZ| PROC ; OutputStreamContextS16::OutputStreamContextS16
  00000		 |$LN5@OutputStre@4|
  00000	e1a0c00d	 mov         r12, sp
  00004	e92d0001	 stmdb       sp!, {r0}
  00008	e92d5000	 stmdb       sp!, {r12, lr}
  0000c	e24dd008	 sub         sp, sp, #8
  00010		 |$M37911|
  00010	e59d0010	 ldr         r0, [sp, #0x10]
  00014	eb000000	 bl          |??0OutputStreamContext@@QAA@XZ|
  00018	e58d0004	 str         r0, [sp, #4]
  0001c	e59f201c	 ldr         r2, [pc, #0x1C]
  00020	e59d3010	 ldr         r3, [sp, #0x10]
  00024	e5832000	 str         r2, [r3]
  00028	e59d3010	 ldr         r3, [sp, #0x10]
  0002c	e58d3000	 str         r3, [sp]
  00030	e59d0000	 ldr         r0, [sp]
  00034	e28dd008	 add         sp, sp, #8
  00038	e89d6000	 ldmia       sp, {sp, lr}
  0003c	e12fff1e	 bx          lr
  00040		 |$LN6@OutputStre@4|
  00040		 |$LN7@OutputStre@4|
  00040	00000000	 DCD         |??_7OutputStreamContextS16@@6B@|
  00044		 |$M37912|

			 ENDP  ; |??0OutputStreamContextS16@@QAA@XZ|, OutputStreamContextS16::OutputStreamContextS16

	EXPORT	|??1CMidiStream@@UAA@XZ|		; CMidiStream::~CMidiStream

  00000			 AREA	 |.pdata|, PDATA
|$T37924| DCD	|$LN6@scalar@4|
	DCD	0x40001104
; Function compile flags: /Odtp

  00000			 AREA	 |.text|, CODE, ARM

  00000		 |??_GCMidiStream@@UAAPAXI@Z| PROC	; CMidiStream::`scalar deleting destructor'
  00000		 |$LN6@scalar@4|
  00000	e1a0c00d	 mov         r12, sp
  00004	e92d0003	 stmdb       sp!, {r0, r1}
  00008	e92d5000	 stmdb       sp!, {r12, lr}
  0000c	e24dd004	 sub         sp, sp, #4
  00010		 |$M37921|
  00010	e59d000c	 ldr         r0, [sp, #0xC]
  00014	eb000000	 bl          |??1CMidiStream@@UAA@XZ|
  00018	e59d3010	 ldr         r3, [sp, #0x10]
  0001c	e3130001	 tst         r3, #1
  00020	0a000001	 beq         |$LN1@scalar@4|
  00024	e59d000c	 ldr         r0, [sp, #0xC]
  00028	eb000000	 bl          |??3@YAXPAX@Z|
  0002c		 |$LN1@scalar@4|
  0002c	e59d300c	 ldr         r3, [sp, #0xC]
  00030	e58d3000	 str         r3, [sp]
  00034	e59d0000	 ldr         r0, [sp]
  00038	e28dd004	 add         sp, sp, #4
  0003c	e89d6000	 ldmia       sp, {sp, lr}
  00040	e12fff1e	 bx          lr
  00044		 |$M37922|

			 ENDP  ; |??_GCMidiStream@@UAAPAXI@Z|, CMidiStream::`scalar deleting destructor'

	EXPORT	|??1OutputStreamContextM8@@UAA@XZ|	; OutputStreamContextM8::~OutputStreamContextM8

  00000			 AREA	 |.pdata|, PDATA
|$T37932| DCD	|$LN6@scalar@5|
	DCD	0x40001104
; Function compile flags: /Odtp

  00000			 AREA	 |.text|, CODE, ARM

  00000		 |??_GOutputStreamContextM8@@UAAPAXI@Z| PROC ; OutputStreamContextM8::`scalar deleting destructor'
  00000		 |$LN6@scalar@5|
  00000	e1a0c00d	 mov         r12, sp
  00004	e92d0003	 stmdb       sp!, {r0, r1}
  00008	e92d5000	 stmdb       sp!, {r12, lr}
  0000c	e24dd004	 sub         sp, sp, #4
  00010		 |$M37929|
  00010	e59d000c	 ldr         r0, [sp, #0xC]
  00014	eb000000	 bl          |??1OutputStreamContextM8@@UAA@XZ|
  00018	e59d3010	 ldr         r3, [sp, #0x10]
  0001c	e3130001	 tst         r3, #1
  00020	0a000001	 beq         |$LN1@scalar@5|
  00024	e59d000c	 ldr         r0, [sp, #0xC]
  00028	eb000000	 bl          |??3@YAXPAX@Z|
  0002c		 |$LN1@scalar@5|
  0002c	e59d300c	 ldr         r3, [sp, #0xC]
  00030	e58d3000	 str         r3, [sp]
  00034	e59d0000	 ldr         r0, [sp]
  00038	e28dd004	 add         sp, sp, #4
  0003c	e89d6000	 ldmia       sp, {sp, lr}
  00040	e12fff1e	 bx          lr
  00044		 |$M37930|

			 ENDP  ; |??_GOutputStreamContextM8@@UAAPAXI@Z|, OutputStreamContextM8::`scalar deleting destructor'

	EXPORT	|??_7OutputStreamContext@@6B@| [ DATA ]	; OutputStreamContext::`vftable'
	IMPORT	|??_EOutputStreamContext@@UAAPAXI@Z|, WEAK |??_GOutputStreamContext@@UAAPAXI@Z| ; OutputStreamContext::`vector deleting destructor', OutputStreamContext::`scalar deleting destructor'

  00000			 AREA	 |.pdata|, PDATA
|$T37940| DCD	|$LN5@OutputStre@5|
	DCD	0x40001104

  00000			 AREA	 |.rdata|, DATA, READONLY
|??_7OutputStreamContext@@6B@| DCD |??_EOutputStreamContext@@UAAPAXI@Z| ; OutputStreamContext::`vftable'
	DCD	|?Open@OutputStreamContext@@UAAJPAVDeviceContext@@PAUwaveopendesc_tag@@K@Z|
	DCD	|?Close@StreamContext@@UAAKXZ|
	DCD	|?GetPos@StreamContext@@UAAKPAUmmtime_tag@@@Z|
	DCD	|?Run@StreamContext@@UAAKXZ|
	DCD	|?Stop@StreamContext@@UAAKXZ|
	DCD	|?Reset@OutputStreamContext@@UAAKXZ|
	DCD	|?Render@WaveStreamContext@@UAAPAEPAE00@Z|
	DCD	|?DoCallbackReturnBuffer@StreamContext@@UAAXPAUwavehdr_tag@@@Z|
	DCD	|?DoCallbackStreamOpened@StreamContext@@UAAXXZ|
	DCD	|?DoCallbackStreamClosed@StreamContext@@UAAXXZ|
	DCD	|?QueueBuffer@StreamContext@@UAAKPAUwavehdr_tag@@@Z|
	DCD	|?GainChange@StreamContext@@UAAXXZ|
	DCD	|?SetRate@OutputStreamContext@@UAAKK@Z|
	DCD	|_purecall|
; Function compile flags: /Odtp

  00000			 AREA	 |.text|, CODE, ARM

  00000		 |??0OutputStreamContext@@QAA@XZ| PROC	; OutputStreamContext::OutputStreamContext
  00000		 |$LN5@OutputStre@5|
  00000	e1a0c00d	 mov         r12, sp
  00004	e92d0001	 stmdb       sp!, {r0}
  00008	e92d5000	 stmdb       sp!, {r12, lr}
  0000c	e24dd008	 sub         sp, sp, #8
  00010		 |$M37937|
  00010	e59d0010	 ldr         r0, [sp, #0x10]
  00014	eb000000	 bl          |??0WaveStreamContext@@QAA@XZ|
  00018	e58d0004	 str         r0, [sp, #4]
  0001c	e59f201c	 ldr         r2, [pc, #0x1C]
  00020	e59d3010	 ldr         r3, [sp, #0x10]
  00024	e5832000	 str         r2, [r3]
  00028	e59d3010	 ldr         r3, [sp, #0x10]
  0002c	e58d3000	 str         r3, [sp]
  00030	e59d0000	 ldr         r0, [sp]
  00034	e28dd008	 add         sp, sp, #8
  00038	e89d6000	 ldmia       sp, {sp, lr}
  0003c	e12fff1e	 bx          lr
  00040		 |$LN6@OutputStre@5|
  00040		 |$LN7@OutputStre@5|
  00040	00000000	 DCD         |??_7OutputStreamContext@@6B@|
  00044		 |$M37938|

			 ENDP  ; |??0OutputStreamContext@@QAA@XZ|, OutputStreamContext::OutputStreamContext

	EXPORT	|??1OutputStreamContextM16@@UAA@XZ|	; OutputStreamContextM16::~OutputStreamContextM16

  00000			 AREA	 |.pdata|, PDATA
|$T37950| DCD	|$LN6@scalar@6|
	DCD	0x40001104
; Function compile flags: /Odtp

  00000			 AREA	 |.text|, CODE, ARM

  00000		 |??_GOutputStreamContextM16@@UAAPAXI@Z| PROC ; OutputStreamContextM16::`scalar deleting destructor'
  00000		 |$LN6@scalar@6|
  00000	e1a0c00d	 mov         r12, sp
  00004	e92d0003	 stmdb       sp!, {r0, r1}
  00008	e92d5000	 stmdb       sp!, {r12, lr}
  0000c	e24dd004	 sub         sp, sp, #4
  00010		 |$M37947|
  00010	e59d000c	 ldr         r0, [sp, #0xC]
  00014	eb000000	 bl          |??1OutputStreamContextM16@@UAA@XZ|
  00018	e59d3010	 ldr         r3, [sp, #0x10]
  0001c	e3130001	 tst         r3, #1
  00020	0a000001	 beq         |$LN1@scalar@6|
  00024	e59d000c	 ldr         r0, [sp, #0xC]
  00028	eb000000	 bl          |??3@YAXPAX@Z|
  0002c		 |$LN1@scalar@6|
  0002c	e59d300c	 ldr         r3, [sp, #0xC]
  00030	e58d3000	 str         r3, [sp]
  00034	e59d0000	 ldr         r0, [sp]
  00038	e28dd004	 add         sp, sp, #4
  0003c	e89d6000	 ldmia       sp, {sp, lr}
  00040	e12fff1e	 bx          lr
  00044		 |$M37948|

			 ENDP  ; |??_GOutputStreamContextM16@@UAAPAXI@Z|, OutputStreamContextM16::`scalar deleting destructor'

	EXPORT	|??1OutputStreamContextS8@@UAA@XZ|	; OutputStreamContextS8::~OutputStreamContextS8

  00000			 AREA	 |.pdata|, PDATA
|$T37958| DCD	|$LN6@scalar@7|
	DCD	0x40001104
; Function compile flags: /Odtp

  00000			 AREA	 |.text|, CODE, ARM

  00000		 |??_GOutputStreamContextS8@@UAAPAXI@Z| PROC ; OutputStreamContextS8::`scalar deleting destructor'
  00000		 |$LN6@scalar@7|
  00000	e1a0c00d	 mov         r12, sp
  00004	e92d0003	 stmdb       sp!, {r0, r1}
  00008	e92d5000	 stmdb       sp!, {r12, lr}
  0000c	e24dd004	 sub         sp, sp, #4
  00010		 |$M37955|
  00010	e59d000c	 ldr         r0, [sp, #0xC]
  00014	eb000000	 bl          |??1OutputStreamContextS8@@UAA@XZ|
  00018	e59d3010	 ldr         r3, [sp, #0x10]
  0001c	e3130001	 tst         r3, #1
  00020	0a000001	 beq         |$LN1@scalar@7|
  00024	e59d000c	 ldr         r0, [sp, #0xC]
  00028	eb000000	 bl          |??3@YAXPAX@Z|
  0002c		 |$LN1@scalar@7|
  0002c	e59d300c	 ldr         r3, [sp, #0xC]
  00030	e58d3000	 str         r3, [sp]
  00034	e59d0000	 ldr         r0, [sp]
  00038	e28dd004	 add         sp, sp, #4
  0003c	e89d6000	 ldmia       sp, {sp, lr}
  00040	e12fff1e	 bx          lr
  00044		 |$M37956|

			 ENDP  ; |??_GOutputStreamContextS8@@UAAPAXI@Z|, OutputStreamContextS8::`scalar deleting destructor'

	EXPORT	|??1OutputStreamContextS16@@UAA@XZ|	; OutputStreamContextS16::~OutputStreamContextS16

  00000			 AREA	 |.pdata|, PDATA
|$T37966| DCD	|$LN6@scalar@8|
	DCD	0x40001104
; Function compile flags: /Odtp

  00000			 AREA	 |.text|, CODE, ARM

  00000		 |??_GOutputStreamContextS16@@UAAPAXI@Z| PROC ; OutputStreamContextS16::`scalar deleting destructor'
  00000		 |$LN6@scalar@8|
  00000	e1a0c00d	 mov         r12, sp
  00004	e92d0003	 stmdb       sp!, {r0, r1}
  00008	e92d5000	 stmdb       sp!, {r12, lr}
  0000c	e24dd004	 sub         sp, sp, #4
  00010		 |$M37963|
  00010	e59d000c	 ldr         r0, [sp, #0xC]
  00014	eb000000	 bl          |??1OutputStreamContextS16@@UAA@XZ|
  00018	e59d3010	 ldr         r3, [sp, #0x10]
  0001c	e3130001	 tst         r3, #1
  00020	0a000001	 beq         |$LN1@scalar@8|
  00024	e59d000c	 ldr         r0, [sp, #0xC]
  00028	eb000000	 bl          |??3@YAXPAX@Z|
  0002c		 |$LN1@scalar@8|
  0002c	e59d300c	 ldr         r3, [sp, #0xC]
  00030	e58d3000	 str         r3, [sp]
  00034	e59d0000	 ldr         r0, [sp]
  00038	e28dd004	 add         sp, sp, #4
  0003c	e89d6000	 ldmia       sp, {sp, lr}
  00040	e12fff1e	 bx          lr
  00044		 |$M37964|

			 ENDP  ; |??_GOutputStreamContextS16@@UAAPAXI@Z|, OutputStreamContextS16::`scalar deleting destructor'


  00000			 AREA	 |.pdata|, PDATA
|$T37973| DCD	|$LN5@CMidiStrea@2|
	DCD	0x40000703
; Function compile flags: /Odtp

  00000			 AREA	 |.text|, CODE, ARM

  00000		 |??1CMidiStream@@UAA@XZ| PROC		; CMidiStream::~CMidiStream
  00000		 |$LN5@CMidiStrea@2|
  00000	e1a0c00d	 mov         r12, sp
  00004	e92d0001	 stmdb       sp!, {r0}
  00008	e92d5000	 stmdb       sp!, {r12, lr}
  0000c		 |$M37970|
  0000c	e59d0008	 ldr         r0, [sp, #8]
  00010	eb000000	 bl          |??1StreamContext@@UAA@XZ|
  00014	e89d6000	 ldmia       sp, {sp, lr}
  00018	e12fff1e	 bx          lr
  0001c		 |$M37971|

			 ENDP  ; |??1CMidiStream@@UAA@XZ|, CMidiStream::~CMidiStream

	EXPORT	|??1OutputStreamContext@@UAA@XZ|	; OutputStreamContext::~OutputStreamContext

  00000			 AREA	 |.pdata|, PDATA
|$T37980| DCD	|$LN5@OutputStre@6|
	DCD	0x40000703
; Function compile flags: /Odtp

  00000			 AREA	 |.text|, CODE, ARM

  00000		 |??1OutputStreamContextM8@@UAA@XZ| PROC ; OutputStreamContextM8::~OutputStreamContextM8
  00000		 |$LN5@OutputStre@6|
  00000	e1a0c00d	 mov         r12, sp
  00004	e92d0001	 stmdb       sp!, {r0}
  00008	e92d5000	 stmdb       sp!, {r12, lr}
  0000c		 |$M37977|
  0000c	e59d0008	 ldr         r0, [sp, #8]
  00010	eb000000	 bl          |??1OutputStreamContext@@UAA@XZ|
  00014	e89d6000	 ldmia       sp, {sp, lr}
  00018	e12fff1e	 bx          lr
  0001c		 |$M37978|

			 ENDP  ; |??1OutputStreamContextM8@@UAA@XZ|, OutputStreamContextM8::~OutputStreamContextM8


  00000			 AREA	 |.pdata|, PDATA
|$T37987| DCD	|$LN5@OutputStre@7|
	DCD	0x40000703
; Function compile flags: /Odtp

  00000			 AREA	 |.text|, CODE, ARM

  00000		 |??1OutputStreamContext@@UAA@XZ| PROC	; OutputStreamContext::~OutputStreamContext
  00000		 |$LN5@OutputStre@7|
  00000	e1a0c00d	 mov         r12, sp
  00004	e92d0001	 stmdb       sp!, {r0}
  00008	e92d5000	 stmdb       sp!, {r12, lr}
  0000c		 |$M37984|
  0000c	e59d0008	 ldr         r0, [sp, #8]
  00010	eb000000	 bl          |??1WaveStreamContext@@UAA@XZ|
  00014	e89d6000	 ldmia       sp, {sp, lr}
  00018	e12fff1e	 bx          lr
  0001c		 |$M37985|

			 ENDP  ; |??1OutputStreamContext@@UAA@XZ|, OutputStreamContext::~OutputStreamContext


  00000			 AREA	 |.pdata|, PDATA
|$T37995| DCD	|$LN6@scalar@9|
	DCD	0x40001104
; Function compile flags: /Odtp

  00000			 AREA	 |.text|, CODE, ARM

  00000		 |??_GOutputStreamContext@@UAAPAXI@Z| PROC ; OutputStreamContext::`scalar deleting destructor'
  00000		 |$LN6@scalar@9|
  00000	e1a0c00d	 mov         r12, sp
  00004	e92d0003	 stmdb       sp!, {r0, r1}
  00008	e92d5000	 stmdb       sp!, {r12, lr}
  0000c	e24dd004	 sub         sp, sp, #4
  00010		 |$M37992|
  00010	e59d000c	 ldr         r0, [sp, #0xC]
  00014	eb000000	 bl          |??1OutputStreamContext@@UAA@XZ|
  00018	e59d3010	 ldr         r3, [sp, #0x10]
  0001c	e3130001	 tst         r3, #1
  00020	0a000001	 beq         |$LN1@scalar@9|
  00024	e59d000c	 ldr         r0, [sp, #0xC]
  00028	eb000000	 bl          |??3@YAXPAX@Z|
  0002c		 |$LN1@scalar@9|
  0002c	e59d300c	 ldr         r3, [sp, #0xC]
  00030	e58d3000	 str         r3, [sp]
  00034	e59d0000	 ldr         r0, [sp]
  00038	e28dd004	 add         sp, sp, #4
  0003c	e89d6000	 ldmia       sp, {sp, lr}
  00040	e12fff1e	 bx          lr
  00044		 |$M37993|

			 ENDP  ; |??_GOutputStreamContext@@UAAPAXI@Z|, OutputStreamContext::`scalar deleting destructor'


  00000			 AREA	 |.pdata|, PDATA
|$T38002| DCD	|$LN5@OutputStre@8|
	DCD	0x40000703
; Function compile flags: /Odtp

  00000			 AREA	 |.text|, CODE, ARM

  00000		 |??1OutputStreamContextM16@@UAA@XZ| PROC ; OutputStreamContextM16::~OutputStreamContextM16
  00000		 |$LN5@OutputStre@8|
  00000	e1a0c00d	 mov         r12, sp
  00004	e92d0001	 stmdb       sp!, {r0}
  00008	e92d5000	 stmdb       sp!, {r12, lr}
  0000c		 |$M37999|
  0000c	e59d0008	 ldr         r0, [sp, #8]
  00010	eb000000	 bl          |??1OutputStreamContext@@UAA@XZ|
  00014	e89d6000	 ldmia       sp, {sp, lr}
  00018	e12fff1e	 bx          lr
  0001c		 |$M38000|

			 ENDP  ; |??1OutputStreamContextM16@@UAA@XZ|, OutputStreamContextM16::~OutputStreamContextM16


  00000			 AREA	 |.pdata|, PDATA
|$T38009| DCD	|$LN5@OutputStre@9|
	DCD	0x40000703
; Function compile flags: /Odtp

  00000			 AREA	 |.text|, CODE, ARM

  00000		 |??1OutputStreamContextS8@@UAA@XZ| PROC ; OutputStreamContextS8::~OutputStreamContextS8
  00000		 |$LN5@OutputStre@9|
  00000	e1a0c00d	 mov         r12, sp
  00004	e92d0001	 stmdb       sp!, {r0}
  00008	e92d5000	 stmdb       sp!, {r12, lr}
  0000c		 |$M38006|
  0000c	e59d0008	 ldr         r0, [sp, #8]
  00010	eb000000	 bl          |??1OutputStreamContext@@UAA@XZ|
  00014	e89d6000	 ldmia       sp, {sp, lr}
  00018	e12fff1e	 bx          lr
  0001c		 |$M38007|

			 ENDP  ; |??1OutputStreamContextS8@@UAA@XZ|, OutputStreamContextS8::~OutputStreamContextS8


  00000			 AREA	 |.pdata|, PDATA
|$T38016| DCD	|$LN5@OutputStre@10|
	DCD	0x40000703
; Function compile flags: /Odtp

  00000			 AREA	 |.text|, CODE, ARM

  00000		 |??1OutputStreamContextS16@@UAA@XZ| PROC ; OutputStreamContextS16::~OutputStreamContextS16
  00000		 |$LN5@OutputStre@10|
  00000	e1a0c00d	 mov         r12, sp
  00004	e92d0001	 stmdb       sp!, {r0}
  00008	e92d5000	 stmdb       sp!, {r12, lr}
  0000c		 |$M38013|
  0000c	e59d0008	 ldr         r0, [sp, #8]
  00010	eb000000	 bl          |??1OutputStreamContext@@UAA@XZ|
  00014	e89d6000	 ldmia       sp, {sp, lr}
  00018	e12fff1e	 bx          lr
  0001c		 |$M38014|

			 ENDP  ; |??1OutputStreamContextS16@@UAA@XZ|, OutputStreamContextS16::~OutputStreamContextS16

	EXPORT	|?OpenStream@DeviceContext@@QAAKPAUwaveopendesc_tag@@KPAPAVStreamContext@@@Z| ; DeviceContext::OpenStream

  00070			 AREA	 |.pdata|, PDATA
|$T38028| DCD	|$LN12@OpenStream|
	DCD	0x40007504
; Function compile flags: /Odtp

  008c0			 AREA	 |.text|, CODE, ARM

  008c0		 |?OpenStream@DeviceContext@@QAAKPAUwaveopendesc_tag@@KPAPAVStreamContext@@@Z| PROC ; DeviceContext::OpenStream

; 370  : {

  008c0		 |$LN12@OpenStream|
  008c0	e1a0c00d	 mov         r12, sp
  008c4	e92d000f	 stmdb       sp!, {r0 - r3}
  008c8	e92d5010	 stmdb       sp!, {r4, r12, lr}
  008cc	e24dd028	 sub         sp, sp, #0x28
  008d0		 |$M38025|

; 371  :     HRESULT Result;
; 372  :     StreamContext *pStreamContext;
; 373  : 
; 374  :     if (lpWOD->lpFormat==NULL)

  008d0	e59d3038	 ldr         r3, [sp, #0x38]
  008d4	e2831004	 add         r1, r3, #4
  008d8	e5d13003	 ldrb        r3, [r1, #3]
  008dc	e1a02403	 mov         r2, r3, lsl #8
  008e0	e5d13002	 ldrb        r3, [r1, #2]
  008e4	e1833002	 orr         r3, r3, r2
  008e8	e1a02403	 mov         r2, r3, lsl #8
  008ec	e5d13001	 ldrb        r3, [r1, #1]
  008f0	e1833002	 orr         r3, r3, r2
  008f4	e1a02403	 mov         r2, r3, lsl #8
  008f8	e5d13000	 ldrb        r3, [r1]
  008fc	e1833002	 orr         r3, r3, r2
  00900	e3530000	 cmp         r3, #0
  00904	1a000002	 bne         |$LN5@OpenStream|

; 375  :     {
; 376  :         return WAVERR_BADFORMAT;

  00908	e3a03020	 mov         r3, #0x20
  0090c	e58d3010	 str         r3, [sp, #0x10]
  00910	ea00005b	 b           |$LN6@OpenStream|
  00914		 |$LN5@OpenStream|

; 377  :     }
; 378  : 
; 379  :      if (!IsSupportedFormat(lpWOD->lpFormat))

  00914	e59d3038	 ldr         r3, [sp, #0x38]
  00918	e2831004	 add         r1, r3, #4
  0091c	e1d130d3	 ldrsb       r3, [r1, #3]
  00920	e1a02403	 mov         r2, r3, lsl #8
  00924	e5d13002	 ldrb        r3, [r1, #2]
  00928	e1833002	 orr         r3, r3, r2
  0092c	e1a02403	 mov         r2, r3, lsl #8
  00930	e5d13001	 ldrb        r3, [r1, #1]
  00934	e1833002	 orr         r3, r3, r2
  00938	e1a02403	 mov         r2, r3, lsl #8
  0093c	e5d13000	 ldrb        r3, [r1]
  00940	e1831002	 orr         r1, r3, r2
  00944	e59d3034	 ldr         r3, [sp, #0x34]
  00948	e5933000	 ldr         r3, [r3]
  0094c	e59d0034	 ldr         r0, [sp, #0x34]
  00950	e5933000	 ldr         r3, [r3]
  00954	e1a0e00f	 mov         lr, pc
  00958	e12fff13	 bx          r3
  0095c	e58d0014	 str         r0, [sp, #0x14]
  00960	e59d3014	 ldr         r3, [sp, #0x14]
  00964	e3530000	 cmp         r3, #0
  00968	1a000002	 bne         |$LN4@OpenStream|

; 380  :     {
; 381  :         return WAVERR_BADFORMAT;

  0096c	e3a03020	 mov         r3, #0x20
  00970	e58d3010	 str         r3, [sp, #0x10]
  00974	ea000042	 b           |$LN6@OpenStream|
  00978		 |$LN4@OpenStream|

; 382  :     }
; 383  : 
; 384  :     // Query format support only - don't actually open device?
; 385  :     if (dwFlags & WAVE_FORMAT_QUERY)

  00978	e59d303c	 ldr         r3, [sp, #0x3C]
  0097c	e3130001	 tst         r3, #1
  00980	0a000002	 beq         |$LN3@OpenStream|

; 386  :     {
; 387  :         return MMSYSERR_NOERROR;

  00984	e3a03000	 mov         r3, #0
  00988	e58d3010	 str         r3, [sp, #0x10]
  0098c	ea00003c	 b           |$LN6@OpenStream|
  00990		 |$LN3@OpenStream|

; 388  :     }
; 389  : 
; 390  :     pStreamContext = CreateStream(lpWOD);

  00990	e59d1038	 ldr         r1, [sp, #0x38]
  00994	e59d3034	 ldr         r3, [sp, #0x34]
  00998	e5933000	 ldr         r3, [r3]
  0099c	e2833010	 add         r3, r3, #0x10
  009a0	e59d0034	 ldr         r0, [sp, #0x34]
  009a4	e5933000	 ldr         r3, [r3]
  009a8	e1a0e00f	 mov         lr, pc
  009ac	e12fff13	 bx          r3
  009b0	e58d0018	 str         r0, [sp, #0x18]
  009b4	e59d3018	 ldr         r3, [sp, #0x18]
  009b8	e58d3004	 str         r3, [sp, #4]

; 391  :     if (!pStreamContext)

  009bc	e59d3004	 ldr         r3, [sp, #4]
  009c0	e3530000	 cmp         r3, #0
  009c4	1a000002	 bne         |$LN2@OpenStream|

; 392  :     {
; 393  :         return MMSYSERR_NOMEM;

  009c8	e3a03007	 mov         r3, #7
  009cc	e58d3010	 str         r3, [sp, #0x10]
  009d0	ea00002b	 b           |$LN6@OpenStream|
  009d4		 |$LN2@OpenStream|

; 394  :     }
; 395  : 
; 396  :     Result = pStreamContext->Open(this,lpWOD,dwFlags);

  009d4	e59d303c	 ldr         r3, [sp, #0x3C]
  009d8	e59d2038	 ldr         r2, [sp, #0x38]
  009dc	e59d1034	 ldr         r1, [sp, #0x34]
  009e0	e59d0004	 ldr         r0, [sp, #4]
  009e4	e5900000	 ldr         r0, [r0]
  009e8	e280e004	 add         lr, r0, #4
  009ec	e59d0004	 ldr         r0, [sp, #4]
  009f0	e59e4000	 ldr         r4, [lr]
  009f4	e1a0e00f	 mov         lr, pc
  009f8	e12fff14	 bx          r4
  009fc	e58d001c	 str         r0, [sp, #0x1C]
  00a00	e59d301c	 ldr         r3, [sp, #0x1C]
  00a04	e58d3000	 str         r3, [sp]

; 397  :     if (FAILED(Result))

  00a08	e59d3000	 ldr         r3, [sp]
  00a0c	e3530000	 cmp         r3, #0
  00a10	aa000016	 bge         |$LN1@OpenStream|

; 398  :     {
; 399  :         delete pStreamContext;

  00a14	e59d3004	 ldr         r3, [sp, #4]
  00a18	e58d300c	 str         r3, [sp, #0xC]
  00a1c	e59d300c	 ldr         r3, [sp, #0xC]
  00a20	e58d3008	 str         r3, [sp, #8]
  00a24	e59d3008	 ldr         r3, [sp, #8]
  00a28	e3530000	 cmp         r3, #0
  00a2c	0a00000a	 beq         |$LN8@OpenStream|
  00a30	e3a01001	 mov         r1, #1
  00a34	e59d3008	 ldr         r3, [sp, #8]
  00a38	e5933000	 ldr         r3, [r3]
  00a3c	e59d0008	 ldr         r0, [sp, #8]
  00a40	e5933000	 ldr         r3, [r3]
  00a44	e1a0e00f	 mov         lr, pc
  00a48	e12fff13	 bx          r3
  00a4c	e58d0020	 str         r0, [sp, #0x20]
  00a50	e59d3020	 ldr         r3, [sp, #0x20]
  00a54	e58d3024	 str         r3, [sp, #0x24]
  00a58	ea000001	 b           |$LN9@OpenStream|
  00a5c		 |$LN8@OpenStream|
  00a5c	e3a03000	 mov         r3, #0
  00a60	e58d3024	 str         r3, [sp, #0x24]
  00a64		 |$LN9@OpenStream|

; 400  :         return MMSYSERR_ERROR;

  00a64	e3a03001	 mov         r3, #1
  00a68	e58d3010	 str         r3, [sp, #0x10]
  00a6c	ea000004	 b           |$LN6@OpenStream|
  00a70		 |$LN1@OpenStream|

; 401  :     }
; 402  : 
; 403  :     *ppStreamContext=pStreamContext;

  00a70	e59d2004	 ldr         r2, [sp, #4]
  00a74	e59d3040	 ldr         r3, [sp, #0x40]
  00a78	e5832000	 str         r2, [r3]

; 404  :     return MMSYSERR_NOERROR;

  00a7c	e3a03000	 mov         r3, #0
  00a80	e58d3010	 str         r3, [sp, #0x10]
  00a84		 |$LN6@OpenStream|

; 405  : }

  00a84	e59d0010	 ldr         r0, [sp, #0x10]
  00a88	e28dd028	 add         sp, sp, #0x28
  00a8c	e89d6010	 ldmia       sp, {r4, sp, lr}
  00a90	e12fff1e	 bx          lr
  00a94		 |$M38026|

			 ENDP  ; |?OpenStream@DeviceContext@@QAAKPAUwaveopendesc_tag@@KPAPAVStreamContext@@@Z|, DeviceContext::OpenStream

	END
