; Listing generated by Microsoft (R) Optimizing Compiler Version 14.01.60511.01 

	TTL	C:\WINCE600\PLATFORM\COMMON\SRC\SOC\COMMON_TI_V1\COMMON_TI\SERIAL\COM_MDD2\mdd.c
	CODE32

  00000			 AREA	 |.drectve|, DRECTVE
	DCB	"-defaultlib:LIBCMT "
	DCB	"-defaultlib:OLDNAMES "

	EXPORT	|dpCurSettings| [ DATA ]

  00000			 AREA	 |.bss|, NOINIT
|GlobalSerialHeadNumber| % 0x4

  00000			 AREA	 |.data|, DATA
|dpCurSettings| DCB "S", 0x0, "e", 0x0, "r", 0x0, "i", 0x0, "a", 0x0, "l", 0x0
	DCB	0x0, 0x0
	%	50
	DCB	"I", 0x0, "n", 0x0, "i", 0x0, "t", 0x0, 0x0, 0x0
	%	54
	DCB	"O", 0x0, "p", 0x0, "e", 0x0, "n", 0x0, 0x0, 0x0
	%	54
	DCB	"R", 0x0, "e", 0x0, "a", 0x0, "d", 0x0, 0x0, 0x0
	%	54
	DCB	"W", 0x0, "r", 0x0, "i", 0x0, "t", 0x0, "e", 0x0, 0x0, 0x0
	%	52
	DCB	"C", 0x0, "l", 0x0, "o", 0x0, "s", 0x0, "e", 0x0, 0x0, 0x0
	%	52
	DCB	"I", 0x0, "o", 0x0, "c", 0x0, "t", 0x0, "l", 0x0, 0x0, 0x0
	%	52
	DCB	"T", 0x0, "h", 0x0, "r", 0x0, "e", 0x0, "a", 0x0, "d", 0x0
	DCB	0x0, 0x0
	%	50
	DCB	"E", 0x0, "v", 0x0, "e", 0x0, "n", 0x0, "t", 0x0, "s", 0x0
	DCB	0x0, 0x0
	%	50
	DCB	"C", 0x0, "r", 0x0, "i", 0x0, "t", 0x0, "S", 0x0, "e", 0x0
	DCB	"c", 0x0, 0x0, 0x0
	%	48
	DCB	"F", 0x0, "l", 0x0, "o", 0x0, "w", 0x0, "C", 0x0, "t", 0x0
	DCB	"r", 0x0, "l", 0x0, 0x0, 0x0
	%	46
	DCB	"I", 0x0, "n", 0x0, "f", 0x0, "r", 0x0, "a", 0x0, "r", 0x0
	DCB	"e", 0x0, "d", 0x0, 0x0, 0x0
	%	46
	DCB	"U", 0x0, "s", 0x0, "e", 0x0, "r", 0x0, " ", 0x0, "R", 0x0
	DCB	"e", 0x0, "a", 0x0, "d", 0x0, 0x0, 0x0
	%	44
	DCB	"A", 0x0, "l", 0x0, "l", 0x0, "o", 0x0, "c", 0x0, 0x0, 0x0
	%	52
	DCB	"F", 0x0, "u", 0x0, "n", 0x0, "c", 0x0, "t", 0x0, "i", 0x0
	DCB	"o", 0x0, "n", 0x0, 0x0, 0x0
	%	46
	DCB	"W", 0x0, "a", 0x0, "r", 0x0, "n", 0x0, "i", 0x0, "n", 0x0
	DCB	"g", 0x0, 0x0, 0x0
	%	48
	DCB	"E", 0x0, "r", 0x0, "r", 0x0, "o", 0x0, "r", 0x0, 0x0, 0x0
	%	52
	DCD	0x0
	EXPORT	|??_C@_1DA@LGJDGOIM@?$AAp?$AAr?$AAo?$AAc?$AAe?$AAs?$AAs?$AA?5?$AAd?$AAe?$AAt?$AAa?$AAc?$AAh?$AA?5?$AAc?$AAa?$AAl?$AAl?$AAe?$AAd?$AA?$AN?$AA?6?$AA?$AA@| [ DATA ] ; `string'
	EXPORT	|??_C@_1DK@BHNGFHBN@?$AAs?$AAe?$AAr?$AAi?$AAa?$AAl?$AA?5?$AAp?$AAo?$AAr?$AAt?$AA?5?$AAp?$AAr?$AAo?$AAc?$AAe?$AAs?$AAs?$AA?5?$AAa?$AAt?$AAt?$AAa?$AAc?$AAh?$AA?$AN?$AA?6?$AA?$AA@| [ DATA ] ; `string'
	EXPORT	|DllEntry|
	IMPORT	|DisableThreadLibraryCalls|
	IMPORT	|NKDbgPrintfW|
	IMPORT	|RegisterDbgZones|

  00000			 AREA	 |.pdata|, PDATA
|$T41363| DCD	|$LN11@DllEntry|
	DCD	0x40002e04
; File c:\wince600\platform\common\src\soc\common_ti_v1\common_ti\serial\com_mdd2\mdd.c

  00000			 AREA	 |.rdata|, DATA, READONLY
|??_C@_1DA@LGJDGOIM@?$AAp?$AAr?$AAo?$AAc?$AAe?$AAs?$AAs?$AA?5?$AAd?$AAe?$AAt?$AAa?$AAc?$AAh?$AA?5?$AAc?$AAa?$AAl?$AAl?$AAe?$AAd?$AA?$AN?$AA?6?$AA?$AA@| DCB "p"
	DCB	0x0, "r", 0x0, "o", 0x0, "c", 0x0, "e", 0x0, "s", 0x0, "s"
	DCB	0x0, " ", 0x0, "d", 0x0, "e", 0x0, "t", 0x0, "a", 0x0, "c"
	DCB	0x0, "h", 0x0, " ", 0x0, "c", 0x0, "a", 0x0, "l", 0x0, "l"
	DCB	0x0, "e", 0x0, "d", 0x0, 0xd, 0x0, 0xa, 0x0, 0x0, 0x0 ; `string'

  00000			 AREA	 |.rdata|, DATA, READONLY
|??_C@_1DK@BHNGFHBN@?$AAs?$AAe?$AAr?$AAi?$AAa?$AAl?$AA?5?$AAp?$AAo?$AAr?$AAt?$AA?5?$AAp?$AAr?$AAo?$AAc?$AAe?$AAs?$AAs?$AA?5?$AAa?$AAt?$AAt?$AAa?$AAc?$AAh?$AA?$AN?$AA?6?$AA?$AA@| DCB "s"
	DCB	0x0, "e", 0x0, "r", 0x0, "i", 0x0, "a", 0x0, "l", 0x0, " "
	DCB	0x0, "p", 0x0, "o", 0x0, "r", 0x0, "t", 0x0, " ", 0x0, "p"
	DCB	0x0, "r", 0x0, "o", 0x0, "c", 0x0, "e", 0x0, "s", 0x0, "s"
	DCB	0x0, " ", 0x0, "a", 0x0, "t", 0x0, "t", 0x0, "a", 0x0, "c"
	DCB	0x0, "h", 0x0, 0xd, 0x0, 0xa, 0x0, 0x0, 0x0 ; `string'
; Function compile flags: /Odtp

  00000			 AREA	 |.text|, CODE, ARM

  00000		 |DllEntry| PROC

; 141  : {

  00000		 |$LN11@DllEntry|
  00000	e1a0c00d	 mov         r12, sp
  00004	e92d0007	 stmdb       sp!, {r0 - r2}
  00008	e92d5000	 stmdb       sp!, {r12, lr}
  0000c	e24dd00c	 sub         sp, sp, #0xC
  00010		 |$M41360|

; 142  :     if ( dwReason == DLL_PROCESS_ATTACH ) {

  00010	e59d3018	 ldr         r3, [sp, #0x18]
  00014	e3530001	 cmp         r3, #1
  00018	1a00000f	 bne         |$LN2@DllEntry|

; 143  :         DEBUGREGISTER(hinstDll);

  0001c	e59f108c	 ldr         r1, [pc, #0x8C]
  00020	e59d0014	 ldr         r0, [sp, #0x14]
  00024	eb000000	 bl          RegisterDbgZones

; 144  :         DEBUGMSG (ZONE_INIT, (TEXT("serial port process attach\r\n")));

  00028	e59f3080	 ldr         r3, [pc, #0x80]
  0002c	e5933440	 ldr         r3, [r3, #0x440]
  00030	e3130001	 tst         r3, #1
  00034	0a000004	 beq         |$LN5@DllEntry|
  00038	e59f0074	 ldr         r0, [pc, #0x74]
  0003c	eb000000	 bl          NKDbgPrintfW
  00040	e3a03001	 mov         r3, #1
  00044	e58d3004	 str         r3, [sp, #4]
  00048	ea000001	 b           |$LN6@DllEntry|
  0004c		 |$LN5@DllEntry|
  0004c	e3a03000	 mov         r3, #0
  00050	e58d3004	 str         r3, [sp, #4]
  00054		 |$LN6@DllEntry|

; 145  :         DisableThreadLibraryCalls((HMODULE) hinstDll);

  00054	e59d0014	 ldr         r0, [sp, #0x14]
  00058	eb000000	 bl          DisableThreadLibraryCalls
  0005c		 |$LN2@DllEntry|

; 146  :     }
; 147  : 
; 148  :     if ( dwReason == DLL_PROCESS_DETACH ) {

  0005c	e59d3018	 ldr         r3, [sp, #0x18]
  00060	e3530000	 cmp         r3, #0
  00064	1a00000a	 bne         |$LN1@DllEntry|

; 149  :         DEBUGMSG (ZONE_INIT, (TEXT("process detach called\r\n")));

  00068	e59f3040	 ldr         r3, [pc, #0x40]
  0006c	e5933440	 ldr         r3, [r3, #0x440]
  00070	e3130001	 tst         r3, #1
  00074	0a000004	 beq         |$LN7@DllEntry|
  00078	e59f002c	 ldr         r0, [pc, #0x2C]
  0007c	eb000000	 bl          NKDbgPrintfW
  00080	e3a03001	 mov         r3, #1
  00084	e58d3008	 str         r3, [sp, #8]
  00088	ea000001	 b           |$LN8@DllEntry|
  0008c		 |$LN7@DllEntry|
  0008c	e3a03000	 mov         r3, #0
  00090	e58d3008	 str         r3, [sp, #8]
  00094		 |$LN8@DllEntry|
  00094		 |$LN1@DllEntry|

; 150  :     }
; 151  : 
; 152  :     return(TRUE);

  00094	e3a03001	 mov         r3, #1
  00098	e58d3000	 str         r3, [sp]

; 153  : }

  0009c	e59d0000	 ldr         r0, [sp]
  000a0	e28dd00c	 add         sp, sp, #0xC
  000a4	e89d6000	 ldmia       sp, {sp, lr}
  000a8	e12fff1e	 bx          lr
  000ac		 |$LN12@DllEntry|
  000ac		 |$LN13@DllEntry|
  000ac	00000000	 DCD         |??_C@_1DA@LGJDGOIM@?$AAp?$AAr?$AAo?$AAc?$AAe?$AAs?$AAs?$AA?5?$AAd?$AAe?$AAt?$AAa?$AAc?$AAh?$AA?5?$AAc?$AAa?$AAl?$AAl?$AAe?$AAd?$AA?$AN?$AA?6?$AA?$AA@|
  000b0		 |$LN14@DllEntry|
  000b0	00000000	 DCD         |dpCurSettings|
  000b4		 |$LN15@DllEntry|
  000b4	00000000	 DCD         |??_C@_1DK@BHNGFHBN@?$AAs?$AAe?$AAr?$AAi?$AAa?$AAl?$AA?5?$AAp?$AAo?$AAr?$AAt?$AA?5?$AAp?$AAr?$AAo?$AAc?$AAe?$AAs?$AAs?$AA?5?$AAa?$AAt?$AAt?$AAa?$AAc?$AAh?$AA?$AN?$AA?6?$AA?$AA@|
  000b8		 |$M41361|

			 ENDP  ; |DllEntry|

	EXPORT	|??_C@_1EG@PNOECNFM@?$AAD?$AAo?$AAP?$AAu?$AAt?$AAB?$AAy?$AAt?$AAe?$AAs?$AA?5?$AAr?$AAe?$AAl?$AAe?$AAa?$AAs?$AAe?$AAd?$AA?5?$AAC?$AAr?$AAi?$AAt?$AAS?$AAe?$AAc?$AA?3?$AA?5?$AA?$CF?$AAx?$AA?4@| [ DATA ] ; `string'
	EXPORT	|SetEvent|
	EXPORT	|??_C@_1EO@IFEAHMMF@?$AAT?$AAr?$AAa?$AAn?$AAs?$AAm?$AAi?$AAs?$AAs?$AAi?$AAo?$AAn?$AA?5?$AAc?$AAo?$AAm?$AAp?$AAl?$AAe?$AAt?$AAe?$AA?0?$AA?5?$AA?$CF?$AAd?$AA?5?$AAb?$AAy?$AAt?$AAe?$AAs?$AA?5@| [ DATA ] ; `string'
	EXPORT	|??_C@_1DI@GGPGJBLB@?$AA?$CF?$AAd?$AA?5?$AAb?$AAy?$AAt?$AAe?$AAs?$AA?5?$AAa?$AAc?$AAt?$AAu?$AAa?$AAl?$AAl?$AAy?$AA?5?$AAc?$AAo?$AAp?$AAi?$AAe?$AAd?$AA?4?$AA?$AN?$AA?6?$AA?$AA@| [ DATA ] ; `string'
	EXPORT	|??_C@_1DC@FONCMGND@?$AAA?$AAb?$AAo?$AAu?$AAt?$AA?5?$AAt?$AAo?$AA?5?$AAc?$AAo?$AAp?$AAy?$AA?5?$AA?$CF?$AAd?$AA?5?$AAb?$AAy?$AAt?$AAe?$AAs?$AA?$AN?$AA?6?$AA?$AA@| [ DATA ] ; `string'
	EXPORT	|??_C@_1GC@MPMHAODJ@?$AAT?$AAx?$AAR?$AAe?$AAa?$AAd?$AA?5?$AA?$DN?$AA?5?$AA?$CF?$AAd?$AA?0?$AA?5?$AAT?$AAx?$AAL?$AAe?$AAn?$AAg?$AAt?$AAh?$AA?5?$AA?$DN?$AA?5?$AA?$CF?$AAd?$AA?0?$AA?5?$AAT?$AAx?$AAB?$AAy@| [ DATA ] ; `string'
	EXPORT	|??_C@_1DC@KIHGPOMJ@?$AAX?$AAO?$AAF?$AAF?$AA?8?$AAe?$AAd?$AA?0?$AA?5?$AAs?$AAe?$AAn?$AAd?$AA?5?$AAn?$AAo?$AAt?$AAh?$AAi?$AAn?$AAg?$AA?4?$AA?$AN?$AA?6?$AA?$AA@| [ DATA ] ; `string'
	EXPORT	|??_C@_1BG@OPJKPKO@?$AAR?$AAT?$AAS?$AA?5?$AAs?$AAe?$AAt?$AA?4?$AA?$AN?$AA?6?$AA?$AA@| [ DATA ] ; `string'
	EXPORT	|??_C@_1FC@IBKKBMKO@?$AAS?$AAe?$AAr?$AAi?$AAa?$AAl?$AAE?$AAv?$AAe?$AAn?$AAt?$AAH?$AAa?$AAn?$AAd?$AAl?$AAe?$AAr?$AA?3?$AA?5?$AA?$CF?$AAd?$AA?5?$AAs?$AAe?$AAn?$AAt?$AA?5?$AAu?$AAp?$AA?9?$AAt@| [ DATA ] ; `string'
	EXPORT	|??_C@_1EI@PHLIHGKN@?$AAD?$AAe?$AAv?$AAi?$AAc?$AAe?$AA?5?$AAc?$AAl?$AAo?$AAs?$AAe?$AAd?$AA?$CB?$AA?5?$AAQ?$AAu?$AAi?$AAt?$AA?5?$AAt?$AAr?$AAa?$AAn?$AAs?$AAm?$AAi?$AAs?$AAs?$AAi?$AAo?$AAn@| [ DATA ] ; `string'
	EXPORT	|??_C@_1DK@JKMHGAMG@?$AAD?$AAo?$AAP?$AAu?$AAt?$AAB?$AAy?$AAt?$AAe?$AAs?$AA?5?$AAg?$AAo?$AAt?$AA?5?$AAC?$AAr?$AAi?$AAt?$AAS?$AAe?$AAc?$AA?5?$AA?$CF?$AAx?$AA?4?$AA?$AN?$AA?6?$AA?$AA@| [ DATA ] ; `string'
	EXPORT	|??_C@_1EE@GKGAJBJP@?$AAD?$AAo?$AAP?$AAu?$AAt?$AAB?$AAy?$AAt?$AAe?$AAs?$AA?5?$AAw?$AAa?$AAi?$AAt?$AA?5?$AAf?$AAo?$AAr?$AA?5?$AAC?$AAr?$AAi?$AAt?$AAS?$AAe?$AAc?$AA?5?$AA?$CF?$AAx?$AA?4?$AA?$AN@| [ DATA ] ; `string'
	EXPORT	|DoTxData|
	IMPORT	|LeaveCriticalSection|
	IMPORT	|EnterCriticalSection|

  00008			 AREA	 |.pdata|, PDATA
|$T41394| DCD	|$LN33@DoTxData|
	DCD	0x40014104

  00000			 AREA	 |.rdata|, DATA, READONLY
|??_C@_1EG@PNOECNFM@?$AAD?$AAo?$AAP?$AAu?$AAt?$AAB?$AAy?$AAt?$AAe?$AAs?$AA?5?$AAr?$AAe?$AAl?$AAe?$AAa?$AAs?$AAe?$AAd?$AA?5?$AAC?$AAr?$AAi?$AAt?$AAS?$AAe?$AAc?$AA?3?$AA?5?$AA?$CF?$AAx?$AA?4@| DCB "D"
	DCB	0x0, "o", 0x0, "P", 0x0, "u", 0x0, "t", 0x0, "B", 0x0, "y"
	DCB	0x0, "t", 0x0, "e", 0x0, "s", 0x0, " ", 0x0, "r", 0x0, "e"
	DCB	0x0, "l", 0x0, "e", 0x0, "a", 0x0, "s", 0x0, "e", 0x0, "d"
	DCB	0x0, " ", 0x0, "C", 0x0, "r", 0x0, "i", 0x0, "t", 0x0, "S"
	DCB	0x0, "e", 0x0, "c", 0x0, ":", 0x0, " ", 0x0, "%", 0x0, "x"
	DCB	0x0, ".", 0x0, 0xd, 0x0, 0xa, 0x0, 0x0, 0x0 ; `string'

  00000			 AREA	 |.rdata|, DATA, READONLY
|??_C@_1EO@IFEAHMMF@?$AAT?$AAr?$AAa?$AAn?$AAs?$AAm?$AAi?$AAs?$AAs?$AAi?$AAo?$AAn?$AA?5?$AAc?$AAo?$AAm?$AAp?$AAl?$AAe?$AAt?$AAe?$AA?0?$AA?5?$AA?$CF?$AAd?$AA?5?$AAb?$AAy?$AAt?$AAe?$AAs?$AA?5@| DCB "T"
	DCB	0x0, "r", 0x0, "a", 0x0, "n", 0x0, "s", 0x0, "m", 0x0, "i"
	DCB	0x0, "s", 0x0, "s", 0x0, "i", 0x0, "o", 0x0, "n", 0x0, " "
	DCB	0x0, "c", 0x0, "o", 0x0, "m", 0x0, "p", 0x0, "l", 0x0, "e"
	DCB	0x0, "t", 0x0, "e", 0x0, ",", 0x0, " ", 0x0, "%", 0x0, "d"
	DCB	0x0, " ", 0x0, "b", 0x0, "y", 0x0, "t", 0x0, "e", 0x0, "s"
	DCB	0x0, " ", 0x0, "s", 0x0, "e", 0x0, "n", 0x0, "t", 0x0, 0xd
	DCB	0x0, 0xa, 0x0, 0x0, 0x0			; `string'

  00000			 AREA	 |.rdata|, DATA, READONLY
|??_C@_1DI@GGPGJBLB@?$AA?$CF?$AAd?$AA?5?$AAb?$AAy?$AAt?$AAe?$AAs?$AA?5?$AAa?$AAc?$AAt?$AAu?$AAa?$AAl?$AAl?$AAy?$AA?5?$AAc?$AAo?$AAp?$AAi?$AAe?$AAd?$AA?4?$AA?$AN?$AA?6?$AA?$AA@| DCB "%"
	DCB	0x0, "d", 0x0, " ", 0x0, "b", 0x0, "y", 0x0, "t", 0x0, "e"
	DCB	0x0, "s", 0x0, " ", 0x0, "a", 0x0, "c", 0x0, "t", 0x0, "u"
	DCB	0x0, "a", 0x0, "l", 0x0, "l", 0x0, "y", 0x0, " ", 0x0, "c"
	DCB	0x0, "o", 0x0, "p", 0x0, "i", 0x0, "e", 0x0, "d", 0x0, "."
	DCB	0x0, 0xd, 0x0, 0xa, 0x0, 0x0, 0x0	; `string'

  00000			 AREA	 |.rdata|, DATA, READONLY
|??_C@_1DC@FONCMGND@?$AAA?$AAb?$AAo?$AAu?$AAt?$AA?5?$AAt?$AAo?$AA?5?$AAc?$AAo?$AAp?$AAy?$AA?5?$AA?$CF?$AAd?$AA?5?$AAb?$AAy?$AAt?$AAe?$AAs?$AA?$AN?$AA?6?$AA?$AA@| DCB "A"
	DCB	0x0, "b", 0x0, "o", 0x0, "u", 0x0, "t", 0x0, " ", 0x0, "t"
	DCB	0x0, "o", 0x0, " ", 0x0, "c", 0x0, "o", 0x0, "p", 0x0, "y"
	DCB	0x0, " ", 0x0, "%", 0x0, "d", 0x0, " ", 0x0, "b", 0x0, "y"
	DCB	0x0, "t", 0x0, "e", 0x0, "s", 0x0, 0xd, 0x0, 0xa, 0x0, 0x0
	DCB	0x0					; `string'

  00000			 AREA	 |.rdata|, DATA, READONLY
|??_C@_1GC@MPMHAODJ@?$AAT?$AAx?$AAR?$AAe?$AAa?$AAd?$AA?5?$AA?$DN?$AA?5?$AA?$CF?$AAd?$AA?0?$AA?5?$AAT?$AAx?$AAL?$AAe?$AAn?$AAg?$AAt?$AAh?$AA?5?$AA?$DN?$AA?5?$AA?$CF?$AAd?$AA?0?$AA?5?$AAT?$AAx?$AAB?$AAy@| DCB "T"
	DCB	0x0, "x", 0x0, "R", 0x0, "e", 0x0, "a", 0x0, "d", 0x0, " "
	DCB	0x0, "=", 0x0, " ", 0x0, "%", 0x0, "d", 0x0, ",", 0x0, " "
	DCB	0x0, "T", 0x0, "x", 0x0, "L", 0x0, "e", 0x0, "n", 0x0, "g"
	DCB	0x0, "t", 0x0, "h", 0x0, " ", 0x0, "=", 0x0, " ", 0x0, "%"
	DCB	0x0, "d", 0x0, ",", 0x0, " ", 0x0, "T", 0x0, "x", 0x0, "B"
	DCB	0x0, "y", 0x0, "t", 0x0, "e", 0x0, "s", 0x0, "A", 0x0, "v"
	DCB	0x0, "a", 0x0, "i", 0x0, "l", 0x0, " ", 0x0, "=", 0x0, " "
	DCB	0x0, "%", 0x0, "d", 0x0, ".", 0x0, 0xd, 0x0, 0xa, 0x0, 0x0
	DCB	0x0					; `string'

  00000			 AREA	 |.rdata|, DATA, READONLY
|??_C@_1DC@KIHGPOMJ@?$AAX?$AAO?$AAF?$AAF?$AA?8?$AAe?$AAd?$AA?0?$AA?5?$AAs?$AAe?$AAn?$AAd?$AA?5?$AAn?$AAo?$AAt?$AAh?$AAi?$AAn?$AAg?$AA?4?$AA?$AN?$AA?6?$AA?$AA@| DCB "X"
	DCB	0x0, "O", 0x0, "F", 0x0, "F", 0x0, "'", 0x0, "e", 0x0, "d"
	DCB	0x0, ",", 0x0, " ", 0x0, "s", 0x0, "e", 0x0, "n", 0x0, "d"
	DCB	0x0, " ", 0x0, "n", 0x0, "o", 0x0, "t", 0x0, "h", 0x0, "i"
	DCB	0x0, "n", 0x0, "g", 0x0, ".", 0x0, 0xd, 0x0, 0xa, 0x0, 0x0
	DCB	0x0					; `string'

  00000			 AREA	 |.rdata|, DATA, READONLY
|??_C@_1BG@OPJKPKO@?$AAR?$AAT?$AAS?$AA?5?$AAs?$AAe?$AAt?$AA?4?$AA?$AN?$AA?6?$AA?$AA@| DCB "R"
	DCB	0x0, "T", 0x0, "S", 0x0, " ", 0x0, "s", 0x0, "e", 0x0, "t"
	DCB	0x0, ".", 0x0, 0xd, 0x0, 0xa, 0x0, 0x0, 0x0 ; `string'

  00000			 AREA	 |.rdata|, DATA, READONLY
|??_C@_1FC@IBKKBMKO@?$AAS?$AAe?$AAr?$AAi?$AAa?$AAl?$AAE?$AAv?$AAe?$AAn?$AAt?$AAH?$AAa?$AAn?$AAd?$AAl?$AAe?$AAr?$AA?3?$AA?5?$AA?$CF?$AAd?$AA?5?$AAs?$AAe?$AAn?$AAt?$AA?5?$AAu?$AAp?$AA?9?$AAt@| DCB "S"
	DCB	0x0, "e", 0x0, "r", 0x0, "i", 0x0, "a", 0x0, "l", 0x0, "E"
	DCB	0x0, "v", 0x0, "e", 0x0, "n", 0x0, "t", 0x0, "H", 0x0, "a"
	DCB	0x0, "n", 0x0, "d", 0x0, "l", 0x0, "e", 0x0, "r", 0x0, ":"
	DCB	0x0, " ", 0x0, "%", 0x0, "d", 0x0, " ", 0x0, "s", 0x0, "e"
	DCB	0x0, "n", 0x0, "t", 0x0, " ", 0x0, "u", 0x0, "p", 0x0, "-"
	DCB	0x0, "t", 0x0, "o", 0x0, "-", 0x0, "n", 0x0, "o", 0x0, "w"
	DCB	0x0, ".", 0x0, 0xa, 0x0, 0xd, 0x0, 0x0, 0x0 ; `string'

  00000			 AREA	 |.rdata|, DATA, READONLY
|??_C@_1EI@PHLIHGKN@?$AAD?$AAe?$AAv?$AAi?$AAc?$AAe?$AA?5?$AAc?$AAl?$AAo?$AAs?$AAe?$AAd?$AA?$CB?$AA?5?$AAQ?$AAu?$AAi?$AAt?$AA?5?$AAt?$AAr?$AAa?$AAn?$AAs?$AAm?$AAi?$AAs?$AAs?$AAi?$AAo?$AAn@| DCB "D"
	DCB	0x0, "e", 0x0, "v", 0x0, "i", 0x0, "c", 0x0, "e", 0x0, " "
	DCB	0x0, "c", 0x0, "l", 0x0, "o", 0x0, "s", 0x0, "e", 0x0, "d"
	DCB	0x0, "!", 0x0, " ", 0x0, "Q", 0x0, "u", 0x0, "i", 0x0, "t"
	DCB	0x0, " ", 0x0, "t", 0x0, "r", 0x0, "a", 0x0, "n", 0x0, "s"
	DCB	0x0, "m", 0x0, "i", 0x0, "s", 0x0, "s", 0x0, "i", 0x0, "o"
	DCB	0x0, "n", 0x0, "!", 0x0, 0xd, 0x0, 0xa, 0x0, 0x0, 0x0 ; `string'

  00000			 AREA	 |.rdata|, DATA, READONLY
|??_C@_1DK@JKMHGAMG@?$AAD?$AAo?$AAP?$AAu?$AAt?$AAB?$AAy?$AAt?$AAe?$AAs?$AA?5?$AAg?$AAo?$AAt?$AA?5?$AAC?$AAr?$AAi?$AAt?$AAS?$AAe?$AAc?$AA?5?$AA?$CF?$AAx?$AA?4?$AA?$AN?$AA?6?$AA?$AA@| DCB "D"
	DCB	0x0, "o", 0x0, "P", 0x0, "u", 0x0, "t", 0x0, "B", 0x0, "y"
	DCB	0x0, "t", 0x0, "e", 0x0, "s", 0x0, " ", 0x0, "g", 0x0, "o"
	DCB	0x0, "t", 0x0, " ", 0x0, "C", 0x0, "r", 0x0, "i", 0x0, "t"
	DCB	0x0, "S", 0x0, "e", 0x0, "c", 0x0, " ", 0x0, "%", 0x0, "x"
	DCB	0x0, ".", 0x0, 0xd, 0x0, 0xa, 0x0, 0x0, 0x0 ; `string'

  00000			 AREA	 |.rdata|, DATA, READONLY
|??_C@_1EE@GKGAJBJP@?$AAD?$AAo?$AAP?$AAu?$AAt?$AAB?$AAy?$AAt?$AAe?$AAs?$AA?5?$AAw?$AAa?$AAi?$AAt?$AA?5?$AAf?$AAo?$AAr?$AA?5?$AAC?$AAr?$AAi?$AAt?$AAS?$AAe?$AAc?$AA?5?$AA?$CF?$AAx?$AA?4?$AA?$AN@| DCB "D"
	DCB	0x0, "o", 0x0, "P", 0x0, "u", 0x0, "t", 0x0, "B", 0x0, "y"
	DCB	0x0, "t", 0x0, "e", 0x0, "s", 0x0, " ", 0x0, "w", 0x0, "a"
	DCB	0x0, "i", 0x0, "t", 0x0, " ", 0x0, "f", 0x0, "o", 0x0, "r"
	DCB	0x0, " ", 0x0, "C", 0x0, "r", 0x0, "i", 0x0, "t", 0x0, "S"
	DCB	0x0, "e", 0x0, "c", 0x0, " ", 0x0, "%", 0x0, "x", 0x0, "."
	DCB	0x0, 0xd, 0x0, 0xa, 0x0, 0x0, 0x0	; `string'
; Function compile flags: /Odtp

  000b8			 AREA	 |.text|, CODE, ARM

  000b8		 |DoTxData| PROC

; 162  : {

  000b8		 |$LN33@DoTxData|
  000b8	e1a0c00d	 mov         r12, sp
  000bc	e92d0001	 stmdb       sp!, {r0}
  000c0	e92d5000	 stmdb       sp!, {r12, lr}
  000c4	e24dd038	 sub         sp, sp, #0x38
  000c8		 |$M41391|

; 163  :     PHW_VTBL            pFuncTbl = pSerialHead->pHWObj->pFuncTbl;

  000c8	e59d3040	 ldr         r3, [sp, #0x40]
  000cc	e2833028	 add         r3, r3, #0x28
  000d0	e5933000	 ldr         r3, [r3]
  000d4	e2833008	 add         r3, r3, #8
  000d8	e5933000	 ldr         r3, [r3]
  000dc	e58d3004	 str         r3, [sp, #4]

; 164  :     PVOID               pHWHead = pSerialHead->pHWHead;

  000e0	e59d3040	 ldr         r3, [sp, #0x40]
  000e4	e283302c	 add         r3, r3, #0x2C
  000e8	e5933000	 ldr         r3, [r3]
  000ec	e58d3008	 str         r3, [sp, #8]

; 165  :     ULONG               Len;
; 166  : 
; 167  : 
; 168  : 
; 169  :     DEBUGMSG (ZONE_WRITE, (TEXT("DoPutBytes wait for CritSec %x.\r\n"),
; 170  :                            &(pSerialHead->TxBufferInfo.CS)));

  000f0	e59f3498	 ldr         r3, [pc, #0x498]
  000f4	e5933440	 ldr         r3, [r3, #0x440]
  000f8	e3130008	 tst         r3, #8
  000fc	0a000006	 beq         |$LN9@DoTxData|
  00100	e59d3040	 ldr         r3, [sp, #0x40]
  00104	e28310d0	 add         r1, r3, #0xD0
  00108	e59f04a8	 ldr         r0, [pc, #0x4A8]
  0010c	eb000000	 bl          NKDbgPrintfW
  00110	e3a03001	 mov         r3, #1
  00114	e58d300c	 str         r3, [sp, #0xC]
  00118	ea000001	 b           |$LN10@DoTxData|
  0011c		 |$LN9@DoTxData|
  0011c	e3a03000	 mov         r3, #0
  00120	e58d300c	 str         r3, [sp, #0xC]
  00124		 |$LN10@DoTxData|

; 171  :     TxEnterCS(pSerialHead);

  00124	e59d3040	 ldr         r3, [sp, #0x40]
  00128	e28300d0	 add         r0, r3, #0xD0
  0012c	eb000000	 bl          EnterCriticalSection

; 172  :     DEBUGMSG (ZONE_WRITE, (TEXT("DoPutBytes got CritSec %x.\r\n"),
; 173  :                            &(pSerialHead->TxBufferInfo.CS)));

  00130	e59f3458	 ldr         r3, [pc, #0x458]
  00134	e5933440	 ldr         r3, [r3, #0x440]
  00138	e3130008	 tst         r3, #8
  0013c	0a000006	 beq         |$LN11@DoTxData|
  00140	e59d3040	 ldr         r3, [sp, #0x40]
  00144	e28310d0	 add         r1, r3, #0xD0
  00148	e59f0464	 ldr         r0, [pc, #0x464]
  0014c	eb000000	 bl          NKDbgPrintfW
  00150	e3a03001	 mov         r3, #1
  00154	e58d3010	 str         r3, [sp, #0x10]
  00158	ea000001	 b           |$LN12@DoTxData|
  0015c		 |$LN11@DoTxData|
  0015c	e3a03000	 mov         r3, #0
  00160	e58d3010	 str         r3, [sp, #0x10]
  00164		 |$LN12@DoTxData|

; 174  : 
; 175  :     // If device was closed from under us, stop transmitting
; 176  :     if ( !pSerialHead->OpenCnt ) {

  00164	e59d3040	 ldr         r3, [sp, #0x40]
  00168	e2833090	 add         r3, r3, #0x90
  0016c	e5933000	 ldr         r3, [r3]
  00170	e3530000	 cmp         r3, #0
  00174	1a000028	 bne         |$LN6@DoTxData|

; 177  :         DEBUGMSG (ZONE_THREAD|ZONE_WRITE , (TEXT("Device closed! Quit transmission!\r\n")));

  00178	e59f3410	 ldr         r3, [pc, #0x410]
  0017c	e5933440	 ldr         r3, [r3, #0x440]
  00180	e2032040	 and         r2, r3, #0x40
  00184	e59f3404	 ldr         r3, [pc, #0x404]
  00188	e5933440	 ldr         r3, [r3, #0x440]
  0018c	e2033008	 and         r3, r3, #8
  00190	e1923003	 orrs        r3, r2, r3
  00194	0a000004	 beq         |$LN13@DoTxData|
  00198	e59f0410	 ldr         r0, [pc, #0x410]
  0019c	eb000000	 bl          NKDbgPrintfW
  001a0	e3a03001	 mov         r3, #1
  001a4	e58d3014	 str         r3, [sp, #0x14]
  001a8	ea000001	 b           |$LN14@DoTxData|
  001ac		 |$LN13@DoTxData|
  001ac	e3a03000	 mov         r3, #0
  001b0	e58d3014	 str         r3, [sp, #0x14]
  001b4		 |$LN14@DoTxData|

; 178  :         DEBUGMSG (ZONE_WRITE,
; 179  :                   (TEXT("SerialEventHandler: %d sent up-to-now.\n\r"),pSerialHead->TxBytesSent));

  001b4	e59f33d4	 ldr         r3, [pc, #0x3D4]
  001b8	e5933440	 ldr         r3, [r3, #0x440]
  001bc	e3130008	 tst         r3, #8
  001c0	0a000007	 beq         |$LN15@DoTxData|
  001c4	e59d3040	 ldr         r3, [sp, #0x40]
  001c8	e283305c	 add         r3, r3, #0x5C
  001cc	e5931000	 ldr         r1, [r3]
  001d0	e59f03d4	 ldr         r0, [pc, #0x3D4]
  001d4	eb000000	 bl          NKDbgPrintfW
  001d8	e3a03001	 mov         r3, #1
  001dc	e58d3018	 str         r3, [sp, #0x18]
  001e0	ea000001	 b           |$LN16@DoTxData|
  001e4		 |$LN15@DoTxData|
  001e4	e3a03000	 mov         r3, #0
  001e8	e58d3018	 str         r3, [sp, #0x18]
  001ec		 |$LN16@DoTxData|

; 180  :         pSerialHead->TxBufferInfo.TxCharBuffer = NULL;

  001ec	e59d3040	 ldr         r3, [sp, #0x40]
  001f0	e28320cc	 add         r2, r3, #0xCC
  001f4	e3a03000	 mov         r3, #0
  001f8	e5823000	 str         r3, [r2]

; 181  :         pSerialHead->TxBufferInfo.Length = 0;

  001fc	e59d3040	 ldr         r3, [sp, #0x40]
  00200	e28320c8	 add         r2, r3, #0xC8
  00204	e3a03000	 mov         r3, #0
  00208	e5823000	 str         r3, [r2]

; 182  :         TxRead(pSerialHead) = 0;

  0020c	e59d3040	 ldr         r3, [sp, #0x40]
  00210	e28320c4	 add         r2, r3, #0xC4
  00214	e3a03000	 mov         r3, #0
  00218	e5823000	 str         r3, [r2]
  0021c		 |$LN6@DoTxData|

; 183  :     }
; 184  : 
; 185  :     // Check the flow control status, and if not flowed off, call the
; 186  :     // hw TX routine to actually transmit some data.
; 187  :     if ( pSerialHead->TxBufferInfo.TxCharBuffer && TxBytesAvail(pSerialHead) ) {

  0021c	e59d3040	 ldr         r3, [sp, #0x40]
  00220	e28330cc	 add         r3, r3, #0xCC
  00224	e5933000	 ldr         r3, [r3]
  00228	e3530000	 cmp         r3, #0
  0022c	0a000099	 beq         |$LN5@DoTxData|
  00230	e59d3040	 ldr         r3, [sp, #0x40]
  00234	e28320c8	 add         r2, r3, #0xC8
  00238	e59d3040	 ldr         r3, [sp, #0x40]
  0023c	e28330c4	 add         r3, r3, #0xC4
  00240	e5922000	 ldr         r2, [r2]
  00244	e5933000	 ldr         r3, [r3]
  00248	e0523003	 subs        r3, r2, r3
  0024c	0a000091	 beq         |$LN5@DoTxData|

; 188  :         if ( pSerialHead->DCB.fRtsControl == RTS_CONTROL_TOGGLE ) {

  00250	e59d3040	 ldr         r3, [sp, #0x40]
  00254	e2833068	 add         r3, r3, #0x68
  00258	e5933000	 ldr         r3, [r3]
  0025c	e1a03903	 mov         r3, r3, lsl #18
  00260	e1a03f23	 mov         r3, r3, lsr #30
  00264	e3530003	 cmp         r3, #3
  00268	1a000014	 bne         |$LN4@DoTxData|

; 189  :             DEBUGMSG (ZONE_THREAD|ZONE_WRITE , (TEXT("RTS set.\r\n")));

  0026c	e59f331c	 ldr         r3, [pc, #0x31C]
  00270	e5933440	 ldr         r3, [r3, #0x440]
  00274	e2032040	 and         r2, r3, #0x40
  00278	e59f3310	 ldr         r3, [pc, #0x310]
  0027c	e5933440	 ldr         r3, [r3, #0x440]
  00280	e2033008	 and         r3, r3, #8
  00284	e1923003	 orrs        r3, r2, r3
  00288	0a000004	 beq         |$LN17@DoTxData|
  0028c	e59f0314	 ldr         r0, [pc, #0x314]
  00290	eb000000	 bl          NKDbgPrintfW
  00294	e3a03001	 mov         r3, #1
  00298	e58d301c	 str         r3, [sp, #0x1C]
  0029c	ea000001	 b           |$LN18@DoTxData|
  002a0		 |$LN17@DoTxData|
  002a0	e3a03000	 mov         r3, #0
  002a4	e58d301c	 str         r3, [sp, #0x1C]
  002a8		 |$LN18@DoTxData|

; 190  :             pFuncTbl->HWSetRTS(pHWHead);

  002a8	e59d0008	 ldr         r0, [sp, #8]
  002ac	e59d3004	 ldr         r3, [sp, #4]
  002b0	e2833040	 add         r3, r3, #0x40
  002b4	e5933000	 ldr         r3, [r3]
  002b8	e1a0e00f	 mov         lr, pc
  002bc	e12fff13	 bx          r3
  002c0		 |$LN4@DoTxData|

; 191  :         }
; 192  : 
; 193  :         // Don't transmit anything if we are flowed off.
; 194  :         if ( pSerialHead->StopXmit ) {

  002c0	e59d3040	 ldr         r3, [sp, #0x40]
  002c4	e2833094	 add         r3, r3, #0x94
  002c8	e5933000	 ldr         r3, [r3]
  002cc	e3130004	 tst         r3, #4
  002d0	0a000011	 beq         |$LN3@DoTxData|

; 195  :             // But we still need to call TxIntrHandler so that the interrupt
; 196  :             // gets cleared.
; 197  :             DEBUGMSG (ZONE_FLOW|ZONE_WRITE , (TEXT("XOFF'ed, send nothing.\r\n")));

  002d4	e59f32b4	 ldr         r3, [pc, #0x2B4]
  002d8	e5933440	 ldr         r3, [r3, #0x440]
  002dc	e2032c02	 and         r2, r3, #2, 24
  002e0	e59f32a8	 ldr         r3, [pc, #0x2A8]
  002e4	e5933440	 ldr         r3, [r3, #0x440]
  002e8	e2033008	 and         r3, r3, #8
  002ec	e1923003	 orrs        r3, r2, r3
  002f0	0a000004	 beq         |$LN19@DoTxData|
  002f4	e59f02a8	 ldr         r0, [pc, #0x2A8]
  002f8	eb000000	 bl          NKDbgPrintfW
  002fc	e3a03001	 mov         r3, #1
  00300	e58d3020	 str         r3, [sp, #0x20]
  00304	ea000001	 b           |$LN20@DoTxData|
  00308		 |$LN19@DoTxData|
  00308	e3a03000	 mov         r3, #0
  0030c	e58d3020	 str         r3, [sp, #0x20]
  00310		 |$LN20@DoTxData|

; 198  :             Len = 0;

  00310	e3a03000	 mov         r3, #0
  00314	e58d3000	 str         r3, [sp]

; 199  :         } else {

  00318	ea00001f	 b           |$LN2@DoTxData|
  0031c		 |$LN3@DoTxData|

; 200  :             DEBUGMSG (ZONE_WRITE,
; 201  :                       (TEXT("TxRead = %d, TxLength = %d, TxBytesAvail = %d.\r\n"),
; 202  :                        TxRead(pSerialHead), TxLength(pSerialHead),
; 203  :                        TxBytesAvail(pSerialHead)));

  0031c	e59f326c	 ldr         r3, [pc, #0x26C]
  00320	e5933440	 ldr         r3, [r3, #0x440]
  00324	e3130008	 tst         r3, #8
  00328	0a000011	 beq         |$LN21@DoTxData|
  0032c	e59d3040	 ldr         r3, [sp, #0x40]
  00330	e28320c8	 add         r2, r3, #0xC8
  00334	e59d3040	 ldr         r3, [sp, #0x40]
  00338	e28330c4	 add         r3, r3, #0xC4
  0033c	e5922000	 ldr         r2, [r2]
  00340	e5933000	 ldr         r3, [r3]
  00344	e0423003	 sub         r3, r2, r3
  00348	e59d2040	 ldr         r2, [sp, #0x40]
  0034c	e28220c8	 add         r2, r2, #0xC8
  00350	e5922000	 ldr         r2, [r2]
  00354	e59d1040	 ldr         r1, [sp, #0x40]
  00358	e28110c4	 add         r1, r1, #0xC4
  0035c	e5911000	 ldr         r1, [r1]
  00360	e59f0238	 ldr         r0, [pc, #0x238]
  00364	eb000000	 bl          NKDbgPrintfW
  00368	e3a03001	 mov         r3, #1
  0036c	e58d3024	 str         r3, [sp, #0x24]
  00370	ea000001	 b           |$LN22@DoTxData|
  00374		 |$LN21@DoTxData|
  00374	e3a03000	 mov         r3, #0
  00378	e58d3024	 str         r3, [sp, #0x24]
  0037c		 |$LN22@DoTxData|

; 204  :             Len = TxBytesAvail(pSerialHead);

  0037c	e59d3040	 ldr         r3, [sp, #0x40]
  00380	e28320c8	 add         r2, r3, #0xC8
  00384	e59d3040	 ldr         r3, [sp, #0x40]
  00388	e28330c4	 add         r3, r3, #0xC4
  0038c	e5922000	 ldr         r2, [r2]
  00390	e5933000	 ldr         r3, [r3]
  00394	e0423003	 sub         r3, r2, r3
  00398	e58d3000	 str         r3, [sp]
  0039c		 |$LN2@DoTxData|

; 205  :         }
; 206  :         DEBUGMSG (ZONE_WRITE, (TEXT("About to copy %d bytes\r\n"), Len));

  0039c	e59f31ec	 ldr         r3, [pc, #0x1EC]
  003a0	e5933440	 ldr         r3, [r3, #0x440]
  003a4	e3130008	 tst         r3, #8
  003a8	0a000005	 beq         |$LN23@DoTxData|
  003ac	e59d1000	 ldr         r1, [sp]
  003b0	e59f01e4	 ldr         r0, [pc, #0x1E4]
  003b4	eb000000	 bl          NKDbgPrintfW
  003b8	e3a03001	 mov         r3, #1
  003bc	e58d3028	 str         r3, [sp, #0x28]
  003c0	ea000001	 b           |$LN24@DoTxData|
  003c4		 |$LN23@DoTxData|
  003c4	e3a03000	 mov         r3, #0
  003c8	e58d3028	 str         r3, [sp, #0x28]
  003cc		 |$LN24@DoTxData|

; 207  :         pFuncTbl->HWTxIntrHandler(pHWHead,
; 208  :                                   TxBuffRead(pSerialHead),
; 209  :                                   &Len);

  003cc	e28d2000	 add         r2, sp, #0
  003d0	e59d3040	 ldr         r3, [sp, #0x40]
  003d4	e28310cc	 add         r1, r3, #0xCC
  003d8	e59d3040	 ldr         r3, [sp, #0x40]
  003dc	e28330c4	 add         r3, r3, #0xC4
  003e0	e5911000	 ldr         r1, [r1]
  003e4	e5933000	 ldr         r3, [r3]
  003e8	e0811003	 add         r1, r1, r3
  003ec	e59d0008	 ldr         r0, [sp, #8]
  003f0	e59d3004	 ldr         r3, [sp, #4]
  003f4	e283301c	 add         r3, r3, #0x1C
  003f8	e5933000	 ldr         r3, [r3]
  003fc	e1a0e00f	 mov         lr, pc
  00400	e12fff13	 bx          r3

; 210  :         DEBUGMSG (ZONE_WRITE, (TEXT("%d bytes actually copied.\r\n"), Len));

  00404	e59f3184	 ldr         r3, [pc, #0x184]
  00408	e5933440	 ldr         r3, [r3, #0x440]
  0040c	e3130008	 tst         r3, #8
  00410	0a000005	 beq         |$LN25@DoTxData|
  00414	e59d1000	 ldr         r1, [sp]
  00418	e59f0178	 ldr         r0, [pc, #0x178]
  0041c	eb000000	 bl          NKDbgPrintfW
  00420	e3a03001	 mov         r3, #1
  00424	e58d302c	 str         r3, [sp, #0x2C]
  00428	ea000001	 b           |$LN26@DoTxData|
  0042c		 |$LN25@DoTxData|
  0042c	e3a03000	 mov         r3, #0
  00430	e58d302c	 str         r3, [sp, #0x2C]
  00434		 |$LN26@DoTxData|

; 211  :         // Update Fifo info
; 212  :         pSerialHead->TxBytes += Len;

  00434	e59d3040	 ldr         r3, [sp, #0x40]
  00438	e2833054	 add         r3, r3, #0x54
  0043c	e5932000	 ldr         r2, [r3]
  00440	e59d3000	 ldr         r3, [sp]
  00444	e0822003	 add         r2, r2, r3
  00448	e59d3040	 ldr         r3, [sp, #0x40]
  0044c	e2833054	 add         r3, r3, #0x54
  00450	e5832000	 str         r2, [r3]

; 213  :         pSerialHead->TxBytesSent += Len;

  00454	e59d3040	 ldr         r3, [sp, #0x40]
  00458	e283305c	 add         r3, r3, #0x5C
  0045c	e5932000	 ldr         r2, [r3]
  00460	e59d3000	 ldr         r3, [sp]
  00464	e0822003	 add         r2, r2, r3
  00468	e59d3040	 ldr         r3, [sp, #0x40]
  0046c	e283305c	 add         r3, r3, #0x5C
  00470	e5832000	 str         r2, [r3]

; 214  :         TxRead(pSerialHead) += Len;

  00474	e59d3040	 ldr         r3, [sp, #0x40]
  00478	e28330c4	 add         r3, r3, #0xC4
  0047c	e5932000	 ldr         r2, [r3]
  00480	e59d3000	 ldr         r3, [sp]
  00484	e0822003	 add         r2, r2, r3
  00488	e59d3040	 ldr         r3, [sp, #0x40]
  0048c	e28330c4	 add         r3, r3, #0xC4
  00490	e5832000	 str         r2, [r3]

; 215  : 
; 216  :         // Even if everything was Tx'ed, don't signal TX complete until
; 217  :         // we get transmit interrupt indicating that the data has
; 218  :         // actually been sent.  Since few/no UARTS have a way to tell
; 219  :         // how much data remains, we don't bother trying to adjust the
; 220  :         // return length to account for partially completed hardware buffer TX
; 221  :     } else {

  00494	ea000025	 b           |$LN1@DoTxData|
  00498		 |$LN5@DoTxData|

; 222  :         // Even if there is nothing left to send, we need to call
; 223  :         // the interrupt handler so that it can clear the
; 224  :         // transmit interrupt
; 225  :         Len = 0;

  00498	e3a03000	 mov         r3, #0
  0049c	e58d3000	 str         r3, [sp]

; 226  :         pFuncTbl->HWTxIntrHandler(pHWHead,
; 227  :                                   NULL,
; 228  :                                   &Len);

  004a0	e28d2000	 add         r2, sp, #0
  004a4	e3a01000	 mov         r1, #0
  004a8	e59d0008	 ldr         r0, [sp, #8]
  004ac	e59d3004	 ldr         r3, [sp, #4]
  004b0	e283301c	 add         r3, r3, #0x1C
  004b4	e5933000	 ldr         r3, [r3]
  004b8	e1a0e00f	 mov         lr, pc
  004bc	e12fff13	 bx          r3

; 229  :         DEBUGMSG (ZONE_WRITE, (TEXT("Transmission complete, %d bytes sent\r\n"), Len));

  004c0	e59f30c8	 ldr         r3, [pc, #0xC8]
  004c4	e5933440	 ldr         r3, [r3, #0x440]
  004c8	e3130008	 tst         r3, #8
  004cc	0a000005	 beq         |$LN27@DoTxData|
  004d0	e59d1000	 ldr         r1, [sp]
  004d4	e59f00b8	 ldr         r0, [pc, #0xB8]
  004d8	eb000000	 bl          NKDbgPrintfW
  004dc	e3a03001	 mov         r3, #1
  004e0	e58d3030	 str         r3, [sp, #0x30]
  004e4	ea000001	 b           |$LN28@DoTxData|
  004e8		 |$LN27@DoTxData|
  004e8	e3a03000	 mov         r3, #0
  004ec	e58d3030	 str         r3, [sp, #0x30]
  004f0		 |$LN28@DoTxData|

; 230  :         pSerialHead->TxBufferInfo.TxCharBuffer = NULL;

  004f0	e59d3040	 ldr         r3, [sp, #0x40]
  004f4	e28320cc	 add         r2, r3, #0xCC
  004f8	e3a03000	 mov         r3, #0
  004fc	e5823000	 str         r3, [r2]

; 231  :         pSerialHead->TxBufferInfo.Length = 0;

  00500	e59d3040	 ldr         r3, [sp, #0x40]
  00504	e28320c8	 add         r2, r3, #0xC8
  00508	e3a03000	 mov         r3, #0
  0050c	e5823000	 str         r3, [r2]

; 232  :         TxRead(pSerialHead) = 0;

  00510	e59d3040	 ldr         r3, [sp, #0x40]
  00514	e28320c4	 add         r2, r3, #0xC4
  00518	e3a03000	 mov         r3, #0
  0051c	e5823000	 str         r3, [r2]

; 233  :         SetEvent(pSerialHead->hTransmitEvent);

  00520	e59d3040	 ldr         r3, [sp, #0x40]
  00524	e283303c	 add         r3, r3, #0x3C
  00528	e5930000	 ldr         r0, [r3]
  0052c	eb000000	 bl          SetEvent
  00530		 |$LN1@DoTxData|

; 234  :     }
; 235  : 
; 236  :     TxLeaveCS(pSerialHead);

  00530	e59d3040	 ldr         r3, [sp, #0x40]
  00534	e28300d0	 add         r0, r3, #0xD0
  00538	eb000000	 bl          LeaveCriticalSection

; 237  :     DEBUGMSG (ZONE_WRITE|ZONE_FUNCTION,
; 238  :               (TEXT("DoPutBytes released CritSec: %x.\r\n"),
; 239  :                &(pSerialHead->TxBufferInfo.CS)));

  0053c	e59f304c	 ldr         r3, [pc, #0x4C]
  00540	e5933440	 ldr         r3, [r3, #0x440]
  00544	e2032008	 and         r2, r3, #8
  00548	e59f3040	 ldr         r3, [pc, #0x40]
  0054c	e5933440	 ldr         r3, [r3, #0x440]
  00550	e2033a02	 and         r3, r3, #2, 20
  00554	e1923003	 orrs        r3, r2, r3
  00558	0a000006	 beq         |$LN29@DoTxData|
  0055c	e59d3040	 ldr         r3, [sp, #0x40]
  00560	e28310d0	 add         r1, r3, #0xD0
  00564	e59f0020	 ldr         r0, [pc, #0x20]
  00568	eb000000	 bl          NKDbgPrintfW
  0056c	e3a03001	 mov         r3, #1
  00570	e58d3034	 str         r3, [sp, #0x34]
  00574	ea000001	 b           |$LN30@DoTxData|
  00578		 |$LN29@DoTxData|
  00578	e3a03000	 mov         r3, #0
  0057c	e58d3034	 str         r3, [sp, #0x34]
  00580		 |$LN30@DoTxData|

; 240  : 
; 241  : }

  00580	e28dd038	 add         sp, sp, #0x38
  00584	e89d6000	 ldmia       sp, {sp, lr}
  00588	e12fff1e	 bx          lr
  0058c		 |$LN34@DoTxData|
  0058c		 |$LN35@DoTxData|
  0058c	00000000	 DCD         |??_C@_1EG@PNOECNFM@?$AAD?$AAo?$AAP?$AAu?$AAt?$AAB?$AAy?$AAt?$AAe?$AAs?$AA?5?$AAr?$AAe?$AAl?$AAe?$AAa?$AAs?$AAe?$AAd?$AA?5?$AAC?$AAr?$AAi?$AAt?$AAS?$AAe?$AAc?$AA?3?$AA?5?$AA?$CF?$AAx?$AA?4@|
  00590		 |$LN36@DoTxData|
  00590	00000000	 DCD         |dpCurSettings|
  00594		 |$LN37@DoTxData|
  00594	00000000	 DCD         |??_C@_1EO@IFEAHMMF@?$AAT?$AAr?$AAa?$AAn?$AAs?$AAm?$AAi?$AAs?$AAs?$AAi?$AAo?$AAn?$AA?5?$AAc?$AAo?$AAm?$AAp?$AAl?$AAe?$AAt?$AAe?$AA?0?$AA?5?$AA?$CF?$AAd?$AA?5?$AAb?$AAy?$AAt?$AAe?$AAs?$AA?5@|
  00598		 |$LN38@DoTxData|
  00598	00000000	 DCD         |??_C@_1DI@GGPGJBLB@?$AA?$CF?$AAd?$AA?5?$AAb?$AAy?$AAt?$AAe?$AAs?$AA?5?$AAa?$AAc?$AAt?$AAu?$AAa?$AAl?$AAl?$AAy?$AA?5?$AAc?$AAo?$AAp?$AAi?$AAe?$AAd?$AA?4?$AA?$AN?$AA?6?$AA?$AA@|
  0059c		 |$LN39@DoTxData|
  0059c	00000000	 DCD         |??_C@_1DC@FONCMGND@?$AAA?$AAb?$AAo?$AAu?$AAt?$AA?5?$AAt?$AAo?$AA?5?$AAc?$AAo?$AAp?$AAy?$AA?5?$AA?$CF?$AAd?$AA?5?$AAb?$AAy?$AAt?$AAe?$AAs?$AA?$AN?$AA?6?$AA?$AA@|
  005a0		 |$LN40@DoTxData|
  005a0	00000000	 DCD         |??_C@_1GC@MPMHAODJ@?$AAT?$AAx?$AAR?$AAe?$AAa?$AAd?$AA?5?$AA?$DN?$AA?5?$AA?$CF?$AAd?$AA?0?$AA?5?$AAT?$AAx?$AAL?$AAe?$AAn?$AAg?$AAt?$AAh?$AA?5?$AA?$DN?$AA?5?$AA?$CF?$AAd?$AA?0?$AA?5?$AAT?$AAx?$AAB?$AAy@|
  005a4		 |$LN41@DoTxData|
  005a4	00000000	 DCD         |??_C@_1DC@KIHGPOMJ@?$AAX?$AAO?$AAF?$AAF?$AA?8?$AAe?$AAd?$AA?0?$AA?5?$AAs?$AAe?$AAn?$AAd?$AA?5?$AAn?$AAo?$AAt?$AAh?$AAi?$AAn?$AAg?$AA?4?$AA?$AN?$AA?6?$AA?$AA@|
  005a8		 |$LN42@DoTxData|
  005a8	00000000	 DCD         |??_C@_1BG@OPJKPKO@?$AAR?$AAT?$AAS?$AA?5?$AAs?$AAe?$AAt?$AA?4?$AA?$AN?$AA?6?$AA?$AA@|
  005ac		 |$LN43@DoTxData|
  005ac	00000000	 DCD         |??_C@_1FC@IBKKBMKO@?$AAS?$AAe?$AAr?$AAi?$AAa?$AAl?$AAE?$AAv?$AAe?$AAn?$AAt?$AAH?$AAa?$AAn?$AAd?$AAl?$AAe?$AAr?$AA?3?$AA?5?$AA?$CF?$AAd?$AA?5?$AAs?$AAe?$AAn?$AAt?$AA?5?$AAu?$AAp?$AA?9?$AAt@|
  005b0		 |$LN44@DoTxData|
  005b0	00000000	 DCD         |??_C@_1EI@PHLIHGKN@?$AAD?$AAe?$AAv?$AAi?$AAc?$AAe?$AA?5?$AAc?$AAl?$AAo?$AAs?$AAe?$AAd?$AA?$CB?$AA?5?$AAQ?$AAu?$AAi?$AAt?$AA?5?$AAt?$AAr?$AAa?$AAn?$AAs?$AAm?$AAi?$AAs?$AAs?$AAi?$AAo?$AAn@|
  005b4		 |$LN45@DoTxData|
  005b4	00000000	 DCD         |??_C@_1DK@JKMHGAMG@?$AAD?$AAo?$AAP?$AAu?$AAt?$AAB?$AAy?$AAt?$AAe?$AAs?$AA?5?$AAg?$AAo?$AAt?$AA?5?$AAC?$AAr?$AAi?$AAt?$AAS?$AAe?$AAc?$AA?5?$AA?$CF?$AAx?$AA?4?$AA?$AN?$AA?6?$AA?$AA@|
  005b8		 |$LN46@DoTxData|
  005b8	00000000	 DCD         |??_C@_1EE@GKGAJBJP@?$AAD?$AAo?$AAP?$AAu?$AAt?$AAB?$AAy?$AAt?$AAe?$AAs?$AA?5?$AAw?$AAa?$AAi?$AAt?$AA?5?$AAf?$AAo?$AAr?$AA?5?$AAC?$AAr?$AAi?$AAt?$AAS?$AAe?$AAc?$AA?5?$AA?$CF?$AAx?$AA?4?$AA?$AN@|
  005bc		 |$M41392|

			 ENDP  ; |DoTxData|

	IMPORT	|EventModify|
; File c:\wince600\public\common\sdk\inc\kfuncs.h

  00000			 AREA	 |.pdata|, PDATA
|$T41413| DCD	|$LN5@SetEvent|
	DCD	0x40000e04
; Function compile flags: /Odtp

  00000			 AREA	 |.text|, CODE, ARM

  00000		 |SetEvent| PROC

; 235  : _inline BOOL SetEvent(HANDLE h) {

  00000		 |$LN5@SetEvent|
  00000	e1a0c00d	 mov         r12, sp
  00004	e92d0001	 stmdb       sp!, {r0}
  00008	e92d5000	 stmdb       sp!, {r12, lr}
  0000c	e24dd008	 sub         sp, sp, #8
  00010		 |$M41410|

; 236  : 	return EventModify(h,EVENT_SET);

  00010	e3a01003	 mov         r1, #3
  00014	e59d0010	 ldr         r0, [sp, #0x10]
  00018	eb000000	 bl          EventModify
  0001c	e58d0004	 str         r0, [sp, #4]
  00020	e59d3004	 ldr         r3, [sp, #4]
  00024	e58d3000	 str         r3, [sp]

; 237  : }

  00028	e59d0000	 ldr         r0, [sp]
  0002c	e28dd008	 add         sp, sp, #8
  00030	e89d6000	 ldmia       sp, {sp, lr}
  00034	e12fff1e	 bx          lr
  00038		 |$M41411|

			 ENDP  ; |SetEvent|

	EXPORT	|??_C@_1FI@GGFBGELP@?$AA?9?$AAS?$AAe?$AAr?$AAi?$AAa?$AAl?$AAE?$AAv?$AAe?$AAn?$AAt?$AAH?$AAa?$AAn?$AAd?$AAl?$AAe?$AAr?$AA?0?$AA?5?$AAF?$AAi?$AAf?$AAo?$AA?$CI?$AAR?$AA?$DN?$AA?$CF?$AAd?$AA?0?$AAW@| [ DATA ] ; `string'
	EXPORT	|EvaluateEventFlag|
	EXPORT	|??_C@_1CI@EJHAPNLK@?$AAL?$AAi?$AAn?$AAe?$AA?5?$AAE?$AAv?$AAe?$AAn?$AAt?$AA?0?$AA?5?$AAi?$AAt?$AA?3?$AA?$CF?$AAx?$AA?$AN?$AA?6?$AA?$AA@| [ DATA ] ; `string'
	EXPORT	|??_C@_1CK@CPCFPBFI@?$AAO?$AAt?$AAh?$AAe?$AAr?$AA?5?$AAE?$AAv?$AAe?$AAn?$AAt?$AA?0?$AA?5?$AAi?$AAt?$AA?3?$AA?$CF?$AAx?$AA?$AN?$AA?6?$AA?$AA@| [ DATA ] ; `string'
	EXPORT	|??_C@_1BG@KFPNBBDH@?$AAT?$AAx?$AA?5?$AAE?$AAv?$AAe?$AAn?$AAt?$AA?$AN?$AA?6?$AA?$AA@| [ DATA ] ; `string'
	EXPORT	|??_C@_1BO@CNGNDNHF@?$AAS?$AAe?$AAn?$AAd?$AAi?$AAn?$AAg?$AA?5?$AAX?$AAO?$AAF?$AAF?$AA?$AN?$AA?6?$AA?$AA@| [ DATA ] ; `string'
	EXPORT	|??_C@_1EK@LMCHJDFJ@?$AAR?$AAT?$AAS?$AA_?$AAC?$AAO?$AAN?$AAT?$AAR?$AAO?$AAL?$AA_?$AAH?$AAA?$AAN?$AAD?$AAS?$AAH?$AAA?$AAK?$AAE?$AA?5?$AAC?$AAl?$AAe?$AAa?$AAr?$AAi?$AAn?$AAg?$AA?5?$AAR@| [ DATA ] ; `string'
	EXPORT	|??_C@_1EK@FLILIJBB@?$AAD?$AAT?$AAR?$AA_?$AAC?$AAO?$AAN?$AAT?$AAR?$AAO?$AAL?$AA_?$AAH?$AAA?$AAN?$AAD?$AAS?$AAH?$AAA?$AAK?$AAE?$AA?5?$AAC?$AAl?$AAe?$AAa?$AAr?$AAi?$AAn?$AAg?$AA?5?$AAD@| [ DATA ] ; `string'
	EXPORT	|??_C@_1BO@EEIJDLJ@?$AAR?$AAe?$AAc?$AAe?$AAi?$AAv?$AAe?$AAd?$AA?5?$AAX?$AAO?$AAN?$AA?$AN?$AA?6?$AA?$AA@| [ DATA ] ; `string'
	EXPORT	|??_C@_1CA@EJJJJNNE@?$AAR?$AAe?$AAc?$AAe?$AAi?$AAv?$AAe?$AAd?$AA?5?$AAX?$AAO?$AAF?$AAF?$AA?$AN?$AA?6?$AA?$AA@| [ DATA ] ; `string'
	EXPORT	|??_C@_1HG@EGFFDKNF@?$AAA?$AAf?$AAt?$AAe?$AAr?$AA?5?$AAH?$AAW?$AAG?$AAe?$AAt?$AAB?$AAy?$AAt?$AAe?$AAs?$AA?0?$AA?5?$AAF?$AAi?$AAf?$AAo?$AA?$CI?$AAR?$AA?$DN?$AA?$CF?$AAd?$AA?0?$AAW?$AA?$DN?$AA?$CF?$AAd@| [ DATA ] ; `string'
	EXPORT	|RxBytesAvail|
	EXPORT	|??_C@_1CE@NDNCGIIC@?$AAT?$AAo?$AAs?$AAs?$AAe?$AAd?$AA?5?$AA?$CF?$AAd?$AA?5?$AAb?$AAy?$AAt?$AAe?$AAs?$AA?$AN?$AA?6?$AA?$AA@| [ DATA ] ; `string'
	EXPORT	|??_C@_1BG@NHAMELLH@?$AAR?$AAx?$AA?5?$AAE?$AAv?$AAe?$AAn?$AAt?$AA?$AN?$AA?6?$AA?$AA@| [ DATA ] ; `string'
	EXPORT	|??_C@_1EM@PPCKGCIP@?$AAS?$AAe?$AAr?$AAi?$AAa?$AAl?$AAE?$AAv?$AAe?$AAn?$AAt?$AAH?$AAa?$AAn?$AAd?$AAl?$AAe?$AAr?$AA?0?$AA?5?$AAI?$AAn?$AAt?$AAe?$AAr?$AAr?$AAu?$AAp?$AAt?$AAs?$AA?5?$AA0@| [ DATA ] ; `string'
	EXPORT	|??_C@_1EI@MHGBBLDA@?$AAS?$AAe?$AAr?$AAi?$AAa?$AAl?$AAE?$AAv?$AAe?$AAn?$AAt?$AAH?$AAa?$AAn?$AAd?$AAl?$AAe?$AAr?$AA?0?$AA?5?$AAN?$AAo?$AA?5?$AAI?$AAn?$AAt?$AAe?$AAr?$AAr?$AAu?$AAp?$AAt@| [ DATA ] ; `string'
	EXPORT	|??_C@_1CE@JLPIMJPF@?$AAE?$AAx?$AAi?$AAt?$AAt?$AAi?$AAn?$AAg?$AA?5?$AAt?$AAh?$AAr?$AAe?$AAa?$AAd?$AA?$AN?$AA?6?$AA?$AA@| [ DATA ] ; `string'
	EXPORT	|??_C@_1EE@PGFICLOP@?$AA?$CL?$AAS?$AAe?$AAr?$AAi?$AAa?$AAl?$AAE?$AAv?$AAe?$AAn?$AAt?$AAH?$AAa?$AAn?$AAd?$AAl?$AAe?$AAr?$AA?0?$AA?5?$AAp?$AAH?$AAe?$AAa?$AAd?$AA?5?$AA0?$AAx?$AA?$CF?$AAX?$AA?$AN@| [ DATA ] ; `string'
	EXPORT	|__$ArrayPad$| [ DATA ]
	EXPORT	|SerialEventHandler|
	IMPORT	|InterlockedDecrement|
	IMPORT	|memmove|
	IMPORT	|InterlockedCompareExchange|
	IMPORT	|InterlockedIncrement|
	IMPORT	|ExitThread|
	IMPORT	|__security_cookie|
	IMPORT	|__GSHandlerCheck|
	IMPORT	|__security_check_cookie|

  00010			 AREA	 |.pdata|, PDATA
|$T41463| DCD	|$LN73@SerialEven|
	DCD	0xc002d204
; File c:\wince600\platform\common\src\soc\common_ti_v1\common_ti\serial\com_mdd2\mdd.c

  00000			 AREA	 |.rdata|, DATA, READONLY
|??_C@_1FI@GGFBGELP@?$AA?9?$AAS?$AAe?$AAr?$AAi?$AAa?$AAl?$AAE?$AAv?$AAe?$AAn?$AAt?$AAH?$AAa?$AAn?$AAd?$AAl?$AAe?$AAr?$AA?0?$AA?5?$AAF?$AAi?$AAf?$AAo?$AA?$CI?$AAR?$AA?$DN?$AA?$CF?$AAd?$AA?0?$AAW@| DCB "-"
	DCB	0x0, "S", 0x0, "e", 0x0, "r", 0x0, "i", 0x0, "a", 0x0, "l"
	DCB	0x0, "E", 0x0, "v", 0x0, "e", 0x0, "n", 0x0, "t", 0x0, "H"
	DCB	0x0, "a", 0x0, "n", 0x0, "d", 0x0, "l", 0x0, "e", 0x0, "r"
	DCB	0x0, ",", 0x0, " ", 0x0, "F", 0x0, "i", 0x0, "f", 0x0, "o"
	DCB	0x0, "(", 0x0, "R", 0x0, "=", 0x0, "%", 0x0, "d", 0x0, ","
	DCB	0x0, "W", 0x0, "=", 0x0, "%", 0x0, "d", 0x0, ",", 0x0, "L"
	DCB	0x0, "=", 0x0, "%", 0x0, "d", 0x0, ")", 0x0, 0xd, 0x0, 0xa
	DCB	0x0, 0x0, 0x0				; `string'

  00000			 AREA	 |.rdata|, DATA, READONLY
|??_C@_1CI@EJHAPNLK@?$AAL?$AAi?$AAn?$AAe?$AA?5?$AAE?$AAv?$AAe?$AAn?$AAt?$AA?0?$AA?5?$AAi?$AAt?$AA?3?$AA?$CF?$AAx?$AA?$AN?$AA?6?$AA?$AA@| DCB "L"
	DCB	0x0, "i", 0x0, "n", 0x0, "e", 0x0, " ", 0x0, "E", 0x0, "v"
	DCB	0x0, "e", 0x0, "n", 0x0, "t", 0x0, ",", 0x0, " ", 0x0, "i"
	DCB	0x0, "t", 0x0, ":", 0x0, "%", 0x0, "x", 0x0, 0xd, 0x0, 0xa
	DCB	0x0, 0x0, 0x0				; `string'

  00000			 AREA	 |.rdata|, DATA, READONLY
|??_C@_1CK@CPCFPBFI@?$AAO?$AAt?$AAh?$AAe?$AAr?$AA?5?$AAE?$AAv?$AAe?$AAn?$AAt?$AA?0?$AA?5?$AAi?$AAt?$AA?3?$AA?$CF?$AAx?$AA?$AN?$AA?6?$AA?$AA@| DCB "O"
	DCB	0x0, "t", 0x0, "h", 0x0, "e", 0x0, "r", 0x0, " ", 0x0, "E"
	DCB	0x0, "v", 0x0, "e", 0x0, "n", 0x0, "t", 0x0, ",", 0x0, " "
	DCB	0x0, "i", 0x0, "t", 0x0, ":", 0x0, "%", 0x0, "x", 0x0, 0xd
	DCB	0x0, 0xa, 0x0, 0x0, 0x0			; `string'

  00000			 AREA	 |.rdata|, DATA, READONLY
|??_C@_1BG@KFPNBBDH@?$AAT?$AAx?$AA?5?$AAE?$AAv?$AAe?$AAn?$AAt?$AA?$AN?$AA?6?$AA?$AA@| DCB "T"
	DCB	0x0, "x", 0x0, " ", 0x0, "E", 0x0, "v", 0x0, "e", 0x0, "n"
	DCB	0x0, "t", 0x0, 0xd, 0x0, 0xa, 0x0, 0x0, 0x0 ; `string'

  00000			 AREA	 |.rdata|, DATA, READONLY
|??_C@_1BO@CNGNDNHF@?$AAS?$AAe?$AAn?$AAd?$AAi?$AAn?$AAg?$AA?5?$AAX?$AAO?$AAF?$AAF?$AA?$AN?$AA?6?$AA?$AA@| DCB "S"
	DCB	0x0, "e", 0x0, "n", 0x0, "d", 0x0, "i", 0x0, "n", 0x0, "g"
	DCB	0x0, " ", 0x0, "X", 0x0, "O", 0x0, "F", 0x0, "F", 0x0, 0xd
	DCB	0x0, 0xa, 0x0, 0x0, 0x0			; `string'

  00000			 AREA	 |.rdata|, DATA, READONLY
|??_C@_1EK@LMCHJDFJ@?$AAR?$AAT?$AAS?$AA_?$AAC?$AAO?$AAN?$AAT?$AAR?$AAO?$AAL?$AA_?$AAH?$AAA?$AAN?$AAD?$AAS?$AAH?$AAA?$AAK?$AAE?$AA?5?$AAC?$AAl?$AAe?$AAa?$AAr?$AAi?$AAn?$AAg?$AA?5?$AAR@| DCB "R"
	DCB	0x0, "T", 0x0, "S", 0x0, "_", 0x0, "C", 0x0, "O", 0x0, "N"
	DCB	0x0, "T", 0x0, "R", 0x0, "O", 0x0, "L", 0x0, "_", 0x0, "H"
	DCB	0x0, "A", 0x0, "N", 0x0, "D", 0x0, "S", 0x0, "H", 0x0, "A"
	DCB	0x0, "K", 0x0, "E", 0x0, " ", 0x0, "C", 0x0, "l", 0x0, "e"
	DCB	0x0, "a", 0x0, "r", 0x0, "i", 0x0, "n", 0x0, "g", 0x0, " "
	DCB	0x0, "R", 0x0, "T", 0x0, "S", 0x0, 0xd, 0x0, 0xa, 0x0, 0x0
	DCB	0x0					; `string'

  00000			 AREA	 |.rdata|, DATA, READONLY
|??_C@_1EK@FLILIJBB@?$AAD?$AAT?$AAR?$AA_?$AAC?$AAO?$AAN?$AAT?$AAR?$AAO?$AAL?$AA_?$AAH?$AAA?$AAN?$AAD?$AAS?$AAH?$AAA?$AAK?$AAE?$AA?5?$AAC?$AAl?$AAe?$AAa?$AAr?$AAi?$AAn?$AAg?$AA?5?$AAD@| DCB "D"
	DCB	0x0, "T", 0x0, "R", 0x0, "_", 0x0, "C", 0x0, "O", 0x0, "N"
	DCB	0x0, "T", 0x0, "R", 0x0, "O", 0x0, "L", 0x0, "_", 0x0, "H"
	DCB	0x0, "A", 0x0, "N", 0x0, "D", 0x0, "S", 0x0, "H", 0x0, "A"
	DCB	0x0, "K", 0x0, "E", 0x0, " ", 0x0, "C", 0x0, "l", 0x0, "e"
	DCB	0x0, "a", 0x0, "r", 0x0, "i", 0x0, "n", 0x0, "g", 0x0, " "
	DCB	0x0, "D", 0x0, "T", 0x0, "R", 0x0, 0xd, 0x0, 0xa, 0x0, 0x0
	DCB	0x0					; `string'

  00000			 AREA	 |.rdata|, DATA, READONLY
|??_C@_1BO@EEIJDLJ@?$AAR?$AAe?$AAc?$AAe?$AAi?$AAv?$AAe?$AAd?$AA?5?$AAX?$AAO?$AAN?$AA?$AN?$AA?6?$AA?$AA@| DCB "R"
	DCB	0x0, "e", 0x0, "c", 0x0, "e", 0x0, "i", 0x0, "v", 0x0, "e"
	DCB	0x0, "d", 0x0, " ", 0x0, "X", 0x0, "O", 0x0, "N", 0x0, 0xd
	DCB	0x0, 0xa, 0x0, 0x0, 0x0			; `string'

  00000			 AREA	 |.rdata|, DATA, READONLY
|??_C@_1CA@EJJJJNNE@?$AAR?$AAe?$AAc?$AAe?$AAi?$AAv?$AAe?$AAd?$AA?5?$AAX?$AAO?$AAF?$AAF?$AA?$AN?$AA?6?$AA?$AA@| DCB "R"
	DCB	0x0, "e", 0x0, "c", 0x0, "e", 0x0, "i", 0x0, "v", 0x0, "e"
	DCB	0x0, "d", 0x0, " ", 0x0, "X", 0x0, "O", 0x0, "F", 0x0, "F"
	DCB	0x0, 0xd, 0x0, 0xa, 0x0, 0x0, 0x0	; `string'

  00000			 AREA	 |.rdata|, DATA, READONLY
|??_C@_1HG@EGFFDKNF@?$AAA?$AAf?$AAt?$AAe?$AAr?$AA?5?$AAH?$AAW?$AAG?$AAe?$AAt?$AAB?$AAy?$AAt?$AAe?$AAs?$AA?0?$AA?5?$AAF?$AAi?$AAf?$AAo?$AA?$CI?$AAR?$AA?$DN?$AA?$CF?$AAd?$AA?0?$AAW?$AA?$DN?$AA?$CF?$AAd@| DCB "A"
	DCB	0x0, "f", 0x0, "t", 0x0, "e", 0x0, "r", 0x0, " ", 0x0, "H"
	DCB	0x0, "W", 0x0, "G", 0x0, "e", 0x0, "t", 0x0, "B", 0x0, "y"
	DCB	0x0, "t", 0x0, "e", 0x0, "s", 0x0, ",", 0x0, " ", 0x0, "F"
	DCB	0x0, "i", 0x0, "f", 0x0, "o", 0x0, "(", 0x0, "R", 0x0, "="
	DCB	0x0, "%", 0x0, "d", 0x0, ",", 0x0, "W", 0x0, "=", 0x0, "%"
	DCB	0x0, "d", 0x0, ",", 0x0, "B", 0x0, "A", 0x0, "=", 0x0, "%"
	DCB	0x0, "d", 0x0, ",", 0x0, "L", 0x0, "=", 0x0, "%", 0x0, "d"
	DCB	0x0, ")", 0x0, " ", 0x0, "B", 0x0, "y", 0x0, "t", 0x0, "e"
	DCB	0x0, "R", 0x0, "e", 0x0, "a", 0x0, "d", 0x0, "=", 0x0, "%"
	DCB	0x0, "d", 0x0, 0xd, 0x0, 0xa, 0x0, 0x0, 0x0 ; `string'

  00000			 AREA	 |.rdata|, DATA, READONLY
|??_C@_1CE@NDNCGIIC@?$AAT?$AAo?$AAs?$AAs?$AAe?$AAd?$AA?5?$AA?$CF?$AAd?$AA?5?$AAb?$AAy?$AAt?$AAe?$AAs?$AA?$AN?$AA?6?$AA?$AA@| DCB "T"
	DCB	0x0, "o", 0x0, "s", 0x0, "s", 0x0, "e", 0x0, "d", 0x0, " "
	DCB	0x0, "%", 0x0, "d", 0x0, " ", 0x0, "b", 0x0, "y", 0x0, "t"
	DCB	0x0, "e", 0x0, "s", 0x0, 0xd, 0x0, 0xa, 0x0, 0x0, 0x0 ; `string'

  00000			 AREA	 |.rdata|, DATA, READONLY
|??_C@_1BG@NHAMELLH@?$AAR?$AAx?$AA?5?$AAE?$AAv?$AAe?$AAn?$AAt?$AA?$AN?$AA?6?$AA?$AA@| DCB "R"
	DCB	0x0, "x", 0x0, " ", 0x0, "E", 0x0, "v", 0x0, "e", 0x0, "n"
	DCB	0x0, "t", 0x0, 0xd, 0x0, 0xa, 0x0, 0x0, 0x0 ; `string'

  00000			 AREA	 |.rdata|, DATA, READONLY
|??_C@_1EM@PPCKGCIP@?$AAS?$AAe?$AAr?$AAi?$AAa?$AAl?$AAE?$AAv?$AAe?$AAn?$AAt?$AAH?$AAa?$AAn?$AAd?$AAl?$AAe?$AAr?$AA?0?$AA?5?$AAI?$AAn?$AAt?$AAe?$AAr?$AAr?$AAu?$AAp?$AAt?$AAs?$AA?5?$AA0@| DCB "S"
	DCB	0x0, "e", 0x0, "r", 0x0, "i", 0x0, "a", 0x0, "l", 0x0, "E"
	DCB	0x0, "v", 0x0, "e", 0x0, "n", 0x0, "t", 0x0, "H", 0x0, "a"
	DCB	0x0, "n", 0x0, "d", 0x0, "l", 0x0, "e", 0x0, "r", 0x0, ","
	DCB	0x0, " ", 0x0, "I", 0x0, "n", 0x0, "t", 0x0, "e", 0x0, "r"
	DCB	0x0, "r", 0x0, "u", 0x0, "p", 0x0, "t", 0x0, "s", 0x0, " "
	DCB	0x0, "0", 0x0, "x", 0x0, "%", 0x0, "X", 0x0, 0xd, 0x0, 0xa
	DCB	0x0, 0x0, 0x0				; `string'

  00000			 AREA	 |.rdata|, DATA, READONLY
|??_C@_1EI@MHGBBLDA@?$AAS?$AAe?$AAr?$AAi?$AAa?$AAl?$AAE?$AAv?$AAe?$AAn?$AAt?$AAH?$AAa?$AAn?$AAd?$AAl?$AAe?$AAr?$AA?0?$AA?5?$AAN?$AAo?$AA?5?$AAI?$AAn?$AAt?$AAe?$AAr?$AAr?$AAu?$AAp?$AAt@| DCB "S"
	DCB	0x0, "e", 0x0, "r", 0x0, "i", 0x0, "a", 0x0, "l", 0x0, "E"
	DCB	0x0, "v", 0x0, "e", 0x0, "n", 0x0, "t", 0x0, "H", 0x0, "a"
	DCB	0x0, "n", 0x0, "d", 0x0, "l", 0x0, "e", 0x0, "r", 0x0, ","
	DCB	0x0, " ", 0x0, "N", 0x0, "o", 0x0, " ", 0x0, "I", 0x0, "n"
	DCB	0x0, "t", 0x0, "e", 0x0, "r", 0x0, "r", 0x0, "u", 0x0, "p"
	DCB	0x0, "t", 0x0, ".", 0x0, 0xd, 0x0, 0xa, 0x0, 0x0, 0x0 ; `string'

  00000			 AREA	 |.rdata|, DATA, READONLY
|??_C@_1CE@JLPIMJPF@?$AAE?$AAx?$AAi?$AAt?$AAt?$AAi?$AAn?$AAg?$AA?5?$AAt?$AAh?$AAr?$AAe?$AAa?$AAd?$AA?$AN?$AA?6?$AA?$AA@| DCB "E"
	DCB	0x0, "x", 0x0, "i", 0x0, "t", 0x0, "t", 0x0, "i", 0x0, "n"
	DCB	0x0, "g", 0x0, " ", 0x0, "t", 0x0, "h", 0x0, "r", 0x0, "e"
	DCB	0x0, "a", 0x0, "d", 0x0, 0xd, 0x0, 0xa, 0x0, 0x0, 0x0 ; `string'

  00000			 AREA	 |.rdata|, DATA, READONLY
|??_C@_1EE@PGFICLOP@?$AA?$CL?$AAS?$AAe?$AAr?$AAi?$AAa?$AAl?$AAE?$AAv?$AAe?$AAn?$AAt?$AAH?$AAa?$AAn?$AAd?$AAl?$AAe?$AAr?$AA?0?$AA?5?$AAp?$AAH?$AAe?$AAa?$AAd?$AA?5?$AA0?$AAx?$AA?$CF?$AAX?$AA?$AN@| DCB "+"
	DCB	0x0, "S", 0x0, "e", 0x0, "r", 0x0, "i", 0x0, "a", 0x0, "l"
	DCB	0x0, "E", 0x0, "v", 0x0, "e", 0x0, "n", 0x0, "t", 0x0, "H"
	DCB	0x0, "a", 0x0, "n", 0x0, "d", 0x0, "l", 0x0, "e", 0x0, "r"
	DCB	0x0, ",", 0x0, " ", 0x0, "p", 0x0, "H", 0x0, "e", 0x0, "a"
	DCB	0x0, "d", 0x0, " ", 0x0, "0", 0x0, "x", 0x0, "%", 0x0, "X"
	DCB	0x0, 0xd, 0x0, 0xa, 0x0, 0x0, 0x0	; `string'

  00000			 AREA	 |.xdata|, DATA
|$T41459| DCD	0xffffff90
; Function compile flags: /Odtp

  005bc			 AREA	 |.text|, CODE, ARM

  005bc	00000000	 DCD         |__GSHandlerCheck|
  005c0	00000000	 DCD         |$T41459|

  005c4		 |SerialEventHandler| PROC

; 245  : {

  005c4		 |$LN73@SerialEven|
  005c4	e1a0c00d	 mov         r12, sp
  005c8	e92d0001	 stmdb       sp!, {r0}
  005cc	e92d5000	 stmdb       sp!, {r12, lr}
  005d0	e24dd0a4	 sub         sp, sp, #0xA4
  005d4		 |$M41460|
  005d4	e59f3b2c	 ldr         r3, [pc, #0xB2C]
  005d8	e5933000	 ldr         r3, [r3]
  005dc	e58d3040	 str         r3, [sp, #0x40]

; 246  :     PHW_VTBL            pFuncTbl = pSerialHead->pHWObj->pFuncTbl;

  005e0	e59d30ac	 ldr         r3, [sp, #0xAC]
  005e4	e2833028	 add         r3, r3, #0x28
  005e8	e5933000	 ldr         r3, [r3]
  005ec	e2833008	 add         r3, r3, #8
  005f0	e5933000	 ldr         r3, [r3]
  005f4	e58d3014	 str         r3, [sp, #0x14]

; 247  :     PVOID               pHWHead = pSerialHead->pHWHead;

  005f8	e59d30ac	 ldr         r3, [sp, #0xAC]
  005fc	e283302c	 add         r3, r3, #0x2C
  00600	e5933000	 ldr         r3, [r3]
  00604	e58d3020	 str         r3, [sp, #0x20]

; 248  :     ULONG               CharIndex;
; 249  :     ULONG               RoomLeft = 0;

  00608	e3a03000	 mov         r3, #0
  0060c	e58d301c	 str         r3, [sp, #0x1C]

; 250  :     ULONG               TotalLeft = 0;

  00610	e3a03000	 mov         r3, #0
  00614	e58d3010	 str         r3, [sp, #0x10]

; 251  :     INTERRUPT_TYPE      it = INTR_NONE;

  00618	e3a03000	 mov         r3, #0
  0061c	e58d300c	 str         r3, [sp, #0xC]

; 252  :     BOOL                RxDataAvail = FALSE;

  00620	e3a03000	 mov         r3, #0
  00624	e58d3008	 str         r3, [sp, #8]

; 253  : 
; 254  :     DEBUGMSG (ZONE_THREAD, (TEXT("+SerialEventHandler, pHead 0x%X\r\n"),
; 255  :                             pSerialHead));

  00628	e59f3a98	 ldr         r3, [pc, #0xA98]
  0062c	e5933440	 ldr         r3, [r3, #0x440]
  00630	e3130040	 tst         r3, #0x40
  00634	0a000005	 beq         |$LN35@SerialEven|
  00638	e59d10ac	 ldr         r1, [sp, #0xAC]
  0063c	e59f0ac0	 ldr         r0, [pc, #0xAC0]
  00640	eb000000	 bl          NKDbgPrintfW
  00644	e3a03001	 mov         r3, #1
  00648	e58d304c	 str         r3, [sp, #0x4C]
  0064c	ea000001	 b           |$LN36@SerialEven|
  00650		 |$LN35@SerialEven|
  00650	e3a03000	 mov         r3, #0
  00654	e58d304c	 str         r3, [sp, #0x4C]
  00658		 |$LN36@SerialEven|

; 256  : 
; 257  :     if ( pSerialHead->KillRxThread ||
; 258  :          !pSerialHead->hSerialEvent ) {

  00658	e59d30ac	 ldr         r3, [sp, #0xAC]
  0065c	e2833094	 add         r3, r3, #0x94
  00660	e5933000	 ldr         r3, [r3]
  00664	e3130001	 tst         r3, #1
  00668	1a000004	 bne         |$LN31@SerialEven|
  0066c	e59d30ac	 ldr         r3, [sp, #0xAC]
  00670	e2833030	 add         r3, r3, #0x30
  00674	e5933000	 ldr         r3, [r3]
  00678	e3530000	 cmp         r3, #0
  0067c	1a000010	 bne         |$LN32@SerialEven|
  00680		 |$LN31@SerialEven|

; 259  :         DEBUGMSG (ZONE_THREAD, (TEXT("Exitting thread\r\n")));

  00680	e59f3a40	 ldr         r3, [pc, #0xA40]
  00684	e5933440	 ldr         r3, [r3, #0x440]
  00688	e3130040	 tst         r3, #0x40
  0068c	0a000004	 beq         |$LN37@SerialEven|
  00690	e59f0a68	 ldr         r0, [pc, #0xA68]
  00694	eb000000	 bl          NKDbgPrintfW
  00698	e3a03001	 mov         r3, #1
  0069c	e58d3050	 str         r3, [sp, #0x50]
  006a0	ea000001	 b           |$LN38@SerialEven|
  006a4		 |$LN37@SerialEven|
  006a4	e3a03000	 mov         r3, #0
  006a8	e58d3050	 str         r3, [sp, #0x50]
  006ac		 |$LN38@SerialEven|

; 260  :         SetEvent(pSerialHead->hKillDispatchThread);

  006ac	e59d30ac	 ldr         r3, [sp, #0xAC]
  006b0	e2833038	 add         r3, r3, #0x38
  006b4	e5930000	 ldr         r0, [r3]
  006b8	eb000000	 bl          SetEvent

; 261  :         ExitThread(0);

  006bc	e3a00000	 mov         r0, #0
  006c0	eb000000	 bl          ExitThread
  006c4		 |$LN32@SerialEven|

; 262  :     }
; 263  : 
; 264  : // NOTE - This one is a little tricky.  If the only owner is a monitoring task
; 265  : // then I don't have an owner for read/write, yet I might be in this routine
; 266  : // due to a change in line status.  Lets just do the best we can and increment
; 267  : // the count for the access owner if available.
; 268  :     if ( pSerialHead->pAccessOwner )

  006c4	e59d30ac	 ldr         r3, [sp, #0xAC]
  006c8	e2833c01	 add         r3, r3, #1, 24
  006cc	e5933000	 ldr         r3, [r3]
  006d0	e3530000	 cmp         r3, #0
  006d4	0a000004	 beq         |$LN30@SerialEven|

; 269  :         COM_INC_USAGE_CNT(pSerialHead->pAccessOwner);

  006d8	e59d30ac	 ldr         r3, [sp, #0xAC]
  006dc	e2833c01	 add         r3, r3, #1, 24
  006e0	e5933000	 ldr         r3, [r3]
  006e4	e283000c	 add         r0, r3, #0xC
  006e8	eb000000	 bl          InterlockedIncrement
  006ec		 |$LN30@SerialEven|
  006ec		 |$LN29@SerialEven|

; 270  : 
; 271  :     while ( 1 ) {
; 272  : 
; 273  :         if ( !(it = pFuncTbl->HWGetIntrType(pHWHead)) ) {

  006ec	e59d0020	 ldr         r0, [sp, #0x20]
  006f0	e59d3014	 ldr         r3, [sp, #0x14]
  006f4	e2833014	 add         r3, r3, #0x14
  006f8	e5933000	 ldr         r3, [r3]
  006fc	e1a0e00f	 mov         lr, pc
  00700	e12fff13	 bx          r3
  00704	e58d0054	 str         r0, [sp, #0x54]
  00708	e59d3054	 ldr         r3, [sp, #0x54]
  0070c	e58d300c	 str         r3, [sp, #0xC]
  00710	e59d300c	 ldr         r3, [sp, #0xC]
  00714	e3530000	 cmp         r3, #0
  00718	1a00000b	 bne         |$LN27@SerialEven|

; 274  :             DEBUGMSG (ZONE_THREAD,
; 275  :                       (TEXT("SerialEventHandler, No Interrupt.\r\n")));

  0071c	e59f39a4	 ldr         r3, [pc, #0x9A4]
  00720	e5933440	 ldr         r3, [r3, #0x440]
  00724	e3130040	 tst         r3, #0x40
  00728	0a000004	 beq         |$LN39@SerialEven|
  0072c	e59f09c8	 ldr         r0, [pc, #0x9C8]
  00730	eb000000	 bl          NKDbgPrintfW
  00734	e3a03001	 mov         r3, #1
  00738	e58d3058	 str         r3, [sp, #0x58]
  0073c	ea000001	 b           |$LN40@SerialEven|
  00740		 |$LN39@SerialEven|
  00740	e3a03000	 mov         r3, #0
  00744	e58d3058	 str         r3, [sp, #0x58]
  00748		 |$LN40@SerialEven|

; 276  :             break;

  00748	ea000230	 b           |$LN28@SerialEven|
  0074c		 |$LN27@SerialEven|

; 277  :         }
; 278  : 
; 279  :         DEBUGMSG (ZONE_THREAD,
; 280  :                   (TEXT("SerialEventHandler, Interrupts 0x%X\r\n"), it));

  0074c	e59f3974	 ldr         r3, [pc, #0x974]
  00750	e5933440	 ldr         r3, [r3, #0x440]
  00754	e3130040	 tst         r3, #0x40
  00758	0a000005	 beq         |$LN41@SerialEven|
  0075c	e59d100c	 ldr         r1, [sp, #0xC]
  00760	e59f0990	 ldr         r0, [pc, #0x990]
  00764	eb000000	 bl          NKDbgPrintfW
  00768	e3a03001	 mov         r3, #1
  0076c	e58d305c	 str         r3, [sp, #0x5C]
  00770	ea000001	 b           |$LN42@SerialEven|
  00774		 |$LN41@SerialEven|
  00774	e3a03000	 mov         r3, #0
  00778	e58d305c	 str         r3, [sp, #0x5C]
  0077c		 |$LN42@SerialEven|

; 281  :         if ( it & INTR_RX ) {

  0077c	e59d300c	 ldr         r3, [sp, #0xC]
  00780	e3130002	 tst         r3, #2
  00784	0a0001e2	 beq         |$LN26@SerialEven|

; 282  :             // It's read data event. Optimize the read by reading chunks
; 283  :             // if the user has not specified using xflow control
; 284  :             // or event/error/eof characters. Ack the receive,
; 285  :             // unmask the interrupt, get the current data pointer
; 286  :             // and see if data is available.
; 287  :             // Note: We have to copy RxRead and RxWrite index to local in order to make it atomic.
; 288  :             register DWORD RxWIndex=RxWrite(pSerialHead), RxRIndex=RxRead(pSerialHead);

  00788	e59d30ac	 ldr         r3, [sp, #0xAC]
  0078c	e28330a0	 add         r3, r3, #0xA0
  00790	e5933000	 ldr         r3, [r3]
  00794	e58d3024	 str         r3, [sp, #0x24]
  00798	e59d30ac	 ldr         r3, [sp, #0xAC]
  0079c	e283309c	 add         r3, r3, #0x9C
  007a0	e5933000	 ldr         r3, [r3]
  007a4	e58d3028	 str         r3, [sp, #0x28]

; 289  : 
; 290  :             DEBUGMSG (ZONE_THREAD|ZONE_READ , (TEXT("Rx Event\r\n")));

  007a8	e59f3918	 ldr         r3, [pc, #0x918]
  007ac	e5933440	 ldr         r3, [r3, #0x440]
  007b0	e2032040	 and         r2, r3, #0x40
  007b4	e59f390c	 ldr         r3, [pc, #0x90C]
  007b8	e5933440	 ldr         r3, [r3, #0x440]
  007bc	e2033004	 and         r3, r3, #4
  007c0	e1923003	 orrs        r3, r2, r3
  007c4	0a000004	 beq         |$LN43@SerialEven|
  007c8	e59f0924	 ldr         r0, [pc, #0x924]
  007cc	eb000000	 bl          NKDbgPrintfW
  007d0	e3a03001	 mov         r3, #1
  007d4	e58d3060	 str         r3, [sp, #0x60]
  007d8	ea000001	 b           |$LN44@SerialEven|
  007dc		 |$LN43@SerialEven|
  007dc	e3a03000	 mov         r3, #0
  007e0	e58d3060	 str         r3, [sp, #0x60]
  007e4		 |$LN44@SerialEven|

; 291  : 
; 292  :             if ( RxRIndex == 0 ) {

  007e4	e59d3028	 ldr         r3, [sp, #0x28]
  007e8	e3530000	 cmp         r3, #0
  007ec	1a000007	 bne         |$LN25@SerialEven|

; 293  :                 // have to leave one byte free.
; 294  :                 RoomLeft = RxLength(pSerialHead) - RxWIndex - 1;

  007f0	e59d30ac	 ldr         r3, [sp, #0xAC]
  007f4	e28330a4	 add         r3, r3, #0xA4
  007f8	e5932000	 ldr         r2, [r3]
  007fc	e59d3024	 ldr         r3, [sp, #0x24]
  00800	e0423003	 sub         r3, r2, r3
  00804	e2433001	 sub         r3, r3, #1
  00808	e58d301c	 str         r3, [sp, #0x1C]

; 295  :             } else {

  0080c	ea000005	 b           |$LN24@SerialEven|
  00810		 |$LN25@SerialEven|

; 296  :                 RoomLeft = RxLength(pSerialHead) - RxWIndex;

  00810	e59d30ac	 ldr         r3, [sp, #0xAC]
  00814	e28330a4	 add         r3, r3, #0xA4
  00818	e5932000	 ldr         r2, [r3]
  0081c	e59d3024	 ldr         r3, [sp, #0x24]
  00820	e0423003	 sub         r3, r2, r3
  00824	e58d301c	 str         r3, [sp, #0x1C]
  00828		 |$LN24@SerialEven|

; 297  :             }
; 298  :             if ( RxRIndex > RxWIndex ) {

  00828	e59d2028	 ldr         r2, [sp, #0x28]
  0082c	e59d3024	 ldr         r3, [sp, #0x24]
  00830	e1520003	 cmp         r2, r3
  00834	9a000004	 bls         |$LN23@SerialEven|

; 299  :                 RoomLeft = RxRIndex - RxWIndex - 1;

  00838	e59d2028	 ldr         r2, [sp, #0x28]
  0083c	e59d3024	 ldr         r3, [sp, #0x24]
  00840	e0423003	 sub         r3, r2, r3
  00844	e2433001	 sub         r3, r3, #1
  00848	e58d301c	 str         r3, [sp, #0x1C]
  0084c		 |$LN23@SerialEven|

; 300  :             }
; 301  :             if ( RoomLeft ) {

  0084c	e59d301c	 ldr         r3, [sp, #0x1C]
  00850	e3530000	 cmp         r3, #0
  00854	0a000017	 beq         |$LN22@SerialEven|

; 302  :                 pSerialHead->DroppedBytesPDD +=
; 303  :                 pFuncTbl->HWRxIntrHandler(pHWHead,
; 304  :                                           RxBuffWrite(pSerialHead),
; 305  :                                           &RoomLeft);

  00858	e28d201c	 add         r2, sp, #0x1C
  0085c	e59d30ac	 ldr         r3, [sp, #0xAC]
  00860	e28310ac	 add         r1, r3, #0xAC
  00864	e59d30ac	 ldr         r3, [sp, #0xAC]
  00868	e28330a0	 add         r3, r3, #0xA0
  0086c	e5911000	 ldr         r1, [r1]
  00870	e5933000	 ldr         r3, [r3]
  00874	e0811003	 add         r1, r1, r3
  00878	e59d0020	 ldr         r0, [sp, #0x20]
  0087c	e59d3014	 ldr         r3, [sp, #0x14]
  00880	e2833018	 add         r3, r3, #0x18
  00884	e5933000	 ldr         r3, [r3]
  00888	e1a0e00f	 mov         lr, pc
  0088c	e12fff13	 bx          r3
  00890	e58d0064	 str         r0, [sp, #0x64]
  00894	e59d30ac	 ldr         r3, [sp, #0xAC]
  00898	e283304c	 add         r3, r3, #0x4C
  0089c	e5932000	 ldr         r2, [r3]
  008a0	e59d3064	 ldr         r3, [sp, #0x64]
  008a4	e0822003	 add         r2, r2, r3
  008a8	e59d30ac	 ldr         r3, [sp, #0xAC]
  008ac	e283304c	 add         r3, r3, #0x4C
  008b0	e5832000	 str         r2, [r3]

; 306  :             } else {

  008b4	ea000032	 b           |$LN21@SerialEven|
  008b8		 |$LN22@SerialEven|

; 307  :                 BYTE    TempBuf[16];
; 308  :                 RoomLeft = 16;

  008b8	e3a03010	 mov         r3, #0x10
  008bc	e58d301c	 str         r3, [sp, #0x1C]

; 309  :                 pFuncTbl->HWRxIntrHandler(pHWHead,
; 310  :                                           TempBuf,
; 311  :                                           &RoomLeft);

  008c0	e28d201c	 add         r2, sp, #0x1C
  008c4	e28d102c	 add         r1, sp, #0x2C
  008c8	e59d0020	 ldr         r0, [sp, #0x20]
  008cc	e59d3014	 ldr         r3, [sp, #0x14]
  008d0	e2833018	 add         r3, r3, #0x18
  008d4	e5933000	 ldr         r3, [r3]
  008d8	e1a0e00f	 mov         lr, pc
  008dc	e12fff13	 bx          r3

; 312  : 
; 313  :                 pSerialHead->DroppedBytesMDD += RoomLeft;

  008e0	e59d30ac	 ldr         r3, [sp, #0xAC]
  008e4	e2833048	 add         r3, r3, #0x48
  008e8	e5932000	 ldr         r2, [r3]
  008ec	e59d301c	 ldr         r3, [sp, #0x1C]
  008f0	e0822003	 add         r2, r2, r3
  008f4	e59d30ac	 ldr         r3, [sp, #0xAC]
  008f8	e2833048	 add         r3, r3, #0x48
  008fc	e5832000	 str         r2, [r3]

; 314  :                 DEBUGMSG (ZONE_WARN|ZONE_READ, (TEXT("Tossed %d bytes\r\n"),
; 315  :                                                 RoomLeft));

  00900	e59f37c0	 ldr         r3, [pc, #0x7C0]
  00904	e5933440	 ldr         r3, [r3, #0x440]
  00908	e2032901	 and         r2, r3, #1, 18
  0090c	e59f37b4	 ldr         r3, [pc, #0x7B4]
  00910	e5933440	 ldr         r3, [r3, #0x440]
  00914	e2033004	 and         r3, r3, #4
  00918	e1923003	 orrs        r3, r2, r3
  0091c	0a000005	 beq         |$LN45@SerialEven|
  00920	e59d101c	 ldr         r1, [sp, #0x1C]
  00924	e59f07c4	 ldr         r0, [pc, #0x7C4]
  00928	eb000000	 bl          NKDbgPrintfW
  0092c	e3a03001	 mov         r3, #1
  00930	e58d3068	 str         r3, [sp, #0x68]
  00934	ea000001	 b           |$LN46@SerialEven|
  00938		 |$LN45@SerialEven|
  00938	e3a03000	 mov         r3, #0
  0093c	e58d3068	 str         r3, [sp, #0x68]
  00940		 |$LN46@SerialEven|

; 316  :                 RoomLeft = 0;

  00940	e3a03000	 mov         r3, #0
  00944	e58d301c	 str         r3, [sp, #0x1C]
  00948		 |$LN20@SerialEven|

; 317  :                 //InterlockedOR.
; 318  :                 {
; 319  :                     DWORD originalValue ;
; 320  :                     do {
; 321  :                         originalValue  =  pSerialHead->dwMddErrors ;                        

  00948	e59d30ac	 ldr         r3, [sp, #0xAC]
  0094c	e2833f41	 add         r3, r3, #0x41, 30
  00950	e5933000	 ldr         r3, [r3]
  00954	e58d303c	 str         r3, [sp, #0x3C]

; 322  :                     } while(originalValue != InterlockedCompareExchange((LPLONG)&pSerialHead->dwMddErrors, (LONG)(originalValue|CE_RXOVER),(LONG)originalValue));

  00958	e59d203c	 ldr         r2, [sp, #0x3C]
  0095c	e59d303c	 ldr         r3, [sp, #0x3C]
  00960	e3831001	 orr         r1, r3, #1
  00964	e59d30ac	 ldr         r3, [sp, #0xAC]
  00968	e2830f41	 add         r0, r3, #0x41, 30
  0096c	eb000000	 bl          InterlockedCompareExchange
  00970	e58d006c	 str         r0, [sp, #0x6C]
  00974	e59d203c	 ldr         r2, [sp, #0x3C]
  00978	e59d306c	 ldr         r3, [sp, #0x6C]
  0097c	e1520003	 cmp         r2, r3
  00980	1afffff0	 bne         |$LN20@SerialEven|
  00984		 |$LN21@SerialEven|

; 323  :                 }
; 324  :                 
; 325  :             }
; 326  : 
; 327  :             DEBUGMSG (ZONE_READ ,
; 328  :                       (TEXT("After HWGetBytes, Fifo(R=%d,W=%d,BA=%d,L=%d) ByteRead=%d\r\n"),
; 329  :                        RxRead(pSerialHead), RxWrite(pSerialHead),
; 330  :                        RxBytesAvail(pSerialHead), RxLength(pSerialHead),
; 331  :                        RoomLeft));

  00984	e59f373c	 ldr         r3, [pc, #0x73C]
  00988	e5933440	 ldr         r3, [r3, #0x440]
  0098c	e3130004	 tst         r3, #4
  00990	0a000014	 beq         |$LN47@SerialEven|
  00994	e59d00ac	 ldr         r0, [sp, #0xAC]
  00998	eb000000	 bl          RxBytesAvail
  0099c	e58d0070	 str         r0, [sp, #0x70]
  009a0	e59d301c	 ldr         r3, [sp, #0x1C]
  009a4	e58d3004	 str         r3, [sp, #4]
  009a8	e59d30ac	 ldr         r3, [sp, #0xAC]
  009ac	e28330a4	 add         r3, r3, #0xA4
  009b0	e5933000	 ldr         r3, [r3]
  009b4	e58d3000	 str         r3, [sp]
  009b8	e59d3070	 ldr         r3, [sp, #0x70]
  009bc	e59d20ac	 ldr         r2, [sp, #0xAC]
  009c0	e28220a0	 add         r2, r2, #0xA0
  009c4	e5922000	 ldr         r2, [r2]
  009c8	e59d10ac	 ldr         r1, [sp, #0xAC]
  009cc	e281109c	 add         r1, r1, #0x9C
  009d0	e5911000	 ldr         r1, [r1]
  009d4	e59f0710	 ldr         r0, [pc, #0x710]
  009d8	eb000000	 bl          NKDbgPrintfW
  009dc	e3a03001	 mov         r3, #1
  009e0	e58d3074	 str         r3, [sp, #0x74]
  009e4	ea000001	 b           |$LN48@SerialEven|
  009e8		 |$LN47@SerialEven|
  009e8	e3a03000	 mov         r3, #0
  009ec	e58d3074	 str         r3, [sp, #0x74]
  009f0		 |$LN48@SerialEven|

; 332  : 
; 333  : 
; 334  :             // If flow control enabled then we need to scan for XON/XOFF
; 335  :             // characters
; 336  :             if ( pSerialHead->XFlow ) {

  009f0	e59d30ac	 ldr         r3, [sp, #0xAC]
  009f4	e2833094	 add         r3, r3, #0x94
  009f8	e5933000	 ldr         r3, [r3]
  009fc	e3130002	 tst         r3, #2
  00a00	0a000088	 beq         |$LN17@SerialEven|

; 337  :                 for ( CharIndex=0; CharIndex < RoomLeft; ) {

  00a04	e3a03000	 mov         r3, #0
  00a08	e58d3018	 str         r3, [sp, #0x18]
  00a0c		 |$LN70@SerialEven|
  00a0c		 |$LN69@SerialEven|
  00a0c		 |$LN16@SerialEven|
  00a0c	e59d2018	 ldr         r2, [sp, #0x18]
  00a10	e59d301c	 ldr         r3, [sp, #0x1C]
  00a14	e1520003	 cmp         r2, r3
  00a18	2a000082	 bcs         |$LN15@SerialEven|

; 338  :                     if ( RxBuffWrite(pSerialHead)[CharIndex] ==
; 339  :                          pSerialHead->DCB.XoffChar ) {

  00a1c	e59d30ac	 ldr         r3, [sp, #0xAC]
  00a20	e28320ac	 add         r2, r3, #0xAC
  00a24	e59d30ac	 ldr         r3, [sp, #0xAC]
  00a28	e28330a0	 add         r3, r3, #0xA0
  00a2c	e5922000	 ldr         r2, [r2]
  00a30	e5933000	 ldr         r3, [r3]
  00a34	e0822003	 add         r2, r2, r3
  00a38	e59d3018	 ldr         r3, [sp, #0x18]
  00a3c	e0823003	 add         r3, r2, r3
  00a40	e5d33000	 ldrb        r3, [r3]
  00a44	e1a02003	 mov         r2, r3
  00a48	e59d30ac	 ldr         r3, [sp, #0xAC]
  00a4c	e2833076	 add         r3, r3, #0x76
  00a50	e1d330d0	 ldrsb       r3, [r3]
  00a54	e1520003	 cmp         r2, r3
  00a58	1a00002d	 bne         |$LN14@SerialEven|

; 340  :                         DEBUGMSG (ZONE_FLOW, (TEXT("Received XOFF\r\n")));

  00a5c	e59f3664	 ldr         r3, [pc, #0x664]
  00a60	e5933440	 ldr         r3, [r3, #0x440]
  00a64	e3130c02	 tst         r3, #2, 24
  00a68	0a000004	 beq         |$LN49@SerialEven|
  00a6c	e59f0674	 ldr         r0, [pc, #0x674]
  00a70	eb000000	 bl          NKDbgPrintfW
  00a74	e3a03001	 mov         r3, #1
  00a78	e58d3078	 str         r3, [sp, #0x78]
  00a7c	ea000001	 b           |$LN50@SerialEven|
  00a80		 |$LN49@SerialEven|
  00a80	e3a03000	 mov         r3, #0
  00a84	e58d3078	 str         r3, [sp, #0x78]
  00a88		 |$LN50@SerialEven|

; 341  : 
; 342  :                         pSerialHead->StopXmit = 1;

  00a88	e59d30ac	 ldr         r3, [sp, #0xAC]
  00a8c	e2833094	 add         r3, r3, #0x94
  00a90	e5933000	 ldr         r3, [r3]
  00a94	e3832004	 orr         r2, r3, #4
  00a98	e59d30ac	 ldr         r3, [sp, #0xAC]
  00a9c	e2833094	 add         r3, r3, #0x94
  00aa0	e5832000	 str         r2, [r3]

; 343  :                         memmove (RxBuffWrite(pSerialHead)+CharIndex,
; 344  :                                  RxBuffWrite(pSerialHead)+CharIndex+1,
; 345  :                                  RoomLeft - CharIndex);

  00aa4	e59d201c	 ldr         r2, [sp, #0x1C]
  00aa8	e59d3018	 ldr         r3, [sp, #0x18]
  00aac	e0422003	 sub         r2, r2, r3
  00ab0	e59d30ac	 ldr         r3, [sp, #0xAC]
  00ab4	e28310ac	 add         r1, r3, #0xAC
  00ab8	e59d30ac	 ldr         r3, [sp, #0xAC]
  00abc	e28330a0	 add         r3, r3, #0xA0
  00ac0	e5911000	 ldr         r1, [r1]
  00ac4	e5933000	 ldr         r3, [r3]
  00ac8	e0811003	 add         r1, r1, r3
  00acc	e59d3018	 ldr         r3, [sp, #0x18]
  00ad0	e0813003	 add         r3, r1, r3
  00ad4	e2831001	 add         r1, r3, #1
  00ad8	e59d30ac	 ldr         r3, [sp, #0xAC]
  00adc	e28300ac	 add         r0, r3, #0xAC
  00ae0	e59d30ac	 ldr         r3, [sp, #0xAC]
  00ae4	e28330a0	 add         r3, r3, #0xA0
  00ae8	e5900000	 ldr         r0, [r0]
  00aec	e5933000	 ldr         r3, [r3]
  00af0	e0800003	 add         r0, r0, r3
  00af4	e59d3018	 ldr         r3, [sp, #0x18]
  00af8	e0800003	 add         r0, r0, r3
  00afc	eb000000	 bl          memmove

; 346  :                         RoomLeft--;

  00b00	e59d301c	 ldr         r3, [sp, #0x1C]
  00b04	e2433001	 sub         r3, r3, #1
  00b08	e58d301c	 str         r3, [sp, #0x1C]

; 347  :                         continue;

  00b0c	eaffffbe	 b           |$LN16@SerialEven|

; 348  :                     } else if ( RxBuffWrite(pSerialHead)[CharIndex] ==

  00b10	ea000040	 b           |$LN13@SerialEven|
  00b14		 |$LN14@SerialEven|

; 349  :                                 pSerialHead->DCB.XonChar ) {

  00b14	e59d30ac	 ldr         r3, [sp, #0xAC]
  00b18	e28320ac	 add         r2, r3, #0xAC
  00b1c	e59d30ac	 ldr         r3, [sp, #0xAC]
  00b20	e28330a0	 add         r3, r3, #0xA0
  00b24	e5922000	 ldr         r2, [r2]
  00b28	e5933000	 ldr         r3, [r3]
  00b2c	e0822003	 add         r2, r2, r3
  00b30	e59d3018	 ldr         r3, [sp, #0x18]
  00b34	e0823003	 add         r3, r2, r3
  00b38	e5d33000	 ldrb        r3, [r3]
  00b3c	e1a02003	 mov         r2, r3
  00b40	e59d30ac	 ldr         r3, [sp, #0xAC]
  00b44	e2833075	 add         r3, r3, #0x75
  00b48	e1d330d0	 ldrsb       r3, [r3]
  00b4c	e1520003	 cmp         r2, r3
  00b50	1a000030	 bne         |$LN12@SerialEven|

; 350  :                         pSerialHead->StopXmit = 0;

  00b54	e59d30ac	 ldr         r3, [sp, #0xAC]
  00b58	e2833094	 add         r3, r3, #0x94
  00b5c	e5932000	 ldr         r2, [r3]
  00b60	e3e03004	 mvn         r3, #4
  00b64	e0022003	 and         r2, r2, r3
  00b68	e59d30ac	 ldr         r3, [sp, #0xAC]
  00b6c	e2833094	 add         r3, r3, #0x94
  00b70	e5832000	 str         r2, [r3]

; 351  :                         DEBUGMSG (ZONE_FLOW, (TEXT("Received XON\r\n")));

  00b74	e59f354c	 ldr         r3, [pc, #0x54C]
  00b78	e5933440	 ldr         r3, [r3, #0x440]
  00b7c	e3130c02	 tst         r3, #2, 24
  00b80	0a000004	 beq         |$LN51@SerialEven|
  00b84	e59f0558	 ldr         r0, [pc, #0x558]
  00b88	eb000000	 bl          NKDbgPrintfW
  00b8c	e3a03001	 mov         r3, #1
  00b90	e58d307c	 str         r3, [sp, #0x7C]
  00b94	ea000001	 b           |$LN52@SerialEven|
  00b98		 |$LN51@SerialEven|
  00b98	e3a03000	 mov         r3, #0
  00b9c	e58d307c	 str         r3, [sp, #0x7C]
  00ba0		 |$LN52@SerialEven|

; 352  :                         memmove (RxBuffWrite(pSerialHead)+CharIndex,
; 353  :                                  RxBuffWrite(pSerialHead)+CharIndex+1,
; 354  :                                  RoomLeft - CharIndex);

  00ba0	e59d201c	 ldr         r2, [sp, #0x1C]
  00ba4	e59d3018	 ldr         r3, [sp, #0x18]
  00ba8	e0422003	 sub         r2, r2, r3
  00bac	e59d30ac	 ldr         r3, [sp, #0xAC]
  00bb0	e28310ac	 add         r1, r3, #0xAC
  00bb4	e59d30ac	 ldr         r3, [sp, #0xAC]
  00bb8	e28330a0	 add         r3, r3, #0xA0
  00bbc	e5911000	 ldr         r1, [r1]
  00bc0	e5933000	 ldr         r3, [r3]
  00bc4	e0811003	 add         r1, r1, r3
  00bc8	e59d3018	 ldr         r3, [sp, #0x18]
  00bcc	e0813003	 add         r3, r1, r3
  00bd0	e2831001	 add         r1, r3, #1
  00bd4	e59d30ac	 ldr         r3, [sp, #0xAC]
  00bd8	e28300ac	 add         r0, r3, #0xAC
  00bdc	e59d30ac	 ldr         r3, [sp, #0xAC]
  00be0	e28330a0	 add         r3, r3, #0xA0
  00be4	e5900000	 ldr         r0, [r0]
  00be8	e5933000	 ldr         r3, [r3]
  00bec	e0800003	 add         r0, r0, r3
  00bf0	e59d3018	 ldr         r3, [sp, #0x18]
  00bf4	e0800003	 add         r0, r0, r3
  00bf8	eb000000	 bl          memmove

; 355  :                         RoomLeft--;

  00bfc	e59d301c	 ldr         r3, [sp, #0x1C]
  00c00	e2433001	 sub         r3, r3, #1
  00c04	e58d301c	 str         r3, [sp, #0x1C]

; 356  :                         // We disabled TX on XOFF, so now we need to start sending
; 357  :                         // again. Easiest way is to pretend we saw a TX interrupt
; 358  :                         it |= INTR_TX;

  00c08	e59d300c	 ldr         r3, [sp, #0xC]
  00c0c	e3833004	 orr         r3, r3, #4
  00c10	e58d300c	 str         r3, [sp, #0xC]

; 359  :                         continue;

  00c14	eaffff7c	 b           |$LN69@SerialEven|
  00c18		 |$LN12@SerialEven|
  00c18		 |$LN13@SerialEven|

; 360  :                     }
; 361  :                     CharIndex++;

  00c18	e59d3018	 ldr         r3, [sp, #0x18]
  00c1c	e2833001	 add         r3, r3, #1
  00c20	e58d3018	 str         r3, [sp, #0x18]

; 362  :                 }

  00c24	eaffff78	 b           |$LN70@SerialEven|
  00c28		 |$LN15@SerialEven|
  00c28		 |$LN17@SerialEven|

; 363  :             }
; 364  : 
; 365  :             pSerialHead->RxBytes += RoomLeft;

  00c28	e59d30ac	 ldr         r3, [sp, #0xAC]
  00c2c	e2833050	 add         r3, r3, #0x50
  00c30	e5932000	 ldr         r2, [r3]
  00c34	e59d301c	 ldr         r3, [sp, #0x1C]
  00c38	e0822003	 add         r2, r2, r3
  00c3c	e59d30ac	 ldr         r3, [sp, #0xAC]
  00c40	e2833050	 add         r3, r3, #0x50
  00c44	e5832000	 str         r2, [r3]

; 366  :             RxWrite(pSerialHead) =
; 367  :                 (RxWrite(pSerialHead)+RoomLeft<RxLength(pSerialHead)? RxWrite(pSerialHead)+RoomLeft: RxWrite(pSerialHead)+RoomLeft-RxLength(pSerialHead));

  00c48	e59d30ac	 ldr         r3, [sp, #0xAC]
  00c4c	e28330a0	 add         r3, r3, #0xA0
  00c50	e5932000	 ldr         r2, [r3]
  00c54	e59d301c	 ldr         r3, [sp, #0x1C]
  00c58	e0822003	 add         r2, r2, r3
  00c5c	e59d30ac	 ldr         r3, [sp, #0xAC]
  00c60	e28330a4	 add         r3, r3, #0xA4
  00c64	e5933000	 ldr         r3, [r3]
  00c68	e1520003	 cmp         r2, r3
  00c6c	2a000006	 bcs         |$LN53@SerialEven|
  00c70	e59d30ac	 ldr         r3, [sp, #0xAC]
  00c74	e28330a0	 add         r3, r3, #0xA0
  00c78	e5932000	 ldr         r2, [r3]
  00c7c	e59d301c	 ldr         r3, [sp, #0x1C]
  00c80	e0823003	 add         r3, r2, r3
  00c84	e58d3080	 str         r3, [sp, #0x80]
  00c88	ea000009	 b           |$LN54@SerialEven|
  00c8c		 |$LN53@SerialEven|
  00c8c	e59d30ac	 ldr         r3, [sp, #0xAC]
  00c90	e28330a0	 add         r3, r3, #0xA0
  00c94	e5932000	 ldr         r2, [r3]
  00c98	e59d301c	 ldr         r3, [sp, #0x1C]
  00c9c	e0822003	 add         r2, r2, r3
  00ca0	e59d30ac	 ldr         r3, [sp, #0xAC]
  00ca4	e28330a4	 add         r3, r3, #0xA4
  00ca8	e5933000	 ldr         r3, [r3]
  00cac	e0423003	 sub         r3, r2, r3
  00cb0	e58d3080	 str         r3, [sp, #0x80]
  00cb4		 |$LN54@SerialEven|
  00cb4	e59d30ac	 ldr         r3, [sp, #0xAC]
  00cb8	e28320a0	 add         r2, r3, #0xA0
  00cbc	e59d3080	 ldr         r3, [sp, #0x80]
  00cc0	e5823000	 str         r3, [r2]

; 368  :             if ( RoomLeft ) {

  00cc4	e59d301c	 ldr         r3, [sp, #0x1C]
  00cc8	e3530000	 cmp         r3, #0
  00ccc	0a000001	 beq         |$LN11@SerialEven|

; 369  :                 RxDataAvail = TRUE;

  00cd0	e3a03001	 mov         r3, #1
  00cd4	e58d3008	 str         r3, [sp, #8]
  00cd8		 |$LN11@SerialEven|

; 370  :             }
; 371  : 
; 372  :             if ( IsIncreasedToFlowOff(pSerialHead)) {

  00cd8	e59d00ac	 ldr         r0, [sp, #0xAC]
  00cdc	eb000000	 bl          RxBytesAvail
  00ce0	e58d0084	 str         r0, [sp, #0x84]
  00ce4	e59d30ac	 ldr         r3, [sp, #0xAC]
  00ce8	e2833070	 add         r3, r3, #0x70
  00cec	e1d310b0	 ldrh        r1, [r3]
  00cf0	e59d30ac	 ldr         r3, [sp, #0xAC]
  00cf4	e28330a4	 add         r3, r3, #0xA4
  00cf8	e5932000	 ldr         r2, [r3]
  00cfc	e59d3084	 ldr         r3, [sp, #0x84]
  00d00	e0423003	 sub         r3, r2, r3
  00d04	e1510003	 cmp         r1, r3
  00d08	3a000081	 bcc         |$LN10@SerialEven|

; 373  :                 if ( (pSerialHead->DCB.fDtrControl == DTR_CONTROL_HANDSHAKE) && (!pSerialHead->DtrFlow)) {

  00d0c	e59d30ac	 ldr         r3, [sp, #0xAC]
  00d10	e2833068	 add         r3, r3, #0x68
  00d14	e5933000	 ldr         r3, [r3]
  00d18	e1a03d03	 mov         r3, r3, lsl #26
  00d1c	e1a03f23	 mov         r3, r3, lsr #30
  00d20	e3530002	 cmp         r3, #2
  00d24	1a000020	 bne         |$LN9@SerialEven|
  00d28	e59d30ac	 ldr         r3, [sp, #0xAC]
  00d2c	e2833094	 add         r3, r3, #0x94
  00d30	e5933000	 ldr         r3, [r3]
  00d34	e3130010	 tst         r3, #0x10
  00d38	1a00001b	 bne         |$LN9@SerialEven|

; 374  :                     DEBUGMSG (ZONE_READ|ZONE_FLOW,
; 375  :                               (TEXT("DTR_CONTROL_HANDSHAKE Clearing DTR\r\n")));

  00d3c	e59f3384	 ldr         r3, [pc, #0x384]
  00d40	e5933440	 ldr         r3, [r3, #0x440]
  00d44	e2032004	 and         r2, r3, #4
  00d48	e59f3378	 ldr         r3, [pc, #0x378]
  00d4c	e5933440	 ldr         r3, [r3, #0x440]
  00d50	e2033c02	 and         r3, r3, #2, 24
  00d54	e1923003	 orrs        r3, r2, r3
  00d58	0a000004	 beq         |$LN55@SerialEven|
  00d5c	e59f037c	 ldr         r0, [pc, #0x37C]
  00d60	eb000000	 bl          NKDbgPrintfW
  00d64	e3a03001	 mov         r3, #1
  00d68	e58d3088	 str         r3, [sp, #0x88]
  00d6c	ea000001	 b           |$LN56@SerialEven|
  00d70		 |$LN55@SerialEven|
  00d70	e3a03000	 mov         r3, #0
  00d74	e58d3088	 str         r3, [sp, #0x88]
  00d78		 |$LN56@SerialEven|

; 376  :                     pSerialHead->DtrFlow = 1;

  00d78	e59d30ac	 ldr         r3, [sp, #0xAC]
  00d7c	e2833094	 add         r3, r3, #0x94
  00d80	e5933000	 ldr         r3, [r3]
  00d84	e3832010	 orr         r2, r3, #0x10
  00d88	e59d30ac	 ldr         r3, [sp, #0xAC]
  00d8c	e2833094	 add         r3, r3, #0x94
  00d90	e5832000	 str         r2, [r3]

; 377  :                     pFuncTbl->HWClearDTR(pHWHead);

  00d94	e59d0020	 ldr         r0, [sp, #0x20]
  00d98	e59d3014	 ldr         r3, [sp, #0x14]
  00d9c	e2833034	 add         r3, r3, #0x34
  00da0	e5933000	 ldr         r3, [r3]
  00da4	e1a0e00f	 mov         lr, pc
  00da8	e12fff13	 bx          r3
  00dac		 |$LN9@SerialEven|

; 378  :                 }
; 379  :                 if ( (pSerialHead->DCB.fRtsControl == RTS_CONTROL_HANDSHAKE) && (!pSerialHead->RtsFlow)) {

  00dac	e59d30ac	 ldr         r3, [sp, #0xAC]
  00db0	e2833068	 add         r3, r3, #0x68
  00db4	e5933000	 ldr         r3, [r3]
  00db8	e1a03903	 mov         r3, r3, lsl #18
  00dbc	e1a03f23	 mov         r3, r3, lsr #30
  00dc0	e3530002	 cmp         r3, #2
  00dc4	1a000020	 bne         |$LN8@SerialEven|
  00dc8	e59d30ac	 ldr         r3, [sp, #0xAC]
  00dcc	e2833094	 add         r3, r3, #0x94
  00dd0	e5933000	 ldr         r3, [r3]
  00dd4	e3130020	 tst         r3, #0x20
  00dd8	1a00001b	 bne         |$LN8@SerialEven|

; 380  :                     DEBUGMSG (ZONE_READ|ZONE_FLOW,
; 381  :                               (TEXT("RTS_CONTROL_HANDSHAKE Clearing RTS\r\n")));

  00ddc	e59f32e4	 ldr         r3, [pc, #0x2E4]
  00de0	e5933440	 ldr         r3, [r3, #0x440]
  00de4	e2032004	 and         r2, r3, #4
  00de8	e59f32d8	 ldr         r3, [pc, #0x2D8]
  00dec	e5933440	 ldr         r3, [r3, #0x440]
  00df0	e2033c02	 and         r3, r3, #2, 24
  00df4	e1923003	 orrs        r3, r2, r3
  00df8	0a000004	 beq         |$LN57@SerialEven|
  00dfc	e59f02d8	 ldr         r0, [pc, #0x2D8]
  00e00	eb000000	 bl          NKDbgPrintfW
  00e04	e3a03001	 mov         r3, #1
  00e08	e58d308c	 str         r3, [sp, #0x8C]
  00e0c	ea000001	 b           |$LN58@SerialEven|
  00e10		 |$LN57@SerialEven|
  00e10	e3a03000	 mov         r3, #0
  00e14	e58d308c	 str         r3, [sp, #0x8C]
  00e18		 |$LN58@SerialEven|

; 382  :                     pSerialHead->RtsFlow = 1;

  00e18	e59d30ac	 ldr         r3, [sp, #0xAC]
  00e1c	e2833094	 add         r3, r3, #0x94
  00e20	e5933000	 ldr         r3, [r3]
  00e24	e3832020	 orr         r2, r3, #0x20
  00e28	e59d30ac	 ldr         r3, [sp, #0xAC]
  00e2c	e2833094	 add         r3, r3, #0x94
  00e30	e5832000	 str         r2, [r3]

; 383  :                     pFuncTbl->HWClearRTS(pHWHead);

  00e34	e59d0020	 ldr         r0, [sp, #0x20]
  00e38	e59d3014	 ldr         r3, [sp, #0x14]
  00e3c	e283303c	 add         r3, r3, #0x3C
  00e40	e5933000	 ldr         r3, [r3]
  00e44	e1a0e00f	 mov         lr, pc
  00e48	e12fff13	 bx          r3
  00e4c		 |$LN8@SerialEven|

; 384  :                 }
; 385  : 
; 386  :                 /* If Xon/Xoff flow control is desired. check the limit against
; 387  :                  * the remaining room and act accordingly.
; 388  :                  */
; 389  :                 if ( pSerialHead->DCB.fInX && !(pSerialHead->SentXoff)) {

  00e4c	e59d30ac	 ldr         r3, [sp, #0xAC]
  00e50	e2833068	 add         r3, r3, #0x68
  00e54	e5933000	 ldr         r3, [r3]
  00e58	e3130c02	 tst         r3, #2, 24
  00e5c	0a00002c	 beq         |$LN7@SerialEven|
  00e60	e59d30ac	 ldr         r3, [sp, #0xAC]
  00e64	e2833094	 add         r3, r3, #0x94
  00e68	e5933000	 ldr         r3, [r3]
  00e6c	e3130008	 tst         r3, #8
  00e70	1a000027	 bne         |$LN7@SerialEven|

; 390  :                     DEBUGMSG (ZONE_FLOW, (TEXT("Sending XOFF\r\n")));

  00e74	e59f324c	 ldr         r3, [pc, #0x24C]
  00e78	e5933440	 ldr         r3, [r3, #0x440]
  00e7c	e3130c02	 tst         r3, #2, 24
  00e80	0a000004	 beq         |$LN59@SerialEven|
  00e84	e59f024c	 ldr         r0, [pc, #0x24C]
  00e88	eb000000	 bl          NKDbgPrintfW
  00e8c	e3a03001	 mov         r3, #1
  00e90	e58d3090	 str         r3, [sp, #0x90]
  00e94	ea000001	 b           |$LN60@SerialEven|
  00e98		 |$LN59@SerialEven|
  00e98	e3a03000	 mov         r3, #0
  00e9c	e58d3090	 str         r3, [sp, #0x90]
  00ea0		 |$LN60@SerialEven|

; 391  :                     pFuncTbl->HWXmitComChar(pHWHead, pSerialHead->DCB.XoffChar);

  00ea0	e59d30ac	 ldr         r3, [sp, #0xAC]
  00ea4	e2833076	 add         r3, r3, #0x76
  00ea8	e1d330d0	 ldrsb       r3, [r3]
  00eac	e20310ff	 and         r1, r3, #0xFF
  00eb0	e59d0020	 ldr         r0, [sp, #0x20]
  00eb4	e59d3014	 ldr         r3, [sp, #0x14]
  00eb8	e2833054	 add         r3, r3, #0x54
  00ebc	e5933000	 ldr         r3, [r3]
  00ec0	e1a0e00f	 mov         lr, pc
  00ec4	e12fff13	 bx          r3

; 392  : 
; 393  :                     pSerialHead->SentXoff = 1;

  00ec8	e59d30ac	 ldr         r3, [sp, #0xAC]
  00ecc	e2833094	 add         r3, r3, #0x94
  00ed0	e5933000	 ldr         r3, [r3]
  00ed4	e3832008	 orr         r2, r3, #8
  00ed8	e59d30ac	 ldr         r3, [sp, #0xAC]
  00edc	e2833094	 add         r3, r3, #0x94
  00ee0	e5832000	 str         r2, [r3]

; 394  :                     if ( !pSerialHead->DCB.fTXContinueOnXoff ) {

  00ee4	e59d30ac	 ldr         r3, [sp, #0xAC]
  00ee8	e2833068	 add         r3, r3, #0x68
  00eec	e5933000	 ldr         r3, [r3]
  00ef0	e3130080	 tst         r3, #0x80
  00ef4	1a000006	 bne         |$LN6@SerialEven|

; 395  :                         pSerialHead->StopXmit = 1;

  00ef8	e59d30ac	 ldr         r3, [sp, #0xAC]
  00efc	e2833094	 add         r3, r3, #0x94
  00f00	e5933000	 ldr         r3, [r3]
  00f04	e3832004	 orr         r2, r3, #4
  00f08	e59d30ac	 ldr         r3, [sp, #0xAC]
  00f0c	e2833094	 add         r3, r3, #0x94
  00f10	e5832000	 str         r2, [r3]
  00f14		 |$LN6@SerialEven|
  00f14		 |$LN7@SerialEven|
  00f14		 |$LN10@SerialEven|
  00f14		 |$LN26@SerialEven|

; 396  :                     }
; 397  :                 }
; 398  :             }
; 399  :         }
; 400  : 
; 401  :         if ( it & INTR_TX ) {

  00f14	e59d300c	 ldr         r3, [sp, #0xC]
  00f18	e3130004	 tst         r3, #4
  00f1c	0a000010	 beq         |$LN5@SerialEven|

; 402  :             DEBUGMSG (ZONE_THREAD|ZONE_WRITE , (TEXT("Tx Event\r\n")));

  00f20	e59f31a0	 ldr         r3, [pc, #0x1A0]
  00f24	e5933440	 ldr         r3, [r3, #0x440]
  00f28	e2032040	 and         r2, r3, #0x40
  00f2c	e59f3194	 ldr         r3, [pc, #0x194]
  00f30	e5933440	 ldr         r3, [r3, #0x440]
  00f34	e2033008	 and         r3, r3, #8
  00f38	e1923003	 orrs        r3, r2, r3
  00f3c	0a000004	 beq         |$LN61@SerialEven|
  00f40	e59f018c	 ldr         r0, [pc, #0x18C]
  00f44	eb000000	 bl          NKDbgPrintfW
  00f48	e3a03001	 mov         r3, #1
  00f4c	e58d3094	 str         r3, [sp, #0x94]
  00f50	ea000001	 b           |$LN62@SerialEven|
  00f54		 |$LN61@SerialEven|
  00f54	e3a03000	 mov         r3, #0
  00f58	e58d3094	 str         r3, [sp, #0x94]
  00f5c		 |$LN62@SerialEven|

; 403  :             DoTxData( pSerialHead );

  00f5c	e59d00ac	 ldr         r0, [sp, #0xAC]
  00f60	eb000000	 bl          DoTxData
  00f64		 |$LN5@SerialEven|

; 404  :         }
; 405  : 
; 406  :         if ( (it & INTR_MODEM) ) {

  00f64	e59d300c	 ldr         r3, [sp, #0xC]
  00f68	e3130008	 tst         r3, #8
  00f6c	0a000011	 beq         |$LN4@SerialEven|

; 407  :             DEBUGMSG (ZONE_THREAD, (TEXT("Other Event, it:%x\r\n"), it));

  00f70	e59f3150	 ldr         r3, [pc, #0x150]
  00f74	e5933440	 ldr         r3, [r3, #0x440]
  00f78	e3130040	 tst         r3, #0x40
  00f7c	0a000005	 beq         |$LN63@SerialEven|
  00f80	e59d100c	 ldr         r1, [sp, #0xC]
  00f84	e59f0144	 ldr         r0, [pc, #0x144]
  00f88	eb000000	 bl          NKDbgPrintfW
  00f8c	e3a03001	 mov         r3, #1
  00f90	e58d3098	 str         r3, [sp, #0x98]
  00f94	ea000001	 b           |$LN64@SerialEven|
  00f98		 |$LN63@SerialEven|
  00f98	e3a03000	 mov         r3, #0
  00f9c	e58d3098	 str         r3, [sp, #0x98]
  00fa0		 |$LN64@SerialEven|

; 408  : 
; 409  :             /* Call low level status clean up code.
; 410  :              */
; 411  :             pFuncTbl->HWModemIntrHandler(pHWHead);

  00fa0	e59d0020	 ldr         r0, [sp, #0x20]
  00fa4	e59d3014	 ldr         r3, [sp, #0x14]
  00fa8	e2833020	 add         r3, r3, #0x20
  00fac	e5933000	 ldr         r3, [r3]
  00fb0	e1a0e00f	 mov         lr, pc
  00fb4	e12fff13	 bx          r3
  00fb8		 |$LN4@SerialEven|

; 412  :         }
; 413  : 
; 414  :         if ( it & INTR_LINE ) {

  00fb8	e59d300c	 ldr         r3, [sp, #0xC]
  00fbc	e3130001	 tst         r3, #1
  00fc0	0a000011	 beq         |$LN3@SerialEven|

; 415  :             DEBUGMSG (ZONE_THREAD, (TEXT("Line Event, it:%x\r\n"), it));

  00fc4	e59f30fc	 ldr         r3, [pc, #0xFC]
  00fc8	e5933440	 ldr         r3, [r3, #0x440]
  00fcc	e3130040	 tst         r3, #0x40
  00fd0	0a000005	 beq         |$LN65@SerialEven|
  00fd4	e59d100c	 ldr         r1, [sp, #0xC]
  00fd8	e59f00ec	 ldr         r0, [pc, #0xEC]
  00fdc	eb000000	 bl          NKDbgPrintfW
  00fe0	e3a03001	 mov         r3, #1
  00fe4	e58d309c	 str         r3, [sp, #0x9C]
  00fe8	ea000001	 b           |$LN66@SerialEven|
  00fec		 |$LN65@SerialEven|
  00fec	e3a03000	 mov         r3, #0
  00ff0	e58d309c	 str         r3, [sp, #0x9C]
  00ff4		 |$LN66@SerialEven|

; 416  : 
; 417  :             /* Call low level line status clean up code.
; 418  :              * Then unmask the interrupt
; 419  :              */
; 420  :             pFuncTbl->HWLineIntrHandler(pHWHead);

  00ff4	e59d0020	 ldr         r0, [sp, #0x20]
  00ff8	e59d3014	 ldr         r3, [sp, #0x14]
  00ffc	e2833024	 add         r3, r3, #0x24
  01000	e5933000	 ldr         r3, [r3]
  01004	e1a0e00f	 mov         lr, pc
  01008	e12fff13	 bx          r3
  0100c		 |$LN3@SerialEven|

; 421  :         }
; 422  :     }

  0100c	eafffdb6	 b           |$LN29@SerialEven|
  01010		 |$LN28@SerialEven|

; 423  : 
; 424  :     // We kept this till the end to optimize the above loop
; 425  :     if ( RxDataAvail ) {

  01010	e59d3008	 ldr         r3, [sp, #8]
  01014	e3530000	 cmp         r3, #0
  01018	0a000006	 beq         |$LN2@SerialEven|

; 426  :         // Signal COM_Read that bytes are available.
; 427  :         SetEvent(pSerialHead->hReadEvent);

  0101c	e59d30ac	 ldr         r3, [sp, #0xAC]
  01020	e2833034	 add         r3, r3, #0x34
  01024	e5930000	 ldr         r0, [r3]
  01028	eb000000	 bl          SetEvent

; 428  :         EvaluateEventFlag(pSerialHead, EV_RXCHAR);

  0102c	e3a01001	 mov         r1, #1
  01030	e59d00ac	 ldr         r0, [sp, #0xAC]
  01034	eb000000	 bl          EvaluateEventFlag
  01038		 |$LN2@SerialEven|

; 429  :     }
; 430  : 
; 431  :     DEBUGMSG (ZONE_THREAD ,
; 432  :               (TEXT("-SerialEventHandler, Fifo(R=%d,W=%d,L=%d)\r\n"),
; 433  :                RxRead(pSerialHead), RxWrite(pSerialHead),
; 434  :                RxLength(pSerialHead)));

  01038	e59f3088	 ldr         r3, [pc, #0x88]
  0103c	e5933440	 ldr         r3, [r3, #0x440]
  01040	e3130040	 tst         r3, #0x40
  01044	0a00000d	 beq         |$LN67@SerialEven|
  01048	e59d30ac	 ldr         r3, [sp, #0xAC]
  0104c	e28330a4	 add         r3, r3, #0xA4
  01050	e5933000	 ldr         r3, [r3]
  01054	e59d20ac	 ldr         r2, [sp, #0xAC]
  01058	e28220a0	 add         r2, r2, #0xA0
  0105c	e5922000	 ldr         r2, [r2]
  01060	e59d10ac	 ldr         r1, [sp, #0xAC]
  01064	e281109c	 add         r1, r1, #0x9C
  01068	e5911000	 ldr         r1, [r1]
  0106c	e59f0050	 ldr         r0, [pc, #0x50]
  01070	eb000000	 bl          NKDbgPrintfW
  01074	e3a03001	 mov         r3, #1
  01078	e58d30a0	 str         r3, [sp, #0xA0]
  0107c	ea000001	 b           |$LN68@SerialEven|
  01080		 |$LN67@SerialEven|
  01080	e3a03000	 mov         r3, #0
  01084	e58d30a0	 str         r3, [sp, #0xA0]
  01088		 |$LN68@SerialEven|

; 435  : 
; 436  :     if ( pSerialHead->pAccessOwner )

  01088	e59d30ac	 ldr         r3, [sp, #0xAC]
  0108c	e2833c01	 add         r3, r3, #1, 24
  01090	e5933000	 ldr         r3, [r3]
  01094	e3530000	 cmp         r3, #0
  01098	0a000004	 beq         |$LN1@SerialEven|

; 437  :         COM_DEC_USAGE_CNT(pSerialHead->pAccessOwner);

  0109c	e59d30ac	 ldr         r3, [sp, #0xAC]
  010a0	e2833c01	 add         r3, r3, #1, 24
  010a4	e5933000	 ldr         r3, [r3]
  010a8	e283000c	 add         r0, r3, #0xC
  010ac	eb000000	 bl          InterlockedDecrement
  010b0		 |$LN1@SerialEven|

; 245  : {

  010b0	e59d0040	 ldr         r0, [sp, #0x40]
  010b4	eb000000	 bl          __security_check_cookie

; 438  :     return;
; 439  : }

  010b8	e28dd0a4	 add         sp, sp, #0xA4
  010bc	e89d6000	 ldmia       sp, {sp, lr}
  010c0	e12fff1e	 bx          lr
  010c4		 |$LN74@SerialEven|
  010c4		 |$LN75@SerialEven|
  010c4	00000000	 DCD         |??_C@_1FI@GGFBGELP@?$AA?9?$AAS?$AAe?$AAr?$AAi?$AAa?$AAl?$AAE?$AAv?$AAe?$AAn?$AAt?$AAH?$AAa?$AAn?$AAd?$AAl?$AAe?$AAr?$AA?0?$AA?5?$AAF?$AAi?$AAf?$AAo?$AA?$CI?$AAR?$AA?$DN?$AA?$CF?$AAd?$AA?0?$AAW@|
  010c8		 |$LN76@SerialEven|
  010c8	00000000	 DCD         |dpCurSettings|
  010cc		 |$LN77@SerialEven|
  010cc	00000000	 DCD         |??_C@_1CI@EJHAPNLK@?$AAL?$AAi?$AAn?$AAe?$AA?5?$AAE?$AAv?$AAe?$AAn?$AAt?$AA?0?$AA?5?$AAi?$AAt?$AA?3?$AA?$CF?$AAx?$AA?$AN?$AA?6?$AA?$AA@|
  010d0		 |$LN78@SerialEven|
  010d0	00000000	 DCD         |??_C@_1CK@CPCFPBFI@?$AAO?$AAt?$AAh?$AAe?$AAr?$AA?5?$AAE?$AAv?$AAe?$AAn?$AAt?$AA?0?$AA?5?$AAi?$AAt?$AA?3?$AA?$CF?$AAx?$AA?$AN?$AA?6?$AA?$AA@|
  010d4		 |$LN79@SerialEven|
  010d4	00000000	 DCD         |??_C@_1BG@KFPNBBDH@?$AAT?$AAx?$AA?5?$AAE?$AAv?$AAe?$AAn?$AAt?$AA?$AN?$AA?6?$AA?$AA@|
  010d8		 |$LN80@SerialEven|
  010d8	00000000	 DCD         |??_C@_1BO@CNGNDNHF@?$AAS?$AAe?$AAn?$AAd?$AAi?$AAn?$AAg?$AA?5?$AAX?$AAO?$AAF?$AAF?$AA?$AN?$AA?6?$AA?$AA@|
  010dc		 |$LN81@SerialEven|
  010dc	00000000	 DCD         |??_C@_1EK@LMCHJDFJ@?$AAR?$AAT?$AAS?$AA_?$AAC?$AAO?$AAN?$AAT?$AAR?$AAO?$AAL?$AA_?$AAH?$AAA?$AAN?$AAD?$AAS?$AAH?$AAA?$AAK?$AAE?$AA?5?$AAC?$AAl?$AAe?$AAa?$AAr?$AAi?$AAn?$AAg?$AA?5?$AAR@|
  010e0		 |$LN82@SerialEven|
  010e0	00000000	 DCD         |??_C@_1EK@FLILIJBB@?$AAD?$AAT?$AAR?$AA_?$AAC?$AAO?$AAN?$AAT?$AAR?$AAO?$AAL?$AA_?$AAH?$AAA?$AAN?$AAD?$AAS?$AAH?$AAA?$AAK?$AAE?$AA?5?$AAC?$AAl?$AAe?$AAa?$AAr?$AAi?$AAn?$AAg?$AA?5?$AAD@|
  010e4		 |$LN83@SerialEven|
  010e4	00000000	 DCD         |??_C@_1BO@EEIJDLJ@?$AAR?$AAe?$AAc?$AAe?$AAi?$AAv?$AAe?$AAd?$AA?5?$AAX?$AAO?$AAN?$AA?$AN?$AA?6?$AA?$AA@|
  010e8		 |$LN84@SerialEven|
  010e8	00000000	 DCD         |??_C@_1CA@EJJJJNNE@?$AAR?$AAe?$AAc?$AAe?$AAi?$AAv?$AAe?$AAd?$AA?5?$AAX?$AAO?$AAF?$AAF?$AA?$AN?$AA?6?$AA?$AA@|
  010ec		 |$LN85@SerialEven|
  010ec	00000000	 DCD         |??_C@_1HG@EGFFDKNF@?$AAA?$AAf?$AAt?$AAe?$AAr?$AA?5?$AAH?$AAW?$AAG?$AAe?$AAt?$AAB?$AAy?$AAt?$AAe?$AAs?$AA?0?$AA?5?$AAF?$AAi?$AAf?$AAo?$AA?$CI?$AAR?$AA?$DN?$AA?$CF?$AAd?$AA?0?$AAW?$AA?$DN?$AA?$CF?$AAd@|
  010f0		 |$LN86@SerialEven|
  010f0	00000000	 DCD         |??_C@_1CE@NDNCGIIC@?$AAT?$AAo?$AAs?$AAs?$AAe?$AAd?$AA?5?$AA?$CF?$AAd?$AA?5?$AAb?$AAy?$AAt?$AAe?$AAs?$AA?$AN?$AA?6?$AA?$AA@|
  010f4		 |$LN87@SerialEven|
  010f4	00000000	 DCD         |??_C@_1BG@NHAMELLH@?$AAR?$AAx?$AA?5?$AAE?$AAv?$AAe?$AAn?$AAt?$AA?$AN?$AA?6?$AA?$AA@|
  010f8		 |$LN88@SerialEven|
  010f8	00000000	 DCD         |??_C@_1EM@PPCKGCIP@?$AAS?$AAe?$AAr?$AAi?$AAa?$AAl?$AAE?$AAv?$AAe?$AAn?$AAt?$AAH?$AAa?$AAn?$AAd?$AAl?$AAe?$AAr?$AA?0?$AA?5?$AAI?$AAn?$AAt?$AAe?$AAr?$AAr?$AAu?$AAp?$AAt?$AAs?$AA?5?$AA0@|
  010fc		 |$LN89@SerialEven|
  010fc	00000000	 DCD         |??_C@_1EI@MHGBBLDA@?$AAS?$AAe?$AAr?$AAi?$AAa?$AAl?$AAE?$AAv?$AAe?$AAn?$AAt?$AAH?$AAa?$AAn?$AAd?$AAl?$AAe?$AAr?$AA?0?$AA?5?$AAN?$AAo?$AA?5?$AAI?$AAn?$AAt?$AAe?$AAr?$AAr?$AAu?$AAp?$AAt@|
  01100		 |$LN90@SerialEven|
  01100	00000000	 DCD         |??_C@_1CE@JLPIMJPF@?$AAE?$AAx?$AAi?$AAt?$AAt?$AAi?$AAn?$AAg?$AA?5?$AAt?$AAh?$AAr?$AAe?$AAa?$AAd?$AA?$AN?$AA?6?$AA?$AA@|
  01104		 |$LN91@SerialEven|
  01104	00000000	 DCD         |??_C@_1EE@PGFICLOP@?$AA?$CL?$AAS?$AAe?$AAr?$AAi?$AAa?$AAl?$AAE?$AAv?$AAe?$AAn?$AAt?$AAH?$AAa?$AAn?$AAd?$AAl?$AAe?$AAr?$AA?0?$AA?5?$AAp?$AAH?$AAe?$AAa?$AAd?$AA?5?$AA0?$AAx?$AA?$CF?$AAX?$AA?$AN@|
  01108		 |$LN92@SerialEven|
  01108	00000000	 DCD         |__security_cookie|
  0110c		 |$M41461|

			 ENDP  ; |SerialEventHandler|

; File c:\wince600\platform\common\src\soc\common_ti_v1\common_ti\serial\com_mdd2\serpriv.h

  00000			 AREA	 |.pdata|, PDATA
|$T41490| DCD	|$LN7@RxBytesAva|
	DCD	0x40002304
; Function compile flags: /Odtp

  00000			 AREA	 |.text|, CODE, ARM

  00000		 |RxBytesAvail| PROC

; 143  : __inline  ULONG RxBytesAvail(PHW_INDEP_INFO  pSH) {

  00000		 |$LN7@RxBytesAva|
  00000	e1a0c00d	 mov         r12, sp
  00004	e92d0001	 stmdb       sp!, {r0}
  00008	e92d5000	 stmdb       sp!, {r12, lr}
  0000c	e24dd010	 sub         sp, sp, #0x10
  00010		 |$M41487|

; 144  :     // Note: We have to copy RxRead and RxWrite index to local in order to make it atomic.
; 145  :     register DWORD RxWIndex=RxWrite(pSH), RxRIndex=RxRead(pSH);

  00010	e59d3018	 ldr         r3, [sp, #0x18]
  00014	e28330a0	 add         r3, r3, #0xA0
  00018	e5933000	 ldr         r3, [r3]
  0001c	e58d3000	 str         r3, [sp]
  00020	e59d3018	 ldr         r3, [sp, #0x18]
  00024	e283309c	 add         r3, r3, #0x9C
  00028	e5933000	 ldr         r3, [r3]
  0002c	e58d3004	 str         r3, [sp, #4]

; 146  :     return (RxWIndex>=RxRIndex?RxWIndex- RxRIndex : RxLength(pSH) - RxRIndex + RxWIndex );

  00030	e59d2000	 ldr         r2, [sp]
  00034	e59d3004	 ldr         r3, [sp, #4]
  00038	e1520003	 cmp         r2, r3
  0003c	3a000004	 bcc         |$LN3@RxBytesAva|
  00040	e59d2000	 ldr         r2, [sp]
  00044	e59d3004	 ldr         r3, [sp, #4]
  00048	e0423003	 sub         r3, r2, r3
  0004c	e58d300c	 str         r3, [sp, #0xC]
  00050	ea000007	 b           |$LN4@RxBytesAva|
  00054		 |$LN3@RxBytesAva|
  00054	e59d3018	 ldr         r3, [sp, #0x18]
  00058	e28330a4	 add         r3, r3, #0xA4
  0005c	e5932000	 ldr         r2, [r3]
  00060	e59d3004	 ldr         r3, [sp, #4]
  00064	e0422003	 sub         r2, r2, r3
  00068	e59d3000	 ldr         r3, [sp]
  0006c	e0823003	 add         r3, r2, r3
  00070	e58d300c	 str         r3, [sp, #0xC]
  00074		 |$LN4@RxBytesAva|
  00074	e59d300c	 ldr         r3, [sp, #0xC]
  00078	e58d3008	 str         r3, [sp, #8]

; 147  : }

  0007c	e59d0008	 ldr         r0, [sp, #8]
  00080	e28dd010	 add         sp, sp, #0x10
  00084	e89d6000	 ldmia       sp, {sp, lr}
  00088	e12fff1e	 bx          lr
  0008c		 |$M41488|

			 ENDP  ; |RxBytesAvail|

	EXPORT	|??_C@_1DI@KMMMNJHO@?$AAC?$AAr?$AAe?$AAa?$AAt?$AAe?$AAd?$AA?5?$AAr?$AAe?$AAc?$AAe?$AAi?$AAv?$AAe?$AA?5?$AAt?$AAh?$AAr?$AAe?$AAa?$AAd?$AA?5?$AA?$CF?$AAX?$AA?$AN?$AA?6?$AA?$AA@| [ DATA ] ; `string'
	EXPORT	|??_C@_1EM@FFMAHOCG@?$AAE?$AAr?$AAr?$AAo?$AAr?$AA?5?$AAc?$AAr?$AAe?$AAa?$AAt?$AAi?$AAn?$AAg?$AA?5?$AAd?$AAi?$AAs?$AAp?$AAa?$AAt?$AAc?$AAh?$AA?5?$AAt?$AAh?$AAr?$AAe?$AAa?$AAd?$AA?5?$AA?$CI@| [ DATA ] ; `string'
	EXPORT	|??_C@_1CI@MPKANNOJ@?$AAS?$AAp?$AAi?$AAn?$AAn?$AAi?$AAn?$AAg?$AA?5?$AAt?$AAh?$AAr?$AAe?$AAa?$AAd?$AA?$CF?$AAX?$AA?6?$AA?$AN?$AA?$AA@| [ DATA ] ; `string'
	EXPORT	|??_C@_1DO@GDLJAKBF@?$AAE?$AAr?$AAr?$AAo?$AAr?$AA?5?$AAi?$AAn?$AAi?$AAt?$AAi?$AAa?$AAl?$AAi?$AAz?$AAi?$AAn?$AAg?$AA?5?$AAi?$AAn?$AAt?$AAe?$AAr?$AAr?$AAu?$AAp?$AAt?$AA?6?$AA?$AN?$AA?$AA@| [ DATA ] ; `string'
	EXPORT	|??_C@_1EI@EFCKMID@?$AAI?$AAn?$AAi?$AAt?$AAi?$AAa?$AAl?$AAi?$AAz?$AAi?$AAn?$AAg?$AA?5?$AAi?$AAn?$AAt?$AAe?$AAr?$AAr?$AAu?$AAp?$AAt?$AA?5?$AA0?$AAx?$AA?$CF?$AAX?$AA?0?$AA?5?$AA0?$AAx?$AA?$CF@| [ DATA ] ; `string'
	EXPORT	|StartDispatchThread|
	IMPORT	|GetLastError|
	IMPORT	|CreateThread|
	IMPORT	|InterruptDone|
	IMPORT	|InterruptInitialize|

  00018			 AREA	 |.pdata|, PDATA
|$T41510| DCD	|$LN17@StartDispa|
	DCD	0x40009904
; File c:\wince600\platform\common\src\soc\common_ti_v1\common_ti\serial\com_mdd2\mdd.c

  00000			 AREA	 |.rdata|, DATA, READONLY
|??_C@_1DI@KMMMNJHO@?$AAC?$AAr?$AAe?$AAa?$AAt?$AAe?$AAd?$AA?5?$AAr?$AAe?$AAc?$AAe?$AAi?$AAv?$AAe?$AA?5?$AAt?$AAh?$AAr?$AAe?$AAa?$AAd?$AA?5?$AA?$CF?$AAX?$AA?$AN?$AA?6?$AA?$AA@| DCB "C"
	DCB	0x0, "r", 0x0, "e", 0x0, "a", 0x0, "t", 0x0, "e", 0x0, "d"
	DCB	0x0, " ", 0x0, "r", 0x0, "e", 0x0, "c", 0x0, "e", 0x0, "i"
	DCB	0x0, "v", 0x0, "e", 0x0, " ", 0x0, "t", 0x0, "h", 0x0, "r"
	DCB	0x0, "e", 0x0, "a", 0x0, "d", 0x0, " ", 0x0, "%", 0x0, "X"
	DCB	0x0, 0xd, 0x0, 0xa, 0x0, 0x0, 0x0	; `string'

  00000			 AREA	 |.rdata|, DATA, READONLY
|??_C@_1EM@FFMAHOCG@?$AAE?$AAr?$AAr?$AAo?$AAr?$AA?5?$AAc?$AAr?$AAe?$AAa?$AAt?$AAi?$AAn?$AAg?$AA?5?$AAd?$AAi?$AAs?$AAp?$AAa?$AAt?$AAc?$AAh?$AA?5?$AAt?$AAh?$AAr?$AAe?$AAa?$AAd?$AA?5?$AA?$CI@| DCB "E"
	DCB	0x0, "r", 0x0, "r", 0x0, "o", 0x0, "r", 0x0, " ", 0x0, "c"
	DCB	0x0, "r", 0x0, "e", 0x0, "a", 0x0, "t", 0x0, "i", 0x0, "n"
	DCB	0x0, "g", 0x0, " ", 0x0, "d", 0x0, "i", 0x0, "s", 0x0, "p"
	DCB	0x0, "a", 0x0, "t", 0x0, "c", 0x0, "h", 0x0, " ", 0x0, "t"
	DCB	0x0, "h", 0x0, "r", 0x0, "e", 0x0, "a", 0x0, "d", 0x0, " "
	DCB	0x0, "(", 0x0, "%", 0x0, "d", 0x0, ")", 0x0, 0xa, 0x0, 0xd
	DCB	0x0, 0x0, 0x0				; `string'

  00000			 AREA	 |.rdata|, DATA, READONLY
|??_C@_1CI@MPKANNOJ@?$AAS?$AAp?$AAi?$AAn?$AAn?$AAi?$AAn?$AAg?$AA?5?$AAt?$AAh?$AAr?$AAe?$AAa?$AAd?$AA?$CF?$AAX?$AA?6?$AA?$AN?$AA?$AA@| DCB "S"
	DCB	0x0, "p", 0x0, "i", 0x0, "n", 0x0, "n", 0x0, "i", 0x0, "n"
	DCB	0x0, "g", 0x0, " ", 0x0, "t", 0x0, "h", 0x0, "r", 0x0, "e"
	DCB	0x0, "a", 0x0, "d", 0x0, "%", 0x0, "X", 0x0, 0xa, 0x0, 0xd
	DCB	0x0, 0x0, 0x0				; `string'

  00000			 AREA	 |.rdata|, DATA, READONLY
|??_C@_1DO@GDLJAKBF@?$AAE?$AAr?$AAr?$AAo?$AAr?$AA?5?$AAi?$AAn?$AAi?$AAt?$AAi?$AAa?$AAl?$AAi?$AAz?$AAi?$AAn?$AAg?$AA?5?$AAi?$AAn?$AAt?$AAe?$AAr?$AAr?$AAu?$AAp?$AAt?$AA?6?$AA?$AN?$AA?$AA@| DCB "E"
	DCB	0x0, "r", 0x0, "r", 0x0, "o", 0x0, "r", 0x0, " ", 0x0, "i"
	DCB	0x0, "n", 0x0, "i", 0x0, "t", 0x0, "i", 0x0, "a", 0x0, "l"
	DCB	0x0, "i", 0x0, "z", 0x0, "i", 0x0, "n", 0x0, "g", 0x0, " "
	DCB	0x0, "i", 0x0, "n", 0x0, "t", 0x0, "e", 0x0, "r", 0x0, "r"
	DCB	0x0, "u", 0x0, "p", 0x0, "t", 0x0, 0xa, 0x0, 0xd, 0x0, 0x0
	DCB	0x0					; `string'

  00000			 AREA	 |.rdata|, DATA, READONLY
|??_C@_1EI@EFCKMID@?$AAI?$AAn?$AAi?$AAt?$AAi?$AAa?$AAl?$AAi?$AAz?$AAi?$AAn?$AAg?$AA?5?$AAi?$AAn?$AAt?$AAe?$AAr?$AAr?$AAu?$AAp?$AAt?$AA?5?$AA0?$AAx?$AA?$CF?$AAX?$AA?0?$AA?5?$AA0?$AAx?$AA?$CF@| DCB "I"
	DCB	0x0, "n", 0x0, "i", 0x0, "t", 0x0, "i", 0x0, "a", 0x0, "l"
	DCB	0x0, "i", 0x0, "z", 0x0, "i", 0x0, "n", 0x0, "g", 0x0, " "
	DCB	0x0, "i", 0x0, "n", 0x0, "t", 0x0, "e", 0x0, "r", 0x0, "r"
	DCB	0x0, "u", 0x0, "p", 0x0, "t", 0x0, " ", 0x0, "0", 0x0, "x"
	DCB	0x0, "%", 0x0, "X", 0x0, ",", 0x0, " ", 0x0, "0", 0x0, "x"
	DCB	0x0, "%", 0x0, "X", 0x0, 0xa, 0x0, 0xd, 0x0, 0x0, 0x0 ; `string'
; Function compile flags: /Odtp

  0110c			 AREA	 |.text|, CODE, ARM

  0110c		 |StartDispatchThread| PROC

; 511  : {

  0110c		 |$LN17@StartDispa|
  0110c	e1a0c00d	 mov         r12, sp
  01110	e92d0001	 stmdb       sp!, {r0}
  01114	e92d5000	 stmdb       sp!, {r12, lr}
  01118	e24dd034	 sub         sp, sp, #0x34
  0111c		 |$M41507|

; 512  :     // Initialize the interrupt to be associated with the hSerialEvent
; 513  :     // event. GetByte waits on this event and acts as a second
; 514  :     // level decoder determining the type of serial event. If this return
; 515  :     // fails, then another process has registered for the interrupt, so
; 516  :     // fail the init and set the hSerialEvent to NULL.
; 517  :     DEBUGMSG(ZONE_INIT,
; 518  :              (TEXT("Initializing interrupt 0x%X, 0x%X\n\r"),
; 519  :               pSerialHead->pHWObj->dwIntID, pSerialHead->hSerialEvent));

  0111c	e59f3234	 ldr         r3, [pc, #0x234]
  01120	e5933440	 ldr         r3, [r3, #0x440]
  01124	e3130001	 tst         r3, #1
  01128	0a00000c	 beq         |$LN5@StartDispa|
  0112c	e59d303c	 ldr         r3, [sp, #0x3C]
  01130	e2833030	 add         r3, r3, #0x30
  01134	e5932000	 ldr         r2, [r3]
  01138	e59d303c	 ldr         r3, [sp, #0x3C]
  0113c	e2833028	 add         r3, r3, #0x28
  01140	e5933000	 ldr         r3, [r3]
  01144	e2833004	 add         r3, r3, #4
  01148	e5931000	 ldr         r1, [r3]
  0114c	e59f0218	 ldr         r0, [pc, #0x218]
  01150	eb000000	 bl          NKDbgPrintfW
  01154	e3a03001	 mov         r3, #1
  01158	e58d3014	 str         r3, [sp, #0x14]
  0115c	ea000001	 b           |$LN6@StartDispa|
  01160		 |$LN5@StartDispa|
  01160	e3a03000	 mov         r3, #0
  01164	e58d3014	 str         r3, [sp, #0x14]
  01168		 |$LN6@StartDispa|

; 520  : 
; 521  :     if ( !InterruptInitialize(pSerialHead->pHWObj->dwIntID,
; 522  :                               pSerialHead->hSerialEvent,
; 523  :                               NULL,
; 524  :                               0) ) {

  01168	e3a03000	 mov         r3, #0
  0116c	e3a02000	 mov         r2, #0
  01170	e59d103c	 ldr         r1, [sp, #0x3C]
  01174	e2811030	 add         r1, r1, #0x30
  01178	e5911000	 ldr         r1, [r1]
  0117c	e59d003c	 ldr         r0, [sp, #0x3C]
  01180	e2800028	 add         r0, r0, #0x28
  01184	e5900000	 ldr         r0, [r0]
  01188	e2800004	 add         r0, r0, #4
  0118c	e5900000	 ldr         r0, [r0]
  01190	eb000000	 bl          InterruptInitialize
  01194	e58d0018	 str         r0, [sp, #0x18]
  01198	e59d3018	 ldr         r3, [sp, #0x18]
  0119c	e3530000	 cmp         r3, #0
  011a0	1a000011	 bne         |$LN2@StartDispa|

; 525  :         DEBUGMSG(ZONE_INIT | ZONE_ERROR,
; 526  :                  (TEXT("Error initializing interrupt\n\r")));

  011a4	e59f31ac	 ldr         r3, [pc, #0x1AC]
  011a8	e5933440	 ldr         r3, [r3, #0x440]
  011ac	e2032001	 and         r2, r3, #1
  011b0	e59f31a0	 ldr         r3, [pc, #0x1A0]
  011b4	e5933440	 ldr         r3, [r3, #0x440]
  011b8	e2033902	 and         r3, r3, #2, 18
  011bc	e1923003	 orrs        r3, r2, r3
  011c0	0a000004	 beq         |$LN7@StartDispa|
  011c4	e59f019c	 ldr         r0, [pc, #0x19C]
  011c8	eb000000	 bl          NKDbgPrintfW
  011cc	e3a03001	 mov         r3, #1
  011d0	e58d301c	 str         r3, [sp, #0x1C]
  011d4	ea000001	 b           |$LN8@StartDispa|
  011d8		 |$LN7@StartDispa|
  011d8	e3a03000	 mov         r3, #0
  011dc	e58d301c	 str         r3, [sp, #0x1C]
  011e0		 |$LN8@StartDispa|

; 527  :         return(FALSE);

  011e0	e3a03000	 mov         r3, #0
  011e4	e58d3008	 str         r3, [sp, #8]
  011e8	ea000055	 b           |$LN3@StartDispa|
  011ec		 |$LN2@StartDispa|

; 528  :     }
; 529  : 
; 530  :     InterruptDone(pSerialHead->pHWObj->dwIntID);

  011ec	e59d303c	 ldr         r3, [sp, #0x3C]
  011f0	e2833028	 add         r3, r3, #0x28
  011f4	e5933000	 ldr         r3, [r3]
  011f8	e2833004	 add         r3, r3, #4
  011fc	e5930000	 ldr         r0, [r3]
  01200	eb000000	 bl          InterruptDone

; 531  : 
; 532  :     // Set up the dispatch thread and it's kill flag. Note that the thread
; 533  :     // fills in its own handle in pSerialHead.
; 534  :     pSerialHead->KillRxThread = 0;

  01204	e59d303c	 ldr         r3, [sp, #0x3C]
  01208	e2833094	 add         r3, r3, #0x94
  0120c	e5932000	 ldr         r2, [r3]
  01210	e3e03001	 mvn         r3, #1
  01214	e0022003	 and         r2, r2, r3
  01218	e59d303c	 ldr         r3, [sp, #0x3C]
  0121c	e2833094	 add         r3, r3, #0x94
  01220	e5832000	 str         r2, [r3]

; 535  :     pSerialHead->pDispatchThread = NULL;

  01224	e59d303c	 ldr         r3, [sp, #0x3C]
  01228	e2832040	 add         r2, r3, #0x40
  0122c	e3a03000	 mov         r3, #0
  01230	e5823000	 str         r3, [r2]

; 536  : 
; 537  :     DEBUGMSG(ZONE_INIT,
; 538  :              (TEXT("Spinning thread%X\n\r"), pSerialHead));

  01234	e59f311c	 ldr         r3, [pc, #0x11C]
  01238	e5933440	 ldr         r3, [r3, #0x440]
  0123c	e3130001	 tst         r3, #1
  01240	0a000005	 beq         |$LN9@StartDispa|
  01244	e59d103c	 ldr         r1, [sp, #0x3C]
  01248	e59f0114	 ldr         r0, [pc, #0x114]
  0124c	eb000000	 bl          NKDbgPrintfW
  01250	e3a03001	 mov         r3, #1
  01254	e58d3020	 str         r3, [sp, #0x20]
  01258	ea000001	 b           |$LN10@StartDispa|
  0125c		 |$LN9@StartDispa|
  0125c	e3a03000	 mov         r3, #0
  01260	e58d3020	 str         r3, [sp, #0x20]
  01264		 |$LN10@StartDispa|

; 539  : 
; 540  :     pSerialHead->pDispatchThread = CreateThread(NULL,0, SerialDispatchThread,
; 541  :                                                 pSerialHead, 0,NULL);

  01264	e3a03000	 mov         r3, #0
  01268	e58d3004	 str         r3, [sp, #4]
  0126c	e3a03000	 mov         r3, #0
  01270	e58d3000	 str         r3, [sp]
  01274	e59d303c	 ldr         r3, [sp, #0x3C]
  01278	e59f20e0	 ldr         r2, [pc, #0xE0]
  0127c	e3a01000	 mov         r1, #0
  01280	e3a00000	 mov         r0, #0
  01284	eb000000	 bl          CreateThread
  01288	e58d0024	 str         r0, [sp, #0x24]
  0128c	e59d303c	 ldr         r3, [sp, #0x3C]
  01290	e2832040	 add         r2, r3, #0x40
  01294	e59d3024	 ldr         r3, [sp, #0x24]
  01298	e5823000	 str         r3, [r2]

; 542  :     if ( pSerialHead->pDispatchThread == NULL ) {

  0129c	e59d303c	 ldr         r3, [sp, #0x3C]
  012a0	e2833040	 add         r3, r3, #0x40
  012a4	e5933000	 ldr         r3, [r3]
  012a8	e3530000	 cmp         r3, #0
  012ac	1a000014	 bne         |$LN1@StartDispa|

; 543  :         DEBUGMSG(ZONE_INIT|ZONE_ERROR,
; 544  :                  (TEXT("Error creating dispatch thread (%d)\n\r"),
; 545  :                   GetLastError()));

  012b0	e59f30a0	 ldr         r3, [pc, #0xA0]
  012b4	e5933440	 ldr         r3, [r3, #0x440]
  012b8	e2032001	 and         r2, r3, #1
  012bc	e59f3094	 ldr         r3, [pc, #0x94]
  012c0	e5933440	 ldr         r3, [r3, #0x440]
  012c4	e2033902	 and         r3, r3, #2, 18
  012c8	e1923003	 orrs        r3, r2, r3
  012cc	0a000007	 beq         |$LN11@StartDispa|
  012d0	eb000000	 bl          GetLastError
  012d4	e58d0028	 str         r0, [sp, #0x28]
  012d8	e59d1028	 ldr         r1, [sp, #0x28]
  012dc	e59f0078	 ldr         r0, [pc, #0x78]
  012e0	eb000000	 bl          NKDbgPrintfW
  012e4	e3a03001	 mov         r3, #1
  012e8	e58d302c	 str         r3, [sp, #0x2C]
  012ec	ea000001	 b           |$LN12@StartDispa|
  012f0		 |$LN11@StartDispa|
  012f0	e3a03000	 mov         r3, #0
  012f4	e58d302c	 str         r3, [sp, #0x2C]
  012f8		 |$LN12@StartDispa|

; 546  :         return(FALSE);

  012f8	e3a03000	 mov         r3, #0
  012fc	e58d3008	 str         r3, [sp, #8]
  01300	ea00000f	 b           |$LN3@StartDispa|
  01304		 |$LN1@StartDispa|

; 547  :     }
; 548  : 
; 549  :     DEBUGMSG (ZONE_INIT, (TEXT("Created receive thread %X\r\n"),
; 550  :                           pSerialHead->pDispatchThread));

  01304	e59f304c	 ldr         r3, [pc, #0x4C]
  01308	e5933440	 ldr         r3, [r3, #0x440]
  0130c	e3130001	 tst         r3, #1
  01310	0a000007	 beq         |$LN13@StartDispa|
  01314	e59d303c	 ldr         r3, [sp, #0x3C]
  01318	e2833040	 add         r3, r3, #0x40
  0131c	e5931000	 ldr         r1, [r3]
  01320	e59f002c	 ldr         r0, [pc, #0x2C]
  01324	eb000000	 bl          NKDbgPrintfW
  01328	e3a03001	 mov         r3, #1
  0132c	e58d3030	 str         r3, [sp, #0x30]
  01330	ea000001	 b           |$LN14@StartDispa|
  01334		 |$LN13@StartDispa|
  01334	e3a03000	 mov         r3, #0
  01338	e58d3030	 str         r3, [sp, #0x30]
  0133c		 |$LN14@StartDispa|

; 551  :     return(TRUE);

  0133c	e3a03001	 mov         r3, #1
  01340	e58d3008	 str         r3, [sp, #8]
  01344		 |$LN3@StartDispa|

; 552  : }

  01344	e59d0008	 ldr         r0, [sp, #8]
  01348	e28dd034	 add         sp, sp, #0x34
  0134c	e89d6000	 ldmia       sp, {sp, lr}
  01350	e12fff1e	 bx          lr
  01354		 |$LN18@StartDispa|
  01354		 |$LN19@StartDispa|
  01354	00000000	 DCD         |??_C@_1DI@KMMMNJHO@?$AAC?$AAr?$AAe?$AAa?$AAt?$AAe?$AAd?$AA?5?$AAr?$AAe?$AAc?$AAe?$AAi?$AAv?$AAe?$AA?5?$AAt?$AAh?$AAr?$AAe?$AAa?$AAd?$AA?5?$AA?$CF?$AAX?$AA?$AN?$AA?6?$AA?$AA@|
  01358		 |$LN20@StartDispa|
  01358	00000000	 DCD         |dpCurSettings|
  0135c		 |$LN21@StartDispa|
  0135c	00000000	 DCD         |??_C@_1EM@FFMAHOCG@?$AAE?$AAr?$AAr?$AAo?$AAr?$AA?5?$AAc?$AAr?$AAe?$AAa?$AAt?$AAi?$AAn?$AAg?$AA?5?$AAd?$AAi?$AAs?$AAp?$AAa?$AAt?$AAc?$AAh?$AA?5?$AAt?$AAh?$AAr?$AAe?$AAa?$AAd?$AA?5?$AA?$CI@|
  01360		 |$LN22@StartDispa|
  01360	00000000	 DCD         |SerialDispatchThread|
  01364		 |$LN23@StartDispa|
  01364	00000000	 DCD         |??_C@_1CI@MPKANNOJ@?$AAS?$AAp?$AAi?$AAn?$AAn?$AAi?$AAn?$AAg?$AA?5?$AAt?$AAh?$AAr?$AAe?$AAa?$AAd?$AA?$CF?$AAX?$AA?6?$AA?$AN?$AA?$AA@|
  01368		 |$LN24@StartDispa|
  01368	00000000	 DCD         |??_C@_1DO@GDLJAKBF@?$AAE?$AAr?$AAr?$AAo?$AAr?$AA?5?$AAi?$AAn?$AAi?$AAt?$AAi?$AAa?$AAl?$AAi?$AAz?$AAi?$AAn?$AAg?$AA?5?$AAi?$AAn?$AAt?$AAe?$AAr?$AAr?$AAu?$AAp?$AAt?$AA?6?$AA?$AN?$AA?$AA@|
  0136c		 |$LN25@StartDispa|
  0136c	00000000	 DCD         |??_C@_1EI@EFCKMID@?$AAI?$AAn?$AAi?$AAt?$AAi?$AAa?$AAl?$AAi?$AAz?$AAi?$AAn?$AAg?$AA?5?$AAi?$AAn?$AAt?$AAe?$AAr?$AAr?$AAu?$AAp?$AAt?$AA?5?$AA0?$AAx?$AA?$CF?$AAX?$AA?0?$AA?5?$AA0?$AAx?$AA?$CF@|
  01370		 |$M41508|

			 ENDP  ; |StartDispatchThread|

	EXPORT	|??_C@_1EE@NKOOKCAI@?$AAS?$AAe?$AAr?$AAi?$AAa?$AAl?$AAD?$AAi?$AAs?$AAp?$AAa?$AAt?$AAc?$AAh?$AAT?$AAh?$AAr?$AAe?$AAa?$AAd?$AA?5?$AA?$CF?$AAx?$AA?5?$AAe?$AAx?$AAi?$AAt?$AAi?$AAn?$AAg?$AA?$AN@| [ DATA ] ; `string'
	EXPORT	|??_C@_1BO@CNJNPPHP@?$AAE?$AAv?$AAe?$AAn?$AAt?$AA?5?$AA?$CF?$AAX?$AA?0?$AA?5?$AA?$CF?$AAd?$AA?$AN?$AA?6?$AA?$AA@| [ DATA ] ; `string'
	EXPORT	|??_C@_1EI@IJEBFPL@?$AAS?$AAp?$AAi?$AAn?$AAn?$AAi?$AAn?$AAg?$AA?5?$AAi?$AAn?$AA?5?$AAd?$AAi?$AAs?$AAp?$AAa?$AAt?$AAc?$AAh?$AA?5?$AAt?$AAh?$AAr?$AAe?$AAa?$AAd?$AA?5?$AA?$CF?$AAX?$AA?5?$AA?$CF@| [ DATA ] ; `string'
	EXPORT	|??_C@_1EE@JPBAFGIH@?$AAE?$AAn?$AAt?$AAe?$AAr?$AAe?$AAd?$AA?5?$AAS?$AAe?$AAr?$AAi?$AAa?$AAl?$AAD?$AAi?$AAs?$AAp?$AAa?$AAt?$AAc?$AAh?$AAT?$AAh?$AAr?$AAe?$AAa?$AAd?$AA?5?$AA?$CF?$AAX?$AA?$AN@| [ DATA ] ; `string'
	IMPORT	|WaitForSingleObject|
	IMPORT	|Sleep|

  00020			 AREA	 |.pdata|, PDATA
|$T41532| DCD	|$LN18@SerialDisp|
	DCD	0x40006f04

  00000			 AREA	 |.rdata|, DATA, READONLY
|??_C@_1EE@NKOOKCAI@?$AAS?$AAe?$AAr?$AAi?$AAa?$AAl?$AAD?$AAi?$AAs?$AAp?$AAa?$AAt?$AAc?$AAh?$AAT?$AAh?$AAr?$AAe?$AAa?$AAd?$AA?5?$AA?$CF?$AAx?$AA?5?$AAe?$AAx?$AAi?$AAt?$AAi?$AAn?$AAg?$AA?$AN@| DCB "S"
	DCB	0x0, "e", 0x0, "r", 0x0, "i", 0x0, "a", 0x0, "l", 0x0, "D"
	DCB	0x0, "i", 0x0, "s", 0x0, "p", 0x0, "a", 0x0, "t", 0x0, "c"
	DCB	0x0, "h", 0x0, "T", 0x0, "h", 0x0, "r", 0x0, "e", 0x0, "a"
	DCB	0x0, "d", 0x0, " ", 0x0, "%", 0x0, "x", 0x0, " ", 0x0, "e"
	DCB	0x0, "x", 0x0, "i", 0x0, "t", 0x0, "i", 0x0, "n", 0x0, "g"
	DCB	0x0, 0xd, 0x0, 0xa, 0x0, 0x0, 0x0	; `string'

  00000			 AREA	 |.rdata|, DATA, READONLY
|??_C@_1BO@CNJNPPHP@?$AAE?$AAv?$AAe?$AAn?$AAt?$AA?5?$AA?$CF?$AAX?$AA?0?$AA?5?$AA?$CF?$AAd?$AA?$AN?$AA?6?$AA?$AA@| DCB "E"
	DCB	0x0, "v", 0x0, "e", 0x0, "n", 0x0, "t", 0x0, " ", 0x0, "%"
	DCB	0x0, "X", 0x0, ",", 0x0, " ", 0x0, "%", 0x0, "d", 0x0, 0xd
	DCB	0x0, 0xa, 0x0, 0x0, 0x0			; `string'

  00000			 AREA	 |.rdata|, DATA, READONLY
|??_C@_1EI@IJEBFPL@?$AAS?$AAp?$AAi?$AAn?$AAn?$AAi?$AAn?$AAg?$AA?5?$AAi?$AAn?$AA?5?$AAd?$AAi?$AAs?$AAp?$AAa?$AAt?$AAc?$AAh?$AA?5?$AAt?$AAh?$AAr?$AAe?$AAa?$AAd?$AA?5?$AA?$CF?$AAX?$AA?5?$AA?$CF@| DCB "S"
	DCB	0x0, "p", 0x0, "i", 0x0, "n", 0x0, "n", 0x0, "i", 0x0, "n"
	DCB	0x0, "g", 0x0, " ", 0x0, "i", 0x0, "n", 0x0, " ", 0x0, "d"
	DCB	0x0, "i", 0x0, "s", 0x0, "p", 0x0, "a", 0x0, "t", 0x0, "c"
	DCB	0x0, "h", 0x0, " ", 0x0, "t", 0x0, "h", 0x0, "r", 0x0, "e"
	DCB	0x0, "a", 0x0, "d", 0x0, " ", 0x0, "%", 0x0, "X", 0x0, " "
	DCB	0x0, "%", 0x0, "X", 0x0, 0xa, 0x0, 0xd, 0x0, 0x0, 0x0 ; `string'

  00000			 AREA	 |.rdata|, DATA, READONLY
|??_C@_1EE@JPBAFGIH@?$AAE?$AAn?$AAt?$AAe?$AAr?$AAe?$AAd?$AA?5?$AAS?$AAe?$AAr?$AAi?$AAa?$AAl?$AAD?$AAi?$AAs?$AAp?$AAa?$AAt?$AAc?$AAh?$AAT?$AAh?$AAr?$AAe?$AAa?$AAd?$AA?5?$AA?$CF?$AAX?$AA?$AN@| DCB "E"
	DCB	0x0, "n", 0x0, "t", 0x0, "e", 0x0, "r", 0x0, "e", 0x0, "d"
	DCB	0x0, " ", 0x0, "S", 0x0, "e", 0x0, "r", 0x0, "i", 0x0, "a"
	DCB	0x0, "l", 0x0, "D", 0x0, "i", 0x0, "s", 0x0, "p", 0x0, "a"
	DCB	0x0, "t", 0x0, "c", 0x0, "h", 0x0, "T", 0x0, "h", 0x0, "r"
	DCB	0x0, "e", 0x0, "a", 0x0, "d", 0x0, " ", 0x0, "%", 0x0, "X"
	DCB	0x0, 0xd, 0x0, 0xa, 0x0, 0x0, 0x0	; `string'
; Function compile flags: /Odtp

  01370			 AREA	 |.text|, CODE, ARM

  01370		 |SerialDispatchThread| PROC

; 464  : {

  01370		 |$LN18@SerialDisp|
  01370	e1a0c00d	 mov         r12, sp
  01374	e92d0001	 stmdb       sp!, {r0}
  01378	e92d5000	 stmdb       sp!, {r12, lr}
  0137c	e24dd020	 sub         sp, sp, #0x20
  01380		 |$M41529|

; 465  :     PHW_INDEP_INFO      pSerialHead    = (PHW_INDEP_INFO)pContext;

  01380	e59d3028	 ldr         r3, [sp, #0x28]
  01384	e58d3000	 str         r3, [sp]

; 466  :     ULONG               WaitReturn;
; 467  : 
; 468  :     DEBUGMSG (ZONE_THREAD, (TEXT("Entered SerialDispatchThread %X\r\n"),
; 469  :                             pSerialHead));

  01388	e59f318c	 ldr         r3, [pc, #0x18C]
  0138c	e5933440	 ldr         r3, [r3, #0x440]
  01390	e3130040	 tst         r3, #0x40
  01394	0a000005	 beq         |$LN8@SerialDisp|
  01398	e59d1000	 ldr         r1, [sp]
  0139c	e59f0184	 ldr         r0, [pc, #0x184]
  013a0	eb000000	 bl          NKDbgPrintfW
  013a4	e3a03001	 mov         r3, #1
  013a8	e58d300c	 str         r3, [sp, #0xC]
  013ac	ea000001	 b           |$LN9@SerialDisp|
  013b0		 |$LN8@SerialDisp|
  013b0	e3a03000	 mov         r3, #0
  013b4	e58d300c	 str         r3, [sp, #0xC]
  013b8		 |$LN9@SerialDisp|

; 470  : 
; 471  :     // It is possible for a PDD to use this routine in its private thread, so
; 472  :     // don't just assume that the MDD synchronization mechanism is in place.
; 473  :     if ( pSerialHead->pHWObj->BindFlags & THREAD_IN_MDD ) {

  013b8	e59d3000	 ldr         r3, [sp]
  013bc	e2833028	 add         r3, r3, #0x28
  013c0	e5933000	 ldr         r3, [r3]
  013c4	e5933000	 ldr         r3, [r3]
  013c8	e3130003	 tst         r3, #3
  013cc	0a000016	 beq         |$LN5@SerialDisp|

; 474  :         DEBUGMSG(ZONE_INIT,
; 475  :                  (TEXT("Spinning in dispatch thread %X %X\n\r"), pSerialHead, pSerialHead->pHWObj));

  013d0	e59f3144	 ldr         r3, [pc, #0x144]
  013d4	e5933440	 ldr         r3, [r3, #0x440]
  013d8	e3130001	 tst         r3, #1
  013dc	0a000008	 beq         |$LN10@SerialDisp|
  013e0	e59d3000	 ldr         r3, [sp]
  013e4	e2833028	 add         r3, r3, #0x28
  013e8	e5932000	 ldr         r2, [r3]
  013ec	e59d1000	 ldr         r1, [sp]
  013f0	e59f012c	 ldr         r0, [pc, #0x12C]
  013f4	eb000000	 bl          NKDbgPrintfW
  013f8	e3a03001	 mov         r3, #1
  013fc	e58d3010	 str         r3, [sp, #0x10]
  01400	ea000001	 b           |$LN11@SerialDisp|
  01404		 |$LN10@SerialDisp|
  01404	e3a03000	 mov         r3, #0
  01408	e58d3010	 str         r3, [sp, #0x10]
  0140c		 |$LN11@SerialDisp|
  0140c		 |$LN4@SerialDisp|

; 476  :         while ( !pSerialHead->pDispatchThread ) {

  0140c	e59d3000	 ldr         r3, [sp]
  01410	e2833040	 add         r3, r3, #0x40
  01414	e5933000	 ldr         r3, [r3]
  01418	e3530000	 cmp         r3, #0
  0141c	1a000002	 bne         |$LN3@SerialDisp|

; 477  :             Sleep(20);

  01420	e3a00014	 mov         r0, #0x14
  01424	eb000000	 bl          Sleep

; 478  :         }

  01428	eafffff7	 b           |$LN4@SerialDisp|
  0142c		 |$LN3@SerialDisp|
  0142c		 |$LN5@SerialDisp|
  0142c		 |$LN2@SerialDisp|

; 479  :     }
; 480  : 
; 481  :     /* Wait for the event that any serial port action creates.
; 482  :      */
; 483  :     while ( !pSerialHead->KillRxThread ) {

  0142c	e59d3000	 ldr         r3, [sp]
  01430	e2833094	 add         r3, r3, #0x94
  01434	e5933000	 ldr         r3, [r3]
  01438	e3130001	 tst         r3, #1
  0143c	1a000023	 bne         |$LN1@SerialDisp|

; 484  :         DEBUGMSG (ZONE_THREAD, (TEXT("Event %X, %d\r\n"),
; 485  :                                 pSerialHead->hSerialEvent,
; 486  :                                 pSerialHead->pHWObj->dwIntID ));

  01440	e59f30d4	 ldr         r3, [pc, #0xD4]
  01444	e5933440	 ldr         r3, [r3, #0x440]
  01448	e3130040	 tst         r3, #0x40
  0144c	0a00000c	 beq         |$LN12@SerialDisp|
  01450	e59d3000	 ldr         r3, [sp]
  01454	e2833028	 add         r3, r3, #0x28
  01458	e5933000	 ldr         r3, [r3]
  0145c	e2833004	 add         r3, r3, #4
  01460	e5932000	 ldr         r2, [r3]
  01464	e59d3000	 ldr         r3, [sp]
  01468	e2833030	 add         r3, r3, #0x30
  0146c	e5931000	 ldr         r1, [r3]
  01470	e59f00a8	 ldr         r0, [pc, #0xA8]
  01474	eb000000	 bl          NKDbgPrintfW
  01478	e3a03001	 mov         r3, #1
  0147c	e58d3014	 str         r3, [sp, #0x14]
  01480	ea000001	 b           |$LN13@SerialDisp|
  01484		 |$LN12@SerialDisp|
  01484	e3a03000	 mov         r3, #0
  01488	e58d3014	 str         r3, [sp, #0x14]
  0148c		 |$LN13@SerialDisp|

; 487  :         WaitReturn = WaitForSingleObject(pSerialHead->hSerialEvent, INFINITE);

  0148c	e3e01000	 mvn         r1, #0
  01490	e59d3000	 ldr         r3, [sp]
  01494	e2833030	 add         r3, r3, #0x30
  01498	e5930000	 ldr         r0, [r3]
  0149c	eb000000	 bl          WaitForSingleObject
  014a0	e58d0018	 str         r0, [sp, #0x18]
  014a4	e59d3018	 ldr         r3, [sp, #0x18]
  014a8	e58d3004	 str         r3, [sp, #4]

; 488  : 
; 489  :         SerialEventHandler(pSerialHead);

  014ac	e59d0000	 ldr         r0, [sp]
  014b0	eb000000	 bl          SerialEventHandler

; 490  :         InterruptDone(pSerialHead->pHWObj->dwIntID);

  014b4	e59d3000	 ldr         r3, [sp]
  014b8	e2833028	 add         r3, r3, #0x28
  014bc	e5933000	 ldr         r3, [r3]
  014c0	e2833004	 add         r3, r3, #4
  014c4	e5930000	 ldr         r0, [r3]
  014c8	eb000000	 bl          InterruptDone

; 491  :     }

  014cc	eaffffd6	 b           |$LN2@SerialDisp|
  014d0		 |$LN1@SerialDisp|

; 492  : 
; 493  :     DEBUGMSG (ZONE_THREAD, (TEXT("SerialDispatchThread %x exiting\r\n"),
; 494  :                             pSerialHead));

  014d0	e59f3044	 ldr         r3, [pc, #0x44]
  014d4	e5933440	 ldr         r3, [r3, #0x440]
  014d8	e3130040	 tst         r3, #0x40
  014dc	0a000005	 beq         |$LN14@SerialDisp|
  014e0	e59d1000	 ldr         r1, [sp]
  014e4	e59f002c	 ldr         r0, [pc, #0x2C]
  014e8	eb000000	 bl          NKDbgPrintfW
  014ec	e3a03001	 mov         r3, #1
  014f0	e58d301c	 str         r3, [sp, #0x1C]
  014f4	ea000001	 b           |$LN15@SerialDisp|
  014f8		 |$LN14@SerialDisp|
  014f8	e3a03000	 mov         r3, #0
  014fc	e58d301c	 str         r3, [sp, #0x1C]
  01500		 |$LN15@SerialDisp|

; 495  :     return(0);

  01500	e3a03000	 mov         r3, #0
  01504	e58d3008	 str         r3, [sp, #8]

; 496  : }

  01508	e59d0008	 ldr         r0, [sp, #8]
  0150c	e28dd020	 add         sp, sp, #0x20
  01510	e89d6000	 ldmia       sp, {sp, lr}
  01514	e12fff1e	 bx          lr
  01518		 |$LN19@SerialDisp|
  01518		 |$LN20@SerialDisp|
  01518	00000000	 DCD         |??_C@_1EE@NKOOKCAI@?$AAS?$AAe?$AAr?$AAi?$AAa?$AAl?$AAD?$AAi?$AAs?$AAp?$AAa?$AAt?$AAc?$AAh?$AAT?$AAh?$AAr?$AAe?$AAa?$AAd?$AA?5?$AA?$CF?$AAx?$AA?5?$AAe?$AAx?$AAi?$AAt?$AAi?$AAn?$AAg?$AA?$AN@|
  0151c		 |$LN21@SerialDisp|
  0151c	00000000	 DCD         |dpCurSettings|
  01520		 |$LN22@SerialDisp|
  01520	00000000	 DCD         |??_C@_1BO@CNJNPPHP@?$AAE?$AAv?$AAe?$AAn?$AAt?$AA?5?$AA?$CF?$AAX?$AA?0?$AA?5?$AA?$CF?$AAd?$AA?$AN?$AA?6?$AA?$AA@|
  01524		 |$LN23@SerialDisp|
  01524	00000000	 DCD         |??_C@_1EI@IJEBFPL@?$AAS?$AAp?$AAi?$AAn?$AAn?$AAi?$AAn?$AAg?$AA?5?$AAi?$AAn?$AA?5?$AAd?$AAi?$AAs?$AAp?$AAa?$AAt?$AAc?$AAh?$AA?5?$AAt?$AAh?$AAr?$AAe?$AAa?$AAd?$AA?5?$AA?$CF?$AAX?$AA?5?$AA?$CF@|
  01528		 |$LN24@SerialDisp|
  01528	00000000	 DCD         |??_C@_1EE@JPBAFGIH@?$AAE?$AAn?$AAt?$AAe?$AAr?$AAe?$AAd?$AA?5?$AAS?$AAe?$AAr?$AAi?$AAa?$AAl?$AAD?$AAi?$AAs?$AAp?$AAa?$AAt?$AAc?$AAh?$AAT?$AAh?$AAr?$AAe?$AAa?$AAd?$AA?5?$AA?$CF?$AAX?$AA?$AN@|
  0152c		 |$M41530|

			 ENDP  ; |SerialDispatchThread|

	EXPORT	|??_C@_1DM@NEFLPBFN@?$AA?$AN?$AA?6?$AAR?$AAe?$AAt?$AAu?$AAr?$AAn?$AAe?$AAd?$AA?5?$AAf?$AAr?$AAo?$AAm?$AA?5?$AAC?$AAl?$AAo?$AAs?$AAe?$AAH?$AAa?$AAn?$AAd?$AAl?$AAe?$AA?$AN?$AA?6?$AA?$AA@| [ DATA ] ; `string'
	EXPORT	|??_C@_1DO@BPPHAKCP@?$AA?$AN?$AA?6?$AAT?$AAr?$AAy?$AAi?$AAn?$AAg?$AA?5?$AAt?$AAo?$AA?5?$AAc?$AAa?$AAl?$AAl?$AA?5?$AAC?$AAl?$AAo?$AAs?$AAe?$AAH?$AAa?$AAn?$AAd?$AAl?$AAe?$AA?$AN?$AA?6?$AA?$AA@| [ DATA ] ; `string'
	EXPORT	|??_C@_1EI@FHNFOMPC@?$AA?$AN?$AA?6?$AAT?$AAr?$AAy?$AAi?$AAn?$AAg?$AA?5?$AAt?$AAo?$AA?5?$AAs?$AAi?$AAg?$AAn?$AAa?$AAl?$AA?5?$AAs?$AAe?$AAr?$AAi?$AAa?$AAl?$AA?5?$AAt?$AAh?$AAr?$AAe?$AAa?$AAd@| [ DATA ] ; `string'
	EXPORT	|??_C@_1EI@JFKDHKHE@?$AA?$AN?$AA?6?$AAT?$AAr?$AAy?$AAi?$AAn?$AAg?$AA?5?$AAt?$AAo?$AA?5?$AAc?$AAl?$AAo?$AAs?$AAe?$AA?5?$AAd?$AAi?$AAs?$AAp?$AAa?$AAt?$AAc?$AAh?$AA?5?$AAt?$AAh?$AAr?$AAe?$AAa@| [ DATA ] ; `string'
	EXPORT	|GetCurrentThread|
	EXPORT	|StopDispatchThread|
	IMPORT	|InterruptDisable|
	IMPORT	|CloseHandle|
	IMPORT	|CeSetThreadPriority|
	IMPORT	|CeGetThreadPriority|

  00028			 AREA	 |.pdata|, PDATA
|$T41552| DCD	|$LN15@StopDispat|
	DCD	0x40007a04

  00000			 AREA	 |.rdata|, DATA, READONLY
|??_C@_1DM@NEFLPBFN@?$AA?$AN?$AA?6?$AAR?$AAe?$AAt?$AAu?$AAr?$AAn?$AAe?$AAd?$AA?5?$AAf?$AAr?$AAo?$AAm?$AA?5?$AAC?$AAl?$AAo?$AAs?$AAe?$AAH?$AAa?$AAn?$AAd?$AAl?$AAe?$AA?$AN?$AA?6?$AA?$AA@| DCB 0xd
	DCB	0x0, 0xa, 0x0, "R", 0x0, "e", 0x0, "t", 0x0, "u", 0x0, "r"
	DCB	0x0, "n", 0x0, "e", 0x0, "d", 0x0, " ", 0x0, "f", 0x0, "r"
	DCB	0x0, "o", 0x0, "m", 0x0, " ", 0x0, "C", 0x0, "l", 0x0, "o"
	DCB	0x0, "s", 0x0, "e", 0x0, "H", 0x0, "a", 0x0, "n", 0x0, "d"
	DCB	0x0, "l", 0x0, "e", 0x0, 0xd, 0x0, 0xa, 0x0, 0x0, 0x0 ; `string'

  00000			 AREA	 |.rdata|, DATA, READONLY
|??_C@_1DO@BPPHAKCP@?$AA?$AN?$AA?6?$AAT?$AAr?$AAy?$AAi?$AAn?$AAg?$AA?5?$AAt?$AAo?$AA?5?$AAc?$AAa?$AAl?$AAl?$AA?5?$AAC?$AAl?$AAo?$AAs?$AAe?$AAH?$AAa?$AAn?$AAd?$AAl?$AAe?$AA?$AN?$AA?6?$AA?$AA@| DCB 0xd
	DCB	0x0, 0xa, 0x0, "T", 0x0, "r", 0x0, "y", 0x0, "i", 0x0, "n"
	DCB	0x0, "g", 0x0, " ", 0x0, "t", 0x0, "o", 0x0, " ", 0x0, "c"
	DCB	0x0, "a", 0x0, "l", 0x0, "l", 0x0, " ", 0x0, "C", 0x0, "l"
	DCB	0x0, "o", 0x0, "s", 0x0, "e", 0x0, "H", 0x0, "a", 0x0, "n"
	DCB	0x0, "d", 0x0, "l", 0x0, "e", 0x0, 0xd, 0x0, 0xa, 0x0, 0x0
	DCB	0x0					; `string'

  00000			 AREA	 |.rdata|, DATA, READONLY
|??_C@_1EI@FHNFOMPC@?$AA?$AN?$AA?6?$AAT?$AAr?$AAy?$AAi?$AAn?$AAg?$AA?5?$AAt?$AAo?$AA?5?$AAs?$AAi?$AAg?$AAn?$AAa?$AAl?$AA?5?$AAs?$AAe?$AAr?$AAi?$AAa?$AAl?$AA?5?$AAt?$AAh?$AAr?$AAe?$AAa?$AAd@| DCB 0xd
	DCB	0x0, 0xa, 0x0, "T", 0x0, "r", 0x0, "y", 0x0, "i", 0x0, "n"
	DCB	0x0, "g", 0x0, " ", 0x0, "t", 0x0, "o", 0x0, " ", 0x0, "s"
	DCB	0x0, "i", 0x0, "g", 0x0, "n", 0x0, "a", 0x0, "l", 0x0, " "
	DCB	0x0, "s", 0x0, "e", 0x0, "r", 0x0, "i", 0x0, "a", 0x0, "l"
	DCB	0x0, " ", 0x0, "t", 0x0, "h", 0x0, "r", 0x0, "e", 0x0, "a"
	DCB	0x0, "d", 0x0, ".", 0x0, 0xd, 0x0, 0xa, 0x0, 0x0, 0x0 ; `string'

  00000			 AREA	 |.rdata|, DATA, READONLY
|??_C@_1EI@JFKDHKHE@?$AA?$AN?$AA?6?$AAT?$AAr?$AAy?$AAi?$AAn?$AAg?$AA?5?$AAt?$AAo?$AA?5?$AAc?$AAl?$AAo?$AAs?$AAe?$AA?5?$AAd?$AAi?$AAs?$AAp?$AAa?$AAt?$AAc?$AAh?$AA?5?$AAt?$AAh?$AAr?$AAe?$AAa@| DCB 0xd
	DCB	0x0, 0xa, 0x0, "T", 0x0, "r", 0x0, "y", 0x0, "i", 0x0, "n"
	DCB	0x0, "g", 0x0, " ", 0x0, "t", 0x0, "o", 0x0, " ", 0x0, "c"
	DCB	0x0, "l", 0x0, "o", 0x0, "s", 0x0, "e", 0x0, " ", 0x0, "d"
	DCB	0x0, "i", 0x0, "s", 0x0, "p", 0x0, "a", 0x0, "t", 0x0, "c"
	DCB	0x0, "h", 0x0, " ", 0x0, "t", 0x0, "h", 0x0, "r", 0x0, "e"
	DCB	0x0, "a", 0x0, "d", 0x0, 0xd, 0x0, 0xa, 0x0, 0x0, 0x0 ; `string'
; Function compile flags: /Odtp

  0152c			 AREA	 |.text|, CODE, ARM

  0152c		 |StopDispatchThread| PROC

; 568  : {

  0152c		 |$LN15@StopDispat|
  0152c	e1a0c00d	 mov         r12, sp
  01530	e92d0001	 stmdb       sp!, {r0}
  01534	e92d5000	 stmdb       sp!, {r12, lr}
  01538	e24dd024	 sub         sp, sp, #0x24
  0153c		 |$M41549|

; 569  :     HANDLE              pThisThread = GetCurrentThread();

  0153c	eb000000	 bl          GetCurrentThread
  01540	e58d000c	 str         r0, [sp, #0xC]
  01544	e59d300c	 ldr         r3, [sp, #0xC]
  01548	e58d3000	 str         r3, [sp]

; 570  :     ULONG               priority256;
; 571  : 
; 572  :     /* If we have an interrupt handler thread, kill it */
; 573  :     if ( pSerialHead->pDispatchThread ) {

  0154c	e59d302c	 ldr         r3, [sp, #0x2C]
  01550	e2833040	 add         r3, r3, #0x40
  01554	e5933000	 ldr         r3, [r3]
  01558	e3530000	 cmp         r3, #0
  0155c	0a000050	 beq         |$LN2@StopDispat|

; 574  :         DEBUGMSG (ZONE_INIT, (TEXT("\r\nTrying to close dispatch thread\r\n")));

  01560	e59f319c	 ldr         r3, [pc, #0x19C]
  01564	e5933440	 ldr         r3, [r3, #0x440]
  01568	e3130001	 tst         r3, #1
  0156c	0a000004	 beq         |$LN5@StopDispat|
  01570	e59f0198	 ldr         r0, [pc, #0x198]
  01574	eb000000	 bl          NKDbgPrintfW
  01578	e3a03001	 mov         r3, #1
  0157c	e58d3010	 str         r3, [sp, #0x10]
  01580	ea000001	 b           |$LN6@StopDispat|
  01584		 |$LN5@StopDispat|
  01584	e3a03000	 mov         r3, #0
  01588	e58d3010	 str         r3, [sp, #0x10]
  0158c		 |$LN6@StopDispat|

; 575  : 
; 576  :         /* Set the priority of the dispatch thread to be equal to this one,
; 577  :          * so that it shuts down before we free its memory. If this routine
; 578  :          * has been called from SerialDllEntry then RxCharBuffer is set to
; 579  :          * NULL and the dispatch thread is already dead, so just skip the
; 580  :          * code which kills the thread.
; 581  :          */
; 582  :         priority256 = CeGetThreadPriority(pThisThread);

  0158c	e59d0000	 ldr         r0, [sp]
  01590	eb000000	 bl          CeGetThreadPriority
  01594	e58d0014	 str         r0, [sp, #0x14]
  01598	e59d3014	 ldr         r3, [sp, #0x14]
  0159c	e58d3004	 str         r3, [sp, #4]

; 583  :         CeSetThreadPriority(pSerialHead->pDispatchThread, priority256);

  015a0	e59d1004	 ldr         r1, [sp, #4]
  015a4	e59d302c	 ldr         r3, [sp, #0x2C]
  015a8	e2833040	 add         r3, r3, #0x40
  015ac	e5930000	 ldr         r0, [r3]
  015b0	eb000000	 bl          CeSetThreadPriority

; 584  : 
; 585  :         /* Signal the Dispatch thread to die.
; 586  :          */
; 587  :         pSerialHead->KillRxThread = 1;

  015b4	e59d302c	 ldr         r3, [sp, #0x2C]
  015b8	e2833094	 add         r3, r3, #0x94
  015bc	e5933000	 ldr         r3, [r3]
  015c0	e3832001	 orr         r2, r3, #1
  015c4	e59d302c	 ldr         r3, [sp, #0x2C]
  015c8	e2833094	 add         r3, r3, #0x94
  015cc	e5832000	 str         r2, [r3]

; 588  :         DEBUGMSG (ZONE_INIT, (TEXT("\r\nTrying to signal serial thread.\r\n")));

  015d0	e59f312c	 ldr         r3, [pc, #0x12C]
  015d4	e5933440	 ldr         r3, [r3, #0x440]
  015d8	e3130001	 tst         r3, #1
  015dc	0a000004	 beq         |$LN7@StopDispat|
  015e0	e59f0124	 ldr         r0, [pc, #0x124]
  015e4	eb000000	 bl          NKDbgPrintfW
  015e8	e3a03001	 mov         r3, #1
  015ec	e58d3018	 str         r3, [sp, #0x18]
  015f0	ea000001	 b           |$LN8@StopDispat|
  015f4		 |$LN7@StopDispat|
  015f4	e3a03000	 mov         r3, #0
  015f8	e58d3018	 str         r3, [sp, #0x18]
  015fc		 |$LN8@StopDispat|

; 589  :         SetEvent(pSerialHead->hSerialEvent);

  015fc	e59d302c	 ldr         r3, [sp, #0x2C]
  01600	e2833030	 add         r3, r3, #0x30
  01604	e5930000	 ldr         r0, [r3]
  01608	eb000000	 bl          SetEvent

; 590  : 
; 591  :         WaitForSingleObject(pSerialHead->hKillDispatchThread, 3000);

  0160c	e3a01c0b	 mov         r1, #0xB, 24
  01610	e38110b8	 orr         r1, r1, #0xB8
  01614	e59d302c	 ldr         r3, [sp, #0x2C]
  01618	e2833038	 add         r3, r3, #0x38
  0161c	e5930000	 ldr         r0, [r3]
  01620	eb000000	 bl          WaitForSingleObject

; 592  :         Sleep(10);

  01624	e3a0000a	 mov         r0, #0xA
  01628	eb000000	 bl          Sleep

; 593  : 
; 594  :         DEBUGMSG (ZONE_INIT, (TEXT("\r\nTrying to call CloseHandle\r\n")));

  0162c	e59f30d0	 ldr         r3, [pc, #0xD0]
  01630	e5933440	 ldr         r3, [r3, #0x440]
  01634	e3130001	 tst         r3, #1
  01638	0a000004	 beq         |$LN9@StopDispat|
  0163c	e59f00c4	 ldr         r0, [pc, #0xC4]
  01640	eb000000	 bl          NKDbgPrintfW
  01644	e3a03001	 mov         r3, #1
  01648	e58d301c	 str         r3, [sp, #0x1C]
  0164c	ea000001	 b           |$LN10@StopDispat|
  01650		 |$LN9@StopDispat|
  01650	e3a03000	 mov         r3, #0
  01654	e58d301c	 str         r3, [sp, #0x1C]
  01658		 |$LN10@StopDispat|

; 595  : 
; 596  :         CloseHandle(pSerialHead->pDispatchThread);

  01658	e59d302c	 ldr         r3, [sp, #0x2C]
  0165c	e2833040	 add         r3, r3, #0x40
  01660	e5930000	 ldr         r0, [r3]
  01664	eb000000	 bl          CloseHandle

; 597  :         pSerialHead->pDispatchThread = NULL;

  01668	e59d302c	 ldr         r3, [sp, #0x2C]
  0166c	e2832040	 add         r2, r3, #0x40
  01670	e3a03000	 mov         r3, #0
  01674	e5823000	 str         r3, [r2]

; 598  :         DEBUGMSG (ZONE_INIT, (TEXT("\r\nReturned from CloseHandle\r\n")));

  01678	e59f3084	 ldr         r3, [pc, #0x84]
  0167c	e5933440	 ldr         r3, [r3, #0x440]
  01680	e3130001	 tst         r3, #1
  01684	0a000004	 beq         |$LN11@StopDispat|
  01688	e59f0070	 ldr         r0, [pc, #0x70]
  0168c	eb000000	 bl          NKDbgPrintfW
  01690	e3a03001	 mov         r3, #1
  01694	e58d3020	 str         r3, [sp, #0x20]
  01698	ea000001	 b           |$LN12@StopDispat|
  0169c		 |$LN11@StopDispat|
  0169c	e3a03000	 mov         r3, #0
  016a0	e58d3020	 str         r3, [sp, #0x20]
  016a4		 |$LN12@StopDispat|
  016a4		 |$LN2@StopDispat|

; 599  :     }
; 600  : 
; 601  :     if ( pSerialHead->pHWObj ) {

  016a4	e59d302c	 ldr         r3, [sp, #0x2C]
  016a8	e2833028	 add         r3, r3, #0x28
  016ac	e5933000	 ldr         r3, [r3]
  016b0	e3530000	 cmp         r3, #0
  016b4	0a00000b	 beq         |$LN1@StopDispat|

; 602  :         /* Ack any remaining interrupts and unregister the event from the
; 603  :          * logical interrupt.
; 604  :          */
; 605  :         InterruptDone(pSerialHead->pHWObj->dwIntID);

  016b8	e59d302c	 ldr         r3, [sp, #0x2C]
  016bc	e2833028	 add         r3, r3, #0x28
  016c0	e5933000	 ldr         r3, [r3]
  016c4	e2833004	 add         r3, r3, #4
  016c8	e5930000	 ldr         r0, [r3]
  016cc	eb000000	 bl          InterruptDone

; 606  :         InterruptDisable(pSerialHead->pHWObj->dwIntID);

  016d0	e59d302c	 ldr         r3, [sp, #0x2C]
  016d4	e2833028	 add         r3, r3, #0x28
  016d8	e5933000	 ldr         r3, [r3]
  016dc	e2833004	 add         r3, r3, #4
  016e0	e5930000	 ldr         r0, [r3]
  016e4	eb000000	 bl          InterruptDisable
  016e8		 |$LN1@StopDispat|

; 607  :     }
; 608  : 
; 609  :     return(TRUE);

  016e8	e3a03001	 mov         r3, #1
  016ec	e58d3008	 str         r3, [sp, #8]

; 610  : }

  016f0	e59d0008	 ldr         r0, [sp, #8]
  016f4	e28dd024	 add         sp, sp, #0x24
  016f8	e89d6000	 ldmia       sp, {sp, lr}
  016fc	e12fff1e	 bx          lr
  01700		 |$LN16@StopDispat|
  01700		 |$LN17@StopDispat|
  01700	00000000	 DCD         |??_C@_1DM@NEFLPBFN@?$AA?$AN?$AA?6?$AAR?$AAe?$AAt?$AAu?$AAr?$AAn?$AAe?$AAd?$AA?5?$AAf?$AAr?$AAo?$AAm?$AA?5?$AAC?$AAl?$AAo?$AAs?$AAe?$AAH?$AAa?$AAn?$AAd?$AAl?$AAe?$AA?$AN?$AA?6?$AA?$AA@|
  01704		 |$LN18@StopDispat|
  01704	00000000	 DCD         |dpCurSettings|
  01708		 |$LN19@StopDispat|
  01708	00000000	 DCD         |??_C@_1DO@BPPHAKCP@?$AA?$AN?$AA?6?$AAT?$AAr?$AAy?$AAi?$AAn?$AAg?$AA?5?$AAt?$AAo?$AA?5?$AAc?$AAa?$AAl?$AAl?$AA?5?$AAC?$AAl?$AAo?$AAs?$AAe?$AAH?$AAa?$AAn?$AAd?$AAl?$AAe?$AA?$AN?$AA?6?$AA?$AA@|
  0170c		 |$LN20@StopDispat|
  0170c	00000000	 DCD         |??_C@_1EI@FHNFOMPC@?$AA?$AN?$AA?6?$AAT?$AAr?$AAy?$AAi?$AAn?$AAg?$AA?5?$AAt?$AAo?$AA?5?$AAs?$AAi?$AAg?$AAn?$AAa?$AAl?$AA?5?$AAs?$AAe?$AAr?$AAi?$AAa?$AAl?$AA?5?$AAt?$AAh?$AAr?$AAe?$AAa?$AAd@|
  01710		 |$LN21@StopDispat|
  01710	00000000	 DCD         |??_C@_1EI@JFKDHKHE@?$AA?$AN?$AA?6?$AAT?$AAr?$AAy?$AAi?$AAn?$AAg?$AA?5?$AAt?$AAo?$AA?5?$AAc?$AAl?$AAo?$AAs?$AAe?$AA?5?$AAd?$AAi?$AAs?$AAp?$AAa?$AAt?$AAc?$AAh?$AA?5?$AAt?$AAh?$AAr?$AAe?$AAa@|
  01714		 |$M41550|

			 ENDP  ; |StopDispatchThread|

; File c:\wince600\public\common\sdk\inc\kfuncs.h

  00000			 AREA	 |.pdata|, PDATA
|$T41564| DCD	|$LN5@GetCurrent|
	DCD	0x40000601
; Function compile flags: /Odtp

  00000			 AREA	 |.text|, CODE, ARM

  00000		 |GetCurrentThread| PROC

; 351  : _inline HANDLE GetCurrentThread(void) {

  00000		 |$LN5@GetCurrent|
  00000	e24dd004	 sub         sp, sp, #4
  00004		 |$M41561|

; 352  : 	return ((HANDLE)(SH_CURTHREAD+SYS_HANDLE_BASE));

  00004	e3a03041	 mov         r3, #0x41
  00008	e58d3000	 str         r3, [sp]

; 353  : }

  0000c	e59d0000	 ldr         r0, [sp]
  00010	e28dd004	 add         sp, sp, #4
  00014	e12fff1e	 bx          lr
  00018		 |$M41562|

			 ENDP  ; |GetCurrentThread|

	EXPORT	|??_C@_1FE@DAKNODMA@?$AAI?$AAO?$AAC?$AAT?$AAL?$AA?3?$AAR?$AAT?$AAS?$AA_?$AAC?$AAO?$AAN?$AAT?$AAR?$AAO?$AAL?$AA_?$AAH?$AAA?$AAN?$AAD?$AAS?$AAH?$AAA?$AAK?$AAE?$AA?5?$AAS?$AAe?$AAt?$AAt@| [ DATA ] ; `string'
	EXPORT	|??_C@_1FG@IDPAINNF@?$AAI?$AAO?$AAC?$AAT?$AAL?$AA?3?$AAR?$AAT?$AAS?$AA_?$AAC?$AAO?$AAN?$AAT?$AAR?$AAO?$AAL?$AA_?$AAH?$AAA?$AAN?$AAD?$AAS?$AAH?$AAA?$AAK?$AAE?$AA?5?$AAC?$AAl?$AAe?$AAa@| [ DATA ] ; `string'
	EXPORT	|??_C@_1FE@MINNMIFE@?$AAI?$AAO?$AAC?$AAT?$AAL?$AA?3?$AAD?$AAT?$AAR?$AA_?$AAC?$AAO?$AAN?$AAT?$AAR?$AAO?$AAL?$AA_?$AAH?$AAA?$AAN?$AAD?$AAS?$AAH?$AAA?$AAK?$AAE?$AA?5?$AAS?$AAe?$AAt?$AAt@| [ DATA ] ; `string'
	EXPORT	|??_C@_1FG@GEFMJHJN@?$AAI?$AAO?$AAC?$AAT?$AAL?$AA?3?$AAD?$AAT?$AAR?$AA_?$AAC?$AAO?$AAN?$AAT?$AAR?$AAO?$AAL?$AA_?$AAH?$AAA?$AAN?$AAD?$AAS?$AAH?$AAA?$AAK?$AAE?$AA?5?$AAC?$AAl?$AAe?$AAa@| [ DATA ] ; `string'
	EXPORT	|ApplyDCB|
	IMPORT	|memcpy|

  00030			 AREA	 |.pdata|, PDATA
|$T41580| DCD	|$LN37@ApplyDCB|
	DCD	0x40018204
; File c:\wince600\platform\common\src\soc\common_ti_v1\common_ti\serial\com_mdd2\mdd.c

  00000			 AREA	 |.rdata|, DATA, READONLY
|??_C@_1FE@DAKNODMA@?$AAI?$AAO?$AAC?$AAT?$AAL?$AA?3?$AAR?$AAT?$AAS?$AA_?$AAC?$AAO?$AAN?$AAT?$AAR?$AAO?$AAL?$AA_?$AAH?$AAA?$AAN?$AAD?$AAS?$AAH?$AAA?$AAK?$AAE?$AA?5?$AAS?$AAe?$AAt?$AAt@| DCB "I"
	DCB	0x0, "O", 0x0, "C", 0x0, "T", 0x0, "L", 0x0, ":", 0x0, "R"
	DCB	0x0, "T", 0x0, "S", 0x0, "_", 0x0, "C", 0x0, "O", 0x0, "N"
	DCB	0x0, "T", 0x0, "R", 0x0, "O", 0x0, "L", 0x0, "_", 0x0, "H"
	DCB	0x0, "A", 0x0, "N", 0x0, "D", 0x0, "S", 0x0, "H", 0x0, "A"
	DCB	0x0, "K", 0x0, "E", 0x0, " ", 0x0, "S", 0x0, "e", 0x0, "t"
	DCB	0x0, "t", 0x0, "i", 0x0, "n", 0x0, "g", 0x0, " ", 0x0, "R"
	DCB	0x0, "T", 0x0, "S", 0x0, 0xd, 0x0, 0xa, 0x0, 0x0, 0x0 ; `string'

  00000			 AREA	 |.rdata|, DATA, READONLY
|??_C@_1FG@IDPAINNF@?$AAI?$AAO?$AAC?$AAT?$AAL?$AA?3?$AAR?$AAT?$AAS?$AA_?$AAC?$AAO?$AAN?$AAT?$AAR?$AAO?$AAL?$AA_?$AAH?$AAA?$AAN?$AAD?$AAS?$AAH?$AAA?$AAK?$AAE?$AA?5?$AAC?$AAl?$AAe?$AAa@| DCB "I"
	DCB	0x0, "O", 0x0, "C", 0x0, "T", 0x0, "L", 0x0, ":", 0x0, "R"
	DCB	0x0, "T", 0x0, "S", 0x0, "_", 0x0, "C", 0x0, "O", 0x0, "N"
	DCB	0x0, "T", 0x0, "R", 0x0, "O", 0x0, "L", 0x0, "_", 0x0, "H"
	DCB	0x0, "A", 0x0, "N", 0x0, "D", 0x0, "S", 0x0, "H", 0x0, "A"
	DCB	0x0, "K", 0x0, "E", 0x0, " ", 0x0, "C", 0x0, "l", 0x0, "e"
	DCB	0x0, "a", 0x0, "r", 0x0, "i", 0x0, "n", 0x0, "g", 0x0, " "
	DCB	0x0, "R", 0x0, "T", 0x0, "S", 0x0, 0xd, 0x0, 0xa, 0x0, 0x0
	DCB	0x0					; `string'

  00000			 AREA	 |.rdata|, DATA, READONLY
|??_C@_1FE@MINNMIFE@?$AAI?$AAO?$AAC?$AAT?$AAL?$AA?3?$AAD?$AAT?$AAR?$AA_?$AAC?$AAO?$AAN?$AAT?$AAR?$AAO?$AAL?$AA_?$AAH?$AAA?$AAN?$AAD?$AAS?$AAH?$AAA?$AAK?$AAE?$AA?5?$AAS?$AAe?$AAt?$AAt@| DCB "I"
	DCB	0x0, "O", 0x0, "C", 0x0, "T", 0x0, "L", 0x0, ":", 0x0, "D"
	DCB	0x0, "T", 0x0, "R", 0x0, "_", 0x0, "C", 0x0, "O", 0x0, "N"
	DCB	0x0, "T", 0x0, "R", 0x0, "O", 0x0, "L", 0x0, "_", 0x0, "H"
	DCB	0x0, "A", 0x0, "N", 0x0, "D", 0x0, "S", 0x0, "H", 0x0, "A"
	DCB	0x0, "K", 0x0, "E", 0x0, " ", 0x0, "S", 0x0, "e", 0x0, "t"
	DCB	0x0, "t", 0x0, "i", 0x0, "n", 0x0, "g", 0x0, " ", 0x0, "D"
	DCB	0x0, "T", 0x0, "R", 0x0, 0xd, 0x0, 0xa, 0x0, 0x0, 0x0 ; `string'

  00000			 AREA	 |.rdata|, DATA, READONLY
|??_C@_1FG@GEFMJHJN@?$AAI?$AAO?$AAC?$AAT?$AAL?$AA?3?$AAD?$AAT?$AAR?$AA_?$AAC?$AAO?$AAN?$AAT?$AAR?$AAO?$AAL?$AA_?$AAH?$AAA?$AAN?$AAD?$AAS?$AAH?$AAA?$AAK?$AAE?$AA?5?$AAC?$AAl?$AAe?$AAa@| DCB "I"
	DCB	0x0, "O", 0x0, "C", 0x0, "T", 0x0, "L", 0x0, ":", 0x0, "D"
	DCB	0x0, "T", 0x0, "R", 0x0, "_", 0x0, "C", 0x0, "O", 0x0, "N"
	DCB	0x0, "T", 0x0, "R", 0x0, "O", 0x0, "L", 0x0, "_", 0x0, "H"
	DCB	0x0, "A", 0x0, "N", 0x0, "D", 0x0, "S", 0x0, "H", 0x0, "A"
	DCB	0x0, "K", 0x0, "E", 0x0, " ", 0x0, "C", 0x0, "l", 0x0, "e"
	DCB	0x0, "a", 0x0, "r", 0x0, "i", 0x0, "n", 0x0, "g", 0x0, " "
	DCB	0x0, "D", 0x0, "T", 0x0, "R", 0x0, 0xd, 0x0, 0xa, 0x0, 0x0
	DCB	0x0					; `string'
; Function compile flags: /Odtp

  01714			 AREA	 |.text|, CODE, ARM

  01714		 |ApplyDCB| PROC

; 622  : {

  01714		 |$LN37@ApplyDCB|
  01714	e1a0c00d	 mov         r12, sp
  01718	e92d0007	 stmdb       sp!, {r0 - r2}
  0171c	e92d5000	 stmdb       sp!, {r12, lr}
  01720	e24dd02c	 sub         sp, sp, #0x2C
  01724		 |$M41577|

; 623  :     PHWOBJ          pHWObj      = pSerialHead->pHWObj;

  01724	e59d3034	 ldr         r3, [sp, #0x34]
  01728	e2833028	 add         r3, r3, #0x28
  0172c	e5933000	 ldr         r3, [r3]
  01730	e58d3000	 str         r3, [sp]

; 624  : 
; 625  :     if (!(pDCB->XoffLim< pSerialHead->RxBufferInfo.Length &&
; 626  :             pDCB->XonLim< pSerialHead->RxBufferInfo.Length - pDCB->XoffLim )) {

  01734	e59d3038	 ldr         r3, [sp, #0x38]
  01738	e2833010	 add         r3, r3, #0x10
  0173c	e1d320b0	 ldrh        r2, [r3]
  01740	e59d3034	 ldr         r3, [sp, #0x34]
  01744	e28330a4	 add         r3, r3, #0xA4
  01748	e5933000	 ldr         r3, [r3]
  0174c	e1520003	 cmp         r2, r3
  01750	2a00000b	 bcs         |$LN23@ApplyDCB|
  01754	e59d3038	 ldr         r3, [sp, #0x38]
  01758	e283300e	 add         r3, r3, #0xE
  0175c	e1d300b0	 ldrh        r0, [r3]
  01760	e59d3034	 ldr         r3, [sp, #0x34]
  01764	e28310a4	 add         r1, r3, #0xA4
  01768	e59d3038	 ldr         r3, [sp, #0x38]
  0176c	e2833010	 add         r3, r3, #0x10
  01770	e1d320b0	 ldrh        r2, [r3]
  01774	e5913000	 ldr         r3, [r1]
  01778	e0433002	 sub         r3, r3, r2
  0177c	e1500003	 cmp         r0, r3
  01780	3a000002	 bcc         |$LN24@ApplyDCB|
  01784		 |$LN23@ApplyDCB|

; 627  :         return FALSE;

  01784	e3a03000	 mov         r3, #0
  01788	e58d3004	 str         r3, [sp, #4]
  0178c	ea000159	 b           |$LN25@ApplyDCB|
  01790		 |$LN24@ApplyDCB|

; 628  :     }
; 629  :     
; 630  :     if (pDCB->fOutX || pDCB->fInX ) {

  01790	e59d3038	 ldr         r3, [sp, #0x38]
  01794	e2833008	 add         r3, r3, #8
  01798	e5933000	 ldr         r3, [r3]
  0179c	e3130c01	 tst         r3, #1, 24
  017a0	1a000004	 bne         |$LN21@ApplyDCB|
  017a4	e59d3038	 ldr         r3, [sp, #0x38]
  017a8	e2833008	 add         r3, r3, #8
  017ac	e5933000	 ldr         r3, [r3]
  017b0	e3130c02	 tst         r3, #2, 24
  017b4	0a00000a	 beq         |$LN22@ApplyDCB|
  017b8		 |$LN21@ApplyDCB|

; 631  :         if (pDCB->XonChar == pDCB->XoffChar)

  017b8	e59d3038	 ldr         r3, [sp, #0x38]
  017bc	e2833015	 add         r3, r3, #0x15
  017c0	e1d320d0	 ldrsb       r2, [r3]
  017c4	e59d3038	 ldr         r3, [sp, #0x38]
  017c8	e2833016	 add         r3, r3, #0x16
  017cc	e1d330d0	 ldrsb       r3, [r3]
  017d0	e1520003	 cmp         r2, r3
  017d4	1a000002	 bne         |$LN20@ApplyDCB|

; 632  :             return FALSE;

  017d8	e3a03000	 mov         r3, #0
  017dc	e58d3004	 str         r3, [sp, #4]
  017e0	ea000144	 b           |$LN25@ApplyDCB|
  017e4		 |$LN20@ApplyDCB|
  017e4		 |$LN22@ApplyDCB|

; 633  :     } 
; 634  : 
; 635  :     if ( !pHWObj->pFuncTbl->HWSetDCB(pSerialHead->pHWHead,
; 636  :                                      pDCB) ) {

  017e4	e59d1038	 ldr         r1, [sp, #0x38]
  017e8	e59d3034	 ldr         r3, [sp, #0x34]
  017ec	e283302c	 add         r3, r3, #0x2C
  017f0	e5930000	 ldr         r0, [r3]
  017f4	e59d3000	 ldr         r3, [sp]
  017f8	e2833008	 add         r3, r3, #8
  017fc	e5933000	 ldr         r3, [r3]
  01800	e283306c	 add         r3, r3, #0x6C
  01804	e5933000	 ldr         r3, [r3]
  01808	e1a0e00f	 mov         lr, pc
  0180c	e12fff13	 bx          r3
  01810	e58d0008	 str         r0, [sp, #8]
  01814	e59d3008	 ldr         r3, [sp, #8]
  01818	e3530000	 cmp         r3, #0
  0181c	1a000002	 bne         |$LN19@ApplyDCB|

; 637  :         return(FALSE);

  01820	e3a03000	 mov         r3, #0
  01824	e58d3004	 str         r3, [sp, #4]
  01828	ea000132	 b           |$LN25@ApplyDCB|
  0182c		 |$LN19@ApplyDCB|

; 638  :     }
; 639  : 
; 640  :     if ( !fOpen ) {

  0182c	e59d303c	 ldr         r3, [sp, #0x3C]
  01830	e3530000	 cmp         r3, #0
  01834	1a000002	 bne         |$LN18@ApplyDCB|

; 641  :         return(TRUE);

  01838	e3a03001	 mov         r3, #1
  0183c	e58d3004	 str         r3, [sp, #4]
  01840	ea00012c	 b           |$LN25@ApplyDCB|
  01844		 |$LN18@ApplyDCB|

; 642  :     }
; 643  :         // If PDD SetDCB was successful, save the supplied DCB and
; 644  :         // configure port to match these settings.
; 645  :     memcpy(&(pSerialHead->DCB), pDCB, sizeof(DCB));

  01844	e3a0201c	 mov         r2, #0x1C
  01848	e59d1038	 ldr         r1, [sp, #0x38]
  0184c	e59d3034	 ldr         r3, [sp, #0x34]
  01850	e2830060	 add         r0, r3, #0x60
  01854	eb000000	 bl          memcpy

; 646  : 
; 647  :     if ( pSerialHead->DCB.fDtrControl == DTR_CONTROL_DISABLE ) {

  01858	e59d3034	 ldr         r3, [sp, #0x34]
  0185c	e2833068	 add         r3, r3, #0x68
  01860	e5933000	 ldr         r3, [r3]
  01864	e1a03d03	 mov         r3, r3, lsl #26
  01868	e1b03f23	 movs        r3, r3, lsr #30
  0186c	1a00000a	 bne         |$LN17@ApplyDCB|

; 648  :         pHWObj->pFuncTbl->HWClearDTR(pSerialHead->pHWHead);

  01870	e59d3034	 ldr         r3, [sp, #0x34]
  01874	e283302c	 add         r3, r3, #0x2C
  01878	e5930000	 ldr         r0, [r3]
  0187c	e59d3000	 ldr         r3, [sp]
  01880	e2833008	 add         r3, r3, #8
  01884	e5933000	 ldr         r3, [r3]
  01888	e2833034	 add         r3, r3, #0x34
  0188c	e5933000	 ldr         r3, [r3]
  01890	e1a0e00f	 mov         lr, pc
  01894	e12fff13	 bx          r3
  01898	ea000010	 b           |$LN16@ApplyDCB|
  0189c		 |$LN17@ApplyDCB|

; 649  :     } else if ( pSerialHead->DCB.fDtrControl == DTR_CONTROL_ENABLE ) {

  0189c	e59d3034	 ldr         r3, [sp, #0x34]
  018a0	e2833068	 add         r3, r3, #0x68
  018a4	e5933000	 ldr         r3, [r3]
  018a8	e1a03d03	 mov         r3, r3, lsl #26
  018ac	e1a03f23	 mov         r3, r3, lsr #30
  018b0	e3530001	 cmp         r3, #1
  018b4	1a000009	 bne         |$LN15@ApplyDCB|

; 650  :         pHWObj->pFuncTbl->HWSetDTR(pSerialHead->pHWHead);

  018b8	e59d3034	 ldr         r3, [sp, #0x34]
  018bc	e283302c	 add         r3, r3, #0x2C
  018c0	e5930000	 ldr         r0, [r3]
  018c4	e59d3000	 ldr         r3, [sp]
  018c8	e2833008	 add         r3, r3, #8
  018cc	e5933000	 ldr         r3, [r3]
  018d0	e2833038	 add         r3, r3, #0x38
  018d4	e5933000	 ldr         r3, [r3]
  018d8	e1a0e00f	 mov         lr, pc
  018dc	e12fff13	 bx          r3
  018e0		 |$LN15@ApplyDCB|
  018e0		 |$LN16@ApplyDCB|

; 651  :     }
; 652  : 
; 653  :     if ( pSerialHead->DCB.fRtsControl == RTS_CONTROL_DISABLE ) {

  018e0	e59d3034	 ldr         r3, [sp, #0x34]
  018e4	e2833068	 add         r3, r3, #0x68
  018e8	e5933000	 ldr         r3, [r3]
  018ec	e1a03903	 mov         r3, r3, lsl #18
  018f0	e1b03f23	 movs        r3, r3, lsr #30
  018f4	1a00000a	 bne         |$LN14@ApplyDCB|

; 654  :         pHWObj->pFuncTbl->HWClearRTS(pSerialHead->pHWHead);

  018f8	e59d3034	 ldr         r3, [sp, #0x34]
  018fc	e283302c	 add         r3, r3, #0x2C
  01900	e5930000	 ldr         r0, [r3]
  01904	e59d3000	 ldr         r3, [sp]
  01908	e2833008	 add         r3, r3, #8
  0190c	e5933000	 ldr         r3, [r3]
  01910	e283303c	 add         r3, r3, #0x3C
  01914	e5933000	 ldr         r3, [r3]
  01918	e1a0e00f	 mov         lr, pc
  0191c	e12fff13	 bx          r3
  01920	ea000010	 b           |$LN13@ApplyDCB|
  01924		 |$LN14@ApplyDCB|

; 655  :     } else if ( pSerialHead->DCB.fRtsControl == RTS_CONTROL_ENABLE ) {

  01924	e59d3034	 ldr         r3, [sp, #0x34]
  01928	e2833068	 add         r3, r3, #0x68
  0192c	e5933000	 ldr         r3, [r3]
  01930	e1a03903	 mov         r3, r3, lsl #18
  01934	e1a03f23	 mov         r3, r3, lsr #30
  01938	e3530001	 cmp         r3, #1
  0193c	1a000009	 bne         |$LN12@ApplyDCB|

; 656  :         pHWObj->pFuncTbl->HWSetRTS(pSerialHead->pHWHead);

  01940	e59d3034	 ldr         r3, [sp, #0x34]
  01944	e283302c	 add         r3, r3, #0x2C
  01948	e5930000	 ldr         r0, [r3]
  0194c	e59d3000	 ldr         r3, [sp]
  01950	e2833008	 add         r3, r3, #8
  01954	e5933000	 ldr         r3, [r3]
  01958	e2833040	 add         r3, r3, #0x40
  0195c	e5933000	 ldr         r3, [r3]
  01960	e1a0e00f	 mov         lr, pc
  01964	e12fff13	 bx          r3
  01968		 |$LN12@ApplyDCB|
  01968		 |$LN13@ApplyDCB|

; 657  :     }
; 658  : 
; 659  :     if ( pSerialHead->DCB.fDtrControl == DTR_CONTROL_HANDSHAKE ) {

  01968	e59d3034	 ldr         r3, [sp, #0x34]
  0196c	e2833068	 add         r3, r3, #0x68
  01970	e5933000	 ldr         r3, [r3]
  01974	e1a03d03	 mov         r3, r3, lsl #26
  01978	e1a03f23	 mov         r3, r3, lsr #30
  0197c	e3530002	 cmp         r3, #2
  01980	1a00005c	 bne         |$LN11@ApplyDCB|

; 660  :         if ( (!pSerialHead->DtrFlow) && IsIncreasedToFlowOff(pSerialHead)) {

  01984	e59d3034	 ldr         r3, [sp, #0x34]
  01988	e2833094	 add         r3, r3, #0x94
  0198c	e5933000	 ldr         r3, [r3]
  01990	e3130010	 tst         r3, #0x10
  01994	1a00002d	 bne         |$LN10@ApplyDCB|
  01998	e59d0034	 ldr         r0, [sp, #0x34]
  0199c	eb000000	 bl          RxBytesAvail
  019a0	e58d000c	 str         r0, [sp, #0xC]
  019a4	e59d3034	 ldr         r3, [sp, #0x34]
  019a8	e2833070	 add         r3, r3, #0x70
  019ac	e1d310b0	 ldrh        r1, [r3]
  019b0	e59d3034	 ldr         r3, [sp, #0x34]
  019b4	e28330a4	 add         r3, r3, #0xA4
  019b8	e5932000	 ldr         r2, [r3]
  019bc	e59d300c	 ldr         r3, [sp, #0xC]
  019c0	e0423003	 sub         r3, r2, r3
  019c4	e1510003	 cmp         r1, r3
  019c8	3a000020	 bcc         |$LN10@ApplyDCB|

; 661  :             DEBUGMSG (ZONE_READ|ZONE_FLOW,
; 662  :                       (TEXT("IOCTL:DTR_CONTROL_HANDSHAKE Clearing DTR\r\n")));

  019cc	e59f3338	 ldr         r3, [pc, #0x338]
  019d0	e5933440	 ldr         r3, [r3, #0x440]
  019d4	e2032004	 and         r2, r3, #4
  019d8	e59f332c	 ldr         r3, [pc, #0x32C]
  019dc	e5933440	 ldr         r3, [r3, #0x440]
  019e0	e2033c02	 and         r3, r3, #2, 24
  019e4	e1923003	 orrs        r3, r2, r3
  019e8	0a000004	 beq         |$LN27@ApplyDCB|
  019ec	e59f0324	 ldr         r0, [pc, #0x324]
  019f0	eb000000	 bl          NKDbgPrintfW
  019f4	e3a03001	 mov         r3, #1
  019f8	e58d3010	 str         r3, [sp, #0x10]
  019fc	ea000001	 b           |$LN28@ApplyDCB|
  01a00		 |$LN27@ApplyDCB|
  01a00	e3a03000	 mov         r3, #0
  01a04	e58d3010	 str         r3, [sp, #0x10]
  01a08		 |$LN28@ApplyDCB|

; 663  :             pSerialHead->DtrFlow = 1;

  01a08	e59d3034	 ldr         r3, [sp, #0x34]
  01a0c	e2833094	 add         r3, r3, #0x94
  01a10	e5933000	 ldr         r3, [r3]
  01a14	e3832010	 orr         r2, r3, #0x10
  01a18	e59d3034	 ldr         r3, [sp, #0x34]
  01a1c	e2833094	 add         r3, r3, #0x94
  01a20	e5832000	 str         r2, [r3]

; 664  :             pHWObj->pFuncTbl->HWClearDTR(pSerialHead->pHWHead);

  01a24	e59d3034	 ldr         r3, [sp, #0x34]
  01a28	e283302c	 add         r3, r3, #0x2C
  01a2c	e5930000	 ldr         r0, [r3]
  01a30	e59d3000	 ldr         r3, [sp]
  01a34	e2833008	 add         r3, r3, #8
  01a38	e5933000	 ldr         r3, [r3]
  01a3c	e2833034	 add         r3, r3, #0x34
  01a40	e5933000	 ldr         r3, [r3]
  01a44	e1a0e00f	 mov         lr, pc
  01a48	e12fff13	 bx          r3
  01a4c	ea000029	 b           |$LN9@ApplyDCB|
  01a50		 |$LN10@ApplyDCB|

; 665  :         } else if (IsReducedToFlowOn(pSerialHead)){

  01a50	e59d0034	 ldr         r0, [sp, #0x34]
  01a54	eb000000	 bl          RxBytesAvail
  01a58	e58d0014	 str         r0, [sp, #0x14]
  01a5c	e59d3034	 ldr         r3, [sp, #0x34]
  01a60	e283306e	 add         r3, r3, #0x6E
  01a64	e1d320b0	 ldrh        r2, [r3]
  01a68	e59d3014	 ldr         r3, [sp, #0x14]
  01a6c	e1520003	 cmp         r2, r3
  01a70	3a000020	 bcc         |$LN8@ApplyDCB|

; 666  :             DEBUGMSG (ZONE_READ|ZONE_FLOW,
; 667  :                       (TEXT("IOCTL:DTR_CONTROL_HANDSHAKE Setting DTR\r\n")));

  01a74	e59f3290	 ldr         r3, [pc, #0x290]
  01a78	e5933440	 ldr         r3, [r3, #0x440]
  01a7c	e2032004	 and         r2, r3, #4
  01a80	e59f3284	 ldr         r3, [pc, #0x284]
  01a84	e5933440	 ldr         r3, [r3, #0x440]
  01a88	e2033c02	 and         r3, r3, #2, 24
  01a8c	e1923003	 orrs        r3, r2, r3
  01a90	0a000004	 beq         |$LN29@ApplyDCB|
  01a94	e59f0278	 ldr         r0, [pc, #0x278]
  01a98	eb000000	 bl          NKDbgPrintfW
  01a9c	e3a03001	 mov         r3, #1
  01aa0	e58d3018	 str         r3, [sp, #0x18]
  01aa4	ea000001	 b           |$LN30@ApplyDCB|
  01aa8		 |$LN29@ApplyDCB|
  01aa8	e3a03000	 mov         r3, #0
  01aac	e58d3018	 str         r3, [sp, #0x18]
  01ab0		 |$LN30@ApplyDCB|

; 668  :             pSerialHead->DtrFlow = 0;

  01ab0	e59d3034	 ldr         r3, [sp, #0x34]
  01ab4	e2833094	 add         r3, r3, #0x94
  01ab8	e5932000	 ldr         r2, [r3]
  01abc	e3e03010	 mvn         r3, #0x10
  01ac0	e0022003	 and         r2, r2, r3
  01ac4	e59d3034	 ldr         r3, [sp, #0x34]
  01ac8	e2833094	 add         r3, r3, #0x94
  01acc	e5832000	 str         r2, [r3]

; 669  :             pHWObj->pFuncTbl->HWSetDTR(pSerialHead->pHWHead);

  01ad0	e59d3034	 ldr         r3, [sp, #0x34]
  01ad4	e283302c	 add         r3, r3, #0x2C
  01ad8	e5930000	 ldr         r0, [r3]
  01adc	e59d3000	 ldr         r3, [sp]
  01ae0	e2833008	 add         r3, r3, #8
  01ae4	e5933000	 ldr         r3, [r3]
  01ae8	e2833038	 add         r3, r3, #0x38
  01aec	e5933000	 ldr         r3, [r3]
  01af0	e1a0e00f	 mov         lr, pc
  01af4	e12fff13	 bx          r3
  01af8		 |$LN8@ApplyDCB|
  01af8		 |$LN9@ApplyDCB|
  01af8		 |$LN11@ApplyDCB|

; 670  :         }
; 671  :     }
; 672  :     if ( pSerialHead->DCB.fRtsControl == RTS_CONTROL_HANDSHAKE ) {

  01af8	e59d3034	 ldr         r3, [sp, #0x34]
  01afc	e2833068	 add         r3, r3, #0x68
  01b00	e5933000	 ldr         r3, [r3]
  01b04	e1a03903	 mov         r3, r3, lsl #18
  01b08	e1a03f23	 mov         r3, r3, lsr #30
  01b0c	e3530002	 cmp         r3, #2
  01b10	1a00005c	 bne         |$LN7@ApplyDCB|

; 673  :         if ( (!pSerialHead->RtsFlow) && IsIncreasedToFlowOff(pSerialHead)){

  01b14	e59d3034	 ldr         r3, [sp, #0x34]
  01b18	e2833094	 add         r3, r3, #0x94
  01b1c	e5933000	 ldr         r3, [r3]
  01b20	e3130020	 tst         r3, #0x20
  01b24	1a00002d	 bne         |$LN6@ApplyDCB|
  01b28	e59d0034	 ldr         r0, [sp, #0x34]
  01b2c	eb000000	 bl          RxBytesAvail
  01b30	e58d001c	 str         r0, [sp, #0x1C]
  01b34	e59d3034	 ldr         r3, [sp, #0x34]
  01b38	e2833070	 add         r3, r3, #0x70
  01b3c	e1d310b0	 ldrh        r1, [r3]
  01b40	e59d3034	 ldr         r3, [sp, #0x34]
  01b44	e28330a4	 add         r3, r3, #0xA4
  01b48	e5932000	 ldr         r2, [r3]
  01b4c	e59d301c	 ldr         r3, [sp, #0x1C]
  01b50	e0423003	 sub         r3, r2, r3
  01b54	e1510003	 cmp         r1, r3
  01b58	3a000020	 bcc         |$LN6@ApplyDCB|

; 674  :             DEBUGMSG (ZONE_READ|ZONE_FLOW,
; 675  :                       (TEXT("IOCTL:RTS_CONTROL_HANDSHAKE Clearing RTS\r\n")));

  01b5c	e59f31a8	 ldr         r3, [pc, #0x1A8]
  01b60	e5933440	 ldr         r3, [r3, #0x440]
  01b64	e2032004	 and         r2, r3, #4
  01b68	e59f319c	 ldr         r3, [pc, #0x19C]
  01b6c	e5933440	 ldr         r3, [r3, #0x440]
  01b70	e2033c02	 and         r3, r3, #2, 24
  01b74	e1923003	 orrs        r3, r2, r3
  01b78	0a000004	 beq         |$LN31@ApplyDCB|
  01b7c	e59f018c	 ldr         r0, [pc, #0x18C]
  01b80	eb000000	 bl          NKDbgPrintfW
  01b84	e3a03001	 mov         r3, #1
  01b88	e58d3020	 str         r3, [sp, #0x20]
  01b8c	ea000001	 b           |$LN32@ApplyDCB|
  01b90		 |$LN31@ApplyDCB|
  01b90	e3a03000	 mov         r3, #0
  01b94	e58d3020	 str         r3, [sp, #0x20]
  01b98		 |$LN32@ApplyDCB|

; 676  :             pSerialHead->RtsFlow = 1;

  01b98	e59d3034	 ldr         r3, [sp, #0x34]
  01b9c	e2833094	 add         r3, r3, #0x94
  01ba0	e5933000	 ldr         r3, [r3]
  01ba4	e3832020	 orr         r2, r3, #0x20
  01ba8	e59d3034	 ldr         r3, [sp, #0x34]
  01bac	e2833094	 add         r3, r3, #0x94
  01bb0	e5832000	 str         r2, [r3]

; 677  :             pHWObj->pFuncTbl->HWClearRTS(pSerialHead->pHWHead);

  01bb4	e59d3034	 ldr         r3, [sp, #0x34]
  01bb8	e283302c	 add         r3, r3, #0x2C
  01bbc	e5930000	 ldr         r0, [r3]
  01bc0	e59d3000	 ldr         r3, [sp]
  01bc4	e2833008	 add         r3, r3, #8
  01bc8	e5933000	 ldr         r3, [r3]
  01bcc	e283303c	 add         r3, r3, #0x3C
  01bd0	e5933000	 ldr         r3, [r3]
  01bd4	e1a0e00f	 mov         lr, pc
  01bd8	e12fff13	 bx          r3
  01bdc	ea000029	 b           |$LN5@ApplyDCB|
  01be0		 |$LN6@ApplyDCB|

; 678  :         } else if (IsReducedToFlowOn(pSerialHead)) {

  01be0	e59d0034	 ldr         r0, [sp, #0x34]
  01be4	eb000000	 bl          RxBytesAvail
  01be8	e58d0024	 str         r0, [sp, #0x24]
  01bec	e59d3034	 ldr         r3, [sp, #0x34]
  01bf0	e283306e	 add         r3, r3, #0x6E
  01bf4	e1d320b0	 ldrh        r2, [r3]
  01bf8	e59d3024	 ldr         r3, [sp, #0x24]
  01bfc	e1520003	 cmp         r2, r3
  01c00	3a000020	 bcc         |$LN4@ApplyDCB|

; 679  :             DEBUGMSG (ZONE_READ|ZONE_FLOW,
; 680  :                       (TEXT("IOCTL:RTS_CONTROL_HANDSHAKE Setting RTS\r\n")));

  01c04	e59f3100	 ldr         r3, [pc, #0x100]
  01c08	e5933440	 ldr         r3, [r3, #0x440]
  01c0c	e2032004	 and         r2, r3, #4
  01c10	e59f30f4	 ldr         r3, [pc, #0xF4]
  01c14	e5933440	 ldr         r3, [r3, #0x440]
  01c18	e2033c02	 and         r3, r3, #2, 24
  01c1c	e1923003	 orrs        r3, r2, r3
  01c20	0a000004	 beq         |$LN33@ApplyDCB|
  01c24	e59f00dc	 ldr         r0, [pc, #0xDC]
  01c28	eb000000	 bl          NKDbgPrintfW
  01c2c	e3a03001	 mov         r3, #1
  01c30	e58d3028	 str         r3, [sp, #0x28]
  01c34	ea000001	 b           |$LN34@ApplyDCB|
  01c38		 |$LN33@ApplyDCB|
  01c38	e3a03000	 mov         r3, #0
  01c3c	e58d3028	 str         r3, [sp, #0x28]
  01c40		 |$LN34@ApplyDCB|

; 681  :             pSerialHead->RtsFlow = 0;

  01c40	e59d3034	 ldr         r3, [sp, #0x34]
  01c44	e2833094	 add         r3, r3, #0x94
  01c48	e5932000	 ldr         r2, [r3]
  01c4c	e3e03020	 mvn         r3, #0x20
  01c50	e0022003	 and         r2, r2, r3
  01c54	e59d3034	 ldr         r3, [sp, #0x34]
  01c58	e2833094	 add         r3, r3, #0x94
  01c5c	e5832000	 str         r2, [r3]

; 682  :             pHWObj->pFuncTbl->HWSetRTS(pSerialHead->pHWHead);

  01c60	e59d3034	 ldr         r3, [sp, #0x34]
  01c64	e283302c	 add         r3, r3, #0x2C
  01c68	e5930000	 ldr         r0, [r3]
  01c6c	e59d3000	 ldr         r3, [sp]
  01c70	e2833008	 add         r3, r3, #8
  01c74	e5933000	 ldr         r3, [r3]
  01c78	e2833040	 add         r3, r3, #0x40
  01c7c	e5933000	 ldr         r3, [r3]
  01c80	e1a0e00f	 mov         lr, pc
  01c84	e12fff13	 bx          r3
  01c88		 |$LN4@ApplyDCB|
  01c88		 |$LN5@ApplyDCB|
  01c88		 |$LN7@ApplyDCB|

; 683  :         }
; 684  :     }
; 685  : 
; 686  :     if ( pSerialHead->DCB.fOutX || pSerialHead->DCB.fInX ) {

  01c88	e59d3034	 ldr         r3, [sp, #0x34]
  01c8c	e2833068	 add         r3, r3, #0x68
  01c90	e5933000	 ldr         r3, [r3]
  01c94	e3130c01	 tst         r3, #1, 24
  01c98	1a000004	 bne         |$LN2@ApplyDCB|
  01c9c	e59d3034	 ldr         r3, [sp, #0x34]
  01ca0	e2833068	 add         r3, r3, #0x68
  01ca4	e5933000	 ldr         r3, [r3]
  01ca8	e3130c02	 tst         r3, #2, 24
  01cac	0a000007	 beq         |$LN3@ApplyDCB|
  01cb0		 |$LN2@ApplyDCB|

; 687  :         pSerialHead->XFlow = 1;

  01cb0	e59d3034	 ldr         r3, [sp, #0x34]
  01cb4	e2833094	 add         r3, r3, #0x94
  01cb8	e5933000	 ldr         r3, [r3]
  01cbc	e3832002	 orr         r2, r3, #2
  01cc0	e59d3034	 ldr         r3, [sp, #0x34]
  01cc4	e2833094	 add         r3, r3, #0x94
  01cc8	e5832000	 str         r2, [r3]

; 688  :     } else {

  01ccc	ea000007	 b           |$LN1@ApplyDCB|
  01cd0		 |$LN3@ApplyDCB|

; 689  :         pSerialHead->XFlow = 0;

  01cd0	e59d3034	 ldr         r3, [sp, #0x34]
  01cd4	e2833094	 add         r3, r3, #0x94
  01cd8	e5932000	 ldr         r2, [r3]
  01cdc	e3e03002	 mvn         r3, #2
  01ce0	e0022003	 and         r2, r2, r3
  01ce4	e59d3034	 ldr         r3, [sp, #0x34]
  01ce8	e2833094	 add         r3, r3, #0x94
  01cec	e5832000	 str         r2, [r3]
  01cf0		 |$LN1@ApplyDCB|

; 690  :     }
; 691  :     return(TRUE);

  01cf0	e3a03001	 mov         r3, #1
  01cf4	e58d3004	 str         r3, [sp, #4]
  01cf8		 |$LN25@ApplyDCB|

; 692  : }

  01cf8	e59d0004	 ldr         r0, [sp, #4]
  01cfc	e28dd02c	 add         sp, sp, #0x2C
  01d00	e89d6000	 ldmia       sp, {sp, lr}
  01d04	e12fff1e	 bx          lr
  01d08		 |$LN38@ApplyDCB|
  01d08		 |$LN39@ApplyDCB|
  01d08	00000000	 DCD         |??_C@_1FE@DAKNODMA@?$AAI?$AAO?$AAC?$AAT?$AAL?$AA?3?$AAR?$AAT?$AAS?$AA_?$AAC?$AAO?$AAN?$AAT?$AAR?$AAO?$AAL?$AA_?$AAH?$AAA?$AAN?$AAD?$AAS?$AAH?$AAA?$AAK?$AAE?$AA?5?$AAS?$AAe?$AAt?$AAt@|
  01d0c		 |$LN40@ApplyDCB|
  01d0c	00000000	 DCD         |dpCurSettings|
  01d10		 |$LN41@ApplyDCB|
  01d10	00000000	 DCD         |??_C@_1FG@IDPAINNF@?$AAI?$AAO?$AAC?$AAT?$AAL?$AA?3?$AAR?$AAT?$AAS?$AA_?$AAC?$AAO?$AAN?$AAT?$AAR?$AAO?$AAL?$AA_?$AAH?$AAA?$AAN?$AAD?$AAS?$AAH?$AAA?$AAK?$AAE?$AA?5?$AAC?$AAl?$AAe?$AAa@|
  01d14		 |$LN42@ApplyDCB|
  01d14	00000000	 DCD         |??_C@_1FE@MINNMIFE@?$AAI?$AAO?$AAC?$AAT?$AAL?$AA?3?$AAD?$AAT?$AAR?$AA_?$AAC?$AAO?$AAN?$AAT?$AAR?$AAO?$AAL?$AA_?$AAH?$AAA?$AAN?$AAD?$AAS?$AAH?$AAA?$AAK?$AAE?$AA?5?$AAS?$AAe?$AAt?$AAt@|
  01d18		 |$LN43@ApplyDCB|
  01d18	00000000	 DCD         |??_C@_1FG@GEFMJHJN@?$AAI?$AAO?$AAC?$AAT?$AAL?$AA?3?$AAD?$AAT?$AAR?$AA_?$AAC?$AAO?$AAN?$AAT?$AAR?$AAO?$AAL?$AA_?$AAH?$AAA?$AAN?$AAD?$AAS?$AAH?$AAA?$AAK?$AAE?$AA?5?$AAC?$AAl?$AAe?$AAa@|
  01d1c		 |$M41578|

			 ENDP  ; |ApplyDCB|

	EXPORT	|??_C@_1BI@NFEFLGML@?$AA?9?$AAC?$AAO?$AAM?$AA_?$AAI?$AAn?$AAi?$AAt?$AA?$AN?$AA?6?$AA?$AA@| [ DATA ] ; `string'
	EXPORT	|??_C@_1EI@FNCKFJMM@?$AAR?$AAx?$AAB?$AAu?$AAf?$AAf?$AAe?$AAr?$AA?5?$AAi?$AAn?$AAi?$AAt?$AA?8?$AAe?$AAd?$AA?5?$AAw?$AAi?$AAt?$AAh?$AA?5?$AAs?$AAt?$AAa?$AAr?$AAt?$AA?5?$AAa?$AAt?$AA?5?$AA?$CF@| [ DATA ] ; `string'
	EXPORT	|??_C@_1CC@POKINGEF@?$AAR?$AAx?$AAH?$AAe?$AAa?$AAd?$AA?5?$AAi?$AAn?$AAi?$AAt?$AA?8?$AAe?$AAd?$AA?$AN?$AA?6?$AA?$AA@| [ DATA ] ; `string'
	EXPORT	|??_C@_1GG@FCOIFIDD@?$AAE?$AAr?$AAr?$AAo?$AAr?$AA?5?$AAa?$AAl?$AAl?$AAo?$AAc?$AAa?$AAt?$AAi?$AAn?$AAg?$AA?5?$AAr?$AAe?$AAc?$AAe?$AAi?$AAv?$AAe?$AA?5?$AAb?$AAu?$AAf?$AAf?$AAe?$AAr?$AA?0@| [ DATA ] ; `string'
	EXPORT	|??_C@_1DE@CLLKJMN@?$AAB?$AAa?$AAc?$AAk?$AA?5?$AAf?$AAr?$AAo?$AAm?$AA?5?$AAh?$AAa?$AAr?$AAd?$AAw?$AAa?$AAr?$AAe?$AA?5?$AAi?$AAn?$AAi?$AAt?$AA?$AN?$AA?6?$AA?$AA@| [ DATA ] ; `string'
	EXPORT	|??_C@_1GG@LFOFGOL@?$AAH?$AAa?$AAr?$AAd?$AAw?$AAa?$AAr?$AAe?$AA?5?$AAd?$AAo?$AAe?$AAs?$AAn?$AA?8?$AAt?$AA?5?$AAi?$AAn?$AAi?$AAt?$AA?5?$AAc?$AAo?$AAr?$AAr?$AAe?$AAc?$AAt?$AAl?$AAy?$AA?0@| [ DATA ] ; `string'
	EXPORT	|??_C@_1EA@DFMKFADA@?$AAA?$AAb?$AAo?$AAu?$AAt?$AA?5?$AAt?$AAo?$AA?5?$AAc?$AAa?$AAl?$AAl?$AA?5?$AAH?$AAW?$AAI?$AAn?$AAi?$AAt?$AA?$CI?$AA?$CF?$AAs?$AA?0?$AA0?$AAx?$AA?$CF?$AAX?$AA?$CJ?$AA?$AN?$AA?6?$AA?$AA@| [ DATA ] ; `string'
	EXPORT	|??_C@_1FI@OHFMJBNJ@?$AAE?$AAr?$AAr?$AAo?$AAr?$AA?5?$AAi?$AAn?$AA?5?$AAG?$AAe?$AAt?$AAS?$AAe?$AAr?$AAi?$AAa?$AAl?$AAO?$AAb?$AAj?$AAe?$AAc?$AAt?$AA?0?$AA?5?$AAC?$AAO?$AAM?$AA_?$AAI?$AAn@| [ DATA ] ; `string'
	EXPORT	|??_C@_1BM@EFMMMFDH@?$AAD?$AAe?$AAv?$AAI?$AAn?$AAd?$AAe?$AAx?$AA?5?$AA?$CF?$AAX?$AA?$AN?$AA?6?$AA?$AA@| [ DATA ] ; `string'
	EXPORT	|??_C@_1GI@IGAGBKDE@?$AAF?$AAa?$AAi?$AAl?$AAe?$AAd?$AA?5?$AAt?$AAo?$AA?5?$AAg?$AAe?$AAt?$AA?5?$AAP?$AAr?$AAi?$AAo?$AAr?$AAi?$AAt?$AAy?$AA2?$AA5?$AA6?$AA?5?$AAv?$AAa?$AAl?$AAu?$AAe?$AA?0@| [ DATA ] ; `string'
	EXPORT	|??_C@_1BI@BHLBGEOK@?$AAP?$AAr?$AAi?$AAo?$AAr?$AAi?$AAt?$AAy?$AA2?$AA5?$AA6?$AA?$AA@| [ DATA ] ; `string'
	EXPORT	|??_C@_1HA@FDKKDCHL@?$AAF?$AAa?$AAi?$AAl?$AAe?$AAd?$AA?5?$AAt?$AAo?$AA?5?$AAg?$AAe?$AAt?$AA?5?$AAD?$AAe?$AAv?$AAi?$AAc?$AAe?$AAA?$AAr?$AAr?$AAa?$AAy?$AAI?$AAn?$AAd?$AAe?$AAx?$AA?5?$AAv@| [ DATA ] ; `string'
	EXPORT	|??_C@_1CC@KMPFMANC@?$AAD?$AAe?$AAv?$AAi?$AAc?$AAe?$AAA?$AAr?$AAr?$AAa?$AAy?$AAI?$AAn?$AAd?$AAe?$AAx?$AA?$AA@| [ DATA ] ; `string'
	EXPORT	|??_C@_1FK@GNPHIAEF@?$AAF?$AAa?$AAi?$AAl?$AAe?$AAd?$AA?5?$AAt?$AAo?$AA?5?$AAo?$AAp?$AAe?$AAn?$AA?5?$AAd?$AAe?$AAv?$AAk?$AAe?$AAy?$AAp?$AAa?$AAt?$AAh?$AA?0?$AA?5?$AAC?$AAO?$AAM?$AA_?$AAI@| [ DATA ] ; `string'
	EXPORT	|??_C@_1CC@OIKDCOFG@?$AAT?$AAr?$AAy?$AA?5?$AAt?$AAo?$AA?5?$AAo?$AAp?$AAe?$AAn?$AA?5?$AA?$CF?$AAs?$AA?$AN?$AA?6?$AA?$AA@| [ DATA ] ; `string'
	EXPORT	|COM_Deinit|
	EXPORT	|??_C@_1FA@BECDDKGM@?$AAE?$AAr?$AAr?$AAo?$AAr?$AA?5?$AAc?$AAr?$AAe?$AAa?$AAt?$AAi?$AAn?$AAg?$AA?5?$AAe?$AAv?$AAe?$AAn?$AAt?$AA?0?$AA?5?$AAC?$AAO?$AAM?$AA_?$AAI?$AAn?$AAi?$AAt?$AA?5?$AAf@| [ DATA ] ; `string'
	EXPORT	|??_C@_1HG@FCOJGPAE@?$AAE?$AAr?$AAr?$AAo?$AAr?$AA?5?$AAa?$AAl?$AAl?$AAo?$AAc?$AAa?$AAt?$AAi?$AAn?$AAg?$AA?5?$AAm?$AAe?$AAm?$AAo?$AAr?$AAy?$AA?5?$AAf?$AAo?$AAr?$AA?5?$AAp?$AAS?$AAe?$AAr@| [ DATA ] ; `string'
	EXPORT	|??_C@_1BI@GFHIOEJL@?$AA?$CL?$AAC?$AAO?$AAM?$AA_?$AAI?$AAn?$AAi?$AAt?$AA?$AN?$AA?6?$AA?$AA@| [ DATA ] ; `string'
	EXPORT	|COM_Init|
	IMPORT	|GetSerialObject|
	IMPORT	|RegCloseKey|
	IMPORT	|RegQueryValueExW|
	IMPORT	|OpenDeviceKey|
	IMPORT	|CreateEventW|
	IMPORT	|InitializeCriticalSection|
	IMPORT	|memset|
	IMPORT	|LocalAlloc|

  00038			 AREA	 |.pdata|, PDATA
|$T41630| DCD	|$LN50@COM_Init|
	DCD	0x40024504

  00000			 AREA	 |.rdata|, DATA, READONLY
|??_C@_1BI@NFEFLGML@?$AA?9?$AAC?$AAO?$AAM?$AA_?$AAI?$AAn?$AAi?$AAt?$AA?$AN?$AA?6?$AA?$AA@| DCB "-"
	DCB	0x0, "C", 0x0, "O", 0x0, "M", 0x0, "_", 0x0, "I", 0x0, "n"
	DCB	0x0, "i", 0x0, "t", 0x0, 0xd, 0x0, 0xa, 0x0, 0x0, 0x0 ; `string'

  00000			 AREA	 |.rdata|, DATA, READONLY
|??_C@_1EI@FNCKFJMM@?$AAR?$AAx?$AAB?$AAu?$AAf?$AAf?$AAe?$AAr?$AA?5?$AAi?$AAn?$AAi?$AAt?$AA?8?$AAe?$AAd?$AA?5?$AAw?$AAi?$AAt?$AAh?$AA?5?$AAs?$AAt?$AAa?$AAr?$AAt?$AA?5?$AAa?$AAt?$AA?5?$AA?$CF@| DCB "R"
	DCB	0x0, "x", 0x0, "B", 0x0, "u", 0x0, "f", 0x0, "f", 0x0, "e"
	DCB	0x0, "r", 0x0, " ", 0x0, "i", 0x0, "n", 0x0, "i", 0x0, "t"
	DCB	0x0, "'", 0x0, "e", 0x0, "d", 0x0, " ", 0x0, "w", 0x0, "i"
	DCB	0x0, "t", 0x0, "h", 0x0, " ", 0x0, "s", 0x0, "t", 0x0, "a"
	DCB	0x0, "r", 0x0, "t", 0x0, " ", 0x0, "a", 0x0, "t", 0x0, " "
	DCB	0x0, "%", 0x0, "x", 0x0, 0xd, 0x0, 0xa, 0x0, 0x0, 0x0 ; `string'

  00000			 AREA	 |.rdata|, DATA, READONLY
|??_C@_1CC@POKINGEF@?$AAR?$AAx?$AAH?$AAe?$AAa?$AAd?$AA?5?$AAi?$AAn?$AAi?$AAt?$AA?8?$AAe?$AAd?$AA?$AN?$AA?6?$AA?$AA@| DCB "R"
	DCB	0x0, "x", 0x0, "H", 0x0, "e", 0x0, "a", 0x0, "d", 0x0, " "
	DCB	0x0, "i", 0x0, "n", 0x0, "i", 0x0, "t", 0x0, "'", 0x0, "e"
	DCB	0x0, "d", 0x0, 0xd, 0x0, 0xa, 0x0, 0x0, 0x0 ; `string'

  00000			 AREA	 |.rdata|, DATA, READONLY
|??_C@_1GG@FCOIFIDD@?$AAE?$AAr?$AAr?$AAo?$AAr?$AA?5?$AAa?$AAl?$AAl?$AAo?$AAc?$AAa?$AAt?$AAi?$AAn?$AAg?$AA?5?$AAr?$AAe?$AAc?$AAe?$AAi?$AAv?$AAe?$AA?5?$AAb?$AAu?$AAf?$AAf?$AAe?$AAr?$AA?0@| DCB "E"
	DCB	0x0, "r", 0x0, "r", 0x0, "o", 0x0, "r", 0x0, " ", 0x0, "a"
	DCB	0x0, "l", 0x0, "l", 0x0, "o", 0x0, "c", 0x0, "a", 0x0, "t"
	DCB	0x0, "i", 0x0, "n", 0x0, "g", 0x0, " ", 0x0, "r", 0x0, "e"
	DCB	0x0, "c", 0x0, "e", 0x0, "i", 0x0, "v", 0x0, "e", 0x0, " "
	DCB	0x0, "b", 0x0, "u", 0x0, "f", 0x0, "f", 0x0, "e", 0x0, "r"
	DCB	0x0, ",", 0x0, " ", 0x0, "C", 0x0, "O", 0x0, "M", 0x0, "_"
	DCB	0x0, "I", 0x0, "n", 0x0, "i", 0x0, "t", 0x0, " ", 0x0, "f"
	DCB	0x0, "a", 0x0, "i", 0x0, "l", 0x0, "e", 0x0, "d", 0x0, 0xa
	DCB	0x0, 0xd, 0x0, 0x0, 0x0			; `string'

  00000			 AREA	 |.rdata|, DATA, READONLY
|??_C@_1DE@CLLKJMN@?$AAB?$AAa?$AAc?$AAk?$AA?5?$AAf?$AAr?$AAo?$AAm?$AA?5?$AAh?$AAa?$AAr?$AAd?$AAw?$AAa?$AAr?$AAe?$AA?5?$AAi?$AAn?$AAi?$AAt?$AA?$AN?$AA?6?$AA?$AA@| DCB "B"
	DCB	0x0, "a", 0x0, "c", 0x0, "k", 0x0, " ", 0x0, "f", 0x0, "r"
	DCB	0x0, "o", 0x0, "m", 0x0, " ", 0x0, "h", 0x0, "a", 0x0, "r"
	DCB	0x0, "d", 0x0, "w", 0x0, "a", 0x0, "r", 0x0, "e", 0x0, " "
	DCB	0x0, "i", 0x0, "n", 0x0, "i", 0x0, "t", 0x0, 0xd, 0x0, 0xa
	DCB	0x0, 0x0, 0x0				; `string'

  00000			 AREA	 |.rdata|, DATA, READONLY
|??_C@_1GG@LFOFGOL@?$AAH?$AAa?$AAr?$AAd?$AAw?$AAa?$AAr?$AAe?$AA?5?$AAd?$AAo?$AAe?$AAs?$AAn?$AA?8?$AAt?$AA?5?$AAi?$AAn?$AAi?$AAt?$AA?5?$AAc?$AAo?$AAr?$AAr?$AAe?$AAc?$AAt?$AAl?$AAy?$AA?0@| DCB "H"
	DCB	0x0, "a", 0x0, "r", 0x0, "d", 0x0, "w", 0x0, "a", 0x0, "r"
	DCB	0x0, "e", 0x0, " ", 0x0, "d", 0x0, "o", 0x0, "e", 0x0, "s"
	DCB	0x0, "n", 0x0, "'", 0x0, "t", 0x0, " ", 0x0, "i", 0x0, "n"
	DCB	0x0, "i", 0x0, "t", 0x0, " ", 0x0, "c", 0x0, "o", 0x0, "r"
	DCB	0x0, "r", 0x0, "e", 0x0, "c", 0x0, "t", 0x0, "l", 0x0, "y"
	DCB	0x0, ",", 0x0, " ", 0x0, "C", 0x0, "O", 0x0, "M", 0x0, "_"
	DCB	0x0, "I", 0x0, "n", 0x0, "i", 0x0, "t", 0x0, " ", 0x0, "f"
	DCB	0x0, "a", 0x0, "i", 0x0, "l", 0x0, "e", 0x0, "d", 0x0, 0xd
	DCB	0x0, 0xa, 0x0, 0x0, 0x0			; `string'

  00000			 AREA	 |.rdata|, DATA, READONLY
|??_C@_1EA@DFMKFADA@?$AAA?$AAb?$AAo?$AAu?$AAt?$AA?5?$AAt?$AAo?$AA?5?$AAc?$AAa?$AAl?$AAl?$AA?5?$AAH?$AAW?$AAI?$AAn?$AAi?$AAt?$AA?$CI?$AA?$CF?$AAs?$AA?0?$AA0?$AAx?$AA?$CF?$AAX?$AA?$CJ?$AA?$AN?$AA?6?$AA?$AA@| DCB "A"
	DCB	0x0, "b", 0x0, "o", 0x0, "u", 0x0, "t", 0x0, " ", 0x0, "t"
	DCB	0x0, "o", 0x0, " ", 0x0, "c", 0x0, "a", 0x0, "l", 0x0, "l"
	DCB	0x0, " ", 0x0, "H", 0x0, "W", 0x0, "I", 0x0, "n", 0x0, "i"
	DCB	0x0, "t", 0x0, "(", 0x0, "%", 0x0, "s", 0x0, ",", 0x0, "0"
	DCB	0x0, "x", 0x0, "%", 0x0, "X", 0x0, ")", 0x0, 0xd, 0x0, 0xa
	DCB	0x0, 0x0, 0x0				; `string'

  00000			 AREA	 |.rdata|, DATA, READONLY
|??_C@_1FI@OHFMJBNJ@?$AAE?$AAr?$AAr?$AAo?$AAr?$AA?5?$AAi?$AAn?$AA?5?$AAG?$AAe?$AAt?$AAS?$AAe?$AAr?$AAi?$AAa?$AAl?$AAO?$AAb?$AAj?$AAe?$AAc?$AAt?$AA?0?$AA?5?$AAC?$AAO?$AAM?$AA_?$AAI?$AAn@| DCB "E"
	DCB	0x0, "r", 0x0, "r", 0x0, "o", 0x0, "r", 0x0, " ", 0x0, "i"
	DCB	0x0, "n", 0x0, " ", 0x0, "G", 0x0, "e", 0x0, "t", 0x0, "S"
	DCB	0x0, "e", 0x0, "r", 0x0, "i", 0x0, "a", 0x0, "l", 0x0, "O"
	DCB	0x0, "b", 0x0, "j", 0x0, "e", 0x0, "c", 0x0, "t", 0x0, ","
	DCB	0x0, " ", 0x0, "C", 0x0, "O", 0x0, "M", 0x0, "_", 0x0, "I"
	DCB	0x0, "n", 0x0, "i", 0x0, "t", 0x0, " ", 0x0, "f", 0x0, "a"
	DCB	0x0, "i", 0x0, "l", 0x0, "e", 0x0, "d", 0x0, 0xa, 0x0, 0xd
	DCB	0x0, 0x0, 0x0				; `string'

  00000			 AREA	 |.rdata|, DATA, READONLY
|??_C@_1BM@EFMMMFDH@?$AAD?$AAe?$AAv?$AAI?$AAn?$AAd?$AAe?$AAx?$AA?5?$AA?$CF?$AAX?$AA?$AN?$AA?6?$AA?$AA@| DCB "D"
	DCB	0x0, "e", 0x0, "v", 0x0, "I", 0x0, "n", 0x0, "d", 0x0, "e"
	DCB	0x0, "x", 0x0, " ", 0x0, "%", 0x0, "X", 0x0, 0xd, 0x0, 0xa
	DCB	0x0, 0x0, 0x0				; `string'

  00000			 AREA	 |.rdata|, DATA, READONLY
|??_C@_1GI@IGAGBKDE@?$AAF?$AAa?$AAi?$AAl?$AAe?$AAd?$AA?5?$AAt?$AAo?$AA?5?$AAg?$AAe?$AAt?$AA?5?$AAP?$AAr?$AAi?$AAo?$AAr?$AAi?$AAt?$AAy?$AA2?$AA5?$AA6?$AA?5?$AAv?$AAa?$AAl?$AAu?$AAe?$AA?0@| DCB "F"
	DCB	0x0, "a", 0x0, "i", 0x0, "l", 0x0, "e", 0x0, "d", 0x0, " "
	DCB	0x0, "t", 0x0, "o", 0x0, " ", 0x0, "g", 0x0, "e", 0x0, "t"
	DCB	0x0, " ", 0x0, "P", 0x0, "r", 0x0, "i", 0x0, "o", 0x0, "r"
	DCB	0x0, "i", 0x0, "t", 0x0, "y", 0x0, "2", 0x0, "5", 0x0, "6"
	DCB	0x0, " ", 0x0, "v", 0x0, "a", 0x0, "l", 0x0, "u", 0x0, "e"
	DCB	0x0, ",", 0x0, " ", 0x0, "d", 0x0, "e", 0x0, "f", 0x0, "a"
	DCB	0x0, "u", 0x0, "l", 0x0, "t", 0x0, "i", 0x0, "n", 0x0, "g"
	DCB	0x0, " ", 0x0, "t", 0x0, "o", 0x0, " ", 0x0, "%", 0x0, "d"
	DCB	0x0, 0xd, 0x0, 0xa, 0x0, 0x0, 0x0	; `string'

  00000			 AREA	 |.rdata|, DATA, READONLY
|??_C@_1BI@BHLBGEOK@?$AAP?$AAr?$AAi?$AAo?$AAr?$AAi?$AAt?$AAy?$AA2?$AA5?$AA6?$AA?$AA@| DCB "P"
	DCB	0x0, "r", 0x0, "i", 0x0, "o", 0x0, "r", 0x0, "i", 0x0, "t"
	DCB	0x0, "y", 0x0, "2", 0x0, "5", 0x0, "6", 0x0, 0x0, 0x0 ; `string'

  00000			 AREA	 |.rdata|, DATA, READONLY
|??_C@_1HA@FDKKDCHL@?$AAF?$AAa?$AAi?$AAl?$AAe?$AAd?$AA?5?$AAt?$AAo?$AA?5?$AAg?$AAe?$AAt?$AA?5?$AAD?$AAe?$AAv?$AAi?$AAc?$AAe?$AAA?$AAr?$AAr?$AAa?$AAy?$AAI?$AAn?$AAd?$AAe?$AAx?$AA?5?$AAv@| DCB "F"
	DCB	0x0, "a", 0x0, "i", 0x0, "l", 0x0, "e", 0x0, "d", 0x0, " "
	DCB	0x0, "t", 0x0, "o", 0x0, " ", 0x0, "g", 0x0, "e", 0x0, "t"
	DCB	0x0, " ", 0x0, "D", 0x0, "e", 0x0, "v", 0x0, "i", 0x0, "c"
	DCB	0x0, "e", 0x0, "A", 0x0, "r", 0x0, "r", 0x0, "a", 0x0, "y"
	DCB	0x0, "I", 0x0, "n", 0x0, "d", 0x0, "e", 0x0, "x", 0x0, " "
	DCB	0x0, "v", 0x0, "a", 0x0, "l", 0x0, "u", 0x0, "e", 0x0, ","
	DCB	0x0, " ", 0x0, "C", 0x0, "O", 0x0, "M", 0x0, "_", 0x0, "I"
	DCB	0x0, "n", 0x0, "i", 0x0, "t", 0x0, " ", 0x0, "f", 0x0, "a"
	DCB	0x0, "i", 0x0, "l", 0x0, "e", 0x0, "d", 0x0, 0xd, 0x0, 0xa
	DCB	0x0, 0x0, 0x0				; `string'

  00000			 AREA	 |.rdata|, DATA, READONLY
|??_C@_1CC@KMPFMANC@?$AAD?$AAe?$AAv?$AAi?$AAc?$AAe?$AAA?$AAr?$AAr?$AAa?$AAy?$AAI?$AAn?$AAd?$AAe?$AAx?$AA?$AA@| DCB "D"
	DCB	0x0, "e", 0x0, "v", 0x0, "i", 0x0, "c", 0x0, "e", 0x0, "A"
	DCB	0x0, "r", 0x0, "r", 0x0, "a", 0x0, "y", 0x0, "I", 0x0, "n"
	DCB	0x0, "d", 0x0, "e", 0x0, "x", 0x0, 0x0, 0x0 ; `string'

  00000			 AREA	 |.rdata|, DATA, READONLY
|??_C@_1FK@GNPHIAEF@?$AAF?$AAa?$AAi?$AAl?$AAe?$AAd?$AA?5?$AAt?$AAo?$AA?5?$AAo?$AAp?$AAe?$AAn?$AA?5?$AAd?$AAe?$AAv?$AAk?$AAe?$AAy?$AAp?$AAa?$AAt?$AAh?$AA?0?$AA?5?$AAC?$AAO?$AAM?$AA_?$AAI@| DCB "F"
	DCB	0x0, "a", 0x0, "i", 0x0, "l", 0x0, "e", 0x0, "d", 0x0, " "
	DCB	0x0, "t", 0x0, "o", 0x0, " ", 0x0, "o", 0x0, "p", 0x0, "e"
	DCB	0x0, "n", 0x0, " ", 0x0, "d", 0x0, "e", 0x0, "v", 0x0, "k"
	DCB	0x0, "e", 0x0, "y", 0x0, "p", 0x0, "a", 0x0, "t", 0x0, "h"
	DCB	0x0, ",", 0x0, " ", 0x0, "C", 0x0, "O", 0x0, "M", 0x0, "_"
	DCB	0x0, "I", 0x0, "n", 0x0, "i", 0x0, "t", 0x0, " ", 0x0, "f"
	DCB	0x0, "a", 0x0, "i", 0x0, "l", 0x0, "e", 0x0, "d", 0x0, 0xd
	DCB	0x0, 0xa, 0x0, 0x0, 0x0			; `string'

  00000			 AREA	 |.rdata|, DATA, READONLY
|??_C@_1CC@OIKDCOFG@?$AAT?$AAr?$AAy?$AA?5?$AAt?$AAo?$AA?5?$AAo?$AAp?$AAe?$AAn?$AA?5?$AA?$CF?$AAs?$AA?$AN?$AA?6?$AA?$AA@| DCB "T"
	DCB	0x0, "r", 0x0, "y", 0x0, " ", 0x0, "t", 0x0, "o", 0x0, " "
	DCB	0x0, "o", 0x0, "p", 0x0, "e", 0x0, "n", 0x0, " ", 0x0, "%"
	DCB	0x0, "s", 0x0, 0xd, 0x0, 0xa, 0x0, 0x0, 0x0 ; `string'

  00000			 AREA	 |.rdata|, DATA, READONLY
|??_C@_1FA@BECDDKGM@?$AAE?$AAr?$AAr?$AAo?$AAr?$AA?5?$AAc?$AAr?$AAe?$AAa?$AAt?$AAi?$AAn?$AAg?$AA?5?$AAe?$AAv?$AAe?$AAn?$AAt?$AA?0?$AA?5?$AAC?$AAO?$AAM?$AA_?$AAI?$AAn?$AAi?$AAt?$AA?5?$AAf@| DCB "E"
	DCB	0x0, "r", 0x0, "r", 0x0, "o", 0x0, "r", 0x0, " ", 0x0, "c"
	DCB	0x0, "r", 0x0, "e", 0x0, "a", 0x0, "t", 0x0, "i", 0x0, "n"
	DCB	0x0, "g", 0x0, " ", 0x0, "e", 0x0, "v", 0x0, "e", 0x0, "n"
	DCB	0x0, "t", 0x0, ",", 0x0, " ", 0x0, "C", 0x0, "O", 0x0, "M"
	DCB	0x0, "_", 0x0, "I", 0x0, "n", 0x0, "i", 0x0, "t", 0x0, " "
	DCB	0x0, "f", 0x0, "a", 0x0, "i", 0x0, "l", 0x0, "e", 0x0, "d"
	DCB	0x0, 0xa, 0x0, 0xd, 0x0, 0x0, 0x0	; `string'

  00000			 AREA	 |.rdata|, DATA, READONLY
|??_C@_1HG@FCOJGPAE@?$AAE?$AAr?$AAr?$AAo?$AAr?$AA?5?$AAa?$AAl?$AAl?$AAo?$AAc?$AAa?$AAt?$AAi?$AAn?$AAg?$AA?5?$AAm?$AAe?$AAm?$AAo?$AAr?$AAy?$AA?5?$AAf?$AAo?$AAr?$AA?5?$AAp?$AAS?$AAe?$AAr@| DCB "E"
	DCB	0x0, "r", 0x0, "r", 0x0, "o", 0x0, "r", 0x0, " ", 0x0, "a"
	DCB	0x0, "l", 0x0, "l", 0x0, "o", 0x0, "c", 0x0, "a", 0x0, "t"
	DCB	0x0, "i", 0x0, "n", 0x0, "g", 0x0, " ", 0x0, "m", 0x0, "e"
	DCB	0x0, "m", 0x0, "o", 0x0, "r", 0x0, "y", 0x0, " ", 0x0, "f"
	DCB	0x0, "o", 0x0, "r", 0x0, " ", 0x0, "p", 0x0, "S", 0x0, "e"
	DCB	0x0, "r", 0x0, "i", 0x0, "a", 0x0, "l", 0x0, "H", 0x0, "e"
	DCB	0x0, "a", 0x0, "d", 0x0, ",", 0x0, " ", 0x0, "C", 0x0, "O"
	DCB	0x0, "M", 0x0, "_", 0x0, "I", 0x0, "n", 0x0, "i", 0x0, "t"
	DCB	0x0, " ", 0x0, "f", 0x0, "a", 0x0, "i", 0x0, "l", 0x0, "e"
	DCB	0x0, "d", 0x0, 0xa, 0x0, 0xd, 0x0, 0x0, 0x0 ; `string'

  00000			 AREA	 |.rdata|, DATA, READONLY
|??_C@_1BI@GFHIOEJL@?$AA?$CL?$AAC?$AAO?$AAM?$AA_?$AAI?$AAn?$AAi?$AAt?$AA?$AN?$AA?6?$AA?$AA@| DCB "+"
	DCB	0x0, "C", 0x0, "O", 0x0, "M", 0x0, "_", 0x0, "I", 0x0, "n"
	DCB	0x0, "i", 0x0, "t", 0x0, 0xd, 0x0, 0xa, 0x0, 0x0, 0x0 ; `string'
; Function compile flags: /Odtp

  01d1c			 AREA	 |.text|, CODE, ARM

  01d1c		 |COM_Init| PROC

; 715  : {

  01d1c		 |$LN50@COM_Init|
  01d1c	e1a0c00d	 mov         r12, sp
  01d20	e92d0001	 stmdb       sp!, {r0}
  01d24	e92d5000	 stmdb       sp!, {r12, lr}
  01d28	e24dd0b4	 sub         sp, sp, #0xB4
  01d2c		 |$M41627|

; 716  :     PVOID           pHWHead     = NULL;

  01d2c	e3a03000	 mov         r3, #0
  01d30	e58d3024	 str         r3, [sp, #0x24]

; 717  :     PHW_INDEP_INFO  pSerialHead = NULL;

  01d34	e3a03000	 mov         r3, #0
  01d38	e58d3008	 str         r3, [sp, #8]

; 718  :     ULONG           HWBufferSize;
; 719  :     DWORD           DevIndex;
; 720  :     HKEY            hKey;
; 721  :     ULONG           kreserved = 0, kvaluetype;

  01d3c	e3a03000	 mov         r3, #0
  01d40	e58d300c	 str         r3, [sp, #0xC]

; 722  :     ULONG           datasize = sizeof(ULONG);

  01d44	e3a03004	 mov         r3, #4
  01d48	e58d3020	 str         r3, [sp, #0x20]

; 723  : 
; 724  :     /*
; 725  :      *  INTERNAL: this routine initializes the hardware abstraction interface
; 726  :      *  via HWInit(). It allocates a data structure representing this
; 727  :      *  instantiation of the device. It also creates an event and initializes
; 728  :      *  a critical section for receiving as well as registering the logical
; 729  :      *  interrupt dwIntID with NK via InterruptInitialize. This call
; 730  :      *  requires that the hardware dependent portion export apis that return
; 731  :      *  the physical address of the receive buffer and the size of that buffer.
; 732  :      *  Finally, it creates a buffer to act as an intermediate
; 733  :      *  buffer when receiving.
; 734  :      */
; 735  :     DEBUGMSG (ZONE_INIT | ZONE_FUNCTION, (TEXT("+COM_Init\r\n")));

  01d4c	e59f3894	 ldr         r3, [pc, #0x894]
  01d50	e5933440	 ldr         r3, [r3, #0x440]
  01d54	e2032001	 and         r2, r3, #1
  01d58	e59f3888	 ldr         r3, [pc, #0x888]
  01d5c	e5933440	 ldr         r3, [r3, #0x440]
  01d60	e2033a02	 and         r3, r3, #2, 20
  01d64	e1923003	 orrs        r3, r2, r3
  01d68	0a000004	 beq         |$LN14@COM_Init|
  01d6c	e59f08b8	 ldr         r0, [pc, #0x8B8]
  01d70	eb000000	 bl          NKDbgPrintfW
  01d74	e3a03001	 mov         r3, #1
  01d78	e58d303c	 str         r3, [sp, #0x3C]
  01d7c	ea000001	 b           |$LN15@COM_Init|
  01d80		 |$LN14@COM_Init|
  01d80	e3a03000	 mov         r3, #0
  01d84	e58d303c	 str         r3, [sp, #0x3C]
  01d88		 |$LN15@COM_Init|

; 736  : 
; 737  :     // Allocate our control structure.
; 738  :     pSerialHead  =  (PHW_INDEP_INFO)LocalAlloc(LPTR, sizeof(HW_INDEP_INFO));

  01d88	e3a01f42	 mov         r1, #0x42, 30
  01d8c	e3a00040	 mov         r0, #0x40
  01d90	eb000000	 bl          LocalAlloc
  01d94	e58d0040	 str         r0, [sp, #0x40]
  01d98	e59d3040	 ldr         r3, [sp, #0x40]
  01d9c	e58d3008	 str         r3, [sp, #8]

; 739  : 
; 740  :     // Check that LocalAlloc did stuff ok too.
; 741  :     if ( !pSerialHead ) {

  01da0	e59d3008	 ldr         r3, [sp, #8]
  01da4	e3530000	 cmp         r3, #0
  01da8	1a000011	 bne         |$LN11@COM_Init|

; 742  :         DEBUGMSG(ZONE_INIT | ZONE_ERROR,
; 743  :                  (TEXT("Error allocating memory for pSerialHead, COM_Init failed\n\r")));

  01dac	e59f3834	 ldr         r3, [pc, #0x834]
  01db0	e5933440	 ldr         r3, [r3, #0x440]
  01db4	e2032001	 and         r2, r3, #1
  01db8	e59f3828	 ldr         r3, [pc, #0x828]
  01dbc	e5933440	 ldr         r3, [r3, #0x440]
  01dc0	e2033902	 and         r3, r3, #2, 18
  01dc4	e1923003	 orrs        r3, r2, r3
  01dc8	0a000004	 beq         |$LN16@COM_Init|
  01dcc	e59f0854	 ldr         r0, [pc, #0x854]
  01dd0	eb000000	 bl          NKDbgPrintfW
  01dd4	e3a03001	 mov         r3, #1
  01dd8	e58d3044	 str         r3, [sp, #0x44]
  01ddc	ea000001	 b           |$LN17@COM_Init|
  01de0		 |$LN16@COM_Init|
  01de0	e3a03000	 mov         r3, #0
  01de4	e58d3044	 str         r3, [sp, #0x44]
  01de8		 |$LN17@COM_Init|

; 744  :         return(NULL);

  01de8	e3a03000	 mov         r3, #0
  01dec	e58d3028	 str         r3, [sp, #0x28]
  01df0	ea0001f7	 b           |$LN12@COM_Init|
  01df4		 |$LN11@COM_Init|

; 745  :     }
; 746  :     memset(pSerialHead,0,sizeof(HW_INDEP_INFO));

  01df4	e3a02f42	 mov         r2, #0x42, 30
  01df8	e3a01000	 mov         r1, #0
  01dfc	e59d0008	 ldr         r0, [sp, #8]
  01e00	eb000000	 bl          memset

; 747  : 
; 748  :     // Initially, open list is empty.
; 749  :     InitializeListHead( &pSerialHead->OpenList );

  01e04	e59d3008	 ldr         r3, [sp, #8]
  01e08	e28320e4	 add         r2, r3, #0xE4
  01e0c	e59d3008	 ldr         r3, [sp, #8]
  01e10	e28330e8	 add         r3, r3, #0xE8
  01e14	e5832000	 str         r2, [r3]
  01e18	e59d3008	 ldr         r3, [sp, #8]
  01e1c	e28310e8	 add         r1, r3, #0xE8
  01e20	e59d3008	 ldr         r3, [sp, #8]
  01e24	e28320e4	 add         r2, r3, #0xE4
  01e28	e5913000	 ldr         r3, [r1]
  01e2c	e5823000	 str         r3, [r2]

; 750  :     InitializeCriticalSection(&(pSerialHead->OpenCS));

  01e30	e59d3008	 ldr         r3, [sp, #8]
  01e34	e28300ec	 add         r0, r3, #0xEC
  01e38	eb000000	 bl          InitializeCriticalSection

; 751  : 
; 752  :     /* Initialize the critical sections that will guard the parts of
; 753  :      * the receive and transmit buffers.
; 754  :      */
; 755  :     InitializeCriticalSection(&(pSerialHead->ReceiveCritSec1));

  01e3c	e59d3008	 ldr         r3, [sp, #8]
  01e40	e2830014	 add         r0, r3, #0x14
  01e44	eb000000	 bl          InitializeCriticalSection

; 756  :     InitializeCriticalSection(&(pSerialHead->TransmitCritSec1));

  01e48	e59d0008	 ldr         r0, [sp, #8]
  01e4c	eb000000	 bl          InitializeCriticalSection

; 757  :     
; 758  :     /* Initialize the critical section that guard the receive and Xmit buffer
; 759  :     */
; 760  :     InitializeCriticalSection(&(pSerialHead->RxBufferInfo.CS));

  01e50	e59d3008	 ldr         r3, [sp, #8]
  01e54	e28300b0	 add         r0, r3, #0xB0
  01e58	eb000000	 bl          InitializeCriticalSection

; 761  :     InitializeCriticalSection(&(pSerialHead->TxBufferInfo.CS));

  01e5c	e59d3008	 ldr         r3, [sp, #8]
  01e60	e28300d0	 add         r0, r3, #0xD0
  01e64	eb000000	 bl          InitializeCriticalSection

; 762  :     
; 763  :     pSerialHead->pAccessOwner = NULL;

  01e68	e59d3008	 ldr         r3, [sp, #8]
  01e6c	e2832c01	 add         r2, r3, #1, 24
  01e70	e3a03000	 mov         r3, #0
  01e74	e5823000	 str         r3, [r2]

; 764  :     pSerialHead->fEventMask = 0;

  01e78	e59d3008	 ldr         r3, [sp, #8]
  01e7c	e2832098	 add         r2, r3, #0x98
  01e80	e3a03000	 mov         r3, #0
  01e84	e5823000	 str         r3, [r2]

; 765  : 
; 766  :     // Init CommTimeouts.
; 767  :     pSerialHead->CommTimeouts.ReadIntervalTimeout = READ_TIMEOUT;

  01e88	e59d3008	 ldr         r3, [sp, #8]
  01e8c	e283207c	 add         r2, r3, #0x7C
  01e90	e3a030fa	 mov         r3, #0xFA
  01e94	e5823000	 str         r3, [r2]

; 768  :     pSerialHead->CommTimeouts.ReadTotalTimeoutMultiplier =
; 769  :     READ_TIMEOUT_MULTIPLIER;

  01e98	e59d3008	 ldr         r3, [sp, #8]
  01e9c	e2832080	 add         r2, r3, #0x80
  01ea0	e3a0300a	 mov         r3, #0xA
  01ea4	e5823000	 str         r3, [r2]

; 770  :     pSerialHead->CommTimeouts.ReadTotalTimeoutConstant =
; 771  :     READ_TIMEOUT_CONSTANT;

  01ea8	e59d3008	 ldr         r3, [sp, #8]
  01eac	e2832084	 add         r2, r3, #0x84
  01eb0	e3a03064	 mov         r3, #0x64
  01eb4	e5823000	 str         r3, [r2]

; 772  :     pSerialHead->CommTimeouts.WriteTotalTimeoutMultiplier=  0;

  01eb8	e59d3008	 ldr         r3, [sp, #8]
  01ebc	e2832088	 add         r2, r3, #0x88
  01ec0	e3a03000	 mov         r3, #0
  01ec4	e5823000	 str         r3, [r2]

; 773  :     pSerialHead->CommTimeouts.WriteTotalTimeoutConstant =   0;

  01ec8	e59d3008	 ldr         r3, [sp, #8]
  01ecc	e283208c	 add         r2, r3, #0x8C
  01ed0	e3a03000	 mov         r3, #0
  01ed4	e5823000	 str         r3, [r2]

; 774  : 
; 775  :     /* Create tx and rx events and stash in global struct field. Check return.
; 776  :      */
; 777  :     pSerialHead->hSerialEvent = CreateEvent(0,FALSE,FALSE,NULL);

  01ed8	e3a03000	 mov         r3, #0
  01edc	e3a02000	 mov         r2, #0
  01ee0	e3a01000	 mov         r1, #0
  01ee4	e3a00000	 mov         r0, #0
  01ee8	eb000000	 bl          CreateEventW
  01eec	e58d0048	 str         r0, [sp, #0x48]
  01ef0	e59d3008	 ldr         r3, [sp, #8]
  01ef4	e2832030	 add         r2, r3, #0x30
  01ef8	e59d3048	 ldr         r3, [sp, #0x48]
  01efc	e5823000	 str         r3, [r2]

; 778  :     pSerialHead->hKillDispatchThread = CreateEvent(0, FALSE, FALSE, NULL);

  01f00	e3a03000	 mov         r3, #0
  01f04	e3a02000	 mov         r2, #0
  01f08	e3a01000	 mov         r1, #0
  01f0c	e3a00000	 mov         r0, #0
  01f10	eb000000	 bl          CreateEventW
  01f14	e58d004c	 str         r0, [sp, #0x4C]
  01f18	e59d3008	 ldr         r3, [sp, #8]
  01f1c	e2832038	 add         r2, r3, #0x38
  01f20	e59d304c	 ldr         r3, [sp, #0x4C]
  01f24	e5823000	 str         r3, [r2]

; 779  :     pSerialHead->hTransmitEvent = CreateEvent(0, FALSE, FALSE, NULL);

  01f28	e3a03000	 mov         r3, #0
  01f2c	e3a02000	 mov         r2, #0
  01f30	e3a01000	 mov         r1, #0
  01f34	e3a00000	 mov         r0, #0
  01f38	eb000000	 bl          CreateEventW
  01f3c	e58d0050	 str         r0, [sp, #0x50]
  01f40	e59d3008	 ldr         r3, [sp, #8]
  01f44	e283203c	 add         r2, r3, #0x3C
  01f48	e59d3050	 ldr         r3, [sp, #0x50]
  01f4c	e5823000	 str         r3, [r2]

; 780  :     pSerialHead->hReadEvent = CreateEvent(0, FALSE, FALSE, NULL);

  01f50	e3a03000	 mov         r3, #0
  01f54	e3a02000	 mov         r2, #0
  01f58	e3a01000	 mov         r1, #0
  01f5c	e3a00000	 mov         r0, #0
  01f60	eb000000	 bl          CreateEventW
  01f64	e58d0054	 str         r0, [sp, #0x54]
  01f68	e59d3008	 ldr         r3, [sp, #8]
  01f6c	e2832034	 add         r2, r3, #0x34
  01f70	e59d3054	 ldr         r3, [sp, #0x54]
  01f74	e5823000	 str         r3, [r2]

; 781  : 
; 782  :     if ( !pSerialHead->hSerialEvent || !pSerialHead->hKillDispatchThread ||
; 783  :          !pSerialHead->hTransmitEvent || !pSerialHead->hReadEvent ) {

  01f78	e59d3008	 ldr         r3, [sp, #8]
  01f7c	e2833030	 add         r3, r3, #0x30
  01f80	e5933000	 ldr         r3, [r3]
  01f84	e3530000	 cmp         r3, #0
  01f88	0a00000e	 beq         |$LN9@COM_Init|
  01f8c	e59d3008	 ldr         r3, [sp, #8]
  01f90	e2833038	 add         r3, r3, #0x38
  01f94	e5933000	 ldr         r3, [r3]
  01f98	e3530000	 cmp         r3, #0
  01f9c	0a000009	 beq         |$LN9@COM_Init|
  01fa0	e59d3008	 ldr         r3, [sp, #8]
  01fa4	e283303c	 add         r3, r3, #0x3C
  01fa8	e5933000	 ldr         r3, [r3]
  01fac	e3530000	 cmp         r3, #0
  01fb0	0a000004	 beq         |$LN9@COM_Init|
  01fb4	e59d3008	 ldr         r3, [sp, #8]
  01fb8	e2833034	 add         r3, r3, #0x34
  01fbc	e5933000	 ldr         r3, [r3]
  01fc0	e3530000	 cmp         r3, #0
  01fc4	1a000013	 bne         |$LN10@COM_Init|
  01fc8		 |$LN9@COM_Init|

; 784  :         DEBUGMSG(ZONE_ERROR | ZONE_INIT,
; 785  :                  (TEXT("Error creating event, COM_Init failed\n\r")));

  01fc8	e59f3618	 ldr         r3, [pc, #0x618]
  01fcc	e5933440	 ldr         r3, [r3, #0x440]
  01fd0	e2032902	 and         r2, r3, #2, 18
  01fd4	e59f360c	 ldr         r3, [pc, #0x60C]
  01fd8	e5933440	 ldr         r3, [r3, #0x440]
  01fdc	e2033001	 and         r3, r3, #1
  01fe0	e1923003	 orrs        r3, r2, r3
  01fe4	0a000004	 beq         |$LN18@COM_Init|
  01fe8	e59f0634	 ldr         r0, [pc, #0x634]
  01fec	eb000000	 bl          NKDbgPrintfW
  01ff0	e3a03001	 mov         r3, #1
  01ff4	e58d3058	 str         r3, [sp, #0x58]
  01ff8	ea000001	 b           |$LN19@COM_Init|
  01ffc		 |$LN18@COM_Init|
  01ffc	e3a03000	 mov         r3, #0
  02000	e58d3058	 str         r3, [sp, #0x58]
  02004		 |$LN19@COM_Init|

; 786  :         COM_Deinit(pSerialHead);

  02004	e59d0008	 ldr         r0, [sp, #8]
  02008	eb000000	 bl          COM_Deinit

; 787  :         return(NULL);

  0200c	e3a03000	 mov         r3, #0
  02010	e58d3028	 str         r3, [sp, #0x28]
  02014	ea00016e	 b           |$LN12@COM_Init|
  02018		 |$LN10@COM_Init|

; 788  :     }
; 789  : 
; 790  :     /* Want to use the Identifier to do RegOpenKey and RegQueryValue (?)
; 791  :      * to get the index to be passed to GetHWObj.
; 792  :      * The HWObj will also have a flag denoting whether to start the
; 793  :      * listening thread or provide the callback.
; 794  :      */
; 795  :     DEBUGMSG (ZONE_INIT,(TEXT("Try to open %s\r\n"), (LPCTSTR)Identifier));

  02018	e59f35c8	 ldr         r3, [pc, #0x5C8]
  0201c	e5933440	 ldr         r3, [r3, #0x440]
  02020	e3130001	 tst         r3, #1
  02024	0a000005	 beq         |$LN20@COM_Init|
  02028	e59d10bc	 ldr         r1, [sp, #0xBC]
  0202c	e59f05ec	 ldr         r0, [pc, #0x5EC]
  02030	eb000000	 bl          NKDbgPrintfW
  02034	e3a03001	 mov         r3, #1
  02038	e58d305c	 str         r3, [sp, #0x5C]
  0203c	ea000001	 b           |$LN21@COM_Init|
  02040		 |$LN20@COM_Init|
  02040	e3a03000	 mov         r3, #0
  02044	e58d305c	 str         r3, [sp, #0x5C]
  02048		 |$LN21@COM_Init|

; 796  :     hKey = OpenDeviceKey((LPCTSTR)Identifier);

  02048	e59d00bc	 ldr         r0, [sp, #0xBC]
  0204c	eb000000	 bl          OpenDeviceKey
  02050	e58d0060	 str         r0, [sp, #0x60]
  02054	e59d3060	 ldr         r3, [sp, #0x60]
  02058	e58d3010	 str         r3, [sp, #0x10]

; 797  :     if ( !hKey ) {

  0205c	e59d3010	 ldr         r3, [sp, #0x10]
  02060	e3530000	 cmp         r3, #0
  02064	1a000013	 bne         |$LN8@COM_Init|

; 798  :         DEBUGMSG (ZONE_INIT | ZONE_ERROR,
; 799  :                   (TEXT("Failed to open devkeypath, COM_Init failed\r\n")));

  02068	e59f3578	 ldr         r3, [pc, #0x578]
  0206c	e5933440	 ldr         r3, [r3, #0x440]
  02070	e2032001	 and         r2, r3, #1
  02074	e59f356c	 ldr         r3, [pc, #0x56C]
  02078	e5933440	 ldr         r3, [r3, #0x440]
  0207c	e2033902	 and         r3, r3, #2, 18
  02080	e1923003	 orrs        r3, r2, r3
  02084	0a000004	 beq         |$LN22@COM_Init|
  02088	e59f058c	 ldr         r0, [pc, #0x58C]
  0208c	eb000000	 bl          NKDbgPrintfW
  02090	e3a03001	 mov         r3, #1
  02094	e58d3064	 str         r3, [sp, #0x64]
  02098	ea000001	 b           |$LN23@COM_Init|
  0209c		 |$LN22@COM_Init|
  0209c	e3a03000	 mov         r3, #0
  020a0	e58d3064	 str         r3, [sp, #0x64]
  020a4		 |$LN23@COM_Init|

; 800  :         COM_Deinit(pSerialHead);

  020a4	e59d0008	 ldr         r0, [sp, #8]
  020a8	eb000000	 bl          COM_Deinit

; 801  :         return(NULL);

  020ac	e3a03000	 mov         r3, #0
  020b0	e58d3028	 str         r3, [sp, #0x28]
  020b4	ea000146	 b           |$LN12@COM_Init|
  020b8		 |$LN8@COM_Init|

; 802  :     }
; 803  : 
; 804  :     datasize = sizeof(DWORD);

  020b8	e3a03004	 mov         r3, #4
  020bc	e58d3020	 str         r3, [sp, #0x20]

; 805  : 
; 806  :     if ( RegQueryValueEx(hKey, L"DeviceArrayIndex", NULL, &kvaluetype,
; 807  :                          (LPBYTE)&DevIndex, &datasize) ) {

  020c0	e28d3020	 add         r3, sp, #0x20
  020c4	e58d3004	 str         r3, [sp, #4]
  020c8	e28d301c	 add         r3, sp, #0x1C
  020cc	e58d3000	 str         r3, [sp]
  020d0	e28d3014	 add         r3, sp, #0x14
  020d4	e3a02000	 mov         r2, #0
  020d8	e59f1538	 ldr         r1, [pc, #0x538]
  020dc	e59d0010	 ldr         r0, [sp, #0x10]
  020e0	eb000000	 bl          RegQueryValueExW
  020e4	e58d0068	 str         r0, [sp, #0x68]
  020e8	e59d3068	 ldr         r3, [sp, #0x68]
  020ec	e3530000	 cmp         r3, #0
  020f0	0a000015	 beq         |$LN7@COM_Init|

; 808  :         DEBUGMSG (ZONE_INIT | ZONE_ERROR,
; 809  :                   (TEXT("Failed to get DeviceArrayIndex value, COM_Init failed\r\n")));

  020f4	e59f34ec	 ldr         r3, [pc, #0x4EC]
  020f8	e5933440	 ldr         r3, [r3, #0x440]
  020fc	e2032001	 and         r2, r3, #1
  02100	e59f34e0	 ldr         r3, [pc, #0x4E0]
  02104	e5933440	 ldr         r3, [r3, #0x440]
  02108	e2033902	 and         r3, r3, #2, 18
  0210c	e1923003	 orrs        r3, r2, r3
  02110	0a000004	 beq         |$LN24@COM_Init|
  02114	e59f04f8	 ldr         r0, [pc, #0x4F8]
  02118	eb000000	 bl          NKDbgPrintfW
  0211c	e3a03001	 mov         r3, #1
  02120	e58d306c	 str         r3, [sp, #0x6C]
  02124	ea000001	 b           |$LN25@COM_Init|
  02128		 |$LN24@COM_Init|
  02128	e3a03000	 mov         r3, #0
  0212c	e58d306c	 str         r3, [sp, #0x6C]
  02130		 |$LN25@COM_Init|

; 810  :         RegCloseKey (hKey);

  02130	e59d0010	 ldr         r0, [sp, #0x10]
  02134	eb000000	 bl          RegCloseKey

; 811  :         COM_Deinit(pSerialHead);

  02138	e59d0008	 ldr         r0, [sp, #8]
  0213c	eb000000	 bl          COM_Deinit

; 812  :         return(NULL);

  02140	e3a03000	 mov         r3, #0
  02144	e58d3028	 str         r3, [sp, #0x28]
  02148	ea000121	 b           |$LN12@COM_Init|
  0214c		 |$LN7@COM_Init|

; 813  :     }
; 814  : 
; 815  :     datasize = sizeof(DWORD);

  0214c	e3a03004	 mov         r3, #4
  02150	e58d3020	 str         r3, [sp, #0x20]

; 816  :     if ( RegQueryValueEx(hKey, L"Priority256", NULL, &kvaluetype,
; 817  :                          (LPBYTE)&pSerialHead->Priority256, &datasize) ) {

  02154	e28d3020	 add         r3, sp, #0x20
  02158	e58d3004	 str         r3, [sp, #4]
  0215c	e59d3008	 ldr         r3, [sp, #8]
  02160	e2833044	 add         r3, r3, #0x44
  02164	e58d3000	 str         r3, [sp]
  02168	e28d3014	 add         r3, sp, #0x14
  0216c	e3a02000	 mov         r2, #0
  02170	e59f1498	 ldr         r1, [pc, #0x498]
  02174	e59d0010	 ldr         r0, [sp, #0x10]
  02178	eb000000	 bl          RegQueryValueExW
  0217c	e58d0070	 str         r0, [sp, #0x70]
  02180	e59d3070	 ldr         r3, [sp, #0x70]
  02184	e3530000	 cmp         r3, #0
  02188	0a000015	 beq         |$LN6@COM_Init|

; 818  :         pSerialHead->Priority256 = DEFAULT_CE_THREAD_PRIORITY;

  0218c	e59d3008	 ldr         r3, [sp, #8]
  02190	e2832044	 add         r2, r3, #0x44
  02194	e3a03067	 mov         r3, #0x67
  02198	e5823000	 str         r3, [r2]

; 819  :         DEBUGMSG (ZONE_INIT | ZONE_WARN,
; 820  :                   (TEXT("Failed to get Priority256 value, defaulting to %d\r\n"), pSerialHead->Priority256));

  0219c	e59f3444	 ldr         r3, [pc, #0x444]
  021a0	e5933440	 ldr         r3, [r3, #0x440]
  021a4	e2032001	 and         r2, r3, #1
  021a8	e59f3438	 ldr         r3, [pc, #0x438]
  021ac	e5933440	 ldr         r3, [r3, #0x440]
  021b0	e2033901	 and         r3, r3, #1, 18
  021b4	e1923003	 orrs        r3, r2, r3
  021b8	0a000007	 beq         |$LN26@COM_Init|
  021bc	e59d3008	 ldr         r3, [sp, #8]
  021c0	e2833044	 add         r3, r3, #0x44
  021c4	e5931000	 ldr         r1, [r3]
  021c8	e59f043c	 ldr         r0, [pc, #0x43C]
  021cc	eb000000	 bl          NKDbgPrintfW
  021d0	e3a03001	 mov         r3, #1
  021d4	e58d3074	 str         r3, [sp, #0x74]
  021d8	ea000001	 b           |$LN27@COM_Init|
  021dc		 |$LN26@COM_Init|
  021dc	e3a03000	 mov         r3, #0
  021e0	e58d3074	 str         r3, [sp, #0x74]
  021e4		 |$LN27@COM_Init|
  021e4		 |$LN6@COM_Init|

; 821  :     }
; 822  : 
; 823  :     RegCloseKey (hKey);

  021e4	e59d0010	 ldr         r0, [sp, #0x10]
  021e8	eb000000	 bl          RegCloseKey

; 824  : 
; 825  :     DEBUGMSG (ZONE_INIT,
; 826  :               (TEXT("DevIndex %X\r\n"), DevIndex));

  021ec	e59f33f4	 ldr         r3, [pc, #0x3F4]
  021f0	e5933440	 ldr         r3, [r3, #0x440]
  021f4	e3130001	 tst         r3, #1
  021f8	0a000005	 beq         |$LN28@COM_Init|
  021fc	e59d101c	 ldr         r1, [sp, #0x1C]
  02200	e59f0400	 ldr         r0, [pc, #0x400]
  02204	eb000000	 bl          NKDbgPrintfW
  02208	e3a03001	 mov         r3, #1
  0220c	e58d3078	 str         r3, [sp, #0x78]
  02210	ea000001	 b           |$LN29@COM_Init|
  02214		 |$LN28@COM_Init|
  02214	e3a03000	 mov         r3, #0
  02218	e58d3078	 str         r3, [sp, #0x78]
  0221c		 |$LN29@COM_Init|

; 827  : 
; 828  :     // Initialize hardware dependent data.
; 829  :     pSerialHead->pHWObj = GetSerialObject( DevIndex );

  0221c	e59d001c	 ldr         r0, [sp, #0x1C]
  02220	eb000000	 bl          GetSerialObject
  02224	e58d007c	 str         r0, [sp, #0x7C]
  02228	e59d3008	 ldr         r3, [sp, #8]
  0222c	e2832028	 add         r2, r3, #0x28
  02230	e59d307c	 ldr         r3, [sp, #0x7C]
  02234	e5823000	 str         r3, [r2]

; 830  :     if ( !pSerialHead->pHWObj ) {

  02238	e59d3008	 ldr         r3, [sp, #8]
  0223c	e2833028	 add         r3, r3, #0x28
  02240	e5933000	 ldr         r3, [r3]
  02244	e3530000	 cmp         r3, #0
  02248	1a000013	 bne         |$LN5@COM_Init|

; 831  :         DEBUGMSG(ZONE_ERROR | ZONE_INIT,
; 832  :                  (TEXT("Error in GetSerialObject, COM_Init failed\n\r")));

  0224c	e59f3394	 ldr         r3, [pc, #0x394]
  02250	e5933440	 ldr         r3, [r3, #0x440]
  02254	e2032902	 and         r2, r3, #2, 18
  02258	e59f3388	 ldr         r3, [pc, #0x388]
  0225c	e5933440	 ldr         r3, [r3, #0x440]
  02260	e2033001	 and         r3, r3, #1
  02264	e1923003	 orrs        r3, r2, r3
  02268	0a000004	 beq         |$LN30@COM_Init|
  0226c	e59f0390	 ldr         r0, [pc, #0x390]
  02270	eb000000	 bl          NKDbgPrintfW
  02274	e3a03001	 mov         r3, #1
  02278	e58d3080	 str         r3, [sp, #0x80]
  0227c	ea000001	 b           |$LN31@COM_Init|
  02280		 |$LN30@COM_Init|
  02280	e3a03000	 mov         r3, #0
  02284	e58d3080	 str         r3, [sp, #0x80]
  02288		 |$LN31@COM_Init|

; 833  :         COM_Deinit(pSerialHead);

  02288	e59d0008	 ldr         r0, [sp, #8]
  0228c	eb000000	 bl          COM_Deinit

; 834  :         return(NULL);

  02290	e3a03000	 mov         r3, #0
  02294	e58d3028	 str         r3, [sp, #0x28]
  02298	ea0000cd	 b           |$LN12@COM_Init|
  0229c		 |$LN5@COM_Init|

; 835  :     }
; 836  : 
; 837  :     DEBUGMSG (ZONE_INIT, (TEXT("About to call HWInit(%s,0x%X)\r\n"),
; 838  :                           Identifier, pSerialHead));

  0229c	e59f3344	 ldr         r3, [pc, #0x344]
  022a0	e5933440	 ldr         r3, [r3, #0x440]
  022a4	e3130001	 tst         r3, #1
  022a8	0a000006	 beq         |$LN32@COM_Init|
  022ac	e59d2008	 ldr         r2, [sp, #8]
  022b0	e59d10bc	 ldr         r1, [sp, #0xBC]
  022b4	e59f0344	 ldr         r0, [pc, #0x344]
  022b8	eb000000	 bl          NKDbgPrintfW
  022bc	e3a03001	 mov         r3, #1
  022c0	e58d3084	 str         r3, [sp, #0x84]
  022c4	ea000001	 b           |$LN33@COM_Init|
  022c8		 |$LN32@COM_Init|
  022c8	e3a03000	 mov         r3, #0
  022cc	e58d3084	 str         r3, [sp, #0x84]
  022d0		 |$LN33@COM_Init|

; 839  :     pHWHead = pSerialHead->pHWObj->pFuncTbl->HWInit(Identifier, pSerialHead, pSerialHead->pHWObj);

  022d0	e59d3008	 ldr         r3, [sp, #8]
  022d4	e2833028	 add         r3, r3, #0x28
  022d8	e5932000	 ldr         r2, [r3]
  022dc	e59d1008	 ldr         r1, [sp, #8]
  022e0	e59d00bc	 ldr         r0, [sp, #0xBC]
  022e4	e59d3008	 ldr         r3, [sp, #8]
  022e8	e2833028	 add         r3, r3, #0x28
  022ec	e5933000	 ldr         r3, [r3]
  022f0	e2833008	 add         r3, r3, #8
  022f4	e5933000	 ldr         r3, [r3]
  022f8	e5933000	 ldr         r3, [r3]
  022fc	e1a0e00f	 mov         lr, pc
  02300	e12fff13	 bx          r3
  02304	e58d0088	 str         r0, [sp, #0x88]
  02308	e59d3088	 ldr         r3, [sp, #0x88]
  0230c	e58d3024	 str         r3, [sp, #0x24]

; 840  :     pSerialHead->pHWHead = pHWHead;

  02310	e59d3008	 ldr         r3, [sp, #8]
  02314	e283202c	 add         r2, r3, #0x2C
  02318	e59d3024	 ldr         r3, [sp, #0x24]
  0231c	e5823000	 str         r3, [r2]

; 841  : 
; 842  :     /* Check that HWInit did stuff ok.  From here on out, call Deinit function
; 843  :      * when things fail.
; 844  :      */
; 845  :     if ( !pHWHead ) {

  02320	e59d3024	 ldr         r3, [sp, #0x24]
  02324	e3530000	 cmp         r3, #0
  02328	1a000013	 bne         |$LN4@COM_Init|

; 846  :         DEBUGMSG (ZONE_INIT | ZONE_ERROR,
; 847  :                   (TEXT("Hardware doesn't init correctly, COM_Init failed\r\n")));

  0232c	e59f32b4	 ldr         r3, [pc, #0x2B4]
  02330	e5933440	 ldr         r3, [r3, #0x440]
  02334	e2032001	 and         r2, r3, #1
  02338	e59f32a8	 ldr         r3, [pc, #0x2A8]
  0233c	e5933440	 ldr         r3, [r3, #0x440]
  02340	e2033902	 and         r3, r3, #2, 18
  02344	e1923003	 orrs        r3, r2, r3
  02348	0a000004	 beq         |$LN34@COM_Init|
  0234c	e59f02a8	 ldr         r0, [pc, #0x2A8]
  02350	eb000000	 bl          NKDbgPrintfW
  02354	e3a03001	 mov         r3, #1
  02358	e58d308c	 str         r3, [sp, #0x8C]
  0235c	ea000001	 b           |$LN35@COM_Init|
  02360		 |$LN34@COM_Init|
  02360	e3a03000	 mov         r3, #0
  02364	e58d308c	 str         r3, [sp, #0x8C]
  02368		 |$LN35@COM_Init|

; 848  :         COM_Deinit(pSerialHead);

  02368	e59d0008	 ldr         r0, [sp, #8]
  0236c	eb000000	 bl          COM_Deinit

; 849  :         return(NULL);

  02370	e3a03000	 mov         r3, #0
  02374	e58d3028	 str         r3, [sp, #0x28]
  02378	ea000095	 b           |$LN12@COM_Init|
  0237c		 |$LN4@COM_Init|

; 850  :     }
; 851  :     DEBUGMSG (ZONE_INIT,
; 852  :               (TEXT("Back from hardware init\r\n")));

  0237c	e59f3264	 ldr         r3, [pc, #0x264]
  02380	e5933440	 ldr         r3, [r3, #0x440]
  02384	e3130001	 tst         r3, #1
  02388	0a000004	 beq         |$LN36@COM_Init|
  0238c	e59f0264	 ldr         r0, [pc, #0x264]
  02390	eb000000	 bl          NKDbgPrintfW
  02394	e3a03001	 mov         r3, #1
  02398	e58d3090	 str         r3, [sp, #0x90]
  0239c	ea000001	 b           |$LN37@COM_Init|
  023a0		 |$LN36@COM_Init|
  023a0	e3a03000	 mov         r3, #0
  023a4	e58d3090	 str         r3, [sp, #0x90]
  023a8		 |$LN37@COM_Init|

; 853  : 
; 854  :     // Allocate at least twice the hardware buffer size so we have headroom
; 855  :     HWBufferSize        = 2 * pSerialHead->pHWObj->pFuncTbl->HWGetRxBufferSize(pHWHead);

  023a8	e59d0024	 ldr         r0, [sp, #0x24]
  023ac	e59d3008	 ldr         r3, [sp, #8]
  023b0	e2833028	 add         r3, r3, #0x28
  023b4	e5933000	 ldr         r3, [r3]
  023b8	e2833008	 add         r3, r3, #8
  023bc	e5933000	 ldr         r3, [r3]
  023c0	e2833028	 add         r3, r3, #0x28
  023c4	e5933000	 ldr         r3, [r3]
  023c8	e1a0e00f	 mov         lr, pc
  023cc	e12fff13	 bx          r3
  023d0	e58d0094	 str         r0, [sp, #0x94]
  023d4	e59d2094	 ldr         r2, [sp, #0x94]
  023d8	e3a03002	 mov         r3, #2
  023dc	e0030392	 mul         r3, r2, r3
  023e0	e58d3018	 str         r3, [sp, #0x18]

; 856  : 
; 857  :     // Init rx buffer and buffer length here.
; 858  :     pSerialHead->RxBufferInfo.Length =
; 859  :     HWBufferSize > RX_BUFFER_SIZE ? HWBufferSize:RX_BUFFER_SIZE;

  023e4	e59d3018	 ldr         r3, [sp, #0x18]
  023e8	e3530b02	 cmp         r3, #2, 22
  023ec	9a000002	 bls         |$LN38@COM_Init|
  023f0	e59d3018	 ldr         r3, [sp, #0x18]
  023f4	e58d3098	 str         r3, [sp, #0x98]
  023f8	ea000001	 b           |$LN39@COM_Init|
  023fc		 |$LN38@COM_Init|
  023fc	e3a03b02	 mov         r3, #2, 22
  02400	e58d3098	 str         r3, [sp, #0x98]
  02404		 |$LN39@COM_Init|
  02404	e59d3008	 ldr         r3, [sp, #8]
  02408	e28320a4	 add         r2, r3, #0xA4
  0240c	e59d3098	 ldr         r3, [sp, #0x98]
  02410	e5823000	 str         r3, [r2]

; 860  : 
; 861  :     pSerialHead->RxBufferInfo.RxCharBuffer =
; 862  :     LocalAlloc(LPTR, pSerialHead->RxBufferInfo.Length);

  02414	e59d3008	 ldr         r3, [sp, #8]
  02418	e28330a4	 add         r3, r3, #0xA4
  0241c	e5931000	 ldr         r1, [r3]
  02420	e3a00040	 mov         r0, #0x40
  02424	eb000000	 bl          LocalAlloc
  02428	e58d009c	 str         r0, [sp, #0x9C]
  0242c	e59d3008	 ldr         r3, [sp, #8]
  02430	e28320ac	 add         r2, r3, #0xAC
  02434	e59d309c	 ldr         r3, [sp, #0x9C]
  02438	e5823000	 str         r3, [r2]

; 863  : 
; 864  :     if ( !pSerialHead->RxBufferInfo.RxCharBuffer ) {

  0243c	e59d3008	 ldr         r3, [sp, #8]
  02440	e28330ac	 add         r3, r3, #0xAC
  02444	e5933000	 ldr         r3, [r3]
  02448	e3530000	 cmp         r3, #0
  0244c	1a000013	 bne         |$LN3@COM_Init|

; 865  :         DEBUGMSG(ZONE_INIT|ZONE_ERROR,
; 866  :                  (TEXT("Error allocating receive buffer, COM_Init failed\n\r")));

  02450	e59f3190	 ldr         r3, [pc, #0x190]
  02454	e5933440	 ldr         r3, [r3, #0x440]
  02458	e2032001	 and         r2, r3, #1
  0245c	e59f3184	 ldr         r3, [pc, #0x184]
  02460	e5933440	 ldr         r3, [r3, #0x440]
  02464	e2033902	 and         r3, r3, #2, 18
  02468	e1923003	 orrs        r3, r2, r3
  0246c	0a000004	 beq         |$LN40@COM_Init|
  02470	e59f017c	 ldr         r0, [pc, #0x17C]
  02474	eb000000	 bl          NKDbgPrintfW
  02478	e3a03001	 mov         r3, #1
  0247c	e58d30a0	 str         r3, [sp, #0xA0]
  02480	ea000001	 b           |$LN41@COM_Init|
  02484		 |$LN40@COM_Init|
  02484	e3a03000	 mov         r3, #0
  02488	e58d30a0	 str         r3, [sp, #0xA0]
  0248c		 |$LN41@COM_Init|

; 867  :         COM_Deinit(pSerialHead);

  0248c	e59d0008	 ldr         r0, [sp, #8]
  02490	eb000000	 bl          COM_Deinit

; 868  :         return(NULL);

  02494	e3a03000	 mov         r3, #0
  02498	e58d3028	 str         r3, [sp, #0x28]
  0249c	ea00004c	 b           |$LN12@COM_Init|
  024a0		 |$LN3@COM_Init|

; 869  :     }
; 870  : 
; 871  :     DEBUGMSG (ZONE_INIT, (TEXT("RxHead init'ed\r\n")));

  024a0	e59f3140	 ldr         r3, [pc, #0x140]
  024a4	e5933440	 ldr         r3, [r3, #0x440]
  024a8	e3130001	 tst         r3, #1
  024ac	0a000004	 beq         |$LN42@COM_Init|
  024b0	e59f0138	 ldr         r0, [pc, #0x138]
  024b4	eb000000	 bl          NKDbgPrintfW
  024b8	e3a03001	 mov         r3, #1
  024bc	e58d30a4	 str         r3, [sp, #0xA4]
  024c0	ea000001	 b           |$LN43@COM_Init|
  024c4		 |$LN42@COM_Init|
  024c4	e3a03000	 mov         r3, #0
  024c8	e58d30a4	 str         r3, [sp, #0xA4]
  024cc		 |$LN43@COM_Init|

; 872  : 
; 873  :     RxResetFifo(pSerialHead);

  024cc	e59d3008	 ldr         r3, [sp, #8]
  024d0	e283209c	 add         r2, r3, #0x9C
  024d4	e3a03000	 mov         r3, #0
  024d8	e5823000	 str         r3, [r2]
  024dc	e59d3008	 ldr         r3, [sp, #8]
  024e0	e28320a0	 add         r2, r3, #0xA0
  024e4	e3a03000	 mov         r3, #0
  024e8	e5823000	 str         r3, [r2]

; 874  : 
; 875  :     DEBUGMSG (ZONE_INIT, (TEXT("RxBuffer init'ed with start at %x\r\n"),
; 876  :                           pSerialHead->RxBufferInfo.RxCharBuffer));

  024ec	e59f30f4	 ldr         r3, [pc, #0xF4]
  024f0	e5933440	 ldr         r3, [r3, #0x440]
  024f4	e3130001	 tst         r3, #1
  024f8	0a000007	 beq         |$LN44@COM_Init|
  024fc	e59d3008	 ldr         r3, [sp, #8]
  02500	e28330ac	 add         r3, r3, #0xAC
  02504	e5931000	 ldr         r1, [r3]
  02508	e59f00dc	 ldr         r0, [pc, #0xDC]
  0250c	eb000000	 bl          NKDbgPrintfW
  02510	e3a03001	 mov         r3, #1
  02514	e58d30a8	 str         r3, [sp, #0xA8]
  02518	ea000001	 b           |$LN45@COM_Init|
  0251c		 |$LN44@COM_Init|
  0251c	e3a03000	 mov         r3, #0
  02520	e58d30a8	 str         r3, [sp, #0xA8]
  02524		 |$LN45@COM_Init|

; 877  : 
; 878  :     if ( pSerialHead->pHWObj->BindFlags & THREAD_AT_INIT ) {

  02524	e59d3008	 ldr         r3, [sp, #8]
  02528	e2833028	 add         r3, r3, #0x28
  0252c	e5933000	 ldr         r3, [r3]
  02530	e5933000	 ldr         r3, [r3]
  02534	e3130001	 tst         r3, #1
  02538	0a00000a	 beq         |$LN2@COM_Init|

; 879  :         // Hook the interrupt and start the associated thread.
; 880  :         if ( ! StartDispatchThread( pSerialHead ) ) {

  0253c	e59d0008	 ldr         r0, [sp, #8]
  02540	eb000000	 bl          StartDispatchThread
  02544	e58d00ac	 str         r0, [sp, #0xAC]
  02548	e59d30ac	 ldr         r3, [sp, #0xAC]
  0254c	e3530000	 cmp         r3, #0
  02550	1a000004	 bne         |$LN1@COM_Init|

; 881  :             // Failed on InterruptInitialize or CreateThread.  Bail.
; 882  :             COM_Deinit(pSerialHead);

  02554	e59d0008	 ldr         r0, [sp, #8]
  02558	eb000000	 bl          COM_Deinit

; 883  :             return(NULL);

  0255c	e3a03000	 mov         r3, #0
  02560	e58d3028	 str         r3, [sp, #0x28]
  02564	ea00001a	 b           |$LN12@COM_Init|
  02568		 |$LN1@COM_Init|
  02568		 |$LN2@COM_Init|

; 884  :         }
; 885  : 
; 886  :     }
; 887  : 
; 888  :     // OK, now that everything is ready on our end, give the PDD
; 889  :     // one last chance to init interrupts, etc.
; 890  :     (void) pSerialHead->pHWObj->pFuncTbl->HWPostInit( pHWHead );

  02568	e59d0024	 ldr         r0, [sp, #0x24]
  0256c	e59d3008	 ldr         r3, [sp, #8]
  02570	e2833028	 add         r3, r3, #0x28
  02574	e5933000	 ldr         r3, [r3]
  02578	e2833008	 add         r3, r3, #8
  0257c	e5933000	 ldr         r3, [r3]
  02580	e2833004	 add         r3, r3, #4
  02584	e5933000	 ldr         r3, [r3]
  02588	e1a0e00f	 mov         lr, pc
  0258c	e12fff13	 bx          r3

; 891  : 
; 892  :     DEBUGMSG (ZONE_INIT | ZONE_FUNCTION, (TEXT("-COM_Init\r\n")));

  02590	e59f3050	 ldr         r3, [pc, #0x50]
  02594	e5933440	 ldr         r3, [r3, #0x440]
  02598	e2032001	 and         r2, r3, #1
  0259c	e59f3044	 ldr         r3, [pc, #0x44]
  025a0	e5933440	 ldr         r3, [r3, #0x440]
  025a4	e2033a02	 and         r3, r3, #2, 20
  025a8	e1923003	 orrs        r3, r2, r3
  025ac	0a000004	 beq         |$LN46@COM_Init|
  025b0	e59f002c	 ldr         r0, [pc, #0x2C]
  025b4	eb000000	 bl          NKDbgPrintfW
  025b8	e3a03001	 mov         r3, #1
  025bc	e58d30b0	 str         r3, [sp, #0xB0]
  025c0	ea000001	 b           |$LN47@COM_Init|
  025c4		 |$LN46@COM_Init|
  025c4	e3a03000	 mov         r3, #0
  025c8	e58d30b0	 str         r3, [sp, #0xB0]
  025cc		 |$LN47@COM_Init|

; 893  :     return(pSerialHead);

  025cc	e59d3008	 ldr         r3, [sp, #8]
  025d0	e58d3028	 str         r3, [sp, #0x28]
  025d4		 |$LN12@COM_Init|

; 894  : }

  025d4	e59d0028	 ldr         r0, [sp, #0x28]
  025d8	e28dd0b4	 add         sp, sp, #0xB4
  025dc	e89d6000	 ldmia       sp, {sp, lr}
  025e0	e12fff1e	 bx          lr
  025e4		 |$LN51@COM_Init|
  025e4		 |$LN52@COM_Init|
  025e4	00000000	 DCD         |??_C@_1BI@NFEFLGML@?$AA?9?$AAC?$AAO?$AAM?$AA_?$AAI?$AAn?$AAi?$AAt?$AA?$AN?$AA?6?$AA?$AA@|
  025e8		 |$LN53@COM_Init|
  025e8	00000000	 DCD         |dpCurSettings|
  025ec		 |$LN54@COM_Init|
  025ec	00000000	 DCD         |??_C@_1EI@FNCKFJMM@?$AAR?$AAx?$AAB?$AAu?$AAf?$AAf?$AAe?$AAr?$AA?5?$AAi?$AAn?$AAi?$AAt?$AA?8?$AAe?$AAd?$AA?5?$AAw?$AAi?$AAt?$AAh?$AA?5?$AAs?$AAt?$AAa?$AAr?$AAt?$AA?5?$AAa?$AAt?$AA?5?$AA?$CF@|
  025f0		 |$LN55@COM_Init|
  025f0	00000000	 DCD         |??_C@_1CC@POKINGEF@?$AAR?$AAx?$AAH?$AAe?$AAa?$AAd?$AA?5?$AAi?$AAn?$AAi?$AAt?$AA?8?$AAe?$AAd?$AA?$AN?$AA?6?$AA?$AA@|
  025f4		 |$LN56@COM_Init|
  025f4	00000000	 DCD         |??_C@_1GG@FCOIFIDD@?$AAE?$AAr?$AAr?$AAo?$AAr?$AA?5?$AAa?$AAl?$AAl?$AAo?$AAc?$AAa?$AAt?$AAi?$AAn?$AAg?$AA?5?$AAr?$AAe?$AAc?$AAe?$AAi?$AAv?$AAe?$AA?5?$AAb?$AAu?$AAf?$AAf?$AAe?$AAr?$AA?0@|
  025f8		 |$LN57@COM_Init|
  025f8	00000000	 DCD         |??_C@_1DE@CLLKJMN@?$AAB?$AAa?$AAc?$AAk?$AA?5?$AAf?$AAr?$AAo?$AAm?$AA?5?$AAh?$AAa?$AAr?$AAd?$AAw?$AAa?$AAr?$AAe?$AA?5?$AAi?$AAn?$AAi?$AAt?$AA?$AN?$AA?6?$AA?$AA@|
  025fc		 |$LN58@COM_Init|
  025fc	00000000	 DCD         |??_C@_1GG@LFOFGOL@?$AAH?$AAa?$AAr?$AAd?$AAw?$AAa?$AAr?$AAe?$AA?5?$AAd?$AAo?$AAe?$AAs?$AAn?$AA?8?$AAt?$AA?5?$AAi?$AAn?$AAi?$AAt?$AA?5?$AAc?$AAo?$AAr?$AAr?$AAe?$AAc?$AAt?$AAl?$AAy?$AA?0@|
  02600		 |$LN59@COM_Init|
  02600	00000000	 DCD         |??_C@_1EA@DFMKFADA@?$AAA?$AAb?$AAo?$AAu?$AAt?$AA?5?$AAt?$AAo?$AA?5?$AAc?$AAa?$AAl?$AAl?$AA?5?$AAH?$AAW?$AAI?$AAn?$AAi?$AAt?$AA?$CI?$AA?$CF?$AAs?$AA?0?$AA0?$AAx?$AA?$CF?$AAX?$AA?$CJ?$AA?$AN?$AA?6?$AA?$AA@|
  02604		 |$LN60@COM_Init|
  02604	00000000	 DCD         |??_C@_1FI@OHFMJBNJ@?$AAE?$AAr?$AAr?$AAo?$AAr?$AA?5?$AAi?$AAn?$AA?5?$AAG?$AAe?$AAt?$AAS?$AAe?$AAr?$AAi?$AAa?$AAl?$AAO?$AAb?$AAj?$AAe?$AAc?$AAt?$AA?0?$AA?5?$AAC?$AAO?$AAM?$AA_?$AAI?$AAn@|
  02608		 |$LN61@COM_Init|
  02608	00000000	 DCD         |??_C@_1BM@EFMMMFDH@?$AAD?$AAe?$AAv?$AAI?$AAn?$AAd?$AAe?$AAx?$AA?5?$AA?$CF?$AAX?$AA?$AN?$AA?6?$AA?$AA@|
  0260c		 |$LN62@COM_Init|
  0260c	00000000	 DCD         |??_C@_1GI@IGAGBKDE@?$AAF?$AAa?$AAi?$AAl?$AAe?$AAd?$AA?5?$AAt?$AAo?$AA?5?$AAg?$AAe?$AAt?$AA?5?$AAP?$AAr?$AAi?$AAo?$AAr?$AAi?$AAt?$AAy?$AA2?$AA5?$AA6?$AA?5?$AAv?$AAa?$AAl?$AAu?$AAe?$AA?0@|
  02610		 |$LN63@COM_Init|
  02610	00000000	 DCD         |??_C@_1BI@BHLBGEOK@?$AAP?$AAr?$AAi?$AAo?$AAr?$AAi?$AAt?$AAy?$AA2?$AA5?$AA6?$AA?$AA@|
  02614		 |$LN64@COM_Init|
  02614	00000000	 DCD         |??_C@_1HA@FDKKDCHL@?$AAF?$AAa?$AAi?$AAl?$AAe?$AAd?$AA?5?$AAt?$AAo?$AA?5?$AAg?$AAe?$AAt?$AA?5?$AAD?$AAe?$AAv?$AAi?$AAc?$AAe?$AAA?$AAr?$AAr?$AAa?$AAy?$AAI?$AAn?$AAd?$AAe?$AAx?$AA?5?$AAv@|
  02618		 |$LN65@COM_Init|
  02618	00000000	 DCD         |??_C@_1CC@KMPFMANC@?$AAD?$AAe?$AAv?$AAi?$AAc?$AAe?$AAA?$AAr?$AAr?$AAa?$AAy?$AAI?$AAn?$AAd?$AAe?$AAx?$AA?$AA@|
  0261c		 |$LN66@COM_Init|
  0261c	00000000	 DCD         |??_C@_1FK@GNPHIAEF@?$AAF?$AAa?$AAi?$AAl?$AAe?$AAd?$AA?5?$AAt?$AAo?$AA?5?$AAo?$AAp?$AAe?$AAn?$AA?5?$AAd?$AAe?$AAv?$AAk?$AAe?$AAy?$AAp?$AAa?$AAt?$AAh?$AA?0?$AA?5?$AAC?$AAO?$AAM?$AA_?$AAI@|
  02620		 |$LN67@COM_Init|
  02620	00000000	 DCD         |??_C@_1CC@OIKDCOFG@?$AAT?$AAr?$AAy?$AA?5?$AAt?$AAo?$AA?5?$AAo?$AAp?$AAe?$AAn?$AA?5?$AA?$CF?$AAs?$AA?$AN?$AA?6?$AA?$AA@|
  02624		 |$LN68@COM_Init|
  02624	00000000	 DCD         |??_C@_1FA@BECDDKGM@?$AAE?$AAr?$AAr?$AAo?$AAr?$AA?5?$AAc?$AAr?$AAe?$AAa?$AAt?$AAi?$AAn?$AAg?$AA?5?$AAe?$AAv?$AAe?$AAn?$AAt?$AA?0?$AA?5?$AAC?$AAO?$AAM?$AA_?$AAI?$AAn?$AAi?$AAt?$AA?5?$AAf@|
  02628		 |$LN69@COM_Init|
  02628	00000000	 DCD         |??_C@_1HG@FCOJGPAE@?$AAE?$AAr?$AAr?$AAo?$AAr?$AA?5?$AAa?$AAl?$AAl?$AAo?$AAc?$AAa?$AAt?$AAi?$AAn?$AAg?$AA?5?$AAm?$AAe?$AAm?$AAo?$AAr?$AAy?$AA?5?$AAf?$AAo?$AAr?$AA?5?$AAp?$AAS?$AAe?$AAr@|
  0262c		 |$LN70@COM_Init|
  0262c	00000000	 DCD         |??_C@_1BI@GFHIOEJL@?$AA?$CL?$AAC?$AAO?$AAM?$AA_?$AAI?$AAn?$AAi?$AAt?$AA?$AN?$AA?6?$AA?$AA@|
  02630		 |$M41628|

			 ENDP  ; |COM_Init|

	EXPORT	|??_C@_1CE@HHPKLFBI@?$AAH?$AAW?$AA?5?$AAO?$AAp?$AAe?$AAn?$AA?5?$AAf?$AAa?$AAi?$AAl?$AAe?$AAd?$AA?4?$AA?$AN?$AA?6?$AA?$AA@| [ DATA ] ; `string'
	EXPORT	|??_C@_1FG@FDKJAEDJ@?$AAC?$AAO?$AAM?$AA_?$AAO?$AAp?$AAe?$AAn?$AA?3?$AA?5?$AAF?$AAa?$AAi?$AAl?$AAe?$AAd?$AA?5?$AAS?$AAt?$AAa?$AAr?$AAt?$AAD?$AAi?$AAs?$AAp?$AAa?$AAt?$AAc?$AAh?$AAT?$AAh@| [ DATA ] ; `string'
	EXPORT	|??_C@_1FA@GFAOJBEN@?$AAC?$AAO?$AAM?$AA_?$AAO?$AAp?$AAe?$AAn?$AA?3?$AA?5?$AAS?$AAt?$AAa?$AAr?$AAt?$AAi?$AAn?$AAg?$AA?5?$AAD?$AAi?$AAs?$AAp?$AAa?$AAt?$AAc?$AAh?$AAT?$AAh?$AAr?$AAe?$AAa@| [ DATA ] ; `string'
	EXPORT	|??_C@_1EK@MCEDHMPN@?$AAC?$AAO?$AAM?$AA_?$AAO?$AAp?$AAe?$AAn?$AA?3?$AA?5?$AAF?$AAi?$AAr?$AAs?$AAt?$AA?5?$AAo?$AAp?$AAe?$AAn?$AA?5?$AA?3?$AA?5?$AAD?$AAo?$AA?5?$AAI?$AAn?$AAi?$AAt?$AA?5?$AAx@| [ DATA ] ; `string'
	EXPORT	|??_C@_1EK@MFLOMJPC@?$AA?9?$AAC?$AAO?$AAM?$AA_?$AAO?$AAp?$AAe?$AAn?$AA?5?$AAh?$AAa?$AAn?$AAd?$AAl?$AAe?$AA?5?$AAx?$AA?$CF?$AAX?$AA?0?$AA?5?$AAx?$AA?$CF?$AAX?$AA?0?$AA?5?$AAR?$AAe?$AAf?$AA?5?$AAx@| [ DATA ] ; `string'
	EXPORT	|??_C@_1GC@CLBBDJNN@?$AAC?$AAO?$AAM?$AA_?$AAO?$AAp?$AAe?$AAn?$AA?3?$AA?5?$AAA?$AAc?$AAc?$AAe?$AAs?$AAs?$AA?5?$AAp?$AAe?$AAr?$AAm?$AAi?$AAs?$AAs?$AAi?$AAo?$AAn?$AA?5?$AAh?$AAa?$AAn?$AAd@| [ DATA ] ; `string'
	EXPORT	|??_C@_1HC@GGJLMGKF@?$AAE?$AAr?$AAr?$AAo?$AAr?$AA?5?$AAa?$AAl?$AAl?$AAo?$AAc?$AAa?$AAt?$AAi?$AAn?$AAg?$AA?5?$AAm?$AAe?$AAm?$AAo?$AAr?$AAy?$AA?5?$AAf?$AAo?$AAr?$AA?5?$AAp?$AAO?$AAp?$AAe@| [ DATA ] ; `string'
	EXPORT	|??_C@_1HA@GJBLLAJC@?$AAO?$AAp?$AAe?$AAn?$AA?5?$AAr?$AAe?$AAq?$AAu?$AAe?$AAs?$AAt?$AAe?$AAd?$AA?5?$AAa?$AAc?$AAc?$AAe?$AAs?$AAs?$AA?5?$AA?$CF?$AAx?$AA?0?$AA?5?$AAh?$AAa?$AAn?$AAd?$AAl?$AAe@| [ DATA ] ; `string'
	EXPORT	|??_C@_1EK@IHGIHNNE@?$AAO?$AAp?$AAe?$AAn?$AA?5?$AAa?$AAt?$AAt?$AAe?$AAm?$AAp?$AAt?$AAe?$AAd?$AA?5?$AAo?$AAn?$AA?5?$AAu?$AAn?$AAi?$AAn?$AAi?$AAt?$AAe?$AAd?$AA?5?$AAd?$AAe?$AAv?$AAi?$AAc@| [ DATA ] ; `string'
	EXPORT	|??_C@_1FM@OGLFDPL@?$AA?$CL?$AAC?$AAO?$AAM?$AA_?$AAO?$AAp?$AAe?$AAn?$AA?5?$AAh?$AAa?$AAn?$AAd?$AAl?$AAe?$AA?5?$AAx?$AA?$CF?$AAX?$AA?0?$AA?5?$AAa?$AAc?$AAc?$AAe?$AAs?$AAs?$AA?5?$AAx?$AA?$CF?$AAX@| [ DATA ] ; `string'
	EXPORT	|COM_Open|
	IMPORT	|LocalFree|
	IMPORT	|DeleteCriticalSection|
	IMPORT	|SetLastError|

  00040			 AREA	 |.pdata|, PDATA
|$T41680| DCD	|$LN50@COM_Open|
	DCD	0x4002f204

  00000			 AREA	 |.rdata|, DATA, READONLY
|??_C@_1CE@HHPKLFBI@?$AAH?$AAW?$AA?5?$AAO?$AAp?$AAe?$AAn?$AA?5?$AAf?$AAa?$AAi?$AAl?$AAe?$AAd?$AA?4?$AA?$AN?$AA?6?$AA?$AA@| DCB "H"
	DCB	0x0, "W", 0x0, " ", 0x0, "O", 0x0, "p", 0x0, "e", 0x0, "n"
	DCB	0x0, " ", 0x0, "f", 0x0, "a", 0x0, "i", 0x0, "l", 0x0, "e"
	DCB	0x0, "d", 0x0, ".", 0x0, 0xd, 0x0, 0xa, 0x0, 0x0, 0x0 ; `string'

  00000			 AREA	 |.rdata|, DATA, READONLY
|??_C@_1FG@FDKJAEDJ@?$AAC?$AAO?$AAM?$AA_?$AAO?$AAp?$AAe?$AAn?$AA?3?$AA?5?$AAF?$AAa?$AAi?$AAl?$AAe?$AAd?$AA?5?$AAS?$AAt?$AAa?$AAr?$AAt?$AAD?$AAi?$AAs?$AAp?$AAa?$AAt?$AAc?$AAh?$AAT?$AAh@| DCB "C"
	DCB	0x0, "O", 0x0, "M", 0x0, "_", 0x0, "O", 0x0, "p", 0x0, "e"
	DCB	0x0, "n", 0x0, ":", 0x0, " ", 0x0, "F", 0x0, "a", 0x0, "i"
	DCB	0x0, "l", 0x0, "e", 0x0, "d", 0x0, " ", 0x0, "S", 0x0, "t"
	DCB	0x0, "a", 0x0, "r", 0x0, "t", 0x0, "D", 0x0, "i", 0x0, "s"
	DCB	0x0, "p", 0x0, "a", 0x0, "t", 0x0, "c", 0x0, "h", 0x0, "T"
	DCB	0x0, "h", 0x0, "r", 0x0, "e", 0x0, "a", 0x0, "d", 0x0, " "
	DCB	0x0, "x", 0x0, "%", 0x0, "X", 0x0, 0xa, 0x0, 0xd, 0x0, 0x0
	DCB	0x0					; `string'

  00000			 AREA	 |.rdata|, DATA, READONLY
|??_C@_1FA@GFAOJBEN@?$AAC?$AAO?$AAM?$AA_?$AAO?$AAp?$AAe?$AAn?$AA?3?$AA?5?$AAS?$AAt?$AAa?$AAr?$AAt?$AAi?$AAn?$AAg?$AA?5?$AAD?$AAi?$AAs?$AAp?$AAa?$AAt?$AAc?$AAh?$AAT?$AAh?$AAr?$AAe?$AAa@| DCB "C"
	DCB	0x0, "O", 0x0, "M", 0x0, "_", 0x0, "O", 0x0, "p", 0x0, "e"
	DCB	0x0, "n", 0x0, ":", 0x0, " ", 0x0, "S", 0x0, "t", 0x0, "a"
	DCB	0x0, "r", 0x0, "t", 0x0, "i", 0x0, "n", 0x0, "g", 0x0, " "
	DCB	0x0, "D", 0x0, "i", 0x0, "s", 0x0, "p", 0x0, "a", 0x0, "t"
	DCB	0x0, "c", 0x0, "h", 0x0, "T", 0x0, "h", 0x0, "r", 0x0, "e"
	DCB	0x0, "a", 0x0, "d", 0x0, " ", 0x0, "x", 0x0, "%", 0x0, "X"
	DCB	0x0, 0xa, 0x0, 0xd, 0x0, 0x0, 0x0	; `string'

  00000			 AREA	 |.rdata|, DATA, READONLY
|??_C@_1EK@MCEDHMPN@?$AAC?$AAO?$AAM?$AA_?$AAO?$AAp?$AAe?$AAn?$AA?3?$AA?5?$AAF?$AAi?$AAr?$AAs?$AAt?$AA?5?$AAo?$AAp?$AAe?$AAn?$AA?5?$AA?3?$AA?5?$AAD?$AAo?$AA?5?$AAI?$AAn?$AAi?$AAt?$AA?5?$AAx@| DCB "C"
	DCB	0x0, "O", 0x0, "M", 0x0, "_", 0x0, "O", 0x0, "p", 0x0, "e"
	DCB	0x0, "n", 0x0, ":", 0x0, " ", 0x0, "F", 0x0, "i", 0x0, "r"
	DCB	0x0, "s", 0x0, "t", 0x0, " ", 0x0, "o", 0x0, "p", 0x0, "e"
	DCB	0x0, "n", 0x0, " ", 0x0, ":", 0x0, " ", 0x0, "D", 0x0, "o"
	DCB	0x0, " ", 0x0, "I", 0x0, "n", 0x0, "i", 0x0, "t", 0x0, " "
	DCB	0x0, "x", 0x0, "%", 0x0, "X", 0x0, 0xa, 0x0, 0xd, 0x0, 0x0
	DCB	0x0					; `string'

  00000			 AREA	 |.rdata|, DATA, READONLY
|??_C@_1EK@MFLOMJPC@?$AA?9?$AAC?$AAO?$AAM?$AA_?$AAO?$AAp?$AAe?$AAn?$AA?5?$AAh?$AAa?$AAn?$AAd?$AAl?$AAe?$AA?5?$AAx?$AA?$CF?$AAX?$AA?0?$AA?5?$AAx?$AA?$CF?$AAX?$AA?0?$AA?5?$AAR?$AAe?$AAf?$AA?5?$AAx@| DCB "-"
	DCB	0x0, "C", 0x0, "O", 0x0, "M", 0x0, "_", 0x0, "O", 0x0, "p"
	DCB	0x0, "e", 0x0, "n", 0x0, " ", 0x0, "h", 0x0, "a", 0x0, "n"
	DCB	0x0, "d", 0x0, "l", 0x0, "e", 0x0, " ", 0x0, "x", 0x0, "%"
	DCB	0x0, "X", 0x0, ",", 0x0, " ", 0x0, "x", 0x0, "%", 0x0, "X"
	DCB	0x0, ",", 0x0, " ", 0x0, "R", 0x0, "e", 0x0, "f", 0x0, " "
	DCB	0x0, "x", 0x0, "%", 0x0, "X", 0x0, 0xd, 0x0, 0xa, 0x0, 0x0
	DCB	0x0					; `string'

  00000			 AREA	 |.rdata|, DATA, READONLY
|??_C@_1GC@CLBBDJNN@?$AAC?$AAO?$AAM?$AA_?$AAO?$AAp?$AAe?$AAn?$AA?3?$AA?5?$AAA?$AAc?$AAc?$AAe?$AAs?$AAs?$AA?5?$AAp?$AAe?$AAr?$AAm?$AAi?$AAs?$AAs?$AAi?$AAo?$AAn?$AA?5?$AAh?$AAa?$AAn?$AAd@| DCB "C"
	DCB	0x0, "O", 0x0, "M", 0x0, "_", 0x0, "O", 0x0, "p", 0x0, "e"
	DCB	0x0, "n", 0x0, ":", 0x0, " ", 0x0, "A", 0x0, "c", 0x0, "c"
	DCB	0x0, "e", 0x0, "s", 0x0, "s", 0x0, " ", 0x0, "p", 0x0, "e"
	DCB	0x0, "r", 0x0, "m", 0x0, "i", 0x0, "s", 0x0, "s", 0x0, "i"
	DCB	0x0, "o", 0x0, "n", 0x0, " ", 0x0, "h", 0x0, "a", 0x0, "n"
	DCB	0x0, "d", 0x0, "l", 0x0, "e", 0x0, " ", 0x0, "g", 0x0, "r"
	DCB	0x0, "a", 0x0, "n", 0x0, "t", 0x0, "e", 0x0, "d", 0x0, " "
	DCB	0x0, "x", 0x0, "%", 0x0, "X", 0x0, 0xa, 0x0, 0xd, 0x0, 0x0
	DCB	0x0					; `string'

  00000			 AREA	 |.rdata|, DATA, READONLY
|??_C@_1HC@GGJLMGKF@?$AAE?$AAr?$AAr?$AAo?$AAr?$AA?5?$AAa?$AAl?$AAl?$AAo?$AAc?$AAa?$AAt?$AAi?$AAn?$AAg?$AA?5?$AAm?$AAe?$AAm?$AAo?$AAr?$AAy?$AA?5?$AAf?$AAo?$AAr?$AA?5?$AAp?$AAO?$AAp?$AAe@| DCB "E"
	DCB	0x0, "r", 0x0, "r", 0x0, "o", 0x0, "r", 0x0, " ", 0x0, "a"
	DCB	0x0, "l", 0x0, "l", 0x0, "o", 0x0, "c", 0x0, "a", 0x0, "t"
	DCB	0x0, "i", 0x0, "n", 0x0, "g", 0x0, " ", 0x0, "m", 0x0, "e"
	DCB	0x0, "m", 0x0, "o", 0x0, "r", 0x0, "y", 0x0, " ", 0x0, "f"
	DCB	0x0, "o", 0x0, "r", 0x0, " ", 0x0, "p", 0x0, "O", 0x0, "p"
	DCB	0x0, "e", 0x0, "n", 0x0, "H", 0x0, "e", 0x0, "a", 0x0, "d"
	DCB	0x0, ",", 0x0, " ", 0x0, "C", 0x0, "O", 0x0, "M", 0x0, "_"
	DCB	0x0, "O", 0x0, "p", 0x0, "e", 0x0, "n", 0x0, " ", 0x0, "f"
	DCB	0x0, "a", 0x0, "i", 0x0, "l", 0x0, "e", 0x0, "d", 0x0, 0xa
	DCB	0x0, 0xd, 0x0, 0x0, 0x0			; `string'

  00000			 AREA	 |.rdata|, DATA, READONLY
|??_C@_1HA@GJBLLAJC@?$AAO?$AAp?$AAe?$AAn?$AA?5?$AAr?$AAe?$AAq?$AAu?$AAe?$AAs?$AAt?$AAe?$AAd?$AA?5?$AAa?$AAc?$AAc?$AAe?$AAs?$AAs?$AA?5?$AA?$CF?$AAx?$AA?0?$AA?5?$AAh?$AAa?$AAn?$AAd?$AAl?$AAe@| DCB "O"
	DCB	0x0, "p", 0x0, "e", 0x0, "n", 0x0, " ", 0x0, "r", 0x0, "e"
	DCB	0x0, "q", 0x0, "u", 0x0, "e", 0x0, "s", 0x0, "t", 0x0, "e"
	DCB	0x0, "d", 0x0, " ", 0x0, "a", 0x0, "c", 0x0, "c", 0x0, "e"
	DCB	0x0, "s", 0x0, "s", 0x0, " ", 0x0, "%", 0x0, "x", 0x0, ","
	DCB	0x0, " ", 0x0, "h", 0x0, "a", 0x0, "n", 0x0, "d", 0x0, "l"
	DCB	0x0, "e", 0x0, " ", 0x0, "x", 0x0, "%", 0x0, "X", 0x0, " "
	DCB	0x0, "a", 0x0, "l", 0x0, "r", 0x0, "e", 0x0, "a", 0x0, "d"
	DCB	0x0, "y", 0x0, " ", 0x0, "h", 0x0, "a", 0x0, "s", 0x0, " "
	DCB	0x0, "x", 0x0, "%", 0x0, "X", 0x0, "!", 0x0, 0xd, 0x0, 0xa
	DCB	0x0, 0x0, 0x0				; `string'

  00000			 AREA	 |.rdata|, DATA, READONLY
|??_C@_1EK@IHGIHNNE@?$AAO?$AAp?$AAe?$AAn?$AA?5?$AAa?$AAt?$AAt?$AAe?$AAm?$AAp?$AAt?$AAe?$AAd?$AA?5?$AAo?$AAn?$AA?5?$AAu?$AAn?$AAi?$AAn?$AAi?$AAt?$AAe?$AAd?$AA?5?$AAd?$AAe?$AAv?$AAi?$AAc@| DCB "O"
	DCB	0x0, "p", 0x0, "e", 0x0, "n", 0x0, " ", 0x0, "a", 0x0, "t"
	DCB	0x0, "t", 0x0, "e", 0x0, "m", 0x0, "p", 0x0, "t", 0x0, "e"
	DCB	0x0, "d", 0x0, " ", 0x0, "o", 0x0, "n", 0x0, " ", 0x0, "u"
	DCB	0x0, "n", 0x0, "i", 0x0, "n", 0x0, "i", 0x0, "t", 0x0, "e"
	DCB	0x0, "d", 0x0, " ", 0x0, "d", 0x0, "e", 0x0, "v", 0x0, "i"
	DCB	0x0, "c", 0x0, "e", 0x0, "!", 0x0, 0xd, 0x0, 0xa, 0x0, 0x0
	DCB	0x0					; `string'

  00000			 AREA	 |.rdata|, DATA, READONLY
|??_C@_1FM@OGLFDPL@?$AA?$CL?$AAC?$AAO?$AAM?$AA_?$AAO?$AAp?$AAe?$AAn?$AA?5?$AAh?$AAa?$AAn?$AAd?$AAl?$AAe?$AA?5?$AAx?$AA?$CF?$AAX?$AA?0?$AA?5?$AAa?$AAc?$AAc?$AAe?$AAs?$AAs?$AA?5?$AAx?$AA?$CF?$AAX@| DCB "+"
	DCB	0x0, "C", 0x0, "O", 0x0, "M", 0x0, "_", 0x0, "O", 0x0, "p"
	DCB	0x0, "e", 0x0, "n", 0x0, " ", 0x0, "h", 0x0, "a", 0x0, "n"
	DCB	0x0, "d", 0x0, "l", 0x0, "e", 0x0, " ", 0x0, "x", 0x0, "%"
	DCB	0x0, "X", 0x0, ",", 0x0, " ", 0x0, "a", 0x0, "c", 0x0, "c"
	DCB	0x0, "e", 0x0, "s", 0x0, "s", 0x0, " ", 0x0, "x", 0x0, "%"
	DCB	0x0, "X", 0x0, ",", 0x0, " ", 0x0, "s", 0x0, "h", 0x0, "a"
	DCB	0x0, "r", 0x0, "e", 0x0, " ", 0x0, "x", 0x0, "%", 0x0, "X"
	DCB	0x0, 0xd, 0x0, 0xa, 0x0, 0x0, 0x0	; `string'
; Function compile flags: /Odtp

  02630			 AREA	 |.text|, CODE, ARM

  02630		 |COM_Open| PROC

; 913  : {

  02630		 |$LN50@COM_Open|
  02630	e1a0c00d	 mov         r12, sp
  02634	e92d0007	 stmdb       sp!, {r0 - r2}
  02638	e92d5000	 stmdb       sp!, {r12, lr}
  0263c	e24dd05c	 sub         sp, sp, #0x5C
  02640		 |$M41677|

; 914  :     PHW_INDEP_INFO  pSerialHead = (PHW_INDEP_INFO)pHead;

  02640	e59d3064	 ldr         r3, [sp, #0x64]
  02644	e58d3000	 str         r3, [sp]

; 915  :     PHW_OPEN_INFO   pOpenHead;
; 916  :     PHWOBJ          pHWObj      = pSerialHead->pHWObj;

  02648	e59d3000	 ldr         r3, [sp]
  0264c	e2833028	 add         r3, r3, #0x28
  02650	e5933000	 ldr         r3, [r3]
  02654	e58d3004	 str         r3, [sp, #4]

; 917  : 
; 918  :     DEBUGMSG (ZONE_OPEN|ZONE_FUNCTION, (TEXT("+COM_Open handle x%X, access x%X, share x%X\r\n"),
; 919  :                                         pHead, AccessCode, ShareMode));

  02658	e59f3b70	 ldr         r3, [pc, #0xB70]
  0265c	e5933440	 ldr         r3, [r3, #0x440]
  02660	e2032002	 and         r2, r3, #2
  02664	e59f3b64	 ldr         r3, [pc, #0xB64]
  02668	e5933440	 ldr         r3, [r3, #0x440]
  0266c	e2033a02	 and         r3, r3, #2, 20
  02670	e1923003	 orrs        r3, r2, r3
  02674	0a000007	 beq         |$LN24@COM_Open|
  02678	e59d306c	 ldr         r3, [sp, #0x6C]
  0267c	e59d2068	 ldr         r2, [sp, #0x68]
  02680	e59d1064	 ldr         r1, [sp, #0x64]
  02684	e59f0b68	 ldr         r0, [pc, #0xB68]
  02688	eb000000	 bl          NKDbgPrintfW
  0268c	e3a03001	 mov         r3, #1
  02690	e58d301c	 str         r3, [sp, #0x1C]
  02694	ea000001	 b           |$LN25@COM_Open|
  02698		 |$LN24@COM_Open|
  02698	e3a03000	 mov         r3, #0
  0269c	e58d301c	 str         r3, [sp, #0x1C]
  026a0		 |$LN25@COM_Open|

; 920  : 
; 921  :     // Return NULL if SerialInit failed.
; 922  :     if ( !pSerialHead ) {

  026a0	e59d3000	 ldr         r3, [sp]
  026a4	e3530000	 cmp         r3, #0
  026a8	1a000013	 bne         |$LN21@COM_Open|

; 923  :         DEBUGMSG (ZONE_OPEN|ZONE_ERROR,
; 924  :                   (TEXT("Open attempted on uninited device!\r\n")));

  026ac	e59f3b1c	 ldr         r3, [pc, #0xB1C]
  026b0	e5933440	 ldr         r3, [r3, #0x440]
  026b4	e2032002	 and         r2, r3, #2
  026b8	e59f3b10	 ldr         r3, [pc, #0xB10]
  026bc	e5933440	 ldr         r3, [r3, #0x440]
  026c0	e2033902	 and         r3, r3, #2, 18
  026c4	e1923003	 orrs        r3, r2, r3
  026c8	0a000004	 beq         |$LN26@COM_Open|
  026cc	e59f0b1c	 ldr         r0, [pc, #0xB1C]
  026d0	eb000000	 bl          NKDbgPrintfW
  026d4	e3a03001	 mov         r3, #1
  026d8	e58d3020	 str         r3, [sp, #0x20]
  026dc	ea000001	 b           |$LN27@COM_Open|
  026e0		 |$LN26@COM_Open|
  026e0	e3a03000	 mov         r3, #0
  026e4	e58d3020	 str         r3, [sp, #0x20]
  026e8		 |$LN27@COM_Open|

; 925  :         SetLastError(ERROR_INVALID_HANDLE);

  026e8	e3a00006	 mov         r0, #6
  026ec	eb000000	 bl          SetLastError

; 926  :         return(NULL);

  026f0	e3a03000	 mov         r3, #0
  026f4	e58d3018	 str         r3, [sp, #0x18]
  026f8	ea0002af	 b           |$LN22@COM_Open|
  026fc		 |$LN21@COM_Open|

; 927  :     }
; 928  : 
; 929  :     if (AccessCode & DEVACCESS_BUSNAMESPACE ) {

  026fc	e59d3068	 ldr         r3, [sp, #0x68]
  02700	e3130c01	 tst         r3, #1, 24
  02704	0a000003	 beq         |$LN20@COM_Open|

; 930  :         AccessCode &=~(GENERIC_READ |GENERIC_WRITE|GENERIC_EXECUTE|GENERIC_ALL);

  02708	e59d2068	 ldr         r2, [sp, #0x68]
  0270c	e3e0320f	 mvn         r3, #0xF, 4
  02710	e0023003	 and         r3, r2, r3
  02714	e58d3068	 str         r3, [sp, #0x68]
  02718		 |$LN20@COM_Open|

; 931  :     }
; 932  : 
; 933  :     // Return NULL if opening with access & someone else already has
; 934  :     if ( (AccessCode & (GENERIC_READ | GENERIC_WRITE)) &&
; 935  :          pSerialHead->pAccessOwner ) {

  02718	e59d3068	 ldr         r3, [sp, #0x68]
  0271c	e3130103	 tst         r3, #3, 2
  02720	0a000021	 beq         |$LN19@COM_Open|
  02724	e59d3000	 ldr         r3, [sp]
  02728	e2833c01	 add         r3, r3, #1, 24
  0272c	e5933000	 ldr         r3, [r3]
  02730	e3530000	 cmp         r3, #0
  02734	0a00001c	 beq         |$LN19@COM_Open|

; 936  :         DEBUGMSG (ZONE_OPEN|ZONE_ERROR,
; 937  :                   (TEXT("Open requested access %x, handle x%X already has x%X!\r\n"),
; 938  :                    AccessCode, pSerialHead->pAccessOwner,
; 939  :                    pSerialHead->pAccessOwner->AccessCode));

  02738	e59f3a90	 ldr         r3, [pc, #0xA90]
  0273c	e5933440	 ldr         r3, [r3, #0x440]
  02740	e2032002	 and         r2, r3, #2
  02744	e59f3a84	 ldr         r3, [pc, #0xA84]
  02748	e5933440	 ldr         r3, [r3, #0x440]
  0274c	e2033902	 and         r3, r3, #2, 18
  02750	e1923003	 orrs        r3, r2, r3
  02754	0a00000d	 beq         |$LN28@COM_Open|
  02758	e59d3000	 ldr         r3, [sp]
  0275c	e2833c01	 add         r3, r3, #1, 24
  02760	e5933000	 ldr         r3, [r3]
  02764	e2833004	 add         r3, r3, #4
  02768	e5933000	 ldr         r3, [r3]
  0276c	e59d2000	 ldr         r2, [sp]
  02770	e2822c01	 add         r2, r2, #1, 24
  02774	e5922000	 ldr         r2, [r2]
  02778	e59d1068	 ldr         r1, [sp, #0x68]
  0277c	e59f0a68	 ldr         r0, [pc, #0xA68]
  02780	eb000000	 bl          NKDbgPrintfW
  02784	e3a03001	 mov         r3, #1
  02788	e58d3024	 str         r3, [sp, #0x24]
  0278c	ea000001	 b           |$LN29@COM_Open|
  02790		 |$LN28@COM_Open|
  02790	e3a03000	 mov         r3, #0
  02794	e58d3024	 str         r3, [sp, #0x24]
  02798		 |$LN29@COM_Open|

; 940  :         SetLastError(ERROR_INVALID_ACCESS);

  02798	e3a0000c	 mov         r0, #0xC
  0279c	eb000000	 bl          SetLastError

; 941  :         return(NULL);

  027a0	e3a03000	 mov         r3, #0
  027a4	e58d3018	 str         r3, [sp, #0x18]
  027a8	ea000283	 b           |$LN22@COM_Open|
  027ac		 |$LN19@COM_Open|

; 942  :     }
; 943  : 
; 944  :     // OK, lets allocate an open structure
; 945  :     pOpenHead    =  (PHW_OPEN_INFO)LocalAlloc(LPTR, sizeof(HW_OPEN_INFO));

  027ac	e3a0103c	 mov         r1, #0x3C
  027b0	e3a00040	 mov         r0, #0x40
  027b4	eb000000	 bl          LocalAlloc
  027b8	e58d0028	 str         r0, [sp, #0x28]
  027bc	e59d3028	 ldr         r3, [sp, #0x28]
  027c0	e58d3008	 str         r3, [sp, #8]

; 946  :     if ( !pOpenHead ) {

  027c4	e59d3008	 ldr         r3, [sp, #8]
  027c8	e3530000	 cmp         r3, #0
  027cc	1a000011	 bne         |$LN18@COM_Open|

; 947  :         DEBUGMSG(ZONE_INIT | ZONE_ERROR,
; 948  :                  (TEXT("Error allocating memory for pOpenHead, COM_Open failed\n\r")));

  027d0	e59f39f8	 ldr         r3, [pc, #0x9F8]
  027d4	e5933440	 ldr         r3, [r3, #0x440]
  027d8	e2032001	 and         r2, r3, #1
  027dc	e59f39ec	 ldr         r3, [pc, #0x9EC]
  027e0	e5933440	 ldr         r3, [r3, #0x440]
  027e4	e2033902	 and         r3, r3, #2, 18
  027e8	e1923003	 orrs        r3, r2, r3
  027ec	0a000004	 beq         |$LN30@COM_Open|
  027f0	e59f09f0	 ldr         r0, [pc, #0x9F0]
  027f4	eb000000	 bl          NKDbgPrintfW
  027f8	e3a03001	 mov         r3, #1
  027fc	e58d302c	 str         r3, [sp, #0x2C]
  02800	ea000001	 b           |$LN31@COM_Open|
  02804		 |$LN30@COM_Open|
  02804	e3a03000	 mov         r3, #0
  02808	e58d302c	 str         r3, [sp, #0x2C]
  0280c		 |$LN31@COM_Open|

; 949  :         return(NULL);

  0280c	e3a03000	 mov         r3, #0
  02810	e58d3018	 str         r3, [sp, #0x18]
  02814	ea000268	 b           |$LN22@COM_Open|
  02818		 |$LN18@COM_Open|

; 950  :     }
; 951  : 
; 952  :     // Init the structure
; 953  :     pOpenHead->pSerialHead = pSerialHead;  // pointer back to our parent

  02818	e59d2000	 ldr         r2, [sp]
  0281c	e59d3008	 ldr         r3, [sp, #8]
  02820	e5832000	 str         r2, [r3]

; 954  :     pOpenHead->StructUsers = 0;

  02824	e59d3008	 ldr         r3, [sp, #8]
  02828	e283200c	 add         r2, r3, #0xC
  0282c	e3a03000	 mov         r3, #0
  02830	e5823000	 str         r3, [r2]

; 955  :     pOpenHead->AccessCode = AccessCode;

  02834	e59d3008	 ldr         r3, [sp, #8]
  02838	e2832004	 add         r2, r3, #4
  0283c	e59d3068	 ldr         r3, [sp, #0x68]
  02840	e5823000	 str         r3, [r2]

; 956  :     pOpenHead->ShareMode = ShareMode;

  02844	e59d3008	 ldr         r3, [sp, #8]
  02848	e2832008	 add         r2, r3, #8
  0284c	e59d306c	 ldr         r3, [sp, #0x6C]
  02850	e5823000	 str         r3, [r2]

; 957  :     pOpenHead->CommEvents.hCommEvent = CreateEvent(NULL, FALSE, FALSE, NULL);

  02854	e3a03000	 mov         r3, #0
  02858	e3a02000	 mov         r2, #0
  0285c	e3a01000	 mov         r1, #0
  02860	e3a00000	 mov         r0, #0
  02864	eb000000	 bl          CreateEventW
  02868	e58d0030	 str         r0, [sp, #0x30]
  0286c	e59d3008	 ldr         r3, [sp, #8]
  02870	e2832010	 add         r2, r3, #0x10
  02874	e59d3030	 ldr         r3, [sp, #0x30]
  02878	e5823000	 str         r3, [r2]

; 958  :     pOpenHead->CommEvents.fEventMask = 0;

  0287c	e59d3008	 ldr         r3, [sp, #8]
  02880	e2832014	 add         r2, r3, #0x14
  02884	e3a03000	 mov         r3, #0
  02888	e5823000	 str         r3, [r2]

; 959  :     pOpenHead->CommEvents.fEventData = 0;

  0288c	e59d3008	 ldr         r3, [sp, #8]
  02890	e2832018	 add         r2, r3, #0x18
  02894	e3a03000	 mov         r3, #0
  02898	e5823000	 str         r3, [r2]

; 960  :     pOpenHead->CommEvents.fAbort = 0;

  0289c	e59d3008	 ldr         r3, [sp, #8]
  028a0	e283201c	 add         r2, r3, #0x1C
  028a4	e3a03000	 mov         r3, #0
  028a8	e5823000	 str         r3, [r2]

; 961  :     InitializeCriticalSection(&(pOpenHead->CommEvents.EventCS));

  028ac	e59d3008	 ldr         r3, [sp, #8]
  028b0	e2830020	 add         r0, r3, #0x20
  028b4	eb000000	 bl          InitializeCriticalSection

; 962  : 
; 963  :     // if we have access permissions, note it in pSerialhead
; 964  :     if ( AccessCode & (GENERIC_READ | GENERIC_WRITE) ) {

  028b8	e59d3068	 ldr         r3, [sp, #0x68]
  028bc	e3130103	 tst         r3, #3, 2
  028c0	0a000013	 beq         |$LN17@COM_Open|

; 965  :         DEBUGMSG(ZONE_INIT|ZONE_CLOSE,
; 966  :                  (TEXT("COM_Open: Access permission handle granted x%X\n\r"),
; 967  :                   pOpenHead));

  028c4	e59f3904	 ldr         r3, [pc, #0x904]
  028c8	e5933440	 ldr         r3, [r3, #0x440]
  028cc	e2032001	 and         r2, r3, #1
  028d0	e59f38f8	 ldr         r3, [pc, #0x8F8]
  028d4	e5933440	 ldr         r3, [r3, #0x440]
  028d8	e2033010	 and         r3, r3, #0x10
  028dc	e1923003	 orrs        r3, r2, r3
  028e0	0a000005	 beq         |$LN32@COM_Open|
  028e4	e59d1008	 ldr         r1, [sp, #8]
  028e8	e59f08f4	 ldr         r0, [pc, #0x8F4]
  028ec	eb000000	 bl          NKDbgPrintfW
  028f0	e3a03001	 mov         r3, #1
  028f4	e58d3034	 str         r3, [sp, #0x34]
  028f8	ea000001	 b           |$LN33@COM_Open|
  028fc		 |$LN32@COM_Open|
  028fc	e3a03000	 mov         r3, #0
  02900	e58d3034	 str         r3, [sp, #0x34]
  02904		 |$LN33@COM_Open|

; 968  :         pSerialHead->pAccessOwner = pOpenHead;

  02904	e59d3000	 ldr         r3, [sp]
  02908	e2832c01	 add         r2, r3, #1, 24
  0290c	e59d3008	 ldr         r3, [sp, #8]
  02910	e5823000	 str         r3, [r2]
  02914		 |$LN17@COM_Open|

; 969  :     }
; 970  : 
; 971  :     // add this open entry to list of open entries.
; 972  :     // Note that we hold the open CS for the duration of the routine since
; 973  :     // all of our state info is in flux during this time.  In particular,
; 974  :     // without the CS is would be possible for an open & close to be going on
; 975  :     // simultaneously and have bad things happen like spinning a new event
; 976  :     // thread before the old one was gone, etc.
; 977  :     EnterCriticalSection(&(pSerialHead->OpenCS));

  02914	e59d3000	 ldr         r3, [sp]
  02918	e28300ec	 add         r0, r3, #0xEC
  0291c	eb000000	 bl          EnterCriticalSection

; 978  :     InsertHeadList(&pSerialHead->OpenList,
; 979  :                    &pOpenHead->llist);

  02920	e59d3000	 ldr         r3, [sp]
  02924	e28330e4	 add         r3, r3, #0xE4
  02928	e58d3010	 str         r3, [sp, #0x10]
  0292c	e59d3010	 ldr         r3, [sp, #0x10]
  02930	e5933000	 ldr         r3, [r3]
  02934	e58d300c	 str         r3, [sp, #0xC]
  02938	e59d3008	 ldr         r3, [sp, #8]
  0293c	e2832034	 add         r2, r3, #0x34
  02940	e59d300c	 ldr         r3, [sp, #0xC]
  02944	e5823000	 str         r3, [r2]
  02948	e59d3008	 ldr         r3, [sp, #8]
  0294c	e2832038	 add         r2, r3, #0x38
  02950	e59d3010	 ldr         r3, [sp, #0x10]
  02954	e5823000	 str         r3, [r2]
  02958	e59d3008	 ldr         r3, [sp, #8]
  0295c	e2832034	 add         r2, r3, #0x34
  02960	e59d300c	 ldr         r3, [sp, #0xC]
  02964	e2833004	 add         r3, r3, #4
  02968	e5832000	 str         r2, [r3]
  0296c	e59d3008	 ldr         r3, [sp, #8]
  02970	e2832034	 add         r2, r3, #0x34
  02974	e59d3010	 ldr         r3, [sp, #0x10]
  02978	e5832000	 str         r2, [r3]

; 980  : 
; 981  :     // We do special for Power Manger and Device Manager.
; 982  :     if ((pOpenHead->AccessCode &  DEVACCESS_BUSNAMESPACE) || (ShareMode & DEVACCESS_PMEXT_MODE) ) {

  0297c	e59d3008	 ldr         r3, [sp, #8]
  02980	e2833004	 add         r3, r3, #4
  02984	e5933000	 ldr         r3, [r3]
  02988	e3130c01	 tst         r3, #1, 24
  0298c	1a000002	 bne         |$LN12@COM_Open|
  02990	e59d306c	 ldr         r3, [sp, #0x6C]
  02994	e3130102	 tst         r3, #2, 2
  02998	0a00001a	 beq         |$LN13@COM_Open|
  0299c		 |$LN12@COM_Open|

; 983  :         // OK, We do not need initialize pSerailHead and start any thread. return the handle now.
; 984  :         LeaveCriticalSection(&(pSerialHead->OpenCS));

  0299c	e59d3000	 ldr         r3, [sp]
  029a0	e28300ec	 add         r0, r3, #0xEC
  029a4	eb000000	 bl          LeaveCriticalSection

; 985  :         DEBUGMSG (ZONE_OPEN|ZONE_FUNCTION, (TEXT("-COM_Open handle x%X, x%X, Ref x%X\r\n"),
; 986  :                                         pOpenHead, pOpenHead->pSerialHead, pSerialHead->OpenCnt));

  029a8	e59f3820	 ldr         r3, [pc, #0x820]
  029ac	e5933440	 ldr         r3, [r3, #0x440]
  029b0	e2032002	 and         r2, r3, #2
  029b4	e59f3814	 ldr         r3, [pc, #0x814]
  029b8	e5933440	 ldr         r3, [r3, #0x440]
  029bc	e2033a02	 and         r3, r3, #2, 20
  029c0	e1923003	 orrs        r3, r2, r3
  029c4	0a00000a	 beq         |$LN34@COM_Open|
  029c8	e59d3000	 ldr         r3, [sp]
  029cc	e2833090	 add         r3, r3, #0x90
  029d0	e5933000	 ldr         r3, [r3]
  029d4	e59d2008	 ldr         r2, [sp, #8]
  029d8	e5922000	 ldr         r2, [r2]
  029dc	e59d1008	 ldr         r1, [sp, #8]
  029e0	e59f07e4	 ldr         r0, [pc, #0x7E4]
  029e4	eb000000	 bl          NKDbgPrintfW
  029e8	e3a03001	 mov         r3, #1
  029ec	e58d3038	 str         r3, [sp, #0x38]
  029f0	ea000001	 b           |$LN35@COM_Open|
  029f4		 |$LN34@COM_Open|
  029f4	e3a03000	 mov         r3, #0
  029f8	e58d3038	 str         r3, [sp, #0x38]
  029fc		 |$LN35@COM_Open|

; 987  :         return(pOpenHead);

  029fc	e59d3008	 ldr         r3, [sp, #8]
  02a00	e58d3018	 str         r3, [sp, #0x18]
  02a04	ea0001ec	 b           |$LN22@COM_Open|
  02a08		 |$LN13@COM_Open|

; 988  : 
; 989  :     }
; 990  :     //
; 991  : 
; 992  :     // If port not yet opened, we need to do some init
; 993  :     if ( ! pSerialHead->OpenCnt ) {

  02a08	e59d3000	 ldr         r3, [sp]
  02a0c	e2833090	 add         r3, r3, #0x90
  02a10	e5933000	 ldr         r3, [r3]
  02a14	e3530000	 cmp         r3, #0
  02a18	1a000181	 bne         |$LN11@COM_Open|

; 994  :         DEBUGMSG(ZONE_INIT|ZONE_OPEN,
; 995  :                  (TEXT("COM_Open: First open : Do Init x%X\n\r"),
; 996  :                   pOpenHead));

  02a1c	e59f37ac	 ldr         r3, [pc, #0x7AC]
  02a20	e5933440	 ldr         r3, [r3, #0x440]
  02a24	e2032001	 and         r2, r3, #1
  02a28	e59f37a0	 ldr         r3, [pc, #0x7A0]
  02a2c	e5933440	 ldr         r3, [r3, #0x440]
  02a30	e2033002	 and         r3, r3, #2
  02a34	e1923003	 orrs        r3, r2, r3
  02a38	0a000005	 beq         |$LN36@COM_Open|
  02a3c	e59d1008	 ldr         r1, [sp, #8]
  02a40	e59f0798	 ldr         r0, [pc, #0x798]
  02a44	eb000000	 bl          NKDbgPrintfW
  02a48	e3a03001	 mov         r3, #1
  02a4c	e58d303c	 str         r3, [sp, #0x3C]
  02a50	ea000001	 b           |$LN37@COM_Open|
  02a54		 |$LN36@COM_Open|
  02a54	e3a03000	 mov         r3, #0
  02a58	e58d303c	 str         r3, [sp, #0x3C]
  02a5c		 |$LN37@COM_Open|

; 997  : 
; 998  :         if ( pSerialHead->pHWObj->BindFlags & THREAD_AT_OPEN ) {

  02a5c	e59d3000	 ldr         r3, [sp]
  02a60	e2833028	 add         r3, r3, #0x28
  02a64	e5933000	 ldr         r3, [r3]
  02a68	e5933000	 ldr         r3, [r3]
  02a6c	e3130002	 tst         r3, #2
  02a70	0a000026	 beq         |$LN10@COM_Open|

; 999  :             DEBUGMSG(ZONE_INIT|ZONE_OPEN,
; 1000 :                      (TEXT("COM_Open: Starting DispatchThread x%X\n\r"),
; 1001 :                       pOpenHead));

  02a74	e59f3754	 ldr         r3, [pc, #0x754]
  02a78	e5933440	 ldr         r3, [r3, #0x440]
  02a7c	e2032001	 and         r2, r3, #1
  02a80	e59f3748	 ldr         r3, [pc, #0x748]
  02a84	e5933440	 ldr         r3, [r3, #0x440]
  02a88	e2033002	 and         r3, r3, #2
  02a8c	e1923003	 orrs        r3, r2, r3
  02a90	0a000005	 beq         |$LN38@COM_Open|
  02a94	e59d1008	 ldr         r1, [sp, #8]
  02a98	e59f073c	 ldr         r0, [pc, #0x73C]
  02a9c	eb000000	 bl          NKDbgPrintfW
  02aa0	e3a03001	 mov         r3, #1
  02aa4	e58d3040	 str         r3, [sp, #0x40]
  02aa8	ea000001	 b           |$LN39@COM_Open|
  02aac		 |$LN38@COM_Open|
  02aac	e3a03000	 mov         r3, #0
  02ab0	e58d3040	 str         r3, [sp, #0x40]
  02ab4		 |$LN39@COM_Open|

; 1002 :             // Hook the interrupt and start the associated thread.
; 1003 :             if ( ! StartDispatchThread( pSerialHead ) ) {

  02ab4	e59d0000	 ldr         r0, [sp]
  02ab8	eb000000	 bl          StartDispatchThread
  02abc	e58d0044	 str         r0, [sp, #0x44]
  02ac0	e59d3044	 ldr         r3, [sp, #0x44]
  02ac4	e3530000	 cmp         r3, #0
  02ac8	1a000010	 bne         |$LN9@COM_Open|

; 1004 :                 // Failed on InterruptInitialize or CreateThread.  Bail.
; 1005 :                 DEBUGMSG(ZONE_INIT|ZONE_OPEN,
; 1006 :                          (TEXT("COM_Open: Failed StartDispatchThread x%X\n\r"),
; 1007 :                           pOpenHead));

  02acc	e59f36fc	 ldr         r3, [pc, #0x6FC]
  02ad0	e5933440	 ldr         r3, [r3, #0x440]
  02ad4	e2032001	 and         r2, r3, #1
  02ad8	e59f36f0	 ldr         r3, [pc, #0x6F0]
  02adc	e5933440	 ldr         r3, [r3, #0x440]
  02ae0	e2033002	 and         r3, r3, #2
  02ae4	e1923003	 orrs        r3, r2, r3
  02ae8	0a000005	 beq         |$LN40@COM_Open|
  02aec	e59d1008	 ldr         r1, [sp, #8]
  02af0	e59f06e0	 ldr         r0, [pc, #0x6E0]
  02af4	eb000000	 bl          NKDbgPrintfW
  02af8	e3a03001	 mov         r3, #1
  02afc	e58d3048	 str         r3, [sp, #0x48]
  02b00	ea000001	 b           |$LN41@COM_Open|
  02b04		 |$LN40@COM_Open|
  02b04	e3a03000	 mov         r3, #0
  02b08	e58d3048	 str         r3, [sp, #0x48]
  02b0c		 |$LN41@COM_Open|

; 1008 :                 goto OpenFail;

  02b0c	ea000166	 b           |$OpenFail$40404|
  02b10		 |$LN9@COM_Open|
  02b10		 |$LN10@COM_Open|

; 1009 :             }
; 1010 :         }
; 1011 : 
; 1012 :         pSerialHead->RxBytes = 0;

  02b10	e59d3000	 ldr         r3, [sp]
  02b14	e2832050	 add         r2, r3, #0x50
  02b18	e3a03000	 mov         r3, #0
  02b1c	e5823000	 str         r3, [r2]

; 1013 :         pSerialHead->TxBytes = 0;

  02b20	e59d3000	 ldr         r3, [sp]
  02b24	e2832054	 add         r2, r3, #0x54
  02b28	e3a03000	 mov         r3, #0
  02b2c	e5823000	 str         r3, [r2]

; 1014 :         pSerialHead->TxBytesPending = 0;

  02b30	e59d3000	 ldr         r3, [sp]
  02b34	e2832058	 add         r2, r3, #0x58
  02b38	e3a03000	 mov         r3, #0
  02b3c	e5823000	 str         r3, [r2]

; 1015 :         pSerialHead->DroppedBytesMDD = 0;

  02b40	e59d3000	 ldr         r3, [sp]
  02b44	e2832048	 add         r2, r3, #0x48
  02b48	e3a03000	 mov         r3, #0
  02b4c	e5823000	 str         r3, [r2]

; 1016 :         pSerialHead->DroppedBytesPDD = 0;

  02b50	e59d3000	 ldr         r3, [sp]
  02b54	e283204c	 add         r2, r3, #0x4C
  02b58	e3a03000	 mov         r3, #0
  02b5c	e5823000	 str         r3, [r2]

; 1017 : 
; 1018 :         pSerialHead->DCB.DCBlength  = sizeof(DCB);

  02b60	e59d3000	 ldr         r3, [sp]
  02b64	e2832060	 add         r2, r3, #0x60
  02b68	e3a0301c	 mov         r3, #0x1C
  02b6c	e5823000	 str         r3, [r2]

; 1019 :         pSerialHead->DCB.BaudRate   = 9600;

  02b70	e59d3000	 ldr         r3, [sp]
  02b74	e2832064	 add         r2, r3, #0x64
  02b78	e3a03d96	 mov         r3, #0x96, 26
  02b7c	e5823000	 str         r3, [r2]

; 1020 :         pSerialHead->DCB.fBinary    = TRUE;

  02b80	e59d3000	 ldr         r3, [sp]
  02b84	e2833068	 add         r3, r3, #0x68
  02b88	e5933000	 ldr         r3, [r3]
  02b8c	e3832001	 orr         r2, r3, #1
  02b90	e59d3000	 ldr         r3, [sp]
  02b94	e2833068	 add         r3, r3, #0x68
  02b98	e5832000	 str         r2, [r3]

; 1021 :         pSerialHead->DCB.fParity    = FALSE;

  02b9c	e59d3000	 ldr         r3, [sp]
  02ba0	e2833068	 add         r3, r3, #0x68
  02ba4	e5932000	 ldr         r2, [r3]
  02ba8	e3e03002	 mvn         r3, #2
  02bac	e0022003	 and         r2, r2, r3
  02bb0	e59d3000	 ldr         r3, [sp]
  02bb4	e2833068	 add         r3, r3, #0x68
  02bb8	e5832000	 str         r2, [r3]

; 1022 : 
; 1023 :         pSerialHead->DCB.fOutxCtsFlow = FALSE;

  02bbc	e59d3000	 ldr         r3, [sp]
  02bc0	e2833068	 add         r3, r3, #0x68
  02bc4	e5932000	 ldr         r2, [r3]
  02bc8	e3e03004	 mvn         r3, #4
  02bcc	e0022003	 and         r2, r2, r3
  02bd0	e59d3000	 ldr         r3, [sp]
  02bd4	e2833068	 add         r3, r3, #0x68
  02bd8	e5832000	 str         r2, [r3]

; 1024 :         pSerialHead->DCB.fOutxDsrFlow = FALSE;

  02bdc	e59d3000	 ldr         r3, [sp]
  02be0	e2833068	 add         r3, r3, #0x68
  02be4	e5932000	 ldr         r2, [r3]
  02be8	e3e03008	 mvn         r3, #8
  02bec	e0022003	 and         r2, r2, r3
  02bf0	e59d3000	 ldr         r3, [sp]
  02bf4	e2833068	 add         r3, r3, #0x68
  02bf8	e5832000	 str         r2, [r3]

; 1025 :         pSerialHead->DCB.fDtrControl = DTR_CONTROL_ENABLE;

  02bfc	e59d3000	 ldr         r3, [sp]
  02c00	e2833068	 add         r3, r3, #0x68
  02c04	e5932000	 ldr         r2, [r3]
  02c08	e3e03030	 mvn         r3, #0x30
  02c0c	e0023003	 and         r3, r2, r3
  02c10	e3832010	 orr         r2, r3, #0x10
  02c14	e59d3000	 ldr         r3, [sp]
  02c18	e2833068	 add         r3, r3, #0x68
  02c1c	e5832000	 str         r2, [r3]

; 1026 :         pSerialHead->DCB.fDsrSensitivity = FALSE;

  02c20	e59d3000	 ldr         r3, [sp]
  02c24	e2833068	 add         r3, r3, #0x68
  02c28	e5932000	 ldr         r2, [r3]
  02c2c	e3e03040	 mvn         r3, #0x40
  02c30	e0022003	 and         r2, r2, r3
  02c34	e59d3000	 ldr         r3, [sp]
  02c38	e2833068	 add         r3, r3, #0x68
  02c3c	e5832000	 str         r2, [r3]

; 1027 :         pSerialHead->DCB.fTXContinueOnXoff = FALSE;

  02c40	e59d3000	 ldr         r3, [sp]
  02c44	e2833068	 add         r3, r3, #0x68
  02c48	e5932000	 ldr         r2, [r3]
  02c4c	e3e03080	 mvn         r3, #0x80
  02c50	e0022003	 and         r2, r2, r3
  02c54	e59d3000	 ldr         r3, [sp]
  02c58	e2833068	 add         r3, r3, #0x68
  02c5c	e5832000	 str         r2, [r3]

; 1028 :         pSerialHead->DCB.fOutX      = FALSE;

  02c60	e59d3000	 ldr         r3, [sp]
  02c64	e2833068	 add         r3, r3, #0x68
  02c68	e5932000	 ldr         r2, [r3]
  02c6c	e3e03c01	 mvn         r3, #1, 24
  02c70	e0022003	 and         r2, r2, r3
  02c74	e59d3000	 ldr         r3, [sp]
  02c78	e2833068	 add         r3, r3, #0x68
  02c7c	e5832000	 str         r2, [r3]

; 1029 :         pSerialHead->DCB.fInX       = FALSE;

  02c80	e59d3000	 ldr         r3, [sp]
  02c84	e2833068	 add         r3, r3, #0x68
  02c88	e5932000	 ldr         r2, [r3]
  02c8c	e3e03c02	 mvn         r3, #2, 24
  02c90	e0022003	 and         r2, r2, r3
  02c94	e59d3000	 ldr         r3, [sp]
  02c98	e2833068	 add         r3, r3, #0x68
  02c9c	e5832000	 str         r2, [r3]

; 1030 :         pSerialHead->DCB.fErrorChar = FALSE; //NOTE: ignored

  02ca0	e59d3000	 ldr         r3, [sp]
  02ca4	e2833068	 add         r3, r3, #0x68
  02ca8	e5932000	 ldr         r2, [r3]
  02cac	e3e03b01	 mvn         r3, #1, 22
  02cb0	e0022003	 and         r2, r2, r3
  02cb4	e59d3000	 ldr         r3, [sp]
  02cb8	e2833068	 add         r3, r3, #0x68
  02cbc	e5832000	 str         r2, [r3]

; 1031 :         pSerialHead->DCB.fNull      = FALSE; //NOTE: ignored

  02cc0	e59d3000	 ldr         r3, [sp]
  02cc4	e2833068	 add         r3, r3, #0x68
  02cc8	e5932000	 ldr         r2, [r3]
  02ccc	e3e03b02	 mvn         r3, #2, 22
  02cd0	e0022003	 and         r2, r2, r3
  02cd4	e59d3000	 ldr         r3, [sp]
  02cd8	e2833068	 add         r3, r3, #0x68
  02cdc	e5832000	 str         r2, [r3]

; 1032 :         pSerialHead->DCB.fRtsControl = RTS_CONTROL_ENABLE;

  02ce0	e59d3000	 ldr         r3, [sp]
  02ce4	e2833068	 add         r3, r3, #0x68
  02ce8	e5932000	 ldr         r2, [r3]
  02cec	e3e03a03	 mvn         r3, #3, 20
  02cf0	e0023003	 and         r3, r2, r3
  02cf4	e3832a01	 orr         r2, r3, #1, 20
  02cf8	e59d3000	 ldr         r3, [sp]
  02cfc	e2833068	 add         r3, r3, #0x68
  02d00	e5832000	 str         r2, [r3]

; 1033 :         pSerialHead->DCB.fAbortOnError = FALSE; //NOTE: ignored

  02d04	e59d3000	 ldr         r3, [sp]
  02d08	e2833068	 add         r3, r3, #0x68
  02d0c	e5932000	 ldr         r2, [r3]
  02d10	e3e03901	 mvn         r3, #1, 18
  02d14	e0022003	 and         r2, r2, r3
  02d18	e59d3000	 ldr         r3, [sp]
  02d1c	e2833068	 add         r3, r3, #0x68
  02d20	e5832000	 str         r2, [r3]

; 1034 : 
; 1035 :         pSerialHead->DCB.XonLim     = (WORD)((pSerialHead->RxBufferInfo.Length) >> 1) ; // Line up with XP code.

  02d24	e59d3000	 ldr         r3, [sp]
  02d28	e28330a4	 add         r3, r3, #0xA4
  02d2c	e5933000	 ldr         r3, [r3]
  02d30	e1a030a3	 mov         r3, r3, lsr #1
  02d34	e1a02803	 mov         r2, r3, lsl #16
  02d38	e1a02822	 mov         r2, r2, lsr #16
  02d3c	e59d3000	 ldr         r3, [sp]
  02d40	e283306e	 add         r3, r3, #0x6E
  02d44	e1c320b0	 strh        r2, [r3]

; 1036 :         pSerialHead->DCB.XoffLim    = (WORD)((pSerialHead->RxBufferInfo.Length) >> 3) ;

  02d48	e59d3000	 ldr         r3, [sp]
  02d4c	e28330a4	 add         r3, r3, #0xA4
  02d50	e5933000	 ldr         r3, [r3]
  02d54	e1a031a3	 mov         r3, r3, lsr #3
  02d58	e1a02803	 mov         r2, r3, lsl #16
  02d5c	e1a02822	 mov         r2, r2, lsr #16
  02d60	e59d3000	 ldr         r3, [sp]
  02d64	e2833070	 add         r3, r3, #0x70
  02d68	e1c320b0	 strh        r2, [r3]

