; Listing generated by Microsoft (R) Optimizing Compiler Version 14.01.60511.01 

	TTL	C:\WINCE600\PLATFORM\COMMON\SRC\SOC\OMAP2420_MS_V1\OAL\ETHDRV\USBFN\rndis.c
	CODE32

  00000			 AREA	 |.drectve|, DRECTVE
	DCB	"-defaultlib:LIBCMT "
	DCB	"-defaultlib:OLDNAMES "

	EXPORT	|g_InterruptData| [ DATA ]
	EXPORT	|g_pEP1DataWrapper| [ DATA ]
	EXPORT	|DigitTable| [ DATA ]
	EXPORT	|g_devState| [ DATA ]
	EXPORT	|g_EP0TransferState| [ DATA ]
	EXPORT	|g_EP1TransferState| [ DATA ]
	EXPORT	|g_EP2TransferState| [ DATA ]
	EXPORT	|g_EP3TransferState| [ DATA ]

  00000			 AREA	 |.data|, DATA
	 COMMON	|MDDZONE2|, 0x4

	 COMMON	|MDDZONE|, 0x4

	 COMMON	|MDDZONE0|, 0x4

	 COMMON	|g_EP0Transfer|, 0x20

	 COMMON	|PDDZONE0|, 0x4

	 COMMON	|g_EP2Transfer|, 0x20

	 COMMON	|MDDZONE3|, 0x4

	 COMMON	|g_pddInterface|, 0x60

	 COMMON	|g_EP3Transfer|, 0x20

	 COMMON	|PDDZONE|, 0x4

	 COMMON	|MDDZONE4|, 0x4

	 COMMON	|g_udr|, 0x8

	 COMMON	|g_RndisKitlDev|, 0x444

	 COMMON	|g_EP1Transfer|, 0x20

	 COMMON	|g_mddInterface|, 0x8

	 COMMON	|MDDZONE5|, 0x4

	 COMMON	|g_EP0DataWrapper|, 0x10


  00000			 AREA	 |.bss|, NOINIT
|g_ucScratch| %	0x1
|g_pEP1DataWrapper| % 0x4
|g_devState| %	0x4
|g_EP0TransferState| % 0x4
|g_EP1TransferState| % 0x4
|g_EP2TransferState| % 0x4
|g_EP3TransferState| % 0x4

  00000			 AREA	 |.data|, DATA
|g_InterruptData| DCD 0x1
	DCD	0x0
|g_RndisMacAddress| DCB 0x0
	DCB	0x2
	DCB	0xb3
	DCB	0x92
	DCB	0xa8
	DCB	0xc4
	%	2
|pucVendorID| DCB "Microsoft.", 0x0, 0x0
|pucVendorDescription| DCB "Microsoft RNDIS virtual adapter miniport.", 0x0
	DCB	0x0

  00000			 AREA	 |.rdata|, DATA, READONLY
|EdbgVendorIds| DCW 0x0
	DCW	0x0
	DCD	0x4033
	DCB	0x1
	DCB	"AD", 0x0
	DCW	0x1050
	DCW	0x940
	DCD	0x4005
	DCB	0x1
	DCB	"LS", 0x0
	DCW	0x1050
	DCW	0x940
	DCD	0x2078
	DCB	0x1
	DCB	"LS", 0x0
	DCW	0x10ec
	DCW	0x8029
	DCD	0xc0f0
	DCB	0x1
	DCB	"KS", 0x0
	DCW	0x10ec
	DCW	0x8129
	DCD	0x0
	DCB	0x4
	DCB	"RT", 0x0
	DCW	0x10ec
	DCW	0x8139
	DCD	0x900b
	DCB	0x4
	DCB	"RT", 0x0
	DCW	0x10ec
	DCW	0x8139
	DCD	0xd0c9
	DCB	0x4
	DCB	"RT", 0x0
	DCW	0x10ec
	DCW	0x8139
	DCD	0xe04c
	DCB	0x4
	DCB	"RT", 0x0
	DCW	0x1186
	DCW	0x1300
	DCD	0x50ba
	DCB	0x4
	DCB	"DL", 0x0
	DCW	0x100b
	DCW	0x20
	DCD	0xa0cc
	DCB	0x5
	DCB	"NG", 0x0
	DCW	0x10b7
	DCW	0x9050
	DCD	0x6008
	DCB	0x6
	DCB	"3C", 0x0
	DCW	0x10b7
	DCW	0x9200
	DCD	0x476
	DCB	0x6
	DCB	"3C", 0x0
|gs_pucSupportedLanguage| DCB 0x4
	DCB	0x3
	DCB	0x9
	DCB	0x4
|gs_Manufacturer| DCB 0x16
	DCB	0x3
	DCB	"M", 0x0, "i", 0x0, "c", 0x0, "r", 0x0, "o", 0x0, "s", 0x0
	DCB	"o", 0x0, "f", 0x0, "t", 0x0, 0x0, 0x0
	%	6
|gs_Product| DCB 0x46
	DCB	0x3
	DCB	"M", 0x0, "i", 0x0, "c", 0x0, "r", 0x0, "o", 0x0, "s", 0x0
	DCB	"o", 0x0, "f", 0x0, "t", 0x0, " ", 0x0, "R", 0x0, "N", 0x0
	DCB	"D", 0x0, "I", 0x0, "S", 0x0, " ", 0x0, "K", 0x0, "I", 0x0
	DCB	"T", 0x0, "L", 0x0, " ", 0x0, "f", 0x0, "o", 0x0, "r", 0x0
	DCB	" ", 0x0, "O", 0x0, "M", 0x0, "A", 0x0, "P", 0x0, "2", 0x0
	DCB	"4", 0x0, "2", 0x0, "0", 0x0, 0x0, 0x0
	%	2
|gs_pucUSBDescriptors| DCB 0x12
	DCB	0x1
	DCB	0x10
	DCB	0x1
	DCB	0x2
	DCB	0x0
	DCB	0x0
	DCB	0x40
	DCB	0x5e
	DCB	0x4
	DCB	0x1
	DCB	0x3
	DCB	0x1
	DCB	0x0
	DCB	0x1
	DCB	0x2
	DCB	0x3
	DCB	0x1
	DCB	0x9
	DCB	0x2
	DCB	0x3e
	DCB	0x0
	DCB	0x2
	DCB	0x1
	DCB	0x0
	DCB	0x40
	DCB	0x1
	DCB	0x9
	DCB	0x4
	DCB	0x0
	DCB	0x0
	DCB	0x1
	DCB	0x2
	DCB	0x2
	DCB	0xff
	DCB	0x0
	DCB	0x5
	DCB	0x24
	DCB	0x1
	DCB	0x0
	DCB	0x1
	DCB	0x4
	DCB	0x24
	DCB	0x2
	DCB	0x0
	DCB	0x5
	DCB	0x24
	DCB	0x6
	DCB	0x0
	DCB	0x1
	DCB	0x7
	DCB	0x5
	DCB	0x83
	DCB	0x3
	DCB	0x40
	DCB	0x0
	DCB	0x50
	DCB	0x9
	DCB	0x4
	DCB	0x1
	DCB	0x0
	DCB	0x2
	DCB	0xa
	DCB	0x0
	DCB	0x0
	DCB	0x0
	DCB	0x7
	DCB	0x5
	DCB	0x82
	DCB	0x2
	DCB	0x40
	DCB	0x0
	DCB	0x0
	DCB	0x7
	DCB	0x5
	DCB	0x1
	DCB	0x2
	DCB	0x40
	DCB	0x0
	DCB	0x0
|DigitTable| DCB "0", 0x0, "1", 0x0, "2", 0x0, "3", 0x0, "4", 0x0, "5", 0x0
	DCB	"6", 0x0, "7", 0x0, "8", 0x0, "9", 0x0, "A", 0x0, "B", 0x0
	DCB	"C", 0x0, "D", 0x0, "E", 0x0, "F", 0x0, 0x0, 0x0
	EXPORT	|PDD_GetDescriptor|
	EXPORT	|??_C@_1DM@FCMMONGE@?$AA?$CK?$AA?$CK?$AA?$CK?$AA?5?$AAU?$AAn?$AAk?$AAn?$AAo?$AAw?$AAn?$AA?5?$AAS?$AAT?$AAR?$AAI?$AAN?$AAG?$AA?5?$AAi?$AAn?$AAd?$AAe?$AAx?$AA?5?$AA?$CF?$AAd?$AA?$AN?$AA?6?$AA?$AA@| [ DATA ] ; `string'
	EXPORT	|??_C@_1FE@MMFBADFF@?$AA?$CK?$AA?$CK?$AA?$CK?$AA?5?$AAU?$AAn?$AAk?$AAn?$AAo?$AAw?$AAn?$AA?5?$AAG?$AAE?$AAT?$AA_?$AAD?$AAE?$AAS?$AAC?$AAR?$AAI?$AAP?$AAT?$AAO?$AAR?$AA?5?$AAr?$AAe?$AAq?$AAu?$AAe@| [ DATA ] ; `string'
	IMPORT	|NKDbgPrintfW|
	IMPORT	|dpCurSettings|

  00019			 AREA	 |.bss|, NOINIT
|gs_SerialNumber| % 0x14
|gs_SerialNumber| % 0x14

  00000			 AREA	 |.pdata|, PDATA
|$T47503| DCD	|$LN32@PDD_GetDes|
	DCD	0x40005c01
; File c:\wince600\platform\common\src\soc\omap2420_ms_v1\oal\ethdrv\usbfn\rndis.c

  00000			 AREA	 |.rdata|, DATA, READONLY
|??_C@_1DM@FCMMONGE@?$AA?$CK?$AA?$CK?$AA?$CK?$AA?5?$AAU?$AAn?$AAk?$AAn?$AAo?$AAw?$AAn?$AA?5?$AAS?$AAT?$AAR?$AAI?$AAN?$AAG?$AA?5?$AAi?$AAn?$AAd?$AAe?$AAx?$AA?5?$AA?$CF?$AAd?$AA?$AN?$AA?6?$AA?$AA@| DCB "*"
	DCB	0x0, "*", 0x0, "*", 0x0, " ", 0x0, "U", 0x0, "n", 0x0, "k"
	DCB	0x0, "n", 0x0, "o", 0x0, "w", 0x0, "n", 0x0, " ", 0x0, "S"
	DCB	0x0, "T", 0x0, "R", 0x0, "I", 0x0, "N", 0x0, "G", 0x0, " "
	DCB	0x0, "i", 0x0, "n", 0x0, "d", 0x0, "e", 0x0, "x", 0x0, " "
	DCB	0x0, "%", 0x0, "d", 0x0, 0xd, 0x0, 0xa, 0x0, 0x0, 0x0 ; `string'

  00000			 AREA	 |.rdata|, DATA, READONLY
|??_C@_1FE@MMFBADFF@?$AA?$CK?$AA?$CK?$AA?$CK?$AA?5?$AAU?$AAn?$AAk?$AAn?$AAo?$AAw?$AAn?$AA?5?$AAG?$AAE?$AAT?$AA_?$AAD?$AAE?$AAS?$AAC?$AAR?$AAI?$AAP?$AAT?$AAO?$AAR?$AA?5?$AAr?$AAe?$AAq?$AAu?$AAe@| DCB "*"
	DCB	0x0, "*", 0x0, "*", 0x0, " ", 0x0, "U", 0x0, "n", 0x0, "k"
	DCB	0x0, "n", 0x0, "o", 0x0, "w", 0x0, "n", 0x0, " ", 0x0, "G"
	DCB	0x0, "E", 0x0, "T", 0x0, "_", 0x0, "D", 0x0, "E", 0x0, "S"
	DCB	0x0, "C", 0x0, "R", 0x0, "I", 0x0, "P", 0x0, "T", 0x0, "O"
	DCB	0x0, "R", 0x0, " ", 0x0, "r", 0x0, "e", 0x0, "q", 0x0, "u"
	DCB	0x0, "e", 0x0, "s", 0x0, "t", 0x0, ":", 0x0, "0", 0x0, "x"
	DCB	0x0, "%", 0x0, "x", 0x0, 0xd, 0x0, 0xa, 0x0, 0x0, 0x0 ; `string'
; Function compile flags: /Ogtp

  00000			 AREA	 |.text|, CODE, ARM

  00000		 |PDD_GetDescriptor| PROC

; 273  : {

  00000		 |$LN32@PDD_GetDes|
  00000	e52de004	 str         lr, [sp, #-4]!
  00004		 |$M47500|
  00004	e1a0e001	 mov         lr, r1

; 274  :     UCHAR *pucData;
; 275  :     WORD wLength;
; 276  :     WORD wType = pUdr->wValue;

  00008	e5d02002	 ldrb        r2, [r0, #2]
  0000c	e5d03003	 ldrb        r3, [r0, #3]

; 277  :     BOOL fRet = TRUE;

  00010	e1822403	 orr         r2, r2, r3, lsl #8

; 278  : 
; 279  :     switch (HIBYTE(wType)) {

  00014	e1a03422	 mov         r3, r2, lsr #8
  00018	e20310ff	 and         r1, r3, #0xFF
  0001c	e3510001	 cmp         r1, #1
  00020	0a00002d	 beq         |$LN12@PDD_GetDes|
  00024	e3510002	 cmp         r1, #2
  00028	0a000026	 beq         |$LN11@PDD_GetDes|
  0002c	e3510003	 cmp         r1, #3
  00030	0a000007	 beq         |$LN10@PDD_GetDes|

; 315  :                     break;
; 316  :             }
; 317  :             break;
; 318  : 
; 319  :         default:
; 320  :             OALMSG(OAL_ERROR, (L"*** Unknown GET_DESCRIPTOR request:0x%x\r\n", HIBYTE(wType)));

  00034	e59f3128	 ldr         r3, [pc, #0x128]
  00038	e5933440	 ldr         r3, [r3, #0x440]
  0003c	e3130001	 tst         r3, #1
  00040	159f0124	 ldrne       r0, [pc, #0x124]
  00044	1b000000	 blne        NKDbgPrintfW

; 321  :             fRet = FALSE;

  00048	e3a00000	 mov         r0, #0

; 332  :     }
; 333  :     return fRet;
; 334  : }

  0004c	e49de004	 ldr         lr, [sp], #4
  00050	e12fff1e	 bx          lr
  00054		 |$LN10@PDD_GetDes|

; 289  : 
; 290  :         case USB_STRING_DESCRIPTOR_TYPE:
; 291  :             switch (LOBYTE(wType)) {

  00054	e20210ff	 and         r1, r2, #0xFF
  00058	e3510003	 cmp         r1, #3
  0005c	8a000011	 bhi         |$LN3@PDD_GetDes|
  00060	e28f3004	 add         r3, pc, #4
  00064	e7d33001	 ldrb        r3, [r3, +r1]
  00068	e08ff003	 add         pc, pc, r3
  0006c		 |$LN25@PDD_GetDes|
  0006c		 |$LN24@PDD_GetDes|
  0006c		 |$LN26@PDD_GetDes|
  0006c	00ed		 DCB         0x0
  0006d		 |$LN27@PDD_GetDes|
  0006d	0ced		 DCB         0xc
  0006e		 |$LN28@PDD_GetDes|
  0006e	1ced		 DCB         0x1c
  0006f		 |$LN29@PDD_GetDes|
  0006f	2ced		 DCB         0x2c
  00070		 |$LN7@PDD_GetDes|

; 292  :                 case 0x00:
; 293  :                     pucData = (UCHAR *)gs_pucSupportedLanguage;

  00070	e59f30e4	 ldr         r3, [pc, #0xE4]

; 294  :                     wLength = gs_pucSupportedLanguage[0];

  00074	e3a01004	 mov         r1, #4

; 295  :                     break;

  00078	ea00001a	 b           |$LN23@PDD_GetDes|
  0007c		 |$LN6@PDD_GetDes|

; 296  : 
; 297  :                 case 0x01:
; 298  :                     pucData = (UCHAR *)&gs_Manufacturer;

  0007c	e59f30d8	 ldr         r3, [pc, #0xD8]

; 299  :                     wLength = gs_Manufacturer.ucbLength;

  00080	e3a01016	 mov         r1, #0x16
  00084	e2833004	 add         r3, r3, #4

; 300  :                     break;

  00088	ea000016	 b           |$LN23@PDD_GetDes|
  0008c		 |$LN5@PDD_GetDes|

; 301  : 
; 302  :                 case 0x02:
; 303  :                     pucData = (UCHAR *)&gs_Product;

  0008c	e59f30c8	 ldr         r3, [pc, #0xC8]

; 304  :                     wLength = gs_Product.ucbLength;

  00090	e3a01046	 mov         r1, #0x46
  00094	e2833020	 add         r3, r3, #0x20

; 305  :                     break;

  00098	ea000012	 b           |$LN23@PDD_GetDes|
  0009c		 |$LN4@PDD_GetDes|

; 306  : 
; 307  :                 case 0x03:
; 308  :                     pucData = (UCHAR *)&gs_SerialNumber;

  0009c	e59f30c4	 ldr         r3, [pc, #0xC4]

; 309  :                     wLength = gs_SerialNumber.ucbLength;

  000a0	e5d31000	 ldrb        r1, [r3]

; 310  :                     break;

  000a4	ea00000f	 b           |$LN23@PDD_GetDes|
  000a8		 |$LN3@PDD_GetDes|

; 311  : 
; 312  :                 default:
; 313  :                     OALMSG(OAL_ERROR, (L"*** Unknown STRING index %d\r\n", LOBYTE(wType)));

  000a8	e59f30b4	 ldr         r3, [pc, #0xB4]
  000ac	e5933440	 ldr         r3, [r3, #0x440]
  000b0	e3130001	 tst         r3, #1
  000b4	159f00a4	 ldrne       r0, [pc, #0xA4]
  000b8	1b000000	 blne        NKDbgPrintfW

; 314  :                     fRet = FALSE;

  000bc	e3a00000	 mov         r0, #0

; 332  :     }
; 333  :     return fRet;
; 334  : }

  000c0	e49de004	 ldr         lr, [sp], #4
  000c4	e12fff1e	 bx          lr
  000c8		 |$LN11@PDD_GetDes|

; 283  :             break;
; 284  : 
; 285  :         case USB_CONFIGURATION_DESCRIPTOR_TYPE:
; 286  :             pucData = (UCHAR *)&gs_pucUSBDescriptors[iCONF];

  000c8	e59f308c	 ldr         r3, [pc, #0x8C]

; 287  :             wLength = CFGLEN;;

  000cc	e3a0103e	 mov         r1, #0x3E
  000d0	e2833068	 add         r3, r3, #0x68
  000d4	e2833012	 add         r3, r3, #0x12

; 288  :             break;

  000d8	ea000002	 b           |$LN23@PDD_GetDes|
  000dc		 |$LN12@PDD_GetDes|

; 280  :         case USB_DEVICE_DESCRIPTOR_TYPE:
; 281  :             pucData = (UCHAR *)gs_pucUSBDescriptors;

  000dc	e59f3078	 ldr         r3, [pc, #0x78]

; 282  :             wLength = gs_pucUSBDescriptors[0];

  000e0	e3a01012	 mov         r1, #0x12
  000e4	e2833068	 add         r3, r3, #0x68
  000e8		 |$LN23@PDD_GetDes|

; 322  :             break;
; 323  :     }
; 324  : 
; 325  :     if (fRet) {
; 326  :         pRequest->eDir = EP0In;

  000e8	e3a02002	 mov         r2, #2
  000ec	e88e000c	 stmia       lr, {r2, r3}

; 327  :         pRequest->pucData = pucData;
; 328  :         pRequest->dwExpectedSize = pUdr->wLength;

  000f0	e5d02006	 ldrb        r2, [r0, #6]
  000f4	e5d03007	 ldrb        r3, [r0, #7]
  000f8	e1823403	 orr         r3, r2, r3, lsl #8
  000fc	e58e3008	 str         r3, [lr, #8]

; 329  :         pRequest->dwActualSize = min(wLength, pUdr->wLength);

  00100	e5d02006	 ldrb        r2, [r0, #6]
  00104	e5d03007	 ldrb        r3, [r0, #7]
  00108	e1823403	 orr         r3, r2, r3, lsl #8
  0010c	e1510003	 cmp         r1, r3
  00110	2a000007	 bcs         |$LN21@PDD_GetDes|
  00114	e1a03001	 mov         r3, r1

; 330  :         pRequest->pfnNotification = NULL;       // notification not required

  00118	e3a02000	 mov         r2, #0
  0011c	e58e2010	 str         r2, [lr, #0x10]

; 331  :         pRequest->pvUser = NULL;

  00120	e58e2014	 str         r2, [lr, #0x14]
  00124	e58e300c	 str         r3, [lr, #0xC]

; 332  :     }
; 333  :     return fRet;
; 334  : }

  00128	e3a00001	 mov         r0, #1
  0012c	e49de004	 ldr         lr, [sp], #4
  00130	e12fff1e	 bx          lr
  00134		 |$LN21@PDD_GetDes|

; 329  :         pRequest->dwActualSize = min(wLength, pUdr->wLength);

  00134	e5d02006	 ldrb        r2, [r0, #6]
  00138	e5d03007	 ldrb        r3, [r0, #7]

; 332  :     }
; 333  :     return fRet;
; 334  : }

  0013c	e3a00001	 mov         r0, #1
  00140	e1823403	 orr         r3, r2, r3, lsl #8
  00144	e3a02000	 mov         r2, #0
  00148	e58e2010	 str         r2, [lr, #0x10]
  0014c	e58e2014	 str         r2, [lr, #0x14]
  00150	e58e300c	 str         r3, [lr, #0xC]
  00154	e49de004	 ldr         lr, [sp], #4
  00158	e12fff1e	 bx          lr
  0015c		 |$LN33@PDD_GetDes|
  0015c		 |$LN34@PDD_GetDes|
  0015c	00000000	 DCD         |gs_pucSupportedLanguage|
  00160		 |$LN35@PDD_GetDes|
  00160	00000000	 DCD         |??_C@_1DM@FCMMONGE@?$AA?$CK?$AA?$CK?$AA?$CK?$AA?5?$AAU?$AAn?$AAk?$AAn?$AAo?$AAw?$AAn?$AA?5?$AAS?$AAT?$AAR?$AAI?$AAN?$AAG?$AA?5?$AAi?$AAn?$AAd?$AAe?$AAx?$AA?5?$AA?$CF?$AAd?$AA?$AN?$AA?6?$AA?$AA@|
  00164		 |$LN36@PDD_GetDes|
  00164	00000000	 DCD         |dpCurSettings|
  00168		 |$LN37@PDD_GetDes|
  00168	00000000	 DCD         |gs_SerialNumber|
  0016c		 |$LN38@PDD_GetDes|
  0016c	00000000	 DCD         |??_C@_1FE@MMFBADFF@?$AA?$CK?$AA?$CK?$AA?$CK?$AA?5?$AAU?$AAn?$AAk?$AAn?$AAo?$AAw?$AAn?$AA?5?$AAG?$AAE?$AAT?$AA_?$AAD?$AAE?$AAS?$AAC?$AAR?$AAI?$AAP?$AAT?$AAO?$AAR?$AA?5?$AAr?$AAe?$AAq?$AAu?$AAe@|
  00170		 |$M47501|

			 ENDP  ; |PDD_GetDescriptor|

	EXPORT	|SetupEP1Transfer|
	EXPORT	|??_C@_1CK@OLHEFDLK@?$AAN?$AAo?$AA?5?$AAm?$AAe?$AAm?$AA?5?$AAf?$AAo?$AAr?$AA?5?$AAR?$AAX?$AA?5?$AAd?$AAa?$AAt?$AAa?$AA?$AN?$AA?6?$AA?$AA@| [ DATA ] ; `string'
	EXPORT	|??_C@_1DI@FELDACDH@?$AAN?$AAo?$AA?5?$AAm?$AAe?$AAm?$AA?5?$AAf?$AAo?$AAr?$AA?5?$AAR?$AAX?$AA?5?$AAD?$AAa?$AAt?$AAa?$AAW?$AAr?$AAa?$AAp?$AAp?$AAe?$AAr?$AA?$AN?$AA?6?$AA?$AA@| [ DATA ] ; `string'
	IMPORT	|MDDFreeDataWrapper|
	IMPORT	|MDDAllocMem|
	IMPORT	|MDDAllocDataWrapper|

  00008			 AREA	 |.pdata|, PDATA
|$T47518| DCD	|$LN12@SetupEP1Tr|
	DCD	0x40004401

  00000			 AREA	 |.rdata|, DATA, READONLY
|??_C@_1CK@OLHEFDLK@?$AAN?$AAo?$AA?5?$AAm?$AAe?$AAm?$AA?5?$AAf?$AAo?$AAr?$AA?5?$AAR?$AAX?$AA?5?$AAd?$AAa?$AAt?$AAa?$AA?$AN?$AA?6?$AA?$AA@| DCB "N"
	DCB	0x0, "o", 0x0, " ", 0x0, "m", 0x0, "e", 0x0, "m", 0x0, " "
	DCB	0x0, "f", 0x0, "o", 0x0, "r", 0x0, " ", 0x0, "R", 0x0, "X"
	DCB	0x0, " ", 0x0, "d", 0x0, "a", 0x0, "t", 0x0, "a", 0x0, 0xd
	DCB	0x0, 0xa, 0x0, 0x0, 0x0			; `string'

  00000			 AREA	 |.rdata|, DATA, READONLY
|??_C@_1DI@FELDACDH@?$AAN?$AAo?$AA?5?$AAm?$AAe?$AAm?$AA?5?$AAf?$AAo?$AAr?$AA?5?$AAR?$AAX?$AA?5?$AAD?$AAa?$AAt?$AAa?$AAW?$AAr?$AAa?$AAp?$AAp?$AAe?$AAr?$AA?$AN?$AA?6?$AA?$AA@| DCB "N"
	DCB	0x0, "o", 0x0, " ", 0x0, "m", 0x0, "e", 0x0, "m", 0x0, " "
	DCB	0x0, "f", 0x0, "o", 0x0, "r", 0x0, " ", 0x0, "R", 0x0, "X"
	DCB	0x0, " ", 0x0, "D", 0x0, "a", 0x0, "t", 0x0, "a", 0x0, "W"
	DCB	0x0, "r", 0x0, "a", 0x0, "p", 0x0, "p", 0x0, "e", 0x0, "r"
	DCB	0x0, 0xd, 0x0, 0xa, 0x0, 0x0, 0x0	; `string'
; Function compile flags: /Ogtp

  00170			 AREA	 |.text|, CODE, ARM

  00170		 |SetupEP1Transfer| PROC

; 398  : {

  00170		 |$LN12@SetupEP1Tr|
  00170	e92d4010	 stmdb       sp!, {r4, lr}
  00174		 |$M47515|

; 399  :     // allocate data transfer for EP1
; 400  :     if (!g_pEP1DataWrapper) {

  00174	e59f4100	 ldr         r4, [pc, #0x100]
  00178	e5941000	 ldr         r1, [r4]
  0017c	e3510000	 cmp         r1, #0
  00180	1a000020	 bne         |$LN3@SetupEP1Tr|

; 401  :         g_pEP1DataWrapper = MDDAllocDataWrapper();

  00184	eb000000	 bl          MDDAllocDataWrapper
  00188	e3500000	 cmp         r0, #0
  0018c	e5840000	 str         r0, [r4]

; 402  :         if (!g_pEP1DataWrapper) {

  00190	1a000007	 bne         |$LN2@SetupEP1Tr|

; 403  :             OALMSG(OAL_ERROR, (L"No mem for RX DataWrapper\r\n"));

  00194	e59f30d8	 ldr         r3, [pc, #0xD8]
  00198	e5933440	 ldr         r3, [r3, #0x440]
  0019c	e3130001	 tst         r3, #1
  001a0	0a00002e	 beq         |$LN4@SetupEP1Tr|
  001a4	e59f00cc	 ldr         r0, [pc, #0xCC]
  001a8	eb000000	 bl          NKDbgPrintfW

; 426  : }

  001ac	e8bd4010	 ldmia       sp!, {r4, lr}
  001b0	e12fff1e	 bx          lr
  001b4		 |$LN2@SetupEP1Tr|

; 404  :             return;
; 405  :         }
; 406  : 
; 407  :         g_pEP1DataWrapper->pucData = MDDAllocMem();

  001b4	eb000000	 bl          MDDAllocMem
  001b8	e5943000	 ldr         r3, [r4]
  001bc	e5830008	 str         r0, [r3, #8]

; 408  :         if (!g_pEP1DataWrapper->pucData) {

  001c0	e5942000	 ldr         r2, [r4]
  001c4	e5923008	 ldr         r3, [r2, #8]
  001c8	e3530000	 cmp         r3, #0
  001cc	1a00000a	 bne         |$LN1@SetupEP1Tr|

; 409  :             OALMSG(OAL_ERROR, (L"No mem for RX data\r\n"));

  001d0	e59f309c	 ldr         r3, [pc, #0x9C]
  001d4	e5933440	 ldr         r3, [r3, #0x440]
  001d8	e3130001	 tst         r3, #1
  001dc	0a000002	 beq         |$LN8@SetupEP1Tr|
  001e0	e59f0088	 ldr         r0, [pc, #0x88]
  001e4	eb000000	 bl          NKDbgPrintfW
  001e8	e5942000	 ldr         r2, [r4]
  001ec		 |$LN8@SetupEP1Tr|

; 410  :             MDDFreeDataWrapper(g_pEP1DataWrapper);

  001ec	e1a00002	 mov         r0, r2
  001f0	eb000000	 bl          MDDFreeDataWrapper

; 426  : }

  001f4	e8bd4010	 ldmia       sp!, {r4, lr}
  001f8	e12fff1e	 bx          lr
  001fc		 |$LN1@SetupEP1Tr|

; 411  :             return;
; 412  :         }
; 413  :         g_pEP1DataWrapper->dwDataSize = MAX_INCOMING_BUFFER;

  001fc	e3a03a02	 mov         r3, #2, 20
  00200	e582300c	 str         r3, [r2, #0xC]
  00204	e5941000	 ldr         r1, [r4]
  00208		 |$LN3@SetupEP1Tr|

; 414  :     }
; 415  : 
; 416  :     // g_EP1Transfer.dwCallerPermissions;
; 417  :     g_EP1Transfer.pvBuffer = g_pEP1DataWrapper->pucData;

  00208	e59f205c	 ldr         r2, [pc, #0x5C]
  0020c	e5913008	 ldr         r3, [r1, #8]

; 418  :     // g_EP1Transfer.dwBufferPhysicalAddress; // not used
; 419  :     g_EP1Transfer.cbBuffer = g_pEP1DataWrapper->dwDataSize;
; 420  :     g_EP1Transfer.cbTransferred = 0;
; 421  :     g_EP1Transfer.dwUsbError = UFN_NOT_COMPLETE_ERROR; // Possible values are in usbfntypes.h
; 422  :     g_EP1Transfer.pvPddData = NULL;
; 423  :     g_EP1Transfer.pvPddTransferInfo = NULL;
; 424  :     g_EP1Transfer.dwFlags = 0;
; 425  :     g_pddInterface.pfnIssueTransfer( g_pddInterface.pvPddContext, 1, &g_EP1Transfer );

  00210	e3a04c01	 mov         r4, #1, 24
  00214	e3a00000	 mov         r0, #0
  00218	e5823004	 str         r3, [r2, #4]
  0021c	e591300c	 ldr         r3, [r1, #0xC]
  00220	e3841003	 orr         r1, r4, #3
  00224	e59fe03c	 ldr         lr, [pc, #0x3C]
  00228	e582300c	 str         r3, [r2, #0xC]
  0022c	e5820010	 str         r0, [r2, #0x10]
  00230	e5821014	 str         r1, [r2, #0x14]
  00234	e3a01000	 mov         r1, #0
  00238	e5821018	 str         r1, [r2, #0x18]
  0023c	e3a01000	 mov         r1, #0
  00240	e582101c	 str         r1, [r2, #0x1C]
  00244	e3a01000	 mov         r1, #0
  00248	e59e000c	 ldr         r0, [lr, #0xC]
  0024c	e59e3030	 ldr         r3, [lr, #0x30]
  00250	e5821000	 str         r1, [r2]
  00254	e3a01001	 mov         r1, #1
  00258	e1a0e00f	 mov         lr, pc
  0025c	e12fff13	 bx          r3
  00260		 |$LN4@SetupEP1Tr|

; 426  : }

  00260	e8bd4010	 ldmia       sp!, {r4, lr}
  00264	e12fff1e	 bx          lr
  00268		 |$LN13@SetupEP1Tr|
  00268		 |$LN14@SetupEP1Tr|
  00268	00000000	 DCD         |g_pddInterface|
  0026c		 |$LN15@SetupEP1Tr|
  0026c	00000000	 DCD         |g_EP1Transfer|
  00270		 |$LN16@SetupEP1Tr|
  00270	00000000	 DCD         |??_C@_1CK@OLHEFDLK@?$AAN?$AAo?$AA?5?$AAm?$AAe?$AAm?$AA?5?$AAf?$AAo?$AAr?$AA?5?$AAR?$AAX?$AA?5?$AAd?$AAa?$AAt?$AAa?$AA?$AN?$AA?6?$AA?$AA@|
  00274		 |$LN17@SetupEP1Tr|
  00274	00000000	 DCD         |dpCurSettings|
  00278		 |$LN18@SetupEP1Tr|
  00278	00000000	 DCD         |??_C@_1DI@FELDACDH@?$AAN?$AAo?$AA?5?$AAm?$AAe?$AAm?$AA?5?$AAf?$AAo?$AAr?$AA?5?$AAR?$AAX?$AA?5?$AAD?$AAa?$AAt?$AAa?$AAW?$AAr?$AAa?$AAp?$AAp?$AAe?$AAr?$AA?$AN?$AA?6?$AA?$AA@|
  0027c		 |$LN19@SetupEP1Tr|
  0027c	00000000	 DCD         |g_pEP1DataWrapper|
  00280		 |$M47516|

			 ENDP  ; |SetupEP1Transfer|

	EXPORT	|HandleSetupPacket|
	EXPORT	|??_C@_1DG@HDGBABFG@?$AA?$CK?$AA?$CK?$AA?$CK?$AA?5?$AAU?$AAn?$AAk?$AAn?$AAo?$AAw?$AAn?$AA?5?$AAr?$AAe?$AAq?$AAu?$AAe?$AAs?$AAt?$AA?5?$AA0?$AAx?$AA?$CF?$AAx?$AA?$AN?$AA?6?$AA?$AA@| [ DATA ] ; `string'
	EXPORT	|??_C@_1FI@GLILKAEG@?$AA?$CK?$AA?$CK?$AA?$CK?$AA?5?$AAU?$AAn?$AAH?$AAa?$AAn?$AAd?$AAl?$AAe?$AAd?$AA?5?$AAG?$AAE?$AAT?$AA_?$AAD?$AAE?$AAS?$AAC?$AAR?$AAI?$AAP?$AAT?$AAO?$AAR?$AA?5?$AAr?$AAe?$AAq@| [ DATA ] ; `string'
	EXPORT	|??_C@_1CO@NANJHOKH@?$AA?$CK?$AA?$CK?$AA?$CK?$AAR?$AAe?$AAq?$AAu?$AAe?$AAs?$AAt?$AAT?$AAy?$AAp?$AAe?$AA?$DN?$AA?$DN?$AA0?$AAx?$AA0?$AA2?$AA?$AN?$AA?6?$AA?$AA@| [ DATA ] ; `string'
	EXPORT	|??_C@_1CO@MDAODOFD@?$AA?$CK?$AA?$CK?$AA?$CK?$AAR?$AAe?$AAq?$AAu?$AAe?$AAs?$AAt?$AAT?$AAy?$AAp?$AAe?$AA?$DN?$AA?$DN?$AA0?$AAx?$AA8?$AA2?$AA?$AN?$AA?6?$AA?$AA@| [ DATA ] ; `string'
	EXPORT	|??_C@_1EM@PLFMLLKO@?$AA?$CK?$AA?$CK?$AA?$CK?$AA?$CK?$AA?5?$AAU?$AAn?$AAh?$AAa?$AAn?$AAd?$AAl?$AAe?$AAd?$AA?5?$AAv?$AAe?$AAr?$AAn?$AAd?$AAo?$AAr?$AA?5?$AAc?$AAo?$AAm?$AAm?$AAa?$AAn?$AAd?$AA?5?$AA0@| [ DATA ] ; `string'
	IMPORT	|OALStall|

  00010			 AREA	 |.pdata|, PDATA
|$T47563| DCD	|$LN55@HandleSetu|
	DCD	0x40006901

  00000			 AREA	 |.rdata|, DATA, READONLY
|??_C@_1DG@HDGBABFG@?$AA?$CK?$AA?$CK?$AA?$CK?$AA?5?$AAU?$AAn?$AAk?$AAn?$AAo?$AAw?$AAn?$AA?5?$AAr?$AAe?$AAq?$AAu?$AAe?$AAs?$AAt?$AA?5?$AA0?$AAx?$AA?$CF?$AAx?$AA?$AN?$AA?6?$AA?$AA@| DCB "*"
	DCB	0x0, "*", 0x0, "*", 0x0, " ", 0x0, "U", 0x0, "n", 0x0, "k"
	DCB	0x0, "n", 0x0, "o", 0x0, "w", 0x0, "n", 0x0, " ", 0x0, "r"
	DCB	0x0, "e", 0x0, "q", 0x0, "u", 0x0, "e", 0x0, "s", 0x0, "t"
	DCB	0x0, " ", 0x0, "0", 0x0, "x", 0x0, "%", 0x0, "x", 0x0, 0xd
	DCB	0x0, 0xa, 0x0, 0x0, 0x0			; `string'

  00000			 AREA	 |.rdata|, DATA, READONLY
|??_C@_1FI@GLILKAEG@?$AA?$CK?$AA?$CK?$AA?$CK?$AA?5?$AAU?$AAn?$AAH?$AAa?$AAn?$AAd?$AAl?$AAe?$AAd?$AA?5?$AAG?$AAE?$AAT?$AA_?$AAD?$AAE?$AAS?$AAC?$AAR?$AAI?$AAP?$AAT?$AAO?$AAR?$AA?5?$AAr?$AAe?$AAq@| DCB "*"
	DCB	0x0, "*", 0x0, "*", 0x0, " ", 0x0, "U", 0x0, "n", 0x0, "H"
	DCB	0x0, "a", 0x0, "n", 0x0, "d", 0x0, "l", 0x0, "e", 0x0, "d"
	DCB	0x0, " ", 0x0, "G", 0x0, "E", 0x0, "T", 0x0, "_", 0x0, "D"
	DCB	0x0, "E", 0x0, "S", 0x0, "C", 0x0, "R", 0x0, "I", 0x0, "P"
	DCB	0x0, "T", 0x0, "O", 0x0, "R", 0x0, " ", 0x0, "r", 0x0, "e"
	DCB	0x0, "q", 0x0, "u", 0x0, "e", 0x0, "s", 0x0, "t", 0x0, ":"
	DCB	0x0, "0", 0x0, "x", 0x0, "%", 0x0, "x", 0x0, 0xd, 0x0, 0xa
	DCB	0x0, 0x0, 0x0				; `string'

  00000			 AREA	 |.rdata|, DATA, READONLY
|??_C@_1CO@NANJHOKH@?$AA?$CK?$AA?$CK?$AA?$CK?$AAR?$AAe?$AAq?$AAu?$AAe?$AAs?$AAt?$AAT?$AAy?$AAp?$AAe?$AA?$DN?$AA?$DN?$AA0?$AAx?$AA0?$AA2?$AA?$AN?$AA?6?$AA?$AA@| DCB "*"
	DCB	0x0, "*", 0x0, "*", 0x0, "R", 0x0, "e", 0x0, "q", 0x0, "u"
	DCB	0x0, "e", 0x0, "s", 0x0, "t", 0x0, "T", 0x0, "y", 0x0, "p"
	DCB	0x0, "e", 0x0, "=", 0x0, "=", 0x0, "0", 0x0, "x", 0x0, "0"
	DCB	0x0, "2", 0x0, 0xd, 0x0, 0xa, 0x0, 0x0, 0x0 ; `string'

  00000			 AREA	 |.rdata|, DATA, READONLY
|??_C@_1CO@MDAODOFD@?$AA?$CK?$AA?$CK?$AA?$CK?$AAR?$AAe?$AAq?$AAu?$AAe?$AAs?$AAt?$AAT?$AAy?$AAp?$AAe?$AA?$DN?$AA?$DN?$AA0?$AAx?$AA8?$AA2?$AA?$AN?$AA?6?$AA?$AA@| DCB "*"
	DCB	0x0, "*", 0x0, "*", 0x0, "R", 0x0, "e", 0x0, "q", 0x0, "u"
	DCB	0x0, "e", 0x0, "s", 0x0, "t", 0x0, "T", 0x0, "y", 0x0, "p"
	DCB	0x0, "e", 0x0, "=", 0x0, "=", 0x0, "0", 0x0, "x", 0x0, "8"
	DCB	0x0, "2", 0x0, 0xd, 0x0, 0xa, 0x0, 0x0, 0x0 ; `string'

  00000			 AREA	 |.rdata|, DATA, READONLY
|??_C@_1EM@PLFMLLKO@?$AA?$CK?$AA?$CK?$AA?$CK?$AA?$CK?$AA?5?$AAU?$AAn?$AAh?$AAa?$AAn?$AAd?$AAl?$AAe?$AAd?$AA?5?$AAv?$AAe?$AAr?$AAn?$AAd?$AAo?$AAr?$AA?5?$AAc?$AAo?$AAm?$AAm?$AAa?$AAn?$AAd?$AA?5?$AA0@| DCB "*"
	DCB	0x0, "*", 0x0, "*", 0x0, "*", 0x0, " ", 0x0, "U", 0x0, "n"
	DCB	0x0, "h", 0x0, "a", 0x0, "n", 0x0, "d", 0x0, "l", 0x0, "e"
	DCB	0x0, "d", 0x0, " ", 0x0, "v", 0x0, "e", 0x0, "r", 0x0, "n"
	DCB	0x0, "d", 0x0, "o", 0x0, "r", 0x0, " ", 0x0, "c", 0x0, "o"
	DCB	0x0, "m", 0x0, "m", 0x0, "a", 0x0, "n", 0x0, "d", 0x0, " "
	DCB	0x0, "0", 0x0, "x", 0x0, "%", 0x0, "x", 0x0, 0xd, 0x0, 0xa
	DCB	0x0, 0x0, 0x0				; `string'
; Function compile flags: /Ogtp

  00280			 AREA	 |.text|, CODE, ARM

  00280		 |HandleSetupPacket| PROC

; 430  : {

  00280		 |$LN55@HandleSetu|
  00280	e92d4030	 stmdb       sp!, {r4, r5, lr}
  00284		 |$M47560|
  00284	e1a04001	 mov         r4, r1
  00288	e1a05000	 mov         r5, r0

; 431  :     if (pUdr->bmRequestType & (USB_REQUEST_CLASS | USB_REQUEST_VENDOR)) {

  0028c	e5d53000	 ldrb        r3, [r5]
  00290	e3130060	 tst         r3, #0x60
  00294	0a000013	 beq         |$LN22@HandleSetu|

; 432  :         if (PDD_DoVendorCommand(pUdr, pRequest)) {

  00298	eb000000	 bl          PDD_DoVendorCommand
  0029c	e3500000	 cmp         r0, #0
  002a0	1a000056	 bne         |$LN35@HandleSetu|

; 433  :             // do nothing
; 434  :         } else {
; 435  :             OALMSG(OAL_ERROR, (
; 436  :                 L"**** Unhandled verndor command 0x%x\r\n", pUdr->bRequest
; 437  :             ));

  002a4	e59f3164	 ldr         r3, [pc, #0x164]
  002a8	e5933440	 ldr         r3, [r3, #0x440]
  002ac	e3130001	 tst         r3, #1
  002b0	0a000002	 beq         |$LN25@HandleSetu|
  002b4	e5d51001	 ldrb        r1, [r5, #1]
  002b8	e59f0160	 ldr         r0, [pc, #0x160]
  002bc	eb000000	 bl          NKDbgPrintfW
  002c0		 |$LN25@HandleSetu|

; 438  :             pRequest->eDir = EP0Setup;

  002c0	e3a03000	 mov         r3, #0
  002c4	e5843000	 str         r3, [r4]

; 439  :             pRequest->pucData = NULL;

  002c8	e5843004	 str         r3, [r4, #4]

; 440  :             pRequest->dwExpectedSize = 0;

  002cc	e5843008	 str         r3, [r4, #8]

; 441  :             pRequest->dwActualSize = 0;

  002d0	e584300c	 str         r3, [r4, #0xC]

; 442  :             pRequest->pfnNotification = NULL;

  002d4	e5843010	 str         r3, [r4, #0x10]

; 443  :             pRequest->pvUser = NULL;

  002d8	e5843014	 str         r3, [r4, #0x14]

; 525  :     }
; 526  :     return TRUE;

  002dc	e3a00001	 mov         r0, #1

; 527  : }

  002e0	e8bd4030	 ldmia       sp!, {r4, r5, lr}
  002e4	e12fff1e	 bx          lr
  002e8		 |$LN22@HandleSetu|

; 444  :         }
; 445  :         return TRUE;
; 446  :     }
; 447  : 
; 448  :     // standard chapter 9 commands
; 449  :     pRequest->eDir = EP0Setup;

  002e8	e3a03000	 mov         r3, #0
  002ec	e5843000	 str         r3, [r4]

; 450  :     pRequest->pucData = NULL;

  002f0	e5843004	 str         r3, [r4, #4]

; 451  :     pRequest->dwExpectedSize = 0;

  002f4	e5843008	 str         r3, [r4, #8]

; 452  :     pRequest->dwActualSize = 0;

  002f8	e584300c	 str         r3, [r4, #0xC]

; 453  :     pRequest->pfnNotification = NULL;

  002fc	e5843010	 str         r3, [r4, #0x10]

; 454  :     pRequest->pvUser = NULL;

  00300	e5843014	 str         r3, [r4, #0x14]

; 455  : 
; 456  :     switch(pUdr->bRequest) {

  00304	e5d51001	 ldrb        r1, [r5, #1]
  00308	e351000c	 cmp         r1, #0xC
  0030c	8a000036	 bhi         |$LN1@HandleSetu|
  00310	e28f3004	 add         r3, pc, #4
  00314	e7d33001	 ldrb        r3, [r3, +r1]
  00318	e08ff003	 add         pc, pc, r3
  0031c		 |$LN39@HandleSetu|
  0031c		 |$LN38@HandleSetu|
  0031c		 |$LN40@HandleSetu|
  0031c	0ced		 DCB         0xc
  0031d		 |$LN41@HandleSetu|
  0031d	3ced		 DCB         0x3c
  0031e		 |$LN42@HandleSetu|
  0031e	cced		 DCB         0xcc
  0031f		 |$LN43@HandleSetu|
  0031f	3ced		 DCB         0x3c
  00320		 |$LN44@HandleSetu|
  00320	cced		 DCB         0xcc
  00321		 |$LN45@HandleSetu|
  00321	e0ed		 DCB         0xe0
  00322		 |$LN46@HandleSetu|
  00322	6ced		 DCB         0x6c
  00323		 |$LN47@HandleSetu|
  00323	e0ed		 DCB         0xe0
  00324		 |$LN48@HandleSetu|
  00324	e0ed		 DCB         0xe0
  00325		 |$LN49@HandleSetu|
  00325	b0ed		 DCB         0xb0
  00326		 |$LN50@HandleSetu|
  00326	e0ed		 DCB         0xe0
  00327		 |$LN51@HandleSetu|
  00327	e0ed		 DCB         0xe0
  00328		 |$LN52@HandleSetu|
  00328	e0ed		 DCB         0xe0
  00329		 |$LN63@HandleSetu|

; 527  : }

  00329	e0ed		 DCB         0xe0
  0032a		 |$LN64@HandleSetu|
  0032a	e0ed		 DCB         0xe0
  0032b		 |$LN65@HandleSetu|
  0032b	e0ed		 DCB         0xe0
  0032c		 |$LN17@HandleSetu|

; 457  :         case USB_REQUEST_GET_STATUS:
; 458  :             if (pUdr->bmRequestType == 0x82) {

  0032c	e5d53000	 ldrb        r3, [r5]
  00330	e3530082	 cmp         r3, #0x82
  00334	1a000031	 bne         |$LN35@HandleSetu|

; 459  :                 // TODO: handle this
; 460  :                 OALMSG(OAL_WARN, (L"***RequestType==0x82\r\n"));

  00338	e59f30d0	 ldr         r3, [pc, #0xD0]
  0033c	e5933440	 ldr         r3, [r3, #0x440]
  00340	e3130002	 tst         r3, #2
  00344	0a00002d	 beq         |$LN35@HandleSetu|
  00348	e59f00cc	 ldr         r0, [pc, #0xCC]
  0034c	eb000000	 bl          NKDbgPrintfW

; 525  :     }
; 526  :     return TRUE;

  00350	e3a00001	 mov         r0, #1

; 527  : }

  00354	e8bd4030	 ldmia       sp!, {r4, r5, lr}
  00358	e12fff1e	 bx          lr
  0035c		 |$LN15@HandleSetu|

; 461  :                 // check for the stall bit
; 462  :             }
; 463  :             break;
; 464  : 
; 465  :         case USB_REQUEST_CLEAR_FEATURE:
; 466  :             if (pUdr->bmRequestType == 0x02) {

  0035c	e5d53000	 ldrb        r3, [r5]
  00360	e3530002	 cmp         r3, #2
  00364	1a000025	 bne         |$LN35@HandleSetu|

; 467  :                 // TODO: handle this
; 468  :                 OALMSG(OAL_WARN, (L"***RequestType==0x02\r\n"));

  00368	e59f30a0	 ldr         r3, [pc, #0xA0]
  0036c	e5933440	 ldr         r3, [r3, #0x440]
  00370	e3130002	 tst         r3, #2
  00374	0a000021	 beq         |$LN35@HandleSetu|
  00378	e59f0098	 ldr         r0, [pc, #0x98]
  0037c	eb000000	 bl          NKDbgPrintfW

; 525  :     }
; 526  :     return TRUE;

  00380	e3a00001	 mov         r0, #1

; 527  : }

  00384	e8bd4030	 ldmia       sp!, {r4, r5, lr}
  00388	e12fff1e	 bx          lr
  0038c		 |$LN10@HandleSetu|

; 469  :             }
; 470  :             break;
; 471  : 
; 472  :         case USB_REQUEST_SET_FEATURE:
; 473  :             if (pUdr->bmRequestType == 0x02) {
; 474  :                 // TODO: handle this
; 475  :                 OALMSG(OAL_WARN, (L"***RequestType==0x02\r\n"));
; 476  :             }
; 477  :             break;
; 478  : 
; 479  :         case USB_REQUEST_SET_ADDRESS:
; 480  :             // TODO: handle this
; 481  :             break;
; 482  : 
; 483  :         case USB_REQUEST_GET_DESCRIPTOR:
; 484  :             if (PDD_GetDescriptor(pUdr, pRequest)) {

  0038c	e1a01004	 mov         r1, r4
  00390	e1a00005	 mov         r0, r5
  00394	eb000000	 bl          PDD_GetDescriptor
  00398	e3500000	 cmp         r0, #0
  0039c	1a000017	 bne         |$LN35@HandleSetu|

; 485  :                 // do nothing
; 486  :             } else {
; 487  :                 OALMSG(OAL_ERROR, (
; 488  :                     L"*** UnHandled GET_DESCRIPTOR request:0x%x\r\n",
; 489  :                     pUdr->wValue
; 490  :                 ));

  003a0	e59f3068	 ldr         r3, [pc, #0x68]
  003a4	e5933440	 ldr         r3, [r3, #0x440]
  003a8	e3130001	 tst         r3, #1
  003ac	0a000013	 beq         |$LN35@HandleSetu|
  003b0	e5d52002	 ldrb        r2, [r5, #2]
  003b4	e5d53003	 ldrb        r3, [r5, #3]
  003b8	e59f0054	 ldr         r0, [pc, #0x54]
  003bc	e1821403	 orr         r1, r2, r3, lsl #8

; 506  :             ////pDev->ucConfigValue = (BYTE)pUdr->wValue;
; 507  :             break;
; 508  : 
; 509  :         case USB_REQUEST_GET_INTERFACE:
; 510  :             // TODO: handle this
; 511  :             break;
; 512  : 
; 513  :         case USB_REQUEST_SET_INTERFACE:
; 514  :             // TODO: handle this
; 515  :             break;
; 516  : 
; 517  :         case USB_REQUEST_SYNC_FRAME:
; 518  :             // TODO: handle this
; 519  :             break;
; 520  : 
; 521  :         default:
; 522  :             OALMSG(OAL_WARN, (
; 523  :                 L"*** Unknown request 0x%x\r\n", pUdr->bRequest
; 524  :             ));

  003c0	eb000000	 bl          NKDbgPrintfW

; 525  :     }
; 526  :     return TRUE;

  003c4	e3a00001	 mov         r0, #1

; 527  : }

  003c8	e8bd4030	 ldmia       sp!, {r4, r5, lr}
  003cc	e12fff1e	 bx          lr
  003d0		 |$LN5@HandleSetu|

; 491  :             }
; 492  :             break;

  003d0	e3a03c13	 mov         r3, #0x13, 24

; 493  : 
; 494  :         case USB_REQUEST_SET_DESCRIPTOR:
; 495  :             // TODO: handle this
; 496  :             break;
; 497  : 
; 498  :         case USB_REQUEST_GET_CONFIGURATION:
; 499  :             // TODO: handle this
; 500  :             break;
; 501  : 
; 502  :         case USB_REQUEST_SET_CONFIGURATION:
; 503  :             OALStall(5000);

  003d4	e3830088	 orr         r0, r3, #0x88
  003d8	eb000000	 bl          OALStall

; 504  :             // setup RX transfer on EP1
; 505  :             SetupEP1Transfer();

  003dc	eb000000	 bl          SetupEP1Transfer

; 525  :     }
; 526  :     return TRUE;

  003e0	e3a00001	 mov         r0, #1

; 527  : }

  003e4	e8bd4030	 ldmia       sp!, {r4, r5, lr}
  003e8	e12fff1e	 bx          lr
  003ec		 |$LN1@HandleSetu|

; 506  :             ////pDev->ucConfigValue = (BYTE)pUdr->wValue;
; 507  :             break;
; 508  : 
; 509  :         case USB_REQUEST_GET_INTERFACE:
; 510  :             // TODO: handle this
; 511  :             break;
; 512  : 
; 513  :         case USB_REQUEST_SET_INTERFACE:
; 514  :             // TODO: handle this
; 515  :             break;
; 516  : 
; 517  :         case USB_REQUEST_SYNC_FRAME:
; 518  :             // TODO: handle this
; 519  :             break;
; 520  : 
; 521  :         default:
; 522  :             OALMSG(OAL_WARN, (
; 523  :                 L"*** Unknown request 0x%x\r\n", pUdr->bRequest
; 524  :             ));

  003ec	e59f301c	 ldr         r3, [pc, #0x1C]
  003f0	e5933440	 ldr         r3, [r3, #0x440]
  003f4	e3130002	 tst         r3, #2
  003f8	159f000c	 ldrne       r0, [pc, #0xC]
  003fc	1b000000	 blne        NKDbgPrintfW
  00400		 |$LN35@HandleSetu|

; 525  :     }
; 526  :     return TRUE;

  00400	e3a00001	 mov         r0, #1

; 527  : }

  00404	e8bd4030	 ldmia       sp!, {r4, r5, lr}
  00408	e12fff1e	 bx          lr
  0040c		 |$LN56@HandleSetu|
  0040c		 |$LN57@HandleSetu|
  0040c	00000000	 DCD         |??_C@_1DG@HDGBABFG@?$AA?$CK?$AA?$CK?$AA?$CK?$AA?5?$AAU?$AAn?$AAk?$AAn?$AAo?$AAw?$AAn?$AA?5?$AAr?$AAe?$AAq?$AAu?$AAe?$AAs?$AAt?$AA?5?$AA0?$AAx?$AA?$CF?$AAx?$AA?$AN?$AA?6?$AA?$AA@|
  00410		 |$LN58@HandleSetu|
  00410	00000000	 DCD         |dpCurSettings|
  00414		 |$LN59@HandleSetu|
  00414	00000000	 DCD         |??_C@_1FI@GLILKAEG@?$AA?$CK?$AA?$CK?$AA?$CK?$AA?5?$AAU?$AAn?$AAH?$AAa?$AAn?$AAd?$AAl?$AAe?$AAd?$AA?5?$AAG?$AAE?$AAT?$AA_?$AAD?$AAE?$AAS?$AAC?$AAR?$AAI?$AAP?$AAT?$AAO?$AAR?$AA?5?$AAr?$AAe?$AAq@|
  00418		 |$LN60@HandleSetu|
  00418	00000000	 DCD         |??_C@_1CO@NANJHOKH@?$AA?$CK?$AA?$CK?$AA?$CK?$AAR?$AAe?$AAq?$AAu?$AAe?$AAs?$AAt?$AAT?$AAy?$AAp?$AAe?$AA?$DN?$AA?$DN?$AA0?$AAx?$AA0?$AA2?$AA?$AN?$AA?6?$AA?$AA@|
  0041c		 |$LN61@HandleSetu|
  0041c	00000000	 DCD         |??_C@_1CO@MDAODOFD@?$AA?$CK?$AA?$CK?$AA?$CK?$AAR?$AAe?$AAq?$AAu?$AAe?$AAs?$AAt?$AAT?$AAy?$AAp?$AAe?$AA?$DN?$AA?$DN?$AA0?$AAx?$AA8?$AA2?$AA?$AN?$AA?6?$AA?$AA@|
  00420		 |$LN62@HandleSetu|
  00420	00000000	 DCD         |??_C@_1EM@PLFMLLKO@?$AA?$CK?$AA?$CK?$AA?$CK?$AA?$CK?$AA?5?$AAU?$AAn?$AAh?$AAa?$AAn?$AAd?$AAl?$AAe?$AAd?$AA?5?$AAv?$AAe?$AAr?$AAn?$AAd?$AAo?$AAr?$AA?5?$AAc?$AAo?$AAm?$AAm?$AAa?$AAn?$AAd?$AA?5?$AA0@|
  00424		 |$M47561|

			 ENDP  ; |HandleSetupPacket|


  00018			 AREA	 |.pdata|, PDATA
|$T47593| DCD	|$LN16@PDD_DoVend|
	DCD	0x40004d01
; Function compile flags: /Ogtp

  00424			 AREA	 |.text|, CODE, ARM

  00424		 |PDD_DoVendorCommand| PROC

; 339  : {

  00424		 |$LN16@PDD_DoVend|
  00424	e92d4070	 stmdb       sp!, {r4 - r6, lr}
  00428		 |$M47590|
  00428	e1a0e001	 mov         lr, r1
  0042c	e1a04000	 mov         r4, r0

; 340  :     BOOL fRet = TRUE;
; 341  : 
; 342  :     //
; 343  :     // RNDIS spec:: we should only be getting:
; 344  :     // - SEND_ENCAPSULATED_COMMAND  or
; 345  :     // - GET_ENCAPSULATED_RESPONSE.
; 346  :     // So let's just look for these two, and bail out if it does
; 347  :     //not match..
; 348  :     //
; 349  :     switch (pUdr->bRequest) {

  00430	e5d43001	 ldrb        r3, [r4, #1]
  00434	e3530000	 cmp         r3, #0
  00438	0a00002e	 beq         |$LN5@PDD_DoVend|
  0043c	e3530001	 cmp         r3, #1
  00440	0a000002	 beq         |$LN4@PDD_DoVend|

; 386  :             }
; 387  :             break;
; 388  : 
; 389  :         default:
; 390  :             fRet = FALSE;

  00444	e3a00000	 mov         r0, #0

; 391  :             break;
; 392  :     }
; 393  :     return fRet;
; 394  : }

  00448	e8bd4070	 ldmia       sp!, {r4 - r6, lr}
  0044c	e12fff1e	 bx          lr
  00450		 |$LN4@PDD_DoVend|

; 357  :             break;
; 358  : 
; 359  :         case GET_ENCAPSULATED_RESPONSE:
; 360  :             pRequest->eDir = EP0In;
; 361  :             if (!IsListEmpty(&(g_RndisKitlDev.listTxRndisMessageQueue))) {

  00450	e59f50f4	 ldr         r5, [pc, #0xF4]
  00454	e3a03002	 mov         r3, #2
  00458	e58e3000	 str         r3, [lr]
  0045c	e5956434	 ldr         r6, [r5, #0x434]
  00460	e2853b01	 add         r3, r5, #1, 22
  00464	e2833034	 add         r3, r3, #0x34
  00468	e1560003	 cmp         r6, r3

; 391  :             break;
; 392  :     }
; 393  :     return fRet;
; 394  : }

  0046c	e3a00001	 mov         r0, #1
  00470	0a000013	 beq         |$LN3@PDD_DoVend|
  00474	e5962000	 ldr         r2, [r6]
  00478	e2853b01	 add         r3, r5, #1, 22
  0047c	e2833034	 add         r3, r3, #0x34
  00480	e5823004	 str         r3, [r2, #4]
  00484	e5963000	 ldr         r3, [r6]
  00488	e59f10c4	 ldr         r1, [pc, #0xC4]
  0048c	e5853434	 str         r3, [r5, #0x434]
  00490	e5963008	 ldr         r3, [r6, #8]
  00494	e58e3004	 str         r3, [lr, #4]
  00498	e5d42006	 ldrb        r2, [r4, #6]
  0049c	e5d43007	 ldrb        r3, [r4, #7]
  004a0	e1823403	 orr         r3, r2, r3, lsl #8
  004a4	e58e3008	 str         r3, [lr, #8]
  004a8	e596300c	 ldr         r3, [r6, #0xC]
  004ac	e58e1010	 str         r1, [lr, #0x10]
  004b0	e58e6014	 str         r6, [lr, #0x14]
  004b4	e58e300c	 str         r3, [lr, #0xC]
  004b8	e5856430	 str         r6, [r5, #0x430]
  004bc	e8bd4070	 ldmia       sp!, {r4 - r6, lr}
  004c0	e12fff1e	 bx          lr
  004c4		 |$LN3@PDD_DoVend|

; 362  :                 PLIST_ENTRY pLink;
; 363  :                 PDATA_WRAPPER pDataWrapper;
; 364  : 
; 365  :                 pLink = RemoveHeadList(&(g_RndisKitlDev.listTxRndisMessageQueue));
; 366  :                 pDataWrapper = CONTAINING_RECORD(pLink, DATA_WRAPPER, Link);
; 367  :                 //KITLDEBUGMSG(MDDZONE, ("<0x%X\r\n", pDataWrapper));
; 368  :                 pRequest->pucData = pDataWrapper->pucData;
; 369  :                 pRequest->dwExpectedSize = pUdr->wLength;
; 370  :                 pRequest->dwActualSize = pDataWrapper->dwDataSize;
; 371  :                 pRequest->pfnNotification = PDD_SendNotification;
; 372  :                 pRequest->pvUser = pDataWrapper;
; 373  : 
; 374  :                 g_RndisKitlDev.pEP0DataWrapper = pDataWrapper;
; 375  :             } else {
; 376  :                 //
; 377  :                 // RNDIS spec says if we have no data to send then 
; 378  :                 // send one byte packet set to 00 instead of stalling the 
; 379  :                 // pipe.
; 380  :                 //
; 381  :                 pRequest->pucData = &g_ucScratch;

  004c4	e59f3084	 ldr         r3, [pc, #0x84]

; 382  :                 pRequest->dwActualSize = sizeof(UCHAR);

  004c8	e3a02001	 mov         r2, #1
  004cc	e58e200c	 str         r2, [lr, #0xC]
  004d0	e58e3004	 str         r3, [lr, #4]

; 383  :                 pRequest->dwExpectedSize = pUdr->wLength;

  004d4	e5d42006	 ldrb        r2, [r4, #6]
  004d8	e5d43007	 ldrb        r3, [r4, #7]

; 384  :                 pRequest->pfnNotification = NULL;

  004dc	e3a01000	 mov         r1, #0

; 385  :                 pRequest->pvUser = NULL;

  004e0	e58e1014	 str         r1, [lr, #0x14]
  004e4	e1823403	 orr         r3, r2, r3, lsl #8
  004e8	e58e3008	 str         r3, [lr, #8]
  004ec	e58e1010	 str         r1, [lr, #0x10]

; 391  :             break;
; 392  :     }
; 393  :     return fRet;
; 394  : }

  004f0	e8bd4070	 ldmia       sp!, {r4 - r6, lr}
  004f4	e12fff1e	 bx          lr
  004f8		 |$LN5@PDD_DoVend|

; 350  :         case SEND_ENCAPSULATED_COMMAND:
; 351  :             pRequest->eDir = EP0Out;
; 352  :             pRequest->pucData = (UCHAR *)(g_RndisKitlDev.EP0RxBuffer);

  004f8	e59f004c	 ldr         r0, [pc, #0x4C]
  004fc	e3a03001	 mov         r3, #1
  00500	e58e3000	 str         r3, [lr]
  00504	e2803020	 add         r3, r0, #0x20
  00508	e58e3004	 str         r3, [lr, #4]

; 353  :             pRequest->dwExpectedSize = pUdr->wLength;

  0050c	e5d42006	 ldrb        r2, [r4, #6]
  00510	e5d43007	 ldrb        r3, [r4, #7]

; 354  :             pRequest->dwActualSize = pUdr->wLength;
; 355  :             pRequest->pfnNotification = PDD_RecvNotification;

  00514	e59f102c	 ldr         r1, [pc, #0x2C]

; 356  :             pRequest->pvUser = &(g_RndisKitlDev.EP0DataWrapper);

  00518	e2800e42	 add         r0, r0, #0x42, 28
  0051c	e1823403	 orr         r3, r2, r3, lsl #8
  00520	e58e3008	 str         r3, [lr, #8]
  00524	e5d42006	 ldrb        r2, [r4, #6]
  00528	e5d43007	 ldrb        r3, [r4, #7]
  0052c	e58e0014	 str         r0, [lr, #0x14]

; 391  :             break;
; 392  :     }
; 393  :     return fRet;
; 394  : }

  00530	e3a00001	 mov         r0, #1
  00534	e1823403	 orr         r3, r2, r3, lsl #8
  00538	e58e300c	 str         r3, [lr, #0xC]
  0053c	e58e1010	 str         r1, [lr, #0x10]
  00540	e8bd4070	 ldmia       sp!, {r4 - r6, lr}
  00544	e12fff1e	 bx          lr
  00548		 |$LN17@PDD_DoVend|
  00548		 |$LN18@PDD_DoVend|
  00548	00000000	 DCD         |PDD_RecvNotification|
  0054c		 |$LN19@PDD_DoVend|
  0054c	00000000	 DCD         |g_RndisKitlDev|
  00550		 |$LN20@PDD_DoVend|
  00550	00000000	 DCD         |g_ucScratch|
  00554		 |$LN21@PDD_DoVend|
  00554	00000000	 DCD         |PDD_SendNotification|
  00558		 |$M47591|

			 ENDP  ; |PDD_DoVendorCommand|

	EXPORT	|??_C@_1JM@NODNBDHJ@?$AAC?$AA?3?$AA?2?$AAW?$AAI?$AAN?$AAC?$AAE?$AA6?$AA0?$AA0?$AA?2?$AAP?$AAL?$AAA?$AAT?$AAF?$AAO?$AAR?$AAM?$AA?2?$AAC?$AAO?$AAM?$AAM?$AAO?$AAN?$AA?2?$AAS?$AAR?$AAC?$AA?2@| [ DATA ] ; `string'
	EXPORT	|??_C@_1BA@LEPJIIOK@?$AAU?$AAn?$AAk?$AAn?$AAo?$AAw?$AAn?$AA?$AA@| [ DATA ] ; `string'
	EXPORT	|??_C@_1FK@FNONLNGN@?$AA?$CF?$AAs?$AA?3?$AA?5?$AAD?$AAE?$AAB?$AAU?$AAG?$AAC?$AAH?$AAK?$AA?5?$AAf?$AAa?$AAi?$AAl?$AAe?$AAd?$AA?5?$AAi?$AAn?$AA?5?$AAf?$AAi?$AAl?$AAe?$AA?5?$AA?$CF?$AAs?$AA?5?$AAa@| [ DATA ] ; `string'
	IMPORT	|MddSendRndisMessageComplete|

  00020			 AREA	 |.pdata|, PDATA
|$T47604| DCD	|$LN6@PDD_SendNo|
	DCD	0x40001601

  00000			 AREA	 |.rdata|, DATA, READONLY
|??_C@_1JM@NODNBDHJ@?$AAC?$AA?3?$AA?2?$AAW?$AAI?$AAN?$AAC?$AAE?$AA6?$AA0?$AA0?$AA?2?$AAP?$AAL?$AAA?$AAT?$AAF?$AAO?$AAR?$AAM?$AA?2?$AAC?$AAO?$AAM?$AAM?$AAO?$AAN?$AA?2?$AAS?$AAR?$AAC?$AA?2@| DCB "C"
	DCB	0x0, ":", 0x0, "\\", 0x0, "W", 0x0, "I", 0x0, "N", 0x0, "C"
	DCB	0x0, "E", 0x0, "6", 0x0, "0", 0x0, "0", 0x0, "\\", 0x0, "P"
	DCB	0x0, "L", 0x0, "A", 0x0, "T", 0x0, "F", 0x0, "O", 0x0, "R"
	DCB	0x0, "M", 0x0, "\\", 0x0, "C", 0x0, "O", 0x0, "M", 0x0, "M"
	DCB	0x0, "O", 0x0, "N", 0x0, "\\", 0x0, "S", 0x0, "R", 0x0, "C"
	DCB	0x0, "\\", 0x0, "S", 0x0, "O", 0x0, "C", 0x0, "\\", 0x0, "O"
	DCB	0x0, "M", 0x0, "A", 0x0, "P", 0x0, "2", 0x0, "4", 0x0, "2"
	DCB	0x0, "0", 0x0, "_", 0x0, "M", 0x0, "S", 0x0, "_", 0x0, "V"
	DCB	0x0, "1", 0x0, "\\", 0x0, "O", 0x0, "A", 0x0, "L", 0x0, "\\"
	DCB	0x0, "E", 0x0, "T", 0x0, "H", 0x0, "D", 0x0, "R", 0x0, "V"
	DCB	0x0, "\\", 0x0, "U", 0x0, "S", 0x0, "B", 0x0, "F", 0x0, "N"
	DCB	0x0, "\\", 0x0, ".", 0x0, "\\", 0x0, "r", 0x0, "n", 0x0, "d"
	DCB	0x0, "i", 0x0, "s", 0x0, ".", 0x0, "c", 0x0, 0x0, 0x0 ; `string'

  00000			 AREA	 |.rdata|, DATA, READONLY
|??_C@_1BA@LEPJIIOK@?$AAU?$AAn?$AAk?$AAn?$AAo?$AAw?$AAn?$AA?$AA@| DCB "U", 0x0
	DCB	"n", 0x0, "k", 0x0, "n", 0x0, "o", 0x0, "w", 0x0, "n", 0x0
	DCB	0x0, 0x0				; `string'

  00000			 AREA	 |.rdata|, DATA, READONLY
|??_C@_1FK@FNONLNGN@?$AA?$CF?$AAs?$AA?3?$AA?5?$AAD?$AAE?$AAB?$AAU?$AAG?$AAC?$AAH?$AAK?$AA?5?$AAf?$AAa?$AAi?$AAl?$AAe?$AAd?$AA?5?$AAi?$AAn?$AA?5?$AAf?$AAi?$AAl?$AAe?$AA?5?$AA?$CF?$AAs?$AA?5?$AAa@| DCB "%"
	DCB	0x0, "s", 0x0, ":", 0x0, " ", 0x0, "D", 0x0, "E", 0x0, "B"
	DCB	0x0, "U", 0x0, "G", 0x0, "C", 0x0, "H", 0x0, "K", 0x0, " "
	DCB	0x0, "f", 0x0, "a", 0x0, "i", 0x0, "l", 0x0, "e", 0x0, "d"
	DCB	0x0, " ", 0x0, "i", 0x0, "n", 0x0, " ", 0x0, "f", 0x0, "i"
	DCB	0x0, "l", 0x0, "e", 0x0, " ", 0x0, "%", 0x0, "s", 0x0, " "
	DCB	0x0, "a", 0x0, "t", 0x0, " ", 0x0, "l", 0x0, "i", 0x0, "n"
	DCB	0x0, "e", 0x0, " ", 0x0, "%", 0x0, "d", 0x0, " ", 0x0, 0xd
	DCB	0x0, 0xa, 0x0, 0x0, 0x0			; `string'
; Function compile flags: /Ogtp

  00558			 AREA	 |.text|, CODE, ARM

  00558		 |PDD_SendNotification| PROC

; 246  : {

  00558		 |$LN6@PDD_SendNo|
  00558	e92d4010	 stmdb       sp!, {r4, lr}
  0055c		 |$M47601|

; 247  :     DATA_WRAPPER *pWrapper = (DATA_WRAPPER *)pvUser;
; 248  : 
; 249  :     if (pWrapper != g_RndisKitlDev.pEP0DataWrapper) {

  0055c	e59f4048	 ldr         r4, [pc, #0x48]
  00560	e5940430	 ldr         r0, [r4, #0x430]
  00564	e1510000	 cmp         r1, r0
  00568	0a000007	 beq         |$LN1@PDD_SendNo|

; 250  :         ASSERT(FALSE);

  0056c	e59f2034	 ldr         r2, [pc, #0x34]
  00570	e59f102c	 ldr         r1, [pc, #0x2C]
  00574	e59f0024	 ldr         r0, [pc, #0x24]
  00578	e3a030fa	 mov         r3, #0xFA
  0057c	eb000000	 bl          NKDbgPrintfW
  00580	e6000010	 __debugbreak_ce

; 255  : }

  00584	e8bd4010	 ldmia       sp!, {r4, lr}
  00588	e12fff1e	 bx          lr
  0058c		 |$LN1@PDD_SendNo|

; 251  :         return;
; 252  :     }
; 253  :     MddSendRndisMessageComplete(g_RndisKitlDev.pEP0DataWrapper);

  0058c	eb000000	 bl          MddSendRndisMessageComplete

; 254  :     g_RndisKitlDev.pEP0DataWrapper = NULL;

  00590	e3a03000	 mov         r3, #0
  00594	e5843430	 str         r3, [r4, #0x430]

; 255  : }

  00598	e8bd4010	 ldmia       sp!, {r4, lr}
  0059c	e12fff1e	 bx          lr
  005a0		 |$LN7@PDD_SendNo|
  005a0		 |$LN8@PDD_SendNo|
  005a0	00000000	 DCD         |??_C@_1FK@FNONLNGN@?$AA?$CF?$AAs?$AA?3?$AA?5?$AAD?$AAE?$AAB?$AAU?$AAG?$AAC?$AAH?$AAK?$AA?5?$AAf?$AAa?$AAi?$AAl?$AAe?$AAd?$AA?5?$AAi?$AAn?$AA?5?$AAf?$AAi?$AAl?$AAe?$AA?5?$AA?$CF?$AAs?$AA?5?$AAa@|
  005a4		 |$LN9@PDD_SendNo|
  005a4	00000000	 DCD         |??_C@_1BA@LEPJIIOK@?$AAU?$AAn?$AAk?$AAn?$AAo?$AAw?$AAn?$AA?$AA@|
  005a8		 |$LN10@PDD_SendNo|
  005a8	00000000	 DCD         |??_C@_1JM@NODNBDHJ@?$AAC?$AA?3?$AA?2?$AAW?$AAI?$AAN?$AAC?$AAE?$AA6?$AA0?$AA0?$AA?2?$AAP?$AAL?$AAA?$AAT?$AAF?$AAO?$AAR?$AAM?$AA?2?$AAC?$AAO?$AAM?$AAM?$AAO?$AAN?$AA?2?$AAS?$AAR?$AAC?$AA?2@|
  005ac		 |$LN11@PDD_SendNo|
  005ac	00000000	 DCD         |g_RndisKitlDev|
  005b0		 |$M47602|

			 ENDP  ; |PDD_SendNotification|

	IMPORT	|MddIndicateRndisMessage|

  00028			 AREA	 |.pdata|, PDATA
|$T47616| DCD	|$LN6@PDD_RecvNo|
	DCD	0x40001b01
; Function compile flags: /Ogtp

  005b0			 AREA	 |.text|, CODE, ARM

  005b0		 |PDD_RecvNotification| PROC

; 259  : {

  005b0		 |$LN6@PDD_RecvNo|
  005b0	e52de004	 str         lr, [sp, #-4]!
  005b4		 |$M47613|
  005b4	e1a0e000	 mov         lr, r0

; 260  :     DATA_WRAPPER *pWrapper = (DATA_WRAPPER *)pvUser;
; 261  : 
; 262  :     if (pWrapper != &g_RndisKitlDev.EP0DataWrapper) {

  005b8	e59f2058	 ldr         r2, [pc, #0x58]
  005bc	e2823e42	 add         r3, r2, #0x42, 28
  005c0	e1510003	 cmp         r1, r3
  005c4	0a000008	 beq         |$LN1@PDD_RecvNo|

; 263  :         ASSERT(FALSE);

  005c8	e59f2044	 ldr         r2, [pc, #0x44]
  005cc	e59f103c	 ldr         r1, [pc, #0x3C]
  005d0	e59f0034	 ldr         r0, [pc, #0x34]
  005d4	e3a03c01	 mov         r3, #1, 24
  005d8	e3833007	 orr         r3, r3, #7
  005dc	eb000000	 bl          NKDbgPrintfW
  005e0	e6000010	 __debugbreak_ce

; 269  : }

  005e4	e49de004	 ldr         lr, [sp], #4
  005e8	e12fff1e	 bx          lr
  005ec		 |$LN1@PDD_RecvNo|

; 264  :         return;
; 265  :     }
; 266  :     g_RndisKitlDev.EP0DataWrapper.pucData = pRequest->pucData;

  005ec	e59e3004	 ldr         r3, [lr, #4]

; 267  :     g_RndisKitlDev.EP0DataWrapper.dwDataSize = pRequest->dwActualSize;
; 268  :     MddIndicateRndisMessage(&(g_RndisKitlDev.EP0DataWrapper));

  005f0	e2820e42	 add         r0, r2, #0x42, 28
  005f4	e5823428	 str         r3, [r2, #0x428]
  005f8	e59e300c	 ldr         r3, [lr, #0xC]
  005fc	e582342c	 str         r3, [r2, #0x42C]
  00600	eb000000	 bl          MddIndicateRndisMessage

; 269  : }

  00604	e49de004	 ldr         lr, [sp], #4
  00608	e12fff1e	 bx          lr
  0060c		 |$LN7@PDD_RecvNo|
  0060c		 |$LN8@PDD_RecvNo|
  0060c	00000000	 DCD         |??_C@_1FK@FNONLNGN@?$AA?$CF?$AAs?$AA?3?$AA?5?$AAD?$AAE?$AAB?$AAU?$AAG?$AAC?$AAH?$AAK?$AA?5?$AAf?$AAa?$AAi?$AAl?$AAe?$AAd?$AA?5?$AAi?$AAn?$AA?5?$AAf?$AAi?$AAl?$AAe?$AA?5?$AA?$CF?$AAs?$AA?5?$AAa@|
  00610		 |$LN9@PDD_RecvNo|
  00610	00000000	 DCD         |??_C@_1BA@LEPJIIOK@?$AAU?$AAn?$AAk?$AAn?$AAo?$AAw?$AAn?$AA?$AA@|
  00614		 |$LN10@PDD_RecvNo|
  00614	00000000	 DCD         |??_C@_1JM@NODNBDHJ@?$AAC?$AA?3?$AA?2?$AAW?$AAI?$AAN?$AAC?$AAE?$AA6?$AA0?$AA0?$AA?2?$AAP?$AAL?$AAA?$AAT?$AAF?$AAO?$AAR?$AAM?$AA?2?$AAC?$AAO?$AAM?$AAM?$AAO?$AAN?$AA?2?$AAS?$AAR?$AAC?$AA?2@|
  00618		 |$LN11@PDD_RecvNo|
  00618	00000000	 DCD         |g_RndisKitlDev|
  0061c		 |$M47614|

			 ENDP  ; |PDD_RecvNotification|

	EXPORT	|TxComplete|
	EXPORT	|??_C@_1O@KIJBGEAN@?$AAD?$AAo?$AAn?$AAe?$AA?$AN?$AA?6?$AA?$AA@| [ DATA ] ; `string'
	EXPORT	|??_C@_1FG@LFHLPLMG@?$AAS?$AAe?$AAn?$AAd?$AAP?$AAa?$AAc?$AAk?$AAe?$AAt?$AA?5?$AAr?$AAe?$AAq?$AAu?$AAe?$AAs?$AAt?$AA?5?$AAc?$AAo?$AAm?$AAp?$AAl?$AAe?$AAt?$AAe?$AAd?$AA?$CB?$AA?5?$AA?$FL?$AA?$CF@| [ DATA ] ; `string'
	IMPORT	|MddSendRndisPacketComplete|

  00030			 AREA	 |.pdata|, PDATA
|$T47632| DCD	|$LN11@TxComplete|
	DCD	0x40001c01

  00000			 AREA	 |.rdata|, DATA, READONLY
|??_C@_1O@KIJBGEAN@?$AAD?$AAo?$AAn?$AAe?$AA?$AN?$AA?6?$AA?$AA@| DCB "D", 0x0
	DCB	"o", 0x0, "n", 0x0, "e", 0x0, 0xd, 0x0, 0xa, 0x0, 0x0, 0x0 ; `string'

  00000			 AREA	 |.rdata|, DATA, READONLY
|??_C@_1FG@LFHLPLMG@?$AAS?$AAe?$AAn?$AAd?$AAP?$AAa?$AAc?$AAk?$AAe?$AAt?$AA?5?$AAr?$AAe?$AAq?$AAu?$AAe?$AAs?$AAt?$AA?5?$AAc?$AAo?$AAm?$AAp?$AAl?$AAe?$AAt?$AAe?$AAd?$AA?$CB?$AA?5?$AA?$FL?$AA?$CF@| DCB "S"
	DCB	0x0, "e", 0x0, "n", 0x0, "d", 0x0, "P", 0x0, "a", 0x0, "c"
	DCB	0x0, "k", 0x0, "e", 0x0, "t", 0x0, " ", 0x0, "r", 0x0, "e"
	DCB	0x0, "q", 0x0, "u", 0x0, "e", 0x0, "s", 0x0, "t", 0x0, " "
	DCB	0x0, "c", 0x0, "o", 0x0, "m", 0x0, "p", 0x0, "l", 0x0, "e"
	DCB	0x0, "t", 0x0, "e", 0x0, "d", 0x0, "!", 0x0, " ", 0x0, "["
	DCB	0x0, "%", 0x0, "d", 0x0, " ", 0x0, "b", 0x0, "y", 0x0, "t"
	DCB	0x0, "e", 0x0, "s", 0x0, "]", 0x0, 0xd, 0x0, 0xa, 0x0, 0x0
	DCB	0x0					; `string'
; Function compile flags: /Ogtp

  0061c			 AREA	 |.text|, CODE, ARM

  0061c		 |TxComplete| PROC

; 531  : {

  0061c		 |$LN11@TxComplete|
  0061c	e92d4030	 stmdb       sp!, {r4, r5, lr}
  00620		 |$M47629|

; 532  :     RNDIS_KITLDEV *pRndisKitlDev = &g_RndisKitlDev;
; 533  : 
; 534  :     OALMSG(OAL_ETHER&&OAL_FUNC, (
; 535  :         L"SendPacket request completed! [%d bytes]\r\n", 
; 536  :         g_EP2Transfer.cbTransferred 
; 537  :     ));

  00620	e59f5060	 ldr         r5, [pc, #0x60]
  00624	e5953440	 ldr         r3, [r5, #0x440]
  00628	e3130a02	 tst         r3, #2, 20
  0062c	0a000005	 beq         |$LN3@TxComplete|
  00630	e3130004	 tst         r3, #4
  00634	0a000003	 beq         |$LN3@TxComplete|
  00638	e59f3044	 ldr         r3, [pc, #0x44]
  0063c	e59f003c	 ldr         r0, [pc, #0x3C]
  00640	e5931010	 ldr         r1, [r3, #0x10]
  00644	eb000000	 bl          NKDbgPrintfW
  00648		 |$LN3@TxComplete|

; 538  :     MddSendRndisPacketComplete(pRndisKitlDev->pTxDataWrapper);

  00648	e59f402c	 ldr         r4, [pc, #0x2C]
  0064c	e594043c	 ldr         r0, [r4, #0x43C]
  00650	eb000000	 bl          MddSendRndisPacketComplete

; 539  : 
; 540  :     OALMSG(OAL_ETHER&&OAL_FUNC, (L"Done\r\n"));

  00654	e5953440	 ldr         r3, [r5, #0x440]
  00658	e3130a02	 tst         r3, #2, 20
  0065c	13130004	 tstne       r3, #4
  00660	159f0010	 ldrne       r0, [pc, #0x10]
  00664	1b000000	 blne        NKDbgPrintfW

; 541  :     pRndisKitlDev->pTxDataWrapper = NULL;

  00668	e3a03000	 mov         r3, #0
  0066c	e584343c	 str         r3, [r4, #0x43C]

; 542  : }

  00670	e8bd4030	 ldmia       sp!, {r4, r5, lr}
  00674	e12fff1e	 bx          lr
  00678		 |$LN12@TxComplete|
  00678		 |$LN13@TxComplete|
  00678	00000000	 DCD         |??_C@_1O@KIJBGEAN@?$AAD?$AAo?$AAn?$AAe?$AA?$AN?$AA?6?$AA?$AA@|
  0067c		 |$LN14@TxComplete|
  0067c	00000000	 DCD         |g_RndisKitlDev|
  00680		 |$LN15@TxComplete|
  00680	00000000	 DCD         |??_C@_1FG@LFHLPLMG@?$AAS?$AAe?$AAn?$AAd?$AAP?$AAa?$AAc?$AAk?$AAe?$AAt?$AA?5?$AAr?$AAe?$AAq?$AAu?$AAe?$AAs?$AAt?$AA?5?$AAc?$AAo?$AAm?$AAp?$AAl?$AAe?$AAt?$AAe?$AAd?$AA?$CB?$AA?5?$AA?$FL?$AA?$CF@|
  00684		 |$LN16@TxComplete|
  00684	00000000	 DCD         |g_EP2Transfer|
  00688		 |$LN17@TxComplete|
  00688	00000000	 DCD         |dpCurSettings|
  0068c		 |$M47630|

			 ENDP  ; |TxComplete|

	EXPORT	|NotifyHandler|
	EXPORT	|??_C@_1CI@KCINNAAK@?$AAI?$AAN?$AAV?$AAA?$AAL?$AAI?$AAD?$AA?5?$AAT?$AAR?$AAA?$AAN?$AAS?$AAF?$AAE?$AAR?$AA?$CB?$AA?$AN?$AA?6?$AA?$AA@| [ DATA ] ; `string'
	EXPORT	|??_C@_1EG@NBFJCBDP@?$AAE?$AAP?$AA3?$AA?5?$AAI?$AAn?$AAt?$AAe?$AAr?$AAr?$AAu?$AAp?$AAt?$AA?5?$AAs?$AAu?$AAc?$AAc?$AAe?$AAs?$AAs?$AAf?$AAu?$AAl?$AAl?$AAy?$AA?5?$AAs?$AAe?$AAn?$AAt?$AA?$CB@| [ DATA ] ; `string'
	EXPORT	|??_C@_1DO@PFNPIHHC@?$AAU?$AAn?$AAe?$AAx?$AAp?$AAe?$AAc?$AAt?$AAe?$AAd?$AA?5?$AAE?$AAP?$AA2?$AA?5?$AAt?$AAr?$AAa?$AAn?$AAs?$AAf?$AAe?$AAr?$AA?5?$AAs?$AAt?$AAa?$AAt?$AAe?$AA?$CB?$AA?$AA@| [ DATA ] ; `string'
	EXPORT	|??_C@_1EG@NEPEKMDB@?$AAS?$AAe?$AAn?$AAd?$AAP?$AAa?$AAc?$AAk?$AAe?$AAt?$AA?5?$AAN?$AAU?$AAL?$AAL?$AA?5?$AAt?$AAe?$AAr?$AAm?$AAi?$AAn?$AAa?$AAt?$AAo?$AAr?$AA?5?$AAs?$AAe?$AAn?$AAt?$AA?$CB@| [ DATA ] ; `string'
	EXPORT	|??_C@_1FI@KOMJGPLF@?$AAS?$AAe?$AAn?$AAd?$AAi?$AAn?$AAg?$AA?5?$AAN?$AAU?$AAL?$AAL?$AA?5?$AAt?$AAe?$AAr?$AAm?$AAi?$AAn?$AAa?$AAt?$AAo?$AAr?$AA?5?$AAf?$AAo?$AAr?$AA?5?$AAt?$AAh?$AAe?$AA?5@| [ DATA ] ; `string'
	EXPORT	|??_C@_1EA@ODINLGJJ@?$AAR?$AAe?$AAc?$AAe?$AAi?$AAv?$AAe?$AAd?$AA?5?$AAa?$AA?5?$AAp?$AAa?$AAc?$AAk?$AAe?$AAt?$AA?5?$AA?$FL?$AA?$CF?$AAd?$AA?5?$AAb?$AAy?$AAt?$AAe?$AAs?$AA?$FN?$AA?$CB?$AA?$AN?$AA?6?$AA?$AA@| [ DATA ] ; `string'
	EXPORT	|??_C@_1CM@FNJKEBIB@?$AAR?$AAe?$AAc?$AAe?$AAi?$AAv?$AAe?$AAd?$AA?5?$AAa?$AA?5?$AAm?$AAe?$AAs?$AAs?$AAa?$AAg?$AAe?$AA?$CB?$AA?$AN?$AA?6?$AA?$AA@| [ DATA ] ; `string'
	EXPORT	|??_C@_1CO@MJKBFNNP@?$AAD?$AAo?$AAn?$AAe?$AA?5?$AAr?$AAe?$AAc?$AAe?$AAi?$AAv?$AAi?$AAn?$AAg?$AA?5?$AAd?$AAa?$AAt?$AAa?$AA?4?$AA?$AN?$AA?6?$AA?$AA@| [ DATA ] ; `string'
	EXPORT	|??_C@_1EC@LJDGALBJ@?$AAS?$AAe?$AAn?$AAd?$AAM?$AAe?$AAs?$AAs?$AAa?$AAg?$AAe?$AA?5?$AAr?$AAe?$AAq?$AAu?$AAe?$AAs?$AAt?$AA?5?$AAc?$AAo?$AAm?$AAp?$AAl?$AAe?$AAt?$AAe?$AAd?$AA?$CB?$AA?$AN?$AA?6@| [ DATA ] ; `string'
	EXPORT	|??_C@_1CK@FEGGBLDE@?$AAD?$AAo?$AAn?$AAe?$AA?5?$AAs?$AAe?$AAn?$AAd?$AAi?$AAn?$AAg?$AA?5?$AAd?$AAa?$AAt?$AAa?$AA?4?$AA?$AN?$AA?6?$AA?$AA@| [ DATA ] ; `string'
	EXPORT	|??_C@_1FM@FDJOONCJ@?$AAG?$AAo?$AAt?$AA?5?$AAS?$AAE?$AAT?$AAU?$AAP?$AA?5?$AA?$DM?$AAN?$AAO?$AA?5?$AAD?$AAA?$AAT?$AAA?$AA?3?$AA?5?$AA?$CF?$AAx?$AA?5?$AA?$CF?$AAx?$AA?5?$AA?$CF?$AAx?$AA?5?$AA?$CF?$AAx?$AA?5@| [ DATA ] ; `string'
	EXPORT	|??_C@_1DA@MJLPENBD@?$AAG?$AAo?$AAt?$AA?5?$AAS?$AAE?$AAT?$AAU?$AAP?$AA?5?$AAO?$AAU?$AAT?$AA?5?$AAp?$AAa?$AAc?$AAk?$AAe?$AAt?$AA?4?$AA?$AN?$AA?6?$AA?$AA@| [ DATA ] ; `string'
	EXPORT	|??_C@_1CM@NHNGDKFM@?$AAG?$AAo?$AAt?$AA?5?$AAS?$AAE?$AAT?$AAU?$AAP?$AA?5?$AAI?$AAN?$AA?5?$AAp?$AAa?$AAc?$AAk?$AAe?$AAt?$AA?$AN?$AA?6?$AA?$AA@| [ DATA ] ; `string'
	EXPORT	|??_C@_1DK@CJOHLCDF@?$AAE?$AAR?$AAR?$AAO?$AAR?$AA?5?$AAP?$AAA?$AAR?$AAS?$AAI?$AAN?$AAG?$AA?5?$AAS?$AAE?$AAT?$AAU?$AAP?$AA?5?$AAP?$AAA?$AAC?$AAK?$AAE?$AAT?$AA?$AN?$AA?6?$AA?$AA@| [ DATA ] ; `string'
	IMPORT	|MddIndicateRndisPacket|
	IMPORT	|memset|
	IMPORT	|memcpy|

  00038			 AREA	 |.pdata|, PDATA
|$T47691| DCD	|$LN92@NotifyHand|
	DCD	0x4001be02

  00000			 AREA	 |.rdata|, DATA, READONLY
|??_C@_1CI@KCINNAAK@?$AAI?$AAN?$AAV?$AAA?$AAL?$AAI?$AAD?$AA?5?$AAT?$AAR?$AAA?$AAN?$AAS?$AAF?$AAE?$AAR?$AA?$CB?$AA?$AN?$AA?6?$AA?$AA@| DCB "I"
	DCB	0x0, "N", 0x0, "V", 0x0, "A", 0x0, "L", 0x0, "I", 0x0, "D"
	DCB	0x0, " ", 0x0, "T", 0x0, "R", 0x0, "A", 0x0, "N", 0x0, "S"
	DCB	0x0, "F", 0x0, "E", 0x0, "R", 0x0, "!", 0x0, 0xd, 0x0, 0xa
	DCB	0x0, 0x0, 0x0				; `string'

  00000			 AREA	 |.rdata|, DATA, READONLY
|??_C@_1EG@NBFJCBDP@?$AAE?$AAP?$AA3?$AA?5?$AAI?$AAn?$AAt?$AAe?$AAr?$AAr?$AAu?$AAp?$AAt?$AA?5?$AAs?$AAu?$AAc?$AAc?$AAe?$AAs?$AAs?$AAf?$AAu?$AAl?$AAl?$AAy?$AA?5?$AAs?$AAe?$AAn?$AAt?$AA?$CB@| DCB "E"
	DCB	0x0, "P", 0x0, "3", 0x0, " ", 0x0, "I", 0x0, "n", 0x0, "t"
	DCB	0x0, "e", 0x0, "r", 0x0, "r", 0x0, "u", 0x0, "p", 0x0, "t"
	DCB	0x0, " ", 0x0, "s", 0x0, "u", 0x0, "c", 0x0, "c", 0x0, "e"
	DCB	0x0, "s", 0x0, "s", 0x0, "f", 0x0, "u", 0x0, "l", 0x0, "l"
	DCB	0x0, "y", 0x0, " ", 0x0, "s", 0x0, "e", 0x0, "n", 0x0, "t"
	DCB	0x0, "!", 0x0, 0xd, 0x0, 0xa, 0x0, 0x0, 0x0 ; `string'

  00000			 AREA	 |.rdata|, DATA, READONLY
|??_C@_1DO@PFNPIHHC@?$AAU?$AAn?$AAe?$AAx?$AAp?$AAe?$AAc?$AAt?$AAe?$AAd?$AA?5?$AAE?$AAP?$AA2?$AA?5?$AAt?$AAr?$AAa?$AAn?$AAs?$AAf?$AAe?$AAr?$AA?5?$AAs?$AAt?$AAa?$AAt?$AAe?$AA?$CB?$AA?$AA@| DCB "U"
	DCB	0x0, "n", 0x0, "e", 0x0, "x", 0x0, "p", 0x0, "e", 0x0, "c"
	DCB	0x0, "t", 0x0, "e", 0x0, "d", 0x0, " ", 0x0, "E", 0x0, "P"
	DCB	0x0, "2", 0x0, " ", 0x0, "t", 0x0, "r", 0x0, "a", 0x0, "n"
	DCB	0x0, "s", 0x0, "f", 0x0, "e", 0x0, "r", 0x0, " ", 0x0, "s"
	DCB	0x0, "t", 0x0, "a", 0x0, "t", 0x0, "e", 0x0, "!", 0x0, 0x0
	DCB	0x0					; `string'

  00000			 AREA	 |.rdata|, DATA, READONLY
|??_C@_1EG@NEPEKMDB@?$AAS?$AAe?$AAn?$AAd?$AAP?$AAa?$AAc?$AAk?$AAe?$AAt?$AA?5?$AAN?$AAU?$AAL?$AAL?$AA?5?$AAt?$AAe?$AAr?$AAm?$AAi?$AAn?$AAa?$AAt?$AAo?$AAr?$AA?5?$AAs?$AAe?$AAn?$AAt?$AA?$CB@| DCB "S"
	DCB	0x0, "e", 0x0, "n", 0x0, "d", 0x0, "P", 0x0, "a", 0x0, "c"
	DCB	0x0, "k", 0x0, "e", 0x0, "t", 0x0, " ", 0x0, "N", 0x0, "U"
	DCB	0x0, "L", 0x0, "L", 0x0, " ", 0x0, "t", 0x0, "e", 0x0, "r"
	DCB	0x0, "m", 0x0, "i", 0x0, "n", 0x0, "a", 0x0, "t", 0x0, "o"
	DCB	0x0, "r", 0x0, " ", 0x0, "s", 0x0, "e", 0x0, "n", 0x0, "t"
	DCB	0x0, "!", 0x0, 0xd, 0x0, 0xa, 0x0, 0x0, 0x0 ; `string'

  00000			 AREA	 |.rdata|, DATA, READONLY
|??_C@_1FI@KOMJGPLF@?$AAS?$AAe?$AAn?$AAd?$AAi?$AAn?$AAg?$AA?5?$AAN?$AAU?$AAL?$AAL?$AA?5?$AAt?$AAe?$AAr?$AAm?$AAi?$AAn?$AAa?$AAt?$AAo?$AAr?$AA?5?$AAf?$AAo?$AAr?$AA?5?$AAt?$AAh?$AAe?$AA?5@| DCB "S"
	DCB	0x0, "e", 0x0, "n", 0x0, "d", 0x0, "i", 0x0, "n", 0x0, "g"
	DCB	0x0, " ", 0x0, "N", 0x0, "U", 0x0, "L", 0x0, "L", 0x0, " "
	DCB	0x0, "t", 0x0, "e", 0x0, "r", 0x0, "m", 0x0, "i", 0x0, "n"
	DCB	0x0, "a", 0x0, "t", 0x0, "o", 0x0, "r", 0x0, " ", 0x0, "f"
	DCB	0x0, "o", 0x0, "r", 0x0, " ", 0x0, "t", 0x0, "h", 0x0, "e"
	DCB	0x0, " ", 0x0, "p", 0x0, "a", 0x0, "c", 0x0, "k", 0x0, "e"
	DCB	0x0, "t", 0x0, ".", 0x0, ".", 0x0, ".", 0x0, 0xd, 0x0, 0xa
	DCB	0x0, 0x0, 0x0				; `string'

  00000			 AREA	 |.rdata|, DATA, READONLY
|??_C@_1EA@ODINLGJJ@?$AAR?$AAe?$AAc?$AAe?$AAi?$AAv?$AAe?$AAd?$AA?5?$AAa?$AA?5?$AAp?$AAa?$AAc?$AAk?$AAe?$AAt?$AA?5?$AA?$FL?$AA?$CF?$AAd?$AA?5?$AAb?$AAy?$AAt?$AAe?$AAs?$AA?$FN?$AA?$CB?$AA?$AN?$AA?6?$AA?$AA@| DCB "R"
	DCB	0x0, "e", 0x0, "c", 0x0, "e", 0x0, "i", 0x0, "v", 0x0, "e"
	DCB	0x0, "d", 0x0, " ", 0x0, "a", 0x0, " ", 0x0, "p", 0x0, "a"
	DCB	0x0, "c", 0x0, "k", 0x0, "e", 0x0, "t", 0x0, " ", 0x0, "["
	DCB	0x0, "%", 0x0, "d", 0x0, " ", 0x0, "b", 0x0, "y", 0x0, "t"
	DCB	0x0, "e", 0x0, "s", 0x0, "]", 0x0, "!", 0x0, 0xd, 0x0, 0xa
	DCB	0x0, 0x0, 0x0				; `string'

  00000			 AREA	 |.rdata|, DATA, READONLY
|??_C@_1CM@FNJKEBIB@?$AAR?$AAe?$AAc?$AAe?$AAi?$AAv?$AAe?$AAd?$AA?5?$AAa?$AA?5?$AAm?$AAe?$AAs?$AAs?$AAa?$AAg?$AAe?$AA?$CB?$AA?$AN?$AA?6?$AA?$AA@| DCB "R"
	DCB	0x0, "e", 0x0, "c", 0x0, "e", 0x0, "i", 0x0, "v", 0x0, "e"
	DCB	0x0, "d", 0x0, " ", 0x0, "a", 0x0, " ", 0x0, "m", 0x0, "e"
	DCB	0x0, "s", 0x0, "s", 0x0, "a", 0x0, "g", 0x0, "e", 0x0, "!"
	DCB	0x0, 0xd, 0x0, 0xa, 0x0, 0x0, 0x0	; `string'

  00000			 AREA	 |.rdata|, DATA, READONLY
|??_C@_1CO@MJKBFNNP@?$AAD?$AAo?$AAn?$AAe?$AA?5?$AAr?$AAe?$AAc?$AAe?$AAi?$AAv?$AAi?$AAn?$AAg?$AA?5?$AAd?$AAa?$AAt?$AAa?$AA?4?$AA?$AN?$AA?6?$AA?$AA@| DCB "D"
	DCB	0x0, "o", 0x0, "n", 0x0, "e", 0x0, " ", 0x0, "r", 0x0, "e"
	DCB	0x0, "c", 0x0, "e", 0x0, "i", 0x0, "v", 0x0, "i", 0x0, "n"
	DCB	0x0, "g", 0x0, " ", 0x0, "d", 0x0, "a", 0x0, "t", 0x0, "a"
	DCB	0x0, ".", 0x0, 0xd, 0x0, 0xa, 0x0, 0x0, 0x0 ; `string'

  00000			 AREA	 |.rdata|, DATA, READONLY
|??_C@_1EC@LJDGALBJ@?$AAS?$AAe?$AAn?$AAd?$AAM?$AAe?$AAs?$AAs?$AAa?$AAg?$AAe?$AA?5?$AAr?$AAe?$AAq?$AAu?$AAe?$AAs?$AAt?$AA?5?$AAc?$AAo?$AAm?$AAp?$AAl?$AAe?$AAt?$AAe?$AAd?$AA?$CB?$AA?$AN?$AA?6@| DCB "S"
	DCB	0x0, "e", 0x0, "n", 0x0, "d", 0x0, "M", 0x0, "e", 0x0, "s"
	DCB	0x0, "s", 0x0, "a", 0x0, "g", 0x0, "e", 0x0, " ", 0x0, "r"
	DCB	0x0, "e", 0x0, "q", 0x0, "u", 0x0, "e", 0x0, "s", 0x0, "t"
	DCB	0x0, " ", 0x0, "c", 0x0, "o", 0x0, "m", 0x0, "p", 0x0, "l"
	DCB	0x0, "e", 0x0, "t", 0x0, "e", 0x0, "d", 0x0, "!", 0x0, 0xd
	DCB	0x0, 0xa, 0x0, 0x0, 0x0			; `string'

  00000			 AREA	 |.rdata|, DATA, READONLY
|??_C@_1CK@FEGGBLDE@?$AAD?$AAo?$AAn?$AAe?$AA?5?$AAs?$AAe?$AAn?$AAd?$AAi?$AAn?$AAg?$AA?5?$AAd?$AAa?$AAt?$AAa?$AA?4?$AA?$AN?$AA?6?$AA?$AA@| DCB "D"
	DCB	0x0, "o", 0x0, "n", 0x0, "e", 0x0, " ", 0x0, "s", 0x0, "e"
	DCB	0x0, "n", 0x0, "d", 0x0, "i", 0x0, "n", 0x0, "g", 0x0, " "
	DCB	0x0, "d", 0x0, "a", 0x0, "t", 0x0, "a", 0x0, ".", 0x0, 0xd
	DCB	0x0, 0xa, 0x0, 0x0, 0x0			; `string'

  00000			 AREA	 |.rdata|, DATA, READONLY
|??_C@_1FM@FDJOONCJ@?$AAG?$AAo?$AAt?$AA?5?$AAS?$AAE?$AAT?$AAU?$AAP?$AA?5?$AA?$DM?$AAN?$AAO?$AA?5?$AAD?$AAA?$AAT?$AAA?$AA?3?$AA?5?$AA?$CF?$AAx?$AA?5?$AA?$CF?$AAx?$AA?5?$AA?$CF?$AAx?$AA?5?$AA?$CF?$AAx?$AA?5@| DCB "G"
	DCB	0x0, "o", 0x0, "t", 0x0, " ", 0x0, "S", 0x0, "E", 0x0, "T"
	DCB	0x0, "U", 0x0, "P", 0x0, " ", 0x0, "<", 0x0, "N", 0x0, "O"
	DCB	0x0, " ", 0x0, "D", 0x0, "A", 0x0, "T", 0x0, "A", 0x0, ":"
	DCB	0x0, " ", 0x0, "%", 0x0, "x", 0x0, " ", 0x0, "%", 0x0, "x"
	DCB	0x0, " ", 0x0, "%", 0x0, "x", 0x0, " ", 0x0, "%", 0x0, "x"
	DCB	0x0, " ", 0x0, "%", 0x0, "x", 0x0, ">", 0x0, " ", 0x0, "p"
	DCB	0x0, "a", 0x0, "c", 0x0, "k", 0x0, "e", 0x0, "t", 0x0, "."
	DCB	0x0, 0xd, 0x0, 0xa, 0x0, 0x0, 0x0	; `string'

  00000			 AREA	 |.rdata|, DATA, READONLY
|??_C@_1DA@MJLPENBD@?$AAG?$AAo?$AAt?$AA?5?$AAS?$AAE?$AAT?$AAU?$AAP?$AA?5?$AAO?$AAU?$AAT?$AA?5?$AAp?$AAa?$AAc?$AAk?$AAe?$AAt?$AA?4?$AA?$AN?$AA?6?$AA?$AA@| DCB "G"
	DCB	0x0, "o", 0x0, "t", 0x0, " ", 0x0, "S", 0x0, "E", 0x0, "T"
	DCB	0x0, "U", 0x0, "P", 0x0, " ", 0x0, "O", 0x0, "U", 0x0, "T"
	DCB	0x0, " ", 0x0, "p", 0x0, "a", 0x0, "c", 0x0, "k", 0x0, "e"
	DCB	0x0, "t", 0x0, ".", 0x0, 0xd, 0x0, 0xa, 0x0, 0x0, 0x0 ; `string'

  00000			 AREA	 |.rdata|, DATA, READONLY
|??_C@_1CM@NHNGDKFM@?$AAG?$AAo?$AAt?$AA?5?$AAS?$AAE?$AAT?$AAU?$AAP?$AA?5?$AAI?$AAN?$AA?5?$AAp?$AAa?$AAc?$AAk?$AAe?$AAt?$AA?$AN?$AA?6?$AA?$AA@| DCB "G"
	DCB	0x0, "o", 0x0, "t", 0x0, " ", 0x0, "S", 0x0, "E", 0x0, "T"
	DCB	0x0, "U", 0x0, "P", 0x0, " ", 0x0, "I", 0x0, "N", 0x0, " "
	DCB	0x0, "p", 0x0, "a", 0x0, "c", 0x0, "k", 0x0, "e", 0x0, "t"
	DCB	0x0, 0xd, 0x0, 0xa, 0x0, 0x0, 0x0	; `string'

  00000			 AREA	 |.rdata|, DATA, READONLY
|??_C@_1DK@CJOHLCDF@?$AAE?$AAR?$AAR?$AAO?$AAR?$AA?5?$AAP?$AAA?$AAR?$AAS?$AAI?$AAN?$AAG?$AA?5?$AAS?$AAE?$AAT?$AAU?$AAP?$AA?5?$AAP?$AAA?$AAC?$AAK?$AAE?$AAT?$AA?$AN?$AA?6?$AA?$AA@| DCB "E"
	DCB	0x0, "R", 0x0, "R", 0x0, "O", 0x0, "R", 0x0, " ", 0x0, "P"
	DCB	0x0, "A", 0x0, "R", 0x0, "S", 0x0, "I", 0x0, "N", 0x0, "G"
	DCB	0x0, " ", 0x0, "S", 0x0, "E", 0x0, "T", 0x0, "U", 0x0, "P"
	DCB	0x0, " ", 0x0, "P", 0x0, "A", 0x0, "C", 0x0, "K", 0x0, "E"
	DCB	0x0, "T", 0x0, 0xd, 0x0, 0xa, 0x0, 0x0, 0x0 ; `string'
; Function compile flags: /Ogtp

  0068c			 AREA	 |.text|, CODE, ARM

  0068c		 |NotifyHandler| PROC

; 551  : {

  0068c		 |$LN92@NotifyHand|
  0068c	e92d40f0	 stmdb       sp!, {r4 - r7, lr}
  00690	e24dd028	 sub         sp, sp, #0x28
  00694		 |$M47688|
  00694	e1a05002	 mov         r5, r2

; 552  :     USB_DEVICE_REQUEST request;
; 553  :     EP0_REQUEST EP0Request;
; 554  :     STransfer *pTransfer;
; 555  : 
; 556  :     switch( dwMsg )

  00698	e3510004	 cmp         r1, #4
  0069c	8a0000b1	 bhi         |$LN80@NotifyHand|
  006a0	0a000032	 beq         |$LN41@NotifyHand|
  006a4	e3510001	 cmp         r1, #1
  006a8	0a000005	 beq         |$LN14@NotifyHand|
  006ac	e3510003	 cmp         r1, #3
  006b0	1a0000b0	 bne         |$LN1@NotifyHand|

; 762  :     }
; 763  : 
; 764  :     return FALSE;

  006b4	e3a00000	 mov         r0, #0

; 765  : }

  006b8	e28dd028	 add         sp, sp, #0x28
  006bc	e8bd40f0	 ldmia       sp!, {r4 - r7, lr}
  006c0	e12fff1e	 bx          lr
  006c4		 |$LN14@NotifyHand|

; 717  :         }
; 718  :         break;
; 719  : 
; 720  :     case UFN_MSG_BUS_EVENTS:
; 721  :         switch( dwParam )

  006c4	e3550004	 cmp         r5, #4
  006c8	8a00001d	 bhi         |$LN6@NotifyHand|
  006cc	e28f3004	 add         r3, pc, #4
  006d0	e7d33005	 ldrb        r3, [r3, +r5]
  006d4	e08ff003	 add         pc, pc, r3
  006d8		 |$LN84@NotifyHand|
  006d8		 |$LN83@NotifyHand|
  006d8		 |$LN85@NotifyHand|
  006d8	04ed		 DCB         0x4
  006d9		 |$LN86@NotifyHand|
  006d9	20ed		 DCB         0x20
  006da		 |$LN87@NotifyHand|
  006da	3ced		 DCB         0x3c
  006db		 |$LN88@NotifyHand|
  006db	20ed		 DCB         0x20
  006dc		 |$LN89@NotifyHand|
  006dc	20ed		 DCB         0x20
  006dd		 |$LN121@NotifyHand|

; 765  : }

  006dd	20ed		 DCB         0x20
  006de		 |$LN122@NotifyHand|
  006de	20ed		 DCB         0x20
  006df		 |$LN123@NotifyHand|
  006df	20ed		 DCB         0x20
  006e0		 |$LN11@NotifyHand|

; 750  :         {
; 751  :             g_devState = DS_ADDRESSED;
; 752  :         }
; 753  :         else
; 754  :         {
; 755  :             g_devState = DS_DEFAULT;

  006e0	e59f3630	 ldr         r3, [pc, #0x630]
  006e4	e3a02000	 mov         r2, #0

; 762  :     }
; 763  : 
; 764  :     return FALSE;

  006e8	e3a00000	 mov         r0, #0
  006ec	e5832008	 str         r2, [r3, #8]

; 765  : }

  006f0	e28dd028	 add         sp, sp, #0x28
  006f4	e8bd40f0	 ldmia       sp!, {r4 - r7, lr}
  006f8	e12fff1e	 bx          lr
  006fc		 |$LN10@NotifyHand|

; 750  :         {
; 751  :             g_devState = DS_ADDRESSED;
; 752  :         }
; 753  :         else
; 754  :         {
; 755  :             g_devState = DS_DEFAULT;

  006fc	e59f3614	 ldr         r3, [pc, #0x614]
  00700	e3a02001	 mov         r2, #1

; 762  :     }
; 763  : 
; 764  :     return FALSE;

  00704	e3a00000	 mov         r0, #0
  00708	e5832008	 str         r2, [r3, #8]

; 765  : }

  0070c	e28dd028	 add         sp, sp, #0x28
  00710	e8bd40f0	 ldmia       sp!, {r4 - r7, lr}
  00714	e12fff1e	 bx          lr
  00718		 |$LN9@NotifyHand|

; 722  :         {
; 723  :         case UFN_DETACH:
; 724  :             g_devState = DS_DETACHED;
; 725  :             break;
; 726  :         case UFN_ATTACH:
; 727  :             g_devState = DS_ATTACHED;
; 728  :             break;
; 729  :         case UFN_RESET:
; 730  :             g_devState = DS_DEFAULT;

  00718	e59f35f8	 ldr         r3, [pc, #0x5F8]

; 731  :             g_EP0TransferState = TS_IDLE;
; 732  :             g_EP2TransferState = TS_IDLE;

  0071c	e3a00000	 mov         r0, #0
  00720	e3a02003	 mov         r2, #3
  00724	e3a01000	 mov         r1, #0
  00728	e5830014	 str         r0, [r3, #0x14]

; 762  :     }
; 763  : 
; 764  :     return FALSE;

  0072c	e3a00000	 mov         r0, #0
  00730	e583100c	 str         r1, [r3, #0xC]
  00734	e5832008	 str         r2, [r3, #8]

; 765  : }

  00738	e28dd028	 add         sp, sp, #0x28
  0073c	e8bd40f0	 ldmia       sp!, {r4 - r7, lr}
  00740	e12fff1e	 bx          lr
  00744		 |$LN6@NotifyHand|

; 733  :             break;
; 734  :         case UFN_SUSPEND:
; 735  :             g_devState = DS_ATTACHED;
; 736  :             break;
; 737  :         case UFN_RESUME:
; 738  :             g_devState = DS_ATTACHED;
; 739  :             break;
; 740  :         default:
; 741  :             ASSERT(!"Unexpected bus event!");

  00744	e59f25f0	 ldr         r2, [pc, #0x5F0]
  00748	e59f15e8	 ldr         r1, [pc, #0x5E8]
  0074c	e59f05e0	 ldr         r0, [pc, #0x5E0]
  00750	e3a03c02	 mov         r3, #2, 24
  00754	e38330e5	 orr         r3, r3, #0xE5
  00758	eb000000	 bl          NKDbgPrintfW
  0075c	e6000010	 __debugbreak_ce

; 762  :     }
; 763  : 
; 764  :     return FALSE;

  00760	e3a00000	 mov         r0, #0

; 765  : }

  00764	e28dd028	 add         sp, sp, #0x28
  00768	e8bd40f0	 ldmia       sp!, {r4 - r7, lr}
  0076c	e12fff1e	 bx          lr
  00770		 |$LN41@NotifyHand|

; 557  :     {
; 558  :     case UFN_MSG_SETUP_PACKET:
; 559  :         request = *(USB_DEVICE_REQUEST*)(void*)dwParam;
; 560  :         g_udr = request;

  00770	e59f7608	 ldr         r7, [pc, #0x608]
  00774	e5d53000	 ldrb        r3, [r5]

; 561  : 
; 562  :         if( !HandleSetupPacket( &g_udr, &EP0Request ) )

  00778	e28d1008	 add         r1, sp, #8
  0077c	e1a00007	 mov         r0, r7
  00780	e5c73000	 strb        r3, [r7]
  00784	e5d53001	 ldrb        r3, [r5, #1]
  00788	e5c73001	 strb        r3, [r7, #1]
  0078c	e5d53002	 ldrb        r3, [r5, #2]
  00790	e5c73002	 strb        r3, [r7, #2]
  00794	e5d53003	 ldrb        r3, [r5, #3]
  00798	e5c73003	 strb        r3, [r7, #3]
  0079c	e5d53004	 ldrb        r3, [r5, #4]
  007a0	e5c73004	 strb        r3, [r7, #4]
  007a4	e5d53005	 ldrb        r3, [r5, #5]
  007a8	e5c73005	 strb        r3, [r7, #5]
  007ac	e5d53006	 ldrb        r3, [r5, #6]
  007b0	e5c73006	 strb        r3, [r7, #6]
  007b4	e5d53007	 ldrb        r3, [r5, #7]
  007b8	e5c73007	 strb        r3, [r7, #7]
  007bc	eb000000	 bl          HandleSetupPacket
  007c0	e59f455c	 ldr         r4, [pc, #0x55C]
  007c4	e3500000	 cmp         r0, #0
  007c8	1a000003	 bne         |$LN46@NotifyHand|

; 563  :         {
; 564  :             OALMSG(OAL_ERROR, (L"ERROR PARSING SETUP PACKET\r\n"));

  007cc	e5943440	 ldr         r3, [r4, #0x440]
  007d0	e3130001	 tst         r3, #1
  007d4	159f05a0	 ldrne       r0, [pc, #0x5A0]
  007d8	1b000000	 blne        NKDbgPrintfW
  007dc		 |$LN46@NotifyHand|

; 565  :         }
; 566  : 
; 567  :         memcpy(&g_RndisKitlDev.EP0Request, &EP0Request, sizeof(EP0Request));

  007dc	e59f6574	 ldr         r6, [pc, #0x574]
  007e0	e3a02020	 mov         r2, #0x20
  007e4	e28d1008	 add         r1, sp, #8
  007e8	e1a00006	 mov         r0, r6
  007ec	eb000000	 bl          memcpy

; 568  :         g_RndisKitlDev.EP0Request.dwProcessed = 0;

  007f0	e3a03000	 mov         r3, #0
  007f4	e5863018	 str         r3, [r6, #0x18]

; 569  :         g_RndisKitlDev.EP0Request.fCompleted = FALSE;

  007f8	e3a03000	 mov         r3, #0
  007fc	e586301c	 str         r3, [r6, #0x1C]

; 570  : 
; 571  :         if (g_RndisKitlDev.EP0Request.eDir != EP0Setup) {

  00800	e596e000	 ldr         lr, [r6]
  00804	e35e0000	 cmp         lr, #0
  00808	0a00003b	 beq         |$LN39@NotifyHand|

; 572  :             g_EP0DataWrapper.pucData = g_RndisKitlDev.EP0Request.pucData;

  0080c	e5960004	 ldr         r0, [r6, #4]

; 573  :             g_EP0DataWrapper.dwDataSize = g_RndisKitlDev.EP0Request.dwActualSize;
; 574  :             
; 575  :             // g_EP2Transfer.dwCallerPermissions;
; 576  :             g_EP0Transfer.pvBuffer = g_EP0DataWrapper.pucData;

  00810	e59f5550	 ldr         r5, [pc, #0x550]
  00814	e596100c	 ldr         r1, [r6, #0xC]

; 577  :             // g_EP2Transfer.dwBufferPhysicalAddress; // not used
; 578  :             g_EP0Transfer.cbBuffer = g_EP0DataWrapper.dwDataSize;
; 579  :             g_EP0Transfer.cbTransferred = 0;

  00818	e3a03000	 mov         r3, #0
  0081c	e5850004	 str         r0, [r5, #4]
  00820	e585100c	 str         r1, [r5, #0xC]
  00824	e3a06c01	 mov         r6, #1, 24
  00828	e5853010	 str         r3, [r5, #0x10]

; 580  :             g_EP0Transfer.dwUsbError = UFN_NOT_COMPLETE_ERROR; // Possible values are in usbfntypes.h

  0082c	e3863003	 orr         r3, r6, #3
  00830	e5853014	 str         r3, [r5, #0x14]
  00834	e59f253c	 ldr         r2, [pc, #0x53C]

; 581  :             g_EP0Transfer.pvPddData = NULL;

  00838	e3a03000	 mov         r3, #0
  0083c	e5853018	 str         r3, [r5, #0x18]

; 582  :             g_EP0Transfer.pvPddTransferInfo = NULL;

  00840	e3a03000	 mov         r3, #0
  00844	e585301c	 str         r3, [r5, #0x1C]

; 583  : 
; 584  :             if (g_RndisKitlDev.EP0Request.eDir == EP0In) {
; 585  :                 OALMSG(OAL_ETHER&&OAL_FUNC, (L"Got SETUP IN packet\r\n"));

  00848	e5943440	 ldr         r3, [r4, #0x440]
  0084c	e5820008	 str         r0, [r2, #8]
  00850	e582100c	 str         r1, [r2, #0xC]
  00854	e35e0002	 cmp         lr, #2
  00858	1a000013	 bne         |$LN38@NotifyHand|
  0085c	e3130a02	 tst         r3, #2, 20
  00860	13130004	 tstne       r3, #4
  00864	159f0508	 ldrne       r0, [pc, #0x508]
  00868	1b000000	 blne        NKDbgPrintfW

; 586  :                 g_EP0Transfer.dwFlags = USB_REQUEST_DEVICE_TO_HOST;
; 587  :                 g_EP0TransferState = TS_SENDING_MESSAGE;
; 588  :                 g_pddInterface.pfnIssueTransfer( g_pddInterface.pvPddContext, 0, &g_EP0Transfer );

  0086c	e59f34cc	 ldr         r3, [pc, #0x4CC]
  00870	e59f44a0	 ldr         r4, [pc, #0x4A0]
  00874	e3a07080	 mov         r7, #0x80
  00878	e593000c	 ldr         r0, [r3, #0xC]
  0087c	e5933030	 ldr         r3, [r3, #0x30]
  00880	e3a06002	 mov         r6, #2
  00884	e1a02005	 mov         r2, r5
  00888	e3a01000	 mov         r1, #0
  0088c	e5857000	 str         r7, [r5]
  00890	e584600c	 str         r6, [r4, #0xC]
  00894	e1a0e00f	 mov         lr, pc
  00898	e12fff13	 bx          r3

; 762  :     }
; 763  : 
; 764  :     return FALSE;

  0089c	e3a00000	 mov         r0, #0

; 765  : }

  008a0	e28dd028	 add         sp, sp, #0x28
  008a4	e8bd40f0	 ldmia       sp!, {r4 - r7, lr}
  008a8	e12fff1e	 bx          lr
  008ac		 |$LN38@NotifyHand|

; 589  :             }
; 590  :             else
; 591  :             {
; 592  :                 OALMSG(OAL_ETHER&&OAL_FUNC, (L"Got SETUP OUT packet.\r\n"));

  008ac	e3130a02	 tst         r3, #2, 20
  008b0	13130004	 tstne       r3, #4
  008b4	159f04b4	 ldrne       r0, [pc, #0x4B4]
  008b8	1b000000	 blne        NKDbgPrintfW

; 593  :                 g_EP0Transfer.dwFlags = 0;
; 594  :                 g_EP0TransferState = TS_RECEIVING_MESSAGE;
; 595  :                 g_pddInterface.pfnIssueTransfer( g_pddInterface.pvPddContext, 0, &g_EP0Transfer );

  008bc	e59f347c	 ldr         r3, [pc, #0x47C]
  008c0	e59f4450	 ldr         r4, [pc, #0x450]
  008c4	e3a07000	 mov         r7, #0
  008c8	e593000c	 ldr         r0, [r3, #0xC]
  008cc	e5933030	 ldr         r3, [r3, #0x30]
  008d0	e3a06001	 mov         r6, #1
  008d4	e1a02005	 mov         r2, r5
  008d8	e3a01000	 mov         r1, #0
  008dc	e5857000	 str         r7, [r5]
  008e0	e584600c	 str         r6, [r4, #0xC]
  008e4	e1a0e00f	 mov         lr, pc
  008e8	e12fff13	 bx          r3

; 762  :     }
; 763  : 
; 764  :     return FALSE;

  008ec	e3a00000	 mov         r0, #0

; 765  : }

  008f0	e28dd028	 add         sp, sp, #0x28
  008f4	e8bd40f0	 ldmia       sp!, {r4 - r7, lr}
  008f8	e12fff1e	 bx          lr
  008fc		 |$LN39@NotifyHand|

; 596  :             }
; 597  :         }
; 598  :         else
; 599  :         {
; 600  :             OALMSG(OAL_ETHER&&OAL_FUNC, (
; 601  :                 L"Got SETUP <NO DATA: %x %x %x %x %x> packet.\r\n",
; 602  :                 g_udr.bmRequestType, g_udr.bRequest, g_udr.wValue, g_udr.wIndex,
; 603  :                  g_udr.wLength 
; 604  :             ));

  008fc	e5943440	 ldr         r3, [r4, #0x440]
  00900	e3130a02	 tst         r3, #2, 20
  00904	0a00000a	 beq         |$LN52@NotifyHand|
  00908	e3130004	 tst         r3, #4
  0090c	0a000008	 beq         |$LN52@NotifyHand|
  00910	e1d740b6	 ldrh        r4, [r7, #6]
  00914	e1d7e0b4	 ldrh        lr, [r7, #4]
  00918	e1d730b2	 ldrh        r3, [r7, #2]
  0091c	e5d72001	 ldrb        r2, [r7, #1]
  00920	e5d71000	 ldrb        r1, [r7]
  00924	e59f0440	 ldr         r0, [pc, #0x440]
  00928	e58d4004	 str         r4, [sp, #4]
  0092c	e58de000	 str         lr, [sp]
  00930	eb000000	 bl          NKDbgPrintfW
  00934		 |$LN52@NotifyHand|

; 605  : 
; 606  :             // Send the SETUP ACK packet
; 607  :             g_EP0TransferState = TS_IDLE;
; 608  :             g_pddInterface.pfnSendControlStatusHandshake( g_pddInterface.pvPddContext, 0 );

  00934	e59f3404	 ldr         r3, [pc, #0x404]
  00938	e59f23d8	 ldr         r2, [pc, #0x3D8]
  0093c	e3a04000	 mov         r4, #0
  00940	e593000c	 ldr         r0, [r3, #0xC]
  00944	e5933044	 ldr         r3, [r3, #0x44]
  00948	e3a01000	 mov         r1, #0
  0094c	e582400c	 str         r4, [r2, #0xC]
  00950	e1a0e00f	 mov         lr, pc
  00954	e12fff13	 bx          r3

; 762  :     }
; 763  : 
; 764  :     return FALSE;

  00958	e3a00000	 mov         r0, #0

; 765  : }

  0095c	e28dd028	 add         sp, sp, #0x28
  00960	e8bd40f0	 ldmia       sp!, {r4 - r7, lr}
  00964	e12fff1e	 bx          lr
  00968		 |$LN80@NotifyHand|

; 552  :     USB_DEVICE_REQUEST request;
; 553  :     EP0_REQUEST EP0Request;
; 554  :     STransfer *pTransfer;
; 555  : 
; 556  :     switch( dwMsg )

  00968	e3510006	 cmp         r1, #6
  0096c	0a0000d9	 beq         |$LN4@NotifyHand|
  00970	e3510064	 cmp         r1, #0x64
  00974	0a00000a	 beq         |$LN35@NotifyHand|
  00978		 |$LN1@NotifyHand|

; 756  :         }
; 757  :         // we should call pfnSetAddress here
; 758  :         break;
; 759  : 
; 760  :     default:
; 761  :         ASSERT(!"Unexpected Msg in NotifyHandler!");

  00978	e59f23bc	 ldr         r2, [pc, #0x3BC]
  0097c	e59f13b4	 ldr         r1, [pc, #0x3B4]
  00980	e59f03ac	 ldr         r0, [pc, #0x3AC]
  00984	e3a03c02	 mov         r3, #2, 24
  00988	e38330f9	 orr         r3, r3, #0xF9
  0098c	eb000000	 bl          NKDbgPrintfW
  00990	e6000010	 __debugbreak_ce

; 762  :     }
; 763  : 
; 764  :     return FALSE;

  00994	e3a00000	 mov         r0, #0

; 765  : }

  00998	e28dd028	 add         sp, sp, #0x28
  0099c	e8bd40f0	 ldmia       sp!, {r4 - r7, lr}
  009a0	e12fff1e	 bx          lr
  009a4		 |$LN35@NotifyHand|

; 609  :         }
; 610  :         break;
; 611  : 
; 612  :     case UFN_MSG_TRANSFER_COMPLETE: 
; 613  :         pTransfer = (STransfer *)dwParam;
; 614  :         if( pTransfer == &g_EP0Transfer )

  009a4	e59f33bc	 ldr         r3, [pc, #0x3BC]
  009a8	e1550003	 cmp         r5, r3
  009ac	1a00004d	 bne         |$LN34@NotifyHand|

; 615  :         {
; 616  :             switch( g_EP0TransferState )

  009b0	e59f4360	 ldr         r4, [pc, #0x360]
  009b4	e594300c	 ldr         r3, [r4, #0xC]
  009b8	e3530001	 cmp         r3, #1
  009bc	0a000025	 beq         |$LN31@NotifyHand|
  009c0	e3530002	 cmp         r3, #2
  009c4	1a0000cf	 bne         |$LN2@NotifyHand|

; 629  :                 break;
; 630  :             case TS_SENDING_MESSAGE:
; 631  :                 OALMSG(OAL_ETHER&&OAL_FUNC, (L"Done sending data.\r\n"));

  009c8	e59f5354	 ldr         r5, [pc, #0x354]
  009cc	e5953440	 ldr         r3, [r5, #0x440]
  009d0	e3130a02	 tst         r3, #2, 20
  009d4	13130004	 tstne       r3, #4
  009d8	159f0384	 ldrne       r0, [pc, #0x384]
  009dc	1b000000	 blne        NKDbgPrintfW

; 632  : 
; 633  :                 g_EP0TransferState = TS_IDLE;
; 634  :                 g_pddInterface.pfnSendControlStatusHandshake( g_pddInterface.pvPddContext, 0 );

  009e0	e59f3358	 ldr         r3, [pc, #0x358]
  009e4	e3a02000	 mov         r2, #0
  009e8	e3a01000	 mov         r1, #0
  009ec	e593000c	 ldr         r0, [r3, #0xC]
  009f0	e5933044	 ldr         r3, [r3, #0x44]
  009f4	e584200c	 str         r2, [r4, #0xC]
  009f8	e1a0e00f	 mov         lr, pc
  009fc	e12fff13	 bx          r3

; 635  : 
; 636  :                 if (g_RndisKitlDev.EP0Request.pfnNotification) {

  00a00	e59f4350	 ldr         r4, [pc, #0x350]
  00a04	e5943010	 ldr         r3, [r4, #0x10]
  00a08	e3530000	 cmp         r3, #0
  00a0c	0a0000bd	 beq         |$LN2@NotifyHand|

; 637  :                     OALMSG(OAL_ETHER&&OAL_FUNC, (L"SendMessage request completed!\r\n"));

  00a10	e5953440	 ldr         r3, [r5, #0x440]
  00a14	e3130a02	 tst         r3, #2, 20
  00a18	13130004	 tstne       r3, #4
  00a1c	159f033c	 ldrne       r0, [pc, #0x33C]
  00a20	1b000000	 blne        NKDbgPrintfW

; 638  :                     g_RndisKitlDev.EP0Request.pfnNotification(&g_RndisKitlDev.EP0Request, g_RndisKitlDev.EP0Request.pvUser);

  00a24	e5941014	 ldr         r1, [r4, #0x14]
  00a28	e5943010	 ldr         r3, [r4, #0x10]
  00a2c	e1a00004	 mov         r0, r4
  00a30	e1a0e00f	 mov         lr, pc
  00a34	e12fff13	 bx          r3

; 639  : 
; 640  :                     //memset(&g_RndisKitlDev.EP0Request, 0, sizeof (g_RndisKitlDev.EP0Request));
; 641  :                     g_RndisKitlDev.EP0Request.pfnNotification = NULL;

  00a38	e3a03000	 mov         r3, #0
  00a3c	e5843010	 str         r3, [r4, #0x10]

; 642  :                     g_RndisKitlDev.EP0Request.pvUser = NULL;

  00a40	e3a03000	 mov         r3, #0
  00a44	e5843014	 str         r3, [r4, #0x14]

; 762  :     }
; 763  : 
; 764  :     return FALSE;

  00a48	e3a00000	 mov         r0, #0

; 765  : }

  00a4c	e28dd028	 add         sp, sp, #0x28
  00a50	e8bd40f0	 ldmia       sp!, {r4 - r7, lr}
  00a54	e12fff1e	 bx          lr
  00a58		 |$LN31@NotifyHand|

; 617  :             {
; 618  :             case TS_RECEIVING_MESSAGE:
; 619  :                 g_EP0TransferState = TS_IDLE;
; 620  :                 OALMSG(OAL_ETHER&&OAL_FUNC, (L"Done receiving data.\r\n"));

  00a58	e59f52c4	 ldr         r5, [pc, #0x2C4]
  00a5c	e3a03000	 mov         r3, #0
  00a60	e584300c	 str         r3, [r4, #0xC]
  00a64	e5953440	 ldr         r3, [r5, #0x440]
  00a68	e3130a02	 tst         r3, #2, 20
  00a6c	13130004	 tstne       r3, #4
  00a70	159f02e4	 ldrne       r0, [pc, #0x2E4]
  00a74	1b000000	 blne        NKDbgPrintfW

; 621  : 
; 622  :                 g_pddInterface.pfnSendControlStatusHandshake( g_pddInterface.pvPddContext, 0 );

  00a78	e59f32c0	 ldr         r3, [pc, #0x2C0]
  00a7c	e3a01000	 mov         r1, #0
  00a80	e593000c	 ldr         r0, [r3, #0xC]
  00a84	e5933044	 ldr         r3, [r3, #0x44]
  00a88	e1a0e00f	 mov         lr, pc
  00a8c	e12fff13	 bx          r3

; 623  : 
; 624  :                 if (g_RndisKitlDev.EP0Request.pfnNotification) {

  00a90	e59f42c0	 ldr         r4, [pc, #0x2C0]
  00a94	e5943010	 ldr         r3, [r4, #0x10]
  00a98	e3530000	 cmp         r3, #0
  00a9c	0a000009	 beq         |$LN30@NotifyHand|

; 625  :                     OALMSG(OAL_ETHER&&OAL_FUNC, (L"Received a message!\r\n"));

  00aa0	e5953440	 ldr         r3, [r5, #0x440]
  00aa4	e3130a02	 tst         r3, #2, 20
  00aa8	13130004	 tstne       r3, #4
  00aac	159f02a0	 ldrne       r0, [pc, #0x2A0]
  00ab0	1b000000	 blne        NKDbgPrintfW

; 626  :                     g_RndisKitlDev.EP0Request.pfnNotification(&g_RndisKitlDev.EP0Request, g_RndisKitlDev.EP0Request.pvUser);

  00ab4	e5941014	 ldr         r1, [r4, #0x14]
  00ab8	e5943010	 ldr         r3, [r4, #0x10]
  00abc	e1a00004	 mov         r0, r4
  00ac0	e1a0e00f	 mov         lr, pc
  00ac4	e12fff13	 bx          r3
  00ac8		 |$LN30@NotifyHand|

; 627  :                 }
; 628  :                 memset(&g_RndisKitlDev.EP0Request, 0, sizeof (g_RndisKitlDev.EP0Request));

  00ac8	e3a02020	 mov         r2, #0x20
  00acc	e3a01000	 mov         r1, #0
  00ad0	e1a00004	 mov         r0, r4
  00ad4	eb000000	 bl          memset

; 762  :     }
; 763  : 
; 764  :     return FALSE;

  00ad8	e3a00000	 mov         r0, #0

; 765  : }

  00adc	e28dd028	 add         sp, sp, #0x28
  00ae0	e8bd40f0	 ldmia       sp!, {r4 - r7, lr}
  00ae4	e12fff1e	 bx          lr
  00ae8		 |$LN34@NotifyHand|

; 643  :                 }
; 644  :                 break;
; 645  :             }
; 646  :         }
; 647  :         else if( pTransfer == &g_EP1Transfer )

  00ae8	e59f3260	 ldr         r3, [pc, #0x260]
  00aec	e1550003	 cmp         r5, r3
  00af0	1a000015	 bne         |$LN26@NotifyHand|

; 648  :         {
; 649  :             // BULK OUT data received on EP1
; 650  :             OALMSG(OAL_ETHER&&OAL_FUNC, (
; 651  :                 L"Received a packet [%d bytes]!\r\n", pTransfer->cbTransferred
; 652  :             ));

  00af4	e59f3228	 ldr         r3, [pc, #0x228]
  00af8	e5933440	 ldr         r3, [r3, #0x440]
  00afc	e3130a02	 tst         r3, #2, 20
  00b00	0a000004	 beq         |$LN62@NotifyHand|
  00b04	e3130004	 tst         r3, #4
  00b08	0a000002	 beq         |$LN62@NotifyHand|
  00b0c	e5951010	 ldr         r1, [r5, #0x10]
  00b10	e59f0234	 ldr         r0, [pc, #0x234]
  00b14	eb000000	 bl          NKDbgPrintfW
  00b18		 |$LN62@NotifyHand|

; 653  :             // notify the MDD
; 654  :             g_pEP1DataWrapper->dwDataSize = pTransfer->cbTransferred;

  00b18	e59f41f8	 ldr         r4, [pc, #0x1F8]
  00b1c	e5952010	 ldr         r2, [r5, #0x10]
  00b20	e5943004	 ldr         r3, [r4, #4]
  00b24	e583200c	 str         r2, [r3, #0xC]

; 655  :             MddIndicateRndisPacket(g_pEP1DataWrapper);

  00b28	e5940004	 ldr         r0, [r4, #4]
  00b2c	eb000000	 bl          MddIndicateRndisPacket

; 656  :             g_pEP1DataWrapper = NULL;

  00b30	e3a03000	 mov         r3, #0
  00b34	e5843004	 str         r3, [r4, #4]

; 657  :             // setup another transfer
; 658  :             SetupEP1Transfer();

  00b38	eb000000	 bl          SetupEP1Transfer

; 762  :     }
; 763  : 
; 764  :     return FALSE;

  00b3c	e3a00000	 mov         r0, #0

; 765  : }

  00b40	e28dd028	 add         sp, sp, #0x28
  00b44	e8bd40f0	 ldmia       sp!, {r4 - r7, lr}
  00b48	e12fff1e	 bx          lr
  00b4c		 |$LN26@NotifyHand|

; 659  :         }
; 660  :         else if( pTransfer == &g_EP2Transfer )

  00b4c	e59f41f4	 ldr         r4, [pc, #0x1F4]
  00b50	e1550004	 cmp         r5, r4
  00b54	1a000048	 bne         |$LN24@NotifyHand|

; 661  :         {
; 662  :             if( g_EP2TransferState == TS_SENDING_PACKET )

  00b58	e59f51b8	 ldr         r5, [pc, #0x1B8]
  00b5c	e5953014	 ldr         r3, [r5, #0x14]
  00b60	e3530004	 cmp         r3, #4
  00b64	1a000022	 bne         |$LN23@NotifyHand|

; 663  :             {
; 664  :                 if( ( g_EP2Transfer.cbTransferred % EPMaxSize ) == 0 )

  00b68	e5943010	 ldr         r3, [r4, #0x10]
  00b6c	e313003f	 tst         r3, #0x3F
  00b70	1a000030	 bne         |$LN68@NotifyHand|

; 665  :                 {
; 666  :                     // g_EP2Transfer.dwCallerPermissions;
; 667  :                     g_EP2Transfer.dwFlags = USB_REQUEST_DEVICE_TO_HOST;
; 668  : #ifdef USE_1BYTE_TERMINATING_PACKETS
; 669  :                     g_EP2Transfer.pvBuffer = &g_ucScratch;
; 670  :                     g_EP2Transfer.cbBuffer = sizeof(UCHAR);
; 671  : #else
; 672  :                     g_EP2Transfer.pvBuffer = NULL;
; 673  :                     g_EP2Transfer.cbBuffer = 0;
; 674  : #endif
; 675  :                     // g_EP2Transfer.dwBufferPhysicalAddress; // not used
; 676  :                     g_EP2Transfer.cbTransferred = 0;
; 677  :                     g_EP2Transfer.dwUsbError = UFN_NOT_COMPLETE_ERROR; // Possible values are in usbfntypes.h
; 678  :                     g_EP2Transfer.pvPddData = NULL;
; 679  :                     g_EP2Transfer.pvPddTransferInfo = NULL;
; 680  : 
; 681  : 
; 682  :                     OALMSG(OAL_ETHER&&OAL_FUNC, (
; 683  :                         L"Sending NULL terminator for the packet...\r\n"
; 684  :                     ));

  00b74	e59f31a8	 ldr         r3, [pc, #0x1A8]
  00b78	e3a02080	 mov         r2, #0x80
  00b7c	e8840024	 stmia       r4, {r2, r5}
  00b80	e5932440	 ldr         r2, [r3, #0x440]
  00b84	e3a01001	 mov         r1, #1
  00b88	e3a00c01	 mov         r0, #1, 24
  00b8c	e584100c	 str         r1, [r4, #0xC]
  00b90	e3a03000	 mov         r3, #0
  00b94	e5843010	 str         r3, [r4, #0x10]
  00b98	e3803003	 orr         r3, r0, #3
  00b9c	e3120a02	 tst         r2, #2, 20
  00ba0	e5843014	 str         r3, [r4, #0x14]
  00ba4	e3a03000	 mov         r3, #0
  00ba8	13120004	 tstne       r2, #4
  00bac	159f0190	 ldrne       r0, [pc, #0x190]
  00bb0	e5843018	 str         r3, [r4, #0x18]
  00bb4	e3a03000	 mov         r3, #0
  00bb8	e584301c	 str         r3, [r4, #0x1C]
  00bbc	1b000000	 blne        NKDbgPrintfW

; 685  :                     g_EP2TransferState = TS_SENDING_PACKET_TERMINATOR;
; 686  :                     g_pddInterface.pfnIssueTransfer( g_pddInterface.pvPddContext, 2, &g_EP2Transfer );

  00bc0	e59f3178	 ldr         r3, [pc, #0x178]
  00bc4	e3a06005	 mov         r6, #5
  00bc8	e1a02004	 mov         r2, r4
  00bcc	e593000c	 ldr         r0, [r3, #0xC]
  00bd0	e5933030	 ldr         r3, [r3, #0x30]
  00bd4	e3a01002	 mov         r1, #2
  00bd8	e5856014	 str         r6, [r5, #0x14]
  00bdc	e1a0e00f	 mov         lr, pc
  00be0	e12fff13	 bx          r3

; 762  :     }
; 763  : 
; 764  :     return FALSE;

  00be4	e3a00000	 mov         r0, #0

; 765  : }

  00be8	e28dd028	 add         sp, sp, #0x28
  00bec	e8bd40f0	 ldmia       sp!, {r4 - r7, lr}
  00bf0	e12fff1e	 bx          lr
  00bf4		 |$LN23@NotifyHand|

; 687  :                 }
; 688  :                 else
; 689  :                 {
; 690  :                     g_EP2TransferState = TS_IDLE;
; 691  :                     TxComplete();
; 692  :                 }
; 693  :             }
; 694  :             else if( g_EP2TransferState == TS_SENDING_PACKET_TERMINATOR )

  00bf4	e3530005	 cmp         r3, #5
  00bf8	1a000015	 bne         |$LN19@NotifyHand|

; 695  :             {
; 696  :                 ASSERT( g_EP2Transfer.dwUsbError == UFN_NO_ERROR );

  00bfc	e5943014	 ldr         r3, [r4, #0x14]
  00c00	e3530000	 cmp         r3, #0
  00c04	0a000005	 beq         |$LN67@NotifyHand|
  00c08	e59f212c	 ldr         r2, [pc, #0x12C]
  00c0c	e59f1124	 ldr         r1, [pc, #0x124]
  00c10	e59f011c	 ldr         r0, [pc, #0x11C]
  00c14	e3a03fae	 mov         r3, #0xAE, 30
  00c18	eb000000	 bl          NKDbgPrintfW
  00c1c	e6000010	 __debugbreak_ce
  00c20		 |$LN67@NotifyHand|

; 697  :                 OALMSG(OAL_ETHER&&OAL_FUNC, (L"SendPacket NULL terminator sent!\r\n"));

  00c20	e59f30fc	 ldr         r3, [pc, #0xFC]
  00c24	e5933440	 ldr         r3, [r3, #0x440]
  00c28	e3130a02	 tst         r3, #2, 20
  00c2c	13130004	 tstne       r3, #4
  00c30	159f00f8	 ldrne       r0, [pc, #0xF8]
  00c34	1b000000	 blne        NKDbgPrintfW
  00c38		 |$LN68@NotifyHand|

; 698  :                 g_EP2TransferState = TS_IDLE;

  00c38	e3a03000	 mov         r3, #0
  00c3c	e5853014	 str         r3, [r5, #0x14]

; 699  : 
; 700  :                 TxComplete();

  00c40	eb000000	 bl          TxComplete

; 762  :     }
; 763  : 
; 764  :     return FALSE;

  00c44	e3a00000	 mov         r0, #0

; 765  : }

  00c48	e28dd028	 add         sp, sp, #0x28
  00c4c	e8bd40f0	 ldmia       sp!, {r4 - r7, lr}
  00c50	e12fff1e	 bx          lr
  00c54		 |$LN19@NotifyHand|

; 701  :             }
; 702  :             else
; 703  :             {
; 704  :                 OALMSG(OAL_ERROR, (L"Unexpected EP2 transfer state!"));

  00c54	e59f30c8	 ldr         r3, [pc, #0xC8]
  00c58	e5933440	 ldr         r3, [r3, #0x440]
  00c5c	e3130001	 tst         r3, #1
  00c60	0a000028	 beq         |$LN2@NotifyHand|
  00c64	e59f00c0	 ldr         r0, [pc, #0xC0]
  00c68	eb000000	 bl          NKDbgPrintfW

; 762  :     }
; 763  : 
; 764  :     return FALSE;

  00c6c	e3a00000	 mov         r0, #0

; 765  : }

  00c70	e28dd028	 add         sp, sp, #0x28
  00c74	e8bd40f0	 ldmia       sp!, {r4 - r7, lr}
  00c78	e12fff1e	 bx          lr
  00c7c		 |$LN24@NotifyHand|

; 705  :             }
; 706  :         }
; 707  :         else if( pTransfer == &g_EP3Transfer )

  00c7c	e59f30a4	 ldr         r3, [pc, #0xA4]
  00c80	e1550003	 cmp         r5, r3

; 708  :         {
; 709  :             OALMSG(OAL_ETHER&&OAL_FUNC, (
; 710  :                 L"EP3 Interrupt successfully sent!\r\n"
; 711  :             ));

  00c84	e59f3098	 ldr         r3, [pc, #0x98]
  00c88	e5933440	 ldr         r3, [r3, #0x440]
  00c8c	1a000009	 bne         |$LN16@NotifyHand|
  00c90	e3130a02	 tst         r3, #2, 20
  00c94	0a00001b	 beq         |$LN2@NotifyHand|
  00c98	e3130004	 tst         r3, #4
  00c9c	0a000019	 beq         |$LN2@NotifyHand|
  00ca0	e59f0078	 ldr         r0, [pc, #0x78]
  00ca4	eb000000	 bl          NKDbgPrintfW

; 762  :     }
; 763  : 
; 764  :     return FALSE;

  00ca8	e3a00000	 mov         r0, #0

; 765  : }

  00cac	e28dd028	 add         sp, sp, #0x28
  00cb0	e8bd40f0	 ldmia       sp!, {r4 - r7, lr}
  00cb4	e12fff1e	 bx          lr
  00cb8		 |$LN16@NotifyHand|

; 712  :             // interrupt succesfully sent
; 713  :         }
; 714  :         else
; 715  :         {
; 716  :             OALMSG(OAL_ERROR, (L"INVALID TRANSFER!\r\n"));

  00cb8	e3130001	 tst         r3, #1
  00cbc	0a000011	 beq         |$LN2@NotifyHand|
  00cc0	e59f0054	 ldr         r0, [pc, #0x54]
  00cc4	eb000000	 bl          NKDbgPrintfW

; 762  :     }
; 763  : 
; 764  :     return FALSE;

  00cc8	e3a00000	 mov         r0, #0

; 765  : }

  00ccc	e28dd028	 add         sp, sp, #0x28
  00cd0	e8bd40f0	 ldmia       sp!, {r4 - r7, lr}
  00cd4	e12fff1e	 bx          lr
  00cd8		 |$LN4@NotifyHand|

; 742  :         }
; 743  :         break;
; 744  : 
; 745  :     case UFN_MSG_BUS_SPEED:
; 746  :         break;
; 747  : 
; 748  :     case UFN_MSG_SET_ADDRESS:
; 749  :         if( dwParam )

  00cd8	e3550000	 cmp         r5, #0
  00cdc	0a000006	 beq         |$LN3@NotifyHand|

; 750  :         {
; 751  :             g_devState = DS_ADDRESSED;
; 752  :         }
; 753  :         else
; 754  :         {
; 755  :             g_devState = DS_DEFAULT;

  00ce0	e59f3030	 ldr         r3, [pc, #0x30]
  00ce4	e3a02004	 mov         r2, #4

; 762  :     }
; 763  : 
; 764  :     return FALSE;

  00ce8	e3a00000	 mov         r0, #0
  00cec	e5832008	 str         r2, [r3, #8]

; 765  : }

  00cf0	e28dd028	 add         sp, sp, #0x28
  00cf4	e8bd40f0	 ldmia       sp!, {r4 - r7, lr}
  00cf8	e12fff1e	 bx          lr
  00cfc		 |$LN3@NotifyHand|

; 750  :         {
; 751  :             g_devState = DS_ADDRESSED;
; 752  :         }
; 753  :         else
; 754  :         {
; 755  :             g_devState = DS_DEFAULT;

  00cfc	e59f3014	 ldr         r3, [pc, #0x14]
  00d00	e3a02003	 mov         r2, #3
  00d04	e5832008	 str         r2, [r3, #8]
  00d08		 |$LN2@NotifyHand|

; 762  :     }
; 763  : 
; 764  :     return FALSE;

  00d08	e3a00000	 mov         r0, #0

; 765  : }

  00d0c	e28dd028	 add         sp, sp, #0x28
  00d10	e8bd40f0	 ldmia       sp!, {r4 - r7, lr}
  00d14	e12fff1e	 bx          lr
  00d18		 |$LN93@NotifyHand|
  00d18		 |$LN94@NotifyHand|
  00d18	00000000	 DCD         |g_ucScratch|
  00d1c		 |$LN95@NotifyHand|
  00d1c	00000000	 DCD         |??_C@_1CI@KCINNAAK@?$AAI?$AAN?$AAV?$AAA?$AAL?$AAI?$AAD?$AA?5?$AAT?$AAR?$AAA?$AAN?$AAS?$AAF?$AAE?$AAR?$AA?$CB?$AA?$AN?$AA?6?$AA?$AA@|
  00d20		 |$LN96@NotifyHand|
  00d20	00000000	 DCD         |??_C@_1EG@NBFJCBDP@?$AAE?$AAP?$AA3?$AA?5?$AAI?$AAn?$AAt?$AAe?$AAr?$AAr?$AAu?$AAp?$AAt?$AA?5?$AAs?$AAu?$AAc?$AAc?$AAe?$AAs?$AAs?$AAf?$AAu?$AAl?$AAl?$AAy?$AA?5?$AAs?$AAe?$AAn?$AAt?$AA?$CB@|
  00d24		 |$LN97@NotifyHand|
  00d24	00000000	 DCD         |dpCurSettings|
  00d28		 |$LN98@NotifyHand|
  00d28	00000000	 DCD         |g_EP3Transfer|
  00d2c		 |$LN99@NotifyHand|
  00d2c	00000000	 DCD         |??_C@_1DO@PFNPIHHC@?$AAU?$AAn?$AAe?$AAx?$AAp?$AAe?$AAc?$AAt?$AAe?$AAd?$AA?5?$AAE?$AAP?$AA2?$AA?5?$AAt?$AAr?$AAa?$AAn?$AAs?$AAf?$AAe?$AAr?$AA?5?$AAs?$AAt?$AAa?$AAt?$AAe?$AA?$CB?$AA?$AA@|
  00d30		 |$LN100@NotifyHand|
  00d30	00000000	 DCD         |??_C@_1EG@NEPEKMDB@?$AAS?$AAe?$AAn?$AAd?$AAP?$AAa?$AAc?$AAk?$AAe?$AAt?$AA?5?$AAN?$AAU?$AAL?$AAL?$AA?5?$AAt?$AAe?$AAr?$AAm?$AAi?$AAn?$AAa?$AAt?$AAo?$AAr?$AA?5?$AAs?$AAe?$AAn?$AAt?$AA?$CB@|
  00d34		 |$LN101@NotifyHand|
  00d34	00000000	 DCD         |??_C@_1FK@FNONLNGN@?$AA?$CF?$AAs?$AA?3?$AA?5?$AAD?$AAE?$AAB?$AAU?$AAG?$AAC?$AAH?$AAK?$AA?5?$AAf?$AAa?$AAi?$AAl?$AAe?$AAd?$AA?5?$AAi?$AAn?$AA?5?$AAf?$AAi?$AAl?$AAe?$AA?5?$AA?$CF?$AAs?$AA?5?$AAa@|
  00d38		 |$LN102@NotifyHand|
  00d38	00000000	 DCD         |??_C@_1BA@LEPJIIOK@?$AAU?$AAn?$AAk?$AAn?$AAo?$AAw?$AAn?$AA?$AA@|
  00d3c		 |$LN103@NotifyHand|
  00d3c	00000000	 DCD         |??_C@_1JM@NODNBDHJ@?$AAC?$AA?3?$AA?2?$AAW?$AAI?$AAN?$AAC?$AAE?$AA6?$AA0?$AA0?$AA?2?$AAP?$AAL?$AAA?$AAT?$AAF?$AAO?$AAR?$AAM?$AA?2?$AAC?$AAO?$AAM?$AAM?$AAO?$AAN?$AA?2?$AAS?$AAR?$AAC?$AA?2@|
  00d40		 |$LN104@NotifyHand|
  00d40	00000000	 DCD         |g_pddInterface|
  00d44		 |$LN105@NotifyHand|
  00d44	00000000	 DCD         |??_C@_1FI@KOMJGPLF@?$AAS?$AAe?$AAn?$AAd?$AAi?$AAn?$AAg?$AA?5?$AAN?$AAU?$AAL?$AAL?$AA?5?$AAt?$AAe?$AAr?$AAm?$AAi?$AAn?$AAa?$AAt?$AAo?$AAr?$AA?5?$AAf?$AAo?$AAr?$AA?5?$AAt?$AAh?$AAe?$AA?5@|
  00d48		 |$LN106@NotifyHand|
  00d48	00000000	 DCD         |g_EP2Transfer|
  00d4c		 |$LN107@NotifyHand|
  00d4c	00000000	 DCD         |??_C@_1EA@ODINLGJJ@?$AAR?$AAe?$AAc?$AAe?$AAi?$AAv?$AAe?$AAd?$AA?5?$AAa?$AA?5?$AAp?$AAa?$AAc?$AAk?$AAe?$AAt?$AA?5?$AA?$FL?$AA?$CF?$AAd?$AA?5?$AAb?$AAy?$AAt?$AAe?$AAs?$AA?$FN?$AA?$CB?$AA?$AN?$AA?6?$AA?$AA@|
  00d50		 |$LN108@NotifyHand|
  00d50	00000000	 DCD         |g_EP1Transfer|
  00d54		 |$LN109@NotifyHand|
  00d54	00000000	 DCD         |??_C@_1CM@FNJKEBIB@?$AAR?$AAe?$AAc?$AAe?$AAi?$AAv?$AAe?$AAd?$AA?5?$AAa?$AA?5?$AAm?$AAe?$AAs?$AAs?$AAa?$AAg?$AAe?$AA?$CB?$AA?$AN?$AA?6?$AA?$AA@|
  00d58		 |$LN110@NotifyHand|
  00d58	00000000	 DCD         |g_RndisKitlDev|
  00d5c		 |$LN111@NotifyHand|
  00d5c	00000000	 DCD         |??_C@_1CO@MJKBFNNP@?$AAD?$AAo?$AAn?$AAe?$AA?5?$AAr?$AAe?$AAc?$AAe?$AAi?$AAv?$AAi?$AAn?$AAg?$AA?5?$AAd?$AAa?$AAt?$AAa?$AA?4?$AA?$AN?$AA?6?$AA?$AA@|
  00d60		 |$LN112@NotifyHand|
  00d60	00000000	 DCD         |??_C@_1EC@LJDGALBJ@?$AAS?$AAe?$AAn?$AAd?$AAM?$AAe?$AAs?$AAs?$AAa?$AAg?$AAe?$AA?5?$AAr?$AAe?$AAq?$AAu?$AAe?$AAs?$AAt?$AA?5?$AAc?$AAo?$AAm?$AAp?$AAl?$AAe?$AAt?$AAe?$AAd?$AA?$CB?$AA?$AN?$AA?6@|
  00d64		 |$LN113@NotifyHand|
  00d64	00000000	 DCD         |??_C@_1CK@FEGGBLDE@?$AAD?$AAo?$AAn?$AAe?$AA?5?$AAs?$AAe?$AAn?$AAd?$AAi?$AAn?$AAg?$AA?5?$AAd?$AAa?$AAt?$AAa?$AA?4?$AA?$AN?$AA?6?$AA?$AA@|
  00d68		 |$LN114@NotifyHand|
  00d68	00000000	 DCD         |g_EP0Transfer|
  00d6c		 |$LN115@NotifyHand|
  00d6c	00000000	 DCD         |??_C@_1FM@FDJOONCJ@?$AAG?$AAo?$AAt?$AA?5?$AAS?$AAE?$AAT?$AAU?$AAP?$AA?5?$AA?$DM?$AAN?$AAO?$AA?5?$AAD?$AAA?$AAT?$AAA?$AA?3?$AA?5?$AA?$CF?$AAx?$AA?5?$AA?$CF?$AAx?$AA?5?$AA?$CF?$AAx?$AA?5?$AA?$CF?$AAx?$AA?5@|
  00d70		 |$LN116@NotifyHand|
  00d70	00000000	 DCD         |??_C@_1DA@MJLPENBD@?$AAG?$AAo?$AAt?$AA?5?$AAS?$AAE?$AAT?$AAU?$AAP?$AA?5?$AAO?$AAU?$AAT?$AA?5?$AAp?$AAa?$AAc?$AAk?$AAe?$AAt?$AA?4?$AA?$AN?$AA?6?$AA?$AA@|
  00d74		 |$LN117@NotifyHand|
  00d74	00000000	 DCD         |??_C@_1CM@NHNGDKFM@?$AAG?$AAo?$AAt?$AA?5?$AAS?$AAE?$AAT?$AAU?$AAP?$AA?5?$AAI?$AAN?$AA?5?$AAp?$AAa?$AAc?$AAk?$AAe?$AAt?$AA?$AN?$AA?6?$AA?$AA@|
  00d78		 |$LN118@NotifyHand|
  00d78	00000000	 DCD         |g_EP0DataWrapper|
  00d7c		 |$LN119@NotifyHand|
  00d7c	00000000	 DCD         |??_C@_1DK@CJOHLCDF@?$AAE?$AAR?$AAR?$AAO?$AAR?$AA?5?$AAP?$AAA?$AAR?$AAS?$AAI?$AAN?$AAG?$AA?5?$AAS?$AAE?$AAT?$AAU?$AAP?$AA?5?$AAP?$AAA?$AAC?$AAK?$AAE?$AAT?$AA?$AN?$AA?6?$AA?$AA@|
  00d80		 |$LN120@NotifyHand|
  00d80	00000000	 DCD         |g_udr|
  00d84		 |$M47689|

			 ENDP  ; |NotifyHandler|

	EXPORT	|RegisterUSBDevice|

  00041			 AREA	 |.bss|, NOINIT
|?deviceDescriptor@?1??RegisterUSBDevice@@9@9| % 0x12	; `RegisterUSBDevice'::`2'::deviceDescriptor
|?Interface@?1??RegisterUSBDevice@@9@9| % 0x1c		; `RegisterUSBDevice'::`2'::Interface
|?rgEndPoints@?1??RegisterUSBDevice@@9@9| % 0x3c	; `RegisterUSBDevice'::`2'::rgEndPoints
|?deviceConfiguration@?1??RegisterUSBDevice@@9@9| % 0x1c ; `RegisterUSBDevice'::`2'::deviceConfiguration
|?deviceDescriptor@?1??RegisterUSBDevice@@9@9| % 0x12	; `RegisterUSBDevice'::`2'::deviceDescriptor

  00040			 AREA	 |.pdata|, PDATA
|$T47727| DCD	|$LN5@RegisterUS|
	DCD	0x40003302
; Function compile flags: /Ogtp

  00d84			 AREA	 |.text|, CODE, ARM

  00d84		 |RegisterUSBDevice| PROC

; 769  : {

  00d84		 |$LN5@RegisterUS|
  00d84	e92d47f0	 stmdb       sp!, {r4 - r10, lr}
  00d88	e24dd014	 sub         sp, sp, #0x14
  00d8c		 |$M47724|

; 770  :     static USB_DEVICE_DESCRIPTOR deviceDescriptor;
; 771  :     static UFN_ENDPOINT rgEndPoints[3];
; 772  :     static UFN_INTERFACE Interface;
; 773  :     static UFN_CONFIGURATION deviceConfiguration;
; 774  : 
; 775  :     deviceConfiguration.pInterfaces = &Interface;

  00d8c	e59f60b8	 ldr         r6, [pc, #0xB8]

; 776  :     deviceConfiguration.Descriptor.bNumInterfaces = 1;
; 777  :     Interface.pEndpoints = rgEndPoints;
; 778  :     Interface.Descriptor.bNumEndpoints = 3;
; 779  :     rgEndPoints[0].Descriptor.bEndpointAddress = 0x01; // EP1, OUT (BULK)

  00d90	e3a03001	 mov         r3, #1

; 780  :     rgEndPoints[0].Descriptor.wMaxPacketSize = EPMaxSize;

  00d94	e3a02040	 mov         r2, #0x40
  00d98	e5c63052	 strb        r3, [r6, #0x52]
  00d9c	e1c625b4	 strh        r2, [r6, #0x54]

; 781  :     rgEndPoints[0].Descriptor.bmAttributes = 0;

  00da0	e3a02000	 mov         r2, #0

; 782  :     rgEndPoints[1].Descriptor.bEndpointAddress = 0x82; // EP2, IN (BULK)
; 783  :     rgEndPoints[1].Descriptor.wMaxPacketSize = EPMaxSize;
; 784  :     rgEndPoints[1].Descriptor.bmAttributes = 0;
; 785  :     rgEndPoints[2].Descriptor.bEndpointAddress = 0x83; // EP3, IN (INT)
; 786  :     rgEndPoints[2].Descriptor.wMaxPacketSize = EPMaxSize;
; 787  :     rgEndPoints[2].Descriptor.bmAttributes = 0;
; 788  :     deviceDescriptor.bMaxPacketSize0 = EP0MaxSize;
; 789  : 
; 790  : 
; 791  :     // We assume knowledge of the RegisterDevice function implementation and pass very simplified arguments
; 792  :     g_pddInterface.pfnRegisterDevice( g_pddInterface.pvPddContext, 
; 793  :                                         NULL, NULL, NULL,
; 794  :                                         &deviceDescriptor, &deviceConfiguration, NULL,
; 795  :                                         NULL, 0 );

  00da4	e5c62053	 strb        r2, [r6, #0x53]
  00da8	e3a02082	 mov         r2, #0x82
  00dac	e5c62066	 strb        r2, [r6, #0x66]
  00db0	e3a02040	 mov         r2, #0x40
  00db4	e1c626b8	 strh        r2, [r6, #0x68]
  00db8	e3a02000	 mov         r2, #0
  00dbc	e59f3084	 ldr         r3, [pc, #0x84]
  00dc0	e3a01083	 mov         r1, #0x83
  00dc4	e5c62067	 strb        r2, [r6, #0x67]
  00dc8	e5c6107a	 strb        r1, [r6, #0x7A]
  00dcc	e3a01040	 mov         r1, #0x40
  00dd0	e593000c	 ldr         r0, [r3, #0xC]
  00dd4	e5935020	 ldr         r5, [r3, #0x20]
  00dd8	e1c617bc	 strh        r1, [r6, #0x7C]
  00ddc	e3a01000	 mov         r1, #0
  00de0	e2863030	 add         r3, r6, #0x30
  00de4	e286204c	 add         r2, r6, #0x4C
  00de8	e3a09001	 mov         r9, #1
  00dec	e3a0a003	 mov         r10, #3
  00df0	e3a08040	 mov         r8, #0x40
  00df4	e2864014	 add         r4, r6, #0x14
  00df8	e3a07000	 mov         r7, #0
  00dfc	e5c6107b	 strb        r1, [r6, #0x7B]
  00e00	e586302c	 str         r3, [r6, #0x2C]
  00e04	e5862048	 str         r2, [r6, #0x48]
  00e08	e3a01000	 mov         r1, #0
  00e0c	e3a03000	 mov         r3, #0
  00e10	e3a02000	 mov         r2, #0
  00e14	e5c6901c	 strb        r9, [r6, #0x1C]
  00e18	e5c6a038	 strb        r10, [r6, #0x38]
  00e1c	e5c68007	 strb        r8, [r6, #7]
  00e20	e58d7010	 str         r7, [sp, #0x10]
  00e24	e58d700c	 str         r7, [sp, #0xC]
  00e28	e58d7008	 str         r7, [sp, #8]
  00e2c	e58d4004	 str         r4, [sp, #4]
  00e30	e58d6000	 str         r6, [sp]
  00e34	e1a0e00f	 mov         lr, pc
  00e38	e12fff15	 bx          r5

; 796  : }

  00e3c	e28dd014	 add         sp, sp, #0x14
  00e40	e8bd47f0	 ldmia       sp!, {r4 - r10, lr}
  00e44	e12fff1e	 bx          lr
  00e48		 |$LN6@RegisterUS|
  00e48		 |$LN7@RegisterUS|
  00e48	00000000	 DCD         |g_pddInterface|
  00e4c		 |$LN8@RegisterUS|
  00e4c	00000000	 DCD         |?deviceDescriptor@?1??RegisterUSBDevice@@9@9|
  00e50		 |$M47725|

			 ENDP  ; |RegisterUSBDevice|

	EXPORT	|PDD_IndicateRndisPacketComplete|
	EXPORT	|PDD_ISR|
	EXPORT	|PDD_Get|
	EXPORT	|PDD_Set|
	EXPORT	|PDD_SendRndisPacket|
	EXPORT	|PDD_SendRndisMessage|
	EXPORT	|SetRNDISSerialNumber|
	EXPORT	|SetRNDISMACAddress|
	EXPORT	|PDDInit|
	EXPORT	|??_C@_1CO@MPAJKINN@?$AA?9?$AAR?$AAN?$AAD?$AAI?$AAS?$AA_?$AAU?$AAS?$AAB?$AAF?$AAN?$AA_?$AAP?$AAD?$AAD?$AAI?$AAn?$AAi?$AAt?$AA?$AN?$AA?6?$AA?$AA@| [ DATA ] ; `string'
	EXPORT	|??_C@_1GC@COEDNCDC@?$AA?5?$AAR?$AAN?$AAD?$AAI?$AAS?$AA_?$AAU?$AAS?$AAB?$AAF?$AAN?$AA_?$AAP?$AAD?$AAD?$AAI?$AAn?$AAi?$AAt?$AA?3?$AA?5?$AAi?$AAn?$AAi?$AAt?$AAi?$AAa?$AAl?$AAi?$AAz?$AAa@| [ DATA ] ; `string'
	EXPORT	|??_C@_1CI@OLENNHLD@?$AAU?$AAf?$AAn?$AAP?$AAd?$AAd?$AA_?$AAI?$AAn?$AAi?$AAt?$AA?5?$AAf?$AAa?$AAi?$AAl?$AAe?$AAd?$AA?$CB?$AA?$AA@| [ DATA ] ; `string'
	EXPORT	|??_C@_1CO@BEMNPHPG@?$AA?$CL?$AAR?$AAN?$AAD?$AAI?$AAS?$AA_?$AAU?$AAS?$AAB?$AAF?$AAN?$AA_?$AAP?$AAD?$AAD?$AAI?$AAn?$AAi?$AAt?$AA?$AN?$AA?6?$AA?$AA@| [ DATA ] ; `string'
	IMPORT	|UfnPdd_Init|
	IMPORT	|InitializeHardware|

  00048			 AREA	 |.pdata|, PDATA
|$T47748| DCD	|$LN14@PDDInit|
	DCD	0x4000a202

  00000			 AREA	 |.rdata|, DATA, READONLY
|??_C@_1CO@MPAJKINN@?$AA?9?$AAR?$AAN?$AAD?$AAI?$AAS?$AA_?$AAU?$AAS?$AAB?$AAF?$AAN?$AA_?$AAP?$AAD?$AAD?$AAI?$AAn?$AAi?$AAt?$AA?$AN?$AA?6?$AA?$AA@| DCB "-"
	DCB	0x0, "R", 0x0, "N", 0x0, "D", 0x0, "I", 0x0, "S", 0x0, "_"
	DCB	0x0, "U", 0x0, "S", 0x0, "B", 0x0, "F", 0x0, "N", 0x0, "_"
	DCB	0x0, "P", 0x0, "D", 0x0, "D", 0x0, "I", 0x0, "n", 0x0, "i"
	DCB	0x0, "t", 0x0, 0xd, 0x0, 0xa, 0x0, 0x0, 0x0 ; `string'

  00000			 AREA	 |.rdata|, DATA, READONLY
|??_C@_1GC@COEDNCDC@?$AA?5?$AAR?$AAN?$AAD?$AAI?$AAS?$AA_?$AAU?$AAS?$AAB?$AAF?$AAN?$AA_?$AAP?$AAD?$AAD?$AAI?$AAn?$AAi?$AAt?$AA?3?$AA?5?$AAi?$AAn?$AAi?$AAt?$AAi?$AAa?$AAl?$AAi?$AAz?$AAa@| DCB " "
	DCB	0x0, "R", 0x0, "N", 0x0, "D", 0x0, "I", 0x0, "S", 0x0, "_"
	DCB	0x0, "U", 0x0, "S", 0x0, "B", 0x0, "F", 0x0, "N", 0x0, "_"
	DCB	0x0, "P", 0x0, "D", 0x0, "D", 0x0, "I", 0x0, "n", 0x0, "i"
	DCB	0x0, "t", 0x0, ":", 0x0, " ", 0x0, "i", 0x0, "n", 0x0, "i"
	DCB	0x0, "t", 0x0, "i", 0x0, "a", 0x0, "l", 0x0, "i", 0x0, "z"
	DCB	0x0, "a", 0x0, "t", 0x0, "i", 0x0, "o", 0x0, "n", 0x0, " "
	DCB	0x0, "c", 0x0, "o", 0x0, "m", 0x0, "p", 0x0, "l", 0x0, "e"
	DCB	0x0, "t", 0x0, "e", 0x0, "d", 0x0, 0xd, 0x0, 0xa, 0x0, 0x0
	DCB	0x0					; `string'

  00000			 AREA	 |.rdata|, DATA, READONLY
|??_C@_1CI@OLENNHLD@?$AAU?$AAf?$AAn?$AAP?$AAd?$AAd?$AA_?$AAI?$AAn?$AAi?$AAt?$AA?5?$AAf?$AAa?$AAi?$AAl?$AAe?$AAd?$AA?$CB?$AA?$AA@| DCB "U"
	DCB	0x0, "f", 0x0, "n", 0x0, "P", 0x0, "d", 0x0, "d", 0x0, "_"
	DCB	0x0, "I", 0x0, "n", 0x0, "i", 0x0, "t", 0x0, " ", 0x0, "f"
	DCB	0x0, "a", 0x0, "i", 0x0, "l", 0x0, "e", 0x0, "d", 0x0, "!"
	DCB	0x0, 0x0, 0x0				; `string'

  00000			 AREA	 |.rdata|, DATA, READONLY
|??_C@_1CO@BEMNPHPG@?$AA?$CL?$AAR?$AAN?$AAD?$AAI?$AAS?$AA_?$AAU?$AAS?$AAB?$AAF?$AAN?$AA_?$AAP?$AAD?$AAD?$AAI?$AAn?$AAi?$AAt?$AA?$AN?$AA?6?$AA?$AA@| DCB "+"
	DCB	0x0, "R", 0x0, "N", 0x0, "D", 0x0, "I", 0x0, "S", 0x0, "_"
	DCB	0x0, "U", 0x0, "S", 0x0, "B", 0x0, "F", 0x0, "N", 0x0, "_"
	DCB	0x0, "P", 0x0, "D", 0x0, "D", 0x0, "I", 0x0, "n", 0x0, "i"
	DCB	0x0, "t", 0x0, 0xd, 0x0, 0xa, 0x0, 0x0, 0x0 ; `string'
; Function compile flags: /Ogtp

  00e50			 AREA	 |.text|, CODE, ARM

  00e50		 |PDDInit| PROC

; 803  : {

  00e50		 |$LN14@PDDInit|
  00e50	e92d4ff0	 stmdb       sp!, {r4 - r11, lr}
  00e54	e24dd008	 sub         sp, sp, #8
  00e58		 |$M47745|
  00e58	e58d1004	 str         r1, [sp, #4]
  00e5c	e58d0000	 str         r0, [sp]

; 804  :     PDDZONE0 = 0;
; 805  :     PDDZONE = 0;
; 806  :     MDDZONE0 = 0;
; 807  :     MDDZONE = 1;
; 808  :     MDDZONE2 = 1;
; 809  :     MDDZONE3 = 1;
; 810  :     MDDZONE4 = 1;
; 811  :     MDDZONE5 = 0;
; 812  : 
; 813  :     OALMSG(OAL_ETHER&&OAL_FUNC, (L"+RNDIS_USBFN_PDDInit\r\n"));

  00e60	e59f726c	 ldr         r7, [pc, #0x26C]
  00e64	e59fa264	 ldr         r10, [pc, #0x264]
  00e68	e3a0e000	 mov         lr, #0
  00e6c	e59f624c	 ldr         r6, [pc, #0x24C]
  00e70	e587e000	 str         lr, [r7]
  00e74	e59f2208	 ldr         r2, [pc, #0x208]
  00e78	e3a0e001	 mov         lr, #1
  00e7c	e58ae000	 str         lr, [r10]
  00e80	e5963440	 ldr         r3, [r6, #0x440]
  00e84	e59f11f4	 ldr         r1, [pc, #0x1F4]
  00e88	e3a0e001	 mov         lr, #1
  00e8c	e582e000	 str         lr, [r2]
  00e90	e59f01e4	 ldr         r0, [pc, #0x1E4]
  00e94	e3a02001	 mov         r2, #1
  00e98	e5812000	 str         r2, [r1]
  00e9c	e59fb1ec	 ldr         r11, [pc, #0x1EC]
  00ea0	e3130a02	 tst         r3, #2, 20
  00ea4	e3a02000	 mov         r2, #0
  00ea8	e59f821c	 ldr         r8, [pc, #0x21C]
  00eac	e59f9214	 ldr         r9, [pc, #0x214]
  00eb0	13130004	 tstne       r3, #4
  00eb4	e5802000	 str         r2, [r0]
  00eb8	159f0204	 ldrne       r0, [pc, #0x204]
  00ebc	e3a06001	 mov         r6, #1
  00ec0	e3a04000	 mov         r4, #0
  00ec4	e3a05000	 mov         r5, #0
  00ec8	e58b6000	 str         r6, [r11]
  00ecc	e59f61ec	 ldr         r6, [pc, #0x1EC]
  00ed0	e5884000	 str         r4, [r8]
  00ed4	e5895000	 str         r5, [r9]
  00ed8	1b000000	 blne        NKDbgPrintfW

; 814  : 
; 815  :     g_mddInterface.dwVersion = 1;

  00edc	e59f41d8	 ldr         r4, [pc, #0x1D8]

; 816  :     g_mddInterface.pfnNotify = NotifyHandler;
; 817  : 
; 818  :     memset( &g_pddInterface, 0, sizeof(g_pddInterface) );

  00ee0	e59f31d0	 ldr         r3, [pc, #0x1D0]
  00ee4	e59f51c8	 ldr         r5, [pc, #0x1C8]
  00ee8	e3a02001	 mov         r2, #1
  00eec	e884000c	 stmia       r4, {r2, r3}
  00ef0	e3a02060	 mov         r2, #0x60
  00ef4	e1a00005	 mov         r0, r5
  00ef8	e3a01000	 mov         r1, #0
  00efc	eb000000	 bl          memset

; 819  :     g_pddInterface.dwVersion = 1;

  00f00	e3a03001	 mov         r3, #1
  00f04	e5853000	 str         r3, [r5]

; 820  : 
; 821  :     // configure clock, I2C cotroller, USB OTG transceiver and USB OTG controller
; 822  :     InitializeHardware();

  00f08	eb000000	 bl          InitializeHardware

; 823  : 
; 824  :     // initialize usb function unit
; 825  :     if( UfnPdd_Init( NULL, NULL, &g_mddInterface, &g_pddInterface ) != ERROR_SUCCESS )

  00f0c	e1a03005	 mov         r3, r5
  00f10	e1a02004	 mov         r2, r4
  00f14	e3a01000	 mov         r1, #0
  00f18	e3a00000	 mov         r0, #0
  00f1c	eb000000	 bl          UfnPdd_Init
  00f20	e3500000	 cmp         r0, #0
  00f24	0a000007	 beq         |$LN1@PDDInit|

; 826  :     {
; 827  :         OALMSG(OAL_ERROR, (L"UfnPdd_Init failed!"));

  00f28	e5963440	 ldr         r3, [r6, #0x440]
  00f2c	e3130001	 tst         r3, #1
  00f30	159f0178	 ldrne       r0, [pc, #0x178]
  00f34	1b000000	 blne        NKDbgPrintfW

; 828  :         return FALSE;

  00f38	e3a00000	 mov         r0, #0

; 879  : }

  00f3c	e28dd008	 add         sp, sp, #8
  00f40	e8bd4ff0	 ldmia       sp!, {r4 - r11, lr}
  00f44	e12fff1e	 bx          lr
  00f48		 |$LN1@PDDInit|

; 829  :     }
; 830  : 
; 831  :     // register device
; 832  :     RegisterUSBDevice();

  00f48	eb000000	 bl          RegisterUSBDevice

; 833  : 
; 834  :     // attach device to USB bus
; 835  :     g_pddInterface.pfnStart( g_pddInterface.pvPddContext );

  00f4c	e595000c	 ldr         r0, [r5, #0xC]
  00f50	e5953028	 ldr         r3, [r5, #0x28]
  00f54	e1a0e00f	 mov         lr, pc
  00f58	e12fff13	 bx          r3

; 836  : 
; 837  :     SetRNDISMACAddress();

  00f5c	eb000000	 bl          SetRNDISMACAddress

; 838  :     SetRNDISSerialNumber();

  00f60	eb000000	 bl          SetRNDISSerialNumber

; 839  : 
; 840  :     //
; 841  :     // Everything ok, fill up our characteristics.
; 842  :     //
; 843  :     memset(pRndisPddCharacteristics, 0x00, sizeof(RNDIS_PDD_CHARACTERISTICS));

  00f64	e59d0000	 ldr         r0, [sp]
  00f68	e3a02044	 mov         r2, #0x44
  00f6c	e3a01000	 mov         r1, #0
  00f70	eb000000	 bl          memset

; 844  : 
; 845  :     pRndisPddCharacteristics->SendRndisMessageHandler = PDD_SendRndisMessage;

  00f74	e59f3130	 ldr         r3, [pc, #0x130]

; 846  :     pRndisPddCharacteristics->SendRndisPacketHandler = PDD_SendRndisPacket;
; 847  :     pRndisPddCharacteristics->SetHandler = PDD_Set;
; 848  :     pRndisPddCharacteristics->GetHandler = PDD_Get;
; 849  :     pRndisPddCharacteristics->ISRHandler = PDD_ISR;
; 850  :     pRndisPddCharacteristics->dwIRQ = -1;       // @todo : check this
; 851  :     pRndisPddCharacteristics->dwMaxRx = MAX_INCOMING_BUFFER;
; 852  :     pRndisPddCharacteristics->dwBaseAddr = (DWORD)pBaseAddress/*USB_CLIENT_BASE*/;       // TODO: check this 
; 853  :     pRndisPddCharacteristics->IndicateRndisPacketCompleteHandler = PDD_IndicateRndisPacketComplete;
; 854  : 
; 855  :     // we are not a PCI device
; 856  :     pRndisPddCharacteristics->bPCIDevice = FALSE;
; 857  : 
; 858  :     //
; 859  :     // Everything is fine... Proceed!
; 860  :     //
; 861  :     InitializeListHead(&g_RndisKitlDev.listTxRndisMessageQueue);

  00f78	e59db000	 ldr         r11, [sp]
  00f7c	e59f2124	 ldr         r2, [pc, #0x124]
  00f80	e59f111c	 ldr         r1, [pc, #0x11C]
  00f84	e58b3000	 str         r3, [r11]
  00f88	e1a0300b	 mov         r3, r11
  00f8c	e5832004	 str         r2, [r3, #4]
  00f90	e1a0200b	 mov         r2, r11
  00f94	e582100c	 str         r1, [r2, #0xC]
  00f98	e3e01000	 mvn         r1, #0
  00f9c	e5821018	 str         r1, [r2, #0x18]
  00fa0	e3a01a02	 mov         r1, #2, 20
  00fa4	e582101c	 str         r1, [r2, #0x1C]
  00fa8	e59d1004	 ldr         r1, [sp, #4]
  00fac	e59f50ec	 ldr         r5, [pc, #0xEC]
  00fb0	e59f00e4	 ldr         r0, [pc, #0xE4]
  00fb4	e59fe0dc	 ldr         lr, [pc, #0xDC]
  00fb8	e59f40d4	 ldr         r4, [pc, #0xD4]
  00fbc	e5821020	 str         r1, [r2, #0x20]
  00fc0	e3a01000	 mov         r1, #0
  00fc4	e2853b01	 add         r3, r5, #1, 22
  00fc8	e5821024	 str         r1, [r2, #0x24]
  00fcc	e5820010	 str         r0, [r2, #0x10]
  00fd0	e582e014	 str         lr, [r2, #0x14]
  00fd4	e5824008	 str         r4, [r2, #8]

; 862  : 
; 863  :     OALMSG(OAL_ETHER&&OAL_FUNC, (
; 864  :         L" RNDIS_USBFN_PDDInit: initialization completed\r\n"
; 865  :     ));

  00fd8	e5961440	 ldr         r1, [r6, #0x440]
  00fdc	e2833034	 add         r3, r3, #0x34
  00fe0	e2852b01	 add         r2, r5, #1, 22
  00fe4	e5853438	 str         r3, [r5, #0x438]
  00fe8	e2823034	 add         r3, r2, #0x34
  00fec	e59fb09c	 ldr         r11, [pc, #0x9C]
  00ff0	e5853434	 str         r3, [r5, #0x434]
  00ff4	e3110a02	 tst         r1, #2, 20
  00ff8	0a000004	 beq         |$LN8@PDDInit|
  00ffc	e3110004	 tst         r1, #4
  01000	0a000002	 beq         |$LN8@PDDInit|
  01004	e59f0080	 ldr         r0, [pc, #0x80]
  01008	eb000000	 bl          NKDbgPrintfW
  0100c	e5961440	 ldr         r1, [r6, #0x440]
  01010		 |$LN8@PDDInit|

; 866  : 
; 867  :     OALMSG(OAL_ETHER&&OAL_FUNC, (L"-RNDIS_USBFN_PDDInit\r\n"));

  01010	e3110a02	 tst         r1, #2, 20
  01014	13110004	 tstne       r1, #4
  01018	159f0068	 ldrne       r0, [pc, #0x68]
  0101c	1b000000	 blne        NKDbgPrintfW

; 868  : 
; 869  :     PDDZONE0 = 0;

  01020	e3a03000	 mov         r3, #0

; 870  :     PDDZONE = 0;
; 871  :     MDDZONE0 = 0;
; 872  :     MDDZONE = 0;
; 873  :     MDDZONE2 = 0;
; 874  :     MDDZONE3 = 0; // 1
; 875  :     MDDZONE4 = 0;
; 876  :     MDDZONE5 = 0;

  01024	e5873000	 str         r3, [r7]
  01028	e59f3054	 ldr         r3, [pc, #0x54]
  0102c	e3a04000	 mov         r4, #0
  01030	e3a05000	 mov         r5, #0
  01034	e5834000	 str         r4, [r3]
  01038	e59f3040	 ldr         r3, [pc, #0x40]
  0103c	e3a00000	 mov         r0, #0
  01040	e3a02000	 mov         r2, #0
  01044	e5835000	 str         r5, [r3]
  01048	e59f302c	 ldr         r3, [pc, #0x2C]
  0104c	e3a01000	 mov         r1, #0
  01050	e3a0e000	 mov         lr, #0
  01054	e3a06000	 mov         r6, #0
  01058	e58a0000	 str         r0, [r10]
  0105c	e5836000	 str         r6, [r3]
  01060	e5882000	 str         r2, [r8]
  01064	e5891000	 str         r1, [r9]
  01068	e58be000	 str         lr, [r11]

; 877  : 
; 878  :     return TRUE;

  0106c	e3a00001	 mov         r0, #1

; 879  : }

  01070	e28dd008	 add         sp, sp, #8
  01074	e8bd4ff0	 ldmia       sp!, {r4 - r11, lr}
  01078	e12fff1e	 bx          lr
  0107c		 |$LN15@PDDInit|
  0107c		 |$LN16@PDDInit|
  0107c	00000000	 DCD         |MDDZONE5|
  01080		 |$LN17@PDDInit|
  01080	00000000	 DCD         |MDDZONE4|
  01084		 |$LN18@PDDInit|
  01084	00000000	 DCD         |MDDZONE3|
  01088		 |$LN19@PDDInit|
  01088	00000000	 DCD         |??_C@_1CO@MPAJKINN@?$AA?9?$AAR?$AAN?$AAD?$AAI?$AAS?$AA_?$AAU?$AAS?$AAB?$AAF?$AAN?$AA_?$AAP?$AAD?$AAD?$AAI?$AAn?$AAi?$AAt?$AA?$AN?$AA?6?$AA?$AA@|
  0108c		 |$LN20@PDDInit|
  0108c	00000000	 DCD         |??_C@_1GC@COEDNCDC@?$AA?5?$AAR?$AAN?$AAD?$AAI?$AAS?$AA_?$AAU?$AAS?$AAB?$AAF?$AAN?$AA_?$AAP?$AAD?$AAD?$AAI?$AAn?$AAi?$AAt?$AA?3?$AA?5?$AAi?$AAn?$AAi?$AAt?$AAi?$AAa?$AAl?$AAi?$AAz?$AAa@|
  01090		 |$LN21@PDDInit|
  01090	00000000	 DCD         |MDDZONE2|
  01094		 |$LN22@PDDInit|
  01094	00000000	 DCD         |PDD_IndicateRndisPacketComplete|
  01098		 |$LN23@PDDInit|
  01098	00000000	 DCD         |PDD_ISR|
  0109c		 |$LN24@PDDInit|
  0109c	00000000	 DCD         |PDD_Get|
  010a0		 |$LN25@PDDInit|
  010a0	00000000	 DCD         |g_RndisKitlDev|
  010a4		 |$LN26@PDDInit|
  010a4	00000000	 DCD         |PDD_Set|
  010a8		 |$LN27@PDDInit|
  010a8	00000000	 DCD         |PDD_SendRndisPacket|
  010ac		 |$LN28@PDDInit|
  010ac	00000000	 DCD         |PDD_SendRndisMessage|
  010b0		 |$LN29@PDDInit|
  010b0	00000000	 DCD         |??_C@_1CI@OLENNHLD@?$AAU?$AAf?$AAn?$AAP?$AAd?$AAd?$AA_?$AAI?$AAn?$AAi?$AAt?$AA?5?$AAf?$AAa?$AAi?$AAl?$AAe?$AAd?$AA?$CB?$AA?$AA@|
  010b4		 |$LN30@PDDInit|
  010b4	00000000	 DCD         |g_pddInterface|
  010b8		 |$LN31@PDDInit|
  010b8	00000000	 DCD         |NotifyHandler|
  010bc		 |$LN32@PDDInit|
  010bc	00000000	 DCD         |g_mddInterface|
  010c0		 |$LN33@PDDInit|
  010c0	00000000	 DCD         |dpCurSettings|
  010c4		 |$LN34@PDDInit|
  010c4	00000000	 DCD         |??_C@_1CO@BEMNPHPG@?$AA?$CL?$AAR?$AAN?$AAD?$AAI?$AAS?$AA_?$AAU?$AAS?$AAB?$AAF?$AAN?$AA_?$AAP?$AAD?$AAD?$AAI?$AAn?$AAi?$AAt?$AA?$AN?$AA?6?$AA?$AA@|
  010c8		 |$LN35@PDDInit|
  010c8	00000000	 DCD         |MDDZONE0|
  010cc		 |$LN36@PDDInit|
  010cc	00000000	 DCD         |PDDZONE|
  010d0		 |$LN37@PDDInit|
  010d0	00000000	 DCD         |MDDZONE|
  010d4		 |$LN38@PDDInit|
  010d4	00000000	 DCD         |PDDZONE0|
  010d8		 |$M47746|

			 ENDP  ; |PDDInit|

	EXPORT	|PDDDeinit|
	EXPORT	|??_C@_1DA@MNIGJPIF@?$AA?9?$AAR?$AAN?$AAD?$AAI?$AAS?$AA_?$AAU?$AAS?$AAB?$AAF?$AAN?$AA_?$AAP?$AAD?$AAD?$AAD?$AAe?$AAn?$AAi?$AAt?$AA?$AN?$AA?6?$AA?$AA@| [ DATA ] ; `string'
	EXPORT	|??_C@_1DA@EACCPFEN@?$AA?$CL?$AAR?$AAN?$AAD?$AAI?$AAS?$AA_?$AAU?$AAS?$AAB?$AAF?$AAN?$AA_?$AAP?$AAD?$AAD?$AAD?$AAe?$AAn?$AAi?$AAt?$AA?$AN?$AA?6?$AA?$AA@| [ DATA ] ; `string'

  00050			 AREA	 |.pdata|, PDATA
|$T47781| DCD	|$LN9@PDDDeinit|
	DCD	0x40001301

  00000			 AREA	 |.rdata|, DATA, READONLY
|??_C@_1DA@MNIGJPIF@?$AA?9?$AAR?$AAN?$AAD?$AAI?$AAS?$AA_?$AAU?$AAS?$AAB?$AAF?$AAN?$AA_?$AAP?$AAD?$AAD?$AAD?$AAe?$AAn?$AAi?$AAt?$AA?$AN?$AA?6?$AA?$AA@| DCB "-"
	DCB	0x0, "R", 0x0, "N", 0x0, "D", 0x0, "I", 0x0, "S", 0x0, "_"
	DCB	0x0, "U", 0x0, "S", 0x0, "B", 0x0, "F", 0x0, "N", 0x0, "_"
	DCB	0x0, "P", 0x0, "D", 0x0, "D", 0x0, "D", 0x0, "e", 0x0, "n"
	DCB	0x0, "i", 0x0, "t", 0x0, 0xd, 0x0, 0xa, 0x0, 0x0, 0x0 ; `string'

  00000			 AREA	 |.rdata|, DATA, READONLY
|??_C@_1DA@EACCPFEN@?$AA?$CL?$AAR?$AAN?$AAD?$AAI?$AAS?$AA_?$AAU?$AAS?$AAB?$AAF?$AAN?$AA_?$AAP?$AAD?$AAD?$AAD?$AAe?$AAn?$AAi?$AAt?$AA?$AN?$AA?6?$AA?$AA@| DCB "+"
	DCB	0x0, "R", 0x0, "N", 0x0, "D", 0x0, "I", 0x0, "S", 0x0, "_"
	DCB	0x0, "U", 0x0, "S", 0x0, "B", 0x0, "F", 0x0, "N", 0x0, "_"
	DCB	0x0, "P", 0x0, "D", 0x0, "D", 0x0, "D", 0x0, "e", 0x0, "n"
	DCB	0x0, "i", 0x0, "t", 0x0, 0xd, 0x0, 0xa, 0x0, 0x0, 0x0 ; `string'
; Function compile flags: /Ogtp

  010d8			 AREA	 |.text|, CODE, ARM

  010d8		 |PDDDeinit| PROC

; 882  : {

  010d8		 |$LN9@PDDDeinit|
  010d8	e92d4010	 stmdb       sp!, {r4, lr}
  010dc		 |$M47778|

; 883  :     OALMSG(OAL_ETHER&&OAL_FUNC, (L"+RNDIS_USBFN_PDDDenit\r\n"));

  010dc	e59f403c	 ldr         r4, [pc, #0x3C]
  010e0	e5943440	 ldr         r3, [r4, #0x440]
  010e4	e3130a02	 tst         r3, #2, 20
  010e8	0a000004	 beq         |$LN3@PDDDeinit|
  010ec	e3130004	 tst         r3, #4
  010f0	0a000002	 beq         |$LN3@PDDDeinit|
  010f4	e59f0020	 ldr         r0, [pc, #0x20]
  010f8	eb000000	 bl          NKDbgPrintfW
  010fc	e5943440	 ldr         r3, [r4, #0x440]
  01100		 |$LN3@PDDDeinit|

; 884  :     OALMSG(OAL_ETHER&&OAL_FUNC, (L"-RNDIS_USBFN_PDDDenit\r\n"));

  01100	e3130a02	 tst         r3, #2, 20
  01104	13130004	 tstne       r3, #4
  01108	159f0008	 ldrne       r0, [pc, #8]
  0110c	1b000000	 blne        NKDbgPrintfW

; 885  : }

  01110	e8bd4010	 ldmia       sp!, {r4, lr}
  01114	e12fff1e	 bx          lr
  01118		 |$LN10@PDDDeinit|
  01118		 |$LN11@PDDDeinit|
  01118	00000000	 DCD         |??_C@_1DA@MNIGJPIF@?$AA?9?$AAR?$AAN?$AAD?$AAI?$AAS?$AA_?$AAU?$AAS?$AAB?$AAF?$AAN?$AA_?$AAP?$AAD?$AAD?$AAD?$AAe?$AAn?$AAi?$AAt?$AA?$AN?$AA?6?$AA?$AA@|
  0111c		 |$LN12@PDDDeinit|
  0111c	00000000	 DCD         |??_C@_1DA@EACCPFEN@?$AA?$CL?$AAR?$AAN?$AAD?$AAI?$AAS?$AA_?$AAU?$AAS?$AAB?$AAF?$AAN?$AA_?$AAP?$AAD?$AAD?$AAD?$AAe?$AAn?$AAi?$AAt?$AA?$AN?$AA?6?$AA?$AA@|
  01120		 |$LN13@PDDDeinit|
  01120	00000000	 DCD         |dpCurSettings|
  01124		 |$M47779|

			 ENDP  ; |PDDDeinit|

	EXPORT	|??_C@_1EI@ONHOMNHJ@?$AA?9?$AAR?$AAN?$AAD?$AAI?$AAS?$AA_?$AAU?$AAS?$AAB?$AAF?$AAN?$AA_?$AAP?$AAD?$AAD?$AA_?$AAS?$AAe?$AAn?$AAd?$AAR?$AAn?$AAd?$AAi?$AAs?$AAM?$AAe?$AAs?$AAs?$AAa?$AAg@| [ DATA ] ; `string'
	EXPORT	|??_C@_1HE@PDJOEOPK@?$AA?$CL?$AAR?$AAN?$AAD?$AAI?$AAS?$AA_?$AAU?$AAS?$AAB?$AAF?$AAN?$AA_?$AAP?$AAD?$AAD?$AA_?$AAS?$AAe?$AAn?$AAd?$AAR?$AAn?$AAd?$AAi?$AAs?$AAM?$AAe?$AAs?$AAs?$AAa?$AAg@| [ DATA ] ; `string'
	EXPORT	|??_C@_1GK@OCDDHLML@?$AA?$CL?$AAR?$AAN?$AAD?$AAI?$AAS?$AA_?$AAU?$AAS?$AAB?$AAF?$AAN?$AA_?$AAP?$AAD?$AAD?$AA_?$AAS?$AAe?$AAn?$AAd?$AAR?$AAn?$AAd?$AAi?$AAs?$AAM?$AAe?$AAs?$AAs?$AAa?$AAg@| [ DATA ] ; `string'
	EXPORT	|??_C@_1EI@LPKHCIID@?$AA?$CL?$AAR?$AAN?$AAD?$AAI?$AAS?$AA_?$AAU?$AAS?$AAB?$AAF?$AAN?$AA_?$AAP?$AAD?$AAD?$AA_?$AAS?$AAe?$AAn?$AAd?$AAR?$AAn?$AAd?$AAi?$AAs?$AAM?$AAe?$AAs?$AAs?$AAa?$AAg@| [ DATA ] ; `string'

  00058			 AREA	 |.pdata|, PDATA
|$T47800| DCD	|$LN16@PDD_SendRn|
	DCD	0x40004201

  00000			 AREA	 |.rdata|, DATA, READONLY
|??_C@_1EI@ONHOMNHJ@?$AA?9?$AAR?$AAN?$AAD?$AAI?$AAS?$AA_?$AAU?$AAS?$AAB?$AAF?$AAN?$AA_?$AAP?$AAD?$AAD?$AA_?$AAS?$AAe?$AAn?$AAd?$AAR?$AAn?$AAd?$AAi?$AAs?$AAM?$AAe?$AAs?$AAs?$AAa?$AAg@| DCB "-"
	DCB	0x0, "R", 0x0, "N", 0x0, "D", 0x0, "I", 0x0, "S", 0x0, "_"
	DCB	0x0, "U", 0x0, "S", 0x0, "B", 0x0, "F", 0x0, "N", 0x0, "_"
	DCB	0x0, "P", 0x0, "D", 0x0, "D", 0x0, "_", 0x0, "S", 0x0, "e"
	DCB	0x0, "n", 0x0, "d", 0x0, "R", 0x0, "n", 0x0, "d", 0x0, "i"
	DCB	0x0, "s", 0x0, "M", 0x0, "e", 0x0, "s", 0x0, "s", 0x0, "a"
	DCB	0x0, "g", 0x0, "e", 0x0, 0xd, 0x0, 0xa, 0x0, 0x0, 0x0 ; `string'

  00000			 AREA	 |.rdata|, DATA, READONLY
|??_C@_1HE@PDJOEOPK@?$AA?$CL?$AAR?$AAN?$AAD?$AAI?$AAS?$AA_?$AAU?$AAS?$AAB?$AAF?$AAN?$AA_?$AAP?$AAD?$AAD?$AA_?$AAS?$AAe?$AAn?$AAd?$AAR?$AAn?$AAd?$AAi?$AAs?$AAM?$AAe?$AAs?$AAs?$AAa?$AAg@| DCB "+"
	DCB	0x0, "R", 0x0, "N", 0x0, "D", 0x0, "I", 0x0, "S", 0x0, "_"
	DCB	0x0, "U", 0x0, "S", 0x0, "B", 0x0, "F", 0x0, "N", 0x0, "_"
	DCB	0x0, "P", 0x0, "D", 0x0, "D", 0x0, "_", 0x0, "S", 0x0, "e"
	DCB	0x0, "n", 0x0, "d", 0x0, "R", 0x0, "n", 0x0, "d", 0x0, "i"
	DCB	0x0, "s", 0x0, "M", 0x0, "e", 0x0, "s", 0x0, "s", 0x0, "a"
	DCB	0x0, "g", 0x0, "e", 0x0, ":", 0x0, " ", 0x0, "i", 0x0, "s"
	DCB	0x0, "s", 0x0, "u", 0x0, "i", 0x0, "n", 0x0, "g", 0x0, " "
	DCB	0x0, "i", 0x0, "n", 0x0, "t", 0x0, "e", 0x0, "r", 0x0, "r"
	DCB	0x0, "u", 0x0, "p", 0x0, "t", 0x0, ".", 0x0, ".", 0x0, "."
	DCB	0x0, 0xd, 0x0, 0xa, 0x0, 0x0, 0x0	; `string'

  00000			 AREA	 |.rdata|, DATA, READONLY
|??_C@_1GK@OCDDHLML@?$AA?$CL?$AAR?$AAN?$AAD?$AAI?$AAS?$AA_?$AAU?$AAS?$AAB?$AAF?$AAN?$AA_?$AAP?$AAD?$AAD?$AA_?$AAS?$AAe?$AAn?$AAd?$AAR?$AAn?$AAd?$AAi?$AAs?$AAM?$AAe?$AAs?$AAs?$AAa?$AAg@| DCB "+"
	DCB	0x0, "R", 0x0, "N", 0x0, "D", 0x0, "I", 0x0, "S", 0x0, "_"
	DCB	0x0, "U", 0x0, "S", 0x0, "B", 0x0, "F", 0x0, "N", 0x0, "_"
	DCB	0x0, "P", 0x0, "D", 0x0, "D", 0x0, "_", 0x0, "S", 0x0, "e"
	DCB	0x0, "n", 0x0, "d", 0x0, "R", 0x0, "n", 0x0, "d", 0x0, "i"
	DCB	0x0, "s", 0x0, "M", 0x0, "e", 0x0, "s", 0x0, "s", 0x0, "a"
	DCB	0x0, "g", 0x0, "e", 0x0, ":", 0x0, " ", 0x0, "m", 0x0, "e"
	DCB	0x0, "s", 0x0, "s", 0x0, "a", 0x0, "g", 0x0, "e", 0x0, " "
	DCB	0x0, "q", 0x0, "u", 0x0, "e", 0x0, "u", 0x0, "e", 0x0, "d"
	DCB	0x0, ".", 0x0, 0xd, 0x0, 0xa, 0x0, 0x0, 0x0 ; `string'

  00000			 AREA	 |.rdata|, DATA, READONLY
|??_C@_1EI@LPKHCIID@?$AA?$CL?$AAR?$AAN?$AAD?$AAI?$AAS?$AA_?$AAU?$AAS?$AAB?$AAF?$AAN?$AA_?$AAP?$AAD?$AAD?$AA_?$AAS?$AAe?$AAn?$AAd?$AAR?$AAn?$AAd?$AAi?$AAs?$AAM?$AAe?$AAs?$AAs?$AAa?$AAg@| DCB "+"
	DCB	0x0, "R", 0x0, "N", 0x0, "D", 0x0, "I", 0x0, "S", 0x0, "_"
	DCB	0x0, "U", 0x0, "S", 0x0, "B", 0x0, "F", 0x0, "N", 0x0, "_"
	DCB	0x0, "P", 0x0, "D", 0x0, "D", 0x0, "_", 0x0, "S", 0x0, "e"
	DCB	0x0, "n", 0x0, "d", 0x0, "R", 0x0, "n", 0x0, "d", 0x0, "i"
	DCB	0x0, "s", 0x0, "M", 0x0, "e", 0x0, "s", 0x0, "s", 0x0, "a"
	DCB	0x0, "g", 0x0, "e", 0x0, 0xd, 0x0, 0xa, 0x0, 0x0, 0x0 ; `string'
; Function compile flags: /Ogtp

  01124			 AREA	 |.text|, CODE, ARM

  01124		 |PDD_SendRndisMessage| PROC

; 905  : {

  01124		 |$LN16@PDD_SendRn|
  01124	e92d4030	 stmdb       sp!, {r4, r5, lr}
  01128		 |$M47797|
  01128	e1a05000	 mov         r5, r0

; 906  :     OALMSG(OAL_ETHER&&OAL_FUNC, (L"+RNDIS_USBFN_PDD_SendRndisMessage\r\n"));

  0112c	e59f40f4	 ldr         r4, [pc, #0xF4]
  01130	e5943440	 ldr         r3, [r4, #0x440]
  01134	e3130a02	 tst         r3, #2, 20
  01138	13130004	 tstne       r3, #4
  0113c	159f00e0	 ldrne       r0, [pc, #0xE0]
  01140	1b000000	 blne        NKDbgPrintfW

; 907  : 
; 908  :     //
; 909  :     // We don't do the actual sending here but queue it up...
; 910  :     // We then trigger Interrupt endpoint to send interrupt to host which will in turn
; 911  :     // use EP0 to GET_ENCAPSULATED_RESPONSE
; 912  :     InsertTailList((&g_RndisKitlDev.listTxRndisMessageQueue), &(pDataWrapper->Link));

  01144	e59f10d4	 ldr         r1, [pc, #0xD4]
  01148	e5912438	 ldr         r2, [r1, #0x438]
  0114c	e2813b01	 add         r3, r1, #1, 22
  01150	e2833034	 add         r3, r3, #0x34
  01154	e5853000	 str         r3, [r5]
  01158	e5852004	 str         r2, [r5, #4]
  0115c	e5825000	 str         r5, [r2]

; 913  : 
; 914  :     OALMSG(OAL_ETHER&&OAL_FUNC, (
; 915  :         L"+RNDIS_USBFN_PDD_SendRndisMessage: message queued.\r\n"
; 916  :     ));

  01160	e5942440	 ldr         r2, [r4, #0x440]
  01164	e5815438	 str         r5, [r1, #0x438]
  01168	e3120a02	 tst         r2, #2, 20
  0116c	0a000004	 beq         |$LN8@PDD_SendRn|
  01170	e3120004	 tst         r2, #4
  01174	0a000002	 beq         |$LN8@PDD_SendRn|
  01178	e59f009c	 ldr         r0, [pc, #0x9C]
  0117c	eb000000	 bl          NKDbgPrintfW
  01180	e5942440	 ldr         r2, [r4, #0x440]
  01184		 |$LN8@PDD_SendRn|

; 917  :     // Interrupt (via interrupt endpoint) the host to GET_ENCAPSULATED_RESPONSE
; 918  : 
; 919  :     // g_EP3Transfer.dwCallerPermissions;
; 920  :     g_EP3Transfer.dwFlags = USB_REQUEST_DEVICE_TO_HOST;

  01184	e59f508c	 ldr         r5, [pc, #0x8C]

; 921  :     g_EP3Transfer.pvBuffer = &g_InterruptData;

  01188	e59f3084	 ldr         r3, [pc, #0x84]
  0118c	e3a01080	 mov         r1, #0x80

; 922  :     // g_EP3Transfer.dwBufferPhysicalAddress; // not used
; 923  :     g_EP3Transfer.cbBuffer = sizeof(g_InterruptData);
; 924  :     g_EP3Transfer.cbTransferred = 0;
; 925  :     g_EP3Transfer.dwUsbError = UFN_NOT_COMPLETE_ERROR; // Possible values are in usbfntypes.h
; 926  :     g_EP3Transfer.pvPddData = NULL;
; 927  :     g_EP3Transfer.pvPddTransferInfo = NULL;
; 928  : 
; 929  :     OALMSG(OAL_ETHER&&OAL_FUNC, (
; 930  :         L"+RNDIS_USBFN_PDD_SendRndisMessage: issuing interrupt...\r\n"
; 931  :     ));

  01190	e3120a02	 tst         r2, #2, 20
  01194	e885000a	 stmia       r5, {r1, r3}
  01198	e3a03008	 mov         r3, #8
  0119c	e585300c	 str         r3, [r5, #0xC]
  011a0	e3a01c01	 mov         r1, #1, 24
  011a4	13120004	 tstne       r2, #4
  011a8	159f0060	 ldrne       r0, [pc, #0x60]
  011ac	e3a03000	 mov         r3, #0
  011b0	e5853010	 str         r3, [r5, #0x10]
  011b4	e3813003	 orr         r3, r1, #3
  011b8	e5853014	 str         r3, [r5, #0x14]
  011bc	e3a03000	 mov         r3, #0
  011c0	e5853018	 str         r3, [r5, #0x18]
  011c4	e3a03000	 mov         r3, #0
  011c8	e585301c	 str         r3, [r5, #0x1C]
  011cc	1b000000	 blne        NKDbgPrintfW

; 932  :     g_pddInterface.pfnIssueTransfer( g_pddInterface.pvPddContext, 3, &g_EP3Transfer );

  011d0	e59f3034	 ldr         r3, [pc, #0x34]
  011d4	e1a02005	 mov         r2, r5
  011d8	e3a01003	 mov         r1, #3
  011dc	e593000c	 ldr         r0, [r3, #0xC]
  011e0	e5933030	 ldr         r3, [r3, #0x30]
  011e4	e1a0e00f	 mov         lr, pc
  011e8	e12fff13	 bx          r3

; 933  : 
; 934  :     OALMSG(OAL_ETHER&&OAL_FUNC, (L"-RNDIS_USBFN_PDD_SendRndisMessage\r\n"));

  011ec	e5943440	 ldr         r3, [r4, #0x440]
  011f0	e3130a02	 tst         r3, #2, 20
  011f4	13130004	 tstne       r3, #4
  011f8	159f0008	 ldrne       r0, [pc, #8]
  011fc	1b000000	 blne        NKDbgPrintfW

; 935  : 
; 936  : }

  01200	e8bd4030	 ldmia       sp!, {r4, r5, lr}
  01204	e12fff1e	 bx          lr
  01208		 |$LN17@PDD_SendRn|
  01208		 |$LN18@PDD_SendRn|
  01208	00000000	 DCD         |??_C@_1EI@ONHOMNHJ@?$AA?9?$AAR?$AAN?$AAD?$AAI?$AAS?$AA_?$AAU?$AAS?$AAB?$AAF?$AAN?$AA_?$AAP?$AAD?$AAD?$AA_?$AAS?$AAe?$AAn?$AAd?$AAR?$AAn?$AAd?$AAi?$AAs?$AAM?$AAe?$AAs?$AAs?$AAa?$AAg@|
  0120c		 |$LN19@PDD_SendRn|
  0120c	00000000	 DCD         |g_pddInterface|
  01210		 |$LN20@PDD_SendRn|
  01210	00000000	 DCD         |??_C@_1HE@PDJOEOPK@?$AA?$CL?$AAR?$AAN?$AAD?$AAI?$AAS?$AA_?$AAU?$AAS?$AAB?$AAF?$AAN?$AA_?$AAP?$AAD?$AAD?$AA_?$AAS?$AAe?$AAn?$AAd?$AAR?$AAn?$AAd?$AAi?$AAs?$AAM?$AAe?$AAs?$AAs?$AAa?$AAg@|
  01214		 |$LN21@PDD_SendRn|
  01214	00000000	 DCD         |g_InterruptData|
  01218		 |$LN22@PDD_SendRn|
  01218	00000000	 DCD         |g_EP3Transfer|
  0121c		 |$LN23@PDD_SendRn|
  0121c	00000000	 DCD         |??_C@_1GK@OCDDHLML@?$AA?$CL?$AAR?$AAN?$AAD?$AAI?$AAS?$AA_?$AAU?$AAS?$AAB?$AAF?$AAN?$AA_?$AAP?$AAD?$AAD?$AA_?$AAS?$AAe?$AAn?$AAd?$AAR?$AAn?$AAd?$AAi?$AAs?$AAM?$AAe?$AAs?$AAs?$AAa?$AAg@|
  01220		 |$LN24@PDD_SendRn|
  01220	00000000	 DCD         |g_RndisKitlDev|
  01224		 |$LN25@PDD_SendRn|
  01224	00000000	 DCD         |??_C@_1EI@LPKHCIID@?$AA?$CL?$AAR?$AAN?$AAD?$AAI?$AAS?$AA_?$AAU?$AAS?$AAB?$AAF?$AAN?$AA_?$AAP?$AAD?$AAD?$AA_?$AAS?$AAe?$AAn?$AAd?$AAR?$AAn?$AAd?$AAi?$AAs?$AAM?$AAe?$AAs?$AAs?$AAa?$AAg@|
  01228		 |$LN26@PDD_SendRn|
  01228	00000000	 DCD         |dpCurSettings|
  0122c		 |$M47798|

			 ENDP  ; |PDD_SendRndisMessage|

	EXPORT	|??_C@_1EG@FPFPIBJG@?$AA?9?$AAR?$AAN?$AAD?$AAI?$AAS?$AA_?$AAU?$AAS?$AAB?$AAF?$AAN?$AA_?$AAP?$AAD?$AAD?$AA_?$AAS?$AAe?$AAn?$AAd?$AAR?$AAn?$AAd?$AAi?$AAs?$AAP?$AAa?$AAc?$AAk?$AAe?$AAt@| [ DATA ] ; `string'
	EXPORT	|??_C@_1FG@MIKLDILD@?$AA?$CK?$AA?$CK?$AA?$CK?$AA?$CK?$AAM?$AAu?$AAl?$AAt?$AAi?$AAp?$AAl?$AAe?$AA?5?$AAp?$AAe?$AAn?$AAd?$AAi?$AAn?$AAg?$AA?5?$AAs?$AAe?$AAn?$AAd?$AA?5?$AAr?$AAn?$AAd?$AAi?$AAs?$AA?5@| [ DATA ] ; `string'
	EXPORT	|??_C@_1EI@PJCOBAOE@?$AAG?$AAo?$AAt?$AA?5?$AAS?$AAe?$AAn?$AAd?$AAP?$AAa?$AAc?$AAk?$AAe?$AAt?$AA?5?$AAR?$AAe?$AAq?$AAu?$AAe?$AAs?$AAt?$AA?5?$AA?$FL?$AA?$CF?$AAd?$AA?5?$AAb?$AAy?$AAt?$AAe?$AAs@| [ DATA ] ; `string'
	EXPORT	|??_C@_1EG@FDHKBGKN@?$AA?$CL?$AAR?$AAN?$AAD?$AAI?$AAS?$AA_?$AAU?$AAS?$AAB?$AAF?$AAN?$AA_?$AAP?$AAD?$AAD?$AA_?$AAS?$AAe?$AAn?$AAd?$AAR?$AAn?$AAd?$AAi?$AAs?$AAP?$AAa?$AAc?$AAk?$AAe?$AAt@| [ DATA ] ; `string'

  00060			 AREA	 |.pdata|, PDATA
|$T47824| DCD	|$LN14@PDD_SendRn@2|
	DCD	0x40004601

  00000			 AREA	 |.rdata|, DATA, READONLY
|??_C@_1EG@FPFPIBJG@?$AA?9?$AAR?$AAN?$AAD?$AAI?$AAS?$AA_?$AAU?$AAS?$AAB?$AAF?$AAN?$AA_?$AAP?$AAD?$AAD?$AA_?$AAS?$AAe?$AAn?$AAd?$AAR?$AAn?$AAd?$AAi?$AAs?$AAP?$AAa?$AAc?$AAk?$AAe?$AAt@| DCB "-"
	DCB	0x0, "R", 0x0, "N", 0x0, "D", 0x0, "I", 0x0, "S", 0x0, "_"
	DCB	0x0, "U", 0x0, "S", 0x0, "B", 0x0, "F", 0x0, "N", 0x0, "_"
	DCB	0x0, "P", 0x0, "D", 0x0, "D", 0x0, "_", 0x0, "S", 0x0, "e"
	DCB	0x0, "n", 0x0, "d", 0x0, "R", 0x0, "n", 0x0, "d", 0x0, "i"
	DCB	0x0, "s", 0x0, "P", 0x0, "a", 0x0, "c", 0x0, "k", 0x0, "e"
	DCB	0x0, "t", 0x0, 0xd, 0x0, 0xa, 0x0, 0x0, 0x0 ; `string'

  00000			 AREA	 |.rdata|, DATA, READONLY
|??_C@_1FG@MIKLDILD@?$AA?$CK?$AA?$CK?$AA?$CK?$AA?$CK?$AAM?$AAu?$AAl?$AAt?$AAi?$AAp?$AAl?$AAe?$AA?5?$AAp?$AAe?$AAn?$AAd?$AAi?$AAn?$AAg?$AA?5?$AAs?$AAe?$AAn?$AAd?$AA?5?$AAr?$AAn?$AAd?$AAi?$AAs?$AA?5@| DCB "*"
	DCB	0x0, "*", 0x0, "*", 0x0, "*", 0x0, "M", 0x0, "u", 0x0, "l"
	DCB	0x0, "t", 0x0, "i", 0x0, "p", 0x0, "l", 0x0, "e", 0x0, " "
	DCB	0x0, "p", 0x0, "e", 0x0, "n", 0x0, "d", 0x0, "i", 0x0, "n"
	DCB	0x0, "g", 0x0, " ", 0x0, "s", 0x0, "e", 0x0, "n", 0x0, "d"
	DCB	0x0, " ", 0x0, "r", 0x0, "n", 0x0, "d", 0x0, "i", 0x0, "s"
	DCB	0x0, " ", 0x0, "p", 0x0, "a", 0x0, "c", 0x0, "k", 0x0, "e"
	DCB	0x0, "t", 0x0, "!", 0x0, "!", 0x0, 0xd, 0x0, 0xa, 0x0, 0x0
	DCB	0x0					; `string'

  00000			 AREA	 |.rdata|, DATA, READONLY
|??_C@_1EI@PJCOBAOE@?$AAG?$AAo?$AAt?$AA?5?$AAS?$AAe?$AAn?$AAd?$AAP?$AAa?$AAc?$AAk?$AAe?$AAt?$AA?5?$AAR?$AAe?$AAq?$AAu?$AAe?$AAs?$AAt?$AA?5?$AA?$FL?$AA?$CF?$AAd?$AA?5?$AAb?$AAy?$AAt?$AAe?$AAs@| DCB "G"
	DCB	0x0, "o", 0x0, "t", 0x0, " ", 0x0, "S", 0x0, "e", 0x0, "n"
	DCB	0x0, "d", 0x0, "P", 0x0, "a", 0x0, "c", 0x0, "k", 0x0, "e"
	DCB	0x0, "t", 0x0, " ", 0x0, "R", 0x0, "e", 0x0, "q", 0x0, "u"
	DCB	0x0, "e", 0x0, "s", 0x0, "t", 0x0, " ", 0x0, "[", 0x0, "%"
	DCB	0x0, "d", 0x0, " ", 0x0, "b", 0x0, "y", 0x0, "t", 0x0, "e"
	DCB	0x0, "s", 0x0, "]", 0x0, 0xd, 0x0, 0xa, 0x0, 0x0, 0x0 ; `string'

  00000			 AREA	 |.rdata|, DATA, READONLY
|??_C@_1EG@FDHKBGKN@?$AA?$CL?$AAR?$AAN?$AAD?$AAI?$AAS?$AA_?$AAU?$AAS?$AAB?$AAF?$AAN?$AA_?$AAP?$AAD?$AAD?$AA_?$AAS?$AAe?$AAn?$AAd?$AAR?$AAn?$AAd?$AAi?$AAs?$AAP?$AAa?$AAc?$AAk?$AAe?$AAt@| DCB "+"
	DCB	0x0, "R", 0x0, "N", 0x0, "D", 0x0, "I", 0x0, "S", 0x0, "_"
	DCB	0x0, "U", 0x0, "S", 0x0, "B", 0x0, "F", 0x0, "N", 0x0, "_"
	DCB	0x0, "P", 0x0, "D", 0x0, "D", 0x0, "_", 0x0, "S", 0x0, "e"
	DCB	0x0, "n", 0x0, "d", 0x0, "R", 0x0, "n", 0x0, "d", 0x0, "i"
	DCB	0x0, "s", 0x0, "P", 0x0, "a", 0x0, "c", 0x0, "k", 0x0, "e"
	DCB	0x0, "t", 0x0, 0xd, 0x0, 0xa, 0x0, 0x0, 0x0 ; `string'
; Function compile flags: /Ogtp

  0122c			 AREA	 |.text|, CODE, ARM

  0122c		 |PDD_SendRndisPacket| PROC

; 956  : {    

  0122c		 |$LN14@PDD_SendRn@2|
  0122c	e92d40f0	 stmdb       sp!, {r4 - r7, lr}
  01230		 |$M47821|
  01230	e1a04000	 mov         r4, r0

; 957  :     OALMSG(OAL_ETHER&&OAL_FUNC, (L"+RNDIS_USBFN_PDD_SendRndisPacket\r\n"));

  01234	e59f6104	 ldr         r6, [pc, #0x104]
  01238	e5962440	 ldr         r2, [r6, #0x440]
  0123c	e3120a02	 tst         r2, #2, 20
  01240	0a000004	 beq         |$LN4@PDD_SendRn@2|
  01244	e3120004	 tst         r2, #4
  01248	0a000002	 beq         |$LN4@PDD_SendRn@2|
  0124c	e59f00e8	 ldr         r0, [pc, #0xE8]
  01250	eb000000	 bl          NKDbgPrintfW
  01254	e5962440	 ldr         r2, [r6, #0x440]
  01258		 |$LN4@PDD_SendRn@2|

; 958  :     OALMSG(OAL_ETHER&&OAL_FUNC, (
; 959  :         L"Got SendPacket Request [%d bytes]\r\n", pDataWrapper->dwDataSize
; 960  :     ));

  01258	e3120a02	 tst         r2, #2, 20
  0125c	0a000005	 beq         |$LN6@PDD_SendRn@2|
  01260	e3120004	 tst         r2, #4
  01264	0a000003	 beq         |$LN6@PDD_SendRn@2|
  01268	e594100c	 ldr         r1, [r4, #0xC]
  0126c	e59f00c4	 ldr         r0, [pc, #0xC4]
  01270	eb000000	 bl          NKDbgPrintfW
  01274	e5962440	 ldr         r2, [r6, #0x440]
  01278		 |$LN6@PDD_SendRn@2|

; 961  : 
; 962  :     if (g_RndisKitlDev.pTxDataWrapper != NULL) {

  01278	e59f50b4	 ldr         r5, [pc, #0xB4]
  0127c	e595343c	 ldr         r3, [r5, #0x43C]
  01280	e3530000	 cmp         r3, #0
  01284	0a000004	 beq         |$LN1@PDD_SendRn@2|

; 963  :         //
; 964  :         // BAD!
; 965  :         // This should never happen!!
; 966  :         // Return the packet immediately..
; 967  :         //
; 968  :         OALMSG(OAL_ERROR, (L"****Multiple pending send rndis packet!!\r\n"));

  01288	e3120001	 tst         r2, #1
  0128c	159f009c	 ldrne       r0, [pc, #0x9C]
  01290	1b000000	 blne        NKDbgPrintfW

; 969  :         MddSendRndisPacketComplete(pDataWrapper);

  01294	e1a00004	 mov         r0, r4
  01298	eb000000	 bl          MddSendRndisPacketComplete
  0129c		 |$LN1@PDD_SendRn@2|

; 970  :     }
; 971  : 
; 972  :     // save the data wrapper pointer so we can return later it in TxComplete call
; 973  :     g_RndisKitlDev.pTxDataWrapper = pDataWrapper;
; 974  : 
; 975  :     // g_EP2Transfer.dwCallerPermissions;
; 976  :     g_EP2Transfer.dwFlags = USB_REQUEST_DEVICE_TO_HOST;

  0129c	e59f2088	 ldr         r2, [pc, #0x88]
  012a0	e3a03080	 mov         r3, #0x80
  012a4	e585443c	 str         r4, [r5, #0x43C]
  012a8	e5823000	 str         r3, [r2]

; 977  :     g_EP2Transfer.pvBuffer = pDataWrapper->pucData;

  012ac	e5943008	 ldr         r3, [r4, #8]

; 978  :     // g_EP2Transfer.dwBufferPhysicalAddress; // not used
; 979  :     g_EP2Transfer.cbBuffer = pDataWrapper->dwDataSize;
; 980  :     g_EP2Transfer.cbTransferred = 0;
; 981  :     g_EP2Transfer.dwUsbError = UFN_NOT_COMPLETE_ERROR; // Possible values are in usbfntypes.h
; 982  :     g_EP2Transfer.pvPddData = NULL;
; 983  :     g_EP2Transfer.pvPddTransferInfo = NULL;
; 984  : 
; 985  :     g_EP2TransferState = TS_SENDING_PACKET;
; 986  :     g_pddInterface.pfnIssueTransfer( g_pddInterface.pvPddContext, 2, &g_EP2Transfer );

  012b0	e3a0ec01	 mov         lr, #1, 24
  012b4	e3a00000	 mov         r0, #0
  012b8	e5823004	 str         r3, [r2, #4]
  012bc	e594300c	 ldr         r3, [r4, #0xC]
  012c0	e59f1060	 ldr         r1, [pc, #0x60]
  012c4	e59f5058	 ldr         r5, [pc, #0x58]
  012c8	e582300c	 str         r3, [r2, #0xC]
  012cc	e38e3003	 orr         r3, lr, #3
  012d0	e5820010	 str         r0, [r2, #0x10]
  012d4	e5823014	 str         r3, [r2, #0x14]
  012d8	e3a03000	 mov         r3, #0
  012dc	e5823018	 str         r3, [r2, #0x18]
  012e0	e591000c	 ldr         r0, [r1, #0xC]
  012e4	e5914030	 ldr         r4, [r1, #0x30]
  012e8	e3a03000	 mov         r3, #0
  012ec	e3a07004	 mov         r7, #4
  012f0	e582301c	 str         r3, [r2, #0x1C]
  012f4	e3a01002	 mov         r1, #2
  012f8	e5857000	 str         r7, [r5]
  012fc	e1a0e00f	 mov         lr, pc
  01300	e12fff14	 bx          r4

; 987  : 
; 988  :     OALMSG(OAL_ETHER&&OAL_FUNC, (L"-RNDIS_USBFN_PDD_SendRndisPacket\r\n"));

  01304	e5963440	 ldr         r3, [r6, #0x440]
  01308	e3130a02	 tst         r3, #2, 20
  0130c	13130004	 tstne       r3, #4
  01310	159f0008	 ldrne       r0, [pc, #8]
  01314	1b000000	 blne        NKDbgPrintfW

; 989  : }

  01318	e8bd40f0	 ldmia       sp!, {r4 - r7, lr}
  0131c	e12fff1e	 bx          lr
  01320		 |$LN15@PDD_SendRn@2|
  01320		 |$LN16@PDD_SendRn@2|
  01320	00000000	 DCD         |??_C@_1EG@FPFPIBJG@?$AA?9?$AAR?$AAN?$AAD?$AAI?$AAS?$AA_?$AAU?$AAS?$AAB?$AAF?$AAN?$AA_?$AAP?$AAD?$AAD?$AA_?$AAS?$AAe?$AAn?$AAd?$AAR?$AAn?$AAd?$AAi?$AAs?$AAP?$AAa?$AAc?$AAk?$AAe?$AAt@|
  01324		 |$LN17@PDD_SendRn@2|
  01324	00000000	 DCD         |g_EP2TransferState|
  01328		 |$LN18@PDD_SendRn@2|
  01328	00000000	 DCD         |g_pddInterface|
  0132c		 |$LN19@PDD_SendRn@2|
  0132c	00000000	 DCD         |g_EP2Transfer|
  01330		 |$LN20@PDD_SendRn@2|
  01330	00000000	 DCD         |??_C@_1FG@MIKLDILD@?$AA?$CK?$AA?$CK?$AA?$CK?$AA?$CK?$AAM?$AAu?$AAl?$AAt?$AAi?$AAp?$AAl?$AAe?$AA?5?$AAp?$AAe?$AAn?$AAd?$AAi?$AAn?$AAg?$AA?5?$AAs?$AAe?$AAn?$AAd?$AA?5?$AAr?$AAn?$AAd?$AAi?$AAs?$AA?5@|
  01334		 |$LN21@PDD_SendRn@2|
  01334	00000000	 DCD         |g_RndisKitlDev|
  01338		 |$LN22@PDD_SendRn@2|
  01338	00000000	 DCD         |??_C@_1EI@PJCOBAOE@?$AAG?$AAo?$AAt?$AA?5?$AAS?$AAe?$AAn?$AAd?$AAP?$AAa?$AAc?$AAk?$AAe?$AAt?$AA?5?$AAR?$AAe?$AAq?$AAu?$AAe?$AAs?$AAt?$AA?5?$AA?$FL?$AA?$CF?$AAd?$AA?5?$AAb?$AAy?$AAt?$AAe?$AAs@|
  0133c		 |$LN23@PDD_SendRn@2|
  0133c	00000000	 DCD         |??_C@_1EG@FDHKBGKN@?$AA?$CL?$AAR?$AAN?$AAD?$AAI?$AAS?$AA_?$AAU?$AAS?$AAB?$AAF?$AAN?$AA_?$AAP?$AAD?$AAD?$AA_?$AAS?$AAe?$AAn?$AAd?$AAR?$AAn?$AAd?$AAi?$AAs?$AAP?$AAa?$AAc?$AAk?$AAe?$AAt@|
  01340		 |$LN24@PDD_SendRn@2|
  01340	00000000	 DCD         |dpCurSettings|
  01344		 |$M47822|

			 ENDP  ; |PDD_SendRndisPacket|

	EXPORT	|??_C@_1CO@MBMDAIGD@?$AA?9?$AAR?$AAN?$AAD?$AAI?$AAS?$AA_?$AAU?$AAS?$AAB?$AAF?$AAN?$AA_?$AAP?$AAD?$AAD?$AA_?$AAS?$AAe?$AAt?$AA?$AN?$AA?6?$AA?$AA@| [ DATA ] ; `string'
	EXPORT	|??_C@_1DO@PIKCPFME@?$AAP?$AAD?$AAD?$AA_?$AAS?$AAe?$AAt?$AA?3?$AAU?$AAn?$AAk?$AAn?$AAo?$AAw?$AAn?$AA?5?$AAr?$AAe?$AAq?$AAu?$AAe?$AAs?$AAt?$AA?3?$AA0?$AAx?$AA?$CF?$AAx?$AA?$AN?$AA?6?$AA?$AA@| [ DATA ] ; `string'
	EXPORT	|??_C@_1DK@PGGKHLLK@?$AAP?$AAD?$AAD?$AA_?$AAS?$AAe?$AAt?$AA?3?$AAR?$AAE?$AAQ?$AA_?$AAI?$AAD?$AA_?$AAD?$AAI?$AAS?$AAA?$AAB?$AAL?$AAE?$AA_?$AAI?$AAN?$AAT?$AA?$AN?$AA?6?$AA?$AA@| [ DATA ] ; `string'
	EXPORT	|??_C@_1DI@KFPGHMKG@?$AAP?$AAD?$AAD?$AA_?$AAS?$AAe?$AAt?$AA?3?$AAR?$AAE?$AAQ?$AA_?$AAI?$AAD?$AA_?$AAE?$AAN?$AAA?$AAB?$AAL?$AAE?$AA_?$AAI?$AAN?$AAT?$AA?$AN?$AA?6?$AA?$AA@| [ DATA ] ; `string'
	EXPORT	|??_C@_1DI@MFNCMIPE@?$AAP?$AAD?$AAD?$AA_?$AAS?$AAe?$AAt?$AA?3?$AAR?$AAE?$AAQ?$AA_?$AAI?$AAD?$AA_?$AAS?$AAO?$AAF?$AAT?$AA_?$AAR?$AAE?$AAS?$AAE?$AAT?$AA?$AN?$AA?6?$AA?$AA@| [ DATA ] ; `string'
	EXPORT	|??_C@_1DI@LPFOEPEC@?$AAP?$AAD?$AAD?$AA_?$AAS?$AAe?$AAt?$AA?3?$AAR?$AAE?$AAQ?$AA_?$AAI?$AAD?$AA_?$AAH?$AAA?$AAR?$AAD?$AA_?$AAR?$AAE?$AAS?$AAE?$AAT?$AA?$AN?$AA?6?$AA?$AA@| [ DATA ] ; `string'
	EXPORT	|??_C@_1CO@BKAHFHEI@?$AA?$CL?$AAR?$AAN?$AAD?$AAI?$AAS?$AA_?$AAU?$AAS?$AAB?$AAF?$AAN?$AA_?$AAP?$AAD?$AAD?$AA_?$AAS?$AAe?$AAt?$AA?$AN?$AA?6?$AA?$AA@| [ DATA ] ; `string'

  00068			 AREA	 |.pdata|, PDATA
|$T47867| DCD	|$LN34@PDD_Set|
	DCD	0x40004b01

  00000			 AREA	 |.rdata|, DATA, READONLY
|??_C@_1CO@MBMDAIGD@?$AA?9?$AAR?$AAN?$AAD?$AAI?$AAS?$AA_?$AAU?$AAS?$AAB?$AAF?$AAN?$AA_?$AAP?$AAD?$AAD?$AA_?$AAS?$AAe?$AAt?$AA?$AN?$AA?6?$AA?$AA@| DCB "-"
	DCB	0x0, "R", 0x0, "N", 0x0, "D", 0x0, "I", 0x0, "S", 0x0, "_"
	DCB	0x0, "U", 0x0, "S", 0x0, "B", 0x0, "F", 0x0, "N", 0x0, "_"
	DCB	0x0, "P", 0x0, "D", 0x0, "D", 0x0, "_", 0x0, "S", 0x0, "e"
	DCB	0x0, "t", 0x0, 0xd, 0x0, 0xa, 0x0, 0x0, 0x0 ; `string'

  00000			 AREA	 |.rdata|, DATA, READONLY
|??_C@_1DO@PIKCPFME@?$AAP?$AAD?$AAD?$AA_?$AAS?$AAe?$AAt?$AA?3?$AAU?$AAn?$AAk?$AAn?$AAo?$AAw?$AAn?$AA?5?$AAr?$AAe?$AAq?$AAu?$AAe?$AAs?$AAt?$AA?3?$AA0?$AAx?$AA?$CF?$AAx?$AA?$AN?$AA?6?$AA?$AA@| DCB "P"
	DCB	0x0, "D", 0x0, "D", 0x0, "_", 0x0, "S", 0x0, "e", 0x0, "t"
	DCB	0x0, ":", 0x0, "U", 0x0, "n", 0x0, "k", 0x0, "n", 0x0, "o"
	DCB	0x0, "w", 0x0, "n", 0x0, " ", 0x0, "r", 0x0, "e", 0x0, "q"
	DCB	0x0, "u", 0x0, "e", 0x0, "s", 0x0, "t", 0x0, ":", 0x0, "0"
	DCB	0x0, "x", 0x0, "%", 0x0, "x", 0x0, 0xd, 0x0, 0xa, 0x0, 0x0
	DCB	0x0					; `string'

  00000			 AREA	 |.rdata|, DATA, READONLY
|??_C@_1DK@PGGKHLLK@?$AAP?$AAD?$AAD?$AA_?$AAS?$AAe?$AAt?$AA?3?$AAR?$AAE?$AAQ?$AA_?$AAI?$AAD?$AA_?$AAD?$AAI?$AAS?$AAA?$AAB?$AAL?$AAE?$AA_?$AAI?$AAN?$AAT?$AA?$AN?$AA?6?$AA?$AA@| DCB "P"
	DCB	0x0, "D", 0x0, "D", 0x0, "_", 0x0, "S", 0x0, "e", 0x0, "t"
	DCB	0x0, ":", 0x0, "R", 0x0, "E", 0x0, "Q", 0x0, "_", 0x0, "I"
	DCB	0x0, "D", 0x0, "_", 0x0, "D", 0x0, "I", 0x0, "S", 0x0, "A"
	DCB	0x0, "B", 0x0, "L", 0x0, "E", 0x0, "_", 0x0, "I", 0x0, "N"
	DCB	0x0, "T", 0x0, 0xd, 0x0, 0xa, 0x0, 0x0, 0x0 ; `string'

  00000			 AREA	 |.rdata|, DATA, READONLY
|??_C@_1DI@KFPGHMKG@?$AAP?$AAD?$AAD?$AA_?$AAS?$AAe?$AAt?$AA?3?$AAR?$AAE?$AAQ?$AA_?$AAI?$AAD?$AA_?$AAE?$AAN?$AAA?$AAB?$AAL?$AAE?$AA_?$AAI?$AAN?$AAT?$AA?$AN?$AA?6?$AA?$AA@| DCB "P"
	DCB	0x0, "D", 0x0, "D", 0x0, "_", 0x0, "S", 0x0, "e", 0x0, "t"
	DCB	0x0, ":", 0x0, "R", 0x0, "E", 0x0, "Q", 0x0, "_", 0x0, "I"
	DCB	0x0, "D", 0x0, "_", 0x0, "E", 0x0, "N", 0x0, "A", 0x0, "B"
	DCB	0x0, "L", 0x0, "E", 0x0, "_", 0x0, "I", 0x0, "N", 0x0, "T"
	DCB	0x0, 0xd, 0x0, 0xa, 0x0, 0x0, 0x0	; `string'

  00000			 AREA	 |.rdata|, DATA, READONLY
|??_C@_1DI@MFNCMIPE@?$AAP?$AAD?$AAD?$AA_?$AAS?$AAe?$AAt?$AA?3?$AAR?$AAE?$AAQ?$AA_?$AAI?$AAD?$AA_?$AAS?$AAO?$AAF?$AAT?$AA_?$AAR?$AAE?$AAS?$AAE?$AAT?$AA?$AN?$AA?6?$AA?$AA@| DCB "P"
	DCB	0x0, "D", 0x0, "D", 0x0, "_", 0x0, "S", 0x0, "e", 0x0, "t"
	DCB	0x0, ":", 0x0, "R", 0x0, "E", 0x0, "Q", 0x0, "_", 0x0, "I"
	DCB	0x0, "D", 0x0, "_", 0x0, "S", 0x0, "O", 0x0, "F", 0x0, "T"
	DCB	0x0, "_", 0x0, "R", 0x0, "E", 0x0, "S", 0x0, "E", 0x0, "T"
	DCB	0x0, 0xd, 0x0, 0xa, 0x0, 0x0, 0x0	; `string'

  00000			 AREA	 |.rdata|, DATA, READONLY
|??_C@_1DI@LPFOEPEC@?$AAP?$AAD?$AAD?$AA_?$AAS?$AAe?$AAt?$AA?3?$AAR?$AAE?$AAQ?$AA_?$AAI?$AAD?$AA_?$AAH?$AAA?$AAR?$AAD?$AA_?$AAR?$AAE?$AAS?$AAE?$AAT?$AA?$AN?$AA?6?$AA?$AA@| DCB "P"
	DCB	0x0, "D", 0x0, "D", 0x0, "_", 0x0, "S", 0x0, "e", 0x0, "t"
	DCB	0x0, ":", 0x0, "R", 0x0, "E", 0x0, "Q", 0x0, "_", 0x0, "I"
	DCB	0x0, "D", 0x0, "_", 0x0, "H", 0x0, "A", 0x0, "R", 0x0, "D"
	DCB	0x0, "_", 0x0, "R", 0x0, "E", 0x0, "S", 0x0, "E", 0x0, "T"
	DCB	0x0, 0xd, 0x0, 0xa, 0x0, 0x0, 0x0	; `string'

  00000			 AREA	 |.rdata|, DATA, READONLY
|??_C@_1CO@BKAHFHEI@?$AA?$CL?$AAR?$AAN?$AAD?$AAI?$AAS?$AA_?$AAU?$AAS?$AAB?$AAF?$AAN?$AA_?$AAP?$AAD?$AAD?$AA_?$AAS?$AAe?$AAt?$AA?$AN?$AA?6?$AA?$AA@| DCB "+"
	DCB	0x0, "R", 0x0, "N", 0x0, "D", 0x0, "I", 0x0, "S", 0x0, "_"
	DCB	0x0, "U", 0x0, "S", 0x0, "B", 0x0, "F", 0x0, "N", 0x0, "_"
	DCB	0x0, "P", 0x0, "D", 0x0, "D", 0x0, "_", 0x0, "S", 0x0, "e"
	DCB	0x0, "t", 0x0, 0xd, 0x0, 0xa, 0x0, 0x0, 0x0 ; `string'
; Function compile flags: /Ogtp

  01344			 AREA	 |.text|, CODE, ARM

  01344		 |PDD_Set| PROC

; 1014 : {

  01344		 |$LN34@PDD_Set|
  01344	e92d4070	 stmdb       sp!, {r4 - r6, lr}
  01348		 |$M47864|
  01348	e1a06000	 mov         r6, r0

; 1015 :     BOOL fRet = TRUE;
; 1016 : 
; 1017 :     OALMSG(OAL_ETHER&&OAL_FUNC, (L"+RNDIS_USBFN_PDD_Set\r\n"));

  0134c	e59f4118	 ldr         r4, [pc, #0x118]
  01350	e3a05001	 mov         r5, #1
  01354	e5942440	 ldr         r2, [r4, #0x440]
  01358	e3120a02	 tst         r2, #2, 20
  0135c	0a000004	 beq         |$LN10@PDD_Set|
  01360	e3120004	 tst         r2, #4
  01364	0a000002	 beq         |$LN10@PDD_Set|
  01368	e59f00f8	 ldr         r0, [pc, #0xF8]
  0136c	eb000000	 bl          NKDbgPrintfW
  01370	e5942440	 ldr         r2, [r4, #0x440]
  01374		 |$LN10@PDD_Set|

; 1018 :     // TODO: finish all requests here
; 1019 :     switch(uiRequestId) {

  01374	e2461001	 sub         r1, r6, #1
  01378	e3510003	 cmp         r1, #3
  0137c	8a000023	 bhi         |$LN1@PDD_Set|
  01380	e28f3004	 add         r3, pc, #4
  01384	e7d33001	 ldrb        r3, [r3, +r1]
  01388	e08ff003	 add         pc, pc, r3
  0138c		 |$LN27@PDD_Set|
  0138c		 |$LN26@PDD_Set|
  0138c		 |$LN28@PDD_Set|
  0138c	00ed		 DCB         0x0
  0138d		 |$LN29@PDD_Set|
  0138d	20ed		 DCB         0x20
  0138e		 |$LN30@PDD_Set|
  0138e	40ed		 DCB         0x40
  0138f		 |$LN31@PDD_Set|
  0138f	60ed		 DCB         0x60
  01390		 |$LN5@PDD_Set|

; 1020 :     case REQ_ID_HARD_RESET:
; 1021 :         OALMSG(OAL_ETHER&&OAL_FUNC, (L"PDD_Set:REQ_ID_HARD_RESET\r\n"));

  01390	e3120a02	 tst         r2, #2, 20
  01394	0a000026	 beq         |$LN6@PDD_Set|
  01398	e3120004	 tst         r2, #4
  0139c	0a000024	 beq         |$LN6@PDD_Set|
  013a0	e59f00bc	 ldr         r0, [pc, #0xBC]
  013a4	eb000000	 bl          NKDbgPrintfW

; 1022 :         break;

  013a8	e5942440	 ldr         r2, [r4, #0x440]
  013ac	ea000020	 b           |$LN6@PDD_Set|
  013b0		 |$LN4@PDD_Set|

; 1023 :     case REQ_ID_SOFT_RESET:
; 1024 :         OALMSG(OAL_ETHER&&OAL_FUNC, (L"PDD_Set:REQ_ID_SOFT_RESET\r\n"));

  013b0	e3120a02	 tst         r2, #2, 20
  013b4	0a00001e	 beq         |$LN6@PDD_Set|
  013b8	e3120004	 tst         r2, #4
  013bc	0a00001c	 beq         |$LN6@PDD_Set|
  013c0	e59f0098	 ldr         r0, [pc, #0x98]
  013c4	eb000000	 bl          NKDbgPrintfW

; 1025 :         break;

  013c8	e5942440	 ldr         r2, [r4, #0x440]
  013cc	ea000018	 b           |$LN6@PDD_Set|
  013d0		 |$LN3@PDD_Set|

; 1026 :     case REQ_ID_ENABLE_INT:
; 1027 :         OALMSG(OAL_ETHER&&OAL_FUNC, (L"PDD_Set:REQ_ID_ENABLE_INT\r\n"));

  013d0	e3120a02	 tst         r2, #2, 20
  013d4	0a000016	 beq         |$LN6@PDD_Set|
  013d8	e3120004	 tst         r2, #4
  013dc	0a000014	 beq         |$LN6@PDD_Set|
  013e0	e59f0074	 ldr         r0, [pc, #0x74]
  013e4	eb000000	 bl          NKDbgPrintfW

; 1028 :         break;

  013e8	e5942440	 ldr         r2, [r4, #0x440]
  013ec	ea000010	 b           |$LN6@PDD_Set|
  013f0		 |$LN2@PDD_Set|

; 1029 :     case REQ_ID_DISABLE_INT:
; 1030 :         OALMSG(OAL_ETHER&&OAL_FUNC, (L"PDD_Set:REQ_ID_DISABLE_INT\r\n"));

  013f0	e3120a02	 tst         r2, #2, 20
  013f4	0a00000e	 beq         |$LN6@PDD_Set|
  013f8	e3120004	 tst         r2, #4
  013fc	0a00000c	 beq         |$LN6@PDD_Set|
  01400	e59f0050	 ldr         r0, [pc, #0x50]
  01404	eb000000	 bl          NKDbgPrintfW

; 1031 :         break;

  01408	e5942440	 ldr         r2, [r4, #0x440]
  0140c	ea000008	 b           |$LN6@PDD_Set|
  01410		 |$LN1@PDD_Set|

; 1032 :     default:
; 1033 :         OALMSG(OAL_ETHER&&OAL_FUNC, (
; 1034 :             L"PDD_Set:Unknown request:0x%x\r\n", uiRequestId
; 1035 :         ));

  01410	e3120a02	 tst         r2, #2, 20
  01414	0a000005	 beq         |$LN20@PDD_Set|
  01418	e3120004	 tst         r2, #4
  0141c	0a000003	 beq         |$LN20@PDD_Set|
  01420	e59f002c	 ldr         r0, [pc, #0x2C]
  01424	e1a01006	 mov         r1, r6
  01428	eb000000	 bl          NKDbgPrintfW
  0142c	e5942440	 ldr         r2, [r4, #0x440]
  01430		 |$LN20@PDD_Set|

; 1036 :         fRet = FALSE;

  01430	e3a05000	 mov         r5, #0
  01434		 |$LN6@PDD_Set|

; 1037 :         break;
; 1038 :     }
; 1039 :     
; 1040 :     OALMSG(OAL_ETHER&&OAL_FUNC, (L"-RNDIS_USBFN_PDD_Set\r\n"));

  01434	e3120a02	 tst         r2, #2, 20
  01438	13120004	 tstne       r2, #4
  0143c	159f000c	 ldrne       r0, [pc, #0xC]
  01440	1b000000	 blne        NKDbgPrintfW

; 1041 :     return fRet;
; 1042 : }

  01444	e1a00005	 mov         r0, r5
  01448	e8bd4070	 ldmia       sp!, {r4 - r6, lr}
  0144c	e12fff1e	 bx          lr
  01450		 |$LN35@PDD_Set|
  01450		 |$LN36@PDD_Set|
  01450	00000000	 DCD         |??_C@_1CO@MBMDAIGD@?$AA?9?$AAR?$AAN?$AAD?$AAI?$AAS?$AA_?$AAU?$AAS?$AAB?$AAF?$AAN?$AA_?$AAP?$AAD?$AAD?$AA_?$AAS?$AAe?$AAt?$AA?$AN?$AA?6?$AA?$AA@|
  01454		 |$LN37@PDD_Set|
  01454	00000000	 DCD         |??_C@_1DO@PIKCPFME@?$AAP?$AAD?$AAD?$AA_?$AAS?$AAe?$AAt?$AA?3?$AAU?$AAn?$AAk?$AAn?$AAo?$AAw?$AAn?$AA?5?$AAr?$AAe?$AAq?$AAu?$AAe?$AAs?$AAt?$AA?3?$AA0?$AAx?$AA?$CF?$AAx?$AA?$AN?$AA?6?$AA?$AA@|
  01458		 |$LN38@PDD_Set|
  01458	00000000	 DCD         |??_C@_1DK@PGGKHLLK@?$AAP?$AAD?$AAD?$AA_?$AAS?$AAe?$AAt?$AA?3?$AAR?$AAE?$AAQ?$AA_?$AAI?$AAD?$AA_?$AAD?$AAI?$AAS?$AAA?$AAB?$AAL?$AAE?$AA_?$AAI?$AAN?$AAT?$AA?$AN?$AA?6?$AA?$AA@|
  0145c		 |$LN39@PDD_Set|
  0145c	00000000	 DCD         |??_C@_1DI@KFPGHMKG@?$AAP?$AAD?$AAD?$AA_?$AAS?$AAe?$AAt?$AA?3?$AAR?$AAE?$AAQ?$AA_?$AAI?$AAD?$AA_?$AAE?$AAN?$AAA?$AAB?$AAL?$AAE?$AA_?$AAI?$AAN?$AAT?$AA?$AN?$AA?6?$AA?$AA@|
  01460		 |$LN40@PDD_Set|
  01460	00000000	 DCD         |??_C@_1DI@MFNCMIPE@?$AAP?$AAD?$AAD?$AA_?$AAS?$AAe?$AAt?$AA?3?$AAR?$AAE?$AAQ?$AA_?$AAI?$AAD?$AA_?$AAS?$AAO?$AAF?$AAT?$AA_?$AAR?$AAE?$AAS?$AAE?$AAT?$AA?$AN?$AA?6?$AA?$AA@|
  01464		 |$LN41@PDD_Set|
  01464	00000000	 DCD         |??_C@_1DI@LPFOEPEC@?$AAP?$AAD?$AAD?$AA_?$AAS?$AAe?$AAt?$AA?3?$AAR?$AAE?$AAQ?$AA_?$AAI?$AAD?$AA_?$AAH?$AAA?$AAR?$AAD?$AA_?$AAR?$AAE?$AAS?$AAE?$AAT?$AA?$AN?$AA?6?$AA?$AA@|
  01468		 |$LN42@PDD_Set|
  01468	00000000	 DCD         |??_C@_1CO@BKAHFHEI@?$AA?$CL?$AAR?$AAN?$AAD?$AAI?$AAS?$AA_?$AAU?$AAS?$AAB?$AAF?$AAN?$AA_?$AAP?$AAD?$AAD?$AA_?$AAS?$AAe?$AAt?$AA?$AN?$AA?6?$AA?$AA@|
  0146c		 |$LN43@PDD_Set|
  0146c	00000000	 DCD         |dpCurSettings|
  01470		 |$M47865|

			 ENDP  ; |PDD_Set|

	EXPORT	|??_C@_1CO@MONNNOOA@?$AA?9?$AAR?$AAN?$AAD?$AAI?$AAS?$AA_?$AAU?$AAS?$AAB?$AAF?$AAN?$AA_?$AAP?$AAD?$AAD?$AA_?$AAG?$AAe?$AAt?$AA?$AN?$AA?6?$AA?$AA@| [ DATA ] ; `string'
	EXPORT	|??_C@_1EC@FCCAEHJA@?$AA?9?$AAP?$AAD?$AAD?$AA_?$AAG?$AAe?$AAt?$AA?3?$AA?5?$AAu?$AAn?$AAk?$AAn?$AAo?$AAw?$AAn?$AA?5?$AAr?$AAe?$AAq?$AAu?$AAe?$AAs?$AAt?$AA?5?$AA0?$AAx?$AA?$CF?$AAx?$AA?$AN?$AA?6@| [ DATA ] ; `string'
	EXPORT	|??_C@_1CO@BFBJIBML@?$AA?$CL?$AAR?$AAN?$AAD?$AAI?$AAS?$AA_?$AAU?$AAS?$AAB?$AAF?$AAN?$AA_?$AAP?$AAD?$AAD?$AA_?$AAG?$AAe?$AAt?$AA?$AN?$AA?6?$AA?$AA@| [ DATA ] ; `string'
	IMPORT	|strlen|

  00070			 AREA	 |.pdata|, PDATA
|$T47907| DCD	|$LN30@PDD_Get|
	DCD	0x40004502

  00000			 AREA	 |.rdata|, DATA, READONLY
|??_C@_1CO@MONNNOOA@?$AA?9?$AAR?$AAN?$AAD?$AAI?$AAS?$AA_?$AAU?$AAS?$AAB?$AAF?$AAN?$AA_?$AAP?$AAD?$AAD?$AA_?$AAG?$AAe?$AAt?$AA?$AN?$AA?6?$AA?$AA@| DCB "-"
	DCB	0x0, "R", 0x0, "N", 0x0, "D", 0x0, "I", 0x0, "S", 0x0, "_"
	DCB	0x0, "U", 0x0, "S", 0x0, "B", 0x0, "F", 0x0, "N", 0x0, "_"
	DCB	0x0, "P", 0x0, "D", 0x0, "D", 0x0, "_", 0x0, "G", 0x0, "e"
	DCB	0x0, "t", 0x0, 0xd, 0x0, 0xa, 0x0, 0x0, 0x0 ; `string'

  00000			 AREA	 |.rdata|, DATA, READONLY
|??_C@_1EC@FCCAEHJA@?$AA?9?$AAP?$AAD?$AAD?$AA_?$AAG?$AAe?$AAt?$AA?3?$AA?5?$AAu?$AAn?$AAk?$AAn?$AAo?$AAw?$AAn?$AA?5?$AAr?$AAe?$AAq?$AAu?$AAe?$AAs?$AAt?$AA?5?$AA0?$AAx?$AA?$CF?$AAx?$AA?$AN?$AA?6@| DCB "-"
	DCB	0x0, "P", 0x0, "D", 0x0, "D", 0x0, "_", 0x0, "G", 0x0, "e"
	DCB	0x0, "t", 0x0, ":", 0x0, " ", 0x0, "u", 0x0, "n", 0x0, "k"
	DCB	0x0, "n", 0x0, "o", 0x0, "w", 0x0, "n", 0x0, " ", 0x0, "r"
	DCB	0x0, "e", 0x0, "q", 0x0, "u", 0x0, "e", 0x0, "s", 0x0, "t"
	DCB	0x0, " ", 0x0, "0", 0x0, "x", 0x0, "%", 0x0, "x", 0x0, 0xd
	DCB	0x0, 0xa, 0x0, 0x0, 0x0			; `string'

  00000			 AREA	 |.rdata|, DATA, READONLY
|??_C@_1CO@BFBJIBML@?$AA?$CL?$AAR?$AAN?$AAD?$AAI?$AAS?$AA_?$AAU?$AAS?$AAB?$AAF?$AAN?$AA_?$AAP?$AAD?$AAD?$AA_?$AAG?$AAe?$AAt?$AA?$AN?$AA?6?$AA?$AA@| DCB "+"
	DCB	0x0, "R", 0x0, "N", 0x0, "D", 0x0, "I", 0x0, "S", 0x0, "_"
	DCB	0x0, "U", 0x0, "S", 0x0, "B", 0x0, "F", 0x0, "N", 0x0, "_"
	DCB	0x0, "P", 0x0, "D", 0x0, "D", 0x0, "_", 0x0, "G", 0x0, "e"
	DCB	0x0, "t", 0x0, 0xd, 0x0, 0xa, 0x0, 0x0, 0x0 ; `string'
; Function compile flags: /Ogtp

  01470			 AREA	 |.text|, CODE, ARM

  01470		 |PDD_Get| PROC

; 1070 : {

  01470		 |$LN30@PDD_Get|
  01470	e92d47f0	 stmdb       sp!, {r4 - r10, lr}
  01474	e24dd004	 sub         sp, sp, #4
  01478		 |$M47904|
  01478	e1a08003	 mov         r8, r3
  0147c	e1a09002	 mov         r9, r2
  01480	e1a0a001	 mov         r10, r1
  01484	e1a07000	 mov         r7, r0

; 1071 :     BOOL fRet = FALSE;
; 1072 :     ULONG GenericUlong;
; 1073 :     ULONG ulTotalBytes;
; 1074 :     PUCHAR pucBuffer;
; 1075 : 
; 1076 :     OALMSG(OAL_ETHER&&OAL_FUNC, (L"+RNDIS_USBFN_PDD_Get\r\n"));

  01488	e59f40f0	 ldr         r4, [pc, #0xF0]
  0148c	e3a05000	 mov         r5, #0
  01490	e594e440	 ldr         lr, [r4, #0x440]
  01494	e31e0a02	 tst         lr, #2, 20
  01498	131e0004	 tstne       lr, #4
  0149c	159f00d8	 ldrne       r0, [pc, #0xD8]
  014a0	1b000000	 blne        NKDbgPrintfW

; 1077 : 
; 1078 :     switch(uiRequestId) {

  014a4	e2476106	 sub         r6, r7, #6, 2
  014a8	e3560003	 cmp         r6, #3
  014ac	8a00001e	 bhi         |$LN4@PDD_Get|
  014b0	e28fe004	 add         lr, pc, #4
  014b4	e7dee006	 ldrb        lr, [lr, +r6]
  014b8	e08ff00e	 add         pc, pc, lr
  014bc		 |$LN23@PDD_Get|
  014bc		 |$LN22@PDD_Get|
  014bc		 |$LN24@PDD_Get|
  014bc	00ed		 DCB         0x0
  014bd		 |$LN25@PDD_Get|
  014bd	14ed		 DCB         0x14
  014be		 |$LN26@PDD_Get|
  014be	28ed		 DCB         0x28
  014bf		 |$LN27@PDD_Get|
  014bf	3ced		 DCB         0x3c
  014c0		 |$LN8@PDD_Get|

; 1079 :     case REQ_ID_VENDOR_ID:
; 1080 :         pucBuffer = pucVendorID;

  014c0	e59f30b0	 ldr         r3, [pc, #0xB0]

; 1081 :         ulTotalBytes = strlen(pucVendorID);

  014c4	e2830008	 add         r0, r3, #8
  014c8	e2836008	 add         r6, r3, #8
  014cc	eb000000	 bl          strlen

; 1082 :         break;

  014d0	ea00000b	 b           |$LN19@PDD_Get|
  014d4		 |$LN7@PDD_Get|

; 1083 :     case REQ_ID_VENDOR_DESCRIPTION:
; 1084 :         pucBuffer = pucVendorDescription;

  014d4	e59f309c	 ldr         r3, [pc, #0x9C]

; 1085 :         ulTotalBytes = strlen(pucVendorDescription);

  014d8	e2830014	 add         r0, r3, #0x14
  014dc	e2836014	 add         r6, r3, #0x14
  014e0	eb000000	 bl          strlen

; 1086 :         break;

  014e4	ea000006	 b           |$LN19@PDD_Get|
  014e8		 |$LN6@PDD_Get|

; 1087 :     case REQ_ID_DEVICE_MAX_RX:
; 1088 :         GenericUlong = MAX_INCOMING_BUFFER;

  014e8	e3a03a02	 mov         r3, #2, 20
  014ec	e58d3000	 str         r3, [sp]

; 1089 :         pucBuffer = (UCHAR *)&GenericUlong;

  014f0	e28d6000	 add         r6, sp, #0

; 1090 :         ulTotalBytes = sizeof(GenericUlong);

  014f4	e3a00004	 mov         r0, #4

; 1091 :         break;

  014f8	ea000001	 b           |$LN19@PDD_Get|
  014fc		 |$LN5@PDD_Get|

; 1092 :     case REQ_ID_DEVICE_MACADDR:
; 1093 :         pucBuffer = g_RndisMacAddress;

  014fc	e59f6074	 ldr         r6, [pc, #0x74]

; 1094 :         ulTotalBytes = sizeof(g_RndisMacAddress);

  01500	e3a00006	 mov         r0, #6
  01504		 |$LN19@PDD_Get|

; 1100 :         pucBuffer = NULL;
; 1101 :         ulTotalBytes = 0;
; 1102 :         break;
; 1103 :     }
; 1104 : 
; 1105 :     if (pucBuffer) {
; 1106 :         if (pulRequiredLength)

  01504	e3580000	 cmp         r8, #0

; 1107 :             *pulRequiredLength = ulTotalBytes;

  01508	15880000	 strne       r0, [r8]

; 1108 : 
; 1109 :         if (ulTotalBytes <= ulDataLength) {

  0150c	e1500009	 cmp         r0, r9
  01510	8a00000d	 bhi         |$LN1@PDD_Get|

; 1110 :             memcpy(pvData, pucBuffer, ulTotalBytes);

  01514	e1a02000	 mov         r2, r0
  01518	e1a0000a	 mov         r0, r10
  0151c	e1a01006	 mov         r1, r6
  01520	eb000000	 bl          memcpy

; 1111 :             fRet = TRUE;

  01524	e3a05001	 mov         r5, #1
  01528	ea000007	 b           |$LN1@PDD_Get|
  0152c		 |$LN4@PDD_Get|

; 1071 :     BOOL fRet = FALSE;
; 1072 :     ULONG GenericUlong;
; 1073 :     ULONG ulTotalBytes;
; 1074 :     PUCHAR pucBuffer;
; 1075 : 
; 1076 :     OALMSG(OAL_ETHER&&OAL_FUNC, (L"+RNDIS_USBFN_PDD_Get\r\n"));

  0152c	e5943440	 ldr         r3, [r4, #0x440]

; 1095 :         break;
; 1096 :     default:
; 1097 :         OALMSG(OAL_ETHER&&OAL_FUNC, (
; 1098 :             L"-PDD_Get: unknown request 0x%x\r\n", uiRequestId
; 1099 :         ));

  01530	e3130a02	 tst         r3, #2, 20
  01534	0a000004	 beq         |$LN1@PDD_Get|
  01538	e3130004	 tst         r3, #4
  0153c	0a000002	 beq         |$LN1@PDD_Get|
  01540	e59f002c	 ldr         r0, [pc, #0x2C]
  01544	e1a01007	 mov         r1, r7
  01548	eb000000	 bl          NKDbgPrintfW

; 1111 :             fRet = TRUE;

  0154c		 |$LN1@PDD_Get|
  0154c	e5943440	 ldr         r3, [r4, #0x440]

; 1112 :         }
; 1113 :     }
; 1114 : 
; 1115 :     OALMSG(OAL_ETHER&&OAL_FUNC, (L"-RNDIS_USBFN_PDD_Get\r\n"));

  01550	e3130a02	 tst         r3, #2, 20
  01554	13130004	 tstne       r3, #4
  01558	159f0010	 ldrne       r0, [pc, #0x10]
  0155c	1b000000	 blne        NKDbgPrintfW

; 1116 :     return fRet;
; 1117 : }

  01560	e1a00005	 mov         r0, r5
  01564	e28dd004	 add         sp, sp, #4
  01568	e8bd47f0	 ldmia       sp!, {r4 - r10, lr}
  0156c	e12fff1e	 bx          lr
  01570		 |$LN31@PDD_Get|
  01570		 |$LN32@PDD_Get|
  01570	00000000	 DCD         |??_C@_1CO@MONNNOOA@?$AA?9?$AAR?$AAN?$AAD?$AAI?$AAS?$AA_?$AAU?$AAS?$AAB?$AAF?$AAN?$AA_?$AAP?$AAD?$AAD?$AA_?$AAG?$AAe?$AAt?$AA?$AN?$AA?6?$AA?$AA@|
  01574		 |$LN33@PDD_Get|
  01574	00000000	 DCD         |??_C@_1EC@FCCAEHJA@?$AA?9?$AAP?$AAD?$AAD?$AA_?$AAG?$AAe?$AAt?$AA?3?$AA?5?$AAu?$AAn?$AAk?$AAn?$AAo?$AAw?$AAn?$AA?5?$AAr?$AAe?$AAq?$AAu?$AAe?$AAs?$AAt?$AA?5?$AA0?$AAx?$AA?$CF?$AAx?$AA?$AN?$AA?6@|
  01578		 |$LN34@PDD_Get|
  01578	00000000	 DCD         |g_RndisMacAddress|
  0157c		 |$LN35@PDD_Get|
  0157c	00000000	 DCD         |??_C@_1CO@BFBJIBML@?$AA?$CL?$AAR?$AAN?$AAD?$AAI?$AAS?$AA_?$AAU?$AAS?$AAB?$AAF?$AAN?$AA_?$AAP?$AAD?$AAD?$AA_?$AAG?$AAe?$AAt?$AA?$AN?$AA?6?$AA?$AA@|
  01580		 |$LN36@PDD_Get|
  01580	00000000	 DCD         |dpCurSettings|
  01584		 |$M47905|

			 ENDP  ; |PDD_Get|

	IMPORT	|InterruptThread|

  00078			 AREA	 |.pdata|, PDATA
|$T47920| DCD	|$LN5@PDD_ISR|
	DCD	0x40000801
; Function compile flags: /Ogtp

  01584			 AREA	 |.text|, CODE, ARM

  01584		 |PDD_ISR| PROC

; 1138 : {

  01584		 |$LN5@PDD_ISR|
  01584	e52de004	 str         lr, [sp, #-4]!
  01588		 |$M47917|

; 1139 :     InterruptThread( g_pddInterface.pvPddContext );

  01588	e59f3010	 ldr         r3, [pc, #0x10]
  0158c	e593000c	 ldr         r0, [r3, #0xC]
  01590	eb000000	 bl          InterruptThread

; 1140 : 
; 1141 :     return TRUE;

  01594	e3a00001	 mov         r0, #1

; 1142 : }   //  PDD_ISR()

  01598	e49de004	 ldr         lr, [sp], #4
  0159c	e12fff1e	 bx          lr
  015a0		 |$LN6@PDD_ISR|
  015a0		 |$LN7@PDD_ISR|
  015a0	00000000	 DCD         |g_pddInterface|
  015a4		 |$M47918|

			 ENDP  ; |PDD_ISR|

	EXPORT	|??_C@_1FO@HIPGBBGN@?$AA?9?$AAR?$AAN?$AAD?$AAI?$AAS?$AA_?$AAU?$AAS?$AAB?$AAF?$AAN?$AA_?$AAP?$AAD?$AAD?$AA_?$AAI?$AAn?$AAd?$AAi?$AAc?$AAa?$AAt?$AAe?$AAR?$AAn?$AAd?$AAi?$AAs?$AAP?$AAa@| [ DATA ] ; `string'
	EXPORT	|??_C@_1FO@PLBKEBPA@?$AA?$CL?$AAR?$AAN?$AAD?$AAI?$AAS?$AA_?$AAU?$AAS?$AAB?$AAF?$AAN?$AA_?$AAP?$AAD?$AAD?$AA_?$AAI?$AAn?$AAd?$AAi?$AAc?$AAa?$AAt?$AAe?$AAR?$AAn?$AAd?$AAi?$AAs?$AAP?$AAa@| [ DATA ] ; `string'
	IMPORT	|MDDFreeMem|

  00080			 AREA	 |.pdata|, PDATA
|$T47932| DCD	|$LN9@PDD_Indica|
	DCD	0x40001601

  00000			 AREA	 |.rdata|, DATA, READONLY
|??_C@_1FO@HIPGBBGN@?$AA?9?$AAR?$AAN?$AAD?$AAI?$AAS?$AA_?$AAU?$AAS?$AAB?$AAF?$AAN?$AA_?$AAP?$AAD?$AAD?$AA_?$AAI?$AAn?$AAd?$AAi?$AAc?$AAa?$AAt?$AAe?$AAR?$AAn?$AAd?$AAi?$AAs?$AAP?$AAa@| DCB "-"
	DCB	0x0, "R", 0x0, "N", 0x0, "D", 0x0, "I", 0x0, "S", 0x0, "_"
	DCB	0x0, "U", 0x0, "S", 0x0, "B", 0x0, "F", 0x0, "N", 0x0, "_"
	DCB	0x0, "P", 0x0, "D", 0x0, "D", 0x0, "_", 0x0, "I", 0x0, "n"
	DCB	0x0, "d", 0x0, "i", 0x0, "c", 0x0, "a", 0x0, "t", 0x0, "e"
	DCB	0x0, "R", 0x0, "n", 0x0, "d", 0x0, "i", 0x0, "s", 0x0, "P"
	DCB	0x0, "a", 0x0, "c", 0x0, "k", 0x0, "e", 0x0, "t", 0x0, "C"
	DCB	0x0, "o", 0x0, "m", 0x0, "p", 0x0, "l", 0x0, "e", 0x0, "t"
	DCB	0x0, "e", 0x0, 0xd, 0x0, 0xa, 0x0, 0x0, 0x0 ; `string'

  00000			 AREA	 |.rdata|, DATA, READONLY
|??_C@_1FO@PLBKEBPA@?$AA?$CL?$AAR?$AAN?$AAD?$AAI?$AAS?$AA_?$AAU?$AAS?$AAB?$AAF?$AAN?$AA_?$AAP?$AAD?$AAD?$AA_?$AAI?$AAn?$AAd?$AAi?$AAc?$AAa?$AAt?$AAe?$AAR?$AAn?$AAd?$AAi?$AAs?$AAP?$AAa@| DCB "+"
	DCB	0x0, "R", 0x0, "N", 0x0, "D", 0x0, "I", 0x0, "S", 0x0, "_"
	DCB	0x0, "U", 0x0, "S", 0x0, "B", 0x0, "F", 0x0, "N", 0x0, "_"
	DCB	0x0, "P", 0x0, "D", 0x0, "D", 0x0, "_", 0x0, "I", 0x0, "n"
	DCB	0x0, "d", 0x0, "i", 0x0, "c", 0x0, "a", 0x0, "t", 0x0, "e"
	DCB	0x0, "R", 0x0, "n", 0x0, "d", 0x0, "i", 0x0, "s", 0x0, "P"
	DCB	0x0, "a", 0x0, "c", 0x0, "k", 0x0, "e", 0x0, "t", 0x0, "C"
	DCB	0x0, "o", 0x0, "m", 0x0, "p", 0x0, "l", 0x0, "e", 0x0, "t"
	DCB	0x0, "e", 0x0, 0xd, 0x0, 0xa, 0x0, 0x0, 0x0 ; `string'
; Function compile flags: /Ogtp

  015a4			 AREA	 |.text|, CODE, ARM

  015a4		 |PDD_IndicateRndisPacketComplete| PROC

; 1162 : {

  015a4		 |$LN9@PDD_Indica|
  015a4	e92d4030	 stmdb       sp!, {r4, r5, lr}
  015a8		 |$M47929|
  015a8	e1a05000	 mov         r5, r0

; 1163 :     OALMSG(OAL_ETHER&&OAL_FUNC, (
; 1164 :         L"+RNDIS_USBFN_PDD_IndicateRndisPacketComplete\r\n"
; 1165 :     ));

  015ac	e59f4044	 ldr         r4, [pc, #0x44]
  015b0	e5943440	 ldr         r3, [r4, #0x440]
  015b4	e3130a02	 tst         r3, #2, 20
  015b8	13130004	 tstne       r3, #4
  015bc	159f0030	 ldrne       r0, [pc, #0x30]
  015c0	1b000000	 blne        NKDbgPrintfW

; 1166 :     MDDFreeMem(pDataWrapper->pucData);

  015c4	e5950008	 ldr         r0, [r5, #8]
  015c8	eb000000	 bl          MDDFreeMem

; 1167 :     MDDFreeDataWrapper(pDataWrapper);

  015cc	e1a00005	 mov         r0, r5
  015d0	eb000000	 bl          MDDFreeDataWrapper

; 1168 :     OALMSG(OAL_ETHER&&OAL_FUNC, (
; 1169 :         L"-RNDIS_USBFN_PDD_IndicateRndisPacketComplete\r\n"
; 1170 :     ));

  015d4	e5943440	 ldr         r3, [r4, #0x440]
  015d8	e3130a02	 tst         r3, #2, 20
  015dc	13130004	 tstne       r3, #4
  015e0	159f0008	 ldrne       r0, [pc, #8]
  015e4	1b000000	 blne        NKDbgPrintfW

; 1171 : }

  015e8	e8bd4030	 ldmia       sp!, {r4, r5, lr}
  015ec	e12fff1e	 bx          lr
  015f0		 |$LN10@PDD_Indica|
  015f0		 |$LN11@PDD_Indica|
  015f0	00000000	 DCD         |??_C@_1FO@HIPGBBGN@?$AA?9?$AAR?$AAN?$AAD?$AAI?$AAS?$AA_?$AAU?$AAS?$AAB?$AAF?$AAN?$AA_?$AAP?$AAD?$AAD?$AA_?$AAI?$AAn?$AAd?$AAi?$AAc?$AAa?$AAt?$AAe?$AAR?$AAn?$AAd?$AAi?$AAs?$AAP?$AAa@|
  015f4		 |$LN12@PDD_Indica|
  015f4	00000000	 DCD         |??_C@_1FO@PLBKEBPA@?$AA?$CL?$AAR?$AAN?$AAD?$AAI?$AAS?$AA_?$AAU?$AAS?$AAB?$AAF?$AAN?$AA_?$AAP?$AAD?$AAD?$AA_?$AAI?$AAn?$AAd?$AAi?$AAc?$AAa?$AAt?$AAe?$AAR?$AAn?$AAd?$AAi?$AAs?$AAP?$AAa@|
  015f8		 |$LN13@PDD_Indica|
  015f8	00000000	 DCD         |dpCurSettings|
  015fc		 |$M47930|

			 ENDP  ; |PDD_IndicateRndisPacketComplete|

	IMPORT	|GetUniqueDeviceID|

  00088			 AREA	 |.pdata|, PDATA
|$T47942| DCD	|$LN5@SetRNDISMA|
	DCD	0x40000d01
; Function compile flags: /Ogtp

  015fc			 AREA	 |.text|, CODE, ARM

  015fc		 |SetRNDISMACAddress| PROC

; 1175 : {

  015fc		 |$LN5@SetRNDISMA|
  015fc	e52de004	 str         lr, [sp, #-4]!
  01600		 |$M47939|

; 1176 :     DWORD udId = GetUniqueDeviceID();

  01600	eb000000	 bl          GetUniqueDeviceID

; 1177 :     g_RndisMacAddress[2] = (UCHAR)(udId);

  01604	e59f2020	 ldr         r2, [pc, #0x20]

; 1178 :     g_RndisMacAddress[3] = (UCHAR)(udId >> 8);

  01608	e1a03420	 mov         r3, r0, lsr #8
  0160c	e5c20002	 strb        r0, [r2, #2]
  01610	e5c23003	 strb        r3, [r2, #3]

; 1179 :     g_RndisMacAddress[4] = (UCHAR)(udId >> 16);

  01614	e1a03820	 mov         r3, r0, lsr #16
  01618	e5c23004	 strb        r3, [r2, #4]

; 1180 :     g_RndisMacAddress[5] = (UCHAR)(udId >> 24);

  0161c	e1a03c20	 mov         r3, r0, lsr #24
  01620	e5c23005	 strb        r3, [r2, #5]

; 1181 : }

  01624	e49de004	 ldr         lr, [sp], #4
  01628	e12fff1e	 bx          lr
  0162c		 |$LN6@SetRNDISMA|
  0162c		 |$LN7@SetRNDISMA|
  0162c	00000000	 DCD         |g_RndisMacAddress|
  01630		 |$M47940|

			 ENDP  ; |SetRNDISMACAddress|

	EXPORT	|??_C@_1DG@LOIHLLKG@?$AAR?$AAN?$AAD?$AAI?$AAS?$AA?5?$AAS?$AAe?$AAr?$AAi?$AAa?$AAl?$AA?5?$AAN?$AAu?$AAm?$AAb?$AAe?$AAr?$AA?$DN?$AA?$FL?$AA?$CF?$AAs?$AA?$FN?$AA?$AN?$AA?6?$AA?$AA@| [ DATA ] ; `string'

  00090			 AREA	 |.pdata|, PDATA
|$T47961| DCD	|$LN16@SetRNDISSe|
	DCD	0x40004c02

  00000			 AREA	 |.rdata|, DATA, READONLY
|??_C@_1DG@LOIHLLKG@?$AAR?$AAN?$AAD?$AAI?$AAS?$AA?5?$AAS?$AAe?$AAr?$AAi?$AAa?$AAl?$AA?5?$AAN?$AAu?$AAm?$AAb?$AAe?$AAr?$AA?$DN?$AA?$FL?$AA?$CF?$AAs?$AA?$FN?$AA?$AN?$AA?6?$AA?$AA@| DCB "R"
	DCB	0x0, "N", 0x0, "D", 0x0, "I", 0x0, "S", 0x0, " ", 0x0, "S"
	DCB	0x0, "e", 0x0, "r", 0x0, "i", 0x0, "a", 0x0, "l", 0x0, " "
	DCB	0x0, "N", 0x0, "u", 0x0, "m", 0x0, "b", 0x0, "e", 0x0, "r"
	DCB	0x0, "=", 0x0, "[", 0x0, "%", 0x0, "s", 0x0, "]", 0x0, 0xd
	DCB	0x0, 0xa, 0x0, 0x0, 0x0			; `string'
; Function compile flags: /Ogtp

  01630			 AREA	 |.text|, CODE, ARM

  01630		 |SetRNDISSerialNumber| PROC

; 1185 : {

  01630		 |$LN16@SetRNDISSe|
  01630	e92d4ff0	 stmdb       sp!, {r4 - r11, lr}
  01634	e24dd004	 sub         sp, sp, #4
  01638		 |$M47958|

; 1186 :     BYTE b;
; 1187 :     int i;
; 1188 :     BYTE *pIdBytes; 
; 1189 :     DWORD dwBytesReturned = 0;
; 1190 :     DWORD udId = GetUniqueDeviceID();

  01638	eb000000	 bl          GetUniqueDeviceID
  0163c	e58d0000	 str         r0, [sp]

; 1191 :     
; 1192 :     pIdBytes = (BYTE*)&udId;
; 1193 : 
; 1194 :     for (i=0; i< sizeof(udId); i++) {
; 1195 :         b = pIdBytes[i] & 0xff;
; 1196 :         gs_SerialNumber.ptcbString[i * 2] = DigitTable[b % 16];

  01640	e5dd1000	 ldrb        r1, [sp]
  01644	e5dd4001	 ldrb        r4, [sp, #1]
  01648	e5dd6002	 ldrb        r6, [sp, #2]
  0164c	e1b03001	 movs        r3, r1
  01650	4283300f	 addmi       r3, r3, #0xF
  01654	e1b02004	 movs        r2, r4
  01658	e5dd9003	 ldrb        r9, [sp, #3]
  0165c	4282200f	 addmi       r2, r2, #0xF
  01660	e59fa0f4	 ldr         r10, [pc, #0xF4]
  01664	e1b0e006	 movs        lr, r6
  01668	e1a03243	 mov         r3, r3, asr #4
  0166c	428ee00f	 addmi       lr, lr, #0xF
  01670	e1b00009	 movs        r0, r9
  01674	e0413203	 sub         r3, r1, r3, lsl #4
  01678	e1a02242	 mov         r2, r2, asr #4

; 1197 :         gs_SerialNumber.ptcbString[(i * 2) + 1] = DigitTable[b / 16];

  0167c	e1a01221	 mov         r1, r1, lsr #4
  01680	4280000f	 addmi       r0, r0, #0xF
  01684	e08a3083	 add         r3, r10, r3, lsl #1
  01688	e0442202	 sub         r2, r4, r2, lsl #4
  0168c	e1d370b0	 ldrh        r7, [r3]
  01690	e08a1081	 add         r1, r10, r1, lsl #1
  01694	e1a04224	 mov         r4, r4, lsr #4
  01698	e1d180b0	 ldrh        r8, [r1]
  0169c	e1a05240	 mov         r5, r0, asr #4
  016a0	e1a0e24e	 mov         lr, lr, asr #4
  016a4	e08a0082	 add         r0, r10, r2, lsl #1
  016a8	e59fb0a8	 ldr         r11, [pc, #0xA8]
  016ac	e08a3084	 add         r3, r10, r4, lsl #1
  016b0	e1a02226	 mov         r2, r6, lsr #4
  016b4	e0491205	 sub         r1, r9, r5, lsl #4
  016b8	e1d050b0	 ldrh        r5, [r0]
  016bc	e046e20e	 sub         lr, r6, lr, lsl #4
  016c0	e1d360b0	 ldrh        r6, [r3]
  016c4	e08a008e	 add         r0, r10, lr, lsl #1
  016c8	e08a3082	 add         r3, r10, r2, lsl #1
  016cc	e1d040b0	 ldrh        r4, [r0]
  016d0	e08a2081	 add         r2, r10, r1, lsl #1
  016d4	e1d300b0	 ldrh        r0, [r3]
  016d8	e1a01229	 mov         r1, r9, lsr #4
  016dc	e1cb70b2	 strh        r7, [r11, #2]
  016e0	e1d2e0b0	 ldrh        lr, [r2]
  016e4	e08a3081	 add         r3, r10, r1, lsl #1

; 1198 :     }
; 1199 : 
; 1200 :     gs_SerialNumber.ptcbString[ (DWORD)(sizeof(udId)) * 2 ] = '\0';
; 1201 :     gs_SerialNumber.ucbLength = sizeof(gs_SerialNumber);
; 1202 :     gs_SerialNumber.udbDescriptorType = USB_STRING_DESCRIPTOR_TYPE;
; 1203 : 
; 1204 :     OALMSG(OAL_ETHER&&OAL_FUNC, (
; 1205 :         L"RNDIS Serial Number=[%s]\r\n", gs_SerialNumber.ptcbString
; 1206 :     ));

  016e8	e1d330b0	 ldrh        r3, [r3]
  016ec	e1cb80b4	 strh        r8, [r11, #4]
  016f0	e1cb50b6	 strh        r5, [r11, #6]
  016f4	e1cb60b8	 strh        r6, [r11, #8]
  016f8	e1cb40ba	 strh        r4, [r11, #0xA]
  016fc	e1cb00bc	 strh        r0, [r11, #0xC]
  01700	e59f204c	 ldr         r2, [pc, #0x4C]
  01704	e1cbe0be	 strh        lr, [r11, #0xE]
  01708	e1cb31b0	 strh        r3, [r11, #0x10]
  0170c	e3a03000	 mov         r3, #0
  01710	e1cb31b2	 strh        r3, [r11, #0x12]
  01714	e5922440	 ldr         r2, [r2, #0x440]
  01718	e3a03014	 mov         r3, #0x14
  0171c	e5cb3000	 strb        r3, [r11]
  01720	e3a03003	 mov         r3, #3
  01724	e5cb3001	 strb        r3, [r11, #1]
  01728	e3120a02	 tst         r2, #2, 20
  0172c	0a000004	 beq         |$LN6@SetRNDISSe|
  01730	e3120004	 tst         r2, #4
  01734	0a000002	 beq         |$LN6@SetRNDISSe|
  01738	e59f0010	 ldr         r0, [pc, #0x10]
  0173c	e28b1002	 add         r1, r11, #2
  01740	eb000000	 bl          NKDbgPrintfW
  01744		 |$LN6@SetRNDISSe|

; 1207 : }

  01744	e28dd004	 add         sp, sp, #4
  01748	e8bd4ff0	 ldmia       sp!, {r4 - r11, lr}
  0174c	e12fff1e	 bx          lr
  01750		 |$LN17@SetRNDISSe|
  01750		 |$LN18@SetRNDISSe|
  01750	00000000	 DCD         |??_C@_1DG@LOIHLLKG@?$AAR?$AAN?$AAD?$AAI?$AAS?$AA?5?$AAS?$AAe?$AAr?$AAi?$AAa?$AAl?$AA?5?$AAN?$AAu?$AAm?$AAb?$AAe?$AAr?$AA?$DN?$AA?$FL?$AA?$CF?$AAs?$AA?$FN?$AA?$AN?$AA?6?$AA?$AA@|
  01754		 |$LN19@SetRNDISSe|
  01754	00000000	 DCD         |dpCurSettings|
  01758		 |$LN20@SetRNDISSe|
  01758	00000000	 DCD         |gs_SerialNumber|
  0175c		 |$LN21@SetRNDISSe|
  0175c	00000000	 DCD         |DigitTable|
  01760		 |$M47959|

			 ENDP  ; |SetRNDISSerialNumber|

	EXPORT	|PDD_Dump|
	EXPORT	|??_C@_0BG@EOFDEPKP@Dump?5USBD?5registers?$AN?6?$AA@| [ DATA ] ; `string'
	EXPORT	|??_C@_0N@CMEMAFLH@?7EP_NUM?$DN?$CFx?$AN?6?$AA@| [ DATA ] ; `string'
	EXPORT	|??_C@_0L@GPOEAEFE@?7DATA?$DN?$CFx?$AN?6?$AA@| [ DATA ] ; `string'
	EXPORT	|??_C@_0P@FINGHBFP@?7STAT_FLG?$DN?$CFx?$AN?6?$AA@| [ DATA ] ; `string'
	EXPORT	|??_C@_0O@EPAHGBFH@?7RXFSTAT?$DN?$CFx?$AN?6?$AA@| [ DATA ] ; `string'
	EXPORT	|??_C@_0O@NPAALAJO@?7SYSCON1?$DN?$CFx?$AN?6?$AA@| [ DATA ] ; `string'
	EXPORT	|??_C@_0O@OOOIKKAD@?7SYSCON2?$DN?$CFx?$AN?6?$AA@| [ DATA ] ; `string'
	EXPORT	|??_C@_0O@GHKEDAIJ@?7DEVSTAT?$DN?$CFx?$AN?6?$AA@| [ DATA ] ; `string'
	EXPORT	|??_C@_09JBKABGFP@?7SOF?$DN?$CFx?$AN?6?$AA@| [ DATA ] ; `string'
	EXPORT	|??_C@_0BB@IHEFMCAF@?7DMA_IRQ_EN?$DN?$CFx?$AN?6?$AA@| [ DATA ] ; `string'
	EXPORT	|??_C@_0O@FFMEENGF@?7EP_STAT?$DN?$CFx?$AN?6?$AA@| [ DATA ] ; `string'
	EXPORT	|??_C@_0P@BOCDNFHO@?7DMA_STAT?$DN?$CFx?$AN?6?$AA@| [ DATA ] ; `string'
	EXPORT	|??_C@_0BA@BEGLJEEH@?7RXDMA_CFG?$DN?$CFx?$AN?6?$AA@| [ DATA ] ; `string'
	EXPORT	|??_C@_0BA@DGJBEALF@?7TXDMA_CFG?$DN?$CFx?$AN?6?$AA@| [ DATA ] ; `string'
	EXPORT	|??_C@_0P@DIBHBNHN@?7DATA_DMA?$DN?$CFx?$AN?6?$AA@| [ DATA ] ; `string'
	EXPORT	|??_C@_0N@JCLPINIB@?7TXDMA0?$DN?$CFx?$AN?6?$AA@| [ DATA ] ; `string'
	EXPORT	|??_C@_0N@DEMIIGDF@?7TXDMA1?$DN?$CFx?$AN?6?$AA@| [ DATA ] ; `string'
	EXPORT	|??_C@_0N@FCAJMKI@?7TXDMA2?$DN?$CFx?$AN?6?$AA@| [ DATA ] ; `string'
	EXPORT	|??_C@_0M@BBOPAONB@?7RXDMA0?$CFx?$AN?6?$AA@| [ DATA ] ; `string'
	EXPORT	|??_C@_0N@NLPFCDNF@?7RXDMA1?$DN?$CFx?$AN?6?$AA@| [ DATA ] ; `string'
	EXPORT	|??_C@_0N@OKBNDJEI@?7RXDMA2?$DN?$CFx?$AN?6?$AA@| [ DATA ] ; `string'
	EXPORT	|??_C@_09GEFJOLDC@?7EP0?$DN?$CFx?$AN?6?$AA@| [ DATA ] ; `string'
	EXPORT	|??_C@_0P@IMIBGBLC@?7EP_RX?$FL0?$FN?$DN?$CFx?$AN?6?$AA@| [ DATA ] ; `string'
	EXPORT	|??_C@_0P@EACLGBCM@?7EP_RX?$FL1?$FN?$DN?$CFx?$AN?6?$AA@| [ DATA ] ; `string'
	EXPORT	|??_C@_0P@MOKEGGMP@?7EP_RX?$FL2?$FN?$DN?$CFx?$AN?6?$AA@| [ DATA ] ; `string'
	EXPORT	|??_C@_0P@CAOGGFB@?7EP_RX?$FL3?$FN?$DN?$CFx?$AN?6?$AA@| [ DATA ] ; `string'
	EXPORT	|??_C@_0P@GEDEKLPB@?7EP_TX?$FL0?$FN?$DN?$CFx?$AN?6?$AA@| [ DATA ] ; `string'
	EXPORT	|??_C@_0P@KIJOKLGP@?7EP_TX?$FL1?$FN?$DN?$CFx?$AN?6?$AA@| [ DATA ] ; `string'
	EXPORT	|??_C@_0P@CGBBKMIM@?7EP_TX?$FL2?$FN?$DN?$CFx?$AN?6?$AA@| [ DATA ] ; `string'
	EXPORT	|??_C@_0P@OKLLKMBC@?7EP_TX?$FL3?$FN?$DN?$CFx?$AN?6?$AA@| [ DATA ] ; `string'
	EXPORT	|??_C@_0BF@HENLGELM@Dump?5OTG?5registers?$AN?6?$AA@| [ DATA ] ; `string'
	EXPORT	|??_C@_09HAMFICBK@?7REV?$DN?$CFx?$AN?6?$AA@| [ DATA ] ; `string'
	EXPORT	|??_C@_0P@JJOOEDCD@?7SYSCON_1?$DN?$CFx?$AN?6?$AA@| [ DATA ] ; `string'
	EXPORT	|??_C@_0P@KIAGFJLO@?7SYSCON_2?$DN?$CFx?$AN?6?$AA@| [ DATA ] ; `string'
	EXPORT	|??_C@_0L@MMNHHAFE@?7CTRL?$DN?$CFx?$AN?6?$AA@| [ DATA ] ; `string'
	EXPORT	|??_C@_0N@JJALLMMA@?7IRQ_EN?$DN?$CFx?$AN?6?$AA@| [ DATA ] ; `string'
	EXPORT	|??_C@_0O@FPCDFIMI@?7IRQ_SRC?$DN?$CFx?$AN?6?$AA@| [ DATA ] ; `string'
	EXPORT	|??_C@_0O@FFLCLOJO@?7OUTCTRL?$DN?$CFx?$AN?6?$AA@| [ DATA ] ; `string'
	EXPORT	|??_C@_0L@CKIFGOMA@?7TEST?$DN?$CFx?$AN?6?$AA@| [ DATA ] ; `string'
	IMPORT	|OALPAtoVA|
	IMPORT	|KITLOutputDebugString|

  00098			 AREA	 |.pdata|, PDATA
|$T47973| DCD	|$LN5@PDD_Dump|
	DCD	0x4000af01

  00000			 AREA	 |.rdata|, DATA, READONLY
|??_C@_0BG@EOFDEPKP@Dump?5USBD?5registers?$AN?6?$AA@| DCB "Dump USBD regi"
	DCB	"sters", 0xd, 0xa, 0x0			; `string'

  00000			 AREA	 |.rdata|, DATA, READONLY
|??_C@_0N@CMEMAFLH@?7EP_NUM?$DN?$CFx?$AN?6?$AA@| DCB 0x9, "EP_NUM=%x", 0xd
	DCB	0xa, 0x0				; `string'

  00000			 AREA	 |.rdata|, DATA, READONLY
|??_C@_0L@GPOEAEFE@?7DATA?$DN?$CFx?$AN?6?$AA@| DCB 0x9, "DATA=%x", 0xd, 0xa
	DCB	0x0					; `string'

  00000			 AREA	 |.rdata|, DATA, READONLY
|??_C@_0P@FINGHBFP@?7STAT_FLG?$DN?$CFx?$AN?6?$AA@| DCB 0x9, "STAT_FLG=%x", 0xd
	DCB	0xa, 0x0				; `string'

  00000			 AREA	 |.rdata|, DATA, READONLY
|??_C@_0O@EPAHGBFH@?7RXFSTAT?$DN?$CFx?$AN?6?$AA@| DCB 0x9, "RXFSTAT=%x", 0xd
	DCB	0xa, 0x0				; `string'

  00000			 AREA	 |.rdata|, DATA, READONLY
|??_C@_0O@NPAALAJO@?7SYSCON1?$DN?$CFx?$AN?6?$AA@| DCB 0x9, "SYSCON1=%x", 0xd
	DCB	0xa, 0x0				; `string'

  00000			 AREA	 |.rdata|, DATA, READONLY
|??_C@_0O@OOOIKKAD@?7SYSCON2?$DN?$CFx?$AN?6?$AA@| DCB 0x9, "SYSCON2=%x", 0xd
	DCB	0xa, 0x0				; `string'

  00000			 AREA	 |.rdata|, DATA, READONLY
|??_C@_0O@GHKEDAIJ@?7DEVSTAT?$DN?$CFx?$AN?6?$AA@| DCB 0x9, "DEVSTAT=%x", 0xd
	DCB	0xa, 0x0				; `string'

  00000			 AREA	 |.rdata|, DATA, READONLY
|??_C@_09JBKABGFP@?7SOF?$DN?$CFx?$AN?6?$AA@| DCB 0x9, "SOF=%x", 0xd, 0xa, 0x0 ; `string'

  00000			 AREA	 |.rdata|, DATA, READONLY
|??_C@_0BB@IHEFMCAF@?7DMA_IRQ_EN?$DN?$CFx?$AN?6?$AA@| DCB 0x9, "DMA_IRQ_E"
	DCB	"N=%x", 0xd, 0xa, 0x0			; `string'

  00000			 AREA	 |.rdata|, DATA, READONLY
|??_C@_0O@FFMEENGF@?7EP_STAT?$DN?$CFx?$AN?6?$AA@| DCB 0x9, "EP_STAT=%x", 0xd
	DCB	0xa, 0x0				; `string'

  00000			 AREA	 |.rdata|, DATA, READONLY
|??_C@_0P@BOCDNFHO@?7DMA_STAT?$DN?$CFx?$AN?6?$AA@| DCB 0x9, "DMA_STAT=%x", 0xd
	DCB	0xa, 0x0				; `string'

  00000			 AREA	 |.rdata|, DATA, READONLY
|??_C@_0BA@BEGLJEEH@?7RXDMA_CFG?$DN?$CFx?$AN?6?$AA@| DCB 0x9, "RXDMA_CFG="
	DCB	"%x", 0xd, 0xa, 0x0			; `string'

  00000			 AREA	 |.rdata|, DATA, READONLY
|??_C@_0BA@DGJBEALF@?7TXDMA_CFG?$DN?$CFx?$AN?6?$AA@| DCB 0x9, "TXDMA_CFG="
	DCB	"%x", 0xd, 0xa, 0x0			; `string'

  00000			 AREA	 |.rdata|, DATA, READONLY
|??_C@_0P@DIBHBNHN@?7DATA_DMA?$DN?$CFx?$AN?6?$AA@| DCB 0x9, "DATA_DMA=%x", 0xd
	DCB	0xa, 0x0				; `string'

  00000			 AREA	 |.rdata|, DATA, READONLY
|??_C@_0N@JCLPINIB@?7TXDMA0?$DN?$CFx?$AN?6?$AA@| DCB 0x9, "TXDMA0=%x", 0xd
	DCB	0xa, 0x0				; `string'

  00000			 AREA	 |.rdata|, DATA, READONLY
|??_C@_0N@DEMIIGDF@?7TXDMA1?$DN?$CFx?$AN?6?$AA@| DCB 0x9, "TXDMA1=%x", 0xd
	DCB	0xa, 0x0				; `string'

  00000			 AREA	 |.rdata|, DATA, READONLY
|??_C@_0N@FCAJMKI@?7TXDMA2?$DN?$CFx?$AN?6?$AA@| DCB 0x9, "TXDMA2=%x", 0xd
	DCB	0xa, 0x0				; `string'

  00000			 AREA	 |.rdata|, DATA, READONLY
|??_C@_0M@BBOPAONB@?7RXDMA0?$CFx?$AN?6?$AA@| DCB 0x9, "RXDMA0%x", 0xd, 0xa
	DCB	0x0					; `string'

  00000			 AREA	 |.rdata|, DATA, READONLY
|??_C@_0N@NLPFCDNF@?7RXDMA1?$DN?$CFx?$AN?6?$AA@| DCB 0x9, "RXDMA1=%x", 0xd
	DCB	0xa, 0x0				; `string'

  00000			 AREA	 |.rdata|, DATA, READONLY
|??_C@_0N@OKBNDJEI@?7RXDMA2?$DN?$CFx?$AN?6?$AA@| DCB 0x9, "RXDMA2=%x", 0xd
	DCB	0xa, 0x0				; `string'

  00000			 AREA	 |.rdata|, DATA, READONLY
|??_C@_09GEFJOLDC@?7EP0?$DN?$CFx?$AN?6?$AA@| DCB 0x9, "EP0=%x", 0xd, 0xa, 0x0 ; `string'

  00000			 AREA	 |.rdata|, DATA, READONLY
|??_C@_0P@IMIBGBLC@?7EP_RX?$FL0?$FN?$DN?$CFx?$AN?6?$AA@| DCB 0x9, "EP_RX["
	DCB	"0]=%x", 0xd, 0xa, 0x0			; `string'

  00000			 AREA	 |.rdata|, DATA, READONLY
|??_C@_0P@EACLGBCM@?7EP_RX?$FL1?$FN?$DN?$CFx?$AN?6?$AA@| DCB 0x9, "EP_RX["
	DCB	"1]=%x", 0xd, 0xa, 0x0			; `string'

  00000			 AREA	 |.rdata|, DATA, READONLY
|??_C@_0P@MOKEGGMP@?7EP_RX?$FL2?$FN?$DN?$CFx?$AN?6?$AA@| DCB 0x9, "EP_RX["
	DCB	"2]=%x", 0xd, 0xa, 0x0			; `string'

  00000			 AREA	 |.rdata|, DATA, READONLY
|??_C@_0P@CAOGGFB@?7EP_RX?$FL3?$FN?$DN?$CFx?$AN?6?$AA@| DCB 0x9, "EP_RX[3"
	DCB	"]=%x", 0xd, 0xa, 0x0			; `string'

  00000			 AREA	 |.rdata|, DATA, READONLY
|??_C@_0P@GEDEKLPB@?7EP_TX?$FL0?$FN?$DN?$CFx?$AN?6?$AA@| DCB 0x9, "EP_TX["
	DCB	"0]=%x", 0xd, 0xa, 0x0			; `string'

  00000			 AREA	 |.rdata|, DATA, READONLY
|??_C@_0P@KIJOKLGP@?7EP_TX?$FL1?$FN?$DN?$CFx?$AN?6?$AA@| DCB 0x9, "EP_TX["
	DCB	"1]=%x", 0xd, 0xa, 0x0			; `string'

  00000			 AREA	 |.rdata|, DATA, READONLY
|??_C@_0P@CGBBKMIM@?7EP_TX?$FL2?$FN?$DN?$CFx?$AN?6?$AA@| DCB 0x9, "EP_TX["
	DCB	"2]=%x", 0xd, 0xa, 0x0			; `string'

  00000			 AREA	 |.rdata|, DATA, READONLY
|??_C@_0P@OKLLKMBC@?7EP_TX?$FL3?$FN?$DN?$CFx?$AN?6?$AA@| DCB 0x9, "EP_TX["
	DCB	"3]=%x", 0xd, 0xa, 0x0			; `string'

  00000			 AREA	 |.rdata|, DATA, READONLY
|??_C@_0BF@HENLGELM@Dump?5OTG?5registers?$AN?6?$AA@| DCB "Dump OTG regist"
	DCB	"ers", 0xd, 0xa, 0x0			; `string'

  00000			 AREA	 |.rdata|, DATA, READONLY
|??_C@_09HAMFICBK@?7REV?$DN?$CFx?$AN?6?$AA@| DCB 0x9, "REV=%x", 0xd, 0xa, 0x0 ; `string'

  00000			 AREA	 |.rdata|, DATA, READONLY
|??_C@_0P@JJOOEDCD@?7SYSCON_1?$DN?$CFx?$AN?6?$AA@| DCB 0x9, "SYSCON_1=%x", 0xd
	DCB	0xa, 0x0				; `string'

  00000			 AREA	 |.rdata|, DATA, READONLY
|??_C@_0P@KIAGFJLO@?7SYSCON_2?$DN?$CFx?$AN?6?$AA@| DCB 0x9, "SYSCON_2=%x", 0xd
	DCB	0xa, 0x0				; `string'

  00000			 AREA	 |.rdata|, DATA, READONLY
|??_C@_0L@MMNHHAFE@?7CTRL?$DN?$CFx?$AN?6?$AA@| DCB 0x9, "CTRL=%x", 0xd, 0xa
	DCB	0x0					; `string'

  00000			 AREA	 |.rdata|, DATA, READONLY
|??_C@_0N@JJALLMMA@?7IRQ_EN?$DN?$CFx?$AN?6?$AA@| DCB 0x9, "IRQ_EN=%x", 0xd
	DCB	0xa, 0x0				; `string'

  00000			 AREA	 |.rdata|, DATA, READONLY
|??_C@_0O@FPCDFIMI@?7IRQ_SRC?$DN?$CFx?$AN?6?$AA@| DCB 0x9, "IRQ_SRC=%x", 0xd
	DCB	0xa, 0x0				; `string'

  00000			 AREA	 |.rdata|, DATA, READONLY
|??_C@_0O@FFLCLOJO@?7OUTCTRL?$DN?$CFx?$AN?6?$AA@| DCB 0x9, "OUTCTRL=%x", 0xd
	DCB	0xa, 0x0				; `string'

  00000			 AREA	 |.rdata|, DATA, READONLY
|??_C@_0L@CKIFGOMA@?7TEST?$DN?$CFx?$AN?6?$AA@| DCB 0x9, "TEST=%x", 0xd, 0xa
	DCB	0x0					; `string'
; Function compile flags: /Ogtp

  01760			 AREA	 |.text|, CODE, ARM

  01760		 |PDD_Dump| PROC

; 1210 : {

  01760		 |$LN5@PDD_Dump|
  01760	e92d4010	 stmdb       sp!, {r4, lr}
  01764		 |$M47970|
  01764	e1a04000	 mov         r4, r0

; 1211 :     OMAP2420_USBD_REGS *pPdd=(OMAP2420_USBD_REGS *) context;
; 1212 :     EdbgOutputDebugString("Dump USBD registers\r\n");

  01768	e59f02a8	 ldr         r0, [pc, #0x2A8]
  0176c	eb000000	 bl          KITLOutputDebugString

; 1213 :     EdbgOutputDebugString("\tREV=%x\r\n",INREG32(&pPdd->REV));                     // 0000 - Revision

  01770	e5941000	 ldr         r1, [r4]
  01774	e59f021c	 ldr         r0, [pc, #0x21C]
  01778	eb000000	 bl          KITLOutputDebugString

; 1214 :     EdbgOutputDebugString("\tEP_NUM=%x\r\n",INREG32(&pPdd->EP_NUM));                  // 0004 - Endpoint selection

  0177c	e5941004	 ldr         r1, [r4, #4]
  01780	e59f028c	 ldr         r0, [pc, #0x28C]
  01784	eb000000	 bl          KITLOutputDebugString

; 1215 :     EdbgOutputDebugString("\tDATA=%x\r\n",INREG32(&pPdd->DATA));                    // 0008 - Data

  01788	e5941008	 ldr         r1, [r4, #8]
  0178c	e59f027c	 ldr         r0, [pc, #0x27C]
  01790	eb000000	 bl          KITLOutputDebugString

; 1216 :     EdbgOutputDebugString("\tCTRL=%x\r\n",INREG32(&pPdd->CTRL));                    // 000C - Control

  01794	e594100c	 ldr         r1, [r4, #0xC]
  01798	e59f01ec	 ldr         r0, [pc, #0x1EC]
  0179c	eb000000	 bl          KITLOutputDebugString

; 1217 :     EdbgOutputDebugString("\tSTAT_FLG=%x\r\n",INREG32(&pPdd->STAT_FLG));                // 0010 - Status

  017a0	e5941010	 ldr         r1, [r4, #0x10]
  017a4	e59f0260	 ldr         r0, [pc, #0x260]
  017a8	eb000000	 bl          KITLOutputDebugString

; 1218 :     EdbgOutputDebugString("\tRXFSTAT=%x\r\n",INREG32(&pPdd->RXFSTAT));                 // 0014 - Receive FIFO status

  017ac	e5941014	 ldr         r1, [r4, #0x14]
  017b0	e59f0250	 ldr         r0, [pc, #0x250]
  017b4	eb000000	 bl          KITLOutputDebugString

; 1219 :     EdbgOutputDebugString("\tSYSCON1=%x\r\n",INREG32(&pPdd->SYSCON1));                 // 0018 - System configuration 1

  017b8	e5941018	 ldr         r1, [r4, #0x18]
  017bc	e59f0240	 ldr         r0, [pc, #0x240]
  017c0	eb000000	 bl          KITLOutputDebugString

; 1220 :     EdbgOutputDebugString("\tSYSCON2=%x\r\n",INREG32(&pPdd->SYSCON2));                 // 001C - System configuration 2

  017c4	e594101c	 ldr         r1, [r4, #0x1C]
  017c8	e59f0230	 ldr         r0, [pc, #0x230]
  017cc	eb000000	 bl          KITLOutputDebugString

; 1221 :     EdbgOutputDebugString("\tDEVSTAT=%x\r\n",INREG32(&pPdd->DEVSTAT));                 // 0020 - Device status

  017d0	e5941020	 ldr         r1, [r4, #0x20]
  017d4	e59f0220	 ldr         r0, [pc, #0x220]
  017d8	eb000000	 bl          KITLOutputDebugString

; 1222 :     EdbgOutputDebugString("\tSOF=%x\r\n",INREG32(&pPdd->SOF));                     // 0024 - Start of frame

  017dc	e5941024	 ldr         r1, [r4, #0x24]
  017e0	e59f0210	 ldr         r0, [pc, #0x210]
  017e4	eb000000	 bl          KITLOutputDebugString

; 1223 :     EdbgOutputDebugString("\tIRQ_EN=%x\r\n",INREG32(&pPdd->IRQ_EN));                  // 0028 - Interrupt enable

  017e8	e5941028	 ldr         r1, [r4, #0x28]
  017ec	e59f0194	 ldr         r0, [pc, #0x194]
  017f0	eb000000	 bl          KITLOutputDebugString

; 1224 :     EdbgOutputDebugString("\tDMA_IRQ_EN=%x\r\n",INREG32(&pPdd->DMA_IRQ_EN));              // 002C - DMA interrupt enable

  017f4	e594102c	 ldr         r1, [r4, #0x2C]
  017f8	e59f01f4	 ldr         r0, [pc, #0x1F4]
  017fc	eb000000	 bl          KITLOutputDebugString

; 1225 :     EdbgOutputDebugString("\tIRQ_SRC=%x\r\n",INREG32(&pPdd->IRQ_SRC));                 // 0030 - Interrupt source

  01800	e5941030	 ldr         r1, [r4, #0x30]
  01804	e59f0178	 ldr         r0, [pc, #0x178]
  01808	eb000000	 bl          KITLOutputDebugString

; 1226 :     EdbgOutputDebugString("\tEP_STAT=%x\r\n",INREG32(&pPdd->EP_STAT));                 // 0034 - Non-ISO endpoint interrupt enable

  0180c	e5941034	 ldr         r1, [r4, #0x34]
  01810	e59f01d8	 ldr         r0, [pc, #0x1D8]
  01814	eb000000	 bl          KITLOutputDebugString

; 1227 :     EdbgOutputDebugString("\tDMA_STAT=%x\r\n",INREG32(&pPdd->DMA_STAT));                // 0038 - Non-ISO DMA interrupt enable

  01818	e5941038	 ldr         r1, [r4, #0x38]
  0181c	e59f01c8	 ldr         r0, [pc, #0x1C8]
  01820	eb000000	 bl          KITLOutputDebugString

; 1228 :     EdbgOutputDebugString("\tRXDMA_CFG=%x\r\n",INREG32(&pPdd->RXDMA_CFG));               // 0040 - DMA receive channels config

  01824	e5941040	 ldr         r1, [r4, #0x40]
  01828	e59f01b8	 ldr         r0, [pc, #0x1B8]
  0182c	eb000000	 bl          KITLOutputDebugString

; 1229 :     EdbgOutputDebugString("\tTXDMA_CFG=%x\r\n",INREG32(&pPdd->TXDMA_CFG));               // 0044 - DMA transmit channels config

  01830	e5941044	 ldr         r1, [r4, #0x44]
  01834	e59f01a8	 ldr         r0, [pc, #0x1A8]
  01838	eb000000	 bl          KITLOutputDebugString

; 1230 :     EdbgOutputDebugString("\tDATA_DMA=%x\r\n",INREG32(&pPdd->DATA_DMA));                // 0048 - DMA FIFO data

  0183c	e5941048	 ldr         r1, [r4, #0x48]
  01840	e59f0198	 ldr         r0, [pc, #0x198]
  01844	eb000000	 bl          KITLOutputDebugString

; 1231 :     EdbgOutputDebugString("\tTXDMA0=%x\r\n",INREG32(&pPdd->TXDMA0));                  // 0050 - Transmit DMA control 0

  01848	e5941050	 ldr         r1, [r4, #0x50]
  0184c	e59f0188	 ldr         r0, [pc, #0x188]
  01850	eb000000	 bl          KITLOutputDebugString

; 1232 :     EdbgOutputDebugString("\tTXDMA1=%x\r\n",INREG32(&pPdd->TXDMA1));                  // 0054 - Transmit DMA control 1

  01854	e5941054	 ldr         r1, [r4, #0x54]
  01858	e59f0178	 ldr         r0, [pc, #0x178]
  0185c	eb000000	 bl          KITLOutputDebugString

; 1233 :     EdbgOutputDebugString("\tTXDMA2=%x\r\n",INREG32(&pPdd->TXDMA2));                  // 0058 - Transmit DMA control 2

  01860	e5941058	 ldr         r1, [r4, #0x58]
  01864	e59f0168	 ldr         r0, [pc, #0x168]
  01868	eb000000	 bl          KITLOutputDebugString

; 1234 :     EdbgOutputDebugString("\tRXDMA0%x\r\n",INREG32(&pPdd->RXDMA0));                  // 0060 - Receive DMA control 0

  0186c	e5941060	 ldr         r1, [r4, #0x60]
  01870	e59f0158	 ldr         r0, [pc, #0x158]
  01874	eb000000	 bl          KITLOutputDebugString

; 1235 :     EdbgOutputDebugString("\tRXDMA1=%x\r\n",INREG32(&pPdd->RXDMA1));                  // 0064 - Receive DMA control 0

  01878	e5941064	 ldr         r1, [r4, #0x64]
  0187c	e59f0148	 ldr         r0, [pc, #0x148]
  01880	eb000000	 bl          KITLOutputDebugString

; 1236 :     EdbgOutputDebugString("\tRXDMA2=%x\r\n",INREG32(&pPdd->RXDMA2));                  // 0068 - Receive DMA control 0

  01884	e5941068	 ldr         r1, [r4, #0x68]
  01888	e59f0138	 ldr         r0, [pc, #0x138]
  0188c	eb000000	 bl          KITLOutputDebugString

; 1237 :     EdbgOutputDebugString("\tEP0=%x\r\n",INREG32(&pPdd->EP0));                     // 0080 - Endpoint 0 configuration

  01890	e5941080	 ldr         r1, [r4, #0x80]
  01894	e59f0128	 ldr         r0, [pc, #0x128]
  01898	eb000000	 bl          KITLOutputDebugString

; 1238 :     EdbgOutputDebugString("\tEP_RX[0]=%x\r\n",INREG32(&pPdd->EP_RX[0]));                     // 0080 - Endpoint 0 configuration

  0189c	e5941084	 ldr         r1, [r4, #0x84]
  018a0	e59f0118	 ldr         r0, [pc, #0x118]
  018a4	eb000000	 bl          KITLOutputDebugString

; 1239 :     EdbgOutputDebugString("\tEP_RX[1]=%x\r\n",INREG32(&pPdd->EP_RX[1]));                     // 0080 - Endpoint 0 configuration

  018a8	e5941088	 ldr         r1, [r4, #0x88]
  018ac	e59f0108	 ldr         r0, [pc, #0x108]
  018b0	eb000000	 bl          KITLOutputDebugString

; 1240 :     EdbgOutputDebugString("\tEP_RX[2]=%x\r\n",INREG32(&pPdd->EP_RX[2]));                     // 0080 - Endpoint 0 configuration

  018b4	e594108c	 ldr         r1, [r4, #0x8C]
  018b8	e59f00f8	 ldr         r0, [pc, #0xF8]
  018bc	eb000000	 bl          KITLOutputDebugString

; 1241 :     EdbgOutputDebugString("\tEP_RX[3]=%x\r\n",INREG32(&pPdd->EP_RX[3]));                     // 0080 - Endpoint 0 configuration

  018c0	e5941090	 ldr         r1, [r4, #0x90]
  018c4	e59f00e8	 ldr         r0, [pc, #0xE8]
  018c8	eb000000	 bl          KITLOutputDebugString

; 1242 :     EdbgOutputDebugString("\tEP_TX[0]=%x\r\n",INREG32(&pPdd->EP_TX[0]));                     // 0080 - Endpoint 0 configuration

  018cc	e59410c4	 ldr         r1, [r4, #0xC4]
  018d0	e59f00d8	 ldr         r0, [pc, #0xD8]
  018d4	eb000000	 bl          KITLOutputDebugString

; 1243 :     EdbgOutputDebugString("\tEP_TX[1]=%x\r\n",INREG32(&pPdd->EP_TX[1]));                     // 0080 - Endpoint 0 configuration

  018d8	e59410c8	 ldr         r1, [r4, #0xC8]
  018dc	e59f00c8	 ldr         r0, [pc, #0xC8]
  018e0	eb000000	 bl          KITLOutputDebugString

; 1244 :     EdbgOutputDebugString("\tEP_TX[2]=%x\r\n",INREG32(&pPdd->EP_TX[2]));                     // 0080 - Endpoint 0 configuration

  018e4	e59410cc	 ldr         r1, [r4, #0xCC]
  018e8	e59f00b8	 ldr         r0, [pc, #0xB8]
  018ec	eb000000	 bl          KITLOutputDebugString

; 1245 :     EdbgOutputDebugString("\tEP_TX[3]=%x\r\n",INREG32(&pPdd->EP_TX[3]));                     // 0080 - Endpoint 0 configuration

  018f0	e59410d0	 ldr         r1, [r4, #0xD0]
  018f4	e59f00a8	 ldr         r0, [pc, #0xA8]
  018f8	eb000000	 bl          KITLOutputDebugString

; 1246 : 
; 1247 :     {
; 1248 : //      OMAP2420_ULPD_REGS * pStatus = OALPAtoUA(OMAP2420_ULPD_REGS_PA);
; 1249 : //      EdbgOutputDebugString("Dump UPLD registers\r\n");
; 1250 : //      EdbgOutputDebugString("\tSTATUS_REQ=%x\r\n",INREG32(&pStatus->STATUS_REQ));                     
; 1251 :     }
; 1252 :     {
; 1253 :         OMAP2420_OTG_REGS * pOtg = OALPAtoUA(OMAP2420_OTG_REGS_PA);

  018fc	e59f009c	 ldr         r0, [pc, #0x9C]
  01900	e3a01000	 mov         r1, #0
  01904	eb000000	 bl          OALPAtoVA
  01908	e1a04000	 mov         r4, r0

; 1254 :         EdbgOutputDebugString("Dump OTG registers\r\n");

  0190c	e59f0088	 ldr         r0, [pc, #0x88]
  01910	eb000000	 bl          KITLOutputDebugString

; 1255 :         EdbgOutputDebugString("\tREV=%x\r\n",INREG32(&pOtg->REV));                     

  01914	e5941000	 ldr         r1, [r4]
  01918	e59f0078	 ldr         r0, [pc, #0x78]
  0191c	eb000000	 bl          KITLOutputDebugString

; 1256 :         EdbgOutputDebugString("\tSYSCON_1=%x\r\n",INREG32(&pOtg->SYSCON_1));                     

  01920	e5941004	 ldr         r1, [r4, #4]
  01924	e59f0068	 ldr         r0, [pc, #0x68]
  01928	eb000000	 bl          KITLOutputDebugString

; 1257 :         EdbgOutputDebugString("\tSYSCON_2=%x\r\n",INREG32(&pOtg->SYSCON_2));                     

  0192c	e5941008	 ldr         r1, [r4, #8]
  01930	e59f0058	 ldr         r0, [pc, #0x58]
  01934	eb000000	 bl          KITLOutputDebugString

; 1258 :         EdbgOutputDebugString("\tCTRL=%x\r\n",INREG32(&pOtg->CTRL));                     

  01938	e594100c	 ldr         r1, [r4, #0xC]
  0193c	e59f0048	 ldr         r0, [pc, #0x48]
  01940	eb000000	 bl          KITLOutputDebugString

; 1259 :         EdbgOutputDebugString("\tIRQ_EN=%x\r\n",INREG32(&pOtg->IRQ_EN));                     

  01944	e5941010	 ldr         r1, [r4, #0x10]
  01948	e59f0038	 ldr         r0, [pc, #0x38]
  0194c	eb000000	 bl          KITLOutputDebugString

; 1260 :         EdbgOutputDebugString("\tIRQ_SRC=%x\r\n",INREG32(&pOtg->IRQ_SRC));                     

  01950	e5941014	 ldr         r1, [r4, #0x14]
  01954	e59f0028	 ldr         r0, [pc, #0x28]
  01958	eb000000	 bl          KITLOutputDebugString

; 1261 :         EdbgOutputDebugString("\tOUTCTRL=%x\r\n",INREG32(&pOtg->OUTCTRL));                     

  0195c	e5941018	 ldr         r1, [r4, #0x18]
  01960	e59f0018	 ldr         r0, [pc, #0x18]
  01964	eb000000	 bl          KITLOutputDebugString

; 1262 :         EdbgOutputDebugString("\tTEST=%x\r\n",INREG32(&pOtg->TEST));                                       

  01968	e5941020	 ldr         r1, [r4, #0x20]
  0196c	e59f0008	 ldr         r0, [pc, #8]
  01970	eb000000	 bl          KITLOutputDebugString

; 1263 :     }
; 1264 : 
; 1265 : 
; 1266 : }

  01974	e8bd4010	 ldmia       sp!, {r4, lr}
  01978	e12fff1e	 bx          lr
  0197c		 |$LN6@PDD_Dump|
  0197c		 |$LN7@PDD_Dump|
  0197c	00000000	 DCD         |??_C@_0L@CKIFGOMA@?7TEST?$DN?$CFx?$AN?6?$AA@|
  01980		 |$LN8@PDD_Dump|
  01980	00000000	 DCD         |??_C@_0O@FFLCLOJO@?7OUTCTRL?$DN?$CFx?$AN?6?$AA@|
  01984		 |$LN9@PDD_Dump|
  01984	00000000	 DCD         |??_C@_0O@FPCDFIMI@?7IRQ_SRC?$DN?$CFx?$AN?6?$AA@|
  01988		 |$LN10@PDD_Dump|
  01988	00000000	 DCD         |??_C@_0N@JJALLMMA@?7IRQ_EN?$DN?$CFx?$AN?6?$AA@|
  0198c		 |$LN11@PDD_Dump|
  0198c	00000000	 DCD         |??_C@_0L@MMNHHAFE@?7CTRL?$DN?$CFx?$AN?6?$AA@|
  01990		 |$LN12@PDD_Dump|
  01990	00000000	 DCD         |??_C@_0P@KIAGFJLO@?7SYSCON_2?$DN?$CFx?$AN?6?$AA@|
  01994		 |$LN13@PDD_Dump|
  01994	00000000	 DCD         |??_C@_0P@JJOOEDCD@?7SYSCON_1?$DN?$CFx?$AN?6?$AA@|
  01998		 |$LN14@PDD_Dump|
  01998	00000000	 DCD         |??_C@_09HAMFICBK@?7REV?$DN?$CFx?$AN?6?$AA@|
  0199c		 |$LN15@PDD_Dump|
  0199c	00000000	 DCD         |??_C@_0BF@HENLGELM@Dump?5OTG?5registers?$AN?6?$AA@|
  019a0		 |$LN16@PDD_Dump|
  019a0	4805e300	 DCD         0x4805e300
  019a4		 |$LN17@PDD_Dump|
  019a4	00000000	 DCD         |??_C@_0P@OKLLKMBC@?7EP_TX?$FL3?$FN?$DN?$CFx?$AN?6?$AA@|
  019a8		 |$LN18@PDD_Dump|
  019a8	00000000	 DCD         |??_C@_0P@CGBBKMIM@?7EP_TX?$FL2?$FN?$DN?$CFx?$AN?6?$AA@|
  019ac		 |$LN19@PDD_Dump|
  019ac	00000000	 DCD         |??_C@_0P@KIJOKLGP@?7EP_TX?$FL1?$FN?$DN?$CFx?$AN?6?$AA@|
  019b0		 |$LN20@PDD_Dump|
  019b0	00000000	 DCD         |??_C@_0P@GEDEKLPB@?7EP_TX?$FL0?$FN?$DN?$CFx?$AN?6?$AA@|
  019b4		 |$LN21@PDD_Dump|
  019b4	00000000	 DCD         |??_C@_0P@CAOGGFB@?7EP_RX?$FL3?$FN?$DN?$CFx?$AN?6?$AA@|
  019b8		 |$LN22@PDD_Dump|
  019b8	00000000	 DCD         |??_C@_0P@MOKEGGMP@?7EP_RX?$FL2?$FN?$DN?$CFx?$AN?6?$AA@|
  019bc		 |$LN23@PDD_Dump|
  019bc	00000000	 DCD         |??_C@_0P@EACLGBCM@?7EP_RX?$FL1?$FN?$DN?$CFx?$AN?6?$AA@|
  019c0		 |$LN24@PDD_Dump|
  019c0	00000000	 DCD         |??_C@_0P@IMIBGBLC@?7EP_RX?$FL0?$FN?$DN?$CFx?$AN?6?$AA@|
  019c4		 |$LN25@PDD_Dump|
  019c4	00000000	 DCD         |??_C@_09GEFJOLDC@?7EP0?$DN?$CFx?$AN?6?$AA@|
  019c8		 |$LN26@PDD_Dump|
  019c8	00000000	 DCD         |??_C@_0N@OKBNDJEI@?7RXDMA2?$DN?$CFx?$AN?6?$AA@|
  019cc		 |$LN27@PDD_Dump|
  019cc	00000000	 DCD         |??_C@_0N@NLPFCDNF@?7RXDMA1?$DN?$CFx?$AN?6?$AA@|
  019d0		 |$LN28@PDD_Dump|
  019d0	00000000	 DCD         |??_C@_0M@BBOPAONB@?7RXDMA0?$CFx?$AN?6?$AA@|
  019d4		 |$LN29@PDD_Dump|
  019d4	00000000	 DCD         |??_C@_0N@FCAJMKI@?7TXDMA2?$DN?$CFx?$AN?6?$AA@|
  019d8		 |$LN30@PDD_Dump|
  019d8	00000000	 DCD         |??_C@_0N@DEMIIGDF@?7TXDMA1?$DN?$CFx?$AN?6?$AA@|
  019dc		 |$LN31@PDD_Dump|
  019dc	00000000	 DCD         |??_C@_0N@JCLPINIB@?7TXDMA0?$DN?$CFx?$AN?6?$AA@|
  019e0		 |$LN32@PDD_Dump|
  019e0	00000000	 DCD         |??_C@_0P@DIBHBNHN@?7DATA_DMA?$DN?$CFx?$AN?6?$AA@|
  019e4		 |$LN33@PDD_Dump|
  019e4	00000000	 DCD         |??_C@_0BA@DGJBEALF@?7TXDMA_CFG?$DN?$CFx?$AN?6?$AA@|
  019e8		 |$LN34@PDD_Dump|
  019e8	00000000	 DCD         |??_C@_0BA@BEGLJEEH@?7RXDMA_CFG?$DN?$CFx?$AN?6?$AA@|
  019ec		 |$LN35@PDD_Dump|
  019ec	00000000	 DCD         |??_C@_0P@BOCDNFHO@?7DMA_STAT?$DN?$CFx?$AN?6?$AA@|
  019f0		 |$LN36@PDD_Dump|
  019f0	00000000	 DCD         |??_C@_0O@FFMEENGF@?7EP_STAT?$DN?$CFx?$AN?6?$AA@|
  019f4		 |$LN37@PDD_Dump|
  019f4	00000000	 DCD         |??_C@_0BB@IHEFMCAF@?7DMA_IRQ_EN?$DN?$CFx?$AN?6?$AA@|
  019f8		 |$LN38@PDD_Dump|
  019f8	00000000	 DCD         |??_C@_09JBKABGFP@?7SOF?$DN?$CFx?$AN?6?$AA@|
  019fc		 |$LN39@PDD_Dump|
  019fc	00000000	 DCD         |??_C@_0O@GHKEDAIJ@?7DEVSTAT?$DN?$CFx?$AN?6?$AA@|
  01a00		 |$LN40@PDD_Dump|
  01a00	00000000	 DCD         |??_C@_0O@OOOIKKAD@?7SYSCON2?$DN?$CFx?$AN?6?$AA@|
  01a04		 |$LN41@PDD_Dump|
  01a04	00000000	 DCD         |??_C@_0O@NPAALAJO@?7SYSCON1?$DN?$CFx?$AN?6?$AA@|
  01a08		 |$LN42@PDD_Dump|
  01a08	00000000	 DCD         |??_C@_0O@EPAHGBFH@?7RXFSTAT?$DN?$CFx?$AN?6?$AA@|
  01a0c		 |$LN43@PDD_Dump|
  01a0c	00000000	 DCD         |??_C@_0P@FINGHBFP@?7STAT_FLG?$DN?$CFx?$AN?6?$AA@|
  01a10		 |$LN44@PDD_Dump|
  01a10	00000000	 DCD         |??_C@_0L@GPOEAEFE@?7DATA?$DN?$CFx?$AN?6?$AA@|
  01a14		 |$LN45@PDD_Dump|
  01a14	00000000	 DCD         |??_C@_0N@CMEMAFLH@?7EP_NUM?$DN?$CFx?$AN?6?$AA@|
  01a18		 |$LN46@PDD_Dump|
  01a18	00000000	 DCD         |??_C@_0BG@EOFDEPKP@Dump?5USBD?5registers?$AN?6?$AA@|
  01a1c		 |$M47971|

			 ENDP  ; |PDD_Dump|

	END
